MODULE Linux arm64 9759199FEE29FBF9F15AC485323DEE5B0 alphalaneous.volume_input.android64.so
INFO CODE_ID 9F19599729EEF9FBF15AC485323DEE5B7CE996CD
INFO GENERATOR mozilla/dump_syms 2.3.4
PUBLIC 7780 0 __on_dlclose
PUBLIC 7790 0 __emutls_unregister_key
PUBLIC 7798 0 __on_dlclose_late
PUBLIC 77a0 0 __atexit_handler_wrapper
PUBLIC 77b4 0 atexit
PUBLIC 77d0 0 pthread_atfork
PUBLIC 77e0 0 unwind_phase2
PUBLIC 7914 0 _Unwind_Resume
PUBLIC 7998 0 unwind_phase2_forced
PUBLIC m 7a8c 0 __unw_init_local
PUBLIC m 7b34 0 __unw_get_reg
PUBLIC 7bb0 0 __unw_step_stage2
PUBLIC m 7bc4 0 __unw_get_proc_info
PUBLIC m 7c04 0 __unw_resume
PUBLIC 7c2c 0 libunwind::CFI_Parser<libunwind::LocalAddressSpace>::decodeFDE(libunwind::LocalAddressSpace&, unsigned long, libunwind::CFI_Parser<libunwind::LocalAddressSpace>::FDE_Info*, libunwind::CFI_Parser<libunwind::LocalAddressSpace>::CIE_Info*, bool)
PUBLIC 7dbc 0 libunwind::CFI_Parser<libunwind::LocalAddressSpace>::parseCIE(libunwind::LocalAddressSpace&, unsigned long, libunwind::CFI_Parser<libunwind::LocalAddressSpace>::CIE_Info*)
PUBLIC 8084 0 libunwind::AbstractUnwindCursor::~AbstractUnwindCursor()
PUBLIC 808c 0 libunwind::UnwindCursor<libunwind::LocalAddressSpace, libunwind::Registers_arm64>::~UnwindCursor()
PUBLIC 8094 0 libunwind::UnwindCursor<libunwind::LocalAddressSpace, libunwind::Registers_arm64>::validReg(int)
PUBLIC 80d8 0 libunwind::UnwindCursor<libunwind::LocalAddressSpace, libunwind::Registers_arm64>::getReg(int)
PUBLIC 81c0 0 libunwind::UnwindCursor<libunwind::LocalAddressSpace, libunwind::Registers_arm64>::setReg(int, unsigned long)
PUBLIC 82a8 0 libunwind::UnwindCursor<libunwind::LocalAddressSpace, libunwind::Registers_arm64>::validFloatReg(int)
PUBLIC 82bc 0 libunwind::UnwindCursor<libunwind::LocalAddressSpace, libunwind::Registers_arm64>::getFloatReg(int)
PUBLIC 82cc 0 libunwind::UnwindCursor<libunwind::LocalAddressSpace, libunwind::Registers_arm64>::setFloatReg(int, double)
PUBLIC 82dc 0 libunwind::UnwindCursor<libunwind::LocalAddressSpace, libunwind::Registers_arm64>::step(bool)
PUBLIC 83cc 0 libunwind::UnwindCursor<libunwind::LocalAddressSpace, libunwind::Registers_arm64>::getInfo(unw_proc_info_t*)
PUBLIC 8410 0 libunwind::UnwindCursor<libunwind::LocalAddressSpace, libunwind::Registers_arm64>::jumpto()
PUBLIC 841c 0 libunwind::UnwindCursor<libunwind::LocalAddressSpace, libunwind::Registers_arm64>::isSignalFrame()
PUBLIC 8428 0 libunwind::UnwindCursor<libunwind::LocalAddressSpace, libunwind::Registers_arm64>::getFunctionName(char*, unsigned long, unsigned long*)
PUBLIC 8454 0 libunwind::UnwindCursor<libunwind::LocalAddressSpace, libunwind::Registers_arm64>::setInfoBasedOnIPRegister(bool)
PUBLIC 86d4 0 libunwind::UnwindCursor<libunwind::LocalAddressSpace, libunwind::Registers_arm64>::getRegisterName(int)
PUBLIC 86e0 0 libunwind::UnwindCursor<libunwind::LocalAddressSpace, libunwind::Registers_arm64>::stepThroughSigReturn(libunwind::Registers_arm64&)
PUBLIC 8800 0 libunwind::DwarfInstructions<libunwind::LocalAddressSpace, libunwind::Registers_arm64>::stepWithDwarf(libunwind::LocalAddressSpace&, unsigned long, unsigned long, libunwind::Registers_arm64&, bool&, bool)
PUBLIC 8c88 0 libunwind::CFI_Parser<libunwind::LocalAddressSpace>::parseFDEInstructions(libunwind::LocalAddressSpace&, libunwind::CFI_Parser<libunwind::LocalAddressSpace>::FDE_Info const&, libunwind::CFI_Parser<libunwind::LocalAddressSpace>::CIE_Info const&, unsigned long, int, libunwind::CFI_Parser<libunwind::LocalAddressSpace>::PrologInfo*)
PUBLIC 98d0 0 libunwind::DwarfInstructions<libunwind::LocalAddressSpace, libunwind::Registers_arm64>::getCFA(libunwind::LocalAddressSpace&, libunwind::CFI_Parser<libunwind::LocalAddressSpace>::PrologInfo const&, libunwind::Registers_arm64 const&)
PUBLIC 9a04 0 libunwind::DwarfInstructions<libunwind::LocalAddressSpace, libunwind::Registers_arm64>::getSavedRegister(libunwind::LocalAddressSpace&, libunwind::Registers_arm64 const&, unsigned long, libunwind::CFI_Parser<libunwind::LocalAddressSpace>::RegisterLocation const&)
PUBLIC 9c14 0 libunwind::LocalAddressSpace::getEncodedP(unsigned long&, unsigned long, unsigned char, unsigned long)
PUBLIC 9fa0 0 libunwind::LocalAddressSpace::getULEB128(unsigned long&, unsigned long)
PUBLIC a168 0 libunwind::DwarfInstructions<libunwind::LocalAddressSpace, libunwind::Registers_arm64>::evaluateExpression(unsigned long, libunwind::LocalAddressSpace&, libunwind::Registers_arm64 const&, unsigned long)
PUBLIC ab24 0 libunwind::UnwindCursor<libunwind::LocalAddressSpace, libunwind::Registers_arm64>::getInfoFromDwarfSection(unsigned long, libunwind::UnwindInfoSections const&, unsigned int)
PUBLIC adf8 0 libunwind::findUnwindSectionsByPhdr(dl_phdr_info*, unsigned long, void*)
PUBLIC af2c 0 libunwind::EHHeaderParser<libunwind::LocalAddressSpace>::decodeEHHdr(libunwind::LocalAddressSpace&, unsigned long, unsigned long, libunwind::EHHeaderParser<libunwind::LocalAddressSpace>::EHHeaderInfo&)
PUBLIC b04c 0 libunwind::CFI_Parser<libunwind::LocalAddressSpace>::findFDE(libunwind::LocalAddressSpace&, unsigned long, unsigned long, unsigned long, unsigned long, libunwind::CFI_Parser<libunwind::LocalAddressSpace>::FDE_Info*, libunwind::CFI_Parser<libunwind::LocalAddressSpace>::CIE_Info*)
PUBLIC b214 0 libunwind::EHHeaderParser<libunwind::LocalAddressSpace>::findFDE(libunwind::LocalAddressSpace&, unsigned long, unsigned long, unsigned int, libunwind::CFI_Parser<libunwind::LocalAddressSpace>::FDE_Info*, libunwind::CFI_Parser<libunwind::LocalAddressSpace>::CIE_Info*)
PUBLIC b37c 0 libunwind::EHHeaderParser<libunwind::LocalAddressSpace>::getTableEntrySize(unsigned char)
PUBLIC b478 0 libunwind::Registers_arm64::getRegisterName(int)
PUBLIC b4a8 0 __libunwind_Registers_arm64_jumpto
PUBLIC m b538 0 __unw_getcontext
PUBLIC b5e0 0 __aarch64_ldadd8_relax
PUBLIC b610 0 init_have_lse_atomics
PUBLIC b6a8 0 __init_cpu_features_constructor
PUBLIC bc44 0 __init_cpu_features
PUBLIC bcd0 0 __aarch64_ldadd8_acq_rel
PUBLIC bd00 0 __cxx_global_var_init
PUBLIC c184 0 geode::modifier::ModifyBase<geode::modifier::ModifyDerive<MySliderTouchLogic, SliderTouchLogic> >::~ModifyBase()
PUBLIC c19c 0 __cxx_global_var_init.1
PUBLIC c620 0 geode::modifier::ModifyBase<geode::modifier::ModifyDerive<MyOptionsLayer, OptionsLayer> >::~ModifyBase()
PUBLIC c638 0 geode::modifier::ModifyDerive<MySliderTouchLogic, SliderTouchLogic>::apply()
PUBLIC c9e4 0 std::__ndk1::shared_ptr<geode::Hook>::~shared_ptr[abi:ne180000]()
PUBLIC ca34 0 geode::impl::ResultData<geode::Hook*, std::__ndk1::basic_string<char, std::__ndk1::char_traits<char>, std::__ndk1::allocator<char> > >::~ResultData()
PUBLIC caa8 0 std::__ndk1::vector<std::__ndk1::basic_string<char, std::__ndk1::char_traits<char>, std::__ndk1::allocator<char> >, std::__ndk1::allocator<std::__ndk1::basic_string<char, std::__ndk1::char_traits<char>, std::__ndk1::allocator<char> > > >::~vector[abi:ne180000]()
PUBLIC cb24 0 geode::modifier::ModifyBase<geode::modifier::ModifyDerive<MySliderTouchLogic, SliderTouchLogic> >::apply()
PUBLIC cb28 0 __clang_call_terminate
PUBLIC cb38 0 _ZN5geode15UnwrapExceptionC2IRPNS_4HookEQsr4implE18IsStringStreamableIT_EEENS_4impl5OkTagEOS5_
PUBLIC cc8c 0 std::__ndk1::__throw_bad_variant_access[abi:ne180000]()
PUBLIC ccc0 0 std::__ndk1::basic_stringstream<char, std::__ndk1::char_traits<char>, std::__ndk1::allocator<char> >::basic_stringstream[abi:ne180000]()
PUBLIC m cdec 0 std::__ndk1::basic_stringstream<char, std::__ndk1::char_traits<char>, std::__ndk1::allocator<char> >::~basic_stringstream()
PUBLIC ce6c 0 geode::UnwrapException::~UnwrapException()
PUBLIC ce90 0 std::__ndk1::__put_character_sequence[abi:ne180000]<char, std::__ndk1::char_traits<char> >(std::__ndk1::basic_ostream<char, std::__ndk1::char_traits<char> >, std::__ndk1::basic_ostream const*, unsigned long)
PUBLIC d034 0 std::__ndk1::__pad_and_output[abi:ne180000]<char, std::__ndk1::char_traits<char> >(std::__ndk1::char_traits<char>, std::__ndk1::ostreambuf_iterator const*, std::__ndk1::ostreambuf_iterator const, std::__ndk1::ostreambuf_iterator const, std::__ndk1::ios_base&, std::__ndk1::ostreambuf_iterator)
PUBLIC d210 0 std::__ndk1::basic_string<char, std::__ndk1::char_traits<char>, std::__ndk1::allocator<char> >::__throw_length_error[abi:ne180000]() const
PUBLIC d224 0 std::__ndk1::__throw_length_error[abi:ne180000](char const*)
PUBLIC d274 0 std::length_error::length_error[abi:ne180000](char const*)
PUBLIC d2a4 0 std::__throw_bad_array_new_length([abi:ne180000], void)
PUBLIC d2d8 0 std::__ndk1::basic_stringbuf<char, std::__ndk1::char_traits<char>, std::__ndk1::allocator<char> >::str[abi:ne180000]() &&
PUBLIC d450 0 std::__ndk1::basic_stringbuf<char, std::__ndk1::char_traits<char>, std::__ndk1::allocator<char> >::__init_buf_ptrs[abi:ne180000]()
PUBLIC d598 0 std::__ndk1::vector<std::__ndk1::basic_string<char, std::__ndk1::char_traits<char>, std::__ndk1::allocator<char> >, std::__ndk1::allocator<std::__ndk1::basic_string<char, std::__ndk1::char_traits<char>, std::__ndk1::allocator<char> > > >::__push_back_slow_path<std::__ndk1::basic_string<char, std::__ndk1::char_traits<char>, std::__ndk1::allocator<char> > const&>(std::__ndk1::basic_string<char, std::__ndk1::char_traits<char>, std::__ndk1::allocator<char> > const&)
PUBLIC d7bc 0 std::__ndk1::basic_string<char, std::__ndk1::char_traits<char>, std::__ndk1::allocator<char> >::__init_copy_ctor_external(char const*, unsigned long)
PUBLIC d83c 0 std::__ndk1::__split_buffer<std::__ndk1::basic_string<char, std::__ndk1::char_traits<char>, std::__ndk1::allocator<char> >, std::__ndk1::allocator<std::__ndk1::basic_string<char, std::__ndk1::char_traits<char>, std::__ndk1::allocator<char> > >&>::~__split_buffer()
PUBLIC d8a4 0 std::__ndk1::vector<std::__ndk1::basic_string<char, std::__ndk1::char_traits<char>, std::__ndk1::allocator<char> >, std::__ndk1::allocator<std::__ndk1::basic_string<char, std::__ndk1::char_traits<char>, std::__ndk1::allocator<char> > > >::__throw_length_error[abi:ne180000]() const
PUBLIC d8b8 0 std::__ndk1::__variant_detail::__visitation::__base::__dispatcher<(unsigned long)0>::__dispatch[abi:ne180000]<std::__ndk1::__variant_detail::__dtor<std::__ndk1::__variant_detail::__traits<geode::Hook*, std::__ndk1::basic_string<char, std::__ndk1::char_traits<char>, std::__ndk1::allocator<char> > >, (std::__ndk1::__variant_detail::_Trait)1>::__destroy[abi:ne180000]()::{lambda(auto:1&)#1}, std::__ndk1::__variant_detail::__base<(std::__ndk1::__variant_detail::__traits<geode::Hook*, std::__ndk1::basic_string<char, std::__ndk1::char_traits<char>, std::__ndk1::allocator<char> > >)1, geode::Hook, std::__ndk1::allocator<char> >&>(std::__ndk1::__variant_detail::__dtor<std::__ndk1::__variant_detail::__traits<geode::Hook*, std::__ndk1::basic_string<char, std::__ndk1::char_traits<char>, std::__ndk1::allocator<char> > >, (std::__ndk1::__variant_detail::_Trait)1>, std::__ndk1::__variant_detail::__base<(std::__ndk1::__variant_detail::__traits<geode::Hook*, std::__ndk1::basic_string<char, std::__ndk1::char_traits<char>, std::__ndk1::allocator<char> > >)1, geode::Hook, std::__ndk1::allocator<char> >&)
PUBLIC d8bc 0 std::__ndk1::__variant_detail::__visitation::__base::__dispatcher<(unsigned long)1>::__dispatch[abi:ne180000]<std::__ndk1::__variant_detail::__dtor<std::__ndk1::__variant_detail::__traits<geode::Hook*, std::__ndk1::basic_string<char, std::__ndk1::char_traits<char>, std::__ndk1::allocator<char> > >, (std::__ndk1::__variant_detail::_Trait)1>::__destroy[abi:ne180000]()::{lambda(auto:1&)#1}, std::__ndk1::__variant_detail::__base<(std::__ndk1::__variant_detail::__traits<geode::Hook*, std::__ndk1::basic_string<char, std::__ndk1::char_traits<char>, std::__ndk1::allocator<char> > >)1, geode::Hook, std::__ndk1::allocator<char> >&>(std::__ndk1::__variant_detail::__dtor<std::__ndk1::__variant_detail::__traits<geode::Hook*, std::__ndk1::basic_string<char, std::__ndk1::char_traits<char>, std::__ndk1::allocator<char> > >, (std::__ndk1::__variant_detail::_Trait)1>, std::__ndk1::__variant_detail::__base<(std::__ndk1::__variant_detail::__traits<geode::Hook*, std::__ndk1::basic_string<char, std::__ndk1::char_traits<char>, std::__ndk1::allocator<char> > >)1, geode::Hook, std::__ndk1::allocator<char> >&)
PUBLIC d8d0 0 std::__ndk1::__tree<std::__ndk1::__value_type<std::__ndk1::basic_string<char, std::__ndk1::char_traits<char>, std::__ndk1::allocator<char> >, std::__ndk1::shared_ptr<geode::Hook> >, std::__ndk1::__map_value_compare<std::__ndk1::basic_string<char, std::__ndk1::char_traits<char>, std::__ndk1::allocator<char> >, std::__ndk1::__value_type<std::__ndk1::basic_string<char, std::__ndk1::char_traits<char>, std::__ndk1::allocator<char> >, std::__ndk1::shared_ptr<geode::Hook> >, std::__ndk1::less<std::__ndk1::basic_string<char, std::__ndk1::char_traits<char>, std::__ndk1::allocator<char> > >, true>, std::__ndk1::allocator<std::__ndk1::__value_type<std::__ndk1::basic_string<char, std::__ndk1::char_traits<char>, std::__ndk1::allocator<char> >, std::__ndk1::shared_ptr<geode::Hook> > > >::find<std::__ndk1::basic_string<char, std::__ndk1::char_traits<char>, std::__ndk1::allocator<char> > >(std::__ndk1::basic_string<char, std::__ndk1::char_traits<char>, std::__ndk1::allocator<char> > const&)
PUBLIC d9f0 0 std::__ndk1::__tree<std::__ndk1::__value_type<std::__ndk1::basic_string<char, std::__ndk1::char_traits<char>, std::__ndk1::allocator<char> >, std::__ndk1::shared_ptr<geode::Hook> >, std::__ndk1::__map_value_compare<std::__ndk1::basic_string<char, std::__ndk1::char_traits<char>, std::__ndk1::allocator<char> >, std::__ndk1::__value_type<std::__ndk1::basic_string<char, std::__ndk1::char_traits<char>, std::__ndk1::allocator<char> >, std::__ndk1::shared_ptr<geode::Hook> >, std::__ndk1::less<std::__ndk1::basic_string<char, std::__ndk1::char_traits<char>, std::__ndk1::allocator<char> > >, true>, std::__ndk1::allocator<std::__ndk1::__value_type<std::__ndk1::basic_string<char, std::__ndk1::char_traits<char>, std::__ndk1::allocator<char> >, std::__ndk1::shared_ptr<geode::Hook> > > >::erase(std::__ndk1::__tree_const_iterator<std::__ndk1::__value_type<std::__ndk1::basic_string<char, std::__ndk1::char_traits<char>, std::__ndk1::allocator<char> >, std::__ndk1::shared_ptr<geode::Hook> >, std::__ndk1::__tree_node<std::__ndk1::__value_type<std::__ndk1::basic_string<char, std::__ndk1::char_traits<char>, std::__ndk1::allocator<char> >, std::__ndk1::shared_ptr<geode::Hook> >, void*>*, long>)
PUBLIC de94 0 std::__ndk1::__tree<std::__ndk1::__value_type<std::__ndk1::basic_string<char, std::__ndk1::char_traits<char>, std::__ndk1::allocator<char> >, std::__ndk1::shared_ptr<geode::Hook> >, std::__ndk1::__map_value_compare<std::__ndk1::basic_string<char, std::__ndk1::char_traits<char>, std::__ndk1::allocator<char> >, std::__ndk1::__value_type<std::__ndk1::basic_string<char, std::__ndk1::char_traits<char>, std::__ndk1::allocator<char> >, std::__ndk1::shared_ptr<geode::Hook> >, std::__ndk1::less<std::__ndk1::basic_string<char, std::__ndk1::char_traits<char>, std::__ndk1::allocator<char> > >, true>, std::__ndk1::allocator<std::__ndk1::__value_type<std::__ndk1::basic_string<char, std::__ndk1::char_traits<char>, std::__ndk1::allocator<char> >, std::__ndk1::shared_ptr<geode::Hook> > > >::destroy(std::__ndk1::__tree_node<std::__ndk1::__value_type<std::__ndk1::basic_string<char, std::__ndk1::char_traits<char>, std::__ndk1::allocator<char> >, std::__ndk1::shared_ptr<geode::Hook> >, void*>*)
PUBLIC df18 0 geode::modifier::AsStaticFunction_ccTouchMoved<MySliderTouchLogic, void (MySliderTouchLogic::*)(cocos2d::CCTouch*, cocos2d::CCEvent*)>::Impl<void (MySliderTouchLogic::*)(cocos2d::CCTouch*, cocos2d::CCEvent*)>::function(MySliderTouchLogic*, cocos2d::CCTouch*, cocos2d::CCEvent*)
PUBLIC dfb8 0 geode::addresser::Addresser::addressOfVirtual<void, SliderTouchLogic, cocos2d::CCTouch*, cocos2d::CCEvent*>(void (SliderTouchLogic::*)(cocos2d::CCTouch*, cocos2d::CCEvent*))
PUBLIC e060 0 SliderTouchLogic::SliderTouchLogic(geode::ZeroConstructorType)
PUBLIC e100 0 std::__ndk1::shared_ptr<tulip::hook::CallingConvention>::~shared_ptr[abi:ne180000]()
PUBLIC e150 0 tulip::hook::HandlerMetadata::~HandlerMetadata()
PUBLIC e1b4 0 geode::modifier::FieldIntermediate<MySliderTouchLogic, SliderTouchLogic>::self()
PUBLIC e348 0 geode::modifier::FieldContainer::getField(unsigned long)
PUBLIC e78c 0 geode::modifier::FieldContainer::setField(unsigned long, unsigned long, std::__ndk1::function<void (void*)>)
PUBLIC e898 0 geode::modifier::FieldIntermediate<MySliderTouchLogic, SliderTouchLogic>::fieldDestructor(void*)
PUBLIC e8d0 0 std::__ndk1::vector<void*, std::__ndk1::allocator<void*> >::__throw_length_error[abi:ne180000]() const
PUBLIC e8e4 0 std::__ndk1::vector<std::__ndk1::function<void (void*)>, std::__ndk1::allocator<std::__ndk1::function<void (void*)> > >::__throw_length_error[abi:ne180000]() const
PUBLIC e8f8 0 std::__ndk1::vector<void*, std::__ndk1::allocator<void*> >::__throw_out_of_range[abi:ne180000]() const
PUBLIC e904 0 std::__ndk1::__throw_out_of_range[abi:ne180000](char const*)
PUBLIC e954 0 std::out_of_range::out_of_range[abi:ne180000](char const*)
PUBLIC e984 0 std::__ndk1::vector<std::__ndk1::function<void (void*)>, std::__ndk1::allocator<std::__ndk1::function<void (void*)> > >::__throw_out_of_range[abi:ne180000]() const
PUBLIC e990 0 std::__ndk1::__function::__base<void (void*)>::~__base()
PUBLIC e994 0 std::__ndk1::__function::__func<void (*)(void*), std::__ndk1::allocator<void (*)(void*)>, void (void*)>::~__func()
PUBLIC e998 0 std::__ndk1::__function::__func<void (*)(void*), std::__ndk1::allocator<void (*)(void*)>, void (void*)>::__clone() const
PUBLIC e9d0 0 std::__ndk1::__function::__func<void (*)(void*), std::__ndk1::allocator<void (*)(void*)>, void (void*)>::__clone(std::__ndk1::__function::__base<void (void*)>*) const
PUBLIC e9e8 0 std::__ndk1::__function::__func<void (*)(void*), std::__ndk1::allocator<void (*)(void*)>, void (void*)>::destroy()
PUBLIC e9ec 0 std::__ndk1::__function::__func<void (*)(void*), std::__ndk1::allocator<void (*)(void*)>, void (void*)>::destroy_deallocate()
PUBLIC e9f0 0 std::__ndk1::__function::__func<void (*)(void*), std::__ndk1::allocator<void (*)(void*)>, void (void*)>::operator()(void*&&)
PUBLIC ea00 0 std::__ndk1::__function::__func<void (*)(void*), std::__ndk1::allocator<void (*)(void*)>, void (void*)>::target(std::type_info const&) const
PUBLIC ea1c 0 std::__ndk1::__function::__func<void (*)(void*), std::__ndk1::allocator<void (*)(void*)>, void (void*)>::target_type() const
PUBLIC ea28 0 std::__ndk1::__throw_bad_function_call[abi:ne180000]()
PUBLIC ea5c 0 std::__ndk1::bad_function_call::~bad_function_call()
PUBLIC ea80 0 std::__ndk1::__tree<std::__ndk1::__value_type<std::__ndk1::basic_string<char, std::__ndk1::char_traits<char>, std::__ndk1::allocator<char> >, std::__ndk1::shared_ptr<geode::Hook> >, std::__ndk1::__map_value_compare<std::__ndk1::basic_string<char, std::__ndk1::char_traits<char>, std::__ndk1::allocator<char> >, std::__ndk1::__value_type<std::__ndk1::basic_string<char, std::__ndk1::char_traits<char>, std::__ndk1::allocator<char> >, std::__ndk1::shared_ptr<geode::Hook> >, std::__ndk1::less<std::__ndk1::basic_string<char, std::__ndk1::char_traits<char>, std::__ndk1::allocator<char> > >, true>, std::__ndk1::allocator<std::__ndk1::__value_type<std::__ndk1::basic_string<char, std::__ndk1::char_traits<char>, std::__ndk1::allocator<char> >, std::__ndk1::shared_ptr<geode::Hook> > > >::__emplace_unique_key_args<std::__ndk1::basic_string<char, std::__ndk1::char_traits<char>, std::__ndk1::allocator<char> >, std::__ndk1::piecewise_construct_t const&, std::__ndk1::tuple<std::__ndk1::basic_string<char, std::__ndk1::char_traits<char>, std::__ndk1::allocator<char> >&&>, std::__ndk1::tuple<> >(std::__ndk1::basic_string<char, std::__ndk1::char_traits<char>, std::__ndk1::allocator<char> > const&, std::__ndk1::piecewise_construct_t const&, std::__ndk1::tuple<std::__ndk1::basic_string<char, std::__ndk1::char_traits<char>, std::__ndk1::allocator<char> >&&>, std::__ndk1::tuple<>)
PUBLIC ebe8 0 std::__ndk1::__tree_balance_after_insert[abi:ne180000]<std::__ndk1::__tree_node_base<void*>*>(std::__ndk1::__tree_node_base<void*>*, std::__ndk1::__tree_node_base<void*>*)
PUBLIC ed98 0 geode::modifier::ModifyDerive<MyOptionsLayer, OptionsLayer>::apply()
PUBLIC f0bc 0 geode::modifier::ModifyBase<geode::modifier::ModifyDerive<MyOptionsLayer, OptionsLayer> >::apply()
PUBLIC f0c0 0 geode::modifier::AsStaticFunction_customSetup<MyOptionsLayer, void (MyOptionsLayer::*)()>::Impl<void (MyOptionsLayer::*)()>::function(MyOptionsLayer*)
PUBLIC fcc0 0 geode::addresser::Addresser::addressOfVirtual<void, OptionsLayer, >(void (OptionsLayer::*)())
PUBLIC fd68 0 OptionsLayer::OptionsLayer(geode::ZeroConstructorType)
PUBLIC fdf8 0 geode::cast::traverseTypeinfoFor(void*, geode::cast::ClassTypeinfoType const*, char const*)
PUBLIC fef0 0 geode::modifier::FieldIntermediate<MyOptionsLayer, OptionsLayer>::self()
PUBLIC 10080 0 geode::modifier::FieldIntermediate<MyOptionsLayer, OptionsLayer>::fieldDestructor(void*)
PUBLIC 10084 0 std::__ndk1::__function::__func<MyOptionsLayer::customSetup()::{lambda(std::__ndk1::basic_string<char, std::__ndk1::char_traits<char>, std::__ndk1::allocator<char> >)#1}, std::__ndk1::allocator<MyOptionsLayer::customSetup()::{lambda(std::__ndk1::basic_string<char, std::__ndk1::char_traits<char>, std::__ndk1::allocator<char> >)#1}>, void (std::__ndk1::basic_string<char, std::__ndk1::char_traits<char>, std::__ndk1::allocator<char> > const&)>::~__func()
PUBLIC 10088 0 std::__ndk1::__function::__func<MyOptionsLayer::customSetup()::{lambda(std::__ndk1::basic_string<char, std::__ndk1::char_traits<char>, std::__ndk1::allocator<char> >)#1}, std::__ndk1::allocator<MyOptionsLayer::customSetup()::{lambda(std::__ndk1::basic_string<char, std::__ndk1::char_traits<char>, std::__ndk1::allocator<char> >)#1}>, void (std::__ndk1::basic_string<char, std::__ndk1::char_traits<char>, std::__ndk1::allocator<char> > const&)>::__clone() const
PUBLIC 100bc 0 std::__ndk1::__function::__func<MyOptionsLayer::customSetup()::{lambda(std::__ndk1::basic_string<char, std::__ndk1::char_traits<char>, std::__ndk1::allocator<char> >)#1}, std::__ndk1::allocator<MyOptionsLayer::customSetup()::{lambda(std::__ndk1::basic_string<char, std::__ndk1::char_traits<char>, std::__ndk1::allocator<char> >)#1}>, void (std::__ndk1::basic_string<char, std::__ndk1::char_traits<char>, std::__ndk1::allocator<char> > const&)>::__clone(std::__ndk1::__function::__base<void (std::__ndk1::basic_string<char, std::__ndk1::char_traits<char>, std::__ndk1::allocator<char> > const&)>*) const
PUBLIC 100d0 0 std::__ndk1::__function::__func<MyOptionsLayer::customSetup()::{lambda(std::__ndk1::basic_string<char, std::__ndk1::char_traits<char>, std::__ndk1::allocator<char> >)#1}, std::__ndk1::allocator<MyOptionsLayer::customSetup()::{lambda(std::__ndk1::basic_string<char, std::__ndk1::char_traits<char>, std::__ndk1::allocator<char> >)#1}>, void (std::__ndk1::basic_string<char, std::__ndk1::char_traits<char>, std::__ndk1::allocator<char> > const&)>::destroy()
PUBLIC 100d4 0 std::__ndk1::__function::__func<MyOptionsLayer::customSetup()::{lambda(std::__ndk1::basic_string<char, std::__ndk1::char_traits<char>, std::__ndk1::allocator<char> >)#1}, std::__ndk1::allocator<MyOptionsLayer::customSetup()::{lambda(std::__ndk1::basic_string<char, std::__ndk1::char_traits<char>, std::__ndk1::allocator<char> >)#1}>, void (std::__ndk1::basic_string<char, std::__ndk1::char_traits<char>, std::__ndk1::allocator<char> > const&)>::destroy_deallocate()
PUBLIC 100d8 0 std::__ndk1::__function::__func<MyOptionsLayer::customSetup()::{lambda(std::__ndk1::basic_string<char, std::__ndk1::char_traits<char>, std::__ndk1::allocator<char> >)#1}, std::__ndk1::allocator<MyOptionsLayer::customSetup()::{lambda(std::__ndk1::basic_string<char, std::__ndk1::char_traits<char>, std::__ndk1::allocator<char> >)#1}>, void (std::__ndk1::basic_string<char, std::__ndk1::char_traits<char>, std::__ndk1::allocator<char> > const&)>::operator()(std::__ndk1::basic_string<char, std::__ndk1::char_traits<char>, std::__ndk1::allocator<char> > const&)
PUBLIC 10670 0 std::__ndk1::__function::__func<MyOptionsLayer::customSetup()::{lambda(std::__ndk1::basic_string<char, std::__ndk1::char_traits<char>, std::__ndk1::allocator<char> >)#1}, std::__ndk1::allocator<MyOptionsLayer::customSetup()::{lambda(std::__ndk1::basic_string<char, std::__ndk1::char_traits<char>, std::__ndk1::allocator<char> >)#1}>, void (std::__ndk1::basic_string<char, std::__ndk1::char_traits<char>, std::__ndk1::allocator<char> > const&)>::target(std::type_info const&) const
PUBLIC 1068c 0 std::__ndk1::__function::__func<MyOptionsLayer::customSetup()::{lambda(std::__ndk1::basic_string<char, std::__ndk1::char_traits<char>, std::__ndk1::allocator<char> >)#1}, std::__ndk1::allocator<MyOptionsLayer::customSetup()::{lambda(std::__ndk1::basic_string<char, std::__ndk1::char_traits<char>, std::__ndk1::allocator<char> >)#1}>, void (std::__ndk1::basic_string<char, std::__ndk1::char_traits<char>, std::__ndk1::allocator<char> > const&)>::target_type() const
PUBLIC 10698 0 geode::impl::ResultData<int, std::__ndk1::basic_string<char, std::__ndk1::char_traits<char>, std::__ndk1::allocator<char> > >::~ResultData()
PUBLIC 1070c 0 std::__ndk1::__variant_detail::__visitation::__base::__dispatcher<(unsigned long)0>::__dispatch[abi:ne180000]<std::__ndk1::__variant_detail::__dtor<std::__ndk1::__variant_detail::__traits<int, std::__ndk1::basic_string<char, std::__ndk1::char_traits<char>, std::__ndk1::allocator<char> > >, (std::__ndk1::__variant_detail::_Trait)1>::__destroy[abi:ne180000]()::{lambda(auto:1&)#1}, std::__ndk1::__variant_detail::__base<(std::__ndk1::__variant_detail::__traits<int, std::__ndk1::basic_string<char, std::__ndk1::char_traits<char>, std::__ndk1::allocator<char> > >)1, int, std::__ndk1::allocator<char> >&>(std::__ndk1::__variant_detail::__dtor<std::__ndk1::__variant_detail::__traits<int, std::__ndk1::basic_string<char, std::__ndk1::char_traits<char>, std::__ndk1::allocator<char> > >, (std::__ndk1::__variant_detail::_Trait)1>, std::__ndk1::__variant_detail::__base<(std::__ndk1::__variant_detail::__traits<int, std::__ndk1::basic_string<char, std::__ndk1::char_traits<char>, std::__ndk1::allocator<char> > >)1, int, std::__ndk1::allocator<char> >&)
PUBLIC 10710 0 std::__ndk1::__variant_detail::__visitation::__base::__dispatcher<(unsigned long)1>::__dispatch[abi:ne180000]<std::__ndk1::__variant_detail::__dtor<std::__ndk1::__variant_detail::__traits<int, std::__ndk1::basic_string<char, std::__ndk1::char_traits<char>, std::__ndk1::allocator<char> > >, (std::__ndk1::__variant_detail::_Trait)1>::__destroy[abi:ne180000]()::{lambda(auto:1&)#1}, std::__ndk1::__variant_detail::__base<(std::__ndk1::__variant_detail::__traits<int, std::__ndk1::basic_string<char, std::__ndk1::char_traits<char>, std::__ndk1::allocator<char> > >)1, int, std::__ndk1::allocator<char> >&>(std::__ndk1::__variant_detail::__dtor<std::__ndk1::__variant_detail::__traits<int, std::__ndk1::basic_string<char, std::__ndk1::char_traits<char>, std::__ndk1::allocator<char> > >, (std::__ndk1::__variant_detail::_Trait)1>, std::__ndk1::__variant_detail::__base<(std::__ndk1::__variant_detail::__traits<int, std::__ndk1::basic_string<char, std::__ndk1::char_traits<char>, std::__ndk1::allocator<char> > >)1, int, std::__ndk1::allocator<char> >&)
PUBLIC 10724 0 _ZN3fmt3v119to_stringIiTnNSt6__ndk19enable_ifIXsr3std11is_integralIT_EE5valueEiE4typeELi0EEENS2_12basic_stringIcNS2_11char_traitsIcEENS2_9allocatorIcEEEES4_
PUBLIC 108d4 0 std::__ndk1::__function::__base<void (std::__ndk1::basic_string<char, std::__ndk1::char_traits<char>, std::__ndk1::allocator<char> > const&)>::~__base()
PUBLIC 108d8 0 std::__ndk1::__function::__func<MyOptionsLayer::customSetup()::{lambda(std::__ndk1::basic_string<char, std::__ndk1::char_traits<char>, std::__ndk1::allocator<char> >)#2}, std::__ndk1::allocator<MyOptionsLayer::customSetup()::{lambda(std::__ndk1::basic_string<char, std::__ndk1::char_traits<char>, std::__ndk1::allocator<char> >)#2}>, void (std::__ndk1::basic_string<char, std::__ndk1::char_traits<char>, std::__ndk1::allocator<char> > const&)>::~__func()
PUBLIC 108dc 0 std::__ndk1::__function::__func<MyOptionsLayer::customSetup()::{lambda(std::__ndk1::basic_string<char, std::__ndk1::char_traits<char>, std::__ndk1::allocator<char> >)#2}, std::__ndk1::allocator<MyOptionsLayer::customSetup()::{lambda(std::__ndk1::basic_string<char, std::__ndk1::char_traits<char>, std::__ndk1::allocator<char> >)#2}>, void (std::__ndk1::basic_string<char, std::__ndk1::char_traits<char>, std::__ndk1::allocator<char> > const&)>::__clone() const
PUBLIC 10910 0 std::__ndk1::__function::__func<MyOptionsLayer::customSetup()::{lambda(std::__ndk1::basic_string<char, std::__ndk1::char_traits<char>, std::__ndk1::allocator<char> >)#2}, std::__ndk1::allocator<MyOptionsLayer::customSetup()::{lambda(std::__ndk1::basic_string<char, std::__ndk1::char_traits<char>, std::__ndk1::allocator<char> >)#2}>, void (std::__ndk1::basic_string<char, std::__ndk1::char_traits<char>, std::__ndk1::allocator<char> > const&)>::__clone(std::__ndk1::__function::__base<void (std::__ndk1::basic_string<char, std::__ndk1::char_traits<char>, std::__ndk1::allocator<char> > const&)>*) const
PUBLIC 10924 0 std::__ndk1::__function::__func<MyOptionsLayer::customSetup()::{lambda(std::__ndk1::basic_string<char, std::__ndk1::char_traits<char>, std::__ndk1::allocator<char> >)#2}, std::__ndk1::allocator<MyOptionsLayer::customSetup()::{lambda(std::__ndk1::basic_string<char, std::__ndk1::char_traits<char>, std::__ndk1::allocator<char> >)#2}>, void (std::__ndk1::basic_string<char, std::__ndk1::char_traits<char>, std::__ndk1::allocator<char> > const&)>::destroy()
PUBLIC 10928 0 std::__ndk1::__function::__func<MyOptionsLayer::customSetup()::{lambda(std::__ndk1::basic_string<char, std::__ndk1::char_traits<char>, std::__ndk1::allocator<char> >)#2}, std::__ndk1::allocator<MyOptionsLayer::customSetup()::{lambda(std::__ndk1::basic_string<char, std::__ndk1::char_traits<char>, std::__ndk1::allocator<char> >)#2}>, void (std::__ndk1::basic_string<char, std::__ndk1::char_traits<char>, std::__ndk1::allocator<char> > const&)>::destroy_deallocate()
PUBLIC 1092c 0 std::__ndk1::__function::__func<MyOptionsLayer::customSetup()::{lambda(std::__ndk1::basic_string<char, std::__ndk1::char_traits<char>, std::__ndk1::allocator<char> >)#2}, std::__ndk1::allocator<MyOptionsLayer::customSetup()::{lambda(std::__ndk1::basic_string<char, std::__ndk1::char_traits<char>, std::__ndk1::allocator<char> >)#2}>, void (std::__ndk1::basic_string<char, std::__ndk1::char_traits<char>, std::__ndk1::allocator<char> > const&)>::operator()(std::__ndk1::basic_string<char, std::__ndk1::char_traits<char>, std::__ndk1::allocator<char> > const&)
PUBLIC 10eac 0 std::__ndk1::__function::__func<MyOptionsLayer::customSetup()::{lambda(std::__ndk1::basic_string<char, std::__ndk1::char_traits<char>, std::__ndk1::allocator<char> >)#2}, std::__ndk1::allocator<MyOptionsLayer::customSetup()::{lambda(std::__ndk1::basic_string<char, std::__ndk1::char_traits<char>, std::__ndk1::allocator<char> >)#2}>, void (std::__ndk1::basic_string<char, std::__ndk1::char_traits<char>, std::__ndk1::allocator<char> > const&)>::target(std::type_info const&) const
PUBLIC 10ec8 0 std::__ndk1::__function::__func<MyOptionsLayer::customSetup()::{lambda(std::__ndk1::basic_string<char, std::__ndk1::char_traits<char>, std::__ndk1::allocator<char> >)#2}, std::__ndk1::allocator<MyOptionsLayer::customSetup()::{lambda(std::__ndk1::basic_string<char, std::__ndk1::char_traits<char>, std::__ndk1::allocator<char> >)#2}>, void (std::__ndk1::basic_string<char, std::__ndk1::char_traits<char>, std::__ndk1::allocator<char> > const&)>::target_type() const
PUBLIC 10ed4 0 std::__ndk1::__function::__value_func<void (float)>::swap[abi:ne180000](std::__ndk1::__function::__value_func<void (float)>&)
PUBLIC 1106c 0 std::__ndk1::__function::__func<MyOptionsLayer::customSetup()::{lambda(float)#1}, std::__ndk1::allocator<MyOptionsLayer::customSetup()::{lambda(float)#1}>, void (float)>::~__func()
PUBLIC 11070 0 std::__ndk1::__function::__func<MyOptionsLayer::customSetup()::{lambda(float)#1}, std::__ndk1::allocator<MyOptionsLayer::customSetup()::{lambda(float)#1}>, void (float)>::__clone() const
PUBLIC 110a4 0 std::__ndk1::__function::__func<MyOptionsLayer::customSetup()::{lambda(float)#1}, std::__ndk1::allocator<MyOptionsLayer::customSetup()::{lambda(float)#1}>, void (float)>::__clone(std::__ndk1::__function::__base<void (float)>*) const
PUBLIC 110b8 0 std::__ndk1::__function::__func<MyOptionsLayer::customSetup()::{lambda(float)#1}, std::__ndk1::allocator<MyOptionsLayer::customSetup()::{lambda(float)#1}>, void (float)>::destroy()
PUBLIC 110bc 0 std::__ndk1::__function::__func<MyOptionsLayer::customSetup()::{lambda(float)#1}, std::__ndk1::allocator<MyOptionsLayer::customSetup()::{lambda(float)#1}>, void (float)>::destroy_deallocate()
PUBLIC 110c0 0 std::__ndk1::__function::__func<MyOptionsLayer::customSetup()::{lambda(float)#1}, std::__ndk1::allocator<MyOptionsLayer::customSetup()::{lambda(float)#1}>, void (float)>::operator()(float&&)
PUBLIC 11180 0 std::__ndk1::__function::__func<MyOptionsLayer::customSetup()::{lambda(float)#1}, std::__ndk1::allocator<MyOptionsLayer::customSetup()::{lambda(float)#1}>, void (float)>::target(std::type_info const&) const
PUBLIC 1119c 0 std::__ndk1::__function::__func<MyOptionsLayer::customSetup()::{lambda(float)#1}, std::__ndk1::allocator<MyOptionsLayer::customSetup()::{lambda(float)#1}>, void (float)>::target_type() const
PUBLIC 111a8 0 std::__ndk1::__function::__base<void (float)>::~__base()
PUBLIC 111ac 0 std::__ndk1::__function::__func<MyOptionsLayer::customSetup()::{lambda(float)#2}, std::__ndk1::allocator<MyOptionsLayer::customSetup()::{lambda(float)#2}>, void (float)>::~__func()
PUBLIC 111b0 0 std::__ndk1::__function::__func<MyOptionsLayer::customSetup()::{lambda(float)#2}, std::__ndk1::allocator<MyOptionsLayer::customSetup()::{lambda(float)#2}>, void (float)>::__clone() const
PUBLIC 111e4 0 std::__ndk1::__function::__func<MyOptionsLayer::customSetup()::{lambda(float)#2}, std::__ndk1::allocator<MyOptionsLayer::customSetup()::{lambda(float)#2}>, void (float)>::__clone(std::__ndk1::__function::__base<void (float)>*) const
PUBLIC 111f8 0 std::__ndk1::__function::__func<MyOptionsLayer::customSetup()::{lambda(float)#2}, std::__ndk1::allocator<MyOptionsLayer::customSetup()::{lambda(float)#2}>, void (float)>::destroy()
PUBLIC 111fc 0 std::__ndk1::__function::__func<MyOptionsLayer::customSetup()::{lambda(float)#2}, std::__ndk1::allocator<MyOptionsLayer::customSetup()::{lambda(float)#2}>, void (float)>::destroy_deallocate()
PUBLIC 11200 0 std::__ndk1::__function::__func<MyOptionsLayer::customSetup()::{lambda(float)#2}, std::__ndk1::allocator<MyOptionsLayer::customSetup()::{lambda(float)#2}>, void (float)>::operator()(float&&)
PUBLIC 112c0 0 std::__ndk1::__function::__func<MyOptionsLayer::customSetup()::{lambda(float)#2}, std::__ndk1::allocator<MyOptionsLayer::customSetup()::{lambda(float)#2}>, void (float)>::target(std::type_info const&) const
PUBLIC 112dc 0 std::__ndk1::__function::__func<MyOptionsLayer::customSetup()::{lambda(float)#2}, std::__ndk1::allocator<MyOptionsLayer::customSetup()::{lambda(float)#2}>, void (float)>::target_type() const
PUBLIC m 112e8 0 geodeImplicitEntry
PUBLIC 11330 0 <.plt ELF section in alphalaneous.volume_input.android64.so>
STACK CFI INIT 7780 10 .cfa: sp 0 +
STACK CFI INIT 7790 8 .cfa: sp 0 +
STACK CFI INIT 7798 8 .cfa: sp 0 +
STACK CFI INIT 77a0 14 .cfa: sp 0 +
STACK CFI INIT 77b4 1c .cfa: sp 0 +
STACK CFI INIT 77d0 10 .cfa: sp 0 +
STACK CFI INIT 77e0 134 .cfa: sp 0 +
STACK CFI INIT 7914 84 .cfa: sp 0 +
STACK CFI INIT 7998 f4 .cfa: sp 0 +
STACK CFI INIT 7a8c a8 .cfa: sp 0 +
STACK CFI INIT 7b34 7c .cfa: sp 0 +
STACK CFI INIT 7bb0 14 .cfa: sp 0 +
STACK CFI INIT 7bc4 40 .cfa: sp 0 +
STACK CFI INIT 7c04 28 .cfa: sp 0 +
STACK CFI INIT 7c2c 190 .cfa: sp 0 +
STACK CFI INIT 7dbc 2c8 .cfa: sp 0 +
STACK CFI INIT 8084 8 .cfa: sp 0 +
STACK CFI INIT 808c 8 .cfa: sp 0 +
STACK CFI INIT 8094 44 .cfa: sp 0 +
STACK CFI INIT 80d8 e8 .cfa: sp 0 +
STACK CFI INIT 81c0 e8 .cfa: sp 0 +
STACK CFI INIT 82a8 14 .cfa: sp 0 +
STACK CFI INIT 82bc 10 .cfa: sp 0 +
STACK CFI INIT 82cc 10 .cfa: sp 0 +
STACK CFI INIT 82dc f0 .cfa: sp 0 +
STACK CFI INIT 83cc 44 .cfa: sp 0 +
STACK CFI INIT 8410 c .cfa: sp 0 +
STACK CFI INIT 841c c .cfa: sp 0 +
STACK CFI INIT 8428 2c .cfa: sp 0 +
STACK CFI INIT 8454 280 .cfa: sp 0 +
STACK CFI INIT 86d4 c .cfa: sp 0 +
STACK CFI INIT 86e0 120 .cfa: sp 0 +
STACK CFI INIT 8800 488 .cfa: sp 0 +
STACK CFI INIT 8c88 c48 .cfa: sp 0 +
STACK CFI INIT 98d0 134 .cfa: sp 0 +
STACK CFI INIT 9a04 210 .cfa: sp 0 +
STACK CFI INIT 9c14 38c .cfa: sp 0 +
STACK CFI INIT 9fa0 1c8 .cfa: sp 0 +
STACK CFI INIT a168 9bc .cfa: sp 0 +
STACK CFI INIT ab24 2d4 .cfa: sp 0 +
STACK CFI INIT adf8 134 .cfa: sp 0 +
STACK CFI INIT af2c 120 .cfa: sp 0 +
STACK CFI INIT b04c 1c8 .cfa: sp 0 +
STACK CFI INIT b214 168 .cfa: sp 0 +
STACK CFI INIT b37c fc .cfa: sp 0 +
STACK CFI INIT b478 30 .cfa: sp 0 +
STACK CFI INIT b5e0 30 .cfa: sp 0 +
STACK CFI INIT b610 98 .cfa: sp 0 +
STACK CFI INIT b6a8 59c .cfa: sp 0 +
STACK CFI INIT bc44 8c .cfa: sp 0 +
STACK CFI INIT bcd0 30 .cfa: sp 0 +
STACK CFI INIT c184 18 .cfa: sp 0 +
STACK CFI INIT c620 18 .cfa: sp 0 +
STACK CFI INIT c9e4 50 .cfa: sp 0 +
STACK CFI c9e8 .cfa: sp 32 +
STACK CFI c9f0 .cfa: x29 32 + x19: .cfa -16 + ^ .ra: .cfa -24 + ^ x29: .cfa -32 + ^
STACK CFI ca08 .cfa: sp 32 +
STACK CFI ca10 .cfa: sp 0 +
STACK CFI ca14 .cfa: x29 32 +
STACK CFI ca28 .cfa: sp 32 +
STACK CFI ca30 .cfa: sp 0 +
STACK CFI INIT caa8 7c .cfa: sp 0 +
STACK CFI caac .cfa: sp 48 +
STACK CFI cab8 .cfa: x29 48 + x19: .cfa -8 + ^ x20: .cfa -16 + ^ x21: .cfa -32 + ^ .ra: .cfa -40 + ^ x29: .cfa -48 + ^
STACK CFI cb04 .cfa: sp 48 +
STACK CFI cb10 .cfa: sp 0 +
STACK CFI cb14 .cfa: sp 48 +
STACK CFI cb20 .cfa: sp 0 +
STACK CFI INIT cb24 4 .cfa: sp 0 +
STACK CFI INIT cb28 10 .cfa: sp 0 +
STACK CFI cb2c .cfa: sp 16 +
STACK CFI cb30 .cfa: x29 16 + .ra: .cfa -8 + ^ x29: .cfa -16 + ^
STACK CFI INIT cc8c 34 .cfa: sp 0 +
STACK CFI cc90 .cfa: sp 16 +
STACK CFI cc94 .cfa: x29 16 + .ra: .cfa -8 + ^ x29: .cfa -16 + ^
STACK CFI INIT cdec 80 .cfa: sp 0 +
STACK CFI cdf0 .cfa: sp 48 +
STACK CFI cdfc .cfa: x29 48 + x19: .cfa -8 + ^ x20: .cfa -16 + ^ x21: .cfa -32 + ^ .ra: .cfa -40 + ^ x29: .cfa -48 + ^
STACK CFI ce5c .cfa: sp 48 +
STACK CFI ce68 .cfa: sp 0 +
STACK CFI INIT ce6c 24 .cfa: sp 0 +
STACK CFI ce70 .cfa: sp 32 +
STACK CFI ce78 .cfa: x29 32 + x19: .cfa -16 + ^ .ra: .cfa -24 + ^ x29: .cfa -32 + ^
STACK CFI ce84 .cfa: sp 32 +
STACK CFI ce8c .cfa: sp 0 +
STACK CFI INIT d210 14 .cfa: sp 0 +
STACK CFI d214 .cfa: sp 16 +
STACK CFI d218 .cfa: x29 16 + .ra: .cfa -8 + ^ x29: .cfa -16 + ^
STACK CFI INIT d274 30 .cfa: sp 0 +
STACK CFI d278 .cfa: sp 32 +
STACK CFI d280 .cfa: x29 32 + x19: .cfa -16 + ^ .ra: .cfa -24 + ^ x29: .cfa -32 + ^
STACK CFI d298 .cfa: sp 32 +
STACK CFI d2a0 .cfa: sp 0 +
STACK CFI INIT d2a4 34 .cfa: sp 0 +
STACK CFI d2a8 .cfa: sp 32 +
STACK CFI d2b0 .cfa: x29 32 + x19: .cfa -16 + ^ .ra: .cfa -24 + ^ x29: .cfa -32 + ^
STACK CFI INIT d450 148 .cfa: sp 0 +
STACK CFI d454 .cfa: sp 48 +
STACK CFI d460 .cfa: x29 48 + x19: .cfa -8 + ^ x20: .cfa -16 + ^ x21: .cfa -32 + ^ .ra: .cfa -40 + ^ x29: .cfa -48 + ^
STACK CFI d588 .cfa: sp 48 +
STACK CFI d594 .cfa: sp 0 +
STACK CFI INIT d7bc 80 .cfa: sp 0 +
STACK CFI d7c0 .cfa: sp 48 +
STACK CFI d7cc .cfa: x29 48 + x19: .cfa -8 + ^ x20: .cfa -16 + ^ x21: .cfa -24 + ^ x22: .cfa -32 + ^ .ra: .cfa -40 + ^ x29: .cfa -48 + ^
STACK CFI d7e4 .cfa: sp 48 +
STACK CFI d7f0 .cfa: sp 0 +
STACK CFI d7f4 .cfa: x29 48 +
STACK CFI d824 .cfa: sp 48 +
STACK CFI d830 .cfa: sp 0 +
STACK CFI d834 .cfa: x29 48 +
STACK CFI INIT d83c 68 .cfa: sp 0 +
STACK CFI d840 .cfa: sp 32 +
STACK CFI d848 .cfa: x29 32 + x19: .cfa -8 + ^ x20: .cfa -16 + ^ .ra: .cfa -24 + ^ x29: .cfa -32 + ^
STACK CFI d860 .cfa: sp 32 +
STACK CFI d868 .cfa: sp 0 +
STACK CFI d86c .cfa: x29 32 +
STACK CFI d898 .cfa: sp 32 +
STACK CFI d8a0 .cfa: sp 0 +
STACK CFI INIT d8a4 14 .cfa: sp 0 +
STACK CFI d8a8 .cfa: sp 16 +
STACK CFI d8ac .cfa: x29 16 + .ra: .cfa -8 + ^ x29: .cfa -16 + ^
STACK CFI INIT d8b8 4 .cfa: sp 0 +
STACK CFI INIT d8bc 14 .cfa: sp 0 +
STACK CFI INIT d8d0 120 .cfa: sp 0 +
STACK CFI d8d4 .cfa: sp 64 +
STACK CFI d8e4 .cfa: x29 64 + x19: .cfa -8 + ^ x20: .cfa -16 + ^ x21: .cfa -24 + ^ x22: .cfa -32 + ^ x23: .cfa -40 + ^ x24: .cfa -48 + ^ .ra: .cfa -56 + ^ x29: .cfa -64 + ^
STACK CFI d9dc .cfa: sp 64 +
STACK CFI d9ec .cfa: sp 0 +
STACK CFI INIT d9f0 4a4 .cfa: sp 0 +
STACK CFI d9f4 .cfa: sp 32 +
STACK CFI d9fc .cfa: x29 32 + x19: .cfa -8 + ^ x20: .cfa -16 + ^ .ra: .cfa -24 + ^ x29: .cfa -32 + ^
STACK CFI dddc .cfa: sp 32 +
STACK CFI dde4 .cfa: sp 0 +
STACK CFI dde8 .cfa: x29 32 +
STACK CFI INIT de94 84 .cfa: sp 0 +
STACK CFI de9c .cfa: sp 32 +
STACK CFI dea4 .cfa: x29 32 + x19: .cfa -8 + ^ x20: .cfa -16 + ^ .ra: .cfa -24 + ^ x29: .cfa -32 + ^
STACK CFI dee4 .cfa: sp 32 +
STACK CFI deec .cfa: sp 0 +
STACK CFI def4 .cfa: x29 32 +
STACK CFI INIT df18 a0 .cfa: sp 0 +
STACK CFI df1c .cfa: sp 48 +
STACK CFI df28 .cfa: x29 32 + x19: .cfa -8 + ^ x20: .cfa -16 + ^ .ra: .cfa -24 + ^ x29: .cfa -32 + ^
STACK CFI df90 .cfa: sp 48 +
STACK CFI df9c .cfa: sp 0 +
STACK CFI dfa0 .cfa: x29 32 +
STACK CFI INIT e060 a0 .cfa: sp 0 +
STACK CFI INIT e100 50 .cfa: sp 0 +
STACK CFI e104 .cfa: sp 32 +
STACK CFI e10c .cfa: x29 32 + x19: .cfa -16 + ^ .ra: .cfa -24 + ^ x29: .cfa -32 + ^
STACK CFI e124 .cfa: sp 32 +
STACK CFI e12c .cfa: sp 0 +
STACK CFI e130 .cfa: x29 32 +
STACK CFI e144 .cfa: sp 32 +
STACK CFI e14c .cfa: sp 0 +
STACK CFI INIT e150 64 .cfa: sp 0 +
STACK CFI e154 .cfa: sp 32 +
STACK CFI e15c .cfa: x29 32 + x19: .cfa -16 + ^ .ra: .cfa -24 + ^ x29: .cfa -32 + ^
STACK CFI e188 .cfa: sp 32 +
STACK CFI e190 .cfa: sp 0 +
STACK CFI e194 .cfa: x29 32 +
STACK CFI e1a8 .cfa: sp 32 +
STACK CFI e1b0 .cfa: sp 0 +
STACK CFI INIT e898 38 .cfa: sp 0 +
STACK CFI INIT e8d0 14 .cfa: sp 0 +
STACK CFI e8d4 .cfa: sp 16 +
STACK CFI e8d8 .cfa: x29 16 + .ra: .cfa -8 + ^ x29: .cfa -16 + ^
STACK CFI INIT e8e4 14 .cfa: sp 0 +
STACK CFI e8e8 .cfa: sp 16 +
STACK CFI e8ec .cfa: x29 16 + .ra: .cfa -8 + ^ x29: .cfa -16 + ^
STACK CFI INIT e8f8 c .cfa: sp 0 +
STACK CFI e8fc .cfa: sp 16 +
STACK CFI e900 .cfa: x29 16 + .ra: .cfa -8 + ^ x29: .cfa -16 + ^
STACK CFI INIT e954 30 .cfa: sp 0 +
STACK CFI e958 .cfa: sp 32 +
STACK CFI e960 .cfa: x29 32 + x19: .cfa -16 + ^ .ra: .cfa -24 + ^ x29: .cfa -32 + ^
STACK CFI e978 .cfa: sp 32 +
STACK CFI e980 .cfa: sp 0 +
STACK CFI INIT e984 c .cfa: sp 0 +
STACK CFI e988 .cfa: sp 16 +
STACK CFI e98c .cfa: x29 16 + .ra: .cfa -8 + ^ x29: .cfa -16 + ^
STACK CFI INIT e990 4 .cfa: sp 0 +
STACK CFI INIT e994 4 .cfa: sp 0 +
STACK CFI INIT e998 38 .cfa: sp 0 +
STACK CFI e99c .cfa: sp 32 +
STACK CFI e9a4 .cfa: x29 32 + x19: .cfa -16 + ^ .ra: .cfa -24 + ^ x29: .cfa -32 + ^
STACK CFI e9c4 .cfa: sp 32 +
STACK CFI e9cc .cfa: sp 0 +
STACK CFI INIT e9d0 18 .cfa: sp 0 +
STACK CFI INIT e9e8 4 .cfa: sp 0 +
STACK CFI INIT e9ec 4 .cfa: sp 0 +
STACK CFI INIT e9f0 10 .cfa: sp 0 +
STACK CFI INIT ea00 1c .cfa: sp 0 +
STACK CFI INIT ea1c c .cfa: sp 0 +
STACK CFI INIT ea28 34 .cfa: sp 0 +
STACK CFI ea2c .cfa: sp 16 +
STACK CFI ea30 .cfa: x29 16 + .ra: .cfa -8 + ^ x29: .cfa -16 + ^
STACK CFI INIT ea5c 24 .cfa: sp 0 +
STACK CFI ea60 .cfa: sp 32 +
STACK CFI ea68 .cfa: x29 32 + x19: .cfa -16 + ^ .ra: .cfa -24 + ^ x29: .cfa -32 + ^
STACK CFI ea74 .cfa: sp 32 +
STACK CFI ea7c .cfa: sp 0 +
STACK CFI INIT ea80 168 .cfa: sp 0 +
STACK CFI ea84 .cfa: sp 80 +
STACK CFI ea98 .cfa: x29 80 + x19: .cfa -8 + ^ x20: .cfa -16 + ^ x21: .cfa -24 + ^ x22: .cfa -32 + ^ x23: .cfa -40 + ^ x24: .cfa -48 + ^ x25: .cfa -56 + ^ x26: .cfa -64 + ^ .ra: .cfa -72 + ^ x29: .cfa -80 + ^
STACK CFI ebd0 .cfa: sp 80 +
STACK CFI ebe4 .cfa: sp 0 +
STACK CFI INIT ebe8 1b0 .cfa: sp 0 +
STACK CFI INIT f0bc 4 .cfa: sp 0 +
STACK CFI INIT fd68 90 .cfa: sp 0 +
STACK CFI fd6c .cfa: sp 32 +
STACK CFI fd74 .cfa: x29 32 + x19: .cfa -16 + ^ .ra: .cfa -24 + ^ x29: .cfa -32 + ^
STACK CFI fdec .cfa: sp 32 +
STACK CFI fdf4 .cfa: sp 0 +
STACK CFI INIT fdf8 f8 .cfa: sp 0 +
STACK CFI fdfc .cfa: sp 64 +
STACK CFI fe0c .cfa: x29 64 + x19: .cfa -8 + ^ x20: .cfa -16 + ^ x21: .cfa -24 + ^ x22: .cfa -32 + ^ x23: .cfa -48 + ^ .ra: .cfa -56 + ^ x29: .cfa -64 + ^
STACK CFI fe68 .cfa: sp 64 +
STACK CFI fe78 .cfa: sp 0 +
STACK CFI fe7c .cfa: x29 64 +
STACK CFI fe98 .cfa: sp 64 +
STACK CFI fea8 .cfa: sp 0 +
STACK CFI feac .cfa: x29 64 +
STACK CFI fedc .cfa: sp 64 +
STACK CFI feec .cfa: sp 0 +
STACK CFI INIT 10080 4 .cfa: sp 0 +
STACK CFI INIT 10084 4 .cfa: sp 0 +
STACK CFI INIT 10088 34 .cfa: sp 0 +
STACK CFI 1008c .cfa: sp 32 +
STACK CFI 10094 .cfa: x29 32 + x19: .cfa -16 + ^ .ra: .cfa -24 + ^ x29: .cfa -32 + ^
STACK CFI 100b0 .cfa: sp 32 +
STACK CFI 100b8 .cfa: sp 0 +
STACK CFI INIT 100bc 14 .cfa: sp 0 +
STACK CFI INIT 100d0 4 .cfa: sp 0 +
STACK CFI INIT 100d4 4 .cfa: sp 0 +
STACK CFI INIT 10670 1c .cfa: sp 0 +
STACK CFI INIT 1068c c .cfa: sp 0 +
STACK CFI INIT 1070c 4 .cfa: sp 0 +
STACK CFI INIT 10710 14 .cfa: sp 0 +
STACK CFI INIT 10724 1b0 .cfa: sp 0 +
STACK CFI 10728 .cfa: sp 112 +
STACK CFI 10740 .cfa: x29 80 + x19: .cfa -8 + ^ x20: .cfa -16 + ^ x21: .cfa -24 + ^ x22: .cfa -32 + ^ x23: .cfa -40 + ^ x24: .cfa -48 + ^ x25: .cfa -64 + ^ .ra: .cfa -72 + ^ x29: .cfa -80 + ^
STACK CFI 1089c .cfa: sp 112 +
STACK CFI 108b4 .cfa: sp 0 +
STACK CFI 108b8 .cfa: x29 80 +
STACK CFI INIT 108d4 4 .cfa: sp 0 +
STACK CFI INIT 108d8 4 .cfa: sp 0 +
STACK CFI INIT 108dc 34 .cfa: sp 0 +
STACK CFI 108e0 .cfa: sp 32 +
STACK CFI 108e8 .cfa: x29 32 + x19: .cfa -16 + ^ .ra: .cfa -24 + ^ x29: .cfa -32 + ^
STACK CFI 10904 .cfa: sp 32 +
STACK CFI 1090c .cfa: sp 0 +
STACK CFI INIT 10910 14 .cfa: sp 0 +
STACK CFI INIT 10924 4 .cfa: sp 0 +
STACK CFI INIT 10928 4 .cfa: sp 0 +
STACK CFI INIT 10eac 1c .cfa: sp 0 +
STACK CFI INIT 10ec8 c .cfa: sp 0 +
STACK CFI INIT 1106c 4 .cfa: sp 0 +
STACK CFI INIT 11070 34 .cfa: sp 0 +
STACK CFI 11074 .cfa: sp 32 +
STACK CFI 1107c .cfa: x29 32 + x19: .cfa -16 + ^ .ra: .cfa -24 + ^ x29: .cfa -32 + ^
STACK CFI 11098 .cfa: sp 32 +
STACK CFI 110a0 .cfa: sp 0 +
STACK CFI INIT 110a4 14 .cfa: sp 0 +
STACK CFI INIT 110b8 4 .cfa: sp 0 +
STACK CFI INIT 110bc 4 .cfa: sp 0 +
STACK CFI INIT 11180 1c .cfa: sp 0 +
STACK CFI INIT 1119c c .cfa: sp 0 +
STACK CFI INIT 111a8 4 .cfa: sp 0 +
STACK CFI INIT 111ac 4 .cfa: sp 0 +
STACK CFI INIT 111b0 34 .cfa: sp 0 +
STACK CFI 111b4 .cfa: sp 32 +
STACK CFI 111bc .cfa: x29 32 + x19: .cfa -16 + ^ .ra: .cfa -24 + ^ x29: .cfa -32 + ^
STACK CFI 111d8 .cfa: sp 32 +
STACK CFI 111e0 .cfa: sp 0 +
STACK CFI INIT 111e4 14 .cfa: sp 0 +
STACK CFI INIT 111f8 4 .cfa: sp 0 +
STACK CFI INIT 111fc 4 .cfa: sp 0 +
STACK CFI INIT 112c0 1c .cfa: sp 0 +
STACK CFI INIT 112dc c .cfa: sp 0 +
STACK CFI INIT 112e8 3c .cfa: sp 0 +
STACK CFI 112ec .cfa: sp 32 +
STACK CFI 112f4 .cfa: x29 32 + x19: .cfa -16 + ^ .ra: .cfa -24 + ^ x29: .cfa -32 + ^
STACK CFI 11300 .cfa: sp 32 +
STACK CFI 11308 .cfa: sp 0 +
STACK CFI 1130c .cfa: x29 32 +
STACK CFI 11318 .cfa: sp 32 +
STACK CFI 11320 .cfa: sp 0 +
STACK CFI INIT bd00 484 .cfa: sp 0 +
STACK CFI bd04 .cfa: sp 224 +
STACK CFI bd20 .cfa: x29 96 + x19: .cfa -8 + ^ x20: .cfa -16 + ^ x21: .cfa -24 + ^ x22: .cfa -32 + ^ x23: .cfa -40 + ^ x24: .cfa -48 + ^ x25: .cfa -56 + ^ x26: .cfa -64 + ^ x27: .cfa -72 + ^ x28: .cfa -80 + ^ .ra: .cfa -88 + ^ x29: .cfa -96 + ^
STACK CFI bf90 .cfa: sp 224 +
STACK CFI bfac .cfa: sp 0 +
STACK CFI bfb0 .cfa: x29 96 +
STACK CFI c07c .cfa: sp 224 +
STACK CFI c098 .cfa: sp 0 +
STACK CFI c09c .cfa: x29 96 +
STACK CFI INIT c19c 484 .cfa: sp 0 +
STACK CFI c1a0 .cfa: sp 224 +
STACK CFI c1bc .cfa: x29 96 + x19: .cfa -8 + ^ x20: .cfa -16 + ^ x21: .cfa -24 + ^ x22: .cfa -32 + ^ x23: .cfa -40 + ^ x24: .cfa -48 + ^ x25: .cfa -56 + ^ x26: .cfa -64 + ^ x27: .cfa -72 + ^ x28: .cfa -80 + ^ .ra: .cfa -88 + ^ x29: .cfa -96 + ^
STACK CFI c42c .cfa: sp 224 +
STACK CFI c448 .cfa: sp 0 +
STACK CFI c44c .cfa: x29 96 +
STACK CFI c518 .cfa: sp 224 +
STACK CFI c534 .cfa: sp 0 +
STACK CFI c538 .cfa: x29 96 +
STACK CFI INIT c638 3ac .cfa: sp 0 +
STACK CFI c63c .cfa: sp 256 +
STACK CFI c650 .cfa: x29 64 + x19: .cfa -8 + ^ x20: .cfa -16 + ^ x21: .cfa -24 + ^ x22: .cfa -32 + ^ x23: .cfa -48 + ^ .ra: .cfa -56 + ^ x29: .cfa -64 + ^
STACK CFI c8b4 .cfa: sp 256 +
STACK CFI c8c8 .cfa: sp 0 +
STACK CFI c8cc .cfa: x29 64 +
STACK CFI INIT ca34 74 .cfa: sp 0 +
STACK CFI ca38 .cfa: sp 48 +
STACK CFI ca44 .cfa: x29 32 + x19: .cfa -8 + ^ x20: .cfa -16 + ^ .ra: .cfa -24 + ^ x29: .cfa -32 + ^
STACK CFI ca90 .cfa: sp 48 +
STACK CFI ca9c .cfa: sp 0 +
STACK CFI caa0 .cfa: x29 32 +
STACK CFI INIT cb38 154 .cfa: sp 0 +
STACK CFI cb3c .cfa: sp 384 +
STACK CFI cb50 .cfa: x29 64 + x19: .cfa -8 + ^ x20: .cfa -16 + ^ x21: .cfa -24 + ^ x22: .cfa -32 + ^ x23: .cfa -40 + ^ x28: .cfa -48 + ^ .ra: .cfa -56 + ^ x29: .cfa -64 + ^
STACK CFI cc34 .cfa: sp 384 +
STACK CFI cc48 .cfa: sp 0 +
STACK CFI cc4c .cfa: x29 64 +
STACK CFI INIT ccc0 12c .cfa: sp 0 +
STACK CFI ccc4 .cfa: sp 80 +
STACK CFI ccd8 .cfa: x29 80 + x19: .cfa -8 + ^ x20: .cfa -16 + ^ x21: .cfa -24 + ^ x22: .cfa -32 + ^ x23: .cfa -40 + ^ x24: .cfa -48 + ^ x25: .cfa -56 + ^ x26: .cfa -64 + ^ .ra: .cfa -72 + ^ x29: .cfa -80 + ^
STACK CFI cda0 .cfa: sp 80 +
STACK CFI cdb4 .cfa: sp 0 +
STACK CFI cdb8 .cfa: x29 80 +
STACK CFI INIT ce90 1a4 .cfa: sp 0 +
STACK CFI ce94 .cfa: sp 112 +
STACK CFI ceac .cfa: x29 80 + x19: .cfa -8 + ^ x20: .cfa -16 + ^ x21: .cfa -24 + ^ x22: .cfa -32 + ^ x23: .cfa -40 + ^ x24: .cfa -48 + ^ x25: .cfa -56 + ^ x26: .cfa -64 + ^ .ra: .cfa -72 + ^ x29: .cfa -80 + ^
STACK CFI cf9c .cfa: sp 112 +
STACK CFI cfb4 .cfa: sp 0 +
STACK CFI cfb8 .cfa: x29 80 +
STACK CFI INIT d034 1dc .cfa: sp 0 +
STACK CFI d038 .cfa: sp 128 +
STACK CFI d054 .cfa: x29 96 + x19: .cfa -8 + ^ x20: .cfa -16 + ^ x21: .cfa -24 + ^ x22: .cfa -32 + ^ x23: .cfa -40 + ^ x24: .cfa -48 + ^ x25: .cfa -56 + ^ x26: .cfa -64 + ^ x27: .cfa -80 + ^ .ra: .cfa -88 + ^ x29: .cfa -96 + ^
STACK CFI d1c0 .cfa: sp 128 +
STACK CFI d1dc .cfa: sp 0 +
STACK CFI d1e0 .cfa: x29 96 +
STACK CFI INIT d224 50 .cfa: sp 0 +
STACK CFI d228 .cfa: sp 32 +
STACK CFI d230 .cfa: x29 32 + x19: .cfa -8 + ^ x20: .cfa -16 + ^ .ra: .cfa -24 + ^ x29: .cfa -32 + ^
STACK CFI INIT d2d8 178 .cfa: sp 0 +
STACK CFI d2dc .cfa: sp 80 +
STACK CFI d2f0 .cfa: x29 80 + x19: .cfa -8 + ^ x20: .cfa -16 + ^ x21: .cfa -24 + ^ x22: .cfa -32 + ^ x23: .cfa -40 + ^ x24: .cfa -48 + ^ x25: .cfa -64 + ^ .ra: .cfa -72 + ^ x29: .cfa -80 + ^
STACK CFI d41c .cfa: sp 80 +
STACK CFI d430 .cfa: sp 0 +
STACK CFI d434 .cfa: x29 80 +
STACK CFI INIT d598 224 .cfa: sp 0 +
STACK CFI d59c .cfa: sp 128 +
STACK CFI d5b4 .cfa: x29 80 + x19: .cfa -8 + ^ x20: .cfa -16 + ^ x21: .cfa -24 + ^ x22: .cfa -32 + ^ x23: .cfa -40 + ^ x24: .cfa -48 + ^ x25: .cfa -64 + ^ .ra: .cfa -72 + ^ x29: .cfa -80 + ^
STACK CFI d750 .cfa: sp 128 +
STACK CFI d768 .cfa: sp 0 +
STACK CFI d76c .cfa: x29 80 +
STACK CFI INIT dfb8 a8 .cfa: sp 0 +
STACK CFI dfbc .cfa: sp 32 +
STACK CFI dfc4 .cfa: x29 32 + x19: .cfa -16 + ^ .ra: .cfa -24 + ^ x29: .cfa -32 + ^
STACK CFI dff8 .cfa: sp 32 +
STACK CFI e000 .cfa: sp 0 +
STACK CFI e004 .cfa: x29 32 +
STACK CFI e008 .cfa: sp 32 +
STACK CFI e010 .cfa: sp 0 +
STACK CFI e014 .cfa: x29 32 +
STACK CFI INIT e1b4 194 .cfa: sp 0 +
STACK CFI e1b8 .cfa: sp 112 +
STACK CFI e1c8 .cfa: x29 48 + x19: .cfa -8 + ^ x20: .cfa -16 + ^ x21: .cfa -32 + ^ .ra: .cfa -40 + ^ x29: .cfa -48 + ^
STACK CFI e2a0 .cfa: sp 112 +
STACK CFI e2b0 .cfa: sp 0 +
STACK CFI e2b4 .cfa: x29 48 +
STACK CFI INIT e348 444 .cfa: sp 0 +
STACK CFI e34c .cfa: sp 176 +
STACK CFI e368 .cfa: x29 96 + x19: .cfa -8 + ^ x20: .cfa -16 + ^ x21: .cfa -24 + ^ x22: .cfa -32 + ^ x23: .cfa -40 + ^ x24: .cfa -48 + ^ x25: .cfa -56 + ^ x26: .cfa -64 + ^ x27: .cfa -72 + ^ x28: .cfa -80 + ^ .ra: .cfa -88 + ^ x29: .cfa -96 + ^
STACK CFI e3a8 .cfa: sp 176 +
STACK CFI e3c4 .cfa: sp 0 +
STACK CFI e3c8 .cfa: x29 96 +
STACK CFI INIT e78c 10c .cfa: sp 0 +
STACK CFI e790 .cfa: sp 64 +
STACK CFI e7a0 .cfa: x29 64 + x19: .cfa -8 + ^ x20: .cfa -16 + ^ x21: .cfa -24 + ^ x22: .cfa -32 + ^ x23: .cfa -48 + ^ .ra: .cfa -56 + ^ x29: .cfa -64 + ^
STACK CFI e878 .cfa: sp 64 +
STACK CFI e888 .cfa: sp 0 +
STACK CFI e88c .cfa: x29 64 +
STACK CFI INIT e904 50 .cfa: sp 0 +
STACK CFI e908 .cfa: sp 32 +
STACK CFI e910 .cfa: x29 32 + x19: .cfa -8 + ^ x20: .cfa -16 + ^ .ra: .cfa -24 + ^ x29: .cfa -32 + ^
STACK CFI INIT ed98 324 .cfa: sp 0 +
STACK CFI ed9c .cfa: sp 240 +
STACK CFI edb0 .cfa: x29 64 + x19: .cfa -8 + ^ x20: .cfa -16 + ^ x21: .cfa -24 + ^ x22: .cfa -32 + ^ x23: .cfa -48 + ^ .ra: .cfa -56 + ^ x29: .cfa -64 + ^
STACK CFI efac .cfa: sp 240 +
STACK CFI efc0 .cfa: sp 0 +
STACK CFI efc4 .cfa: x29 64 +
STACK CFI INIT f0c0 c00 .cfa: sp 0 +
STACK CFI f0c4 .cfa: sp 336 +
STACK CFI f0e0 .cfa: x29 72 + x19: .cfa -8 + ^ x20: .cfa -16 + ^ x21: .cfa -24 + ^ x22: .cfa -32 + ^ x23: .cfa -40 + ^ x24: .cfa -48 + ^ x28: .cfa -56 + ^ .ra: .cfa -64 + ^ x29: .cfa -72 + ^ v8: .cfa -80 + ^
STACK CFI fb9c .cfa: sp 336 +
STACK CFI fbb8 .cfa: sp 0 +
STACK CFI fbbc .cfa: x29 72 +
STACK CFI INIT fcc0 a8 .cfa: sp 0 +
STACK CFI fcc4 .cfa: sp 32 +
STACK CFI fccc .cfa: x29 32 + x19: .cfa -16 + ^ .ra: .cfa -24 + ^ x29: .cfa -32 + ^
STACK CFI fd00 .cfa: sp 32 +
STACK CFI fd08 .cfa: sp 0 +
STACK CFI fd0c .cfa: x29 32 +
STACK CFI fd10 .cfa: sp 32 +
STACK CFI fd18 .cfa: sp 0 +
STACK CFI fd1c .cfa: x29 32 +
STACK CFI INIT fef0 190 .cfa: sp 0 +
STACK CFI fef4 .cfa: sp 112 +
STACK CFI ff04 .cfa: x29 48 + x19: .cfa -8 + ^ x20: .cfa -16 + ^ x21: .cfa -32 + ^ .ra: .cfa -40 + ^ x29: .cfa -48 + ^
STACK CFI ffd8 .cfa: sp 112 +
STACK CFI ffe8 .cfa: sp 0 +
STACK CFI ffec .cfa: x29 48 +
STACK CFI INIT 100d8 598 .cfa: sp 0 +
STACK CFI 100dc .cfa: sp 160 +
STACK CFI 100ec .cfa: x29 48 + x19: .cfa -8 + ^ x20: .cfa -16 + ^ x21: .cfa -24 + ^ x22: .cfa -32 + ^ .ra: .cfa -40 + ^ x29: .cfa -48 + ^
STACK CFI 105c4 .cfa: sp 160 +
STACK CFI 105d4 .cfa: sp 0 +
STACK CFI 105d8 .cfa: x29 48 +
STACK CFI INIT 10698 74 .cfa: sp 0 +
STACK CFI 1069c .cfa: sp 48 +
STACK CFI 106a8 .cfa: x29 32 + x19: .cfa -8 + ^ x20: .cfa -16 + ^ .ra: .cfa -24 + ^ x29: .cfa -32 + ^
STACK CFI 106f4 .cfa: sp 48 +
STACK CFI 10700 .cfa: sp 0 +
STACK CFI 10704 .cfa: x29 32 +
STACK CFI INIT 1092c 580 .cfa: sp 0 +
STACK CFI 10930 .cfa: sp 160 +
STACK CFI 10940 .cfa: x29 48 + x19: .cfa -8 + ^ x20: .cfa -16 + ^ x21: .cfa -24 + ^ x22: .cfa -32 + ^ .ra: .cfa -40 + ^ x29: .cfa -48 + ^
STACK CFI 10e00 .cfa: sp 160 +
STACK CFI 10e10 .cfa: sp 0 +
STACK CFI 10e14 .cfa: x29 48 +
STACK CFI INIT 10ed4 198 .cfa: sp 0 +
STACK CFI 10ed8 .cfa: sp 96 +
STACK CFI 10ee8 .cfa: x29 48 + x19: .cfa -8 + ^ x20: .cfa -16 + ^ x21: .cfa -32 + ^ .ra: .cfa -40 + ^ x29: .cfa -48 + ^
STACK CFI 10fc4 .cfa: sp 96 +
STACK CFI 10fd4 .cfa: sp 0 +
STACK CFI 10fd8 .cfa: x29 48 +
STACK CFI INIT 110c0 c0 .cfa: sp 0 +
STACK CFI 110c4 .cfa: sp 80 +
STACK CFI 110d4 .cfa: x29 32 + x19: .cfa -8 + ^ x20: .cfa -16 + ^ .ra: .cfa -24 + ^ x29: .cfa -32 + ^ v8: .cfa -48 + ^
STACK CFI 1113c .cfa: sp 80 +
STACK CFI 1114c .cfa: sp 0 +
STACK CFI 11150 .cfa: x29 32 +
STACK CFI INIT 11200 c0 .cfa: sp 0 +
STACK CFI 11204 .cfa: sp 80 +
STACK CFI 11214 .cfa: x29 32 + x19: .cfa -8 + ^ x20: .cfa -16 + ^ .ra: .cfa -24 + ^ x29: .cfa -32 + ^ v8: .cfa -48 + ^
STACK CFI 1127c .cfa: sp 80 +
STACK CFI 1128c .cfa: sp 0 +
STACK CFI 11290 .cfa: x29 32 +
