MODULE Linux arm64 F3A3E2D73283BCD761202278CFAED3BB0 nwo5.confirm_like.android64.so
INFO CODE_ID D7E2A3F38332D7BC61202278CFAED3BB667A4777
INFO GENERATOR mozilla/dump_syms 2.3.4
PUBLIC 40d0 0 __on_dlclose
PUBLIC 40e0 0 __emutls_unregister_key
PUBLIC 40e8 0 __on_dlclose_late
PUBLIC 40f0 0 __atexit_handler_wrapper
PUBLIC 4104 0 atexit
PUBLIC 4120 0 pthread_atfork
PUBLIC 4130 0 __aarch64_ldadd8_relax
PUBLIC 4160 0 init_have_lse_atomics
PUBLIC 41f8 0 __init_cpu_features_constructor
PUBLIC 44a4 0 __init_cpu_features
PUBLIC 4530 0 __aarch64_ldadd8_acq_rel
PUBLIC 4560 0 __cxx_global_var_init
PUBLIC 50b8 0 geode::modifier::ModifyBase<geode::modifier::ModifyDerive<LikeLayer, LikeItemLayer> >::~ModifyBase()
PUBLIC 50d0 0 geode::modifier::ModifyDerive<LikeLayer, LikeItemLayer>::apply()
PUBLIC 5710 0 std::__ndk1::shared_ptr<geode::Hook>::~shared_ptr[abi:ne190000]()
PUBLIC 5760 0 geode::impl::ResultData<geode::Hook*, std::__ndk1::basic_string<char, std::__ndk1::char_traits<char>, std::__ndk1::allocator<char> > >::~ResultData()
PUBLIC 57d4 0 std::__ndk1::vector<std::__ndk1::basic_string<char, std::__ndk1::char_traits<char>, std::__ndk1::allocator<char> >, std::__ndk1::allocator<std::__ndk1::basic_string<char, std::__ndk1::char_traits<char>, std::__ndk1::allocator<char> > > >::~vector[abi:ne190000]()
PUBLIC 5850 0 geode::modifier::ModifyBase<geode::modifier::ModifyDerive<LikeLayer, LikeItemLayer> >::apply()
PUBLIC 5854 0 __clang_call_terminate
PUBLIC 5864 0 _ZN5geode15UnwrapExceptionC2IRPNS_4HookEQsr4implE18IsStringStreamableIT_EEENS_4impl5OkTagEOS5_
PUBLIC 5f80 0 std::__ndk1::__throw_bad_variant_access[abi:ne190000]()
PUBLIC m 5fb4 0 std::__ndk1::basic_stringstream<char, std::__ndk1::char_traits<char>, std::__ndk1::allocator<char> >::~basic_stringstream()
PUBLIC 6034 0 geode::UnwrapException::~UnwrapException()
PUBLIC 6058 0 std::__ndk1::basic_string<char, std::__ndk1::char_traits<char>, std::__ndk1::allocator<char> >::__throw_length_error[abi:ne190000]() const
PUBLIC 606c 0 std::__ndk1::__throw_length_error[abi:ne190000](char const*)
PUBLIC 60bc 0 std::length_error::length_error[abi:ne190000](char const*)
PUBLIC 60ec 0 std::__throw_bad_array_new_length([abi:ne190000], void)
PUBLIC 6120 0 std::__ndk1::basic_string<char, std::__ndk1::char_traits<char>, std::__ndk1::allocator<char> >::__erase_external_with_move(unsigned long, unsigned long)
PUBLIC 61a4 0 std::__ndk1::__throw_out_of_range[abi:ne190000](char const*)
PUBLIC 61ec 0 std::out_of_range::out_of_range[abi:ne190000](char const*)
PUBLIC 6224 0 std::__ndk1::basic_string<char, std::__ndk1::char_traits<char>, std::__ndk1::allocator<char> >::__init_copy_ctor_external(char const*, unsigned long)
PUBLIC 62b4 0 std::__ndk1::__split_buffer<std::__ndk1::basic_string<char, std::__ndk1::char_traits<char>, std::__ndk1::allocator<char> >, std::__ndk1::allocator<std::__ndk1::basic_string<char, std::__ndk1::char_traits<char>, std::__ndk1::allocator<char> > >&>::~__split_buffer()
PUBLIC 631c 0 std::__ndk1::vector<std::__ndk1::basic_string<char, std::__ndk1::char_traits<char>, std::__ndk1::allocator<char> >, std::__ndk1::allocator<std::__ndk1::basic_string<char, std::__ndk1::char_traits<char>, std::__ndk1::allocator<char> > > >::__throw_length_error[abi:ne190000]() const
PUBLIC 6330 0 std::__ndk1::__variant_detail::__visitation::__base::__dispatcher<(unsigned long)0>::__dispatch[abi:ne190000]<std::__ndk1::__variant_detail::__dtor<std::__ndk1::__variant_detail::__traits<geode::Hook*, std::__ndk1::basic_string<char, std::__ndk1::char_traits<char>, std::__ndk1::allocator<char> > >, (std::__ndk1::__variant_detail::_Trait)1>::__destroy[abi:ne190000]()::{lambda(auto:1&)#1}, std::__ndk1::__variant_detail::__base<(std::__ndk1::__variant_detail::__traits<geode::Hook*, std::__ndk1::basic_string<char, std::__ndk1::char_traits<char>, std::__ndk1::allocator<char> > >)1, geode::Hook, std::__ndk1::allocator<char> >&>(std::__ndk1::__variant_detail::__dtor<std::__ndk1::__variant_detail::__traits<geode::Hook*, std::__ndk1::basic_string<char, std::__ndk1::char_traits<char>, std::__ndk1::allocator<char> > >, (std::__ndk1::__variant_detail::_Trait)1>, std::__ndk1::__variant_detail::__base<(std::__ndk1::__variant_detail::__traits<geode::Hook*, std::__ndk1::basic_string<char, std::__ndk1::char_traits<char>, std::__ndk1::allocator<char> > >)1, geode::Hook, std::__ndk1::allocator<char> >&)
PUBLIC 6334 0 std::__ndk1::__variant_detail::__visitation::__base::__dispatcher<(unsigned long)1>::__dispatch[abi:ne190000]<std::__ndk1::__variant_detail::__dtor<std::__ndk1::__variant_detail::__traits<geode::Hook*, std::__ndk1::basic_string<char, std::__ndk1::char_traits<char>, std::__ndk1::allocator<char> > >, (std::__ndk1::__variant_detail::_Trait)1>::__destroy[abi:ne190000]()::{lambda(auto:1&)#1}, std::__ndk1::__variant_detail::__base<(std::__ndk1::__variant_detail::__traits<geode::Hook*, std::__ndk1::basic_string<char, std::__ndk1::char_traits<char>, std::__ndk1::allocator<char> > >)1, geode::Hook, std::__ndk1::allocator<char> >&>(std::__ndk1::__variant_detail::__dtor<std::__ndk1::__variant_detail::__traits<geode::Hook*, std::__ndk1::basic_string<char, std::__ndk1::char_traits<char>, std::__ndk1::allocator<char> > >, (std::__ndk1::__variant_detail::_Trait)1>, std::__ndk1::__variant_detail::__base<(std::__ndk1::__variant_detail::__traits<geode::Hook*, std::__ndk1::basic_string<char, std::__ndk1::char_traits<char>, std::__ndk1::allocator<char> > >)1, geode::Hook, std::__ndk1::allocator<char> >&)
PUBLIC 6348 0 std::__ndk1::__tree<std::__ndk1::__value_type<std::__ndk1::basic_string<char, std::__ndk1::char_traits<char>, std::__ndk1::allocator<char> >, std::__ndk1::shared_ptr<geode::Hook> >, std::__ndk1::__map_value_compare<std::__ndk1::basic_string<char, std::__ndk1::char_traits<char>, std::__ndk1::allocator<char> >, std::__ndk1::__value_type<std::__ndk1::basic_string<char, std::__ndk1::char_traits<char>, std::__ndk1::allocator<char> >, std::__ndk1::shared_ptr<geode::Hook> >, std::__ndk1::less<std::__ndk1::basic_string<char, std::__ndk1::char_traits<char>, std::__ndk1::allocator<char> > >, true>, std::__ndk1::allocator<std::__ndk1::__value_type<std::__ndk1::basic_string<char, std::__ndk1::char_traits<char>, std::__ndk1::allocator<char> >, std::__ndk1::shared_ptr<geode::Hook> > > >::destroy(std::__ndk1::__tree_node<std::__ndk1::__value_type<std::__ndk1::basic_string<char, std::__ndk1::char_traits<char>, std::__ndk1::allocator<char> >, std::__ndk1::shared_ptr<geode::Hook> >, void*>*)
PUBLIC 63cc 0 geode::modifier::AsStaticFunction_init<LikeLayer, bool (LikeLayer::*)(LikeItemType, int, int)>::Impl<bool (LikeLayer::*)(LikeItemType, int, int)>::function(LikeLayer*, LikeItemType, int, int)
PUBLIC 67d0 0 std::__ndk1::shared_ptr<tulip::hook::CallingConvention>::~shared_ptr[abi:ne190000]()
PUBLIC 6820 0 tulip::hook::HandlerMetadata::~HandlerMetadata()
PUBLIC 6884 0 geode::Mod::getSettingValue<bool>(std::__ndk1::basic_string_view<char, std::__ndk1::char_traits<char> >) const
PUBLIC 69ac 0 LikeLayer::onLikeButton(cocos2d::CCObject*)
PUBLIC 6b18 0 LikeLayer::onDislikeButton(cocos2d::CCObject*)
PUBLIC 6c84 0 geode::cast::traverseTypeinfoFor(void*, geode::cast::ClassTypeinfoType const*, char const*)
PUBLIC 6d7c 0 geode::modifier::FieldIntermediate<LikeLayer, LikeItemLayer>::self()
PUBLIC 7350 0 geode::modifier::FieldIntermediate<LikeLayer, LikeItemLayer>::fieldDestructor(void*)
PUBLIC 7354 0 std::__ndk1::vector<void*, std::__ndk1::allocator<void*> >::__throw_length_error[abi:ne190000]() const
PUBLIC 7368 0 std::__ndk1::vector<std::__ndk1::function<void (void*)>, std::__ndk1::allocator<std::__ndk1::function<void (void*)> > >::__throw_length_error[abi:ne190000]() const
PUBLIC 737c 0 std::__ndk1::vector<void*, std::__ndk1::allocator<void*> >::__throw_out_of_range[abi:ne190000]() const
PUBLIC 7388 0 std::__ndk1::vector<std::__ndk1::function<void (void*)>, std::__ndk1::allocator<std::__ndk1::function<void (void*)> > >::__throw_out_of_range[abi:ne190000]() const
PUBLIC 7394 0 std::__ndk1::__function::__base<void (void*)>::~__base()
PUBLIC 7398 0 std::__ndk1::__function::__func<void (*)(void*), std::__ndk1::allocator<void (*)(void*)>, void (void*)>::~__func()
PUBLIC 739c 0 std::__ndk1::__function::__func<void (*)(void*), std::__ndk1::allocator<void (*)(void*)>, void (void*)>::__clone() const
PUBLIC 73d4 0 std::__ndk1::__function::__func<void (*)(void*), std::__ndk1::allocator<void (*)(void*)>, void (void*)>::__clone(std::__ndk1::__function::__base<void (void*)>*) const
PUBLIC 73ec 0 std::__ndk1::__function::__func<void (*)(void*), std::__ndk1::allocator<void (*)(void*)>, void (void*)>::destroy()
PUBLIC 73f0 0 std::__ndk1::__function::__func<void (*)(void*), std::__ndk1::allocator<void (*)(void*)>, void (void*)>::destroy_deallocate()
PUBLIC 73f4 0 std::__ndk1::__function::__func<void (*)(void*), std::__ndk1::allocator<void (*)(void*)>, void (void*)>::operator()(void*&&)
PUBLIC 7404 0 std::__ndk1::__function::__func<void (*)(void*), std::__ndk1::allocator<void (*)(void*)>, void (void*)>::target(std::type_info const&) const
PUBLIC 7420 0 std::__ndk1::__function::__func<void (*)(void*), std::__ndk1::allocator<void (*)(void*)>, void (void*)>::target_type() const
PUBLIC 742c 0 std::__ndk1::__function::__func<LikeLayer::onLikeButton(cocos2d::CCObject*)::{lambda(auto:1, bool)#1}, std::__ndk1::allocator<LikeLayer::onLikeButton(cocos2d::CCObject*)::{lambda(auto:1, bool)#1}>, void (FLAlertLayer*, bool)>::~__func()
PUBLIC 7430 0 std::__ndk1::__function::__func<LikeLayer::onLikeButton(cocos2d::CCObject*)::{lambda(auto:1, bool)#1}, std::__ndk1::allocator<LikeLayer::onLikeButton(cocos2d::CCObject*)::{lambda(auto:1, bool)#1}>, void (FLAlertLayer*, bool)>::__clone() const
PUBLIC 7464 0 std::__ndk1::__function::__func<LikeLayer::onLikeButton(cocos2d::CCObject*)::{lambda(auto:1, bool)#1}, std::__ndk1::allocator<LikeLayer::onLikeButton(cocos2d::CCObject*)::{lambda(auto:1, bool)#1}>, void (FLAlertLayer*, bool)>::__clone(std::__ndk1::__function::__base<void (FLAlertLayer*, bool)>*) const
PUBLIC 7478 0 std::__ndk1::__function::__func<LikeLayer::onLikeButton(cocos2d::CCObject*)::{lambda(auto:1, bool)#1}, std::__ndk1::allocator<LikeLayer::onLikeButton(cocos2d::CCObject*)::{lambda(auto:1, bool)#1}>, void (FLAlertLayer*, bool)>::destroy()
PUBLIC 747c 0 std::__ndk1::__function::__func<LikeLayer::onLikeButton(cocos2d::CCObject*)::{lambda(auto:1, bool)#1}, std::__ndk1::allocator<LikeLayer::onLikeButton(cocos2d::CCObject*)::{lambda(auto:1, bool)#1}>, void (FLAlertLayer*, bool)>::destroy_deallocate()
PUBLIC 7480 0 std::__ndk1::__function::__func<LikeLayer::onLikeButton(cocos2d::CCObject*)::{lambda(auto:1, bool)#1}, std::__ndk1::allocator<LikeLayer::onLikeButton(cocos2d::CCObject*)::{lambda(auto:1, bool)#1}>, void (FLAlertLayer*, bool)>::operator()(FLAlertLayer*&&, bool&&)
PUBLIC 74e0 0 std::__ndk1::__function::__func<LikeLayer::onLikeButton(cocos2d::CCObject*)::{lambda(auto:1, bool)#1}, std::__ndk1::allocator<LikeLayer::onLikeButton(cocos2d::CCObject*)::{lambda(auto:1, bool)#1}>, void (FLAlertLayer*, bool)>::target(std::type_info const&) const
PUBLIC 74fc 0 std::__ndk1::__function::__func<LikeLayer::onLikeButton(cocos2d::CCObject*)::{lambda(auto:1, bool)#1}, std::__ndk1::allocator<LikeLayer::onLikeButton(cocos2d::CCObject*)::{lambda(auto:1, bool)#1}>, void (FLAlertLayer*, bool)>::target_type() const
PUBLIC 7508 0 std::__ndk1::__function::__base<void (FLAlertLayer*, bool)>::~__base()
PUBLIC 750c 0 std::__ndk1::__function::__func<LikeLayer::onDislikeButton(cocos2d::CCObject*)::{lambda(auto:1, bool)#1}, std::__ndk1::allocator<LikeLayer::onDislikeButton(cocos2d::CCObject*)::{lambda(auto:1, bool)#1}>, void (FLAlertLayer*, bool)>::~__func()
PUBLIC 7510 0 std::__ndk1::__function::__func<LikeLayer::onDislikeButton(cocos2d::CCObject*)::{lambda(auto:1, bool)#1}, std::__ndk1::allocator<LikeLayer::onDislikeButton(cocos2d::CCObject*)::{lambda(auto:1, bool)#1}>, void (FLAlertLayer*, bool)>::__clone() const
PUBLIC 7544 0 std::__ndk1::__function::__func<LikeLayer::onDislikeButton(cocos2d::CCObject*)::{lambda(auto:1, bool)#1}, std::__ndk1::allocator<LikeLayer::onDislikeButton(cocos2d::CCObject*)::{lambda(auto:1, bool)#1}>, void (FLAlertLayer*, bool)>::__clone(std::__ndk1::__function::__base<void (FLAlertLayer*, bool)>*) const
PUBLIC 7558 0 std::__ndk1::__function::__func<LikeLayer::onDislikeButton(cocos2d::CCObject*)::{lambda(auto:1, bool)#1}, std::__ndk1::allocator<LikeLayer::onDislikeButton(cocos2d::CCObject*)::{lambda(auto:1, bool)#1}>, void (FLAlertLayer*, bool)>::destroy()
PUBLIC 755c 0 std::__ndk1::__function::__func<LikeLayer::onDislikeButton(cocos2d::CCObject*)::{lambda(auto:1, bool)#1}, std::__ndk1::allocator<LikeLayer::onDislikeButton(cocos2d::CCObject*)::{lambda(auto:1, bool)#1}>, void (FLAlertLayer*, bool)>::destroy_deallocate()
PUBLIC 7560 0 std::__ndk1::__function::__func<LikeLayer::onDislikeButton(cocos2d::CCObject*)::{lambda(auto:1, bool)#1}, std::__ndk1::allocator<LikeLayer::onDislikeButton(cocos2d::CCObject*)::{lambda(auto:1, bool)#1}>, void (FLAlertLayer*, bool)>::operator()(FLAlertLayer*&&, bool&&)
PUBLIC 75c0 0 std::__ndk1::__function::__func<LikeLayer::onDislikeButton(cocos2d::CCObject*)::{lambda(auto:1, bool)#1}, std::__ndk1::allocator<LikeLayer::onDislikeButton(cocos2d::CCObject*)::{lambda(auto:1, bool)#1}>, void (FLAlertLayer*, bool)>::target(std::type_info const&) const
PUBLIC 75dc 0 std::__ndk1::__function::__func<LikeLayer::onDislikeButton(cocos2d::CCObject*)::{lambda(auto:1, bool)#1}, std::__ndk1::allocator<LikeLayer::onDislikeButton(cocos2d::CCObject*)::{lambda(auto:1, bool)#1}>, void (FLAlertLayer*, bool)>::target_type() const
PUBLIC 75e8 0 geode::getMod()
PUBLIC m 7624 0 geodeImplicitEntry
PUBLIC 7660 0 <.plt ELF section in nwo5.confirm_like.android64.so>
STACK CFI INIT 40d0 10 .cfa: sp 0 +
STACK CFI INIT 40e0 8 .cfa: sp 0 +
STACK CFI INIT 40e8 8 .cfa: sp 0 +
STACK CFI INIT 40f0 14 .cfa: sp 0 +
STACK CFI INIT 4104 1c .cfa: sp 0 +
STACK CFI INIT 4120 10 .cfa: sp 0 +
STACK CFI INIT 4130 30 .cfa: sp 0 +
STACK CFI INIT 4160 98 .cfa: sp 0 +
STACK CFI INIT 41f8 2ac .cfa: sp 0 +
STACK CFI INIT 44a4 8c .cfa: sp 0 +
STACK CFI INIT 4530 30 .cfa: sp 0 +
STACK CFI INIT 50b8 18 .cfa: sp 0 +
STACK CFI INIT 5710 50 .cfa: sp 0 +
STACK CFI 5714 .cfa: sp 32 +
STACK CFI 571c .cfa: x29 32 + x19: .cfa -16 + ^ .ra: .cfa -24 + ^ x29: .cfa -32 + ^
STACK CFI 5734 .cfa: sp 32 +
STACK CFI 573c .cfa: sp 0 +
STACK CFI 5740 .cfa: x29 32 +
STACK CFI 5754 .cfa: sp 32 +
STACK CFI 575c .cfa: sp 0 +
STACK CFI INIT 57d4 7c .cfa: sp 0 +
STACK CFI 57d8 .cfa: sp 48 +
STACK CFI 57e4 .cfa: x29 48 + x19: .cfa -8 + ^ x20: .cfa -16 + ^ x21: .cfa -32 + ^ .ra: .cfa -40 + ^ x29: .cfa -48 + ^
STACK CFI 5830 .cfa: sp 48 +
STACK CFI 583c .cfa: sp 0 +
STACK CFI 5840 .cfa: sp 48 +
STACK CFI 584c .cfa: sp 0 +
STACK CFI INIT 5850 4 .cfa: sp 0 +
STACK CFI INIT 5854 10 .cfa: sp 0 +
STACK CFI 5858 .cfa: sp 16 +
STACK CFI 585c .cfa: x29 16 + .ra: .cfa -8 + ^ x29: .cfa -16 + ^
STACK CFI INIT 5f80 34 .cfa: sp 0 +
STACK CFI 5f84 .cfa: sp 16 +
STACK CFI 5f88 .cfa: x29 16 + .ra: .cfa -8 + ^ x29: .cfa -16 + ^
STACK CFI INIT 5fb4 80 .cfa: sp 0 +
STACK CFI 5fb8 .cfa: sp 48 +
STACK CFI 5fc4 .cfa: x29 48 + x19: .cfa -8 + ^ x20: .cfa -16 + ^ x21: .cfa -32 + ^ .ra: .cfa -40 + ^ x29: .cfa -48 + ^
STACK CFI 6024 .cfa: sp 48 +
STACK CFI 6030 .cfa: sp 0 +
STACK CFI INIT 6034 24 .cfa: sp 0 +
STACK CFI 6038 .cfa: sp 32 +
STACK CFI 6040 .cfa: x29 32 + x19: .cfa -16 + ^ .ra: .cfa -24 + ^ x29: .cfa -32 + ^
STACK CFI 604c .cfa: sp 32 +
STACK CFI 6054 .cfa: sp 0 +
STACK CFI INIT 6058 14 .cfa: sp 0 +
STACK CFI 605c .cfa: sp 16 +
STACK CFI 6060 .cfa: x29 16 + .ra: .cfa -8 + ^ x29: .cfa -16 + ^
STACK CFI INIT 60bc 30 .cfa: sp 0 +
STACK CFI 60c0 .cfa: sp 32 +
STACK CFI 60c8 .cfa: x29 32 + x19: .cfa -16 + ^ .ra: .cfa -24 + ^ x29: .cfa -32 + ^
STACK CFI 60e0 .cfa: sp 32 +
STACK CFI 60e8 .cfa: sp 0 +
STACK CFI INIT 60ec 34 .cfa: sp 0 +
STACK CFI 60f0 .cfa: sp 32 +
STACK CFI 60f8 .cfa: x29 32 + x19: .cfa -16 + ^ .ra: .cfa -24 + ^ x29: .cfa -32 + ^
STACK CFI INIT 6120 84 .cfa: sp 0 +
STACK CFI 6128 .cfa: sp 48 +
STACK CFI 6134 .cfa: x29 48 + x19: .cfa -8 + ^ x20: .cfa -16 + ^ x21: .cfa -32 + ^ .ra: .cfa -40 + ^ x29: .cfa -48 + ^
STACK CFI 6194 .cfa: sp 48 +
STACK CFI 61a0 .cfa: sp 0 +
STACK CFI INIT 61ec 38 .cfa: sp 0 +
STACK CFI 61f0 .cfa: sp 32 +
STACK CFI 61f8 .cfa: x29 32 + x19: .cfa -16 + ^ .ra: .cfa -24 + ^ x29: .cfa -32 + ^
STACK CFI 6218 .cfa: sp 32 +
STACK CFI 6220 .cfa: sp 0 +
STACK CFI INIT 6224 90 .cfa: sp 0 +
STACK CFI 6228 .cfa: sp 48 +
STACK CFI 6234 .cfa: x29 48 + x19: .cfa -8 + ^ x20: .cfa -16 + ^ x21: .cfa -24 + ^ x22: .cfa -32 + ^ .ra: .cfa -40 + ^ x29: .cfa -48 + ^
STACK CFI 624c .cfa: sp 48 +
STACK CFI 6258 .cfa: sp 0 +
STACK CFI 625c .cfa: x29 48 +
STACK CFI 62a0 .cfa: sp 48 +
STACK CFI 62ac .cfa: sp 0 +
STACK CFI 62b0 .cfa: x29 48 +
STACK CFI INIT 62b4 68 .cfa: sp 0 +
STACK CFI 62b8 .cfa: sp 32 +
STACK CFI 62c0 .cfa: x29 32 + x19: .cfa -8 + ^ x20: .cfa -16 + ^ .ra: .cfa -24 + ^ x29: .cfa -32 + ^
STACK CFI 62d8 .cfa: sp 32 +
STACK CFI 62e0 .cfa: sp 0 +
STACK CFI 62e4 .cfa: x29 32 +
STACK CFI 6310 .cfa: sp 32 +
STACK CFI 6318 .cfa: sp 0 +
STACK CFI INIT 631c 14 .cfa: sp 0 +
STACK CFI 6320 .cfa: sp 16 +
STACK CFI 6324 .cfa: x29 16 + .ra: .cfa -8 + ^ x29: .cfa -16 + ^
STACK CFI INIT 6330 4 .cfa: sp 0 +
STACK CFI INIT 6334 14 .cfa: sp 0 +
STACK CFI INIT 6348 84 .cfa: sp 0 +
STACK CFI 6350 .cfa: sp 32 +
STACK CFI 6358 .cfa: x29 32 + x19: .cfa -8 + ^ x20: .cfa -16 + ^ .ra: .cfa -24 + ^ x29: .cfa -32 + ^
STACK CFI 6398 .cfa: sp 32 +
STACK CFI 63a0 .cfa: sp 0 +
STACK CFI 63a8 .cfa: x29 32 +
STACK CFI INIT 63cc 404 .cfa: sp 0 +
STACK CFI 63d0 .cfa: sp 80 +
STACK CFI 63e4 .cfa: x29 80 + x19: .cfa -8 + ^ x20: .cfa -16 + ^ x21: .cfa -24 + ^ x22: .cfa -32 + ^ x23: .cfa -40 + ^ x24: .cfa -48 + ^ x25: .cfa -64 + ^ .ra: .cfa -72 + ^ x29: .cfa -80 + ^
STACK CFI 67b8 .cfa: sp 80 +
STACK CFI 67cc .cfa: sp 0 +
STACK CFI INIT 67d0 50 .cfa: sp 0 +
STACK CFI 67d4 .cfa: sp 32 +
STACK CFI 67dc .cfa: x29 32 + x19: .cfa -16 + ^ .ra: .cfa -24 + ^ x29: .cfa -32 + ^
STACK CFI 67f4 .cfa: sp 32 +
STACK CFI 67fc .cfa: sp 0 +
STACK CFI 6800 .cfa: x29 32 +
STACK CFI 6814 .cfa: sp 32 +
STACK CFI 681c .cfa: sp 0 +
STACK CFI INIT 6820 64 .cfa: sp 0 +
STACK CFI 6824 .cfa: sp 32 +
STACK CFI 682c .cfa: x29 32 + x19: .cfa -16 + ^ .ra: .cfa -24 + ^ x29: .cfa -32 + ^
STACK CFI 6858 .cfa: sp 32 +
STACK CFI 6860 .cfa: sp 0 +
STACK CFI 6864 .cfa: x29 32 +
STACK CFI 6878 .cfa: sp 32 +
STACK CFI 6880 .cfa: sp 0 +
STACK CFI INIT 6884 128 .cfa: sp 0 +
STACK CFI 6888 .cfa: sp 80 +
STACK CFI 6898 .cfa: x29 48 + x19: .cfa -8 + ^ x20: .cfa -16 + ^ x21: .cfa -24 + ^ x22: .cfa -32 + ^ .ra: .cfa -40 + ^ x29: .cfa -48 + ^
STACK CFI 6994 .cfa: sp 80 +
STACK CFI 69a4 .cfa: sp 0 +
STACK CFI 69a8 .cfa: x29 48 +
STACK CFI INIT 6c84 f8 .cfa: sp 0 +
STACK CFI 6c88 .cfa: sp 64 +
STACK CFI 6c98 .cfa: x29 64 + x19: .cfa -8 + ^ x20: .cfa -16 + ^ x21: .cfa -24 + ^ x22: .cfa -32 + ^ x23: .cfa -48 + ^ .ra: .cfa -56 + ^ x29: .cfa -64 + ^
STACK CFI 6cf4 .cfa: sp 64 +
STACK CFI 6d04 .cfa: sp 0 +
STACK CFI 6d08 .cfa: x29 64 +
STACK CFI 6d24 .cfa: sp 64 +
STACK CFI 6d34 .cfa: sp 0 +
STACK CFI 6d38 .cfa: x29 64 +
STACK CFI 6d68 .cfa: sp 64 +
STACK CFI 6d78 .cfa: sp 0 +
STACK CFI INIT 7350 4 .cfa: sp 0 +
STACK CFI INIT 7354 14 .cfa: sp 0 +
STACK CFI 7358 .cfa: sp 16 +
STACK CFI 735c .cfa: x29 16 + .ra: .cfa -8 + ^ x29: .cfa -16 + ^
STACK CFI INIT 7368 14 .cfa: sp 0 +
STACK CFI 736c .cfa: sp 16 +
STACK CFI 7370 .cfa: x29 16 + .ra: .cfa -8 + ^ x29: .cfa -16 + ^
STACK CFI INIT 737c c .cfa: sp 0 +
STACK CFI 7380 .cfa: sp 16 +
STACK CFI 7384 .cfa: x29 16 + .ra: .cfa -8 + ^ x29: .cfa -16 + ^
STACK CFI INIT 7388 c .cfa: sp 0 +
STACK CFI 738c .cfa: sp 16 +
STACK CFI 7390 .cfa: x29 16 + .ra: .cfa -8 + ^ x29: .cfa -16 + ^
STACK CFI INIT 7394 4 .cfa: sp 0 +
STACK CFI INIT 7398 4 .cfa: sp 0 +
STACK CFI INIT 739c 38 .cfa: sp 0 +
STACK CFI 73a0 .cfa: sp 32 +
STACK CFI 73a8 .cfa: x29 32 + x19: .cfa -16 + ^ .ra: .cfa -24 + ^ x29: .cfa -32 + ^
STACK CFI 73c8 .cfa: sp 32 +
STACK CFI 73d0 .cfa: sp 0 +
STACK CFI INIT 73d4 18 .cfa: sp 0 +
STACK CFI INIT 73ec 4 .cfa: sp 0 +
STACK CFI INIT 73f0 4 .cfa: sp 0 +
STACK CFI INIT 73f4 10 .cfa: sp 0 +
STACK CFI INIT 7404 1c .cfa: sp 0 +
STACK CFI INIT 7420 c .cfa: sp 0 +
STACK CFI INIT 742c 4 .cfa: sp 0 +
STACK CFI INIT 7430 34 .cfa: sp 0 +
STACK CFI 7434 .cfa: sp 32 +
STACK CFI 743c .cfa: x29 32 + x19: .cfa -16 + ^ .ra: .cfa -24 + ^ x29: .cfa -32 + ^
STACK CFI 7458 .cfa: sp 32 +
STACK CFI 7460 .cfa: sp 0 +
STACK CFI INIT 7464 14 .cfa: sp 0 +
STACK CFI INIT 7478 4 .cfa: sp 0 +
STACK CFI INIT 747c 4 .cfa: sp 0 +
STACK CFI INIT 7480 60 .cfa: sp 0 +
STACK CFI 748c .cfa: sp 32 +
STACK CFI 7494 .cfa: x29 32 + x19: .cfa -8 + ^ x20: .cfa -16 + ^ .ra: .cfa -24 + ^ x29: .cfa -32 + ^
STACK CFI 74d0 .cfa: sp 32 +
STACK CFI 74d8 .cfa: sp 0 +
STACK CFI INIT 74e0 1c .cfa: sp 0 +
STACK CFI INIT 74fc c .cfa: sp 0 +
STACK CFI INIT 7508 4 .cfa: sp 0 +
STACK CFI INIT 750c 4 .cfa: sp 0 +
STACK CFI INIT 7510 34 .cfa: sp 0 +
STACK CFI 7514 .cfa: sp 32 +
STACK CFI 751c .cfa: x29 32 + x19: .cfa -16 + ^ .ra: .cfa -24 + ^ x29: .cfa -32 + ^
STACK CFI 7538 .cfa: sp 32 +
STACK CFI 7540 .cfa: sp 0 +
STACK CFI INIT 7544 14 .cfa: sp 0 +
STACK CFI INIT 7558 4 .cfa: sp 0 +
STACK CFI INIT 755c 4 .cfa: sp 0 +
STACK CFI INIT 7560 60 .cfa: sp 0 +
STACK CFI 756c .cfa: sp 32 +
STACK CFI 7574 .cfa: x29 32 + x19: .cfa -8 + ^ x20: .cfa -16 + ^ .ra: .cfa -24 + ^ x29: .cfa -32 + ^
STACK CFI 75b0 .cfa: sp 32 +
STACK CFI 75b8 .cfa: sp 0 +
STACK CFI INIT 75c0 1c .cfa: sp 0 +
STACK CFI INIT 75dc c .cfa: sp 0 +
STACK CFI INIT 75e8 3c .cfa: sp 0 +
STACK CFI 75ec .cfa: sp 32 +
STACK CFI 75f4 .cfa: x29 32 + x19: .cfa -16 + ^ .ra: .cfa -24 + ^ x29: .cfa -32 + ^
STACK CFI 7600 .cfa: sp 32 +
STACK CFI 7608 .cfa: sp 0 +
STACK CFI 760c .cfa: x29 32 +
STACK CFI 7618 .cfa: sp 32 +
STACK CFI 7620 .cfa: sp 0 +
STACK CFI INIT 7624 3c .cfa: sp 0 +
STACK CFI 7628 .cfa: sp 32 +
STACK CFI 7630 .cfa: x29 32 + x19: .cfa -16 + ^ .ra: .cfa -24 + ^ x29: .cfa -32 + ^
STACK CFI 763c .cfa: sp 32 +
STACK CFI 7644 .cfa: sp 0 +
STACK CFI 7648 .cfa: x29 32 +
STACK CFI 7654 .cfa: sp 32 +
STACK CFI 765c .cfa: sp 0 +
STACK CFI INIT 4560 b58 .cfa: sp 0 +
STACK CFI 4564 .cfa: sp 240 +
STACK CFI 4580 .cfa: x29 96 + x19: .cfa -8 + ^ x20: .cfa -16 + ^ x21: .cfa -24 + ^ x22: .cfa -32 + ^ x23: .cfa -40 + ^ x24: .cfa -48 + ^ x25: .cfa -56 + ^ x26: .cfa -64 + ^ x27: .cfa -72 + ^ x28: .cfa -80 + ^ .ra: .cfa -88 + ^ x29: .cfa -96 + ^
STACK CFI 48d0 .cfa: sp 240 +
STACK CFI 48ec .cfa: sp 0 +
STACK CFI 48f0 .cfa: x29 96 +
STACK CFI 4f60 .cfa: sp 240 +
STACK CFI 4f7c .cfa: sp 0 +
STACK CFI 4f80 .cfa: x29 96 +
STACK CFI INIT 50d0 640 .cfa: sp 0 +
STACK CFI 50d4 .cfa: sp 240 +
STACK CFI 50f0 .cfa: x29 96 + x19: .cfa -8 + ^ x20: .cfa -16 + ^ x21: .cfa -24 + ^ x22: .cfa -32 + ^ x23: .cfa -40 + ^ x24: .cfa -48 + ^ x25: .cfa -56 + ^ x26: .cfa -64 + ^ x27: .cfa -72 + ^ x28: .cfa -80 + ^ .ra: .cfa -88 + ^ x29: .cfa -96 + ^
STACK CFI 55e8 .cfa: sp 240 +
STACK CFI 5604 .cfa: sp 0 +
STACK CFI 5608 .cfa: x29 96 +
STACK CFI INIT 5760 74 .cfa: sp 0 +
STACK CFI 5764 .cfa: sp 48 +
STACK CFI 5770 .cfa: x29 32 + x19: .cfa -8 + ^ x20: .cfa -16 + ^ .ra: .cfa -24 + ^ x29: .cfa -32 + ^
STACK CFI 57bc .cfa: sp 48 +
STACK CFI 57c8 .cfa: sp 0 +
STACK CFI 57cc .cfa: x29 32 +
STACK CFI INIT 5864 71c .cfa: sp 0 +
STACK CFI 5868 .cfa: sp 496 +
STACK CFI 5884 .cfa: x29 96 + x19: .cfa -8 + ^ x20: .cfa -16 + ^ x21: .cfa -24 + ^ x22: .cfa -32 + ^ x23: .cfa -40 + ^ x24: .cfa -48 + ^ x25: .cfa -56 + ^ x26: .cfa -64 + ^ x27: .cfa -72 + ^ x28: .cfa -80 + ^ .ra: .cfa -88 + ^ x29: .cfa -96 + ^
STACK CFI 5e50 .cfa: sp 496 +
STACK CFI 5e6c .cfa: sp 0 +
STACK CFI 5e70 .cfa: x29 96 +
STACK CFI INIT 606c 50 .cfa: sp 0 +
STACK CFI 6070 .cfa: sp 32 +
STACK CFI 6078 .cfa: x29 32 + x19: .cfa -8 + ^ x20: .cfa -16 + ^ .ra: .cfa -24 + ^ x29: .cfa -32 + ^
STACK CFI INIT 61a4 48 .cfa: sp 0 +
STACK CFI 61a8 .cfa: sp 32 +
STACK CFI 61b0 .cfa: x29 32 + x19: .cfa -8 + ^ x20: .cfa -16 + ^ .ra: .cfa -24 + ^ x29: .cfa -32 + ^
STACK CFI INIT 69ac 16c .cfa: sp 0 +
STACK CFI 69b0 .cfa: sp 128 +
STACK CFI 69bc .cfa: x29 32 + x19: .cfa -8 + ^ x20: .cfa -16 + ^ .ra: .cfa -24 + ^ x29: .cfa -32 + ^
STACK CFI 6a90 .cfa: sp 128 +
STACK CFI 6a9c .cfa: sp 0 +
STACK CFI 6aa0 .cfa: x29 32 +
STACK CFI INIT 6b18 16c .cfa: sp 0 +
STACK CFI 6b1c .cfa: sp 128 +
STACK CFI 6b28 .cfa: x29 32 + x19: .cfa -8 + ^ x20: .cfa -16 + ^ .ra: .cfa -24 + ^ x29: .cfa -32 + ^
STACK CFI 6bfc .cfa: sp 128 +
STACK CFI 6c08 .cfa: sp 0 +
STACK CFI 6c0c .cfa: x29 32 +
STACK CFI INIT 6d7c 5d4 .cfa: sp 0 +
STACK CFI 6d80 .cfa: sp 224 +
STACK CFI 6d9c .cfa: x29 96 + x19: .cfa -8 + ^ x20: .cfa -16 + ^ x21: .cfa -24 + ^ x22: .cfa -32 + ^ x23: .cfa -40 + ^ x24: .cfa -48 + ^ x25: .cfa -56 + ^ x26: .cfa -64 + ^ x27: .cfa -72 + ^ x28: .cfa -80 + ^ .ra: .cfa -88 + ^ x29: .cfa -96 + ^
STACK CFI 71e0 .cfa: sp 224 +
STACK CFI 71fc .cfa: sp 0 +
STACK CFI 7200 .cfa: x29 96 +
