MODULE Linux arm64 9B74516AE7920110C0C3A9997279558E0 alphalaneous.improved_group_view.android64.so
INFO CODE_ID 6A51749B92E71001C0C3A9997279558E83656149
INFO GENERATOR mozilla/dump_syms 2.3.4
PUBLIC 14910 0 __on_dlclose
PUBLIC 14920 0 __emutls_unregister_key
PUBLIC 14928 0 __on_dlclose_late
PUBLIC 14930 0 __atexit_handler_wrapper
PUBLIC 14944 0 atexit
PUBLIC 14960 0 pthread_atfork
PUBLIC 14970 0 unwind_phase2
PUBLIC 14aa4 0 _Unwind_Resume
PUBLIC 14b28 0 unwind_phase2_forced
PUBLIC m 14c1c 0 __unw_init_local
PUBLIC m 14cc4 0 __unw_get_reg
PUBLIC 14d40 0 __unw_step_stage2
PUBLIC m 14d54 0 __unw_get_proc_info
PUBLIC m 14d94 0 __unw_resume
PUBLIC 14dbc 0 libunwind::CFI_Parser<libunwind::LocalAddressSpace>::decodeFDE(libunwind::LocalAddressSpace&, unsigned long, libunwind::CFI_Parser<libunwind::LocalAddressSpace>::FDE_Info*, libunwind::CFI_Parser<libunwind::LocalAddressSpace>::CIE_Info*, bool)
PUBLIC 14f4c 0 libunwind::CFI_Parser<libunwind::LocalAddressSpace>::parseCIE(libunwind::LocalAddressSpace&, unsigned long, libunwind::CFI_Parser<libunwind::LocalAddressSpace>::CIE_Info*)
PUBLIC 15214 0 libunwind::AbstractUnwindCursor::~AbstractUnwindCursor()
PUBLIC 1521c 0 libunwind::UnwindCursor<libunwind::LocalAddressSpace, libunwind::Registers_arm64>::~UnwindCursor()
PUBLIC 15224 0 libunwind::UnwindCursor<libunwind::LocalAddressSpace, libunwind::Registers_arm64>::validReg(int)
PUBLIC 15268 0 libunwind::UnwindCursor<libunwind::LocalAddressSpace, libunwind::Registers_arm64>::getReg(int)
PUBLIC 15350 0 libunwind::UnwindCursor<libunwind::LocalAddressSpace, libunwind::Registers_arm64>::setReg(int, unsigned long)
PUBLIC 15438 0 libunwind::UnwindCursor<libunwind::LocalAddressSpace, libunwind::Registers_arm64>::validFloatReg(int)
PUBLIC 1544c 0 libunwind::UnwindCursor<libunwind::LocalAddressSpace, libunwind::Registers_arm64>::getFloatReg(int)
PUBLIC 1545c 0 libunwind::UnwindCursor<libunwind::LocalAddressSpace, libunwind::Registers_arm64>::setFloatReg(int, double)
PUBLIC 1546c 0 libunwind::UnwindCursor<libunwind::LocalAddressSpace, libunwind::Registers_arm64>::step(bool)
PUBLIC 1555c 0 libunwind::UnwindCursor<libunwind::LocalAddressSpace, libunwind::Registers_arm64>::getInfo(unw_proc_info_t*)
PUBLIC 155a0 0 libunwind::UnwindCursor<libunwind::LocalAddressSpace, libunwind::Registers_arm64>::jumpto()
PUBLIC 155ac 0 libunwind::UnwindCursor<libunwind::LocalAddressSpace, libunwind::Registers_arm64>::isSignalFrame()
PUBLIC 155b8 0 libunwind::UnwindCursor<libunwind::LocalAddressSpace, libunwind::Registers_arm64>::getFunctionName(char*, unsigned long, unsigned long*)
PUBLIC 155e4 0 libunwind::UnwindCursor<libunwind::LocalAddressSpace, libunwind::Registers_arm64>::setInfoBasedOnIPRegister(bool)
PUBLIC 15820 0 libunwind::UnwindCursor<libunwind::LocalAddressSpace, libunwind::Registers_arm64>::getRegisterName(int)
PUBLIC 1582c 0 libunwind::UnwindCursor<libunwind::LocalAddressSpace, libunwind::Registers_arm64>::stepThroughSigReturn(libunwind::Registers_arm64&)
PUBLIC 1594c 0 libunwind::DwarfInstructions<libunwind::LocalAddressSpace, libunwind::Registers_arm64>::stepWithDwarf(libunwind::LocalAddressSpace&, unsigned long, unsigned long, libunwind::Registers_arm64&, bool&, bool)
PUBLIC 15de0 0 libunwind::CFI_Parser<libunwind::LocalAddressSpace>::parseFDEInstructions(libunwind::LocalAddressSpace&, libunwind::CFI_Parser<libunwind::LocalAddressSpace>::FDE_Info const&, libunwind::CFI_Parser<libunwind::LocalAddressSpace>::CIE_Info const&, unsigned long, int, libunwind::CFI_Parser<libunwind::LocalAddressSpace>::PrologInfo*)
PUBLIC 16958 0 libunwind::DwarfInstructions<libunwind::LocalAddressSpace, libunwind::Registers_arm64>::getCFA(libunwind::LocalAddressSpace&, libunwind::CFI_Parser<libunwind::LocalAddressSpace>::PrologInfo const&, libunwind::Registers_arm64 const&)
PUBLIC 16a8c 0 libunwind::DwarfInstructions<libunwind::LocalAddressSpace, libunwind::Registers_arm64>::getSavedRegister(libunwind::LocalAddressSpace&, libunwind::Registers_arm64 const&, unsigned long, libunwind::CFI_Parser<libunwind::LocalAddressSpace>::RegisterLocation const&)
PUBLIC 16c9c 0 libunwind::LocalAddressSpace::getEncodedP(unsigned long&, unsigned long, unsigned char, unsigned long)
PUBLIC 17028 0 libunwind::LocalAddressSpace::getULEB128(unsigned long&, unsigned long)
PUBLIC 171f0 0 libunwind::DwarfInstructions<libunwind::LocalAddressSpace, libunwind::Registers_arm64>::evaluateExpression(unsigned long, libunwind::LocalAddressSpace&, libunwind::Registers_arm64 const&, unsigned long)
PUBLIC 17bb4 0 libunwind::UnwindCursor<libunwind::LocalAddressSpace, libunwind::Registers_arm64>::getInfoFromDwarfSection(unsigned long, libunwind::UnwindInfoSections const&, unsigned int)
PUBLIC 17e88 0 libunwind::findUnwindSectionsByPhdr(dl_phdr_info*, unsigned long, void*)
PUBLIC 17fb8 0 libunwind::EHHeaderParser<libunwind::LocalAddressSpace>::decodeEHHdr(libunwind::LocalAddressSpace&, unsigned long, unsigned long, libunwind::EHHeaderParser<libunwind::LocalAddressSpace>::EHHeaderInfo&)
PUBLIC 180d8 0 libunwind::CFI_Parser<libunwind::LocalAddressSpace>::findFDE(libunwind::LocalAddressSpace&, unsigned long, unsigned long, unsigned long, unsigned long, libunwind::CFI_Parser<libunwind::LocalAddressSpace>::FDE_Info*, libunwind::CFI_Parser<libunwind::LocalAddressSpace>::CIE_Info*)
PUBLIC 182a0 0 libunwind::EHHeaderParser<libunwind::LocalAddressSpace>::findFDE(libunwind::LocalAddressSpace&, unsigned long, unsigned long, unsigned int, libunwind::CFI_Parser<libunwind::LocalAddressSpace>::FDE_Info*, libunwind::CFI_Parser<libunwind::LocalAddressSpace>::CIE_Info*)
PUBLIC 18408 0 libunwind::EHHeaderParser<libunwind::LocalAddressSpace>::getTableEntrySize(unsigned char)
PUBLIC 18504 0 libunwind::Registers_arm64::getRegisterName(int)
PUBLIC 18534 0 __libunwind_Registers_arm64_jumpto
PUBLIC m 185c4 0 __unw_getcontext
PUBLIC 18660 0 __aarch64_ldadd8_relax
PUBLIC 18690 0 init_have_lse_atomics
PUBLIC 18728 0 __init_cpu_features_constructor
PUBLIC 189d4 0 __init_cpu_features
PUBLIC 18a60 0 __aarch64_ldadd8_acq_rel
PUBLIC 18a90 0 geode::DispatchEvent<std::__ndk1::basic_string<char, std::__ndk1::char_traits<char>, std::__ndk1::allocator<char> >*, NID, short>::~DispatchEvent()
PUBLIC 18ad0 0 geode::DispatchEvent<std::__ndk1::unordered_map<std::__ndk1::basic_string<char, std::__ndk1::char_traits<char>, std::__ndk1::allocator<char> >, short, std::__ndk1::hash<std::__ndk1::basic_string<char, std::__ndk1::char_traits<char>, std::__ndk1::allocator<char> > >, std::__ndk1::equal_to<std::__ndk1::basic_string<char, std::__ndk1::char_traits<char>, std::__ndk1::allocator<char> > >, std::__ndk1::allocator<std::__ndk1::pair<std::__ndk1::basic_string<char, std::__ndk1::char_traits<char>, std::__ndk1::allocator<char> > const, short> > >*, NID>::~DispatchEvent()
PUBLIC 18b10 0 std::__ndk1::unordered_map<std::__ndk1::basic_string<char, std::__ndk1::char_traits<char>, std::__ndk1::allocator<char> >, short, std::__ndk1::hash<std::__ndk1::basic_string<char, std::__ndk1::char_traits<char>, std::__ndk1::allocator<char> > >, std::__ndk1::equal_to<std::__ndk1::basic_string<char, std::__ndk1::char_traits<char>, std::__ndk1::allocator<char> > >, std::__ndk1::allocator<std::__ndk1::pair<std::__ndk1::basic_string<char, std::__ndk1::char_traits<char>, std::__ndk1::allocator<char> > const, short> > >::~unordered_map[abi:ne190000]()
PUBLIC 18b80 0 __cxx_global_var_init
PUBLIC 194a4 0 geode::modifier::ModifyBase<geode::modifier::ModifyDerive<MySetGroupIDLayer, SetGroupIDLayer> >::~ModifyBase()
PUBLIC 194bc 0 __cxx_global_var_init.3
PUBLIC 19908 0 geode::modifier::ModifyBase<geode::modifier::ModifyDerive<hook487<(anonymous namespace)::hook487Parent>, CCScrollLayerExt> >::~ModifyBase()
PUBLIC 19920 0 __clang_call_terminate
PUBLIC 19930 0 std::__ndk1::basic_string<char, std::__ndk1::char_traits<char>, std::__ndk1::allocator<char> >::__throw_length_error[abi:ne190000]() const
PUBLIC 19944 0 std::__ndk1::__throw_length_error[abi:ne190000](char const*)
PUBLIC 19994 0 std::length_error::length_error[abi:ne190000](char const*)
PUBLIC 199c4 0 std::__throw_bad_array_new_length([abi:ne190000], void)
PUBLIC 199f8 0 geode::DispatchEvent<std::__ndk1::basic_string<char, std::__ndk1::char_traits<char>, std::__ndk1::allocator<char> >*, NID, short>::getPool() const
PUBLIC 19a5c 0 geode::DispatchEvent<std::__ndk1::basic_string<char, std::__ndk1::char_traits<char>, std::__ndk1::allocator<char> >*, NID, short>::~DispatchEvent()
PUBLIC 19aa0 0 std::__ndk1::__hash_table<std::__ndk1::__hash_value_type<std::__ndk1::basic_string<char, std::__ndk1::char_traits<char>, std::__ndk1::allocator<char> >, geode::EventListenerPool*>, std::__ndk1::__unordered_map_hasher<std::__ndk1::basic_string<char, std::__ndk1::char_traits<char>, std::__ndk1::allocator<char> >, std::__ndk1::__hash_value_type<std::__ndk1::basic_string<char, std::__ndk1::char_traits<char>, std::__ndk1::allocator<char> >, geode::EventListenerPool*>, std::__ndk1::hash<std::__ndk1::basic_string<char, std::__ndk1::char_traits<char>, std::__ndk1::allocator<char> > >, std::__ndk1::equal_to<std::__ndk1::basic_string<char, std::__ndk1::char_traits<char>, std::__ndk1::allocator<char> > >, true>, std::__ndk1::__unordered_map_equal<std::__ndk1::basic_string<char, std::__ndk1::char_traits<char>, std::__ndk1::allocator<char> >, std::__ndk1::__hash_value_type<std::__ndk1::basic_string<char, std::__ndk1::char_traits<char>, std::__ndk1::allocator<char> >, geode::EventListenerPool*>, std::__ndk1::equal_to<std::__ndk1::basic_string<char, std::__ndk1::char_traits<char>, std::__ndk1::allocator<char> > >, std::__ndk1::hash<std::__ndk1::basic_string<char, std::__ndk1::char_traits<char>, std::__ndk1::allocator<char> > >, true>, std::__ndk1::allocator<std::__ndk1::__hash_value_type<std::__ndk1::basic_string<char, std::__ndk1::char_traits<char>, std::__ndk1::allocator<char> >, geode::EventListenerPool*> > >::find<std::__ndk1::basic_string<char, std::__ndk1::char_traits<char>, std::__ndk1::allocator<char> > >(std::__ndk1::basic_string<char, std::__ndk1::char_traits<char>, std::__ndk1::allocator<char> > const&) const
PUBLIC 19cd0 0 std::__ndk1::__murmur2_or_cityhash<unsigned long, (unsigned long)64>::operator()[abi:ne190000](void const*, unsigned long) const
PUBLIC 1a128 0 std::__ndk1::__hash_table<std::__ndk1::__hash_value_type<std::__ndk1::basic_string<char, std::__ndk1::char_traits<char>, std::__ndk1::allocator<char> >, geode::EventListenerPool*>, std::__ndk1::__unordered_map_hasher<std::__ndk1::basic_string<char, std::__ndk1::char_traits<char>, std::__ndk1::allocator<char> >, std::__ndk1::__hash_value_type<std::__ndk1::basic_string<char, std::__ndk1::char_traits<char>, std::__ndk1::allocator<char> >, geode::EventListenerPool*>, std::__ndk1::hash<std::__ndk1::basic_string<char, std::__ndk1::char_traits<char>, std::__ndk1::allocator<char> > >, std::__ndk1::equal_to<std::__ndk1::basic_string<char, std::__ndk1::char_traits<char>, std::__ndk1::allocator<char> > >, true>, std::__ndk1::__unordered_map_equal<std::__ndk1::basic_string<char, std::__ndk1::char_traits<char>, std::__ndk1::allocator<char> >, std::__ndk1::__hash_value_type<std::__ndk1::basic_string<char, std::__ndk1::char_traits<char>, std::__ndk1::allocator<char> >, geode::EventListenerPool*>, std::__ndk1::equal_to<std::__ndk1::basic_string<char, std::__ndk1::char_traits<char>, std::__ndk1::allocator<char> > >, std::__ndk1::hash<std::__ndk1::basic_string<char, std::__ndk1::char_traits<char>, std::__ndk1::allocator<char> > >, true>, std::__ndk1::allocator<std::__ndk1::__hash_value_type<std::__ndk1::basic_string<char, std::__ndk1::char_traits<char>, std::__ndk1::allocator<char> >, geode::EventListenerPool*> > >::__emplace_unique_key_args<std::__ndk1::basic_string<char, std::__ndk1::char_traits<char>, std::__ndk1::allocator<char> >, std::__ndk1::piecewise_construct_t const&, std::__ndk1::tuple<std::__ndk1::basic_string<char, std::__ndk1::char_traits<char>, std::__ndk1::allocator<char> > const&>, std::__ndk1::tuple<> >(std::__ndk1::basic_string<char, std::__ndk1::char_traits<char>, std::__ndk1::allocator<char> > const&, std::__ndk1::piecewise_construct_t const&, std::__ndk1::tuple<std::__ndk1::basic_string<char, std::__ndk1::char_traits<char>, std::__ndk1::allocator<char> > const&>, std::__ndk1::tuple<>)
PUBLIC 1a75c 0 std::__ndk1::unique_ptr<std::__ndk1::__hash_node<std::__ndk1::__hash_value_type<std::__ndk1::basic_string<char, std::__ndk1::char_traits<char>, std::__ndk1::allocator<char> >, geode::EventListenerPool*>, void*>, std::__ndk1::__hash_node_destructor<std::__ndk1::allocator<std::__ndk1::__hash_node<std::__ndk1::__hash_value_type<std::__ndk1::basic_string<char, std::__ndk1::char_traits<char>, std::__ndk1::allocator<char> >, geode::EventListenerPool*>, void*> > > >::~unique_ptr[abi:ne190000]()
PUBLIC 1a7ac 0 std::__ndk1::basic_string<char, std::__ndk1::char_traits<char>, std::__ndk1::allocator<char> >::__init_copy_ctor_external(char const*, unsigned long)
PUBLIC 1a840 0 geode::DispatchEvent<std::__ndk1::unordered_map<std::__ndk1::basic_string<char, std::__ndk1::char_traits<char>, std::__ndk1::allocator<char> >, short, std::__ndk1::hash<std::__ndk1::basic_string<char, std::__ndk1::char_traits<char>, std::__ndk1::allocator<char> > >, std::__ndk1::equal_to<std::__ndk1::basic_string<char, std::__ndk1::char_traits<char>, std::__ndk1::allocator<char> > >, std::__ndk1::allocator<std::__ndk1::pair<std::__ndk1::basic_string<char, std::__ndk1::char_traits<char>, std::__ndk1::allocator<char> > const, short> > >*, NID>::getPool() const
PUBLIC 1a8a4 0 geode::DispatchEvent<std::__ndk1::unordered_map<std::__ndk1::basic_string<char, std::__ndk1::char_traits<char>, std::__ndk1::allocator<char> >, short, std::__ndk1::hash<std::__ndk1::basic_string<char, std::__ndk1::char_traits<char>, std::__ndk1::allocator<char> > >, std::__ndk1::equal_to<std::__ndk1::basic_string<char, std::__ndk1::char_traits<char>, std::__ndk1::allocator<char> > >, std::__ndk1::allocator<std::__ndk1::pair<std::__ndk1::basic_string<char, std::__ndk1::char_traits<char>, std::__ndk1::allocator<char> > const, short> > >*, NID>::~DispatchEvent()
PUBLIC 1a8e8 0 std::__ndk1::__hash_table<std::__ndk1::__hash_value_type<std::__ndk1::basic_string<char, std::__ndk1::char_traits<char>, std::__ndk1::allocator<char> >, short>, std::__ndk1::__unordered_map_hasher<std::__ndk1::basic_string<char, std::__ndk1::char_traits<char>, std::__ndk1::allocator<char> >, std::__ndk1::__hash_value_type<std::__ndk1::basic_string<char, std::__ndk1::char_traits<char>, std::__ndk1::allocator<char> >, short>, std::__ndk1::hash<std::__ndk1::basic_string<char, std::__ndk1::char_traits<char>, std::__ndk1::allocator<char> > >, std::__ndk1::equal_to<std::__ndk1::basic_string<char, std::__ndk1::char_traits<char>, std::__ndk1::allocator<char> > >, true>, std::__ndk1::__unordered_map_equal<std::__ndk1::basic_string<char, std::__ndk1::char_traits<char>, std::__ndk1::allocator<char> >, std::__ndk1::__hash_value_type<std::__ndk1::basic_string<char, std::__ndk1::char_traits<char>, std::__ndk1::allocator<char> >, short>, std::__ndk1::equal_to<std::__ndk1::basic_string<char, std::__ndk1::char_traits<char>, std::__ndk1::allocator<char> > >, std::__ndk1::hash<std::__ndk1::basic_string<char, std::__ndk1::char_traits<char>, std::__ndk1::allocator<char> > >, true>, std::__ndk1::allocator<std::__ndk1::__hash_value_type<std::__ndk1::basic_string<char, std::__ndk1::char_traits<char>, std::__ndk1::allocator<char> >, short> > >::__deallocate_node(std::__ndk1::__hash_node_base<std::__ndk1::__hash_node<std::__ndk1::__hash_value_type<std::__ndk1::basic_string<char, std::__ndk1::char_traits<char>, std::__ndk1::allocator<char> >, short>, void*>*>*)
PUBLIC 1a930 0 geode::modifier::ModifyDerive<MySetGroupIDLayer, SetGroupIDLayer>::apply()
PUBLIC 1acac 0 std::__ndk1::shared_ptr<geode::Hook>::~shared_ptr[abi:ne190000]()
PUBLIC 1acfc 0 geode::impl::ResultData<geode::Hook*, std::__ndk1::basic_string<char, std::__ndk1::char_traits<char>, std::__ndk1::allocator<char> > >::~ResultData()
PUBLIC 1ad70 0 std::__ndk1::vector<std::__ndk1::basic_string<char, std::__ndk1::char_traits<char>, std::__ndk1::allocator<char> >, std::__ndk1::allocator<std::__ndk1::basic_string<char, std::__ndk1::char_traits<char>, std::__ndk1::allocator<char> > > >::~vector[abi:ne190000]()
PUBLIC 1adec 0 geode::modifier::ModifyBase<geode::modifier::ModifyDerive<MySetGroupIDLayer, SetGroupIDLayer> >::apply()
PUBLIC 1adf0 0 geode::modifier::ModifyBase<geode::modifier::ModifyDerive<MySetGroupIDLayer, SetGroupIDLayer> >::setHookPriorityAfter(std::__ndk1::basic_string_view<char, std::__ndk1::char_traits<char> >, geode::Mod*)::{lambda(geode::ModStateEvent*)#1}::operator()(geode::ModStateEvent*) const
PUBLIC 1af00 0 std::__ndk1::__tree<std::__ndk1::__value_type<std::__ndk1::basic_string<char, std::__ndk1::char_traits<char>, std::__ndk1::allocator<char> >, std::__ndk1::shared_ptr<geode::Hook> >, std::__ndk1::__map_value_compare<std::__ndk1::basic_string<char, std::__ndk1::char_traits<char>, std::__ndk1::allocator<char> >, std::__ndk1::__value_type<std::__ndk1::basic_string<char, std::__ndk1::char_traits<char>, std::__ndk1::allocator<char> >, std::__ndk1::shared_ptr<geode::Hook> >, std::__ndk1::less<std::__ndk1::basic_string<char, std::__ndk1::char_traits<char>, std::__ndk1::allocator<char> > >, true>, std::__ndk1::allocator<std::__ndk1::__value_type<std::__ndk1::basic_string<char, std::__ndk1::char_traits<char>, std::__ndk1::allocator<char> >, std::__ndk1::shared_ptr<geode::Hook> > > >::find<std::__ndk1::basic_string<char, std::__ndk1::char_traits<char>, std::__ndk1::allocator<char> > >(std::__ndk1::basic_string<char, std::__ndk1::char_traits<char>, std::__ndk1::allocator<char> > const&)
PUBLIC 1b028 0 std::__ndk1::__tree_balance_after_insert[abi:ne190000]<std::__ndk1::__tree_node_base<void*>*>(std::__ndk1::__tree_node_base<void*>*, std::__ndk1::__tree_node_base<void*>*)
PUBLIC 1b1d0 0 _ZN5geode15UnwrapExceptionC2IRPNS_4HookEQsr4implE18IsStringStreamableIT_EEENS_4impl5OkTagEOS5_
PUBLIC 1b324 0 std::__ndk1::__throw_bad_variant_access[abi:ne190000]()
PUBLIC 1b358 0 std::__ndk1::basic_stringstream<char, std::__ndk1::char_traits<char>, std::__ndk1::allocator<char> >::basic_stringstream[abi:ne190000]()
PUBLIC m 1b48c 0 std::__ndk1::basic_stringstream<char, std::__ndk1::char_traits<char>, std::__ndk1::allocator<char> >::~basic_stringstream()
PUBLIC 1b50c 0 geode::UnwrapException::~UnwrapException()
PUBLIC 1b530 0 std::__ndk1::__put_character_sequence[abi:ne190000]<char, std::__ndk1::char_traits<char> >(std::__ndk1::basic_ostream<char, std::__ndk1::char_traits<char> >, std::__ndk1::basic_ostream const*, unsigned long)
PUBLIC 1b6d4 0 std::__ndk1::__pad_and_output[abi:ne190000]<char, std::__ndk1::char_traits<char> >(std::__ndk1::char_traits<char>, std::__ndk1::ostreambuf_iterator const*, std::__ndk1::ostreambuf_iterator const, std::__ndk1::ostreambuf_iterator const, std::__ndk1::ios_base&, std::__ndk1::ostreambuf_iterator)
PUBLIC 1b8c0 0 std::__ndk1::basic_stringbuf<char, std::__ndk1::char_traits<char>, std::__ndk1::allocator<char> >::str[abi:ne190000]() &&
PUBLIC 1ba30 0 std::__ndk1::basic_stringbuf<char, std::__ndk1::char_traits<char>, std::__ndk1::allocator<char> >::__init_buf_ptrs[abi:ne190000]()
PUBLIC 1bb78 0 std::__ndk1::basic_string<char, std::__ndk1::char_traits<char>, std::__ndk1::allocator<char> >::__erase_external_with_move(unsigned long, unsigned long)
PUBLIC 1bc00 0 std::__ndk1::__throw_out_of_range[abi:ne190000](char const*)
PUBLIC 1bc50 0 std::out_of_range::out_of_range[abi:ne190000](char const*)
PUBLIC 1bc80 0 _ZN5geode15UnwrapExceptionC2IRNSt6__ndk112basic_stringIcNS2_11char_traitsIcEENS2_9allocatorIcEEEEQsr4implE18IsStringStreamableIT_EEENS_4impl6ErrTagEOSA_
PUBLIC 1bde8 0 std::__ndk1::__function::__base<void (geode::ModStateEvent*)>::~__base()
PUBLIC 1bdec 0 std::__ndk1::__function::__func<geode::modifier::ModifyBase<geode::modifier::ModifyDerive<MySetGroupIDLayer, SetGroupIDLayer> >::setHookPriorityAfter(std::__ndk1::basic_string_view<char, std::__ndk1::char_traits<char> >, geode::Mod*)::{lambda(geode::ModStateEvent*)#1}, std::__ndk1::allocator<geode::modifier::ModifyBase<geode::modifier::ModifyDerive<MySetGroupIDLayer, SetGroupIDLayer> >::setHookPriorityAfter(std::__ndk1::basic_string_view<char, std::__ndk1::char_traits<char> >, geode::Mod*)::{lambda(geode::ModStateEvent*)#1}>, void (geode::ModStateEvent*)>::~__func()
PUBLIC 1bdf0 0 std::__ndk1::__function::__func<geode::modifier::ModifyBase<geode::modifier::ModifyDerive<MySetGroupIDLayer, SetGroupIDLayer> >::setHookPriorityAfter(std::__ndk1::basic_string_view<char, std::__ndk1::char_traits<char> >, geode::Mod*)::{lambda(geode::ModStateEvent*)#1}, std::__ndk1::allocator<geode::modifier::ModifyBase<geode::modifier::ModifyDerive<MySetGroupIDLayer, SetGroupIDLayer> >::setHookPriorityAfter(std::__ndk1::basic_string_view<char, std::__ndk1::char_traits<char> >, geode::Mod*)::{lambda(geode::ModStateEvent*)#1}>, void (geode::ModStateEvent*)>::__clone() const
PUBLIC 1be28 0 std::__ndk1::__function::__func<geode::modifier::ModifyBase<geode::modifier::ModifyDerive<MySetGroupIDLayer, SetGroupIDLayer> >::setHookPriorityAfter(std::__ndk1::basic_string_view<char, std::__ndk1::char_traits<char> >, geode::Mod*)::{lambda(geode::ModStateEvent*)#1}, std::__ndk1::allocator<geode::modifier::ModifyBase<geode::modifier::ModifyDerive<MySetGroupIDLayer, SetGroupIDLayer> >::setHookPriorityAfter(std::__ndk1::basic_string_view<char, std::__ndk1::char_traits<char> >, geode::Mod*)::{lambda(geode::ModStateEvent*)#1}>, void (geode::ModStateEvent*)>::__clone(std::__ndk1::__function::__base<void (geode::ModStateEvent*)>*) const
PUBLIC 1be40 0 std::__ndk1::__function::__func<geode::modifier::ModifyBase<geode::modifier::ModifyDerive<MySetGroupIDLayer, SetGroupIDLayer> >::setHookPriorityAfter(std::__ndk1::basic_string_view<char, std::__ndk1::char_traits<char> >, geode::Mod*)::{lambda(geode::ModStateEvent*)#1}, std::__ndk1::allocator<geode::modifier::ModifyBase<geode::modifier::ModifyDerive<MySetGroupIDLayer, SetGroupIDLayer> >::setHookPriorityAfter(std::__ndk1::basic_string_view<char, std::__ndk1::char_traits<char> >, geode::Mod*)::{lambda(geode::ModStateEvent*)#1}>, void (geode::ModStateEvent*)>::destroy()
PUBLIC 1be44 0 std::__ndk1::__function::__func<geode::modifier::ModifyBase<geode::modifier::ModifyDerive<MySetGroupIDLayer, SetGroupIDLayer> >::setHookPriorityAfter(std::__ndk1::basic_string_view<char, std::__ndk1::char_traits<char> >, geode::Mod*)::{lambda(geode::ModStateEvent*)#1}, std::__ndk1::allocator<geode::modifier::ModifyBase<geode::modifier::ModifyDerive<MySetGroupIDLayer, SetGroupIDLayer> >::setHookPriorityAfter(std::__ndk1::basic_string_view<char, std::__ndk1::char_traits<char> >, geode::Mod*)::{lambda(geode::ModStateEvent*)#1}>, void (geode::ModStateEvent*)>::destroy_deallocate()
PUBLIC 1be48 0 std::__ndk1::__function::__func<geode::modifier::ModifyBase<geode::modifier::ModifyDerive<MySetGroupIDLayer, SetGroupIDLayer> >::setHookPriorityAfter(std::__ndk1::basic_string_view<char, std::__ndk1::char_traits<char> >, geode::Mod*)::{lambda(geode::ModStateEvent*)#1}, std::__ndk1::allocator<geode::modifier::ModifyBase<geode::modifier::ModifyDerive<MySetGroupIDLayer, SetGroupIDLayer> >::setHookPriorityAfter(std::__ndk1::basic_string_view<char, std::__ndk1::char_traits<char> >, geode::Mod*)::{lambda(geode::ModStateEvent*)#1}>, void (geode::ModStateEvent*)>::operator()(geode::ModStateEvent*&&)
PUBLIC 1be50 0 std::__ndk1::__function::__func<geode::modifier::ModifyBase<geode::modifier::ModifyDerive<MySetGroupIDLayer, SetGroupIDLayer> >::setHookPriorityAfter(std::__ndk1::basic_string_view<char, std::__ndk1::char_traits<char> >, geode::Mod*)::{lambda(geode::ModStateEvent*)#1}, std::__ndk1::allocator<geode::modifier::ModifyBase<geode::modifier::ModifyDerive<MySetGroupIDLayer, SetGroupIDLayer> >::setHookPriorityAfter(std::__ndk1::basic_string_view<char, std::__ndk1::char_traits<char> >, geode::Mod*)::{lambda(geode::ModStateEvent*)#1}>, void (geode::ModStateEvent*)>::target(std::type_info const&) const
PUBLIC 1be6c 0 std::__ndk1::__function::__func<geode::modifier::ModifyBase<geode::modifier::ModifyDerive<MySetGroupIDLayer, SetGroupIDLayer> >::setHookPriorityAfter(std::__ndk1::basic_string_view<char, std::__ndk1::char_traits<char> >, geode::Mod*)::{lambda(geode::ModStateEvent*)#1}, std::__ndk1::allocator<geode::modifier::ModifyBase<geode::modifier::ModifyDerive<MySetGroupIDLayer, SetGroupIDLayer> >::setHookPriorityAfter(std::__ndk1::basic_string_view<char, std::__ndk1::char_traits<char> >, geode::Mod*)::{lambda(geode::ModStateEvent*)#1}>, void (geode::ModStateEvent*)>::target_type() const
PUBLIC 1be78 0 geode::EventListener<geode::ModStateFilter>::getPool() const
PUBLIC 1be7c 0 geode::EventListener<geode::ModStateFilter>::handle(geode::Event*)
PUBLIC 1bfe0 0 geode::EventListener<geode::ModStateFilter>::~EventListener()
PUBLIC 1c03c 0 geode::EventListener<geode::ModStateFilter>::~EventListener()
PUBLIC 1c0a0 0 geode::cast::traverseTypeinfoFor(void*, geode::cast::ClassTypeinfoType const*, char const*)
PUBLIC 1c198 0 std::__ndk1::__variant_detail::__visitation::__base::__dispatcher<(unsigned long)0>::__dispatch[abi:ne190000]<std::__ndk1::__variant_detail::__dtor<std::__ndk1::__variant_detail::__traits<std::__ndk1::monostate, std::__ndk1::basic_string<char, std::__ndk1::char_traits<char>, std::__ndk1::allocator<char> > >, (std::__ndk1::__variant_detail::_Trait)1>::__destroy[abi:ne190000]()::{lambda(auto:1&)#1}, std::__ndk1::__variant_detail::__base<(std::__ndk1::__variant_detail::__traits<std::__ndk1::monostate, std::__ndk1::basic_string<char, std::__ndk1::char_traits<char>, std::__ndk1::allocator<char> > >)1, std::__ndk1::__variant_detail::__traits, std::__ndk1::allocator<char> >&>(std::__ndk1::__variant_detail::__dtor<std::__ndk1::__variant_detail::__traits<std::__ndk1::monostate, std::__ndk1::basic_string<char, std::__ndk1::char_traits<char>, std::__ndk1::allocator<char> > >, (std::__ndk1::__variant_detail::_Trait)1>, std::__ndk1::__variant_detail::__base<(std::__ndk1::__variant_detail::__traits<std::__ndk1::monostate, std::__ndk1::basic_string<char, std::__ndk1::char_traits<char>, std::__ndk1::allocator<char> > >)1, std::__ndk1::__variant_detail::__traits, std::__ndk1::allocator<char> >&)
PUBLIC 1c19c 0 std::__ndk1::__variant_detail::__visitation::__base::__dispatcher<(unsigned long)1>::__dispatch[abi:ne190000]<std::__ndk1::__variant_detail::__dtor<std::__ndk1::__variant_detail::__traits<std::__ndk1::monostate, std::__ndk1::basic_string<char, std::__ndk1::char_traits<char>, std::__ndk1::allocator<char> > >, (std::__ndk1::__variant_detail::_Trait)1>::__destroy[abi:ne190000]()::{lambda(auto:1&)#1}, std::__ndk1::__variant_detail::__base<(std::__ndk1::__variant_detail::__traits<std::__ndk1::monostate, std::__ndk1::basic_string<char, std::__ndk1::char_traits<char>, std::__ndk1::allocator<char> > >)1, std::__ndk1::__variant_detail::__traits, std::__ndk1::allocator<char> >&>(std::__ndk1::__variant_detail::__dtor<std::__ndk1::__variant_detail::__traits<std::__ndk1::monostate, std::__ndk1::basic_string<char, std::__ndk1::char_traits<char>, std::__ndk1::allocator<char> > >, (std::__ndk1::__variant_detail::_Trait)1>, std::__ndk1::__variant_detail::__base<(std::__ndk1::__variant_detail::__traits<std::__ndk1::monostate, std::__ndk1::basic_string<char, std::__ndk1::char_traits<char>, std::__ndk1::allocator<char> > >)1, std::__ndk1::__variant_detail::__traits, std::__ndk1::allocator<char> >&)
PUBLIC 1c1b0 0 std::__ndk1::vector<std::__ndk1::basic_string<char, std::__ndk1::char_traits<char>, std::__ndk1::allocator<char> >, std::__ndk1::allocator<std::__ndk1::basic_string<char, std::__ndk1::char_traits<char>, std::__ndk1::allocator<char> > > >::__push_back_slow_path<std::__ndk1::basic_string<char, std::__ndk1::char_traits<char>, std::__ndk1::allocator<char> > const&>(std::__ndk1::basic_string<char, std::__ndk1::char_traits<char>, std::__ndk1::allocator<char> > const&)
PUBLIC 1c35c 0 std::__ndk1::__split_buffer<std::__ndk1::basic_string<char, std::__ndk1::char_traits<char>, std::__ndk1::allocator<char> >, std::__ndk1::allocator<std::__ndk1::basic_string<char, std::__ndk1::char_traits<char>, std::__ndk1::allocator<char> > >&>::~__split_buffer()
PUBLIC 1c3c4 0 std::__ndk1::vector<std::__ndk1::basic_string<char, std::__ndk1::char_traits<char>, std::__ndk1::allocator<char> >, std::__ndk1::allocator<std::__ndk1::basic_string<char, std::__ndk1::char_traits<char>, std::__ndk1::allocator<char> > > >::__throw_length_error[abi:ne190000]() const
PUBLIC 1c3d8 0 std::__ndk1::__variant_detail::__visitation::__base::__dispatcher<(unsigned long)0>::__dispatch[abi:ne190000]<std::__ndk1::__variant_detail::__dtor<std::__ndk1::__variant_detail::__traits<geode::Hook*, std::__ndk1::basic_string<char, std::__ndk1::char_traits<char>, std::__ndk1::allocator<char> > >, (std::__ndk1::__variant_detail::_Trait)1>::__destroy[abi:ne190000]()::{lambda(auto:1&)#1}, std::__ndk1::__variant_detail::__base<(std::__ndk1::__variant_detail::__traits<geode::Hook*, std::__ndk1::basic_string<char, std::__ndk1::char_traits<char>, std::__ndk1::allocator<char> > >)1, geode::Hook, std::__ndk1::allocator<char> >&>(std::__ndk1::__variant_detail::__dtor<std::__ndk1::__variant_detail::__traits<geode::Hook*, std::__ndk1::basic_string<char, std::__ndk1::char_traits<char>, std::__ndk1::allocator<char> > >, (std::__ndk1::__variant_detail::_Trait)1>, std::__ndk1::__variant_detail::__base<(std::__ndk1::__variant_detail::__traits<geode::Hook*, std::__ndk1::basic_string<char, std::__ndk1::char_traits<char>, std::__ndk1::allocator<char> > >)1, geode::Hook, std::__ndk1::allocator<char> >&)
PUBLIC 1c3dc 0 std::__ndk1::__variant_detail::__visitation::__base::__dispatcher<(unsigned long)1>::__dispatch[abi:ne190000]<std::__ndk1::__variant_detail::__dtor<std::__ndk1::__variant_detail::__traits<geode::Hook*, std::__ndk1::basic_string<char, std::__ndk1::char_traits<char>, std::__ndk1::allocator<char> > >, (std::__ndk1::__variant_detail::_Trait)1>::__destroy[abi:ne190000]()::{lambda(auto:1&)#1}, std::__ndk1::__variant_detail::__base<(std::__ndk1::__variant_detail::__traits<geode::Hook*, std::__ndk1::basic_string<char, std::__ndk1::char_traits<char>, std::__ndk1::allocator<char> > >)1, geode::Hook, std::__ndk1::allocator<char> >&>(std::__ndk1::__variant_detail::__dtor<std::__ndk1::__variant_detail::__traits<geode::Hook*, std::__ndk1::basic_string<char, std::__ndk1::char_traits<char>, std::__ndk1::allocator<char> > >, (std::__ndk1::__variant_detail::_Trait)1>, std::__ndk1::__variant_detail::__base<(std::__ndk1::__variant_detail::__traits<geode::Hook*, std::__ndk1::basic_string<char, std::__ndk1::char_traits<char>, std::__ndk1::allocator<char> > >)1, geode::Hook, std::__ndk1::allocator<char> >&)
PUBLIC 1c3f0 0 std::__ndk1::__tree<std::__ndk1::__value_type<std::__ndk1::basic_string<char, std::__ndk1::char_traits<char>, std::__ndk1::allocator<char> >, std::__ndk1::shared_ptr<geode::Hook> >, std::__ndk1::__map_value_compare<std::__ndk1::basic_string<char, std::__ndk1::char_traits<char>, std::__ndk1::allocator<char> >, std::__ndk1::__value_type<std::__ndk1::basic_string<char, std::__ndk1::char_traits<char>, std::__ndk1::allocator<char> >, std::__ndk1::shared_ptr<geode::Hook> >, std::__ndk1::less<std::__ndk1::basic_string<char, std::__ndk1::char_traits<char>, std::__ndk1::allocator<char> > >, true>, std::__ndk1::allocator<std::__ndk1::__value_type<std::__ndk1::basic_string<char, std::__ndk1::char_traits<char>, std::__ndk1::allocator<char> >, std::__ndk1::shared_ptr<geode::Hook> > > >::erase(std::__ndk1::__tree_const_iterator<std::__ndk1::__value_type<std::__ndk1::basic_string<char, std::__ndk1::char_traits<char>, std::__ndk1::allocator<char> >, std::__ndk1::shared_ptr<geode::Hook> >, std::__ndk1::__tree_node<std::__ndk1::__value_type<std::__ndk1::basic_string<char, std::__ndk1::char_traits<char>, std::__ndk1::allocator<char> >, std::__ndk1::shared_ptr<geode::Hook> >, void*>*, long>)
PUBLIC 1c4b4 0 std::__ndk1::__tree_remove[abi:ne190000]<std::__ndk1::__tree_node_base<void*>*>(std::__ndk1::__tree_node_base<void*>*, std::__ndk1::__tree_node_base<void*>*)
PUBLIC 1c87c 0 std::__ndk1::__tree<std::__ndk1::__value_type<std::__ndk1::basic_string<char, std::__ndk1::char_traits<char>, std::__ndk1::allocator<char> >, std::__ndk1::shared_ptr<geode::Hook> >, std::__ndk1::__map_value_compare<std::__ndk1::basic_string<char, std::__ndk1::char_traits<char>, std::__ndk1::allocator<char> >, std::__ndk1::__value_type<std::__ndk1::basic_string<char, std::__ndk1::char_traits<char>, std::__ndk1::allocator<char> >, std::__ndk1::shared_ptr<geode::Hook> >, std::__ndk1::less<std::__ndk1::basic_string<char, std::__ndk1::char_traits<char>, std::__ndk1::allocator<char> > >, true>, std::__ndk1::allocator<std::__ndk1::__value_type<std::__ndk1::basic_string<char, std::__ndk1::char_traits<char>, std::__ndk1::allocator<char> >, std::__ndk1::shared_ptr<geode::Hook> > > >::destroy(std::__ndk1::__tree_node<std::__ndk1::__value_type<std::__ndk1::basic_string<char, std::__ndk1::char_traits<char>, std::__ndk1::allocator<char> >, std::__ndk1::shared_ptr<geode::Hook> >, void*>*)
PUBLIC 1c900 0 geode::modifier::AsStaticFunction_init<MySetGroupIDLayer, bool (MySetGroupIDLayer::*)(GameObject*, cocos2d::CCArray*)>::Impl<bool (MySetGroupIDLayer::*)(GameObject*, cocos2d::CCArray*)>::function(MySetGroupIDLayer*, GameObject*, cocos2d::CCArray*)
PUBLIC 1cc88 0 std::__ndk1::shared_ptr<tulip::hook::CallingConvention>::~shared_ptr[abi:ne190000]()
PUBLIC 1ccd8 0 tulip::hook::HandlerMetadata::~HandlerMetadata()
PUBLIC 1cd3c 0 MySetGroupIDLayer::onAddGroup2(cocos2d::CCObject*)
PUBLIC 1cd60 0 MySetGroupIDLayer::onAddGroupParent2(cocos2d::CCObject*)
PUBLIC 1cd84 0 MySetGroupIDLayer::checkNamedIDs(float)
PUBLIC 1d3a8 0 MySetGroupIDLayer::regenerateGroupView()
PUBLIC 1f0e4 0 geode::modifier::FieldIntermediate<MySetGroupIDLayer, SetGroupIDLayer>::self()
PUBLIC 1f6d0 0 geode::modifier::FieldIntermediate<MySetGroupIDLayer, SetGroupIDLayer>::fieldDestructor(void*)
PUBLIC 1f754 0 std::__ndk1::vector<void*, std::__ndk1::allocator<void*> >::__throw_length_error[abi:ne190000]() const
PUBLIC 1f768 0 std::__ndk1::vector<std::__ndk1::function<void (void*)>, std::__ndk1::allocator<std::__ndk1::function<void (void*)> > >::__throw_length_error[abi:ne190000]() const
PUBLIC 1f77c 0 std::__ndk1::vector<void*, std::__ndk1::allocator<void*> >::__throw_out_of_range[abi:ne190000]() const
PUBLIC 1f788 0 std::__ndk1::vector<std::__ndk1::function<void (void*)>, std::__ndk1::allocator<std::__ndk1::function<void (void*)> > >::__throw_out_of_range[abi:ne190000]() const
PUBLIC 1f794 0 std::__ndk1::__function::__base<void (void*)>::~__base()
PUBLIC 1f798 0 std::__ndk1::__function::__func<void (*)(void*), std::__ndk1::allocator<void (*)(void*)>, void (void*)>::~__func()
PUBLIC 1f79c 0 std::__ndk1::__function::__func<void (*)(void*), std::__ndk1::allocator<void (*)(void*)>, void (void*)>::__clone() const
PUBLIC 1f7d4 0 std::__ndk1::__function::__func<void (*)(void*), std::__ndk1::allocator<void (*)(void*)>, void (void*)>::__clone(std::__ndk1::__function::__base<void (void*)>*) const
PUBLIC 1f7ec 0 std::__ndk1::__function::__func<void (*)(void*), std::__ndk1::allocator<void (*)(void*)>, void (void*)>::destroy()
PUBLIC 1f7f0 0 std::__ndk1::__function::__func<void (*)(void*), std::__ndk1::allocator<void (*)(void*)>, void (void*)>::destroy_deallocate()
PUBLIC 1f7f4 0 std::__ndk1::__function::__func<void (*)(void*), std::__ndk1::allocator<void (*)(void*)>, void (void*)>::operator()(void*&&)
PUBLIC 1f804 0 std::__ndk1::__function::__func<void (*)(void*), std::__ndk1::allocator<void (*)(void*)>, void (void*)>::target(std::type_info const&) const
PUBLIC 1f820 0 std::__ndk1::__function::__func<void (*)(void*), std::__ndk1::allocator<void (*)(void*)>, void (void*)>::target_type() const
PUBLIC 1f82c 0 std::__ndk1::__hash_table<std::__ndk1::__hash_value_type<std::__ndk1::basic_string<char, std::__ndk1::char_traits<char>, std::__ndk1::allocator<char> >, short>, std::__ndk1::__unordered_map_hasher<std::__ndk1::basic_string<char, std::__ndk1::char_traits<char>, std::__ndk1::allocator<char> >, std::__ndk1::__hash_value_type<std::__ndk1::basic_string<char, std::__ndk1::char_traits<char>, std::__ndk1::allocator<char> >, short>, std::__ndk1::hash<std::__ndk1::basic_string<char, std::__ndk1::char_traits<char>, std::__ndk1::allocator<char> > >, std::__ndk1::equal_to<std::__ndk1::basic_string<char, std::__ndk1::char_traits<char>, std::__ndk1::allocator<char> > >, true>, std::__ndk1::__unordered_map_equal<std::__ndk1::basic_string<char, std::__ndk1::char_traits<char>, std::__ndk1::allocator<char> >, std::__ndk1::__hash_value_type<std::__ndk1::basic_string<char, std::__ndk1::char_traits<char>, std::__ndk1::allocator<char> >, short>, std::__ndk1::equal_to<std::__ndk1::basic_string<char, std::__ndk1::char_traits<char>, std::__ndk1::allocator<char> > >, std::__ndk1::hash<std::__ndk1::basic_string<char, std::__ndk1::char_traits<char>, std::__ndk1::allocator<char> > >, true>, std::__ndk1::allocator<std::__ndk1::__hash_value_type<std::__ndk1::basic_string<char, std::__ndk1::char_traits<char>, std::__ndk1::allocator<char> >, short> > >::__node_insert_multi(std::__ndk1::__hash_node<std::__ndk1::__hash_value_type<std::__ndk1::basic_string<char, std::__ndk1::char_traits<char>, std::__ndk1::allocator<char> >, short>, void*>*)
PUBLIC 1ffc4 0 std::__ndk1::basic_string<char, std::__ndk1::char_traits<char>, std::__ndk1::allocator<char> >::__assign_no_alias<true>(char const*, unsigned long)
PUBLIC 20070 0 std::__ndk1::basic_string<char, std::__ndk1::char_traits<char>, std::__ndk1::allocator<char> >::__assign_no_alias<false>(char const*, unsigned long)
PUBLIC 201ac 0 std::__ndk1::unique_ptr<std::__ndk1::__hash_node<std::__ndk1::__hash_value_type<std::__ndk1::basic_string<char, std::__ndk1::char_traits<char>, std::__ndk1::allocator<char> >, short>, void*>, std::__ndk1::__hash_node_destructor<std::__ndk1::allocator<std::__ndk1::__hash_node<std::__ndk1::__hash_value_type<std::__ndk1::basic_string<char, std::__ndk1::char_traits<char>, std::__ndk1::allocator<char> >, short>, void*> > > >::~unique_ptr[abi:ne190000]()
PUBLIC 201fc 0 MySetGroupIDLayer::parseObjGroups(GameObject*)
PUBLIC 20550 0 MySetGroupIDLayer::GroupData::~GroupData()
PUBLIC 20594 0 geode::cocos::CCArrayExt<GameObject*, GameObject>::~CCArrayExt()
PUBLIC 205b0 0 MySetGroupIDLayer::onRemoveFromGroup2(cocos2d::CCObject*)
PUBLIC 20608 0 std::__ndk1::vector<MySetGroupIDLayer::GroupData, std::__ndk1::allocator<MySetGroupIDLayer::GroupData> >::~vector[abi:ne190000]()
PUBLIC 206a4 0 std::__ndk1::vector<MySetGroupIDLayer::GroupData, std::__ndk1::allocator<MySetGroupIDLayer::GroupData> >::__push_back_slow_path<MySetGroupIDLayer::GroupData>(MySetGroupIDLayer::GroupData&&)
PUBLIC 2089c 0 std::__ndk1::vector<MySetGroupIDLayer::GroupData, std::__ndk1::allocator<MySetGroupIDLayer::GroupData> >::__throw_length_error[abi:ne190000]() const
PUBLIC 208b0 0 geode::cocos::CCArrayExt<cocos2d::CCInteger*, cocos2d::CCInteger>::~CCArrayExt()
PUBLIC 208cc 0 geode::cocos::CCDictionaryExt<int, cocos2d::CCArray*, cocos2d::CCArray>::~CCDictionaryExt()
PUBLIC 208e8 0 std::__ndk1::vector<int, std::__ndk1::allocator<int> >::__throw_length_error[abi:ne190000]() const
PUBLIC 208fc 0 cocos2d::CCCopying::copyWithZone(cocos2d::CCZone*)
PUBLIC 20904 0 LimitedCCMenu::~LimitedCCMenu()
PUBLIC 20928 0 LimitedCCMenu::ccTouchBegan(cocos2d::CCTouch*, cocos2d::CCEvent*)
PUBLIC 20a94 0 cocos2d::CCMenu::setOpacityModifyRGB(bool)
PUBLIC 20a98 0 cocos2d::CCMenu::isOpacityModifyRGB()
PUBLIC 20aa0 0 cocos2d::CCMenu::isEnabled()
PUBLIC 20aa8 0 cocos2d::CCMenu::setEnabled(bool)
PUBLIC 20ab0 0 {virtual override thunk({offset(-320)}, LimitedCCMenu::~LimitedCCMenu())}
PUBLIC 20ab8 0 {virtual override thunk({offset(-320)}, LimitedCCMenu::~LimitedCCMenu())}
PUBLIC 20ae0 0 {virtual override thunk({offset(-320)}, LimitedCCMenu::ccTouchBegan(cocos2d::CCTouch*, cocos2d::CCEvent*))}
PUBLIC 20ae8 0 cocos2d::CCKeyboardDelegate::keyUp(cocos2d::enumKeyCodes)
PUBLIC 20aec 0 cocos2d::CCMouseDelegate::rightKeyDown()
PUBLIC 20af0 0 cocos2d::CCMouseDelegate::rightKeyUp()
PUBLIC 20af4 0 cocos2d::CCMouseDelegate::scrollWheel(float, float)
PUBLIC 20af8 0 {virtual override thunk({offset(-408)}, cocos2d::CCMenu::setOpacityModifyRGB(bool))}
PUBLIC 20afc 0 {virtual override thunk({offset(-408)}, cocos2d::CCMenu::isOpacityModifyRGB())}
PUBLIC 20b04 0 std::__ndk1::__function::__base<void ()>::~__base()
PUBLIC 20b08 0 std::__ndk1::__function::__func<MySetGroupIDLayer::regenerateGroupView()::{lambda()#1}, std::__ndk1::allocator<MySetGroupIDLayer::regenerateGroupView()::{lambda()#1}>, void ()>::~__func()
PUBLIC 20b0c 0 std::__ndk1::__function::__func<MySetGroupIDLayer::regenerateGroupView()::{lambda()#1}, std::__ndk1::allocator<MySetGroupIDLayer::regenerateGroupView()::{lambda()#1}>, void ()>::__clone() const
PUBLIC 20b40 0 std::__ndk1::__function::__func<MySetGroupIDLayer::regenerateGroupView()::{lambda()#1}, std::__ndk1::allocator<MySetGroupIDLayer::regenerateGroupView()::{lambda()#1}>, void ()>::__clone(std::__ndk1::__function::__base<void ()>*) const
PUBLIC 20b54 0 std::__ndk1::__function::__func<MySetGroupIDLayer::regenerateGroupView()::{lambda()#1}, std::__ndk1::allocator<MySetGroupIDLayer::regenerateGroupView()::{lambda()#1}>, void ()>::destroy()
PUBLIC 20b58 0 std::__ndk1::__function::__func<MySetGroupIDLayer::regenerateGroupView()::{lambda()#1}, std::__ndk1::allocator<MySetGroupIDLayer::regenerateGroupView()::{lambda()#1}>, void ()>::destroy_deallocate()
PUBLIC 20b5c 0 std::__ndk1::__function::__func<MySetGroupIDLayer::regenerateGroupView()::{lambda()#1}, std::__ndk1::allocator<MySetGroupIDLayer::regenerateGroupView()::{lambda()#1}>, void ()>::operator()()
PUBLIC 20c0c 0 std::__ndk1::__function::__func<MySetGroupIDLayer::regenerateGroupView()::{lambda()#1}, std::__ndk1::allocator<MySetGroupIDLayer::regenerateGroupView()::{lambda()#1}>, void ()>::target(std::type_info const&) const
PUBLIC 20c28 0 std::__ndk1::__function::__func<MySetGroupIDLayer::regenerateGroupView()::{lambda()#1}, std::__ndk1::allocator<MySetGroupIDLayer::regenerateGroupView()::{lambda()#1}>, void ()>::target_type() const
PUBLIC 20c34 0 std::__ndk1::__tree<std::__ndk1::__value_type<int, int>, std::__ndk1::__map_value_compare<int, std::__ndk1::__value_type<int, int>, std::__ndk1::less<int>, true>, std::__ndk1::allocator<std::__ndk1::__value_type<int, int> > >::destroy(std::__ndk1::__tree_node<std::__ndk1::__value_type<int, int>, void*>*)
PUBLIC 20c78 0 std::__ndk1::__tree<std::__ndk1::__value_type<std::__ndk1::basic_string<char, std::__ndk1::char_traits<char>, std::__ndk1::allocator<char> >, std::__ndk1::shared_ptr<geode::Hook> >, std::__ndk1::__map_value_compare<std::__ndk1::basic_string<char, std::__ndk1::char_traits<char>, std::__ndk1::allocator<char> >, std::__ndk1::__value_type<std::__ndk1::basic_string<char, std::__ndk1::char_traits<char>, std::__ndk1::allocator<char> >, std::__ndk1::shared_ptr<geode::Hook> >, std::__ndk1::less<std::__ndk1::basic_string<char, std::__ndk1::char_traits<char>, std::__ndk1::allocator<char> > >, true>, std::__ndk1::allocator<std::__ndk1::__value_type<std::__ndk1::basic_string<char, std::__ndk1::char_traits<char>, std::__ndk1::allocator<char> >, std::__ndk1::shared_ptr<geode::Hook> > > >::__emplace_unique_key_args<std::__ndk1::basic_string<char, std::__ndk1::char_traits<char>, std::__ndk1::allocator<char> >, std::__ndk1::piecewise_construct_t const&, std::__ndk1::tuple<std::__ndk1::basic_string<char, std::__ndk1::char_traits<char>, std::__ndk1::allocator<char> >&&>, std::__ndk1::tuple<> >(std::__ndk1::basic_string<char, std::__ndk1::char_traits<char>, std::__ndk1::allocator<char> > const&, std::__ndk1::piecewise_construct_t const&, std::__ndk1::tuple<std::__ndk1::basic_string<char, std::__ndk1::char_traits<char>, std::__ndk1::allocator<char> >&&>, std::__ndk1::tuple<>)
PUBLIC 20de0 0 geode::modifier::ModifyDerive<hook487<(anonymous namespace)::hook487Parent>, CCScrollLayerExt>::apply()
PUBLIC 21230 0 geode::modifier::ModifyBase<geode::modifier::ModifyDerive<hook487<(anonymous namespace)::hook487Parent>, CCScrollLayerExt> >::apply()
PUBLIC 21234 0 geode::Hook::create<void (*)(hook487<(anonymous namespace)::hook487Parent>*, cocos2d::CCTouch*, cocos2d::CCEvent*)>(void*, void (*)(hook487<(anonymous namespace)::hook487Parent>*, cocos2d::CCTouch*, cocos2d::CCEvent*), std::__ndk1::basic_string<char, std::__ndk1::char_traits<char>, std::__ndk1::allocator<char> > const&, tulip::hook::TulipConvention, tulip::hook::HookMetadata const&)
PUBLIC 213f8 0 geode::modifier::AsStaticFunction_ccTouchMoved<hook487<(anonymous namespace)::hook487Parent>, void (hook487<(anonymous namespace)::hook487Parent>::*)(cocos2d::CCTouch*, cocos2d::CCEvent*)>::Impl<void (hook487<(anonymous namespace)::hook487Parent>::*)(cocos2d::CCTouch*, cocos2d::CCEvent*)>::function(hook487<(anonymous namespace)::hook487Parent>*, cocos2d::CCTouch*, cocos2d::CCEvent*)
PUBLIC 21498 0 geode::modifier::AsStaticFunction_ccTouchEnded<hook487<(anonymous namespace)::hook487Parent>, void (hook487<(anonymous namespace)::hook487Parent>::*)(cocos2d::CCTouch*, cocos2d::CCEvent*)>::Impl<void (hook487<(anonymous namespace)::hook487Parent>::*)(cocos2d::CCTouch*, cocos2d::CCEvent*)>::function(hook487<(anonymous namespace)::hook487Parent>*, cocos2d::CCTouch*, cocos2d::CCEvent*)
PUBLIC 21508 0 geode::addresser::Addresser::addressOfVirtual<void, CCScrollLayerExt, cocos2d::CCTouch*, cocos2d::CCEvent*>(void (CCScrollLayerExt::*)(cocos2d::CCTouch*, cocos2d::CCEvent*))
PUBLIC 215d4 0 CCScrollLayerExt::CCScrollLayerExt(geode::ZeroConstructorType)
PUBLIC 2166c 0 MySetGroupIDLayer::get()
PUBLIC 2173c 0 MySetGroupIDLayer::setButtonsEnabled(bool)
PUBLIC 21820 0 geode::cocos::CCArrayExt<CCMenuItemSpriteExtra*, CCMenuItemSpriteExtra>::~CCArrayExt()
PUBLIC 2183c 0 geode::getMod()
PUBLIC m 21878 0 geodeImplicitEntry
PUBLIC 218b4 0 std::__ndk1::unordered_map<void*, bool, std::__ndk1::hash<void*>, std::__ndk1::equal_to<void*>, std::__ndk1::allocator<std::__ndk1::pair<void* const, bool> > >::~unordered_map[abi:ne190000]()
PUBLIC 21900 0 wrapFunction(unsigned long, tulip::hook::WrapperMetadata const&)
PUBLIC 21a34 0 geode::impl::ResultData<void*, std::__ndk1::basic_string<char, std::__ndk1::char_traits<char>, std::__ndk1::allocator<char> > >::unwrapErr() &
PUBLIC 21aac 0 geode::impl::ResultData<void*, std::__ndk1::basic_string<char, std::__ndk1::char_traits<char>, std::__ndk1::allocator<char> > >::~ResultData()
PUBLIC 21b20 0 tulip::hook::WrapperMetadata::~WrapperMetadata()
PUBLIC 21b84 0 cocos2d::CCObject::~CCObject()
PUBLIC 21ba8 0 cocos2d::CCNode::~CCNode()
PUBLIC 21bcc 0 {virtual override thunk({offset(-320)}, cocos2d::CCLayer::~CCLayer())}
PUBLIC 21bd4 0 cocos2d::CCLayer::~CCLayer()
PUBLIC 21bf8 0 {virtual override thunk({offset(-320)}, cocos2d::CCLayer::~CCLayer())}
PUBLIC 21c20 0 cocos2d::CCLayerRGBA::CCLayerRGBA()
PUBLIC 21e98 0 cocos2d::CCLayerRGBA::~CCLayerRGBA()
PUBLIC 22170 0 {virtual override thunk({offset(-320)}, cocos2d::CCLayerRGBA::~CCLayerRGBA())}
PUBLIC 22178 0 cocos2d::CCLayerRGBA::~CCLayerRGBA()
PUBLIC 2219c 0 {virtual override thunk({offset(-320)}, cocos2d::CCLayerRGBA::~CCLayerRGBA())}
PUBLIC 221c4 0 ButtonSprite::create(char const*, int, bool, char const*, char const*, float, float)
PUBLIC 221e4 0 CCMenuItemSpriteExtra::create(cocos2d::CCNode*, cocos2d::CCObject*, void (cocos2d::CCObject::*)(cocos2d::CCObject*))
PUBLIC 221f8 0 LevelEditorLayer::get()
PUBLIC 22210 0 cocos2d::CCObject::update(float)
PUBLIC 22214 0 cocos2d::CCLayerRGBA::setOpacityModifyRGB(bool)
PUBLIC 22218 0 cocos2d::CCLayerRGBA::isOpacityModifyRGB()
PUBLIC 22220 0 {virtual override thunk({offset(-408)}, cocos2d::CCLayerRGBA::setOpacityModifyRGB(bool))}
PUBLIC 22224 0 {virtual override thunk({offset(-408)}, cocos2d::CCLayerRGBA::isOpacityModifyRGB())}
PUBLIC 2222c 0 cocos2d::CCLayer::~CCLayer()
PUBLIC 224f4 0 cocos2d::CCNode::~CCNode()
PUBLIC 2276c 0 cocos2d::CCObject::~CCObject()
PUBLIC 22c38 0 _ZN5geode15UnwrapExceptionC2IRPvQsr4implE18IsStringStreamableIT_EEENS_4impl5OkTagEOS4_
PUBLIC 22d8c 0 std::__ndk1::__variant_detail::__visitation::__base::__dispatcher<(unsigned long)0>::__dispatch[abi:ne190000]<std::__ndk1::__variant_detail::__dtor<std::__ndk1::__variant_detail::__traits<void*, std::__ndk1::basic_string<char, std::__ndk1::char_traits<char>, std::__ndk1::allocator<char> > >, (std::__ndk1::__variant_detail::_Trait)1>::__destroy[abi:ne190000]()::{lambda(auto:1&)#1}, std::__ndk1::__variant_detail::__base<(std::__ndk1::__variant_detail::__traits<void*, std::__ndk1::basic_string<char, std::__ndk1::char_traits<char>, std::__ndk1::allocator<char> > >)1, std::__ndk1::__variant_detail::__traits, std::__ndk1::allocator<char> >&>(std::__ndk1::__variant_detail::__dtor<std::__ndk1::__variant_detail::__traits<void*, std::__ndk1::basic_string<char, std::__ndk1::char_traits<char>, std::__ndk1::allocator<char> > >, (std::__ndk1::__variant_detail::_Trait)1>, std::__ndk1::__variant_detail::__base<(std::__ndk1::__variant_detail::__traits<void*, std::__ndk1::basic_string<char, std::__ndk1::char_traits<char>, std::__ndk1::allocator<char> > >)1, std::__ndk1::__variant_detail::__traits, std::__ndk1::allocator<char> >&)
PUBLIC 22d90 0 std::__ndk1::__variant_detail::__visitation::__base::__dispatcher<(unsigned long)1>::__dispatch[abi:ne190000]<std::__ndk1::__variant_detail::__dtor<std::__ndk1::__variant_detail::__traits<void*, std::__ndk1::basic_string<char, std::__ndk1::char_traits<char>, std::__ndk1::allocator<char> > >, (std::__ndk1::__variant_detail::_Trait)1>::__destroy[abi:ne190000]()::{lambda(auto:1&)#1}, std::__ndk1::__variant_detail::__base<(std::__ndk1::__variant_detail::__traits<void*, std::__ndk1::basic_string<char, std::__ndk1::char_traits<char>, std::__ndk1::allocator<char> > >)1, std::__ndk1::__variant_detail::__traits, std::__ndk1::allocator<char> >&>(std::__ndk1::__variant_detail::__dtor<std::__ndk1::__variant_detail::__traits<void*, std::__ndk1::basic_string<char, std::__ndk1::char_traits<char>, std::__ndk1::allocator<char> > >, (std::__ndk1::__variant_detail::_Trait)1>, std::__ndk1::__variant_detail::__base<(std::__ndk1::__variant_detail::__traits<void*, std::__ndk1::basic_string<char, std::__ndk1::char_traits<char>, std::__ndk1::allocator<char> > >)1, std::__ndk1::__variant_detail::__traits, std::__ndk1::allocator<char> >&)
PUBLIC 22da4 0 std::__ndk1::__hash_table<std::__ndk1::__hash_value_type<void*, bool>, std::__ndk1::__unordered_map_hasher<void*, std::__ndk1::__hash_value_type<void*, bool>, std::__ndk1::hash<void*>, std::__ndk1::equal_to<void*>, true>, std::__ndk1::__unordered_map_equal<void*, std::__ndk1::__hash_value_type<void*, bool>, std::__ndk1::equal_to<void*>, std::__ndk1::hash<void*>, true>, std::__ndk1::allocator<std::__ndk1::__hash_value_type<void*, bool> > >::__emplace_unique_key_args<void*, std::__ndk1::piecewise_construct_t const&, std::__ndk1::tuple<void* const&>, std::__ndk1::tuple<> >(void* const&, std::__ndk1::piecewise_construct_t const&, std::__ndk1::tuple<void* const&>, std::__ndk1::tuple<>)
PUBLIC 23284 0 __udivti3
PUBLIC 23290 0 __udivmodti4
PUBLIC m 234dc 0 __eqtf2
PUBLIC 2357c 0 __unordtf2
PUBLIC 235b4 0 fmt::v11::detail::write_loc(fmt::v11::basic_appender<char>, fmt::v11::loc_value, fmt::v11::format_specs const&, fmt::v11::detail::locale_ref)
PUBLIC 23848 0 fmt::v11::format_facet<std::__ndk1::locale>::~format_facet()
PUBLIC 238c4 0 fmt::v11::report_error(char const*)
PUBLIC 23914 0 fmt::v11::format_error::runtime_error(char const*)
PUBLIC 23940 0 fmt::v11::format_facet<std::__ndk1::locale>::do_put(fmt::v11::basic_appender<char>, fmt::v11::loc_value, fmt::v11::format_specs const&) const
PUBLIC 24100 0 fmt::v11::detail::loc_writer<char>::~loc_writer()
PUBLIC 24164 0 fmt::v11::vformat(fmt::v11::basic_string_view<char>, fmt::v11::basic_format_args<fmt::v11::context>)
PUBLIC 242b0 0 fmt::v11::detail::vformat_to<char>(fmt::v11::detail::buffer<char>&, fmt::v11::basic_string_view<char>, fmt::v11::detail::vformat_args<char>::type, fmt::v11::detail::locale_ref)
PUBLIC 24820 0 fmt::v11::detail::is_printable(unsigned int)
PUBLIC 24a48 0 fmt::v11::detail::dragonbox::to_decimal<float>(float)
PUBLIC 24d24 0 fmt::v11::detail::dragonbox::to_decimal<double>(double)
PUBLIC 25260 0 fmt::v11::basic_memory_buffer<char, (unsigned long)500, std::__ndk1::allocator<char> >::grow(fmt::v11::detail::buffer<char>&, unsigned long)
PUBLIC 252d8 0 fmt::v11::format_facet<std::__ndk1::locale>::~format_facet()
PUBLIC 25364 0 fmt::v11::format_error::~format_error()
PUBLIC 25388 0 fmt::v11::detail::copy_noinline<char, char const*, fmt::v11::basic_appender<char> >(char const*, char const*, fmt::v11::basic_appender<char>)
PUBLIC 254d8 0 fmt::v11::detail::default_arg_formatter<char>::operator()<bool>(bool)
PUBLIC 25540 0 fmt::v11::detail::default_arg_formatter<char>::operator()<char>(char)
PUBLIC 255d0 0 fmt::v11::detail::default_arg_formatter<char>::operator()<float>(float)
PUBLIC 256bc 0 fmt::v11::detail::default_arg_formatter<char>::operator()<double>(double)
PUBLIC 257a8 0 fmt::v11::detail::default_arg_formatter<char>::operator()<char const*>(char const*)
PUBLIC 257f0 0 fmt::v11::detail::default_arg_formatter<char>::operator()<void const*>(void const*)
PUBLIC 25888 0 _ZN3fmt3v116detail5writeIcNS0_14basic_appenderIcEEiTnNSt6__ndk19enable_ifIXaaaasr11is_integralIT1_EE5valuentsr3std7is_sameIS7_bEE5valuentsr3std7is_sameIS7_T_EE5valueEiE4typeELi0EEET0_SB_S7_
PUBLIC 25ae8 0 fmt::v11::detail::copy_noinline<char, char*, fmt::v11::basic_appender<char> >(char*, char*, fmt::v11::basic_appender<char>)
PUBLIC 25c38 0 _ZN3fmt3v116detail5writeIcNS0_14basic_appenderIcEEjTnNSt6__ndk19enable_ifIXaaaasr11is_integralIT1_EE5valuentsr3std7is_sameIS7_bEE5valuentsr3std7is_sameIS7_T_EE5valueEiE4typeELi0EEET0_SB_S7_
PUBLIC 25e18 0 _ZN3fmt3v116detail5writeIcNS0_14basic_appenderIcEExTnNSt6__ndk19enable_ifIXaaaasr11is_integralIT1_EE5valuentsr3std7is_sameIS7_bEE5valuentsr3std7is_sameIS7_T_EE5valueEiE4typeELi0EEET0_SB_S7_
PUBLIC 2609c 0 _ZN3fmt3v116detail5writeIcNS0_14basic_appenderIcEEyTnNSt6__ndk19enable_ifIXaaaasr11is_integralIT1_EE5valuentsr3std7is_sameIS7_bEE5valuentsr3std7is_sameIS7_T_EE5valueEiE4typeELi0EEET0_SB_S7_
PUBLIC 262a4 0 _ZN3fmt3v116detail5writeIcNS0_14basic_appenderIcEEnTnNSt6__ndk19enable_ifIXaaaasr11is_integralIT1_EE5valuentsr3std7is_sameIS7_bEE5valuentsr3std7is_sameIS7_T_EE5valueEiE4typeELi0EEET0_SB_S7_
PUBLIC 26604 0 _ZN3fmt3v116detail5writeIcNS0_14basic_appenderIcEEoTnNSt6__ndk19enable_ifIXaaaasr11is_integralIT1_EE5valuentsr3std7is_sameIS7_bEE5valuentsr3std7is_sameIS7_T_EE5valueEiE4typeELi0EEET0_SB_S7_
PUBLIC 26918 0 _ZN3fmt3v116detail5writeIcNS0_14basic_appenderIcEEbTnNSt6__ndk19enable_ifIXsr3std7is_sameIT1_bEE5valueEiE4typeELi0EEET0_SA_S7_RKNS0_12format_specsENS1_10locale_refE
PUBLIC 26ba8 0 fmt::v11::detail::write_int_noinline<char, fmt::v11::basic_appender<char>, unsigned int>(fmt::v11::basic_appender<char>, fmt::v11::detail::write_int_arg<unsigned int>, fmt::v11::format_specs const&, fmt::v11::detail::locale_ref)
PUBLIC 27970 0 fmt::v11::detail::fill<char, fmt::v11::basic_appender<char> >(fmt::v11::basic_appender<char>, unsigned long, fmt::v11::detail::fill_t const&)
PUBLIC 27b40 0 fmt::v11::detail::write_padded<char, (fmt::v11::align::type)1, fmt::v11::basic_appender<char>, fmt::v11::detail::write_char<char, fmt::v11::basic_appender<char> >(fmt::v11::basic_appender<char>, char, fmt::v11::format_specs const&)::{lambda(fmt::v11::basic_appender<char>&)#1}>(fmt::v11::basic_appender<char>, fmt::v11::format_specs const&, unsigned long, unsigned long, fmt::v11::detail::write_char<char, fmt::v11::basic_appender<char> >(fmt::v11::basic_appender<char>, char, fmt::v11::format_specs const&)::{lambda(fmt::v11::basic_appender<char>&)#1})
PUBLIC 27d7c 0 fmt::v11::detail::write_escaped_cp<fmt::v11::basic_appender<char>, char>(fmt::v11::basic_appender<char>, fmt::v11::detail::find_escape_result<char> const&)
PUBLIC 28088 0 fmt::v11::detail::write_codepoint<(unsigned long)2, char, fmt::v11::basic_appender<char> >(fmt::v11::basic_appender<char>, char, unsigned int)
PUBLIC 28200 0 fmt::v11::detail::write_codepoint<(unsigned long)8, char, fmt::v11::basic_appender<char> >(fmt::v11::basic_appender<char>, char, unsigned int)
PUBLIC 28378 0 fmt::v11::detail::write_padded<char, (fmt::v11::align::type)1, fmt::v11::basic_appender<char>, fmt::v11::detail::write_nonfinite<char, fmt::v11::basic_appender<char> >(fmt::v11::basic_appender<char>, bool, fmt::v11::format_specs, fmt::v11::sign::type)::{lambda(fmt::v11::basic_appender<char>&)#1}>(fmt::v11::basic_appender<char>, fmt::v11::format_specs const&, unsigned long, unsigned long, fmt::v11::detail::write_nonfinite<char, fmt::v11::basic_appender<char> >(fmt::v11::basic_appender<char>, bool, fmt::v11::format_specs, fmt::v11::sign::type)::{lambda(fmt::v11::basic_appender<char>&)#1})
PUBLIC 285b8 0 fmt::v11::detail::do_write_float<char, fmt::v11::basic_appender<char>, fmt::v11::detail::dragonbox::decimal_fp<float>, fmt::v11::detail::digit_grouping<char> >(fmt::v11::basic_appender<char>, fmt::v11::detail::dragonbox::decimal_fp<float> const&, fmt::v11::format_specs const&, fmt::v11::detail::float_specs, fmt::v11::detail::locale_ref)
PUBLIC 2922c 0 fmt::v11::detail::do_write_float<char, fmt::v11::basic_appender<char>, fmt::v11::detail::dragonbox::decimal_fp<float>, fmt::v11::detail::digit_grouping<char> >(fmt::v11::basic_appender<char>, fmt::v11::detail::dragonbox::decimal_fp<float> const&, fmt::v11::format_specs const&, fmt::v11::detail::float_specs, fmt::v11::detail::locale_ref)::{lambda(fmt::v11::basic_appender<char>(fmt::v11::basic_appender<char>))#1}::operator() const
PUBLIC 29380 0 fmt::v11::detail::digit_grouping<char>::digit_grouping(fmt::v11::detail::locale_ref, bool)
PUBLIC 295e8 0 fmt::v11::detail::digit_grouping<char>::~digit_grouping()
PUBLIC 2962c 0 fmt::v11::detail::write_exponent<char, fmt::v11::basic_appender<char> >(int, fmt::v11::basic_appender<char>)
PUBLIC 297fc 0 _ZN3fmt3v116detail17write_significandIcjTnNSt6__ndk19enable_ifIXsr3std11is_integralIT0_EE5valueEiE4typeELi0EEEPT_S9_S5_iiS8_
PUBLIC 29978 0 fmt::v11::detail::digit_grouping<char>::apply<fmt::v11::basic_appender<char>, char>(fmt::v11::basic_appender<char>, fmt::v11::basic_string_view<char>) const
PUBLIC 29d30 0 fmt::v11::basic_memory_buffer<int, (unsigned long)500, std::__ndk1::allocator<int> >::grow(fmt::v11::detail::buffer<int>&, unsigned long)
PUBLIC 29dd0 0 fmt::v11::detail::do_write_float<char, fmt::v11::basic_appender<char>, fmt::v11::detail::dragonbox::decimal_fp<double>, fmt::v11::detail::digit_grouping<char> >(fmt::v11::basic_appender<char>, fmt::v11::detail::dragonbox::decimal_fp<double> const&, fmt::v11::format_specs const&, fmt::v11::detail::float_specs, fmt::v11::detail::locale_ref)
PUBLIC 2aa80 0 fmt::v11::detail::do_write_float<char, fmt::v11::basic_appender<char>, fmt::v11::detail::dragonbox::decimal_fp<double>, fmt::v11::detail::digit_grouping<char> >(fmt::v11::basic_appender<char>, fmt::v11::detail::dragonbox::decimal_fp<double> const&, fmt::v11::format_specs const&, fmt::v11::detail::float_specs, fmt::v11::detail::locale_ref)::{lambda(fmt::v11::basic_appender<char>(fmt::v11::basic_appender<char>))#1}::operator() const
PUBLIC 2abd8 0 _ZN3fmt3v116detail17write_significandIcmTnNSt6__ndk19enable_ifIXsr3std11is_integralIT0_EE5valueEiE4typeELi0EEEPT_S9_S5_iiS8_
PUBLIC 2ad68 0 fmt::v11::detail::write_float<char, fmt::v11::basic_appender<char>, long double>(fmt::v11::basic_appender<char>, long double, fmt::v11::format_specs, fmt::v11::detail::locale_ref)
PUBLIC 2b84c 0 fmt::v11::detail::write_padded<char, (fmt::v11::align::type)2, fmt::v11::basic_appender<char>, fmt::v11::detail::write_bytes<char, (fmt::v11::align::type)2, fmt::v11::basic_appender<char> >(fmt::v11::basic_appender<char>, fmt::v11::basic_string_view<char>, fmt::v11::format_specs const&)::{lambda(fmt::v11::basic_appender<char>&)#1}>(fmt::v11::basic_appender<char>, fmt::v11::format_specs const&, unsigned long, unsigned long, fmt::v11::detail::write_bytes<char, (fmt::v11::align::type)2, fmt::v11::basic_appender<char> >(fmt::v11::basic_appender<char>, fmt::v11::basic_string_view<char>, fmt::v11::format_specs const&)::{lambda(fmt::v11::basic_appender<char>&)#1})
PUBLIC 2ba28 0 fmt::v11::detail::format_dragon(fmt::v11::detail::basic_fp<unsigned __int128>, unsigned int, int, fmt::v11::detail::buffer<char>&, int&)
PUBLIC 2ce4c 0 fmt::v11::detail::bigint::operator<<=(int)
PUBLIC 2cf70 0 fmt::v11::detail::bigint::assign_pow10(int)
PUBLIC 2d6cc 0 fmt::v11::detail::bigint::divmod_assign(fmt::v11::detail::bigint const&)
PUBLIC 2d9f0 0 fmt::v11::basic_memory_buffer<unsigned int, (unsigned long)32, std::__ndk1::allocator<unsigned int> >::grow(fmt::v11::detail::buffer<unsigned int>&, unsigned long)
PUBLIC 2da90 0 fmt::v11::detail::do_write_float<char, fmt::v11::basic_appender<char>, fmt::v11::detail::big_decimal_fp, fmt::v11::detail::digit_grouping<char> >(fmt::v11::basic_appender<char>, fmt::v11::detail::big_decimal_fp const&, fmt::v11::format_specs const&, fmt::v11::detail::float_specs, fmt::v11::detail::locale_ref)
PUBLIC 2e93c 0 fmt::v11::detail::do_write_float<char, fmt::v11::basic_appender<char>, fmt::v11::detail::big_decimal_fp, fmt::v11::detail::digit_grouping<char> >(fmt::v11::basic_appender<char>, fmt::v11::detail::big_decimal_fp const&, fmt::v11::format_specs const&, fmt::v11::detail::float_specs, fmt::v11::detail::locale_ref)::{lambda(fmt::v11::basic_appender<char>(fmt::v11::basic_appender<char>))#1}::operator() const
PUBLIC 2ea9c 0 fmt::v11::detail::write_padded<char, (fmt::v11::align::type)2, fmt::v11::basic_appender<char>, fmt::v11::detail::write_ptr<char, fmt::v11::basic_appender<char>, unsigned long>(fmt::v11::basic_appender<char>, unsigned long, fmt::v11::format_specs const*)::{lambda(fmt::v11::basic_appender<char>&)#1}>(fmt::v11::basic_appender<char>, fmt::v11::format_specs const&, unsigned long, unsigned long, fmt::v11::detail::write_ptr<char, fmt::v11::basic_appender<char>, unsigned long>(fmt::v11::basic_appender<char>, unsigned long, fmt::v11::format_specs const*)::{lambda(fmt::v11::basic_appender<char>&)#1})
PUBLIC 2ecb0 0 fmt::v11::detail::parse_replacement_field<char, fmt::v11::detail::vformat_to<char>(fmt::v11::detail::buffer<char>&, fmt::v11::basic_string_view<char>, fmt::v11::detail::vformat_args<char>::type, fmt::v11::detail::locale_ref)::format_handler&>(char const*, char const*, fmt::v11::detail::vformat_to<char>(fmt::v11::detail::buffer<char>&, fmt::v11::basic_string_view<char>, fmt::v11::detail::vformat_args<char>::type, fmt::v11::detail::locale_ref)::format_handler&)
PUBLIC 30914 0 fmt::v11::detail::parse_dynamic_spec<char>(char const*, char const*, int&, fmt::v11::detail::arg_ref<char>&, fmt::v11::basic_format_parse_context<char>&)
PUBLIC 30ba4 0 fmt::v11::basic_format_args<fmt::v11::context>::get<char>(fmt::v11::basic_string_view<char>) const
PUBLIC 30cd8 0 fmt::v11::detail::write_int_noinline<char, fmt::v11::basic_appender<char>, unsigned long>(fmt::v11::basic_appender<char>, fmt::v11::detail::write_int_arg<unsigned long>, fmt::v11::format_specs const&, fmt::v11::detail::locale_ref)
PUBLIC 31b24 0 fmt::v11::detail::write_int_noinline<char, fmt::v11::basic_appender<char>, unsigned __int128>(fmt::v11::basic_appender<char>, fmt::v11::detail::write_int_arg<unsigned __int128>, fmt::v11::format_specs const&, fmt::v11::detail::locale_ref)
PUBLIC 32b8c 0 _ZN3fmt3v116detail15format_hexfloatIdTnNSt6__ndk19enable_ifIXntsr16is_double_doubleIT_EE5valueEiE4typeELi0EEEvS5_NS0_12format_specsERNS1_6bufferIcEE
PUBLIC 330ac 0 fmt::v11::detail::format_float<double>(double, int, fmt::v11::detail::float_specs, fmt::v11::detail::buffer<char>&)
PUBLIC 33af8 0 fmt::v11::detail::write<char, fmt::v11::basic_appender<char> >(fmt::v11::basic_appender<char>, fmt::v11::basic_string_view<char>, fmt::v11::format_specs const&)
PUBLIC 34dd4 0 fmt::v11::detail::for_each_codepoint<fmt::v11::detail::compute_width(fmt::v11::basic_string_view<char>)::count_code_points>(fmt::v11::basic_string_view<char>, fmt::v11::detail::compute_width(fmt::v11::basic_string_view<char>)::count_code_points)::{lambda(char const*, char const*)#1}::operator()(char const*, char const*) const
PUBLIC 34f8c 0 fmt::v11::detail::write_int<fmt::v11::basic_appender<char>, unsigned long, char>(fmt::v11::basic_appender<char>, unsigned long, unsigned int, fmt::v11::format_specs const&, fmt::v11::detail::digit_grouping<char> const&)
PUBLIC 35508 0 fmt::v11::detail::write_int<fmt::v11::basic_appender<char>, unsigned __int128, char>(fmt::v11::basic_appender<char>, unsigned __int128, unsigned int, fmt::v11::format_specs const&, fmt::v11::detail::digit_grouping<char> const&)
PUBLIC 35b90 0 <.plt ELF section in alphalaneous.improved_group_view.android64.so>
STACK CFI INIT 14910 10 .cfa: sp 0 +
STACK CFI INIT 14920 8 .cfa: sp 0 +
STACK CFI INIT 14928 8 .cfa: sp 0 +
STACK CFI INIT 14930 14 .cfa: sp 0 +
STACK CFI INIT 14944 1c .cfa: sp 0 +
STACK CFI INIT 14960 10 .cfa: sp 0 +
STACK CFI INIT 14970 134 .cfa: sp 0 +
STACK CFI INIT 14aa4 84 .cfa: sp 0 +
STACK CFI INIT 14b28 f4 .cfa: sp 0 +
STACK CFI INIT 14c1c a8 .cfa: sp 0 +
STACK CFI INIT 14cc4 7c .cfa: sp 0 +
STACK CFI INIT 14d40 14 .cfa: sp 0 +
STACK CFI INIT 14d54 40 .cfa: sp 0 +
STACK CFI INIT 14d94 28 .cfa: sp 0 +
STACK CFI INIT 14dbc 190 .cfa: sp 0 +
STACK CFI INIT 14f4c 2c8 .cfa: sp 0 +
STACK CFI INIT 15214 8 .cfa: sp 0 +
STACK CFI INIT 1521c 8 .cfa: sp 0 +
STACK CFI INIT 15224 44 .cfa: sp 0 +
STACK CFI INIT 15268 e8 .cfa: sp 0 +
STACK CFI INIT 15350 e8 .cfa: sp 0 +
STACK CFI INIT 15438 14 .cfa: sp 0 +
STACK CFI INIT 1544c 10 .cfa: sp 0 +
STACK CFI INIT 1545c 10 .cfa: sp 0 +
STACK CFI INIT 1546c f0 .cfa: sp 0 +
STACK CFI INIT 1555c 44 .cfa: sp 0 +
STACK CFI INIT 155a0 c .cfa: sp 0 +
STACK CFI INIT 155ac c .cfa: sp 0 +
STACK CFI INIT 155b8 2c .cfa: sp 0 +
STACK CFI INIT 155e4 23c .cfa: sp 0 +
STACK CFI INIT 15820 c .cfa: sp 0 +
STACK CFI INIT 1582c 120 .cfa: sp 0 +
STACK CFI INIT 1594c 494 .cfa: sp 0 +
STACK CFI INIT 15de0 b78 .cfa: sp 0 +
STACK CFI INIT 16958 134 .cfa: sp 0 +
STACK CFI INIT 16a8c 210 .cfa: sp 0 +
STACK CFI INIT 16c9c 38c .cfa: sp 0 +
STACK CFI INIT 17028 1c8 .cfa: sp 0 +
STACK CFI INIT 171f0 9c4 .cfa: sp 0 +
STACK CFI INIT 17bb4 2d4 .cfa: sp 0 +
STACK CFI INIT 17e88 130 .cfa: sp 0 +
STACK CFI INIT 17fb8 120 .cfa: sp 0 +
STACK CFI INIT 180d8 1c8 .cfa: sp 0 +
STACK CFI INIT 182a0 168 .cfa: sp 0 +
STACK CFI INIT 18408 fc .cfa: sp 0 +
STACK CFI INIT 18504 30 .cfa: sp 0 +
STACK CFI INIT 18660 30 .cfa: sp 0 +
STACK CFI INIT 18690 98 .cfa: sp 0 +
STACK CFI INIT 18728 2ac .cfa: sp 0 +
STACK CFI INIT 189d4 8c .cfa: sp 0 +
STACK CFI INIT 18a60 30 .cfa: sp 0 +
STACK CFI INIT 18a90 40 .cfa: sp 0 +
STACK CFI 18aa8 .cfa: sp 32 +
STACK CFI 18ab0 .cfa: x29 32 + x19: .cfa -16 + ^ .ra: .cfa -24 + ^ x29: .cfa -32 + ^
STACK CFI 18ac4 .cfa: sp 32 +
STACK CFI 18acc .cfa: sp 0 +
STACK CFI INIT 18ad0 40 .cfa: sp 0 +
STACK CFI 18ae8 .cfa: sp 32 +
STACK CFI 18af0 .cfa: x29 32 + x19: .cfa -16 + ^ .ra: .cfa -24 + ^ x29: .cfa -32 + ^
STACK CFI 18b04 .cfa: sp 32 +
STACK CFI 18b0c .cfa: sp 0 +
STACK CFI INIT 18b10 70 .cfa: sp 0 +
STACK CFI 18b14 .cfa: sp 48 +
STACK CFI 18b20 .cfa: x29 48 + x19: .cfa -8 + ^ x20: .cfa -16 + ^ x21: .cfa -32 + ^ .ra: .cfa -40 + ^ x29: .cfa -48 + ^
STACK CFI 18b38 .cfa: sp 48 +
STACK CFI 18b44 .cfa: sp 0 +
STACK CFI 18b48 .cfa: x29 48 +
STACK CFI 18b70 .cfa: sp 48 +
STACK CFI 18b7c .cfa: sp 0 +
STACK CFI INIT 194a4 18 .cfa: sp 0 +
STACK CFI INIT 19908 18 .cfa: sp 0 +
STACK CFI INIT 19920 10 .cfa: sp 0 +
STACK CFI 19924 .cfa: sp 16 +
STACK CFI 19928 .cfa: x29 16 + .ra: .cfa -8 + ^ x29: .cfa -16 + ^
STACK CFI INIT 19930 14 .cfa: sp 0 +
STACK CFI 19934 .cfa: sp 16 +
STACK CFI 19938 .cfa: x29 16 + .ra: .cfa -8 + ^ x29: .cfa -16 + ^
STACK CFI INIT 19994 30 .cfa: sp 0 +
STACK CFI 19998 .cfa: sp 32 +
STACK CFI 199a0 .cfa: x29 32 + x19: .cfa -16 + ^ .ra: .cfa -24 + ^ x29: .cfa -32 + ^
STACK CFI 199b8 .cfa: sp 32 +
STACK CFI 199c0 .cfa: sp 0 +
STACK CFI INIT 199c4 34 .cfa: sp 0 +
STACK CFI 199c8 .cfa: sp 32 +
STACK CFI 199d0 .cfa: x29 32 + x19: .cfa -16 + ^ .ra: .cfa -24 + ^ x29: .cfa -32 + ^
STACK CFI INIT 199f8 64 .cfa: sp 0 +
STACK CFI 199fc .cfa: sp 32 +
STACK CFI 19a04 .cfa: x29 32 + x19: .cfa -8 + ^ x20: .cfa -16 + ^ .ra: .cfa -24 + ^ x29: .cfa -32 + ^
STACK CFI 19a50 .cfa: sp 32 +
STACK CFI 19a58 .cfa: sp 0 +
STACK CFI INIT 19a5c 44 .cfa: sp 0 +
STACK CFI 19a60 .cfa: sp 32 +
STACK CFI 19a68 .cfa: x29 32 + x19: .cfa -16 + ^ .ra: .cfa -24 + ^ x29: .cfa -32 + ^
STACK CFI 19a94 .cfa: sp 32 +
STACK CFI 19a9c .cfa: sp 0 +
STACK CFI INIT 19aa0 230 .cfa: sp 0 +
STACK CFI 19aa4 .cfa: sp 64 +
STACK CFI 19ab4 .cfa: x29 64 + x19: .cfa -8 + ^ x20: .cfa -16 + ^ x21: .cfa -24 + ^ x22: .cfa -32 + ^ x23: .cfa -40 + ^ x24: .cfa -48 + ^ .ra: .cfa -56 + ^ x29: .cfa -64 + ^
STACK CFI 19b10 .cfa: sp 64 +
STACK CFI 19b20 .cfa: sp 0 +
STACK CFI 19b24 .cfa: x29 64 +
STACK CFI 19ca0 .cfa: sp 64 +
STACK CFI 19cb0 .cfa: sp 0 +
STACK CFI 19cb4 .cfa: x29 64 +
STACK CFI 19cbc .cfa: sp 64 +
STACK CFI 19ccc .cfa: sp 0 +
STACK CFI INIT 19cd0 458 .cfa: sp 0 +
STACK CFI INIT 1a75c 50 .cfa: sp 0 +
STACK CFI 1a780 .cfa: sp 32 +
STACK CFI 1a788 .cfa: x29 32 + x19: .cfa -16 + ^ .ra: .cfa -24 + ^ x29: .cfa -32 + ^
STACK CFI 1a79c .cfa: sp 32 +
STACK CFI 1a7a4 .cfa: sp 0 +
STACK CFI INIT 1a7ac 94 .cfa: sp 0 +
STACK CFI 1a7b0 .cfa: sp 48 +
STACK CFI 1a7bc .cfa: x29 48 + x19: .cfa -8 + ^ x20: .cfa -16 + ^ x21: .cfa -24 + ^ x22: .cfa -32 + ^ .ra: .cfa -40 + ^ x29: .cfa -48 + ^
STACK CFI 1a7d4 .cfa: sp 48 +
STACK CFI 1a7e0 .cfa: sp 0 +
STACK CFI 1a7e4 .cfa: x29 48 +
STACK CFI 1a828 .cfa: sp 48 +
STACK CFI 1a834 .cfa: sp 0 +
STACK CFI 1a838 .cfa: x29 48 +
STACK CFI INIT 1a840 64 .cfa: sp 0 +
STACK CFI 1a844 .cfa: sp 32 +
STACK CFI 1a84c .cfa: x29 32 + x19: .cfa -8 + ^ x20: .cfa -16 + ^ .ra: .cfa -24 + ^ x29: .cfa -32 + ^
STACK CFI 1a898 .cfa: sp 32 +
STACK CFI 1a8a0 .cfa: sp 0 +
STACK CFI INIT 1a8a4 44 .cfa: sp 0 +
STACK CFI 1a8a8 .cfa: sp 32 +
STACK CFI 1a8b0 .cfa: x29 32 + x19: .cfa -16 + ^ .ra: .cfa -24 + ^ x29: .cfa -32 + ^
STACK CFI 1a8dc .cfa: sp 32 +
STACK CFI 1a8e4 .cfa: sp 0 +
STACK CFI INIT 1a8e8 48 .cfa: sp 0 +
STACK CFI 1a8ec .cfa: sp 32 +
STACK CFI 1a8f4 .cfa: x29 32 + x19: .cfa -8 + ^ x20: .cfa -16 + ^ .ra: .cfa -24 + ^ x29: .cfa -32 + ^
STACK CFI 1a924 .cfa: sp 32 +
STACK CFI 1a92c .cfa: sp 0 +
STACK CFI INIT 1acac 50 .cfa: sp 0 +
STACK CFI 1acb0 .cfa: sp 32 +
STACK CFI 1acb8 .cfa: x29 32 + x19: .cfa -16 + ^ .ra: .cfa -24 + ^ x29: .cfa -32 + ^
STACK CFI 1acd0 .cfa: sp 32 +
STACK CFI 1acd8 .cfa: sp 0 +
STACK CFI 1acdc .cfa: x29 32 +
STACK CFI 1acf0 .cfa: sp 32 +
STACK CFI 1acf8 .cfa: sp 0 +
STACK CFI INIT 1ad70 7c .cfa: sp 0 +
STACK CFI 1ad74 .cfa: sp 48 +
STACK CFI 1ad80 .cfa: x29 48 + x19: .cfa -8 + ^ x20: .cfa -16 + ^ x21: .cfa -32 + ^ .ra: .cfa -40 + ^ x29: .cfa -48 + ^
STACK CFI 1adcc .cfa: sp 48 +
STACK CFI 1add8 .cfa: sp 0 +
STACK CFI 1addc .cfa: sp 48 +
STACK CFI 1ade8 .cfa: sp 0 +
STACK CFI INIT 1adec 4 .cfa: sp 0 +
STACK CFI INIT 1af00 128 .cfa: sp 0 +
STACK CFI 1af04 .cfa: sp 64 +
STACK CFI 1af14 .cfa: x29 64 + x19: .cfa -8 + ^ x20: .cfa -16 + ^ x21: .cfa -24 + ^ x22: .cfa -32 + ^ x23: .cfa -40 + ^ x24: .cfa -48 + ^ .ra: .cfa -56 + ^ x29: .cfa -64 + ^
STACK CFI 1b014 .cfa: sp 64 +
STACK CFI 1b024 .cfa: sp 0 +
STACK CFI INIT 1b028 1a8 .cfa: sp 0 +
STACK CFI INIT 1b324 34 .cfa: sp 0 +
STACK CFI 1b328 .cfa: sp 16 +
STACK CFI 1b32c .cfa: x29 16 + .ra: .cfa -8 + ^ x29: .cfa -16 + ^
STACK CFI INIT 1b48c 80 .cfa: sp 0 +
STACK CFI 1b490 .cfa: sp 48 +
STACK CFI 1b49c .cfa: x29 48 + x19: .cfa -8 + ^ x20: .cfa -16 + ^ x21: .cfa -32 + ^ .ra: .cfa -40 + ^ x29: .cfa -48 + ^
STACK CFI 1b4fc .cfa: sp 48 +
STACK CFI 1b508 .cfa: sp 0 +
STACK CFI INIT 1b50c 24 .cfa: sp 0 +
STACK CFI 1b510 .cfa: sp 32 +
STACK CFI 1b518 .cfa: x29 32 + x19: .cfa -16 + ^ .ra: .cfa -24 + ^ x29: .cfa -32 + ^
STACK CFI 1b524 .cfa: sp 32 +
STACK CFI 1b52c .cfa: sp 0 +
STACK CFI INIT 1ba30 148 .cfa: sp 0 +
STACK CFI 1ba34 .cfa: sp 48 +
STACK CFI 1ba40 .cfa: x29 48 + x19: .cfa -8 + ^ x20: .cfa -16 + ^ x21: .cfa -32 + ^ .ra: .cfa -40 + ^ x29: .cfa -48 + ^
STACK CFI 1bb68 .cfa: sp 48 +
STACK CFI 1bb74 .cfa: sp 0 +
STACK CFI INIT 1bb78 88 .cfa: sp 0 +
STACK CFI 1bb80 .cfa: sp 48 +
STACK CFI 1bb8c .cfa: x29 48 + x19: .cfa -8 + ^ x20: .cfa -16 + ^ x21: .cfa -24 + ^ x22: .cfa -32 + ^ .ra: .cfa -40 + ^ x29: .cfa -48 + ^
STACK CFI 1bbf0 .cfa: sp 48 +
STACK CFI 1bbfc .cfa: sp 0 +
STACK CFI INIT 1bc50 30 .cfa: sp 0 +
STACK CFI 1bc54 .cfa: sp 32 +
STACK CFI 1bc5c .cfa: x29 32 + x19: .cfa -16 + ^ .ra: .cfa -24 + ^ x29: .cfa -32 + ^
STACK CFI 1bc74 .cfa: sp 32 +
STACK CFI 1bc7c .cfa: sp 0 +
STACK CFI INIT 1bde8 4 .cfa: sp 0 +
STACK CFI INIT 1bdec 4 .cfa: sp 0 +
STACK CFI INIT 1bdf0 38 .cfa: sp 0 +
STACK CFI 1bdf4 .cfa: sp 32 +
STACK CFI 1bdfc .cfa: x29 32 + x19: .cfa -16 + ^ .ra: .cfa -24 + ^ x29: .cfa -32 + ^
STACK CFI 1be1c .cfa: sp 32 +
STACK CFI 1be24 .cfa: sp 0 +
STACK CFI INIT 1be28 18 .cfa: sp 0 +
STACK CFI INIT 1be40 4 .cfa: sp 0 +
STACK CFI INIT 1be44 4 .cfa: sp 0 +
STACK CFI INIT 1be48 8 .cfa: sp 0 +
STACK CFI INIT 1be50 1c .cfa: sp 0 +
STACK CFI INIT 1be6c c .cfa: sp 0 +
STACK CFI INIT 1be78 4 .cfa: sp 0 +
STACK CFI INIT 1bfe0 5c .cfa: sp 0 +
STACK CFI 1bfe4 .cfa: sp 32 +
STACK CFI 1bfec .cfa: x29 32 + x19: .cfa -16 + ^ .ra: .cfa -24 + ^ x29: .cfa -32 + ^
STACK CFI 1c030 .cfa: sp 32 +
STACK CFI 1c038 .cfa: sp 0 +
STACK CFI INIT 1c03c 64 .cfa: sp 0 +
STACK CFI 1c040 .cfa: sp 32 +
STACK CFI 1c048 .cfa: x29 32 + x19: .cfa -16 + ^ .ra: .cfa -24 + ^ x29: .cfa -32 + ^
STACK CFI 1c094 .cfa: sp 32 +
STACK CFI 1c09c .cfa: sp 0 +
STACK CFI INIT 1c0a0 f8 .cfa: sp 0 +
STACK CFI 1c0a4 .cfa: sp 64 +
STACK CFI 1c0b4 .cfa: x29 64 + x19: .cfa -8 + ^ x20: .cfa -16 + ^ x21: .cfa -24 + ^ x22: .cfa -32 + ^ x23: .cfa -48 + ^ .ra: .cfa -56 + ^ x29: .cfa -64 + ^
STACK CFI 1c110 .cfa: sp 64 +
STACK CFI 1c120 .cfa: sp 0 +
STACK CFI 1c124 .cfa: x29 64 +
STACK CFI 1c140 .cfa: sp 64 +
STACK CFI 1c150 .cfa: sp 0 +
STACK CFI 1c154 .cfa: x29 64 +
STACK CFI 1c184 .cfa: sp 64 +
STACK CFI 1c194 .cfa: sp 0 +
STACK CFI INIT 1c198 4 .cfa: sp 0 +
STACK CFI INIT 1c19c 14 .cfa: sp 0 +
STACK CFI INIT 1c35c 68 .cfa: sp 0 +
STACK CFI 1c360 .cfa: sp 32 +
STACK CFI 1c368 .cfa: x29 32 + x19: .cfa -8 + ^ x20: .cfa -16 + ^ .ra: .cfa -24 + ^ x29: .cfa -32 + ^
STACK CFI 1c380 .cfa: sp 32 +
STACK CFI 1c388 .cfa: sp 0 +
STACK CFI 1c38c .cfa: x29 32 +
STACK CFI 1c3b8 .cfa: sp 32 +
STACK CFI 1c3c0 .cfa: sp 0 +
STACK CFI INIT 1c3c4 14 .cfa: sp 0 +
STACK CFI 1c3c8 .cfa: sp 16 +
STACK CFI 1c3cc .cfa: x29 16 + .ra: .cfa -8 + ^ x29: .cfa -16 + ^
STACK CFI INIT 1c3d8 4 .cfa: sp 0 +
STACK CFI INIT 1c3dc 14 .cfa: sp 0 +
STACK CFI INIT 1c3f0 c4 .cfa: sp 0 +
STACK CFI 1c3f4 .cfa: sp 32 +
STACK CFI 1c3fc .cfa: x29 32 + x19: .cfa -8 + ^ x20: .cfa -16 + ^ .ra: .cfa -24 + ^ x29: .cfa -32 + ^
STACK CFI 1c484 .cfa: sp 32 +
STACK CFI 1c48c .cfa: sp 0 +
STACK CFI 1c490 .cfa: x29 32 +
STACK CFI INIT 1c4b4 3c8 .cfa: sp 0 +
STACK CFI INIT 1c87c 84 .cfa: sp 0 +
STACK CFI 1c884 .cfa: sp 32 +
STACK CFI 1c88c .cfa: x29 32 + x19: .cfa -8 + ^ x20: .cfa -16 + ^ .ra: .cfa -24 + ^ x29: .cfa -32 + ^
STACK CFI 1c8cc .cfa: sp 32 +
STACK CFI 1c8d4 .cfa: sp 0 +
STACK CFI 1c8dc .cfa: x29 32 +
STACK CFI INIT 1cc88 50 .cfa: sp 0 +
STACK CFI 1cc8c .cfa: sp 32 +
STACK CFI 1cc94 .cfa: x29 32 + x19: .cfa -16 + ^ .ra: .cfa -24 + ^ x29: .cfa -32 + ^
STACK CFI 1ccac .cfa: sp 32 +
STACK CFI 1ccb4 .cfa: sp 0 +
STACK CFI 1ccb8 .cfa: x29 32 +
STACK CFI 1cccc .cfa: sp 32 +
STACK CFI 1ccd4 .cfa: sp 0 +
STACK CFI INIT 1ccd8 64 .cfa: sp 0 +
STACK CFI 1ccdc .cfa: sp 32 +
STACK CFI 1cce4 .cfa: x29 32 + x19: .cfa -16 + ^ .ra: .cfa -24 + ^ x29: .cfa -32 + ^
STACK CFI 1cd10 .cfa: sp 32 +
STACK CFI 1cd18 .cfa: sp 0 +
STACK CFI 1cd1c .cfa: x29 32 +
STACK CFI 1cd30 .cfa: sp 32 +
STACK CFI 1cd38 .cfa: sp 0 +
STACK CFI INIT 1cd3c 24 .cfa: sp 0 +
STACK CFI 1cd40 .cfa: sp 32 +
STACK CFI 1cd48 .cfa: x29 32 + x19: .cfa -16 + ^ .ra: .cfa -24 + ^ x29: .cfa -32 + ^
STACK CFI 1cd54 .cfa: sp 32 +
STACK CFI 1cd5c .cfa: sp 0 +
STACK CFI INIT 1cd60 24 .cfa: sp 0 +
STACK CFI 1cd64 .cfa: sp 32 +
STACK CFI 1cd6c .cfa: x29 32 + x19: .cfa -16 + ^ .ra: .cfa -24 + ^ x29: .cfa -32 + ^
STACK CFI 1cd78 .cfa: sp 32 +
STACK CFI 1cd80 .cfa: sp 0 +
STACK CFI INIT 1f754 14 .cfa: sp 0 +
STACK CFI 1f758 .cfa: sp 16 +
STACK CFI 1f75c .cfa: x29 16 + .ra: .cfa -8 + ^ x29: .cfa -16 + ^
STACK CFI INIT 1f768 14 .cfa: sp 0 +
STACK CFI 1f76c .cfa: sp 16 +
STACK CFI 1f770 .cfa: x29 16 + .ra: .cfa -8 + ^ x29: .cfa -16 + ^
STACK CFI INIT 1f77c c .cfa: sp 0 +
STACK CFI 1f780 .cfa: sp 16 +
STACK CFI 1f784 .cfa: x29 16 + .ra: .cfa -8 + ^ x29: .cfa -16 + ^
STACK CFI INIT 1f788 c .cfa: sp 0 +
STACK CFI 1f78c .cfa: sp 16 +
STACK CFI 1f790 .cfa: x29 16 + .ra: .cfa -8 + ^ x29: .cfa -16 + ^
STACK CFI INIT 1f794 4 .cfa: sp 0 +
STACK CFI INIT 1f798 4 .cfa: sp 0 +
STACK CFI INIT 1f79c 38 .cfa: sp 0 +
STACK CFI 1f7a0 .cfa: sp 32 +
STACK CFI 1f7a8 .cfa: x29 32 + x19: .cfa -16 + ^ .ra: .cfa -24 + ^ x29: .cfa -32 + ^
STACK CFI 1f7c8 .cfa: sp 32 +
STACK CFI 1f7d0 .cfa: sp 0 +
STACK CFI INIT 1f7d4 18 .cfa: sp 0 +
STACK CFI INIT 1f7ec 4 .cfa: sp 0 +
STACK CFI INIT 1f7f0 4 .cfa: sp 0 +
STACK CFI INIT 1f7f4 10 .cfa: sp 0 +
STACK CFI INIT 1f804 1c .cfa: sp 0 +
STACK CFI INIT 1f820 c .cfa: sp 0 +
STACK CFI INIT 1f82c 798 .cfa: sp 0 +
STACK CFI 1f830 .cfa: sp 144 +
STACK CFI 1f84c .cfa: x29 96 + x19: .cfa -8 + ^ x20: .cfa -16 + ^ x21: .cfa -24 + ^ x22: .cfa -32 + ^ x23: .cfa -40 + ^ x24: .cfa -48 + ^ x25: .cfa -56 + ^ x26: .cfa -64 + ^ x27: .cfa -72 + ^ x28: .cfa -80 + ^ .ra: .cfa -88 + ^ x29: .cfa -96 + ^
STACK CFI 1ffa0 .cfa: sp 144 +
STACK CFI 1ffbc .cfa: sp 0 +
STACK CFI 1ffc0 .cfa: x29 96 +
STACK CFI INIT 1ffc4 ac .cfa: sp 0 +
STACK CFI 1ffc8 .cfa: sp 64 +
STACK CFI 1ffd8 .cfa: x29 64 + x19: .cfa -8 + ^ x20: .cfa -16 + ^ x21: .cfa -24 + ^ x22: .cfa -32 + ^ x23: .cfa -48 + ^ .ra: .cfa -56 + ^ x29: .cfa -64 + ^
STACK CFI 20054 .cfa: sp 64 +
STACK CFI 20064 .cfa: sp 0 +
STACK CFI 20068 .cfa: x29 64 +
STACK CFI INIT 20070 13c .cfa: sp 0 +
STACK CFI 20074 .cfa: sp 64 +
STACK CFI 20084 .cfa: x29 64 + x19: .cfa -8 + ^ x20: .cfa -16 + ^ x21: .cfa -24 + ^ x22: .cfa -32 + ^ x23: .cfa -40 + ^ x24: .cfa -48 + ^ .ra: .cfa -56 + ^ x29: .cfa -64 + ^
STACK CFI 20164 .cfa: sp 64 +
STACK CFI 20174 .cfa: sp 0 +
STACK CFI 20178 .cfa: x29 64 +
STACK CFI INIT 201ac 50 .cfa: sp 0 +
STACK CFI 201d0 .cfa: sp 32 +
STACK CFI 201d8 .cfa: x29 32 + x19: .cfa -16 + ^ .ra: .cfa -24 + ^ x29: .cfa -32 + ^
STACK CFI 201ec .cfa: sp 32 +
STACK CFI 201f4 .cfa: sp 0 +
STACK CFI INIT 20550 44 .cfa: sp 0 +
STACK CFI 20554 .cfa: sp 32 +
STACK CFI 2055c .cfa: x29 32 + x19: .cfa -16 + ^ .ra: .cfa -24 + ^ x29: .cfa -32 + ^
STACK CFI 2057c .cfa: sp 32 +
STACK CFI 20584 .cfa: sp 0 +
STACK CFI 20588 .cfa: sp 32 +
STACK CFI 20590 .cfa: sp 0 +
STACK CFI INIT 205b0 58 .cfa: sp 0 +
STACK CFI 205b4 .cfa: sp 48 +
STACK CFI 205c0 .cfa: x29 48 + x19: .cfa -8 + ^ x20: .cfa -16 + ^ x21: .cfa -32 + ^ .ra: .cfa -40 + ^ x29: .cfa -48 + ^
STACK CFI 205f8 .cfa: sp 48 +
STACK CFI 20604 .cfa: sp 0 +
STACK CFI INIT 20608 9c .cfa: sp 0 +
STACK CFI 2060c .cfa: sp 48 +
STACK CFI 20618 .cfa: x29 48 + x19: .cfa -8 + ^ x20: .cfa -16 + ^ x21: .cfa -24 + ^ x22: .cfa -32 + ^ .ra: .cfa -40 + ^ x29: .cfa -48 + ^
STACK CFI 20638 .cfa: sp 48 +
STACK CFI 20644 .cfa: sp 0 +
STACK CFI 20648 .cfa: x29 48 +
STACK CFI 20684 .cfa: sp 48 +
STACK CFI 20690 .cfa: sp 0 +
STACK CFI 20694 .cfa: sp 48 +
STACK CFI 206a0 .cfa: sp 0 +
STACK CFI INIT 206a4 1f8 .cfa: sp 0 +
STACK CFI 206a8 .cfa: sp 80 +
STACK CFI 206bc .cfa: x29 80 + x19: .cfa -8 + ^ x20: .cfa -16 + ^ x21: .cfa -24 + ^ x22: .cfa -32 + ^ x23: .cfa -40 + ^ x24: .cfa -48 + ^ x25: .cfa -64 + ^ .ra: .cfa -72 + ^ x29: .cfa -80 + ^
STACK CFI 2087c .cfa: sp 80 +
STACK CFI 20890 .cfa: sp 0 +
STACK CFI 20894 .cfa: x29 80 +
STACK CFI INIT 2089c 14 .cfa: sp 0 +
STACK CFI 208a0 .cfa: sp 16 +
STACK CFI 208a4 .cfa: x29 16 + .ra: .cfa -8 + ^ x29: .cfa -16 + ^
STACK CFI INIT 208e8 14 .cfa: sp 0 +
STACK CFI 208ec .cfa: sp 16 +
STACK CFI 208f0 .cfa: x29 16 + .ra: .cfa -8 + ^ x29: .cfa -16 + ^
STACK CFI INIT 208fc 8 .cfa: sp 0 +
STACK CFI INIT 20904 24 .cfa: sp 0 +
STACK CFI 20908 .cfa: sp 32 +
STACK CFI 20910 .cfa: x29 32 + x19: .cfa -16 + ^ .ra: .cfa -24 + ^ x29: .cfa -32 + ^
STACK CFI 2091c .cfa: sp 32 +
STACK CFI 20924 .cfa: sp 0 +
STACK CFI INIT 20928 16c .cfa: sp 0 +
STACK CFI 2092c .cfa: sp 128 +
STACK CFI 20948 .cfa: x29 48 + x19: .cfa -8 + ^ x20: .cfa -16 + ^ x21: .cfa -24 + ^ x22: .cfa -32 + ^ .ra: .cfa -40 + ^ x29: .cfa -48 + ^ v8: .cfa -56 + ^ v9: .cfa -64 + ^ v10: .cfa -72 + ^ v11: .cfa -80 + ^ v12: .cfa -96 + ^
STACK CFI 20a10 .cfa: sp 128 +
STACK CFI 20a2c .cfa: sp 0 +
STACK CFI 20a30 .cfa: x29 48 +
STACK CFI 20a70 .cfa: sp 128 +
STACK CFI 20a8c .cfa: sp 0 +
STACK CFI 20a90 .cfa: x29 48 +
STACK CFI INIT 20a94 4 .cfa: sp 0 +
STACK CFI INIT 20a98 8 .cfa: sp 0 +
STACK CFI INIT 20aa0 8 .cfa: sp 0 +
STACK CFI INIT 20aa8 8 .cfa: sp 0 +
STACK CFI INIT 20ab0 8 .cfa: sp 0 +
STACK CFI INIT 20ab8 28 .cfa: sp 0 +
STACK CFI 20abc .cfa: sp 32 +
STACK CFI 20ac4 .cfa: x29 32 + x19: .cfa -16 + ^ .ra: .cfa -24 + ^ x29: .cfa -32 + ^
STACK CFI 20ad4 .cfa: sp 32 +
STACK CFI 20adc .cfa: sp 0 +
STACK CFI INIT 20ae0 8 .cfa: sp 0 +
STACK CFI INIT 20ae8 4 .cfa: sp 0 +
STACK CFI INIT 20aec 4 .cfa: sp 0 +
STACK CFI INIT 20af0 4 .cfa: sp 0 +
STACK CFI INIT 20af4 4 .cfa: sp 0 +
STACK CFI INIT 20af8 4 .cfa: sp 0 +
STACK CFI INIT 20afc 8 .cfa: sp 0 +
STACK CFI INIT 20b04 4 .cfa: sp 0 +
STACK CFI INIT 20b08 4 .cfa: sp 0 +
STACK CFI INIT 20b0c 34 .cfa: sp 0 +
STACK CFI 20b10 .cfa: sp 32 +
STACK CFI 20b18 .cfa: x29 32 + x19: .cfa -16 + ^ .ra: .cfa -24 + ^ x29: .cfa -32 + ^
STACK CFI 20b34 .cfa: sp 32 +
STACK CFI 20b3c .cfa: sp 0 +
STACK CFI INIT 20b40 14 .cfa: sp 0 +
STACK CFI INIT 20b54 4 .cfa: sp 0 +
STACK CFI INIT 20b58 4 .cfa: sp 0 +
STACK CFI INIT 20b5c b0 .cfa: sp 0 +
STACK CFI 20b60 .cfa: sp 48 +
STACK CFI 20b6c .cfa: x29 48 + x19: .cfa -8 + ^ x20: .cfa -16 + ^ x21: .cfa -32 + ^ .ra: .cfa -40 + ^ x29: .cfa -48 + ^
STACK CFI 20bec .cfa: sp 48 +
STACK CFI 20bf8 .cfa: sp 0 +
STACK CFI 20bfc .cfa: sp 48 +
STACK CFI 20c08 .cfa: sp 0 +
STACK CFI INIT 20c0c 1c .cfa: sp 0 +
STACK CFI INIT 20c28 c .cfa: sp 0 +
STACK CFI INIT 20c34 44 .cfa: sp 0 +
STACK CFI 20c3c .cfa: sp 32 +
STACK CFI 20c44 .cfa: x29 32 + x19: .cfa -8 + ^ x20: .cfa -16 + ^ .ra: .cfa -24 + ^ x29: .cfa -32 + ^
STACK CFI 20c68 .cfa: sp 32 +
STACK CFI 20c70 .cfa: sp 0 +
STACK CFI INIT 20c78 168 .cfa: sp 0 +
STACK CFI 20c7c .cfa: sp 80 +
STACK CFI 20c90 .cfa: x29 80 + x19: .cfa -8 + ^ x20: .cfa -16 + ^ x21: .cfa -24 + ^ x22: .cfa -32 + ^ x23: .cfa -40 + ^ x24: .cfa -48 + ^ x25: .cfa -56 + ^ x26: .cfa -64 + ^ .ra: .cfa -72 + ^ x29: .cfa -80 + ^
STACK CFI 20dc8 .cfa: sp 80 +
STACK CFI 20ddc .cfa: sp 0 +
STACK CFI INIT 21230 4 .cfa: sp 0 +
STACK CFI INIT 213f8 a0 .cfa: sp 0 +
STACK CFI 213fc .cfa: sp 80 +
STACK CFI 21410 .cfa: x29 40 + x19: .cfa -8 + ^ x20: .cfa -16 + ^ x21: .cfa -24 + ^ .ra: .cfa -32 + ^ x29: .cfa -40 + ^ v8: .cfa -48 + ^
STACK CFI 2147c .cfa: sp 80 +
STACK CFI 21490 .cfa: sp 0 +
STACK CFI 21494 .cfa: x29 40 +
STACK CFI INIT 21498 70 .cfa: sp 0 +
STACK CFI 2149c .cfa: sp 48 +
STACK CFI 214a8 .cfa: x29 32 + x19: .cfa -8 + ^ x20: .cfa -16 + ^ .ra: .cfa -24 + ^ x29: .cfa -32 + ^ v8: .cfa -48 + ^
STACK CFI 214e8 .cfa: sp 48 +
STACK CFI 214f4 .cfa: sp 0 +
STACK CFI 214f8 .cfa: sp 48 +
STACK CFI 21504 .cfa: sp 0 +
STACK CFI INIT 215d4 98 .cfa: sp 0 +
STACK CFI INIT 2166c d0 .cfa: sp 0 +
STACK CFI 21670 .cfa: sp 48 +
STACK CFI 2167c .cfa: x29 48 + x19: .cfa -8 + ^ x20: .cfa -16 + ^ x21: .cfa -32 + ^ .ra: .cfa -40 + ^ x29: .cfa -48 + ^
STACK CFI 21718 .cfa: sp 48 +
STACK CFI 21724 .cfa: sp 0 +
STACK CFI 21728 .cfa: x29 48 +
STACK CFI 2172c .cfa: sp 48 +
STACK CFI 21738 .cfa: sp 0 +
STACK CFI INIT 2183c 3c .cfa: sp 0 +
STACK CFI 21840 .cfa: sp 32 +
STACK CFI 21848 .cfa: x29 32 + x19: .cfa -16 + ^ .ra: .cfa -24 + ^ x29: .cfa -32 + ^
STACK CFI 21854 .cfa: sp 32 +
STACK CFI 2185c .cfa: sp 0 +
STACK CFI 21860 .cfa: x29 32 +
STACK CFI 2186c .cfa: sp 32 +
STACK CFI 21874 .cfa: sp 0 +
STACK CFI INIT 21878 3c .cfa: sp 0 +
STACK CFI 2187c .cfa: sp 32 +
STACK CFI 21884 .cfa: x29 32 + x19: .cfa -16 + ^ .ra: .cfa -24 + ^ x29: .cfa -32 + ^
STACK CFI 21890 .cfa: sp 32 +
STACK CFI 21898 .cfa: sp 0 +
STACK CFI 2189c .cfa: x29 32 +
STACK CFI 218a8 .cfa: sp 32 +
STACK CFI 218b0 .cfa: sp 0 +
STACK CFI INIT 218b4 4c .cfa: sp 0 +
STACK CFI 218b8 .cfa: sp 32 +
STACK CFI 218c0 .cfa: x29 32 + x19: .cfa -8 + ^ x20: .cfa -16 + ^ .ra: .cfa -24 + ^ x29: .cfa -32 + ^
STACK CFI 218e8 .cfa: sp 32 +
STACK CFI 218f0 .cfa: sp 0 +
STACK CFI 218f4 .cfa: sp 32 +
STACK CFI 218fc .cfa: sp 0 +
STACK CFI INIT 21b20 64 .cfa: sp 0 +
STACK CFI 21b24 .cfa: sp 32 +
STACK CFI 21b2c .cfa: x29 32 + x19: .cfa -16 + ^ .ra: .cfa -24 + ^ x29: .cfa -32 + ^
STACK CFI 21b58 .cfa: sp 32 +
STACK CFI 21b60 .cfa: sp 0 +
STACK CFI 21b64 .cfa: x29 32 +
STACK CFI 21b78 .cfa: sp 32 +
STACK CFI 21b80 .cfa: sp 0 +
STACK CFI INIT 21b84 24 .cfa: sp 0 +
STACK CFI 21b88 .cfa: sp 32 +
STACK CFI 21b90 .cfa: x29 32 + x19: .cfa -16 + ^ .ra: .cfa -24 + ^ x29: .cfa -32 + ^
STACK CFI 21b9c .cfa: sp 32 +
STACK CFI 21ba4 .cfa: sp 0 +
STACK CFI INIT 21ba8 24 .cfa: sp 0 +
STACK CFI 21bac .cfa: sp 32 +
STACK CFI 21bb4 .cfa: x29 32 + x19: .cfa -16 + ^ .ra: .cfa -24 + ^ x29: .cfa -32 + ^
STACK CFI 21bc0 .cfa: sp 32 +
STACK CFI 21bc8 .cfa: sp 0 +
STACK CFI INIT 21bcc 8 .cfa: sp 0 +
STACK CFI INIT 21bd4 24 .cfa: sp 0 +
STACK CFI 21bd8 .cfa: sp 32 +
STACK CFI 21be0 .cfa: x29 32 + x19: .cfa -16 + ^ .ra: .cfa -24 + ^ x29: .cfa -32 + ^
STACK CFI 21bec .cfa: sp 32 +
STACK CFI 21bf4 .cfa: sp 0 +
STACK CFI INIT 21bf8 28 .cfa: sp 0 +
STACK CFI 21bfc .cfa: sp 32 +
STACK CFI 21c04 .cfa: x29 32 + x19: .cfa -16 + ^ .ra: .cfa -24 + ^ x29: .cfa -32 + ^
STACK CFI 21c14 .cfa: sp 32 +
STACK CFI 21c1c .cfa: sp 0 +
STACK CFI INIT 22170 8 .cfa: sp 0 +
STACK CFI INIT 22178 24 .cfa: sp 0 +
STACK CFI 2217c .cfa: sp 32 +
STACK CFI 22184 .cfa: x29 32 + x19: .cfa -16 + ^ .ra: .cfa -24 + ^ x29: .cfa -32 + ^
STACK CFI 22190 .cfa: sp 32 +
STACK CFI 22198 .cfa: sp 0 +
STACK CFI INIT 2219c 28 .cfa: sp 0 +
STACK CFI 221a0 .cfa: sp 32 +
STACK CFI 221a8 .cfa: x29 32 + x19: .cfa -16 + ^ .ra: .cfa -24 + ^ x29: .cfa -32 + ^
STACK CFI 221b8 .cfa: sp 32 +
STACK CFI 221c0 .cfa: sp 0 +
STACK CFI INIT 221c4 20 .cfa: sp 0 +
STACK CFI INIT 221e4 14 .cfa: sp 0 +
STACK CFI INIT 221f8 18 .cfa: sp 0 +
STACK CFI 221fc .cfa: sp 16 +
STACK CFI 22200 .cfa: x29 16 + .ra: .cfa -8 + ^ x29: .cfa -16 + ^
STACK CFI 22208 .cfa: sp 16 +
STACK CFI 2220c .cfa: sp 0 +
STACK CFI INIT 22210 4 .cfa: sp 0 +
STACK CFI INIT 22214 4 .cfa: sp 0 +
STACK CFI INIT 22218 8 .cfa: sp 0 +
STACK CFI INIT 22220 4 .cfa: sp 0 +
STACK CFI INIT 22224 8 .cfa: sp 0 +
STACK CFI INIT 22d8c 4 .cfa: sp 0 +
STACK CFI INIT 22d90 14 .cfa: sp 0 +
STACK CFI INIT 23284 c .cfa: sp 0 +
STACK CFI INIT 23290 24c .cfa: sp 0 +
STACK CFI INIT 234dc a0 .cfa: sp 0 +
STACK CFI 234e8 .cfa: sp 32 +
STACK CFI 23540 .cfa: sp 0 +
STACK CFI 23544 .cfa: sp 32 +
STACK CFI 2354c .cfa: sp 0 +
STACK CFI 23550 .cfa: sp 32 +
STACK CFI 23564 .cfa: sp 0 +
STACK CFI 23568 .cfa: sp 32 +
STACK CFI 23578 .cfa: sp 0 +
STACK CFI INIT 2357c 38 .cfa: sp 0 +
STACK CFI 23588 .cfa: sp 32 +
STACK CFI 235b0 .cfa: sp 0 +
STACK CFI INIT 23848 7c .cfa: sp 0 +
STACK CFI 2384c .cfa: sp 32 +
STACK CFI 23854 .cfa: x29 32 + x19: .cfa -16 + ^ .ra: .cfa -24 + ^ x29: .cfa -32 + ^
STACK CFI 23880 .cfa: sp 32 +
STACK CFI 23888 .cfa: sp 0 +
STACK CFI 2388c .cfa: x29 32 +
STACK CFI 238b8 .cfa: sp 32 +
STACK CFI 238c0 .cfa: sp 0 +
STACK CFI INIT 23914 2c .cfa: sp 0 +
STACK CFI 23918 .cfa: sp 32 +
STACK CFI 23920 .cfa: x29 32 + x19: .cfa -16 + ^ .ra: .cfa -24 + ^ x29: .cfa -32 + ^
STACK CFI 23934 .cfa: sp 32 +
STACK CFI 2393c .cfa: sp 0 +
STACK CFI INIT 24100 64 .cfa: sp 0 +
STACK CFI 24104 .cfa: sp 32 +
STACK CFI 2410c .cfa: x29 32 + x19: .cfa -16 + ^ .ra: .cfa -24 + ^ x29: .cfa -32 + ^
STACK CFI 24128 .cfa: sp 32 +
STACK CFI 24130 .cfa: sp 0 +
STACK CFI 24134 .cfa: x29 32 +
STACK CFI 24158 .cfa: sp 32 +
STACK CFI 24160 .cfa: sp 0 +
STACK CFI INIT 242b0 570 .cfa: sp 0 +
STACK CFI 242b4 .cfa: sp 176 +
STACK CFI 242c8 .cfa: x29 64 + x19: .cfa -8 + ^ x20: .cfa -16 + ^ x21: .cfa -24 + ^ x22: .cfa -32 + ^ x23: .cfa -40 + ^ x24: .cfa -48 + ^ .ra: .cfa -56 + ^ x29: .cfa -64 + ^
STACK CFI 244f8 .cfa: sp 176 +
STACK CFI 2450c .cfa: sp 0 +
STACK CFI 24510 .cfa: x29 64 +
STACK CFI 2455c .cfa: sp 176 +
STACK CFI 24570 .cfa: sp 0 +
STACK CFI 24574 .cfa: x29 64 +
STACK CFI 245ac .cfa: sp 176 +
STACK CFI 245c0 .cfa: sp 0 +
STACK CFI 245c4 .cfa: x29 64 +
STACK CFI 245dc .cfa: sp 176 +
STACK CFI 245f0 .cfa: sp 0 +
STACK CFI 245f4 .cfa: x29 64 +
STACK CFI 24614 .cfa: sp 176 +
STACK CFI 24628 .cfa: sp 0 +
STACK CFI 2462c .cfa: x29 64 +
STACK CFI 24644 .cfa: sp 176 +
STACK CFI 24658 .cfa: sp 0 +
STACK CFI 2465c .cfa: x29 64 +
STACK CFI 24670 .cfa: sp 176 +
STACK CFI 24684 .cfa: sp 0 +
STACK CFI 24688 .cfa: x29 64 +
STACK CFI 2469c .cfa: sp 176 +
STACK CFI 246b0 .cfa: sp 0 +
STACK CFI 246b4 .cfa: x29 64 +
STACK CFI 246c4 .cfa: sp 176 +
STACK CFI 246d8 .cfa: sp 0 +
STACK CFI 246dc .cfa: x29 64 +
STACK CFI 246ec .cfa: sp 176 +
STACK CFI 24700 .cfa: sp 0 +
STACK CFI 24704 .cfa: x29 64 +
STACK CFI 2471c .cfa: sp 176 +
STACK CFI 24730 .cfa: sp 0 +
STACK CFI 24734 .cfa: x29 64 +
STACK CFI 24748 .cfa: sp 176 +
STACK CFI 2475c .cfa: sp 0 +
STACK CFI 24760 .cfa: x29 64 +
STACK CFI 24778 .cfa: sp 176 +
STACK CFI 2478c .cfa: sp 0 +
STACK CFI 24790 .cfa: x29 64 +
STACK CFI 247bc .cfa: sp 176 +
STACK CFI 247d0 .cfa: sp 0 +
STACK CFI 247d4 .cfa: x29 64 +
STACK CFI 247e8 .cfa: sp 176 +
STACK CFI 247fc .cfa: sp 0 +
STACK CFI 24800 .cfa: x29 64 +
STACK CFI INIT 24820 228 .cfa: sp 0 +
STACK CFI INIT 24a48 2dc .cfa: sp 0 +
STACK CFI INIT 24d24 53c .cfa: sp 0 +
STACK CFI INIT 25260 78 .cfa: sp 0 +
STACK CFI 25264 .cfa: sp 48 +
STACK CFI 25270 .cfa: x29 48 + x19: .cfa -8 + ^ x20: .cfa -16 + ^ x21: .cfa -24 + ^ x22: .cfa -32 + ^ .ra: .cfa -40 + ^ x29: .cfa -48 + ^
STACK CFI 252b8 .cfa: sp 48 +
STACK CFI 252c4 .cfa: sp 0 +
STACK CFI 252c8 .cfa: sp 48 +
STACK CFI 252d4 .cfa: sp 0 +
STACK CFI INIT 252d8 8c .cfa: sp 0 +
STACK CFI 252dc .cfa: sp 32 +
STACK CFI 252e4 .cfa: x29 32 + x19: .cfa -16 + ^ .ra: .cfa -24 + ^ x29: .cfa -32 + ^
STACK CFI 25318 .cfa: sp 32 +
STACK CFI 25320 .cfa: sp 0 +
STACK CFI 25324 .cfa: x29 32 +
STACK CFI 25358 .cfa: sp 32 +
STACK CFI 25360 .cfa: sp 0 +
STACK CFI INIT 25364 24 .cfa: sp 0 +
STACK CFI 25368 .cfa: sp 32 +
STACK CFI 25370 .cfa: x29 32 + x19: .cfa -16 + ^ .ra: .cfa -24 + ^ x29: .cfa -32 + ^
STACK CFI 2537c .cfa: sp 32 +
STACK CFI 25384 .cfa: sp 0 +
STACK CFI INIT 25388 150 .cfa: sp 0 +
STACK CFI 2538c .cfa: sp 48 +
STACK CFI 25398 .cfa: x29 48 + x19: .cfa -8 + ^ x20: .cfa -16 + ^ x21: .cfa -24 + ^ x22: .cfa -32 + ^ .ra: .cfa -40 + ^ x29: .cfa -48 + ^
STACK CFI 254c8 .cfa: sp 48 +
STACK CFI 254d4 .cfa: sp 0 +
STACK CFI INIT 254d8 68 .cfa: sp 0 +
STACK CFI 254dc .cfa: sp 64 +
STACK CFI 254e8 .cfa: x29 32 + x19: .cfa -16 + ^ .ra: .cfa -24 + ^ x29: .cfa -32 + ^
STACK CFI 2552c .cfa: sp 64 +
STACK CFI 25538 .cfa: sp 0 +
STACK CFI 2553c .cfa: x29 32 +
STACK CFI INIT 25540 90 .cfa: sp 0 +
STACK CFI 25544 .cfa: sp 32 +
STACK CFI 2554c .cfa: x29 32 + x19: .cfa -8 + ^ x20: .cfa -16 + ^ .ra: .cfa -24 + ^ x29: .cfa -32 + ^
STACK CFI 25578 .cfa: sp 32 +
STACK CFI 25580 .cfa: sp 0 +
STACK CFI 25584 .cfa: x29 32 +
STACK CFI 255c4 .cfa: sp 32 +
STACK CFI 255cc .cfa: sp 0 +
STACK CFI INIT 255d0 ec .cfa: sp 0 +
STACK CFI 255d4 .cfa: sp 112 +
STACK CFI 255e4 .cfa: x29 48 + x19: .cfa -8 + ^ x20: .cfa -16 + ^ x21: .cfa -32 + ^ .ra: .cfa -40 + ^ x29: .cfa -48 + ^
STACK CFI 256a4 .cfa: sp 112 +
STACK CFI 256b4 .cfa: sp 0 +
STACK CFI 256b8 .cfa: x29 48 +
STACK CFI INIT 256bc ec .cfa: sp 0 +
STACK CFI 256c0 .cfa: sp 112 +
STACK CFI 256d0 .cfa: x29 48 + x19: .cfa -8 + ^ x20: .cfa -16 + ^ x21: .cfa -32 + ^ .ra: .cfa -40 + ^ x29: .cfa -48 + ^
STACK CFI 25790 .cfa: sp 112 +
STACK CFI 257a0 .cfa: sp 0 +
STACK CFI 257a4 .cfa: x29 48 +
STACK CFI INIT 257a8 48 .cfa: sp 0 +
STACK CFI 257ac .cfa: sp 32 +
STACK CFI 257b4 .cfa: x29 32 + x19: .cfa -8 + ^ x20: .cfa -16 + ^ .ra: .cfa -24 + ^ x29: .cfa -32 + ^
STACK CFI 257d8 .cfa: sp 32 +
STACK CFI 257e0 .cfa: sp 0 +
STACK CFI 257e4 .cfa: x29 32 +
STACK CFI INIT 257f0 98 .cfa: sp 0 +
STACK CFI 257f4 .cfa: sp 80 +
STACK CFI 25800 .cfa: x29 32 + x19: .cfa -16 + ^ .ra: .cfa -24 + ^ x29: .cfa -32 + ^
STACK CFI 25874 .cfa: sp 80 +
STACK CFI 25880 .cfa: sp 0 +
STACK CFI 25884 .cfa: x29 32 +
STACK CFI INIT 25888 260 .cfa: sp 0 +
STACK CFI 2588c .cfa: sp 112 +
STACK CFI 258a4 .cfa: x29 80 + x19: .cfa -8 + ^ x20: .cfa -16 + ^ x21: .cfa -24 + ^ x22: .cfa -32 + ^ x23: .cfa -40 + ^ x24: .cfa -48 + ^ x25: .cfa -64 + ^ .ra: .cfa -72 + ^ x29: .cfa -80 + ^
STACK CFI 25a88 .cfa: sp 112 +
STACK CFI 25aa0 .cfa: sp 0 +
STACK CFI 25aa4 .cfa: x29 80 +
STACK CFI INIT 25ae8 150 .cfa: sp 0 +
STACK CFI 25aec .cfa: sp 48 +
STACK CFI 25af8 .cfa: x29 48 + x19: .cfa -8 + ^ x20: .cfa -16 + ^ x21: .cfa -24 + ^ x22: .cfa -32 + ^ .ra: .cfa -40 + ^ x29: .cfa -48 + ^
STACK CFI 25c28 .cfa: sp 48 +
STACK CFI 25c34 .cfa: sp 0 +
STACK CFI INIT 25c38 1e0 .cfa: sp 0 +
STACK CFI 25c3c .cfa: sp 96 +
STACK CFI 25c50 .cfa: x29 64 + x19: .cfa -8 + ^ x20: .cfa -16 + ^ x21: .cfa -24 + ^ x22: .cfa -32 + ^ x23: .cfa -40 + ^ x24: .cfa -48 + ^ .ra: .cfa -56 + ^ x29: .cfa -64 + ^
STACK CFI 25dd0 .cfa: sp 96 +
STACK CFI 25de4 .cfa: sp 0 +
STACK CFI 25de8 .cfa: x29 64 +
STACK CFI INIT 25e18 284 .cfa: sp 0 +
STACK CFI 25e1c .cfa: sp 112 +
STACK CFI 25e34 .cfa: x29 80 + x19: .cfa -8 + ^ x20: .cfa -16 + ^ x21: .cfa -24 + ^ x22: .cfa -32 + ^ x23: .cfa -40 + ^ x24: .cfa -48 + ^ x25: .cfa -64 + ^ .ra: .cfa -72 + ^ x29: .cfa -80 + ^
STACK CFI 2603c .cfa: sp 112 +
STACK CFI 26054 .cfa: sp 0 +
STACK CFI 26058 .cfa: x29 80 +
STACK CFI INIT 2609c 208 .cfa: sp 0 +
STACK CFI 260a0 .cfa: sp 96 +
STACK CFI 260b4 .cfa: x29 64 + x19: .cfa -8 + ^ x20: .cfa -16 + ^ x21: .cfa -24 + ^ x22: .cfa -32 + ^ x23: .cfa -40 + ^ x24: .cfa -48 + ^ .ra: .cfa -56 + ^ x29: .cfa -64 + ^
STACK CFI 2625c .cfa: sp 96 +
STACK CFI 26270 .cfa: sp 0 +
STACK CFI 26274 .cfa: x29 64 +
STACK CFI INIT 262a4 360 .cfa: sp 0 +
STACK CFI 262a8 .cfa: sp 160 +
STACK CFI 262c4 .cfa: x29 96 + x19: .cfa -8 + ^ x20: .cfa -16 + ^ x21: .cfa -24 + ^ x22: .cfa -32 + ^ x23: .cfa -40 + ^ x24: .cfa -48 + ^ x25: .cfa -56 + ^ x26: .cfa -64 + ^ x27: .cfa -72 + ^ x28: .cfa -80 + ^ .ra: .cfa -88 + ^ x29: .cfa -96 + ^
STACK CFI 26590 .cfa: sp 160 +
STACK CFI 265ac .cfa: sp 0 +
STACK CFI 265b0 .cfa: x29 96 +
STACK CFI INIT 26604 314 .cfa: sp 0 +
STACK CFI 26608 .cfa: sp 144 +
STACK CFI 26624 .cfa: x29 96 + x19: .cfa -8 + ^ x20: .cfa -16 + ^ x21: .cfa -24 + ^ x22: .cfa -32 + ^ x23: .cfa -40 + ^ x24: .cfa -48 + ^ x25: .cfa -56 + ^ x26: .cfa -64 + ^ x27: .cfa -72 + ^ x28: .cfa -80 + ^ .ra: .cfa -88 + ^ x29: .cfa -96 + ^
STACK CFI 268a0 .cfa: sp 144 +
STACK CFI 268bc .cfa: sp 0 +
STACK CFI 268c0 .cfa: x29 96 +
STACK CFI INIT 26918 290 .cfa: sp 0 +
STACK CFI 2691c .cfa: sp 128 +
STACK CFI 26934 .cfa: x29 80 + x19: .cfa -8 + ^ x20: .cfa -16 + ^ x21: .cfa -24 + ^ x22: .cfa -32 + ^ x23: .cfa -40 + ^ x24: .cfa -48 + ^ x25: .cfa -56 + ^ x26: .cfa -64 + ^ .ra: .cfa -72 + ^ x29: .cfa -80 + ^
STACK CFI 26b88 .cfa: sp 128 +
STACK CFI 26ba0 .cfa: sp 0 +
STACK CFI 26ba4 .cfa: x29 80 +
STACK CFI INIT 26ba8 dc8 .cfa: sp 0 +
STACK CFI 26bac .cfa: sp 144 +
STACK CFI 26bc8 .cfa: x29 96 + x19: .cfa -8 + ^ x20: .cfa -16 + ^ x21: .cfa -24 + ^ x22: .cfa -32 + ^ x23: .cfa -40 + ^ x24: .cfa -48 + ^ x25: .cfa -56 + ^ x26: .cfa -64 + ^ x27: .cfa -72 + ^ x28: .cfa -80 + ^ .ra: .cfa -88 + ^ x29: .cfa -96 + ^
STACK CFI 27848 .cfa: sp 144 +
STACK CFI 27864 .cfa: sp 0 +
STACK CFI 27868 .cfa: x29 96 +
STACK CFI INIT 27970 1d0 .cfa: sp 0 +
STACK CFI 27974 .cfa: sp 80 +
STACK CFI 27988 .cfa: x29 80 + x19: .cfa -8 + ^ x20: .cfa -16 + ^ x21: .cfa -24 + ^ x22: .cfa -32 + ^ x23: .cfa -40 + ^ x24: .cfa -48 + ^ x25: .cfa -64 + ^ .ra: .cfa -72 + ^ x29: .cfa -80 + ^
STACK CFI 27b28 .cfa: sp 80 +
STACK CFI 27b3c .cfa: sp 0 +
STACK CFI INIT 27b40 23c .cfa: sp 0 +
STACK CFI 27b44 .cfa: sp 112 +
STACK CFI 27b58 .cfa: x29 64 + x19: .cfa -8 + ^ x20: .cfa -16 + ^ x21: .cfa -24 + ^ x22: .cfa -32 + ^ x23: .cfa -40 + ^ x24: .cfa -48 + ^ .ra: .cfa -56 + ^ x29: .cfa -64 + ^
STACK CFI 27d34 .cfa: sp 112 +
STACK CFI 27d48 .cfa: sp 0 +
STACK CFI 27d4c .cfa: x29 64 +
STACK CFI INIT 27d7c 30c .cfa: sp 0 +
STACK CFI 27d80 .cfa: sp 80 +
STACK CFI 27d94 .cfa: x29 64 + x19: .cfa -8 + ^ x20: .cfa -16 + ^ x21: .cfa -24 + ^ x22: .cfa -32 + ^ x23: .cfa -40 + ^ x24: .cfa -48 + ^ .ra: .cfa -56 + ^ x29: .cfa -64 + ^
STACK CFI 27f10 .cfa: sp 80 +
STACK CFI 27f24 .cfa: sp 0 +
STACK CFI 27f28 .cfa: x29 64 +
STACK CFI INIT 28088 178 .cfa: sp 0 +
STACK CFI 2808c .cfa: sp 80 +
STACK CFI 280a0 .cfa: x29 64 + x19: .cfa -8 + ^ x20: .cfa -16 + ^ x21: .cfa -24 + ^ x22: .cfa -32 + ^ x23: .cfa -40 + ^ x24: .cfa -48 + ^ .ra: .cfa -56 + ^ x29: .cfa -64 + ^
STACK CFI 281e4 .cfa: sp 80 +
STACK CFI 281f8 .cfa: sp 0 +
STACK CFI 281fc .cfa: x29 64 +
STACK CFI INIT 28200 178 .cfa: sp 0 +
STACK CFI 28204 .cfa: sp 80 +
STACK CFI 28218 .cfa: x29 64 + x19: .cfa -8 + ^ x20: .cfa -16 + ^ x21: .cfa -24 + ^ x22: .cfa -32 + ^ x23: .cfa -40 + ^ x24: .cfa -48 + ^ .ra: .cfa -56 + ^ x29: .cfa -64 + ^
STACK CFI 2835c .cfa: sp 80 +
STACK CFI 28370 .cfa: sp 0 +
STACK CFI 28374 .cfa: x29 64 +
STACK CFI INIT 28378 240 .cfa: sp 0 +
STACK CFI 2837c .cfa: sp 96 +
STACK CFI 28394 .cfa: x29 96 + x19: .cfa -8 + ^ x20: .cfa -16 + ^ x21: .cfa -24 + ^ x22: .cfa -32 + ^ x23: .cfa -40 + ^ x24: .cfa -48 + ^ x25: .cfa -56 + ^ x26: .cfa -64 + ^ x27: .cfa -72 + ^ x28: .cfa -80 + ^ .ra: .cfa -88 + ^ x29: .cfa -96 + ^
STACK CFI 2859c .cfa: sp 96 +
STACK CFI 285b4 .cfa: sp 0 +
STACK CFI INIT 2922c 154 .cfa: sp 0 +
STACK CFI 29230 .cfa: sp 96 +
STACK CFI 29244 .cfa: x29 64 + x19: .cfa -8 + ^ x20: .cfa -16 + ^ x21: .cfa -24 + ^ x22: .cfa -32 + ^ x23: .cfa -48 + ^ .ra: .cfa -56 + ^ x29: .cfa -64 + ^
STACK CFI 29324 .cfa: sp 96 +
STACK CFI 29338 .cfa: sp 0 +
STACK CFI 2933c .cfa: x29 64 +
STACK CFI INIT 295e8 44 .cfa: sp 0 +
STACK CFI 295ec .cfa: sp 32 +
STACK CFI 295f4 .cfa: x29 32 + x19: .cfa -16 + ^ .ra: .cfa -24 + ^ x29: .cfa -32 + ^
STACK CFI 29610 .cfa: sp 32 +
STACK CFI 29618 .cfa: sp 0 +
STACK CFI 2961c .cfa: x29 32 +
STACK CFI 29620 .cfa: sp 32 +
STACK CFI 29628 .cfa: sp 0 +
STACK CFI INIT 2962c 1d0 .cfa: sp 0 +
STACK CFI 29630 .cfa: sp 64 +
STACK CFI 29640 .cfa: x29 64 + x19: .cfa -8 + ^ x20: .cfa -16 + ^ x21: .cfa -24 + ^ x22: .cfa -32 + ^ x23: .cfa -40 + ^ x24: .cfa -48 + ^ .ra: .cfa -56 + ^ x29: .cfa -64 + ^
STACK CFI 29700 .cfa: sp 64 +
STACK CFI 29710 .cfa: sp 0 +
STACK CFI 29714 .cfa: x29 64 +
STACK CFI INIT 297fc 17c .cfa: sp 0 +
STACK CFI INIT 29d30 a0 .cfa: sp 0 +
STACK CFI 29d34 .cfa: sp 48 +
STACK CFI 29d40 .cfa: x29 48 + x19: .cfa -8 + ^ x20: .cfa -16 + ^ x21: .cfa -24 + ^ x22: .cfa -32 + ^ .ra: .cfa -40 + ^ x29: .cfa -48 + ^
STACK CFI 29dac .cfa: sp 48 +
STACK CFI 29db8 .cfa: sp 0 +
STACK CFI 29dbc .cfa: sp 48 +
STACK CFI 29dc8 .cfa: sp 0 +
STACK CFI 29dcc .cfa: x29 48 +
STACK CFI INIT 2aa80 158 .cfa: sp 0 +
STACK CFI 2aa84 .cfa: sp 96 +
STACK CFI 2aa98 .cfa: x29 64 + x19: .cfa -8 + ^ x20: .cfa -16 + ^ x21: .cfa -24 + ^ x22: .cfa -32 + ^ x23: .cfa -48 + ^ .ra: .cfa -56 + ^ x29: .cfa -64 + ^
STACK CFI 2ab7c .cfa: sp 96 +
STACK CFI 2ab90 .cfa: sp 0 +
STACK CFI 2ab94 .cfa: x29 64 +
STACK CFI INIT 2abd8 190 .cfa: sp 0 +
STACK CFI INIT 2b84c 1dc .cfa: sp 0 +
STACK CFI 2b850 .cfa: sp 80 +
STACK CFI 2b864 .cfa: x29 80 + x19: .cfa -8 + ^ x20: .cfa -16 + ^ x21: .cfa -24 + ^ x22: .cfa -32 + ^ x23: .cfa -40 + ^ x24: .cfa -48 + ^ x25: .cfa -64 + ^ .ra: .cfa -72 + ^ x29: .cfa -80 + ^
STACK CFI 2ba10 .cfa: sp 80 +
STACK CFI 2ba24 .cfa: sp 0 +
STACK CFI INIT 2ce4c 124 .cfa: sp 0 +
STACK CFI 2ce7c .cfa: sp 32 +
STACK CFI 2ce84 .cfa: x29 32 + x19: .cfa -8 + ^ x20: .cfa -16 + ^ .ra: .cfa -24 + ^ x29: .cfa -32 + ^
STACK CFI 2cf64 .cfa: sp 32 +
STACK CFI 2cf6c .cfa: sp 0 +
STACK CFI INIT 2d6cc 324 .cfa: sp 0 +
STACK CFI 2d6d0 .cfa: sp 64 +
STACK CFI 2d6e0 .cfa: x29 64 + x19: .cfa -8 + ^ x20: .cfa -16 + ^ x21: .cfa -24 + ^ x22: .cfa -32 + ^ x23: .cfa -40 + ^ x24: .cfa -48 + ^ .ra: .cfa -56 + ^ x29: .cfa -64 + ^
STACK CFI 2d75c .cfa: sp 64 +
STACK CFI 2d76c .cfa: sp 0 +
STACK CFI 2d770 .cfa: x29 64 +
STACK CFI 2d948 .cfa: sp 64 +
STACK CFI 2d958 .cfa: sp 0 +
STACK CFI 2d95c .cfa: x29 64 +
STACK CFI 2d96c .cfa: sp 64 +
STACK CFI 2d97c .cfa: sp 0 +
STACK CFI 2d980 .cfa: x29 64 +
STACK CFI INIT 2d9f0 a0 .cfa: sp 0 +
STACK CFI 2d9f4 .cfa: sp 48 +
STACK CFI 2da00 .cfa: x29 48 + x19: .cfa -8 + ^ x20: .cfa -16 + ^ x21: .cfa -24 + ^ x22: .cfa -32 + ^ .ra: .cfa -40 + ^ x29: .cfa -48 + ^
STACK CFI 2da6c .cfa: sp 48 +
STACK CFI 2da78 .cfa: sp 0 +
STACK CFI 2da7c .cfa: sp 48 +
STACK CFI 2da88 .cfa: sp 0 +
STACK CFI 2da8c .cfa: x29 48 +
STACK CFI INIT 2e93c 160 .cfa: sp 0 +
STACK CFI 2e940 .cfa: sp 64 +
STACK CFI 2e950 .cfa: x29 64 + x19: .cfa -8 + ^ x20: .cfa -16 + ^ x21: .cfa -24 + ^ x22: .cfa -32 + ^ x23: .cfa -48 + ^ .ra: .cfa -56 + ^ x29: .cfa -64 + ^
STACK CFI 2ea48 .cfa: sp 64 +
STACK CFI 2ea58 .cfa: sp 0 +
STACK CFI 2ea5c .cfa: x29 64 +
STACK CFI INIT 2ea9c 214 .cfa: sp 0 +
STACK CFI 2eaa0 .cfa: sp 128 +
STACK CFI 2eabc .cfa: x29 96 + x19: .cfa -8 + ^ x20: .cfa -16 + ^ x21: .cfa -24 + ^ x22: .cfa -32 + ^ x23: .cfa -40 + ^ x24: .cfa -48 + ^ x25: .cfa -56 + ^ x26: .cfa -64 + ^ x27: .cfa -80 + ^ .ra: .cfa -88 + ^ x29: .cfa -96 + ^
STACK CFI 2ec38 .cfa: sp 128 +
STACK CFI 2ec54 .cfa: sp 0 +
STACK CFI 2ec58 .cfa: x29 96 +
STACK CFI INIT 30914 290 .cfa: sp 0 +
STACK CFI 30918 .cfa: sp 16 +
STACK CFI 3091c .cfa: x29 16 + .ra: .cfa -8 + ^ x29: .cfa -16 + ^
STACK CFI 309a8 .cfa: sp 16 +
STACK CFI 309ac .cfa: sp 0 +
STACK CFI 309b0 .cfa: x29 16 +
STACK CFI 30a00 .cfa: sp 16 +
STACK CFI 30a04 .cfa: sp 0 +
STACK CFI 30a08 .cfa: x29 16 +
STACK CFI 30b6c .cfa: sp 16 +
STACK CFI 30b70 .cfa: sp 0 +
STACK CFI 30b74 .cfa: x29 16 +
STACK CFI INIT 30ba4 134 .cfa: sp 0 +
STACK CFI 30ba8 .cfa: sp 96 +
STACK CFI 30bc0 .cfa: x29 96 + x19: .cfa -8 + ^ x20: .cfa -16 + ^ x21: .cfa -24 + ^ x22: .cfa -32 + ^ x23: .cfa -40 + ^ x24: .cfa -48 + ^ x25: .cfa -56 + ^ x26: .cfa -64 + ^ x27: .cfa -72 + ^ x28: .cfa -80 + ^ .ra: .cfa -88 + ^ x29: .cfa -96 + ^
STACK CFI 30c90 .cfa: sp 96 +
STACK CFI 30c94 .cfa: x29 96 +
STACK CFI 30c98 .cfa: sp 96 +
STACK CFI 30cb0 .cfa: sp 0 +
STACK CFI 30cb4 .cfa: x29 96 +
STACK CFI 30cd4 .cfa: sp 96 +
STACK CFI INIT 30cd8 e4c .cfa: sp 0 +
STACK CFI 30cdc .cfa: sp 192 +
STACK CFI 30cf8 .cfa: x29 96 + x19: .cfa -8 + ^ x20: .cfa -16 + ^ x21: .cfa -24 + ^ x22: .cfa -32 + ^ x23: .cfa -40 + ^ x24: .cfa -48 + ^ x25: .cfa -56 + ^ x26: .cfa -64 + ^ x27: .cfa -72 + ^ x28: .cfa -80 + ^ .ra: .cfa -88 + ^ x29: .cfa -96 + ^
STACK CFI 31a0c .cfa: sp 192 +
STACK CFI 31a28 .cfa: sp 0 +
STACK CFI 31a2c .cfa: x29 96 +
STACK CFI INIT 31b24 1068 .cfa: sp 0 +
STACK CFI 31b28 .cfa: sp 288 +
STACK CFI 31b44 .cfa: x29 96 + x19: .cfa -8 + ^ x20: .cfa -16 + ^ x21: .cfa -24 + ^ x22: .cfa -32 + ^ x23: .cfa -40 + ^ x24: .cfa -48 + ^ x25: .cfa -56 + ^ x26: .cfa -64 + ^ x27: .cfa -72 + ^ x28: .cfa -80 + ^ .ra: .cfa -88 + ^ x29: .cfa -96 + ^
STACK CFI 328d4 .cfa: sp 288 +
STACK CFI 328f0 .cfa: sp 0 +
STACK CFI 328f4 .cfa: x29 96 +
STACK CFI INIT 32b8c 520 .cfa: sp 0 +
STACK CFI 32b90 .cfa: sp 144 +
STACK CFI 32bac .cfa: x29 96 + x19: .cfa -8 + ^ x20: .cfa -16 + ^ x21: .cfa -24 + ^ x22: .cfa -32 + ^ x23: .cfa -40 + ^ x24: .cfa -48 + ^ x25: .cfa -56 + ^ x26: .cfa -64 + ^ x27: .cfa -72 + ^ x28: .cfa -80 + ^ .ra: .cfa -88 + ^ x29: .cfa -96 + ^
STACK CFI 33088 .cfa: sp 144 +
STACK CFI 330a4 .cfa: sp 0 +
STACK CFI 330a8 .cfa: x29 96 +
STACK CFI INIT 33af8 12dc .cfa: sp 0 +
STACK CFI 33afc .cfa: sp 208 +
STACK CFI 33b18 .cfa: x29 96 + x19: .cfa -8 + ^ x20: .cfa -16 + ^ x21: .cfa -24 + ^ x22: .cfa -32 + ^ x23: .cfa -40 + ^ x24: .cfa -48 + ^ x25: .cfa -56 + ^ x26: .cfa -64 + ^ x27: .cfa -72 + ^ x28: .cfa -80 + ^ .ra: .cfa -88 + ^ x29: .cfa -96 + ^
STACK CFI 34db0 .cfa: sp 208 +
STACK CFI 34dcc .cfa: sp 0 +
STACK CFI 34dd0 .cfa: x29 96 +
STACK CFI INIT 34dd4 1b8 .cfa: sp 0 +
STACK CFI INIT 18b80 924 .cfa: sp 0 +
STACK CFI 18b84 .cfa: sp 288 +
STACK CFI 18ba0 .cfa: x29 96 + x19: .cfa -8 + ^ x20: .cfa -16 + ^ x21: .cfa -24 + ^ x22: .cfa -32 + ^ x23: .cfa -40 + ^ x24: .cfa -48 + ^ x25: .cfa -56 + ^ x26: .cfa -64 + ^ x27: .cfa -72 + ^ x28: .cfa -80 + ^ .ra: .cfa -88 + ^ x29: .cfa -96 + ^
STACK CFI 18d54 .cfa: sp 288 +
STACK CFI 18d70 .cfa: sp 0 +
STACK CFI 18d74 .cfa: x29 96 +
STACK CFI 192bc .cfa: sp 288 +
STACK CFI 192d8 .cfa: sp 0 +
STACK CFI 192dc .cfa: x29 96 +
STACK CFI INIT 194bc 44c .cfa: sp 0 +
STACK CFI 194c0 .cfa: sp 224 +
STACK CFI 194dc .cfa: x29 96 + x19: .cfa -8 + ^ x20: .cfa -16 + ^ x21: .cfa -24 + ^ x22: .cfa -32 + ^ x23: .cfa -40 + ^ x24: .cfa -48 + ^ x25: .cfa -56 + ^ x26: .cfa -64 + ^ x27: .cfa -72 + ^ x28: .cfa -80 + ^ .ra: .cfa -88 + ^ x29: .cfa -96 + ^
STACK CFI 197f0 .cfa: sp 224 +
STACK CFI 1980c .cfa: sp 0 +
STACK CFI 19810 .cfa: x29 96 +
STACK CFI INIT 19944 50 .cfa: sp 0 +
STACK CFI 19948 .cfa: sp 32 +
STACK CFI 19950 .cfa: x29 32 + x19: .cfa -8 + ^ x20: .cfa -16 + ^ .ra: .cfa -24 + ^ x29: .cfa -32 + ^
STACK CFI INIT 1a128 634 .cfa: sp 0 +
STACK CFI 1a12c .cfa: sp 128 +
STACK CFI 1a148 .cfa: x29 96 + x19: .cfa -8 + ^ x20: .cfa -16 + ^ x21: .cfa -24 + ^ x22: .cfa -32 + ^ x23: .cfa -40 + ^ x24: .cfa -48 + ^ x25: .cfa -56 + ^ x26: .cfa -64 + ^ x27: .cfa -72 + ^ x28: .cfa -80 + ^ .ra: .cfa -88 + ^ x29: .cfa -96 + ^
STACK CFI 1a6fc .cfa: sp 128 +
STACK CFI 1a718 .cfa: sp 0 +
STACK CFI 1a71c .cfa: x29 96 +
STACK CFI INIT 1a930 37c .cfa: sp 0 +
STACK CFI 1a934 .cfa: sp 208 +
STACK CFI 1a948 .cfa: x29 64 + x19: .cfa -8 + ^ x20: .cfa -16 + ^ x21: .cfa -24 + ^ x22: .cfa -32 + ^ x23: .cfa -40 + ^ x24: .cfa -48 + ^ .ra: .cfa -56 + ^ x29: .cfa -64 + ^
STACK CFI 1ab7c .cfa: sp 208 +
STACK CFI 1ab90 .cfa: sp 0 +
STACK CFI 1ab94 .cfa: x29 64 +
STACK CFI INIT 1acfc 74 .cfa: sp 0 +
STACK CFI 1ad00 .cfa: sp 48 +
STACK CFI 1ad0c .cfa: x29 32 + x19: .cfa -8 + ^ x20: .cfa -16 + ^ .ra: .cfa -24 + ^ x29: .cfa -32 + ^
STACK CFI 1ad58 .cfa: sp 48 +
STACK CFI 1ad64 .cfa: sp 0 +
STACK CFI 1ad68 .cfa: x29 32 +
STACK CFI INIT 1adf0 110 .cfa: sp 0 +
STACK CFI 1adf4 .cfa: sp 96 +
STACK CFI 1ae08 .cfa: x29 64 + x19: .cfa -8 + ^ x20: .cfa -16 + ^ x21: .cfa -24 + ^ x22: .cfa -32 + ^ x23: .cfa -40 + ^ x24: .cfa -48 + ^ .ra: .cfa -56 + ^ x29: .cfa -64 + ^
STACK CFI 1ae50 .cfa: sp 96 +
STACK CFI 1ae64 .cfa: sp 0 +
STACK CFI 1ae68 .cfa: x29 64 +
STACK CFI INIT 1b1d0 154 .cfa: sp 0 +
STACK CFI 1b1d4 .cfa: sp 384 +
STACK CFI 1b1e8 .cfa: x29 64 + x19: .cfa -8 + ^ x20: .cfa -16 + ^ x21: .cfa -24 + ^ x22: .cfa -32 + ^ x23: .cfa -40 + ^ x28: .cfa -48 + ^ .ra: .cfa -56 + ^ x29: .cfa -64 + ^
STACK CFI 1b2cc .cfa: sp 384 +
STACK CFI 1b2e0 .cfa: sp 0 +
STACK CFI 1b2e4 .cfa: x29 64 +
STACK CFI INIT 1b358 134 .cfa: sp 0 +
STACK CFI 1b35c .cfa: sp 80 +
STACK CFI 1b370 .cfa: x29 80 + x19: .cfa -8 + ^ x20: .cfa -16 + ^ x21: .cfa -24 + ^ x22: .cfa -32 + ^ x23: .cfa -40 + ^ x24: .cfa -48 + ^ x25: .cfa -56 + ^ x26: .cfa -64 + ^ .ra: .cfa -72 + ^ x29: .cfa -80 + ^
STACK CFI 1b440 .cfa: sp 80 +
STACK CFI 1b454 .cfa: sp 0 +
STACK CFI 1b458 .cfa: x29 80 +
STACK CFI INIT 1b530 1a4 .cfa: sp 0 +
STACK CFI 1b534 .cfa: sp 112 +
STACK CFI 1b54c .cfa: x29 80 + x19: .cfa -8 + ^ x20: .cfa -16 + ^ x21: .cfa -24 + ^ x22: .cfa -32 + ^ x23: .cfa -40 + ^ x24: .cfa -48 + ^ x25: .cfa -56 + ^ x26: .cfa -64 + ^ .ra: .cfa -72 + ^ x29: .cfa -80 + ^
STACK CFI 1b63c .cfa: sp 112 +
STACK CFI 1b654 .cfa: sp 0 +
STACK CFI 1b658 .cfa: x29 80 +
STACK CFI INIT 1b6d4 1ec .cfa: sp 0 +
STACK CFI 1b6d8 .cfa: sp 128 +
STACK CFI 1b6f4 .cfa: x29 96 + x19: .cfa -8 + ^ x20: .cfa -16 + ^ x21: .cfa -24 + ^ x22: .cfa -32 + ^ x23: .cfa -40 + ^ x24: .cfa -48 + ^ x25: .cfa -56 + ^ x26: .cfa -64 + ^ x27: .cfa -80 + ^ .ra: .cfa -88 + ^ x29: .cfa -96 + ^
STACK CFI 1b870 .cfa: sp 128 +
STACK CFI 1b88c .cfa: sp 0 +
STACK CFI 1b890 .cfa: x29 96 +
STACK CFI INIT 1b8c0 170 .cfa: sp 0 +
STACK CFI 1b8c4 .cfa: sp 48 +
STACK CFI 1b8d0 .cfa: x29 48 + x19: .cfa -8 + ^ x20: .cfa -16 + ^ x21: .cfa -32 + ^ .ra: .cfa -40 + ^ x29: .cfa -48 + ^
STACK CFI 1ba04 .cfa: sp 48 +
STACK CFI 1ba10 .cfa: sp 0 +
STACK CFI 1ba14 .cfa: x29 48 +
STACK CFI INIT 1bc00 50 .cfa: sp 0 +
STACK CFI 1bc04 .cfa: sp 32 +
STACK CFI 1bc0c .cfa: x29 32 + x19: .cfa -8 + ^ x20: .cfa -16 + ^ .ra: .cfa -24 + ^ x29: .cfa -32 + ^
STACK CFI INIT 1bc80 168 .cfa: sp 0 +
STACK CFI 1bc84 .cfa: sp 384 +
STACK CFI 1bc98 .cfa: x29 64 + x19: .cfa -8 + ^ x20: .cfa -16 + ^ x21: .cfa -24 + ^ x22: .cfa -32 + ^ x23: .cfa -40 + ^ x28: .cfa -48 + ^ .ra: .cfa -56 + ^ x29: .cfa -64 + ^
STACK CFI 1bd90 .cfa: sp 384 +
STACK CFI 1bda4 .cfa: sp 0 +
STACK CFI 1bda8 .cfa: x29 64 +
STACK CFI INIT 1be7c 164 .cfa: sp 0 +
STACK CFI 1be80 .cfa: sp 112 +
STACK CFI 1be90 .cfa: x29 48 + x19: .cfa -8 + ^ x20: .cfa -16 + ^ x21: .cfa -24 + ^ x22: .cfa -32 + ^ .ra: .cfa -40 + ^ x29: .cfa -48 + ^
STACK CFI 1bf7c .cfa: sp 112 +
STACK CFI 1bf8c .cfa: sp 0 +
STACK CFI 1bf90 .cfa: x29 48 +
STACK CFI INIT 1c1b0 1ac .cfa: sp 0 +
STACK CFI 1c1b4 .cfa: sp 128 +
STACK CFI 1c1cc .cfa: x29 80 + x19: .cfa -8 + ^ x20: .cfa -16 + ^ x21: .cfa -24 + ^ x22: .cfa -32 + ^ x23: .cfa -40 + ^ x24: .cfa -48 + ^ x25: .cfa -64 + ^ .ra: .cfa -72 + ^ x29: .cfa -80 + ^
STACK CFI 1c2f0 .cfa: sp 128 +
STACK CFI 1c308 .cfa: sp 0 +
STACK CFI 1c30c .cfa: x29 80 +
STACK CFI INIT 1c900 388 .cfa: sp 0 +
STACK CFI 1c904 .cfa: sp 96 +
STACK CFI 1c918 .cfa: x29 64 + x19: .cfa -8 + ^ x20: .cfa -16 + ^ x21: .cfa -24 + ^ x22: .cfa -32 + ^ x23: .cfa -40 + ^ x24: .cfa -48 + ^ .ra: .cfa -56 + ^ x29: .cfa -64 + ^
STACK CFI 1cc3c .cfa: sp 96 +
STACK CFI 1cc50 .cfa: sp 0 +
STACK CFI 1cc54 .cfa: x29 64 +
STACK CFI INIT 1cd84 624 .cfa: sp 0 +
STACK CFI 1cd88 .cfa: sp 304 +
STACK CFI 1cda4 .cfa: x29 96 + x19: .cfa -8 + ^ x20: .cfa -16 + ^ x21: .cfa -24 + ^ x22: .cfa -32 + ^ x23: .cfa -40 + ^ x24: .cfa -48 + ^ x25: .cfa -56 + ^ x26: .cfa -64 + ^ x27: .cfa -72 + ^ x28: .cfa -80 + ^ .ra: .cfa -88 + ^ x29: .cfa -96 + ^
STACK CFI 1d290 .cfa: sp 304 +
STACK CFI 1d2ac .cfa: sp 0 +
STACK CFI 1d2b0 .cfa: x29 96 +
STACK CFI INIT 1d3a8 1d3c .cfa: sp 0 +
STACK CFI 1d3ac .cfa: sp 464 +
STACK CFI 1d3d8 .cfa: x29 96 + x19: .cfa -8 + ^ x20: .cfa -16 + ^ x21: .cfa -24 + ^ x22: .cfa -32 + ^ x23: .cfa -40 + ^ x24: .cfa -48 + ^ x25: .cfa -56 + ^ x26: .cfa -64 + ^ x27: .cfa -72 + ^ x28: .cfa -80 + ^ .ra: .cfa -88 + ^ x29: .cfa -96 + ^ v8: .cfa -104 + ^ v9: .cfa -112 + ^ v10: .cfa -120 + ^ v11: .cfa -128 + ^ v12: .cfa -136 + ^ v13: .cfa -144 + ^ v14: .cfa -152 + ^ v15: .cfa -160 + ^
STACK CFI 1ed6c .cfa: sp 464 +
STACK CFI 1ed98 .cfa: sp 0 +
STACK CFI 1ed9c .cfa: x29 96 +
STACK CFI INIT 1f0e4 5ec .cfa: sp 0 +
STACK CFI 1f0e8 .cfa: sp 224 +
STACK CFI 1f104 .cfa: x29 96 + x19: .cfa -8 + ^ x20: .cfa -16 + ^ x21: .cfa -24 + ^ x22: .cfa -32 + ^ x23: .cfa -40 + ^ x24: .cfa -48 + ^ x25: .cfa -56 + ^ x26: .cfa -64 + ^ x27: .cfa -72 + ^ x28: .cfa -80 + ^ .ra: .cfa -88 + ^ x29: .cfa -96 + ^
STACK CFI 1f560 .cfa: sp 224 +
STACK CFI 1f57c .cfa: sp 0 +
STACK CFI 1f580 .cfa: x29 96 +
STACK CFI INIT 1f6d0 84 .cfa: sp 0 +
STACK CFI 1f6d4 .cfa: sp 48 +
STACK CFI 1f6e0 .cfa: x29 48 + x19: .cfa -8 + ^ x20: .cfa -16 + ^ x21: .cfa -32 + ^ .ra: .cfa -40 + ^ x29: .cfa -48 + ^
STACK CFI 1f714 .cfa: sp 48 +
STACK CFI 1f720 .cfa: sp 0 +
STACK CFI 1f724 .cfa: x29 48 +
STACK CFI INIT 201fc 354 .cfa: sp 0 +
STACK CFI 20200 .cfa: sp 128 +
STACK CFI 2021c .cfa: x29 96 + x19: .cfa -8 + ^ x20: .cfa -16 + ^ x21: .cfa -24 + ^ x22: .cfa -32 + ^ x23: .cfa -40 + ^ x24: .cfa -48 + ^ x25: .cfa -56 + ^ x26: .cfa -64 + ^ x27: .cfa -72 + ^ x28: .cfa -80 + ^ .ra: .cfa -88 + ^ x29: .cfa -96 + ^
STACK CFI 20468 .cfa: sp 128 +
STACK CFI 20484 .cfa: sp 0 +
STACK CFI 20488 .cfa: sp 128 +
STACK CFI 204a4 .cfa: sp 0 +
STACK CFI 204a8 .cfa: x29 96 +
STACK CFI INIT 20594 1c .cfa: sp 0 +
STACK CFI 20598 .cfa: sp 16 +
STACK CFI 2059c .cfa: x29 16 + .ra: .cfa -8 + ^ x29: .cfa -16 + ^
STACK CFI 205a4 .cfa: sp 16 +
STACK CFI 205a8 .cfa: sp 0 +
STACK CFI 205ac .cfa: x29 16 +
STACK CFI INIT 208b0 1c .cfa: sp 0 +
STACK CFI 208b4 .cfa: sp 16 +
STACK CFI 208b8 .cfa: x29 16 + .ra: .cfa -8 + ^ x29: .cfa -16 + ^
STACK CFI 208c0 .cfa: sp 16 +
STACK CFI 208c4 .cfa: sp 0 +
STACK CFI 208c8 .cfa: x29 16 +
STACK CFI INIT 208cc 1c .cfa: sp 0 +
STACK CFI 208d0 .cfa: sp 16 +
STACK CFI 208d4 .cfa: x29 16 + .ra: .cfa -8 + ^ x29: .cfa -16 + ^
STACK CFI 208dc .cfa: sp 16 +
STACK CFI 208e0 .cfa: sp 0 +
STACK CFI 208e4 .cfa: x29 16 +
STACK CFI INIT 20de0 450 .cfa: sp 0 +
STACK CFI 20de4 .cfa: sp 192 +
STACK CFI 20dfc .cfa: x29 80 + x19: .cfa -8 + ^ x20: .cfa -16 + ^ x21: .cfa -24 + ^ x22: .cfa -32 + ^ x23: .cfa -40 + ^ x24: .cfa -48 + ^ x25: .cfa -64 + ^ .ra: .cfa -72 + ^ x29: .cfa -80 + ^
STACK CFI 210d8 .cfa: sp 192 +
STACK CFI 210f0 .cfa: sp 0 +
STACK CFI 210f4 .cfa: x29 80 +
STACK CFI INIT 21234 1c4 .cfa: sp 0 +
STACK CFI 21238 .cfa: sp 160 +
STACK CFI 21250 .cfa: x29 80 + x19: .cfa -8 + ^ x20: .cfa -16 + ^ x21: .cfa -24 + ^ x22: .cfa -32 + ^ x23: .cfa -40 + ^ x24: .cfa -48 + ^ x25: .cfa -56 + ^ x26: .cfa -64 + ^ .ra: .cfa -72 + ^ x29: .cfa -80 + ^
STACK CFI 21384 .cfa: sp 160 +
STACK CFI 2139c .cfa: sp 0 +
STACK CFI 213a0 .cfa: x29 80 +
STACK CFI INIT 21508 cc .cfa: sp 0 +
STACK CFI 2150c .cfa: sp 48 +
STACK CFI 21518 .cfa: x29 48 + x19: .cfa -8 + ^ x20: .cfa -16 + ^ x21: .cfa -24 + ^ x22: .cfa -32 + ^ .ra: .cfa -40 + ^ x29: .cfa -48 + ^
STACK CFI 21564 .cfa: sp 48 +
STACK CFI 21570 .cfa: sp 0 +
STACK CFI 21574 .cfa: x29 48 +
STACK CFI 21578 .cfa: sp 48 +
STACK CFI 21584 .cfa: sp 0 +
STACK CFI 21588 .cfa: x29 48 +
STACK CFI INIT 2173c e4 .cfa: sp 0 +
STACK CFI 21740 .cfa: sp 64 +
STACK CFI 21750 .cfa: x29 64 + x19: .cfa -8 + ^ x20: .cfa -16 + ^ x21: .cfa -24 + ^ x22: .cfa -32 + ^ x23: .cfa -48 + ^ .ra: .cfa -56 + ^ x29: .cfa -64 + ^
STACK CFI 217e0 .cfa: sp 64 +
STACK CFI 217f0 .cfa: sp 0 +
STACK CFI 217f4 .cfa: x29 64 +
STACK CFI INIT 21820 1c .cfa: sp 0 +
STACK CFI 21824 .cfa: sp 16 +
STACK CFI 21828 .cfa: x29 16 + .ra: .cfa -8 + ^ x29: .cfa -16 + ^
STACK CFI 21830 .cfa: sp 16 +
STACK CFI 21834 .cfa: sp 0 +
STACK CFI 21838 .cfa: x29 16 +
STACK CFI INIT 21900 134 .cfa: sp 0 +
STACK CFI 21904 .cfa: sp 80 +
STACK CFI 21910 .cfa: x29 32 + x19: .cfa -8 + ^ x20: .cfa -16 + ^ .ra: .cfa -24 + ^ x29: .cfa -32 + ^
STACK CFI 21940 .cfa: sp 80 +
STACK CFI 2194c .cfa: sp 0 +
STACK CFI 21950 .cfa: x29 32 +
STACK CFI INIT 21a34 78 .cfa: sp 0 +
STACK CFI 21a38 .cfa: sp 32 +
STACK CFI 21a40 .cfa: x29 32 + x19: .cfa -8 + ^ x20: .cfa -16 + ^ .ra: .cfa -24 + ^ x29: .cfa -32 + ^
STACK CFI 21a4c .cfa: sp 32 +
STACK CFI 21a54 .cfa: sp 0 +
STACK CFI 21a58 .cfa: x29 32 +
STACK CFI INIT 21aac 74 .cfa: sp 0 +
STACK CFI 21ab0 .cfa: sp 48 +
STACK CFI 21abc .cfa: x29 32 + x19: .cfa -8 + ^ x20: .cfa -16 + ^ .ra: .cfa -24 + ^ x29: .cfa -32 + ^
STACK CFI 21b08 .cfa: sp 48 +
STACK CFI 21b14 .cfa: sp 0 +
STACK CFI 21b18 .cfa: x29 32 +
STACK CFI INIT 21c20 278 .cfa: sp 0 +
STACK CFI 21c24 .cfa: sp 112 +
STACK CFI 21c34 .cfa: x29 48 + x19: .cfa -8 + ^ x20: .cfa -16 + ^ x21: .cfa -32 + ^ .ra: .cfa -40 + ^ x29: .cfa -48 + ^
STACK CFI 21d40 .cfa: sp 112 +
STACK CFI 21d50 .cfa: sp 0 +
STACK CFI 21d54 .cfa: x29 48 +
STACK CFI INIT 21e98 2d8 .cfa: sp 0 +
STACK CFI 21e9c .cfa: sp 128 +
STACK CFI 21eb0 .cfa: x29 64 + x19: .cfa -8 + ^ x20: .cfa -16 + ^ x21: .cfa -24 + ^ x22: .cfa -32 + ^ x23: .cfa -48 + ^ .ra: .cfa -56 + ^ x29: .cfa -64 + ^
STACK CFI 2201c .cfa: sp 128 +
STACK CFI 22030 .cfa: sp 0 +
STACK CFI 22034 .cfa: x29 64 +
STACK CFI INIT 2222c 2c8 .cfa: sp 0 +
STACK CFI 22230 .cfa: sp 128 +
STACK CFI 22244 .cfa: x29 64 + x19: .cfa -8 + ^ x20: .cfa -16 + ^ x21: .cfa -24 + ^ x22: .cfa -32 + ^ x23: .cfa -48 + ^ .ra: .cfa -56 + ^ x29: .cfa -64 + ^
STACK CFI 223a0 .cfa: sp 128 +
STACK CFI 223b4 .cfa: sp 0 +
STACK CFI 223b8 .cfa: x29 64 +
STACK CFI INIT 224f4 278 .cfa: sp 0 +
STACK CFI 224f8 .cfa: sp 128 +
STACK CFI 2250c .cfa: x29 64 + x19: .cfa -8 + ^ x20: .cfa -16 + ^ x21: .cfa -24 + ^ x22: .cfa -32 + ^ x23: .cfa -48 + ^ .ra: .cfa -56 + ^ x29: .cfa -64 + ^
STACK CFI 22618 .cfa: sp 128 +
STACK CFI 2262c .cfa: sp 0 +
STACK CFI 22630 .cfa: x29 64 +
STACK CFI INIT 2276c 4cc .cfa: sp 0 +
STACK CFI 22770 .cfa: sp 128 +
STACK CFI 22784 .cfa: x29 64 + x19: .cfa -8 + ^ x20: .cfa -16 + ^ x21: .cfa -24 + ^ x22: .cfa -32 + ^ x23: .cfa -48 + ^ .ra: .cfa -56 + ^ x29: .cfa -64 + ^
STACK CFI 22a90 .cfa: sp 128 +
STACK CFI 22aa4 .cfa: sp 0 +
STACK CFI 22aa8 .cfa: x29 64 +
STACK CFI INIT 22c38 154 .cfa: sp 0 +
STACK CFI 22c3c .cfa: sp 384 +
STACK CFI 22c50 .cfa: x29 64 + x19: .cfa -8 + ^ x20: .cfa -16 + ^ x21: .cfa -24 + ^ x22: .cfa -32 + ^ x23: .cfa -40 + ^ x28: .cfa -48 + ^ .ra: .cfa -56 + ^ x29: .cfa -64 + ^
STACK CFI 22d34 .cfa: sp 384 +
STACK CFI 22d48 .cfa: sp 0 +
STACK CFI 22d4c .cfa: x29 64 +
STACK CFI INIT 22da4 4e0 .cfa: sp 0 +
STACK CFI 22da8 .cfa: sp 64 +
STACK CFI 22db8 .cfa: x29 64 + x19: .cfa -8 + ^ x20: .cfa -16 + ^ x21: .cfa -24 + ^ x22: .cfa -32 + ^ x23: .cfa -40 + ^ x24: .cfa -48 + ^ .ra: .cfa -56 + ^ x29: .cfa -64 + ^
STACK CFI 23258 .cfa: sp 64 +
STACK CFI 23268 .cfa: sp 0 +
STACK CFI 2326c .cfa: x29 64 +
STACK CFI INIT 235b4 294 .cfa: sp 0 +
STACK CFI 235b8 .cfa: sp 240 +
STACK CFI 235d0 .cfa: x29 80 + x19: .cfa -8 + ^ x20: .cfa -16 + ^ x21: .cfa -24 + ^ x22: .cfa -32 + ^ x23: .cfa -40 + ^ x24: .cfa -48 + ^ x25: .cfa -64 + ^ .ra: .cfa -72 + ^ x29: .cfa -80 + ^
STACK CFI 23770 .cfa: sp 240 +
STACK CFI 23788 .cfa: sp 0 +
STACK CFI 2378c .cfa: x29 80 +
STACK CFI INIT 238c4 50 .cfa: sp 0 +
STACK CFI 238c8 .cfa: sp 32 +
STACK CFI 238d0 .cfa: x29 32 + x19: .cfa -8 + ^ x20: .cfa -16 + ^ .ra: .cfa -24 + ^ x29: .cfa -32 + ^
STACK CFI INIT 23940 7c0 .cfa: sp 0 +
STACK CFI 23944 .cfa: sp 320 +
STACK CFI 23960 .cfa: x29 96 + x19: .cfa -8 + ^ x20: .cfa -16 + ^ x21: .cfa -24 + ^ x22: .cfa -32 + ^ x23: .cfa -40 + ^ x24: .cfa -48 + ^ x25: .cfa -56 + ^ x26: .cfa -64 + ^ x27: .cfa -72 + ^ x28: .cfa -80 + ^ .ra: .cfa -88 + ^ x29: .cfa -96 + ^
STACK CFI 23fb0 .cfa: sp 320 +
STACK CFI 23fcc .cfa: sp 0 +
STACK CFI 23fd0 .cfa: x29 96 +
STACK CFI INIT 24164 14c .cfa: sp 0 +
STACK CFI 24168 .cfa: sp 80 +
STACK CFI 2417c .cfa: x29 80 + x19: .cfa -8 + ^ x20: .cfa -16 + ^ x21: .cfa -24 + ^ x22: .cfa -32 + ^ x23: .cfa -40 + ^ x24: .cfa -48 + ^ x28: .cfa -64 + ^ .ra: .cfa -72 + ^ x29: .cfa -80 + ^
STACK CFI 24210 .cfa: sp 80 +
STACK CFI 24224 .cfa: sp 0 +
STACK CFI 24228 .cfa: x29 80 +
STACK CFI INIT 285b8 c74 .cfa: sp 0 +
STACK CFI 285bc .cfa: sp 96 +
STACK CFI 285d4 .cfa: x29 96 + x19: .cfa -8 + ^ x20: .cfa -16 + ^ x21: .cfa -24 + ^ x22: .cfa -32 + ^ x23: .cfa -40 + ^ x24: .cfa -48 + ^ x25: .cfa -56 + ^ x26: .cfa -64 + ^ x27: .cfa -72 + ^ x28: .cfa -80 + ^ .ra: .cfa -88 + ^ x29: .cfa -96 + ^
STACK CFI 29048 .cfa: sp 96 +
STACK CFI 29060 .cfa: sp 0 +
STACK CFI 29064 .cfa: x29 96 +
STACK CFI INIT 29380 268 .cfa: sp 0 +
STACK CFI 29384 .cfa: sp 128 +
STACK CFI 29394 .cfa: x29 48 + x19: .cfa -8 + ^ x20: .cfa -16 + ^ x21: .cfa -24 + ^ x22: .cfa -32 + ^ .ra: .cfa -40 + ^ x29: .cfa -48 + ^
STACK CFI 29534 .cfa: sp 128 +
STACK CFI 29544 .cfa: sp 0 +
STACK CFI 29548 .cfa: x29 48 +
STACK CFI INIT 29978 3b8 .cfa: sp 0 +
STACK CFI 2997c .cfa: sp 96 +
STACK CFI 29994 .cfa: x29 96 + x19: .cfa -8 + ^ x20: .cfa -16 + ^ x21: .cfa -24 + ^ x22: .cfa -32 + ^ x23: .cfa -40 + ^ x24: .cfa -48 + ^ x25: .cfa -56 + ^ x26: .cfa -64 + ^ x27: .cfa -72 + ^ x28: .cfa -80 + ^ .ra: .cfa -88 + ^ x29: .cfa -96 + ^
STACK CFI 29cd0 .cfa: sp 96 +
STACK CFI 29ce8 .cfa: sp 0 +
STACK CFI 29cec .cfa: x29 96 +
STACK CFI INIT 29dd0 cb0 .cfa: sp 0 +
STACK CFI 29dd4 .cfa: sp 96 +
STACK CFI 29dec .cfa: x29 96 + x19: .cfa -8 + ^ x20: .cfa -16 + ^ x21: .cfa -24 + ^ x22: .cfa -32 + ^ x23: .cfa -40 + ^ x24: .cfa -48 + ^ x25: .cfa -56 + ^ x26: .cfa -64 + ^ x27: .cfa -72 + ^ x28: .cfa -80 + ^ .ra: .cfa -88 + ^ x29: .cfa -96 + ^
STACK CFI 2a890 .cfa: sp 96 +
STACK CFI 2a8a8 .cfa: sp 0 +
STACK CFI 2a8ac .cfa: x29 96 +
STACK CFI INIT 2ad68 ae4 .cfa: sp 0 +
STACK CFI 2ad6c .cfa: sp 96 +
STACK CFI 2ad84 .cfa: x29 96 + x19: .cfa -8 + ^ x20: .cfa -16 + ^ x21: .cfa -24 + ^ x22: .cfa -32 + ^ x23: .cfa -40 + ^ x24: .cfa -48 + ^ x25: .cfa -56 + ^ x26: .cfa -64 + ^ x27: .cfa -72 + ^ x28: .cfa -80 + ^ .ra: .cfa -88 + ^ x29: .cfa -96 + ^
STACK CFI 2b7c0 .cfa: sp 96 +
STACK CFI 2b7d8 .cfa: sp 0 +
STACK CFI 2b7dc .cfa: x29 96 +
STACK CFI INIT 2ba28 1424 .cfa: sp 0 +
STACK CFI 2ba2c .cfa: sp 96 +
STACK CFI 2ba44 .cfa: x29 96 + x19: .cfa -8 + ^ x20: .cfa -16 + ^ x21: .cfa -24 + ^ x22: .cfa -32 + ^ x23: .cfa -40 + ^ x24: .cfa -48 + ^ x25: .cfa -56 + ^ x26: .cfa -64 + ^ x27: .cfa -72 + ^ x28: .cfa -80 + ^ .ra: .cfa -88 + ^ x29: .cfa -96 + ^
STACK CFI 2ccdc .cfa: sp 96 +
STACK CFI 2ccf4 .cfa: sp 0 +
STACK CFI 2ccf8 .cfa: x29 96 +
STACK CFI INIT 2cf70 75c .cfa: sp 0 +
STACK CFI 2cf74 .cfa: sp 368 +
STACK CFI 2cf90 .cfa: x29 96 + x19: .cfa -8 + ^ x20: .cfa -16 + ^ x21: .cfa -24 + ^ x22: .cfa -32 + ^ x23: .cfa -40 + ^ x24: .cfa -48 + ^ x25: .cfa -56 + ^ x26: .cfa -64 + ^ x27: .cfa -72 + ^ x28: .cfa -80 + ^ .ra: .cfa -88 + ^ x29: .cfa -96 + ^
STACK CFI 2d044 .cfa: sp 368 +
STACK CFI 2d060 .cfa: sp 0 +
STACK CFI 2d064 .cfa: x29 96 +
STACK CFI 2d0b8 .cfa: sp 368 +
STACK CFI 2d0d4 .cfa: sp 0 +
STACK CFI 2d0d8 .cfa: x29 96 +
STACK CFI INIT 2da90 eac .cfa: sp 0 +
STACK CFI 2da94 .cfa: sp 96 +
STACK CFI 2daac .cfa: x29 96 + x19: .cfa -8 + ^ x20: .cfa -16 + ^ x21: .cfa -24 + ^ x22: .cfa -32 + ^ x23: .cfa -40 + ^ x24: .cfa -48 + ^ x25: .cfa -56 + ^ x26: .cfa -64 + ^ x27: .cfa -72 + ^ x28: .cfa -80 + ^ .ra: .cfa -88 + ^ x29: .cfa -96 + ^
STACK CFI 2e750 .cfa: sp 96 +
STACK CFI 2e768 .cfa: sp 0 +
STACK CFI 2e76c .cfa: x29 96 +
STACK CFI INIT 2ecb0 1c64 .cfa: sp 0 +
STACK CFI 2ecb4 .cfa: sp 112 +
STACK CFI 2ecd0 .cfa: x29 96 + x19: .cfa -8 + ^ x20: .cfa -16 + ^ x21: .cfa -24 + ^ x22: .cfa -32 + ^ x23: .cfa -40 + ^ x24: .cfa -48 + ^ x25: .cfa -56 + ^ x26: .cfa -64 + ^ x27: .cfa -72 + ^ x28: .cfa -80 + ^ .ra: .cfa -88 + ^ x29: .cfa -96 + ^ v8: .cfa -112 + ^
STACK CFI 2f0a4 .cfa: sp 112 +
STACK CFI 2f0c0 .cfa: sp 0 +
STACK CFI 2f0c4 .cfa: x29 96 +
STACK CFI INIT 330ac a4c .cfa: sp 0 +
STACK CFI 330b0 .cfa: sp 144 +
STACK CFI 330c8 .cfa: x29 80 + x19: .cfa -8 + ^ x20: .cfa -16 + ^ x21: .cfa -24 + ^ x22: .cfa -32 + ^ x23: .cfa -40 + ^ x24: .cfa -48 + ^ x25: .cfa -64 + ^ .ra: .cfa -72 + ^ x29: .cfa -80 + ^
STACK CFI 33a50 .cfa: sp 144 +
STACK CFI 33a68 .cfa: sp 0 +
STACK CFI 33a6c .cfa: x29 80 +
STACK CFI INIT 34f8c 57c .cfa: sp 0 +
STACK CFI 34f90 .cfa: sp 96 +
STACK CFI 34fa8 .cfa: x29 96 + x19: .cfa -8 + ^ x20: .cfa -16 + ^ x21: .cfa -24 + ^ x22: .cfa -32 + ^ x23: .cfa -40 + ^ x24: .cfa -48 + ^ x25: .cfa -56 + ^ x26: .cfa -64 + ^ x27: .cfa -72 + ^ x28: .cfa -80 + ^ .ra: .cfa -88 + ^ x29: .cfa -96 + ^
STACK CFI 3546c .cfa: sp 96 +
STACK CFI 35484 .cfa: sp 0 +
STACK CFI 35488 .cfa: x29 96 +
STACK CFI INIT 35508 67c .cfa: sp 0 +
STACK CFI 3550c .cfa: sp 96 +
STACK CFI 35524 .cfa: x29 96 + x19: .cfa -8 + ^ x20: .cfa -16 + ^ x21: .cfa -24 + ^ x22: .cfa -32 + ^ x23: .cfa -40 + ^ x24: .cfa -48 + ^ x25: .cfa -56 + ^ x26: .cfa -64 + ^ x27: .cfa -72 + ^ x28: .cfa -80 + ^ .ra: .cfa -88 + ^ x29: .cfa -96 + ^
STACK CFI 35ae8 .cfa: sp 96 +
STACK CFI 35b00 .cfa: sp 0 +
STACK CFI 35b04 .cfa: x29 96 +
