MODULE Linux arm64 4DC7A29AA376F9876276F90CE43791910 user95401.platformered_menu_game.android64.so
INFO CODE_ID 9AA2C74D76A387F96276F90CE43791919917CBB1
INFO GENERATOR mozilla/dump_syms 2.3.4
PUBLIC 5aa0 0 __on_dlclose
PUBLIC 5ab0 0 __emutls_unregister_key
PUBLIC 5ab8 0 __on_dlclose_late
PUBLIC 5ac0 0 __atexit_handler_wrapper
PUBLIC 5ad4 0 atexit
PUBLIC 5af0 0 pthread_atfork
PUBLIC 5b00 0 unwind_phase2
PUBLIC 5c34 0 _Unwind_Resume
PUBLIC 5cb8 0 unwind_phase2_forced
PUBLIC m 5dac 0 __unw_init_local
PUBLIC m 5e54 0 __unw_get_reg
PUBLIC 5ed0 0 __unw_step_stage2
PUBLIC m 5ee4 0 __unw_get_proc_info
PUBLIC m 5f24 0 __unw_resume
PUBLIC 5f4c 0 libunwind::CFI_Parser<libunwind::LocalAddressSpace>::decodeFDE(libunwind::LocalAddressSpace&, unsigned long, libunwind::CFI_Parser<libunwind::LocalAddressSpace>::FDE_Info*, libunwind::CFI_Parser<libunwind::LocalAddressSpace>::CIE_Info*, bool)
PUBLIC 60dc 0 libunwind::CFI_Parser<libunwind::LocalAddressSpace>::parseCIE(libunwind::LocalAddressSpace&, unsigned long, libunwind::CFI_Parser<libunwind::LocalAddressSpace>::CIE_Info*)
PUBLIC 63a4 0 libunwind::AbstractUnwindCursor::~AbstractUnwindCursor()
PUBLIC 63ac 0 libunwind::UnwindCursor<libunwind::LocalAddressSpace, libunwind::Registers_arm64>::~UnwindCursor()
PUBLIC 63b4 0 libunwind::UnwindCursor<libunwind::LocalAddressSpace, libunwind::Registers_arm64>::validReg(int)
PUBLIC 63f8 0 libunwind::UnwindCursor<libunwind::LocalAddressSpace, libunwind::Registers_arm64>::getReg(int)
PUBLIC 64e0 0 libunwind::UnwindCursor<libunwind::LocalAddressSpace, libunwind::Registers_arm64>::setReg(int, unsigned long)
PUBLIC 65c8 0 libunwind::UnwindCursor<libunwind::LocalAddressSpace, libunwind::Registers_arm64>::validFloatReg(int)
PUBLIC 65dc 0 libunwind::UnwindCursor<libunwind::LocalAddressSpace, libunwind::Registers_arm64>::getFloatReg(int)
PUBLIC 65ec 0 libunwind::UnwindCursor<libunwind::LocalAddressSpace, libunwind::Registers_arm64>::setFloatReg(int, double)
PUBLIC 65fc 0 libunwind::UnwindCursor<libunwind::LocalAddressSpace, libunwind::Registers_arm64>::step(bool)
PUBLIC 66ec 0 libunwind::UnwindCursor<libunwind::LocalAddressSpace, libunwind::Registers_arm64>::getInfo(unw_proc_info_t*)
PUBLIC 6730 0 libunwind::UnwindCursor<libunwind::LocalAddressSpace, libunwind::Registers_arm64>::jumpto()
PUBLIC 673c 0 libunwind::UnwindCursor<libunwind::LocalAddressSpace, libunwind::Registers_arm64>::isSignalFrame()
PUBLIC 6748 0 libunwind::UnwindCursor<libunwind::LocalAddressSpace, libunwind::Registers_arm64>::getFunctionName(char*, unsigned long, unsigned long*)
PUBLIC 6774 0 libunwind::UnwindCursor<libunwind::LocalAddressSpace, libunwind::Registers_arm64>::setInfoBasedOnIPRegister(bool)
PUBLIC 69f4 0 libunwind::UnwindCursor<libunwind::LocalAddressSpace, libunwind::Registers_arm64>::getRegisterName(int)
PUBLIC 6a00 0 libunwind::UnwindCursor<libunwind::LocalAddressSpace, libunwind::Registers_arm64>::stepThroughSigReturn(libunwind::Registers_arm64&)
PUBLIC 6b20 0 libunwind::DwarfInstructions<libunwind::LocalAddressSpace, libunwind::Registers_arm64>::stepWithDwarf(libunwind::LocalAddressSpace&, unsigned long, unsigned long, libunwind::Registers_arm64&, bool&, bool)
PUBLIC 6fa8 0 libunwind::CFI_Parser<libunwind::LocalAddressSpace>::parseFDEInstructions(libunwind::LocalAddressSpace&, libunwind::CFI_Parser<libunwind::LocalAddressSpace>::FDE_Info const&, libunwind::CFI_Parser<libunwind::LocalAddressSpace>::CIE_Info const&, unsigned long, int, libunwind::CFI_Parser<libunwind::LocalAddressSpace>::PrologInfo*)
PUBLIC 7bf0 0 libunwind::DwarfInstructions<libunwind::LocalAddressSpace, libunwind::Registers_arm64>::getCFA(libunwind::LocalAddressSpace&, libunwind::CFI_Parser<libunwind::LocalAddressSpace>::PrologInfo const&, libunwind::Registers_arm64 const&)
PUBLIC 7d24 0 libunwind::DwarfInstructions<libunwind::LocalAddressSpace, libunwind::Registers_arm64>::getSavedRegister(libunwind::LocalAddressSpace&, libunwind::Registers_arm64 const&, unsigned long, libunwind::CFI_Parser<libunwind::LocalAddressSpace>::RegisterLocation const&)
PUBLIC 7f34 0 libunwind::LocalAddressSpace::getEncodedP(unsigned long&, unsigned long, unsigned char, unsigned long)
PUBLIC 82c0 0 libunwind::LocalAddressSpace::getULEB128(unsigned long&, unsigned long)
PUBLIC 8488 0 libunwind::DwarfInstructions<libunwind::LocalAddressSpace, libunwind::Registers_arm64>::evaluateExpression(unsigned long, libunwind::LocalAddressSpace&, libunwind::Registers_arm64 const&, unsigned long)
PUBLIC 8e44 0 libunwind::UnwindCursor<libunwind::LocalAddressSpace, libunwind::Registers_arm64>::getInfoFromDwarfSection(unsigned long, libunwind::UnwindInfoSections const&, unsigned int)
PUBLIC 9118 0 libunwind::findUnwindSectionsByPhdr(dl_phdr_info*, unsigned long, void*)
PUBLIC 924c 0 libunwind::EHHeaderParser<libunwind::LocalAddressSpace>::decodeEHHdr(libunwind::LocalAddressSpace&, unsigned long, unsigned long, libunwind::EHHeaderParser<libunwind::LocalAddressSpace>::EHHeaderInfo&)
PUBLIC 936c 0 libunwind::CFI_Parser<libunwind::LocalAddressSpace>::findFDE(libunwind::LocalAddressSpace&, unsigned long, unsigned long, unsigned long, unsigned long, libunwind::CFI_Parser<libunwind::LocalAddressSpace>::FDE_Info*, libunwind::CFI_Parser<libunwind::LocalAddressSpace>::CIE_Info*)
PUBLIC 9534 0 libunwind::EHHeaderParser<libunwind::LocalAddressSpace>::findFDE(libunwind::LocalAddressSpace&, unsigned long, unsigned long, unsigned int, libunwind::CFI_Parser<libunwind::LocalAddressSpace>::FDE_Info*, libunwind::CFI_Parser<libunwind::LocalAddressSpace>::CIE_Info*)
PUBLIC 969c 0 libunwind::EHHeaderParser<libunwind::LocalAddressSpace>::getTableEntrySize(unsigned char)
PUBLIC 9798 0 libunwind::Registers_arm64::getRegisterName(int)
PUBLIC 97c8 0 __libunwind_Registers_arm64_jumpto
PUBLIC m 9858 0 __unw_getcontext
PUBLIC 9900 0 __aarch64_ldadd8_relax
PUBLIC 9930 0 init_have_lse_atomics
PUBLIC 99c8 0 __init_cpu_features_constructor
PUBLIC 9f64 0 __init_cpu_features
PUBLIC 9ff0 0 __aarch64_ldadd8_acq_rel
PUBLIC a020 0 __cxx_global_var_init
PUBLIC a084 0 geode::utils::rndb(int)
PUBLIC a240 0 __cxx_global_var_init.1
PUBLIC ae14 0 geode::modifier::ModifyBase<geode::modifier::ModifyDerive<MenuGameLayerExt, MenuGameLayer> >::~ModifyBase()
PUBLIC ae2c 0 __clang_call_terminate
PUBLIC ae3c 0 std::__ndk1::__throw_length_error[abi:ne180000](char const*)
PUBLIC ae8c 0 std::length_error::length_error[abi:ne180000](char const*)
PUBLIC aebc 0 std::__throw_bad_array_new_length([abi:ne180000], void)
PUBLIC aef0 0 std::__ndk1::random_device::random_device[abi:ne180000]()
PUBLIC af9c 0 std::__ndk1::basic_string<char, std::__ndk1::char_traits<char>, std::__ndk1::allocator<char> >::__throw_length_error[abi:ne180000]() const
PUBLIC afb0 0 std::__ndk1::uniform_int_distribution<int>::operator()<std::__ndk1::mersenne_twister_engine<unsigned long, (unsigned long)32, (unsigned long)624, (unsigned long)397, (unsigned long)31, (unsigned long)2567483615, (unsigned long)11, (unsigned long)4294967295, (unsigned long)7, (unsigned long)2636928640, (unsigned long)15, (unsigned long)4022730752, (unsigned long)18, (unsigned long)1812433253> >(std::__ndk1::mersenne_twister_engine<unsigned long, (unsigned long)32, (unsigned long)624, (unsigned long)397, (unsigned long)31, (unsigned long)2567483615, (unsigned long)11, (unsigned long)4294967295, (unsigned long)7, (unsigned long)2636928640, (unsigned long)15, (unsigned long)4022730752, (unsigned long)18, (unsigned long)1812433253>&, std::__ndk1::uniform_int_distribution<int>::param_type const&)
PUBLIC b0f8 0 std::__ndk1::__independent_bits_engine<std::__ndk1::mersenne_twister_engine<unsigned long, (unsigned long)32, (unsigned long)624, (unsigned long)397, (unsigned long)31, (unsigned long)2567483615, (unsigned long)11, (unsigned long)4294967295, (unsigned long)7, (unsigned long)2636928640, (unsigned long)15, (unsigned long)4022730752, (unsigned long)18, (unsigned long)1812433253>, unsigned int>::__eval(std::__ndk1::integral_constant<bool, true>)
PUBLIC b2f8 0 geode::modifier::ModifyDerive<MenuGameLayerExt, MenuGameLayer>::apply()
PUBLIC bc30 0 std::__ndk1::shared_ptr<geode::Hook>::~shared_ptr[abi:ne180000]()
PUBLIC bc80 0 geode::impl::ResultData<geode::Hook*, std::__ndk1::basic_string<char, std::__ndk1::char_traits<char>, std::__ndk1::allocator<char> > >::~ResultData()
PUBLIC bcf4 0 std::__ndk1::vector<std::__ndk1::basic_string<char, std::__ndk1::char_traits<char>, std::__ndk1::allocator<char> >, std::__ndk1::allocator<std::__ndk1::basic_string<char, std::__ndk1::char_traits<char>, std::__ndk1::allocator<char> > > >::~vector[abi:ne180000]()
PUBLIC bd70 0 geode::modifier::ModifyBase<geode::modifier::ModifyDerive<MenuGameLayerExt, MenuGameLayer> >::apply()
PUBLIC bd74 0 _ZN5geode15UnwrapExceptionC2IRPNS_4HookEQsr4implE18IsStringStreamableIT_EEENS_4impl5OkTagEOS5_
PUBLIC bec8 0 std::__ndk1::__throw_bad_variant_access[abi:ne180000]()
PUBLIC befc 0 std::__ndk1::basic_stringstream<char, std::__ndk1::char_traits<char>, std::__ndk1::allocator<char> >::basic_stringstream[abi:ne180000]()
PUBLIC m c028 0 std::__ndk1::basic_stringstream<char, std::__ndk1::char_traits<char>, std::__ndk1::allocator<char> >::~basic_stringstream()
PUBLIC c0a8 0 geode::UnwrapException::~UnwrapException()
PUBLIC c0cc 0 std::__ndk1::__put_character_sequence[abi:ne180000]<char, std::__ndk1::char_traits<char> >(std::__ndk1::basic_ostream<char, std::__ndk1::char_traits<char> >, std::__ndk1::basic_ostream const*, unsigned long)
PUBLIC c270 0 std::__ndk1::__pad_and_output[abi:ne180000]<char, std::__ndk1::char_traits<char> >(std::__ndk1::char_traits<char>, std::__ndk1::ostreambuf_iterator const*, std::__ndk1::ostreambuf_iterator const, std::__ndk1::ostreambuf_iterator const, std::__ndk1::ios_base&, std::__ndk1::ostreambuf_iterator)
PUBLIC c44c 0 std::__ndk1::basic_stringbuf<char, std::__ndk1::char_traits<char>, std::__ndk1::allocator<char> >::str[abi:ne180000]() &&
PUBLIC c5c4 0 std::__ndk1::basic_stringbuf<char, std::__ndk1::char_traits<char>, std::__ndk1::allocator<char> >::__init_buf_ptrs[abi:ne180000]()
PUBLIC c70c 0 std::__ndk1::basic_string<char, std::__ndk1::char_traits<char>, std::__ndk1::allocator<char> >::__init_copy_ctor_external(char const*, unsigned long)
PUBLIC c78c 0 std::__ndk1::__split_buffer<std::__ndk1::basic_string<char, std::__ndk1::char_traits<char>, std::__ndk1::allocator<char> >, std::__ndk1::allocator<std::__ndk1::basic_string<char, std::__ndk1::char_traits<char>, std::__ndk1::allocator<char> > >&>::~__split_buffer()
PUBLIC c7f4 0 std::__ndk1::vector<std::__ndk1::basic_string<char, std::__ndk1::char_traits<char>, std::__ndk1::allocator<char> >, std::__ndk1::allocator<std::__ndk1::basic_string<char, std::__ndk1::char_traits<char>, std::__ndk1::allocator<char> > > >::__throw_length_error[abi:ne180000]() const
PUBLIC c808 0 std::__ndk1::__variant_detail::__visitation::__base::__dispatcher<(unsigned long)0>::__dispatch[abi:ne180000]<std::__ndk1::__variant_detail::__dtor<std::__ndk1::__variant_detail::__traits<geode::Hook*, std::__ndk1::basic_string<char, std::__ndk1::char_traits<char>, std::__ndk1::allocator<char> > >, (std::__ndk1::__variant_detail::_Trait)1>::__destroy[abi:ne180000]()::{lambda(auto:1&)#1}, std::__ndk1::__variant_detail::__base<(std::__ndk1::__variant_detail::__traits<geode::Hook*, std::__ndk1::basic_string<char, std::__ndk1::char_traits<char>, std::__ndk1::allocator<char> > >)1, geode::Hook, std::__ndk1::allocator<char> >&>(std::__ndk1::__variant_detail::__dtor<std::__ndk1::__variant_detail::__traits<geode::Hook*, std::__ndk1::basic_string<char, std::__ndk1::char_traits<char>, std::__ndk1::allocator<char> > >, (std::__ndk1::__variant_detail::_Trait)1>, std::__ndk1::__variant_detail::__base<(std::__ndk1::__variant_detail::__traits<geode::Hook*, std::__ndk1::basic_string<char, std::__ndk1::char_traits<char>, std::__ndk1::allocator<char> > >)1, geode::Hook, std::__ndk1::allocator<char> >&)
PUBLIC c80c 0 std::__ndk1::__variant_detail::__visitation::__base::__dispatcher<(unsigned long)1>::__dispatch[abi:ne180000]<std::__ndk1::__variant_detail::__dtor<std::__ndk1::__variant_detail::__traits<geode::Hook*, std::__ndk1::basic_string<char, std::__ndk1::char_traits<char>, std::__ndk1::allocator<char> > >, (std::__ndk1::__variant_detail::_Trait)1>::__destroy[abi:ne180000]()::{lambda(auto:1&)#1}, std::__ndk1::__variant_detail::__base<(std::__ndk1::__variant_detail::__traits<geode::Hook*, std::__ndk1::basic_string<char, std::__ndk1::char_traits<char>, std::__ndk1::allocator<char> > >)1, geode::Hook, std::__ndk1::allocator<char> >&>(std::__ndk1::__variant_detail::__dtor<std::__ndk1::__variant_detail::__traits<geode::Hook*, std::__ndk1::basic_string<char, std::__ndk1::char_traits<char>, std::__ndk1::allocator<char> > >, (std::__ndk1::__variant_detail::_Trait)1>, std::__ndk1::__variant_detail::__base<(std::__ndk1::__variant_detail::__traits<geode::Hook*, std::__ndk1::basic_string<char, std::__ndk1::char_traits<char>, std::__ndk1::allocator<char> > >)1, geode::Hook, std::__ndk1::allocator<char> >&)
PUBLIC c820 0 std::__ndk1::__tree<std::__ndk1::__value_type<std::__ndk1::basic_string<char, std::__ndk1::char_traits<char>, std::__ndk1::allocator<char> >, std::__ndk1::shared_ptr<geode::Hook> >, std::__ndk1::__map_value_compare<std::__ndk1::basic_string<char, std::__ndk1::char_traits<char>, std::__ndk1::allocator<char> >, std::__ndk1::__value_type<std::__ndk1::basic_string<char, std::__ndk1::char_traits<char>, std::__ndk1::allocator<char> >, std::__ndk1::shared_ptr<geode::Hook> >, std::__ndk1::less<std::__ndk1::basic_string<char, std::__ndk1::char_traits<char>, std::__ndk1::allocator<char> > >, true>, std::__ndk1::allocator<std::__ndk1::__value_type<std::__ndk1::basic_string<char, std::__ndk1::char_traits<char>, std::__ndk1::allocator<char> >, std::__ndk1::shared_ptr<geode::Hook> > > >::destroy(std::__ndk1::__tree_node<std::__ndk1::__value_type<std::__ndk1::basic_string<char, std::__ndk1::char_traits<char>, std::__ndk1::allocator<char> >, std::__ndk1::shared_ptr<geode::Hook> >, void*>*)
PUBLIC c8a4 0 geode::Hook::create<void (*)(MenuGameLayerExt*, float)>(void*, void (*)(MenuGameLayerExt*, float), std::__ndk1::basic_string<char, std::__ndk1::char_traits<char>, std::__ndk1::allocator<char> > const&, tulip::hook::TulipConvention, tulip::hook::HookMetadata const&)
PUBLIC ca28 0 geode::modifier::AsStaticFunction_update<MenuGameLayerExt, void (MenuGameLayerExt::*)(float)>::Impl<void (MenuGameLayerExt::*)(float)>::function(MenuGameLayerExt*, float)
PUBLIC cb60 0 geode::modifier::AsStaticFunction_init<MenuGameLayerExt, bool (MenuGameLayerExt::*)()>::Impl<bool (MenuGameLayerExt::*)()>::function(MenuGameLayerExt*)
PUBLIC cc08 0 geode::modifier::AsStaticFunction_resetPlayer<MenuGameLayerExt, void (MenuGameLayerExt::*)()>::Impl<void (MenuGameLayerExt::*)()>::function(MenuGameLayerExt*)
PUBLIC d094 0 geode::modifier::AsStaticFunction_tryJump<MenuGameLayerExt, void (MenuGameLayerExt::*)(float)>::Impl<void (MenuGameLayerExt::*)(float)>::function(MenuGameLayerExt*, float)
PUBLIC d1a4 0 geode::addresser::Addresser::addressOfVirtual<void, MenuGameLayer, float>(void (MenuGameLayer::*)(float))
PUBLIC d24c 0 MenuGameLayer::MenuGameLayer(geode::ZeroConstructorType)
PUBLIC d2e4 0 std::__ndk1::shared_ptr<tulip::hook::CallingConvention>::~shared_ptr[abi:ne180000]()
PUBLIC d334 0 tulip::hook::HandlerMetadata::~HandlerMetadata()
PUBLIC d398 0 geode::Mod::getSettingValue<bool>(std::__ndk1::basic_string_view<char, std::__ndk1::char_traits<char> >) const
PUBLIC d4c8 0 geode::cocos::findFirstChildRecursive<cocos2d::CCNode>(cocos2d::CCNode*, std::__ndk1::function<bool (cocos2d::CCNode*)>)
PUBLIC d6c0 0 geode::cast::traverseTypeinfoFor(void*, geode::cast::ClassTypeinfoType const*, char const*)
PUBLIC d7b8 0 std::__ndk1::__throw_bad_function_call[abi:ne180000]()
PUBLIC d7ec 0 std::__ndk1::bad_function_call::~bad_function_call()
PUBLIC d810 0 std::__ndk1::__function::__base<bool (cocos2d::CCNode*)>::~__base()
PUBLIC d814 0 std::__ndk1::__function::__func<MenuGameLayerExt::update(float)::{lambda(cocos2d::CCNode*)#1}, std::__ndk1::allocator<MenuGameLayerExt::update(float)::{lambda(cocos2d::CCNode*)#1}>, bool (cocos2d::CCNode*)>::~__func()
PUBLIC d818 0 std::__ndk1::__function::__func<MenuGameLayerExt::update(float)::{lambda(cocos2d::CCNode*)#1}, std::__ndk1::allocator<MenuGameLayerExt::update(float)::{lambda(cocos2d::CCNode*)#1}>, bool (cocos2d::CCNode*)>::__clone() const
PUBLIC d83c 0 std::__ndk1::__function::__func<MenuGameLayerExt::update(float)::{lambda(cocos2d::CCNode*)#1}, std::__ndk1::allocator<MenuGameLayerExt::update(float)::{lambda(cocos2d::CCNode*)#1}>, bool (cocos2d::CCNode*)>::__clone(std::__ndk1::__function::__base<bool (cocos2d::CCNode*)>*) const
PUBLIC d84c 0 std::__ndk1::__function::__func<MenuGameLayerExt::update(float)::{lambda(cocos2d::CCNode*)#1}, std::__ndk1::allocator<MenuGameLayerExt::update(float)::{lambda(cocos2d::CCNode*)#1}>, bool (cocos2d::CCNode*)>::destroy()
PUBLIC d850 0 std::__ndk1::__function::__func<MenuGameLayerExt::update(float)::{lambda(cocos2d::CCNode*)#1}, std::__ndk1::allocator<MenuGameLayerExt::update(float)::{lambda(cocos2d::CCNode*)#1}>, bool (cocos2d::CCNode*)>::destroy_deallocate()
PUBLIC d854 0 std::__ndk1::__function::__func<MenuGameLayerExt::update(float)::{lambda(cocos2d::CCNode*)#1}, std::__ndk1::allocator<MenuGameLayerExt::update(float)::{lambda(cocos2d::CCNode*)#1}>, bool (cocos2d::CCNode*)>::operator()(cocos2d::CCNode*&&)
PUBLIC da38 0 std::__ndk1::__function::__func<MenuGameLayerExt::update(float)::{lambda(cocos2d::CCNode*)#1}, std::__ndk1::allocator<MenuGameLayerExt::update(float)::{lambda(cocos2d::CCNode*)#1}>, bool (cocos2d::CCNode*)>::target(std::type_info const&) const
PUBLIC da54 0 std::__ndk1::__function::__func<MenuGameLayerExt::update(float)::{lambda(cocos2d::CCNode*)#1}, std::__ndk1::allocator<MenuGameLayerExt::update(float)::{lambda(cocos2d::CCNode*)#1}>, bool (cocos2d::CCNode*)>::target_type() const
PUBLIC da60 0 std::__ndk1::__tree<std::__ndk1::__value_type<std::__ndk1::basic_string<char, std::__ndk1::char_traits<char>, std::__ndk1::allocator<char> >, std::__ndk1::shared_ptr<geode::Hook> >, std::__ndk1::__map_value_compare<std::__ndk1::basic_string<char, std::__ndk1::char_traits<char>, std::__ndk1::allocator<char> >, std::__ndk1::__value_type<std::__ndk1::basic_string<char, std::__ndk1::char_traits<char>, std::__ndk1::allocator<char> >, std::__ndk1::shared_ptr<geode::Hook> >, std::__ndk1::less<std::__ndk1::basic_string<char, std::__ndk1::char_traits<char>, std::__ndk1::allocator<char> > >, true>, std::__ndk1::allocator<std::__ndk1::__value_type<std::__ndk1::basic_string<char, std::__ndk1::char_traits<char>, std::__ndk1::allocator<char> >, std::__ndk1::shared_ptr<geode::Hook> > > >::__emplace_unique_key_args<std::__ndk1::basic_string<char, std::__ndk1::char_traits<char>, std::__ndk1::allocator<char> >, std::__ndk1::piecewise_construct_t const&, std::__ndk1::tuple<std::__ndk1::basic_string<char, std::__ndk1::char_traits<char>, std::__ndk1::allocator<char> >&&>, std::__ndk1::tuple<> >(std::__ndk1::basic_string<char, std::__ndk1::char_traits<char>, std::__ndk1::allocator<char> > const&, std::__ndk1::piecewise_construct_t const&, std::__ndk1::tuple<std::__ndk1::basic_string<char, std::__ndk1::char_traits<char>, std::__ndk1::allocator<char> >&&>, std::__ndk1::tuple<>)
PUBLIC dbc8 0 std::__ndk1::__tree_balance_after_insert[abi:ne180000]<std::__ndk1::__tree_node_base<void*>*>(std::__ndk1::__tree_node_base<void*>*, std::__ndk1::__tree_node_base<void*>*)
PUBLIC dd78 0 geode::addresser::Addresser::addressOfVirtual<bool, MenuGameLayer, >(bool (MenuGameLayer::*)())
PUBLIC de20 0 MenuGameLayerExt::runaway(float)
PUBLIC e054 0 std::__ndk1::vector<int, std::__ndk1::allocator<int> >::__throw_length_error[abi:ne180000]() const
PUBLIC m e068 0 geodeImplicitEntry
PUBLIC e0b0 0 <.plt ELF section in user95401.platformered_menu_game.android64.so>
STACK CFI INIT 5aa0 10 .cfa: sp 0 +
STACK CFI INIT 5ab0 8 .cfa: sp 0 +
STACK CFI INIT 5ab8 8 .cfa: sp 0 +
STACK CFI INIT 5ac0 14 .cfa: sp 0 +
STACK CFI INIT 5ad4 1c .cfa: sp 0 +
STACK CFI INIT 5af0 10 .cfa: sp 0 +
STACK CFI INIT 5b00 134 .cfa: sp 0 +
STACK CFI INIT 5c34 84 .cfa: sp 0 +
STACK CFI INIT 5cb8 f4 .cfa: sp 0 +
STACK CFI INIT 5dac a8 .cfa: sp 0 +
STACK CFI INIT 5e54 7c .cfa: sp 0 +
STACK CFI INIT 5ed0 14 .cfa: sp 0 +
STACK CFI INIT 5ee4 40 .cfa: sp 0 +
STACK CFI INIT 5f24 28 .cfa: sp 0 +
STACK CFI INIT 5f4c 190 .cfa: sp 0 +
STACK CFI INIT 60dc 2c8 .cfa: sp 0 +
STACK CFI INIT 63a4 8 .cfa: sp 0 +
STACK CFI INIT 63ac 8 .cfa: sp 0 +
STACK CFI INIT 63b4 44 .cfa: sp 0 +
STACK CFI INIT 63f8 e8 .cfa: sp 0 +
STACK CFI INIT 64e0 e8 .cfa: sp 0 +
STACK CFI INIT 65c8 14 .cfa: sp 0 +
STACK CFI INIT 65dc 10 .cfa: sp 0 +
STACK CFI INIT 65ec 10 .cfa: sp 0 +
STACK CFI INIT 65fc f0 .cfa: sp 0 +
STACK CFI INIT 66ec 44 .cfa: sp 0 +
STACK CFI INIT 6730 c .cfa: sp 0 +
STACK CFI INIT 673c c .cfa: sp 0 +
STACK CFI INIT 6748 2c .cfa: sp 0 +
STACK CFI INIT 6774 280 .cfa: sp 0 +
STACK CFI INIT 69f4 c .cfa: sp 0 +
STACK CFI INIT 6a00 120 .cfa: sp 0 +
STACK CFI INIT 6b20 488 .cfa: sp 0 +
STACK CFI INIT 6fa8 c48 .cfa: sp 0 +
STACK CFI INIT 7bf0 134 .cfa: sp 0 +
STACK CFI INIT 7d24 210 .cfa: sp 0 +
STACK CFI INIT 7f34 38c .cfa: sp 0 +
STACK CFI INIT 82c0 1c8 .cfa: sp 0 +
STACK CFI INIT 8488 9bc .cfa: sp 0 +
STACK CFI INIT 8e44 2d4 .cfa: sp 0 +
STACK CFI INIT 9118 134 .cfa: sp 0 +
STACK CFI INIT 924c 120 .cfa: sp 0 +
STACK CFI INIT 936c 1c8 .cfa: sp 0 +
STACK CFI INIT 9534 168 .cfa: sp 0 +
STACK CFI INIT 969c fc .cfa: sp 0 +
STACK CFI INIT 9798 30 .cfa: sp 0 +
STACK CFI INIT 9900 30 .cfa: sp 0 +
STACK CFI INIT 9930 98 .cfa: sp 0 +
STACK CFI INIT 99c8 59c .cfa: sp 0 +
STACK CFI INIT 9f64 8c .cfa: sp 0 +
STACK CFI INIT 9ff0 30 .cfa: sp 0 +
STACK CFI INIT a020 64 .cfa: sp 0 +
STACK CFI a024 .cfa: sp 32 +
STACK CFI a02c .cfa: x29 32 + x19: .cfa -16 + ^ .ra: .cfa -24 + ^ x29: .cfa -32 + ^
STACK CFI a06c .cfa: sp 32 +
STACK CFI a074 .cfa: sp 0 +
STACK CFI a078 .cfa: sp 32 +
STACK CFI a080 .cfa: sp 0 +
STACK CFI INIT ae14 18 .cfa: sp 0 +
STACK CFI INIT ae2c 10 .cfa: sp 0 +
STACK CFI ae30 .cfa: sp 16 +
STACK CFI ae34 .cfa: x29 16 + .ra: .cfa -8 + ^ x29: .cfa -16 + ^
STACK CFI INIT ae8c 30 .cfa: sp 0 +
STACK CFI ae90 .cfa: sp 32 +
STACK CFI ae98 .cfa: x29 32 + x19: .cfa -16 + ^ .ra: .cfa -24 + ^ x29: .cfa -32 + ^
STACK CFI aeb0 .cfa: sp 32 +
STACK CFI aeb8 .cfa: sp 0 +
STACK CFI INIT aebc 34 .cfa: sp 0 +
STACK CFI aec0 .cfa: sp 32 +
STACK CFI aec8 .cfa: x29 32 + x19: .cfa -16 + ^ .ra: .cfa -24 + ^ x29: .cfa -32 + ^
STACK CFI INIT af9c 14 .cfa: sp 0 +
STACK CFI afa0 .cfa: sp 16 +
STACK CFI afa4 .cfa: x29 16 + .ra: .cfa -8 + ^ x29: .cfa -16 + ^
STACK CFI INIT afb0 148 .cfa: sp 0 +
STACK CFI afb4 .cfa: sp 128 +
STACK CFI afc4 .cfa: x29 48 + x19: .cfa -8 + ^ x20: .cfa -16 + ^ x21: .cfa -32 + ^ .ra: .cfa -40 + ^ x29: .cfa -48 + ^
STACK CFI b090 .cfa: sp 128 +
STACK CFI b0a0 .cfa: sp 0 +
STACK CFI b0a4 .cfa: x29 48 +
STACK CFI INIT b0f8 200 .cfa: sp 0 +
STACK CFI INIT bc30 50 .cfa: sp 0 +
STACK CFI bc34 .cfa: sp 32 +
STACK CFI bc3c .cfa: x29 32 + x19: .cfa -16 + ^ .ra: .cfa -24 + ^ x29: .cfa -32 + ^
STACK CFI bc54 .cfa: sp 32 +
STACK CFI bc5c .cfa: sp 0 +
STACK CFI bc60 .cfa: x29 32 +
STACK CFI bc74 .cfa: sp 32 +
STACK CFI bc7c .cfa: sp 0 +
STACK CFI INIT bcf4 7c .cfa: sp 0 +
STACK CFI bcf8 .cfa: sp 48 +
STACK CFI bd04 .cfa: x29 48 + x19: .cfa -8 + ^ x20: .cfa -16 + ^ x21: .cfa -32 + ^ .ra: .cfa -40 + ^ x29: .cfa -48 + ^
STACK CFI bd50 .cfa: sp 48 +
STACK CFI bd5c .cfa: sp 0 +
STACK CFI bd60 .cfa: sp 48 +
STACK CFI bd6c .cfa: sp 0 +
STACK CFI INIT bd70 4 .cfa: sp 0 +
STACK CFI INIT bec8 34 .cfa: sp 0 +
STACK CFI becc .cfa: sp 16 +
STACK CFI bed0 .cfa: x29 16 + .ra: .cfa -8 + ^ x29: .cfa -16 + ^
STACK CFI INIT c028 80 .cfa: sp 0 +
STACK CFI c02c .cfa: sp 48 +
STACK CFI c038 .cfa: x29 48 + x19: .cfa -8 + ^ x20: .cfa -16 + ^ x21: .cfa -32 + ^ .ra: .cfa -40 + ^ x29: .cfa -48 + ^
STACK CFI c098 .cfa: sp 48 +
STACK CFI c0a4 .cfa: sp 0 +
STACK CFI INIT c0a8 24 .cfa: sp 0 +
STACK CFI c0ac .cfa: sp 32 +
STACK CFI c0b4 .cfa: x29 32 + x19: .cfa -16 + ^ .ra: .cfa -24 + ^ x29: .cfa -32 + ^
STACK CFI c0c0 .cfa: sp 32 +
STACK CFI c0c8 .cfa: sp 0 +
STACK CFI INIT c5c4 148 .cfa: sp 0 +
STACK CFI c5c8 .cfa: sp 48 +
STACK CFI c5d4 .cfa: x29 48 + x19: .cfa -8 + ^ x20: .cfa -16 + ^ x21: .cfa -32 + ^ .ra: .cfa -40 + ^ x29: .cfa -48 + ^
STACK CFI c6fc .cfa: sp 48 +
STACK CFI c708 .cfa: sp 0 +
STACK CFI INIT c70c 80 .cfa: sp 0 +
STACK CFI c710 .cfa: sp 48 +
STACK CFI c71c .cfa: x29 48 + x19: .cfa -8 + ^ x20: .cfa -16 + ^ x21: .cfa -24 + ^ x22: .cfa -32 + ^ .ra: .cfa -40 + ^ x29: .cfa -48 + ^
STACK CFI c734 .cfa: sp 48 +
STACK CFI c740 .cfa: sp 0 +
STACK CFI c744 .cfa: x29 48 +
STACK CFI c774 .cfa: sp 48 +
STACK CFI c780 .cfa: sp 0 +
STACK CFI c784 .cfa: x29 48 +
STACK CFI INIT c78c 68 .cfa: sp 0 +
STACK CFI c790 .cfa: sp 32 +
STACK CFI c798 .cfa: x29 32 + x19: .cfa -8 + ^ x20: .cfa -16 + ^ .ra: .cfa -24 + ^ x29: .cfa -32 + ^
STACK CFI c7b0 .cfa: sp 32 +
STACK CFI c7b8 .cfa: sp 0 +
STACK CFI c7bc .cfa: x29 32 +
STACK CFI c7e8 .cfa: sp 32 +
STACK CFI c7f0 .cfa: sp 0 +
STACK CFI INIT c7f4 14 .cfa: sp 0 +
STACK CFI c7f8 .cfa: sp 16 +
STACK CFI c7fc .cfa: x29 16 + .ra: .cfa -8 + ^ x29: .cfa -16 + ^
STACK CFI INIT c808 4 .cfa: sp 0 +
STACK CFI INIT c80c 14 .cfa: sp 0 +
STACK CFI INIT c820 84 .cfa: sp 0 +
STACK CFI c828 .cfa: sp 32 +
STACK CFI c830 .cfa: x29 32 + x19: .cfa -8 + ^ x20: .cfa -16 + ^ .ra: .cfa -24 + ^ x29: .cfa -32 + ^
STACK CFI c870 .cfa: sp 32 +
STACK CFI c878 .cfa: sp 0 +
STACK CFI c880 .cfa: x29 32 +
STACK CFI INIT cb60 a8 .cfa: sp 0 +
STACK CFI cb64 .cfa: sp 48 +
STACK CFI cb70 .cfa: x29 48 + x19: .cfa -8 + ^ x20: .cfa -16 + ^ x21: .cfa -32 + ^ .ra: .cfa -40 + ^ x29: .cfa -48 + ^
STACK CFI cba4 .cfa: sp 48 +
STACK CFI cbb0 .cfa: sp 0 +
STACK CFI cbb4 .cfa: x29 48 +
STACK CFI cbf8 .cfa: sp 48 +
STACK CFI cc04 .cfa: sp 0 +
STACK CFI INIT d094 110 .cfa: sp 0 +
STACK CFI d098 .cfa: sp 48 +
STACK CFI d0a4 .cfa: x29 32 + x19: .cfa -8 + ^ x20: .cfa -16 + ^ .ra: .cfa -24 + ^ x29: .cfa -32 + ^ v8: .cfa -48 + ^
STACK CFI d154 .cfa: sp 48 +
STACK CFI d160 .cfa: sp 0 +
STACK CFI d164 .cfa: x29 32 +
STACK CFI d194 .cfa: sp 48 +
STACK CFI d1a0 .cfa: sp 0 +
STACK CFI INIT d24c 98 .cfa: sp 0 +
STACK CFI INIT d2e4 50 .cfa: sp 0 +
STACK CFI d2e8 .cfa: sp 32 +
STACK CFI d2f0 .cfa: x29 32 + x19: .cfa -16 + ^ .ra: .cfa -24 + ^ x29: .cfa -32 + ^
STACK CFI d308 .cfa: sp 32 +
STACK CFI d310 .cfa: sp 0 +
STACK CFI d314 .cfa: x29 32 +
STACK CFI d328 .cfa: sp 32 +
STACK CFI d330 .cfa: sp 0 +
STACK CFI INIT d334 64 .cfa: sp 0 +
STACK CFI d338 .cfa: sp 32 +
STACK CFI d340 .cfa: x29 32 + x19: .cfa -16 + ^ .ra: .cfa -24 + ^ x29: .cfa -32 + ^
STACK CFI d36c .cfa: sp 32 +
STACK CFI d374 .cfa: sp 0 +
STACK CFI d378 .cfa: x29 32 +
STACK CFI d38c .cfa: sp 32 +
STACK CFI d394 .cfa: sp 0 +
STACK CFI INIT d398 130 .cfa: sp 0 +
STACK CFI d39c .cfa: sp 80 +
STACK CFI d3ac .cfa: x29 48 + x19: .cfa -8 + ^ x20: .cfa -16 + ^ x21: .cfa -24 + ^ x22: .cfa -32 + ^ .ra: .cfa -40 + ^ x29: .cfa -48 + ^
STACK CFI d4b0 .cfa: sp 80 +
STACK CFI d4c0 .cfa: sp 0 +
STACK CFI d4c4 .cfa: x29 48 +
STACK CFI INIT d6c0 f8 .cfa: sp 0 +
STACK CFI d6c4 .cfa: sp 64 +
STACK CFI d6d4 .cfa: x29 64 + x19: .cfa -8 + ^ x20: .cfa -16 + ^ x21: .cfa -24 + ^ x22: .cfa -32 + ^ x23: .cfa -48 + ^ .ra: .cfa -56 + ^ x29: .cfa -64 + ^
STACK CFI d730 .cfa: sp 64 +
STACK CFI d740 .cfa: sp 0 +
STACK CFI d744 .cfa: x29 64 +
STACK CFI d760 .cfa: sp 64 +
STACK CFI d770 .cfa: sp 0 +
STACK CFI d774 .cfa: x29 64 +
STACK CFI d7a4 .cfa: sp 64 +
STACK CFI d7b4 .cfa: sp 0 +
STACK CFI INIT d7b8 34 .cfa: sp 0 +
STACK CFI d7bc .cfa: sp 16 +
STACK CFI d7c0 .cfa: x29 16 + .ra: .cfa -8 + ^ x29: .cfa -16 + ^
STACK CFI INIT d7ec 24 .cfa: sp 0 +
STACK CFI d7f0 .cfa: sp 32 +
STACK CFI d7f8 .cfa: x29 32 + x19: .cfa -16 + ^ .ra: .cfa -24 + ^ x29: .cfa -32 + ^
STACK CFI d804 .cfa: sp 32 +
STACK CFI d80c .cfa: sp 0 +
STACK CFI INIT d810 4 .cfa: sp 0 +
STACK CFI INIT d814 4 .cfa: sp 0 +
STACK CFI INIT d818 24 .cfa: sp 0 +
STACK CFI d81c .cfa: sp 16 +
STACK CFI d820 .cfa: x29 16 + .ra: .cfa -8 + ^ x29: .cfa -16 + ^
STACK CFI d834 .cfa: sp 16 +
STACK CFI d838 .cfa: sp 0 +
STACK CFI INIT d83c 10 .cfa: sp 0 +
STACK CFI INIT d84c 4 .cfa: sp 0 +
STACK CFI INIT d850 4 .cfa: sp 0 +
STACK CFI INIT da38 1c .cfa: sp 0 +
STACK CFI INIT da54 c .cfa: sp 0 +
STACK CFI INIT da60 168 .cfa: sp 0 +
STACK CFI da64 .cfa: sp 80 +
STACK CFI da78 .cfa: x29 80 + x19: .cfa -8 + ^ x20: .cfa -16 + ^ x21: .cfa -24 + ^ x22: .cfa -32 + ^ x23: .cfa -40 + ^ x24: .cfa -48 + ^ x25: .cfa -56 + ^ x26: .cfa -64 + ^ .ra: .cfa -72 + ^ x29: .cfa -80 + ^
STACK CFI dbb0 .cfa: sp 80 +
STACK CFI dbc4 .cfa: sp 0 +
STACK CFI INIT dbc8 1b0 .cfa: sp 0 +
STACK CFI INIT de20 234 .cfa: sp 0 +
STACK CFI de24 .cfa: sp 144 +
STACK CFI de44 .cfa: x29 64 + x19: .cfa -8 + ^ x20: .cfa -16 + ^ x21: .cfa -24 + ^ x22: .cfa -32 + ^ x23: .cfa -48 + ^ .ra: .cfa -56 + ^ x29: .cfa -64 + ^ v8: .cfa -72 + ^ v9: .cfa -80 + ^ v10: .cfa -88 + ^ v11: .cfa -96 + ^ v12: .cfa -104 + ^ v13: .cfa -112 + ^
STACK CFI e02c .cfa: sp 144 +
STACK CFI e04c .cfa: sp 0 +
STACK CFI e050 .cfa: x29 64 +
STACK CFI INIT e054 14 .cfa: sp 0 +
STACK CFI e058 .cfa: sp 16 +
STACK CFI e05c .cfa: x29 16 + .ra: .cfa -8 + ^ x29: .cfa -16 + ^
STACK CFI INIT e068 3c .cfa: sp 0 +
STACK CFI e06c .cfa: sp 32 +
STACK CFI e074 .cfa: x29 32 + x19: .cfa -16 + ^ .ra: .cfa -24 + ^ x29: .cfa -32 + ^
STACK CFI e080 .cfa: sp 32 +
STACK CFI e088 .cfa: sp 0 +
STACK CFI e08c .cfa: x29 32 +
STACK CFI e098 .cfa: sp 32 +
STACK CFI e0a0 .cfa: sp 0 +
STACK CFI INIT a084 1bc .cfa: sp 0 +
STACK CFI a088 .cfa: sp 64 +
STACK CFI a098 .cfa: x29 48 + x19: .cfa -8 + ^ x20: .cfa -16 + ^ x21: .cfa -24 + ^ x22: .cfa -32 + ^ .ra: .cfa -40 + ^ x29: .cfa -48 + ^
STACK CFI a134 .cfa: sp 64 +
STACK CFI a144 .cfa: sp 0 +
STACK CFI a148 .cfa: x29 48 +
STACK CFI INIT a240 bd4 .cfa: sp 0 +
STACK CFI a244 .cfa: sp 240 +
STACK CFI a260 .cfa: x29 96 + x19: .cfa -8 + ^ x20: .cfa -16 + ^ x21: .cfa -24 + ^ x22: .cfa -32 + ^ x23: .cfa -40 + ^ x24: .cfa -48 + ^ x25: .cfa -56 + ^ x26: .cfa -64 + ^ x27: .cfa -72 + ^ x28: .cfa -80 + ^ .ra: .cfa -88 + ^ x29: .cfa -96 + ^
STACK CFI a63c .cfa: sp 240 +
STACK CFI a658 .cfa: sp 0 +
STACK CFI a65c .cfa: x29 96 +
STACK CFI acbc .cfa: sp 240 +
STACK CFI acd8 .cfa: sp 0 +
STACK CFI acdc .cfa: x29 96 +
STACK CFI INIT ae3c 50 .cfa: sp 0 +
STACK CFI ae40 .cfa: sp 32 +
STACK CFI ae48 .cfa: x29 32 + x19: .cfa -8 + ^ x20: .cfa -16 + ^ .ra: .cfa -24 + ^ x29: .cfa -32 + ^
STACK CFI INIT aef0 ac .cfa: sp 0 +
STACK CFI aef4 .cfa: sp 64 +
STACK CFI af00 .cfa: x29 32 + x19: .cfa -8 + ^ x20: .cfa -16 + ^ .ra: .cfa -24 + ^ x29: .cfa -32 + ^
STACK CFI af5c .cfa: sp 64 +
STACK CFI af68 .cfa: sp 0 +
STACK CFI af6c .cfa: x29 32 +
STACK CFI INIT b2f8 938 .cfa: sp 0 +
STACK CFI b2fc .cfa: sp 256 +
STACK CFI b314 .cfa: x29 80 + x19: .cfa -8 + ^ x20: .cfa -16 + ^ x21: .cfa -24 + ^ x22: .cfa -32 + ^ x23: .cfa -40 + ^ x24: .cfa -48 + ^ x25: .cfa -56 + ^ x26: .cfa -64 + ^ .ra: .cfa -72 + ^ x29: .cfa -80 + ^
STACK CFI b970 .cfa: sp 256 +
STACK CFI b988 .cfa: sp 0 +
STACK CFI b98c .cfa: x29 80 +
STACK CFI INIT bc80 74 .cfa: sp 0 +
STACK CFI bc84 .cfa: sp 48 +
STACK CFI bc90 .cfa: x29 32 + x19: .cfa -8 + ^ x20: .cfa -16 + ^ .ra: .cfa -24 + ^ x29: .cfa -32 + ^
STACK CFI bcdc .cfa: sp 48 +
STACK CFI bce8 .cfa: sp 0 +
STACK CFI bcec .cfa: x29 32 +
STACK CFI INIT bd74 154 .cfa: sp 0 +
STACK CFI bd78 .cfa: sp 384 +
STACK CFI bd8c .cfa: x29 64 + x19: .cfa -8 + ^ x20: .cfa -16 + ^ x21: .cfa -24 + ^ x22: .cfa -32 + ^ x23: .cfa -40 + ^ x28: .cfa -48 + ^ .ra: .cfa -56 + ^ x29: .cfa -64 + ^
STACK CFI be70 .cfa: sp 384 +
STACK CFI be84 .cfa: sp 0 +
STACK CFI be88 .cfa: x29 64 +
STACK CFI INIT befc 12c .cfa: sp 0 +
STACK CFI bf00 .cfa: sp 80 +
STACK CFI bf14 .cfa: x29 80 + x19: .cfa -8 + ^ x20: .cfa -16 + ^ x21: .cfa -24 + ^ x22: .cfa -32 + ^ x23: .cfa -40 + ^ x24: .cfa -48 + ^ x25: .cfa -56 + ^ x26: .cfa -64 + ^ .ra: .cfa -72 + ^ x29: .cfa -80 + ^
STACK CFI bfdc .cfa: sp 80 +
STACK CFI bff0 .cfa: sp 0 +
STACK CFI bff4 .cfa: x29 80 +
STACK CFI INIT c0cc 1a4 .cfa: sp 0 +
STACK CFI c0d0 .cfa: sp 112 +
STACK CFI c0e8 .cfa: x29 80 + x19: .cfa -8 + ^ x20: .cfa -16 + ^ x21: .cfa -24 + ^ x22: .cfa -32 + ^ x23: .cfa -40 + ^ x24: .cfa -48 + ^ x25: .cfa -56 + ^ x26: .cfa -64 + ^ .ra: .cfa -72 + ^ x29: .cfa -80 + ^
STACK CFI c1d8 .cfa: sp 112 +
STACK CFI c1f0 .cfa: sp 0 +
STACK CFI c1f4 .cfa: x29 80 +
STACK CFI INIT c270 1dc .cfa: sp 0 +
STACK CFI c274 .cfa: sp 128 +
STACK CFI c290 .cfa: x29 96 + x19: .cfa -8 + ^ x20: .cfa -16 + ^ x21: .cfa -24 + ^ x22: .cfa -32 + ^ x23: .cfa -40 + ^ x24: .cfa -48 + ^ x25: .cfa -56 + ^ x26: .cfa -64 + ^ x27: .cfa -80 + ^ .ra: .cfa -88 + ^ x29: .cfa -96 + ^
STACK CFI c3fc .cfa: sp 128 +
STACK CFI c418 .cfa: sp 0 +
STACK CFI c41c .cfa: x29 96 +
STACK CFI INIT c44c 178 .cfa: sp 0 +
STACK CFI c450 .cfa: sp 80 +
STACK CFI c464 .cfa: x29 80 + x19: .cfa -8 + ^ x20: .cfa -16 + ^ x21: .cfa -24 + ^ x22: .cfa -32 + ^ x23: .cfa -40 + ^ x24: .cfa -48 + ^ x25: .cfa -64 + ^ .ra: .cfa -72 + ^ x29: .cfa -80 + ^
STACK CFI c590 .cfa: sp 80 +
STACK CFI c5a4 .cfa: sp 0 +
STACK CFI c5a8 .cfa: x29 80 +
STACK CFI INIT c8a4 184 .cfa: sp 0 +
STACK CFI c8a8 .cfa: sp 144 +
STACK CFI c8c0 .cfa: x29 80 + x19: .cfa -8 + ^ x20: .cfa -16 + ^ x21: .cfa -24 + ^ x22: .cfa -32 + ^ x23: .cfa -40 + ^ x24: .cfa -48 + ^ x25: .cfa -56 + ^ x26: .cfa -64 + ^ .ra: .cfa -72 + ^ x29: .cfa -80 + ^
STACK CFI c9c0 .cfa: sp 144 +
STACK CFI c9d8 .cfa: sp 0 +
STACK CFI c9dc .cfa: x29 80 +
STACK CFI INIT ca28 138 .cfa: sp 0 +
STACK CFI ca2c .cfa: sp 112 +
STACK CFI ca3c .cfa: x29 48 + x19: .cfa -8 + ^ x20: .cfa -16 + ^ x21: .cfa -32 + ^ .ra: .cfa -40 + ^ x29: .cfa -48 + ^
STACK CFI cafc .cfa: sp 112 +
STACK CFI cb0c .cfa: sp 0 +
STACK CFI cb10 .cfa: x29 48 +
STACK CFI INIT cc08 48c .cfa: sp 0 +
STACK CFI cc0c .cfa: sp 112 +
STACK CFI cc28 .cfa: x29 96 + x19: .cfa -8 + ^ x20: .cfa -16 + ^ x21: .cfa -24 + ^ x22: .cfa -32 + ^ x23: .cfa -40 + ^ x24: .cfa -48 + ^ x25: .cfa -56 + ^ x26: .cfa -64 + ^ x27: .cfa -72 + ^ x28: .cfa -80 + ^ .ra: .cfa -88 + ^ x29: .cfa -96 + ^
STACK CFI ceb8 .cfa: sp 112 +
STACK CFI ced4 .cfa: sp 0 +
STACK CFI ced8 .cfa: x29 96 +
STACK CFI cf38 .cfa: sp 112 +
STACK CFI cf54 .cfa: sp 0 +
STACK CFI cf58 .cfa: x29 96 +
STACK CFI INIT d1a4 a8 .cfa: sp 0 +
STACK CFI d1a8 .cfa: sp 32 +
STACK CFI d1b0 .cfa: x29 32 + x19: .cfa -16 + ^ .ra: .cfa -24 + ^ x29: .cfa -32 + ^
STACK CFI d1e4 .cfa: sp 32 +
STACK CFI d1ec .cfa: sp 0 +
STACK CFI d1f0 .cfa: x29 32 +
STACK CFI d1f4 .cfa: sp 32 +
STACK CFI d1fc .cfa: sp 0 +
STACK CFI d200 .cfa: x29 32 +
STACK CFI INIT d4c8 1f8 .cfa: sp 0 +
STACK CFI d4cc .cfa: sp 144 +
STACK CFI d4e0 .cfa: x29 64 + x19: .cfa -8 + ^ x20: .cfa -16 + ^ x21: .cfa -24 + ^ x22: .cfa -32 + ^ x23: .cfa -40 + ^ x24: .cfa -48 + ^ .ra: .cfa -56 + ^ x29: .cfa -64 + ^
STACK CFI d62c .cfa: sp 144 +
STACK CFI d640 .cfa: sp 0 +
STACK CFI d644 .cfa: x29 64 +
STACK CFI INIT d854 1e4 .cfa: sp 0 +
STACK CFI d858 .cfa: sp 144 +
STACK CFI d868 .cfa: x29 48 + x19: .cfa -8 + ^ x20: .cfa -16 + ^ x21: .cfa -32 + ^ .ra: .cfa -40 + ^ x29: .cfa -48 + ^
STACK CFI d994 .cfa: sp 144 +
STACK CFI d9a4 .cfa: sp 0 +
STACK CFI d9a8 .cfa: x29 48 +
STACK CFI INIT dd78 a8 .cfa: sp 0 +
STACK CFI dd7c .cfa: sp 32 +
STACK CFI dd84 .cfa: x29 32 + x19: .cfa -16 + ^ .ra: .cfa -24 + ^ x29: .cfa -32 + ^
STACK CFI ddb8 .cfa: sp 32 +
STACK CFI ddc0 .cfa: sp 0 +
STACK CFI ddc4 .cfa: x29 32 +
STACK CFI ddc8 .cfa: sp 32 +
STACK CFI ddd0 .cfa: sp 0 +
STACK CFI ddd4 .cfa: x29 32 +
