MODULE Linux arm64 F45483036C1D17176DA9995B4858682E0 dogotrigger.cherrybadges.android64.so
INFO CODE_ID 038354F41D6C17176DA9995B4858682E17F9EB40
INFO GENERATOR mozilla/dump_syms 2.3.4
PUBLIC 91d0 0 __on_dlclose
PUBLIC 91e0 0 __emutls_unregister_key
PUBLIC 91e8 0 __on_dlclose_late
PUBLIC 91f0 0 __atexit_handler_wrapper
PUBLIC 9204 0 atexit
PUBLIC 9220 0 pthread_atfork
PUBLIC 9230 0 unwind_phase2
PUBLIC 9364 0 _Unwind_Resume
PUBLIC 93e8 0 unwind_phase2_forced
PUBLIC m 94dc 0 __unw_init_local
PUBLIC m 9584 0 __unw_get_reg
PUBLIC 9600 0 __unw_step_stage2
PUBLIC m 9614 0 __unw_get_proc_info
PUBLIC m 9654 0 __unw_resume
PUBLIC 967c 0 libunwind::CFI_Parser<libunwind::LocalAddressSpace>::decodeFDE(libunwind::LocalAddressSpace&, unsigned long, libunwind::CFI_Parser<libunwind::LocalAddressSpace>::FDE_Info*, libunwind::CFI_Parser<libunwind::LocalAddressSpace>::CIE_Info*, bool)
PUBLIC 980c 0 libunwind::CFI_Parser<libunwind::LocalAddressSpace>::parseCIE(libunwind::LocalAddressSpace&, unsigned long, libunwind::CFI_Parser<libunwind::LocalAddressSpace>::CIE_Info*)
PUBLIC 9ad4 0 libunwind::AbstractUnwindCursor::~AbstractUnwindCursor()
PUBLIC 9adc 0 libunwind::UnwindCursor<libunwind::LocalAddressSpace, libunwind::Registers_arm64>::~UnwindCursor()
PUBLIC 9ae4 0 libunwind::UnwindCursor<libunwind::LocalAddressSpace, libunwind::Registers_arm64>::validReg(int)
PUBLIC 9b28 0 libunwind::UnwindCursor<libunwind::LocalAddressSpace, libunwind::Registers_arm64>::getReg(int)
PUBLIC 9c10 0 libunwind::UnwindCursor<libunwind::LocalAddressSpace, libunwind::Registers_arm64>::setReg(int, unsigned long)
PUBLIC 9cf8 0 libunwind::UnwindCursor<libunwind::LocalAddressSpace, libunwind::Registers_arm64>::validFloatReg(int)
PUBLIC 9d0c 0 libunwind::UnwindCursor<libunwind::LocalAddressSpace, libunwind::Registers_arm64>::getFloatReg(int)
PUBLIC 9d1c 0 libunwind::UnwindCursor<libunwind::LocalAddressSpace, libunwind::Registers_arm64>::setFloatReg(int, double)
PUBLIC 9d2c 0 libunwind::UnwindCursor<libunwind::LocalAddressSpace, libunwind::Registers_arm64>::step(bool)
PUBLIC 9e1c 0 libunwind::UnwindCursor<libunwind::LocalAddressSpace, libunwind::Registers_arm64>::getInfo(unw_proc_info_t*)
PUBLIC 9e60 0 libunwind::UnwindCursor<libunwind::LocalAddressSpace, libunwind::Registers_arm64>::jumpto()
PUBLIC 9e6c 0 libunwind::UnwindCursor<libunwind::LocalAddressSpace, libunwind::Registers_arm64>::isSignalFrame()
PUBLIC 9e78 0 libunwind::UnwindCursor<libunwind::LocalAddressSpace, libunwind::Registers_arm64>::getFunctionName(char*, unsigned long, unsigned long*)
PUBLIC 9ea4 0 libunwind::UnwindCursor<libunwind::LocalAddressSpace, libunwind::Registers_arm64>::setInfoBasedOnIPRegister(bool)
PUBLIC a124 0 libunwind::UnwindCursor<libunwind::LocalAddressSpace, libunwind::Registers_arm64>::getRegisterName(int)
PUBLIC a130 0 libunwind::UnwindCursor<libunwind::LocalAddressSpace, libunwind::Registers_arm64>::stepThroughSigReturn(libunwind::Registers_arm64&)
PUBLIC a250 0 libunwind::DwarfInstructions<libunwind::LocalAddressSpace, libunwind::Registers_arm64>::stepWithDwarf(libunwind::LocalAddressSpace&, unsigned long, unsigned long, libunwind::Registers_arm64&, bool&, bool)
PUBLIC a6d8 0 libunwind::CFI_Parser<libunwind::LocalAddressSpace>::parseFDEInstructions(libunwind::LocalAddressSpace&, libunwind::CFI_Parser<libunwind::LocalAddressSpace>::FDE_Info const&, libunwind::CFI_Parser<libunwind::LocalAddressSpace>::CIE_Info const&, unsigned long, int, libunwind::CFI_Parser<libunwind::LocalAddressSpace>::PrologInfo*)
PUBLIC b320 0 libunwind::DwarfInstructions<libunwind::LocalAddressSpace, libunwind::Registers_arm64>::getCFA(libunwind::LocalAddressSpace&, libunwind::CFI_Parser<libunwind::LocalAddressSpace>::PrologInfo const&, libunwind::Registers_arm64 const&)
PUBLIC b454 0 libunwind::DwarfInstructions<libunwind::LocalAddressSpace, libunwind::Registers_arm64>::getSavedRegister(libunwind::LocalAddressSpace&, libunwind::Registers_arm64 const&, unsigned long, libunwind::CFI_Parser<libunwind::LocalAddressSpace>::RegisterLocation const&)
PUBLIC b664 0 libunwind::LocalAddressSpace::getEncodedP(unsigned long&, unsigned long, unsigned char, unsigned long)
PUBLIC b9f0 0 libunwind::LocalAddressSpace::getULEB128(unsigned long&, unsigned long)
PUBLIC bbb8 0 libunwind::DwarfInstructions<libunwind::LocalAddressSpace, libunwind::Registers_arm64>::evaluateExpression(unsigned long, libunwind::LocalAddressSpace&, libunwind::Registers_arm64 const&, unsigned long)
PUBLIC c574 0 libunwind::UnwindCursor<libunwind::LocalAddressSpace, libunwind::Registers_arm64>::getInfoFromDwarfSection(unsigned long, libunwind::UnwindInfoSections const&, unsigned int)
PUBLIC c848 0 libunwind::findUnwindSectionsByPhdr(dl_phdr_info*, unsigned long, void*)
PUBLIC c97c 0 libunwind::EHHeaderParser<libunwind::LocalAddressSpace>::decodeEHHdr(libunwind::LocalAddressSpace&, unsigned long, unsigned long, libunwind::EHHeaderParser<libunwind::LocalAddressSpace>::EHHeaderInfo&)
PUBLIC ca9c 0 libunwind::CFI_Parser<libunwind::LocalAddressSpace>::findFDE(libunwind::LocalAddressSpace&, unsigned long, unsigned long, unsigned long, unsigned long, libunwind::CFI_Parser<libunwind::LocalAddressSpace>::FDE_Info*, libunwind::CFI_Parser<libunwind::LocalAddressSpace>::CIE_Info*)
PUBLIC cc64 0 libunwind::EHHeaderParser<libunwind::LocalAddressSpace>::findFDE(libunwind::LocalAddressSpace&, unsigned long, unsigned long, unsigned int, libunwind::CFI_Parser<libunwind::LocalAddressSpace>::FDE_Info*, libunwind::CFI_Parser<libunwind::LocalAddressSpace>::CIE_Info*)
PUBLIC cdcc 0 libunwind::EHHeaderParser<libunwind::LocalAddressSpace>::getTableEntrySize(unsigned char)
PUBLIC cec8 0 libunwind::Registers_arm64::getRegisterName(int)
PUBLIC cef8 0 __libunwind_Registers_arm64_jumpto
PUBLIC m cf88 0 __unw_getcontext
PUBLIC d030 0 __aarch64_ldadd8_relax
PUBLIC d060 0 init_have_lse_atomics
PUBLIC d0f8 0 __init_cpu_features_constructor
PUBLIC d694 0 __init_cpu_features
PUBLIC d720 0 __aarch64_ldadd8_acq_rel
FUNC d750 14c 0 std::__ndk1::vector<std::__ndk1::basic_string<char, std::__ndk1::char_traits<char>, std::__ndk1::allocator<char> >, std::__ndk1::allocator<std::__ndk1::basic_string<char, std::__ndk1::char_traits<char>, std::__ndk1::allocator<char> > > >::vector[abi:ne180000](std::initializer_list<std::__ndk1::basic_string<char, std::__ndk1::char_traits<char>, std::__ndk1::allocator<char> > >)
FUNC d89c 8c 0 std::__ndk1::pair<std::__ndk1::basic_string<char, std::__ndk1::char_traits<char>, std::__ndk1::allocator<char> > const, std::__ndk1::vector<std::__ndk1::basic_string<char, std::__ndk1::char_traits<char>, std::__ndk1::allocator<char> >, std::__ndk1::allocator<std::__ndk1::basic_string<char, std::__ndk1::char_traits<char>, std::__ndk1::allocator<char> > > > >::~pair()
FUNC d928 7c 0 std::__ndk1::vector<std::__ndk1::basic_string<char, std::__ndk1::char_traits<char>, std::__ndk1::allocator<char> >, std::__ndk1::allocator<std::__ndk1::basic_string<char, std::__ndk1::char_traits<char>, std::__ndk1::allocator<char> > > >::~vector[abi:ne180000]()
FUNC d9a4 8 0 std::__ndk1::map<std::__ndk1::basic_string<char, std::__ndk1::char_traits<char>, std::__ndk1::allocator<char> >, std::__ndk1::vector<std::__ndk1::basic_string<char, std::__ndk1::char_traits<char>, std::__ndk1::allocator<char> >, std::__ndk1::allocator<std::__ndk1::basic_string<char, std::__ndk1::char_traits<char>, std::__ndk1::allocator<char> > > >, std::__ndk1::less<std::__ndk1::basic_string<char, std::__ndk1::char_traits<char>, std::__ndk1::allocator<char> > >, std::__ndk1::allocator<std::__ndk1::pair<std::__ndk1::basic_string<char, std::__ndk1::char_traits<char>, std::__ndk1::allocator<char> > const, std::__ndk1::vector<std::__ndk1::basic_string<char, std::__ndk1::char_traits<char>, std::__ndk1::allocator<char> >, std::__ndk1::allocator<std::__ndk1::basic_string<char, std::__ndk1::char_traits<char>, std::__ndk1::allocator<char> > > > > > >::~map[abi:ne180000]()
FUNC d9ac 128 0 _ZNSt6__ndk14pairIKNS_12basic_stringIcNS_11char_traitsIcEENS_9allocatorIcEEEES6_EC2B8ne180000IRA8_KcPSA_TnNS_9enable_ifIXclsr10_CheckArgsE17__enable_implicitIT_T0_EEEiE4typeELi0EEEOSF_OSG_
FUNC dad4 d0 0 _ZNSt6__ndk14pairIKNS_12basic_stringIcNS_11char_traitsIcEENS_9allocatorIcEEEES6_EC2B8ne180000IRA5_KcPSA_TnNS_9enable_ifIXclsr10_CheckArgsE17__enable_implicitIT_T0_EEEiE4typeELi0EEEOSF_OSG_
FUNC dba4 128 0 _ZNSt6__ndk14pairIKNS_12basic_stringIcNS_11char_traitsIcEENS_9allocatorIcEEEES6_EC2B8ne180000IRA7_KcPSA_TnNS_9enable_ifIXclsr10_CheckArgsE17__enable_implicitIT_T0_EEEiE4typeELi0EEEOSF_OSG_
FUNC dccc d8 0 _ZNSt6__ndk14pairIKNS_12basic_stringIcNS_11char_traitsIcEENS_9allocatorIcEEEES6_EC2B8ne180000IRA9_KcPSA_TnNS_9enable_ifIXclsr10_CheckArgsE17__enable_implicitIT_T0_EEEiE4typeELi0EEEOSF_OSG_
FUNC dda4 d4 0 _ZNSt6__ndk14pairIKNS_12basic_stringIcNS_11char_traitsIcEENS_9allocatorIcEEEES6_EC2B8ne180000IRA6_KcPSA_TnNS_9enable_ifIXclsr10_CheckArgsE17__enable_implicitIT_T0_EEEiE4typeELi0EEEOSF_OSG_
FUNC de78 26c 0 std::__ndk1::map<std::__ndk1::basic_string<char, std::__ndk1::char_traits<char>, std::__ndk1::allocator<char> >, std::__ndk1::basic_string<char, std::__ndk1::char_traits<char>, std::__ndk1::allocator<char> >, std::__ndk1::less<std::__ndk1::basic_string<char, std::__ndk1::char_traits<char>, std::__ndk1::allocator<char> > >, std::__ndk1::allocator<std::__ndk1::pair<std::__ndk1::basic_string<char, std::__ndk1::char_traits<char>, std::__ndk1::allocator<char> > const, std::__ndk1::basic_string<char, std::__ndk1::char_traits<char>, std::__ndk1::allocator<char> > > > >::map[abi:ne180000](std::initializer_list<std::__ndk1::pair<std::__ndk1::basic_string<char, std::__ndk1::char_traits<char>, std::__ndk1::allocator<char> > const, std::__ndk1::basic_string<char, std::__ndk1::char_traits<char>, std::__ndk1::allocator<char> > > >, std::__ndk1::less<std::__ndk1::basic_string<char, std::__ndk1::char_traits<char>, std::__ndk1::allocator<char> > > const&)
FUNC e0e4 44 0 std::__ndk1::pair<std::__ndk1::basic_string<char, std::__ndk1::char_traits<char>, std::__ndk1::allocator<char> > const, std::__ndk1::basic_string<char, std::__ndk1::char_traits<char>, std::__ndk1::allocator<char> > >::~pair()
FUNC e128 8 0 std::__ndk1::map<std::__ndk1::basic_string<char, std::__ndk1::char_traits<char>, std::__ndk1::allocator<char> >, std::__ndk1::basic_string<char, std::__ndk1::char_traits<char>, std::__ndk1::allocator<char> >, std::__ndk1::less<std::__ndk1::basic_string<char, std::__ndk1::char_traits<char>, std::__ndk1::allocator<char> > >, std::__ndk1::allocator<std::__ndk1::pair<std::__ndk1::basic_string<char, std::__ndk1::char_traits<char>, std::__ndk1::allocator<char> > const, std::__ndk1::basic_string<char, std::__ndk1::char_traits<char>, std::__ndk1::allocator<char> > > > >::~map[abi:ne180000]()
FUNC e130 44 0 CGlobal::BadgeObject::~BadgeObject()
FUNC e174 b30 0 __cxx_global_var_init.74
FUNC eca4 18 0 geode::modifier::ModifyBase<geode::modifier::ModifyDerive<XProfilePage, ProfilePage> >::~ModifyBase()
FUNC ecbc 14 0 std::__ndk1::basic_string<char, std::__ndk1::char_traits<char>, std::__ndk1::allocator<char> >::__throw_length_error[abi:ne180000]() const
FUNC ecd0 50 0 std::__ndk1::__throw_length_error[abi:ne180000](char const*)
FUNC ed20 30 0 std::length_error::length_error[abi:ne180000](char const*)
FUNC ed50 34 0 std::__throw_bad_array_new_length([abi:ne180000], void)
PUBLIC ed84 0 __clang_call_terminate
FUNC ed94 8c 0 std::__ndk1::__exception_guard_exceptions<std::__ndk1::vector<std::__ndk1::basic_string<char, std::__ndk1::char_traits<char>, std::__ndk1::allocator<char> >, std::__ndk1::allocator<std::__ndk1::basic_string<char, std::__ndk1::char_traits<char>, std::__ndk1::allocator<char> > > >::__destroy_vector>::~__exception_guard_exceptions[abi:ne180000]()
FUNC ee20 14 0 std::__ndk1::vector<std::__ndk1::basic_string<char, std::__ndk1::char_traits<char>, std::__ndk1::allocator<char> >, std::__ndk1::allocator<std::__ndk1::basic_string<char, std::__ndk1::char_traits<char>, std::__ndk1::allocator<char> > > >::__throw_length_error[abi:ne180000]() const
FUNC ee34 60 0 std::__ndk1::__exception_guard_exceptions<std::__ndk1::_AllocatorDestroyRangeReverse<std::__ndk1::allocator<std::__ndk1::basic_string<char, std::__ndk1::char_traits<char>, std::__ndk1::allocator<char> > >, std::__ndk1::basic_string<char, std::__ndk1::char_traits<char>, std::__ndk1::allocator<char> >*> >::~__exception_guard_exceptions[abi:ne180000]()
FUNC ee94 15c 0 std::__ndk1::vector<std::__ndk1::basic_string<char, std::__ndk1::char_traits<char>, std::__ndk1::allocator<char> >, std::__ndk1::allocator<std::__ndk1::basic_string<char, std::__ndk1::char_traits<char>, std::__ndk1::allocator<char> > > >::__init_with_size[abi:ne180000]<std::__ndk1::basic_string<char, std::__ndk1::char_traits<char>, std::__ndk1::allocator<char> >*, std::__ndk1::vector<std::__ndk1::basic_string<char, std::__ndk1::char_traits<char>, std::__ndk1::allocator<char> >, std::__ndk1::allocator<std::__ndk1::basic_string<char, std::__ndk1::char_traits<char>, std::__ndk1::allocator<char> > > >::__init_with_size[abi:ne180000]>(std::__ndk1::basic_string<char, std::__ndk1::char_traits<char>, std::__ndk1::allocator<char> >*, std::__ndk1::vector<std::__ndk1::basic_string<char, std::__ndk1::char_traits<char>, std::__ndk1::allocator<char> >, std::__ndk1::allocator<std::__ndk1::basic_string<char, std::__ndk1::char_traits<char>, std::__ndk1::allocator<char> > > >::__init_with_size[abi:ne180000], unsigned long)
FUNC eff0 70 0 std::__ndk1::basic_string<char, std::__ndk1::char_traits<char>, std::__ndk1::allocator<char> >::__init_copy_ctor_external(char const*, unsigned long)
FUNC f060 ac 0 std::__ndk1::basic_string<char, std::__ndk1::char_traits<char>, std::__ndk1::allocator<char> >::__assign_no_alias<true>(char const*, unsigned long)
FUNC f10c 100 0 std::__ndk1::basic_string<char, std::__ndk1::char_traits<char>, std::__ndk1::allocator<char> >::__assign_no_alias<false>(char const*, unsigned long)
FUNC f20c 19c 0 std::__ndk1::__tree_balance_after_insert[abi:ne180000]<std::__ndk1::__tree_node_base<void*>*>(std::__ndk1::__tree_node_base<void*>*, std::__ndk1::__tree_node_base<void*>*)
FUNC f3a8 a4 0 std::__ndk1::unique_ptr<std::__ndk1::__tree_node<std::__ndk1::__value_type<std::__ndk1::basic_string<char, std::__ndk1::char_traits<char>, std::__ndk1::allocator<char> >, std::__ndk1::vector<std::__ndk1::basic_string<char, std::__ndk1::char_traits<char>, std::__ndk1::allocator<char> >, std::__ndk1::allocator<std::__ndk1::basic_string<char, std::__ndk1::char_traits<char>, std::__ndk1::allocator<char> > > > >, void*>, std::__ndk1::__tree_node_destructor<std::__ndk1::allocator<std::__ndk1::__tree_node<std::__ndk1::__value_type<std::__ndk1::basic_string<char, std::__ndk1::char_traits<char>, std::__ndk1::allocator<char> >, std::__ndk1::vector<std::__ndk1::basic_string<char, std::__ndk1::char_traits<char>, std::__ndk1::allocator<char> >, std::__ndk1::allocator<std::__ndk1::basic_string<char, std::__ndk1::char_traits<char>, std::__ndk1::allocator<char> > > > >, void*> > > >::reset[abi:ne180000](std::__ndk1::__tree_node<std::__ndk1::__value_type<std::__ndk1::basic_string<char, std::__ndk1::char_traits<char>, std::__ndk1::allocator<char> >, std::__ndk1::vector<std::__ndk1::basic_string<char, std::__ndk1::char_traits<char>, std::__ndk1::allocator<char> >, std::__ndk1::allocator<std::__ndk1::basic_string<char, std::__ndk1::char_traits<char>, std::__ndk1::allocator<char> > > > >, void*>*)
FUNC f44c 9c 0 std::__ndk1::__tree<std::__ndk1::__value_type<std::__ndk1::basic_string<char, std::__ndk1::char_traits<char>, std::__ndk1::allocator<char> >, std::__ndk1::vector<std::__ndk1::basic_string<char, std::__ndk1::char_traits<char>, std::__ndk1::allocator<char> >, std::__ndk1::allocator<std::__ndk1::basic_string<char, std::__ndk1::char_traits<char>, std::__ndk1::allocator<char> > > > >, std::__ndk1::__map_value_compare<std::__ndk1::basic_string<char, std::__ndk1::char_traits<char>, std::__ndk1::allocator<char> >, std::__ndk1::__value_type<std::__ndk1::basic_string<char, std::__ndk1::char_traits<char>, std::__ndk1::allocator<char> >, std::__ndk1::vector<std::__ndk1::basic_string<char, std::__ndk1::char_traits<char>, std::__ndk1::allocator<char> >, std::__ndk1::allocator<std::__ndk1::basic_string<char, std::__ndk1::char_traits<char>, std::__ndk1::allocator<char> > > > >, std::__ndk1::less<std::__ndk1::basic_string<char, std::__ndk1::char_traits<char>, std::__ndk1::allocator<char> > >, true>, std::__ndk1::allocator<std::__ndk1::__value_type<std::__ndk1::basic_string<char, std::__ndk1::char_traits<char>, std::__ndk1::allocator<char> >, std::__ndk1::vector<std::__ndk1::basic_string<char, std::__ndk1::char_traits<char>, std::__ndk1::allocator<char> >, std::__ndk1::allocator<std::__ndk1::basic_string<char, std::__ndk1::char_traits<char>, std::__ndk1::allocator<char> > > > > > >::destroy(std::__ndk1::__tree_node<std::__ndk1::__value_type<std::__ndk1::basic_string<char, std::__ndk1::char_traits<char>, std::__ndk1::allocator<char> >, std::__ndk1::vector<std::__ndk1::basic_string<char, std::__ndk1::char_traits<char>, std::__ndk1::allocator<char> >, std::__ndk1::allocator<std::__ndk1::basic_string<char, std::__ndk1::char_traits<char>, std::__ndk1::allocator<char> > > > >, void*>*)
FUNC f4e8 5c 0 std::__ndk1::unique_ptr<std::__ndk1::__tree_node<std::__ndk1::__value_type<std::__ndk1::basic_string<char, std::__ndk1::char_traits<char>, std::__ndk1::allocator<char> >, std::__ndk1::basic_string<char, std::__ndk1::char_traits<char>, std::__ndk1::allocator<char> > >, void*>, std::__ndk1::__tree_node_destructor<std::__ndk1::allocator<std::__ndk1::__tree_node<std::__ndk1::__value_type<std::__ndk1::basic_string<char, std::__ndk1::char_traits<char>, std::__ndk1::allocator<char> >, std::__ndk1::basic_string<char, std::__ndk1::char_traits<char>, std::__ndk1::allocator<char> > >, void*> > > >::~unique_ptr[abi:ne180000]()
FUNC f544 104 0 std::__ndk1::__tree<std::__ndk1::__value_type<std::__ndk1::basic_string<char, std::__ndk1::char_traits<char>, std::__ndk1::allocator<char> >, std::__ndk1::basic_string<char, std::__ndk1::char_traits<char>, std::__ndk1::allocator<char> > >, std::__ndk1::__map_value_compare<std::__ndk1::basic_string<char, std::__ndk1::char_traits<char>, std::__ndk1::allocator<char> >, std::__ndk1::__value_type<std::__ndk1::basic_string<char, std::__ndk1::char_traits<char>, std::__ndk1::allocator<char> >, std::__ndk1::basic_string<char, std::__ndk1::char_traits<char>, std::__ndk1::allocator<char> > >, std::__ndk1::less<std::__ndk1::basic_string<char, std::__ndk1::char_traits<char>, std::__ndk1::allocator<char> > >, true>, std::__ndk1::allocator<std::__ndk1::__value_type<std::__ndk1::basic_string<char, std::__ndk1::char_traits<char>, std::__ndk1::allocator<char> >, std::__ndk1::basic_string<char, std::__ndk1::char_traits<char>, std::__ndk1::allocator<char> > > > >::__find_equal<std::__ndk1::basic_string<char, std::__ndk1::char_traits<char>, std::__ndk1::allocator<char> > >(std::__ndk1::__tree_end_node<std::__ndk1::__tree_node_base<void*>*>*&, std::__ndk1::basic_string<char, std::__ndk1::char_traits<char>, std::__ndk1::allocator<char> > const&)
FUNC f648 58 0 std::__ndk1::__tree<std::__ndk1::__value_type<std::__ndk1::basic_string<char, std::__ndk1::char_traits<char>, std::__ndk1::allocator<char> >, std::__ndk1::basic_string<char, std::__ndk1::char_traits<char>, std::__ndk1::allocator<char> > >, std::__ndk1::__map_value_compare<std::__ndk1::basic_string<char, std::__ndk1::char_traits<char>, std::__ndk1::allocator<char> >, std::__ndk1::__value_type<std::__ndk1::basic_string<char, std::__ndk1::char_traits<char>, std::__ndk1::allocator<char> >, std::__ndk1::basic_string<char, std::__ndk1::char_traits<char>, std::__ndk1::allocator<char> > >, std::__ndk1::less<std::__ndk1::basic_string<char, std::__ndk1::char_traits<char>, std::__ndk1::allocator<char> > >, true>, std::__ndk1::allocator<std::__ndk1::__value_type<std::__ndk1::basic_string<char, std::__ndk1::char_traits<char>, std::__ndk1::allocator<char> >, std::__ndk1::basic_string<char, std::__ndk1::char_traits<char>, std::__ndk1::allocator<char> > > > >::destroy(std::__ndk1::__tree_node<std::__ndk1::__value_type<std::__ndk1::basic_string<char, std::__ndk1::char_traits<char>, std::__ndk1::allocator<char> >, std::__ndk1::basic_string<char, std::__ndk1::char_traits<char>, std::__ndk1::allocator<char> > >, void*>*)
FUNC f6a0 120 0 std::__ndk1::__tree<std::__ndk1::__value_type<std::__ndk1::basic_string<char, std::__ndk1::char_traits<char>, std::__ndk1::allocator<char> >, std::__ndk1::basic_string<char, std::__ndk1::char_traits<char>, std::__ndk1::allocator<char> > >, std::__ndk1::__map_value_compare<std::__ndk1::basic_string<char, std::__ndk1::char_traits<char>, std::__ndk1::allocator<char> >, std::__ndk1::__value_type<std::__ndk1::basic_string<char, std::__ndk1::char_traits<char>, std::__ndk1::allocator<char> >, std::__ndk1::basic_string<char, std::__ndk1::char_traits<char>, std::__ndk1::allocator<char> > >, std::__ndk1::less<std::__ndk1::basic_string<char, std::__ndk1::char_traits<char>, std::__ndk1::allocator<char> > >, true>, std::__ndk1::allocator<std::__ndk1::__value_type<std::__ndk1::basic_string<char, std::__ndk1::char_traits<char>, std::__ndk1::allocator<char> >, std::__ndk1::basic_string<char, std::__ndk1::char_traits<char>, std::__ndk1::allocator<char> > > > >::__emplace_unique_key_args<std::__ndk1::basic_string<char, std::__ndk1::char_traits<char>, std::__ndk1::allocator<char> >, std::__ndk1::piecewise_construct_t const&, std::__ndk1::tuple<std::__ndk1::basic_string<char, std::__ndk1::char_traits<char>, std::__ndk1::allocator<char> > const&>, std::__ndk1::tuple<> >(std::__ndk1::basic_string<char, std::__ndk1::char_traits<char>, std::__ndk1::allocator<char> > const&, std::__ndk1::piecewise_construct_t const&, std::__ndk1::tuple<std::__ndk1::basic_string<char, std::__ndk1::char_traits<char>, std::__ndk1::allocator<char> > const&>, std::__ndk1::tuple<>)
FUNC f7c0 470 0 geode::modifier::ModifyDerive<XProfilePage, ProfilePage>::apply()
FUNC fc30 50 0 std::__ndk1::shared_ptr<geode::Hook>::~shared_ptr[abi:ne180000]()
FUNC fc80 74 0 geode::impl::ResultData<geode::Hook*, std::__ndk1::basic_string<char, std::__ndk1::char_traits<char>, std::__ndk1::allocator<char> > >::~ResultData()
FUNC fcf4 4 0 geode::modifier::ModifyBase<geode::modifier::ModifyDerive<XProfilePage, ProfilePage> >::apply()
FUNC fcf8 154 0 _ZN5geode15UnwrapExceptionC2IRPNS_4HookEQsr4implE18IsStringStreamableIT_EEENS_4impl5OkTagEOS5_
FUNC fe4c 34 0 std::__ndk1::__throw_bad_variant_access[abi:ne180000]()
FUNC fe80 124 0 std::__ndk1::basic_stringstream<char, std::__ndk1::char_traits<char>, std::__ndk1::allocator<char> >::basic_stringstream[abi:ne180000]()
FUNC ffa4 80 0 std::__ndk1::basic_stringstream<char, std::__ndk1::char_traits<char>, std::__ndk1::allocator<char> >::~basic_stringstream()
FUNC 10024 24 0 geode::UnwrapException::~UnwrapException()
FUNC 10048 198 0 std::__ndk1::__put_character_sequence[abi:ne180000]<char, std::__ndk1::char_traits<char> >(std::__ndk1::basic_ostream<char, std::__ndk1::char_traits<char> >, std::__ndk1::basic_ostream const*, unsigned long)
FUNC 101e0 1b4 0 std::__ndk1::__pad_and_output[abi:ne180000]<char, std::__ndk1::char_traits<char> >(std::__ndk1::char_traits<char>, std::__ndk1::ostreambuf_iterator const*, std::__ndk1::ostreambuf_iterator const, std::__ndk1::ostreambuf_iterator const, std::__ndk1::ios_base&, std::__ndk1::ostreambuf_iterator)
FUNC 10394 15c 0 std::__ndk1::basic_stringbuf<char, std::__ndk1::char_traits<char>, std::__ndk1::allocator<char> >::str[abi:ne180000]() &&
FUNC 104f0 148 0 std::__ndk1::basic_stringbuf<char, std::__ndk1::char_traits<char>, std::__ndk1::allocator<char> >::__init_buf_ptrs[abi:ne180000]()
FUNC 10638 68 0 std::__ndk1::__split_buffer<std::__ndk1::basic_string<char, std::__ndk1::char_traits<char>, std::__ndk1::allocator<char> >, std::__ndk1::allocator<std::__ndk1::basic_string<char, std::__ndk1::char_traits<char>, std::__ndk1::allocator<char> > >&>::~__split_buffer()
FUNC 106a0 4 0 std::__ndk1::__variant_detail::__visitation::__base::__dispatcher<(unsigned long)0>::__dispatch[abi:ne180000]<std::__ndk1::__variant_detail::__dtor<std::__ndk1::__variant_detail::__traits<geode::Hook*, std::__ndk1::basic_string<char, std::__ndk1::char_traits<char>, std::__ndk1::allocator<char> > >, (std::__ndk1::__variant_detail::_Trait)1>::__destroy[abi:ne180000]()::{lambda(auto:1&)#1}, std::__ndk1::__variant_detail::__base<(std::__ndk1::__variant_detail::__traits<geode::Hook*, std::__ndk1::basic_string<char, std::__ndk1::char_traits<char>, std::__ndk1::allocator<char> > >)1, geode::Hook, std::__ndk1::allocator<char> >&>(std::__ndk1::__variant_detail::__dtor<std::__ndk1::__variant_detail::__traits<geode::Hook*, std::__ndk1::basic_string<char, std::__ndk1::char_traits<char>, std::__ndk1::allocator<char> > >, (std::__ndk1::__variant_detail::_Trait)1>, std::__ndk1::__variant_detail::__base<(std::__ndk1::__variant_detail::__traits<geode::Hook*, std::__ndk1::basic_string<char, std::__ndk1::char_traits<char>, std::__ndk1::allocator<char> > >)1, geode::Hook, std::__ndk1::allocator<char> >&)
FUNC 106a4 14 0 std::__ndk1::__variant_detail::__visitation::__base::__dispatcher<(unsigned long)1>::__dispatch[abi:ne180000]<std::__ndk1::__variant_detail::__dtor<std::__ndk1::__variant_detail::__traits<geode::Hook*, std::__ndk1::basic_string<char, std::__ndk1::char_traits<char>, std::__ndk1::allocator<char> > >, (std::__ndk1::__variant_detail::_Trait)1>::__destroy[abi:ne180000]()::{lambda(auto:1&)#1}, std::__ndk1::__variant_detail::__base<(std::__ndk1::__variant_detail::__traits<geode::Hook*, std::__ndk1::basic_string<char, std::__ndk1::char_traits<char>, std::__ndk1::allocator<char> > >)1, geode::Hook, std::__ndk1::allocator<char> >&>(std::__ndk1::__variant_detail::__dtor<std::__ndk1::__variant_detail::__traits<geode::Hook*, std::__ndk1::basic_string<char, std::__ndk1::char_traits<char>, std::__ndk1::allocator<char> > >, (std::__ndk1::__variant_detail::_Trait)1>, std::__ndk1::__variant_detail::__base<(std::__ndk1::__variant_detail::__traits<geode::Hook*, std::__ndk1::basic_string<char, std::__ndk1::char_traits<char>, std::__ndk1::allocator<char> > >)1, geode::Hook, std::__ndk1::allocator<char> >&)
FUNC 106b8 84 0 std::__ndk1::__tree<std::__ndk1::__value_type<std::__ndk1::basic_string<char, std::__ndk1::char_traits<char>, std::__ndk1::allocator<char> >, std::__ndk1::shared_ptr<geode::Hook> >, std::__ndk1::__map_value_compare<std::__ndk1::basic_string<char, std::__ndk1::char_traits<char>, std::__ndk1::allocator<char> >, std::__ndk1::__value_type<std::__ndk1::basic_string<char, std::__ndk1::char_traits<char>, std::__ndk1::allocator<char> >, std::__ndk1::shared_ptr<geode::Hook> >, std::__ndk1::less<std::__ndk1::basic_string<char, std::__ndk1::char_traits<char>, std::__ndk1::allocator<char> > >, true>, std::__ndk1::allocator<std::__ndk1::__value_type<std::__ndk1::basic_string<char, std::__ndk1::char_traits<char>, std::__ndk1::allocator<char> >, std::__ndk1::shared_ptr<geode::Hook> > > >::destroy(std::__ndk1::__tree_node<std::__ndk1::__value_type<std::__ndk1::basic_string<char, std::__ndk1::char_traits<char>, std::__ndk1::allocator<char> >, std::__ndk1::shared_ptr<geode::Hook> >, void*>*)
FUNC 1073c d60 0 geode::modifier::AsStaticFunction_loadPageFromUserInfo<XProfilePage, void (XProfilePage::*)(GJUserScore*)>::Impl<void (XProfilePage::*)(GJUserScore*)>::function(XProfilePage*, GJUserScore*)
FUNC 1149c 50 0 std::__ndk1::shared_ptr<tulip::hook::CallingConvention>::~shared_ptr[abi:ne180000]()
FUNC 114ec 64 0 tulip::hook::HandlerMetadata::~HandlerMetadata()
FUNC 11550 1120 0 XProfilePage::onCherryMember(cocos2d::CCObject*)
FUNC 12670 d8 0 geode::cast::traverseTypeinfoFor(void*, geode::cast::ClassTypeinfoType const*, char const*)
FUNC 12748 1c58 0 _GLOBAL__sub_I_main.cpp
FUNC 143a0 30 0 geode::getMod()
FUNC 143d0 30 0 geodeImplicitEntry
FUNC 14400 134 0 wrapFunction(unsigned long, tulip::hook::WrapperMetadata const&)
FUNC 14534 78 0 geode::impl::ResultData<void*, std::__ndk1::basic_string<char, std::__ndk1::char_traits<char>, std::__ndk1::allocator<char> > >::unwrapErr() &
FUNC 145ac 74 0 geode::impl::ResultData<void*, std::__ndk1::basic_string<char, std::__ndk1::char_traits<char>, std::__ndk1::allocator<char> > >::~ResultData()
FUNC 14620 64 0 tulip::hook::WrapperMetadata::~WrapperMetadata()
FUNC 14684 1b8 0 FLAlertLayer::create(FLAlertLayerProtocol*, char const*, gd::string, char const*, char const*, float)
FUNC 1483c 148 0 tulip::hook::AbstractFunction::from<FLAlertLayer*, FLAlertLayerProtocol*, char const*, gd::string, char const*, char const*, float>(FLAlertLayer* (*)(FLAlertLayerProtocol*, char const*, gd::string, char const*, char const*, float))
FUNC 14984 154 0 _ZN5geode15UnwrapExceptionC2IRPvQsr4implE18IsStringStreamableIT_EEENS_4impl5OkTagEOS4_
FUNC 14ad8 168 0 _ZN5geode15UnwrapExceptionC2IRNSt6__ndk112basic_stringIcNS2_11char_traitsIcEENS2_9allocatorIcEEEEQsr4implE18IsStringStreamableIT_EEENS_4impl6ErrTagEOSA_
FUNC 14c40 4 0 std::__ndk1::__variant_detail::__visitation::__base::__dispatcher<(unsigned long)0>::__dispatch[abi:ne180000]<std::__ndk1::__variant_detail::__dtor<std::__ndk1::__variant_detail::__traits<void*, std::__ndk1::basic_string<char, std::__ndk1::char_traits<char>, std::__ndk1::allocator<char> > >, (std::__ndk1::__variant_detail::_Trait)1>::__destroy[abi:ne180000]()::{lambda(auto:1&)#1}, std::__ndk1::__variant_detail::__base<(std::__ndk1::__variant_detail::__traits<void*, std::__ndk1::basic_string<char, std::__ndk1::char_traits<char>, std::__ndk1::allocator<char> > >)1, std::__ndk1::__variant_detail::__traits, std::__ndk1::allocator<char> >&>(std::__ndk1::__variant_detail::__dtor<std::__ndk1::__variant_detail::__traits<void*, std::__ndk1::basic_string<char, std::__ndk1::char_traits<char>, std::__ndk1::allocator<char> > >, (std::__ndk1::__variant_detail::_Trait)1>, std::__ndk1::__variant_detail::__base<(std::__ndk1::__variant_detail::__traits<void*, std::__ndk1::basic_string<char, std::__ndk1::char_traits<char>, std::__ndk1::allocator<char> > >)1, std::__ndk1::__variant_detail::__traits, std::__ndk1::allocator<char> >&)
FUNC 14c44 14 0 std::__ndk1::__variant_detail::__visitation::__base::__dispatcher<(unsigned long)1>::__dispatch[abi:ne180000]<std::__ndk1::__variant_detail::__dtor<std::__ndk1::__variant_detail::__traits<void*, std::__ndk1::basic_string<char, std::__ndk1::char_traits<char>, std::__ndk1::allocator<char> > >, (std::__ndk1::__variant_detail::_Trait)1>::__destroy[abi:ne180000]()::{lambda(auto:1&)#1}, std::__ndk1::__variant_detail::__base<(std::__ndk1::__variant_detail::__traits<void*, std::__ndk1::basic_string<char, std::__ndk1::char_traits<char>, std::__ndk1::allocator<char> > >)1, std::__ndk1::__variant_detail::__traits, std::__ndk1::allocator<char> >&>(std::__ndk1::__variant_detail::__dtor<std::__ndk1::__variant_detail::__traits<void*, std::__ndk1::basic_string<char, std::__ndk1::char_traits<char>, std::__ndk1::allocator<char> > >, (std::__ndk1::__variant_detail::_Trait)1>, std::__ndk1::__variant_detail::__base<(std::__ndk1::__variant_detail::__traits<void*, std::__ndk1::basic_string<char, std::__ndk1::char_traits<char>, std::__ndk1::allocator<char> > >)1, std::__ndk1::__variant_detail::__traits, std::__ndk1::allocator<char> >&)
PUBLIC 14c58 0 __udivti3
PUBLIC 14c64 0 __udivmodti4
PUBLIC m 14eb0 0 __eqtf2
PUBLIC 14f50 0 __unordtf2
FUNC 14f88 294 0 fmt::v11::detail::write_loc(fmt::v11::basic_appender<char>, fmt::v11::loc_value, fmt::v11::format_specs const&, fmt::v11::detail::locale_ref)
FUNC 1521c 70 0 fmt::v11::format_facet<std::__ndk1::locale>::~format_facet()
FUNC 1528c 50 0 fmt::v11::report_error(char const*)
FUNC 152dc 2c 0 fmt::v11::format_error::runtime_error(char const*)
FUNC 15308 750 0 fmt::v11::format_facet<std::__ndk1::locale>::do_put(fmt::v11::basic_appender<char>, fmt::v11::loc_value, fmt::v11::format_specs const&) const
FUNC 15a58 64 0 fmt::v11::detail::loc_writer<char>::~loc_writer()
FUNC 15abc 12c 0 fmt::v11::vformat(fmt::v11::basic_string_view<char>, fmt::v11::basic_format_args<fmt::v11::context>)
FUNC 15be8 3c8 0 fmt::v11::detail::vformat_to<char>(fmt::v11::detail::buffer<char>&, fmt::v11::basic_string_view<char>, fmt::v11::detail::vformat_args<char>::type, fmt::v11::detail::locale_ref)
FUNC 15fb0 228 0 fmt::v11::detail::is_printable(unsigned int)
FUNC 161d8 2b4 0 fmt::v11::detail::dragonbox::to_decimal<float>(float)
FUNC 1648c 530 0 fmt::v11::detail::dragonbox::to_decimal<double>(double)
FUNC 169bc 78 0 fmt::v11::basic_memory_buffer<char, (unsigned long)500, std::__ndk1::allocator<char> >::grow(fmt::v11::detail::buffer<char>&, unsigned long)
FUNC 16a34 78 0 fmt::v11::format_facet<std::__ndk1::locale>::~format_facet()
FUNC 16aac 24 0 fmt::v11::format_error::~format_error()
FUNC 16ad0 150 0 fmt::v11::detail::copy_noinline<char, char const*, fmt::v11::basic_appender<char> >(char const*, char const*, fmt::v11::basic_appender<char>)
FUNC 16c20 6c 0 fmt::v11::detail::default_arg_formatter<char>::operator()<bool>(bool)
FUNC 16c8c 74 0 fmt::v11::detail::default_arg_formatter<char>::operator()<char>(char)
FUNC 16d00 f0 0 fmt::v11::detail::default_arg_formatter<char>::operator()<float>(float)
FUNC 16df0 f0 0 fmt::v11::detail::default_arg_formatter<char>::operator()<double>(double)
FUNC 16ee0 48 0 fmt::v11::detail::default_arg_formatter<char>::operator()<char const*>(char const*)
FUNC 16f28 9c 0 fmt::v11::detail::default_arg_formatter<char>::operator()<void const*>(void const*)
FUNC 16fc4 220 0 _ZN3fmt3v116detail5writeIcNS0_14basic_appenderIcEEiTnNSt6__ndk19enable_ifIXaaaasr11is_integralIT1_EE5valuentsr3std7is_sameIS7_bEE5valuentsr3std7is_sameIS7_T_EE5valueEiE4typeELi0EEET0_SB_S7_
FUNC 171e4 150 0 fmt::v11::detail::copy_noinline<char, char*, fmt::v11::basic_appender<char> >(char*, char*, fmt::v11::basic_appender<char>)
FUNC 17334 1c4 0 _ZN3fmt3v116detail5writeIcNS0_14basic_appenderIcEEjTnNSt6__ndk19enable_ifIXaaaasr11is_integralIT1_EE5valuentsr3std7is_sameIS7_bEE5valuentsr3std7is_sameIS7_T_EE5valueEiE4typeELi0EEET0_SB_S7_
FUNC 174f8 244 0 _ZN3fmt3v116detail5writeIcNS0_14basic_appenderIcEExTnNSt6__ndk19enable_ifIXaaaasr11is_integralIT1_EE5valuentsr3std7is_sameIS7_bEE5valuentsr3std7is_sameIS7_T_EE5valueEiE4typeELi0EEET0_SB_S7_
FUNC 1773c 1ec 0 _ZN3fmt3v116detail5writeIcNS0_14basic_appenderIcEEyTnNSt6__ndk19enable_ifIXaaaasr11is_integralIT1_EE5valuentsr3std7is_sameIS7_bEE5valuentsr3std7is_sameIS7_T_EE5valueEiE4typeELi0EEET0_SB_S7_
FUNC 17928 304 0 _ZN3fmt3v116detail5writeIcNS0_14basic_appenderIcEEnTnNSt6__ndk19enable_ifIXaaaasr11is_integralIT1_EE5valuentsr3std7is_sameIS7_bEE5valuentsr3std7is_sameIS7_T_EE5valueEiE4typeELi0EEET0_SB_S7_
FUNC 17c2c 2a4 0 _ZN3fmt3v116detail5writeIcNS0_14basic_appenderIcEEoTnNSt6__ndk19enable_ifIXaaaasr11is_integralIT1_EE5valuentsr3std7is_sameIS7_bEE5valuentsr3std7is_sameIS7_T_EE5valueEiE4typeELi0EEET0_SB_S7_
FUNC 17ed0 290 0 _ZN3fmt3v116detail5writeIcNS0_14basic_appenderIcEEbTnNSt6__ndk19enable_ifIXsr3std7is_sameIT1_bEE5valueEiE4typeELi0EEET0_SA_S7_RKNS0_12format_specsENS1_10locale_refE
FUNC 18160 dc0 0 fmt::v11::detail::write_int_noinline<char, fmt::v11::basic_appender<char>, unsigned int>(fmt::v11::basic_appender<char>, fmt::v11::detail::write_int_arg<unsigned int>, fmt::v11::format_specs const&, fmt::v11::detail::locale_ref)
FUNC 18f20 1d0 0 fmt::v11::detail::fill<char, fmt::v11::basic_appender<char> >(fmt::v11::basic_appender<char>, unsigned long, fmt::v11::detail::fill_t const&)
FUNC 190f0 22c 0 fmt::v11::detail::write_padded<char, (fmt::v11::align::type)1, fmt::v11::basic_appender<char>, fmt::v11::detail::write_char<char, fmt::v11::basic_appender<char> >(fmt::v11::basic_appender<char>, char, fmt::v11::format_specs const&)::{lambda(fmt::v11::basic_appender<char>&)#1}>(fmt::v11::basic_appender<char>, fmt::v11::format_specs const&, unsigned long, unsigned long, fmt::v11::detail::write_char<char, fmt::v11::basic_appender<char> >(fmt::v11::basic_appender<char>, char, fmt::v11::format_specs const&)::{lambda(fmt::v11::basic_appender<char>&)#1})
FUNC 1931c 30c 0 fmt::v11::detail::write_escaped_cp<fmt::v11::basic_appender<char>, char>(fmt::v11::basic_appender<char>, fmt::v11::detail::find_escape_result<char> const&)
FUNC 19628 178 0 fmt::v11::detail::write_codepoint<(unsigned long)2, char, fmt::v11::basic_appender<char> >(fmt::v11::basic_appender<char>, char, unsigned int)
FUNC 197a0 178 0 fmt::v11::detail::write_codepoint<(unsigned long)8, char, fmt::v11::basic_appender<char> >(fmt::v11::basic_appender<char>, char, unsigned int)
FUNC 19918 240 0 fmt::v11::detail::write_padded<char, (fmt::v11::align::type)1, fmt::v11::basic_appender<char>, fmt::v11::detail::write_nonfinite<char, fmt::v11::basic_appender<char> >(fmt::v11::basic_appender<char>, bool, fmt::v11::format_specs, fmt::v11::sign::type)::{lambda(fmt::v11::basic_appender<char>&)#1}>(fmt::v11::basic_appender<char>, fmt::v11::format_specs const&, unsigned long, unsigned long, fmt::v11::detail::write_nonfinite<char, fmt::v11::basic_appender<char> >(fmt::v11::basic_appender<char>, bool, fmt::v11::format_specs, fmt::v11::sign::type)::{lambda(fmt::v11::basic_appender<char>&)#1})
FUNC 19b58 c2c 0 fmt::v11::detail::do_write_float<char, fmt::v11::basic_appender<char>, fmt::v11::detail::dragonbox::decimal_fp<float>, fmt::v11::detail::digit_grouping<char> >(fmt::v11::basic_appender<char>, fmt::v11::detail::dragonbox::decimal_fp<float> const&, fmt::v11::format_specs const&, fmt::v11::detail::float_specs, fmt::v11::detail::locale_ref)
FUNC 1a784 154 0 fmt::v11::detail::do_write_float<char, fmt::v11::basic_appender<char>, fmt::v11::detail::dragonbox::decimal_fp<float>, fmt::v11::detail::digit_grouping<char> >(fmt::v11::basic_appender<char>, fmt::v11::detail::dragonbox::decimal_fp<float> const&, fmt::v11::format_specs const&, fmt::v11::detail::float_specs, fmt::v11::detail::locale_ref)::{lambda(fmt::v11::basic_appender<char>(fmt::v11::basic_appender<char>))#1}::operator() const
FUNC 1a8d8 238 0 fmt::v11::detail::digit_grouping<char>::digit_grouping(fmt::v11::detail::locale_ref, bool)
FUNC 1ab10 44 0 fmt::v11::detail::digit_grouping<char>::~digit_grouping()
FUNC 1ab54 1a4 0 fmt::v11::detail::write_exponent<char, fmt::v11::basic_appender<char> >(int, fmt::v11::basic_appender<char>)
FUNC 1acf8 17c 0 _ZN3fmt3v116detail17write_significandIcjTnNSt6__ndk19enable_ifIXsr3std11is_integralIT0_EE5valueEiE4typeELi0EEEPT_S9_S5_iiS8_
FUNC 1ae74 3a4 0 fmt::v11::detail::digit_grouping<char>::apply<fmt::v11::basic_appender<char>, char>(fmt::v11::basic_appender<char>, fmt::v11::basic_string_view<char>) const
FUNC 1b218 a0 0 fmt::v11::basic_memory_buffer<int, (unsigned long)500, std::__ndk1::allocator<int> >::grow(fmt::v11::detail::buffer<int>&, unsigned long)
FUNC 1b2b8 c6c 0 fmt::v11::detail::do_write_float<char, fmt::v11::basic_appender<char>, fmt::v11::detail::dragonbox::decimal_fp<double>, fmt::v11::detail::digit_grouping<char> >(fmt::v11::basic_appender<char>, fmt::v11::detail::dragonbox::decimal_fp<double> const&, fmt::v11::format_specs const&, fmt::v11::detail::float_specs, fmt::v11::detail::locale_ref)
FUNC 1bf24 158 0 fmt::v11::detail::do_write_float<char, fmt::v11::basic_appender<char>, fmt::v11::detail::dragonbox::decimal_fp<double>, fmt::v11::detail::digit_grouping<char> >(fmt::v11::basic_appender<char>, fmt::v11::detail::dragonbox::decimal_fp<double> const&, fmt::v11::format_specs const&, fmt::v11::detail::float_specs, fmt::v11::detail::locale_ref)::{lambda(fmt::v11::basic_appender<char>(fmt::v11::basic_appender<char>))#1}::operator() const
FUNC 1c07c 190 0 _ZN3fmt3v116detail17write_significandIcmTnNSt6__ndk19enable_ifIXsr3std11is_integralIT0_EE5valueEiE4typeELi0EEEPT_S9_S5_iiS8_
FUNC 1c20c ad4 0 fmt::v11::detail::write_float<char, fmt::v11::basic_appender<char>, long double>(fmt::v11::basic_appender<char>, long double, fmt::v11::format_specs, fmt::v11::detail::locale_ref)
FUNC 1cce0 1dc 0 fmt::v11::detail::write_padded<char, (fmt::v11::align::type)2, fmt::v11::basic_appender<char>, fmt::v11::detail::write_bytes<char, (fmt::v11::align::type)2, fmt::v11::basic_appender<char> >(fmt::v11::basic_appender<char>, fmt::v11::basic_string_view<char>, fmt::v11::format_specs const&)::{lambda(fmt::v11::basic_appender<char>&)#1}>(fmt::v11::basic_appender<char>, fmt::v11::format_specs const&, unsigned long, unsigned long, fmt::v11::detail::write_bytes<char, (fmt::v11::align::type)2, fmt::v11::basic_appender<char> >(fmt::v11::basic_appender<char>, fmt::v11::basic_string_view<char>, fmt::v11::format_specs const&)::{lambda(fmt::v11::basic_appender<char>&)#1})
FUNC 1cebc 1350 0 fmt::v11::detail::format_dragon(fmt::v11::detail::basic_fp<unsigned __int128>, unsigned int, int, fmt::v11::detail::buffer<char>&, int&)
FUNC 1e20c 124 0 fmt::v11::detail::bigint::operator<<=(int)
FUNC 1e330 744 0 fmt::v11::detail::bigint::assign_pow10(int)
FUNC 1ea74 2f4 0 fmt::v11::detail::bigint::divmod_assign(fmt::v11::detail::bigint const&)
FUNC 1ed68 a0 0 fmt::v11::basic_memory_buffer<unsigned int, (unsigned long)32, std::__ndk1::allocator<unsigned int> >::grow(fmt::v11::detail::buffer<unsigned int>&, unsigned long)
FUNC 1ee08 e84 0 fmt::v11::detail::do_write_float<char, fmt::v11::basic_appender<char>, fmt::v11::detail::big_decimal_fp, fmt::v11::detail::digit_grouping<char> >(fmt::v11::basic_appender<char>, fmt::v11::detail::big_decimal_fp const&, fmt::v11::format_specs const&, fmt::v11::detail::float_specs, fmt::v11::detail::locale_ref)
FUNC 1fc8c 160 0 fmt::v11::detail::do_write_float<char, fmt::v11::basic_appender<char>, fmt::v11::detail::big_decimal_fp, fmt::v11::detail::digit_grouping<char> >(fmt::v11::basic_appender<char>, fmt::v11::detail::big_decimal_fp const&, fmt::v11::format_specs const&, fmt::v11::detail::float_specs, fmt::v11::detail::locale_ref)::{lambda(fmt::v11::basic_appender<char>(fmt::v11::basic_appender<char>))#1}::operator() const
FUNC 1fdec 214 0 fmt::v11::detail::write_padded<char, (fmt::v11::align::type)2, fmt::v11::basic_appender<char>, fmt::v11::detail::write_ptr<char, fmt::v11::basic_appender<char>, unsigned long>(fmt::v11::basic_appender<char>, unsigned long, fmt::v11::format_specs const*)::{lambda(fmt::v11::basic_appender<char>&)#1}>(fmt::v11::basic_appender<char>, fmt::v11::format_specs const&, unsigned long, unsigned long, fmt::v11::detail::write_ptr<char, fmt::v11::basic_appender<char>, unsigned long>(fmt::v11::basic_appender<char>, unsigned long, fmt::v11::format_specs const*)::{lambda(fmt::v11::basic_appender<char>&)#1})
FUNC 20000 1c3c 0 fmt::v11::detail::parse_replacement_field<char, fmt::v11::detail::vformat_to<char>(fmt::v11::detail::buffer<char>&, fmt::v11::basic_string_view<char>, fmt::v11::detail::vformat_args<char>::type, fmt::v11::detail::locale_ref)::format_handler&>(char const*, char const*, fmt::v11::detail::vformat_to<char>(fmt::v11::detail::buffer<char>&, fmt::v11::basic_string_view<char>, fmt::v11::detail::vformat_args<char>::type, fmt::v11::detail::locale_ref)::format_handler&)
FUNC 21c3c 288 0 fmt::v11::detail::parse_dynamic_spec<char>(char const*, char const*, int&, fmt::v11::detail::arg_ref<char>&, fmt::v11::basic_format_parse_context<char>&)
FUNC 21ec4 158 0 fmt::v11::basic_format_args<fmt::v11::context>::get<char>(fmt::v11::basic_string_view<char>) const
FUNC 2201c e24 0 fmt::v11::detail::write_int_noinline<char, fmt::v11::basic_appender<char>, unsigned long>(fmt::v11::basic_appender<char>, fmt::v11::detail::write_int_arg<unsigned long>, fmt::v11::format_specs const&, fmt::v11::detail::locale_ref)
FUNC 22e40 fc8 0 fmt::v11::detail::write_int_noinline<char, fmt::v11::basic_appender<char>, unsigned __int128>(fmt::v11::basic_appender<char>, fmt::v11::detail::write_int_arg<unsigned __int128>, fmt::v11::format_specs const&, fmt::v11::detail::locale_ref)
FUNC 23e08 510 0 _ZN3fmt3v116detail15format_hexfloatIdTnNSt6__ndk19enable_ifIXntsr16is_double_doubleIT_EE5valueEiE4typeELi0EEEvS5_NS0_12format_specsERNS1_6bufferIcEE
FUNC 24318 98c 0 fmt::v11::detail::format_float<double>(double, int, fmt::v11::detail::float_specs, fmt::v11::detail::buffer<char>&)
FUNC 24ca4 cb8 0 fmt::v11::detail::write<char, fmt::v11::basic_appender<char> >(fmt::v11::basic_appender<char>, fmt::v11::basic_string_view<char>, fmt::v11::format_specs const&)
FUNC 2595c 17c 0 fmt::v11::detail::for_each_codepoint<fmt::v11::detail::find_escape(char const*, char const*)::{lambda(unsigned int, fmt::v11::basic_string_view<char>)#1}>(fmt::v11::basic_string_view<char>, fmt::v11::detail::find_escape(char const*, char const*)::{lambda(unsigned int, fmt::v11::basic_string_view<char>)#1})::{lambda(char const*, char const*)#1}::operator()(char const*, char const*) const
FUNC 25ad8 1b8 0 fmt::v11::detail::for_each_codepoint<fmt::v11::detail::compute_width(fmt::v11::basic_string_view<char>)::count_code_points>(fmt::v11::basic_string_view<char>, fmt::v11::detail::compute_width(fmt::v11::basic_string_view<char>)::count_code_points)::{lambda(char const*, char const*)#1}::operator()(char const*, char const*) const
FUNC 25c90 570 0 fmt::v11::detail::write_int<fmt::v11::basic_appender<char>, unsigned long, char>(fmt::v11::basic_appender<char>, unsigned long, unsigned int, fmt::v11::format_specs const&, fmt::v11::detail::digit_grouping<char> const&)
FUNC 26200 664 0 fmt::v11::detail::write_int<fmt::v11::basic_appender<char>, unsigned __int128, char>(fmt::v11::basic_appender<char>, unsigned __int128, unsigned int, fmt::v11::format_specs const&, fmt::v11::detail::digit_grouping<char> const&)
PUBLIC 26870 0 <.plt ELF section in dogotrigger.cherrybadges.android64.so>
STACK CFI INIT 91d0 10 .cfa: sp 0 +
STACK CFI INIT 91e0 8 .cfa: sp 0 +
STACK CFI INIT 91e8 8 .cfa: sp 0 +
STACK CFI INIT 91f0 14 .cfa: sp 0 +
STACK CFI INIT 9204 1c .cfa: sp 0 +
STACK CFI INIT 9220 10 .cfa: sp 0 +
STACK CFI INIT 9230 134 .cfa: sp 0 +
STACK CFI INIT 9364 84 .cfa: sp 0 +
STACK CFI INIT 93e8 f4 .cfa: sp 0 +
STACK CFI INIT 94dc a8 .cfa: sp 0 +
STACK CFI INIT 9584 7c .cfa: sp 0 +
STACK CFI INIT 9600 14 .cfa: sp 0 +
STACK CFI INIT 9614 40 .cfa: sp 0 +
STACK CFI INIT 9654 28 .cfa: sp 0 +
STACK CFI INIT 967c 190 .cfa: sp 0 +
STACK CFI INIT 980c 2c8 .cfa: sp 0 +
STACK CFI INIT 9ad4 8 .cfa: sp 0 +
STACK CFI INIT 9adc 8 .cfa: sp 0 +
STACK CFI INIT 9ae4 44 .cfa: sp 0 +
STACK CFI INIT 9b28 e8 .cfa: sp 0 +
STACK CFI INIT 9c10 e8 .cfa: sp 0 +
STACK CFI INIT 9cf8 14 .cfa: sp 0 +
STACK CFI INIT 9d0c 10 .cfa: sp 0 +
STACK CFI INIT 9d1c 10 .cfa: sp 0 +
STACK CFI INIT 9d2c f0 .cfa: sp 0 +
STACK CFI INIT 9e1c 44 .cfa: sp 0 +
STACK CFI INIT 9e60 c .cfa: sp 0 +
STACK CFI INIT 9e6c c .cfa: sp 0 +
STACK CFI INIT 9e78 2c .cfa: sp 0 +
STACK CFI INIT 9ea4 280 .cfa: sp 0 +
STACK CFI INIT a124 c .cfa: sp 0 +
STACK CFI INIT a130 120 .cfa: sp 0 +
STACK CFI INIT a250 488 .cfa: sp 0 +
STACK CFI INIT a6d8 c48 .cfa: sp 0 +
STACK CFI INIT b320 134 .cfa: sp 0 +
STACK CFI INIT b454 210 .cfa: sp 0 +
STACK CFI INIT b664 38c .cfa: sp 0 +
STACK CFI INIT b9f0 1c8 .cfa: sp 0 +
STACK CFI INIT bbb8 9bc .cfa: sp 0 +
STACK CFI INIT c574 2d4 .cfa: sp 0 +
STACK CFI INIT c848 134 .cfa: sp 0 +
STACK CFI INIT c97c 120 .cfa: sp 0 +
STACK CFI INIT ca9c 1c8 .cfa: sp 0 +
STACK CFI INIT cc64 168 .cfa: sp 0 +
STACK CFI INIT cdcc fc .cfa: sp 0 +
STACK CFI INIT cec8 30 .cfa: sp 0 +
STACK CFI INIT d030 30 .cfa: sp 0 +
STACK CFI INIT d060 98 .cfa: sp 0 +
STACK CFI INIT d0f8 59c .cfa: sp 0 +
STACK CFI INIT d694 8c .cfa: sp 0 +
STACK CFI INIT d720 30 .cfa: sp 0 +
STACK CFI INIT d89c 8c .cfa: sp 0 +
STACK CFI d8a0 .cfa: sp 48 +
STACK CFI d8ac .cfa: x29 48 + x19: .cfa -8 + ^ x20: .cfa -16 + ^ x21: .cfa -32 + ^ .ra: .cfa -40 + ^ x29: .cfa -48 + ^
STACK CFI d904 .cfa: sp 48 +
STACK CFI d910 .cfa: sp 0 +
STACK CFI d914 .cfa: x29 48 +
STACK CFI d918 .cfa: sp 48 +
STACK CFI d924 .cfa: sp 0 +
STACK CFI INIT d928 7c .cfa: sp 0 +
STACK CFI d92c .cfa: sp 48 +
STACK CFI d938 .cfa: x29 48 + x19: .cfa -8 + ^ x20: .cfa -16 + ^ x21: .cfa -32 + ^ .ra: .cfa -40 + ^ x29: .cfa -48 + ^
STACK CFI d984 .cfa: sp 48 +
STACK CFI d990 .cfa: sp 0 +
STACK CFI d994 .cfa: sp 48 +
STACK CFI d9a0 .cfa: sp 0 +
STACK CFI INIT d9a4 8 .cfa: sp 0 +
STACK CFI INIT e0e4 44 .cfa: sp 0 +
STACK CFI e0e8 .cfa: sp 32 +
STACK CFI e0f0 .cfa: x29 32 + x19: .cfa -16 + ^ .ra: .cfa -24 + ^ x29: .cfa -32 + ^
STACK CFI e10c .cfa: sp 32 +
STACK CFI e114 .cfa: sp 0 +
STACK CFI e118 .cfa: x29 32 +
STACK CFI e11c .cfa: sp 32 +
STACK CFI e124 .cfa: sp 0 +
STACK CFI INIT e128 8 .cfa: sp 0 +
STACK CFI INIT e130 44 .cfa: sp 0 +
STACK CFI e134 .cfa: sp 32 +
STACK CFI e13c .cfa: x29 32 + x19: .cfa -16 + ^ .ra: .cfa -24 + ^ x29: .cfa -32 + ^
STACK CFI e158 .cfa: sp 32 +
STACK CFI e160 .cfa: sp 0 +
STACK CFI e164 .cfa: x29 32 +
STACK CFI e168 .cfa: sp 32 +
STACK CFI e170 .cfa: sp 0 +
STACK CFI INIT eca4 18 .cfa: sp 0 +
STACK CFI INIT ecbc 14 .cfa: sp 0 +
STACK CFI ecc0 .cfa: sp 16 +
STACK CFI ecc4 .cfa: x29 16 + .ra: .cfa -8 + ^ x29: .cfa -16 + ^
STACK CFI INIT ed20 30 .cfa: sp 0 +
STACK CFI ed24 .cfa: sp 32 +
STACK CFI ed2c .cfa: x29 32 + x19: .cfa -16 + ^ .ra: .cfa -24 + ^ x29: .cfa -32 + ^
STACK CFI ed44 .cfa: sp 32 +
STACK CFI ed4c .cfa: sp 0 +
STACK CFI INIT ed50 34 .cfa: sp 0 +
STACK CFI ed54 .cfa: sp 32 +
STACK CFI ed5c .cfa: x29 32 + x19: .cfa -16 + ^ .ra: .cfa -24 + ^ x29: .cfa -32 + ^
STACK CFI INIT ed84 10 .cfa: sp 0 +
STACK CFI ed88 .cfa: sp 16 +
STACK CFI ed8c .cfa: x29 16 + .ra: .cfa -8 + ^ x29: .cfa -16 + ^
STACK CFI INIT ed94 8c .cfa: sp 0 +
STACK CFI ed98 .cfa: sp 48 +
STACK CFI eda4 .cfa: x29 48 + x19: .cfa -8 + ^ x20: .cfa -16 + ^ x21: .cfa -24 + ^ x22: .cfa -32 + ^ .ra: .cfa -40 + ^ x29: .cfa -48 + ^
STACK CFI edac .cfa: sp 48 +
STACK CFI edb8 .cfa: sp 0 +
STACK CFI edbc .cfa: x29 48 +
STACK CFI ee10 .cfa: sp 48 +
STACK CFI ee1c .cfa: sp 0 +
STACK CFI INIT ee20 14 .cfa: sp 0 +
STACK CFI ee24 .cfa: sp 16 +
STACK CFI ee28 .cfa: x29 16 + .ra: .cfa -8 + ^ x29: .cfa -16 + ^
STACK CFI INIT ee34 60 .cfa: sp 0 +
STACK CFI ee44 .cfa: sp 32 +
STACK CFI ee4c .cfa: x29 32 + x19: .cfa -8 + ^ x20: .cfa -16 + ^ .ra: .cfa -24 + ^ x29: .cfa -32 + ^
STACK CFI ee88 .cfa: sp 32 +
STACK CFI ee90 .cfa: sp 0 +
STACK CFI INIT eff0 70 .cfa: sp 0 +
STACK CFI eff4 .cfa: sp 48 +
STACK CFI f000 .cfa: x29 48 + x19: .cfa -8 + ^ x20: .cfa -16 + ^ x21: .cfa -24 + ^ x22: .cfa -32 + ^ .ra: .cfa -40 + ^ x29: .cfa -48 + ^
STACK CFI f048 .cfa: sp 48 +
STACK CFI f054 .cfa: sp 0 +
STACK CFI f058 .cfa: x29 48 +
STACK CFI INIT f060 ac .cfa: sp 0 +
STACK CFI f064 .cfa: sp 64 +
STACK CFI f074 .cfa: x29 64 + x19: .cfa -8 + ^ x20: .cfa -16 + ^ x21: .cfa -24 + ^ x22: .cfa -32 + ^ x23: .cfa -48 + ^ .ra: .cfa -56 + ^ x29: .cfa -64 + ^
STACK CFI f0f0 .cfa: sp 64 +
STACK CFI f100 .cfa: sp 0 +
STACK CFI f104 .cfa: x29 64 +
STACK CFI INIT f10c 100 .cfa: sp 0 +
STACK CFI f110 .cfa: sp 64 +
STACK CFI f120 .cfa: x29 64 + x19: .cfa -8 + ^ x20: .cfa -16 + ^ x21: .cfa -24 + ^ x22: .cfa -32 + ^ x23: .cfa -40 + ^ x24: .cfa -48 + ^ .ra: .cfa -56 + ^ x29: .cfa -64 + ^
STACK CFI f1f0 .cfa: sp 64 +
STACK CFI f200 .cfa: sp 0 +
STACK CFI f204 .cfa: x29 64 +
STACK CFI INIT f20c 19c .cfa: sp 0 +
STACK CFI INIT f3a8 a4 .cfa: sp 0 +
STACK CFI f3ac .cfa: sp 48 +
STACK CFI f3b8 .cfa: x29 48 + x19: .cfa -8 + ^ x20: .cfa -16 + ^ x21: .cfa -32 + ^ .ra: .cfa -40 + ^ x29: .cfa -48 + ^
STACK CFI f40c .cfa: sp 48 +
STACK CFI f418 .cfa: sp 0 +
STACK CFI f41c .cfa: x29 48 +
STACK CFI f43c .cfa: sp 48 +
STACK CFI f448 .cfa: sp 0 +
STACK CFI INIT f44c 9c .cfa: sp 0 +
STACK CFI f454 .cfa: sp 48 +
STACK CFI f460 .cfa: x29 48 + x19: .cfa -8 + ^ x20: .cfa -16 + ^ x21: .cfa -32 + ^ .ra: .cfa -40 + ^ x29: .cfa -48 + ^
STACK CFI f4b4 .cfa: sp 0 + x19: x19 x20: x20 x21: x21 .ra: x30 x29: x29
STACK CFI f4b8 .cfa: x29 48 + x19: .cfa -8 + ^ x20: .cfa -16 + ^ x21: .cfa -32 + ^ .ra: .cfa -40 + ^ x29: .cfa -48 + ^
STACK CFI f4d8 .cfa: sp 48 +
STACK CFI f4e4 .cfa: sp 0 +
STACK CFI INIT f4e8 5c .cfa: sp 0 +
STACK CFI f4ec .cfa: sp 32 +
STACK CFI f4f4 .cfa: x29 32 + x19: .cfa -16 + ^ .ra: .cfa -24 + ^ x29: .cfa -32 + ^
STACK CFI f52c .cfa: sp 32 +
STACK CFI f534 .cfa: sp 0 +
STACK CFI f538 .cfa: sp 32 +
STACK CFI f540 .cfa: sp 0 +
STACK CFI INIT f544 104 .cfa: sp 0 +
STACK CFI f548 .cfa: sp 80 +
STACK CFI f55c .cfa: x29 80 + x19: .cfa -8 + ^ x20: .cfa -16 + ^ x21: .cfa -24 + ^ x22: .cfa -32 + ^ x23: .cfa -40 + ^ x24: .cfa -48 + ^ x25: .cfa -56 + ^ x26: .cfa -64 + ^ .ra: .cfa -72 + ^ x29: .cfa -80 + ^
STACK CFI f630 .cfa: sp 80 +
STACK CFI f644 .cfa: sp 0 +
STACK CFI INIT f648 58 .cfa: sp 0 +
STACK CFI f650 .cfa: sp 32 +
STACK CFI f658 .cfa: x29 32 + x19: .cfa -16 + ^ .ra: .cfa -24 + ^ x29: .cfa -32 + ^
STACK CFI f690 .cfa: sp 32 +
STACK CFI f698 .cfa: sp 0 +
STACK CFI INIT fc30 50 .cfa: sp 0 +
STACK CFI fc34 .cfa: sp 32 +
STACK CFI fc3c .cfa: x29 32 + x19: .cfa -16 + ^ .ra: .cfa -24 + ^ x29: .cfa -32 + ^
STACK CFI fc54 .cfa: sp 32 +
STACK CFI fc5c .cfa: sp 0 +
STACK CFI fc60 .cfa: x29 32 +
STACK CFI fc74 .cfa: sp 32 +
STACK CFI fc7c .cfa: sp 0 +
STACK CFI INIT fcf4 4 .cfa: sp 0 +
STACK CFI INIT fe4c 34 .cfa: sp 0 +
STACK CFI fe50 .cfa: sp 16 +
STACK CFI fe54 .cfa: x29 16 + .ra: .cfa -8 + ^ x29: .cfa -16 + ^
STACK CFI INIT ffa4 80 .cfa: sp 0 +
STACK CFI ffa8 .cfa: sp 48 +
STACK CFI ffb4 .cfa: x29 48 + x19: .cfa -8 + ^ x20: .cfa -16 + ^ x21: .cfa -32 + ^ .ra: .cfa -40 + ^ x29: .cfa -48 + ^
STACK CFI 10014 .cfa: sp 48 +
STACK CFI 10020 .cfa: sp 0 +
STACK CFI INIT 10024 24 .cfa: sp 0 +
STACK CFI 10028 .cfa: sp 32 +
STACK CFI 10030 .cfa: x29 32 + x19: .cfa -16 + ^ .ra: .cfa -24 + ^ x29: .cfa -32 + ^
STACK CFI 1003c .cfa: sp 32 +
STACK CFI 10044 .cfa: sp 0 +
STACK CFI INIT 104f0 148 .cfa: sp 0 +
STACK CFI 104f4 .cfa: sp 48 +
STACK CFI 10500 .cfa: x29 48 + x19: .cfa -8 + ^ x20: .cfa -16 + ^ x21: .cfa -32 + ^ .ra: .cfa -40 + ^ x29: .cfa -48 + ^
STACK CFI 10628 .cfa: sp 48 +
STACK CFI 10634 .cfa: sp 0 +
STACK CFI INIT 10638 68 .cfa: sp 0 +
STACK CFI 1063c .cfa: sp 32 +
STACK CFI 10644 .cfa: x29 32 + x19: .cfa -8 + ^ x20: .cfa -16 + ^ .ra: .cfa -24 + ^ x29: .cfa -32 + ^
STACK CFI 1065c .cfa: sp 32 +
STACK CFI 10664 .cfa: sp 0 +
STACK CFI 10668 .cfa: x29 32 +
STACK CFI 10694 .cfa: sp 32 +
STACK CFI 1069c .cfa: sp 0 +
STACK CFI INIT 106a0 4 .cfa: sp 0 +
STACK CFI INIT 106a4 14 .cfa: sp 0 +
STACK CFI INIT 106b8 84 .cfa: sp 0 +
STACK CFI 106c0 .cfa: sp 32 +
STACK CFI 106c8 .cfa: x29 32 + x19: .cfa -8 + ^ x20: .cfa -16 + ^ .ra: .cfa -24 + ^ x29: .cfa -32 + ^
STACK CFI 10708 .cfa: sp 32 +
STACK CFI 10710 .cfa: sp 0 +
STACK CFI 10718 .cfa: x29 32 +
STACK CFI INIT 1149c 50 .cfa: sp 0 +
STACK CFI 114a0 .cfa: sp 32 +
STACK CFI 114a8 .cfa: x29 32 + x19: .cfa -16 + ^ .ra: .cfa -24 + ^ x29: .cfa -32 + ^
STACK CFI 114c0 .cfa: sp 32 +
STACK CFI 114c8 .cfa: sp 0 +
STACK CFI 114cc .cfa: x29 32 +
STACK CFI 114e0 .cfa: sp 32 +
STACK CFI 114e8 .cfa: sp 0 +
STACK CFI INIT 114ec 64 .cfa: sp 0 +
STACK CFI 114f0 .cfa: sp 32 +
STACK CFI 114f8 .cfa: x29 32 + x19: .cfa -16 + ^ .ra: .cfa -24 + ^ x29: .cfa -32 + ^
STACK CFI 11524 .cfa: sp 32 +
STACK CFI 1152c .cfa: sp 0 +
STACK CFI 11530 .cfa: x29 32 +
STACK CFI 11544 .cfa: sp 32 +
STACK CFI 1154c .cfa: sp 0 +
STACK CFI INIT 12670 d8 .cfa: sp 0 +
STACK CFI 12674 .cfa: sp 64 +
STACK CFI 12684 .cfa: x29 64 + x19: .cfa -8 + ^ x20: .cfa -16 + ^ x21: .cfa -24 + ^ x22: .cfa -32 + ^ x23: .cfa -48 + ^ .ra: .cfa -56 + ^ x29: .cfa -64 + ^
STACK CFI 126fc .cfa: sp 64 +
STACK CFI 1270c .cfa: sp 0 +
STACK CFI 12710 .cfa: x29 64 +
STACK CFI INIT 143a0 30 .cfa: sp 0 +
STACK CFI 143a4 .cfa: sp 32 +
STACK CFI 143ac .cfa: x29 32 + x19: .cfa -16 + ^ .ra: .cfa -24 + ^ x29: .cfa -32 + ^
STACK CFI 143c4 .cfa: sp 32 +
STACK CFI 143cc .cfa: sp 0 +
STACK CFI INIT 143d0 30 .cfa: sp 0 +
STACK CFI 143d4 .cfa: sp 32 +
STACK CFI 143dc .cfa: x29 32 + x19: .cfa -16 + ^ .ra: .cfa -24 + ^ x29: .cfa -32 + ^
STACK CFI 143f4 .cfa: sp 32 +
STACK CFI 143fc .cfa: sp 0 +
STACK CFI INIT 14620 64 .cfa: sp 0 +
STACK CFI 14624 .cfa: sp 32 +
STACK CFI 1462c .cfa: x29 32 + x19: .cfa -16 + ^ .ra: .cfa -24 + ^ x29: .cfa -32 + ^
STACK CFI 14658 .cfa: sp 32 +
STACK CFI 14660 .cfa: sp 0 +
STACK CFI 14664 .cfa: x29 32 +
STACK CFI 14678 .cfa: sp 32 +
STACK CFI 14680 .cfa: sp 0 +
STACK CFI INIT 14c40 4 .cfa: sp 0 +
STACK CFI INIT 14c44 14 .cfa: sp 0 +
STACK CFI INIT 14c58 c .cfa: sp 0 +
STACK CFI INIT 14c64 24c .cfa: sp 0 +
STACK CFI INIT 14eb0 a0 .cfa: sp 0 +
STACK CFI 14ebc .cfa: sp 32 +
STACK CFI 14f14 .cfa: sp 0 +
STACK CFI 14f18 .cfa: sp 32 +
STACK CFI 14f20 .cfa: sp 0 +
STACK CFI 14f24 .cfa: sp 32 +
STACK CFI 14f38 .cfa: sp 0 +
STACK CFI 14f3c .cfa: sp 32 +
STACK CFI 14f4c .cfa: sp 0 +
STACK CFI INIT 14f50 38 .cfa: sp 0 +
STACK CFI 14f5c .cfa: sp 32 +
STACK CFI 14f84 .cfa: sp 0 +
STACK CFI INIT 1521c 70 .cfa: sp 0 +
STACK CFI 15220 .cfa: sp 32 +
STACK CFI 15228 .cfa: x29 32 + x19: .cfa -16 + ^ .ra: .cfa -24 + ^ x29: .cfa -32 + ^
STACK CFI 1525c .cfa: sp 32 +
STACK CFI 15264 .cfa: sp 0 +
STACK CFI 15268 .cfa: x29 32 +
STACK CFI INIT 152dc 2c .cfa: sp 0 +
STACK CFI 152e0 .cfa: sp 32 +
STACK CFI 152e8 .cfa: x29 32 + x19: .cfa -16 + ^ .ra: .cfa -24 + ^ x29: .cfa -32 + ^
STACK CFI 152fc .cfa: sp 32 +
STACK CFI 15304 .cfa: sp 0 +
STACK CFI INIT 15a58 64 .cfa: sp 0 +
STACK CFI 15a5c .cfa: sp 32 +
STACK CFI 15a64 .cfa: x29 32 + x19: .cfa -16 + ^ .ra: .cfa -24 + ^ x29: .cfa -32 + ^
STACK CFI 15a80 .cfa: sp 32 +
STACK CFI 15a88 .cfa: sp 0 +
STACK CFI 15a8c .cfa: x29 32 +
STACK CFI 15ab0 .cfa: sp 32 +
STACK CFI 15ab8 .cfa: sp 0 +
STACK CFI INIT 15be8 3c8 .cfa: sp 0 +
STACK CFI 15bec .cfa: sp 208 +
STACK CFI 15c00 .cfa: x29 64 + x19: .cfa -8 + ^ x20: .cfa -16 + ^ x21: .cfa -24 + ^ x22: .cfa -32 + ^ x23: .cfa -40 + ^ x24: .cfa -48 + ^ .ra: .cfa -56 + ^ x29: .cfa -64 + ^
STACK CFI 15e18 .cfa: sp 208 +
STACK CFI 15e2c .cfa: sp 0 +
STACK CFI 15e30 .cfa: x29 64 +
STACK CFI INIT 15fb0 228 .cfa: sp 0 +
STACK CFI INIT 161d8 2b4 .cfa: sp 0 +
STACK CFI INIT 1648c 530 .cfa: sp 0 +
STACK CFI INIT 169bc 78 .cfa: sp 0 +
STACK CFI 169c0 .cfa: sp 48 +
STACK CFI 169cc .cfa: x29 48 + x19: .cfa -8 + ^ x20: .cfa -16 + ^ x21: .cfa -24 + ^ x22: .cfa -32 + ^ .ra: .cfa -40 + ^ x29: .cfa -48 + ^
STACK CFI 16a14 .cfa: sp 48 +
STACK CFI 16a20 .cfa: sp 0 +
STACK CFI 16a24 .cfa: sp 48 +
STACK CFI 16a30 .cfa: sp 0 +
STACK CFI INIT 16a34 78 .cfa: sp 0 +
STACK CFI 16a38 .cfa: sp 32 +
STACK CFI 16a40 .cfa: x29 32 + x19: .cfa -16 + ^ .ra: .cfa -24 + ^ x29: .cfa -32 + ^
STACK CFI 16a7c .cfa: sp 32 +
STACK CFI 16a84 .cfa: sp 0 +
STACK CFI 16a88 .cfa: x29 32 +
STACK CFI INIT 16aac 24 .cfa: sp 0 +
STACK CFI 16ab0 .cfa: sp 32 +
STACK CFI 16ab8 .cfa: x29 32 + x19: .cfa -16 + ^ .ra: .cfa -24 + ^ x29: .cfa -32 + ^
STACK CFI 16ac4 .cfa: sp 32 +
STACK CFI 16acc .cfa: sp 0 +
STACK CFI INIT 16ad0 150 .cfa: sp 0 +
STACK CFI 16ad4 .cfa: sp 48 +
STACK CFI 16ae0 .cfa: x29 48 + x19: .cfa -8 + ^ x20: .cfa -16 + ^ x21: .cfa -24 + ^ x22: .cfa -32 + ^ .ra: .cfa -40 + ^ x29: .cfa -48 + ^
STACK CFI 16c10 .cfa: sp 48 +
STACK CFI 16c1c .cfa: sp 0 +
STACK CFI INIT 16c20 6c .cfa: sp 0 +
STACK CFI 16c24 .cfa: sp 64 +
STACK CFI 16c30 .cfa: x29 32 + x19: .cfa -16 + ^ .ra: .cfa -24 + ^ x29: .cfa -32 + ^
STACK CFI 16c78 .cfa: sp 64 +
STACK CFI 16c84 .cfa: sp 0 +
STACK CFI 16c88 .cfa: x29 32 +
STACK CFI INIT 16c8c 74 .cfa: sp 0 +
STACK CFI 16c90 .cfa: sp 32 +
STACK CFI 16c98 .cfa: x29 32 + x19: .cfa -8 + ^ x20: .cfa -16 + ^ .ra: .cfa -24 + ^ x29: .cfa -32 + ^
STACK CFI 16cf4 .cfa: sp 32 +
STACK CFI 16cfc .cfa: sp 0 +
STACK CFI INIT 16d00 f0 .cfa: sp 0 +
STACK CFI 16d04 .cfa: sp 112 +
STACK CFI 16d14 .cfa: x29 48 + x19: .cfa -8 + ^ x20: .cfa -16 + ^ x21: .cfa -32 + ^ .ra: .cfa -40 + ^ x29: .cfa -48 + ^
STACK CFI 16dd8 .cfa: sp 112 +
STACK CFI 16de8 .cfa: sp 0 +
STACK CFI 16dec .cfa: x29 48 +
STACK CFI INIT 16df0 f0 .cfa: sp 0 +
STACK CFI 16df4 .cfa: sp 112 +
STACK CFI 16e04 .cfa: x29 48 + x19: .cfa -8 + ^ x20: .cfa -16 + ^ x21: .cfa -32 + ^ .ra: .cfa -40 + ^ x29: .cfa -48 + ^
STACK CFI 16ec8 .cfa: sp 112 +
STACK CFI 16ed8 .cfa: sp 0 +
STACK CFI 16edc .cfa: x29 48 +
STACK CFI INIT 16ee0 48 .cfa: sp 0 +
STACK CFI 16ee4 .cfa: sp 32 +
STACK CFI 16eec .cfa: x29 32 + x19: .cfa -8 + ^ x20: .cfa -16 + ^ .ra: .cfa -24 + ^ x29: .cfa -32 + ^
STACK CFI 16f10 .cfa: sp 32 +
STACK CFI 16f18 .cfa: sp 0 +
STACK CFI 16f1c .cfa: x29 32 +
STACK CFI INIT 16f28 9c .cfa: sp 0 +
STACK CFI 16f2c .cfa: sp 80 +
STACK CFI 16f38 .cfa: x29 32 + x19: .cfa -16 + ^ .ra: .cfa -24 + ^ x29: .cfa -32 + ^
STACK CFI 16fb0 .cfa: sp 80 +
STACK CFI 16fbc .cfa: sp 0 +
STACK CFI 16fc0 .cfa: x29 32 +
STACK CFI INIT 16fc4 220 .cfa: sp 0 +
STACK CFI 16fc8 .cfa: sp 112 +
STACK CFI 16fe0 .cfa: x29 80 + x19: .cfa -8 + ^ x20: .cfa -16 + ^ x21: .cfa -24 + ^ x22: .cfa -32 + ^ x23: .cfa -40 + ^ x24: .cfa -48 + ^ x25: .cfa -64 + ^ .ra: .cfa -72 + ^ x29: .cfa -80 + ^
STACK CFI 171a4 .cfa: sp 112 +
STACK CFI 171bc .cfa: sp 0 +
STACK CFI 171c0 .cfa: x29 80 +
STACK CFI INIT 171e4 150 .cfa: sp 0 +
STACK CFI 171e8 .cfa: sp 48 +
STACK CFI 171f4 .cfa: x29 48 + x19: .cfa -8 + ^ x20: .cfa -16 + ^ x21: .cfa -24 + ^ x22: .cfa -32 + ^ .ra: .cfa -40 + ^ x29: .cfa -48 + ^
STACK CFI 17324 .cfa: sp 48 +
STACK CFI 17330 .cfa: sp 0 +
STACK CFI INIT 17334 1c4 .cfa: sp 0 +
STACK CFI 17338 .cfa: sp 96 +
STACK CFI 1734c .cfa: x29 64 + x19: .cfa -8 + ^ x20: .cfa -16 + ^ x21: .cfa -24 + ^ x22: .cfa -32 + ^ x23: .cfa -40 + ^ x24: .cfa -48 + ^ .ra: .cfa -56 + ^ x29: .cfa -64 + ^
STACK CFI 174bc .cfa: sp 96 +
STACK CFI 174d0 .cfa: sp 0 +
STACK CFI 174d4 .cfa: x29 64 +
STACK CFI INIT 174f8 244 .cfa: sp 0 +
STACK CFI 174fc .cfa: sp 112 +
STACK CFI 17514 .cfa: x29 80 + x19: .cfa -8 + ^ x20: .cfa -16 + ^ x21: .cfa -24 + ^ x22: .cfa -32 + ^ x23: .cfa -40 + ^ x24: .cfa -48 + ^ x25: .cfa -64 + ^ .ra: .cfa -72 + ^ x29: .cfa -80 + ^
STACK CFI 176fc .cfa: sp 112 +
STACK CFI 17714 .cfa: sp 0 +
STACK CFI 17718 .cfa: x29 80 +
STACK CFI INIT 1773c 1ec .cfa: sp 0 +
STACK CFI 17740 .cfa: sp 96 +
STACK CFI 17754 .cfa: x29 64 + x19: .cfa -8 + ^ x20: .cfa -16 + ^ x21: .cfa -24 + ^ x22: .cfa -32 + ^ x23: .cfa -40 + ^ x24: .cfa -48 + ^ .ra: .cfa -56 + ^ x29: .cfa -64 + ^
STACK CFI 178ec .cfa: sp 96 +
STACK CFI 17900 .cfa: sp 0 +
STACK CFI 17904 .cfa: x29 64 +
STACK CFI INIT 17928 304 .cfa: sp 0 +
STACK CFI 1792c .cfa: sp 160 +
STACK CFI 17948 .cfa: x29 96 + x19: .cfa -8 + ^ x20: .cfa -16 + ^ x21: .cfa -24 + ^ x22: .cfa -32 + ^ x23: .cfa -40 + ^ x24: .cfa -48 + ^ x25: .cfa -56 + ^ x26: .cfa -64 + ^ x27: .cfa -72 + ^ x28: .cfa -80 + ^ .ra: .cfa -88 + ^ x29: .cfa -96 + ^
STACK CFI 17bd0 .cfa: sp 160 +
STACK CFI 17bec .cfa: sp 0 +
STACK CFI 17bf0 .cfa: x29 96 +
STACK CFI INIT 17c2c 2a4 .cfa: sp 0 +
STACK CFI 17c30 .cfa: sp 144 +
STACK CFI 17c4c .cfa: x29 96 + x19: .cfa -8 + ^ x20: .cfa -16 + ^ x21: .cfa -24 + ^ x22: .cfa -32 + ^ x23: .cfa -40 + ^ x24: .cfa -48 + ^ x25: .cfa -56 + ^ x26: .cfa -64 + ^ x27: .cfa -72 + ^ x28: .cfa -80 + ^ .ra: .cfa -88 + ^ x29: .cfa -96 + ^
STACK CFI 17e74 .cfa: sp 144 +
STACK CFI 17e90 .cfa: sp 0 +
STACK CFI 17e94 .cfa: x29 96 +
STACK CFI INIT 17ed0 290 .cfa: sp 0 +
STACK CFI 17ed4 .cfa: sp 128 +
STACK CFI 17eec .cfa: x29 80 + x19: .cfa -8 + ^ x20: .cfa -16 + ^ x21: .cfa -24 + ^ x22: .cfa -32 + ^ x23: .cfa -40 + ^ x24: .cfa -48 + ^ x25: .cfa -56 + ^ x26: .cfa -64 + ^ .ra: .cfa -72 + ^ x29: .cfa -80 + ^
STACK CFI 18140 .cfa: sp 128 +
STACK CFI 18158 .cfa: sp 0 +
STACK CFI 1815c .cfa: x29 80 +
STACK CFI INIT 18160 dc0 .cfa: sp 0 +
STACK CFI 18164 .cfa: sp 144 +
STACK CFI 18180 .cfa: x29 96 + x19: .cfa -8 + ^ x20: .cfa -16 + ^ x21: .cfa -24 + ^ x22: .cfa -32 + ^ x23: .cfa -40 + ^ x24: .cfa -48 + ^ x25: .cfa -56 + ^ x26: .cfa -64 + ^ x27: .cfa -72 + ^ x28: .cfa -80 + ^ .ra: .cfa -88 + ^ x29: .cfa -96 + ^
STACK CFI 18efc .cfa: sp 144 +
STACK CFI 18f18 .cfa: sp 0 +
STACK CFI 18f1c .cfa: x29 96 +
STACK CFI INIT 18f20 1d0 .cfa: sp 0 +
STACK CFI 18f24 .cfa: sp 80 +
STACK CFI 18f38 .cfa: x29 80 + x19: .cfa -8 + ^ x20: .cfa -16 + ^ x21: .cfa -24 + ^ x22: .cfa -32 + ^ x23: .cfa -40 + ^ x24: .cfa -48 + ^ x25: .cfa -56 + ^ x26: .cfa -64 + ^ .ra: .cfa -72 + ^ x29: .cfa -80 + ^
STACK CFI 190d8 .cfa: sp 80 +
STACK CFI 190ec .cfa: sp 0 +
STACK CFI INIT 190f0 22c .cfa: sp 0 +
STACK CFI 190f4 .cfa: sp 112 +
STACK CFI 19108 .cfa: x29 64 + x19: .cfa -8 + ^ x20: .cfa -16 + ^ x21: .cfa -24 + ^ x22: .cfa -32 + ^ x23: .cfa -40 + ^ x24: .cfa -48 + ^ .ra: .cfa -56 + ^ x29: .cfa -64 + ^
STACK CFI 192d4 .cfa: sp 112 +
STACK CFI 192e8 .cfa: sp 0 +
STACK CFI 192ec .cfa: x29 64 +
STACK CFI INIT 1931c 30c .cfa: sp 0 +
STACK CFI 19320 .cfa: sp 80 +
STACK CFI 19334 .cfa: x29 64 + x19: .cfa -8 + ^ x20: .cfa -16 + ^ x21: .cfa -24 + ^ x22: .cfa -32 + ^ x23: .cfa -40 + ^ x24: .cfa -48 + ^ .ra: .cfa -56 + ^ x29: .cfa -64 + ^
STACK CFI 194b0 .cfa: sp 80 +
STACK CFI 194c4 .cfa: sp 0 +
STACK CFI 194c8 .cfa: x29 64 +
STACK CFI INIT 19628 178 .cfa: sp 0 +
STACK CFI 1962c .cfa: sp 80 +
STACK CFI 19640 .cfa: x29 64 + x19: .cfa -8 + ^ x20: .cfa -16 + ^ x21: .cfa -24 + ^ x22: .cfa -32 + ^ x23: .cfa -40 + ^ x24: .cfa -48 + ^ .ra: .cfa -56 + ^ x29: .cfa -64 + ^
STACK CFI 19784 .cfa: sp 80 +
STACK CFI 19798 .cfa: sp 0 +
STACK CFI 1979c .cfa: x29 64 +
STACK CFI INIT 197a0 178 .cfa: sp 0 +
STACK CFI 197a4 .cfa: sp 80 +
STACK CFI 197b8 .cfa: x29 64 + x19: .cfa -8 + ^ x20: .cfa -16 + ^ x21: .cfa -24 + ^ x22: .cfa -32 + ^ x23: .cfa -40 + ^ x24: .cfa -48 + ^ .ra: .cfa -56 + ^ x29: .cfa -64 + ^
STACK CFI 198fc .cfa: sp 80 +
STACK CFI 19910 .cfa: sp 0 +
STACK CFI 19914 .cfa: x29 64 +
STACK CFI INIT 19918 240 .cfa: sp 0 +
STACK CFI 1991c .cfa: sp 96 +
STACK CFI 19934 .cfa: x29 96 + x19: .cfa -8 + ^ x20: .cfa -16 + ^ x21: .cfa -24 + ^ x22: .cfa -32 + ^ x23: .cfa -40 + ^ x24: .cfa -48 + ^ x25: .cfa -56 + ^ x26: .cfa -64 + ^ x27: .cfa -72 + ^ x28: .cfa -80 + ^ .ra: .cfa -88 + ^ x29: .cfa -96 + ^
STACK CFI 19b3c .cfa: sp 96 +
STACK CFI 19b54 .cfa: sp 0 +
STACK CFI INIT 1a784 154 .cfa: sp 0 +
STACK CFI 1a788 .cfa: sp 96 +
STACK CFI 1a79c .cfa: x29 64 + x19: .cfa -8 + ^ x20: .cfa -16 + ^ x21: .cfa -24 + ^ x22: .cfa -32 + ^ x23: .cfa -48 + ^ .ra: .cfa -56 + ^ x29: .cfa -64 + ^
STACK CFI 1a87c .cfa: sp 96 +
STACK CFI 1a890 .cfa: sp 0 +
STACK CFI 1a894 .cfa: x29 64 +
STACK CFI INIT 1ab10 44 .cfa: sp 0 +
STACK CFI 1ab14 .cfa: sp 32 +
STACK CFI 1ab1c .cfa: x29 32 + x19: .cfa -16 + ^ .ra: .cfa -24 + ^ x29: .cfa -32 + ^
STACK CFI 1ab38 .cfa: sp 32 +
STACK CFI 1ab40 .cfa: sp 0 +
STACK CFI 1ab44 .cfa: x29 32 +
STACK CFI 1ab48 .cfa: sp 32 +
STACK CFI 1ab50 .cfa: sp 0 +
STACK CFI INIT 1ab54 1a4 .cfa: sp 0 +
STACK CFI 1ab58 .cfa: sp 64 +
STACK CFI 1ab68 .cfa: x29 64 + x19: .cfa -8 + ^ x20: .cfa -16 + ^ x21: .cfa -24 + ^ x22: .cfa -32 + ^ x23: .cfa -40 + ^ x24: .cfa -48 + ^ .ra: .cfa -56 + ^ x29: .cfa -64 + ^
STACK CFI 1ace4 .cfa: sp 64 +
STACK CFI 1acf4 .cfa: sp 0 +
STACK CFI INIT 1acf8 17c .cfa: sp 0 +
STACK CFI INIT 1b218 a0 .cfa: sp 0 +
STACK CFI 1b21c .cfa: sp 48 +
STACK CFI 1b228 .cfa: x29 48 + x19: .cfa -8 + ^ x20: .cfa -16 + ^ x21: .cfa -24 + ^ x22: .cfa -32 + ^ .ra: .cfa -40 + ^ x29: .cfa -48 + ^
STACK CFI 1b294 .cfa: sp 48 +
STACK CFI 1b2a0 .cfa: sp 0 +
STACK CFI 1b2a4 .cfa: sp 48 +
STACK CFI 1b2b0 .cfa: sp 0 +
STACK CFI 1b2b4 .cfa: x29 48 +
STACK CFI INIT 1bf24 158 .cfa: sp 0 +
STACK CFI 1bf28 .cfa: sp 96 +
STACK CFI 1bf3c .cfa: x29 64 + x19: .cfa -8 + ^ x20: .cfa -16 + ^ x21: .cfa -24 + ^ x22: .cfa -32 + ^ x23: .cfa -48 + ^ .ra: .cfa -56 + ^ x29: .cfa -64 + ^
STACK CFI 1c020 .cfa: sp 96 +
STACK CFI 1c034 .cfa: sp 0 +
STACK CFI 1c038 .cfa: x29 64 +
STACK CFI INIT 1c07c 190 .cfa: sp 0 +
STACK CFI INIT 1cce0 1dc .cfa: sp 0 +
STACK CFI 1cce4 .cfa: sp 80 +
STACK CFI 1ccf8 .cfa: x29 80 + x19: .cfa -8 + ^ x20: .cfa -16 + ^ x21: .cfa -24 + ^ x22: .cfa -32 + ^ x23: .cfa -40 + ^ x24: .cfa -48 + ^ x25: .cfa -64 + ^ .ra: .cfa -72 + ^ x29: .cfa -80 + ^
STACK CFI 1cea4 .cfa: sp 80 +
STACK CFI 1ceb8 .cfa: sp 0 +
STACK CFI INIT 1e20c 124 .cfa: sp 0 +
STACK CFI 1e23c .cfa: sp 32 +
STACK CFI 1e244 .cfa: x29 32 + x19: .cfa -8 + ^ x20: .cfa -16 + ^ .ra: .cfa -24 + ^ x29: .cfa -32 + ^
STACK CFI 1e324 .cfa: sp 32 +
STACK CFI 1e32c .cfa: sp 0 +
STACK CFI INIT 1ea74 2f4 .cfa: sp 0 +
STACK CFI 1ea78 .cfa: sp 64 +
STACK CFI 1ea88 .cfa: x29 64 + x19: .cfa -8 + ^ x20: .cfa -16 + ^ x21: .cfa -24 + ^ x22: .cfa -32 + ^ x23: .cfa -40 + ^ x24: .cfa -48 + ^ .ra: .cfa -56 + ^ x29: .cfa -64 + ^
STACK CFI 1ece4 .cfa: sp 64 +
STACK CFI 1ecf4 .cfa: sp 0 +
STACK CFI 1ecf8 .cfa: x29 64 +
STACK CFI INIT 1ed68 a0 .cfa: sp 0 +
STACK CFI 1ed6c .cfa: sp 48 +
STACK CFI 1ed78 .cfa: x29 48 + x19: .cfa -8 + ^ x20: .cfa -16 + ^ x21: .cfa -24 + ^ x22: .cfa -32 + ^ .ra: .cfa -40 + ^ x29: .cfa -48 + ^
STACK CFI 1ede4 .cfa: sp 48 +
STACK CFI 1edf0 .cfa: sp 0 +
STACK CFI 1edf4 .cfa: sp 48 +
STACK CFI 1ee00 .cfa: sp 0 +
STACK CFI 1ee04 .cfa: x29 48 +
STACK CFI INIT 1fc8c 160 .cfa: sp 0 +
STACK CFI 1fc90 .cfa: sp 64 +
STACK CFI 1fca0 .cfa: x29 64 + x19: .cfa -8 + ^ x20: .cfa -16 + ^ x21: .cfa -24 + ^ x22: .cfa -32 + ^ x23: .cfa -48 + ^ .ra: .cfa -56 + ^ x29: .cfa -64 + ^
STACK CFI 1fd98 .cfa: sp 64 +
STACK CFI 1fda8 .cfa: sp 0 +
STACK CFI 1fdac .cfa: x29 64 +
STACK CFI INIT 1fdec 214 .cfa: sp 0 +
STACK CFI 1fdf0 .cfa: sp 128 +
STACK CFI 1fe0c .cfa: x29 96 + x19: .cfa -8 + ^ x20: .cfa -16 + ^ x21: .cfa -24 + ^ x22: .cfa -32 + ^ x23: .cfa -40 + ^ x24: .cfa -48 + ^ x25: .cfa -56 + ^ x26: .cfa -64 + ^ x27: .cfa -80 + ^ .ra: .cfa -88 + ^ x29: .cfa -96 + ^
STACK CFI 1ff88 .cfa: sp 128 +
STACK CFI 1ffa4 .cfa: sp 0 +
STACK CFI 1ffa8 .cfa: x29 96 +
STACK CFI INIT 21c3c 288 .cfa: sp 0 +
STACK CFI 21c40 .cfa: sp 16 +
STACK CFI 21c44 .cfa: x29 16 + .ra: .cfa -8 + ^ x29: .cfa -16 + ^
STACK CFI 21e8c .cfa: sp 16 +
STACK CFI 21e90 .cfa: sp 0 +
STACK CFI 21e94 .cfa: x29 16 +
STACK CFI INIT 21ec4 158 .cfa: sp 0 +
STACK CFI 21ec8 .cfa: sp 112 +
STACK CFI 21ee4 .cfa: x29 96 + x19: .cfa -8 + ^ x20: .cfa -16 + ^ x21: .cfa -24 + ^ x22: .cfa -32 + ^ x23: .cfa -40 + ^ x24: .cfa -48 + ^ x25: .cfa -56 + ^ x26: .cfa -64 + ^ x27: .cfa -72 + ^ x28: .cfa -80 + ^ .ra: .cfa -88 + ^ x29: .cfa -96 + ^
STACK CFI 21fcc .cfa: sp 112 +
STACK CFI 21fd0 .cfa: x29 96 +
STACK CFI 21fd8 .cfa: sp 112 +
STACK CFI 21ff4 .cfa: sp 0 +
STACK CFI 21ff8 .cfa: x29 96 +
STACK CFI 22018 .cfa: sp 112 +
STACK CFI INIT 2201c e24 .cfa: sp 0 +
STACK CFI 22020 .cfa: sp 192 +
STACK CFI 2203c .cfa: x29 96 + x19: .cfa -8 + ^ x20: .cfa -16 + ^ x21: .cfa -24 + ^ x22: .cfa -32 + ^ x23: .cfa -40 + ^ x24: .cfa -48 + ^ x25: .cfa -56 + ^ x26: .cfa -64 + ^ x27: .cfa -72 + ^ x28: .cfa -80 + ^ .ra: .cfa -88 + ^ x29: .cfa -96 + ^
STACK CFI 22e1c .cfa: sp 192 +
STACK CFI 22e38 .cfa: sp 0 +
STACK CFI 22e3c .cfa: x29 96 +
STACK CFI INIT 22e40 fc8 .cfa: sp 0 +
STACK CFI 22e44 .cfa: sp 288 +
STACK CFI 22e60 .cfa: x29 96 + x19: .cfa -8 + ^ x20: .cfa -16 + ^ x21: .cfa -24 + ^ x22: .cfa -32 + ^ x23: .cfa -40 + ^ x24: .cfa -48 + ^ x25: .cfa -56 + ^ x26: .cfa -64 + ^ x27: .cfa -72 + ^ x28: .cfa -80 + ^ .ra: .cfa -88 + ^ x29: .cfa -96 + ^
STACK CFI 23de4 .cfa: sp 288 +
STACK CFI 23e00 .cfa: sp 0 +
STACK CFI 23e04 .cfa: x29 96 +
STACK CFI INIT 23e08 510 .cfa: sp 0 +
STACK CFI 23e0c .cfa: sp 144 +
STACK CFI 23e28 .cfa: x29 96 + x19: .cfa -8 + ^ x20: .cfa -16 + ^ x21: .cfa -24 + ^ x22: .cfa -32 + ^ x23: .cfa -40 + ^ x24: .cfa -48 + ^ x25: .cfa -56 + ^ x26: .cfa -64 + ^ x27: .cfa -72 + ^ x28: .cfa -80 + ^ .ra: .cfa -88 + ^ x29: .cfa -96 + ^
STACK CFI 242f4 .cfa: sp 144 +
STACK CFI 24310 .cfa: sp 0 +
STACK CFI 24314 .cfa: x29 96 +
STACK CFI INIT 24ca4 cb8 .cfa: sp 0 +
STACK CFI 24ca8 .cfa: sp 192 +
STACK CFI 24cc4 .cfa: x29 96 + x19: .cfa -8 + ^ x20: .cfa -16 + ^ x21: .cfa -24 + ^ x22: .cfa -32 + ^ x23: .cfa -40 + ^ x24: .cfa -48 + ^ x25: .cfa -56 + ^ x26: .cfa -64 + ^ x27: .cfa -72 + ^ x28: .cfa -80 + ^ .ra: .cfa -88 + ^ x29: .cfa -96 + ^
STACK CFI 25938 .cfa: sp 192 +
STACK CFI 25954 .cfa: sp 0 +
STACK CFI 25958 .cfa: x29 96 +
STACK CFI INIT 2595c 17c .cfa: sp 0 +
STACK CFI 25960 .cfa: sp 80 +
STACK CFI 25974 .cfa: x29 80 + x19: .cfa -8 + ^ x20: .cfa -16 + ^ x21: .cfa -24 + ^ x22: .cfa -32 + ^ x23: .cfa -40 + ^ x24: .cfa -48 + ^ x25: .cfa -64 + ^ .ra: .cfa -72 + ^ x29: .cfa -80 + ^
STACK CFI 25a7c .cfa: sp 80 +
STACK CFI 25a90 .cfa: sp 0 +
STACK CFI 25a94 .cfa: x29 80 +
STACK CFI INIT 25ad8 1b8 .cfa: sp 0 +
STACK CFI INIT d750 14c .cfa: sp 0 +
STACK CFI d754 .cfa: sp 144 +
STACK CFI d768 .cfa: x29 64 + x19: .cfa -8 + ^ x20: .cfa -16 + ^ x21: .cfa -24 + ^ x22: .cfa -32 + ^ x23: .cfa -40 + ^ x24: .cfa -48 + ^ .ra: .cfa -56 + ^ x29: .cfa -64 + ^
STACK CFI d834 .cfa: sp 144 +
STACK CFI d848 .cfa: sp 0 +
STACK CFI d84c .cfa: x29 64 +
STACK CFI INIT d9ac 128 .cfa: sp 0 +
STACK CFI d9b0 .cfa: sp 64 +
STACK CFI d9c0 .cfa: x29 64 + x19: .cfa -8 + ^ x20: .cfa -16 + ^ x21: .cfa -24 + ^ x22: .cfa -32 + ^ x23: .cfa -40 + ^ x24: .cfa -48 + ^ .ra: .cfa -56 + ^ x29: .cfa -64 + ^
STACK CFI da94 .cfa: sp 64 +
STACK CFI daa4 .cfa: sp 0 +
STACK CFI daa8 .cfa: x29 64 +
STACK CFI INIT dad4 d0 .cfa: sp 0 +
STACK CFI dad8 .cfa: sp 64 +
STACK CFI dae8 .cfa: x29 64 + x19: .cfa -8 + ^ x20: .cfa -16 + ^ x21: .cfa -24 + ^ x22: .cfa -32 + ^ x23: .cfa -48 + ^ .ra: .cfa -56 + ^ x29: .cfa -64 + ^
STACK CFI db6c .cfa: sp 64 +
STACK CFI db7c .cfa: sp 0 +
STACK CFI db80 .cfa: x29 64 +
STACK CFI INIT dba4 128 .cfa: sp 0 +
STACK CFI dba8 .cfa: sp 64 +
STACK CFI dbb8 .cfa: x29 64 + x19: .cfa -8 + ^ x20: .cfa -16 + ^ x21: .cfa -24 + ^ x22: .cfa -32 + ^ x23: .cfa -40 + ^ x24: .cfa -48 + ^ .ra: .cfa -56 + ^ x29: .cfa -64 + ^
STACK CFI dc8c .cfa: sp 64 +
STACK CFI dc9c .cfa: sp 0 +
STACK CFI dca0 .cfa: x29 64 +
STACK CFI INIT dccc d8 .cfa: sp 0 +
STACK CFI dcd0 .cfa: sp 64 +
STACK CFI dce0 .cfa: x29 64 + x19: .cfa -8 + ^ x20: .cfa -16 + ^ x21: .cfa -24 + ^ x22: .cfa -32 + ^ x23: .cfa -48 + ^ .ra: .cfa -56 + ^ x29: .cfa -64 + ^
STACK CFI dd6c .cfa: sp 64 +
STACK CFI dd7c .cfa: sp 0 +
STACK CFI dd80 .cfa: x29 64 +
STACK CFI INIT dda4 d4 .cfa: sp 0 +
STACK CFI dda8 .cfa: sp 64 +
STACK CFI ddb8 .cfa: x29 64 + x19: .cfa -8 + ^ x20: .cfa -16 + ^ x21: .cfa -24 + ^ x22: .cfa -32 + ^ x23: .cfa -48 + ^ .ra: .cfa -56 + ^ x29: .cfa -64 + ^
STACK CFI de40 .cfa: sp 64 +
STACK CFI de50 .cfa: sp 0 +
STACK CFI de54 .cfa: x29 64 +
STACK CFI INIT de78 26c .cfa: sp 0 +
STACK CFI de7c .cfa: sp 144 +
STACK CFI de98 .cfa: x29 96 + x19: .cfa -8 + ^ x20: .cfa -16 + ^ x21: .cfa -24 + ^ x22: .cfa -32 + ^ x23: .cfa -40 + ^ x24: .cfa -48 + ^ x25: .cfa -56 + ^ x26: .cfa -64 + ^ x27: .cfa -80 + ^ .ra: .cfa -88 + ^ x29: .cfa -96 + ^
STACK CFI e074 .cfa: sp 144 +
STACK CFI e090 .cfa: sp 0 +
STACK CFI e094 .cfa: x29 96 +
STACK CFI INIT e174 b30 .cfa: sp 0 +
STACK CFI e178 .cfa: sp 240 +
STACK CFI e194 .cfa: x29 96 + x19: .cfa -8 + ^ x20: .cfa -16 + ^ x21: .cfa -24 + ^ x22: .cfa -32 + ^ x23: .cfa -40 + ^ x24: .cfa -48 + ^ x25: .cfa -56 + ^ x26: .cfa -64 + ^ x27: .cfa -72 + ^ x28: .cfa -80 + ^ .ra: .cfa -88 + ^ x29: .cfa -96 + ^
STACK CFI e550 .cfa: sp 240 +
STACK CFI e56c .cfa: sp 0 +
STACK CFI e570 .cfa: x29 96 +
STACK CFI eb50 .cfa: sp 240 +
STACK CFI eb6c .cfa: sp 0 +
STACK CFI eb70 .cfa: x29 96 +
STACK CFI INIT ecd0 50 .cfa: sp 0 +
STACK CFI ecd4 .cfa: sp 32 +
STACK CFI ecdc .cfa: x29 32 + x19: .cfa -8 + ^ x20: .cfa -16 + ^ .ra: .cfa -24 + ^ x29: .cfa -32 + ^
STACK CFI INIT ee94 15c .cfa: sp 0 +
STACK CFI ee98 .cfa: sp 144 +
STACK CFI eeac .cfa: x29 64 + x19: .cfa -8 + ^ x20: .cfa -16 + ^ x21: .cfa -24 + ^ x22: .cfa -32 + ^ x23: .cfa -40 + ^ x24: .cfa -48 + ^ .ra: .cfa -56 + ^ x29: .cfa -64 + ^
STACK CFI ef88 .cfa: sp 144 +
STACK CFI ef9c .cfa: sp 0 +
STACK CFI efa0 .cfa: x29 64 +
STACK CFI INIT f6a0 120 .cfa: sp 0 +
STACK CFI f6a4 .cfa: sp 112 +
STACK CFI f6b8 .cfa: x29 64 + x19: .cfa -8 + ^ x20: .cfa -16 + ^ x21: .cfa -24 + ^ x22: .cfa -32 + ^ x23: .cfa -40 + ^ x24: .cfa -48 + ^ .ra: .cfa -56 + ^ x29: .cfa -64 + ^
STACK CFI f780 .cfa: sp 112 +
STACK CFI f794 .cfa: sp 0 +
STACK CFI f798 .cfa: x29 64 +
STACK CFI INIT f7c0 470 .cfa: sp 0 +
STACK CFI f7c4 .cfa: sp 304 +
STACK CFI f7e0 .cfa: x29 96 + x19: .cfa -8 + ^ x20: .cfa -16 + ^ x21: .cfa -24 + ^ x22: .cfa -32 + ^ x23: .cfa -40 + ^ x24: .cfa -48 + ^ x25: .cfa -56 + ^ x26: .cfa -64 + ^ x27: .cfa -72 + ^ x28: .cfa -80 + ^ .ra: .cfa -88 + ^ x29: .cfa -96 + ^
STACK CFI fb1c .cfa: sp 304 +
STACK CFI fb38 .cfa: sp 0 +
STACK CFI fb3c .cfa: x29 96 +
STACK CFI INIT fc80 74 .cfa: sp 0 +
STACK CFI fc84 .cfa: sp 48 +
STACK CFI fc90 .cfa: x29 32 + x19: .cfa -8 + ^ x20: .cfa -16 + ^ .ra: .cfa -24 + ^ x29: .cfa -32 + ^
STACK CFI fcdc .cfa: sp 48 +
STACK CFI fce8 .cfa: sp 0 +
STACK CFI fcec .cfa: x29 32 +
STACK CFI INIT fcf8 154 .cfa: sp 0 +
STACK CFI fcfc .cfa: sp 384 +
STACK CFI fd10 .cfa: x29 64 + x19: .cfa -8 + ^ x20: .cfa -16 + ^ x21: .cfa -24 + ^ x22: .cfa -32 + ^ x23: .cfa -40 + ^ x28: .cfa -48 + ^ .ra: .cfa -56 + ^ x29: .cfa -64 + ^
STACK CFI fdf4 .cfa: sp 384 +
STACK CFI fe08 .cfa: sp 0 +
STACK CFI fe0c .cfa: x29 64 +
STACK CFI INIT fe80 124 .cfa: sp 0 +
STACK CFI fe84 .cfa: sp 80 +
STACK CFI fe98 .cfa: x29 80 + x19: .cfa -8 + ^ x20: .cfa -16 + ^ x21: .cfa -24 + ^ x22: .cfa -32 + ^ x23: .cfa -40 + ^ x24: .cfa -48 + ^ x25: .cfa -56 + ^ x26: .cfa -64 + ^ .ra: .cfa -72 + ^ x29: .cfa -80 + ^
STACK CFI ff64 .cfa: sp 80 +
STACK CFI ff78 .cfa: sp 0 +
STACK CFI ff7c .cfa: x29 80 +
STACK CFI INIT 10048 198 .cfa: sp 0 +
STACK CFI 1004c .cfa: sp 112 +
STACK CFI 10064 .cfa: x29 80 + x19: .cfa -8 + ^ x20: .cfa -16 + ^ x21: .cfa -24 + ^ x22: .cfa -32 + ^ x23: .cfa -40 + ^ x24: .cfa -48 + ^ x25: .cfa -56 + ^ x26: .cfa -64 + ^ .ra: .cfa -72 + ^ x29: .cfa -80 + ^
STACK CFI 10154 .cfa: sp 112 +
STACK CFI 1016c .cfa: sp 0 +
STACK CFI 10170 .cfa: x29 80 +
STACK CFI INIT 101e0 1b4 .cfa: sp 0 +
STACK CFI 101e4 .cfa: sp 128 +
STACK CFI 10200 .cfa: x29 96 + x19: .cfa -8 + ^ x20: .cfa -16 + ^ x21: .cfa -24 + ^ x22: .cfa -32 + ^ x23: .cfa -40 + ^ x24: .cfa -48 + ^ x25: .cfa -56 + ^ x26: .cfa -64 + ^ x27: .cfa -80 + ^ .ra: .cfa -88 + ^ x29: .cfa -96 + ^
STACK CFI 10344 .cfa: sp 128 +
STACK CFI 10360 .cfa: sp 0 +
STACK CFI 10364 .cfa: x29 96 +
STACK CFI INIT 10394 15c .cfa: sp 0 +
STACK CFI 10398 .cfa: sp 80 +
STACK CFI 103ac .cfa: x29 80 + x19: .cfa -8 + ^ x20: .cfa -16 + ^ x21: .cfa -24 + ^ x22: .cfa -32 + ^ x23: .cfa -40 + ^ x24: .cfa -48 + ^ x25: .cfa -64 + ^ .ra: .cfa -72 + ^ x29: .cfa -80 + ^
STACK CFI 104bc .cfa: sp 80 +
STACK CFI 104d0 .cfa: sp 0 +
STACK CFI 104d4 .cfa: x29 80 +
STACK CFI INIT 1073c d60 .cfa: sp 0 +
STACK CFI 10740 .cfa: sp 96 +
STACK CFI 10758 .cfa: x29 96 + x19: .cfa -8 + ^ x20: .cfa -16 + ^ x21: .cfa -24 + ^ x22: .cfa -32 + ^ x23: .cfa -40 + ^ x24: .cfa -48 + ^ x25: .cfa -56 + ^ x26: .cfa -64 + ^ x27: .cfa -72 + ^ x28: .cfa -80 + ^ .ra: .cfa -88 + ^ x29: .cfa -96 + ^
STACK CFI 10e08 .cfa: sp 96 +
STACK CFI 10e20 .cfa: sp 0 +
STACK CFI 10e24 .cfa: x29 96 +
STACK CFI INIT 11550 1120 .cfa: sp 0 +
STACK CFI 11554 .cfa: sp 96 +
STACK CFI 1156c .cfa: x29 96 + x19: .cfa -8 + ^ x20: .cfa -16 + ^ x21: .cfa -24 + ^ x22: .cfa -32 + ^ x23: .cfa -40 + ^ x24: .cfa -48 + ^ x25: .cfa -56 + ^ x26: .cfa -64 + ^ x27: .cfa -72 + ^ x28: .cfa -80 + ^ .ra: .cfa -88 + ^ x29: .cfa -96 + ^
STACK CFI 12148 .cfa: sp 96 +
STACK CFI 12160 .cfa: sp 0 +
STACK CFI 12164 .cfa: x29 96 +
STACK CFI INIT 12748 1c58 .cfa: sp 0 +
STACK CFI 1274c .cfa: sp 96 +
STACK CFI 12764 .cfa: x29 96 + x19: .cfa -8 + ^ x20: .cfa -16 + ^ x21: .cfa -24 + ^ x22: .cfa -32 + ^ x23: .cfa -40 + ^ x24: .cfa -48 + ^ x25: .cfa -56 + ^ x26: .cfa -64 + ^ x27: .cfa -72 + ^ x28: .cfa -80 + ^ .ra: .cfa -88 + ^ x29: .cfa -96 + ^
STACK CFI 13b5c .cfa: sp 96 +
STACK CFI 13b74 .cfa: sp 0 +
STACK CFI 13b78 .cfa: x29 96 +
STACK CFI INIT 14400 134 .cfa: sp 0 +
STACK CFI 14404 .cfa: sp 80 +
STACK CFI 14410 .cfa: x29 32 + x19: .cfa -8 + ^ x20: .cfa -16 + ^ .ra: .cfa -24 + ^ x29: .cfa -32 + ^
STACK CFI 14440 .cfa: sp 80 +
STACK CFI 1444c .cfa: sp 0 +
STACK CFI 14450 .cfa: x29 32 +
STACK CFI INIT 14534 78 .cfa: sp 0 +
STACK CFI 14538 .cfa: sp 32 +
STACK CFI 14540 .cfa: x29 32 + x19: .cfa -8 + ^ x20: .cfa -16 + ^ .ra: .cfa -24 + ^ x29: .cfa -32 + ^
STACK CFI 1454c .cfa: sp 32 +
STACK CFI 14554 .cfa: sp 0 +
STACK CFI 14558 .cfa: x29 32 +
STACK CFI INIT 145ac 74 .cfa: sp 0 +
STACK CFI 145b0 .cfa: sp 48 +
STACK CFI 145bc .cfa: x29 32 + x19: .cfa -8 + ^ x20: .cfa -16 + ^ .ra: .cfa -24 + ^ x29: .cfa -32 + ^
STACK CFI 14608 .cfa: sp 48 +
STACK CFI 14614 .cfa: sp 0 +
STACK CFI 14618 .cfa: x29 32 +
STACK CFI INIT 14684 1b8 .cfa: sp 0 +
STACK CFI 14688 .cfa: sp 160 +
STACK CFI 146a4 .cfa: x29 72 + x19: .cfa -8 + ^ x20: .cfa -16 + ^ x21: .cfa -24 + ^ x22: .cfa -32 + ^ x23: .cfa -40 + ^ x24: .cfa -48 + ^ x25: .cfa -56 + ^ .ra: .cfa -64 + ^ x29: .cfa -72 + ^ v8: .cfa -80 + ^
STACK CFI 14728 .cfa: sp 160 +
STACK CFI 14744 .cfa: sp 0 +
STACK CFI 14748 .cfa: x29 72 +
STACK CFI INIT 1483c 148 .cfa: sp 0 +
STACK CFI 14840 .cfa: sp 64 +
STACK CFI 14850 .cfa: x29 48 + x19: .cfa -8 + ^ x20: .cfa -16 + ^ x21: .cfa -24 + ^ x22: .cfa -32 + ^ .ra: .cfa -40 + ^ x29: .cfa -48 + ^
STACK CFI 14948 .cfa: sp 64 +
STACK CFI 14958 .cfa: sp 0 +
STACK CFI 1495c .cfa: x29 48 +
STACK CFI INIT 14984 154 .cfa: sp 0 +
STACK CFI 14988 .cfa: sp 384 +
STACK CFI 1499c .cfa: x29 64 + x19: .cfa -8 + ^ x20: .cfa -16 + ^ x21: .cfa -24 + ^ x22: .cfa -32 + ^ x23: .cfa -40 + ^ x28: .cfa -48 + ^ .ra: .cfa -56 + ^ x29: .cfa -64 + ^
STACK CFI 14a80 .cfa: sp 384 +
STACK CFI 14a94 .cfa: sp 0 +
STACK CFI 14a98 .cfa: x29 64 +
STACK CFI INIT 14ad8 168 .cfa: sp 0 +
STACK CFI 14adc .cfa: sp 384 +
STACK CFI 14af0 .cfa: x29 64 + x19: .cfa -8 + ^ x20: .cfa -16 + ^ x21: .cfa -24 + ^ x22: .cfa -32 + ^ x23: .cfa -40 + ^ x28: .cfa -48 + ^ .ra: .cfa -56 + ^ x29: .cfa -64 + ^
STACK CFI 14be8 .cfa: sp 384 +
STACK CFI 14bfc .cfa: sp 0 +
STACK CFI 14c00 .cfa: x29 64 +
STACK CFI INIT 14f88 294 .cfa: sp 0 +
STACK CFI 14f8c .cfa: sp 240 +
STACK CFI 14fa4 .cfa: x29 80 + x19: .cfa -8 + ^ x20: .cfa -16 + ^ x21: .cfa -24 + ^ x22: .cfa -32 + ^ x23: .cfa -40 + ^ x24: .cfa -48 + ^ x25: .cfa -64 + ^ .ra: .cfa -72 + ^ x29: .cfa -80 + ^
STACK CFI 15144 .cfa: sp 240 +
STACK CFI 1515c .cfa: sp 0 +
STACK CFI 15160 .cfa: x29 80 +
STACK CFI INIT 1528c 50 .cfa: sp 0 +
STACK CFI 15290 .cfa: sp 32 +
STACK CFI 15298 .cfa: x29 32 + x19: .cfa -8 + ^ x20: .cfa -16 + ^ .ra: .cfa -24 + ^ x29: .cfa -32 + ^
STACK CFI INIT 15308 750 .cfa: sp 0 +
STACK CFI 1530c .cfa: sp 320 +
STACK CFI 15328 .cfa: x29 96 + x19: .cfa -8 + ^ x20: .cfa -16 + ^ x21: .cfa -24 + ^ x22: .cfa -32 + ^ x23: .cfa -40 + ^ x24: .cfa -48 + ^ x25: .cfa -56 + ^ x26: .cfa -64 + ^ x27: .cfa -72 + ^ x28: .cfa -80 + ^ .ra: .cfa -88 + ^ x29: .cfa -96 + ^
STACK CFI 15914 .cfa: sp 320 +
STACK CFI 15930 .cfa: sp 0 +
STACK CFI 15934 .cfa: x29 96 +
STACK CFI INIT 15abc 12c .cfa: sp 0 +
STACK CFI 15ac0 .cfa: sp 80 +
STACK CFI 15ad4 .cfa: x29 80 + x19: .cfa -8 + ^ x20: .cfa -16 + ^ x21: .cfa -24 + ^ x22: .cfa -32 + ^ x23: .cfa -40 + ^ x24: .cfa -48 + ^ x28: .cfa -64 + ^ .ra: .cfa -72 + ^ x29: .cfa -80 + ^
STACK CFI 15b9c .cfa: sp 80 +
STACK CFI 15bb0 .cfa: sp 0 +
STACK CFI 15bb4 .cfa: x29 80 +
STACK CFI INIT 19b58 c2c .cfa: sp 0 +
STACK CFI 19b5c .cfa: sp 96 +
STACK CFI 19b74 .cfa: x29 96 + x19: .cfa -8 + ^ x20: .cfa -16 + ^ x21: .cfa -24 + ^ x22: .cfa -32 + ^ x23: .cfa -40 + ^ x24: .cfa -48 + ^ x25: .cfa -56 + ^ x26: .cfa -64 + ^ x27: .cfa -72 + ^ x28: .cfa -80 + ^ .ra: .cfa -88 + ^ x29: .cfa -96 + ^
STACK CFI 1a648 .cfa: sp 96 +
STACK CFI 1a660 .cfa: sp 0 +
STACK CFI 1a664 .cfa: x29 96 +
STACK CFI INIT 1a8d8 238 .cfa: sp 0 +
STACK CFI 1a8dc .cfa: sp 128 +
STACK CFI 1a8ec .cfa: x29 48 + x19: .cfa -8 + ^ x20: .cfa -16 + ^ x21: .cfa -24 + ^ x22: .cfa -32 + ^ .ra: .cfa -40 + ^ x29: .cfa -48 + ^
STACK CFI 1aa74 .cfa: sp 128 +
STACK CFI 1aa84 .cfa: sp 0 +
STACK CFI 1aa88 .cfa: x29 48 +
STACK CFI INIT 1ae74 3a4 .cfa: sp 0 +
STACK CFI 1ae78 .cfa: sp 96 +
STACK CFI 1ae90 .cfa: x29 96 + x19: .cfa -8 + ^ x20: .cfa -16 + ^ x21: .cfa -24 + ^ x22: .cfa -32 + ^ x23: .cfa -40 + ^ x24: .cfa -48 + ^ x25: .cfa -56 + ^ x26: .cfa -64 + ^ x27: .cfa -72 + ^ x28: .cfa -80 + ^ .ra: .cfa -88 + ^ x29: .cfa -96 + ^
STACK CFI 1b1b8 .cfa: sp 96 +
STACK CFI 1b1d0 .cfa: sp 0 +
STACK CFI 1b1d4 .cfa: x29 96 +
STACK CFI INIT 1b2b8 c6c .cfa: sp 0 +
STACK CFI 1b2bc .cfa: sp 96 +
STACK CFI 1b2d4 .cfa: x29 96 + x19: .cfa -8 + ^ x20: .cfa -16 + ^ x21: .cfa -24 + ^ x22: .cfa -32 + ^ x23: .cfa -40 + ^ x24: .cfa -48 + ^ x25: .cfa -56 + ^ x26: .cfa -64 + ^ x27: .cfa -72 + ^ x28: .cfa -80 + ^ .ra: .cfa -88 + ^ x29: .cfa -96 + ^
STACK CFI 1bdd8 .cfa: sp 96 +
STACK CFI 1bdf0 .cfa: sp 0 +
STACK CFI 1bdf4 .cfa: x29 96 +
STACK CFI INIT 1c20c ad4 .cfa: sp 0 +
STACK CFI 1c210 .cfa: sp 96 +
STACK CFI 1c228 .cfa: x29 96 + x19: .cfa -8 + ^ x20: .cfa -16 + ^ x21: .cfa -24 + ^ x22: .cfa -32 + ^ x23: .cfa -40 + ^ x24: .cfa -48 + ^ x25: .cfa -56 + ^ x26: .cfa -64 + ^ x27: .cfa -72 + ^ x28: .cfa -80 + ^ .ra: .cfa -88 + ^ x29: .cfa -96 + ^
STACK CFI 1cc54 .cfa: sp 96 +
STACK CFI 1cc6c .cfa: sp 0 +
STACK CFI 1cc70 .cfa: x29 96 +
STACK CFI INIT 1cebc 1350 .cfa: sp 0 +
STACK CFI 1cec0 .cfa: sp 96 +
STACK CFI 1ced8 .cfa: x29 96 + x19: .cfa -8 + ^ x20: .cfa -16 + ^ x21: .cfa -24 + ^ x22: .cfa -32 + ^ x23: .cfa -40 + ^ x24: .cfa -48 + ^ x25: .cfa -56 + ^ x26: .cfa -64 + ^ x27: .cfa -72 + ^ x28: .cfa -80 + ^ .ra: .cfa -88 + ^ x29: .cfa -96 + ^
STACK CFI 1e0d8 .cfa: sp 96 +
STACK CFI 1e0f0 .cfa: sp 0 +
STACK CFI 1e0f4 .cfa: x29 96 +
STACK CFI INIT 1e330 744 .cfa: sp 0 +
STACK CFI 1e334 .cfa: sp 368 +
STACK CFI 1e350 .cfa: x29 96 + x19: .cfa -8 + ^ x20: .cfa -16 + ^ x21: .cfa -24 + ^ x22: .cfa -32 + ^ x23: .cfa -40 + ^ x24: .cfa -48 + ^ x25: .cfa -56 + ^ x26: .cfa -64 + ^ x27: .cfa -72 + ^ x28: .cfa -80 + ^ .ra: .cfa -88 + ^ x29: .cfa -96 + ^
STACK CFI 1e3ec .cfa: sp 368 +
STACK CFI 1e408 .cfa: sp 0 +
STACK CFI 1e40c .cfa: x29 96 +
STACK CFI 1e460 .cfa: sp 368 +
STACK CFI 1e47c .cfa: sp 0 +
STACK CFI 1e480 .cfa: x29 96 +
STACK CFI INIT 1ee08 e84 .cfa: sp 0 +
STACK CFI 1ee0c .cfa: sp 96 +
STACK CFI 1ee24 .cfa: x29 96 + x19: .cfa -8 + ^ x20: .cfa -16 + ^ x21: .cfa -24 + ^ x22: .cfa -32 + ^ x23: .cfa -40 + ^ x24: .cfa -48 + ^ x25: .cfa -56 + ^ x26: .cfa -64 + ^ x27: .cfa -72 + ^ x28: .cfa -80 + ^ .ra: .cfa -88 + ^ x29: .cfa -96 + ^
STACK CFI 1faa0 .cfa: sp 96 +
STACK CFI 1fab8 .cfa: sp 0 +
STACK CFI 1fabc .cfa: x29 96 +
STACK CFI INIT 20000 1c3c .cfa: sp 0 +
STACK CFI 20004 .cfa: sp 112 +
STACK CFI 20020 .cfa: x29 96 + x19: .cfa -8 + ^ x20: .cfa -16 + ^ x21: .cfa -24 + ^ x22: .cfa -32 + ^ x23: .cfa -40 + ^ x24: .cfa -48 + ^ x25: .cfa -56 + ^ x26: .cfa -64 + ^ x27: .cfa -72 + ^ x28: .cfa -80 + ^ .ra: .cfa -88 + ^ x29: .cfa -96 + ^ v8: .cfa -112 + ^
STACK CFI 2195c .cfa: sp 112 +
STACK CFI 21978 .cfa: sp 0 +
STACK CFI 2197c .cfa: x29 96 +
STACK CFI INIT 24318 98c .cfa: sp 0 +
STACK CFI 2431c .cfa: sp 144 +
STACK CFI 24334 .cfa: x29 80 + x19: .cfa -8 + ^ x20: .cfa -16 + ^ x21: .cfa -24 + ^ x22: .cfa -32 + ^ x23: .cfa -40 + ^ x24: .cfa -48 + ^ x25: .cfa -64 + ^ .ra: .cfa -72 + ^ x29: .cfa -80 + ^
STACK CFI 24c20 .cfa: sp 144 +
STACK CFI 24c38 .cfa: sp 0 +
STACK CFI 24c3c .cfa: x29 80 +
STACK CFI INIT 25c90 570 .cfa: sp 0 +
STACK CFI 25c94 .cfa: sp 96 +
STACK CFI 25cac .cfa: x29 96 + x19: .cfa -8 + ^ x20: .cfa -16 + ^ x21: .cfa -24 + ^ x22: .cfa -32 + ^ x23: .cfa -40 + ^ x24: .cfa -48 + ^ x25: .cfa -56 + ^ x26: .cfa -64 + ^ x27: .cfa -72 + ^ x28: .cfa -80 + ^ .ra: .cfa -88 + ^ x29: .cfa -96 + ^
STACK CFI 26164 .cfa: sp 96 +
STACK CFI 2617c .cfa: sp 0 +
STACK CFI 26180 .cfa: x29 96 +
STACK CFI INIT 26200 664 .cfa: sp 0 +
STACK CFI 26204 .cfa: sp 96 +
STACK CFI 2621c .cfa: x29 96 + x19: .cfa -8 + ^ x20: .cfa -16 + ^ x21: .cfa -24 + ^ x22: .cfa -32 + ^ x23: .cfa -40 + ^ x24: .cfa -48 + ^ x25: .cfa -56 + ^ x26: .cfa -64 + ^ x27: .cfa -72 + ^ x28: .cfa -80 + ^ .ra: .cfa -88 + ^ x29: .cfa -96 + ^
STACK CFI 267c8 .cfa: sp 96 +
STACK CFI 267e0 .cfa: sp 0 +
STACK CFI 267e4 .cfa: x29 96 +
