MODULE Linux arm64 26DDA4A2FA955B71BDC1CCCEBD55AFBE0 flingus.geometry_pride.android64.so
INFO CODE_ID A2A4DD2695FA715BBDC1CCCEBD55AFBE0BDDF228
INFO GENERATOR mozilla/dump_syms 2.3.4
PUBLIC 5ec0 0 __on_dlclose
PUBLIC 5ed0 0 __emutls_unregister_key
PUBLIC 5ed8 0 __on_dlclose_late
PUBLIC 5ee0 0 __atexit_handler_wrapper
PUBLIC 5ef4 0 atexit
PUBLIC 5f10 0 pthread_atfork
PUBLIC 5f20 0 __aarch64_ldadd8_relax
PUBLIC 5f50 0 init_have_lse_atomics
PUBLIC 5fe8 0 __init_cpu_features_constructor
PUBLIC 6584 0 __init_cpu_features
PUBLIC 6610 0 __aarch64_ldadd8_acq_rel
PUBLIC 6640 0 __cxx_global_var_init
PUBLIC 7214 0 geode::modifier::ModifyBase<geode::modifier::ModifyDerive<MyMenuLayer, MenuLayer> >::~ModifyBase()
PUBLIC 722c 0 geode::modifier::ModifyDerive<MyMenuLayer, MenuLayer>::apply()
PUBLIC 7634 0 std::__ndk1::shared_ptr<geode::Hook>::~shared_ptr[abi:ne180000]()
PUBLIC 7684 0 geode::impl::ResultData<geode::Hook*, std::__ndk1::basic_string<char, std::__ndk1::char_traits<char>, std::__ndk1::allocator<char> > >::~ResultData()
PUBLIC 76f8 0 std::__ndk1::vector<std::__ndk1::basic_string<char, std::__ndk1::char_traits<char>, std::__ndk1::allocator<char> >, std::__ndk1::allocator<std::__ndk1::basic_string<char, std::__ndk1::char_traits<char>, std::__ndk1::allocator<char> > > >::~vector[abi:ne180000]()
PUBLIC 7774 0 geode::modifier::ModifyBase<geode::modifier::ModifyDerive<MyMenuLayer, MenuLayer> >::apply()
PUBLIC 7778 0 __clang_call_terminate
PUBLIC 7788 0 _ZN5geode15UnwrapExceptionC2IRPNS_4HookEQsr4implE18IsStringStreamableIT_EEENS_4impl5OkTagEOS5_
PUBLIC 78dc 0 std::__ndk1::__throw_bad_variant_access[abi:ne180000]()
PUBLIC 7910 0 std::__ndk1::basic_stringstream<char, std::__ndk1::char_traits<char>, std::__ndk1::allocator<char> >::basic_stringstream[abi:ne180000]()
PUBLIC m 7a3c 0 std::__ndk1::basic_stringstream<char, std::__ndk1::char_traits<char>, std::__ndk1::allocator<char> >::~basic_stringstream()
PUBLIC 7abc 0 geode::UnwrapException::~UnwrapException()
PUBLIC 7ae0 0 std::__ndk1::__put_character_sequence[abi:ne180000]<char, std::__ndk1::char_traits<char> >(std::__ndk1::basic_ostream<char, std::__ndk1::char_traits<char> >, std::__ndk1::basic_ostream const*, unsigned long)
PUBLIC 7c84 0 std::__ndk1::__pad_and_output[abi:ne180000]<char, std::__ndk1::char_traits<char> >(std::__ndk1::char_traits<char>, std::__ndk1::ostreambuf_iterator const*, std::__ndk1::ostreambuf_iterator const, std::__ndk1::ostreambuf_iterator const, std::__ndk1::ios_base&, std::__ndk1::ostreambuf_iterator)
PUBLIC 7e60 0 std::__ndk1::basic_string<char, std::__ndk1::char_traits<char>, std::__ndk1::allocator<char> >::__throw_length_error[abi:ne180000]() const
PUBLIC 7e74 0 std::__ndk1::__throw_length_error[abi:ne180000](char const*)
PUBLIC 7ec4 0 std::length_error::length_error[abi:ne180000](char const*)
PUBLIC 7ef4 0 std::__throw_bad_array_new_length([abi:ne180000], void)
PUBLIC 7f28 0 std::__ndk1::basic_stringbuf<char, std::__ndk1::char_traits<char>, std::__ndk1::allocator<char> >::str[abi:ne180000]() &&
PUBLIC 80a0 0 std::__ndk1::basic_stringbuf<char, std::__ndk1::char_traits<char>, std::__ndk1::allocator<char> >::__init_buf_ptrs[abi:ne180000]()
PUBLIC 81e8 0 std::__ndk1::basic_string<char, std::__ndk1::char_traits<char>, std::__ndk1::allocator<char> >::__init_copy_ctor_external(char const*, unsigned long)
PUBLIC 8268 0 std::__ndk1::__split_buffer<std::__ndk1::basic_string<char, std::__ndk1::char_traits<char>, std::__ndk1::allocator<char> >, std::__ndk1::allocator<std::__ndk1::basic_string<char, std::__ndk1::char_traits<char>, std::__ndk1::allocator<char> > >&>::~__split_buffer()
PUBLIC 82d0 0 std::__ndk1::vector<std::__ndk1::basic_string<char, std::__ndk1::char_traits<char>, std::__ndk1::allocator<char> >, std::__ndk1::allocator<std::__ndk1::basic_string<char, std::__ndk1::char_traits<char>, std::__ndk1::allocator<char> > > >::__throw_length_error[abi:ne180000]() const
PUBLIC 82e4 0 std::__ndk1::__variant_detail::__visitation::__base::__dispatcher<(unsigned long)0>::__dispatch[abi:ne180000]<std::__ndk1::__variant_detail::__dtor<std::__ndk1::__variant_detail::__traits<geode::Hook*, std::__ndk1::basic_string<char, std::__ndk1::char_traits<char>, std::__ndk1::allocator<char> > >, (std::__ndk1::__variant_detail::_Trait)1>::__destroy[abi:ne180000]()::{lambda(auto:1&)#1}, std::__ndk1::__variant_detail::__base<(std::__ndk1::__variant_detail::__traits<geode::Hook*, std::__ndk1::basic_string<char, std::__ndk1::char_traits<char>, std::__ndk1::allocator<char> > >)1, geode::Hook, std::__ndk1::allocator<char> >&>(std::__ndk1::__variant_detail::__dtor<std::__ndk1::__variant_detail::__traits<geode::Hook*, std::__ndk1::basic_string<char, std::__ndk1::char_traits<char>, std::__ndk1::allocator<char> > >, (std::__ndk1::__variant_detail::_Trait)1>, std::__ndk1::__variant_detail::__base<(std::__ndk1::__variant_detail::__traits<geode::Hook*, std::__ndk1::basic_string<char, std::__ndk1::char_traits<char>, std::__ndk1::allocator<char> > >)1, geode::Hook, std::__ndk1::allocator<char> >&)
PUBLIC 82e8 0 std::__ndk1::__variant_detail::__visitation::__base::__dispatcher<(unsigned long)1>::__dispatch[abi:ne180000]<std::__ndk1::__variant_detail::__dtor<std::__ndk1::__variant_detail::__traits<geode::Hook*, std::__ndk1::basic_string<char, std::__ndk1::char_traits<char>, std::__ndk1::allocator<char> > >, (std::__ndk1::__variant_detail::_Trait)1>::__destroy[abi:ne180000]()::{lambda(auto:1&)#1}, std::__ndk1::__variant_detail::__base<(std::__ndk1::__variant_detail::__traits<geode::Hook*, std::__ndk1::basic_string<char, std::__ndk1::char_traits<char>, std::__ndk1::allocator<char> > >)1, geode::Hook, std::__ndk1::allocator<char> >&>(std::__ndk1::__variant_detail::__dtor<std::__ndk1::__variant_detail::__traits<geode::Hook*, std::__ndk1::basic_string<char, std::__ndk1::char_traits<char>, std::__ndk1::allocator<char> > >, (std::__ndk1::__variant_detail::_Trait)1>, std::__ndk1::__variant_detail::__base<(std::__ndk1::__variant_detail::__traits<geode::Hook*, std::__ndk1::basic_string<char, std::__ndk1::char_traits<char>, std::__ndk1::allocator<char> > >)1, geode::Hook, std::__ndk1::allocator<char> >&)
PUBLIC 82fc 0 std::__ndk1::__tree<std::__ndk1::__value_type<std::__ndk1::basic_string<char, std::__ndk1::char_traits<char>, std::__ndk1::allocator<char> >, std::__ndk1::shared_ptr<geode::Hook> >, std::__ndk1::__map_value_compare<std::__ndk1::basic_string<char, std::__ndk1::char_traits<char>, std::__ndk1::allocator<char> >, std::__ndk1::__value_type<std::__ndk1::basic_string<char, std::__ndk1::char_traits<char>, std::__ndk1::allocator<char> >, std::__ndk1::shared_ptr<geode::Hook> >, std::__ndk1::less<std::__ndk1::basic_string<char, std::__ndk1::char_traits<char>, std::__ndk1::allocator<char> > >, true>, std::__ndk1::allocator<std::__ndk1::__value_type<std::__ndk1::basic_string<char, std::__ndk1::char_traits<char>, std::__ndk1::allocator<char> >, std::__ndk1::shared_ptr<geode::Hook> > > >::destroy(std::__ndk1::__tree_node<std::__ndk1::__value_type<std::__ndk1::basic_string<char, std::__ndk1::char_traits<char>, std::__ndk1::allocator<char> >, std::__ndk1::shared_ptr<geode::Hook> >, void*>*)
PUBLIC 8380 0 geode::modifier::AsStaticFunction_init<MyMenuLayer, bool (MyMenuLayer::*)()>::Impl<bool (MyMenuLayer::*)()>::function(MyMenuLayer*)
PUBLIC 86e4 0 geode::addresser::Addresser::addressOfVirtual<bool, MenuLayer, >(bool (MenuLayer::*)())
PUBLIC 878c 0 MenuLayer::MenuLayer(geode::ZeroConstructorType)
PUBLIC 8828 0 std::__ndk1::shared_ptr<tulip::hook::CallingConvention>::~shared_ptr[abi:ne180000]()
PUBLIC 8878 0 tulip::hook::HandlerMetadata::~HandlerMetadata()
PUBLIC 88dc 0 MyMenuLayer::openGeometryPrideSettings(cocos2d::CCObject*)
PUBLIC 8918 0 geode::cast::traverseTypeinfoFor(void*, geode::cast::ClassTypeinfoType const*, char const*)
PUBLIC 8a10 0 std::__ndk1::__tree_balance_after_insert[abi:ne180000]<std::__ndk1::__tree_node_base<void*>*>(std::__ndk1::__tree_node_base<void*>*, std::__ndk1::__tree_node_base<void*>*)
PUBLIC m 8bc0 0 geodeImplicitEntry
PUBLIC 8bfc 0 __udivti3
PUBLIC 8c08 0 __udivmodti4
PUBLIC m 8e54 0 __eqtf2
PUBLIC 8ef4 0 __unordtf2
PUBLIC 8f2c 0 fmt::v11::detail::write_loc(fmt::v11::basic_appender<char>, fmt::v11::loc_value, fmt::v11::format_specs const&, fmt::v11::detail::locale_ref)
PUBLIC 91c0 0 fmt::v11::format_facet<std::__ndk1::locale>::~format_facet()
PUBLIC 923c 0 fmt::v11::report_error(char const*)
PUBLIC 928c 0 fmt::v11::format_error::runtime_error(char const*)
PUBLIC 92b8 0 fmt::v11::format_facet<std::__ndk1::locale>::do_put(fmt::v11::basic_appender<char>, fmt::v11::loc_value, fmt::v11::format_specs const&) const
PUBLIC 9a78 0 fmt::v11::detail::loc_writer<char>::~loc_writer()
PUBLIC 9adc 0 fmt::v11::detail::vformat_to<char>(fmt::v11::detail::buffer<char>&, fmt::v11::basic_string_view<char>, fmt::v11::detail::vformat_args<char>::type, fmt::v11::detail::locale_ref)
PUBLIC a04c 0 fmt::v11::detail::is_printable(unsigned int)
PUBLIC a274 0 fmt::v11::detail::dragonbox::to_decimal<float>(float)
PUBLIC a550 0 fmt::v11::detail::dragonbox::to_decimal<double>(double)
PUBLIC aa8c 0 fmt::v11::basic_memory_buffer<char, (unsigned long)500, std::__ndk1::allocator<char> >::grow(fmt::v11::detail::buffer<char>&, unsigned long)
PUBLIC ab04 0 fmt::v11::format_facet<std::__ndk1::locale>::~format_facet()
PUBLIC ab90 0 fmt::v11::format_error::~format_error()
PUBLIC abb4 0 fmt::v11::detail::copy_noinline<char, char const*, fmt::v11::basic_appender<char> >(char const*, char const*, fmt::v11::basic_appender<char>)
PUBLIC ad04 0 fmt::v11::detail::default_arg_formatter<char>::operator()<bool>(bool)
PUBLIC ad6c 0 fmt::v11::detail::default_arg_formatter<char>::operator()<char>(char)
PUBLIC adfc 0 fmt::v11::detail::default_arg_formatter<char>::operator()<float>(float)
PUBLIC aee8 0 fmt::v11::detail::default_arg_formatter<char>::operator()<double>(double)
PUBLIC afd4 0 fmt::v11::detail::default_arg_formatter<char>::operator()<char const*>(char const*)
PUBLIC b01c 0 fmt::v11::detail::default_arg_formatter<char>::operator()<void const*>(void const*)
PUBLIC b0b4 0 _ZN3fmt3v116detail5writeIcNS0_14basic_appenderIcEEiTnNSt6__ndk19enable_ifIXaaaasr11is_integralIT1_EE5valuentsr3std7is_sameIS7_bEE5valuentsr3std7is_sameIS7_T_EE5valueEiE4typeELi0EEET0_SB_S7_
PUBLIC b314 0 fmt::v11::detail::copy_noinline<char, char*, fmt::v11::basic_appender<char> >(char*, char*, fmt::v11::basic_appender<char>)
PUBLIC b464 0 _ZN3fmt3v116detail5writeIcNS0_14basic_appenderIcEEjTnNSt6__ndk19enable_ifIXaaaasr11is_integralIT1_EE5valuentsr3std7is_sameIS7_bEE5valuentsr3std7is_sameIS7_T_EE5valueEiE4typeELi0EEET0_SB_S7_
PUBLIC b644 0 _ZN3fmt3v116detail5writeIcNS0_14basic_appenderIcEExTnNSt6__ndk19enable_ifIXaaaasr11is_integralIT1_EE5valuentsr3std7is_sameIS7_bEE5valuentsr3std7is_sameIS7_T_EE5valueEiE4typeELi0EEET0_SB_S7_
PUBLIC b8c8 0 _ZN3fmt3v116detail5writeIcNS0_14basic_appenderIcEEyTnNSt6__ndk19enable_ifIXaaaasr11is_integralIT1_EE5valuentsr3std7is_sameIS7_bEE5valuentsr3std7is_sameIS7_T_EE5valueEiE4typeELi0EEET0_SB_S7_
PUBLIC bad0 0 _ZN3fmt3v116detail5writeIcNS0_14basic_appenderIcEEnTnNSt6__ndk19enable_ifIXaaaasr11is_integralIT1_EE5valuentsr3std7is_sameIS7_bEE5valuentsr3std7is_sameIS7_T_EE5valueEiE4typeELi0EEET0_SB_S7_
PUBLIC be30 0 _ZN3fmt3v116detail5writeIcNS0_14basic_appenderIcEEoTnNSt6__ndk19enable_ifIXaaaasr11is_integralIT1_EE5valuentsr3std7is_sameIS7_bEE5valuentsr3std7is_sameIS7_T_EE5valueEiE4typeELi0EEET0_SB_S7_
PUBLIC c144 0 _ZN3fmt3v116detail5writeIcNS0_14basic_appenderIcEEbTnNSt6__ndk19enable_ifIXsr3std7is_sameIT1_bEE5valueEiE4typeELi0EEET0_SA_S7_RKNS0_12format_specsENS1_10locale_refE
PUBLIC c3d4 0 fmt::v11::detail::write_int_noinline<char, fmt::v11::basic_appender<char>, unsigned int>(fmt::v11::basic_appender<char>, fmt::v11::detail::write_int_arg<unsigned int>, fmt::v11::format_specs const&, fmt::v11::detail::locale_ref)
PUBLIC d1b0 0 fmt::v11::detail::fill<char, fmt::v11::basic_appender<char> >(fmt::v11::basic_appender<char>, unsigned long, fmt::v11::detail::fill_t const&)
PUBLIC d380 0 fmt::v11::detail::write_padded<char, (fmt::v11::align::type)1, fmt::v11::basic_appender<char>, fmt::v11::detail::write_char<char, fmt::v11::basic_appender<char> >(fmt::v11::basic_appender<char>, char, fmt::v11::format_specs const&)::{lambda(fmt::v11::basic_appender<char>&)#1}>(fmt::v11::basic_appender<char>, fmt::v11::format_specs const&, unsigned long, unsigned long, fmt::v11::detail::write_char<char, fmt::v11::basic_appender<char> >(fmt::v11::basic_appender<char>, char, fmt::v11::format_specs const&)::{lambda(fmt::v11::basic_appender<char>&)#1})
PUBLIC d5bc 0 fmt::v11::detail::write_escaped_cp<fmt::v11::basic_appender<char>, char>(fmt::v11::basic_appender<char>, fmt::v11::detail::find_escape_result<char> const&)
PUBLIC d8c8 0 fmt::v11::detail::write_codepoint<(unsigned long)2, char, fmt::v11::basic_appender<char> >(fmt::v11::basic_appender<char>, char, unsigned int)
PUBLIC da40 0 fmt::v11::detail::write_codepoint<(unsigned long)8, char, fmt::v11::basic_appender<char> >(fmt::v11::basic_appender<char>, char, unsigned int)
PUBLIC dbb8 0 fmt::v11::detail::write_padded<char, (fmt::v11::align::type)1, fmt::v11::basic_appender<char>, fmt::v11::detail::write_nonfinite<char, fmt::v11::basic_appender<char> >(fmt::v11::basic_appender<char>, bool, fmt::v11::format_specs, fmt::v11::sign::type)::{lambda(fmt::v11::basic_appender<char>&)#1}>(fmt::v11::basic_appender<char>, fmt::v11::format_specs const&, unsigned long, unsigned long, fmt::v11::detail::write_nonfinite<char, fmt::v11::basic_appender<char> >(fmt::v11::basic_appender<char>, bool, fmt::v11::format_specs, fmt::v11::sign::type)::{lambda(fmt::v11::basic_appender<char>&)#1})
PUBLIC ddf8 0 fmt::v11::detail::do_write_float<char, fmt::v11::basic_appender<char>, fmt::v11::detail::dragonbox::decimal_fp<float>, fmt::v11::detail::digit_grouping<char> >(fmt::v11::basic_appender<char>, fmt::v11::detail::dragonbox::decimal_fp<float> const&, fmt::v11::format_specs const&, fmt::v11::detail::float_specs, fmt::v11::detail::locale_ref)
PUBLIC ea6c 0 fmt::v11::detail::do_write_float<char, fmt::v11::basic_appender<char>, fmt::v11::detail::dragonbox::decimal_fp<float>, fmt::v11::detail::digit_grouping<char> >(fmt::v11::basic_appender<char>, fmt::v11::detail::dragonbox::decimal_fp<float> const&, fmt::v11::format_specs const&, fmt::v11::detail::float_specs, fmt::v11::detail::locale_ref)::{lambda(fmt::v11::basic_appender<char>(fmt::v11::basic_appender<char>))#1}::operator() const
PUBLIC ebc0 0 fmt::v11::detail::digit_grouping<char>::digit_grouping(fmt::v11::detail::locale_ref, bool)
PUBLIC ee2c 0 fmt::v11::detail::digit_grouping<char>::~digit_grouping()
PUBLIC ee70 0 fmt::v11::detail::write_exponent<char, fmt::v11::basic_appender<char> >(int, fmt::v11::basic_appender<char>)
PUBLIC f040 0 _ZN3fmt3v116detail17write_significandIcjTnNSt6__ndk19enable_ifIXsr3std11is_integralIT0_EE5valueEiE4typeELi0EEEPT_S9_S5_iiS8_
PUBLIC f1bc 0 std::__ndk1::basic_string<char, std::__ndk1::char_traits<char>, std::__ndk1::allocator<char> >::__assign_no_alias<true>(char const*, unsigned long)
PUBLIC f268 0 std::__ndk1::basic_string<char, std::__ndk1::char_traits<char>, std::__ndk1::allocator<char> >::__assign_no_alias<false>(char const*, unsigned long)
PUBLIC f378 0 fmt::v11::detail::digit_grouping<char>::apply<fmt::v11::basic_appender<char>, char>(fmt::v11::basic_appender<char>, fmt::v11::basic_string_view<char>) const
PUBLIC f730 0 fmt::v11::basic_memory_buffer<int, (unsigned long)500, std::__ndk1::allocator<int> >::grow(fmt::v11::detail::buffer<int>&, unsigned long)
PUBLIC f7d0 0 fmt::v11::detail::do_write_float<char, fmt::v11::basic_appender<char>, fmt::v11::detail::dragonbox::decimal_fp<double>, fmt::v11::detail::digit_grouping<char> >(fmt::v11::basic_appender<char>, fmt::v11::detail::dragonbox::decimal_fp<double> const&, fmt::v11::format_specs const&, fmt::v11::detail::float_specs, fmt::v11::detail::locale_ref)
PUBLIC 10484 0 fmt::v11::detail::do_write_float<char, fmt::v11::basic_appender<char>, fmt::v11::detail::dragonbox::decimal_fp<double>, fmt::v11::detail::digit_grouping<char> >(fmt::v11::basic_appender<char>, fmt::v11::detail::dragonbox::decimal_fp<double> const&, fmt::v11::format_specs const&, fmt::v11::detail::float_specs, fmt::v11::detail::locale_ref)::{lambda(fmt::v11::basic_appender<char>(fmt::v11::basic_appender<char>))#1}::operator() const
PUBLIC 105dc 0 _ZN3fmt3v116detail17write_significandIcmTnNSt6__ndk19enable_ifIXsr3std11is_integralIT0_EE5valueEiE4typeELi0EEEPT_S9_S5_iiS8_
PUBLIC 1076c 0 fmt::v11::detail::write_float<char, fmt::v11::basic_appender<char>, long double>(fmt::v11::basic_appender<char>, long double, fmt::v11::format_specs, fmt::v11::detail::locale_ref)
PUBLIC 11268 0 fmt::v11::detail::write_padded<char, (fmt::v11::align::type)2, fmt::v11::basic_appender<char>, fmt::v11::detail::write_bytes<char, (fmt::v11::align::type)2, fmt::v11::basic_appender<char> >(fmt::v11::basic_appender<char>, fmt::v11::basic_string_view<char>, fmt::v11::format_specs const&)::{lambda(fmt::v11::basic_appender<char>&)#1}>(fmt::v11::basic_appender<char>, fmt::v11::format_specs const&, unsigned long, unsigned long, fmt::v11::detail::write_bytes<char, (fmt::v11::align::type)2, fmt::v11::basic_appender<char> >(fmt::v11::basic_appender<char>, fmt::v11::basic_string_view<char>, fmt::v11::format_specs const&)::{lambda(fmt::v11::basic_appender<char>&)#1})
PUBLIC 11444 0 fmt::v11::detail::format_dragon(fmt::v11::detail::basic_fp<unsigned __int128>, unsigned int, int, fmt::v11::detail::buffer<char>&, int&)
PUBLIC 12874 0 fmt::v11::detail::bigint::operator<<=(int)
PUBLIC 12998 0 fmt::v11::detail::bigint::assign_pow10(int)
PUBLIC 130f4 0 fmt::v11::detail::bigint::divmod_assign(fmt::v11::detail::bigint const&)
PUBLIC 13414 0 fmt::v11::basic_memory_buffer<unsigned int, (unsigned long)32, std::__ndk1::allocator<unsigned int> >::grow(fmt::v11::detail::buffer<unsigned int>&, unsigned long)
PUBLIC 134b4 0 fmt::v11::detail::do_write_float<char, fmt::v11::basic_appender<char>, fmt::v11::detail::big_decimal_fp, fmt::v11::detail::digit_grouping<char> >(fmt::v11::basic_appender<char>, fmt::v11::detail::big_decimal_fp const&, fmt::v11::format_specs const&, fmt::v11::detail::float_specs, fmt::v11::detail::locale_ref)
PUBLIC 14364 0 fmt::v11::detail::do_write_float<char, fmt::v11::basic_appender<char>, fmt::v11::detail::big_decimal_fp, fmt::v11::detail::digit_grouping<char> >(fmt::v11::basic_appender<char>, fmt::v11::detail::big_decimal_fp const&, fmt::v11::format_specs const&, fmt::v11::detail::float_specs, fmt::v11::detail::locale_ref)::{lambda(fmt::v11::basic_appender<char>(fmt::v11::basic_appender<char>))#1}::operator() const
PUBLIC 144c4 0 fmt::v11::detail::write_padded<char, (fmt::v11::align::type)2, fmt::v11::basic_appender<char>, fmt::v11::detail::write_ptr<char, fmt::v11::basic_appender<char>, unsigned long>(fmt::v11::basic_appender<char>, unsigned long, fmt::v11::format_specs const*)::{lambda(fmt::v11::basic_appender<char>&)#1}>(fmt::v11::basic_appender<char>, fmt::v11::format_specs const&, unsigned long, unsigned long, fmt::v11::detail::write_ptr<char, fmt::v11::basic_appender<char>, unsigned long>(fmt::v11::basic_appender<char>, unsigned long, fmt::v11::format_specs const*)::{lambda(fmt::v11::basic_appender<char>&)#1})
PUBLIC 146d8 0 fmt::v11::detail::parse_replacement_field<char, fmt::v11::detail::vformat_to<char>(fmt::v11::detail::buffer<char>&, fmt::v11::basic_string_view<char>, fmt::v11::detail::vformat_args<char>::type, fmt::v11::detail::locale_ref)::format_handler&>(char const*, char const*, fmt::v11::detail::vformat_to<char>(fmt::v11::detail::buffer<char>&, fmt::v11::basic_string_view<char>, fmt::v11::detail::vformat_args<char>::type, fmt::v11::detail::locale_ref)::format_handler&)
PUBLIC 16374 0 fmt::v11::detail::parse_dynamic_spec<char>(char const*, char const*, int&, fmt::v11::detail::arg_ref<char>&, fmt::v11::basic_format_parse_context<char>&)
PUBLIC 16604 0 fmt::v11::basic_format_args<fmt::v11::context>::get<char>(fmt::v11::basic_string_view<char>) const
PUBLIC 1675c 0 fmt::v11::detail::write_int_noinline<char, fmt::v11::basic_appender<char>, unsigned long>(fmt::v11::basic_appender<char>, fmt::v11::detail::write_int_arg<unsigned long>, fmt::v11::format_specs const&, fmt::v11::detail::locale_ref)
PUBLIC 175b0 0 fmt::v11::detail::write_int_noinline<char, fmt::v11::basic_appender<char>, unsigned __int128>(fmt::v11::basic_appender<char>, fmt::v11::detail::write_int_arg<unsigned __int128>, fmt::v11::format_specs const&, fmt::v11::detail::locale_ref)
PUBLIC 18618 0 _ZN3fmt3v116detail15format_hexfloatIdTnNSt6__ndk19enable_ifIXntsr16is_double_doubleIT_EE5valueEiE4typeELi0EEEvS5_NS0_12format_specsERNS1_6bufferIcEE
PUBLIC 18b38 0 fmt::v11::detail::format_float<double>(double, int, fmt::v11::detail::float_specs, fmt::v11::detail::buffer<char>&)
PUBLIC 194d8 0 fmt::v11::detail::write<char, fmt::v11::basic_appender<char> >(fmt::v11::basic_appender<char>, fmt::v11::basic_string_view<char>, fmt::v11::format_specs const&)
PUBLIC 1a844 0 fmt::v11::detail::for_each_codepoint<fmt::v11::detail::compute_width(fmt::v11::basic_string_view<char>)::count_code_points>(fmt::v11::basic_string_view<char>, fmt::v11::detail::compute_width(fmt::v11::basic_string_view<char>)::count_code_points)::{lambda(char const*, char const*)#1}::operator()(char const*, char const*) const
PUBLIC 1a9fc 0 fmt::v11::detail::write_int<fmt::v11::basic_appender<char>, unsigned long, char>(fmt::v11::basic_appender<char>, unsigned long, unsigned int, fmt::v11::format_specs const&, fmt::v11::detail::digit_grouping<char> const&)
PUBLIC 1af78 0 fmt::v11::detail::write_int<fmt::v11::basic_appender<char>, unsigned __int128, char>(fmt::v11::basic_appender<char>, unsigned __int128, unsigned int, fmt::v11::format_specs const&, fmt::v11::detail::digit_grouping<char> const&)
PUBLIC 1b600 0 <.plt ELF section in flingus.geometry_pride.android64.so>
STACK CFI INIT 5ec0 10 .cfa: sp 0 +
STACK CFI INIT 5ed0 8 .cfa: sp 0 +
STACK CFI INIT 5ed8 8 .cfa: sp 0 +
STACK CFI INIT 5ee0 14 .cfa: sp 0 +
STACK CFI INIT 5ef4 1c .cfa: sp 0 +
STACK CFI INIT 5f10 10 .cfa: sp 0 +
STACK CFI INIT 5f20 30 .cfa: sp 0 +
STACK CFI INIT 5f50 98 .cfa: sp 0 +
STACK CFI INIT 5fe8 59c .cfa: sp 0 +
STACK CFI INIT 6584 8c .cfa: sp 0 +
STACK CFI INIT 6610 30 .cfa: sp 0 +
STACK CFI INIT 7214 18 .cfa: sp 0 +
STACK CFI INIT 7634 50 .cfa: sp 0 +
STACK CFI 7638 .cfa: sp 32 +
STACK CFI 7640 .cfa: x29 32 + x19: .cfa -16 + ^ .ra: .cfa -24 + ^ x29: .cfa -32 + ^
STACK CFI 7658 .cfa: sp 32 +
STACK CFI 7660 .cfa: sp 0 +
STACK CFI 7664 .cfa: x29 32 +
STACK CFI 7678 .cfa: sp 32 +
STACK CFI 7680 .cfa: sp 0 +
STACK CFI INIT 76f8 7c .cfa: sp 0 +
STACK CFI 76fc .cfa: sp 48 +
STACK CFI 7708 .cfa: x29 48 + x19: .cfa -8 + ^ x20: .cfa -16 + ^ x21: .cfa -32 + ^ .ra: .cfa -40 + ^ x29: .cfa -48 + ^
STACK CFI 7754 .cfa: sp 48 +
STACK CFI 7760 .cfa: sp 0 +
STACK CFI 7764 .cfa: sp 48 +
STACK CFI 7770 .cfa: sp 0 +
STACK CFI INIT 7774 4 .cfa: sp 0 +
STACK CFI INIT 7778 10 .cfa: sp 0 +
STACK CFI 777c .cfa: sp 16 +
STACK CFI 7780 .cfa: x29 16 + .ra: .cfa -8 + ^ x29: .cfa -16 + ^
STACK CFI INIT 78dc 34 .cfa: sp 0 +
STACK CFI 78e0 .cfa: sp 16 +
STACK CFI 78e4 .cfa: x29 16 + .ra: .cfa -8 + ^ x29: .cfa -16 + ^
STACK CFI INIT 7a3c 80 .cfa: sp 0 +
STACK CFI 7a40 .cfa: sp 48 +
STACK CFI 7a4c .cfa: x29 48 + x19: .cfa -8 + ^ x20: .cfa -16 + ^ x21: .cfa -32 + ^ .ra: .cfa -40 + ^ x29: .cfa -48 + ^
STACK CFI 7aac .cfa: sp 48 +
STACK CFI 7ab8 .cfa: sp 0 +
STACK CFI INIT 7abc 24 .cfa: sp 0 +
STACK CFI 7ac0 .cfa: sp 32 +
STACK CFI 7ac8 .cfa: x29 32 + x19: .cfa -16 + ^ .ra: .cfa -24 + ^ x29: .cfa -32 + ^
STACK CFI 7ad4 .cfa: sp 32 +
STACK CFI 7adc .cfa: sp 0 +
STACK CFI INIT 7e60 14 .cfa: sp 0 +
STACK CFI 7e64 .cfa: sp 16 +
STACK CFI 7e68 .cfa: x29 16 + .ra: .cfa -8 + ^ x29: .cfa -16 + ^
STACK CFI INIT 7ec4 30 .cfa: sp 0 +
STACK CFI 7ec8 .cfa: sp 32 +
STACK CFI 7ed0 .cfa: x29 32 + x19: .cfa -16 + ^ .ra: .cfa -24 + ^ x29: .cfa -32 + ^
STACK CFI 7ee8 .cfa: sp 32 +
STACK CFI 7ef0 .cfa: sp 0 +
STACK CFI INIT 7ef4 34 .cfa: sp 0 +
STACK CFI 7ef8 .cfa: sp 32 +
STACK CFI 7f00 .cfa: x29 32 + x19: .cfa -16 + ^ .ra: .cfa -24 + ^ x29: .cfa -32 + ^
STACK CFI INIT 80a0 148 .cfa: sp 0 +
STACK CFI 80a4 .cfa: sp 48 +
STACK CFI 80b0 .cfa: x29 48 + x19: .cfa -8 + ^ x20: .cfa -16 + ^ x21: .cfa -32 + ^ .ra: .cfa -40 + ^ x29: .cfa -48 + ^
STACK CFI 81d8 .cfa: sp 48 +
STACK CFI 81e4 .cfa: sp 0 +
STACK CFI INIT 81e8 80 .cfa: sp 0 +
STACK CFI 81ec .cfa: sp 48 +
STACK CFI 81f8 .cfa: x29 48 + x19: .cfa -8 + ^ x20: .cfa -16 + ^ x21: .cfa -24 + ^ x22: .cfa -32 + ^ .ra: .cfa -40 + ^ x29: .cfa -48 + ^
STACK CFI 8210 .cfa: sp 48 +
STACK CFI 821c .cfa: sp 0 +
STACK CFI 8220 .cfa: x29 48 +
STACK CFI 8250 .cfa: sp 48 +
STACK CFI 825c .cfa: sp 0 +
STACK CFI 8260 .cfa: x29 48 +
STACK CFI INIT 8268 68 .cfa: sp 0 +
STACK CFI 826c .cfa: sp 32 +
STACK CFI 8274 .cfa: x29 32 + x19: .cfa -8 + ^ x20: .cfa -16 + ^ .ra: .cfa -24 + ^ x29: .cfa -32 + ^
STACK CFI 828c .cfa: sp 32 +
STACK CFI 8294 .cfa: sp 0 +
STACK CFI 8298 .cfa: x29 32 +
STACK CFI 82c4 .cfa: sp 32 +
STACK CFI 82cc .cfa: sp 0 +
STACK CFI INIT 82d0 14 .cfa: sp 0 +
STACK CFI 82d4 .cfa: sp 16 +
STACK CFI 82d8 .cfa: x29 16 + .ra: .cfa -8 + ^ x29: .cfa -16 + ^
STACK CFI INIT 82e4 4 .cfa: sp 0 +
STACK CFI INIT 82e8 14 .cfa: sp 0 +
STACK CFI INIT 82fc 84 .cfa: sp 0 +
STACK CFI 8304 .cfa: sp 32 +
STACK CFI 830c .cfa: x29 32 + x19: .cfa -8 + ^ x20: .cfa -16 + ^ .ra: .cfa -24 + ^ x29: .cfa -32 + ^
STACK CFI 834c .cfa: sp 32 +
STACK CFI 8354 .cfa: sp 0 +
STACK CFI 835c .cfa: x29 32 +
STACK CFI INIT 878c 9c .cfa: sp 0 +
STACK CFI INIT 8828 50 .cfa: sp 0 +
STACK CFI 882c .cfa: sp 32 +
STACK CFI 8834 .cfa: x29 32 + x19: .cfa -16 + ^ .ra: .cfa -24 + ^ x29: .cfa -32 + ^
STACK CFI 884c .cfa: sp 32 +
STACK CFI 8854 .cfa: sp 0 +
STACK CFI 8858 .cfa: x29 32 +
STACK CFI 886c .cfa: sp 32 +
STACK CFI 8874 .cfa: sp 0 +
STACK CFI INIT 8878 64 .cfa: sp 0 +
STACK CFI 887c .cfa: sp 32 +
STACK CFI 8884 .cfa: x29 32 + x19: .cfa -16 + ^ .ra: .cfa -24 + ^ x29: .cfa -32 + ^
STACK CFI 88b0 .cfa: sp 32 +
STACK CFI 88b8 .cfa: sp 0 +
STACK CFI 88bc .cfa: x29 32 +
STACK CFI 88d0 .cfa: sp 32 +
STACK CFI 88d8 .cfa: sp 0 +
STACK CFI INIT 88dc 3c .cfa: sp 0 +
STACK CFI 88e0 .cfa: sp 32 +
STACK CFI 88e8 .cfa: x29 32 + x19: .cfa -16 + ^ .ra: .cfa -24 + ^ x29: .cfa -32 + ^
STACK CFI 88f4 .cfa: sp 32 +
STACK CFI 88fc .cfa: sp 0 +
STACK CFI 8900 .cfa: x29 32 +
STACK CFI 890c .cfa: sp 32 +
STACK CFI 8914 .cfa: sp 0 +
STACK CFI INIT 8918 f8 .cfa: sp 0 +
STACK CFI 891c .cfa: sp 64 +
STACK CFI 892c .cfa: x29 64 + x19: .cfa -8 + ^ x20: .cfa -16 + ^ x21: .cfa -24 + ^ x22: .cfa -32 + ^ x23: .cfa -48 + ^ .ra: .cfa -56 + ^ x29: .cfa -64 + ^
STACK CFI 8988 .cfa: sp 64 +
STACK CFI 8998 .cfa: sp 0 +
STACK CFI 899c .cfa: x29 64 +
STACK CFI 89b8 .cfa: sp 64 +
STACK CFI 89c8 .cfa: sp 0 +
STACK CFI 89cc .cfa: x29 64 +
STACK CFI 89fc .cfa: sp 64 +
STACK CFI 8a0c .cfa: sp 0 +
STACK CFI INIT 8a10 1b0 .cfa: sp 0 +
STACK CFI INIT 8bc0 3c .cfa: sp 0 +
STACK CFI 8bc4 .cfa: sp 32 +
STACK CFI 8bcc .cfa: x29 32 + x19: .cfa -16 + ^ .ra: .cfa -24 + ^ x29: .cfa -32 + ^
STACK CFI 8bd8 .cfa: sp 32 +
STACK CFI 8be0 .cfa: sp 0 +
STACK CFI 8be4 .cfa: x29 32 +
STACK CFI 8bf0 .cfa: sp 32 +
STACK CFI 8bf8 .cfa: sp 0 +
STACK CFI INIT 8bfc c .cfa: sp 0 +
STACK CFI INIT 8c08 24c .cfa: sp 0 +
STACK CFI INIT 8e54 a0 .cfa: sp 0 +
STACK CFI 8e60 .cfa: sp 32 +
STACK CFI 8eb8 .cfa: sp 0 +
STACK CFI 8ebc .cfa: sp 32 +
STACK CFI 8ec4 .cfa: sp 0 +
STACK CFI 8ec8 .cfa: sp 32 +
STACK CFI 8edc .cfa: sp 0 +
STACK CFI 8ee0 .cfa: sp 32 +
STACK CFI 8ef0 .cfa: sp 0 +
STACK CFI INIT 8ef4 38 .cfa: sp 0 +
STACK CFI 8f00 .cfa: sp 32 +
STACK CFI 8f28 .cfa: sp 0 +
STACK CFI INIT 91c0 7c .cfa: sp 0 +
STACK CFI 91c4 .cfa: sp 32 +
STACK CFI 91cc .cfa: x29 32 + x19: .cfa -16 + ^ .ra: .cfa -24 + ^ x29: .cfa -32 + ^
STACK CFI 91f8 .cfa: sp 32 +
STACK CFI 9200 .cfa: sp 0 +
STACK CFI 9204 .cfa: x29 32 +
STACK CFI 9230 .cfa: sp 32 +
STACK CFI 9238 .cfa: sp 0 +
STACK CFI INIT 928c 2c .cfa: sp 0 +
STACK CFI 9290 .cfa: sp 32 +
STACK CFI 9298 .cfa: x29 32 + x19: .cfa -16 + ^ .ra: .cfa -24 + ^ x29: .cfa -32 + ^
STACK CFI 92ac .cfa: sp 32 +
STACK CFI 92b4 .cfa: sp 0 +
STACK CFI INIT 9a78 64 .cfa: sp 0 +
STACK CFI 9a7c .cfa: sp 32 +
STACK CFI 9a84 .cfa: x29 32 + x19: .cfa -16 + ^ .ra: .cfa -24 + ^ x29: .cfa -32 + ^
STACK CFI 9aa0 .cfa: sp 32 +
STACK CFI 9aa8 .cfa: sp 0 +
STACK CFI 9aac .cfa: x29 32 +
STACK CFI 9ad0 .cfa: sp 32 +
STACK CFI 9ad8 .cfa: sp 0 +
STACK CFI INIT 9adc 570 .cfa: sp 0 +
STACK CFI 9ae0 .cfa: sp 176 +
STACK CFI 9af4 .cfa: x29 64 + x19: .cfa -8 + ^ x20: .cfa -16 + ^ x21: .cfa -24 + ^ x22: .cfa -32 + ^ x23: .cfa -40 + ^ x24: .cfa -48 + ^ .ra: .cfa -56 + ^ x29: .cfa -64 + ^
STACK CFI 9d24 .cfa: sp 176 +
STACK CFI 9d38 .cfa: sp 0 +
STACK CFI 9d3c .cfa: x29 64 +
STACK CFI 9d88 .cfa: sp 176 +
STACK CFI 9d9c .cfa: sp 0 +
STACK CFI 9da0 .cfa: x29 64 +
STACK CFI 9dd8 .cfa: sp 176 +
STACK CFI 9dec .cfa: sp 0 +
STACK CFI 9df0 .cfa: x29 64 +
STACK CFI 9e08 .cfa: sp 176 +
STACK CFI 9e1c .cfa: sp 0 +
STACK CFI 9e20 .cfa: x29 64 +
STACK CFI 9e40 .cfa: sp 176 +
STACK CFI 9e54 .cfa: sp 0 +
STACK CFI 9e58 .cfa: x29 64 +
STACK CFI 9e70 .cfa: sp 176 +
STACK CFI 9e84 .cfa: sp 0 +
STACK CFI 9e88 .cfa: x29 64 +
STACK CFI 9e9c .cfa: sp 176 +
STACK CFI 9eb0 .cfa: sp 0 +
STACK CFI 9eb4 .cfa: x29 64 +
STACK CFI 9ec8 .cfa: sp 176 +
STACK CFI 9edc .cfa: sp 0 +
STACK CFI 9ee0 .cfa: x29 64 +
STACK CFI 9ef0 .cfa: sp 176 +
STACK CFI 9f04 .cfa: sp 0 +
STACK CFI 9f08 .cfa: x29 64 +
STACK CFI 9f18 .cfa: sp 176 +
STACK CFI 9f2c .cfa: sp 0 +
STACK CFI 9f30 .cfa: x29 64 +
STACK CFI 9f48 .cfa: sp 176 +
STACK CFI 9f5c .cfa: sp 0 +
STACK CFI 9f60 .cfa: x29 64 +
STACK CFI 9f74 .cfa: sp 176 +
STACK CFI 9f88 .cfa: sp 0 +
STACK CFI 9f8c .cfa: x29 64 +
STACK CFI 9fa4 .cfa: sp 176 +
STACK CFI 9fb8 .cfa: sp 0 +
STACK CFI 9fbc .cfa: x29 64 +
STACK CFI 9fe8 .cfa: sp 176 +
STACK CFI 9ffc .cfa: sp 0 +
STACK CFI a000 .cfa: x29 64 +
STACK CFI a014 .cfa: sp 176 +
STACK CFI a028 .cfa: sp 0 +
STACK CFI a02c .cfa: x29 64 +
STACK CFI INIT a04c 228 .cfa: sp 0 +
STACK CFI INIT a274 2dc .cfa: sp 0 +
STACK CFI INIT a550 53c .cfa: sp 0 +
STACK CFI INIT aa8c 78 .cfa: sp 0 +
STACK CFI aa90 .cfa: sp 48 +
STACK CFI aa9c .cfa: x29 48 + x19: .cfa -8 + ^ x20: .cfa -16 + ^ x21: .cfa -24 + ^ x22: .cfa -32 + ^ .ra: .cfa -40 + ^ x29: .cfa -48 + ^
STACK CFI aae4 .cfa: sp 48 +
STACK CFI aaf0 .cfa: sp 0 +
STACK CFI aaf4 .cfa: sp 48 +
STACK CFI ab00 .cfa: sp 0 +
STACK CFI INIT ab04 8c .cfa: sp 0 +
STACK CFI ab08 .cfa: sp 32 +
STACK CFI ab10 .cfa: x29 32 + x19: .cfa -16 + ^ .ra: .cfa -24 + ^ x29: .cfa -32 + ^
STACK CFI ab44 .cfa: sp 32 +
STACK CFI ab4c .cfa: sp 0 +
STACK CFI ab50 .cfa: x29 32 +
STACK CFI ab84 .cfa: sp 32 +
STACK CFI ab8c .cfa: sp 0 +
STACK CFI INIT ab90 24 .cfa: sp 0 +
STACK CFI ab94 .cfa: sp 32 +
STACK CFI ab9c .cfa: x29 32 + x19: .cfa -16 + ^ .ra: .cfa -24 + ^ x29: .cfa -32 + ^
STACK CFI aba8 .cfa: sp 32 +
STACK CFI abb0 .cfa: sp 0 +
STACK CFI INIT abb4 150 .cfa: sp 0 +
STACK CFI abb8 .cfa: sp 48 +
STACK CFI abc4 .cfa: x29 48 + x19: .cfa -8 + ^ x20: .cfa -16 + ^ x21: .cfa -24 + ^ x22: .cfa -32 + ^ .ra: .cfa -40 + ^ x29: .cfa -48 + ^
STACK CFI acf4 .cfa: sp 48 +
STACK CFI ad00 .cfa: sp 0 +
STACK CFI INIT ad04 68 .cfa: sp 0 +
STACK CFI ad08 .cfa: sp 64 +
STACK CFI ad14 .cfa: x29 32 + x19: .cfa -16 + ^ .ra: .cfa -24 + ^ x29: .cfa -32 + ^
STACK CFI ad58 .cfa: sp 64 +
STACK CFI ad64 .cfa: sp 0 +
STACK CFI ad68 .cfa: x29 32 +
STACK CFI INIT ad6c 90 .cfa: sp 0 +
STACK CFI ad70 .cfa: sp 32 +
STACK CFI ad78 .cfa: x29 32 + x19: .cfa -8 + ^ x20: .cfa -16 + ^ .ra: .cfa -24 + ^ x29: .cfa -32 + ^
STACK CFI ada4 .cfa: sp 32 +
STACK CFI adac .cfa: sp 0 +
STACK CFI adb0 .cfa: x29 32 +
STACK CFI adf0 .cfa: sp 32 +
STACK CFI adf8 .cfa: sp 0 +
STACK CFI INIT adfc ec .cfa: sp 0 +
STACK CFI ae00 .cfa: sp 112 +
STACK CFI ae10 .cfa: x29 48 + x19: .cfa -8 + ^ x20: .cfa -16 + ^ x21: .cfa -32 + ^ .ra: .cfa -40 + ^ x29: .cfa -48 + ^
STACK CFI aed0 .cfa: sp 112 +
STACK CFI aee0 .cfa: sp 0 +
STACK CFI aee4 .cfa: x29 48 +
STACK CFI INIT aee8 ec .cfa: sp 0 +
STACK CFI aeec .cfa: sp 112 +
STACK CFI aefc .cfa: x29 48 + x19: .cfa -8 + ^ x20: .cfa -16 + ^ x21: .cfa -32 + ^ .ra: .cfa -40 + ^ x29: .cfa -48 + ^
STACK CFI afbc .cfa: sp 112 +
STACK CFI afcc .cfa: sp 0 +
STACK CFI afd0 .cfa: x29 48 +
STACK CFI INIT afd4 48 .cfa: sp 0 +
STACK CFI afd8 .cfa: sp 32 +
STACK CFI afe0 .cfa: x29 32 + x19: .cfa -8 + ^ x20: .cfa -16 + ^ .ra: .cfa -24 + ^ x29: .cfa -32 + ^
STACK CFI b004 .cfa: sp 32 +
STACK CFI b00c .cfa: sp 0 +
STACK CFI b010 .cfa: x29 32 +
STACK CFI INIT b01c 98 .cfa: sp 0 +
STACK CFI b020 .cfa: sp 80 +
STACK CFI b02c .cfa: x29 32 + x19: .cfa -16 + ^ .ra: .cfa -24 + ^ x29: .cfa -32 + ^
STACK CFI b0a0 .cfa: sp 80 +
STACK CFI b0ac .cfa: sp 0 +
STACK CFI b0b0 .cfa: x29 32 +
STACK CFI INIT b0b4 260 .cfa: sp 0 +
STACK CFI b0b8 .cfa: sp 112 +
STACK CFI b0d0 .cfa: x29 80 + x19: .cfa -8 + ^ x20: .cfa -16 + ^ x21: .cfa -24 + ^ x22: .cfa -32 + ^ x23: .cfa -40 + ^ x24: .cfa -48 + ^ x25: .cfa -64 + ^ .ra: .cfa -72 + ^ x29: .cfa -80 + ^
STACK CFI b2b4 .cfa: sp 112 +
STACK CFI b2cc .cfa: sp 0 +
STACK CFI b2d0 .cfa: x29 80 +
STACK CFI INIT b314 150 .cfa: sp 0 +
STACK CFI b318 .cfa: sp 48 +
STACK CFI b324 .cfa: x29 48 + x19: .cfa -8 + ^ x20: .cfa -16 + ^ x21: .cfa -24 + ^ x22: .cfa -32 + ^ .ra: .cfa -40 + ^ x29: .cfa -48 + ^
STACK CFI b454 .cfa: sp 48 +
STACK CFI b460 .cfa: sp 0 +
STACK CFI INIT b464 1e0 .cfa: sp 0 +
STACK CFI b468 .cfa: sp 96 +
STACK CFI b47c .cfa: x29 64 + x19: .cfa -8 + ^ x20: .cfa -16 + ^ x21: .cfa -24 + ^ x22: .cfa -32 + ^ x23: .cfa -40 + ^ x24: .cfa -48 + ^ .ra: .cfa -56 + ^ x29: .cfa -64 + ^
STACK CFI b5fc .cfa: sp 96 +
STACK CFI b610 .cfa: sp 0 +
STACK CFI b614 .cfa: x29 64 +
STACK CFI INIT b644 284 .cfa: sp 0 +
STACK CFI b648 .cfa: sp 112 +
STACK CFI b660 .cfa: x29 80 + x19: .cfa -8 + ^ x20: .cfa -16 + ^ x21: .cfa -24 + ^ x22: .cfa -32 + ^ x23: .cfa -40 + ^ x24: .cfa -48 + ^ x25: .cfa -64 + ^ .ra: .cfa -72 + ^ x29: .cfa -80 + ^
STACK CFI b868 .cfa: sp 112 +
STACK CFI b880 .cfa: sp 0 +
STACK CFI b884 .cfa: x29 80 +
STACK CFI INIT b8c8 208 .cfa: sp 0 +
STACK CFI b8cc .cfa: sp 96 +
STACK CFI b8e0 .cfa: x29 64 + x19: .cfa -8 + ^ x20: .cfa -16 + ^ x21: .cfa -24 + ^ x22: .cfa -32 + ^ x23: .cfa -40 + ^ x24: .cfa -48 + ^ .ra: .cfa -56 + ^ x29: .cfa -64 + ^
STACK CFI ba88 .cfa: sp 96 +
STACK CFI ba9c .cfa: sp 0 +
STACK CFI baa0 .cfa: x29 64 +
STACK CFI INIT bad0 360 .cfa: sp 0 +
STACK CFI bad4 .cfa: sp 160 +
STACK CFI baf0 .cfa: x29 96 + x19: .cfa -8 + ^ x20: .cfa -16 + ^ x21: .cfa -24 + ^ x22: .cfa -32 + ^ x23: .cfa -40 + ^ x24: .cfa -48 + ^ x25: .cfa -56 + ^ x26: .cfa -64 + ^ x27: .cfa -72 + ^ x28: .cfa -80 + ^ .ra: .cfa -88 + ^ x29: .cfa -96 + ^
STACK CFI bdbc .cfa: sp 160 +
STACK CFI bdd8 .cfa: sp 0 +
STACK CFI bddc .cfa: x29 96 +
STACK CFI INIT be30 314 .cfa: sp 0 +
STACK CFI be34 .cfa: sp 144 +
STACK CFI be50 .cfa: x29 96 + x19: .cfa -8 + ^ x20: .cfa -16 + ^ x21: .cfa -24 + ^ x22: .cfa -32 + ^ x23: .cfa -40 + ^ x24: .cfa -48 + ^ x25: .cfa -56 + ^ x26: .cfa -64 + ^ x27: .cfa -72 + ^ x28: .cfa -80 + ^ .ra: .cfa -88 + ^ x29: .cfa -96 + ^
STACK CFI c0cc .cfa: sp 144 +
STACK CFI c0e8 .cfa: sp 0 +
STACK CFI c0ec .cfa: x29 96 +
STACK CFI INIT c144 290 .cfa: sp 0 +
STACK CFI c148 .cfa: sp 128 +
STACK CFI c160 .cfa: x29 80 + x19: .cfa -8 + ^ x20: .cfa -16 + ^ x21: .cfa -24 + ^ x22: .cfa -32 + ^ x23: .cfa -40 + ^ x24: .cfa -48 + ^ x25: .cfa -56 + ^ x26: .cfa -64 + ^ .ra: .cfa -72 + ^ x29: .cfa -80 + ^
STACK CFI c3b4 .cfa: sp 128 +
STACK CFI c3cc .cfa: sp 0 +
STACK CFI c3d0 .cfa: x29 80 +
STACK CFI INIT c3d4 ddc .cfa: sp 0 +
STACK CFI c3d8 .cfa: sp 144 +
STACK CFI c3f4 .cfa: x29 96 + x19: .cfa -8 + ^ x20: .cfa -16 + ^ x21: .cfa -24 + ^ x22: .cfa -32 + ^ x23: .cfa -40 + ^ x24: .cfa -48 + ^ x25: .cfa -56 + ^ x26: .cfa -64 + ^ x27: .cfa -72 + ^ x28: .cfa -80 + ^ .ra: .cfa -88 + ^ x29: .cfa -96 + ^
STACK CFI d088 .cfa: sp 144 +
STACK CFI d0a4 .cfa: sp 0 +
STACK CFI d0a8 .cfa: x29 96 +
STACK CFI INIT d1b0 1d0 .cfa: sp 0 +
STACK CFI d1b4 .cfa: sp 80 +
STACK CFI d1c8 .cfa: x29 80 + x19: .cfa -8 + ^ x20: .cfa -16 + ^ x21: .cfa -24 + ^ x22: .cfa -32 + ^ x23: .cfa -40 + ^ x24: .cfa -48 + ^ x25: .cfa -64 + ^ .ra: .cfa -72 + ^ x29: .cfa -80 + ^
STACK CFI d368 .cfa: sp 80 +
STACK CFI d37c .cfa: sp 0 +
STACK CFI INIT d380 23c .cfa: sp 0 +
STACK CFI d384 .cfa: sp 112 +
STACK CFI d398 .cfa: x29 64 + x19: .cfa -8 + ^ x20: .cfa -16 + ^ x21: .cfa -24 + ^ x22: .cfa -32 + ^ x23: .cfa -40 + ^ x24: .cfa -48 + ^ .ra: .cfa -56 + ^ x29: .cfa -64 + ^
STACK CFI d574 .cfa: sp 112 +
STACK CFI d588 .cfa: sp 0 +
STACK CFI d58c .cfa: x29 64 +
STACK CFI INIT d5bc 30c .cfa: sp 0 +
STACK CFI d5c0 .cfa: sp 80 +
STACK CFI d5d4 .cfa: x29 64 + x19: .cfa -8 + ^ x20: .cfa -16 + ^ x21: .cfa -24 + ^ x22: .cfa -32 + ^ x23: .cfa -40 + ^ x24: .cfa -48 + ^ .ra: .cfa -56 + ^ x29: .cfa -64 + ^
STACK CFI d750 .cfa: sp 80 +
STACK CFI d764 .cfa: sp 0 +
STACK CFI d768 .cfa: x29 64 +
STACK CFI INIT d8c8 178 .cfa: sp 0 +
STACK CFI d8cc .cfa: sp 80 +
STACK CFI d8e0 .cfa: x29 64 + x19: .cfa -8 + ^ x20: .cfa -16 + ^ x21: .cfa -24 + ^ x22: .cfa -32 + ^ x23: .cfa -40 + ^ x24: .cfa -48 + ^ .ra: .cfa -56 + ^ x29: .cfa -64 + ^
STACK CFI da24 .cfa: sp 80 +
STACK CFI da38 .cfa: sp 0 +
STACK CFI da3c .cfa: x29 64 +
STACK CFI INIT da40 178 .cfa: sp 0 +
STACK CFI da44 .cfa: sp 80 +
STACK CFI da58 .cfa: x29 64 + x19: .cfa -8 + ^ x20: .cfa -16 + ^ x21: .cfa -24 + ^ x22: .cfa -32 + ^ x23: .cfa -40 + ^ x24: .cfa -48 + ^ .ra: .cfa -56 + ^ x29: .cfa -64 + ^
STACK CFI db9c .cfa: sp 80 +
STACK CFI dbb0 .cfa: sp 0 +
STACK CFI dbb4 .cfa: x29 64 +
STACK CFI INIT dbb8 240 .cfa: sp 0 +
STACK CFI dbbc .cfa: sp 96 +
STACK CFI dbd4 .cfa: x29 96 + x19: .cfa -8 + ^ x20: .cfa -16 + ^ x21: .cfa -24 + ^ x22: .cfa -32 + ^ x23: .cfa -40 + ^ x24: .cfa -48 + ^ x25: .cfa -56 + ^ x26: .cfa -64 + ^ x27: .cfa -72 + ^ x28: .cfa -80 + ^ .ra: .cfa -88 + ^ x29: .cfa -96 + ^
STACK CFI dddc .cfa: sp 96 +
STACK CFI ddf4 .cfa: sp 0 +
STACK CFI INIT ea6c 154 .cfa: sp 0 +
STACK CFI ea70 .cfa: sp 96 +
STACK CFI ea84 .cfa: x29 64 + x19: .cfa -8 + ^ x20: .cfa -16 + ^ x21: .cfa -24 + ^ x22: .cfa -32 + ^ x23: .cfa -48 + ^ .ra: .cfa -56 + ^ x29: .cfa -64 + ^
STACK CFI eb64 .cfa: sp 96 +
STACK CFI eb78 .cfa: sp 0 +
STACK CFI eb7c .cfa: x29 64 +
STACK CFI INIT ee2c 44 .cfa: sp 0 +
STACK CFI ee30 .cfa: sp 32 +
STACK CFI ee38 .cfa: x29 32 + x19: .cfa -16 + ^ .ra: .cfa -24 + ^ x29: .cfa -32 + ^
STACK CFI ee54 .cfa: sp 32 +
STACK CFI ee5c .cfa: sp 0 +
STACK CFI ee60 .cfa: x29 32 +
STACK CFI ee64 .cfa: sp 32 +
STACK CFI ee6c .cfa: sp 0 +
STACK CFI INIT ee70 1d0 .cfa: sp 0 +
STACK CFI ee74 .cfa: sp 64 +
STACK CFI ee84 .cfa: x29 64 + x19: .cfa -8 + ^ x20: .cfa -16 + ^ x21: .cfa -24 + ^ x22: .cfa -32 + ^ x23: .cfa -40 + ^ x24: .cfa -48 + ^ .ra: .cfa -56 + ^ x29: .cfa -64 + ^
STACK CFI ef44 .cfa: sp 64 +
STACK CFI ef54 .cfa: sp 0 +
STACK CFI ef58 .cfa: x29 64 +
STACK CFI INIT f040 17c .cfa: sp 0 +
STACK CFI INIT f1bc ac .cfa: sp 0 +
STACK CFI f1c0 .cfa: sp 64 +
STACK CFI f1d0 .cfa: x29 64 + x19: .cfa -8 + ^ x20: .cfa -16 + ^ x21: .cfa -24 + ^ x22: .cfa -32 + ^ x23: .cfa -48 + ^ .ra: .cfa -56 + ^ x29: .cfa -64 + ^
STACK CFI f24c .cfa: sp 64 +
STACK CFI f25c .cfa: sp 0 +
STACK CFI f260 .cfa: x29 64 +
STACK CFI INIT f268 110 .cfa: sp 0 +
STACK CFI f26c .cfa: sp 64 +
STACK CFI f27c .cfa: x29 64 + x19: .cfa -8 + ^ x20: .cfa -16 + ^ x21: .cfa -24 + ^ x22: .cfa -32 + ^ x23: .cfa -40 + ^ x24: .cfa -48 + ^ .ra: .cfa -56 + ^ x29: .cfa -64 + ^
STACK CFI f35c .cfa: sp 64 +
STACK CFI f36c .cfa: sp 0 +
STACK CFI f370 .cfa: x29 64 +
STACK CFI INIT f730 a0 .cfa: sp 0 +
STACK CFI f734 .cfa: sp 48 +
STACK CFI f740 .cfa: x29 48 + x19: .cfa -8 + ^ x20: .cfa -16 + ^ x21: .cfa -24 + ^ x22: .cfa -32 + ^ .ra: .cfa -40 + ^ x29: .cfa -48 + ^
STACK CFI f7ac .cfa: sp 48 +
STACK CFI f7b8 .cfa: sp 0 +
STACK CFI f7bc .cfa: sp 48 +
STACK CFI f7c8 .cfa: sp 0 +
STACK CFI f7cc .cfa: x29 48 +
STACK CFI INIT 10484 158 .cfa: sp 0 +
STACK CFI 10488 .cfa: sp 96 +
STACK CFI 1049c .cfa: x29 64 + x19: .cfa -8 + ^ x20: .cfa -16 + ^ x21: .cfa -24 + ^ x22: .cfa -32 + ^ x23: .cfa -48 + ^ .ra: .cfa -56 + ^ x29: .cfa -64 + ^
STACK CFI 10580 .cfa: sp 96 +
STACK CFI 10594 .cfa: sp 0 +
STACK CFI 10598 .cfa: x29 64 +
STACK CFI INIT 105dc 190 .cfa: sp 0 +
STACK CFI INIT 11268 1dc .cfa: sp 0 +
STACK CFI 1126c .cfa: sp 80 +
STACK CFI 11280 .cfa: x29 80 + x19: .cfa -8 + ^ x20: .cfa -16 + ^ x21: .cfa -24 + ^ x22: .cfa -32 + ^ x23: .cfa -40 + ^ x24: .cfa -48 + ^ x25: .cfa -64 + ^ .ra: .cfa -72 + ^ x29: .cfa -80 + ^
STACK CFI 1142c .cfa: sp 80 +
STACK CFI 11440 .cfa: sp 0 +
STACK CFI INIT 12874 124 .cfa: sp 0 +
STACK CFI 128a4 .cfa: sp 32 +
STACK CFI 128ac .cfa: x29 32 + x19: .cfa -8 + ^ x20: .cfa -16 + ^ .ra: .cfa -24 + ^ x29: .cfa -32 + ^
STACK CFI 1298c .cfa: sp 32 +
STACK CFI 12994 .cfa: sp 0 +
STACK CFI INIT 130f4 320 .cfa: sp 0 +
STACK CFI 130f8 .cfa: sp 64 +
STACK CFI 13108 .cfa: x29 64 + x19: .cfa -8 + ^ x20: .cfa -16 + ^ x21: .cfa -24 + ^ x22: .cfa -32 + ^ x23: .cfa -40 + ^ x24: .cfa -48 + ^ .ra: .cfa -56 + ^ x29: .cfa -64 + ^
STACK CFI 13184 .cfa: sp 64 +
STACK CFI 13194 .cfa: sp 0 +
STACK CFI 13198 .cfa: x29 64 +
STACK CFI 1336c .cfa: sp 64 +
STACK CFI 1337c .cfa: sp 0 +
STACK CFI 13380 .cfa: x29 64 +
STACK CFI 13390 .cfa: sp 64 +
STACK CFI 133a0 .cfa: sp 0 +
STACK CFI 133a4 .cfa: x29 64 +
STACK CFI INIT 13414 a0 .cfa: sp 0 +
STACK CFI 13418 .cfa: sp 48 +
STACK CFI 13424 .cfa: x29 48 + x19: .cfa -8 + ^ x20: .cfa -16 + ^ x21: .cfa -24 + ^ x22: .cfa -32 + ^ .ra: .cfa -40 + ^ x29: .cfa -48 + ^
STACK CFI 13490 .cfa: sp 48 +
STACK CFI 1349c .cfa: sp 0 +
STACK CFI 134a0 .cfa: sp 48 +
STACK CFI 134ac .cfa: sp 0 +
STACK CFI 134b0 .cfa: x29 48 +
STACK CFI INIT 14364 160 .cfa: sp 0 +
STACK CFI 14368 .cfa: sp 64 +
STACK CFI 14378 .cfa: x29 64 + x19: .cfa -8 + ^ x20: .cfa -16 + ^ x21: .cfa -24 + ^ x22: .cfa -32 + ^ x23: .cfa -48 + ^ .ra: .cfa -56 + ^ x29: .cfa -64 + ^
STACK CFI 14470 .cfa: sp 64 +
STACK CFI 14480 .cfa: sp 0 +
STACK CFI 14484 .cfa: x29 64 +
STACK CFI INIT 144c4 214 .cfa: sp 0 +
STACK CFI 144c8 .cfa: sp 128 +
STACK CFI 144e4 .cfa: x29 96 + x19: .cfa -8 + ^ x20: .cfa -16 + ^ x21: .cfa -24 + ^ x22: .cfa -32 + ^ x23: .cfa -40 + ^ x24: .cfa -48 + ^ x25: .cfa -56 + ^ x26: .cfa -64 + ^ x27: .cfa -80 + ^ .ra: .cfa -88 + ^ x29: .cfa -96 + ^
STACK CFI 14660 .cfa: sp 128 +
STACK CFI 1467c .cfa: sp 0 +
STACK CFI 14680 .cfa: x29 96 +
STACK CFI INIT 16374 290 .cfa: sp 0 +
STACK CFI 16378 .cfa: sp 16 +
STACK CFI 1637c .cfa: x29 16 + .ra: .cfa -8 + ^ x29: .cfa -16 + ^
STACK CFI 16408 .cfa: sp 16 +
STACK CFI 1640c .cfa: sp 0 +
STACK CFI 16410 .cfa: x29 16 +
STACK CFI 16460 .cfa: sp 16 +
STACK CFI 16464 .cfa: sp 0 +
STACK CFI 16468 .cfa: x29 16 +
STACK CFI 165cc .cfa: sp 16 +
STACK CFI 165d0 .cfa: sp 0 +
STACK CFI 165d4 .cfa: x29 16 +
STACK CFI INIT 16604 158 .cfa: sp 0 +
STACK CFI 16608 .cfa: sp 112 +
STACK CFI 16624 .cfa: x29 96 + x19: .cfa -8 + ^ x20: .cfa -16 + ^ x21: .cfa -24 + ^ x22: .cfa -32 + ^ x23: .cfa -40 + ^ x24: .cfa -48 + ^ x25: .cfa -56 + ^ x26: .cfa -64 + ^ x27: .cfa -72 + ^ x28: .cfa -80 + ^ .ra: .cfa -88 + ^ x29: .cfa -96 + ^
STACK CFI 1670c .cfa: sp 112 +
STACK CFI 16710 .cfa: x29 96 +
STACK CFI 16718 .cfa: sp 112 +
STACK CFI 16734 .cfa: sp 0 +
STACK CFI 16738 .cfa: x29 96 +
STACK CFI 16758 .cfa: sp 112 +
STACK CFI INIT 1675c e54 .cfa: sp 0 +
STACK CFI 16760 .cfa: sp 192 +
STACK CFI 1677c .cfa: x29 96 + x19: .cfa -8 + ^ x20: .cfa -16 + ^ x21: .cfa -24 + ^ x22: .cfa -32 + ^ x23: .cfa -40 + ^ x24: .cfa -48 + ^ x25: .cfa -56 + ^ x26: .cfa -64 + ^ x27: .cfa -72 + ^ x28: .cfa -80 + ^ .ra: .cfa -88 + ^ x29: .cfa -96 + ^
STACK CFI 17498 .cfa: sp 192 +
STACK CFI 174b4 .cfa: sp 0 +
STACK CFI 174b8 .cfa: x29 96 +
STACK CFI INIT 175b0 1068 .cfa: sp 0 +
STACK CFI 175b4 .cfa: sp 288 +
STACK CFI 175d0 .cfa: x29 96 + x19: .cfa -8 + ^ x20: .cfa -16 + ^ x21: .cfa -24 + ^ x22: .cfa -32 + ^ x23: .cfa -40 + ^ x24: .cfa -48 + ^ x25: .cfa -56 + ^ x26: .cfa -64 + ^ x27: .cfa -72 + ^ x28: .cfa -80 + ^ .ra: .cfa -88 + ^ x29: .cfa -96 + ^
STACK CFI 18360 .cfa: sp 288 +
STACK CFI 1837c .cfa: sp 0 +
STACK CFI 18380 .cfa: x29 96 +
STACK CFI INIT 18618 520 .cfa: sp 0 +
STACK CFI 1861c .cfa: sp 144 +
STACK CFI 18638 .cfa: x29 96 + x19: .cfa -8 + ^ x20: .cfa -16 + ^ x21: .cfa -24 + ^ x22: .cfa -32 + ^ x23: .cfa -40 + ^ x24: .cfa -48 + ^ x25: .cfa -56 + ^ x26: .cfa -64 + ^ x27: .cfa -72 + ^ x28: .cfa -80 + ^ .ra: .cfa -88 + ^ x29: .cfa -96 + ^
STACK CFI 18b14 .cfa: sp 144 +
STACK CFI 18b30 .cfa: sp 0 +
STACK CFI 18b34 .cfa: x29 96 +
STACK CFI INIT 194d8 136c .cfa: sp 0 +
STACK CFI 194dc .cfa: sp 224 +
STACK CFI 194f8 .cfa: x29 96 + x19: .cfa -8 + ^ x20: .cfa -16 + ^ x21: .cfa -24 + ^ x22: .cfa -32 + ^ x23: .cfa -40 + ^ x24: .cfa -48 + ^ x25: .cfa -56 + ^ x26: .cfa -64 + ^ x27: .cfa -72 + ^ x28: .cfa -80 + ^ .ra: .cfa -88 + ^ x29: .cfa -96 + ^
STACK CFI 1a820 .cfa: sp 224 +
STACK CFI 1a83c .cfa: sp 0 +
STACK CFI 1a840 .cfa: x29 96 +
STACK CFI INIT 1a844 1b8 .cfa: sp 0 +
STACK CFI INIT 6640 bd4 .cfa: sp 0 +
STACK CFI 6644 .cfa: sp 240 +
STACK CFI 6660 .cfa: x29 96 + x19: .cfa -8 + ^ x20: .cfa -16 + ^ x21: .cfa -24 + ^ x22: .cfa -32 + ^ x23: .cfa -40 + ^ x24: .cfa -48 + ^ x25: .cfa -56 + ^ x26: .cfa -64 + ^ x27: .cfa -72 + ^ x28: .cfa -80 + ^ .ra: .cfa -88 + ^ x29: .cfa -96 + ^
STACK CFI 6a3c .cfa: sp 240 +
STACK CFI 6a58 .cfa: sp 0 +
STACK CFI 6a5c .cfa: x29 96 +
STACK CFI 70bc .cfa: sp 240 +
STACK CFI 70d8 .cfa: sp 0 +
STACK CFI 70dc .cfa: x29 96 +
STACK CFI INIT 722c 408 .cfa: sp 0 +
STACK CFI 7230 .cfa: sp 208 +
STACK CFI 724c .cfa: x29 96 + x19: .cfa -8 + ^ x20: .cfa -16 + ^ x21: .cfa -24 + ^ x22: .cfa -32 + ^ x23: .cfa -40 + ^ x24: .cfa -48 + ^ x25: .cfa -56 + ^ x26: .cfa -64 + ^ x27: .cfa -80 + ^ .ra: .cfa -88 + ^ x29: .cfa -96 + ^
STACK CFI 7520 .cfa: sp 208 +
STACK CFI 753c .cfa: sp 0 +
STACK CFI 7540 .cfa: x29 96 +
STACK CFI INIT 7684 74 .cfa: sp 0 +
STACK CFI 7688 .cfa: sp 48 +
STACK CFI 7694 .cfa: x29 32 + x19: .cfa -8 + ^ x20: .cfa -16 + ^ .ra: .cfa -24 + ^ x29: .cfa -32 + ^
STACK CFI 76e0 .cfa: sp 48 +
STACK CFI 76ec .cfa: sp 0 +
STACK CFI 76f0 .cfa: x29 32 +
STACK CFI INIT 7788 154 .cfa: sp 0 +
STACK CFI 778c .cfa: sp 384 +
STACK CFI 77a0 .cfa: x29 64 + x19: .cfa -8 + ^ x20: .cfa -16 + ^ x21: .cfa -24 + ^ x22: .cfa -32 + ^ x23: .cfa -40 + ^ x28: .cfa -48 + ^ .ra: .cfa -56 + ^ x29: .cfa -64 + ^
STACK CFI 7884 .cfa: sp 384 +
STACK CFI 7898 .cfa: sp 0 +
STACK CFI 789c .cfa: x29 64 +
STACK CFI INIT 7910 12c .cfa: sp 0 +
STACK CFI 7914 .cfa: sp 80 +
STACK CFI 7928 .cfa: x29 80 + x19: .cfa -8 + ^ x20: .cfa -16 + ^ x21: .cfa -24 + ^ x22: .cfa -32 + ^ x23: .cfa -40 + ^ x24: .cfa -48 + ^ x25: .cfa -56 + ^ x26: .cfa -64 + ^ .ra: .cfa -72 + ^ x29: .cfa -80 + ^
STACK CFI 79f0 .cfa: sp 80 +
STACK CFI 7a04 .cfa: sp 0 +
STACK CFI 7a08 .cfa: x29 80 +
STACK CFI INIT 7ae0 1a4 .cfa: sp 0 +
STACK CFI 7ae4 .cfa: sp 112 +
STACK CFI 7afc .cfa: x29 80 + x19: .cfa -8 + ^ x20: .cfa -16 + ^ x21: .cfa -24 + ^ x22: .cfa -32 + ^ x23: .cfa -40 + ^ x24: .cfa -48 + ^ x25: .cfa -56 + ^ x26: .cfa -64 + ^ .ra: .cfa -72 + ^ x29: .cfa -80 + ^
STACK CFI 7bec .cfa: sp 112 +
STACK CFI 7c04 .cfa: sp 0 +
STACK CFI 7c08 .cfa: x29 80 +
STACK CFI INIT 7c84 1dc .cfa: sp 0 +
STACK CFI 7c88 .cfa: sp 128 +
STACK CFI 7ca4 .cfa: x29 96 + x19: .cfa -8 + ^ x20: .cfa -16 + ^ x21: .cfa -24 + ^ x22: .cfa -32 + ^ x23: .cfa -40 + ^ x24: .cfa -48 + ^ x25: .cfa -56 + ^ x26: .cfa -64 + ^ x27: .cfa -80 + ^ .ra: .cfa -88 + ^ x29: .cfa -96 + ^
STACK CFI 7e10 .cfa: sp 128 +
STACK CFI 7e2c .cfa: sp 0 +
STACK CFI 7e30 .cfa: x29 96 +
STACK CFI INIT 7e74 50 .cfa: sp 0 +
STACK CFI 7e78 .cfa: sp 32 +
STACK CFI 7e80 .cfa: x29 32 + x19: .cfa -8 + ^ x20: .cfa -16 + ^ .ra: .cfa -24 + ^ x29: .cfa -32 + ^
STACK CFI INIT 7f28 178 .cfa: sp 0 +
STACK CFI 7f2c .cfa: sp 80 +
STACK CFI 7f40 .cfa: x29 80 + x19: .cfa -8 + ^ x20: .cfa -16 + ^ x21: .cfa -24 + ^ x22: .cfa -32 + ^ x23: .cfa -40 + ^ x24: .cfa -48 + ^ x25: .cfa -64 + ^ .ra: .cfa -72 + ^ x29: .cfa -80 + ^
STACK CFI 806c .cfa: sp 80 +
STACK CFI 8080 .cfa: sp 0 +
STACK CFI 8084 .cfa: x29 80 +
STACK CFI INIT 8380 364 .cfa: sp 0 +
STACK CFI 8384 .cfa: sp 96 +
STACK CFI 839c .cfa: x29 96 + x19: .cfa -8 + ^ x20: .cfa -16 + ^ x21: .cfa -24 + ^ x22: .cfa -32 + ^ x23: .cfa -40 + ^ x24: .cfa -48 + ^ x25: .cfa -56 + ^ x26: .cfa -64 + ^ x28: .cfa -80 + ^ .ra: .cfa -88 + ^ x29: .cfa -96 + ^
STACK CFI 8680 .cfa: sp 96 +
STACK CFI 8698 .cfa: sp 0 +
STACK CFI 869c .cfa: x29 96 +
STACK CFI INIT 86e4 a8 .cfa: sp 0 +
STACK CFI 86e8 .cfa: sp 32 +
STACK CFI 86f0 .cfa: x29 32 + x19: .cfa -16 + ^ .ra: .cfa -24 + ^ x29: .cfa -32 + ^
STACK CFI 8724 .cfa: sp 32 +
STACK CFI 872c .cfa: sp 0 +
STACK CFI 8730 .cfa: x29 32 +
STACK CFI 8734 .cfa: sp 32 +
STACK CFI 873c .cfa: sp 0 +
STACK CFI 8740 .cfa: x29 32 +
STACK CFI INIT 8f2c 294 .cfa: sp 0 +
STACK CFI 8f30 .cfa: sp 240 +
STACK CFI 8f48 .cfa: x29 80 + x19: .cfa -8 + ^ x20: .cfa -16 + ^ x21: .cfa -24 + ^ x22: .cfa -32 + ^ x23: .cfa -40 + ^ x24: .cfa -48 + ^ x25: .cfa -64 + ^ .ra: .cfa -72 + ^ x29: .cfa -80 + ^
STACK CFI 90e8 .cfa: sp 240 +
STACK CFI 9100 .cfa: sp 0 +
STACK CFI 9104 .cfa: x29 80 +
STACK CFI INIT 923c 50 .cfa: sp 0 +
STACK CFI 9240 .cfa: sp 32 +
STACK CFI 9248 .cfa: x29 32 + x19: .cfa -8 + ^ x20: .cfa -16 + ^ .ra: .cfa -24 + ^ x29: .cfa -32 + ^
STACK CFI INIT 92b8 7c0 .cfa: sp 0 +
STACK CFI 92bc .cfa: sp 320 +
STACK CFI 92d8 .cfa: x29 96 + x19: .cfa -8 + ^ x20: .cfa -16 + ^ x21: .cfa -24 + ^ x22: .cfa -32 + ^ x23: .cfa -40 + ^ x24: .cfa -48 + ^ x25: .cfa -56 + ^ x26: .cfa -64 + ^ x27: .cfa -72 + ^ x28: .cfa -80 + ^ .ra: .cfa -88 + ^ x29: .cfa -96 + ^
STACK CFI 9928 .cfa: sp 320 +
STACK CFI 9944 .cfa: sp 0 +
STACK CFI 9948 .cfa: x29 96 +
STACK CFI INIT ddf8 c74 .cfa: sp 0 +
STACK CFI ddfc .cfa: sp 96 +
STACK CFI de14 .cfa: x29 96 + x19: .cfa -8 + ^ x20: .cfa -16 + ^ x21: .cfa -24 + ^ x22: .cfa -32 + ^ x23: .cfa -40 + ^ x24: .cfa -48 + ^ x25: .cfa -56 + ^ x26: .cfa -64 + ^ x27: .cfa -72 + ^ x28: .cfa -80 + ^ .ra: .cfa -88 + ^ x29: .cfa -96 + ^
STACK CFI e88c .cfa: sp 96 +
STACK CFI e8a4 .cfa: sp 0 +
STACK CFI e8a8 .cfa: x29 96 +
STACK CFI INIT ebc0 26c .cfa: sp 0 +
STACK CFI ebc4 .cfa: sp 128 +
STACK CFI ebd4 .cfa: x29 48 + x19: .cfa -8 + ^ x20: .cfa -16 + ^ x21: .cfa -24 + ^ x22: .cfa -32 + ^ .ra: .cfa -40 + ^ x29: .cfa -48 + ^
STACK CFI ed78 .cfa: sp 128 +
STACK CFI ed88 .cfa: sp 0 +
STACK CFI ed8c .cfa: x29 48 +
STACK CFI INIT f378 3b8 .cfa: sp 0 +
STACK CFI f37c .cfa: sp 96 +
STACK CFI f394 .cfa: x29 96 + x19: .cfa -8 + ^ x20: .cfa -16 + ^ x21: .cfa -24 + ^ x22: .cfa -32 + ^ x23: .cfa -40 + ^ x24: .cfa -48 + ^ x25: .cfa -56 + ^ x26: .cfa -64 + ^ x27: .cfa -72 + ^ x28: .cfa -80 + ^ .ra: .cfa -88 + ^ x29: .cfa -96 + ^
STACK CFI f6d0 .cfa: sp 96 +
STACK CFI f6e8 .cfa: sp 0 +
STACK CFI f6ec .cfa: x29 96 +
STACK CFI INIT f7d0 cb4 .cfa: sp 0 +
STACK CFI f7d4 .cfa: sp 96 +
STACK CFI f7ec .cfa: x29 96 + x19: .cfa -8 + ^ x20: .cfa -16 + ^ x21: .cfa -24 + ^ x22: .cfa -32 + ^ x23: .cfa -40 + ^ x24: .cfa -48 + ^ x25: .cfa -56 + ^ x26: .cfa -64 + ^ x27: .cfa -72 + ^ x28: .cfa -80 + ^ .ra: .cfa -88 + ^ x29: .cfa -96 + ^
STACK CFI 10294 .cfa: sp 96 +
STACK CFI 102ac .cfa: sp 0 +
STACK CFI 102b0 .cfa: x29 96 +
STACK CFI INIT 1076c afc .cfa: sp 0 +
STACK CFI 10770 .cfa: sp 96 +
STACK CFI 10788 .cfa: x29 96 + x19: .cfa -8 + ^ x20: .cfa -16 + ^ x21: .cfa -24 + ^ x22: .cfa -32 + ^ x23: .cfa -40 + ^ x24: .cfa -48 + ^ x25: .cfa -56 + ^ x26: .cfa -64 + ^ x27: .cfa -72 + ^ x28: .cfa -80 + ^ .ra: .cfa -88 + ^ x29: .cfa -96 + ^
STACK CFI 111dc .cfa: sp 96 +
STACK CFI 111f4 .cfa: sp 0 +
STACK CFI 111f8 .cfa: x29 96 +
STACK CFI INIT 11444 1430 .cfa: sp 0 +
STACK CFI 11448 .cfa: sp 96 +
STACK CFI 11460 .cfa: x29 96 + x19: .cfa -8 + ^ x20: .cfa -16 + ^ x21: .cfa -24 + ^ x22: .cfa -32 + ^ x23: .cfa -40 + ^ x24: .cfa -48 + ^ x25: .cfa -56 + ^ x26: .cfa -64 + ^ x27: .cfa -72 + ^ x28: .cfa -80 + ^ .ra: .cfa -88 + ^ x29: .cfa -96 + ^
STACK CFI 126fc .cfa: sp 96 +
STACK CFI 12714 .cfa: sp 0 +
STACK CFI 12718 .cfa: x29 96 +
STACK CFI INIT 12998 75c .cfa: sp 0 +
STACK CFI 1299c .cfa: sp 368 +
STACK CFI 129b8 .cfa: x29 96 + x19: .cfa -8 + ^ x20: .cfa -16 + ^ x21: .cfa -24 + ^ x22: .cfa -32 + ^ x23: .cfa -40 + ^ x24: .cfa -48 + ^ x25: .cfa -56 + ^ x26: .cfa -64 + ^ x27: .cfa -72 + ^ x28: .cfa -80 + ^ .ra: .cfa -88 + ^ x29: .cfa -96 + ^
STACK CFI 12a6c .cfa: sp 368 +
STACK CFI 12a88 .cfa: sp 0 +
STACK CFI 12a8c .cfa: x29 96 +
STACK CFI 12ae0 .cfa: sp 368 +
STACK CFI 12afc .cfa: sp 0 +
STACK CFI 12b00 .cfa: x29 96 +
STACK CFI INIT 134b4 eb0 .cfa: sp 0 +
STACK CFI 134b8 .cfa: sp 96 +
STACK CFI 134d0 .cfa: x29 96 + x19: .cfa -8 + ^ x20: .cfa -16 + ^ x21: .cfa -24 + ^ x22: .cfa -32 + ^ x23: .cfa -40 + ^ x24: .cfa -48 + ^ x25: .cfa -56 + ^ x26: .cfa -64 + ^ x27: .cfa -72 + ^ x28: .cfa -80 + ^ .ra: .cfa -88 + ^ x29: .cfa -96 + ^
STACK CFI 14178 .cfa: sp 96 +
STACK CFI 14190 .cfa: sp 0 +
STACK CFI 14194 .cfa: x29 96 +
STACK CFI INIT 146d8 1c9c .cfa: sp 0 +
STACK CFI 146dc .cfa: sp 112 +
STACK CFI 146f8 .cfa: x29 96 + x19: .cfa -8 + ^ x20: .cfa -16 + ^ x21: .cfa -24 + ^ x22: .cfa -32 + ^ x23: .cfa -40 + ^ x24: .cfa -48 + ^ x25: .cfa -56 + ^ x26: .cfa -64 + ^ x27: .cfa -72 + ^ x28: .cfa -80 + ^ .ra: .cfa -88 + ^ x29: .cfa -96 + ^ v8: .cfa -112 + ^
STACK CFI 14ae0 .cfa: sp 112 +
STACK CFI 14afc .cfa: sp 0 +
STACK CFI 14b00 .cfa: x29 96 +
STACK CFI INIT 18b38 9a0 .cfa: sp 0 +
STACK CFI 18b3c .cfa: sp 144 +
STACK CFI 18b54 .cfa: x29 80 + x19: .cfa -8 + ^ x20: .cfa -16 + ^ x21: .cfa -24 + ^ x22: .cfa -32 + ^ x23: .cfa -40 + ^ x24: .cfa -48 + ^ x25: .cfa -64 + ^ .ra: .cfa -72 + ^ x29: .cfa -80 + ^
STACK CFI 19454 .cfa: sp 144 +
STACK CFI 1946c .cfa: sp 0 +
STACK CFI 19470 .cfa: x29 80 +
STACK CFI INIT 1a9fc 57c .cfa: sp 0 +
STACK CFI 1aa00 .cfa: sp 96 +
STACK CFI 1aa18 .cfa: x29 96 + x19: .cfa -8 + ^ x20: .cfa -16 + ^ x21: .cfa -24 + ^ x22: .cfa -32 + ^ x23: .cfa -40 + ^ x24: .cfa -48 + ^ x25: .cfa -56 + ^ x26: .cfa -64 + ^ x27: .cfa -72 + ^ x28: .cfa -80 + ^ .ra: .cfa -88 + ^ x29: .cfa -96 + ^
STACK CFI 1aedc .cfa: sp 96 +
STACK CFI 1aef4 .cfa: sp 0 +
STACK CFI 1aef8 .cfa: x29 96 +
STACK CFI INIT 1af78 67c .cfa: sp 0 +
STACK CFI 1af7c .cfa: sp 96 +
STACK CFI 1af94 .cfa: x29 96 + x19: .cfa -8 + ^ x20: .cfa -16 + ^ x21: .cfa -24 + ^ x22: .cfa -32 + ^ x23: .cfa -40 + ^ x24: .cfa -48 + ^ x25: .cfa -56 + ^ x26: .cfa -64 + ^ x27: .cfa -72 + ^ x28: .cfa -80 + ^ .ra: .cfa -88 + ^ x29: .cfa -96 + ^
STACK CFI 1b558 .cfa: sp 96 +
STACK CFI 1b570 .cfa: sp 0 +
STACK CFI 1b574 .cfa: x29 96 +
