MODULE Linux arm64 E06CE1338B2E9963BEE65A1A2FF5BAB00 geode.node-ids.android64.so
INFO CODE_ID 33E16CE02E8B6399BEE65A1A2FF5BAB0C8807B8B
INFO GENERATOR mozilla/dump_syms 2.3.4
PUBLIC 32240 0 __on_dlclose
PUBLIC 32250 0 __emutls_unregister_key
PUBLIC 32258 0 __on_dlclose_late
PUBLIC 32260 0 __atexit_handler_wrapper
PUBLIC 32274 0 atexit
PUBLIC 32290 0 pthread_atfork
PUBLIC 322a0 0 __aarch64_ldadd8_relax
PUBLIC 322d0 0 init_have_lse_atomics
PUBLIC 32368 0 __init_cpu_features_constructor
PUBLIC 32904 0 __init_cpu_features
PUBLIC 32990 0 __aarch64_ldadd8_acq_rel
PUBLIC 329c0 0 _ZN5geode8node_ids9setIDSafeIN7cocos2d6CCNodeEQsr3stdE12is_base_of_vIS3_T_EEEPS4_PS3_iPKc
PUBLIC 32b40 0 __cxx_global_var_init.12
PUBLIC 331ac 0 geode::modifier::ModifyBase<geode::modifier::ModifyDerive<ChallengeNodeIDs, ChallengeNode> >::~ModifyBase()
PUBLIC 331c8 0 geode::modifier::FieldIntermediate<ChallengeNodeIDs, ChallengeNode>::self()
PUBLIC 33350 0 geode::modifier::FieldContainer::getField(unsigned long)
PUBLIC 33608 0 geode::modifier::FieldContainer::setField(unsigned long, unsigned long, std::__ndk1::function<void (void*)>)
PUBLIC 3371c 0 geode::modifier::FieldIntermediate<ChallengeNodeIDs, ChallengeNode>::fieldDestructor(void*)
PUBLIC 33720 0 std::__ndk1::vector<void*, std::__ndk1::allocator<void*> >::__throw_length_error[abi:ne180000]() const
PUBLIC 33734 0 __clang_call_terminate
PUBLIC 33744 0 std::__ndk1::__throw_length_error[abi:ne180000](char const*)
PUBLIC 33794 0 std::length_error::length_error[abi:ne180000](char const*)
PUBLIC 337c4 0 std::__throw_bad_array_new_length([abi:ne180000], void)
PUBLIC 337f8 0 std::__ndk1::vector<std::__ndk1::function<void (void*)>, std::__ndk1::allocator<std::__ndk1::function<void (void*)> > >::__push_back_slow_path<std::__ndk1::function<void (void*)> >(std::__ndk1::function<void (void*)>&&)
PUBLIC 33a24 0 std::__ndk1::vector<std::__ndk1::function<void (void*)>, std::__ndk1::allocator<std::__ndk1::function<void (void*)> > >::__throw_length_error[abi:ne180000]() const
PUBLIC 33a38 0 std::__ndk1::vector<void*, std::__ndk1::allocator<void*> >::__throw_out_of_range[abi:ne180000]() const
PUBLIC 33a4c 0 std::__ndk1::__throw_out_of_range[abi:ne180000](char const*)
PUBLIC 33a9c 0 std::out_of_range::out_of_range[abi:ne180000](char const*)
PUBLIC 33acc 0 std::__ndk1::vector<std::__ndk1::function<void (void*)>, std::__ndk1::allocator<std::__ndk1::function<void (void*)> > >::__throw_out_of_range[abi:ne180000]() const
PUBLIC 33ae0 0 std::__ndk1::__function::__base<void (void*)>::~__base()
PUBLIC 33ae4 0 std::__ndk1::__function::__func<void (*)(void*), std::__ndk1::allocator<void (*)(void*)>, void (void*)>::~__func()
PUBLIC 33ae8 0 std::__ndk1::__function::__func<void (*)(void*), std::__ndk1::allocator<void (*)(void*)>, void (void*)>::__clone() const
PUBLIC 33b20 0 std::__ndk1::__function::__func<void (*)(void*), std::__ndk1::allocator<void (*)(void*)>, void (void*)>::__clone(std::__ndk1::__function::__base<void (void*)>*) const
PUBLIC 33b38 0 std::__ndk1::__function::__func<void (*)(void*), std::__ndk1::allocator<void (*)(void*)>, void (void*)>::destroy()
PUBLIC 33b3c 0 std::__ndk1::__function::__func<void (*)(void*), std::__ndk1::allocator<void (*)(void*)>, void (void*)>::destroy_deallocate()
PUBLIC 33b40 0 std::__ndk1::__function::__func<void (*)(void*), std::__ndk1::allocator<void (*)(void*)>, void (void*)>::operator()(void*&&)
PUBLIC 33b50 0 std::__ndk1::__function::__func<void (*)(void*), std::__ndk1::allocator<void (*)(void*)>, void (void*)>::target(std::type_info const&) const
PUBLIC 33b6c 0 std::__ndk1::__function::__func<void (*)(void*), std::__ndk1::allocator<void (*)(void*)>, void (void*)>::target_type() const
PUBLIC 33b78 0 geode::modifier::ModifyDerive<ChallengeNodeIDs, ChallengeNode>::apply()
PUBLIC 33f30 0 std::__ndk1::shared_ptr<geode::Hook>::~shared_ptr[abi:ne180000]()
PUBLIC 33f80 0 geode::impl::ResultData<geode::Hook*, std::__ndk1::basic_string<char, std::__ndk1::char_traits<char>, std::__ndk1::allocator<char> > >::~ResultData()
PUBLIC 33ff4 0 std::__ndk1::vector<std::__ndk1::basic_string<char, std::__ndk1::char_traits<char>, std::__ndk1::allocator<char> >, std::__ndk1::allocator<std::__ndk1::basic_string<char, std::__ndk1::char_traits<char>, std::__ndk1::allocator<char> > > >::~vector[abi:ne180000]()
PUBLIC 34070 0 geode::modifier::ModifyBase<geode::modifier::ModifyDerive<ChallengeNodeIDs, ChallengeNode> >::apply()
PUBLIC 34074 0 std::__ndk1::basic_string<char, std::__ndk1::char_traits<char>, std::__ndk1::allocator<char> >::__throw_length_error[abi:ne180000]() const
PUBLIC 34088 0 std::__ndk1::__tree<std::__ndk1::__value_type<std::__ndk1::basic_string<char, std::__ndk1::char_traits<char>, std::__ndk1::allocator<char> >, std::__ndk1::shared_ptr<geode::Hook> >, std::__ndk1::__map_value_compare<std::__ndk1::basic_string<char, std::__ndk1::char_traits<char>, std::__ndk1::allocator<char> >, std::__ndk1::__value_type<std::__ndk1::basic_string<char, std::__ndk1::char_traits<char>, std::__ndk1::allocator<char> >, std::__ndk1::shared_ptr<geode::Hook> >, std::__ndk1::less<std::__ndk1::basic_string<char, std::__ndk1::char_traits<char>, std::__ndk1::allocator<char> > >, true>, std::__ndk1::allocator<std::__ndk1::__value_type<std::__ndk1::basic_string<char, std::__ndk1::char_traits<char>, std::__ndk1::allocator<char> >, std::__ndk1::shared_ptr<geode::Hook> > > >::find<std::__ndk1::basic_string<char, std::__ndk1::char_traits<char>, std::__ndk1::allocator<char> > >(std::__ndk1::basic_string<char, std::__ndk1::char_traits<char>, std::__ndk1::allocator<char> > const&)
PUBLIC 341a8 0 std::__ndk1::__tree<std::__ndk1::__value_type<std::__ndk1::basic_string<char, std::__ndk1::char_traits<char>, std::__ndk1::allocator<char> >, std::__ndk1::shared_ptr<geode::Hook> >, std::__ndk1::__map_value_compare<std::__ndk1::basic_string<char, std::__ndk1::char_traits<char>, std::__ndk1::allocator<char> >, std::__ndk1::__value_type<std::__ndk1::basic_string<char, std::__ndk1::char_traits<char>, std::__ndk1::allocator<char> >, std::__ndk1::shared_ptr<geode::Hook> >, std::__ndk1::less<std::__ndk1::basic_string<char, std::__ndk1::char_traits<char>, std::__ndk1::allocator<char> > >, true>, std::__ndk1::allocator<std::__ndk1::__value_type<std::__ndk1::basic_string<char, std::__ndk1::char_traits<char>, std::__ndk1::allocator<char> >, std::__ndk1::shared_ptr<geode::Hook> > > >::__emplace_unique_key_args<std::__ndk1::basic_string<char, std::__ndk1::char_traits<char>, std::__ndk1::allocator<char> >, std::__ndk1::piecewise_construct_t const&, std::__ndk1::tuple<std::__ndk1::basic_string<char, std::__ndk1::char_traits<char>, std::__ndk1::allocator<char> > const&>, std::__ndk1::tuple<> >(std::__ndk1::basic_string<char, std::__ndk1::char_traits<char>, std::__ndk1::allocator<char> > const&, std::__ndk1::piecewise_construct_t const&, std::__ndk1::tuple<std::__ndk1::basic_string<char, std::__ndk1::char_traits<char>, std::__ndk1::allocator<char> > const&>, std::__ndk1::tuple<>)
PUBLIC 3439c 0 std::__ndk1::unique_ptr<std::__ndk1::__tree_node<std::__ndk1::__value_type<std::__ndk1::basic_string<char, std::__ndk1::char_traits<char>, std::__ndk1::allocator<char> >, std::__ndk1::shared_ptr<geode::Hook> >, void*>, std::__ndk1::__tree_node_destructor<std::__ndk1::allocator<std::__ndk1::__tree_node<std::__ndk1::__value_type<std::__ndk1::basic_string<char, std::__ndk1::char_traits<char>, std::__ndk1::allocator<char> >, std::__ndk1::shared_ptr<geode::Hook> >, void*> > > >::~unique_ptr[abi:ne180000]()
PUBLIC 34418 0 std::__ndk1::basic_string<char, std::__ndk1::char_traits<char>, std::__ndk1::allocator<char> >::__init_copy_ctor_external(char const*, unsigned long)
PUBLIC 34498 0 std::__ndk1::__tree_balance_after_insert[abi:ne180000]<std::__ndk1::__tree_node_base<void*>*>(std::__ndk1::__tree_node_base<void*>*, std::__ndk1::__tree_node_base<void*>*)
PUBLIC 34648 0 _ZN5geode15UnwrapExceptionC2IRPNS_4HookEQsr4implE18IsStringStreamableIT_EEENS_4impl5OkTagEOS5_
PUBLIC 3479c 0 std::__ndk1::__throw_bad_variant_access[abi:ne180000]()
PUBLIC 347d0 0 std::__ndk1::basic_stringstream<char, std::__ndk1::char_traits<char>, std::__ndk1::allocator<char> >::basic_stringstream[abi:ne180000]()
PUBLIC m 348fc 0 std::__ndk1::basic_stringstream<char, std::__ndk1::char_traits<char>, std::__ndk1::allocator<char> >::~basic_stringstream()
PUBLIC 3497c 0 geode::UnwrapException::~UnwrapException()
PUBLIC 349a0 0 std::__ndk1::__put_character_sequence[abi:ne180000]<char, std::__ndk1::char_traits<char> >(std::__ndk1::basic_ostream<char, std::__ndk1::char_traits<char> >, std::__ndk1::basic_ostream const*, unsigned long)
PUBLIC 34b44 0 std::__ndk1::__pad_and_output[abi:ne180000]<char, std::__ndk1::char_traits<char> >(std::__ndk1::char_traits<char>, std::__ndk1::ostreambuf_iterator const*, std::__ndk1::ostreambuf_iterator const, std::__ndk1::ostreambuf_iterator const, std::__ndk1::ios_base&, std::__ndk1::ostreambuf_iterator)
PUBLIC 34d20 0 std::__ndk1::basic_stringbuf<char, std::__ndk1::char_traits<char>, std::__ndk1::allocator<char> >::str[abi:ne180000]() &&
PUBLIC 34e98 0 std::__ndk1::basic_stringbuf<char, std::__ndk1::char_traits<char>, std::__ndk1::allocator<char> >::__init_buf_ptrs[abi:ne180000]()
PUBLIC 34fe0 0 _ZN5geode15UnwrapExceptionC2IRNSt6__ndk112basic_stringIcNS2_11char_traitsIcEENS2_9allocatorIcEEEEQsr4implE18IsStringStreamableIT_EEENS_4impl6ErrTagEOSA_
PUBLIC 35148 0 std::__ndk1::__variant_detail::__visitation::__base::__dispatcher<(unsigned long)0>::__dispatch[abi:ne180000]<std::__ndk1::__variant_detail::__dtor<std::__ndk1::__variant_detail::__traits<std::__ndk1::monostate, std::__ndk1::basic_string<char, std::__ndk1::char_traits<char>, std::__ndk1::allocator<char> > >, (std::__ndk1::__variant_detail::_Trait)1>::__destroy[abi:ne180000]()::{lambda(auto:1&)#1}, std::__ndk1::__variant_detail::__base<(std::__ndk1::__variant_detail::__traits<std::__ndk1::monostate, std::__ndk1::basic_string<char, std::__ndk1::char_traits<char>, std::__ndk1::allocator<char> > >)1, std::__ndk1::__variant_detail::__traits, std::__ndk1::allocator<char> >&>(std::__ndk1::__variant_detail::__dtor<std::__ndk1::__variant_detail::__traits<std::__ndk1::monostate, std::__ndk1::basic_string<char, std::__ndk1::char_traits<char>, std::__ndk1::allocator<char> > >, (std::__ndk1::__variant_detail::_Trait)1>, std::__ndk1::__variant_detail::__base<(std::__ndk1::__variant_detail::__traits<std::__ndk1::monostate, std::__ndk1::basic_string<char, std::__ndk1::char_traits<char>, std::__ndk1::allocator<char> > >)1, std::__ndk1::__variant_detail::__traits, std::__ndk1::allocator<char> >&)
PUBLIC 3514c 0 std::__ndk1::__variant_detail::__visitation::__base::__dispatcher<(unsigned long)1>::__dispatch[abi:ne180000]<std::__ndk1::__variant_detail::__dtor<std::__ndk1::__variant_detail::__traits<std::__ndk1::monostate, std::__ndk1::basic_string<char, std::__ndk1::char_traits<char>, std::__ndk1::allocator<char> > >, (std::__ndk1::__variant_detail::_Trait)1>::__destroy[abi:ne180000]()::{lambda(auto:1&)#1}, std::__ndk1::__variant_detail::__base<(std::__ndk1::__variant_detail::__traits<std::__ndk1::monostate, std::__ndk1::basic_string<char, std::__ndk1::char_traits<char>, std::__ndk1::allocator<char> > >)1, std::__ndk1::__variant_detail::__traits, std::__ndk1::allocator<char> >&>(std::__ndk1::__variant_detail::__dtor<std::__ndk1::__variant_detail::__traits<std::__ndk1::monostate, std::__ndk1::basic_string<char, std::__ndk1::char_traits<char>, std::__ndk1::allocator<char> > >, (std::__ndk1::__variant_detail::_Trait)1>, std::__ndk1::__variant_detail::__base<(std::__ndk1::__variant_detail::__traits<std::__ndk1::monostate, std::__ndk1::basic_string<char, std::__ndk1::char_traits<char>, std::__ndk1::allocator<char> > >)1, std::__ndk1::__variant_detail::__traits, std::__ndk1::allocator<char> >&)
PUBLIC 35160 0 std::__ndk1::vector<std::__ndk1::basic_string<char, std::__ndk1::char_traits<char>, std::__ndk1::allocator<char> >, std::__ndk1::allocator<std::__ndk1::basic_string<char, std::__ndk1::char_traits<char>, std::__ndk1::allocator<char> > > >::__push_back_slow_path<std::__ndk1::basic_string<char, std::__ndk1::char_traits<char>, std::__ndk1::allocator<char> > const&>(std::__ndk1::basic_string<char, std::__ndk1::char_traits<char>, std::__ndk1::allocator<char> > const&)
PUBLIC 35388 0 std::__ndk1::__split_buffer<std::__ndk1::basic_string<char, std::__ndk1::char_traits<char>, std::__ndk1::allocator<char> >, std::__ndk1::allocator<std::__ndk1::basic_string<char, std::__ndk1::char_traits<char>, std::__ndk1::allocator<char> > >&>::~__split_buffer()
PUBLIC 353f0 0 std::__ndk1::vector<std::__ndk1::basic_string<char, std::__ndk1::char_traits<char>, std::__ndk1::allocator<char> >, std::__ndk1::allocator<std::__ndk1::basic_string<char, std::__ndk1::char_traits<char>, std::__ndk1::allocator<char> > > >::__throw_length_error[abi:ne180000]() const
PUBLIC 35404 0 std::__ndk1::__variant_detail::__visitation::__base::__dispatcher<(unsigned long)0>::__dispatch[abi:ne180000]<std::__ndk1::__variant_detail::__dtor<std::__ndk1::__variant_detail::__traits<geode::Hook*, std::__ndk1::basic_string<char, std::__ndk1::char_traits<char>, std::__ndk1::allocator<char> > >, (std::__ndk1::__variant_detail::_Trait)1>::__destroy[abi:ne180000]()::{lambda(auto:1&)#1}, std::__ndk1::__variant_detail::__base<(std::__ndk1::__variant_detail::__traits<geode::Hook*, std::__ndk1::basic_string<char, std::__ndk1::char_traits<char>, std::__ndk1::allocator<char> > >)1, geode::Hook, std::__ndk1::allocator<char> >&>(std::__ndk1::__variant_detail::__dtor<std::__ndk1::__variant_detail::__traits<geode::Hook*, std::__ndk1::basic_string<char, std::__ndk1::char_traits<char>, std::__ndk1::allocator<char> > >, (std::__ndk1::__variant_detail::_Trait)1>, std::__ndk1::__variant_detail::__base<(std::__ndk1::__variant_detail::__traits<geode::Hook*, std::__ndk1::basic_string<char, std::__ndk1::char_traits<char>, std::__ndk1::allocator<char> > >)1, geode::Hook, std::__ndk1::allocator<char> >&)
PUBLIC 35408 0 std::__ndk1::__variant_detail::__visitation::__base::__dispatcher<(unsigned long)1>::__dispatch[abi:ne180000]<std::__ndk1::__variant_detail::__dtor<std::__ndk1::__variant_detail::__traits<geode::Hook*, std::__ndk1::basic_string<char, std::__ndk1::char_traits<char>, std::__ndk1::allocator<char> > >, (std::__ndk1::__variant_detail::_Trait)1>::__destroy[abi:ne180000]()::{lambda(auto:1&)#1}, std::__ndk1::__variant_detail::__base<(std::__ndk1::__variant_detail::__traits<geode::Hook*, std::__ndk1::basic_string<char, std::__ndk1::char_traits<char>, std::__ndk1::allocator<char> > >)1, geode::Hook, std::__ndk1::allocator<char> >&>(std::__ndk1::__variant_detail::__dtor<std::__ndk1::__variant_detail::__traits<geode::Hook*, std::__ndk1::basic_string<char, std::__ndk1::char_traits<char>, std::__ndk1::allocator<char> > >, (std::__ndk1::__variant_detail::_Trait)1>, std::__ndk1::__variant_detail::__base<(std::__ndk1::__variant_detail::__traits<geode::Hook*, std::__ndk1::basic_string<char, std::__ndk1::char_traits<char>, std::__ndk1::allocator<char> > >)1, geode::Hook, std::__ndk1::allocator<char> >&)
PUBLIC 3541c 0 std::__ndk1::__tree<std::__ndk1::__value_type<std::__ndk1::basic_string<char, std::__ndk1::char_traits<char>, std::__ndk1::allocator<char> >, std::__ndk1::shared_ptr<geode::Hook> >, std::__ndk1::__map_value_compare<std::__ndk1::basic_string<char, std::__ndk1::char_traits<char>, std::__ndk1::allocator<char> >, std::__ndk1::__value_type<std::__ndk1::basic_string<char, std::__ndk1::char_traits<char>, std::__ndk1::allocator<char> >, std::__ndk1::shared_ptr<geode::Hook> >, std::__ndk1::less<std::__ndk1::basic_string<char, std::__ndk1::char_traits<char>, std::__ndk1::allocator<char> > >, true>, std::__ndk1::allocator<std::__ndk1::__value_type<std::__ndk1::basic_string<char, std::__ndk1::char_traits<char>, std::__ndk1::allocator<char> >, std::__ndk1::shared_ptr<geode::Hook> > > >::erase(std::__ndk1::__tree_const_iterator<std::__ndk1::__value_type<std::__ndk1::basic_string<char, std::__ndk1::char_traits<char>, std::__ndk1::allocator<char> >, std::__ndk1::shared_ptr<geode::Hook> >, std::__ndk1::__tree_node<std::__ndk1::__value_type<std::__ndk1::basic_string<char, std::__ndk1::char_traits<char>, std::__ndk1::allocator<char> >, std::__ndk1::shared_ptr<geode::Hook> >, void*>*, long>)
PUBLIC 354f0 0 std::__ndk1::__tree_remove[abi:ne180000]<std::__ndk1::__tree_node_base<void*>*>(std::__ndk1::__tree_node_base<void*>*, std::__ndk1::__tree_node_base<void*>*)
PUBLIC 358b8 0 std::__ndk1::__tree<std::__ndk1::__value_type<std::__ndk1::basic_string<char, std::__ndk1::char_traits<char>, std::__ndk1::allocator<char> >, std::__ndk1::shared_ptr<geode::Hook> >, std::__ndk1::__map_value_compare<std::__ndk1::basic_string<char, std::__ndk1::char_traits<char>, std::__ndk1::allocator<char> >, std::__ndk1::__value_type<std::__ndk1::basic_string<char, std::__ndk1::char_traits<char>, std::__ndk1::allocator<char> >, std::__ndk1::shared_ptr<geode::Hook> >, std::__ndk1::less<std::__ndk1::basic_string<char, std::__ndk1::char_traits<char>, std::__ndk1::allocator<char> > >, true>, std::__ndk1::allocator<std::__ndk1::__value_type<std::__ndk1::basic_string<char, std::__ndk1::char_traits<char>, std::__ndk1::allocator<char> >, std::__ndk1::shared_ptr<geode::Hook> > > >::destroy(std::__ndk1::__tree_node<std::__ndk1::__value_type<std::__ndk1::basic_string<char, std::__ndk1::char_traits<char>, std::__ndk1::allocator<char> >, std::__ndk1::shared_ptr<geode::Hook> >, void*>*)
PUBLIC 35944 0 geode::modifier::AsStaticFunction_init<ChallengeNodeIDs, bool (ChallengeNodeIDs::*)(GJChallengeItem*, ChallengesPage*, bool)>::Impl<bool (ChallengeNodeIDs::*)(GJChallengeItem*, ChallengesPage*, bool)>::function(ChallengeNodeIDs*, GJChallengeItem*, ChallengesPage*, bool)
PUBLIC 35a9c 0 std::__ndk1::shared_ptr<tulip::hook::CallingConvention>::~shared_ptr[abi:ne180000]()
PUBLIC 35aec 0 tulip::hook::HandlerMetadata::~HandlerMetadata()
PUBLIC 35b50 0 std::__ndk1::vector<tulip::hook::AbstractType, std::__ndk1::allocator<tulip::hook::AbstractType> >::__throw_length_error[abi:ne180000]() const
PUBLIC 35b64 0 std::__ndk1::__hash_table<std::__ndk1::__hash_value_type<std::__ndk1::basic_string<char, std::__ndk1::char_traits<char>, std::__ndk1::allocator<char> >, void (*)(cocos2d::CCNode*)>, std::__ndk1::__unordered_map_hasher<std::__ndk1::basic_string<char, std::__ndk1::char_traits<char>, std::__ndk1::allocator<char> >, std::__ndk1::__hash_value_type<std::__ndk1::basic_string<char, std::__ndk1::char_traits<char>, std::__ndk1::allocator<char> >, void (*)(cocos2d::CCNode*)>, std::__ndk1::hash<std::__ndk1::basic_string<char, std::__ndk1::char_traits<char>, std::__ndk1::allocator<char> > >, std::__ndk1::equal_to<std::__ndk1::basic_string<char, std::__ndk1::char_traits<char>, std::__ndk1::allocator<char> > >, true>, std::__ndk1::__unordered_map_equal<std::__ndk1::basic_string<char, std::__ndk1::char_traits<char>, std::__ndk1::allocator<char> >, std::__ndk1::__hash_value_type<std::__ndk1::basic_string<char, std::__ndk1::char_traits<char>, std::__ndk1::allocator<char> >, void (*)(cocos2d::CCNode*)>, std::__ndk1::equal_to<std::__ndk1::basic_string<char, std::__ndk1::char_traits<char>, std::__ndk1::allocator<char> > >, std::__ndk1::hash<std::__ndk1::basic_string<char, std::__ndk1::char_traits<char>, std::__ndk1::allocator<char> > >, true>, std::__ndk1::allocator<std::__ndk1::__hash_value_type<std::__ndk1::basic_string<char, std::__ndk1::char_traits<char>, std::__ndk1::allocator<char> >, void (*)(cocos2d::CCNode*)> > >::find<std::__ndk1::basic_string<char, std::__ndk1::char_traits<char>, std::__ndk1::allocator<char> > >(std::__ndk1::basic_string<char, std::__ndk1::char_traits<char>, std::__ndk1::allocator<char> > const&) const
PUBLIC 35db8 0 std::__ndk1::__murmur2_or_cityhash<unsigned long, (unsigned long)64>::operator()[abi:ne180000](void const*, unsigned long) const
PUBLIC 36204 0 std::__ndk1::__tree<std::__ndk1::__value_type<std::__ndk1::basic_string<char, std::__ndk1::char_traits<char>, std::__ndk1::allocator<char> >, std::__ndk1::shared_ptr<geode::Hook> >, std::__ndk1::__map_value_compare<std::__ndk1::basic_string<char, std::__ndk1::char_traits<char>, std::__ndk1::allocator<char> >, std::__ndk1::__value_type<std::__ndk1::basic_string<char, std::__ndk1::char_traits<char>, std::__ndk1::allocator<char> >, std::__ndk1::shared_ptr<geode::Hook> >, std::__ndk1::less<std::__ndk1::basic_string<char, std::__ndk1::char_traits<char>, std::__ndk1::allocator<char> > >, true>, std::__ndk1::allocator<std::__ndk1::__value_type<std::__ndk1::basic_string<char, std::__ndk1::char_traits<char>, std::__ndk1::allocator<char> >, std::__ndk1::shared_ptr<geode::Hook> > > >::__emplace_unique_key_args<std::__ndk1::basic_string<char, std::__ndk1::char_traits<char>, std::__ndk1::allocator<char> >, std::__ndk1::piecewise_construct_t const&, std::__ndk1::tuple<std::__ndk1::basic_string<char, std::__ndk1::char_traits<char>, std::__ndk1::allocator<char> >&&>, std::__ndk1::tuple<> >(std::__ndk1::basic_string<char, std::__ndk1::char_traits<char>, std::__ndk1::allocator<char> > const&, std::__ndk1::piecewise_construct_t const&, std::__ndk1::tuple<std::__ndk1::basic_string<char, std::__ndk1::char_traits<char>, std::__ndk1::allocator<char> >&&>, std::__ndk1::tuple<>)
PUBLIC 3637c 0 _ZN5geode26geodeInternalProvideIDsForITkNS_12IDProvidableE26ProvideIDsForChallengeNodeEEvPT_
PUBLIC 36670 0 std::__ndk1::__hash_table<std::__ndk1::__hash_value_type<std::__ndk1::basic_string<char, std::__ndk1::char_traits<char>, std::__ndk1::allocator<char> >, void (*)(cocos2d::CCNode*)>, std::__ndk1::__unordered_map_hasher<std::__ndk1::basic_string<char, std::__ndk1::char_traits<char>, std::__ndk1::allocator<char> >, std::__ndk1::__hash_value_type<std::__ndk1::basic_string<char, std::__ndk1::char_traits<char>, std::__ndk1::allocator<char> >, void (*)(cocos2d::CCNode*)>, std::__ndk1::hash<std::__ndk1::basic_string<char, std::__ndk1::char_traits<char>, std::__ndk1::allocator<char> > >, std::__ndk1::equal_to<std::__ndk1::basic_string<char, std::__ndk1::char_traits<char>, std::__ndk1::allocator<char> > >, true>, std::__ndk1::__unordered_map_equal<std::__ndk1::basic_string<char, std::__ndk1::char_traits<char>, std::__ndk1::allocator<char> >, std::__ndk1::__hash_value_type<std::__ndk1::basic_string<char, std::__ndk1::char_traits<char>, std::__ndk1::allocator<char> >, void (*)(cocos2d::CCNode*)>, std::__ndk1::equal_to<std::__ndk1::basic_string<char, std::__ndk1::char_traits<char>, std::__ndk1::allocator<char> > >, std::__ndk1::hash<std::__ndk1::basic_string<char, std::__ndk1::char_traits<char>, std::__ndk1::allocator<char> > >, true>, std::__ndk1::allocator<std::__ndk1::__hash_value_type<std::__ndk1::basic_string<char, std::__ndk1::char_traits<char>, std::__ndk1::allocator<char> >, void (*)(cocos2d::CCNode*)> > >::__emplace_unique_key_args<std::__ndk1::basic_string<char, std::__ndk1::char_traits<char>, std::__ndk1::allocator<char> >, std::__ndk1::pair<std::__ndk1::basic_string<char, std::__ndk1::char_traits<char>, std::__ndk1::allocator<char> > const, void (*)(cocos2d::CCNode*)> >(std::__ndk1::basic_string<char, std::__ndk1::char_traits<char>, std::__ndk1::allocator<char> > const&, std::__ndk1::pair<std::__ndk1::basic_string<char, std::__ndk1::char_traits<char>, std::__ndk1::allocator<char> > const, void (*)(cocos2d::CCNode*)>&&)
PUBLIC 36b30 0 std::__ndk1::unique_ptr<std::__ndk1::__hash_node<std::__ndk1::__hash_value_type<std::__ndk1::basic_string<char, std::__ndk1::char_traits<char>, std::__ndk1::allocator<char> >, void (*)(cocos2d::CCNode*)>, void*>, std::__ndk1::__hash_node_destructor<std::__ndk1::allocator<std::__ndk1::__hash_node<std::__ndk1::__hash_value_type<std::__ndk1::basic_string<char, std::__ndk1::char_traits<char>, std::__ndk1::allocator<char> >, void (*)(cocos2d::CCNode*)>, void*> > > >::~unique_ptr[abi:ne180000]()
PUBLIC 36b80 0 std::__ndk1::__hash_table<std::__ndk1::__hash_value_type<std::__ndk1::basic_string<char, std::__ndk1::char_traits<char>, std::__ndk1::allocator<char> >, void (*)(cocos2d::CCNode*)>, std::__ndk1::__unordered_map_hasher<std::__ndk1::basic_string<char, std::__ndk1::char_traits<char>, std::__ndk1::allocator<char> >, std::__ndk1::__hash_value_type<std::__ndk1::basic_string<char, std::__ndk1::char_traits<char>, std::__ndk1::allocator<char> >, void (*)(cocos2d::CCNode*)>, std::__ndk1::hash<std::__ndk1::basic_string<char, std::__ndk1::char_traits<char>, std::__ndk1::allocator<char> > >, std::__ndk1::equal_to<std::__ndk1::basic_string<char, std::__ndk1::char_traits<char>, std::__ndk1::allocator<char> > >, true>, std::__ndk1::__unordered_map_equal<std::__ndk1::basic_string<char, std::__ndk1::char_traits<char>, std::__ndk1::allocator<char> >, std::__ndk1::__hash_value_type<std::__ndk1::basic_string<char, std::__ndk1::char_traits<char>, std::__ndk1::allocator<char> >, void (*)(cocos2d::CCNode*)>, std::__ndk1::equal_to<std::__ndk1::basic_string<char, std::__ndk1::char_traits<char>, std::__ndk1::allocator<char> > >, std::__ndk1::hash<std::__ndk1::basic_string<char, std::__ndk1::char_traits<char>, std::__ndk1::allocator<char> > >, true>, std::__ndk1::allocator<std::__ndk1::__hash_value_type<std::__ndk1::basic_string<char, std::__ndk1::char_traits<char>, std::__ndk1::allocator<char> >, void (*)(cocos2d::CCNode*)> > >::__do_rehash<true>(unsigned long)
PUBLIC 36d2c 0 geode::EnterLayerEvent<ProvideIDsForChallengeNode>::~EnterLayerEvent()
PUBLIC 36d70 0 geode::AEnterLayerEvent::~AEnterLayerEvent()
PUBLIC 36db0 0 geode::AEnterLayerEvent::~AEnterLayerEvent()
PUBLIC 36df4 0 _GLOBAL__sub_I_ChallengeNode.cpp
PUBLIC 36eb0 0 _ZN5geode8node_ids9setIDSafeIN7cocos2d9extension14CCScale9SpriteEQsr3stdE12is_base_of_vINS2_6CCNodeET_EEEPS6_PS5_iPKc
PUBLIC 36fd8 0 geode::node_ids::detachAndCreateMenu<cocos2d::CCNode*, >(cocos2d::CCNode*, char const*, geode::Layout*, cocos2d::CCNode*, )
PUBLIC 372e8 0 _ZN5geode8node_ids9setIDSafeIN7cocos2d13CCLabelBMFontEQsr3stdE12is_base_of_vINS2_6CCNodeET_EEEPS5_PS4_iPKc
PUBLIC 37410 0 __cxx_global_var_init.17
PUBLIC 37970 0 geode::modifier::ModifyBase<geode::modifier::ModifyDerive<ChallengesPageIDs, ChallengesPage> >::~ModifyBase()
PUBLIC 3798c 0 _ZN5geode26geodeInternalProvideIDsForITkNS_12IDProvidableE27ProvideIDsForChallengesPageEEvPT_
PUBLIC 380d8 0 geode::EnterLayerEvent<ProvideIDsForChallengesPage>::~EnterLayerEvent()
PUBLIC 3811c 0 cocos2d::CCNode::getChildByType<cocos2d::extension::CCScale9Sprite, cocos2d::extension::CCScale9Sprite>(int)
PUBLIC 38270 0 geode::cast::traverseTypeinfoFor(void*, geode::cast::ClassTypeinfoType const*, char const*)
PUBLIC 38374 0 cocos2d::CCNode::getChildByType<cocos2d::CCLabelBMFont, cocos2d::CCLabelBMFont>(int)
PUBLIC 384c8 0 geode::modifier::ModifyDerive<ChallengesPageIDs, ChallengesPage>::apply()
PUBLIC 38b64 0 geode::modifier::ModifyBase<geode::modifier::ModifyDerive<ChallengesPageIDs, ChallengesPage> >::apply()
PUBLIC 38b68 0 geode::modifier::ModifyBase<geode::modifier::ModifyDerive<ChallengesPageIDs, ChallengesPage> >::setHookPriority(std::__ndk1::basic_string_view<char, std::__ndk1::char_traits<char> >, int)
PUBLIC 38db0 0 geode::modifier::AsStaticFunction_init<ChallengesPageIDs, bool (ChallengesPageIDs::*)()>::Impl<bool (ChallengesPageIDs::*)()>::function(ChallengesPageIDs*)
PUBLIC 38ef4 0 geode::modifier::AsStaticFunction_createChallengeNode<ChallengesPageIDs, ChallengeNode* (ChallengesPageIDs::*)(int, bool, float, bool)>::Impl<ChallengeNode* (ChallengesPageIDs::*)(int, bool, float, bool)>::function(ChallengesPageIDs*, int, bool, float, bool)
PUBLIC 39154 0 geode::addresser::Addresser::addressOfVirtual<bool, ChallengesPage, >(bool (ChallengesPage::*)())
PUBLIC 391fc 0 ChallengesPage::ChallengesPage(geode::ZeroConstructorType)
PUBLIC 39298 0 _GLOBAL__sub_I_ChallengesPage.cpp
PUBLIC 39354 0 geode::node_ids::setIDs<char const*, char const*, char const*, char const*, char const*, char const*, char const*, char const*, char const*, char const*, char const*, char const*>(cocos2d::CCNode*, int, char const*, char const*, char const*, char const*, char const*, char const*, char const*, char const*, char const*, char const*, char const*, char const*)
PUBLIC 3947c 0 __cxx_global_var_init.21
PUBLIC 39af4 0 geode::modifier::ModifyBase<geode::modifier::ModifyDerive<CharacterColorPageIDS, CharacterColorPage> >::~ModifyBase()
PUBLIC 39b10 0 _ZN5geode26geodeInternalProvideIDsForITkNS_12IDProvidableE31ProvideIDsForCharacterColorPageEEvPT_
PUBLIC 39fd8 0 geode::EnterLayerEvent<ProvideIDsForCharacterColorPage>::~EnterLayerEvent()
PUBLIC 3a01c 0 geode::modifier::ModifyDerive<CharacterColorPageIDS, CharacterColorPage>::apply()
PUBLIC 3a34c 0 geode::modifier::ModifyBase<geode::modifier::ModifyDerive<CharacterColorPageIDS, CharacterColorPage> >::apply()
PUBLIC 3a350 0 geode::modifier::AsStaticFunction_init<CharacterColorPageIDS, bool (CharacterColorPageIDS::*)()>::Impl<bool (CharacterColorPageIDS::*)()>::function(CharacterColorPageIDS*)
PUBLIC 3a498 0 geode::addresser::Addresser::addressOfVirtual<bool, CharacterColorPage, >(bool (CharacterColorPage::*)())
PUBLIC 3a540 0 CharacterColorPage::CharacterColorPage(geode::ZeroConstructorType)
PUBLIC 3a5c4 0 _GLOBAL__sub_I_CharacterColorPage.cpp
PUBLIC 3a680 0 geode::node_ids::switchToMenu(cocos2d::CCNode*, cocos2d::CCNode*)
PUBLIC 3a798 0 __cxx_global_var_init.17
PUBLIC 3ae10 0 geode::modifier::ModifyBase<geode::modifier::ModifyDerive<CommentCellIDs, CommentCell> >::~ModifyBase()
PUBLIC 3ae2c 0 _ZN5geode26geodeInternalProvideIDsForITkNS_12IDProvidableE24ProvideIDsForCommentCellEEvPT_
PUBLIC 3bed8 0 geode::EnterLayerEvent<ProvideIDsForCommentCell>::~EnterLayerEvent()
PUBLIC 3bf1c 0 geode::modifier::ModifyDerive<CommentCellIDs, CommentCell>::apply()
PUBLIC 3c2a4 0 geode::modifier::ModifyBase<geode::modifier::ModifyDerive<CommentCellIDs, CommentCell> >::apply()
PUBLIC 3c2a8 0 geode::modifier::AsStaticFunction_loadFromComment<CommentCellIDs, void (CommentCellIDs::*)(GJComment*)>::Impl<void (CommentCellIDs::*)(GJComment*)>::function(CommentCellIDs*, GJComment*)
PUBLIC 3c408 0 _GLOBAL__sub_I_CommentCell.cpp
PUBLIC 3c4c8 0 _ZN5geode8node_ids9setIDSafeIN7cocos2d8CCSpriteEQsr3stdE12is_base_of_vINS2_6CCNodeET_EEEPS5_PS4_iPKc
PUBLIC 3c5f0 0 geode::node_ids::detachAndCreateMenu<cocos2d::CCNode*, >(cocos2d::CCNode*, char const*, geode::Layout*, cocos2d::CCNode*, )
PUBLIC 3c834 0 __cxx_global_var_init.26
PUBLIC 3ce9c 0 geode::modifier::ModifyBase<geode::modifier::ModifyDerive<CreatorLayerIDs, CreatorLayer> >::~ModifyBase()
PUBLIC 3ceb8 0 _ZN5geode26geodeInternalProvideIDsForITkNS_12IDProvidableE25ProvideIDsForCreatorLayerEEvPT_
PUBLIC 3d944 0 geode::EnterLayerEvent<ProvideIDsForCreatorLayer>::~EnterLayerEvent()
PUBLIC 3d988 0 cocos2d::CCNode::getChildByType<cocos2d::CCSprite, cocos2d::CCSprite>(int)
PUBLIC 3dadc 0 geode::modifier::ModifyDerive<CreatorLayerIDs, CreatorLayer>::apply()
PUBLIC 3ddf0 0 geode::modifier::ModifyBase<geode::modifier::ModifyDerive<CreatorLayerIDs, CreatorLayer> >::apply()
PUBLIC 3ddf4 0 geode::modifier::AsStaticFunction_init<CreatorLayerIDs, bool (CreatorLayerIDs::*)()>::Impl<bool (CreatorLayerIDs::*)()>::function(CreatorLayerIDs*)
PUBLIC 3df3c 0 geode::addresser::Addresser::addressOfVirtual<bool, CreatorLayer, >(bool (CreatorLayer::*)())
PUBLIC 3dfe4 0 CreatorLayer::CreatorLayer(geode::ZeroConstructorType)
PUBLIC 3e07c 0 _GLOBAL__sub_I_CreatorLayer.cpp
PUBLIC 3e13c 0 __cxx_global_var_init.16
PUBLIC 3e7a4 0 geode::modifier::ModifyBase<geode::modifier::ModifyDerive<CustomSongWidgetIDs, CustomSongWidget> >::~ModifyBase()
PUBLIC 3e7c0 0 _ZN5geode26geodeInternalProvideIDsForITkNS_12IDProvidableE29ProvideIDsForCustomSongWidgetEEvPT_
PUBLIC 3ee00 0 geode::EnterLayerEvent<ProvideIDsForCustomSongWidget>::~EnterLayerEvent()
PUBLIC 3ee44 0 geode::modifier::ModifyDerive<CustomSongWidgetIDs, CustomSongWidget>::apply()
PUBLIC 3fa98 0 geode::modifier::ModifyBase<geode::modifier::ModifyDerive<CustomSongWidgetIDs, CustomSongWidget> >::apply()
PUBLIC 3fa9c 0 geode::modifier::AsStaticFunction_init<CustomSongWidgetIDs, bool (CustomSongWidgetIDs::*)(SongInfoObject*, CustomSongDelegate*, bool, bool, bool, bool, bool, bool, int)>::Impl<bool (CustomSongWidgetIDs::*)(SongInfoObject*, CustomSongDelegate*, bool, bool, bool, bool, bool, bool, int)>::function(CustomSongWidgetIDs*, SongInfoObject*, CustomSongDelegate*, bool, bool, bool, bool, bool, bool, int)
PUBLIC 3fbe4 0 _GLOBAL__sub_I_CustomSongWidget.cpp
PUBLIC 3fc98 0 geode::node_ids::detachAndCreateMenu<cocos2d::CCNode*, cocos2d::CCNode*>(cocos2d::CCNode*, char const*, geode::Layout*, cocos2d::CCNode*, cocos2d::CCNode*)
PUBLIC 3ffe8 0 geode::node_ids::detachAndCreateMenu<cocos2d::CCNode*, >(cocos2d::CCNode*, char const*, geode::Layout*, cocos2d::CCNode*, )
PUBLIC 402f8 0 __cxx_global_var_init.58
PUBLIC 40970 0 geode::modifier::ModifyBase<geode::modifier::ModifyDerive<CustomizeObjectLayerIDs, CustomizeObjectLayer> >::~ModifyBase()
PUBLIC 4098c 0 _ZN5geode26geodeInternalProvideIDsForITkNS_12IDProvidableE33ProvideIDsForCustomizeObjectLayerEEvPT_
PUBLIC 4217c 0 geode::EnterLayerEvent<ProvideIDsForCustomizeObjectLayer>::~EnterLayerEvent()
PUBLIC 421c0 0 geode::node_ids::switchToMenu(cocos2d::CCNode*, cocos2d::CCNode*)
PUBLIC 422d8 0 geode::modifier::ModifyDerive<CustomizeObjectLayerIDs, CustomizeObjectLayer>::apply()
PUBLIC 4294c 0 geode::modifier::ModifyBase<geode::modifier::ModifyDerive<CustomizeObjectLayerIDs, CustomizeObjectLayer> >::apply()
PUBLIC 42950 0 geode::modifier::AsStaticFunction_init<CustomizeObjectLayerIDs, bool (CustomizeObjectLayerIDs::*)(GameObject*, cocos2d::CCArray*)>::Impl<bool (CustomizeObjectLayerIDs::*)(GameObject*, cocos2d::CCArray*)>::function(CustomizeObjectLayerIDs*, GameObject*, cocos2d::CCArray*)
PUBLIC 42ab4 0 geode::modifier::AsStaticFunction_toggleVisible<CustomizeObjectLayerIDs, void (CustomizeObjectLayerIDs::*)()>::Impl<void (CustomizeObjectLayerIDs::*)()>::function(CustomizeObjectLayerIDs*)
PUBLIC 42ab8 0 CustomizeObjectLayerIDs::toggleVisible()
PUBLIC 42cc0 0 _GLOBAL__sub_I_CustomizeObjectLayer.cpp
PUBLIC 42d80 0 cocos2d::CCNode::getChildByType<cocos2d::CCMenu, cocos2d::CCMenu>(int)
PUBLIC 42ed4 0 __cxx_global_var_init.11
PUBLIC 43540 0 geode::modifier::ModifyBase<geode::modifier::ModifyDerive<DailyLevelNodeIDs, DailyLevelNode> >::~ModifyBase()
PUBLIC 4355c 0 geode::modifier::FieldIntermediate<DailyLevelNodeIDs, DailyLevelNode>::self()
PUBLIC 436e8 0 geode::modifier::FieldIntermediate<DailyLevelNodeIDs, DailyLevelNode>::fieldDestructor(void*)
PUBLIC 436ec 0 geode::modifier::ModifyDerive<DailyLevelNodeIDs, DailyLevelNode>::apply()
PUBLIC 43aa4 0 geode::modifier::ModifyBase<geode::modifier::ModifyDerive<DailyLevelNodeIDs, DailyLevelNode> >::apply()
PUBLIC 43aa8 0 geode::modifier::AsStaticFunction_init<DailyLevelNodeIDs, bool (DailyLevelNodeIDs::*)(GJGameLevel*, DailyLevelPage*, bool)>::Impl<bool (DailyLevelNodeIDs::*)(GJGameLevel*, DailyLevelPage*, bool)>::function(DailyLevelNodeIDs*, GJGameLevel*, DailyLevelPage*, bool)
PUBLIC 43c00 0 _ZN5geode26geodeInternalProvideIDsForITkNS_12IDProvidableE27ProvideIDsForDailyLevelNodeEEvPT_
PUBLIC 4454c 0 geode::EnterLayerEvent<ProvideIDsForDailyLevelNode>::~EnterLayerEvent()
PUBLIC 44590 0 _GLOBAL__sub_I_DailyLevelNode.cpp
PUBLIC 4464c 0 __cxx_global_var_init.12
PUBLIC 44cb8 0 geode::modifier::ModifyBase<geode::modifier::ModifyDerive<DailyLevelPageIDs, DailyLevelPage> >::~ModifyBase()
PUBLIC 44cd4 0 _ZN5geode26geodeInternalProvideIDsForITkNS_12IDProvidableE27ProvideIDsForDailyLevelPageEEvPT_
PUBLIC 45888 0 geode::EnterLayerEvent<ProvideIDsForDailyLevelPage>::~EnterLayerEvent()
PUBLIC 458cc 0 geode::modifier::ModifyDerive<DailyLevelPageIDs, DailyLevelPage>::apply()
PUBLIC 45c38 0 geode::modifier::ModifyBase<geode::modifier::ModifyDerive<DailyLevelPageIDs, DailyLevelPage> >::apply()
PUBLIC 45c3c 0 geode::modifier::AsStaticFunction_init<DailyLevelPageIDs, bool (DailyLevelPageIDs::*)(GJTimedLevelType)>::Impl<bool (DailyLevelPageIDs::*)(GJTimedLevelType)>::function(DailyLevelPageIDs*, GJTimedLevelType)
PUBLIC 45d80 0 _GLOBAL__sub_I_DailyLevelPage.cpp
PUBLIC 45e3c 0 _ZN5geode8node_ids9setIDSafeIN7cocos2d7CCLayerEQsr3stdE12is_base_of_vINS2_6CCNodeET_EEEPS5_PS4_iPKc
PUBLIC 45f64 0 _ZN5geode8node_ids9setIDSafeIN7cocos2d6CCMenuEQsr3stdE12is_base_of_vINS2_6CCNodeET_EEEPS5_PS4_iPKc
PUBLIC 4608c 0 _ZN5geode8node_ids9setIDSafeI21CCMenuItemSpriteExtraQsr3stdE12is_base_of_vIN7cocos2d6CCNodeET_EEEPS5_PS4_iPKc
PUBLIC 461b4 0 geode::cocos::CCArrayExt<cocos2d::CCNode*, cocos2d::CCNode>::~CCArrayExt()
PUBLIC 461d4 0 __cxx_global_var_init.13
PUBLIC 4684c 0 geode::modifier::ModifyBase<geode::modifier::ModifyDerive<DemonFilterSelectLayerIDs, DemonFilterSelectLayer> >::~ModifyBase()
PUBLIC 46868 0 _ZN5geode26geodeInternalProvideIDsForITkNS_12IDProvidableE35ProvideIDsForDemonFilterSelectLayerEEvPT_
PUBLIC 46f64 0 geode::EnterLayerEvent<ProvideIDsForDemonFilterSelectLayer>::~EnterLayerEvent()
PUBLIC 46fa8 0 cocos2d::CCNode::getChildByType<cocos2d::CCLayer, cocos2d::CCLayer>(int)
PUBLIC 470fc 0 cocos2d::CCNode::getChildByType<CCMenuItemSpriteExtra, CCMenuItemSpriteExtra>(int)
PUBLIC 47250 0 geode::modifier::ModifyDerive<DemonFilterSelectLayerIDs, DemonFilterSelectLayer>::apply()
PUBLIC 47588 0 geode::modifier::ModifyBase<geode::modifier::ModifyDerive<DemonFilterSelectLayerIDs, DemonFilterSelectLayer> >::apply()
PUBLIC 4758c 0 geode::modifier::AsStaticFunction_init<DemonFilterSelectLayerIDs, bool (DemonFilterSelectLayerIDs::*)()>::Impl<bool (DemonFilterSelectLayerIDs::*)()>::function(DemonFilterSelectLayerIDs*)
PUBLIC 476d0 0 geode::addresser::Addresser::addressOfVirtual<bool, DemonFilterSelectLayer, >(bool (DemonFilterSelectLayer::*)())
PUBLIC 47778 0 DemonFilterSelectLayer::DemonFilterSelectLayer(geode::ZeroConstructorType)
PUBLIC 477fc 0 _GLOBAL__sub_I_DemonFilterSelectLayer.cpp
PUBLIC 478b8 0 geode::node_ids::switchToMenu(cocos2d::CCNode*, cocos2d::CCNode*)
PUBLIC 479cc 0 __cxx_global_var_init.18
PUBLIC 48038 0 geode::modifier::ModifyBase<geode::modifier::ModifyDerive<DemonInfoPopupIDs, DemonInfoPopup> >::~ModifyBase()
PUBLIC 48054 0 geode::modifier::FieldIntermediate<DemonInfoPopupIDs, DemonInfoPopup>::self()
PUBLIC 481e0 0 geode::modifier::FieldIntermediate<DemonInfoPopupIDs, DemonInfoPopup>::fieldDestructor(void*)
PUBLIC 481e4 0 geode::modifier::ModifyDerive<DemonInfoPopupIDs, DemonInfoPopup>::apply()
PUBLIC 49274 0 geode::modifier::ModifyBase<geode::modifier::ModifyDerive<DemonInfoPopupIDs, DemonInfoPopup> >::apply()
PUBLIC 49278 0 geode::modifier::AsStaticFunction_init<DemonInfoPopupIDs, bool (DemonInfoPopupIDs::*)(int, int, int, int, int, int, int, int, int, int, int, int)>::Impl<bool (DemonInfoPopupIDs::*)(int, int, int, int, int, int, int, int, int, int, int, int)>::function(DemonInfoPopupIDs*, int, int, int, int, int, int, int, int, int, int, int, int)
PUBLIC 493fc 0 _ZN5geode26geodeInternalProvideIDsForITkNS_12IDProvidableE27ProvideIDsForDemonInfoPopupEEvPT_
PUBLIC 49dd0 0 geode::EnterLayerEvent<ProvideIDsForDemonInfoPopup>::~EnterLayerEvent()
PUBLIC 49e14 0 _GLOBAL__sub_I_DemonInfoPopup.cpp
PUBLIC 49ed0 0 __cxx_global_var_init.32
PUBLIC 4a53c 0 geode::modifier::ModifyBase<geode::modifier::ModifyDerive<EditLevelLayerIDs, EditLevelLayer> >::~ModifyBase()
PUBLIC 4a558 0 _ZN5geode26geodeInternalProvideIDsForITkNS_12IDProvidableE27ProvideIDsForEditLevelLayerEEvPT_
PUBLIC 4af94 0 geode::EnterLayerEvent<ProvideIDsForEditLevelLayer>::~EnterLayerEvent()
PUBLIC 4afd8 0 geode::modifier::ModifyDerive<EditLevelLayerIDs, EditLevelLayer>::apply()
PUBLIC 4b344 0 geode::modifier::ModifyBase<geode::modifier::ModifyDerive<EditLevelLayerIDs, EditLevelLayer> >::apply()
PUBLIC 4b348 0 geode::modifier::AsStaticFunction_init<EditLevelLayerIDs, bool (EditLevelLayerIDs::*)(GJGameLevel*)>::Impl<bool (EditLevelLayerIDs::*)(GJGameLevel*)>::function(EditLevelLayerIDs*, GJGameLevel*)
PUBLIC 4b48c 0 _GLOBAL__sub_I_EditLevelLayer.cpp
PUBLIC 4b548 0 ProvideIDsForEditorPauseLayer::provide()
PUBLIC 4d3b0 0 geode::node_ids::setIDs<char const*, char const*, char const*, char const*, char const*, char const*, char const*, char const*, char const*, char const*, char const*, char const*, char const*, char const*>(cocos2d::CCNode*, int, char const*, char const*, char const*, char const*, char const*, char const*, char const*, char const*, char const*, char const*, char const*, char const*, char const*, char const*)
PUBLIC 4d504 0 GuidelinesButtonDummy::onClick(cocos2d::CCObject*)
PUBLIC 4d590 0 __cxx_global_var_init.62
PUBLIC 4dbf8 0 geode::modifier::ModifyBase<geode::modifier::ModifyDerive<EditorPauseLayerIDs, EditorPauseLayer> >::~ModifyBase()
PUBLIC 4dc14 0 _ZN5geode26geodeInternalProvideIDsForITkNS_12IDProvidableE29ProvideIDsForEditorPauseLayerEEvPT_
PUBLIC 4ddd0 0 geode::EnterLayerEvent<ProvideIDsForEditorPauseLayer>::~EnterLayerEvent()
PUBLIC 4de14 0 geode::node_ids::switchToMenu(cocos2d::CCNode*, cocos2d::CCNode*)
PUBLIC 4df2c 0 geode::modifier::ModifyDerive<EditorPauseLayerIDs, EditorPauseLayer>::apply()
PUBLIC 4e28c 0 geode::modifier::ModifyBase<geode::modifier::ModifyDerive<EditorPauseLayerIDs, EditorPauseLayer> >::apply()
PUBLIC 4e290 0 geode::modifier::AsStaticFunction_init<EditorPauseLayerIDs, bool (EditorPauseLayerIDs::*)(LevelEditorLayer*)>::Impl<bool (EditorPauseLayerIDs::*)(LevelEditorLayer*)>::function(EditorPauseLayerIDs*, LevelEditorLayer*)
PUBLIC 4e3c8 0 _GLOBAL__sub_I_EditorPauseLayer.cpp
PUBLIC 4e47c 0 ProvideIDsForEditorUI::provide()
PUBLIC 50314 0 geode::node_ids::detachAndCreateMenu<cocos2d::CCNode*, cocos2d::CCNode*, cocos2d::CCNode*, cocos2d::CCNode*>(cocos2d::CCNode*, char const*, geode::Layout*, cocos2d::CCNode*, cocos2d::CCNode*, cocos2d::CCNode*, cocos2d::CCNode*)
PUBLIC 50690 0 geode::node_ids::detachAndCreateMenu<cocos2d::CCNode*, cocos2d::CCNode*, cocos2d::CCNode*>(cocos2d::CCNode*, char const*, geode::Layout*, cocos2d::CCNode*, cocos2d::CCNode*, cocos2d::CCNode*)
PUBLIC 509e4 0 geode::node_ids::detachAndCreateMenu<cocos2d::CCNode*, cocos2d::CCNode*>(cocos2d::CCNode*, char const*, geode::Layout*, cocos2d::CCNode*, cocos2d::CCNode*)
PUBLIC 50d34 0 __cxx_global_var_init.128
PUBLIC 5139c 0 geode::modifier::ModifyBase<geode::modifier::ModifyDerive<EditorUIIDs, EditorUI> >::~ModifyBase()
PUBLIC 513b8 0 _ZN5geode26geodeInternalProvideIDsForITkNS_12IDProvidableE21ProvideIDsForEditorUIEEvPT_
PUBLIC 51554 0 geode::EnterLayerEvent<ProvideIDsForEditorUI>::~EnterLayerEvent()
PUBLIC 51598 0 geode::node_ids::switchToMenu(cocos2d::CCNode*, cocos2d::CCNode*)
PUBLIC 516b0 0 geode::modifier::ModifyDerive<EditorUIIDs, EditorUI>::apply()
PUBLIC 51a10 0 geode::modifier::ModifyBase<geode::modifier::ModifyDerive<EditorUIIDs, EditorUI> >::apply()
PUBLIC 51a14 0 geode::modifier::AsStaticFunction_init<EditorUIIDs, bool (EditorUIIDs::*)(LevelEditorLayer*)>::Impl<bool (EditorUIIDs::*)(LevelEditorLayer*)>::function(EditorUIIDs*, LevelEditorLayer*)
PUBLIC 51b48 0 _GLOBAL__sub_I_EditorUI.cpp
PUBLIC 51c00 0 __cxx_global_var_init.36
PUBLIC 52160 0 geode::modifier::ModifyBase<geode::modifier::ModifyDerive<EndLevelLayerIDs, EndLevelLayer> >::~ModifyBase()
PUBLIC 5217c 0 std::__ndk1::vector<cocos2d::CCPoint, std::__ndk1::allocator<cocos2d::CCPoint> >::__throw_length_error[abi:ne180000]() const
PUBLIC 52190 0 _ZN5geode26geodeInternalProvideIDsForITkNS_12IDProvidableE26ProvideIDsForEndLevelLayerEEvPT_
PUBLIC 53514 0 geode::EnterLayerEvent<ProvideIDsForEndLevelLayer>::~EnterLayerEvent()
PUBLIC 53558 0 geode::modifier::ModifyDerive<EndLevelLayerIDs, EndLevelLayer>::apply()
PUBLIC 53b58 0 geode::modifier::ModifyBase<geode::modifier::ModifyDerive<EndLevelLayerIDs, EndLevelLayer> >::apply()
PUBLIC 53b5c 0 geode::modifier::ModifyBase<geode::modifier::ModifyDerive<EndLevelLayerIDs, EndLevelLayer> >::setHookPriority(std::__ndk1::basic_string_view<char, std::__ndk1::char_traits<char> >, int)
PUBLIC 53da4 0 geode::modifier::AsStaticFunction_customSetup<EndLevelLayerIDs, void (EndLevelLayerIDs::*)()>::Impl<void (EndLevelLayerIDs::*)()>::function(EndLevelLayerIDs*)
PUBLIC 53ed4 0 geode::modifier::AsStaticFunction_showLayer<EndLevelLayerIDs, void (EndLevelLayerIDs::*)(bool)>::Impl<void (EndLevelLayerIDs::*)(bool)>::function(EndLevelLayerIDs*, bool)
PUBLIC 54558 0 geode::addresser::Addresser::addressOfVirtual<void, EndLevelLayer, >(void (EndLevelLayer::*)())
PUBLIC 54600 0 EndLevelLayer::EndLevelLayer(geode::ZeroConstructorType)
PUBLIC 54690 0 geode::addresser::Addresser::addressOfVirtual<void, EndLevelLayer, bool>(void (EndLevelLayer::*)(bool))
PUBLIC 54738 0 _GLOBAL__sub_I_EndLevelLayer.cpp
PUBLIC 547f4 0 __cxx_global_var_init.10
PUBLIC 54e5c 0 geode::modifier::ModifyBase<geode::modifier::ModifyDerive<FLAlertLayerIDs, FLAlertLayer> >::~ModifyBase()
PUBLIC 54e78 0 _ZN5geode26geodeInternalProvideIDsForITkNS_12IDProvidableE25ProvideIDsForFLAlertLayerEEvPT_
PUBLIC 556f0 0 geode::EnterLayerEvent<ProvideIDsForFLAlertLayer>::~EnterLayerEvent()
PUBLIC 55734 0 geode::modifier::ModifyDerive<FLAlertLayerIDs, FLAlertLayer>::apply()
PUBLIC 563ec 0 geode::modifier::ModifyBase<geode::modifier::ModifyDerive<FLAlertLayerIDs, FLAlertLayer> >::apply()
PUBLIC 563f0 0 geode::modifier::AsStaticFunction_init<FLAlertLayerIDs, bool (FLAlertLayerIDs::*)(FLAlertLayerProtocol*, char const*, gd::string, char const*, char const*, float, bool, float, float)>::Impl<bool (FLAlertLayerIDs::*)(FLAlertLayerProtocol*, char const*, gd::string, char const*, char const*, float, bool, float, float)>::function(FLAlertLayerIDs*, FLAlertLayerProtocol*, char const*, gd::string, char const*, char const*, float, bool, float, float)
PUBLIC 565e0 0 _GLOBAL__sub_I_FLAlertLayer.cpp
PUBLIC 566a0 0 geode::node_ids::switchToMenu(cocos2d::CCNode*, cocos2d::CCNode*)
PUBLIC 567b8 0 __cxx_global_var_init.18
PUBLIC 56e30 0 geode::modifier::ModifyBase<geode::modifier::ModifyDerive<FriendRequestPopupIDs, FriendRequestPopup> >::~ModifyBase()
PUBLIC 56e4c 0 _ZN5geode26geodeInternalProvideIDsForITkNS_12IDProvidableE31ProvideIDsForFriendRequestPopupEEvPT_
PUBLIC 57550 0 geode::EnterLayerEvent<ProvideIDsForFriendRequestPopup>::~EnterLayerEvent()
PUBLIC 57594 0 geode::modifier::ModifyDerive<FriendRequestPopupIDs, FriendRequestPopup>::apply()
PUBLIC 57914 0 geode::modifier::ModifyBase<geode::modifier::ModifyDerive<FriendRequestPopupIDs, FriendRequestPopup> >::apply()
PUBLIC 57918 0 geode::modifier::AsStaticFunction_init<FriendRequestPopupIDs, bool (FriendRequestPopupIDs::*)(GJFriendRequest*)>::Impl<bool (FriendRequestPopupIDs::*)(GJFriendRequest*)>::function(FriendRequestPopupIDs*, GJFriendRequest*)
PUBLIC 57a60 0 _GLOBAL__sub_I_FriendRequestPopup.cpp
PUBLIC 57b1c 0 geode::node_ids::switchToMenu(cocos2d::CCNode*, cocos2d::CCNode*)
PUBLIC 57c34 0 __cxx_global_var_init.19
PUBLIC 582ac 0 geode::modifier::ModifyBase<geode::modifier::ModifyDerive<FriendsProfilePageIDs, FriendsProfilePage> >::~ModifyBase()
PUBLIC 582c8 0 _ZN5geode26geodeInternalProvideIDsForITkNS_12IDProvidableE31ProvideIDsForFriendsProfilePageEEvPT_
PUBLIC 58d58 0 geode::EnterLayerEvent<ProvideIDsForFriendsProfilePage>::~EnterLayerEvent()
PUBLIC 58d9c 0 geode::modifier::ModifyDerive<FriendsProfilePageIDs, FriendsProfilePage>::apply()
PUBLIC 5911c 0 geode::modifier::ModifyBase<geode::modifier::ModifyDerive<FriendsProfilePageIDs, FriendsProfilePage> >::apply()
PUBLIC 59120 0 geode::modifier::AsStaticFunction_init<FriendsProfilePageIDs, bool (FriendsProfilePageIDs::*)(UserListType)>::Impl<bool (FriendsProfilePageIDs::*)(UserListType)>::function(FriendsProfilePageIDs*, UserListType)
PUBLIC 59268 0 _GLOBAL__sub_I_FriendsProfilePage.cpp
PUBLIC 59324 0 __cxx_global_var_init.5
PUBLIC 5999c 0 geode::modifier::ModifyBase<geode::modifier::ModifyDerive<GJCommentListLayerIDs, GJCommentListLayer> >::~ModifyBase()
PUBLIC 599b8 0 _ZN5geode26geodeInternalProvideIDsForITkNS_12IDProvidableE31ProvideIDsForGJCommentListLayerEEvPT_
PUBLIC 59bec 0 geode::EnterLayerEvent<ProvideIDsForGJCommentListLayer>::~EnterLayerEvent()
PUBLIC 59c30 0 geode::modifier::ModifyDerive<GJCommentListLayerIDs, GJCommentListLayer>::apply()
PUBLIC 5a050 0 geode::modifier::ModifyBase<geode::modifier::ModifyDerive<GJCommentListLayerIDs, GJCommentListLayer> >::apply()
PUBLIC 5a054 0 geode::modifier::AsStaticFunction_init<GJCommentListLayerIDs, bool (GJCommentListLayerIDs::*)(BoomListView*, char const*, cocos2d::_ccColor4B, float, float, bool)>::Impl<bool (GJCommentListLayerIDs::*)(BoomListView*, char const*, cocos2d::_ccColor4B, float, float, bool)>::function(GJCommentListLayerIDs*, BoomListView*, char const*, cocos2d::_ccColor4B, float, float, bool)
PUBLIC 5a1a0 0 _GLOBAL__sub_I_GJCommentListLayer.cpp
PUBLIC 5a25c 0 __cxx_global_var_init.5
PUBLIC 5a8c4 0 geode::modifier::ModifyBase<geode::modifier::ModifyDerive<GJDropDownLayerIDs, GJDropDownLayer> >::~ModifyBase()
PUBLIC 5a8e0 0 _ZN5geode26geodeInternalProvideIDsForITkNS_12IDProvidableE28ProvideIDsForGJDropDownLayerEEvPT_
PUBLIC 5ab98 0 geode::EnterLayerEvent<ProvideIDsForGJDropDownLayer>::~EnterLayerEvent()
PUBLIC 5abdc 0 geode::modifier::ModifyDerive<GJDropDownLayerIDs, GJDropDownLayer>::apply()
PUBLIC 5af94 0 geode::modifier::ModifyBase<geode::modifier::ModifyDerive<GJDropDownLayerIDs, GJDropDownLayer> >::apply()
PUBLIC 5af98 0 geode::modifier::AsStaticFunction_init<GJDropDownLayerIDs, bool (GJDropDownLayerIDs::*)(char const*, float, bool)>::Impl<bool (GJDropDownLayerIDs::*)(char const*, float, bool)>::function(GJDropDownLayerIDs*, char const*, float, bool)
PUBLIC 5b14c 0 _GLOBAL__sub_I_GJDropDownLayer.cpp
PUBLIC 5b208 0 geode::node_ids::setIDs<char const*, char const*, char const*, char const*, char const*, char const*, char const*, char const*, char const*, char const*, char const*, char const*, char const*>(cocos2d::CCNode*, int, char const*, char const*, char const*, char const*, char const*, char const*, char const*, char const*, char const*, char const*, char const*, char const*, char const*)
PUBLIC 5b348 0 geode::node_ids::detachAndCreateMenu<cocos2d::CCNode*, >(cocos2d::CCNode*, char const*, geode::Layout*, cocos2d::CCNode*, )
PUBLIC 5b58c 0 __cxx_global_var_init.52
PUBLIC 5bbf8 0 geode::modifier::ModifyBase<geode::modifier::ModifyDerive<GJGarageLayerIDs, GJGarageLayer> >::~ModifyBase()
PUBLIC 5bc14 0 _ZN5geode26geodeInternalProvideIDsForITkNS_12IDProvidableE26ProvideIDsForGJGarageLayerEEvPT_
PUBLIC 5c6c4 0 geode::EnterLayerEvent<ProvideIDsForGJGarageLayer>::~EnterLayerEvent()
PUBLIC 5c708 0 geode::modifier::ModifyDerive<GJGarageLayerIDs, GJGarageLayer>::apply()
PUBLIC 5cd3c 0 geode::modifier::ModifyBase<geode::modifier::ModifyDerive<GJGarageLayerIDs, GJGarageLayer> >::apply()
PUBLIC 5cd40 0 geode::modifier::AsStaticFunction_init<GJGarageLayerIDs, bool (GJGarageLayerIDs::*)()>::Impl<bool (GJGarageLayerIDs::*)()>::function(GJGarageLayerIDs*)
PUBLIC 5ce84 0 geode::modifier::AsStaticFunction_setupPage<GJGarageLayerIDs, void (GJGarageLayerIDs::*)(int, IconType)>::Impl<void (GJGarageLayerIDs::*)(int, IconType)>::function(GJGarageLayerIDs*, int, IconType)
PUBLIC 5cecc 0 geode::addresser::Addresser::addressOfVirtual<bool, GJGarageLayer, >(bool (GJGarageLayer::*)())
PUBLIC 5cf74 0 GJGarageLayer::GJGarageLayer(geode::ZeroConstructorType)
PUBLIC 5d028 0 _GLOBAL__sub_I_GJGarageLayer.cpp
PUBLIC 5d0e4 0 __cxx_global_var_init.5
PUBLIC 5d750 0 geode::modifier::ModifyBase<geode::modifier::ModifyDerive<GJGroundLayerIDs, GJGroundLayer> >::~ModifyBase()
PUBLIC 5d76c 0 _ZN5geode26geodeInternalProvideIDsForITkNS_12IDProvidableE26ProvideIDsForGJGroundLayerEEvPT_
PUBLIC 5d994 0 geode::EnterLayerEvent<ProvideIDsForGJGroundLayer>::~EnterLayerEvent()
PUBLIC 5d9d8 0 geode::modifier::ModifyDerive<GJGroundLayerIDs, GJGroundLayer>::apply()
PUBLIC 5dd88 0 geode::modifier::ModifyBase<geode::modifier::ModifyDerive<GJGroundLayerIDs, GJGroundLayer> >::apply()
PUBLIC 5dd8c 0 geode::modifier::AsStaticFunction_init<GJGroundLayerIDs, bool (GJGroundLayerIDs::*)(int, int)>::Impl<bool (GJGroundLayerIDs::*)(int, int)>::function(GJGroundLayerIDs*, int, int)
PUBLIC 5ded0 0 _GLOBAL__sub_I_GJGroundLayer.cpp
PUBLIC 5df8c 0 __cxx_global_var_init.10
PUBLIC 5e5f0 0 geode::modifier::ModifyBase<geode::modifier::ModifyDerive<GJListLayerIDs, GJListLayer> >::~ModifyBase()
PUBLIC 5e60c 0 geode::modifier::FieldIntermediate<GJListLayerIDs, GJListLayer>::self()
PUBLIC 5e794 0 geode::modifier::FieldIntermediate<GJListLayerIDs, GJListLayer>::fieldDestructor(void*)
PUBLIC 5e798 0 geode::modifier::ModifyDerive<GJListLayerIDs, GJListLayer>::apply()
PUBLIC 5eb98 0 geode::modifier::ModifyBase<geode::modifier::ModifyDerive<GJListLayerIDs, GJListLayer> >::apply()
PUBLIC 5eb9c 0 geode::modifier::AsStaticFunction_init<GJListLayerIDs, bool (GJListLayerIDs::*)(BoomListView*, char const*, cocos2d::_ccColor4B, float, float, int)>::Impl<bool (GJListLayerIDs::*)(BoomListView*, char const*, cocos2d::_ccColor4B, float, float, int)>::function(GJListLayerIDs*, BoomListView*, char const*, cocos2d::_ccColor4B, float, float, int)
PUBLIC 5ecf8 0 _ZN5geode26geodeInternalProvideIDsForITkNS_12IDProvidableE24ProvideIDsForGJListLayerEEvPT_
PUBLIC 5efe4 0 geode::EnterLayerEvent<ProvideIDsForGJListLayer>::~EnterLayerEvent()
PUBLIC 5f028 0 _GLOBAL__sub_I_GJListLayer.cpp
PUBLIC 5f0e8 0 geode::node_ids::switchToMenu(cocos2d::CCNode*, cocos2d::CCNode*)
PUBLIC 5f200 0 __cxx_global_var_init.11
PUBLIC 5f878 0 geode::modifier::ModifyBase<geode::modifier::ModifyDerive<GJMessageCellIDs, GJMessageCell> >::~ModifyBase()
PUBLIC 5f894 0 _ZN5geode26geodeInternalProvideIDsForITkNS_12IDProvidableE26ProvideIDsForGJMessageCellEEvPT_
PUBLIC 5fd98 0 geode::EnterLayerEvent<ProvideIDsForGJMessageCell>::~EnterLayerEvent()
PUBLIC 5fddc 0 geode::modifier::ModifyDerive<GJMessageCellIDs, GJMessageCell>::apply()
PUBLIC 60164 0 geode::modifier::ModifyBase<geode::modifier::ModifyDerive<GJMessageCellIDs, GJMessageCell> >::apply()
PUBLIC 60168 0 geode::modifier::AsStaticFunction_loadFromMessage<GJMessageCellIDs, void (GJMessageCellIDs::*)(GJUserMessage*)>::Impl<void (GJMessageCellIDs::*)(GJUserMessage*)>::function(GJMessageCellIDs*, GJUserMessage*)
PUBLIC 60298 0 _GLOBAL__sub_I_GJMessageCell.cpp
PUBLIC 60354 0 __cxx_global_var_init.19
PUBLIC 609cc 0 geode::modifier::ModifyBase<geode::modifier::ModifyDerive<GJScoreCellIDs, GJScoreCell> >::~ModifyBase()
PUBLIC 609e8 0 _ZN5geode26geodeInternalProvideIDsForITkNS_12IDProvidableE24ProvideIDsForGJScoreCellEEvPT_
PUBLIC 60f18 0 geode::EnterLayerEvent<ProvideIDsForGJScoreCell>::~EnterLayerEvent()
PUBLIC 60f5c 0 geode::modifier::ModifyDerive<GJScoreCellIDs, GJScoreCell>::apply()
PUBLIC 612e4 0 geode::modifier::ModifyBase<geode::modifier::ModifyDerive<GJScoreCellIDs, GJScoreCell> >::apply()
PUBLIC 612e8 0 geode::modifier::AsStaticFunction_loadFromScore<GJScoreCellIDs, void (GJScoreCellIDs::*)(GJUserScore*)>::Impl<void (GJScoreCellIDs::*)(GJUserScore*)>::function(GJScoreCellIDs*, GJUserScore*)
PUBLIC 61424 0 _GLOBAL__sub_I_GJScoreCell.cpp
PUBLIC 614e4 0 __cxx_global_var_init
PUBLIC 61a44 0 geode::modifier::ModifyBase<geode::modifier::ModifyDerive<GameToolboxIDs, GameToolbox> >::~ModifyBase()
PUBLIC 61a60 0 geode::modifier::ModifyDerive<GameToolboxIDs, GameToolbox>::apply()
PUBLIC 6208c 0 geode::modifier::ModifyBase<geode::modifier::ModifyDerive<GameToolboxIDs, GameToolbox> >::apply()
PUBLIC 62090 0 geode::modifier::ModifyBase<geode::modifier::ModifyDerive<GameToolboxIDs, GameToolbox> >::setHookPriority(std::__ndk1::basic_string_view<char, std::__ndk1::char_traits<char> >, int)
PUBLIC 622d8 0 geode::modifier::AsStaticFunction_addBackButton<GameToolboxIDs, void (*)(cocos2d::CCLayer*, cocos2d::CCMenuItem*)>::Impl<void (*)(cocos2d::CCLayer*, cocos2d::CCMenuItem*)>::function(cocos2d::CCLayer*, cocos2d::CCMenuItem*)
PUBLIC 623c4 0 geode::modifier::AsStaticFunction_addRThumbScrollButton<GameToolboxIDs, void (*)(cocos2d::CCLayer*)>::Impl<void (*)(cocos2d::CCLayer*)>::function(cocos2d::CCLayer*)
PUBLIC 625a8 0 __cxx_global_var_init.10
PUBLIC 62b08 0 geode::modifier::ModifyBase<geode::modifier::ModifyDerive<GauntletLayerIDs, GauntletLayer> >::~ModifyBase()
PUBLIC 62b24 0 _ZN5geode26geodeInternalProvideIDsForITkNS_12IDProvidableE26ProvideIDsForGauntletLayerEEvPT_
PUBLIC 63b70 0 geode::EnterLayerEvent<ProvideIDsForGauntletLayer>::~EnterLayerEvent()
PUBLIC 63bb4 0 geode::modifier::ModifyDerive<GauntletLayerIDs, GauntletLayer>::apply()
PUBLIC 64254 0 geode::modifier::ModifyBase<geode::modifier::ModifyDerive<GauntletLayerIDs, GauntletLayer> >::apply()
PUBLIC 64258 0 geode::modifier::ModifyBase<geode::modifier::ModifyDerive<GauntletLayerIDs, GauntletLayer> >::setHookPriority(std::__ndk1::basic_string_view<char, std::__ndk1::char_traits<char> >, int)
PUBLIC 644a0 0 geode::modifier::AsStaticFunction_loadLevelsFinished<GauntletLayerIDs, void (GauntletLayerIDs::*)(cocos2d::CCArray*, char const*, int)>::Impl<void (GauntletLayerIDs::*)(cocos2d::CCArray*, char const*, int)>::function(GauntletLayerIDs*, cocos2d::CCArray*, char const*, int)
PUBLIC 64db0 0 geode::modifier::AsStaticFunction_init<GauntletLayerIDs, bool (GauntletLayerIDs::*)(GauntletType)>::Impl<bool (GauntletLayerIDs::*)(GauntletType)>::function(GauntletLayerIDs*, GauntletType)
PUBLIC 64ef4 0 geode::addresser::Addresser::addressOfVirtual<void, GauntletLayer, cocos2d::CCArray*, char const*, int>(void (GauntletLayer::*)(cocos2d::CCArray*, char const*, int))
PUBLIC 64f9c 0 GauntletLayer::GauntletLayer(geode::ZeroConstructorType)
PUBLIC 65034 0 _GLOBAL__sub_I_GauntletLayer.cpp
PUBLIC 650f0 0 __cxx_global_var_init.20
PUBLIC 65758 0 geode::modifier::ModifyBase<geode::modifier::ModifyDerive<GauntletNodeIDs, GauntletNode> >::~ModifyBase()
PUBLIC 65774 0 geode::modifier::FieldIntermediate<GauntletNodeIDs, GauntletNode>::self()
PUBLIC 658fc 0 geode::modifier::FieldIntermediate<GauntletNodeIDs, GauntletNode>::fieldDestructor(void*)
PUBLIC 65900 0 geode::modifier::ModifyDerive<GauntletNodeIDs, GauntletNode>::apply()
PUBLIC 65c64 0 geode::modifier::ModifyBase<geode::modifier::ModifyDerive<GauntletNodeIDs, GauntletNode> >::apply()
PUBLIC 65c68 0 geode::modifier::AsStaticFunction_init<GauntletNodeIDs, bool (GauntletNodeIDs::*)(GJMapPack*)>::Impl<bool (GauntletNodeIDs::*)(GJMapPack*)>::function(GauntletNodeIDs*, GJMapPack*)
PUBLIC 65dc0 0 _ZN5geode26geodeInternalProvideIDsForITkNS_12IDProvidableE25ProvideIDsForGauntletNodeEEvPT_
PUBLIC 663f0 0 geode::EnterLayerEvent<ProvideIDsForGauntletNode>::~EnterLayerEvent()
PUBLIC 66434 0 _GLOBAL__sub_I_GauntletNode.cpp
PUBLIC 664f4 0 geode::node_ids::detachAndCreateMenu<cocos2d::CCNode*, >(cocos2d::CCNode*, char const*, geode::Layout*, cocos2d::CCNode*, )
PUBLIC 66804 0 __cxx_global_var_init.20
PUBLIC 66d64 0 geode::modifier::ModifyBase<geode::modifier::ModifyDerive<GauntletSelectLayerIDs, GauntletSelectLayer> >::~ModifyBase()
PUBLIC 66d80 0 _ZN5geode26geodeInternalProvideIDsForITkNS_12IDProvidableE32ProvideIDsForGauntletSelectLayerEEvPT_
PUBLIC 67614 0 geode::EnterLayerEvent<ProvideIDsForGauntletSelectLayer>::~EnterLayerEvent()
PUBLIC 67658 0 geode::modifier::ModifyDerive<GauntletSelectLayerIDs, GauntletSelectLayer>::apply()
PUBLIC 67c84 0 geode::modifier::ModifyBase<geode::modifier::ModifyDerive<GauntletSelectLayerIDs, GauntletSelectLayer> >::apply()
PUBLIC 67c88 0 geode::modifier::ModifyBase<geode::modifier::ModifyDerive<GauntletSelectLayerIDs, GauntletSelectLayer> >::setHookPriority(std::__ndk1::basic_string_view<char, std::__ndk1::char_traits<char> >, int)
PUBLIC 67ed0 0 geode::modifier::AsStaticFunction_init<GauntletSelectLayerIDs, bool (GauntletSelectLayerIDs::*)(int)>::Impl<bool (GauntletSelectLayerIDs::*)(int)>::function(GauntletSelectLayerIDs*, int)
PUBLIC 68020 0 geode::modifier::AsStaticFunction_setupGauntlets<GauntletSelectLayerIDs, void (GauntletSelectLayerIDs::*)()>::Impl<void (GauntletSelectLayerIDs::*)()>::function(GauntletSelectLayerIDs*)
PUBLIC 68918 0 _GLOBAL__sub_I_GauntletSelectLayer.cpp
PUBLIC 689d8 0 ProvideIDsForInfoLayer::provide()
PUBLIC 6aba4 0 std::__ndk1::basic_string<char, std::__ndk1::char_traits<char>, std::__ndk1::allocator<char> >::basic_string[abi:ne180000]<0>()
PUBLIC 6ac40 0 __cxx_global_var_init.41
PUBLIC 6b1a0 0 geode::modifier::ModifyBase<geode::modifier::ModifyDerive<InfoLayerIDs, InfoLayer> >::~ModifyBase()
PUBLIC 6b1bc 0 _ZN5geode26geodeInternalProvideIDsForITkNS_12IDProvidableE22ProvideIDsForInfoLayerEEvPT_
PUBLIC 6b378 0 geode::EnterLayerEvent<ProvideIDsForInfoLayer>::~EnterLayerEvent()
PUBLIC 6b3bc 0 geode::modifier::ModifyDerive<InfoLayerIDs, InfoLayer>::apply()
PUBLIC 6ba48 0 geode::modifier::ModifyBase<geode::modifier::ModifyDerive<InfoLayerIDs, InfoLayer> >::apply()
PUBLIC 6ba4c 0 geode::modifier::ModifyBase<geode::modifier::ModifyDerive<InfoLayerIDs, InfoLayer> >::setHookPriority(std::__ndk1::basic_string_view<char, std::__ndk1::char_traits<char> >, int)
PUBLIC 6bc94 0 geode::modifier::AsStaticFunction_init<InfoLayerIDs, bool (InfoLayerIDs::*)(GJGameLevel*, GJUserScore*, GJLevelList*)>::Impl<bool (InfoLayerIDs::*)(GJGameLevel*, GJUserScore*, GJLevelList*)>::function(InfoLayerIDs*, GJGameLevel*, GJUserScore*, GJLevelList*)
PUBLIC 6bdcc 0 geode::modifier::AsStaticFunction_setupCommentsBrowser<InfoLayerIDs, void (InfoLayerIDs::*)(cocos2d::CCArray*)>::Impl<void (InfoLayerIDs::*)(cocos2d::CCArray*)>::function(InfoLayerIDs*, cocos2d::CCArray*)
PUBLIC 6bdf4 0 _GLOBAL__sub_I_InfoLayer.cpp
PUBLIC 6beac 0 __cxx_global_var_init.12
PUBLIC 6c518 0 geode::modifier::ModifyBase<geode::modifier::ModifyDerive<ItemInfoPopupIDs, ItemInfoPopup> >::~ModifyBase()
PUBLIC 6c534 0 _ZN5geode26geodeInternalProvideIDsForITkNS_12IDProvidableE26ProvideIDsForItemInfoPopupEEvPT_
PUBLIC 6cf94 0 geode::EnterLayerEvent<ProvideIDsForItemInfoPopup>::~EnterLayerEvent()
PUBLIC 6cfd8 0 geode::stl::_rb_insert_rebalance(bool, geode::stl::_rb_tree_base*, geode::stl::_rb_tree_base*, geode::stl::_rb_tree_base&)
PUBLIC 6d290 0 geode::modifier::ModifyDerive<ItemInfoPopupIDs, ItemInfoPopup>::apply()
PUBLIC 6d640 0 geode::modifier::ModifyBase<geode::modifier::ModifyDerive<ItemInfoPopupIDs, ItemInfoPopup> >::apply()
PUBLIC 6d644 0 geode::modifier::AsStaticFunction_init<ItemInfoPopupIDs, bool (ItemInfoPopupIDs::*)(int, UnlockType)>::Impl<bool (ItemInfoPopupIDs::*)(int, UnlockType)>::function(ItemInfoPopupIDs*, int, UnlockType)
PUBLIC 6d788 0 _GLOBAL__sub_I_ItemInfoPopup.cpp
PUBLIC 6d844 0 __cxx_global_var_init.14
PUBLIC 6debc 0 geode::modifier::ModifyBase<geode::modifier::ModifyDerive<LeaderboardsLayerIDs, LeaderboardsLayer> >::~ModifyBase()
PUBLIC 6ded8 0 _ZN5geode26geodeInternalProvideIDsForITkNS_12IDProvidableE30ProvideIDsForLeaderboardsLayerEEvPT_
PUBLIC 6e2c4 0 geode::EnterLayerEvent<ProvideIDsForLeaderboardsLayer>::~EnterLayerEvent()
PUBLIC 6e308 0 geode::modifier::ModifyDerive<LeaderboardsLayerIDs, LeaderboardsLayer>::apply()
PUBLIC 6e688 0 geode::modifier::ModifyBase<geode::modifier::ModifyDerive<LeaderboardsLayerIDs, LeaderboardsLayer> >::apply()
PUBLIC 6e68c 0 geode::modifier::AsStaticFunction_init<LeaderboardsLayerIDs, bool (LeaderboardsLayerIDs::*)(LeaderboardState)>::Impl<bool (LeaderboardsLayerIDs::*)(LeaderboardState)>::function(LeaderboardsLayerIDs*, LeaderboardState)
PUBLIC 6e7cc 0 _GLOBAL__sub_I_LeaderboardsLayer.cpp
PUBLIC 6e884 0 __cxx_global_var_init.20
PUBLIC 6eefc 0 geode::modifier::ModifyBase<geode::modifier::ModifyDerive<LevelAreaInnerLayerIDs, LevelAreaInnerLayer> >::~ModifyBase()
PUBLIC 6ef18 0 _ZN5geode26geodeInternalProvideIDsForITkNS_12IDProvidableE32ProvideIDsForLevelAreaInnerLayerEEvPT_
PUBLIC 6fcfc 0 geode::EnterLayerEvent<ProvideIDsForLevelAreaInnerLayer>::~EnterLayerEvent()
PUBLIC 6fd40 0 geode::modifier::ModifyDerive<LevelAreaInnerLayerIDs, LevelAreaInnerLayer>::apply()
PUBLIC 700c8 0 geode::modifier::ModifyBase<geode::modifier::ModifyDerive<LevelAreaInnerLayerIDs, LevelAreaInnerLayer> >::apply()
PUBLIC 700cc 0 geode::modifier::AsStaticFunction_init<LevelAreaInnerLayerIDs, bool (LevelAreaInnerLayerIDs::*)(bool)>::Impl<bool (LevelAreaInnerLayerIDs::*)(bool)>::function(LevelAreaInnerLayerIDs*, bool)
PUBLIC 7021c 0 _GLOBAL__sub_I_LevelAreaInnerLayer.cpp
PUBLIC 702dc 0 __cxx_global_var_init.24
PUBLIC 70948 0 geode::modifier::ModifyBase<geode::modifier::ModifyDerive<LevelAreaLayerIDs, LevelAreaLayer> >::~ModifyBase()
PUBLIC 70964 0 _ZN5geode26geodeInternalProvideIDsForITkNS_12IDProvidableE27ProvideIDsForLevelAreaLayerEEvPT_
PUBLIC 71e98 0 geode::EnterLayerEvent<ProvideIDsForLevelAreaLayer>::~EnterLayerEvent()
PUBLIC 71edc 0 geode::modifier::ModifyDerive<LevelAreaLayerIDs, LevelAreaLayer>::apply()
PUBLIC 721f8 0 geode::modifier::ModifyBase<geode::modifier::ModifyDerive<LevelAreaLayerIDs, LevelAreaLayer> >::apply()
PUBLIC 721fc 0 geode::modifier::AsStaticFunction_init<LevelAreaLayerIDs, bool (LevelAreaLayerIDs::*)()>::Impl<bool (LevelAreaLayerIDs::*)()>::function(LevelAreaLayerIDs*)
PUBLIC 72340 0 geode::addresser::Addresser::addressOfVirtual<bool, LevelAreaLayer, >(bool (LevelAreaLayer::*)())
PUBLIC 723e8 0 LevelAreaLayer::LevelAreaLayer(geode::ZeroConstructorType)
PUBLIC 72478 0 _GLOBAL__sub_I_LevelAreaLayer.cpp
PUBLIC 72534 0 ProvideIDsForLevelBrowserLayer::provide()
PUBLIC 75220 0 geode::node_ids::detachAndCreateMenu<cocos2d::CCNode*, >(cocos2d::CCNode*, char const*, geode::Layout*, cocos2d::CCNode*, )
PUBLIC 75464 0 __cxx_global_var_init.46
PUBLIC 75adc 0 geode::modifier::ModifyBase<geode::modifier::ModifyDerive<LevelBrowserLayerIDs, LevelBrowserLayer> >::~ModifyBase()
PUBLIC 75af8 0 _ZN5geode26geodeInternalProvideIDsForITkNS_12IDProvidableE30ProvideIDsForLevelBrowserLayerEEvPT_
PUBLIC 75cc8 0 geode::EnterLayerEvent<ProvideIDsForLevelBrowserLayer>::~EnterLayerEvent()
PUBLIC 75d0c 0 geode::node_ids::switchToMenu(cocos2d::CCNode*, cocos2d::CCNode*)
PUBLIC 75e24 0 geode::modifier::ModifyDerive<LevelBrowserLayerIDs, LevelBrowserLayer>::apply()
PUBLIC 761a4 0 geode::modifier::ModifyBase<geode::modifier::ModifyDerive<LevelBrowserLayerIDs, LevelBrowserLayer> >::apply()
PUBLIC 761a8 0 geode::modifier::AsStaticFunction_init<LevelBrowserLayerIDs, bool (LevelBrowserLayerIDs::*)(GJSearchObject*)>::Impl<bool (LevelBrowserLayerIDs::*)(GJSearchObject*)>::function(LevelBrowserLayerIDs*, GJSearchObject*)
PUBLIC 762e8 0 _GLOBAL__sub_I_LevelBrowserLayer.cpp
PUBLIC 763a0 0 __cxx_global_var_init.36
PUBLIC 7696c 0 geode::modifier::ModifyBase<geode::modifier::ModifyDerive<LevelCellIDs, LevelCell> >::~ModifyBase()
PUBLIC 76988 0 geode::modifier::FieldIntermediate<LevelCellIDs, LevelCell>::self()
PUBLIC 76b14 0 geode::modifier::FieldIntermediate<LevelCellIDs, LevelCell>::fieldDestructor(void*)
PUBLIC 76b18 0 geode::modifier::ModifyDerive<LevelCellIDs, LevelCell>::apply()
PUBLIC 772cc 0 geode::modifier::ModifyBase<geode::modifier::ModifyDerive<LevelCellIDs, LevelCell> >::apply()
PUBLIC 772d0 0 geode::modifier::ModifyBase<geode::modifier::ModifyDerive<LevelCellIDs, LevelCell> >::setHookPriority(std::__ndk1::basic_string_view<char, std::__ndk1::char_traits<char> >, int)
PUBLIC 77518 0 geode::Hook::create<void (*)(LevelCellIDs*)>(void*, void (*)(LevelCellIDs*), std::__ndk1::basic_string<char, std::__ndk1::char_traits<char>, std::__ndk1::allocator<char> > const&, tulip::hook::TulipConvention, tulip::hook::HookMetadata const&)
PUBLIC 7764c 0 geode::modifier::AsStaticFunction_loadCustomLevelCell<LevelCellIDs, void (LevelCellIDs::*)()>::Impl<void (LevelCellIDs::*)()>::function(LevelCellIDs*)
PUBLIC 77680 0 geode::modifier::AsStaticFunction_loadFromLevel<LevelCellIDs, void (LevelCellIDs::*)(GJGameLevel*)>::Impl<void (LevelCellIDs::*)(GJGameLevel*)>::function(LevelCellIDs*, GJGameLevel*)
PUBLIC 77748 0 geode::modifier::AsStaticFunction_loadLocalLevelCell<LevelCellIDs, void (LevelCellIDs::*)()>::Impl<void (LevelCellIDs::*)()>::function(LevelCellIDs*)
PUBLIC 77780 0 _ZNK5geode7NodeIDs7provideITkNS_12IDProvidableE12LevelCellIDsEEbPT_
PUBLIC 778a4 0 _ZN5geode26geodeInternalProvideIDsForITkNS_12IDProvidableE22ProvideIDsForLevelCellEEvPT_
PUBLIC 7932c 0 geode::EnterLayerEvent<ProvideIDsForLevelCell>::~EnterLayerEvent()
PUBLIC 79370 0 _GLOBAL__sub_I_LevelCell.cpp
PUBLIC 79428 0 _ZN5geode8node_ids9setIDSafeI15GJEffectManagerQsr3stdE12is_base_of_vIN7cocos2d6CCNodeET_EEEPS5_PS4_iPKc
PUBLIC 79550 0 __cxx_global_var_init.4
PUBLIC 79bb8 0 geode::modifier::ModifyBase<geode::modifier::ModifyDerive<LevelEditorLayerIDs, LevelEditorLayer> >::~ModifyBase()
PUBLIC 79bd4 0 _ZN5geode26geodeInternalProvideIDsForITkNS_12IDProvidableE29ProvideIDsForLevelEditorLayerEEvPT_
PUBLIC 79e9c 0 geode::EnterLayerEvent<ProvideIDsForLevelEditorLayer>::~EnterLayerEvent()
PUBLIC 79ee0 0 cocos2d::CCNode::getChildByType<GJEffectManager, GJEffectManager>(int)
PUBLIC 7a034 0 geode::modifier::ModifyDerive<LevelEditorLayerIDs, LevelEditorLayer>::apply()
PUBLIC 7a3d8 0 geode::modifier::ModifyBase<geode::modifier::ModifyDerive<LevelEditorLayerIDs, LevelEditorLayer> >::apply()
PUBLIC 7a3dc 0 geode::modifier::AsStaticFunction_init<LevelEditorLayerIDs, bool (LevelEditorLayerIDs::*)(GJGameLevel*, bool)>::Impl<bool (LevelEditorLayerIDs::*)(GJGameLevel*, bool)>::function(LevelEditorLayerIDs*, GJGameLevel*, bool)
PUBLIC 7a514 0 _GLOBAL__sub_I_LevelEditorLayer.cpp
PUBLIC 7a5c8 0 __cxx_global_var_init.65
PUBLIC 7ac34 0 geode::modifier::ModifyBase<geode::modifier::ModifyDerive<LevelInfoLayerIDs, LevelInfoLayer> >::~ModifyBase()
PUBLIC 7ac50 0 _ZN5geode26geodeInternalProvideIDsForITkNS_12IDProvidableE27ProvideIDsForLevelInfoLayerEEvPT_
PUBLIC 7c4c0 0 geode::EnterLayerEvent<ProvideIDsForLevelInfoLayer>::~EnterLayerEvent()
PUBLIC 7c504 0 geode::modifier::ModifyDerive<LevelInfoLayerIDs, LevelInfoLayer>::apply()
PUBLIC 7cef4 0 geode::modifier::ModifyBase<geode::modifier::ModifyDerive<LevelInfoLayerIDs, LevelInfoLayer> >::apply()
PUBLIC 7cef8 0 geode::modifier::AsStaticFunction_init<LevelInfoLayerIDs, bool (LevelInfoLayerIDs::*)(GJGameLevel*, bool)>::Impl<bool (LevelInfoLayerIDs::*)(GJGameLevel*, bool)>::function(LevelInfoLayerIDs*, GJGameLevel*, bool)
PUBLIC 7d03c 0 geode::Hook::create<void (*)(LevelInfoLayerIDs*)>(void*, void (*)(LevelInfoLayerIDs*), std::__ndk1::basic_string<char, std::__ndk1::char_traits<char>, std::__ndk1::allocator<char> > const&, tulip::hook::TulipConvention, tulip::hook::HookMetadata const&)
PUBLIC 7d170 0 geode::modifier::AsStaticFunction_setupPlatformerStats<LevelInfoLayerIDs, void (LevelInfoLayerIDs::*)()>::Impl<void (LevelInfoLayerIDs::*)()>::function(LevelInfoLayerIDs*)
PUBLIC 7d2e4 0 geode::modifier::AsStaticFunction_setupProgressBars<LevelInfoLayerIDs, void (LevelInfoLayerIDs::*)()>::Impl<void (LevelInfoLayerIDs::*)()>::function(LevelInfoLayerIDs*)
PUBLIC 7d610 0 geode::modifier::AsStaticFunction_updateLabelValues<LevelInfoLayerIDs, void (LevelInfoLayerIDs::*)()>::Impl<void (LevelInfoLayerIDs::*)()>::function(LevelInfoLayerIDs*)
PUBLIC 7d820 0 _GLOBAL__sub_I_LevelInfoLayer.cpp
PUBLIC 7d8dc 0 __cxx_global_var_init.17
PUBLIC 7df44 0 geode::modifier::ModifyBase<geode::modifier::ModifyDerive<LevelLeaderboardIDs, LevelLeaderboard> >::~ModifyBase()
PUBLIC 7df60 0 _ZN5geode26geodeInternalProvideIDsForITkNS_12IDProvidableE29ProvideIDsForLevelLeaderboardEEvPT_
PUBLIC 7ef9c 0 geode::EnterLayerEvent<ProvideIDsForLevelLeaderboard>::~EnterLayerEvent()
PUBLIC 7efe0 0 geode::modifier::ModifyDerive<LevelLeaderboardIDs, LevelLeaderboard>::apply()
PUBLIC 7f398 0 geode::modifier::ModifyBase<geode::modifier::ModifyDerive<LevelLeaderboardIDs, LevelLeaderboard> >::apply()
PUBLIC 7f39c 0 geode::modifier::AsStaticFunction_init<LevelLeaderboardIDs, bool (LevelLeaderboardIDs::*)(GJGameLevel*, LevelLeaderboardType, LevelLeaderboardMode)>::Impl<bool (LevelLeaderboardIDs::*)(GJGameLevel*, LevelLeaderboardType, LevelLeaderboardMode)>::function(LevelLeaderboardIDs*, GJGameLevel*, LevelLeaderboardType, LevelLeaderboardMode)
PUBLIC 7f4d4 0 _GLOBAL__sub_I_LevelLeaderboard.cpp
PUBLIC 7f588 0 __cxx_global_var_init.32
PUBLIC 7fc00 0 geode::modifier::ModifyBase<geode::modifier::ModifyDerive<LevelListCellIDs, LevelListCell> >::~ModifyBase()
PUBLIC 7fc1c 0 _ZN5geode26geodeInternalProvideIDsForITkNS_12IDProvidableE26ProvideIDsForLevelListCellEEvPT_
PUBLIC 80954 0 geode::EnterLayerEvent<ProvideIDsForLevelListCell>::~EnterLayerEvent()
PUBLIC 80998 0 std::__ndk1::__tree<std::__ndk1::__value_type<char const*, char const*>, std::__ndk1::__map_value_compare<char const*, std::__ndk1::__value_type<char const*, char const*>, std::__ndk1::less<char const*>, true>, std::__ndk1::allocator<std::__ndk1::__value_type<char const*, char const*> > >::destroy(std::__ndk1::__tree_node<std::__ndk1::__value_type<char const*, char const*>, void*>*)
PUBLIC 809d4 0 geode::modifier::ModifyDerive<LevelListCellIDs, LevelListCell>::apply()
PUBLIC 80d5c 0 geode::modifier::ModifyBase<geode::modifier::ModifyDerive<LevelListCellIDs, LevelListCell> >::apply()
PUBLIC 80d60 0 geode::modifier::AsStaticFunction_loadFromList<LevelListCellIDs, void (LevelListCellIDs::*)(GJLevelList*)>::Impl<void (LevelListCellIDs::*)(GJLevelList*)>::function(LevelListCellIDs*, GJLevelList*)
PUBLIC 80e90 0 _GLOBAL__sub_I_LevelListCell.cpp
PUBLIC 80f4c 0 geode::node_ids::switchToMenu(cocos2d::CCNode*, cocos2d::CCNode*)
PUBLIC 81064 0 __cxx_global_var_init.25
PUBLIC 816d0 0 geode::modifier::ModifyBase<geode::modifier::ModifyDerive<LevelListLayerIDs, LevelListLayer> >::~ModifyBase()
PUBLIC 816ec 0 _ZN5geode26geodeInternalProvideIDsForITkNS_12IDProvidableE27ProvideIDsForLevelListLayerEEvPT_
PUBLIC 81e74 0 geode::EnterLayerEvent<ProvideIDsForLevelListLayer>::~EnterLayerEvent()
PUBLIC 81eb8 0 geode::modifier::ModifyDerive<LevelListLayerIDs, LevelListLayer>::apply()
PUBLIC 824b8 0 geode::modifier::ModifyBase<geode::modifier::ModifyDerive<LevelListLayerIDs, LevelListLayer> >::apply()
PUBLIC 824bc 0 geode::modifier::AsStaticFunction_init<LevelListLayerIDs, bool (LevelListLayerIDs::*)(GJLevelList*)>::Impl<bool (LevelListLayerIDs::*)(GJLevelList*)>::function(LevelListLayerIDs*, GJLevelList*)
PUBLIC 82608 0 geode::modifier::AsStaticFunction_updateStatsArt<LevelListLayerIDs, void (LevelListLayerIDs::*)()>::Impl<void (LevelListLayerIDs::*)()>::function(LevelListLayerIDs*)
PUBLIC 82f54 0 LevelListLayerIDs::createLeftMenu()
PUBLIC 830bc 0 _GLOBAL__sub_I_LevelListLayer.cpp
PUBLIC 83178 0 __cxx_global_var_init.19
PUBLIC 837b0 0 geode::modifier::ModifyBase<geode::modifier::ModifyDerive<LevelPageIDs, LevelPage> >::~ModifyBase()
PUBLIC 837cc 0 _ZN5geode26geodeInternalProvideIDsForITkNS_12IDProvidableE22ProvideIDsForLevelPageEEvPT_
PUBLIC 83e50 0 geode::EnterLayerEvent<ProvideIDsForLevelPage>::~EnterLayerEvent()
PUBLIC 83e94 0 geode::modifier::ModifyDerive<LevelPageIDs, LevelPage>::apply()
PUBLIC 848e4 0 geode::modifier::ModifyBase<geode::modifier::ModifyDerive<LevelPageIDs, LevelPage> >::apply()
PUBLIC 848e8 0 geode::modifier::ModifyBase<geode::modifier::ModifyDerive<LevelPageIDs, LevelPage> >::setHookPriority(std::__ndk1::basic_string_view<char, std::__ndk1::char_traits<char> >, int)
PUBLIC 84b30 0 geode::Hook::create<void (*)(LevelPageIDs*)>(void*, void (*)(LevelPageIDs*), std::__ndk1::basic_string<char, std::__ndk1::char_traits<char>, std::__ndk1::allocator<char> > const&, tulip::hook::TulipConvention, tulip::hook::HookMetadata const&)
PUBLIC 84c64 0 geode::modifier::AsStaticFunction_addSecretCoin<LevelPageIDs, void (LevelPageIDs::*)()>::Impl<void (LevelPageIDs::*)()>::function(LevelPageIDs*)
PUBLIC 84d20 0 geode::modifier::AsStaticFunction_addSecretDoor<LevelPageIDs, void (LevelPageIDs::*)()>::Impl<void (LevelPageIDs::*)()>::function(LevelPageIDs*)
PUBLIC 85000 0 geode::modifier::AsStaticFunction_init<LevelPageIDs, bool (LevelPageIDs::*)(GJGameLevel*)>::Impl<bool (LevelPageIDs::*)(GJGameLevel*)>::function(LevelPageIDs*, GJGameLevel*)
PUBLIC 85138 0 geode::modifier::AsStaticFunction_updateDynamicPage<LevelPageIDs, void (LevelPageIDs::*)(GJGameLevel*)>::Impl<void (LevelPageIDs::*)(GJGameLevel*)>::function(LevelPageIDs*, GJGameLevel*)
PUBLIC 8573c 0 _GLOBAL__sub_I_LevelPage.cpp
PUBLIC 857f4 0 __cxx_global_var_init.51
PUBLIC 85e5c 0 geode::modifier::ModifyBase<geode::modifier::ModifyDerive<LevelSearchLayerIDs, LevelSearchLayer> >::~ModifyBase()
PUBLIC 85e78 0 _ZN5geode26geodeInternalProvideIDsForITkNS_12IDProvidableE29ProvideIDsForLevelSearchLayerEEvPT_
PUBLIC 87258 0 geode::EnterLayerEvent<ProvideIDsForLevelSearchLayer>::~EnterLayerEvent()
PUBLIC 8729c 0 geode::modifier::ModifyDerive<LevelSearchLayerIDs, LevelSearchLayer>::apply()
PUBLIC 875fc 0 geode::modifier::ModifyBase<geode::modifier::ModifyDerive<LevelSearchLayerIDs, LevelSearchLayer> >::apply()
PUBLIC 87600 0 geode::modifier::AsStaticFunction_init<LevelSearchLayerIDs, bool (LevelSearchLayerIDs::*)(int)>::Impl<bool (LevelSearchLayerIDs::*)(int)>::function(LevelSearchLayerIDs*, int)
PUBLIC 87738 0 _GLOBAL__sub_I_LevelSearchLayer.cpp
PUBLIC 877ec 0 __cxx_global_var_init.22
PUBLIC 87e54 0 geode::modifier::ModifyBase<geode::modifier::ModifyDerive<LevelSelectLayerIDs, LevelSelectLayer> >::~ModifyBase()
PUBLIC 87e70 0 _ZN5geode26geodeInternalProvideIDsForITkNS_12IDProvidableE29ProvideIDsForLevelSelectLayerEEvPT_
PUBLIC 88728 0 geode::EnterLayerEvent<ProvideIDsForLevelSelectLayer>::~EnterLayerEvent()
PUBLIC 8876c 0 geode::modifier::ModifyDerive<LevelSelectLayerIDs, LevelSelectLayer>::apply()
PUBLIC 88acc 0 geode::modifier::ModifyBase<geode::modifier::ModifyDerive<LevelSelectLayerIDs, LevelSelectLayer> >::apply()
PUBLIC 88ad0 0 geode::modifier::AsStaticFunction_init<LevelSelectLayerIDs, bool (LevelSelectLayerIDs::*)(int)>::Impl<bool (LevelSelectLayerIDs::*)(int)>::function(LevelSelectLayerIDs*, int)
PUBLIC 88c08 0 _GLOBAL__sub_I_LevelSelectLayer.cpp
PUBLIC 88cbc 0 __cxx_global_var_init.4
PUBLIC 89328 0 geode::modifier::ModifyBase<geode::modifier::ModifyDerive<MenuGameLayerIDs, MenuGameLayer> >::~ModifyBase()
PUBLIC 89344 0 _ZN5geode26geodeInternalProvideIDsForITkNS_12IDProvidableE26ProvideIDsForMenuGameLayerEEvPT_
PUBLIC 89798 0 geode::EnterLayerEvent<ProvideIDsForMenuGameLayer>::~EnterLayerEvent()
PUBLIC 897dc 0 geode::modifier::ModifyDerive<MenuGameLayerIDs, MenuGameLayer>::apply()
PUBLIC 89af8 0 geode::modifier::ModifyBase<geode::modifier::ModifyDerive<MenuGameLayerIDs, MenuGameLayer> >::apply()
PUBLIC 89afc 0 geode::modifier::AsStaticFunction_init<MenuGameLayerIDs, bool (MenuGameLayerIDs::*)()>::Impl<bool (MenuGameLayerIDs::*)()>::function(MenuGameLayerIDs*)
PUBLIC 89c40 0 geode::addresser::Addresser::addressOfVirtual<bool, MenuGameLayer, >(bool (MenuGameLayer::*)())
PUBLIC 89ce8 0 MenuGameLayer::MenuGameLayer(geode::ZeroConstructorType)
PUBLIC 89d80 0 _GLOBAL__sub_I_MenuGameLayer.cpp
PUBLIC 89e3c 0 __cxx_global_var_init.24
PUBLIC 8a4a4 0 geode::modifier::ModifyBase<geode::modifier::ModifyDerive<MoreOptionsLayerIDs, MoreOptionsLayer> >::~ModifyBase()
PUBLIC 8a4c0 0 std::__ndk1::vector<int, std::__ndk1::allocator<int> >::__throw_length_error[abi:ne180000]() const
PUBLIC 8a4d4 0 _ZN5geode26geodeInternalProvideIDsForITkNS_12IDProvidableE29ProvideIDsForMoreOptionsLayerEEvPT_
PUBLIC 8af88 0 geode::EnterLayerEvent<ProvideIDsForMoreOptionsLayer>::~EnterLayerEvent()
PUBLIC 8afcc 0 geode::modifier::ModifyDerive<MoreOptionsLayerIDs, MoreOptionsLayer>::apply()
PUBLIC 8b2dc 0 geode::modifier::ModifyBase<geode::modifier::ModifyDerive<MoreOptionsLayerIDs, MoreOptionsLayer> >::apply()
PUBLIC 8b2e0 0 geode::modifier::AsStaticFunction_init<MoreOptionsLayerIDs, bool (MoreOptionsLayerIDs::*)()>::Impl<bool (MoreOptionsLayerIDs::*)()>::function(MoreOptionsLayerIDs*)
PUBLIC 8b418 0 geode::addresser::Addresser::addressOfVirtual<bool, MoreOptionsLayer, >(bool (MoreOptionsLayer::*)())
PUBLIC 8b4c0 0 MoreOptionsLayer::MoreOptionsLayer(geode::ZeroConstructorType)
PUBLIC 8b55c 0 _GLOBAL__sub_I_MoreOptionsLayer.cpp
PUBLIC 8b610 0 _ZN5geode8node_ids9setIDSafeI17CCMenuItemTogglerQsr3stdE12is_base_of_vIN7cocos2d6CCNodeET_EEEPS5_PS4_iPKc
PUBLIC 8b7e4 0 __cxx_global_var_init.36
PUBLIC 8be4c 0 geode::modifier::ModifyBase<geode::modifier::ModifyDerive<MoreSearchLayerIDs, MoreSearchLayer> >::~ModifyBase()
PUBLIC 8be68 0 _ZN5geode26geodeInternalProvideIDsForITkNS_12IDProvidableE28ProvideIDsForMoreSearchLayerEEvPT_
PUBLIC 8c3d4 0 geode::EnterLayerEvent<ProvideIDsForMoreSearchLayer>::~EnterLayerEvent()
PUBLIC 8c418 0 geode::modifier::ModifyDerive<MoreSearchLayerIDs, MoreSearchLayer>::apply()
PUBLIC 8c728 0 geode::modifier::ModifyBase<geode::modifier::ModifyDerive<MoreSearchLayerIDs, MoreSearchLayer> >::apply()
PUBLIC 8c72c 0 geode::modifier::AsStaticFunction_init<MoreSearchLayerIDs, bool (MoreSearchLayerIDs::*)()>::Impl<bool (MoreSearchLayerIDs::*)()>::function(MoreSearchLayerIDs*)
PUBLIC 8c870 0 geode::addresser::Addresser::addressOfVirtual<bool, MoreSearchLayer, >(bool (MoreSearchLayer::*)())
PUBLIC 8c918 0 MoreSearchLayer::MoreSearchLayer(geode::ZeroConstructorType)
PUBLIC 8c9a4 0 _GLOBAL__sub_I_MoreSearchLayer.cpp
PUBLIC 8ca60 0 __cxx_global_var_init.21
PUBLIC 8d0d8 0 geode::modifier::ModifyBase<geode::modifier::ModifyDerive<OptionsLayerIDs, OptionsLayer> >::~ModifyBase()
PUBLIC 8d0f4 0 _ZN5geode26geodeInternalProvideIDsForITkNS_12IDProvidableE25ProvideIDsForOptionsLayerEEvPT_
PUBLIC 8e4c4 0 geode::EnterLayerEvent<ProvideIDsForOptionsLayer>::~EnterLayerEvent()
PUBLIC 8e508 0 geode::modifier::ModifyDerive<OptionsLayerIDs, OptionsLayer>::apply()
PUBLIC 8e840 0 geode::modifier::ModifyBase<geode::modifier::ModifyDerive<OptionsLayerIDs, OptionsLayer> >::apply()
PUBLIC 8e844 0 geode::modifier::AsStaticFunction_customSetup<OptionsLayerIDs, void (OptionsLayerIDs::*)()>::Impl<void (OptionsLayerIDs::*)()>::function(OptionsLayerIDs*)
PUBLIC 8e980 0 geode::addresser::Addresser::addressOfVirtual<void, OptionsLayer, >(void (OptionsLayer::*)())
PUBLIC 8ea28 0 OptionsLayer::OptionsLayer(geode::ZeroConstructorType)
PUBLIC 8eab8 0 _GLOBAL__sub_I_OptionsLayer.cpp
PUBLIC 8eb78 0 __cxx_global_var_init.39
PUBLIC 8f1f0 0 geode::modifier::ModifyBase<geode::modifier::ModifyDerive<PauseLayerIDs, PauseLayer> >::~ModifyBase()
PUBLIC 8f20c 0 _ZN5geode26geodeInternalProvideIDsForITkNS_12IDProvidableE23ProvideIDsForPauseLayerEEvPT_
PUBLIC 8fdcc 0 geode::EnterLayerEvent<ProvideIDsForPauseLayer>::~EnterLayerEvent()
PUBLIC 8fe10 0 geode::modifier::ModifyDerive<PauseLayerIDs, PauseLayer>::apply()
PUBLIC 90140 0 geode::modifier::ModifyBase<geode::modifier::ModifyDerive<PauseLayerIDs, PauseLayer> >::apply()
PUBLIC 90144 0 geode::modifier::AsStaticFunction_customSetup<PauseLayerIDs, void (PauseLayerIDs::*)()>::Impl<void (PauseLayerIDs::*)()>::function(PauseLayerIDs*)
PUBLIC 90278 0 geode::addresser::Addresser::addressOfVirtual<void, PauseLayer, >(void (PauseLayer::*)())
PUBLIC 90320 0 PauseLayer::PauseLayer(geode::ZeroConstructorType)
PUBLIC 903ac 0 _GLOBAL__sub_I_PauseLayer.cpp
PUBLIC 90468 0 __cxx_global_var_init.11
PUBLIC 909c8 0 geode::modifier::ModifyBase<geode::modifier::ModifyDerive<PlayLayerIDs, PlayLayer> >::~ModifyBase()
PUBLIC 909e4 0 _ZN5geode26geodeInternalProvideIDsForITkNS_12IDProvidableE22ProvideIDsForPlayLayerEEvPT_
PUBLIC 90cac 0 geode::EnterLayerEvent<ProvideIDsForPlayLayer>::~EnterLayerEvent()
PUBLIC 90cf0 0 geode::modifier::ModifyDerive<PlayLayerIDs, PlayLayer>::apply()
PUBLIC 91338 0 geode::modifier::ModifyBase<geode::modifier::ModifyDerive<PlayLayerIDs, PlayLayer> >::apply()
PUBLIC 9133c 0 geode::modifier::ModifyBase<geode::modifier::ModifyDerive<PlayLayerIDs, PlayLayer> >::setHookPriority(std::__ndk1::basic_string_view<char, std::__ndk1::char_traits<char> >, int)
PUBLIC 91584 0 geode::modifier::AsStaticFunction_init<PlayLayerIDs, bool (PlayLayerIDs::*)(GJGameLevel*, bool, bool)>::Impl<bool (PlayLayerIDs::*)(GJGameLevel*, bool, bool)>::function(PlayLayerIDs*, GJGameLevel*, bool, bool)
PUBLIC 916d4 0 geode::modifier::AsStaticFunction_setupHasCompleted<PlayLayerIDs, void (PlayLayerIDs::*)()>::Impl<void (PlayLayerIDs::*)()>::function(PlayLayerIDs*)
PUBLIC 92318 0 geode::modifier::FieldIntermediate<PlayLayerIDs, PlayLayer>::self()
PUBLIC 924a4 0 geode::modifier::FieldIntermediate<PlayLayerIDs, PlayLayer>::fieldDestructor(void*)
PUBLIC 924a8 0 std::__ndk1::unordered_set<cocos2d::CCNode*, std::__ndk1::hash<cocos2d::CCNode*>, std::__ndk1::equal_to<cocos2d::CCNode*>, std::__ndk1::allocator<cocos2d::CCNode*> >::~unordered_set[abi:ne180000]()
PUBLIC 924f4 0 std::__ndk1::vector<cocos2d::CCNode*, std::__ndk1::allocator<cocos2d::CCNode*> >::__throw_length_error[abi:ne180000]() const
PUBLIC 92508 0 _GLOBAL__sub_I_PlayLayer.cpp
PUBLIC 925c0 0 __cxx_global_var_init.14
PUBLIC 92c28 0 geode::modifier::ModifyBase<geode::modifier::ModifyDerive<PlayerObjectIDs, PlayerObject> >::~ModifyBase()
PUBLIC 92c44 0 _ZN5geode26geodeInternalProvideIDsForITkNS_12IDProvidableE25ProvideIDsForPlayerObjectEEvPT_
PUBLIC 92f88 0 geode::EnterLayerEvent<ProvideIDsForPlayerObject>::~EnterLayerEvent()
PUBLIC 92fcc 0 geode::modifier::ModifyDerive<PlayerObjectIDs, PlayerObject>::apply()
PUBLIC 933cc 0 geode::modifier::ModifyBase<geode::modifier::ModifyDerive<PlayerObjectIDs, PlayerObject> >::apply()
PUBLIC 933d0 0 geode::modifier::AsStaticFunction_init<PlayerObjectIDs, bool (PlayerObjectIDs::*)(int, int, GJBaseGameLayer*, cocos2d::CCLayer*, bool)>::Impl<bool (PlayerObjectIDs::*)(int, int, GJBaseGameLayer*, cocos2d::CCLayer*, bool)>::function(PlayerObjectIDs*, int, int, GJBaseGameLayer*, cocos2d::CCLayer*, bool)
PUBLIC 93518 0 _GLOBAL__sub_I_PlayerObject.cpp
PUBLIC 935d8 0 geode::node_ids::switchToMenu(cocos2d::CCNode*, cocos2d::CCNode*)
PUBLIC 936f0 0 wrapSimplePlayer(cocos2d::CCNode*, cocos2d::CCArray*, cocos2d::CCSize)
PUBLIC 938c0 0 __cxx_global_var_init.18
PUBLIC 93e20 0 geode::modifier::ModifyBase<geode::modifier::ModifyDerive<ProfilePageIDs, ProfilePage> >::~ModifyBase()
PUBLIC 93e3c 0 _ZN5geode26geodeInternalProvideIDsForITkNS_12IDProvidableE24ProvideIDsForProfilePageEEvPT_
PUBLIC 94de0 0 geode::EnterLayerEvent<ProvideIDsForProfilePage>::~EnterLayerEvent()
PUBLIC 94e24 0 geode::modifier::ModifyDerive<ProfilePageIDs, ProfilePage>::apply()
PUBLIC 954ac 0 geode::modifier::ModifyBase<geode::modifier::ModifyDerive<ProfilePageIDs, ProfilePage> >::apply()
PUBLIC 954b0 0 geode::modifier::ModifyBase<geode::modifier::ModifyDerive<ProfilePageIDs, ProfilePage> >::setHookPriority(std::__ndk1::basic_string_view<char, std::__ndk1::char_traits<char> >, int)
PUBLIC 956f8 0 geode::modifier::AsStaticFunction_init<ProfilePageIDs, bool (ProfilePageIDs::*)(int, bool)>::Impl<bool (ProfilePageIDs::*)(int, bool)>::function(ProfilePageIDs*, int, bool)
PUBLIC 95730 0 geode::modifier::AsStaticFunction_loadPageFromUserInfo<ProfilePageIDs, void (ProfilePageIDs::*)(GJUserScore*)>::Impl<void (ProfilePageIDs::*)(GJUserScore*)>::function(ProfilePageIDs*, GJUserScore*)
PUBLIC 95734 0 _ZNK5geode7NodeIDs7provideITkNS_12IDProvidableE14ProfilePageIDsEEbPT_
PUBLIC 95868 0 ProfilePageIDs::loadPageFromUserInfo(GJUserScore*)
PUBLIC 97864 0 _GLOBAL__sub_I_ProfilePage.cpp
PUBLIC 97924 0 std::__ndk1::array<std::__ndk1::basic_string<char, std::__ndk1::char_traits<char>, std::__ndk1::allocator<char> >, (unsigned long)6>::~array()
PUBLIC 979d0 0 __cxx_global_var_init.24
PUBLIC 98034 0 geode::modifier::ModifyBase<geode::modifier::ModifyDerive<RewardsPageIDs, RewardsPage> >::~ModifyBase()
PUBLIC 98050 0 _ZN5geode26geodeInternalProvideIDsForITkNS_12IDProvidableE24ProvideIDsForRewardsPageEEvPT_
PUBLIC 98904 0 geode::EnterLayerEvent<ProvideIDsForRewardsPage>::~EnterLayerEvent()
PUBLIC 98948 0 geode::modifier::ModifyDerive<RewardsPageIDs, RewardsPage>::apply()
PUBLIC 98c54 0 geode::modifier::ModifyBase<geode::modifier::ModifyDerive<RewardsPageIDs, RewardsPage> >::apply()
PUBLIC 98c58 0 geode::modifier::AsStaticFunction_init<RewardsPageIDs, bool (RewardsPageIDs::*)()>::Impl<bool (RewardsPageIDs::*)()>::function(RewardsPageIDs*)
PUBLIC 98da0 0 geode::addresser::Addresser::addressOfVirtual<bool, RewardsPage, >(bool (RewardsPage::*)())
PUBLIC 98e48 0 RewardsPage::RewardsPage(geode::ZeroConstructorType)
PUBLIC 98edc 0 _GLOBAL__sub_I_RewardsPage.cpp
PUBLIC 98f9c 0 __cxx_global_var_init.8
PUBLIC 99600 0 geode::modifier::ModifyBase<geode::modifier::ModifyDerive<SecretLayerIDs, SecretLayer> >::~ModifyBase()
PUBLIC 9961c 0 _ZN5geode26geodeInternalProvideIDsForITkNS_12IDProvidableE24ProvideIDsForSecretLayerEEvPT_
PUBLIC 998a0 0 geode::EnterLayerEvent<ProvideIDsForSecretLayer>::~EnterLayerEvent()
PUBLIC 998e4 0 geode::modifier::ModifyDerive<SecretLayerIDs, SecretLayer>::apply()
PUBLIC 99bf0 0 geode::modifier::ModifyBase<geode::modifier::ModifyDerive<SecretLayerIDs, SecretLayer> >::apply()
PUBLIC 99bf4 0 geode::modifier::AsStaticFunction_init<SecretLayerIDs, bool (SecretLayerIDs::*)()>::Impl<bool (SecretLayerIDs::*)()>::function(SecretLayerIDs*)
PUBLIC 99d3c 0 geode::addresser::Addresser::addressOfVirtual<bool, SecretLayer, >(bool (SecretLayer::*)())
PUBLIC 99de4 0 SecretLayer::SecretLayer(geode::ZeroConstructorType)
PUBLIC 99e7c 0 _GLOBAL__sub_I_SecretLayer.cpp
PUBLIC 99f3c 0 __cxx_global_var_init.14
PUBLIC 9a5a4 0 geode::modifier::ModifyBase<geode::modifier::ModifyDerive<SecretLayer2IDs, SecretLayer2> >::~ModifyBase()
PUBLIC 9a5c0 0 _ZN5geode26geodeInternalProvideIDsForITkNS_12IDProvidableE25ProvideIDsForSecretLayer2EEvPT_
PUBLIC 9a8b4 0 geode::EnterLayerEvent<ProvideIDsForSecretLayer2>::~EnterLayerEvent()
PUBLIC 9a8f8 0 geode::modifier::ModifyDerive<SecretLayer2IDs, SecretLayer2>::apply()
PUBLIC 9ac0c 0 geode::modifier::ModifyBase<geode::modifier::ModifyDerive<SecretLayer2IDs, SecretLayer2> >::apply()
PUBLIC 9ac10 0 geode::modifier::AsStaticFunction_init<SecretLayer2IDs, bool (SecretLayer2IDs::*)()>::Impl<bool (SecretLayer2IDs::*)()>::function(SecretLayer2IDs*)
PUBLIC 9ad58 0 geode::addresser::Addresser::addressOfVirtual<bool, SecretLayer2, >(bool (SecretLayer2::*)())
PUBLIC 9ae00 0 SecretLayer2::SecretLayer2(geode::ZeroConstructorType)
PUBLIC 9aea0 0 _GLOBAL__sub_I_SecretLayer2.cpp
PUBLIC 9af60 0 __cxx_global_var_init.15
PUBLIC 9b5c8 0 geode::modifier::ModifyBase<geode::modifier::ModifyDerive<SecretLayer3IDs, SecretLayer3> >::~ModifyBase()
PUBLIC 9b5e4 0 _ZN5geode26geodeInternalProvideIDsForITkNS_12IDProvidableE25ProvideIDsForSecretLayer3EEvPT_
PUBLIC 9b8d8 0 geode::EnterLayerEvent<ProvideIDsForSecretLayer3>::~EnterLayerEvent()
PUBLIC 9b91c 0 geode::modifier::ModifyDerive<SecretLayer3IDs, SecretLayer3>::apply()
PUBLIC 9bc30 0 geode::modifier::ModifyBase<geode::modifier::ModifyDerive<SecretLayer3IDs, SecretLayer3> >::apply()
PUBLIC 9bc34 0 geode::modifier::AsStaticFunction_init<SecretLayer3IDs, bool (SecretLayer3IDs::*)()>::Impl<bool (SecretLayer3IDs::*)()>::function(SecretLayer3IDs*)
PUBLIC 9bd7c 0 geode::addresser::Addresser::addressOfVirtual<bool, SecretLayer3, >(bool (SecretLayer3::*)())
PUBLIC 9be24 0 SecretLayer3::SecretLayer3(geode::ZeroConstructorType)
PUBLIC 9bebc 0 _GLOBAL__sub_I_SecretLayer3.cpp
PUBLIC 9bf7c 0 __cxx_global_var_init.8
PUBLIC 9c5e4 0 geode::modifier::ModifyBase<geode::modifier::ModifyDerive<SecretLayer4IDs, SecretLayer4> >::~ModifyBase()
PUBLIC 9c600 0 _ZN5geode26geodeInternalProvideIDsForITkNS_12IDProvidableE25ProvideIDsForSecretLayer4EEvPT_
PUBLIC 9c87c 0 geode::EnterLayerEvent<ProvideIDsForSecretLayer4>::~EnterLayerEvent()
PUBLIC 9c8c0 0 geode::modifier::ModifyDerive<SecretLayer4IDs, SecretLayer4>::apply()
PUBLIC 9cbd4 0 geode::modifier::ModifyBase<geode::modifier::ModifyDerive<SecretLayer4IDs, SecretLayer4> >::apply()
PUBLIC 9cbd8 0 geode::modifier::AsStaticFunction_init<SecretLayer4IDs, bool (SecretLayer4IDs::*)()>::Impl<bool (SecretLayer4IDs::*)()>::function(SecretLayer4IDs*)
PUBLIC 9cd20 0 geode::addresser::Addresser::addressOfVirtual<bool, SecretLayer4, >(bool (SecretLayer4::*)())
PUBLIC 9cdc8 0 SecretLayer4::SecretLayer4(geode::ZeroConstructorType)
PUBLIC 9ce68 0 _GLOBAL__sub_I_SecretLayer4.cpp
PUBLIC 9cf28 0 __cxx_global_var_init.6
PUBLIC 9d590 0 geode::modifier::ModifyBase<geode::modifier::ModifyDerive<SecretLayer6IDs, SecretLayer6> >::~ModifyBase()
PUBLIC 9d5ac 0 _ZN5geode26geodeInternalProvideIDsForITkNS_12IDProvidableE25ProvideIDsForSecretLayer6EEvPT_
PUBLIC 9db94 0 geode::EnterLayerEvent<ProvideIDsForSecretLayer6>::~EnterLayerEvent()
PUBLIC 9dbd8 0 geode::modifier::ModifyDerive<SecretLayer6IDs, SecretLayer6>::apply()
PUBLIC 9deec 0 geode::modifier::ModifyBase<geode::modifier::ModifyDerive<SecretLayer6IDs, SecretLayer6> >::apply()
PUBLIC 9def0 0 geode::modifier::AsStaticFunction_init<SecretLayer6IDs, bool (SecretLayer6IDs::*)()>::Impl<bool (SecretLayer6IDs::*)()>::function(SecretLayer6IDs*)
PUBLIC 9e038 0 geode::addresser::Addresser::addressOfVirtual<bool, SecretLayer6, >(bool (SecretLayer6::*)())
PUBLIC 9e0e0 0 SecretLayer6::SecretLayer6(geode::ZeroConstructorType)
PUBLIC 9e168 0 _GLOBAL__sub_I_SecretLayer6.cpp
PUBLIC 9e228 0 assignIDsToStore(CCMenuItemSpriteExtra*, int)
PUBLIC 9e46c 0 assignIDsToPage(cocos2d::CCLayer*, int)
PUBLIC 9f75c 0 __cxx_global_var_init.39
PUBLIC 9fdd4 0 geode::modifier::ModifyBase<geode::modifier::ModifyDerive<SecretRewardsLayerIDs, SecretRewardsLayer> >::~ModifyBase()
PUBLIC 9fdf0 0 _ZN5geode26geodeInternalProvideIDsForITkNS_12IDProvidableE31ProvideIDsForSecretRewardsLayerEEvPT_
PUBLIC a08ec 0 geode::EnterLayerEvent<ProvideIDsForSecretRewardsLayer>::~EnterLayerEvent()
PUBLIC a0930 0 geode::modifier::ModifyDerive<SecretRewardsLayerIDs, SecretRewardsLayer>::apply()
PUBLIC a0cb0 0 geode::modifier::ModifyBase<geode::modifier::ModifyDerive<SecretRewardsLayerIDs, SecretRewardsLayer> >::apply()
PUBLIC a0cb4 0 geode::modifier::AsStaticFunction_init<SecretRewardsLayerIDs, bool (SecretRewardsLayerIDs::*)(bool)>::Impl<bool (SecretRewardsLayerIDs::*)(bool)>::function(SecretRewardsLayerIDs*, bool)
PUBLIC a0dfc 0 _GLOBAL__sub_I_SecretRewardsLayer.cpp
PUBLIC a0eb8 0 geode::node_ids::setIDs<char const*, char const*, char const*, char const*, char const*, char const*, char const*, char const*, char const*, char const*, char const*, char const*>(cocos2d::CCNode*, int*, char const*, char const*, char const*, char const*, char const*, char const*, char const*, char const*, char const*, char const*, char const*, char const*)
PUBLIC a1068 0 replaceInput(cocos2d::CCNode*, char const*, char const*, CCTextInputNode**)
PUBLIC a13a8 0 geode::node_ids::detachAndCreateMenu<cocos2d::CCNode*, >(cocos2d::CCNode*, char const*, geode::Layout*, cocos2d::CCNode*, )
PUBLIC a16b8 0 geode::node_ids::detachAndCreateMenu<cocos2d::CCNode*, cocos2d::CCNode*, cocos2d::CCNode*, cocos2d::CCNode*, cocos2d::CCNode*>(cocos2d::CCNode*, char const*, geode::Layout*, cocos2d::CCNode*, cocos2d::CCNode*, cocos2d::CCNode*, cocos2d::CCNode*, cocos2d::CCNode*)
PUBLIC a1a40 0 offsetChildren(cocos2d::CCMenu*, cocos2d::CCPoint const&)
PUBLIC a1b9c 0 geode::node_ids::detachAndCreateMenu<cocos2d::CCNode*, cocos2d::CCNode*, cocos2d::CCNode*, cocos2d::CCNode*>(cocos2d::CCNode*, char const*, geode::Layout*, cocos2d::CCNode*, cocos2d::CCNode*, cocos2d::CCNode*, cocos2d::CCNode*)
PUBLIC a1f10 0 geode::node_ids::detachAndCreateMenu<cocos2d::CCNode*, cocos2d::CCNode*>(cocos2d::CCNode*, char const*, geode::Layout*, cocos2d::CCNode*, cocos2d::CCNode*)
PUBLIC a2260 0 __cxx_global_var_init.84
PUBLIC a28c8 0 geode::modifier::ModifyBase<geode::modifier::ModifyDerive<SetGroupIDLayerIDs, SetGroupIDLayer> >::~ModifyBase()
PUBLIC a28e4 0 _ZN5geode26geodeInternalProvideIDsForITkNS_12IDProvidableE28ProvideIDsForSetGroupIDLayerEEvPT_
PUBLIC a48a4 0 geode::EnterLayerEvent<ProvideIDsForSetGroupIDLayer>::~EnterLayerEvent()
PUBLIC a48e8 0 geode::node_ids::switchToMenu(cocos2d::CCNode*, cocos2d::CCNode*)
PUBLIC a4a00 0 geode::modifier::ModifyDerive<SetGroupIDLayerIDs, SetGroupIDLayer>::apply()
PUBLIC a4da0 0 geode::modifier::ModifyBase<geode::modifier::ModifyDerive<SetGroupIDLayerIDs, SetGroupIDLayer> >::apply()
PUBLIC a4da4 0 geode::modifier::AsStaticFunction_init<SetGroupIDLayerIDs, bool (SetGroupIDLayerIDs::*)(GameObject*, cocos2d::CCArray*)>::Impl<bool (SetGroupIDLayerIDs::*)(GameObject*, cocos2d::CCArray*)>::function(SetGroupIDLayerIDs*, GameObject*, cocos2d::CCArray*)
PUBLIC a4ef4 0 _GLOBAL__sub_I_SetGroupIDLayer.cpp
PUBLIC a4fb0 0 __cxx_global_var_init.22
PUBLIC a5610 0 geode::modifier::ModifyBase<geode::modifier::ModifyDerive<ShardsPageIDs, ShardsPage> >::~ModifyBase()
PUBLIC a562c 0 _ZN5geode26geodeInternalProvideIDsForITkNS_12IDProvidableE23ProvideIDsForShardsPageEEvPT_
PUBLIC a603c 0 geode::EnterLayerEvent<ProvideIDsForShardsPage>::~EnterLayerEvent()
PUBLIC a6080 0 geode::modifier::ModifyDerive<ShardsPageIDs, ShardsPage>::apply()
PUBLIC a6384 0 geode::modifier::ModifyBase<geode::modifier::ModifyDerive<ShardsPageIDs, ShardsPage> >::apply()
PUBLIC a6388 0 geode::modifier::AsStaticFunction_init<ShardsPageIDs, bool (ShardsPageIDs::*)()>::Impl<bool (ShardsPageIDs::*)()>::function(ShardsPageIDs*)
PUBLIC a64c8 0 geode::addresser::Addresser::addressOfVirtual<bool, ShardsPage, >(bool (ShardsPage::*)())
PUBLIC a6570 0 ShardsPage::ShardsPage(geode::ZeroConstructorType)
PUBLIC a65f4 0 _GLOBAL__sub_I_ShardsPage.cpp
PUBLIC a66b0 0 geode::node_ids::switchToMenu(cocos2d::CCNode*, cocos2d::CCNode*)
PUBLIC a67c4 0 __cxx_global_var_init.19
PUBLIC a6e30 0 geode::modifier::ModifyBase<geode::modifier::ModifyDerive<StarInfoPopupIDs, StarInfoPopup> >::~ModifyBase()
PUBLIC a6e4c 0 geode::modifier::FieldIntermediate<StarInfoPopupIDs, StarInfoPopup>::self()
PUBLIC a6fdc 0 geode::modifier::FieldIntermediate<StarInfoPopupIDs, StarInfoPopup>::fieldDestructor(void*)
PUBLIC a6fe0 0 geode::modifier::ModifyDerive<StarInfoPopupIDs, StarInfoPopup>::apply()
PUBLIC a7dfc 0 geode::modifier::ModifyBase<geode::modifier::ModifyDerive<StarInfoPopupIDs, StarInfoPopup> >::apply()
PUBLIC a7e00 0 geode::modifier::AsStaticFunction_init<StarInfoPopupIDs, bool (StarInfoPopupIDs::*)(int, int, int, int, int, int, int, int, int, bool)>::Impl<bool (StarInfoPopupIDs::*)(int, int, int, int, int, int, int, int, int, bool)>::function(StarInfoPopupIDs*, int, int, int, int, int, int, int, int, int, bool)
PUBLIC a7f88 0 _ZN5geode26geodeInternalProvideIDsForITkNS_12IDProvidableE26ProvideIDsForStarInfoPopupEEvPT_
PUBLIC a895c 0 geode::EnterLayerEvent<ProvideIDsForStarInfoPopup>::~EnterLayerEvent()
PUBLIC a89a0 0 _GLOBAL__sub_I_StarInfoPopup.cpp
PUBLIC a8a5c 0 __cxx_global_var_init.11
PUBLIC a90c4 0 geode::modifier::ModifyBase<geode::modifier::ModifyDerive<UILayerIDs, UILayer> >::~ModifyBase()
PUBLIC a90e0 0 _ZN5geode26geodeInternalProvideIDsForITkNS_12IDProvidableE20ProvideIDsForUILayerEEvPT_
PUBLIC a93f4 0 geode::EnterLayerEvent<ProvideIDsForUILayer>::~EnterLayerEvent()
PUBLIC a9438 0 geode::modifier::ModifyDerive<UILayerIDs, UILayer>::apply()
PUBLIC a9798 0 geode::modifier::ModifyBase<geode::modifier::ModifyDerive<UILayerIDs, UILayer> >::apply()
PUBLIC a979c 0 geode::modifier::AsStaticFunction_init<UILayerIDs, bool (UILayerIDs::*)(GJBaseGameLayer*)>::Impl<bool (UILayerIDs::*)(GJBaseGameLayer*)>::function(UILayerIDs*, GJBaseGameLayer*)
PUBLIC a98e8 0 _GLOBAL__sub_I_UILayer.cpp
PUBLIC a99a4 0 geode::Mod::getSavedValue<std::__ndk1::basic_string<char, std::__ndk1::char_traits<char>, std::__ndk1::allocator<char> > >(std::__ndk1::basic_string_view<char, std::__ndk1::char_traits<char> >)
PUBLIC a9b84 0 geodeExecFunction14<(anonymous namespace)::ExecFuncUnique14>(geode::ModStateEvent*)
PUBLIC a9e70 0 geode::impl::ResultData<matjson::Value&, std::__ndk1::basic_string<char, std::__ndk1::char_traits<char>, std::__ndk1::allocator<char> > >::~ResultData()
PUBLIC a9ee4 0 geode::impl::ResultData<std::__ndk1::basic_string<char, std::__ndk1::char_traits<char>, std::__ndk1::allocator<char> >, std::__ndk1::basic_string<char, std::__ndk1::char_traits<char>, std::__ndk1::allocator<char> > >::~ResultData()
PUBLIC a9f58 0 std::__ndk1::__variant_detail::__visitation::__base::__dispatcher<(unsigned long)0>::__dispatch[abi:ne180000]<std::__ndk1::__variant_detail::__dtor<std::__ndk1::__variant_detail::__traits<std::__ndk1::reference_wrapper<matjson::Value>, std::__ndk1::basic_string<char, std::__ndk1::char_traits<char>, std::__ndk1::allocator<char> > >, (std::__ndk1::__variant_detail::_Trait)1>::__destroy[abi:ne180000]()::{lambda(auto:1&)#1}, std::__ndk1::__variant_detail::__base<(std::__ndk1::__variant_detail::__traits<std::__ndk1::reference_wrapper<matjson::Value>, std::__ndk1::basic_string<char, std::__ndk1::char_traits<char>, std::__ndk1::allocator<char> > >)1, matjson::Value, std::__ndk1::allocator<char> >&>(std::__ndk1::__variant_detail::__dtor<std::__ndk1::__variant_detail::__traits<std::__ndk1::reference_wrapper<matjson::Value>, std::__ndk1::basic_string<char, std::__ndk1::char_traits<char>, std::__ndk1::allocator<char> > >, (std::__ndk1::__variant_detail::_Trait)1>, std::__ndk1::__variant_detail::__base<(std::__ndk1::__variant_detail::__traits<std::__ndk1::reference_wrapper<matjson::Value>, std::__ndk1::basic_string<char, std::__ndk1::char_traits<char>, std::__ndk1::allocator<char> > >)1, matjson::Value, std::__ndk1::allocator<char> >&)
PUBLIC a9f5c 0 std::__ndk1::__variant_detail::__visitation::__base::__dispatcher<(unsigned long)1>::__dispatch[abi:ne180000]<std::__ndk1::__variant_detail::__dtor<std::__ndk1::__variant_detail::__traits<std::__ndk1::reference_wrapper<matjson::Value>, std::__ndk1::basic_string<char, std::__ndk1::char_traits<char>, std::__ndk1::allocator<char> > >, (std::__ndk1::__variant_detail::_Trait)1>::__destroy[abi:ne180000]()::{lambda(auto:1&)#1}, std::__ndk1::__variant_detail::__base<(std::__ndk1::__variant_detail::__traits<std::__ndk1::reference_wrapper<matjson::Value>, std::__ndk1::basic_string<char, std::__ndk1::char_traits<char>, std::__ndk1::allocator<char> > >)1, matjson::Value, std::__ndk1::allocator<char> >&>(std::__ndk1::__variant_detail::__dtor<std::__ndk1::__variant_detail::__traits<std::__ndk1::reference_wrapper<matjson::Value>, std::__ndk1::basic_string<char, std::__ndk1::char_traits<char>, std::__ndk1::allocator<char> > >, (std::__ndk1::__variant_detail::_Trait)1>, std::__ndk1::__variant_detail::__base<(std::__ndk1::__variant_detail::__traits<std::__ndk1::reference_wrapper<matjson::Value>, std::__ndk1::basic_string<char, std::__ndk1::char_traits<char>, std::__ndk1::allocator<char> > >)1, matjson::Value, std::__ndk1::allocator<char> >&)
PUBLIC a9f70 0 std::__ndk1::__variant_detail::__visitation::__base::__dispatcher<(unsigned long)0>::__dispatch[abi:ne180000]<std::__ndk1::__variant_detail::__dtor<std::__ndk1::__variant_detail::__traits<std::__ndk1::basic_string<char, std::__ndk1::char_traits<char>, std::__ndk1::allocator<char> >, std::__ndk1::allocator<char> >, (std::__ndk1::__variant_detail::_Trait)1>::__destroy[abi:ne180000]()::{lambda(auto:1&)#1}, std::__ndk1::__variant_detail::__base<(std::__ndk1::__variant_detail::__traits<std::__ndk1::basic_string<char, std::__ndk1::char_traits<char>, std::__ndk1::allocator<char> >, std::__ndk1::allocator<char> >)1, std::__ndk1::allocator<char>, std::__ndk1::allocator<char> >&>(std::__ndk1::__variant_detail::__dtor<std::__ndk1::__variant_detail::__traits<std::__ndk1::basic_string<char, std::__ndk1::char_traits<char>, std::__ndk1::allocator<char> >, std::__ndk1::allocator<char> >, (std::__ndk1::__variant_detail::_Trait)1>, std::__ndk1::__variant_detail::__base<(std::__ndk1::__variant_detail::__traits<std::__ndk1::basic_string<char, std::__ndk1::char_traits<char>, std::__ndk1::allocator<char> >, std::__ndk1::allocator<char> >)1, std::__ndk1::allocator<char>, std::__ndk1::allocator<char> >&)
PUBLIC a9f84 0 std::__ndk1::__variant_detail::__visitation::__base::__dispatcher<(unsigned long)1>::__dispatch[abi:ne180000]<std::__ndk1::__variant_detail::__dtor<std::__ndk1::__variant_detail::__traits<std::__ndk1::basic_string<char, std::__ndk1::char_traits<char>, std::__ndk1::allocator<char> >, std::__ndk1::allocator<char> >, (std::__ndk1::__variant_detail::_Trait)1>::__destroy[abi:ne180000]()::{lambda(auto:1&)#1}, std::__ndk1::__variant_detail::__base<(std::__ndk1::__variant_detail::__traits<std::__ndk1::basic_string<char, std::__ndk1::char_traits<char>, std::__ndk1::allocator<char> >, std::__ndk1::allocator<char> >)1, std::__ndk1::allocator<char>, std::__ndk1::allocator<char> >&>(std::__ndk1::__variant_detail::__dtor<std::__ndk1::__variant_detail::__traits<std::__ndk1::basic_string<char, std::__ndk1::char_traits<char>, std::__ndk1::allocator<char> >, std::__ndk1::allocator<char> >, (std::__ndk1::__variant_detail::_Trait)1>, std::__ndk1::__variant_detail::__base<(std::__ndk1::__variant_detail::__traits<std::__ndk1::basic_string<char, std::__ndk1::char_traits<char>, std::__ndk1::allocator<char> >, std::__ndk1::allocator<char> >)1, std::__ndk1::allocator<char>, std::__ndk1::allocator<char> >&)
PUBLIC a9f98 0 geode::EventListener<geode::ModStateFilter>::getPool() const
PUBLIC a9f9c 0 geode::EventListener<geode::ModStateFilter>::handle(geode::Event*)
PUBLIC aa110 0 geode::EventListener<geode::ModStateFilter>::~EventListener()
PUBLIC aa16c 0 geode::EventListener<geode::ModStateFilter>::~EventListener()
PUBLIC aa1d0 0 std::__ndk1::__function::__base<void (geode::ModStateEvent*)>::~__base()
PUBLIC aa1d4 0 std::__ndk1::__function::__func<void (*)(geode::ModStateEvent*), std::__ndk1::allocator<void (*)(geode::ModStateEvent*)>, void (geode::ModStateEvent*)>::~__func()
PUBLIC aa1d8 0 std::__ndk1::__function::__func<void (*)(geode::ModStateEvent*), std::__ndk1::allocator<void (*)(geode::ModStateEvent*)>, void (geode::ModStateEvent*)>::__clone() const
PUBLIC aa20c 0 std::__ndk1::__function::__func<void (*)(geode::ModStateEvent*), std::__ndk1::allocator<void (*)(geode::ModStateEvent*)>, void (geode::ModStateEvent*)>::__clone(std::__ndk1::__function::__base<void (geode::ModStateEvent*)>*) const
PUBLIC aa220 0 std::__ndk1::__function::__func<void (*)(geode::ModStateEvent*), std::__ndk1::allocator<void (*)(geode::ModStateEvent*)>, void (geode::ModStateEvent*)>::destroy()
PUBLIC aa224 0 std::__ndk1::__function::__func<void (*)(geode::ModStateEvent*), std::__ndk1::allocator<void (*)(geode::ModStateEvent*)>, void (geode::ModStateEvent*)>::destroy_deallocate()
PUBLIC aa228 0 std::__ndk1::__function::__func<void (*)(geode::ModStateEvent*), std::__ndk1::allocator<void (*)(geode::ModStateEvent*)>, void (geode::ModStateEvent*)>::operator()(geode::ModStateEvent*&&)
PUBLIC aa238 0 std::__ndk1::__function::__func<void (*)(geode::ModStateEvent*), std::__ndk1::allocator<void (*)(geode::ModStateEvent*)>, void (geode::ModStateEvent*)>::target(std::type_info const&) const
PUBLIC aa254 0 std::__ndk1::__function::__func<void (*)(geode::ModStateEvent*), std::__ndk1::allocator<void (*)(geode::ModStateEvent*)>, void (geode::ModStateEvent*)>::target_type() const
PUBLIC aa260 0 _GLOBAL__sub_I_main.cpp
PUBLIC m aa38c 0 geodeImplicitEntry
PUBLIC aa3c8 0 wrapFunction(unsigned long, tulip::hook::WrapperMetadata const&)
PUBLIC aa4fc 0 geode::impl::ResultData<void*, std::__ndk1::basic_string<char, std::__ndk1::char_traits<char>, std::__ndk1::allocator<char> > >::unwrapErr() &
PUBLIC aa574 0 geode::impl::ResultData<void*, std::__ndk1::basic_string<char, std::__ndk1::char_traits<char>, std::__ndk1::allocator<char> > >::~ResultData()
PUBLIC aa5e8 0 tulip::hook::WrapperMetadata::~WrapperMetadata()
PUBLIC aa64c 0 FLAlertLayer::init(FLAlertLayerProtocol*, char const*, gd::string, char const*, char const*, float, bool, float, float)
PUBLIC aa834 0 tulip::hook::AbstractFunction::from<bool, FLAlertLayer*, FLAlertLayerProtocol*, char const*, gd::string, char const*, char const*, float, bool, float, float>(bool (*)(FLAlertLayer*, FLAlertLayerProtocol*, char const*, gd::string, char const*, char const*, float, bool, float, float))
PUBLIC ab12c 0 AchievementManager::limitForAchievement(gd::string)
PUBLIC ab2ac 0 tulip::hook::AbstractFunction::from<int, AchievementManager*, gd::string>(int (*)(AchievementManager*, gd::string))
PUBLIC ab350 0 tulip::hook::AbstractFunction::from<bool, GameStatsManager*, gd::string>(bool (*)(GameStatsManager*, gd::string))
PUBLIC ab3f4 0 GameStatsManager::isSpecialChestUnlocked(gd::string)
PUBLIC ab574 0 _ZN5geode15UnwrapExceptionC2IRPvQsr4implE18IsStringStreamableIT_EEENS_4impl5OkTagEOS4_
PUBLIC ab6c8 0 std::__ndk1::__variant_detail::__visitation::__base::__dispatcher<(unsigned long)0>::__dispatch[abi:ne180000]<std::__ndk1::__variant_detail::__dtor<std::__ndk1::__variant_detail::__traits<void*, std::__ndk1::basic_string<char, std::__ndk1::char_traits<char>, std::__ndk1::allocator<char> > >, (std::__ndk1::__variant_detail::_Trait)1>::__destroy[abi:ne180000]()::{lambda(auto:1&)#1}, std::__ndk1::__variant_detail::__base<(std::__ndk1::__variant_detail::__traits<void*, std::__ndk1::basic_string<char, std::__ndk1::char_traits<char>, std::__ndk1::allocator<char> > >)1, std::__ndk1::__variant_detail::__traits, std::__ndk1::allocator<char> >&>(std::__ndk1::__variant_detail::__dtor<std::__ndk1::__variant_detail::__traits<void*, std::__ndk1::basic_string<char, std::__ndk1::char_traits<char>, std::__ndk1::allocator<char> > >, (std::__ndk1::__variant_detail::_Trait)1>, std::__ndk1::__variant_detail::__base<(std::__ndk1::__variant_detail::__traits<void*, std::__ndk1::basic_string<char, std::__ndk1::char_traits<char>, std::__ndk1::allocator<char> > >)1, std::__ndk1::__variant_detail::__traits, std::__ndk1::allocator<char> >&)
PUBLIC ab6cc 0 std::__ndk1::__variant_detail::__visitation::__base::__dispatcher<(unsigned long)1>::__dispatch[abi:ne180000]<std::__ndk1::__variant_detail::__dtor<std::__ndk1::__variant_detail::__traits<void*, std::__ndk1::basic_string<char, std::__ndk1::char_traits<char>, std::__ndk1::allocator<char> > >, (std::__ndk1::__variant_detail::_Trait)1>::__destroy[abi:ne180000]()::{lambda(auto:1&)#1}, std::__ndk1::__variant_detail::__base<(std::__ndk1::__variant_detail::__traits<void*, std::__ndk1::basic_string<char, std::__ndk1::char_traits<char>, std::__ndk1::allocator<char> > >)1, std::__ndk1::__variant_detail::__traits, std::__ndk1::allocator<char> >&>(std::__ndk1::__variant_detail::__dtor<std::__ndk1::__variant_detail::__traits<void*, std::__ndk1::basic_string<char, std::__ndk1::char_traits<char>, std::__ndk1::allocator<char> > >, (std::__ndk1::__variant_detail::_Trait)1>, std::__ndk1::__variant_detail::__base<(std::__ndk1::__variant_detail::__traits<void*, std::__ndk1::basic_string<char, std::__ndk1::char_traits<char>, std::__ndk1::allocator<char> > >)1, std::__ndk1::__variant_detail::__traits, std::__ndk1::allocator<char> >&)
PUBLIC ab6e0 0 __udivti3
PUBLIC ab6ec 0 __udivmodti4
PUBLIC m ab938 0 __eqtf2
PUBLIC ab9d8 0 __unordtf2
PUBLIC aba10 0 fmt::v11::detail::write_loc(fmt::v11::basic_appender<char>, fmt::v11::loc_value, fmt::v11::format_specs const&, fmt::v11::detail::locale_ref)
PUBLIC abca4 0 fmt::v11::format_facet<std::__ndk1::locale>::~format_facet()
PUBLIC abd20 0 fmt::v11::report_error(char const*)
PUBLIC abd70 0 fmt::v11::format_error::runtime_error(char const*)
PUBLIC abd9c 0 fmt::v11::format_facet<std::__ndk1::locale>::do_put(fmt::v11::basic_appender<char>, fmt::v11::loc_value, fmt::v11::format_specs const&) const
PUBLIC ac55c 0 fmt::v11::detail::loc_writer<char>::~loc_writer()
PUBLIC ac5c0 0 fmt::v11::detail::vformat_to<char>(fmt::v11::detail::buffer<char>&, fmt::v11::basic_string_view<char>, fmt::v11::detail::vformat_args<char>::type, fmt::v11::detail::locale_ref)
PUBLIC acb30 0 fmt::v11::detail::is_printable(unsigned int)
PUBLIC acd58 0 fmt::v11::detail::dragonbox::to_decimal<float>(float)
PUBLIC ad034 0 fmt::v11::detail::dragonbox::to_decimal<double>(double)
PUBLIC ad570 0 fmt::v11::basic_memory_buffer<char, (unsigned long)500, std::__ndk1::allocator<char> >::grow(fmt::v11::detail::buffer<char>&, unsigned long)
PUBLIC ad5e8 0 fmt::v11::format_facet<std::__ndk1::locale>::~format_facet()
PUBLIC ad674 0 fmt::v11::format_error::~format_error()
PUBLIC ad698 0 fmt::v11::detail::copy_noinline<char, char const*, fmt::v11::basic_appender<char> >(char const*, char const*, fmt::v11::basic_appender<char>)
PUBLIC ad7e8 0 fmt::v11::detail::default_arg_formatter<char>::operator()<bool>(bool)
PUBLIC ad850 0 fmt::v11::detail::default_arg_formatter<char>::operator()<char>(char)
PUBLIC ad8e0 0 fmt::v11::detail::default_arg_formatter<char>::operator()<float>(float)
PUBLIC ad9cc 0 fmt::v11::detail::default_arg_formatter<char>::operator()<double>(double)
PUBLIC adab8 0 fmt::v11::detail::default_arg_formatter<char>::operator()<char const*>(char const*)
PUBLIC adb00 0 fmt::v11::detail::default_arg_formatter<char>::operator()<void const*>(void const*)
PUBLIC adb98 0 _ZN3fmt3v116detail5writeIcNS0_14basic_appenderIcEEiTnNSt6__ndk19enable_ifIXaaaasr11is_integralIT1_EE5valuentsr3std7is_sameIS7_bEE5valuentsr3std7is_sameIS7_T_EE5valueEiE4typeELi0EEET0_SB_S7_
PUBLIC addf8 0 fmt::v11::detail::copy_noinline<char, char*, fmt::v11::basic_appender<char> >(char*, char*, fmt::v11::basic_appender<char>)
PUBLIC adf48 0 _ZN3fmt3v116detail5writeIcNS0_14basic_appenderIcEEjTnNSt6__ndk19enable_ifIXaaaasr11is_integralIT1_EE5valuentsr3std7is_sameIS7_bEE5valuentsr3std7is_sameIS7_T_EE5valueEiE4typeELi0EEET0_SB_S7_
PUBLIC ae128 0 _ZN3fmt3v116detail5writeIcNS0_14basic_appenderIcEExTnNSt6__ndk19enable_ifIXaaaasr11is_integralIT1_EE5valuentsr3std7is_sameIS7_bEE5valuentsr3std7is_sameIS7_T_EE5valueEiE4typeELi0EEET0_SB_S7_
PUBLIC ae3ac 0 _ZN3fmt3v116detail5writeIcNS0_14basic_appenderIcEEyTnNSt6__ndk19enable_ifIXaaaasr11is_integralIT1_EE5valuentsr3std7is_sameIS7_bEE5valuentsr3std7is_sameIS7_T_EE5valueEiE4typeELi0EEET0_SB_S7_
PUBLIC ae5b4 0 _ZN3fmt3v116detail5writeIcNS0_14basic_appenderIcEEnTnNSt6__ndk19enable_ifIXaaaasr11is_integralIT1_EE5valuentsr3std7is_sameIS7_bEE5valuentsr3std7is_sameIS7_T_EE5valueEiE4typeELi0EEET0_SB_S7_
PUBLIC ae914 0 _ZN3fmt3v116detail5writeIcNS0_14basic_appenderIcEEoTnNSt6__ndk19enable_ifIXaaaasr11is_integralIT1_EE5valuentsr3std7is_sameIS7_bEE5valuentsr3std7is_sameIS7_T_EE5valueEiE4typeELi0EEET0_SB_S7_
PUBLIC aec28 0 _ZN3fmt3v116detail5writeIcNS0_14basic_appenderIcEEbTnNSt6__ndk19enable_ifIXsr3std7is_sameIT1_bEE5valueEiE4typeELi0EEET0_SA_S7_RKNS0_12format_specsENS1_10locale_refE
PUBLIC aeeb8 0 fmt::v11::detail::write_int_noinline<char, fmt::v11::basic_appender<char>, unsigned int>(fmt::v11::basic_appender<char>, fmt::v11::detail::write_int_arg<unsigned int>, fmt::v11::format_specs const&, fmt::v11::detail::locale_ref)
PUBLIC afc94 0 fmt::v11::detail::fill<char, fmt::v11::basic_appender<char> >(fmt::v11::basic_appender<char>, unsigned long, fmt::v11::detail::fill_t const&)
PUBLIC afe64 0 fmt::v11::detail::write_padded<char, (fmt::v11::align::type)1, fmt::v11::basic_appender<char>, fmt::v11::detail::write_char<char, fmt::v11::basic_appender<char> >(fmt::v11::basic_appender<char>, char, fmt::v11::format_specs const&)::{lambda(fmt::v11::basic_appender<char>&)#1}>(fmt::v11::basic_appender<char>, fmt::v11::format_specs const&, unsigned long, unsigned long, fmt::v11::detail::write_char<char, fmt::v11::basic_appender<char> >(fmt::v11::basic_appender<char>, char, fmt::v11::format_specs const&)::{lambda(fmt::v11::basic_appender<char>&)#1})
PUBLIC b00a0 0 fmt::v11::detail::write_escaped_cp<fmt::v11::basic_appender<char>, char>(fmt::v11::basic_appender<char>, fmt::v11::detail::find_escape_result<char> const&)
PUBLIC b03ac 0 fmt::v11::detail::write_codepoint<(unsigned long)2, char, fmt::v11::basic_appender<char> >(fmt::v11::basic_appender<char>, char, unsigned int)
PUBLIC b0524 0 fmt::v11::detail::write_codepoint<(unsigned long)8, char, fmt::v11::basic_appender<char> >(fmt::v11::basic_appender<char>, char, unsigned int)
PUBLIC b069c 0 fmt::v11::detail::write_padded<char, (fmt::v11::align::type)1, fmt::v11::basic_appender<char>, fmt::v11::detail::write_nonfinite<char, fmt::v11::basic_appender<char> >(fmt::v11::basic_appender<char>, bool, fmt::v11::format_specs, fmt::v11::sign::type)::{lambda(fmt::v11::basic_appender<char>&)#1}>(fmt::v11::basic_appender<char>, fmt::v11::format_specs const&, unsigned long, unsigned long, fmt::v11::detail::write_nonfinite<char, fmt::v11::basic_appender<char> >(fmt::v11::basic_appender<char>, bool, fmt::v11::format_specs, fmt::v11::sign::type)::{lambda(fmt::v11::basic_appender<char>&)#1})
PUBLIC b08dc 0 fmt::v11::detail::do_write_float<char, fmt::v11::basic_appender<char>, fmt::v11::detail::dragonbox::decimal_fp<float>, fmt::v11::detail::digit_grouping<char> >(fmt::v11::basic_appender<char>, fmt::v11::detail::dragonbox::decimal_fp<float> const&, fmt::v11::format_specs const&, fmt::v11::detail::float_specs, fmt::v11::detail::locale_ref)
PUBLIC b1550 0 fmt::v11::detail::do_write_float<char, fmt::v11::basic_appender<char>, fmt::v11::detail::dragonbox::decimal_fp<float>, fmt::v11::detail::digit_grouping<char> >(fmt::v11::basic_appender<char>, fmt::v11::detail::dragonbox::decimal_fp<float> const&, fmt::v11::format_specs const&, fmt::v11::detail::float_specs, fmt::v11::detail::locale_ref)::{lambda(fmt::v11::basic_appender<char>(fmt::v11::basic_appender<char>))#1}::operator() const
PUBLIC b16a4 0 fmt::v11::detail::digit_grouping<char>::digit_grouping(fmt::v11::detail::locale_ref, bool)
PUBLIC b1910 0 fmt::v11::detail::digit_grouping<char>::~digit_grouping()
PUBLIC b1954 0 fmt::v11::detail::write_exponent<char, fmt::v11::basic_appender<char> >(int, fmt::v11::basic_appender<char>)
PUBLIC b1b24 0 _ZN3fmt3v116detail17write_significandIcjTnNSt6__ndk19enable_ifIXsr3std11is_integralIT0_EE5valueEiE4typeELi0EEEPT_S9_S5_iiS8_
PUBLIC b1ca0 0 std::__ndk1::basic_string<char, std::__ndk1::char_traits<char>, std::__ndk1::allocator<char> >::__assign_no_alias<true>(char const*, unsigned long)
PUBLIC b1d4c 0 std::__ndk1::basic_string<char, std::__ndk1::char_traits<char>, std::__ndk1::allocator<char> >::__assign_no_alias<false>(char const*, unsigned long)
PUBLIC b1e5c 0 fmt::v11::detail::digit_grouping<char>::apply<fmt::v11::basic_appender<char>, char>(fmt::v11::basic_appender<char>, fmt::v11::basic_string_view<char>) const
PUBLIC b2214 0 fmt::v11::basic_memory_buffer<int, (unsigned long)500, std::__ndk1::allocator<int> >::grow(fmt::v11::detail::buffer<int>&, unsigned long)
PUBLIC b22b4 0 fmt::v11::detail::do_write_float<char, fmt::v11::basic_appender<char>, fmt::v11::detail::dragonbox::decimal_fp<double>, fmt::v11::detail::digit_grouping<char> >(fmt::v11::basic_appender<char>, fmt::v11::detail::dragonbox::decimal_fp<double> const&, fmt::v11::format_specs const&, fmt::v11::detail::float_specs, fmt::v11::detail::locale_ref)
PUBLIC b2f68 0 fmt::v11::detail::do_write_float<char, fmt::v11::basic_appender<char>, fmt::v11::detail::dragonbox::decimal_fp<double>, fmt::v11::detail::digit_grouping<char> >(fmt::v11::basic_appender<char>, fmt::v11::detail::dragonbox::decimal_fp<double> const&, fmt::v11::format_specs const&, fmt::v11::detail::float_specs, fmt::v11::detail::locale_ref)::{lambda(fmt::v11::basic_appender<char>(fmt::v11::basic_appender<char>))#1}::operator() const
PUBLIC b30c0 0 _ZN3fmt3v116detail17write_significandIcmTnNSt6__ndk19enable_ifIXsr3std11is_integralIT0_EE5valueEiE4typeELi0EEEPT_S9_S5_iiS8_
PUBLIC b3250 0 fmt::v11::detail::write_float<char, fmt::v11::basic_appender<char>, long double>(fmt::v11::basic_appender<char>, long double, fmt::v11::format_specs, fmt::v11::detail::locale_ref)
PUBLIC b3d4c 0 fmt::v11::detail::write_padded<char, (fmt::v11::align::type)2, fmt::v11::basic_appender<char>, fmt::v11::detail::write_bytes<char, (fmt::v11::align::type)2, fmt::v11::basic_appender<char> >(fmt::v11::basic_appender<char>, fmt::v11::basic_string_view<char>, fmt::v11::format_specs const&)::{lambda(fmt::v11::basic_appender<char>&)#1}>(fmt::v11::basic_appender<char>, fmt::v11::format_specs const&, unsigned long, unsigned long, fmt::v11::detail::write_bytes<char, (fmt::v11::align::type)2, fmt::v11::basic_appender<char> >(fmt::v11::basic_appender<char>, fmt::v11::basic_string_view<char>, fmt::v11::format_specs const&)::{lambda(fmt::v11::basic_appender<char>&)#1})
PUBLIC b3f28 0 fmt::v11::detail::format_dragon(fmt::v11::detail::basic_fp<unsigned __int128>, unsigned int, int, fmt::v11::detail::buffer<char>&, int&)
PUBLIC b5358 0 fmt::v11::detail::bigint::operator<<=(int)
PUBLIC b547c 0 fmt::v11::detail::bigint::assign_pow10(int)
PUBLIC b5bd8 0 fmt::v11::detail::bigint::divmod_assign(fmt::v11::detail::bigint const&)
PUBLIC b5ef8 0 fmt::v11::basic_memory_buffer<unsigned int, (unsigned long)32, std::__ndk1::allocator<unsigned int> >::grow(fmt::v11::detail::buffer<unsigned int>&, unsigned long)
PUBLIC b5f98 0 fmt::v11::detail::do_write_float<char, fmt::v11::basic_appender<char>, fmt::v11::detail::big_decimal_fp, fmt::v11::detail::digit_grouping<char> >(fmt::v11::basic_appender<char>, fmt::v11::detail::big_decimal_fp const&, fmt::v11::format_specs const&, fmt::v11::detail::float_specs, fmt::v11::detail::locale_ref)
PUBLIC b6e48 0 fmt::v11::detail::do_write_float<char, fmt::v11::basic_appender<char>, fmt::v11::detail::big_decimal_fp, fmt::v11::detail::digit_grouping<char> >(fmt::v11::basic_appender<char>, fmt::v11::detail::big_decimal_fp const&, fmt::v11::format_specs const&, fmt::v11::detail::float_specs, fmt::v11::detail::locale_ref)::{lambda(fmt::v11::basic_appender<char>(fmt::v11::basic_appender<char>))#1}::operator() const
PUBLIC b6fa8 0 fmt::v11::detail::write_padded<char, (fmt::v11::align::type)2, fmt::v11::basic_appender<char>, fmt::v11::detail::write_ptr<char, fmt::v11::basic_appender<char>, unsigned long>(fmt::v11::basic_appender<char>, unsigned long, fmt::v11::format_specs const*)::{lambda(fmt::v11::basic_appender<char>&)#1}>(fmt::v11::basic_appender<char>, fmt::v11::format_specs const&, unsigned long, unsigned long, fmt::v11::detail::write_ptr<char, fmt::v11::basic_appender<char>, unsigned long>(fmt::v11::basic_appender<char>, unsigned long, fmt::v11::format_specs const*)::{lambda(fmt::v11::basic_appender<char>&)#1})
PUBLIC b71bc 0 fmt::v11::detail::parse_replacement_field<char, fmt::v11::detail::vformat_to<char>(fmt::v11::detail::buffer<char>&, fmt::v11::basic_string_view<char>, fmt::v11::detail::vformat_args<char>::type, fmt::v11::detail::locale_ref)::format_handler&>(char const*, char const*, fmt::v11::detail::vformat_to<char>(fmt::v11::detail::buffer<char>&, fmt::v11::basic_string_view<char>, fmt::v11::detail::vformat_args<char>::type, fmt::v11::detail::locale_ref)::format_handler&)
PUBLIC b8e58 0 fmt::v11::detail::parse_dynamic_spec<char>(char const*, char const*, int&, fmt::v11::detail::arg_ref<char>&, fmt::v11::basic_format_parse_context<char>&)
PUBLIC b90e8 0 fmt::v11::basic_format_args<fmt::v11::context>::get<char>(fmt::v11::basic_string_view<char>) const
PUBLIC b9240 0 fmt::v11::detail::write_int_noinline<char, fmt::v11::basic_appender<char>, unsigned long>(fmt::v11::basic_appender<char>, fmt::v11::detail::write_int_arg<unsigned long>, fmt::v11::format_specs const&, fmt::v11::detail::locale_ref)
PUBLIC ba094 0 fmt::v11::detail::write_int_noinline<char, fmt::v11::basic_appender<char>, unsigned __int128>(fmt::v11::basic_appender<char>, fmt::v11::detail::write_int_arg<unsigned __int128>, fmt::v11::format_specs const&, fmt::v11::detail::locale_ref)
PUBLIC bb0fc 0 _ZN3fmt3v116detail15format_hexfloatIdTnNSt6__ndk19enable_ifIXntsr16is_double_doubleIT_EE5valueEiE4typeELi0EEEvS5_NS0_12format_specsERNS1_6bufferIcEE
PUBLIC bb61c 0 fmt::v11::detail::format_float<double>(double, int, fmt::v11::detail::float_specs, fmt::v11::detail::buffer<char>&)
PUBLIC bbfbc 0 fmt::v11::detail::write<char, fmt::v11::basic_appender<char> >(fmt::v11::basic_appender<char>, fmt::v11::basic_string_view<char>, fmt::v11::format_specs const&)
PUBLIC bd328 0 fmt::v11::detail::for_each_codepoint<fmt::v11::detail::compute_width(fmt::v11::basic_string_view<char>)::count_code_points>(fmt::v11::basic_string_view<char>, fmt::v11::detail::compute_width(fmt::v11::basic_string_view<char>)::count_code_points)::{lambda(char const*, char const*)#1}::operator()(char const*, char const*) const
PUBLIC bd4e0 0 fmt::v11::detail::write_int<fmt::v11::basic_appender<char>, unsigned long, char>(fmt::v11::basic_appender<char>, unsigned long, unsigned int, fmt::v11::format_specs const&, fmt::v11::detail::digit_grouping<char> const&)
PUBLIC bda5c 0 fmt::v11::detail::write_int<fmt::v11::basic_appender<char>, unsigned __int128, char>(fmt::v11::basic_appender<char>, unsigned __int128, unsigned int, fmt::v11::format_specs const&, fmt::v11::detail::digit_grouping<char> const&)
PUBLIC be0e0 0 <.plt ELF section in geode.node-ids.android64.so>
STACK CFI INIT 32240 10 .cfa: sp 0 +
STACK CFI INIT 32250 8 .cfa: sp 0 +
STACK CFI INIT 32258 8 .cfa: sp 0 +
STACK CFI INIT 32260 14 .cfa: sp 0 +
STACK CFI INIT 32274 1c .cfa: sp 0 +
STACK CFI INIT 32290 10 .cfa: sp 0 +
STACK CFI INIT 322a0 30 .cfa: sp 0 +
STACK CFI INIT 322d0 98 .cfa: sp 0 +
STACK CFI INIT 32368 59c .cfa: sp 0 +
STACK CFI INIT 32904 8c .cfa: sp 0 +
STACK CFI INIT 32990 30 .cfa: sp 0 +
STACK CFI INIT 331ac 1c .cfa: sp 0 +
STACK CFI INIT 3371c 4 .cfa: sp 0 +
STACK CFI INIT 33720 14 .cfa: sp 0 +
STACK CFI 33724 .cfa: sp 16 +
STACK CFI 33728 .cfa: x29 16 + .ra: .cfa -8 + ^ x29: .cfa -16 + ^
STACK CFI INIT 33734 10 .cfa: sp 0 +
STACK CFI 33738 .cfa: sp 16 +
STACK CFI 3373c .cfa: x29 16 + .ra: .cfa -8 + ^ x29: .cfa -16 + ^
STACK CFI INIT 33794 30 .cfa: sp 0 +
STACK CFI 33798 .cfa: sp 32 +
STACK CFI 337a0 .cfa: x29 32 + x19: .cfa -16 + ^ .ra: .cfa -24 + ^ x29: .cfa -32 + ^
STACK CFI 337b8 .cfa: sp 32 +
STACK CFI 337c0 .cfa: sp 0 +
STACK CFI INIT 337c4 34 .cfa: sp 0 +
STACK CFI 337c8 .cfa: sp 32 +
STACK CFI 337d0 .cfa: x29 32 + x19: .cfa -16 + ^ .ra: .cfa -24 + ^ x29: .cfa -32 + ^
STACK CFI INIT 33a24 14 .cfa: sp 0 +
STACK CFI 33a28 .cfa: sp 16 +
STACK CFI 33a2c .cfa: x29 16 + .ra: .cfa -8 + ^ x29: .cfa -16 + ^
STACK CFI INIT 33a38 14 .cfa: sp 0 +
STACK CFI 33a3c .cfa: sp 16 +
STACK CFI 33a40 .cfa: x29 16 + .ra: .cfa -8 + ^ x29: .cfa -16 + ^
STACK CFI INIT 33a9c 30 .cfa: sp 0 +
STACK CFI 33aa0 .cfa: sp 32 +
STACK CFI 33aa8 .cfa: x29 32 + x19: .cfa -16 + ^ .ra: .cfa -24 + ^ x29: .cfa -32 + ^
STACK CFI 33ac0 .cfa: sp 32 +
STACK CFI 33ac8 .cfa: sp 0 +
STACK CFI INIT 33acc 14 .cfa: sp 0 +
STACK CFI 33ad0 .cfa: sp 16 +
STACK CFI 33ad4 .cfa: x29 16 + .ra: .cfa -8 + ^ x29: .cfa -16 + ^
STACK CFI INIT 33ae0 4 .cfa: sp 0 +
STACK CFI INIT 33ae4 4 .cfa: sp 0 +
STACK CFI INIT 33ae8 38 .cfa: sp 0 +
STACK CFI 33aec .cfa: sp 32 +
STACK CFI 33af4 .cfa: x29 32 + x19: .cfa -16 + ^ .ra: .cfa -24 + ^ x29: .cfa -32 + ^
STACK CFI 33b14 .cfa: sp 32 +
STACK CFI 33b1c .cfa: sp 0 +
STACK CFI INIT 33b20 18 .cfa: sp 0 +
STACK CFI INIT 33b38 4 .cfa: sp 0 +
STACK CFI INIT 33b3c 4 .cfa: sp 0 +
STACK CFI INIT 33b40 10 .cfa: sp 0 +
STACK CFI INIT 33b50 1c .cfa: sp 0 +
STACK CFI INIT 33b6c c .cfa: sp 0 +
STACK CFI INIT 33f30 50 .cfa: sp 0 +
STACK CFI 33f34 .cfa: sp 32 +
STACK CFI 33f3c .cfa: x29 32 + x19: .cfa -16 + ^ .ra: .cfa -24 + ^ x29: .cfa -32 + ^
STACK CFI 33f54 .cfa: sp 32 +
STACK CFI 33f5c .cfa: sp 0 +
STACK CFI 33f60 .cfa: x29 32 +
STACK CFI 33f74 .cfa: sp 32 +
STACK CFI 33f7c .cfa: sp 0 +
STACK CFI INIT 33ff4 7c .cfa: sp 0 +
STACK CFI 33ff8 .cfa: sp 48 +
STACK CFI 34004 .cfa: x29 48 + x19: .cfa -8 + ^ x20: .cfa -16 + ^ x21: .cfa -32 + ^ .ra: .cfa -40 + ^ x29: .cfa -48 + ^
STACK CFI 34050 .cfa: sp 48 +
STACK CFI 3405c .cfa: sp 0 +
STACK CFI 34060 .cfa: sp 48 +
STACK CFI 3406c .cfa: sp 0 +
STACK CFI INIT 34070 4 .cfa: sp 0 +
STACK CFI INIT 34074 14 .cfa: sp 0 +
STACK CFI 34078 .cfa: sp 16 +
STACK CFI 3407c .cfa: x29 16 + .ra: .cfa -8 + ^ x29: .cfa -16 + ^
STACK CFI INIT 34088 120 .cfa: sp 0 +
STACK CFI 3408c .cfa: sp 64 +
STACK CFI 3409c .cfa: x29 64 + x19: .cfa -8 + ^ x20: .cfa -16 + ^ x21: .cfa -24 + ^ x22: .cfa -32 + ^ x23: .cfa -40 + ^ x24: .cfa -48 + ^ .ra: .cfa -56 + ^ x29: .cfa -64 + ^
STACK CFI 34194 .cfa: sp 64 +
STACK CFI 341a4 .cfa: sp 0 +
STACK CFI INIT 3439c 7c .cfa: sp 0 +
STACK CFI 343a0 .cfa: sp 32 +
STACK CFI 343a8 .cfa: x29 32 + x19: .cfa -8 + ^ x20: .cfa -16 + ^ .ra: .cfa -24 + ^ x29: .cfa -32 + ^
STACK CFI 34400 .cfa: sp 32 +
STACK CFI 34408 .cfa: sp 0 +
STACK CFI 3440c .cfa: sp 32 +
STACK CFI 34414 .cfa: sp 0 +
STACK CFI INIT 34418 80 .cfa: sp 0 +
STACK CFI 3441c .cfa: sp 48 +
STACK CFI 34428 .cfa: x29 48 + x19: .cfa -8 + ^ x20: .cfa -16 + ^ x21: .cfa -24 + ^ x22: .cfa -32 + ^ .ra: .cfa -40 + ^ x29: .cfa -48 + ^
STACK CFI 34440 .cfa: sp 48 +
STACK CFI 3444c .cfa: sp 0 +
STACK CFI 34450 .cfa: x29 48 +
STACK CFI 34480 .cfa: sp 48 +
STACK CFI 3448c .cfa: sp 0 +
STACK CFI 34490 .cfa: x29 48 +
STACK CFI INIT 34498 1b0 .cfa: sp 0 +
STACK CFI INIT 3479c 34 .cfa: sp 0 +
STACK CFI 347a0 .cfa: sp 16 +
STACK CFI 347a4 .cfa: x29 16 + .ra: .cfa -8 + ^ x29: .cfa -16 + ^
STACK CFI INIT 348fc 80 .cfa: sp 0 +
STACK CFI 34900 .cfa: sp 48 +
STACK CFI 3490c .cfa: x29 48 + x19: .cfa -8 + ^ x20: .cfa -16 + ^ x21: .cfa -32 + ^ .ra: .cfa -40 + ^ x29: .cfa -48 + ^
STACK CFI 3496c .cfa: sp 48 +
STACK CFI 34978 .cfa: sp 0 +
STACK CFI INIT 3497c 24 .cfa: sp 0 +
STACK CFI 34980 .cfa: sp 32 +
STACK CFI 34988 .cfa: x29 32 + x19: .cfa -16 + ^ .ra: .cfa -24 + ^ x29: .cfa -32 + ^
STACK CFI 34994 .cfa: sp 32 +
STACK CFI 3499c .cfa: sp 0 +
STACK CFI INIT 34e98 148 .cfa: sp 0 +
STACK CFI 34e9c .cfa: sp 48 +
STACK CFI 34ea8 .cfa: x29 48 + x19: .cfa -8 + ^ x20: .cfa -16 + ^ x21: .cfa -32 + ^ .ra: .cfa -40 + ^ x29: .cfa -48 + ^
STACK CFI 34fd0 .cfa: sp 48 +
STACK CFI 34fdc .cfa: sp 0 +
STACK CFI INIT 35148 4 .cfa: sp 0 +
STACK CFI INIT 3514c 14 .cfa: sp 0 +
STACK CFI INIT 35388 68 .cfa: sp 0 +
STACK CFI 3538c .cfa: sp 32 +
STACK CFI 35394 .cfa: x29 32 + x19: .cfa -8 + ^ x20: .cfa -16 + ^ .ra: .cfa -24 + ^ x29: .cfa -32 + ^
STACK CFI 353ac .cfa: sp 32 +
STACK CFI 353b4 .cfa: sp 0 +
STACK CFI 353b8 .cfa: x29 32 +
STACK CFI 353e4 .cfa: sp 32 +
STACK CFI 353ec .cfa: sp 0 +
STACK CFI INIT 353f0 14 .cfa: sp 0 +
STACK CFI 353f4 .cfa: sp 16 +
STACK CFI 353f8 .cfa: x29 16 + .ra: .cfa -8 + ^ x29: .cfa -16 + ^
STACK CFI INIT 35404 4 .cfa: sp 0 +
STACK CFI INIT 35408 14 .cfa: sp 0 +
STACK CFI INIT 3541c d4 .cfa: sp 0 +
STACK CFI 35420 .cfa: sp 48 +
STACK CFI 3542c .cfa: x29 48 + x19: .cfa -8 + ^ x20: .cfa -16 + ^ x21: .cfa -32 + ^ .ra: .cfa -40 + ^ x29: .cfa -48 + ^
STACK CFI 354bc .cfa: sp 48 +
STACK CFI 354c8 .cfa: sp 0 +
STACK CFI 354cc .cfa: x29 48 +
STACK CFI INIT 354f0 3c8 .cfa: sp 0 +
STACK CFI INIT 358b8 8c .cfa: sp 0 +
STACK CFI 358c0 .cfa: sp 32 +
STACK CFI 358c8 .cfa: x29 32 + x19: .cfa -8 + ^ x20: .cfa -16 + ^ .ra: .cfa -24 + ^ x29: .cfa -32 + ^
STACK CFI 35910 .cfa: sp 32 +
STACK CFI 35918 .cfa: sp 0 +
STACK CFI 35920 .cfa: x29 32 +
STACK CFI INIT 35a9c 50 .cfa: sp 0 +
STACK CFI 35aa0 .cfa: sp 32 +
STACK CFI 35aa8 .cfa: x29 32 + x19: .cfa -16 + ^ .ra: .cfa -24 + ^ x29: .cfa -32 + ^
STACK CFI 35ac0 .cfa: sp 32 +
STACK CFI 35ac8 .cfa: sp 0 +
STACK CFI 35acc .cfa: x29 32 +
STACK CFI 35ae0 .cfa: sp 32 +
STACK CFI 35ae8 .cfa: sp 0 +
STACK CFI INIT 35aec 64 .cfa: sp 0 +
STACK CFI 35af0 .cfa: sp 32 +
STACK CFI 35af8 .cfa: x29 32 + x19: .cfa -16 + ^ .ra: .cfa -24 + ^ x29: .cfa -32 + ^
STACK CFI 35b24 .cfa: sp 32 +
STACK CFI 35b2c .cfa: sp 0 +
STACK CFI 35b30 .cfa: x29 32 +
STACK CFI 35b44 .cfa: sp 32 +
STACK CFI 35b4c .cfa: sp 0 +
STACK CFI INIT 35b50 14 .cfa: sp 0 +
STACK CFI 35b54 .cfa: sp 16 +
STACK CFI 35b58 .cfa: x29 16 + .ra: .cfa -8 + ^ x29: .cfa -16 + ^
STACK CFI INIT 35db8 44c .cfa: sp 0 +
STACK CFI INIT 36204 178 .cfa: sp 0 +
STACK CFI 36208 .cfa: sp 80 +
STACK CFI 3621c .cfa: x29 80 + x19: .cfa -8 + ^ x20: .cfa -16 + ^ x21: .cfa -24 + ^ x22: .cfa -32 + ^ x23: .cfa -40 + ^ x24: .cfa -48 + ^ x25: .cfa -56 + ^ x26: .cfa -64 + ^ .ra: .cfa -72 + ^ x29: .cfa -80 + ^
STACK CFI 36364 .cfa: sp 80 +
STACK CFI 36378 .cfa: sp 0 +
STACK CFI INIT 36b30 50 .cfa: sp 0 +
STACK CFI 36b54 .cfa: sp 32 +
STACK CFI 36b5c .cfa: x29 32 + x19: .cfa -16 + ^ .ra: .cfa -24 + ^ x29: .cfa -32 + ^
STACK CFI 36b70 .cfa: sp 32 +
STACK CFI 36b78 .cfa: sp 0 +
STACK CFI INIT 36b80 1ac .cfa: sp 0 +
STACK CFI 36b84 .cfa: sp 32 +
STACK CFI 36b8c .cfa: x29 32 + x19: .cfa -8 + ^ x20: .cfa -16 + ^ .ra: .cfa -24 + ^ x29: .cfa -32 + ^
STACK CFI 36c7c .cfa: sp 32 +
STACK CFI 36c84 .cfa: sp 0 +
STACK CFI 36c88 .cfa: x29 32 +
STACK CFI INIT 36d2c 44 .cfa: sp 0 +
STACK CFI 36d30 .cfa: sp 32 +
STACK CFI 36d38 .cfa: x29 32 + x19: .cfa -16 + ^ .ra: .cfa -24 + ^ x29: .cfa -32 + ^
STACK CFI 36d64 .cfa: sp 32 +
STACK CFI 36d6c .cfa: sp 0 +
STACK CFI INIT 36d70 40 .cfa: sp 0 +
STACK CFI 36d88 .cfa: sp 32 +
STACK CFI 36d90 .cfa: x29 32 + x19: .cfa -16 + ^ .ra: .cfa -24 + ^ x29: .cfa -32 + ^
STACK CFI 36da4 .cfa: sp 32 +
STACK CFI 36dac .cfa: sp 0 +
STACK CFI INIT 36db0 44 .cfa: sp 0 +
STACK CFI 36db4 .cfa: sp 32 +
STACK CFI 36dbc .cfa: x29 32 + x19: .cfa -16 + ^ .ra: .cfa -24 + ^ x29: .cfa -32 + ^
STACK CFI 36de8 .cfa: sp 32 +
STACK CFI 36df0 .cfa: sp 0 +
STACK CFI INIT 37970 1c .cfa: sp 0 +
STACK CFI INIT 380d8 44 .cfa: sp 0 +
STACK CFI 380dc .cfa: sp 32 +
STACK CFI 380e4 .cfa: x29 32 + x19: .cfa -16 + ^ .ra: .cfa -24 + ^ x29: .cfa -32 + ^
STACK CFI 38110 .cfa: sp 32 +
STACK CFI 38118 .cfa: sp 0 +
STACK CFI INIT 3811c 154 .cfa: sp 0 +
STACK CFI 38120 .cfa: sp 64 +
STACK CFI 38130 .cfa: x29 64 + x19: .cfa -8 + ^ x20: .cfa -16 + ^ x21: .cfa -24 + ^ x22: .cfa -32 + ^ x23: .cfa -48 + ^ .ra: .cfa -56 + ^ x29: .cfa -64 + ^
STACK CFI 3825c .cfa: sp 64 +
STACK CFI 3826c .cfa: sp 0 +
STACK CFI INIT 38270 104 .cfa: sp 0 +
STACK CFI 38274 .cfa: sp 64 +
STACK CFI 38284 .cfa: x29 64 + x19: .cfa -8 + ^ x20: .cfa -16 + ^ x21: .cfa -24 + ^ x22: .cfa -32 + ^ x23: .cfa -48 + ^ .ra: .cfa -56 + ^ x29: .cfa -64 + ^
STACK CFI 382e0 .cfa: sp 64 +
STACK CFI 382f0 .cfa: sp 0 +
STACK CFI 382f4 .cfa: x29 64 +
STACK CFI 38310 .cfa: sp 64 +
STACK CFI 38320 .cfa: sp 0 +
STACK CFI 38324 .cfa: x29 64 +
STACK CFI 38360 .cfa: sp 64 +
STACK CFI 38370 .cfa: sp 0 +
STACK CFI INIT 38374 154 .cfa: sp 0 +
STACK CFI 38378 .cfa: sp 64 +
STACK CFI 38388 .cfa: x29 64 + x19: .cfa -8 + ^ x20: .cfa -16 + ^ x21: .cfa -24 + ^ x22: .cfa -32 + ^ x23: .cfa -48 + ^ .ra: .cfa -56 + ^ x29: .cfa -64 + ^
STACK CFI 384b4 .cfa: sp 64 +
STACK CFI 384c4 .cfa: sp 0 +
STACK CFI INIT 38b64 4 .cfa: sp 0 +
STACK CFI INIT 391fc 9c .cfa: sp 0 +
STACK CFI 39200 .cfa: sp 32 +
STACK CFI 39208 .cfa: x29 32 + x19: .cfa -16 + ^ .ra: .cfa -24 + ^ x29: .cfa -32 + ^
STACK CFI 3928c .cfa: sp 32 +
STACK CFI 39294 .cfa: sp 0 +
STACK CFI INIT 39354 128 .cfa: sp 0 +
STACK CFI 39358 .cfa: sp 128 +
STACK CFI 39374 .cfa: x29 96 + x19: .cfa -8 + ^ x20: .cfa -16 + ^ x21: .cfa -24 + ^ x22: .cfa -32 + ^ x23: .cfa -40 + ^ x24: .cfa -48 + ^ x25: .cfa -56 + ^ x26: .cfa -64 + ^ x27: .cfa -72 + ^ x28: .cfa -80 + ^ .ra: .cfa -88 + ^ x29: .cfa -96 + ^
STACK CFI 3945c .cfa: sp 128 +
STACK CFI 39478 .cfa: sp 0 +
STACK CFI INIT 39af4 1c .cfa: sp 0 +
STACK CFI INIT 39fd8 44 .cfa: sp 0 +
STACK CFI 39fdc .cfa: sp 32 +
STACK CFI 39fe4 .cfa: x29 32 + x19: .cfa -16 + ^ .ra: .cfa -24 + ^ x29: .cfa -32 + ^
STACK CFI 3a010 .cfa: sp 32 +
STACK CFI 3a018 .cfa: sp 0 +
STACK CFI INIT 3a34c 4 .cfa: sp 0 +
STACK CFI INIT 3a540 84 .cfa: sp 0 +
STACK CFI 3a544 .cfa: sp 32 +
STACK CFI 3a54c .cfa: x29 32 + x19: .cfa -16 + ^ .ra: .cfa -24 + ^ x29: .cfa -32 + ^
STACK CFI 3a5b8 .cfa: sp 32 +
STACK CFI 3a5c0 .cfa: sp 0 +
STACK CFI INIT 3a680 118 .cfa: sp 0 +
STACK CFI 3a684 .cfa: sp 80 +
STACK CFI 3a694 .cfa: x29 48 + x19: .cfa -8 + ^ x20: .cfa -16 + ^ x21: .cfa -24 + ^ x22: .cfa -32 + ^ .ra: .cfa -40 + ^ x29: .cfa -48 + ^
STACK CFI 3a780 .cfa: sp 80 +
STACK CFI 3a790 .cfa: sp 0 +
STACK CFI 3a794 .cfa: x29 48 +
STACK CFI INIT 3ae10 1c .cfa: sp 0 +
STACK CFI INIT 3bed8 44 .cfa: sp 0 +
STACK CFI 3bedc .cfa: sp 32 +
STACK CFI 3bee4 .cfa: x29 32 + x19: .cfa -16 + ^ .ra: .cfa -24 + ^ x29: .cfa -32 + ^
STACK CFI 3bf10 .cfa: sp 32 +
STACK CFI 3bf18 .cfa: sp 0 +
STACK CFI INIT 3c2a4 4 .cfa: sp 0 +
STACK CFI INIT 3ce9c 1c .cfa: sp 0 +
STACK CFI INIT 3d944 44 .cfa: sp 0 +
STACK CFI 3d948 .cfa: sp 32 +
STACK CFI 3d950 .cfa: x29 32 + x19: .cfa -16 + ^ .ra: .cfa -24 + ^ x29: .cfa -32 + ^
STACK CFI 3d97c .cfa: sp 32 +
STACK CFI 3d984 .cfa: sp 0 +
STACK CFI INIT 3d988 154 .cfa: sp 0 +
STACK CFI 3d98c .cfa: sp 64 +
STACK CFI 3d99c .cfa: x29 64 + x19: .cfa -8 + ^ x20: .cfa -16 + ^ x21: .cfa -24 + ^ x22: .cfa -32 + ^ x23: .cfa -48 + ^ .ra: .cfa -56 + ^ x29: .cfa -64 + ^
STACK CFI 3dac8 .cfa: sp 64 +
STACK CFI 3dad8 .cfa: sp 0 +
STACK CFI INIT 3ddf0 4 .cfa: sp 0 +
STACK CFI INIT 3dfe4 98 .cfa: sp 0 +
STACK CFI INIT 3e7a4 1c .cfa: sp 0 +
STACK CFI INIT 3ee00 44 .cfa: sp 0 +
STACK CFI 3ee04 .cfa: sp 32 +
STACK CFI 3ee0c .cfa: x29 32 + x19: .cfa -16 + ^ .ra: .cfa -24 + ^ x29: .cfa -32 + ^
STACK CFI 3ee38 .cfa: sp 32 +
STACK CFI 3ee40 .cfa: sp 0 +
STACK CFI INIT 3fa98 4 .cfa: sp 0 +
STACK CFI INIT 40970 1c .cfa: sp 0 +
STACK CFI INIT 4217c 44 .cfa: sp 0 +
STACK CFI 42180 .cfa: sp 32 +
STACK CFI 42188 .cfa: x29 32 + x19: .cfa -16 + ^ .ra: .cfa -24 + ^ x29: .cfa -32 + ^
STACK CFI 421b4 .cfa: sp 32 +
STACK CFI 421bc .cfa: sp 0 +
STACK CFI INIT 421c0 118 .cfa: sp 0 +
STACK CFI 421c4 .cfa: sp 80 +
STACK CFI 421d4 .cfa: x29 48 + x19: .cfa -8 + ^ x20: .cfa -16 + ^ x21: .cfa -24 + ^ x22: .cfa -32 + ^ .ra: .cfa -40 + ^ x29: .cfa -48 + ^
STACK CFI 422c0 .cfa: sp 80 +
STACK CFI 422d0 .cfa: sp 0 +
STACK CFI 422d4 .cfa: x29 48 +
STACK CFI INIT 4294c 4 .cfa: sp 0 +
STACK CFI INIT 42ab4 4 .cfa: sp 0 +
STACK CFI INIT 42ab8 208 .cfa: sp 0 +
STACK CFI 42abc .cfa: sp 32 +
STACK CFI 42ac4 .cfa: x29 32 + x19: .cfa -16 + ^ .ra: .cfa -24 + ^ x29: .cfa -32 + ^
STACK CFI 42ca8 .cfa: sp 32 +
STACK CFI 42cb0 .cfa: sp 0 +
STACK CFI 42cb4 .cfa: sp 32 +
STACK CFI 42cbc .cfa: sp 0 +
STACK CFI INIT 42d80 154 .cfa: sp 0 +
STACK CFI 42d84 .cfa: sp 64 +
STACK CFI 42d94 .cfa: x29 64 + x19: .cfa -8 + ^ x20: .cfa -16 + ^ x21: .cfa -24 + ^ x22: .cfa -32 + ^ x23: .cfa -48 + ^ .ra: .cfa -56 + ^ x29: .cfa -64 + ^
STACK CFI 42ec0 .cfa: sp 64 +
STACK CFI 42ed0 .cfa: sp 0 +
STACK CFI INIT 43540 1c .cfa: sp 0 +
STACK CFI INIT 436e8 4 .cfa: sp 0 +
STACK CFI INIT 43aa4 4 .cfa: sp 0 +
STACK CFI INIT 4454c 44 .cfa: sp 0 +
STACK CFI 44550 .cfa: sp 32 +
STACK CFI 44558 .cfa: x29 32 + x19: .cfa -16 + ^ .ra: .cfa -24 + ^ x29: .cfa -32 + ^
STACK CFI 44584 .cfa: sp 32 +
STACK CFI 4458c .cfa: sp 0 +
STACK CFI INIT 44cb8 1c .cfa: sp 0 +
STACK CFI INIT 45888 44 .cfa: sp 0 +
STACK CFI 4588c .cfa: sp 32 +
STACK CFI 45894 .cfa: x29 32 + x19: .cfa -16 + ^ .ra: .cfa -24 + ^ x29: .cfa -32 + ^
STACK CFI 458c0 .cfa: sp 32 +
STACK CFI 458c8 .cfa: sp 0 +
STACK CFI INIT 45c38 4 .cfa: sp 0 +
STACK CFI INIT 4684c 1c .cfa: sp 0 +
STACK CFI INIT 46f64 44 .cfa: sp 0 +
STACK CFI 46f68 .cfa: sp 32 +
STACK CFI 46f70 .cfa: x29 32 + x19: .cfa -16 + ^ .ra: .cfa -24 + ^ x29: .cfa -32 + ^
STACK CFI 46f9c .cfa: sp 32 +
STACK CFI 46fa4 .cfa: sp 0 +
STACK CFI INIT 46fa8 154 .cfa: sp 0 +
STACK CFI 46fac .cfa: sp 64 +
STACK CFI 46fbc .cfa: x29 64 + x19: .cfa -8 + ^ x20: .cfa -16 + ^ x21: .cfa -24 + ^ x22: .cfa -32 + ^ x23: .cfa -48 + ^ .ra: .cfa -56 + ^ x29: .cfa -64 + ^
STACK CFI 470e8 .cfa: sp 64 +
STACK CFI 470f8 .cfa: sp 0 +
STACK CFI INIT 470fc 154 .cfa: sp 0 +
STACK CFI 47100 .cfa: sp 64 +
STACK CFI 47110 .cfa: x29 64 + x19: .cfa -8 + ^ x20: .cfa -16 + ^ x21: .cfa -24 + ^ x22: .cfa -32 + ^ x23: .cfa -48 + ^ .ra: .cfa -56 + ^ x29: .cfa -64 + ^
STACK CFI 4723c .cfa: sp 64 +
STACK CFI 4724c .cfa: sp 0 +
STACK CFI INIT 47588 4 .cfa: sp 0 +
STACK CFI INIT 47778 84 .cfa: sp 0 +
STACK CFI 4777c .cfa: sp 32 +
STACK CFI 47784 .cfa: x29 32 + x19: .cfa -16 + ^ .ra: .cfa -24 + ^ x29: .cfa -32 + ^
STACK CFI 477f0 .cfa: sp 32 +
STACK CFI 477f8 .cfa: sp 0 +
STACK CFI INIT 478b8 114 .cfa: sp 0 +
STACK CFI 478bc .cfa: sp 80 +
STACK CFI 478cc .cfa: x29 48 + x19: .cfa -8 + ^ x20: .cfa -16 + ^ x21: .cfa -24 + ^ x22: .cfa -32 + ^ .ra: .cfa -40 + ^ x29: .cfa -48 + ^
STACK CFI 479b4 .cfa: sp 80 +
STACK CFI 479c4 .cfa: sp 0 +
STACK CFI 479c8 .cfa: x29 48 +
STACK CFI INIT 48038 1c .cfa: sp 0 +
STACK CFI INIT 481e0 4 .cfa: sp 0 +
STACK CFI INIT 49274 4 .cfa: sp 0 +
STACK CFI INIT 49dd0 44 .cfa: sp 0 +
STACK CFI 49dd4 .cfa: sp 32 +
STACK CFI 49ddc .cfa: x29 32 + x19: .cfa -16 + ^ .ra: .cfa -24 + ^ x29: .cfa -32 + ^
STACK CFI 49e08 .cfa: sp 32 +
STACK CFI 49e10 .cfa: sp 0 +
STACK CFI INIT 4a53c 1c .cfa: sp 0 +
STACK CFI INIT 4af94 44 .cfa: sp 0 +
STACK CFI 4af98 .cfa: sp 32 +
STACK CFI 4afa0 .cfa: x29 32 + x19: .cfa -16 + ^ .ra: .cfa -24 + ^ x29: .cfa -32 + ^
STACK CFI 4afcc .cfa: sp 32 +
STACK CFI 4afd4 .cfa: sp 0 +
STACK CFI INIT 4b344 4 .cfa: sp 0 +
STACK CFI INIT 4d3b0 154 .cfa: sp 0 +
STACK CFI 4d3b4 .cfa: sp 144 +
STACK CFI 4d3d0 .cfa: x29 96 + x19: .cfa -8 + ^ x20: .cfa -16 + ^ x21: .cfa -24 + ^ x22: .cfa -32 + ^ x23: .cfa -40 + ^ x24: .cfa -48 + ^ x25: .cfa -56 + ^ x26: .cfa -64 + ^ x27: .cfa -72 + ^ x28: .cfa -80 + ^ .ra: .cfa -88 + ^ x29: .cfa -96 + ^
STACK CFI 4d4e4 .cfa: sp 144 +
STACK CFI 4d500 .cfa: sp 0 +
STACK CFI INIT 4d504 8c .cfa: sp 0 +
STACK CFI 4d508 .cfa: sp 32 +
STACK CFI 4d510 .cfa: x29 32 + x19: .cfa -16 + ^ .ra: .cfa -24 + ^ x29: .cfa -32 + ^
STACK CFI 4d584 .cfa: sp 32 +
STACK CFI 4d58c .cfa: sp 0 +
STACK CFI INIT 4dbf8 1c .cfa: sp 0 +
STACK CFI INIT 4ddd0 44 .cfa: sp 0 +
STACK CFI 4ddd4 .cfa: sp 32 +
STACK CFI 4dddc .cfa: x29 32 + x19: .cfa -16 + ^ .ra: .cfa -24 + ^ x29: .cfa -32 + ^
STACK CFI 4de08 .cfa: sp 32 +
STACK CFI 4de10 .cfa: sp 0 +
STACK CFI INIT 4de14 118 .cfa: sp 0 +
STACK CFI 4de18 .cfa: sp 80 +
STACK CFI 4de28 .cfa: x29 48 + x19: .cfa -8 + ^ x20: .cfa -16 + ^ x21: .cfa -24 + ^ x22: .cfa -32 + ^ .ra: .cfa -40 + ^ x29: .cfa -48 + ^
STACK CFI 4df14 .cfa: sp 80 +
STACK CFI 4df24 .cfa: sp 0 +
STACK CFI 4df28 .cfa: x29 48 +
STACK CFI INIT 4e28c 4 .cfa: sp 0 +
STACK CFI INIT 5139c 1c .cfa: sp 0 +
STACK CFI INIT 51554 44 .cfa: sp 0 +
STACK CFI 51558 .cfa: sp 32 +
STACK CFI 51560 .cfa: x29 32 + x19: .cfa -16 + ^ .ra: .cfa -24 + ^ x29: .cfa -32 + ^
STACK CFI 5158c .cfa: sp 32 +
STACK CFI 51594 .cfa: sp 0 +
STACK CFI INIT 51598 118 .cfa: sp 0 +
STACK CFI 5159c .cfa: sp 80 +
STACK CFI 515ac .cfa: x29 48 + x19: .cfa -8 + ^ x20: .cfa -16 + ^ x21: .cfa -24 + ^ x22: .cfa -32 + ^ .ra: .cfa -40 + ^ x29: .cfa -48 + ^
STACK CFI 51698 .cfa: sp 80 +
STACK CFI 516a8 .cfa: sp 0 +
STACK CFI 516ac .cfa: x29 48 +
STACK CFI INIT 51a10 4 .cfa: sp 0 +
STACK CFI INIT 52160 1c .cfa: sp 0 +
STACK CFI INIT 5217c 14 .cfa: sp 0 +
STACK CFI 52180 .cfa: sp 16 +
STACK CFI 52184 .cfa: x29 16 + .ra: .cfa -8 + ^ x29: .cfa -16 + ^
STACK CFI INIT 53514 44 .cfa: sp 0 +
STACK CFI 53518 .cfa: sp 32 +
STACK CFI 53520 .cfa: x29 32 + x19: .cfa -16 + ^ .ra: .cfa -24 + ^ x29: .cfa -32 + ^
STACK CFI 5354c .cfa: sp 32 +
STACK CFI 53554 .cfa: sp 0 +
STACK CFI INIT 53b58 4 .cfa: sp 0 +
STACK CFI INIT 54600 90 .cfa: sp 0 +
STACK CFI 54604 .cfa: sp 32 +
STACK CFI 5460c .cfa: x29 32 + x19: .cfa -16 + ^ .ra: .cfa -24 + ^ x29: .cfa -32 + ^
STACK CFI 54684 .cfa: sp 32 +
STACK CFI 5468c .cfa: sp 0 +
STACK CFI INIT 54e5c 1c .cfa: sp 0 +
STACK CFI INIT 556f0 44 .cfa: sp 0 +
STACK CFI 556f4 .cfa: sp 32 +
STACK CFI 556fc .cfa: x29 32 + x19: .cfa -16 + ^ .ra: .cfa -24 + ^ x29: .cfa -32 + ^
STACK CFI 55728 .cfa: sp 32 +
STACK CFI 55730 .cfa: sp 0 +
STACK CFI INIT 563ec 4 .cfa: sp 0 +
STACK CFI INIT 566a0 118 .cfa: sp 0 +
STACK CFI 566a4 .cfa: sp 80 +
STACK CFI 566b4 .cfa: x29 48 + x19: .cfa -8 + ^ x20: .cfa -16 + ^ x21: .cfa -24 + ^ x22: .cfa -32 + ^ .ra: .cfa -40 + ^ x29: .cfa -48 + ^
STACK CFI 567a0 .cfa: sp 80 +
STACK CFI 567b0 .cfa: sp 0 +
STACK CFI 567b4 .cfa: x29 48 +
STACK CFI INIT 56e30 1c .cfa: sp 0 +
STACK CFI INIT 57550 44 .cfa: sp 0 +
STACK CFI 57554 .cfa: sp 32 +
STACK CFI 5755c .cfa: x29 32 + x19: .cfa -16 + ^ .ra: .cfa -24 + ^ x29: .cfa -32 + ^
STACK CFI 57588 .cfa: sp 32 +
STACK CFI 57590 .cfa: sp 0 +
STACK CFI INIT 57914 4 .cfa: sp 0 +
STACK CFI INIT 57b1c 118 .cfa: sp 0 +
STACK CFI 57b20 .cfa: sp 80 +
STACK CFI 57b30 .cfa: x29 48 + x19: .cfa -8 + ^ x20: .cfa -16 + ^ x21: .cfa -24 + ^ x22: .cfa -32 + ^ .ra: .cfa -40 + ^ x29: .cfa -48 + ^
STACK CFI 57c1c .cfa: sp 80 +
STACK CFI 57c2c .cfa: sp 0 +
STACK CFI 57c30 .cfa: x29 48 +
STACK CFI INIT 582ac 1c .cfa: sp 0 +
STACK CFI INIT 58d58 44 .cfa: sp 0 +
STACK CFI 58d5c .cfa: sp 32 +
STACK CFI 58d64 .cfa: x29 32 + x19: .cfa -16 + ^ .ra: .cfa -24 + ^ x29: .cfa -32 + ^
STACK CFI 58d90 .cfa: sp 32 +
STACK CFI 58d98 .cfa: sp 0 +
STACK CFI INIT 5911c 4 .cfa: sp 0 +
STACK CFI INIT 5999c 1c .cfa: sp 0 +
STACK CFI INIT 59bec 44 .cfa: sp 0 +
STACK CFI 59bf0 .cfa: sp 32 +
STACK CFI 59bf8 .cfa: x29 32 + x19: .cfa -16 + ^ .ra: .cfa -24 + ^ x29: .cfa -32 + ^
STACK CFI 59c24 .cfa: sp 32 +
STACK CFI 59c2c .cfa: sp 0 +
STACK CFI INIT 5a050 4 .cfa: sp 0 +
STACK CFI INIT 5a8c4 1c .cfa: sp 0 +
STACK CFI INIT 5ab98 44 .cfa: sp 0 +
STACK CFI 5ab9c .cfa: sp 32 +
STACK CFI 5aba4 .cfa: x29 32 + x19: .cfa -16 + ^ .ra: .cfa -24 + ^ x29: .cfa -32 + ^
STACK CFI 5abd0 .cfa: sp 32 +
STACK CFI 5abd8 .cfa: sp 0 +
STACK CFI INIT 5af94 4 .cfa: sp 0 +
STACK CFI INIT 5b208 140 .cfa: sp 0 +
STACK CFI 5b20c .cfa: sp 128 +
STACK CFI 5b228 .cfa: x29 96 + x19: .cfa -8 + ^ x20: .cfa -16 + ^ x21: .cfa -24 + ^ x22: .cfa -32 + ^ x23: .cfa -40 + ^ x24: .cfa -48 + ^ x25: .cfa -56 + ^ x26: .cfa -64 + ^ x27: .cfa -72 + ^ x28: .cfa -80 + ^ .ra: .cfa -88 + ^ x29: .cfa -96 + ^
STACK CFI 5b328 .cfa: sp 128 +
STACK CFI 5b344 .cfa: sp 0 +
STACK CFI INIT 5bbf8 1c .cfa: sp 0 +
STACK CFI INIT 5c6c4 44 .cfa: sp 0 +
STACK CFI 5c6c8 .cfa: sp 32 +
STACK CFI 5c6d0 .cfa: x29 32 + x19: .cfa -16 + ^ .ra: .cfa -24 + ^ x29: .cfa -32 + ^
STACK CFI 5c6fc .cfa: sp 32 +
STACK CFI 5c704 .cfa: sp 0 +
STACK CFI INIT 5cd3c 4 .cfa: sp 0 +
STACK CFI INIT 5ce84 48 .cfa: sp 0 +
STACK CFI 5ce88 .cfa: sp 32 +
STACK CFI 5ce90 .cfa: x29 32 + x19: .cfa -16 + ^ .ra: .cfa -24 + ^ x29: .cfa -32 + ^
STACK CFI 5ceb4 .cfa: sp 32 +
STACK CFI 5cebc .cfa: sp 0 +
STACK CFI 5cec0 .cfa: sp 32 +
STACK CFI 5cec8 .cfa: sp 0 +
STACK CFI INIT 5cf74 b4 .cfa: sp 0 +
STACK CFI 5cf78 .cfa: sp 32 +
STACK CFI 5cf80 .cfa: x29 32 + x19: .cfa -16 + ^ .ra: .cfa -24 + ^ x29: .cfa -32 + ^
STACK CFI 5d01c .cfa: sp 32 +
STACK CFI 5d024 .cfa: sp 0 +
STACK CFI INIT 5d750 1c .cfa: sp 0 +
STACK CFI INIT 5d994 44 .cfa: sp 0 +
STACK CFI 5d998 .cfa: sp 32 +
STACK CFI 5d9a0 .cfa: x29 32 + x19: .cfa -16 + ^ .ra: .cfa -24 + ^ x29: .cfa -32 + ^
STACK CFI 5d9cc .cfa: sp 32 +
STACK CFI 5d9d4 .cfa: sp 0 +
STACK CFI INIT 5dd88 4 .cfa: sp 0 +
STACK CFI INIT 5e5f0 1c .cfa: sp 0 +
STACK CFI INIT 5e794 4 .cfa: sp 0 +
STACK CFI INIT 5eb98 4 .cfa: sp 0 +
STACK CFI INIT 5efe4 44 .cfa: sp 0 +
STACK CFI 5efe8 .cfa: sp 32 +
STACK CFI 5eff0 .cfa: x29 32 + x19: .cfa -16 + ^ .ra: .cfa -24 + ^ x29: .cfa -32 + ^
STACK CFI 5f01c .cfa: sp 32 +
STACK CFI 5f024 .cfa: sp 0 +
STACK CFI INIT 5f0e8 118 .cfa: sp 0 +
STACK CFI 5f0ec .cfa: sp 80 +
STACK CFI 5f0fc .cfa: x29 48 + x19: .cfa -8 + ^ x20: .cfa -16 + ^ x21: .cfa -24 + ^ x22: .cfa -32 + ^ .ra: .cfa -40 + ^ x29: .cfa -48 + ^
STACK CFI 5f1e8 .cfa: sp 80 +
STACK CFI 5f1f8 .cfa: sp 0 +
STACK CFI 5f1fc .cfa: x29 48 +
STACK CFI INIT 5f878 1c .cfa: sp 0 +
STACK CFI INIT 5fd98 44 .cfa: sp 0 +
STACK CFI 5fd9c .cfa: sp 32 +
STACK CFI 5fda4 .cfa: x29 32 + x19: .cfa -16 + ^ .ra: .cfa -24 + ^ x29: .cfa -32 + ^
STACK CFI 5fdd0 .cfa: sp 32 +
STACK CFI 5fdd8 .cfa: sp 0 +
STACK CFI INIT 60164 4 .cfa: sp 0 +
STACK CFI INIT 609cc 1c .cfa: sp 0 +
STACK CFI INIT 60f18 44 .cfa: sp 0 +
STACK CFI 60f1c .cfa: sp 32 +
STACK CFI 60f24 .cfa: x29 32 + x19: .cfa -16 + ^ .ra: .cfa -24 + ^ x29: .cfa -32 + ^
STACK CFI 60f50 .cfa: sp 32 +
STACK CFI 60f58 .cfa: sp 0 +
STACK CFI INIT 612e4 4 .cfa: sp 0 +
STACK CFI INIT 61a44 1c .cfa: sp 0 +
STACK CFI INIT 6208c 4 .cfa: sp 0 +
STACK CFI INIT 62b08 1c .cfa: sp 0 +
STACK CFI INIT 63b70 44 .cfa: sp 0 +
STACK CFI 63b74 .cfa: sp 32 +
STACK CFI 63b7c .cfa: x29 32 + x19: .cfa -16 + ^ .ra: .cfa -24 + ^ x29: .cfa -32 + ^
STACK CFI 63ba8 .cfa: sp 32 +
STACK CFI 63bb0 .cfa: sp 0 +
STACK CFI INIT 64254 4 .cfa: sp 0 +
STACK CFI INIT 64f9c 98 .cfa: sp 0 +
STACK CFI INIT 65758 1c .cfa: sp 0 +
STACK CFI INIT 658fc 4 .cfa: sp 0 +
STACK CFI INIT 65c64 4 .cfa: sp 0 +
STACK CFI INIT 663f0 44 .cfa: sp 0 +
STACK CFI 663f4 .cfa: sp 32 +
STACK CFI 663fc .cfa: x29 32 + x19: .cfa -16 + ^ .ra: .cfa -24 + ^ x29: .cfa -32 + ^
STACK CFI 66428 .cfa: sp 32 +
STACK CFI 66430 .cfa: sp 0 +
STACK CFI INIT 66d64 1c .cfa: sp 0 +
STACK CFI INIT 67614 44 .cfa: sp 0 +
STACK CFI 67618 .cfa: sp 32 +
STACK CFI 67620 .cfa: x29 32 + x19: .cfa -16 + ^ .ra: .cfa -24 + ^ x29: .cfa -32 + ^
STACK CFI 6764c .cfa: sp 32 +
STACK CFI 67654 .cfa: sp 0 +
STACK CFI INIT 67c84 4 .cfa: sp 0 +
STACK CFI INIT 6aba4 9c .cfa: sp 0 +
STACK CFI 6aba8 .cfa: sp 48 +
STACK CFI 6abb4 .cfa: x29 48 + x19: .cfa -8 + ^ x20: .cfa -16 + ^ x21: .cfa -24 + ^ x22: .cfa -32 + ^ .ra: .cfa -40 + ^ x29: .cfa -48 + ^
STACK CFI 6abe8 .cfa: sp 48 +
STACK CFI 6abf4 .cfa: sp 0 +
STACK CFI 6abf8 .cfa: x29 48 +
STACK CFI 6ac28 .cfa: sp 48 +
STACK CFI 6ac34 .cfa: sp 0 +
STACK CFI 6ac38 .cfa: x29 48 +
STACK CFI INIT 6b1a0 1c .cfa: sp 0 +
STACK CFI INIT 6b378 44 .cfa: sp 0 +
STACK CFI 6b37c .cfa: sp 32 +
STACK CFI 6b384 .cfa: x29 32 + x19: .cfa -16 + ^ .ra: .cfa -24 + ^ x29: .cfa -32 + ^
STACK CFI 6b3b0 .cfa: sp 32 +
STACK CFI 6b3b8 .cfa: sp 0 +
STACK CFI INIT 6ba48 4 .cfa: sp 0 +
STACK CFI INIT 6bdcc 28 .cfa: sp 0 +
STACK CFI 6bdd0 .cfa: sp 32 +
STACK CFI 6bdd8 .cfa: x29 32 + x19: .cfa -16 + ^ .ra: .cfa -24 + ^ x29: .cfa -32 + ^
STACK CFI 6bde8 .cfa: sp 32 +
STACK CFI 6bdf0 .cfa: sp 0 +
STACK CFI INIT 6c518 1c .cfa: sp 0 +
STACK CFI INIT 6cf94 44 .cfa: sp 0 +
STACK CFI 6cf98 .cfa: sp 32 +
STACK CFI 6cfa0 .cfa: x29 32 + x19: .cfa -16 + ^ .ra: .cfa -24 + ^ x29: .cfa -32 + ^
STACK CFI 6cfcc .cfa: sp 32 +
STACK CFI 6cfd4 .cfa: sp 0 +
STACK CFI INIT 6cfd8 2b8 .cfa: sp 0 +
STACK CFI INIT 6d640 4 .cfa: sp 0 +
STACK CFI INIT 6debc 1c .cfa: sp 0 +
STACK CFI INIT 6e2c4 44 .cfa: sp 0 +
STACK CFI 6e2c8 .cfa: sp 32 +
STACK CFI 6e2d0 .cfa: x29 32 + x19: .cfa -16 + ^ .ra: .cfa -24 + ^ x29: .cfa -32 + ^
STACK CFI 6e2fc .cfa: sp 32 +
STACK CFI 6e304 .cfa: sp 0 +
STACK CFI INIT 6e688 4 .cfa: sp 0 +
STACK CFI INIT 6eefc 1c .cfa: sp 0 +
STACK CFI INIT 6fcfc 44 .cfa: sp 0 +
STACK CFI 6fd00 .cfa: sp 32 +
STACK CFI 6fd08 .cfa: x29 32 + x19: .cfa -16 + ^ .ra: .cfa -24 + ^ x29: .cfa -32 + ^
STACK CFI 6fd34 .cfa: sp 32 +
STACK CFI 6fd3c .cfa: sp 0 +
STACK CFI INIT 700c8 4 .cfa: sp 0 +
STACK CFI INIT 70948 1c .cfa: sp 0 +
STACK CFI INIT 71e98 44 .cfa: sp 0 +
STACK CFI 71e9c .cfa: sp 32 +
STACK CFI 71ea4 .cfa: x29 32 + x19: .cfa -16 + ^ .ra: .cfa -24 + ^ x29: .cfa -32 + ^
STACK CFI 71ed0 .cfa: sp 32 +
STACK CFI 71ed8 .cfa: sp 0 +
STACK CFI INIT 721f8 4 .cfa: sp 0 +
STACK CFI INIT 723e8 90 .cfa: sp 0 +
STACK CFI INIT 75adc 1c .cfa: sp 0 +
STACK CFI INIT 75cc8 44 .cfa: sp 0 +
STACK CFI 75ccc .cfa: sp 32 +
STACK CFI 75cd4 .cfa: x29 32 + x19: .cfa -16 + ^ .ra: .cfa -24 + ^ x29: .cfa -32 + ^
STACK CFI 75d00 .cfa: sp 32 +
STACK CFI 75d08 .cfa: sp 0 +
STACK CFI INIT 75d0c 118 .cfa: sp 0 +
STACK CFI 75d10 .cfa: sp 80 +
STACK CFI 75d20 .cfa: x29 48 + x19: .cfa -8 + ^ x20: .cfa -16 + ^ x21: .cfa -24 + ^ x22: .cfa -32 + ^ .ra: .cfa -40 + ^ x29: .cfa -48 + ^
STACK CFI 75e0c .cfa: sp 80 +
STACK CFI 75e1c .cfa: sp 0 +
STACK CFI 75e20 .cfa: x29 48 +
STACK CFI INIT 761a4 4 .cfa: sp 0 +
STACK CFI INIT 7696c 1c .cfa: sp 0 +
STACK CFI INIT 76b14 4 .cfa: sp 0 +
STACK CFI INIT 772cc 4 .cfa: sp 0 +
STACK CFI INIT 7764c 34 .cfa: sp 0 +
STACK CFI 77650 .cfa: sp 32 +
STACK CFI 77658 .cfa: x29 32 + x19: .cfa -16 + ^ .ra: .cfa -24 + ^ x29: .cfa -32 + ^
STACK CFI 77674 .cfa: sp 32 +
STACK CFI 7767c .cfa: sp 0 +
STACK CFI INIT 77748 38 .cfa: sp 0 +
STACK CFI 7774c .cfa: sp 32 +
STACK CFI 77754 .cfa: x29 32 + x19: .cfa -16 + ^ .ra: .cfa -24 + ^ x29: .cfa -32 + ^
STACK CFI 77774 .cfa: sp 32 +
STACK CFI 7777c .cfa: sp 0 +
STACK CFI INIT 7932c 44 .cfa: sp 0 +
STACK CFI 79330 .cfa: sp 32 +
STACK CFI 79338 .cfa: x29 32 + x19: .cfa -16 + ^ .ra: .cfa -24 + ^ x29: .cfa -32 + ^
STACK CFI 79364 .cfa: sp 32 +
STACK CFI 7936c .cfa: sp 0 +
STACK CFI INIT 79bb8 1c .cfa: sp 0 +
STACK CFI INIT 79e9c 44 .cfa: sp 0 +
STACK CFI 79ea0 .cfa: sp 32 +
STACK CFI 79ea8 .cfa: x29 32 + x19: .cfa -16 + ^ .ra: .cfa -24 + ^ x29: .cfa -32 + ^
STACK CFI 79ed4 .cfa: sp 32 +
STACK CFI 79edc .cfa: sp 0 +
STACK CFI INIT 79ee0 154 .cfa: sp 0 +
STACK CFI 79ee4 .cfa: sp 64 +
STACK CFI 79ef4 .cfa: x29 64 + x19: .cfa -8 + ^ x20: .cfa -16 + ^ x21: .cfa -24 + ^ x22: .cfa -32 + ^ x23: .cfa -48 + ^ .ra: .cfa -56 + ^ x29: .cfa -64 + ^
STACK CFI 7a020 .cfa: sp 64 +
STACK CFI 7a030 .cfa: sp 0 +
STACK CFI INIT 7a3d8 4 .cfa: sp 0 +
STACK CFI INIT 7ac34 1c .cfa: sp 0 +
STACK CFI INIT 7c4c0 44 .cfa: sp 0 +
STACK CFI 7c4c4 .cfa: sp 32 +
STACK CFI 7c4cc .cfa: x29 32 + x19: .cfa -16 + ^ .ra: .cfa -24 + ^ x29: .cfa -32 + ^
STACK CFI 7c4f8 .cfa: sp 32 +
STACK CFI 7c500 .cfa: sp 0 +
STACK CFI INIT 7cef4 4 .cfa: sp 0 +
STACK CFI INIT 7df44 1c .cfa: sp 0 +
STACK CFI INIT 7ef9c 44 .cfa: sp 0 +
STACK CFI 7efa0 .cfa: sp 32 +
STACK CFI 7efa8 .cfa: x29 32 + x19: .cfa -16 + ^ .ra: .cfa -24 + ^ x29: .cfa -32 + ^
STACK CFI 7efd4 .cfa: sp 32 +
STACK CFI 7efdc .cfa: sp 0 +
STACK CFI INIT 7f398 4 .cfa: sp 0 +
STACK CFI INIT 7fc00 1c .cfa: sp 0 +
STACK CFI INIT 80954 44 .cfa: sp 0 +
STACK CFI 80958 .cfa: sp 32 +
STACK CFI 80960 .cfa: x29 32 + x19: .cfa -16 + ^ .ra: .cfa -24 + ^ x29: .cfa -32 + ^
STACK CFI 8098c .cfa: sp 32 +
STACK CFI 80994 .cfa: sp 0 +
STACK CFI INIT 80998 3c .cfa: sp 0 +
STACK CFI 809a0 .cfa: sp 32 +
STACK CFI 809a8 .cfa: x29 32 + x19: .cfa -16 + ^ .ra: .cfa -24 + ^ x29: .cfa -32 + ^
STACK CFI 809c4 .cfa: sp 32 +
STACK CFI 809cc .cfa: sp 0 +
STACK CFI INIT 80d5c 4 .cfa: sp 0 +
STACK CFI INIT 80f4c 118 .cfa: sp 0 +
STACK CFI 80f50 .cfa: sp 80 +
STACK CFI 80f60 .cfa: x29 48 + x19: .cfa -8 + ^ x20: .cfa -16 + ^ x21: .cfa -24 + ^ x22: .cfa -32 + ^ .ra: .cfa -40 + ^ x29: .cfa -48 + ^
STACK CFI 8104c .cfa: sp 80 +
STACK CFI 8105c .cfa: sp 0 +
STACK CFI 81060 .cfa: x29 48 +
STACK CFI INIT 816d0 1c .cfa: sp 0 +
STACK CFI INIT 81e74 44 .cfa: sp 0 +
STACK CFI 81e78 .cfa: sp 32 +
STACK CFI 81e80 .cfa: x29 32 + x19: .cfa -16 + ^ .ra: .cfa -24 + ^ x29: .cfa -32 + ^
STACK CFI 81eac .cfa: sp 32 +
STACK CFI 81eb4 .cfa: sp 0 +
STACK CFI INIT 824b8 4 .cfa: sp 0 +
STACK CFI INIT 837b0 1c .cfa: sp 0 +
STACK CFI INIT 83e50 44 .cfa: sp 0 +
STACK CFI 83e54 .cfa: sp 32 +
STACK CFI 83e5c .cfa: x29 32 + x19: .cfa -16 + ^ .ra: .cfa -24 + ^ x29: .cfa -32 + ^
STACK CFI 83e88 .cfa: sp 32 +
STACK CFI 83e90 .cfa: sp 0 +
STACK CFI INIT 848e4 4 .cfa: sp 0 +
STACK CFI INIT 85e5c 1c .cfa: sp 0 +
STACK CFI INIT 87258 44 .cfa: sp 0 +
STACK CFI 8725c .cfa: sp 32 +
STACK CFI 87264 .cfa: x29 32 + x19: .cfa -16 + ^ .ra: .cfa -24 + ^ x29: .cfa -32 + ^
STACK CFI 87290 .cfa: sp 32 +
STACK CFI 87298 .cfa: sp 0 +
STACK CFI INIT 875fc 4 .cfa: sp 0 +
STACK CFI INIT 87e54 1c .cfa: sp 0 +
STACK CFI INIT 88728 44 .cfa: sp 0 +
STACK CFI 8872c .cfa: sp 32 +
STACK CFI 88734 .cfa: x29 32 + x19: .cfa -16 + ^ .ra: .cfa -24 + ^ x29: .cfa -32 + ^
STACK CFI 88760 .cfa: sp 32 +
STACK CFI 88768 .cfa: sp 0 +
STACK CFI INIT 88acc 4 .cfa: sp 0 +
STACK CFI INIT 89328 1c .cfa: sp 0 +
STACK CFI INIT 89798 44 .cfa: sp 0 +
STACK CFI 8979c .cfa: sp 32 +
STACK CFI 897a4 .cfa: x29 32 + x19: .cfa -16 + ^ .ra: .cfa -24 + ^ x29: .cfa -32 + ^
STACK CFI 897d0 .cfa: sp 32 +
STACK CFI 897d8 .cfa: sp 0 +
STACK CFI INIT 89af8 4 .cfa: sp 0 +
STACK CFI INIT 89ce8 98 .cfa: sp 0 +
STACK CFI INIT 8a4a4 1c .cfa: sp 0 +
STACK CFI INIT 8a4c0 14 .cfa: sp 0 +
STACK CFI 8a4c4 .cfa: sp 16 +
STACK CFI 8a4c8 .cfa: x29 16 + .ra: .cfa -8 + ^ x29: .cfa -16 + ^
STACK CFI INIT 8af88 44 .cfa: sp 0 +
STACK CFI 8af8c .cfa: sp 32 +
STACK CFI 8af94 .cfa: x29 32 + x19: .cfa -16 + ^ .ra: .cfa -24 + ^ x29: .cfa -32 + ^
STACK CFI 8afc0 .cfa: sp 32 +
STACK CFI 8afc8 .cfa: sp 0 +
STACK CFI INIT 8b2dc 4 .cfa: sp 0 +
STACK CFI INIT 8b4c0 9c .cfa: sp 0 +
STACK CFI 8b4c4 .cfa: sp 32 +
STACK CFI 8b4cc .cfa: x29 32 + x19: .cfa -16 + ^ .ra: .cfa -24 + ^ x29: .cfa -32 + ^
STACK CFI 8b550 .cfa: sp 32 +
STACK CFI 8b558 .cfa: sp 0 +
STACK CFI INIT 8be4c 1c .cfa: sp 0 +
STACK CFI INIT 8c3d4 44 .cfa: sp 0 +
STACK CFI 8c3d8 .cfa: sp 32 +
STACK CFI 8c3e0 .cfa: x29 32 + x19: .cfa -16 + ^ .ra: .cfa -24 + ^ x29: .cfa -32 + ^
STACK CFI 8c40c .cfa: sp 32 +
STACK CFI 8c414 .cfa: sp 0 +
STACK CFI INIT 8c728 4 .cfa: sp 0 +
STACK CFI INIT 8c918 8c .cfa: sp 0 +
STACK CFI 8c91c .cfa: sp 32 +
STACK CFI 8c924 .cfa: x29 32 + x19: .cfa -16 + ^ .ra: .cfa -24 + ^ x29: .cfa -32 + ^
STACK CFI 8c998 .cfa: sp 32 +
STACK CFI 8c9a0 .cfa: sp 0 +
STACK CFI INIT 8d0d8 1c .cfa: sp 0 +
STACK CFI INIT 8e4c4 44 .cfa: sp 0 +
STACK CFI 8e4c8 .cfa: sp 32 +
STACK CFI 8e4d0 .cfa: x29 32 + x19: .cfa -16 + ^ .ra: .cfa -24 + ^ x29: .cfa -32 + ^
STACK CFI 8e4fc .cfa: sp 32 +
STACK CFI 8e504 .cfa: sp 0 +
STACK CFI INIT 8e840 4 .cfa: sp 0 +
STACK CFI INIT 8ea28 90 .cfa: sp 0 +
STACK CFI 8ea2c .cfa: sp 32 +
STACK CFI 8ea34 .cfa: x29 32 + x19: .cfa -16 + ^ .ra: .cfa -24 + ^ x29: .cfa -32 + ^
STACK CFI 8eaac .cfa: sp 32 +
STACK CFI 8eab4 .cfa: sp 0 +
STACK CFI INIT 8f1f0 1c .cfa: sp 0 +
STACK CFI INIT 8fdcc 44 .cfa: sp 0 +
STACK CFI 8fdd0 .cfa: sp 32 +
STACK CFI 8fdd8 .cfa: x29 32 + x19: .cfa -16 + ^ .ra: .cfa -24 + ^ x29: .cfa -32 + ^
STACK CFI 8fe04 .cfa: sp 32 +
STACK CFI 8fe0c .cfa: sp 0 +
STACK CFI INIT 90140 4 .cfa: sp 0 +
STACK CFI INIT 90320 8c .cfa: sp 0 +
STACK CFI 90324 .cfa: sp 32 +
STACK CFI 9032c .cfa: x29 32 + x19: .cfa -16 + ^ .ra: .cfa -24 + ^ x29: .cfa -32 + ^
STACK CFI 903a0 .cfa: sp 32 +
STACK CFI 903a8 .cfa: sp 0 +
STACK CFI INIT 909c8 1c .cfa: sp 0 +
STACK CFI INIT 90cac 44 .cfa: sp 0 +
STACK CFI 90cb0 .cfa: sp 32 +
STACK CFI 90cb8 .cfa: x29 32 + x19: .cfa -16 + ^ .ra: .cfa -24 + ^ x29: .cfa -32 + ^
STACK CFI 90ce4 .cfa: sp 32 +
STACK CFI 90cec .cfa: sp 0 +
STACK CFI INIT 91338 4 .cfa: sp 0 +
STACK CFI INIT 924a4 4 .cfa: sp 0 +
STACK CFI INIT 924a8 4c .cfa: sp 0 +
STACK CFI 924ac .cfa: sp 32 +
STACK CFI 924b4 .cfa: x29 32 + x19: .cfa -8 + ^ x20: .cfa -16 + ^ .ra: .cfa -24 + ^ x29: .cfa -32 + ^
STACK CFI 924dc .cfa: sp 32 +
STACK CFI 924e4 .cfa: sp 0 +
STACK CFI 924e8 .cfa: sp 32 +
STACK CFI 924f0 .cfa: sp 0 +
STACK CFI INIT 924f4 14 .cfa: sp 0 +
STACK CFI 924f8 .cfa: sp 16 +
STACK CFI 924fc .cfa: x29 16 + .ra: .cfa -8 + ^ x29: .cfa -16 + ^
STACK CFI INIT 92c28 1c .cfa: sp 0 +
STACK CFI INIT 92f88 44 .cfa: sp 0 +
STACK CFI 92f8c .cfa: sp 32 +
STACK CFI 92f94 .cfa: x29 32 + x19: .cfa -16 + ^ .ra: .cfa -24 + ^ x29: .cfa -32 + ^
STACK CFI 92fc0 .cfa: sp 32 +
STACK CFI 92fc8 .cfa: sp 0 +
STACK CFI INIT 933cc 4 .cfa: sp 0 +
STACK CFI INIT 935d8 118 .cfa: sp 0 +
STACK CFI 935dc .cfa: sp 80 +
STACK CFI 935ec .cfa: x29 48 + x19: .cfa -8 + ^ x20: .cfa -16 + ^ x21: .cfa -24 + ^ x22: .cfa -32 + ^ .ra: .cfa -40 + ^ x29: .cfa -48 + ^
STACK CFI 936d8 .cfa: sp 80 +
STACK CFI 936e8 .cfa: sp 0 +
STACK CFI 936ec .cfa: x29 48 +
STACK CFI INIT 936f0 1d0 .cfa: sp 0 +
STACK CFI 936f4 .cfa: sp 96 +
STACK CFI 93708 .cfa: x29 64 + x19: .cfa -8 + ^ x20: .cfa -16 + ^ x21: .cfa -24 + ^ x22: .cfa -32 + ^ x23: .cfa -48 + ^ .ra: .cfa -56 + ^ x29: .cfa -64 + ^
STACK CFI 9385c .cfa: sp 96 +
STACK CFI 93870 .cfa: sp 0 +
STACK CFI 93874 .cfa: x29 64 +
STACK CFI INIT 93e20 1c .cfa: sp 0 +
STACK CFI INIT 94de0 44 .cfa: sp 0 +
STACK CFI 94de4 .cfa: sp 32 +
STACK CFI 94dec .cfa: x29 32 + x19: .cfa -16 + ^ .ra: .cfa -24 + ^ x29: .cfa -32 + ^
STACK CFI 94e18 .cfa: sp 32 +
STACK CFI 94e20 .cfa: sp 0 +
STACK CFI INIT 954ac 4 .cfa: sp 0 +
STACK CFI INIT 956f8 38 .cfa: sp 0 +
STACK CFI 956fc .cfa: sp 32 +
STACK CFI 95704 .cfa: x29 32 + x19: .cfa -8 + ^ x20: .cfa -16 + ^ .ra: .cfa -24 + ^ x29: .cfa -32 + ^
STACK CFI 95724 .cfa: sp 32 +
STACK CFI 9572c .cfa: sp 0 +
STACK CFI INIT 95730 4 .cfa: sp 0 +
STACK CFI INIT 97924 ac .cfa: sp 0 +
STACK CFI 97928 .cfa: sp 32 +
STACK CFI 97930 .cfa: x29 32 + x19: .cfa -16 + ^ .ra: .cfa -24 + ^ x29: .cfa -32 + ^
STACK CFI 97964 .cfa: sp 32 +
STACK CFI 9796c .cfa: sp 0 +
STACK CFI 97970 .cfa: x29 32 +
STACK CFI 979c4 .cfa: sp 32 +
STACK CFI 979cc .cfa: sp 0 +
STACK CFI INIT 98034 1c .cfa: sp 0 +
STACK CFI INIT 98904 44 .cfa: sp 0 +
STACK CFI 98908 .cfa: sp 32 +
STACK CFI 98910 .cfa: x29 32 + x19: .cfa -16 + ^ .ra: .cfa -24 + ^ x29: .cfa -32 + ^
STACK CFI 9893c .cfa: sp 32 +
STACK CFI 98944 .cfa: sp 0 +
STACK CFI INIT 98c54 4 .cfa: sp 0 +
STACK CFI INIT 98e48 94 .cfa: sp 0 +
STACK CFI 98e4c .cfa: sp 32 +
STACK CFI 98e54 .cfa: x29 32 + x19: .cfa -16 + ^ .ra: .cfa -24 + ^ x29: .cfa -32 + ^
STACK CFI 98ed0 .cfa: sp 32 +
STACK CFI 98ed8 .cfa: sp 0 +
STACK CFI INIT 99600 1c .cfa: sp 0 +
STACK CFI INIT 998a0 44 .cfa: sp 0 +
STACK CFI 998a4 .cfa: sp 32 +
STACK CFI 998ac .cfa: x29 32 + x19: .cfa -16 + ^ .ra: .cfa -24 + ^ x29: .cfa -32 + ^
STACK CFI 998d8 .cfa: sp 32 +
STACK CFI 998e0 .cfa: sp 0 +
STACK CFI INIT 99bf0 4 .cfa: sp 0 +
STACK CFI INIT 99de4 98 .cfa: sp 0 +
STACK CFI INIT 9a5a4 1c .cfa: sp 0 +
STACK CFI INIT 9a8b4 44 .cfa: sp 0 +
STACK CFI 9a8b8 .cfa: sp 32 +
STACK CFI 9a8c0 .cfa: x29 32 + x19: .cfa -16 + ^ .ra: .cfa -24 + ^ x29: .cfa -32 + ^
STACK CFI 9a8ec .cfa: sp 32 +
STACK CFI 9a8f4 .cfa: sp 0 +
STACK CFI INIT 9ac0c 4 .cfa: sp 0 +
STACK CFI INIT 9ae00 a0 .cfa: sp 0 +
STACK CFI INIT 9b5c8 1c .cfa: sp 0 +
STACK CFI INIT 9b8d8 44 .cfa: sp 0 +
STACK CFI 9b8dc .cfa: sp 32 +
STACK CFI 9b8e4 .cfa: x29 32 + x19: .cfa -16 + ^ .ra: .cfa -24 + ^ x29: .cfa -32 + ^
STACK CFI 9b910 .cfa: sp 32 +
STACK CFI 9b918 .cfa: sp 0 +
STACK CFI INIT 9bc30 4 .cfa: sp 0 +
STACK CFI INIT 9be24 98 .cfa: sp 0 +
STACK CFI INIT 9c5e4 1c .cfa: sp 0 +
STACK CFI INIT 9c87c 44 .cfa: sp 0 +
STACK CFI 9c880 .cfa: sp 32 +
STACK CFI 9c888 .cfa: x29 32 + x19: .cfa -16 + ^ .ra: .cfa -24 + ^ x29: .cfa -32 + ^
STACK CFI 9c8b4 .cfa: sp 32 +
STACK CFI 9c8bc .cfa: sp 0 +
STACK CFI INIT 9cbd4 4 .cfa: sp 0 +
STACK CFI INIT 9cdc8 a0 .cfa: sp 0 +
STACK CFI INIT 9d590 1c .cfa: sp 0 +
STACK CFI INIT 9db94 44 .cfa: sp 0 +
STACK CFI 9db98 .cfa: sp 32 +
STACK CFI 9dba0 .cfa: x29 32 + x19: .cfa -16 + ^ .ra: .cfa -24 + ^ x29: .cfa -32 + ^
STACK CFI 9dbcc .cfa: sp 32 +
STACK CFI 9dbd4 .cfa: sp 0 +
STACK CFI INIT 9deec 4 .cfa: sp 0 +
STACK CFI INIT 9e0e0 88 .cfa: sp 0 +
STACK CFI INIT 9fdd4 1c .cfa: sp 0 +
STACK CFI INIT a08ec 44 .cfa: sp 0 +
STACK CFI a08f0 .cfa: sp 32 +
STACK CFI a08f8 .cfa: x29 32 + x19: .cfa -16 + ^ .ra: .cfa -24 + ^ x29: .cfa -32 + ^
STACK CFI a0924 .cfa: sp 32 +
STACK CFI a092c .cfa: sp 0 +
STACK CFI INIT a0cb0 4 .cfa: sp 0 +
STACK CFI INIT a0eb8 1b0 .cfa: sp 0 +
STACK CFI a0ebc .cfa: sp 80 +
STACK CFI a0ed0 .cfa: x29 80 + x19: .cfa -8 + ^ x20: .cfa -16 + ^ x21: .cfa -24 + ^ x22: .cfa -32 + ^ x23: .cfa -40 + ^ x24: .cfa -48 + ^ x25: .cfa -64 + ^ .ra: .cfa -72 + ^ x29: .cfa -80 + ^
STACK CFI a1050 .cfa: sp 80 +
STACK CFI a1064 .cfa: sp 0 +
STACK CFI INIT a28c8 1c .cfa: sp 0 +
STACK CFI INIT a48a4 44 .cfa: sp 0 +
STACK CFI a48a8 .cfa: sp 32 +
STACK CFI a48b0 .cfa: x29 32 + x19: .cfa -16 + ^ .ra: .cfa -24 + ^ x29: .cfa -32 + ^
STACK CFI a48dc .cfa: sp 32 +
STACK CFI a48e4 .cfa: sp 0 +
STACK CFI INIT a48e8 118 .cfa: sp 0 +
STACK CFI a48ec .cfa: sp 80 +
STACK CFI a48fc .cfa: x29 48 + x19: .cfa -8 + ^ x20: .cfa -16 + ^ x21: .cfa -24 + ^ x22: .cfa -32 + ^ .ra: .cfa -40 + ^ x29: .cfa -48 + ^
STACK CFI a49e8 .cfa: sp 80 +
STACK CFI a49f8 .cfa: sp 0 +
STACK CFI a49fc .cfa: x29 48 +
STACK CFI INIT a4da0 4 .cfa: sp 0 +
STACK CFI INIT a5610 1c .cfa: sp 0 +
STACK CFI INIT a603c 44 .cfa: sp 0 +
STACK CFI a6040 .cfa: sp 32 +
STACK CFI a6048 .cfa: x29 32 + x19: .cfa -16 + ^ .ra: .cfa -24 + ^ x29: .cfa -32 + ^
STACK CFI a6074 .cfa: sp 32 +
STACK CFI a607c .cfa: sp 0 +
STACK CFI INIT a6384 4 .cfa: sp 0 +
STACK CFI INIT a6570 84 .cfa: sp 0 +
STACK CFI a6574 .cfa: sp 32 +
STACK CFI a657c .cfa: x29 32 + x19: .cfa -16 + ^ .ra: .cfa -24 + ^ x29: .cfa -32 + ^
STACK CFI a65e8 .cfa: sp 32 +
STACK CFI a65f0 .cfa: sp 0 +
STACK CFI INIT a66b0 114 .cfa: sp 0 +
STACK CFI a66b4 .cfa: sp 80 +
STACK CFI a66c4 .cfa: x29 48 + x19: .cfa -8 + ^ x20: .cfa -16 + ^ x21: .cfa -24 + ^ x22: .cfa -32 + ^ .ra: .cfa -40 + ^ x29: .cfa -48 + ^
STACK CFI a67ac .cfa: sp 80 +
STACK CFI a67bc .cfa: sp 0 +
STACK CFI a67c0 .cfa: x29 48 +
STACK CFI INIT a6e30 1c .cfa: sp 0 +
STACK CFI INIT a6fdc 4 .cfa: sp 0 +
STACK CFI INIT a7dfc 4 .cfa: sp 0 +
STACK CFI INIT a895c 44 .cfa: sp 0 +
STACK CFI a8960 .cfa: sp 32 +
STACK CFI a8968 .cfa: x29 32 + x19: .cfa -16 + ^ .ra: .cfa -24 + ^ x29: .cfa -32 + ^
STACK CFI a8994 .cfa: sp 32 +
STACK CFI a899c .cfa: sp 0 +
STACK CFI INIT a90c4 1c .cfa: sp 0 +
STACK CFI INIT a93f4 44 .cfa: sp 0 +
STACK CFI a93f8 .cfa: sp 32 +
STACK CFI a9400 .cfa: x29 32 + x19: .cfa -16 + ^ .ra: .cfa -24 + ^ x29: .cfa -32 + ^
STACK CFI a942c .cfa: sp 32 +
STACK CFI a9434 .cfa: sp 0 +
STACK CFI INIT a9798 4 .cfa: sp 0 +
STACK CFI INIT a9f58 4 .cfa: sp 0 +
STACK CFI INIT a9f5c 14 .cfa: sp 0 +
STACK CFI INIT a9f70 14 .cfa: sp 0 +
STACK CFI INIT a9f84 14 .cfa: sp 0 +
STACK CFI INIT a9f98 4 .cfa: sp 0 +
STACK CFI INIT aa110 5c .cfa: sp 0 +
STACK CFI aa114 .cfa: sp 32 +
STACK CFI aa11c .cfa: x29 32 + x19: .cfa -16 + ^ .ra: .cfa -24 + ^ x29: .cfa -32 + ^
STACK CFI aa160 .cfa: sp 32 +
STACK CFI aa168 .cfa: sp 0 +
STACK CFI INIT aa16c 64 .cfa: sp 0 +
STACK CFI aa170 .cfa: sp 32 +
STACK CFI aa178 .cfa: x29 32 + x19: .cfa -16 + ^ .ra: .cfa -24 + ^ x29: .cfa -32 + ^
STACK CFI aa1c4 .cfa: sp 32 +
STACK CFI aa1cc .cfa: sp 0 +
STACK CFI INIT aa1d0 4 .cfa: sp 0 +
STACK CFI INIT aa1d4 4 .cfa: sp 0 +
STACK CFI INIT aa1d8 34 .cfa: sp 0 +
STACK CFI aa1dc .cfa: sp 32 +
STACK CFI aa1e4 .cfa: x29 32 + x19: .cfa -16 + ^ .ra: .cfa -24 + ^ x29: .cfa -32 + ^
STACK CFI aa200 .cfa: sp 32 +
STACK CFI aa208 .cfa: sp 0 +
STACK CFI INIT aa20c 14 .cfa: sp 0 +
STACK CFI INIT aa220 4 .cfa: sp 0 +
STACK CFI INIT aa224 4 .cfa: sp 0 +
STACK CFI INIT aa228 10 .cfa: sp 0 +
STACK CFI INIT aa238 1c .cfa: sp 0 +
STACK CFI INIT aa254 c .cfa: sp 0 +
STACK CFI INIT aa38c 3c .cfa: sp 0 +
STACK CFI aa390 .cfa: sp 32 +
STACK CFI aa398 .cfa: x29 32 + x19: .cfa -16 + ^ .ra: .cfa -24 + ^ x29: .cfa -32 + ^
STACK CFI aa3a4 .cfa: sp 32 +
STACK CFI aa3ac .cfa: sp 0 +
STACK CFI aa3b0 .cfa: x29 32 +
STACK CFI aa3bc .cfa: sp 32 +
STACK CFI aa3c4 .cfa: sp 0 +
STACK CFI INIT aa5e8 64 .cfa: sp 0 +
STACK CFI aa5ec .cfa: sp 32 +
STACK CFI aa5f4 .cfa: x29 32 + x19: .cfa -16 + ^ .ra: .cfa -24 + ^ x29: .cfa -32 + ^
STACK CFI aa620 .cfa: sp 32 +
STACK CFI aa628 .cfa: sp 0 +
STACK CFI aa62c .cfa: x29 32 +
STACK CFI aa640 .cfa: sp 32 +
STACK CFI aa648 .cfa: sp 0 +
STACK CFI INIT ab6c8 4 .cfa: sp 0 +
STACK CFI INIT ab6cc 14 .cfa: sp 0 +
STACK CFI INIT ab6e0 c .cfa: sp 0 +
STACK CFI INIT ab6ec 24c .cfa: sp 0 +
STACK CFI INIT ab938 a0 .cfa: sp 0 +
STACK CFI ab944 .cfa: sp 32 +
STACK CFI ab99c .cfa: sp 0 +
STACK CFI ab9a0 .cfa: sp 32 +
STACK CFI ab9a8 .cfa: sp 0 +
STACK CFI ab9ac .cfa: sp 32 +
STACK CFI ab9c0 .cfa: sp 0 +
STACK CFI ab9c4 .cfa: sp 32 +
STACK CFI ab9d4 .cfa: sp 0 +
STACK CFI INIT ab9d8 38 .cfa: sp 0 +
STACK CFI ab9e4 .cfa: sp 32 +
STACK CFI aba0c .cfa: sp 0 +
STACK CFI INIT abca4 7c .cfa: sp 0 +
STACK CFI abca8 .cfa: sp 32 +
STACK CFI abcb0 .cfa: x29 32 + x19: .cfa -16 + ^ .ra: .cfa -24 + ^ x29: .cfa -32 + ^
STACK CFI abcdc .cfa: sp 32 +
STACK CFI abce4 .cfa: sp 0 +
STACK CFI abce8 .cfa: x29 32 +
STACK CFI abd14 .cfa: sp 32 +
STACK CFI abd1c .cfa: sp 0 +
STACK CFI INIT abd70 2c .cfa: sp 0 +
STACK CFI abd74 .cfa: sp 32 +
STACK CFI abd7c .cfa: x29 32 + x19: .cfa -16 + ^ .ra: .cfa -24 + ^ x29: .cfa -32 + ^
STACK CFI abd90 .cfa: sp 32 +
STACK CFI abd98 .cfa: sp 0 +
STACK CFI INIT ac55c 64 .cfa: sp 0 +
STACK CFI ac560 .cfa: sp 32 +
STACK CFI ac568 .cfa: x29 32 + x19: .cfa -16 + ^ .ra: .cfa -24 + ^ x29: .cfa -32 + ^
STACK CFI ac584 .cfa: sp 32 +
STACK CFI ac58c .cfa: sp 0 +
STACK CFI ac590 .cfa: x29 32 +
STACK CFI ac5b4 .cfa: sp 32 +
STACK CFI ac5bc .cfa: sp 0 +
STACK CFI INIT ac5c0 570 .cfa: sp 0 +
STACK CFI ac5c4 .cfa: sp 176 +
STACK CFI ac5d8 .cfa: x29 64 + x19: .cfa -8 + ^ x20: .cfa -16 + ^ x21: .cfa -24 + ^ x22: .cfa -32 + ^ x23: .cfa -40 + ^ x24: .cfa -48 + ^ .ra: .cfa -56 + ^ x29: .cfa -64 + ^
STACK CFI ac808 .cfa: sp 176 +
STACK CFI ac81c .cfa: sp 0 +
STACK CFI ac820 .cfa: x29 64 +
STACK CFI ac86c .cfa: sp 176 +
STACK CFI ac880 .cfa: sp 0 +
STACK CFI ac884 .cfa: x29 64 +
STACK CFI ac8bc .cfa: sp 176 +
STACK CFI ac8d0 .cfa: sp 0 +
STACK CFI ac8d4 .cfa: x29 64 +
STACK CFI ac8ec .cfa: sp 176 +
STACK CFI ac900 .cfa: sp 0 +
STACK CFI ac904 .cfa: x29 64 +
STACK CFI ac924 .cfa: sp 176 +
STACK CFI ac938 .cfa: sp 0 +
STACK CFI ac93c .cfa: x29 64 +
STACK CFI ac954 .cfa: sp 176 +
STACK CFI ac968 .cfa: sp 0 +
STACK CFI ac96c .cfa: x29 64 +
STACK CFI ac980 .cfa: sp 176 +
STACK CFI ac994 .cfa: sp 0 +
STACK CFI ac998 .cfa: x29 64 +
STACK CFI ac9ac .cfa: sp 176 +
STACK CFI ac9c0 .cfa: sp 0 +
STACK CFI ac9c4 .cfa: x29 64 +
STACK CFI ac9d4 .cfa: sp 176 +
STACK CFI ac9e8 .cfa: sp 0 +
STACK CFI ac9ec .cfa: x29 64 +
STACK CFI ac9fc .cfa: sp 176 +
STACK CFI aca10 .cfa: sp 0 +
STACK CFI aca14 .cfa: x29 64 +
STACK CFI aca2c .cfa: sp 176 +
STACK CFI aca40 .cfa: sp 0 +
STACK CFI aca44 .cfa: x29 64 +
STACK CFI aca58 .cfa: sp 176 +
STACK CFI aca6c .cfa: sp 0 +
STACK CFI aca70 .cfa: x29 64 +
STACK CFI aca88 .cfa: sp 176 +
STACK CFI aca9c .cfa: sp 0 +
STACK CFI acaa0 .cfa: x29 64 +
STACK CFI acacc .cfa: sp 176 +
STACK CFI acae0 .cfa: sp 0 +
STACK CFI acae4 .cfa: x29 64 +
STACK CFI acaf8 .cfa: sp 176 +
STACK CFI acb0c .cfa: sp 0 +
STACK CFI acb10 .cfa: x29 64 +
STACK CFI INIT acb30 228 .cfa: sp 0 +
STACK CFI INIT acd58 2dc .cfa: sp 0 +
STACK CFI INIT ad034 53c .cfa: sp 0 +
STACK CFI INIT ad570 78 .cfa: sp 0 +
STACK CFI ad574 .cfa: sp 48 +
STACK CFI ad580 .cfa: x29 48 + x19: .cfa -8 + ^ x20: .cfa -16 + ^ x21: .cfa -24 + ^ x22: .cfa -32 + ^ .ra: .cfa -40 + ^ x29: .cfa -48 + ^
STACK CFI ad5c8 .cfa: sp 48 +
STACK CFI ad5d4 .cfa: sp 0 +
STACK CFI ad5d8 .cfa: sp 48 +
STACK CFI ad5e4 .cfa: sp 0 +
STACK CFI INIT ad5e8 8c .cfa: sp 0 +
STACK CFI ad5ec .cfa: sp 32 +
STACK CFI ad5f4 .cfa: x29 32 + x19: .cfa -16 + ^ .ra: .cfa -24 + ^ x29: .cfa -32 + ^
STACK CFI ad628 .cfa: sp 32 +
STACK CFI ad630 .cfa: sp 0 +
STACK CFI ad634 .cfa: x29 32 +
STACK CFI ad668 .cfa: sp 32 +
STACK CFI ad670 .cfa: sp 0 +
STACK CFI INIT ad674 24 .cfa: sp 0 +
STACK CFI ad678 .cfa: sp 32 +
STACK CFI ad680 .cfa: x29 32 + x19: .cfa -16 + ^ .ra: .cfa -24 + ^ x29: .cfa -32 + ^
STACK CFI ad68c .cfa: sp 32 +
STACK CFI ad694 .cfa: sp 0 +
STACK CFI INIT ad698 150 .cfa: sp 0 +
STACK CFI ad69c .cfa: sp 48 +
STACK CFI ad6a8 .cfa: x29 48 + x19: .cfa -8 + ^ x20: .cfa -16 + ^ x21: .cfa -24 + ^ x22: .cfa -32 + ^ .ra: .cfa -40 + ^ x29: .cfa -48 + ^
STACK CFI ad7d8 .cfa: sp 48 +
STACK CFI ad7e4 .cfa: sp 0 +
STACK CFI INIT ad7e8 68 .cfa: sp 0 +
STACK CFI ad7ec .cfa: sp 64 +
STACK CFI ad7f8 .cfa: x29 32 + x19: .cfa -16 + ^ .ra: .cfa -24 + ^ x29: .cfa -32 + ^
STACK CFI ad83c .cfa: sp 64 +
STACK CFI ad848 .cfa: sp 0 +
STACK CFI ad84c .cfa: x29 32 +
STACK CFI INIT ad850 90 .cfa: sp 0 +
STACK CFI ad854 .cfa: sp 32 +
STACK CFI ad85c .cfa: x29 32 + x19: .cfa -8 + ^ x20: .cfa -16 + ^ .ra: .cfa -24 + ^ x29: .cfa -32 + ^
STACK CFI ad888 .cfa: sp 32 +
STACK CFI ad890 .cfa: sp 0 +
STACK CFI ad894 .cfa: x29 32 +
STACK CFI ad8d4 .cfa: sp 32 +
STACK CFI ad8dc .cfa: sp 0 +
STACK CFI INIT ad8e0 ec .cfa: sp 0 +
STACK CFI ad8e4 .cfa: sp 112 +
STACK CFI ad8f4 .cfa: x29 48 + x19: .cfa -8 + ^ x20: .cfa -16 + ^ x21: .cfa -32 + ^ .ra: .cfa -40 + ^ x29: .cfa -48 + ^
STACK CFI ad9b4 .cfa: sp 112 +
STACK CFI ad9c4 .cfa: sp 0 +
STACK CFI ad9c8 .cfa: x29 48 +
STACK CFI INIT ad9cc ec .cfa: sp 0 +
STACK CFI ad9d0 .cfa: sp 112 +
STACK CFI ad9e0 .cfa: x29 48 + x19: .cfa -8 + ^ x20: .cfa -16 + ^ x21: .cfa -32 + ^ .ra: .cfa -40 + ^ x29: .cfa -48 + ^
STACK CFI adaa0 .cfa: sp 112 +
STACK CFI adab0 .cfa: sp 0 +
STACK CFI adab4 .cfa: x29 48 +
STACK CFI INIT adab8 48 .cfa: sp 0 +
STACK CFI adabc .cfa: sp 32 +
STACK CFI adac4 .cfa: x29 32 + x19: .cfa -8 + ^ x20: .cfa -16 + ^ .ra: .cfa -24 + ^ x29: .cfa -32 + ^
STACK CFI adae8 .cfa: sp 32 +
STACK CFI adaf0 .cfa: sp 0 +
STACK CFI adaf4 .cfa: x29 32 +
STACK CFI INIT adb00 98 .cfa: sp 0 +
STACK CFI adb04 .cfa: sp 80 +
STACK CFI adb10 .cfa: x29 32 + x19: .cfa -16 + ^ .ra: .cfa -24 + ^ x29: .cfa -32 + ^
STACK CFI adb84 .cfa: sp 80 +
STACK CFI adb90 .cfa: sp 0 +
STACK CFI adb94 .cfa: x29 32 +
STACK CFI INIT adb98 260 .cfa: sp 0 +
STACK CFI adb9c .cfa: sp 112 +
STACK CFI adbb4 .cfa: x29 80 + x19: .cfa -8 + ^ x20: .cfa -16 + ^ x21: .cfa -24 + ^ x22: .cfa -32 + ^ x23: .cfa -40 + ^ x24: .cfa -48 + ^ x25: .cfa -64 + ^ .ra: .cfa -72 + ^ x29: .cfa -80 + ^
STACK CFI add98 .cfa: sp 112 +
STACK CFI addb0 .cfa: sp 0 +
STACK CFI addb4 .cfa: x29 80 +
STACK CFI INIT addf8 150 .cfa: sp 0 +
STACK CFI addfc .cfa: sp 48 +
STACK CFI ade08 .cfa: x29 48 + x19: .cfa -8 + ^ x20: .cfa -16 + ^ x21: .cfa -24 + ^ x22: .cfa -32 + ^ .ra: .cfa -40 + ^ x29: .cfa -48 + ^
STACK CFI adf38 .cfa: sp 48 +
STACK CFI adf44 .cfa: sp 0 +
STACK CFI INIT adf48 1e0 .cfa: sp 0 +
STACK CFI adf4c .cfa: sp 96 +
STACK CFI adf60 .cfa: x29 64 + x19: .cfa -8 + ^ x20: .cfa -16 + ^ x21: .cfa -24 + ^ x22: .cfa -32 + ^ x23: .cfa -40 + ^ x24: .cfa -48 + ^ .ra: .cfa -56 + ^ x29: .cfa -64 + ^
STACK CFI ae0e0 .cfa: sp 96 +
STACK CFI ae0f4 .cfa: sp 0 +
STACK CFI ae0f8 .cfa: x29 64 +
STACK CFI INIT ae128 284 .cfa: sp 0 +
STACK CFI ae12c .cfa: sp 112 +
STACK CFI ae144 .cfa: x29 80 + x19: .cfa -8 + ^ x20: .cfa -16 + ^ x21: .cfa -24 + ^ x22: .cfa -32 + ^ x23: .cfa -40 + ^ x24: .cfa -48 + ^ x25: .cfa -64 + ^ .ra: .cfa -72 + ^ x29: .cfa -80 + ^
STACK CFI ae34c .cfa: sp 112 +
STACK CFI ae364 .cfa: sp 0 +
STACK CFI ae368 .cfa: x29 80 +
STACK CFI INIT ae3ac 208 .cfa: sp 0 +
STACK CFI ae3b0 .cfa: sp 96 +
STACK CFI ae3c4 .cfa: x29 64 + x19: .cfa -8 + ^ x20: .cfa -16 + ^ x21: .cfa -24 + ^ x22: .cfa -32 + ^ x23: .cfa -40 + ^ x24: .cfa -48 + ^ .ra: .cfa -56 + ^ x29: .cfa -64 + ^
STACK CFI ae56c .cfa: sp 96 +
STACK CFI ae580 .cfa: sp 0 +
STACK CFI ae584 .cfa: x29 64 +
STACK CFI INIT ae5b4 360 .cfa: sp 0 +
STACK CFI ae5b8 .cfa: sp 160 +
STACK CFI ae5d4 .cfa: x29 96 + x19: .cfa -8 + ^ x20: .cfa -16 + ^ x21: .cfa -24 + ^ x22: .cfa -32 + ^ x23: .cfa -40 + ^ x24: .cfa -48 + ^ x25: .cfa -56 + ^ x26: .cfa -64 + ^ x27: .cfa -72 + ^ x28: .cfa -80 + ^ .ra: .cfa -88 + ^ x29: .cfa -96 + ^
STACK CFI ae8a0 .cfa: sp 160 +
STACK CFI ae8bc .cfa: sp 0 +
STACK CFI ae8c0 .cfa: x29 96 +
STACK CFI INIT ae914 314 .cfa: sp 0 +
STACK CFI ae918 .cfa: sp 144 +
STACK CFI ae934 .cfa: x29 96 + x19: .cfa -8 + ^ x20: .cfa -16 + ^ x21: .cfa -24 + ^ x22: .cfa -32 + ^ x23: .cfa -40 + ^ x24: .cfa -48 + ^ x25: .cfa -56 + ^ x26: .cfa -64 + ^ x27: .cfa -72 + ^ x28: .cfa -80 + ^ .ra: .cfa -88 + ^ x29: .cfa -96 + ^
STACK CFI aebb0 .cfa: sp 144 +
STACK CFI aebcc .cfa: sp 0 +
STACK CFI aebd0 .cfa: x29 96 +
STACK CFI INIT aec28 290 .cfa: sp 0 +
STACK CFI aec2c .cfa: sp 128 +
STACK CFI aec44 .cfa: x29 80 + x19: .cfa -8 + ^ x20: .cfa -16 + ^ x21: .cfa -24 + ^ x22: .cfa -32 + ^ x23: .cfa -40 + ^ x24: .cfa -48 + ^ x25: .cfa -56 + ^ x26: .cfa -64 + ^ .ra: .cfa -72 + ^ x29: .cfa -80 + ^
STACK CFI aee98 .cfa: sp 128 +
STACK CFI aeeb0 .cfa: sp 0 +
STACK CFI aeeb4 .cfa: x29 80 +
STACK CFI INIT aeeb8 ddc .cfa: sp 0 +
STACK CFI aeebc .cfa: sp 144 +
STACK CFI aeed8 .cfa: x29 96 + x19: .cfa -8 + ^ x20: .cfa -16 + ^ x21: .cfa -24 + ^ x22: .cfa -32 + ^ x23: .cfa -40 + ^ x24: .cfa -48 + ^ x25: .cfa -56 + ^ x26: .cfa -64 + ^ x27: .cfa -72 + ^ x28: .cfa -80 + ^ .ra: .cfa -88 + ^ x29: .cfa -96 + ^
STACK CFI afb6c .cfa: sp 144 +
STACK CFI afb88 .cfa: sp 0 +
STACK CFI afb8c .cfa: x29 96 +
STACK CFI INIT afc94 1d0 .cfa: sp 0 +
STACK CFI afc98 .cfa: sp 80 +
STACK CFI afcac .cfa: x29 80 + x19: .cfa -8 + ^ x20: .cfa -16 + ^ x21: .cfa -24 + ^ x22: .cfa -32 + ^ x23: .cfa -40 + ^ x24: .cfa -48 + ^ x25: .cfa -64 + ^ .ra: .cfa -72 + ^ x29: .cfa -80 + ^
STACK CFI afe4c .cfa: sp 80 +
STACK CFI afe60 .cfa: sp 0 +
STACK CFI INIT afe64 23c .cfa: sp 0 +
STACK CFI afe68 .cfa: sp 112 +
STACK CFI afe7c .cfa: x29 64 + x19: .cfa -8 + ^ x20: .cfa -16 + ^ x21: .cfa -24 + ^ x22: .cfa -32 + ^ x23: .cfa -40 + ^ x24: .cfa -48 + ^ .ra: .cfa -56 + ^ x29: .cfa -64 + ^
STACK CFI b0058 .cfa: sp 112 +
STACK CFI b006c .cfa: sp 0 +
STACK CFI b0070 .cfa: x29 64 +
STACK CFI INIT b00a0 30c .cfa: sp 0 +
STACK CFI b00a4 .cfa: sp 80 +
STACK CFI b00b8 .cfa: x29 64 + x19: .cfa -8 + ^ x20: .cfa -16 + ^ x21: .cfa -24 + ^ x22: .cfa -32 + ^ x23: .cfa -40 + ^ x24: .cfa -48 + ^ .ra: .cfa -56 + ^ x29: .cfa -64 + ^
STACK CFI b0234 .cfa: sp 80 +
STACK CFI b0248 .cfa: sp 0 +
STACK CFI b024c .cfa: x29 64 +
STACK CFI INIT b03ac 178 .cfa: sp 0 +
STACK CFI b03b0 .cfa: sp 80 +
STACK CFI b03c4 .cfa: x29 64 + x19: .cfa -8 + ^ x20: .cfa -16 + ^ x21: .cfa -24 + ^ x22: .cfa -32 + ^ x23: .cfa -40 + ^ x24: .cfa -48 + ^ .ra: .cfa -56 + ^ x29: .cfa -64 + ^
STACK CFI b0508 .cfa: sp 80 +
STACK CFI b051c .cfa: sp 0 +
STACK CFI b0520 .cfa: x29 64 +
STACK CFI INIT b0524 178 .cfa: sp 0 +
STACK CFI b0528 .cfa: sp 80 +
STACK CFI b053c .cfa: x29 64 + x19: .cfa -8 + ^ x20: .cfa -16 + ^ x21: .cfa -24 + ^ x22: .cfa -32 + ^ x23: .cfa -40 + ^ x24: .cfa -48 + ^ .ra: .cfa -56 + ^ x29: .cfa -64 + ^
STACK CFI b0680 .cfa: sp 80 +
STACK CFI b0694 .cfa: sp 0 +
STACK CFI b0698 .cfa: x29 64 +
STACK CFI INIT b069c 240 .cfa: sp 0 +
STACK CFI b06a0 .cfa: sp 96 +
STACK CFI b06b8 .cfa: x29 96 + x19: .cfa -8 + ^ x20: .cfa -16 + ^ x21: .cfa -24 + ^ x22: .cfa -32 + ^ x23: .cfa -40 + ^ x24: .cfa -48 + ^ x25: .cfa -56 + ^ x26: .cfa -64 + ^ x27: .cfa -72 + ^ x28: .cfa -80 + ^ .ra: .cfa -88 + ^ x29: .cfa -96 + ^
STACK CFI b08c0 .cfa: sp 96 +
STACK CFI b08d8 .cfa: sp 0 +
STACK CFI INIT b1550 154 .cfa: sp 0 +
STACK CFI b1554 .cfa: sp 96 +
STACK CFI b1568 .cfa: x29 64 + x19: .cfa -8 + ^ x20: .cfa -16 + ^ x21: .cfa -24 + ^ x22: .cfa -32 + ^ x23: .cfa -48 + ^ .ra: .cfa -56 + ^ x29: .cfa -64 + ^
STACK CFI b1648 .cfa: sp 96 +
STACK CFI b165c .cfa: sp 0 +
STACK CFI b1660 .cfa: x29 64 +
STACK CFI INIT b1910 44 .cfa: sp 0 +
STACK CFI b1914 .cfa: sp 32 +
STACK CFI b191c .cfa: x29 32 + x19: .cfa -16 + ^ .ra: .cfa -24 + ^ x29: .cfa -32 + ^
STACK CFI b1938 .cfa: sp 32 +
STACK CFI b1940 .cfa: sp 0 +
STACK CFI b1944 .cfa: x29 32 +
STACK CFI b1948 .cfa: sp 32 +
STACK CFI b1950 .cfa: sp 0 +
STACK CFI INIT b1954 1d0 .cfa: sp 0 +
STACK CFI b1958 .cfa: sp 64 +
STACK CFI b1968 .cfa: x29 64 + x19: .cfa -8 + ^ x20: .cfa -16 + ^ x21: .cfa -24 + ^ x22: .cfa -32 + ^ x23: .cfa -40 + ^ x24: .cfa -48 + ^ .ra: .cfa -56 + ^ x29: .cfa -64 + ^
STACK CFI b1a28 .cfa: sp 64 +
STACK CFI b1a38 .cfa: sp 0 +
STACK CFI b1a3c .cfa: x29 64 +
STACK CFI INIT b1b24 17c .cfa: sp 0 +
STACK CFI INIT b1ca0 ac .cfa: sp 0 +
STACK CFI b1ca4 .cfa: sp 64 +
STACK CFI b1cb4 .cfa: x29 64 + x19: .cfa -8 + ^ x20: .cfa -16 + ^ x21: .cfa -24 + ^ x22: .cfa -32 + ^ x23: .cfa -48 + ^ .ra: .cfa -56 + ^ x29: .cfa -64 + ^
STACK CFI b1d30 .cfa: sp 64 +
STACK CFI b1d40 .cfa: sp 0 +
STACK CFI b1d44 .cfa: x29 64 +
STACK CFI INIT b1d4c 110 .cfa: sp 0 +
STACK CFI b1d50 .cfa: sp 64 +
STACK CFI b1d60 .cfa: x29 64 + x19: .cfa -8 + ^ x20: .cfa -16 + ^ x21: .cfa -24 + ^ x22: .cfa -32 + ^ x23: .cfa -40 + ^ x24: .cfa -48 + ^ .ra: .cfa -56 + ^ x29: .cfa -64 + ^
STACK CFI b1e40 .cfa: sp 64 +
STACK CFI b1e50 .cfa: sp 0 +
STACK CFI b1e54 .cfa: x29 64 +
STACK CFI INIT b2214 a0 .cfa: sp 0 +
STACK CFI b2218 .cfa: sp 48 +
STACK CFI b2224 .cfa: x29 48 + x19: .cfa -8 + ^ x20: .cfa -16 + ^ x21: .cfa -24 + ^ x22: .cfa -32 + ^ .ra: .cfa -40 + ^ x29: .cfa -48 + ^
STACK CFI b2290 .cfa: sp 48 +
STACK CFI b229c .cfa: sp 0 +
STACK CFI b22a0 .cfa: sp 48 +
STACK CFI b22ac .cfa: sp 0 +
STACK CFI b22b0 .cfa: x29 48 +
STACK CFI INIT b2f68 158 .cfa: sp 0 +
STACK CFI b2f6c .cfa: sp 96 +
STACK CFI b2f80 .cfa: x29 64 + x19: .cfa -8 + ^ x20: .cfa -16 + ^ x21: .cfa -24 + ^ x22: .cfa -32 + ^ x23: .cfa -48 + ^ .ra: .cfa -56 + ^ x29: .cfa -64 + ^
STACK CFI b3064 .cfa: sp 96 +
STACK CFI b3078 .cfa: sp 0 +
STACK CFI b307c .cfa: x29 64 +
STACK CFI INIT b30c0 190 .cfa: sp 0 +
STACK CFI INIT b3d4c 1dc .cfa: sp 0 +
STACK CFI b3d50 .cfa: sp 80 +
STACK CFI b3d64 .cfa: x29 80 + x19: .cfa -8 + ^ x20: .cfa -16 + ^ x21: .cfa -24 + ^ x22: .cfa -32 + ^ x23: .cfa -40 + ^ x24: .cfa -48 + ^ x25: .cfa -64 + ^ .ra: .cfa -72 + ^ x29: .cfa -80 + ^
STACK CFI b3f10 .cfa: sp 80 +
STACK CFI b3f24 .cfa: sp 0 +
STACK CFI INIT b5358 124 .cfa: sp 0 +
STACK CFI b5388 .cfa: sp 32 +
STACK CFI b5390 .cfa: x29 32 + x19: .cfa -8 + ^ x20: .cfa -16 + ^ .ra: .cfa -24 + ^ x29: .cfa -32 + ^
STACK CFI b5470 .cfa: sp 32 +
STACK CFI b5478 .cfa: sp 0 +
STACK CFI INIT b5bd8 320 .cfa: sp 0 +
STACK CFI b5bdc .cfa: sp 64 +
STACK CFI b5bec .cfa: x29 64 + x19: .cfa -8 + ^ x20: .cfa -16 + ^ x21: .cfa -24 + ^ x22: .cfa -32 + ^ x23: .cfa -40 + ^ x24: .cfa -48 + ^ .ra: .cfa -56 + ^ x29: .cfa -64 + ^
STACK CFI b5c68 .cfa: sp 64 +
STACK CFI b5c78 .cfa: sp 0 +
STACK CFI b5c7c .cfa: x29 64 +
STACK CFI b5e50 .cfa: sp 64 +
STACK CFI b5e60 .cfa: sp 0 +
STACK CFI b5e64 .cfa: x29 64 +
STACK CFI b5e74 .cfa: sp 64 +
STACK CFI b5e84 .cfa: sp 0 +
STACK CFI b5e88 .cfa: x29 64 +
STACK CFI INIT b5ef8 a0 .cfa: sp 0 +
STACK CFI b5efc .cfa: sp 48 +
STACK CFI b5f08 .cfa: x29 48 + x19: .cfa -8 + ^ x20: .cfa -16 + ^ x21: .cfa -24 + ^ x22: .cfa -32 + ^ .ra: .cfa -40 + ^ x29: .cfa -48 + ^
STACK CFI b5f74 .cfa: sp 48 +
STACK CFI b5f80 .cfa: sp 0 +
STACK CFI b5f84 .cfa: sp 48 +
STACK CFI b5f90 .cfa: sp 0 +
STACK CFI b5f94 .cfa: x29 48 +
STACK CFI INIT b6e48 160 .cfa: sp 0 +
STACK CFI b6e4c .cfa: sp 64 +
STACK CFI b6e5c .cfa: x29 64 + x19: .cfa -8 + ^ x20: .cfa -16 + ^ x21: .cfa -24 + ^ x22: .cfa -32 + ^ x23: .cfa -48 + ^ .ra: .cfa -56 + ^ x29: .cfa -64 + ^
STACK CFI b6f54 .cfa: sp 64 +
STACK CFI b6f64 .cfa: sp 0 +
STACK CFI b6f68 .cfa: x29 64 +
STACK CFI INIT b6fa8 214 .cfa: sp 0 +
STACK CFI b6fac .cfa: sp 128 +
STACK CFI b6fc8 .cfa: x29 96 + x19: .cfa -8 + ^ x20: .cfa -16 + ^ x21: .cfa -24 + ^ x22: .cfa -32 + ^ x23: .cfa -40 + ^ x24: .cfa -48 + ^ x25: .cfa -56 + ^ x26: .cfa -64 + ^ x27: .cfa -80 + ^ .ra: .cfa -88 + ^ x29: .cfa -96 + ^
STACK CFI b7144 .cfa: sp 128 +
STACK CFI b7160 .cfa: sp 0 +
STACK CFI b7164 .cfa: x29 96 +
STACK CFI INIT b8e58 290 .cfa: sp 0 +
STACK CFI b8e5c .cfa: sp 16 +
STACK CFI b8e60 .cfa: x29 16 + .ra: .cfa -8 + ^ x29: .cfa -16 + ^
STACK CFI b8eec .cfa: sp 16 +
STACK CFI b8ef0 .cfa: sp 0 +
STACK CFI b8ef4 .cfa: x29 16 +
STACK CFI b8f44 .cfa: sp 16 +
STACK CFI b8f48 .cfa: sp 0 +
STACK CFI b8f4c .cfa: x29 16 +
STACK CFI b90b0 .cfa: sp 16 +
STACK CFI b90b4 .cfa: sp 0 +
STACK CFI b90b8 .cfa: x29 16 +
STACK CFI INIT b90e8 158 .cfa: sp 0 +
STACK CFI b90ec .cfa: sp 112 +
STACK CFI b9108 .cfa: x29 96 + x19: .cfa -8 + ^ x20: .cfa -16 + ^ x21: .cfa -24 + ^ x22: .cfa -32 + ^ x23: .cfa -40 + ^ x24: .cfa -48 + ^ x25: .cfa -56 + ^ x26: .cfa -64 + ^ x27: .cfa -72 + ^ x28: .cfa -80 + ^ .ra: .cfa -88 + ^ x29: .cfa -96 + ^
STACK CFI b91f0 .cfa: sp 112 +
STACK CFI b91f4 .cfa: x29 96 +
STACK CFI b91fc .cfa: sp 112 +
STACK CFI b9218 .cfa: sp 0 +
STACK CFI b921c .cfa: x29 96 +
STACK CFI b923c .cfa: sp 112 +
STACK CFI INIT b9240 e54 .cfa: sp 0 +
STACK CFI b9244 .cfa: sp 192 +
STACK CFI b9260 .cfa: x29 96 + x19: .cfa -8 + ^ x20: .cfa -16 + ^ x21: .cfa -24 + ^ x22: .cfa -32 + ^ x23: .cfa -40 + ^ x24: .cfa -48 + ^ x25: .cfa -56 + ^ x26: .cfa -64 + ^ x27: .cfa -72 + ^ x28: .cfa -80 + ^ .ra: .cfa -88 + ^ x29: .cfa -96 + ^
STACK CFI b9f7c .cfa: sp 192 +
STACK CFI b9f98 .cfa: sp 0 +
STACK CFI b9f9c .cfa: x29 96 +
STACK CFI INIT ba094 1068 .cfa: sp 0 +
STACK CFI ba098 .cfa: sp 288 +
STACK CFI ba0b4 .cfa: x29 96 + x19: .cfa -8 + ^ x20: .cfa -16 + ^ x21: .cfa -24 + ^ x22: .cfa -32 + ^ x23: .cfa -40 + ^ x24: .cfa -48 + ^ x25: .cfa -56 + ^ x26: .cfa -64 + ^ x27: .cfa -72 + ^ x28: .cfa -80 + ^ .ra: .cfa -88 + ^ x29: .cfa -96 + ^
STACK CFI bae44 .cfa: sp 288 +
STACK CFI bae60 .cfa: sp 0 +
STACK CFI bae64 .cfa: x29 96 +
STACK CFI INIT bb0fc 520 .cfa: sp 0 +
STACK CFI bb100 .cfa: sp 144 +
STACK CFI bb11c .cfa: x29 96 + x19: .cfa -8 + ^ x20: .cfa -16 + ^ x21: .cfa -24 + ^ x22: .cfa -32 + ^ x23: .cfa -40 + ^ x24: .cfa -48 + ^ x25: .cfa -56 + ^ x26: .cfa -64 + ^ x27: .cfa -72 + ^ x28: .cfa -80 + ^ .ra: .cfa -88 + ^ x29: .cfa -96 + ^
STACK CFI bb5f8 .cfa: sp 144 +
STACK CFI bb614 .cfa: sp 0 +
STACK CFI bb618 .cfa: x29 96 +
STACK CFI INIT bbfbc 136c .cfa: sp 0 +
STACK CFI bbfc0 .cfa: sp 224 +
STACK CFI bbfdc .cfa: x29 96 + x19: .cfa -8 + ^ x20: .cfa -16 + ^ x21: .cfa -24 + ^ x22: .cfa -32 + ^ x23: .cfa -40 + ^ x24: .cfa -48 + ^ x25: .cfa -56 + ^ x26: .cfa -64 + ^ x27: .cfa -72 + ^ x28: .cfa -80 + ^ .ra: .cfa -88 + ^ x29: .cfa -96 + ^
STACK CFI bd304 .cfa: sp 224 +
STACK CFI bd320 .cfa: sp 0 +
STACK CFI bd324 .cfa: x29 96 +
STACK CFI INIT bd328 1b8 .cfa: sp 0 +
STACK CFI INIT 329c0 180 .cfa: sp 0 +
STACK CFI 329c4 .cfa: sp 96 +
STACK CFI 329d8 .cfa: x29 64 + x19: .cfa -8 + ^ x20: .cfa -16 + ^ x21: .cfa -24 + ^ x22: .cfa -32 + ^ x23: .cfa -40 + ^ x24: .cfa -48 + ^ .ra: .cfa -56 + ^ x29: .cfa -64 + ^
STACK CFI 32a90 .cfa: sp 96 +
STACK CFI 32aa4 .cfa: sp 0 +
STACK CFI 32aa8 .cfa: x29 64 +
STACK CFI INIT 32b40 66c .cfa: sp 0 +
STACK CFI 32b44 .cfa: sp 224 +
STACK CFI 32b60 .cfa: x29 96 + x19: .cfa -8 + ^ x20: .cfa -16 + ^ x21: .cfa -24 + ^ x22: .cfa -32 + ^ x23: .cfa -40 + ^ x24: .cfa -48 + ^ x25: .cfa -56 + ^ x26: .cfa -64 + ^ x27: .cfa -80 + ^ .ra: .cfa -88 + ^ x29: .cfa -96 + ^
STACK CFI 32c8c .cfa: sp 224 +
STACK CFI 32ca8 .cfa: sp 0 +
STACK CFI 32cac .cfa: x29 96 +
STACK CFI 3306c .cfa: sp 224 +
STACK CFI 33088 .cfa: sp 0 +
STACK CFI 3308c .cfa: x29 96 +
STACK CFI INIT 331c8 188 .cfa: sp 0 +
STACK CFI 331cc .cfa: sp 112 +
STACK CFI 331dc .cfa: x29 48 + x19: .cfa -8 + ^ x20: .cfa -16 + ^ x21: .cfa -32 + ^ .ra: .cfa -40 + ^ x29: .cfa -48 + ^
STACK CFI 332a4 .cfa: sp 112 +
STACK CFI 332b4 .cfa: sp 0 +
STACK CFI 332b8 .cfa: x29 48 +
STACK CFI INIT 33350 2b8 .cfa: sp 0 +
STACK CFI 33354 .cfa: sp 160 +
STACK CFI 33370 .cfa: x29 96 + x19: .cfa -8 + ^ x20: .cfa -16 + ^ x21: .cfa -24 + ^ x22: .cfa -32 + ^ x23: .cfa -40 + ^ x24: .cfa -48 + ^ x25: .cfa -56 + ^ x26: .cfa -64 + ^ x27: .cfa -72 + ^ x28: .cfa -80 + ^ .ra: .cfa -88 + ^ x29: .cfa -96 + ^
STACK CFI 333a8 .cfa: sp 160 +
STACK CFI 333c4 .cfa: sp 0 +
STACK CFI 333c8 .cfa: x29 96 +
STACK CFI INIT 33608 114 .cfa: sp 0 +
STACK CFI 3360c .cfa: sp 64 +
STACK CFI 3361c .cfa: x29 64 + x19: .cfa -8 + ^ x20: .cfa -16 + ^ x21: .cfa -24 + ^ x22: .cfa -32 + ^ x23: .cfa -48 + ^ .ra: .cfa -56 + ^ x29: .cfa -64 + ^
STACK CFI 336f8 .cfa: sp 64 +
STACK CFI 33708 .cfa: sp 0 +
STACK CFI 3370c .cfa: x29 64 +
STACK CFI INIT 33744 50 .cfa: sp 0 +
STACK CFI 33748 .cfa: sp 32 +
STACK CFI 33750 .cfa: x29 32 + x19: .cfa -8 + ^ x20: .cfa -16 + ^ .ra: .cfa -24 + ^ x29: .cfa -32 + ^
STACK CFI INIT 337f8 22c .cfa: sp 0 +
STACK CFI 337fc .cfa: sp 96 +
STACK CFI 33814 .cfa: x29 96 + x19: .cfa -8 + ^ x20: .cfa -16 + ^ x21: .cfa -24 + ^ x22: .cfa -32 + ^ x23: .cfa -40 + ^ x24: .cfa -48 + ^ x25: .cfa -56 + ^ x26: .cfa -64 + ^ x27: .cfa -80 + ^ .ra: .cfa -88 + ^ x29: .cfa -96 + ^
STACK CFI 339b8 .cfa: sp 96 +
STACK CFI 339d0 .cfa: sp 0 +
STACK CFI 339d4 .cfa: x29 96 +
STACK CFI INIT 33a4c 50 .cfa: sp 0 +
STACK CFI 33a50 .cfa: sp 32 +
STACK CFI 33a58 .cfa: x29 32 + x19: .cfa -8 + ^ x20: .cfa -16 + ^ .ra: .cfa -24 + ^ x29: .cfa -32 + ^
STACK CFI INIT 33b78 3b8 .cfa: sp 0 +
STACK CFI 33b7c .cfa: sp 224 +
STACK CFI 33b90 .cfa: x29 64 + x19: .cfa -8 + ^ x20: .cfa -16 + ^ x21: .cfa -24 + ^ x22: .cfa -32 + ^ x23: .cfa -40 + ^ x24: .cfa -48 + ^ .ra: .cfa -56 + ^ x29: .cfa -64 + ^
STACK CFI 33e00 .cfa: sp 224 +
STACK CFI 33e14 .cfa: sp 0 +
STACK CFI 33e18 .cfa: x29 64 +
STACK CFI INIT 33f80 74 .cfa: sp 0 +
STACK CFI 33f84 .cfa: sp 48 +
STACK CFI 33f90 .cfa: x29 32 + x19: .cfa -8 + ^ x20: .cfa -16 + ^ .ra: .cfa -24 + ^ x29: .cfa -32 + ^
STACK CFI 33fdc .cfa: sp 48 +
STACK CFI 33fe8 .cfa: sp 0 +
STACK CFI 33fec .cfa: x29 32 +
STACK CFI INIT 341a8 1f4 .cfa: sp 0 +
STACK CFI 341ac .cfa: sp 128 +
STACK CFI 341c8 .cfa: x29 96 + x19: .cfa -8 + ^ x20: .cfa -16 + ^ x21: .cfa -24 + ^ x22: .cfa -32 + ^ x23: .cfa -40 + ^ x24: .cfa -48 + ^ x25: .cfa -56 + ^ x26: .cfa -64 + ^ x27: .cfa -72 + ^ x28: .cfa -80 + ^ .ra: .cfa -88 + ^ x29: .cfa -96 + ^
STACK CFI 34354 .cfa: sp 128 +
STACK CFI 34370 .cfa: sp 0 +
STACK CFI 34374 .cfa: x29 96 +
STACK CFI INIT 34648 154 .cfa: sp 0 +
STACK CFI 3464c .cfa: sp 384 +
STACK CFI 34660 .cfa: x29 64 + x19: .cfa -8 + ^ x20: .cfa -16 + ^ x21: .cfa -24 + ^ x22: .cfa -32 + ^ x23: .cfa -40 + ^ x28: .cfa -48 + ^ .ra: .cfa -56 + ^ x29: .cfa -64 + ^
STACK CFI 34744 .cfa: sp 384 +
STACK CFI 34758 .cfa: sp 0 +
STACK CFI 3475c .cfa: x29 64 +
STACK CFI INIT 347d0 12c .cfa: sp 0 +
STACK CFI 347d4 .cfa: sp 80 +
STACK CFI 347e8 .cfa: x29 80 + x19: .cfa -8 + ^ x20: .cfa -16 + ^ x21: .cfa -24 + ^ x22: .cfa -32 + ^ x23: .cfa -40 + ^ x24: .cfa -48 + ^ x25: .cfa -56 + ^ x26: .cfa -64 + ^ .ra: .cfa -72 + ^ x29: .cfa -80 + ^
STACK CFI 348b0 .cfa: sp 80 +
STACK CFI 348c4 .cfa: sp 0 +
STACK CFI 348c8 .cfa: x29 80 +
STACK CFI INIT 349a0 1a4 .cfa: sp 0 +
STACK CFI 349a4 .cfa: sp 112 +
STACK CFI 349bc .cfa: x29 80 + x19: .cfa -8 + ^ x20: .cfa -16 + ^ x21: .cfa -24 + ^ x22: .cfa -32 + ^ x23: .cfa -40 + ^ x24: .cfa -48 + ^ x25: .cfa -56 + ^ x26: .cfa -64 + ^ .ra: .cfa -72 + ^ x29: .cfa -80 + ^
STACK CFI 34aac .cfa: sp 112 +
STACK CFI 34ac4 .cfa: sp 0 +
STACK CFI 34ac8 .cfa: x29 80 +
STACK CFI INIT 34b44 1dc .cfa: sp 0 +
STACK CFI 34b48 .cfa: sp 128 +
STACK CFI 34b64 .cfa: x29 96 + x19: .cfa -8 + ^ x20: .cfa -16 + ^ x21: .cfa -24 + ^ x22: .cfa -32 + ^ x23: .cfa -40 + ^ x24: .cfa -48 + ^ x25: .cfa -56 + ^ x26: .cfa -64 + ^ x27: .cfa -80 + ^ .ra: .cfa -88 + ^ x29: .cfa -96 + ^
STACK CFI 34cd0 .cfa: sp 128 +
STACK CFI 34cec .cfa: sp 0 +
STACK CFI 34cf0 .cfa: x29 96 +
STACK CFI INIT 34d20 178 .cfa: sp 0 +
STACK CFI 34d24 .cfa: sp 80 +
STACK CFI 34d38 .cfa: x29 80 + x19: .cfa -8 + ^ x20: .cfa -16 + ^ x21: .cfa -24 + ^ x22: .cfa -32 + ^ x23: .cfa -40 + ^ x24: .cfa -48 + ^ x25: .cfa -64 + ^ .ra: .cfa -72 + ^ x29: .cfa -80 + ^
STACK CFI 34e64 .cfa: sp 80 +
STACK CFI 34e78 .cfa: sp 0 +
STACK CFI 34e7c .cfa: x29 80 +
STACK CFI INIT 34fe0 168 .cfa: sp 0 +
STACK CFI 34fe4 .cfa: sp 384 +
STACK CFI 34ff8 .cfa: x29 64 + x19: .cfa -8 + ^ x20: .cfa -16 + ^ x21: .cfa -24 + ^ x22: .cfa -32 + ^ x23: .cfa -40 + ^ x28: .cfa -48 + ^ .ra: .cfa -56 + ^ x29: .cfa -64 + ^
STACK CFI 350f0 .cfa: sp 384 +
STACK CFI 35104 .cfa: sp 0 +
STACK CFI 35108 .cfa: x29 64 +
STACK CFI INIT 35160 228 .cfa: sp 0 +
STACK CFI 35164 .cfa: sp 128 +
STACK CFI 3517c .cfa: x29 80 + x19: .cfa -8 + ^ x20: .cfa -16 + ^ x21: .cfa -24 + ^ x22: .cfa -32 + ^ x23: .cfa -40 + ^ x24: .cfa -48 + ^ x25: .cfa -64 + ^ .ra: .cfa -72 + ^ x29: .cfa -80 + ^
STACK CFI 35318 .cfa: sp 128 +
STACK CFI 35330 .cfa: sp 0 +
STACK CFI 35334 .cfa: x29 80 +
STACK CFI INIT 35944 158 .cfa: sp 0 +
STACK CFI 35948 .cfa: sp 112 +
STACK CFI 35960 .cfa: x29 80 + x19: .cfa -8 + ^ x20: .cfa -16 + ^ x21: .cfa -24 + ^ x22: .cfa -32 + ^ x23: .cfa -40 + ^ x24: .cfa -48 + ^ x25: .cfa -64 + ^ .ra: .cfa -72 + ^ x29: .cfa -80 + ^
STACK CFI 35a30 .cfa: sp 112 +
STACK CFI 35a48 .cfa: sp 0 +
STACK CFI 35a4c .cfa: x29 80 +
STACK CFI INIT 35b64 254 .cfa: sp 0 +
STACK CFI 35b68 .cfa: sp 96 +
STACK CFI 35b80 .cfa: x29 80 + x19: .cfa -8 + ^ x20: .cfa -16 + ^ x21: .cfa -24 + ^ x22: .cfa -32 + ^ x23: .cfa -40 + ^ x24: .cfa -48 + ^ x25: .cfa -64 + ^ .ra: .cfa -72 + ^ x29: .cfa -80 + ^
STACK CFI 35d94 .cfa: sp 96 +
STACK CFI 35dac .cfa: sp 0 +
STACK CFI 35db0 .cfa: x29 80 +
STACK CFI INIT 3637c 2f4 .cfa: sp 0 +
STACK CFI 36380 .cfa: sp 144 +
STACK CFI 36394 .cfa: x29 64 + x19: .cfa -8 + ^ x20: .cfa -16 + ^ x21: .cfa -24 + ^ x22: .cfa -32 + ^ x23: .cfa -40 + ^ x24: .cfa -48 + ^ .ra: .cfa -56 + ^ x29: .cfa -64 + ^
STACK CFI 36604 .cfa: sp 144 +
STACK CFI 36618 .cfa: sp 0 +
STACK CFI 3661c .cfa: x29 64 +
STACK CFI INIT 36670 4c0 .cfa: sp 0 +
STACK CFI 36674 .cfa: sp 128 +
STACK CFI 36690 .cfa: x29 96 + x19: .cfa -8 + ^ x20: .cfa -16 + ^ x21: .cfa -24 + ^ x22: .cfa -32 + ^ x23: .cfa -40 + ^ x24: .cfa -48 + ^ x25: .cfa -56 + ^ x26: .cfa -64 + ^ x27: .cfa -72 + ^ x28: .cfa -80 + ^ .ra: .cfa -88 + ^ x29: .cfa -96 + ^
STACK CFI 36ae0 .cfa: sp 128 +
STACK CFI 36afc .cfa: sp 0 +
STACK CFI 36b00 .cfa: x29 96 +
STACK CFI INIT 36df4 bc .cfa: sp 0 +
STACK CFI 36df8 .cfa: sp 80 +
STACK CFI 36e04 .cfa: x29 32 + x19: .cfa -8 + ^ x20: .cfa -16 + ^ .ra: .cfa -24 + ^ x29: .cfa -32 + ^
STACK CFI 36e70 .cfa: sp 80 +
STACK CFI 36e7c .cfa: sp 0 +
STACK CFI 36e80 .cfa: x29 32 +
STACK CFI INIT 36eb0 128 .cfa: sp 0 +
STACK CFI 36eb4 .cfa: sp 96 +
STACK CFI 36ec8 .cfa: x29 64 + x19: .cfa -8 + ^ x20: .cfa -16 + ^ x21: .cfa -24 + ^ x22: .cfa -32 + ^ x23: .cfa -40 + ^ x24: .cfa -48 + ^ .ra: .cfa -56 + ^ x29: .cfa -64 + ^
STACK CFI 36f78 .cfa: sp 96 +
STACK CFI 36f8c .cfa: sp 0 +
STACK CFI 36f90 .cfa: x29 64 +
STACK CFI INIT 36fd8 310 .cfa: sp 0 +
STACK CFI 36fdc .cfa: sp 144 +
STACK CFI 36ff8 .cfa: x29 96 + x19: .cfa -8 + ^ x20: .cfa -16 + ^ x21: .cfa -24 + ^ x22: .cfa -32 + ^ x23: .cfa -40 + ^ x24: .cfa -48 + ^ x25: .cfa -56 + ^ x26: .cfa -64 + ^ x27: .cfa -72 + ^ x28: .cfa -80 + ^ .ra: .cfa -88 + ^ x29: .cfa -96 + ^
STACK CFI 3727c .cfa: sp 144 +
STACK CFI 37298 .cfa: sp 0 +
STACK CFI 3729c .cfa: x29 96 +
STACK CFI INIT 372e8 128 .cfa: sp 0 +
STACK CFI 372ec .cfa: sp 96 +
STACK CFI 37300 .cfa: x29 64 + x19: .cfa -8 + ^ x20: .cfa -16 + ^ x21: .cfa -24 + ^ x22: .cfa -32 + ^ x23: .cfa -40 + ^ x24: .cfa -48 + ^ .ra: .cfa -56 + ^ x29: .cfa -64 + ^
STACK CFI 373b0 .cfa: sp 96 +
STACK CFI 373c4 .cfa: sp 0 +
STACK CFI 373c8 .cfa: x29 64 +
STACK CFI INIT 37410 560 .cfa: sp 0 +
STACK CFI 37414 .cfa: sp 224 +
STACK CFI 37430 .cfa: x29 96 + x19: .cfa -8 + ^ x20: .cfa -16 + ^ x21: .cfa -24 + ^ x22: .cfa -32 + ^ x23: .cfa -40 + ^ x24: .cfa -48 + ^ x25: .cfa -56 + ^ x26: .cfa -64 + ^ x27: .cfa -80 + ^ .ra: .cfa -88 + ^ x29: .cfa -96 + ^
STACK CFI 37774 .cfa: sp 224 +
STACK CFI 37790 .cfa: sp 0 +
STACK CFI 37794 .cfa: x29 96 +
STACK CFI 37860 .cfa: sp 224 +
STACK CFI 3787c .cfa: sp 0 +
STACK CFI 37880 .cfa: x29 96 +
STACK CFI INIT 3798c 74c .cfa: sp 0 +
STACK CFI 37990 .cfa: sp 208 +
STACK CFI 379b4 .cfa: x29 96 + x19: .cfa -8 + ^ x20: .cfa -16 + ^ x21: .cfa -24 + ^ x22: .cfa -32 + ^ x23: .cfa -40 + ^ x24: .cfa -48 + ^ x25: .cfa -56 + ^ x26: .cfa -64 + ^ x27: .cfa -80 + ^ .ra: .cfa -88 + ^ x29: .cfa -96 + ^ v8: .cfa -104 + ^ v9: .cfa -112 + ^ v10: .cfa -120 + ^ v11: .cfa -128 + ^
STACK CFI 38044 .cfa: sp 208 +
STACK CFI 38068 .cfa: sp 0 +
STACK CFI 3806c .cfa: x29 96 +
STACK CFI INIT 384c8 69c .cfa: sp 0 +
STACK CFI 384cc .cfa: sp 288 +
STACK CFI 384e8 .cfa: x29 96 + x19: .cfa -8 + ^ x20: .cfa -16 + ^ x21: .cfa -24 + ^ x22: .cfa -32 + ^ x23: .cfa -40 + ^ x24: .cfa -48 + ^ x25: .cfa -56 + ^ x26: .cfa -64 + ^ x28: .cfa -80 + ^ .ra: .cfa -88 + ^ x29: .cfa -96 + ^
STACK CFI 3898c .cfa: sp 288 +
STACK CFI 389a8 .cfa: sp 0 +
STACK CFI 389ac .cfa: x29 96 +
STACK CFI INIT 38b68 248 .cfa: sp 0 +
STACK CFI 38b6c .cfa: sp 144 +
STACK CFI 38b80 .cfa: x29 64 + x19: .cfa -8 + ^ x20: .cfa -16 + ^ x21: .cfa -24 + ^ x22: .cfa -32 + ^ x23: .cfa -40 + ^ x24: .cfa -48 + ^ .ra: .cfa -56 + ^ x29: .cfa -64 + ^
STACK CFI 38d34 .cfa: sp 144 +
STACK CFI 38d48 .cfa: sp 0 +
STACK CFI 38d4c .cfa: x29 64 +
STACK CFI INIT 38db0 144 .cfa: sp 0 +
STACK CFI 38db4 .cfa: sp 112 +
STACK CFI 38dcc .cfa: x29 80 + x19: .cfa -8 + ^ x20: .cfa -16 + ^ x21: .cfa -24 + ^ x22: .cfa -32 + ^ x23: .cfa -40 + ^ x24: .cfa -48 + ^ x25: .cfa -64 + ^ .ra: .cfa -72 + ^ x29: .cfa -80 + ^
STACK CFI 38e88 .cfa: sp 112 +
STACK CFI 38ea0 .cfa: sp 0 +
STACK CFI 38ea4 .cfa: x29 80 +
STACK CFI INIT 38ef4 260 .cfa: sp 0 +
STACK CFI 38ef8 .cfa: sp 80 +
STACK CFI 38f0c .cfa: x29 80 + x19: .cfa -8 + ^ x20: .cfa -16 + ^ x21: .cfa -24 + ^ x22: .cfa -32 + ^ x23: .cfa -40 + ^ x24: .cfa -48 + ^ x25: .cfa -56 + ^ x28: .cfa -64 + ^ .ra: .cfa -72 + ^ x29: .cfa -80 + ^
STACK CFI 390d8 .cfa: sp 80 +
STACK CFI 390ec .cfa: sp 0 +
STACK CFI 390f0 .cfa: x29 80 +
STACK CFI INIT 39154 a8 .cfa: sp 0 +
STACK CFI 39158 .cfa: sp 32 +
STACK CFI 39160 .cfa: x29 32 + x19: .cfa -16 + ^ .ra: .cfa -24 + ^ x29: .cfa -32 + ^
STACK CFI 39194 .cfa: sp 32 +
STACK CFI 3919c .cfa: sp 0 +
STACK CFI 391a0 .cfa: x29 32 +
STACK CFI 391a4 .cfa: sp 32 +
STACK CFI 391ac .cfa: sp 0 +
STACK CFI 391b0 .cfa: x29 32 +
STACK CFI INIT 39298 bc .cfa: sp 0 +
STACK CFI 3929c .cfa: sp 80 +
STACK CFI 392a8 .cfa: x29 32 + x19: .cfa -8 + ^ x20: .cfa -16 + ^ .ra: .cfa -24 + ^ x29: .cfa -32 + ^
STACK CFI 39314 .cfa: sp 80 +
STACK CFI 39320 .cfa: sp 0 +
STACK CFI 39324 .cfa: x29 32 +
STACK CFI INIT 3947c 678 .cfa: sp 0 +
STACK CFI 39480 .cfa: sp 224 +
STACK CFI 3949c .cfa: x29 96 + x19: .cfa -8 + ^ x20: .cfa -16 + ^ x21: .cfa -24 + ^ x22: .cfa -32 + ^ x23: .cfa -40 + ^ x24: .cfa -48 + ^ x25: .cfa -56 + ^ x26: .cfa -64 + ^ x27: .cfa -80 + ^ .ra: .cfa -88 + ^ x29: .cfa -96 + ^
STACK CFI 395d4 .cfa: sp 224 +
STACK CFI 395f0 .cfa: sp 0 +
STACK CFI 395f4 .cfa: x29 96 +
STACK CFI 399b4 .cfa: sp 224 +
STACK CFI 399d0 .cfa: sp 0 +
STACK CFI 399d4 .cfa: x29 96 +
STACK CFI INIT 39b10 4c8 .cfa: sp 0 +
STACK CFI 39b14 .cfa: sp 208 +
STACK CFI 39b28 .cfa: x29 64 + x19: .cfa -8 + ^ x20: .cfa -16 + ^ x21: .cfa -24 + ^ x22: .cfa -32 + ^ x23: .cfa -40 + ^ x24: .cfa -48 + ^ .ra: .cfa -56 + ^ x29: .cfa -64 + ^
STACK CFI 39f60 .cfa: sp 208 +
STACK CFI 39f74 .cfa: sp 0 +
STACK CFI 39f78 .cfa: x29 64 +
STACK CFI INIT 3a01c 330 .cfa: sp 0 +
STACK CFI 3a020 .cfa: sp 224 +
STACK CFI 3a034 .cfa: x29 64 + x19: .cfa -8 + ^ x20: .cfa -16 + ^ x21: .cfa -24 + ^ x22: .cfa -32 + ^ x23: .cfa -48 + ^ .ra: .cfa -56 + ^ x29: .cfa -64 + ^
STACK CFI 3a23c .cfa: sp 224 +
STACK CFI 3a250 .cfa: sp 0 +
STACK CFI 3a254 .cfa: x29 64 +
STACK CFI INIT 3a350 148 .cfa: sp 0 +
STACK CFI 3a354 .cfa: sp 112 +
STACK CFI 3a368 .cfa: x29 64 + x19: .cfa -8 + ^ x20: .cfa -16 + ^ x21: .cfa -24 + ^ x22: .cfa -32 + ^ x23: .cfa -48 + ^ .ra: .cfa -56 + ^ x29: .cfa -64 + ^
STACK CFI 3a430 .cfa: sp 112 +
STACK CFI 3a444 .cfa: sp 0 +
STACK CFI 3a448 .cfa: x29 64 +
STACK CFI INIT 3a498 a8 .cfa: sp 0 +
STACK CFI 3a49c .cfa: sp 32 +
STACK CFI 3a4a4 .cfa: x29 32 + x19: .cfa -16 + ^ .ra: .cfa -24 + ^ x29: .cfa -32 + ^
STACK CFI 3a4d8 .cfa: sp 32 +
STACK CFI 3a4e0 .cfa: sp 0 +
STACK CFI 3a4e4 .cfa: x29 32 +
STACK CFI 3a4e8 .cfa: sp 32 +
STACK CFI 3a4f0 .cfa: sp 0 +
STACK CFI 3a4f4 .cfa: x29 32 +
STACK CFI INIT 3a5c4 bc .cfa: sp 0 +
STACK CFI 3a5c8 .cfa: sp 80 +
STACK CFI 3a5d4 .cfa: x29 32 + x19: .cfa -8 + ^ x20: .cfa -16 + ^ .ra: .cfa -24 + ^ x29: .cfa -32 + ^
STACK CFI 3a640 .cfa: sp 80 +
STACK CFI 3a64c .cfa: sp 0 +
STACK CFI 3a650 .cfa: x29 32 +
STACK CFI INIT 3a798 678 .cfa: sp 0 +
STACK CFI 3a79c .cfa: sp 224 +
STACK CFI 3a7b8 .cfa: x29 96 + x19: .cfa -8 + ^ x20: .cfa -16 + ^ x21: .cfa -24 + ^ x22: .cfa -32 + ^ x23: .cfa -40 + ^ x24: .cfa -48 + ^ x25: .cfa -56 + ^ x26: .cfa -64 + ^ x27: .cfa -80 + ^ .ra: .cfa -88 + ^ x29: .cfa -96 + ^
STACK CFI 3a8f0 .cfa: sp 224 +
STACK CFI 3a90c .cfa: sp 0 +
STACK CFI 3a910 .cfa: x29 96 +
STACK CFI 3acd0 .cfa: sp 224 +
STACK CFI 3acec .cfa: sp 0 +
STACK CFI 3acf0 .cfa: x29 96 +
STACK CFI INIT 3ae2c 10ac .cfa: sp 0 +
STACK CFI 3ae30 .cfa: sp 208 +
STACK CFI 3ae50 .cfa: x29 96 + x19: .cfa -8 + ^ x20: .cfa -16 + ^ x21: .cfa -24 + ^ x22: .cfa -32 + ^ x23: .cfa -40 + ^ x24: .cfa -48 + ^ x25: .cfa -56 + ^ x26: .cfa -64 + ^ x27: .cfa -72 + ^ x28: .cfa -80 + ^ .ra: .cfa -88 + ^ x29: .cfa -96 + ^ v8: .cfa -112 + ^
STACK CFI 3afb0 .cfa: sp 208 +
STACK CFI 3afd0 .cfa: sp 0 +
STACK CFI 3afd4 .cfa: x29 96 +
STACK CFI INIT 3bf1c 388 .cfa: sp 0 +
STACK CFI 3bf20 .cfa: sp 256 +
STACK CFI 3bf34 .cfa: x29 64 + x19: .cfa -8 + ^ x20: .cfa -16 + ^ x21: .cfa -24 + ^ x22: .cfa -32 + ^ x23: .cfa -48 + ^ .ra: .cfa -56 + ^ x29: .cfa -64 + ^
STACK CFI 3c178 .cfa: sp 256 +
STACK CFI 3c18c .cfa: sp 0 +
STACK CFI 3c190 .cfa: x29 64 +
STACK CFI INIT 3c2a8 160 .cfa: sp 0 +
STACK CFI 3c2ac .cfa: sp 96 +
STACK CFI 3c2c0 .cfa: x29 64 + x19: .cfa -8 + ^ x20: .cfa -16 + ^ x21: .cfa -24 + ^ x22: .cfa -32 + ^ x23: .cfa -48 + ^ .ra: .cfa -56 + ^ x29: .cfa -64 + ^
STACK CFI 3c39c .cfa: sp 96 +
STACK CFI 3c3b0 .cfa: sp 0 +
STACK CFI 3c3b4 .cfa: x29 64 +
STACK CFI INIT 3c408 c0 .cfa: sp 0 +
STACK CFI 3c40c .cfa: sp 80 +
STACK CFI 3c418 .cfa: x29 32 + x19: .cfa -8 + ^ x20: .cfa -16 + ^ .ra: .cfa -24 + ^ x29: .cfa -32 + ^
STACK CFI 3c488 .cfa: sp 80 +
STACK CFI 3c494 .cfa: sp 0 +
STACK CFI 3c498 .cfa: x29 32 +
STACK CFI INIT 3c4c8 128 .cfa: sp 0 +
STACK CFI 3c4cc .cfa: sp 96 +
STACK CFI 3c4e0 .cfa: x29 64 + x19: .cfa -8 + ^ x20: .cfa -16 + ^ x21: .cfa -24 + ^ x22: .cfa -32 + ^ x23: .cfa -40 + ^ x24: .cfa -48 + ^ .ra: .cfa -56 + ^ x29: .cfa -64 + ^
STACK CFI 3c590 .cfa: sp 96 +
STACK CFI 3c5a4 .cfa: sp 0 +
STACK CFI 3c5a8 .cfa: x29 64 +
STACK CFI INIT 3c5f0 244 .cfa: sp 0 +
STACK CFI 3c5f4 .cfa: sp 144 +
STACK CFI 3c610 .cfa: x29 96 + x19: .cfa -8 + ^ x20: .cfa -16 + ^ x21: .cfa -24 + ^ x22: .cfa -32 + ^ x23: .cfa -40 + ^ x24: .cfa -48 + ^ x25: .cfa -56 + ^ x26: .cfa -64 + ^ x27: .cfa -72 + ^ x28: .cfa -80 + ^ .ra: .cfa -88 + ^ x29: .cfa -96 + ^
STACK CFI 3c7cc .cfa: sp 144 +
STACK CFI 3c7e8 .cfa: sp 0 +
STACK CFI 3c7ec .cfa: x29 96 +
STACK CFI INIT 3c834 668 .cfa: sp 0 +
STACK CFI 3c838 .cfa: sp 224 +
STACK CFI 3c854 .cfa: x29 96 + x19: .cfa -8 + ^ x20: .cfa -16 + ^ x21: .cfa -24 + ^ x22: .cfa -32 + ^ x23: .cfa -40 + ^ x24: .cfa -48 + ^ x25: .cfa -56 + ^ x26: .cfa -64 + ^ x27: .cfa -80 + ^ .ra: .cfa -88 + ^ x29: .cfa -96 + ^
STACK CFI 3c97c .cfa: sp 224 +
STACK CFI 3c998 .cfa: sp 0 +
STACK CFI 3c99c .cfa: x29 96 +
STACK CFI 3cd5c .cfa: sp 224 +
STACK CFI 3cd78 .cfa: sp 0 +
STACK CFI 3cd7c .cfa: x29 96 +
STACK CFI INIT 3ceb8 a8c .cfa: sp 0 +
STACK CFI 3cebc .cfa: sp 288 +
STACK CFI 3cedc .cfa: x29 96 + x19: .cfa -8 + ^ x20: .cfa -16 + ^ x21: .cfa -24 + ^ x22: .cfa -32 + ^ x23: .cfa -40 + ^ x24: .cfa -48 + ^ x25: .cfa -56 + ^ x26: .cfa -64 + ^ x27: .cfa -72 + ^ x28: .cfa -80 + ^ .ra: .cfa -88 + ^ x29: .cfa -96 + ^ v8: .cfa -112 + ^
STACK CFI 3d8c0 .cfa: sp 288 +
STACK CFI 3d8e0 .cfa: sp 0 +
STACK CFI 3d8e4 .cfa: x29 96 +
STACK CFI INIT 3dadc 314 .cfa: sp 0 +
STACK CFI 3dae0 .cfa: sp 192 +
STACK CFI 3daf4 .cfa: x29 64 + x19: .cfa -8 + ^ x20: .cfa -16 + ^ x21: .cfa -24 + ^ x22: .cfa -32 + ^ x23: .cfa -48 + ^ .ra: .cfa -56 + ^ x29: .cfa -64 + ^
STACK CFI 3dce8 .cfa: sp 192 +
STACK CFI 3dcfc .cfa: sp 0 +
STACK CFI 3dd00 .cfa: x29 64 +
STACK CFI INIT 3ddf4 148 .cfa: sp 0 +
STACK CFI 3ddf8 .cfa: sp 96 +
STACK CFI 3de0c .cfa: x29 64 + x19: .cfa -8 + ^ x20: .cfa -16 + ^ x21: .cfa -24 + ^ x22: .cfa -32 + ^ x23: .cfa -40 + ^ x24: .cfa -48 + ^ .ra: .cfa -56 + ^ x29: .cfa -64 + ^
STACK CFI 3ded4 .cfa: sp 96 +
STACK CFI 3dee8 .cfa: sp 0 +
STACK CFI 3deec .cfa: x29 64 +
STACK CFI INIT 3df3c a8 .cfa: sp 0 +
STACK CFI 3df40 .cfa: sp 32 +
STACK CFI 3df48 .cfa: x29 32 + x19: .cfa -16 + ^ .ra: .cfa -24 + ^ x29: .cfa -32 + ^
STACK CFI 3df7c .cfa: sp 32 +
STACK CFI 3df84 .cfa: sp 0 +
STACK CFI 3df88 .cfa: x29 32 +
STACK CFI 3df8c .cfa: sp 32 +
STACK CFI 3df94 .cfa: sp 0 +
STACK CFI 3df98 .cfa: x29 32 +
STACK CFI INIT 3e07c c0 .cfa: sp 0 +
STACK CFI 3e080 .cfa: sp 80 +
STACK CFI 3e08c .cfa: x29 32 + x19: .cfa -8 + ^ x20: .cfa -16 + ^ .ra: .cfa -24 + ^ x29: .cfa -32 + ^
STACK CFI 3e0fc .cfa: sp 80 +
STACK CFI 3e108 .cfa: sp 0 +
STACK CFI 3e10c .cfa: x29 32 +
STACK CFI INIT 3e13c 668 .cfa: sp 0 +
STACK CFI 3e140 .cfa: sp 224 +
STACK CFI 3e15c .cfa: x29 96 + x19: .cfa -8 + ^ x20: .cfa -16 + ^ x21: .cfa -24 + ^ x22: .cfa -32 + ^ x23: .cfa -40 + ^ x24: .cfa -48 + ^ x25: .cfa -56 + ^ x26: .cfa -64 + ^ x27: .cfa -80 + ^ .ra: .cfa -88 + ^ x29: .cfa -96 + ^
STACK CFI 3e284 .cfa: sp 224 +
STACK CFI 3e2a0 .cfa: sp 0 +
STACK CFI 3e2a4 .cfa: x29 96 +
STACK CFI 3e664 .cfa: sp 224 +
STACK CFI 3e680 .cfa: sp 0 +
STACK CFI 3e684 .cfa: x29 96 +
STACK CFI INIT 3e7c0 640 .cfa: sp 0 +
STACK CFI 3e7c4 .cfa: sp 160 +
STACK CFI 3e7d8 .cfa: x29 64 + x19: .cfa -8 + ^ x20: .cfa -16 + ^ x21: .cfa -24 + ^ x22: .cfa -32 + ^ x23: .cfa -48 + ^ .ra: .cfa -56 + ^ x29: .cfa -64 + ^
STACK CFI 3ed5c .cfa: sp 160 +
STACK CFI 3ed70 .cfa: sp 0 +
STACK CFI 3ed74 .cfa: x29 64 +
STACK CFI INIT 3ee44 c54 .cfa: sp 0 +
STACK CFI 3ee48 .cfa: sp 256 +
STACK CFI 3ee64 .cfa: x29 96 + x19: .cfa -8 + ^ x20: .cfa -16 + ^ x21: .cfa -24 + ^ x22: .cfa -32 + ^ x23: .cfa -40 + ^ x24: .cfa -48 + ^ x25: .cfa -56 + ^ x26: .cfa -64 + ^ x27: .cfa -72 + ^ x28: .cfa -80 + ^ .ra: .cfa -88 + ^ x29: .cfa -96 + ^
STACK CFI 3f7e4 .cfa: sp 256 +
STACK CFI 3f800 .cfa: sp 0 +
STACK CFI 3f804 .cfa: x29 96 +
STACK CFI INIT 3fa9c 148 .cfa: sp 0 +
STACK CFI 3faa0 .cfa: sp 128 +
STACK CFI 3fab4 .cfa: x29 64 + x19: .cfa -8 + ^ x20: .cfa -16 + ^ x21: .cfa -24 + ^ x22: .cfa -32 + ^ x23: .cfa -48 + ^ .ra: .cfa -56 + ^ x29: .cfa -64 + ^
STACK CFI 3fb7c .cfa: sp 128 +
STACK CFI 3fb90 .cfa: sp 0 +
STACK CFI 3fb94 .cfa: x29 64 +
STACK CFI INIT 3fbe4 b4 .cfa: sp 0 +
STACK CFI 3fbe8 .cfa: sp 80 +
STACK CFI 3fbf4 .cfa: x29 32 + x19: .cfa -8 + ^ x20: .cfa -16 + ^ .ra: .cfa -24 + ^ x29: .cfa -32 + ^
STACK CFI 3fc58 .cfa: sp 80 +
STACK CFI 3fc64 .cfa: sp 0 +
STACK CFI 3fc68 .cfa: x29 32 +
STACK CFI INIT 3fc98 350 .cfa: sp 0 +
STACK CFI 3fc9c .cfa: sp 144 +
STACK CFI 3fcb8 .cfa: x29 96 + x19: .cfa -8 + ^ x20: .cfa -16 + ^ x21: .cfa -24 + ^ x22: .cfa -32 + ^ x23: .cfa -40 + ^ x24: .cfa -48 + ^ x25: .cfa -56 + ^ x26: .cfa -64 + ^ x27: .cfa -72 + ^ x28: .cfa -80 + ^ .ra: .cfa -88 + ^ x29: .cfa -96 + ^
STACK CFI 3ff7c .cfa: sp 144 +
STACK CFI 3ff98 .cfa: sp 0 +
STACK CFI 3ff9c .cfa: x29 96 +
STACK CFI INIT 3ffe8 310 .cfa: sp 0 +
STACK CFI 3ffec .cfa: sp 144 +
STACK CFI 40008 .cfa: x29 96 + x19: .cfa -8 + ^ x20: .cfa -16 + ^ x21: .cfa -24 + ^ x22: .cfa -32 + ^ x23: .cfa -40 + ^ x24: .cfa -48 + ^ x25: .cfa -56 + ^ x26: .cfa -64 + ^ x27: .cfa -72 + ^ x28: .cfa -80 + ^ .ra: .cfa -88 + ^ x29: .cfa -96 + ^
STACK CFI 4028c .cfa: sp 144 +
STACK CFI 402a8 .cfa: sp 0 +
STACK CFI 402ac .cfa: x29 96 +
STACK CFI INIT 402f8 678 .cfa: sp 0 +
STACK CFI 402fc .cfa: sp 224 +
STACK CFI 40318 .cfa: x29 96 + x19: .cfa -8 + ^ x20: .cfa -16 + ^ x21: .cfa -24 + ^ x22: .cfa -32 + ^ x23: .cfa -40 + ^ x24: .cfa -48 + ^ x25: .cfa -56 + ^ x26: .cfa -64 + ^ x27: .cfa -80 + ^ .ra: .cfa -88 + ^ x29: .cfa -96 + ^
STACK CFI 40450 .cfa: sp 224 +
STACK CFI 4046c .cfa: sp 0 +
STACK CFI 40470 .cfa: x29 96 +
STACK CFI 40830 .cfa: sp 224 +
STACK CFI 4084c .cfa: sp 0 +
STACK CFI 40850 .cfa: x29 96 +
STACK CFI INIT 4098c 17f0 .cfa: sp 0 +
STACK CFI 40990 .cfa: sp 304 +
STACK CFI 409b4 .cfa: x29 96 + x19: .cfa -8 + ^ x20: .cfa -16 + ^ x21: .cfa -24 + ^ x22: .cfa -32 + ^ x23: .cfa -40 + ^ x24: .cfa -48 + ^ x25: .cfa -56 + ^ x26: .cfa -64 + ^ x27: .cfa -72 + ^ x28: .cfa -80 + ^ .ra: .cfa -88 + ^ x29: .cfa -96 + ^ v8: .cfa -104 + ^ v9: .cfa -112 + ^ v10: .cfa -128 + ^
STACK CFI 420dc .cfa: sp 304 +
STACK CFI 42100 .cfa: sp 0 +
STACK CFI 42104 .cfa: x29 96 +
STACK CFI INIT 422d8 674 .cfa: sp 0 +
STACK CFI 422dc .cfa: sp 288 +
STACK CFI 422f8 .cfa: x29 96 + x19: .cfa -8 + ^ x20: .cfa -16 + ^ x21: .cfa -24 + ^ x22: .cfa -32 + ^ x23: .cfa -40 + ^ x24: .cfa -48 + ^ x25: .cfa -56 + ^ x26: .cfa -64 + ^ x28: .cfa -80 + ^ .ra: .cfa -88 + ^ x29: .cfa -96 + ^
STACK CFI 4276c .cfa: sp 288 +
STACK CFI 42788 .cfa: sp 0 +
STACK CFI 4278c .cfa: x29 96 +
STACK CFI INIT 42950 164 .cfa: sp 0 +
STACK CFI 42954 .cfa: sp 112 +
STACK CFI 42968 .cfa: x29 64 + x19: .cfa -8 + ^ x20: .cfa -16 + ^ x21: .cfa -24 + ^ x22: .cfa -32 + ^ x23: .cfa -48 + ^ .ra: .cfa -56 + ^ x29: .cfa -64 + ^
STACK CFI 42a4c .cfa: sp 112 +
STACK CFI 42a60 .cfa: sp 0 +
STACK CFI 42a64 .cfa: x29 64 +
STACK CFI INIT 42cc0 c0 .cfa: sp 0 +
STACK CFI 42cc4 .cfa: sp 80 +
STACK CFI 42cd0 .cfa: x29 32 + x19: .cfa -8 + ^ x20: .cfa -16 + ^ .ra: .cfa -24 + ^ x29: .cfa -32 + ^
STACK CFI 42d40 .cfa: sp 80 +
STACK CFI 42d4c .cfa: sp 0 +
STACK CFI 42d50 .cfa: x29 32 +
STACK CFI INIT 42ed4 66c .cfa: sp 0 +
STACK CFI 42ed8 .cfa: sp 224 +
STACK CFI 42ef4 .cfa: x29 96 + x19: .cfa -8 + ^ x20: .cfa -16 + ^ x21: .cfa -24 + ^ x22: .cfa -32 + ^ x23: .cfa -40 + ^ x24: .cfa -48 + ^ x25: .cfa -56 + ^ x26: .cfa -64 + ^ x27: .cfa -80 + ^ .ra: .cfa -88 + ^ x29: .cfa -96 + ^
STACK CFI 43020 .cfa: sp 224 +
STACK CFI 4303c .cfa: sp 0 +
STACK CFI 43040 .cfa: x29 96 +
STACK CFI 43400 .cfa: sp 224 +
STACK CFI 4341c .cfa: sp 0 +
STACK CFI 43420 .cfa: x29 96 +
STACK CFI INIT 4355c 18c .cfa: sp 0 +
STACK CFI 43560 .cfa: sp 112 +
STACK CFI 43570 .cfa: x29 48 + x19: .cfa -8 + ^ x20: .cfa -16 + ^ x21: .cfa -32 + ^ .ra: .cfa -40 + ^ x29: .cfa -48 + ^
STACK CFI 43640 .cfa: sp 112 +
STACK CFI 43650 .cfa: sp 0 +
STACK CFI 43654 .cfa: x29 48 +
STACK CFI INIT 436ec 3b8 .cfa: sp 0 +
STACK CFI 436f0 .cfa: sp 224 +
STACK CFI 43704 .cfa: x29 64 + x19: .cfa -8 + ^ x20: .cfa -16 + ^ x21: .cfa -24 + ^ x22: .cfa -32 + ^ x23: .cfa -40 + ^ x24: .cfa -48 + ^ .ra: .cfa -56 + ^ x29: .cfa -64 + ^
STACK CFI 43974 .cfa: sp 224 +
STACK CFI 43988 .cfa: sp 0 +
STACK CFI 4398c .cfa: x29 64 +
STACK CFI INIT 43aa8 158 .cfa: sp 0 +
STACK CFI 43aac .cfa: sp 112 +
STACK CFI 43ac4 .cfa: x29 80 + x19: .cfa -8 + ^ x20: .cfa -16 + ^ x21: .cfa -24 + ^ x22: .cfa -32 + ^ x23: .cfa -40 + ^ x24: .cfa -48 + ^ x25: .cfa -64 + ^ .ra: .cfa -72 + ^ x29: .cfa -80 + ^
STACK CFI 43b94 .cfa: sp 112 +
STACK CFI 43bac .cfa: sp 0 +
STACK CFI 43bb0 .cfa: x29 80 +
STACK CFI INIT 43c00 94c .cfa: sp 0 +
STACK CFI 43c04 .cfa: sp 160 +
STACK CFI 43c1c .cfa: x29 80 + x19: .cfa -8 + ^ x20: .cfa -16 + ^ x21: .cfa -24 + ^ x22: .cfa -32 + ^ x23: .cfa -40 + ^ x24: .cfa -48 + ^ x25: .cfa -56 + ^ x26: .cfa -64 + ^ .ra: .cfa -72 + ^ x29: .cfa -80 + ^
STACK CFI 444b0 .cfa: sp 160 +
STACK CFI 444c8 .cfa: sp 0 +
STACK CFI 444cc .cfa: x29 80 +
STACK CFI INIT 44590 bc .cfa: sp 0 +
STACK CFI 44594 .cfa: sp 80 +
STACK CFI 445a0 .cfa: x29 32 + x19: .cfa -8 + ^ x20: .cfa -16 + ^ .ra: .cfa -24 + ^ x29: .cfa -32 + ^
STACK CFI 4460c .cfa: sp 80 +
STACK CFI 44618 .cfa: sp 0 +
STACK CFI 4461c .cfa: x29 32 +
STACK CFI INIT 4464c 66c .cfa: sp 0 +
STACK CFI 44650 .cfa: sp 224 +
STACK CFI 4466c .cfa: x29 96 + x19: .cfa -8 + ^ x20: .cfa -16 + ^ x21: .cfa -24 + ^ x22: .cfa -32 + ^ x23: .cfa -40 + ^ x24: .cfa -48 + ^ x25: .cfa -56 + ^ x26: .cfa -64 + ^ x27: .cfa -80 + ^ .ra: .cfa -88 + ^ x29: .cfa -96 + ^
STACK CFI 44798 .cfa: sp 224 +
STACK CFI 447b4 .cfa: sp 0 +
STACK CFI 447b8 .cfa: x29 96 +
STACK CFI 44b78 .cfa: sp 224 +
STACK CFI 44b94 .cfa: sp 0 +
STACK CFI 44b98 .cfa: x29 96 +
STACK CFI INIT 44cd4 bb4 .cfa: sp 0 +
STACK CFI 44cd8 .cfa: sp 160 +
STACK CFI 44cf0 .cfa: x29 80 + x19: .cfa -8 + ^ x20: .cfa -16 + ^ x21: .cfa -24 + ^ x22: .cfa -32 + ^ x23: .cfa -40 + ^ x24: .cfa -48 + ^ x25: .cfa -56 + ^ x26: .cfa -64 + ^ .ra: .cfa -72 + ^ x29: .cfa -80 + ^
STACK CFI 457e8 .cfa: sp 160 +
STACK CFI 45800 .cfa: sp 0 +
STACK CFI 45804 .cfa: x29 80 +
STACK CFI INIT 458cc 36c .cfa: sp 0 +
STACK CFI 458d0 .cfa: sp 192 +
STACK CFI 458e4 .cfa: x29 64 + x19: .cfa -8 + ^ x20: .cfa -16 + ^ x21: .cfa -24 + ^ x22: .cfa -32 + ^ x23: .cfa -48 + ^ .ra: .cfa -56 + ^ x29: .cfa -64 + ^
STACK CFI 45b14 .cfa: sp 192 +
STACK CFI 45b28 .cfa: sp 0 +
STACK CFI 45b2c .cfa: x29 64 +
STACK CFI INIT 45c3c 144 .cfa: sp 0 +
STACK CFI 45c40 .cfa: sp 112 +
STACK CFI 45c58 .cfa: x29 80 + x19: .cfa -8 + ^ x20: .cfa -16 + ^ x21: .cfa -24 + ^ x22: .cfa -32 + ^ x23: .cfa -40 + ^ x24: .cfa -48 + ^ x25: .cfa -64 + ^ .ra: .cfa -72 + ^ x29: .cfa -80 + ^
STACK CFI 45d14 .cfa: sp 112 +
STACK CFI 45d2c .cfa: sp 0 +
STACK CFI 45d30 .cfa: x29 80 +
STACK CFI INIT 45d80 bc .cfa: sp 0 +
STACK CFI 45d84 .cfa: sp 80 +
STACK CFI 45d90 .cfa: x29 32 + x19: .cfa -8 + ^ x20: .cfa -16 + ^ .ra: .cfa -24 + ^ x29: .cfa -32 + ^
STACK CFI 45dfc .cfa: sp 80 +
STACK CFI 45e08 .cfa: sp 0 +
STACK CFI 45e0c .cfa: x29 32 +
STACK CFI INIT 45e3c 128 .cfa: sp 0 +
STACK CFI 45e40 .cfa: sp 96 +
STACK CFI 45e54 .cfa: x29 64 + x19: .cfa -8 + ^ x20: .cfa -16 + ^ x21: .cfa -24 + ^ x22: .cfa -32 + ^ x23: .cfa -40 + ^ x24: .cfa -48 + ^ .ra: .cfa -56 + ^ x29: .cfa -64 + ^
STACK CFI 45f04 .cfa: sp 96 +
STACK CFI 45f18 .cfa: sp 0 +
STACK CFI 45f1c .cfa: x29 64 +
STACK CFI INIT 45f64 128 .cfa: sp 0 +
STACK CFI 45f68 .cfa: sp 96 +
STACK CFI 45f7c .cfa: x29 64 + x19: .cfa -8 + ^ x20: .cfa -16 + ^ x21: .cfa -24 + ^ x22: .cfa -32 + ^ x23: .cfa -40 + ^ x24: .cfa -48 + ^ .ra: .cfa -56 + ^ x29: .cfa -64 + ^
STACK CFI 4602c .cfa: sp 96 +
STACK CFI 46040 .cfa: sp 0 +
STACK CFI 46044 .cfa: x29 64 +
STACK CFI INIT 4608c 128 .cfa: sp 0 +
STACK CFI 46090 .cfa: sp 96 +
STACK CFI 460a4 .cfa: x29 64 + x19: .cfa -8 + ^ x20: .cfa -16 + ^ x21: .cfa -24 + ^ x22: .cfa -32 + ^ x23: .cfa -40 + ^ x24: .cfa -48 + ^ .ra: .cfa -56 + ^ x29: .cfa -64 + ^
STACK CFI 46154 .cfa: sp 96 +
STACK CFI 46168 .cfa: sp 0 +
STACK CFI 4616c .cfa: x29 64 +
STACK CFI INIT 461b4 20 .cfa: sp 0 +
STACK CFI 461b8 .cfa: sp 16 +
STACK CFI 461bc .cfa: x29 16 + .ra: .cfa -8 + ^ x29: .cfa -16 + ^
STACK CFI 461c8 .cfa: sp 16 +
STACK CFI 461cc .cfa: sp 0 +
STACK CFI 461d0 .cfa: x29 16 +
STACK CFI INIT 461d4 678 .cfa: sp 0 +
STACK CFI 461d8 .cfa: sp 224 +
STACK CFI 461f4 .cfa: x29 96 + x19: .cfa -8 + ^ x20: .cfa -16 + ^ x21: .cfa -24 + ^ x22: .cfa -32 + ^ x23: .cfa -40 + ^ x24: .cfa -48 + ^ x25: .cfa -56 + ^ x26: .cfa -64 + ^ x27: .cfa -80 + ^ .ra: .cfa -88 + ^ x29: .cfa -96 + ^
STACK CFI 4632c .cfa: sp 224 +
STACK CFI 46348 .cfa: sp 0 +
STACK CFI 4634c .cfa: x29 96 +
STACK CFI 4670c .cfa: sp 224 +
STACK CFI 46728 .cfa: sp 0 +
STACK CFI 4672c .cfa: x29 96 +
STACK CFI INIT 46868 6fc .cfa: sp 0 +
STACK CFI 4686c .cfa: sp 96 +
STACK CFI 46884 .cfa: x29 96 + x19: .cfa -8 + ^ x20: .cfa -16 + ^ x21: .cfa -24 + ^ x22: .cfa -32 + ^ x23: .cfa -40 + ^ x24: .cfa -48 + ^ x25: .cfa -56 + ^ x26: .cfa -64 + ^ x27: .cfa -72 + ^ x28: .cfa -80 + ^ .ra: .cfa -88 + ^ x29: .cfa -96 + ^
STACK CFI 46e80 .cfa: sp 96 +
STACK CFI 46e98 .cfa: sp 0 +
STACK CFI 46e9c .cfa: x29 96 +
STACK CFI INIT 47250 338 .cfa: sp 0 +
STACK CFI 47254 .cfa: sp 240 +
STACK CFI 47268 .cfa: x29 64 + x19: .cfa -8 + ^ x20: .cfa -16 + ^ x21: .cfa -24 + ^ x22: .cfa -32 + ^ x23: .cfa -48 + ^ .ra: .cfa -56 + ^ x29: .cfa -64 + ^
STACK CFI 47478 .cfa: sp 240 +
STACK CFI 4748c .cfa: sp 0 +
STACK CFI 47490 .cfa: x29 64 +
STACK CFI INIT 4758c 144 .cfa: sp 0 +
STACK CFI 47590 .cfa: sp 112 +
STACK CFI 475a4 .cfa: x29 64 + x19: .cfa -8 + ^ x20: .cfa -16 + ^ x21: .cfa -24 + ^ x22: .cfa -32 + ^ x23: .cfa -40 + ^ x24: .cfa -48 + ^ .ra: .cfa -56 + ^ x29: .cfa -64 + ^
STACK CFI 47668 .cfa: sp 112 +
STACK CFI 4767c .cfa: sp 0 +
STACK CFI 47680 .cfa: x29 64 +
STACK CFI INIT 476d0 a8 .cfa: sp 0 +
STACK CFI 476d4 .cfa: sp 32 +
STACK CFI 476dc .cfa: x29 32 + x19: .cfa -16 + ^ .ra: .cfa -24 + ^ x29: .cfa -32 + ^
STACK CFI 47710 .cfa: sp 32 +
STACK CFI 47718 .cfa: sp 0 +
STACK CFI 4771c .cfa: x29 32 +
STACK CFI 47720 .cfa: sp 32 +
STACK CFI 47728 .cfa: sp 0 +
STACK CFI 4772c .cfa: x29 32 +
STACK CFI INIT 477fc bc .cfa: sp 0 +
STACK CFI 47800 .cfa: sp 80 +
STACK CFI 4780c .cfa: x29 32 + x19: .cfa -8 + ^ x20: .cfa -16 + ^ .ra: .cfa -24 + ^ x29: .cfa -32 + ^
STACK CFI 47878 .cfa: sp 80 +
STACK CFI 47884 .cfa: sp 0 +
STACK CFI 47888 .cfa: x29 32 +
STACK CFI INIT 479cc 66c .cfa: sp 0 +
STACK CFI 479d0 .cfa: sp 224 +
STACK CFI 479ec .cfa: x29 96 + x19: .cfa -8 + ^ x20: .cfa -16 + ^ x21: .cfa -24 + ^ x22: .cfa -32 + ^ x23: .cfa -40 + ^ x24: .cfa -48 + ^ x25: .cfa -56 + ^ x26: .cfa -64 + ^ x27: .cfa -80 + ^ .ra: .cfa -88 + ^ x29: .cfa -96 + ^
STACK CFI 47b18 .cfa: sp 224 +
STACK CFI 47b34 .cfa: sp 0 +
STACK CFI 47b38 .cfa: x29 96 +
STACK CFI 47ef8 .cfa: sp 224 +
STACK CFI 47f14 .cfa: sp 0 +
STACK CFI 47f18 .cfa: x29 96 +
STACK CFI INIT 48054 18c .cfa: sp 0 +
STACK CFI 48058 .cfa: sp 112 +
STACK CFI 48068 .cfa: x29 48 + x19: .cfa -8 + ^ x20: .cfa -16 + ^ x21: .cfa -32 + ^ .ra: .cfa -40 + ^ x29: .cfa -48 + ^
STACK CFI 48138 .cfa: sp 112 +
STACK CFI 48148 .cfa: sp 0 +
STACK CFI 4814c .cfa: x29 48 +
STACK CFI INIT 481e4 1090 .cfa: sp 0 +
STACK CFI 481e8 .cfa: sp 240 +
STACK CFI 48204 .cfa: x29 96 + x19: .cfa -8 + ^ x20: .cfa -16 + ^ x21: .cfa -24 + ^ x22: .cfa -32 + ^ x23: .cfa -40 + ^ x24: .cfa -48 + ^ x25: .cfa -56 + ^ x26: .cfa -64 + ^ x27: .cfa -80 + ^ .ra: .cfa -88 + ^ x29: .cfa -96 + ^
STACK CFI 48f30 .cfa: sp 240 +
STACK CFI 48f4c .cfa: sp 0 +
STACK CFI 48f50 .cfa: x29 96 +
STACK CFI INIT 49278 184 .cfa: sp 0 +
STACK CFI 4927c .cfa: sp 160 +
STACK CFI 49294 .cfa: x29 80 + x19: .cfa -8 + ^ x20: .cfa -16 + ^ x21: .cfa -24 + ^ x22: .cfa -32 + ^ x23: .cfa -40 + ^ x24: .cfa -48 + ^ x25: .cfa -64 + ^ .ra: .cfa -72 + ^ x29: .cfa -80 + ^
STACK CFI 49390 .cfa: sp 160 +
STACK CFI 493a8 .cfa: sp 0 +
STACK CFI 493ac .cfa: x29 80 +
STACK CFI INIT 493fc 9d4 .cfa: sp 0 +
STACK CFI 49400 .cfa: sp 112 +
STACK CFI 4941c .cfa: x29 96 + x19: .cfa -8 + ^ x20: .cfa -16 + ^ x21: .cfa -24 + ^ x22: .cfa -32 + ^ x23: .cfa -40 + ^ x24: .cfa -48 + ^ x25: .cfa -56 + ^ x26: .cfa -64 + ^ x27: .cfa -72 + ^ x28: .cfa -80 + ^ .ra: .cfa -88 + ^ x29: .cfa -96 + ^ v8: .cfa -112 + ^
STACK CFI 49ca8 .cfa: sp 112 +
STACK CFI 49cc4 .cfa: sp 0 +
STACK CFI 49cc8 .cfa: x29 96 +
STACK CFI INIT 49e14 bc .cfa: sp 0 +
STACK CFI 49e18 .cfa: sp 80 +
STACK CFI 49e24 .cfa: x29 32 + x19: .cfa -8 + ^ x20: .cfa -16 + ^ .ra: .cfa -24 + ^ x29: .cfa -32 + ^
STACK CFI 49e90 .cfa: sp 80 +
STACK CFI 49e9c .cfa: sp 0 +
STACK CFI 49ea0 .cfa: x29 32 +
STACK CFI INIT 49ed0 66c .cfa: sp 0 +
STACK CFI 49ed4 .cfa: sp 224 +
STACK CFI 49ef0 .cfa: x29 96 + x19: .cfa -8 + ^ x20: .cfa -16 + ^ x21: .cfa -24 + ^ x22: .cfa -32 + ^ x23: .cfa -40 + ^ x24: .cfa -48 + ^ x25: .cfa -56 + ^ x26: .cfa -64 + ^ x27: .cfa -80 + ^ .ra: .cfa -88 + ^ x29: .cfa -96 + ^
STACK CFI 4a01c .cfa: sp 224 +
STACK CFI 4a038 .cfa: sp 0 +
STACK CFI 4a03c .cfa: x29 96 +
STACK CFI 4a3fc .cfa: sp 224 +
STACK CFI 4a418 .cfa: sp 0 +
STACK CFI 4a41c .cfa: x29 96 +
STACK CFI INIT 4a558 a3c .cfa: sp 0 +
STACK CFI 4a55c .cfa: sp 208 +
STACK CFI 4a57c .cfa: x29 96 + x19: .cfa -8 + ^ x20: .cfa -16 + ^ x21: .cfa -24 + ^ x22: .cfa -32 + ^ x23: .cfa -40 + ^ x24: .cfa -48 + ^ x25: .cfa -56 + ^ x26: .cfa -64 + ^ x27: .cfa -72 + ^ x28: .cfa -80 + ^ .ra: .cfa -88 + ^ x29: .cfa -96 + ^ v8: .cfa -112 + ^
STACK CFI 4af0c .cfa: sp 208 +
STACK CFI 4af2c .cfa: sp 0 +
STACK CFI 4af30 .cfa: x29 96 +
STACK CFI INIT 4afd8 36c .cfa: sp 0 +
STACK CFI 4afdc .cfa: sp 208 +
STACK CFI 4aff0 .cfa: x29 64 + x19: .cfa -8 + ^ x20: .cfa -16 + ^ x21: .cfa -24 + ^ x22: .cfa -32 + ^ x23: .cfa -48 + ^ .ra: .cfa -56 + ^ x29: .cfa -64 + ^
STACK CFI 4b220 .cfa: sp 208 +
STACK CFI 4b234 .cfa: sp 0 +
STACK CFI 4b238 .cfa: x29 64 +
STACK CFI INIT 4b348 144 .cfa: sp 0 +
STACK CFI 4b34c .cfa: sp 112 +
STACK CFI 4b364 .cfa: x29 80 + x19: .cfa -8 + ^ x20: .cfa -16 + ^ x21: .cfa -24 + ^ x22: .cfa -32 + ^ x23: .cfa -40 + ^ x24: .cfa -48 + ^ x25: .cfa -64 + ^ .ra: .cfa -72 + ^ x29: .cfa -80 + ^
STACK CFI 4b420 .cfa: sp 112 +
STACK CFI 4b438 .cfa: sp 0 +
STACK CFI 4b43c .cfa: x29 80 +
STACK CFI INIT 4b48c bc .cfa: sp 0 +
STACK CFI 4b490 .cfa: sp 80 +
STACK CFI 4b49c .cfa: x29 32 + x19: .cfa -8 + ^ x20: .cfa -16 + ^ .ra: .cfa -24 + ^ x29: .cfa -32 + ^
STACK CFI 4b508 .cfa: sp 80 +
STACK CFI 4b514 .cfa: sp 0 +
STACK CFI 4b518 .cfa: x29 32 +
STACK CFI INIT 4b548 1e68 .cfa: sp 0 +
STACK CFI 4b54c .cfa: sp 416 +
STACK CFI 4b570 .cfa: x29 96 + x19: .cfa -8 + ^ x20: .cfa -16 + ^ x21: .cfa -24 + ^ x22: .cfa -32 + ^ x23: .cfa -40 + ^ x24: .cfa -48 + ^ x25: .cfa -56 + ^ x26: .cfa -64 + ^ x27: .cfa -72 + ^ x28: .cfa -80 + ^ .ra: .cfa -88 + ^ x29: .cfa -96 + ^ v8: .cfa -104 + ^ v9: .cfa -112 + ^ v10: .cfa -128 + ^
STACK CFI 4d29c .cfa: sp 416 +
STACK CFI 4d2c0 .cfa: sp 0 +
STACK CFI 4d2c4 .cfa: x29 96 +
STACK CFI INIT 4d590 668 .cfa: sp 0 +
STACK CFI 4d594 .cfa: sp 224 +
STACK CFI 4d5b0 .cfa: x29 96 + x19: .cfa -8 + ^ x20: .cfa -16 + ^ x21: .cfa -24 + ^ x22: .cfa -32 + ^ x23: .cfa -40 + ^ x24: .cfa -48 + ^ x25: .cfa -56 + ^ x26: .cfa -64 + ^ x27: .cfa -80 + ^ .ra: .cfa -88 + ^ x29: .cfa -96 + ^
STACK CFI 4d6d8 .cfa: sp 224 +
STACK CFI 4d6f4 .cfa: sp 0 +
STACK CFI 4d6f8 .cfa: x29 96 +
STACK CFI 4dab8 .cfa: sp 224 +
STACK CFI 4dad4 .cfa: sp 0 +
STACK CFI 4dad8 .cfa: x29 96 +
STACK CFI INIT 4dc14 1bc .cfa: sp 0 +
STACK CFI 4dc18 .cfa: sp 128 +
STACK CFI 4dc24 .cfa: x29 32 + x19: .cfa -8 + ^ x20: .cfa -16 + ^ .ra: .cfa -24 + ^ x29: .cfa -32 + ^
STACK CFI 4dd6c .cfa: sp 128 +
STACK CFI 4dd78 .cfa: sp 0 +
STACK CFI 4dd7c .cfa: x29 32 +
STACK CFI INIT 4df2c 360 .cfa: sp 0 +
STACK CFI 4df30 .cfa: sp 208 +
STACK CFI 4df44 .cfa: x29 64 + x19: .cfa -8 + ^ x20: .cfa -16 + ^ x21: .cfa -24 + ^ x22: .cfa -32 + ^ x23: .cfa -40 + ^ x24: .cfa -48 + ^ .ra: .cfa -56 + ^ x29: .cfa -64 + ^
STACK CFI 4e168 .cfa: sp 208 +
STACK CFI 4e17c .cfa: sp 0 +
STACK CFI 4e180 .cfa: x29 64 +
STACK CFI INIT 4e290 138 .cfa: sp 0 +
STACK CFI 4e294 .cfa: sp 112 +
STACK CFI 4e2a8 .cfa: x29 64 + x19: .cfa -8 + ^ x20: .cfa -16 + ^ x21: .cfa -24 + ^ x22: .cfa -32 + ^ x23: .cfa -48 + ^ .ra: .cfa -56 + ^ x29: .cfa -64 + ^
STACK CFI 4e360 .cfa: sp 112 +
STACK CFI 4e374 .cfa: sp 0 +
STACK CFI 4e378 .cfa: x29 64 +
STACK CFI INIT 4e3c8 b4 .cfa: sp 0 +
STACK CFI 4e3cc .cfa: sp 80 +
STACK CFI 4e3d8 .cfa: x29 32 + x19: .cfa -8 + ^ x20: .cfa -16 + ^ .ra: .cfa -24 + ^ x29: .cfa -32 + ^
STACK CFI 4e43c .cfa: sp 80 +
STACK CFI 4e448 .cfa: sp 0 +
STACK CFI 4e44c .cfa: x29 32 +
STACK CFI INIT 4e47c 1e98 .cfa: sp 0 +
STACK CFI 4e480 .cfa: sp 320 +
STACK CFI 4e4a4 .cfa: x29 96 + x19: .cfa -8 + ^ x20: .cfa -16 + ^ x21: .cfa -24 + ^ x22: .cfa -32 + ^ x23: .cfa -40 + ^ x24: .cfa -48 + ^ x25: .cfa -56 + ^ x26: .cfa -64 + ^ x27: .cfa -72 + ^ x28: .cfa -80 + ^ .ra: .cfa -88 + ^ x29: .cfa -96 + ^ v8: .cfa -104 + ^ v9: .cfa -112 + ^ v10: .cfa -120 + ^ v11: .cfa -128 + ^
STACK CFI 5025c .cfa: sp 320 +
STACK CFI 50280 .cfa: sp 0 +
STACK CFI 50284 .cfa: x29 96 +
STACK CFI INIT 50314 37c .cfa: sp 0 +
STACK CFI 50318 .cfa: sp 160 +
STACK CFI 50334 .cfa: x29 96 + x19: .cfa -8 + ^ x20: .cfa -16 + ^ x21: .cfa -24 + ^ x22: .cfa -32 + ^ x23: .cfa -40 + ^ x24: .cfa -48 + ^ x25: .cfa -56 + ^ x26: .cfa -64 + ^ x27: .cfa -72 + ^ x28: .cfa -80 + ^ .ra: .cfa -88 + ^ x29: .cfa -96 + ^
STACK CFI 50624 .cfa: sp 160 +
STACK CFI 50640 .cfa: sp 0 +
STACK CFI 50644 .cfa: x29 96 +
STACK CFI INIT 50690 354 .cfa: sp 0 +
STACK CFI 50694 .cfa: sp 160 +
STACK CFI 506b0 .cfa: x29 96 + x19: .cfa -8 + ^ x20: .cfa -16 + ^ x21: .cfa -24 + ^ x22: .cfa -32 + ^ x23: .cfa -40 + ^ x24: .cfa -48 + ^ x25: .cfa -56 + ^ x26: .cfa -64 + ^ x27: .cfa -72 + ^ x28: .cfa -80 + ^ .ra: .cfa -88 + ^ x29: .cfa -96 + ^
STACK CFI 50964 .cfa: sp 160 +
STACK CFI 50980 .cfa: sp 0 +
STACK CFI 50984 .cfa: x29 96 +
STACK CFI INIT 509e4 350 .cfa: sp 0 +
STACK CFI 509e8 .cfa: sp 144 +
STACK CFI 50a04 .cfa: x29 96 + x19: .cfa -8 + ^ x20: .cfa -16 + ^ x21: .cfa -24 + ^ x22: .cfa -32 + ^ x23: .cfa -40 + ^ x24: .cfa -48 + ^ x25: .cfa -56 + ^ x26: .cfa -64 + ^ x27: .cfa -72 + ^ x28: .cfa -80 + ^ .ra: .cfa -88 + ^ x29: .cfa -96 + ^
STACK CFI 50cc8 .cfa: sp 144 +
STACK CFI 50ce4 .cfa: sp 0 +
STACK CFI 50ce8 .cfa: x29 96 +
STACK CFI INIT 50d34 668 .cfa: sp 0 +
STACK CFI 50d38 .cfa: sp 224 +
STACK CFI 50d54 .cfa: x29 96 + x19: .cfa -8 + ^ x20: .cfa -16 + ^ x21: .cfa -24 + ^ x22: .cfa -32 + ^ x23: .cfa -40 + ^ x24: .cfa -48 + ^ x25: .cfa -56 + ^ x26: .cfa -64 + ^ x27: .cfa -80 + ^ .ra: .cfa -88 + ^ x29: .cfa -96 + ^
STACK CFI 50e7c .cfa: sp 224 +
STACK CFI 50e98 .cfa: sp 0 +
STACK CFI 50e9c .cfa: x29 96 +
STACK CFI 5125c .cfa: sp 224 +
STACK CFI 51278 .cfa: sp 0 +
STACK CFI 5127c .cfa: x29 96 +
STACK CFI INIT 513b8 19c .cfa: sp 0 +
STACK CFI 513bc .cfa: sp 128 +
STACK CFI 513cc .cfa: x29 48 + x19: .cfa -8 + ^ x20: .cfa -16 + ^ x21: .cfa -32 + ^ .ra: .cfa -40 + ^ x29: .cfa -48 + ^
STACK CFI 514ec .cfa: sp 128 +
STACK CFI 514fc .cfa: sp 0 +
STACK CFI 51500 .cfa: x29 48 +
STACK CFI INIT 516b0 360 .cfa: sp 0 +
STACK CFI 516b4 .cfa: sp 208 +
STACK CFI 516cc .cfa: x29 80 + x19: .cfa -8 + ^ x20: .cfa -16 + ^ x21: .cfa -24 + ^ x22: .cfa -32 + ^ x23: .cfa -40 + ^ x24: .cfa -48 + ^ x25: .cfa -64 + ^ .ra: .cfa -72 + ^ x29: .cfa -80 + ^
STACK CFI 518e8 .cfa: sp 208 +
STACK CFI 51900 .cfa: sp 0 +
STACK CFI 51904 .cfa: x29 80 +
STACK CFI INIT 51a14 134 .cfa: sp 0 +
STACK CFI 51a18 .cfa: sp 96 +
STACK CFI 51a2c .cfa: x29 64 + x19: .cfa -8 + ^ x20: .cfa -16 + ^ x21: .cfa -24 + ^ x22: .cfa -32 + ^ x23: .cfa -40 + ^ x24: .cfa -48 + ^ .ra: .cfa -56 + ^ x29: .cfa -64 + ^
STACK CFI 51ae0 .cfa: sp 96 +
STACK CFI 51af4 .cfa: sp 0 +
STACK CFI 51af8 .cfa: x29 64 +
STACK CFI INIT 51b48 b8 .cfa: sp 0 +
STACK CFI 51b4c .cfa: sp 80 +
STACK CFI 51b58 .cfa: x29 32 + x19: .cfa -8 + ^ x20: .cfa -16 + ^ .ra: .cfa -24 + ^ x29: .cfa -32 + ^
STACK CFI 51bc0 .cfa: sp 80 +
STACK CFI 51bcc .cfa: sp 0 +
STACK CFI 51bd0 .cfa: x29 32 +
STACK CFI INIT 51c00 560 .cfa: sp 0 +
STACK CFI 51c04 .cfa: sp 224 +
STACK CFI 51c20 .cfa: x29 96 + x19: .cfa -8 + ^ x20: .cfa -16 + ^ x21: .cfa -24 + ^ x22: .cfa -32 + ^ x23: .cfa -40 + ^ x24: .cfa -48 + ^ x25: .cfa -56 + ^ x26: .cfa -64 + ^ x27: .cfa -80 + ^ .ra: .cfa -88 + ^ x29: .cfa -96 + ^
STACK CFI 51f64 .cfa: sp 224 +
STACK CFI 51f80 .cfa: sp 0 +
STACK CFI 51f84 .cfa: x29 96 +
STACK CFI 52050 .cfa: sp 224 +
STACK CFI 5206c .cfa: sp 0 +
STACK CFI 52070 .cfa: x29 96 +
STACK CFI INIT 52190 1384 .cfa: sp 0 +
STACK CFI 52194 .cfa: sp 96 +
STACK CFI 521ac .cfa: x29 96 + x19: .cfa -8 + ^ x20: .cfa -16 + ^ x21: .cfa -24 + ^ x22: .cfa -32 + ^ x23: .cfa -40 + ^ x24: .cfa -48 + ^ x25: .cfa -56 + ^ x26: .cfa -64 + ^ x27: .cfa -72 + ^ x28: .cfa -80 + ^ .ra: .cfa -88 + ^ x29: .cfa -96 + ^
STACK CFI 53360 .cfa: sp 96 +
STACK CFI 53378 .cfa: sp 0 +
STACK CFI 5337c .cfa: x29 96 +
STACK CFI INIT 53558 600 .cfa: sp 0 +
STACK CFI 5355c .cfa: sp 256 +
STACK CFI 53574 .cfa: x29 80 + x19: .cfa -8 + ^ x20: .cfa -16 + ^ x21: .cfa -24 + ^ x22: .cfa -32 + ^ x23: .cfa -40 + ^ x24: .cfa -48 + ^ x25: .cfa -56 + ^ x26: .cfa -64 + ^ .ra: .cfa -72 + ^ x29: .cfa -80 + ^
STACK CFI 53998 .cfa: sp 256 +
STACK CFI 539b0 .cfa: sp 0 +
STACK CFI 539b4 .cfa: x29 80 +
STACK CFI INIT 53b5c 248 .cfa: sp 0 +
STACK CFI 53b60 .cfa: sp 144 +
STACK CFI 53b74 .cfa: x29 64 + x19: .cfa -8 + ^ x20: .cfa -16 + ^ x21: .cfa -24 + ^ x22: .cfa -32 + ^ x23: .cfa -40 + ^ x24: .cfa -48 + ^ .ra: .cfa -56 + ^ x29: .cfa -64 + ^
STACK CFI 53d28 .cfa: sp 144 +
STACK CFI 53d3c .cfa: sp 0 +
STACK CFI 53d40 .cfa: x29 64 +
STACK CFI INIT 53da4 130 .cfa: sp 0 +
STACK CFI 53da8 .cfa: sp 96 +
STACK CFI 53dbc .cfa: x29 64 + x19: .cfa -8 + ^ x20: .cfa -16 + ^ x21: .cfa -24 + ^ x22: .cfa -32 + ^ x23: .cfa -40 + ^ x24: .cfa -48 + ^ .ra: .cfa -56 + ^ x29: .cfa -64 + ^
STACK CFI 53e6c .cfa: sp 96 +
STACK CFI 53e80 .cfa: sp 0 +
STACK CFI 53e84 .cfa: x29 64 +
STACK CFI INIT 53ed4 684 .cfa: sp 0 +
STACK CFI 53ed8 .cfa: sp 160 +
STACK CFI 53ef4 .cfa: x29 96 + x19: .cfa -8 + ^ x20: .cfa -16 + ^ x21: .cfa -24 + ^ x22: .cfa -32 + ^ x23: .cfa -40 + ^ x24: .cfa -48 + ^ x25: .cfa -56 + ^ x26: .cfa -64 + ^ x27: .cfa -72 + ^ x28: .cfa -80 + ^ .ra: .cfa -88 + ^ x29: .cfa -96 + ^
STACK CFI 544a4 .cfa: sp 160 +
STACK CFI 544c0 .cfa: sp 0 +
STACK CFI 544c4 .cfa: x29 96 +
STACK CFI INIT 54558 a8 .cfa: sp 0 +
STACK CFI 5455c .cfa: sp 32 +
STACK CFI 54564 .cfa: x29 32 + x19: .cfa -16 + ^ .ra: .cfa -24 + ^ x29: .cfa -32 + ^
STACK CFI 54598 .cfa: sp 32 +
STACK CFI 545a0 .cfa: sp 0 +
STACK CFI 545a4 .cfa: x29 32 +
STACK CFI 545a8 .cfa: sp 32 +
STACK CFI 545b0 .cfa: sp 0 +
STACK CFI 545b4 .cfa: x29 32 +
STACK CFI INIT 54690 a8 .cfa: sp 0 +
STACK CFI 54694 .cfa: sp 32 +
STACK CFI 5469c .cfa: x29 32 + x19: .cfa -16 + ^ .ra: .cfa -24 + ^ x29: .cfa -32 + ^
STACK CFI 546d0 .cfa: sp 32 +
STACK CFI 546d8 .cfa: sp 0 +
STACK CFI 546dc .cfa: x29 32 +
STACK CFI 546e0 .cfa: sp 32 +
STACK CFI 546e8 .cfa: sp 0 +
STACK CFI 546ec .cfa: x29 32 +
STACK CFI INIT 54738 bc .cfa: sp 0 +
STACK CFI 5473c .cfa: sp 80 +
STACK CFI 54748 .cfa: x29 32 + x19: .cfa -8 + ^ x20: .cfa -16 + ^ .ra: .cfa -24 + ^ x29: .cfa -32 + ^
STACK CFI 547b4 .cfa: sp 80 +
STACK CFI 547c0 .cfa: sp 0 +
STACK CFI 547c4 .cfa: x29 32 +
STACK CFI INIT 547f4 668 .cfa: sp 0 +
STACK CFI 547f8 .cfa: sp 224 +
STACK CFI 54814 .cfa: x29 96 + x19: .cfa -8 + ^ x20: .cfa -16 + ^ x21: .cfa -24 + ^ x22: .cfa -32 + ^ x23: .cfa -40 + ^ x24: .cfa -48 + ^ x25: .cfa -56 + ^ x26: .cfa -64 + ^ x27: .cfa -80 + ^ .ra: .cfa -88 + ^ x29: .cfa -96 + ^
STACK CFI 5493c .cfa: sp 224 +
STACK CFI 54958 .cfa: sp 0 +
STACK CFI 5495c .cfa: x29 96 +
STACK CFI 54d1c .cfa: sp 224 +
STACK CFI 54d38 .cfa: sp 0 +
STACK CFI 54d3c .cfa: x29 96 +
STACK CFI INIT 54e78 878 .cfa: sp 0 +
STACK CFI 54e7c .cfa: sp 176 +
STACK CFI 54e98 .cfa: x29 96 + x19: .cfa -8 + ^ x20: .cfa -16 + ^ x21: .cfa -24 + ^ x22: .cfa -32 + ^ x23: .cfa -40 + ^ x24: .cfa -48 + ^ x25: .cfa -56 + ^ x26: .cfa -64 + ^ x27: .cfa -80 + ^ .ra: .cfa -88 + ^ x29: .cfa -96 + ^
STACK CFI 55648 .cfa: sp 176 +
STACK CFI 55664 .cfa: sp 0 +
STACK CFI 55668 .cfa: x29 96 +
STACK CFI INIT 55734 cb8 .cfa: sp 0 +
STACK CFI 55738 .cfa: sp 256 +
STACK CFI 55754 .cfa: x29 96 + x19: .cfa -8 + ^ x20: .cfa -16 + ^ x21: .cfa -24 + ^ x22: .cfa -32 + ^ x23: .cfa -40 + ^ x24: .cfa -48 + ^ x25: .cfa -56 + ^ x26: .cfa -64 + ^ x27: .cfa -80 + ^ .ra: .cfa -88 + ^ x29: .cfa -96 + ^
STACK CFI 56128 .cfa: sp 256 +
STACK CFI 56144 .cfa: sp 0 +
STACK CFI 56148 .cfa: x29 96 +
STACK CFI INIT 563f0 1f0 .cfa: sp 0 +
STACK CFI 563f4 .cfa: sp 144 +
STACK CFI 56414 .cfa: x29 72 + x19: .cfa -8 + ^ x20: .cfa -16 + ^ x21: .cfa -24 + ^ x22: .cfa -32 + ^ x23: .cfa -40 + ^ x24: .cfa -48 + ^ x25: .cfa -56 + ^ .ra: .cfa -64 + ^ x29: .cfa -72 + ^ v8: .cfa -80 + ^ v9: .cfa -88 + ^ v10: .cfa -96 + ^
STACK CFI 5654c .cfa: sp 144 +
STACK CFI 5656c .cfa: sp 0 +
STACK CFI 56570 .cfa: x29 72 +
STACK CFI INIT 565e0 c0 .cfa: sp 0 +
STACK CFI 565e4 .cfa: sp 80 +
STACK CFI 565f0 .cfa: x29 32 + x19: .cfa -8 + ^ x20: .cfa -16 + ^ .ra: .cfa -24 + ^ x29: .cfa -32 + ^
STACK CFI 56660 .cfa: sp 80 +
STACK CFI 5666c .cfa: sp 0 +
STACK CFI 56670 .cfa: x29 32 +
STACK CFI INIT 567b8 678 .cfa: sp 0 +
STACK CFI 567bc .cfa: sp 224 +
STACK CFI 567d8 .cfa: x29 96 + x19: .cfa -8 + ^ x20: .cfa -16 + ^ x21: .cfa -24 + ^ x22: .cfa -32 + ^ x23: .cfa -40 + ^ x24: .cfa -48 + ^ x25: .cfa -56 + ^ x26: .cfa -64 + ^ x27: .cfa -80 + ^ .ra: .cfa -88 + ^ x29: .cfa -96 + ^
STACK CFI 56910 .cfa: sp 224 +
STACK CFI 5692c .cfa: sp 0 +
STACK CFI 56930 .cfa: x29 96 +
STACK CFI 56cf0 .cfa: sp 224 +
STACK CFI 56d0c .cfa: sp 0 +
STACK CFI 56d10 .cfa: x29 96 +
STACK CFI INIT 56e4c 704 .cfa: sp 0 +
STACK CFI 56e50 .cfa: sp 192 +
STACK CFI 56e68 .cfa: x29 80 + x19: .cfa -8 + ^ x20: .cfa -16 + ^ x21: .cfa -24 + ^ x22: .cfa -32 + ^ x23: .cfa -40 + ^ x24: .cfa -48 + ^ x25: .cfa -64 + ^ .ra: .cfa -72 + ^ x29: .cfa -80 + ^
STACK CFI 574d8 .cfa: sp 192 +
STACK CFI 574f0 .cfa: sp 0 +
STACK CFI 574f4 .cfa: x29 80 +
STACK CFI INIT 57594 380 .cfa: sp 0 +
STACK CFI 57598 .cfa: sp 240 +
STACK CFI 575ac .cfa: x29 64 + x19: .cfa -8 + ^ x20: .cfa -16 + ^ x21: .cfa -24 + ^ x22: .cfa -32 + ^ x23: .cfa -40 + ^ x24: .cfa -48 + ^ .ra: .cfa -56 + ^ x29: .cfa -64 + ^
STACK CFI 577e8 .cfa: sp 240 +
STACK CFI 577fc .cfa: sp 0 +
STACK CFI 57800 .cfa: x29 64 +
STACK CFI INIT 57918 148 .cfa: sp 0 +
STACK CFI 5791c .cfa: sp 112 +
STACK CFI 57930 .cfa: x29 64 + x19: .cfa -8 + ^ x20: .cfa -16 + ^ x21: .cfa -24 + ^ x22: .cfa -32 + ^ x23: .cfa -48 + ^ .ra: .cfa -56 + ^ x29: .cfa -64 + ^
STACK CFI 579f8 .cfa: sp 112 +
STACK CFI 57a0c .cfa: sp 0 +
STACK CFI 57a10 .cfa: x29 64 +
STACK CFI INIT 57a60 bc .cfa: sp 0 +
STACK CFI 57a64 .cfa: sp 80 +
STACK CFI 57a70 .cfa: x29 32 + x19: .cfa -8 + ^ x20: .cfa -16 + ^ .ra: .cfa -24 + ^ x29: .cfa -32 + ^
STACK CFI 57adc .cfa: sp 80 +
STACK CFI 57ae8 .cfa: sp 0 +
STACK CFI 57aec .cfa: x29 32 +
STACK CFI INIT 57c34 678 .cfa: sp 0 +
STACK CFI 57c38 .cfa: sp 224 +
STACK CFI 57c54 .cfa: x29 96 + x19: .cfa -8 + ^ x20: .cfa -16 + ^ x21: .cfa -24 + ^ x22: .cfa -32 + ^ x23: .cfa -40 + ^ x24: .cfa -48 + ^ x25: .cfa -56 + ^ x26: .cfa -64 + ^ x27: .cfa -80 + ^ .ra: .cfa -88 + ^ x29: .cfa -96 + ^
STACK CFI 57d8c .cfa: sp 224 +
STACK CFI 57da8 .cfa: sp 0 +
STACK CFI 57dac .cfa: x29 96 +
STACK CFI 5816c .cfa: sp 224 +
STACK CFI 58188 .cfa: sp 0 +
STACK CFI 5818c .cfa: x29 96 +
STACK CFI INIT 582c8 a90 .cfa: sp 0 +
STACK CFI 582cc .cfa: sp 192 +
STACK CFI 582e8 .cfa: x29 72 + x19: .cfa -8 + ^ x20: .cfa -16 + ^ x21: .cfa -24 + ^ x22: .cfa -32 + ^ x23: .cfa -40 + ^ x24: .cfa -48 + ^ x25: .cfa -56 + ^ .ra: .cfa -64 + ^ x29: .cfa -72 + ^ v8: .cfa -80 + ^
STACK CFI 58cd0 .cfa: sp 192 +
STACK CFI 58cec .cfa: sp 0 +
STACK CFI 58cf0 .cfa: x29 72 +
STACK CFI INIT 58d9c 380 .cfa: sp 0 +
STACK CFI 58da0 .cfa: sp 224 +
STACK CFI 58db4 .cfa: x29 64 + x19: .cfa -8 + ^ x20: .cfa -16 + ^ x21: .cfa -24 + ^ x22: .cfa -32 + ^ x23: .cfa -40 + ^ x24: .cfa -48 + ^ .ra: .cfa -56 + ^ x29: .cfa -64 + ^
STACK CFI 58ff0 .cfa: sp 224 +
STACK CFI 59004 .cfa: sp 0 +
STACK CFI 59008 .cfa: x29 64 +
STACK CFI INIT 59120 148 .cfa: sp 0 +
STACK CFI 59124 .cfa: sp 112 +
STACK CFI 59138 .cfa: x29 64 + x19: .cfa -8 + ^ x20: .cfa -16 + ^ x21: .cfa -24 + ^ x22: .cfa -32 + ^ x23: .cfa -48 + ^ .ra: .cfa -56 + ^ x29: .cfa -64 + ^
STACK CFI 59200 .cfa: sp 112 +
STACK CFI 59214 .cfa: sp 0 +
STACK CFI 59218 .cfa: x29 64 +
STACK CFI INIT 59268 bc .cfa: sp 0 +
STACK CFI 5926c .cfa: sp 80 +
STACK CFI 59278 .cfa: x29 32 + x19: .cfa -8 + ^ x20: .cfa -16 + ^ .ra: .cfa -24 + ^ x29: .cfa -32 + ^
STACK CFI 592e4 .cfa: sp 80 +
STACK CFI 592f0 .cfa: sp 0 +
STACK CFI 592f4 .cfa: x29 32 +
STACK CFI INIT 59324 678 .cfa: sp 0 +
STACK CFI 59328 .cfa: sp 224 +
STACK CFI 59344 .cfa: x29 96 + x19: .cfa -8 + ^ x20: .cfa -16 + ^ x21: .cfa -24 + ^ x22: .cfa -32 + ^ x23: .cfa -40 + ^ x24: .cfa -48 + ^ x25: .cfa -56 + ^ x26: .cfa -64 + ^ x27: .cfa -80 + ^ .ra: .cfa -88 + ^ x29: .cfa -96 + ^
STACK CFI 5947c .cfa: sp 224 +
STACK CFI 59498 .cfa: sp 0 +
STACK CFI 5949c .cfa: x29 96 +
STACK CFI 5985c .cfa: sp 224 +
STACK CFI 59878 .cfa: sp 0 +
STACK CFI 5987c .cfa: x29 96 +
STACK CFI INIT 599b8 234 .cfa: sp 0 +
STACK CFI 599bc .cfa: sp 128 +
STACK CFI 599c8 .cfa: x29 32 + x19: .cfa -8 + ^ x20: .cfa -16 + ^ .ra: .cfa -24 + ^ x29: .cfa -32 + ^
STACK CFI 59b88 .cfa: sp 128 +
STACK CFI 59b94 .cfa: sp 0 +
STACK CFI 59b98 .cfa: x29 32 +
STACK CFI INIT 59c30 420 .cfa: sp 0 +
STACK CFI 59c34 .cfa: sp 256 +
STACK CFI 59c48 .cfa: x29 64 + x19: .cfa -8 + ^ x20: .cfa -16 + ^ x21: .cfa -24 + ^ x22: .cfa -32 + ^ x23: .cfa -40 + ^ x24: .cfa -48 + ^ .ra: .cfa -56 + ^ x29: .cfa -64 + ^
STACK CFI 59f14 .cfa: sp 256 +
STACK CFI 59f28 .cfa: sp 0 +
STACK CFI 59f2c .cfa: x29 64 +
STACK CFI INIT 5a054 14c .cfa: sp 0 +
STACK CFI 5a058 .cfa: sp 112 +
STACK CFI 5a06c .cfa: x29 64 + x19: .cfa -8 + ^ x20: .cfa -16 + ^ x21: .cfa -24 + ^ x22: .cfa -32 + ^ x23: .cfa -48 + ^ .ra: .cfa -56 + ^ x29: .cfa -64 + ^
STACK CFI 5a138 .cfa: sp 112 +
STACK CFI 5a14c .cfa: sp 0 +
STACK CFI 5a150 .cfa: x29 64 +
STACK CFI INIT 5a1a0 bc .cfa: sp 0 +
STACK CFI 5a1a4 .cfa: sp 80 +
STACK CFI 5a1b0 .cfa: x29 32 + x19: .cfa -8 + ^ x20: .cfa -16 + ^ .ra: .cfa -24 + ^ x29: .cfa -32 + ^
STACK CFI 5a21c .cfa: sp 80 +
STACK CFI 5a228 .cfa: sp 0 +
STACK CFI 5a22c .cfa: x29 32 +
STACK CFI INIT 5a25c 668 .cfa: sp 0 +
STACK CFI 5a260 .cfa: sp 224 +
STACK CFI 5a27c .cfa: x29 96 + x19: .cfa -8 + ^ x20: .cfa -16 + ^ x21: .cfa -24 + ^ x22: .cfa -32 + ^ x23: .cfa -40 + ^ x24: .cfa -48 + ^ x25: .cfa -56 + ^ x26: .cfa -64 + ^ x27: .cfa -80 + ^ .ra: .cfa -88 + ^ x29: .cfa -96 + ^
STACK CFI 5a3a4 .cfa: sp 224 +
STACK CFI 5a3c0 .cfa: sp 0 +
STACK CFI 5a3c4 .cfa: x29 96 +
STACK CFI 5a784 .cfa: sp 224 +
STACK CFI 5a7a0 .cfa: sp 0 +
STACK CFI 5a7a4 .cfa: x29 96 +
STACK CFI INIT 5a8e0 2b8 .cfa: sp 0 +
STACK CFI 5a8e4 .cfa: sp 128 +
STACK CFI 5a8f4 .cfa: x29 48 + x19: .cfa -8 + ^ x20: .cfa -16 + ^ x21: .cfa -24 + ^ x22: .cfa -32 + ^ .ra: .cfa -40 + ^ x29: .cfa -48 + ^
STACK CFI 5ab24 .cfa: sp 128 +
STACK CFI 5ab34 .cfa: sp 0 +
STACK CFI 5ab38 .cfa: x29 48 +
STACK CFI INIT 5abdc 3b8 .cfa: sp 0 +
STACK CFI 5abe0 .cfa: sp 240 +
STACK CFI 5abf8 .cfa: x29 80 + x19: .cfa -8 + ^ x20: .cfa -16 + ^ x21: .cfa -24 + ^ x22: .cfa -32 + ^ x23: .cfa -40 + ^ x24: .cfa -48 + ^ x25: .cfa -64 + ^ .ra: .cfa -72 + ^ x29: .cfa -80 + ^
STACK CFI 5ae60 .cfa: sp 240 +
STACK CFI 5ae78 .cfa: sp 0 +
STACK CFI 5ae7c .cfa: x29 80 +
STACK CFI INIT 5af98 1b4 .cfa: sp 0 +
STACK CFI 5af9c .cfa: sp 112 +
STACK CFI 5afb4 .cfa: x29 80 + x19: .cfa -8 + ^ x20: .cfa -16 + ^ x21: .cfa -24 + ^ x22: .cfa -32 + ^ x23: .cfa -40 + ^ x24: .cfa -48 + ^ x25: .cfa -64 + ^ .ra: .cfa -72 + ^ x29: .cfa -80 + ^
STACK CFI 5b0dc .cfa: sp 112 +
STACK CFI 5b0f4 .cfa: sp 0 +
STACK CFI 5b0f8 .cfa: x29 80 +
STACK CFI INIT 5b14c bc .cfa: sp 0 +
STACK CFI 5b150 .cfa: sp 80 +
STACK CFI 5b15c .cfa: x29 32 + x19: .cfa -8 + ^ x20: .cfa -16 + ^ .ra: .cfa -24 + ^ x29: .cfa -32 + ^
STACK CFI 5b1c8 .cfa: sp 80 +
STACK CFI 5b1d4 .cfa: sp 0 +
STACK CFI 5b1d8 .cfa: x29 32 +
STACK CFI INIT 5b348 244 .cfa: sp 0 +
STACK CFI 5b34c .cfa: sp 144 +
STACK CFI 5b368 .cfa: x29 96 + x19: .cfa -8 + ^ x20: .cfa -16 + ^ x21: .cfa -24 + ^ x22: .cfa -32 + ^ x23: .cfa -40 + ^ x24: .cfa -48 + ^ x25: .cfa -56 + ^ x26: .cfa -64 + ^ x27: .cfa -72 + ^ x28: .cfa -80 + ^ .ra: .cfa -88 + ^ x29: .cfa -96 + ^
STACK CFI 5b524 .cfa: sp 144 +
STACK CFI 5b540 .cfa: sp 0 +
STACK CFI 5b544 .cfa: x29 96 +
STACK CFI INIT 5b58c 66c .cfa: sp 0 +
STACK CFI 5b590 .cfa: sp 224 +
STACK CFI 5b5ac .cfa: x29 96 + x19: .cfa -8 + ^ x20: .cfa -16 + ^ x21: .cfa -24 + ^ x22: .cfa -32 + ^ x23: .cfa -40 + ^ x24: .cfa -48 + ^ x25: .cfa -56 + ^ x26: .cfa -64 + ^ x27: .cfa -80 + ^ .ra: .cfa -88 + ^ x29: .cfa -96 + ^
STACK CFI 5b6d8 .cfa: sp 224 +
STACK CFI 5b6f4 .cfa: sp 0 +
STACK CFI 5b6f8 .cfa: x29 96 +
STACK CFI 5bab8 .cfa: sp 224 +
STACK CFI 5bad4 .cfa: sp 0 +
STACK CFI 5bad8 .cfa: x29 96 +
STACK CFI INIT 5bc14 ab0 .cfa: sp 0 +
STACK CFI 5bc18 .cfa: sp 272 +
STACK CFI 5bc38 .cfa: x29 96 + x19: .cfa -8 + ^ x20: .cfa -16 + ^ x21: .cfa -24 + ^ x22: .cfa -32 + ^ x23: .cfa -40 + ^ x24: .cfa -48 + ^ x25: .cfa -56 + ^ x26: .cfa -64 + ^ x27: .cfa -72 + ^ x28: .cfa -80 + ^ .ra: .cfa -88 + ^ x29: .cfa -96 + ^ v8: .cfa -112 + ^
STACK CFI 5c648 .cfa: sp 272 +
STACK CFI 5c668 .cfa: sp 0 +
STACK CFI 5c66c .cfa: x29 96 +
STACK CFI INIT 5c708 634 .cfa: sp 0 +
STACK CFI 5c70c .cfa: sp 256 +
STACK CFI 5c724 .cfa: x29 80 + x19: .cfa -8 + ^ x20: .cfa -16 + ^ x21: .cfa -24 + ^ x22: .cfa -32 + ^ x23: .cfa -40 + ^ x24: .cfa -48 + ^ x25: .cfa -56 + ^ x26: .cfa -64 + ^ .ra: .cfa -72 + ^ x29: .cfa -80 + ^
STACK CFI 5cb6c .cfa: sp 256 +
STACK CFI 5cb84 .cfa: sp 0 +
STACK CFI 5cb88 .cfa: x29 80 +
STACK CFI INIT 5cd40 144 .cfa: sp 0 +
STACK CFI 5cd44 .cfa: sp 112 +
STACK CFI 5cd5c .cfa: x29 80 + x19: .cfa -8 + ^ x20: .cfa -16 + ^ x21: .cfa -24 + ^ x22: .cfa -32 + ^ x23: .cfa -40 + ^ x24: .cfa -48 + ^ x25: .cfa -64 + ^ .ra: .cfa -72 + ^ x29: .cfa -80 + ^
STACK CFI 5ce18 .cfa: sp 112 +
STACK CFI 5ce30 .cfa: sp 0 +
STACK CFI 5ce34 .cfa: x29 80 +
STACK CFI INIT 5cecc a8 .cfa: sp 0 +
STACK CFI 5ced0 .cfa: sp 32 +
STACK CFI 5ced8 .cfa: x29 32 + x19: .cfa -16 + ^ .ra: .cfa -24 + ^ x29: .cfa -32 + ^
STACK CFI 5cf0c .cfa: sp 32 +
STACK CFI 5cf14 .cfa: sp 0 +
STACK CFI 5cf18 .cfa: x29 32 +
STACK CFI 5cf1c .cfa: sp 32 +
STACK CFI 5cf24 .cfa: sp 0 +
STACK CFI 5cf28 .cfa: x29 32 +
STACK CFI INIT 5d028 bc .cfa: sp 0 +
STACK CFI 5d02c .cfa: sp 80 +
STACK CFI 5d038 .cfa: x29 32 + x19: .cfa -8 + ^ x20: .cfa -16 + ^ .ra: .cfa -24 + ^ x29: .cfa -32 + ^
STACK CFI 5d0a4 .cfa: sp 80 +
STACK CFI 5d0b0 .cfa: sp 0 +
STACK CFI 5d0b4 .cfa: x29 32 +
STACK CFI INIT 5d0e4 66c .cfa: sp 0 +
STACK CFI 5d0e8 .cfa: sp 224 +
STACK CFI 5d104 .cfa: x29 96 + x19: .cfa -8 + ^ x20: .cfa -16 + ^ x21: .cfa -24 + ^ x22: .cfa -32 + ^ x23: .cfa -40 + ^ x24: .cfa -48 + ^ x25: .cfa -56 + ^ x26: .cfa -64 + ^ x27: .cfa -80 + ^ .ra: .cfa -88 + ^ x29: .cfa -96 + ^
STACK CFI 5d230 .cfa: sp 224 +
STACK CFI 5d24c .cfa: sp 0 +
STACK CFI 5d250 .cfa: x29 96 +
STACK CFI 5d610 .cfa: sp 224 +
STACK CFI 5d62c .cfa: sp 0 +
STACK CFI 5d630 .cfa: x29 96 +
STACK CFI INIT 5d76c 228 .cfa: sp 0 +
STACK CFI 5d770 .cfa: sp 128 +
STACK CFI 5d780 .cfa: x29 48 + x19: .cfa -8 + ^ x20: .cfa -16 + ^ x21: .cfa -24 + ^ x22: .cfa -32 + ^ .ra: .cfa -40 + ^ x29: .cfa -48 + ^
STACK CFI 5d92c .cfa: sp 128 +
STACK CFI 5d93c .cfa: sp 0 +
STACK CFI 5d940 .cfa: x29 48 +
STACK CFI INIT 5d9d8 3b0 .cfa: sp 0 +
STACK CFI 5d9dc .cfa: sp 208 +
STACK CFI 5d9f0 .cfa: x29 64 + x19: .cfa -8 + ^ x20: .cfa -16 + ^ x21: .cfa -24 + ^ x22: .cfa -32 + ^ x23: .cfa -48 + ^ .ra: .cfa -56 + ^ x29: .cfa -64 + ^
STACK CFI 5dc58 .cfa: sp 208 +
STACK CFI 5dc6c .cfa: sp 0 +
STACK CFI 5dc70 .cfa: x29 64 +
STACK CFI INIT 5dd8c 144 .cfa: sp 0 +
STACK CFI 5dd90 .cfa: sp 112 +
STACK CFI 5dda8 .cfa: x29 80 + x19: .cfa -8 + ^ x20: .cfa -16 + ^ x21: .cfa -24 + ^ x22: .cfa -32 + ^ x23: .cfa -40 + ^ x24: .cfa -48 + ^ x25: .cfa -64 + ^ .ra: .cfa -72 + ^ x29: .cfa -80 + ^
STACK CFI 5de64 .cfa: sp 112 +
STACK CFI 5de7c .cfa: sp 0 +
STACK CFI 5de80 .cfa: x29 80 +
STACK CFI INIT 5ded0 bc .cfa: sp 0 +
STACK CFI 5ded4 .cfa: sp 80 +
STACK CFI 5dee0 .cfa: x29 32 + x19: .cfa -8 + ^ x20: .cfa -16 + ^ .ra: .cfa -24 + ^ x29: .cfa -32 + ^
STACK CFI 5df4c .cfa: sp 80 +
STACK CFI 5df58 .cfa: sp 0 +
STACK CFI 5df5c .cfa: x29 32 +
STACK CFI INIT 5df8c 664 .cfa: sp 0 +
STACK CFI 5df90 .cfa: sp 224 +
STACK CFI 5dfac .cfa: x29 96 + x19: .cfa -8 + ^ x20: .cfa -16 + ^ x21: .cfa -24 + ^ x22: .cfa -32 + ^ x23: .cfa -40 + ^ x24: .cfa -48 + ^ x25: .cfa -56 + ^ x26: .cfa -64 + ^ x27: .cfa -80 + ^ .ra: .cfa -88 + ^ x29: .cfa -96 + ^
STACK CFI 5e0d0 .cfa: sp 224 +
STACK CFI 5e0ec .cfa: sp 0 +
STACK CFI 5e0f0 .cfa: x29 96 +
STACK CFI 5e4b0 .cfa: sp 224 +
STACK CFI 5e4cc .cfa: sp 0 +
STACK CFI 5e4d0 .cfa: x29 96 +
STACK CFI INIT 5e60c 188 .cfa: sp 0 +
STACK CFI 5e610 .cfa: sp 112 +
STACK CFI 5e620 .cfa: x29 48 + x19: .cfa -8 + ^ x20: .cfa -16 + ^ x21: .cfa -32 + ^ .ra: .cfa -40 + ^ x29: .cfa -48 + ^
STACK CFI 5e6e8 .cfa: sp 112 +
STACK CFI 5e6f8 .cfa: sp 0 +
STACK CFI 5e6fc .cfa: x29 48 +
STACK CFI INIT 5e798 400 .cfa: sp 0 +
STACK CFI 5e79c .cfa: sp 208 +
STACK CFI 5e7b0 .cfa: x29 64 + x19: .cfa -8 + ^ x20: .cfa -16 + ^ x21: .cfa -24 + ^ x22: .cfa -32 + ^ x23: .cfa -48 + ^ .ra: .cfa -56 + ^ x29: .cfa -64 + ^
STACK CFI 5ea64 .cfa: sp 208 +
STACK CFI 5ea78 .cfa: sp 0 +
STACK CFI 5ea7c .cfa: x29 64 +
STACK CFI INIT 5eb9c 15c .cfa: sp 0 +
STACK CFI 5eba0 .cfa: sp 96 +
STACK CFI 5ebb4 .cfa: x29 64 + x19: .cfa -8 + ^ x20: .cfa -16 + ^ x21: .cfa -24 + ^ x22: .cfa -32 + ^ x23: .cfa -40 + ^ x24: .cfa -48 + ^ .ra: .cfa -56 + ^ x29: .cfa -64 + ^
STACK CFI 5ec90 .cfa: sp 96 +
STACK CFI 5eca4 .cfa: sp 0 +
STACK CFI 5eca8 .cfa: x29 64 +
STACK CFI INIT 5ecf8 2ec .cfa: sp 0 +
STACK CFI 5ecfc .cfa: sp 128 +
STACK CFI 5ed0c .cfa: x29 48 + x19: .cfa -8 + ^ x20: .cfa -16 + ^ x21: .cfa -24 + ^ x22: .cfa -32 + ^ .ra: .cfa -40 + ^ x29: .cfa -48 + ^
STACK CFI 5ef78 .cfa: sp 128 +
STACK CFI 5ef88 .cfa: sp 0 +
STACK CFI 5ef8c .cfa: x29 48 +
STACK CFI INIT 5f028 c0 .cfa: sp 0 +
STACK CFI 5f02c .cfa: sp 80 +
STACK CFI 5f038 .cfa: x29 32 + x19: .cfa -8 + ^ x20: .cfa -16 + ^ .ra: .cfa -24 + ^ x29: .cfa -32 + ^
STACK CFI 5f0a8 .cfa: sp 80 +
STACK CFI 5f0b4 .cfa: sp 0 +
STACK CFI 5f0b8 .cfa: x29 32 +
STACK CFI INIT 5f200 678 .cfa: sp 0 +
STACK CFI 5f204 .cfa: sp 224 +
STACK CFI 5f220 .cfa: x29 96 + x19: .cfa -8 + ^ x20: .cfa -16 + ^ x21: .cfa -24 + ^ x22: .cfa -32 + ^ x23: .cfa -40 + ^ x24: .cfa -48 + ^ x25: .cfa -56 + ^ x26: .cfa -64 + ^ x27: .cfa -80 + ^ .ra: .cfa -88 + ^ x29: .cfa -96 + ^
STACK CFI 5f358 .cfa: sp 224 +
STACK CFI 5f374 .cfa: sp 0 +
STACK CFI 5f378 .cfa: x29 96 +
STACK CFI 5f738 .cfa: sp 224 +
STACK CFI 5f754 .cfa: sp 0 +
STACK CFI 5f758 .cfa: x29 96 +
STACK CFI INIT 5f894 504 .cfa: sp 0 +
STACK CFI 5f898 .cfa: sp 176 +
STACK CFI 5f8b0 .cfa: x29 80 + x19: .cfa -8 + ^ x20: .cfa -16 + ^ x21: .cfa -24 + ^ x22: .cfa -32 + ^ x23: .cfa -40 + ^ x24: .cfa -48 + ^ x25: .cfa -64 + ^ .ra: .cfa -72 + ^ x29: .cfa -80 + ^
STACK CFI 5fcf8 .cfa: sp 176 +
STACK CFI 5fd10 .cfa: sp 0 +
STACK CFI 5fd14 .cfa: x29 80 +
STACK CFI INIT 5fddc 388 .cfa: sp 0 +
STACK CFI 5fde0 .cfa: sp 256 +
STACK CFI 5fdf4 .cfa: x29 64 + x19: .cfa -8 + ^ x20: .cfa -16 + ^ x21: .cfa -24 + ^ x22: .cfa -32 + ^ x23: .cfa -48 + ^ .ra: .cfa -56 + ^ x29: .cfa -64 + ^
STACK CFI 60038 .cfa: sp 256 +
STACK CFI 6004c .cfa: sp 0 +
STACK CFI 60050 .cfa: x29 64 +
STACK CFI INIT 60168 130 .cfa: sp 0 +
STACK CFI 6016c .cfa: sp 96 +
STACK CFI 60180 .cfa: x29 64 + x19: .cfa -8 + ^ x20: .cfa -16 + ^ x21: .cfa -24 + ^ x22: .cfa -32 + ^ x23: .cfa -40 + ^ x24: .cfa -48 + ^ .ra: .cfa -56 + ^ x29: .cfa -64 + ^
STACK CFI 60230 .cfa: sp 96 +
STACK CFI 60244 .cfa: sp 0 +
STACK CFI 60248 .cfa: x29 64 +
STACK CFI INIT 60298 bc .cfa: sp 0 +
STACK CFI 6029c .cfa: sp 80 +
STACK CFI 602a8 .cfa: x29 32 + x19: .cfa -8 + ^ x20: .cfa -16 + ^ .ra: .cfa -24 + ^ x29: .cfa -32 + ^
STACK CFI 60314 .cfa: sp 80 +
STACK CFI 60320 .cfa: sp 0 +
STACK CFI 60324 .cfa: x29 32 +
STACK CFI INIT 60354 678 .cfa: sp 0 +
STACK CFI 60358 .cfa: sp 224 +
STACK CFI 60374 .cfa: x29 96 + x19: .cfa -8 + ^ x20: .cfa -16 + ^ x21: .cfa -24 + ^ x22: .cfa -32 + ^ x23: .cfa -40 + ^ x24: .cfa -48 + ^ x25: .cfa -56 + ^ x26: .cfa -64 + ^ x27: .cfa -80 + ^ .ra: .cfa -88 + ^ x29: .cfa -96 + ^
STACK CFI 604ac .cfa: sp 224 +
STACK CFI 604c8 .cfa: sp 0 +
STACK CFI 604cc .cfa: x29 96 +
STACK CFI 6088c .cfa: sp 224 +
STACK CFI 608a8 .cfa: sp 0 +
STACK CFI 608ac .cfa: x29 96 +
STACK CFI INIT 609e8 530 .cfa: sp 0 +
STACK CFI 609ec .cfa: sp 240 +
STACK CFI 60a08 .cfa: x29 96 + x19: .cfa -8 + ^ x20: .cfa -16 + ^ x21: .cfa -24 + ^ x22: .cfa -32 + ^ x23: .cfa -40 + ^ x24: .cfa -48 + ^ x25: .cfa -56 + ^ x26: .cfa -64 + ^ x27: .cfa -72 + ^ x28: .cfa -80 + ^ .ra: .cfa -88 + ^ x29: .cfa -96 + ^
STACK CFI 60e9c .cfa: sp 240 +
STACK CFI 60eb8 .cfa: sp 0 +
STACK CFI 60ebc .cfa: x29 96 +
STACK CFI INIT 60f5c 388 .cfa: sp 0 +
STACK CFI 60f60 .cfa: sp 256 +
STACK CFI 60f74 .cfa: x29 64 + x19: .cfa -8 + ^ x20: .cfa -16 + ^ x21: .cfa -24 + ^ x22: .cfa -32 + ^ x23: .cfa -48 + ^ .ra: .cfa -56 + ^ x29: .cfa -64 + ^
STACK CFI 611b8 .cfa: sp 256 +
STACK CFI 611cc .cfa: sp 0 +
STACK CFI 611d0 .cfa: x29 64 +
STACK CFI INIT 612e8 13c .cfa: sp 0 +
STACK CFI 612ec .cfa: sp 96 +
STACK CFI 61300 .cfa: x29 64 + x19: .cfa -8 + ^ x20: .cfa -16 + ^ x21: .cfa -24 + ^ x22: .cfa -32 + ^ x23: .cfa -48 + ^ .ra: .cfa -56 + ^ x29: .cfa -64 + ^
STACK CFI 613bc .cfa: sp 96 +
STACK CFI 613d0 .cfa: sp 0 +
STACK CFI 613d4 .cfa: x29 64 +
STACK CFI INIT 61424 c0 .cfa: sp 0 +
STACK CFI 61428 .cfa: sp 80 +
STACK CFI 61434 .cfa: x29 32 + x19: .cfa -8 + ^ x20: .cfa -16 + ^ .ra: .cfa -24 + ^ x29: .cfa -32 + ^
STACK CFI 614a4 .cfa: sp 80 +
STACK CFI 614b0 .cfa: sp 0 +
STACK CFI 614b4 .cfa: x29 32 +
STACK CFI INIT 614e4 560 .cfa: sp 0 +
STACK CFI 614e8 .cfa: sp 224 +
STACK CFI 61504 .cfa: x29 96 + x19: .cfa -8 + ^ x20: .cfa -16 + ^ x21: .cfa -24 + ^ x22: .cfa -32 + ^ x23: .cfa -40 + ^ x24: .cfa -48 + ^ x25: .cfa -56 + ^ x26: .cfa -64 + ^ x27: .cfa -80 + ^ .ra: .cfa -88 + ^ x29: .cfa -96 + ^
STACK CFI 61848 .cfa: sp 224 +
STACK CFI 61864 .cfa: sp 0 +
STACK CFI 61868 .cfa: x29 96 +
STACK CFI 61934 .cfa: sp 224 +
STACK CFI 61950 .cfa: sp 0 +
STACK CFI 61954 .cfa: x29 96 +
STACK CFI INIT 61a60 62c .cfa: sp 0 +
STACK CFI 61a64 .cfa: sp 288 +
STACK CFI 61a80 .cfa: x29 96 + x19: .cfa -8 + ^ x20: .cfa -16 + ^ x21: .cfa -24 + ^ x22: .cfa -32 + ^ x23: .cfa -40 + ^ x24: .cfa -48 + ^ x25: .cfa -56 + ^ x26: .cfa -64 + ^ x28: .cfa -80 + ^ .ra: .cfa -88 + ^ x29: .cfa -96 + ^
STACK CFI 61eb8 .cfa: sp 288 +
STACK CFI 61ed4 .cfa: sp 0 +
STACK CFI 61ed8 .cfa: x29 96 +
STACK CFI INIT 62090 248 .cfa: sp 0 +
STACK CFI 62094 .cfa: sp 144 +
STACK CFI 620a8 .cfa: x29 64 + x19: .cfa -8 + ^ x20: .cfa -16 + ^ x21: .cfa -24 + ^ x22: .cfa -32 + ^ x23: .cfa -40 + ^ x24: .cfa -48 + ^ .ra: .cfa -56 + ^ x29: .cfa -64 + ^
STACK CFI 6225c .cfa: sp 144 +
STACK CFI 62270 .cfa: sp 0 +
STACK CFI 62274 .cfa: x29 64 +
STACK CFI INIT 622d8 ec .cfa: sp 0 +
STACK CFI 622dc .cfa: sp 80 +
STACK CFI 622ec .cfa: x29 48 + x19: .cfa -8 + ^ x20: .cfa -16 + ^ x21: .cfa -32 + ^ .ra: .cfa -40 + ^ x29: .cfa -48 + ^
STACK CFI 62380 .cfa: sp 80 +
STACK CFI 62390 .cfa: sp 0 +
STACK CFI 62394 .cfa: x29 48 +
STACK CFI INIT 623c4 1e4 .cfa: sp 0 +
STACK CFI 623c8 .cfa: sp 80 +
STACK CFI 623d8 .cfa: x29 48 + x19: .cfa -8 + ^ x20: .cfa -16 + ^ x21: .cfa -32 + ^ .ra: .cfa -40 + ^ x29: .cfa -48 + ^
STACK CFI 6255c .cfa: sp 80 +
STACK CFI 6256c .cfa: sp 0 +
STACK CFI 62570 .cfa: x29 48 +
STACK CFI INIT 625a8 560 .cfa: sp 0 +
STACK CFI 625ac .cfa: sp 224 +
STACK CFI 625c8 .cfa: x29 96 + x19: .cfa -8 + ^ x20: .cfa -16 + ^ x21: .cfa -24 + ^ x22: .cfa -32 + ^ x23: .cfa -40 + ^ x24: .cfa -48 + ^ x25: .cfa -56 + ^ x26: .cfa -64 + ^ x27: .cfa -80 + ^ .ra: .cfa -88 + ^ x29: .cfa -96 + ^
STACK CFI 6290c .cfa: sp 224 +
STACK CFI 62928 .cfa: sp 0 +
STACK CFI 6292c .cfa: x29 96 +
STACK CFI 629f8 .cfa: sp 224 +
STACK CFI 62a14 .cfa: sp 0 +
STACK CFI 62a18 .cfa: x29 96 +
STACK CFI INIT 62b24 104c .cfa: sp 0 +
STACK CFI 62b28 .cfa: sp 112 +
STACK CFI 62b44 .cfa: x29 96 + x19: .cfa -8 + ^ x20: .cfa -16 + ^ x21: .cfa -24 + ^ x22: .cfa -32 + ^ x23: .cfa -40 + ^ x24: .cfa -48 + ^ x25: .cfa -56 + ^ x26: .cfa -64 + ^ x27: .cfa -72 + ^ x28: .cfa -80 + ^ .ra: .cfa -88 + ^ x29: .cfa -96 + ^ v8: .cfa -112 + ^
STACK CFI 63a7c .cfa: sp 112 +
STACK CFI 63a98 .cfa: sp 0 +
STACK CFI 63a9c .cfa: x29 96 +
STACK CFI INIT 63bb4 6a0 .cfa: sp 0 +
STACK CFI 63bb8 .cfa: sp 288 +
STACK CFI 63bd4 .cfa: x29 96 + x19: .cfa -8 + ^ x20: .cfa -16 + ^ x21: .cfa -24 + ^ x22: .cfa -32 + ^ x23: .cfa -40 + ^ x24: .cfa -48 + ^ x25: .cfa -56 + ^ x26: .cfa -64 + ^ x27: .cfa -72 + ^ x28: .cfa -80 + ^ .ra: .cfa -88 + ^ x29: .cfa -96 + ^
STACK CFI 64060 .cfa: sp 288 +
STACK CFI 6407c .cfa: sp 0 +
STACK CFI 64080 .cfa: x29 96 +
STACK CFI INIT 64258 248 .cfa: sp 0 +
STACK CFI 6425c .cfa: sp 144 +
STACK CFI 64270 .cfa: x29 64 + x19: .cfa -8 + ^ x20: .cfa -16 + ^ x21: .cfa -24 + ^ x22: .cfa -32 + ^ x23: .cfa -40 + ^ x24: .cfa -48 + ^ .ra: .cfa -56 + ^ x29: .cfa -64 + ^
STACK CFI 64424 .cfa: sp 144 +
STACK CFI 64438 .cfa: sp 0 +
STACK CFI 6443c .cfa: x29 64 +
STACK CFI INIT 644a0 910 .cfa: sp 0 +
STACK CFI 644a4 .cfa: sp 96 +
STACK CFI 644bc .cfa: x29 96 + x19: .cfa -8 + ^ x20: .cfa -16 + ^ x21: .cfa -24 + ^ x22: .cfa -32 + ^ x23: .cfa -40 + ^ x24: .cfa -48 + ^ x25: .cfa -56 + ^ x26: .cfa -64 + ^ x27: .cfa -72 + ^ x28: .cfa -80 + ^ .ra: .cfa -88 + ^ x29: .cfa -96 + ^
STACK CFI 64d10 .cfa: sp 96 +
STACK CFI 64d28 .cfa: sp 0 +
STACK CFI 64d2c .cfa: x29 96 +
STACK CFI INIT 64db0 144 .cfa: sp 0 +
STACK CFI 64db4 .cfa: sp 112 +
STACK CFI 64dcc .cfa: x29 80 + x19: .cfa -8 + ^ x20: .cfa -16 + ^ x21: .cfa -24 + ^ x22: .cfa -32 + ^ x23: .cfa -40 + ^ x24: .cfa -48 + ^ x25: .cfa -64 + ^ .ra: .cfa -72 + ^ x29: .cfa -80 + ^
STACK CFI 64e88 .cfa: sp 112 +
STACK CFI 64ea0 .cfa: sp 0 +
STACK CFI 64ea4 .cfa: x29 80 +
STACK CFI INIT 64ef4 a8 .cfa: sp 0 +
STACK CFI 64ef8 .cfa: sp 32 +
STACK CFI 64f00 .cfa: x29 32 + x19: .cfa -16 + ^ .ra: .cfa -24 + ^ x29: .cfa -32 + ^
STACK CFI 64f34 .cfa: sp 32 +
STACK CFI 64f3c .cfa: sp 0 +
STACK CFI 64f40 .cfa: x29 32 +
STACK CFI 64f44 .cfa: sp 32 +
STACK CFI 64f4c .cfa: sp 0 +
STACK CFI 64f50 .cfa: x29 32 +
STACK CFI INIT 65034 bc .cfa: sp 0 +
STACK CFI 65038 .cfa: sp 80 +
STACK CFI 65044 .cfa: x29 32 + x19: .cfa -8 + ^ x20: .cfa -16 + ^ .ra: .cfa -24 + ^ x29: .cfa -32 + ^
STACK CFI 650b0 .cfa: sp 80 +
STACK CFI 650bc .cfa: sp 0 +
STACK CFI 650c0 .cfa: x29 32 +
STACK CFI INIT 650f0 668 .cfa: sp 0 +
STACK CFI 650f4 .cfa: sp 224 +
STACK CFI 65110 .cfa: x29 96 + x19: .cfa -8 + ^ x20: .cfa -16 + ^ x21: .cfa -24 + ^ x22: .cfa -32 + ^ x23: .cfa -40 + ^ x24: .cfa -48 + ^ x25: .cfa -56 + ^ x26: .cfa -64 + ^ x27: .cfa -80 + ^ .ra: .cfa -88 + ^ x29: .cfa -96 + ^
STACK CFI 65238 .cfa: sp 224 +
STACK CFI 65254 .cfa: sp 0 +
STACK CFI 65258 .cfa: x29 96 +
STACK CFI 65618 .cfa: sp 224 +
STACK CFI 65634 .cfa: sp 0 +
STACK CFI 65638 .cfa: x29 96 +
STACK CFI INIT 65774 188 .cfa: sp 0 +
STACK CFI 65778 .cfa: sp 112 +
STACK CFI 65788 .cfa: x29 48 + x19: .cfa -8 + ^ x20: .cfa -16 + ^ x21: .cfa -32 + ^ .ra: .cfa -40 + ^ x29: .cfa -48 + ^
STACK CFI 65850 .cfa: sp 112 +
STACK CFI 65860 .cfa: sp 0 +
STACK CFI 65864 .cfa: x29 48 +
STACK CFI INIT 65900 364 .cfa: sp 0 +
STACK CFI 65904 .cfa: sp 208 +
STACK CFI 65918 .cfa: x29 64 + x19: .cfa -8 + ^ x20: .cfa -16 + ^ x21: .cfa -24 + ^ x22: .cfa -32 + ^ x23: .cfa -48 + ^ .ra: .cfa -56 + ^ x29: .cfa -64 + ^
STACK CFI 65b40 .cfa: sp 208 +
STACK CFI 65b54 .cfa: sp 0 +
STACK CFI 65b58 .cfa: x29 64 +
STACK CFI INIT 65c68 158 .cfa: sp 0 +
STACK CFI 65c6c .cfa: sp 96 +
STACK CFI 65c80 .cfa: x29 64 + x19: .cfa -8 + ^ x20: .cfa -16 + ^ x21: .cfa -24 + ^ x22: .cfa -32 + ^ x23: .cfa -40 + ^ x24: .cfa -48 + ^ .ra: .cfa -56 + ^ x29: .cfa -64 + ^
STACK CFI 65d58 .cfa: sp 96 +
STACK CFI 65d6c .cfa: sp 0 +
STACK CFI 65d70 .cfa: x29 64 +
STACK CFI INIT 65dc0 630 .cfa: sp 0 +
STACK CFI 65dc4 .cfa: sp 192 +
STACK CFI 65de0 .cfa: x29 96 + x19: .cfa -8 + ^ x20: .cfa -16 + ^ x21: .cfa -24 + ^ x22: .cfa -32 + ^ x23: .cfa -40 + ^ x24: .cfa -48 + ^ x25: .cfa -56 + ^ x26: .cfa -64 + ^ x27: .cfa -72 + ^ x28: .cfa -80 + ^ .ra: .cfa -88 + ^ x29: .cfa -96 + ^
STACK CFI 6636c .cfa: sp 192 +
STACK CFI 66388 .cfa: sp 0 +
STACK CFI 6638c .cfa: x29 96 +
STACK CFI INIT 66434 c0 .cfa: sp 0 +
STACK CFI 66438 .cfa: sp 80 +
STACK CFI 66444 .cfa: x29 32 + x19: .cfa -8 + ^ x20: .cfa -16 + ^ .ra: .cfa -24 + ^ x29: .cfa -32 + ^
STACK CFI 664b4 .cfa: sp 80 +
STACK CFI 664c0 .cfa: sp 0 +
STACK CFI 664c4 .cfa: x29 32 +
STACK CFI INIT 664f4 310 .cfa: sp 0 +
STACK CFI 664f8 .cfa: sp 144 +
STACK CFI 66514 .cfa: x29 96 + x19: .cfa -8 + ^ x20: .cfa -16 + ^ x21: .cfa -24 + ^ x22: .cfa -32 + ^ x23: .cfa -40 + ^ x24: .cfa -48 + ^ x25: .cfa -56 + ^ x26: .cfa -64 + ^ x27: .cfa -72 + ^ x28: .cfa -80 + ^ .ra: .cfa -88 + ^ x29: .cfa -96 + ^
STACK CFI 66798 .cfa: sp 144 +
STACK CFI 667b4 .cfa: sp 0 +
STACK CFI 667b8 .cfa: x29 96 +
STACK CFI INIT 66804 560 .cfa: sp 0 +
STACK CFI 66808 .cfa: sp 224 +
STACK CFI 66824 .cfa: x29 96 + x19: .cfa -8 + ^ x20: .cfa -16 + ^ x21: .cfa -24 + ^ x22: .cfa -32 + ^ x23: .cfa -40 + ^ x24: .cfa -48 + ^ x25: .cfa -56 + ^ x26: .cfa -64 + ^ x27: .cfa -80 + ^ .ra: .cfa -88 + ^ x29: .cfa -96 + ^
STACK CFI 66b68 .cfa: sp 224 +
STACK CFI 66b84 .cfa: sp 0 +
STACK CFI 66b88 .cfa: x29 96 +
STACK CFI 66c54 .cfa: sp 224 +
STACK CFI 66c70 .cfa: sp 0 +
STACK CFI 66c74 .cfa: x29 96 +
STACK CFI INIT 66d80 894 .cfa: sp 0 +
STACK CFI 66d84 .cfa: sp 176 +
STACK CFI 66da0 .cfa: x29 72 + x19: .cfa -8 + ^ x20: .cfa -16 + ^ x21: .cfa -24 + ^ x22: .cfa -32 + ^ x23: .cfa -40 + ^ x24: .cfa -48 + ^ x25: .cfa -56 + ^ .ra: .cfa -64 + ^ x29: .cfa -72 + ^ v8: .cfa -80 + ^
STACK CFI 67584 .cfa: sp 176 +
STACK CFI 675a0 .cfa: sp 0 +
STACK CFI 675a4 .cfa: x29 72 +
STACK CFI INIT 67658 62c .cfa: sp 0 +
STACK CFI 6765c .cfa: sp 256 +
STACK CFI 67674 .cfa: x29 80 + x19: .cfa -8 + ^ x20: .cfa -16 + ^ x21: .cfa -24 + ^ x22: .cfa -32 + ^ x23: .cfa -40 + ^ x24: .cfa -48 + ^ x25: .cfa -56 + ^ x26: .cfa -64 + ^ .ra: .cfa -72 + ^ x29: .cfa -80 + ^
STACK CFI 67ab4 .cfa: sp 256 +
STACK CFI 67acc .cfa: sp 0 +
STACK CFI 67ad0 .cfa: x29 80 +
STACK CFI INIT 67c88 248 .cfa: sp 0 +
STACK CFI 67c8c .cfa: sp 144 +
STACK CFI 67ca0 .cfa: x29 64 + x19: .cfa -8 + ^ x20: .cfa -16 + ^ x21: .cfa -24 + ^ x22: .cfa -32 + ^ x23: .cfa -40 + ^ x24: .cfa -48 + ^ .ra: .cfa -56 + ^ x29: .cfa -64 + ^
STACK CFI 67e54 .cfa: sp 144 +
STACK CFI 67e68 .cfa: sp 0 +
STACK CFI 67e6c .cfa: x29 64 +
STACK CFI INIT 67ed0 150 .cfa: sp 0 +
STACK CFI 67ed4 .cfa: sp 112 +
STACK CFI 67ee8 .cfa: x29 64 + x19: .cfa -8 + ^ x20: .cfa -16 + ^ x21: .cfa -24 + ^ x22: .cfa -32 + ^ x23: .cfa -48 + ^ .ra: .cfa -56 + ^ x29: .cfa -64 + ^
STACK CFI 67fb8 .cfa: sp 112 +
STACK CFI 67fcc .cfa: sp 0 +
STACK CFI 67fd0 .cfa: x29 64 +
STACK CFI INIT 68020 8f8 .cfa: sp 0 +
STACK CFI 68024 .cfa: sp 96 +
STACK CFI 6803c .cfa: x29 96 + x19: .cfa -8 + ^ x20: .cfa -16 + ^ x21: .cfa -24 + ^ x22: .cfa -32 + ^ x23: .cfa -40 + ^ x24: .cfa -48 + ^ x25: .cfa -56 + ^ x26: .cfa -64 + ^ x27: .cfa -72 + ^ x28: .cfa -80 + ^ .ra: .cfa -88 + ^ x29: .cfa -96 + ^
STACK CFI 687d4 .cfa: sp 96 +
STACK CFI 687ec .cfa: sp 0 +
STACK CFI 687f0 .cfa: x29 96 +
STACK CFI INIT 68918 c0 .cfa: sp 0 +
STACK CFI 6891c .cfa: sp 80 +
STACK CFI 68928 .cfa: x29 32 + x19: .cfa -8 + ^ x20: .cfa -16 + ^ .ra: .cfa -24 + ^ x29: .cfa -32 + ^
STACK CFI 68998 .cfa: sp 80 +
STACK CFI 689a4 .cfa: sp 0 +
STACK CFI 689a8 .cfa: x29 32 +
STACK CFI INIT 689d8 21cc .cfa: sp 0 +
STACK CFI 689dc .cfa: sp 192 +
STACK CFI 689f8 .cfa: x29 96 + x19: .cfa -8 + ^ x20: .cfa -16 + ^ x21: .cfa -24 + ^ x22: .cfa -32 + ^ x23: .cfa -40 + ^ x24: .cfa -48 + ^ x25: .cfa -56 + ^ x26: .cfa -64 + ^ x27: .cfa -72 + ^ x28: .cfa -80 + ^ .ra: .cfa -88 + ^ x29: .cfa -96 + ^
STACK CFI 6aa80 .cfa: sp 192 +
STACK CFI 6aa9c .cfa: sp 0 +
STACK CFI 6aaa0 .cfa: x29 96 +
STACK CFI INIT 6ac40 560 .cfa: sp 0 +
STACK CFI 6ac44 .cfa: sp 224 +
STACK CFI 6ac60 .cfa: x29 96 + x19: .cfa -8 + ^ x20: .cfa -16 + ^ x21: .cfa -24 + ^ x22: .cfa -32 + ^ x23: .cfa -40 + ^ x24: .cfa -48 + ^ x25: .cfa -56 + ^ x26: .cfa -64 + ^ x27: .cfa -80 + ^ .ra: .cfa -88 + ^ x29: .cfa -96 + ^
STACK CFI 6afa4 .cfa: sp 224 +
STACK CFI 6afc0 .cfa: sp 0 +
STACK CFI 6afc4 .cfa: x29 96 +
STACK CFI 6b090 .cfa: sp 224 +
STACK CFI 6b0ac .cfa: sp 0 +
STACK CFI 6b0b0 .cfa: x29 96 +
STACK CFI INIT 6b1bc 1bc .cfa: sp 0 +
STACK CFI 6b1c0 .cfa: sp 128 +
STACK CFI 6b1d0 .cfa: x29 48 + x19: .cfa -8 + ^ x20: .cfa -16 + ^ x21: .cfa -32 + ^ .ra: .cfa -40 + ^ x29: .cfa -48 + ^
STACK CFI 6b310 .cfa: sp 128 +
STACK CFI 6b320 .cfa: sp 0 +
STACK CFI 6b324 .cfa: x29 48 +
STACK CFI INIT 6b3bc 68c .cfa: sp 0 +
STACK CFI 6b3c0 .cfa: sp 304 +
STACK CFI 6b3dc .cfa: x29 96 + x19: .cfa -8 + ^ x20: .cfa -16 + ^ x21: .cfa -24 + ^ x22: .cfa -32 + ^ x23: .cfa -40 + ^ x24: .cfa -48 + ^ x25: .cfa -56 + ^ x26: .cfa -64 + ^ x27: .cfa -72 + ^ x28: .cfa -80 + ^ .ra: .cfa -88 + ^ x29: .cfa -96 + ^
STACK CFI 6b858 .cfa: sp 304 +
STACK CFI 6b874 .cfa: sp 0 +
STACK CFI 6b878 .cfa: x29 96 +
STACK CFI INIT 6ba4c 248 .cfa: sp 0 +
STACK CFI 6ba50 .cfa: sp 144 +
STACK CFI 6ba64 .cfa: x29 64 + x19: .cfa -8 + ^ x20: .cfa -16 + ^ x21: .cfa -24 + ^ x22: .cfa -32 + ^ x23: .cfa -40 + ^ x24: .cfa -48 + ^ .ra: .cfa -56 + ^ x29: .cfa -64 + ^
STACK CFI 6bc18 .cfa: sp 144 +
STACK CFI 6bc2c .cfa: sp 0 +
STACK CFI 6bc30 .cfa: x29 64 +
STACK CFI INIT 6bc94 138 .cfa: sp 0 +
STACK CFI 6bc98 .cfa: sp 96 +
STACK CFI 6bcac .cfa: x29 64 + x19: .cfa -8 + ^ x20: .cfa -16 + ^ x21: .cfa -24 + ^ x22: .cfa -32 + ^ x23: .cfa -40 + ^ x24: .cfa -48 + ^ .ra: .cfa -56 + ^ x29: .cfa -64 + ^
STACK CFI 6bd64 .cfa: sp 96 +
STACK CFI 6bd78 .cfa: sp 0 +
STACK CFI 6bd7c .cfa: x29 64 +
STACK CFI INIT 6bdf4 b8 .cfa: sp 0 +
STACK CFI 6bdf8 .cfa: sp 80 +
STACK CFI 6be04 .cfa: x29 32 + x19: .cfa -8 + ^ x20: .cfa -16 + ^ .ra: .cfa -24 + ^ x29: .cfa -32 + ^
STACK CFI 6be6c .cfa: sp 80 +
STACK CFI 6be78 .cfa: sp 0 +
STACK CFI 6be7c .cfa: x29 32 +
STACK CFI INIT 6beac 66c .cfa: sp 0 +
STACK CFI 6beb0 .cfa: sp 224 +
STACK CFI 6becc .cfa: x29 96 + x19: .cfa -8 + ^ x20: .cfa -16 + ^ x21: .cfa -24 + ^ x22: .cfa -32 + ^ x23: .cfa -40 + ^ x24: .cfa -48 + ^ x25: .cfa -56 + ^ x26: .cfa -64 + ^ x27: .cfa -80 + ^ .ra: .cfa -88 + ^ x29: .cfa -96 + ^
STACK CFI 6bff8 .cfa: sp 224 +
STACK CFI 6c014 .cfa: sp 0 +
STACK CFI 6c018 .cfa: x29 96 +
STACK CFI 6c3d8 .cfa: sp 224 +
STACK CFI 6c3f4 .cfa: sp 0 +
STACK CFI 6c3f8 .cfa: x29 96 +
STACK CFI INIT 6c534 a60 .cfa: sp 0 +
STACK CFI 6c538 .cfa: sp 192 +
STACK CFI 6c554 .cfa: x29 96 + x19: .cfa -8 + ^ x20: .cfa -16 + ^ x21: .cfa -24 + ^ x22: .cfa -32 + ^ x23: .cfa -40 + ^ x24: .cfa -48 + ^ x25: .cfa -56 + ^ x26: .cfa -64 + ^ x27: .cfa -72 + ^ x28: .cfa -80 + ^ .ra: .cfa -88 + ^ x29: .cfa -96 + ^
STACK CFI 6ce90 .cfa: sp 192 +
STACK CFI 6ceac .cfa: sp 0 +
STACK CFI 6ceb0 .cfa: x29 96 +
STACK CFI INIT 6d290 3b0 .cfa: sp 0 +
STACK CFI 6d294 .cfa: sp 208 +
STACK CFI 6d2a8 .cfa: x29 64 + x19: .cfa -8 + ^ x20: .cfa -16 + ^ x21: .cfa -24 + ^ x22: .cfa -32 + ^ x23: .cfa -48 + ^ .ra: .cfa -56 + ^ x29: .cfa -64 + ^
STACK CFI 6d510 .cfa: sp 208 +
STACK CFI 6d524 .cfa: sp 0 +
STACK CFI 6d528 .cfa: x29 64 +
STACK CFI INIT 6d644 144 .cfa: sp 0 +
STACK CFI 6d648 .cfa: sp 112 +
STACK CFI 6d660 .cfa: x29 80 + x19: .cfa -8 + ^ x20: .cfa -16 + ^ x21: .cfa -24 + ^ x22: .cfa -32 + ^ x23: .cfa -40 + ^ x24: .cfa -48 + ^ x25: .cfa -64 + ^ .ra: .cfa -72 + ^ x29: .cfa -80 + ^
STACK CFI 6d71c .cfa: sp 112 +
STACK CFI 6d734 .cfa: sp 0 +
STACK CFI 6d738 .cfa: x29 80 +
STACK CFI INIT 6d788 bc .cfa: sp 0 +
STACK CFI 6d78c .cfa: sp 80 +
STACK CFI 6d798 .cfa: x29 32 + x19: .cfa -8 + ^ x20: .cfa -16 + ^ .ra: .cfa -24 + ^ x29: .cfa -32 + ^
STACK CFI 6d804 .cfa: sp 80 +
STACK CFI 6d810 .cfa: sp 0 +
STACK CFI 6d814 .cfa: x29 32 +
STACK CFI INIT 6d844 678 .cfa: sp 0 +
STACK CFI 6d848 .cfa: sp 240 +
STACK CFI 6d864 .cfa: x29 96 + x19: .cfa -8 + ^ x20: .cfa -16 + ^ x21: .cfa -24 + ^ x22: .cfa -32 + ^ x23: .cfa -40 + ^ x24: .cfa -48 + ^ x25: .cfa -56 + ^ x26: .cfa -64 + ^ x27: .cfa -80 + ^ .ra: .cfa -88 + ^ x29: .cfa -96 + ^
STACK CFI 6d9a0 .cfa: sp 240 +
STACK CFI 6d9bc .cfa: sp 0 +
STACK CFI 6d9c0 .cfa: x29 96 +
STACK CFI 6dd7c .cfa: sp 240 +
STACK CFI 6dd98 .cfa: sp 0 +
STACK CFI 6dd9c .cfa: x29 96 +
STACK CFI INIT 6ded8 3ec .cfa: sp 0 +
STACK CFI 6dedc .cfa: sp 208 +
STACK CFI 6def0 .cfa: x29 48 + x19: .cfa -8 + ^ x20: .cfa -16 + ^ x21: .cfa -24 + ^ x22: .cfa -32 + ^ .ra: .cfa -40 + ^ x29: .cfa -48 + ^ v8: .cfa -64 + ^
STACK CFI 6e254 .cfa: sp 208 +
STACK CFI 6e268 .cfa: sp 0 +
STACK CFI 6e26c .cfa: x29 48 +
STACK CFI INIT 6e308 380 .cfa: sp 0 +
STACK CFI 6e30c .cfa: sp 224 +
STACK CFI 6e320 .cfa: x29 64 + x19: .cfa -8 + ^ x20: .cfa -16 + ^ x21: .cfa -24 + ^ x22: .cfa -32 + ^ x23: .cfa -40 + ^ x24: .cfa -48 + ^ .ra: .cfa -56 + ^ x29: .cfa -64 + ^
STACK CFI 6e55c .cfa: sp 224 +
STACK CFI 6e570 .cfa: sp 0 +
STACK CFI 6e574 .cfa: x29 64 +
STACK CFI INIT 6e68c 140 .cfa: sp 0 +
STACK CFI 6e690 .cfa: sp 112 +
STACK CFI 6e6a4 .cfa: x29 64 + x19: .cfa -8 + ^ x20: .cfa -16 + ^ x21: .cfa -24 + ^ x22: .cfa -32 + ^ x23: .cfa -48 + ^ .ra: .cfa -56 + ^ x29: .cfa -64 + ^
STACK CFI 6e764 .cfa: sp 112 +
STACK CFI 6e778 .cfa: sp 0 +
STACK CFI 6e77c .cfa: x29 64 +
STACK CFI INIT 6e7cc b8 .cfa: sp 0 +
STACK CFI 6e7d0 .cfa: sp 80 +
STACK CFI 6e7dc .cfa: x29 32 + x19: .cfa -8 + ^ x20: .cfa -16 + ^ .ra: .cfa -24 + ^ x29: .cfa -32 + ^
STACK CFI 6e844 .cfa: sp 80 +
STACK CFI 6e850 .cfa: sp 0 +
STACK CFI 6e854 .cfa: x29 32 +
STACK CFI INIT 6e884 678 .cfa: sp 0 +
STACK CFI 6e888 .cfa: sp 224 +
STACK CFI 6e8a4 .cfa: x29 96 + x19: .cfa -8 + ^ x20: .cfa -16 + ^ x21: .cfa -24 + ^ x22: .cfa -32 + ^ x23: .cfa -40 + ^ x24: .cfa -48 + ^ x25: .cfa -56 + ^ x26: .cfa -64 + ^ x27: .cfa -80 + ^ .ra: .cfa -88 + ^ x29: .cfa -96 + ^
STACK CFI 6e9dc .cfa: sp 224 +
STACK CFI 6e9f8 .cfa: sp 0 +
STACK CFI 6e9fc .cfa: x29 96 +
STACK CFI 6edbc .cfa: sp 224 +
STACK CFI 6edd8 .cfa: sp 0 +
STACK CFI 6eddc .cfa: x29 96 +
STACK CFI INIT 6ef18 de4 .cfa: sp 0 +
STACK CFI 6ef1c .cfa: sp 96 +
STACK CFI 6ef34 .cfa: x29 96 + x19: .cfa -8 + ^ x20: .cfa -16 + ^ x21: .cfa -24 + ^ x22: .cfa -32 + ^ x23: .cfa -40 + ^ x24: .cfa -48 + ^ x25: .cfa -56 + ^ x26: .cfa -64 + ^ x27: .cfa -72 + ^ x28: .cfa -80 + ^ .ra: .cfa -88 + ^ x29: .cfa -96 + ^
STACK CFI 6fad4 .cfa: sp 96 +
STACK CFI 6faec .cfa: sp 0 +
STACK CFI 6faf0 .cfa: x29 96 +
STACK CFI INIT 6fd40 388 .cfa: sp 0 +
STACK CFI 6fd44 .cfa: sp 256 +
STACK CFI 6fd58 .cfa: x29 64 + x19: .cfa -8 + ^ x20: .cfa -16 + ^ x21: .cfa -24 + ^ x22: .cfa -32 + ^ x23: .cfa -48 + ^ .ra: .cfa -56 + ^ x29: .cfa -64 + ^
STACK CFI 6ff9c .cfa: sp 256 +
STACK CFI 6ffb0 .cfa: sp 0 +
STACK CFI 6ffb4 .cfa: x29 64 +
STACK CFI INIT 700cc 150 .cfa: sp 0 +
STACK CFI 700d0 .cfa: sp 112 +
STACK CFI 700e4 .cfa: x29 64 + x19: .cfa -8 + ^ x20: .cfa -16 + ^ x21: .cfa -24 + ^ x22: .cfa -32 + ^ x23: .cfa -48 + ^ .ra: .cfa -56 + ^ x29: .cfa -64 + ^
STACK CFI 701b4 .cfa: sp 112 +
STACK CFI 701c8 .cfa: sp 0 +
STACK CFI 701cc .cfa: x29 64 +
STACK CFI INIT 7021c c0 .cfa: sp 0 +
STACK CFI 70220 .cfa: sp 80 +
STACK CFI 7022c .cfa: x29 32 + x19: .cfa -8 + ^ x20: .cfa -16 + ^ .ra: .cfa -24 + ^ x29: .cfa -32 + ^
STACK CFI 7029c .cfa: sp 80 +
STACK CFI 702a8 .cfa: sp 0 +
STACK CFI 702ac .cfa: x29 32 +
STACK CFI INIT 702dc 66c .cfa: sp 0 +
STACK CFI 702e0 .cfa: sp 224 +
STACK CFI 702fc .cfa: x29 96 + x19: .cfa -8 + ^ x20: .cfa -16 + ^ x21: .cfa -24 + ^ x22: .cfa -32 + ^ x23: .cfa -40 + ^ x24: .cfa -48 + ^ x25: .cfa -56 + ^ x26: .cfa -64 + ^ x27: .cfa -80 + ^ .ra: .cfa -88 + ^ x29: .cfa -96 + ^
STACK CFI 70428 .cfa: sp 224 +
STACK CFI 70444 .cfa: sp 0 +
STACK CFI 70448 .cfa: x29 96 +
STACK CFI 70808 .cfa: sp 224 +
STACK CFI 70824 .cfa: sp 0 +
STACK CFI 70828 .cfa: x29 96 +
STACK CFI INIT 70964 1534 .cfa: sp 0 +
STACK CFI 70968 .cfa: sp 160 +
STACK CFI 70980 .cfa: x29 80 + x19: .cfa -8 + ^ x20: .cfa -16 + ^ x21: .cfa -24 + ^ x22: .cfa -32 + ^ x23: .cfa -40 + ^ x24: .cfa -48 + ^ x25: .cfa -64 + ^ .ra: .cfa -72 + ^ x29: .cfa -80 + ^
STACK CFI 71dc8 .cfa: sp 160 +
STACK CFI 71de0 .cfa: sp 0 +
STACK CFI 71de4 .cfa: x29 80 +
STACK CFI INIT 71edc 31c .cfa: sp 0 +
STACK CFI 71ee0 .cfa: sp 192 +
STACK CFI 71ef4 .cfa: x29 64 + x19: .cfa -8 + ^ x20: .cfa -16 + ^ x21: .cfa -24 + ^ x22: .cfa -32 + ^ x23: .cfa -48 + ^ .ra: .cfa -56 + ^ x29: .cfa -64 + ^
STACK CFI 720f0 .cfa: sp 192 +
STACK CFI 72104 .cfa: sp 0 +
STACK CFI 72108 .cfa: x29 64 +
STACK CFI INIT 721fc 144 .cfa: sp 0 +
STACK CFI 72200 .cfa: sp 112 +
STACK CFI 72218 .cfa: x29 80 + x19: .cfa -8 + ^ x20: .cfa -16 + ^ x21: .cfa -24 + ^ x22: .cfa -32 + ^ x23: .cfa -40 + ^ x24: .cfa -48 + ^ x25: .cfa -64 + ^ .ra: .cfa -72 + ^ x29: .cfa -80 + ^
STACK CFI 722d4 .cfa: sp 112 +
STACK CFI 722ec .cfa: sp 0 +
STACK CFI 722f0 .cfa: x29 80 +
STACK CFI INIT 72340 a8 .cfa: sp 0 +
STACK CFI 72344 .cfa: sp 32 +
STACK CFI 7234c .cfa: x29 32 + x19: .cfa -16 + ^ .ra: .cfa -24 + ^ x29: .cfa -32 + ^
STACK CFI 72380 .cfa: sp 32 +
STACK CFI 72388 .cfa: sp 0 +
STACK CFI 7238c .cfa: x29 32 +
STACK CFI 72390 .cfa: sp 32 +
STACK CFI 72398 .cfa: sp 0 +
STACK CFI 7239c .cfa: x29 32 +
STACK CFI INIT 72478 bc .cfa: sp 0 +
STACK CFI 7247c .cfa: sp 80 +
STACK CFI 72488 .cfa: x29 32 + x19: .cfa -8 + ^ x20: .cfa -16 + ^ .ra: .cfa -24 + ^ x29: .cfa -32 + ^
STACK CFI 724f4 .cfa: sp 80 +
STACK CFI 72500 .cfa: sp 0 +
STACK CFI 72504 .cfa: x29 32 +
STACK CFI INIT 72534 2cec .cfa: sp 0 +
STACK CFI 72538 .cfa: sp 224 +
STACK CFI 72560 .cfa: x29 96 + x19: .cfa -8 + ^ x20: .cfa -16 + ^ x21: .cfa -24 + ^ x22: .cfa -32 + ^ x23: .cfa -40 + ^ x24: .cfa -48 + ^ x25: .cfa -56 + ^ x26: .cfa -64 + ^ x27: .cfa -72 + ^ x28: .cfa -80 + ^ .ra: .cfa -88 + ^ x29: .cfa -96 + ^ v8: .cfa -104 + ^ v9: .cfa -112 + ^ v10: .cfa -120 + ^ v11: .cfa -128 + ^ v12: .cfa -144 + ^
STACK CFI 74c08 .cfa: sp 224 +
STACK CFI 74c30 .cfa: sp 0 +
STACK CFI 74c34 .cfa: x29 96 +
STACK CFI INIT 75220 244 .cfa: sp 0 +
STACK CFI 75224 .cfa: sp 144 +
STACK CFI 75240 .cfa: x29 96 + x19: .cfa -8 + ^ x20: .cfa -16 + ^ x21: .cfa -24 + ^ x22: .cfa -32 + ^ x23: .cfa -40 + ^ x24: .cfa -48 + ^ x25: .cfa -56 + ^ x26: .cfa -64 + ^ x27: .cfa -72 + ^ x28: .cfa -80 + ^ .ra: .cfa -88 + ^ x29: .cfa -96 + ^
STACK CFI 753fc .cfa: sp 144 +
STACK CFI 75418 .cfa: sp 0 +
STACK CFI 7541c .cfa: x29 96 +
STACK CFI INIT 75464 678 .cfa: sp 0 +
STACK CFI 75468 .cfa: sp 240 +
STACK CFI 75484 .cfa: x29 96 + x19: .cfa -8 + ^ x20: .cfa -16 + ^ x21: .cfa -24 + ^ x22: .cfa -32 + ^ x23: .cfa -40 + ^ x24: .cfa -48 + ^ x25: .cfa -56 + ^ x26: .cfa -64 + ^ x27: .cfa -80 + ^ .ra: .cfa -88 + ^ x29: .cfa -96 + ^
STACK CFI 755c0 .cfa: sp 240 +
STACK CFI 755dc .cfa: sp 0 +
STACK CFI 755e0 .cfa: x29 96 +
STACK CFI 7599c .cfa: sp 240 +
STACK CFI 759b8 .cfa: sp 0 +
STACK CFI 759bc .cfa: x29 96 +
STACK CFI INIT 75af8 1d0 .cfa: sp 0 +
STACK CFI 75afc .cfa: sp 128 +
STACK CFI 75b08 .cfa: x29 32 + x19: .cfa -8 + ^ x20: .cfa -16 + ^ .ra: .cfa -24 + ^ x29: .cfa -32 + ^
STACK CFI 75c64 .cfa: sp 128 +
STACK CFI 75c70 .cfa: sp 0 +
STACK CFI 75c74 .cfa: x29 32 +
STACK CFI INIT 75e24 380 .cfa: sp 0 +
STACK CFI 75e28 .cfa: sp 240 +
STACK CFI 75e3c .cfa: x29 64 + x19: .cfa -8 + ^ x20: .cfa -16 + ^ x21: .cfa -24 + ^ x22: .cfa -32 + ^ x23: .cfa -40 + ^ x24: .cfa -48 + ^ .ra: .cfa -56 + ^ x29: .cfa -64 + ^
STACK CFI 76078 .cfa: sp 240 +
STACK CFI 7608c .cfa: sp 0 +
STACK CFI 76090 .cfa: x29 64 +
STACK CFI INIT 761a8 140 .cfa: sp 0 +
STACK CFI 761ac .cfa: sp 112 +
STACK CFI 761c0 .cfa: x29 64 + x19: .cfa -8 + ^ x20: .cfa -16 + ^ x21: .cfa -24 + ^ x22: .cfa -32 + ^ x23: .cfa -48 + ^ .ra: .cfa -56 + ^ x29: .cfa -64 + ^
STACK CFI 76280 .cfa: sp 112 +
STACK CFI 76294 .cfa: sp 0 +
STACK CFI 76298 .cfa: x29 64 +
STACK CFI INIT 762e8 b8 .cfa: sp 0 +
STACK CFI 762ec .cfa: sp 80 +
STACK CFI 762f8 .cfa: x29 32 + x19: .cfa -8 + ^ x20: .cfa -16 + ^ .ra: .cfa -24 + ^ x29: .cfa -32 + ^
STACK CFI 76360 .cfa: sp 80 +
STACK CFI 7636c .cfa: sp 0 +
STACK CFI 76370 .cfa: x29 32 +
STACK CFI INIT 763a0 5cc .cfa: sp 0 +
STACK CFI 763a4 .cfa: sp 224 +
STACK CFI 763c0 .cfa: x29 96 + x19: .cfa -8 + ^ x20: .cfa -16 + ^ x21: .cfa -24 + ^ x22: .cfa -32 + ^ x23: .cfa -40 + ^ x24: .cfa -48 + ^ x25: .cfa -56 + ^ x26: .cfa -64 + ^ x27: .cfa -80 + ^ .ra: .cfa -88 + ^ x29: .cfa -96 + ^
STACK CFI 7676c .cfa: sp 224 +
STACK CFI 76788 .cfa: sp 0 +
STACK CFI 7678c .cfa: x29 96 +
STACK CFI 76858 .cfa: sp 224 +
STACK CFI 76874 .cfa: sp 0 +
STACK CFI 76878 .cfa: x29 96 +
STACK CFI INIT 76988 18c .cfa: sp 0 +
STACK CFI 7698c .cfa: sp 112 +
STACK CFI 7699c .cfa: x29 48 + x19: .cfa -8 + ^ x20: .cfa -16 + ^ x21: .cfa -32 + ^ .ra: .cfa -40 + ^ x29: .cfa -48 + ^
STACK CFI 76a6c .cfa: sp 112 +
STACK CFI 76a7c .cfa: sp 0 +
STACK CFI 76a80 .cfa: x29 48 +
STACK CFI INIT 76b18 7b4 .cfa: sp 0 +
STACK CFI 76b1c .cfa: sp 240 +
STACK CFI 76b30 .cfa: x29 64 + x19: .cfa -8 + ^ x20: .cfa -16 + ^ x21: .cfa -24 + ^ x22: .cfa -32 + ^ x23: .cfa -40 + ^ x24: .cfa -48 + ^ .ra: .cfa -56 + ^ x29: .cfa -64 + ^
STACK CFI 7707c .cfa: sp 240 +
STACK CFI 77090 .cfa: sp 0 +
STACK CFI 77094 .cfa: x29 64 +
STACK CFI INIT 772d0 248 .cfa: sp 0 +
STACK CFI 772d4 .cfa: sp 144 +
STACK CFI 772e8 .cfa: x29 64 + x19: .cfa -8 + ^ x20: .cfa -16 + ^ x21: .cfa -24 + ^ x22: .cfa -32 + ^ x23: .cfa -40 + ^ x24: .cfa -48 + ^ .ra: .cfa -56 + ^ x29: .cfa -64 + ^
STACK CFI 7749c .cfa: sp 144 +
STACK CFI 774b0 .cfa: sp 0 +
STACK CFI 774b4 .cfa: x29 64 +
STACK CFI INIT 77518 134 .cfa: sp 0 +
STACK CFI 7751c .cfa: sp 128 +
STACK CFI 77530 .cfa: x29 64 + x19: .cfa -8 + ^ x20: .cfa -16 + ^ x21: .cfa -24 + ^ x22: .cfa -32 + ^ x23: .cfa -40 + ^ x24: .cfa -48 + ^ .ra: .cfa -56 + ^ x29: .cfa -64 + ^
STACK CFI 775fc .cfa: sp 128 +
STACK CFI 77610 .cfa: sp 0 +
STACK CFI 77614 .cfa: x29 64 +
STACK CFI INIT 77680 c8 .cfa: sp 0 +
STACK CFI 77684 .cfa: sp 64 +
STACK CFI 77690 .cfa: x29 32 + x19: .cfa -8 + ^ x20: .cfa -16 + ^ .ra: .cfa -24 + ^ x29: .cfa -32 + ^
STACK CFI 77708 .cfa: sp 64 +
STACK CFI 77714 .cfa: sp 0 +
STACK CFI 77718 .cfa: x29 32 +
STACK CFI INIT 77780 124 .cfa: sp 0 +
STACK CFI 77784 .cfa: sp 96 +
STACK CFI 77798 .cfa: x29 64 + x19: .cfa -8 + ^ x20: .cfa -16 + ^ x21: .cfa -24 + ^ x22: .cfa -32 + ^ x23: .cfa -48 + ^ .ra: .cfa -56 + ^ x29: .cfa -64 + ^
STACK CFI 7783c .cfa: sp 96 +
STACK CFI 77850 .cfa: sp 0 +
STACK CFI 77854 .cfa: x29 64 +
STACK CFI INIT 778a4 1a88 .cfa: sp 0 +
STACK CFI 778a8 .cfa: sp 96 +
STACK CFI 778c0 .cfa: x29 96 + x19: .cfa -8 + ^ x20: .cfa -16 + ^ x21: .cfa -24 + ^ x22: .cfa -32 + ^ x23: .cfa -40 + ^ x24: .cfa -48 + ^ x25: .cfa -56 + ^ x26: .cfa -64 + ^ x27: .cfa -72 + ^ x28: .cfa -80 + ^ .ra: .cfa -88 + ^ x29: .cfa -96 + ^
STACK CFI 78e68 .cfa: sp 96 +
STACK CFI 78e80 .cfa: sp 0 +
STACK CFI 78e84 .cfa: x29 96 +
STACK CFI INIT 79370 b8 .cfa: sp 0 +
STACK CFI 79374 .cfa: sp 80 +
STACK CFI 79380 .cfa: x29 32 + x19: .cfa -8 + ^ x20: .cfa -16 + ^ .ra: .cfa -24 + ^ x29: .cfa -32 + ^
STACK CFI 793e8 .cfa: sp 80 +
STACK CFI 793f4 .cfa: sp 0 +
STACK CFI 793f8 .cfa: x29 32 +
STACK CFI INIT 79428 128 .cfa: sp 0 +
STACK CFI 7942c .cfa: sp 96 +
STACK CFI 79440 .cfa: x29 64 + x19: .cfa -8 + ^ x20: .cfa -16 + ^ x21: .cfa -24 + ^ x22: .cfa -32 + ^ x23: .cfa -40 + ^ x24: .cfa -48 + ^ .ra: .cfa -56 + ^ x29: .cfa -64 + ^
STACK CFI 794f0 .cfa: sp 96 +
STACK CFI 79504 .cfa: sp 0 +
STACK CFI 79508 .cfa: x29 64 +
STACK CFI INIT 79550 668 .cfa: sp 0 +
STACK CFI 79554 .cfa: sp 224 +
STACK CFI 79570 .cfa: x29 96 + x19: .cfa -8 + ^ x20: .cfa -16 + ^ x21: .cfa -24 + ^ x22: .cfa -32 + ^ x23: .cfa -40 + ^ x24: .cfa -48 + ^ x25: .cfa -56 + ^ x26: .cfa -64 + ^ x27: .cfa -80 + ^ .ra: .cfa -88 + ^ x29: .cfa -96 + ^
STACK CFI 79698 .cfa: sp 224 +
STACK CFI 796b4 .cfa: sp 0 +
STACK CFI 796b8 .cfa: x29 96 +
STACK CFI 79a78 .cfa: sp 224 +
STACK CFI 79a94 .cfa: sp 0 +
STACK CFI 79a98 .cfa: x29 96 +
STACK CFI INIT 79bd4 2c8 .cfa: sp 0 +
STACK CFI 79bd8 .cfa: sp 144 +
STACK CFI 79be8 .cfa: x29 48 + x19: .cfa -8 + ^ x20: .cfa -16 + ^ x21: .cfa -24 + ^ x22: .cfa -32 + ^ .ra: .cfa -40 + ^ x29: .cfa -48 + ^
STACK CFI 79e34 .cfa: sp 144 +
STACK CFI 79e44 .cfa: sp 0 +
STACK CFI 79e48 .cfa: x29 48 +
STACK CFI INIT 7a034 3a4 .cfa: sp 0 +
STACK CFI 7a038 .cfa: sp 224 +
STACK CFI 7a04c .cfa: x29 64 + x19: .cfa -8 + ^ x20: .cfa -16 + ^ x21: .cfa -24 + ^ x22: .cfa -32 + ^ x23: .cfa -40 + ^ x24: .cfa -48 + ^ .ra: .cfa -56 + ^ x29: .cfa -64 + ^
STACK CFI 7a2a8 .cfa: sp 224 +
STACK CFI 7a2bc .cfa: sp 0 +
STACK CFI 7a2c0 .cfa: x29 64 +
STACK CFI INIT 7a3dc 138 .cfa: sp 0 +
STACK CFI 7a3e0 .cfa: sp 112 +
STACK CFI 7a3f4 .cfa: x29 64 + x19: .cfa -8 + ^ x20: .cfa -16 + ^ x21: .cfa -24 + ^ x22: .cfa -32 + ^ x23: .cfa -48 + ^ .ra: .cfa -56 + ^ x29: .cfa -64 + ^
STACK CFI 7a4ac .cfa: sp 112 +
STACK CFI 7a4c0 .cfa: sp 0 +
STACK CFI 7a4c4 .cfa: x29 64 +
STACK CFI INIT 7a514 b4 .cfa: sp 0 +
STACK CFI 7a518 .cfa: sp 80 +
STACK CFI 7a524 .cfa: x29 32 + x19: .cfa -8 + ^ x20: .cfa -16 + ^ .ra: .cfa -24 + ^ x29: .cfa -32 + ^
STACK CFI 7a588 .cfa: sp 80 +
STACK CFI 7a594 .cfa: sp 0 +
STACK CFI 7a598 .cfa: x29 32 +
STACK CFI INIT 7a5c8 66c .cfa: sp 0 +
STACK CFI 7a5cc .cfa: sp 224 +
STACK CFI 7a5e8 .cfa: x29 96 + x19: .cfa -8 + ^ x20: .cfa -16 + ^ x21: .cfa -24 + ^ x22: .cfa -32 + ^ x23: .cfa -40 + ^ x24: .cfa -48 + ^ x25: .cfa -56 + ^ x26: .cfa -64 + ^ x27: .cfa -80 + ^ .ra: .cfa -88 + ^ x29: .cfa -96 + ^
STACK CFI 7a714 .cfa: sp 224 +
STACK CFI 7a730 .cfa: sp 0 +
STACK CFI 7a734 .cfa: x29 96 +
STACK CFI 7aaf4 .cfa: sp 224 +
STACK CFI 7ab10 .cfa: sp 0 +
STACK CFI 7ab14 .cfa: x29 96 +
STACK CFI INIT 7ac50 1870 .cfa: sp 0 +
STACK CFI 7ac54 .cfa: sp 112 +
STACK CFI 7ac70 .cfa: x29 96 + x19: .cfa -8 + ^ x20: .cfa -16 + ^ x21: .cfa -24 + ^ x22: .cfa -32 + ^ x23: .cfa -40 + ^ x24: .cfa -48 + ^ x25: .cfa -56 + ^ x26: .cfa -64 + ^ x27: .cfa -72 + ^ x28: .cfa -80 + ^ .ra: .cfa -88 + ^ x29: .cfa -96 + ^ v8: .cfa -104 + ^ v9: .cfa -112 + ^
STACK CFI 7c394 .cfa: sp 112 +
STACK CFI 7c3b0 .cfa: sp 0 +
STACK CFI 7c3b4 .cfa: x29 96 +
STACK CFI INIT 7c504 9f0 .cfa: sp 0 +
STACK CFI 7c508 .cfa: sp 240 +
STACK CFI 7c520 .cfa: x29 80 + x19: .cfa -8 + ^ x20: .cfa -16 + ^ x21: .cfa -24 + ^ x22: .cfa -32 + ^ x23: .cfa -40 + ^ x24: .cfa -48 + ^ x25: .cfa -64 + ^ .ra: .cfa -72 + ^ x29: .cfa -80 + ^
STACK CFI 7cc2c .cfa: sp 240 +
STACK CFI 7cc44 .cfa: sp 0 +
STACK CFI 7cc48 .cfa: x29 80 +
STACK CFI INIT 7cef8 144 .cfa: sp 0 +
STACK CFI 7cefc .cfa: sp 112 +
STACK CFI 7cf14 .cfa: x29 80 + x19: .cfa -8 + ^ x20: .cfa -16 + ^ x21: .cfa -24 + ^ x22: .cfa -32 + ^ x23: .cfa -40 + ^ x24: .cfa -48 + ^ x25: .cfa -64 + ^ .ra: .cfa -72 + ^ x29: .cfa -80 + ^
STACK CFI 7cfd0 .cfa: sp 112 +
STACK CFI 7cfe8 .cfa: sp 0 +
STACK CFI 7cfec .cfa: x29 80 +
STACK CFI INIT 7d03c 134 .cfa: sp 0 +
STACK CFI 7d040 .cfa: sp 128 +
STACK CFI 7d054 .cfa: x29 64 + x19: .cfa -8 + ^ x20: .cfa -16 + ^ x21: .cfa -24 + ^ x22: .cfa -32 + ^ x23: .cfa -40 + ^ x24: .cfa -48 + ^ .ra: .cfa -56 + ^ x29: .cfa -64 + ^
STACK CFI 7d120 .cfa: sp 128 +
STACK CFI 7d134 .cfa: sp 0 +
STACK CFI 7d138 .cfa: x29 64 +
STACK CFI INIT 7d170 174 .cfa: sp 0 +
STACK CFI 7d174 .cfa: sp 80 +
STACK CFI 7d184 .cfa: x29 48 + x19: .cfa -8 + ^ x20: .cfa -16 + ^ x21: .cfa -24 + ^ x22: .cfa -32 + ^ .ra: .cfa -40 + ^ x29: .cfa -48 + ^
STACK CFI 7d29c .cfa: sp 80 +
STACK CFI 7d2ac .cfa: sp 0 +
STACK CFI 7d2b0 .cfa: x29 48 +
STACK CFI INIT 7d2e4 32c .cfa: sp 0 +
STACK CFI 7d2e8 .cfa: sp 80 +
STACK CFI 7d2f8 .cfa: x29 48 + x19: .cfa -8 + ^ x20: .cfa -16 + ^ x21: .cfa -32 + ^ .ra: .cfa -40 + ^ x29: .cfa -48 + ^
STACK CFI 7d5b8 .cfa: sp 80 +
STACK CFI 7d5c8 .cfa: sp 0 +
STACK CFI 7d5cc .cfa: x29 48 +
STACK CFI INIT 7d610 210 .cfa: sp 0 +
STACK CFI 7d614 .cfa: sp 96 +
STACK CFI 7d62c .cfa: x29 96 + x19: .cfa -8 + ^ x20: .cfa -16 + ^ x21: .cfa -24 + ^ x22: .cfa -32 + ^ x23: .cfa -40 + ^ x24: .cfa -48 + ^ x25: .cfa -56 + ^ x26: .cfa -64 + ^ x27: .cfa -72 + ^ x28: .cfa -80 + ^ .ra: .cfa -88 + ^ x29: .cfa -96 + ^
STACK CFI 7d7a0 .cfa: sp 96 +
STACK CFI 7d7b8 .cfa: sp 0 +
STACK CFI 7d7bc .cfa: x29 96 +
STACK CFI INIT 7d820 bc .cfa: sp 0 +
STACK CFI 7d824 .cfa: sp 80 +
STACK CFI 7d830 .cfa: x29 32 + x19: .cfa -8 + ^ x20: .cfa -16 + ^ .ra: .cfa -24 + ^ x29: .cfa -32 + ^
STACK CFI 7d89c .cfa: sp 80 +
STACK CFI 7d8a8 .cfa: sp 0 +
STACK CFI 7d8ac .cfa: x29 32 +
STACK CFI INIT 7d8dc 668 .cfa: sp 0 +
STACK CFI 7d8e0 .cfa: sp 224 +
STACK CFI 7d8fc .cfa: x29 96 + x19: .cfa -8 + ^ x20: .cfa -16 + ^ x21: .cfa -24 + ^ x22: .cfa -32 + ^ x23: .cfa -40 + ^ x24: .cfa -48 + ^ x25: .cfa -56 + ^ x26: .cfa -64 + ^ x27: .cfa -80 + ^ .ra: .cfa -88 + ^ x29: .cfa -96 + ^
STACK CFI 7da24 .cfa: sp 224 +
STACK CFI 7da40 .cfa: sp 0 +
STACK CFI 7da44 .cfa: x29 96 +
STACK CFI 7de04 .cfa: sp 224 +
STACK CFI 7de20 .cfa: sp 0 +
STACK CFI 7de24 .cfa: x29 96 +
STACK CFI INIT 7df60 103c .cfa: sp 0 +
STACK CFI 7df64 .cfa: sp 224 +
STACK CFI 7df84 .cfa: x29 96 + x19: .cfa -8 + ^ x20: .cfa -16 + ^ x21: .cfa -24 + ^ x22: .cfa -32 + ^ x23: .cfa -40 + ^ x24: .cfa -48 + ^ x25: .cfa -56 + ^ x26: .cfa -64 + ^ x27: .cfa -72 + ^ x28: .cfa -80 + ^ .ra: .cfa -88 + ^ x29: .cfa -96 + ^ v8: .cfa -112 + ^
STACK CFI 7eecc .cfa: sp 224 +
STACK CFI 7eeec .cfa: sp 0 +
STACK CFI 7eef0 .cfa: x29 96 +
STACK CFI INIT 7efe0 3b8 .cfa: sp 0 +
STACK CFI 7efe4 .cfa: sp 224 +
STACK CFI 7effc .cfa: x29 80 + x19: .cfa -8 + ^ x20: .cfa -16 + ^ x21: .cfa -24 + ^ x22: .cfa -32 + ^ x23: .cfa -40 + ^ x24: .cfa -48 + ^ x25: .cfa -64 + ^ .ra: .cfa -72 + ^ x29: .cfa -80 + ^
STACK CFI 7f264 .cfa: sp 224 +
STACK CFI 7f27c .cfa: sp 0 +
STACK CFI 7f280 .cfa: x29 80 +
STACK CFI INIT 7f39c 138 .cfa: sp 0 +
STACK CFI 7f3a0 .cfa: sp 112 +
STACK CFI 7f3b4 .cfa: x29 64 + x19: .cfa -8 + ^ x20: .cfa -16 + ^ x21: .cfa -24 + ^ x22: .cfa -32 + ^ x23: .cfa -48 + ^ .ra: .cfa -56 + ^ x29: .cfa -64 + ^
STACK CFI 7f46c .cfa: sp 112 +
STACK CFI 7f480 .cfa: sp 0 +
STACK CFI 7f484 .cfa: x29 64 +
STACK CFI INIT 7f4d4 b4 .cfa: sp 0 +
STACK CFI 7f4d8 .cfa: sp 80 +
STACK CFI 7f4e4 .cfa: x29 32 + x19: .cfa -8 + ^ x20: .cfa -16 + ^ .ra: .cfa -24 + ^ x29: .cfa -32 + ^
STACK CFI 7f548 .cfa: sp 80 +
STACK CFI 7f554 .cfa: sp 0 +
STACK CFI 7f558 .cfa: x29 32 +
STACK CFI INIT 7f588 678 .cfa: sp 0 +
STACK CFI 7f58c .cfa: sp 224 +
STACK CFI 7f5a8 .cfa: x29 96 + x19: .cfa -8 + ^ x20: .cfa -16 + ^ x21: .cfa -24 + ^ x22: .cfa -32 + ^ x23: .cfa -40 + ^ x24: .cfa -48 + ^ x25: .cfa -56 + ^ x26: .cfa -64 + ^ x27: .cfa -80 + ^ .ra: .cfa -88 + ^ x29: .cfa -96 + ^
STACK CFI 7f6e0 .cfa: sp 224 +
STACK CFI 7f6fc .cfa: sp 0 +
STACK CFI 7f700 .cfa: x29 96 +
STACK CFI 7fac0 .cfa: sp 224 +
STACK CFI 7fadc .cfa: sp 0 +
STACK CFI 7fae0 .cfa: x29 96 +
STACK CFI INIT 7fc1c d38 .cfa: sp 0 +
STACK CFI 7fc20 .cfa: sp 208 +
STACK CFI 7fc3c .cfa: x29 96 + x19: .cfa -8 + ^ x20: .cfa -16 + ^ x21: .cfa -24 + ^ x22: .cfa -32 + ^ x23: .cfa -40 + ^ x24: .cfa -48 + ^ x25: .cfa -56 + ^ x26: .cfa -64 + ^ x27: .cfa -72 + ^ x28: .cfa -80 + ^ .ra: .cfa -88 + ^ x29: .cfa -96 + ^
STACK CFI 807fc .cfa: sp 208 +
STACK CFI 80818 .cfa: sp 0 +
STACK CFI 8081c .cfa: x29 96 +
STACK CFI INIT 809d4 388 .cfa: sp 0 +
STACK CFI 809d8 .cfa: sp 256 +
STACK CFI 809ec .cfa: x29 64 + x19: .cfa -8 + ^ x20: .cfa -16 + ^ x21: .cfa -24 + ^ x22: .cfa -32 + ^ x23: .cfa -48 + ^ .ra: .cfa -56 + ^ x29: .cfa -64 + ^
STACK CFI 80c30 .cfa: sp 256 +
STACK CFI 80c44 .cfa: sp 0 +
STACK CFI 80c48 .cfa: x29 64 +
STACK CFI INIT 80d60 130 .cfa: sp 0 +
STACK CFI 80d64 .cfa: sp 96 +
STACK CFI 80d78 .cfa: x29 64 + x19: .cfa -8 + ^ x20: .cfa -16 + ^ x21: .cfa -24 + ^ x22: .cfa -32 + ^ x23: .cfa -40 + ^ x24: .cfa -48 + ^ .ra: .cfa -56 + ^ x29: .cfa -64 + ^
STACK CFI 80e28 .cfa: sp 96 +
STACK CFI 80e3c .cfa: sp 0 +
STACK CFI 80e40 .cfa: x29 64 +
STACK CFI INIT 80e90 bc .cfa: sp 0 +
STACK CFI 80e94 .cfa: sp 80 +
STACK CFI 80ea0 .cfa: x29 32 + x19: .cfa -8 + ^ x20: .cfa -16 + ^ .ra: .cfa -24 + ^ x29: .cfa -32 + ^
STACK CFI 80f0c .cfa: sp 80 +
STACK CFI 80f18 .cfa: sp 0 +
STACK CFI 80f1c .cfa: x29 32 +
STACK CFI INIT 81064 66c .cfa: sp 0 +
STACK CFI 81068 .cfa: sp 224 +
STACK CFI 81084 .cfa: x29 96 + x19: .cfa -8 + ^ x20: .cfa -16 + ^ x21: .cfa -24 + ^ x22: .cfa -32 + ^ x23: .cfa -40 + ^ x24: .cfa -48 + ^ x25: .cfa -56 + ^ x26: .cfa -64 + ^ x27: .cfa -80 + ^ .ra: .cfa -88 + ^ x29: .cfa -96 + ^
STACK CFI 811b0 .cfa: sp 224 +
STACK CFI 811cc .cfa: sp 0 +
STACK CFI 811d0 .cfa: x29 96 +
STACK CFI 81590 .cfa: sp 224 +
STACK CFI 815ac .cfa: sp 0 +
STACK CFI 815b0 .cfa: x29 96 +
STACK CFI INIT 816ec 788 .cfa: sp 0 +
STACK CFI 816f0 .cfa: sp 160 +
STACK CFI 81708 .cfa: x29 80 + x19: .cfa -8 + ^ x20: .cfa -16 + ^ x21: .cfa -24 + ^ x22: .cfa -32 + ^ x23: .cfa -40 + ^ x24: .cfa -48 + ^ x25: .cfa -64 + ^ .ra: .cfa -72 + ^ x29: .cfa -80 + ^
STACK CFI 81e00 .cfa: sp 160 +
STACK CFI 81e18 .cfa: sp 0 +
STACK CFI 81e1c .cfa: x29 80 +
STACK CFI INIT 81eb8 600 .cfa: sp 0 +
STACK CFI 81ebc .cfa: sp 256 +
STACK CFI 81ed4 .cfa: x29 80 + x19: .cfa -8 + ^ x20: .cfa -16 + ^ x21: .cfa -24 + ^ x22: .cfa -32 + ^ x23: .cfa -40 + ^ x24: .cfa -48 + ^ x25: .cfa -56 + ^ x26: .cfa -64 + ^ .ra: .cfa -72 + ^ x29: .cfa -80 + ^
STACK CFI 822ec .cfa: sp 256 +
STACK CFI 82304 .cfa: sp 0 +
STACK CFI 82308 .cfa: x29 80 +
STACK CFI INIT 824bc 14c .cfa: sp 0 +
STACK CFI 824c0 .cfa: sp 112 +
STACK CFI 824d8 .cfa: x29 80 + x19: .cfa -8 + ^ x20: .cfa -16 + ^ x21: .cfa -24 + ^ x22: .cfa -32 + ^ x23: .cfa -40 + ^ x24: .cfa -48 + ^ x25: .cfa -64 + ^ .ra: .cfa -72 + ^ x29: .cfa -80 + ^
STACK CFI 8259c .cfa: sp 112 +
STACK CFI 825b4 .cfa: sp 0 +
STACK CFI 825b8 .cfa: x29 80 +
STACK CFI INIT 82608 94c .cfa: sp 0 +
STACK CFI 8260c .cfa: sp 96 +
STACK CFI 82620 .cfa: x29 64 + x19: .cfa -8 + ^ x20: .cfa -16 + ^ x21: .cfa -24 + ^ x22: .cfa -32 + ^ x23: .cfa -40 + ^ x24: .cfa -48 + ^ .ra: .cfa -56 + ^ x29: .cfa -64 + ^
STACK CFI 82ee0 .cfa: sp 96 +
STACK CFI 82ef4 .cfa: sp 0 +
STACK CFI 82ef8 .cfa: x29 64 +
STACK CFI INIT 82f54 168 .cfa: sp 0 +
STACK CFI 82f58 .cfa: sp 96 +
STACK CFI 82f68 .cfa: x29 48 + x19: .cfa -8 + ^ x20: .cfa -16 + ^ x21: .cfa -24 + ^ x22: .cfa -32 + ^ .ra: .cfa -40 + ^ x29: .cfa -48 + ^
STACK CFI 83078 .cfa: sp 96 +
STACK CFI 83088 .cfa: sp 0 +
STACK CFI 8308c .cfa: x29 48 +
STACK CFI INIT 830bc bc .cfa: sp 0 +
STACK CFI 830c0 .cfa: sp 80 +
STACK CFI 830cc .cfa: x29 32 + x19: .cfa -8 + ^ x20: .cfa -16 + ^ .ra: .cfa -24 + ^ x29: .cfa -32 + ^
STACK CFI 83138 .cfa: sp 80 +
STACK CFI 83144 .cfa: sp 0 +
STACK CFI 83148 .cfa: x29 32 +
STACK CFI INIT 83178 638 .cfa: sp 0 +
STACK CFI 8317c .cfa: sp 224 +
STACK CFI 83198 .cfa: x29 96 + x19: .cfa -8 + ^ x20: .cfa -16 + ^ x21: .cfa -24 + ^ x22: .cfa -32 + ^ x23: .cfa -40 + ^ x24: .cfa -48 + ^ x25: .cfa -56 + ^ x26: .cfa -64 + ^ x27: .cfa -80 + ^ .ra: .cfa -88 + ^ x29: .cfa -96 + ^
STACK CFI 835ac .cfa: sp 224 +
STACK CFI 835c8 .cfa: sp 0 +
STACK CFI 835cc .cfa: x29 96 +
STACK CFI 83698 .cfa: sp 224 +
STACK CFI 836b4 .cfa: sp 0 +
STACK CFI 836b8 .cfa: x29 96 +
STACK CFI INIT 837cc 684 .cfa: sp 0 +
STACK CFI 837d0 .cfa: sp 176 +
STACK CFI 837e8 .cfa: x29 80 + x19: .cfa -8 + ^ x20: .cfa -16 + ^ x21: .cfa -24 + ^ x22: .cfa -32 + ^ x23: .cfa -40 + ^ x24: .cfa -48 + ^ x25: .cfa -64 + ^ .ra: .cfa -72 + ^ x29: .cfa -80 + ^
STACK CFI 83dd0 .cfa: sp 176 +
STACK CFI 83de8 .cfa: sp 0 +
STACK CFI 83dec .cfa: x29 80 +
STACK CFI INIT 83e94 a50 .cfa: sp 0 +
STACK CFI 83e98 .cfa: sp 288 +
STACK CFI 83eb4 .cfa: x29 96 + x19: .cfa -8 + ^ x20: .cfa -16 + ^ x21: .cfa -24 + ^ x22: .cfa -32 + ^ x23: .cfa -40 + ^ x24: .cfa -48 + ^ x25: .cfa -56 + ^ x26: .cfa -64 + ^ x27: .cfa -72 + ^ x28: .cfa -80 + ^ .ra: .cfa -88 + ^ x29: .cfa -96 + ^
STACK CFI 845f0 .cfa: sp 288 +
STACK CFI 8460c .cfa: sp 0 +
STACK CFI 84610 .cfa: x29 96 +
STACK CFI INIT 848e8 248 .cfa: sp 0 +
STACK CFI 848ec .cfa: sp 144 +
STACK CFI 84900 .cfa: x29 64 + x19: .cfa -8 + ^ x20: .cfa -16 + ^ x21: .cfa -24 + ^ x22: .cfa -32 + ^ x23: .cfa -40 + ^ x24: .cfa -48 + ^ .ra: .cfa -56 + ^ x29: .cfa -64 + ^
STACK CFI 84ab4 .cfa: sp 144 +
STACK CFI 84ac8 .cfa: sp 0 +
STACK CFI 84acc .cfa: x29 64 +
STACK CFI INIT 84b30 134 .cfa: sp 0 +
STACK CFI 84b34 .cfa: sp 128 +
STACK CFI 84b48 .cfa: x29 64 + x19: .cfa -8 + ^ x20: .cfa -16 + ^ x21: .cfa -24 + ^ x22: .cfa -32 + ^ x23: .cfa -40 + ^ x24: .cfa -48 + ^ .ra: .cfa -56 + ^ x29: .cfa -64 + ^
STACK CFI 84c14 .cfa: sp 128 +
STACK CFI 84c28 .cfa: sp 0 +
STACK CFI 84c2c .cfa: x29 64 +
STACK CFI INIT 84c64 bc .cfa: sp 0 +
STACK CFI 84c68 .cfa: sp 64 +
STACK CFI 84c74 .cfa: x29 32 + x19: .cfa -8 + ^ x20: .cfa -16 + ^ .ra: .cfa -24 + ^ x29: .cfa -32 + ^
STACK CFI 84ce0 .cfa: sp 64 +
STACK CFI 84cec .cfa: sp 0 +
STACK CFI 84cf0 .cfa: x29 32 +
STACK CFI INIT 84d20 2e0 .cfa: sp 0 +
STACK CFI 84d24 .cfa: sp 112 +
STACK CFI 84d38 .cfa: x29 64 + x19: .cfa -8 + ^ x20: .cfa -16 + ^ x21: .cfa -24 + ^ x22: .cfa -32 + ^ x23: .cfa -48 + ^ .ra: .cfa -56 + ^ x29: .cfa -64 + ^
STACK CFI 84fb0 .cfa: sp 112 +
STACK CFI 84fc4 .cfa: sp 0 +
STACK CFI 84fc8 .cfa: x29 64 +
STACK CFI INIT 85000 138 .cfa: sp 0 +
STACK CFI 85004 .cfa: sp 96 +
STACK CFI 85018 .cfa: x29 64 + x19: .cfa -8 + ^ x20: .cfa -16 + ^ x21: .cfa -24 + ^ x22: .cfa -32 + ^ x23: .cfa -40 + ^ x24: .cfa -48 + ^ .ra: .cfa -56 + ^ x29: .cfa -64 + ^
STACK CFI 850d0 .cfa: sp 96 +
STACK CFI 850e4 .cfa: sp 0 +
STACK CFI 850e8 .cfa: x29 64 +
STACK CFI INIT 85138 604 .cfa: sp 0 +
STACK CFI 8513c .cfa: sp 112 +
STACK CFI 85150 .cfa: x29 64 + x19: .cfa -8 + ^ x20: .cfa -16 + ^ x21: .cfa -24 + ^ x22: .cfa -32 + ^ x23: .cfa -48 + ^ .ra: .cfa -56 + ^ x29: .cfa -64 + ^
STACK CFI 855dc .cfa: sp 112 +
STACK CFI 855f0 .cfa: sp 0 +
STACK CFI 855f4 .cfa: x29 64 +
STACK CFI INIT 8573c b8 .cfa: sp 0 +
STACK CFI 85740 .cfa: sp 80 +
STACK CFI 8574c .cfa: x29 32 + x19: .cfa -8 + ^ x20: .cfa -16 + ^ .ra: .cfa -24 + ^ x29: .cfa -32 + ^
STACK CFI 857b4 .cfa: sp 80 +
STACK CFI 857c0 .cfa: sp 0 +
STACK CFI 857c4 .cfa: x29 32 +
STACK CFI INIT 857f4 668 .cfa: sp 0 +
STACK CFI 857f8 .cfa: sp 224 +
STACK CFI 85814 .cfa: x29 96 + x19: .cfa -8 + ^ x20: .cfa -16 + ^ x21: .cfa -24 + ^ x22: .cfa -32 + ^ x23: .cfa -40 + ^ x24: .cfa -48 + ^ x25: .cfa -56 + ^ x26: .cfa -64 + ^ x27: .cfa -80 + ^ .ra: .cfa -88 + ^ x29: .cfa -96 + ^
STACK CFI 8593c .cfa: sp 224 +
STACK CFI 85958 .cfa: sp 0 +
STACK CFI 8595c .cfa: x29 96 +
STACK CFI 85d1c .cfa: sp 224 +
STACK CFI 85d38 .cfa: sp 0 +
STACK CFI 85d3c .cfa: x29 96 +
STACK CFI INIT 85e78 13e0 .cfa: sp 0 +
STACK CFI 85e7c .cfa: sp 160 +
STACK CFI 85e94 .cfa: x29 56 + x19: .cfa -8 + ^ x20: .cfa -16 + ^ x21: .cfa -24 + ^ x22: .cfa -32 + ^ x23: .cfa -40 + ^ .ra: .cfa -48 + ^ x29: .cfa -56 + ^ v8: .cfa -64 + ^
STACK CFI 871a4 .cfa: sp 160 +
STACK CFI 871bc .cfa: sp 0 +
STACK CFI 871c0 .cfa: x29 56 +
STACK CFI INIT 8729c 360 .cfa: sp 0 +
STACK CFI 872a0 .cfa: sp 192 +
STACK CFI 872b4 .cfa: x29 64 + x19: .cfa -8 + ^ x20: .cfa -16 + ^ x21: .cfa -24 + ^ x22: .cfa -32 + ^ x23: .cfa -40 + ^ x24: .cfa -48 + ^ .ra: .cfa -56 + ^ x29: .cfa -64 + ^
STACK CFI 874d8 .cfa: sp 192 +
STACK CFI 874ec .cfa: sp 0 +
STACK CFI 874f0 .cfa: x29 64 +
STACK CFI INIT 87600 138 .cfa: sp 0 +
STACK CFI 87604 .cfa: sp 112 +
STACK CFI 87618 .cfa: x29 64 + x19: .cfa -8 + ^ x20: .cfa -16 + ^ x21: .cfa -24 + ^ x22: .cfa -32 + ^ x23: .cfa -48 + ^ .ra: .cfa -56 + ^ x29: .cfa -64 + ^
STACK CFI 876d0 .cfa: sp 112 +
STACK CFI 876e4 .cfa: sp 0 +
STACK CFI 876e8 .cfa: x29 64 +
STACK CFI INIT 87738 b4 .cfa: sp 0 +
STACK CFI 8773c .cfa: sp 80 +
STACK CFI 87748 .cfa: x29 32 + x19: .cfa -8 + ^ x20: .cfa -16 + ^ .ra: .cfa -24 + ^ x29: .cfa -32 + ^
STACK CFI 877ac .cfa: sp 80 +
STACK CFI 877b8 .cfa: sp 0 +
STACK CFI 877bc .cfa: x29 32 +
STACK CFI INIT 877ec 668 .cfa: sp 0 +
STACK CFI 877f0 .cfa: sp 224 +
STACK CFI 8780c .cfa: x29 96 + x19: .cfa -8 + ^ x20: .cfa -16 + ^ x21: .cfa -24 + ^ x22: .cfa -32 + ^ x23: .cfa -40 + ^ x24: .cfa -48 + ^ x25: .cfa -56 + ^ x26: .cfa -64 + ^ x27: .cfa -80 + ^ .ra: .cfa -88 + ^ x29: .cfa -96 + ^
STACK CFI 87934 .cfa: sp 224 +
STACK CFI 87950 .cfa: sp 0 +
STACK CFI 87954 .cfa: x29 96 +
STACK CFI 87d14 .cfa: sp 224 +
STACK CFI 87d30 .cfa: sp 0 +
STACK CFI 87d34 .cfa: x29 96 +
STACK CFI INIT 87e70 8b8 .cfa: sp 0 +
STACK CFI 87e74 .cfa: sp 176 +
STACK CFI 87e88 .cfa: x29 64 + x19: .cfa -8 + ^ x20: .cfa -16 + ^ x21: .cfa -24 + ^ x22: .cfa -32 + ^ x23: .cfa -40 + ^ x24: .cfa -48 + ^ .ra: .cfa -56 + ^ x29: .cfa -64 + ^
STACK CFI 886a0 .cfa: sp 176 +
STACK CFI 886b4 .cfa: sp 0 +
STACK CFI 886b8 .cfa: x29 64 +
STACK CFI INIT 8876c 360 .cfa: sp 0 +
STACK CFI 88770 .cfa: sp 192 +
STACK CFI 88784 .cfa: x29 64 + x19: .cfa -8 + ^ x20: .cfa -16 + ^ x21: .cfa -24 + ^ x22: .cfa -32 + ^ x23: .cfa -40 + ^ x24: .cfa -48 + ^ .ra: .cfa -56 + ^ x29: .cfa -64 + ^
STACK CFI 889a8 .cfa: sp 192 +
STACK CFI 889bc .cfa: sp 0 +
STACK CFI 889c0 .cfa: x29 64 +
STACK CFI INIT 88ad0 138 .cfa: sp 0 +
STACK CFI 88ad4 .cfa: sp 112 +
STACK CFI 88ae8 .cfa: x29 64 + x19: .cfa -8 + ^ x20: .cfa -16 + ^ x21: .cfa -24 + ^ x22: .cfa -32 + ^ x23: .cfa -48 + ^ .ra: .cfa -56 + ^ x29: .cfa -64 + ^
STACK CFI 88ba0 .cfa: sp 112 +
STACK CFI 88bb4 .cfa: sp 0 +
STACK CFI 88bb8 .cfa: x29 64 +
STACK CFI INIT 88c08 b4 .cfa: sp 0 +
STACK CFI 88c0c .cfa: sp 80 +
STACK CFI 88c18 .cfa: x29 32 + x19: .cfa -8 + ^ x20: .cfa -16 + ^ .ra: .cfa -24 + ^ x29: .cfa -32 + ^
STACK CFI 88c7c .cfa: sp 80 +
STACK CFI 88c88 .cfa: sp 0 +
STACK CFI 88c8c .cfa: x29 32 +
STACK CFI INIT 88cbc 66c .cfa: sp 0 +
STACK CFI 88cc0 .cfa: sp 224 +
STACK CFI 88cdc .cfa: x29 96 + x19: .cfa -8 + ^ x20: .cfa -16 + ^ x21: .cfa -24 + ^ x22: .cfa -32 + ^ x23: .cfa -40 + ^ x24: .cfa -48 + ^ x25: .cfa -56 + ^ x26: .cfa -64 + ^ x27: .cfa -80 + ^ .ra: .cfa -88 + ^ x29: .cfa -96 + ^
STACK CFI 88e08 .cfa: sp 224 +
STACK CFI 88e24 .cfa: sp 0 +
STACK CFI 88e28 .cfa: x29 96 +
STACK CFI 891e8 .cfa: sp 224 +
STACK CFI 89204 .cfa: sp 0 +
STACK CFI 89208 .cfa: x29 96 +
STACK CFI INIT 89344 454 .cfa: sp 0 +
STACK CFI 89348 .cfa: sp 144 +
STACK CFI 8935c .cfa: x29 64 + x19: .cfa -8 + ^ x20: .cfa -16 + ^ x21: .cfa -24 + ^ x22: .cfa -32 + ^ x23: .cfa -40 + ^ x24: .cfa -48 + ^ .ra: .cfa -56 + ^ x29: .cfa -64 + ^
STACK CFI 89720 .cfa: sp 144 +
STACK CFI 89734 .cfa: sp 0 +
STACK CFI 89738 .cfa: x29 64 +
STACK CFI INIT 897dc 31c .cfa: sp 0 +
STACK CFI 897e0 .cfa: sp 192 +
STACK CFI 897f4 .cfa: x29 64 + x19: .cfa -8 + ^ x20: .cfa -16 + ^ x21: .cfa -24 + ^ x22: .cfa -32 + ^ x23: .cfa -48 + ^ .ra: .cfa -56 + ^ x29: .cfa -64 + ^
STACK CFI 899f0 .cfa: sp 192 +
STACK CFI 89a04 .cfa: sp 0 +
STACK CFI 89a08 .cfa: x29 64 +
STACK CFI INIT 89afc 144 .cfa: sp 0 +
STACK CFI 89b00 .cfa: sp 112 +
STACK CFI 89b18 .cfa: x29 80 + x19: .cfa -8 + ^ x20: .cfa -16 + ^ x21: .cfa -24 + ^ x22: .cfa -32 + ^ x23: .cfa -40 + ^ x24: .cfa -48 + ^ x25: .cfa -64 + ^ .ra: .cfa -72 + ^ x29: .cfa -80 + ^
STACK CFI 89bd4 .cfa: sp 112 +
STACK CFI 89bec .cfa: sp 0 +
STACK CFI 89bf0 .cfa: x29 80 +
STACK CFI INIT 89c40 a8 .cfa: sp 0 +
STACK CFI 89c44 .cfa: sp 32 +
STACK CFI 89c4c .cfa: x29 32 + x19: .cfa -16 + ^ .ra: .cfa -24 + ^ x29: .cfa -32 + ^
STACK CFI 89c80 .cfa: sp 32 +
STACK CFI 89c88 .cfa: sp 0 +
STACK CFI 89c8c .cfa: x29 32 +
STACK CFI 89c90 .cfa: sp 32 +
STACK CFI 89c98 .cfa: sp 0 +
STACK CFI 89c9c .cfa: x29 32 +
STACK CFI INIT 89d80 bc .cfa: sp 0 +
STACK CFI 89d84 .cfa: sp 80 +
STACK CFI 89d90 .cfa: x29 32 + x19: .cfa -8 + ^ x20: .cfa -16 + ^ .ra: .cfa -24 + ^ x29: .cfa -32 + ^
STACK CFI 89dfc .cfa: sp 80 +
STACK CFI 89e08 .cfa: sp 0 +
STACK CFI 89e0c .cfa: x29 32 +
STACK CFI INIT 89e3c 668 .cfa: sp 0 +
STACK CFI 89e40 .cfa: sp 224 +
STACK CFI 89e5c .cfa: x29 96 + x19: .cfa -8 + ^ x20: .cfa -16 + ^ x21: .cfa -24 + ^ x22: .cfa -32 + ^ x23: .cfa -40 + ^ x24: .cfa -48 + ^ x25: .cfa -56 + ^ x26: .cfa -64 + ^ x27: .cfa -80 + ^ .ra: .cfa -88 + ^ x29: .cfa -96 + ^
STACK CFI 89f84 .cfa: sp 224 +
STACK CFI 89fa0 .cfa: sp 0 +
STACK CFI 89fa4 .cfa: x29 96 +
STACK CFI 8a364 .cfa: sp 224 +
STACK CFI 8a380 .cfa: sp 0 +
STACK CFI 8a384 .cfa: x29 96 +
STACK CFI INIT 8a4d4 ab4 .cfa: sp 0 +
STACK CFI 8a4d8 .cfa: sp 96 +
STACK CFI 8a4f0 .cfa: x29 96 + x19: .cfa -8 + ^ x20: .cfa -16 + ^ x21: .cfa -24 + ^ x22: .cfa -32 + ^ x23: .cfa -40 + ^ x24: .cfa -48 + ^ x25: .cfa -56 + ^ x26: .cfa -64 + ^ x27: .cfa -72 + ^ x28: .cfa -80 + ^ .ra: .cfa -88 + ^ x29: .cfa -96 + ^
STACK CFI 8ae08 .cfa: sp 96 +
STACK CFI 8ae20 .cfa: sp 0 +
STACK CFI 8ae24 .cfa: x29 96 +
STACK CFI INIT 8afcc 310 .cfa: sp 0 +
STACK CFI 8afd0 .cfa: sp 192 +
STACK CFI 8afe4 .cfa: x29 64 + x19: .cfa -8 + ^ x20: .cfa -16 + ^ x21: .cfa -24 + ^ x22: .cfa -32 + ^ x23: .cfa -48 + ^ .ra: .cfa -56 + ^ x29: .cfa -64 + ^
STACK CFI 8b1d4 .cfa: sp 192 +
STACK CFI 8b1e8 .cfa: sp 0 +
STACK CFI 8b1ec .cfa: x29 64 +
STACK CFI INIT 8b2e0 138 .cfa: sp 0 +
STACK CFI 8b2e4 .cfa: sp 112 +
STACK CFI 8b2f8 .cfa: x29 64 + x19: .cfa -8 + ^ x20: .cfa -16 + ^ x21: .cfa -24 + ^ x22: .cfa -32 + ^ x23: .cfa -48 + ^ .ra: .cfa -56 + ^ x29: .cfa -64 + ^
STACK CFI 8b3b0 .cfa: sp 112 +
STACK CFI 8b3c4 .cfa: sp 0 +
STACK CFI 8b3c8 .cfa: x29 64 +
STACK CFI INIT 8b418 a8 .cfa: sp 0 +
STACK CFI 8b41c .cfa: sp 32 +
STACK CFI 8b424 .cfa: x29 32 + x19: .cfa -16 + ^ .ra: .cfa -24 + ^ x29: .cfa -32 + ^
STACK CFI 8b458 .cfa: sp 32 +
STACK CFI 8b460 .cfa: sp 0 +
STACK CFI 8b464 .cfa: x29 32 +
STACK CFI 8b468 .cfa: sp 32 +
STACK CFI 8b470 .cfa: sp 0 +
STACK CFI 8b474 .cfa: x29 32 +
STACK CFI INIT 8b55c b4 .cfa: sp 0 +
STACK CFI 8b560 .cfa: sp 80 +
STACK CFI 8b56c .cfa: x29 32 + x19: .cfa -8 + ^ x20: .cfa -16 + ^ .ra: .cfa -24 + ^ x29: .cfa -32 + ^
STACK CFI 8b5d0 .cfa: sp 80 +
STACK CFI 8b5dc .cfa: sp 0 +
STACK CFI 8b5e0 .cfa: x29 32 +
STACK CFI INIT 8b610 1d4 .cfa: sp 0 +
STACK CFI 8b614 .cfa: sp 112 +
STACK CFI 8b62c .cfa: x29 80 + x19: .cfa -8 + ^ x20: .cfa -16 + ^ x21: .cfa -24 + ^ x22: .cfa -32 + ^ x23: .cfa -40 + ^ x24: .cfa -48 + ^ x25: .cfa -64 + ^ .ra: .cfa -72 + ^ x29: .cfa -80 + ^
STACK CFI 8b780 .cfa: sp 112 +
STACK CFI 8b798 .cfa: sp 0 +
STACK CFI 8b79c .cfa: x29 80 +
STACK CFI INIT 8b7e4 668 .cfa: sp 0 +
STACK CFI 8b7e8 .cfa: sp 224 +
STACK CFI 8b804 .cfa: x29 96 + x19: .cfa -8 + ^ x20: .cfa -16 + ^ x21: .cfa -24 + ^ x22: .cfa -32 + ^ x23: .cfa -40 + ^ x24: .cfa -48 + ^ x25: .cfa -56 + ^ x26: .cfa -64 + ^ x27: .cfa -80 + ^ .ra: .cfa -88 + ^ x29: .cfa -96 + ^
STACK CFI 8b92c .cfa: sp 224 +
STACK CFI 8b948 .cfa: sp 0 +
STACK CFI 8b94c .cfa: x29 96 +
STACK CFI 8bd0c .cfa: sp 224 +
STACK CFI 8bd28 .cfa: sp 0 +
STACK CFI 8bd2c .cfa: x29 96 +
STACK CFI INIT 8be68 56c .cfa: sp 0 +
STACK CFI 8be6c .cfa: sp 160 +
STACK CFI 8be84 .cfa: x29 80 + x19: .cfa -8 + ^ x20: .cfa -16 + ^ x21: .cfa -24 + ^ x22: .cfa -32 + ^ x23: .cfa -40 + ^ x24: .cfa -48 + ^ x25: .cfa -64 + ^ .ra: .cfa -72 + ^ x29: .cfa -80 + ^
STACK CFI 8c360 .cfa: sp 160 +
STACK CFI 8c378 .cfa: sp 0 +
STACK CFI 8c37c .cfa: x29 80 +
STACK CFI INIT 8c418 310 .cfa: sp 0 +
STACK CFI 8c41c .cfa: sp 192 +
STACK CFI 8c430 .cfa: x29 64 + x19: .cfa -8 + ^ x20: .cfa -16 + ^ x21: .cfa -24 + ^ x22: .cfa -32 + ^ x23: .cfa -48 + ^ .ra: .cfa -56 + ^ x29: .cfa -64 + ^
STACK CFI 8c620 .cfa: sp 192 +
STACK CFI 8c634 .cfa: sp 0 +
STACK CFI 8c638 .cfa: x29 64 +
STACK CFI INIT 8c72c 144 .cfa: sp 0 +
STACK CFI 8c730 .cfa: sp 112 +
STACK CFI 8c748 .cfa: x29 80 + x19: .cfa -8 + ^ x20: .cfa -16 + ^ x21: .cfa -24 + ^ x22: .cfa -32 + ^ x23: .cfa -40 + ^ x24: .cfa -48 + ^ x25: .cfa -64 + ^ .ra: .cfa -72 + ^ x29: .cfa -80 + ^
STACK CFI 8c804 .cfa: sp 112 +
STACK CFI 8c81c .cfa: sp 0 +
STACK CFI 8c820 .cfa: x29 80 +
STACK CFI INIT 8c870 a8 .cfa: sp 0 +
STACK CFI 8c874 .cfa: sp 32 +
STACK CFI 8c87c .cfa: x29 32 + x19: .cfa -16 + ^ .ra: .cfa -24 + ^ x29: .cfa -32 + ^
STACK CFI 8c8b0 .cfa: sp 32 +
STACK CFI 8c8b8 .cfa: sp 0 +
STACK CFI 8c8bc .cfa: x29 32 +
STACK CFI 8c8c0 .cfa: sp 32 +
STACK CFI 8c8c8 .cfa: sp 0 +
STACK CFI 8c8cc .cfa: x29 32 +
STACK CFI INIT 8c9a4 bc .cfa: sp 0 +
STACK CFI 8c9a8 .cfa: sp 80 +
STACK CFI 8c9b4 .cfa: x29 32 + x19: .cfa -8 + ^ x20: .cfa -16 + ^ .ra: .cfa -24 + ^ x29: .cfa -32 + ^
STACK CFI 8ca20 .cfa: sp 80 +
STACK CFI 8ca2c .cfa: sp 0 +
STACK CFI 8ca30 .cfa: x29 32 +
STACK CFI INIT 8ca60 678 .cfa: sp 0 +
STACK CFI 8ca64 .cfa: sp 224 +
STACK CFI 8ca80 .cfa: x29 96 + x19: .cfa -8 + ^ x20: .cfa -16 + ^ x21: .cfa -24 + ^ x22: .cfa -32 + ^ x23: .cfa -40 + ^ x24: .cfa -48 + ^ x25: .cfa -56 + ^ x26: .cfa -64 + ^ x27: .cfa -80 + ^ .ra: .cfa -88 + ^ x29: .cfa -96 + ^
STACK CFI 8cbb8 .cfa: sp 224 +
STACK CFI 8cbd4 .cfa: sp 0 +
STACK CFI 8cbd8 .cfa: x29 96 +
STACK CFI 8cf98 .cfa: sp 224 +
STACK CFI 8cfb4 .cfa: sp 0 +
STACK CFI 8cfb8 .cfa: x29 96 +
STACK CFI INIT 8d0f4 13d0 .cfa: sp 0 +
STACK CFI 8d0f8 .cfa: sp 192 +
STACK CFI 8d118 .cfa: x29 96 + x19: .cfa -8 + ^ x20: .cfa -16 + ^ x21: .cfa -24 + ^ x22: .cfa -32 + ^ x23: .cfa -40 + ^ x24: .cfa -48 + ^ x25: .cfa -56 + ^ x26: .cfa -64 + ^ x27: .cfa -80 + ^ .ra: .cfa -88 + ^ x29: .cfa -96 + ^ v8: .cfa -104 + ^ v9: .cfa -112 + ^
STACK CFI 8e3f8 .cfa: sp 192 +
STACK CFI 8e418 .cfa: sp 0 +
STACK CFI 8e41c .cfa: x29 96 +
STACK CFI INIT 8e508 338 .cfa: sp 0 +
STACK CFI 8e50c .cfa: sp 240 +
STACK CFI 8e520 .cfa: x29 64 + x19: .cfa -8 + ^ x20: .cfa -16 + ^ x21: .cfa -24 + ^ x22: .cfa -32 + ^ x23: .cfa -48 + ^ .ra: .cfa -56 + ^ x29: .cfa -64 + ^
STACK CFI 8e730 .cfa: sp 240 +
STACK CFI 8e744 .cfa: sp 0 +
STACK CFI 8e748 .cfa: x29 64 +
STACK CFI INIT 8e844 13c .cfa: sp 0 +
STACK CFI 8e848 .cfa: sp 96 +
STACK CFI 8e85c .cfa: x29 64 + x19: .cfa -8 + ^ x20: .cfa -16 + ^ x21: .cfa -24 + ^ x22: .cfa -32 + ^ x23: .cfa -48 + ^ .ra: .cfa -56 + ^ x29: .cfa -64 + ^
STACK CFI 8e918 .cfa: sp 96 +
STACK CFI 8e92c .cfa: sp 0 +
STACK CFI 8e930 .cfa: x29 64 +
STACK CFI INIT 8e980 a8 .cfa: sp 0 +
STACK CFI 8e984 .cfa: sp 32 +
STACK CFI 8e98c .cfa: x29 32 + x19: .cfa -16 + ^ .ra: .cfa -24 + ^ x29: .cfa -32 + ^
STACK CFI 8e9c0 .cfa: sp 32 +
STACK CFI 8e9c8 .cfa: sp 0 +
STACK CFI 8e9cc .cfa: x29 32 +
STACK CFI 8e9d0 .cfa: sp 32 +
STACK CFI 8e9d8 .cfa: sp 0 +
STACK CFI 8e9dc .cfa: x29 32 +
STACK CFI INIT 8eab8 c0 .cfa: sp 0 +
STACK CFI 8eabc .cfa: sp 80 +
STACK CFI 8eac8 .cfa: x29 32 + x19: .cfa -8 + ^ x20: .cfa -16 + ^ .ra: .cfa -24 + ^ x29: .cfa -32 + ^
STACK CFI 8eb38 .cfa: sp 80 +
STACK CFI 8eb44 .cfa: sp 0 +
STACK CFI 8eb48 .cfa: x29 32 +
STACK CFI INIT 8eb78 678 .cfa: sp 0 +
STACK CFI 8eb7c .cfa: sp 240 +
STACK CFI 8eb98 .cfa: x29 96 + x19: .cfa -8 + ^ x20: .cfa -16 + ^ x21: .cfa -24 + ^ x22: .cfa -32 + ^ x23: .cfa -40 + ^ x24: .cfa -48 + ^ x25: .cfa -56 + ^ x26: .cfa -64 + ^ x27: .cfa -80 + ^ .ra: .cfa -88 + ^ x29: .cfa -96 + ^
STACK CFI 8ecd4 .cfa: sp 240 +
STACK CFI 8ecf0 .cfa: sp 0 +
STACK CFI 8ecf4 .cfa: x29 96 +
STACK CFI 8f0b0 .cfa: sp 240 +
STACK CFI 8f0cc .cfa: sp 0 +
STACK CFI 8f0d0 .cfa: x29 96 +
STACK CFI INIT 8f20c bc0 .cfa: sp 0 +
STACK CFI 8f210 .cfa: sp 208 +
STACK CFI 8f22c .cfa: x29 96 + x19: .cfa -8 + ^ x20: .cfa -16 + ^ x21: .cfa -24 + ^ x22: .cfa -32 + ^ x23: .cfa -40 + ^ x24: .cfa -48 + ^ x25: .cfa -56 + ^ x26: .cfa -64 + ^ x27: .cfa -72 + ^ x28: .cfa -80 + ^ .ra: .cfa -88 + ^ x29: .cfa -96 + ^
STACK CFI 8fcdc .cfa: sp 208 +
STACK CFI 8fcf8 .cfa: sp 0 +
STACK CFI 8fcfc .cfa: x29 96 +
STACK CFI INIT 8fe10 330 .cfa: sp 0 +
STACK CFI 8fe14 .cfa: sp 224 +
STACK CFI 8fe28 .cfa: x29 64 + x19: .cfa -8 + ^ x20: .cfa -16 + ^ x21: .cfa -24 + ^ x22: .cfa -32 + ^ x23: .cfa -48 + ^ .ra: .cfa -56 + ^ x29: .cfa -64 + ^
STACK CFI 90030 .cfa: sp 224 +
STACK CFI 90044 .cfa: sp 0 +
STACK CFI 90048 .cfa: x29 64 +
STACK CFI INIT 90144 134 .cfa: sp 0 +
STACK CFI 90148 .cfa: sp 96 +
STACK CFI 9015c .cfa: x29 64 + x19: .cfa -8 + ^ x20: .cfa -16 + ^ x21: .cfa -24 + ^ x22: .cfa -32 + ^ x23: .cfa -48 + ^ .ra: .cfa -56 + ^ x29: .cfa -64 + ^
STACK CFI 90210 .cfa: sp 96 +
STACK CFI 90224 .cfa: sp 0 +
STACK CFI 90228 .cfa: x29 64 +
STACK CFI INIT 90278 a8 .cfa: sp 0 +
STACK CFI 9027c .cfa: sp 32 +
STACK CFI 90284 .cfa: x29 32 + x19: .cfa -16 + ^ .ra: .cfa -24 + ^ x29: .cfa -32 + ^
STACK CFI 902b8 .cfa: sp 32 +
STACK CFI 902c0 .cfa: sp 0 +
STACK CFI 902c4 .cfa: x29 32 +
STACK CFI 902c8 .cfa: sp 32 +
STACK CFI 902d0 .cfa: sp 0 +
STACK CFI 902d4 .cfa: x29 32 +
STACK CFI INIT 903ac bc .cfa: sp 0 +
STACK CFI 903b0 .cfa: sp 80 +
STACK CFI 903bc .cfa: x29 32 + x19: .cfa -8 + ^ x20: .cfa -16 + ^ .ra: .cfa -24 + ^ x29: .cfa -32 + ^
STACK CFI 90428 .cfa: sp 80 +
STACK CFI 90434 .cfa: sp 0 +
STACK CFI 90438 .cfa: x29 32 +
STACK CFI INIT 90468 560 .cfa: sp 0 +
STACK CFI 9046c .cfa: sp 224 +
STACK CFI 90488 .cfa: x29 96 + x19: .cfa -8 + ^ x20: .cfa -16 + ^ x21: .cfa -24 + ^ x22: .cfa -32 + ^ x23: .cfa -40 + ^ x24: .cfa -48 + ^ x25: .cfa -56 + ^ x26: .cfa -64 + ^ x27: .cfa -80 + ^ .ra: .cfa -88 + ^ x29: .cfa -96 + ^
STACK CFI 907cc .cfa: sp 224 +
STACK CFI 907e8 .cfa: sp 0 +
STACK CFI 907ec .cfa: x29 96 +
STACK CFI 908b8 .cfa: sp 224 +
STACK CFI 908d4 .cfa: sp 0 +
STACK CFI 908d8 .cfa: x29 96 +
STACK CFI INIT 909e4 2c8 .cfa: sp 0 +
STACK CFI 909e8 .cfa: sp 128 +
STACK CFI 909f8 .cfa: x29 48 + x19: .cfa -8 + ^ x20: .cfa -16 + ^ x21: .cfa -24 + ^ x22: .cfa -32 + ^ .ra: .cfa -40 + ^ x29: .cfa -48 + ^
STACK CFI 90c44 .cfa: sp 128 +
STACK CFI 90c54 .cfa: sp 0 +
STACK CFI 90c58 .cfa: x29 48 +
STACK CFI INIT 90cf0 648 .cfa: sp 0 +
STACK CFI 90cf4 .cfa: sp 288 +
STACK CFI 90d10 .cfa: x29 96 + x19: .cfa -8 + ^ x20: .cfa -16 + ^ x21: .cfa -24 + ^ x22: .cfa -32 + ^ x23: .cfa -40 + ^ x24: .cfa -48 + ^ x25: .cfa -56 + ^ x26: .cfa -64 + ^ x27: .cfa -72 + ^ x28: .cfa -80 + ^ .ra: .cfa -88 + ^ x29: .cfa -96 + ^
STACK CFI 9115c .cfa: sp 288 +
STACK CFI 91178 .cfa: sp 0 +
STACK CFI 9117c .cfa: x29 96 +
STACK CFI INIT 9133c 248 .cfa: sp 0 +
STACK CFI 91340 .cfa: sp 144 +
STACK CFI 91354 .cfa: x29 64 + x19: .cfa -8 + ^ x20: .cfa -16 + ^ x21: .cfa -24 + ^ x22: .cfa -32 + ^ x23: .cfa -40 + ^ x24: .cfa -48 + ^ .ra: .cfa -56 + ^ x29: .cfa -64 + ^
STACK CFI 91508 .cfa: sp 144 +
STACK CFI 9151c .cfa: sp 0 +
STACK CFI 91520 .cfa: x29 64 +
STACK CFI INIT 91584 150 .cfa: sp 0 +
STACK CFI 91588 .cfa: sp 96 +
STACK CFI 9159c .cfa: x29 64 + x19: .cfa -8 + ^ x20: .cfa -16 + ^ x21: .cfa -24 + ^ x22: .cfa -32 + ^ x23: .cfa -40 + ^ x24: .cfa -48 + ^ .ra: .cfa -56 + ^ x29: .cfa -64 + ^
STACK CFI 9166c .cfa: sp 96 +
STACK CFI 91680 .cfa: sp 0 +
STACK CFI 91684 .cfa: x29 64 +
STACK CFI INIT 916d4 c44 .cfa: sp 0 +
STACK CFI 916d8 .cfa: sp 192 +
STACK CFI 916f4 .cfa: x29 96 + x19: .cfa -8 + ^ x20: .cfa -16 + ^ x21: .cfa -24 + ^ x22: .cfa -32 + ^ x23: .cfa -40 + ^ x24: .cfa -48 + ^ x25: .cfa -56 + ^ x26: .cfa -64 + ^ x27: .cfa -72 + ^ x28: .cfa -80 + ^ .ra: .cfa -88 + ^ x29: .cfa -96 + ^
STACK CFI 91f34 .cfa: sp 192 +
STACK CFI 91f50 .cfa: sp 0 +
STACK CFI 91f54 .cfa: x29 96 +
STACK CFI 92098 .cfa: sp 192 +
STACK CFI 920b4 .cfa: sp 0 +
STACK CFI 920b8 .cfa: x29 96 +
STACK CFI INIT 92318 18c .cfa: sp 0 +
STACK CFI 9231c .cfa: sp 112 +
STACK CFI 9232c .cfa: x29 48 + x19: .cfa -8 + ^ x20: .cfa -16 + ^ x21: .cfa -32 + ^ .ra: .cfa -40 + ^ x29: .cfa -48 + ^
STACK CFI 923f8 .cfa: sp 112 +
STACK CFI 92408 .cfa: sp 0 +
STACK CFI 9240c .cfa: x29 48 +
STACK CFI INIT 92508 b8 .cfa: sp 0 +
STACK CFI 9250c .cfa: sp 80 +
STACK CFI 92518 .cfa: x29 32 + x19: .cfa -8 + ^ x20: .cfa -16 + ^ .ra: .cfa -24 + ^ x29: .cfa -32 + ^
STACK CFI 92580 .cfa: sp 80 +
STACK CFI 9258c .cfa: sp 0 +
STACK CFI 92590 .cfa: x29 32 +
STACK CFI INIT 925c0 668 .cfa: sp 0 +
STACK CFI 925c4 .cfa: sp 224 +
STACK CFI 925e0 .cfa: x29 96 + x19: .cfa -8 + ^ x20: .cfa -16 + ^ x21: .cfa -24 + ^ x22: .cfa -32 + ^ x23: .cfa -40 + ^ x24: .cfa -48 + ^ x25: .cfa -56 + ^ x26: .cfa -64 + ^ x27: .cfa -80 + ^ .ra: .cfa -88 + ^ x29: .cfa -96 + ^
STACK CFI 92708 .cfa: sp 224 +
STACK CFI 92724 .cfa: sp 0 +
STACK CFI 92728 .cfa: x29 96 +
STACK CFI 92ae8 .cfa: sp 224 +
STACK CFI 92b04 .cfa: sp 0 +
STACK CFI 92b08 .cfa: x29 96 +
STACK CFI INIT 92c44 344 .cfa: sp 0 +
STACK CFI 92c48 .cfa: sp 144 +
STACK CFI 92c5c .cfa: x29 64 + x19: .cfa -8 + ^ x20: .cfa -16 + ^ x21: .cfa -24 + ^ x22: .cfa -32 + ^ x23: .cfa -48 + ^ .ra: .cfa -56 + ^ x29: .cfa -64 + ^
STACK CFI 92f1c .cfa: sp 144 +
STACK CFI 92f30 .cfa: sp 0 +
STACK CFI 92f34 .cfa: x29 64 +
STACK CFI INIT 92fcc 400 .cfa: sp 0 +
STACK CFI 92fd0 .cfa: sp 240 +
STACK CFI 92fe4 .cfa: x29 64 + x19: .cfa -8 + ^ x20: .cfa -16 + ^ x21: .cfa -24 + ^ x22: .cfa -32 + ^ x23: .cfa -48 + ^ .ra: .cfa -56 + ^ x29: .cfa -64 + ^
STACK CFI 93298 .cfa: sp 240 +
STACK CFI 932ac .cfa: sp 0 +
STACK CFI 932b0 .cfa: x29 64 +
STACK CFI INIT 933d0 148 .cfa: sp 0 +
STACK CFI 933d4 .cfa: sp 96 +
STACK CFI 933e8 .cfa: x29 64 + x19: .cfa -8 + ^ x20: .cfa -16 + ^ x21: .cfa -24 + ^ x22: .cfa -32 + ^ x23: .cfa -40 + ^ x24: .cfa -48 + ^ .ra: .cfa -56 + ^ x29: .cfa -64 + ^
STACK CFI 934b0 .cfa: sp 96 +
STACK CFI 934c4 .cfa: sp 0 +
STACK CFI 934c8 .cfa: x29 64 +
STACK CFI INIT 93518 c0 .cfa: sp 0 +
STACK CFI 9351c .cfa: sp 80 +
STACK CFI 93528 .cfa: x29 32 + x19: .cfa -8 + ^ x20: .cfa -16 + ^ .ra: .cfa -24 + ^ x29: .cfa -32 + ^
STACK CFI 93598 .cfa: sp 80 +
STACK CFI 935a4 .cfa: sp 0 +
STACK CFI 935a8 .cfa: x29 32 +
STACK CFI INIT 938c0 560 .cfa: sp 0 +
STACK CFI 938c4 .cfa: sp 224 +
STACK CFI 938e0 .cfa: x29 96 + x19: .cfa -8 + ^ x20: .cfa -16 + ^ x21: .cfa -24 + ^ x22: .cfa -32 + ^ x23: .cfa -40 + ^ x24: .cfa -48 + ^ x25: .cfa -56 + ^ x26: .cfa -64 + ^ x27: .cfa -80 + ^ .ra: .cfa -88 + ^ x29: .cfa -96 + ^
STACK CFI 93c24 .cfa: sp 224 +
STACK CFI 93c40 .cfa: sp 0 +
STACK CFI 93c44 .cfa: x29 96 +
STACK CFI 93d10 .cfa: sp 224 +
STACK CFI 93d2c .cfa: sp 0 +
STACK CFI 93d30 .cfa: x29 96 +
STACK CFI INIT 93e3c fa4 .cfa: sp 0 +
STACK CFI 93e40 .cfa: sp 160 +
STACK CFI 93e58 .cfa: x29 80 + x19: .cfa -8 + ^ x20: .cfa -16 + ^ x21: .cfa -24 + ^ x22: .cfa -32 + ^ x23: .cfa -40 + ^ x24: .cfa -48 + ^ x25: .cfa -64 + ^ .ra: .cfa -72 + ^ x29: .cfa -80 + ^
STACK CFI 94d2c .cfa: sp 160 +
STACK CFI 94d44 .cfa: sp 0 +
STACK CFI 94d48 .cfa: x29 80 +
STACK CFI INIT 94e24 688 .cfa: sp 0 +
STACK CFI 94e28 .cfa: sp 288 +
STACK CFI 94e44 .cfa: x29 96 + x19: .cfa -8 + ^ x20: .cfa -16 + ^ x21: .cfa -24 + ^ x22: .cfa -32 + ^ x23: .cfa -40 + ^ x24: .cfa -48 + ^ x25: .cfa -56 + ^ x26: .cfa -64 + ^ x28: .cfa -80 + ^ .ra: .cfa -88 + ^ x29: .cfa -96 + ^
STACK CFI 952bc .cfa: sp 288 +
STACK CFI 952d8 .cfa: sp 0 +
STACK CFI 952dc .cfa: x29 96 +
STACK CFI INIT 954b0 248 .cfa: sp 0 +
STACK CFI 954b4 .cfa: sp 144 +
STACK CFI 954c8 .cfa: x29 64 + x19: .cfa -8 + ^ x20: .cfa -16 + ^ x21: .cfa -24 + ^ x22: .cfa -32 + ^ x23: .cfa -40 + ^ x24: .cfa -48 + ^ .ra: .cfa -56 + ^ x29: .cfa -64 + ^
STACK CFI 9567c .cfa: sp 144 +
STACK CFI 95690 .cfa: sp 0 +
STACK CFI 95694 .cfa: x29 64 +
STACK CFI INIT 95734 134 .cfa: sp 0 +
STACK CFI 95738 .cfa: sp 96 +
STACK CFI 9574c .cfa: x29 64 + x19: .cfa -8 + ^ x20: .cfa -16 + ^ x21: .cfa -24 + ^ x22: .cfa -32 + ^ x23: .cfa -48 + ^ .ra: .cfa -56 + ^ x29: .cfa -64 + ^
STACK CFI 95800 .cfa: sp 96 +
STACK CFI 95814 .cfa: sp 0 +
STACK CFI 95818 .cfa: x29 64 +
STACK CFI INIT 95868 1ffc .cfa: sp 0 +
STACK CFI 9586c .cfa: sp 112 +
STACK CFI 95888 .cfa: x29 96 + x19: .cfa -8 + ^ x20: .cfa -16 + ^ x21: .cfa -24 + ^ x22: .cfa -32 + ^ x23: .cfa -40 + ^ x24: .cfa -48 + ^ x25: .cfa -56 + ^ x26: .cfa -64 + ^ x27: .cfa -72 + ^ x28: .cfa -80 + ^ .ra: .cfa -88 + ^ x29: .cfa -96 + ^ v8: .cfa -104 + ^ v9: .cfa -112 + ^
STACK CFI 97744 .cfa: sp 112 +
STACK CFI 97760 .cfa: sp 0 +
STACK CFI 97764 .cfa: x29 96 +
STACK CFI INIT 97864 c0 .cfa: sp 0 +
STACK CFI 97868 .cfa: sp 80 +
STACK CFI 97874 .cfa: x29 32 + x19: .cfa -8 + ^ x20: .cfa -16 + ^ .ra: .cfa -24 + ^ x29: .cfa -32 + ^
STACK CFI 978e4 .cfa: sp 80 +
STACK CFI 978f0 .cfa: sp 0 +
STACK CFI 978f4 .cfa: x29 32 +
STACK CFI INIT 979d0 664 .cfa: sp 0 +
STACK CFI 979d4 .cfa: sp 224 +
STACK CFI 979f0 .cfa: x29 96 + x19: .cfa -8 + ^ x20: .cfa -16 + ^ x21: .cfa -24 + ^ x22: .cfa -32 + ^ x23: .cfa -40 + ^ x24: .cfa -48 + ^ x25: .cfa -56 + ^ x26: .cfa -64 + ^ x27: .cfa -80 + ^ .ra: .cfa -88 + ^ x29: .cfa -96 + ^
STACK CFI 97b14 .cfa: sp 224 +
STACK CFI 97b30 .cfa: sp 0 +
STACK CFI 97b34 .cfa: x29 96 +
STACK CFI 97ef4 .cfa: sp 224 +
STACK CFI 97f10 .cfa: sp 0 +
STACK CFI 97f14 .cfa: x29 96 +
STACK CFI INIT 98050 8b4 .cfa: sp 0 +
STACK CFI 98054 .cfa: sp 288 +
STACK CFI 98070 .cfa: x29 96 + x19: .cfa -8 + ^ x20: .cfa -16 + ^ x21: .cfa -24 + ^ x22: .cfa -32 + ^ x23: .cfa -40 + ^ x24: .cfa -48 + ^ x25: .cfa -56 + ^ x26: .cfa -64 + ^ x27: .cfa -72 + ^ x28: .cfa -80 + ^ .ra: .cfa -88 + ^ x29: .cfa -96 + ^
STACK CFI 98814 .cfa: sp 288 +
STACK CFI 98830 .cfa: sp 0 +
STACK CFI 98834 .cfa: x29 96 +
STACK CFI INIT 98948 30c .cfa: sp 0 +
STACK CFI 9894c .cfa: sp 192 +
STACK CFI 98960 .cfa: x29 64 + x19: .cfa -8 + ^ x20: .cfa -16 + ^ x21: .cfa -24 + ^ x22: .cfa -32 + ^ x23: .cfa -48 + ^ .ra: .cfa -56 + ^ x29: .cfa -64 + ^
STACK CFI 98b4c .cfa: sp 192 +
STACK CFI 98b60 .cfa: sp 0 +
STACK CFI 98b64 .cfa: x29 64 +
STACK CFI INIT 98c58 148 .cfa: sp 0 +
STACK CFI 98c5c .cfa: sp 96 +
STACK CFI 98c70 .cfa: x29 64 + x19: .cfa -8 + ^ x20: .cfa -16 + ^ x21: .cfa -24 + ^ x22: .cfa -32 + ^ x23: .cfa -40 + ^ x24: .cfa -48 + ^ .ra: .cfa -56 + ^ x29: .cfa -64 + ^
STACK CFI 98d38 .cfa: sp 96 +
STACK CFI 98d4c .cfa: sp 0 +
STACK CFI 98d50 .cfa: x29 64 +
STACK CFI INIT 98da0 a8 .cfa: sp 0 +
STACK CFI 98da4 .cfa: sp 32 +
STACK CFI 98dac .cfa: x29 32 + x19: .cfa -16 + ^ .ra: .cfa -24 + ^ x29: .cfa -32 + ^
STACK CFI 98de0 .cfa: sp 32 +
STACK CFI 98de8 .cfa: sp 0 +
STACK CFI 98dec .cfa: x29 32 +
STACK CFI 98df0 .cfa: sp 32 +
STACK CFI 98df8 .cfa: sp 0 +
STACK CFI 98dfc .cfa: x29 32 +
STACK CFI INIT 98edc c0 .cfa: sp 0 +
STACK CFI 98ee0 .cfa: sp 80 +
STACK CFI 98eec .cfa: x29 32 + x19: .cfa -8 + ^ x20: .cfa -16 + ^ .ra: .cfa -24 + ^ x29: .cfa -32 + ^
STACK CFI 98f5c .cfa: sp 80 +
STACK CFI 98f68 .cfa: sp 0 +
STACK CFI 98f6c .cfa: x29 32 +
STACK CFI INIT 98f9c 664 .cfa: sp 0 +
STACK CFI 98fa0 .cfa: sp 224 +
STACK CFI 98fbc .cfa: x29 96 + x19: .cfa -8 + ^ x20: .cfa -16 + ^ x21: .cfa -24 + ^ x22: .cfa -32 + ^ x23: .cfa -40 + ^ x24: .cfa -48 + ^ x25: .cfa -56 + ^ x26: .cfa -64 + ^ x27: .cfa -80 + ^ .ra: .cfa -88 + ^ x29: .cfa -96 + ^
STACK CFI 990e0 .cfa: sp 224 +
STACK CFI 990fc .cfa: sp 0 +
STACK CFI 99100 .cfa: x29 96 +
STACK CFI 994c0 .cfa: sp 224 +
STACK CFI 994dc .cfa: sp 0 +
STACK CFI 994e0 .cfa: x29 96 +
STACK CFI INIT 9961c 284 .cfa: sp 0 +
STACK CFI 99620 .cfa: sp 128 +
STACK CFI 99630 .cfa: x29 48 + x19: .cfa -8 + ^ x20: .cfa -16 + ^ x21: .cfa -24 + ^ x22: .cfa -32 + ^ .ra: .cfa -40 + ^ x29: .cfa -48 + ^
STACK CFI 99838 .cfa: sp 128 +
STACK CFI 99848 .cfa: sp 0 +
STACK CFI 9984c .cfa: x29 48 +
STACK CFI INIT 998e4 30c .cfa: sp 0 +
STACK CFI 998e8 .cfa: sp 192 +
STACK CFI 998fc .cfa: x29 64 + x19: .cfa -8 + ^ x20: .cfa -16 + ^ x21: .cfa -24 + ^ x22: .cfa -32 + ^ x23: .cfa -48 + ^ .ra: .cfa -56 + ^ x29: .cfa -64 + ^
STACK CFI 99ae8 .cfa: sp 192 +
STACK CFI 99afc .cfa: sp 0 +
STACK CFI 99b00 .cfa: x29 64 +
STACK CFI INIT 99bf4 148 .cfa: sp 0 +
STACK CFI 99bf8 .cfa: sp 96 +
STACK CFI 99c0c .cfa: x29 64 + x19: .cfa -8 + ^ x20: .cfa -16 + ^ x21: .cfa -24 + ^ x22: .cfa -32 + ^ x23: .cfa -40 + ^ x24: .cfa -48 + ^ .ra: .cfa -56 + ^ x29: .cfa -64 + ^
STACK CFI 99cd4 .cfa: sp 96 +
STACK CFI 99ce8 .cfa: sp 0 +
STACK CFI 99cec .cfa: x29 64 +
STACK CFI INIT 99d3c a8 .cfa: sp 0 +
STACK CFI 99d40 .cfa: sp 32 +
STACK CFI 99d48 .cfa: x29 32 + x19: .cfa -16 + ^ .ra: .cfa -24 + ^ x29: .cfa -32 + ^
STACK CFI 99d7c .cfa: sp 32 +
STACK CFI 99d84 .cfa: sp 0 +
STACK CFI 99d88 .cfa: x29 32 +
STACK CFI 99d8c .cfa: sp 32 +
STACK CFI 99d94 .cfa: sp 0 +
STACK CFI 99d98 .cfa: x29 32 +
STACK CFI INIT 99e7c c0 .cfa: sp 0 +
STACK CFI 99e80 .cfa: sp 80 +
STACK CFI 99e8c .cfa: x29 32 + x19: .cfa -8 + ^ x20: .cfa -16 + ^ .ra: .cfa -24 + ^ x29: .cfa -32 + ^
STACK CFI 99efc .cfa: sp 80 +
STACK CFI 99f08 .cfa: sp 0 +
STACK CFI 99f0c .cfa: x29 32 +
STACK CFI INIT 99f3c 668 .cfa: sp 0 +
STACK CFI 99f40 .cfa: sp 224 +
STACK CFI 99f5c .cfa: x29 96 + x19: .cfa -8 + ^ x20: .cfa -16 + ^ x21: .cfa -24 + ^ x22: .cfa -32 + ^ x23: .cfa -40 + ^ x24: .cfa -48 + ^ x25: .cfa -56 + ^ x26: .cfa -64 + ^ x27: .cfa -80 + ^ .ra: .cfa -88 + ^ x29: .cfa -96 + ^
STACK CFI 9a084 .cfa: sp 224 +
STACK CFI 9a0a0 .cfa: sp 0 +
STACK CFI 9a0a4 .cfa: x29 96 +
STACK CFI 9a464 .cfa: sp 224 +
STACK CFI 9a480 .cfa: sp 0 +
STACK CFI 9a484 .cfa: x29 96 +
STACK CFI INIT 9a5c0 2f4 .cfa: sp 0 +
STACK CFI 9a5c4 .cfa: sp 128 +
STACK CFI 9a5d4 .cfa: x29 48 + x19: .cfa -8 + ^ x20: .cfa -16 + ^ x21: .cfa -24 + ^ x22: .cfa -32 + ^ .ra: .cfa -40 + ^ x29: .cfa -48 + ^
STACK CFI 9a84c .cfa: sp 128 +
STACK CFI 9a85c .cfa: sp 0 +
STACK CFI 9a860 .cfa: x29 48 +
STACK CFI INIT 9a8f8 314 .cfa: sp 0 +
STACK CFI 9a8fc .cfa: sp 192 +
STACK CFI 9a910 .cfa: x29 64 + x19: .cfa -8 + ^ x20: .cfa -16 + ^ x21: .cfa -24 + ^ x22: .cfa -32 + ^ x23: .cfa -48 + ^ .ra: .cfa -56 + ^ x29: .cfa -64 + ^
STACK CFI 9ab04 .cfa: sp 192 +
STACK CFI 9ab18 .cfa: sp 0 +
STACK CFI 9ab1c .cfa: x29 64 +
STACK CFI INIT 9ac10 148 .cfa: sp 0 +
STACK CFI 9ac14 .cfa: sp 96 +
STACK CFI 9ac28 .cfa: x29 64 + x19: .cfa -8 + ^ x20: .cfa -16 + ^ x21: .cfa -24 + ^ x22: .cfa -32 + ^ x23: .cfa -40 + ^ x24: .cfa -48 + ^ .ra: .cfa -56 + ^ x29: .cfa -64 + ^
STACK CFI 9acf0 .cfa: sp 96 +
STACK CFI 9ad04 .cfa: sp 0 +
STACK CFI 9ad08 .cfa: x29 64 +
STACK CFI INIT 9ad58 a8 .cfa: sp 0 +
STACK CFI 9ad5c .cfa: sp 32 +
STACK CFI 9ad64 .cfa: x29 32 + x19: .cfa -16 + ^ .ra: .cfa -24 + ^ x29: .cfa -32 + ^
STACK CFI 9ad98 .cfa: sp 32 +
STACK CFI 9ada0 .cfa: sp 0 +
STACK CFI 9ada4 .cfa: x29 32 +
STACK CFI 9ada8 .cfa: sp 32 +
STACK CFI 9adb0 .cfa: sp 0 +
STACK CFI 9adb4 .cfa: x29 32 +
STACK CFI INIT 9aea0 c0 .cfa: sp 0 +
STACK CFI 9aea4 .cfa: sp 80 +
STACK CFI 9aeb0 .cfa: x29 32 + x19: .cfa -8 + ^ x20: .cfa -16 + ^ .ra: .cfa -24 + ^ x29: .cfa -32 + ^
STACK CFI 9af20 .cfa: sp 80 +
STACK CFI 9af2c .cfa: sp 0 +
STACK CFI 9af30 .cfa: x29 32 +
STACK CFI INIT 9af60 668 .cfa: sp 0 +
STACK CFI 9af64 .cfa: sp 224 +
STACK CFI 9af80 .cfa: x29 96 + x19: .cfa -8 + ^ x20: .cfa -16 + ^ x21: .cfa -24 + ^ x22: .cfa -32 + ^ x23: .cfa -40 + ^ x24: .cfa -48 + ^ x25: .cfa -56 + ^ x26: .cfa -64 + ^ x27: .cfa -80 + ^ .ra: .cfa -88 + ^ x29: .cfa -96 + ^
STACK CFI 9b0a8 .cfa: sp 224 +
STACK CFI 9b0c4 .cfa: sp 0 +
STACK CFI 9b0c8 .cfa: x29 96 +
STACK CFI 9b488 .cfa: sp 224 +
STACK CFI 9b4a4 .cfa: sp 0 +
STACK CFI 9b4a8 .cfa: x29 96 +
STACK CFI INIT 9b5e4 2f4 .cfa: sp 0 +
STACK CFI 9b5e8 .cfa: sp 128 +
STACK CFI 9b5f8 .cfa: x29 48 + x19: .cfa -8 + ^ x20: .cfa -16 + ^ x21: .cfa -32 + ^ .ra: .cfa -40 + ^ x29: .cfa -48 + ^
STACK CFI 9b870 .cfa: sp 128 +
STACK CFI 9b880 .cfa: sp 0 +
STACK CFI 9b884 .cfa: x29 48 +
STACK CFI INIT 9b91c 314 .cfa: sp 0 +
STACK CFI 9b920 .cfa: sp 192 +
STACK CFI 9b934 .cfa: x29 64 + x19: .cfa -8 + ^ x20: .cfa -16 + ^ x21: .cfa -24 + ^ x22: .cfa -32 + ^ x23: .cfa -48 + ^ .ra: .cfa -56 + ^ x29: .cfa -64 + ^
STACK CFI 9bb28 .cfa: sp 192 +
STACK CFI 9bb3c .cfa: sp 0 +
STACK CFI 9bb40 .cfa: x29 64 +
STACK CFI INIT 9bc34 148 .cfa: sp 0 +
STACK CFI 9bc38 .cfa: sp 96 +
STACK CFI 9bc4c .cfa: x29 64 + x19: .cfa -8 + ^ x20: .cfa -16 + ^ x21: .cfa -24 + ^ x22: .cfa -32 + ^ x23: .cfa -40 + ^ x24: .cfa -48 + ^ .ra: .cfa -56 + ^ x29: .cfa -64 + ^
STACK CFI 9bd14 .cfa: sp 96 +
STACK CFI 9bd28 .cfa: sp 0 +
STACK CFI 9bd2c .cfa: x29 64 +
STACK CFI INIT 9bd7c a8 .cfa: sp 0 +
STACK CFI 9bd80 .cfa: sp 32 +
STACK CFI 9bd88 .cfa: x29 32 + x19: .cfa -16 + ^ .ra: .cfa -24 + ^ x29: .cfa -32 + ^
STACK CFI 9bdbc .cfa: sp 32 +
STACK CFI 9bdc4 .cfa: sp 0 +
STACK CFI 9bdc8 .cfa: x29 32 +
STACK CFI 9bdcc .cfa: sp 32 +
STACK CFI 9bdd4 .cfa: sp 0 +
STACK CFI 9bdd8 .cfa: x29 32 +
STACK CFI INIT 9bebc c0 .cfa: sp 0 +
STACK CFI 9bec0 .cfa: sp 80 +
STACK CFI 9becc .cfa: x29 32 + x19: .cfa -8 + ^ x20: .cfa -16 + ^ .ra: .cfa -24 + ^ x29: .cfa -32 + ^
STACK CFI 9bf3c .cfa: sp 80 +
STACK CFI 9bf48 .cfa: sp 0 +
STACK CFI 9bf4c .cfa: x29 32 +
STACK CFI INIT 9bf7c 668 .cfa: sp 0 +
STACK CFI 9bf80 .cfa: sp 224 +
STACK CFI 9bf9c .cfa: x29 96 + x19: .cfa -8 + ^ x20: .cfa -16 + ^ x21: .cfa -24 + ^ x22: .cfa -32 + ^ x23: .cfa -40 + ^ x24: .cfa -48 + ^ x25: .cfa -56 + ^ x26: .cfa -64 + ^ x27: .cfa -80 + ^ .ra: .cfa -88 + ^ x29: .cfa -96 + ^
STACK CFI 9c0c4 .cfa: sp 224 +
STACK CFI 9c0e0 .cfa: sp 0 +
STACK CFI 9c0e4 .cfa: x29 96 +
STACK CFI 9c4a4 .cfa: sp 224 +
STACK CFI 9c4c0 .cfa: sp 0 +
STACK CFI 9c4c4 .cfa: x29 96 +
STACK CFI INIT 9c600 27c .cfa: sp 0 +
STACK CFI 9c604 .cfa: sp 128 +
STACK CFI 9c614 .cfa: x29 48 + x19: .cfa -8 + ^ x20: .cfa -16 + ^ x21: .cfa -24 + ^ x22: .cfa -32 + ^ .ra: .cfa -40 + ^ x29: .cfa -48 + ^
STACK CFI 9c814 .cfa: sp 128 +
STACK CFI 9c824 .cfa: sp 0 +
STACK CFI 9c828 .cfa: x29 48 +
STACK CFI INIT 9c8c0 314 .cfa: sp 0 +
STACK CFI 9c8c4 .cfa: sp 192 +
STACK CFI 9c8d8 .cfa: x29 64 + x19: .cfa -8 + ^ x20: .cfa -16 + ^ x21: .cfa -24 + ^ x22: .cfa -32 + ^ x23: .cfa -48 + ^ .ra: .cfa -56 + ^ x29: .cfa -64 + ^
STACK CFI 9cacc .cfa: sp 192 +
STACK CFI 9cae0 .cfa: sp 0 +
STACK CFI 9cae4 .cfa: x29 64 +
STACK CFI INIT 9cbd8 148 .cfa: sp 0 +
STACK CFI 9cbdc .cfa: sp 96 +
STACK CFI 9cbf0 .cfa: x29 64 + x19: .cfa -8 + ^ x20: .cfa -16 + ^ x21: .cfa -24 + ^ x22: .cfa -32 + ^ x23: .cfa -40 + ^ x24: .cfa -48 + ^ .ra: .cfa -56 + ^ x29: .cfa -64 + ^
STACK CFI 9ccb8 .cfa: sp 96 +
STACK CFI 9cccc .cfa: sp 0 +
STACK CFI 9ccd0 .cfa: x29 64 +
STACK CFI INIT 9cd20 a8 .cfa: sp 0 +
STACK CFI 9cd24 .cfa: sp 32 +
STACK CFI 9cd2c .cfa: x29 32 + x19: .cfa -16 + ^ .ra: .cfa -24 + ^ x29: .cfa -32 + ^
STACK CFI 9cd60 .cfa: sp 32 +
STACK CFI 9cd68 .cfa: sp 0 +
STACK CFI 9cd6c .cfa: x29 32 +
STACK CFI 9cd70 .cfa: sp 32 +
STACK CFI 9cd78 .cfa: sp 0 +
STACK CFI 9cd7c .cfa: x29 32 +
STACK CFI INIT 9ce68 c0 .cfa: sp 0 +
STACK CFI 9ce6c .cfa: sp 80 +
STACK CFI 9ce78 .cfa: x29 32 + x19: .cfa -8 + ^ x20: .cfa -16 + ^ .ra: .cfa -24 + ^ x29: .cfa -32 + ^
STACK CFI 9cee8 .cfa: sp 80 +
STACK CFI 9cef4 .cfa: sp 0 +
STACK CFI 9cef8 .cfa: x29 32 +
STACK CFI INIT 9cf28 668 .cfa: sp 0 +
STACK CFI 9cf2c .cfa: sp 224 +
STACK CFI 9cf48 .cfa: x29 96 + x19: .cfa -8 + ^ x20: .cfa -16 + ^ x21: .cfa -24 + ^ x22: .cfa -32 + ^ x23: .cfa -40 + ^ x24: .cfa -48 + ^ x25: .cfa -56 + ^ x26: .cfa -64 + ^ x27: .cfa -80 + ^ .ra: .cfa -88 + ^ x29: .cfa -96 + ^
STACK CFI 9d070 .cfa: sp 224 +
STACK CFI 9d08c .cfa: sp 0 +
STACK CFI 9d090 .cfa: x29 96 +
STACK CFI 9d450 .cfa: sp 224 +
STACK CFI 9d46c .cfa: sp 0 +
STACK CFI 9d470 .cfa: x29 96 +
STACK CFI INIT 9d5ac 5e8 .cfa: sp 0 +
STACK CFI 9d5b0 .cfa: sp 144 +
STACK CFI 9d5c4 .cfa: x29 64 + x19: .cfa -8 + ^ x20: .cfa -16 + ^ x21: .cfa -24 + ^ x22: .cfa -32 + ^ x23: .cfa -40 + ^ x24: .cfa -48 + ^ .ra: .cfa -56 + ^ x29: .cfa -64 + ^
STACK CFI 9db10 .cfa: sp 144 +
STACK CFI 9db24 .cfa: sp 0 +
STACK CFI 9db28 .cfa: x29 64 +
STACK CFI INIT 9dbd8 314 .cfa: sp 0 +
STACK CFI 9dbdc .cfa: sp 192 +
STACK CFI 9dbf0 .cfa: x29 64 + x19: .cfa -8 + ^ x20: .cfa -16 + ^ x21: .cfa -24 + ^ x22: .cfa -32 + ^ x23: .cfa -48 + ^ .ra: .cfa -56 + ^ x29: .cfa -64 + ^
STACK CFI 9dde4 .cfa: sp 192 +
STACK CFI 9ddf8 .cfa: sp 0 +
STACK CFI 9ddfc .cfa: x29 64 +
STACK CFI INIT 9def0 148 .cfa: sp 0 +
STACK CFI 9def4 .cfa: sp 96 +
STACK CFI 9df08 .cfa: x29 64 + x19: .cfa -8 + ^ x20: .cfa -16 + ^ x21: .cfa -24 + ^ x22: .cfa -32 + ^ x23: .cfa -40 + ^ x24: .cfa -48 + ^ .ra: .cfa -56 + ^ x29: .cfa -64 + ^
STACK CFI 9dfd0 .cfa: sp 96 +
STACK CFI 9dfe4 .cfa: sp 0 +
STACK CFI 9dfe8 .cfa: x29 64 +
STACK CFI INIT 9e038 a8 .cfa: sp 0 +
STACK CFI 9e03c .cfa: sp 32 +
STACK CFI 9e044 .cfa: x29 32 + x19: .cfa -16 + ^ .ra: .cfa -24 + ^ x29: .cfa -32 + ^
STACK CFI 9e078 .cfa: sp 32 +
STACK CFI 9e080 .cfa: sp 0 +
STACK CFI 9e084 .cfa: x29 32 +
STACK CFI 9e088 .cfa: sp 32 +
STACK CFI 9e090 .cfa: sp 0 +
STACK CFI 9e094 .cfa: x29 32 +
STACK CFI INIT 9e168 c0 .cfa: sp 0 +
STACK CFI 9e16c .cfa: sp 80 +
STACK CFI 9e178 .cfa: x29 32 + x19: .cfa -8 + ^ x20: .cfa -16 + ^ .ra: .cfa -24 + ^ x29: .cfa -32 + ^
STACK CFI 9e1e8 .cfa: sp 80 +
STACK CFI 9e1f4 .cfa: sp 0 +
STACK CFI 9e1f8 .cfa: x29 32 +
STACK CFI INIT 9e228 244 .cfa: sp 0 +
STACK CFI 9e22c .cfa: sp 80 +
STACK CFI 9e23c .cfa: x29 48 + x19: .cfa -8 + ^ x20: .cfa -16 + ^ x21: .cfa -24 + ^ x22: .cfa -32 + ^ .ra: .cfa -40 + ^ x29: .cfa -48 + ^
STACK CFI 9e418 .cfa: sp 80 +
STACK CFI 9e428 .cfa: sp 0 +
STACK CFI 9e42c .cfa: x29 48 +
STACK CFI INIT 9e46c 12f0 .cfa: sp 0 +
STACK CFI 9e470 .cfa: sp 240 +
STACK CFI 9e484 .cfa: x29 64 + x19: .cfa -8 + ^ x20: .cfa -16 + ^ x21: .cfa -24 + ^ x22: .cfa -32 + ^ x23: .cfa -40 + ^ x24: .cfa -48 + ^ .ra: .cfa -56 + ^ x29: .cfa -64 + ^
STACK CFI 9f490 .cfa: sp 240 +
STACK CFI 9f4a4 .cfa: sp 0 +
STACK CFI 9f4a8 .cfa: x29 64 +
STACK CFI INIT 9f75c 678 .cfa: sp 0 +
STACK CFI 9f760 .cfa: sp 224 +
STACK CFI 9f77c .cfa: x29 96 + x19: .cfa -8 + ^ x20: .cfa -16 + ^ x21: .cfa -24 + ^ x22: .cfa -32 + ^ x23: .cfa -40 + ^ x24: .cfa -48 + ^ x25: .cfa -56 + ^ x26: .cfa -64 + ^ x27: .cfa -80 + ^ .ra: .cfa -88 + ^ x29: .cfa -96 + ^
STACK CFI 9f8b4 .cfa: sp 224 +
STACK CFI 9f8d0 .cfa: sp 0 +
STACK CFI 9f8d4 .cfa: x29 96 +
STACK CFI 9fc94 .cfa: sp 224 +
STACK CFI 9fcb0 .cfa: sp 0 +
STACK CFI 9fcb4 .cfa: x29 96 +
STACK CFI INIT 9fdf0 afc .cfa: sp 0 +
STACK CFI 9fdf4 .cfa: sp 176 +
STACK CFI 9fe0c .cfa: x29 80 + x19: .cfa -8 + ^ x20: .cfa -16 + ^ x21: .cfa -24 + ^ x22: .cfa -32 + ^ x23: .cfa -40 + ^ x24: .cfa -48 + ^ x25: .cfa -64 + ^ .ra: .cfa -72 + ^ x29: .cfa -80 + ^
STACK CFI a0868 .cfa: sp 176 +
STACK CFI a0880 .cfa: sp 0 +
STACK CFI a0884 .cfa: x29 80 +
STACK CFI INIT a0930 380 .cfa: sp 0 +
STACK CFI a0934 .cfa: sp 240 +
STACK CFI a0948 .cfa: x29 64 + x19: .cfa -8 + ^ x20: .cfa -16 + ^ x21: .cfa -24 + ^ x22: .cfa -32 + ^ x23: .cfa -40 + ^ x24: .cfa -48 + ^ .ra: .cfa -56 + ^ x29: .cfa -64 + ^
STACK CFI a0b84 .cfa: sp 240 +
STACK CFI a0b98 .cfa: sp 0 +
STACK CFI a0b9c .cfa: x29 64 +
STACK CFI INIT a0cb4 148 .cfa: sp 0 +
STACK CFI a0cb8 .cfa: sp 112 +
STACK CFI a0ccc .cfa: x29 64 + x19: .cfa -8 + ^ x20: .cfa -16 + ^ x21: .cfa -24 + ^ x22: .cfa -32 + ^ x23: .cfa -48 + ^ .ra: .cfa -56 + ^ x29: .cfa -64 + ^
STACK CFI a0d94 .cfa: sp 112 +
STACK CFI a0da8 .cfa: sp 0 +
STACK CFI a0dac .cfa: x29 64 +
STACK CFI INIT a0dfc bc .cfa: sp 0 +
STACK CFI a0e00 .cfa: sp 80 +
STACK CFI a0e0c .cfa: x29 32 + x19: .cfa -8 + ^ x20: .cfa -16 + ^ .ra: .cfa -24 + ^ x29: .cfa -32 + ^
STACK CFI a0e78 .cfa: sp 80 +
STACK CFI a0e84 .cfa: sp 0 +
STACK CFI a0e88 .cfa: x29 32 +
STACK CFI INIT a1068 340 .cfa: sp 0 +
STACK CFI a106c .cfa: sp 160 +
STACK CFI a108c .cfa: x29 88 + x19: .cfa -8 + ^ x20: .cfa -16 + ^ x21: .cfa -24 + ^ x22: .cfa -32 + ^ x23: .cfa -40 + ^ x24: .cfa -48 + ^ x25: .cfa -56 + ^ x26: .cfa -64 + ^ x27: .cfa -72 + ^ .ra: .cfa -80 + ^ x29: .cfa -88 + ^ v8: .cfa -96 + ^
STACK CFI a12f0 .cfa: sp 160 +
STACK CFI a1310 .cfa: sp 0 +
STACK CFI a1314 .cfa: x29 88 +
STACK CFI INIT a13a8 310 .cfa: sp 0 +
STACK CFI a13ac .cfa: sp 144 +
STACK CFI a13c8 .cfa: x29 96 + x19: .cfa -8 + ^ x20: .cfa -16 + ^ x21: .cfa -24 + ^ x22: .cfa -32 + ^ x23: .cfa -40 + ^ x24: .cfa -48 + ^ x25: .cfa -56 + ^ x26: .cfa -64 + ^ x27: .cfa -72 + ^ x28: .cfa -80 + ^ .ra: .cfa -88 + ^ x29: .cfa -96 + ^
STACK CFI a164c .cfa: sp 144 +
STACK CFI a1668 .cfa: sp 0 +
STACK CFI a166c .cfa: x29 96 +
STACK CFI INIT a16b8 388 .cfa: sp 0 +
STACK CFI a16bc .cfa: sp 160 +
STACK CFI a16d8 .cfa: x29 96 + x19: .cfa -8 + ^ x20: .cfa -16 + ^ x21: .cfa -24 + ^ x22: .cfa -32 + ^ x23: .cfa -40 + ^ x24: .cfa -48 + ^ x25: .cfa -56 + ^ x26: .cfa -64 + ^ x27: .cfa -72 + ^ x28: .cfa -80 + ^ .ra: .cfa -88 + ^ x29: .cfa -96 + ^
STACK CFI a19d4 .cfa: sp 160 +
STACK CFI a19f0 .cfa: sp 0 +
STACK CFI a19f4 .cfa: x29 96 +
STACK CFI INIT a1a40 15c .cfa: sp 0 +
STACK CFI a1a44 .cfa: sp 128 +
STACK CFI a1a64 .cfa: x29 72 + x19: .cfa -8 + ^ x20: .cfa -16 + ^ x21: .cfa -24 + ^ x22: .cfa -32 + ^ x23: .cfa -40 + ^ x24: .cfa -48 + ^ x25: .cfa -56 + ^ .ra: .cfa -64 + ^ x29: .cfa -72 + ^ v8: .cfa -80 + ^ v9: .cfa -88 + ^ v10: .cfa -96 + ^
STACK CFI a1b44 .cfa: sp 128 +
STACK CFI a1b64 .cfa: sp 0 +
STACK CFI a1b68 .cfa: x29 72 +
STACK CFI INIT a1b9c 374 .cfa: sp 0 +
STACK CFI a1ba0 .cfa: sp 160 +
STACK CFI a1bbc .cfa: x29 96 + x19: .cfa -8 + ^ x20: .cfa -16 + ^ x21: .cfa -24 + ^ x22: .cfa -32 + ^ x23: .cfa -40 + ^ x24: .cfa -48 + ^ x25: .cfa -56 + ^ x26: .cfa -64 + ^ x27: .cfa -72 + ^ x28: .cfa -80 + ^ .ra: .cfa -88 + ^ x29: .cfa -96 + ^
STACK CFI a1ea4 .cfa: sp 160 +
STACK CFI a1ec0 .cfa: sp 0 +
STACK CFI a1ec4 .cfa: x29 96 +
STACK CFI INIT a1f10 350 .cfa: sp 0 +
STACK CFI a1f14 .cfa: sp 144 +
STACK CFI a1f30 .cfa: x29 96 + x19: .cfa -8 + ^ x20: .cfa -16 + ^ x21: .cfa -24 + ^ x22: .cfa -32 + ^ x23: .cfa -40 + ^ x24: .cfa -48 + ^ x25: .cfa -56 + ^ x26: .cfa -64 + ^ x27: .cfa -72 + ^ x28: .cfa -80 + ^ .ra: .cfa -88 + ^ x29: .cfa -96 + ^
STACK CFI a21f4 .cfa: sp 144 +
STACK CFI a2210 .cfa: sp 0 +
STACK CFI a2214 .cfa: x29 96 +
STACK CFI INIT a2260 668 .cfa: sp 0 +
STACK CFI a2264 .cfa: sp 224 +
STACK CFI a2280 .cfa: x29 96 + x19: .cfa -8 + ^ x20: .cfa -16 + ^ x21: .cfa -24 + ^ x22: .cfa -32 + ^ x23: .cfa -40 + ^ x24: .cfa -48 + ^ x25: .cfa -56 + ^ x26: .cfa -64 + ^ x27: .cfa -80 + ^ .ra: .cfa -88 + ^ x29: .cfa -96 + ^
STACK CFI a23a8 .cfa: sp 224 +
STACK CFI a23c4 .cfa: sp 0 +
STACK CFI a23c8 .cfa: x29 96 +
STACK CFI a2788 .cfa: sp 224 +
STACK CFI a27a4 .cfa: sp 0 +
STACK CFI a27a8 .cfa: x29 96 +
STACK CFI INIT a28e4 1fc0 .cfa: sp 0 +
STACK CFI a28e8 .cfa: sp 368 +
STACK CFI a2910 .cfa: x29 96 + x19: .cfa -8 + ^ x20: .cfa -16 + ^ x21: .cfa -24 + ^ x22: .cfa -32 + ^ x23: .cfa -40 + ^ x24: .cfa -48 + ^ x25: .cfa -56 + ^ x26: .cfa -64 + ^ x27: .cfa -72 + ^ x28: .cfa -80 + ^ .ra: .cfa -88 + ^ x29: .cfa -96 + ^ v8: .cfa -104 + ^ v9: .cfa -112 + ^ v10: .cfa -120 + ^ v11: .cfa -128 + ^ v12: .cfa -136 + ^ v13: .cfa -144 + ^
STACK CFI a47a8 .cfa: sp 368 +
STACK CFI a47d0 .cfa: sp 0 +
STACK CFI a47d4 .cfa: x29 96 +
STACK CFI INIT a4a00 3a0 .cfa: sp 0 +
STACK CFI a4a04 .cfa: sp 208 +
STACK CFI a4a18 .cfa: x29 64 + x19: .cfa -8 + ^ x20: .cfa -16 + ^ x21: .cfa -24 + ^ x22: .cfa -32 + ^ x23: .cfa -40 + ^ x24: .cfa -48 + ^ .ra: .cfa -56 + ^ x29: .cfa -64 + ^
STACK CFI a4c70 .cfa: sp 208 +
STACK CFI a4c84 .cfa: sp 0 +
STACK CFI a4c88 .cfa: x29 64 +
STACK CFI INIT a4da4 150 .cfa: sp 0 +
STACK CFI a4da8 .cfa: sp 112 +
STACK CFI a4dc0 .cfa: x29 80 + x19: .cfa -8 + ^ x20: .cfa -16 + ^ x21: .cfa -24 + ^ x22: .cfa -32 + ^ x23: .cfa -40 + ^ x24: .cfa -48 + ^ x25: .cfa -64 + ^ .ra: .cfa -72 + ^ x29: .cfa -80 + ^
STACK CFI a4e88 .cfa: sp 112 +
STACK CFI a4ea0 .cfa: sp 0 +
STACK CFI a4ea4 .cfa: x29 80 +
STACK CFI INIT a4ef4 bc .cfa: sp 0 +
STACK CFI a4ef8 .cfa: sp 80 +
STACK CFI a4f04 .cfa: x29 32 + x19: .cfa -8 + ^ x20: .cfa -16 + ^ .ra: .cfa -24 + ^ x29: .cfa -32 + ^
STACK CFI a4f70 .cfa: sp 80 +
STACK CFI a4f7c .cfa: sp 0 +
STACK CFI a4f80 .cfa: x29 32 +
STACK CFI INIT a4fb0 660 .cfa: sp 0 +
STACK CFI a4fb4 .cfa: sp 224 +
STACK CFI a4fd0 .cfa: x29 96 + x19: .cfa -8 + ^ x20: .cfa -16 + ^ x21: .cfa -24 + ^ x22: .cfa -32 + ^ x23: .cfa -40 + ^ x24: .cfa -48 + ^ x25: .cfa -56 + ^ x26: .cfa -64 + ^ x27: .cfa -80 + ^ .ra: .cfa -88 + ^ x29: .cfa -96 + ^
STACK CFI a50f0 .cfa: sp 224 +
STACK CFI a510c .cfa: sp 0 +
STACK CFI a5110 .cfa: x29 96 +
STACK CFI a54d0 .cfa: sp 224 +
STACK CFI a54ec .cfa: sp 0 +
STACK CFI a54f0 .cfa: x29 96 +
STACK CFI INIT a562c a10 .cfa: sp 0 +
STACK CFI a5630 .cfa: sp 96 +
STACK CFI a5648 .cfa: x29 96 + x19: .cfa -8 + ^ x20: .cfa -16 + ^ x21: .cfa -24 + ^ x22: .cfa -32 + ^ x23: .cfa -40 + ^ x24: .cfa -48 + ^ x25: .cfa -56 + ^ x26: .cfa -64 + ^ x27: .cfa -72 + ^ x28: .cfa -80 + ^ .ra: .cfa -88 + ^ x29: .cfa -96 + ^
STACK CFI a5f34 .cfa: sp 96 +
STACK CFI a5f4c .cfa: sp 0 +
STACK CFI a5f50 .cfa: x29 96 +
STACK CFI INIT a6080 304 .cfa: sp 0 +
STACK CFI a6084 .cfa: sp 192 +
STACK CFI a6098 .cfa: x29 64 + x19: .cfa -8 + ^ x20: .cfa -16 + ^ x21: .cfa -24 + ^ x22: .cfa -32 + ^ x23: .cfa -48 + ^ .ra: .cfa -56 + ^ x29: .cfa -64 + ^
STACK CFI a627c .cfa: sp 192 +
STACK CFI a6290 .cfa: sp 0 +
STACK CFI a6294 .cfa: x29 64 +
STACK CFI INIT a6388 140 .cfa: sp 0 +
STACK CFI a638c .cfa: sp 96 +
STACK CFI a63a0 .cfa: x29 64 + x19: .cfa -8 + ^ x20: .cfa -16 + ^ x21: .cfa -24 + ^ x22: .cfa -32 + ^ x23: .cfa -40 + ^ x24: .cfa -48 + ^ .ra: .cfa -56 + ^ x29: .cfa -64 + ^
STACK CFI a6460 .cfa: sp 96 +
STACK CFI a6474 .cfa: sp 0 +
STACK CFI a6478 .cfa: x29 64 +
STACK CFI INIT a64c8 a8 .cfa: sp 0 +
STACK CFI a64cc .cfa: sp 32 +
STACK CFI a64d4 .cfa: x29 32 + x19: .cfa -16 + ^ .ra: .cfa -24 + ^ x29: .cfa -32 + ^
STACK CFI a6508 .cfa: sp 32 +
STACK CFI a6510 .cfa: sp 0 +
STACK CFI a6514 .cfa: x29 32 +
STACK CFI a6518 .cfa: sp 32 +
STACK CFI a6520 .cfa: sp 0 +
STACK CFI a6524 .cfa: x29 32 +
STACK CFI INIT a65f4 bc .cfa: sp 0 +
STACK CFI a65f8 .cfa: sp 80 +
STACK CFI a6604 .cfa: x29 32 + x19: .cfa -8 + ^ x20: .cfa -16 + ^ .ra: .cfa -24 + ^ x29: .cfa -32 + ^
STACK CFI a6670 .cfa: sp 80 +
STACK CFI a667c .cfa: sp 0 +
STACK CFI a6680 .cfa: x29 32 +
STACK CFI INIT a67c4 66c .cfa: sp 0 +
STACK CFI a67c8 .cfa: sp 224 +
STACK CFI a67e4 .cfa: x29 96 + x19: .cfa -8 + ^ x20: .cfa -16 + ^ x21: .cfa -24 + ^ x22: .cfa -32 + ^ x23: .cfa -40 + ^ x24: .cfa -48 + ^ x25: .cfa -56 + ^ x26: .cfa -64 + ^ x27: .cfa -80 + ^ .ra: .cfa -88 + ^ x29: .cfa -96 + ^
STACK CFI a6910 .cfa: sp 224 +
STACK CFI a692c .cfa: sp 0 +
STACK CFI a6930 .cfa: x29 96 +
STACK CFI a6cf0 .cfa: sp 224 +
STACK CFI a6d0c .cfa: sp 0 +
STACK CFI a6d10 .cfa: x29 96 +
STACK CFI INIT a6e4c 190 .cfa: sp 0 +
STACK CFI a6e50 .cfa: sp 112 +
STACK CFI a6e60 .cfa: x29 48 + x19: .cfa -8 + ^ x20: .cfa -16 + ^ x21: .cfa -32 + ^ .ra: .cfa -40 + ^ x29: .cfa -48 + ^
STACK CFI a6f34 .cfa: sp 112 +
STACK CFI a6f44 .cfa: sp 0 +
STACK CFI a6f48 .cfa: x29 48 +
STACK CFI INIT a6fe0 e1c .cfa: sp 0 +
STACK CFI a6fe4 .cfa: sp 256 +
STACK CFI a7000 .cfa: x29 96 + x19: .cfa -8 + ^ x20: .cfa -16 + ^ x21: .cfa -24 + ^ x22: .cfa -32 + ^ x23: .cfa -40 + ^ x24: .cfa -48 + ^ x25: .cfa -56 + ^ x26: .cfa -64 + ^ x27: .cfa -80 + ^ .ra: .cfa -88 + ^ x29: .cfa -96 + ^
STACK CFI a7b18 .cfa: sp 256 +
STACK CFI a7b34 .cfa: sp 0 +
STACK CFI a7b38 .cfa: x29 96 +
STACK CFI INIT a7e00 188 .cfa: sp 0 +
STACK CFI a7e04 .cfa: sp 144 +
STACK CFI a7e1c .cfa: x29 80 + x19: .cfa -8 + ^ x20: .cfa -16 + ^ x21: .cfa -24 + ^ x22: .cfa -32 + ^ x23: .cfa -40 + ^ x24: .cfa -48 + ^ x25: .cfa -64 + ^ .ra: .cfa -72 + ^ x29: .cfa -80 + ^
STACK CFI a7f1c .cfa: sp 144 +
STACK CFI a7f34 .cfa: sp 0 +
STACK CFI a7f38 .cfa: x29 80 +
STACK CFI INIT a7f88 9d4 .cfa: sp 0 +
STACK CFI a7f8c .cfa: sp 112 +
STACK CFI a7fa8 .cfa: x29 96 + x19: .cfa -8 + ^ x20: .cfa -16 + ^ x21: .cfa -24 + ^ x22: .cfa -32 + ^ x23: .cfa -40 + ^ x24: .cfa -48 + ^ x25: .cfa -56 + ^ x26: .cfa -64 + ^ x27: .cfa -72 + ^ x28: .cfa -80 + ^ .ra: .cfa -88 + ^ x29: .cfa -96 + ^ v8: .cfa -112 + ^
STACK CFI a8808 .cfa: sp 112 +
STACK CFI a8824 .cfa: sp 0 +
STACK CFI a8828 .cfa: x29 96 +
STACK CFI INIT a89a0 bc .cfa: sp 0 +
STACK CFI a89a4 .cfa: sp 80 +
STACK CFI a89b0 .cfa: x29 32 + x19: .cfa -8 + ^ x20: .cfa -16 + ^ .ra: .cfa -24 + ^ x29: .cfa -32 + ^
STACK CFI a8a1c .cfa: sp 80 +
STACK CFI a8a28 .cfa: sp 0 +
STACK CFI a8a2c .cfa: x29 32 +
STACK CFI INIT a8a5c 668 .cfa: sp 0 +
STACK CFI a8a60 .cfa: sp 224 +
STACK CFI a8a7c .cfa: x29 96 + x19: .cfa -8 + ^ x20: .cfa -16 + ^ x21: .cfa -24 + ^ x22: .cfa -32 + ^ x23: .cfa -40 + ^ x24: .cfa -48 + ^ x25: .cfa -56 + ^ x26: .cfa -64 + ^ x27: .cfa -80 + ^ .ra: .cfa -88 + ^ x29: .cfa -96 + ^
STACK CFI a8ba4 .cfa: sp 224 +
STACK CFI a8bc0 .cfa: sp 0 +
STACK CFI a8bc4 .cfa: x29 96 +
STACK CFI a8f84 .cfa: sp 224 +
STACK CFI a8fa0 .cfa: sp 0 +
STACK CFI a8fa4 .cfa: x29 96 +
STACK CFI INIT a90e0 314 .cfa: sp 0 +
STACK CFI a90e4 .cfa: sp 128 +
STACK CFI a90f4 .cfa: x29 48 + x19: .cfa -8 + ^ x20: .cfa -16 + ^ x21: .cfa -24 + ^ x22: .cfa -32 + ^ .ra: .cfa -40 + ^ x29: .cfa -48 + ^
STACK CFI a938c .cfa: sp 128 +
STACK CFI a939c .cfa: sp 0 +
STACK CFI a93a0 .cfa: x29 48 +
STACK CFI INIT a9438 360 .cfa: sp 0 +
STACK CFI a943c .cfa: sp 208 +
STACK CFI a9454 .cfa: x29 80 + x19: .cfa -8 + ^ x20: .cfa -16 + ^ x21: .cfa -24 + ^ x22: .cfa -32 + ^ x23: .cfa -40 + ^ x24: .cfa -48 + ^ x25: .cfa -64 + ^ .ra: .cfa -72 + ^ x29: .cfa -80 + ^
STACK CFI a9670 .cfa: sp 208 +
STACK CFI a9688 .cfa: sp 0 +
STACK CFI a968c .cfa: x29 80 +
STACK CFI INIT a979c 14c .cfa: sp 0 +
STACK CFI a97a0 .cfa: sp 96 +
STACK CFI a97b4 .cfa: x29 64 + x19: .cfa -8 + ^ x20: .cfa -16 + ^ x21: .cfa -24 + ^ x22: .cfa -32 + ^ x23: .cfa -48 + ^ .ra: .cfa -56 + ^ x29: .cfa -64 + ^
STACK CFI a9880 .cfa: sp 96 +
STACK CFI a9894 .cfa: sp 0 +
STACK CFI a9898 .cfa: x29 64 +
STACK CFI INIT a98e8 bc .cfa: sp 0 +
STACK CFI a98ec .cfa: sp 80 +
STACK CFI a98f8 .cfa: x29 32 + x19: .cfa -8 + ^ x20: .cfa -16 + ^ .ra: .cfa -24 + ^ x29: .cfa -32 + ^
STACK CFI a9964 .cfa: sp 80 +
STACK CFI a9970 .cfa: sp 0 +
STACK CFI a9974 .cfa: x29 32 +
STACK CFI INIT a99a4 1e0 .cfa: sp 0 +
STACK CFI a99a8 .cfa: sp 144 +
STACK CFI a99b4 .cfa: x29 32 + x19: .cfa -8 + ^ x20: .cfa -16 + ^ .ra: .cfa -24 + ^ x29: .cfa -32 + ^
STACK CFI a9b18 .cfa: sp 144 +
STACK CFI a9b24 .cfa: sp 0 +
STACK CFI a9b28 .cfa: x29 32 +
STACK CFI INIT a9b84 2ec .cfa: sp 0 +
STACK CFI a9b88 .cfa: sp 192 +
STACK CFI a9b9c .cfa: x29 64 + x19: .cfa -8 + ^ x20: .cfa -16 + ^ x21: .cfa -24 + ^ x22: .cfa -32 + ^ x23: .cfa -40 + ^ x24: .cfa -48 + ^ .ra: .cfa -56 + ^ x29: .cfa -64 + ^
STACK CFI a9d54 .cfa: sp 192 +
STACK CFI a9d68 .cfa: sp 0 +
STACK CFI a9d6c .cfa: x29 64 +
STACK CFI INIT a9e70 74 .cfa: sp 0 +
STACK CFI a9e74 .cfa: sp 48 +
STACK CFI a9e80 .cfa: x29 32 + x19: .cfa -8 + ^ x20: .cfa -16 + ^ .ra: .cfa -24 + ^ x29: .cfa -32 + ^
STACK CFI a9ecc .cfa: sp 48 +
STACK CFI a9ed8 .cfa: sp 0 +
STACK CFI a9edc .cfa: x29 32 +
STACK CFI INIT a9ee4 74 .cfa: sp 0 +
STACK CFI a9ee8 .cfa: sp 48 +
STACK CFI a9ef4 .cfa: x29 32 + x19: .cfa -8 + ^ x20: .cfa -16 + ^ .ra: .cfa -24 + ^ x29: .cfa -32 + ^
STACK CFI a9f40 .cfa: sp 48 +
STACK CFI a9f4c .cfa: sp 0 +
STACK CFI a9f50 .cfa: x29 32 +
STACK CFI INIT a9f9c 174 .cfa: sp 0 +
STACK CFI a9fa0 .cfa: sp 112 +
STACK CFI a9fb0 .cfa: x29 48 + x19: .cfa -8 + ^ x20: .cfa -16 + ^ x21: .cfa -32 + ^ .ra: .cfa -40 + ^ x29: .cfa -48 + ^
STACK CFI aa0ac .cfa: sp 112 +
STACK CFI aa0bc .cfa: sp 0 +
STACK CFI aa0c0 .cfa: x29 48 +
STACK CFI INIT aa260 12c .cfa: sp 0 +
STACK CFI aa264 .cfa: sp 80 +
STACK CFI aa274 .cfa: x29 48 + x19: .cfa -8 + ^ x20: .cfa -16 + ^ x21: .cfa -32 + ^ .ra: .cfa -40 + ^ x29: .cfa -48 + ^
STACK CFI aa30c .cfa: sp 80 +
STACK CFI aa31c .cfa: sp 0 +
STACK CFI aa320 .cfa: x29 48 +
STACK CFI INIT aa3c8 134 .cfa: sp 0 +
STACK CFI aa3cc .cfa: sp 80 +
STACK CFI aa3d8 .cfa: x29 32 + x19: .cfa -8 + ^ x20: .cfa -16 + ^ .ra: .cfa -24 + ^ x29: .cfa -32 + ^
STACK CFI aa408 .cfa: sp 80 +
STACK CFI aa414 .cfa: sp 0 +
STACK CFI aa418 .cfa: x29 32 +
STACK CFI INIT aa4fc 78 .cfa: sp 0 +
STACK CFI aa500 .cfa: sp 32 +
STACK CFI aa508 .cfa: x29 32 + x19: .cfa -8 + ^ x20: .cfa -16 + ^ .ra: .cfa -24 + ^ x29: .cfa -32 + ^
STACK CFI aa514 .cfa: sp 32 +
STACK CFI aa51c .cfa: sp 0 +
STACK CFI aa520 .cfa: x29 32 +
STACK CFI INIT aa574 74 .cfa: sp 0 +
STACK CFI aa578 .cfa: sp 48 +
STACK CFI aa584 .cfa: x29 32 + x19: .cfa -8 + ^ x20: .cfa -16 + ^ .ra: .cfa -24 + ^ x29: .cfa -32 + ^
STACK CFI aa5d0 .cfa: sp 48 +
STACK CFI aa5dc .cfa: sp 0 +
STACK CFI aa5e0 .cfa: x29 32 +
STACK CFI INIT aa64c 1e8 .cfa: sp 0 +
STACK CFI aa650 .cfa: sp 192 +
STACK CFI aa674 .cfa: x29 88 + x19: .cfa -8 + ^ x20: .cfa -16 + ^ x21: .cfa -24 + ^ x22: .cfa -32 + ^ x23: .cfa -40 + ^ x24: .cfa -48 + ^ x25: .cfa -56 + ^ x26: .cfa -64 + ^ x27: .cfa -72 + ^ .ra: .cfa -80 + ^ x29: .cfa -88 + ^ v8: .cfa -96 + ^ v9: .cfa -104 + ^ v10: .cfa -112 + ^
STACK CFI aa718 .cfa: sp 192 +
STACK CFI aa73c .cfa: sp 0 +
STACK CFI aa740 .cfa: x29 88 +
STACK CFI INIT aa834 8f8 .cfa: sp 0 +
STACK CFI aa838 .cfa: sp 112 +
STACK CFI aa850 .cfa: x29 80 + x19: .cfa -8 + ^ x20: .cfa -16 + ^ x21: .cfa -24 + ^ x22: .cfa -32 + ^ x23: .cfa -40 + ^ x24: .cfa -48 + ^ x25: .cfa -64 + ^ .ra: .cfa -72 + ^ x29: .cfa -80 + ^
STACK CFI ab068 .cfa: sp 112 +
STACK CFI ab080 .cfa: sp 0 +
STACK CFI ab084 .cfa: x29 80 +
STACK CFI INIT ab12c 180 .cfa: sp 0 +
STACK CFI ab130 .cfa: sp 128 +
STACK CFI ab140 .cfa: x29 48 + x19: .cfa -8 + ^ x20: .cfa -16 + ^ x21: .cfa -24 + ^ x22: .cfa -32 + ^ .ra: .cfa -40 + ^ x29: .cfa -48 + ^
STACK CFI ab1a4 .cfa: sp 128 +
STACK CFI ab1b4 .cfa: sp 0 +
STACK CFI ab1b8 .cfa: x29 48 +
STACK CFI INIT ab2ac a4 .cfa: sp 0 +
STACK CFI ab2b0 .cfa: sp 48 +
STACK CFI ab2bc .cfa: x29 48 + x19: .cfa -8 + ^ x20: .cfa -16 + ^ x21: .cfa -32 + ^ .ra: .cfa -40 + ^ x29: .cfa -48 + ^
STACK CFI ab328 .cfa: sp 48 +
STACK CFI ab334 .cfa: sp 0 +
STACK CFI ab338 .cfa: x29 48 +
STACK CFI INIT ab350 a4 .cfa: sp 0 +
STACK CFI ab354 .cfa: sp 48 +
STACK CFI ab360 .cfa: x29 48 + x19: .cfa -8 + ^ x20: .cfa -16 + ^ x21: .cfa -32 + ^ .ra: .cfa -40 + ^ x29: .cfa -48 + ^
STACK CFI ab3cc .cfa: sp 48 +
STACK CFI ab3d8 .cfa: sp 0 +
STACK CFI ab3dc .cfa: x29 48 +
STACK CFI INIT ab3f4 180 .cfa: sp 0 +
STACK CFI ab3f8 .cfa: sp 128 +
STACK CFI ab408 .cfa: x29 48 + x19: .cfa -8 + ^ x20: .cfa -16 + ^ x21: .cfa -24 + ^ x22: .cfa -32 + ^ .ra: .cfa -40 + ^ x29: .cfa -48 + ^
STACK CFI ab46c .cfa: sp 128 +
STACK CFI ab47c .cfa: sp 0 +
STACK CFI ab480 .cfa: x29 48 +
STACK CFI INIT ab574 154 .cfa: sp 0 +
STACK CFI ab578 .cfa: sp 384 +
STACK CFI ab58c .cfa: x29 64 + x19: .cfa -8 + ^ x20: .cfa -16 + ^ x21: .cfa -24 + ^ x22: .cfa -32 + ^ x23: .cfa -40 + ^ x28: .cfa -48 + ^ .ra: .cfa -56 + ^ x29: .cfa -64 + ^
STACK CFI ab670 .cfa: sp 384 +
STACK CFI ab684 .cfa: sp 0 +
STACK CFI ab688 .cfa: x29 64 +
STACK CFI INIT aba10 294 .cfa: sp 0 +
STACK CFI aba14 .cfa: sp 240 +
STACK CFI aba2c .cfa: x29 80 + x19: .cfa -8 + ^ x20: .cfa -16 + ^ x21: .cfa -24 + ^ x22: .cfa -32 + ^ x23: .cfa -40 + ^ x24: .cfa -48 + ^ x25: .cfa -64 + ^ .ra: .cfa -72 + ^ x29: .cfa -80 + ^
STACK CFI abbcc .cfa: sp 240 +
STACK CFI abbe4 .cfa: sp 0 +
STACK CFI abbe8 .cfa: x29 80 +
STACK CFI INIT abd20 50 .cfa: sp 0 +
STACK CFI abd24 .cfa: sp 32 +
STACK CFI abd2c .cfa: x29 32 + x19: .cfa -8 + ^ x20: .cfa -16 + ^ .ra: .cfa -24 + ^ x29: .cfa -32 + ^
STACK CFI INIT abd9c 7c0 .cfa: sp 0 +
STACK CFI abda0 .cfa: sp 320 +
STACK CFI abdbc .cfa: x29 96 + x19: .cfa -8 + ^ x20: .cfa -16 + ^ x21: .cfa -24 + ^ x22: .cfa -32 + ^ x23: .cfa -40 + ^ x24: .cfa -48 + ^ x25: .cfa -56 + ^ x26: .cfa -64 + ^ x27: .cfa -72 + ^ x28: .cfa -80 + ^ .ra: .cfa -88 + ^ x29: .cfa -96 + ^
STACK CFI ac40c .cfa: sp 320 +
STACK CFI ac428 .cfa: sp 0 +
STACK CFI ac42c .cfa: x29 96 +
STACK CFI INIT b08dc c74 .cfa: sp 0 +
STACK CFI b08e0 .cfa: sp 96 +
STACK CFI b08f8 .cfa: x29 96 + x19: .cfa -8 + ^ x20: .cfa -16 + ^ x21: .cfa -24 + ^ x22: .cfa -32 + ^ x23: .cfa -40 + ^ x24: .cfa -48 + ^ x25: .cfa -56 + ^ x26: .cfa -64 + ^ x27: .cfa -72 + ^ x28: .cfa -80 + ^ .ra: .cfa -88 + ^ x29: .cfa -96 + ^
STACK CFI b1370 .cfa: sp 96 +
STACK CFI b1388 .cfa: sp 0 +
STACK CFI b138c .cfa: x29 96 +
STACK CFI INIT b16a4 26c .cfa: sp 0 +
STACK CFI b16a8 .cfa: sp 128 +
STACK CFI b16b8 .cfa: x29 48 + x19: .cfa -8 + ^ x20: .cfa -16 + ^ x21: .cfa -24 + ^ x22: .cfa -32 + ^ .ra: .cfa -40 + ^ x29: .cfa -48 + ^
STACK CFI b185c .cfa: sp 128 +
STACK CFI b186c .cfa: sp 0 +
STACK CFI b1870 .cfa: x29 48 +
STACK CFI INIT b1e5c 3b8 .cfa: sp 0 +
STACK CFI b1e60 .cfa: sp 96 +
STACK CFI b1e78 .cfa: x29 96 + x19: .cfa -8 + ^ x20: .cfa -16 + ^ x21: .cfa -24 + ^ x22: .cfa -32 + ^ x23: .cfa -40 + ^ x24: .cfa -48 + ^ x25: .cfa -56 + ^ x26: .cfa -64 + ^ x27: .cfa -72 + ^ x28: .cfa -80 + ^ .ra: .cfa -88 + ^ x29: .cfa -96 + ^
STACK CFI b21b4 .cfa: sp 96 +
STACK CFI b21cc .cfa: sp 0 +
STACK CFI b21d0 .cfa: x29 96 +
STACK CFI INIT b22b4 cb4 .cfa: sp 0 +
STACK CFI b22b8 .cfa: sp 96 +
STACK CFI b22d0 .cfa: x29 96 + x19: .cfa -8 + ^ x20: .cfa -16 + ^ x21: .cfa -24 + ^ x22: .cfa -32 + ^ x23: .cfa -40 + ^ x24: .cfa -48 + ^ x25: .cfa -56 + ^ x26: .cfa -64 + ^ x27: .cfa -72 + ^ x28: .cfa -80 + ^ .ra: .cfa -88 + ^ x29: .cfa -96 + ^
STACK CFI b2d78 .cfa: sp 96 +
STACK CFI b2d90 .cfa: sp 0 +
STACK CFI b2d94 .cfa: x29 96 +
STACK CFI INIT b3250 afc .cfa: sp 0 +
STACK CFI b3254 .cfa: sp 96 +
STACK CFI b326c .cfa: x29 96 + x19: .cfa -8 + ^ x20: .cfa -16 + ^ x21: .cfa -24 + ^ x22: .cfa -32 + ^ x23: .cfa -40 + ^ x24: .cfa -48 + ^ x25: .cfa -56 + ^ x26: .cfa -64 + ^ x27: .cfa -72 + ^ x28: .cfa -80 + ^ .ra: .cfa -88 + ^ x29: .cfa -96 + ^
STACK CFI b3cc0 .cfa: sp 96 +
STACK CFI b3cd8 .cfa: sp 0 +
STACK CFI b3cdc .cfa: x29 96 +
STACK CFI INIT b3f28 1430 .cfa: sp 0 +
STACK CFI b3f2c .cfa: sp 96 +
STACK CFI b3f44 .cfa: x29 96 + x19: .cfa -8 + ^ x20: .cfa -16 + ^ x21: .cfa -24 + ^ x22: .cfa -32 + ^ x23: .cfa -40 + ^ x24: .cfa -48 + ^ x25: .cfa -56 + ^ x26: .cfa -64 + ^ x27: .cfa -72 + ^ x28: .cfa -80 + ^ .ra: .cfa -88 + ^ x29: .cfa -96 + ^
STACK CFI b51e0 .cfa: sp 96 +
STACK CFI b51f8 .cfa: sp 0 +
STACK CFI b51fc .cfa: x29 96 +
STACK CFI INIT b547c 75c .cfa: sp 0 +
STACK CFI b5480 .cfa: sp 368 +
STACK CFI b549c .cfa: x29 96 + x19: .cfa -8 + ^ x20: .cfa -16 + ^ x21: .cfa -24 + ^ x22: .cfa -32 + ^ x23: .cfa -40 + ^ x24: .cfa -48 + ^ x25: .cfa -56 + ^ x26: .cfa -64 + ^ x27: .cfa -72 + ^ x28: .cfa -80 + ^ .ra: .cfa -88 + ^ x29: .cfa -96 + ^
STACK CFI b5550 .cfa: sp 368 +
STACK CFI b556c .cfa: sp 0 +
STACK CFI b5570 .cfa: x29 96 +
STACK CFI b55c4 .cfa: sp 368 +
STACK CFI b55e0 .cfa: sp 0 +
STACK CFI b55e4 .cfa: x29 96 +
STACK CFI INIT b5f98 eb0 .cfa: sp 0 +
STACK CFI b5f9c .cfa: sp 96 +
STACK CFI b5fb4 .cfa: x29 96 + x19: .cfa -8 + ^ x20: .cfa -16 + ^ x21: .cfa -24 + ^ x22: .cfa -32 + ^ x23: .cfa -40 + ^ x24: .cfa -48 + ^ x25: .cfa -56 + ^ x26: .cfa -64 + ^ x27: .cfa -72 + ^ x28: .cfa -80 + ^ .ra: .cfa -88 + ^ x29: .cfa -96 + ^
STACK CFI b6c5c .cfa: sp 96 +
STACK CFI b6c74 .cfa: sp 0 +
STACK CFI b6c78 .cfa: x29 96 +
STACK CFI INIT b71bc 1c9c .cfa: sp 0 +
STACK CFI b71c0 .cfa: sp 112 +
STACK CFI b71dc .cfa: x29 96 + x19: .cfa -8 + ^ x20: .cfa -16 + ^ x21: .cfa -24 + ^ x22: .cfa -32 + ^ x23: .cfa -40 + ^ x24: .cfa -48 + ^ x25: .cfa -56 + ^ x26: .cfa -64 + ^ x27: .cfa -72 + ^ x28: .cfa -80 + ^ .ra: .cfa -88 + ^ x29: .cfa -96 + ^ v8: .cfa -112 + ^
STACK CFI b75c4 .cfa: sp 112 +
STACK CFI b75e0 .cfa: sp 0 +
STACK CFI b75e4 .cfa: x29 96 +
STACK CFI INIT bb61c 9a0 .cfa: sp 0 +
STACK CFI bb620 .cfa: sp 144 +
STACK CFI bb638 .cfa: x29 80 + x19: .cfa -8 + ^ x20: .cfa -16 + ^ x21: .cfa -24 + ^ x22: .cfa -32 + ^ x23: .cfa -40 + ^ x24: .cfa -48 + ^ x25: .cfa -64 + ^ .ra: .cfa -72 + ^ x29: .cfa -80 + ^
STACK CFI bbf38 .cfa: sp 144 +
STACK CFI bbf50 .cfa: sp 0 +
STACK CFI bbf54 .cfa: x29 80 +
STACK CFI INIT bd4e0 57c .cfa: sp 0 +
STACK CFI bd4e4 .cfa: sp 96 +
STACK CFI bd4fc .cfa: x29 96 + x19: .cfa -8 + ^ x20: .cfa -16 + ^ x21: .cfa -24 + ^ x22: .cfa -32 + ^ x23: .cfa -40 + ^ x24: .cfa -48 + ^ x25: .cfa -56 + ^ x26: .cfa -64 + ^ x27: .cfa -72 + ^ x28: .cfa -80 + ^ .ra: .cfa -88 + ^ x29: .cfa -96 + ^
STACK CFI bd9c0 .cfa: sp 96 +
STACK CFI bd9d8 .cfa: sp 0 +
STACK CFI bd9dc .cfa: x29 96 +
STACK CFI INIT bda5c 67c .cfa: sp 0 +
STACK CFI bda60 .cfa: sp 96 +
STACK CFI bda78 .cfa: x29 96 + x19: .cfa -8 + ^ x20: .cfa -16 + ^ x21: .cfa -24 + ^ x22: .cfa -32 + ^ x23: .cfa -40 + ^ x24: .cfa -48 + ^ x25: .cfa -56 + ^ x26: .cfa -64 + ^ x27: .cfa -72 + ^ x28: .cfa -80 + ^ .ra: .cfa -88 + ^ x29: .cfa -96 + ^
STACK CFI be03c .cfa: sp 96 +
STACK CFI be054 .cfa: sp 0 +
STACK CFI be058 .cfa: x29 96 +
