MODULE Linux arm64 FADB0BC0C7A1186551D51626B6518CED0 blueblock6.transparent_checkpoints.android64.so
INFO CODE_ID C00BDBFAA1C7651851D51626B6518CEDD3ADA362
INFO GENERATOR mozilla/dump_syms 2.3.4
PUBLIC 4bb0 0 __on_dlclose
PUBLIC 4bc0 0 __emutls_unregister_key
PUBLIC 4bc8 0 __on_dlclose_late
PUBLIC 4bd0 0 __atexit_handler_wrapper
PUBLIC 4be4 0 atexit
PUBLIC 4c00 0 pthread_atfork
PUBLIC 4c10 0 __aarch64_ldadd8_relax
PUBLIC 4c40 0 init_have_lse_atomics
PUBLIC 4cd8 0 __init_cpu_features_constructor
PUBLIC 5274 0 __init_cpu_features
PUBLIC 5300 0 __aarch64_ldadd8_acq_rel
PUBLIC 5330 0 __cxx_global_var_init
PUBLIC 5ed0 0 geode::modifier::ModifyBase<geode::modifier::ModifyDerive<hook6<(anonymous namespace)::hook6Parent>, PlayLayer> >::~ModifyBase()
PUBLIC 5ee8 0 geode::modifier::ModifyDerive<hook6<(anonymous namespace)::hook6Parent>, PlayLayer>::apply()
PUBLIC 67a4 0 std::__ndk1::shared_ptr<geode::Hook>::~shared_ptr[abi:ne180000]()
PUBLIC 67f4 0 geode::impl::ResultData<geode::Hook*, std::__ndk1::basic_string<char, std::__ndk1::char_traits<char>, std::__ndk1::allocator<char> > >::~ResultData()
PUBLIC 6868 0 std::__ndk1::vector<std::__ndk1::basic_string<char, std::__ndk1::char_traits<char>, std::__ndk1::allocator<char> >, std::__ndk1::allocator<std::__ndk1::basic_string<char, std::__ndk1::char_traits<char>, std::__ndk1::allocator<char> > > >::~vector[abi:ne180000]()
PUBLIC 68e4 0 geode::modifier::ModifyBase<geode::modifier::ModifyDerive<hook6<(anonymous namespace)::hook6Parent>, PlayLayer> >::apply()
PUBLIC 68e8 0 __clang_call_terminate
PUBLIC 68f8 0 _ZN5geode15UnwrapExceptionC2IRPNS_4HookEQsr4implE18IsStringStreamableIT_EEENS_4impl5OkTagEOS5_
PUBLIC 6ff4 0 std::__ndk1::__throw_bad_variant_access[abi:ne180000]()
PUBLIC m 7028 0 std::__ndk1::basic_stringstream<char, std::__ndk1::char_traits<char>, std::__ndk1::allocator<char> >::~basic_stringstream()
PUBLIC 70a8 0 geode::UnwrapException::~UnwrapException()
PUBLIC 70cc 0 std::__ndk1::basic_string<char, std::__ndk1::char_traits<char>, std::__ndk1::allocator<char> >::__throw_length_error[abi:ne180000]() const
PUBLIC 70e0 0 std::__ndk1::__throw_length_error[abi:ne180000](char const*)
PUBLIC 7130 0 std::length_error::length_error[abi:ne180000](char const*)
PUBLIC 7160 0 std::__throw_bad_array_new_length([abi:ne180000], void)
PUBLIC 7194 0 std::__ndk1::basic_string<char, std::__ndk1::char_traits<char>, std::__ndk1::allocator<char> >::__init_copy_ctor_external(char const*, unsigned long)
PUBLIC 7210 0 std::__ndk1::__split_buffer<std::__ndk1::basic_string<char, std::__ndk1::char_traits<char>, std::__ndk1::allocator<char> >, std::__ndk1::allocator<std::__ndk1::basic_string<char, std::__ndk1::char_traits<char>, std::__ndk1::allocator<char> > >&>::~__split_buffer()
PUBLIC 7278 0 std::__ndk1::vector<std::__ndk1::basic_string<char, std::__ndk1::char_traits<char>, std::__ndk1::allocator<char> >, std::__ndk1::allocator<std::__ndk1::basic_string<char, std::__ndk1::char_traits<char>, std::__ndk1::allocator<char> > > >::__throw_length_error[abi:ne180000]() const
PUBLIC 728c 0 std::__ndk1::__variant_detail::__visitation::__base::__dispatcher<(unsigned long)0>::__dispatch[abi:ne180000]<std::__ndk1::__variant_detail::__dtor<std::__ndk1::__variant_detail::__traits<geode::Hook*, std::__ndk1::basic_string<char, std::__ndk1::char_traits<char>, std::__ndk1::allocator<char> > >, (std::__ndk1::__variant_detail::_Trait)1>::__destroy[abi:ne180000]()::{lambda(auto:1&)#1}, std::__ndk1::__variant_detail::__base<(std::__ndk1::__variant_detail::__traits<geode::Hook*, std::__ndk1::basic_string<char, std::__ndk1::char_traits<char>, std::__ndk1::allocator<char> > >)1, geode::Hook, std::__ndk1::allocator<char> >&>(std::__ndk1::__variant_detail::__dtor<std::__ndk1::__variant_detail::__traits<geode::Hook*, std::__ndk1::basic_string<char, std::__ndk1::char_traits<char>, std::__ndk1::allocator<char> > >, (std::__ndk1::__variant_detail::_Trait)1>, std::__ndk1::__variant_detail::__base<(std::__ndk1::__variant_detail::__traits<geode::Hook*, std::__ndk1::basic_string<char, std::__ndk1::char_traits<char>, std::__ndk1::allocator<char> > >)1, geode::Hook, std::__ndk1::allocator<char> >&)
PUBLIC 7290 0 std::__ndk1::__variant_detail::__visitation::__base::__dispatcher<(unsigned long)1>::__dispatch[abi:ne180000]<std::__ndk1::__variant_detail::__dtor<std::__ndk1::__variant_detail::__traits<geode::Hook*, std::__ndk1::basic_string<char, std::__ndk1::char_traits<char>, std::__ndk1::allocator<char> > >, (std::__ndk1::__variant_detail::_Trait)1>::__destroy[abi:ne180000]()::{lambda(auto:1&)#1}, std::__ndk1::__variant_detail::__base<(std::__ndk1::__variant_detail::__traits<geode::Hook*, std::__ndk1::basic_string<char, std::__ndk1::char_traits<char>, std::__ndk1::allocator<char> > >)1, geode::Hook, std::__ndk1::allocator<char> >&>(std::__ndk1::__variant_detail::__dtor<std::__ndk1::__variant_detail::__traits<geode::Hook*, std::__ndk1::basic_string<char, std::__ndk1::char_traits<char>, std::__ndk1::allocator<char> > >, (std::__ndk1::__variant_detail::_Trait)1>, std::__ndk1::__variant_detail::__base<(std::__ndk1::__variant_detail::__traits<geode::Hook*, std::__ndk1::basic_string<char, std::__ndk1::char_traits<char>, std::__ndk1::allocator<char> > >)1, geode::Hook, std::__ndk1::allocator<char> >&)
PUBLIC 72a4 0 std::__ndk1::__tree<std::__ndk1::__value_type<std::__ndk1::basic_string<char, std::__ndk1::char_traits<char>, std::__ndk1::allocator<char> >, std::__ndk1::shared_ptr<geode::Hook> >, std::__ndk1::__map_value_compare<std::__ndk1::basic_string<char, std::__ndk1::char_traits<char>, std::__ndk1::allocator<char> >, std::__ndk1::__value_type<std::__ndk1::basic_string<char, std::__ndk1::char_traits<char>, std::__ndk1::allocator<char> >, std::__ndk1::shared_ptr<geode::Hook> >, std::__ndk1::less<std::__ndk1::basic_string<char, std::__ndk1::char_traits<char>, std::__ndk1::allocator<char> > >, true>, std::__ndk1::allocator<std::__ndk1::__value_type<std::__ndk1::basic_string<char, std::__ndk1::char_traits<char>, std::__ndk1::allocator<char> >, std::__ndk1::shared_ptr<geode::Hook> > > >::destroy(std::__ndk1::__tree_node<std::__ndk1::__value_type<std::__ndk1::basic_string<char, std::__ndk1::char_traits<char>, std::__ndk1::allocator<char> >, std::__ndk1::shared_ptr<geode::Hook> >, void*>*)
PUBLIC 7328 0 geode::modifier::AsStaticFunction_postUpdate<hook6<(anonymous namespace)::hook6Parent>, void (hook6<(anonymous namespace)::hook6Parent>::*)(float)>::Impl<void (hook6<(anonymous namespace)::hook6Parent>::*)(float)>::function(hook6<(anonymous namespace)::hook6Parent>*, float)
PUBLIC 7500 0 geode::modifier::AsStaticFunction_removeCheckpoint<hook6<(anonymous namespace)::hook6Parent>, void (hook6<(anonymous namespace)::hook6Parent>::*)(bool)>::Impl<void (hook6<(anonymous namespace)::hook6Parent>::*)(bool)>::function(hook6<(anonymous namespace)::hook6Parent>*, bool)
PUBLIC 75ec 0 geode::modifier::AsStaticFunction_storeCheckpoint<hook6<(anonymous namespace)::hook6Parent>, void (hook6<(anonymous namespace)::hook6Parent>::*)(CheckpointObject*)>::Impl<void (hook6<(anonymous namespace)::hook6Parent>::*)(CheckpointObject*)>::function(hook6<(anonymous namespace)::hook6Parent>*, CheckpointObject*)
PUBLIC 76d8 0 geode::addresser::Addresser::addressOfVirtual<void, PlayLayer, float>(void (PlayLayer::*)(float))
PUBLIC 77a0 0 PlayLayer::PlayLayer(geode::ZeroConstructorType)
PUBLIC 84b0 0 geode::stl::unordered_map<int, int, geode::stl::hash<int>, geode::stl::equal_to<int>, std::__ndk1::allocator<std::__ndk1::pair<int const, int> > >::~unordered_map()
PUBLIC 8528 0 geode::stl::unordered_set<int, geode::stl::hash<int>, geode::stl::equal_to<int>, std::__ndk1::allocator<int> >::~unordered_set()
PUBLIC 85a0 0 geode::stl::unordered_map<int, gd::string, geode::stl::hash<int>, geode::stl::equal_to<int>, std::__ndk1::allocator<std::__ndk1::pair<int const, gd::string> > >::~unordered_map()
PUBLIC 8624 0 geode::stl::unordered_map<int, gd::vector<LabelGameObject*>, geode::stl::hash<int>, geode::stl::equal_to<int>, std::__ndk1::allocator<std::__ndk1::pair<int const, gd::vector<LabelGameObject*> > > >::~unordered_map()
PUBLIC 86b0 0 geode::stl::unordered_map<int, std::__ndk1::pair<int, int>, geode::stl::hash<int>, geode::stl::equal_to<int>, std::__ndk1::allocator<std::__ndk1::pair<int const, std::__ndk1::pair<int, int> > > >::~unordered_map()
PUBLIC 8728 0 geode::stl::unordered_map<int, gd::vector<GameObject*>, geode::stl::hash<int>, geode::stl::equal_to<int>, std::__ndk1::allocator<std::__ndk1::pair<int const, gd::vector<GameObject*> > > >::~unordered_map()
PUBLIC 87b4 0 geode::stl::unordered_map<int, cocos2d::CCPoint, geode::stl::hash<int>, geode::stl::equal_to<int>, std::__ndk1::allocator<std::__ndk1::pair<int const, cocos2d::CCPoint> > >::~unordered_map()
PUBLIC 882c 0 gd::vector<geode::stl::unordered_map<int, int, geode::stl::hash<int>, geode::stl::equal_to<int>, std::__ndk1::allocator<std::__ndk1::pair<int const, int> > > >::~vector()
PUBLIC 8930 0 GJGameState::~GJGameState()
PUBLIC 8fc4 0 geode::stl::unordered_map<int, SongChannelState, geode::stl::hash<int>, geode::stl::equal_to<int>, std::__ndk1::allocator<std::__ndk1::pair<int const, SongChannelState> > >::~unordered_map()
PUBLIC 903c 0 geode::stl::unordered_map<int, std::__ndk1::vector<int, std::__ndk1::allocator<int> >, geode::stl::hash<int>, geode::stl::equal_to<int>, std::__ndk1::allocator<std::__ndk1::pair<int const, std::__ndk1::vector<int, std::__ndk1::allocator<int> > > > >::~unordered_map()
PUBLIC 90cc 0 gd::vector<EnterEffectInstance>::~vector()
PUBLIC 915c 0 geode::stl::unordered_map<int, std::__ndk1::vector<EnterEffectInstance, std::__ndk1::allocator<EnterEffectInstance> >, geode::stl::hash<int>, geode::stl::equal_to<int>, std::__ndk1::allocator<std::__ndk1::pair<int const, std::__ndk1::vector<EnterEffectInstance, std::__ndk1::allocator<EnterEffectInstance> > > > >::~unordered_map()
PUBLIC 9230 0 geode::stl::unordered_map<int, EnhancedGameObject*, geode::stl::hash<int>, geode::stl::equal_to<int>, std::__ndk1::allocator<std::__ndk1::pair<int const, EnhancedGameObject*> > >::~unordered_map()
PUBLIC 92a8 0 geode::stl::unordered_map<int, GameObjectPhysics, geode::stl::hash<int>, geode::stl::equal_to<int>, std::__ndk1::allocator<std::__ndk1::pair<int const, GameObjectPhysics> > >::~unordered_map()
PUBLIC 9320 0 geode::stl::unordered_map<int, GJValueTween, geode::stl::hash<int>, geode::stl::equal_to<int>, std::__ndk1::allocator<std::__ndk1::pair<int const, GJValueTween> > >::~unordered_map()
PUBLIC 9398 0 geode::stl::unordered_map<int, bool, geode::stl::hash<int>, geode::stl::equal_to<int>, std::__ndk1::allocator<std::__ndk1::pair<int const, bool> > >::~unordered_map()
PUBLIC 9410 0 gd::map<std::__ndk1::pair<int, int>, SFXTriggerInstance>::erase(geode::stl::_rb_tree_node<std::__ndk1::pair<std::__ndk1::pair<int, int>, SFXTriggerInstance> >*)
PUBLIC 945c 0 gd::map<int, EnterEffectAnimValue>::erase(geode::stl::_rb_tree_node<std::__ndk1::pair<int, EnterEffectAnimValue> >*)
PUBLIC 94a8 0 gd::map<std::__ndk1::pair<GJGameEvent, int>, int>::erase(geode::stl::_rb_tree_node<std::__ndk1::pair<std::__ndk1::pair<GJGameEvent, int>, int> >*)
PUBLIC 94f4 0 gd::map<std::__ndk1::pair<GJGameEvent, int>, gd::vector<EventTriggerInstance> >::erase(geode::stl::_rb_tree_node<std::__ndk1::pair<std::__ndk1::pair<GJGameEvent, int>, gd::vector<EventTriggerInstance> > >*)
PUBLIC 9594 0 gd::map<std::__ndk1::pair<int, int>, int>::erase(geode::stl::_rb_tree_node<std::__ndk1::pair<std::__ndk1::pair<int, int>, int> >*)
PUBLIC 95e0 0 std::__ndk1::shared_ptr<tulip::hook::CallingConvention>::~shared_ptr[abi:ne180000]()
PUBLIC 9630 0 tulip::hook::HandlerMetadata::~HandlerMetadata()
PUBLIC 9694 0 geode::modifier::FieldIntermediate<hook6<(anonymous namespace)::hook6Parent>, PlayLayer>::operator->()
PUBLIC 9ce0 0 geode::cocos::CCArrayExt<CheckpointObject*>::~CCArrayExt()
PUBLIC 9cfc 0 geode::modifier::FieldIntermediate<hook6<(anonymous namespace)::hook6Parent>, PlayLayer>::fieldDestructor(void*)
PUBLIC 9d48 0 std::__ndk1::vector<void*, std::__ndk1::allocator<void*> >::__throw_length_error[abi:ne180000]() const
PUBLIC 9d5c 0 std::__ndk1::vector<std::__ndk1::function<void (void*)>, std::__ndk1::allocator<std::__ndk1::function<void (void*)> > >::__throw_length_error[abi:ne180000]() const
PUBLIC 9d70 0 std::__ndk1::vector<void*, std::__ndk1::allocator<void*> >::__throw_out_of_range[abi:ne180000]() const
PUBLIC 9d7c 0 std::__ndk1::__throw_out_of_range[abi:ne180000](char const*)
PUBLIC 9dc4 0 std::out_of_range::out_of_range[abi:ne180000](char const*)
PUBLIC 9dfc 0 std::__ndk1::vector<std::__ndk1::function<void (void*)>, std::__ndk1::allocator<std::__ndk1::function<void (void*)> > >::__throw_out_of_range[abi:ne180000]() const
PUBLIC 9e08 0 std::__ndk1::__function::__base<void (void*)>::~__base()
PUBLIC 9e0c 0 std::__ndk1::__function::__func<void (*)(void*), std::__ndk1::allocator<void (*)(void*)>, void (void*)>::~__func()
PUBLIC 9e10 0 std::__ndk1::__function::__func<void (*)(void*), std::__ndk1::allocator<void (*)(void*)>, void (void*)>::__clone() const
PUBLIC 9e48 0 std::__ndk1::__function::__func<void (*)(void*), std::__ndk1::allocator<void (*)(void*)>, void (void*)>::__clone(std::__ndk1::__function::__base<void (void*)>*) const
PUBLIC 9e60 0 std::__ndk1::__function::__func<void (*)(void*), std::__ndk1::allocator<void (*)(void*)>, void (void*)>::destroy()
PUBLIC 9e64 0 std::__ndk1::__function::__func<void (*)(void*), std::__ndk1::allocator<void (*)(void*)>, void (void*)>::destroy_deallocate()
PUBLIC 9e68 0 std::__ndk1::__function::__func<void (*)(void*), std::__ndk1::allocator<void (*)(void*)>, void (void*)>::operator()(void*&&)
PUBLIC 9e78 0 std::__ndk1::__function::__func<void (*)(void*), std::__ndk1::allocator<void (*)(void*)>, void (void*)>::target(std::type_info const&) const
PUBLIC 9e94 0 std::__ndk1::__function::__func<void (*)(void*), std::__ndk1::allocator<void (*)(void*)>, void (void*)>::target_type() const
PUBLIC 9ea0 0 std::__ndk1::__hash_table<std::__ndk1::__hash_value_type<CheckpointObject*, int>, std::__ndk1::__unordered_map_hasher<CheckpointObject*, std::__ndk1::__hash_value_type<CheckpointObject*, int>, std::__ndk1::hash<CheckpointObject*>, std::__ndk1::equal_to<CheckpointObject*>, true>, std::__ndk1::__unordered_map_equal<CheckpointObject*, std::__ndk1::__hash_value_type<CheckpointObject*, int>, std::__ndk1::equal_to<CheckpointObject*>, std::__ndk1::hash<CheckpointObject*>, true>, std::__ndk1::allocator<std::__ndk1::__hash_value_type<CheckpointObject*, int> > >::__emplace_unique_key_args<CheckpointObject*, std::__ndk1::piecewise_construct_t const&, std::__ndk1::tuple<CheckpointObject* const&>, std::__ndk1::tuple<> >(CheckpointObject* const&, std::__ndk1::piecewise_construct_t const&, std::__ndk1::tuple<CheckpointObject* const&>, std::__ndk1::tuple<>)
PUBLIC a380 0 std::__ndk1::__tree<std::__ndk1::__value_type<std::__ndk1::basic_string<char, std::__ndk1::char_traits<char>, std::__ndk1::allocator<char> >, std::__ndk1::shared_ptr<geode::Hook> >, std::__ndk1::__map_value_compare<std::__ndk1::basic_string<char, std::__ndk1::char_traits<char>, std::__ndk1::allocator<char> >, std::__ndk1::__value_type<std::__ndk1::basic_string<char, std::__ndk1::char_traits<char>, std::__ndk1::allocator<char> >, std::__ndk1::shared_ptr<geode::Hook> >, std::__ndk1::less<std::__ndk1::basic_string<char, std::__ndk1::char_traits<char>, std::__ndk1::allocator<char> > >, true>, std::__ndk1::allocator<std::__ndk1::__value_type<std::__ndk1::basic_string<char, std::__ndk1::char_traits<char>, std::__ndk1::allocator<char> >, std::__ndk1::shared_ptr<geode::Hook> > > >::__emplace_unique_key_args<std::__ndk1::basic_string<char, std::__ndk1::char_traits<char>, std::__ndk1::allocator<char> >, std::__ndk1::piecewise_construct_t const&, std::__ndk1::tuple<std::__ndk1::basic_string<char, std::__ndk1::char_traits<char>, std::__ndk1::allocator<char> >&&>, std::__ndk1::tuple<> >(std::__ndk1::basic_string<char, std::__ndk1::char_traits<char>, std::__ndk1::allocator<char> > const&, std::__ndk1::piecewise_construct_t const&, std::__ndk1::tuple<std::__ndk1::basic_string<char, std::__ndk1::char_traits<char>, std::__ndk1::allocator<char> >&&>, std::__ndk1::tuple<>)
PUBLIC a694 0 std::__ndk1::__function::__func<hook6<(anonymous namespace)::hook6Parent>::removeCheckpoint(bool)::{lambda()#1}, std::__ndk1::allocator<hook6<(anonymous namespace)::hook6Parent>::removeCheckpoint(bool)::{lambda()#1}>, void ()>::~__func()
PUBLIC a698 0 std::__ndk1::__function::__func<hook6<(anonymous namespace)::hook6Parent>::removeCheckpoint(bool)::{lambda()#1}, std::__ndk1::allocator<hook6<(anonymous namespace)::hook6Parent>::removeCheckpoint(bool)::{lambda()#1}>, void ()>::__clone() const
PUBLIC a6cc 0 std::__ndk1::__function::__func<hook6<(anonymous namespace)::hook6Parent>::removeCheckpoint(bool)::{lambda()#1}, std::__ndk1::allocator<hook6<(anonymous namespace)::hook6Parent>::removeCheckpoint(bool)::{lambda()#1}>, void ()>::__clone(std::__ndk1::__function::__base<void ()>*) const
PUBLIC a6e0 0 std::__ndk1::__function::__func<hook6<(anonymous namespace)::hook6Parent>::removeCheckpoint(bool)::{lambda()#1}, std::__ndk1::allocator<hook6<(anonymous namespace)::hook6Parent>::removeCheckpoint(bool)::{lambda()#1}>, void ()>::destroy()
PUBLIC a6e4 0 std::__ndk1::__function::__func<hook6<(anonymous namespace)::hook6Parent>::removeCheckpoint(bool)::{lambda()#1}, std::__ndk1::allocator<hook6<(anonymous namespace)::hook6Parent>::removeCheckpoint(bool)::{lambda()#1}>, void ()>::destroy_deallocate()
PUBLIC a6e8 0 std::__ndk1::__function::__func<hook6<(anonymous namespace)::hook6Parent>::removeCheckpoint(bool)::{lambda()#1}, std::__ndk1::allocator<hook6<(anonymous namespace)::hook6Parent>::removeCheckpoint(bool)::{lambda()#1}>, void ()>::operator()()
PUBLIC a6f0 0 std::__ndk1::__function::__func<hook6<(anonymous namespace)::hook6Parent>::removeCheckpoint(bool)::{lambda()#1}, std::__ndk1::allocator<hook6<(anonymous namespace)::hook6Parent>::removeCheckpoint(bool)::{lambda()#1}>, void ()>::target(std::type_info const&) const
PUBLIC a70c 0 std::__ndk1::__function::__func<hook6<(anonymous namespace)::hook6Parent>::removeCheckpoint(bool)::{lambda()#1}, std::__ndk1::allocator<hook6<(anonymous namespace)::hook6Parent>::removeCheckpoint(bool)::{lambda()#1}>, void ()>::target_type() const
PUBLIC a718 0 hook6<(anonymous namespace)::hook6Parent>::updateCheckpoints()
PUBLIC ac30 0 geode::cast::traverseTypeinfoFor(void*, geode::cast::ClassTypeinfoType const*, char const*)
PUBLIC ad28 0 std::__ndk1::__function::__base<void ()>::~__base()
PUBLIC ad2c 0 std::__ndk1::__function::__func<hook6<(anonymous namespace)::hook6Parent>::storeCheckpoint(CheckpointObject*)::{lambda()#1}, std::__ndk1::allocator<hook6<(anonymous namespace)::hook6Parent>::storeCheckpoint(CheckpointObject*)::{lambda()#1}>, void ()>::~__func()
PUBLIC ad30 0 std::__ndk1::__function::__func<hook6<(anonymous namespace)::hook6Parent>::storeCheckpoint(CheckpointObject*)::{lambda()#1}, std::__ndk1::allocator<hook6<(anonymous namespace)::hook6Parent>::storeCheckpoint(CheckpointObject*)::{lambda()#1}>, void ()>::__clone() const
PUBLIC ad64 0 std::__ndk1::__function::__func<hook6<(anonymous namespace)::hook6Parent>::storeCheckpoint(CheckpointObject*)::{lambda()#1}, std::__ndk1::allocator<hook6<(anonymous namespace)::hook6Parent>::storeCheckpoint(CheckpointObject*)::{lambda()#1}>, void ()>::__clone(std::__ndk1::__function::__base<void ()>*) const
PUBLIC ad78 0 std::__ndk1::__function::__func<hook6<(anonymous namespace)::hook6Parent>::storeCheckpoint(CheckpointObject*)::{lambda()#1}, std::__ndk1::allocator<hook6<(anonymous namespace)::hook6Parent>::storeCheckpoint(CheckpointObject*)::{lambda()#1}>, void ()>::destroy()
PUBLIC ad7c 0 std::__ndk1::__function::__func<hook6<(anonymous namespace)::hook6Parent>::storeCheckpoint(CheckpointObject*)::{lambda()#1}, std::__ndk1::allocator<hook6<(anonymous namespace)::hook6Parent>::storeCheckpoint(CheckpointObject*)::{lambda()#1}>, void ()>::destroy_deallocate()
PUBLIC ad80 0 std::__ndk1::__function::__func<hook6<(anonymous namespace)::hook6Parent>::storeCheckpoint(CheckpointObject*)::{lambda()#1}, std::__ndk1::allocator<hook6<(anonymous namespace)::hook6Parent>::storeCheckpoint(CheckpointObject*)::{lambda()#1}>, void ()>::operator()()
PUBLIC ad88 0 std::__ndk1::__function::__func<hook6<(anonymous namespace)::hook6Parent>::storeCheckpoint(CheckpointObject*)::{lambda()#1}, std::__ndk1::allocator<hook6<(anonymous namespace)::hook6Parent>::storeCheckpoint(CheckpointObject*)::{lambda()#1}>, void ()>::target(std::type_info const&) const
PUBLIC ada4 0 std::__ndk1::__function::__func<hook6<(anonymous namespace)::hook6Parent>::storeCheckpoint(CheckpointObject*)::{lambda()#1}, std::__ndk1::allocator<hook6<(anonymous namespace)::hook6Parent>::storeCheckpoint(CheckpointObject*)::{lambda()#1}>, void ()>::target_type() const
PUBLIC m adb0 0 geodeImplicitEntry
PUBLIC adf0 0 <.plt ELF section in blueblock6.transparent_checkpoints.android64.so>
STACK CFI INIT 4bb0 10 .cfa: sp 0 +
STACK CFI INIT 4bc0 8 .cfa: sp 0 +
STACK CFI INIT 4bc8 8 .cfa: sp 0 +
STACK CFI INIT 4bd0 14 .cfa: sp 0 +
STACK CFI INIT 4be4 1c .cfa: sp 0 +
STACK CFI INIT 4c00 10 .cfa: sp 0 +
STACK CFI INIT 4c10 30 .cfa: sp 0 +
STACK CFI INIT 4c40 98 .cfa: sp 0 +
STACK CFI INIT 4cd8 59c .cfa: sp 0 +
STACK CFI INIT 5274 8c .cfa: sp 0 +
STACK CFI INIT 5300 30 .cfa: sp 0 +
STACK CFI INIT 5ed0 18 .cfa: sp 0 +
STACK CFI INIT 67a4 50 .cfa: sp 0 +
STACK CFI 67a8 .cfa: sp 32 +
STACK CFI 67b0 .cfa: x29 32 + x19: .cfa -16 + ^ .ra: .cfa -24 + ^ x29: .cfa -32 + ^
STACK CFI 67c8 .cfa: sp 32 +
STACK CFI 67d0 .cfa: sp 0 +
STACK CFI 67d4 .cfa: x29 32 +
STACK CFI 67e8 .cfa: sp 32 +
STACK CFI 67f0 .cfa: sp 0 +
STACK CFI INIT 6868 7c .cfa: sp 0 +
STACK CFI 686c .cfa: sp 48 +
STACK CFI 6878 .cfa: x29 48 + x19: .cfa -8 + ^ x20: .cfa -16 + ^ x21: .cfa -32 + ^ .ra: .cfa -40 + ^ x29: .cfa -48 + ^
STACK CFI 68c4 .cfa: sp 48 +
STACK CFI 68d0 .cfa: sp 0 +
STACK CFI 68d4 .cfa: sp 48 +
STACK CFI 68e0 .cfa: sp 0 +
STACK CFI INIT 68e4 4 .cfa: sp 0 +
STACK CFI INIT 68e8 10 .cfa: sp 0 +
STACK CFI 68ec .cfa: sp 16 +
STACK CFI 68f0 .cfa: x29 16 + .ra: .cfa -8 + ^ x29: .cfa -16 + ^
STACK CFI INIT 6ff4 34 .cfa: sp 0 +
STACK CFI 6ff8 .cfa: sp 16 +
STACK CFI 6ffc .cfa: x29 16 + .ra: .cfa -8 + ^ x29: .cfa -16 + ^
STACK CFI INIT 7028 80 .cfa: sp 0 +
STACK CFI 702c .cfa: sp 48 +
STACK CFI 7038 .cfa: x29 48 + x19: .cfa -8 + ^ x20: .cfa -16 + ^ x21: .cfa -32 + ^ .ra: .cfa -40 + ^ x29: .cfa -48 + ^
STACK CFI 7098 .cfa: sp 48 +
STACK CFI 70a4 .cfa: sp 0 +
STACK CFI INIT 70a8 24 .cfa: sp 0 +
STACK CFI 70ac .cfa: sp 32 +
STACK CFI 70b4 .cfa: x29 32 + x19: .cfa -16 + ^ .ra: .cfa -24 + ^ x29: .cfa -32 + ^
STACK CFI 70c0 .cfa: sp 32 +
STACK CFI 70c8 .cfa: sp 0 +
STACK CFI INIT 70cc 14 .cfa: sp 0 +
STACK CFI 70d0 .cfa: sp 16 +
STACK CFI 70d4 .cfa: x29 16 + .ra: .cfa -8 + ^ x29: .cfa -16 + ^
STACK CFI INIT 7130 30 .cfa: sp 0 +
STACK CFI 7134 .cfa: sp 32 +
STACK CFI 713c .cfa: x29 32 + x19: .cfa -16 + ^ .ra: .cfa -24 + ^ x29: .cfa -32 + ^
STACK CFI 7154 .cfa: sp 32 +
STACK CFI 715c .cfa: sp 0 +
STACK CFI INIT 7160 34 .cfa: sp 0 +
STACK CFI 7164 .cfa: sp 32 +
STACK CFI 716c .cfa: x29 32 + x19: .cfa -16 + ^ .ra: .cfa -24 + ^ x29: .cfa -32 + ^
STACK CFI INIT 7194 7c .cfa: sp 0 +
STACK CFI 7198 .cfa: sp 48 +
STACK CFI 71a4 .cfa: x29 48 + x19: .cfa -8 + ^ x20: .cfa -16 + ^ x21: .cfa -24 + ^ x22: .cfa -32 + ^ .ra: .cfa -40 + ^ x29: .cfa -48 + ^
STACK CFI 71bc .cfa: sp 48 +
STACK CFI 71c8 .cfa: sp 0 +
STACK CFI 71cc .cfa: x29 48 +
STACK CFI 71fc .cfa: sp 48 +
STACK CFI 7208 .cfa: sp 0 +
STACK CFI 720c .cfa: x29 48 +
STACK CFI INIT 7210 68 .cfa: sp 0 +
STACK CFI 7214 .cfa: sp 32 +
STACK CFI 721c .cfa: x29 32 + x19: .cfa -8 + ^ x20: .cfa -16 + ^ .ra: .cfa -24 + ^ x29: .cfa -32 + ^
STACK CFI 7234 .cfa: sp 32 +
STACK CFI 723c .cfa: sp 0 +
STACK CFI 7240 .cfa: x29 32 +
STACK CFI 726c .cfa: sp 32 +
STACK CFI 7274 .cfa: sp 0 +
STACK CFI INIT 7278 14 .cfa: sp 0 +
STACK CFI 727c .cfa: sp 16 +
STACK CFI 7280 .cfa: x29 16 + .ra: .cfa -8 + ^ x29: .cfa -16 + ^
STACK CFI INIT 728c 4 .cfa: sp 0 +
STACK CFI INIT 7290 14 .cfa: sp 0 +
STACK CFI INIT 72a4 84 .cfa: sp 0 +
STACK CFI 72ac .cfa: sp 32 +
STACK CFI 72b4 .cfa: x29 32 + x19: .cfa -8 + ^ x20: .cfa -16 + ^ .ra: .cfa -24 + ^ x29: .cfa -32 + ^
STACK CFI 72f4 .cfa: sp 32 +
STACK CFI 72fc .cfa: sp 0 +
STACK CFI 7304 .cfa: x29 32 +
STACK CFI INIT 84b0 78 .cfa: sp 0 +
STACK CFI 84b4 .cfa: sp 48 +
STACK CFI 84c0 .cfa: x29 48 + x19: .cfa -8 + ^ x20: .cfa -16 + ^ x21: .cfa -32 + ^ .ra: .cfa -40 + ^ x29: .cfa -48 + ^
STACK CFI 8508 .cfa: sp 48 +
STACK CFI 8514 .cfa: sp 0 +
STACK CFI 8518 .cfa: sp 48 +
STACK CFI 8524 .cfa: sp 0 +
STACK CFI INIT 8528 78 .cfa: sp 0 +
STACK CFI 852c .cfa: sp 48 +
STACK CFI 8538 .cfa: x29 48 + x19: .cfa -8 + ^ x20: .cfa -16 + ^ x21: .cfa -32 + ^ .ra: .cfa -40 + ^ x29: .cfa -48 + ^
STACK CFI 8580 .cfa: sp 48 +
STACK CFI 858c .cfa: sp 0 +
STACK CFI 8590 .cfa: sp 48 +
STACK CFI 859c .cfa: sp 0 +
STACK CFI INIT 85a0 84 .cfa: sp 0 +
STACK CFI 85a4 .cfa: sp 48 +
STACK CFI 85b0 .cfa: x29 48 + x19: .cfa -8 + ^ x20: .cfa -16 + ^ x21: .cfa -24 + ^ x22: .cfa -32 + ^ .ra: .cfa -40 + ^ x29: .cfa -48 + ^
STACK CFI 8604 .cfa: sp 48 +
STACK CFI 8610 .cfa: sp 0 +
STACK CFI 8614 .cfa: sp 48 +
STACK CFI 8620 .cfa: sp 0 +
STACK CFI INIT 8624 8c .cfa: sp 0 +
STACK CFI 8628 .cfa: sp 48 +
STACK CFI 8634 .cfa: x29 48 + x19: .cfa -8 + ^ x20: .cfa -16 + ^ x21: .cfa -24 + ^ x22: .cfa -32 + ^ .ra: .cfa -40 + ^ x29: .cfa -48 + ^
STACK CFI 866c .cfa: sp 48 +
STACK CFI 8678 .cfa: sp 0 +
STACK CFI 867c .cfa: x29 48 +
STACK CFI 86a0 .cfa: sp 48 +
STACK CFI 86ac .cfa: sp 0 +
STACK CFI INIT 86b0 78 .cfa: sp 0 +
STACK CFI 86b4 .cfa: sp 48 +
STACK CFI 86c0 .cfa: x29 48 + x19: .cfa -8 + ^ x20: .cfa -16 + ^ x21: .cfa -32 + ^ .ra: .cfa -40 + ^ x29: .cfa -48 + ^
STACK CFI 8708 .cfa: sp 48 +
STACK CFI 8714 .cfa: sp 0 +
STACK CFI 8718 .cfa: sp 48 +
STACK CFI 8724 .cfa: sp 0 +
STACK CFI INIT 8728 8c .cfa: sp 0 +
STACK CFI 872c .cfa: sp 48 +
STACK CFI 8738 .cfa: x29 48 + x19: .cfa -8 + ^ x20: .cfa -16 + ^ x21: .cfa -24 + ^ x22: .cfa -32 + ^ .ra: .cfa -40 + ^ x29: .cfa -48 + ^
STACK CFI 8770 .cfa: sp 48 +
STACK CFI 877c .cfa: sp 0 +
STACK CFI 8780 .cfa: x29 48 +
STACK CFI 87a4 .cfa: sp 48 +
STACK CFI 87b0 .cfa: sp 0 +
STACK CFI INIT 87b4 78 .cfa: sp 0 +
STACK CFI 87b8 .cfa: sp 48 +
STACK CFI 87c4 .cfa: x29 48 + x19: .cfa -8 + ^ x20: .cfa -16 + ^ x21: .cfa -32 + ^ .ra: .cfa -40 + ^ x29: .cfa -48 + ^
STACK CFI 880c .cfa: sp 48 +
STACK CFI 8818 .cfa: sp 0 +
STACK CFI 881c .cfa: sp 48 +
STACK CFI 8828 .cfa: sp 0 +
STACK CFI INIT 882c 104 .cfa: sp 0 +
STACK CFI 8830 .cfa: sp 64 +
STACK CFI 8840 .cfa: x29 64 + x19: .cfa -8 + ^ x20: .cfa -16 + ^ x21: .cfa -24 + ^ x22: .cfa -32 + ^ x23: .cfa -48 + ^ .ra: .cfa -56 + ^ x29: .cfa -64 + ^
STACK CFI 8908 .cfa: sp 64 +
STACK CFI 8918 .cfa: sp 0 +
STACK CFI 891c .cfa: sp 64 +
STACK CFI 892c .cfa: sp 0 +
STACK CFI INIT 8930 694 .cfa: sp 0 +
STACK CFI 8934 .cfa: sp 64 +
STACK CFI 8944 .cfa: x29 64 + x19: .cfa -8 + ^ x20: .cfa -16 + ^ x21: .cfa -24 + ^ x22: .cfa -32 + ^ x23: .cfa -40 + ^ x24: .cfa -48 + ^ .ra: .cfa -56 + ^ x29: .cfa -64 + ^
STACK CFI 8edc .cfa: sp 64 +
STACK CFI 8eec .cfa: sp 0 +
STACK CFI 8ef0 .cfa: x29 64 +
STACK CFI 8fb0 .cfa: sp 64 +
STACK CFI 8fc0 .cfa: sp 0 +
STACK CFI INIT 8fc4 78 .cfa: sp 0 +
STACK CFI 8fc8 .cfa: sp 48 +
STACK CFI 8fd4 .cfa: x29 48 + x19: .cfa -8 + ^ x20: .cfa -16 + ^ x21: .cfa -32 + ^ .ra: .cfa -40 + ^ x29: .cfa -48 + ^
STACK CFI 901c .cfa: sp 48 +
STACK CFI 9028 .cfa: sp 0 +
STACK CFI 902c .cfa: sp 48 +
STACK CFI 9038 .cfa: sp 0 +
STACK CFI INIT 903c 90 .cfa: sp 0 +
STACK CFI 9040 .cfa: sp 48 +
STACK CFI 904c .cfa: x29 48 + x19: .cfa -8 + ^ x20: .cfa -16 + ^ x21: .cfa -24 + ^ x22: .cfa -32 + ^ .ra: .cfa -40 + ^ x29: .cfa -48 + ^
STACK CFI 9084 .cfa: sp 48 +
STACK CFI 9090 .cfa: sp 0 +
STACK CFI 9094 .cfa: x29 48 +
STACK CFI 90bc .cfa: sp 48 +
STACK CFI 90c8 .cfa: sp 0 +
STACK CFI INIT 90cc 90 .cfa: sp 0 +
STACK CFI 90d0 .cfa: sp 48 +
STACK CFI 90dc .cfa: x29 48 + x19: .cfa -8 + ^ x20: .cfa -16 + ^ x21: .cfa -32 + ^ .ra: .cfa -40 + ^ x29: .cfa -48 + ^
STACK CFI 913c .cfa: sp 48 +
STACK CFI 9148 .cfa: sp 0 +
STACK CFI 914c .cfa: sp 48 +
STACK CFI 9158 .cfa: sp 0 +
STACK CFI INIT 915c d4 .cfa: sp 0 +
STACK CFI 9160 .cfa: sp 64 +
STACK CFI 9170 .cfa: x29 64 + x19: .cfa -8 + ^ x20: .cfa -16 + ^ x21: .cfa -24 + ^ x22: .cfa -32 + ^ x23: .cfa -40 + ^ x24: .cfa -48 + ^ .ra: .cfa -56 + ^ x29: .cfa -64 + ^
STACK CFI 91a8 .cfa: sp 64 +
STACK CFI 91b8 .cfa: sp 0 +
STACK CFI 91bc .cfa: x29 64 +
STACK CFI 921c .cfa: sp 64 +
STACK CFI 922c .cfa: sp 0 +
STACK CFI INIT 9230 78 .cfa: sp 0 +
STACK CFI 9234 .cfa: sp 48 +
STACK CFI 9240 .cfa: x29 48 + x19: .cfa -8 + ^ x20: .cfa -16 + ^ x21: .cfa -32 + ^ .ra: .cfa -40 + ^ x29: .cfa -48 + ^
STACK CFI 9288 .cfa: sp 48 +
STACK CFI 9294 .cfa: sp 0 +
STACK CFI 9298 .cfa: sp 48 +
STACK CFI 92a4 .cfa: sp 0 +
STACK CFI INIT 92a8 78 .cfa: sp 0 +
STACK CFI 92ac .cfa: sp 48 +
STACK CFI 92b8 .cfa: x29 48 + x19: .cfa -8 + ^ x20: .cfa -16 + ^ x21: .cfa -32 + ^ .ra: .cfa -40 + ^ x29: .cfa -48 + ^
STACK CFI 9300 .cfa: sp 48 +
STACK CFI 930c .cfa: sp 0 +
STACK CFI 9310 .cfa: sp 48 +
STACK CFI 931c .cfa: sp 0 +
STACK CFI INIT 9320 78 .cfa: sp 0 +
STACK CFI 9324 .cfa: sp 48 +
STACK CFI 9330 .cfa: x29 48 + x19: .cfa -8 + ^ x20: .cfa -16 + ^ x21: .cfa -32 + ^ .ra: .cfa -40 + ^ x29: .cfa -48 + ^
STACK CFI 9378 .cfa: sp 48 +
STACK CFI 9384 .cfa: sp 0 +
STACK CFI 9388 .cfa: sp 48 +
STACK CFI 9394 .cfa: sp 0 +
STACK CFI INIT 9398 78 .cfa: sp 0 +
STACK CFI 939c .cfa: sp 48 +
STACK CFI 93a8 .cfa: x29 48 + x19: .cfa -8 + ^ x20: .cfa -16 + ^ x21: .cfa -32 + ^ .ra: .cfa -40 + ^ x29: .cfa -48 + ^
STACK CFI 93f0 .cfa: sp 48 +
STACK CFI 93fc .cfa: sp 0 +
STACK CFI 9400 .cfa: sp 48 +
STACK CFI 940c .cfa: sp 0 +
STACK CFI INIT 9410 4c .cfa: sp 0 +
STACK CFI 9418 .cfa: sp 32 +
STACK CFI 9420 .cfa: x29 32 + x19: .cfa -16 + ^ .ra: .cfa -24 + ^ x29: .cfa -32 + ^
STACK CFI 9450 .cfa: sp 32 +
STACK CFI 9458 .cfa: sp 0 +
STACK CFI INIT 945c 4c .cfa: sp 0 +
STACK CFI 9464 .cfa: sp 32 +
STACK CFI 946c .cfa: x29 32 + x19: .cfa -16 + ^ .ra: .cfa -24 + ^ x29: .cfa -32 + ^
STACK CFI 949c .cfa: sp 32 +
STACK CFI 94a4 .cfa: sp 0 +
STACK CFI INIT 94a8 4c .cfa: sp 0 +
STACK CFI 94b0 .cfa: sp 32 +
STACK CFI 94b8 .cfa: x29 32 + x19: .cfa -16 + ^ .ra: .cfa -24 + ^ x29: .cfa -32 + ^
STACK CFI 94e8 .cfa: sp 32 +
STACK CFI 94f0 .cfa: sp 0 +
STACK CFI INIT 94f4 a0 .cfa: sp 0 +
STACK CFI 94fc .cfa: sp 48 +
STACK CFI 9508 .cfa: x29 48 + x19: .cfa -8 + ^ x20: .cfa -16 + ^ x21: .cfa -32 + ^ .ra: .cfa -40 + ^ x29: .cfa -48 + ^
STACK CFI 9584 .cfa: sp 48 +
STACK CFI 9590 .cfa: sp 0 +
STACK CFI INIT 9594 4c .cfa: sp 0 +
STACK CFI 959c .cfa: sp 32 +
STACK CFI 95a4 .cfa: x29 32 + x19: .cfa -16 + ^ .ra: .cfa -24 + ^ x29: .cfa -32 + ^
STACK CFI 95d4 .cfa: sp 32 +
STACK CFI 95dc .cfa: sp 0 +
STACK CFI INIT 95e0 50 .cfa: sp 0 +
STACK CFI 95e4 .cfa: sp 32 +
STACK CFI 95ec .cfa: x29 32 + x19: .cfa -16 + ^ .ra: .cfa -24 + ^ x29: .cfa -32 + ^
STACK CFI 9604 .cfa: sp 32 +
STACK CFI 960c .cfa: sp 0 +
STACK CFI 9610 .cfa: x29 32 +
STACK CFI 9624 .cfa: sp 32 +
STACK CFI 962c .cfa: sp 0 +
STACK CFI INIT 9630 64 .cfa: sp 0 +
STACK CFI 9634 .cfa: sp 32 +
STACK CFI 963c .cfa: x29 32 + x19: .cfa -16 + ^ .ra: .cfa -24 + ^ x29: .cfa -32 + ^
STACK CFI 9668 .cfa: sp 32 +
STACK CFI 9670 .cfa: sp 0 +
STACK CFI 9674 .cfa: x29 32 +
STACK CFI 9688 .cfa: sp 32 +
STACK CFI 9690 .cfa: sp 0 +
STACK CFI INIT 9cfc 4c .cfa: sp 0 +
STACK CFI 9d00 .cfa: sp 32 +
STACK CFI 9d08 .cfa: x29 32 + x19: .cfa -8 + ^ x20: .cfa -16 + ^ .ra: .cfa -24 + ^ x29: .cfa -32 + ^
STACK CFI 9d30 .cfa: sp 32 +
STACK CFI 9d38 .cfa: sp 0 +
STACK CFI 9d3c .cfa: sp 32 +
STACK CFI 9d44 .cfa: sp 0 +
STACK CFI INIT 9d48 14 .cfa: sp 0 +
STACK CFI 9d4c .cfa: sp 16 +
STACK CFI 9d50 .cfa: x29 16 + .ra: .cfa -8 + ^ x29: .cfa -16 + ^
STACK CFI INIT 9d5c 14 .cfa: sp 0 +
STACK CFI 9d60 .cfa: sp 16 +
STACK CFI 9d64 .cfa: x29 16 + .ra: .cfa -8 + ^ x29: .cfa -16 + ^
STACK CFI INIT 9d70 c .cfa: sp 0 +
STACK CFI 9d74 .cfa: sp 16 +
STACK CFI 9d78 .cfa: x29 16 + .ra: .cfa -8 + ^ x29: .cfa -16 + ^
STACK CFI INIT 9dc4 38 .cfa: sp 0 +
STACK CFI 9dc8 .cfa: sp 32 +
STACK CFI 9dd0 .cfa: x29 32 + x19: .cfa -16 + ^ .ra: .cfa -24 + ^ x29: .cfa -32 + ^
STACK CFI 9df0 .cfa: sp 32 +
STACK CFI 9df8 .cfa: sp 0 +
STACK CFI INIT 9dfc c .cfa: sp 0 +
STACK CFI 9e00 .cfa: sp 16 +
STACK CFI 9e04 .cfa: x29 16 + .ra: .cfa -8 + ^ x29: .cfa -16 + ^
STACK CFI INIT 9e08 4 .cfa: sp 0 +
STACK CFI INIT 9e0c 4 .cfa: sp 0 +
STACK CFI INIT 9e10 38 .cfa: sp 0 +
STACK CFI 9e14 .cfa: sp 32 +
STACK CFI 9e1c .cfa: x29 32 + x19: .cfa -16 + ^ .ra: .cfa -24 + ^ x29: .cfa -32 + ^
STACK CFI 9e3c .cfa: sp 32 +
STACK CFI 9e44 .cfa: sp 0 +
STACK CFI INIT 9e48 18 .cfa: sp 0 +
STACK CFI INIT 9e60 4 .cfa: sp 0 +
STACK CFI INIT 9e64 4 .cfa: sp 0 +
STACK CFI INIT 9e68 10 .cfa: sp 0 +
STACK CFI INIT 9e78 1c .cfa: sp 0 +
STACK CFI INIT 9e94 c .cfa: sp 0 +
STACK CFI INIT a380 314 .cfa: sp 0 +
STACK CFI a384 .cfa: sp 96 +
STACK CFI a39c .cfa: x29 96 + x19: .cfa -8 + ^ x20: .cfa -16 + ^ x21: .cfa -24 + ^ x22: .cfa -32 + ^ x23: .cfa -40 + ^ x24: .cfa -48 + ^ x25: .cfa -56 + ^ x26: .cfa -64 + ^ x27: .cfa -80 + ^ .ra: .cfa -88 + ^ x29: .cfa -96 + ^
STACK CFI a658 .cfa: sp 96 +
STACK CFI a670 .cfa: sp 0 +
STACK CFI a674 .cfa: x29 96 +
STACK CFI INIT a694 4 .cfa: sp 0 +
STACK CFI INIT a698 34 .cfa: sp 0 +
STACK CFI a69c .cfa: sp 32 +
STACK CFI a6a4 .cfa: x29 32 + x19: .cfa -16 + ^ .ra: .cfa -24 + ^ x29: .cfa -32 + ^
STACK CFI a6c0 .cfa: sp 32 +
STACK CFI a6c8 .cfa: sp 0 +
STACK CFI INIT a6cc 14 .cfa: sp 0 +
STACK CFI INIT a6e0 4 .cfa: sp 0 +
STACK CFI INIT a6e4 4 .cfa: sp 0 +
STACK CFI INIT a6e8 8 .cfa: sp 0 +
STACK CFI INIT a6f0 1c .cfa: sp 0 +
STACK CFI INIT a70c c .cfa: sp 0 +
STACK CFI INIT ac30 f8 .cfa: sp 0 +
STACK CFI ac34 .cfa: sp 64 +
STACK CFI ac44 .cfa: x29 64 + x19: .cfa -8 + ^ x20: .cfa -16 + ^ x21: .cfa -24 + ^ x22: .cfa -32 + ^ x23: .cfa -48 + ^ .ra: .cfa -56 + ^ x29: .cfa -64 + ^
STACK CFI aca0 .cfa: sp 64 +
STACK CFI acb0 .cfa: sp 0 +
STACK CFI acb4 .cfa: x29 64 +
STACK CFI acd0 .cfa: sp 64 +
STACK CFI ace0 .cfa: sp 0 +
STACK CFI ace4 .cfa: x29 64 +
STACK CFI ad14 .cfa: sp 64 +
STACK CFI ad24 .cfa: sp 0 +
STACK CFI INIT ad28 4 .cfa: sp 0 +
STACK CFI INIT ad2c 4 .cfa: sp 0 +
STACK CFI INIT ad30 34 .cfa: sp 0 +
STACK CFI ad34 .cfa: sp 32 +
STACK CFI ad3c .cfa: x29 32 + x19: .cfa -16 + ^ .ra: .cfa -24 + ^ x29: .cfa -32 + ^
STACK CFI ad58 .cfa: sp 32 +
STACK CFI ad60 .cfa: sp 0 +
STACK CFI INIT ad64 14 .cfa: sp 0 +
STACK CFI INIT ad78 4 .cfa: sp 0 +
STACK CFI INIT ad7c 4 .cfa: sp 0 +
STACK CFI INIT ad80 8 .cfa: sp 0 +
STACK CFI INIT ad88 1c .cfa: sp 0 +
STACK CFI INIT ada4 c .cfa: sp 0 +
STACK CFI INIT adb0 3c .cfa: sp 0 +
STACK CFI adb4 .cfa: sp 32 +
STACK CFI adbc .cfa: x29 32 + x19: .cfa -16 + ^ .ra: .cfa -24 + ^ x29: .cfa -32 + ^
STACK CFI adc8 .cfa: sp 32 +
STACK CFI add0 .cfa: sp 0 +
STACK CFI add4 .cfa: x29 32 +
STACK CFI ade0 .cfa: sp 32 +
STACK CFI ade8 .cfa: sp 0 +
STACK CFI INIT 5330 ba0 .cfa: sp 0 +
STACK CFI 5334 .cfa: sp 240 +
STACK CFI 5350 .cfa: x29 96 + x19: .cfa -8 + ^ x20: .cfa -16 + ^ x21: .cfa -24 + ^ x22: .cfa -32 + ^ x23: .cfa -40 + ^ x24: .cfa -48 + ^ x25: .cfa -56 + ^ x26: .cfa -64 + ^ x27: .cfa -72 + ^ x28: .cfa -80 + ^ .ra: .cfa -88 + ^ x29: .cfa -96 + ^
STACK CFI 5d78 .cfa: sp 240 +
STACK CFI 5d94 .cfa: sp 0 +
STACK CFI 5d98 .cfa: x29 96 +
STACK CFI INIT 5ee8 8bc .cfa: sp 0 +
STACK CFI 5eec .cfa: sp 288 +
STACK CFI 5f08 .cfa: x29 96 + x19: .cfa -8 + ^ x20: .cfa -16 + ^ x21: .cfa -24 + ^ x22: .cfa -32 + ^ x23: .cfa -40 + ^ x24: .cfa -48 + ^ x25: .cfa -56 + ^ x26: .cfa -64 + ^ x28: .cfa -80 + ^ .ra: .cfa -88 + ^ x29: .cfa -96 + ^
STACK CFI 6530 .cfa: sp 288 +
STACK CFI 654c .cfa: sp 0 +
STACK CFI 6550 .cfa: x29 96 +
STACK CFI INIT 67f4 74 .cfa: sp 0 +
STACK CFI 67f8 .cfa: sp 48 +
STACK CFI 6804 .cfa: x29 32 + x19: .cfa -8 + ^ x20: .cfa -16 + ^ .ra: .cfa -24 + ^ x29: .cfa -32 + ^
STACK CFI 6850 .cfa: sp 48 +
STACK CFI 685c .cfa: sp 0 +
STACK CFI 6860 .cfa: x29 32 +
STACK CFI INIT 68f8 6fc .cfa: sp 0 +
STACK CFI 68fc .cfa: sp 496 +
STACK CFI 6918 .cfa: x29 96 + x19: .cfa -8 + ^ x20: .cfa -16 + ^ x21: .cfa -24 + ^ x22: .cfa -32 + ^ x23: .cfa -40 + ^ x24: .cfa -48 + ^ x25: .cfa -56 + ^ x26: .cfa -64 + ^ x27: .cfa -72 + ^ x28: .cfa -80 + ^ .ra: .cfa -88 + ^ x29: .cfa -96 + ^
STACK CFI 6ec8 .cfa: sp 496 +
STACK CFI 6ee4 .cfa: sp 0 +
STACK CFI 6ee8 .cfa: x29 96 +
STACK CFI INIT 70e0 50 .cfa: sp 0 +
STACK CFI 70e4 .cfa: sp 32 +
STACK CFI 70ec .cfa: x29 32 + x19: .cfa -8 + ^ x20: .cfa -16 + ^ .ra: .cfa -24 + ^ x29: .cfa -32 + ^
STACK CFI INIT 7328 1d8 .cfa: sp 0 +
STACK CFI 732c .cfa: sp 112 +
STACK CFI 7348 .cfa: x29 96 + x19: .cfa -8 + ^ x20: .cfa -16 + ^ x21: .cfa -24 + ^ x22: .cfa -32 + ^ x23: .cfa -40 + ^ x24: .cfa -48 + ^ x25: .cfa -56 + ^ x26: .cfa -64 + ^ x27: .cfa -80 + ^ .ra: .cfa -88 + ^ x29: .cfa -96 + ^
STACK CFI 7380 .cfa: sp 112 +
STACK CFI 739c .cfa: sp 0 +
STACK CFI 73a0 .cfa: x29 96 +
STACK CFI INIT 7500 ec .cfa: sp 0 +
STACK CFI 7504 .cfa: sp 112 +
STACK CFI 7514 .cfa: x29 48 + x19: .cfa -8 + ^ x20: .cfa -16 + ^ x21: .cfa -32 + ^ .ra: .cfa -40 + ^ x29: .cfa -48 + ^
STACK CFI 7588 .cfa: sp 112 +
STACK CFI 7598 .cfa: sp 0 +
STACK CFI 759c .cfa: x29 48 +
STACK CFI INIT 75ec ec .cfa: sp 0 +
STACK CFI 75f0 .cfa: sp 112 +
STACK CFI 7600 .cfa: x29 48 + x19: .cfa -8 + ^ x20: .cfa -16 + ^ x21: .cfa -32 + ^ .ra: .cfa -40 + ^ x29: .cfa -48 + ^
STACK CFI 7674 .cfa: sp 112 +
STACK CFI 7684 .cfa: sp 0 +
STACK CFI 7688 .cfa: x29 48 +
STACK CFI INIT 76d8 c8 .cfa: sp 0 +
STACK CFI 76dc .cfa: sp 32 +
STACK CFI 76e4 .cfa: x29 32 + x19: .cfa -8 + ^ x20: .cfa -16 + ^ .ra: .cfa -24 + ^ x29: .cfa -32 + ^
STACK CFI 7718 .cfa: sp 32 +
STACK CFI 7720 .cfa: sp 0 +
STACK CFI 7724 .cfa: x29 32 +
STACK CFI 7728 .cfa: sp 32 +
STACK CFI 7730 .cfa: sp 0 +
STACK CFI 7734 .cfa: x29 32 +
STACK CFI INIT 77a0 d10 .cfa: sp 0 +
STACK CFI 77a4 .cfa: sp 80 +
STACK CFI 77b8 .cfa: x29 80 + x19: .cfa -8 + ^ x20: .cfa -16 + ^ x21: .cfa -24 + ^ x22: .cfa -32 + ^ x23: .cfa -40 + ^ x24: .cfa -48 + ^ x25: .cfa -64 + ^ .ra: .cfa -72 + ^ x29: .cfa -80 + ^
STACK CFI 7fa0 .cfa: sp 80 +
STACK CFI 7fb4 .cfa: sp 0 +
STACK CFI 7fb8 .cfa: x29 80 +
STACK CFI INIT 9694 64c .cfa: sp 0 +
STACK CFI 9698 .cfa: sp 176 +
STACK CFI 96b4 .cfa: x29 96 + x19: .cfa -8 + ^ x20: .cfa -16 + ^ x21: .cfa -24 + ^ x22: .cfa -32 + ^ x23: .cfa -40 + ^ x24: .cfa -48 + ^ x25: .cfa -56 + ^ x26: .cfa -64 + ^ x27: .cfa -72 + ^ x28: .cfa -80 + ^ .ra: .cfa -88 + ^ x29: .cfa -96 + ^
STACK CFI 9b7c .cfa: sp 176 +
STACK CFI 9b98 .cfa: sp 0 +
STACK CFI 9b9c .cfa: x29 96 +
STACK CFI INIT 9ce0 1c .cfa: sp 0 +
STACK CFI 9ce4 .cfa: sp 16 +
STACK CFI 9ce8 .cfa: x29 16 + .ra: .cfa -8 + ^ x29: .cfa -16 + ^
STACK CFI 9cf0 .cfa: sp 16 +
STACK CFI 9cf4 .cfa: sp 0 +
STACK CFI 9cf8 .cfa: x29 16 +
STACK CFI INIT 9d7c 48 .cfa: sp 0 +
STACK CFI 9d80 .cfa: sp 32 +
STACK CFI 9d88 .cfa: x29 32 + x19: .cfa -8 + ^ x20: .cfa -16 + ^ .ra: .cfa -24 + ^ x29: .cfa -32 + ^
STACK CFI INIT 9ea0 4e0 .cfa: sp 0 +
STACK CFI 9ea4 .cfa: sp 64 +
STACK CFI 9eb4 .cfa: x29 64 + x19: .cfa -8 + ^ x20: .cfa -16 + ^ x21: .cfa -24 + ^ x22: .cfa -32 + ^ x23: .cfa -40 + ^ x24: .cfa -48 + ^ .ra: .cfa -56 + ^ x29: .cfa -64 + ^
STACK CFI a354 .cfa: sp 64 +
STACK CFI a364 .cfa: sp 0 +
STACK CFI a368 .cfa: x29 64 +
STACK CFI INIT a718 518 .cfa: sp 0 +
STACK CFI a71c .cfa: sp 160 +
STACK CFI a73c .cfa: x29 96 + x19: .cfa -8 + ^ x20: .cfa -16 + ^ x21: .cfa -24 + ^ x22: .cfa -32 + ^ x23: .cfa -40 + ^ x24: .cfa -48 + ^ x25: .cfa -56 + ^ x26: .cfa -64 + ^ x27: .cfa -72 + ^ x28: .cfa -80 + ^ .ra: .cfa -88 + ^ x29: .cfa -96 + ^ v8: .cfa -112 + ^
STACK CFI abd8 .cfa: sp 160 +
STACK CFI abf8 .cfa: sp 0 +
STACK CFI abfc .cfa: x29 96 +
