MODULE Linux arm64 A7BD66AAEFC4AB9E9F63D88A10B8DF5E0 ml5.checkpoint-vibe-check.android64.so
INFO CODE_ID AA66BDA7C4EF9EAB9F63D88A10B8DF5E9744F52A
INFO GENERATOR mozilla/dump_syms 2.3.4
PUBLIC 3480 0 __on_dlclose
PUBLIC 3490 0 __emutls_unregister_key
PUBLIC 3498 0 __on_dlclose_late
PUBLIC 34a0 0 __atexit_handler_wrapper
PUBLIC 34b4 0 atexit
PUBLIC 34d0 0 pthread_atfork
PUBLIC 34e0 0 __aarch64_ldadd8_relax
PUBLIC 3510 0 init_have_lse_atomics
PUBLIC 35a8 0 __init_cpu_features_constructor
PUBLIC 3b44 0 __init_cpu_features
PUBLIC 3bd0 0 __aarch64_ldadd8_acq_rel
PUBLIC 3c00 0 __cxx_global_var_init
PUBLIC 4084 0 geode::modifier::ModifyBase<geode::modifier::ModifyDerive<CustomPauseLayer, PauseLayer> >::~ModifyBase()
PUBLIC 409c 0 __cxx_global_var_init.1
PUBLIC 4520 0 geode::modifier::ModifyBase<geode::modifier::ModifyDerive<CustomPlayLayer, PlayLayer> >::~ModifyBase()
PUBLIC 4538 0 geode::modifier::ModifyDerive<CustomPauseLayer, PauseLayer>::apply()
PUBLIC 4858 0 std::__ndk1::shared_ptr<geode::Hook>::~shared_ptr[abi:ne180000]()
PUBLIC 48a8 0 geode::impl::ResultData<geode::Hook*, std::__ndk1::basic_string<char, std::__ndk1::char_traits<char>, std::__ndk1::allocator<char> > >::~ResultData()
PUBLIC 491c 0 std::__ndk1::vector<std::__ndk1::basic_string<char, std::__ndk1::char_traits<char>, std::__ndk1::allocator<char> >, std::__ndk1::allocator<std::__ndk1::basic_string<char, std::__ndk1::char_traits<char>, std::__ndk1::allocator<char> > > >::~vector[abi:ne180000]()
PUBLIC 4998 0 geode::modifier::ModifyBase<geode::modifier::ModifyDerive<CustomPauseLayer, PauseLayer> >::apply()
PUBLIC 499c 0 __clang_call_terminate
PUBLIC 49ac 0 _ZN5geode15UnwrapExceptionC2IRPNS_4HookEQsr4implE18IsStringStreamableIT_EEENS_4impl5OkTagEOS5_
PUBLIC 50a8 0 std::__ndk1::__throw_bad_variant_access[abi:ne180000]()
PUBLIC m 50dc 0 std::__ndk1::basic_stringstream<char, std::__ndk1::char_traits<char>, std::__ndk1::allocator<char> >::~basic_stringstream()
PUBLIC 515c 0 geode::UnwrapException::~UnwrapException()
PUBLIC 5180 0 std::__ndk1::basic_string<char, std::__ndk1::char_traits<char>, std::__ndk1::allocator<char> >::__throw_length_error[abi:ne180000]() const
PUBLIC 5194 0 std::__ndk1::__throw_length_error[abi:ne180000](char const*)
PUBLIC 51e4 0 std::length_error::length_error[abi:ne180000](char const*)
PUBLIC 5214 0 std::__throw_bad_array_new_length([abi:ne180000], void)
PUBLIC 5248 0 std::__ndk1::vector<std::__ndk1::basic_string<char, std::__ndk1::char_traits<char>, std::__ndk1::allocator<char> >, std::__ndk1::allocator<std::__ndk1::basic_string<char, std::__ndk1::char_traits<char>, std::__ndk1::allocator<char> > > >::__push_back_slow_path<std::__ndk1::basic_string<char, std::__ndk1::char_traits<char>, std::__ndk1::allocator<char> > const&>(std::__ndk1::basic_string<char, std::__ndk1::char_traits<char>, std::__ndk1::allocator<char> > const&)
PUBLIC 546c 0 std::__ndk1::basic_string<char, std::__ndk1::char_traits<char>, std::__ndk1::allocator<char> >::__init_copy_ctor_external(char const*, unsigned long)
PUBLIC 54e8 0 std::__ndk1::__split_buffer<std::__ndk1::basic_string<char, std::__ndk1::char_traits<char>, std::__ndk1::allocator<char> >, std::__ndk1::allocator<std::__ndk1::basic_string<char, std::__ndk1::char_traits<char>, std::__ndk1::allocator<char> > >&>::~__split_buffer()
PUBLIC 5550 0 std::__ndk1::vector<std::__ndk1::basic_string<char, std::__ndk1::char_traits<char>, std::__ndk1::allocator<char> >, std::__ndk1::allocator<std::__ndk1::basic_string<char, std::__ndk1::char_traits<char>, std::__ndk1::allocator<char> > > >::__throw_length_error[abi:ne180000]() const
PUBLIC 5564 0 std::__ndk1::__variant_detail::__visitation::__base::__dispatcher<(unsigned long)0>::__dispatch[abi:ne180000]<std::__ndk1::__variant_detail::__dtor<std::__ndk1::__variant_detail::__traits<geode::Hook*, std::__ndk1::basic_string<char, std::__ndk1::char_traits<char>, std::__ndk1::allocator<char> > >, (std::__ndk1::__variant_detail::_Trait)1>::__destroy[abi:ne180000]()::{lambda(auto:1&)#1}, std::__ndk1::__variant_detail::__base<(std::__ndk1::__variant_detail::__traits<geode::Hook*, std::__ndk1::basic_string<char, std::__ndk1::char_traits<char>, std::__ndk1::allocator<char> > >)1, geode::Hook, std::__ndk1::allocator<char> >&>(std::__ndk1::__variant_detail::__dtor<std::__ndk1::__variant_detail::__traits<geode::Hook*, std::__ndk1::basic_string<char, std::__ndk1::char_traits<char>, std::__ndk1::allocator<char> > >, (std::__ndk1::__variant_detail::_Trait)1>, std::__ndk1::__variant_detail::__base<(std::__ndk1::__variant_detail::__traits<geode::Hook*, std::__ndk1::basic_string<char, std::__ndk1::char_traits<char>, std::__ndk1::allocator<char> > >)1, geode::Hook, std::__ndk1::allocator<char> >&)
PUBLIC 5568 0 std::__ndk1::__variant_detail::__visitation::__base::__dispatcher<(unsigned long)1>::__dispatch[abi:ne180000]<std::__ndk1::__variant_detail::__dtor<std::__ndk1::__variant_detail::__traits<geode::Hook*, std::__ndk1::basic_string<char, std::__ndk1::char_traits<char>, std::__ndk1::allocator<char> > >, (std::__ndk1::__variant_detail::_Trait)1>::__destroy[abi:ne180000]()::{lambda(auto:1&)#1}, std::__ndk1::__variant_detail::__base<(std::__ndk1::__variant_detail::__traits<geode::Hook*, std::__ndk1::basic_string<char, std::__ndk1::char_traits<char>, std::__ndk1::allocator<char> > >)1, geode::Hook, std::__ndk1::allocator<char> >&>(std::__ndk1::__variant_detail::__dtor<std::__ndk1::__variant_detail::__traits<geode::Hook*, std::__ndk1::basic_string<char, std::__ndk1::char_traits<char>, std::__ndk1::allocator<char> > >, (std::__ndk1::__variant_detail::_Trait)1>, std::__ndk1::__variant_detail::__base<(std::__ndk1::__variant_detail::__traits<geode::Hook*, std::__ndk1::basic_string<char, std::__ndk1::char_traits<char>, std::__ndk1::allocator<char> > >)1, geode::Hook, std::__ndk1::allocator<char> >&)
PUBLIC 557c 0 std::__ndk1::__tree<std::__ndk1::__value_type<std::__ndk1::basic_string<char, std::__ndk1::char_traits<char>, std::__ndk1::allocator<char> >, std::__ndk1::shared_ptr<geode::Hook> >, std::__ndk1::__map_value_compare<std::__ndk1::basic_string<char, std::__ndk1::char_traits<char>, std::__ndk1::allocator<char> >, std::__ndk1::__value_type<std::__ndk1::basic_string<char, std::__ndk1::char_traits<char>, std::__ndk1::allocator<char> >, std::__ndk1::shared_ptr<geode::Hook> >, std::__ndk1::less<std::__ndk1::basic_string<char, std::__ndk1::char_traits<char>, std::__ndk1::allocator<char> > >, true>, std::__ndk1::allocator<std::__ndk1::__value_type<std::__ndk1::basic_string<char, std::__ndk1::char_traits<char>, std::__ndk1::allocator<char> >, std::__ndk1::shared_ptr<geode::Hook> > > >::find<std::__ndk1::basic_string<char, std::__ndk1::char_traits<char>, std::__ndk1::allocator<char> > >(std::__ndk1::basic_string<char, std::__ndk1::char_traits<char>, std::__ndk1::allocator<char> > const&)
PUBLIC 569c 0 std::__ndk1::__tree<std::__ndk1::__value_type<std::__ndk1::basic_string<char, std::__ndk1::char_traits<char>, std::__ndk1::allocator<char> >, std::__ndk1::shared_ptr<geode::Hook> >, std::__ndk1::__map_value_compare<std::__ndk1::basic_string<char, std::__ndk1::char_traits<char>, std::__ndk1::allocator<char> >, std::__ndk1::__value_type<std::__ndk1::basic_string<char, std::__ndk1::char_traits<char>, std::__ndk1::allocator<char> >, std::__ndk1::shared_ptr<geode::Hook> >, std::__ndk1::less<std::__ndk1::basic_string<char, std::__ndk1::char_traits<char>, std::__ndk1::allocator<char> > >, true>, std::__ndk1::allocator<std::__ndk1::__value_type<std::__ndk1::basic_string<char, std::__ndk1::char_traits<char>, std::__ndk1::allocator<char> >, std::__ndk1::shared_ptr<geode::Hook> > > >::erase(std::__ndk1::__tree_const_iterator<std::__ndk1::__value_type<std::__ndk1::basic_string<char, std::__ndk1::char_traits<char>, std::__ndk1::allocator<char> >, std::__ndk1::shared_ptr<geode::Hook> >, std::__ndk1::__tree_node<std::__ndk1::__value_type<std::__ndk1::basic_string<char, std::__ndk1::char_traits<char>, std::__ndk1::allocator<char> >, std::__ndk1::shared_ptr<geode::Hook> >, void*>*, long>)
PUBLIC 5b40 0 std::__ndk1::__tree<std::__ndk1::__value_type<std::__ndk1::basic_string<char, std::__ndk1::char_traits<char>, std::__ndk1::allocator<char> >, std::__ndk1::shared_ptr<geode::Hook> >, std::__ndk1::__map_value_compare<std::__ndk1::basic_string<char, std::__ndk1::char_traits<char>, std::__ndk1::allocator<char> >, std::__ndk1::__value_type<std::__ndk1::basic_string<char, std::__ndk1::char_traits<char>, std::__ndk1::allocator<char> >, std::__ndk1::shared_ptr<geode::Hook> >, std::__ndk1::less<std::__ndk1::basic_string<char, std::__ndk1::char_traits<char>, std::__ndk1::allocator<char> > >, true>, std::__ndk1::allocator<std::__ndk1::__value_type<std::__ndk1::basic_string<char, std::__ndk1::char_traits<char>, std::__ndk1::allocator<char> >, std::__ndk1::shared_ptr<geode::Hook> > > >::destroy(std::__ndk1::__tree_node<std::__ndk1::__value_type<std::__ndk1::basic_string<char, std::__ndk1::char_traits<char>, std::__ndk1::allocator<char> >, std::__ndk1::shared_ptr<geode::Hook> >, void*>*)
PUBLIC 5bc4 0 geode::modifier::AsStaticFunction_customSetup<CustomPauseLayer, void (CustomPauseLayer::*)()>::Impl<void (CustomPauseLayer::*)()>::function(CustomPauseLayer*)
PUBLIC 5d00 0 geode::addresser::Addresser::addressOfVirtual<void, PauseLayer, >(void (PauseLayer::*)())
PUBLIC 5da8 0 PauseLayer::PauseLayer(geode::ZeroConstructorType)
PUBLIC 5e34 0 std::__ndk1::shared_ptr<tulip::hook::CallingConvention>::~shared_ptr[abi:ne180000]()
PUBLIC 5e84 0 tulip::hook::HandlerMetadata::~HandlerMetadata()
PUBLIC 5ee8 0 std::__ndk1::__tree<std::__ndk1::__value_type<std::__ndk1::basic_string<char, std::__ndk1::char_traits<char>, std::__ndk1::allocator<char> >, std::__ndk1::shared_ptr<geode::Hook> >, std::__ndk1::__map_value_compare<std::__ndk1::basic_string<char, std::__ndk1::char_traits<char>, std::__ndk1::allocator<char> >, std::__ndk1::__value_type<std::__ndk1::basic_string<char, std::__ndk1::char_traits<char>, std::__ndk1::allocator<char> >, std::__ndk1::shared_ptr<geode::Hook> >, std::__ndk1::less<std::__ndk1::basic_string<char, std::__ndk1::char_traits<char>, std::__ndk1::allocator<char> > >, true>, std::__ndk1::allocator<std::__ndk1::__value_type<std::__ndk1::basic_string<char, std::__ndk1::char_traits<char>, std::__ndk1::allocator<char> >, std::__ndk1::shared_ptr<geode::Hook> > > >::__emplace_unique_key_args<std::__ndk1::basic_string<char, std::__ndk1::char_traits<char>, std::__ndk1::allocator<char> >, std::__ndk1::piecewise_construct_t const&, std::__ndk1::tuple<std::__ndk1::basic_string<char, std::__ndk1::char_traits<char>, std::__ndk1::allocator<char> >&&>, std::__ndk1::tuple<> >(std::__ndk1::basic_string<char, std::__ndk1::char_traits<char>, std::__ndk1::allocator<char> > const&, std::__ndk1::piecewise_construct_t const&, std::__ndk1::tuple<std::__ndk1::basic_string<char, std::__ndk1::char_traits<char>, std::__ndk1::allocator<char> >&&>, std::__ndk1::tuple<>)
PUBLIC 61fc 0 geode::modifier::ModifyDerive<CustomPlayLayer, PlayLayer>::apply()
PUBLIC 6804 0 geode::modifier::ModifyBase<geode::modifier::ModifyDerive<CustomPlayLayer, PlayLayer> >::apply()
PUBLIC 6808 0 geode::modifier::AsStaticFunction_init<CustomPlayLayer, bool (CustomPlayLayer::*)(GJGameLevel*, bool, bool)>::Impl<bool (CustomPlayLayer::*)(GJGameLevel*, bool, bool)>::function(CustomPlayLayer*, GJGameLevel*, bool, bool)
PUBLIC 6aac 0 geode::modifier::AsStaticFunction_resetLevel<CustomPlayLayer, void (CustomPlayLayer::*)()>::Impl<void (CustomPlayLayer::*)()>::function(CustomPlayLayer*)
PUBLIC 6b1c 0 geode::cast::traverseTypeinfoFor(void*, geode::cast::ClassTypeinfoType const*, char const*)
PUBLIC m 6c14 0 geodeImplicitEntry
PUBLIC 6c50 0 <.plt ELF section in ml5.checkpoint-vibe-check.android64.so>
STACK CFI INIT 3480 10 .cfa: sp 0 +
STACK CFI INIT 3490 8 .cfa: sp 0 +
STACK CFI INIT 3498 8 .cfa: sp 0 +
STACK CFI INIT 34a0 14 .cfa: sp 0 +
STACK CFI INIT 34b4 1c .cfa: sp 0 +
STACK CFI INIT 34d0 10 .cfa: sp 0 +
STACK CFI INIT 34e0 30 .cfa: sp 0 +
STACK CFI INIT 3510 98 .cfa: sp 0 +
STACK CFI INIT 35a8 59c .cfa: sp 0 +
STACK CFI INIT 3b44 8c .cfa: sp 0 +
STACK CFI INIT 3bd0 30 .cfa: sp 0 +
STACK CFI INIT 4084 18 .cfa: sp 0 +
STACK CFI INIT 4520 18 .cfa: sp 0 +
STACK CFI INIT 4858 50 .cfa: sp 0 +
STACK CFI 485c .cfa: sp 32 +
STACK CFI 4864 .cfa: x29 32 + x19: .cfa -16 + ^ .ra: .cfa -24 + ^ x29: .cfa -32 + ^
STACK CFI 487c .cfa: sp 32 +
STACK CFI 4884 .cfa: sp 0 +
STACK CFI 4888 .cfa: x29 32 +
STACK CFI 489c .cfa: sp 32 +
STACK CFI 48a4 .cfa: sp 0 +
STACK CFI INIT 491c 7c .cfa: sp 0 +
STACK CFI 4920 .cfa: sp 48 +
STACK CFI 492c .cfa: x29 48 + x19: .cfa -8 + ^ x20: .cfa -16 + ^ x21: .cfa -32 + ^ .ra: .cfa -40 + ^ x29: .cfa -48 + ^
STACK CFI 4978 .cfa: sp 48 +
STACK CFI 4984 .cfa: sp 0 +
STACK CFI 4988 .cfa: sp 48 +
STACK CFI 4994 .cfa: sp 0 +
STACK CFI INIT 4998 4 .cfa: sp 0 +
STACK CFI INIT 499c 10 .cfa: sp 0 +
STACK CFI 49a0 .cfa: sp 16 +
STACK CFI 49a4 .cfa: x29 16 + .ra: .cfa -8 + ^ x29: .cfa -16 + ^
STACK CFI INIT 50a8 34 .cfa: sp 0 +
STACK CFI 50ac .cfa: sp 16 +
STACK CFI 50b0 .cfa: x29 16 + .ra: .cfa -8 + ^ x29: .cfa -16 + ^
STACK CFI INIT 50dc 80 .cfa: sp 0 +
STACK CFI 50e0 .cfa: sp 48 +
STACK CFI 50ec .cfa: x29 48 + x19: .cfa -8 + ^ x20: .cfa -16 + ^ x21: .cfa -32 + ^ .ra: .cfa -40 + ^ x29: .cfa -48 + ^
STACK CFI 514c .cfa: sp 48 +
STACK CFI 5158 .cfa: sp 0 +
STACK CFI INIT 515c 24 .cfa: sp 0 +
STACK CFI 5160 .cfa: sp 32 +
STACK CFI 5168 .cfa: x29 32 + x19: .cfa -16 + ^ .ra: .cfa -24 + ^ x29: .cfa -32 + ^
STACK CFI 5174 .cfa: sp 32 +
STACK CFI 517c .cfa: sp 0 +
STACK CFI INIT 5180 14 .cfa: sp 0 +
STACK CFI 5184 .cfa: sp 16 +
STACK CFI 5188 .cfa: x29 16 + .ra: .cfa -8 + ^ x29: .cfa -16 + ^
STACK CFI INIT 51e4 30 .cfa: sp 0 +
STACK CFI 51e8 .cfa: sp 32 +
STACK CFI 51f0 .cfa: x29 32 + x19: .cfa -16 + ^ .ra: .cfa -24 + ^ x29: .cfa -32 + ^
STACK CFI 5208 .cfa: sp 32 +
STACK CFI 5210 .cfa: sp 0 +
STACK CFI INIT 5214 34 .cfa: sp 0 +
STACK CFI 5218 .cfa: sp 32 +
STACK CFI 5220 .cfa: x29 32 + x19: .cfa -16 + ^ .ra: .cfa -24 + ^ x29: .cfa -32 + ^
STACK CFI INIT 546c 7c .cfa: sp 0 +
STACK CFI 5470 .cfa: sp 48 +
STACK CFI 547c .cfa: x29 48 + x19: .cfa -8 + ^ x20: .cfa -16 + ^ x21: .cfa -24 + ^ x22: .cfa -32 + ^ .ra: .cfa -40 + ^ x29: .cfa -48 + ^
STACK CFI 5494 .cfa: sp 48 +
STACK CFI 54a0 .cfa: sp 0 +
STACK CFI 54a4 .cfa: x29 48 +
STACK CFI 54d4 .cfa: sp 48 +
STACK CFI 54e0 .cfa: sp 0 +
STACK CFI 54e4 .cfa: x29 48 +
STACK CFI INIT 54e8 68 .cfa: sp 0 +
STACK CFI 54ec .cfa: sp 32 +
STACK CFI 54f4 .cfa: x29 32 + x19: .cfa -8 + ^ x20: .cfa -16 + ^ .ra: .cfa -24 + ^ x29: .cfa -32 + ^
STACK CFI 550c .cfa: sp 32 +
STACK CFI 5514 .cfa: sp 0 +
STACK CFI 5518 .cfa: x29 32 +
STACK CFI 5544 .cfa: sp 32 +
STACK CFI 554c .cfa: sp 0 +
STACK CFI INIT 5550 14 .cfa: sp 0 +
STACK CFI 5554 .cfa: sp 16 +
STACK CFI 5558 .cfa: x29 16 + .ra: .cfa -8 + ^ x29: .cfa -16 + ^
STACK CFI INIT 5564 4 .cfa: sp 0 +
STACK CFI INIT 5568 14 .cfa: sp 0 +
STACK CFI INIT 557c 120 .cfa: sp 0 +
STACK CFI 5580 .cfa: sp 64 +
STACK CFI 5590 .cfa: x29 64 + x19: .cfa -8 + ^ x20: .cfa -16 + ^ x21: .cfa -24 + ^ x22: .cfa -32 + ^ x23: .cfa -40 + ^ x24: .cfa -48 + ^ .ra: .cfa -56 + ^ x29: .cfa -64 + ^
STACK CFI 5688 .cfa: sp 64 +
STACK CFI 5698 .cfa: sp 0 +
STACK CFI INIT 569c 4a4 .cfa: sp 0 +
STACK CFI 56a0 .cfa: sp 32 +
STACK CFI 56a8 .cfa: x29 32 + x19: .cfa -8 + ^ x20: .cfa -16 + ^ .ra: .cfa -24 + ^ x29: .cfa -32 + ^
STACK CFI 5a88 .cfa: sp 32 +
STACK CFI 5a90 .cfa: sp 0 +
STACK CFI 5a94 .cfa: x29 32 +
STACK CFI INIT 5b40 84 .cfa: sp 0 +
STACK CFI 5b48 .cfa: sp 32 +
STACK CFI 5b50 .cfa: x29 32 + x19: .cfa -8 + ^ x20: .cfa -16 + ^ .ra: .cfa -24 + ^ x29: .cfa -32 + ^
STACK CFI 5b90 .cfa: sp 32 +
STACK CFI 5b98 .cfa: sp 0 +
STACK CFI 5ba0 .cfa: x29 32 +
STACK CFI INIT 5da8 8c .cfa: sp 0 +
STACK CFI 5dac .cfa: sp 32 +
STACK CFI 5db4 .cfa: x29 32 + x19: .cfa -16 + ^ .ra: .cfa -24 + ^ x29: .cfa -32 + ^
STACK CFI 5e28 .cfa: sp 32 +
STACK CFI 5e30 .cfa: sp 0 +
STACK CFI INIT 5e34 50 .cfa: sp 0 +
STACK CFI 5e38 .cfa: sp 32 +
STACK CFI 5e40 .cfa: x29 32 + x19: .cfa -16 + ^ .ra: .cfa -24 + ^ x29: .cfa -32 + ^
STACK CFI 5e58 .cfa: sp 32 +
STACK CFI 5e60 .cfa: sp 0 +
STACK CFI 5e64 .cfa: x29 32 +
STACK CFI 5e78 .cfa: sp 32 +
STACK CFI 5e80 .cfa: sp 0 +
STACK CFI INIT 5e84 64 .cfa: sp 0 +
STACK CFI 5e88 .cfa: sp 32 +
STACK CFI 5e90 .cfa: x29 32 + x19: .cfa -16 + ^ .ra: .cfa -24 + ^ x29: .cfa -32 + ^
STACK CFI 5ebc .cfa: sp 32 +
STACK CFI 5ec4 .cfa: sp 0 +
STACK CFI 5ec8 .cfa: x29 32 +
STACK CFI 5edc .cfa: sp 32 +
STACK CFI 5ee4 .cfa: sp 0 +
STACK CFI INIT 5ee8 314 .cfa: sp 0 +
STACK CFI 5eec .cfa: sp 96 +
STACK CFI 5f04 .cfa: x29 96 + x19: .cfa -8 + ^ x20: .cfa -16 + ^ x21: .cfa -24 + ^ x22: .cfa -32 + ^ x23: .cfa -40 + ^ x24: .cfa -48 + ^ x25: .cfa -56 + ^ x26: .cfa -64 + ^ x27: .cfa -80 + ^ .ra: .cfa -88 + ^ x29: .cfa -96 + ^
STACK CFI 61c0 .cfa: sp 96 +
STACK CFI 61d8 .cfa: sp 0 +
STACK CFI 61dc .cfa: x29 96 +
STACK CFI INIT 6804 4 .cfa: sp 0 +
STACK CFI INIT 6aac 70 .cfa: sp 0 +
STACK CFI 6ab0 .cfa: sp 32 +
STACK CFI 6ab8 .cfa: x29 32 + x19: .cfa -8 + ^ x20: .cfa -16 + ^ .ra: .cfa -24 + ^ x29: .cfa -32 + ^
STACK CFI 6b04 .cfa: sp 32 +
STACK CFI 6b0c .cfa: sp 0 +
STACK CFI 6b10 .cfa: sp 32 +
STACK CFI 6b18 .cfa: sp 0 +
STACK CFI INIT 6b1c f8 .cfa: sp 0 +
STACK CFI 6b20 .cfa: sp 64 +
STACK CFI 6b30 .cfa: x29 64 + x19: .cfa -8 + ^ x20: .cfa -16 + ^ x21: .cfa -24 + ^ x22: .cfa -32 + ^ x23: .cfa -48 + ^ .ra: .cfa -56 + ^ x29: .cfa -64 + ^
STACK CFI 6b8c .cfa: sp 64 +
STACK CFI 6b9c .cfa: sp 0 +
STACK CFI 6ba0 .cfa: x29 64 +
STACK CFI 6bbc .cfa: sp 64 +
STACK CFI 6bcc .cfa: sp 0 +
STACK CFI 6bd0 .cfa: x29 64 +
STACK CFI 6c00 .cfa: sp 64 +
STACK CFI 6c10 .cfa: sp 0 +
STACK CFI INIT 6c14 3c .cfa: sp 0 +
STACK CFI 6c18 .cfa: sp 32 +
STACK CFI 6c20 .cfa: x29 32 + x19: .cfa -16 + ^ .ra: .cfa -24 + ^ x29: .cfa -32 + ^
STACK CFI 6c2c .cfa: sp 32 +
STACK CFI 6c34 .cfa: sp 0 +
STACK CFI 6c38 .cfa: x29 32 +
STACK CFI 6c44 .cfa: sp 32 +
STACK CFI 6c4c .cfa: sp 0 +
STACK CFI INIT 3c00 484 .cfa: sp 0 +
STACK CFI 3c04 .cfa: sp 224 +
STACK CFI 3c20 .cfa: x29 96 + x19: .cfa -8 + ^ x20: .cfa -16 + ^ x21: .cfa -24 + ^ x22: .cfa -32 + ^ x23: .cfa -40 + ^ x24: .cfa -48 + ^ x25: .cfa -56 + ^ x26: .cfa -64 + ^ x27: .cfa -72 + ^ x28: .cfa -80 + ^ .ra: .cfa -88 + ^ x29: .cfa -96 + ^
STACK CFI 3e90 .cfa: sp 224 +
STACK CFI 3eac .cfa: sp 0 +
STACK CFI 3eb0 .cfa: x29 96 +
STACK CFI 3f7c .cfa: sp 224 +
STACK CFI 3f98 .cfa: sp 0 +
STACK CFI 3f9c .cfa: x29 96 +
STACK CFI INIT 409c 484 .cfa: sp 0 +
STACK CFI 40a0 .cfa: sp 224 +
STACK CFI 40bc .cfa: x29 96 + x19: .cfa -8 + ^ x20: .cfa -16 + ^ x21: .cfa -24 + ^ x22: .cfa -32 + ^ x23: .cfa -40 + ^ x24: .cfa -48 + ^ x25: .cfa -56 + ^ x26: .cfa -64 + ^ x27: .cfa -72 + ^ x28: .cfa -80 + ^ .ra: .cfa -88 + ^ x29: .cfa -96 + ^
STACK CFI 432c .cfa: sp 224 +
STACK CFI 4348 .cfa: sp 0 +
STACK CFI 434c .cfa: x29 96 +
STACK CFI 4418 .cfa: sp 224 +
STACK CFI 4434 .cfa: sp 0 +
STACK CFI 4438 .cfa: x29 96 +
STACK CFI INIT 4538 320 .cfa: sp 0 +
STACK CFI 453c .cfa: sp 224 +
STACK CFI 4550 .cfa: x29 64 + x19: .cfa -8 + ^ x20: .cfa -16 + ^ x21: .cfa -24 + ^ x22: .cfa -32 + ^ x23: .cfa -48 + ^ .ra: .cfa -56 + ^ x29: .cfa -64 + ^
STACK CFI 4744 .cfa: sp 224 +
STACK CFI 4758 .cfa: sp 0 +
STACK CFI 475c .cfa: x29 64 +
STACK CFI INIT 48a8 74 .cfa: sp 0 +
STACK CFI 48ac .cfa: sp 48 +
STACK CFI 48b8 .cfa: x29 32 + x19: .cfa -8 + ^ x20: .cfa -16 + ^ .ra: .cfa -24 + ^ x29: .cfa -32 + ^
STACK CFI 4904 .cfa: sp 48 +
STACK CFI 4910 .cfa: sp 0 +
STACK CFI 4914 .cfa: x29 32 +
STACK CFI INIT 49ac 6fc .cfa: sp 0 +
STACK CFI 49b0 .cfa: sp 496 +
STACK CFI 49cc .cfa: x29 96 + x19: .cfa -8 + ^ x20: .cfa -16 + ^ x21: .cfa -24 + ^ x22: .cfa -32 + ^ x23: .cfa -40 + ^ x24: .cfa -48 + ^ x25: .cfa -56 + ^ x26: .cfa -64 + ^ x27: .cfa -72 + ^ x28: .cfa -80 + ^ .ra: .cfa -88 + ^ x29: .cfa -96 + ^
STACK CFI 4f7c .cfa: sp 496 +
STACK CFI 4f98 .cfa: sp 0 +
STACK CFI 4f9c .cfa: x29 96 +
STACK CFI INIT 5194 50 .cfa: sp 0 +
STACK CFI 5198 .cfa: sp 32 +
STACK CFI 51a0 .cfa: x29 32 + x19: .cfa -8 + ^ x20: .cfa -16 + ^ .ra: .cfa -24 + ^ x29: .cfa -32 + ^
STACK CFI INIT 5248 224 .cfa: sp 0 +
STACK CFI 524c .cfa: sp 128 +
STACK CFI 5264 .cfa: x29 80 + x19: .cfa -8 + ^ x20: .cfa -16 + ^ x21: .cfa -24 + ^ x22: .cfa -32 + ^ x23: .cfa -40 + ^ x24: .cfa -48 + ^ x25: .cfa -64 + ^ .ra: .cfa -72 + ^ x29: .cfa -80 + ^
STACK CFI 5400 .cfa: sp 128 +
STACK CFI 5418 .cfa: sp 0 +
STACK CFI 541c .cfa: x29 80 +
STACK CFI INIT 5bc4 13c .cfa: sp 0 +
STACK CFI 5bc8 .cfa: sp 96 +
STACK CFI 5bd8 .cfa: x29 48 + x19: .cfa -8 + ^ x20: .cfa -16 + ^ x21: .cfa -32 + ^ .ra: .cfa -40 + ^ x29: .cfa -48 + ^
STACK CFI 5cbc .cfa: sp 96 +
STACK CFI 5ccc .cfa: sp 0 +
STACK CFI 5cd0 .cfa: x29 48 +
STACK CFI INIT 5d00 a8 .cfa: sp 0 +
STACK CFI 5d04 .cfa: sp 32 +
STACK CFI 5d0c .cfa: x29 32 + x19: .cfa -16 + ^ .ra: .cfa -24 + ^ x29: .cfa -32 + ^
STACK CFI 5d40 .cfa: sp 32 +
STACK CFI 5d48 .cfa: sp 0 +
STACK CFI 5d4c .cfa: x29 32 +
STACK CFI 5d50 .cfa: sp 32 +
STACK CFI 5d58 .cfa: sp 0 +
STACK CFI 5d5c .cfa: x29 32 +
STACK CFI INIT 61fc 608 .cfa: sp 0 +
STACK CFI 6200 .cfa: sp 240 +
STACK CFI 621c .cfa: x29 96 + x19: .cfa -8 + ^ x20: .cfa -16 + ^ x21: .cfa -24 + ^ x22: .cfa -32 + ^ x23: .cfa -40 + ^ x24: .cfa -48 + ^ x25: .cfa -56 + ^ x26: .cfa -64 + ^ x27: .cfa -72 + ^ x28: .cfa -80 + ^ .ra: .cfa -88 + ^ x29: .cfa -96 + ^
STACK CFI 6620 .cfa: sp 240 +
STACK CFI 663c .cfa: sp 0 +
STACK CFI 6640 .cfa: x29 96 +
STACK CFI INIT 6808 2a4 .cfa: sp 0 +
STACK CFI 680c .cfa: sp 112 +
STACK CFI 6820 .cfa: x29 64 + x19: .cfa -8 + ^ x20: .cfa -16 + ^ x21: .cfa -24 + ^ x22: .cfa -32 + ^ x23: .cfa -40 + ^ x24: .cfa -48 + ^ .ra: .cfa -56 + ^ x29: .cfa -64 + ^
STACK CFI 6a64 .cfa: sp 112 +
STACK CFI 6a78 .cfa: sp 0 +
STACK CFI 6a7c .cfa: x29 64 +
