MODULE Linux arm64 F2A7925B14B23E043B5009245E98CC1A0 itzkiba.better_progression.android64.so
INFO CODE_ID 5B92A7F2B214043E3B5009245E98CC1AF653FEA5
INFO GENERATOR mozilla/dump_syms 2.3.4
PUBLIC 1cc70 0 __on_dlclose
PUBLIC 1cc80 0 __emutls_unregister_key
PUBLIC 1cc88 0 __on_dlclose_late
PUBLIC 1cc90 0 __atexit_handler_wrapper
PUBLIC 1cca4 0 atexit
PUBLIC 1ccc0 0 pthread_atfork
PUBLIC 1ccd0 0 unwind_phase2
PUBLIC 1ce04 0 _Unwind_Resume
PUBLIC 1ce88 0 unwind_phase2_forced
PUBLIC m 1cf7c 0 __unw_init_local
PUBLIC m 1d024 0 __unw_get_reg
PUBLIC 1d0a0 0 __unw_step_stage2
PUBLIC m 1d0b4 0 __unw_get_proc_info
PUBLIC m 1d0f4 0 __unw_resume
PUBLIC 1d11c 0 libunwind::CFI_Parser<libunwind::LocalAddressSpace>::decodeFDE(libunwind::LocalAddressSpace&, unsigned long, libunwind::CFI_Parser<libunwind::LocalAddressSpace>::FDE_Info*, libunwind::CFI_Parser<libunwind::LocalAddressSpace>::CIE_Info*, bool)
PUBLIC 1d2ac 0 libunwind::CFI_Parser<libunwind::LocalAddressSpace>::parseCIE(libunwind::LocalAddressSpace&, unsigned long, libunwind::CFI_Parser<libunwind::LocalAddressSpace>::CIE_Info*)
PUBLIC 1d574 0 libunwind::AbstractUnwindCursor::~AbstractUnwindCursor()
PUBLIC 1d57c 0 libunwind::UnwindCursor<libunwind::LocalAddressSpace, libunwind::Registers_arm64>::~UnwindCursor()
PUBLIC 1d584 0 libunwind::UnwindCursor<libunwind::LocalAddressSpace, libunwind::Registers_arm64>::validReg(int)
PUBLIC 1d5c8 0 libunwind::UnwindCursor<libunwind::LocalAddressSpace, libunwind::Registers_arm64>::getReg(int)
PUBLIC 1d6b0 0 libunwind::UnwindCursor<libunwind::LocalAddressSpace, libunwind::Registers_arm64>::setReg(int, unsigned long)
PUBLIC 1d798 0 libunwind::UnwindCursor<libunwind::LocalAddressSpace, libunwind::Registers_arm64>::validFloatReg(int)
PUBLIC 1d7ac 0 libunwind::UnwindCursor<libunwind::LocalAddressSpace, libunwind::Registers_arm64>::getFloatReg(int)
PUBLIC 1d7bc 0 libunwind::UnwindCursor<libunwind::LocalAddressSpace, libunwind::Registers_arm64>::setFloatReg(int, double)
PUBLIC 1d7cc 0 libunwind::UnwindCursor<libunwind::LocalAddressSpace, libunwind::Registers_arm64>::step(bool)
PUBLIC 1d8bc 0 libunwind::UnwindCursor<libunwind::LocalAddressSpace, libunwind::Registers_arm64>::getInfo(unw_proc_info_t*)
PUBLIC 1d900 0 libunwind::UnwindCursor<libunwind::LocalAddressSpace, libunwind::Registers_arm64>::jumpto()
PUBLIC 1d90c 0 libunwind::UnwindCursor<libunwind::LocalAddressSpace, libunwind::Registers_arm64>::isSignalFrame()
PUBLIC 1d918 0 libunwind::UnwindCursor<libunwind::LocalAddressSpace, libunwind::Registers_arm64>::getFunctionName(char*, unsigned long, unsigned long*)
PUBLIC 1d944 0 libunwind::UnwindCursor<libunwind::LocalAddressSpace, libunwind::Registers_arm64>::setInfoBasedOnIPRegister(bool)
PUBLIC 1dbc4 0 libunwind::UnwindCursor<libunwind::LocalAddressSpace, libunwind::Registers_arm64>::getRegisterName(int)
PUBLIC 1dbd0 0 libunwind::UnwindCursor<libunwind::LocalAddressSpace, libunwind::Registers_arm64>::stepThroughSigReturn(libunwind::Registers_arm64&)
PUBLIC 1dcf0 0 libunwind::DwarfInstructions<libunwind::LocalAddressSpace, libunwind::Registers_arm64>::stepWithDwarf(libunwind::LocalAddressSpace&, unsigned long, unsigned long, libunwind::Registers_arm64&, bool&, bool)
PUBLIC 1e178 0 libunwind::CFI_Parser<libunwind::LocalAddressSpace>::parseFDEInstructions(libunwind::LocalAddressSpace&, libunwind::CFI_Parser<libunwind::LocalAddressSpace>::FDE_Info const&, libunwind::CFI_Parser<libunwind::LocalAddressSpace>::CIE_Info const&, unsigned long, int, libunwind::CFI_Parser<libunwind::LocalAddressSpace>::PrologInfo*)
PUBLIC 1edc0 0 libunwind::DwarfInstructions<libunwind::LocalAddressSpace, libunwind::Registers_arm64>::getCFA(libunwind::LocalAddressSpace&, libunwind::CFI_Parser<libunwind::LocalAddressSpace>::PrologInfo const&, libunwind::Registers_arm64 const&)
PUBLIC 1eef4 0 libunwind::DwarfInstructions<libunwind::LocalAddressSpace, libunwind::Registers_arm64>::getSavedRegister(libunwind::LocalAddressSpace&, libunwind::Registers_arm64 const&, unsigned long, libunwind::CFI_Parser<libunwind::LocalAddressSpace>::RegisterLocation const&)
PUBLIC 1f104 0 libunwind::LocalAddressSpace::getEncodedP(unsigned long&, unsigned long, unsigned char, unsigned long)
PUBLIC 1f490 0 libunwind::LocalAddressSpace::getULEB128(unsigned long&, unsigned long)
PUBLIC 1f658 0 libunwind::DwarfInstructions<libunwind::LocalAddressSpace, libunwind::Registers_arm64>::evaluateExpression(unsigned long, libunwind::LocalAddressSpace&, libunwind::Registers_arm64 const&, unsigned long)
PUBLIC 20014 0 libunwind::UnwindCursor<libunwind::LocalAddressSpace, libunwind::Registers_arm64>::getInfoFromDwarfSection(unsigned long, libunwind::UnwindInfoSections const&, unsigned int)
PUBLIC 202e8 0 libunwind::findUnwindSectionsByPhdr(dl_phdr_info*, unsigned long, void*)
PUBLIC 2041c 0 libunwind::EHHeaderParser<libunwind::LocalAddressSpace>::decodeEHHdr(libunwind::LocalAddressSpace&, unsigned long, unsigned long, libunwind::EHHeaderParser<libunwind::LocalAddressSpace>::EHHeaderInfo&)
PUBLIC 2053c 0 libunwind::CFI_Parser<libunwind::LocalAddressSpace>::findFDE(libunwind::LocalAddressSpace&, unsigned long, unsigned long, unsigned long, unsigned long, libunwind::CFI_Parser<libunwind::LocalAddressSpace>::FDE_Info*, libunwind::CFI_Parser<libunwind::LocalAddressSpace>::CIE_Info*)
PUBLIC 20704 0 libunwind::EHHeaderParser<libunwind::LocalAddressSpace>::findFDE(libunwind::LocalAddressSpace&, unsigned long, unsigned long, unsigned int, libunwind::CFI_Parser<libunwind::LocalAddressSpace>::FDE_Info*, libunwind::CFI_Parser<libunwind::LocalAddressSpace>::CIE_Info*)
PUBLIC 2086c 0 libunwind::EHHeaderParser<libunwind::LocalAddressSpace>::getTableEntrySize(unsigned char)
PUBLIC 20968 0 libunwind::Registers_arm64::getRegisterName(int)
PUBLIC 20998 0 __libunwind_Registers_arm64_jumpto
PUBLIC m 20a28 0 __unw_getcontext
PUBLIC 20ad0 0 __aarch64_ldadd8_acq_rel
PUBLIC 20b00 0 init_have_lse_atomics
PUBLIC 20b98 0 __init_cpu_features_constructor
PUBLIC 21134 0 __init_cpu_features
PUBLIC 211c0 0 __aarch64_ldadd8_relax
PUBLIC 211f0 0 __cxx_global_var_init
PUBLIC 21350 0 geode::Task<geode::utils::web::WebResponse, geode::utils::web::WebProgress>::~Task()
PUBLIC 213a0 0 geode::EventListener<geode::Task<geode::utils::web::WebResponse, geode::utils::web::WebProgress> >::~EventListener()
PUBLIC 2143c 0 __cxx_global_var_init.1
PUBLIC 218bc 0 geode::modifier::ModifyBase<geode::modifier::ModifyDerive<BP_PlayLayer, PlayLayer> >::~ModifyBase()
PUBLIC 218d8 0 __cxx_global_var_init.2
PUBLIC 21d58 0 geode::modifier::ModifyBase<geode::modifier::ModifyDerive<BP_CCDirector, cocos2d::CCDirector> >::~ModifyBase()
PUBLIC 21d74 0 geode::EventListener<geode::Task<geode::utils::web::WebResponse, geode::utils::web::WebProgress> >::getPool() const
PUBLIC 21d78 0 geode::EventListener<geode::Task<geode::utils::web::WebResponse, geode::utils::web::WebProgress> >::handle(geode::Event*)
PUBLIC 21f44 0 geode::EventListener<geode::Task<geode::utils::web::WebResponse, geode::utils::web::WebProgress> >::~EventListener()
PUBLIC 21fe8 0 geode::cast::traverseTypeinfoFor(void*, geode::cast::ClassTypeinfoType const*, char const*)
PUBLIC 220ec 0 std::__ndk1::__throw_bad_function_call[abi:ne180000]()
PUBLIC 22120 0 std::__ndk1::bad_function_call::~bad_function_call()
PUBLIC 22144 0 geode::Task<geode::utils::web::WebResponse, geode::utils::web::WebProgress>::setListener(geode::EventListenerProtocol*)
PUBLIC 22360 0 geode::Task<geode::utils::web::WebResponse, geode::utils::web::WebProgress>::setListener(geode::EventListenerProtocol*)::{lambda()#1}::~{lambda()#1}()
PUBLIC 223b0 0 geode::Task<geode::utils::web::WebResponse, geode::utils::web::WebProgress>::setListener(geode::EventListenerProtocol*)::{lambda()#2}::~{lambda()#2}()
PUBLIC 22400 0 std::__throw_bad_array_new_length([abi:ne180000], void)
PUBLIC 22434 0 __clang_call_terminate
PUBLIC 22444 0 std::__ndk1::__function::__func<geode::Task<geode::utils::web::WebResponse, geode::utils::web::WebProgress>::setListener(geode::EventListenerProtocol*)::{lambda()#1}, std::__ndk1::allocator<geode::Task<geode::utils::web::WebResponse, geode::utils::web::WebProgress>::setListener(geode::EventListenerProtocol*)::{lambda()#1}>, void ()>::~__func()
PUBLIC 224a0 0 std::__ndk1::__function::__func<geode::Task<geode::utils::web::WebResponse, geode::utils::web::WebProgress>::setListener(geode::EventListenerProtocol*)::{lambda()#1}, std::__ndk1::allocator<geode::Task<geode::utils::web::WebResponse, geode::utils::web::WebProgress>::setListener(geode::EventListenerProtocol*)::{lambda()#1}>, void ()>::~__func()
PUBLIC 2250c 0 std::__ndk1::__function::__func<geode::Task<geode::utils::web::WebResponse, geode::utils::web::WebProgress>::setListener(geode::EventListenerProtocol*)::{lambda()#1}, std::__ndk1::allocator<geode::Task<geode::utils::web::WebResponse, geode::utils::web::WebProgress>::setListener(geode::EventListenerProtocol*)::{lambda()#1}>, void ()>::__clone() const
PUBLIC 22564 0 std::__ndk1::__function::__func<geode::Task<geode::utils::web::WebResponse, geode::utils::web::WebProgress>::setListener(geode::EventListenerProtocol*)::{lambda()#1}, std::__ndk1::allocator<geode::Task<geode::utils::web::WebResponse, geode::utils::web::WebProgress>::setListener(geode::EventListenerProtocol*)::{lambda()#1}>, void ()>::__clone(std::__ndk1::__function::__base<void ()>*) const
PUBLIC 225b0 0 std::__ndk1::__function::__func<geode::Task<geode::utils::web::WebResponse, geode::utils::web::WebProgress>::setListener(geode::EventListenerProtocol*)::{lambda()#1}, std::__ndk1::allocator<geode::Task<geode::utils::web::WebResponse, geode::utils::web::WebProgress>::setListener(geode::EventListenerProtocol*)::{lambda()#1}>, void ()>::destroy()
PUBLIC 22600 0 std::__ndk1::__function::__func<geode::Task<geode::utils::web::WebResponse, geode::utils::web::WebProgress>::setListener(geode::EventListenerProtocol*)::{lambda()#1}, std::__ndk1::allocator<geode::Task<geode::utils::web::WebResponse, geode::utils::web::WebProgress>::setListener(geode::EventListenerProtocol*)::{lambda()#1}>, void ()>::destroy_deallocate()
PUBLIC 22660 0 std::__ndk1::__function::__func<geode::Task<geode::utils::web::WebResponse, geode::utils::web::WebProgress>::setListener(geode::EventListenerProtocol*)::{lambda()#1}, std::__ndk1::allocator<geode::Task<geode::utils::web::WebResponse, geode::utils::web::WebProgress>::setListener(geode::EventListenerProtocol*)::{lambda()#1}>, void ()>::operator()()
PUBLIC 22668 0 std::__ndk1::__function::__func<geode::Task<geode::utils::web::WebResponse, geode::utils::web::WebProgress>::setListener(geode::EventListenerProtocol*)::{lambda()#1}, std::__ndk1::allocator<geode::Task<geode::utils::web::WebResponse, geode::utils::web::WebProgress>::setListener(geode::EventListenerProtocol*)::{lambda()#1}>, void ()>::target(std::type_info const&) const
PUBLIC 22684 0 std::__ndk1::__function::__func<geode::Task<geode::utils::web::WebResponse, geode::utils::web::WebProgress>::setListener(geode::EventListenerProtocol*)::{lambda()#1}, std::__ndk1::allocator<geode::Task<geode::utils::web::WebResponse, geode::utils::web::WebProgress>::setListener(geode::EventListenerProtocol*)::{lambda()#1}>, void ()>::target_type() const
PUBLIC 22690 0 geode::Task<geode::utils::web::WebResponse, geode::utils::web::WebProgress>::setListener(geode::EventListenerProtocol*)::{lambda()#1}::operator()() const
PUBLIC 22860 0 geode::Task<geode::utils::web::WebResponse, geode::utils::web::WebProgress>::Event::~Event()
PUBLIC 228c0 0 geode::Task<geode::utils::web::WebResponse, geode::utils::web::WebProgress>::Event::~Event()
PUBLIC 22930 0 std::__ndk1::__function::__func<geode::Task<geode::utils::web::WebResponse, geode::utils::web::WebProgress>::setListener(geode::EventListenerProtocol*)::{lambda()#2}, std::__ndk1::allocator<geode::Task<geode::utils::web::WebResponse, geode::utils::web::WebProgress>::setListener(geode::EventListenerProtocol*)::{lambda()#2}>, void ()>::~__func()
PUBLIC 2298c 0 std::__ndk1::__function::__func<geode::Task<geode::utils::web::WebResponse, geode::utils::web::WebProgress>::setListener(geode::EventListenerProtocol*)::{lambda()#2}, std::__ndk1::allocator<geode::Task<geode::utils::web::WebResponse, geode::utils::web::WebProgress>::setListener(geode::EventListenerProtocol*)::{lambda()#2}>, void ()>::~__func()
PUBLIC 229f8 0 std::__ndk1::__function::__func<geode::Task<geode::utils::web::WebResponse, geode::utils::web::WebProgress>::setListener(geode::EventListenerProtocol*)::{lambda()#2}, std::__ndk1::allocator<geode::Task<geode::utils::web::WebResponse, geode::utils::web::WebProgress>::setListener(geode::EventListenerProtocol*)::{lambda()#2}>, void ()>::__clone() const
PUBLIC 22a50 0 std::__ndk1::__function::__func<geode::Task<geode::utils::web::WebResponse, geode::utils::web::WebProgress>::setListener(geode::EventListenerProtocol*)::{lambda()#2}, std::__ndk1::allocator<geode::Task<geode::utils::web::WebResponse, geode::utils::web::WebProgress>::setListener(geode::EventListenerProtocol*)::{lambda()#2}>, void ()>::__clone(std::__ndk1::__function::__base<void ()>*) const
PUBLIC 22a9c 0 std::__ndk1::__function::__func<geode::Task<geode::utils::web::WebResponse, geode::utils::web::WebProgress>::setListener(geode::EventListenerProtocol*)::{lambda()#2}, std::__ndk1::allocator<geode::Task<geode::utils::web::WebResponse, geode::utils::web::WebProgress>::setListener(geode::EventListenerProtocol*)::{lambda()#2}>, void ()>::destroy()
PUBLIC 22aec 0 std::__ndk1::__function::__func<geode::Task<geode::utils::web::WebResponse, geode::utils::web::WebProgress>::setListener(geode::EventListenerProtocol*)::{lambda()#2}, std::__ndk1::allocator<geode::Task<geode::utils::web::WebResponse, geode::utils::web::WebProgress>::setListener(geode::EventListenerProtocol*)::{lambda()#2}>, void ()>::destroy_deallocate()
PUBLIC 22b4c 0 std::__ndk1::__function::__func<geode::Task<geode::utils::web::WebResponse, geode::utils::web::WebProgress>::setListener(geode::EventListenerProtocol*)::{lambda()#2}, std::__ndk1::allocator<geode::Task<geode::utils::web::WebResponse, geode::utils::web::WebProgress>::setListener(geode::EventListenerProtocol*)::{lambda()#2}>, void ()>::operator()()
PUBLIC 22b54 0 std::__ndk1::__function::__func<geode::Task<geode::utils::web::WebResponse, geode::utils::web::WebProgress>::setListener(geode::EventListenerProtocol*)::{lambda()#2}, std::__ndk1::allocator<geode::Task<geode::utils::web::WebResponse, geode::utils::web::WebProgress>::setListener(geode::EventListenerProtocol*)::{lambda()#2}>, void ()>::target(std::type_info const&) const
PUBLIC 22b70 0 std::__ndk1::__function::__func<geode::Task<geode::utils::web::WebResponse, geode::utils::web::WebProgress>::setListener(geode::EventListenerProtocol*)::{lambda()#2}, std::__ndk1::allocator<geode::Task<geode::utils::web::WebResponse, geode::utils::web::WebProgress>::setListener(geode::EventListenerProtocol*)::{lambda()#2}>, void ()>::target_type() const
PUBLIC 22b7c 0 geode::Task<geode::utils::web::WebResponse, geode::utils::web::WebProgress>::setListener(geode::EventListenerProtocol*)::{lambda()#2}::operator()() const
PUBLIC 22d40 0 geode::modifier::ModifyDerive<BP_PlayLayer, PlayLayer>::apply()
PUBLIC 23368 0 std::__ndk1::shared_ptr<geode::Hook>::~shared_ptr[abi:ne180000]()
PUBLIC 233b8 0 geode::impl::ResultData<geode::Hook*, std::__ndk1::basic_string<char, std::__ndk1::char_traits<char>, std::__ndk1::allocator<char> > >::~ResultData()
PUBLIC 2342c 0 std::__ndk1::vector<std::__ndk1::basic_string<char, std::__ndk1::char_traits<char>, std::__ndk1::allocator<char> >, std::__ndk1::allocator<std::__ndk1::basic_string<char, std::__ndk1::char_traits<char>, std::__ndk1::allocator<char> > > >::~vector[abi:ne180000]()
PUBLIC 234a8 0 geode::modifier::ModifyBase<geode::modifier::ModifyDerive<BP_PlayLayer, PlayLayer> >::apply()
PUBLIC 234ac 0 _ZN5geode15UnwrapExceptionC2IRPNS_4HookEQsr4implE18IsStringStreamableIT_EEENS_4impl5OkTagEOS5_
PUBLIC 23600 0 std::__ndk1::__throw_bad_variant_access[abi:ne180000]()
PUBLIC 23634 0 std::__ndk1::basic_stringstream<char, std::__ndk1::char_traits<char>, std::__ndk1::allocator<char> >::basic_stringstream[abi:ne180000]()
PUBLIC m 23760 0 std::__ndk1::basic_stringstream<char, std::__ndk1::char_traits<char>, std::__ndk1::allocator<char> >::~basic_stringstream()
PUBLIC 237e0 0 geode::UnwrapException::~UnwrapException()
PUBLIC 23804 0 std::__ndk1::__put_character_sequence[abi:ne180000]<char, std::__ndk1::char_traits<char> >(std::__ndk1::basic_ostream<char, std::__ndk1::char_traits<char> >, std::__ndk1::basic_ostream const*, unsigned long)
PUBLIC 239a8 0 std::__ndk1::__pad_and_output[abi:ne180000]<char, std::__ndk1::char_traits<char> >(std::__ndk1::char_traits<char>, std::__ndk1::ostreambuf_iterator const*, std::__ndk1::ostreambuf_iterator const, std::__ndk1::ostreambuf_iterator const, std::__ndk1::ios_base&, std::__ndk1::ostreambuf_iterator)
PUBLIC 23b84 0 std::__ndk1::basic_string<char, std::__ndk1::char_traits<char>, std::__ndk1::allocator<char> >::__throw_length_error[abi:ne180000]() const
PUBLIC 23b98 0 std::__ndk1::__throw_length_error[abi:ne180000](char const*)
PUBLIC 23be8 0 std::length_error::length_error[abi:ne180000](char const*)
PUBLIC 23c18 0 std::__ndk1::basic_stringbuf<char, std::__ndk1::char_traits<char>, std::__ndk1::allocator<char> >::str[abi:ne180000]() &&
PUBLIC 23d90 0 std::__ndk1::basic_stringbuf<char, std::__ndk1::char_traits<char>, std::__ndk1::allocator<char> >::__init_buf_ptrs[abi:ne180000]()
PUBLIC 23ed8 0 std::__ndk1::vector<std::__ndk1::basic_string<char, std::__ndk1::char_traits<char>, std::__ndk1::allocator<char> >, std::__ndk1::allocator<std::__ndk1::basic_string<char, std::__ndk1::char_traits<char>, std::__ndk1::allocator<char> > > >::__push_back_slow_path<std::__ndk1::basic_string<char, std::__ndk1::char_traits<char>, std::__ndk1::allocator<char> > const&>(std::__ndk1::basic_string<char, std::__ndk1::char_traits<char>, std::__ndk1::allocator<char> > const&)
PUBLIC 24100 0 std::__ndk1::basic_string<char, std::__ndk1::char_traits<char>, std::__ndk1::allocator<char> >::__init_copy_ctor_external(char const*, unsigned long)
PUBLIC 24180 0 std::__ndk1::__split_buffer<std::__ndk1::basic_string<char, std::__ndk1::char_traits<char>, std::__ndk1::allocator<char> >, std::__ndk1::allocator<std::__ndk1::basic_string<char, std::__ndk1::char_traits<char>, std::__ndk1::allocator<char> > >&>::~__split_buffer()
PUBLIC 241e8 0 std::__ndk1::vector<std::__ndk1::basic_string<char, std::__ndk1::char_traits<char>, std::__ndk1::allocator<char> >, std::__ndk1::allocator<std::__ndk1::basic_string<char, std::__ndk1::char_traits<char>, std::__ndk1::allocator<char> > > >::__throw_length_error[abi:ne180000]() const
PUBLIC 241fc 0 std::__ndk1::__variant_detail::__visitation::__base::__dispatcher<(unsigned long)0>::__dispatch[abi:ne180000]<std::__ndk1::__variant_detail::__dtor<std::__ndk1::__variant_detail::__traits<geode::Hook*, std::__ndk1::basic_string<char, std::__ndk1::char_traits<char>, std::__ndk1::allocator<char> > >, (std::__ndk1::__variant_detail::_Trait)1>::__destroy[abi:ne180000]()::{lambda(auto:1&)#1}, std::__ndk1::__variant_detail::__base<(std::__ndk1::__variant_detail::__traits<geode::Hook*, std::__ndk1::basic_string<char, std::__ndk1::char_traits<char>, std::__ndk1::allocator<char> > >)1, geode::Hook, std::__ndk1::allocator<char> >&>(std::__ndk1::__variant_detail::__dtor<std::__ndk1::__variant_detail::__traits<geode::Hook*, std::__ndk1::basic_string<char, std::__ndk1::char_traits<char>, std::__ndk1::allocator<char> > >, (std::__ndk1::__variant_detail::_Trait)1>, std::__ndk1::__variant_detail::__base<(std::__ndk1::__variant_detail::__traits<geode::Hook*, std::__ndk1::basic_string<char, std::__ndk1::char_traits<char>, std::__ndk1::allocator<char> > >)1, geode::Hook, std::__ndk1::allocator<char> >&)
PUBLIC 24200 0 std::__ndk1::__variant_detail::__visitation::__base::__dispatcher<(unsigned long)1>::__dispatch[abi:ne180000]<std::__ndk1::__variant_detail::__dtor<std::__ndk1::__variant_detail::__traits<geode::Hook*, std::__ndk1::basic_string<char, std::__ndk1::char_traits<char>, std::__ndk1::allocator<char> > >, (std::__ndk1::__variant_detail::_Trait)1>::__destroy[abi:ne180000]()::{lambda(auto:1&)#1}, std::__ndk1::__variant_detail::__base<(std::__ndk1::__variant_detail::__traits<geode::Hook*, std::__ndk1::basic_string<char, std::__ndk1::char_traits<char>, std::__ndk1::allocator<char> > >)1, geode::Hook, std::__ndk1::allocator<char> >&>(std::__ndk1::__variant_detail::__dtor<std::__ndk1::__variant_detail::__traits<geode::Hook*, std::__ndk1::basic_string<char, std::__ndk1::char_traits<char>, std::__ndk1::allocator<char> > >, (std::__ndk1::__variant_detail::_Trait)1>, std::__ndk1::__variant_detail::__base<(std::__ndk1::__variant_detail::__traits<geode::Hook*, std::__ndk1::basic_string<char, std::__ndk1::char_traits<char>, std::__ndk1::allocator<char> > >)1, geode::Hook, std::__ndk1::allocator<char> >&)
PUBLIC 24214 0 std::__ndk1::__tree<std::__ndk1::__value_type<std::__ndk1::basic_string<char, std::__ndk1::char_traits<char>, std::__ndk1::allocator<char> >, std::__ndk1::shared_ptr<geode::Hook> >, std::__ndk1::__map_value_compare<std::__ndk1::basic_string<char, std::__ndk1::char_traits<char>, std::__ndk1::allocator<char> >, std::__ndk1::__value_type<std::__ndk1::basic_string<char, std::__ndk1::char_traits<char>, std::__ndk1::allocator<char> >, std::__ndk1::shared_ptr<geode::Hook> >, std::__ndk1::less<std::__ndk1::basic_string<char, std::__ndk1::char_traits<char>, std::__ndk1::allocator<char> > >, true>, std::__ndk1::allocator<std::__ndk1::__value_type<std::__ndk1::basic_string<char, std::__ndk1::char_traits<char>, std::__ndk1::allocator<char> >, std::__ndk1::shared_ptr<geode::Hook> > > >::find<std::__ndk1::basic_string<char, std::__ndk1::char_traits<char>, std::__ndk1::allocator<char> > >(std::__ndk1::basic_string<char, std::__ndk1::char_traits<char>, std::__ndk1::allocator<char> > const&)
PUBLIC 24334 0 std::__ndk1::__tree<std::__ndk1::__value_type<std::__ndk1::basic_string<char, std::__ndk1::char_traits<char>, std::__ndk1::allocator<char> >, std::__ndk1::shared_ptr<geode::Hook> >, std::__ndk1::__map_value_compare<std::__ndk1::basic_string<char, std::__ndk1::char_traits<char>, std::__ndk1::allocator<char> >, std::__ndk1::__value_type<std::__ndk1::basic_string<char, std::__ndk1::char_traits<char>, std::__ndk1::allocator<char> >, std::__ndk1::shared_ptr<geode::Hook> >, std::__ndk1::less<std::__ndk1::basic_string<char, std::__ndk1::char_traits<char>, std::__ndk1::allocator<char> > >, true>, std::__ndk1::allocator<std::__ndk1::__value_type<std::__ndk1::basic_string<char, std::__ndk1::char_traits<char>, std::__ndk1::allocator<char> >, std::__ndk1::shared_ptr<geode::Hook> > > >::erase(std::__ndk1::__tree_const_iterator<std::__ndk1::__value_type<std::__ndk1::basic_string<char, std::__ndk1::char_traits<char>, std::__ndk1::allocator<char> >, std::__ndk1::shared_ptr<geode::Hook> >, std::__ndk1::__tree_node<std::__ndk1::__value_type<std::__ndk1::basic_string<char, std::__ndk1::char_traits<char>, std::__ndk1::allocator<char> >, std::__ndk1::shared_ptr<geode::Hook> >, void*>*, long>)
PUBLIC 24408 0 std::__ndk1::__tree_remove[abi:ne180000]<std::__ndk1::__tree_node_base<void*>*>(std::__ndk1::__tree_node_base<void*>*, std::__ndk1::__tree_node_base<void*>*)
PUBLIC 247d0 0 std::__ndk1::__tree<std::__ndk1::__value_type<std::__ndk1::basic_string<char, std::__ndk1::char_traits<char>, std::__ndk1::allocator<char> >, std::__ndk1::shared_ptr<geode::Hook> >, std::__ndk1::__map_value_compare<std::__ndk1::basic_string<char, std::__ndk1::char_traits<char>, std::__ndk1::allocator<char> >, std::__ndk1::__value_type<std::__ndk1::basic_string<char, std::__ndk1::char_traits<char>, std::__ndk1::allocator<char> >, std::__ndk1::shared_ptr<geode::Hook> >, std::__ndk1::less<std::__ndk1::basic_string<char, std::__ndk1::char_traits<char>, std::__ndk1::allocator<char> > >, true>, std::__ndk1::allocator<std::__ndk1::__value_type<std::__ndk1::basic_string<char, std::__ndk1::char_traits<char>, std::__ndk1::allocator<char> >, std::__ndk1::shared_ptr<geode::Hook> > > >::destroy(std::__ndk1::__tree_node<std::__ndk1::__value_type<std::__ndk1::basic_string<char, std::__ndk1::char_traits<char>, std::__ndk1::allocator<char> >, std::__ndk1::shared_ptr<geode::Hook> >, void*>*)
PUBLIC 2485c 0 geode::modifier::AsStaticFunction_init<BP_PlayLayer, bool (BP_PlayLayer::*)(GJGameLevel*, bool, bool)>::Impl<bool (BP_PlayLayer::*)(GJGameLevel*, bool, bool)>::function(BP_PlayLayer*, GJGameLevel*, bool, bool)
PUBLIC 24888 0 geode::modifier::AsStaticFunction_onQuit<BP_PlayLayer, void (BP_PlayLayer::*)()>::Impl<void (BP_PlayLayer::*)()>::function(BP_PlayLayer*)
PUBLIC 248a8 0 std::__ndk1::shared_ptr<tulip::hook::CallingConvention>::~shared_ptr[abi:ne180000]()
PUBLIC 248f8 0 tulip::hook::HandlerMetadata::~HandlerMetadata()
PUBLIC 2495c 0 std::__ndk1::vector<tulip::hook::AbstractType, std::__ndk1::allocator<tulip::hook::AbstractType> >::__throw_length_error[abi:ne180000]() const
PUBLIC 24970 0 std::__ndk1::__tree<std::__ndk1::__value_type<std::__ndk1::basic_string<char, std::__ndk1::char_traits<char>, std::__ndk1::allocator<char> >, std::__ndk1::shared_ptr<geode::Hook> >, std::__ndk1::__map_value_compare<std::__ndk1::basic_string<char, std::__ndk1::char_traits<char>, std::__ndk1::allocator<char> >, std::__ndk1::__value_type<std::__ndk1::basic_string<char, std::__ndk1::char_traits<char>, std::__ndk1::allocator<char> >, std::__ndk1::shared_ptr<geode::Hook> >, std::__ndk1::less<std::__ndk1::basic_string<char, std::__ndk1::char_traits<char>, std::__ndk1::allocator<char> > >, true>, std::__ndk1::allocator<std::__ndk1::__value_type<std::__ndk1::basic_string<char, std::__ndk1::char_traits<char>, std::__ndk1::allocator<char> >, std::__ndk1::shared_ptr<geode::Hook> > > >::__emplace_unique_key_args<std::__ndk1::basic_string<char, std::__ndk1::char_traits<char>, std::__ndk1::allocator<char> >, std::__ndk1::piecewise_construct_t const&, std::__ndk1::tuple<std::__ndk1::basic_string<char, std::__ndk1::char_traits<char>, std::__ndk1::allocator<char> >&&>, std::__ndk1::tuple<> >(std::__ndk1::basic_string<char, std::__ndk1::char_traits<char>, std::__ndk1::allocator<char> > const&, std::__ndk1::piecewise_construct_t const&, std::__ndk1::tuple<std::__ndk1::basic_string<char, std::__ndk1::char_traits<char>, std::__ndk1::allocator<char> >&&>, std::__ndk1::tuple<>)
PUBLIC 24ae8 0 std::__ndk1::__tree_balance_after_insert[abi:ne180000]<std::__ndk1::__tree_node_base<void*>*>(std::__ndk1::__tree_node_base<void*>*, std::__ndk1::__tree_node_base<void*>*)
PUBLIC 24c98 0 geode::modifier::ModifyDerive<BP_CCDirector, cocos2d::CCDirector>::apply()
PUBLIC 25020 0 geode::modifier::ModifyBase<geode::modifier::ModifyDerive<BP_CCDirector, cocos2d::CCDirector> >::apply()
PUBLIC 25024 0 geode::modifier::AsStaticFunction_willSwitchToScene<BP_CCDirector, void (BP_CCDirector::*)(cocos2d::CCScene*)>::Impl<void (BP_CCDirector::*)(cocos2d::CCScene*)>::function(BP_CCDirector*, cocos2d::CCScene*)
PUBLIC 25274 0 std::__ndk1::__function::__base<void ()>::~__base()
PUBLIC 25278 0 std::__ndk1::__function::__func<BP_CCDirector::willSwitchToScene(cocos2d::CCScene*)::{lambda()#1}, std::__ndk1::allocator<BP_CCDirector::willSwitchToScene(cocos2d::CCScene*)::{lambda()#1}>, void ()>::~__func()
PUBLIC 2527c 0 std::__ndk1::__function::__func<BP_CCDirector::willSwitchToScene(cocos2d::CCScene*)::{lambda()#1}, std::__ndk1::allocator<BP_CCDirector::willSwitchToScene(cocos2d::CCScene*)::{lambda()#1}>, void ()>::__clone() const
PUBLIC 252c4 0 std::__ndk1::__function::__func<BP_CCDirector::willSwitchToScene(cocos2d::CCScene*)::{lambda()#1}, std::__ndk1::allocator<BP_CCDirector::willSwitchToScene(cocos2d::CCScene*)::{lambda()#1}>, void ()>::__clone(std::__ndk1::__function::__base<void ()>*) const
PUBLIC 252ec 0 std::__ndk1::__function::__func<BP_CCDirector::willSwitchToScene(cocos2d::CCScene*)::{lambda()#1}, std::__ndk1::allocator<BP_CCDirector::willSwitchToScene(cocos2d::CCScene*)::{lambda()#1}>, void ()>::destroy()
PUBLIC 252f0 0 std::__ndk1::__function::__func<BP_CCDirector::willSwitchToScene(cocos2d::CCScene*)::{lambda()#1}, std::__ndk1::allocator<BP_CCDirector::willSwitchToScene(cocos2d::CCScene*)::{lambda()#1}>, void ()>::destroy_deallocate()
PUBLIC 252f4 0 std::__ndk1::__function::__func<BP_CCDirector::willSwitchToScene(cocos2d::CCScene*)::{lambda()#1}, std::__ndk1::allocator<BP_CCDirector::willSwitchToScene(cocos2d::CCScene*)::{lambda()#1}>, void ()>::operator()()
PUBLIC 254d4 0 std::__ndk1::__function::__func<BP_CCDirector::willSwitchToScene(cocos2d::CCScene*)::{lambda()#1}, std::__ndk1::allocator<BP_CCDirector::willSwitchToScene(cocos2d::CCScene*)::{lambda()#1}>, void ()>::target(std::type_info const&) const
PUBLIC 254f0 0 std::__ndk1::__function::__func<BP_CCDirector::willSwitchToScene(cocos2d::CCScene*)::{lambda()#1}, std::__ndk1::allocator<BP_CCDirector::willSwitchToScene(cocos2d::CCScene*)::{lambda()#1}>, void ()>::target_type() const
PUBLIC 254fc 0 geode::Mod::getSettingValue<bool>(std::__ndk1::basic_string_view<char, std::__ndk1::char_traits<char> >) const
PUBLIC 25630 0 __cxx_global_var_init.1
PUBLIC 25d90 0 geode::modifier::ModifyBase<geode::modifier::ModifyDerive<BP_ProfilePage, ProfilePage> >::~ModifyBase()
PUBLIC 25dac 0 geode::modifier::ModifyDerive<BP_ProfilePage, ProfilePage>::apply()
PUBLIC 26130 0 geode::modifier::ModifyBase<geode::modifier::ModifyDerive<BP_ProfilePage, ProfilePage> >::apply()
PUBLIC 26134 0 std::__ndk1::unique_ptr<std::__ndk1::__tree_node<std::__ndk1::__value_type<std::__ndk1::basic_string<char, std::__ndk1::char_traits<char>, std::__ndk1::allocator<char> >, std::__ndk1::shared_ptr<geode::Hook> >, void*>, std::__ndk1::__tree_node_destructor<std::__ndk1::allocator<std::__ndk1::__tree_node<std::__ndk1::__value_type<std::__ndk1::basic_string<char, std::__ndk1::char_traits<char>, std::__ndk1::allocator<char> >, std::__ndk1::shared_ptr<geode::Hook> >, void*> > > >::~unique_ptr[abi:ne180000]()
PUBLIC 261b0 0 _ZN5geode15UnwrapExceptionC2IRNSt6__ndk112basic_stringIcNS2_11char_traitsIcEENS2_9allocatorIcEEEEQsr4implE18IsStringStreamableIT_EEENS_4impl6ErrTagEOSA_
PUBLIC 26318 0 std::__ndk1::__variant_detail::__visitation::__base::__dispatcher<(unsigned long)0>::__dispatch[abi:ne180000]<std::__ndk1::__variant_detail::__dtor<std::__ndk1::__variant_detail::__traits<std::__ndk1::monostate, std::__ndk1::basic_string<char, std::__ndk1::char_traits<char>, std::__ndk1::allocator<char> > >, (std::__ndk1::__variant_detail::_Trait)1>::__destroy[abi:ne180000]()::{lambda(auto:1&)#1}, std::__ndk1::__variant_detail::__base<(std::__ndk1::__variant_detail::__traits<std::__ndk1::monostate, std::__ndk1::basic_string<char, std::__ndk1::char_traits<char>, std::__ndk1::allocator<char> > >)1, std::__ndk1::__variant_detail::__traits, std::__ndk1::allocator<char> >&>(std::__ndk1::__variant_detail::__dtor<std::__ndk1::__variant_detail::__traits<std::__ndk1::monostate, std::__ndk1::basic_string<char, std::__ndk1::char_traits<char>, std::__ndk1::allocator<char> > >, (std::__ndk1::__variant_detail::_Trait)1>, std::__ndk1::__variant_detail::__base<(std::__ndk1::__variant_detail::__traits<std::__ndk1::monostate, std::__ndk1::basic_string<char, std::__ndk1::char_traits<char>, std::__ndk1::allocator<char> > >)1, std::__ndk1::__variant_detail::__traits, std::__ndk1::allocator<char> >&)
PUBLIC 2631c 0 std::__ndk1::__variant_detail::__visitation::__base::__dispatcher<(unsigned long)1>::__dispatch[abi:ne180000]<std::__ndk1::__variant_detail::__dtor<std::__ndk1::__variant_detail::__traits<std::__ndk1::monostate, std::__ndk1::basic_string<char, std::__ndk1::char_traits<char>, std::__ndk1::allocator<char> > >, (std::__ndk1::__variant_detail::_Trait)1>::__destroy[abi:ne180000]()::{lambda(auto:1&)#1}, std::__ndk1::__variant_detail::__base<(std::__ndk1::__variant_detail::__traits<std::__ndk1::monostate, std::__ndk1::basic_string<char, std::__ndk1::char_traits<char>, std::__ndk1::allocator<char> > >)1, std::__ndk1::__variant_detail::__traits, std::__ndk1::allocator<char> >&>(std::__ndk1::__variant_detail::__dtor<std::__ndk1::__variant_detail::__traits<std::__ndk1::monostate, std::__ndk1::basic_string<char, std::__ndk1::char_traits<char>, std::__ndk1::allocator<char> > >, (std::__ndk1::__variant_detail::_Trait)1>, std::__ndk1::__variant_detail::__base<(std::__ndk1::__variant_detail::__traits<std::__ndk1::monostate, std::__ndk1::basic_string<char, std::__ndk1::char_traits<char>, std::__ndk1::allocator<char> > >)1, std::__ndk1::__variant_detail::__traits, std::__ndk1::allocator<char> >&)
PUBLIC 26330 0 geode::modifier::AsStaticFunction_loadPageFromUserInfo<BP_ProfilePage, void (BP_ProfilePage::*)(GJUserScore*)>::Impl<void (BP_ProfilePage::*)(GJUserScore*)>::function(BP_ProfilePage*, GJUserScore*)
PUBLIC 27cbc 0 SpriteHelper::getBadgeFromLevel(int)
PUBLIC 28270 0 BP_ProfilePage::onBadgePress(cocos2d::CCObject*)
PUBLIC 286f4 0 cocos2d::CCSequence::create(cocos2d::CCFiniteTimeAction*, ...)
PUBLIC 2878c 0 BP_ProfilePage::onAnimPress(cocos2d::CCObject*)
PUBLIC 28990 0 geode::modifier::FieldIntermediate<BP_ProfilePage, ProfilePage>::self()
PUBLIC 28fd4 0 geode::modifier::FieldIntermediate<BP_ProfilePage, ProfilePage>::fieldDestructor(void*)
PUBLIC 28fd8 0 std::__ndk1::vector<void*, std::__ndk1::allocator<void*> >::__throw_length_error[abi:ne180000]() const
PUBLIC 28fec 0 std::__ndk1::vector<std::__ndk1::function<void (void*)>, std::__ndk1::allocator<std::__ndk1::function<void (void*)> > >::__throw_length_error[abi:ne180000]() const
PUBLIC 29000 0 std::__ndk1::vector<void*, std::__ndk1::allocator<void*> >::__throw_out_of_range[abi:ne180000]() const
PUBLIC 2900c 0 std::__ndk1::__throw_out_of_range[abi:ne180000](char const*)
PUBLIC 2905c 0 std::out_of_range::out_of_range[abi:ne180000](char const*)
PUBLIC 2908c 0 std::__ndk1::vector<std::__ndk1::function<void (void*)>, std::__ndk1::allocator<std::__ndk1::function<void (void*)> > >::__throw_out_of_range[abi:ne180000]() const
PUBLIC 29098 0 std::__ndk1::__function::__base<void (void*)>::~__base()
PUBLIC 2909c 0 std::__ndk1::__function::__func<void (*)(void*), std::__ndk1::allocator<void (*)(void*)>, void (void*)>::~__func()
PUBLIC 290a0 0 std::__ndk1::__function::__func<void (*)(void*), std::__ndk1::allocator<void (*)(void*)>, void (void*)>::__clone() const
PUBLIC 290d8 0 std::__ndk1::__function::__func<void (*)(void*), std::__ndk1::allocator<void (*)(void*)>, void (void*)>::__clone(std::__ndk1::__function::__base<void (void*)>*) const
PUBLIC 290f0 0 std::__ndk1::__function::__func<void (*)(void*), std::__ndk1::allocator<void (*)(void*)>, void (void*)>::destroy()
PUBLIC 290f4 0 std::__ndk1::__function::__func<void (*)(void*), std::__ndk1::allocator<void (*)(void*)>, void (void*)>::destroy_deallocate()
PUBLIC 290f8 0 std::__ndk1::__function::__func<void (*)(void*), std::__ndk1::allocator<void (*)(void*)>, void (void*)>::operator()(void*&&)
PUBLIC 29108 0 std::__ndk1::__function::__func<void (*)(void*), std::__ndk1::allocator<void (*)(void*)>, void (void*)>::target(std::type_info const&) const
PUBLIC 29124 0 std::__ndk1::__function::__func<void (*)(void*), std::__ndk1::allocator<void (*)(void*)>, void (void*)>::target_type() const
PUBLIC 29130 0 std::__ndk1::basic_string<char, std::__ndk1::char_traits<char>, std::__ndk1::allocator<char> >::__assign_external(char const*, unsigned long)
PUBLIC 29294 0 Request::performCPRequest()
PUBLIC 29528 0 Request::generateNewTotalEXP()
PUBLIC 29944 0 std::__ndk1::getline[abi:ne180000]<char, std::__ndk1::char_traits<char>, std::__ndk1::allocator<char> >(std::__ndk1::basic_istream<char, std::__ndk1::char_traits<char> >, std::__ndk1::basic_string<std::__ndk1::basic_istream, char, std::__ndk1::allocator<char> >&, std::__ndk1::basic_istream)
PUBLIC m 29af4 0 std::__ndk1::basic_istringstream<char, std::__ndk1::char_traits<char>, std::__ndk1::allocator<char> >::~basic_istringstream()
PUBLIC 29b70 0 std::__ndk1::unordered_map<std::__ndk1::basic_string<char, std::__ndk1::char_traits<char>, std::__ndk1::allocator<char> >, std::__ndk1::basic_string<char, std::__ndk1::char_traits<char>, std::__ndk1::allocator<char> >, std::__ndk1::hash<std::__ndk1::basic_string<char, std::__ndk1::char_traits<char>, std::__ndk1::allocator<char> > >, std::__ndk1::equal_to<std::__ndk1::basic_string<char, std::__ndk1::char_traits<char>, std::__ndk1::allocator<char> > >, std::__ndk1::allocator<std::__ndk1::pair<std::__ndk1::basic_string<char, std::__ndk1::char_traits<char>, std::__ndk1::allocator<char> > const, std::__ndk1::basic_string<char, std::__ndk1::char_traits<char>, std::__ndk1::allocator<char> > > > >::~unordered_map[abi:ne180000]()
PUBLIC 29bfc 0 std::__ndk1::basic_string<char, std::__ndk1::char_traits<char>, std::__ndk1::allocator<char> >::__assign_no_alias<true>(char const*, unsigned long)
PUBLIC 29ca8 0 std::__ndk1::basic_string<char, std::__ndk1::char_traits<char>, std::__ndk1::allocator<char> >::__assign_no_alias<false>(char const*, unsigned long)
PUBLIC 29db8 0 std::__ndk1::__function::__value_func<void (geode::Task<geode::utils::web::WebResponse, geode::utils::web::WebProgress>::Event*)>::swap[abi:ne180000](std::__ndk1::__function::__value_func<void (geode::Task<geode::utils::web::WebResponse, geode::utils::web::WebProgress>::Event*)>&)
PUBLIC 29f50 0 std::__ndk1::__function::__base<void (geode::Task<geode::utils::web::WebResponse, geode::utils::web::WebProgress>::Event*)>::~__base()
PUBLIC 29f54 0 std::__ndk1::__function::__func<Request::setupListener()::$_0, std::__ndk1::allocator<Request::setupListener()::$_0>, void (geode::Task<geode::utils::web::WebResponse, geode::utils::web::WebProgress>::Event*)>::~__func()
PUBLIC 29f58 0 std::__ndk1::__function::__func<Request::setupListener()::$_0, std::__ndk1::allocator<Request::setupListener()::$_0>, void (geode::Task<geode::utils::web::WebResponse, geode::utils::web::WebProgress>::Event*)>::__clone() const
PUBLIC 29f7c 0 std::__ndk1::__function::__func<Request::setupListener()::$_0, std::__ndk1::allocator<Request::setupListener()::$_0>, void (geode::Task<geode::utils::web::WebResponse, geode::utils::web::WebProgress>::Event*)>::__clone(std::__ndk1::__function::__base<void (geode::Task<geode::utils::web::WebResponse, geode::utils::web::WebProgress>::Event*)>*) const
PUBLIC 29f8c 0 std::__ndk1::__function::__func<Request::setupListener()::$_0, std::__ndk1::allocator<Request::setupListener()::$_0>, void (geode::Task<geode::utils::web::WebResponse, geode::utils::web::WebProgress>::Event*)>::destroy()
PUBLIC 29f90 0 std::__ndk1::__function::__func<Request::setupListener()::$_0, std::__ndk1::allocator<Request::setupListener()::$_0>, void (geode::Task<geode::utils::web::WebResponse, geode::utils::web::WebProgress>::Event*)>::destroy_deallocate()
PUBLIC 29f94 0 std::__ndk1::__function::__func<Request::setupListener()::$_0, std::__ndk1::allocator<Request::setupListener()::$_0>, void (geode::Task<geode::utils::web::WebResponse, geode::utils::web::WebProgress>::Event*)>::operator()(geode::Task<geode::utils::web::WebResponse, geode::utils::web::WebProgress>::Event*&&)
PUBLIC 2afc8 0 std::__ndk1::__function::__func<Request::setupListener()::$_0, std::__ndk1::allocator<Request::setupListener()::$_0>, void (geode::Task<geode::utils::web::WebResponse, geode::utils::web::WebProgress>::Event*)>::target(std::type_info const&) const
PUBLIC 2afe4 0 std::__ndk1::__function::__func<Request::setupListener()::$_0, std::__ndk1::allocator<Request::setupListener()::$_0>, void (geode::Task<geode::utils::web::WebResponse, geode::utils::web::WebProgress>::Event*)>::target_type() const
PUBLIC 2aff0 0 geode::Mod::getSavedValue<int>(std::__ndk1::basic_string_view<char, std::__ndk1::char_traits<char> >)
PUBLIC 2b210 0 std::__ndk1::__variant_detail::__visitation::__base::__dispatcher<(unsigned long)0>::__dispatch[abi:ne180000]<std::__ndk1::__variant_detail::__dtor<std::__ndk1::__variant_detail::__traits<std::__ndk1::basic_string<char, std::__ndk1::char_traits<char>, std::__ndk1::allocator<char> >, std::__ndk1::allocator<char> >, (std::__ndk1::__variant_detail::_Trait)1>::__destroy[abi:ne180000]()::{lambda(auto:1&)#1}, std::__ndk1::__variant_detail::__base<(std::__ndk1::__variant_detail::__traits<std::__ndk1::basic_string<char, std::__ndk1::char_traits<char>, std::__ndk1::allocator<char> >, std::__ndk1::allocator<char> >)1, std::__ndk1::allocator<char>, std::__ndk1::allocator<char> >&>(std::__ndk1::__variant_detail::__dtor<std::__ndk1::__variant_detail::__traits<std::__ndk1::basic_string<char, std::__ndk1::char_traits<char>, std::__ndk1::allocator<char> >, std::__ndk1::allocator<char> >, (std::__ndk1::__variant_detail::_Trait)1>, std::__ndk1::__variant_detail::__base<(std::__ndk1::__variant_detail::__traits<std::__ndk1::basic_string<char, std::__ndk1::char_traits<char>, std::__ndk1::allocator<char> >, std::__ndk1::allocator<char> >)1, std::__ndk1::allocator<char>, std::__ndk1::allocator<char> >&)
PUBLIC 2b224 0 std::__ndk1::__variant_detail::__visitation::__base::__dispatcher<(unsigned long)1>::__dispatch[abi:ne180000]<std::__ndk1::__variant_detail::__dtor<std::__ndk1::__variant_detail::__traits<std::__ndk1::basic_string<char, std::__ndk1::char_traits<char>, std::__ndk1::allocator<char> >, std::__ndk1::allocator<char> >, (std::__ndk1::__variant_detail::_Trait)1>::__destroy[abi:ne180000]()::{lambda(auto:1&)#1}, std::__ndk1::__variant_detail::__base<(std::__ndk1::__variant_detail::__traits<std::__ndk1::basic_string<char, std::__ndk1::char_traits<char>, std::__ndk1::allocator<char> >, std::__ndk1::allocator<char> >)1, std::__ndk1::allocator<char>, std::__ndk1::allocator<char> >&>(std::__ndk1::__variant_detail::__dtor<std::__ndk1::__variant_detail::__traits<std::__ndk1::basic_string<char, std::__ndk1::char_traits<char>, std::__ndk1::allocator<char> >, std::__ndk1::allocator<char> >, (std::__ndk1::__variant_detail::_Trait)1>, std::__ndk1::__variant_detail::__base<(std::__ndk1::__variant_detail::__traits<std::__ndk1::basic_string<char, std::__ndk1::char_traits<char>, std::__ndk1::allocator<char> >, std::__ndk1::allocator<char> >)1, std::__ndk1::allocator<char>, std::__ndk1::allocator<char> >&)
PUBLIC 2b238 0 geode::impl::ResultData<matjson::Value&, std::__ndk1::basic_string<char, std::__ndk1::char_traits<char>, std::__ndk1::allocator<char> > >::~ResultData()
PUBLIC 2b2ac 0 std::__ndk1::__variant_detail::__visitation::__base::__dispatcher<(unsigned long)0>::__dispatch[abi:ne180000]<std::__ndk1::__variant_detail::__dtor<std::__ndk1::__variant_detail::__traits<long, std::__ndk1::basic_string<char, std::__ndk1::char_traits<char>, std::__ndk1::allocator<char> > >, (std::__ndk1::__variant_detail::_Trait)1>::__destroy[abi:ne180000]()::{lambda(auto:1&)#1}, std::__ndk1::__variant_detail::__base<(std::__ndk1::__variant_detail::__traits<long, std::__ndk1::basic_string<char, std::__ndk1::char_traits<char>, std::__ndk1::allocator<char> > >)1, long, std::__ndk1::allocator<char> >&>(std::__ndk1::__variant_detail::__dtor<std::__ndk1::__variant_detail::__traits<long, std::__ndk1::basic_string<char, std::__ndk1::char_traits<char>, std::__ndk1::allocator<char> > >, (std::__ndk1::__variant_detail::_Trait)1>, std::__ndk1::__variant_detail::__base<(std::__ndk1::__variant_detail::__traits<long, std::__ndk1::basic_string<char, std::__ndk1::char_traits<char>, std::__ndk1::allocator<char> > >)1, long, std::__ndk1::allocator<char> >&)
PUBLIC 2b2b0 0 std::__ndk1::__variant_detail::__visitation::__base::__dispatcher<(unsigned long)1>::__dispatch[abi:ne180000]<std::__ndk1::__variant_detail::__dtor<std::__ndk1::__variant_detail::__traits<long, std::__ndk1::basic_string<char, std::__ndk1::char_traits<char>, std::__ndk1::allocator<char> > >, (std::__ndk1::__variant_detail::_Trait)1>::__destroy[abi:ne180000]()::{lambda(auto:1&)#1}, std::__ndk1::__variant_detail::__base<(std::__ndk1::__variant_detail::__traits<long, std::__ndk1::basic_string<char, std::__ndk1::char_traits<char>, std::__ndk1::allocator<char> > >)1, long, std::__ndk1::allocator<char> >&>(std::__ndk1::__variant_detail::__dtor<std::__ndk1::__variant_detail::__traits<long, std::__ndk1::basic_string<char, std::__ndk1::char_traits<char>, std::__ndk1::allocator<char> > >, (std::__ndk1::__variant_detail::_Trait)1>, std::__ndk1::__variant_detail::__base<(std::__ndk1::__variant_detail::__traits<long, std::__ndk1::basic_string<char, std::__ndk1::char_traits<char>, std::__ndk1::allocator<char> > >)1, long, std::__ndk1::allocator<char> >&)
PUBLIC 2b2c4 0 std::__ndk1::__variant_detail::__visitation::__base::__dispatcher<(unsigned long)0>::__dispatch[abi:ne180000]<std::__ndk1::__variant_detail::__dtor<std::__ndk1::__variant_detail::__traits<std::__ndk1::reference_wrapper<matjson::Value>, std::__ndk1::basic_string<char, std::__ndk1::char_traits<char>, std::__ndk1::allocator<char> > >, (std::__ndk1::__variant_detail::_Trait)1>::__destroy[abi:ne180000]()::{lambda(auto:1&)#1}, std::__ndk1::__variant_detail::__base<(std::__ndk1::__variant_detail::__traits<std::__ndk1::reference_wrapper<matjson::Value>, std::__ndk1::basic_string<char, std::__ndk1::char_traits<char>, std::__ndk1::allocator<char> > >)1, matjson::Value, std::__ndk1::allocator<char> >&>(std::__ndk1::__variant_detail::__dtor<std::__ndk1::__variant_detail::__traits<std::__ndk1::reference_wrapper<matjson::Value>, std::__ndk1::basic_string<char, std::__ndk1::char_traits<char>, std::__ndk1::allocator<char> > >, (std::__ndk1::__variant_detail::_Trait)1>, std::__ndk1::__variant_detail::__base<(std::__ndk1::__variant_detail::__traits<std::__ndk1::reference_wrapper<matjson::Value>, std::__ndk1::basic_string<char, std::__ndk1::char_traits<char>, std::__ndk1::allocator<char> > >)1, matjson::Value, std::__ndk1::allocator<char> >&)
PUBLIC 2b2c8 0 std::__ndk1::__variant_detail::__visitation::__base::__dispatcher<(unsigned long)1>::__dispatch[abi:ne180000]<std::__ndk1::__variant_detail::__dtor<std::__ndk1::__variant_detail::__traits<std::__ndk1::reference_wrapper<matjson::Value>, std::__ndk1::basic_string<char, std::__ndk1::char_traits<char>, std::__ndk1::allocator<char> > >, (std::__ndk1::__variant_detail::_Trait)1>::__destroy[abi:ne180000]()::{lambda(auto:1&)#1}, std::__ndk1::__variant_detail::__base<(std::__ndk1::__variant_detail::__traits<std::__ndk1::reference_wrapper<matjson::Value>, std::__ndk1::basic_string<char, std::__ndk1::char_traits<char>, std::__ndk1::allocator<char> > >)1, matjson::Value, std::__ndk1::allocator<char> >&>(std::__ndk1::__variant_detail::__dtor<std::__ndk1::__variant_detail::__traits<std::__ndk1::reference_wrapper<matjson::Value>, std::__ndk1::basic_string<char, std::__ndk1::char_traits<char>, std::__ndk1::allocator<char> > >, (std::__ndk1::__variant_detail::_Trait)1>, std::__ndk1::__variant_detail::__base<(std::__ndk1::__variant_detail::__traits<std::__ndk1::reference_wrapper<matjson::Value>, std::__ndk1::basic_string<char, std::__ndk1::char_traits<char>, std::__ndk1::allocator<char> > >)1, matjson::Value, std::__ndk1::allocator<char> >&)
PUBLIC 2b2dc 0 std::__ndk1::__variant_detail::__visitation::__base::__dispatcher<(unsigned long)0>::__dispatch[abi:ne180000]<std::__ndk1::__variant_detail::__dtor<std::__ndk1::__variant_detail::__traits<int, std::__ndk1::basic_string<char, std::__ndk1::char_traits<char>, std::__ndk1::allocator<char> > >, (std::__ndk1::__variant_detail::_Trait)1>::__destroy[abi:ne180000]()::{lambda(auto:1&)#1}, std::__ndk1::__variant_detail::__base<(std::__ndk1::__variant_detail::__traits<int, std::__ndk1::basic_string<char, std::__ndk1::char_traits<char>, std::__ndk1::allocator<char> > >)1, int, std::__ndk1::allocator<char> >&>(std::__ndk1::__variant_detail::__dtor<std::__ndk1::__variant_detail::__traits<int, std::__ndk1::basic_string<char, std::__ndk1::char_traits<char>, std::__ndk1::allocator<char> > >, (std::__ndk1::__variant_detail::_Trait)1>, std::__ndk1::__variant_detail::__base<(std::__ndk1::__variant_detail::__traits<int, std::__ndk1::basic_string<char, std::__ndk1::char_traits<char>, std::__ndk1::allocator<char> > >)1, int, std::__ndk1::allocator<char> >&)
PUBLIC 2b2e0 0 std::__ndk1::__variant_detail::__visitation::__base::__dispatcher<(unsigned long)1>::__dispatch[abi:ne180000]<std::__ndk1::__variant_detail::__dtor<std::__ndk1::__variant_detail::__traits<int, std::__ndk1::basic_string<char, std::__ndk1::char_traits<char>, std::__ndk1::allocator<char> > >, (std::__ndk1::__variant_detail::_Trait)1>::__destroy[abi:ne180000]()::{lambda(auto:1&)#1}, std::__ndk1::__variant_detail::__base<(std::__ndk1::__variant_detail::__traits<int, std::__ndk1::basic_string<char, std::__ndk1::char_traits<char>, std::__ndk1::allocator<char> > >)1, int, std::__ndk1::allocator<char> >&>(std::__ndk1::__variant_detail::__dtor<std::__ndk1::__variant_detail::__traits<int, std::__ndk1::basic_string<char, std::__ndk1::char_traits<char>, std::__ndk1::allocator<char> > >, (std::__ndk1::__variant_detail::_Trait)1>, std::__ndk1::__variant_detail::__base<(std::__ndk1::__variant_detail::__traits<int, std::__ndk1::basic_string<char, std::__ndk1::char_traits<char>, std::__ndk1::allocator<char> > >)1, int, std::__ndk1::allocator<char> >&)
PUBLIC 2b2f4 0 std::__ndk1::__function::__func<Request::setupListener()::$_0::operator()(geode::Task<geode::utils::web::WebResponse, geode::utils::web::WebProgress>::Event*) const::{lambda()#1}, std::__ndk1::allocator<Request::setupListener()::$_0::operator()(geode::Task<geode::utils::web::WebResponse, geode::utils::web::WebProgress>::Event*) const::{lambda()#1}>, void ()>::~__func()
PUBLIC 2b2f8 0 std::__ndk1::__function::__func<Request::setupListener()::$_0::operator()(geode::Task<geode::utils::web::WebResponse, geode::utils::web::WebProgress>::Event*) const::{lambda()#1}, std::__ndk1::allocator<Request::setupListener()::$_0::operator()(geode::Task<geode::utils::web::WebResponse, geode::utils::web::WebProgress>::Event*) const::{lambda()#1}>, void ()>::__clone() const
PUBLIC 2b338 0 std::__ndk1::__function::__func<Request::setupListener()::$_0::operator()(geode::Task<geode::utils::web::WebResponse, geode::utils::web::WebProgress>::Event*) const::{lambda()#1}, std::__ndk1::allocator<Request::setupListener()::$_0::operator()(geode::Task<geode::utils::web::WebResponse, geode::utils::web::WebProgress>::Event*) const::{lambda()#1}>, void ()>::__clone(std::__ndk1::__function::__base<void ()>*) const
PUBLIC 2b358 0 std::__ndk1::__function::__func<Request::setupListener()::$_0::operator()(geode::Task<geode::utils::web::WebResponse, geode::utils::web::WebProgress>::Event*) const::{lambda()#1}, std::__ndk1::allocator<Request::setupListener()::$_0::operator()(geode::Task<geode::utils::web::WebResponse, geode::utils::web::WebProgress>::Event*) const::{lambda()#1}>, void ()>::destroy()
PUBLIC 2b35c 0 std::__ndk1::__function::__func<Request::setupListener()::$_0::operator()(geode::Task<geode::utils::web::WebResponse, geode::utils::web::WebProgress>::Event*) const::{lambda()#1}, std::__ndk1::allocator<Request::setupListener()::$_0::operator()(geode::Task<geode::utils::web::WebResponse, geode::utils::web::WebProgress>::Event*) const::{lambda()#1}>, void ()>::destroy_deallocate()
PUBLIC 2b360 0 std::__ndk1::__function::__func<Request::setupListener()::$_0::operator()(geode::Task<geode::utils::web::WebResponse, geode::utils::web::WebProgress>::Event*) const::{lambda()#1}, std::__ndk1::allocator<Request::setupListener()::$_0::operator()(geode::Task<geode::utils::web::WebResponse, geode::utils::web::WebProgress>::Event*) const::{lambda()#1}>, void ()>::operator()()
PUBLIC 2b4fc 0 std::__ndk1::__function::__func<Request::setupListener()::$_0::operator()(geode::Task<geode::utils::web::WebResponse, geode::utils::web::WebProgress>::Event*) const::{lambda()#1}, std::__ndk1::allocator<Request::setupListener()::$_0::operator()(geode::Task<geode::utils::web::WebResponse, geode::utils::web::WebProgress>::Event*) const::{lambda()#1}>, void ()>::target(std::type_info const&) const
PUBLIC 2b518 0 std::__ndk1::__function::__func<Request::setupListener()::$_0::operator()(geode::Task<geode::utils::web::WebResponse, geode::utils::web::WebProgress>::Event*) const::{lambda()#1}, std::__ndk1::allocator<Request::setupListener()::$_0::operator()(geode::Task<geode::utils::web::WebResponse, geode::utils::web::WebProgress>::Event*) const::{lambda()#1}>, void ()>::target_type() const
PUBLIC 2b524 0 std::__ndk1::unique_ptr<std::__ndk1::__hash_node<std::__ndk1::__hash_value_type<std::__ndk1::basic_string<char, std::__ndk1::char_traits<char>, std::__ndk1::allocator<char> >, std::__ndk1::basic_string<char, std::__ndk1::char_traits<char>, std::__ndk1::allocator<char> > >, void*>, std::__ndk1::__hash_node_destructor<std::__ndk1::allocator<std::__ndk1::__hash_node<std::__ndk1::__hash_value_type<std::__ndk1::basic_string<char, std::__ndk1::char_traits<char>, std::__ndk1::allocator<char> >, std::__ndk1::basic_string<char, std::__ndk1::char_traits<char>, std::__ndk1::allocator<char> > >, void*> > > >::~unique_ptr[abi:ne180000]()
PUBLIC 2b580 0 std::__ndk1::__murmur2_or_cityhash<unsigned long, (unsigned long)64>::operator()[abi:ne180000](void const*, unsigned long) const
PUBLIC 2b9d8 0 TierBarPopup::createPopup(cocos2d::CCScene*, int, int, float)
PUBLIC 2d21c 0 TierBarPopup::soundCallback()
PUBLIC 2d2ac 0 TierBarPopup::removePopup()
PUBLIC 2d2c4 0 TierBarPopup::incrementEXPByOne()
PUBLIC 2d604 0 LevelUpPopup::create(int, int)
PUBLIC 2d720 0 LevelUpPopup::init(int, int)
PUBLIC 2e95c 0 SpriteHelper::createFullSprite(int)
PUBLIC 2eedc 0 ParticleManager::inwardParticles(int, cocos2d::_ccColor3B)
PUBLIC 30728 0 ParticleManager::outwardParticles(int, cocos2d::_ccColor3B)
PUBLIC 31f74 0 ParticleManager::bottomParticles(int, cocos2d::_ccColor3B)
PUBLIC 336d0 0 LevelUpPopup::soundCallback1()
PUBLIC 33760 0 LevelUpPopup::inwardParticlesEnable(cocos2d::CCNode*)
PUBLIC 33774 0 LevelUpPopup::outwardParticlesEnable(cocos2d::CCNode*)
PUBLIC 33788 0 LevelUpPopup::bottomParticlesEnable(cocos2d::CCNode*)
PUBLIC 3379c 0 LevelUpPopup::keyBackClicked()
PUBLIC 337ac 0 {virtual override thunk({offset(-336)}, LevelUpPopup::keyBackClicked())}
PUBLIC 337c0 0 LevelUpPopup::onClose(cocos2d::CCObject*)
PUBLIC 33834 0 LevelUpPopup::registerWithTouchDispatcher()
PUBLIC 3386c 0 LevelUpPopup::enableKeypad()
PUBLIC 3387c 0 cocos2d::CCCopying::copyWithZone(cocos2d::CCZone*)
PUBLIC 33884 0 LevelUpPopup::~LevelUpPopup()
PUBLIC 338a8 0 cocos2d::CCLayerRGBA::setOpacityModifyRGB(bool)
PUBLIC 338ac 0 cocos2d::CCLayerRGBA::isOpacityModifyRGB()
PUBLIC 338b4 0 {virtual override thunk({offset(-320)}, LevelUpPopup::~LevelUpPopup())}
PUBLIC 338bc 0 {virtual override thunk({offset(-320)}, LevelUpPopup::~LevelUpPopup())}
PUBLIC 338e4 0 cocos2d::CCKeyboardDelegate::keyUp(cocos2d::enumKeyCodes)
PUBLIC 338e8 0 cocos2d::CCMouseDelegate::rightKeyDown()
PUBLIC 338ec 0 cocos2d::CCMouseDelegate::rightKeyUp()
PUBLIC 338f0 0 cocos2d::CCMouseDelegate::scrollWheel(float, float)
PUBLIC 338f4 0 {virtual override thunk({offset(-408)}, cocos2d::CCLayerRGBA::setOpacityModifyRGB(bool))}
PUBLIC 338f8 0 {virtual override thunk({offset(-408)}, cocos2d::CCLayerRGBA::isOpacityModifyRGB())}
PUBLIC 33900 0 cocos2d::CCString::createWithFormat(char const*, ...)
PUBLIC 33a40 0 std::__ndk1::__function::__func<LevelUpPopup::init(int, int)::$_0, std::__ndk1::allocator<LevelUpPopup::init(int, int)::$_0>, void ()>::~__func()
PUBLIC 33a44 0 std::__ndk1::__function::__func<LevelUpPopup::init(int, int)::$_0, std::__ndk1::allocator<LevelUpPopup::init(int, int)::$_0>, void ()>::__clone() const
PUBLIC 33a78 0 std::__ndk1::__function::__func<LevelUpPopup::init(int, int)::$_0, std::__ndk1::allocator<LevelUpPopup::init(int, int)::$_0>, void ()>::__clone(std::__ndk1::__function::__base<void ()>*) const
PUBLIC 33a8c 0 std::__ndk1::__function::__func<LevelUpPopup::init(int, int)::$_0, std::__ndk1::allocator<LevelUpPopup::init(int, int)::$_0>, void ()>::destroy()
PUBLIC 33a90 0 std::__ndk1::__function::__func<LevelUpPopup::init(int, int)::$_0, std::__ndk1::allocator<LevelUpPopup::init(int, int)::$_0>, void ()>::destroy_deallocate()
PUBLIC 33a94 0 std::__ndk1::__function::__func<LevelUpPopup::init(int, int)::$_0, std::__ndk1::allocator<LevelUpPopup::init(int, int)::$_0>, void ()>::operator()()
PUBLIC 33bfc 0 std::__ndk1::__function::__func<LevelUpPopup::init(int, int)::$_0, std::__ndk1::allocator<LevelUpPopup::init(int, int)::$_0>, void ()>::target(std::type_info const&) const
PUBLIC 33c18 0 std::__ndk1::__function::__func<LevelUpPopup::init(int, int)::$_0, std::__ndk1::allocator<LevelUpPopup::init(int, int)::$_0>, void ()>::target_type() const
PUBLIC 33c24 0 __cxx_global_var_init.1
PUBLIC 340a4 0 geode::modifier::ModifyBase<geode::modifier::ModifyDerive<BP_MenuLayer, MenuLayer> >::~ModifyBase()
PUBLIC 340c0 0 geode::modifier::ModifyDerive<BP_MenuLayer, MenuLayer>::apply()
PUBLIC 343c8 0 geode::modifier::ModifyBase<geode::modifier::ModifyDerive<BP_MenuLayer, MenuLayer> >::apply()
PUBLIC 343cc 0 geode::modifier::AsStaticFunction_init<BP_MenuLayer, bool (BP_MenuLayer::*)()>::Impl<bool (BP_MenuLayer::*)()>::function(BP_MenuLayer*)
PUBLIC 344b4 0 geode::addresser::Addresser::addressOfVirtual<bool, MenuLayer, >(bool (MenuLayer::*)())
PUBLIC 3455c 0 MenuLayer::MenuLayer(geode::ZeroConstructorType)
PUBLIC 345f8 0 __cxx_global_var_init
PUBLIC 34a78 0 geode::modifier::ModifyBase<geode::modifier::ModifyDerive<BP_GJScoreCell, GJScoreCell> >::~ModifyBase()
PUBLIC 34a94 0 geode::modifier::ModifyDerive<BP_GJScoreCell, GJScoreCell>::apply()
PUBLIC 34e1c 0 geode::modifier::ModifyBase<geode::modifier::ModifyDerive<BP_GJScoreCell, GJScoreCell> >::apply()
PUBLIC 34e20 0 geode::modifier::AsStaticFunction_loadFromScore<BP_GJScoreCell, void (BP_GJScoreCell::*)(GJUserScore*)>::Impl<void (BP_GJScoreCell::*)(GJUserScore*)>::function(BP_GJScoreCell*, GJUserScore*)
PUBLIC m 35080 0 geodeImplicitEntry
PUBLIC 350bc 0 cocos2d::CCDestructor::~CCDestructor()
PUBLIC 35378 0 wrapFunction(unsigned long, tulip::hook::WrapperMetadata const&)
PUBLIC 354ac 0 geode::impl::ResultData<void*, std::__ndk1::basic_string<char, std::__ndk1::char_traits<char>, std::__ndk1::allocator<char> > >::unwrapErr() &
PUBLIC 35524 0 geode::impl::ResultData<void*, std::__ndk1::basic_string<char, std::__ndk1::char_traits<char>, std::__ndk1::allocator<char> > >::~ResultData()
PUBLIC 35598 0 tulip::hook::WrapperMetadata::~WrapperMetadata()
PUBLIC 355fc 0 cocos2d::CCNode::~CCNode()
PUBLIC 35620 0 {virtual override thunk({offset(-320)}, cocos2d::CCLayer::~CCLayer())}
PUBLIC 35628 0 cocos2d::CCLayer::~CCLayer()
PUBLIC 3564c 0 {virtual override thunk({offset(-320)}, cocos2d::CCLayer::~CCLayer())}
PUBLIC 35674 0 cocos2d::CCObject::~CCObject()
PUBLIC 35698 0 cocos2d::CCLayerColor::CCLayerColor()
PUBLIC 35cc8 0 cocos2d::CCLayerRGBA::~CCLayerRGBA()
PUBLIC 35f1c 0 {virtual override thunk({offset(-320)}, cocos2d::CCLayerColor::~CCLayerColor())}
PUBLIC 35f24 0 cocos2d::CCLayerColor::~CCLayerColor()
PUBLIC 35f48 0 {virtual override thunk({offset(-320)}, cocos2d::CCLayerColor::~CCLayerColor())}
PUBLIC 35f70 0 {virtual override thunk({offset(-320)}, cocos2d::CCLayerRGBA::~CCLayerRGBA())}
PUBLIC 35f78 0 cocos2d::CCLayerRGBA::~CCLayerRGBA()
PUBLIC 35f9c 0 {virtual override thunk({offset(-320)}, cocos2d::CCLayerRGBA::~CCLayerRGBA())}
PUBLIC 35fc4 0 cocos2d::CCDictionary::setObject(cocos2d::CCObject*, gd::string const&)
PUBLIC 36124 0 tulip::hook::AbstractFunction::from<void, cocos2d::CCDictionary*, cocos2d::CCObject*, gd::string const&>(void (*)(cocos2d::CCDictionary*, cocos2d::CCObject*, gd::string const&))
PUBLIC 3622c 0 cocos2d::CCDictionary::valueForKey(gd::string const&)
PUBLIC 3637c 0 tulip::hook::AbstractFunction::from<cocos2d::CCString const*, cocos2d::CCDictionary*, gd::string const&>(cocos2d::CCString const* (*)(cocos2d::CCDictionary*, gd::string const&))
PUBLIC 36424 0 {virtual override thunk({offset(-320)}, FLAlertLayer::~FLAlertLayer())}
PUBLIC 3642c 0 FLAlertLayer::~FLAlertLayer()
PUBLIC 36450 0 {virtual override thunk({offset(-320)}, FLAlertLayer::~FLAlertLayer())}
PUBLIC 36478 0 FLAlertLayer::create(FLAlertLayerProtocol*, char const*, gd::string, char const*, char const*, float)
PUBLIC 36630 0 tulip::hook::AbstractFunction::from<FLAlertLayer*, FLAlertLayerProtocol*, char const*, gd::string, char const*, char const*, float>(FLAlertLayer* (*)(FLAlertLayerProtocol*, char const*, gd::string, char const*, char const*, float))
PUBLIC 36b14 0 FMODAudioEngine::playEffect(gd::string)
PUBLIC 36c8c 0 tulip::hook::AbstractFunction::from<void, FMODAudioEngine*, gd::string>(void (*)(FMODAudioEngine*, gd::string))
PUBLIC 36d30 0 cocos2d::CCObject::update(float)
PUBLIC 36d34 0 cocos2d::CCLayerColor::~CCLayerColor()
PUBLIC 36f90 0 FLAlertLayer::~FLAlertLayer()
PUBLIC 3724c 0 cocos2d::CCNode::~CCNode()
PUBLIC 37478 0 cocos2d::CCLayer::~CCLayer()
PUBLIC 376c4 0 cocos2d::CCObject::~CCObject()
PUBLIC 378f0 0 _ZN5geode15UnwrapExceptionC2IRPvQsr4implE18IsStringStreamableIT_EEENS_4impl5OkTagEOS4_
PUBLIC 37a44 0 std::__ndk1::__variant_detail::__visitation::__base::__dispatcher<(unsigned long)0>::__dispatch[abi:ne180000]<std::__ndk1::__variant_detail::__dtor<std::__ndk1::__variant_detail::__traits<void*, std::__ndk1::basic_string<char, std::__ndk1::char_traits<char>, std::__ndk1::allocator<char> > >, (std::__ndk1::__variant_detail::_Trait)1>::__destroy[abi:ne180000]()::{lambda(auto:1&)#1}, std::__ndk1::__variant_detail::__base<(std::__ndk1::__variant_detail::__traits<void*, std::__ndk1::basic_string<char, std::__ndk1::char_traits<char>, std::__ndk1::allocator<char> > >)1, std::__ndk1::__variant_detail::__traits, std::__ndk1::allocator<char> >&>(std::__ndk1::__variant_detail::__dtor<std::__ndk1::__variant_detail::__traits<void*, std::__ndk1::basic_string<char, std::__ndk1::char_traits<char>, std::__ndk1::allocator<char> > >, (std::__ndk1::__variant_detail::_Trait)1>, std::__ndk1::__variant_detail::__base<(std::__ndk1::__variant_detail::__traits<void*, std::__ndk1::basic_string<char, std::__ndk1::char_traits<char>, std::__ndk1::allocator<char> > >)1, std::__ndk1::__variant_detail::__traits, std::__ndk1::allocator<char> >&)
PUBLIC 37a48 0 std::__ndk1::__variant_detail::__visitation::__base::__dispatcher<(unsigned long)1>::__dispatch[abi:ne180000]<std::__ndk1::__variant_detail::__dtor<std::__ndk1::__variant_detail::__traits<void*, std::__ndk1::basic_string<char, std::__ndk1::char_traits<char>, std::__ndk1::allocator<char> > >, (std::__ndk1::__variant_detail::_Trait)1>::__destroy[abi:ne180000]()::{lambda(auto:1&)#1}, std::__ndk1::__variant_detail::__base<(std::__ndk1::__variant_detail::__traits<void*, std::__ndk1::basic_string<char, std::__ndk1::char_traits<char>, std::__ndk1::allocator<char> > >)1, std::__ndk1::__variant_detail::__traits, std::__ndk1::allocator<char> >&>(std::__ndk1::__variant_detail::__dtor<std::__ndk1::__variant_detail::__traits<void*, std::__ndk1::basic_string<char, std::__ndk1::char_traits<char>, std::__ndk1::allocator<char> > >, (std::__ndk1::__variant_detail::_Trait)1>, std::__ndk1::__variant_detail::__base<(std::__ndk1::__variant_detail::__traits<void*, std::__ndk1::basic_string<char, std::__ndk1::char_traits<char>, std::__ndk1::allocator<char> > >)1, std::__ndk1::__variant_detail::__traits, std::__ndk1::allocator<char> >&)
PUBLIC 37a5c 0 std::__ndk1::__hash_table<std::__ndk1::__hash_value_type<void*, bool>, std::__ndk1::__unordered_map_hasher<void*, std::__ndk1::__hash_value_type<void*, bool>, std::__ndk1::hash<void*>, std::__ndk1::equal_to<void*>, true>, std::__ndk1::__unordered_map_equal<void*, std::__ndk1::__hash_value_type<void*, bool>, std::__ndk1::equal_to<void*>, std::__ndk1::hash<void*>, true>, std::__ndk1::allocator<std::__ndk1::__hash_value_type<void*, bool> > >::__emplace_unique_key_args<void*, std::__ndk1::piecewise_construct_t const&, std::__ndk1::tuple<void* const&>, std::__ndk1::tuple<> >(void* const&, std::__ndk1::piecewise_construct_t const&, std::__ndk1::tuple<void* const&>, std::__ndk1::tuple<>)
PUBLIC 37f3c 0 __udivti3
PUBLIC 37f48 0 __udivmodti4
PUBLIC m 38194 0 __eqtf2
PUBLIC 38234 0 __unordtf2
PUBLIC 3826c 0 fmt::v11::detail::write_loc(fmt::v11::basic_appender<char>, fmt::v11::loc_value, fmt::v11::format_specs const&, fmt::v11::detail::locale_ref)
PUBLIC 38500 0 fmt::v11::format_facet<std::__ndk1::locale>::~format_facet()
PUBLIC 3857c 0 fmt::v11::report_error(char const*)
PUBLIC 385cc 0 fmt::v11::format_error::runtime_error(char const*)
PUBLIC 385f8 0 fmt::v11::format_facet<std::__ndk1::locale>::do_put(fmt::v11::basic_appender<char>, fmt::v11::loc_value, fmt::v11::format_specs const&) const
PUBLIC 38db8 0 fmt::v11::detail::loc_writer<char>::~loc_writer()
PUBLIC 38e1c 0 fmt::v11::detail::vformat_to<char>(fmt::v11::detail::buffer<char>&, fmt::v11::basic_string_view<char>, fmt::v11::detail::vformat_args<char>::type, fmt::v11::detail::locale_ref)
PUBLIC 3938c 0 fmt::v11::detail::is_printable(unsigned int)
PUBLIC 395b4 0 fmt::v11::detail::dragonbox::to_decimal<float>(float)
PUBLIC 39890 0 fmt::v11::detail::dragonbox::to_decimal<double>(double)
PUBLIC 39dcc 0 fmt::v11::basic_memory_buffer<char, (unsigned long)500, std::__ndk1::allocator<char> >::grow(fmt::v11::detail::buffer<char>&, unsigned long)
PUBLIC 39e44 0 fmt::v11::format_facet<std::__ndk1::locale>::~format_facet()
PUBLIC 39ed0 0 fmt::v11::format_error::~format_error()
PUBLIC 39ef4 0 fmt::v11::detail::copy_noinline<char, char const*, fmt::v11::basic_appender<char> >(char const*, char const*, fmt::v11::basic_appender<char>)
PUBLIC 3a044 0 fmt::v11::detail::default_arg_formatter<char>::operator()<bool>(bool)
PUBLIC 3a0ac 0 fmt::v11::detail::default_arg_formatter<char>::operator()<char>(char)
PUBLIC 3a13c 0 fmt::v11::detail::default_arg_formatter<char>::operator()<float>(float)
PUBLIC 3a228 0 fmt::v11::detail::default_arg_formatter<char>::operator()<double>(double)
PUBLIC 3a314 0 fmt::v11::detail::default_arg_formatter<char>::operator()<char const*>(char const*)
PUBLIC 3a35c 0 fmt::v11::detail::default_arg_formatter<char>::operator()<void const*>(void const*)
PUBLIC 3a3f4 0 _ZN3fmt3v116detail5writeIcNS0_14basic_appenderIcEEiTnNSt6__ndk19enable_ifIXaaaasr11is_integralIT1_EE5valuentsr3std7is_sameIS7_bEE5valuentsr3std7is_sameIS7_T_EE5valueEiE4typeELi0EEET0_SB_S7_
PUBLIC 3a654 0 fmt::v11::detail::copy_noinline<char, char*, fmt::v11::basic_appender<char> >(char*, char*, fmt::v11::basic_appender<char>)
PUBLIC 3a7a4 0 _ZN3fmt3v116detail5writeIcNS0_14basic_appenderIcEEjTnNSt6__ndk19enable_ifIXaaaasr11is_integralIT1_EE5valuentsr3std7is_sameIS7_bEE5valuentsr3std7is_sameIS7_T_EE5valueEiE4typeELi0EEET0_SB_S7_
PUBLIC 3a984 0 _ZN3fmt3v116detail5writeIcNS0_14basic_appenderIcEExTnNSt6__ndk19enable_ifIXaaaasr11is_integralIT1_EE5valuentsr3std7is_sameIS7_bEE5valuentsr3std7is_sameIS7_T_EE5valueEiE4typeELi0EEET0_SB_S7_
PUBLIC 3ac08 0 _ZN3fmt3v116detail5writeIcNS0_14basic_appenderIcEEyTnNSt6__ndk19enable_ifIXaaaasr11is_integralIT1_EE5valuentsr3std7is_sameIS7_bEE5valuentsr3std7is_sameIS7_T_EE5valueEiE4typeELi0EEET0_SB_S7_
PUBLIC 3ae10 0 _ZN3fmt3v116detail5writeIcNS0_14basic_appenderIcEEnTnNSt6__ndk19enable_ifIXaaaasr11is_integralIT1_EE5valuentsr3std7is_sameIS7_bEE5valuentsr3std7is_sameIS7_T_EE5valueEiE4typeELi0EEET0_SB_S7_
PUBLIC 3b170 0 _ZN3fmt3v116detail5writeIcNS0_14basic_appenderIcEEoTnNSt6__ndk19enable_ifIXaaaasr11is_integralIT1_EE5valuentsr3std7is_sameIS7_bEE5valuentsr3std7is_sameIS7_T_EE5valueEiE4typeELi0EEET0_SB_S7_
PUBLIC 3b484 0 _ZN3fmt3v116detail5writeIcNS0_14basic_appenderIcEEbTnNSt6__ndk19enable_ifIXsr3std7is_sameIT1_bEE5valueEiE4typeELi0EEET0_SA_S7_RKNS0_12format_specsENS1_10locale_refE
PUBLIC 3b714 0 fmt::v11::detail::write_int_noinline<char, fmt::v11::basic_appender<char>, unsigned int>(fmt::v11::basic_appender<char>, fmt::v11::detail::write_int_arg<unsigned int>, fmt::v11::format_specs const&, fmt::v11::detail::locale_ref)
PUBLIC 3c4f0 0 fmt::v11::detail::fill<char, fmt::v11::basic_appender<char> >(fmt::v11::basic_appender<char>, unsigned long, fmt::v11::detail::fill_t const&)
PUBLIC 3c6c0 0 fmt::v11::detail::write_padded<char, (fmt::v11::align::type)1, fmt::v11::basic_appender<char>, fmt::v11::detail::write_char<char, fmt::v11::basic_appender<char> >(fmt::v11::basic_appender<char>, char, fmt::v11::format_specs const&)::{lambda(fmt::v11::basic_appender<char>&)#1}>(fmt::v11::basic_appender<char>, fmt::v11::format_specs const&, unsigned long, unsigned long, fmt::v11::detail::write_char<char, fmt::v11::basic_appender<char> >(fmt::v11::basic_appender<char>, char, fmt::v11::format_specs const&)::{lambda(fmt::v11::basic_appender<char>&)#1})
PUBLIC 3c8fc 0 fmt::v11::detail::write_escaped_cp<fmt::v11::basic_appender<char>, char>(fmt::v11::basic_appender<char>, fmt::v11::detail::find_escape_result<char> const&)
PUBLIC 3cc08 0 fmt::v11::detail::write_codepoint<(unsigned long)2, char, fmt::v11::basic_appender<char> >(fmt::v11::basic_appender<char>, char, unsigned int)
PUBLIC 3cd80 0 fmt::v11::detail::write_codepoint<(unsigned long)8, char, fmt::v11::basic_appender<char> >(fmt::v11::basic_appender<char>, char, unsigned int)
PUBLIC 3cef8 0 fmt::v11::detail::write_padded<char, (fmt::v11::align::type)1, fmt::v11::basic_appender<char>, fmt::v11::detail::write_nonfinite<char, fmt::v11::basic_appender<char> >(fmt::v11::basic_appender<char>, bool, fmt::v11::format_specs, fmt::v11::sign::type)::{lambda(fmt::v11::basic_appender<char>&)#1}>(fmt::v11::basic_appender<char>, fmt::v11::format_specs const&, unsigned long, unsigned long, fmt::v11::detail::write_nonfinite<char, fmt::v11::basic_appender<char> >(fmt::v11::basic_appender<char>, bool, fmt::v11::format_specs, fmt::v11::sign::type)::{lambda(fmt::v11::basic_appender<char>&)#1})
PUBLIC 3d138 0 fmt::v11::detail::do_write_float<char, fmt::v11::basic_appender<char>, fmt::v11::detail::dragonbox::decimal_fp<float>, fmt::v11::detail::digit_grouping<char> >(fmt::v11::basic_appender<char>, fmt::v11::detail::dragonbox::decimal_fp<float> const&, fmt::v11::format_specs const&, fmt::v11::detail::float_specs, fmt::v11::detail::locale_ref)
PUBLIC 3ddac 0 fmt::v11::detail::do_write_float<char, fmt::v11::basic_appender<char>, fmt::v11::detail::dragonbox::decimal_fp<float>, fmt::v11::detail::digit_grouping<char> >(fmt::v11::basic_appender<char>, fmt::v11::detail::dragonbox::decimal_fp<float> const&, fmt::v11::format_specs const&, fmt::v11::detail::float_specs, fmt::v11::detail::locale_ref)::{lambda(fmt::v11::basic_appender<char>(fmt::v11::basic_appender<char>))#1}::operator() const
PUBLIC 3df00 0 fmt::v11::detail::digit_grouping<char>::digit_grouping(fmt::v11::detail::locale_ref, bool)
PUBLIC 3e16c 0 fmt::v11::detail::digit_grouping<char>::~digit_grouping()
PUBLIC 3e1b0 0 fmt::v11::detail::write_exponent<char, fmt::v11::basic_appender<char> >(int, fmt::v11::basic_appender<char>)
PUBLIC 3e380 0 _ZN3fmt3v116detail17write_significandIcjTnNSt6__ndk19enable_ifIXsr3std11is_integralIT0_EE5valueEiE4typeELi0EEEPT_S9_S5_iiS8_
PUBLIC 3e4fc 0 fmt::v11::detail::digit_grouping<char>::apply<fmt::v11::basic_appender<char>, char>(fmt::v11::basic_appender<char>, fmt::v11::basic_string_view<char>) const
PUBLIC 3e8b4 0 fmt::v11::basic_memory_buffer<int, (unsigned long)500, std::__ndk1::allocator<int> >::grow(fmt::v11::detail::buffer<int>&, unsigned long)
PUBLIC 3e954 0 fmt::v11::detail::do_write_float<char, fmt::v11::basic_appender<char>, fmt::v11::detail::dragonbox::decimal_fp<double>, fmt::v11::detail::digit_grouping<char> >(fmt::v11::basic_appender<char>, fmt::v11::detail::dragonbox::decimal_fp<double> const&, fmt::v11::format_specs const&, fmt::v11::detail::float_specs, fmt::v11::detail::locale_ref)
PUBLIC 3f608 0 fmt::v11::detail::do_write_float<char, fmt::v11::basic_appender<char>, fmt::v11::detail::dragonbox::decimal_fp<double>, fmt::v11::detail::digit_grouping<char> >(fmt::v11::basic_appender<char>, fmt::v11::detail::dragonbox::decimal_fp<double> const&, fmt::v11::format_specs const&, fmt::v11::detail::float_specs, fmt::v11::detail::locale_ref)::{lambda(fmt::v11::basic_appender<char>(fmt::v11::basic_appender<char>))#1}::operator() const
PUBLIC 3f760 0 _ZN3fmt3v116detail17write_significandIcmTnNSt6__ndk19enable_ifIXsr3std11is_integralIT0_EE5valueEiE4typeELi0EEEPT_S9_S5_iiS8_
PUBLIC 3f8f0 0 fmt::v11::detail::write_float<char, fmt::v11::basic_appender<char>, long double>(fmt::v11::basic_appender<char>, long double, fmt::v11::format_specs, fmt::v11::detail::locale_ref)
PUBLIC 403ec 0 fmt::v11::detail::write_padded<char, (fmt::v11::align::type)2, fmt::v11::basic_appender<char>, fmt::v11::detail::write_bytes<char, (fmt::v11::align::type)2, fmt::v11::basic_appender<char> >(fmt::v11::basic_appender<char>, fmt::v11::basic_string_view<char>, fmt::v11::format_specs const&)::{lambda(fmt::v11::basic_appender<char>&)#1}>(fmt::v11::basic_appender<char>, fmt::v11::format_specs const&, unsigned long, unsigned long, fmt::v11::detail::write_bytes<char, (fmt::v11::align::type)2, fmt::v11::basic_appender<char> >(fmt::v11::basic_appender<char>, fmt::v11::basic_string_view<char>, fmt::v11::format_specs const&)::{lambda(fmt::v11::basic_appender<char>&)#1})
PUBLIC 405c8 0 fmt::v11::detail::format_dragon(fmt::v11::detail::basic_fp<unsigned __int128>, unsigned int, int, fmt::v11::detail::buffer<char>&, int&)
PUBLIC 419f8 0 fmt::v11::detail::bigint::operator<<=(int)
PUBLIC 41b1c 0 fmt::v11::detail::bigint::assign_pow10(int)
PUBLIC 42278 0 fmt::v11::detail::bigint::divmod_assign(fmt::v11::detail::bigint const&)
PUBLIC 42598 0 fmt::v11::basic_memory_buffer<unsigned int, (unsigned long)32, std::__ndk1::allocator<unsigned int> >::grow(fmt::v11::detail::buffer<unsigned int>&, unsigned long)
PUBLIC 42638 0 fmt::v11::detail::do_write_float<char, fmt::v11::basic_appender<char>, fmt::v11::detail::big_decimal_fp, fmt::v11::detail::digit_grouping<char> >(fmt::v11::basic_appender<char>, fmt::v11::detail::big_decimal_fp const&, fmt::v11::format_specs const&, fmt::v11::detail::float_specs, fmt::v11::detail::locale_ref)
PUBLIC 434e8 0 fmt::v11::detail::do_write_float<char, fmt::v11::basic_appender<char>, fmt::v11::detail::big_decimal_fp, fmt::v11::detail::digit_grouping<char> >(fmt::v11::basic_appender<char>, fmt::v11::detail::big_decimal_fp const&, fmt::v11::format_specs const&, fmt::v11::detail::float_specs, fmt::v11::detail::locale_ref)::{lambda(fmt::v11::basic_appender<char>(fmt::v11::basic_appender<char>))#1}::operator() const
PUBLIC 43648 0 fmt::v11::detail::write_padded<char, (fmt::v11::align::type)2, fmt::v11::basic_appender<char>, fmt::v11::detail::write_ptr<char, fmt::v11::basic_appender<char>, unsigned long>(fmt::v11::basic_appender<char>, unsigned long, fmt::v11::format_specs const*)::{lambda(fmt::v11::basic_appender<char>&)#1}>(fmt::v11::basic_appender<char>, fmt::v11::format_specs const&, unsigned long, unsigned long, fmt::v11::detail::write_ptr<char, fmt::v11::basic_appender<char>, unsigned long>(fmt::v11::basic_appender<char>, unsigned long, fmt::v11::format_specs const*)::{lambda(fmt::v11::basic_appender<char>&)#1})
PUBLIC 4385c 0 fmt::v11::detail::parse_replacement_field<char, fmt::v11::detail::vformat_to<char>(fmt::v11::detail::buffer<char>&, fmt::v11::basic_string_view<char>, fmt::v11::detail::vformat_args<char>::type, fmt::v11::detail::locale_ref)::format_handler&>(char const*, char const*, fmt::v11::detail::vformat_to<char>(fmt::v11::detail::buffer<char>&, fmt::v11::basic_string_view<char>, fmt::v11::detail::vformat_args<char>::type, fmt::v11::detail::locale_ref)::format_handler&)
PUBLIC 454f8 0 fmt::v11::detail::parse_dynamic_spec<char>(char const*, char const*, int&, fmt::v11::detail::arg_ref<char>&, fmt::v11::basic_format_parse_context<char>&)
PUBLIC 45788 0 fmt::v11::basic_format_args<fmt::v11::context>::get<char>(fmt::v11::basic_string_view<char>) const
PUBLIC 458e0 0 fmt::v11::detail::write_int_noinline<char, fmt::v11::basic_appender<char>, unsigned long>(fmt::v11::basic_appender<char>, fmt::v11::detail::write_int_arg<unsigned long>, fmt::v11::format_specs const&, fmt::v11::detail::locale_ref)
PUBLIC 46734 0 fmt::v11::detail::write_int_noinline<char, fmt::v11::basic_appender<char>, unsigned __int128>(fmt::v11::basic_appender<char>, fmt::v11::detail::write_int_arg<unsigned __int128>, fmt::v11::format_specs const&, fmt::v11::detail::locale_ref)
PUBLIC 4779c 0 _ZN3fmt3v116detail15format_hexfloatIdTnNSt6__ndk19enable_ifIXntsr16is_double_doubleIT_EE5valueEiE4typeELi0EEEvS5_NS0_12format_specsERNS1_6bufferIcEE
PUBLIC 47cbc 0 fmt::v11::detail::format_float<double>(double, int, fmt::v11::detail::float_specs, fmt::v11::detail::buffer<char>&)
PUBLIC 4865c 0 fmt::v11::detail::write<char, fmt::v11::basic_appender<char> >(fmt::v11::basic_appender<char>, fmt::v11::basic_string_view<char>, fmt::v11::format_specs const&)
PUBLIC 499c8 0 fmt::v11::detail::for_each_codepoint<fmt::v11::detail::compute_width(fmt::v11::basic_string_view<char>)::count_code_points>(fmt::v11::basic_string_view<char>, fmt::v11::detail::compute_width(fmt::v11::basic_string_view<char>)::count_code_points)::{lambda(char const*, char const*)#1}::operator()(char const*, char const*) const
PUBLIC 49b80 0 fmt::v11::detail::write_int<fmt::v11::basic_appender<char>, unsigned long, char>(fmt::v11::basic_appender<char>, unsigned long, unsigned int, fmt::v11::format_specs const&, fmt::v11::detail::digit_grouping<char> const&)
PUBLIC 4a0fc 0 fmt::v11::detail::write_int<fmt::v11::basic_appender<char>, unsigned __int128, char>(fmt::v11::basic_appender<char>, unsigned __int128, unsigned int, fmt::v11::format_specs const&, fmt::v11::detail::digit_grouping<char> const&)
PUBLIC 4a780 0 <.plt ELF section in itzkiba.better_progression.android64.so>
STACK CFI INIT 1cc70 10 .cfa: sp 0 +
STACK CFI INIT 1cc80 8 .cfa: sp 0 +
STACK CFI INIT 1cc88 8 .cfa: sp 0 +
STACK CFI INIT 1cc90 14 .cfa: sp 0 +
STACK CFI INIT 1cca4 1c .cfa: sp 0 +
STACK CFI INIT 1ccc0 10 .cfa: sp 0 +
STACK CFI INIT 1ccd0 134 .cfa: sp 0 +
STACK CFI INIT 1ce04 84 .cfa: sp 0 +
STACK CFI INIT 1ce88 f4 .cfa: sp 0 +
STACK CFI INIT 1cf7c a8 .cfa: sp 0 +
STACK CFI INIT 1d024 7c .cfa: sp 0 +
STACK CFI INIT 1d0a0 14 .cfa: sp 0 +
STACK CFI INIT 1d0b4 40 .cfa: sp 0 +
STACK CFI INIT 1d0f4 28 .cfa: sp 0 +
STACK CFI INIT 1d11c 190 .cfa: sp 0 +
STACK CFI INIT 1d2ac 2c8 .cfa: sp 0 +
STACK CFI INIT 1d574 8 .cfa: sp 0 +
STACK CFI INIT 1d57c 8 .cfa: sp 0 +
STACK CFI INIT 1d584 44 .cfa: sp 0 +
STACK CFI INIT 1d5c8 e8 .cfa: sp 0 +
STACK CFI INIT 1d6b0 e8 .cfa: sp 0 +
STACK CFI INIT 1d798 14 .cfa: sp 0 +
STACK CFI INIT 1d7ac 10 .cfa: sp 0 +
STACK CFI INIT 1d7bc 10 .cfa: sp 0 +
STACK CFI INIT 1d7cc f0 .cfa: sp 0 +
STACK CFI INIT 1d8bc 44 .cfa: sp 0 +
STACK CFI INIT 1d900 c .cfa: sp 0 +
STACK CFI INIT 1d90c c .cfa: sp 0 +
STACK CFI INIT 1d918 2c .cfa: sp 0 +
STACK CFI INIT 1d944 280 .cfa: sp 0 +
STACK CFI INIT 1dbc4 c .cfa: sp 0 +
STACK CFI INIT 1dbd0 120 .cfa: sp 0 +
STACK CFI INIT 1dcf0 488 .cfa: sp 0 +
STACK CFI INIT 1e178 c48 .cfa: sp 0 +
STACK CFI INIT 1edc0 134 .cfa: sp 0 +
STACK CFI INIT 1eef4 210 .cfa: sp 0 +
STACK CFI INIT 1f104 38c .cfa: sp 0 +
STACK CFI INIT 1f490 1c8 .cfa: sp 0 +
STACK CFI INIT 1f658 9bc .cfa: sp 0 +
STACK CFI INIT 20014 2d4 .cfa: sp 0 +
STACK CFI INIT 202e8 134 .cfa: sp 0 +
STACK CFI INIT 2041c 120 .cfa: sp 0 +
STACK CFI INIT 2053c 1c8 .cfa: sp 0 +
STACK CFI INIT 20704 168 .cfa: sp 0 +
STACK CFI INIT 2086c fc .cfa: sp 0 +
STACK CFI INIT 20968 30 .cfa: sp 0 +
STACK CFI INIT 20ad0 30 .cfa: sp 0 +
STACK CFI INIT 20b00 98 .cfa: sp 0 +
STACK CFI INIT 20b98 59c .cfa: sp 0 +
STACK CFI INIT 21134 8c .cfa: sp 0 +
STACK CFI INIT 211c0 30 .cfa: sp 0 +
STACK CFI INIT 21350 50 .cfa: sp 0 +
STACK CFI 21354 .cfa: sp 32 +
STACK CFI 2135c .cfa: x29 32 + x19: .cfa -16 + ^ .ra: .cfa -24 + ^ x29: .cfa -32 + ^
STACK CFI 21374 .cfa: sp 32 +
STACK CFI 2137c .cfa: sp 0 +
STACK CFI 21380 .cfa: x29 32 +
STACK CFI 21394 .cfa: sp 32 +
STACK CFI 2139c .cfa: sp 0 +
STACK CFI INIT 213a0 9c .cfa: sp 0 +
STACK CFI 213a4 .cfa: sp 32 +
STACK CFI 213ac .cfa: x29 32 + x19: .cfa -8 + ^ x20: .cfa -16 + ^ .ra: .cfa -24 + ^ x29: .cfa -32 + ^
STACK CFI 21430 .cfa: sp 32 +
STACK CFI 21438 .cfa: sp 0 +
STACK CFI INIT 218bc 1c .cfa: sp 0 +
STACK CFI INIT 21d58 1c .cfa: sp 0 +
STACK CFI INIT 21d74 4 .cfa: sp 0 +
STACK CFI INIT 21f44 a4 .cfa: sp 0 +
STACK CFI 21f48 .cfa: sp 32 +
STACK CFI 21f50 .cfa: x29 32 + x19: .cfa -8 + ^ x20: .cfa -16 + ^ .ra: .cfa -24 + ^ x29: .cfa -32 + ^
STACK CFI 21fdc .cfa: sp 32 +
STACK CFI 21fe4 .cfa: sp 0 +
STACK CFI INIT 21fe8 104 .cfa: sp 0 +
STACK CFI 21fec .cfa: sp 64 +
STACK CFI 21ffc .cfa: x29 64 + x19: .cfa -8 + ^ x20: .cfa -16 + ^ x21: .cfa -24 + ^ x22: .cfa -32 + ^ x23: .cfa -48 + ^ .ra: .cfa -56 + ^ x29: .cfa -64 + ^
STACK CFI 22058 .cfa: sp 64 +
STACK CFI 22068 .cfa: sp 0 +
STACK CFI 2206c .cfa: x29 64 +
STACK CFI 22088 .cfa: sp 64 +
STACK CFI 22098 .cfa: sp 0 +
STACK CFI 2209c .cfa: x29 64 +
STACK CFI 220d8 .cfa: sp 64 +
STACK CFI 220e8 .cfa: sp 0 +
STACK CFI INIT 220ec 34 .cfa: sp 0 +
STACK CFI 220f0 .cfa: sp 16 +
STACK CFI 220f4 .cfa: x29 16 + .ra: .cfa -8 + ^ x29: .cfa -16 + ^
STACK CFI INIT 22120 24 .cfa: sp 0 +
STACK CFI 22124 .cfa: sp 32 +
STACK CFI 2212c .cfa: x29 32 + x19: .cfa -16 + ^ .ra: .cfa -24 + ^ x29: .cfa -32 + ^
STACK CFI 22138 .cfa: sp 32 +
STACK CFI 22140 .cfa: sp 0 +
STACK CFI INIT 22360 50 .cfa: sp 0 +
STACK CFI 22364 .cfa: sp 32 +
STACK CFI 2236c .cfa: x29 32 + x19: .cfa -16 + ^ .ra: .cfa -24 + ^ x29: .cfa -32 + ^
STACK CFI 22384 .cfa: sp 32 +
STACK CFI 2238c .cfa: sp 0 +
STACK CFI 22390 .cfa: x29 32 +
STACK CFI 223a4 .cfa: sp 32 +
STACK CFI 223ac .cfa: sp 0 +
STACK CFI INIT 223b0 50 .cfa: sp 0 +
STACK CFI 223b4 .cfa: sp 32 +
STACK CFI 223bc .cfa: x29 32 + x19: .cfa -16 + ^ .ra: .cfa -24 + ^ x29: .cfa -32 + ^
STACK CFI 223d4 .cfa: sp 32 +
STACK CFI 223dc .cfa: sp 0 +
STACK CFI 223e0 .cfa: x29 32 +
STACK CFI 223f4 .cfa: sp 32 +
STACK CFI 223fc .cfa: sp 0 +
STACK CFI INIT 22400 34 .cfa: sp 0 +
STACK CFI 22404 .cfa: sp 32 +
STACK CFI 2240c .cfa: x29 32 + x19: .cfa -16 + ^ .ra: .cfa -24 + ^ x29: .cfa -32 + ^
STACK CFI INIT 22434 10 .cfa: sp 0 +
STACK CFI 22438 .cfa: sp 16 +
STACK CFI 2243c .cfa: x29 16 + .ra: .cfa -8 + ^ x29: .cfa -16 + ^
STACK CFI INIT 22444 5c .cfa: sp 0 +
STACK CFI 22448 .cfa: sp 32 +
STACK CFI 22450 .cfa: x29 32 + x19: .cfa -16 + ^ .ra: .cfa -24 + ^ x29: .cfa -32 + ^
STACK CFI 22474 .cfa: sp 32 +
STACK CFI 2247c .cfa: sp 0 +
STACK CFI 22480 .cfa: x29 32 +
STACK CFI 22494 .cfa: sp 32 +
STACK CFI 2249c .cfa: sp 0 +
STACK CFI INIT 224a0 6c .cfa: sp 0 +
STACK CFI 224a4 .cfa: sp 32 +
STACK CFI 224ac .cfa: x29 32 + x19: .cfa -8 + ^ x20: .cfa -16 + ^ .ra: .cfa -24 + ^ x29: .cfa -32 + ^
STACK CFI 224d8 .cfa: sp 32 +
STACK CFI 224e0 .cfa: sp 0 +
STACK CFI 224e4 .cfa: x29 32 +
STACK CFI 22500 .cfa: sp 32 +
STACK CFI 22508 .cfa: sp 0 +
STACK CFI INIT 2250c 58 .cfa: sp 0 +
STACK CFI 22510 .cfa: sp 32 +
STACK CFI 22518 .cfa: x29 32 + x19: .cfa -8 + ^ x20: .cfa -16 + ^ .ra: .cfa -24 + ^ x29: .cfa -32 + ^
STACK CFI 22558 .cfa: sp 32 +
STACK CFI 22560 .cfa: sp 0 +
STACK CFI INIT 22564 4c .cfa: sp 0 +
STACK CFI 22568 .cfa: sp 32 +
STACK CFI 22570 .cfa: x29 32 + x19: .cfa -8 + ^ x20: .cfa -16 + ^ .ra: .cfa -24 + ^ x29: .cfa -32 + ^
STACK CFI 225a4 .cfa: sp 32 +
STACK CFI 225ac .cfa: sp 0 +
STACK CFI INIT 225b0 50 .cfa: sp 0 +
STACK CFI 225b4 .cfa: sp 32 +
STACK CFI 225bc .cfa: x29 32 + x19: .cfa -16 + ^ .ra: .cfa -24 + ^ x29: .cfa -32 + ^
STACK CFI 225d4 .cfa: sp 32 +
STACK CFI 225dc .cfa: sp 0 +
STACK CFI 225e0 .cfa: x29 32 +
STACK CFI 225f4 .cfa: sp 32 +
STACK CFI 225fc .cfa: sp 0 +
STACK CFI INIT 22600 60 .cfa: sp 0 +
STACK CFI 22604 .cfa: sp 32 +
STACK CFI 2260c .cfa: x29 32 + x19: .cfa -8 + ^ x20: .cfa -16 + ^ .ra: .cfa -24 + ^ x29: .cfa -32 + ^
STACK CFI 2262c .cfa: sp 32 +
STACK CFI 22634 .cfa: sp 0 +
STACK CFI 22638 .cfa: x29 32 +
STACK CFI 22654 .cfa: sp 32 +
STACK CFI 2265c .cfa: sp 0 +
STACK CFI INIT 22660 8 .cfa: sp 0 +
STACK CFI INIT 22668 1c .cfa: sp 0 +
STACK CFI INIT 22684 c .cfa: sp 0 +
STACK CFI INIT 22860 60 .cfa: sp 0 +
STACK CFI 22864 .cfa: sp 32 +
STACK CFI 2286c .cfa: x29 32 + x19: .cfa -8 + ^ x20: .cfa -16 + ^ .ra: .cfa -24 + ^ x29: .cfa -32 + ^
STACK CFI 2288c .cfa: sp 32 +
STACK CFI 22894 .cfa: sp 0 +
STACK CFI 22898 .cfa: x29 32 +
STACK CFI 228b4 .cfa: sp 32 +
STACK CFI 228bc .cfa: sp 0 +
STACK CFI INIT 228c0 70 .cfa: sp 0 +
STACK CFI 228c4 .cfa: sp 32 +
STACK CFI 228cc .cfa: x29 32 + x19: .cfa -8 + ^ x20: .cfa -16 + ^ .ra: .cfa -24 + ^ x29: .cfa -32 + ^
STACK CFI 228f4 .cfa: sp 32 +
STACK CFI 228fc .cfa: sp 0 +
STACK CFI 22900 .cfa: x29 32 +
STACK CFI 22924 .cfa: sp 32 +
STACK CFI 2292c .cfa: sp 0 +
STACK CFI INIT 22930 5c .cfa: sp 0 +
STACK CFI 22934 .cfa: sp 32 +
STACK CFI 2293c .cfa: x29 32 + x19: .cfa -16 + ^ .ra: .cfa -24 + ^ x29: .cfa -32 + ^
STACK CFI 22960 .cfa: sp 32 +
STACK CFI 22968 .cfa: sp 0 +
STACK CFI 2296c .cfa: x29 32 +
STACK CFI 22980 .cfa: sp 32 +
STACK CFI 22988 .cfa: sp 0 +
STACK CFI INIT 2298c 6c .cfa: sp 0 +
STACK CFI 22990 .cfa: sp 32 +
STACK CFI 22998 .cfa: x29 32 + x19: .cfa -8 + ^ x20: .cfa -16 + ^ .ra: .cfa -24 + ^ x29: .cfa -32 + ^
STACK CFI 229c4 .cfa: sp 32 +
STACK CFI 229cc .cfa: sp 0 +
STACK CFI 229d0 .cfa: x29 32 +
STACK CFI 229ec .cfa: sp 32 +
STACK CFI 229f4 .cfa: sp 0 +
STACK CFI INIT 229f8 58 .cfa: sp 0 +
STACK CFI 229fc .cfa: sp 32 +
STACK CFI 22a04 .cfa: x29 32 + x19: .cfa -8 + ^ x20: .cfa -16 + ^ .ra: .cfa -24 + ^ x29: .cfa -32 + ^
STACK CFI 22a44 .cfa: sp 32 +
STACK CFI 22a4c .cfa: sp 0 +
STACK CFI INIT 22a50 4c .cfa: sp 0 +
STACK CFI 22a54 .cfa: sp 32 +
STACK CFI 22a5c .cfa: x29 32 + x19: .cfa -8 + ^ x20: .cfa -16 + ^ .ra: .cfa -24 + ^ x29: .cfa -32 + ^
STACK CFI 22a90 .cfa: sp 32 +
STACK CFI 22a98 .cfa: sp 0 +
STACK CFI INIT 22a9c 50 .cfa: sp 0 +
STACK CFI 22aa0 .cfa: sp 32 +
STACK CFI 22aa8 .cfa: x29 32 + x19: .cfa -16 + ^ .ra: .cfa -24 + ^ x29: .cfa -32 + ^
STACK CFI 22ac0 .cfa: sp 32 +
STACK CFI 22ac8 .cfa: sp 0 +
STACK CFI 22acc .cfa: x29 32 +
STACK CFI 22ae0 .cfa: sp 32 +
STACK CFI 22ae8 .cfa: sp 0 +
STACK CFI INIT 22aec 60 .cfa: sp 0 +
STACK CFI 22af0 .cfa: sp 32 +
STACK CFI 22af8 .cfa: x29 32 + x19: .cfa -8 + ^ x20: .cfa -16 + ^ .ra: .cfa -24 + ^ x29: .cfa -32 + ^
STACK CFI 22b18 .cfa: sp 32 +
STACK CFI 22b20 .cfa: sp 0 +
STACK CFI 22b24 .cfa: x29 32 +
STACK CFI 22b40 .cfa: sp 32 +
STACK CFI 22b48 .cfa: sp 0 +
STACK CFI INIT 22b4c 8 .cfa: sp 0 +
STACK CFI INIT 22b54 1c .cfa: sp 0 +
STACK CFI INIT 22b70 c .cfa: sp 0 +
STACK CFI INIT 23368 50 .cfa: sp 0 +
STACK CFI 2336c .cfa: sp 32 +
STACK CFI 23374 .cfa: x29 32 + x19: .cfa -16 + ^ .ra: .cfa -24 + ^ x29: .cfa -32 + ^
STACK CFI 2338c .cfa: sp 32 +
STACK CFI 23394 .cfa: sp 0 +
STACK CFI 23398 .cfa: x29 32 +
STACK CFI 233ac .cfa: sp 32 +
STACK CFI 233b4 .cfa: sp 0 +
STACK CFI INIT 2342c 7c .cfa: sp 0 +
STACK CFI 23430 .cfa: sp 48 +
STACK CFI 2343c .cfa: x29 48 + x19: .cfa -8 + ^ x20: .cfa -16 + ^ x21: .cfa -32 + ^ .ra: .cfa -40 + ^ x29: .cfa -48 + ^
STACK CFI 23488 .cfa: sp 48 +
STACK CFI 23494 .cfa: sp 0 +
STACK CFI 23498 .cfa: sp 48 +
STACK CFI 234a4 .cfa: sp 0 +
STACK CFI INIT 234a8 4 .cfa: sp 0 +
STACK CFI INIT 23600 34 .cfa: sp 0 +
STACK CFI 23604 .cfa: sp 16 +
STACK CFI 23608 .cfa: x29 16 + .ra: .cfa -8 + ^ x29: .cfa -16 + ^
STACK CFI INIT 23760 80 .cfa: sp 0 +
STACK CFI 23764 .cfa: sp 48 +
STACK CFI 23770 .cfa: x29 48 + x19: .cfa -8 + ^ x20: .cfa -16 + ^ x21: .cfa -32 + ^ .ra: .cfa -40 + ^ x29: .cfa -48 + ^
STACK CFI 237d0 .cfa: sp 48 +
STACK CFI 237dc .cfa: sp 0 +
STACK CFI INIT 237e0 24 .cfa: sp 0 +
STACK CFI 237e4 .cfa: sp 32 +
STACK CFI 237ec .cfa: x29 32 + x19: .cfa -16 + ^ .ra: .cfa -24 + ^ x29: .cfa -32 + ^
STACK CFI 237f8 .cfa: sp 32 +
STACK CFI 23800 .cfa: sp 0 +
STACK CFI INIT 23b84 14 .cfa: sp 0 +
STACK CFI 23b88 .cfa: sp 16 +
STACK CFI 23b8c .cfa: x29 16 + .ra: .cfa -8 + ^ x29: .cfa -16 + ^
STACK CFI INIT 23be8 30 .cfa: sp 0 +
STACK CFI 23bec .cfa: sp 32 +
STACK CFI 23bf4 .cfa: x29 32 + x19: .cfa -16 + ^ .ra: .cfa -24 + ^ x29: .cfa -32 + ^
STACK CFI 23c0c .cfa: sp 32 +
STACK CFI 23c14 .cfa: sp 0 +
STACK CFI INIT 23d90 148 .cfa: sp 0 +
STACK CFI 23d94 .cfa: sp 48 +
STACK CFI 23da0 .cfa: x29 48 + x19: .cfa -8 + ^ x20: .cfa -16 + ^ x21: .cfa -32 + ^ .ra: .cfa -40 + ^ x29: .cfa -48 + ^
STACK CFI 23ec8 .cfa: sp 48 +
STACK CFI 23ed4 .cfa: sp 0 +
STACK CFI INIT 24100 80 .cfa: sp 0 +
STACK CFI 24104 .cfa: sp 48 +
STACK CFI 24110 .cfa: x29 48 + x19: .cfa -8 + ^ x20: .cfa -16 + ^ x21: .cfa -24 + ^ x22: .cfa -32 + ^ .ra: .cfa -40 + ^ x29: .cfa -48 + ^
STACK CFI 24128 .cfa: sp 48 +
STACK CFI 24134 .cfa: sp 0 +
STACK CFI 24138 .cfa: x29 48 +
STACK CFI 24168 .cfa: sp 48 +
STACK CFI 24174 .cfa: sp 0 +
STACK CFI 24178 .cfa: x29 48 +
STACK CFI INIT 24180 68 .cfa: sp 0 +
STACK CFI 24184 .cfa: sp 32 +
STACK CFI 2418c .cfa: x29 32 + x19: .cfa -8 + ^ x20: .cfa -16 + ^ .ra: .cfa -24 + ^ x29: .cfa -32 + ^
STACK CFI 241a4 .cfa: sp 32 +
STACK CFI 241ac .cfa: sp 0 +
STACK CFI 241b0 .cfa: x29 32 +
STACK CFI 241dc .cfa: sp 32 +
STACK CFI 241e4 .cfa: sp 0 +
STACK CFI INIT 241e8 14 .cfa: sp 0 +
STACK CFI 241ec .cfa: sp 16 +
STACK CFI 241f0 .cfa: x29 16 + .ra: .cfa -8 + ^ x29: .cfa -16 + ^
STACK CFI INIT 241fc 4 .cfa: sp 0 +
STACK CFI INIT 24200 14 .cfa: sp 0 +
STACK CFI INIT 24214 120 .cfa: sp 0 +
STACK CFI 24218 .cfa: sp 64 +
STACK CFI 24228 .cfa: x29 64 + x19: .cfa -8 + ^ x20: .cfa -16 + ^ x21: .cfa -24 + ^ x22: .cfa -32 + ^ x23: .cfa -40 + ^ x24: .cfa -48 + ^ .ra: .cfa -56 + ^ x29: .cfa -64 + ^
STACK CFI 24320 .cfa: sp 64 +
STACK CFI 24330 .cfa: sp 0 +
STACK CFI INIT 24334 d4 .cfa: sp 0 +
STACK CFI 24338 .cfa: sp 48 +
STACK CFI 24344 .cfa: x29 48 + x19: .cfa -8 + ^ x20: .cfa -16 + ^ x21: .cfa -32 + ^ .ra: .cfa -40 + ^ x29: .cfa -48 + ^
STACK CFI 243d4 .cfa: sp 48 +
STACK CFI 243e0 .cfa: sp 0 +
STACK CFI 243e4 .cfa: x29 48 +
STACK CFI INIT 24408 3c8 .cfa: sp 0 +
STACK CFI INIT 247d0 8c .cfa: sp 0 +
STACK CFI 247d8 .cfa: sp 32 +
STACK CFI 247e0 .cfa: x29 32 + x19: .cfa -8 + ^ x20: .cfa -16 + ^ .ra: .cfa -24 + ^ x29: .cfa -32 + ^
STACK CFI 24828 .cfa: sp 32 +
STACK CFI 24830 .cfa: sp 0 +
STACK CFI 24838 .cfa: x29 32 +
STACK CFI INIT 2485c 2c .cfa: sp 0 +
STACK CFI 24860 .cfa: sp 32 +
STACK CFI 24868 .cfa: x29 32 + x19: .cfa -16 + ^ .ra: .cfa -24 + ^ x29: .cfa -32 + ^
STACK CFI 2487c .cfa: sp 32 +
STACK CFI 24884 .cfa: sp 0 +
STACK CFI INIT 24888 20 .cfa: sp 0 +
STACK CFI 2488c .cfa: sp 16 +
STACK CFI 24890 .cfa: x29 16 + .ra: .cfa -8 + ^ x29: .cfa -16 + ^
STACK CFI 248a0 .cfa: sp 16 +
STACK CFI 248a4 .cfa: sp 0 +
STACK CFI INIT 248a8 50 .cfa: sp 0 +
STACK CFI 248ac .cfa: sp 32 +
STACK CFI 248b4 .cfa: x29 32 + x19: .cfa -16 + ^ .ra: .cfa -24 + ^ x29: .cfa -32 + ^
STACK CFI 248cc .cfa: sp 32 +
STACK CFI 248d4 .cfa: sp 0 +
STACK CFI 248d8 .cfa: x29 32 +
STACK CFI 248ec .cfa: sp 32 +
STACK CFI 248f4 .cfa: sp 0 +
STACK CFI INIT 248f8 64 .cfa: sp 0 +
STACK CFI 248fc .cfa: sp 32 +
STACK CFI 24904 .cfa: x29 32 + x19: .cfa -16 + ^ .ra: .cfa -24 + ^ x29: .cfa -32 + ^
STACK CFI 24930 .cfa: sp 32 +
STACK CFI 24938 .cfa: sp 0 +
STACK CFI 2493c .cfa: x29 32 +
STACK CFI 24950 .cfa: sp 32 +
STACK CFI 24958 .cfa: sp 0 +
STACK CFI INIT 2495c 14 .cfa: sp 0 +
STACK CFI 24960 .cfa: sp 16 +
STACK CFI 24964 .cfa: x29 16 + .ra: .cfa -8 + ^ x29: .cfa -16 + ^
STACK CFI INIT 24970 178 .cfa: sp 0 +
STACK CFI 24974 .cfa: sp 80 +
STACK CFI 24988 .cfa: x29 80 + x19: .cfa -8 + ^ x20: .cfa -16 + ^ x21: .cfa -24 + ^ x22: .cfa -32 + ^ x23: .cfa -40 + ^ x24: .cfa -48 + ^ x25: .cfa -56 + ^ x26: .cfa -64 + ^ .ra: .cfa -72 + ^ x29: .cfa -80 + ^
STACK CFI 24ad0 .cfa: sp 80 +
STACK CFI 24ae4 .cfa: sp 0 +
STACK CFI INIT 24ae8 1b0 .cfa: sp 0 +
STACK CFI INIT 25020 4 .cfa: sp 0 +
STACK CFI INIT 25274 4 .cfa: sp 0 +
STACK CFI INIT 25278 4 .cfa: sp 0 +
STACK CFI INIT 2527c 48 .cfa: sp 0 +
STACK CFI 25280 .cfa: sp 32 +
STACK CFI 25288 .cfa: x29 32 + x19: .cfa -16 + ^ .ra: .cfa -24 + ^ x29: .cfa -32 + ^
STACK CFI 252b8 .cfa: sp 32 +
STACK CFI 252c0 .cfa: sp 0 +
STACK CFI INIT 252c4 28 .cfa: sp 0 +
STACK CFI INIT 252ec 4 .cfa: sp 0 +
STACK CFI INIT 252f0 4 .cfa: sp 0 +
STACK CFI INIT 252f4 1e0 .cfa: sp 0 +
STACK CFI 252f8 .cfa: sp 48 +
STACK CFI 25304 .cfa: x29 48 + x19: .cfa -8 + ^ x20: .cfa -16 + ^ x21: .cfa -24 + ^ x22: .cfa -32 + ^ .ra: .cfa -40 + ^ x29: .cfa -48 + ^
STACK CFI 25470 .cfa: sp 48 +
STACK CFI 2547c .cfa: sp 0 +
STACK CFI 25480 .cfa: x29 48 +
STACK CFI 254ac .cfa: sp 48 +
STACK CFI 254b8 .cfa: sp 0 +
STACK CFI 254bc .cfa: x29 48 +
STACK CFI 254c4 .cfa: sp 48 +
STACK CFI 254d0 .cfa: sp 0 +
STACK CFI INIT 254d4 1c .cfa: sp 0 +
STACK CFI INIT 254f0 c .cfa: sp 0 +
STACK CFI INIT 25d90 1c .cfa: sp 0 +
STACK CFI INIT 26130 4 .cfa: sp 0 +
STACK CFI INIT 26134 7c .cfa: sp 0 +
STACK CFI 26138 .cfa: sp 32 +
STACK CFI 26140 .cfa: x29 32 + x19: .cfa -8 + ^ x20: .cfa -16 + ^ .ra: .cfa -24 + ^ x29: .cfa -32 + ^
STACK CFI 26198 .cfa: sp 32 +
STACK CFI 261a0 .cfa: sp 0 +
STACK CFI 261a4 .cfa: sp 32 +
STACK CFI 261ac .cfa: sp 0 +
STACK CFI INIT 26318 4 .cfa: sp 0 +
STACK CFI INIT 2631c 14 .cfa: sp 0 +
STACK CFI INIT 27cbc 5b4 .cfa: sp 0 +
STACK CFI INIT 286f4 98 .cfa: sp 0 +
STACK CFI 286f8 .cfa: sp 304 +
STACK CFI 28704 .cfa: x29 32 + x19: .cfa -8 + ^ x28: .cfa -16 + ^ .ra: .cfa -24 + ^ x29: .cfa -32 + ^
STACK CFI 28778 .cfa: sp 304 +
STACK CFI 28784 .cfa: sp 0 +
STACK CFI 28788 .cfa: x29 32 +
STACK CFI INIT 2878c 204 .cfa: sp 0 +
STACK CFI 28790 .cfa: sp 80 +
STACK CFI 287a4 .cfa: x29 80 + x19: .cfa -8 + ^ x20: .cfa -16 + ^ x21: .cfa -24 + ^ x22: .cfa -32 + ^ x23: .cfa -40 + ^ x24: .cfa -48 + ^ x25: .cfa -56 + ^ x26: .cfa -64 + ^ .ra: .cfa -72 + ^ x29: .cfa -80 + ^
STACK CFI 28938 .cfa: sp 80 +
STACK CFI 2894c .cfa: sp 0 +
STACK CFI 28950 .cfa: x29 80 +
STACK CFI INIT 28fd4 4 .cfa: sp 0 +
STACK CFI INIT 28fd8 14 .cfa: sp 0 +
STACK CFI 28fdc .cfa: sp 16 +
STACK CFI 28fe0 .cfa: x29 16 + .ra: .cfa -8 + ^ x29: .cfa -16 + ^
STACK CFI INIT 28fec 14 .cfa: sp 0 +
STACK CFI 28ff0 .cfa: sp 16 +
STACK CFI 28ff4 .cfa: x29 16 + .ra: .cfa -8 + ^ x29: .cfa -16 + ^
STACK CFI INIT 29000 c .cfa: sp 0 +
STACK CFI 29004 .cfa: sp 16 +
STACK CFI 29008 .cfa: x29 16 + .ra: .cfa -8 + ^ x29: .cfa -16 + ^
STACK CFI INIT 2905c 30 .cfa: sp 0 +
STACK CFI 29060 .cfa: sp 32 +
STACK CFI 29068 .cfa: x29 32 + x19: .cfa -16 + ^ .ra: .cfa -24 + ^ x29: .cfa -32 + ^
STACK CFI 29080 .cfa: sp 32 +
STACK CFI 29088 .cfa: sp 0 +
STACK CFI INIT 2908c c .cfa: sp 0 +
STACK CFI 29090 .cfa: sp 16 +
STACK CFI 29094 .cfa: x29 16 + .ra: .cfa -8 + ^ x29: .cfa -16 + ^
STACK CFI INIT 29098 4 .cfa: sp 0 +
STACK CFI INIT 2909c 4 .cfa: sp 0 +
STACK CFI INIT 290a0 38 .cfa: sp 0 +
STACK CFI 290a4 .cfa: sp 32 +
STACK CFI 290ac .cfa: x29 32 + x19: .cfa -16 + ^ .ra: .cfa -24 + ^ x29: .cfa -32 + ^
STACK CFI 290cc .cfa: sp 32 +
STACK CFI 290d4 .cfa: sp 0 +
STACK CFI INIT 290d8 18 .cfa: sp 0 +
STACK CFI INIT 290f0 4 .cfa: sp 0 +
STACK CFI INIT 290f4 4 .cfa: sp 0 +
STACK CFI INIT 290f8 10 .cfa: sp 0 +
STACK CFI INIT 29108 1c .cfa: sp 0 +
STACK CFI INIT 29124 c .cfa: sp 0 +
STACK CFI INIT 29130 164 .cfa: sp 0 +
STACK CFI 29134 .cfa: sp 64 +
STACK CFI 29144 .cfa: x29 64 + x19: .cfa -8 + ^ x20: .cfa -16 + ^ x21: .cfa -24 + ^ x22: .cfa -32 + ^ x23: .cfa -40 + ^ x24: .cfa -48 + ^ .ra: .cfa -56 + ^ x29: .cfa -64 + ^
STACK CFI 29280 .cfa: sp 64 +
STACK CFI 29290 .cfa: sp 0 +
STACK CFI INIT 29af4 7c .cfa: sp 0 +
STACK CFI 29af8 .cfa: sp 48 +
STACK CFI 29b04 .cfa: x29 48 + x19: .cfa -8 + ^ x20: .cfa -16 + ^ x21: .cfa -32 + ^ .ra: .cfa -40 + ^ x29: .cfa -48 + ^
STACK CFI 29b60 .cfa: sp 48 +
STACK CFI 29b6c .cfa: sp 0 +
STACK CFI INIT 29b70 8c .cfa: sp 0 +
STACK CFI 29b74 .cfa: sp 48 +
STACK CFI 29b80 .cfa: x29 48 + x19: .cfa -8 + ^ x20: .cfa -16 + ^ x21: .cfa -32 + ^ .ra: .cfa -40 + ^ x29: .cfa -48 + ^
STACK CFI 29b98 .cfa: sp 48 +
STACK CFI 29ba4 .cfa: sp 0 +
STACK CFI 29ba8 .cfa: x29 48 +
STACK CFI 29bec .cfa: sp 48 +
STACK CFI 29bf8 .cfa: sp 0 +
STACK CFI INIT 29bfc ac .cfa: sp 0 +
STACK CFI 29c00 .cfa: sp 64 +
STACK CFI 29c10 .cfa: x29 64 + x19: .cfa -8 + ^ x20: .cfa -16 + ^ x21: .cfa -24 + ^ x22: .cfa -32 + ^ x23: .cfa -48 + ^ .ra: .cfa -56 + ^ x29: .cfa -64 + ^
STACK CFI 29c8c .cfa: sp 64 +
STACK CFI 29c9c .cfa: sp 0 +
STACK CFI 29ca0 .cfa: x29 64 +
STACK CFI INIT 29ca8 110 .cfa: sp 0 +
STACK CFI 29cac .cfa: sp 64 +
STACK CFI 29cbc .cfa: x29 64 + x19: .cfa -8 + ^ x20: .cfa -16 + ^ x21: .cfa -24 + ^ x22: .cfa -32 + ^ x23: .cfa -40 + ^ x24: .cfa -48 + ^ .ra: .cfa -56 + ^ x29: .cfa -64 + ^
STACK CFI 29d9c .cfa: sp 64 +
STACK CFI 29dac .cfa: sp 0 +
STACK CFI 29db0 .cfa: x29 64 +
STACK CFI INIT 29f50 4 .cfa: sp 0 +
STACK CFI INIT 29f54 4 .cfa: sp 0 +
STACK CFI INIT 29f58 24 .cfa: sp 0 +
STACK CFI 29f5c .cfa: sp 16 +
STACK CFI 29f60 .cfa: x29 16 + .ra: .cfa -8 + ^ x29: .cfa -16 + ^
STACK CFI 29f74 .cfa: sp 16 +
STACK CFI 29f78 .cfa: sp 0 +
STACK CFI INIT 29f7c 10 .cfa: sp 0 +
STACK CFI INIT 29f8c 4 .cfa: sp 0 +
STACK CFI INIT 29f90 4 .cfa: sp 0 +
STACK CFI INIT 2afc8 1c .cfa: sp 0 +
STACK CFI INIT 2afe4 c .cfa: sp 0 +
STACK CFI INIT 2b210 14 .cfa: sp 0 +
STACK CFI INIT 2b224 14 .cfa: sp 0 +
STACK CFI INIT 2b2ac 4 .cfa: sp 0 +
STACK CFI INIT 2b2b0 14 .cfa: sp 0 +
STACK CFI INIT 2b2c4 4 .cfa: sp 0 +
STACK CFI INIT 2b2c8 14 .cfa: sp 0 +
STACK CFI INIT 2b2dc 4 .cfa: sp 0 +
STACK CFI INIT 2b2e0 14 .cfa: sp 0 +
STACK CFI INIT 2b2f4 4 .cfa: sp 0 +
STACK CFI INIT 2b2f8 40 .cfa: sp 0 +
STACK CFI 2b2fc .cfa: sp 32 +
STACK CFI 2b304 .cfa: x29 32 + x19: .cfa -16 + ^ .ra: .cfa -24 + ^ x29: .cfa -32 + ^
STACK CFI 2b32c .cfa: sp 32 +
STACK CFI 2b334 .cfa: sp 0 +
STACK CFI INIT 2b338 20 .cfa: sp 0 +
STACK CFI INIT 2b358 4 .cfa: sp 0 +
STACK CFI INIT 2b35c 4 .cfa: sp 0 +
STACK CFI INIT 2b360 19c .cfa: sp 0 +
STACK CFI 2b364 .cfa: sp 48 +
STACK CFI 2b370 .cfa: x29 48 + x19: .cfa -8 + ^ x20: .cfa -16 + ^ x21: .cfa -24 + ^ x22: .cfa -32 + ^ .ra: .cfa -40 + ^ x29: .cfa -48 + ^
STACK CFI 2b430 .cfa: sp 48 +
STACK CFI 2b43c .cfa: sp 0 +
STACK CFI 2b440 .cfa: x29 48 +
STACK CFI 2b4dc .cfa: sp 48 +
STACK CFI 2b4e8 .cfa: sp 0 +
STACK CFI 2b4ec .cfa: sp 48 +
STACK CFI 2b4f8 .cfa: sp 0 +
STACK CFI INIT 2b4fc 1c .cfa: sp 0 +
STACK CFI INIT 2b518 c .cfa: sp 0 +
STACK CFI INIT 2b524 5c .cfa: sp 0 +
STACK CFI 2b528 .cfa: sp 32 +
STACK CFI 2b530 .cfa: x29 32 + x19: .cfa -16 + ^ .ra: .cfa -24 + ^ x29: .cfa -32 + ^
STACK CFI 2b568 .cfa: sp 32 +
STACK CFI 2b570 .cfa: sp 0 +
STACK CFI 2b574 .cfa: sp 32 +
STACK CFI 2b57c .cfa: sp 0 +
STACK CFI INIT 2b580 458 .cfa: sp 0 +
STACK CFI INIT 2d2ac 18 .cfa: sp 0 +
STACK CFI INIT 33760 14 .cfa: sp 0 +
STACK CFI INIT 33774 14 .cfa: sp 0 +
STACK CFI INIT 33788 14 .cfa: sp 0 +
STACK CFI INIT 3379c 10 .cfa: sp 0 +
STACK CFI INIT 337ac 14 .cfa: sp 0 +
STACK CFI INIT 337c0 74 .cfa: sp 0 +
STACK CFI 337c4 .cfa: sp 32 +
STACK CFI 337cc .cfa: x29 32 + x19: .cfa -16 + ^ .ra: .cfa -24 + ^ x29: .cfa -32 + ^
STACK CFI 33828 .cfa: sp 32 +
STACK CFI 33830 .cfa: sp 0 +
STACK CFI INIT 33834 38 .cfa: sp 0 +
STACK CFI 33838 .cfa: sp 32 +
STACK CFI 33840 .cfa: x29 32 + x19: .cfa -16 + ^ .ra: .cfa -24 + ^ x29: .cfa -32 + ^
STACK CFI 33860 .cfa: sp 32 +
STACK CFI 33868 .cfa: sp 0 +
STACK CFI INIT 3386c 10 .cfa: sp 0 +
STACK CFI INIT 3387c 8 .cfa: sp 0 +
STACK CFI INIT 33884 24 .cfa: sp 0 +
STACK CFI 33888 .cfa: sp 32 +
STACK CFI 33890 .cfa: x29 32 + x19: .cfa -16 + ^ .ra: .cfa -24 + ^ x29: .cfa -32 + ^
STACK CFI 3389c .cfa: sp 32 +
STACK CFI 338a4 .cfa: sp 0 +
STACK CFI INIT 338a8 4 .cfa: sp 0 +
STACK CFI INIT 338ac 8 .cfa: sp 0 +
STACK CFI INIT 338b4 8 .cfa: sp 0 +
STACK CFI INIT 338bc 28 .cfa: sp 0 +
STACK CFI 338c0 .cfa: sp 32 +
STACK CFI 338c8 .cfa: x29 32 + x19: .cfa -16 + ^ .ra: .cfa -24 + ^ x29: .cfa -32 + ^
STACK CFI 338d8 .cfa: sp 32 +
STACK CFI 338e0 .cfa: sp 0 +
STACK CFI INIT 338e4 4 .cfa: sp 0 +
STACK CFI INIT 338e8 4 .cfa: sp 0 +
STACK CFI INIT 338ec 4 .cfa: sp 0 +
STACK CFI INIT 338f0 4 .cfa: sp 0 +
STACK CFI INIT 338f4 4 .cfa: sp 0 +
STACK CFI INIT 338f8 8 .cfa: sp 0 +
STACK CFI INIT 33a40 4 .cfa: sp 0 +
STACK CFI INIT 33a44 34 .cfa: sp 0 +
STACK CFI 33a48 .cfa: sp 32 +
STACK CFI 33a50 .cfa: x29 32 + x19: .cfa -16 + ^ .ra: .cfa -24 + ^ x29: .cfa -32 + ^
STACK CFI 33a6c .cfa: sp 32 +
STACK CFI 33a74 .cfa: sp 0 +
STACK CFI INIT 33a78 14 .cfa: sp 0 +
STACK CFI INIT 33a8c 4 .cfa: sp 0 +
STACK CFI INIT 33a90 4 .cfa: sp 0 +
STACK CFI INIT 33a94 168 .cfa: sp 0 +
STACK CFI 33a98 .cfa: sp 32 +
STACK CFI 33aa0 .cfa: x29 32 + x19: .cfa -8 + ^ x20: .cfa -16 + ^ .ra: .cfa -24 + ^ x29: .cfa -32 + ^
STACK CFI 33bf0 .cfa: sp 32 +
STACK CFI 33bf8 .cfa: sp 0 +
STACK CFI INIT 33bfc 1c .cfa: sp 0 +
STACK CFI INIT 33c18 c .cfa: sp 0 +
STACK CFI INIT 340a4 1c .cfa: sp 0 +
STACK CFI INIT 343c8 4 .cfa: sp 0 +
STACK CFI INIT 343cc e8 .cfa: sp 0 +
STACK CFI 343d0 .cfa: sp 160 +
STACK CFI 343e0 .cfa: x29 48 + x19: .cfa -8 + ^ x20: .cfa -16 + ^ x21: .cfa -32 + ^ .ra: .cfa -40 + ^ x29: .cfa -48 + ^
STACK CFI 3449c .cfa: sp 160 +
STACK CFI 344ac .cfa: sp 0 +
STACK CFI 344b0 .cfa: x29 48 +
STACK CFI INIT 3455c 9c .cfa: sp 0 +
STACK CFI INIT 34a78 1c .cfa: sp 0 +
STACK CFI INIT 34e1c 4 .cfa: sp 0 +
STACK CFI INIT 34e20 260 .cfa: sp 0 +
STACK CFI 34e24 .cfa: sp 80 +
STACK CFI 34e38 .cfa: x29 64 + x19: .cfa -8 + ^ x20: .cfa -16 + ^ x21: .cfa -24 + ^ x22: .cfa -32 + ^ x23: .cfa -40 + ^ x24: .cfa -48 + ^ .ra: .cfa -56 + ^ x29: .cfa -64 + ^
STACK CFI 35004 .cfa: sp 80 +
STACK CFI 35018 .cfa: sp 0 +
STACK CFI 3501c .cfa: x29 64 +
STACK CFI INIT 35080 3c .cfa: sp 0 +
STACK CFI 35084 .cfa: sp 32 +
STACK CFI 3508c .cfa: x29 32 + x19: .cfa -16 + ^ .ra: .cfa -24 + ^ x29: .cfa -32 + ^
STACK CFI 35098 .cfa: sp 32 +
STACK CFI 350a0 .cfa: sp 0 +
STACK CFI 350a4 .cfa: x29 32 +
STACK CFI 350b0 .cfa: sp 32 +
STACK CFI 350b8 .cfa: sp 0 +
STACK CFI INIT 35598 64 .cfa: sp 0 +
STACK CFI 3559c .cfa: sp 32 +
STACK CFI 355a4 .cfa: x29 32 + x19: .cfa -16 + ^ .ra: .cfa -24 + ^ x29: .cfa -32 + ^
STACK CFI 355d0 .cfa: sp 32 +
STACK CFI 355d8 .cfa: sp 0 +
STACK CFI 355dc .cfa: x29 32 +
STACK CFI 355f0 .cfa: sp 32 +
STACK CFI 355f8 .cfa: sp 0 +
STACK CFI INIT 355fc 24 .cfa: sp 0 +
STACK CFI 35600 .cfa: sp 32 +
STACK CFI 35608 .cfa: x29 32 + x19: .cfa -16 + ^ .ra: .cfa -24 + ^ x29: .cfa -32 + ^
STACK CFI 35614 .cfa: sp 32 +
STACK CFI 3561c .cfa: sp 0 +
STACK CFI INIT 35620 8 .cfa: sp 0 +
STACK CFI INIT 35628 24 .cfa: sp 0 +
STACK CFI 3562c .cfa: sp 32 +
STACK CFI 35634 .cfa: x29 32 + x19: .cfa -16 + ^ .ra: .cfa -24 + ^ x29: .cfa -32 + ^
STACK CFI 35640 .cfa: sp 32 +
STACK CFI 35648 .cfa: sp 0 +
STACK CFI INIT 3564c 28 .cfa: sp 0 +
STACK CFI 35650 .cfa: sp 32 +
STACK CFI 35658 .cfa: x29 32 + x19: .cfa -16 + ^ .ra: .cfa -24 + ^ x29: .cfa -32 + ^
STACK CFI 35668 .cfa: sp 32 +
STACK CFI 35670 .cfa: sp 0 +
STACK CFI INIT 35674 24 .cfa: sp 0 +
STACK CFI 35678 .cfa: sp 32 +
STACK CFI 35680 .cfa: x29 32 + x19: .cfa -16 + ^ .ra: .cfa -24 + ^ x29: .cfa -32 + ^
STACK CFI 3568c .cfa: sp 32 +
STACK CFI 35694 .cfa: sp 0 +
STACK CFI INIT 35f1c 8 .cfa: sp 0 +
STACK CFI INIT 35f24 24 .cfa: sp 0 +
STACK CFI 35f28 .cfa: sp 32 +
STACK CFI 35f30 .cfa: x29 32 + x19: .cfa -16 + ^ .ra: .cfa -24 + ^ x29: .cfa -32 + ^
STACK CFI 35f3c .cfa: sp 32 +
STACK CFI 35f44 .cfa: sp 0 +
STACK CFI INIT 35f48 28 .cfa: sp 0 +
STACK CFI 35f4c .cfa: sp 32 +
STACK CFI 35f54 .cfa: x29 32 + x19: .cfa -16 + ^ .ra: .cfa -24 + ^ x29: .cfa -32 + ^
STACK CFI 35f64 .cfa: sp 32 +
STACK CFI 35f6c .cfa: sp 0 +
STACK CFI INIT 35f70 8 .cfa: sp 0 +
STACK CFI INIT 35f78 24 .cfa: sp 0 +
STACK CFI 35f7c .cfa: sp 32 +
STACK CFI 35f84 .cfa: x29 32 + x19: .cfa -16 + ^ .ra: .cfa -24 + ^ x29: .cfa -32 + ^
STACK CFI 35f90 .cfa: sp 32 +
STACK CFI 35f98 .cfa: sp 0 +
STACK CFI INIT 35f9c 28 .cfa: sp 0 +
STACK CFI 35fa0 .cfa: sp 32 +
STACK CFI 35fa8 .cfa: x29 32 + x19: .cfa -16 + ^ .ra: .cfa -24 + ^ x29: .cfa -32 + ^
STACK CFI 35fb8 .cfa: sp 32 +
STACK CFI 35fc0 .cfa: sp 0 +
STACK CFI INIT 36424 8 .cfa: sp 0 +
STACK CFI INIT 3642c 24 .cfa: sp 0 +
STACK CFI 36430 .cfa: sp 32 +
STACK CFI 36438 .cfa: x29 32 + x19: .cfa -16 + ^ .ra: .cfa -24 + ^ x29: .cfa -32 + ^
STACK CFI 36444 .cfa: sp 32 +
STACK CFI 3644c .cfa: sp 0 +
STACK CFI INIT 36450 28 .cfa: sp 0 +
STACK CFI 36454 .cfa: sp 32 +
STACK CFI 3645c .cfa: x29 32 + x19: .cfa -16 + ^ .ra: .cfa -24 + ^ x29: .cfa -32 + ^
STACK CFI 3646c .cfa: sp 32 +
STACK CFI 36474 .cfa: sp 0 +
STACK CFI INIT 36d30 4 .cfa: sp 0 +
STACK CFI INIT 37a44 4 .cfa: sp 0 +
STACK CFI INIT 37a48 14 .cfa: sp 0 +
STACK CFI INIT 37f3c c .cfa: sp 0 +
STACK CFI INIT 37f48 24c .cfa: sp 0 +
STACK CFI INIT 38194 a0 .cfa: sp 0 +
STACK CFI 381a0 .cfa: sp 32 +
STACK CFI 381f8 .cfa: sp 0 +
STACK CFI 381fc .cfa: sp 32 +
STACK CFI 38204 .cfa: sp 0 +
STACK CFI 38208 .cfa: sp 32 +
STACK CFI 3821c .cfa: sp 0 +
STACK CFI 38220 .cfa: sp 32 +
STACK CFI 38230 .cfa: sp 0 +
STACK CFI INIT 38234 38 .cfa: sp 0 +
STACK CFI 38240 .cfa: sp 32 +
STACK CFI 38268 .cfa: sp 0 +
STACK CFI INIT 38500 7c .cfa: sp 0 +
STACK CFI 38504 .cfa: sp 32 +
STACK CFI 3850c .cfa: x29 32 + x19: .cfa -16 + ^ .ra: .cfa -24 + ^ x29: .cfa -32 + ^
STACK CFI 38538 .cfa: sp 32 +
STACK CFI 38540 .cfa: sp 0 +
STACK CFI 38544 .cfa: x29 32 +
STACK CFI 38570 .cfa: sp 32 +
STACK CFI 38578 .cfa: sp 0 +
STACK CFI INIT 385cc 2c .cfa: sp 0 +
STACK CFI 385d0 .cfa: sp 32 +
STACK CFI 385d8 .cfa: x29 32 + x19: .cfa -16 + ^ .ra: .cfa -24 + ^ x29: .cfa -32 + ^
STACK CFI 385ec .cfa: sp 32 +
STACK CFI 385f4 .cfa: sp 0 +
STACK CFI INIT 38db8 64 .cfa: sp 0 +
STACK CFI 38dbc .cfa: sp 32 +
STACK CFI 38dc4 .cfa: x29 32 + x19: .cfa -16 + ^ .ra: .cfa -24 + ^ x29: .cfa -32 + ^
STACK CFI 38de0 .cfa: sp 32 +
STACK CFI 38de8 .cfa: sp 0 +
STACK CFI 38dec .cfa: x29 32 +
STACK CFI 38e10 .cfa: sp 32 +
STACK CFI 38e18 .cfa: sp 0 +
STACK CFI INIT 38e1c 570 .cfa: sp 0 +
STACK CFI 38e20 .cfa: sp 176 +
STACK CFI 38e34 .cfa: x29 64 + x19: .cfa -8 + ^ x20: .cfa -16 + ^ x21: .cfa -24 + ^ x22: .cfa -32 + ^ x23: .cfa -40 + ^ x24: .cfa -48 + ^ .ra: .cfa -56 + ^ x29: .cfa -64 + ^
STACK CFI 39064 .cfa: sp 176 +
STACK CFI 39078 .cfa: sp 0 +
STACK CFI 3907c .cfa: x29 64 +
STACK CFI 390c8 .cfa: sp 176 +
STACK CFI 390dc .cfa: sp 0 +
STACK CFI 390e0 .cfa: x29 64 +
STACK CFI 39118 .cfa: sp 176 +
STACK CFI 3912c .cfa: sp 0 +
STACK CFI 39130 .cfa: x29 64 +
STACK CFI 39148 .cfa: sp 176 +
STACK CFI 3915c .cfa: sp 0 +
STACK CFI 39160 .cfa: x29 64 +
STACK CFI 39180 .cfa: sp 176 +
STACK CFI 39194 .cfa: sp 0 +
STACK CFI 39198 .cfa: x29 64 +
STACK CFI 391b0 .cfa: sp 176 +
STACK CFI 391c4 .cfa: sp 0 +
STACK CFI 391c8 .cfa: x29 64 +
STACK CFI 391dc .cfa: sp 176 +
STACK CFI 391f0 .cfa: sp 0 +
STACK CFI 391f4 .cfa: x29 64 +
STACK CFI 39208 .cfa: sp 176 +
STACK CFI 3921c .cfa: sp 0 +
STACK CFI 39220 .cfa: x29 64 +
STACK CFI 39230 .cfa: sp 176 +
STACK CFI 39244 .cfa: sp 0 +
STACK CFI 39248 .cfa: x29 64 +
STACK CFI 39258 .cfa: sp 176 +
STACK CFI 3926c .cfa: sp 0 +
STACK CFI 39270 .cfa: x29 64 +
STACK CFI 39288 .cfa: sp 176 +
STACK CFI 3929c .cfa: sp 0 +
STACK CFI 392a0 .cfa: x29 64 +
STACK CFI 392b4 .cfa: sp 176 +
STACK CFI 392c8 .cfa: sp 0 +
STACK CFI 392cc .cfa: x29 64 +
STACK CFI 392e4 .cfa: sp 176 +
STACK CFI 392f8 .cfa: sp 0 +
STACK CFI 392fc .cfa: x29 64 +
STACK CFI 39328 .cfa: sp 176 +
STACK CFI 3933c .cfa: sp 0 +
STACK CFI 39340 .cfa: x29 64 +
STACK CFI 39354 .cfa: sp 176 +
STACK CFI 39368 .cfa: sp 0 +
STACK CFI 3936c .cfa: x29 64 +
STACK CFI INIT 3938c 228 .cfa: sp 0 +
STACK CFI INIT 395b4 2dc .cfa: sp 0 +
STACK CFI INIT 39890 53c .cfa: sp 0 +
STACK CFI INIT 39dcc 78 .cfa: sp 0 +
STACK CFI 39dd0 .cfa: sp 48 +
STACK CFI 39ddc .cfa: x29 48 + x19: .cfa -8 + ^ x20: .cfa -16 + ^ x21: .cfa -24 + ^ x22: .cfa -32 + ^ .ra: .cfa -40 + ^ x29: .cfa -48 + ^
STACK CFI 39e24 .cfa: sp 48 +
STACK CFI 39e30 .cfa: sp 0 +
STACK CFI 39e34 .cfa: sp 48 +
STACK CFI 39e40 .cfa: sp 0 +
STACK CFI INIT 39e44 8c .cfa: sp 0 +
STACK CFI 39e48 .cfa: sp 32 +
STACK CFI 39e50 .cfa: x29 32 + x19: .cfa -16 + ^ .ra: .cfa -24 + ^ x29: .cfa -32 + ^
STACK CFI 39e84 .cfa: sp 32 +
STACK CFI 39e8c .cfa: sp 0 +
STACK CFI 39e90 .cfa: x29 32 +
STACK CFI 39ec4 .cfa: sp 32 +
STACK CFI 39ecc .cfa: sp 0 +
STACK CFI INIT 39ed0 24 .cfa: sp 0 +
STACK CFI 39ed4 .cfa: sp 32 +
STACK CFI 39edc .cfa: x29 32 + x19: .cfa -16 + ^ .ra: .cfa -24 + ^ x29: .cfa -32 + ^
STACK CFI 39ee8 .cfa: sp 32 +
STACK CFI 39ef0 .cfa: sp 0 +
STACK CFI INIT 39ef4 150 .cfa: sp 0 +
STACK CFI 39ef8 .cfa: sp 48 +
STACK CFI 39f04 .cfa: x29 48 + x19: .cfa -8 + ^ x20: .cfa -16 + ^ x21: .cfa -24 + ^ x22: .cfa -32 + ^ .ra: .cfa -40 + ^ x29: .cfa -48 + ^
STACK CFI 3a034 .cfa: sp 48 +
STACK CFI 3a040 .cfa: sp 0 +
STACK CFI INIT 3a044 68 .cfa: sp 0 +
STACK CFI 3a048 .cfa: sp 64 +
STACK CFI 3a054 .cfa: x29 32 + x19: .cfa -16 + ^ .ra: .cfa -24 + ^ x29: .cfa -32 + ^
STACK CFI 3a098 .cfa: sp 64 +
STACK CFI 3a0a4 .cfa: sp 0 +
STACK CFI 3a0a8 .cfa: x29 32 +
STACK CFI INIT 3a0ac 90 .cfa: sp 0 +
STACK CFI 3a0b0 .cfa: sp 32 +
STACK CFI 3a0b8 .cfa: x29 32 + x19: .cfa -8 + ^ x20: .cfa -16 + ^ .ra: .cfa -24 + ^ x29: .cfa -32 + ^
STACK CFI 3a0e4 .cfa: sp 32 +
STACK CFI 3a0ec .cfa: sp 0 +
STACK CFI 3a0f0 .cfa: x29 32 +
STACK CFI 3a130 .cfa: sp 32 +
STACK CFI 3a138 .cfa: sp 0 +
STACK CFI INIT 3a13c ec .cfa: sp 0 +
STACK CFI 3a140 .cfa: sp 112 +
STACK CFI 3a150 .cfa: x29 48 + x19: .cfa -8 + ^ x20: .cfa -16 + ^ x21: .cfa -32 + ^ .ra: .cfa -40 + ^ x29: .cfa -48 + ^
STACK CFI 3a210 .cfa: sp 112 +
STACK CFI 3a220 .cfa: sp 0 +
STACK CFI 3a224 .cfa: x29 48 +
STACK CFI INIT 3a228 ec .cfa: sp 0 +
STACK CFI 3a22c .cfa: sp 112 +
STACK CFI 3a23c .cfa: x29 48 + x19: .cfa -8 + ^ x20: .cfa -16 + ^ x21: .cfa -32 + ^ .ra: .cfa -40 + ^ x29: .cfa -48 + ^
STACK CFI 3a2fc .cfa: sp 112 +
STACK CFI 3a30c .cfa: sp 0 +
STACK CFI 3a310 .cfa: x29 48 +
STACK CFI INIT 3a314 48 .cfa: sp 0 +
STACK CFI 3a318 .cfa: sp 32 +
STACK CFI 3a320 .cfa: x29 32 + x19: .cfa -8 + ^ x20: .cfa -16 + ^ .ra: .cfa -24 + ^ x29: .cfa -32 + ^
STACK CFI 3a344 .cfa: sp 32 +
STACK CFI 3a34c .cfa: sp 0 +
STACK CFI 3a350 .cfa: x29 32 +
STACK CFI INIT 3a35c 98 .cfa: sp 0 +
STACK CFI 3a360 .cfa: sp 80 +
STACK CFI 3a36c .cfa: x29 32 + x19: .cfa -16 + ^ .ra: .cfa -24 + ^ x29: .cfa -32 + ^
STACK CFI 3a3e0 .cfa: sp 80 +
STACK CFI 3a3ec .cfa: sp 0 +
STACK CFI 3a3f0 .cfa: x29 32 +
STACK CFI INIT 3a3f4 260 .cfa: sp 0 +
STACK CFI 3a3f8 .cfa: sp 112 +
STACK CFI 3a410 .cfa: x29 80 + x19: .cfa -8 + ^ x20: .cfa -16 + ^ x21: .cfa -24 + ^ x22: .cfa -32 + ^ x23: .cfa -40 + ^ x24: .cfa -48 + ^ x25: .cfa -64 + ^ .ra: .cfa -72 + ^ x29: .cfa -80 + ^
STACK CFI 3a5f4 .cfa: sp 112 +
STACK CFI 3a60c .cfa: sp 0 +
STACK CFI 3a610 .cfa: x29 80 +
STACK CFI INIT 3a654 150 .cfa: sp 0 +
STACK CFI 3a658 .cfa: sp 48 +
STACK CFI 3a664 .cfa: x29 48 + x19: .cfa -8 + ^ x20: .cfa -16 + ^ x21: .cfa -24 + ^ x22: .cfa -32 + ^ .ra: .cfa -40 + ^ x29: .cfa -48 + ^
STACK CFI 3a794 .cfa: sp 48 +
STACK CFI 3a7a0 .cfa: sp 0 +
STACK CFI INIT 3a7a4 1e0 .cfa: sp 0 +
STACK CFI 3a7a8 .cfa: sp 96 +
STACK CFI 3a7bc .cfa: x29 64 + x19: .cfa -8 + ^ x20: .cfa -16 + ^ x21: .cfa -24 + ^ x22: .cfa -32 + ^ x23: .cfa -40 + ^ x24: .cfa -48 + ^ .ra: .cfa -56 + ^ x29: .cfa -64 + ^
STACK CFI 3a93c .cfa: sp 96 +
STACK CFI 3a950 .cfa: sp 0 +
STACK CFI 3a954 .cfa: x29 64 +
STACK CFI INIT 3a984 284 .cfa: sp 0 +
STACK CFI 3a988 .cfa: sp 112 +
STACK CFI 3a9a0 .cfa: x29 80 + x19: .cfa -8 + ^ x20: .cfa -16 + ^ x21: .cfa -24 + ^ x22: .cfa -32 + ^ x23: .cfa -40 + ^ x24: .cfa -48 + ^ x25: .cfa -64 + ^ .ra: .cfa -72 + ^ x29: .cfa -80 + ^
STACK CFI 3aba8 .cfa: sp 112 +
STACK CFI 3abc0 .cfa: sp 0 +
STACK CFI 3abc4 .cfa: x29 80 +
STACK CFI INIT 3ac08 208 .cfa: sp 0 +
STACK CFI 3ac0c .cfa: sp 96 +
STACK CFI 3ac20 .cfa: x29 64 + x19: .cfa -8 + ^ x20: .cfa -16 + ^ x21: .cfa -24 + ^ x22: .cfa -32 + ^ x23: .cfa -40 + ^ x24: .cfa -48 + ^ .ra: .cfa -56 + ^ x29: .cfa -64 + ^
STACK CFI 3adc8 .cfa: sp 96 +
STACK CFI 3addc .cfa: sp 0 +
STACK CFI 3ade0 .cfa: x29 64 +
STACK CFI INIT 3ae10 360 .cfa: sp 0 +
STACK CFI 3ae14 .cfa: sp 160 +
STACK CFI 3ae30 .cfa: x29 96 + x19: .cfa -8 + ^ x20: .cfa -16 + ^ x21: .cfa -24 + ^ x22: .cfa -32 + ^ x23: .cfa -40 + ^ x24: .cfa -48 + ^ x25: .cfa -56 + ^ x26: .cfa -64 + ^ x27: .cfa -72 + ^ x28: .cfa -80 + ^ .ra: .cfa -88 + ^ x29: .cfa -96 + ^
STACK CFI 3b0fc .cfa: sp 160 +
STACK CFI 3b118 .cfa: sp 0 +
STACK CFI 3b11c .cfa: x29 96 +
STACK CFI INIT 3b170 314 .cfa: sp 0 +
STACK CFI 3b174 .cfa: sp 144 +
STACK CFI 3b190 .cfa: x29 96 + x19: .cfa -8 + ^ x20: .cfa -16 + ^ x21: .cfa -24 + ^ x22: .cfa -32 + ^ x23: .cfa -40 + ^ x24: .cfa -48 + ^ x25: .cfa -56 + ^ x26: .cfa -64 + ^ x27: .cfa -72 + ^ x28: .cfa -80 + ^ .ra: .cfa -88 + ^ x29: .cfa -96 + ^
STACK CFI 3b40c .cfa: sp 144 +
STACK CFI 3b428 .cfa: sp 0 +
STACK CFI 3b42c .cfa: x29 96 +
STACK CFI INIT 3b484 290 .cfa: sp 0 +
STACK CFI 3b488 .cfa: sp 128 +
STACK CFI 3b4a0 .cfa: x29 80 + x19: .cfa -8 + ^ x20: .cfa -16 + ^ x21: .cfa -24 + ^ x22: .cfa -32 + ^ x23: .cfa -40 + ^ x24: .cfa -48 + ^ x25: .cfa -56 + ^ x26: .cfa -64 + ^ .ra: .cfa -72 + ^ x29: .cfa -80 + ^
STACK CFI 3b6f4 .cfa: sp 128 +
STACK CFI 3b70c .cfa: sp 0 +
STACK CFI 3b710 .cfa: x29 80 +
STACK CFI INIT 3b714 ddc .cfa: sp 0 +
STACK CFI 3b718 .cfa: sp 144 +
STACK CFI 3b734 .cfa: x29 96 + x19: .cfa -8 + ^ x20: .cfa -16 + ^ x21: .cfa -24 + ^ x22: .cfa -32 + ^ x23: .cfa -40 + ^ x24: .cfa -48 + ^ x25: .cfa -56 + ^ x26: .cfa -64 + ^ x27: .cfa -72 + ^ x28: .cfa -80 + ^ .ra: .cfa -88 + ^ x29: .cfa -96 + ^
STACK CFI 3c3c8 .cfa: sp 144 +
STACK CFI 3c3e4 .cfa: sp 0 +
STACK CFI 3c3e8 .cfa: x29 96 +
STACK CFI INIT 3c4f0 1d0 .cfa: sp 0 +
STACK CFI 3c4f4 .cfa: sp 80 +
STACK CFI 3c508 .cfa: x29 80 + x19: .cfa -8 + ^ x20: .cfa -16 + ^ x21: .cfa -24 + ^ x22: .cfa -32 + ^ x23: .cfa -40 + ^ x24: .cfa -48 + ^ x25: .cfa -64 + ^ .ra: .cfa -72 + ^ x29: .cfa -80 + ^
STACK CFI 3c6a8 .cfa: sp 80 +
STACK CFI 3c6bc .cfa: sp 0 +
STACK CFI INIT 3c6c0 23c .cfa: sp 0 +
STACK CFI 3c6c4 .cfa: sp 112 +
STACK CFI 3c6d8 .cfa: x29 64 + x19: .cfa -8 + ^ x20: .cfa -16 + ^ x21: .cfa -24 + ^ x22: .cfa -32 + ^ x23: .cfa -40 + ^ x24: .cfa -48 + ^ .ra: .cfa -56 + ^ x29: .cfa -64 + ^
STACK CFI 3c8b4 .cfa: sp 112 +
STACK CFI 3c8c8 .cfa: sp 0 +
STACK CFI 3c8cc .cfa: x29 64 +
STACK CFI INIT 3c8fc 30c .cfa: sp 0 +
STACK CFI 3c900 .cfa: sp 80 +
STACK CFI 3c914 .cfa: x29 64 + x19: .cfa -8 + ^ x20: .cfa -16 + ^ x21: .cfa -24 + ^ x22: .cfa -32 + ^ x23: .cfa -40 + ^ x24: .cfa -48 + ^ .ra: .cfa -56 + ^ x29: .cfa -64 + ^
STACK CFI 3ca90 .cfa: sp 80 +
STACK CFI 3caa4 .cfa: sp 0 +
STACK CFI 3caa8 .cfa: x29 64 +
STACK CFI INIT 3cc08 178 .cfa: sp 0 +
STACK CFI 3cc0c .cfa: sp 80 +
STACK CFI 3cc20 .cfa: x29 64 + x19: .cfa -8 + ^ x20: .cfa -16 + ^ x21: .cfa -24 + ^ x22: .cfa -32 + ^ x23: .cfa -40 + ^ x24: .cfa -48 + ^ .ra: .cfa -56 + ^ x29: .cfa -64 + ^
STACK CFI 3cd64 .cfa: sp 80 +
STACK CFI 3cd78 .cfa: sp 0 +
STACK CFI 3cd7c .cfa: x29 64 +
STACK CFI INIT 3cd80 178 .cfa: sp 0 +
STACK CFI 3cd84 .cfa: sp 80 +
STACK CFI 3cd98 .cfa: x29 64 + x19: .cfa -8 + ^ x20: .cfa -16 + ^ x21: .cfa -24 + ^ x22: .cfa -32 + ^ x23: .cfa -40 + ^ x24: .cfa -48 + ^ .ra: .cfa -56 + ^ x29: .cfa -64 + ^
STACK CFI 3cedc .cfa: sp 80 +
STACK CFI 3cef0 .cfa: sp 0 +
STACK CFI 3cef4 .cfa: x29 64 +
STACK CFI INIT 3cef8 240 .cfa: sp 0 +
STACK CFI 3cefc .cfa: sp 96 +
STACK CFI 3cf14 .cfa: x29 96 + x19: .cfa -8 + ^ x20: .cfa -16 + ^ x21: .cfa -24 + ^ x22: .cfa -32 + ^ x23: .cfa -40 + ^ x24: .cfa -48 + ^ x25: .cfa -56 + ^ x26: .cfa -64 + ^ x27: .cfa -72 + ^ x28: .cfa -80 + ^ .ra: .cfa -88 + ^ x29: .cfa -96 + ^
STACK CFI 3d11c .cfa: sp 96 +
STACK CFI 3d134 .cfa: sp 0 +
STACK CFI INIT 3ddac 154 .cfa: sp 0 +
STACK CFI 3ddb0 .cfa: sp 96 +
STACK CFI 3ddc4 .cfa: x29 64 + x19: .cfa -8 + ^ x20: .cfa -16 + ^ x21: .cfa -24 + ^ x22: .cfa -32 + ^ x23: .cfa -48 + ^ .ra: .cfa -56 + ^ x29: .cfa -64 + ^
STACK CFI 3dea4 .cfa: sp 96 +
STACK CFI 3deb8 .cfa: sp 0 +
STACK CFI 3debc .cfa: x29 64 +
STACK CFI INIT 3e16c 44 .cfa: sp 0 +
STACK CFI 3e170 .cfa: sp 32 +
STACK CFI 3e178 .cfa: x29 32 + x19: .cfa -16 + ^ .ra: .cfa -24 + ^ x29: .cfa -32 + ^
STACK CFI 3e194 .cfa: sp 32 +
STACK CFI 3e19c .cfa: sp 0 +
STACK CFI 3e1a0 .cfa: x29 32 +
STACK CFI 3e1a4 .cfa: sp 32 +
STACK CFI 3e1ac .cfa: sp 0 +
STACK CFI INIT 3e1b0 1d0 .cfa: sp 0 +
STACK CFI 3e1b4 .cfa: sp 64 +
STACK CFI 3e1c4 .cfa: x29 64 + x19: .cfa -8 + ^ x20: .cfa -16 + ^ x21: .cfa -24 + ^ x22: .cfa -32 + ^ x23: .cfa -40 + ^ x24: .cfa -48 + ^ .ra: .cfa -56 + ^ x29: .cfa -64 + ^
STACK CFI 3e284 .cfa: sp 64 +
STACK CFI 3e294 .cfa: sp 0 +
STACK CFI 3e298 .cfa: x29 64 +
STACK CFI INIT 3e380 17c .cfa: sp 0 +
STACK CFI INIT 3e8b4 a0 .cfa: sp 0 +
STACK CFI 3e8b8 .cfa: sp 48 +
STACK CFI 3e8c4 .cfa: x29 48 + x19: .cfa -8 + ^ x20: .cfa -16 + ^ x21: .cfa -24 + ^ x22: .cfa -32 + ^ .ra: .cfa -40 + ^ x29: .cfa -48 + ^
STACK CFI 3e930 .cfa: sp 48 +
STACK CFI 3e93c .cfa: sp 0 +
STACK CFI 3e940 .cfa: sp 48 +
STACK CFI 3e94c .cfa: sp 0 +
STACK CFI 3e950 .cfa: x29 48 +
STACK CFI INIT 3f608 158 .cfa: sp 0 +
STACK CFI 3f60c .cfa: sp 96 +
STACK CFI 3f620 .cfa: x29 64 + x19: .cfa -8 + ^ x20: .cfa -16 + ^ x21: .cfa -24 + ^ x22: .cfa -32 + ^ x23: .cfa -48 + ^ .ra: .cfa -56 + ^ x29: .cfa -64 + ^
STACK CFI 3f704 .cfa: sp 96 +
STACK CFI 3f718 .cfa: sp 0 +
STACK CFI 3f71c .cfa: x29 64 +
STACK CFI INIT 3f760 190 .cfa: sp 0 +
STACK CFI INIT 403ec 1dc .cfa: sp 0 +
STACK CFI 403f0 .cfa: sp 80 +
STACK CFI 40404 .cfa: x29 80 + x19: .cfa -8 + ^ x20: .cfa -16 + ^ x21: .cfa -24 + ^ x22: .cfa -32 + ^ x23: .cfa -40 + ^ x24: .cfa -48 + ^ x25: .cfa -64 + ^ .ra: .cfa -72 + ^ x29: .cfa -80 + ^
STACK CFI 405b0 .cfa: sp 80 +
STACK CFI 405c4 .cfa: sp 0 +
STACK CFI INIT 419f8 124 .cfa: sp 0 +
STACK CFI 41a28 .cfa: sp 32 +
STACK CFI 41a30 .cfa: x29 32 + x19: .cfa -8 + ^ x20: .cfa -16 + ^ .ra: .cfa -24 + ^ x29: .cfa -32 + ^
STACK CFI 41b10 .cfa: sp 32 +
STACK CFI 41b18 .cfa: sp 0 +
STACK CFI INIT 42278 320 .cfa: sp 0 +
STACK CFI 4227c .cfa: sp 64 +
STACK CFI 4228c .cfa: x29 64 + x19: .cfa -8 + ^ x20: .cfa -16 + ^ x21: .cfa -24 + ^ x22: .cfa -32 + ^ x23: .cfa -40 + ^ x24: .cfa -48 + ^ .ra: .cfa -56 + ^ x29: .cfa -64 + ^
STACK CFI 42308 .cfa: sp 64 +
STACK CFI 42318 .cfa: sp 0 +
STACK CFI 4231c .cfa: x29 64 +
STACK CFI 424f0 .cfa: sp 64 +
STACK CFI 42500 .cfa: sp 0 +
STACK CFI 42504 .cfa: x29 64 +
STACK CFI 42514 .cfa: sp 64 +
STACK CFI 42524 .cfa: sp 0 +
STACK CFI 42528 .cfa: x29 64 +
STACK CFI INIT 42598 a0 .cfa: sp 0 +
STACK CFI 4259c .cfa: sp 48 +
STACK CFI 425a8 .cfa: x29 48 + x19: .cfa -8 + ^ x20: .cfa -16 + ^ x21: .cfa -24 + ^ x22: .cfa -32 + ^ .ra: .cfa -40 + ^ x29: .cfa -48 + ^
STACK CFI 42614 .cfa: sp 48 +
STACK CFI 42620 .cfa: sp 0 +
STACK CFI 42624 .cfa: sp 48 +
STACK CFI 42630 .cfa: sp 0 +
STACK CFI 42634 .cfa: x29 48 +
STACK CFI INIT 434e8 160 .cfa: sp 0 +
STACK CFI 434ec .cfa: sp 64 +
STACK CFI 434fc .cfa: x29 64 + x19: .cfa -8 + ^ x20: .cfa -16 + ^ x21: .cfa -24 + ^ x22: .cfa -32 + ^ x23: .cfa -48 + ^ .ra: .cfa -56 + ^ x29: .cfa -64 + ^
STACK CFI 435f4 .cfa: sp 64 +
STACK CFI 43604 .cfa: sp 0 +
STACK CFI 43608 .cfa: x29 64 +
STACK CFI INIT 43648 214 .cfa: sp 0 +
STACK CFI 4364c .cfa: sp 128 +
STACK CFI 43668 .cfa: x29 96 + x19: .cfa -8 + ^ x20: .cfa -16 + ^ x21: .cfa -24 + ^ x22: .cfa -32 + ^ x23: .cfa -40 + ^ x24: .cfa -48 + ^ x25: .cfa -56 + ^ x26: .cfa -64 + ^ x27: .cfa -80 + ^ .ra: .cfa -88 + ^ x29: .cfa -96 + ^
STACK CFI 437e4 .cfa: sp 128 +
STACK CFI 43800 .cfa: sp 0 +
STACK CFI 43804 .cfa: x29 96 +
STACK CFI INIT 454f8 290 .cfa: sp 0 +
STACK CFI 454fc .cfa: sp 16 +
STACK CFI 45500 .cfa: x29 16 + .ra: .cfa -8 + ^ x29: .cfa -16 + ^
STACK CFI 4558c .cfa: sp 16 +
STACK CFI 45590 .cfa: sp 0 +
STACK CFI 45594 .cfa: x29 16 +
STACK CFI 455e4 .cfa: sp 16 +
STACK CFI 455e8 .cfa: sp 0 +
STACK CFI 455ec .cfa: x29 16 +
STACK CFI 45750 .cfa: sp 16 +
STACK CFI 45754 .cfa: sp 0 +
STACK CFI 45758 .cfa: x29 16 +
STACK CFI INIT 45788 158 .cfa: sp 0 +
STACK CFI 4578c .cfa: sp 112 +
STACK CFI 457a8 .cfa: x29 96 + x19: .cfa -8 + ^ x20: .cfa -16 + ^ x21: .cfa -24 + ^ x22: .cfa -32 + ^ x23: .cfa -40 + ^ x24: .cfa -48 + ^ x25: .cfa -56 + ^ x26: .cfa -64 + ^ x27: .cfa -72 + ^ x28: .cfa -80 + ^ .ra: .cfa -88 + ^ x29: .cfa -96 + ^
STACK CFI 45890 .cfa: sp 112 +
STACK CFI 45894 .cfa: x29 96 +
STACK CFI 4589c .cfa: sp 112 +
STACK CFI 458b8 .cfa: sp 0 +
STACK CFI 458bc .cfa: x29 96 +
STACK CFI 458dc .cfa: sp 112 +
STACK CFI INIT 458e0 e54 .cfa: sp 0 +
STACK CFI 458e4 .cfa: sp 192 +
STACK CFI 45900 .cfa: x29 96 + x19: .cfa -8 + ^ x20: .cfa -16 + ^ x21: .cfa -24 + ^ x22: .cfa -32 + ^ x23: .cfa -40 + ^ x24: .cfa -48 + ^ x25: .cfa -56 + ^ x26: .cfa -64 + ^ x27: .cfa -72 + ^ x28: .cfa -80 + ^ .ra: .cfa -88 + ^ x29: .cfa -96 + ^
STACK CFI 4661c .cfa: sp 192 +
STACK CFI 46638 .cfa: sp 0 +
STACK CFI 4663c .cfa: x29 96 +
STACK CFI INIT 46734 1068 .cfa: sp 0 +
STACK CFI 46738 .cfa: sp 288 +
STACK CFI 46754 .cfa: x29 96 + x19: .cfa -8 + ^ x20: .cfa -16 + ^ x21: .cfa -24 + ^ x22: .cfa -32 + ^ x23: .cfa -40 + ^ x24: .cfa -48 + ^ x25: .cfa -56 + ^ x26: .cfa -64 + ^ x27: .cfa -72 + ^ x28: .cfa -80 + ^ .ra: .cfa -88 + ^ x29: .cfa -96 + ^
STACK CFI 474e4 .cfa: sp 288 +
STACK CFI 47500 .cfa: sp 0 +
STACK CFI 47504 .cfa: x29 96 +
STACK CFI INIT 4779c 520 .cfa: sp 0 +
STACK CFI 477a0 .cfa: sp 144 +
STACK CFI 477bc .cfa: x29 96 + x19: .cfa -8 + ^ x20: .cfa -16 + ^ x21: .cfa -24 + ^ x22: .cfa -32 + ^ x23: .cfa -40 + ^ x24: .cfa -48 + ^ x25: .cfa -56 + ^ x26: .cfa -64 + ^ x27: .cfa -72 + ^ x28: .cfa -80 + ^ .ra: .cfa -88 + ^ x29: .cfa -96 + ^
STACK CFI 47c98 .cfa: sp 144 +
STACK CFI 47cb4 .cfa: sp 0 +
STACK CFI 47cb8 .cfa: x29 96 +
STACK CFI INIT 4865c 136c .cfa: sp 0 +
STACK CFI 48660 .cfa: sp 224 +
STACK CFI 4867c .cfa: x29 96 + x19: .cfa -8 + ^ x20: .cfa -16 + ^ x21: .cfa -24 + ^ x22: .cfa -32 + ^ x23: .cfa -40 + ^ x24: .cfa -48 + ^ x25: .cfa -56 + ^ x26: .cfa -64 + ^ x27: .cfa -72 + ^ x28: .cfa -80 + ^ .ra: .cfa -88 + ^ x29: .cfa -96 + ^
STACK CFI 499a4 .cfa: sp 224 +
STACK CFI 499c0 .cfa: sp 0 +
STACK CFI 499c4 .cfa: x29 96 +
STACK CFI INIT 499c8 1b8 .cfa: sp 0 +
STACK CFI INIT 211f0 160 .cfa: sp 0 +
STACK CFI 211f4 .cfa: sp 80 +
STACK CFI 21204 .cfa: x29 48 + x19: .cfa -8 + ^ x20: .cfa -16 + ^ x21: .cfa -32 + ^ .ra: .cfa -40 + ^ x29: .cfa -48 + ^
STACK CFI 212a0 .cfa: sp 80 +
STACK CFI 212b0 .cfa: sp 0 +
STACK CFI 212b4 .cfa: x29 48 +
STACK CFI 212c4 .cfa: sp 80 +
STACK CFI 212d4 .cfa: sp 0 +
STACK CFI 212d8 .cfa: x29 48 +
STACK CFI INIT 2143c 480 .cfa: sp 0 +
STACK CFI 21440 .cfa: sp 224 +
STACK CFI 2145c .cfa: x29 96 + x19: .cfa -8 + ^ x20: .cfa -16 + ^ x21: .cfa -24 + ^ x22: .cfa -32 + ^ x23: .cfa -40 + ^ x24: .cfa -48 + ^ x25: .cfa -56 + ^ x26: .cfa -64 + ^ x27: .cfa -80 + ^ .ra: .cfa -88 + ^ x29: .cfa -96 + ^
STACK CFI 216c8 .cfa: sp 224 +
STACK CFI 216e4 .cfa: sp 0 +
STACK CFI 216e8 .cfa: x29 96 +
STACK CFI 217b4 .cfa: sp 224 +
STACK CFI 217d0 .cfa: sp 0 +
STACK CFI 217d4 .cfa: x29 96 +
STACK CFI INIT 218d8 480 .cfa: sp 0 +
STACK CFI 218dc .cfa: sp 224 +
STACK CFI 218f8 .cfa: x29 96 + x19: .cfa -8 + ^ x20: .cfa -16 + ^ x21: .cfa -24 + ^ x22: .cfa -32 + ^ x23: .cfa -40 + ^ x24: .cfa -48 + ^ x25: .cfa -56 + ^ x26: .cfa -64 + ^ x27: .cfa -80 + ^ .ra: .cfa -88 + ^ x29: .cfa -96 + ^
STACK CFI 21b64 .cfa: sp 224 +
STACK CFI 21b80 .cfa: sp 0 +
STACK CFI 21b84 .cfa: x29 96 +
STACK CFI 21c50 .cfa: sp 224 +
STACK CFI 21c6c .cfa: sp 0 +
STACK CFI 21c70 .cfa: x29 96 +
STACK CFI INIT 21d78 1cc .cfa: sp 0 +
STACK CFI 21d7c .cfa: sp 128 +
STACK CFI 21d8c .cfa: x29 48 + x19: .cfa -8 + ^ x20: .cfa -16 + ^ x21: .cfa -32 + ^ .ra: .cfa -40 + ^ x29: .cfa -48 + ^
STACK CFI 21ec8 .cfa: sp 128 +
STACK CFI 21ed8 .cfa: sp 0 +
STACK CFI 21edc .cfa: x29 48 +
STACK CFI INIT 22144 21c .cfa: sp 0 +
STACK CFI 22148 .cfa: sp 192 +
STACK CFI 2215c .cfa: x29 64 + x19: .cfa -8 + ^ x20: .cfa -16 + ^ x21: .cfa -24 + ^ x22: .cfa -32 + ^ x23: .cfa -48 + ^ .ra: .cfa -56 + ^ x29: .cfa -64 + ^
STACK CFI 2229c .cfa: sp 192 +
STACK CFI 222b0 .cfa: sp 0 +
STACK CFI 222b4 .cfa: x29 64 +
STACK CFI INIT 22690 1d0 .cfa: sp 0 +
STACK CFI 22694 .cfa: sp 128 +
STACK CFI 226a8 .cfa: x29 64 + x19: .cfa -8 + ^ x20: .cfa -16 + ^ x21: .cfa -24 + ^ x22: .cfa -32 + ^ x23: .cfa -48 + ^ .ra: .cfa -56 + ^ x29: .cfa -64 + ^
STACK CFI 22820 .cfa: sp 128 +
STACK CFI 22834 .cfa: sp 0 +
STACK CFI 22838 .cfa: x29 64 +
STACK CFI INIT 22b7c 1c4 .cfa: sp 0 +
STACK CFI 22b80 .cfa: sp 112 +
STACK CFI 22b90 .cfa: x29 48 + x19: .cfa -8 + ^ x20: .cfa -16 + ^ x21: .cfa -24 + ^ x22: .cfa -32 + ^ .ra: .cfa -40 + ^ x29: .cfa -48 + ^
STACK CFI 22d04 .cfa: sp 112 +
STACK CFI 22d14 .cfa: sp 0 +
STACK CFI 22d18 .cfa: x29 48 +
STACK CFI INIT 22d40 628 .cfa: sp 0 +
STACK CFI 22d44 .cfa: sp 240 +
STACK CFI 22d60 .cfa: x29 96 + x19: .cfa -8 + ^ x20: .cfa -16 + ^ x21: .cfa -24 + ^ x22: .cfa -32 + ^ x23: .cfa -40 + ^ x24: .cfa -48 + ^ x25: .cfa -56 + ^ x26: .cfa -64 + ^ x27: .cfa -72 + ^ x28: .cfa -80 + ^ .ra: .cfa -88 + ^ x29: .cfa -96 + ^
STACK CFI 23188 .cfa: sp 240 +
STACK CFI 231a4 .cfa: sp 0 +
STACK CFI 231a8 .cfa: x29 96 +
STACK CFI INIT 233b8 74 .cfa: sp 0 +
STACK CFI 233bc .cfa: sp 48 +
STACK CFI 233c8 .cfa: x29 32 + x19: .cfa -8 + ^ x20: .cfa -16 + ^ .ra: .cfa -24 + ^ x29: .cfa -32 + ^
STACK CFI 23414 .cfa: sp 48 +
STACK CFI 23420 .cfa: sp 0 +
STACK CFI 23424 .cfa: x29 32 +
STACK CFI INIT 234ac 154 .cfa: sp 0 +
STACK CFI 234b0 .cfa: sp 384 +
STACK CFI 234c4 .cfa: x29 64 + x19: .cfa -8 + ^ x20: .cfa -16 + ^ x21: .cfa -24 + ^ x22: .cfa -32 + ^ x23: .cfa -40 + ^ x28: .cfa -48 + ^ .ra: .cfa -56 + ^ x29: .cfa -64 + ^
STACK CFI 235a8 .cfa: sp 384 +
STACK CFI 235bc .cfa: sp 0 +
STACK CFI 235c0 .cfa: x29 64 +
STACK CFI INIT 23634 12c .cfa: sp 0 +
STACK CFI 23638 .cfa: sp 80 +
STACK CFI 2364c .cfa: x29 80 + x19: .cfa -8 + ^ x20: .cfa -16 + ^ x21: .cfa -24 + ^ x22: .cfa -32 + ^ x23: .cfa -40 + ^ x24: .cfa -48 + ^ x25: .cfa -56 + ^ x26: .cfa -64 + ^ .ra: .cfa -72 + ^ x29: .cfa -80 + ^
STACK CFI 23714 .cfa: sp 80 +
STACK CFI 23728 .cfa: sp 0 +
STACK CFI 2372c .cfa: x29 80 +
STACK CFI INIT 23804 1a4 .cfa: sp 0 +
STACK CFI 23808 .cfa: sp 112 +
STACK CFI 23820 .cfa: x29 80 + x19: .cfa -8 + ^ x20: .cfa -16 + ^ x21: .cfa -24 + ^ x22: .cfa -32 + ^ x23: .cfa -40 + ^ x24: .cfa -48 + ^ x25: .cfa -56 + ^ x26: .cfa -64 + ^ .ra: .cfa -72 + ^ x29: .cfa -80 + ^
STACK CFI 23910 .cfa: sp 112 +
STACK CFI 23928 .cfa: sp 0 +
STACK CFI 2392c .cfa: x29 80 +
STACK CFI INIT 239a8 1dc .cfa: sp 0 +
STACK CFI 239ac .cfa: sp 128 +
STACK CFI 239c8 .cfa: x29 96 + x19: .cfa -8 + ^ x20: .cfa -16 + ^ x21: .cfa -24 + ^ x22: .cfa -32 + ^ x23: .cfa -40 + ^ x24: .cfa -48 + ^ x25: .cfa -56 + ^ x26: .cfa -64 + ^ x27: .cfa -80 + ^ .ra: .cfa -88 + ^ x29: .cfa -96 + ^
STACK CFI 23b34 .cfa: sp 128 +
STACK CFI 23b50 .cfa: sp 0 +
STACK CFI 23b54 .cfa: x29 96 +
STACK CFI INIT 23b98 50 .cfa: sp 0 +
STACK CFI 23b9c .cfa: sp 32 +
STACK CFI 23ba4 .cfa: x29 32 + x19: .cfa -8 + ^ x20: .cfa -16 + ^ .ra: .cfa -24 + ^ x29: .cfa -32 + ^
STACK CFI INIT 23c18 178 .cfa: sp 0 +
STACK CFI 23c1c .cfa: sp 80 +
STACK CFI 23c30 .cfa: x29 80 + x19: .cfa -8 + ^ x20: .cfa -16 + ^ x21: .cfa -24 + ^ x22: .cfa -32 + ^ x23: .cfa -40 + ^ x24: .cfa -48 + ^ x25: .cfa -64 + ^ .ra: .cfa -72 + ^ x29: .cfa -80 + ^
STACK CFI 23d5c .cfa: sp 80 +
STACK CFI 23d70 .cfa: sp 0 +
STACK CFI 23d74 .cfa: x29 80 +
STACK CFI INIT 23ed8 228 .cfa: sp 0 +
STACK CFI 23edc .cfa: sp 128 +
STACK CFI 23ef4 .cfa: x29 80 + x19: .cfa -8 + ^ x20: .cfa -16 + ^ x21: .cfa -24 + ^ x22: .cfa -32 + ^ x23: .cfa -40 + ^ x24: .cfa -48 + ^ x25: .cfa -64 + ^ .ra: .cfa -72 + ^ x29: .cfa -80 + ^
STACK CFI 24090 .cfa: sp 128 +
STACK CFI 240a8 .cfa: sp 0 +
STACK CFI 240ac .cfa: x29 80 +
STACK CFI INIT 24c98 388 .cfa: sp 0 +
STACK CFI 24c9c .cfa: sp 256 +
STACK CFI 24cb0 .cfa: x29 64 + x19: .cfa -8 + ^ x20: .cfa -16 + ^ x21: .cfa -24 + ^ x22: .cfa -32 + ^ x23: .cfa -40 + ^ x24: .cfa -48 + ^ .ra: .cfa -56 + ^ x29: .cfa -64 + ^
STACK CFI 24ef4 .cfa: sp 256 +
STACK CFI 24f08 .cfa: sp 0 +
STACK CFI 24f0c .cfa: x29 64 +
STACK CFI INIT 25024 250 .cfa: sp 0 +
STACK CFI 25028 .cfa: sp 176 +
STACK CFI 25044 .cfa: x29 96 + x19: .cfa -8 + ^ x20: .cfa -16 + ^ x21: .cfa -24 + ^ x22: .cfa -32 + ^ x23: .cfa -40 + ^ x24: .cfa -48 + ^ x25: .cfa -56 + ^ x26: .cfa -64 + ^ x27: .cfa -72 + ^ x28: .cfa -80 + ^ .ra: .cfa -88 + ^ x29: .cfa -96 + ^
STACK CFI 25200 .cfa: sp 176 +
STACK CFI 2521c .cfa: sp 0 +
STACK CFI 25220 .cfa: x29 96 +
STACK CFI INIT 254fc 134 .cfa: sp 0 +
STACK CFI 25500 .cfa: sp 80 +
STACK CFI 25510 .cfa: x29 48 + x19: .cfa -8 + ^ x20: .cfa -16 + ^ x21: .cfa -24 + ^ x22: .cfa -32 + ^ .ra: .cfa -40 + ^ x29: .cfa -48 + ^
STACK CFI 25614 .cfa: sp 80 +
STACK CFI 25624 .cfa: sp 0 +
STACK CFI 25628 .cfa: x29 48 +
STACK CFI INIT 25630 760 .cfa: sp 0 +
STACK CFI 25634 .cfa: sp 208 +
STACK CFI 25650 .cfa: x29 96 + x19: .cfa -8 + ^ x20: .cfa -16 + ^ x21: .cfa -24 + ^ x22: .cfa -32 + ^ x23: .cfa -40 + ^ x24: .cfa -48 + ^ x25: .cfa -56 + ^ x26: .cfa -64 + ^ x27: .cfa -72 + ^ x28: .cfa -80 + ^ .ra: .cfa -88 + ^ x29: .cfa -96 + ^
STACK CFI 257c4 .cfa: sp 208 +
STACK CFI 257e0 .cfa: sp 0 +
STACK CFI 257e4 .cfa: x29 96 +
STACK CFI 25c40 .cfa: sp 208 +
STACK CFI 25c5c .cfa: sp 0 +
STACK CFI 25c60 .cfa: x29 96 +
STACK CFI INIT 25dac 384 .cfa: sp 0 +
STACK CFI 25db0 .cfa: sp 256 +
STACK CFI 25dc4 .cfa: x29 64 + x19: .cfa -8 + ^ x20: .cfa -16 + ^ x21: .cfa -24 + ^ x22: .cfa -32 + ^ x23: .cfa -48 + ^ .ra: .cfa -56 + ^ x29: .cfa -64 + ^
STACK CFI 26004 .cfa: sp 256 +
STACK CFI 26018 .cfa: sp 0 +
STACK CFI 2601c .cfa: x29 64 +
STACK CFI INIT 261b0 168 .cfa: sp 0 +
STACK CFI 261b4 .cfa: sp 384 +
STACK CFI 261c8 .cfa: x29 64 + x19: .cfa -8 + ^ x20: .cfa -16 + ^ x21: .cfa -24 + ^ x22: .cfa -32 + ^ x23: .cfa -40 + ^ x28: .cfa -48 + ^ .ra: .cfa -56 + ^ x29: .cfa -64 + ^
STACK CFI 262c0 .cfa: sp 384 +
STACK CFI 262d4 .cfa: sp 0 +
STACK CFI 262d8 .cfa: x29 64 +
STACK CFI INIT 26330 198c .cfa: sp 0 +
STACK CFI 26334 .cfa: sp 128 +
STACK CFI 26354 .cfa: x29 96 + x19: .cfa -8 + ^ x20: .cfa -16 + ^ x21: .cfa -24 + ^ x22: .cfa -32 + ^ x23: .cfa -40 + ^ x24: .cfa -48 + ^ x25: .cfa -56 + ^ x26: .cfa -64 + ^ x27: .cfa -72 + ^ x28: .cfa -80 + ^ .ra: .cfa -88 + ^ x29: .cfa -96 + ^ v8: .cfa -104 + ^ v9: .cfa -112 + ^ v10: .cfa -128 + ^
STACK CFI 27a34 .cfa: sp 128 +
STACK CFI 27a54 .cfa: sp 0 +
STACK CFI 27a58 .cfa: x29 96 +
STACK CFI INIT 28270 484 .cfa: sp 0 +
STACK CFI 28274 .cfa: sp 112 +
STACK CFI 28290 .cfa: x29 96 + x19: .cfa -8 + ^ x20: .cfa -16 + ^ x21: .cfa -24 + ^ x22: .cfa -32 + ^ x23: .cfa -40 + ^ x24: .cfa -48 + ^ x25: .cfa -56 + ^ x26: .cfa -64 + ^ x27: .cfa -72 + ^ x28: .cfa -80 + ^ .ra: .cfa -88 + ^ x29: .cfa -96 + ^ v8: .cfa -112 + ^
STACK CFI 28638 .cfa: sp 112 +
STACK CFI 28654 .cfa: sp 0 +
STACK CFI 28658 .cfa: x29 96 +
STACK CFI INIT 28990 644 .cfa: sp 0 +
STACK CFI 28994 .cfa: sp 224 +
STACK CFI 289b0 .cfa: x29 96 + x19: .cfa -8 + ^ x20: .cfa -16 + ^ x21: .cfa -24 + ^ x22: .cfa -32 + ^ x23: .cfa -40 + ^ x24: .cfa -48 + ^ x25: .cfa -56 + ^ x26: .cfa -64 + ^ x27: .cfa -72 + ^ x28: .cfa -80 + ^ .ra: .cfa -88 + ^ x29: .cfa -96 + ^
STACK CFI 28e64 .cfa: sp 224 +
STACK CFI 28e80 .cfa: sp 0 +
STACK CFI 28e84 .cfa: x29 96 +
STACK CFI INIT 2900c 50 .cfa: sp 0 +
STACK CFI 29010 .cfa: sp 32 +
STACK CFI 29018 .cfa: x29 32 + x19: .cfa -8 + ^ x20: .cfa -16 + ^ .ra: .cfa -24 + ^ x29: .cfa -32 + ^
STACK CFI INIT 29294 294 .cfa: sp 0 +
STACK CFI 29298 .cfa: sp 80 +
STACK CFI 292ac .cfa: x29 80 + x19: .cfa -8 + ^ x20: .cfa -16 + ^ x21: .cfa -24 + ^ x22: .cfa -32 + ^ x23: .cfa -40 + ^ x24: .cfa -48 + ^ x28: .cfa -64 + ^ .ra: .cfa -72 + ^ x29: .cfa -80 + ^
STACK CFI 29464 .cfa: sp 80 +
STACK CFI 29478 .cfa: sp 0 +
STACK CFI 2947c .cfa: x29 80 +
STACK CFI INIT 29528 41c .cfa: sp 0 +
STACK CFI 2952c .cfa: sp 128 +
STACK CFI 29544 .cfa: x29 80 + x19: .cfa -8 + ^ x20: .cfa -16 + ^ x21: .cfa -24 + ^ x22: .cfa -32 + ^ x23: .cfa -40 + ^ x24: .cfa -48 + ^ x25: .cfa -64 + ^ .ra: .cfa -72 + ^ x29: .cfa -80 + ^
STACK CFI 29878 .cfa: sp 128 +
STACK CFI 29890 .cfa: sp 0 +
STACK CFI 29894 .cfa: x29 80 +
STACK CFI INIT 29944 1b0 .cfa: sp 0 +
STACK CFI 29948 .cfa: sp 80 +
STACK CFI 2995c .cfa: x29 64 + x19: .cfa -8 + ^ x20: .cfa -16 + ^ x21: .cfa -24 + ^ x22: .cfa -32 + ^ x23: .cfa -48 + ^ .ra: .cfa -56 + ^ x29: .cfa -64 + ^
STACK CFI 29a64 .cfa: sp 80 +
STACK CFI 29a78 .cfa: sp 0 +
STACK CFI 29a7c .cfa: x29 64 +
STACK CFI INIT 29db8 198 .cfa: sp 0 +
STACK CFI 29dbc .cfa: sp 96 +
STACK CFI 29dcc .cfa: x29 48 + x19: .cfa -8 + ^ x20: .cfa -16 + ^ x21: .cfa -32 + ^ .ra: .cfa -40 + ^ x29: .cfa -48 + ^
STACK CFI 29ea8 .cfa: sp 96 +
STACK CFI 29eb8 .cfa: sp 0 +
STACK CFI 29ebc .cfa: x29 48 +
STACK CFI INIT 29f94 1034 .cfa: sp 0 +
STACK CFI 29f98 .cfa: sp 96 +
STACK CFI 29fb0 .cfa: x29 96 + x19: .cfa -8 + ^ x20: .cfa -16 + ^ x21: .cfa -24 + ^ x22: .cfa -32 + ^ x23: .cfa -40 + ^ x24: .cfa -48 + ^ x25: .cfa -56 + ^ x26: .cfa -64 + ^ x27: .cfa -72 + ^ x28: .cfa -80 + ^ .ra: .cfa -88 + ^ x29: .cfa -96 + ^
STACK CFI 2add4 .cfa: sp 96 +
STACK CFI 2adec .cfa: sp 0 +
STACK CFI 2adf0 .cfa: x29 96 +
STACK CFI INIT 2aff0 220 .cfa: sp 0 +
STACK CFI 2aff4 .cfa: sp 192 +
STACK CFI 2b004 .cfa: x29 48 + x19: .cfa -8 + ^ x20: .cfa -16 + ^ x21: .cfa -32 + ^ .ra: .cfa -40 + ^ x29: .cfa -48 + ^
STACK CFI 2b194 .cfa: sp 192 +
STACK CFI 2b1a4 .cfa: sp 0 +
STACK CFI 2b1a8 .cfa: x29 48 +
STACK CFI INIT 2b238 74 .cfa: sp 0 +
STACK CFI 2b23c .cfa: sp 48 +
STACK CFI 2b248 .cfa: x29 32 + x19: .cfa -8 + ^ x20: .cfa -16 + ^ .ra: .cfa -24 + ^ x29: .cfa -32 + ^
STACK CFI 2b294 .cfa: sp 48 +
STACK CFI 2b2a0 .cfa: sp 0 +
STACK CFI 2b2a4 .cfa: x29 32 +
STACK CFI INIT 2b9d8 1844 .cfa: sp 0 +
STACK CFI 2b9dc .cfa: sp 128 +
STACK CFI 2b9fc .cfa: x29 96 + x19: .cfa -8 + ^ x20: .cfa -16 + ^ x21: .cfa -24 + ^ x22: .cfa -32 + ^ x23: .cfa -40 + ^ x24: .cfa -48 + ^ x25: .cfa -56 + ^ x26: .cfa -64 + ^ x27: .cfa -72 + ^ x28: .cfa -80 + ^ .ra: .cfa -88 + ^ x29: .cfa -96 + ^ v8: .cfa -104 + ^ v9: .cfa -112 + ^ v10: .cfa -120 + ^ v11: .cfa -128 + ^
STACK CFI 2cf84 .cfa: sp 128 +
STACK CFI 2cfa4 .cfa: sp 0 +
STACK CFI 2cfa8 .cfa: x29 96 +
STACK CFI INIT 2d21c 90 .cfa: sp 0 +
STACK CFI 2d220 .cfa: sp 48 +
STACK CFI 2d22c .cfa: x29 32 + x19: .cfa -8 + ^ x20: .cfa -16 + ^ .ra: .cfa -24 + ^ x29: .cfa -32 + ^
STACK CFI 2d274 .cfa: sp 48 +
STACK CFI 2d280 .cfa: sp 0 +
STACK CFI 2d284 .cfa: x29 32 +
STACK CFI INIT 2d2c4 340 .cfa: sp 0 +
STACK CFI 2d2c8 .cfa: sp 96 +
STACK CFI 2d2e0 .cfa: x29 96 + x19: .cfa -8 + ^ x20: .cfa -16 + ^ x21: .cfa -24 + ^ x22: .cfa -32 + ^ x23: .cfa -40 + ^ x24: .cfa -48 + ^ x25: .cfa -56 + ^ x26: .cfa -64 + ^ x27: .cfa -72 + ^ x28: .cfa -80 + ^ .ra: .cfa -88 + ^ x29: .cfa -96 + ^
STACK CFI 2d570 .cfa: sp 96 +
STACK CFI 2d588 .cfa: sp 0 +
STACK CFI 2d58c .cfa: x29 96 +
STACK CFI INIT 2d604 11c .cfa: sp 0 +
STACK CFI 2d608 .cfa: sp 48 +
STACK CFI 2d614 .cfa: x29 48 + x19: .cfa -8 + ^ x20: .cfa -16 + ^ x21: .cfa -32 + ^ .ra: .cfa -40 + ^ x29: .cfa -48 + ^
STACK CFI 2d6d4 .cfa: sp 48 +
STACK CFI 2d6e0 .cfa: sp 0 +
STACK CFI 2d6e4 .cfa: x29 48 +
STACK CFI 2d6fc .cfa: sp 48 +
STACK CFI 2d708 .cfa: sp 0 +
STACK CFI 2d70c .cfa: x29 48 +
STACK CFI INIT 2d720 123c .cfa: sp 0 +
STACK CFI 2d724 .cfa: sp 288 +
STACK CFI 2d750 .cfa: x29 96 + x19: .cfa -8 + ^ x20: .cfa -16 + ^ x21: .cfa -24 + ^ x22: .cfa -32 + ^ x23: .cfa -40 + ^ x24: .cfa -48 + ^ x25: .cfa -56 + ^ x26: .cfa -64 + ^ x27: .cfa -72 + ^ x28: .cfa -80 + ^ .ra: .cfa -88 + ^ x29: .cfa -96 + ^ v8: .cfa -104 + ^ v9: .cfa -112 + ^ v10: .cfa -120 + ^ v11: .cfa -128 + ^ v12: .cfa -136 + ^ v13: .cfa -144 + ^ v14: .cfa -160 + ^
STACK CFI 2e8d8 .cfa: sp 288 +
STACK CFI 2e904 .cfa: sp 0 +
STACK CFI 2e908 .cfa: x29 96 +
STACK CFI INIT 2e95c 580 .cfa: sp 0 +
STACK CFI 2e960 .cfa: sp 128 +
STACK CFI 2e978 .cfa: x29 64 + x19: .cfa -8 + ^ x20: .cfa -16 + ^ x21: .cfa -24 + ^ x22: .cfa -32 + ^ x23: .cfa -48 + ^ .ra: .cfa -56 + ^ x29: .cfa -64 + ^ v8: .cfa -72 + ^ v9: .cfa -80 + ^
STACK CFI 2edd4 .cfa: sp 128 +
STACK CFI 2edec .cfa: sp 0 +
STACK CFI 2edf0 .cfa: x29 64 +
STACK CFI INIT 2eedc 184c .cfa: sp 0 +
STACK CFI 2eee0 .cfa: sp 96 +
STACK CFI 2eef8 .cfa: x29 96 + x19: .cfa -8 + ^ x20: .cfa -16 + ^ x21: .cfa -24 + ^ x22: .cfa -32 + ^ x23: .cfa -40 + ^ x24: .cfa -48 + ^ x25: .cfa -56 + ^ x26: .cfa -64 + ^ x27: .cfa -72 + ^ x28: .cfa -80 + ^ .ra: .cfa -88 + ^ x29: .cfa -96 + ^
STACK CFI 301cc .cfa: sp 96 +
STACK CFI 301e4 .cfa: sp 0 +
STACK CFI 301e8 .cfa: x29 96 +
STACK CFI INIT 30728 184c .cfa: sp 0 +
STACK CFI 3072c .cfa: sp 96 +
STACK CFI 30744 .cfa: x29 96 + x19: .cfa -8 + ^ x20: .cfa -16 + ^ x21: .cfa -24 + ^ x22: .cfa -32 + ^ x23: .cfa -40 + ^ x24: .cfa -48 + ^ x25: .cfa -56 + ^ x26: .cfa -64 + ^ x27: .cfa -72 + ^ x28: .cfa -80 + ^ .ra: .cfa -88 + ^ x29: .cfa -96 + ^
STACK CFI 31a18 .cfa: sp 96 +
STACK CFI 31a30 .cfa: sp 0 +
STACK CFI 31a34 .cfa: x29 96 +
STACK CFI INIT 31f74 175c .cfa: sp 0 +
STACK CFI 31f78 .cfa: sp 96 +
STACK CFI 31f90 .cfa: x29 96 + x19: .cfa -8 + ^ x20: .cfa -16 + ^ x21: .cfa -24 + ^ x22: .cfa -32 + ^ x23: .cfa -40 + ^ x24: .cfa -48 + ^ x25: .cfa -56 + ^ x26: .cfa -64 + ^ x27: .cfa -72 + ^ x28: .cfa -80 + ^ .ra: .cfa -88 + ^ x29: .cfa -96 + ^
STACK CFI 3319c .cfa: sp 96 +
STACK CFI 331b4 .cfa: sp 0 +
STACK CFI 331b8 .cfa: x29 96 +
STACK CFI INIT 336d0 90 .cfa: sp 0 +
STACK CFI 336d4 .cfa: sp 48 +
STACK CFI 336e0 .cfa: x29 32 + x19: .cfa -8 + ^ x20: .cfa -16 + ^ .ra: .cfa -24 + ^ x29: .cfa -32 + ^
STACK CFI 33728 .cfa: sp 48 +
STACK CFI 33734 .cfa: sp 0 +
STACK CFI 33738 .cfa: x29 32 +
STACK CFI INIT 33900 140 .cfa: sp 0 +
STACK CFI 33904 .cfa: sp 336 +
STACK CFI 33918 .cfa: x29 64 + x19: .cfa -8 + ^ x20: .cfa -16 + ^ x21: .cfa -24 + ^ x22: .cfa -32 + ^ x28: .cfa -48 + ^ .ra: .cfa -56 + ^ x29: .cfa -64 + ^
STACK CFI 33a00 .cfa: sp 336 +
STACK CFI 33a14 .cfa: sp 0 +
STACK CFI 33a18 .cfa: x29 64 +
STACK CFI INIT 33c24 480 .cfa: sp 0 +
STACK CFI 33c28 .cfa: sp 224 +
STACK CFI 33c44 .cfa: x29 96 + x19: .cfa -8 + ^ x20: .cfa -16 + ^ x21: .cfa -24 + ^ x22: .cfa -32 + ^ x23: .cfa -40 + ^ x24: .cfa -48 + ^ x25: .cfa -56 + ^ x26: .cfa -64 + ^ x27: .cfa -80 + ^ .ra: .cfa -88 + ^ x29: .cfa -96 + ^
STACK CFI 33eb0 .cfa: sp 224 +
STACK CFI 33ecc .cfa: sp 0 +
STACK CFI 33ed0 .cfa: x29 96 +
STACK CFI 33f9c .cfa: sp 224 +
STACK CFI 33fb8 .cfa: sp 0 +
STACK CFI 33fbc .cfa: x29 96 +
STACK CFI INIT 340c0 308 .cfa: sp 0 +
STACK CFI 340c4 .cfa: sp 176 +
STACK CFI 340d8 .cfa: x29 64 + x19: .cfa -8 + ^ x20: .cfa -16 + ^ x21: .cfa -24 + ^ x22: .cfa -32 + ^ x23: .cfa -48 + ^ .ra: .cfa -56 + ^ x29: .cfa -64 + ^
STACK CFI 342c0 .cfa: sp 176 +
STACK CFI 342d4 .cfa: sp 0 +
STACK CFI 342d8 .cfa: x29 64 +
STACK CFI INIT 344b4 a8 .cfa: sp 0 +
STACK CFI 344b8 .cfa: sp 32 +
STACK CFI 344c0 .cfa: x29 32 + x19: .cfa -16 + ^ .ra: .cfa -24 + ^ x29: .cfa -32 + ^
STACK CFI 344f4 .cfa: sp 32 +
STACK CFI 344fc .cfa: sp 0 +
STACK CFI 34500 .cfa: x29 32 +
STACK CFI 34504 .cfa: sp 32 +
STACK CFI 3450c .cfa: sp 0 +
STACK CFI 34510 .cfa: x29 32 +
STACK CFI INIT 345f8 480 .cfa: sp 0 +
STACK CFI 345fc .cfa: sp 224 +
STACK CFI 34618 .cfa: x29 96 + x19: .cfa -8 + ^ x20: .cfa -16 + ^ x21: .cfa -24 + ^ x22: .cfa -32 + ^ x23: .cfa -40 + ^ x24: .cfa -48 + ^ x25: .cfa -56 + ^ x26: .cfa -64 + ^ x27: .cfa -80 + ^ .ra: .cfa -88 + ^ x29: .cfa -96 + ^
STACK CFI 34884 .cfa: sp 224 +
STACK CFI 348a0 .cfa: sp 0 +
STACK CFI 348a4 .cfa: x29 96 +
STACK CFI 34970 .cfa: sp 224 +
STACK CFI 3498c .cfa: sp 0 +
STACK CFI 34990 .cfa: x29 96 +
STACK CFI INIT 34a94 388 .cfa: sp 0 +
STACK CFI 34a98 .cfa: sp 256 +
STACK CFI 34aac .cfa: x29 64 + x19: .cfa -8 + ^ x20: .cfa -16 + ^ x21: .cfa -24 + ^ x22: .cfa -32 + ^ x23: .cfa -48 + ^ .ra: .cfa -56 + ^ x29: .cfa -64 + ^
STACK CFI 34cf0 .cfa: sp 256 +
STACK CFI 34d04 .cfa: sp 0 +
STACK CFI 34d08 .cfa: x29 64 +
STACK CFI INIT 350bc 2bc .cfa: sp 0 +
STACK CFI 350c0 .cfa: sp 32 +
STACK CFI 350c8 .cfa: x29 32 + x19: .cfa -16 + ^ .ra: .cfa -24 + ^ x29: .cfa -32 + ^
STACK CFI 351fc .cfa: sp 32 +
STACK CFI 35204 .cfa: sp 0 +
STACK CFI 35208 .cfa: x29 32 +
STACK CFI 35314 .cfa: sp 32 +
STACK CFI 3531c .cfa: sp 0 +
STACK CFI 35320 .cfa: x29 32 +
STACK CFI INIT 35378 134 .cfa: sp 0 +
STACK CFI 3537c .cfa: sp 80 +
STACK CFI 35388 .cfa: x29 32 + x19: .cfa -8 + ^ x20: .cfa -16 + ^ .ra: .cfa -24 + ^ x29: .cfa -32 + ^
STACK CFI 353b8 .cfa: sp 80 +
STACK CFI 353c4 .cfa: sp 0 +
STACK CFI 353c8 .cfa: x29 32 +
STACK CFI INIT 354ac 78 .cfa: sp 0 +
STACK CFI 354b0 .cfa: sp 32 +
STACK CFI 354b8 .cfa: x29 32 + x19: .cfa -8 + ^ x20: .cfa -16 + ^ .ra: .cfa -24 + ^ x29: .cfa -32 + ^
STACK CFI 354c4 .cfa: sp 32 +
STACK CFI 354cc .cfa: sp 0 +
STACK CFI 354d0 .cfa: x29 32 +
STACK CFI INIT 35524 74 .cfa: sp 0 +
STACK CFI 35528 .cfa: sp 48 +
STACK CFI 35534 .cfa: x29 32 + x19: .cfa -8 + ^ x20: .cfa -16 + ^ .ra: .cfa -24 + ^ x29: .cfa -32 + ^
STACK CFI 35580 .cfa: sp 48 +
STACK CFI 3558c .cfa: sp 0 +
STACK CFI 35590 .cfa: x29 32 +
STACK CFI INIT 35698 630 .cfa: sp 0 +
STACK CFI 3569c .cfa: sp 112 +
STACK CFI 356ac .cfa: x29 48 + x19: .cfa -8 + ^ x20: .cfa -16 + ^ x21: .cfa -32 + ^ .ra: .cfa -40 + ^ x29: .cfa -48 + ^
STACK CFI 3583c .cfa: sp 112 +
STACK CFI 3584c .cfa: sp 0 +
STACK CFI 35850 .cfa: x29 48 +
STACK CFI INIT 35cc8 254 .cfa: sp 0 +
STACK CFI 35ccc .cfa: sp 128 +
STACK CFI 35ce0 .cfa: x29 64 + x19: .cfa -8 + ^ x20: .cfa -16 + ^ x21: .cfa -24 + ^ x22: .cfa -32 + ^ x23: .cfa -48 + ^ .ra: .cfa -56 + ^ x29: .cfa -64 + ^
STACK CFI 35db0 .cfa: sp 128 +
STACK CFI 35dc4 .cfa: sp 0 +
STACK CFI 35dc8 .cfa: x29 64 +
STACK CFI INIT 35fc4 160 .cfa: sp 0 +
STACK CFI 35fc8 .cfa: sp 144 +
STACK CFI 35fdc .cfa: x29 64 + x19: .cfa -8 + ^ x20: .cfa -16 + ^ x21: .cfa -24 + ^ x22: .cfa -32 + ^ x23: .cfa -48 + ^ .ra: .cfa -56 + ^ x29: .cfa -64 + ^
STACK CFI 3602c .cfa: sp 144 +
STACK CFI 36040 .cfa: sp 0 +
STACK CFI 36044 .cfa: x29 64 +
STACK CFI INIT 36124 108 .cfa: sp 0 +
STACK CFI 36128 .cfa: sp 64 +
STACK CFI 36138 .cfa: x29 48 + x19: .cfa -8 + ^ x20: .cfa -16 + ^ x21: .cfa -24 + ^ x22: .cfa -32 + ^ .ra: .cfa -40 + ^ x29: .cfa -48 + ^
STACK CFI 361e4 .cfa: sp 64 +
STACK CFI 361f4 .cfa: sp 0 +
STACK CFI 361f8 .cfa: x29 48 +
STACK CFI INIT 3622c 150 .cfa: sp 0 +
STACK CFI 36230 .cfa: sp 128 +
STACK CFI 36240 .cfa: x29 48 + x19: .cfa -8 + ^ x20: .cfa -16 + ^ x21: .cfa -24 + ^ x22: .cfa -32 + ^ .ra: .cfa -40 + ^ x29: .cfa -48 + ^
STACK CFI 36288 .cfa: sp 128 +
STACK CFI 36298 .cfa: sp 0 +
STACK CFI 3629c .cfa: x29 48 +
STACK CFI INIT 3637c a8 .cfa: sp 0 +
STACK CFI 36380 .cfa: sp 64 +
STACK CFI 36390 .cfa: x29 48 + x19: .cfa -8 + ^ x20: .cfa -16 + ^ x21: .cfa -32 + ^ .ra: .cfa -40 + ^ x29: .cfa -48 + ^
STACK CFI 363f8 .cfa: sp 64 +
STACK CFI 36408 .cfa: sp 0 +
STACK CFI 3640c .cfa: x29 48 +
STACK CFI INIT 36478 1b8 .cfa: sp 0 +
STACK CFI 3647c .cfa: sp 160 +
STACK CFI 36498 .cfa: x29 72 + x19: .cfa -8 + ^ x20: .cfa -16 + ^ x21: .cfa -24 + ^ x22: .cfa -32 + ^ x23: .cfa -40 + ^ x24: .cfa -48 + ^ x25: .cfa -56 + ^ .ra: .cfa -64 + ^ x29: .cfa -72 + ^ v8: .cfa -80 + ^
STACK CFI 3651c .cfa: sp 160 +
STACK CFI 36538 .cfa: sp 0 +
STACK CFI 3653c .cfa: x29 72 +
STACK CFI INIT 36630 4e4 .cfa: sp 0 +
STACK CFI 36634 .cfa: sp 96 +
STACK CFI 3664c .cfa: x29 80 + x19: .cfa -8 + ^ x20: .cfa -16 + ^ x21: .cfa -24 + ^ x22: .cfa -32 + ^ x23: .cfa -40 + ^ x24: .cfa -48 + ^ x25: .cfa -64 + ^ .ra: .cfa -72 + ^ x29: .cfa -80 + ^
STACK CFI 36a90 .cfa: sp 96 +
STACK CFI 36aa8 .cfa: sp 0 +
STACK CFI 36aac .cfa: x29 80 +
STACK CFI INIT 36b14 178 .cfa: sp 0 +
STACK CFI 36b18 .cfa: sp 128 +
STACK CFI 36b28 .cfa: x29 48 + x19: .cfa -8 + ^ x20: .cfa -16 + ^ x21: .cfa -24 + ^ x22: .cfa -32 + ^ .ra: .cfa -40 + ^ x29: .cfa -48 + ^
STACK CFI 36b84 .cfa: sp 128 +
STACK CFI 36b94 .cfa: sp 0 +
STACK CFI 36b98 .cfa: x29 48 +
STACK CFI INIT 36c8c a4 .cfa: sp 0 +
STACK CFI 36c90 .cfa: sp 48 +
STACK CFI 36c9c .cfa: x29 48 + x19: .cfa -8 + ^ x20: .cfa -16 + ^ x21: .cfa -32 + ^ .ra: .cfa -40 + ^ x29: .cfa -48 + ^
STACK CFI 36d08 .cfa: sp 48 +
STACK CFI 36d14 .cfa: sp 0 +
STACK CFI 36d18 .cfa: x29 48 +
STACK CFI INIT 36d34 25c .cfa: sp 0 +
STACK CFI 36d38 .cfa: sp 128 +
STACK CFI 36d4c .cfa: x29 64 + x19: .cfa -8 + ^ x20: .cfa -16 + ^ x21: .cfa -24 + ^ x22: .cfa -32 + ^ x23: .cfa -48 + ^ .ra: .cfa -56 + ^ x29: .cfa -64 + ^
STACK CFI 36e24 .cfa: sp 128 +
STACK CFI 36e38 .cfa: sp 0 +
STACK CFI 36e3c .cfa: x29 64 +
STACK CFI INIT 36f90 2bc .cfa: sp 0 +
STACK CFI 36f94 .cfa: sp 128 +
STACK CFI 36fa8 .cfa: x29 64 + x19: .cfa -8 + ^ x20: .cfa -16 + ^ x21: .cfa -24 + ^ x22: .cfa -32 + ^ x23: .cfa -40 + ^ x24: .cfa -48 + ^ .ra: .cfa -56 + ^ x29: .cfa -64 + ^
STACK CFI 370e0 .cfa: sp 128 +
STACK CFI 370f4 .cfa: sp 0 +
STACK CFI 370f8 .cfa: x29 64 +
STACK CFI INIT 3724c 22c .cfa: sp 0 +
STACK CFI 37250 .cfa: sp 128 +
STACK CFI 37264 .cfa: x29 64 + x19: .cfa -8 + ^ x20: .cfa -16 + ^ x21: .cfa -24 + ^ x22: .cfa -32 + ^ x23: .cfa -48 + ^ .ra: .cfa -56 + ^ x29: .cfa -64 + ^
STACK CFI 3730c .cfa: sp 128 +
STACK CFI 37320 .cfa: sp 0 +
STACK CFI 37324 .cfa: x29 64 +
STACK CFI INIT 37478 24c .cfa: sp 0 +
STACK CFI 3747c .cfa: sp 128 +
STACK CFI 37490 .cfa: x29 64 + x19: .cfa -8 + ^ x20: .cfa -16 + ^ x21: .cfa -24 + ^ x22: .cfa -32 + ^ x23: .cfa -48 + ^ .ra: .cfa -56 + ^ x29: .cfa -64 + ^
STACK CFI 37558 .cfa: sp 128 +
STACK CFI 3756c .cfa: sp 0 +
STACK CFI 37570 .cfa: x29 64 +
STACK CFI INIT 376c4 22c .cfa: sp 0 +
STACK CFI 376c8 .cfa: sp 128 +
STACK CFI 376dc .cfa: x29 64 + x19: .cfa -8 + ^ x20: .cfa -16 + ^ x21: .cfa -24 + ^ x22: .cfa -32 + ^ x23: .cfa -48 + ^ .ra: .cfa -56 + ^ x29: .cfa -64 + ^
STACK CFI 37784 .cfa: sp 128 +
STACK CFI 37798 .cfa: sp 0 +
STACK CFI 3779c .cfa: x29 64 +
STACK CFI INIT 378f0 154 .cfa: sp 0 +
STACK CFI 378f4 .cfa: sp 384 +
STACK CFI 37908 .cfa: x29 64 + x19: .cfa -8 + ^ x20: .cfa -16 + ^ x21: .cfa -24 + ^ x22: .cfa -32 + ^ x23: .cfa -40 + ^ x28: .cfa -48 + ^ .ra: .cfa -56 + ^ x29: .cfa -64 + ^
STACK CFI 379ec .cfa: sp 384 +
STACK CFI 37a00 .cfa: sp 0 +
STACK CFI 37a04 .cfa: x29 64 +
STACK CFI INIT 37a5c 4e0 .cfa: sp 0 +
STACK CFI 37a60 .cfa: sp 64 +
STACK CFI 37a70 .cfa: x29 64 + x19: .cfa -8 + ^ x20: .cfa -16 + ^ x21: .cfa -24 + ^ x22: .cfa -32 + ^ x23: .cfa -40 + ^ x24: .cfa -48 + ^ .ra: .cfa -56 + ^ x29: .cfa -64 + ^
STACK CFI 37f10 .cfa: sp 64 +
STACK CFI 37f20 .cfa: sp 0 +
STACK CFI 37f24 .cfa: x29 64 +
STACK CFI INIT 3826c 294 .cfa: sp 0 +
STACK CFI 38270 .cfa: sp 240 +
STACK CFI 38288 .cfa: x29 80 + x19: .cfa -8 + ^ x20: .cfa -16 + ^ x21: .cfa -24 + ^ x22: .cfa -32 + ^ x23: .cfa -40 + ^ x24: .cfa -48 + ^ x25: .cfa -64 + ^ .ra: .cfa -72 + ^ x29: .cfa -80 + ^
STACK CFI 38428 .cfa: sp 240 +
STACK CFI 38440 .cfa: sp 0 +
STACK CFI 38444 .cfa: x29 80 +
STACK CFI INIT 3857c 50 .cfa: sp 0 +
STACK CFI 38580 .cfa: sp 32 +
STACK CFI 38588 .cfa: x29 32 + x19: .cfa -8 + ^ x20: .cfa -16 + ^ .ra: .cfa -24 + ^ x29: .cfa -32 + ^
STACK CFI INIT 385f8 7c0 .cfa: sp 0 +
STACK CFI 385fc .cfa: sp 320 +
STACK CFI 38618 .cfa: x29 96 + x19: .cfa -8 + ^ x20: .cfa -16 + ^ x21: .cfa -24 + ^ x22: .cfa -32 + ^ x23: .cfa -40 + ^ x24: .cfa -48 + ^ x25: .cfa -56 + ^ x26: .cfa -64 + ^ x27: .cfa -72 + ^ x28: .cfa -80 + ^ .ra: .cfa -88 + ^ x29: .cfa -96 + ^
STACK CFI 38c68 .cfa: sp 320 +
STACK CFI 38c84 .cfa: sp 0 +
STACK CFI 38c88 .cfa: x29 96 +
STACK CFI INIT 3d138 c74 .cfa: sp 0 +
STACK CFI 3d13c .cfa: sp 96 +
STACK CFI 3d154 .cfa: x29 96 + x19: .cfa -8 + ^ x20: .cfa -16 + ^ x21: .cfa -24 + ^ x22: .cfa -32 + ^ x23: .cfa -40 + ^ x24: .cfa -48 + ^ x25: .cfa -56 + ^ x26: .cfa -64 + ^ x27: .cfa -72 + ^ x28: .cfa -80 + ^ .ra: .cfa -88 + ^ x29: .cfa -96 + ^
STACK CFI 3dbcc .cfa: sp 96 +
STACK CFI 3dbe4 .cfa: sp 0 +
STACK CFI 3dbe8 .cfa: x29 96 +
STACK CFI INIT 3df00 26c .cfa: sp 0 +
STACK CFI 3df04 .cfa: sp 128 +
STACK CFI 3df14 .cfa: x29 48 + x19: .cfa -8 + ^ x20: .cfa -16 + ^ x21: .cfa -24 + ^ x22: .cfa -32 + ^ .ra: .cfa -40 + ^ x29: .cfa -48 + ^
STACK CFI 3e0b8 .cfa: sp 128 +
STACK CFI 3e0c8 .cfa: sp 0 +
STACK CFI 3e0cc .cfa: x29 48 +
STACK CFI INIT 3e4fc 3b8 .cfa: sp 0 +
STACK CFI 3e500 .cfa: sp 96 +
STACK CFI 3e518 .cfa: x29 96 + x19: .cfa -8 + ^ x20: .cfa -16 + ^ x21: .cfa -24 + ^ x22: .cfa -32 + ^ x23: .cfa -40 + ^ x24: .cfa -48 + ^ x25: .cfa -56 + ^ x26: .cfa -64 + ^ x27: .cfa -72 + ^ x28: .cfa -80 + ^ .ra: .cfa -88 + ^ x29: .cfa -96 + ^
STACK CFI 3e854 .cfa: sp 96 +
STACK CFI 3e86c .cfa: sp 0 +
STACK CFI 3e870 .cfa: x29 96 +
STACK CFI INIT 3e954 cb4 .cfa: sp 0 +
STACK CFI 3e958 .cfa: sp 96 +
STACK CFI 3e970 .cfa: x29 96 + x19: .cfa -8 + ^ x20: .cfa -16 + ^ x21: .cfa -24 + ^ x22: .cfa -32 + ^ x23: .cfa -40 + ^ x24: .cfa -48 + ^ x25: .cfa -56 + ^ x26: .cfa -64 + ^ x27: .cfa -72 + ^ x28: .cfa -80 + ^ .ra: .cfa -88 + ^ x29: .cfa -96 + ^
STACK CFI 3f418 .cfa: sp 96 +
STACK CFI 3f430 .cfa: sp 0 +
STACK CFI 3f434 .cfa: x29 96 +
STACK CFI INIT 3f8f0 afc .cfa: sp 0 +
STACK CFI 3f8f4 .cfa: sp 96 +
STACK CFI 3f90c .cfa: x29 96 + x19: .cfa -8 + ^ x20: .cfa -16 + ^ x21: .cfa -24 + ^ x22: .cfa -32 + ^ x23: .cfa -40 + ^ x24: .cfa -48 + ^ x25: .cfa -56 + ^ x26: .cfa -64 + ^ x27: .cfa -72 + ^ x28: .cfa -80 + ^ .ra: .cfa -88 + ^ x29: .cfa -96 + ^
STACK CFI 40360 .cfa: sp 96 +
STACK CFI 40378 .cfa: sp 0 +
STACK CFI 4037c .cfa: x29 96 +
STACK CFI INIT 405c8 1430 .cfa: sp 0 +
STACK CFI 405cc .cfa: sp 96 +
STACK CFI 405e4 .cfa: x29 96 + x19: .cfa -8 + ^ x20: .cfa -16 + ^ x21: .cfa -24 + ^ x22: .cfa -32 + ^ x23: .cfa -40 + ^ x24: .cfa -48 + ^ x25: .cfa -56 + ^ x26: .cfa -64 + ^ x27: .cfa -72 + ^ x28: .cfa -80 + ^ .ra: .cfa -88 + ^ x29: .cfa -96 + ^
STACK CFI 41880 .cfa: sp 96 +
STACK CFI 41898 .cfa: sp 0 +
STACK CFI 4189c .cfa: x29 96 +
STACK CFI INIT 41b1c 75c .cfa: sp 0 +
STACK CFI 41b20 .cfa: sp 368 +
STACK CFI 41b3c .cfa: x29 96 + x19: .cfa -8 + ^ x20: .cfa -16 + ^ x21: .cfa -24 + ^ x22: .cfa -32 + ^ x23: .cfa -40 + ^ x24: .cfa -48 + ^ x25: .cfa -56 + ^ x26: .cfa -64 + ^ x27: .cfa -72 + ^ x28: .cfa -80 + ^ .ra: .cfa -88 + ^ x29: .cfa -96 + ^
STACK CFI 41bf0 .cfa: sp 368 +
STACK CFI 41c0c .cfa: sp 0 +
STACK CFI 41c10 .cfa: x29 96 +
STACK CFI 41c64 .cfa: sp 368 +
STACK CFI 41c80 .cfa: sp 0 +
STACK CFI 41c84 .cfa: x29 96 +
STACK CFI INIT 42638 eb0 .cfa: sp 0 +
STACK CFI 4263c .cfa: sp 96 +
STACK CFI 42654 .cfa: x29 96 + x19: .cfa -8 + ^ x20: .cfa -16 + ^ x21: .cfa -24 + ^ x22: .cfa -32 + ^ x23: .cfa -40 + ^ x24: .cfa -48 + ^ x25: .cfa -56 + ^ x26: .cfa -64 + ^ x27: .cfa -72 + ^ x28: .cfa -80 + ^ .ra: .cfa -88 + ^ x29: .cfa -96 + ^
STACK CFI 432fc .cfa: sp 96 +
STACK CFI 43314 .cfa: sp 0 +
STACK CFI 43318 .cfa: x29 96 +
STACK CFI INIT 4385c 1c9c .cfa: sp 0 +
STACK CFI 43860 .cfa: sp 112 +
STACK CFI 4387c .cfa: x29 96 + x19: .cfa -8 + ^ x20: .cfa -16 + ^ x21: .cfa -24 + ^ x22: .cfa -32 + ^ x23: .cfa -40 + ^ x24: .cfa -48 + ^ x25: .cfa -56 + ^ x26: .cfa -64 + ^ x27: .cfa -72 + ^ x28: .cfa -80 + ^ .ra: .cfa -88 + ^ x29: .cfa -96 + ^ v8: .cfa -112 + ^
STACK CFI 43c64 .cfa: sp 112 +
STACK CFI 43c80 .cfa: sp 0 +
STACK CFI 43c84 .cfa: x29 96 +
STACK CFI INIT 47cbc 9a0 .cfa: sp 0 +
STACK CFI 47cc0 .cfa: sp 144 +
STACK CFI 47cd8 .cfa: x29 80 + x19: .cfa -8 + ^ x20: .cfa -16 + ^ x21: .cfa -24 + ^ x22: .cfa -32 + ^ x23: .cfa -40 + ^ x24: .cfa -48 + ^ x25: .cfa -64 + ^ .ra: .cfa -72 + ^ x29: .cfa -80 + ^
STACK CFI 485d8 .cfa: sp 144 +
STACK CFI 485f0 .cfa: sp 0 +
STACK CFI 485f4 .cfa: x29 80 +
STACK CFI INIT 49b80 57c .cfa: sp 0 +
STACK CFI 49b84 .cfa: sp 96 +
STACK CFI 49b9c .cfa: x29 96 + x19: .cfa -8 + ^ x20: .cfa -16 + ^ x21: .cfa -24 + ^ x22: .cfa -32 + ^ x23: .cfa -40 + ^ x24: .cfa -48 + ^ x25: .cfa -56 + ^ x26: .cfa -64 + ^ x27: .cfa -72 + ^ x28: .cfa -80 + ^ .ra: .cfa -88 + ^ x29: .cfa -96 + ^
STACK CFI 4a060 .cfa: sp 96 +
STACK CFI 4a078 .cfa: sp 0 +
STACK CFI 4a07c .cfa: x29 96 +
STACK CFI INIT 4a0fc 67c .cfa: sp 0 +
STACK CFI 4a100 .cfa: sp 96 +
STACK CFI 4a118 .cfa: x29 96 + x19: .cfa -8 + ^ x20: .cfa -16 + ^ x21: .cfa -24 + ^ x22: .cfa -32 + ^ x23: .cfa -40 + ^ x24: .cfa -48 + ^ x25: .cfa -56 + ^ x26: .cfa -64 + ^ x27: .cfa -72 + ^ x28: .cfa -80 + ^ .ra: .cfa -88 + ^ x29: .cfa -96 + ^
STACK CFI 4a6dc .cfa: sp 96 +
STACK CFI 4a6f4 .cfa: sp 0 +
STACK CFI 4a6f8 .cfa: x29 96 +
