MODULE Linux arm 4C9F1E5470441DAE5D5D80CE620DD95B0 ninsam.day_and_night_system.android32.so
INFO CODE_ID 541E9F4C4470AE1D5D5D80CE620DD95BF1E04B6B
INFO GENERATOR mozilla/dump_syms 2.3.4
PUBLIC b210 0 __on_dlclose
PUBLIC b220 0 __emutls_unregister_key
PUBLIC b224 0 __on_dlclose_late
PUBLIC b228 0 __atexit_handler_wrapper
PUBLIC b234 0 atexit
PUBLIC b254 0 pthread_atfork
FUNC b264 2d0 0 __cxx_global_var_init
FUNC b534 20 0 geode::modifier::ModifyBase<geode::modifier::ModifyDerive<hook7<(anonymous namespace)::hook7Parent>, LevelInfoLayer> >::~ModifyBase()
FUNC b560 340 0 geode::modifier::ModifyDerive<hook7<(anonymous namespace)::hook7Parent>, LevelInfoLayer>::apply()
FUNC b8a0 3a 0 std::__ndk1::shared_ptr<geode::Hook>::~shared_ptr[abi:ne180000]()
FUNC b8dc 60 0 geode::impl::ResultData<geode::Hook*, std::__ndk1::basic_string<char, std::__ndk1::char_traits<char>, std::__ndk1::allocator<char> > >::~ResultData()
FUNC b93c 3e 0 std::__ndk1::vector<std::__ndk1::basic_string<char, std::__ndk1::char_traits<char>, std::__ndk1::allocator<char> >, std::__ndk1::allocator<std::__ndk1::basic_string<char, std::__ndk1::char_traits<char>, std::__ndk1::allocator<char> > > >::~vector[abi:ne180000]()
FUNC b97a 2 0 geode::modifier::ModifyBase<geode::modifier::ModifyDerive<hook7<(anonymous namespace)::hook7Parent>, LevelInfoLayer> >::apply()
PUBLIC b97d 0 __clang_call_terminate
FUNC b988 f8 0 _ZN5geode15UnwrapExceptionC2IRPNS_4HookEQsr4implE18IsStringStreamableIT_EEENS_4impl5OkTagEOS5_
FUNC ba80 34 0 std::__ndk1::__throw_bad_variant_access[abi:ne180000]()
FUNC bab4 d8 0 std::__ndk1::basic_stringstream<char, std::__ndk1::char_traits<char>, std::__ndk1::allocator<char> >::basic_stringstream[abi:ne180000]()
FUNC bb8c 68 0 std::__ndk1::basic_stringstream<char, std::__ndk1::char_traits<char>, std::__ndk1::allocator<char> >::~basic_stringstream()
FUNC bbf4 10 0 geode::UnwrapException::~UnwrapException()
FUNC bc04 108 0 std::__ndk1::__put_character_sequence[abi:ne180000]<char, std::__ndk1::char_traits<char> >(std::__ndk1::basic_ostream<char, std::__ndk1::char_traits<char> >, std::__ndk1::basic_ostream const*, unsigned int)
FUNC bd0c 110 0 std::__ndk1::__pad_and_output[abi:ne180000]<char, std::__ndk1::char_traits<char> >(std::__ndk1::char_traits<char>, std::__ndk1::ostreambuf_iterator const*, std::__ndk1::ostreambuf_iterator const, std::__ndk1::ostreambuf_iterator const, std::__ndk1::ios_base&, std::__ndk1::ostreambuf_iterator)
FUNC be1c 10 0 std::__ndk1::basic_string<char, std::__ndk1::char_traits<char>, std::__ndk1::allocator<char> >::__throw_length_error[abi:ne180000]() const
FUNC be2c 38 0 std::__ndk1::__throw_length_error[abi:ne180000](char const*)
FUNC be64 18 0 std::length_error::length_error[abi:ne180000](char const*)
FUNC be7c 28 0 std::__throw_bad_array_new_length([abi:ne180000], void)
FUNC bea4 ce 0 std::__ndk1::basic_stringbuf<char, std::__ndk1::char_traits<char>, std::__ndk1::allocator<char> >::str[abi:ne180000]() &&
FUNC bf72 e0 0 std::__ndk1::basic_stringbuf<char, std::__ndk1::char_traits<char>, std::__ndk1::allocator<char> >::__init_buf_ptrs[abi:ne180000]()
FUNC c054 164 0 std::__ndk1::vector<std::__ndk1::basic_string<char, std::__ndk1::char_traits<char>, std::__ndk1::allocator<char> >, std::__ndk1::allocator<std::__ndk1::basic_string<char, std::__ndk1::char_traits<char>, std::__ndk1::allocator<char> > > >::__push_back_slow_path<std::__ndk1::basic_string<char, std::__ndk1::char_traits<char>, std::__ndk1::allocator<char> > const&>(std::__ndk1::basic_string<char, std::__ndk1::char_traits<char>, std::__ndk1::allocator<char> > const&)
FUNC c1b8 46 0 std::__ndk1::basic_string<char, std::__ndk1::char_traits<char>, std::__ndk1::allocator<char> >::__init_copy_ctor_external(char const*, unsigned int)
FUNC c1fe 3c 0 std::__ndk1::__split_buffer<std::__ndk1::basic_string<char, std::__ndk1::char_traits<char>, std::__ndk1::allocator<char> >, std::__ndk1::allocator<std::__ndk1::basic_string<char, std::__ndk1::char_traits<char>, std::__ndk1::allocator<char> > >&>::~__split_buffer()
FUNC c23c 10 0 std::__ndk1::vector<std::__ndk1::basic_string<char, std::__ndk1::char_traits<char>, std::__ndk1::allocator<char> >, std::__ndk1::allocator<std::__ndk1::basic_string<char, std::__ndk1::char_traits<char>, std::__ndk1::allocator<char> > > >::__throw_length_error[abi:ne180000]() const
FUNC c24c 2 0 std::__ndk1::__variant_detail::__visitation::__base::__dispatcher<(unsigned int)0>::__dispatch[abi:ne180000]<std::__ndk1::__variant_detail::__dtor<std::__ndk1::__variant_detail::__traits<geode::Hook*, std::__ndk1::basic_string<char, std::__ndk1::char_traits<char>, std::__ndk1::allocator<char> > >, (std::__ndk1::__variant_detail::_Trait)1>::__destroy[abi:ne180000]()::{lambda(auto:1&)#1}, std::__ndk1::__variant_detail::__base<(std::__ndk1::__variant_detail::__traits<geode::Hook*, std::__ndk1::basic_string<char, std::__ndk1::char_traits<char>, std::__ndk1::allocator<char> > >)1, geode::Hook, std::__ndk1::allocator<char> >&>(std::__ndk1::__variant_detail::__dtor<std::__ndk1::__variant_detail::__traits<geode::Hook*, std::__ndk1::basic_string<char, std::__ndk1::char_traits<char>, std::__ndk1::allocator<char> > >, (std::__ndk1::__variant_detail::_Trait)1>, std::__ndk1::__variant_detail::__base<(std::__ndk1::__variant_detail::__traits<geode::Hook*, std::__ndk1::basic_string<char, std::__ndk1::char_traits<char>, std::__ndk1::allocator<char> > >)1, geode::Hook, std::__ndk1::allocator<char> >&)
FUNC c24e e 0 std::__ndk1::__variant_detail::__visitation::__base::__dispatcher<(unsigned int)1>::__dispatch[abi:ne180000]<std::__ndk1::__variant_detail::__dtor<std::__ndk1::__variant_detail::__traits<geode::Hook*, std::__ndk1::basic_string<char, std::__ndk1::char_traits<char>, std::__ndk1::allocator<char> > >, (std::__ndk1::__variant_detail::_Trait)1>::__destroy[abi:ne180000]()::{lambda(auto:1&)#1}, std::__ndk1::__variant_detail::__base<(std::__ndk1::__variant_detail::__traits<geode::Hook*, std::__ndk1::basic_string<char, std::__ndk1::char_traits<char>, std::__ndk1::allocator<char> > >)1, geode::Hook, std::__ndk1::allocator<char> >&>(std::__ndk1::__variant_detail::__dtor<std::__ndk1::__variant_detail::__traits<geode::Hook*, std::__ndk1::basic_string<char, std::__ndk1::char_traits<char>, std::__ndk1::allocator<char> > >, (std::__ndk1::__variant_detail::_Trait)1>, std::__ndk1::__variant_detail::__base<(std::__ndk1::__variant_detail::__traits<geode::Hook*, std::__ndk1::basic_string<char, std::__ndk1::char_traits<char>, std::__ndk1::allocator<char> > >)1, geode::Hook, std::__ndk1::allocator<char> >&)
FUNC c25c c0 0 std::__ndk1::__tree<std::__ndk1::__value_type<std::__ndk1::basic_string<char, std::__ndk1::char_traits<char>, std::__ndk1::allocator<char> >, std::__ndk1::shared_ptr<geode::Hook> >, std::__ndk1::__map_value_compare<std::__ndk1::basic_string<char, std::__ndk1::char_traits<char>, std::__ndk1::allocator<char> >, std::__ndk1::__value_type<std::__ndk1::basic_string<char, std::__ndk1::char_traits<char>, std::__ndk1::allocator<char> >, std::__ndk1::shared_ptr<geode::Hook> >, std::__ndk1::less<std::__ndk1::basic_string<char, std::__ndk1::char_traits<char>, std::__ndk1::allocator<char> > >, true>, std::__ndk1::allocator<std::__ndk1::__value_type<std::__ndk1::basic_string<char, std::__ndk1::char_traits<char>, std::__ndk1::allocator<char> >, std::__ndk1::shared_ptr<geode::Hook> > > >::find<std::__ndk1::basic_string<char, std::__ndk1::char_traits<char>, std::__ndk1::allocator<char> > >(std::__ndk1::basic_string<char, std::__ndk1::char_traits<char>, std::__ndk1::allocator<char> > const&)
FUNC c31c 82 0 std::__ndk1::__tree<std::__ndk1::__value_type<std::__ndk1::basic_string<char, std::__ndk1::char_traits<char>, std::__ndk1::allocator<char> >, std::__ndk1::shared_ptr<geode::Hook> >, std::__ndk1::__map_value_compare<std::__ndk1::basic_string<char, std::__ndk1::char_traits<char>, std::__ndk1::allocator<char> >, std::__ndk1::__value_type<std::__ndk1::basic_string<char, std::__ndk1::char_traits<char>, std::__ndk1::allocator<char> >, std::__ndk1::shared_ptr<geode::Hook> >, std::__ndk1::less<std::__ndk1::basic_string<char, std::__ndk1::char_traits<char>, std::__ndk1::allocator<char> > >, true>, std::__ndk1::allocator<std::__ndk1::__value_type<std::__ndk1::basic_string<char, std::__ndk1::char_traits<char>, std::__ndk1::allocator<char> >, std::__ndk1::shared_ptr<geode::Hook> > > >::erase(std::__ndk1::__tree_const_iterator<std::__ndk1::__value_type<std::__ndk1::basic_string<char, std::__ndk1::char_traits<char>, std::__ndk1::allocator<char> >, std::__ndk1::shared_ptr<geode::Hook> >, std::__ndk1::__tree_node<std::__ndk1::__value_type<std::__ndk1::basic_string<char, std::__ndk1::char_traits<char>, std::__ndk1::allocator<char> >, std::__ndk1::shared_ptr<geode::Hook> >, void*>*, int>)
FUNC c39e 274 0 std::__ndk1::__tree_remove[abi:ne180000]<std::__ndk1::__tree_node_base<void*>*>(std::__ndk1::__tree_node_base<void*>*, std::__ndk1::__tree_node_base<void*>*)
FUNC c612 5e 0 std::__ndk1::__tree<std::__ndk1::__value_type<std::__ndk1::basic_string<char, std::__ndk1::char_traits<char>, std::__ndk1::allocator<char> >, std::__ndk1::shared_ptr<geode::Hook> >, std::__ndk1::__map_value_compare<std::__ndk1::basic_string<char, std::__ndk1::char_traits<char>, std::__ndk1::allocator<char> >, std::__ndk1::__value_type<std::__ndk1::basic_string<char, std::__ndk1::char_traits<char>, std::__ndk1::allocator<char> >, std::__ndk1::shared_ptr<geode::Hook> >, std::__ndk1::less<std::__ndk1::basic_string<char, std::__ndk1::char_traits<char>, std::__ndk1::allocator<char> > >, true>, std::__ndk1::allocator<std::__ndk1::__value_type<std::__ndk1::basic_string<char, std::__ndk1::char_traits<char>, std::__ndk1::allocator<char> >, std::__ndk1::shared_ptr<geode::Hook> > > >::destroy(std::__ndk1::__tree_node<std::__ndk1::__value_type<std::__ndk1::basic_string<char, std::__ndk1::char_traits<char>, std::__ndk1::allocator<char> >, std::__ndk1::shared_ptr<geode::Hook> >, void*>*)
FUNC c670 1a0 0 geode::modifier::AsStaticFunction_init<hook7<(anonymous namespace)::hook7Parent>, bool (hook7<(anonymous namespace)::hook7Parent>::*)(GJGameLevel*, bool)>::Impl<bool (hook7<(anonymous namespace)::hook7Parent>::*)(GJGameLevel*, bool)>::function(hook7<(anonymous namespace)::hook7Parent>*, GJGameLevel*, bool)
FUNC c810 3a 0 std::__ndk1::shared_ptr<tulip::hook::CallingConvention>::~shared_ptr[abi:ne180000]()
FUNC c84a 46 0 tulip::hook::HandlerMetadata::~HandlerMetadata()
FUNC c890 ba 0 std::__ndk1::__tree<std::__ndk1::__value_type<std::__ndk1::basic_string<char, std::__ndk1::char_traits<char>, std::__ndk1::allocator<char> >, std::__ndk1::shared_ptr<geode::Hook> >, std::__ndk1::__map_value_compare<std::__ndk1::basic_string<char, std::__ndk1::char_traits<char>, std::__ndk1::allocator<char> >, std::__ndk1::__value_type<std::__ndk1::basic_string<char, std::__ndk1::char_traits<char>, std::__ndk1::allocator<char> >, std::__ndk1::shared_ptr<geode::Hook> >, std::__ndk1::less<std::__ndk1::basic_string<char, std::__ndk1::char_traits<char>, std::__ndk1::allocator<char> > >, true>, std::__ndk1::allocator<std::__ndk1::__value_type<std::__ndk1::basic_string<char, std::__ndk1::char_traits<char>, std::__ndk1::allocator<char> >, std::__ndk1::shared_ptr<geode::Hook> > > >::__find_equal<std::__ndk1::basic_string<char, std::__ndk1::char_traits<char>, std::__ndk1::allocator<char> > >(std::__ndk1::__tree_end_node<std::__ndk1::__tree_node_base<void*>*>*&, std::__ndk1::basic_string<char, std::__ndk1::char_traits<char>, std::__ndk1::allocator<char> > const&)
FUNC c94a 14a 0 std::__ndk1::__tree_balance_after_insert[abi:ne180000]<std::__ndk1::__tree_node_base<void*>*>(std::__ndk1::__tree_node_base<void*>*, std::__ndk1::__tree_node_base<void*>*)
FUNC ca94 2d0 0 __cxx_global_var_init
FUNC cd64 20 0 geode::modifier::ModifyBase<geode::modifier::ModifyDerive<hook7<(anonymous namespace)::hook7Parent>, MenuLayer> >::~ModifyBase()
FUNC cd84 2c8 0 geode::modifier::ModifyDerive<hook7<(anonymous namespace)::hook7Parent>, MenuLayer>::apply()
FUNC d04c 2 0 geode::modifier::ModifyBase<geode::modifier::ModifyDerive<hook7<(anonymous namespace)::hook7Parent>, MenuLayer> >::apply()
FUNC d050 7c 0 geode::addresser::getVirtual<bool (MenuLayer::*)()>(bool (MenuLayer::*)())
FUNC d0cc 19c 0 geode::modifier::AsStaticFunction_init<hook7<(anonymous namespace)::hook7Parent>, bool (hook7<(anonymous namespace)::hook7Parent>::*)()>::Impl<bool (hook7<(anonymous namespace)::hook7Parent>::*)()>::function(hook7<(anonymous namespace)::hook7Parent>*)
FUNC d268 6c 0 MenuLayer::MenuLayer(geode::ZeroConstructorType)
FUNC d2d4 2d0 0 __cxx_global_var_init
FUNC d5a4 20 0 geode::modifier::ModifyBase<geode::modifier::ModifyDerive<hook7<(anonymous namespace)::hook7Parent>, CreatorLayer> >::~ModifyBase()
FUNC d5c4 2c8 0 geode::modifier::ModifyDerive<hook7<(anonymous namespace)::hook7Parent>, CreatorLayer>::apply()
FUNC d88c 2 0 geode::modifier::ModifyBase<geode::modifier::ModifyDerive<hook7<(anonymous namespace)::hook7Parent>, CreatorLayer> >::apply()
FUNC d890 7c 0 geode::addresser::getVirtual<bool (CreatorLayer::*)()>(bool (CreatorLayer::*)())
FUNC d90c 19c 0 geode::modifier::AsStaticFunction_init<hook7<(anonymous namespace)::hook7Parent>, bool (hook7<(anonymous namespace)::hook7Parent>::*)()>::Impl<bool (hook7<(anonymous namespace)::hook7Parent>::*)()>::function(hook7<(anonymous namespace)::hook7Parent>*)
FUNC daa8 6c 0 CreatorLayer::CreatorLayer(geode::ZeroConstructorType)
FUNC db14 2d0 0 __cxx_global_var_init
FUNC dde4 20 0 geode::modifier::ModifyBase<geode::modifier::ModifyDerive<hook8<(anonymous namespace)::hook8Parent>, LevelSearchLayer> >::~ModifyBase()
FUNC de10 320 0 geode::modifier::ModifyDerive<hook8<(anonymous namespace)::hook8Parent>, LevelSearchLayer>::apply()
FUNC e130 20 0 geode::Mod::get<void>()
FUNC e150 2 0 geode::modifier::ModifyBase<geode::modifier::ModifyDerive<hook8<(anonymous namespace)::hook8Parent>, LevelSearchLayer> >::apply()
FUNC e154 bd0 0 geode::modifier::AsStaticFunction_init<hook8<(anonymous namespace)::hook8Parent>, bool (hook8<(anonymous namespace)::hook8Parent>::*)(int)>::Impl<bool (hook8<(anonymous namespace)::hook8Parent>::*)(int)>::function(hook8<(anonymous namespace)::hook8Parent>*, int)
FUNC ed24 f8 0 geode::Mod::getSettingValue<long long>(std::__ndk1::basic_string_view<char, std::__ndk1::char_traits<char> >) const
FUNC ee1c f8 0 geode::Mod::getSettingValue<bool>(std::__ndk1::basic_string_view<char, std::__ndk1::char_traits<char> >) const
FUNC ef14 24 0 geode::cast::typeinfo_cast<cocos2d::extension::CCScale9Sprite*, cocos2d::CCNode*>(cocos2d::CCNode*)
FUNC ef38 8c 0 geode::cast::traverseTypeinfoFor(void*, geode::cast::ClassTypeinfoType const*, char const*)
FUNC efc4 2d0 0 __cxx_global_var_init
FUNC f294 20 0 geode::modifier::ModifyBase<geode::modifier::ModifyDerive<hook7<(anonymous namespace)::hook7Parent>, LevelBrowserLayer> >::~ModifyBase()
FUNC f2c0 320 0 geode::modifier::ModifyDerive<hook7<(anonymous namespace)::hook7Parent>, LevelBrowserLayer>::apply()
FUNC f5e0 2 0 geode::modifier::ModifyBase<geode::modifier::ModifyDerive<hook7<(anonymous namespace)::hook7Parent>, LevelBrowserLayer> >::apply()
FUNC f5e4 1a0 0 geode::modifier::AsStaticFunction_init<hook7<(anonymous namespace)::hook7Parent>, bool (hook7<(anonymous namespace)::hook7Parent>::*)(GJSearchObject*)>::Impl<bool (hook7<(anonymous namespace)::hook7Parent>::*)(GJSearchObject*)>::function(hook7<(anonymous namespace)::hook7Parent>*, GJSearchObject*)
FUNC f784 2d0 0 __cxx_global_var_init
FUNC fa54 20 0 geode::modifier::ModifyBase<geode::modifier::ModifyDerive<hook8<(anonymous namespace)::hook8Parent>, EditLevelLayer> >::~ModifyBase()
FUNC fa80 310 0 geode::modifier::ModifyDerive<hook8<(anonymous namespace)::hook8Parent>, EditLevelLayer>::apply()
FUNC fd90 2 0 geode::modifier::ModifyBase<geode::modifier::ModifyDerive<hook8<(anonymous namespace)::hook8Parent>, EditLevelLayer> >::apply()
FUNC fd94 918 0 geode::modifier::AsStaticFunction_init<hook8<(anonymous namespace)::hook8Parent>, bool (hook8<(anonymous namespace)::hook8Parent>::*)(GJGameLevel*)>::Impl<bool (hook8<(anonymous namespace)::hook8Parent>::*)(GJGameLevel*)>::function(hook8<(anonymous namespace)::hook8Parent>*, GJGameLevel*)
FUNC 106ac 2d0 0 __cxx_global_var_init
FUNC 1097c 20 0 geode::modifier::ModifyBase<geode::modifier::ModifyDerive<hook7<(anonymous namespace)::hook7Parent>, LeaderboardsLayer> >::~ModifyBase()
FUNC 109a0 320 0 geode::modifier::ModifyDerive<hook7<(anonymous namespace)::hook7Parent>, LeaderboardsLayer>::apply()
FUNC 10cc0 2 0 geode::modifier::ModifyBase<geode::modifier::ModifyDerive<hook7<(anonymous namespace)::hook7Parent>, LeaderboardsLayer> >::apply()
FUNC 10cc4 19c 0 geode::modifier::AsStaticFunction_init<hook7<(anonymous namespace)::hook7Parent>, bool (hook7<(anonymous namespace)::hook7Parent>::*)(LeaderboardState)>::Impl<bool (hook7<(anonymous namespace)::hook7Parent>::*)(LeaderboardState)>::function(hook7<(anonymous namespace)::hook7Parent>*, LeaderboardState)
FUNC 10e60 2d0 0 __cxx_global_var_init
FUNC 11130 20 0 geode::modifier::ModifyBase<geode::modifier::ModifyDerive<hook7<(anonymous namespace)::hook7Parent>, LevelSelectLayer> >::~ModifyBase()
FUNC 11150 320 0 geode::modifier::ModifyDerive<hook7<(anonymous namespace)::hook7Parent>, LevelSelectLayer>::apply()
FUNC 11470 2 0 geode::modifier::ModifyBase<geode::modifier::ModifyDerive<hook7<(anonymous namespace)::hook7Parent>, LevelSelectLayer> >::apply()
FUNC 11474 1b8 0 geode::modifier::AsStaticFunction_init<hook7<(anonymous namespace)::hook7Parent>, bool (hook7<(anonymous namespace)::hook7Parent>::*)(int)>::Impl<bool (hook7<(anonymous namespace)::hook7Parent>::*)(int)>::function(hook7<(anonymous namespace)::hook7Parent>*, int)
FUNC 1162c 2d0 0 __cxx_global_var_init
FUNC 118fc 20 0 geode::modifier::ModifyBase<geode::modifier::ModifyDerive<hook8<(anonymous namespace)::hook8Parent>, LevelAreaLayer> >::~ModifyBase()
FUNC 1191c 2cc 0 geode::modifier::ModifyDerive<hook8<(anonymous namespace)::hook8Parent>, LevelAreaLayer>::apply()
FUNC 11be8 2 0 geode::modifier::ModifyBase<geode::modifier::ModifyDerive<hook8<(anonymous namespace)::hook8Parent>, LevelAreaLayer> >::apply()
FUNC 11bec 7c 0 geode::addresser::getVirtual<bool (LevelAreaLayer::*)()>(bool (LevelAreaLayer::*)())
FUNC 11c68 7ec 0 geode::modifier::AsStaticFunction_init<hook8<(anonymous namespace)::hook8Parent>, bool (hook8<(anonymous namespace)::hook8Parent>::*)()>::Impl<bool (hook8<(anonymous namespace)::hook8Parent>::*)()>::function(hook8<(anonymous namespace)::hook8Parent>*)
FUNC 12454 68 0 LevelAreaLayer::LevelAreaLayer(geode::ZeroConstructorType)
FUNC 124bc 2d0 0 __cxx_global_var_init
FUNC 1278c 20 0 geode::modifier::ModifyBase<geode::modifier::ModifyDerive<hook7<(anonymous namespace)::hook7Parent>, DailyLevelPage> >::~ModifyBase()
FUNC 127b0 310 0 geode::modifier::ModifyDerive<hook7<(anonymous namespace)::hook7Parent>, DailyLevelPage>::apply()
FUNC 12ac0 2 0 geode::modifier::ModifyBase<geode::modifier::ModifyDerive<hook7<(anonymous namespace)::hook7Parent>, DailyLevelPage> >::apply()
FUNC 12ac4 ec 0 geode::modifier::AsStaticFunction_init<hook7<(anonymous namespace)::hook7Parent>, bool (hook7<(anonymous namespace)::hook7Parent>::*)(GJTimedLevelType)>::Impl<bool (hook7<(anonymous namespace)::hook7Parent>::*)(GJTimedLevelType)>::function(hook7<(anonymous namespace)::hook7Parent>*, GJTimedLevelType)
FUNC 12bb0 2d0 0 __cxx_global_var_init
FUNC 12e80 20 0 geode::modifier::ModifyBase<geode::modifier::ModifyDerive<hook7<(anonymous namespace)::hook7Parent>, ProfilePage> >::~ModifyBase()
FUNC 12ea0 330 0 geode::modifier::ModifyDerive<hook7<(anonymous namespace)::hook7Parent>, ProfilePage>::apply()
FUNC 131d0 2 0 geode::modifier::ModifyBase<geode::modifier::ModifyDerive<hook7<(anonymous namespace)::hook7Parent>, ProfilePage> >::apply()
FUNC 131d4 ec 0 geode::modifier::AsStaticFunction_init<hook7<(anonymous namespace)::hook7Parent>, bool (hook7<(anonymous namespace)::hook7Parent>::*)(int, bool)>::Impl<bool (hook7<(anonymous namespace)::hook7Parent>::*)(int, bool)>::function(hook7<(anonymous namespace)::hook7Parent>*, int, bool)
FUNC 132c0 2d0 0 __cxx_global_var_init
FUNC 13590 20 0 geode::modifier::ModifyBase<geode::modifier::ModifyDerive<hook7<(anonymous namespace)::hook7Parent>, RewardsPage> >::~ModifyBase()
FUNC 135b0 2bc 0 geode::modifier::ModifyDerive<hook7<(anonymous namespace)::hook7Parent>, RewardsPage>::apply()
FUNC 1386c 2 0 geode::modifier::ModifyBase<geode::modifier::ModifyDerive<hook7<(anonymous namespace)::hook7Parent>, RewardsPage> >::apply()
FUNC 13870 7c 0 geode::addresser::getVirtual<bool (RewardsPage::*)()>(bool (RewardsPage::*)())
FUNC 138ec ec 0 geode::modifier::AsStaticFunction_init<hook7<(anonymous namespace)::hook7Parent>, bool (hook7<(anonymous namespace)::hook7Parent>::*)()>::Impl<bool (hook7<(anonymous namespace)::hook7Parent>::*)()>::function(hook7<(anonymous namespace)::hook7Parent>*)
FUNC 139d8 7c 0 RewardsPage::RewardsPage(geode::ZeroConstructorType)
FUNC 13a54 2d0 0 __cxx_global_var_init
FUNC 13d24 20 0 geode::modifier::ModifyBase<geode::modifier::ModifyDerive<hook7<(anonymous namespace)::hook7Parent>, ChallengesPage> >::~ModifyBase()
FUNC 13d44 2cc 0 geode::modifier::ModifyDerive<hook7<(anonymous namespace)::hook7Parent>, ChallengesPage>::apply()
FUNC 14010 2 0 geode::modifier::ModifyBase<geode::modifier::ModifyDerive<hook7<(anonymous namespace)::hook7Parent>, ChallengesPage> >::apply()
FUNC 14014 7c 0 geode::addresser::getVirtual<bool (ChallengesPage::*)()>(bool (ChallengesPage::*)())
FUNC 14090 ec 0 geode::modifier::AsStaticFunction_init<hook7<(anonymous namespace)::hook7Parent>, bool (hook7<(anonymous namespace)::hook7Parent>::*)()>::Impl<bool (hook7<(anonymous namespace)::hook7Parent>::*)()>::function(hook7<(anonymous namespace)::hook7Parent>*)
FUNC 1417c 84 0 ChallengesPage::ChallengesPage(geode::ZeroConstructorType)
FUNC 14200 2d0 0 __cxx_global_var_init
FUNC 144d0 20 0 geode::modifier::ModifyBase<geode::modifier::ModifyDerive<hook7<(anonymous namespace)::hook7Parent>, MoreSearchLayer> >::~ModifyBase()
FUNC 144f0 2d0 0 geode::modifier::ModifyDerive<hook7<(anonymous namespace)::hook7Parent>, MoreSearchLayer>::apply()
FUNC 147c0 2 0 geode::modifier::ModifyBase<geode::modifier::ModifyDerive<hook7<(anonymous namespace)::hook7Parent>, MoreSearchLayer> >::apply()
FUNC 147c4 7c 0 geode::addresser::getVirtual<bool (MoreSearchLayer::*)()>(bool (MoreSearchLayer::*)())
FUNC 14840 ec 0 geode::modifier::AsStaticFunction_init<hook7<(anonymous namespace)::hook7Parent>, bool (hook7<(anonymous namespace)::hook7Parent>::*)()>::Impl<bool (hook7<(anonymous namespace)::hook7Parent>::*)()>::function(hook7<(anonymous namespace)::hook7Parent>*)
FUNC 1492c 78 0 MoreSearchLayer::MoreSearchLayer(geode::ZeroConstructorType)
FUNC 149a4 2d0 0 __cxx_global_var_init
FUNC 14c74 20 0 geode::modifier::ModifyBase<geode::modifier::ModifyDerive<hook7<(anonymous namespace)::hook7Parent>, InfoLayer> >::~ModifyBase()
FUNC 14ca0 350 0 geode::modifier::ModifyDerive<hook7<(anonymous namespace)::hook7Parent>, InfoLayer>::apply()
FUNC 14ff0 2 0 geode::modifier::ModifyBase<geode::modifier::ModifyDerive<hook7<(anonymous namespace)::hook7Parent>, InfoLayer> >::apply()
FUNC 14ff4 ec 0 geode::modifier::AsStaticFunction_init<hook7<(anonymous namespace)::hook7Parent>, bool (hook7<(anonymous namespace)::hook7Parent>::*)(GJGameLevel*, GJUserScore*, GJLevelList*)>::Impl<bool (hook7<(anonymous namespace)::hook7Parent>::*)(GJGameLevel*, GJUserScore*, GJLevelList*)>::function(hook7<(anonymous namespace)::hook7Parent>*, GJGameLevel*, GJUserScore*, GJLevelList*)
FUNC 150e0 2d0 0 __cxx_global_var_init
FUNC 153b0 20 0 geode::modifier::ModifyBase<geode::modifier::ModifyDerive<hook7<(anonymous namespace)::hook7Parent>, LevelLeaderboard> >::~ModifyBase()
FUNC 153d0 350 0 geode::modifier::ModifyDerive<hook7<(anonymous namespace)::hook7Parent>, LevelLeaderboard>::apply()
FUNC 15720 2 0 geode::modifier::ModifyBase<geode::modifier::ModifyDerive<hook7<(anonymous namespace)::hook7Parent>, LevelLeaderboard> >::apply()
FUNC 15724 ec 0 geode::modifier::AsStaticFunction_init<hook7<(anonymous namespace)::hook7Parent>, bool (hook7<(anonymous namespace)::hook7Parent>::*)(GJGameLevel*, LevelLeaderboardType, LevelLeaderboardMode)>::Impl<bool (hook7<(anonymous namespace)::hook7Parent>::*)(GJGameLevel*, LevelLeaderboardType, LevelLeaderboardMode)>::function(hook7<(anonymous namespace)::hook7Parent>*, GJGameLevel*, LevelLeaderboardType, LevelLeaderboardMode)
FUNC 15810 2d0 0 __cxx_global_var_init
FUNC 15ae0 20 0 geode::modifier::ModifyBase<geode::modifier::ModifyDerive<hook7<(anonymous namespace)::hook7Parent>, MessagesProfilePage> >::~ModifyBase()
FUNC 15b00 320 0 geode::modifier::ModifyDerive<hook7<(anonymous namespace)::hook7Parent>, MessagesProfilePage>::apply()
FUNC 15e20 2 0 geode::modifier::ModifyBase<geode::modifier::ModifyDerive<hook7<(anonymous namespace)::hook7Parent>, MessagesProfilePage> >::apply()
FUNC 15e24 ec 0 geode::modifier::AsStaticFunction_init<hook7<(anonymous namespace)::hook7Parent>, bool (hook7<(anonymous namespace)::hook7Parent>::*)(bool)>::Impl<bool (hook7<(anonymous namespace)::hook7Parent>::*)(bool)>::function(hook7<(anonymous namespace)::hook7Parent>*, bool)
FUNC 15f10 2d0 0 __cxx_global_var_init
FUNC 161e0 20 0 geode::modifier::ModifyBase<geode::modifier::ModifyDerive<hook7<(anonymous namespace)::hook7Parent>, FriendsProfilePage> >::~ModifyBase()
FUNC 16200 310 0 geode::modifier::ModifyDerive<hook7<(anonymous namespace)::hook7Parent>, FriendsProfilePage>::apply()
FUNC 16510 2 0 geode::modifier::ModifyBase<geode::modifier::ModifyDerive<hook7<(anonymous namespace)::hook7Parent>, FriendsProfilePage> >::apply()
FUNC 16514 ec 0 geode::modifier::AsStaticFunction_init<hook7<(anonymous namespace)::hook7Parent>, bool (hook7<(anonymous namespace)::hook7Parent>::*)(UserListType)>::Impl<bool (hook7<(anonymous namespace)::hook7Parent>::*)(UserListType)>::function(hook7<(anonymous namespace)::hook7Parent>*, UserListType)
FUNC 16600 2d0 0 __cxx_global_var_init
FUNC 168d0 20 0 geode::modifier::ModifyBase<geode::modifier::ModifyDerive<hook7<(anonymous namespace)::hook7Parent>, FRequestProfilePage> >::~ModifyBase()
FUNC 168f0 320 0 geode::modifier::ModifyDerive<hook7<(anonymous namespace)::hook7Parent>, FRequestProfilePage>::apply()
FUNC 16c10 2 0 geode::modifier::ModifyBase<geode::modifier::ModifyDerive<hook7<(anonymous namespace)::hook7Parent>, FRequestProfilePage> >::apply()
FUNC 16c14 ec 0 geode::modifier::AsStaticFunction_init<hook7<(anonymous namespace)::hook7Parent>, bool (hook7<(anonymous namespace)::hook7Parent>::*)(bool)>::Impl<bool (hook7<(anonymous namespace)::hook7Parent>::*)(bool)>::function(hook7<(anonymous namespace)::hook7Parent>*, bool)
FUNC 16d00 2d0 0 __cxx_global_var_init
FUNC 16fd0 20 0 geode::modifier::ModifyBase<geode::modifier::ModifyDerive<hook7<(anonymous namespace)::hook7Parent>, GJAccountSettingsLayer> >::~ModifyBase()
FUNC 16ff0 320 0 geode::modifier::ModifyDerive<hook7<(anonymous namespace)::hook7Parent>, GJAccountSettingsLayer>::apply()
FUNC 17310 2 0 geode::modifier::ModifyBase<geode::modifier::ModifyDerive<hook7<(anonymous namespace)::hook7Parent>, GJAccountSettingsLayer> >::apply()
FUNC 17314 ec 0 geode::modifier::AsStaticFunction_init<hook7<(anonymous namespace)::hook7Parent>, bool (hook7<(anonymous namespace)::hook7Parent>::*)(int)>::Impl<bool (hook7<(anonymous namespace)::hook7Parent>::*)(int)>::function(hook7<(anonymous namespace)::hook7Parent>*, int)
FUNC 17400 2d0 0 __cxx_global_var_init
FUNC 176d0 20 0 geode::modifier::ModifyBase<geode::modifier::ModifyDerive<hook7<(anonymous namespace)::hook7Parent>, RateDemonLayer> >::~ModifyBase()
FUNC 176f0 310 0 geode::modifier::ModifyDerive<hook7<(anonymous namespace)::hook7Parent>, RateDemonLayer>::apply()
FUNC 17a00 2 0 geode::modifier::ModifyBase<geode::modifier::ModifyDerive<hook7<(anonymous namespace)::hook7Parent>, RateDemonLayer> >::apply()
FUNC 17a04 ec 0 geode::modifier::AsStaticFunction_init<hook7<(anonymous namespace)::hook7Parent>, bool (hook7<(anonymous namespace)::hook7Parent>::*)(int)>::Impl<bool (hook7<(anonymous namespace)::hook7Parent>::*)(int)>::function(hook7<(anonymous namespace)::hook7Parent>*, int)
FUNC 17af0 2d0 0 __cxx_global_var_init
FUNC 17dc0 20 0 geode::modifier::ModifyBase<geode::modifier::ModifyDerive<hook7<(anonymous namespace)::hook7Parent>, DemonInfoPopup> >::~ModifyBase()
FUNC 17de0 e28 0 geode::modifier::ModifyDerive<hook7<(anonymous namespace)::hook7Parent>, DemonInfoPopup>::apply()
FUNC 18c08 2 0 geode::modifier::ModifyBase<geode::modifier::ModifyDerive<hook7<(anonymous namespace)::hook7Parent>, DemonInfoPopup> >::apply()
FUNC 18c0c 110 0 geode::modifier::AsStaticFunction_init<hook7<(anonymous namespace)::hook7Parent>, bool (hook7<(anonymous namespace)::hook7Parent>::*)(int, int, int, int, int, int, int, int, int, int, int, int)>::Impl<bool (hook7<(anonymous namespace)::hook7Parent>::*)(int, int, int, int, int, int, int, int, int, int, int, int)>::function(hook7<(anonymous namespace)::hook7Parent>*, int, int, int, int, int, int, int, int, int, int, int, int)
FUNC 18d1c 10 0 std::__ndk1::vector<tulip::hook::AbstractType, std::__ndk1::allocator<tulip::hook::AbstractType> >::__throw_length_error[abi:ne180000]() const
FUNC 18d2c 2d0 0 __cxx_global_var_init
FUNC 18ffc 20 0 geode::modifier::ModifyBase<geode::modifier::ModifyDerive<hook7<(anonymous namespace)::hook7Parent>, StarInfoPopup> >::~ModifyBase()
FUNC 19020 c28 0 geode::modifier::ModifyDerive<hook7<(anonymous namespace)::hook7Parent>, StarInfoPopup>::apply()
FUNC 19c48 2 0 geode::modifier::ModifyBase<geode::modifier::ModifyDerive<hook7<(anonymous namespace)::hook7Parent>, StarInfoPopup> >::apply()
FUNC 19c4c 10c 0 geode::modifier::AsStaticFunction_init<hook7<(anonymous namespace)::hook7Parent>, bool (hook7<(anonymous namespace)::hook7Parent>::*)(int, int, int, int, int, int, int, int, int, bool)>::Impl<bool (hook7<(anonymous namespace)::hook7Parent>::*)(int, int, int, int, int, int, int, int, int, bool)>::function(hook7<(anonymous namespace)::hook7Parent>*, int, int, int, int, int, int, int, int, int, bool)
FUNC 19d58 2d0 0 __cxx_global_var_init
FUNC 1a028 20 0 geode::modifier::ModifyBase<geode::modifier::ModifyDerive<hook7<(anonymous namespace)::hook7Parent>, MoreOptionsLayer> >::~ModifyBase()
FUNC 1a048 2d0 0 geode::modifier::ModifyDerive<hook7<(anonymous namespace)::hook7Parent>, MoreOptionsLayer>::apply()
FUNC 1a318 2 0 geode::modifier::ModifyBase<geode::modifier::ModifyDerive<hook7<(anonymous namespace)::hook7Parent>, MoreOptionsLayer> >::apply()
FUNC 1a31c 7c 0 geode::addresser::getVirtual<bool (MoreOptionsLayer::*)()>(bool (MoreOptionsLayer::*)())
FUNC 1a398 ec 0 geode::modifier::AsStaticFunction_init<hook7<(anonymous namespace)::hook7Parent>, bool (hook7<(anonymous namespace)::hook7Parent>::*)()>::Impl<bool (hook7<(anonymous namespace)::hook7Parent>::*)()>::function(hook7<(anonymous namespace)::hook7Parent>*)
FUNC 1a484 84 0 MoreOptionsLayer::MoreOptionsLayer(geode::ZeroConstructorType)
FUNC 1a508 2d0 0 __cxx_global_var_init
FUNC 1a7d8 20 0 geode::modifier::ModifyBase<geode::modifier::ModifyDerive<hook7<(anonymous namespace)::hook7Parent>, VideoOptionsLayer> >::~ModifyBase()
FUNC 1a7f8 2d0 0 geode::modifier::ModifyDerive<hook7<(anonymous namespace)::hook7Parent>, VideoOptionsLayer>::apply()
FUNC 1aac8 2 0 geode::modifier::ModifyBase<geode::modifier::ModifyDerive<hook7<(anonymous namespace)::hook7Parent>, VideoOptionsLayer> >::apply()
FUNC 1aacc 7c 0 geode::addresser::getVirtual<bool (VideoOptionsLayer::*)()>(bool (VideoOptionsLayer::*)())
FUNC 1ab48 ec 0 geode::modifier::AsStaticFunction_init<hook7<(anonymous namespace)::hook7Parent>, bool (hook7<(anonymous namespace)::hook7Parent>::*)()>::Impl<bool (hook7<(anonymous namespace)::hook7Parent>::*)()>::function(hook7<(anonymous namespace)::hook7Parent>*)
FUNC 1ac34 70 0 VideoOptionsLayer::VideoOptionsLayer(geode::ZeroConstructorType)
FUNC 1aca4 2d0 0 __cxx_global_var_init
FUNC 1af74 20 0 geode::modifier::ModifyBase<geode::modifier::ModifyDerive<hook7<(anonymous namespace)::hook7Parent>, TutorialLayer> >::~ModifyBase()
FUNC 1af94 2d0 0 geode::modifier::ModifyDerive<hook7<(anonymous namespace)::hook7Parent>, TutorialLayer>::apply()
FUNC 1b264 2 0 geode::modifier::ModifyBase<geode::modifier::ModifyDerive<hook7<(anonymous namespace)::hook7Parent>, TutorialLayer> >::apply()
FUNC 1b268 7c 0 geode::addresser::getVirtual<bool (TutorialLayer::*)()>(bool (TutorialLayer::*)())
FUNC 1b2e4 ec 0 geode::modifier::AsStaticFunction_init<hook7<(anonymous namespace)::hook7Parent>, bool (hook7<(anonymous namespace)::hook7Parent>::*)()>::Impl<bool (hook7<(anonymous namespace)::hook7Parent>::*)()>::function(hook7<(anonymous namespace)::hook7Parent>*)
FUNC 1b3d0 70 0 TutorialLayer::TutorialLayer(geode::ZeroConstructorType)
FUNC 1b440 2d0 0 __cxx_global_var_init
FUNC 1b710 20 0 geode::modifier::ModifyBase<geode::modifier::ModifyDerive<hook7<(anonymous namespace)::hook7Parent>, LevelListLayer> >::~ModifyBase()
FUNC 1b730 310 0 geode::modifier::ModifyDerive<hook7<(anonymous namespace)::hook7Parent>, LevelListLayer>::apply()
FUNC 1ba40 2 0 geode::modifier::ModifyBase<geode::modifier::ModifyDerive<hook7<(anonymous namespace)::hook7Parent>, LevelListLayer> >::apply()
FUNC 1ba44 19c 0 geode::modifier::AsStaticFunction_init<hook7<(anonymous namespace)::hook7Parent>, bool (hook7<(anonymous namespace)::hook7Parent>::*)(GJLevelList*)>::Impl<bool (hook7<(anonymous namespace)::hook7Parent>::*)(GJLevelList*)>::function(hook7<(anonymous namespace)::hook7Parent>*, GJLevelList*)
FUNC 1bbe0 2d0 0 __cxx_global_var_init
FUNC 1beb0 20 0 geode::modifier::ModifyBase<geode::modifier::ModifyDerive<hook7<(anonymous namespace)::hook7Parent>, GJPathsLayer> >::~ModifyBase()
FUNC 1bed0 2c8 0 geode::modifier::ModifyDerive<hook7<(anonymous namespace)::hook7Parent>, GJPathsLayer>::apply()
FUNC 1c198 2 0 geode::modifier::ModifyBase<geode::modifier::ModifyDerive<hook7<(anonymous namespace)::hook7Parent>, GJPathsLayer> >::apply()
FUNC 1c19c 7c 0 geode::addresser::getVirtual<bool (GJPathsLayer::*)()>(bool (GJPathsLayer::*)())
FUNC 1c218 ec 0 geode::modifier::AsStaticFunction_init<hook7<(anonymous namespace)::hook7Parent>, bool (hook7<(anonymous namespace)::hook7Parent>::*)()>::Impl<bool (hook7<(anonymous namespace)::hook7Parent>::*)()>::function(hook7<(anonymous namespace)::hook7Parent>*)
FUNC 1c304 78 0 GJPathsLayer::GJPathsLayer(geode::ZeroConstructorType)
FUNC 1c37c 2d0 0 __cxx_global_var_init
FUNC 1c64c 20 0 geode::modifier::ModifyBase<geode::modifier::ModifyDerive<hook7<(anonymous namespace)::hook7Parent>, MoreVideoOptionsLayer> >::~ModifyBase()
FUNC 1c66c 2d0 0 geode::modifier::ModifyDerive<hook7<(anonymous namespace)::hook7Parent>, MoreVideoOptionsLayer>::apply()
FUNC 1c93c 2 0 geode::modifier::ModifyBase<geode::modifier::ModifyDerive<hook7<(anonymous namespace)::hook7Parent>, MoreVideoOptionsLayer> >::apply()
FUNC 1c940 7c 0 geode::addresser::getVirtual<bool (MoreVideoOptionsLayer::*)()>(bool (MoreVideoOptionsLayer::*)())
FUNC 1c9bc ec 0 geode::modifier::AsStaticFunction_init<hook7<(anonymous namespace)::hook7Parent>, bool (hook7<(anonymous namespace)::hook7Parent>::*)()>::Impl<bool (hook7<(anonymous namespace)::hook7Parent>::*)()>::function(hook7<(anonymous namespace)::hook7Parent>*)
FUNC 1caa8 78 0 MoreVideoOptionsLayer::MoreVideoOptionsLayer(geode::ZeroConstructorType)
FUNC 1cb20 2d0 0 __cxx_global_var_init
FUNC 1cdf0 20 0 geode::modifier::ModifyBase<geode::modifier::ModifyDerive<hook7<(anonymous namespace)::hook7Parent>, LikeItemLayer> >::~ModifyBase()
FUNC 1ce10 360 0 geode::modifier::ModifyDerive<hook7<(anonymous namespace)::hook7Parent>, LikeItemLayer>::apply()
FUNC 1d170 2 0 geode::modifier::ModifyBase<geode::modifier::ModifyDerive<hook7<(anonymous namespace)::hook7Parent>, LikeItemLayer> >::apply()
FUNC 1d174 ec 0 geode::modifier::AsStaticFunction_init<hook7<(anonymous namespace)::hook7Parent>, bool (hook7<(anonymous namespace)::hook7Parent>::*)(LikeItemType, int, int)>::Impl<bool (hook7<(anonymous namespace)::hook7Parent>::*)(LikeItemType, int, int)>::function(hook7<(anonymous namespace)::hook7Parent>*, LikeItemType, int, int)
FUNC 1d260 2d0 0 __cxx_global_var_init
FUNC 1d530 20 0 geode::modifier::ModifyBase<geode::modifier::ModifyDerive<hook7<(anonymous namespace)::hook7Parent>, RateStarsLayer> >::~ModifyBase()
FUNC 1d550 360 0 geode::modifier::ModifyDerive<hook7<(anonymous namespace)::hook7Parent>, RateStarsLayer>::apply()
FUNC 1d8b0 2 0 geode::modifier::ModifyBase<geode::modifier::ModifyDerive<hook7<(anonymous namespace)::hook7Parent>, RateStarsLayer> >::apply()
FUNC 1d8b4 ec 0 geode::modifier::AsStaticFunction_init<hook7<(anonymous namespace)::hook7Parent>, bool (hook7<(anonymous namespace)::hook7Parent>::*)(int, bool, bool)>::Impl<bool (hook7<(anonymous namespace)::hook7Parent>::*)(int, bool, bool)>::function(hook7<(anonymous namespace)::hook7Parent>*, int, bool, bool)
FUNC 1d9a0 2d0 0 __cxx_global_var_init
FUNC 1dc70 20 0 geode::modifier::ModifyBase<geode::modifier::ModifyDerive<hook7<(anonymous namespace)::hook7Parent>, UploadActionPopup> >::~ModifyBase()
FUNC 1dc90 354 0 geode::modifier::ModifyDerive<hook7<(anonymous namespace)::hook7Parent>, UploadActionPopup>::apply()
FUNC 1dfe4 2 0 geode::modifier::ModifyBase<geode::modifier::ModifyDerive<hook7<(anonymous namespace)::hook7Parent>, UploadActionPopup> >::apply()
FUNC 1dfe8 124 0 geode::modifier::AsStaticFunction_init<hook7<(anonymous namespace)::hook7Parent>, bool (hook7<(anonymous namespace)::hook7Parent>::*)(UploadPopupDelegate*, gd::string)>::Impl<bool (hook7<(anonymous namespace)::hook7Parent>::*)(UploadPopupDelegate*, gd::string)>::function(hook7<(anonymous namespace)::hook7Parent>*, UploadPopupDelegate*, gd::string)
FUNC 1e10c 2d0 0 __cxx_global_var_init
FUNC 1e3dc 20 0 geode::modifier::ModifyBase<geode::modifier::ModifyDerive<hook7<(anonymous namespace)::hook7Parent>, ShareLevelLayer> >::~ModifyBase()
FUNC 1e400 320 0 geode::modifier::ModifyDerive<hook7<(anonymous namespace)::hook7Parent>, ShareLevelLayer>::apply()
FUNC 1e720 2 0 geode::modifier::ModifyBase<geode::modifier::ModifyDerive<hook7<(anonymous namespace)::hook7Parent>, ShareLevelLayer> >::apply()
FUNC 1e724 ec 0 geode::modifier::AsStaticFunction_init<hook7<(anonymous namespace)::hook7Parent>, bool (hook7<(anonymous namespace)::hook7Parent>::*)(GJGameLevel*)>::Impl<bool (hook7<(anonymous namespace)::hook7Parent>::*)(GJGameLevel*)>::function(hook7<(anonymous namespace)::hook7Parent>*, GJGameLevel*)
FUNC 1e810 2d0 0 __cxx_global_var_init
FUNC 1eae0 20 0 geode::modifier::ModifyBase<geode::modifier::ModifyDerive<hook7<(anonymous namespace)::hook7Parent>, ShareLevelSettingsLayer> >::~ModifyBase()
FUNC 1eb00 320 0 geode::modifier::ModifyDerive<hook7<(anonymous namespace)::hook7Parent>, ShareLevelSettingsLayer>::apply()
FUNC 1ee20 2 0 geode::modifier::ModifyBase<geode::modifier::ModifyDerive<hook7<(anonymous namespace)::hook7Parent>, ShareLevelSettingsLayer> >::apply()
FUNC 1ee24 ec 0 geode::modifier::AsStaticFunction_init<hook7<(anonymous namespace)::hook7Parent>, bool (hook7<(anonymous namespace)::hook7Parent>::*)(GJGameLevel*)>::Impl<bool (hook7<(anonymous namespace)::hook7Parent>::*)(GJGameLevel*)>::function(hook7<(anonymous namespace)::hook7Parent>*, GJGameLevel*)
FUNC 1ef10 2d0 0 __cxx_global_var_init
FUNC 1f1e0 20 0 geode::modifier::ModifyBase<geode::modifier::ModifyDerive<hook7<(anonymous namespace)::hook7Parent>, GJPromoPopup> >::~ModifyBase()
FUNC 1f200 324 0 geode::modifier::ModifyDerive<hook7<(anonymous namespace)::hook7Parent>, GJPromoPopup>::apply()
FUNC 1f524 2 0 geode::modifier::ModifyBase<geode::modifier::ModifyDerive<hook7<(anonymous namespace)::hook7Parent>, GJPromoPopup> >::apply()
FUNC 1f528 120 0 geode::modifier::AsStaticFunction_init<hook7<(anonymous namespace)::hook7Parent>, bool (hook7<(anonymous namespace)::hook7Parent>::*)(gd::string)>::Impl<bool (hook7<(anonymous namespace)::hook7Parent>::*)(gd::string)>::function(hook7<(anonymous namespace)::hook7Parent>*, gd::string)
FUNC 1f648 2d0 0 __cxx_global_var_init
FUNC 1f918 20 0 geode::modifier::ModifyBase<geode::modifier::ModifyDerive<hook7<(anonymous namespace)::hook7Parent>, ShareCommentLayer> >::~ModifyBase()
FUNC 1f940 3a8 0 geode::modifier::ModifyDerive<hook7<(anonymous namespace)::hook7Parent>, ShareCommentLayer>::apply()
FUNC 1fce8 2 0 geode::modifier::ModifyBase<geode::modifier::ModifyDerive<hook7<(anonymous namespace)::hook7Parent>, ShareCommentLayer> >::apply()
FUNC 1fcec 158 0 geode::modifier::AsStaticFunction_init<hook7<(anonymous namespace)::hook7Parent>, bool (hook7<(anonymous namespace)::hook7Parent>::*)(gd::string, int, CommentType, int, gd::string)>::Impl<bool (hook7<(anonymous namespace)::hook7Parent>::*)(gd::string, int, CommentType, int, gd::string)>::function(hook7<(anonymous namespace)::hook7Parent>*, gd::string, int, CommentType, int, gd::string)
FUNC 1fe44 bb0 0 DayAndNightSystem::init()
FUNC 209f4 5e 0 std::__ndk1::basic_string<char, std::__ndk1::char_traits<char>, std::__ndk1::allocator<char> >::basic_string[abi:ne180000]<0>()
FUNC 20a54 678 0 DayAndNightSystemOverlay::init()
FUNC 210cc 4 0 cocos2d::CCCopying::copyWithZone(cocos2d::CCZone*)
FUNC 210d0 10 0 DayAndNightSystem::~DayAndNightSystem()
FUNC 210e0 10 0 DayAndNightSystemOverlay::~DayAndNightSystemOverlay()
FUNC 210f0 20 0 geodeImplicitEntry
FUNC 21110 28 0 std::__ndk1::unordered_map<void*, bool, std::__ndk1::hash<void*>, std::__ndk1::equal_to<void*>, std::__ndk1::allocator<std::__ndk1::pair<void* const, bool> > >::~unordered_map[abi:ne180000]()
FUNC 21138 cc 0 wrapFunction(unsigned int, tulip::hook::WrapperMetadata const&)
FUNC 21204 48 0 geode::impl::ResultData<void*, std::__ndk1::basic_string<char, std::__ndk1::char_traits<char>, std::__ndk1::allocator<char> > >::unwrapErr() &
FUNC 2124c 60 0 geode::impl::ResultData<void*, std::__ndk1::basic_string<char, std::__ndk1::char_traits<char>, std::__ndk1::allocator<char> > >::~ResultData()
FUNC 212ac 46 0 tulip::hook::WrapperMetadata::~WrapperMetadata()
FUNC 212f2 10 0 cocos2d::CCObject::~CCObject()
FUNC 21304 1c0 0 cocos2d::CCNode::CCNode()
FUNC 214c4 10 0 cocos2d::CCNode::~CCNode()
FUNC 214d4 fc 0 GJPromoPopup::init(gd::string)
FUNC 215d0 70 0 tulip::hook::AbstractFunction::from<bool, GJPromoPopup*, gd::string>(bool (*)(GJPromoPopup*, gd::string))
FUNC 21640 124 0 ShareCommentLayer::init(gd::string, int, CommentType, int, gd::string)
FUNC 21770 470 0 tulip::hook::AbstractFunction::from<bool, ShareCommentLayer*, gd::string, int, CommentType, int, gd::string>(bool (*)(ShareCommentLayer*, gd::string, int, CommentType, int, gd::string))
FUNC 21be0 104 0 UploadActionPopup::init(UploadPopupDelegate*, gd::string)
FUNC 21cf0 b0 0 tulip::hook::AbstractFunction::from<bool, UploadActionPopup*, UploadPopupDelegate*, gd::string>(bool (*)(UploadActionPopup*, UploadPopupDelegate*, gd::string))
FUNC 21da0 2 0 cocos2d::CCObject::update(float)
FUNC 21da4 22c 0 cocos2d::CCNode::~CCNode()
FUNC 21fd0 42c 0 cocos2d::CCObject::~CCObject()
FUNC 223fc f8 0 _ZN5geode15UnwrapExceptionC2IRPvQsr4implE18IsStringStreamableIT_EEENS_4impl5OkTagEOS4_
FUNC 224f4 104 0 _ZN5geode15UnwrapExceptionC2IRNSt6__ndk112basic_stringIcNS2_11char_traitsIcEENS2_9allocatorIcEEEEQsr4implE18IsStringStreamableIT_EEENS_4impl6ErrTagEOSA_
FUNC 225f8 2 0 std::__ndk1::__variant_detail::__visitation::__base::__dispatcher<(unsigned int)0>::__dispatch[abi:ne180000]<std::__ndk1::__variant_detail::__dtor<std::__ndk1::__variant_detail::__traits<void*, std::__ndk1::basic_string<char, std::__ndk1::char_traits<char>, std::__ndk1::allocator<char> > >, (std::__ndk1::__variant_detail::_Trait)1>::__destroy[abi:ne180000]()::{lambda(auto:1&)#1}, std::__ndk1::__variant_detail::__base<(std::__ndk1::__variant_detail::__traits<void*, std::__ndk1::basic_string<char, std::__ndk1::char_traits<char>, std::__ndk1::allocator<char> > >)1, std::__ndk1::__variant_detail::__traits, std::__ndk1::allocator<char> >&>(std::__ndk1::__variant_detail::__dtor<std::__ndk1::__variant_detail::__traits<void*, std::__ndk1::basic_string<char, std::__ndk1::char_traits<char>, std::__ndk1::allocator<char> > >, (std::__ndk1::__variant_detail::_Trait)1>, std::__ndk1::__variant_detail::__base<(std::__ndk1::__variant_detail::__traits<void*, std::__ndk1::basic_string<char, std::__ndk1::char_traits<char>, std::__ndk1::allocator<char> > >)1, std::__ndk1::__variant_detail::__traits, std::__ndk1::allocator<char> >&)
FUNC 225fa e 0 std::__ndk1::__variant_detail::__visitation::__base::__dispatcher<(unsigned int)1>::__dispatch[abi:ne180000]<std::__ndk1::__variant_detail::__dtor<std::__ndk1::__variant_detail::__traits<void*, std::__ndk1::basic_string<char, std::__ndk1::char_traits<char>, std::__ndk1::allocator<char> > >, (std::__ndk1::__variant_detail::_Trait)1>::__destroy[abi:ne180000]()::{lambda(auto:1&)#1}, std::__ndk1::__variant_detail::__base<(std::__ndk1::__variant_detail::__traits<void*, std::__ndk1::basic_string<char, std::__ndk1::char_traits<char>, std::__ndk1::allocator<char> > >)1, std::__ndk1::__variant_detail::__traits, std::__ndk1::allocator<char> >&>(std::__ndk1::__variant_detail::__dtor<std::__ndk1::__variant_detail::__traits<void*, std::__ndk1::basic_string<char, std::__ndk1::char_traits<char>, std::__ndk1::allocator<char> > >, (std::__ndk1::__variant_detail::_Trait)1>, std::__ndk1::__variant_detail::__base<(std::__ndk1::__variant_detail::__traits<void*, std::__ndk1::basic_string<char, std::__ndk1::char_traits<char>, std::__ndk1::allocator<char> > >)1, std::__ndk1::__variant_detail::__traits, std::__ndk1::allocator<char> >&)
FUNC 22608 3ea 0 std::__ndk1::__hash_table<std::__ndk1::__hash_value_type<void*, bool>, std::__ndk1::__unordered_map_hasher<void*, std::__ndk1::__hash_value_type<void*, bool>, std::__ndk1::hash<void*>, std::__ndk1::equal_to<void*>, true>, std::__ndk1::__unordered_map_equal<void*, std::__ndk1::__hash_value_type<void*, bool>, std::__ndk1::equal_to<void*>, std::__ndk1::hash<void*>, true>, std::__ndk1::allocator<std::__ndk1::__hash_value_type<void*, bool> > >::__emplace_unique_key_args<void*, std::__ndk1::piecewise_construct_t const&, std::__ndk1::tuple<void* const&>, std::__ndk1::tuple<> >(void* const&, std::__ndk1::piecewise_construct_t const&, std::__ndk1::tuple<void* const&>, std::__ndk1::tuple<>)
PUBLIC 229f5 0 __ThumbV7PILongThunk__ZdlPv
PUBLIC 22a01 0 __ThumbV7PILongThunk__ZN5geode9addresser9Addresser19followThunkFunctionEi
PUBLIC 22a10 0 <.plt ELF section in ninsam.day_and_night_system.android32.so>
STACK CFI INIT b264 2d0 .cfa: sp 0 +
STACK CFI b266 .cfa: sp 20 + .ra: .cfa -4 + ^ r7: .cfa -8 + ^ r6: .cfa -12 + ^ r5: .cfa -16 + ^ r4: .cfa -20 + ^
STACK CFI b268 .cfa: r7 8 +
STACK CFI b26c r11: .cfa -24 + ^ r10: .cfa -28 + ^ r9: .cfa -32 + ^ r8: .cfa -36 + ^
STACK CFI INIT b534 20 .cfa: sp 0 +
STACK CFI b536 .cfa: sp 16 + .ra: .cfa -4 + ^ r7: .cfa -8 + ^ r6: .cfa -12 + ^ r4: .cfa -16 + ^
STACK CFI b538 .cfa: r7 8 +
STACK CFI INIT b560 340 .cfa: sp 0 +
STACK CFI b562 .cfa: sp 20 + .ra: .cfa -4 + ^ r7: .cfa -8 + ^ r6: .cfa -12 + ^ r5: .cfa -16 + ^ r4: .cfa -20 + ^
STACK CFI b564 .cfa: r7 8 +
STACK CFI b568 r10: .cfa -24 + ^ r9: .cfa -28 + ^ r8: .cfa -32 + ^
STACK CFI INIT b8a0 3a .cfa: sp 0 +
STACK CFI b8a2 .cfa: sp 16 + .ra: .cfa -4 + ^ r7: .cfa -8 + ^ r5: .cfa -12 + ^ r4: .cfa -16 + ^
STACK CFI b8a4 .cfa: r7 8 +
STACK CFI INIT b8dc 60 .cfa: sp 0 +
STACK CFI b8de .cfa: sp 16 + .ra: .cfa -4 + ^ r7: .cfa -8 + ^ r6: .cfa -12 + ^ r4: .cfa -16 + ^
STACK CFI b8e0 .cfa: r7 8 +
STACK CFI INIT b93c 3e .cfa: sp 0 +
STACK CFI b93e .cfa: sp 20 + .ra: .cfa -4 + ^ r7: .cfa -8 + ^ r6: .cfa -12 + ^ r5: .cfa -16 + ^ r4: .cfa -20 + ^
STACK CFI b940 .cfa: r7 8 +
STACK CFI b944 r11: .cfa -24 + ^
STACK CFI INIT b97a 2 .cfa: sp 0 +
STACK CFI INIT b97c c .cfa: sp 0 +
STACK CFI b97e .cfa: sp 8 + .ra: .cfa -4 + ^ r7: .cfa -8 + ^
STACK CFI b980 .cfa: r7 8 +
STACK CFI INIT b988 f8 .cfa: sp 0 +
STACK CFI b98a .cfa: sp 20 + .ra: .cfa -4 + ^ r7: .cfa -8 + ^ r6: .cfa -12 + ^ r5: .cfa -16 + ^ r4: .cfa -20 + ^
STACK CFI b98c .cfa: r7 8 +
STACK CFI b990 r8: .cfa -24 + ^
STACK CFI INIT ba80 34 .cfa: sp 0 +
STACK CFI ba82 .cfa: sp 8 + .ra: .cfa -4 + ^ r7: .cfa -8 + ^
STACK CFI ba84 .cfa: r7 8 +
STACK CFI INIT bab4 d8 .cfa: sp 0 +
STACK CFI bab6 .cfa: sp 20 + .ra: .cfa -4 + ^ r7: .cfa -8 + ^ r6: .cfa -12 + ^ r5: .cfa -16 + ^ r4: .cfa -20 + ^
STACK CFI bab8 .cfa: r7 8 +
STACK CFI babc r11: .cfa -24 + ^ r10: .cfa -28 + ^ r9: .cfa -32 + ^ r8: .cfa -36 + ^
STACK CFI INIT bb8c 68 .cfa: sp 0 +
STACK CFI bb8e .cfa: sp 20 + .ra: .cfa -4 + ^ r7: .cfa -8 + ^ r6: .cfa -12 + ^ r5: .cfa -16 + ^ r4: .cfa -20 + ^
STACK CFI bb90 .cfa: r7 8 +
STACK CFI bb94 r11: .cfa -24 + ^
STACK CFI INIT bbf4 10 .cfa: sp 0 +
STACK CFI bbf6 .cfa: sp 8 + .ra: .cfa -4 + ^ r7: .cfa -8 + ^
STACK CFI bbf8 .cfa: r7 8 +
STACK CFI INIT bc04 108 .cfa: sp 0 +
STACK CFI bc06 .cfa: sp 20 + .ra: .cfa -4 + ^ r7: .cfa -8 + ^ r6: .cfa -12 + ^ r5: .cfa -16 + ^ r4: .cfa -20 + ^
STACK CFI bc08 .cfa: r7 8 +
STACK CFI bc0c r11: .cfa -24 + ^ r10: .cfa -28 + ^ r9: .cfa -32 + ^ r8: .cfa -36 + ^
STACK CFI INIT bd0c 110 .cfa: sp 0 +
STACK CFI bd0e .cfa: sp 20 + .ra: .cfa -4 + ^ r7: .cfa -8 + ^ r6: .cfa -12 + ^ r5: .cfa -16 + ^ r4: .cfa -20 + ^
STACK CFI bd10 .cfa: r7 8 +
STACK CFI bd14 r11: .cfa -24 + ^ r10: .cfa -28 + ^ r9: .cfa -32 + ^ r8: .cfa -36 + ^
STACK CFI INIT be1c 10 .cfa: sp 0 +
STACK CFI be1e .cfa: sp 8 + .ra: .cfa -4 + ^ r7: .cfa -8 + ^
STACK CFI be20 .cfa: r7 8 +
STACK CFI INIT be2c 38 .cfa: sp 0 +
STACK CFI be2e .cfa: sp 16 + .ra: .cfa -4 + ^ r7: .cfa -8 + ^ r5: .cfa -12 + ^ r4: .cfa -16 + ^
STACK CFI be30 .cfa: r7 8 +
STACK CFI INIT be64 18 .cfa: sp 0 +
STACK CFI be66 .cfa: sp 8 + .ra: .cfa -4 + ^ r7: .cfa -8 + ^
STACK CFI be68 .cfa: r7 8 +
STACK CFI INIT be7c 28 .cfa: sp 0 +
STACK CFI be7e .cfa: sp 8 + .ra: .cfa -4 + ^ r7: .cfa -8 + ^
STACK CFI be80 .cfa: r7 8 +
STACK CFI INIT bea4 ce .cfa: sp 0 +
STACK CFI bea6 .cfa: sp 20 + .ra: .cfa -4 + ^ r7: .cfa -8 + ^ r6: .cfa -12 + ^ r5: .cfa -16 + ^ r4: .cfa -20 + ^
STACK CFI bea8 .cfa: r7 8 +
STACK CFI beac r10: .cfa -24 + ^ r9: .cfa -28 + ^ r8: .cfa -32 + ^
STACK CFI INIT bf72 e0 .cfa: sp 0 +
STACK CFI bf74 .cfa: sp 20 + .ra: .cfa -4 + ^ r7: .cfa -8 + ^ r6: .cfa -12 + ^ r5: .cfa -16 + ^ r4: .cfa -20 + ^
STACK CFI bf76 .cfa: r7 8 +
STACK CFI bf7a r11: .cfa -24 + ^ r9: .cfa -28 + ^ r8: .cfa -32 + ^
STACK CFI INIT c054 164 .cfa: sp 0 +
STACK CFI c056 .cfa: sp 20 + .ra: .cfa -4 + ^ r7: .cfa -8 + ^ r6: .cfa -12 + ^ r5: .cfa -16 + ^ r4: .cfa -20 + ^
STACK CFI c058 .cfa: r7 8 +
STACK CFI c05c r10: .cfa -24 + ^ r9: .cfa -28 + ^ r8: .cfa -32 + ^
STACK CFI INIT c1b8 46 .cfa: sp 0 +
STACK CFI c1ba .cfa: sp 20 + .ra: .cfa -4 + ^ r7: .cfa -8 + ^ r6: .cfa -12 + ^ r5: .cfa -16 + ^ r4: .cfa -20 + ^
STACK CFI c1bc .cfa: r7 8 +
STACK CFI c1c0 r8: .cfa -24 + ^
STACK CFI INIT c1fe 3c .cfa: sp 0 +
STACK CFI c200 .cfa: sp 16 + .ra: .cfa -4 + ^ r7: .cfa -8 + ^ r5: .cfa -12 + ^ r4: .cfa -16 + ^
STACK CFI c202 .cfa: r7 8 +
STACK CFI INIT c23c 10 .cfa: sp 0 +
STACK CFI c23e .cfa: sp 8 + .ra: .cfa -4 + ^ r7: .cfa -8 + ^
STACK CFI c240 .cfa: r7 8 +
STACK CFI INIT c24c 2 .cfa: sp 0 +
STACK CFI INIT c24e e .cfa: sp 0 +
STACK CFI INIT c25c c0 .cfa: sp 0 +
STACK CFI c25e .cfa: sp 20 + .ra: .cfa -4 + ^ r7: .cfa -8 + ^ r6: .cfa -12 + ^ r5: .cfa -16 + ^ r4: .cfa -20 + ^
STACK CFI c260 .cfa: r7 8 +
STACK CFI c264 r10: .cfa -24 + ^ r9: .cfa -28 + ^ r8: .cfa -32 + ^
STACK CFI INIT c31c 82 .cfa: sp 0 +
STACK CFI c31e .cfa: sp 20 + .ra: .cfa -4 + ^ r7: .cfa -8 + ^ r6: .cfa -12 + ^ r5: .cfa -16 + ^ r4: .cfa -20 + ^
STACK CFI c320 .cfa: r7 8 +
STACK CFI c324 r11: .cfa -24 + ^
STACK CFI INIT c39e 274 .cfa: sp 0 +
STACK CFI c3a0 .cfa: sp 20 + .ra: .cfa -4 + ^ r7: .cfa -8 + ^ r6: .cfa -12 + ^ r5: .cfa -16 + ^ r4: .cfa -20 + ^
STACK CFI c3a2 .cfa: r7 8 +
STACK CFI c3a6 r8: .cfa -24 + ^
STACK CFI INIT c612 5e .cfa: sp 0 +
STACK CFI c61a .cfa: sp 16 + .ra: .cfa -4 + ^ r7: .cfa -8 + ^ r5: .cfa -12 + ^ r4: .cfa -16 + ^
STACK CFI c61c .cfa: r7 8 +
STACK CFI INIT c670 1a0 .cfa: sp 0 +
STACK CFI c672 .cfa: sp 20 + .ra: .cfa -4 + ^ r7: .cfa -8 + ^ r6: .cfa -12 + ^ r5: .cfa -16 + ^ r4: .cfa -20 + ^
STACK CFI c674 .cfa: r7 8 +
STACK CFI c678 r11: .cfa -24 + ^
STACK CFI INIT c810 3a .cfa: sp 0 +
STACK CFI c812 .cfa: sp 16 + .ra: .cfa -4 + ^ r7: .cfa -8 + ^ r5: .cfa -12 + ^ r4: .cfa -16 + ^
STACK CFI c814 .cfa: r7 8 +
STACK CFI INIT c84a 46 .cfa: sp 0 +
STACK CFI c84c .cfa: sp 16 + .ra: .cfa -4 + ^ r7: .cfa -8 + ^ r5: .cfa -12 + ^ r4: .cfa -16 + ^
STACK CFI c84e .cfa: r7 8 +
STACK CFI INIT c890 ba .cfa: sp 0 +
STACK CFI c892 .cfa: sp 20 + .ra: .cfa -4 + ^ r7: .cfa -8 + ^ r6: .cfa -12 + ^ r5: .cfa -16 + ^ r4: .cfa -20 + ^
STACK CFI c894 .cfa: r7 8 +
STACK CFI c898 r11: .cfa -24 + ^ r10: .cfa -28 + ^ r9: .cfa -32 + ^ r8: .cfa -36 + ^
STACK CFI INIT c94a 14a .cfa: sp 0 +
STACK CFI c95c .cfa: sp 16 + .ra: .cfa -4 + ^ r7: .cfa -8 + ^ r6: .cfa -12 + ^ r4: .cfa -16 + ^
STACK CFI c95e .cfa: r7 8 +
STACK CFI INIT ca94 2d0 .cfa: sp 0 +
STACK CFI ca96 .cfa: sp 20 + .ra: .cfa -4 + ^ r7: .cfa -8 + ^ r6: .cfa -12 + ^ r5: .cfa -16 + ^ r4: .cfa -20 + ^
STACK CFI ca98 .cfa: r7 8 +
STACK CFI ca9c r11: .cfa -24 + ^ r10: .cfa -28 + ^ r9: .cfa -32 + ^ r8: .cfa -36 + ^
STACK CFI INIT cd64 20 .cfa: sp 0 +
STACK CFI cd66 .cfa: sp 16 + .ra: .cfa -4 + ^ r7: .cfa -8 + ^ r6: .cfa -12 + ^ r4: .cfa -16 + ^
STACK CFI cd68 .cfa: r7 8 +
STACK CFI INIT cd84 2c8 .cfa: sp 0 +
STACK CFI cd86 .cfa: sp 20 + .ra: .cfa -4 + ^ r7: .cfa -8 + ^ r6: .cfa -12 + ^ r5: .cfa -16 + ^ r4: .cfa -20 + ^
STACK CFI cd88 .cfa: r7 8 +
STACK CFI cd8c r8: .cfa -24 + ^
STACK CFI INIT d04c 2 .cfa: sp 0 +
STACK CFI INIT d050 7c .cfa: sp 0 +
STACK CFI d052 .cfa: sp 16 + .ra: .cfa -4 + ^ r7: .cfa -8 + ^ r6: .cfa -12 + ^ r4: .cfa -16 + ^
STACK CFI d054 .cfa: r7 8 +
STACK CFI INIT d0cc 19c .cfa: sp 0 +
STACK CFI d0ce .cfa: sp 20 + .ra: .cfa -4 + ^ r7: .cfa -8 + ^ r6: .cfa -12 + ^ r5: .cfa -16 + ^ r4: .cfa -20 + ^
STACK CFI d0d0 .cfa: r7 8 +
STACK CFI d0d4 r11: .cfa -24 + ^
STACK CFI INIT d268 6c .cfa: sp 0 +
STACK CFI d26a .cfa: sp 16 + .ra: .cfa -4 + ^ r7: .cfa -8 + ^ r6: .cfa -12 + ^ r4: .cfa -16 + ^
STACK CFI d26c .cfa: r7 8 +
STACK CFI INIT d2d4 2d0 .cfa: sp 0 +
STACK CFI d2d6 .cfa: sp 20 + .ra: .cfa -4 + ^ r7: .cfa -8 + ^ r6: .cfa -12 + ^ r5: .cfa -16 + ^ r4: .cfa -20 + ^
STACK CFI d2d8 .cfa: r7 8 +
STACK CFI d2dc r11: .cfa -24 + ^ r10: .cfa -28 + ^ r9: .cfa -32 + ^ r8: .cfa -36 + ^
STACK CFI INIT d5a4 20 .cfa: sp 0 +
STACK CFI d5a6 .cfa: sp 16 + .ra: .cfa -4 + ^ r7: .cfa -8 + ^ r6: .cfa -12 + ^ r4: .cfa -16 + ^
STACK CFI d5a8 .cfa: r7 8 +
STACK CFI INIT d5c4 2c8 .cfa: sp 0 +
STACK CFI d5c6 .cfa: sp 20 + .ra: .cfa -4 + ^ r7: .cfa -8 + ^ r6: .cfa -12 + ^ r5: .cfa -16 + ^ r4: .cfa -20 + ^
STACK CFI d5c8 .cfa: r7 8 +
STACK CFI d5cc r8: .cfa -24 + ^
STACK CFI INIT d88c 2 .cfa: sp 0 +
STACK CFI INIT d890 7c .cfa: sp 0 +
STACK CFI d892 .cfa: sp 16 + .ra: .cfa -4 + ^ r7: .cfa -8 + ^ r6: .cfa -12 + ^ r4: .cfa -16 + ^
STACK CFI d894 .cfa: r7 8 +
STACK CFI INIT d90c 19c .cfa: sp 0 +
STACK CFI d90e .cfa: sp 20 + .ra: .cfa -4 + ^ r7: .cfa -8 + ^ r6: .cfa -12 + ^ r5: .cfa -16 + ^ r4: .cfa -20 + ^
STACK CFI d910 .cfa: r7 8 +
STACK CFI d914 r11: .cfa -24 + ^
STACK CFI INIT daa8 6c .cfa: sp 0 +
STACK CFI daaa .cfa: sp 16 + .ra: .cfa -4 + ^ r7: .cfa -8 + ^ r6: .cfa -12 + ^ r4: .cfa -16 + ^
STACK CFI daac .cfa: r7 8 +
STACK CFI INIT db14 2d0 .cfa: sp 0 +
STACK CFI db16 .cfa: sp 20 + .ra: .cfa -4 + ^ r7: .cfa -8 + ^ r6: .cfa -12 + ^ r5: .cfa -16 + ^ r4: .cfa -20 + ^
STACK CFI db18 .cfa: r7 8 +
STACK CFI db1c r11: .cfa -24 + ^ r10: .cfa -28 + ^ r9: .cfa -32 + ^ r8: .cfa -36 + ^
STACK CFI INIT dde4 20 .cfa: sp 0 +
STACK CFI dde6 .cfa: sp 16 + .ra: .cfa -4 + ^ r7: .cfa -8 + ^ r6: .cfa -12 + ^ r4: .cfa -16 + ^
STACK CFI dde8 .cfa: r7 8 +
STACK CFI INIT de10 320 .cfa: sp 0 +
STACK CFI de12 .cfa: sp 20 + .ra: .cfa -4 + ^ r7: .cfa -8 + ^ r6: .cfa -12 + ^ r5: .cfa -16 + ^ r4: .cfa -20 + ^
STACK CFI de14 .cfa: r7 8 +
STACK CFI de18 r10: .cfa -24 + ^ r9: .cfa -28 + ^ r8: .cfa -32 + ^
STACK CFI INIT e130 20 .cfa: sp 0 +
STACK CFI e132 .cfa: sp 16 + .ra: .cfa -4 + ^ r7: .cfa -8 + ^ r6: .cfa -12 + ^ r4: .cfa -16 + ^
STACK CFI e134 .cfa: r7 8 +
STACK CFI INIT e150 2 .cfa: sp 0 +
STACK CFI INIT e154 bd0 .cfa: sp 0 +
STACK CFI e156 .cfa: sp 20 + .ra: .cfa -4 + ^ r7: .cfa -8 + ^ r6: .cfa -12 + ^ r5: .cfa -16 + ^ r4: .cfa -20 + ^
STACK CFI e158 .cfa: r7 8 +
STACK CFI e15c r11: .cfa -24 + ^ r10: .cfa -28 + ^ r9: .cfa -32 + ^ r8: .cfa -36 + ^
STACK CFI INIT ed24 f8 .cfa: sp 0 +
STACK CFI ed26 .cfa: sp 20 + .ra: .cfa -4 + ^ r7: .cfa -8 + ^ r6: .cfa -12 + ^ r5: .cfa -16 + ^ r4: .cfa -20 + ^
STACK CFI ed28 .cfa: r7 8 +
STACK CFI ed2c r11: .cfa -24 + ^
STACK CFI INIT ee1c f8 .cfa: sp 0 +
STACK CFI ee1e .cfa: sp 20 + .ra: .cfa -4 + ^ r7: .cfa -8 + ^ r6: .cfa -12 + ^ r5: .cfa -16 + ^ r4: .cfa -20 + ^
STACK CFI ee20 .cfa: r7 8 +
STACK CFI ee24 r11: .cfa -24 + ^
STACK CFI INIT ef14 24 .cfa: sp 0 +
STACK CFI INIT ef38 8c .cfa: sp 0 +
STACK CFI ef3a .cfa: sp 20 + .ra: .cfa -4 + ^ r7: .cfa -8 + ^ r6: .cfa -12 + ^ r5: .cfa -16 + ^ r4: .cfa -20 + ^
STACK CFI ef3c .cfa: r7 8 +
STACK CFI ef40 r11: .cfa -24 + ^ r9: .cfa -28 + ^ r8: .cfa -32 + ^
STACK CFI INIT efc4 2d0 .cfa: sp 0 +
STACK CFI efc6 .cfa: sp 20 + .ra: .cfa -4 + ^ r7: .cfa -8 + ^ r6: .cfa -12 + ^ r5: .cfa -16 + ^ r4: .cfa -20 + ^
STACK CFI efc8 .cfa: r7 8 +
STACK CFI efcc r11: .cfa -24 + ^ r10: .cfa -28 + ^ r9: .cfa -32 + ^ r8: .cfa -36 + ^
STACK CFI INIT f294 20 .cfa: sp 0 +
STACK CFI f296 .cfa: sp 16 + .ra: .cfa -4 + ^ r7: .cfa -8 + ^ r6: .cfa -12 + ^ r4: .cfa -16 + ^
STACK CFI f298 .cfa: r7 8 +
STACK CFI INIT f2c0 320 .cfa: sp 0 +
STACK CFI f2c2 .cfa: sp 20 + .ra: .cfa -4 + ^ r7: .cfa -8 + ^ r6: .cfa -12 + ^ r5: .cfa -16 + ^ r4: .cfa -20 + ^
STACK CFI f2c4 .cfa: r7 8 +
STACK CFI f2c8 r10: .cfa -24 + ^ r9: .cfa -28 + ^ r8: .cfa -32 + ^
STACK CFI INIT f5e0 2 .cfa: sp 0 +
STACK CFI INIT f5e4 1a0 .cfa: sp 0 +
STACK CFI f5e6 .cfa: sp 20 + .ra: .cfa -4 + ^ r7: .cfa -8 + ^ r6: .cfa -12 + ^ r5: .cfa -16 + ^ r4: .cfa -20 + ^
STACK CFI f5e8 .cfa: r7 8 +
STACK CFI f5ec r11: .cfa -24 + ^
STACK CFI INIT f784 2d0 .cfa: sp 0 +
STACK CFI f786 .cfa: sp 20 + .ra: .cfa -4 + ^ r7: .cfa -8 + ^ r6: .cfa -12 + ^ r5: .cfa -16 + ^ r4: .cfa -20 + ^
STACK CFI f788 .cfa: r7 8 +
STACK CFI f78c r11: .cfa -24 + ^ r10: .cfa -28 + ^ r9: .cfa -32 + ^ r8: .cfa -36 + ^
STACK CFI INIT fa54 20 .cfa: sp 0 +
STACK CFI fa56 .cfa: sp 16 + .ra: .cfa -4 + ^ r7: .cfa -8 + ^ r6: .cfa -12 + ^ r4: .cfa -16 + ^
STACK CFI fa58 .cfa: r7 8 +
STACK CFI INIT fa80 310 .cfa: sp 0 +
STACK CFI fa82 .cfa: sp 20 + .ra: .cfa -4 + ^ r7: .cfa -8 + ^ r6: .cfa -12 + ^ r5: .cfa -16 + ^ r4: .cfa -20 + ^
STACK CFI fa84 .cfa: r7 8 +
STACK CFI fa88 r10: .cfa -24 + ^ r9: .cfa -28 + ^ r8: .cfa -32 + ^
STACK CFI INIT fd90 2 .cfa: sp 0 +
STACK CFI INIT fd94 918 .cfa: sp 0 +
STACK CFI fd96 .cfa: sp 20 + .ra: .cfa -4 + ^ r7: .cfa -8 + ^ r6: .cfa -12 + ^ r5: .cfa -16 + ^ r4: .cfa -20 + ^
STACK CFI fd98 .cfa: r7 8 +
STACK CFI fd9c r11: .cfa -24 + ^ r10: .cfa -28 + ^ r9: .cfa -32 + ^ r8: .cfa -36 + ^
STACK CFI INIT 106ac 2d0 .cfa: sp 0 +
STACK CFI 106ae .cfa: sp 20 + .ra: .cfa -4 + ^ r7: .cfa -8 + ^ r6: .cfa -12 + ^ r5: .cfa -16 + ^ r4: .cfa -20 + ^
STACK CFI 106b0 .cfa: r7 8 +
STACK CFI 106b4 r11: .cfa -24 + ^ r10: .cfa -28 + ^ r9: .cfa -32 + ^ r8: .cfa -36 + ^
STACK CFI INIT 1097c 20 .cfa: sp 0 +
STACK CFI 1097e .cfa: sp 16 + .ra: .cfa -4 + ^ r7: .cfa -8 + ^ r6: .cfa -12 + ^ r4: .cfa -16 + ^
STACK CFI 10980 .cfa: r7 8 +
STACK CFI INIT 109a0 320 .cfa: sp 0 +
STACK CFI 109a2 .cfa: sp 20 + .ra: .cfa -4 + ^ r7: .cfa -8 + ^ r6: .cfa -12 + ^ r5: .cfa -16 + ^ r4: .cfa -20 + ^
STACK CFI 109a4 .cfa: r7 8 +
STACK CFI 109a8 r10: .cfa -24 + ^ r9: .cfa -28 + ^ r8: .cfa -32 + ^
STACK CFI INIT 10cc0 2 .cfa: sp 0 +
STACK CFI INIT 10cc4 19c .cfa: sp 0 +
STACK CFI 10cc6 .cfa: sp 20 + .ra: .cfa -4 + ^ r7: .cfa -8 + ^ r6: .cfa -12 + ^ r5: .cfa -16 + ^ r4: .cfa -20 + ^
STACK CFI 10cc8 .cfa: r7 8 +
STACK CFI 10ccc r11: .cfa -24 + ^
STACK CFI INIT 10e60 2d0 .cfa: sp 0 +
STACK CFI 10e62 .cfa: sp 20 + .ra: .cfa -4 + ^ r7: .cfa -8 + ^ r6: .cfa -12 + ^ r5: .cfa -16 + ^ r4: .cfa -20 + ^
STACK CFI 10e64 .cfa: r7 8 +
STACK CFI 10e68 r11: .cfa -24 + ^ r10: .cfa -28 + ^ r9: .cfa -32 + ^ r8: .cfa -36 + ^
STACK CFI INIT 11130 20 .cfa: sp 0 +
STACK CFI 11132 .cfa: sp 16 + .ra: .cfa -4 + ^ r7: .cfa -8 + ^ r6: .cfa -12 + ^ r4: .cfa -16 + ^
STACK CFI 11134 .cfa: r7 8 +
STACK CFI INIT 11150 320 .cfa: sp 0 +
STACK CFI 11152 .cfa: sp 20 + .ra: .cfa -4 + ^ r7: .cfa -8 + ^ r6: .cfa -12 + ^ r5: .cfa -16 + ^ r4: .cfa -20 + ^
STACK CFI 11154 .cfa: r7 8 +
STACK CFI 11158 r10: .cfa -24 + ^ r9: .cfa -28 + ^ r8: .cfa -32 + ^
STACK CFI INIT 11470 2 .cfa: sp 0 +
STACK CFI INIT 11474 1b8 .cfa: sp 0 +
STACK CFI 11476 .cfa: sp 20 + .ra: .cfa -4 + ^ r7: .cfa -8 + ^ r6: .cfa -12 + ^ r5: .cfa -16 + ^ r4: .cfa -20 + ^
STACK CFI 11478 .cfa: r7 8 +
STACK CFI 1147c r11: .cfa -24 + ^
STACK CFI INIT 1162c 2d0 .cfa: sp 0 +
STACK CFI 1162e .cfa: sp 20 + .ra: .cfa -4 + ^ r7: .cfa -8 + ^ r6: .cfa -12 + ^ r5: .cfa -16 + ^ r4: .cfa -20 + ^
STACK CFI 11630 .cfa: r7 8 +
STACK CFI 11634 r11: .cfa -24 + ^ r10: .cfa -28 + ^ r9: .cfa -32 + ^ r8: .cfa -36 + ^
STACK CFI INIT 118fc 20 .cfa: sp 0 +
STACK CFI 118fe .cfa: sp 16 + .ra: .cfa -4 + ^ r7: .cfa -8 + ^ r6: .cfa -12 + ^ r4: .cfa -16 + ^
STACK CFI 11900 .cfa: r7 8 +
STACK CFI INIT 1191c 2cc .cfa: sp 0 +
STACK CFI 1191e .cfa: sp 20 + .ra: .cfa -4 + ^ r7: .cfa -8 + ^ r6: .cfa -12 + ^ r5: .cfa -16 + ^ r4: .cfa -20 + ^
STACK CFI 11920 .cfa: r7 8 +
STACK CFI 11924 r11: .cfa -24 + ^ r9: .cfa -28 + ^ r8: .cfa -32 + ^
STACK CFI INIT 11be8 2 .cfa: sp 0 +
STACK CFI INIT 11bec 7c .cfa: sp 0 +
STACK CFI 11bee .cfa: sp 16 + .ra: .cfa -4 + ^ r7: .cfa -8 + ^ r6: .cfa -12 + ^ r4: .cfa -16 + ^
STACK CFI 11bf0 .cfa: r7 8 +
STACK CFI INIT 11c68 7ec .cfa: sp 0 +
STACK CFI 11c6a .cfa: sp 20 + .ra: .cfa -4 + ^ r7: .cfa -8 + ^ r6: .cfa -12 + ^ r5: .cfa -16 + ^ r4: .cfa -20 + ^
STACK CFI 11c6c .cfa: r7 8 +
STACK CFI 11c70 r11: .cfa -24 + ^ r10: .cfa -28 + ^ r9: .cfa -32 + ^ r8: .cfa -36 + ^
STACK CFI INIT 12454 68 .cfa: sp 0 +
STACK CFI 12456 .cfa: sp 16 + .ra: .cfa -4 + ^ r7: .cfa -8 + ^ r6: .cfa -12 + ^ r4: .cfa -16 + ^
STACK CFI 12458 .cfa: r7 8 +
STACK CFI INIT 124bc 2d0 .cfa: sp 0 +
STACK CFI 124be .cfa: sp 20 + .ra: .cfa -4 + ^ r7: .cfa -8 + ^ r6: .cfa -12 + ^ r5: .cfa -16 + ^ r4: .cfa -20 + ^
STACK CFI 124c0 .cfa: r7 8 +
STACK CFI 124c4 r11: .cfa -24 + ^ r10: .cfa -28 + ^ r9: .cfa -32 + ^ r8: .cfa -36 + ^
STACK CFI INIT 1278c 20 .cfa: sp 0 +
STACK CFI 1278e .cfa: sp 16 + .ra: .cfa -4 + ^ r7: .cfa -8 + ^ r6: .cfa -12 + ^ r4: .cfa -16 + ^
STACK CFI 12790 .cfa: r7 8 +
STACK CFI INIT 127b0 310 .cfa: sp 0 +
STACK CFI 127b2 .cfa: sp 20 + .ra: .cfa -4 + ^ r7: .cfa -8 + ^ r6: .cfa -12 + ^ r5: .cfa -16 + ^ r4: .cfa -20 + ^
STACK CFI 127b4 .cfa: r7 8 +
STACK CFI 127b8 r10: .cfa -24 + ^ r9: .cfa -28 + ^ r8: .cfa -32 + ^
STACK CFI INIT 12ac0 2 .cfa: sp 0 +
STACK CFI INIT 12ac4 ec .cfa: sp 0 +
STACK CFI 12ac6 .cfa: sp 20 + .ra: .cfa -4 + ^ r7: .cfa -8 + ^ r6: .cfa -12 + ^ r5: .cfa -16 + ^ r4: .cfa -20 + ^
STACK CFI 12ac8 .cfa: r7 8 +
STACK CFI 12acc r11: .cfa -24 + ^
STACK CFI INIT 12bb0 2d0 .cfa: sp 0 +
STACK CFI 12bb2 .cfa: sp 20 + .ra: .cfa -4 + ^ r7: .cfa -8 + ^ r6: .cfa -12 + ^ r5: .cfa -16 + ^ r4: .cfa -20 + ^
STACK CFI 12bb4 .cfa: r7 8 +
STACK CFI 12bb8 r11: .cfa -24 + ^ r10: .cfa -28 + ^ r9: .cfa -32 + ^ r8: .cfa -36 + ^
STACK CFI INIT 12e80 20 .cfa: sp 0 +
STACK CFI 12e82 .cfa: sp 16 + .ra: .cfa -4 + ^ r7: .cfa -8 + ^ r6: .cfa -12 + ^ r4: .cfa -16 + ^
STACK CFI 12e84 .cfa: r7 8 +
STACK CFI INIT 12ea0 330 .cfa: sp 0 +
STACK CFI 12ea2 .cfa: sp 20 + .ra: .cfa -4 + ^ r7: .cfa -8 + ^ r6: .cfa -12 + ^ r5: .cfa -16 + ^ r4: .cfa -20 + ^
STACK CFI 12ea4 .cfa: r7 8 +
STACK CFI 12ea8 r11: .cfa -24 + ^ r9: .cfa -28 + ^ r8: .cfa -32 + ^
STACK CFI INIT 131d0 2 .cfa: sp 0 +
STACK CFI INIT 131d4 ec .cfa: sp 0 +
STACK CFI 131d6 .cfa: sp 20 + .ra: .cfa -4 + ^ r7: .cfa -8 + ^ r6: .cfa -12 + ^ r5: .cfa -16 + ^ r4: .cfa -20 + ^
STACK CFI 131d8 .cfa: r7 8 +
STACK CFI 131dc r11: .cfa -24 + ^
STACK CFI INIT 132c0 2d0 .cfa: sp 0 +
STACK CFI 132c2 .cfa: sp 20 + .ra: .cfa -4 + ^ r7: .cfa -8 + ^ r6: .cfa -12 + ^ r5: .cfa -16 + ^ r4: .cfa -20 + ^
STACK CFI 132c4 .cfa: r7 8 +
STACK CFI 132c8 r11: .cfa -24 + ^ r10: .cfa -28 + ^ r9: .cfa -32 + ^ r8: .cfa -36 + ^
STACK CFI INIT 13590 20 .cfa: sp 0 +
STACK CFI 13592 .cfa: sp 16 + .ra: .cfa -4 + ^ r7: .cfa -8 + ^ r6: .cfa -12 + ^ r4: .cfa -16 + ^
STACK CFI 13594 .cfa: r7 8 +
STACK CFI INIT 135b0 2bc .cfa: sp 0 +
STACK CFI 135b2 .cfa: sp 20 + .ra: .cfa -4 + ^ r7: .cfa -8 + ^ r6: .cfa -12 + ^ r5: .cfa -16 + ^ r4: .cfa -20 + ^
STACK CFI 135b4 .cfa: r7 8 +
STACK CFI 135b8 r8: .cfa -24 + ^
STACK CFI INIT 1386c 2 .cfa: sp 0 +
STACK CFI INIT 13870 7c .cfa: sp 0 +
STACK CFI 13872 .cfa: sp 16 + .ra: .cfa -4 + ^ r7: .cfa -8 + ^ r6: .cfa -12 + ^ r4: .cfa -16 + ^
STACK CFI 13874 .cfa: r7 8 +
STACK CFI INIT 138ec ec .cfa: sp 0 +
STACK CFI 138ee .cfa: sp 20 + .ra: .cfa -4 + ^ r7: .cfa -8 + ^ r6: .cfa -12 + ^ r5: .cfa -16 + ^ r4: .cfa -20 + ^
STACK CFI 138f0 .cfa: r7 8 +
STACK CFI 138f4 r11: .cfa -24 + ^
STACK CFI INIT 139d8 7c .cfa: sp 0 +
STACK CFI 139da .cfa: sp 16 + .ra: .cfa -4 + ^ r7: .cfa -8 + ^ r6: .cfa -12 + ^ r4: .cfa -16 + ^
STACK CFI 139dc .cfa: r7 8 +
STACK CFI INIT 13a54 2d0 .cfa: sp 0 +
STACK CFI 13a56 .cfa: sp 20 + .ra: .cfa -4 + ^ r7: .cfa -8 + ^ r6: .cfa -12 + ^ r5: .cfa -16 + ^ r4: .cfa -20 + ^
STACK CFI 13a58 .cfa: r7 8 +
STACK CFI 13a5c r11: .cfa -24 + ^ r10: .cfa -28 + ^ r9: .cfa -32 + ^ r8: .cfa -36 + ^
STACK CFI INIT 13d24 20 .cfa: sp 0 +
STACK CFI 13d26 .cfa: sp 16 + .ra: .cfa -4 + ^ r7: .cfa -8 + ^ r6: .cfa -12 + ^ r4: .cfa -16 + ^
STACK CFI 13d28 .cfa: r7 8 +
STACK CFI INIT 13d44 2cc .cfa: sp 0 +
STACK CFI 13d46 .cfa: sp 20 + .ra: .cfa -4 + ^ r7: .cfa -8 + ^ r6: .cfa -12 + ^ r5: .cfa -16 + ^ r4: .cfa -20 + ^
STACK CFI 13d48 .cfa: r7 8 +
STACK CFI 13d4c r11: .cfa -24 + ^ r9: .cfa -28 + ^ r8: .cfa -32 + ^
STACK CFI INIT 14010 2 .cfa: sp 0 +
STACK CFI INIT 14014 7c .cfa: sp 0 +
STACK CFI 14016 .cfa: sp 16 + .ra: .cfa -4 + ^ r7: .cfa -8 + ^ r6: .cfa -12 + ^ r4: .cfa -16 + ^
STACK CFI 14018 .cfa: r7 8 +
STACK CFI INIT 14090 ec .cfa: sp 0 +
STACK CFI 14092 .cfa: sp 20 + .ra: .cfa -4 + ^ r7: .cfa -8 + ^ r6: .cfa -12 + ^ r5: .cfa -16 + ^ r4: .cfa -20 + ^
STACK CFI 14094 .cfa: r7 8 +
STACK CFI 14098 r11: .cfa -24 + ^
STACK CFI INIT 1417c 84 .cfa: sp 0 +
STACK CFI 1417e .cfa: sp 16 + .ra: .cfa -4 + ^ r7: .cfa -8 + ^ r6: .cfa -12 + ^ r4: .cfa -16 + ^
STACK CFI 14180 .cfa: r7 8 +
STACK CFI INIT 14200 2d0 .cfa: sp 0 +
STACK CFI 14202 .cfa: sp 20 + .ra: .cfa -4 + ^ r7: .cfa -8 + ^ r6: .cfa -12 + ^ r5: .cfa -16 + ^ r4: .cfa -20 + ^
STACK CFI 14204 .cfa: r7 8 +
STACK CFI 14208 r11: .cfa -24 + ^ r10: .cfa -28 + ^ r9: .cfa -32 + ^ r8: .cfa -36 + ^
STACK CFI INIT 144d0 20 .cfa: sp 0 +
STACK CFI 144d2 .cfa: sp 16 + .ra: .cfa -4 + ^ r7: .cfa -8 + ^ r6: .cfa -12 + ^ r4: .cfa -16 + ^
STACK CFI 144d4 .cfa: r7 8 +
STACK CFI INIT 144f0 2d0 .cfa: sp 0 +
STACK CFI 144f2 .cfa: sp 20 + .ra: .cfa -4 + ^ r7: .cfa -8 + ^ r6: .cfa -12 + ^ r5: .cfa -16 + ^ r4: .cfa -20 + ^
STACK CFI 144f4 .cfa: r7 8 +
STACK CFI 144f8 r11: .cfa -24 + ^ r9: .cfa -28 + ^ r8: .cfa -32 + ^
STACK CFI INIT 147c0 2 .cfa: sp 0 +
STACK CFI INIT 147c4 7c .cfa: sp 0 +
STACK CFI 147c6 .cfa: sp 16 + .ra: .cfa -4 + ^ r7: .cfa -8 + ^ r6: .cfa -12 + ^ r4: .cfa -16 + ^
STACK CFI 147c8 .cfa: r7 8 +
STACK CFI INIT 14840 ec .cfa: sp 0 +
STACK CFI 14842 .cfa: sp 20 + .ra: .cfa -4 + ^ r7: .cfa -8 + ^ r6: .cfa -12 + ^ r5: .cfa -16 + ^ r4: .cfa -20 + ^
STACK CFI 14844 .cfa: r7 8 +
STACK CFI 14848 r11: .cfa -24 + ^
STACK CFI INIT 1492c 78 .cfa: sp 0 +
STACK CFI 1492e .cfa: sp 16 + .ra: .cfa -4 + ^ r7: .cfa -8 + ^ r6: .cfa -12 + ^ r4: .cfa -16 + ^
STACK CFI 14930 .cfa: r7 8 +
STACK CFI INIT 149a4 2d0 .cfa: sp 0 +
STACK CFI 149a6 .cfa: sp 20 + .ra: .cfa -4 + ^ r7: .cfa -8 + ^ r6: .cfa -12 + ^ r5: .cfa -16 + ^ r4: .cfa -20 + ^
STACK CFI 149a8 .cfa: r7 8 +
STACK CFI 149ac r11: .cfa -24 + ^ r10: .cfa -28 + ^ r9: .cfa -32 + ^ r8: .cfa -36 + ^
STACK CFI INIT 14c74 20 .cfa: sp 0 +
STACK CFI 14c76 .cfa: sp 16 + .ra: .cfa -4 + ^ r7: .cfa -8 + ^ r6: .cfa -12 + ^ r4: .cfa -16 + ^
STACK CFI 14c78 .cfa: r7 8 +
STACK CFI INIT 14ca0 350 .cfa: sp 0 +
STACK CFI 14ca2 .cfa: sp 20 + .ra: .cfa -4 + ^ r7: .cfa -8 + ^ r6: .cfa -12 + ^ r5: .cfa -16 + ^ r4: .cfa -20 + ^
STACK CFI 14ca4 .cfa: r7 8 +
STACK CFI 14ca8 r11: .cfa -24 + ^ r10: .cfa -28 + ^ r9: .cfa -32 + ^ r8: .cfa -36 + ^
STACK CFI INIT 14ff0 2 .cfa: sp 0 +
STACK CFI INIT 14ff4 ec .cfa: sp 0 +
STACK CFI 14ff6 .cfa: sp 20 + .ra: .cfa -4 + ^ r7: .cfa -8 + ^ r6: .cfa -12 + ^ r5: .cfa -16 + ^ r4: .cfa -20 + ^
STACK CFI 14ff8 .cfa: r7 8 +
STACK CFI 14ffc r11: .cfa -24 + ^
STACK CFI INIT 150e0 2d0 .cfa: sp 0 +
STACK CFI 150e2 .cfa: sp 20 + .ra: .cfa -4 + ^ r7: .cfa -8 + ^ r6: .cfa -12 + ^ r5: .cfa -16 + ^ r4: .cfa -20 + ^
STACK CFI 150e4 .cfa: r7 8 +
STACK CFI 150e8 r11: .cfa -24 + ^ r10: .cfa -28 + ^ r9: .cfa -32 + ^ r8: .cfa -36 + ^
STACK CFI INIT 153b0 20 .cfa: sp 0 +
STACK CFI 153b2 .cfa: sp 16 + .ra: .cfa -4 + ^ r7: .cfa -8 + ^ r6: .cfa -12 + ^ r4: .cfa -16 + ^
STACK CFI 153b4 .cfa: r7 8 +
STACK CFI INIT 153d0 350 .cfa: sp 0 +
STACK CFI 153d2 .cfa: sp 20 + .ra: .cfa -4 + ^ r7: .cfa -8 + ^ r6: .cfa -12 + ^ r5: .cfa -16 + ^ r4: .cfa -20 + ^
STACK CFI 153d4 .cfa: r7 8 +
STACK CFI 153d8 r11: .cfa -24 + ^ r10: .cfa -28 + ^ r9: .cfa -32 + ^ r8: .cfa -36 + ^
STACK CFI INIT 15720 2 .cfa: sp 0 +
STACK CFI INIT 15724 ec .cfa: sp 0 +
STACK CFI 15726 .cfa: sp 20 + .ra: .cfa -4 + ^ r7: .cfa -8 + ^ r6: .cfa -12 + ^ r5: .cfa -16 + ^ r4: .cfa -20 + ^
STACK CFI 15728 .cfa: r7 8 +
STACK CFI 1572c r11: .cfa -24 + ^
STACK CFI INIT 15810 2d0 .cfa: sp 0 +
STACK CFI 15812 .cfa: sp 20 + .ra: .cfa -4 + ^ r7: .cfa -8 + ^ r6: .cfa -12 + ^ r5: .cfa -16 + ^ r4: .cfa -20 + ^
STACK CFI 15814 .cfa: r7 8 +
STACK CFI 15818 r11: .cfa -24 + ^ r10: .cfa -28 + ^ r9: .cfa -32 + ^ r8: .cfa -36 + ^
STACK CFI INIT 15ae0 20 .cfa: sp 0 +
STACK CFI 15ae2 .cfa: sp 16 + .ra: .cfa -4 + ^ r7: .cfa -8 + ^ r6: .cfa -12 + ^ r4: .cfa -16 + ^
STACK CFI 15ae4 .cfa: r7 8 +
STACK CFI INIT 15b00 320 .cfa: sp 0 +
STACK CFI 15b02 .cfa: sp 20 + .ra: .cfa -4 + ^ r7: .cfa -8 + ^ r6: .cfa -12 + ^ r5: .cfa -16 + ^ r4: .cfa -20 + ^
STACK CFI 15b04 .cfa: r7 8 +
STACK CFI 15b08 r10: .cfa -24 + ^ r9: .cfa -28 + ^ r8: .cfa -32 + ^
STACK CFI INIT 15e20 2 .cfa: sp 0 +
STACK CFI INIT 15e24 ec .cfa: sp 0 +
STACK CFI 15e26 .cfa: sp 20 + .ra: .cfa -4 + ^ r7: .cfa -8 + ^ r6: .cfa -12 + ^ r5: .cfa -16 + ^ r4: .cfa -20 + ^
STACK CFI 15e28 .cfa: r7 8 +
STACK CFI 15e2c r11: .cfa -24 + ^
STACK CFI INIT 15f10 2d0 .cfa: sp 0 +
STACK CFI 15f12 .cfa: sp 20 + .ra: .cfa -4 + ^ r7: .cfa -8 + ^ r6: .cfa -12 + ^ r5: .cfa -16 + ^ r4: .cfa -20 + ^
STACK CFI 15f14 .cfa: r7 8 +
STACK CFI 15f18 r11: .cfa -24 + ^ r10: .cfa -28 + ^ r9: .cfa -32 + ^ r8: .cfa -36 + ^
STACK CFI INIT 161e0 20 .cfa: sp 0 +
STACK CFI 161e2 .cfa: sp 16 + .ra: .cfa -4 + ^ r7: .cfa -8 + ^ r6: .cfa -12 + ^ r4: .cfa -16 + ^
STACK CFI 161e4 .cfa: r7 8 +
STACK CFI INIT 16200 310 .cfa: sp 0 +
STACK CFI 16202 .cfa: sp 20 + .ra: .cfa -4 + ^ r7: .cfa -8 + ^ r6: .cfa -12 + ^ r5: .cfa -16 + ^ r4: .cfa -20 + ^
STACK CFI 16204 .cfa: r7 8 +
STACK CFI 16208 r11: .cfa -24 + ^ r9: .cfa -28 + ^ r8: .cfa -32 + ^
STACK CFI INIT 16510 2 .cfa: sp 0 +
STACK CFI INIT 16514 ec .cfa: sp 0 +
STACK CFI 16516 .cfa: sp 20 + .ra: .cfa -4 + ^ r7: .cfa -8 + ^ r6: .cfa -12 + ^ r5: .cfa -16 + ^ r4: .cfa -20 + ^
STACK CFI 16518 .cfa: r7 8 +
STACK CFI 1651c r11: .cfa -24 + ^
STACK CFI INIT 16600 2d0 .cfa: sp 0 +
STACK CFI 16602 .cfa: sp 20 + .ra: .cfa -4 + ^ r7: .cfa -8 + ^ r6: .cfa -12 + ^ r5: .cfa -16 + ^ r4: .cfa -20 + ^
STACK CFI 16604 .cfa: r7 8 +
STACK CFI 16608 r11: .cfa -24 + ^ r10: .cfa -28 + ^ r9: .cfa -32 + ^ r8: .cfa -36 + ^
STACK CFI INIT 168d0 20 .cfa: sp 0 +
STACK CFI 168d2 .cfa: sp 16 + .ra: .cfa -4 + ^ r7: .cfa -8 + ^ r6: .cfa -12 + ^ r4: .cfa -16 + ^
STACK CFI 168d4 .cfa: r7 8 +
STACK CFI INIT 168f0 320 .cfa: sp 0 +
STACK CFI 168f2 .cfa: sp 20 + .ra: .cfa -4 + ^ r7: .cfa -8 + ^ r6: .cfa -12 + ^ r5: .cfa -16 + ^ r4: .cfa -20 + ^
STACK CFI 168f4 .cfa: r7 8 +
STACK CFI 168f8 r10: .cfa -24 + ^ r9: .cfa -28 + ^ r8: .cfa -32 + ^
STACK CFI INIT 16c10 2 .cfa: sp 0 +
STACK CFI INIT 16c14 ec .cfa: sp 0 +
STACK CFI 16c16 .cfa: sp 20 + .ra: .cfa -4 + ^ r7: .cfa -8 + ^ r6: .cfa -12 + ^ r5: .cfa -16 + ^ r4: .cfa -20 + ^
STACK CFI 16c18 .cfa: r7 8 +
STACK CFI 16c1c r11: .cfa -24 + ^
STACK CFI INIT 16d00 2d0 .cfa: sp 0 +
STACK CFI 16d02 .cfa: sp 20 + .ra: .cfa -4 + ^ r7: .cfa -8 + ^ r6: .cfa -12 + ^ r5: .cfa -16 + ^ r4: .cfa -20 + ^
STACK CFI 16d04 .cfa: r7 8 +
STACK CFI 16d08 r11: .cfa -24 + ^ r10: .cfa -28 + ^ r9: .cfa -32 + ^ r8: .cfa -36 + ^
STACK CFI INIT 16fd0 20 .cfa: sp 0 +
STACK CFI 16fd2 .cfa: sp 16 + .ra: .cfa -4 + ^ r7: .cfa -8 + ^ r6: .cfa -12 + ^ r4: .cfa -16 + ^
STACK CFI 16fd4 .cfa: r7 8 +
STACK CFI INIT 16ff0 320 .cfa: sp 0 +
STACK CFI 16ff2 .cfa: sp 20 + .ra: .cfa -4 + ^ r7: .cfa -8 + ^ r6: .cfa -12 + ^ r5: .cfa -16 + ^ r4: .cfa -20 + ^
STACK CFI 16ff4 .cfa: r7 8 +
STACK CFI 16ff8 r10: .cfa -24 + ^ r9: .cfa -28 + ^ r8: .cfa -32 + ^
STACK CFI INIT 17310 2 .cfa: sp 0 +
STACK CFI INIT 17314 ec .cfa: sp 0 +
STACK CFI 17316 .cfa: sp 20 + .ra: .cfa -4 + ^ r7: .cfa -8 + ^ r6: .cfa -12 + ^ r5: .cfa -16 + ^ r4: .cfa -20 + ^
STACK CFI 17318 .cfa: r7 8 +
STACK CFI 1731c r11: .cfa -24 + ^
STACK CFI INIT 17400 2d0 .cfa: sp 0 +
STACK CFI 17402 .cfa: sp 20 + .ra: .cfa -4 + ^ r7: .cfa -8 + ^ r6: .cfa -12 + ^ r5: .cfa -16 + ^ r4: .cfa -20 + ^
STACK CFI 17404 .cfa: r7 8 +
STACK CFI 17408 r11: .cfa -24 + ^ r10: .cfa -28 + ^ r9: .cfa -32 + ^ r8: .cfa -36 + ^
STACK CFI INIT 176d0 20 .cfa: sp 0 +
STACK CFI 176d2 .cfa: sp 16 + .ra: .cfa -4 + ^ r7: .cfa -8 + ^ r6: .cfa -12 + ^ r4: .cfa -16 + ^
STACK CFI 176d4 .cfa: r7 8 +
STACK CFI INIT 176f0 310 .cfa: sp 0 +
STACK CFI 176f2 .cfa: sp 20 + .ra: .cfa -4 + ^ r7: .cfa -8 + ^ r6: .cfa -12 + ^ r5: .cfa -16 + ^ r4: .cfa -20 + ^
STACK CFI 176f4 .cfa: r7 8 +
STACK CFI 176f8 r10: .cfa -24 + ^ r9: .cfa -28 + ^ r8: .cfa -32 + ^
STACK CFI INIT 17a00 2 .cfa: sp 0 +
STACK CFI INIT 17a04 ec .cfa: sp 0 +
STACK CFI 17a06 .cfa: sp 20 + .ra: .cfa -4 + ^ r7: .cfa -8 + ^ r6: .cfa -12 + ^ r5: .cfa -16 + ^ r4: .cfa -20 + ^
STACK CFI 17a08 .cfa: r7 8 +
STACK CFI 17a0c r11: .cfa -24 + ^
STACK CFI INIT 17af0 2d0 .cfa: sp 0 +
STACK CFI 17af2 .cfa: sp 20 + .ra: .cfa -4 + ^ r7: .cfa -8 + ^ r6: .cfa -12 + ^ r5: .cfa -16 + ^ r4: .cfa -20 + ^
STACK CFI 17af4 .cfa: r7 8 +
STACK CFI 17af8 r11: .cfa -24 + ^ r10: .cfa -28 + ^ r9: .cfa -32 + ^ r8: .cfa -36 + ^
STACK CFI INIT 17dc0 20 .cfa: sp 0 +
STACK CFI 17dc2 .cfa: sp 16 + .ra: .cfa -4 + ^ r7: .cfa -8 + ^ r6: .cfa -12 + ^ r4: .cfa -16 + ^
STACK CFI 17dc4 .cfa: r7 8 +
STACK CFI INIT 17de0 e28 .cfa: sp 0 +
STACK CFI 17de2 .cfa: sp 20 + .ra: .cfa -4 + ^ r7: .cfa -8 + ^ r6: .cfa -12 + ^ r5: .cfa -16 + ^ r4: .cfa -20 + ^
STACK CFI 17de4 .cfa: r7 8 +
STACK CFI 17de8 r11: .cfa -24 + ^ r10: .cfa -28 + ^ r9: .cfa -32 + ^ r8: .cfa -36 + ^
STACK CFI INIT 18c08 2 .cfa: sp 0 +
STACK CFI INIT 18c0c 110 .cfa: sp 0 +
STACK CFI 18c0e .cfa: sp 20 + .ra: .cfa -4 + ^ r7: .cfa -8 + ^ r6: .cfa -12 + ^ r5: .cfa -16 + ^ r4: .cfa -20 + ^
STACK CFI 18c10 .cfa: r7 8 +
STACK CFI 18c14 r11: .cfa -24 + ^ r9: .cfa -28 + ^ r8: .cfa -32 + ^
STACK CFI INIT 18d1c 10 .cfa: sp 0 +
STACK CFI 18d1e .cfa: sp 8 + .ra: .cfa -4 + ^ r7: .cfa -8 + ^
STACK CFI 18d20 .cfa: r7 8 +
STACK CFI INIT 18d2c 2d0 .cfa: sp 0 +
STACK CFI 18d2e .cfa: sp 20 + .ra: .cfa -4 + ^ r7: .cfa -8 + ^ r6: .cfa -12 + ^ r5: .cfa -16 + ^ r4: .cfa -20 + ^
STACK CFI 18d30 .cfa: r7 8 +
STACK CFI 18d34 r11: .cfa -24 + ^ r10: .cfa -28 + ^ r9: .cfa -32 + ^ r8: .cfa -36 + ^
STACK CFI INIT 18ffc 20 .cfa: sp 0 +
STACK CFI 18ffe .cfa: sp 16 + .ra: .cfa -4 + ^ r7: .cfa -8 + ^ r6: .cfa -12 + ^ r4: .cfa -16 + ^
STACK CFI 19000 .cfa: r7 8 +
STACK CFI INIT 19020 c28 .cfa: sp 0 +
STACK CFI 19022 .cfa: sp 20 + .ra: .cfa -4 + ^ r7: .cfa -8 + ^ r6: .cfa -12 + ^ r5: .cfa -16 + ^ r4: .cfa -20 + ^
STACK CFI 19024 .cfa: r7 8 +
STACK CFI 19028 r11: .cfa -24 + ^ r10: .cfa -28 + ^ r9: .cfa -32 + ^ r8: .cfa -36 + ^
STACK CFI INIT 19c48 2 .cfa: sp 0 +
STACK CFI INIT 19c4c 10c .cfa: sp 0 +
STACK CFI 19c4e .cfa: sp 20 + .ra: .cfa -4 + ^ r7: .cfa -8 + ^ r6: .cfa -12 + ^ r5: .cfa -16 + ^ r4: .cfa -20 + ^
STACK CFI 19c50 .cfa: r7 8 +
STACK CFI 19c54 r11: .cfa -24 + ^ r9: .cfa -28 + ^ r8: .cfa -32 + ^
STACK CFI INIT 19d58 2d0 .cfa: sp 0 +
STACK CFI 19d5a .cfa: sp 20 + .ra: .cfa -4 + ^ r7: .cfa -8 + ^ r6: .cfa -12 + ^ r5: .cfa -16 + ^ r4: .cfa -20 + ^
STACK CFI 19d5c .cfa: r7 8 +
STACK CFI 19d60 r11: .cfa -24 + ^ r10: .cfa -28 + ^ r9: .cfa -32 + ^ r8: .cfa -36 + ^
STACK CFI INIT 1a028 20 .cfa: sp 0 +
STACK CFI 1a02a .cfa: sp 16 + .ra: .cfa -4 + ^ r7: .cfa -8 + ^ r6: .cfa -12 + ^ r4: .cfa -16 + ^
STACK CFI 1a02c .cfa: r7 8 +
STACK CFI INIT 1a048 2d0 .cfa: sp 0 +
STACK CFI 1a04a .cfa: sp 20 + .ra: .cfa -4 + ^ r7: .cfa -8 + ^ r6: .cfa -12 + ^ r5: .cfa -16 + ^ r4: .cfa -20 + ^
STACK CFI 1a04c .cfa: r7 8 +
STACK CFI 1a050 r11: .cfa -24 + ^ r9: .cfa -28 + ^ r8: .cfa -32 + ^
STACK CFI INIT 1a318 2 .cfa: sp 0 +
STACK CFI INIT 1a31c 7c .cfa: sp 0 +
STACK CFI 1a31e .cfa: sp 16 + .ra: .cfa -4 + ^ r7: .cfa -8 + ^ r6: .cfa -12 + ^ r4: .cfa -16 + ^
STACK CFI 1a320 .cfa: r7 8 +
STACK CFI INIT 1a398 ec .cfa: sp 0 +
STACK CFI 1a39a .cfa: sp 20 + .ra: .cfa -4 + ^ r7: .cfa -8 + ^ r6: .cfa -12 + ^ r5: .cfa -16 + ^ r4: .cfa -20 + ^
STACK CFI 1a39c .cfa: r7 8 +
STACK CFI 1a3a0 r11: .cfa -24 + ^
STACK CFI INIT 1a484 84 .cfa: sp 0 +
STACK CFI 1a486 .cfa: sp 16 + .ra: .cfa -4 + ^ r7: .cfa -8 + ^ r6: .cfa -12 + ^ r4: .cfa -16 + ^
STACK CFI 1a488 .cfa: r7 8 +
STACK CFI INIT 1a508 2d0 .cfa: sp 0 +
STACK CFI 1a50a .cfa: sp 20 + .ra: .cfa -4 + ^ r7: .cfa -8 + ^ r6: .cfa -12 + ^ r5: .cfa -16 + ^ r4: .cfa -20 + ^
STACK CFI 1a50c .cfa: r7 8 +
STACK CFI 1a510 r11: .cfa -24 + ^ r10: .cfa -28 + ^ r9: .cfa -32 + ^ r8: .cfa -36 + ^
STACK CFI INIT 1a7d8 20 .cfa: sp 0 +
STACK CFI 1a7da .cfa: sp 16 + .ra: .cfa -4 + ^ r7: .cfa -8 + ^ r6: .cfa -12 + ^ r4: .cfa -16 + ^
STACK CFI 1a7dc .cfa: r7 8 +
STACK CFI INIT 1a7f8 2d0 .cfa: sp 0 +
STACK CFI 1a7fa .cfa: sp 20 + .ra: .cfa -4 + ^ r7: .cfa -8 + ^ r6: .cfa -12 + ^ r5: .cfa -16 + ^ r4: .cfa -20 + ^
STACK CFI 1a7fc .cfa: r7 8 +
STACK CFI 1a800 r11: .cfa -24 + ^ r9: .cfa -28 + ^ r8: .cfa -32 + ^
STACK CFI INIT 1aac8 2 .cfa: sp 0 +
STACK CFI INIT 1aacc 7c .cfa: sp 0 +
STACK CFI 1aace .cfa: sp 16 + .ra: .cfa -4 + ^ r7: .cfa -8 + ^ r6: .cfa -12 + ^ r4: .cfa -16 + ^
STACK CFI 1aad0 .cfa: r7 8 +
STACK CFI INIT 1ab48 ec .cfa: sp 0 +
STACK CFI 1ab4a .cfa: sp 20 + .ra: .cfa -4 + ^ r7: .cfa -8 + ^ r6: .cfa -12 + ^ r5: .cfa -16 + ^ r4: .cfa -20 + ^
STACK CFI 1ab4c .cfa: r7 8 +
STACK CFI 1ab50 r11: .cfa -24 + ^
STACK CFI INIT 1ac34 70 .cfa: sp 0 +
STACK CFI 1ac36 .cfa: sp 16 + .ra: .cfa -4 + ^ r7: .cfa -8 + ^ r6: .cfa -12 + ^ r4: .cfa -16 + ^
STACK CFI 1ac38 .cfa: r7 8 +
STACK CFI INIT 1aca4 2d0 .cfa: sp 0 +
STACK CFI 1aca6 .cfa: sp 20 + .ra: .cfa -4 + ^ r7: .cfa -8 + ^ r6: .cfa -12 + ^ r5: .cfa -16 + ^ r4: .cfa -20 + ^
STACK CFI 1aca8 .cfa: r7 8 +
STACK CFI 1acac r11: .cfa -24 + ^ r10: .cfa -28 + ^ r9: .cfa -32 + ^ r8: .cfa -36 + ^
STACK CFI INIT 1af74 20 .cfa: sp 0 +
STACK CFI 1af76 .cfa: sp 16 + .ra: .cfa -4 + ^ r7: .cfa -8 + ^ r6: .cfa -12 + ^ r4: .cfa -16 + ^
STACK CFI 1af78 .cfa: r7 8 +
STACK CFI INIT 1af94 2d0 .cfa: sp 0 +
STACK CFI 1af96 .cfa: sp 20 + .ra: .cfa -4 + ^ r7: .cfa -8 + ^ r6: .cfa -12 + ^ r5: .cfa -16 + ^ r4: .cfa -20 + ^
STACK CFI 1af98 .cfa: r7 8 +
STACK CFI 1af9c r11: .cfa -24 + ^ r9: .cfa -28 + ^ r8: .cfa -32 + ^
STACK CFI INIT 1b264 2 .cfa: sp 0 +
STACK CFI INIT 1b268 7c .cfa: sp 0 +
STACK CFI 1b26a .cfa: sp 16 + .ra: .cfa -4 + ^ r7: .cfa -8 + ^ r6: .cfa -12 + ^ r4: .cfa -16 + ^
STACK CFI 1b26c .cfa: r7 8 +
STACK CFI INIT 1b2e4 ec .cfa: sp 0 +
STACK CFI 1b2e6 .cfa: sp 20 + .ra: .cfa -4 + ^ r7: .cfa -8 + ^ r6: .cfa -12 + ^ r5: .cfa -16 + ^ r4: .cfa -20 + ^
STACK CFI 1b2e8 .cfa: r7 8 +
STACK CFI 1b2ec r11: .cfa -24 + ^
STACK CFI INIT 1b3d0 70 .cfa: sp 0 +
STACK CFI 1b3d2 .cfa: sp 16 + .ra: .cfa -4 + ^ r7: .cfa -8 + ^ r6: .cfa -12 + ^ r4: .cfa -16 + ^
STACK CFI 1b3d4 .cfa: r7 8 +
STACK CFI INIT 1b440 2d0 .cfa: sp 0 +
STACK CFI 1b442 .cfa: sp 20 + .ra: .cfa -4 + ^ r7: .cfa -8 + ^ r6: .cfa -12 + ^ r5: .cfa -16 + ^ r4: .cfa -20 + ^
STACK CFI 1b444 .cfa: r7 8 +
STACK CFI 1b448 r11: .cfa -24 + ^ r10: .cfa -28 + ^ r9: .cfa -32 + ^ r8: .cfa -36 + ^
STACK CFI INIT 1b710 20 .cfa: sp 0 +
STACK CFI 1b712 .cfa: sp 16 + .ra: .cfa -4 + ^ r7: .cfa -8 + ^ r6: .cfa -12 + ^ r4: .cfa -16 + ^
STACK CFI 1b714 .cfa: r7 8 +
STACK CFI INIT 1b730 310 .cfa: sp 0 +
STACK CFI 1b732 .cfa: sp 20 + .ra: .cfa -4 + ^ r7: .cfa -8 + ^ r6: .cfa -12 + ^ r5: .cfa -16 + ^ r4: .cfa -20 + ^
STACK CFI 1b734 .cfa: r7 8 +
STACK CFI 1b738 r10: .cfa -24 + ^ r9: .cfa -28 + ^ r8: .cfa -32 + ^
STACK CFI INIT 1ba40 2 .cfa: sp 0 +
STACK CFI INIT 1ba44 19c .cfa: sp 0 +
STACK CFI 1ba46 .cfa: sp 20 + .ra: .cfa -4 + ^ r7: .cfa -8 + ^ r6: .cfa -12 + ^ r5: .cfa -16 + ^ r4: .cfa -20 + ^
STACK CFI 1ba48 .cfa: r7 8 +
STACK CFI 1ba4c r11: .cfa -24 + ^
STACK CFI INIT 1bbe0 2d0 .cfa: sp 0 +
STACK CFI 1bbe2 .cfa: sp 20 + .ra: .cfa -4 + ^ r7: .cfa -8 + ^ r6: .cfa -12 + ^ r5: .cfa -16 + ^ r4: .cfa -20 + ^
STACK CFI 1bbe4 .cfa: r7 8 +
STACK CFI 1bbe8 r11: .cfa -24 + ^ r10: .cfa -28 + ^ r9: .cfa -32 + ^ r8: .cfa -36 + ^
STACK CFI INIT 1beb0 20 .cfa: sp 0 +
STACK CFI 1beb2 .cfa: sp 16 + .ra: .cfa -4 + ^ r7: .cfa -8 + ^ r6: .cfa -12 + ^ r4: .cfa -16 + ^
STACK CFI 1beb4 .cfa: r7 8 +
STACK CFI INIT 1bed0 2c8 .cfa: sp 0 +
STACK CFI 1bed2 .cfa: sp 20 + .ra: .cfa -4 + ^ r7: .cfa -8 + ^ r6: .cfa -12 + ^ r5: .cfa -16 + ^ r4: .cfa -20 + ^
STACK CFI 1bed4 .cfa: r7 8 +
STACK CFI 1bed8 r8: .cfa -24 + ^
STACK CFI INIT 1c198 2 .cfa: sp 0 +
STACK CFI INIT 1c19c 7c .cfa: sp 0 +
STACK CFI 1c19e .cfa: sp 16 + .ra: .cfa -4 + ^ r7: .cfa -8 + ^ r6: .cfa -12 + ^ r4: .cfa -16 + ^
STACK CFI 1c1a0 .cfa: r7 8 +
STACK CFI INIT 1c218 ec .cfa: sp 0 +
STACK CFI 1c21a .cfa: sp 20 + .ra: .cfa -4 + ^ r7: .cfa -8 + ^ r6: .cfa -12 + ^ r5: .cfa -16 + ^ r4: .cfa -20 + ^
STACK CFI 1c21c .cfa: r7 8 +
STACK CFI 1c220 r11: .cfa -24 + ^
STACK CFI INIT 1c304 78 .cfa: sp 0 +
STACK CFI 1c306 .cfa: sp 16 + .ra: .cfa -4 + ^ r7: .cfa -8 + ^ r6: .cfa -12 + ^ r4: .cfa -16 + ^
STACK CFI 1c308 .cfa: r7 8 +
STACK CFI INIT 1c37c 2d0 .cfa: sp 0 +
STACK CFI 1c37e .cfa: sp 20 + .ra: .cfa -4 + ^ r7: .cfa -8 + ^ r6: .cfa -12 + ^ r5: .cfa -16 + ^ r4: .cfa -20 + ^
STACK CFI 1c380 .cfa: r7 8 +
STACK CFI 1c384 r11: .cfa -24 + ^ r10: .cfa -28 + ^ r9: .cfa -32 + ^ r8: .cfa -36 + ^
STACK CFI INIT 1c64c 20 .cfa: sp 0 +
STACK CFI 1c64e .cfa: sp 16 + .ra: .cfa -4 + ^ r7: .cfa -8 + ^ r6: .cfa -12 + ^ r4: .cfa -16 + ^
STACK CFI 1c650 .cfa: r7 8 +
STACK CFI INIT 1c66c 2d0 .cfa: sp 0 +
STACK CFI 1c66e .cfa: sp 20 + .ra: .cfa -4 + ^ r7: .cfa -8 + ^ r6: .cfa -12 + ^ r5: .cfa -16 + ^ r4: .cfa -20 + ^
STACK CFI 1c670 .cfa: r7 8 +
STACK CFI 1c674 r11: .cfa -24 + ^ r9: .cfa -28 + ^ r8: .cfa -32 + ^
STACK CFI INIT 1c93c 2 .cfa: sp 0 +
STACK CFI INIT 1c940 7c .cfa: sp 0 +
STACK CFI 1c942 .cfa: sp 16 + .ra: .cfa -4 + ^ r7: .cfa -8 + ^ r6: .cfa -12 + ^ r4: .cfa -16 + ^
STACK CFI 1c944 .cfa: r7 8 +
STACK CFI INIT 1c9bc ec .cfa: sp 0 +
STACK CFI 1c9be .cfa: sp 20 + .ra: .cfa -4 + ^ r7: .cfa -8 + ^ r6: .cfa -12 + ^ r5: .cfa -16 + ^ r4: .cfa -20 + ^
STACK CFI 1c9c0 .cfa: r7 8 +
STACK CFI 1c9c4 r11: .cfa -24 + ^
STACK CFI INIT 1caa8 78 .cfa: sp 0 +
STACK CFI 1caaa .cfa: sp 16 + .ra: .cfa -4 + ^ r7: .cfa -8 + ^ r6: .cfa -12 + ^ r4: .cfa -16 + ^
STACK CFI 1caac .cfa: r7 8 +
STACK CFI INIT 1cb20 2d0 .cfa: sp 0 +
STACK CFI 1cb22 .cfa: sp 20 + .ra: .cfa -4 + ^ r7: .cfa -8 + ^ r6: .cfa -12 + ^ r5: .cfa -16 + ^ r4: .cfa -20 + ^
STACK CFI 1cb24 .cfa: r7 8 +
STACK CFI 1cb28 r11: .cfa -24 + ^ r10: .cfa -28 + ^ r9: .cfa -32 + ^ r8: .cfa -36 + ^
STACK CFI INIT 1cdf0 20 .cfa: sp 0 +
STACK CFI 1cdf2 .cfa: sp 16 + .ra: .cfa -4 + ^ r7: .cfa -8 + ^ r6: .cfa -12 + ^ r4: .cfa -16 + ^
STACK CFI 1cdf4 .cfa: r7 8 +
STACK CFI INIT 1ce10 360 .cfa: sp 0 +
STACK CFI 1ce12 .cfa: sp 20 + .ra: .cfa -4 + ^ r7: .cfa -8 + ^ r6: .cfa -12 + ^ r5: .cfa -16 + ^ r4: .cfa -20 + ^
STACK CFI 1ce14 .cfa: r7 8 +
STACK CFI 1ce18 r11: .cfa -24 + ^ r10: .cfa -28 + ^ r9: .cfa -32 + ^ r8: .cfa -36 + ^
STACK CFI INIT 1d170 2 .cfa: sp 0 +
STACK CFI INIT 1d174 ec .cfa: sp 0 +
STACK CFI 1d176 .cfa: sp 20 + .ra: .cfa -4 + ^ r7: .cfa -8 + ^ r6: .cfa -12 + ^ r5: .cfa -16 + ^ r4: .cfa -20 + ^
STACK CFI 1d178 .cfa: r7 8 +
STACK CFI 1d17c r11: .cfa -24 + ^
STACK CFI INIT 1d260 2d0 .cfa: sp 0 +
STACK CFI 1d262 .cfa: sp 20 + .ra: .cfa -4 + ^ r7: .cfa -8 + ^ r6: .cfa -12 + ^ r5: .cfa -16 + ^ r4: .cfa -20 + ^
STACK CFI 1d264 .cfa: r7 8 +
STACK CFI 1d268 r11: .cfa -24 + ^ r10: .cfa -28 + ^ r9: .cfa -32 + ^ r8: .cfa -36 + ^
STACK CFI INIT 1d530 20 .cfa: sp 0 +
STACK CFI 1d532 .cfa: sp 16 + .ra: .cfa -4 + ^ r7: .cfa -8 + ^ r6: .cfa -12 + ^ r4: .cfa -16 + ^
STACK CFI 1d534 .cfa: r7 8 +
STACK CFI INIT 1d550 360 .cfa: sp 0 +
STACK CFI 1d552 .cfa: sp 20 + .ra: .cfa -4 + ^ r7: .cfa -8 + ^ r6: .cfa -12 + ^ r5: .cfa -16 + ^ r4: .cfa -20 + ^
STACK CFI 1d554 .cfa: r7 8 +
STACK CFI 1d558 r11: .cfa -24 + ^ r10: .cfa -28 + ^ r9: .cfa -32 + ^ r8: .cfa -36 + ^
STACK CFI INIT 1d8b0 2 .cfa: sp 0 +
STACK CFI INIT 1d8b4 ec .cfa: sp 0 +
STACK CFI 1d8b6 .cfa: sp 20 + .ra: .cfa -4 + ^ r7: .cfa -8 + ^ r6: .cfa -12 + ^ r5: .cfa -16 + ^ r4: .cfa -20 + ^
STACK CFI 1d8b8 .cfa: r7 8 +
STACK CFI 1d8bc r11: .cfa -24 + ^
STACK CFI INIT 1d9a0 2d0 .cfa: sp 0 +
STACK CFI 1d9a2 .cfa: sp 20 + .ra: .cfa -4 + ^ r7: .cfa -8 + ^ r6: .cfa -12 + ^ r5: .cfa -16 + ^ r4: .cfa -20 + ^
STACK CFI 1d9a4 .cfa: r7 8 +
STACK CFI 1d9a8 r11: .cfa -24 + ^ r10: .cfa -28 + ^ r9: .cfa -32 + ^ r8: .cfa -36 + ^
STACK CFI INIT 1dc70 20 .cfa: sp 0 +
STACK CFI 1dc72 .cfa: sp 16 + .ra: .cfa -4 + ^ r7: .cfa -8 + ^ r6: .cfa -12 + ^ r4: .cfa -16 + ^
STACK CFI 1dc74 .cfa: r7 8 +
STACK CFI INIT 1dc90 354 .cfa: sp 0 +
STACK CFI 1dc92 .cfa: sp 20 + .ra: .cfa -4 + ^ r7: .cfa -8 + ^ r6: .cfa -12 + ^ r5: .cfa -16 + ^ r4: .cfa -20 + ^
STACK CFI 1dc94 .cfa: r7 8 +
STACK CFI 1dc98 r10: .cfa -24 + ^ r9: .cfa -28 + ^ r8: .cfa -32 + ^
STACK CFI INIT 1dfe4 2 .cfa: sp 0 +
STACK CFI INIT 1dfe8 124 .cfa: sp 0 +
STACK CFI 1dfea .cfa: sp 20 + .ra: .cfa -4 + ^ r7: .cfa -8 + ^ r6: .cfa -12 + ^ r5: .cfa -16 + ^ r4: .cfa -20 + ^
STACK CFI 1dfec .cfa: r7 8 +
STACK CFI 1dff0 r11: .cfa -24 + ^
STACK CFI INIT 1e10c 2d0 .cfa: sp 0 +
STACK CFI 1e10e .cfa: sp 20 + .ra: .cfa -4 + ^ r7: .cfa -8 + ^ r6: .cfa -12 + ^ r5: .cfa -16 + ^ r4: .cfa -20 + ^
STACK CFI 1e110 .cfa: r7 8 +
STACK CFI 1e114 r11: .cfa -24 + ^ r10: .cfa -28 + ^ r9: .cfa -32 + ^ r8: .cfa -36 + ^
STACK CFI INIT 1e3dc 20 .cfa: sp 0 +
STACK CFI 1e3de .cfa: sp 16 + .ra: .cfa -4 + ^ r7: .cfa -8 + ^ r6: .cfa -12 + ^ r4: .cfa -16 + ^
STACK CFI 1e3e0 .cfa: r7 8 +
STACK CFI INIT 1e400 320 .cfa: sp 0 +
STACK CFI 1e402 .cfa: sp 20 + .ra: .cfa -4 + ^ r7: .cfa -8 + ^ r6: .cfa -12 + ^ r5: .cfa -16 + ^ r4: .cfa -20 + ^
STACK CFI 1e404 .cfa: r7 8 +
STACK CFI 1e408 r10: .cfa -24 + ^ r9: .cfa -28 + ^ r8: .cfa -32 + ^
STACK CFI INIT 1e720 2 .cfa: sp 0 +
STACK CFI INIT 1e724 ec .cfa: sp 0 +
STACK CFI 1e726 .cfa: sp 20 + .ra: .cfa -4 + ^ r7: .cfa -8 + ^ r6: .cfa -12 + ^ r5: .cfa -16 + ^ r4: .cfa -20 + ^
STACK CFI 1e728 .cfa: r7 8 +
STACK CFI 1e72c r11: .cfa -24 + ^
STACK CFI INIT 1e810 2d0 .cfa: sp 0 +
STACK CFI 1e812 .cfa: sp 20 + .ra: .cfa -4 + ^ r7: .cfa -8 + ^ r6: .cfa -12 + ^ r5: .cfa -16 + ^ r4: .cfa -20 + ^
STACK CFI 1e814 .cfa: r7 8 +
STACK CFI 1e818 r11: .cfa -24 + ^ r10: .cfa -28 + ^ r9: .cfa -32 + ^ r8: .cfa -36 + ^
STACK CFI INIT 1eae0 20 .cfa: sp 0 +
STACK CFI 1eae2 .cfa: sp 16 + .ra: .cfa -4 + ^ r7: .cfa -8 + ^ r6: .cfa -12 + ^ r4: .cfa -16 + ^
STACK CFI 1eae4 .cfa: r7 8 +
STACK CFI INIT 1eb00 320 .cfa: sp 0 +
STACK CFI 1eb02 .cfa: sp 20 + .ra: .cfa -4 + ^ r7: .cfa -8 + ^ r6: .cfa -12 + ^ r5: .cfa -16 + ^ r4: .cfa -20 + ^
STACK CFI 1eb04 .cfa: r7 8 +
STACK CFI 1eb08 r10: .cfa -24 + ^ r9: .cfa -28 + ^ r8: .cfa -32 + ^
STACK CFI INIT 1ee20 2 .cfa: sp 0 +
STACK CFI INIT 1ee24 ec .cfa: sp 0 +
STACK CFI 1ee26 .cfa: sp 20 + .ra: .cfa -4 + ^ r7: .cfa -8 + ^ r6: .cfa -12 + ^ r5: .cfa -16 + ^ r4: .cfa -20 + ^
STACK CFI 1ee28 .cfa: r7 8 +
STACK CFI 1ee2c r11: .cfa -24 + ^
STACK CFI INIT 1ef10 2d0 .cfa: sp 0 +
STACK CFI 1ef12 .cfa: sp 20 + .ra: .cfa -4 + ^ r7: .cfa -8 + ^ r6: .cfa -12 + ^ r5: .cfa -16 + ^ r4: .cfa -20 + ^
STACK CFI 1ef14 .cfa: r7 8 +
STACK CFI 1ef18 r11: .cfa -24 + ^ r10: .cfa -28 + ^ r9: .cfa -32 + ^ r8: .cfa -36 + ^
STACK CFI INIT 1f1e0 20 .cfa: sp 0 +
STACK CFI 1f1e2 .cfa: sp 16 + .ra: .cfa -4 + ^ r7: .cfa -8 + ^ r6: .cfa -12 + ^ r4: .cfa -16 + ^
STACK CFI 1f1e4 .cfa: r7 8 +
STACK CFI INIT 1f200 324 .cfa: sp 0 +
STACK CFI 1f202 .cfa: sp 20 + .ra: .cfa -4 + ^ r7: .cfa -8 + ^ r6: .cfa -12 + ^ r5: .cfa -16 + ^ r4: .cfa -20 + ^
STACK CFI 1f204 .cfa: r7 8 +
STACK CFI 1f208 r11: .cfa -24 + ^ r9: .cfa -28 + ^ r8: .cfa -32 + ^
STACK CFI INIT 1f524 2 .cfa: sp 0 +
STACK CFI INIT 1f528 120 .cfa: sp 0 +
STACK CFI 1f52a .cfa: sp 20 + .ra: .cfa -4 + ^ r7: .cfa -8 + ^ r6: .cfa -12 + ^ r5: .cfa -16 + ^ r4: .cfa -20 + ^
STACK CFI 1f52c .cfa: r7 8 +
STACK CFI 1f530 r11: .cfa -24 + ^
STACK CFI INIT 1f648 2d0 .cfa: sp 0 +
STACK CFI 1f64a .cfa: sp 20 + .ra: .cfa -4 + ^ r7: .cfa -8 + ^ r6: .cfa -12 + ^ r5: .cfa -16 + ^ r4: .cfa -20 + ^
STACK CFI 1f64c .cfa: r7 8 +
STACK CFI 1f650 r11: .cfa -24 + ^ r10: .cfa -28 + ^ r9: .cfa -32 + ^ r8: .cfa -36 + ^
STACK CFI INIT 1f918 20 .cfa: sp 0 +
STACK CFI 1f91a .cfa: sp 16 + .ra: .cfa -4 + ^ r7: .cfa -8 + ^ r6: .cfa -12 + ^ r4: .cfa -16 + ^
STACK CFI 1f91c .cfa: r7 8 +
STACK CFI INIT 1f940 3a8 .cfa: sp 0 +
STACK CFI 1f942 .cfa: sp 20 + .ra: .cfa -4 + ^ r7: .cfa -8 + ^ r6: .cfa -12 + ^ r5: .cfa -16 + ^ r4: .cfa -20 + ^
STACK CFI 1f944 .cfa: r7 8 +
STACK CFI 1f948 r11: .cfa -24 + ^ r10: .cfa -28 + ^ r9: .cfa -32 + ^ r8: .cfa -36 + ^
STACK CFI INIT 1fce8 2 .cfa: sp 0 +
STACK CFI INIT 1fcec 158 .cfa: sp 0 +
STACK CFI 1fcee .cfa: sp 20 + .ra: .cfa -4 + ^ r7: .cfa -8 + ^ r6: .cfa -12 + ^ r5: .cfa -16 + ^ r4: .cfa -20 + ^
STACK CFI 1fcf0 .cfa: r7 8 +
STACK CFI 1fcf4 r11: .cfa -24 + ^
STACK CFI INIT 1fe44 bb0 .cfa: sp 0 +
STACK CFI 1fe46 .cfa: sp 20 + .ra: .cfa -4 + ^ r7: .cfa -8 + ^ r6: .cfa -12 + ^ r5: .cfa -16 + ^ r4: .cfa -20 + ^
STACK CFI 1fe48 .cfa: r7 8 +
STACK CFI 1fe4c r11: .cfa -24 + ^ r10: .cfa -28 + ^ r9: .cfa -32 + ^ r8: .cfa -36 + ^
STACK CFI INIT 209f4 5e .cfa: sp 0 +
STACK CFI 209f6 .cfa: sp 20 + .ra: .cfa -4 + ^ r7: .cfa -8 + ^ r6: .cfa -12 + ^ r5: .cfa -16 + ^ r4: .cfa -20 + ^
STACK CFI 209f8 .cfa: r7 8 +
STACK CFI 209fc r11: .cfa -24 + ^ r9: .cfa -28 + ^ r8: .cfa -32 + ^
STACK CFI INIT 20a54 678 .cfa: sp 0 +
STACK CFI 20a56 .cfa: sp 20 + .ra: .cfa -4 + ^ r7: .cfa -8 + ^ r6: .cfa -12 + ^ r5: .cfa -16 + ^ r4: .cfa -20 + ^
STACK CFI 20a58 .cfa: r7 8 +
STACK CFI 20a5c r11: .cfa -24 + ^ r10: .cfa -28 + ^ r9: .cfa -32 + ^ r8: .cfa -36 + ^
STACK CFI INIT 0 48 .cfa: sp 0 +
STACK CFI 2 .cfa: sp 16 + .ra: .cfa -4 + ^ r7: .cfa -8 + ^ r6: .cfa -12 + ^ r4: .cfa -16 + ^
STACK CFI 4 .cfa: r7 8 +
STACK CFI INIT 0 48 .cfa: sp 0 +
STACK CFI 2 .cfa: sp 16 + .ra: .cfa -4 + ^ r7: .cfa -8 + ^ r6: .cfa -12 + ^ r4: .cfa -16 + ^
STACK CFI 4 .cfa: r7 8 +
STACK CFI INIT 210cc 4 .cfa: sp 0 +
STACK CFI INIT 210d0 10 .cfa: sp 0 +
STACK CFI 210d2 .cfa: sp 8 + .ra: .cfa -4 + ^ r7: .cfa -8 + ^
STACK CFI 210d4 .cfa: r7 8 +
STACK CFI INIT 210e0 10 .cfa: sp 0 +
STACK CFI 210e2 .cfa: sp 8 + .ra: .cfa -4 + ^ r7: .cfa -8 + ^
STACK CFI 210e4 .cfa: r7 8 +
STACK CFI INIT 0 20 .cfa: sp 0 +
STACK CFI 2 .cfa: sp 16 + .ra: .cfa -4 + ^ r7: .cfa -8 + ^ r6: .cfa -12 + ^ r4: .cfa -16 + ^
STACK CFI 4 .cfa: r7 8 +
STACK CFI INIT 210f0 20 .cfa: sp 0 +
STACK CFI 210f2 .cfa: sp 16 + .ra: .cfa -4 + ^ r7: .cfa -8 + ^ r6: .cfa -12 + ^ r4: .cfa -16 + ^
STACK CFI 210f4 .cfa: r7 8 +
STACK CFI INIT 21110 28 .cfa: sp 0 +
STACK CFI 21112 .cfa: sp 16 + .ra: .cfa -4 + ^ r7: .cfa -8 + ^ r5: .cfa -12 + ^ r4: .cfa -16 + ^
STACK CFI 21114 .cfa: r7 8 +
STACK CFI INIT 21138 cc .cfa: sp 0 +
STACK CFI 2113a .cfa: sp 16 + .ra: .cfa -4 + ^ r7: .cfa -8 + ^ r6: .cfa -12 + ^ r4: .cfa -16 + ^
STACK CFI 2113c .cfa: r7 8 +
STACK CFI INIT 21204 48 .cfa: sp 0 +
STACK CFI 21206 .cfa: sp 16 + .ra: .cfa -4 + ^ r7: .cfa -8 + ^ r5: .cfa -12 + ^ r4: .cfa -16 + ^
STACK CFI 21208 .cfa: r7 8 +
STACK CFI INIT 2124c 60 .cfa: sp 0 +
STACK CFI 2124e .cfa: sp 16 + .ra: .cfa -4 + ^ r7: .cfa -8 + ^ r6: .cfa -12 + ^ r4: .cfa -16 + ^
STACK CFI 21250 .cfa: r7 8 +
STACK CFI INIT 212ac 46 .cfa: sp 0 +
STACK CFI 212ae .cfa: sp 16 + .ra: .cfa -4 + ^ r7: .cfa -8 + ^ r5: .cfa -12 + ^ r4: .cfa -16 + ^
STACK CFI 212b0 .cfa: r7 8 +
STACK CFI INIT 212f2 10 .cfa: sp 0 +
STACK CFI 212f4 .cfa: sp 8 + .ra: .cfa -4 + ^ r7: .cfa -8 + ^
STACK CFI 212f6 .cfa: r7 8 +
STACK CFI INIT 21304 1c0 .cfa: sp 0 +
STACK CFI 21306 .cfa: sp 20 + .ra: .cfa -4 + ^ r7: .cfa -8 + ^ r6: .cfa -12 + ^ r5: .cfa -16 + ^ r4: .cfa -20 + ^
STACK CFI 21308 .cfa: r7 8 +
STACK CFI 2130c r8: .cfa -24 + ^
STACK CFI INIT 214c4 10 .cfa: sp 0 +
STACK CFI 214c6 .cfa: sp 8 + .ra: .cfa -4 + ^ r7: .cfa -8 + ^
STACK CFI 214c8 .cfa: r7 8 +
STACK CFI INIT 214d4 fc .cfa: sp 0 +
STACK CFI 214d6 .cfa: sp 20 + .ra: .cfa -4 + ^ r7: .cfa -8 + ^ r6: .cfa -12 + ^ r5: .cfa -16 + ^ r4: .cfa -20 + ^
STACK CFI 214d8 .cfa: r7 8 +
STACK CFI 214dc r11: .cfa -24 + ^ r9: .cfa -28 + ^ r8: .cfa -32 + ^
STACK CFI INIT 215d0 70 .cfa: sp 0 +
STACK CFI 215d2 .cfa: sp 20 + .ra: .cfa -4 + ^ r7: .cfa -8 + ^ r6: .cfa -12 + ^ r5: .cfa -16 + ^ r4: .cfa -20 + ^
STACK CFI 215d4 .cfa: r7 8 +
STACK CFI 215d8 r11: .cfa -24 + ^
STACK CFI INIT 21640 124 .cfa: sp 0 +
STACK CFI 21642 .cfa: sp 20 + .ra: .cfa -4 + ^ r7: .cfa -8 + ^ r6: .cfa -12 + ^ r5: .cfa -16 + ^ r4: .cfa -20 + ^
STACK CFI 21644 .cfa: r7 8 +
STACK CFI 21648 r11: .cfa -24 + ^ r10: .cfa -28 + ^ r9: .cfa -32 + ^ r8: .cfa -36 + ^
STACK CFI INIT 21770 470 .cfa: sp 0 +
STACK CFI 21772 .cfa: sp 20 + .ra: .cfa -4 + ^ r7: .cfa -8 + ^ r6: .cfa -12 + ^ r5: .cfa -16 + ^ r4: .cfa -20 + ^
STACK CFI 21774 .cfa: r7 8 +
STACK CFI 21778 r11: .cfa -24 + ^ r10: .cfa -28 + ^ r9: .cfa -32 + ^ r8: .cfa -36 + ^
STACK CFI INIT 21be0 104 .cfa: sp 0 +
STACK CFI 21be2 .cfa: sp 20 + .ra: .cfa -4 + ^ r7: .cfa -8 + ^ r6: .cfa -12 + ^ r5: .cfa -16 + ^ r4: .cfa -20 + ^
STACK CFI 21be4 .cfa: r7 8 +
STACK CFI 21be8 r11: .cfa -24 + ^ r10: .cfa -28 + ^ r9: .cfa -32 + ^ r8: .cfa -36 + ^
STACK CFI INIT 21cf0 b0 .cfa: sp 0 +
STACK CFI 21cf2 .cfa: sp 20 + .ra: .cfa -4 + ^ r7: .cfa -8 + ^ r6: .cfa -12 + ^ r5: .cfa -16 + ^ r4: .cfa -20 + ^
STACK CFI 21cf4 .cfa: r7 8 +
STACK CFI 21cf8 r8: .cfa -24 + ^
STACK CFI INIT 21da0 2 .cfa: sp 0 +
STACK CFI INIT 21da4 22c .cfa: sp 0 +
STACK CFI 21da6 .cfa: sp 20 + .ra: .cfa -4 + ^ r7: .cfa -8 + ^ r6: .cfa -12 + ^ r5: .cfa -16 + ^ r4: .cfa -20 + ^
STACK CFI 21da8 .cfa: r7 8 +
STACK CFI 21dac r11: .cfa -24 + ^ r10: .cfa -28 + ^ r9: .cfa -32 + ^ r8: .cfa -36 + ^
STACK CFI INIT 21fd0 42c .cfa: sp 0 +
STACK CFI 21fd2 .cfa: sp 20 + .ra: .cfa -4 + ^ r7: .cfa -8 + ^ r6: .cfa -12 + ^ r5: .cfa -16 + ^ r4: .cfa -20 + ^
STACK CFI 21fd4 .cfa: r7 8 +
STACK CFI 21fd8 r11: .cfa -24 + ^ r10: .cfa -28 + ^ r9: .cfa -32 + ^ r8: .cfa -36 + ^
STACK CFI INIT 223fc f8 .cfa: sp 0 +
STACK CFI 223fe .cfa: sp 20 + .ra: .cfa -4 + ^ r7: .cfa -8 + ^ r6: .cfa -12 + ^ r5: .cfa -16 + ^ r4: .cfa -20 + ^
STACK CFI 22400 .cfa: r7 8 +
STACK CFI 22404 r8: .cfa -24 + ^
STACK CFI INIT 224f4 104 .cfa: sp 0 +
STACK CFI 224f6 .cfa: sp 20 + .ra: .cfa -4 + ^ r7: .cfa -8 + ^ r6: .cfa -12 + ^ r5: .cfa -16 + ^ r4: .cfa -20 + ^
STACK CFI 224f8 .cfa: r7 8 +
STACK CFI 224fc r8: .cfa -24 + ^
STACK CFI INIT 225f8 2 .cfa: sp 0 +
STACK CFI INIT 225fa e .cfa: sp 0 +
STACK CFI INIT 22608 3ea .cfa: sp 0 +
STACK CFI 2260a .cfa: sp 20 + .ra: .cfa -4 + ^ r7: .cfa -8 + ^ r6: .cfa -12 + ^ r5: .cfa -16 + ^ r4: .cfa -20 + ^
STACK CFI 2260c .cfa: r7 8 +
STACK CFI 22610 r11: .cfa -24 + ^ r10: .cfa -28 + ^ r9: .cfa -32 + ^ r8: .cfa -36 + ^
