MODULE Linux arm64 16C3D8E4DC9E1C34E2C7F43AB878504F0 alphalaneous.creative_mode.android64.so
INFO CODE_ID E4D8C3169EDC341CE2C7F43AB878504F984F9EDE
INFO GENERATOR mozilla/dump_syms 2.3.4
PUBLIC 282f0 0 __on_dlclose
PUBLIC 28300 0 __emutls_unregister_key
PUBLIC 28308 0 __on_dlclose_late
PUBLIC 28310 0 __atexit_handler_wrapper
PUBLIC 28324 0 atexit
PUBLIC 28340 0 pthread_atfork
PUBLIC 28350 0 unwind_phase2
PUBLIC 28484 0 _Unwind_Resume
PUBLIC 28508 0 unwind_phase2_forced
PUBLIC m 285fc 0 __unw_init_local
PUBLIC m 286a4 0 __unw_get_reg
PUBLIC 28720 0 __unw_step_stage2
PUBLIC m 28734 0 __unw_get_proc_info
PUBLIC m 28774 0 __unw_resume
PUBLIC 2879c 0 libunwind::CFI_Parser<libunwind::LocalAddressSpace>::decodeFDE(libunwind::LocalAddressSpace&, unsigned long, libunwind::CFI_Parser<libunwind::LocalAddressSpace>::FDE_Info*, libunwind::CFI_Parser<libunwind::LocalAddressSpace>::CIE_Info*, bool)
PUBLIC 2892c 0 libunwind::CFI_Parser<libunwind::LocalAddressSpace>::parseCIE(libunwind::LocalAddressSpace&, unsigned long, libunwind::CFI_Parser<libunwind::LocalAddressSpace>::CIE_Info*)
PUBLIC 28bf4 0 libunwind::AbstractUnwindCursor::~AbstractUnwindCursor()
PUBLIC 28bfc 0 libunwind::UnwindCursor<libunwind::LocalAddressSpace, libunwind::Registers_arm64>::~UnwindCursor()
PUBLIC 28c04 0 libunwind::UnwindCursor<libunwind::LocalAddressSpace, libunwind::Registers_arm64>::validReg(int)
PUBLIC 28c48 0 libunwind::UnwindCursor<libunwind::LocalAddressSpace, libunwind::Registers_arm64>::getReg(int)
PUBLIC 28d30 0 libunwind::UnwindCursor<libunwind::LocalAddressSpace, libunwind::Registers_arm64>::setReg(int, unsigned long)
PUBLIC 28e18 0 libunwind::UnwindCursor<libunwind::LocalAddressSpace, libunwind::Registers_arm64>::validFloatReg(int)
PUBLIC 28e2c 0 libunwind::UnwindCursor<libunwind::LocalAddressSpace, libunwind::Registers_arm64>::getFloatReg(int)
PUBLIC 28e3c 0 libunwind::UnwindCursor<libunwind::LocalAddressSpace, libunwind::Registers_arm64>::setFloatReg(int, double)
PUBLIC 28e4c 0 libunwind::UnwindCursor<libunwind::LocalAddressSpace, libunwind::Registers_arm64>::step(bool)
PUBLIC 28f3c 0 libunwind::UnwindCursor<libunwind::LocalAddressSpace, libunwind::Registers_arm64>::getInfo(unw_proc_info_t*)
PUBLIC 28f80 0 libunwind::UnwindCursor<libunwind::LocalAddressSpace, libunwind::Registers_arm64>::jumpto()
PUBLIC 28f8c 0 libunwind::UnwindCursor<libunwind::LocalAddressSpace, libunwind::Registers_arm64>::isSignalFrame()
PUBLIC 28f98 0 libunwind::UnwindCursor<libunwind::LocalAddressSpace, libunwind::Registers_arm64>::getFunctionName(char*, unsigned long, unsigned long*)
PUBLIC 28fc4 0 libunwind::UnwindCursor<libunwind::LocalAddressSpace, libunwind::Registers_arm64>::setInfoBasedOnIPRegister(bool)
PUBLIC 29244 0 libunwind::UnwindCursor<libunwind::LocalAddressSpace, libunwind::Registers_arm64>::getRegisterName(int)
PUBLIC 29250 0 libunwind::UnwindCursor<libunwind::LocalAddressSpace, libunwind::Registers_arm64>::stepThroughSigReturn(libunwind::Registers_arm64&)
PUBLIC 29370 0 libunwind::DwarfInstructions<libunwind::LocalAddressSpace, libunwind::Registers_arm64>::stepWithDwarf(libunwind::LocalAddressSpace&, unsigned long, unsigned long, libunwind::Registers_arm64&, bool&, bool)
PUBLIC 297f8 0 libunwind::CFI_Parser<libunwind::LocalAddressSpace>::parseFDEInstructions(libunwind::LocalAddressSpace&, libunwind::CFI_Parser<libunwind::LocalAddressSpace>::FDE_Info const&, libunwind::CFI_Parser<libunwind::LocalAddressSpace>::CIE_Info const&, unsigned long, int, libunwind::CFI_Parser<libunwind::LocalAddressSpace>::PrologInfo*)
PUBLIC 2a440 0 libunwind::DwarfInstructions<libunwind::LocalAddressSpace, libunwind::Registers_arm64>::getCFA(libunwind::LocalAddressSpace&, libunwind::CFI_Parser<libunwind::LocalAddressSpace>::PrologInfo const&, libunwind::Registers_arm64 const&)
PUBLIC 2a574 0 libunwind::DwarfInstructions<libunwind::LocalAddressSpace, libunwind::Registers_arm64>::getSavedRegister(libunwind::LocalAddressSpace&, libunwind::Registers_arm64 const&, unsigned long, libunwind::CFI_Parser<libunwind::LocalAddressSpace>::RegisterLocation const&)
PUBLIC 2a784 0 libunwind::LocalAddressSpace::getEncodedP(unsigned long&, unsigned long, unsigned char, unsigned long)
PUBLIC 2ab10 0 libunwind::LocalAddressSpace::getULEB128(unsigned long&, unsigned long)
PUBLIC 2acd8 0 libunwind::DwarfInstructions<libunwind::LocalAddressSpace, libunwind::Registers_arm64>::evaluateExpression(unsigned long, libunwind::LocalAddressSpace&, libunwind::Registers_arm64 const&, unsigned long)
PUBLIC 2b694 0 libunwind::UnwindCursor<libunwind::LocalAddressSpace, libunwind::Registers_arm64>::getInfoFromDwarfSection(unsigned long, libunwind::UnwindInfoSections const&, unsigned int)
PUBLIC 2b968 0 libunwind::findUnwindSectionsByPhdr(dl_phdr_info*, unsigned long, void*)
PUBLIC 2ba9c 0 libunwind::EHHeaderParser<libunwind::LocalAddressSpace>::decodeEHHdr(libunwind::LocalAddressSpace&, unsigned long, unsigned long, libunwind::EHHeaderParser<libunwind::LocalAddressSpace>::EHHeaderInfo&)
PUBLIC 2bbbc 0 libunwind::CFI_Parser<libunwind::LocalAddressSpace>::findFDE(libunwind::LocalAddressSpace&, unsigned long, unsigned long, unsigned long, unsigned long, libunwind::CFI_Parser<libunwind::LocalAddressSpace>::FDE_Info*, libunwind::CFI_Parser<libunwind::LocalAddressSpace>::CIE_Info*)
PUBLIC 2bd84 0 libunwind::EHHeaderParser<libunwind::LocalAddressSpace>::findFDE(libunwind::LocalAddressSpace&, unsigned long, unsigned long, unsigned int, libunwind::CFI_Parser<libunwind::LocalAddressSpace>::FDE_Info*, libunwind::CFI_Parser<libunwind::LocalAddressSpace>::CIE_Info*)
PUBLIC 2beec 0 libunwind::EHHeaderParser<libunwind::LocalAddressSpace>::getTableEntrySize(unsigned char)
PUBLIC 2bfe8 0 libunwind::Registers_arm64::getRegisterName(int)
PUBLIC 2c018 0 __libunwind_Registers_arm64_jumpto
PUBLIC m 2c0a8 0 __unw_getcontext
PUBLIC 2c144 0 cocos2d::CCCopying::copyWithZone(cocos2d::CCZone*)
PUBLIC 2c14c 0 __clang_call_terminate
PUBLIC 2c15c 0 std::__ndk1::vector<geode::Ref<cocos2d::CCNode>, std::__ndk1::allocator<geode::Ref<cocos2d::CCNode> > >::__throw_length_error[abi:ne180000]() const
PUBLIC 2c170 0 std::__ndk1::__throw_length_error[abi:ne180000](char const*)
PUBLIC 2c1c0 0 std::length_error::length_error[abi:ne180000](char const*)
PUBLIC 2c1f0 0 std::__throw_bad_array_new_length([abi:ne180000], void)
PUBLIC 2c230 0 __aarch64_ldadd8_relax
PUBLIC 2c260 0 init_have_lse_atomics
PUBLIC 2c2f8 0 __init_cpu_features_constructor
PUBLIC 2c894 0 __init_cpu_features
PUBLIC 2c920 0 __aarch64_ldadd8_acq_rel
PUBLIC 2c950 0 Hover::addHoverEnabledItem(CCMenuItemSpriteExtra*)
PUBLIC 2cb1c 0 Hover::update(float)
PUBLIC 2cf20 0 Hover::~Hover()
PUBLIC 2cf60 0 Hover::~Hover()
PUBLIC 2cfa4 0 __cxx_global_var_init
PUBLIC 2d004 0 geode::modifier::ModifyBase<geode::modifier::ModifyDerive<HoverEnabledCCMenuItemSpriteExtra, CCMenuItemSpriteExtra> >::~ModifyBase()
PUBLIC 2d020 0 std::__ndk1::vector<CCMenuItemSpriteExtra*, std::__ndk1::allocator<CCMenuItemSpriteExtra*> >::__throw_length_error[abi:ne180000]() const
PUBLIC 2d034 0 geode::modifier::FieldIntermediate<HoverEnabledCCMenuItemSpriteExtra, CCMenuItemSpriteExtra>::self()
PUBLIC 2d1c0 0 geode::modifier::FieldContainer::getField(unsigned long)
PUBLIC 2d478 0 geode::modifier::FieldContainer::setField(unsigned long, unsigned long, std::__ndk1::function<void (void*)>)
PUBLIC 2d58c 0 geode::modifier::FieldIntermediate<HoverEnabledCCMenuItemSpriteExtra, CCMenuItemSpriteExtra>::fieldDestructor(void*)
PUBLIC 2d6c0 0 std::__ndk1::vector<void*, std::__ndk1::allocator<void*> >::__throw_length_error[abi:ne180000]() const
PUBLIC 2d6d4 0 std::__ndk1::vector<std::__ndk1::function<void (void*)>, std::__ndk1::allocator<std::__ndk1::function<void (void*)> > >::__push_back_slow_path<std::__ndk1::function<void (void*)> >(std::__ndk1::function<void (void*)>&&)
PUBLIC 2d900 0 std::__ndk1::vector<std::__ndk1::function<void (void*)>, std::__ndk1::allocator<std::__ndk1::function<void (void*)> > >::__throw_length_error[abi:ne180000]() const
PUBLIC 2d914 0 std::__ndk1::vector<void*, std::__ndk1::allocator<void*> >::__throw_out_of_range[abi:ne180000]() const
PUBLIC 2d928 0 std::__ndk1::__throw_out_of_range[abi:ne180000](char const*)
PUBLIC 2d978 0 std::out_of_range::out_of_range[abi:ne180000](char const*)
PUBLIC 2d9a8 0 std::__ndk1::vector<std::__ndk1::function<void (void*)>, std::__ndk1::allocator<std::__ndk1::function<void (void*)> > >::__throw_out_of_range[abi:ne180000]() const
PUBLIC 2d9bc 0 std::__ndk1::__function::__base<void (void*)>::~__base()
PUBLIC 2d9c0 0 std::__ndk1::__function::__func<void (*)(void*), std::__ndk1::allocator<void (*)(void*)>, void (void*)>::~__func()
PUBLIC 2d9c4 0 std::__ndk1::__function::__func<void (*)(void*), std::__ndk1::allocator<void (*)(void*)>, void (void*)>::__clone() const
PUBLIC 2d9fc 0 std::__ndk1::__function::__func<void (*)(void*), std::__ndk1::allocator<void (*)(void*)>, void (void*)>::__clone(std::__ndk1::__function::__base<void (void*)>*) const
PUBLIC 2da14 0 std::__ndk1::__function::__func<void (*)(void*), std::__ndk1::allocator<void (*)(void*)>, void (void*)>::destroy()
PUBLIC 2da18 0 std::__ndk1::__function::__func<void (*)(void*), std::__ndk1::allocator<void (*)(void*)>, void (void*)>::destroy_deallocate()
PUBLIC 2da1c 0 std::__ndk1::__function::__func<void (*)(void*), std::__ndk1::allocator<void (*)(void*)>, void (void*)>::operator()(void*&&)
PUBLIC 2da2c 0 std::__ndk1::__function::__func<void (*)(void*), std::__ndk1::allocator<void (*)(void*)>, void (void*)>::target(std::type_info const&) const
PUBLIC 2da48 0 std::__ndk1::__function::__func<void (*)(void*), std::__ndk1::allocator<void (*)(void*)>, void (void*)>::target_type() const
PUBLIC 2da54 0 geode::modifier::ModifyBase<geode::modifier::ModifyDerive<HoverEnabledCCMenuItemSpriteExtra, CCMenuItemSpriteExtra> >::ModifyBase()
PUBLIC 2de50 0 geode::modifier::ModifyDerive<HoverEnabledCCMenuItemSpriteExtra, CCMenuItemSpriteExtra>::apply()
PUBLIC 2e2e8 0 std::__ndk1::shared_ptr<geode::Hook>::~shared_ptr[abi:ne180000]()
PUBLIC 2e338 0 geode::impl::ResultData<geode::Hook*, std::__ndk1::basic_string<char, std::__ndk1::char_traits<char>, std::__ndk1::allocator<char> > >::~ResultData()
PUBLIC 2e3ac 0 std::__ndk1::vector<std::__ndk1::basic_string<char, std::__ndk1::char_traits<char>, std::__ndk1::allocator<char> >, std::__ndk1::allocator<std::__ndk1::basic_string<char, std::__ndk1::char_traits<char>, std::__ndk1::allocator<char> > > >::~vector[abi:ne180000]()
PUBLIC 2e428 0 geode::modifier::ModifyBase<geode::modifier::ModifyDerive<HoverEnabledCCMenuItemSpriteExtra, CCMenuItemSpriteExtra> >::apply()
PUBLIC 2e42c 0 _ZN5geode15UnwrapExceptionC2IRPNS_4HookEQsr4implE18IsStringStreamableIT_EEENS_4impl5OkTagEOS5_
PUBLIC 2e580 0 std::__ndk1::__throw_bad_variant_access[abi:ne180000]()
PUBLIC 2e5b4 0 std::__ndk1::basic_stringstream<char, std::__ndk1::char_traits<char>, std::__ndk1::allocator<char> >::basic_stringstream[abi:ne180000]()
PUBLIC m 2e6e0 0 std::__ndk1::basic_stringstream<char, std::__ndk1::char_traits<char>, std::__ndk1::allocator<char> >::~basic_stringstream()
PUBLIC 2e760 0 geode::UnwrapException::~UnwrapException()
PUBLIC 2e784 0 std::__ndk1::__put_character_sequence[abi:ne180000]<char, std::__ndk1::char_traits<char> >(std::__ndk1::basic_ostream<char, std::__ndk1::char_traits<char> >, std::__ndk1::basic_ostream const*, unsigned long)
PUBLIC 2e928 0 std::__ndk1::__pad_and_output[abi:ne180000]<char, std::__ndk1::char_traits<char> >(std::__ndk1::char_traits<char>, std::__ndk1::ostreambuf_iterator const*, std::__ndk1::ostreambuf_iterator const, std::__ndk1::ostreambuf_iterator const, std::__ndk1::ios_base&, std::__ndk1::ostreambuf_iterator)
PUBLIC 2eb04 0 std::__ndk1::basic_string<char, std::__ndk1::char_traits<char>, std::__ndk1::allocator<char> >::__throw_length_error[abi:ne180000]() const
PUBLIC 2eb18 0 std::__ndk1::basic_stringbuf<char, std::__ndk1::char_traits<char>, std::__ndk1::allocator<char> >::str[abi:ne180000]() &&
PUBLIC 2ec90 0 std::__ndk1::basic_stringbuf<char, std::__ndk1::char_traits<char>, std::__ndk1::allocator<char> >::__init_buf_ptrs[abi:ne180000]()
PUBLIC 2edd8 0 std::__ndk1::vector<std::__ndk1::basic_string<char, std::__ndk1::char_traits<char>, std::__ndk1::allocator<char> >, std::__ndk1::allocator<std::__ndk1::basic_string<char, std::__ndk1::char_traits<char>, std::__ndk1::allocator<char> > > >::__push_back_slow_path<std::__ndk1::basic_string<char, std::__ndk1::char_traits<char>, std::__ndk1::allocator<char> > const&>(std::__ndk1::basic_string<char, std::__ndk1::char_traits<char>, std::__ndk1::allocator<char> > const&)
PUBLIC 2f000 0 std::__ndk1::basic_string<char, std::__ndk1::char_traits<char>, std::__ndk1::allocator<char> >::__init_copy_ctor_external(char const*, unsigned long)
PUBLIC 2f080 0 std::__ndk1::__split_buffer<std::__ndk1::basic_string<char, std::__ndk1::char_traits<char>, std::__ndk1::allocator<char> >, std::__ndk1::allocator<std::__ndk1::basic_string<char, std::__ndk1::char_traits<char>, std::__ndk1::allocator<char> > >&>::~__split_buffer()
PUBLIC 2f0e8 0 std::__ndk1::vector<std::__ndk1::basic_string<char, std::__ndk1::char_traits<char>, std::__ndk1::allocator<char> >, std::__ndk1::allocator<std::__ndk1::basic_string<char, std::__ndk1::char_traits<char>, std::__ndk1::allocator<char> > > >::__throw_length_error[abi:ne180000]() const
PUBLIC 2f0fc 0 std::__ndk1::__variant_detail::__visitation::__base::__dispatcher<(unsigned long)0>::__dispatch[abi:ne180000]<std::__ndk1::__variant_detail::__dtor<std::__ndk1::__variant_detail::__traits<geode::Hook*, std::__ndk1::basic_string<char, std::__ndk1::char_traits<char>, std::__ndk1::allocator<char> > >, (std::__ndk1::__variant_detail::_Trait)1>::__destroy[abi:ne180000]()::{lambda(auto:1&)#1}, std::__ndk1::__variant_detail::__base<(std::__ndk1::__variant_detail::__traits<geode::Hook*, std::__ndk1::basic_string<char, std::__ndk1::char_traits<char>, std::__ndk1::allocator<char> > >)1, geode::Hook, std::__ndk1::allocator<char> >&>(std::__ndk1::__variant_detail::__dtor<std::__ndk1::__variant_detail::__traits<geode::Hook*, std::__ndk1::basic_string<char, std::__ndk1::char_traits<char>, std::__ndk1::allocator<char> > >, (std::__ndk1::__variant_detail::_Trait)1>, std::__ndk1::__variant_detail::__base<(std::__ndk1::__variant_detail::__traits<geode::Hook*, std::__ndk1::basic_string<char, std::__ndk1::char_traits<char>, std::__ndk1::allocator<char> > >)1, geode::Hook, std::__ndk1::allocator<char> >&)
PUBLIC 2f100 0 std::__ndk1::__variant_detail::__visitation::__base::__dispatcher<(unsigned long)1>::__dispatch[abi:ne180000]<std::__ndk1::__variant_detail::__dtor<std::__ndk1::__variant_detail::__traits<geode::Hook*, std::__ndk1::basic_string<char, std::__ndk1::char_traits<char>, std::__ndk1::allocator<char> > >, (std::__ndk1::__variant_detail::_Trait)1>::__destroy[abi:ne180000]()::{lambda(auto:1&)#1}, std::__ndk1::__variant_detail::__base<(std::__ndk1::__variant_detail::__traits<geode::Hook*, std::__ndk1::basic_string<char, std::__ndk1::char_traits<char>, std::__ndk1::allocator<char> > >)1, geode::Hook, std::__ndk1::allocator<char> >&>(std::__ndk1::__variant_detail::__dtor<std::__ndk1::__variant_detail::__traits<geode::Hook*, std::__ndk1::basic_string<char, std::__ndk1::char_traits<char>, std::__ndk1::allocator<char> > >, (std::__ndk1::__variant_detail::_Trait)1>, std::__ndk1::__variant_detail::__base<(std::__ndk1::__variant_detail::__traits<geode::Hook*, std::__ndk1::basic_string<char, std::__ndk1::char_traits<char>, std::__ndk1::allocator<char> > >)1, geode::Hook, std::__ndk1::allocator<char> >&)
PUBLIC 2f114 0 std::__ndk1::__tree<std::__ndk1::__value_type<std::__ndk1::basic_string<char, std::__ndk1::char_traits<char>, std::__ndk1::allocator<char> >, std::__ndk1::shared_ptr<geode::Hook> >, std::__ndk1::__map_value_compare<std::__ndk1::basic_string<char, std::__ndk1::char_traits<char>, std::__ndk1::allocator<char> >, std::__ndk1::__value_type<std::__ndk1::basic_string<char, std::__ndk1::char_traits<char>, std::__ndk1::allocator<char> >, std::__ndk1::shared_ptr<geode::Hook> >, std::__ndk1::less<std::__ndk1::basic_string<char, std::__ndk1::char_traits<char>, std::__ndk1::allocator<char> > >, true>, std::__ndk1::allocator<std::__ndk1::__value_type<std::__ndk1::basic_string<char, std::__ndk1::char_traits<char>, std::__ndk1::allocator<char> >, std::__ndk1::shared_ptr<geode::Hook> > > >::find<std::__ndk1::basic_string<char, std::__ndk1::char_traits<char>, std::__ndk1::allocator<char> > >(std::__ndk1::basic_string<char, std::__ndk1::char_traits<char>, std::__ndk1::allocator<char> > const&)
PUBLIC 2f234 0 std::__ndk1::__tree<std::__ndk1::__value_type<std::__ndk1::basic_string<char, std::__ndk1::char_traits<char>, std::__ndk1::allocator<char> >, std::__ndk1::shared_ptr<geode::Hook> >, std::__ndk1::__map_value_compare<std::__ndk1::basic_string<char, std::__ndk1::char_traits<char>, std::__ndk1::allocator<char> >, std::__ndk1::__value_type<std::__ndk1::basic_string<char, std::__ndk1::char_traits<char>, std::__ndk1::allocator<char> >, std::__ndk1::shared_ptr<geode::Hook> >, std::__ndk1::less<std::__ndk1::basic_string<char, std::__ndk1::char_traits<char>, std::__ndk1::allocator<char> > >, true>, std::__ndk1::allocator<std::__ndk1::__value_type<std::__ndk1::basic_string<char, std::__ndk1::char_traits<char>, std::__ndk1::allocator<char> >, std::__ndk1::shared_ptr<geode::Hook> > > >::erase(std::__ndk1::__tree_const_iterator<std::__ndk1::__value_type<std::__ndk1::basic_string<char, std::__ndk1::char_traits<char>, std::__ndk1::allocator<char> >, std::__ndk1::shared_ptr<geode::Hook> >, std::__ndk1::__tree_node<std::__ndk1::__value_type<std::__ndk1::basic_string<char, std::__ndk1::char_traits<char>, std::__ndk1::allocator<char> >, std::__ndk1::shared_ptr<geode::Hook> >, void*>*, long>)
PUBLIC 2f308 0 std::__ndk1::__tree_remove[abi:ne180000]<std::__ndk1::__tree_node_base<void*>*>(std::__ndk1::__tree_node_base<void*>*, std::__ndk1::__tree_node_base<void*>*)
PUBLIC 2f6d0 0 std::__ndk1::__tree<std::__ndk1::__value_type<std::__ndk1::basic_string<char, std::__ndk1::char_traits<char>, std::__ndk1::allocator<char> >, std::__ndk1::shared_ptr<geode::Hook> >, std::__ndk1::__map_value_compare<std::__ndk1::basic_string<char, std::__ndk1::char_traits<char>, std::__ndk1::allocator<char> >, std::__ndk1::__value_type<std::__ndk1::basic_string<char, std::__ndk1::char_traits<char>, std::__ndk1::allocator<char> >, std::__ndk1::shared_ptr<geode::Hook> >, std::__ndk1::less<std::__ndk1::basic_string<char, std::__ndk1::char_traits<char>, std::__ndk1::allocator<char> > >, true>, std::__ndk1::allocator<std::__ndk1::__value_type<std::__ndk1::basic_string<char, std::__ndk1::char_traits<char>, std::__ndk1::allocator<char> >, std::__ndk1::shared_ptr<geode::Hook> > > >::destroy(std::__ndk1::__tree_node<std::__ndk1::__value_type<std::__ndk1::basic_string<char, std::__ndk1::char_traits<char>, std::__ndk1::allocator<char> >, std::__ndk1::shared_ptr<geode::Hook> >, void*>*)
PUBLIC 2f75c 0 geode::Hook::create<void (*)(HoverEnabledCCMenuItemSpriteExtra*)>(void*, void (*)(HoverEnabledCCMenuItemSpriteExtra*), std::__ndk1::basic_string<char, std::__ndk1::char_traits<char>, std::__ndk1::allocator<char> > const&, tulip::hook::TulipConvention, tulip::hook::HookMetadata const&)
PUBLIC 2f890 0 geode::modifier::AsStaticFunction_selected<HoverEnabledCCMenuItemSpriteExtra, void (HoverEnabledCCMenuItemSpriteExtra::*)()>::Impl<void (HoverEnabledCCMenuItemSpriteExtra::*)()>::function(HoverEnabledCCMenuItemSpriteExtra*)
PUBLIC 2f894 0 geode::modifier::AsStaticFunction_unselected<HoverEnabledCCMenuItemSpriteExtra, void (HoverEnabledCCMenuItemSpriteExtra::*)()>::Impl<void (HoverEnabledCCMenuItemSpriteExtra::*)()>::function(HoverEnabledCCMenuItemSpriteExtra*)
PUBLIC 2f898 0 geode::addresser::Addresser::addressOfVirtual<void, CCMenuItemSpriteExtra, >(void (CCMenuItemSpriteExtra::*)())
PUBLIC 2f984 0 CCMenuItemSpriteExtra::CCMenuItemSpriteExtra(geode::ZeroConstructorType)
PUBLIC 2fa64 0 std::__ndk1::shared_ptr<tulip::hook::CallingConvention>::~shared_ptr[abi:ne180000]()
PUBLIC 2fab4 0 tulip::hook::HandlerMetadata::~HandlerMetadata()
PUBLIC 2fb18 0 HoverEnabledCCMenuItemSpriteExtra::selected()
PUBLIC 2fbf0 0 std::__ndk1::__tree<std::__ndk1::__value_type<std::__ndk1::basic_string<char, std::__ndk1::char_traits<char>, std::__ndk1::allocator<char> >, std::__ndk1::shared_ptr<geode::Hook> >, std::__ndk1::__map_value_compare<std::__ndk1::basic_string<char, std::__ndk1::char_traits<char>, std::__ndk1::allocator<char> >, std::__ndk1::__value_type<std::__ndk1::basic_string<char, std::__ndk1::char_traits<char>, std::__ndk1::allocator<char> >, std::__ndk1::shared_ptr<geode::Hook> >, std::__ndk1::less<std::__ndk1::basic_string<char, std::__ndk1::char_traits<char>, std::__ndk1::allocator<char> > >, true>, std::__ndk1::allocator<std::__ndk1::__value_type<std::__ndk1::basic_string<char, std::__ndk1::char_traits<char>, std::__ndk1::allocator<char> >, std::__ndk1::shared_ptr<geode::Hook> > > >::__emplace_unique_key_args<std::__ndk1::basic_string<char, std::__ndk1::char_traits<char>, std::__ndk1::allocator<char> >, std::__ndk1::piecewise_construct_t const&, std::__ndk1::tuple<std::__ndk1::basic_string<char, std::__ndk1::char_traits<char>, std::__ndk1::allocator<char> >&&>, std::__ndk1::tuple<> >(std::__ndk1::basic_string<char, std::__ndk1::char_traits<char>, std::__ndk1::allocator<char> > const&, std::__ndk1::piecewise_construct_t const&, std::__ndk1::tuple<std::__ndk1::basic_string<char, std::__ndk1::char_traits<char>, std::__ndk1::allocator<char> >&&>, std::__ndk1::tuple<>)
PUBLIC 2fd68 0 std::__ndk1::__tree_balance_after_insert[abi:ne180000]<std::__ndk1::__tree_node_base<void*>*>(std::__ndk1::__tree_node_base<void*>*, std::__ndk1::__tree_node_base<void*>*)
PUBLIC 2ff18 0 HoverEnabledCCMenuItemSpriteExtra::unselected()
PUBLIC 2ffe4 0 geode::cast::traverseTypeinfoFor(void*, geode::cast::ClassTypeinfoType const*, char const*)
PUBLIC 300e8 0 LimitedCCMenu::ccTouchBegan(cocos2d::CCTouch*, cocos2d::CCEvent*)
PUBLIC 30218 0 {virtual override thunk({offset(-320)}, LimitedCCMenu::ccTouchBegan(cocos2d::CCTouch*, cocos2d::CCEvent*))}
PUBLIC 30220 0 LimitedCCMenu::~LimitedCCMenu()
PUBLIC 30244 0 cocos2d::CCMenu::setOpacityModifyRGB(bool)
PUBLIC 30248 0 cocos2d::CCMenu::isOpacityModifyRGB()
PUBLIC 30250 0 cocos2d::CCMenu::isEnabled()
PUBLIC 30258 0 cocos2d::CCMenu::setEnabled(bool)
PUBLIC 30260 0 {virtual override thunk({offset(-320)}, LimitedCCMenu::~LimitedCCMenu())}
PUBLIC 30268 0 {virtual override thunk({offset(-320)}, LimitedCCMenu::~LimitedCCMenu())}
PUBLIC 30290 0 cocos2d::CCKeyboardDelegate::keyUp(cocos2d::enumKeyCodes)
PUBLIC 30294 0 cocos2d::CCMouseDelegate::rightKeyDown()
PUBLIC 30298 0 cocos2d::CCMouseDelegate::rightKeyUp()
PUBLIC 3029c 0 cocos2d::CCMouseDelegate::scrollWheel(float, float)
PUBLIC 302a0 0 {virtual override thunk({offset(-408)}, cocos2d::CCMenu::setOpacityModifyRGB(bool))}
PUBLIC 302a4 0 {virtual override thunk({offset(-408)}, cocos2d::CCMenu::isOpacityModifyRGB())}
PUBLIC 302ac 0 std::__ndk1::vector<geode::Ref<cocos2d::CCMenuItem>, std::__ndk1::allocator<geode::Ref<cocos2d::CCMenuItem> > >::~vector[abi:ne180000]()
PUBLIC 30330 0 ScrollLayerPro::addRows(std::__ndk1::vector<cocos2d::CCNode*, std::__ndk1::allocator<cocos2d::CCNode*> >, float, int)
PUBLIC 3045c 0 std::__ndk1::vector<geode::Ref<cocos2d::CCNode>, std::__ndk1::allocator<geode::Ref<cocos2d::CCNode> > >::~vector[abi:ne180000]()
PUBLIC 304e0 0 ScrollLayerPro::listenForPosChange(float)
PUBLIC 305d8 0 ScrollLayerPro::ccTouchMoved(cocos2d::CCTouch*, cocos2d::CCEvent*)
PUBLIC 306f4 0 {virtual override thunk({offset(-320)}, ScrollLayerPro::ccTouchMoved(cocos2d::CCTouch*, cocos2d::CCEvent*))}
PUBLIC 306fc 0 ScrollLayerPro::ccTouchEnded(cocos2d::CCTouch*, cocos2d::CCEvent*)
PUBLIC 307d0 0 {virtual override thunk({offset(-320)}, ScrollLayerPro::ccTouchEnded(cocos2d::CCTouch*, cocos2d::CCEvent*))}
PUBLIC 308a4 0 ScrollLayerPro::ScrollLayerPro(cocos2d::CCRect const&, std::__ndk1::function<void (bool)>, bool, bool)
PUBLIC 30b54 0 ScrollLayerPro::create(cocos2d::CCRect const&, std::__ndk1::function<void (bool)>, bool, bool)
PUBLIC 30cbc 0 ScrollLayerPro::~ScrollLayerPro()
PUBLIC 30dc8 0 ScrollLayerPro::~ScrollLayerPro()
PUBLIC 30dec 0 {virtual override thunk({offset(-320)}, ScrollLayerPro::~ScrollLayerPro())}
PUBLIC 30df4 0 {virtual override thunk({offset(-320)}, ScrollLayerPro::~ScrollLayerPro())}
PUBLIC 30e1c 0 std::__ndk1::vector<geode::Ref<cocos2d::CCMenuItem>, std::__ndk1::allocator<geode::Ref<cocos2d::CCMenuItem> > >::__init_with_size[abi:ne180000]<std::__ndk1::__wrap_iter<cocos2d::CCMenuItem**>, cocos2d::CCMenuItem**>(std::__ndk1::__wrap_iter<cocos2d::CCMenuItem**>, cocos2d::CCMenuItem**, unsigned long)
PUBLIC 30f54 0 std::__ndk1::__exception_guard_exceptions<std::__ndk1::vector<geode::Ref<cocos2d::CCMenuItem>, std::__ndk1::allocator<geode::Ref<cocos2d::CCMenuItem> > >::__destroy_vector>::~__exception_guard_exceptions[abi:ne180000]()
PUBLIC 30fe8 0 std::__ndk1::vector<geode::Ref<cocos2d::CCMenuItem>, std::__ndk1::allocator<geode::Ref<cocos2d::CCMenuItem> > >::__throw_length_error[abi:ne180000]() const
PUBLIC 30ffc 0 std::__ndk1::__exception_guard_exceptions<std::__ndk1::_AllocatorDestroyRangeReverse<std::__ndk1::allocator<geode::Ref<cocos2d::CCMenuItem> >, geode::Ref<cocos2d::CCMenuItem>*> >::~__exception_guard_exceptions[abi:ne180000]()
PUBLIC 31044 0 std::__ndk1::vector<geode::Ref<cocos2d::CCNode>, std::__ndk1::allocator<geode::Ref<cocos2d::CCNode> > >::__init_with_size[abi:ne180000]<std::__ndk1::__wrap_iter<cocos2d::CCNode**>, cocos2d::CCNode**>(std::__ndk1::__wrap_iter<cocos2d::CCNode**>, cocos2d::CCNode**, unsigned long)
PUBLIC 31180 0 std::__ndk1::__exception_guard_exceptions<std::__ndk1::vector<geode::Ref<cocos2d::CCNode>, std::__ndk1::allocator<geode::Ref<cocos2d::CCNode> > >::__destroy_vector>::~__exception_guard_exceptions[abi:ne180000]()
PUBLIC 31214 0 std::__ndk1::__exception_guard_exceptions<std::__ndk1::_AllocatorDestroyRangeReverse<std::__ndk1::allocator<geode::Ref<cocos2d::CCNode> >, geode::Ref<cocos2d::CCNode>*> >::~__exception_guard_exceptions[abi:ne180000]()
PUBLIC 3125c 0 std::__ndk1::__throw_bad_function_call[abi:ne180000]()
PUBLIC 31290 0 std::__ndk1::bad_function_call::~bad_function_call()
PUBLIC 312b4 0 MyEditButtonBar::loadFromItems(cocos2d::CCArray*, int, int, bool)
PUBLIC 315b8 0 geode::modifier::FieldIntermediate<MyEditButtonBar, EditButtonBar>::self()
PUBLIC 31740 0 geode::cocos::CCArrayExt<cocos2d::CCNode*, cocos2d::CCNode>::~CCArrayExt()
PUBLIC 31760 0 __cxx_global_var_init.1
PUBLIC 317c0 0 geode::modifier::ModifyBase<geode::modifier::ModifyDerive<MyEditButtonBar, EditButtonBar> >::~ModifyBase()
PUBLIC 317dc 0 __cxx_global_var_init.2
PUBLIC 3183c 0 geode::modifier::ModifyBase<geode::modifier::ModifyDerive<MyEditorUI, EditorUI> >::~ModifyBase()
PUBLIC 31858 0 geode::modifier::FieldIntermediate<MyEditButtonBar, EditButtonBar>::fieldDestructor(void*)
PUBLIC 31870 0 std::__ndk1::vector<int, std::__ndk1::allocator<int> >::__throw_length_error[abi:ne180000]() const
PUBLIC 31884 0 std::__ndk1::vector<tulip::hook::AbstractType, std::__ndk1::allocator<tulip::hook::AbstractType> >::__throw_length_error[abi:ne180000]() const
PUBLIC 31898 0 std::__ndk1::unique_ptr<std::__ndk1::__tree_node<std::__ndk1::__value_type<std::__ndk1::basic_string<char, std::__ndk1::char_traits<char>, std::__ndk1::allocator<char> >, std::__ndk1::shared_ptr<geode::Hook> >, void*>, std::__ndk1::__tree_node_destructor<std::__ndk1::allocator<std::__ndk1::__tree_node<std::__ndk1::__value_type<std::__ndk1::basic_string<char, std::__ndk1::char_traits<char>, std::__ndk1::allocator<char> >, std::__ndk1::shared_ptr<geode::Hook> >, void*> > > >::~unique_ptr[abi:ne180000]()
PUBLIC 31914 0 geode::modifier::ModifyBase<geode::modifier::ModifyDerive<MyEditButtonBar, EditButtonBar> >::ModifyBase()
PUBLIC 31d60 0 geode::modifier::ModifyDerive<MyEditButtonBar, EditButtonBar>::apply()
PUBLIC 32000 0 geode::modifier::ModifyBase<geode::modifier::ModifyDerive<MyEditButtonBar, EditButtonBar> >::apply()
PUBLIC 32004 0 geode::modifier::ModifyBase<geode::modifier::ModifyDerive<MyEditButtonBar, EditButtonBar> >::setHookPriorityBefore(std::__ndk1::basic_string_view<char, std::__ndk1::char_traits<char> >, std::__ndk1::basic_string_view<char, std::__ndk1::char_traits<char> >)
PUBLIC 3219c 0 geode::modifier::ModifyBase<geode::modifier::ModifyDerive<MyEditButtonBar, EditButtonBar> >::setHookPriorityBefore(std::__ndk1::basic_string_view<char, std::__ndk1::char_traits<char> >, geode::Mod*)
PUBLIC 32488 0 geode::modifier::ModifyBase<geode::modifier::ModifyDerive<MyEditButtonBar, EditButtonBar> >::getHook(std::__ndk1::basic_string_view<char, std::__ndk1::char_traits<char> >)
PUBLIC 32630 0 geode::modifier::ModifyBase<geode::modifier::ModifyDerive<MyEditButtonBar, EditButtonBar> >::setHookPriorityBefore(std::__ndk1::basic_string_view<char, std::__ndk1::char_traits<char> >, geode::Mod*)::{lambda(geode::ModStateEvent*)#1}::operator()(geode::ModStateEvent*) const
PUBLIC 32744 0 std::__ndk1::__tree<std::__ndk1::__value_type<std::__ndk1::basic_string<char, std::__ndk1::char_traits<char>, std::__ndk1::allocator<char> >, std::__ndk1::shared_ptr<geode::Hook> >, std::__ndk1::__map_value_compare<std::__ndk1::basic_string<char, std::__ndk1::char_traits<char>, std::__ndk1::allocator<char> >, std::__ndk1::__value_type<std::__ndk1::basic_string<char, std::__ndk1::char_traits<char>, std::__ndk1::allocator<char> >, std::__ndk1::shared_ptr<geode::Hook> >, std::__ndk1::less<std::__ndk1::basic_string<char, std::__ndk1::char_traits<char>, std::__ndk1::allocator<char> > >, true>, std::__ndk1::allocator<std::__ndk1::__value_type<std::__ndk1::basic_string<char, std::__ndk1::char_traits<char>, std::__ndk1::allocator<char> >, std::__ndk1::shared_ptr<geode::Hook> > > >::__emplace_unique_key_args<std::__ndk1::basic_string<char, std::__ndk1::char_traits<char>, std::__ndk1::allocator<char> >, std::__ndk1::piecewise_construct_t const&, std::__ndk1::tuple<std::__ndk1::basic_string<char, std::__ndk1::char_traits<char>, std::__ndk1::allocator<char> > const&>, std::__ndk1::tuple<> >(std::__ndk1::basic_string<char, std::__ndk1::char_traits<char>, std::__ndk1::allocator<char> > const&, std::__ndk1::piecewise_construct_t const&, std::__ndk1::tuple<std::__ndk1::basic_string<char, std::__ndk1::char_traits<char>, std::__ndk1::allocator<char> > const&>, std::__ndk1::tuple<>)
PUBLIC 32938 0 _ZN5geode15UnwrapExceptionC2IRNSt6__ndk112basic_stringIcNS2_11char_traitsIcEENS2_9allocatorIcEEEEQsr4implE18IsStringStreamableIT_EEENS_4impl6ErrTagEOSA_
PUBLIC 32aa0 0 std::__ndk1::__function::__func<geode::modifier::ModifyBase<geode::modifier::ModifyDerive<MyEditButtonBar, EditButtonBar> >::setHookPriorityBefore(std::__ndk1::basic_string_view<char, std::__ndk1::char_traits<char> >, geode::Mod*)::{lambda(geode::ModStateEvent*)#1}, std::__ndk1::allocator<geode::modifier::ModifyBase<geode::modifier::ModifyDerive<MyEditButtonBar, EditButtonBar> >::setHookPriorityBefore(std::__ndk1::basic_string_view<char, std::__ndk1::char_traits<char> >, geode::Mod*)::{lambda(geode::ModStateEvent*)#1}>, void (geode::ModStateEvent*)>::~__func()
PUBLIC 32aa4 0 std::__ndk1::__function::__func<geode::modifier::ModifyBase<geode::modifier::ModifyDerive<MyEditButtonBar, EditButtonBar> >::setHookPriorityBefore(std::__ndk1::basic_string_view<char, std::__ndk1::char_traits<char> >, geode::Mod*)::{lambda(geode::ModStateEvent*)#1}, std::__ndk1::allocator<geode::modifier::ModifyBase<geode::modifier::ModifyDerive<MyEditButtonBar, EditButtonBar> >::setHookPriorityBefore(std::__ndk1::basic_string_view<char, std::__ndk1::char_traits<char> >, geode::Mod*)::{lambda(geode::ModStateEvent*)#1}>, void (geode::ModStateEvent*)>::__clone() const
PUBLIC 32adc 0 std::__ndk1::__function::__func<geode::modifier::ModifyBase<geode::modifier::ModifyDerive<MyEditButtonBar, EditButtonBar> >::setHookPriorityBefore(std::__ndk1::basic_string_view<char, std::__ndk1::char_traits<char> >, geode::Mod*)::{lambda(geode::ModStateEvent*)#1}, std::__ndk1::allocator<geode::modifier::ModifyBase<geode::modifier::ModifyDerive<MyEditButtonBar, EditButtonBar> >::setHookPriorityBefore(std::__ndk1::basic_string_view<char, std::__ndk1::char_traits<char> >, geode::Mod*)::{lambda(geode::ModStateEvent*)#1}>, void (geode::ModStateEvent*)>::__clone(std::__ndk1::__function::__base<void (geode::ModStateEvent*)>*) const
PUBLIC 32af4 0 std::__ndk1::__function::__func<geode::modifier::ModifyBase<geode::modifier::ModifyDerive<MyEditButtonBar, EditButtonBar> >::setHookPriorityBefore(std::__ndk1::basic_string_view<char, std::__ndk1::char_traits<char> >, geode::Mod*)::{lambda(geode::ModStateEvent*)#1}, std::__ndk1::allocator<geode::modifier::ModifyBase<geode::modifier::ModifyDerive<MyEditButtonBar, EditButtonBar> >::setHookPriorityBefore(std::__ndk1::basic_string_view<char, std::__ndk1::char_traits<char> >, geode::Mod*)::{lambda(geode::ModStateEvent*)#1}>, void (geode::ModStateEvent*)>::destroy()
PUBLIC 32af8 0 std::__ndk1::__function::__func<geode::modifier::ModifyBase<geode::modifier::ModifyDerive<MyEditButtonBar, EditButtonBar> >::setHookPriorityBefore(std::__ndk1::basic_string_view<char, std::__ndk1::char_traits<char> >, geode::Mod*)::{lambda(geode::ModStateEvent*)#1}, std::__ndk1::allocator<geode::modifier::ModifyBase<geode::modifier::ModifyDerive<MyEditButtonBar, EditButtonBar> >::setHookPriorityBefore(std::__ndk1::basic_string_view<char, std::__ndk1::char_traits<char> >, geode::Mod*)::{lambda(geode::ModStateEvent*)#1}>, void (geode::ModStateEvent*)>::destroy_deallocate()
PUBLIC 32afc 0 std::__ndk1::__function::__func<geode::modifier::ModifyBase<geode::modifier::ModifyDerive<MyEditButtonBar, EditButtonBar> >::setHookPriorityBefore(std::__ndk1::basic_string_view<char, std::__ndk1::char_traits<char> >, geode::Mod*)::{lambda(geode::ModStateEvent*)#1}, std::__ndk1::allocator<geode::modifier::ModifyBase<geode::modifier::ModifyDerive<MyEditButtonBar, EditButtonBar> >::setHookPriorityBefore(std::__ndk1::basic_string_view<char, std::__ndk1::char_traits<char> >, geode::Mod*)::{lambda(geode::ModStateEvent*)#1}>, void (geode::ModStateEvent*)>::operator()(geode::ModStateEvent*&&)
PUBLIC 32b08 0 std::__ndk1::__function::__func<geode::modifier::ModifyBase<geode::modifier::ModifyDerive<MyEditButtonBar, EditButtonBar> >::setHookPriorityBefore(std::__ndk1::basic_string_view<char, std::__ndk1::char_traits<char> >, geode::Mod*)::{lambda(geode::ModStateEvent*)#1}, std::__ndk1::allocator<geode::modifier::ModifyBase<geode::modifier::ModifyDerive<MyEditButtonBar, EditButtonBar> >::setHookPriorityBefore(std::__ndk1::basic_string_view<char, std::__ndk1::char_traits<char> >, geode::Mod*)::{lambda(geode::ModStateEvent*)#1}>, void (geode::ModStateEvent*)>::target(std::type_info const&) const
PUBLIC 32b24 0 std::__ndk1::__function::__func<geode::modifier::ModifyBase<geode::modifier::ModifyDerive<MyEditButtonBar, EditButtonBar> >::setHookPriorityBefore(std::__ndk1::basic_string_view<char, std::__ndk1::char_traits<char> >, geode::Mod*)::{lambda(geode::ModStateEvent*)#1}, std::__ndk1::allocator<geode::modifier::ModifyBase<geode::modifier::ModifyDerive<MyEditButtonBar, EditButtonBar> >::setHookPriorityBefore(std::__ndk1::basic_string_view<char, std::__ndk1::char_traits<char> >, geode::Mod*)::{lambda(geode::ModStateEvent*)#1}>, void (geode::ModStateEvent*)>::target_type() const
PUBLIC 32b30 0 geode::EventListener<geode::ModStateFilter>::getPool() const
PUBLIC 32b34 0 geode::EventListener<geode::ModStateFilter>::handle(geode::Event*)
PUBLIC 32ca8 0 geode::EventListener<geode::ModStateFilter>::~EventListener()
PUBLIC 32d04 0 geode::EventListener<geode::ModStateFilter>::~EventListener()
PUBLIC 32d68 0 std::__ndk1::__variant_detail::__visitation::__base::__dispatcher<(unsigned long)0>::__dispatch[abi:ne180000]<std::__ndk1::__variant_detail::__dtor<std::__ndk1::__variant_detail::__traits<std::__ndk1::monostate, std::__ndk1::basic_string<char, std::__ndk1::char_traits<char>, std::__ndk1::allocator<char> > >, (std::__ndk1::__variant_detail::_Trait)1>::__destroy[abi:ne180000]()::{lambda(auto:1&)#1}, std::__ndk1::__variant_detail::__base<(std::__ndk1::__variant_detail::__traits<std::__ndk1::monostate, std::__ndk1::basic_string<char, std::__ndk1::char_traits<char>, std::__ndk1::allocator<char> > >)1, std::__ndk1::__variant_detail::__traits, std::__ndk1::allocator<char> >&>(std::__ndk1::__variant_detail::__dtor<std::__ndk1::__variant_detail::__traits<std::__ndk1::monostate, std::__ndk1::basic_string<char, std::__ndk1::char_traits<char>, std::__ndk1::allocator<char> > >, (std::__ndk1::__variant_detail::_Trait)1>, std::__ndk1::__variant_detail::__base<(std::__ndk1::__variant_detail::__traits<std::__ndk1::monostate, std::__ndk1::basic_string<char, std::__ndk1::char_traits<char>, std::__ndk1::allocator<char> > >)1, std::__ndk1::__variant_detail::__traits, std::__ndk1::allocator<char> >&)
PUBLIC 32d6c 0 std::__ndk1::__variant_detail::__visitation::__base::__dispatcher<(unsigned long)1>::__dispatch[abi:ne180000]<std::__ndk1::__variant_detail::__dtor<std::__ndk1::__variant_detail::__traits<std::__ndk1::monostate, std::__ndk1::basic_string<char, std::__ndk1::char_traits<char>, std::__ndk1::allocator<char> > >, (std::__ndk1::__variant_detail::_Trait)1>::__destroy[abi:ne180000]()::{lambda(auto:1&)#1}, std::__ndk1::__variant_detail::__base<(std::__ndk1::__variant_detail::__traits<std::__ndk1::monostate, std::__ndk1::basic_string<char, std::__ndk1::char_traits<char>, std::__ndk1::allocator<char> > >)1, std::__ndk1::__variant_detail::__traits, std::__ndk1::allocator<char> >&>(std::__ndk1::__variant_detail::__dtor<std::__ndk1::__variant_detail::__traits<std::__ndk1::monostate, std::__ndk1::basic_string<char, std::__ndk1::char_traits<char>, std::__ndk1::allocator<char> > >, (std::__ndk1::__variant_detail::_Trait)1>, std::__ndk1::__variant_detail::__base<(std::__ndk1::__variant_detail::__traits<std::__ndk1::monostate, std::__ndk1::basic_string<char, std::__ndk1::char_traits<char>, std::__ndk1::allocator<char> > >)1, std::__ndk1::__variant_detail::__traits, std::__ndk1::allocator<char> >&)
PUBLIC 32d80 0 geode::Hook::create<void (*)(MyEditButtonBar*, cocos2d::CCArray*, int, int, bool)>(void*, void (*)(MyEditButtonBar*, cocos2d::CCArray*, int, int, bool), std::__ndk1::basic_string<char, std::__ndk1::char_traits<char>, std::__ndk1::allocator<char> > const&, tulip::hook::TulipConvention, tulip::hook::HookMetadata const&)
PUBLIC 32e98 0 geode::modifier::AsStaticFunction_loadFromItems<MyEditButtonBar, void (MyEditButtonBar::*)(cocos2d::CCArray*, int, int, bool)>::Impl<void (MyEditButtonBar::*)(cocos2d::CCArray*, int, int, bool)>::function(MyEditButtonBar*, cocos2d::CCArray*, int, int, bool)
PUBLIC 32e9c 0 tulip::hook::AbstractFunction::from<void, MyEditButtonBar*, cocos2d::CCArray*, int, int, bool>(void (*)(MyEditButtonBar*, cocos2d::CCArray*, int, int, bool))
PUBLIC 33258 0 geode::modifier::ModifyBase<geode::modifier::ModifyDerive<MyEditorUI, EditorUI> >::ModifyBase()
PUBLIC 33660 0 geode::modifier::ModifyDerive<MyEditorUI, EditorUI>::apply()
PUBLIC 34454 0 MyEditorUI::onModify<geode::modifier::ModifyBase<geode::modifier::ModifyDerive<MyEditorUI, EditorUI> > >(geode::modifier::ModifyBase<geode::modifier::ModifyDerive<MyEditorUI, EditorUI> >&)
PUBLIC 34534 0 geode::modifier::ModifyBase<geode::modifier::ModifyDerive<MyEditorUI, EditorUI> >::apply()
PUBLIC 34538 0 geode::modifier::ModifyBase<geode::modifier::ModifyDerive<MyEditorUI, EditorUI> >::setHookPriorityBefore(std::__ndk1::basic_string_view<char, std::__ndk1::char_traits<char> >, std::__ndk1::basic_string_view<char, std::__ndk1::char_traits<char> >)
PUBLIC 346d0 0 geode::modifier::ModifyBase<geode::modifier::ModifyDerive<MyEditorUI, EditorUI> >::setHookPriorityBefore(std::__ndk1::basic_string_view<char, std::__ndk1::char_traits<char> >, geode::Mod*)
PUBLIC 349bc 0 geode::modifier::ModifyBase<geode::modifier::ModifyDerive<MyEditorUI, EditorUI> >::getHook(std::__ndk1::basic_string_view<char, std::__ndk1::char_traits<char> >)
PUBLIC 34b64 0 geode::modifier::ModifyBase<geode::modifier::ModifyDerive<MyEditorUI, EditorUI> >::setHookPriorityBefore(std::__ndk1::basic_string_view<char, std::__ndk1::char_traits<char> >, geode::Mod*)::{lambda(geode::ModStateEvent*)#1}::operator()(geode::ModStateEvent*) const
PUBLIC 34c78 0 std::__ndk1::__function::__base<void (geode::ModStateEvent*)>::~__base()
PUBLIC 34c7c 0 std::__ndk1::__function::__func<geode::modifier::ModifyBase<geode::modifier::ModifyDerive<MyEditorUI, EditorUI> >::setHookPriorityBefore(std::__ndk1::basic_string_view<char, std::__ndk1::char_traits<char> >, geode::Mod*)::{lambda(geode::ModStateEvent*)#1}, std::__ndk1::allocator<geode::modifier::ModifyBase<geode::modifier::ModifyDerive<MyEditorUI, EditorUI> >::setHookPriorityBefore(std::__ndk1::basic_string_view<char, std::__ndk1::char_traits<char> >, geode::Mod*)::{lambda(geode::ModStateEvent*)#1}>, void (geode::ModStateEvent*)>::~__func()
PUBLIC 34c80 0 std::__ndk1::__function::__func<geode::modifier::ModifyBase<geode::modifier::ModifyDerive<MyEditorUI, EditorUI> >::setHookPriorityBefore(std::__ndk1::basic_string_view<char, std::__ndk1::char_traits<char> >, geode::Mod*)::{lambda(geode::ModStateEvent*)#1}, std::__ndk1::allocator<geode::modifier::ModifyBase<geode::modifier::ModifyDerive<MyEditorUI, EditorUI> >::setHookPriorityBefore(std::__ndk1::basic_string_view<char, std::__ndk1::char_traits<char> >, geode::Mod*)::{lambda(geode::ModStateEvent*)#1}>, void (geode::ModStateEvent*)>::__clone() const
PUBLIC 34cb8 0 std::__ndk1::__function::__func<geode::modifier::ModifyBase<geode::modifier::ModifyDerive<MyEditorUI, EditorUI> >::setHookPriorityBefore(std::__ndk1::basic_string_view<char, std::__ndk1::char_traits<char> >, geode::Mod*)::{lambda(geode::ModStateEvent*)#1}, std::__ndk1::allocator<geode::modifier::ModifyBase<geode::modifier::ModifyDerive<MyEditorUI, EditorUI> >::setHookPriorityBefore(std::__ndk1::basic_string_view<char, std::__ndk1::char_traits<char> >, geode::Mod*)::{lambda(geode::ModStateEvent*)#1}>, void (geode::ModStateEvent*)>::__clone(std::__ndk1::__function::__base<void (geode::ModStateEvent*)>*) const
PUBLIC 34cd0 0 std::__ndk1::__function::__func<geode::modifier::ModifyBase<geode::modifier::ModifyDerive<MyEditorUI, EditorUI> >::setHookPriorityBefore(std::__ndk1::basic_string_view<char, std::__ndk1::char_traits<char> >, geode::Mod*)::{lambda(geode::ModStateEvent*)#1}, std::__ndk1::allocator<geode::modifier::ModifyBase<geode::modifier::ModifyDerive<MyEditorUI, EditorUI> >::setHookPriorityBefore(std::__ndk1::basic_string_view<char, std::__ndk1::char_traits<char> >, geode::Mod*)::{lambda(geode::ModStateEvent*)#1}>, void (geode::ModStateEvent*)>::destroy()
PUBLIC 34cd4 0 std::__ndk1::__function::__func<geode::modifier::ModifyBase<geode::modifier::ModifyDerive<MyEditorUI, EditorUI> >::setHookPriorityBefore(std::__ndk1::basic_string_view<char, std::__ndk1::char_traits<char> >, geode::Mod*)::{lambda(geode::ModStateEvent*)#1}, std::__ndk1::allocator<geode::modifier::ModifyBase<geode::modifier::ModifyDerive<MyEditorUI, EditorUI> >::setHookPriorityBefore(std::__ndk1::basic_string_view<char, std::__ndk1::char_traits<char> >, geode::Mod*)::{lambda(geode::ModStateEvent*)#1}>, void (geode::ModStateEvent*)>::destroy_deallocate()
PUBLIC 34cd8 0 std::__ndk1::__function::__func<geode::modifier::ModifyBase<geode::modifier::ModifyDerive<MyEditorUI, EditorUI> >::setHookPriorityBefore(std::__ndk1::basic_string_view<char, std::__ndk1::char_traits<char> >, geode::Mod*)::{lambda(geode::ModStateEvent*)#1}, std::__ndk1::allocator<geode::modifier::ModifyBase<geode::modifier::ModifyDerive<MyEditorUI, EditorUI> >::setHookPriorityBefore(std::__ndk1::basic_string_view<char, std::__ndk1::char_traits<char> >, geode::Mod*)::{lambda(geode::ModStateEvent*)#1}>, void (geode::ModStateEvent*)>::operator()(geode::ModStateEvent*&&)
PUBLIC 34ce4 0 std::__ndk1::__function::__func<geode::modifier::ModifyBase<geode::modifier::ModifyDerive<MyEditorUI, EditorUI> >::setHookPriorityBefore(std::__ndk1::basic_string_view<char, std::__ndk1::char_traits<char> >, geode::Mod*)::{lambda(geode::ModStateEvent*)#1}, std::__ndk1::allocator<geode::modifier::ModifyBase<geode::modifier::ModifyDerive<MyEditorUI, EditorUI> >::setHookPriorityBefore(std::__ndk1::basic_string_view<char, std::__ndk1::char_traits<char> >, geode::Mod*)::{lambda(geode::ModStateEvent*)#1}>, void (geode::ModStateEvent*)>::target(std::type_info const&) const
PUBLIC 34d00 0 std::__ndk1::__function::__func<geode::modifier::ModifyBase<geode::modifier::ModifyDerive<MyEditorUI, EditorUI> >::setHookPriorityBefore(std::__ndk1::basic_string_view<char, std::__ndk1::char_traits<char> >, geode::Mod*)::{lambda(geode::ModStateEvent*)#1}, std::__ndk1::allocator<geode::modifier::ModifyBase<geode::modifier::ModifyDerive<MyEditorUI, EditorUI> >::setHookPriorityBefore(std::__ndk1::basic_string_view<char, std::__ndk1::char_traits<char> >, geode::Mod*)::{lambda(geode::ModStateEvent*)#1}>, void (geode::ModStateEvent*)>::target_type() const
PUBLIC 34d0c 0 geode::Hook::create<CreateMenuItem* (*)(MyEditorUI*, int, int)>(void*, CreateMenuItem* (*)(MyEditorUI*, int, int), std::__ndk1::basic_string<char, std::__ndk1::char_traits<char>, std::__ndk1::allocator<char> > const&, tulip::hook::TulipConvention, tulip::hook::HookMetadata const&)
PUBLIC 34e24 0 geode::modifier::AsStaticFunction_getCreateBtn<MyEditorUI, CreateMenuItem* (MyEditorUI::*)(int, int)>::Impl<CreateMenuItem* (MyEditorUI::*)(int, int)>::function(MyEditorUI*, int, int)
PUBLIC 34e28 0 geode::Hook::create<bool (*)(MyEditorUI*, LevelEditorLayer*)>(void*, bool (*)(MyEditorUI*, LevelEditorLayer*), std::__ndk1::basic_string<char, std::__ndk1::char_traits<char>, std::__ndk1::allocator<char> > const&, tulip::hook::TulipConvention, tulip::hook::HookMetadata const&)
PUBLIC 34fac 0 geode::modifier::AsStaticFunction_init<MyEditorUI, bool (MyEditorUI::*)(LevelEditorLayer*)>::Impl<bool (MyEditorUI::*)(LevelEditorLayer*)>::function(MyEditorUI*, LevelEditorLayer*)
PUBLIC 34fb0 0 geode::Hook::create<void (*)(MyEditorUI*, cocos2d::CCObject*)>(void*, void (*)(MyEditorUI*, cocos2d::CCObject*), std::__ndk1::basic_string<char, std::__ndk1::char_traits<char>, std::__ndk1::allocator<char> > const&, tulip::hook::TulipConvention, tulip::hook::HookMetadata const&)
PUBLIC 35134 0 geode::modifier::AsStaticFunction_onCreateButton<MyEditorUI, void (MyEditorUI::*)(cocos2d::CCObject*)>::Impl<void (MyEditorUI::*)(cocos2d::CCObject*)>::function(MyEditorUI*, cocos2d::CCObject*)
PUBLIC 35138 0 geode::Hook::create<void (*)(MyEditorUI*, int)>(void*, void (*)(MyEditorUI*, int), std::__ndk1::basic_string<char, std::__ndk1::char_traits<char>, std::__ndk1::allocator<char> > const&, tulip::hook::TulipConvention, tulip::hook::HookMetadata const&)
PUBLIC 352bc 0 geode::modifier::AsStaticFunction_selectBuildTab<MyEditorUI, void (MyEditorUI::*)(int)>::Impl<void (MyEditorUI::*)(int)>::function(MyEditorUI*, int)
PUBLIC 352c0 0 geode::Hook::create<void (*)(MyEditorUI*, bool)>(void*, void (*)(MyEditorUI*, bool), std::__ndk1::basic_string<char, std::__ndk1::char_traits<char>, std::__ndk1::allocator<char> > const&, tulip::hook::TulipConvention, tulip::hook::HookMetadata const&)
PUBLIC 35444 0 geode::modifier::AsStaticFunction_showUI<MyEditorUI, void (MyEditorUI::*)(bool)>::Impl<void (MyEditorUI::*)(bool)>::function(MyEditorUI*, bool)
PUBLIC 35448 0 geode::modifier::AsStaticFunction_toggleMode<MyEditorUI, void (MyEditorUI::*)(cocos2d::CCObject*)>::Impl<void (MyEditorUI::*)(cocos2d::CCObject*)>::function(MyEditorUI*, cocos2d::CCObject*)
PUBLIC 3544c 0 geode::modifier::AsStaticFunction_updateCreateMenu<MyEditorUI, void (MyEditorUI::*)(bool)>::Impl<void (MyEditorUI::*)(bool)>::function(MyEditorUI*, bool)
PUBLIC 35450 0 tulip::hook::AbstractFunction::from<CreateMenuItem*, MyEditorUI*, int, int>(CreateMenuItem* (*)(MyEditorUI*, int, int))
PUBLIC 3555c 0 MyEditorUI::getCreateBtn(int, int)
PUBLIC 35ff4 0 MyEditorUI::onBarObjectButtonHover(cocos2d::CCObject*, cocos2d::CCPoint, bool, bool)
PUBLIC 365e4 0 geode::Mod::getSettingValue<bool>(std::__ndk1::basic_string_view<char, std::__ndk1::char_traits<char> >) const
PUBLIC 36718 0 geode::Mod::getSettingValue<cocos2d::_ccColor3B>(std::__ndk1::basic_string_view<char, std::__ndk1::char_traits<char> >) const
PUBLIC 36838 0 std::__ndk1::__function::__value_func<void (cocos2d::CCObject*, cocos2d::CCPoint, bool, bool)>::swap[abi:ne180000](std::__ndk1::__function::__value_func<void (cocos2d::CCObject*, cocos2d::CCPoint, bool, bool)>&)
PUBLIC 369d0 0 ObjectNames::nameForID(int)
PUBLIC 36bc8 0 MyEditorUI::setTooltipText(std::__ndk1::basic_string<char, std::__ndk1::char_traits<char>, std::__ndk1::allocator<char> >, int)
PUBLIC 36f20 0 MyEditorUI::setTooltipVisible(bool)
PUBLIC 37078 0 ObjectNames::ObjectNames()
PUBLIC 37944 0 geode::impl::ResultData<int, std::__ndk1::basic_string<char, std::__ndk1::char_traits<char>, std::__ndk1::allocator<char> > >::~ResultData()
PUBLIC m 379b8 0 std::__ndk1::basic_ifstream<char, std::__ndk1::char_traits<char> >::~basic_ifstream()
PUBLIC 37a08 0 std::__ndk1::unordered_map<int, std::__ndk1::basic_string<char, std::__ndk1::char_traits<char>, std::__ndk1::allocator<char> >, std::__ndk1::hash<int>, std::__ndk1::equal_to<int>, std::__ndk1::allocator<std::__ndk1::pair<int const, std::__ndk1::basic_string<char, std::__ndk1::char_traits<char>, std::__ndk1::allocator<char> > > > >::~unordered_map[abi:ne180000]()
PUBLIC 37a78 0 std::__ndk1::__fs::filesystem::path::operator/=[abi:ne180000](std::__ndk1::__fs::filesystem::path const&)
PUBLIC 37b60 0 _ZNSt6__ndk112basic_stringIcNS_11char_traitsIcEENS_9allocatorIcEEE6appendB8ne180000IPKcTnNS_9enable_ifIXsr31__has_forward_iterator_categoryIT_EE5valueEiE4typeELi0EEERS5_SA_SA_
PUBLIC 37e64 0 std::__ndk1::basic_ifstream<char, std::__ndk1::char_traits<char> >::basic_ifstream(char const*, unsigned int)
PUBLIC 37f78 0 std::__ndk1::getline[abi:ne180000]<char, std::__ndk1::char_traits<char>, std::__ndk1::allocator<char> >(std::__ndk1::basic_istream<char, std::__ndk1::char_traits<char> >, std::__ndk1::basic_string<std::__ndk1::basic_istream, char, std::__ndk1::allocator<char> >&, std::__ndk1::basic_istream)
PUBLIC 3812c 0 std::__ndk1::__hash_table<std::__ndk1::__hash_value_type<int, std::__ndk1::basic_string<char, std::__ndk1::char_traits<char>, std::__ndk1::allocator<char> > >, std::__ndk1::__unordered_map_hasher<int, std::__ndk1::__hash_value_type<int, std::__ndk1::basic_string<char, std::__ndk1::char_traits<char>, std::__ndk1::allocator<char> > >, std::__ndk1::hash<int>, std::__ndk1::equal_to<int>, true>, std::__ndk1::__unordered_map_equal<int, std::__ndk1::__hash_value_type<int, std::__ndk1::basic_string<char, std::__ndk1::char_traits<char>, std::__ndk1::allocator<char> > >, std::__ndk1::equal_to<int>, std::__ndk1::hash<int>, true>, std::__ndk1::allocator<std::__ndk1::__hash_value_type<int, std::__ndk1::basic_string<char, std::__ndk1::char_traits<char>, std::__ndk1::allocator<char> > > > >::__emplace_unique_key_args<int, std::__ndk1::piecewise_construct_t const&, std::__ndk1::tuple<int const&>, std::__ndk1::tuple<> >(int const&, std::__ndk1::piecewise_construct_t const&, std::__ndk1::tuple<int const&>, std::__ndk1::tuple<>)
PUBLIC 384a8 0 std::__ndk1::unique_ptr<std::__ndk1::__hash_node<std::__ndk1::__hash_value_type<int, std::__ndk1::basic_string<char, std::__ndk1::char_traits<char>, std::__ndk1::allocator<char> > >, void*>, std::__ndk1::__hash_node_destructor<std::__ndk1::allocator<std::__ndk1::__hash_node<std::__ndk1::__hash_value_type<int, std::__ndk1::basic_string<char, std::__ndk1::char_traits<char>, std::__ndk1::allocator<char> > >, void*> > > >::~unique_ptr[abi:ne180000]()
PUBLIC 384f8 0 std::__ndk1::__hash_table<std::__ndk1::__hash_value_type<int, std::__ndk1::basic_string<char, std::__ndk1::char_traits<char>, std::__ndk1::allocator<char> > >, std::__ndk1::__unordered_map_hasher<int, std::__ndk1::__hash_value_type<int, std::__ndk1::basic_string<char, std::__ndk1::char_traits<char>, std::__ndk1::allocator<char> > >, std::__ndk1::hash<int>, std::__ndk1::equal_to<int>, true>, std::__ndk1::__unordered_map_equal<int, std::__ndk1::__hash_value_type<int, std::__ndk1::basic_string<char, std::__ndk1::char_traits<char>, std::__ndk1::allocator<char> > >, std::__ndk1::equal_to<int>, std::__ndk1::hash<int>, true>, std::__ndk1::allocator<std::__ndk1::__hash_value_type<int, std::__ndk1::basic_string<char, std::__ndk1::char_traits<char>, std::__ndk1::allocator<char> > > > >::__do_rehash<true>(unsigned long)
PUBLIC 386a4 0 std::__ndk1::basic_string<char, std::__ndk1::char_traits<char>, std::__ndk1::allocator<char> >::__assign_no_alias<true>(char const*, unsigned long)
PUBLIC 38750 0 std::__ndk1::basic_string<char, std::__ndk1::char_traits<char>, std::__ndk1::allocator<char> >::__assign_no_alias<false>(char const*, unsigned long)
PUBLIC 38860 0 std::__ndk1::__variant_detail::__visitation::__base::__dispatcher<(unsigned long)0>::__dispatch[abi:ne180000]<std::__ndk1::__variant_detail::__dtor<std::__ndk1::__variant_detail::__traits<int, std::__ndk1::basic_string<char, std::__ndk1::char_traits<char>, std::__ndk1::allocator<char> > >, (std::__ndk1::__variant_detail::_Trait)1>::__destroy[abi:ne180000]()::{lambda(auto:1&)#1}, std::__ndk1::__variant_detail::__base<(std::__ndk1::__variant_detail::__traits<int, std::__ndk1::basic_string<char, std::__ndk1::char_traits<char>, std::__ndk1::allocator<char> > >)1, int, std::__ndk1::allocator<char> >&>(std::__ndk1::__variant_detail::__dtor<std::__ndk1::__variant_detail::__traits<int, std::__ndk1::basic_string<char, std::__ndk1::char_traits<char>, std::__ndk1::allocator<char> > >, (std::__ndk1::__variant_detail::_Trait)1>, std::__ndk1::__variant_detail::__base<(std::__ndk1::__variant_detail::__traits<int, std::__ndk1::basic_string<char, std::__ndk1::char_traits<char>, std::__ndk1::allocator<char> > >)1, int, std::__ndk1::allocator<char> >&)
PUBLIC 38864 0 std::__ndk1::__variant_detail::__visitation::__base::__dispatcher<(unsigned long)1>::__dispatch[abi:ne180000]<std::__ndk1::__variant_detail::__dtor<std::__ndk1::__variant_detail::__traits<int, std::__ndk1::basic_string<char, std::__ndk1::char_traits<char>, std::__ndk1::allocator<char> > >, (std::__ndk1::__variant_detail::_Trait)1>::__destroy[abi:ne180000]()::{lambda(auto:1&)#1}, std::__ndk1::__variant_detail::__base<(std::__ndk1::__variant_detail::__traits<int, std::__ndk1::basic_string<char, std::__ndk1::char_traits<char>, std::__ndk1::allocator<char> > >)1, int, std::__ndk1::allocator<char> >&>(std::__ndk1::__variant_detail::__dtor<std::__ndk1::__variant_detail::__traits<int, std::__ndk1::basic_string<char, std::__ndk1::char_traits<char>, std::__ndk1::allocator<char> > >, (std::__ndk1::__variant_detail::_Trait)1>, std::__ndk1::__variant_detail::__base<(std::__ndk1::__variant_detail::__traits<int, std::__ndk1::basic_string<char, std::__ndk1::char_traits<char>, std::__ndk1::allocator<char> > >)1, int, std::__ndk1::allocator<char> >&)
PUBLIC 38878 0 geode::modifier::FieldIntermediate<MyEditorUI, EditorUI>::self()
PUBLIC 38a40 0 geode::modifier::FieldIntermediate<MyEditorUI, EditorUI>::fieldDestructor(void*)
PUBLIC 38a7c 0 std::__ndk1::__hash_table<std::__ndk1::__hash_value_type<int, std::__ndk1::vector<std::__ndk1::pair<int, geode::Ref<GameObject> >, std::__ndk1::allocator<std::__ndk1::pair<int, geode::Ref<GameObject> > > > >, std::__ndk1::__unordered_map_hasher<int, std::__ndk1::__hash_value_type<int, std::__ndk1::vector<std::__ndk1::pair<int, geode::Ref<GameObject> >, std::__ndk1::allocator<std::__ndk1::pair<int, geode::Ref<GameObject> > > > >, std::__ndk1::hash<int>, std::__ndk1::equal_to<int>, true>, std::__ndk1::__unordered_map_equal<int, std::__ndk1::__hash_value_type<int, std::__ndk1::vector<std::__ndk1::pair<int, geode::Ref<GameObject> >, std::__ndk1::allocator<std::__ndk1::pair<int, geode::Ref<GameObject> > > > >, std::__ndk1::equal_to<int>, std::__ndk1::hash<int>, true>, std::__ndk1::allocator<std::__ndk1::__hash_value_type<int, std::__ndk1::vector<std::__ndk1::pair<int, geode::Ref<GameObject> >, std::__ndk1::allocator<std::__ndk1::pair<int, geode::Ref<GameObject> > > > > > >::~__hash_table()
PUBLIC 38b2c 0 std::__ndk1::pair<int, geode::Ref<GameObject> >::~pair()
PUBLIC 38b4c 0 std::__ndk1::__tree<std::__ndk1::__value_type<int, geode::Ref<GameObject> >, std::__ndk1::__map_value_compare<int, std::__ndk1::__value_type<int, geode::Ref<GameObject> >, std::__ndk1::less<int>, true>, std::__ndk1::allocator<std::__ndk1::__value_type<int, geode::Ref<GameObject> > > >::destroy(std::__ndk1::__tree_node<std::__ndk1::__value_type<int, geode::Ref<GameObject> >, void*>*)
PUBLIC 38ba4 0 std::__ndk1::__function::__func<MyEditorUI::setTooltipVisible(bool)::{lambda()#1}, std::__ndk1::allocator<MyEditorUI::setTooltipVisible(bool)::{lambda()#1}>, void ()>::~__func()
PUBLIC 38ba8 0 std::__ndk1::__function::__func<MyEditorUI::setTooltipVisible(bool)::{lambda()#1}, std::__ndk1::allocator<MyEditorUI::setTooltipVisible(bool)::{lambda()#1}>, void ()>::__clone() const
PUBLIC 38be0 0 std::__ndk1::__function::__func<MyEditorUI::setTooltipVisible(bool)::{lambda()#1}, std::__ndk1::allocator<MyEditorUI::setTooltipVisible(bool)::{lambda()#1}>, void ()>::__clone(std::__ndk1::__function::__base<void ()>*) const
PUBLIC 38bf8 0 std::__ndk1::__function::__func<MyEditorUI::setTooltipVisible(bool)::{lambda()#1}, std::__ndk1::allocator<MyEditorUI::setTooltipVisible(bool)::{lambda()#1}>, void ()>::destroy()
PUBLIC 38bfc 0 std::__ndk1::__function::__func<MyEditorUI::setTooltipVisible(bool)::{lambda()#1}, std::__ndk1::allocator<MyEditorUI::setTooltipVisible(bool)::{lambda()#1}>, void ()>::destroy_deallocate()
PUBLIC 38c00 0 std::__ndk1::__function::__func<MyEditorUI::setTooltipVisible(bool)::{lambda()#1}, std::__ndk1::allocator<MyEditorUI::setTooltipVisible(bool)::{lambda()#1}>, void ()>::operator()()
PUBLIC 38c48 0 std::__ndk1::__function::__func<MyEditorUI::setTooltipVisible(bool)::{lambda()#1}, std::__ndk1::allocator<MyEditorUI::setTooltipVisible(bool)::{lambda()#1}>, void ()>::target(std::type_info const&) const
PUBLIC 38c64 0 std::__ndk1::__function::__func<MyEditorUI::setTooltipVisible(bool)::{lambda()#1}, std::__ndk1::allocator<MyEditorUI::setTooltipVisible(bool)::{lambda()#1}>, void ()>::target_type() const
PUBLIC 38c70 0 std::__ndk1::__function::__base<void (cocos2d::CCObject*, cocos2d::CCPoint, bool, bool)>::~__base()
PUBLIC 38c74 0 std::__ndk1::__function::__func<std::__ndk1::__bind<void (MyEditorUI::*)(cocos2d::CCObject*, cocos2d::CCPoint, bool, bool), MyEditorUI*, std::__ndk1::placeholders::__ph<1> const&, std::__ndk1::placeholders::__ph<2> const&, std::__ndk1::placeholders::__ph<3> const&, std::__ndk1::placeholders::__ph<4> const&>, std::__ndk1::allocator<std::__ndk1::__bind<void (MyEditorUI::*)(cocos2d::CCObject*, cocos2d::CCPoint, bool, bool), MyEditorUI*, std::__ndk1::placeholders::__ph<1> const&, std::__ndk1::placeholders::__ph<2> const&, std::__ndk1::placeholders::__ph<3> const&, std::__ndk1::placeholders::__ph<4> const&> >, void (cocos2d::CCObject*, cocos2d::CCPoint, bool, bool)>::~__func()
PUBLIC 38c78 0 std::__ndk1::__function::__func<std::__ndk1::__bind<void (MyEditorUI::*)(cocos2d::CCObject*, cocos2d::CCPoint, bool, bool), MyEditorUI*, std::__ndk1::placeholders::__ph<1> const&, std::__ndk1::placeholders::__ph<2> const&, std::__ndk1::placeholders::__ph<3> const&, std::__ndk1::placeholders::__ph<4> const&>, std::__ndk1::allocator<std::__ndk1::__bind<void (MyEditorUI::*)(cocos2d::CCObject*, cocos2d::CCPoint, bool, bool), MyEditorUI*, std::__ndk1::placeholders::__ph<1> const&, std::__ndk1::placeholders::__ph<2> const&, std::__ndk1::placeholders::__ph<3> const&, std::__ndk1::placeholders::__ph<4> const&> >, void (cocos2d::CCObject*, cocos2d::CCPoint, bool, bool)>::__clone() const
PUBLIC 38cb8 0 std::__ndk1::__function::__func<std::__ndk1::__bind<void (MyEditorUI::*)(cocos2d::CCObject*, cocos2d::CCPoint, bool, bool), MyEditorUI*, std::__ndk1::placeholders::__ph<1> const&, std::__ndk1::placeholders::__ph<2> const&, std::__ndk1::placeholders::__ph<3> const&, std::__ndk1::placeholders::__ph<4> const&>, std::__ndk1::allocator<std::__ndk1::__bind<void (MyEditorUI::*)(cocos2d::CCObject*, cocos2d::CCPoint, bool, bool), MyEditorUI*, std::__ndk1::placeholders::__ph<1> const&, std::__ndk1::placeholders::__ph<2> const&, std::__ndk1::placeholders::__ph<3> const&, std::__ndk1::placeholders::__ph<4> const&> >, void (cocos2d::CCObject*, cocos2d::CCPoint, bool, bool)>::__clone(std::__ndk1::__function::__base<void (cocos2d::CCObject*, cocos2d::CCPoint, bool, bool)>*) const
PUBLIC 38cd8 0 std::__ndk1::__function::__func<std::__ndk1::__bind<void (MyEditorUI::*)(cocos2d::CCObject*, cocos2d::CCPoint, bool, bool), MyEditorUI*, std::__ndk1::placeholders::__ph<1> const&, std::__ndk1::placeholders::__ph<2> const&, std::__ndk1::placeholders::__ph<3> const&, std::__ndk1::placeholders::__ph<4> const&>, std::__ndk1::allocator<std::__ndk1::__bind<void (MyEditorUI::*)(cocos2d::CCObject*, cocos2d::CCPoint, bool, bool), MyEditorUI*, std::__ndk1::placeholders::__ph<1> const&, std::__ndk1::placeholders::__ph<2> const&, std::__ndk1::placeholders::__ph<3> const&, std::__ndk1::placeholders::__ph<4> const&> >, void (cocos2d::CCObject*, cocos2d::CCPoint, bool, bool)>::destroy()
PUBLIC 38cdc 0 std::__ndk1::__function::__func<std::__ndk1::__bind<void (MyEditorUI::*)(cocos2d::CCObject*, cocos2d::CCPoint, bool, bool), MyEditorUI*, std::__ndk1::placeholders::__ph<1> const&, std::__ndk1::placeholders::__ph<2> const&, std::__ndk1::placeholders::__ph<3> const&, std::__ndk1::placeholders::__ph<4> const&>, std::__ndk1::allocator<std::__ndk1::__bind<void (MyEditorUI::*)(cocos2d::CCObject*, cocos2d::CCPoint, bool, bool), MyEditorUI*, std::__ndk1::placeholders::__ph<1> const&, std::__ndk1::placeholders::__ph<2> const&, std::__ndk1::placeholders::__ph<3> const&, std::__ndk1::placeholders::__ph<4> const&> >, void (cocos2d::CCObject*, cocos2d::CCPoint, bool, bool)>::destroy_deallocate()
PUBLIC 38ce0 0 std::__ndk1::__function::__func<std::__ndk1::__bind<void (MyEditorUI::*)(cocos2d::CCObject*, cocos2d::CCPoint, bool, bool), MyEditorUI*, std::__ndk1::placeholders::__ph<1> const&, std::__ndk1::placeholders::__ph<2> const&, std::__ndk1::placeholders::__ph<3> const&, std::__ndk1::placeholders::__ph<4> const&>, std::__ndk1::allocator<std::__ndk1::__bind<void (MyEditorUI::*)(cocos2d::CCObject*, cocos2d::CCPoint, bool, bool), MyEditorUI*, std::__ndk1::placeholders::__ph<1> const&, std::__ndk1::placeholders::__ph<2> const&, std::__ndk1::placeholders::__ph<3> const&, std::__ndk1::placeholders::__ph<4> const&> >, void (cocos2d::CCObject*, cocos2d::CCPoint, bool, bool)>::operator()(cocos2d::CCObject*&&, cocos2d::CCPoint&&, bool&&, bool&&)
PUBLIC 38d54 0 std::__ndk1::__function::__func<std::__ndk1::__bind<void (MyEditorUI::*)(cocos2d::CCObject*, cocos2d::CCPoint, bool, bool), MyEditorUI*, std::__ndk1::placeholders::__ph<1> const&, std::__ndk1::placeholders::__ph<2> const&, std::__ndk1::placeholders::__ph<3> const&, std::__ndk1::placeholders::__ph<4> const&>, std::__ndk1::allocator<std::__ndk1::__bind<void (MyEditorUI::*)(cocos2d::CCObject*, cocos2d::CCPoint, bool, bool), MyEditorUI*, std::__ndk1::placeholders::__ph<1> const&, std::__ndk1::placeholders::__ph<2> const&, std::__ndk1::placeholders::__ph<3> const&, std::__ndk1::placeholders::__ph<4> const&> >, void (cocos2d::CCObject*, cocos2d::CCPoint, bool, bool)>::target(std::type_info const&) const
PUBLIC 38d70 0 std::__ndk1::__function::__func<std::__ndk1::__bind<void (MyEditorUI::*)(cocos2d::CCObject*, cocos2d::CCPoint, bool, bool), MyEditorUI*, std::__ndk1::placeholders::__ph<1> const&, std::__ndk1::placeholders::__ph<2> const&, std::__ndk1::placeholders::__ph<3> const&, std::__ndk1::placeholders::__ph<4> const&>, std::__ndk1::allocator<std::__ndk1::__bind<void (MyEditorUI::*)(cocos2d::CCObject*, cocos2d::CCPoint, bool, bool), MyEditorUI*, std::__ndk1::placeholders::__ph<1> const&, std::__ndk1::placeholders::__ph<2> const&, std::__ndk1::placeholders::__ph<3> const&, std::__ndk1::placeholders::__ph<4> const&> >, void (cocos2d::CCObject*, cocos2d::CCPoint, bool, bool)>::target_type() const
PUBLIC 38d7c 0 std::__ndk1::__function::__func<MyEditorUI::getCreateBtn(int, int)::{lambda()#1}, std::__ndk1::allocator<MyEditorUI::getCreateBtn(int, int)::{lambda()#1}>, void ()>::~__func()
PUBLIC 38d80 0 std::__ndk1::__function::__func<MyEditorUI::getCreateBtn(int, int)::{lambda()#1}, std::__ndk1::allocator<MyEditorUI::getCreateBtn(int, int)::{lambda()#1}>, void ()>::__clone() const
PUBLIC 38db8 0 std::__ndk1::__function::__func<MyEditorUI::getCreateBtn(int, int)::{lambda()#1}, std::__ndk1::allocator<MyEditorUI::getCreateBtn(int, int)::{lambda()#1}>, void ()>::__clone(std::__ndk1::__function::__base<void ()>*) const
PUBLIC 38dd0 0 std::__ndk1::__function::__func<MyEditorUI::getCreateBtn(int, int)::{lambda()#1}, std::__ndk1::allocator<MyEditorUI::getCreateBtn(int, int)::{lambda()#1}>, void ()>::destroy()
PUBLIC 38dd4 0 std::__ndk1::__function::__func<MyEditorUI::getCreateBtn(int, int)::{lambda()#1}, std::__ndk1::allocator<MyEditorUI::getCreateBtn(int, int)::{lambda()#1}>, void ()>::destroy_deallocate()
PUBLIC 38dd8 0 std::__ndk1::__function::__func<MyEditorUI::getCreateBtn(int, int)::{lambda()#1}, std::__ndk1::allocator<MyEditorUI::getCreateBtn(int, int)::{lambda()#1}>, void ()>::operator()()
PUBLIC 38e04 0 std::__ndk1::__function::__func<MyEditorUI::getCreateBtn(int, int)::{lambda()#1}, std::__ndk1::allocator<MyEditorUI::getCreateBtn(int, int)::{lambda()#1}>, void ()>::target(std::type_info const&) const
PUBLIC 38e20 0 std::__ndk1::__function::__func<MyEditorUI::getCreateBtn(int, int)::{lambda()#1}, std::__ndk1::allocator<MyEditorUI::getCreateBtn(int, int)::{lambda()#1}>, void ()>::target_type() const
PUBLIC 38e2c 0 MyEditorUI::setColorRecursive(cocos2d::CCNode*)
PUBLIC 39018 0 geode::ObjWrapper<cocos2d::_ccColor3B>::~ObjWrapper()
PUBLIC 3903c 0 cocos2d::CCObject::update(float)
PUBLIC 39040 0 std::__ndk1::__function::__base<void ()>::~__base()
PUBLIC 39044 0 std::__ndk1::__function::__func<MyEditorUI::getCreateBtn(int, int)::{lambda()#2}, std::__ndk1::allocator<MyEditorUI::getCreateBtn(int, int)::{lambda()#2}>, void ()>::~__func()
PUBLIC 39048 0 std::__ndk1::__function::__func<MyEditorUI::getCreateBtn(int, int)::{lambda()#2}, std::__ndk1::allocator<MyEditorUI::getCreateBtn(int, int)::{lambda()#2}>, void ()>::__clone() const
PUBLIC 39088 0 std::__ndk1::__function::__func<MyEditorUI::getCreateBtn(int, int)::{lambda()#2}, std::__ndk1::allocator<MyEditorUI::getCreateBtn(int, int)::{lambda()#2}>, void ()>::__clone(std::__ndk1::__function::__base<void ()>*) const
PUBLIC 390a8 0 std::__ndk1::__function::__func<MyEditorUI::getCreateBtn(int, int)::{lambda()#2}, std::__ndk1::allocator<MyEditorUI::getCreateBtn(int, int)::{lambda()#2}>, void ()>::destroy()
PUBLIC 390ac 0 std::__ndk1::__function::__func<MyEditorUI::getCreateBtn(int, int)::{lambda()#2}, std::__ndk1::allocator<MyEditorUI::getCreateBtn(int, int)::{lambda()#2}>, void ()>::destroy_deallocate()
PUBLIC 390b0 0 std::__ndk1::__function::__func<MyEditorUI::getCreateBtn(int, int)::{lambda()#2}, std::__ndk1::allocator<MyEditorUI::getCreateBtn(int, int)::{lambda()#2}>, void ()>::operator()()
PUBLIC 3912c 0 std::__ndk1::__function::__func<MyEditorUI::getCreateBtn(int, int)::{lambda()#2}, std::__ndk1::allocator<MyEditorUI::getCreateBtn(int, int)::{lambda()#2}>, void ()>::target(std::type_info const&) const
PUBLIC 39148 0 std::__ndk1::__function::__func<MyEditorUI::getCreateBtn(int, int)::{lambda()#2}, std::__ndk1::allocator<MyEditorUI::getCreateBtn(int, int)::{lambda()#2}>, void ()>::target_type() const
PUBLIC 39154 0 MyEditorUI::init(LevelEditorLayer*)
PUBLIC 3a724 0 MyEditorUI::onCreativeMenu(cocos2d::CCObject*)
PUBLIC 3a760 0 MyEditorUI::onSearchHover(cocos2d::CCObject*, cocos2d::CCPoint, bool, bool)
PUBLIC 3a7f0 0 geode::Mod::getSettingValue<cocos2d::_ccColor4B>(std::__ndk1::basic_string_view<char, std::__ndk1::char_traits<char> >) const
PUBLIC 3a908 0 geode::Mod::getSettingValue<float>(std::__ndk1::basic_string_view<char, std::__ndk1::char_traits<char> >) const
PUBLIC 3aa3c 0 MyEditorUI::getSelectedButtonEdges(EditorUI*)
PUBLIC 3ab48 0 MyEditorUI::arrowPrevHijack(cocos2d::CCObject*)
PUBLIC 3ac5c 0 MyEditorUI::arrowNextHijack(cocos2d::CCObject*)
PUBLIC 3ad70 0 MyEditorUI::changeBG(cocos2d::CCNode*, int, int, int)
PUBLIC 3b0d0 0 MyEditorUI::onTabHover(cocos2d::CCObject*, cocos2d::CCPoint, bool, bool)
PUBLIC 3b2e4 0 MyEditorUI::createGameObject(int, MyEditorUI::Fields*)
PUBLIC 3b644 0 geode::cocos::CCArrayExt<MyEditButtonBar*, MyEditButtonBar>::~CCArrayExt()
PUBLIC 3b664 0 geode::cocos::CallFuncExtImpl<MyEditorUI::init(LevelEditorLayer*)::{lambda()#1}>::~CallFuncExtImpl()
PUBLIC 3b688 0 geode::cocos::CallFuncExtImpl<MyEditorUI::init(LevelEditorLayer*)::{lambda()#1}>::update(float)
PUBLIC 3b6a8 0 cocos2d::CCAction::setTag(int)
PUBLIC 3b6b0 0 MyEditorUI::setLines(EditorUI*)
PUBLIC 3b798 0 geode::cocos::CallFuncExtImpl<MyEditorUI::init(LevelEditorLayer*)::{lambda()#2}>::~CallFuncExtImpl()
PUBLIC 3b7bc 0 geode::cocos::CallFuncExtImpl<MyEditorUI::init(LevelEditorLayer*)::{lambda()#2}>::update(float)
PUBLIC 3b7dc 0 MyEditorUI::createCoolBG(int, int, int)
PUBLIC 3be24 0 geode::cocos::CCArrayExt<CCMenuItemSpriteExtra*, CCMenuItemSpriteExtra>::~CCArrayExt()
PUBLIC 3be44 0 cocos2d::CCFloat::~CCFloat()
PUBLIC 3be68 0 cocos2d::CCFloat::acceptVisitor(cocos2d::CCDataVisitor&)
PUBLIC 3be80 0 std::__ndk1::__hash_table<std::__ndk1::__hash_value_type<int, std::__ndk1::vector<std::__ndk1::pair<int, geode::Ref<GameObject> >, std::__ndk1::allocator<std::__ndk1::pair<int, geode::Ref<GameObject> > > > >, std::__ndk1::__unordered_map_hasher<int, std::__ndk1::__hash_value_type<int, std::__ndk1::vector<std::__ndk1::pair<int, geode::Ref<GameObject> >, std::__ndk1::allocator<std::__ndk1::pair<int, geode::Ref<GameObject> > > > >, std::__ndk1::hash<int>, std::__ndk1::equal_to<int>, true>, std::__ndk1::__unordered_map_equal<int, std::__ndk1::__hash_value_type<int, std::__ndk1::vector<std::__ndk1::pair<int, geode::Ref<GameObject> >, std::__ndk1::allocator<std::__ndk1::pair<int, geode::Ref<GameObject> > > > >, std::__ndk1::equal_to<int>, std::__ndk1::hash<int>, true>, std::__ndk1::allocator<std::__ndk1::__hash_value_type<int, std::__ndk1::vector<std::__ndk1::pair<int, geode::Ref<GameObject> >, std::__ndk1::allocator<std::__ndk1::pair<int, geode::Ref<GameObject> > > > > > >::__emplace_unique_key_args<int, std::__ndk1::piecewise_construct_t const&, std::__ndk1::tuple<int const&>, std::__ndk1::tuple<> >(int const&, std::__ndk1::piecewise_construct_t const&, std::__ndk1::tuple<int const&>, std::__ndk1::tuple<>)
PUBLIC 3c1fc 0 std::__ndk1::unique_ptr<std::__ndk1::__hash_node<std::__ndk1::__hash_value_type<int, std::__ndk1::vector<std::__ndk1::pair<int, geode::Ref<GameObject> >, std::__ndk1::allocator<std::__ndk1::pair<int, geode::Ref<GameObject> > > > >, void*>, std::__ndk1::__hash_node_destructor<std::__ndk1::allocator<std::__ndk1::__hash_node<std::__ndk1::__hash_value_type<int, std::__ndk1::vector<std::__ndk1::pair<int, geode::Ref<GameObject> >, std::__ndk1::allocator<std::__ndk1::pair<int, geode::Ref<GameObject> > > > >, void*> > > >::~unique_ptr[abi:ne180000]()
PUBLIC 3c28c 0 std::__ndk1::__hash_table<std::__ndk1::__hash_value_type<int, std::__ndk1::vector<std::__ndk1::pair<int, geode::Ref<GameObject> >, std::__ndk1::allocator<std::__ndk1::pair<int, geode::Ref<GameObject> > > > >, std::__ndk1::__unordered_map_hasher<int, std::__ndk1::__hash_value_type<int, std::__ndk1::vector<std::__ndk1::pair<int, geode::Ref<GameObject> >, std::__ndk1::allocator<std::__ndk1::pair<int, geode::Ref<GameObject> > > > >, std::__ndk1::hash<int>, std::__ndk1::equal_to<int>, true>, std::__ndk1::__unordered_map_equal<int, std::__ndk1::__hash_value_type<int, std::__ndk1::vector<std::__ndk1::pair<int, geode::Ref<GameObject> >, std::__ndk1::allocator<std::__ndk1::pair<int, geode::Ref<GameObject> > > > >, std::__ndk1::equal_to<int>, std::__ndk1::hash<int>, true>, std::__ndk1::allocator<std::__ndk1::__hash_value_type<int, std::__ndk1::vector<std::__ndk1::pair<int, geode::Ref<GameObject> >, std::__ndk1::allocator<std::__ndk1::pair<int, geode::Ref<GameObject> > > > > > >::__do_rehash<true>(unsigned long)
PUBLIC 3c438 0 std::__ndk1::vector<std::__ndk1::pair<int, geode::Ref<GameObject> >, std::__ndk1::allocator<std::__ndk1::pair<int, geode::Ref<GameObject> > > >::__push_back_slow_path<std::__ndk1::pair<int, geode::Ref<GameObject> > >(std::__ndk1::pair<int, geode::Ref<GameObject> >&&)
PUBLIC 3c570 0 std::__ndk1::vector<std::__ndk1::pair<int, geode::Ref<GameObject> >, std::__ndk1::allocator<std::__ndk1::pair<int, geode::Ref<GameObject> > > >::__throw_length_error[abi:ne180000]() const
PUBLIC 3c584 0 MyEditorUI::onCreateButton(cocos2d::CCObject*)
PUBLIC 3c740 0 MyEditorUI::fixColorRecursive(cocos2d::CCNode*)
PUBLIC 3c8cc 0 MyEditorUI::selectBuildTab(int)
PUBLIC 3cb78 0 MyEditorUI::showUI(bool)
PUBLIC 3ccd4 0 MyEditorUI::toggleMode(cocos2d::CCObject*)
PUBLIC 3cd74 0 MyEditorUI::updateCreateMenu(bool)
PUBLIC 3d148 0 geode::cocos::CCArrayExt<CreateMenuItem*, CreateMenuItem>::~CCArrayExt()
PUBLIC 3d168 0 __cxx_global_var_init.3
PUBLIC 3d5e8 0 geode::modifier::ModifyBase<geode::modifier::ModifyDerive<MyCCKeyboardDispatcher, cocos2d::CCKeyboardDispatcher> >::~ModifyBase()
PUBLIC 3d604 0 geode::modifier::ModifyDerive<MyCCKeyboardDispatcher, cocos2d::CCKeyboardDispatcher>::apply()
PUBLIC 3d9f0 0 geode::modifier::ModifyBase<geode::modifier::ModifyDerive<MyCCKeyboardDispatcher, cocos2d::CCKeyboardDispatcher> >::apply()
PUBLIC 3d9f4 0 geode::modifier::AsStaticFunction_dispatchKeyboardMSG<MyCCKeyboardDispatcher, bool (MyCCKeyboardDispatcher::*)(cocos2d::enumKeyCodes, bool, bool)>::Impl<bool (MyCCKeyboardDispatcher::*)(cocos2d::enumKeyCodes, bool, bool)>::function(MyCCKeyboardDispatcher*, cocos2d::enumKeyCodes, bool, bool)
PUBLIC 3dab0 0 ObjectSelectPopup::init(EditorUI*)
PUBLIC 3f080 0 ObjectSelectPopup::clearSearch(cocos2d::CCObject*)
PUBLIC 3f114 0 ObjectSelectPopup::createTabButton(std::__ndk1::basic_string<char, std::__ndk1::char_traits<char>, std::__ndk1::allocator<char> >, void (cocos2d::CCObject::*)(cocos2d::CCObject*), int, float)
PUBLIC 3f378 0 ObjectSelectPopup::onTab(cocos2d::CCObject*)
PUBLIC 3f4e0 0 geode::Mod::getSavedValue<std::__ndk1::basic_string<char, std::__ndk1::char_traits<char>, std::__ndk1::allocator<char> > >(std::__ndk1::basic_string_view<char, std::__ndk1::char_traits<char> >)
PUBLIC 3f6c0 0 ObjectSelectPopup::generateList(int, std::__ndk1::basic_string<char, std::__ndk1::char_traits<char>, std::__ndk1::allocator<char> >, bool)
PUBLIC 41578 0 MyEditorUI::createObjectButton(int, int, MyEditorUI::Fields*)
PUBLIC 41cac 0 std::__ndk1::vector<NameData, std::__ndk1::allocator<NameData> >::~vector[abi:ne180000]()
PUBLIC 41d34 0 ObjectSelectPopup::setup()
PUBLIC 41d3c 0 ObjectSelectPopup::onClose(cocos2d::CCObject*)
PUBLIC 41da0 0 ObjectSelectPopup::create(EditorUI*)
PUBLIC 41ed4 0 ObjectSelectPopup::~ObjectSelectPopup()
PUBLIC 41fd4 0 ObjectSelectPopup::~ObjectSelectPopup()
PUBLIC 41ff8 0 geode::Popup<>::registerWithTouchDispatcher()
PUBLIC 42024 0 geode::Popup<>::keyDown(cocos2d::enumKeyCodes)
PUBLIC 4204c 0 cocos2d::CCLayerRGBA::setOpacityModifyRGB(bool)
PUBLIC 42050 0 cocos2d::CCLayerRGBA::isOpacityModifyRGB()
PUBLIC 42058 0 {virtual override thunk({offset(-320)}, ObjectSelectPopup::~ObjectSelectPopup())}
PUBLIC 42060 0 {virtual override thunk({offset(-320)}, ObjectSelectPopup::~ObjectSelectPopup())}
PUBLIC 42088 0 {virtual override thunk({offset(-344)}, geode::Popup<>::keyDown(cocos2d::enumKeyCodes))}
PUBLIC 420b4 0 {virtual override thunk({offset(-408)}, cocos2d::CCLayerRGBA::setOpacityModifyRGB(bool))}
PUBLIC 420b8 0 {virtual override thunk({offset(-408)}, cocos2d::CCLayerRGBA::isOpacityModifyRGB())}
PUBLIC 420c0 0 MyEditorUI::onObjectButton(cocos2d::CCObject*)
PUBLIC 42274 0 MyEditorUI::onObjectButtonHover(cocos2d::CCObject*, cocos2d::CCPoint, bool, bool)
PUBLIC 42964 0 cocos2d::CCInteger::~CCInteger()
PUBLIC 42988 0 cocos2d::CCInteger::acceptVisitor(cocos2d::CCDataVisitor&)
PUBLIC 429a0 0 fts::fuzzy_internal::fuzzy_match_recursive(char const*, char const*, int&, char const*, unsigned char const*, unsigned char*, int, int, int&, int)
PUBLIC 42e5c 0 std::__ndk1::vector<NameData, std::__ndk1::allocator<NameData> >::__throw_length_error[abi:ne180000]() const
PUBLIC 42e70 0 std::__ndk1::__introsort<std::__ndk1::_ClassicAlgPolicy, ObjectSelectPopup::generateList(int, std::__ndk1::basic_string<char, std::__ndk1::char_traits<char>, std::__ndk1::allocator<char> >, bool)::$_0&, NameData*, false>(NameData*, NameData*, ObjectSelectPopup::generateList(int, std::__ndk1::basic_string<char, std::__ndk1::char_traits<char>, std::__ndk1::allocator<char> >, bool)::$_0&, std::__ndk1::iterator_traits<NameData*>::difference_type, bool)
PUBLIC 43c7c 0 _ZNSt6__ndk124__sort5_maybe_branchlessB8ne180000INS_17_ClassicAlgPolicyERZN17ObjectSelectPopup12generateListEiNS_12basic_stringIcNS_11char_traitsIcEENS_9allocatorIcEEEEbE3$_0P8NameDataTnNS_9enable_ifIXntsr21__use_branchless_sortIT0_T1_EE5valueEiE4typeELi0EEEvSF_SF_SF_SF_SF_SE_
PUBLIC 43f4c 0 std::__ndk1::__sort3[abi:ne180000]<std::__ndk1::_ClassicAlgPolicy, ObjectSelectPopup::generateList(int, std::__ndk1::basic_string<char, std::__ndk1::char_traits<char>, std::__ndk1::allocator<char> >, bool)::$_0&, NameData*>(NameData*, NameData*, NameData*, ObjectSelectPopup::generateList(int, std::__ndk1::basic_string<char, std::__ndk1::char_traits<char>, std::__ndk1::allocator<char> >, bool)::$_0&)
PUBLIC 44260 0 std::__ndk1::__insertion_sort_incomplete[abi:ne180000]<std::__ndk1::_ClassicAlgPolicy, ObjectSelectPopup::generateList(int, std::__ndk1::basic_string<char, std::__ndk1::char_traits<char>, std::__ndk1::allocator<char> >, bool)::$_0&, NameData*>(NameData*, NameData*, ObjectSelectPopup::generateList(int, std::__ndk1::basic_string<char, std::__ndk1::char_traits<char>, std::__ndk1::allocator<char> >, bool)::$_0&)
PUBLIC 445b4 0 std::__ndk1::__sort4[abi:ne180000]<std::__ndk1::_ClassicAlgPolicy, ObjectSelectPopup::generateList(int, std::__ndk1::basic_string<char, std::__ndk1::char_traits<char>, std::__ndk1::allocator<char> >, bool)::$_0&, NameData*>(NameData*, NameData*, NameData*, NameData*, ObjectSelectPopup::generateList(int, std::__ndk1::basic_string<char, std::__ndk1::char_traits<char>, std::__ndk1::allocator<char> >, bool)::$_0&)
PUBLIC 447e8 0 std::__ndk1::vector<cocos2d::CCMenuItem*, std::__ndk1::allocator<cocos2d::CCMenuItem*> >::__throw_length_error[abi:ne180000]() const
PUBLIC 447fc 0 std::__ndk1::vector<std::__ndk1::pair<int, GameObject*>, std::__ndk1::allocator<std::__ndk1::pair<int, GameObject*> > >::__throw_length_error[abi:ne180000]() const
PUBLIC 44810 0 std::__ndk1::vector<cocos2d::CCNode*, std::__ndk1::allocator<cocos2d::CCNode*> >::__throw_length_error[abi:ne180000]() const
PUBLIC 44824 0 geode::Popup<>::~Popup()
PUBLIC 44890 0 geode::Popup<>::~Popup()
PUBLIC 44894 0 geode::Popup<>::onClose(cocos2d::CCObject*)
PUBLIC 449dc 0 {virtual override thunk({offset(-320)}, geode::Popup<>::~Popup())}
PUBLIC 44a48 0 {virtual override thunk({offset(-320)}, geode::Popup<>::~Popup())}
PUBLIC 44a4c 0 geode::Popup<>::CloseEvent::~CloseEvent()
PUBLIC 44aac 0 geode::Popup<>::CloseEvent::~CloseEvent()
PUBLIC 44b1c 0 std::__ndk1::__shared_ptr_emplace<geode::Popup<>::CloseEvent::Impl, std::__ndk1::allocator<geode::Popup<>::CloseEvent::Impl> >::~__shared_ptr_emplace()
PUBLIC 44b2c 0 std::__ndk1::__shared_ptr_emplace<geode::Popup<>::CloseEvent::Impl, std::__ndk1::allocator<geode::Popup<>::CloseEvent::Impl> >::~__shared_ptr_emplace()
PUBLIC 44b5c 0 std::__ndk1::__shared_ptr_emplace<geode::Popup<>::CloseEvent::Impl, std::__ndk1::allocator<geode::Popup<>::CloseEvent::Impl> >::__on_zero_shared()
PUBLIC 44b60 0 std::__ndk1::__shared_ptr_emplace<geode::Popup<>::CloseEvent::Impl, std::__ndk1::allocator<geode::Popup<>::CloseEvent::Impl> >::__on_zero_shared_weak()
PUBLIC 44b64 0 std::__ndk1::__function::__base<void (std::__ndk1::basic_string<char, std::__ndk1::char_traits<char>, std::__ndk1::allocator<char> > const&)>::~__base()
PUBLIC 44b68 0 std::__ndk1::__function::__func<ObjectSelectPopup::init(EditorUI*)::$_0, std::__ndk1::allocator<ObjectSelectPopup::init(EditorUI*)::$_0>, void (std::__ndk1::basic_string<char, std::__ndk1::char_traits<char>, std::__ndk1::allocator<char> > const&)>::~__func()
PUBLIC 44b6c 0 std::__ndk1::__function::__func<ObjectSelectPopup::init(EditorUI*)::$_0, std::__ndk1::allocator<ObjectSelectPopup::init(EditorUI*)::$_0>, void (std::__ndk1::basic_string<char, std::__ndk1::char_traits<char>, std::__ndk1::allocator<char> > const&)>::__clone() const
PUBLIC 44ba0 0 std::__ndk1::__function::__func<ObjectSelectPopup::init(EditorUI*)::$_0, std::__ndk1::allocator<ObjectSelectPopup::init(EditorUI*)::$_0>, void (std::__ndk1::basic_string<char, std::__ndk1::char_traits<char>, std::__ndk1::allocator<char> > const&)>::__clone(std::__ndk1::__function::__base<void (std::__ndk1::basic_string<char, std::__ndk1::char_traits<char>, std::__ndk1::allocator<char> > const&)>*) const
PUBLIC 44bb4 0 std::__ndk1::__function::__func<ObjectSelectPopup::init(EditorUI*)::$_0, std::__ndk1::allocator<ObjectSelectPopup::init(EditorUI*)::$_0>, void (std::__ndk1::basic_string<char, std::__ndk1::char_traits<char>, std::__ndk1::allocator<char> > const&)>::destroy()
PUBLIC 44bb8 0 std::__ndk1::__function::__func<ObjectSelectPopup::init(EditorUI*)::$_0, std::__ndk1::allocator<ObjectSelectPopup::init(EditorUI*)::$_0>, void (std::__ndk1::basic_string<char, std::__ndk1::char_traits<char>, std::__ndk1::allocator<char> > const&)>::destroy_deallocate()
PUBLIC 44bbc 0 std::__ndk1::__function::__func<ObjectSelectPopup::init(EditorUI*)::$_0, std::__ndk1::allocator<ObjectSelectPopup::init(EditorUI*)::$_0>, void (std::__ndk1::basic_string<char, std::__ndk1::char_traits<char>, std::__ndk1::allocator<char> > const&)>::operator()(std::__ndk1::basic_string<char, std::__ndk1::char_traits<char>, std::__ndk1::allocator<char> > const&)
PUBLIC 44e20 0 std::__ndk1::__function::__func<ObjectSelectPopup::init(EditorUI*)::$_0, std::__ndk1::allocator<ObjectSelectPopup::init(EditorUI*)::$_0>, void (std::__ndk1::basic_string<char, std::__ndk1::char_traits<char>, std::__ndk1::allocator<char> > const&)>::target(std::type_info const&) const
PUBLIC 44e3c 0 std::__ndk1::__function::__func<ObjectSelectPopup::init(EditorUI*)::$_0, std::__ndk1::allocator<ObjectSelectPopup::init(EditorUI*)::$_0>, void (std::__ndk1::basic_string<char, std::__ndk1::char_traits<char>, std::__ndk1::allocator<char> > const&)>::target_type() const
PUBLIC 44e48 0 geode::impl::ResultData<matjson::Value&, std::__ndk1::basic_string<char, std::__ndk1::char_traits<char>, std::__ndk1::allocator<char> > >::~ResultData()
PUBLIC 44ebc 0 matjson::Value::as<int>() const
PUBLIC 44fc4 0 std::__ndk1::__variant_detail::__visitation::__base::__dispatcher<(unsigned long)0>::__dispatch[abi:ne180000]<std::__ndk1::__variant_detail::__dtor<std::__ndk1::__variant_detail::__traits<long, std::__ndk1::basic_string<char, std::__ndk1::char_traits<char>, std::__ndk1::allocator<char> > >, (std::__ndk1::__variant_detail::_Trait)1>::__destroy[abi:ne180000]()::{lambda(auto:1&)#1}, std::__ndk1::__variant_detail::__base<(std::__ndk1::__variant_detail::__traits<long, std::__ndk1::basic_string<char, std::__ndk1::char_traits<char>, std::__ndk1::allocator<char> > >)1, long, std::__ndk1::allocator<char> >&>(std::__ndk1::__variant_detail::__dtor<std::__ndk1::__variant_detail::__traits<long, std::__ndk1::basic_string<char, std::__ndk1::char_traits<char>, std::__ndk1::allocator<char> > >, (std::__ndk1::__variant_detail::_Trait)1>, std::__ndk1::__variant_detail::__base<(std::__ndk1::__variant_detail::__traits<long, std::__ndk1::basic_string<char, std::__ndk1::char_traits<char>, std::__ndk1::allocator<char> > >)1, long, std::__ndk1::allocator<char> >&)
PUBLIC 44fc8 0 std::__ndk1::__variant_detail::__visitation::__base::__dispatcher<(unsigned long)1>::__dispatch[abi:ne180000]<std::__ndk1::__variant_detail::__dtor<std::__ndk1::__variant_detail::__traits<long, std::__ndk1::basic_string<char, std::__ndk1::char_traits<char>, std::__ndk1::allocator<char> > >, (std::__ndk1::__variant_detail::_Trait)1>::__destroy[abi:ne180000]()::{lambda(auto:1&)#1}, std::__ndk1::__variant_detail::__base<(std::__ndk1::__variant_detail::__traits<long, std::__ndk1::basic_string<char, std::__ndk1::char_traits<char>, std::__ndk1::allocator<char> > >)1, long, std::__ndk1::allocator<char> >&>(std::__ndk1::__variant_detail::__dtor<std::__ndk1::__variant_detail::__traits<long, std::__ndk1::basic_string<char, std::__ndk1::char_traits<char>, std::__ndk1::allocator<char> > >, (std::__ndk1::__variant_detail::_Trait)1>, std::__ndk1::__variant_detail::__base<(std::__ndk1::__variant_detail::__traits<long, std::__ndk1::basic_string<char, std::__ndk1::char_traits<char>, std::__ndk1::allocator<char> > >)1, long, std::__ndk1::allocator<char> >&)
PUBLIC 44fdc 0 std::__ndk1::__variant_detail::__visitation::__base::__dispatcher<(unsigned long)0>::__dispatch[abi:ne180000]<std::__ndk1::__variant_detail::__dtor<std::__ndk1::__variant_detail::__traits<std::__ndk1::reference_wrapper<matjson::Value>, std::__ndk1::basic_string<char, std::__ndk1::char_traits<char>, std::__ndk1::allocator<char> > >, (std::__ndk1::__variant_detail::_Trait)1>::__destroy[abi:ne180000]()::{lambda(auto:1&)#1}, std::__ndk1::__variant_detail::__base<(std::__ndk1::__variant_detail::__traits<std::__ndk1::reference_wrapper<matjson::Value>, std::__ndk1::basic_string<char, std::__ndk1::char_traits<char>, std::__ndk1::allocator<char> > >)1, matjson::Value, std::__ndk1::allocator<char> >&>(std::__ndk1::__variant_detail::__dtor<std::__ndk1::__variant_detail::__traits<std::__ndk1::reference_wrapper<matjson::Value>, std::__ndk1::basic_string<char, std::__ndk1::char_traits<char>, std::__ndk1::allocator<char> > >, (std::__ndk1::__variant_detail::_Trait)1>, std::__ndk1::__variant_detail::__base<(std::__ndk1::__variant_detail::__traits<std::__ndk1::reference_wrapper<matjson::Value>, std::__ndk1::basic_string<char, std::__ndk1::char_traits<char>, std::__ndk1::allocator<char> > >)1, matjson::Value, std::__ndk1::allocator<char> >&)
PUBLIC 44fe0 0 std::__ndk1::__variant_detail::__visitation::__base::__dispatcher<(unsigned long)1>::__dispatch[abi:ne180000]<std::__ndk1::__variant_detail::__dtor<std::__ndk1::__variant_detail::__traits<std::__ndk1::reference_wrapper<matjson::Value>, std::__ndk1::basic_string<char, std::__ndk1::char_traits<char>, std::__ndk1::allocator<char> > >, (std::__ndk1::__variant_detail::_Trait)1>::__destroy[abi:ne180000]()::{lambda(auto:1&)#1}, std::__ndk1::__variant_detail::__base<(std::__ndk1::__variant_detail::__traits<std::__ndk1::reference_wrapper<matjson::Value>, std::__ndk1::basic_string<char, std::__ndk1::char_traits<char>, std::__ndk1::allocator<char> > >)1, matjson::Value, std::__ndk1::allocator<char> >&>(std::__ndk1::__variant_detail::__dtor<std::__ndk1::__variant_detail::__traits<std::__ndk1::reference_wrapper<matjson::Value>, std::__ndk1::basic_string<char, std::__ndk1::char_traits<char>, std::__ndk1::allocator<char> > >, (std::__ndk1::__variant_detail::_Trait)1>, std::__ndk1::__variant_detail::__base<(std::__ndk1::__variant_detail::__traits<std::__ndk1::reference_wrapper<matjson::Value>, std::__ndk1::basic_string<char, std::__ndk1::char_traits<char>, std::__ndk1::allocator<char> > >)1, matjson::Value, std::__ndk1::allocator<char> >&)
PUBLIC 44ff4 0 geode::impl::ResultData<std::__ndk1::basic_string<char, std::__ndk1::char_traits<char>, std::__ndk1::allocator<char> >, std::__ndk1::basic_string<char, std::__ndk1::char_traits<char>, std::__ndk1::allocator<char> > >::~ResultData()
PUBLIC 45068 0 std::__ndk1::__variant_detail::__visitation::__base::__dispatcher<(unsigned long)0>::__dispatch[abi:ne180000]<std::__ndk1::__variant_detail::__dtor<std::__ndk1::__variant_detail::__traits<std::__ndk1::basic_string<char, std::__ndk1::char_traits<char>, std::__ndk1::allocator<char> >, std::__ndk1::allocator<char> >, (std::__ndk1::__variant_detail::_Trait)1>::__destroy[abi:ne180000]()::{lambda(auto:1&)#1}, std::__ndk1::__variant_detail::__base<(std::__ndk1::__variant_detail::__traits<std::__ndk1::basic_string<char, std::__ndk1::char_traits<char>, std::__ndk1::allocator<char> >, std::__ndk1::allocator<char> >)1, std::__ndk1::allocator<char>, std::__ndk1::allocator<char> >&>(std::__ndk1::__variant_detail::__dtor<std::__ndk1::__variant_detail::__traits<std::__ndk1::basic_string<char, std::__ndk1::char_traits<char>, std::__ndk1::allocator<char> >, std::__ndk1::allocator<char> >, (std::__ndk1::__variant_detail::_Trait)1>, std::__ndk1::__variant_detail::__base<(std::__ndk1::__variant_detail::__traits<std::__ndk1::basic_string<char, std::__ndk1::char_traits<char>, std::__ndk1::allocator<char> >, std::__ndk1::allocator<char> >)1, std::__ndk1::allocator<char>, std::__ndk1::allocator<char> >&)
PUBLIC 4507c 0 std::__ndk1::__variant_detail::__visitation::__base::__dispatcher<(unsigned long)1>::__dispatch[abi:ne180000]<std::__ndk1::__variant_detail::__dtor<std::__ndk1::__variant_detail::__traits<std::__ndk1::basic_string<char, std::__ndk1::char_traits<char>, std::__ndk1::allocator<char> >, std::__ndk1::allocator<char> >, (std::__ndk1::__variant_detail::_Trait)1>::__destroy[abi:ne180000]()::{lambda(auto:1&)#1}, std::__ndk1::__variant_detail::__base<(std::__ndk1::__variant_detail::__traits<std::__ndk1::basic_string<char, std::__ndk1::char_traits<char>, std::__ndk1::allocator<char> >, std::__ndk1::allocator<char> >)1, std::__ndk1::allocator<char>, std::__ndk1::allocator<char> >&>(std::__ndk1::__variant_detail::__dtor<std::__ndk1::__variant_detail::__traits<std::__ndk1::basic_string<char, std::__ndk1::char_traits<char>, std::__ndk1::allocator<char> >, std::__ndk1::allocator<char> >, (std::__ndk1::__variant_detail::_Trait)1>, std::__ndk1::__variant_detail::__base<(std::__ndk1::__variant_detail::__traits<std::__ndk1::basic_string<char, std::__ndk1::char_traits<char>, std::__ndk1::allocator<char> >, std::__ndk1::allocator<char> >)1, std::__ndk1::allocator<char>, std::__ndk1::allocator<char> >&)
PUBLIC 45090 0 std::__ndk1::__function::__func<ObjectSelectPopup::setTooltipVisible(bool)::$_0, std::__ndk1::allocator<ObjectSelectPopup::setTooltipVisible(bool)::$_0>, void ()>::~__func()
PUBLIC 45094 0 std::__ndk1::__function::__func<ObjectSelectPopup::setTooltipVisible(bool)::$_0, std::__ndk1::allocator<ObjectSelectPopup::setTooltipVisible(bool)::$_0>, void ()>::__clone() const
PUBLIC 450c8 0 std::__ndk1::__function::__func<ObjectSelectPopup::setTooltipVisible(bool)::$_0, std::__ndk1::allocator<ObjectSelectPopup::setTooltipVisible(bool)::$_0>, void ()>::__clone(std::__ndk1::__function::__base<void ()>*) const
PUBLIC 450dc 0 std::__ndk1::__function::__func<ObjectSelectPopup::setTooltipVisible(bool)::$_0, std::__ndk1::allocator<ObjectSelectPopup::setTooltipVisible(bool)::$_0>, void ()>::destroy()
PUBLIC 450e0 0 std::__ndk1::__function::__func<ObjectSelectPopup::setTooltipVisible(bool)::$_0, std::__ndk1::allocator<ObjectSelectPopup::setTooltipVisible(bool)::$_0>, void ()>::destroy_deallocate()
PUBLIC 450e4 0 std::__ndk1::__function::__func<ObjectSelectPopup::setTooltipVisible(bool)::$_0, std::__ndk1::allocator<ObjectSelectPopup::setTooltipVisible(bool)::$_0>, void ()>::operator()()
PUBLIC 45140 0 std::__ndk1::__function::__func<ObjectSelectPopup::setTooltipVisible(bool)::$_0, std::__ndk1::allocator<ObjectSelectPopup::setTooltipVisible(bool)::$_0>, void ()>::target(std::type_info const&) const
PUBLIC 4515c 0 std::__ndk1::__function::__func<ObjectSelectPopup::setTooltipVisible(bool)::$_0, std::__ndk1::allocator<ObjectSelectPopup::setTooltipVisible(bool)::$_0>, void ()>::target_type() const
PUBLIC 45168 0 std::__ndk1::__hash_table<std::__ndk1::__hash_value_type<int, geode::Ref<cocos2d::CCMenuItem> >, std::__ndk1::__unordered_map_hasher<int, std::__ndk1::__hash_value_type<int, geode::Ref<cocos2d::CCMenuItem> >, std::__ndk1::hash<int>, std::__ndk1::equal_to<int>, true>, std::__ndk1::__unordered_map_equal<int, std::__ndk1::__hash_value_type<int, geode::Ref<cocos2d::CCMenuItem> >, std::__ndk1::equal_to<int>, std::__ndk1::hash<int>, true>, std::__ndk1::allocator<std::__ndk1::__hash_value_type<int, geode::Ref<cocos2d::CCMenuItem> > > >::__emplace_unique_key_args<int, std::__ndk1::piecewise_construct_t const&, std::__ndk1::tuple<int const&>, std::__ndk1::tuple<> >(int const&, std::__ndk1::piecewise_construct_t const&, std::__ndk1::tuple<int const&>, std::__ndk1::tuple<>)
PUBLIC 45668 0 std::__ndk1::unique_ptr<std::__ndk1::__hash_node<std::__ndk1::__hash_value_type<int, geode::Ref<cocos2d::CCMenuItem> >, void*>, std::__ndk1::__hash_node_destructor<std::__ndk1::allocator<std::__ndk1::__hash_node<std::__ndk1::__hash_value_type<int, geode::Ref<cocos2d::CCMenuItem> >, void*> > > >::~unique_ptr[abi:ne180000]()
PUBLIC 456b4 0 std::__ndk1::__function::__base<void (bool)>::~__base()
PUBLIC 456b8 0 std::__ndk1::__function::__func<ObjectSelectPopup::generateList(int, std::__ndk1::basic_string<char, std::__ndk1::char_traits<char>, std::__ndk1::allocator<char> >, bool)::$_1, std::__ndk1::allocator<ObjectSelectPopup::generateList(int, std::__ndk1::basic_string<char, std::__ndk1::char_traits<char>, std::__ndk1::allocator<char> >, bool)::$_1>, void (bool)>::~__func()
PUBLIC 456bc 0 std::__ndk1::__function::__func<ObjectSelectPopup::generateList(int, std::__ndk1::basic_string<char, std::__ndk1::char_traits<char>, std::__ndk1::allocator<char> >, bool)::$_1, std::__ndk1::allocator<ObjectSelectPopup::generateList(int, std::__ndk1::basic_string<char, std::__ndk1::char_traits<char>, std::__ndk1::allocator<char> >, bool)::$_1>, void (bool)>::__clone() const
PUBLIC 456f0 0 std::__ndk1::__function::__func<ObjectSelectPopup::generateList(int, std::__ndk1::basic_string<char, std::__ndk1::char_traits<char>, std::__ndk1::allocator<char> >, bool)::$_1, std::__ndk1::allocator<ObjectSelectPopup::generateList(int, std::__ndk1::basic_string<char, std::__ndk1::char_traits<char>, std::__ndk1::allocator<char> >, bool)::$_1>, void (bool)>::__clone(std::__ndk1::__function::__base<void (bool)>*) const
PUBLIC 45704 0 std::__ndk1::__function::__func<ObjectSelectPopup::generateList(int, std::__ndk1::basic_string<char, std::__ndk1::char_traits<char>, std::__ndk1::allocator<char> >, bool)::$_1, std::__ndk1::allocator<ObjectSelectPopup::generateList(int, std::__ndk1::basic_string<char, std::__ndk1::char_traits<char>, std::__ndk1::allocator<char> >, bool)::$_1>, void (bool)>::destroy()
PUBLIC 45708 0 std::__ndk1::__function::__func<ObjectSelectPopup::generateList(int, std::__ndk1::basic_string<char, std::__ndk1::char_traits<char>, std::__ndk1::allocator<char> >, bool)::$_1, std::__ndk1::allocator<ObjectSelectPopup::generateList(int, std::__ndk1::basic_string<char, std::__ndk1::char_traits<char>, std::__ndk1::allocator<char> >, bool)::$_1>, void (bool)>::destroy_deallocate()
PUBLIC 4570c 0 std::__ndk1::__function::__func<ObjectSelectPopup::generateList(int, std::__ndk1::basic_string<char, std::__ndk1::char_traits<char>, std::__ndk1::allocator<char> >, bool)::$_1, std::__ndk1::allocator<ObjectSelectPopup::generateList(int, std::__ndk1::basic_string<char, std::__ndk1::char_traits<char>, std::__ndk1::allocator<char> >, bool)::$_1>, void (bool)>::operator()(bool&&)
PUBLIC 4576c 0 std::__ndk1::__function::__func<ObjectSelectPopup::generateList(int, std::__ndk1::basic_string<char, std::__ndk1::char_traits<char>, std::__ndk1::allocator<char> >, bool)::$_1, std::__ndk1::allocator<ObjectSelectPopup::generateList(int, std::__ndk1::basic_string<char, std::__ndk1::char_traits<char>, std::__ndk1::allocator<char> >, bool)::$_1>, void (bool)>::target(std::type_info const&) const
PUBLIC 45788 0 std::__ndk1::__function::__func<ObjectSelectPopup::generateList(int, std::__ndk1::basic_string<char, std::__ndk1::char_traits<char>, std::__ndk1::allocator<char> >, bool)::$_1, std::__ndk1::allocator<ObjectSelectPopup::generateList(int, std::__ndk1::basic_string<char, std::__ndk1::char_traits<char>, std::__ndk1::allocator<char> >, bool)::$_1>, void (bool)>::target_type() const
PUBLIC 45794 0 std::__ndk1::__function::__func<ObjectSelectPopup::generateList(int, std::__ndk1::basic_string<char, std::__ndk1::char_traits<char>, std::__ndk1::allocator<char> >, bool)::$_2, std::__ndk1::allocator<ObjectSelectPopup::generateList(int, std::__ndk1::basic_string<char, std::__ndk1::char_traits<char>, std::__ndk1::allocator<char> >, bool)::$_2>, void ()>::~__func()
PUBLIC 45798 0 std::__ndk1::__function::__func<ObjectSelectPopup::generateList(int, std::__ndk1::basic_string<char, std::__ndk1::char_traits<char>, std::__ndk1::allocator<char> >, bool)::$_2, std::__ndk1::allocator<ObjectSelectPopup::generateList(int, std::__ndk1::basic_string<char, std::__ndk1::char_traits<char>, std::__ndk1::allocator<char> >, bool)::$_2>, void ()>::__clone() const
PUBLIC 457cc 0 std::__ndk1::__function::__func<ObjectSelectPopup::generateList(int, std::__ndk1::basic_string<char, std::__ndk1::char_traits<char>, std::__ndk1::allocator<char> >, bool)::$_2, std::__ndk1::allocator<ObjectSelectPopup::generateList(int, std::__ndk1::basic_string<char, std::__ndk1::char_traits<char>, std::__ndk1::allocator<char> >, bool)::$_2>, void ()>::__clone(std::__ndk1::__function::__base<void ()>*) const
PUBLIC 457e0 0 std::__ndk1::__function::__func<ObjectSelectPopup::generateList(int, std::__ndk1::basic_string<char, std::__ndk1::char_traits<char>, std::__ndk1::allocator<char> >, bool)::$_2, std::__ndk1::allocator<ObjectSelectPopup::generateList(int, std::__ndk1::basic_string<char, std::__ndk1::char_traits<char>, std::__ndk1::allocator<char> >, bool)::$_2>, void ()>::destroy()
PUBLIC 457e4 0 std::__ndk1::__function::__func<ObjectSelectPopup::generateList(int, std::__ndk1::basic_string<char, std::__ndk1::char_traits<char>, std::__ndk1::allocator<char> >, bool)::$_2, std::__ndk1::allocator<ObjectSelectPopup::generateList(int, std::__ndk1::basic_string<char, std::__ndk1::char_traits<char>, std::__ndk1::allocator<char> >, bool)::$_2>, void ()>::destroy_deallocate()
PUBLIC 457e8 0 std::__ndk1::__function::__func<ObjectSelectPopup::generateList(int, std::__ndk1::basic_string<char, std::__ndk1::char_traits<char>, std::__ndk1::allocator<char> >, bool)::$_2, std::__ndk1::allocator<ObjectSelectPopup::generateList(int, std::__ndk1::basic_string<char, std::__ndk1::char_traits<char>, std::__ndk1::allocator<char> >, bool)::$_2>, void ()>::operator()()
PUBLIC 45890 0 std::__ndk1::__function::__func<ObjectSelectPopup::generateList(int, std::__ndk1::basic_string<char, std::__ndk1::char_traits<char>, std::__ndk1::allocator<char> >, bool)::$_2, std::__ndk1::allocator<ObjectSelectPopup::generateList(int, std::__ndk1::basic_string<char, std::__ndk1::char_traits<char>, std::__ndk1::allocator<char> >, bool)::$_2>, void ()>::target(std::type_info const&) const
PUBLIC 458ac 0 std::__ndk1::__function::__func<ObjectSelectPopup::generateList(int, std::__ndk1::basic_string<char, std::__ndk1::char_traits<char>, std::__ndk1::allocator<char> >, bool)::$_2, std::__ndk1::allocator<ObjectSelectPopup::generateList(int, std::__ndk1::basic_string<char, std::__ndk1::char_traits<char>, std::__ndk1::allocator<char> >, bool)::$_2>, void ()>::target_type() const
PUBLIC m 458b8 0 geodeImplicitEntry
PUBLIC 458f4 0 std::__ndk1::unordered_map<void*, bool, std::__ndk1::hash<void*>, std::__ndk1::equal_to<void*>, std::__ndk1::allocator<std::__ndk1::pair<void* const, bool> > >::~unordered_map[abi:ne180000]()
PUBLIC 45940 0 wrapFunction(unsigned long, tulip::hook::WrapperMetadata const&)
PUBLIC 45a74 0 geode::impl::ResultData<void*, std::__ndk1::basic_string<char, std::__ndk1::char_traits<char>, std::__ndk1::allocator<char> > >::unwrapErr() &
PUBLIC 45aec 0 geode::impl::ResultData<void*, std::__ndk1::basic_string<char, std::__ndk1::char_traits<char>, std::__ndk1::allocator<char> > >::~ResultData()
PUBLIC 45b60 0 tulip::hook::WrapperMetadata::~WrapperMetadata()
PUBLIC 45bc4 0 cocos2d::CCObject::CCObject()
PUBLIC 45de8 0 cocos2d::CCObject::~CCObject()
PUBLIC 45e0c 0 cocos2d::CCNode::~CCNode()
PUBLIC 45e30 0 cocos2d::CCNodeRGBA::~CCNodeRGBA()
PUBLIC 45e54 0 cocos2d::CCAction::~CCAction()
PUBLIC 45e78 0 cocos2d::CCActionInstant::CCActionInstant()
PUBLIC 460a4 0 cocos2d::CCAction::~CCAction()
PUBLIC 46314 0 {virtual override thunk({offset(-320)}, cocos2d::CCLayer::~CCLayer())}
PUBLIC 4631c 0 cocos2d::CCLayer::~CCLayer()
PUBLIC 46340 0 {virtual override thunk({offset(-320)}, cocos2d::CCLayer::~CCLayer())}
PUBLIC 46368 0 cocos2d::CCLayerRGBA::CCLayerRGBA()
PUBLIC 465f4 0 cocos2d::CCLayerRGBA::~CCLayerRGBA()
PUBLIC 468f4 0 {virtual override thunk({offset(-320)}, cocos2d::CCLayerRGBA::~CCLayerRGBA())}
PUBLIC 468fc 0 cocos2d::CCLayerRGBA::~CCLayerRGBA()
PUBLIC 46920 0 {virtual override thunk({offset(-320)}, cocos2d::CCLayerRGBA::~CCLayerRGBA())}
PUBLIC 46948 0 cocos2d::CCLayerColor::CCLayerColor()
PUBLIC 46bac 0 {virtual override thunk({offset(-320)}, cocos2d::CCLayerColor::~CCLayerColor())}
PUBLIC 46bb4 0 cocos2d::CCLayerColor::~CCLayerColor()
PUBLIC 46bd8 0 {virtual override thunk({offset(-320)}, cocos2d::CCLayerColor::~CCLayerColor())}
PUBLIC 46c00 0 cocos2d::CCMenuItem::~CCMenuItem()
PUBLIC 46c24 0 {virtual override thunk({offset(-320)}, FLAlertLayer::~FLAlertLayer())}
PUBLIC 46c2c 0 FLAlertLayer::~FLAlertLayer()
PUBLIC 46c50 0 {virtual override thunk({offset(-320)}, FLAlertLayer::~FLAlertLayer())}
PUBLIC 46c78 0 cocos2d::CCNodeRGBA::~CCNodeRGBA()
PUBLIC 46f30 0 cocos2d::CCMenuItem::~CCMenuItem()
PUBLIC 471f0 0 CCMenuItemSpriteExtra::~CCMenuItemSpriteExtra()
PUBLIC 47234 0 CCMenuItemSpriteExtra::~CCMenuItemSpriteExtra()
PUBLIC 47280 0 cocos2d::CCNodeRGBA::setOpacityModifyRGB(bool)
PUBLIC 47284 0 cocos2d::CCNodeRGBA::isOpacityModifyRGB()
PUBLIC 4728c 0 {virtual override thunk({offset(-320)}, cocos2d::CCNodeRGBA::setOpacityModifyRGB(bool))}
PUBLIC 47290 0 {virtual override thunk({offset(-320)}, cocos2d::CCNodeRGBA::isOpacityModifyRGB())}
PUBLIC 47298 0 cocos2d::CCLayerColor::~CCLayerColor()
PUBLIC 4757c 0 FLAlertLayer::~FLAlertLayer()
PUBLIC 47860 0 cocos2d::CCNode::~CCNode()
PUBLIC 47b00 0 cocos2d::CCLayer::~CCLayer()
PUBLIC 47df0 0 cocos2d::CCObject::~CCObject()
PUBLIC 482e4 0 _ZN5geode15UnwrapExceptionC2IRPvQsr4implE18IsStringStreamableIT_EEENS_4impl5OkTagEOS4_
PUBLIC 48438 0 std::__ndk1::__variant_detail::__visitation::__base::__dispatcher<(unsigned long)0>::__dispatch[abi:ne180000]<std::__ndk1::__variant_detail::__dtor<std::__ndk1::__variant_detail::__traits<void*, std::__ndk1::basic_string<char, std::__ndk1::char_traits<char>, std::__ndk1::allocator<char> > >, (std::__ndk1::__variant_detail::_Trait)1>::__destroy[abi:ne180000]()::{lambda(auto:1&)#1}, std::__ndk1::__variant_detail::__base<(std::__ndk1::__variant_detail::__traits<void*, std::__ndk1::basic_string<char, std::__ndk1::char_traits<char>, std::__ndk1::allocator<char> > >)1, std::__ndk1::__variant_detail::__traits, std::__ndk1::allocator<char> >&>(std::__ndk1::__variant_detail::__dtor<std::__ndk1::__variant_detail::__traits<void*, std::__ndk1::basic_string<char, std::__ndk1::char_traits<char>, std::__ndk1::allocator<char> > >, (std::__ndk1::__variant_detail::_Trait)1>, std::__ndk1::__variant_detail::__base<(std::__ndk1::__variant_detail::__traits<void*, std::__ndk1::basic_string<char, std::__ndk1::char_traits<char>, std::__ndk1::allocator<char> > >)1, std::__ndk1::__variant_detail::__traits, std::__ndk1::allocator<char> >&)
PUBLIC 4843c 0 std::__ndk1::__variant_detail::__visitation::__base::__dispatcher<(unsigned long)1>::__dispatch[abi:ne180000]<std::__ndk1::__variant_detail::__dtor<std::__ndk1::__variant_detail::__traits<void*, std::__ndk1::basic_string<char, std::__ndk1::char_traits<char>, std::__ndk1::allocator<char> > >, (std::__ndk1::__variant_detail::_Trait)1>::__destroy[abi:ne180000]()::{lambda(auto:1&)#1}, std::__ndk1::__variant_detail::__base<(std::__ndk1::__variant_detail::__traits<void*, std::__ndk1::basic_string<char, std::__ndk1::char_traits<char>, std::__ndk1::allocator<char> > >)1, std::__ndk1::__variant_detail::__traits, std::__ndk1::allocator<char> >&>(std::__ndk1::__variant_detail::__dtor<std::__ndk1::__variant_detail::__traits<void*, std::__ndk1::basic_string<char, std::__ndk1::char_traits<char>, std::__ndk1::allocator<char> > >, (std::__ndk1::__variant_detail::_Trait)1>, std::__ndk1::__variant_detail::__base<(std::__ndk1::__variant_detail::__traits<void*, std::__ndk1::basic_string<char, std::__ndk1::char_traits<char>, std::__ndk1::allocator<char> > >)1, std::__ndk1::__variant_detail::__traits, std::__ndk1::allocator<char> >&)
PUBLIC 48450 0 std::__ndk1::__hash_table<std::__ndk1::__hash_value_type<void*, bool>, std::__ndk1::__unordered_map_hasher<void*, std::__ndk1::__hash_value_type<void*, bool>, std::__ndk1::hash<void*>, std::__ndk1::equal_to<void*>, true>, std::__ndk1::__unordered_map_equal<void*, std::__ndk1::__hash_value_type<void*, bool>, std::__ndk1::equal_to<void*>, std::__ndk1::hash<void*>, true>, std::__ndk1::allocator<std::__ndk1::__hash_value_type<void*, bool> > >::__emplace_unique_key_args<void*, std::__ndk1::piecewise_construct_t const&, std::__ndk1::tuple<void* const&>, std::__ndk1::tuple<> >(void* const&, std::__ndk1::piecewise_construct_t const&, std::__ndk1::tuple<void* const&>, std::__ndk1::tuple<>)
PUBLIC 4895c 0 __udivti3
PUBLIC 48968 0 __udivmodti4
PUBLIC m 48bb4 0 __eqtf2
PUBLIC 48c54 0 __unordtf2
PUBLIC 48c8c 0 fmt::v11::detail::write_loc(fmt::v11::basic_appender<char>, fmt::v11::loc_value, fmt::v11::format_specs const&, fmt::v11::detail::locale_ref)
PUBLIC 48f20 0 fmt::v11::format_facet<std::__ndk1::locale>::~format_facet()
PUBLIC 48f9c 0 fmt::v11::report_error(char const*)
PUBLIC 48fec 0 fmt::v11::format_error::runtime_error(char const*)
PUBLIC 49018 0 fmt::v11::format_facet<std::__ndk1::locale>::do_put(fmt::v11::basic_appender<char>, fmt::v11::loc_value, fmt::v11::format_specs const&) const
PUBLIC 497d8 0 fmt::v11::detail::loc_writer<char>::~loc_writer()
PUBLIC 4983c 0 fmt::v11::detail::vformat_to<char>(fmt::v11::detail::buffer<char>&, fmt::v11::basic_string_view<char>, fmt::v11::detail::vformat_args<char>::type, fmt::v11::detail::locale_ref)
PUBLIC 49dac 0 fmt::v11::detail::is_printable(unsigned int)
PUBLIC 49fd4 0 fmt::v11::detail::dragonbox::to_decimal<float>(float)
PUBLIC 4a2b0 0 fmt::v11::detail::dragonbox::to_decimal<double>(double)
PUBLIC 4a7ec 0 fmt::v11::basic_memory_buffer<char, (unsigned long)500, std::__ndk1::allocator<char> >::grow(fmt::v11::detail::buffer<char>&, unsigned long)
PUBLIC 4a864 0 fmt::v11::format_facet<std::__ndk1::locale>::~format_facet()
PUBLIC 4a8f0 0 fmt::v11::format_error::~format_error()
PUBLIC 4a914 0 fmt::v11::detail::copy_noinline<char, char const*, fmt::v11::basic_appender<char> >(char const*, char const*, fmt::v11::basic_appender<char>)
PUBLIC 4aa64 0 fmt::v11::detail::default_arg_formatter<char>::operator()<bool>(bool)
PUBLIC 4aacc 0 fmt::v11::detail::default_arg_formatter<char>::operator()<char>(char)
PUBLIC 4ab5c 0 fmt::v11::detail::default_arg_formatter<char>::operator()<float>(float)
PUBLIC 4ac48 0 fmt::v11::detail::default_arg_formatter<char>::operator()<double>(double)
PUBLIC 4ad34 0 fmt::v11::detail::default_arg_formatter<char>::operator()<char const*>(char const*)
PUBLIC 4ad7c 0 fmt::v11::detail::default_arg_formatter<char>::operator()<void const*>(void const*)
PUBLIC 4ae14 0 _ZN3fmt3v116detail5writeIcNS0_14basic_appenderIcEEiTnNSt6__ndk19enable_ifIXaaaasr11is_integralIT1_EE5valuentsr3std7is_sameIS7_bEE5valuentsr3std7is_sameIS7_T_EE5valueEiE4typeELi0EEET0_SB_S7_
PUBLIC 4b074 0 fmt::v11::detail::copy_noinline<char, char*, fmt::v11::basic_appender<char> >(char*, char*, fmt::v11::basic_appender<char>)
PUBLIC 4b1c4 0 _ZN3fmt3v116detail5writeIcNS0_14basic_appenderIcEEjTnNSt6__ndk19enable_ifIXaaaasr11is_integralIT1_EE5valuentsr3std7is_sameIS7_bEE5valuentsr3std7is_sameIS7_T_EE5valueEiE4typeELi0EEET0_SB_S7_
PUBLIC 4b3a4 0 _ZN3fmt3v116detail5writeIcNS0_14basic_appenderIcEExTnNSt6__ndk19enable_ifIXaaaasr11is_integralIT1_EE5valuentsr3std7is_sameIS7_bEE5valuentsr3std7is_sameIS7_T_EE5valueEiE4typeELi0EEET0_SB_S7_
PUBLIC 4b628 0 _ZN3fmt3v116detail5writeIcNS0_14basic_appenderIcEEyTnNSt6__ndk19enable_ifIXaaaasr11is_integralIT1_EE5valuentsr3std7is_sameIS7_bEE5valuentsr3std7is_sameIS7_T_EE5valueEiE4typeELi0EEET0_SB_S7_
PUBLIC 4b830 0 _ZN3fmt3v116detail5writeIcNS0_14basic_appenderIcEEnTnNSt6__ndk19enable_ifIXaaaasr11is_integralIT1_EE5valuentsr3std7is_sameIS7_bEE5valuentsr3std7is_sameIS7_T_EE5valueEiE4typeELi0EEET0_SB_S7_
PUBLIC 4bb90 0 _ZN3fmt3v116detail5writeIcNS0_14basic_appenderIcEEoTnNSt6__ndk19enable_ifIXaaaasr11is_integralIT1_EE5valuentsr3std7is_sameIS7_bEE5valuentsr3std7is_sameIS7_T_EE5valueEiE4typeELi0EEET0_SB_S7_
PUBLIC 4bea4 0 _ZN3fmt3v116detail5writeIcNS0_14basic_appenderIcEEbTnNSt6__ndk19enable_ifIXsr3std7is_sameIT1_bEE5valueEiE4typeELi0EEET0_SA_S7_RKNS0_12format_specsENS1_10locale_refE
PUBLIC 4c134 0 fmt::v11::detail::write_int_noinline<char, fmt::v11::basic_appender<char>, unsigned int>(fmt::v11::basic_appender<char>, fmt::v11::detail::write_int_arg<unsigned int>, fmt::v11::format_specs const&, fmt::v11::detail::locale_ref)
PUBLIC 4cf10 0 fmt::v11::detail::fill<char, fmt::v11::basic_appender<char> >(fmt::v11::basic_appender<char>, unsigned long, fmt::v11::detail::fill_t const&)
PUBLIC 4d0e0 0 fmt::v11::detail::write_padded<char, (fmt::v11::align::type)1, fmt::v11::basic_appender<char>, fmt::v11::detail::write_char<char, fmt::v11::basic_appender<char> >(fmt::v11::basic_appender<char>, char, fmt::v11::format_specs const&)::{lambda(fmt::v11::basic_appender<char>&)#1}>(fmt::v11::basic_appender<char>, fmt::v11::format_specs const&, unsigned long, unsigned long, fmt::v11::detail::write_char<char, fmt::v11::basic_appender<char> >(fmt::v11::basic_appender<char>, char, fmt::v11::format_specs const&)::{lambda(fmt::v11::basic_appender<char>&)#1})
PUBLIC 4d31c 0 fmt::v11::detail::write_escaped_cp<fmt::v11::basic_appender<char>, char>(fmt::v11::basic_appender<char>, fmt::v11::detail::find_escape_result<char> const&)
PUBLIC 4d628 0 fmt::v11::detail::write_codepoint<(unsigned long)2, char, fmt::v11::basic_appender<char> >(fmt::v11::basic_appender<char>, char, unsigned int)
PUBLIC 4d7a0 0 fmt::v11::detail::write_codepoint<(unsigned long)8, char, fmt::v11::basic_appender<char> >(fmt::v11::basic_appender<char>, char, unsigned int)
PUBLIC 4d918 0 fmt::v11::detail::write_padded<char, (fmt::v11::align::type)1, fmt::v11::basic_appender<char>, fmt::v11::detail::write_nonfinite<char, fmt::v11::basic_appender<char> >(fmt::v11::basic_appender<char>, bool, fmt::v11::format_specs, fmt::v11::sign::type)::{lambda(fmt::v11::basic_appender<char>&)#1}>(fmt::v11::basic_appender<char>, fmt::v11::format_specs const&, unsigned long, unsigned long, fmt::v11::detail::write_nonfinite<char, fmt::v11::basic_appender<char> >(fmt::v11::basic_appender<char>, bool, fmt::v11::format_specs, fmt::v11::sign::type)::{lambda(fmt::v11::basic_appender<char>&)#1})
PUBLIC 4db58 0 fmt::v11::detail::do_write_float<char, fmt::v11::basic_appender<char>, fmt::v11::detail::dragonbox::decimal_fp<float>, fmt::v11::detail::digit_grouping<char> >(fmt::v11::basic_appender<char>, fmt::v11::detail::dragonbox::decimal_fp<float> const&, fmt::v11::format_specs const&, fmt::v11::detail::float_specs, fmt::v11::detail::locale_ref)
PUBLIC 4e7cc 0 fmt::v11::detail::do_write_float<char, fmt::v11::basic_appender<char>, fmt::v11::detail::dragonbox::decimal_fp<float>, fmt::v11::detail::digit_grouping<char> >(fmt::v11::basic_appender<char>, fmt::v11::detail::dragonbox::decimal_fp<float> const&, fmt::v11::format_specs const&, fmt::v11::detail::float_specs, fmt::v11::detail::locale_ref)::{lambda(fmt::v11::basic_appender<char>(fmt::v11::basic_appender<char>))#1}::operator() const
PUBLIC 4e920 0 fmt::v11::detail::digit_grouping<char>::digit_grouping(fmt::v11::detail::locale_ref, bool)
PUBLIC 4eb8c 0 fmt::v11::detail::digit_grouping<char>::~digit_grouping()
PUBLIC 4ebd0 0 fmt::v11::detail::write_exponent<char, fmt::v11::basic_appender<char> >(int, fmt::v11::basic_appender<char>)
PUBLIC 4eda0 0 _ZN3fmt3v116detail17write_significandIcjTnNSt6__ndk19enable_ifIXsr3std11is_integralIT0_EE5valueEiE4typeELi0EEEPT_S9_S5_iiS8_
PUBLIC 4ef1c 0 fmt::v11::detail::digit_grouping<char>::apply<fmt::v11::basic_appender<char>, char>(fmt::v11::basic_appender<char>, fmt::v11::basic_string_view<char>) const
PUBLIC 4f2d4 0 fmt::v11::basic_memory_buffer<int, (unsigned long)500, std::__ndk1::allocator<int> >::grow(fmt::v11::detail::buffer<int>&, unsigned long)
PUBLIC 4f374 0 fmt::v11::detail::do_write_float<char, fmt::v11::basic_appender<char>, fmt::v11::detail::dragonbox::decimal_fp<double>, fmt::v11::detail::digit_grouping<char> >(fmt::v11::basic_appender<char>, fmt::v11::detail::dragonbox::decimal_fp<double> const&, fmt::v11::format_specs const&, fmt::v11::detail::float_specs, fmt::v11::detail::locale_ref)
PUBLIC 50028 0 fmt::v11::detail::do_write_float<char, fmt::v11::basic_appender<char>, fmt::v11::detail::dragonbox::decimal_fp<double>, fmt::v11::detail::digit_grouping<char> >(fmt::v11::basic_appender<char>, fmt::v11::detail::dragonbox::decimal_fp<double> const&, fmt::v11::format_specs const&, fmt::v11::detail::float_specs, fmt::v11::detail::locale_ref)::{lambda(fmt::v11::basic_appender<char>(fmt::v11::basic_appender<char>))#1}::operator() const
PUBLIC 50180 0 _ZN3fmt3v116detail17write_significandIcmTnNSt6__ndk19enable_ifIXsr3std11is_integralIT0_EE5valueEiE4typeELi0EEEPT_S9_S5_iiS8_
PUBLIC 50310 0 fmt::v11::detail::write_float<char, fmt::v11::basic_appender<char>, long double>(fmt::v11::basic_appender<char>, long double, fmt::v11::format_specs, fmt::v11::detail::locale_ref)
PUBLIC 50e0c 0 fmt::v11::detail::write_padded<char, (fmt::v11::align::type)2, fmt::v11::basic_appender<char>, fmt::v11::detail::write_bytes<char, (fmt::v11::align::type)2, fmt::v11::basic_appender<char> >(fmt::v11::basic_appender<char>, fmt::v11::basic_string_view<char>, fmt::v11::format_specs const&)::{lambda(fmt::v11::basic_appender<char>&)#1}>(fmt::v11::basic_appender<char>, fmt::v11::format_specs const&, unsigned long, unsigned long, fmt::v11::detail::write_bytes<char, (fmt::v11::align::type)2, fmt::v11::basic_appender<char> >(fmt::v11::basic_appender<char>, fmt::v11::basic_string_view<char>, fmt::v11::format_specs const&)::{lambda(fmt::v11::basic_appender<char>&)#1})
PUBLIC 50fe8 0 fmt::v11::detail::format_dragon(fmt::v11::detail::basic_fp<unsigned __int128>, unsigned int, int, fmt::v11::detail::buffer<char>&, int&)
PUBLIC 52418 0 fmt::v11::detail::bigint::operator<<=(int)
PUBLIC 5253c 0 fmt::v11::detail::bigint::assign_pow10(int)
PUBLIC 52c98 0 fmt::v11::detail::bigint::divmod_assign(fmt::v11::detail::bigint const&)
PUBLIC 52fb8 0 fmt::v11::basic_memory_buffer<unsigned int, (unsigned long)32, std::__ndk1::allocator<unsigned int> >::grow(fmt::v11::detail::buffer<unsigned int>&, unsigned long)
PUBLIC 53058 0 fmt::v11::detail::do_write_float<char, fmt::v11::basic_appender<char>, fmt::v11::detail::big_decimal_fp, fmt::v11::detail::digit_grouping<char> >(fmt::v11::basic_appender<char>, fmt::v11::detail::big_decimal_fp const&, fmt::v11::format_specs const&, fmt::v11::detail::float_specs, fmt::v11::detail::locale_ref)
PUBLIC 53f08 0 fmt::v11::detail::do_write_float<char, fmt::v11::basic_appender<char>, fmt::v11::detail::big_decimal_fp, fmt::v11::detail::digit_grouping<char> >(fmt::v11::basic_appender<char>, fmt::v11::detail::big_decimal_fp const&, fmt::v11::format_specs const&, fmt::v11::detail::float_specs, fmt::v11::detail::locale_ref)::{lambda(fmt::v11::basic_appender<char>(fmt::v11::basic_appender<char>))#1}::operator() const
PUBLIC 54068 0 fmt::v11::detail::write_padded<char, (fmt::v11::align::type)2, fmt::v11::basic_appender<char>, fmt::v11::detail::write_ptr<char, fmt::v11::basic_appender<char>, unsigned long>(fmt::v11::basic_appender<char>, unsigned long, fmt::v11::format_specs const*)::{lambda(fmt::v11::basic_appender<char>&)#1}>(fmt::v11::basic_appender<char>, fmt::v11::format_specs const&, unsigned long, unsigned long, fmt::v11::detail::write_ptr<char, fmt::v11::basic_appender<char>, unsigned long>(fmt::v11::basic_appender<char>, unsigned long, fmt::v11::format_specs const*)::{lambda(fmt::v11::basic_appender<char>&)#1})
PUBLIC 5427c 0 fmt::v11::detail::parse_replacement_field<char, fmt::v11::detail::vformat_to<char>(fmt::v11::detail::buffer<char>&, fmt::v11::basic_string_view<char>, fmt::v11::detail::vformat_args<char>::type, fmt::v11::detail::locale_ref)::format_handler&>(char const*, char const*, fmt::v11::detail::vformat_to<char>(fmt::v11::detail::buffer<char>&, fmt::v11::basic_string_view<char>, fmt::v11::detail::vformat_args<char>::type, fmt::v11::detail::locale_ref)::format_handler&)
PUBLIC 55f18 0 fmt::v11::detail::parse_dynamic_spec<char>(char const*, char const*, int&, fmt::v11::detail::arg_ref<char>&, fmt::v11::basic_format_parse_context<char>&)
PUBLIC 561a8 0 fmt::v11::basic_format_args<fmt::v11::context>::get<char>(fmt::v11::basic_string_view<char>) const
PUBLIC 56300 0 fmt::v11::detail::write_int_noinline<char, fmt::v11::basic_appender<char>, unsigned long>(fmt::v11::basic_appender<char>, fmt::v11::detail::write_int_arg<unsigned long>, fmt::v11::format_specs const&, fmt::v11::detail::locale_ref)
PUBLIC 57154 0 fmt::v11::detail::write_int_noinline<char, fmt::v11::basic_appender<char>, unsigned __int128>(fmt::v11::basic_appender<char>, fmt::v11::detail::write_int_arg<unsigned __int128>, fmt::v11::format_specs const&, fmt::v11::detail::locale_ref)
PUBLIC 581bc 0 _ZN3fmt3v116detail15format_hexfloatIdTnNSt6__ndk19enable_ifIXntsr16is_double_doubleIT_EE5valueEiE4typeELi0EEEvS5_NS0_12format_specsERNS1_6bufferIcEE
PUBLIC 586dc 0 fmt::v11::detail::format_float<double>(double, int, fmt::v11::detail::float_specs, fmt::v11::detail::buffer<char>&)
PUBLIC 5907c 0 fmt::v11::detail::write<char, fmt::v11::basic_appender<char> >(fmt::v11::basic_appender<char>, fmt::v11::basic_string_view<char>, fmt::v11::format_specs const&)
PUBLIC 5a3e8 0 fmt::v11::detail::for_each_codepoint<fmt::v11::detail::compute_width(fmt::v11::basic_string_view<char>)::count_code_points>(fmt::v11::basic_string_view<char>, fmt::v11::detail::compute_width(fmt::v11::basic_string_view<char>)::count_code_points)::{lambda(char const*, char const*)#1}::operator()(char const*, char const*) const
PUBLIC 5a5a0 0 fmt::v11::detail::write_int<fmt::v11::basic_appender<char>, unsigned long, char>(fmt::v11::basic_appender<char>, unsigned long, unsigned int, fmt::v11::format_specs const&, fmt::v11::detail::digit_grouping<char> const&)
PUBLIC 5ab1c 0 fmt::v11::detail::write_int<fmt::v11::basic_appender<char>, unsigned __int128, char>(fmt::v11::basic_appender<char>, unsigned __int128, unsigned int, fmt::v11::format_specs const&, fmt::v11::detail::digit_grouping<char> const&)
PUBLIC 5b198 0 __CortexA53843419_35000
PUBLIC 5b1a0 0 __CortexA53843419_46004
PUBLIC 5b1b0 0 <.plt ELF section in alphalaneous.creative_mode.android64.so>
STACK CFI INIT 282f0 10 .cfa: sp 0 +
STACK CFI INIT 28300 8 .cfa: sp 0 +
STACK CFI INIT 28308 8 .cfa: sp 0 +
STACK CFI INIT 28310 14 .cfa: sp 0 +
STACK CFI INIT 28324 1c .cfa: sp 0 +
STACK CFI INIT 28340 10 .cfa: sp 0 +
STACK CFI INIT 28350 134 .cfa: sp 0 +
STACK CFI INIT 28484 84 .cfa: sp 0 +
STACK CFI INIT 28508 f4 .cfa: sp 0 +
STACK CFI INIT 285fc a8 .cfa: sp 0 +
STACK CFI INIT 286a4 7c .cfa: sp 0 +
STACK CFI INIT 28720 14 .cfa: sp 0 +
STACK CFI INIT 28734 40 .cfa: sp 0 +
STACK CFI INIT 28774 28 .cfa: sp 0 +
STACK CFI INIT 2879c 190 .cfa: sp 0 +
STACK CFI INIT 2892c 2c8 .cfa: sp 0 +
STACK CFI INIT 28bf4 8 .cfa: sp 0 +
STACK CFI INIT 28bfc 8 .cfa: sp 0 +
STACK CFI INIT 28c04 44 .cfa: sp 0 +
STACK CFI INIT 28c48 e8 .cfa: sp 0 +
STACK CFI INIT 28d30 e8 .cfa: sp 0 +
STACK CFI INIT 28e18 14 .cfa: sp 0 +
STACK CFI INIT 28e2c 10 .cfa: sp 0 +
STACK CFI INIT 28e3c 10 .cfa: sp 0 +
STACK CFI INIT 28e4c f0 .cfa: sp 0 +
STACK CFI INIT 28f3c 44 .cfa: sp 0 +
STACK CFI INIT 28f80 c .cfa: sp 0 +
STACK CFI INIT 28f8c c .cfa: sp 0 +
STACK CFI INIT 28f98 2c .cfa: sp 0 +
STACK CFI INIT 28fc4 280 .cfa: sp 0 +
STACK CFI INIT 29244 c .cfa: sp 0 +
STACK CFI INIT 29250 120 .cfa: sp 0 +
STACK CFI INIT 29370 488 .cfa: sp 0 +
STACK CFI INIT 297f8 c48 .cfa: sp 0 +
STACK CFI INIT 2a440 134 .cfa: sp 0 +
STACK CFI INIT 2a574 210 .cfa: sp 0 +
STACK CFI INIT 2a784 38c .cfa: sp 0 +
STACK CFI INIT 2ab10 1c8 .cfa: sp 0 +
STACK CFI INIT 2acd8 9bc .cfa: sp 0 +
STACK CFI INIT 2b694 2d4 .cfa: sp 0 +
STACK CFI INIT 2b968 134 .cfa: sp 0 +
STACK CFI INIT 2ba9c 120 .cfa: sp 0 +
STACK CFI INIT 2bbbc 1c8 .cfa: sp 0 +
STACK CFI INIT 2bd84 168 .cfa: sp 0 +
STACK CFI INIT 2beec fc .cfa: sp 0 +
STACK CFI INIT 2bfe8 30 .cfa: sp 0 +
STACK CFI INIT 2c144 8 .cfa: sp 0 +
STACK CFI INIT 2c14c 10 .cfa: sp 0 +
STACK CFI 2c150 .cfa: sp 16 +
STACK CFI 2c154 .cfa: x29 16 + .ra: .cfa -8 + ^ x29: .cfa -16 + ^
STACK CFI INIT 2c15c 14 .cfa: sp 0 +
STACK CFI 2c160 .cfa: sp 16 +
STACK CFI 2c164 .cfa: x29 16 + .ra: .cfa -8 + ^ x29: .cfa -16 + ^
STACK CFI INIT 2c1c0 30 .cfa: sp 0 +
STACK CFI 2c1c4 .cfa: sp 32 +
STACK CFI 2c1cc .cfa: x29 32 + x19: .cfa -16 + ^ .ra: .cfa -24 + ^ x29: .cfa -32 + ^
STACK CFI 2c1e4 .cfa: sp 32 +
STACK CFI 2c1ec .cfa: sp 0 +
STACK CFI INIT 2c1f0 34 .cfa: sp 0 +
STACK CFI 2c1f4 .cfa: sp 32 +
STACK CFI 2c1fc .cfa: x29 32 + x19: .cfa -16 + ^ .ra: .cfa -24 + ^ x29: .cfa -32 + ^
STACK CFI INIT 2c230 30 .cfa: sp 0 +
STACK CFI INIT 2c260 98 .cfa: sp 0 +
STACK CFI INIT 2c2f8 59c .cfa: sp 0 +
STACK CFI INIT 2c894 8c .cfa: sp 0 +
STACK CFI INIT 2c920 30 .cfa: sp 0 +
STACK CFI INIT 2c950 1cc .cfa: sp 0 +
STACK CFI 2c954 .cfa: sp 96 +
STACK CFI 2c96c .cfa: x29 96 + x19: .cfa -8 + ^ x20: .cfa -16 + ^ x21: .cfa -24 + ^ x22: .cfa -32 + ^ x23: .cfa -40 + ^ x24: .cfa -48 + ^ x25: .cfa -56 + ^ x26: .cfa -64 + ^ x27: .cfa -80 + ^ .ra: .cfa -88 + ^ x29: .cfa -96 + ^
STACK CFI 2caf4 .cfa: sp 96 +
STACK CFI 2cb0c .cfa: sp 0 +
STACK CFI 2cb10 .cfa: x29 96 +
STACK CFI INIT 2cb1c 404 .cfa: sp 0 +
STACK CFI 2cb20 .cfa: sp 224 +
STACK CFI 2cb48 .cfa: x29 88 + x19: .cfa -8 + ^ x20: .cfa -16 + ^ x21: .cfa -24 + ^ x22: .cfa -32 + ^ x23: .cfa -40 + ^ x24: .cfa -48 + ^ x25: .cfa -56 + ^ x26: .cfa -64 + ^ x27: .cfa -72 + ^ .ra: .cfa -80 + ^ x29: .cfa -88 + ^ v8: .cfa -96 + ^ v9: .cfa -104 + ^ v10: .cfa -112 + ^ v11: .cfa -120 + ^ v12: .cfa -128 + ^
STACK CFI 2cef0 .cfa: sp 224 +
STACK CFI 2cf18 .cfa: sp 0 +
STACK CFI 2cf1c .cfa: x29 88 +
STACK CFI INIT 2cf20 40 .cfa: sp 0 +
STACK CFI 2cf38 .cfa: sp 32 +
STACK CFI 2cf40 .cfa: x29 32 + x19: .cfa -16 + ^ .ra: .cfa -24 + ^ x29: .cfa -32 + ^
STACK CFI 2cf54 .cfa: sp 32 +
STACK CFI 2cf5c .cfa: sp 0 +
STACK CFI INIT 2cf60 44 .cfa: sp 0 +
STACK CFI 2cf64 .cfa: sp 32 +
STACK CFI 2cf6c .cfa: x29 32 + x19: .cfa -16 + ^ .ra: .cfa -24 + ^ x29: .cfa -32 + ^
STACK CFI 2cf98 .cfa: sp 32 +
STACK CFI 2cfa0 .cfa: sp 0 +
STACK CFI INIT 2cfa4 60 .cfa: sp 0 +
STACK CFI 2cfb4 .cfa: sp 32 +
STACK CFI 2cfbc .cfa: x29 32 + x19: .cfa -16 + ^ .ra: .cfa -24 + ^ x29: .cfa -32 + ^
STACK CFI 2cff4 .cfa: sp 32 +
STACK CFI 2cffc .cfa: sp 0 +
STACK CFI INIT 2d004 1c .cfa: sp 0 +
STACK CFI INIT 2d020 14 .cfa: sp 0 +
STACK CFI 2d024 .cfa: sp 16 +
STACK CFI 2d028 .cfa: x29 16 + .ra: .cfa -8 + ^ x29: .cfa -16 + ^
STACK CFI INIT 2d6c0 14 .cfa: sp 0 +
STACK CFI 2d6c4 .cfa: sp 16 +
STACK CFI 2d6c8 .cfa: x29 16 + .ra: .cfa -8 + ^ x29: .cfa -16 + ^
STACK CFI INIT 2d900 14 .cfa: sp 0 +
STACK CFI 2d904 .cfa: sp 16 +
STACK CFI 2d908 .cfa: x29 16 + .ra: .cfa -8 + ^ x29: .cfa -16 + ^
STACK CFI INIT 2d914 14 .cfa: sp 0 +
STACK CFI 2d918 .cfa: sp 16 +
STACK CFI 2d91c .cfa: x29 16 + .ra: .cfa -8 + ^ x29: .cfa -16 + ^
STACK CFI INIT 2d978 30 .cfa: sp 0 +
STACK CFI 2d97c .cfa: sp 32 +
STACK CFI 2d984 .cfa: x29 32 + x19: .cfa -16 + ^ .ra: .cfa -24 + ^ x29: .cfa -32 + ^
STACK CFI 2d99c .cfa: sp 32 +
STACK CFI 2d9a4 .cfa: sp 0 +
STACK CFI INIT 2d9a8 14 .cfa: sp 0 +
STACK CFI 2d9ac .cfa: sp 16 +
STACK CFI 2d9b0 .cfa: x29 16 + .ra: .cfa -8 + ^ x29: .cfa -16 + ^
STACK CFI INIT 2d9bc 4 .cfa: sp 0 +
STACK CFI INIT 2d9c0 4 .cfa: sp 0 +
STACK CFI INIT 2d9c4 38 .cfa: sp 0 +
STACK CFI 2d9c8 .cfa: sp 32 +
STACK CFI 2d9d0 .cfa: x29 32 + x19: .cfa -16 + ^ .ra: .cfa -24 + ^ x29: .cfa -32 + ^
STACK CFI 2d9f0 .cfa: sp 32 +
STACK CFI 2d9f8 .cfa: sp 0 +
STACK CFI INIT 2d9fc 18 .cfa: sp 0 +
STACK CFI INIT 2da14 4 .cfa: sp 0 +
STACK CFI INIT 2da18 4 .cfa: sp 0 +
STACK CFI INIT 2da1c 10 .cfa: sp 0 +
STACK CFI INIT 2da2c 1c .cfa: sp 0 +
STACK CFI INIT 2da48 c .cfa: sp 0 +
STACK CFI INIT 2e2e8 50 .cfa: sp 0 +
STACK CFI 2e2ec .cfa: sp 32 +
STACK CFI 2e2f4 .cfa: x29 32 + x19: .cfa -16 + ^ .ra: .cfa -24 + ^ x29: .cfa -32 + ^
STACK CFI 2e30c .cfa: sp 32 +
STACK CFI 2e314 .cfa: sp 0 +
STACK CFI 2e318 .cfa: x29 32 +
STACK CFI 2e32c .cfa: sp 32 +
STACK CFI 2e334 .cfa: sp 0 +
STACK CFI INIT 2e3ac 7c .cfa: sp 0 +
STACK CFI 2e3b0 .cfa: sp 48 +
STACK CFI 2e3bc .cfa: x29 48 + x19: .cfa -8 + ^ x20: .cfa -16 + ^ x21: .cfa -32 + ^ .ra: .cfa -40 + ^ x29: .cfa -48 + ^
STACK CFI 2e408 .cfa: sp 48 +
STACK CFI 2e414 .cfa: sp 0 +
STACK CFI 2e418 .cfa: sp 48 +
STACK CFI 2e424 .cfa: sp 0 +
STACK CFI INIT 2e428 4 .cfa: sp 0 +
STACK CFI INIT 2e580 34 .cfa: sp 0 +
STACK CFI 2e584 .cfa: sp 16 +
STACK CFI 2e588 .cfa: x29 16 + .ra: .cfa -8 + ^ x29: .cfa -16 + ^
STACK CFI INIT 2e6e0 80 .cfa: sp 0 +
STACK CFI 2e6e4 .cfa: sp 48 +
STACK CFI 2e6f0 .cfa: x29 48 + x19: .cfa -8 + ^ x20: .cfa -16 + ^ x21: .cfa -32 + ^ .ra: .cfa -40 + ^ x29: .cfa -48 + ^
STACK CFI 2e750 .cfa: sp 48 +
STACK CFI 2e75c .cfa: sp 0 +
STACK CFI INIT 2e760 24 .cfa: sp 0 +
STACK CFI 2e764 .cfa: sp 32 +
STACK CFI 2e76c .cfa: x29 32 + x19: .cfa -16 + ^ .ra: .cfa -24 + ^ x29: .cfa -32 + ^
STACK CFI 2e778 .cfa: sp 32 +
STACK CFI 2e780 .cfa: sp 0 +
STACK CFI INIT 2eb04 14 .cfa: sp 0 +
STACK CFI 2eb08 .cfa: sp 16 +
STACK CFI 2eb0c .cfa: x29 16 + .ra: .cfa -8 + ^ x29: .cfa -16 + ^
STACK CFI INIT 2ec90 148 .cfa: sp 0 +
STACK CFI 2ec94 .cfa: sp 48 +
STACK CFI 2eca0 .cfa: x29 48 + x19: .cfa -8 + ^ x20: .cfa -16 + ^ x21: .cfa -32 + ^ .ra: .cfa -40 + ^ x29: .cfa -48 + ^
STACK CFI 2edc8 .cfa: sp 48 +
STACK CFI 2edd4 .cfa: sp 0 +
STACK CFI INIT 2f000 80 .cfa: sp 0 +
STACK CFI 2f004 .cfa: sp 48 +
STACK CFI 2f010 .cfa: x29 48 + x19: .cfa -8 + ^ x20: .cfa -16 + ^ x21: .cfa -24 + ^ x22: .cfa -32 + ^ .ra: .cfa -40 + ^ x29: .cfa -48 + ^
STACK CFI 2f028 .cfa: sp 48 +
STACK CFI 2f034 .cfa: sp 0 +
STACK CFI 2f038 .cfa: x29 48 +
STACK CFI 2f068 .cfa: sp 48 +
STACK CFI 2f074 .cfa: sp 0 +
STACK CFI 2f078 .cfa: x29 48 +
STACK CFI INIT 2f080 68 .cfa: sp 0 +
STACK CFI 2f084 .cfa: sp 32 +
STACK CFI 2f08c .cfa: x29 32 + x19: .cfa -8 + ^ x20: .cfa -16 + ^ .ra: .cfa -24 + ^ x29: .cfa -32 + ^
STACK CFI 2f0a4 .cfa: sp 32 +
STACK CFI 2f0ac .cfa: sp 0 +
STACK CFI 2f0b0 .cfa: x29 32 +
STACK CFI 2f0dc .cfa: sp 32 +
STACK CFI 2f0e4 .cfa: sp 0 +
STACK CFI INIT 2f0e8 14 .cfa: sp 0 +
STACK CFI 2f0ec .cfa: sp 16 +
STACK CFI 2f0f0 .cfa: x29 16 + .ra: .cfa -8 + ^ x29: .cfa -16 + ^
STACK CFI INIT 2f0fc 4 .cfa: sp 0 +
STACK CFI INIT 2f100 14 .cfa: sp 0 +
STACK CFI INIT 2f114 120 .cfa: sp 0 +
STACK CFI 2f118 .cfa: sp 64 +
STACK CFI 2f128 .cfa: x29 64 + x19: .cfa -8 + ^ x20: .cfa -16 + ^ x21: .cfa -24 + ^ x22: .cfa -32 + ^ x23: .cfa -40 + ^ x24: .cfa -48 + ^ .ra: .cfa -56 + ^ x29: .cfa -64 + ^
STACK CFI 2f220 .cfa: sp 64 +
STACK CFI 2f230 .cfa: sp 0 +
STACK CFI INIT 2f234 d4 .cfa: sp 0 +
STACK CFI 2f238 .cfa: sp 48 +
STACK CFI 2f244 .cfa: x29 48 + x19: .cfa -8 + ^ x20: .cfa -16 + ^ x21: .cfa -32 + ^ .ra: .cfa -40 + ^ x29: .cfa -48 + ^
STACK CFI 2f2d4 .cfa: sp 48 +
STACK CFI 2f2e0 .cfa: sp 0 +
STACK CFI 2f2e4 .cfa: x29 48 +
STACK CFI INIT 2f308 3c8 .cfa: sp 0 +
STACK CFI INIT 2f6d0 8c .cfa: sp 0 +
STACK CFI 2f6d8 .cfa: sp 32 +
STACK CFI 2f6e0 .cfa: x29 32 + x19: .cfa -8 + ^ x20: .cfa -16 + ^ .ra: .cfa -24 + ^ x29: .cfa -32 + ^
STACK CFI 2f728 .cfa: sp 32 +
STACK CFI 2f730 .cfa: sp 0 +
STACK CFI 2f738 .cfa: x29 32 +
STACK CFI INIT 2f890 4 .cfa: sp 0 +
STACK CFI INIT 2f894 4 .cfa: sp 0 +
STACK CFI INIT 2fa64 50 .cfa: sp 0 +
STACK CFI 2fa68 .cfa: sp 32 +
STACK CFI 2fa70 .cfa: x29 32 + x19: .cfa -16 + ^ .ra: .cfa -24 + ^ x29: .cfa -32 + ^
STACK CFI 2fa88 .cfa: sp 32 +
STACK CFI 2fa90 .cfa: sp 0 +
STACK CFI 2fa94 .cfa: x29 32 +
STACK CFI 2faa8 .cfa: sp 32 +
STACK CFI 2fab0 .cfa: sp 0 +
STACK CFI INIT 2fab4 64 .cfa: sp 0 +
STACK CFI 2fab8 .cfa: sp 32 +
STACK CFI 2fac0 .cfa: x29 32 + x19: .cfa -16 + ^ .ra: .cfa -24 + ^ x29: .cfa -32 + ^
STACK CFI 2faec .cfa: sp 32 +
STACK CFI 2faf4 .cfa: sp 0 +
STACK CFI 2faf8 .cfa: x29 32 +
STACK CFI 2fb0c .cfa: sp 32 +
STACK CFI 2fb14 .cfa: sp 0 +
STACK CFI INIT 2fb18 d8 .cfa: sp 0 +
STACK CFI 2fb1c .cfa: sp 96 +
STACK CFI 2fb30 .cfa: x29 40 + x19: .cfa -8 + ^ x20: .cfa -16 + ^ x21: .cfa -24 + ^ .ra: .cfa -32 + ^ x29: .cfa -40 + ^ v8: .cfa -48 + ^
STACK CFI 2fbd4 .cfa: sp 96 +
STACK CFI 2fbe8 .cfa: sp 0 +
STACK CFI 2fbec .cfa: x29 40 +
STACK CFI INIT 2fbf0 178 .cfa: sp 0 +
STACK CFI 2fbf4 .cfa: sp 80 +
STACK CFI 2fc08 .cfa: x29 80 + x19: .cfa -8 + ^ x20: .cfa -16 + ^ x21: .cfa -24 + ^ x22: .cfa -32 + ^ x23: .cfa -40 + ^ x24: .cfa -48 + ^ x25: .cfa -56 + ^ x26: .cfa -64 + ^ .ra: .cfa -72 + ^ x29: .cfa -80 + ^
STACK CFI 2fd50 .cfa: sp 80 +
STACK CFI 2fd64 .cfa: sp 0 +
STACK CFI INIT 2fd68 1b0 .cfa: sp 0 +
STACK CFI INIT 2ff18 cc .cfa: sp 0 +
STACK CFI 2ff1c .cfa: sp 96 +
STACK CFI 2ff30 .cfa: x29 40 + x19: .cfa -8 + ^ x20: .cfa -16 + ^ x21: .cfa -24 + ^ .ra: .cfa -32 + ^ x29: .cfa -40 + ^ v8: .cfa -48 + ^
STACK CFI 2ffc8 .cfa: sp 96 +
STACK CFI 2ffdc .cfa: sp 0 +
STACK CFI 2ffe0 .cfa: x29 40 +
STACK CFI INIT 2ffe4 104 .cfa: sp 0 +
STACK CFI 2ffe8 .cfa: sp 64 +
STACK CFI 2fff8 .cfa: x29 64 + x19: .cfa -8 + ^ x20: .cfa -16 + ^ x21: .cfa -24 + ^ x22: .cfa -32 + ^ x23: .cfa -48 + ^ .ra: .cfa -56 + ^ x29: .cfa -64 + ^
STACK CFI 30054 .cfa: sp 64 +
STACK CFI 30064 .cfa: sp 0 +
STACK CFI 30068 .cfa: x29 64 +
STACK CFI 30084 .cfa: sp 64 +
STACK CFI 30094 .cfa: sp 0 +
STACK CFI 30098 .cfa: x29 64 +
STACK CFI 300d4 .cfa: sp 64 +
STACK CFI 300e4 .cfa: sp 0 +
STACK CFI INIT 300e8 130 .cfa: sp 0 +
STACK CFI 300ec .cfa: sp 128 +
STACK CFI 30104 .cfa: x29 64 + x19: .cfa -8 + ^ x20: .cfa -16 + ^ x21: .cfa -24 + ^ x22: .cfa -32 + ^ x23: .cfa -48 + ^ .ra: .cfa -56 + ^ x29: .cfa -64 + ^ v8: .cfa -72 + ^ v9: .cfa -80 + ^
STACK CFI 301d8 .cfa: sp 128 +
STACK CFI 301f0 .cfa: sp 0 +
STACK CFI 301f4 .cfa: x29 64 +
STACK CFI INIT 30218 8 .cfa: sp 0 +
STACK CFI INIT 30220 24 .cfa: sp 0 +
STACK CFI 30224 .cfa: sp 32 +
STACK CFI 3022c .cfa: x29 32 + x19: .cfa -16 + ^ .ra: .cfa -24 + ^ x29: .cfa -32 + ^
STACK CFI 30238 .cfa: sp 32 +
STACK CFI 30240 .cfa: sp 0 +
STACK CFI INIT 30244 4 .cfa: sp 0 +
STACK CFI INIT 30248 8 .cfa: sp 0 +
STACK CFI INIT 30250 8 .cfa: sp 0 +
STACK CFI INIT 30258 8 .cfa: sp 0 +
STACK CFI INIT 30260 8 .cfa: sp 0 +
STACK CFI INIT 30268 28 .cfa: sp 0 +
STACK CFI 3026c .cfa: sp 32 +
STACK CFI 30274 .cfa: x29 32 + x19: .cfa -16 + ^ .ra: .cfa -24 + ^ x29: .cfa -32 + ^
STACK CFI 30284 .cfa: sp 32 +
STACK CFI 3028c .cfa: sp 0 +
STACK CFI INIT 30290 4 .cfa: sp 0 +
STACK CFI INIT 30294 4 .cfa: sp 0 +
STACK CFI INIT 30298 4 .cfa: sp 0 +
STACK CFI INIT 3029c 4 .cfa: sp 0 +
STACK CFI INIT 302a0 4 .cfa: sp 0 +
STACK CFI INIT 302a4 8 .cfa: sp 0 +
STACK CFI INIT 304e0 f8 .cfa: sp 0 +
STACK CFI 304e4 .cfa: sp 64 +
STACK CFI 304f4 .cfa: x29 48 + x19: .cfa -8 + ^ x20: .cfa -16 + ^ x21: .cfa -32 + ^ .ra: .cfa -40 + ^ x29: .cfa -48 + ^ v8: .cfa -56 + ^ v9: .cfa -64 + ^
STACK CFI 305c4 .cfa: sp 64 +
STACK CFI 305d4 .cfa: sp 0 +
STACK CFI INIT 305d8 11c .cfa: sp 0 +
STACK CFI 305dc .cfa: sp 96 +
STACK CFI 305f4 .cfa: x29 56 + x19: .cfa -8 + ^ x20: .cfa -16 + ^ x21: .cfa -24 + ^ x22: .cfa -32 + ^ x23: .cfa -40 + ^ .ra: .cfa -48 + ^ x29: .cfa -56 + ^ v8: .cfa -64 + ^
STACK CFI 306c0 .cfa: sp 96 +
STACK CFI 306d8 .cfa: sp 0 +
STACK CFI 306dc .cfa: x29 56 +
STACK CFI INIT 306f4 8 .cfa: sp 0 +
STACK CFI INIT 306fc d4 .cfa: sp 0 +
STACK CFI 30700 .cfa: sp 80 +
STACK CFI 30714 .cfa: x29 64 + x19: .cfa -8 + ^ x20: .cfa -16 + ^ x21: .cfa -24 + ^ x22: .cfa -32 + ^ x23: .cfa -48 + ^ .ra: .cfa -56 + ^ x29: .cfa -64 + ^
STACK CFI 307a0 .cfa: sp 80 +
STACK CFI 307b4 .cfa: sp 0 +
STACK CFI 307b8 .cfa: x29 64 +
STACK CFI INIT 307d0 d4 .cfa: sp 0 +
STACK CFI 307d4 .cfa: sp 80 +
STACK CFI 307e8 .cfa: x29 64 + x19: .cfa -8 + ^ x20: .cfa -16 + ^ x21: .cfa -24 + ^ x22: .cfa -32 + ^ x23: .cfa -48 + ^ .ra: .cfa -56 + ^ x29: .cfa -64 + ^
STACK CFI 30874 .cfa: sp 80 +
STACK CFI 30888 .cfa: sp 0 +
STACK CFI 3088c .cfa: x29 64 +
STACK CFI INIT 30dc8 24 .cfa: sp 0 +
STACK CFI 30dcc .cfa: sp 32 +
STACK CFI 30dd4 .cfa: x29 32 + x19: .cfa -16 + ^ .ra: .cfa -24 + ^ x29: .cfa -32 + ^
STACK CFI 30de0 .cfa: sp 32 +
STACK CFI 30de8 .cfa: sp 0 +
STACK CFI INIT 30dec 8 .cfa: sp 0 +
STACK CFI INIT 30df4 28 .cfa: sp 0 +
STACK CFI 30df8 .cfa: sp 32 +
STACK CFI 30e00 .cfa: x29 32 + x19: .cfa -16 + ^ .ra: .cfa -24 + ^ x29: .cfa -32 + ^
STACK CFI 30e10 .cfa: sp 32 +
STACK CFI 30e18 .cfa: sp 0 +
STACK CFI INIT 30fe8 14 .cfa: sp 0 +
STACK CFI 30fec .cfa: sp 16 +
STACK CFI 30ff0 .cfa: x29 16 + .ra: .cfa -8 + ^ x29: .cfa -16 + ^
STACK CFI INIT 3125c 34 .cfa: sp 0 +
STACK CFI 31260 .cfa: sp 16 +
STACK CFI 31264 .cfa: x29 16 + .ra: .cfa -8 + ^ x29: .cfa -16 + ^
STACK CFI INIT 31290 24 .cfa: sp 0 +
STACK CFI 31294 .cfa: sp 32 +
STACK CFI 3129c .cfa: x29 32 + x19: .cfa -16 + ^ .ra: .cfa -24 + ^ x29: .cfa -32 + ^
STACK CFI 312a8 .cfa: sp 32 +
STACK CFI 312b0 .cfa: sp 0 +
STACK CFI INIT 31760 60 .cfa: sp 0 +
STACK CFI 31770 .cfa: sp 32 +
STACK CFI 31778 .cfa: x29 32 + x19: .cfa -16 + ^ .ra: .cfa -24 + ^ x29: .cfa -32 + ^
STACK CFI 317b0 .cfa: sp 32 +
STACK CFI 317b8 .cfa: sp 0 +
STACK CFI INIT 317c0 1c .cfa: sp 0 +
STACK CFI INIT 317dc 60 .cfa: sp 0 +
STACK CFI 317ec .cfa: sp 32 +
STACK CFI 317f4 .cfa: x29 32 + x19: .cfa -16 + ^ .ra: .cfa -24 + ^ x29: .cfa -32 + ^
STACK CFI 3182c .cfa: sp 32 +
STACK CFI 31834 .cfa: sp 0 +
STACK CFI INIT 3183c 1c .cfa: sp 0 +
STACK CFI INIT 31858 18 .cfa: sp 0 +
STACK CFI INIT 31870 14 .cfa: sp 0 +
STACK CFI 31874 .cfa: sp 16 +
STACK CFI 31878 .cfa: x29 16 + .ra: .cfa -8 + ^ x29: .cfa -16 + ^
STACK CFI INIT 31884 14 .cfa: sp 0 +
STACK CFI 31888 .cfa: sp 16 +
STACK CFI 3188c .cfa: x29 16 + .ra: .cfa -8 + ^ x29: .cfa -16 + ^
STACK CFI INIT 31898 7c .cfa: sp 0 +
STACK CFI 3189c .cfa: sp 32 +
STACK CFI 318a4 .cfa: x29 32 + x19: .cfa -8 + ^ x20: .cfa -16 + ^ .ra: .cfa -24 + ^ x29: .cfa -32 + ^
STACK CFI 318fc .cfa: sp 32 +
STACK CFI 31904 .cfa: sp 0 +
STACK CFI 31908 .cfa: sp 32 +
STACK CFI 31910 .cfa: sp 0 +
STACK CFI INIT 32000 4 .cfa: sp 0 +
STACK CFI INIT 32aa0 4 .cfa: sp 0 +
STACK CFI INIT 32aa4 38 .cfa: sp 0 +
STACK CFI 32aa8 .cfa: sp 32 +
STACK CFI 32ab0 .cfa: x29 32 + x19: .cfa -16 + ^ .ra: .cfa -24 + ^ x29: .cfa -32 + ^
STACK CFI 32ad0 .cfa: sp 32 +
STACK CFI 32ad8 .cfa: sp 0 +
STACK CFI INIT 32adc 18 .cfa: sp 0 +
STACK CFI INIT 32af4 4 .cfa: sp 0 +
STACK CFI INIT 32af8 4 .cfa: sp 0 +
STACK CFI INIT 32afc c .cfa: sp 0 +
STACK CFI INIT 32b08 1c .cfa: sp 0 +
STACK CFI INIT 32b24 c .cfa: sp 0 +
STACK CFI INIT 32b30 4 .cfa: sp 0 +
STACK CFI INIT 32ca8 5c .cfa: sp 0 +
STACK CFI 32cac .cfa: sp 32 +
STACK CFI 32cb4 .cfa: x29 32 + x19: .cfa -16 + ^ .ra: .cfa -24 + ^ x29: .cfa -32 + ^
STACK CFI 32cf8 .cfa: sp 32 +
STACK CFI 32d00 .cfa: sp 0 +
STACK CFI INIT 32d04 64 .cfa: sp 0 +
STACK CFI 32d08 .cfa: sp 32 +
STACK CFI 32d10 .cfa: x29 32 + x19: .cfa -16 + ^ .ra: .cfa -24 + ^ x29: .cfa -32 + ^
STACK CFI 32d5c .cfa: sp 32 +
STACK CFI 32d64 .cfa: sp 0 +
STACK CFI INIT 32d68 4 .cfa: sp 0 +
STACK CFI INIT 32d6c 14 .cfa: sp 0 +
STACK CFI INIT 32e98 4 .cfa: sp 0 +
STACK CFI INIT 34534 4 .cfa: sp 0 +
STACK CFI INIT 34c78 4 .cfa: sp 0 +
STACK CFI INIT 34c7c 4 .cfa: sp 0 +
STACK CFI INIT 34c80 38 .cfa: sp 0 +
STACK CFI 34c84 .cfa: sp 32 +
STACK CFI 34c8c .cfa: x29 32 + x19: .cfa -16 + ^ .ra: .cfa -24 + ^ x29: .cfa -32 + ^
STACK CFI 34cac .cfa: sp 32 +
STACK CFI 34cb4 .cfa: sp 0 +
STACK CFI INIT 34cb8 18 .cfa: sp 0 +
STACK CFI INIT 34cd0 4 .cfa: sp 0 +
STACK CFI INIT 34cd4 4 .cfa: sp 0 +
STACK CFI INIT 34cd8 c .cfa: sp 0 +
STACK CFI INIT 34ce4 1c .cfa: sp 0 +
STACK CFI INIT 34d00 c .cfa: sp 0 +
STACK CFI INIT 34e24 4 .cfa: sp 0 +
STACK CFI INIT 34fac 4 .cfa: sp 0 +
STACK CFI INIT 35134 4 .cfa: sp 0 +
STACK CFI INIT 352bc 4 .cfa: sp 0 +
STACK CFI INIT 35444 4 .cfa: sp 0 +
STACK CFI INIT 35448 4 .cfa: sp 0 +
STACK CFI INIT 3544c 4 .cfa: sp 0 +
STACK CFI INIT 369d0 1f8 .cfa: sp 0 +
STACK CFI 369d4 .cfa: sp 80 +
STACK CFI 369e4 .cfa: x29 48 + x19: .cfa -8 + ^ x20: .cfa -16 + ^ x21: .cfa -24 + ^ x22: .cfa -32 + ^ .ra: .cfa -40 + ^ x29: .cfa -48 + ^
STACK CFI 36b94 .cfa: sp 80 +
STACK CFI 36ba4 .cfa: sp 0 +
STACK CFI 36ba8 .cfa: x29 48 +
STACK CFI INIT 379b8 50 .cfa: sp 0 +
STACK CFI 379bc .cfa: sp 32 +
STACK CFI 379c4 .cfa: x29 32 + x19: .cfa -8 + ^ x20: .cfa -16 + ^ .ra: .cfa -24 + ^ x29: .cfa -32 + ^
STACK CFI 379fc .cfa: sp 32 +
STACK CFI 37a04 .cfa: sp 0 +
STACK CFI INIT 37a08 70 .cfa: sp 0 +
STACK CFI 37a0c .cfa: sp 48 +
STACK CFI 37a18 .cfa: x29 48 + x19: .cfa -8 + ^ x20: .cfa -16 + ^ x21: .cfa -32 + ^ .ra: .cfa -40 + ^ x29: .cfa -48 + ^
STACK CFI 37a30 .cfa: sp 48 +
STACK CFI 37a3c .cfa: sp 0 +
STACK CFI 37a40 .cfa: x29 48 +
STACK CFI 37a68 .cfa: sp 48 +
STACK CFI 37a74 .cfa: sp 0 +
STACK CFI INIT 37a78 e8 .cfa: sp 0 +
STACK CFI 37a7c .cfa: sp 32 +
STACK CFI 37a84 .cfa: x29 32 + x19: .cfa -8 + ^ x20: .cfa -16 + ^ .ra: .cfa -24 + ^ x29: .cfa -32 + ^
STACK CFI 37ac4 .cfa: sp 32 +
STACK CFI 37acc .cfa: sp 0 +
STACK CFI 37ad0 .cfa: x29 32 +
STACK CFI 37b0c .cfa: sp 32 +
STACK CFI 37b14 .cfa: sp 0 +
STACK CFI 37b18 .cfa: x29 32 +
STACK CFI 37b38 .cfa: sp 32 +
STACK CFI 37b40 .cfa: sp 0 +
STACK CFI 37b44 .cfa: x29 32 +
STACK CFI 37b54 .cfa: sp 32 +
STACK CFI 37b5c .cfa: sp 0 +
STACK CFI INIT 384a8 50 .cfa: sp 0 +
STACK CFI 384cc .cfa: sp 32 +
STACK CFI 384d4 .cfa: x29 32 + x19: .cfa -16 + ^ .ra: .cfa -24 + ^ x29: .cfa -32 + ^
STACK CFI 384e8 .cfa: sp 32 +
STACK CFI 384f0 .cfa: sp 0 +
STACK CFI INIT 384f8 1ac .cfa: sp 0 +
STACK CFI 384fc .cfa: sp 32 +
STACK CFI 38504 .cfa: x29 32 + x19: .cfa -8 + ^ x20: .cfa -16 + ^ .ra: .cfa -24 + ^ x29: .cfa -32 + ^
STACK CFI 385f4 .cfa: sp 32 +
STACK CFI 385fc .cfa: sp 0 +
STACK CFI 38600 .cfa: x29 32 +
STACK CFI INIT 386a4 ac .cfa: sp 0 +
STACK CFI 386a8 .cfa: sp 64 +
STACK CFI 386b8 .cfa: x29 64 + x19: .cfa -8 + ^ x20: .cfa -16 + ^ x21: .cfa -24 + ^ x22: .cfa -32 + ^ x23: .cfa -48 + ^ .ra: .cfa -56 + ^ x29: .cfa -64 + ^
STACK CFI 38734 .cfa: sp 64 +
STACK CFI 38744 .cfa: sp 0 +
STACK CFI 38748 .cfa: x29 64 +
STACK CFI INIT 38750 110 .cfa: sp 0 +
STACK CFI 38754 .cfa: sp 64 +
STACK CFI 38764 .cfa: x29 64 + x19: .cfa -8 + ^ x20: .cfa -16 + ^ x21: .cfa -24 + ^ x22: .cfa -32 + ^ x23: .cfa -40 + ^ x24: .cfa -48 + ^ .ra: .cfa -56 + ^ x29: .cfa -64 + ^
STACK CFI 38844 .cfa: sp 64 +
STACK CFI 38854 .cfa: sp 0 +
STACK CFI 38858 .cfa: x29 64 +
STACK CFI INIT 38860 4 .cfa: sp 0 +
STACK CFI INIT 38864 14 .cfa: sp 0 +
STACK CFI INIT 38ba4 4 .cfa: sp 0 +
STACK CFI INIT 38ba8 38 .cfa: sp 0 +
STACK CFI 38bac .cfa: sp 32 +
STACK CFI 38bb4 .cfa: x29 32 + x19: .cfa -16 + ^ .ra: .cfa -24 + ^ x29: .cfa -32 + ^
STACK CFI 38bd4 .cfa: sp 32 +
STACK CFI 38bdc .cfa: sp 0 +
STACK CFI INIT 38be0 18 .cfa: sp 0 +
STACK CFI INIT 38bf8 4 .cfa: sp 0 +
STACK CFI INIT 38bfc 4 .cfa: sp 0 +
STACK CFI INIT 38c00 48 .cfa: sp 0 +
STACK CFI 38c04 .cfa: sp 32 +
STACK CFI 38c0c .cfa: x29 32 + x19: .cfa -16 + ^ .ra: .cfa -24 + ^ x29: .cfa -32 + ^
STACK CFI 38c3c .cfa: sp 32 +
STACK CFI 38c44 .cfa: sp 0 +
STACK CFI INIT 38c48 1c .cfa: sp 0 +
STACK CFI INIT 38c64 c .cfa: sp 0 +
STACK CFI INIT 38c70 4 .cfa: sp 0 +
STACK CFI INIT 38c74 4 .cfa: sp 0 +
STACK CFI INIT 38c78 40 .cfa: sp 0 +
STACK CFI 38c7c .cfa: sp 32 +
STACK CFI 38c84 .cfa: x29 32 + x19: .cfa -16 + ^ .ra: .cfa -24 + ^ x29: .cfa -32 + ^
STACK CFI 38cac .cfa: sp 32 +
STACK CFI 38cb4 .cfa: sp 0 +
STACK CFI INIT 38cb8 20 .cfa: sp 0 +
STACK CFI INIT 38cd8 4 .cfa: sp 0 +
STACK CFI INIT 38cdc 4 .cfa: sp 0 +
STACK CFI INIT 38ce0 74 .cfa: sp 0 +
STACK CFI 38ce4 .cfa: sp 48 +
STACK CFI 38cf0 .cfa: x29 32 + x19: .cfa -16 + ^ .ra: .cfa -24 + ^ x29: .cfa -32 + ^
STACK CFI 38d40 .cfa: sp 48 +
STACK CFI 38d4c .cfa: sp 0 +
STACK CFI 38d50 .cfa: x29 32 +
STACK CFI INIT 38d54 1c .cfa: sp 0 +
STACK CFI INIT 38d70 c .cfa: sp 0 +
STACK CFI INIT 38d7c 4 .cfa: sp 0 +
STACK CFI INIT 38d80 38 .cfa: sp 0 +
STACK CFI 38d84 .cfa: sp 32 +
STACK CFI 38d8c .cfa: x29 32 + x19: .cfa -16 + ^ .ra: .cfa -24 + ^ x29: .cfa -32 + ^
STACK CFI 38dac .cfa: sp 32 +
STACK CFI 38db4 .cfa: sp 0 +
STACK CFI INIT 38db8 18 .cfa: sp 0 +
STACK CFI INIT 38dd0 4 .cfa: sp 0 +
STACK CFI INIT 38dd4 4 .cfa: sp 0 +
STACK CFI INIT 38dd8 2c .cfa: sp 0 +
STACK CFI 38ddc .cfa: sp 32 +
STACK CFI 38de4 .cfa: x29 32 + x19: .cfa -16 + ^ .ra: .cfa -24 + ^ x29: .cfa -32 + ^
STACK CFI 38df8 .cfa: sp 32 +
STACK CFI 38e00 .cfa: sp 0 +
STACK CFI INIT 38e04 1c .cfa: sp 0 +
STACK CFI INIT 38e20 c .cfa: sp 0 +
STACK CFI INIT 39018 24 .cfa: sp 0 +
STACK CFI 3901c .cfa: sp 32 +
STACK CFI 39024 .cfa: x29 32 + x19: .cfa -16 + ^ .ra: .cfa -24 + ^ x29: .cfa -32 + ^
STACK CFI 39030 .cfa: sp 32 +
STACK CFI 39038 .cfa: sp 0 +
STACK CFI INIT 3903c 4 .cfa: sp 0 +
STACK CFI INIT 39040 4 .cfa: sp 0 +
STACK CFI INIT 39044 4 .cfa: sp 0 +
STACK CFI INIT 39048 40 .cfa: sp 0 +
STACK CFI 3904c .cfa: sp 32 +
STACK CFI 39054 .cfa: x29 32 + x19: .cfa -16 + ^ .ra: .cfa -24 + ^ x29: .cfa -32 + ^
STACK CFI 3907c .cfa: sp 32 +
STACK CFI 39084 .cfa: sp 0 +
STACK CFI INIT 39088 20 .cfa: sp 0 +
STACK CFI INIT 390a8 4 .cfa: sp 0 +
STACK CFI INIT 390ac 4 .cfa: sp 0 +
STACK CFI INIT 390b0 7c .cfa: sp 0 +
STACK CFI 390b4 .cfa: sp 32 +
STACK CFI 390bc .cfa: x29 32 + x19: .cfa -16 + ^ .ra: .cfa -24 + ^ x29: .cfa -32 + ^
STACK CFI 39120 .cfa: sp 32 +
STACK CFI 39128 .cfa: sp 0 +
STACK CFI INIT 3912c 1c .cfa: sp 0 +
STACK CFI INIT 39148 c .cfa: sp 0 +
STACK CFI INIT 3a724 3c .cfa: sp 0 +
STACK CFI 3a728 .cfa: sp 32 +
STACK CFI 3a730 .cfa: x29 32 + x19: .cfa -8 + ^ x20: .cfa -16 + ^ .ra: .cfa -24 + ^ x29: .cfa -32 + ^
STACK CFI 3a754 .cfa: sp 32 +
STACK CFI 3a75c .cfa: sp 0 +
STACK CFI INIT 3a760 90 .cfa: sp 0 +
STACK CFI 3a764 .cfa: sp 48 +
STACK CFI 3a770 .cfa: x29 48 + x19: .cfa -8 + ^ x20: .cfa -16 + ^ x21: .cfa -32 + ^ .ra: .cfa -40 + ^ x29: .cfa -48 + ^
STACK CFI 3a7b0 .cfa: sp 48 +
STACK CFI 3a7bc .cfa: sp 0 +
STACK CFI 3a7c0 .cfa: x29 48 +
STACK CFI 3a7e0 .cfa: sp 48 +
STACK CFI 3a7ec .cfa: sp 0 +
STACK CFI INIT 3aa3c 10c .cfa: sp 0 +
STACK CFI 3aa40 .cfa: sp 64 +
STACK CFI 3aa50 .cfa: x29 32 + x19: .cfa -8 + ^ x20: .cfa -16 + ^ .ra: .cfa -24 + ^ x29: .cfa -32 + ^ v8: .cfa -40 + ^ v9: .cfa -48 + ^ v10: .cfa -64 + ^
STACK CFI 3ab18 .cfa: sp 64 +
STACK CFI 3ab28 .cfa: sp 0 +
STACK CFI 3ab2c .cfa: x29 32 +
STACK CFI 3ab34 .cfa: sp 64 +
STACK CFI 3ab44 .cfa: sp 0 +
STACK CFI INIT 3b2e4 360 .cfa: sp 0 +
STACK CFI 3b2ec .cfa: sp 80 +
STACK CFI 3b300 .cfa: x29 80 + x19: .cfa -8 + ^ x20: .cfa -16 + ^ x21: .cfa -24 + ^ x22: .cfa -32 + ^ x23: .cfa -40 + ^ x24: .cfa -48 + ^ x25: .cfa -64 + ^ .ra: .cfa -72 + ^ x29: .cfa -80 + ^
STACK CFI 3b59c .cfa: sp 80 +
STACK CFI 3b5b0 .cfa: sp 0 +
STACK CFI 3b5bc .cfa: x29 80 +
STACK CFI 3b610 .cfa: sp 80 +
STACK CFI 3b624 .cfa: sp 0 +
STACK CFI 3b628 .cfa: x29 80 +
STACK CFI 3b62c .cfa: sp 80 +
STACK CFI 3b640 .cfa: sp 0 +
STACK CFI INIT 3b664 24 .cfa: sp 0 +
STACK CFI 3b668 .cfa: sp 32 +
STACK CFI 3b670 .cfa: x29 32 + x19: .cfa -16 + ^ .ra: .cfa -24 + ^ x29: .cfa -32 + ^
STACK CFI 3b67c .cfa: sp 32 +
STACK CFI 3b684 .cfa: sp 0 +
STACK CFI INIT 3b688 20 .cfa: sp 0 +
STACK CFI INIT 3b6a8 8 .cfa: sp 0 +
STACK CFI INIT 3b6b0 e8 .cfa: sp 0 +
STACK CFI 3b6b4 .cfa: sp 80 +
STACK CFI 3b6c8 .cfa: x29 48 + x19: .cfa -8 + ^ x20: .cfa -16 + ^ x21: .cfa -24 + ^ x22: .cfa -32 + ^ .ra: .cfa -40 + ^ x29: .cfa -48 + ^ v8: .cfa -64 + ^
STACK CFI 3b77c .cfa: sp 80 +
STACK CFI 3b790 .cfa: sp 0 +
STACK CFI 3b794 .cfa: x29 48 +
STACK CFI INIT 3b798 24 .cfa: sp 0 +
STACK CFI 3b79c .cfa: sp 32 +
STACK CFI 3b7a4 .cfa: x29 32 + x19: .cfa -16 + ^ .ra: .cfa -24 + ^ x29: .cfa -32 + ^
STACK CFI 3b7b0 .cfa: sp 32 +
STACK CFI 3b7b8 .cfa: sp 0 +
STACK CFI INIT 3b7bc 20 .cfa: sp 0 +
STACK CFI INIT 3b7dc 648 .cfa: sp 0 +
STACK CFI 3b7e0 .cfa: sp 192 +
STACK CFI 3b804 .cfa: x29 96 + x19: .cfa -8 + ^ x20: .cfa -16 + ^ x21: .cfa -24 + ^ x22: .cfa -32 + ^ x23: .cfa -40 + ^ x24: .cfa -48 + ^ x25: .cfa -56 + ^ x26: .cfa -64 + ^ x27: .cfa -72 + ^ x28: .cfa -80 + ^ .ra: .cfa -88 + ^ x29: .cfa -96 + ^ v8: .cfa -104 + ^ v9: .cfa -112 + ^ v10: .cfa -120 + ^ v11: .cfa -128 + ^
STACK CFI 3bdf8 .cfa: sp 192 +
STACK CFI 3be1c .cfa: sp 0 +
STACK CFI 3be20 .cfa: x29 96 +
STACK CFI INIT 3be44 24 .cfa: sp 0 +
STACK CFI 3be48 .cfa: sp 32 +
STACK CFI 3be50 .cfa: x29 32 + x19: .cfa -16 + ^ .ra: .cfa -24 + ^ x29: .cfa -32 + ^
STACK CFI 3be5c .cfa: sp 32 +
STACK CFI 3be64 .cfa: sp 0 +
STACK CFI INIT 3be68 18 .cfa: sp 0 +
STACK CFI INIT 3c28c 1ac .cfa: sp 0 +
STACK CFI 3c290 .cfa: sp 32 +
STACK CFI 3c298 .cfa: x29 32 + x19: .cfa -8 + ^ x20: .cfa -16 + ^ .ra: .cfa -24 + ^ x29: .cfa -32 + ^
STACK CFI 3c388 .cfa: sp 32 +
STACK CFI 3c390 .cfa: sp 0 +
STACK CFI 3c394 .cfa: x29 32 +
STACK CFI INIT 3c570 14 .cfa: sp 0 +
STACK CFI 3c574 .cfa: sp 16 +
STACK CFI 3c578 .cfa: x29 16 + .ra: .cfa -8 + ^ x29: .cfa -16 + ^
STACK CFI INIT 3c584 1bc .cfa: sp 0 +
STACK CFI 3c588 .cfa: sp 64 +
STACK CFI 3c598 .cfa: x29 64 + x19: .cfa -8 + ^ x20: .cfa -16 + ^ x21: .cfa -24 + ^ x22: .cfa -32 + ^ x23: .cfa -48 + ^ .ra: .cfa -56 + ^ x29: .cfa -64 + ^
STACK CFI 3c718 .cfa: sp 64 +
STACK CFI 3c728 .cfa: sp 0 +
STACK CFI 3c72c .cfa: sp 64 +
STACK CFI 3c73c .cfa: sp 0 +
STACK CFI INIT 3cb78 15c .cfa: sp 0 +
STACK CFI 3cb7c .cfa: sp 48 +
STACK CFI 3cb88 .cfa: x29 48 + x19: .cfa -8 + ^ x20: .cfa -16 + ^ x21: .cfa -24 + ^ x22: .cfa -32 + ^ .ra: .cfa -40 + ^ x29: .cfa -48 + ^
STACK CFI 3ccb4 .cfa: sp 48 +
STACK CFI 3ccc0 .cfa: sp 0 +
STACK CFI 3ccc4 .cfa: sp 48 +
STACK CFI 3ccd0 .cfa: sp 0 +
STACK CFI INIT 3ccd4 a0 .cfa: sp 0 +
STACK CFI 3ccd8 .cfa: sp 32 +
STACK CFI 3cce0 .cfa: x29 32 + x19: .cfa -16 + ^ .ra: .cfa -24 + ^ x29: .cfa -32 + ^
STACK CFI 3cd5c .cfa: sp 32 +
STACK CFI 3cd64 .cfa: sp 0 +
STACK CFI 3cd68 .cfa: sp 32 +
STACK CFI 3cd70 .cfa: sp 0 +
STACK CFI INIT 3d5e8 1c .cfa: sp 0 +
STACK CFI INIT 3d9f0 4 .cfa: sp 0 +
STACK CFI INIT 3d9f4 bc .cfa: sp 0 +
STACK CFI 3d9f8 .cfa: sp 64 +
STACK CFI 3da08 .cfa: x29 64 + x19: .cfa -8 + ^ x20: .cfa -16 + ^ x21: .cfa -24 + ^ x22: .cfa -32 + ^ x23: .cfa -40 + ^ x24: .cfa -48 + ^ .ra: .cfa -56 + ^ x29: .cfa -64 + ^
STACK CFI 3da48 .cfa: sp 64 +
STACK CFI 3da58 .cfa: sp 0 +
STACK CFI 3da5c .cfa: x29 64 +
STACK CFI 3da9c .cfa: sp 64 +
STACK CFI 3daac .cfa: sp 0 +
STACK CFI INIT 41cac 88 .cfa: sp 0 +
STACK CFI 41cb0 .cfa: sp 48 +
STACK CFI 41cbc .cfa: x29 48 + x19: .cfa -8 + ^ x20: .cfa -16 + ^ x21: .cfa -32 + ^ .ra: .cfa -40 + ^ x29: .cfa -48 + ^
STACK CFI 41cdc .cfa: sp 48 +
STACK CFI 41ce8 .cfa: sp 0 +
STACK CFI 41cec .cfa: x29 48 +
STACK CFI 41d14 .cfa: sp 48 +
STACK CFI 41d20 .cfa: sp 0 +
STACK CFI 41d24 .cfa: sp 48 +
STACK CFI 41d30 .cfa: sp 0 +
STACK CFI INIT 41d34 8 .cfa: sp 0 +
STACK CFI INIT 41d3c 64 .cfa: sp 0 +
STACK CFI 41d40 .cfa: sp 32 +
STACK CFI 41d48 .cfa: x29 32 + x19: .cfa -16 + ^ .ra: .cfa -24 + ^ x29: .cfa -32 + ^
STACK CFI 41d94 .cfa: sp 32 +
STACK CFI 41d9c .cfa: sp 0 +
STACK CFI INIT 41fd4 24 .cfa: sp 0 +
STACK CFI 41fd8 .cfa: sp 32 +
STACK CFI 41fe0 .cfa: x29 32 + x19: .cfa -16 + ^ .ra: .cfa -24 + ^ x29: .cfa -32 + ^
STACK CFI 41fec .cfa: sp 32 +
STACK CFI 41ff4 .cfa: sp 0 +
STACK CFI INIT 41ff8 2c .cfa: sp 0 +
STACK CFI 41ffc .cfa: sp 32 +
STACK CFI 42004 .cfa: x29 32 + x19: .cfa -16 + ^ .ra: .cfa -24 + ^ x29: .cfa -32 + ^
STACK CFI 42018 .cfa: sp 32 +
STACK CFI 42020 .cfa: sp 0 +
STACK CFI INIT 42024 28 .cfa: sp 0 +
STACK CFI INIT 4204c 4 .cfa: sp 0 +
STACK CFI INIT 42050 8 .cfa: sp 0 +
STACK CFI INIT 42058 8 .cfa: sp 0 +
STACK CFI INIT 42060 28 .cfa: sp 0 +
STACK CFI 42064 .cfa: sp 32 +
STACK CFI 4206c .cfa: x29 32 + x19: .cfa -16 + ^ .ra: .cfa -24 + ^ x29: .cfa -32 + ^
STACK CFI 4207c .cfa: sp 32 +
STACK CFI 42084 .cfa: sp 0 +
STACK CFI INIT 42088 2c .cfa: sp 0 +
STACK CFI INIT 420b4 4 .cfa: sp 0 +
STACK CFI INIT 420b8 8 .cfa: sp 0 +
STACK CFI INIT 42964 24 .cfa: sp 0 +
STACK CFI 42968 .cfa: sp 32 +
STACK CFI 42970 .cfa: x29 32 + x19: .cfa -16 + ^ .ra: .cfa -24 + ^ x29: .cfa -32 + ^
STACK CFI 4297c .cfa: sp 32 +
STACK CFI 42984 .cfa: sp 0 +
STACK CFI INIT 42988 18 .cfa: sp 0 +
STACK CFI INIT 429a0 4bc .cfa: sp 0 +
STACK CFI 429a4 .cfa: sp 96 +
STACK CFI 429bc .cfa: x29 96 + x19: .cfa -8 + ^ x20: .cfa -16 + ^ x21: .cfa -24 + ^ x22: .cfa -32 + ^ x23: .cfa -40 + ^ x24: .cfa -48 + ^ x25: .cfa -56 + ^ x26: .cfa -64 + ^ x27: .cfa -72 + ^ x28: .cfa -80 + ^ .ra: .cfa -88 + ^ x29: .cfa -96 + ^
STACK CFI 42c78 .cfa: sp 96 +
STACK CFI 42c90 .cfa: sp 0 +
STACK CFI 42c94 .cfa: x29 96 +
STACK CFI INIT 42e5c 14 .cfa: sp 0 +
STACK CFI 42e60 .cfa: sp 16 +
STACK CFI 42e64 .cfa: x29 16 + .ra: .cfa -8 + ^ x29: .cfa -16 + ^
STACK CFI INIT 42e70 e0c .cfa: sp 0 +
STACK CFI 42e74 .cfa: sp 224 +
STACK CFI 42e90 .cfa: x29 96 + x19: .cfa -8 + ^ x20: .cfa -16 + ^ x21: .cfa -24 + ^ x22: .cfa -32 + ^ x23: .cfa -40 + ^ x24: .cfa -48 + ^ x25: .cfa -56 + ^ x26: .cfa -64 + ^ x27: .cfa -72 + ^ x28: .cfa -80 + ^ .ra: .cfa -88 + ^ x29: .cfa -96 + ^
STACK CFI 43484 .cfa: sp 224 +
STACK CFI 434a0 .cfa: sp 0 +
STACK CFI 434a4 .cfa: x29 96 +
STACK CFI 43558 .cfa: sp 224 +
STACK CFI 43574 .cfa: sp 0 +
STACK CFI 43578 .cfa: x29 96 +
STACK CFI 4359c .cfa: sp 224 +
STACK CFI 435b8 .cfa: sp 0 +
STACK CFI 435bc .cfa: x29 96 +
STACK CFI 43b74 .cfa: sp 224 +
STACK CFI 43b90 .cfa: sp 0 +
STACK CFI 43b94 .cfa: x29 96 +
STACK CFI INIT 43c7c 2d0 .cfa: sp 0 +
STACK CFI 43c80 .cfa: sp 144 +
STACK CFI 43c9c .cfa: x29 96 + x19: .cfa -8 + ^ x20: .cfa -16 + ^ x21: .cfa -24 + ^ x22: .cfa -32 + ^ x23: .cfa -40 + ^ x24: .cfa -48 + ^ x25: .cfa -56 + ^ x26: .cfa -64 + ^ x27: .cfa -72 + ^ x28: .cfa -80 + ^ .ra: .cfa -88 + ^ x29: .cfa -96 + ^
STACK CFI 43f28 .cfa: sp 144 +
STACK CFI 43f44 .cfa: sp 0 +
STACK CFI 43f48 .cfa: x29 96 +
STACK CFI INIT 43f4c 314 .cfa: sp 0 +
STACK CFI 43f50 .cfa: sp 128 +
STACK CFI 43f6c .cfa: x29 96 + x19: .cfa -8 + ^ x20: .cfa -16 + ^ x21: .cfa -24 + ^ x22: .cfa -32 + ^ x23: .cfa -40 + ^ x24: .cfa -48 + ^ x25: .cfa -56 + ^ x26: .cfa -64 + ^ x27: .cfa -72 + ^ x28: .cfa -80 + ^ .ra: .cfa -88 + ^ x29: .cfa -96 + ^
STACK CFI 4423c .cfa: sp 128 +
STACK CFI 44258 .cfa: sp 0 +
STACK CFI 4425c .cfa: x29 96 +
STACK CFI INIT 44260 354 .cfa: sp 0 +
STACK CFI 44264 .cfa: sp 144 +
STACK CFI 44280 .cfa: x29 96 + x19: .cfa -8 + ^ x20: .cfa -16 + ^ x21: .cfa -24 + ^ x22: .cfa -32 + ^ x23: .cfa -40 + ^ x24: .cfa -48 + ^ x25: .cfa -56 + ^ x26: .cfa -64 + ^ x27: .cfa -72 + ^ x28: .cfa -80 + ^ .ra: .cfa -88 + ^ x29: .cfa -96 + ^
STACK CFI 44554 .cfa: sp 144 +
STACK CFI 44570 .cfa: sp 0 +
STACK CFI 44574 .cfa: x29 96 +
STACK CFI INIT 445b4 234 .cfa: sp 0 +
STACK CFI 445b8 .cfa: sp 128 +
STACK CFI 445d4 .cfa: x29 96 + x19: .cfa -8 + ^ x20: .cfa -16 + ^ x21: .cfa -24 + ^ x22: .cfa -32 + ^ x23: .cfa -40 + ^ x24: .cfa -48 + ^ x25: .cfa -56 + ^ x26: .cfa -64 + ^ x27: .cfa -72 + ^ x28: .cfa -80 + ^ .ra: .cfa -88 + ^ x29: .cfa -96 + ^
STACK CFI 447c4 .cfa: sp 128 +
STACK CFI 447e0 .cfa: sp 0 +
STACK CFI 447e4 .cfa: x29 96 +
STACK CFI INIT 447e8 14 .cfa: sp 0 +
STACK CFI 447ec .cfa: sp 16 +
STACK CFI 447f0 .cfa: x29 16 + .ra: .cfa -8 + ^ x29: .cfa -16 + ^
STACK CFI INIT 447fc 14 .cfa: sp 0 +
STACK CFI 44800 .cfa: sp 16 +
STACK CFI 44804 .cfa: x29 16 + .ra: .cfa -8 + ^ x29: .cfa -16 + ^
STACK CFI INIT 44810 14 .cfa: sp 0 +
STACK CFI 44814 .cfa: sp 16 +
STACK CFI 44818 .cfa: x29 16 + .ra: .cfa -8 + ^ x29: .cfa -16 + ^
STACK CFI INIT 44890 4 .cfa: sp 0 +
STACK CFI INIT 44a48 4 .cfa: sp 0 +
STACK CFI INIT 44a4c 60 .cfa: sp 0 +
STACK CFI 44a50 .cfa: sp 32 +
STACK CFI 44a58 .cfa: x29 32 + x19: .cfa -8 + ^ x20: .cfa -16 + ^ .ra: .cfa -24 + ^ x29: .cfa -32 + ^
STACK CFI 44a78 .cfa: sp 32 +
STACK CFI 44a80 .cfa: sp 0 +
STACK CFI 44a84 .cfa: x29 32 +
STACK CFI 44aa0 .cfa: sp 32 +
STACK CFI 44aa8 .cfa: sp 0 +
STACK CFI INIT 44aac 70 .cfa: sp 0 +
STACK CFI 44ab0 .cfa: sp 32 +
STACK CFI 44ab8 .cfa: x29 32 + x19: .cfa -8 + ^ x20: .cfa -16 + ^ .ra: .cfa -24 + ^ x29: .cfa -32 + ^
STACK CFI 44ae0 .cfa: sp 32 +
STACK CFI 44ae8 .cfa: sp 0 +
STACK CFI 44aec .cfa: x29 32 +
STACK CFI 44b10 .cfa: sp 32 +
STACK CFI 44b18 .cfa: sp 0 +
STACK CFI INIT 44b1c 10 .cfa: sp 0 +
STACK CFI INIT 44b2c 30 .cfa: sp 0 +
STACK CFI 44b30 .cfa: sp 32 +
STACK CFI 44b38 .cfa: x29 32 + x19: .cfa -16 + ^ .ra: .cfa -24 + ^ x29: .cfa -32 + ^
STACK CFI 44b50 .cfa: sp 32 +
STACK CFI 44b58 .cfa: sp 0 +
STACK CFI INIT 44b5c 4 .cfa: sp 0 +
STACK CFI INIT 44b60 4 .cfa: sp 0 +
STACK CFI INIT 44b64 4 .cfa: sp 0 +
STACK CFI INIT 44b68 4 .cfa: sp 0 +
STACK CFI INIT 44b6c 34 .cfa: sp 0 +
STACK CFI 44b70 .cfa: sp 32 +
STACK CFI 44b78 .cfa: x29 32 + x19: .cfa -16 + ^ .ra: .cfa -24 + ^ x29: .cfa -32 + ^
STACK CFI 44b94 .cfa: sp 32 +
STACK CFI 44b9c .cfa: sp 0 +
STACK CFI INIT 44ba0 14 .cfa: sp 0 +
STACK CFI INIT 44bb4 4 .cfa: sp 0 +
STACK CFI INIT 44bb8 4 .cfa: sp 0 +
STACK CFI INIT 44e20 1c .cfa: sp 0 +
STACK CFI INIT 44e3c c .cfa: sp 0 +
STACK CFI INIT 44fc4 4 .cfa: sp 0 +
STACK CFI INIT 44fc8 14 .cfa: sp 0 +
STACK CFI INIT 44fdc 4 .cfa: sp 0 +
STACK CFI INIT 44fe0 14 .cfa: sp 0 +
STACK CFI INIT 45068 14 .cfa: sp 0 +
STACK CFI INIT 4507c 14 .cfa: sp 0 +
STACK CFI INIT 45090 4 .cfa: sp 0 +
STACK CFI INIT 45094 34 .cfa: sp 0 +
STACK CFI 45098 .cfa: sp 32 +
STACK CFI 450a0 .cfa: x29 32 + x19: .cfa -16 + ^ .ra: .cfa -24 + ^ x29: .cfa -32 + ^
STACK CFI 450bc .cfa: sp 32 +
STACK CFI 450c4 .cfa: sp 0 +
STACK CFI INIT 450c8 14 .cfa: sp 0 +
STACK CFI INIT 450dc 4 .cfa: sp 0 +
STACK CFI INIT 450e0 4 .cfa: sp 0 +
STACK CFI INIT 450e4 5c .cfa: sp 0 +
STACK CFI 450e8 .cfa: sp 32 +
STACK CFI 450f0 .cfa: x29 32 + x19: .cfa -16 + ^ .ra: .cfa -24 + ^ x29: .cfa -32 + ^
STACK CFI 45108 .cfa: sp 32 +
STACK CFI 45110 .cfa: sp 0 +
STACK CFI 45114 .cfa: x29 32 +
STACK CFI 45134 .cfa: sp 32 +
STACK CFI 4513c .cfa: sp 0 +
STACK CFI INIT 45140 1c .cfa: sp 0 +
STACK CFI INIT 4515c c .cfa: sp 0 +
STACK CFI INIT 456b4 4 .cfa: sp 0 +
STACK CFI INIT 456b8 4 .cfa: sp 0 +
STACK CFI INIT 456bc 34 .cfa: sp 0 +
STACK CFI 456c0 .cfa: sp 32 +
STACK CFI 456c8 .cfa: x29 32 + x19: .cfa -16 + ^ .ra: .cfa -24 + ^ x29: .cfa -32 + ^
STACK CFI 456e4 .cfa: sp 32 +
STACK CFI 456ec .cfa: sp 0 +
STACK CFI INIT 456f0 14 .cfa: sp 0 +
STACK CFI INIT 45704 4 .cfa: sp 0 +
STACK CFI INIT 45708 4 .cfa: sp 0 +
STACK CFI INIT 4570c 60 .cfa: sp 0 +
STACK CFI 45710 .cfa: sp 32 +
STACK CFI 45718 .cfa: x29 32 + x19: .cfa -16 + ^ .ra: .cfa -24 + ^ x29: .cfa -32 + ^
STACK CFI 45754 .cfa: sp 32 +
STACK CFI 4575c .cfa: sp 0 +
STACK CFI 45760 .cfa: sp 32 +
STACK CFI 45768 .cfa: sp 0 +
STACK CFI INIT 4576c 1c .cfa: sp 0 +
STACK CFI INIT 45788 c .cfa: sp 0 +
STACK CFI INIT 45794 4 .cfa: sp 0 +
STACK CFI INIT 45798 34 .cfa: sp 0 +
STACK CFI 4579c .cfa: sp 32 +
STACK CFI 457a4 .cfa: x29 32 + x19: .cfa -16 + ^ .ra: .cfa -24 + ^ x29: .cfa -32 + ^
STACK CFI 457c0 .cfa: sp 32 +
STACK CFI 457c8 .cfa: sp 0 +
STACK CFI INIT 457cc 14 .cfa: sp 0 +
STACK CFI INIT 457e0 4 .cfa: sp 0 +
STACK CFI INIT 457e4 4 .cfa: sp 0 +
STACK CFI INIT 457e8 a8 .cfa: sp 0 +
STACK CFI 457ec .cfa: sp 48 +
STACK CFI 457f8 .cfa: x29 48 + x19: .cfa -8 + ^ x20: .cfa -16 + ^ x21: .cfa -32 + ^ .ra: .cfa -40 + ^ x29: .cfa -48 + ^
STACK CFI 45870 .cfa: sp 48 +
STACK CFI 4587c .cfa: sp 0 +
STACK CFI 45880 .cfa: sp 48 +
STACK CFI 4588c .cfa: sp 0 +
STACK CFI INIT 45890 1c .cfa: sp 0 +
STACK CFI INIT 458ac c .cfa: sp 0 +
STACK CFI INIT 458b8 3c .cfa: sp 0 +
STACK CFI 458bc .cfa: sp 32 +
STACK CFI 458c4 .cfa: x29 32 + x19: .cfa -16 + ^ .ra: .cfa -24 + ^ x29: .cfa -32 + ^
STACK CFI 458d0 .cfa: sp 32 +
STACK CFI 458d8 .cfa: sp 0 +
STACK CFI 458dc .cfa: x29 32 +
STACK CFI 458e8 .cfa: sp 32 +
STACK CFI 458f0 .cfa: sp 0 +
STACK CFI INIT 458f4 4c .cfa: sp 0 +
STACK CFI 458f8 .cfa: sp 32 +
STACK CFI 45900 .cfa: x29 32 + x19: .cfa -8 + ^ x20: .cfa -16 + ^ .ra: .cfa -24 + ^ x29: .cfa -32 + ^
STACK CFI 45928 .cfa: sp 32 +
STACK CFI 45930 .cfa: sp 0 +
STACK CFI 45934 .cfa: sp 32 +
STACK CFI 4593c .cfa: sp 0 +
STACK CFI INIT 45b60 64 .cfa: sp 0 +
STACK CFI 45b64 .cfa: sp 32 +
STACK CFI 45b6c .cfa: x29 32 + x19: .cfa -16 + ^ .ra: .cfa -24 + ^ x29: .cfa -32 + ^
STACK CFI 45b98 .cfa: sp 32 +
STACK CFI 45ba0 .cfa: sp 0 +
STACK CFI 45ba4 .cfa: x29 32 +
STACK CFI 45bb8 .cfa: sp 32 +
STACK CFI 45bc0 .cfa: sp 0 +
STACK CFI INIT 45de8 24 .cfa: sp 0 +
STACK CFI 45dec .cfa: sp 32 +
STACK CFI 45df4 .cfa: x29 32 + x19: .cfa -16 + ^ .ra: .cfa -24 + ^ x29: .cfa -32 + ^
STACK CFI 45e00 .cfa: sp 32 +
STACK CFI 45e08 .cfa: sp 0 +
STACK CFI INIT 45e0c 24 .cfa: sp 0 +
STACK CFI 45e10 .cfa: sp 32 +
STACK CFI 45e18 .cfa: x29 32 + x19: .cfa -16 + ^ .ra: .cfa -24 + ^ x29: .cfa -32 + ^
STACK CFI 45e24 .cfa: sp 32 +
STACK CFI 45e2c .cfa: sp 0 +
STACK CFI INIT 45e30 24 .cfa: sp 0 +
STACK CFI 45e34 .cfa: sp 32 +
STACK CFI 45e3c .cfa: x29 32 + x19: .cfa -16 + ^ .ra: .cfa -24 + ^ x29: .cfa -32 + ^
STACK CFI 45e48 .cfa: sp 32 +
STACK CFI 45e50 .cfa: sp 0 +
STACK CFI INIT 45e54 24 .cfa: sp 0 +
STACK CFI 45e58 .cfa: sp 32 +
STACK CFI 45e60 .cfa: x29 32 + x19: .cfa -16 + ^ .ra: .cfa -24 + ^ x29: .cfa -32 + ^
STACK CFI 45e6c .cfa: sp 32 +
STACK CFI 45e74 .cfa: sp 0 +
STACK CFI INIT 46314 8 .cfa: sp 0 +
STACK CFI INIT 4631c 24 .cfa: sp 0 +
STACK CFI 46320 .cfa: sp 32 +
STACK CFI 46328 .cfa: x29 32 + x19: .cfa -16 + ^ .ra: .cfa -24 + ^ x29: .cfa -32 + ^
STACK CFI 46334 .cfa: sp 32 +
STACK CFI 4633c .cfa: sp 0 +
STACK CFI INIT 46340 28 .cfa: sp 0 +
STACK CFI 46344 .cfa: sp 32 +
STACK CFI 4634c .cfa: x29 32 + x19: .cfa -16 + ^ .ra: .cfa -24 + ^ x29: .cfa -32 + ^
STACK CFI 4635c .cfa: sp 32 +
STACK CFI 46364 .cfa: sp 0 +
STACK CFI INIT 468f4 8 .cfa: sp 0 +
STACK CFI INIT 468fc 24 .cfa: sp 0 +
STACK CFI 46900 .cfa: sp 32 +
STACK CFI 46908 .cfa: x29 32 + x19: .cfa -16 + ^ .ra: .cfa -24 + ^ x29: .cfa -32 + ^
STACK CFI 46914 .cfa: sp 32 +
STACK CFI 4691c .cfa: sp 0 +
STACK CFI INIT 46920 28 .cfa: sp 0 +
STACK CFI 46924 .cfa: sp 32 +
STACK CFI 4692c .cfa: x29 32 + x19: .cfa -16 + ^ .ra: .cfa -24 + ^ x29: .cfa -32 + ^
STACK CFI 4693c .cfa: sp 32 +
STACK CFI 46944 .cfa: sp 0 +
STACK CFI INIT 46bac 8 .cfa: sp 0 +
STACK CFI INIT 46bb4 24 .cfa: sp 0 +
STACK CFI 46bb8 .cfa: sp 32 +
STACK CFI 46bc0 .cfa: x29 32 + x19: .cfa -16 + ^ .ra: .cfa -24 + ^ x29: .cfa -32 + ^
STACK CFI 46bcc .cfa: sp 32 +
STACK CFI 46bd4 .cfa: sp 0 +
STACK CFI INIT 46bd8 28 .cfa: sp 0 +
STACK CFI 46bdc .cfa: sp 32 +
STACK CFI 46be4 .cfa: x29 32 + x19: .cfa -16 + ^ .ra: .cfa -24 + ^ x29: .cfa -32 + ^
STACK CFI 46bf4 .cfa: sp 32 +
STACK CFI 46bfc .cfa: sp 0 +
STACK CFI INIT 46c00 24 .cfa: sp 0 +
STACK CFI 46c04 .cfa: sp 32 +
STACK CFI 46c0c .cfa: x29 32 + x19: .cfa -16 + ^ .ra: .cfa -24 + ^ x29: .cfa -32 + ^
STACK CFI 46c18 .cfa: sp 32 +
STACK CFI 46c20 .cfa: sp 0 +
STACK CFI INIT 46c24 8 .cfa: sp 0 +
STACK CFI INIT 46c2c 24 .cfa: sp 0 +
STACK CFI 46c30 .cfa: sp 32 +
STACK CFI 46c38 .cfa: x29 32 + x19: .cfa -16 + ^ .ra: .cfa -24 + ^ x29: .cfa -32 + ^
STACK CFI 46c44 .cfa: sp 32 +
STACK CFI 46c4c .cfa: sp 0 +
STACK CFI INIT 46c50 28 .cfa: sp 0 +
STACK CFI 46c54 .cfa: sp 32 +
STACK CFI 46c5c .cfa: x29 32 + x19: .cfa -16 + ^ .ra: .cfa -24 + ^ x29: .cfa -32 + ^
STACK CFI 46c6c .cfa: sp 32 +
STACK CFI 46c74 .cfa: sp 0 +
STACK CFI INIT 471f0 44 .cfa: sp 0 +
STACK CFI 471f4 .cfa: sp 32 +
STACK CFI 471fc .cfa: x29 32 + x19: .cfa -16 + ^ .ra: .cfa -24 + ^ x29: .cfa -32 + ^
STACK CFI 47228 .cfa: sp 32 +
STACK CFI 47230 .cfa: sp 0 +
STACK CFI INIT 47234 4c .cfa: sp 0 +
STACK CFI 47238 .cfa: sp 32 +
STACK CFI 47240 .cfa: x29 32 + x19: .cfa -16 + ^ .ra: .cfa -24 + ^ x29: .cfa -32 + ^
STACK CFI 47274 .cfa: sp 32 +
STACK CFI 4727c .cfa: sp 0 +
STACK CFI INIT 47280 4 .cfa: sp 0 +
STACK CFI INIT 47284 8 .cfa: sp 0 +
STACK CFI INIT 4728c 4 .cfa: sp 0 +
STACK CFI INIT 47290 8 .cfa: sp 0 +
STACK CFI INIT 48438 4 .cfa: sp 0 +
STACK CFI INIT 4843c 14 .cfa: sp 0 +
STACK CFI INIT 4895c c .cfa: sp 0 +
STACK CFI INIT 48968 24c .cfa: sp 0 +
STACK CFI INIT 48bb4 a0 .cfa: sp 0 +
STACK CFI 48bc0 .cfa: sp 32 +
STACK CFI 48c18 .cfa: sp 0 +
STACK CFI 48c1c .cfa: sp 32 +
STACK CFI 48c24 .cfa: sp 0 +
STACK CFI 48c28 .cfa: sp 32 +
STACK CFI 48c3c .cfa: sp 0 +
STACK CFI 48c40 .cfa: sp 32 +
STACK CFI 48c50 .cfa: sp 0 +
STACK CFI INIT 48c54 38 .cfa: sp 0 +
STACK CFI 48c60 .cfa: sp 32 +
STACK CFI 48c88 .cfa: sp 0 +
STACK CFI INIT 48f20 7c .cfa: sp 0 +
STACK CFI 48f24 .cfa: sp 32 +
STACK CFI 48f2c .cfa: x29 32 + x19: .cfa -16 + ^ .ra: .cfa -24 + ^ x29: .cfa -32 + ^
STACK CFI 48f58 .cfa: sp 32 +
STACK CFI 48f60 .cfa: sp 0 +
STACK CFI 48f64 .cfa: x29 32 +
STACK CFI 48f90 .cfa: sp 32 +
STACK CFI 48f98 .cfa: sp 0 +
STACK CFI INIT 48fec 2c .cfa: sp 0 +
STACK CFI 48ff0 .cfa: sp 32 +
STACK CFI 48ff8 .cfa: x29 32 + x19: .cfa -16 + ^ .ra: .cfa -24 + ^ x29: .cfa -32 + ^
STACK CFI 4900c .cfa: sp 32 +
STACK CFI 49014 .cfa: sp 0 +
STACK CFI INIT 497d8 64 .cfa: sp 0 +
STACK CFI 497dc .cfa: sp 32 +
STACK CFI 497e4 .cfa: x29 32 + x19: .cfa -16 + ^ .ra: .cfa -24 + ^ x29: .cfa -32 + ^
STACK CFI 49800 .cfa: sp 32 +
STACK CFI 49808 .cfa: sp 0 +
STACK CFI 4980c .cfa: x29 32 +
STACK CFI 49830 .cfa: sp 32 +
STACK CFI 49838 .cfa: sp 0 +
STACK CFI INIT 4983c 570 .cfa: sp 0 +
STACK CFI 49840 .cfa: sp 176 +
STACK CFI 49854 .cfa: x29 64 + x19: .cfa -8 + ^ x20: .cfa -16 + ^ x21: .cfa -24 + ^ x22: .cfa -32 + ^ x23: .cfa -40 + ^ x24: .cfa -48 + ^ .ra: .cfa -56 + ^ x29: .cfa -64 + ^
STACK CFI 49a84 .cfa: sp 176 +
STACK CFI 49a98 .cfa: sp 0 +
STACK CFI 49a9c .cfa: x29 64 +
STACK CFI 49ae8 .cfa: sp 176 +
STACK CFI 49afc .cfa: sp 0 +
STACK CFI 49b00 .cfa: x29 64 +
STACK CFI 49b38 .cfa: sp 176 +
STACK CFI 49b4c .cfa: sp 0 +
STACK CFI 49b50 .cfa: x29 64 +
STACK CFI 49b68 .cfa: sp 176 +
STACK CFI 49b7c .cfa: sp 0 +
STACK CFI 49b80 .cfa: x29 64 +
STACK CFI 49ba0 .cfa: sp 176 +
STACK CFI 49bb4 .cfa: sp 0 +
STACK CFI 49bb8 .cfa: x29 64 +
STACK CFI 49bd0 .cfa: sp 176 +
STACK CFI 49be4 .cfa: sp 0 +
STACK CFI 49be8 .cfa: x29 64 +
STACK CFI 49bfc .cfa: sp 176 +
STACK CFI 49c10 .cfa: sp 0 +
STACK CFI 49c14 .cfa: x29 64 +
STACK CFI 49c28 .cfa: sp 176 +
STACK CFI 49c3c .cfa: sp 0 +
STACK CFI 49c40 .cfa: x29 64 +
STACK CFI 49c50 .cfa: sp 176 +
STACK CFI 49c64 .cfa: sp 0 +
STACK CFI 49c68 .cfa: x29 64 +
STACK CFI 49c78 .cfa: sp 176 +
STACK CFI 49c8c .cfa: sp 0 +
STACK CFI 49c90 .cfa: x29 64 +
STACK CFI 49ca8 .cfa: sp 176 +
STACK CFI 49cbc .cfa: sp 0 +
STACK CFI 49cc0 .cfa: x29 64 +
STACK CFI 49cd4 .cfa: sp 176 +
STACK CFI 49ce8 .cfa: sp 0 +
STACK CFI 49cec .cfa: x29 64 +
STACK CFI 49d04 .cfa: sp 176 +
STACK CFI 49d18 .cfa: sp 0 +
STACK CFI 49d1c .cfa: x29 64 +
STACK CFI 49d48 .cfa: sp 176 +
STACK CFI 49d5c .cfa: sp 0 +
STACK CFI 49d60 .cfa: x29 64 +
STACK CFI 49d74 .cfa: sp 176 +
STACK CFI 49d88 .cfa: sp 0 +
STACK CFI 49d8c .cfa: x29 64 +
STACK CFI INIT 49dac 228 .cfa: sp 0 +
STACK CFI INIT 49fd4 2dc .cfa: sp 0 +
STACK CFI INIT 4a2b0 53c .cfa: sp 0 +
STACK CFI INIT 4a7ec 78 .cfa: sp 0 +
STACK CFI 4a7f0 .cfa: sp 48 +
STACK CFI 4a7fc .cfa: x29 48 + x19: .cfa -8 + ^ x20: .cfa -16 + ^ x21: .cfa -24 + ^ x22: .cfa -32 + ^ .ra: .cfa -40 + ^ x29: .cfa -48 + ^
STACK CFI 4a844 .cfa: sp 48 +
STACK CFI 4a850 .cfa: sp 0 +
STACK CFI 4a854 .cfa: sp 48 +
STACK CFI 4a860 .cfa: sp 0 +
STACK CFI INIT 4a864 8c .cfa: sp 0 +
STACK CFI 4a868 .cfa: sp 32 +
STACK CFI 4a870 .cfa: x29 32 + x19: .cfa -16 + ^ .ra: .cfa -24 + ^ x29: .cfa -32 + ^
STACK CFI 4a8a4 .cfa: sp 32 +
STACK CFI 4a8ac .cfa: sp 0 +
STACK CFI 4a8b0 .cfa: x29 32 +
STACK CFI 4a8e4 .cfa: sp 32 +
STACK CFI 4a8ec .cfa: sp 0 +
STACK CFI INIT 4a8f0 24 .cfa: sp 0 +
STACK CFI 4a8f4 .cfa: sp 32 +
STACK CFI 4a8fc .cfa: x29 32 + x19: .cfa -16 + ^ .ra: .cfa -24 + ^ x29: .cfa -32 + ^
STACK CFI 4a908 .cfa: sp 32 +
STACK CFI 4a910 .cfa: sp 0 +
STACK CFI INIT 4a914 150 .cfa: sp 0 +
STACK CFI 4a918 .cfa: sp 48 +
STACK CFI 4a924 .cfa: x29 48 + x19: .cfa -8 + ^ x20: .cfa -16 + ^ x21: .cfa -24 + ^ x22: .cfa -32 + ^ .ra: .cfa -40 + ^ x29: .cfa -48 + ^
STACK CFI 4aa54 .cfa: sp 48 +
STACK CFI 4aa60 .cfa: sp 0 +
STACK CFI INIT 4aa64 68 .cfa: sp 0 +
STACK CFI 4aa68 .cfa: sp 64 +
STACK CFI 4aa74 .cfa: x29 32 + x19: .cfa -16 + ^ .ra: .cfa -24 + ^ x29: .cfa -32 + ^
STACK CFI 4aab8 .cfa: sp 64 +
STACK CFI 4aac4 .cfa: sp 0 +
STACK CFI 4aac8 .cfa: x29 32 +
STACK CFI INIT 4aacc 90 .cfa: sp 0 +
STACK CFI 4aad0 .cfa: sp 32 +
STACK CFI 4aad8 .cfa: x29 32 + x19: .cfa -8 + ^ x20: .cfa -16 + ^ .ra: .cfa -24 + ^ x29: .cfa -32 + ^
STACK CFI 4ab04 .cfa: sp 32 +
STACK CFI 4ab0c .cfa: sp 0 +
STACK CFI 4ab10 .cfa: x29 32 +
STACK CFI 4ab50 .cfa: sp 32 +
STACK CFI 4ab58 .cfa: sp 0 +
STACK CFI INIT 4ab5c ec .cfa: sp 0 +
STACK CFI 4ab60 .cfa: sp 112 +
STACK CFI 4ab70 .cfa: x29 48 + x19: .cfa -8 + ^ x20: .cfa -16 + ^ x21: .cfa -32 + ^ .ra: .cfa -40 + ^ x29: .cfa -48 + ^
STACK CFI 4ac30 .cfa: sp 112 +
STACK CFI 4ac40 .cfa: sp 0 +
STACK CFI 4ac44 .cfa: x29 48 +
STACK CFI INIT 4ac48 ec .cfa: sp 0 +
STACK CFI 4ac4c .cfa: sp 112 +
STACK CFI 4ac5c .cfa: x29 48 + x19: .cfa -8 + ^ x20: .cfa -16 + ^ x21: .cfa -32 + ^ .ra: .cfa -40 + ^ x29: .cfa -48 + ^
STACK CFI 4ad1c .cfa: sp 112 +
STACK CFI 4ad2c .cfa: sp 0 +
STACK CFI 4ad30 .cfa: x29 48 +
STACK CFI INIT 4ad34 48 .cfa: sp 0 +
STACK CFI 4ad38 .cfa: sp 32 +
STACK CFI 4ad40 .cfa: x29 32 + x19: .cfa -8 + ^ x20: .cfa -16 + ^ .ra: .cfa -24 + ^ x29: .cfa -32 + ^
STACK CFI 4ad64 .cfa: sp 32 +
STACK CFI 4ad6c .cfa: sp 0 +
STACK CFI 4ad70 .cfa: x29 32 +
STACK CFI INIT 4ad7c 98 .cfa: sp 0 +
STACK CFI 4ad80 .cfa: sp 80 +
STACK CFI 4ad8c .cfa: x29 32 + x19: .cfa -16 + ^ .ra: .cfa -24 + ^ x29: .cfa -32 + ^
STACK CFI 4ae00 .cfa: sp 80 +
STACK CFI 4ae0c .cfa: sp 0 +
STACK CFI 4ae10 .cfa: x29 32 +
STACK CFI INIT 4ae14 260 .cfa: sp 0 +
STACK CFI 4ae18 .cfa: sp 112 +
STACK CFI 4ae30 .cfa: x29 80 + x19: .cfa -8 + ^ x20: .cfa -16 + ^ x21: .cfa -24 + ^ x22: .cfa -32 + ^ x23: .cfa -40 + ^ x24: .cfa -48 + ^ x25: .cfa -64 + ^ .ra: .cfa -72 + ^ x29: .cfa -80 + ^
STACK CFI 4b014 .cfa: sp 112 +
STACK CFI 4b02c .cfa: sp 0 +
STACK CFI 4b030 .cfa: x29 80 +
STACK CFI INIT 4b074 150 .cfa: sp 0 +
STACK CFI 4b078 .cfa: sp 48 +
STACK CFI 4b084 .cfa: x29 48 + x19: .cfa -8 + ^ x20: .cfa -16 + ^ x21: .cfa -24 + ^ x22: .cfa -32 + ^ .ra: .cfa -40 + ^ x29: .cfa -48 + ^
STACK CFI 4b1b4 .cfa: sp 48 +
STACK CFI 4b1c0 .cfa: sp 0 +
STACK CFI INIT 4b1c4 1e0 .cfa: sp 0 +
STACK CFI 4b1c8 .cfa: sp 96 +
STACK CFI 4b1dc .cfa: x29 64 + x19: .cfa -8 + ^ x20: .cfa -16 + ^ x21: .cfa -24 + ^ x22: .cfa -32 + ^ x23: .cfa -40 + ^ x24: .cfa -48 + ^ .ra: .cfa -56 + ^ x29: .cfa -64 + ^
STACK CFI 4b35c .cfa: sp 96 +
STACK CFI 4b370 .cfa: sp 0 +
STACK CFI 4b374 .cfa: x29 64 +
STACK CFI INIT 4b3a4 284 .cfa: sp 0 +
STACK CFI 4b3a8 .cfa: sp 112 +
STACK CFI 4b3c0 .cfa: x29 80 + x19: .cfa -8 + ^ x20: .cfa -16 + ^ x21: .cfa -24 + ^ x22: .cfa -32 + ^ x23: .cfa -40 + ^ x24: .cfa -48 + ^ x25: .cfa -64 + ^ .ra: .cfa -72 + ^ x29: .cfa -80 + ^
STACK CFI 4b5c8 .cfa: sp 112 +
STACK CFI 4b5e0 .cfa: sp 0 +
STACK CFI 4b5e4 .cfa: x29 80 +
STACK CFI INIT 4b628 208 .cfa: sp 0 +
STACK CFI 4b62c .cfa: sp 96 +
STACK CFI 4b640 .cfa: x29 64 + x19: .cfa -8 + ^ x20: .cfa -16 + ^ x21: .cfa -24 + ^ x22: .cfa -32 + ^ x23: .cfa -40 + ^ x24: .cfa -48 + ^ .ra: .cfa -56 + ^ x29: .cfa -64 + ^
STACK CFI 4b7e8 .cfa: sp 96 +
STACK CFI 4b7fc .cfa: sp 0 +
STACK CFI 4b800 .cfa: x29 64 +
STACK CFI INIT 4b830 360 .cfa: sp 0 +
STACK CFI 4b834 .cfa: sp 160 +
STACK CFI 4b850 .cfa: x29 96 + x19: .cfa -8 + ^ x20: .cfa -16 + ^ x21: .cfa -24 + ^ x22: .cfa -32 + ^ x23: .cfa -40 + ^ x24: .cfa -48 + ^ x25: .cfa -56 + ^ x26: .cfa -64 + ^ x27: .cfa -72 + ^ x28: .cfa -80 + ^ .ra: .cfa -88 + ^ x29: .cfa -96 + ^
STACK CFI 4bb1c .cfa: sp 160 +
STACK CFI 4bb38 .cfa: sp 0 +
STACK CFI 4bb3c .cfa: x29 96 +
STACK CFI INIT 4bb90 314 .cfa: sp 0 +
STACK CFI 4bb94 .cfa: sp 144 +
STACK CFI 4bbb0 .cfa: x29 96 + x19: .cfa -8 + ^ x20: .cfa -16 + ^ x21: .cfa -24 + ^ x22: .cfa -32 + ^ x23: .cfa -40 + ^ x24: .cfa -48 + ^ x25: .cfa -56 + ^ x26: .cfa -64 + ^ x27: .cfa -72 + ^ x28: .cfa -80 + ^ .ra: .cfa -88 + ^ x29: .cfa -96 + ^
STACK CFI 4be2c .cfa: sp 144 +
STACK CFI 4be48 .cfa: sp 0 +
STACK CFI 4be4c .cfa: x29 96 +
STACK CFI INIT 4bea4 290 .cfa: sp 0 +
STACK CFI 4bea8 .cfa: sp 128 +
STACK CFI 4bec0 .cfa: x29 80 + x19: .cfa -8 + ^ x20: .cfa -16 + ^ x21: .cfa -24 + ^ x22: .cfa -32 + ^ x23: .cfa -40 + ^ x24: .cfa -48 + ^ x25: .cfa -56 + ^ x26: .cfa -64 + ^ .ra: .cfa -72 + ^ x29: .cfa -80 + ^
STACK CFI 4c114 .cfa: sp 128 +
STACK CFI 4c12c .cfa: sp 0 +
STACK CFI 4c130 .cfa: x29 80 +
STACK CFI INIT 4c134 ddc .cfa: sp 0 +
STACK CFI 4c138 .cfa: sp 144 +
STACK CFI 4c154 .cfa: x29 96 + x19: .cfa -8 + ^ x20: .cfa -16 + ^ x21: .cfa -24 + ^ x22: .cfa -32 + ^ x23: .cfa -40 + ^ x24: .cfa -48 + ^ x25: .cfa -56 + ^ x26: .cfa -64 + ^ x27: .cfa -72 + ^ x28: .cfa -80 + ^ .ra: .cfa -88 + ^ x29: .cfa -96 + ^
STACK CFI 4cde8 .cfa: sp 144 +
STACK CFI 4ce04 .cfa: sp 0 +
STACK CFI 4ce08 .cfa: x29 96 +
STACK CFI INIT 4cf10 1d0 .cfa: sp 0 +
STACK CFI 4cf14 .cfa: sp 80 +
STACK CFI 4cf28 .cfa: x29 80 + x19: .cfa -8 + ^ x20: .cfa -16 + ^ x21: .cfa -24 + ^ x22: .cfa -32 + ^ x23: .cfa -40 + ^ x24: .cfa -48 + ^ x25: .cfa -64 + ^ .ra: .cfa -72 + ^ x29: .cfa -80 + ^
STACK CFI 4d0c8 .cfa: sp 80 +
STACK CFI 4d0dc .cfa: sp 0 +
STACK CFI INIT 4d0e0 23c .cfa: sp 0 +
STACK CFI 4d0e4 .cfa: sp 112 +
STACK CFI 4d0f8 .cfa: x29 64 + x19: .cfa -8 + ^ x20: .cfa -16 + ^ x21: .cfa -24 + ^ x22: .cfa -32 + ^ x23: .cfa -40 + ^ x24: .cfa -48 + ^ .ra: .cfa -56 + ^ x29: .cfa -64 + ^
STACK CFI 4d2d4 .cfa: sp 112 +
STACK CFI 4d2e8 .cfa: sp 0 +
STACK CFI 4d2ec .cfa: x29 64 +
STACK CFI INIT 4d31c 30c .cfa: sp 0 +
STACK CFI 4d320 .cfa: sp 80 +
STACK CFI 4d334 .cfa: x29 64 + x19: .cfa -8 + ^ x20: .cfa -16 + ^ x21: .cfa -24 + ^ x22: .cfa -32 + ^ x23: .cfa -40 + ^ x24: .cfa -48 + ^ .ra: .cfa -56 + ^ x29: .cfa -64 + ^
STACK CFI 4d4b0 .cfa: sp 80 +
STACK CFI 4d4c4 .cfa: sp 0 +
STACK CFI 4d4c8 .cfa: x29 64 +
STACK CFI INIT 4d628 178 .cfa: sp 0 +
STACK CFI 4d62c .cfa: sp 80 +
STACK CFI 4d640 .cfa: x29 64 + x19: .cfa -8 + ^ x20: .cfa -16 + ^ x21: .cfa -24 + ^ x22: .cfa -32 + ^ x23: .cfa -40 + ^ x24: .cfa -48 + ^ .ra: .cfa -56 + ^ x29: .cfa -64 + ^
STACK CFI 4d784 .cfa: sp 80 +
STACK CFI 4d798 .cfa: sp 0 +
STACK CFI 4d79c .cfa: x29 64 +
STACK CFI INIT 4d7a0 178 .cfa: sp 0 +
STACK CFI 4d7a4 .cfa: sp 80 +
STACK CFI 4d7b8 .cfa: x29 64 + x19: .cfa -8 + ^ x20: .cfa -16 + ^ x21: .cfa -24 + ^ x22: .cfa -32 + ^ x23: .cfa -40 + ^ x24: .cfa -48 + ^ .ra: .cfa -56 + ^ x29: .cfa -64 + ^
STACK CFI 4d8fc .cfa: sp 80 +
STACK CFI 4d910 .cfa: sp 0 +
STACK CFI 4d914 .cfa: x29 64 +
STACK CFI INIT 4d918 240 .cfa: sp 0 +
STACK CFI 4d91c .cfa: sp 96 +
STACK CFI 4d934 .cfa: x29 96 + x19: .cfa -8 + ^ x20: .cfa -16 + ^ x21: .cfa -24 + ^ x22: .cfa -32 + ^ x23: .cfa -40 + ^ x24: .cfa -48 + ^ x25: .cfa -56 + ^ x26: .cfa -64 + ^ x27: .cfa -72 + ^ x28: .cfa -80 + ^ .ra: .cfa -88 + ^ x29: .cfa -96 + ^
STACK CFI 4db3c .cfa: sp 96 +
STACK CFI 4db54 .cfa: sp 0 +
STACK CFI INIT 4e7cc 154 .cfa: sp 0 +
STACK CFI 4e7d0 .cfa: sp 96 +
STACK CFI 4e7e4 .cfa: x29 64 + x19: .cfa -8 + ^ x20: .cfa -16 + ^ x21: .cfa -24 + ^ x22: .cfa -32 + ^ x23: .cfa -48 + ^ .ra: .cfa -56 + ^ x29: .cfa -64 + ^
STACK CFI 4e8c4 .cfa: sp 96 +
STACK CFI 4e8d8 .cfa: sp 0 +
STACK CFI 4e8dc .cfa: x29 64 +
STACK CFI INIT 4eb8c 44 .cfa: sp 0 +
STACK CFI 4eb90 .cfa: sp 32 +
STACK CFI 4eb98 .cfa: x29 32 + x19: .cfa -16 + ^ .ra: .cfa -24 + ^ x29: .cfa -32 + ^
STACK CFI 4ebb4 .cfa: sp 32 +
STACK CFI 4ebbc .cfa: sp 0 +
STACK CFI 4ebc0 .cfa: x29 32 +
STACK CFI 4ebc4 .cfa: sp 32 +
STACK CFI 4ebcc .cfa: sp 0 +
STACK CFI INIT 4ebd0 1d0 .cfa: sp 0 +
STACK CFI 4ebd4 .cfa: sp 64 +
STACK CFI 4ebe4 .cfa: x29 64 + x19: .cfa -8 + ^ x20: .cfa -16 + ^ x21: .cfa -24 + ^ x22: .cfa -32 + ^ x23: .cfa -40 + ^ x24: .cfa -48 + ^ .ra: .cfa -56 + ^ x29: .cfa -64 + ^
STACK CFI 4eca4 .cfa: sp 64 +
STACK CFI 4ecb4 .cfa: sp 0 +
STACK CFI 4ecb8 .cfa: x29 64 +
STACK CFI INIT 4eda0 17c .cfa: sp 0 +
STACK CFI INIT 4f2d4 a0 .cfa: sp 0 +
STACK CFI 4f2d8 .cfa: sp 48 +
STACK CFI 4f2e4 .cfa: x29 48 + x19: .cfa -8 + ^ x20: .cfa -16 + ^ x21: .cfa -24 + ^ x22: .cfa -32 + ^ .ra: .cfa -40 + ^ x29: .cfa -48 + ^
STACK CFI 4f350 .cfa: sp 48 +
STACK CFI 4f35c .cfa: sp 0 +
STACK CFI 4f360 .cfa: sp 48 +
STACK CFI 4f36c .cfa: sp 0 +
STACK CFI 4f370 .cfa: x29 48 +
STACK CFI INIT 50028 158 .cfa: sp 0 +
STACK CFI 5002c .cfa: sp 96 +
STACK CFI 50040 .cfa: x29 64 + x19: .cfa -8 + ^ x20: .cfa -16 + ^ x21: .cfa -24 + ^ x22: .cfa -32 + ^ x23: .cfa -48 + ^ .ra: .cfa -56 + ^ x29: .cfa -64 + ^
STACK CFI 50124 .cfa: sp 96 +
STACK CFI 50138 .cfa: sp 0 +
STACK CFI 5013c .cfa: x29 64 +
STACK CFI INIT 50180 190 .cfa: sp 0 +
STACK CFI INIT 50e0c 1dc .cfa: sp 0 +
STACK CFI 50e10 .cfa: sp 80 +
STACK CFI 50e24 .cfa: x29 80 + x19: .cfa -8 + ^ x20: .cfa -16 + ^ x21: .cfa -24 + ^ x22: .cfa -32 + ^ x23: .cfa -40 + ^ x24: .cfa -48 + ^ x25: .cfa -64 + ^ .ra: .cfa -72 + ^ x29: .cfa -80 + ^
STACK CFI 50fd0 .cfa: sp 80 +
STACK CFI 50fe4 .cfa: sp 0 +
STACK CFI INIT 52418 124 .cfa: sp 0 +
STACK CFI 52448 .cfa: sp 32 +
STACK CFI 52450 .cfa: x29 32 + x19: .cfa -8 + ^ x20: .cfa -16 + ^ .ra: .cfa -24 + ^ x29: .cfa -32 + ^
STACK CFI 52530 .cfa: sp 32 +
STACK CFI 52538 .cfa: sp 0 +
STACK CFI INIT 52c98 320 .cfa: sp 0 +
STACK CFI 52c9c .cfa: sp 64 +
STACK CFI 52cac .cfa: x29 64 + x19: .cfa -8 + ^ x20: .cfa -16 + ^ x21: .cfa -24 + ^ x22: .cfa -32 + ^ x23: .cfa -40 + ^ x24: .cfa -48 + ^ .ra: .cfa -56 + ^ x29: .cfa -64 + ^
STACK CFI 52d28 .cfa: sp 64 +
STACK CFI 52d38 .cfa: sp 0 +
STACK CFI 52d3c .cfa: x29 64 +
STACK CFI 52f10 .cfa: sp 64 +
STACK CFI 52f20 .cfa: sp 0 +
STACK CFI 52f24 .cfa: x29 64 +
STACK CFI 52f34 .cfa: sp 64 +
STACK CFI 52f44 .cfa: sp 0 +
STACK CFI 52f48 .cfa: x29 64 +
STACK CFI INIT 52fb8 a0 .cfa: sp 0 +
STACK CFI 52fbc .cfa: sp 48 +
STACK CFI 52fc8 .cfa: x29 48 + x19: .cfa -8 + ^ x20: .cfa -16 + ^ x21: .cfa -24 + ^ x22: .cfa -32 + ^ .ra: .cfa -40 + ^ x29: .cfa -48 + ^
STACK CFI 53034 .cfa: sp 48 +
STACK CFI 53040 .cfa: sp 0 +
STACK CFI 53044 .cfa: sp 48 +
STACK CFI 53050 .cfa: sp 0 +
STACK CFI 53054 .cfa: x29 48 +
STACK CFI INIT 53f08 160 .cfa: sp 0 +
STACK CFI 53f0c .cfa: sp 64 +
STACK CFI 53f1c .cfa: x29 64 + x19: .cfa -8 + ^ x20: .cfa -16 + ^ x21: .cfa -24 + ^ x22: .cfa -32 + ^ x23: .cfa -48 + ^ .ra: .cfa -56 + ^ x29: .cfa -64 + ^
STACK CFI 54014 .cfa: sp 64 +
STACK CFI 54024 .cfa: sp 0 +
STACK CFI 54028 .cfa: x29 64 +
STACK CFI INIT 54068 214 .cfa: sp 0 +
STACK CFI 5406c .cfa: sp 128 +
STACK CFI 54088 .cfa: x29 96 + x19: .cfa -8 + ^ x20: .cfa -16 + ^ x21: .cfa -24 + ^ x22: .cfa -32 + ^ x23: .cfa -40 + ^ x24: .cfa -48 + ^ x25: .cfa -56 + ^ x26: .cfa -64 + ^ x27: .cfa -80 + ^ .ra: .cfa -88 + ^ x29: .cfa -96 + ^
STACK CFI 54204 .cfa: sp 128 +
STACK CFI 54220 .cfa: sp 0 +
STACK CFI 54224 .cfa: x29 96 +
STACK CFI INIT 55f18 290 .cfa: sp 0 +
STACK CFI 55f1c .cfa: sp 16 +
STACK CFI 55f20 .cfa: x29 16 + .ra: .cfa -8 + ^ x29: .cfa -16 + ^
STACK CFI 55fac .cfa: sp 16 +
STACK CFI 55fb0 .cfa: sp 0 +
STACK CFI 55fb4 .cfa: x29 16 +
STACK CFI 56004 .cfa: sp 16 +
STACK CFI 56008 .cfa: sp 0 +
STACK CFI 5600c .cfa: x29 16 +
STACK CFI 56170 .cfa: sp 16 +
STACK CFI 56174 .cfa: sp 0 +
STACK CFI 56178 .cfa: x29 16 +
STACK CFI INIT 561a8 158 .cfa: sp 0 +
STACK CFI 561ac .cfa: sp 112 +
STACK CFI 561c8 .cfa: x29 96 + x19: .cfa -8 + ^ x20: .cfa -16 + ^ x21: .cfa -24 + ^ x22: .cfa -32 + ^ x23: .cfa -40 + ^ x24: .cfa -48 + ^ x25: .cfa -56 + ^ x26: .cfa -64 + ^ x27: .cfa -72 + ^ x28: .cfa -80 + ^ .ra: .cfa -88 + ^ x29: .cfa -96 + ^
STACK CFI 562b0 .cfa: sp 112 +
STACK CFI 562b4 .cfa: x29 96 +
STACK CFI 562bc .cfa: sp 112 +
STACK CFI 562d8 .cfa: sp 0 +
STACK CFI 562dc .cfa: x29 96 +
STACK CFI 562fc .cfa: sp 112 +
STACK CFI INIT 56300 e54 .cfa: sp 0 +
STACK CFI 56304 .cfa: sp 192 +
STACK CFI 56320 .cfa: x29 96 + x19: .cfa -8 + ^ x20: .cfa -16 + ^ x21: .cfa -24 + ^ x22: .cfa -32 + ^ x23: .cfa -40 + ^ x24: .cfa -48 + ^ x25: .cfa -56 + ^ x26: .cfa -64 + ^ x27: .cfa -72 + ^ x28: .cfa -80 + ^ .ra: .cfa -88 + ^ x29: .cfa -96 + ^
STACK CFI 5703c .cfa: sp 192 +
STACK CFI 57058 .cfa: sp 0 +
STACK CFI 5705c .cfa: x29 96 +
STACK CFI INIT 57154 1068 .cfa: sp 0 +
STACK CFI 57158 .cfa: sp 288 +
STACK CFI 57174 .cfa: x29 96 + x19: .cfa -8 + ^ x20: .cfa -16 + ^ x21: .cfa -24 + ^ x22: .cfa -32 + ^ x23: .cfa -40 + ^ x24: .cfa -48 + ^ x25: .cfa -56 + ^ x26: .cfa -64 + ^ x27: .cfa -72 + ^ x28: .cfa -80 + ^ .ra: .cfa -88 + ^ x29: .cfa -96 + ^
STACK CFI 57f04 .cfa: sp 288 +
STACK CFI 57f20 .cfa: sp 0 +
STACK CFI 57f24 .cfa: x29 96 +
STACK CFI INIT 581bc 520 .cfa: sp 0 +
STACK CFI 581c0 .cfa: sp 144 +
STACK CFI 581dc .cfa: x29 96 + x19: .cfa -8 + ^ x20: .cfa -16 + ^ x21: .cfa -24 + ^ x22: .cfa -32 + ^ x23: .cfa -40 + ^ x24: .cfa -48 + ^ x25: .cfa -56 + ^ x26: .cfa -64 + ^ x27: .cfa -72 + ^ x28: .cfa -80 + ^ .ra: .cfa -88 + ^ x29: .cfa -96 + ^
STACK CFI 586b8 .cfa: sp 144 +
STACK CFI 586d4 .cfa: sp 0 +
STACK CFI 586d8 .cfa: x29 96 +
STACK CFI INIT 5907c 136c .cfa: sp 0 +
STACK CFI 59080 .cfa: sp 224 +
STACK CFI 5909c .cfa: x29 96 + x19: .cfa -8 + ^ x20: .cfa -16 + ^ x21: .cfa -24 + ^ x22: .cfa -32 + ^ x23: .cfa -40 + ^ x24: .cfa -48 + ^ x25: .cfa -56 + ^ x26: .cfa -64 + ^ x27: .cfa -72 + ^ x28: .cfa -80 + ^ .ra: .cfa -88 + ^ x29: .cfa -96 + ^
STACK CFI 5a3c4 .cfa: sp 224 +
STACK CFI 5a3e0 .cfa: sp 0 +
STACK CFI 5a3e4 .cfa: x29 96 +
STACK CFI INIT 5a3e8 1b8 .cfa: sp 0 +
STACK CFI INIT 2c170 50 .cfa: sp 0 +
STACK CFI 2c174 .cfa: sp 32 +
STACK CFI 2c17c .cfa: x29 32 + x19: .cfa -8 + ^ x20: .cfa -16 + ^ .ra: .cfa -24 + ^ x29: .cfa -32 + ^
STACK CFI INIT 2d034 18c .cfa: sp 0 +
STACK CFI 2d038 .cfa: sp 112 +
STACK CFI 2d048 .cfa: x29 48 + x19: .cfa -8 + ^ x20: .cfa -16 + ^ x21: .cfa -32 + ^ .ra: .cfa -40 + ^ x29: .cfa -48 + ^
STACK CFI 2d118 .cfa: sp 112 +
STACK CFI 2d128 .cfa: sp 0 +
STACK CFI 2d12c .cfa: x29 48 +
STACK CFI INIT 2d1c0 2b8 .cfa: sp 0 +
STACK CFI 2d1c4 .cfa: sp 160 +
STACK CFI 2d1e0 .cfa: x29 96 + x19: .cfa -8 + ^ x20: .cfa -16 + ^ x21: .cfa -24 + ^ x22: .cfa -32 + ^ x23: .cfa -40 + ^ x24: .cfa -48 + ^ x25: .cfa -56 + ^ x26: .cfa -64 + ^ x27: .cfa -72 + ^ x28: .cfa -80 + ^ .ra: .cfa -88 + ^ x29: .cfa -96 + ^
STACK CFI 2d218 .cfa: sp 160 +
STACK CFI 2d234 .cfa: sp 0 +
STACK CFI 2d238 .cfa: x29 96 +
STACK CFI INIT 2d478 114 .cfa: sp 0 +
STACK CFI 2d47c .cfa: sp 64 +
STACK CFI 2d48c .cfa: x29 64 + x19: .cfa -8 + ^ x20: .cfa -16 + ^ x21: .cfa -24 + ^ x22: .cfa -32 + ^ x23: .cfa -48 + ^ .ra: .cfa -56 + ^ x29: .cfa -64 + ^
STACK CFI 2d568 .cfa: sp 64 +
STACK CFI 2d578 .cfa: sp 0 +
STACK CFI 2d57c .cfa: x29 64 +
STACK CFI INIT 2d58c 134 .cfa: sp 0 +
STACK CFI 2d590 .cfa: sp 48 +
STACK CFI 2d59c .cfa: x29 48 + x19: .cfa -8 + ^ x20: .cfa -16 + ^ x21: .cfa -24 + ^ x22: .cfa -32 + ^ .ra: .cfa -40 + ^ x29: .cfa -48 + ^
STACK CFI 2d688 .cfa: sp 48 +
STACK CFI 2d694 .cfa: sp 0 +
STACK CFI 2d698 .cfa: sp 48 +
STACK CFI 2d6a4 .cfa: sp 0 +
STACK CFI 2d6a8 .cfa: x29 48 +
STACK CFI INIT 2d6d4 22c .cfa: sp 0 +
STACK CFI 2d6d8 .cfa: sp 96 +
STACK CFI 2d6f0 .cfa: x29 96 + x19: .cfa -8 + ^ x20: .cfa -16 + ^ x21: .cfa -24 + ^ x22: .cfa -32 + ^ x23: .cfa -40 + ^ x24: .cfa -48 + ^ x25: .cfa -56 + ^ x26: .cfa -64 + ^ x27: .cfa -80 + ^ .ra: .cfa -88 + ^ x29: .cfa -96 + ^
STACK CFI 2d894 .cfa: sp 96 +
STACK CFI 2d8ac .cfa: sp 0 +
STACK CFI 2d8b0 .cfa: x29 96 +
STACK CFI INIT 2d928 50 .cfa: sp 0 +
STACK CFI 2d92c .cfa: sp 32 +
STACK CFI 2d934 .cfa: x29 32 + x19: .cfa -8 + ^ x20: .cfa -16 + ^ .ra: .cfa -24 + ^ x29: .cfa -32 + ^
STACK CFI INIT 2da54 3fc .cfa: sp 0 +
STACK CFI 2da58 .cfa: sp 224 +
STACK CFI 2da74 .cfa: x29 96 + x19: .cfa -8 + ^ x20: .cfa -16 + ^ x21: .cfa -24 + ^ x22: .cfa -32 + ^ x23: .cfa -40 + ^ x24: .cfa -48 + ^ x25: .cfa -56 + ^ x26: .cfa -64 + ^ x27: .cfa -72 + ^ x28: .cfa -80 + ^ .ra: .cfa -88 + ^ x29: .cfa -96 + ^
STACK CFI 2dd4c .cfa: sp 224 +
STACK CFI 2dd68 .cfa: sp 0 +
STACK CFI 2dd6c .cfa: x29 96 +
STACK CFI INIT 2de50 498 .cfa: sp 0 +
STACK CFI 2de54 .cfa: sp 176 +
STACK CFI 2de68 .cfa: x29 64 + x19: .cfa -8 + ^ x20: .cfa -16 + ^ x21: .cfa -24 + ^ x22: .cfa -32 + ^ x23: .cfa -40 + ^ x24: .cfa -48 + ^ .ra: .cfa -56 + ^ x29: .cfa -64 + ^
STACK CFI 2e19c .cfa: sp 176 +
STACK CFI 2e1b0 .cfa: sp 0 +
STACK CFI 2e1b4 .cfa: x29 64 +
STACK CFI INIT 2e338 74 .cfa: sp 0 +
STACK CFI 2e33c .cfa: sp 48 +
STACK CFI 2e348 .cfa: x29 32 + x19: .cfa -8 + ^ x20: .cfa -16 + ^ .ra: .cfa -24 + ^ x29: .cfa -32 + ^
STACK CFI 2e394 .cfa: sp 48 +
STACK CFI 2e3a0 .cfa: sp 0 +
STACK CFI 2e3a4 .cfa: x29 32 +
STACK CFI INIT 2e42c 154 .cfa: sp 0 +
STACK CFI 2e430 .cfa: sp 384 +
STACK CFI 2e444 .cfa: x29 64 + x19: .cfa -8 + ^ x20: .cfa -16 + ^ x21: .cfa -24 + ^ x22: .cfa -32 + ^ x23: .cfa -40 + ^ x28: .cfa -48 + ^ .ra: .cfa -56 + ^ x29: .cfa -64 + ^
STACK CFI 2e528 .cfa: sp 384 +
STACK CFI 2e53c .cfa: sp 0 +
STACK CFI 2e540 .cfa: x29 64 +
STACK CFI INIT 2e5b4 12c .cfa: sp 0 +
STACK CFI 2e5b8 .cfa: sp 80 +
STACK CFI 2e5cc .cfa: x29 80 + x19: .cfa -8 + ^ x20: .cfa -16 + ^ x21: .cfa -24 + ^ x22: .cfa -32 + ^ x23: .cfa -40 + ^ x24: .cfa -48 + ^ x25: .cfa -56 + ^ x26: .cfa -64 + ^ .ra: .cfa -72 + ^ x29: .cfa -80 + ^
STACK CFI 2e694 .cfa: sp 80 +
STACK CFI 2e6a8 .cfa: sp 0 +
STACK CFI 2e6ac .cfa: x29 80 +
STACK CFI INIT 2e784 1a4 .cfa: sp 0 +
STACK CFI 2e788 .cfa: sp 112 +
STACK CFI 2e7a0 .cfa: x29 80 + x19: .cfa -8 + ^ x20: .cfa -16 + ^ x21: .cfa -24 + ^ x22: .cfa -32 + ^ x23: .cfa -40 + ^ x24: .cfa -48 + ^ x25: .cfa -56 + ^ x26: .cfa -64 + ^ .ra: .cfa -72 + ^ x29: .cfa -80 + ^
STACK CFI 2e890 .cfa: sp 112 +
STACK CFI 2e8a8 .cfa: sp 0 +
STACK CFI 2e8ac .cfa: x29 80 +
STACK CFI INIT 2e928 1dc .cfa: sp 0 +
STACK CFI 2e92c .cfa: sp 128 +
STACK CFI 2e948 .cfa: x29 96 + x19: .cfa -8 + ^ x20: .cfa -16 + ^ x21: .cfa -24 + ^ x22: .cfa -32 + ^ x23: .cfa -40 + ^ x24: .cfa -48 + ^ x25: .cfa -56 + ^ x26: .cfa -64 + ^ x27: .cfa -80 + ^ .ra: .cfa -88 + ^ x29: .cfa -96 + ^
STACK CFI 2eab4 .cfa: sp 128 +
STACK CFI 2ead0 .cfa: sp 0 +
STACK CFI 2ead4 .cfa: x29 96 +
STACK CFI INIT 2eb18 178 .cfa: sp 0 +
STACK CFI 2eb1c .cfa: sp 80 +
STACK CFI 2eb30 .cfa: x29 80 + x19: .cfa -8 + ^ x20: .cfa -16 + ^ x21: .cfa -24 + ^ x22: .cfa -32 + ^ x23: .cfa -40 + ^ x24: .cfa -48 + ^ x25: .cfa -64 + ^ .ra: .cfa -72 + ^ x29: .cfa -80 + ^
STACK CFI 2ec5c .cfa: sp 80 +
STACK CFI 2ec70 .cfa: sp 0 +
STACK CFI 2ec74 .cfa: x29 80 +
STACK CFI INIT 2edd8 228 .cfa: sp 0 +
STACK CFI 2eddc .cfa: sp 128 +
STACK CFI 2edf4 .cfa: x29 80 + x19: .cfa -8 + ^ x20: .cfa -16 + ^ x21: .cfa -24 + ^ x22: .cfa -32 + ^ x23: .cfa -40 + ^ x24: .cfa -48 + ^ x25: .cfa -64 + ^ .ra: .cfa -72 + ^ x29: .cfa -80 + ^
STACK CFI 2ef90 .cfa: sp 128 +
STACK CFI 2efa8 .cfa: sp 0 +
STACK CFI 2efac .cfa: x29 80 +
STACK CFI INIT 2f75c 134 .cfa: sp 0 +
STACK CFI 2f760 .cfa: sp 128 +
STACK CFI 2f774 .cfa: x29 64 + x19: .cfa -8 + ^ x20: .cfa -16 + ^ x21: .cfa -24 + ^ x22: .cfa -32 + ^ x23: .cfa -40 + ^ x24: .cfa -48 + ^ .ra: .cfa -56 + ^ x29: .cfa -64 + ^
STACK CFI 2f840 .cfa: sp 128 +
STACK CFI 2f854 .cfa: sp 0 +
STACK CFI 2f858 .cfa: x29 64 +
STACK CFI INIT 2f898 ec .cfa: sp 0 +
STACK CFI 2f89c .cfa: sp 48 +
STACK CFI 2f8a8 .cfa: x29 48 + x19: .cfa -8 + ^ x20: .cfa -16 + ^ x21: .cfa -24 + ^ x22: .cfa -32 + ^ .ra: .cfa -40 + ^ x29: .cfa -48 + ^
STACK CFI 2f8f4 .cfa: sp 48 +
STACK CFI 2f900 .cfa: sp 0 +
STACK CFI 2f904 .cfa: x29 48 +
STACK CFI 2f908 .cfa: sp 48 +
STACK CFI 2f914 .cfa: sp 0 +
STACK CFI 2f918 .cfa: x29 48 +
STACK CFI INIT 2f984 e0 .cfa: sp 0 +
STACK CFI 2f988 .cfa: sp 32 +
STACK CFI 2f990 .cfa: x29 32 + x19: .cfa -8 + ^ x20: .cfa -16 + ^ .ra: .cfa -24 + ^ x29: .cfa -32 + ^
STACK CFI 2fa28 .cfa: sp 32 +
STACK CFI 2fa30 .cfa: sp 0 +
STACK CFI 2fa34 .cfa: x29 32 +
STACK CFI INIT 302ac 84 .cfa: sp 0 +
STACK CFI 302b0 .cfa: sp 48 +
STACK CFI 302bc .cfa: x29 48 + x19: .cfa -8 + ^ x20: .cfa -16 + ^ x21: .cfa -32 + ^ .ra: .cfa -40 + ^ x29: .cfa -48 + ^
STACK CFI 302dc .cfa: sp 48 +
STACK CFI 302e8 .cfa: sp 0 +
STACK CFI 302ec .cfa: x29 48 +
STACK CFI 3030c .cfa: sp 48 +
STACK CFI 30318 .cfa: sp 0 +
STACK CFI 3031c .cfa: sp 48 +
STACK CFI 30328 .cfa: sp 0 +
STACK CFI 3032c .cfa: x29 48 +
STACK CFI INIT 30330 12c .cfa: sp 0 +
STACK CFI 30334 .cfa: sp 112 +
STACK CFI 3034c .cfa: x29 64 + x19: .cfa -8 + ^ x20: .cfa -16 + ^ x21: .cfa -24 + ^ x22: .cfa -32 + ^ x23: .cfa -40 + ^ x24: .cfa -48 + ^ .ra: .cfa -56 + ^ x29: .cfa -64 + ^ v8: .cfa -80 + ^
STACK CFI 30438 .cfa: sp 112 +
STACK CFI 30450 .cfa: sp 0 +
STACK CFI 30454 .cfa: x29 64 +
STACK CFI INIT 3045c 84 .cfa: sp 0 +
STACK CFI 30460 .cfa: sp 48 +
STACK CFI 3046c .cfa: x29 48 + x19: .cfa -8 + ^ x20: .cfa -16 + ^ x21: .cfa -32 + ^ .ra: .cfa -40 + ^ x29: .cfa -48 + ^
STACK CFI 3048c .cfa: sp 48 +
STACK CFI 30498 .cfa: sp 0 +
STACK CFI 3049c .cfa: x29 48 +
STACK CFI 304bc .cfa: sp 48 +
STACK CFI 304c8 .cfa: sp 0 +
STACK CFI 304cc .cfa: sp 48 +
STACK CFI 304d8 .cfa: sp 0 +
STACK CFI 304dc .cfa: x29 48 +
STACK CFI INIT 308a4 2b0 .cfa: sp 0 +
STACK CFI 308a8 .cfa: sp 160 +
STACK CFI 308bc .cfa: x29 64 + x19: .cfa -8 + ^ x20: .cfa -16 + ^ x21: .cfa -24 + ^ x22: .cfa -32 + ^ x23: .cfa -48 + ^ .ra: .cfa -56 + ^ x29: .cfa -64 + ^
STACK CFI 30ad0 .cfa: sp 160 +
STACK CFI 30ae4 .cfa: sp 0 +
STACK CFI 30ae8 .cfa: x29 64 +
STACK CFI INIT 30b54 168 .cfa: sp 0 +
STACK CFI 30b58 .cfa: sp 128 +
STACK CFI 30b6c .cfa: x29 64 + x19: .cfa -8 + ^ x20: .cfa -16 + ^ x21: .cfa -24 + ^ x22: .cfa -32 + ^ x23: .cfa -40 + ^ x24: .cfa -48 + ^ .ra: .cfa -56 + ^ x29: .cfa -64 + ^
STACK CFI 30c44 .cfa: sp 128 +
STACK CFI 30c58 .cfa: sp 0 +
STACK CFI 30c5c .cfa: x29 64 +
STACK CFI INIT 30cbc 10c .cfa: sp 0 +
STACK CFI 30cc0 .cfa: sp 48 +
STACK CFI 30ccc .cfa: x29 48 + x19: .cfa -8 + ^ x20: .cfa -16 + ^ x21: .cfa -32 + ^ .ra: .cfa -40 + ^ x29: .cfa -48 + ^
STACK CFI 30db0 .cfa: sp 48 +
STACK CFI 30dbc .cfa: sp 0 +
STACK CFI 30dc0 .cfa: x29 48 +
STACK CFI INIT 30e1c 138 .cfa: sp 0 +
STACK CFI 30e20 .cfa: sp 144 +
STACK CFI 30e34 .cfa: x29 64 + x19: .cfa -8 + ^ x20: .cfa -16 + ^ x21: .cfa -24 + ^ x22: .cfa -32 + ^ x23: .cfa -40 + ^ x24: .cfa -48 + ^ .ra: .cfa -56 + ^ x29: .cfa -64 + ^
STACK CFI 30eec .cfa: sp 144 +
STACK CFI 30f00 .cfa: sp 0 +
STACK CFI 30f04 .cfa: x29 64 +
STACK CFI INIT 30f54 94 .cfa: sp 0 +
STACK CFI 30f58 .cfa: sp 48 +
STACK CFI 30f64 .cfa: x29 48 + x19: .cfa -8 + ^ x20: .cfa -16 + ^ x21: .cfa -24 + ^ x22: .cfa -32 + ^ .ra: .cfa -40 + ^ x29: .cfa -48 + ^
STACK CFI 30f6c .cfa: sp 48 +
STACK CFI 30f78 .cfa: sp 0 +
STACK CFI 30f7c .cfa: x29 48 +
STACK CFI 30fa0 .cfa: sp 48 +
STACK CFI 30fac .cfa: sp 0 +
STACK CFI 30fb0 .cfa: x29 48 +
STACK CFI 30fd4 .cfa: sp 48 +
STACK CFI 30fe0 .cfa: sp 0 +
STACK CFI 30fe4 .cfa: x29 48 +
STACK CFI INIT 30ffc 48 .cfa: sp 0 +
STACK CFI 31000 .cfa: sp 32 +
STACK CFI 31008 .cfa: x29 32 + x19: .cfa -8 + ^ x20: .cfa -16 + ^ .ra: .cfa -24 + ^ x29: .cfa -32 + ^
STACK CFI 31010 .cfa: sp 32 +
STACK CFI 31018 .cfa: sp 0 +
STACK CFI 3101c .cfa: x29 32 +
STACK CFI INIT 31044 13c .cfa: sp 0 +
STACK CFI 31048 .cfa: sp 144 +
STACK CFI 3105c .cfa: x29 64 + x19: .cfa -8 + ^ x20: .cfa -16 + ^ x21: .cfa -24 + ^ x22: .cfa -32 + ^ x23: .cfa -40 + ^ x24: .cfa -48 + ^ .ra: .cfa -56 + ^ x29: .cfa -64 + ^
STACK CFI 31114 .cfa: sp 144 +
STACK CFI 31128 .cfa: sp 0 +
STACK CFI 3112c .cfa: x29 64 +
STACK CFI INIT 31180 94 .cfa: sp 0 +
STACK CFI 31184 .cfa: sp 48 +
STACK CFI 31190 .cfa: x29 48 + x19: .cfa -8 + ^ x20: .cfa -16 + ^ x21: .cfa -24 + ^ x22: .cfa -32 + ^ .ra: .cfa -40 + ^ x29: .cfa -48 + ^
STACK CFI 31198 .cfa: sp 48 +
STACK CFI 311a4 .cfa: sp 0 +
STACK CFI 311a8 .cfa: x29 48 +
STACK CFI 311cc .cfa: sp 48 +
STACK CFI 311d8 .cfa: sp 0 +
STACK CFI 311dc .cfa: x29 48 +
STACK CFI 31200 .cfa: sp 48 +
STACK CFI 3120c .cfa: sp 0 +
STACK CFI 31210 .cfa: x29 48 +
STACK CFI INIT 31214 48 .cfa: sp 0 +
STACK CFI 31218 .cfa: sp 32 +
STACK CFI 31220 .cfa: x29 32 + x19: .cfa -8 + ^ x20: .cfa -16 + ^ .ra: .cfa -24 + ^ x29: .cfa -32 + ^
STACK CFI 31228 .cfa: sp 32 +
STACK CFI 31230 .cfa: sp 0 +
STACK CFI 31234 .cfa: x29 32 +
STACK CFI INIT 312b4 304 .cfa: sp 0 +
STACK CFI 312b8 .cfa: sp 144 +
STACK CFI 312d4 .cfa: x29 96 + x19: .cfa -8 + ^ x20: .cfa -16 + ^ x21: .cfa -24 + ^ x22: .cfa -32 + ^ x23: .cfa -40 + ^ x24: .cfa -48 + ^ x25: .cfa -56 + ^ x26: .cfa -64 + ^ x27: .cfa -72 + ^ x28: .cfa -80 + ^ .ra: .cfa -88 + ^ x29: .cfa -96 + ^
STACK CFI 31530 .cfa: sp 144 +
STACK CFI 3154c .cfa: sp 0 +
STACK CFI 31550 .cfa: x29 96 +
STACK CFI INIT 315b8 188 .cfa: sp 0 +
STACK CFI 315bc .cfa: sp 112 +
STACK CFI 315cc .cfa: x29 48 + x19: .cfa -8 + ^ x20: .cfa -16 + ^ x21: .cfa -32 + ^ .ra: .cfa -40 + ^ x29: .cfa -48 + ^
STACK CFI 31698 .cfa: sp 112 +
STACK CFI 316a8 .cfa: sp 0 +
STACK CFI 316ac .cfa: x29 48 +
STACK CFI INIT 31740 20 .cfa: sp 0 +
STACK CFI 31744 .cfa: sp 16 +
STACK CFI 31748 .cfa: x29 16 + .ra: .cfa -8 + ^ x29: .cfa -16 + ^
STACK CFI 31754 .cfa: sp 16 +
STACK CFI 31758 .cfa: sp 0 +
STACK CFI 3175c .cfa: x29 16 +
STACK CFI INIT 31914 44c .cfa: sp 0 +
STACK CFI 31918 .cfa: sp 224 +
STACK CFI 31934 .cfa: x29 96 + x19: .cfa -8 + ^ x20: .cfa -16 + ^ x21: .cfa -24 + ^ x22: .cfa -32 + ^ x23: .cfa -40 + ^ x24: .cfa -48 + ^ x25: .cfa -56 + ^ x26: .cfa -64 + ^ x27: .cfa -72 + ^ x28: .cfa -80 + ^ .ra: .cfa -88 + ^ x29: .cfa -96 + ^
STACK CFI 31c58 .cfa: sp 224 +
STACK CFI 31c74 .cfa: sp 0 +
STACK CFI 31c78 .cfa: x29 96 +
STACK CFI INIT 31d60 2a0 .cfa: sp 0 +
STACK CFI 31d64 .cfa: sp 176 +
STACK CFI 31d78 .cfa: x29 64 + x19: .cfa -8 + ^ x20: .cfa -16 + ^ x21: .cfa -24 + ^ x22: .cfa -32 + ^ x23: .cfa -48 + ^ .ra: .cfa -56 + ^ x29: .cfa -64 + ^
STACK CFI 31f28 .cfa: sp 176 +
STACK CFI 31f3c .cfa: sp 0 +
STACK CFI 31f40 .cfa: x29 64 +
STACK CFI INIT 32004 198 .cfa: sp 0 +
STACK CFI 32008 .cfa: sp 128 +
STACK CFI 32024 .cfa: x29 96 + x19: .cfa -8 + ^ x20: .cfa -16 + ^ x21: .cfa -24 + ^ x22: .cfa -32 + ^ x23: .cfa -40 + ^ x24: .cfa -48 + ^ x25: .cfa -56 + ^ x26: .cfa -64 + ^ x27: .cfa -72 + ^ x28: .cfa -80 + ^ .ra: .cfa -88 + ^ x29: .cfa -96 + ^
STACK CFI 32134 .cfa: sp 128 +
STACK CFI 32150 .cfa: sp 0 +
STACK CFI 32154 .cfa: x29 96 +
STACK CFI INIT 3219c 2ec .cfa: sp 0 +
STACK CFI 321a0 .cfa: sp 208 +
STACK CFI 321b4 .cfa: x29 64 + x19: .cfa -8 + ^ x20: .cfa -16 + ^ x21: .cfa -24 + ^ x22: .cfa -32 + ^ x23: .cfa -48 + ^ .ra: .cfa -56 + ^ x29: .cfa -64 + ^
STACK CFI 32348 .cfa: sp 208 +
STACK CFI 3235c .cfa: sp 0 +
STACK CFI 32360 .cfa: x29 64 +
STACK CFI INIT 32488 1a8 .cfa: sp 0 +
STACK CFI 3248c .cfa: sp 112 +
STACK CFI 324a0 .cfa: x29 64 + x19: .cfa -8 + ^ x20: .cfa -16 + ^ x21: .cfa -24 + ^ x22: .cfa -32 + ^ x23: .cfa -40 + ^ x24: .cfa -48 + ^ .ra: .cfa -56 + ^ x29: .cfa -64 + ^
STACK CFI 32580 .cfa: sp 112 +
STACK CFI 32594 .cfa: sp 0 +
STACK CFI 32598 .cfa: x29 64 +
STACK CFI INIT 32630 114 .cfa: sp 0 +
STACK CFI 32634 .cfa: sp 96 +
STACK CFI 32648 .cfa: x29 64 + x19: .cfa -8 + ^ x20: .cfa -16 + ^ x21: .cfa -24 + ^ x22: .cfa -32 + ^ x23: .cfa -40 + ^ x24: .cfa -48 + ^ .ra: .cfa -56 + ^ x29: .cfa -64 + ^
STACK CFI 32694 .cfa: sp 96 +
STACK CFI 326a8 .cfa: sp 0 +
STACK CFI 326ac .cfa: x29 64 +
STACK CFI INIT 32744 1f4 .cfa: sp 0 +
STACK CFI 32748 .cfa: sp 128 +
STACK CFI 32764 .cfa: x29 96 + x19: .cfa -8 + ^ x20: .cfa -16 + ^ x21: .cfa -24 + ^ x22: .cfa -32 + ^ x23: .cfa -40 + ^ x24: .cfa -48 + ^ x25: .cfa -56 + ^ x26: .cfa -64 + ^ x27: .cfa -72 + ^ x28: .cfa -80 + ^ .ra: .cfa -88 + ^ x29: .cfa -96 + ^
STACK CFI 328f0 .cfa: sp 128 +
STACK CFI 3290c .cfa: sp 0 +
STACK CFI 32910 .cfa: x29 96 +
STACK CFI INIT 32938 168 .cfa: sp 0 +
STACK CFI 3293c .cfa: sp 384 +
STACK CFI 32950 .cfa: x29 64 + x19: .cfa -8 + ^ x20: .cfa -16 + ^ x21: .cfa -24 + ^ x22: .cfa -32 + ^ x23: .cfa -40 + ^ x28: .cfa -48 + ^ .ra: .cfa -56 + ^ x29: .cfa -64 + ^
STACK CFI 32a48 .cfa: sp 384 +
STACK CFI 32a5c .cfa: sp 0 +
STACK CFI 32a60 .cfa: x29 64 +
STACK CFI INIT 32b34 174 .cfa: sp 0 +
STACK CFI 32b38 .cfa: sp 112 +
STACK CFI 32b48 .cfa: x29 48 + x19: .cfa -8 + ^ x20: .cfa -16 + ^ x21: .cfa -32 + ^ .ra: .cfa -40 + ^ x29: .cfa -48 + ^
STACK CFI 32c44 .cfa: sp 112 +
STACK CFI 32c54 .cfa: sp 0 +
STACK CFI 32c58 .cfa: x29 48 +
STACK CFI INIT 32d80 118 .cfa: sp 0 +
STACK CFI 32d84 .cfa: sp 144 +
STACK CFI 32d9c .cfa: x29 80 + x19: .cfa -8 + ^ x20: .cfa -16 + ^ x21: .cfa -24 + ^ x22: .cfa -32 + ^ x23: .cfa -40 + ^ x24: .cfa -48 + ^ x25: .cfa -64 + ^ .ra: .cfa -72 + ^ x29: .cfa -80 + ^
STACK CFI 32e44 .cfa: sp 144 +
STACK CFI 32e5c .cfa: sp 0 +
STACK CFI 32e60 .cfa: x29 80 +
STACK CFI INIT 32e9c 3bc .cfa: sp 0 +
STACK CFI 32ea0 .cfa: sp 112 +
STACK CFI 32eb8 .cfa: x29 80 + x19: .cfa -8 + ^ x20: .cfa -16 + ^ x21: .cfa -24 + ^ x22: .cfa -32 + ^ x23: .cfa -40 + ^ x24: .cfa -48 + ^ x25: .cfa -64 + ^ .ra: .cfa -72 + ^ x29: .cfa -80 + ^
STACK CFI 331e4 .cfa: sp 112 +
STACK CFI 331fc .cfa: sp 0 +
STACK CFI 33200 .cfa: x29 80 +
STACK CFI INIT 33258 408 .cfa: sp 0 +
STACK CFI 3325c .cfa: sp 224 +
STACK CFI 33278 .cfa: x29 96 + x19: .cfa -8 + ^ x20: .cfa -16 + ^ x21: .cfa -24 + ^ x22: .cfa -32 + ^ x23: .cfa -40 + ^ x24: .cfa -48 + ^ x25: .cfa -56 + ^ x26: .cfa -64 + ^ x27: .cfa -72 + ^ x28: .cfa -80 + ^ .ra: .cfa -88 + ^ x29: .cfa -96 + ^
STACK CFI 3355c .cfa: sp 224 +
STACK CFI 33578 .cfa: sp 0 +
STACK CFI 3357c .cfa: x29 96 +
STACK CFI INIT 33660 df4 .cfa: sp 0 +
STACK CFI 33664 .cfa: sp 192 +
STACK CFI 3367c .cfa: x29 80 + x19: .cfa -8 + ^ x20: .cfa -16 + ^ x21: .cfa -24 + ^ x22: .cfa -32 + ^ x23: .cfa -40 + ^ x24: .cfa -48 + ^ x25: .cfa -64 + ^ .ra: .cfa -72 + ^ x29: .cfa -80 + ^
STACK CFI 340c8 .cfa: sp 192 +
STACK CFI 340e0 .cfa: sp 0 +
STACK CFI 340e4 .cfa: x29 80 +
STACK CFI INIT 34454 e0 .cfa: sp 0 +
STACK CFI 34458 .cfa: sp 128 +
STACK CFI 34468 .cfa: x29 48 + x19: .cfa -8 + ^ x20: .cfa -16 + ^ x21: .cfa -32 + ^ .ra: .cfa -40 + ^ x29: .cfa -48 + ^
STACK CFI 34514 .cfa: sp 128 +
STACK CFI 34524 .cfa: sp 0 +
STACK CFI 34528 .cfa: x29 48 +
STACK CFI INIT 34538 198 .cfa: sp 0 +
STACK CFI 3453c .cfa: sp 128 +
STACK CFI 34558 .cfa: x29 96 + x19: .cfa -8 + ^ x20: .cfa -16 + ^ x21: .cfa -24 + ^ x22: .cfa -32 + ^ x23: .cfa -40 + ^ x24: .cfa -48 + ^ x25: .cfa -56 + ^ x26: .cfa -64 + ^ x27: .cfa -72 + ^ x28: .cfa -80 + ^ .ra: .cfa -88 + ^ x29: .cfa -96 + ^
STACK CFI 34668 .cfa: sp 128 +
STACK CFI 34684 .cfa: sp 0 +
STACK CFI 34688 .cfa: x29 96 +
STACK CFI INIT 346d0 2ec .cfa: sp 0 +
STACK CFI 346d4 .cfa: sp 208 +
STACK CFI 346e8 .cfa: x29 64 + x19: .cfa -8 + ^ x20: .cfa -16 + ^ x21: .cfa -24 + ^ x22: .cfa -32 + ^ x23: .cfa -48 + ^ .ra: .cfa -56 + ^ x29: .cfa -64 + ^
STACK CFI 3487c .cfa: sp 208 +
STACK CFI 34890 .cfa: sp 0 +
STACK CFI 34894 .cfa: x29 64 +
STACK CFI INIT 349bc 1a8 .cfa: sp 0 +
STACK CFI 349c0 .cfa: sp 112 +
STACK CFI 349d4 .cfa: x29 64 + x19: .cfa -8 + ^ x20: .cfa -16 + ^ x21: .cfa -24 + ^ x22: .cfa -32 + ^ x23: .cfa -40 + ^ x24: .cfa -48 + ^ .ra: .cfa -56 + ^ x29: .cfa -64 + ^
STACK CFI 34ab4 .cfa: sp 112 +
STACK CFI 34ac8 .cfa: sp 0 +
STACK CFI 34acc .cfa: x29 64 +
STACK CFI INIT 34b64 114 .cfa: sp 0 +
STACK CFI 34b68 .cfa: sp 96 +
STACK CFI 34b7c .cfa: x29 64 + x19: .cfa -8 + ^ x20: .cfa -16 + ^ x21: .cfa -24 + ^ x22: .cfa -32 + ^ x23: .cfa -40 + ^ x24: .cfa -48 + ^ .ra: .cfa -56 + ^ x29: .cfa -64 + ^
STACK CFI 34bc8 .cfa: sp 96 +
STACK CFI 34bdc .cfa: sp 0 +
STACK CFI 34be0 .cfa: x29 64 +
STACK CFI INIT 34d0c 118 .cfa: sp 0 +
STACK CFI 34d10 .cfa: sp 144 +
STACK CFI 34d28 .cfa: x29 80 + x19: .cfa -8 + ^ x20: .cfa -16 + ^ x21: .cfa -24 + ^ x22: .cfa -32 + ^ x23: .cfa -40 + ^ x24: .cfa -48 + ^ x25: .cfa -64 + ^ .ra: .cfa -72 + ^ x29: .cfa -80 + ^
STACK CFI 34dd0 .cfa: sp 144 +
STACK CFI 34de8 .cfa: sp 0 +
STACK CFI 34dec .cfa: x29 80 +
STACK CFI INIT 34e28 184 .cfa: sp 0 +
STACK CFI 34e2c .cfa: sp 160 +
STACK CFI 34e44 .cfa: x29 80 + x19: .cfa -8 + ^ x20: .cfa -16 + ^ x21: .cfa -24 + ^ x22: .cfa -32 + ^ x23: .cfa -40 + ^ x24: .cfa -48 + ^ x25: .cfa -56 + ^ x26: .cfa -64 + ^ .ra: .cfa -72 + ^ x29: .cfa -80 + ^
STACK CFI 34f44 .cfa: sp 160 +
STACK CFI 34f5c .cfa: sp 0 +
STACK CFI 34f60 .cfa: x29 80 +
STACK CFI INIT 34fb0 184 .cfa: sp 0 +
STACK CFI 34fb4 .cfa: sp 160 +
STACK CFI 34fcc .cfa: x29 80 + x19: .cfa -8 + ^ x20: .cfa -16 + ^ x21: .cfa -24 + ^ x22: .cfa -32 + ^ x23: .cfa -40 + ^ x24: .cfa -48 + ^ x25: .cfa -56 + ^ x26: .cfa -64 + ^ .ra: .cfa -72 + ^ x29: .cfa -80 + ^
STACK CFI 350cc .cfa: sp 160 +
STACK CFI 350e4 .cfa: sp 0 +
STACK CFI 350e8 .cfa: x29 80 +
STACK CFI INIT 35138 184 .cfa: sp 0 +
STACK CFI 3513c .cfa: sp 144 +
STACK CFI 35154 .cfa: x29 80 + x19: .cfa -8 + ^ x20: .cfa -16 + ^ x21: .cfa -24 + ^ x22: .cfa -32 + ^ x23: .cfa -40 + ^ x24: .cfa -48 + ^ x25: .cfa -56 + ^ x26: .cfa -64 + ^ .ra: .cfa -72 + ^ x29: .cfa -80 + ^
STACK CFI 35254 .cfa: sp 144 +
STACK CFI 3526c .cfa: sp 0 +
STACK CFI 35270 .cfa: x29 80 +
STACK CFI INIT 352c0 184 .cfa: sp 0 +
STACK CFI 352c4 .cfa: sp 160 +
STACK CFI 352dc .cfa: x29 80 + x19: .cfa -8 + ^ x20: .cfa -16 + ^ x21: .cfa -24 + ^ x22: .cfa -32 + ^ x23: .cfa -40 + ^ x24: .cfa -48 + ^ x25: .cfa -56 + ^ x26: .cfa -64 + ^ .ra: .cfa -72 + ^ x29: .cfa -80 + ^
STACK CFI 353dc .cfa: sp 160 +
STACK CFI 353f4 .cfa: sp 0 +
STACK CFI 353f8 .cfa: x29 80 +
STACK CFI INIT 35450 10c .cfa: sp 0 +
STACK CFI 35454 .cfa: sp 64 +
STACK CFI 35464 .cfa: x29 48 + x19: .cfa -8 + ^ x20: .cfa -16 + ^ x21: .cfa -24 + ^ x22: .cfa -32 + ^ .ra: .cfa -40 + ^ x29: .cfa -48 + ^
STACK CFI 35514 .cfa: sp 64 +
STACK CFI 35524 .cfa: sp 0 +
STACK CFI 35528 .cfa: x29 48 +
STACK CFI INIT 3555c a98 .cfa: sp 0 +
STACK CFI 35560 .cfa: sp 256 +
STACK CFI 35584 .cfa: x29 96 + x19: .cfa -8 + ^ x20: .cfa -16 + ^ x21: .cfa -24 + ^ x22: .cfa -32 + ^ x23: .cfa -40 + ^ x24: .cfa -48 + ^ x25: .cfa -56 + ^ x26: .cfa -64 + ^ x27: .cfa -72 + ^ x28: .cfa -80 + ^ .ra: .cfa -88 + ^ x29: .cfa -96 + ^ v8: .cfa -104 + ^ v9: .cfa -112 + ^ v10: .cfa -128 + ^
STACK CFI 35eb4 .cfa: sp 256 +
STACK CFI 35ed8 .cfa: sp 0 +
STACK CFI 35edc .cfa: x29 96 +
STACK CFI INIT 35ff4 5f0 .cfa: sp 0 +
STACK CFI 35ff8 .cfa: sp 224 +
STACK CFI 36018 .cfa: x29 96 + x19: .cfa -8 + ^ x20: .cfa -16 + ^ x21: .cfa -24 + ^ x22: .cfa -32 + ^ x23: .cfa -40 + ^ x24: .cfa -48 + ^ x25: .cfa -56 + ^ x26: .cfa -64 + ^ x27: .cfa -72 + ^ x28: .cfa -80 + ^ .ra: .cfa -88 + ^ x29: .cfa -96 + ^ v8: .cfa -112 + ^
STACK CFI 36558 .cfa: sp 224 +
STACK CFI 36578 .cfa: sp 0 +
STACK CFI 3657c .cfa: x29 96 +
STACK CFI INIT 365e4 134 .cfa: sp 0 +
STACK CFI 365e8 .cfa: sp 80 +
STACK CFI 365f8 .cfa: x29 48 + x19: .cfa -8 + ^ x20: .cfa -16 + ^ x21: .cfa -24 + ^ x22: .cfa -32 + ^ .ra: .cfa -40 + ^ x29: .cfa -48 + ^
STACK CFI 366fc .cfa: sp 80 +
STACK CFI 3670c .cfa: sp 0 +
STACK CFI 36710 .cfa: x29 48 +
STACK CFI INIT 36718 120 .cfa: sp 0 +
STACK CFI 3671c .cfa: sp 80 +
STACK CFI 3672c .cfa: x29 48 + x19: .cfa -8 + ^ x20: .cfa -16 + ^ x21: .cfa -24 + ^ x22: .cfa -32 + ^ .ra: .cfa -40 + ^ x29: .cfa -48 + ^
STACK CFI 3681c .cfa: sp 80 +
STACK CFI 3682c .cfa: sp 0 +
STACK CFI 36830 .cfa: x29 48 +
STACK CFI INIT 36838 198 .cfa: sp 0 +
STACK CFI 3683c .cfa: sp 96 +
STACK CFI 3684c .cfa: x29 48 + x19: .cfa -8 + ^ x20: .cfa -16 + ^ x21: .cfa -32 + ^ .ra: .cfa -40 + ^ x29: .cfa -48 + ^
STACK CFI 36928 .cfa: sp 96 +
STACK CFI 36938 .cfa: sp 0 +
STACK CFI 3693c .cfa: x29 48 +
STACK CFI INIT 36bc8 358 .cfa: sp 0 +
STACK CFI 36bcc .cfa: sp 112 +
STACK CFI 36be8 .cfa: x29 96 + x19: .cfa -8 + ^ x20: .cfa -16 + ^ x21: .cfa -24 + ^ x22: .cfa -32 + ^ x23: .cfa -40 + ^ x24: .cfa -48 + ^ x25: .cfa -56 + ^ x26: .cfa -64 + ^ x28: .cfa -80 + ^ .ra: .cfa -88 + ^ x29: .cfa -96 + ^ v8: .cfa -104 + ^ v9: .cfa -112 + ^
STACK CFI 36e30 .cfa: sp 112 +
STACK CFI 36e4c .cfa: sp 0 +
STACK CFI 36e50 .cfa: x29 96 +
STACK CFI 36e74 .cfa: sp 112 +
STACK CFI 36e90 .cfa: sp 0 +
STACK CFI 36e94 .cfa: x29 96 +
STACK CFI INIT 36f20 158 .cfa: sp 0 +
STACK CFI 36f24 .cfa: sp 128 +
STACK CFI 36f38 .cfa: x29 64 + x19: .cfa -8 + ^ x20: .cfa -16 + ^ x21: .cfa -24 + ^ x22: .cfa -32 + ^ x23: .cfa -48 + ^ .ra: .cfa -56 + ^ x29: .cfa -64 + ^
STACK CFI 37010 .cfa: sp 128 +
STACK CFI 37024 .cfa: sp 0 +
STACK CFI 37028 .cfa: x29 64 +
STACK CFI INIT 37078 8cc .cfa: sp 0 +
STACK CFI 3707c .cfa: sp 96 +
STACK CFI 37094 .cfa: x29 96 + x19: .cfa -8 + ^ x20: .cfa -16 + ^ x21: .cfa -24 + ^ x22: .cfa -32 + ^ x23: .cfa -40 + ^ x24: .cfa -48 + ^ x25: .cfa -56 + ^ x26: .cfa -64 + ^ x27: .cfa -72 + ^ x28: .cfa -80 + ^ .ra: .cfa -88 + ^ x29: .cfa -96 + ^
STACK CFI 37824 .cfa: sp 96 +
STACK CFI 3783c .cfa: sp 0 +
STACK CFI 37840 .cfa: x29 96 +
STACK CFI INIT 37944 74 .cfa: sp 0 +
STACK CFI 37948 .cfa: sp 48 +
STACK CFI 37954 .cfa: x29 32 + x19: .cfa -8 + ^ x20: .cfa -16 + ^ .ra: .cfa -24 + ^ x29: .cfa -32 + ^
STACK CFI 379a0 .cfa: sp 48 +
STACK CFI 379ac .cfa: sp 0 +
STACK CFI 379b0 .cfa: x29 32 +
STACK CFI INIT 37b60 304 .cfa: sp 0 +
STACK CFI 37b64 .cfa: sp 128 +
STACK CFI 37b80 .cfa: x29 96 + x19: .cfa -8 + ^ x20: .cfa -16 + ^ x21: .cfa -24 + ^ x22: .cfa -32 + ^ x23: .cfa -40 + ^ x24: .cfa -48 + ^ x25: .cfa -56 + ^ x26: .cfa -64 + ^ x27: .cfa -72 + ^ x28: .cfa -80 + ^ .ra: .cfa -88 + ^ x29: .cfa -96 + ^
STACK CFI 37de4 .cfa: sp 128 +
STACK CFI 37e00 .cfa: sp 0 +
STACK CFI 37e04 .cfa: x29 96 +
STACK CFI INIT 37e64 114 .cfa: sp 0 +
STACK CFI 37e68 .cfa: sp 80 +
STACK CFI 37e7c .cfa: x29 80 + x19: .cfa -8 + ^ x20: .cfa -16 + ^ x21: .cfa -24 + ^ x22: .cfa -32 + ^ x23: .cfa -40 + ^ x24: .cfa -48 + ^ x25: .cfa -56 + ^ x26: .cfa -64 + ^ .ra: .cfa -72 + ^ x29: .cfa -80 + ^
STACK CFI 37f1c .cfa: sp 80 +
STACK CFI 37f30 .cfa: sp 0 +
STACK CFI 37f34 .cfa: x29 80 +
STACK CFI INIT 37f78 1b4 .cfa: sp 0 +
STACK CFI 37f7c .cfa: sp 80 +
STACK CFI 37f90 .cfa: x29 64 + x19: .cfa -8 + ^ x20: .cfa -16 + ^ x21: .cfa -24 + ^ x22: .cfa -32 + ^ x23: .cfa -40 + ^ x24: .cfa -48 + ^ .ra: .cfa -56 + ^ x29: .cfa -64 + ^
STACK CFI 3809c .cfa: sp 80 +
STACK CFI 380b0 .cfa: sp 0 +
STACK CFI 380b4 .cfa: x29 64 +
STACK CFI INIT 3812c 37c .cfa: sp 0 +
STACK CFI 38130 .cfa: sp 112 +
STACK CFI 38148 .cfa: x29 80 + x19: .cfa -8 + ^ x20: .cfa -16 + ^ x21: .cfa -24 + ^ x22: .cfa -32 + ^ x23: .cfa -40 + ^ x24: .cfa -48 + ^ x25: .cfa -56 + ^ x26: .cfa -64 + ^ .ra: .cfa -72 + ^ x29: .cfa -80 + ^
STACK CFI 38464 .cfa: sp 112 +
STACK CFI 3847c .cfa: sp 0 +
STACK CFI 38480 .cfa: x29 80 +
STACK CFI INIT 38878 1c8 .cfa: sp 0 +
STACK CFI 3887c .cfa: sp 112 +
STACK CFI 3888c .cfa: x29 48 + x19: .cfa -8 + ^ x20: .cfa -16 + ^ x21: .cfa -24 + ^ x22: .cfa -32 + ^ .ra: .cfa -40 + ^ x29: .cfa -48 + ^
STACK CFI 3899c .cfa: sp 112 +
STACK CFI 389ac .cfa: sp 0 +
STACK CFI 389b0 .cfa: x29 48 +
STACK CFI INIT 38a40 3c .cfa: sp 0 +
STACK CFI 38a44 .cfa: sp 32 +
STACK CFI 38a4c .cfa: x29 32 + x19: .cfa -16 + ^ .ra: .cfa -24 + ^ x29: .cfa -32 + ^
STACK CFI 38a6c .cfa: sp 32 +
STACK CFI 38a74 .cfa: sp 0 +
STACK CFI 38a78 .cfa: x29 32 +
STACK CFI INIT 38a7c b0 .cfa: sp 0 +
STACK CFI 38a80 .cfa: sp 64 +
STACK CFI 38a90 .cfa: x29 64 + x19: .cfa -8 + ^ x20: .cfa -16 + ^ x21: .cfa -24 + ^ x22: .cfa -32 + ^ x23: .cfa -48 + ^ .ra: .cfa -56 + ^ x29: .cfa -64 + ^
STACK CFI 38aa8 .cfa: sp 64 +
STACK CFI 38ab8 .cfa: sp 0 +
STACK CFI 38abc .cfa: x29 64 +
STACK CFI 38b14 .cfa: sp 64 +
STACK CFI 38b24 .cfa: sp 0 +
STACK CFI 38b28 .cfa: x29 64 +
STACK CFI INIT 38b2c 20 .cfa: sp 0 +
STACK CFI 38b30 .cfa: sp 16 +
STACK CFI 38b34 .cfa: x29 16 + .ra: .cfa -8 + ^ x29: .cfa -16 + ^
STACK CFI 38b40 .cfa: sp 16 +
STACK CFI 38b44 .cfa: sp 0 +
STACK CFI 38b48 .cfa: x29 16 +
STACK CFI INIT 38b4c 58 .cfa: sp 0 +
STACK CFI 38b50 .cfa: sp 32 +
STACK CFI 38b58 .cfa: x29 32 + x19: .cfa -8 + ^ x20: .cfa -16 + ^ .ra: .cfa -24 + ^ x29: .cfa -32 + ^
STACK CFI 38b88 .cfa: sp 32 +
STACK CFI 38b90 .cfa: sp 0 +
STACK CFI 38b94 .cfa: sp 32 +
STACK CFI 38b9c .cfa: sp 0 +
STACK CFI 38ba0 .cfa: x29 32 +
STACK CFI INIT 38e2c 1ec .cfa: sp 0 +
STACK CFI 38e30 .cfa: sp 112 +
STACK CFI 38e48 .cfa: x29 80 + x19: .cfa -8 + ^ x20: .cfa -16 + ^ x21: .cfa -24 + ^ x22: .cfa -32 + ^ x23: .cfa -40 + ^ x24: .cfa -48 + ^ x25: .cfa -64 + ^ .ra: .cfa -72 + ^ x29: .cfa -80 + ^
STACK CFI 38f90 .cfa: sp 112 +
STACK CFI 38fa8 .cfa: sp 0 +
STACK CFI 38fac .cfa: x29 80 +
STACK CFI INIT 39154 15d0 .cfa: sp 0 +
STACK CFI 39158 .cfa: sp 416 +
STACK CFI 39178 .cfa: x29 96 + x19: .cfa -8 + ^ x20: .cfa -16 + ^ x21: .cfa -24 + ^ x22: .cfa -32 + ^ x23: .cfa -40 + ^ x24: .cfa -48 + ^ x25: .cfa -56 + ^ x26: .cfa -64 + ^ x27: .cfa -72 + ^ x28: .cfa -80 + ^ .ra: .cfa -88 + ^ x29: .cfa -96 + ^ v8: .cfa -104 + ^ v9: .cfa -112 + ^
STACK CFI 3a4b8 .cfa: sp 416 +
STACK CFI 3a4d8 .cfa: sp 0 +
STACK CFI 3a4dc .cfa: x29 96 +
STACK CFI INIT 3a7f0 118 .cfa: sp 0 +
STACK CFI 3a7f4 .cfa: sp 80 +
STACK CFI 3a804 .cfa: x29 48 + x19: .cfa -8 + ^ x20: .cfa -16 + ^ x21: .cfa -24 + ^ x22: .cfa -32 + ^ .ra: .cfa -40 + ^ x29: .cfa -48 + ^
STACK CFI 3a8ec .cfa: sp 80 +
STACK CFI 3a8fc .cfa: sp 0 +
STACK CFI 3a900 .cfa: x29 48 +
STACK CFI INIT 3a908 134 .cfa: sp 0 +
STACK CFI 3a90c .cfa: sp 96 +
STACK CFI 3a920 .cfa: x29 48 + x19: .cfa -8 + ^ x20: .cfa -16 + ^ x21: .cfa -24 + ^ x22: .cfa -32 + ^ .ra: .cfa -40 + ^ x29: .cfa -48 + ^ v8: .cfa -64 + ^
STACK CFI 3aa1c .cfa: sp 96 +
STACK CFI 3aa30 .cfa: sp 0 +
STACK CFI 3aa34 .cfa: x29 48 +
STACK CFI INIT 3ab48 114 .cfa: sp 0 +
STACK CFI 3ab4c .cfa: sp 80 +
STACK CFI 3ab5c .cfa: x29 48 + x19: .cfa -8 + ^ x20: .cfa -16 + ^ x21: .cfa -32 + ^ .ra: .cfa -40 + ^ x29: .cfa -48 + ^
STACK CFI 3ac18 .cfa: sp 80 +
STACK CFI 3ac28 .cfa: sp 0 +
STACK CFI 3ac2c .cfa: x29 48 +
STACK CFI INIT 3ac5c 114 .cfa: sp 0 +
STACK CFI 3ac60 .cfa: sp 80 +
STACK CFI 3ac70 .cfa: x29 48 + x19: .cfa -8 + ^ x20: .cfa -16 + ^ x21: .cfa -32 + ^ .ra: .cfa -40 + ^ x29: .cfa -48 + ^
STACK CFI 3ad2c .cfa: sp 80 +
STACK CFI 3ad3c .cfa: sp 0 +
STACK CFI 3ad40 .cfa: x29 48 +
STACK CFI INIT 3ad70 360 .cfa: sp 0 +
STACK CFI 3ad74 .cfa: sp 192 +
STACK CFI 3ad90 .cfa: x29 96 + x19: .cfa -8 + ^ x20: .cfa -16 + ^ x21: .cfa -24 + ^ x22: .cfa -32 + ^ x23: .cfa -40 + ^ x24: .cfa -48 + ^ x25: .cfa -56 + ^ x26: .cfa -64 + ^ x27: .cfa -72 + ^ x28: .cfa -80 + ^ .ra: .cfa -88 + ^ x29: .cfa -96 + ^
STACK CFI 3b04c .cfa: sp 192 +
STACK CFI 3b068 .cfa: sp 0 +
STACK CFI 3b06c .cfa: x29 96 +
STACK CFI INIT 3b0d0 214 .cfa: sp 0 +
STACK CFI 3b0d4 .cfa: sp 96 +
STACK CFI 3b0ec .cfa: x29 56 + x19: .cfa -8 + ^ x20: .cfa -16 + ^ x21: .cfa -24 + ^ x22: .cfa -32 + ^ x23: .cfa -40 + ^ .ra: .cfa -48 + ^ x29: .cfa -56 + ^ v8: .cfa -64 + ^
STACK CFI 3b298 .cfa: sp 96 +
STACK CFI 3b2b0 .cfa: sp 0 +
STACK CFI 3b2b4 .cfa: x29 56 +
STACK CFI INIT 3b644 20 .cfa: sp 0 +
STACK CFI 3b648 .cfa: sp 16 +
STACK CFI 3b64c .cfa: x29 16 + .ra: .cfa -8 + ^ x29: .cfa -16 + ^
STACK CFI 3b658 .cfa: sp 16 +
STACK CFI 3b65c .cfa: sp 0 +
STACK CFI 3b660 .cfa: x29 16 +
STACK CFI INIT 3be24 20 .cfa: sp 0 +
STACK CFI 3be28 .cfa: sp 16 +
STACK CFI 3be2c .cfa: x29 16 + .ra: .cfa -8 + ^ x29: .cfa -16 + ^
STACK CFI 3be38 .cfa: sp 16 +
STACK CFI 3be3c .cfa: sp 0 +
STACK CFI 3be40 .cfa: x29 16 +
STACK CFI INIT 3be80 37c .cfa: sp 0 +
STACK CFI 3be84 .cfa: sp 112 +
STACK CFI 3be9c .cfa: x29 80 + x19: .cfa -8 + ^ x20: .cfa -16 + ^ x21: .cfa -24 + ^ x22: .cfa -32 + ^ x23: .cfa -40 + ^ x24: .cfa -48 + ^ x25: .cfa -56 + ^ x26: .cfa -64 + ^ .ra: .cfa -72 + ^ x29: .cfa -80 + ^
STACK CFI 3c1b8 .cfa: sp 112 +
STACK CFI 3c1d0 .cfa: sp 0 +
STACK CFI 3c1d4 .cfa: x29 80 +
STACK CFI INIT 3c1fc 90 .cfa: sp 0 +
STACK CFI 3c200 .cfa: sp 48 +
STACK CFI 3c20c .cfa: x29 48 + x19: .cfa -8 + ^ x20: .cfa -16 + ^ x21: .cfa -32 + ^ .ra: .cfa -40 + ^ x29: .cfa -48 + ^
STACK CFI 3c258 .cfa: sp 48 +
STACK CFI 3c264 .cfa: sp 0 +
STACK CFI 3c268 .cfa: x29 48 +
STACK CFI 3c278 .cfa: sp 48 +
STACK CFI 3c284 .cfa: sp 0 +
STACK CFI 3c288 .cfa: x29 48 +
STACK CFI INIT 3c438 138 .cfa: sp 0 +
STACK CFI 3c43c .cfa: sp 80 +
STACK CFI 3c450 .cfa: x29 80 + x19: .cfa -8 + ^ x20: .cfa -16 + ^ x21: .cfa -24 + ^ x22: .cfa -32 + ^ x23: .cfa -40 + ^ x24: .cfa -48 + ^ x25: .cfa -64 + ^ .ra: .cfa -72 + ^ x29: .cfa -80 + ^
STACK CFI 3c52c .cfa: sp 80 +
STACK CFI 3c540 .cfa: sp 0 +
STACK CFI 3c544 .cfa: x29 80 +
STACK CFI INIT 3c740 18c .cfa: sp 0 +
STACK CFI 3c744 .cfa: sp 96 +
STACK CFI 3c758 .cfa: x29 64 + x19: .cfa -8 + ^ x20: .cfa -16 + ^ x21: .cfa -24 + ^ x22: .cfa -32 + ^ x23: .cfa -48 + ^ .ra: .cfa -56 + ^ x29: .cfa -64 + ^
STACK CFI 3c86c .cfa: sp 96 +
STACK CFI 3c880 .cfa: sp 0 +
STACK CFI 3c884 .cfa: x29 64 +
STACK CFI INIT 3c8cc 2ac .cfa: sp 0 +
STACK CFI 3c8d0 .cfa: sp 112 +
STACK CFI 3c8ec .cfa: x29 72 + x19: .cfa -8 + ^ x20: .cfa -16 + ^ x21: .cfa -24 + ^ x22: .cfa -32 + ^ x23: .cfa -40 + ^ x24: .cfa -48 + ^ x25: .cfa -56 + ^ .ra: .cfa -64 + ^ x29: .cfa -72 + ^ v8: .cfa -80 + ^
STACK CFI 3cb10 .cfa: sp 112 +
STACK CFI 3cb2c .cfa: sp 0 +
STACK CFI 3cb30 .cfa: x29 72 +
STACK CFI INIT 3cd74 3d4 .cfa: sp 0 +
STACK CFI 3cd78 .cfa: sp 112 +
STACK CFI 3cd94 .cfa: x29 96 + x19: .cfa -8 + ^ x20: .cfa -16 + ^ x21: .cfa -24 + ^ x22: .cfa -32 + ^ x23: .cfa -40 + ^ x24: .cfa -48 + ^ x25: .cfa -56 + ^ x26: .cfa -64 + ^ x27: .cfa -72 + ^ x28: .cfa -80 + ^ .ra: .cfa -88 + ^ x29: .cfa -96 + ^
STACK CFI 3d0d4 .cfa: sp 112 +
STACK CFI 3d0f0 .cfa: sp 0 +
STACK CFI 3d0f4 .cfa: x29 96 +
STACK CFI INIT 3d148 20 .cfa: sp 0 +
STACK CFI 3d14c .cfa: sp 16 +
STACK CFI 3d150 .cfa: x29 16 + .ra: .cfa -8 + ^ x29: .cfa -16 + ^
STACK CFI 3d15c .cfa: sp 16 +
STACK CFI 3d160 .cfa: sp 0 +
STACK CFI 3d164 .cfa: x29 16 +
STACK CFI INIT 3d168 480 .cfa: sp 0 +
STACK CFI 3d16c .cfa: sp 224 +
STACK CFI 3d188 .cfa: x29 96 + x19: .cfa -8 + ^ x20: .cfa -16 + ^ x21: .cfa -24 + ^ x22: .cfa -32 + ^ x23: .cfa -40 + ^ x24: .cfa -48 + ^ x25: .cfa -56 + ^ x26: .cfa -64 + ^ x27: .cfa -80 + ^ .ra: .cfa -88 + ^ x29: .cfa -96 + ^
STACK CFI 3d3f4 .cfa: sp 224 +
STACK CFI 3d410 .cfa: sp 0 +
STACK CFI 3d414 .cfa: x29 96 +
STACK CFI 3d4e0 .cfa: sp 224 +
STACK CFI 3d4fc .cfa: sp 0 +
STACK CFI 3d500 .cfa: x29 96 +
STACK CFI INIT 3d604 3ec .cfa: sp 0 +
STACK CFI 3d608 .cfa: sp 288 +
STACK CFI 3d620 .cfa: x29 80 + x19: .cfa -8 + ^ x20: .cfa -16 + ^ x21: .cfa -24 + ^ x22: .cfa -32 + ^ x23: .cfa -40 + ^ x24: .cfa -48 + ^ x28: .cfa -64 + ^ .ra: .cfa -72 + ^ x29: .cfa -80 + ^
STACK CFI 3d8b4 .cfa: sp 288 +
STACK CFI 3d8cc .cfa: sp 0 +
STACK CFI 3d8d0 .cfa: x29 80 +
STACK CFI INIT 3dab0 15d0 .cfa: sp 0 +
STACK CFI 3dab4 .cfa: sp 96 +
STACK CFI 3dacc .cfa: x29 80 + x19: .cfa -8 + ^ x20: .cfa -16 + ^ x21: .cfa -24 + ^ x22: .cfa -32 + ^ x23: .cfa -40 + ^ x24: .cfa -48 + ^ x25: .cfa -56 + ^ x28: .cfa -64 + ^ .ra: .cfa -72 + ^ x29: .cfa -80 + ^ v8: .cfa -96 + ^
STACK CFI 3ee44 .cfa: sp 96 +
STACK CFI 3ee5c .cfa: sp 0 +
STACK CFI 3ee60 .cfa: x29 80 +
STACK CFI INIT 3f080 94 .cfa: sp 0 +
STACK CFI 3f084 .cfa: sp 64 +
STACK CFI 3f090 .cfa: x29 32 + x19: .cfa -8 + ^ x20: .cfa -16 + ^ .ra: .cfa -24 + ^ x29: .cfa -32 + ^
STACK CFI 3f0d4 .cfa: sp 64 +
STACK CFI 3f0e0 .cfa: sp 0 +
STACK CFI 3f0e4 .cfa: x29 32 +
STACK CFI INIT 3f114 264 .cfa: sp 0 +
STACK CFI 3f118 .cfa: sp 96 +
STACK CFI 3f12c .cfa: x29 64 + x19: .cfa -8 + ^ x20: .cfa -16 + ^ x21: .cfa -24 + ^ x22: .cfa -32 + ^ x23: .cfa -40 + ^ x24: .cfa -48 + ^ .ra: .cfa -56 + ^ x29: .cfa -64 + ^
STACK CFI 3f330 .cfa: sp 96 +
STACK CFI 3f344 .cfa: sp 0 +
STACK CFI 3f348 .cfa: x29 64 +
STACK CFI INIT 3f378 168 .cfa: sp 0 +
STACK CFI 3f37c .cfa: sp 112 +
STACK CFI 3f390 .cfa: x29 64 + x19: .cfa -8 + ^ x20: .cfa -16 + ^ x21: .cfa -24 + ^ x22: .cfa -32 + ^ x23: .cfa -48 + ^ .ra: .cfa -56 + ^ x29: .cfa -64 + ^
STACK CFI 3f480 .cfa: sp 112 +
STACK CFI 3f494 .cfa: sp 0 +
STACK CFI 3f498 .cfa: x29 64 +
STACK CFI INIT 3f4e0 1e0 .cfa: sp 0 +
STACK CFI 3f4e4 .cfa: sp 144 +
STACK CFI 3f4f0 .cfa: x29 32 + x19: .cfa -8 + ^ x20: .cfa -16 + ^ .ra: .cfa -24 + ^ x29: .cfa -32 + ^
STACK CFI 3f654 .cfa: sp 144 +
STACK CFI 3f660 .cfa: sp 0 +
STACK CFI 3f664 .cfa: x29 32 +
STACK CFI INIT 3f6c0 1eb8 .cfa: sp 0 +
STACK CFI 3f6c4 .cfa: sp 160 +
STACK CFI 3f6ec .cfa: x29 96 + x19: .cfa -8 + ^ x20: .cfa -16 + ^ x21: .cfa -24 + ^ x22: .cfa -32 + ^ x23: .cfa -40 + ^ x24: .cfa -48 + ^ x25: .cfa -56 + ^ x26: .cfa -64 + ^ x27: .cfa -72 + ^ x28: .cfa -80 + ^ .ra: .cfa -88 + ^ x29: .cfa -96 + ^ v8: .cfa -104 + ^ v9: .cfa -112 + ^ v10: .cfa -120 + ^ v11: .cfa -128 + ^ v12: .cfa -136 + ^ v13: .cfa -144 + ^ v14: .cfa -152 + ^ v15: .cfa -160 + ^
STACK CFI 40fe8 .cfa: sp 160 +
STACK CFI 41010 .cfa: sp 0 +
STACK CFI 41014 .cfa: x29 96 +
STACK CFI INIT 41578 734 .cfa: sp 0 +
STACK CFI 4157c .cfa: sp 240 +
STACK CFI 4159c .cfa: x29 96 + x19: .cfa -8 + ^ x20: .cfa -16 + ^ x21: .cfa -24 + ^ x22: .cfa -32 + ^ x23: .cfa -40 + ^ x24: .cfa -48 + ^ x25: .cfa -56 + ^ x26: .cfa -64 + ^ x27: .cfa -72 + ^ x28: .cfa -80 + ^ .ra: .cfa -88 + ^ x29: .cfa -96 + ^ v8: .cfa -104 + ^ v9: .cfa -112 + ^
STACK CFI 41be4 .cfa: sp 240 +
STACK CFI 41c04 .cfa: sp 0 +
STACK CFI 41c08 .cfa: x29 96 +
STACK CFI INIT 41da0 134 .cfa: sp 0 +
STACK CFI 41da4 .cfa: sp 32 +
STACK CFI 41dac .cfa: x29 32 + x19: .cfa -8 + ^ x20: .cfa -16 + ^ .ra: .cfa -24 + ^ x29: .cfa -32 + ^
STACK CFI 41e90 .cfa: sp 32 +
STACK CFI 41e98 .cfa: sp 0 +
STACK CFI 41e9c .cfa: x29 32 +
STACK CFI 41eb4 .cfa: sp 32 +
STACK CFI 41ebc .cfa: sp 0 +
STACK CFI 41ec0 .cfa: x29 32 +
STACK CFI INIT 41ed4 100 .cfa: sp 0 +
STACK CFI 41ed8 .cfa: sp 48 +
STACK CFI 41ee4 .cfa: x29 48 + x19: .cfa -8 + ^ x20: .cfa -16 + ^ x21: .cfa -32 + ^ .ra: .cfa -40 + ^ x29: .cfa -48 + ^
STACK CFI 41f98 .cfa: sp 48 +
STACK CFI 41fa4 .cfa: sp 0 +
STACK CFI 41fa8 .cfa: x29 48 +
STACK CFI INIT 420c0 1b4 .cfa: sp 0 +
STACK CFI 420c4 .cfa: sp 112 +
STACK CFI 420dc .cfa: x29 80 + x19: .cfa -8 + ^ x20: .cfa -16 + ^ x21: .cfa -24 + ^ x22: .cfa -32 + ^ x23: .cfa -40 + ^ x24: .cfa -48 + ^ x25: .cfa -56 + ^ x26: .cfa -64 + ^ .ra: .cfa -72 + ^ x29: .cfa -80 + ^
STACK CFI 42228 .cfa: sp 112 +
STACK CFI 42240 .cfa: sp 0 +
STACK CFI 42244 .cfa: x29 80 +
STACK CFI INIT 42274 6f0 .cfa: sp 0 +
STACK CFI 42278 .cfa: sp 112 +
STACK CFI 42294 .cfa: x29 96 + x19: .cfa -8 + ^ x20: .cfa -16 + ^ x21: .cfa -24 + ^ x22: .cfa -32 + ^ x23: .cfa -40 + ^ x24: .cfa -48 + ^ x25: .cfa -56 + ^ x26: .cfa -64 + ^ x27: .cfa -72 + ^ x28: .cfa -80 + ^ .ra: .cfa -88 + ^ x29: .cfa -96 + ^ v8: .cfa -104 + ^ v9: .cfa -112 + ^
STACK CFI 42864 .cfa: sp 112 +
STACK CFI 42880 .cfa: sp 0 +
STACK CFI 42884 .cfa: x29 96 +
STACK CFI INIT 44824 6c .cfa: sp 0 +
STACK CFI 44828 .cfa: sp 32 +
STACK CFI 44830 .cfa: x29 32 + x19: .cfa -16 + ^ .ra: .cfa -24 + ^ x29: .cfa -32 + ^
STACK CFI 44880 .cfa: sp 32 +
STACK CFI 44888 .cfa: sp 0 +
STACK CFI 4488c .cfa: x29 32 +
STACK CFI INIT 44894 148 .cfa: sp 0 +
STACK CFI 44898 .cfa: sp 96 +
STACK CFI 448a8 .cfa: x29 48 + x19: .cfa -8 + ^ x20: .cfa -16 + ^ x21: .cfa -32 + ^ .ra: .cfa -40 + ^ x29: .cfa -48 + ^
STACK CFI 44990 .cfa: sp 96 +
STACK CFI 449a0 .cfa: sp 0 +
STACK CFI 449a4 .cfa: x29 48 +
STACK CFI INIT 449dc 6c .cfa: sp 0 +
STACK CFI 449e0 .cfa: sp 32 +
STACK CFI 449e8 .cfa: x29 32 + x19: .cfa -16 + ^ .ra: .cfa -24 + ^ x29: .cfa -32 + ^
STACK CFI 44a38 .cfa: sp 32 +
STACK CFI 44a40 .cfa: sp 0 +
STACK CFI 44a44 .cfa: x29 32 +
STACK CFI INIT 44bbc 264 .cfa: sp 0 +
STACK CFI 44bc0 .cfa: sp 144 +
STACK CFI 44bd0 .cfa: x29 48 + x19: .cfa -8 + ^ x20: .cfa -16 + ^ x21: .cfa -24 + ^ x22: .cfa -32 + ^ .ra: .cfa -40 + ^ x29: .cfa -48 + ^
STACK CFI 44d84 .cfa: sp 144 +
STACK CFI 44d94 .cfa: sp 0 +
STACK CFI 44d98 .cfa: x29 48 +
STACK CFI INIT 44e48 74 .cfa: sp 0 +
STACK CFI 44e4c .cfa: sp 48 +
STACK CFI 44e58 .cfa: x29 32 + x19: .cfa -8 + ^ x20: .cfa -16 + ^ .ra: .cfa -24 + ^ x29: .cfa -32 + ^
STACK CFI 44ea4 .cfa: sp 48 +
STACK CFI 44eb0 .cfa: sp 0 +
STACK CFI 44eb4 .cfa: x29 32 +
STACK CFI INIT 44ebc 108 .cfa: sp 0 +
STACK CFI 44ec0 .cfa: sp 112 +
STACK CFI 44ecc .cfa: x29 32 + x19: .cfa -8 + ^ x20: .cfa -16 + ^ .ra: .cfa -24 + ^ x29: .cfa -32 + ^
STACK CFI 44f94 .cfa: sp 112 +
STACK CFI 44fa0 .cfa: sp 0 +
STACK CFI 44fa4 .cfa: x29 32 +
STACK CFI INIT 44ff4 74 .cfa: sp 0 +
STACK CFI 44ff8 .cfa: sp 48 +
STACK CFI 45004 .cfa: x29 32 + x19: .cfa -8 + ^ x20: .cfa -16 + ^ .ra: .cfa -24 + ^ x29: .cfa -32 + ^
STACK CFI 45050 .cfa: sp 48 +
STACK CFI 4505c .cfa: sp 0 +
STACK CFI 45060 .cfa: x29 32 +
STACK CFI INIT 45168 500 .cfa: sp 0 +
STACK CFI 4516c .cfa: sp 112 +
STACK CFI 45184 .cfa: x29 80 + x19: .cfa -8 + ^ x20: .cfa -16 + ^ x21: .cfa -24 + ^ x22: .cfa -32 + ^ x23: .cfa -40 + ^ x24: .cfa -48 + ^ x25: .cfa -56 + ^ x26: .cfa -64 + ^ .ra: .cfa -72 + ^ x29: .cfa -80 + ^
STACK CFI 45610 .cfa: sp 112 +
STACK CFI 45628 .cfa: sp 0 +
STACK CFI 4562c .cfa: x29 80 +
STACK CFI INIT 45668 4c .cfa: sp 0 +
STACK CFI 4566c .cfa: sp 32 +
STACK CFI 45674 .cfa: x29 32 + x19: .cfa -16 + ^ .ra: .cfa -24 + ^ x29: .cfa -32 + ^
STACK CFI 45698 .cfa: sp 32 +
STACK CFI 456a0 .cfa: sp 0 +
STACK CFI 456a4 .cfa: sp 32 +
STACK CFI 456ac .cfa: sp 0 +
STACK CFI 456b0 .cfa: x29 32 +
STACK CFI INIT 45940 134 .cfa: sp 0 +
STACK CFI 45944 .cfa: sp 80 +
STACK CFI 45950 .cfa: x29 32 + x19: .cfa -8 + ^ x20: .cfa -16 + ^ .ra: .cfa -24 + ^ x29: .cfa -32 + ^
STACK CFI 45980 .cfa: sp 80 +
STACK CFI 4598c .cfa: sp 0 +
STACK CFI 45990 .cfa: x29 32 +
STACK CFI INIT 45a74 78 .cfa: sp 0 +
STACK CFI 45a78 .cfa: sp 32 +
STACK CFI 45a80 .cfa: x29 32 + x19: .cfa -8 + ^ x20: .cfa -16 + ^ .ra: .cfa -24 + ^ x29: .cfa -32 + ^
STACK CFI 45a8c .cfa: sp 32 +
STACK CFI 45a94 .cfa: sp 0 +
STACK CFI 45a98 .cfa: x29 32 +
STACK CFI INIT 45aec 74 .cfa: sp 0 +
STACK CFI 45af0 .cfa: sp 48 +
STACK CFI 45afc .cfa: x29 32 + x19: .cfa -8 + ^ x20: .cfa -16 + ^ .ra: .cfa -24 + ^ x29: .cfa -32 + ^
STACK CFI 45b48 .cfa: sp 48 +
STACK CFI 45b54 .cfa: sp 0 +
STACK CFI 45b58 .cfa: x29 32 +
STACK CFI INIT 45bc4 224 .cfa: sp 0 +
STACK CFI 45bc8 .cfa: sp 128 +
STACK CFI 45bd8 .cfa: x29 48 + x19: .cfa -8 + ^ x20: .cfa -16 + ^ x21: .cfa -32 + ^ .ra: .cfa -40 + ^ x29: .cfa -48 + ^
STACK CFI 45c88 .cfa: sp 128 +
STACK CFI 45c98 .cfa: sp 0 +
STACK CFI 45c9c .cfa: x29 48 +
STACK CFI INIT 45e78 22c .cfa: sp 0 +
STACK CFI 45e7c .cfa: sp 128 +
STACK CFI 45e8c .cfa: x29 48 + x19: .cfa -8 + ^ x20: .cfa -16 + ^ x21: .cfa -32 + ^ .ra: .cfa -40 + ^ x29: .cfa -48 + ^
STACK CFI 45f44 .cfa: sp 128 +
STACK CFI 45f54 .cfa: sp 0 +
STACK CFI 45f58 .cfa: x29 48 +
STACK CFI INIT 460a4 270 .cfa: sp 0 +
STACK CFI 460a8 .cfa: sp 144 +
STACK CFI 460bc .cfa: x29 64 + x19: .cfa -8 + ^ x20: .cfa -16 + ^ x21: .cfa -24 + ^ x22: .cfa -32 + ^ x23: .cfa -48 + ^ .ra: .cfa -56 + ^ x29: .cfa -64 + ^
STACK CFI 461b8 .cfa: sp 144 +
STACK CFI 461cc .cfa: sp 0 +
STACK CFI 461d0 .cfa: x29 64 +
STACK CFI INIT 46368 28c .cfa: sp 0 +
STACK CFI 4636c .cfa: sp 128 +
STACK CFI 4637c .cfa: x29 48 + x19: .cfa -8 + ^ x20: .cfa -16 + ^ x21: .cfa -32 + ^ .ra: .cfa -40 + ^ x29: .cfa -48 + ^
STACK CFI 4649c .cfa: sp 128 +
STACK CFI 464ac .cfa: sp 0 +
STACK CFI 464b0 .cfa: x29 48 +
STACK CFI INIT 465f4 300 .cfa: sp 0 +
STACK CFI 465f8 .cfa: sp 144 +
STACK CFI 4660c .cfa: x29 64 + x19: .cfa -8 + ^ x20: .cfa -16 + ^ x21: .cfa -24 + ^ x22: .cfa -32 + ^ x23: .cfa -48 + ^ .ra: .cfa -56 + ^ x29: .cfa -64 + ^
STACK CFI 467a0 .cfa: sp 144 +
STACK CFI 467b4 .cfa: sp 0 +
STACK CFI 467b8 .cfa: x29 64 +
STACK CFI INIT 46948 264 .cfa: sp 0 +
STACK CFI 4694c .cfa: sp 128 +
STACK CFI 4695c .cfa: x29 48 + x19: .cfa -8 + ^ x20: .cfa -16 + ^ x21: .cfa -32 + ^ .ra: .cfa -40 + ^ x29: .cfa -48 + ^
STACK CFI 46a54 .cfa: sp 128 +
STACK CFI 46a64 .cfa: sp 0 +
STACK CFI 46a68 .cfa: x29 48 +
STACK CFI INIT 46c78 2b8 .cfa: sp 0 +
STACK CFI 46c7c .cfa: sp 144 +
STACK CFI 46c90 .cfa: x29 64 + x19: .cfa -8 + ^ x20: .cfa -16 + ^ x21: .cfa -24 + ^ x22: .cfa -32 + ^ x23: .cfa -48 + ^ .ra: .cfa -56 + ^ x29: .cfa -64 + ^
STACK CFI 46ddc .cfa: sp 144 +
STACK CFI 46df0 .cfa: sp 0 +
STACK CFI 46df4 .cfa: x29 64 +
STACK CFI INIT 46f30 2c0 .cfa: sp 0 +
STACK CFI 46f34 .cfa: sp 144 +
STACK CFI 46f48 .cfa: x29 64 + x19: .cfa -8 + ^ x20: .cfa -16 + ^ x21: .cfa -24 + ^ x22: .cfa -32 + ^ x23: .cfa -48 + ^ .ra: .cfa -56 + ^ x29: .cfa -64 + ^
STACK CFI 4709c .cfa: sp 144 +
STACK CFI 470b0 .cfa: sp 0 +
STACK CFI 470b4 .cfa: x29 64 +
STACK CFI INIT 47298 2e4 .cfa: sp 0 +
STACK CFI 4729c .cfa: sp 144 +
STACK CFI 472b0 .cfa: x29 64 + x19: .cfa -8 + ^ x20: .cfa -16 + ^ x21: .cfa -24 + ^ x22: .cfa -32 + ^ x23: .cfa -48 + ^ .ra: .cfa -56 + ^ x29: .cfa -64 + ^
STACK CFI 47428 .cfa: sp 144 +
STACK CFI 4743c .cfa: sp 0 +
STACK CFI 47440 .cfa: x29 64 +
STACK CFI INIT 4757c 2e4 .cfa: sp 0 +
STACK CFI 47580 .cfa: sp 144 +
STACK CFI 47594 .cfa: x29 64 + x19: .cfa -8 + ^ x20: .cfa -16 + ^ x21: .cfa -24 + ^ x22: .cfa -32 + ^ x23: .cfa -48 + ^ .ra: .cfa -56 + ^ x29: .cfa -64 + ^
STACK CFI 4770c .cfa: sp 144 +
STACK CFI 47720 .cfa: sp 0 +
STACK CFI 47724 .cfa: x29 64 +
STACK CFI INIT 47860 2a0 .cfa: sp 0 +
STACK CFI 47864 .cfa: sp 144 +
STACK CFI 47878 .cfa: x29 64 + x19: .cfa -8 + ^ x20: .cfa -16 + ^ x21: .cfa -24 + ^ x22: .cfa -32 + ^ x23: .cfa -48 + ^ .ra: .cfa -56 + ^ x29: .cfa -64 + ^
STACK CFI 479ac .cfa: sp 144 +
STACK CFI 479c0 .cfa: sp 0 +
STACK CFI 479c4 .cfa: x29 64 +
STACK CFI INIT 47b00 2f0 .cfa: sp 0 +
STACK CFI 47b04 .cfa: sp 144 +
STACK CFI 47b18 .cfa: x29 64 + x19: .cfa -8 + ^ x20: .cfa -16 + ^ x21: .cfa -24 + ^ x22: .cfa -32 + ^ x23: .cfa -48 + ^ .ra: .cfa -56 + ^ x29: .cfa -64 + ^
STACK CFI 47c9c .cfa: sp 144 +
STACK CFI 47cb0 .cfa: sp 0 +
STACK CFI 47cb4 .cfa: x29 64 +
STACK CFI INIT 47df0 4f4 .cfa: sp 0 +
STACK CFI 47df4 .cfa: sp 144 +
STACK CFI 47e08 .cfa: x29 64 + x19: .cfa -8 + ^ x20: .cfa -16 + ^ x21: .cfa -24 + ^ x22: .cfa -32 + ^ x23: .cfa -48 + ^ .ra: .cfa -56 + ^ x29: .cfa -64 + ^
STACK CFI 4813c .cfa: sp 144 +
STACK CFI 48150 .cfa: sp 0 +
STACK CFI 48154 .cfa: x29 64 +
STACK CFI INIT 482e4 154 .cfa: sp 0 +
STACK CFI 482e8 .cfa: sp 384 +
STACK CFI 482fc .cfa: x29 64 + x19: .cfa -8 + ^ x20: .cfa -16 + ^ x21: .cfa -24 + ^ x22: .cfa -32 + ^ x23: .cfa -40 + ^ x28: .cfa -48 + ^ .ra: .cfa -56 + ^ x29: .cfa -64 + ^
STACK CFI 483e0 .cfa: sp 384 +
STACK CFI 483f4 .cfa: sp 0 +
STACK CFI 483f8 .cfa: x29 64 +
STACK CFI INIT 48450 50c .cfa: sp 0 +
STACK CFI 48454 .cfa: sp 64 +
STACK CFI 48464 .cfa: x29 64 + x19: .cfa -8 + ^ x20: .cfa -16 + ^ x21: .cfa -24 + ^ x22: .cfa -32 + ^ x23: .cfa -40 + ^ x24: .cfa -48 + ^ .ra: .cfa -56 + ^ x29: .cfa -64 + ^
STACK CFI 48584 .cfa: sp 64 +
STACK CFI 48594 .cfa: sp 0 +
STACK CFI 48598 .cfa: x29 64 +
STACK CFI 48930 .cfa: sp 64 +
STACK CFI 48940 .cfa: sp 0 +
STACK CFI 48944 .cfa: x29 64 +
STACK CFI INIT 48c8c 294 .cfa: sp 0 +
STACK CFI 48c90 .cfa: sp 240 +
STACK CFI 48ca8 .cfa: x29 80 + x19: .cfa -8 + ^ x20: .cfa -16 + ^ x21: .cfa -24 + ^ x22: .cfa -32 + ^ x23: .cfa -40 + ^ x24: .cfa -48 + ^ x25: .cfa -64 + ^ .ra: .cfa -72 + ^ x29: .cfa -80 + ^
STACK CFI 48e48 .cfa: sp 240 +
STACK CFI 48e60 .cfa: sp 0 +
STACK CFI 48e64 .cfa: x29 80 +
STACK CFI INIT 48f9c 50 .cfa: sp 0 +
STACK CFI 48fa0 .cfa: sp 32 +
STACK CFI 48fa8 .cfa: x29 32 + x19: .cfa -8 + ^ x20: .cfa -16 + ^ .ra: .cfa -24 + ^ x29: .cfa -32 + ^
STACK CFI INIT 49018 7c0 .cfa: sp 0 +
STACK CFI 4901c .cfa: sp 320 +
STACK CFI 49038 .cfa: x29 96 + x19: .cfa -8 + ^ x20: .cfa -16 + ^ x21: .cfa -24 + ^ x22: .cfa -32 + ^ x23: .cfa -40 + ^ x24: .cfa -48 + ^ x25: .cfa -56 + ^ x26: .cfa -64 + ^ x27: .cfa -72 + ^ x28: .cfa -80 + ^ .ra: .cfa -88 + ^ x29: .cfa -96 + ^
STACK CFI 49688 .cfa: sp 320 +
STACK CFI 496a4 .cfa: sp 0 +
STACK CFI 496a8 .cfa: x29 96 +
STACK CFI INIT 4db58 c74 .cfa: sp 0 +
STACK CFI 4db5c .cfa: sp 96 +
STACK CFI 4db74 .cfa: x29 96 + x19: .cfa -8 + ^ x20: .cfa -16 + ^ x21: .cfa -24 + ^ x22: .cfa -32 + ^ x23: .cfa -40 + ^ x24: .cfa -48 + ^ x25: .cfa -56 + ^ x26: .cfa -64 + ^ x27: .cfa -72 + ^ x28: .cfa -80 + ^ .ra: .cfa -88 + ^ x29: .cfa -96 + ^
STACK CFI 4e5ec .cfa: sp 96 +
STACK CFI 4e604 .cfa: sp 0 +
STACK CFI 4e608 .cfa: x29 96 +
STACK CFI INIT 4e920 26c .cfa: sp 0 +
STACK CFI 4e924 .cfa: sp 128 +
STACK CFI 4e934 .cfa: x29 48 + x19: .cfa -8 + ^ x20: .cfa -16 + ^ x21: .cfa -24 + ^ x22: .cfa -32 + ^ .ra: .cfa -40 + ^ x29: .cfa -48 + ^
STACK CFI 4ead8 .cfa: sp 128 +
STACK CFI 4eae8 .cfa: sp 0 +
STACK CFI 4eaec .cfa: x29 48 +
STACK CFI INIT 4ef1c 3b8 .cfa: sp 0 +
STACK CFI 4ef20 .cfa: sp 96 +
STACK CFI 4ef38 .cfa: x29 96 + x19: .cfa -8 + ^ x20: .cfa -16 + ^ x21: .cfa -24 + ^ x22: .cfa -32 + ^ x23: .cfa -40 + ^ x24: .cfa -48 + ^ x25: .cfa -56 + ^ x26: .cfa -64 + ^ x27: .cfa -72 + ^ x28: .cfa -80 + ^ .ra: .cfa -88 + ^ x29: .cfa -96 + ^
STACK CFI 4f274 .cfa: sp 96 +
STACK CFI 4f28c .cfa: sp 0 +
STACK CFI 4f290 .cfa: x29 96 +
STACK CFI INIT 4f374 cb4 .cfa: sp 0 +
STACK CFI 4f378 .cfa: sp 96 +
STACK CFI 4f390 .cfa: x29 96 + x19: .cfa -8 + ^ x20: .cfa -16 + ^ x21: .cfa -24 + ^ x22: .cfa -32 + ^ x23: .cfa -40 + ^ x24: .cfa -48 + ^ x25: .cfa -56 + ^ x26: .cfa -64 + ^ x27: .cfa -72 + ^ x28: .cfa -80 + ^ .ra: .cfa -88 + ^ x29: .cfa -96 + ^
STACK CFI 4fe38 .cfa: sp 96 +
STACK CFI 4fe50 .cfa: sp 0 +
STACK CFI 4fe54 .cfa: x29 96 +
STACK CFI INIT 50310 afc .cfa: sp 0 +
STACK CFI 50314 .cfa: sp 96 +
STACK CFI 5032c .cfa: x29 96 + x19: .cfa -8 + ^ x20: .cfa -16 + ^ x21: .cfa -24 + ^ x22: .cfa -32 + ^ x23: .cfa -40 + ^ x24: .cfa -48 + ^ x25: .cfa -56 + ^ x26: .cfa -64 + ^ x27: .cfa -72 + ^ x28: .cfa -80 + ^ .ra: .cfa -88 + ^ x29: .cfa -96 + ^
STACK CFI 50d80 .cfa: sp 96 +
STACK CFI 50d98 .cfa: sp 0 +
STACK CFI 50d9c .cfa: x29 96 +
STACK CFI INIT 50fe8 1430 .cfa: sp 0 +
STACK CFI 50fec .cfa: sp 96 +
STACK CFI 51004 .cfa: x29 96 + x19: .cfa -8 + ^ x20: .cfa -16 + ^ x21: .cfa -24 + ^ x22: .cfa -32 + ^ x23: .cfa -40 + ^ x24: .cfa -48 + ^ x25: .cfa -56 + ^ x26: .cfa -64 + ^ x27: .cfa -72 + ^ x28: .cfa -80 + ^ .ra: .cfa -88 + ^ x29: .cfa -96 + ^
STACK CFI 522a0 .cfa: sp 96 +
STACK CFI 522b8 .cfa: sp 0 +
STACK CFI 522bc .cfa: x29 96 +
STACK CFI INIT 5253c 75c .cfa: sp 0 +
STACK CFI 52540 .cfa: sp 368 +
STACK CFI 5255c .cfa: x29 96 + x19: .cfa -8 + ^ x20: .cfa -16 + ^ x21: .cfa -24 + ^ x22: .cfa -32 + ^ x23: .cfa -40 + ^ x24: .cfa -48 + ^ x25: .cfa -56 + ^ x26: .cfa -64 + ^ x27: .cfa -72 + ^ x28: .cfa -80 + ^ .ra: .cfa -88 + ^ x29: .cfa -96 + ^
STACK CFI 52610 .cfa: sp 368 +
STACK CFI 5262c .cfa: sp 0 +
STACK CFI 52630 .cfa: x29 96 +
STACK CFI 52684 .cfa: sp 368 +
STACK CFI 526a0 .cfa: sp 0 +
STACK CFI 526a4 .cfa: x29 96 +
STACK CFI INIT 53058 eb0 .cfa: sp 0 +
STACK CFI 5305c .cfa: sp 96 +
STACK CFI 53074 .cfa: x29 96 + x19: .cfa -8 + ^ x20: .cfa -16 + ^ x21: .cfa -24 + ^ x22: .cfa -32 + ^ x23: .cfa -40 + ^ x24: .cfa -48 + ^ x25: .cfa -56 + ^ x26: .cfa -64 + ^ x27: .cfa -72 + ^ x28: .cfa -80 + ^ .ra: .cfa -88 + ^ x29: .cfa -96 + ^
STACK CFI 53d1c .cfa: sp 96 +
STACK CFI 53d34 .cfa: sp 0 +
STACK CFI 53d38 .cfa: x29 96 +
STACK CFI INIT 5427c 1c9c .cfa: sp 0 +
STACK CFI 54280 .cfa: sp 112 +
STACK CFI 5429c .cfa: x29 96 + x19: .cfa -8 + ^ x20: .cfa -16 + ^ x21: .cfa -24 + ^ x22: .cfa -32 + ^ x23: .cfa -40 + ^ x24: .cfa -48 + ^ x25: .cfa -56 + ^ x26: .cfa -64 + ^ x27: .cfa -72 + ^ x28: .cfa -80 + ^ .ra: .cfa -88 + ^ x29: .cfa -96 + ^ v8: .cfa -112 + ^
STACK CFI 54684 .cfa: sp 112 +
STACK CFI 546a0 .cfa: sp 0 +
STACK CFI 546a4 .cfa: x29 96 +
STACK CFI INIT 586dc 9a0 .cfa: sp 0 +
STACK CFI 586e0 .cfa: sp 144 +
STACK CFI 586f8 .cfa: x29 80 + x19: .cfa -8 + ^ x20: .cfa -16 + ^ x21: .cfa -24 + ^ x22: .cfa -32 + ^ x23: .cfa -40 + ^ x24: .cfa -48 + ^ x25: .cfa -64 + ^ .ra: .cfa -72 + ^ x29: .cfa -80 + ^
STACK CFI 58ff8 .cfa: sp 144 +
STACK CFI 59010 .cfa: sp 0 +
STACK CFI 59014 .cfa: x29 80 +
STACK CFI INIT 5a5a0 57c .cfa: sp 0 +
STACK CFI 5a5a4 .cfa: sp 96 +
STACK CFI 5a5bc .cfa: x29 96 + x19: .cfa -8 + ^ x20: .cfa -16 + ^ x21: .cfa -24 + ^ x22: .cfa -32 + ^ x23: .cfa -40 + ^ x24: .cfa -48 + ^ x25: .cfa -56 + ^ x26: .cfa -64 + ^ x27: .cfa -72 + ^ x28: .cfa -80 + ^ .ra: .cfa -88 + ^ x29: .cfa -96 + ^
STACK CFI 5aa80 .cfa: sp 96 +
STACK CFI 5aa98 .cfa: sp 0 +
STACK CFI 5aa9c .cfa: x29 96 +
STACK CFI INIT 5ab1c 67c .cfa: sp 0 +
STACK CFI 5ab20 .cfa: sp 96 +
STACK CFI 5ab38 .cfa: x29 96 + x19: .cfa -8 + ^ x20: .cfa -16 + ^ x21: .cfa -24 + ^ x22: .cfa -32 + ^ x23: .cfa -40 + ^ x24: .cfa -48 + ^ x25: .cfa -56 + ^ x26: .cfa -64 + ^ x27: .cfa -72 + ^ x28: .cfa -80 + ^ .ra: .cfa -88 + ^ x29: .cfa -96 + ^
STACK CFI 5b0fc .cfa: sp 96 +
STACK CFI 5b114 .cfa: sp 0 +
STACK CFI 5b118 .cfa: x29 96 +
