MODULE Linux arm64 995F0B1E1754C220A559ED6331382E800 abb2k.gdwt.android64.so
INFO CODE_ID 1E0B5F99541720C2A559ED6331382E80565C3D81
INFO GENERATOR mozilla/dump_syms 2.3.4
PUBLIC 72e40 0 __on_dlclose
PUBLIC 72e50 0 __emutls_unregister_key
PUBLIC 72e58 0 __on_dlclose_late
PUBLIC 72e60 0 __atexit_handler_wrapper
PUBLIC 72e74 0 atexit
PUBLIC 72e90 0 pthread_atfork
PUBLIC 72ea0 0 unwind_phase2
PUBLIC 72fd4 0 _Unwind_Resume
PUBLIC 73058 0 unwind_phase2_forced
PUBLIC m 7314c 0 __unw_init_local
PUBLIC m 731f4 0 __unw_get_reg
PUBLIC 73270 0 __unw_step_stage2
PUBLIC m 73284 0 __unw_get_proc_info
PUBLIC m 732c4 0 __unw_resume
PUBLIC 732ec 0 libunwind::CFI_Parser<libunwind::LocalAddressSpace>::decodeFDE(libunwind::LocalAddressSpace&, unsigned long, libunwind::CFI_Parser<libunwind::LocalAddressSpace>::FDE_Info*, libunwind::CFI_Parser<libunwind::LocalAddressSpace>::CIE_Info*, bool)
PUBLIC 7347c 0 libunwind::CFI_Parser<libunwind::LocalAddressSpace>::parseCIE(libunwind::LocalAddressSpace&, unsigned long, libunwind::CFI_Parser<libunwind::LocalAddressSpace>::CIE_Info*)
PUBLIC 73744 0 libunwind::AbstractUnwindCursor::~AbstractUnwindCursor()
PUBLIC 7374c 0 libunwind::UnwindCursor<libunwind::LocalAddressSpace, libunwind::Registers_arm64>::~UnwindCursor()
PUBLIC 73754 0 libunwind::UnwindCursor<libunwind::LocalAddressSpace, libunwind::Registers_arm64>::validReg(int)
PUBLIC 73798 0 libunwind::UnwindCursor<libunwind::LocalAddressSpace, libunwind::Registers_arm64>::getReg(int)
PUBLIC 73880 0 libunwind::UnwindCursor<libunwind::LocalAddressSpace, libunwind::Registers_arm64>::setReg(int, unsigned long)
PUBLIC 73968 0 libunwind::UnwindCursor<libunwind::LocalAddressSpace, libunwind::Registers_arm64>::validFloatReg(int)
PUBLIC 7397c 0 libunwind::UnwindCursor<libunwind::LocalAddressSpace, libunwind::Registers_arm64>::getFloatReg(int)
PUBLIC 7398c 0 libunwind::UnwindCursor<libunwind::LocalAddressSpace, libunwind::Registers_arm64>::setFloatReg(int, double)
PUBLIC 7399c 0 libunwind::UnwindCursor<libunwind::LocalAddressSpace, libunwind::Registers_arm64>::step(bool)
PUBLIC 73a8c 0 libunwind::UnwindCursor<libunwind::LocalAddressSpace, libunwind::Registers_arm64>::getInfo(unw_proc_info_t*)
PUBLIC 73ad0 0 libunwind::UnwindCursor<libunwind::LocalAddressSpace, libunwind::Registers_arm64>::jumpto()
PUBLIC 73adc 0 libunwind::UnwindCursor<libunwind::LocalAddressSpace, libunwind::Registers_arm64>::isSignalFrame()
PUBLIC 73ae8 0 libunwind::UnwindCursor<libunwind::LocalAddressSpace, libunwind::Registers_arm64>::getFunctionName(char*, unsigned long, unsigned long*)
PUBLIC 73b14 0 libunwind::UnwindCursor<libunwind::LocalAddressSpace, libunwind::Registers_arm64>::setInfoBasedOnIPRegister(bool)
PUBLIC 73d94 0 libunwind::UnwindCursor<libunwind::LocalAddressSpace, libunwind::Registers_arm64>::getRegisterName(int)
PUBLIC 73da0 0 libunwind::UnwindCursor<libunwind::LocalAddressSpace, libunwind::Registers_arm64>::stepThroughSigReturn(libunwind::Registers_arm64&)
PUBLIC 73ec0 0 libunwind::DwarfInstructions<libunwind::LocalAddressSpace, libunwind::Registers_arm64>::stepWithDwarf(libunwind::LocalAddressSpace&, unsigned long, unsigned long, libunwind::Registers_arm64&, bool&, bool)
PUBLIC 74348 0 libunwind::CFI_Parser<libunwind::LocalAddressSpace>::parseFDEInstructions(libunwind::LocalAddressSpace&, libunwind::CFI_Parser<libunwind::LocalAddressSpace>::FDE_Info const&, libunwind::CFI_Parser<libunwind::LocalAddressSpace>::CIE_Info const&, unsigned long, int, libunwind::CFI_Parser<libunwind::LocalAddressSpace>::PrologInfo*)
PUBLIC 74f90 0 libunwind::DwarfInstructions<libunwind::LocalAddressSpace, libunwind::Registers_arm64>::getCFA(libunwind::LocalAddressSpace&, libunwind::CFI_Parser<libunwind::LocalAddressSpace>::PrologInfo const&, libunwind::Registers_arm64 const&)
PUBLIC 750c4 0 libunwind::DwarfInstructions<libunwind::LocalAddressSpace, libunwind::Registers_arm64>::getSavedRegister(libunwind::LocalAddressSpace&, libunwind::Registers_arm64 const&, unsigned long, libunwind::CFI_Parser<libunwind::LocalAddressSpace>::RegisterLocation const&)
PUBLIC 752d4 0 libunwind::LocalAddressSpace::getEncodedP(unsigned long&, unsigned long, unsigned char, unsigned long)
PUBLIC 75660 0 libunwind::LocalAddressSpace::getULEB128(unsigned long&, unsigned long)
PUBLIC 75828 0 libunwind::DwarfInstructions<libunwind::LocalAddressSpace, libunwind::Registers_arm64>::evaluateExpression(unsigned long, libunwind::LocalAddressSpace&, libunwind::Registers_arm64 const&, unsigned long)
PUBLIC 761e4 0 libunwind::UnwindCursor<libunwind::LocalAddressSpace, libunwind::Registers_arm64>::getInfoFromDwarfSection(unsigned long, libunwind::UnwindInfoSections const&, unsigned int)
PUBLIC 764b8 0 libunwind::findUnwindSectionsByPhdr(dl_phdr_info*, unsigned long, void*)
PUBLIC 765ec 0 libunwind::EHHeaderParser<libunwind::LocalAddressSpace>::decodeEHHdr(libunwind::LocalAddressSpace&, unsigned long, unsigned long, libunwind::EHHeaderParser<libunwind::LocalAddressSpace>::EHHeaderInfo&)
PUBLIC 7670c 0 libunwind::CFI_Parser<libunwind::LocalAddressSpace>::findFDE(libunwind::LocalAddressSpace&, unsigned long, unsigned long, unsigned long, unsigned long, libunwind::CFI_Parser<libunwind::LocalAddressSpace>::FDE_Info*, libunwind::CFI_Parser<libunwind::LocalAddressSpace>::CIE_Info*)
PUBLIC 768d4 0 libunwind::EHHeaderParser<libunwind::LocalAddressSpace>::findFDE(libunwind::LocalAddressSpace&, unsigned long, unsigned long, unsigned int, libunwind::CFI_Parser<libunwind::LocalAddressSpace>::FDE_Info*, libunwind::CFI_Parser<libunwind::LocalAddressSpace>::CIE_Info*)
PUBLIC 76a3c 0 libunwind::EHHeaderParser<libunwind::LocalAddressSpace>::getTableEntrySize(unsigned char)
PUBLIC 76b38 0 libunwind::Registers_arm64::getRegisterName(int)
PUBLIC 76b68 0 __libunwind_Registers_arm64_jumpto
PUBLIC m 76bf8 0 __unw_getcontext
PUBLIC 76ca0 0 __aarch64_ldadd8_relax
PUBLIC 76cd0 0 init_have_lse_atomics
PUBLIC 76d68 0 __init_cpu_features_constructor
PUBLIC 77304 0 __init_cpu_features
PUBLIC 77390 0 __aarch64_ldadd8_acq_rel
PUBLIC 773c0 0 __cxx_global_var_init
PUBLIC 77840 0 geode::modifier::ModifyBase<geode::modifier::ModifyDerive<GDWTEditLevelLayer, EditLevelLayer> >::~ModifyBase()
PUBLIC 7785c 0 geode::modifier::ModifyDerive<GDWTEditLevelLayer, EditLevelLayer>::apply()
PUBLIC 77bbc 0 std::__ndk1::shared_ptr<geode::Hook>::~shared_ptr[abi:ne180000]()
PUBLIC 77c0c 0 geode::impl::ResultData<geode::Hook*, std::__ndk1::basic_string<char, std::__ndk1::char_traits<char>, std::__ndk1::allocator<char> > >::~ResultData()
PUBLIC 77c80 0 std::__ndk1::vector<std::__ndk1::basic_string<char, std::__ndk1::char_traits<char>, std::__ndk1::allocator<char> >, std::__ndk1::allocator<std::__ndk1::basic_string<char, std::__ndk1::char_traits<char>, std::__ndk1::allocator<char> > > >::~vector[abi:ne180000]()
PUBLIC 77cfc 0 geode::modifier::ModifyBase<geode::modifier::ModifyDerive<GDWTEditLevelLayer, EditLevelLayer> >::apply()
PUBLIC 77d00 0 __clang_call_terminate
PUBLIC 77d10 0 _ZN5geode15UnwrapExceptionC2IRPNS_4HookEQsr4implE18IsStringStreamableIT_EEENS_4impl5OkTagEOS5_
PUBLIC 77e64 0 std::__ndk1::__throw_bad_variant_access[abi:ne180000]()
PUBLIC 77e98 0 std::__ndk1::basic_stringstream<char, std::__ndk1::char_traits<char>, std::__ndk1::allocator<char> >::basic_stringstream[abi:ne180000]()
PUBLIC m 77fc4 0 std::__ndk1::basic_stringstream<char, std::__ndk1::char_traits<char>, std::__ndk1::allocator<char> >::~basic_stringstream()
PUBLIC 78044 0 geode::UnwrapException::~UnwrapException()
PUBLIC 78068 0 std::__ndk1::__put_character_sequence[abi:ne180000]<char, std::__ndk1::char_traits<char> >(std::__ndk1::basic_ostream<char, std::__ndk1::char_traits<char> >, std::__ndk1::basic_ostream const*, unsigned long)
PUBLIC 7820c 0 std::__ndk1::__pad_and_output[abi:ne180000]<char, std::__ndk1::char_traits<char> >(std::__ndk1::char_traits<char>, std::__ndk1::ostreambuf_iterator const*, std::__ndk1::ostreambuf_iterator const, std::__ndk1::ostreambuf_iterator const, std::__ndk1::ios_base&, std::__ndk1::ostreambuf_iterator)
PUBLIC 783e8 0 std::__ndk1::basic_string<char, std::__ndk1::char_traits<char>, std::__ndk1::allocator<char> >::__throw_length_error[abi:ne180000]() const
PUBLIC 783fc 0 std::__ndk1::__throw_length_error[abi:ne180000](char const*)
PUBLIC 7844c 0 std::length_error::length_error[abi:ne180000](char const*)
PUBLIC 7847c 0 std::__throw_bad_array_new_length([abi:ne180000], void)
PUBLIC 784b0 0 std::__ndk1::basic_stringbuf<char, std::__ndk1::char_traits<char>, std::__ndk1::allocator<char> >::str[abi:ne180000]() &&
PUBLIC 78628 0 std::__ndk1::basic_stringbuf<char, std::__ndk1::char_traits<char>, std::__ndk1::allocator<char> >::__init_buf_ptrs[abi:ne180000]()
PUBLIC 78770 0 std::__ndk1::vector<std::__ndk1::basic_string<char, std::__ndk1::char_traits<char>, std::__ndk1::allocator<char> >, std::__ndk1::allocator<std::__ndk1::basic_string<char, std::__ndk1::char_traits<char>, std::__ndk1::allocator<char> > > >::__push_back_slow_path<std::__ndk1::basic_string<char, std::__ndk1::char_traits<char>, std::__ndk1::allocator<char> > const&>(std::__ndk1::basic_string<char, std::__ndk1::char_traits<char>, std::__ndk1::allocator<char> > const&)
PUBLIC 78998 0 std::__ndk1::basic_string<char, std::__ndk1::char_traits<char>, std::__ndk1::allocator<char> >::__init_copy_ctor_external(char const*, unsigned long)
PUBLIC 78a18 0 std::__ndk1::__split_buffer<std::__ndk1::basic_string<char, std::__ndk1::char_traits<char>, std::__ndk1::allocator<char> >, std::__ndk1::allocator<std::__ndk1::basic_string<char, std::__ndk1::char_traits<char>, std::__ndk1::allocator<char> > >&>::~__split_buffer()
PUBLIC 78a80 0 std::__ndk1::vector<std::__ndk1::basic_string<char, std::__ndk1::char_traits<char>, std::__ndk1::allocator<char> >, std::__ndk1::allocator<std::__ndk1::basic_string<char, std::__ndk1::char_traits<char>, std::__ndk1::allocator<char> > > >::__throw_length_error[abi:ne180000]() const
PUBLIC 78a94 0 std::__ndk1::__variant_detail::__visitation::__base::__dispatcher<(unsigned long)0>::__dispatch[abi:ne180000]<std::__ndk1::__variant_detail::__dtor<std::__ndk1::__variant_detail::__traits<geode::Hook*, std::__ndk1::basic_string<char, std::__ndk1::char_traits<char>, std::__ndk1::allocator<char> > >, (std::__ndk1::__variant_detail::_Trait)1>::__destroy[abi:ne180000]()::{lambda(auto:1&)#1}, std::__ndk1::__variant_detail::__base<(std::__ndk1::__variant_detail::__traits<geode::Hook*, std::__ndk1::basic_string<char, std::__ndk1::char_traits<char>, std::__ndk1::allocator<char> > >)1, geode::Hook, std::__ndk1::allocator<char> >&>(std::__ndk1::__variant_detail::__dtor<std::__ndk1::__variant_detail::__traits<geode::Hook*, std::__ndk1::basic_string<char, std::__ndk1::char_traits<char>, std::__ndk1::allocator<char> > >, (std::__ndk1::__variant_detail::_Trait)1>, std::__ndk1::__variant_detail::__base<(std::__ndk1::__variant_detail::__traits<geode::Hook*, std::__ndk1::basic_string<char, std::__ndk1::char_traits<char>, std::__ndk1::allocator<char> > >)1, geode::Hook, std::__ndk1::allocator<char> >&)
PUBLIC 78a98 0 std::__ndk1::__variant_detail::__visitation::__base::__dispatcher<(unsigned long)1>::__dispatch[abi:ne180000]<std::__ndk1::__variant_detail::__dtor<std::__ndk1::__variant_detail::__traits<geode::Hook*, std::__ndk1::basic_string<char, std::__ndk1::char_traits<char>, std::__ndk1::allocator<char> > >, (std::__ndk1::__variant_detail::_Trait)1>::__destroy[abi:ne180000]()::{lambda(auto:1&)#1}, std::__ndk1::__variant_detail::__base<(std::__ndk1::__variant_detail::__traits<geode::Hook*, std::__ndk1::basic_string<char, std::__ndk1::char_traits<char>, std::__ndk1::allocator<char> > >)1, geode::Hook, std::__ndk1::allocator<char> >&>(std::__ndk1::__variant_detail::__dtor<std::__ndk1::__variant_detail::__traits<geode::Hook*, std::__ndk1::basic_string<char, std::__ndk1::char_traits<char>, std::__ndk1::allocator<char> > >, (std::__ndk1::__variant_detail::_Trait)1>, std::__ndk1::__variant_detail::__base<(std::__ndk1::__variant_detail::__traits<geode::Hook*, std::__ndk1::basic_string<char, std::__ndk1::char_traits<char>, std::__ndk1::allocator<char> > >)1, geode::Hook, std::__ndk1::allocator<char> >&)
PUBLIC 78aac 0 std::__ndk1::__tree<std::__ndk1::__value_type<std::__ndk1::basic_string<char, std::__ndk1::char_traits<char>, std::__ndk1::allocator<char> >, std::__ndk1::shared_ptr<geode::Hook> >, std::__ndk1::__map_value_compare<std::__ndk1::basic_string<char, std::__ndk1::char_traits<char>, std::__ndk1::allocator<char> >, std::__ndk1::__value_type<std::__ndk1::basic_string<char, std::__ndk1::char_traits<char>, std::__ndk1::allocator<char> >, std::__ndk1::shared_ptr<geode::Hook> >, std::__ndk1::less<std::__ndk1::basic_string<char, std::__ndk1::char_traits<char>, std::__ndk1::allocator<char> > >, true>, std::__ndk1::allocator<std::__ndk1::__value_type<std::__ndk1::basic_string<char, std::__ndk1::char_traits<char>, std::__ndk1::allocator<char> >, std::__ndk1::shared_ptr<geode::Hook> > > >::find<std::__ndk1::basic_string<char, std::__ndk1::char_traits<char>, std::__ndk1::allocator<char> > >(std::__ndk1::basic_string<char, std::__ndk1::char_traits<char>, std::__ndk1::allocator<char> > const&)
PUBLIC 78bcc 0 std::__ndk1::__tree<std::__ndk1::__value_type<std::__ndk1::basic_string<char, std::__ndk1::char_traits<char>, std::__ndk1::allocator<char> >, std::__ndk1::shared_ptr<geode::Hook> >, std::__ndk1::__map_value_compare<std::__ndk1::basic_string<char, std::__ndk1::char_traits<char>, std::__ndk1::allocator<char> >, std::__ndk1::__value_type<std::__ndk1::basic_string<char, std::__ndk1::char_traits<char>, std::__ndk1::allocator<char> >, std::__ndk1::shared_ptr<geode::Hook> >, std::__ndk1::less<std::__ndk1::basic_string<char, std::__ndk1::char_traits<char>, std::__ndk1::allocator<char> > >, true>, std::__ndk1::allocator<std::__ndk1::__value_type<std::__ndk1::basic_string<char, std::__ndk1::char_traits<char>, std::__ndk1::allocator<char> >, std::__ndk1::shared_ptr<geode::Hook> > > >::erase(std::__ndk1::__tree_const_iterator<std::__ndk1::__value_type<std::__ndk1::basic_string<char, std::__ndk1::char_traits<char>, std::__ndk1::allocator<char> >, std::__ndk1::shared_ptr<geode::Hook> >, std::__ndk1::__tree_node<std::__ndk1::__value_type<std::__ndk1::basic_string<char, std::__ndk1::char_traits<char>, std::__ndk1::allocator<char> >, std::__ndk1::shared_ptr<geode::Hook> >, void*>*, long>)
PUBLIC 78ca0 0 std::__ndk1::__tree_remove[abi:ne180000]<std::__ndk1::__tree_node_base<void*>*>(std::__ndk1::__tree_node_base<void*>*, std::__ndk1::__tree_node_base<void*>*)
PUBLIC 79068 0 std::__ndk1::__tree<std::__ndk1::__value_type<std::__ndk1::basic_string<char, std::__ndk1::char_traits<char>, std::__ndk1::allocator<char> >, std::__ndk1::shared_ptr<geode::Hook> >, std::__ndk1::__map_value_compare<std::__ndk1::basic_string<char, std::__ndk1::char_traits<char>, std::__ndk1::allocator<char> >, std::__ndk1::__value_type<std::__ndk1::basic_string<char, std::__ndk1::char_traits<char>, std::__ndk1::allocator<char> >, std::__ndk1::shared_ptr<geode::Hook> >, std::__ndk1::less<std::__ndk1::basic_string<char, std::__ndk1::char_traits<char>, std::__ndk1::allocator<char> > >, true>, std::__ndk1::allocator<std::__ndk1::__value_type<std::__ndk1::basic_string<char, std::__ndk1::char_traits<char>, std::__ndk1::allocator<char> >, std::__ndk1::shared_ptr<geode::Hook> > > >::destroy(std::__ndk1::__tree_node<std::__ndk1::__value_type<std::__ndk1::basic_string<char, std::__ndk1::char_traits<char>, std::__ndk1::allocator<char> >, std::__ndk1::shared_ptr<geode::Hook> >, void*>*)
PUBLIC 790f4 0 geode::modifier::AsStaticFunction_onPlay<GDWTEditLevelLayer, void (GDWTEditLevelLayer::*)(cocos2d::CCObject*)>::Impl<void (GDWTEditLevelLayer::*)(cocos2d::CCObject*)>::function(GDWTEditLevelLayer*, cocos2d::CCObject*)
PUBLIC 79130 0 std::__ndk1::shared_ptr<tulip::hook::CallingConvention>::~shared_ptr[abi:ne180000]()
PUBLIC 79180 0 tulip::hook::HandlerMetadata::~HandlerMetadata()
PUBLIC 791e4 0 std::__ndk1::__tree<std::__ndk1::__value_type<std::__ndk1::basic_string<char, std::__ndk1::char_traits<char>, std::__ndk1::allocator<char> >, std::__ndk1::shared_ptr<geode::Hook> >, std::__ndk1::__map_value_compare<std::__ndk1::basic_string<char, std::__ndk1::char_traits<char>, std::__ndk1::allocator<char> >, std::__ndk1::__value_type<std::__ndk1::basic_string<char, std::__ndk1::char_traits<char>, std::__ndk1::allocator<char> >, std::__ndk1::shared_ptr<geode::Hook> >, std::__ndk1::less<std::__ndk1::basic_string<char, std::__ndk1::char_traits<char>, std::__ndk1::allocator<char> > >, true>, std::__ndk1::allocator<std::__ndk1::__value_type<std::__ndk1::basic_string<char, std::__ndk1::char_traits<char>, std::__ndk1::allocator<char> >, std::__ndk1::shared_ptr<geode::Hook> > > >::__emplace_unique_key_args<std::__ndk1::basic_string<char, std::__ndk1::char_traits<char>, std::__ndk1::allocator<char> >, std::__ndk1::piecewise_construct_t const&, std::__ndk1::tuple<std::__ndk1::basic_string<char, std::__ndk1::char_traits<char>, std::__ndk1::allocator<char> >&&>, std::__ndk1::tuple<> >(std::__ndk1::basic_string<char, std::__ndk1::char_traits<char>, std::__ndk1::allocator<char> > const&, std::__ndk1::piecewise_construct_t const&, std::__ndk1::tuple<std::__ndk1::basic_string<char, std::__ndk1::char_traits<char>, std::__ndk1::allocator<char> >&&>, std::__ndk1::tuple<>)
PUBLIC 7935c 0 std::__ndk1::__tree_balance_after_insert[abi:ne180000]<std::__ndk1::__tree_node_base<void*>*>(std::__ndk1::__tree_node_base<void*>*, std::__ndk1::__tree_node_base<void*>*)
PUBLIC 7950c 0 cocos2d::CCCopying::copyWithZone(cocos2d::CCZone*)
PUBLIC 79514 0 cocos2d::CCKeyboardDelegate::keyUp(cocos2d::enumKeyCodes)
PUBLIC 79518 0 cocos2d::CCMouseDelegate::rightKeyDown()
PUBLIC 7951c 0 cocos2d::CCMouseDelegate::rightKeyUp()
PUBLIC 79520 0 cocos2d::CCMouseDelegate::scrollWheel(float, float)
PUBLIC 79524 0 __cxx_global_var_init
PUBLIC 799a4 0 geode::modifier::ModifyBase<geode::modifier::ModifyDerive<GDWTLevelInfoLayer, LevelInfoLayer> >::~ModifyBase()
PUBLIC 799c0 0 geode::modifier::ModifyDerive<GDWTLevelInfoLayer, LevelInfoLayer>::apply()
PUBLIC 7a340 0 geode::modifier::ModifyBase<geode::modifier::ModifyDerive<GDWTLevelInfoLayer, LevelInfoLayer> >::apply()
PUBLIC 7a344 0 geode::modifier::AsStaticFunction_FLAlert_Clicked<GDWTLevelInfoLayer, void (GDWTLevelInfoLayer::*)(FLAlertLayer*, bool)>::Impl<void (GDWTLevelInfoLayer::*)(FLAlertLayer*, bool)>::function(GDWTLevelInfoLayer*, FLAlertLayer*, bool)
PUBLIC 7a3b8 0 geode::modifier::AsStaticFunction_init<GDWTLevelInfoLayer, bool (GDWTLevelInfoLayer::*)(GJGameLevel*, bool)>::Impl<bool (GDWTLevelInfoLayer::*)(GJGameLevel*, bool)>::function(GDWTLevelInfoLayer*, GJGameLevel*, bool)
PUBLIC 7a554 0 geode::modifier::AsStaticFunction_onPlay<GDWTLevelInfoLayer, void (GDWTLevelInfoLayer::*)(cocos2d::CCObject*)>::Impl<void (GDWTLevelInfoLayer::*)(cocos2d::CCObject*)>::function(GDWTLevelInfoLayer*, cocos2d::CCObject*)
PUBLIC 7a598 0 geode::addresser::Addresser::addressOfVirtual<void, LevelInfoLayer, FLAlertLayer*, bool>(void (LevelInfoLayer::*)(FLAlertLayer*, bool))
PUBLIC 7a640 0 LevelInfoLayer::LevelInfoLayer(geode::ZeroConstructorType)
PUBLIC 7a6f4 0 std::__ndk1::vector<tulip::hook::AbstractType, std::__ndk1::allocator<tulip::hook::AbstractType> >::__throw_length_error[abi:ne180000]() const
PUBLIC 7a708 0 geode::Task<geode::Result<std::__ndk1::vector<PlayerData, std::__ndk1::allocator<PlayerData> >, std::__ndk1::basic_string<char, std::__ndk1::char_traits<char>, std::__ndk1::allocator<char> > >, std::__ndk1::monostate>::~Task()
PUBLIC 7a758 0 geode::Task<geode::Result<std::__ndk1::vector<Team, std::__ndk1::allocator<Team> >, std::__ndk1::basic_string<char, std::__ndk1::char_traits<char>, std::__ndk1::allocator<char> > >, std::__ndk1::monostate>::~Task()
PUBLIC 7a7a8 0 geode::Task<geode::Result<std::__ndk1::vector<Match_s, std::__ndk1::allocator<Match_s> >, std::__ndk1::basic_string<char, std::__ndk1::char_traits<char>, std::__ndk1::allocator<char> > >, std::__ndk1::monostate>::~Task()
PUBLIC 7a7f8 0 geode::Task<geode::Result<std::__ndk1::vector<MatchGroup, std::__ndk1::allocator<MatchGroup> >, std::__ndk1::basic_string<char, std::__ndk1::char_traits<char>, std::__ndk1::allocator<char> > >, std::__ndk1::monostate>::~Task()
PUBLIC 7a848 0 GDWTMenuLayer::onGDWTButton(cocos2d::CCObject*)
PUBLIC 7a8fc 0 __cxx_global_var_init
PUBLIC 7ad7c 0 geode::modifier::ModifyBase<geode::modifier::ModifyDerive<GDWTMenuLayer, MenuLayer> >::~ModifyBase()
PUBLIC 7ad98 0 geode::modifier::ModifyDerive<GDWTMenuLayer, MenuLayer>::apply()
PUBLIC 7b0a0 0 geode::modifier::ModifyBase<geode::modifier::ModifyDerive<GDWTMenuLayer, MenuLayer> >::apply()
PUBLIC 7b0a4 0 geode::modifier::AsStaticFunction_init<GDWTMenuLayer, bool (GDWTMenuLayer::*)()>::Impl<bool (GDWTMenuLayer::*)()>::function(GDWTMenuLayer*)
PUBLIC 7b988 0 geode::addresser::Addresser::addressOfVirtual<bool, MenuLayer, >(bool (MenuLayer::*)())
PUBLIC 7ba30 0 MenuLayer::MenuLayer(geode::ZeroConstructorType)
PUBLIC 7bacc 0 geode::Task<geode::Result<std::__ndk1::vector<PlayerData, std::__ndk1::allocator<PlayerData> >, std::__ndk1::basic_string<char, std::__ndk1::char_traits<char>, std::__ndk1::allocator<char> > >, std::__ndk1::monostate>::setListener(geode::EventListenerProtocol*)
PUBLIC 7bce8 0 geode::EventListener<geode::Task<geode::Result<std::__ndk1::vector<PlayerData, std::__ndk1::allocator<PlayerData> >, std::__ndk1::basic_string<char, std::__ndk1::char_traits<char>, std::__ndk1::allocator<char> > >, std::__ndk1::monostate> >::getPool() const
PUBLIC 7bcec 0 geode::EventListener<geode::Task<geode::Result<std::__ndk1::vector<PlayerData, std::__ndk1::allocator<PlayerData> >, std::__ndk1::basic_string<char, std::__ndk1::char_traits<char>, std::__ndk1::allocator<char> > >, std::__ndk1::monostate> >::handle(geode::Event*)
PUBLIC 7beb8 0 geode::EventListener<geode::Task<geode::Result<std::__ndk1::vector<PlayerData, std::__ndk1::allocator<PlayerData> >, std::__ndk1::basic_string<char, std::__ndk1::char_traits<char>, std::__ndk1::allocator<char> > >, std::__ndk1::monostate> >::~EventListener()
PUBLIC 7bf54 0 geode::EventListener<geode::Task<geode::Result<std::__ndk1::vector<PlayerData, std::__ndk1::allocator<PlayerData> >, std::__ndk1::basic_string<char, std::__ndk1::char_traits<char>, std::__ndk1::allocator<char> > >, std::__ndk1::monostate> >::~EventListener()
PUBLIC 7bff8 0 geode::Task<geode::Result<std::__ndk1::vector<PlayerData, std::__ndk1::allocator<PlayerData> >, std::__ndk1::basic_string<char, std::__ndk1::char_traits<char>, std::__ndk1::allocator<char> > >, std::__ndk1::monostate>::setListener(geode::EventListenerProtocol*)::{lambda()#1}::~{lambda()#1}()
PUBLIC 7c048 0 geode::Task<geode::Result<std::__ndk1::vector<PlayerData, std::__ndk1::allocator<PlayerData> >, std::__ndk1::basic_string<char, std::__ndk1::char_traits<char>, std::__ndk1::allocator<char> > >, std::__ndk1::monostate>::setListener(geode::EventListenerProtocol*)::{lambda()#2}::~{lambda()#2}()
PUBLIC 7c098 0 std::__ndk1::__function::__func<geode::Task<geode::Result<std::__ndk1::vector<PlayerData, std::__ndk1::allocator<PlayerData> >, std::__ndk1::basic_string<char, std::__ndk1::char_traits<char>, std::__ndk1::allocator<char> > >, std::__ndk1::monostate>::setListener(geode::EventListenerProtocol*)::{lambda()#1}, std::__ndk1::allocator<geode::Task<geode::Result<std::__ndk1::vector<PlayerData, std::__ndk1::allocator<PlayerData> >, std::__ndk1::basic_string<char, std::__ndk1::char_traits<char>, std::__ndk1::allocator<char> > >, std::__ndk1::monostate>::setListener(geode::EventListenerProtocol*)::{lambda()#1}>, void ()>::~__func()
PUBLIC 7c0f4 0 std::__ndk1::__function::__func<geode::Task<geode::Result<std::__ndk1::vector<PlayerData, std::__ndk1::allocator<PlayerData> >, std::__ndk1::basic_string<char, std::__ndk1::char_traits<char>, std::__ndk1::allocator<char> > >, std::__ndk1::monostate>::setListener(geode::EventListenerProtocol*)::{lambda()#1}, std::__ndk1::allocator<geode::Task<geode::Result<std::__ndk1::vector<PlayerData, std::__ndk1::allocator<PlayerData> >, std::__ndk1::basic_string<char, std::__ndk1::char_traits<char>, std::__ndk1::allocator<char> > >, std::__ndk1::monostate>::setListener(geode::EventListenerProtocol*)::{lambda()#1}>, void ()>::~__func()
PUBLIC 7c160 0 std::__ndk1::__function::__func<geode::Task<geode::Result<std::__ndk1::vector<PlayerData, std::__ndk1::allocator<PlayerData> >, std::__ndk1::basic_string<char, std::__ndk1::char_traits<char>, std::__ndk1::allocator<char> > >, std::__ndk1::monostate>::setListener(geode::EventListenerProtocol*)::{lambda()#1}, std::__ndk1::allocator<geode::Task<geode::Result<std::__ndk1::vector<PlayerData, std::__ndk1::allocator<PlayerData> >, std::__ndk1::basic_string<char, std::__ndk1::char_traits<char>, std::__ndk1::allocator<char> > >, std::__ndk1::monostate>::setListener(geode::EventListenerProtocol*)::{lambda()#1}>, void ()>::__clone() const
PUBLIC 7c1b8 0 std::__ndk1::__function::__func<geode::Task<geode::Result<std::__ndk1::vector<PlayerData, std::__ndk1::allocator<PlayerData> >, std::__ndk1::basic_string<char, std::__ndk1::char_traits<char>, std::__ndk1::allocator<char> > >, std::__ndk1::monostate>::setListener(geode::EventListenerProtocol*)::{lambda()#1}, std::__ndk1::allocator<geode::Task<geode::Result<std::__ndk1::vector<PlayerData, std::__ndk1::allocator<PlayerData> >, std::__ndk1::basic_string<char, std::__ndk1::char_traits<char>, std::__ndk1::allocator<char> > >, std::__ndk1::monostate>::setListener(geode::EventListenerProtocol*)::{lambda()#1}>, void ()>::__clone(std::__ndk1::__function::__base<void ()>*) const
PUBLIC 7c204 0 std::__ndk1::__function::__func<geode::Task<geode::Result<std::__ndk1::vector<PlayerData, std::__ndk1::allocator<PlayerData> >, std::__ndk1::basic_string<char, std::__ndk1::char_traits<char>, std::__ndk1::allocator<char> > >, std::__ndk1::monostate>::setListener(geode::EventListenerProtocol*)::{lambda()#1}, std::__ndk1::allocator<geode::Task<geode::Result<std::__ndk1::vector<PlayerData, std::__ndk1::allocator<PlayerData> >, std::__ndk1::basic_string<char, std::__ndk1::char_traits<char>, std::__ndk1::allocator<char> > >, std::__ndk1::monostate>::setListener(geode::EventListenerProtocol*)::{lambda()#1}>, void ()>::destroy()
PUBLIC 7c254 0 std::__ndk1::__function::__func<geode::Task<geode::Result<std::__ndk1::vector<PlayerData, std::__ndk1::allocator<PlayerData> >, std::__ndk1::basic_string<char, std::__ndk1::char_traits<char>, std::__ndk1::allocator<char> > >, std::__ndk1::monostate>::setListener(geode::EventListenerProtocol*)::{lambda()#1}, std::__ndk1::allocator<geode::Task<geode::Result<std::__ndk1::vector<PlayerData, std::__ndk1::allocator<PlayerData> >, std::__ndk1::basic_string<char, std::__ndk1::char_traits<char>, std::__ndk1::allocator<char> > >, std::__ndk1::monostate>::setListener(geode::EventListenerProtocol*)::{lambda()#1}>, void ()>::destroy_deallocate()
PUBLIC 7c2b4 0 std::__ndk1::__function::__func<geode::Task<geode::Result<std::__ndk1::vector<PlayerData, std::__ndk1::allocator<PlayerData> >, std::__ndk1::basic_string<char, std::__ndk1::char_traits<char>, std::__ndk1::allocator<char> > >, std::__ndk1::monostate>::setListener(geode::EventListenerProtocol*)::{lambda()#1}, std::__ndk1::allocator<geode::Task<geode::Result<std::__ndk1::vector<PlayerData, std::__ndk1::allocator<PlayerData> >, std::__ndk1::basic_string<char, std::__ndk1::char_traits<char>, std::__ndk1::allocator<char> > >, std::__ndk1::monostate>::setListener(geode::EventListenerProtocol*)::{lambda()#1}>, void ()>::operator()()
PUBLIC 7c2bc 0 std::__ndk1::__function::__func<geode::Task<geode::Result<std::__ndk1::vector<PlayerData, std::__ndk1::allocator<PlayerData> >, std::__ndk1::basic_string<char, std::__ndk1::char_traits<char>, std::__ndk1::allocator<char> > >, std::__ndk1::monostate>::setListener(geode::EventListenerProtocol*)::{lambda()#1}, std::__ndk1::allocator<geode::Task<geode::Result<std::__ndk1::vector<PlayerData, std::__ndk1::allocator<PlayerData> >, std::__ndk1::basic_string<char, std::__ndk1::char_traits<char>, std::__ndk1::allocator<char> > >, std::__ndk1::monostate>::setListener(geode::EventListenerProtocol*)::{lambda()#1}>, void ()>::target(std::type_info const&) const
PUBLIC 7c2d8 0 std::__ndk1::__function::__func<geode::Task<geode::Result<std::__ndk1::vector<PlayerData, std::__ndk1::allocator<PlayerData> >, std::__ndk1::basic_string<char, std::__ndk1::char_traits<char>, std::__ndk1::allocator<char> > >, std::__ndk1::monostate>::setListener(geode::EventListenerProtocol*)::{lambda()#1}, std::__ndk1::allocator<geode::Task<geode::Result<std::__ndk1::vector<PlayerData, std::__ndk1::allocator<PlayerData> >, std::__ndk1::basic_string<char, std::__ndk1::char_traits<char>, std::__ndk1::allocator<char> > >, std::__ndk1::monostate>::setListener(geode::EventListenerProtocol*)::{lambda()#1}>, void ()>::target_type() const
PUBLIC 7c2e4 0 geode::Task<geode::Result<std::__ndk1::vector<PlayerData, std::__ndk1::allocator<PlayerData> >, std::__ndk1::basic_string<char, std::__ndk1::char_traits<char>, std::__ndk1::allocator<char> > >, std::__ndk1::monostate>::setListener(geode::EventListenerProtocol*)::{lambda()#1}::operator()() const
PUBLIC 7c4b4 0 geode::Task<geode::Result<std::__ndk1::vector<PlayerData, std::__ndk1::allocator<PlayerData> >, std::__ndk1::basic_string<char, std::__ndk1::char_traits<char>, std::__ndk1::allocator<char> > >, std::__ndk1::monostate>::Event::~Event()
PUBLIC 7c514 0 geode::Task<geode::Result<std::__ndk1::vector<PlayerData, std::__ndk1::allocator<PlayerData> >, std::__ndk1::basic_string<char, std::__ndk1::char_traits<char>, std::__ndk1::allocator<char> > >, std::__ndk1::monostate>::Event::~Event()
PUBLIC 7c584 0 std::__ndk1::__function::__func<geode::Task<geode::Result<std::__ndk1::vector<PlayerData, std::__ndk1::allocator<PlayerData> >, std::__ndk1::basic_string<char, std::__ndk1::char_traits<char>, std::__ndk1::allocator<char> > >, std::__ndk1::monostate>::setListener(geode::EventListenerProtocol*)::{lambda()#2}, std::__ndk1::allocator<geode::Task<geode::Result<std::__ndk1::vector<PlayerData, std::__ndk1::allocator<PlayerData> >, std::__ndk1::basic_string<char, std::__ndk1::char_traits<char>, std::__ndk1::allocator<char> > >, std::__ndk1::monostate>::setListener(geode::EventListenerProtocol*)::{lambda()#2}>, void ()>::~__func()
PUBLIC 7c5e0 0 std::__ndk1::__function::__func<geode::Task<geode::Result<std::__ndk1::vector<PlayerData, std::__ndk1::allocator<PlayerData> >, std::__ndk1::basic_string<char, std::__ndk1::char_traits<char>, std::__ndk1::allocator<char> > >, std::__ndk1::monostate>::setListener(geode::EventListenerProtocol*)::{lambda()#2}, std::__ndk1::allocator<geode::Task<geode::Result<std::__ndk1::vector<PlayerData, std::__ndk1::allocator<PlayerData> >, std::__ndk1::basic_string<char, std::__ndk1::char_traits<char>, std::__ndk1::allocator<char> > >, std::__ndk1::monostate>::setListener(geode::EventListenerProtocol*)::{lambda()#2}>, void ()>::~__func()
PUBLIC 7c64c 0 std::__ndk1::__function::__func<geode::Task<geode::Result<std::__ndk1::vector<PlayerData, std::__ndk1::allocator<PlayerData> >, std::__ndk1::basic_string<char, std::__ndk1::char_traits<char>, std::__ndk1::allocator<char> > >, std::__ndk1::monostate>::setListener(geode::EventListenerProtocol*)::{lambda()#2}, std::__ndk1::allocator<geode::Task<geode::Result<std::__ndk1::vector<PlayerData, std::__ndk1::allocator<PlayerData> >, std::__ndk1::basic_string<char, std::__ndk1::char_traits<char>, std::__ndk1::allocator<char> > >, std::__ndk1::monostate>::setListener(geode::EventListenerProtocol*)::{lambda()#2}>, void ()>::__clone() const
PUBLIC 7c6a4 0 std::__ndk1::__function::__func<geode::Task<geode::Result<std::__ndk1::vector<PlayerData, std::__ndk1::allocator<PlayerData> >, std::__ndk1::basic_string<char, std::__ndk1::char_traits<char>, std::__ndk1::allocator<char> > >, std::__ndk1::monostate>::setListener(geode::EventListenerProtocol*)::{lambda()#2}, std::__ndk1::allocator<geode::Task<geode::Result<std::__ndk1::vector<PlayerData, std::__ndk1::allocator<PlayerData> >, std::__ndk1::basic_string<char, std::__ndk1::char_traits<char>, std::__ndk1::allocator<char> > >, std::__ndk1::monostate>::setListener(geode::EventListenerProtocol*)::{lambda()#2}>, void ()>::__clone(std::__ndk1::__function::__base<void ()>*) const
PUBLIC 7c6f0 0 std::__ndk1::__function::__func<geode::Task<geode::Result<std::__ndk1::vector<PlayerData, std::__ndk1::allocator<PlayerData> >, std::__ndk1::basic_string<char, std::__ndk1::char_traits<char>, std::__ndk1::allocator<char> > >, std::__ndk1::monostate>::setListener(geode::EventListenerProtocol*)::{lambda()#2}, std::__ndk1::allocator<geode::Task<geode::Result<std::__ndk1::vector<PlayerData, std::__ndk1::allocator<PlayerData> >, std::__ndk1::basic_string<char, std::__ndk1::char_traits<char>, std::__ndk1::allocator<char> > >, std::__ndk1::monostate>::setListener(geode::EventListenerProtocol*)::{lambda()#2}>, void ()>::destroy()
PUBLIC 7c740 0 std::__ndk1::__function::__func<geode::Task<geode::Result<std::__ndk1::vector<PlayerData, std::__ndk1::allocator<PlayerData> >, std::__ndk1::basic_string<char, std::__ndk1::char_traits<char>, std::__ndk1::allocator<char> > >, std::__ndk1::monostate>::setListener(geode::EventListenerProtocol*)::{lambda()#2}, std::__ndk1::allocator<geode::Task<geode::Result<std::__ndk1::vector<PlayerData, std::__ndk1::allocator<PlayerData> >, std::__ndk1::basic_string<char, std::__ndk1::char_traits<char>, std::__ndk1::allocator<char> > >, std::__ndk1::monostate>::setListener(geode::EventListenerProtocol*)::{lambda()#2}>, void ()>::destroy_deallocate()
PUBLIC 7c7a0 0 std::__ndk1::__function::__func<geode::Task<geode::Result<std::__ndk1::vector<PlayerData, std::__ndk1::allocator<PlayerData> >, std::__ndk1::basic_string<char, std::__ndk1::char_traits<char>, std::__ndk1::allocator<char> > >, std::__ndk1::monostate>::setListener(geode::EventListenerProtocol*)::{lambda()#2}, std::__ndk1::allocator<geode::Task<geode::Result<std::__ndk1::vector<PlayerData, std::__ndk1::allocator<PlayerData> >, std::__ndk1::basic_string<char, std::__ndk1::char_traits<char>, std::__ndk1::allocator<char> > >, std::__ndk1::monostate>::setListener(geode::EventListenerProtocol*)::{lambda()#2}>, void ()>::operator()()
PUBLIC 7c7a8 0 std::__ndk1::__function::__func<geode::Task<geode::Result<std::__ndk1::vector<PlayerData, std::__ndk1::allocator<PlayerData> >, std::__ndk1::basic_string<char, std::__ndk1::char_traits<char>, std::__ndk1::allocator<char> > >, std::__ndk1::monostate>::setListener(geode::EventListenerProtocol*)::{lambda()#2}, std::__ndk1::allocator<geode::Task<geode::Result<std::__ndk1::vector<PlayerData, std::__ndk1::allocator<PlayerData> >, std::__ndk1::basic_string<char, std::__ndk1::char_traits<char>, std::__ndk1::allocator<char> > >, std::__ndk1::monostate>::setListener(geode::EventListenerProtocol*)::{lambda()#2}>, void ()>::target(std::type_info const&) const
PUBLIC 7c7c4 0 std::__ndk1::__function::__func<geode::Task<geode::Result<std::__ndk1::vector<PlayerData, std::__ndk1::allocator<PlayerData> >, std::__ndk1::basic_string<char, std::__ndk1::char_traits<char>, std::__ndk1::allocator<char> > >, std::__ndk1::monostate>::setListener(geode::EventListenerProtocol*)::{lambda()#2}, std::__ndk1::allocator<geode::Task<geode::Result<std::__ndk1::vector<PlayerData, std::__ndk1::allocator<PlayerData> >, std::__ndk1::basic_string<char, std::__ndk1::char_traits<char>, std::__ndk1::allocator<char> > >, std::__ndk1::monostate>::setListener(geode::EventListenerProtocol*)::{lambda()#2}>, void ()>::target_type() const
PUBLIC 7c7d0 0 geode::Task<geode::Result<std::__ndk1::vector<PlayerData, std::__ndk1::allocator<PlayerData> >, std::__ndk1::basic_string<char, std::__ndk1::char_traits<char>, std::__ndk1::allocator<char> > >, std::__ndk1::monostate>::setListener(geode::EventListenerProtocol*)::{lambda()#2}::operator()() const
PUBLIC 7c994 0 geode::cast::traverseTypeinfoFor(void*, geode::cast::ClassTypeinfoType const*, char const*)
PUBLIC 7ca98 0 std::__ndk1::__throw_bad_function_call[abi:ne180000]()
PUBLIC 7cacc 0 std::__ndk1::bad_function_call::~bad_function_call()
PUBLIC 7caf0 0 std::__ndk1::__function::__value_func<void (geode::Task<geode::Result<std::__ndk1::vector<PlayerData, std::__ndk1::allocator<PlayerData> >, std::__ndk1::basic_string<char, std::__ndk1::char_traits<char>, std::__ndk1::allocator<char> > >, std::__ndk1::monostate>::Event*)>::swap[abi:ne180000](std::__ndk1::__function::__value_func<void (geode::Task<geode::Result<std::__ndk1::vector<PlayerData, std::__ndk1::allocator<PlayerData> >, std::__ndk1::basic_string<char, std::__ndk1::char_traits<char>, std::__ndk1::allocator<char> > >, std::__ndk1::monostate>::Event*)>&)
PUBLIC 7cc88 0 std::__ndk1::__function::__base<void (geode::Task<geode::Result<std::__ndk1::vector<PlayerData, std::__ndk1::allocator<PlayerData> >, std::__ndk1::basic_string<char, std::__ndk1::char_traits<char>, std::__ndk1::allocator<char> > >, std::__ndk1::monostate>::Event*)>::~__base()
PUBLIC 7cc8c 0 std::__ndk1::__function::__func<geode::Task<geode::Result<std::__ndk1::vector<PlayerData, std::__ndk1::allocator<PlayerData> >, std::__ndk1::basic_string<char, std::__ndk1::char_traits<char>, std::__ndk1::allocator<char> > >, std::__ndk1::monostate>::listen<GDWTMenuLayer::init()::$_0, geode::Task<geode::Result<std::__ndk1::vector<PlayerData, std::__ndk1::allocator<PlayerData> >, std::__ndk1::basic_string<char, std::__ndk1::char_traits<char>, std::__ndk1::allocator<char> > >, std::__ndk1::monostate>::listen<GDWTMenuLayer::init()::$_0>(GDWTMenuLayer::init()::$_0&&) const::{lambda(auto:1 const&)#1}, geode::Task<geode::Result<std::__ndk1::vector<PlayerData, std::__ndk1::allocator<PlayerData> >, std::__ndk1::basic_string<char, std::__ndk1::char_traits<char>, std::__ndk1::allocator<char> > >, std::__ndk1::monostate>::listen<GDWTMenuLayer::init()::$_0>(GDWTMenuLayer::init()::$_0&&) const::{lambda()#1}>(GDWTMenuLayer::init()::$_0&&, geode::Task<geode::Result<std::__ndk1::vector<PlayerData, std::__ndk1::allocator<PlayerData> >, std::__ndk1::basic_string<char, std::__ndk1::char_traits<char>, std::__ndk1::allocator<char> > >, std::__ndk1::monostate>::listen<GDWTMenuLayer::init()::$_0>(GDWTMenuLayer::init()::$_0&&) const::{lambda(auto:1 const&)#1}, geode::Task<geode::Result<std::__ndk1::vector<PlayerData, std::__ndk1::allocator<PlayerData> >, std::__ndk1::basic_string<char, std::__ndk1::char_traits<char>, std::__ndk1::allocator<char> > >, std::__ndk1::monostate>::listen<GDWTMenuLayer::init()::$_0>(GDWTMenuLayer::init()::$_0&&) const::{lambda()#1}&&) const::{lambda(geode::Task<geode::Result<std::__ndk1::vector<PlayerData, std::__ndk1::allocator<PlayerData> >, std::__ndk1::basic_string<char, std::__ndk1::char_traits<char>, std::__ndk1::allocator<char> > >, std::__ndk1::monostate>::Event*)#1}, std::__ndk1::allocator<geode::Task<geode::Result<std::__ndk1::vector<PlayerData, std::__ndk1::allocator<PlayerData> >, std::__ndk1::basic_string<char, std::__ndk1::char_traits<char>, std::__ndk1::allocator<char> > >, std::__ndk1::monostate>::listen<GDWTMenuLayer::init()::$_0, geode::Task<geode::Result<std::__ndk1::vector<PlayerData, std::__ndk1::allocator<PlayerData> >, std::__ndk1::basic_string<char, std::__ndk1::char_traits<char>, std::__ndk1::allocator<char> > >, std::__ndk1::monostate>::listen<GDWTMenuLayer::init()::$_0>(GDWTMenuLayer::init()::$_0&&) const::{lambda(auto:1 const&)#1}, geode::Task<geode::Result<std::__ndk1::vector<PlayerData, std::__ndk1::allocator<PlayerData> >, std::__ndk1::basic_string<char, std::__ndk1::char_traits<char>, std::__ndk1::allocator<char> > >, std::__ndk1::monostate>::listen<GDWTMenuLayer::init()::$_0>(GDWTMenuLayer::init()::$_0&&) const::{lambda()#1}>(GDWTMenuLayer::init()::$_0&&, geode::Task<geode::Result<std::__ndk1::vector<PlayerData, std::__ndk1::allocator<PlayerData> >, std::__ndk1::basic_string<char, std::__ndk1::char_traits<char>, std::__ndk1::allocator<char> > >, std::__ndk1::monostate>::listen<GDWTMenuLayer::init()::$_0>(GDWTMenuLayer::init()::$_0&&) const::{lambda(auto:1 const&)#1}, geode::Task<geode::Result<std::__ndk1::vector<PlayerData, std::__ndk1::allocator<PlayerData> >, std::__ndk1::basic_string<char, std::__ndk1::char_traits<char>, std::__ndk1::allocator<char> > >, std::__ndk1::monostate>::listen<GDWTMenuLayer::init()::$_0>(GDWTMenuLayer::init()::$_0&&) const::{lambda()#1}&&) const::{lambda(geode::Task<geode::Result<std::__ndk1::vector<PlayerData, std::__ndk1::allocator<PlayerData> >, std::__ndk1::basic_string<char, std::__ndk1::char_traits<char>, std::__ndk1::allocator<char> > >, std::__ndk1::monostate>::Event*)#1}>, void (geode::Task<geode::Result<std::__ndk1::vector<PlayerData, std::__ndk1::allocator<PlayerData> >, std::__ndk1::basic_string<char, std::__ndk1::char_traits<char>, std::__ndk1::allocator<char> > >, std::__ndk1::monostate>::Event*)>::~__func()
PUBLIC 7cc90 0 std::__ndk1::__function::__func<geode::Task<geode::Result<std::__ndk1::vector<PlayerData, std::__ndk1::allocator<PlayerData> >, std::__ndk1::basic_string<char, std::__ndk1::char_traits<char>, std::__ndk1::allocator<char> > >, std::__ndk1::monostate>::listen<GDWTMenuLayer::init()::$_0, geode::Task<geode::Result<std::__ndk1::vector<PlayerData, std::__ndk1::allocator<PlayerData> >, std::__ndk1::basic_string<char, std::__ndk1::char_traits<char>, std::__ndk1::allocator<char> > >, std::__ndk1::monostate>::listen<GDWTMenuLayer::init()::$_0>(GDWTMenuLayer::init()::$_0&&) const::{lambda(auto:1 const&)#1}, geode::Task<geode::Result<std::__ndk1::vector<PlayerData, std::__ndk1::allocator<PlayerData> >, std::__ndk1::basic_string<char, std::__ndk1::char_traits<char>, std::__ndk1::allocator<char> > >, std::__ndk1::monostate>::listen<GDWTMenuLayer::init()::$_0>(GDWTMenuLayer::init()::$_0&&) const::{lambda()#1}>(GDWTMenuLayer::init()::$_0&&, geode::Task<geode::Result<std::__ndk1::vector<PlayerData, std::__ndk1::allocator<PlayerData> >, std::__ndk1::basic_string<char, std::__ndk1::char_traits<char>, std::__ndk1::allocator<char> > >, std::__ndk1::monostate>::listen<GDWTMenuLayer::init()::$_0>(GDWTMenuLayer::init()::$_0&&) const::{lambda(auto:1 const&)#1}, geode::Task<geode::Result<std::__ndk1::vector<PlayerData, std::__ndk1::allocator<PlayerData> >, std::__ndk1::basic_string<char, std::__ndk1::char_traits<char>, std::__ndk1::allocator<char> > >, std::__ndk1::monostate>::listen<GDWTMenuLayer::init()::$_0>(GDWTMenuLayer::init()::$_0&&) const::{lambda()#1}&&) const::{lambda(geode::Task<geode::Result<std::__ndk1::vector<PlayerData, std::__ndk1::allocator<PlayerData> >, std::__ndk1::basic_string<char, std::__ndk1::char_traits<char>, std::__ndk1::allocator<char> > >, std::__ndk1::monostate>::Event*)#1}, std::__ndk1::allocator<geode::Task<geode::Result<std::__ndk1::vector<PlayerData, std::__ndk1::allocator<PlayerData> >, std::__ndk1::basic_string<char, std::__ndk1::char_traits<char>, std::__ndk1::allocator<char> > >, std::__ndk1::monostate>::listen<GDWTMenuLayer::init()::$_0, geode::Task<geode::Result<std::__ndk1::vector<PlayerData, std::__ndk1::allocator<PlayerData> >, std::__ndk1::basic_string<char, std::__ndk1::char_traits<char>, std::__ndk1::allocator<char> > >, std::__ndk1::monostate>::listen<GDWTMenuLayer::init()::$_0>(GDWTMenuLayer::init()::$_0&&) const::{lambda(auto:1 const&)#1}, geode::Task<geode::Result<std::__ndk1::vector<PlayerData, std::__ndk1::allocator<PlayerData> >, std::__ndk1::basic_string<char, std::__ndk1::char_traits<char>, std::__ndk1::allocator<char> > >, std::__ndk1::monostate>::listen<GDWTMenuLayer::init()::$_0>(GDWTMenuLayer::init()::$_0&&) const::{lambda()#1}>(GDWTMenuLayer::init()::$_0&&, geode::Task<geode::Result<std::__ndk1::vector<PlayerData, std::__ndk1::allocator<PlayerData> >, std::__ndk1::basic_string<char, std::__ndk1::char_traits<char>, std::__ndk1::allocator<char> > >, std::__ndk1::monostate>::listen<GDWTMenuLayer::init()::$_0>(GDWTMenuLayer::init()::$_0&&) const::{lambda(auto:1 const&)#1}, geode::Task<geode::Result<std::__ndk1::vector<PlayerData, std::__ndk1::allocator<PlayerData> >, std::__ndk1::basic_string<char, std::__ndk1::char_traits<char>, std::__ndk1::allocator<char> > >, std::__ndk1::monostate>::listen<GDWTMenuLayer::init()::$_0>(GDWTMenuLayer::init()::$_0&&) const::{lambda()#1}&&) const::{lambda(geode::Task<geode::Result<std::__ndk1::vector<PlayerData, std::__ndk1::allocator<PlayerData> >, std::__ndk1::basic_string<char, std::__ndk1::char_traits<char>, std::__ndk1::allocator<char> > >, std::__ndk1::monostate>::Event*)#1}>, void (geode::Task<geode::Result<std::__ndk1::vector<PlayerData, std::__ndk1::allocator<PlayerData> >, std::__ndk1::basic_string<char, std::__ndk1::char_traits<char>, std::__ndk1::allocator<char> > >, std::__ndk1::monostate>::Event*)>::__clone() const
PUBLIC 7ccc8 0 _ZNKSt6__ndk110__function6__funcIZNK5geode4TaskINS2_6ResultINS_6vectorI10PlayerDataNS_9allocatorIS6_EEEENS_12basic_stringIcNS_11char_traitsIcEENS7_IcEEEEEENS_9monostateEE6listenIZN13GDWTMenuLayer4initEvE3$_0ZNKSH_6listenISK_EEvOT_EUlRKSM_E_ZNKSL_ISK_EEvSN_EUlvE_EEvSN_OT0_OT1_EUlPNSH_5EventEE_NS7_ISY_EEFvSX_EE7__cloneEPNS0_6__baseIS10_EE
PUBLIC 7cce0 0 std::__ndk1::__function::__func<geode::Task<geode::Result<std::__ndk1::vector<PlayerData, std::__ndk1::allocator<PlayerData> >, std::__ndk1::basic_string<char, std::__ndk1::char_traits<char>, std::__ndk1::allocator<char> > >, std::__ndk1::monostate>::listen<GDWTMenuLayer::init()::$_0, geode::Task<geode::Result<std::__ndk1::vector<PlayerData, std::__ndk1::allocator<PlayerData> >, std::__ndk1::basic_string<char, std::__ndk1::char_traits<char>, std::__ndk1::allocator<char> > >, std::__ndk1::monostate>::listen<GDWTMenuLayer::init()::$_0>(GDWTMenuLayer::init()::$_0&&) const::{lambda(auto:1 const&)#1}, geode::Task<geode::Result<std::__ndk1::vector<PlayerData, std::__ndk1::allocator<PlayerData> >, std::__ndk1::basic_string<char, std::__ndk1::char_traits<char>, std::__ndk1::allocator<char> > >, std::__ndk1::monostate>::listen<GDWTMenuLayer::init()::$_0>(GDWTMenuLayer::init()::$_0&&) const::{lambda()#1}>(GDWTMenuLayer::init()::$_0&&, geode::Task<geode::Result<std::__ndk1::vector<PlayerData, std::__ndk1::allocator<PlayerData> >, std::__ndk1::basic_string<char, std::__ndk1::char_traits<char>, std::__ndk1::allocator<char> > >, std::__ndk1::monostate>::listen<GDWTMenuLayer::init()::$_0>(GDWTMenuLayer::init()::$_0&&) const::{lambda(auto:1 const&)#1}, geode::Task<geode::Result<std::__ndk1::vector<PlayerData, std::__ndk1::allocator<PlayerData> >, std::__ndk1::basic_string<char, std::__ndk1::char_traits<char>, std::__ndk1::allocator<char> > >, std::__ndk1::monostate>::listen<GDWTMenuLayer::init()::$_0>(GDWTMenuLayer::init()::$_0&&) const::{lambda()#1}&&) const::{lambda(geode::Task<geode::Result<std::__ndk1::vector<PlayerData, std::__ndk1::allocator<PlayerData> >, std::__ndk1::basic_string<char, std::__ndk1::char_traits<char>, std::__ndk1::allocator<char> > >, std::__ndk1::monostate>::Event*)#1}, std::__ndk1::allocator<geode::Task<geode::Result<std::__ndk1::vector<PlayerData, std::__ndk1::allocator<PlayerData> >, std::__ndk1::basic_string<char, std::__ndk1::char_traits<char>, std::__ndk1::allocator<char> > >, std::__ndk1::monostate>::listen<GDWTMenuLayer::init()::$_0, geode::Task<geode::Result<std::__ndk1::vector<PlayerData, std::__ndk1::allocator<PlayerData> >, std::__ndk1::basic_string<char, std::__ndk1::char_traits<char>, std::__ndk1::allocator<char> > >, std::__ndk1::monostate>::listen<GDWTMenuLayer::init()::$_0>(GDWTMenuLayer::init()::$_0&&) const::{lambda(auto:1 const&)#1}, geode::Task<geode::Result<std::__ndk1::vector<PlayerData, std::__ndk1::allocator<PlayerData> >, std::__ndk1::basic_string<char, std::__ndk1::char_traits<char>, std::__ndk1::allocator<char> > >, std::__ndk1::monostate>::listen<GDWTMenuLayer::init()::$_0>(GDWTMenuLayer::init()::$_0&&) const::{lambda()#1}>(GDWTMenuLayer::init()::$_0&&, geode::Task<geode::Result<std::__ndk1::vector<PlayerData, std::__ndk1::allocator<PlayerData> >, std::__ndk1::basic_string<char, std::__ndk1::char_traits<char>, std::__ndk1::allocator<char> > >, std::__ndk1::monostate>::listen<GDWTMenuLayer::init()::$_0>(GDWTMenuLayer::init()::$_0&&) const::{lambda(auto:1 const&)#1}, geode::Task<geode::Result<std::__ndk1::vector<PlayerData, std::__ndk1::allocator<PlayerData> >, std::__ndk1::basic_string<char, std::__ndk1::char_traits<char>, std::__ndk1::allocator<char> > >, std::__ndk1::monostate>::listen<GDWTMenuLayer::init()::$_0>(GDWTMenuLayer::init()::$_0&&) const::{lambda()#1}&&) const::{lambda(geode::Task<geode::Result<std::__ndk1::vector<PlayerData, std::__ndk1::allocator<PlayerData> >, std::__ndk1::basic_string<char, std::__ndk1::char_traits<char>, std::__ndk1::allocator<char> > >, std::__ndk1::monostate>::Event*)#1}>, void (geode::Task<geode::Result<std::__ndk1::vector<PlayerData, std::__ndk1::allocator<PlayerData> >, std::__ndk1::basic_string<char, std::__ndk1::char_traits<char>, std::__ndk1::allocator<char> > >, std::__ndk1::monostate>::Event*)>::destroy()
PUBLIC 7cce4 0 std::__ndk1::__function::__func<geode::Task<geode::Result<std::__ndk1::vector<PlayerData, std::__ndk1::allocator<PlayerData> >, std::__ndk1::basic_string<char, std::__ndk1::char_traits<char>, std::__ndk1::allocator<char> > >, std::__ndk1::monostate>::listen<GDWTMenuLayer::init()::$_0, geode::Task<geode::Result<std::__ndk1::vector<PlayerData, std::__ndk1::allocator<PlayerData> >, std::__ndk1::basic_string<char, std::__ndk1::char_traits<char>, std::__ndk1::allocator<char> > >, std::__ndk1::monostate>::listen<GDWTMenuLayer::init()::$_0>(GDWTMenuLayer::init()::$_0&&) const::{lambda(auto:1 const&)#1}, geode::Task<geode::Result<std::__ndk1::vector<PlayerData, std::__ndk1::allocator<PlayerData> >, std::__ndk1::basic_string<char, std::__ndk1::char_traits<char>, std::__ndk1::allocator<char> > >, std::__ndk1::monostate>::listen<GDWTMenuLayer::init()::$_0>(GDWTMenuLayer::init()::$_0&&) const::{lambda()#1}>(GDWTMenuLayer::init()::$_0&&, geode::Task<geode::Result<std::__ndk1::vector<PlayerData, std::__ndk1::allocator<PlayerData> >, std::__ndk1::basic_string<char, std::__ndk1::char_traits<char>, std::__ndk1::allocator<char> > >, std::__ndk1::monostate>::listen<GDWTMenuLayer::init()::$_0>(GDWTMenuLayer::init()::$_0&&) const::{lambda(auto:1 const&)#1}, geode::Task<geode::Result<std::__ndk1::vector<PlayerData, std::__ndk1::allocator<PlayerData> >, std::__ndk1::basic_string<char, std::__ndk1::char_traits<char>, std::__ndk1::allocator<char> > >, std::__ndk1::monostate>::listen<GDWTMenuLayer::init()::$_0>(GDWTMenuLayer::init()::$_0&&) const::{lambda()#1}&&) const::{lambda(geode::Task<geode::Result<std::__ndk1::vector<PlayerData, std::__ndk1::allocator<PlayerData> >, std::__ndk1::basic_string<char, std::__ndk1::char_traits<char>, std::__ndk1::allocator<char> > >, std::__ndk1::monostate>::Event*)#1}, std::__ndk1::allocator<geode::Task<geode::Result<std::__ndk1::vector<PlayerData, std::__ndk1::allocator<PlayerData> >, std::__ndk1::basic_string<char, std::__ndk1::char_traits<char>, std::__ndk1::allocator<char> > >, std::__ndk1::monostate>::listen<GDWTMenuLayer::init()::$_0, geode::Task<geode::Result<std::__ndk1::vector<PlayerData, std::__ndk1::allocator<PlayerData> >, std::__ndk1::basic_string<char, std::__ndk1::char_traits<char>, std::__ndk1::allocator<char> > >, std::__ndk1::monostate>::listen<GDWTMenuLayer::init()::$_0>(GDWTMenuLayer::init()::$_0&&) const::{lambda(auto:1 const&)#1}, geode::Task<geode::Result<std::__ndk1::vector<PlayerData, std::__ndk1::allocator<PlayerData> >, std::__ndk1::basic_string<char, std::__ndk1::char_traits<char>, std::__ndk1::allocator<char> > >, std::__ndk1::monostate>::listen<GDWTMenuLayer::init()::$_0>(GDWTMenuLayer::init()::$_0&&) const::{lambda()#1}>(GDWTMenuLayer::init()::$_0&&, geode::Task<geode::Result<std::__ndk1::vector<PlayerData, std::__ndk1::allocator<PlayerData> >, std::__ndk1::basic_string<char, std::__ndk1::char_traits<char>, std::__ndk1::allocator<char> > >, std::__ndk1::monostate>::listen<GDWTMenuLayer::init()::$_0>(GDWTMenuLayer::init()::$_0&&) const::{lambda(auto:1 const&)#1}, geode::Task<geode::Result<std::__ndk1::vector<PlayerData, std::__ndk1::allocator<PlayerData> >, std::__ndk1::basic_string<char, std::__ndk1::char_traits<char>, std::__ndk1::allocator<char> > >, std::__ndk1::monostate>::listen<GDWTMenuLayer::init()::$_0>(GDWTMenuLayer::init()::$_0&&) const::{lambda()#1}&&) const::{lambda(geode::Task<geode::Result<std::__ndk1::vector<PlayerData, std::__ndk1::allocator<PlayerData> >, std::__ndk1::basic_string<char, std::__ndk1::char_traits<char>, std::__ndk1::allocator<char> > >, std::__ndk1::monostate>::Event*)#1}>, void (geode::Task<geode::Result<std::__ndk1::vector<PlayerData, std::__ndk1::allocator<PlayerData> >, std::__ndk1::basic_string<char, std::__ndk1::char_traits<char>, std::__ndk1::allocator<char> > >, std::__ndk1::monostate>::Event*)>::destroy_deallocate()
PUBLIC 7cce8 0 std::__ndk1::__function::__func<geode::Task<geode::Result<std::__ndk1::vector<PlayerData, std::__ndk1::allocator<PlayerData> >, std::__ndk1::basic_string<char, std::__ndk1::char_traits<char>, std::__ndk1::allocator<char> > >, std::__ndk1::monostate>::listen<GDWTMenuLayer::init()::$_0, geode::Task<geode::Result<std::__ndk1::vector<PlayerData, std::__ndk1::allocator<PlayerData> >, std::__ndk1::basic_string<char, std::__ndk1::char_traits<char>, std::__ndk1::allocator<char> > >, std::__ndk1::monostate>::listen<GDWTMenuLayer::init()::$_0>(GDWTMenuLayer::init()::$_0&&) const::{lambda(auto:1 const&)#1}, geode::Task<geode::Result<std::__ndk1::vector<PlayerData, std::__ndk1::allocator<PlayerData> >, std::__ndk1::basic_string<char, std::__ndk1::char_traits<char>, std::__ndk1::allocator<char> > >, std::__ndk1::monostate>::listen<GDWTMenuLayer::init()::$_0>(GDWTMenuLayer::init()::$_0&&) const::{lambda()#1}>(GDWTMenuLayer::init()::$_0&&, geode::Task<geode::Result<std::__ndk1::vector<PlayerData, std::__ndk1::allocator<PlayerData> >, std::__ndk1::basic_string<char, std::__ndk1::char_traits<char>, std::__ndk1::allocator<char> > >, std::__ndk1::monostate>::listen<GDWTMenuLayer::init()::$_0>(GDWTMenuLayer::init()::$_0&&) const::{lambda(auto:1 const&)#1}, geode::Task<geode::Result<std::__ndk1::vector<PlayerData, std::__ndk1::allocator<PlayerData> >, std::__ndk1::basic_string<char, std::__ndk1::char_traits<char>, std::__ndk1::allocator<char> > >, std::__ndk1::monostate>::listen<GDWTMenuLayer::init()::$_0>(GDWTMenuLayer::init()::$_0&&) const::{lambda()#1}&&) const::{lambda(geode::Task<geode::Result<std::__ndk1::vector<PlayerData, std::__ndk1::allocator<PlayerData> >, std::__ndk1::basic_string<char, std::__ndk1::char_traits<char>, std::__ndk1::allocator<char> > >, std::__ndk1::monostate>::Event*)#1}, std::__ndk1::allocator<geode::Task<geode::Result<std::__ndk1::vector<PlayerData, std::__ndk1::allocator<PlayerData> >, std::__ndk1::basic_string<char, std::__ndk1::char_traits<char>, std::__ndk1::allocator<char> > >, std::__ndk1::monostate>::listen<GDWTMenuLayer::init()::$_0, geode::Task<geode::Result<std::__ndk1::vector<PlayerData, std::__ndk1::allocator<PlayerData> >, std::__ndk1::basic_string<char, std::__ndk1::char_traits<char>, std::__ndk1::allocator<char> > >, std::__ndk1::monostate>::listen<GDWTMenuLayer::init()::$_0>(GDWTMenuLayer::init()::$_0&&) const::{lambda(auto:1 const&)#1}, geode::Task<geode::Result<std::__ndk1::vector<PlayerData, std::__ndk1::allocator<PlayerData> >, std::__ndk1::basic_string<char, std::__ndk1::char_traits<char>, std::__ndk1::allocator<char> > >, std::__ndk1::monostate>::listen<GDWTMenuLayer::init()::$_0>(GDWTMenuLayer::init()::$_0&&) const::{lambda()#1}>(GDWTMenuLayer::init()::$_0&&, geode::Task<geode::Result<std::__ndk1::vector<PlayerData, std::__ndk1::allocator<PlayerData> >, std::__ndk1::basic_string<char, std::__ndk1::char_traits<char>, std::__ndk1::allocator<char> > >, std::__ndk1::monostate>::listen<GDWTMenuLayer::init()::$_0>(GDWTMenuLayer::init()::$_0&&) const::{lambda(auto:1 const&)#1}, geode::Task<geode::Result<std::__ndk1::vector<PlayerData, std::__ndk1::allocator<PlayerData> >, std::__ndk1::basic_string<char, std::__ndk1::char_traits<char>, std::__ndk1::allocator<char> > >, std::__ndk1::monostate>::listen<GDWTMenuLayer::init()::$_0>(GDWTMenuLayer::init()::$_0&&) const::{lambda()#1}&&) const::{lambda(geode::Task<geode::Result<std::__ndk1::vector<PlayerData, std::__ndk1::allocator<PlayerData> >, std::__ndk1::basic_string<char, std::__ndk1::char_traits<char>, std::__ndk1::allocator<char> > >, std::__ndk1::monostate>::Event*)#1}>, void (geode::Task<geode::Result<std::__ndk1::vector<PlayerData, std::__ndk1::allocator<PlayerData> >, std::__ndk1::basic_string<char, std::__ndk1::char_traits<char>, std::__ndk1::allocator<char> > >, std::__ndk1::monostate>::Event*)>::operator()(geode::Task<geode::Result<std::__ndk1::vector<PlayerData, std::__ndk1::allocator<PlayerData> >, std::__ndk1::basic_string<char, std::__ndk1::char_traits<char>, std::__ndk1::allocator<char> > >, std::__ndk1::monostate>::Event*&&)
PUBLIC 7cdf4 0 std::__ndk1::__function::__func<geode::Task<geode::Result<std::__ndk1::vector<PlayerData, std::__ndk1::allocator<PlayerData> >, std::__ndk1::basic_string<char, std::__ndk1::char_traits<char>, std::__ndk1::allocator<char> > >, std::__ndk1::monostate>::listen<GDWTMenuLayer::init()::$_0, geode::Task<geode::Result<std::__ndk1::vector<PlayerData, std::__ndk1::allocator<PlayerData> >, std::__ndk1::basic_string<char, std::__ndk1::char_traits<char>, std::__ndk1::allocator<char> > >, std::__ndk1::monostate>::listen<GDWTMenuLayer::init()::$_0>(GDWTMenuLayer::init()::$_0&&) const::{lambda(auto:1 const&)#1}, geode::Task<geode::Result<std::__ndk1::vector<PlayerData, std::__ndk1::allocator<PlayerData> >, std::__ndk1::basic_string<char, std::__ndk1::char_traits<char>, std::__ndk1::allocator<char> > >, std::__ndk1::monostate>::listen<GDWTMenuLayer::init()::$_0>(GDWTMenuLayer::init()::$_0&&) const::{lambda()#1}>(GDWTMenuLayer::init()::$_0&&, geode::Task<geode::Result<std::__ndk1::vector<PlayerData, std::__ndk1::allocator<PlayerData> >, std::__ndk1::basic_string<char, std::__ndk1::char_traits<char>, std::__ndk1::allocator<char> > >, std::__ndk1::monostate>::listen<GDWTMenuLayer::init()::$_0>(GDWTMenuLayer::init()::$_0&&) const::{lambda(auto:1 const&)#1}, geode::Task<geode::Result<std::__ndk1::vector<PlayerData, std::__ndk1::allocator<PlayerData> >, std::__ndk1::basic_string<char, std::__ndk1::char_traits<char>, std::__ndk1::allocator<char> > >, std::__ndk1::monostate>::listen<GDWTMenuLayer::init()::$_0>(GDWTMenuLayer::init()::$_0&&) const::{lambda()#1}&&) const::{lambda(geode::Task<geode::Result<std::__ndk1::vector<PlayerData, std::__ndk1::allocator<PlayerData> >, std::__ndk1::basic_string<char, std::__ndk1::char_traits<char>, std::__ndk1::allocator<char> > >, std::__ndk1::monostate>::Event*)#1}, std::__ndk1::allocator<geode::Task<geode::Result<std::__ndk1::vector<PlayerData, std::__ndk1::allocator<PlayerData> >, std::__ndk1::basic_string<char, std::__ndk1::char_traits<char>, std::__ndk1::allocator<char> > >, std::__ndk1::monostate>::listen<GDWTMenuLayer::init()::$_0, geode::Task<geode::Result<std::__ndk1::vector<PlayerData, std::__ndk1::allocator<PlayerData> >, std::__ndk1::basic_string<char, std::__ndk1::char_traits<char>, std::__ndk1::allocator<char> > >, std::__ndk1::monostate>::listen<GDWTMenuLayer::init()::$_0>(GDWTMenuLayer::init()::$_0&&) const::{lambda(auto:1 const&)#1}, geode::Task<geode::Result<std::__ndk1::vector<PlayerData, std::__ndk1::allocator<PlayerData> >, std::__ndk1::basic_string<char, std::__ndk1::char_traits<char>, std::__ndk1::allocator<char> > >, std::__ndk1::monostate>::listen<GDWTMenuLayer::init()::$_0>(GDWTMenuLayer::init()::$_0&&) const::{lambda()#1}>(GDWTMenuLayer::init()::$_0&&, geode::Task<geode::Result<std::__ndk1::vector<PlayerData, std::__ndk1::allocator<PlayerData> >, std::__ndk1::basic_string<char, std::__ndk1::char_traits<char>, std::__ndk1::allocator<char> > >, std::__ndk1::monostate>::listen<GDWTMenuLayer::init()::$_0>(GDWTMenuLayer::init()::$_0&&) const::{lambda(auto:1 const&)#1}, geode::Task<geode::Result<std::__ndk1::vector<PlayerData, std::__ndk1::allocator<PlayerData> >, std::__ndk1::basic_string<char, std::__ndk1::char_traits<char>, std::__ndk1::allocator<char> > >, std::__ndk1::monostate>::listen<GDWTMenuLayer::init()::$_0>(GDWTMenuLayer::init()::$_0&&) const::{lambda()#1}&&) const::{lambda(geode::Task<geode::Result<std::__ndk1::vector<PlayerData, std::__ndk1::allocator<PlayerData> >, std::__ndk1::basic_string<char, std::__ndk1::char_traits<char>, std::__ndk1::allocator<char> > >, std::__ndk1::monostate>::Event*)#1}>, void (geode::Task<geode::Result<std::__ndk1::vector<PlayerData, std::__ndk1::allocator<PlayerData> >, std::__ndk1::basic_string<char, std::__ndk1::char_traits<char>, std::__ndk1::allocator<char> > >, std::__ndk1::monostate>::Event*)>::target(std::type_info const&) const
PUBLIC 7ce10 0 std::__ndk1::__function::__func<geode::Task<geode::Result<std::__ndk1::vector<PlayerData, std::__ndk1::allocator<PlayerData> >, std::__ndk1::basic_string<char, std::__ndk1::char_traits<char>, std::__ndk1::allocator<char> > >, std::__ndk1::monostate>::listen<GDWTMenuLayer::init()::$_0, geode::Task<geode::Result<std::__ndk1::vector<PlayerData, std::__ndk1::allocator<PlayerData> >, std::__ndk1::basic_string<char, std::__ndk1::char_traits<char>, std::__ndk1::allocator<char> > >, std::__ndk1::monostate>::listen<GDWTMenuLayer::init()::$_0>(GDWTMenuLayer::init()::$_0&&) const::{lambda(auto:1 const&)#1}, geode::Task<geode::Result<std::__ndk1::vector<PlayerData, std::__ndk1::allocator<PlayerData> >, std::__ndk1::basic_string<char, std::__ndk1::char_traits<char>, std::__ndk1::allocator<char> > >, std::__ndk1::monostate>::listen<GDWTMenuLayer::init()::$_0>(GDWTMenuLayer::init()::$_0&&) const::{lambda()#1}>(GDWTMenuLayer::init()::$_0&&, geode::Task<geode::Result<std::__ndk1::vector<PlayerData, std::__ndk1::allocator<PlayerData> >, std::__ndk1::basic_string<char, std::__ndk1::char_traits<char>, std::__ndk1::allocator<char> > >, std::__ndk1::monostate>::listen<GDWTMenuLayer::init()::$_0>(GDWTMenuLayer::init()::$_0&&) const::{lambda(auto:1 const&)#1}, geode::Task<geode::Result<std::__ndk1::vector<PlayerData, std::__ndk1::allocator<PlayerData> >, std::__ndk1::basic_string<char, std::__ndk1::char_traits<char>, std::__ndk1::allocator<char> > >, std::__ndk1::monostate>::listen<GDWTMenuLayer::init()::$_0>(GDWTMenuLayer::init()::$_0&&) const::{lambda()#1}&&) const::{lambda(geode::Task<geode::Result<std::__ndk1::vector<PlayerData, std::__ndk1::allocator<PlayerData> >, std::__ndk1::basic_string<char, std::__ndk1::char_traits<char>, std::__ndk1::allocator<char> > >, std::__ndk1::monostate>::Event*)#1}, std::__ndk1::allocator<geode::Task<geode::Result<std::__ndk1::vector<PlayerData, std::__ndk1::allocator<PlayerData> >, std::__ndk1::basic_string<char, std::__ndk1::char_traits<char>, std::__ndk1::allocator<char> > >, std::__ndk1::monostate>::listen<GDWTMenuLayer::init()::$_0, geode::Task<geode::Result<std::__ndk1::vector<PlayerData, std::__ndk1::allocator<PlayerData> >, std::__ndk1::basic_string<char, std::__ndk1::char_traits<char>, std::__ndk1::allocator<char> > >, std::__ndk1::monostate>::listen<GDWTMenuLayer::init()::$_0>(GDWTMenuLayer::init()::$_0&&) const::{lambda(auto:1 const&)#1}, geode::Task<geode::Result<std::__ndk1::vector<PlayerData, std::__ndk1::allocator<PlayerData> >, std::__ndk1::basic_string<char, std::__ndk1::char_traits<char>, std::__ndk1::allocator<char> > >, std::__ndk1::monostate>::listen<GDWTMenuLayer::init()::$_0>(GDWTMenuLayer::init()::$_0&&) const::{lambda()#1}>(GDWTMenuLayer::init()::$_0&&, geode::Task<geode::Result<std::__ndk1::vector<PlayerData, std::__ndk1::allocator<PlayerData> >, std::__ndk1::basic_string<char, std::__ndk1::char_traits<char>, std::__ndk1::allocator<char> > >, std::__ndk1::monostate>::listen<GDWTMenuLayer::init()::$_0>(GDWTMenuLayer::init()::$_0&&) const::{lambda(auto:1 const&)#1}, geode::Task<geode::Result<std::__ndk1::vector<PlayerData, std::__ndk1::allocator<PlayerData> >, std::__ndk1::basic_string<char, std::__ndk1::char_traits<char>, std::__ndk1::allocator<char> > >, std::__ndk1::monostate>::listen<GDWTMenuLayer::init()::$_0>(GDWTMenuLayer::init()::$_0&&) const::{lambda()#1}&&) const::{lambda(geode::Task<geode::Result<std::__ndk1::vector<PlayerData, std::__ndk1::allocator<PlayerData> >, std::__ndk1::basic_string<char, std::__ndk1::char_traits<char>, std::__ndk1::allocator<char> > >, std::__ndk1::monostate>::Event*)#1}>, void (geode::Task<geode::Result<std::__ndk1::vector<PlayerData, std::__ndk1::allocator<PlayerData> >, std::__ndk1::basic_string<char, std::__ndk1::char_traits<char>, std::__ndk1::allocator<char> > >, std::__ndk1::monostate>::Event*)>::target_type() const
PUBLIC 7ce1c 0 _ZNSt6__ndk110__function6__funcIZZNK5geode4TaskINS2_6ResultINS_6vectorI10PlayerDataNS_9allocatorIS6_EEEENS_12basic_stringIcNS_11char_traitsIcEENS7_IcEEEEEENS_9monostateEE6listenIZN13GDWTMenuLayer4initEvE3$_0ZNKSH_6listenISK_EEvOT_EUlRKSM_E_ZNKSL_ISK_EEvSN_EUlvE_EEvSN_OT0_OT1_ENUlPNSH_5EventEE_clESX_EUlvE_NS7_ISZ_EEFvvEED0Ev
PUBLIC 7ce20 0 _ZNKSt6__ndk110__function6__funcIZZNK5geode4TaskINS2_6ResultINS_6vectorI10PlayerDataNS_9allocatorIS6_EEEENS_12basic_stringIcNS_11char_traitsIcEENS7_IcEEEEEENS_9monostateEE6listenIZN13GDWTMenuLayer4initEvE3$_0ZNKSH_6listenISK_EEvOT_EUlRKSM_E_ZNKSL_ISK_EEvSN_EUlvE_EEvSN_OT0_OT1_ENUlPNSH_5EventEE_clESX_EUlvE_NS7_ISZ_EEFvvEE7__cloneEv
PUBLIC 7ce54 0 _ZNKSt6__ndk110__function6__funcIZZNK5geode4TaskINS2_6ResultINS_6vectorI10PlayerDataNS_9allocatorIS6_EEEENS_12basic_stringIcNS_11char_traitsIcEENS7_IcEEEEEENS_9monostateEE6listenIZN13GDWTMenuLayer4initEvE3$_0ZNKSH_6listenISK_EEvOT_EUlRKSM_E_ZNKSL_ISK_EEvSN_EUlvE_EEvSN_OT0_OT1_ENUlPNSH_5EventEE_clESX_EUlvE_NS7_ISZ_EEFvvEE7__cloneEPNS0_6__baseIS11_EE
PUBLIC 7ce68 0 _ZNSt6__ndk110__function6__funcIZZNK5geode4TaskINS2_6ResultINS_6vectorI10PlayerDataNS_9allocatorIS6_EEEENS_12basic_stringIcNS_11char_traitsIcEENS7_IcEEEEEENS_9monostateEE6listenIZN13GDWTMenuLayer4initEvE3$_0ZNKSH_6listenISK_EEvOT_EUlRKSM_E_ZNKSL_ISK_EEvSN_EUlvE_EEvSN_OT0_OT1_ENUlPNSH_5EventEE_clESX_EUlvE_NS7_ISZ_EEFvvEE7destroyEv
PUBLIC 7ce6c 0 _ZNSt6__ndk110__function6__funcIZZNK5geode4TaskINS2_6ResultINS_6vectorI10PlayerDataNS_9allocatorIS6_EEEENS_12basic_stringIcNS_11char_traitsIcEENS7_IcEEEEEENS_9monostateEE6listenIZN13GDWTMenuLayer4initEvE3$_0ZNKSH_6listenISK_EEvOT_EUlRKSM_E_ZNKSL_ISK_EEvSN_EUlvE_EEvSN_OT0_OT1_ENUlPNSH_5EventEE_clESX_EUlvE_NS7_ISZ_EEFvvEE18destroy_deallocateEv
PUBLIC 7ce70 0 _ZNSt6__ndk110__function6__funcIZZNK5geode4TaskINS2_6ResultINS_6vectorI10PlayerDataNS_9allocatorIS6_EEEENS_12basic_stringIcNS_11char_traitsIcEENS7_IcEEEEEENS_9monostateEE6listenIZN13GDWTMenuLayer4initEvE3$_0ZNKSH_6listenISK_EEvOT_EUlRKSM_E_ZNKSL_ISK_EEvSN_EUlvE_EEvSN_OT0_OT1_ENUlPNSH_5EventEE_clESX_EUlvE_NS7_ISZ_EEFvvEEclEv
PUBLIC 7ce88 0 _ZNKSt6__ndk110__function6__funcIZZNK5geode4TaskINS2_6ResultINS_6vectorI10PlayerDataNS_9allocatorIS6_EEEENS_12basic_stringIcNS_11char_traitsIcEENS7_IcEEEEEENS_9monostateEE6listenIZN13GDWTMenuLayer4initEvE3$_0ZNKSH_6listenISK_EEvOT_EUlRKSM_E_ZNKSL_ISK_EEvSN_EUlvE_EEvSN_OT0_OT1_ENUlPNSH_5EventEE_clESX_EUlvE_NS7_ISZ_EEFvvEE6targetERKSt9type_info
PUBLIC 7cea4 0 _ZNKSt6__ndk110__function6__funcIZZNK5geode4TaskINS2_6ResultINS_6vectorI10PlayerDataNS_9allocatorIS6_EEEENS_12basic_stringIcNS_11char_traitsIcEENS7_IcEEEEEENS_9monostateEE6listenIZN13GDWTMenuLayer4initEvE3$_0ZNKSH_6listenISK_EEvOT_EUlRKSM_E_ZNKSL_ISK_EEvSN_EUlvE_EEvSN_OT0_OT1_ENUlPNSH_5EventEE_clESX_EUlvE_NS7_ISZ_EEFvvEE11target_typeEv
PUBLIC 7ceb0 0 geode::Task<geode::Result<std::__ndk1::vector<Team, std::__ndk1::allocator<Team> >, std::__ndk1::basic_string<char, std::__ndk1::char_traits<char>, std::__ndk1::allocator<char> > >, std::__ndk1::monostate>::setListener(geode::EventListenerProtocol*)
PUBLIC 7d0cc 0 geode::EventListener<geode::Task<geode::Result<std::__ndk1::vector<Team, std::__ndk1::allocator<Team> >, std::__ndk1::basic_string<char, std::__ndk1::char_traits<char>, std::__ndk1::allocator<char> > >, std::__ndk1::monostate> >::getPool() const
PUBLIC 7d0d0 0 geode::EventListener<geode::Task<geode::Result<std::__ndk1::vector<Team, std::__ndk1::allocator<Team> >, std::__ndk1::basic_string<char, std::__ndk1::char_traits<char>, std::__ndk1::allocator<char> > >, std::__ndk1::monostate> >::handle(geode::Event*)
PUBLIC 7d29c 0 geode::EventListener<geode::Task<geode::Result<std::__ndk1::vector<Team, std::__ndk1::allocator<Team> >, std::__ndk1::basic_string<char, std::__ndk1::char_traits<char>, std::__ndk1::allocator<char> > >, std::__ndk1::monostate> >::~EventListener()
PUBLIC 7d338 0 geode::EventListener<geode::Task<geode::Result<std::__ndk1::vector<Team, std::__ndk1::allocator<Team> >, std::__ndk1::basic_string<char, std::__ndk1::char_traits<char>, std::__ndk1::allocator<char> > >, std::__ndk1::monostate> >::~EventListener()
PUBLIC 7d3dc 0 geode::Task<geode::Result<std::__ndk1::vector<Team, std::__ndk1::allocator<Team> >, std::__ndk1::basic_string<char, std::__ndk1::char_traits<char>, std::__ndk1::allocator<char> > >, std::__ndk1::monostate>::setListener(geode::EventListenerProtocol*)::{lambda()#1}::~{lambda()#1}()
PUBLIC 7d42c 0 geode::Task<geode::Result<std::__ndk1::vector<Team, std::__ndk1::allocator<Team> >, std::__ndk1::basic_string<char, std::__ndk1::char_traits<char>, std::__ndk1::allocator<char> > >, std::__ndk1::monostate>::setListener(geode::EventListenerProtocol*)::{lambda()#2}::~{lambda()#2}()
PUBLIC 7d47c 0 std::__ndk1::__function::__func<geode::Task<geode::Result<std::__ndk1::vector<Team, std::__ndk1::allocator<Team> >, std::__ndk1::basic_string<char, std::__ndk1::char_traits<char>, std::__ndk1::allocator<char> > >, std::__ndk1::monostate>::setListener(geode::EventListenerProtocol*)::{lambda()#1}, std::__ndk1::allocator<geode::Task<geode::Result<std::__ndk1::vector<Team, std::__ndk1::allocator<Team> >, std::__ndk1::basic_string<char, std::__ndk1::char_traits<char>, std::__ndk1::allocator<char> > >, std::__ndk1::monostate>::setListener(geode::EventListenerProtocol*)::{lambda()#1}>, void ()>::~__func()
PUBLIC 7d4d8 0 std::__ndk1::__function::__func<geode::Task<geode::Result<std::__ndk1::vector<Team, std::__ndk1::allocator<Team> >, std::__ndk1::basic_string<char, std::__ndk1::char_traits<char>, std::__ndk1::allocator<char> > >, std::__ndk1::monostate>::setListener(geode::EventListenerProtocol*)::{lambda()#1}, std::__ndk1::allocator<geode::Task<geode::Result<std::__ndk1::vector<Team, std::__ndk1::allocator<Team> >, std::__ndk1::basic_string<char, std::__ndk1::char_traits<char>, std::__ndk1::allocator<char> > >, std::__ndk1::monostate>::setListener(geode::EventListenerProtocol*)::{lambda()#1}>, void ()>::~__func()
PUBLIC 7d544 0 std::__ndk1::__function::__func<geode::Task<geode::Result<std::__ndk1::vector<Team, std::__ndk1::allocator<Team> >, std::__ndk1::basic_string<char, std::__ndk1::char_traits<char>, std::__ndk1::allocator<char> > >, std::__ndk1::monostate>::setListener(geode::EventListenerProtocol*)::{lambda()#1}, std::__ndk1::allocator<geode::Task<geode::Result<std::__ndk1::vector<Team, std::__ndk1::allocator<Team> >, std::__ndk1::basic_string<char, std::__ndk1::char_traits<char>, std::__ndk1::allocator<char> > >, std::__ndk1::monostate>::setListener(geode::EventListenerProtocol*)::{lambda()#1}>, void ()>::__clone() const
PUBLIC 7d59c 0 std::__ndk1::__function::__func<geode::Task<geode::Result<std::__ndk1::vector<Team, std::__ndk1::allocator<Team> >, std::__ndk1::basic_string<char, std::__ndk1::char_traits<char>, std::__ndk1::allocator<char> > >, std::__ndk1::monostate>::setListener(geode::EventListenerProtocol*)::{lambda()#1}, std::__ndk1::allocator<geode::Task<geode::Result<std::__ndk1::vector<Team, std::__ndk1::allocator<Team> >, std::__ndk1::basic_string<char, std::__ndk1::char_traits<char>, std::__ndk1::allocator<char> > >, std::__ndk1::monostate>::setListener(geode::EventListenerProtocol*)::{lambda()#1}>, void ()>::__clone(std::__ndk1::__function::__base<void ()>*) const
PUBLIC 7d5e8 0 std::__ndk1::__function::__func<geode::Task<geode::Result<std::__ndk1::vector<Team, std::__ndk1::allocator<Team> >, std::__ndk1::basic_string<char, std::__ndk1::char_traits<char>, std::__ndk1::allocator<char> > >, std::__ndk1::monostate>::setListener(geode::EventListenerProtocol*)::{lambda()#1}, std::__ndk1::allocator<geode::Task<geode::Result<std::__ndk1::vector<Team, std::__ndk1::allocator<Team> >, std::__ndk1::basic_string<char, std::__ndk1::char_traits<char>, std::__ndk1::allocator<char> > >, std::__ndk1::monostate>::setListener(geode::EventListenerProtocol*)::{lambda()#1}>, void ()>::destroy()
PUBLIC 7d638 0 std::__ndk1::__function::__func<geode::Task<geode::Result<std::__ndk1::vector<Team, std::__ndk1::allocator<Team> >, std::__ndk1::basic_string<char, std::__ndk1::char_traits<char>, std::__ndk1::allocator<char> > >, std::__ndk1::monostate>::setListener(geode::EventListenerProtocol*)::{lambda()#1}, std::__ndk1::allocator<geode::Task<geode::Result<std::__ndk1::vector<Team, std::__ndk1::allocator<Team> >, std::__ndk1::basic_string<char, std::__ndk1::char_traits<char>, std::__ndk1::allocator<char> > >, std::__ndk1::monostate>::setListener(geode::EventListenerProtocol*)::{lambda()#1}>, void ()>::destroy_deallocate()
PUBLIC 7d698 0 std::__ndk1::__function::__func<geode::Task<geode::Result<std::__ndk1::vector<Team, std::__ndk1::allocator<Team> >, std::__ndk1::basic_string<char, std::__ndk1::char_traits<char>, std::__ndk1::allocator<char> > >, std::__ndk1::monostate>::setListener(geode::EventListenerProtocol*)::{lambda()#1}, std::__ndk1::allocator<geode::Task<geode::Result<std::__ndk1::vector<Team, std::__ndk1::allocator<Team> >, std::__ndk1::basic_string<char, std::__ndk1::char_traits<char>, std::__ndk1::allocator<char> > >, std::__ndk1::monostate>::setListener(geode::EventListenerProtocol*)::{lambda()#1}>, void ()>::operator()()
PUBLIC 7d6a0 0 std::__ndk1::__function::__func<geode::Task<geode::Result<std::__ndk1::vector<Team, std::__ndk1::allocator<Team> >, std::__ndk1::basic_string<char, std::__ndk1::char_traits<char>, std::__ndk1::allocator<char> > >, std::__ndk1::monostate>::setListener(geode::EventListenerProtocol*)::{lambda()#1}, std::__ndk1::allocator<geode::Task<geode::Result<std::__ndk1::vector<Team, std::__ndk1::allocator<Team> >, std::__ndk1::basic_string<char, std::__ndk1::char_traits<char>, std::__ndk1::allocator<char> > >, std::__ndk1::monostate>::setListener(geode::EventListenerProtocol*)::{lambda()#1}>, void ()>::target(std::type_info const&) const
PUBLIC 7d6bc 0 std::__ndk1::__function::__func<geode::Task<geode::Result<std::__ndk1::vector<Team, std::__ndk1::allocator<Team> >, std::__ndk1::basic_string<char, std::__ndk1::char_traits<char>, std::__ndk1::allocator<char> > >, std::__ndk1::monostate>::setListener(geode::EventListenerProtocol*)::{lambda()#1}, std::__ndk1::allocator<geode::Task<geode::Result<std::__ndk1::vector<Team, std::__ndk1::allocator<Team> >, std::__ndk1::basic_string<char, std::__ndk1::char_traits<char>, std::__ndk1::allocator<char> > >, std::__ndk1::monostate>::setListener(geode::EventListenerProtocol*)::{lambda()#1}>, void ()>::target_type() const
PUBLIC 7d6c8 0 geode::Task<geode::Result<std::__ndk1::vector<Team, std::__ndk1::allocator<Team> >, std::__ndk1::basic_string<char, std::__ndk1::char_traits<char>, std::__ndk1::allocator<char> > >, std::__ndk1::monostate>::setListener(geode::EventListenerProtocol*)::{lambda()#1}::operator()() const
PUBLIC 7d898 0 geode::Task<geode::Result<std::__ndk1::vector<Team, std::__ndk1::allocator<Team> >, std::__ndk1::basic_string<char, std::__ndk1::char_traits<char>, std::__ndk1::allocator<char> > >, std::__ndk1::monostate>::Event::~Event()
PUBLIC 7d8f8 0 geode::Task<geode::Result<std::__ndk1::vector<Team, std::__ndk1::allocator<Team> >, std::__ndk1::basic_string<char, std::__ndk1::char_traits<char>, std::__ndk1::allocator<char> > >, std::__ndk1::monostate>::Event::~Event()
PUBLIC 7d968 0 std::__ndk1::__function::__func<geode::Task<geode::Result<std::__ndk1::vector<Team, std::__ndk1::allocator<Team> >, std::__ndk1::basic_string<char, std::__ndk1::char_traits<char>, std::__ndk1::allocator<char> > >, std::__ndk1::monostate>::setListener(geode::EventListenerProtocol*)::{lambda()#2}, std::__ndk1::allocator<geode::Task<geode::Result<std::__ndk1::vector<Team, std::__ndk1::allocator<Team> >, std::__ndk1::basic_string<char, std::__ndk1::char_traits<char>, std::__ndk1::allocator<char> > >, std::__ndk1::monostate>::setListener(geode::EventListenerProtocol*)::{lambda()#2}>, void ()>::~__func()
PUBLIC 7d9c4 0 std::__ndk1::__function::__func<geode::Task<geode::Result<std::__ndk1::vector<Team, std::__ndk1::allocator<Team> >, std::__ndk1::basic_string<char, std::__ndk1::char_traits<char>, std::__ndk1::allocator<char> > >, std::__ndk1::monostate>::setListener(geode::EventListenerProtocol*)::{lambda()#2}, std::__ndk1::allocator<geode::Task<geode::Result<std::__ndk1::vector<Team, std::__ndk1::allocator<Team> >, std::__ndk1::basic_string<char, std::__ndk1::char_traits<char>, std::__ndk1::allocator<char> > >, std::__ndk1::monostate>::setListener(geode::EventListenerProtocol*)::{lambda()#2}>, void ()>::~__func()
PUBLIC 7da30 0 std::__ndk1::__function::__func<geode::Task<geode::Result<std::__ndk1::vector<Team, std::__ndk1::allocator<Team> >, std::__ndk1::basic_string<char, std::__ndk1::char_traits<char>, std::__ndk1::allocator<char> > >, std::__ndk1::monostate>::setListener(geode::EventListenerProtocol*)::{lambda()#2}, std::__ndk1::allocator<geode::Task<geode::Result<std::__ndk1::vector<Team, std::__ndk1::allocator<Team> >, std::__ndk1::basic_string<char, std::__ndk1::char_traits<char>, std::__ndk1::allocator<char> > >, std::__ndk1::monostate>::setListener(geode::EventListenerProtocol*)::{lambda()#2}>, void ()>::__clone() const
PUBLIC 7da88 0 std::__ndk1::__function::__func<geode::Task<geode::Result<std::__ndk1::vector<Team, std::__ndk1::allocator<Team> >, std::__ndk1::basic_string<char, std::__ndk1::char_traits<char>, std::__ndk1::allocator<char> > >, std::__ndk1::monostate>::setListener(geode::EventListenerProtocol*)::{lambda()#2}, std::__ndk1::allocator<geode::Task<geode::Result<std::__ndk1::vector<Team, std::__ndk1::allocator<Team> >, std::__ndk1::basic_string<char, std::__ndk1::char_traits<char>, std::__ndk1::allocator<char> > >, std::__ndk1::monostate>::setListener(geode::EventListenerProtocol*)::{lambda()#2}>, void ()>::__clone(std::__ndk1::__function::__base<void ()>*) const
PUBLIC 7dad4 0 std::__ndk1::__function::__func<geode::Task<geode::Result<std::__ndk1::vector<Team, std::__ndk1::allocator<Team> >, std::__ndk1::basic_string<char, std::__ndk1::char_traits<char>, std::__ndk1::allocator<char> > >, std::__ndk1::monostate>::setListener(geode::EventListenerProtocol*)::{lambda()#2}, std::__ndk1::allocator<geode::Task<geode::Result<std::__ndk1::vector<Team, std::__ndk1::allocator<Team> >, std::__ndk1::basic_string<char, std::__ndk1::char_traits<char>, std::__ndk1::allocator<char> > >, std::__ndk1::monostate>::setListener(geode::EventListenerProtocol*)::{lambda()#2}>, void ()>::destroy()
PUBLIC 7db24 0 std::__ndk1::__function::__func<geode::Task<geode::Result<std::__ndk1::vector<Team, std::__ndk1::allocator<Team> >, std::__ndk1::basic_string<char, std::__ndk1::char_traits<char>, std::__ndk1::allocator<char> > >, std::__ndk1::monostate>::setListener(geode::EventListenerProtocol*)::{lambda()#2}, std::__ndk1::allocator<geode::Task<geode::Result<std::__ndk1::vector<Team, std::__ndk1::allocator<Team> >, std::__ndk1::basic_string<char, std::__ndk1::char_traits<char>, std::__ndk1::allocator<char> > >, std::__ndk1::monostate>::setListener(geode::EventListenerProtocol*)::{lambda()#2}>, void ()>::destroy_deallocate()
PUBLIC 7db84 0 std::__ndk1::__function::__func<geode::Task<geode::Result<std::__ndk1::vector<Team, std::__ndk1::allocator<Team> >, std::__ndk1::basic_string<char, std::__ndk1::char_traits<char>, std::__ndk1::allocator<char> > >, std::__ndk1::monostate>::setListener(geode::EventListenerProtocol*)::{lambda()#2}, std::__ndk1::allocator<geode::Task<geode::Result<std::__ndk1::vector<Team, std::__ndk1::allocator<Team> >, std::__ndk1::basic_string<char, std::__ndk1::char_traits<char>, std::__ndk1::allocator<char> > >, std::__ndk1::monostate>::setListener(geode::EventListenerProtocol*)::{lambda()#2}>, void ()>::operator()()
PUBLIC 7db8c 0 std::__ndk1::__function::__func<geode::Task<geode::Result<std::__ndk1::vector<Team, std::__ndk1::allocator<Team> >, std::__ndk1::basic_string<char, std::__ndk1::char_traits<char>, std::__ndk1::allocator<char> > >, std::__ndk1::monostate>::setListener(geode::EventListenerProtocol*)::{lambda()#2}, std::__ndk1::allocator<geode::Task<geode::Result<std::__ndk1::vector<Team, std::__ndk1::allocator<Team> >, std::__ndk1::basic_string<char, std::__ndk1::char_traits<char>, std::__ndk1::allocator<char> > >, std::__ndk1::monostate>::setListener(geode::EventListenerProtocol*)::{lambda()#2}>, void ()>::target(std::type_info const&) const
PUBLIC 7dba8 0 std::__ndk1::__function::__func<geode::Task<geode::Result<std::__ndk1::vector<Team, std::__ndk1::allocator<Team> >, std::__ndk1::basic_string<char, std::__ndk1::char_traits<char>, std::__ndk1::allocator<char> > >, std::__ndk1::monostate>::setListener(geode::EventListenerProtocol*)::{lambda()#2}, std::__ndk1::allocator<geode::Task<geode::Result<std::__ndk1::vector<Team, std::__ndk1::allocator<Team> >, std::__ndk1::basic_string<char, std::__ndk1::char_traits<char>, std::__ndk1::allocator<char> > >, std::__ndk1::monostate>::setListener(geode::EventListenerProtocol*)::{lambda()#2}>, void ()>::target_type() const
PUBLIC 7dbb4 0 geode::Task<geode::Result<std::__ndk1::vector<Team, std::__ndk1::allocator<Team> >, std::__ndk1::basic_string<char, std::__ndk1::char_traits<char>, std::__ndk1::allocator<char> > >, std::__ndk1::monostate>::setListener(geode::EventListenerProtocol*)::{lambda()#2}::operator()() const
PUBLIC 7dd78 0 std::__ndk1::__function::__value_func<void (geode::Task<geode::Result<std::__ndk1::vector<Team, std::__ndk1::allocator<Team> >, std::__ndk1::basic_string<char, std::__ndk1::char_traits<char>, std::__ndk1::allocator<char> > >, std::__ndk1::monostate>::Event*)>::swap[abi:ne180000](std::__ndk1::__function::__value_func<void (geode::Task<geode::Result<std::__ndk1::vector<Team, std::__ndk1::allocator<Team> >, std::__ndk1::basic_string<char, std::__ndk1::char_traits<char>, std::__ndk1::allocator<char> > >, std::__ndk1::monostate>::Event*)>&)
PUBLIC 7df10 0 std::__ndk1::__function::__base<void (geode::Task<geode::Result<std::__ndk1::vector<Team, std::__ndk1::allocator<Team> >, std::__ndk1::basic_string<char, std::__ndk1::char_traits<char>, std::__ndk1::allocator<char> > >, std::__ndk1::monostate>::Event*)>::~__base()
PUBLIC 7df14 0 std::__ndk1::__function::__func<geode::Task<geode::Result<std::__ndk1::vector<Team, std::__ndk1::allocator<Team> >, std::__ndk1::basic_string<char, std::__ndk1::char_traits<char>, std::__ndk1::allocator<char> > >, std::__ndk1::monostate>::listen<GDWTMenuLayer::init()::$_1, geode::Task<geode::Result<std::__ndk1::vector<Team, std::__ndk1::allocator<Team> >, std::__ndk1::basic_string<char, std::__ndk1::char_traits<char>, std::__ndk1::allocator<char> > >, std::__ndk1::monostate>::listen<GDWTMenuLayer::init()::$_1>(GDWTMenuLayer::init()::$_1&&) const::{lambda(auto:1 const&)#1}, geode::Task<geode::Result<std::__ndk1::vector<Team, std::__ndk1::allocator<Team> >, std::__ndk1::basic_string<char, std::__ndk1::char_traits<char>, std::__ndk1::allocator<char> > >, std::__ndk1::monostate>::listen<GDWTMenuLayer::init()::$_1>(GDWTMenuLayer::init()::$_1&&) const::{lambda()#1}>(GDWTMenuLayer::init()::$_1&&, geode::Task<geode::Result<std::__ndk1::vector<Team, std::__ndk1::allocator<Team> >, std::__ndk1::basic_string<char, std::__ndk1::char_traits<char>, std::__ndk1::allocator<char> > >, std::__ndk1::monostate>::listen<GDWTMenuLayer::init()::$_1>(GDWTMenuLayer::init()::$_1&&) const::{lambda(auto:1 const&)#1}, geode::Task<geode::Result<std::__ndk1::vector<Team, std::__ndk1::allocator<Team> >, std::__ndk1::basic_string<char, std::__ndk1::char_traits<char>, std::__ndk1::allocator<char> > >, std::__ndk1::monostate>::listen<GDWTMenuLayer::init()::$_1>(GDWTMenuLayer::init()::$_1&&) const::{lambda()#1}&&) const::{lambda(geode::Task<geode::Result<std::__ndk1::vector<Team, std::__ndk1::allocator<Team> >, std::__ndk1::basic_string<char, std::__ndk1::char_traits<char>, std::__ndk1::allocator<char> > >, std::__ndk1::monostate>::Event*)#1}, std::__ndk1::allocator<geode::Task<geode::Result<std::__ndk1::vector<Team, std::__ndk1::allocator<Team> >, std::__ndk1::basic_string<char, std::__ndk1::char_traits<char>, std::__ndk1::allocator<char> > >, std::__ndk1::monostate>::listen<GDWTMenuLayer::init()::$_1, geode::Task<geode::Result<std::__ndk1::vector<Team, std::__ndk1::allocator<Team> >, std::__ndk1::basic_string<char, std::__ndk1::char_traits<char>, std::__ndk1::allocator<char> > >, std::__ndk1::monostate>::listen<GDWTMenuLayer::init()::$_1>(GDWTMenuLayer::init()::$_1&&) const::{lambda(auto:1 const&)#1}, geode::Task<geode::Result<std::__ndk1::vector<Team, std::__ndk1::allocator<Team> >, std::__ndk1::basic_string<char, std::__ndk1::char_traits<char>, std::__ndk1::allocator<char> > >, std::__ndk1::monostate>::listen<GDWTMenuLayer::init()::$_1>(GDWTMenuLayer::init()::$_1&&) const::{lambda()#1}>(GDWTMenuLayer::init()::$_1&&, geode::Task<geode::Result<std::__ndk1::vector<Team, std::__ndk1::allocator<Team> >, std::__ndk1::basic_string<char, std::__ndk1::char_traits<char>, std::__ndk1::allocator<char> > >, std::__ndk1::monostate>::listen<GDWTMenuLayer::init()::$_1>(GDWTMenuLayer::init()::$_1&&) const::{lambda(auto:1 const&)#1}, geode::Task<geode::Result<std::__ndk1::vector<Team, std::__ndk1::allocator<Team> >, std::__ndk1::basic_string<char, std::__ndk1::char_traits<char>, std::__ndk1::allocator<char> > >, std::__ndk1::monostate>::listen<GDWTMenuLayer::init()::$_1>(GDWTMenuLayer::init()::$_1&&) const::{lambda()#1}&&) const::{lambda(geode::Task<geode::Result<std::__ndk1::vector<Team, std::__ndk1::allocator<Team> >, std::__ndk1::basic_string<char, std::__ndk1::char_traits<char>, std::__ndk1::allocator<char> > >, std::__ndk1::monostate>::Event*)#1}>, void (geode::Task<geode::Result<std::__ndk1::vector<Team, std::__ndk1::allocator<Team> >, std::__ndk1::basic_string<char, std::__ndk1::char_traits<char>, std::__ndk1::allocator<char> > >, std::__ndk1::monostate>::Event*)>::~__func()
PUBLIC 7df18 0 std::__ndk1::__function::__func<geode::Task<geode::Result<std::__ndk1::vector<Team, std::__ndk1::allocator<Team> >, std::__ndk1::basic_string<char, std::__ndk1::char_traits<char>, std::__ndk1::allocator<char> > >, std::__ndk1::monostate>::listen<GDWTMenuLayer::init()::$_1, geode::Task<geode::Result<std::__ndk1::vector<Team, std::__ndk1::allocator<Team> >, std::__ndk1::basic_string<char, std::__ndk1::char_traits<char>, std::__ndk1::allocator<char> > >, std::__ndk1::monostate>::listen<GDWTMenuLayer::init()::$_1>(GDWTMenuLayer::init()::$_1&&) const::{lambda(auto:1 const&)#1}, geode::Task<geode::Result<std::__ndk1::vector<Team, std::__ndk1::allocator<Team> >, std::__ndk1::basic_string<char, std::__ndk1::char_traits<char>, std::__ndk1::allocator<char> > >, std::__ndk1::monostate>::listen<GDWTMenuLayer::init()::$_1>(GDWTMenuLayer::init()::$_1&&) const::{lambda()#1}>(GDWTMenuLayer::init()::$_1&&, geode::Task<geode::Result<std::__ndk1::vector<Team, std::__ndk1::allocator<Team> >, std::__ndk1::basic_string<char, std::__ndk1::char_traits<char>, std::__ndk1::allocator<char> > >, std::__ndk1::monostate>::listen<GDWTMenuLayer::init()::$_1>(GDWTMenuLayer::init()::$_1&&) const::{lambda(auto:1 const&)#1}, geode::Task<geode::Result<std::__ndk1::vector<Team, std::__ndk1::allocator<Team> >, std::__ndk1::basic_string<char, std::__ndk1::char_traits<char>, std::__ndk1::allocator<char> > >, std::__ndk1::monostate>::listen<GDWTMenuLayer::init()::$_1>(GDWTMenuLayer::init()::$_1&&) const::{lambda()#1}&&) const::{lambda(geode::Task<geode::Result<std::__ndk1::vector<Team, std::__ndk1::allocator<Team> >, std::__ndk1::basic_string<char, std::__ndk1::char_traits<char>, std::__ndk1::allocator<char> > >, std::__ndk1::monostate>::Event*)#1}, std::__ndk1::allocator<geode::Task<geode::Result<std::__ndk1::vector<Team, std::__ndk1::allocator<Team> >, std::__ndk1::basic_string<char, std::__ndk1::char_traits<char>, std::__ndk1::allocator<char> > >, std::__ndk1::monostate>::listen<GDWTMenuLayer::init()::$_1, geode::Task<geode::Result<std::__ndk1::vector<Team, std::__ndk1::allocator<Team> >, std::__ndk1::basic_string<char, std::__ndk1::char_traits<char>, std::__ndk1::allocator<char> > >, std::__ndk1::monostate>::listen<GDWTMenuLayer::init()::$_1>(GDWTMenuLayer::init()::$_1&&) const::{lambda(auto:1 const&)#1}, geode::Task<geode::Result<std::__ndk1::vector<Team, std::__ndk1::allocator<Team> >, std::__ndk1::basic_string<char, std::__ndk1::char_traits<char>, std::__ndk1::allocator<char> > >, std::__ndk1::monostate>::listen<GDWTMenuLayer::init()::$_1>(GDWTMenuLayer::init()::$_1&&) const::{lambda()#1}>(GDWTMenuLayer::init()::$_1&&, geode::Task<geode::Result<std::__ndk1::vector<Team, std::__ndk1::allocator<Team> >, std::__ndk1::basic_string<char, std::__ndk1::char_traits<char>, std::__ndk1::allocator<char> > >, std::__ndk1::monostate>::listen<GDWTMenuLayer::init()::$_1>(GDWTMenuLayer::init()::$_1&&) const::{lambda(auto:1 const&)#1}, geode::Task<geode::Result<std::__ndk1::vector<Team, std::__ndk1::allocator<Team> >, std::__ndk1::basic_string<char, std::__ndk1::char_traits<char>, std::__ndk1::allocator<char> > >, std::__ndk1::monostate>::listen<GDWTMenuLayer::init()::$_1>(GDWTMenuLayer::init()::$_1&&) const::{lambda()#1}&&) const::{lambda(geode::Task<geode::Result<std::__ndk1::vector<Team, std::__ndk1::allocator<Team> >, std::__ndk1::basic_string<char, std::__ndk1::char_traits<char>, std::__ndk1::allocator<char> > >, std::__ndk1::monostate>::Event*)#1}>, void (geode::Task<geode::Result<std::__ndk1::vector<Team, std::__ndk1::allocator<Team> >, std::__ndk1::basic_string<char, std::__ndk1::char_traits<char>, std::__ndk1::allocator<char> > >, std::__ndk1::monostate>::Event*)>::__clone() const
PUBLIC 7df50 0 std::__ndk1::__function::__func<geode::Task<geode::Result<std::__ndk1::vector<Team, std::__ndk1::allocator<Team> >, std::__ndk1::basic_string<char, std::__ndk1::char_traits<char>, std::__ndk1::allocator<char> > >, std::__ndk1::monostate>::listen<GDWTMenuLayer::init()::$_1, geode::Task<geode::Result<std::__ndk1::vector<Team, std::__ndk1::allocator<Team> >, std::__ndk1::basic_string<char, std::__ndk1::char_traits<char>, std::__ndk1::allocator<char> > >, std::__ndk1::monostate>::listen<GDWTMenuLayer::init()::$_1>(GDWTMenuLayer::init()::$_1&&) const::{lambda(auto:1 const&)#1}, geode::Task<geode::Result<std::__ndk1::vector<Team, std::__ndk1::allocator<Team> >, std::__ndk1::basic_string<char, std::__ndk1::char_traits<char>, std::__ndk1::allocator<char> > >, std::__ndk1::monostate>::listen<GDWTMenuLayer::init()::$_1>(GDWTMenuLayer::init()::$_1&&) const::{lambda()#1}>(GDWTMenuLayer::init()::$_1&&, geode::Task<geode::Result<std::__ndk1::vector<Team, std::__ndk1::allocator<Team> >, std::__ndk1::basic_string<char, std::__ndk1::char_traits<char>, std::__ndk1::allocator<char> > >, std::__ndk1::monostate>::listen<GDWTMenuLayer::init()::$_1>(GDWTMenuLayer::init()::$_1&&) const::{lambda(auto:1 const&)#1}, geode::Task<geode::Result<std::__ndk1::vector<Team, std::__ndk1::allocator<Team> >, std::__ndk1::basic_string<char, std::__ndk1::char_traits<char>, std::__ndk1::allocator<char> > >, std::__ndk1::monostate>::listen<GDWTMenuLayer::init()::$_1>(GDWTMenuLayer::init()::$_1&&) const::{lambda()#1}&&) const::{lambda(geode::Task<geode::Result<std::__ndk1::vector<Team, std::__ndk1::allocator<Team> >, std::__ndk1::basic_string<char, std::__ndk1::char_traits<char>, std::__ndk1::allocator<char> > >, std::__ndk1::monostate>::Event*)#1}, std::__ndk1::allocator<geode::Task<geode::Result<std::__ndk1::vector<Team, std::__ndk1::allocator<Team> >, std::__ndk1::basic_string<char, std::__ndk1::char_traits<char>, std::__ndk1::allocator<char> > >, std::__ndk1::monostate>::listen<GDWTMenuLayer::init()::$_1, geode::Task<geode::Result<std::__ndk1::vector<Team, std::__ndk1::allocator<Team> >, std::__ndk1::basic_string<char, std::__ndk1::char_traits<char>, std::__ndk1::allocator<char> > >, std::__ndk1::monostate>::listen<GDWTMenuLayer::init()::$_1>(GDWTMenuLayer::init()::$_1&&) const::{lambda(auto:1 const&)#1}, geode::Task<geode::Result<std::__ndk1::vector<Team, std::__ndk1::allocator<Team> >, std::__ndk1::basic_string<char, std::__ndk1::char_traits<char>, std::__ndk1::allocator<char> > >, std::__ndk1::monostate>::listen<GDWTMenuLayer::init()::$_1>(GDWTMenuLayer::init()::$_1&&) const::{lambda()#1}>(GDWTMenuLayer::init()::$_1&&, geode::Task<geode::Result<std::__ndk1::vector<Team, std::__ndk1::allocator<Team> >, std::__ndk1::basic_string<char, std::__ndk1::char_traits<char>, std::__ndk1::allocator<char> > >, std::__ndk1::monostate>::listen<GDWTMenuLayer::init()::$_1>(GDWTMenuLayer::init()::$_1&&) const::{lambda(auto:1 const&)#1}, geode::Task<geode::Result<std::__ndk1::vector<Team, std::__ndk1::allocator<Team> >, std::__ndk1::basic_string<char, std::__ndk1::char_traits<char>, std::__ndk1::allocator<char> > >, std::__ndk1::monostate>::listen<GDWTMenuLayer::init()::$_1>(GDWTMenuLayer::init()::$_1&&) const::{lambda()#1}&&) const::{lambda(geode::Task<geode::Result<std::__ndk1::vector<Team, std::__ndk1::allocator<Team> >, std::__ndk1::basic_string<char, std::__ndk1::char_traits<char>, std::__ndk1::allocator<char> > >, std::__ndk1::monostate>::Event*)#1}>, void (geode::Task<geode::Result<std::__ndk1::vector<Team, std::__ndk1::allocator<Team> >, std::__ndk1::basic_string<char, std::__ndk1::char_traits<char>, std::__ndk1::allocator<char> > >, std::__ndk1::monostate>::Event*)>::__clone(std::__ndk1::__function::__base<void (geode::Task<geode::Result<std::__ndk1::vector<Team, std::__ndk1::allocator<Team> >, std::__ndk1::basic_string<char, std::__ndk1::char_traits<char>, std::__ndk1::allocator<char> > >, std::__ndk1::monostate>::Event*)>*) const
PUBLIC 7df68 0 std::__ndk1::__function::__func<geode::Task<geode::Result<std::__ndk1::vector<Team, std::__ndk1::allocator<Team> >, std::__ndk1::basic_string<char, std::__ndk1::char_traits<char>, std::__ndk1::allocator<char> > >, std::__ndk1::monostate>::listen<GDWTMenuLayer::init()::$_1, geode::Task<geode::Result<std::__ndk1::vector<Team, std::__ndk1::allocator<Team> >, std::__ndk1::basic_string<char, std::__ndk1::char_traits<char>, std::__ndk1::allocator<char> > >, std::__ndk1::monostate>::listen<GDWTMenuLayer::init()::$_1>(GDWTMenuLayer::init()::$_1&&) const::{lambda(auto:1 const&)#1}, geode::Task<geode::Result<std::__ndk1::vector<Team, std::__ndk1::allocator<Team> >, std::__ndk1::basic_string<char, std::__ndk1::char_traits<char>, std::__ndk1::allocator<char> > >, std::__ndk1::monostate>::listen<GDWTMenuLayer::init()::$_1>(GDWTMenuLayer::init()::$_1&&) const::{lambda()#1}>(GDWTMenuLayer::init()::$_1&&, geode::Task<geode::Result<std::__ndk1::vector<Team, std::__ndk1::allocator<Team> >, std::__ndk1::basic_string<char, std::__ndk1::char_traits<char>, std::__ndk1::allocator<char> > >, std::__ndk1::monostate>::listen<GDWTMenuLayer::init()::$_1>(GDWTMenuLayer::init()::$_1&&) const::{lambda(auto:1 const&)#1}, geode::Task<geode::Result<std::__ndk1::vector<Team, std::__ndk1::allocator<Team> >, std::__ndk1::basic_string<char, std::__ndk1::char_traits<char>, std::__ndk1::allocator<char> > >, std::__ndk1::monostate>::listen<GDWTMenuLayer::init()::$_1>(GDWTMenuLayer::init()::$_1&&) const::{lambda()#1}&&) const::{lambda(geode::Task<geode::Result<std::__ndk1::vector<Team, std::__ndk1::allocator<Team> >, std::__ndk1::basic_string<char, std::__ndk1::char_traits<char>, std::__ndk1::allocator<char> > >, std::__ndk1::monostate>::Event*)#1}, std::__ndk1::allocator<geode::Task<geode::Result<std::__ndk1::vector<Team, std::__ndk1::allocator<Team> >, std::__ndk1::basic_string<char, std::__ndk1::char_traits<char>, std::__ndk1::allocator<char> > >, std::__ndk1::monostate>::listen<GDWTMenuLayer::init()::$_1, geode::Task<geode::Result<std::__ndk1::vector<Team, std::__ndk1::allocator<Team> >, std::__ndk1::basic_string<char, std::__ndk1::char_traits<char>, std::__ndk1::allocator<char> > >, std::__ndk1::monostate>::listen<GDWTMenuLayer::init()::$_1>(GDWTMenuLayer::init()::$_1&&) const::{lambda(auto:1 const&)#1}, geode::Task<geode::Result<std::__ndk1::vector<Team, std::__ndk1::allocator<Team> >, std::__ndk1::basic_string<char, std::__ndk1::char_traits<char>, std::__ndk1::allocator<char> > >, std::__ndk1::monostate>::listen<GDWTMenuLayer::init()::$_1>(GDWTMenuLayer::init()::$_1&&) const::{lambda()#1}>(GDWTMenuLayer::init()::$_1&&, geode::Task<geode::Result<std::__ndk1::vector<Team, std::__ndk1::allocator<Team> >, std::__ndk1::basic_string<char, std::__ndk1::char_traits<char>, std::__ndk1::allocator<char> > >, std::__ndk1::monostate>::listen<GDWTMenuLayer::init()::$_1>(GDWTMenuLayer::init()::$_1&&) const::{lambda(auto:1 const&)#1}, geode::Task<geode::Result<std::__ndk1::vector<Team, std::__ndk1::allocator<Team> >, std::__ndk1::basic_string<char, std::__ndk1::char_traits<char>, std::__ndk1::allocator<char> > >, std::__ndk1::monostate>::listen<GDWTMenuLayer::init()::$_1>(GDWTMenuLayer::init()::$_1&&) const::{lambda()#1}&&) const::{lambda(geode::Task<geode::Result<std::__ndk1::vector<Team, std::__ndk1::allocator<Team> >, std::__ndk1::basic_string<char, std::__ndk1::char_traits<char>, std::__ndk1::allocator<char> > >, std::__ndk1::monostate>::Event*)#1}>, void (geode::Task<geode::Result<std::__ndk1::vector<Team, std::__ndk1::allocator<Team> >, std::__ndk1::basic_string<char, std::__ndk1::char_traits<char>, std::__ndk1::allocator<char> > >, std::__ndk1::monostate>::Event*)>::destroy()
PUBLIC 7df6c 0 std::__ndk1::__function::__func<geode::Task<geode::Result<std::__ndk1::vector<Team, std::__ndk1::allocator<Team> >, std::__ndk1::basic_string<char, std::__ndk1::char_traits<char>, std::__ndk1::allocator<char> > >, std::__ndk1::monostate>::listen<GDWTMenuLayer::init()::$_1, geode::Task<geode::Result<std::__ndk1::vector<Team, std::__ndk1::allocator<Team> >, std::__ndk1::basic_string<char, std::__ndk1::char_traits<char>, std::__ndk1::allocator<char> > >, std::__ndk1::monostate>::listen<GDWTMenuLayer::init()::$_1>(GDWTMenuLayer::init()::$_1&&) const::{lambda(auto:1 const&)#1}, geode::Task<geode::Result<std::__ndk1::vector<Team, std::__ndk1::allocator<Team> >, std::__ndk1::basic_string<char, std::__ndk1::char_traits<char>, std::__ndk1::allocator<char> > >, std::__ndk1::monostate>::listen<GDWTMenuLayer::init()::$_1>(GDWTMenuLayer::init()::$_1&&) const::{lambda()#1}>(GDWTMenuLayer::init()::$_1&&, geode::Task<geode::Result<std::__ndk1::vector<Team, std::__ndk1::allocator<Team> >, std::__ndk1::basic_string<char, std::__ndk1::char_traits<char>, std::__ndk1::allocator<char> > >, std::__ndk1::monostate>::listen<GDWTMenuLayer::init()::$_1>(GDWTMenuLayer::init()::$_1&&) const::{lambda(auto:1 const&)#1}, geode::Task<geode::Result<std::__ndk1::vector<Team, std::__ndk1::allocator<Team> >, std::__ndk1::basic_string<char, std::__ndk1::char_traits<char>, std::__ndk1::allocator<char> > >, std::__ndk1::monostate>::listen<GDWTMenuLayer::init()::$_1>(GDWTMenuLayer::init()::$_1&&) const::{lambda()#1}&&) const::{lambda(geode::Task<geode::Result<std::__ndk1::vector<Team, std::__ndk1::allocator<Team> >, std::__ndk1::basic_string<char, std::__ndk1::char_traits<char>, std::__ndk1::allocator<char> > >, std::__ndk1::monostate>::Event*)#1}, std::__ndk1::allocator<geode::Task<geode::Result<std::__ndk1::vector<Team, std::__ndk1::allocator<Team> >, std::__ndk1::basic_string<char, std::__ndk1::char_traits<char>, std::__ndk1::allocator<char> > >, std::__ndk1::monostate>::listen<GDWTMenuLayer::init()::$_1, geode::Task<geode::Result<std::__ndk1::vector<Team, std::__ndk1::allocator<Team> >, std::__ndk1::basic_string<char, std::__ndk1::char_traits<char>, std::__ndk1::allocator<char> > >, std::__ndk1::monostate>::listen<GDWTMenuLayer::init()::$_1>(GDWTMenuLayer::init()::$_1&&) const::{lambda(auto:1 const&)#1}, geode::Task<geode::Result<std::__ndk1::vector<Team, std::__ndk1::allocator<Team> >, std::__ndk1::basic_string<char, std::__ndk1::char_traits<char>, std::__ndk1::allocator<char> > >, std::__ndk1::monostate>::listen<GDWTMenuLayer::init()::$_1>(GDWTMenuLayer::init()::$_1&&) const::{lambda()#1}>(GDWTMenuLayer::init()::$_1&&, geode::Task<geode::Result<std::__ndk1::vector<Team, std::__ndk1::allocator<Team> >, std::__ndk1::basic_string<char, std::__ndk1::char_traits<char>, std::__ndk1::allocator<char> > >, std::__ndk1::monostate>::listen<GDWTMenuLayer::init()::$_1>(GDWTMenuLayer::init()::$_1&&) const::{lambda(auto:1 const&)#1}, geode::Task<geode::Result<std::__ndk1::vector<Team, std::__ndk1::allocator<Team> >, std::__ndk1::basic_string<char, std::__ndk1::char_traits<char>, std::__ndk1::allocator<char> > >, std::__ndk1::monostate>::listen<GDWTMenuLayer::init()::$_1>(GDWTMenuLayer::init()::$_1&&) const::{lambda()#1}&&) const::{lambda(geode::Task<geode::Result<std::__ndk1::vector<Team, std::__ndk1::allocator<Team> >, std::__ndk1::basic_string<char, std::__ndk1::char_traits<char>, std::__ndk1::allocator<char> > >, std::__ndk1::monostate>::Event*)#1}>, void (geode::Task<geode::Result<std::__ndk1::vector<Team, std::__ndk1::allocator<Team> >, std::__ndk1::basic_string<char, std::__ndk1::char_traits<char>, std::__ndk1::allocator<char> > >, std::__ndk1::monostate>::Event*)>::destroy_deallocate()
PUBLIC 7df70 0 std::__ndk1::__function::__func<geode::Task<geode::Result<std::__ndk1::vector<Team, std::__ndk1::allocator<Team> >, std::__ndk1::basic_string<char, std::__ndk1::char_traits<char>, std::__ndk1::allocator<char> > >, std::__ndk1::monostate>::listen<GDWTMenuLayer::init()::$_1, geode::Task<geode::Result<std::__ndk1::vector<Team, std::__ndk1::allocator<Team> >, std::__ndk1::basic_string<char, std::__ndk1::char_traits<char>, std::__ndk1::allocator<char> > >, std::__ndk1::monostate>::listen<GDWTMenuLayer::init()::$_1>(GDWTMenuLayer::init()::$_1&&) const::{lambda(auto:1 const&)#1}, geode::Task<geode::Result<std::__ndk1::vector<Team, std::__ndk1::allocator<Team> >, std::__ndk1::basic_string<char, std::__ndk1::char_traits<char>, std::__ndk1::allocator<char> > >, std::__ndk1::monostate>::listen<GDWTMenuLayer::init()::$_1>(GDWTMenuLayer::init()::$_1&&) const::{lambda()#1}>(GDWTMenuLayer::init()::$_1&&, geode::Task<geode::Result<std::__ndk1::vector<Team, std::__ndk1::allocator<Team> >, std::__ndk1::basic_string<char, std::__ndk1::char_traits<char>, std::__ndk1::allocator<char> > >, std::__ndk1::monostate>::listen<GDWTMenuLayer::init()::$_1>(GDWTMenuLayer::init()::$_1&&) const::{lambda(auto:1 const&)#1}, geode::Task<geode::Result<std::__ndk1::vector<Team, std::__ndk1::allocator<Team> >, std::__ndk1::basic_string<char, std::__ndk1::char_traits<char>, std::__ndk1::allocator<char> > >, std::__ndk1::monostate>::listen<GDWTMenuLayer::init()::$_1>(GDWTMenuLayer::init()::$_1&&) const::{lambda()#1}&&) const::{lambda(geode::Task<geode::Result<std::__ndk1::vector<Team, std::__ndk1::allocator<Team> >, std::__ndk1::basic_string<char, std::__ndk1::char_traits<char>, std::__ndk1::allocator<char> > >, std::__ndk1::monostate>::Event*)#1}, std::__ndk1::allocator<geode::Task<geode::Result<std::__ndk1::vector<Team, std::__ndk1::allocator<Team> >, std::__ndk1::basic_string<char, std::__ndk1::char_traits<char>, std::__ndk1::allocator<char> > >, std::__ndk1::monostate>::listen<GDWTMenuLayer::init()::$_1, geode::Task<geode::Result<std::__ndk1::vector<Team, std::__ndk1::allocator<Team> >, std::__ndk1::basic_string<char, std::__ndk1::char_traits<char>, std::__ndk1::allocator<char> > >, std::__ndk1::monostate>::listen<GDWTMenuLayer::init()::$_1>(GDWTMenuLayer::init()::$_1&&) const::{lambda(auto:1 const&)#1}, geode::Task<geode::Result<std::__ndk1::vector<Team, std::__ndk1::allocator<Team> >, std::__ndk1::basic_string<char, std::__ndk1::char_traits<char>, std::__ndk1::allocator<char> > >, std::__ndk1::monostate>::listen<GDWTMenuLayer::init()::$_1>(GDWTMenuLayer::init()::$_1&&) const::{lambda()#1}>(GDWTMenuLayer::init()::$_1&&, geode::Task<geode::Result<std::__ndk1::vector<Team, std::__ndk1::allocator<Team> >, std::__ndk1::basic_string<char, std::__ndk1::char_traits<char>, std::__ndk1::allocator<char> > >, std::__ndk1::monostate>::listen<GDWTMenuLayer::init()::$_1>(GDWTMenuLayer::init()::$_1&&) const::{lambda(auto:1 const&)#1}, geode::Task<geode::Result<std::__ndk1::vector<Team, std::__ndk1::allocator<Team> >, std::__ndk1::basic_string<char, std::__ndk1::char_traits<char>, std::__ndk1::allocator<char> > >, std::__ndk1::monostate>::listen<GDWTMenuLayer::init()::$_1>(GDWTMenuLayer::init()::$_1&&) const::{lambda()#1}&&) const::{lambda(geode::Task<geode::Result<std::__ndk1::vector<Team, std::__ndk1::allocator<Team> >, std::__ndk1::basic_string<char, std::__ndk1::char_traits<char>, std::__ndk1::allocator<char> > >, std::__ndk1::monostate>::Event*)#1}>, void (geode::Task<geode::Result<std::__ndk1::vector<Team, std::__ndk1::allocator<Team> >, std::__ndk1::basic_string<char, std::__ndk1::char_traits<char>, std::__ndk1::allocator<char> > >, std::__ndk1::monostate>::Event*)>::operator()(geode::Task<geode::Result<std::__ndk1::vector<Team, std::__ndk1::allocator<Team> >, std::__ndk1::basic_string<char, std::__ndk1::char_traits<char>, std::__ndk1::allocator<char> > >, std::__ndk1::monostate>::Event*&&)
PUBLIC 7e07c 0 std::__ndk1::__function::__func<geode::Task<geode::Result<std::__ndk1::vector<Team, std::__ndk1::allocator<Team> >, std::__ndk1::basic_string<char, std::__ndk1::char_traits<char>, std::__ndk1::allocator<char> > >, std::__ndk1::monostate>::listen<GDWTMenuLayer::init()::$_1, geode::Task<geode::Result<std::__ndk1::vector<Team, std::__ndk1::allocator<Team> >, std::__ndk1::basic_string<char, std::__ndk1::char_traits<char>, std::__ndk1::allocator<char> > >, std::__ndk1::monostate>::listen<GDWTMenuLayer::init()::$_1>(GDWTMenuLayer::init()::$_1&&) const::{lambda(auto:1 const&)#1}, geode::Task<geode::Result<std::__ndk1::vector<Team, std::__ndk1::allocator<Team> >, std::__ndk1::basic_string<char, std::__ndk1::char_traits<char>, std::__ndk1::allocator<char> > >, std::__ndk1::monostate>::listen<GDWTMenuLayer::init()::$_1>(GDWTMenuLayer::init()::$_1&&) const::{lambda()#1}>(GDWTMenuLayer::init()::$_1&&, geode::Task<geode::Result<std::__ndk1::vector<Team, std::__ndk1::allocator<Team> >, std::__ndk1::basic_string<char, std::__ndk1::char_traits<char>, std::__ndk1::allocator<char> > >, std::__ndk1::monostate>::listen<GDWTMenuLayer::init()::$_1>(GDWTMenuLayer::init()::$_1&&) const::{lambda(auto:1 const&)#1}, geode::Task<geode::Result<std::__ndk1::vector<Team, std::__ndk1::allocator<Team> >, std::__ndk1::basic_string<char, std::__ndk1::char_traits<char>, std::__ndk1::allocator<char> > >, std::__ndk1::monostate>::listen<GDWTMenuLayer::init()::$_1>(GDWTMenuLayer::init()::$_1&&) const::{lambda()#1}&&) const::{lambda(geode::Task<geode::Result<std::__ndk1::vector<Team, std::__ndk1::allocator<Team> >, std::__ndk1::basic_string<char, std::__ndk1::char_traits<char>, std::__ndk1::allocator<char> > >, std::__ndk1::monostate>::Event*)#1}, std::__ndk1::allocator<geode::Task<geode::Result<std::__ndk1::vector<Team, std::__ndk1::allocator<Team> >, std::__ndk1::basic_string<char, std::__ndk1::char_traits<char>, std::__ndk1::allocator<char> > >, std::__ndk1::monostate>::listen<GDWTMenuLayer::init()::$_1, geode::Task<geode::Result<std::__ndk1::vector<Team, std::__ndk1::allocator<Team> >, std::__ndk1::basic_string<char, std::__ndk1::char_traits<char>, std::__ndk1::allocator<char> > >, std::__ndk1::monostate>::listen<GDWTMenuLayer::init()::$_1>(GDWTMenuLayer::init()::$_1&&) const::{lambda(auto:1 const&)#1}, geode::Task<geode::Result<std::__ndk1::vector<Team, std::__ndk1::allocator<Team> >, std::__ndk1::basic_string<char, std::__ndk1::char_traits<char>, std::__ndk1::allocator<char> > >, std::__ndk1::monostate>::listen<GDWTMenuLayer::init()::$_1>(GDWTMenuLayer::init()::$_1&&) const::{lambda()#1}>(GDWTMenuLayer::init()::$_1&&, geode::Task<geode::Result<std::__ndk1::vector<Team, std::__ndk1::allocator<Team> >, std::__ndk1::basic_string<char, std::__ndk1::char_traits<char>, std::__ndk1::allocator<char> > >, std::__ndk1::monostate>::listen<GDWTMenuLayer::init()::$_1>(GDWTMenuLayer::init()::$_1&&) const::{lambda(auto:1 const&)#1}, geode::Task<geode::Result<std::__ndk1::vector<Team, std::__ndk1::allocator<Team> >, std::__ndk1::basic_string<char, std::__ndk1::char_traits<char>, std::__ndk1::allocator<char> > >, std::__ndk1::monostate>::listen<GDWTMenuLayer::init()::$_1>(GDWTMenuLayer::init()::$_1&&) const::{lambda()#1}&&) const::{lambda(geode::Task<geode::Result<std::__ndk1::vector<Team, std::__ndk1::allocator<Team> >, std::__ndk1::basic_string<char, std::__ndk1::char_traits<char>, std::__ndk1::allocator<char> > >, std::__ndk1::monostate>::Event*)#1}>, void (geode::Task<geode::Result<std::__ndk1::vector<Team, std::__ndk1::allocator<Team> >, std::__ndk1::basic_string<char, std::__ndk1::char_traits<char>, std::__ndk1::allocator<char> > >, std::__ndk1::monostate>::Event*)>::target(std::type_info const&) const
PUBLIC 7e098 0 std::__ndk1::__function::__func<geode::Task<geode::Result<std::__ndk1::vector<Team, std::__ndk1::allocator<Team> >, std::__ndk1::basic_string<char, std::__ndk1::char_traits<char>, std::__ndk1::allocator<char> > >, std::__ndk1::monostate>::listen<GDWTMenuLayer::init()::$_1, geode::Task<geode::Result<std::__ndk1::vector<Team, std::__ndk1::allocator<Team> >, std::__ndk1::basic_string<char, std::__ndk1::char_traits<char>, std::__ndk1::allocator<char> > >, std::__ndk1::monostate>::listen<GDWTMenuLayer::init()::$_1>(GDWTMenuLayer::init()::$_1&&) const::{lambda(auto:1 const&)#1}, geode::Task<geode::Result<std::__ndk1::vector<Team, std::__ndk1::allocator<Team> >, std::__ndk1::basic_string<char, std::__ndk1::char_traits<char>, std::__ndk1::allocator<char> > >, std::__ndk1::monostate>::listen<GDWTMenuLayer::init()::$_1>(GDWTMenuLayer::init()::$_1&&) const::{lambda()#1}>(GDWTMenuLayer::init()::$_1&&, geode::Task<geode::Result<std::__ndk1::vector<Team, std::__ndk1::allocator<Team> >, std::__ndk1::basic_string<char, std::__ndk1::char_traits<char>, std::__ndk1::allocator<char> > >, std::__ndk1::monostate>::listen<GDWTMenuLayer::init()::$_1>(GDWTMenuLayer::init()::$_1&&) const::{lambda(auto:1 const&)#1}, geode::Task<geode::Result<std::__ndk1::vector<Team, std::__ndk1::allocator<Team> >, std::__ndk1::basic_string<char, std::__ndk1::char_traits<char>, std::__ndk1::allocator<char> > >, std::__ndk1::monostate>::listen<GDWTMenuLayer::init()::$_1>(GDWTMenuLayer::init()::$_1&&) const::{lambda()#1}&&) const::{lambda(geode::Task<geode::Result<std::__ndk1::vector<Team, std::__ndk1::allocator<Team> >, std::__ndk1::basic_string<char, std::__ndk1::char_traits<char>, std::__ndk1::allocator<char> > >, std::__ndk1::monostate>::Event*)#1}, std::__ndk1::allocator<geode::Task<geode::Result<std::__ndk1::vector<Team, std::__ndk1::allocator<Team> >, std::__ndk1::basic_string<char, std::__ndk1::char_traits<char>, std::__ndk1::allocator<char> > >, std::__ndk1::monostate>::listen<GDWTMenuLayer::init()::$_1, geode::Task<geode::Result<std::__ndk1::vector<Team, std::__ndk1::allocator<Team> >, std::__ndk1::basic_string<char, std::__ndk1::char_traits<char>, std::__ndk1::allocator<char> > >, std::__ndk1::monostate>::listen<GDWTMenuLayer::init()::$_1>(GDWTMenuLayer::init()::$_1&&) const::{lambda(auto:1 const&)#1}, geode::Task<geode::Result<std::__ndk1::vector<Team, std::__ndk1::allocator<Team> >, std::__ndk1::basic_string<char, std::__ndk1::char_traits<char>, std::__ndk1::allocator<char> > >, std::__ndk1::monostate>::listen<GDWTMenuLayer::init()::$_1>(GDWTMenuLayer::init()::$_1&&) const::{lambda()#1}>(GDWTMenuLayer::init()::$_1&&, geode::Task<geode::Result<std::__ndk1::vector<Team, std::__ndk1::allocator<Team> >, std::__ndk1::basic_string<char, std::__ndk1::char_traits<char>, std::__ndk1::allocator<char> > >, std::__ndk1::monostate>::listen<GDWTMenuLayer::init()::$_1>(GDWTMenuLayer::init()::$_1&&) const::{lambda(auto:1 const&)#1}, geode::Task<geode::Result<std::__ndk1::vector<Team, std::__ndk1::allocator<Team> >, std::__ndk1::basic_string<char, std::__ndk1::char_traits<char>, std::__ndk1::allocator<char> > >, std::__ndk1::monostate>::listen<GDWTMenuLayer::init()::$_1>(GDWTMenuLayer::init()::$_1&&) const::{lambda()#1}&&) const::{lambda(geode::Task<geode::Result<std::__ndk1::vector<Team, std::__ndk1::allocator<Team> >, std::__ndk1::basic_string<char, std::__ndk1::char_traits<char>, std::__ndk1::allocator<char> > >, std::__ndk1::monostate>::Event*)#1}>, void (geode::Task<geode::Result<std::__ndk1::vector<Team, std::__ndk1::allocator<Team> >, std::__ndk1::basic_string<char, std::__ndk1::char_traits<char>, std::__ndk1::allocator<char> > >, std::__ndk1::monostate>::Event*)>::target_type() const
PUBLIC 7e0a4 0 std::__ndk1::__function::__func<geode::Task<geode::Result<std::__ndk1::vector<Team, std::__ndk1::allocator<Team> >, std::__ndk1::basic_string<char, std::__ndk1::char_traits<char>, std::__ndk1::allocator<char> > >, std::__ndk1::monostate>::listen<GDWTMenuLayer::init()::$_1, geode::Task<geode::Result<std::__ndk1::vector<Team, std::__ndk1::allocator<Team> >, std::__ndk1::basic_string<char, std::__ndk1::char_traits<char>, std::__ndk1::allocator<char> > >, std::__ndk1::monostate>::listen<GDWTMenuLayer::init()::$_1>(GDWTMenuLayer::init()::$_1&&) const::{lambda(auto:1 const&)#1}, geode::Task<geode::Result<std::__ndk1::vector<Team, std::__ndk1::allocator<Team> >, std::__ndk1::basic_string<char, std::__ndk1::char_traits<char>, std::__ndk1::allocator<char> > >, std::__ndk1::monostate>::listen<GDWTMenuLayer::init()::$_1>(GDWTMenuLayer::init()::$_1&&) const::{lambda()#1}>(GDWTMenuLayer::init()::$_1&&, geode::Task<geode::Result<std::__ndk1::vector<Team, std::__ndk1::allocator<Team> >, std::__ndk1::basic_string<char, std::__ndk1::char_traits<char>, std::__ndk1::allocator<char> > >, std::__ndk1::monostate>::listen<GDWTMenuLayer::init()::$_1>(GDWTMenuLayer::init()::$_1&&) const::{lambda(auto:1 const&)#1}, geode::Task<geode::Result<std::__ndk1::vector<Team, std::__ndk1::allocator<Team> >, std::__ndk1::basic_string<char, std::__ndk1::char_traits<char>, std::__ndk1::allocator<char> > >, std::__ndk1::monostate>::listen<GDWTMenuLayer::init()::$_1>(GDWTMenuLayer::init()::$_1&&) const::{lambda()#1}&&) const::{lambda(geode::Task<geode::Result<std::__ndk1::vector<Team, std::__ndk1::allocator<Team> >, std::__ndk1::basic_string<char, std::__ndk1::char_traits<char>, std::__ndk1::allocator<char> > >, std::__ndk1::monostate>::Event*)#1}::operator()(geode::Task<geode::Result<std::__ndk1::vector<Team, std::__ndk1::allocator<Team> >, std::__ndk1::basic_string<char, std::__ndk1::char_traits<char>, std::__ndk1::allocator<char> > >, std::__ndk1::monostate>::Event*)::{lambda()#1}, std::__ndk1::allocator<geode::Task<geode::Result<std::__ndk1::vector<Team, std::__ndk1::allocator<Team> >, std::__ndk1::basic_string<char, std::__ndk1::char_traits<char>, std::__ndk1::allocator<char> > >, std::__ndk1::monostate>::listen<GDWTMenuLayer::init()::$_1, geode::Task<geode::Result<std::__ndk1::vector<Team, std::__ndk1::allocator<Team> >, std::__ndk1::basic_string<char, std::__ndk1::char_traits<char>, std::__ndk1::allocator<char> > >, std::__ndk1::monostate>::listen<GDWTMenuLayer::init()::$_1>(GDWTMenuLayer::init()::$_1&&) const::{lambda(auto:1 const&)#1}, geode::Task<geode::Result<std::__ndk1::vector<Team, std::__ndk1::allocator<Team> >, std::__ndk1::basic_string<char, std::__ndk1::char_traits<char>, std::__ndk1::allocator<char> > >, std::__ndk1::monostate>::listen<GDWTMenuLayer::init()::$_1>(GDWTMenuLayer::init()::$_1&&) const::{lambda()#1}>(GDWTMenuLayer::init()::$_1&&, geode::Task<geode::Result<std::__ndk1::vector<Team, std::__ndk1::allocator<Team> >, std::__ndk1::basic_string<char, std::__ndk1::char_traits<char>, std::__ndk1::allocator<char> > >, std::__ndk1::monostate>::listen<GDWTMenuLayer::init()::$_1>(GDWTMenuLayer::init()::$_1&&) const::{lambda(auto:1 const&)#1}, geode::Task<geode::Result<std::__ndk1::vector<Team, std::__ndk1::allocator<Team> >, std::__ndk1::basic_string<char, std::__ndk1::char_traits<char>, std::__ndk1::allocator<char> > >, std::__ndk1::monostate>::listen<GDWTMenuLayer::init()::$_1>(GDWTMenuLayer::init()::$_1&&) const::{lambda()#1}&&) const::{lambda(geode::Task<geode::Result<std::__ndk1::vector<Team, std::__ndk1::allocator<Team> >, std::__ndk1::basic_string<char, std::__ndk1::char_traits<char>, std::__ndk1::allocator<char> > >, std::__ndk1::monostate>::Event*)#1}::operator()(geode::Task<geode::Result<std::__ndk1::vector<Team, std::__ndk1::allocator<Team> >, std::__ndk1::basic_string<char, std::__ndk1::char_traits<char>, std::__ndk1::allocator<char> > >, std::__ndk1::monostate>::Event*)::{lambda()#1}>, void ()>::~__func()
PUBLIC 7e0a8 0 std::__ndk1::__function::__func<geode::Task<geode::Result<std::__ndk1::vector<Team, std::__ndk1::allocator<Team> >, std::__ndk1::basic_string<char, std::__ndk1::char_traits<char>, std::__ndk1::allocator<char> > >, std::__ndk1::monostate>::listen<GDWTMenuLayer::init()::$_1, geode::Task<geode::Result<std::__ndk1::vector<Team, std::__ndk1::allocator<Team> >, std::__ndk1::basic_string<char, std::__ndk1::char_traits<char>, std::__ndk1::allocator<char> > >, std::__ndk1::monostate>::listen<GDWTMenuLayer::init()::$_1>(GDWTMenuLayer::init()::$_1&&) const::{lambda(auto:1 const&)#1}, geode::Task<geode::Result<std::__ndk1::vector<Team, std::__ndk1::allocator<Team> >, std::__ndk1::basic_string<char, std::__ndk1::char_traits<char>, std::__ndk1::allocator<char> > >, std::__ndk1::monostate>::listen<GDWTMenuLayer::init()::$_1>(GDWTMenuLayer::init()::$_1&&) const::{lambda()#1}>(GDWTMenuLayer::init()::$_1&&, geode::Task<geode::Result<std::__ndk1::vector<Team, std::__ndk1::allocator<Team> >, std::__ndk1::basic_string<char, std::__ndk1::char_traits<char>, std::__ndk1::allocator<char> > >, std::__ndk1::monostate>::listen<GDWTMenuLayer::init()::$_1>(GDWTMenuLayer::init()::$_1&&) const::{lambda(auto:1 const&)#1}, geode::Task<geode::Result<std::__ndk1::vector<Team, std::__ndk1::allocator<Team> >, std::__ndk1::basic_string<char, std::__ndk1::char_traits<char>, std::__ndk1::allocator<char> > >, std::__ndk1::monostate>::listen<GDWTMenuLayer::init()::$_1>(GDWTMenuLayer::init()::$_1&&) const::{lambda()#1}&&) const::{lambda(geode::Task<geode::Result<std::__ndk1::vector<Team, std::__ndk1::allocator<Team> >, std::__ndk1::basic_string<char, std::__ndk1::char_traits<char>, std::__ndk1::allocator<char> > >, std::__ndk1::monostate>::Event*)#1}::operator()(geode::Task<geode::Result<std::__ndk1::vector<Team, std::__ndk1::allocator<Team> >, std::__ndk1::basic_string<char, std::__ndk1::char_traits<char>, std::__ndk1::allocator<char> > >, std::__ndk1::monostate>::Event*)::{lambda()#1}, std::__ndk1::allocator<geode::Task<geode::Result<std::__ndk1::vector<Team, std::__ndk1::allocator<Team> >, std::__ndk1::basic_string<char, std::__ndk1::char_traits<char>, std::__ndk1::allocator<char> > >, std::__ndk1::monostate>::listen<GDWTMenuLayer::init()::$_1, geode::Task<geode::Result<std::__ndk1::vector<Team, std::__ndk1::allocator<Team> >, std::__ndk1::basic_string<char, std::__ndk1::char_traits<char>, std::__ndk1::allocator<char> > >, std::__ndk1::monostate>::listen<GDWTMenuLayer::init()::$_1>(GDWTMenuLayer::init()::$_1&&) const::{lambda(auto:1 const&)#1}, geode::Task<geode::Result<std::__ndk1::vector<Team, std::__ndk1::allocator<Team> >, std::__ndk1::basic_string<char, std::__ndk1::char_traits<char>, std::__ndk1::allocator<char> > >, std::__ndk1::monostate>::listen<GDWTMenuLayer::init()::$_1>(GDWTMenuLayer::init()::$_1&&) const::{lambda()#1}>(GDWTMenuLayer::init()::$_1&&, geode::Task<geode::Result<std::__ndk1::vector<Team, std::__ndk1::allocator<Team> >, std::__ndk1::basic_string<char, std::__ndk1::char_traits<char>, std::__ndk1::allocator<char> > >, std::__ndk1::monostate>::listen<GDWTMenuLayer::init()::$_1>(GDWTMenuLayer::init()::$_1&&) const::{lambda(auto:1 const&)#1}, geode::Task<geode::Result<std::__ndk1::vector<Team, std::__ndk1::allocator<Team> >, std::__ndk1::basic_string<char, std::__ndk1::char_traits<char>, std::__ndk1::allocator<char> > >, std::__ndk1::monostate>::listen<GDWTMenuLayer::init()::$_1>(GDWTMenuLayer::init()::$_1&&) const::{lambda()#1}&&) const::{lambda(geode::Task<geode::Result<std::__ndk1::vector<Team, std::__ndk1::allocator<Team> >, std::__ndk1::basic_string<char, std::__ndk1::char_traits<char>, std::__ndk1::allocator<char> > >, std::__ndk1::monostate>::Event*)#1}::operator()(geode::Task<geode::Result<std::__ndk1::vector<Team, std::__ndk1::allocator<Team> >, std::__ndk1::basic_string<char, std::__ndk1::char_traits<char>, std::__ndk1::allocator<char> > >, std::__ndk1::monostate>::Event*)::{lambda()#1}>, void ()>::__clone() const
PUBLIC 7e0dc 0 std::__ndk1::__function::__func<geode::Task<geode::Result<std::__ndk1::vector<Team, std::__ndk1::allocator<Team> >, std::__ndk1::basic_string<char, std::__ndk1::char_traits<char>, std::__ndk1::allocator<char> > >, std::__ndk1::monostate>::listen<GDWTMenuLayer::init()::$_1, geode::Task<geode::Result<std::__ndk1::vector<Team, std::__ndk1::allocator<Team> >, std::__ndk1::basic_string<char, std::__ndk1::char_traits<char>, std::__ndk1::allocator<char> > >, std::__ndk1::monostate>::listen<GDWTMenuLayer::init()::$_1>(GDWTMenuLayer::init()::$_1&&) const::{lambda(auto:1 const&)#1}, geode::Task<geode::Result<std::__ndk1::vector<Team, std::__ndk1::allocator<Team> >, std::__ndk1::basic_string<char, std::__ndk1::char_traits<char>, std::__ndk1::allocator<char> > >, std::__ndk1::monostate>::listen<GDWTMenuLayer::init()::$_1>(GDWTMenuLayer::init()::$_1&&) const::{lambda()#1}>(GDWTMenuLayer::init()::$_1&&, geode::Task<geode::Result<std::__ndk1::vector<Team, std::__ndk1::allocator<Team> >, std::__ndk1::basic_string<char, std::__ndk1::char_traits<char>, std::__ndk1::allocator<char> > >, std::__ndk1::monostate>::listen<GDWTMenuLayer::init()::$_1>(GDWTMenuLayer::init()::$_1&&) const::{lambda(auto:1 const&)#1}, geode::Task<geode::Result<std::__ndk1::vector<Team, std::__ndk1::allocator<Team> >, std::__ndk1::basic_string<char, std::__ndk1::char_traits<char>, std::__ndk1::allocator<char> > >, std::__ndk1::monostate>::listen<GDWTMenuLayer::init()::$_1>(GDWTMenuLayer::init()::$_1&&) const::{lambda()#1}&&) const::{lambda(geode::Task<geode::Result<std::__ndk1::vector<Team, std::__ndk1::allocator<Team> >, std::__ndk1::basic_string<char, std::__ndk1::char_traits<char>, std::__ndk1::allocator<char> > >, std::__ndk1::monostate>::Event*)#1}::operator()(geode::Task<geode::Result<std::__ndk1::vector<Team, std::__ndk1::allocator<Team> >, std::__ndk1::basic_string<char, std::__ndk1::char_traits<char>, std::__ndk1::allocator<char> > >, std::__ndk1::monostate>::Event*)::{lambda()#1}, std::__ndk1::allocator<geode::Task<geode::Result<std::__ndk1::vector<Team, std::__ndk1::allocator<Team> >, std::__ndk1::basic_string<char, std::__ndk1::char_traits<char>, std::__ndk1::allocator<char> > >, std::__ndk1::monostate>::listen<GDWTMenuLayer::init()::$_1, geode::Task<geode::Result<std::__ndk1::vector<Team, std::__ndk1::allocator<Team> >, std::__ndk1::basic_string<char, std::__ndk1::char_traits<char>, std::__ndk1::allocator<char> > >, std::__ndk1::monostate>::listen<GDWTMenuLayer::init()::$_1>(GDWTMenuLayer::init()::$_1&&) const::{lambda(auto:1 const&)#1}, geode::Task<geode::Result<std::__ndk1::vector<Team, std::__ndk1::allocator<Team> >, std::__ndk1::basic_string<char, std::__ndk1::char_traits<char>, std::__ndk1::allocator<char> > >, std::__ndk1::monostate>::listen<GDWTMenuLayer::init()::$_1>(GDWTMenuLayer::init()::$_1&&) const::{lambda()#1}>(GDWTMenuLayer::init()::$_1&&, geode::Task<geode::Result<std::__ndk1::vector<Team, std::__ndk1::allocator<Team> >, std::__ndk1::basic_string<char, std::__ndk1::char_traits<char>, std::__ndk1::allocator<char> > >, std::__ndk1::monostate>::listen<GDWTMenuLayer::init()::$_1>(GDWTMenuLayer::init()::$_1&&) const::{lambda(auto:1 const&)#1}, geode::Task<geode::Result<std::__ndk1::vector<Team, std::__ndk1::allocator<Team> >, std::__ndk1::basic_string<char, std::__ndk1::char_traits<char>, std::__ndk1::allocator<char> > >, std::__ndk1::monostate>::listen<GDWTMenuLayer::init()::$_1>(GDWTMenuLayer::init()::$_1&&) const::{lambda()#1}&&) const::{lambda(geode::Task<geode::Result<std::__ndk1::vector<Team, std::__ndk1::allocator<Team> >, std::__ndk1::basic_string<char, std::__ndk1::char_traits<char>, std::__ndk1::allocator<char> > >, std::__ndk1::monostate>::Event*)#1}::operator()(geode::Task<geode::Result<std::__ndk1::vector<Team, std::__ndk1::allocator<Team> >, std::__ndk1::basic_string<char, std::__ndk1::char_traits<char>, std::__ndk1::allocator<char> > >, std::__ndk1::monostate>::Event*)::{lambda()#1}>, void ()>::__clone(std::__ndk1::__function::__base<void ()>*) const
PUBLIC 7e0f0 0 std::__ndk1::__function::__func<geode::Task<geode::Result<std::__ndk1::vector<Team, std::__ndk1::allocator<Team> >, std::__ndk1::basic_string<char, std::__ndk1::char_traits<char>, std::__ndk1::allocator<char> > >, std::__ndk1::monostate>::listen<GDWTMenuLayer::init()::$_1, geode::Task<geode::Result<std::__ndk1::vector<Team, std::__ndk1::allocator<Team> >, std::__ndk1::basic_string<char, std::__ndk1::char_traits<char>, std::__ndk1::allocator<char> > >, std::__ndk1::monostate>::listen<GDWTMenuLayer::init()::$_1>(GDWTMenuLayer::init()::$_1&&) const::{lambda(auto:1 const&)#1}, geode::Task<geode::Result<std::__ndk1::vector<Team, std::__ndk1::allocator<Team> >, std::__ndk1::basic_string<char, std::__ndk1::char_traits<char>, std::__ndk1::allocator<char> > >, std::__ndk1::monostate>::listen<GDWTMenuLayer::init()::$_1>(GDWTMenuLayer::init()::$_1&&) const::{lambda()#1}>(GDWTMenuLayer::init()::$_1&&, geode::Task<geode::Result<std::__ndk1::vector<Team, std::__ndk1::allocator<Team> >, std::__ndk1::basic_string<char, std::__ndk1::char_traits<char>, std::__ndk1::allocator<char> > >, std::__ndk1::monostate>::listen<GDWTMenuLayer::init()::$_1>(GDWTMenuLayer::init()::$_1&&) const::{lambda(auto:1 const&)#1}, geode::Task<geode::Result<std::__ndk1::vector<Team, std::__ndk1::allocator<Team> >, std::__ndk1::basic_string<char, std::__ndk1::char_traits<char>, std::__ndk1::allocator<char> > >, std::__ndk1::monostate>::listen<GDWTMenuLayer::init()::$_1>(GDWTMenuLayer::init()::$_1&&) const::{lambda()#1}&&) const::{lambda(geode::Task<geode::Result<std::__ndk1::vector<Team, std::__ndk1::allocator<Team> >, std::__ndk1::basic_string<char, std::__ndk1::char_traits<char>, std::__ndk1::allocator<char> > >, std::__ndk1::monostate>::Event*)#1}::operator()(geode::Task<geode::Result<std::__ndk1::vector<Team, std::__ndk1::allocator<Team> >, std::__ndk1::basic_string<char, std::__ndk1::char_traits<char>, std::__ndk1::allocator<char> > >, std::__ndk1::monostate>::Event*)::{lambda()#1}, std::__ndk1::allocator<geode::Task<geode::Result<std::__ndk1::vector<Team, std::__ndk1::allocator<Team> >, std::__ndk1::basic_string<char, std::__ndk1::char_traits<char>, std::__ndk1::allocator<char> > >, std::__ndk1::monostate>::listen<GDWTMenuLayer::init()::$_1, geode::Task<geode::Result<std::__ndk1::vector<Team, std::__ndk1::allocator<Team> >, std::__ndk1::basic_string<char, std::__ndk1::char_traits<char>, std::__ndk1::allocator<char> > >, std::__ndk1::monostate>::listen<GDWTMenuLayer::init()::$_1>(GDWTMenuLayer::init()::$_1&&) const::{lambda(auto:1 const&)#1}, geode::Task<geode::Result<std::__ndk1::vector<Team, std::__ndk1::allocator<Team> >, std::__ndk1::basic_string<char, std::__ndk1::char_traits<char>, std::__ndk1::allocator<char> > >, std::__ndk1::monostate>::listen<GDWTMenuLayer::init()::$_1>(GDWTMenuLayer::init()::$_1&&) const::{lambda()#1}>(GDWTMenuLayer::init()::$_1&&, geode::Task<geode::Result<std::__ndk1::vector<Team, std::__ndk1::allocator<Team> >, std::__ndk1::basic_string<char, std::__ndk1::char_traits<char>, std::__ndk1::allocator<char> > >, std::__ndk1::monostate>::listen<GDWTMenuLayer::init()::$_1>(GDWTMenuLayer::init()::$_1&&) const::{lambda(auto:1 const&)#1}, geode::Task<geode::Result<std::__ndk1::vector<Team, std::__ndk1::allocator<Team> >, std::__ndk1::basic_string<char, std::__ndk1::char_traits<char>, std::__ndk1::allocator<char> > >, std::__ndk1::monostate>::listen<GDWTMenuLayer::init()::$_1>(GDWTMenuLayer::init()::$_1&&) const::{lambda()#1}&&) const::{lambda(geode::Task<geode::Result<std::__ndk1::vector<Team, std::__ndk1::allocator<Team> >, std::__ndk1::basic_string<char, std::__ndk1::char_traits<char>, std::__ndk1::allocator<char> > >, std::__ndk1::monostate>::Event*)#1}::operator()(geode::Task<geode::Result<std::__ndk1::vector<Team, std::__ndk1::allocator<Team> >, std::__ndk1::basic_string<char, std::__ndk1::char_traits<char>, std::__ndk1::allocator<char> > >, std::__ndk1::monostate>::Event*)::{lambda()#1}>, void ()>::destroy()
PUBLIC 7e0f4 0 std::__ndk1::__function::__func<geode::Task<geode::Result<std::__ndk1::vector<Team, std::__ndk1::allocator<Team> >, std::__ndk1::basic_string<char, std::__ndk1::char_traits<char>, std::__ndk1::allocator<char> > >, std::__ndk1::monostate>::listen<GDWTMenuLayer::init()::$_1, geode::Task<geode::Result<std::__ndk1::vector<Team, std::__ndk1::allocator<Team> >, std::__ndk1::basic_string<char, std::__ndk1::char_traits<char>, std::__ndk1::allocator<char> > >, std::__ndk1::monostate>::listen<GDWTMenuLayer::init()::$_1>(GDWTMenuLayer::init()::$_1&&) const::{lambda(auto:1 const&)#1}, geode::Task<geode::Result<std::__ndk1::vector<Team, std::__ndk1::allocator<Team> >, std::__ndk1::basic_string<char, std::__ndk1::char_traits<char>, std::__ndk1::allocator<char> > >, std::__ndk1::monostate>::listen<GDWTMenuLayer::init()::$_1>(GDWTMenuLayer::init()::$_1&&) const::{lambda()#1}>(GDWTMenuLayer::init()::$_1&&, geode::Task<geode::Result<std::__ndk1::vector<Team, std::__ndk1::allocator<Team> >, std::__ndk1::basic_string<char, std::__ndk1::char_traits<char>, std::__ndk1::allocator<char> > >, std::__ndk1::monostate>::listen<GDWTMenuLayer::init()::$_1>(GDWTMenuLayer::init()::$_1&&) const::{lambda(auto:1 const&)#1}, geode::Task<geode::Result<std::__ndk1::vector<Team, std::__ndk1::allocator<Team> >, std::__ndk1::basic_string<char, std::__ndk1::char_traits<char>, std::__ndk1::allocator<char> > >, std::__ndk1::monostate>::listen<GDWTMenuLayer::init()::$_1>(GDWTMenuLayer::init()::$_1&&) const::{lambda()#1}&&) const::{lambda(geode::Task<geode::Result<std::__ndk1::vector<Team, std::__ndk1::allocator<Team> >, std::__ndk1::basic_string<char, std::__ndk1::char_traits<char>, std::__ndk1::allocator<char> > >, std::__ndk1::monostate>::Event*)#1}::operator()(geode::Task<geode::Result<std::__ndk1::vector<Team, std::__ndk1::allocator<Team> >, std::__ndk1::basic_string<char, std::__ndk1::char_traits<char>, std::__ndk1::allocator<char> > >, std::__ndk1::monostate>::Event*)::{lambda()#1}, std::__ndk1::allocator<geode::Task<geode::Result<std::__ndk1::vector<Team, std::__ndk1::allocator<Team> >, std::__ndk1::basic_string<char, std::__ndk1::char_traits<char>, std::__ndk1::allocator<char> > >, std::__ndk1::monostate>::listen<GDWTMenuLayer::init()::$_1, geode::Task<geode::Result<std::__ndk1::vector<Team, std::__ndk1::allocator<Team> >, std::__ndk1::basic_string<char, std::__ndk1::char_traits<char>, std::__ndk1::allocator<char> > >, std::__ndk1::monostate>::listen<GDWTMenuLayer::init()::$_1>(GDWTMenuLayer::init()::$_1&&) const::{lambda(auto:1 const&)#1}, geode::Task<geode::Result<std::__ndk1::vector<Team, std::__ndk1::allocator<Team> >, std::__ndk1::basic_string<char, std::__ndk1::char_traits<char>, std::__ndk1::allocator<char> > >, std::__ndk1::monostate>::listen<GDWTMenuLayer::init()::$_1>(GDWTMenuLayer::init()::$_1&&) const::{lambda()#1}>(GDWTMenuLayer::init()::$_1&&, geode::Task<geode::Result<std::__ndk1::vector<Team, std::__ndk1::allocator<Team> >, std::__ndk1::basic_string<char, std::__ndk1::char_traits<char>, std::__ndk1::allocator<char> > >, std::__ndk1::monostate>::listen<GDWTMenuLayer::init()::$_1>(GDWTMenuLayer::init()::$_1&&) const::{lambda(auto:1 const&)#1}, geode::Task<geode::Result<std::__ndk1::vector<Team, std::__ndk1::allocator<Team> >, std::__ndk1::basic_string<char, std::__ndk1::char_traits<char>, std::__ndk1::allocator<char> > >, std::__ndk1::monostate>::listen<GDWTMenuLayer::init()::$_1>(GDWTMenuLayer::init()::$_1&&) const::{lambda()#1}&&) const::{lambda(geode::Task<geode::Result<std::__ndk1::vector<Team, std::__ndk1::allocator<Team> >, std::__ndk1::basic_string<char, std::__ndk1::char_traits<char>, std::__ndk1::allocator<char> > >, std::__ndk1::monostate>::Event*)#1}::operator()(geode::Task<geode::Result<std::__ndk1::vector<Team, std::__ndk1::allocator<Team> >, std::__ndk1::basic_string<char, std::__ndk1::char_traits<char>, std::__ndk1::allocator<char> > >, std::__ndk1::monostate>::Event*)::{lambda()#1}>, void ()>::destroy_deallocate()
PUBLIC 7e0f8 0 std::__ndk1::__function::__func<geode::Task<geode::Result<std::__ndk1::vector<Team, std::__ndk1::allocator<Team> >, std::__ndk1::basic_string<char, std::__ndk1::char_traits<char>, std::__ndk1::allocator<char> > >, std::__ndk1::monostate>::listen<GDWTMenuLayer::init()::$_1, geode::Task<geode::Result<std::__ndk1::vector<Team, std::__ndk1::allocator<Team> >, std::__ndk1::basic_string<char, std::__ndk1::char_traits<char>, std::__ndk1::allocator<char> > >, std::__ndk1::monostate>::listen<GDWTMenuLayer::init()::$_1>(GDWTMenuLayer::init()::$_1&&) const::{lambda(auto:1 const&)#1}, geode::Task<geode::Result<std::__ndk1::vector<Team, std::__ndk1::allocator<Team> >, std::__ndk1::basic_string<char, std::__ndk1::char_traits<char>, std::__ndk1::allocator<char> > >, std::__ndk1::monostate>::listen<GDWTMenuLayer::init()::$_1>(GDWTMenuLayer::init()::$_1&&) const::{lambda()#1}>(GDWTMenuLayer::init()::$_1&&, geode::Task<geode::Result<std::__ndk1::vector<Team, std::__ndk1::allocator<Team> >, std::__ndk1::basic_string<char, std::__ndk1::char_traits<char>, std::__ndk1::allocator<char> > >, std::__ndk1::monostate>::listen<GDWTMenuLayer::init()::$_1>(GDWTMenuLayer::init()::$_1&&) const::{lambda(auto:1 const&)#1}, geode::Task<geode::Result<std::__ndk1::vector<Team, std::__ndk1::allocator<Team> >, std::__ndk1::basic_string<char, std::__ndk1::char_traits<char>, std::__ndk1::allocator<char> > >, std::__ndk1::monostate>::listen<GDWTMenuLayer::init()::$_1>(GDWTMenuLayer::init()::$_1&&) const::{lambda()#1}&&) const::{lambda(geode::Task<geode::Result<std::__ndk1::vector<Team, std::__ndk1::allocator<Team> >, std::__ndk1::basic_string<char, std::__ndk1::char_traits<char>, std::__ndk1::allocator<char> > >, std::__ndk1::monostate>::Event*)#1}::operator()(geode::Task<geode::Result<std::__ndk1::vector<Team, std::__ndk1::allocator<Team> >, std::__ndk1::basic_string<char, std::__ndk1::char_traits<char>, std::__ndk1::allocator<char> > >, std::__ndk1::monostate>::Event*)::{lambda()#1}, std::__ndk1::allocator<geode::Task<geode::Result<std::__ndk1::vector<Team, std::__ndk1::allocator<Team> >, std::__ndk1::basic_string<char, std::__ndk1::char_traits<char>, std::__ndk1::allocator<char> > >, std::__ndk1::monostate>::listen<GDWTMenuLayer::init()::$_1, geode::Task<geode::Result<std::__ndk1::vector<Team, std::__ndk1::allocator<Team> >, std::__ndk1::basic_string<char, std::__ndk1::char_traits<char>, std::__ndk1::allocator<char> > >, std::__ndk1::monostate>::listen<GDWTMenuLayer::init()::$_1>(GDWTMenuLayer::init()::$_1&&) const::{lambda(auto:1 const&)#1}, geode::Task<geode::Result<std::__ndk1::vector<Team, std::__ndk1::allocator<Team> >, std::__ndk1::basic_string<char, std::__ndk1::char_traits<char>, std::__ndk1::allocator<char> > >, std::__ndk1::monostate>::listen<GDWTMenuLayer::init()::$_1>(GDWTMenuLayer::init()::$_1&&) const::{lambda()#1}>(GDWTMenuLayer::init()::$_1&&, geode::Task<geode::Result<std::__ndk1::vector<Team, std::__ndk1::allocator<Team> >, std::__ndk1::basic_string<char, std::__ndk1::char_traits<char>, std::__ndk1::allocator<char> > >, std::__ndk1::monostate>::listen<GDWTMenuLayer::init()::$_1>(GDWTMenuLayer::init()::$_1&&) const::{lambda(auto:1 const&)#1}, geode::Task<geode::Result<std::__ndk1::vector<Team, std::__ndk1::allocator<Team> >, std::__ndk1::basic_string<char, std::__ndk1::char_traits<char>, std::__ndk1::allocator<char> > >, std::__ndk1::monostate>::listen<GDWTMenuLayer::init()::$_1>(GDWTMenuLayer::init()::$_1&&) const::{lambda()#1}&&) const::{lambda(geode::Task<geode::Result<std::__ndk1::vector<Team, std::__ndk1::allocator<Team> >, std::__ndk1::basic_string<char, std::__ndk1::char_traits<char>, std::__ndk1::allocator<char> > >, std::__ndk1::monostate>::Event*)#1}::operator()(geode::Task<geode::Result<std::__ndk1::vector<Team, std::__ndk1::allocator<Team> >, std::__ndk1::basic_string<char, std::__ndk1::char_traits<char>, std::__ndk1::allocator<char> > >, std::__ndk1::monostate>::Event*)::{lambda()#1}>, void ()>::operator()()
PUBLIC 7e110 0 std::__ndk1::__function::__func<geode::Task<geode::Result<std::__ndk1::vector<Team, std::__ndk1::allocator<Team> >, std::__ndk1::basic_string<char, std::__ndk1::char_traits<char>, std::__ndk1::allocator<char> > >, std::__ndk1::monostate>::listen<GDWTMenuLayer::init()::$_1, geode::Task<geode::Result<std::__ndk1::vector<Team, std::__ndk1::allocator<Team> >, std::__ndk1::basic_string<char, std::__ndk1::char_traits<char>, std::__ndk1::allocator<char> > >, std::__ndk1::monostate>::listen<GDWTMenuLayer::init()::$_1>(GDWTMenuLayer::init()::$_1&&) const::{lambda(auto:1 const&)#1}, geode::Task<geode::Result<std::__ndk1::vector<Team, std::__ndk1::allocator<Team> >, std::__ndk1::basic_string<char, std::__ndk1::char_traits<char>, std::__ndk1::allocator<char> > >, std::__ndk1::monostate>::listen<GDWTMenuLayer::init()::$_1>(GDWTMenuLayer::init()::$_1&&) const::{lambda()#1}>(GDWTMenuLayer::init()::$_1&&, geode::Task<geode::Result<std::__ndk1::vector<Team, std::__ndk1::allocator<Team> >, std::__ndk1::basic_string<char, std::__ndk1::char_traits<char>, std::__ndk1::allocator<char> > >, std::__ndk1::monostate>::listen<GDWTMenuLayer::init()::$_1>(GDWTMenuLayer::init()::$_1&&) const::{lambda(auto:1 const&)#1}, geode::Task<geode::Result<std::__ndk1::vector<Team, std::__ndk1::allocator<Team> >, std::__ndk1::basic_string<char, std::__ndk1::char_traits<char>, std::__ndk1::allocator<char> > >, std::__ndk1::monostate>::listen<GDWTMenuLayer::init()::$_1>(GDWTMenuLayer::init()::$_1&&) const::{lambda()#1}&&) const::{lambda(geode::Task<geode::Result<std::__ndk1::vector<Team, std::__ndk1::allocator<Team> >, std::__ndk1::basic_string<char, std::__ndk1::char_traits<char>, std::__ndk1::allocator<char> > >, std::__ndk1::monostate>::Event*)#1}::operator()(geode::Task<geode::Result<std::__ndk1::vector<Team, std::__ndk1::allocator<Team> >, std::__ndk1::basic_string<char, std::__ndk1::char_traits<char>, std::__ndk1::allocator<char> > >, std::__ndk1::monostate>::Event*)::{lambda()#1}, std::__ndk1::allocator<geode::Task<geode::Result<std::__ndk1::vector<Team, std::__ndk1::allocator<Team> >, std::__ndk1::basic_string<char, std::__ndk1::char_traits<char>, std::__ndk1::allocator<char> > >, std::__ndk1::monostate>::listen<GDWTMenuLayer::init()::$_1, geode::Task<geode::Result<std::__ndk1::vector<Team, std::__ndk1::allocator<Team> >, std::__ndk1::basic_string<char, std::__ndk1::char_traits<char>, std::__ndk1::allocator<char> > >, std::__ndk1::monostate>::listen<GDWTMenuLayer::init()::$_1>(GDWTMenuLayer::init()::$_1&&) const::{lambda(auto:1 const&)#1}, geode::Task<geode::Result<std::__ndk1::vector<Team, std::__ndk1::allocator<Team> >, std::__ndk1::basic_string<char, std::__ndk1::char_traits<char>, std::__ndk1::allocator<char> > >, std::__ndk1::monostate>::listen<GDWTMenuLayer::init()::$_1>(GDWTMenuLayer::init()::$_1&&) const::{lambda()#1}>(GDWTMenuLayer::init()::$_1&&, geode::Task<geode::Result<std::__ndk1::vector<Team, std::__ndk1::allocator<Team> >, std::__ndk1::basic_string<char, std::__ndk1::char_traits<char>, std::__ndk1::allocator<char> > >, std::__ndk1::monostate>::listen<GDWTMenuLayer::init()::$_1>(GDWTMenuLayer::init()::$_1&&) const::{lambda(auto:1 const&)#1}, geode::Task<geode::Result<std::__ndk1::vector<Team, std::__ndk1::allocator<Team> >, std::__ndk1::basic_string<char, std::__ndk1::char_traits<char>, std::__ndk1::allocator<char> > >, std::__ndk1::monostate>::listen<GDWTMenuLayer::init()::$_1>(GDWTMenuLayer::init()::$_1&&) const::{lambda()#1}&&) const::{lambda(geode::Task<geode::Result<std::__ndk1::vector<Team, std::__ndk1::allocator<Team> >, std::__ndk1::basic_string<char, std::__ndk1::char_traits<char>, std::__ndk1::allocator<char> > >, std::__ndk1::monostate>::Event*)#1}::operator()(geode::Task<geode::Result<std::__ndk1::vector<Team, std::__ndk1::allocator<Team> >, std::__ndk1::basic_string<char, std::__ndk1::char_traits<char>, std::__ndk1::allocator<char> > >, std::__ndk1::monostate>::Event*)::{lambda()#1}>, void ()>::target(std::type_info const&) const
PUBLIC 7e12c 0 std::__ndk1::__function::__func<geode::Task<geode::Result<std::__ndk1::vector<Team, std::__ndk1::allocator<Team> >, std::__ndk1::basic_string<char, std::__ndk1::char_traits<char>, std::__ndk1::allocator<char> > >, std::__ndk1::monostate>::listen<GDWTMenuLayer::init()::$_1, geode::Task<geode::Result<std::__ndk1::vector<Team, std::__ndk1::allocator<Team> >, std::__ndk1::basic_string<char, std::__ndk1::char_traits<char>, std::__ndk1::allocator<char> > >, std::__ndk1::monostate>::listen<GDWTMenuLayer::init()::$_1>(GDWTMenuLayer::init()::$_1&&) const::{lambda(auto:1 const&)#1}, geode::Task<geode::Result<std::__ndk1::vector<Team, std::__ndk1::allocator<Team> >, std::__ndk1::basic_string<char, std::__ndk1::char_traits<char>, std::__ndk1::allocator<char> > >, std::__ndk1::monostate>::listen<GDWTMenuLayer::init()::$_1>(GDWTMenuLayer::init()::$_1&&) const::{lambda()#1}>(GDWTMenuLayer::init()::$_1&&, geode::Task<geode::Result<std::__ndk1::vector<Team, std::__ndk1::allocator<Team> >, std::__ndk1::basic_string<char, std::__ndk1::char_traits<char>, std::__ndk1::allocator<char> > >, std::__ndk1::monostate>::listen<GDWTMenuLayer::init()::$_1>(GDWTMenuLayer::init()::$_1&&) const::{lambda(auto:1 const&)#1}, geode::Task<geode::Result<std::__ndk1::vector<Team, std::__ndk1::allocator<Team> >, std::__ndk1::basic_string<char, std::__ndk1::char_traits<char>, std::__ndk1::allocator<char> > >, std::__ndk1::monostate>::listen<GDWTMenuLayer::init()::$_1>(GDWTMenuLayer::init()::$_1&&) const::{lambda()#1}&&) const::{lambda(geode::Task<geode::Result<std::__ndk1::vector<Team, std::__ndk1::allocator<Team> >, std::__ndk1::basic_string<char, std::__ndk1::char_traits<char>, std::__ndk1::allocator<char> > >, std::__ndk1::monostate>::Event*)#1}::operator()(geode::Task<geode::Result<std::__ndk1::vector<Team, std::__ndk1::allocator<Team> >, std::__ndk1::basic_string<char, std::__ndk1::char_traits<char>, std::__ndk1::allocator<char> > >, std::__ndk1::monostate>::Event*)::{lambda()#1}, std::__ndk1::allocator<geode::Task<geode::Result<std::__ndk1::vector<Team, std::__ndk1::allocator<Team> >, std::__ndk1::basic_string<char, std::__ndk1::char_traits<char>, std::__ndk1::allocator<char> > >, std::__ndk1::monostate>::listen<GDWTMenuLayer::init()::$_1, geode::Task<geode::Result<std::__ndk1::vector<Team, std::__ndk1::allocator<Team> >, std::__ndk1::basic_string<char, std::__ndk1::char_traits<char>, std::__ndk1::allocator<char> > >, std::__ndk1::monostate>::listen<GDWTMenuLayer::init()::$_1>(GDWTMenuLayer::init()::$_1&&) const::{lambda(auto:1 const&)#1}, geode::Task<geode::Result<std::__ndk1::vector<Team, std::__ndk1::allocator<Team> >, std::__ndk1::basic_string<char, std::__ndk1::char_traits<char>, std::__ndk1::allocator<char> > >, std::__ndk1::monostate>::listen<GDWTMenuLayer::init()::$_1>(GDWTMenuLayer::init()::$_1&&) const::{lambda()#1}>(GDWTMenuLayer::init()::$_1&&, geode::Task<geode::Result<std::__ndk1::vector<Team, std::__ndk1::allocator<Team> >, std::__ndk1::basic_string<char, std::__ndk1::char_traits<char>, std::__ndk1::allocator<char> > >, std::__ndk1::monostate>::listen<GDWTMenuLayer::init()::$_1>(GDWTMenuLayer::init()::$_1&&) const::{lambda(auto:1 const&)#1}, geode::Task<geode::Result<std::__ndk1::vector<Team, std::__ndk1::allocator<Team> >, std::__ndk1::basic_string<char, std::__ndk1::char_traits<char>, std::__ndk1::allocator<char> > >, std::__ndk1::monostate>::listen<GDWTMenuLayer::init()::$_1>(GDWTMenuLayer::init()::$_1&&) const::{lambda()#1}&&) const::{lambda(geode::Task<geode::Result<std::__ndk1::vector<Team, std::__ndk1::allocator<Team> >, std::__ndk1::basic_string<char, std::__ndk1::char_traits<char>, std::__ndk1::allocator<char> > >, std::__ndk1::monostate>::Event*)#1}::operator()(geode::Task<geode::Result<std::__ndk1::vector<Team, std::__ndk1::allocator<Team> >, std::__ndk1::basic_string<char, std::__ndk1::char_traits<char>, std::__ndk1::allocator<char> > >, std::__ndk1::monostate>::Event*)::{lambda()#1}>, void ()>::target_type() const
PUBLIC 7e138 0 geode::Task<geode::Result<std::__ndk1::vector<Match_s, std::__ndk1::allocator<Match_s> >, std::__ndk1::basic_string<char, std::__ndk1::char_traits<char>, std::__ndk1::allocator<char> > >, std::__ndk1::monostate>::setListener(geode::EventListenerProtocol*)
PUBLIC 7e354 0 geode::EventListener<geode::Task<geode::Result<std::__ndk1::vector<Match_s, std::__ndk1::allocator<Match_s> >, std::__ndk1::basic_string<char, std::__ndk1::char_traits<char>, std::__ndk1::allocator<char> > >, std::__ndk1::monostate> >::getPool() const
PUBLIC 7e358 0 geode::EventListener<geode::Task<geode::Result<std::__ndk1::vector<Match_s, std::__ndk1::allocator<Match_s> >, std::__ndk1::basic_string<char, std::__ndk1::char_traits<char>, std::__ndk1::allocator<char> > >, std::__ndk1::monostate> >::handle(geode::Event*)
PUBLIC 7e524 0 geode::EventListener<geode::Task<geode::Result<std::__ndk1::vector<Match_s, std::__ndk1::allocator<Match_s> >, std::__ndk1::basic_string<char, std::__ndk1::char_traits<char>, std::__ndk1::allocator<char> > >, std::__ndk1::monostate> >::~EventListener()
PUBLIC 7e5c0 0 geode::EventListener<geode::Task<geode::Result<std::__ndk1::vector<Match_s, std::__ndk1::allocator<Match_s> >, std::__ndk1::basic_string<char, std::__ndk1::char_traits<char>, std::__ndk1::allocator<char> > >, std::__ndk1::monostate> >::~EventListener()
PUBLIC 7e664 0 geode::Task<geode::Result<std::__ndk1::vector<Match_s, std::__ndk1::allocator<Match_s> >, std::__ndk1::basic_string<char, std::__ndk1::char_traits<char>, std::__ndk1::allocator<char> > >, std::__ndk1::monostate>::setListener(geode::EventListenerProtocol*)::{lambda()#1}::~{lambda()#1}()
PUBLIC 7e6b4 0 geode::Task<geode::Result<std::__ndk1::vector<Match_s, std::__ndk1::allocator<Match_s> >, std::__ndk1::basic_string<char, std::__ndk1::char_traits<char>, std::__ndk1::allocator<char> > >, std::__ndk1::monostate>::setListener(geode::EventListenerProtocol*)::{lambda()#2}::~{lambda()#2}()
PUBLIC 7e704 0 std::__ndk1::__function::__func<geode::Task<geode::Result<std::__ndk1::vector<Match_s, std::__ndk1::allocator<Match_s> >, std::__ndk1::basic_string<char, std::__ndk1::char_traits<char>, std::__ndk1::allocator<char> > >, std::__ndk1::monostate>::setListener(geode::EventListenerProtocol*)::{lambda()#1}, std::__ndk1::allocator<geode::Task<geode::Result<std::__ndk1::vector<Match_s, std::__ndk1::allocator<Match_s> >, std::__ndk1::basic_string<char, std::__ndk1::char_traits<char>, std::__ndk1::allocator<char> > >, std::__ndk1::monostate>::setListener(geode::EventListenerProtocol*)::{lambda()#1}>, void ()>::~__func()
PUBLIC 7e760 0 std::__ndk1::__function::__func<geode::Task<geode::Result<std::__ndk1::vector<Match_s, std::__ndk1::allocator<Match_s> >, std::__ndk1::basic_string<char, std::__ndk1::char_traits<char>, std::__ndk1::allocator<char> > >, std::__ndk1::monostate>::setListener(geode::EventListenerProtocol*)::{lambda()#1}, std::__ndk1::allocator<geode::Task<geode::Result<std::__ndk1::vector<Match_s, std::__ndk1::allocator<Match_s> >, std::__ndk1::basic_string<char, std::__ndk1::char_traits<char>, std::__ndk1::allocator<char> > >, std::__ndk1::monostate>::setListener(geode::EventListenerProtocol*)::{lambda()#1}>, void ()>::~__func()
PUBLIC 7e7cc 0 std::__ndk1::__function::__func<geode::Task<geode::Result<std::__ndk1::vector<Match_s, std::__ndk1::allocator<Match_s> >, std::__ndk1::basic_string<char, std::__ndk1::char_traits<char>, std::__ndk1::allocator<char> > >, std::__ndk1::monostate>::setListener(geode::EventListenerProtocol*)::{lambda()#1}, std::__ndk1::allocator<geode::Task<geode::Result<std::__ndk1::vector<Match_s, std::__ndk1::allocator<Match_s> >, std::__ndk1::basic_string<char, std::__ndk1::char_traits<char>, std::__ndk1::allocator<char> > >, std::__ndk1::monostate>::setListener(geode::EventListenerProtocol*)::{lambda()#1}>, void ()>::__clone() const
PUBLIC 7e824 0 std::__ndk1::__function::__func<geode::Task<geode::Result<std::__ndk1::vector<Match_s, std::__ndk1::allocator<Match_s> >, std::__ndk1::basic_string<char, std::__ndk1::char_traits<char>, std::__ndk1::allocator<char> > >, std::__ndk1::monostate>::setListener(geode::EventListenerProtocol*)::{lambda()#1}, std::__ndk1::allocator<geode::Task<geode::Result<std::__ndk1::vector<Match_s, std::__ndk1::allocator<Match_s> >, std::__ndk1::basic_string<char, std::__ndk1::char_traits<char>, std::__ndk1::allocator<char> > >, std::__ndk1::monostate>::setListener(geode::EventListenerProtocol*)::{lambda()#1}>, void ()>::__clone(std::__ndk1::__function::__base<void ()>*) const
PUBLIC 7e870 0 std::__ndk1::__function::__func<geode::Task<geode::Result<std::__ndk1::vector<Match_s, std::__ndk1::allocator<Match_s> >, std::__ndk1::basic_string<char, std::__ndk1::char_traits<char>, std::__ndk1::allocator<char> > >, std::__ndk1::monostate>::setListener(geode::EventListenerProtocol*)::{lambda()#1}, std::__ndk1::allocator<geode::Task<geode::Result<std::__ndk1::vector<Match_s, std::__ndk1::allocator<Match_s> >, std::__ndk1::basic_string<char, std::__ndk1::char_traits<char>, std::__ndk1::allocator<char> > >, std::__ndk1::monostate>::setListener(geode::EventListenerProtocol*)::{lambda()#1}>, void ()>::destroy()
PUBLIC 7e8c0 0 std::__ndk1::__function::__func<geode::Task<geode::Result<std::__ndk1::vector<Match_s, std::__ndk1::allocator<Match_s> >, std::__ndk1::basic_string<char, std::__ndk1::char_traits<char>, std::__ndk1::allocator<char> > >, std::__ndk1::monostate>::setListener(geode::EventListenerProtocol*)::{lambda()#1}, std::__ndk1::allocator<geode::Task<geode::Result<std::__ndk1::vector<Match_s, std::__ndk1::allocator<Match_s> >, std::__ndk1::basic_string<char, std::__ndk1::char_traits<char>, std::__ndk1::allocator<char> > >, std::__ndk1::monostate>::setListener(geode::EventListenerProtocol*)::{lambda()#1}>, void ()>::destroy_deallocate()
PUBLIC 7e920 0 std::__ndk1::__function::__func<geode::Task<geode::Result<std::__ndk1::vector<Match_s, std::__ndk1::allocator<Match_s> >, std::__ndk1::basic_string<char, std::__ndk1::char_traits<char>, std::__ndk1::allocator<char> > >, std::__ndk1::monostate>::setListener(geode::EventListenerProtocol*)::{lambda()#1}, std::__ndk1::allocator<geode::Task<geode::Result<std::__ndk1::vector<Match_s, std::__ndk1::allocator<Match_s> >, std::__ndk1::basic_string<char, std::__ndk1::char_traits<char>, std::__ndk1::allocator<char> > >, std::__ndk1::monostate>::setListener(geode::EventListenerProtocol*)::{lambda()#1}>, void ()>::operator()()
PUBLIC 7e928 0 std::__ndk1::__function::__func<geode::Task<geode::Result<std::__ndk1::vector<Match_s, std::__ndk1::allocator<Match_s> >, std::__ndk1::basic_string<char, std::__ndk1::char_traits<char>, std::__ndk1::allocator<char> > >, std::__ndk1::monostate>::setListener(geode::EventListenerProtocol*)::{lambda()#1}, std::__ndk1::allocator<geode::Task<geode::Result<std::__ndk1::vector<Match_s, std::__ndk1::allocator<Match_s> >, std::__ndk1::basic_string<char, std::__ndk1::char_traits<char>, std::__ndk1::allocator<char> > >, std::__ndk1::monostate>::setListener(geode::EventListenerProtocol*)::{lambda()#1}>, void ()>::target(std::type_info const&) const
PUBLIC 7e944 0 std::__ndk1::__function::__func<geode::Task<geode::Result<std::__ndk1::vector<Match_s, std::__ndk1::allocator<Match_s> >, std::__ndk1::basic_string<char, std::__ndk1::char_traits<char>, std::__ndk1::allocator<char> > >, std::__ndk1::monostate>::setListener(geode::EventListenerProtocol*)::{lambda()#1}, std::__ndk1::allocator<geode::Task<geode::Result<std::__ndk1::vector<Match_s, std::__ndk1::allocator<Match_s> >, std::__ndk1::basic_string<char, std::__ndk1::char_traits<char>, std::__ndk1::allocator<char> > >, std::__ndk1::monostate>::setListener(geode::EventListenerProtocol*)::{lambda()#1}>, void ()>::target_type() const
PUBLIC 7e950 0 geode::Task<geode::Result<std::__ndk1::vector<Match_s, std::__ndk1::allocator<Match_s> >, std::__ndk1::basic_string<char, std::__ndk1::char_traits<char>, std::__ndk1::allocator<char> > >, std::__ndk1::monostate>::setListener(geode::EventListenerProtocol*)::{lambda()#1}::operator()() const
PUBLIC 7eb20 0 geode::Task<geode::Result<std::__ndk1::vector<Match_s, std::__ndk1::allocator<Match_s> >, std::__ndk1::basic_string<char, std::__ndk1::char_traits<char>, std::__ndk1::allocator<char> > >, std::__ndk1::monostate>::Event::~Event()
PUBLIC 7eb80 0 geode::Task<geode::Result<std::__ndk1::vector<Match_s, std::__ndk1::allocator<Match_s> >, std::__ndk1::basic_string<char, std::__ndk1::char_traits<char>, std::__ndk1::allocator<char> > >, std::__ndk1::monostate>::Event::~Event()
PUBLIC 7ebf0 0 std::__ndk1::__function::__func<geode::Task<geode::Result<std::__ndk1::vector<Match_s, std::__ndk1::allocator<Match_s> >, std::__ndk1::basic_string<char, std::__ndk1::char_traits<char>, std::__ndk1::allocator<char> > >, std::__ndk1::monostate>::setListener(geode::EventListenerProtocol*)::{lambda()#2}, std::__ndk1::allocator<geode::Task<geode::Result<std::__ndk1::vector<Match_s, std::__ndk1::allocator<Match_s> >, std::__ndk1::basic_string<char, std::__ndk1::char_traits<char>, std::__ndk1::allocator<char> > >, std::__ndk1::monostate>::setListener(geode::EventListenerProtocol*)::{lambda()#2}>, void ()>::~__func()
PUBLIC 7ec4c 0 std::__ndk1::__function::__func<geode::Task<geode::Result<std::__ndk1::vector<Match_s, std::__ndk1::allocator<Match_s> >, std::__ndk1::basic_string<char, std::__ndk1::char_traits<char>, std::__ndk1::allocator<char> > >, std::__ndk1::monostate>::setListener(geode::EventListenerProtocol*)::{lambda()#2}, std::__ndk1::allocator<geode::Task<geode::Result<std::__ndk1::vector<Match_s, std::__ndk1::allocator<Match_s> >, std::__ndk1::basic_string<char, std::__ndk1::char_traits<char>, std::__ndk1::allocator<char> > >, std::__ndk1::monostate>::setListener(geode::EventListenerProtocol*)::{lambda()#2}>, void ()>::~__func()
PUBLIC 7ecb8 0 std::__ndk1::__function::__func<geode::Task<geode::Result<std::__ndk1::vector<Match_s, std::__ndk1::allocator<Match_s> >, std::__ndk1::basic_string<char, std::__ndk1::char_traits<char>, std::__ndk1::allocator<char> > >, std::__ndk1::monostate>::setListener(geode::EventListenerProtocol*)::{lambda()#2}, std::__ndk1::allocator<geode::Task<geode::Result<std::__ndk1::vector<Match_s, std::__ndk1::allocator<Match_s> >, std::__ndk1::basic_string<char, std::__ndk1::char_traits<char>, std::__ndk1::allocator<char> > >, std::__ndk1::monostate>::setListener(geode::EventListenerProtocol*)::{lambda()#2}>, void ()>::__clone() const
PUBLIC 7ed10 0 std::__ndk1::__function::__func<geode::Task<geode::Result<std::__ndk1::vector<Match_s, std::__ndk1::allocator<Match_s> >, std::__ndk1::basic_string<char, std::__ndk1::char_traits<char>, std::__ndk1::allocator<char> > >, std::__ndk1::monostate>::setListener(geode::EventListenerProtocol*)::{lambda()#2}, std::__ndk1::allocator<geode::Task<geode::Result<std::__ndk1::vector<Match_s, std::__ndk1::allocator<Match_s> >, std::__ndk1::basic_string<char, std::__ndk1::char_traits<char>, std::__ndk1::allocator<char> > >, std::__ndk1::monostate>::setListener(geode::EventListenerProtocol*)::{lambda()#2}>, void ()>::__clone(std::__ndk1::__function::__base<void ()>*) const
PUBLIC 7ed5c 0 std::__ndk1::__function::__func<geode::Task<geode::Result<std::__ndk1::vector<Match_s, std::__ndk1::allocator<Match_s> >, std::__ndk1::basic_string<char, std::__ndk1::char_traits<char>, std::__ndk1::allocator<char> > >, std::__ndk1::monostate>::setListener(geode::EventListenerProtocol*)::{lambda()#2}, std::__ndk1::allocator<geode::Task<geode::Result<std::__ndk1::vector<Match_s, std::__ndk1::allocator<Match_s> >, std::__ndk1::basic_string<char, std::__ndk1::char_traits<char>, std::__ndk1::allocator<char> > >, std::__ndk1::monostate>::setListener(geode::EventListenerProtocol*)::{lambda()#2}>, void ()>::destroy()
PUBLIC 7edac 0 std::__ndk1::__function::__func<geode::Task<geode::Result<std::__ndk1::vector<Match_s, std::__ndk1::allocator<Match_s> >, std::__ndk1::basic_string<char, std::__ndk1::char_traits<char>, std::__ndk1::allocator<char> > >, std::__ndk1::monostate>::setListener(geode::EventListenerProtocol*)::{lambda()#2}, std::__ndk1::allocator<geode::Task<geode::Result<std::__ndk1::vector<Match_s, std::__ndk1::allocator<Match_s> >, std::__ndk1::basic_string<char, std::__ndk1::char_traits<char>, std::__ndk1::allocator<char> > >, std::__ndk1::monostate>::setListener(geode::EventListenerProtocol*)::{lambda()#2}>, void ()>::destroy_deallocate()
PUBLIC 7ee0c 0 std::__ndk1::__function::__func<geode::Task<geode::Result<std::__ndk1::vector<Match_s, std::__ndk1::allocator<Match_s> >, std::__ndk1::basic_string<char, std::__ndk1::char_traits<char>, std::__ndk1::allocator<char> > >, std::__ndk1::monostate>::setListener(geode::EventListenerProtocol*)::{lambda()#2}, std::__ndk1::allocator<geode::Task<geode::Result<std::__ndk1::vector<Match_s, std::__ndk1::allocator<Match_s> >, std::__ndk1::basic_string<char, std::__ndk1::char_traits<char>, std::__ndk1::allocator<char> > >, std::__ndk1::monostate>::setListener(geode::EventListenerProtocol*)::{lambda()#2}>, void ()>::operator()()
PUBLIC 7ee14 0 std::__ndk1::__function::__func<geode::Task<geode::Result<std::__ndk1::vector<Match_s, std::__ndk1::allocator<Match_s> >, std::__ndk1::basic_string<char, std::__ndk1::char_traits<char>, std::__ndk1::allocator<char> > >, std::__ndk1::monostate>::setListener(geode::EventListenerProtocol*)::{lambda()#2}, std::__ndk1::allocator<geode::Task<geode::Result<std::__ndk1::vector<Match_s, std::__ndk1::allocator<Match_s> >, std::__ndk1::basic_string<char, std::__ndk1::char_traits<char>, std::__ndk1::allocator<char> > >, std::__ndk1::monostate>::setListener(geode::EventListenerProtocol*)::{lambda()#2}>, void ()>::target(std::type_info const&) const
PUBLIC 7ee30 0 std::__ndk1::__function::__func<geode::Task<geode::Result<std::__ndk1::vector<Match_s, std::__ndk1::allocator<Match_s> >, std::__ndk1::basic_string<char, std::__ndk1::char_traits<char>, std::__ndk1::allocator<char> > >, std::__ndk1::monostate>::setListener(geode::EventListenerProtocol*)::{lambda()#2}, std::__ndk1::allocator<geode::Task<geode::Result<std::__ndk1::vector<Match_s, std::__ndk1::allocator<Match_s> >, std::__ndk1::basic_string<char, std::__ndk1::char_traits<char>, std::__ndk1::allocator<char> > >, std::__ndk1::monostate>::setListener(geode::EventListenerProtocol*)::{lambda()#2}>, void ()>::target_type() const
PUBLIC 7ee3c 0 geode::Task<geode::Result<std::__ndk1::vector<Match_s, std::__ndk1::allocator<Match_s> >, std::__ndk1::basic_string<char, std::__ndk1::char_traits<char>, std::__ndk1::allocator<char> > >, std::__ndk1::monostate>::setListener(geode::EventListenerProtocol*)::{lambda()#2}::operator()() const
PUBLIC 7f000 0 std::__ndk1::__function::__value_func<void (geode::Task<geode::Result<std::__ndk1::vector<Match_s, std::__ndk1::allocator<Match_s> >, std::__ndk1::basic_string<char, std::__ndk1::char_traits<char>, std::__ndk1::allocator<char> > >, std::__ndk1::monostate>::Event*)>::swap[abi:ne180000](std::__ndk1::__function::__value_func<void (geode::Task<geode::Result<std::__ndk1::vector<Match_s, std::__ndk1::allocator<Match_s> >, std::__ndk1::basic_string<char, std::__ndk1::char_traits<char>, std::__ndk1::allocator<char> > >, std::__ndk1::monostate>::Event*)>&)
PUBLIC 7f198 0 std::__ndk1::__function::__base<void (geode::Task<geode::Result<std::__ndk1::vector<Match_s, std::__ndk1::allocator<Match_s> >, std::__ndk1::basic_string<char, std::__ndk1::char_traits<char>, std::__ndk1::allocator<char> > >, std::__ndk1::monostate>::Event*)>::~__base()
PUBLIC 7f19c 0 std::__ndk1::__function::__func<geode::Task<geode::Result<std::__ndk1::vector<Match_s, std::__ndk1::allocator<Match_s> >, std::__ndk1::basic_string<char, std::__ndk1::char_traits<char>, std::__ndk1::allocator<char> > >, std::__ndk1::monostate>::listen<GDWTMenuLayer::init()::$_2, geode::Task<geode::Result<std::__ndk1::vector<Match_s, std::__ndk1::allocator<Match_s> >, std::__ndk1::basic_string<char, std::__ndk1::char_traits<char>, std::__ndk1::allocator<char> > >, std::__ndk1::monostate>::listen<GDWTMenuLayer::init()::$_2>(GDWTMenuLayer::init()::$_2&&) const::{lambda(auto:1 const&)#1}, geode::Task<geode::Result<std::__ndk1::vector<Match_s, std::__ndk1::allocator<Match_s> >, std::__ndk1::basic_string<char, std::__ndk1::char_traits<char>, std::__ndk1::allocator<char> > >, std::__ndk1::monostate>::listen<GDWTMenuLayer::init()::$_2>(GDWTMenuLayer::init()::$_2&&) const::{lambda()#1}>(GDWTMenuLayer::init()::$_2&&, geode::Task<geode::Result<std::__ndk1::vector<Match_s, std::__ndk1::allocator<Match_s> >, std::__ndk1::basic_string<char, std::__ndk1::char_traits<char>, std::__ndk1::allocator<char> > >, std::__ndk1::monostate>::listen<GDWTMenuLayer::init()::$_2>(GDWTMenuLayer::init()::$_2&&) const::{lambda(auto:1 const&)#1}, geode::Task<geode::Result<std::__ndk1::vector<Match_s, std::__ndk1::allocator<Match_s> >, std::__ndk1::basic_string<char, std::__ndk1::char_traits<char>, std::__ndk1::allocator<char> > >, std::__ndk1::monostate>::listen<GDWTMenuLayer::init()::$_2>(GDWTMenuLayer::init()::$_2&&) const::{lambda()#1}&&) const::{lambda(geode::Task<geode::Result<std::__ndk1::vector<Match_s, std::__ndk1::allocator<Match_s> >, std::__ndk1::basic_string<char, std::__ndk1::char_traits<char>, std::__ndk1::allocator<char> > >, std::__ndk1::monostate>::Event*)#1}, std::__ndk1::allocator<geode::Task<geode::Result<std::__ndk1::vector<Match_s, std::__ndk1::allocator<Match_s> >, std::__ndk1::basic_string<char, std::__ndk1::char_traits<char>, std::__ndk1::allocator<char> > >, std::__ndk1::monostate>::listen<GDWTMenuLayer::init()::$_2, geode::Task<geode::Result<std::__ndk1::vector<Match_s, std::__ndk1::allocator<Match_s> >, std::__ndk1::basic_string<char, std::__ndk1::char_traits<char>, std::__ndk1::allocator<char> > >, std::__ndk1::monostate>::listen<GDWTMenuLayer::init()::$_2>(GDWTMenuLayer::init()::$_2&&) const::{lambda(auto:1 const&)#1}, geode::Task<geode::Result<std::__ndk1::vector<Match_s, std::__ndk1::allocator<Match_s> >, std::__ndk1::basic_string<char, std::__ndk1::char_traits<char>, std::__ndk1::allocator<char> > >, std::__ndk1::monostate>::listen<GDWTMenuLayer::init()::$_2>(GDWTMenuLayer::init()::$_2&&) const::{lambda()#1}>(GDWTMenuLayer::init()::$_2&&, geode::Task<geode::Result<std::__ndk1::vector<Match_s, std::__ndk1::allocator<Match_s> >, std::__ndk1::basic_string<char, std::__ndk1::char_traits<char>, std::__ndk1::allocator<char> > >, std::__ndk1::monostate>::listen<GDWTMenuLayer::init()::$_2>(GDWTMenuLayer::init()::$_2&&) const::{lambda(auto:1 const&)#1}, geode::Task<geode::Result<std::__ndk1::vector<Match_s, std::__ndk1::allocator<Match_s> >, std::__ndk1::basic_string<char, std::__ndk1::char_traits<char>, std::__ndk1::allocator<char> > >, std::__ndk1::monostate>::listen<GDWTMenuLayer::init()::$_2>(GDWTMenuLayer::init()::$_2&&) const::{lambda()#1}&&) const::{lambda(geode::Task<geode::Result<std::__ndk1::vector<Match_s, std::__ndk1::allocator<Match_s> >, std::__ndk1::basic_string<char, std::__ndk1::char_traits<char>, std::__ndk1::allocator<char> > >, std::__ndk1::monostate>::Event*)#1}>, void (geode::Task<geode::Result<std::__ndk1::vector<Match_s, std::__ndk1::allocator<Match_s> >, std::__ndk1::basic_string<char, std::__ndk1::char_traits<char>, std::__ndk1::allocator<char> > >, std::__ndk1::monostate>::Event*)>::~__func()
PUBLIC 7f1a0 0 std::__ndk1::__function::__func<geode::Task<geode::Result<std::__ndk1::vector<Match_s, std::__ndk1::allocator<Match_s> >, std::__ndk1::basic_string<char, std::__ndk1::char_traits<char>, std::__ndk1::allocator<char> > >, std::__ndk1::monostate>::listen<GDWTMenuLayer::init()::$_2, geode::Task<geode::Result<std::__ndk1::vector<Match_s, std::__ndk1::allocator<Match_s> >, std::__ndk1::basic_string<char, std::__ndk1::char_traits<char>, std::__ndk1::allocator<char> > >, std::__ndk1::monostate>::listen<GDWTMenuLayer::init()::$_2>(GDWTMenuLayer::init()::$_2&&) const::{lambda(auto:1 const&)#1}, geode::Task<geode::Result<std::__ndk1::vector<Match_s, std::__ndk1::allocator<Match_s> >, std::__ndk1::basic_string<char, std::__ndk1::char_traits<char>, std::__ndk1::allocator<char> > >, std::__ndk1::monostate>::listen<GDWTMenuLayer::init()::$_2>(GDWTMenuLayer::init()::$_2&&) const::{lambda()#1}>(GDWTMenuLayer::init()::$_2&&, geode::Task<geode::Result<std::__ndk1::vector<Match_s, std::__ndk1::allocator<Match_s> >, std::__ndk1::basic_string<char, std::__ndk1::char_traits<char>, std::__ndk1::allocator<char> > >, std::__ndk1::monostate>::listen<GDWTMenuLayer::init()::$_2>(GDWTMenuLayer::init()::$_2&&) const::{lambda(auto:1 const&)#1}, geode::Task<geode::Result<std::__ndk1::vector<Match_s, std::__ndk1::allocator<Match_s> >, std::__ndk1::basic_string<char, std::__ndk1::char_traits<char>, std::__ndk1::allocator<char> > >, std::__ndk1::monostate>::listen<GDWTMenuLayer::init()::$_2>(GDWTMenuLayer::init()::$_2&&) const::{lambda()#1}&&) const::{lambda(geode::Task<geode::Result<std::__ndk1::vector<Match_s, std::__ndk1::allocator<Match_s> >, std::__ndk1::basic_string<char, std::__ndk1::char_traits<char>, std::__ndk1::allocator<char> > >, std::__ndk1::monostate>::Event*)#1}, std::__ndk1::allocator<geode::Task<geode::Result<std::__ndk1::vector<Match_s, std::__ndk1::allocator<Match_s> >, std::__ndk1::basic_string<char, std::__ndk1::char_traits<char>, std::__ndk1::allocator<char> > >, std::__ndk1::monostate>::listen<GDWTMenuLayer::init()::$_2, geode::Task<geode::Result<std::__ndk1::vector<Match_s, std::__ndk1::allocator<Match_s> >, std::__ndk1::basic_string<char, std::__ndk1::char_traits<char>, std::__ndk1::allocator<char> > >, std::__ndk1::monostate>::listen<GDWTMenuLayer::init()::$_2>(GDWTMenuLayer::init()::$_2&&) const::{lambda(auto:1 const&)#1}, geode::Task<geode::Result<std::__ndk1::vector<Match_s, std::__ndk1::allocator<Match_s> >, std::__ndk1::basic_string<char, std::__ndk1::char_traits<char>, std::__ndk1::allocator<char> > >, std::__ndk1::monostate>::listen<GDWTMenuLayer::init()::$_2>(GDWTMenuLayer::init()::$_2&&) const::{lambda()#1}>(GDWTMenuLayer::init()::$_2&&, geode::Task<geode::Result<std::__ndk1::vector<Match_s, std::__ndk1::allocator<Match_s> >, std::__ndk1::basic_string<char, std::__ndk1::char_traits<char>, std::__ndk1::allocator<char> > >, std::__ndk1::monostate>::listen<GDWTMenuLayer::init()::$_2>(GDWTMenuLayer::init()::$_2&&) const::{lambda(auto:1 const&)#1}, geode::Task<geode::Result<std::__ndk1::vector<Match_s, std::__ndk1::allocator<Match_s> >, std::__ndk1::basic_string<char, std::__ndk1::char_traits<char>, std::__ndk1::allocator<char> > >, std::__ndk1::monostate>::listen<GDWTMenuLayer::init()::$_2>(GDWTMenuLayer::init()::$_2&&) const::{lambda()#1}&&) const::{lambda(geode::Task<geode::Result<std::__ndk1::vector<Match_s, std::__ndk1::allocator<Match_s> >, std::__ndk1::basic_string<char, std::__ndk1::char_traits<char>, std::__ndk1::allocator<char> > >, std::__ndk1::monostate>::Event*)#1}>, void (geode::Task<geode::Result<std::__ndk1::vector<Match_s, std::__ndk1::allocator<Match_s> >, std::__ndk1::basic_string<char, std::__ndk1::char_traits<char>, std::__ndk1::allocator<char> > >, std::__ndk1::monostate>::Event*)>::__clone() const
PUBLIC 7f1d8 0 std::__ndk1::__function::__func<geode::Task<geode::Result<std::__ndk1::vector<Match_s, std::__ndk1::allocator<Match_s> >, std::__ndk1::basic_string<char, std::__ndk1::char_traits<char>, std::__ndk1::allocator<char> > >, std::__ndk1::monostate>::listen<GDWTMenuLayer::init()::$_2, geode::Task<geode::Result<std::__ndk1::vector<Match_s, std::__ndk1::allocator<Match_s> >, std::__ndk1::basic_string<char, std::__ndk1::char_traits<char>, std::__ndk1::allocator<char> > >, std::__ndk1::monostate>::listen<GDWTMenuLayer::init()::$_2>(GDWTMenuLayer::init()::$_2&&) const::{lambda(auto:1 const&)#1}, geode::Task<geode::Result<std::__ndk1::vector<Match_s, std::__ndk1::allocator<Match_s> >, std::__ndk1::basic_string<char, std::__ndk1::char_traits<char>, std::__ndk1::allocator<char> > >, std::__ndk1::monostate>::listen<GDWTMenuLayer::init()::$_2>(GDWTMenuLayer::init()::$_2&&) const::{lambda()#1}>(GDWTMenuLayer::init()::$_2&&, geode::Task<geode::Result<std::__ndk1::vector<Match_s, std::__ndk1::allocator<Match_s> >, std::__ndk1::basic_string<char, std::__ndk1::char_traits<char>, std::__ndk1::allocator<char> > >, std::__ndk1::monostate>::listen<GDWTMenuLayer::init()::$_2>(GDWTMenuLayer::init()::$_2&&) const::{lambda(auto:1 const&)#1}, geode::Task<geode::Result<std::__ndk1::vector<Match_s, std::__ndk1::allocator<Match_s> >, std::__ndk1::basic_string<char, std::__ndk1::char_traits<char>, std::__ndk1::allocator<char> > >, std::__ndk1::monostate>::listen<GDWTMenuLayer::init()::$_2>(GDWTMenuLayer::init()::$_2&&) const::{lambda()#1}&&) const::{lambda(geode::Task<geode::Result<std::__ndk1::vector<Match_s, std::__ndk1::allocator<Match_s> >, std::__ndk1::basic_string<char, std::__ndk1::char_traits<char>, std::__ndk1::allocator<char> > >, std::__ndk1::monostate>::Event*)#1}, std::__ndk1::allocator<geode::Task<geode::Result<std::__ndk1::vector<Match_s, std::__ndk1::allocator<Match_s> >, std::__ndk1::basic_string<char, std::__ndk1::char_traits<char>, std::__ndk1::allocator<char> > >, std::__ndk1::monostate>::listen<GDWTMenuLayer::init()::$_2, geode::Task<geode::Result<std::__ndk1::vector<Match_s, std::__ndk1::allocator<Match_s> >, std::__ndk1::basic_string<char, std::__ndk1::char_traits<char>, std::__ndk1::allocator<char> > >, std::__ndk1::monostate>::listen<GDWTMenuLayer::init()::$_2>(GDWTMenuLayer::init()::$_2&&) const::{lambda(auto:1 const&)#1}, geode::Task<geode::Result<std::__ndk1::vector<Match_s, std::__ndk1::allocator<Match_s> >, std::__ndk1::basic_string<char, std::__ndk1::char_traits<char>, std::__ndk1::allocator<char> > >, std::__ndk1::monostate>::listen<GDWTMenuLayer::init()::$_2>(GDWTMenuLayer::init()::$_2&&) const::{lambda()#1}>(GDWTMenuLayer::init()::$_2&&, geode::Task<geode::Result<std::__ndk1::vector<Match_s, std::__ndk1::allocator<Match_s> >, std::__ndk1::basic_string<char, std::__ndk1::char_traits<char>, std::__ndk1::allocator<char> > >, std::__ndk1::monostate>::listen<GDWTMenuLayer::init()::$_2>(GDWTMenuLayer::init()::$_2&&) const::{lambda(auto:1 const&)#1}, geode::Task<geode::Result<std::__ndk1::vector<Match_s, std::__ndk1::allocator<Match_s> >, std::__ndk1::basic_string<char, std::__ndk1::char_traits<char>, std::__ndk1::allocator<char> > >, std::__ndk1::monostate>::listen<GDWTMenuLayer::init()::$_2>(GDWTMenuLayer::init()::$_2&&) const::{lambda()#1}&&) const::{lambda(geode::Task<geode::Result<std::__ndk1::vector<Match_s, std::__ndk1::allocator<Match_s> >, std::__ndk1::basic_string<char, std::__ndk1::char_traits<char>, std::__ndk1::allocator<char> > >, std::__ndk1::monostate>::Event*)#1}>, void (geode::Task<geode::Result<std::__ndk1::vector<Match_s, std::__ndk1::allocator<Match_s> >, std::__ndk1::basic_string<char, std::__ndk1::char_traits<char>, std::__ndk1::allocator<char> > >, std::__ndk1::monostate>::Event*)>::__clone(std::__ndk1::__function::__base<void (geode::Task<geode::Result<std::__ndk1::vector<Match_s, std::__ndk1::allocator<Match_s> >, std::__ndk1::basic_string<char, std::__ndk1::char_traits<char>, std::__ndk1::allocator<char> > >, std::__ndk1::monostate>::Event*)>*) const
PUBLIC 7f1f0 0 std::__ndk1::__function::__func<geode::Task<geode::Result<std::__ndk1::vector<Match_s, std::__ndk1::allocator<Match_s> >, std::__ndk1::basic_string<char, std::__ndk1::char_traits<char>, std::__ndk1::allocator<char> > >, std::__ndk1::monostate>::listen<GDWTMenuLayer::init()::$_2, geode::Task<geode::Result<std::__ndk1::vector<Match_s, std::__ndk1::allocator<Match_s> >, std::__ndk1::basic_string<char, std::__ndk1::char_traits<char>, std::__ndk1::allocator<char> > >, std::__ndk1::monostate>::listen<GDWTMenuLayer::init()::$_2>(GDWTMenuLayer::init()::$_2&&) const::{lambda(auto:1 const&)#1}, geode::Task<geode::Result<std::__ndk1::vector<Match_s, std::__ndk1::allocator<Match_s> >, std::__ndk1::basic_string<char, std::__ndk1::char_traits<char>, std::__ndk1::allocator<char> > >, std::__ndk1::monostate>::listen<GDWTMenuLayer::init()::$_2>(GDWTMenuLayer::init()::$_2&&) const::{lambda()#1}>(GDWTMenuLayer::init()::$_2&&, geode::Task<geode::Result<std::__ndk1::vector<Match_s, std::__ndk1::allocator<Match_s> >, std::__ndk1::basic_string<char, std::__ndk1::char_traits<char>, std::__ndk1::allocator<char> > >, std::__ndk1::monostate>::listen<GDWTMenuLayer::init()::$_2>(GDWTMenuLayer::init()::$_2&&) const::{lambda(auto:1 const&)#1}, geode::Task<geode::Result<std::__ndk1::vector<Match_s, std::__ndk1::allocator<Match_s> >, std::__ndk1::basic_string<char, std::__ndk1::char_traits<char>, std::__ndk1::allocator<char> > >, std::__ndk1::monostate>::listen<GDWTMenuLayer::init()::$_2>(GDWTMenuLayer::init()::$_2&&) const::{lambda()#1}&&) const::{lambda(geode::Task<geode::Result<std::__ndk1::vector<Match_s, std::__ndk1::allocator<Match_s> >, std::__ndk1::basic_string<char, std::__ndk1::char_traits<char>, std::__ndk1::allocator<char> > >, std::__ndk1::monostate>::Event*)#1}, std::__ndk1::allocator<geode::Task<geode::Result<std::__ndk1::vector<Match_s, std::__ndk1::allocator<Match_s> >, std::__ndk1::basic_string<char, std::__ndk1::char_traits<char>, std::__ndk1::allocator<char> > >, std::__ndk1::monostate>::listen<GDWTMenuLayer::init()::$_2, geode::Task<geode::Result<std::__ndk1::vector<Match_s, std::__ndk1::allocator<Match_s> >, std::__ndk1::basic_string<char, std::__ndk1::char_traits<char>, std::__ndk1::allocator<char> > >, std::__ndk1::monostate>::listen<GDWTMenuLayer::init()::$_2>(GDWTMenuLayer::init()::$_2&&) const::{lambda(auto:1 const&)#1}, geode::Task<geode::Result<std::__ndk1::vector<Match_s, std::__ndk1::allocator<Match_s> >, std::__ndk1::basic_string<char, std::__ndk1::char_traits<char>, std::__ndk1::allocator<char> > >, std::__ndk1::monostate>::listen<GDWTMenuLayer::init()::$_2>(GDWTMenuLayer::init()::$_2&&) const::{lambda()#1}>(GDWTMenuLayer::init()::$_2&&, geode::Task<geode::Result<std::__ndk1::vector<Match_s, std::__ndk1::allocator<Match_s> >, std::__ndk1::basic_string<char, std::__ndk1::char_traits<char>, std::__ndk1::allocator<char> > >, std::__ndk1::monostate>::listen<GDWTMenuLayer::init()::$_2>(GDWTMenuLayer::init()::$_2&&) const::{lambda(auto:1 const&)#1}, geode::Task<geode::Result<std::__ndk1::vector<Match_s, std::__ndk1::allocator<Match_s> >, std::__ndk1::basic_string<char, std::__ndk1::char_traits<char>, std::__ndk1::allocator<char> > >, std::__ndk1::monostate>::listen<GDWTMenuLayer::init()::$_2>(GDWTMenuLayer::init()::$_2&&) const::{lambda()#1}&&) const::{lambda(geode::Task<geode::Result<std::__ndk1::vector<Match_s, std::__ndk1::allocator<Match_s> >, std::__ndk1::basic_string<char, std::__ndk1::char_traits<char>, std::__ndk1::allocator<char> > >, std::__ndk1::monostate>::Event*)#1}>, void (geode::Task<geode::Result<std::__ndk1::vector<Match_s, std::__ndk1::allocator<Match_s> >, std::__ndk1::basic_string<char, std::__ndk1::char_traits<char>, std::__ndk1::allocator<char> > >, std::__ndk1::monostate>::Event*)>::destroy()
PUBLIC 7f1f4 0 std::__ndk1::__function::__func<geode::Task<geode::Result<std::__ndk1::vector<Match_s, std::__ndk1::allocator<Match_s> >, std::__ndk1::basic_string<char, std::__ndk1::char_traits<char>, std::__ndk1::allocator<char> > >, std::__ndk1::monostate>::listen<GDWTMenuLayer::init()::$_2, geode::Task<geode::Result<std::__ndk1::vector<Match_s, std::__ndk1::allocator<Match_s> >, std::__ndk1::basic_string<char, std::__ndk1::char_traits<char>, std::__ndk1::allocator<char> > >, std::__ndk1::monostate>::listen<GDWTMenuLayer::init()::$_2>(GDWTMenuLayer::init()::$_2&&) const::{lambda(auto:1 const&)#1}, geode::Task<geode::Result<std::__ndk1::vector<Match_s, std::__ndk1::allocator<Match_s> >, std::__ndk1::basic_string<char, std::__ndk1::char_traits<char>, std::__ndk1::allocator<char> > >, std::__ndk1::monostate>::listen<GDWTMenuLayer::init()::$_2>(GDWTMenuLayer::init()::$_2&&) const::{lambda()#1}>(GDWTMenuLayer::init()::$_2&&, geode::Task<geode::Result<std::__ndk1::vector<Match_s, std::__ndk1::allocator<Match_s> >, std::__ndk1::basic_string<char, std::__ndk1::char_traits<char>, std::__ndk1::allocator<char> > >, std::__ndk1::monostate>::listen<GDWTMenuLayer::init()::$_2>(GDWTMenuLayer::init()::$_2&&) const::{lambda(auto:1 const&)#1}, geode::Task<geode::Result<std::__ndk1::vector<Match_s, std::__ndk1::allocator<Match_s> >, std::__ndk1::basic_string<char, std::__ndk1::char_traits<char>, std::__ndk1::allocator<char> > >, std::__ndk1::monostate>::listen<GDWTMenuLayer::init()::$_2>(GDWTMenuLayer::init()::$_2&&) const::{lambda()#1}&&) const::{lambda(geode::Task<geode::Result<std::__ndk1::vector<Match_s, std::__ndk1::allocator<Match_s> >, std::__ndk1::basic_string<char, std::__ndk1::char_traits<char>, std::__ndk1::allocator<char> > >, std::__ndk1::monostate>::Event*)#1}, std::__ndk1::allocator<geode::Task<geode::Result<std::__ndk1::vector<Match_s, std::__ndk1::allocator<Match_s> >, std::__ndk1::basic_string<char, std::__ndk1::char_traits<char>, std::__ndk1::allocator<char> > >, std::__ndk1::monostate>::listen<GDWTMenuLayer::init()::$_2, geode::Task<geode::Result<std::__ndk1::vector<Match_s, std::__ndk1::allocator<Match_s> >, std::__ndk1::basic_string<char, std::__ndk1::char_traits<char>, std::__ndk1::allocator<char> > >, std::__ndk1::monostate>::listen<GDWTMenuLayer::init()::$_2>(GDWTMenuLayer::init()::$_2&&) const::{lambda(auto:1 const&)#1}, geode::Task<geode::Result<std::__ndk1::vector<Match_s, std::__ndk1::allocator<Match_s> >, std::__ndk1::basic_string<char, std::__ndk1::char_traits<char>, std::__ndk1::allocator<char> > >, std::__ndk1::monostate>::listen<GDWTMenuLayer::init()::$_2>(GDWTMenuLayer::init()::$_2&&) const::{lambda()#1}>(GDWTMenuLayer::init()::$_2&&, geode::Task<geode::Result<std::__ndk1::vector<Match_s, std::__ndk1::allocator<Match_s> >, std::__ndk1::basic_string<char, std::__ndk1::char_traits<char>, std::__ndk1::allocator<char> > >, std::__ndk1::monostate>::listen<GDWTMenuLayer::init()::$_2>(GDWTMenuLayer::init()::$_2&&) const::{lambda(auto:1 const&)#1}, geode::Task<geode::Result<std::__ndk1::vector<Match_s, std::__ndk1::allocator<Match_s> >, std::__ndk1::basic_string<char, std::__ndk1::char_traits<char>, std::__ndk1::allocator<char> > >, std::__ndk1::monostate>::listen<GDWTMenuLayer::init()::$_2>(GDWTMenuLayer::init()::$_2&&) const::{lambda()#1}&&) const::{lambda(geode::Task<geode::Result<std::__ndk1::vector<Match_s, std::__ndk1::allocator<Match_s> >, std::__ndk1::basic_string<char, std::__ndk1::char_traits<char>, std::__ndk1::allocator<char> > >, std::__ndk1::monostate>::Event*)#1}>, void (geode::Task<geode::Result<std::__ndk1::vector<Match_s, std::__ndk1::allocator<Match_s> >, std::__ndk1::basic_string<char, std::__ndk1::char_traits<char>, std::__ndk1::allocator<char> > >, std::__ndk1::monostate>::Event*)>::destroy_deallocate()
PUBLIC 7f1f8 0 std::__ndk1::__function::__func<geode::Task<geode::Result<std::__ndk1::vector<Match_s, std::__ndk1::allocator<Match_s> >, std::__ndk1::basic_string<char, std::__ndk1::char_traits<char>, std::__ndk1::allocator<char> > >, std::__ndk1::monostate>::listen<GDWTMenuLayer::init()::$_2, geode::Task<geode::Result<std::__ndk1::vector<Match_s, std::__ndk1::allocator<Match_s> >, std::__ndk1::basic_string<char, std::__ndk1::char_traits<char>, std::__ndk1::allocator<char> > >, std::__ndk1::monostate>::listen<GDWTMenuLayer::init()::$_2>(GDWTMenuLayer::init()::$_2&&) const::{lambda(auto:1 const&)#1}, geode::Task<geode::Result<std::__ndk1::vector<Match_s, std::__ndk1::allocator<Match_s> >, std::__ndk1::basic_string<char, std::__ndk1::char_traits<char>, std::__ndk1::allocator<char> > >, std::__ndk1::monostate>::listen<GDWTMenuLayer::init()::$_2>(GDWTMenuLayer::init()::$_2&&) const::{lambda()#1}>(GDWTMenuLayer::init()::$_2&&, geode::Task<geode::Result<std::__ndk1::vector<Match_s, std::__ndk1::allocator<Match_s> >, std::__ndk1::basic_string<char, std::__ndk1::char_traits<char>, std::__ndk1::allocator<char> > >, std::__ndk1::monostate>::listen<GDWTMenuLayer::init()::$_2>(GDWTMenuLayer::init()::$_2&&) const::{lambda(auto:1 const&)#1}, geode::Task<geode::Result<std::__ndk1::vector<Match_s, std::__ndk1::allocator<Match_s> >, std::__ndk1::basic_string<char, std::__ndk1::char_traits<char>, std::__ndk1::allocator<char> > >, std::__ndk1::monostate>::listen<GDWTMenuLayer::init()::$_2>(GDWTMenuLayer::init()::$_2&&) const::{lambda()#1}&&) const::{lambda(geode::Task<geode::Result<std::__ndk1::vector<Match_s, std::__ndk1::allocator<Match_s> >, std::__ndk1::basic_string<char, std::__ndk1::char_traits<char>, std::__ndk1::allocator<char> > >, std::__ndk1::monostate>::Event*)#1}, std::__ndk1::allocator<geode::Task<geode::Result<std::__ndk1::vector<Match_s, std::__ndk1::allocator<Match_s> >, std::__ndk1::basic_string<char, std::__ndk1::char_traits<char>, std::__ndk1::allocator<char> > >, std::__ndk1::monostate>::listen<GDWTMenuLayer::init()::$_2, geode::Task<geode::Result<std::__ndk1::vector<Match_s, std::__ndk1::allocator<Match_s> >, std::__ndk1::basic_string<char, std::__ndk1::char_traits<char>, std::__ndk1::allocator<char> > >, std::__ndk1::monostate>::listen<GDWTMenuLayer::init()::$_2>(GDWTMenuLayer::init()::$_2&&) const::{lambda(auto:1 const&)#1}, geode::Task<geode::Result<std::__ndk1::vector<Match_s, std::__ndk1::allocator<Match_s> >, std::__ndk1::basic_string<char, std::__ndk1::char_traits<char>, std::__ndk1::allocator<char> > >, std::__ndk1::monostate>::listen<GDWTMenuLayer::init()::$_2>(GDWTMenuLayer::init()::$_2&&) const::{lambda()#1}>(GDWTMenuLayer::init()::$_2&&, geode::Task<geode::Result<std::__ndk1::vector<Match_s, std::__ndk1::allocator<Match_s> >, std::__ndk1::basic_string<char, std::__ndk1::char_traits<char>, std::__ndk1::allocator<char> > >, std::__ndk1::monostate>::listen<GDWTMenuLayer::init()::$_2>(GDWTMenuLayer::init()::$_2&&) const::{lambda(auto:1 const&)#1}, geode::Task<geode::Result<std::__ndk1::vector<Match_s, std::__ndk1::allocator<Match_s> >, std::__ndk1::basic_string<char, std::__ndk1::char_traits<char>, std::__ndk1::allocator<char> > >, std::__ndk1::monostate>::listen<GDWTMenuLayer::init()::$_2>(GDWTMenuLayer::init()::$_2&&) const::{lambda()#1}&&) const::{lambda(geode::Task<geode::Result<std::__ndk1::vector<Match_s, std::__ndk1::allocator<Match_s> >, std::__ndk1::basic_string<char, std::__ndk1::char_traits<char>, std::__ndk1::allocator<char> > >, std::__ndk1::monostate>::Event*)#1}>, void (geode::Task<geode::Result<std::__ndk1::vector<Match_s, std::__ndk1::allocator<Match_s> >, std::__ndk1::basic_string<char, std::__ndk1::char_traits<char>, std::__ndk1::allocator<char> > >, std::__ndk1::monostate>::Event*)>::operator()(geode::Task<geode::Result<std::__ndk1::vector<Match_s, std::__ndk1::allocator<Match_s> >, std::__ndk1::basic_string<char, std::__ndk1::char_traits<char>, std::__ndk1::allocator<char> > >, std::__ndk1::monostate>::Event*&&)
PUBLIC 7f304 0 std::__ndk1::__function::__func<geode::Task<geode::Result<std::__ndk1::vector<Match_s, std::__ndk1::allocator<Match_s> >, std::__ndk1::basic_string<char, std::__ndk1::char_traits<char>, std::__ndk1::allocator<char> > >, std::__ndk1::monostate>::listen<GDWTMenuLayer::init()::$_2, geode::Task<geode::Result<std::__ndk1::vector<Match_s, std::__ndk1::allocator<Match_s> >, std::__ndk1::basic_string<char, std::__ndk1::char_traits<char>, std::__ndk1::allocator<char> > >, std::__ndk1::monostate>::listen<GDWTMenuLayer::init()::$_2>(GDWTMenuLayer::init()::$_2&&) const::{lambda(auto:1 const&)#1}, geode::Task<geode::Result<std::__ndk1::vector<Match_s, std::__ndk1::allocator<Match_s> >, std::__ndk1::basic_string<char, std::__ndk1::char_traits<char>, std::__ndk1::allocator<char> > >, std::__ndk1::monostate>::listen<GDWTMenuLayer::init()::$_2>(GDWTMenuLayer::init()::$_2&&) const::{lambda()#1}>(GDWTMenuLayer::init()::$_2&&, geode::Task<geode::Result<std::__ndk1::vector<Match_s, std::__ndk1::allocator<Match_s> >, std::__ndk1::basic_string<char, std::__ndk1::char_traits<char>, std::__ndk1::allocator<char> > >, std::__ndk1::monostate>::listen<GDWTMenuLayer::init()::$_2>(GDWTMenuLayer::init()::$_2&&) const::{lambda(auto:1 const&)#1}, geode::Task<geode::Result<std::__ndk1::vector<Match_s, std::__ndk1::allocator<Match_s> >, std::__ndk1::basic_string<char, std::__ndk1::char_traits<char>, std::__ndk1::allocator<char> > >, std::__ndk1::monostate>::listen<GDWTMenuLayer::init()::$_2>(GDWTMenuLayer::init()::$_2&&) const::{lambda()#1}&&) const::{lambda(geode::Task<geode::Result<std::__ndk1::vector<Match_s, std::__ndk1::allocator<Match_s> >, std::__ndk1::basic_string<char, std::__ndk1::char_traits<char>, std::__ndk1::allocator<char> > >, std::__ndk1::monostate>::Event*)#1}, std::__ndk1::allocator<geode::Task<geode::Result<std::__ndk1::vector<Match_s, std::__ndk1::allocator<Match_s> >, std::__ndk1::basic_string<char, std::__ndk1::char_traits<char>, std::__ndk1::allocator<char> > >, std::__ndk1::monostate>::listen<GDWTMenuLayer::init()::$_2, geode::Task<geode::Result<std::__ndk1::vector<Match_s, std::__ndk1::allocator<Match_s> >, std::__ndk1::basic_string<char, std::__ndk1::char_traits<char>, std::__ndk1::allocator<char> > >, std::__ndk1::monostate>::listen<GDWTMenuLayer::init()::$_2>(GDWTMenuLayer::init()::$_2&&) const::{lambda(auto:1 const&)#1}, geode::Task<geode::Result<std::__ndk1::vector<Match_s, std::__ndk1::allocator<Match_s> >, std::__ndk1::basic_string<char, std::__ndk1::char_traits<char>, std::__ndk1::allocator<char> > >, std::__ndk1::monostate>::listen<GDWTMenuLayer::init()::$_2>(GDWTMenuLayer::init()::$_2&&) const::{lambda()#1}>(GDWTMenuLayer::init()::$_2&&, geode::Task<geode::Result<std::__ndk1::vector<Match_s, std::__ndk1::allocator<Match_s> >, std::__ndk1::basic_string<char, std::__ndk1::char_traits<char>, std::__ndk1::allocator<char> > >, std::__ndk1::monostate>::listen<GDWTMenuLayer::init()::$_2>(GDWTMenuLayer::init()::$_2&&) const::{lambda(auto:1 const&)#1}, geode::Task<geode::Result<std::__ndk1::vector<Match_s, std::__ndk1::allocator<Match_s> >, std::__ndk1::basic_string<char, std::__ndk1::char_traits<char>, std::__ndk1::allocator<char> > >, std::__ndk1::monostate>::listen<GDWTMenuLayer::init()::$_2>(GDWTMenuLayer::init()::$_2&&) const::{lambda()#1}&&) const::{lambda(geode::Task<geode::Result<std::__ndk1::vector<Match_s, std::__ndk1::allocator<Match_s> >, std::__ndk1::basic_string<char, std::__ndk1::char_traits<char>, std::__ndk1::allocator<char> > >, std::__ndk1::monostate>::Event*)#1}>, void (geode::Task<geode::Result<std::__ndk1::vector<Match_s, std::__ndk1::allocator<Match_s> >, std::__ndk1::basic_string<char, std::__ndk1::char_traits<char>, std::__ndk1::allocator<char> > >, std::__ndk1::monostate>::Event*)>::target(std::type_info const&) const
PUBLIC 7f320 0 std::__ndk1::__function::__func<geode::Task<geode::Result<std::__ndk1::vector<Match_s, std::__ndk1::allocator<Match_s> >, std::__ndk1::basic_string<char, std::__ndk1::char_traits<char>, std::__ndk1::allocator<char> > >, std::__ndk1::monostate>::listen<GDWTMenuLayer::init()::$_2, geode::Task<geode::Result<std::__ndk1::vector<Match_s, std::__ndk1::allocator<Match_s> >, std::__ndk1::basic_string<char, std::__ndk1::char_traits<char>, std::__ndk1::allocator<char> > >, std::__ndk1::monostate>::listen<GDWTMenuLayer::init()::$_2>(GDWTMenuLayer::init()::$_2&&) const::{lambda(auto:1 const&)#1}, geode::Task<geode::Result<std::__ndk1::vector<Match_s, std::__ndk1::allocator<Match_s> >, std::__ndk1::basic_string<char, std::__ndk1::char_traits<char>, std::__ndk1::allocator<char> > >, std::__ndk1::monostate>::listen<GDWTMenuLayer::init()::$_2>(GDWTMenuLayer::init()::$_2&&) const::{lambda()#1}>(GDWTMenuLayer::init()::$_2&&, geode::Task<geode::Result<std::__ndk1::vector<Match_s, std::__ndk1::allocator<Match_s> >, std::__ndk1::basic_string<char, std::__ndk1::char_traits<char>, std::__ndk1::allocator<char> > >, std::__ndk1::monostate>::listen<GDWTMenuLayer::init()::$_2>(GDWTMenuLayer::init()::$_2&&) const::{lambda(auto:1 const&)#1}, geode::Task<geode::Result<std::__ndk1::vector<Match_s, std::__ndk1::allocator<Match_s> >, std::__ndk1::basic_string<char, std::__ndk1::char_traits<char>, std::__ndk1::allocator<char> > >, std::__ndk1::monostate>::listen<GDWTMenuLayer::init()::$_2>(GDWTMenuLayer::init()::$_2&&) const::{lambda()#1}&&) const::{lambda(geode::Task<geode::Result<std::__ndk1::vector<Match_s, std::__ndk1::allocator<Match_s> >, std::__ndk1::basic_string<char, std::__ndk1::char_traits<char>, std::__ndk1::allocator<char> > >, std::__ndk1::monostate>::Event*)#1}, std::__ndk1::allocator<geode::Task<geode::Result<std::__ndk1::vector<Match_s, std::__ndk1::allocator<Match_s> >, std::__ndk1::basic_string<char, std::__ndk1::char_traits<char>, std::__ndk1::allocator<char> > >, std::__ndk1::monostate>::listen<GDWTMenuLayer::init()::$_2, geode::Task<geode::Result<std::__ndk1::vector<Match_s, std::__ndk1::allocator<Match_s> >, std::__ndk1::basic_string<char, std::__ndk1::char_traits<char>, std::__ndk1::allocator<char> > >, std::__ndk1::monostate>::listen<GDWTMenuLayer::init()::$_2>(GDWTMenuLayer::init()::$_2&&) const::{lambda(auto:1 const&)#1}, geode::Task<geode::Result<std::__ndk1::vector<Match_s, std::__ndk1::allocator<Match_s> >, std::__ndk1::basic_string<char, std::__ndk1::char_traits<char>, std::__ndk1::allocator<char> > >, std::__ndk1::monostate>::listen<GDWTMenuLayer::init()::$_2>(GDWTMenuLayer::init()::$_2&&) const::{lambda()#1}>(GDWTMenuLayer::init()::$_2&&, geode::Task<geode::Result<std::__ndk1::vector<Match_s, std::__ndk1::allocator<Match_s> >, std::__ndk1::basic_string<char, std::__ndk1::char_traits<char>, std::__ndk1::allocator<char> > >, std::__ndk1::monostate>::listen<GDWTMenuLayer::init()::$_2>(GDWTMenuLayer::init()::$_2&&) const::{lambda(auto:1 const&)#1}, geode::Task<geode::Result<std::__ndk1::vector<Match_s, std::__ndk1::allocator<Match_s> >, std::__ndk1::basic_string<char, std::__ndk1::char_traits<char>, std::__ndk1::allocator<char> > >, std::__ndk1::monostate>::listen<GDWTMenuLayer::init()::$_2>(GDWTMenuLayer::init()::$_2&&) const::{lambda()#1}&&) const::{lambda(geode::Task<geode::Result<std::__ndk1::vector<Match_s, std::__ndk1::allocator<Match_s> >, std::__ndk1::basic_string<char, std::__ndk1::char_traits<char>, std::__ndk1::allocator<char> > >, std::__ndk1::monostate>::Event*)#1}>, void (geode::Task<geode::Result<std::__ndk1::vector<Match_s, std::__ndk1::allocator<Match_s> >, std::__ndk1::basic_string<char, std::__ndk1::char_traits<char>, std::__ndk1::allocator<char> > >, std::__ndk1::monostate>::Event*)>::target_type() const
PUBLIC 7f32c 0 std::__ndk1::__function::__func<geode::Task<geode::Result<std::__ndk1::vector<Match_s, std::__ndk1::allocator<Match_s> >, std::__ndk1::basic_string<char, std::__ndk1::char_traits<char>, std::__ndk1::allocator<char> > >, std::__ndk1::monostate>::listen<GDWTMenuLayer::init()::$_2, geode::Task<geode::Result<std::__ndk1::vector<Match_s, std::__ndk1::allocator<Match_s> >, std::__ndk1::basic_string<char, std::__ndk1::char_traits<char>, std::__ndk1::allocator<char> > >, std::__ndk1::monostate>::listen<GDWTMenuLayer::init()::$_2>(GDWTMenuLayer::init()::$_2&&) const::{lambda(auto:1 const&)#1}, geode::Task<geode::Result<std::__ndk1::vector<Match_s, std::__ndk1::allocator<Match_s> >, std::__ndk1::basic_string<char, std::__ndk1::char_traits<char>, std::__ndk1::allocator<char> > >, std::__ndk1::monostate>::listen<GDWTMenuLayer::init()::$_2>(GDWTMenuLayer::init()::$_2&&) const::{lambda()#1}>(GDWTMenuLayer::init()::$_2&&, geode::Task<geode::Result<std::__ndk1::vector<Match_s, std::__ndk1::allocator<Match_s> >, std::__ndk1::basic_string<char, std::__ndk1::char_traits<char>, std::__ndk1::allocator<char> > >, std::__ndk1::monostate>::listen<GDWTMenuLayer::init()::$_2>(GDWTMenuLayer::init()::$_2&&) const::{lambda(auto:1 const&)#1}, geode::Task<geode::Result<std::__ndk1::vector<Match_s, std::__ndk1::allocator<Match_s> >, std::__ndk1::basic_string<char, std::__ndk1::char_traits<char>, std::__ndk1::allocator<char> > >, std::__ndk1::monostate>::listen<GDWTMenuLayer::init()::$_2>(GDWTMenuLayer::init()::$_2&&) const::{lambda()#1}&&) const::{lambda(geode::Task<geode::Result<std::__ndk1::vector<Match_s, std::__ndk1::allocator<Match_s> >, std::__ndk1::basic_string<char, std::__ndk1::char_traits<char>, std::__ndk1::allocator<char> > >, std::__ndk1::monostate>::Event*)#1}::operator()(geode::Task<geode::Result<std::__ndk1::vector<Match_s, std::__ndk1::allocator<Match_s> >, std::__ndk1::basic_string<char, std::__ndk1::char_traits<char>, std::__ndk1::allocator<char> > >, std::__ndk1::monostate>::Event*)::{lambda()#1}, std::__ndk1::allocator<geode::Task<geode::Result<std::__ndk1::vector<Match_s, std::__ndk1::allocator<Match_s> >, std::__ndk1::basic_string<char, std::__ndk1::char_traits<char>, std::__ndk1::allocator<char> > >, std::__ndk1::monostate>::listen<GDWTMenuLayer::init()::$_2, geode::Task<geode::Result<std::__ndk1::vector<Match_s, std::__ndk1::allocator<Match_s> >, std::__ndk1::basic_string<char, std::__ndk1::char_traits<char>, std::__ndk1::allocator<char> > >, std::__ndk1::monostate>::listen<GDWTMenuLayer::init()::$_2>(GDWTMenuLayer::init()::$_2&&) const::{lambda(auto:1 const&)#1}, geode::Task<geode::Result<std::__ndk1::vector<Match_s, std::__ndk1::allocator<Match_s> >, std::__ndk1::basic_string<char, std::__ndk1::char_traits<char>, std::__ndk1::allocator<char> > >, std::__ndk1::monostate>::listen<GDWTMenuLayer::init()::$_2>(GDWTMenuLayer::init()::$_2&&) const::{lambda()#1}>(GDWTMenuLayer::init()::$_2&&, geode::Task<geode::Result<std::__ndk1::vector<Match_s, std::__ndk1::allocator<Match_s> >, std::__ndk1::basic_string<char, std::__ndk1::char_traits<char>, std::__ndk1::allocator<char> > >, std::__ndk1::monostate>::listen<GDWTMenuLayer::init()::$_2>(GDWTMenuLayer::init()::$_2&&) const::{lambda(auto:1 const&)#1}, geode::Task<geode::Result<std::__ndk1::vector<Match_s, std::__ndk1::allocator<Match_s> >, std::__ndk1::basic_string<char, std::__ndk1::char_traits<char>, std::__ndk1::allocator<char> > >, std::__ndk1::monostate>::listen<GDWTMenuLayer::init()::$_2>(GDWTMenuLayer::init()::$_2&&) const::{lambda()#1}&&) const::{lambda(geode::Task<geode::Result<std::__ndk1::vector<Match_s, std::__ndk1::allocator<Match_s> >, std::__ndk1::basic_string<char, std::__ndk1::char_traits<char>, std::__ndk1::allocator<char> > >, std::__ndk1::monostate>::Event*)#1}::operator()(geode::Task<geode::Result<std::__ndk1::vector<Match_s, std::__ndk1::allocator<Match_s> >, std::__ndk1::basic_string<char, std::__ndk1::char_traits<char>, std::__ndk1::allocator<char> > >, std::__ndk1::monostate>::Event*)::{lambda()#1}>, void ()>::~__func()
PUBLIC 7f330 0 std::__ndk1::__function::__func<geode::Task<geode::Result<std::__ndk1::vector<Match_s, std::__ndk1::allocator<Match_s> >, std::__ndk1::basic_string<char, std::__ndk1::char_traits<char>, std::__ndk1::allocator<char> > >, std::__ndk1::monostate>::listen<GDWTMenuLayer::init()::$_2, geode::Task<geode::Result<std::__ndk1::vector<Match_s, std::__ndk1::allocator<Match_s> >, std::__ndk1::basic_string<char, std::__ndk1::char_traits<char>, std::__ndk1::allocator<char> > >, std::__ndk1::monostate>::listen<GDWTMenuLayer::init()::$_2>(GDWTMenuLayer::init()::$_2&&) const::{lambda(auto:1 const&)#1}, geode::Task<geode::Result<std::__ndk1::vector<Match_s, std::__ndk1::allocator<Match_s> >, std::__ndk1::basic_string<char, std::__ndk1::char_traits<char>, std::__ndk1::allocator<char> > >, std::__ndk1::monostate>::listen<GDWTMenuLayer::init()::$_2>(GDWTMenuLayer::init()::$_2&&) const::{lambda()#1}>(GDWTMenuLayer::init()::$_2&&, geode::Task<geode::Result<std::__ndk1::vector<Match_s, std::__ndk1::allocator<Match_s> >, std::__ndk1::basic_string<char, std::__ndk1::char_traits<char>, std::__ndk1::allocator<char> > >, std::__ndk1::monostate>::listen<GDWTMenuLayer::init()::$_2>(GDWTMenuLayer::init()::$_2&&) const::{lambda(auto:1 const&)#1}, geode::Task<geode::Result<std::__ndk1::vector<Match_s, std::__ndk1::allocator<Match_s> >, std::__ndk1::basic_string<char, std::__ndk1::char_traits<char>, std::__ndk1::allocator<char> > >, std::__ndk1::monostate>::listen<GDWTMenuLayer::init()::$_2>(GDWTMenuLayer::init()::$_2&&) const::{lambda()#1}&&) const::{lambda(geode::Task<geode::Result<std::__ndk1::vector<Match_s, std::__ndk1::allocator<Match_s> >, std::__ndk1::basic_string<char, std::__ndk1::char_traits<char>, std::__ndk1::allocator<char> > >, std::__ndk1::monostate>::Event*)#1}::operator()(geode::Task<geode::Result<std::__ndk1::vector<Match_s, std::__ndk1::allocator<Match_s> >, std::__ndk1::basic_string<char, std::__ndk1::char_traits<char>, std::__ndk1::allocator<char> > >, std::__ndk1::monostate>::Event*)::{lambda()#1}, std::__ndk1::allocator<geode::Task<geode::Result<std::__ndk1::vector<Match_s, std::__ndk1::allocator<Match_s> >, std::__ndk1::basic_string<char, std::__ndk1::char_traits<char>, std::__ndk1::allocator<char> > >, std::__ndk1::monostate>::listen<GDWTMenuLayer::init()::$_2, geode::Task<geode::Result<std::__ndk1::vector<Match_s, std::__ndk1::allocator<Match_s> >, std::__ndk1::basic_string<char, std::__ndk1::char_traits<char>, std::__ndk1::allocator<char> > >, std::__ndk1::monostate>::listen<GDWTMenuLayer::init()::$_2>(GDWTMenuLayer::init()::$_2&&) const::{lambda(auto:1 const&)#1}, geode::Task<geode::Result<std::__ndk1::vector<Match_s, std::__ndk1::allocator<Match_s> >, std::__ndk1::basic_string<char, std::__ndk1::char_traits<char>, std::__ndk1::allocator<char> > >, std::__ndk1::monostate>::listen<GDWTMenuLayer::init()::$_2>(GDWTMenuLayer::init()::$_2&&) const::{lambda()#1}>(GDWTMenuLayer::init()::$_2&&, geode::Task<geode::Result<std::__ndk1::vector<Match_s, std::__ndk1::allocator<Match_s> >, std::__ndk1::basic_string<char, std::__ndk1::char_traits<char>, std::__ndk1::allocator<char> > >, std::__ndk1::monostate>::listen<GDWTMenuLayer::init()::$_2>(GDWTMenuLayer::init()::$_2&&) const::{lambda(auto:1 const&)#1}, geode::Task<geode::Result<std::__ndk1::vector<Match_s, std::__ndk1::allocator<Match_s> >, std::__ndk1::basic_string<char, std::__ndk1::char_traits<char>, std::__ndk1::allocator<char> > >, std::__ndk1::monostate>::listen<GDWTMenuLayer::init()::$_2>(GDWTMenuLayer::init()::$_2&&) const::{lambda()#1}&&) const::{lambda(geode::Task<geode::Result<std::__ndk1::vector<Match_s, std::__ndk1::allocator<Match_s> >, std::__ndk1::basic_string<char, std::__ndk1::char_traits<char>, std::__ndk1::allocator<char> > >, std::__ndk1::monostate>::Event*)#1}::operator()(geode::Task<geode::Result<std::__ndk1::vector<Match_s, std::__ndk1::allocator<Match_s> >, std::__ndk1::basic_string<char, std::__ndk1::char_traits<char>, std::__ndk1::allocator<char> > >, std::__ndk1::monostate>::Event*)::{lambda()#1}>, void ()>::__clone() const
PUBLIC 7f364 0 _ZNKSt6__ndk110__function6__funcIZZNK5geode4TaskINS2_6ResultINS_6vectorI7Match_sNS_9allocatorIS6_EEEENS_12basic_stringIcNS_11char_traitsIcEENS7_IcEEEEEENS_9monostateEE6listenIZN13GDWTMenuLayer4initEvE3$_2ZNKSH_6listenISK_EEvOT_EUlRKSM_E_ZNKSL_ISK_EEvSN_EUlvE_EEvSN_OT0_OT1_ENUlPNSH_5EventEE_clESX_EUlvE_NS7_ISZ_EEFvvEE7__cloneEPNS0_6__baseIS11_EE
PUBLIC 7f378 0 std::__ndk1::__function::__func<geode::Task<geode::Result<std::__ndk1::vector<Match_s, std::__ndk1::allocator<Match_s> >, std::__ndk1::basic_string<char, std::__ndk1::char_traits<char>, std::__ndk1::allocator<char> > >, std::__ndk1::monostate>::listen<GDWTMenuLayer::init()::$_2, geode::Task<geode::Result<std::__ndk1::vector<Match_s, std::__ndk1::allocator<Match_s> >, std::__ndk1::basic_string<char, std::__ndk1::char_traits<char>, std::__ndk1::allocator<char> > >, std::__ndk1::monostate>::listen<GDWTMenuLayer::init()::$_2>(GDWTMenuLayer::init()::$_2&&) const::{lambda(auto:1 const&)#1}, geode::Task<geode::Result<std::__ndk1::vector<Match_s, std::__ndk1::allocator<Match_s> >, std::__ndk1::basic_string<char, std::__ndk1::char_traits<char>, std::__ndk1::allocator<char> > >, std::__ndk1::monostate>::listen<GDWTMenuLayer::init()::$_2>(GDWTMenuLayer::init()::$_2&&) const::{lambda()#1}>(GDWTMenuLayer::init()::$_2&&, geode::Task<geode::Result<std::__ndk1::vector<Match_s, std::__ndk1::allocator<Match_s> >, std::__ndk1::basic_string<char, std::__ndk1::char_traits<char>, std::__ndk1::allocator<char> > >, std::__ndk1::monostate>::listen<GDWTMenuLayer::init()::$_2>(GDWTMenuLayer::init()::$_2&&) const::{lambda(auto:1 const&)#1}, geode::Task<geode::Result<std::__ndk1::vector<Match_s, std::__ndk1::allocator<Match_s> >, std::__ndk1::basic_string<char, std::__ndk1::char_traits<char>, std::__ndk1::allocator<char> > >, std::__ndk1::monostate>::listen<GDWTMenuLayer::init()::$_2>(GDWTMenuLayer::init()::$_2&&) const::{lambda()#1}&&) const::{lambda(geode::Task<geode::Result<std::__ndk1::vector<Match_s, std::__ndk1::allocator<Match_s> >, std::__ndk1::basic_string<char, std::__ndk1::char_traits<char>, std::__ndk1::allocator<char> > >, std::__ndk1::monostate>::Event*)#1}::operator()(geode::Task<geode::Result<std::__ndk1::vector<Match_s, std::__ndk1::allocator<Match_s> >, std::__ndk1::basic_string<char, std::__ndk1::char_traits<char>, std::__ndk1::allocator<char> > >, std::__ndk1::monostate>::Event*)::{lambda()#1}, std::__ndk1::allocator<geode::Task<geode::Result<std::__ndk1::vector<Match_s, std::__ndk1::allocator<Match_s> >, std::__ndk1::basic_string<char, std::__ndk1::char_traits<char>, std::__ndk1::allocator<char> > >, std::__ndk1::monostate>::listen<GDWTMenuLayer::init()::$_2, geode::Task<geode::Result<std::__ndk1::vector<Match_s, std::__ndk1::allocator<Match_s> >, std::__ndk1::basic_string<char, std::__ndk1::char_traits<char>, std::__ndk1::allocator<char> > >, std::__ndk1::monostate>::listen<GDWTMenuLayer::init()::$_2>(GDWTMenuLayer::init()::$_2&&) const::{lambda(auto:1 const&)#1}, geode::Task<geode::Result<std::__ndk1::vector<Match_s, std::__ndk1::allocator<Match_s> >, std::__ndk1::basic_string<char, std::__ndk1::char_traits<char>, std::__ndk1::allocator<char> > >, std::__ndk1::monostate>::listen<GDWTMenuLayer::init()::$_2>(GDWTMenuLayer::init()::$_2&&) const::{lambda()#1}>(GDWTMenuLayer::init()::$_2&&, geode::Task<geode::Result<std::__ndk1::vector<Match_s, std::__ndk1::allocator<Match_s> >, std::__ndk1::basic_string<char, std::__ndk1::char_traits<char>, std::__ndk1::allocator<char> > >, std::__ndk1::monostate>::listen<GDWTMenuLayer::init()::$_2>(GDWTMenuLayer::init()::$_2&&) const::{lambda(auto:1 const&)#1}, geode::Task<geode::Result<std::__ndk1::vector<Match_s, std::__ndk1::allocator<Match_s> >, std::__ndk1::basic_string<char, std::__ndk1::char_traits<char>, std::__ndk1::allocator<char> > >, std::__ndk1::monostate>::listen<GDWTMenuLayer::init()::$_2>(GDWTMenuLayer::init()::$_2&&) const::{lambda()#1}&&) const::{lambda(geode::Task<geode::Result<std::__ndk1::vector<Match_s, std::__ndk1::allocator<Match_s> >, std::__ndk1::basic_string<char, std::__ndk1::char_traits<char>, std::__ndk1::allocator<char> > >, std::__ndk1::monostate>::Event*)#1}::operator()(geode::Task<geode::Result<std::__ndk1::vector<Match_s, std::__ndk1::allocator<Match_s> >, std::__ndk1::basic_string<char, std::__ndk1::char_traits<char>, std::__ndk1::allocator<char> > >, std::__ndk1::monostate>::Event*)::{lambda()#1}>, void ()>::destroy()
PUBLIC 7f37c 0 std::__ndk1::__function::__func<geode::Task<geode::Result<std::__ndk1::vector<Match_s, std::__ndk1::allocator<Match_s> >, std::__ndk1::basic_string<char, std::__ndk1::char_traits<char>, std::__ndk1::allocator<char> > >, std::__ndk1::monostate>::listen<GDWTMenuLayer::init()::$_2, geode::Task<geode::Result<std::__ndk1::vector<Match_s, std::__ndk1::allocator<Match_s> >, std::__ndk1::basic_string<char, std::__ndk1::char_traits<char>, std::__ndk1::allocator<char> > >, std::__ndk1::monostate>::listen<GDWTMenuLayer::init()::$_2>(GDWTMenuLayer::init()::$_2&&) const::{lambda(auto:1 const&)#1}, geode::Task<geode::Result<std::__ndk1::vector<Match_s, std::__ndk1::allocator<Match_s> >, std::__ndk1::basic_string<char, std::__ndk1::char_traits<char>, std::__ndk1::allocator<char> > >, std::__ndk1::monostate>::listen<GDWTMenuLayer::init()::$_2>(GDWTMenuLayer::init()::$_2&&) const::{lambda()#1}>(GDWTMenuLayer::init()::$_2&&, geode::Task<geode::Result<std::__ndk1::vector<Match_s, std::__ndk1::allocator<Match_s> >, std::__ndk1::basic_string<char, std::__ndk1::char_traits<char>, std::__ndk1::allocator<char> > >, std::__ndk1::monostate>::listen<GDWTMenuLayer::init()::$_2>(GDWTMenuLayer::init()::$_2&&) const::{lambda(auto:1 const&)#1}, geode::Task<geode::Result<std::__ndk1::vector<Match_s, std::__ndk1::allocator<Match_s> >, std::__ndk1::basic_string<char, std::__ndk1::char_traits<char>, std::__ndk1::allocator<char> > >, std::__ndk1::monostate>::listen<GDWTMenuLayer::init()::$_2>(GDWTMenuLayer::init()::$_2&&) const::{lambda()#1}&&) const::{lambda(geode::Task<geode::Result<std::__ndk1::vector<Match_s, std::__ndk1::allocator<Match_s> >, std::__ndk1::basic_string<char, std::__ndk1::char_traits<char>, std::__ndk1::allocator<char> > >, std::__ndk1::monostate>::Event*)#1}::operator()(geode::Task<geode::Result<std::__ndk1::vector<Match_s, std::__ndk1::allocator<Match_s> >, std::__ndk1::basic_string<char, std::__ndk1::char_traits<char>, std::__ndk1::allocator<char> > >, std::__ndk1::monostate>::Event*)::{lambda()#1}, std::__ndk1::allocator<geode::Task<geode::Result<std::__ndk1::vector<Match_s, std::__ndk1::allocator<Match_s> >, std::__ndk1::basic_string<char, std::__ndk1::char_traits<char>, std::__ndk1::allocator<char> > >, std::__ndk1::monostate>::listen<GDWTMenuLayer::init()::$_2, geode::Task<geode::Result<std::__ndk1::vector<Match_s, std::__ndk1::allocator<Match_s> >, std::__ndk1::basic_string<char, std::__ndk1::char_traits<char>, std::__ndk1::allocator<char> > >, std::__ndk1::monostate>::listen<GDWTMenuLayer::init()::$_2>(GDWTMenuLayer::init()::$_2&&) const::{lambda(auto:1 const&)#1}, geode::Task<geode::Result<std::__ndk1::vector<Match_s, std::__ndk1::allocator<Match_s> >, std::__ndk1::basic_string<char, std::__ndk1::char_traits<char>, std::__ndk1::allocator<char> > >, std::__ndk1::monostate>::listen<GDWTMenuLayer::init()::$_2>(GDWTMenuLayer::init()::$_2&&) const::{lambda()#1}>(GDWTMenuLayer::init()::$_2&&, geode::Task<geode::Result<std::__ndk1::vector<Match_s, std::__ndk1::allocator<Match_s> >, std::__ndk1::basic_string<char, std::__ndk1::char_traits<char>, std::__ndk1::allocator<char> > >, std::__ndk1::monostate>::listen<GDWTMenuLayer::init()::$_2>(GDWTMenuLayer::init()::$_2&&) const::{lambda(auto:1 const&)#1}, geode::Task<geode::Result<std::__ndk1::vector<Match_s, std::__ndk1::allocator<Match_s> >, std::__ndk1::basic_string<char, std::__ndk1::char_traits<char>, std::__ndk1::allocator<char> > >, std::__ndk1::monostate>::listen<GDWTMenuLayer::init()::$_2>(GDWTMenuLayer::init()::$_2&&) const::{lambda()#1}&&) const::{lambda(geode::Task<geode::Result<std::__ndk1::vector<Match_s, std::__ndk1::allocator<Match_s> >, std::__ndk1::basic_string<char, std::__ndk1::char_traits<char>, std::__ndk1::allocator<char> > >, std::__ndk1::monostate>::Event*)#1}::operator()(geode::Task<geode::Result<std::__ndk1::vector<Match_s, std::__ndk1::allocator<Match_s> >, std::__ndk1::basic_string<char, std::__ndk1::char_traits<char>, std::__ndk1::allocator<char> > >, std::__ndk1::monostate>::Event*)::{lambda()#1}>, void ()>::destroy_deallocate()
PUBLIC 7f380 0 std::__ndk1::__function::__func<geode::Task<geode::Result<std::__ndk1::vector<Match_s, std::__ndk1::allocator<Match_s> >, std::__ndk1::basic_string<char, std::__ndk1::char_traits<char>, std::__ndk1::allocator<char> > >, std::__ndk1::monostate>::listen<GDWTMenuLayer::init()::$_2, geode::Task<geode::Result<std::__ndk1::vector<Match_s, std::__ndk1::allocator<Match_s> >, std::__ndk1::basic_string<char, std::__ndk1::char_traits<char>, std::__ndk1::allocator<char> > >, std::__ndk1::monostate>::listen<GDWTMenuLayer::init()::$_2>(GDWTMenuLayer::init()::$_2&&) const::{lambda(auto:1 const&)#1}, geode::Task<geode::Result<std::__ndk1::vector<Match_s, std::__ndk1::allocator<Match_s> >, std::__ndk1::basic_string<char, std::__ndk1::char_traits<char>, std::__ndk1::allocator<char> > >, std::__ndk1::monostate>::listen<GDWTMenuLayer::init()::$_2>(GDWTMenuLayer::init()::$_2&&) const::{lambda()#1}>(GDWTMenuLayer::init()::$_2&&, geode::Task<geode::Result<std::__ndk1::vector<Match_s, std::__ndk1::allocator<Match_s> >, std::__ndk1::basic_string<char, std::__ndk1::char_traits<char>, std::__ndk1::allocator<char> > >, std::__ndk1::monostate>::listen<GDWTMenuLayer::init()::$_2>(GDWTMenuLayer::init()::$_2&&) const::{lambda(auto:1 const&)#1}, geode::Task<geode::Result<std::__ndk1::vector<Match_s, std::__ndk1::allocator<Match_s> >, std::__ndk1::basic_string<char, std::__ndk1::char_traits<char>, std::__ndk1::allocator<char> > >, std::__ndk1::monostate>::listen<GDWTMenuLayer::init()::$_2>(GDWTMenuLayer::init()::$_2&&) const::{lambda()#1}&&) const::{lambda(geode::Task<geode::Result<std::__ndk1::vector<Match_s, std::__ndk1::allocator<Match_s> >, std::__ndk1::basic_string<char, std::__ndk1::char_traits<char>, std::__ndk1::allocator<char> > >, std::__ndk1::monostate>::Event*)#1}::operator()(geode::Task<geode::Result<std::__ndk1::vector<Match_s, std::__ndk1::allocator<Match_s> >, std::__ndk1::basic_string<char, std::__ndk1::char_traits<char>, std::__ndk1::allocator<char> > >, std::__ndk1::monostate>::Event*)::{lambda()#1}, std::__ndk1::allocator<geode::Task<geode::Result<std::__ndk1::vector<Match_s, std::__ndk1::allocator<Match_s> >, std::__ndk1::basic_string<char, std::__ndk1::char_traits<char>, std::__ndk1::allocator<char> > >, std::__ndk1::monostate>::listen<GDWTMenuLayer::init()::$_2, geode::Task<geode::Result<std::__ndk1::vector<Match_s, std::__ndk1::allocator<Match_s> >, std::__ndk1::basic_string<char, std::__ndk1::char_traits<char>, std::__ndk1::allocator<char> > >, std::__ndk1::monostate>::listen<GDWTMenuLayer::init()::$_2>(GDWTMenuLayer::init()::$_2&&) const::{lambda(auto:1 const&)#1}, geode::Task<geode::Result<std::__ndk1::vector<Match_s, std::__ndk1::allocator<Match_s> >, std::__ndk1::basic_string<char, std::__ndk1::char_traits<char>, std::__ndk1::allocator<char> > >, std::__ndk1::monostate>::listen<GDWTMenuLayer::init()::$_2>(GDWTMenuLayer::init()::$_2&&) const::{lambda()#1}>(GDWTMenuLayer::init()::$_2&&, geode::Task<geode::Result<std::__ndk1::vector<Match_s, std::__ndk1::allocator<Match_s> >, std::__ndk1::basic_string<char, std::__ndk1::char_traits<char>, std::__ndk1::allocator<char> > >, std::__ndk1::monostate>::listen<GDWTMenuLayer::init()::$_2>(GDWTMenuLayer::init()::$_2&&) const::{lambda(auto:1 const&)#1}, geode::Task<geode::Result<std::__ndk1::vector<Match_s, std::__ndk1::allocator<Match_s> >, std::__ndk1::basic_string<char, std::__ndk1::char_traits<char>, std::__ndk1::allocator<char> > >, std::__ndk1::monostate>::listen<GDWTMenuLayer::init()::$_2>(GDWTMenuLayer::init()::$_2&&) const::{lambda()#1}&&) const::{lambda(geode::Task<geode::Result<std::__ndk1::vector<Match_s, std::__ndk1::allocator<Match_s> >, std::__ndk1::basic_string<char, std::__ndk1::char_traits<char>, std::__ndk1::allocator<char> > >, std::__ndk1::monostate>::Event*)#1}::operator()(geode::Task<geode::Result<std::__ndk1::vector<Match_s, std::__ndk1::allocator<Match_s> >, std::__ndk1::basic_string<char, std::__ndk1::char_traits<char>, std::__ndk1::allocator<char> > >, std::__ndk1::monostate>::Event*)::{lambda()#1}>, void ()>::operator()()
PUBLIC 7f398 0 std::__ndk1::__function::__func<geode::Task<geode::Result<std::__ndk1::vector<Match_s, std::__ndk1::allocator<Match_s> >, std::__ndk1::basic_string<char, std::__ndk1::char_traits<char>, std::__ndk1::allocator<char> > >, std::__ndk1::monostate>::listen<GDWTMenuLayer::init()::$_2, geode::Task<geode::Result<std::__ndk1::vector<Match_s, std::__ndk1::allocator<Match_s> >, std::__ndk1::basic_string<char, std::__ndk1::char_traits<char>, std::__ndk1::allocator<char> > >, std::__ndk1::monostate>::listen<GDWTMenuLayer::init()::$_2>(GDWTMenuLayer::init()::$_2&&) const::{lambda(auto:1 const&)#1}, geode::Task<geode::Result<std::__ndk1::vector<Match_s, std::__ndk1::allocator<Match_s> >, std::__ndk1::basic_string<char, std::__ndk1::char_traits<char>, std::__ndk1::allocator<char> > >, std::__ndk1::monostate>::listen<GDWTMenuLayer::init()::$_2>(GDWTMenuLayer::init()::$_2&&) const::{lambda()#1}>(GDWTMenuLayer::init()::$_2&&, geode::Task<geode::Result<std::__ndk1::vector<Match_s, std::__ndk1::allocator<Match_s> >, std::__ndk1::basic_string<char, std::__ndk1::char_traits<char>, std::__ndk1::allocator<char> > >, std::__ndk1::monostate>::listen<GDWTMenuLayer::init()::$_2>(GDWTMenuLayer::init()::$_2&&) const::{lambda(auto:1 const&)#1}, geode::Task<geode::Result<std::__ndk1::vector<Match_s, std::__ndk1::allocator<Match_s> >, std::__ndk1::basic_string<char, std::__ndk1::char_traits<char>, std::__ndk1::allocator<char> > >, std::__ndk1::monostate>::listen<GDWTMenuLayer::init()::$_2>(GDWTMenuLayer::init()::$_2&&) const::{lambda()#1}&&) const::{lambda(geode::Task<geode::Result<std::__ndk1::vector<Match_s, std::__ndk1::allocator<Match_s> >, std::__ndk1::basic_string<char, std::__ndk1::char_traits<char>, std::__ndk1::allocator<char> > >, std::__ndk1::monostate>::Event*)#1}::operator()(geode::Task<geode::Result<std::__ndk1::vector<Match_s, std::__ndk1::allocator<Match_s> >, std::__ndk1::basic_string<char, std::__ndk1::char_traits<char>, std::__ndk1::allocator<char> > >, std::__ndk1::monostate>::Event*)::{lambda()#1}, std::__ndk1::allocator<geode::Task<geode::Result<std::__ndk1::vector<Match_s, std::__ndk1::allocator<Match_s> >, std::__ndk1::basic_string<char, std::__ndk1::char_traits<char>, std::__ndk1::allocator<char> > >, std::__ndk1::monostate>::listen<GDWTMenuLayer::init()::$_2, geode::Task<geode::Result<std::__ndk1::vector<Match_s, std::__ndk1::allocator<Match_s> >, std::__ndk1::basic_string<char, std::__ndk1::char_traits<char>, std::__ndk1::allocator<char> > >, std::__ndk1::monostate>::listen<GDWTMenuLayer::init()::$_2>(GDWTMenuLayer::init()::$_2&&) const::{lambda(auto:1 const&)#1}, geode::Task<geode::Result<std::__ndk1::vector<Match_s, std::__ndk1::allocator<Match_s> >, std::__ndk1::basic_string<char, std::__ndk1::char_traits<char>, std::__ndk1::allocator<char> > >, std::__ndk1::monostate>::listen<GDWTMenuLayer::init()::$_2>(GDWTMenuLayer::init()::$_2&&) const::{lambda()#1}>(GDWTMenuLayer::init()::$_2&&, geode::Task<geode::Result<std::__ndk1::vector<Match_s, std::__ndk1::allocator<Match_s> >, std::__ndk1::basic_string<char, std::__ndk1::char_traits<char>, std::__ndk1::allocator<char> > >, std::__ndk1::monostate>::listen<GDWTMenuLayer::init()::$_2>(GDWTMenuLayer::init()::$_2&&) const::{lambda(auto:1 const&)#1}, geode::Task<geode::Result<std::__ndk1::vector<Match_s, std::__ndk1::allocator<Match_s> >, std::__ndk1::basic_string<char, std::__ndk1::char_traits<char>, std::__ndk1::allocator<char> > >, std::__ndk1::monostate>::listen<GDWTMenuLayer::init()::$_2>(GDWTMenuLayer::init()::$_2&&) const::{lambda()#1}&&) const::{lambda(geode::Task<geode::Result<std::__ndk1::vector<Match_s, std::__ndk1::allocator<Match_s> >, std::__ndk1::basic_string<char, std::__ndk1::char_traits<char>, std::__ndk1::allocator<char> > >, std::__ndk1::monostate>::Event*)#1}::operator()(geode::Task<geode::Result<std::__ndk1::vector<Match_s, std::__ndk1::allocator<Match_s> >, std::__ndk1::basic_string<char, std::__ndk1::char_traits<char>, std::__ndk1::allocator<char> > >, std::__ndk1::monostate>::Event*)::{lambda()#1}>, void ()>::target(std::type_info const&) const
PUBLIC 7f3b4 0 std::__ndk1::__function::__func<geode::Task<geode::Result<std::__ndk1::vector<Match_s, std::__ndk1::allocator<Match_s> >, std::__ndk1::basic_string<char, std::__ndk1::char_traits<char>, std::__ndk1::allocator<char> > >, std::__ndk1::monostate>::listen<GDWTMenuLayer::init()::$_2, geode::Task<geode::Result<std::__ndk1::vector<Match_s, std::__ndk1::allocator<Match_s> >, std::__ndk1::basic_string<char, std::__ndk1::char_traits<char>, std::__ndk1::allocator<char> > >, std::__ndk1::monostate>::listen<GDWTMenuLayer::init()::$_2>(GDWTMenuLayer::init()::$_2&&) const::{lambda(auto:1 const&)#1}, geode::Task<geode::Result<std::__ndk1::vector<Match_s, std::__ndk1::allocator<Match_s> >, std::__ndk1::basic_string<char, std::__ndk1::char_traits<char>, std::__ndk1::allocator<char> > >, std::__ndk1::monostate>::listen<GDWTMenuLayer::init()::$_2>(GDWTMenuLayer::init()::$_2&&) const::{lambda()#1}>(GDWTMenuLayer::init()::$_2&&, geode::Task<geode::Result<std::__ndk1::vector<Match_s, std::__ndk1::allocator<Match_s> >, std::__ndk1::basic_string<char, std::__ndk1::char_traits<char>, std::__ndk1::allocator<char> > >, std::__ndk1::monostate>::listen<GDWTMenuLayer::init()::$_2>(GDWTMenuLayer::init()::$_2&&) const::{lambda(auto:1 const&)#1}, geode::Task<geode::Result<std::__ndk1::vector<Match_s, std::__ndk1::allocator<Match_s> >, std::__ndk1::basic_string<char, std::__ndk1::char_traits<char>, std::__ndk1::allocator<char> > >, std::__ndk1::monostate>::listen<GDWTMenuLayer::init()::$_2>(GDWTMenuLayer::init()::$_2&&) const::{lambda()#1}&&) const::{lambda(geode::Task<geode::Result<std::__ndk1::vector<Match_s, std::__ndk1::allocator<Match_s> >, std::__ndk1::basic_string<char, std::__ndk1::char_traits<char>, std::__ndk1::allocator<char> > >, std::__ndk1::monostate>::Event*)#1}::operator()(geode::Task<geode::Result<std::__ndk1::vector<Match_s, std::__ndk1::allocator<Match_s> >, std::__ndk1::basic_string<char, std::__ndk1::char_traits<char>, std::__ndk1::allocator<char> > >, std::__ndk1::monostate>::Event*)::{lambda()#1}, std::__ndk1::allocator<geode::Task<geode::Result<std::__ndk1::vector<Match_s, std::__ndk1::allocator<Match_s> >, std::__ndk1::basic_string<char, std::__ndk1::char_traits<char>, std::__ndk1::allocator<char> > >, std::__ndk1::monostate>::listen<GDWTMenuLayer::init()::$_2, geode::Task<geode::Result<std::__ndk1::vector<Match_s, std::__ndk1::allocator<Match_s> >, std::__ndk1::basic_string<char, std::__ndk1::char_traits<char>, std::__ndk1::allocator<char> > >, std::__ndk1::monostate>::listen<GDWTMenuLayer::init()::$_2>(GDWTMenuLayer::init()::$_2&&) const::{lambda(auto:1 const&)#1}, geode::Task<geode::Result<std::__ndk1::vector<Match_s, std::__ndk1::allocator<Match_s> >, std::__ndk1::basic_string<char, std::__ndk1::char_traits<char>, std::__ndk1::allocator<char> > >, std::__ndk1::monostate>::listen<GDWTMenuLayer::init()::$_2>(GDWTMenuLayer::init()::$_2&&) const::{lambda()#1}>(GDWTMenuLayer::init()::$_2&&, geode::Task<geode::Result<std::__ndk1::vector<Match_s, std::__ndk1::allocator<Match_s> >, std::__ndk1::basic_string<char, std::__ndk1::char_traits<char>, std::__ndk1::allocator<char> > >, std::__ndk1::monostate>::listen<GDWTMenuLayer::init()::$_2>(GDWTMenuLayer::init()::$_2&&) const::{lambda(auto:1 const&)#1}, geode::Task<geode::Result<std::__ndk1::vector<Match_s, std::__ndk1::allocator<Match_s> >, std::__ndk1::basic_string<char, std::__ndk1::char_traits<char>, std::__ndk1::allocator<char> > >, std::__ndk1::monostate>::listen<GDWTMenuLayer::init()::$_2>(GDWTMenuLayer::init()::$_2&&) const::{lambda()#1}&&) const::{lambda(geode::Task<geode::Result<std::__ndk1::vector<Match_s, std::__ndk1::allocator<Match_s> >, std::__ndk1::basic_string<char, std::__ndk1::char_traits<char>, std::__ndk1::allocator<char> > >, std::__ndk1::monostate>::Event*)#1}::operator()(geode::Task<geode::Result<std::__ndk1::vector<Match_s, std::__ndk1::allocator<Match_s> >, std::__ndk1::basic_string<char, std::__ndk1::char_traits<char>, std::__ndk1::allocator<char> > >, std::__ndk1::monostate>::Event*)::{lambda()#1}>, void ()>::target_type() const
PUBLIC 7f3c0 0 geode::Task<geode::Result<std::__ndk1::vector<MatchGroup, std::__ndk1::allocator<MatchGroup> >, std::__ndk1::basic_string<char, std::__ndk1::char_traits<char>, std::__ndk1::allocator<char> > >, std::__ndk1::monostate>::setListener(geode::EventListenerProtocol*)
PUBLIC 7f5dc 0 geode::EventListener<geode::Task<geode::Result<std::__ndk1::vector<MatchGroup, std::__ndk1::allocator<MatchGroup> >, std::__ndk1::basic_string<char, std::__ndk1::char_traits<char>, std::__ndk1::allocator<char> > >, std::__ndk1::monostate> >::getPool() const
PUBLIC 7f5e0 0 geode::EventListener<geode::Task<geode::Result<std::__ndk1::vector<MatchGroup, std::__ndk1::allocator<MatchGroup> >, std::__ndk1::basic_string<char, std::__ndk1::char_traits<char>, std::__ndk1::allocator<char> > >, std::__ndk1::monostate> >::handle(geode::Event*)
PUBLIC 7f7ac 0 geode::EventListener<geode::Task<geode::Result<std::__ndk1::vector<MatchGroup, std::__ndk1::allocator<MatchGroup> >, std::__ndk1::basic_string<char, std::__ndk1::char_traits<char>, std::__ndk1::allocator<char> > >, std::__ndk1::monostate> >::~EventListener()
PUBLIC 7f848 0 geode::EventListener<geode::Task<geode::Result<std::__ndk1::vector<MatchGroup, std::__ndk1::allocator<MatchGroup> >, std::__ndk1::basic_string<char, std::__ndk1::char_traits<char>, std::__ndk1::allocator<char> > >, std::__ndk1::monostate> >::~EventListener()
PUBLIC 7f8ec 0 geode::Task<geode::Result<std::__ndk1::vector<MatchGroup, std::__ndk1::allocator<MatchGroup> >, std::__ndk1::basic_string<char, std::__ndk1::char_traits<char>, std::__ndk1::allocator<char> > >, std::__ndk1::monostate>::setListener(geode::EventListenerProtocol*)::{lambda()#1}::~{lambda()#1}()
PUBLIC 7f93c 0 geode::Task<geode::Result<std::__ndk1::vector<MatchGroup, std::__ndk1::allocator<MatchGroup> >, std::__ndk1::basic_string<char, std::__ndk1::char_traits<char>, std::__ndk1::allocator<char> > >, std::__ndk1::monostate>::setListener(geode::EventListenerProtocol*)::{lambda()#2}::~{lambda()#2}()
PUBLIC 7f98c 0 std::__ndk1::__function::__func<geode::Task<geode::Result<std::__ndk1::vector<MatchGroup, std::__ndk1::allocator<MatchGroup> >, std::__ndk1::basic_string<char, std::__ndk1::char_traits<char>, std::__ndk1::allocator<char> > >, std::__ndk1::monostate>::setListener(geode::EventListenerProtocol*)::{lambda()#1}, std::__ndk1::allocator<geode::Task<geode::Result<std::__ndk1::vector<MatchGroup, std::__ndk1::allocator<MatchGroup> >, std::__ndk1::basic_string<char, std::__ndk1::char_traits<char>, std::__ndk1::allocator<char> > >, std::__ndk1::monostate>::setListener(geode::EventListenerProtocol*)::{lambda()#1}>, void ()>::~__func()
PUBLIC 7f9e8 0 std::__ndk1::__function::__func<geode::Task<geode::Result<std::__ndk1::vector<MatchGroup, std::__ndk1::allocator<MatchGroup> >, std::__ndk1::basic_string<char, std::__ndk1::char_traits<char>, std::__ndk1::allocator<char> > >, std::__ndk1::monostate>::setListener(geode::EventListenerProtocol*)::{lambda()#1}, std::__ndk1::allocator<geode::Task<geode::Result<std::__ndk1::vector<MatchGroup, std::__ndk1::allocator<MatchGroup> >, std::__ndk1::basic_string<char, std::__ndk1::char_traits<char>, std::__ndk1::allocator<char> > >, std::__ndk1::monostate>::setListener(geode::EventListenerProtocol*)::{lambda()#1}>, void ()>::~__func()
PUBLIC 7fa54 0 std::__ndk1::__function::__func<geode::Task<geode::Result<std::__ndk1::vector<MatchGroup, std::__ndk1::allocator<MatchGroup> >, std::__ndk1::basic_string<char, std::__ndk1::char_traits<char>, std::__ndk1::allocator<char> > >, std::__ndk1::monostate>::setListener(geode::EventListenerProtocol*)::{lambda()#1}, std::__ndk1::allocator<geode::Task<geode::Result<std::__ndk1::vector<MatchGroup, std::__ndk1::allocator<MatchGroup> >, std::__ndk1::basic_string<char, std::__ndk1::char_traits<char>, std::__ndk1::allocator<char> > >, std::__ndk1::monostate>::setListener(geode::EventListenerProtocol*)::{lambda()#1}>, void ()>::__clone() const
PUBLIC 7faac 0 std::__ndk1::__function::__func<geode::Task<geode::Result<std::__ndk1::vector<MatchGroup, std::__ndk1::allocator<MatchGroup> >, std::__ndk1::basic_string<char, std::__ndk1::char_traits<char>, std::__ndk1::allocator<char> > >, std::__ndk1::monostate>::setListener(geode::EventListenerProtocol*)::{lambda()#1}, std::__ndk1::allocator<geode::Task<geode::Result<std::__ndk1::vector<MatchGroup, std::__ndk1::allocator<MatchGroup> >, std::__ndk1::basic_string<char, std::__ndk1::char_traits<char>, std::__ndk1::allocator<char> > >, std::__ndk1::monostate>::setListener(geode::EventListenerProtocol*)::{lambda()#1}>, void ()>::__clone(std::__ndk1::__function::__base<void ()>*) const
PUBLIC 7faf8 0 std::__ndk1::__function::__func<geode::Task<geode::Result<std::__ndk1::vector<MatchGroup, std::__ndk1::allocator<MatchGroup> >, std::__ndk1::basic_string<char, std::__ndk1::char_traits<char>, std::__ndk1::allocator<char> > >, std::__ndk1::monostate>::setListener(geode::EventListenerProtocol*)::{lambda()#1}, std::__ndk1::allocator<geode::Task<geode::Result<std::__ndk1::vector<MatchGroup, std::__ndk1::allocator<MatchGroup> >, std::__ndk1::basic_string<char, std::__ndk1::char_traits<char>, std::__ndk1::allocator<char> > >, std::__ndk1::monostate>::setListener(geode::EventListenerProtocol*)::{lambda()#1}>, void ()>::destroy()
PUBLIC 7fb48 0 std::__ndk1::__function::__func<geode::Task<geode::Result<std::__ndk1::vector<MatchGroup, std::__ndk1::allocator<MatchGroup> >, std::__ndk1::basic_string<char, std::__ndk1::char_traits<char>, std::__ndk1::allocator<char> > >, std::__ndk1::monostate>::setListener(geode::EventListenerProtocol*)::{lambda()#1}, std::__ndk1::allocator<geode::Task<geode::Result<std::__ndk1::vector<MatchGroup, std::__ndk1::allocator<MatchGroup> >, std::__ndk1::basic_string<char, std::__ndk1::char_traits<char>, std::__ndk1::allocator<char> > >, std::__ndk1::monostate>::setListener(geode::EventListenerProtocol*)::{lambda()#1}>, void ()>::destroy_deallocate()
PUBLIC 7fba8 0 std::__ndk1::__function::__func<geode::Task<geode::Result<std::__ndk1::vector<MatchGroup, std::__ndk1::allocator<MatchGroup> >, std::__ndk1::basic_string<char, std::__ndk1::char_traits<char>, std::__ndk1::allocator<char> > >, std::__ndk1::monostate>::setListener(geode::EventListenerProtocol*)::{lambda()#1}, std::__ndk1::allocator<geode::Task<geode::Result<std::__ndk1::vector<MatchGroup, std::__ndk1::allocator<MatchGroup> >, std::__ndk1::basic_string<char, std::__ndk1::char_traits<char>, std::__ndk1::allocator<char> > >, std::__ndk1::monostate>::setListener(geode::EventListenerProtocol*)::{lambda()#1}>, void ()>::operator()()
PUBLIC 7fbb0 0 std::__ndk1::__function::__func<geode::Task<geode::Result<std::__ndk1::vector<MatchGroup, std::__ndk1::allocator<MatchGroup> >, std::__ndk1::basic_string<char, std::__ndk1::char_traits<char>, std::__ndk1::allocator<char> > >, std::__ndk1::monostate>::setListener(geode::EventListenerProtocol*)::{lambda()#1}, std::__ndk1::allocator<geode::Task<geode::Result<std::__ndk1::vector<MatchGroup, std::__ndk1::allocator<MatchGroup> >, std::__ndk1::basic_string<char, std::__ndk1::char_traits<char>, std::__ndk1::allocator<char> > >, std::__ndk1::monostate>::setListener(geode::EventListenerProtocol*)::{lambda()#1}>, void ()>::target(std::type_info const&) const
PUBLIC 7fbcc 0 std::__ndk1::__function::__func<geode::Task<geode::Result<std::__ndk1::vector<MatchGroup, std::__ndk1::allocator<MatchGroup> >, std::__ndk1::basic_string<char, std::__ndk1::char_traits<char>, std::__ndk1::allocator<char> > >, std::__ndk1::monostate>::setListener(geode::EventListenerProtocol*)::{lambda()#1}, std::__ndk1::allocator<geode::Task<geode::Result<std::__ndk1::vector<MatchGroup, std::__ndk1::allocator<MatchGroup> >, std::__ndk1::basic_string<char, std::__ndk1::char_traits<char>, std::__ndk1::allocator<char> > >, std::__ndk1::monostate>::setListener(geode::EventListenerProtocol*)::{lambda()#1}>, void ()>::target_type() const
PUBLIC 7fbd8 0 geode::Task<geode::Result<std::__ndk1::vector<MatchGroup, std::__ndk1::allocator<MatchGroup> >, std::__ndk1::basic_string<char, std::__ndk1::char_traits<char>, std::__ndk1::allocator<char> > >, std::__ndk1::monostate>::setListener(geode::EventListenerProtocol*)::{lambda()#1}::operator()() const
PUBLIC 7fda8 0 geode::Task<geode::Result<std::__ndk1::vector<MatchGroup, std::__ndk1::allocator<MatchGroup> >, std::__ndk1::basic_string<char, std::__ndk1::char_traits<char>, std::__ndk1::allocator<char> > >, std::__ndk1::monostate>::Event::~Event()
PUBLIC 7fe08 0 geode::Task<geode::Result<std::__ndk1::vector<MatchGroup, std::__ndk1::allocator<MatchGroup> >, std::__ndk1::basic_string<char, std::__ndk1::char_traits<char>, std::__ndk1::allocator<char> > >, std::__ndk1::monostate>::Event::~Event()
PUBLIC 7fe78 0 std::__ndk1::__function::__func<geode::Task<geode::Result<std::__ndk1::vector<MatchGroup, std::__ndk1::allocator<MatchGroup> >, std::__ndk1::basic_string<char, std::__ndk1::char_traits<char>, std::__ndk1::allocator<char> > >, std::__ndk1::monostate>::setListener(geode::EventListenerProtocol*)::{lambda()#2}, std::__ndk1::allocator<geode::Task<geode::Result<std::__ndk1::vector<MatchGroup, std::__ndk1::allocator<MatchGroup> >, std::__ndk1::basic_string<char, std::__ndk1::char_traits<char>, std::__ndk1::allocator<char> > >, std::__ndk1::monostate>::setListener(geode::EventListenerProtocol*)::{lambda()#2}>, void ()>::~__func()
PUBLIC 7fed4 0 std::__ndk1::__function::__func<geode::Task<geode::Result<std::__ndk1::vector<MatchGroup, std::__ndk1::allocator<MatchGroup> >, std::__ndk1::basic_string<char, std::__ndk1::char_traits<char>, std::__ndk1::allocator<char> > >, std::__ndk1::monostate>::setListener(geode::EventListenerProtocol*)::{lambda()#2}, std::__ndk1::allocator<geode::Task<geode::Result<std::__ndk1::vector<MatchGroup, std::__ndk1::allocator<MatchGroup> >, std::__ndk1::basic_string<char, std::__ndk1::char_traits<char>, std::__ndk1::allocator<char> > >, std::__ndk1::monostate>::setListener(geode::EventListenerProtocol*)::{lambda()#2}>, void ()>::~__func()
PUBLIC 7ff40 0 std::__ndk1::__function::__func<geode::Task<geode::Result<std::__ndk1::vector<MatchGroup, std::__ndk1::allocator<MatchGroup> >, std::__ndk1::basic_string<char, std::__ndk1::char_traits<char>, std::__ndk1::allocator<char> > >, std::__ndk1::monostate>::setListener(geode::EventListenerProtocol*)::{lambda()#2}, std::__ndk1::allocator<geode::Task<geode::Result<std::__ndk1::vector<MatchGroup, std::__ndk1::allocator<MatchGroup> >, std::__ndk1::basic_string<char, std::__ndk1::char_traits<char>, std::__ndk1::allocator<char> > >, std::__ndk1::monostate>::setListener(geode::EventListenerProtocol*)::{lambda()#2}>, void ()>::__clone() const
PUBLIC 7ff98 0 std::__ndk1::__function::__func<geode::Task<geode::Result<std::__ndk1::vector<MatchGroup, std::__ndk1::allocator<MatchGroup> >, std::__ndk1::basic_string<char, std::__ndk1::char_traits<char>, std::__ndk1::allocator<char> > >, std::__ndk1::monostate>::setListener(geode::EventListenerProtocol*)::{lambda()#2}, std::__ndk1::allocator<geode::Task<geode::Result<std::__ndk1::vector<MatchGroup, std::__ndk1::allocator<MatchGroup> >, std::__ndk1::basic_string<char, std::__ndk1::char_traits<char>, std::__ndk1::allocator<char> > >, std::__ndk1::monostate>::setListener(geode::EventListenerProtocol*)::{lambda()#2}>, void ()>::__clone(std::__ndk1::__function::__base<void ()>*) const
PUBLIC 7ffe4 0 std::__ndk1::__function::__func<geode::Task<geode::Result<std::__ndk1::vector<MatchGroup, std::__ndk1::allocator<MatchGroup> >, std::__ndk1::basic_string<char, std::__ndk1::char_traits<char>, std::__ndk1::allocator<char> > >, std::__ndk1::monostate>::setListener(geode::EventListenerProtocol*)::{lambda()#2}, std::__ndk1::allocator<geode::Task<geode::Result<std::__ndk1::vector<MatchGroup, std::__ndk1::allocator<MatchGroup> >, std::__ndk1::basic_string<char, std::__ndk1::char_traits<char>, std::__ndk1::allocator<char> > >, std::__ndk1::monostate>::setListener(geode::EventListenerProtocol*)::{lambda()#2}>, void ()>::destroy()
PUBLIC 80034 0 std::__ndk1::__function::__func<geode::Task<geode::Result<std::__ndk1::vector<MatchGroup, std::__ndk1::allocator<MatchGroup> >, std::__ndk1::basic_string<char, std::__ndk1::char_traits<char>, std::__ndk1::allocator<char> > >, std::__ndk1::monostate>::setListener(geode::EventListenerProtocol*)::{lambda()#2}, std::__ndk1::allocator<geode::Task<geode::Result<std::__ndk1::vector<MatchGroup, std::__ndk1::allocator<MatchGroup> >, std::__ndk1::basic_string<char, std::__ndk1::char_traits<char>, std::__ndk1::allocator<char> > >, std::__ndk1::monostate>::setListener(geode::EventListenerProtocol*)::{lambda()#2}>, void ()>::destroy_deallocate()
PUBLIC 80094 0 std::__ndk1::__function::__func<geode::Task<geode::Result<std::__ndk1::vector<MatchGroup, std::__ndk1::allocator<MatchGroup> >, std::__ndk1::basic_string<char, std::__ndk1::char_traits<char>, std::__ndk1::allocator<char> > >, std::__ndk1::monostate>::setListener(geode::EventListenerProtocol*)::{lambda()#2}, std::__ndk1::allocator<geode::Task<geode::Result<std::__ndk1::vector<MatchGroup, std::__ndk1::allocator<MatchGroup> >, std::__ndk1::basic_string<char, std::__ndk1::char_traits<char>, std::__ndk1::allocator<char> > >, std::__ndk1::monostate>::setListener(geode::EventListenerProtocol*)::{lambda()#2}>, void ()>::operator()()
PUBLIC 8009c 0 std::__ndk1::__function::__func<geode::Task<geode::Result<std::__ndk1::vector<MatchGroup, std::__ndk1::allocator<MatchGroup> >, std::__ndk1::basic_string<char, std::__ndk1::char_traits<char>, std::__ndk1::allocator<char> > >, std::__ndk1::monostate>::setListener(geode::EventListenerProtocol*)::{lambda()#2}, std::__ndk1::allocator<geode::Task<geode::Result<std::__ndk1::vector<MatchGroup, std::__ndk1::allocator<MatchGroup> >, std::__ndk1::basic_string<char, std::__ndk1::char_traits<char>, std::__ndk1::allocator<char> > >, std::__ndk1::monostate>::setListener(geode::EventListenerProtocol*)::{lambda()#2}>, void ()>::target(std::type_info const&) const
PUBLIC 800b8 0 std::__ndk1::__function::__func<geode::Task<geode::Result<std::__ndk1::vector<MatchGroup, std::__ndk1::allocator<MatchGroup> >, std::__ndk1::basic_string<char, std::__ndk1::char_traits<char>, std::__ndk1::allocator<char> > >, std::__ndk1::monostate>::setListener(geode::EventListenerProtocol*)::{lambda()#2}, std::__ndk1::allocator<geode::Task<geode::Result<std::__ndk1::vector<MatchGroup, std::__ndk1::allocator<MatchGroup> >, std::__ndk1::basic_string<char, std::__ndk1::char_traits<char>, std::__ndk1::allocator<char> > >, std::__ndk1::monostate>::setListener(geode::EventListenerProtocol*)::{lambda()#2}>, void ()>::target_type() const
PUBLIC 800c4 0 geode::Task<geode::Result<std::__ndk1::vector<MatchGroup, std::__ndk1::allocator<MatchGroup> >, std::__ndk1::basic_string<char, std::__ndk1::char_traits<char>, std::__ndk1::allocator<char> > >, std::__ndk1::monostate>::setListener(geode::EventListenerProtocol*)::{lambda()#2}::operator()() const
PUBLIC 80288 0 std::__ndk1::__function::__value_func<void (geode::Task<geode::Result<std::__ndk1::vector<MatchGroup, std::__ndk1::allocator<MatchGroup> >, std::__ndk1::basic_string<char, std::__ndk1::char_traits<char>, std::__ndk1::allocator<char> > >, std::__ndk1::monostate>::Event*)>::swap[abi:ne180000](std::__ndk1::__function::__value_func<void (geode::Task<geode::Result<std::__ndk1::vector<MatchGroup, std::__ndk1::allocator<MatchGroup> >, std::__ndk1::basic_string<char, std::__ndk1::char_traits<char>, std::__ndk1::allocator<char> > >, std::__ndk1::monostate>::Event*)>&)
PUBLIC 80420 0 std::__ndk1::__function::__base<void (geode::Task<geode::Result<std::__ndk1::vector<MatchGroup, std::__ndk1::allocator<MatchGroup> >, std::__ndk1::basic_string<char, std::__ndk1::char_traits<char>, std::__ndk1::allocator<char> > >, std::__ndk1::monostate>::Event*)>::~__base()
PUBLIC 80424 0 std::__ndk1::__function::__func<geode::Task<geode::Result<std::__ndk1::vector<MatchGroup, std::__ndk1::allocator<MatchGroup> >, std::__ndk1::basic_string<char, std::__ndk1::char_traits<char>, std::__ndk1::allocator<char> > >, std::__ndk1::monostate>::listen<GDWTMenuLayer::init()::$_3, geode::Task<geode::Result<std::__ndk1::vector<MatchGroup, std::__ndk1::allocator<MatchGroup> >, std::__ndk1::basic_string<char, std::__ndk1::char_traits<char>, std::__ndk1::allocator<char> > >, std::__ndk1::monostate>::listen<GDWTMenuLayer::init()::$_3>(GDWTMenuLayer::init()::$_3&&) const::{lambda(auto:1 const&)#1}, geode::Task<geode::Result<std::__ndk1::vector<MatchGroup, std::__ndk1::allocator<MatchGroup> >, std::__ndk1::basic_string<char, std::__ndk1::char_traits<char>, std::__ndk1::allocator<char> > >, std::__ndk1::monostate>::listen<GDWTMenuLayer::init()::$_3>(GDWTMenuLayer::init()::$_3&&) const::{lambda()#1}>(GDWTMenuLayer::init()::$_3&&, geode::Task<geode::Result<std::__ndk1::vector<MatchGroup, std::__ndk1::allocator<MatchGroup> >, std::__ndk1::basic_string<char, std::__ndk1::char_traits<char>, std::__ndk1::allocator<char> > >, std::__ndk1::monostate>::listen<GDWTMenuLayer::init()::$_3>(GDWTMenuLayer::init()::$_3&&) const::{lambda(auto:1 const&)#1}, geode::Task<geode::Result<std::__ndk1::vector<MatchGroup, std::__ndk1::allocator<MatchGroup> >, std::__ndk1::basic_string<char, std::__ndk1::char_traits<char>, std::__ndk1::allocator<char> > >, std::__ndk1::monostate>::listen<GDWTMenuLayer::init()::$_3>(GDWTMenuLayer::init()::$_3&&) const::{lambda()#1}&&) const::{lambda(geode::Task<geode::Result<std::__ndk1::vector<MatchGroup, std::__ndk1::allocator<MatchGroup> >, std::__ndk1::basic_string<char, std::__ndk1::char_traits<char>, std::__ndk1::allocator<char> > >, std::__ndk1::monostate>::Event*)#1}, std::__ndk1::allocator<geode::Task<geode::Result<std::__ndk1::vector<MatchGroup, std::__ndk1::allocator<MatchGroup> >, std::__ndk1::basic_string<char, std::__ndk1::char_traits<char>, std::__ndk1::allocator<char> > >, std::__ndk1::monostate>::listen<GDWTMenuLayer::init()::$_3, geode::Task<geode::Result<std::__ndk1::vector<MatchGroup, std::__ndk1::allocator<MatchGroup> >, std::__ndk1::basic_string<char, std::__ndk1::char_traits<char>, std::__ndk1::allocator<char> > >, std::__ndk1::monostate>::listen<GDWTMenuLayer::init()::$_3>(GDWTMenuLayer::init()::$_3&&) const::{lambda(auto:1 const&)#1}, geode::Task<geode::Result<std::__ndk1::vector<MatchGroup, std::__ndk1::allocator<MatchGroup> >, std::__ndk1::basic_string<char, std::__ndk1::char_traits<char>, std::__ndk1::allocator<char> > >, std::__ndk1::monostate>::listen<GDWTMenuLayer::init()::$_3>(GDWTMenuLayer::init()::$_3&&) const::{lambda()#1}>(GDWTMenuLayer::init()::$_3&&, geode::Task<geode::Result<std::__ndk1::vector<MatchGroup, std::__ndk1::allocator<MatchGroup> >, std::__ndk1::basic_string<char, std::__ndk1::char_traits<char>, std::__ndk1::allocator<char> > >, std::__ndk1::monostate>::listen<GDWTMenuLayer::init()::$_3>(GDWTMenuLayer::init()::$_3&&) const::{lambda(auto:1 const&)#1}, geode::Task<geode::Result<std::__ndk1::vector<MatchGroup, std::__ndk1::allocator<MatchGroup> >, std::__ndk1::basic_string<char, std::__ndk1::char_traits<char>, std::__ndk1::allocator<char> > >, std::__ndk1::monostate>::listen<GDWTMenuLayer::init()::$_3>(GDWTMenuLayer::init()::$_3&&) const::{lambda()#1}&&) const::{lambda(geode::Task<geode::Result<std::__ndk1::vector<MatchGroup, std::__ndk1::allocator<MatchGroup> >, std::__ndk1::basic_string<char, std::__ndk1::char_traits<char>, std::__ndk1::allocator<char> > >, std::__ndk1::monostate>::Event*)#1}>, void (geode::Task<geode::Result<std::__ndk1::vector<MatchGroup, std::__ndk1::allocator<MatchGroup> >, std::__ndk1::basic_string<char, std::__ndk1::char_traits<char>, std::__ndk1::allocator<char> > >, std::__ndk1::monostate>::Event*)>::~__func()
PUBLIC 80428 0 std::__ndk1::__function::__func<geode::Task<geode::Result<std::__ndk1::vector<MatchGroup, std::__ndk1::allocator<MatchGroup> >, std::__ndk1::basic_string<char, std::__ndk1::char_traits<char>, std::__ndk1::allocator<char> > >, std::__ndk1::monostate>::listen<GDWTMenuLayer::init()::$_3, geode::Task<geode::Result<std::__ndk1::vector<MatchGroup, std::__ndk1::allocator<MatchGroup> >, std::__ndk1::basic_string<char, std::__ndk1::char_traits<char>, std::__ndk1::allocator<char> > >, std::__ndk1::monostate>::listen<GDWTMenuLayer::init()::$_3>(GDWTMenuLayer::init()::$_3&&) const::{lambda(auto:1 const&)#1}, geode::Task<geode::Result<std::__ndk1::vector<MatchGroup, std::__ndk1::allocator<MatchGroup> >, std::__ndk1::basic_string<char, std::__ndk1::char_traits<char>, std::__ndk1::allocator<char> > >, std::__ndk1::monostate>::listen<GDWTMenuLayer::init()::$_3>(GDWTMenuLayer::init()::$_3&&) const::{lambda()#1}>(GDWTMenuLayer::init()::$_3&&, geode::Task<geode::Result<std::__ndk1::vector<MatchGroup, std::__ndk1::allocator<MatchGroup> >, std::__ndk1::basic_string<char, std::__ndk1::char_traits<char>, std::__ndk1::allocator<char> > >, std::__ndk1::monostate>::listen<GDWTMenuLayer::init()::$_3>(GDWTMenuLayer::init()::$_3&&) const::{lambda(auto:1 const&)#1}, geode::Task<geode::Result<std::__ndk1::vector<MatchGroup, std::__ndk1::allocator<MatchGroup> >, std::__ndk1::basic_string<char, std::__ndk1::char_traits<char>, std::__ndk1::allocator<char> > >, std::__ndk1::monostate>::listen<GDWTMenuLayer::init()::$_3>(GDWTMenuLayer::init()::$_3&&) const::{lambda()#1}&&) const::{lambda(geode::Task<geode::Result<std::__ndk1::vector<MatchGroup, std::__ndk1::allocator<MatchGroup> >, std::__ndk1::basic_string<char, std::__ndk1::char_traits<char>, std::__ndk1::allocator<char> > >, std::__ndk1::monostate>::Event*)#1}, std::__ndk1::allocator<geode::Task<geode::Result<std::__ndk1::vector<MatchGroup, std::__ndk1::allocator<MatchGroup> >, std::__ndk1::basic_string<char, std::__ndk1::char_traits<char>, std::__ndk1::allocator<char> > >, std::__ndk1::monostate>::listen<GDWTMenuLayer::init()::$_3, geode::Task<geode::Result<std::__ndk1::vector<MatchGroup, std::__ndk1::allocator<MatchGroup> >, std::__ndk1::basic_string<char, std::__ndk1::char_traits<char>, std::__ndk1::allocator<char> > >, std::__ndk1::monostate>::listen<GDWTMenuLayer::init()::$_3>(GDWTMenuLayer::init()::$_3&&) const::{lambda(auto:1 const&)#1}, geode::Task<geode::Result<std::__ndk1::vector<MatchGroup, std::__ndk1::allocator<MatchGroup> >, std::__ndk1::basic_string<char, std::__ndk1::char_traits<char>, std::__ndk1::allocator<char> > >, std::__ndk1::monostate>::listen<GDWTMenuLayer::init()::$_3>(GDWTMenuLayer::init()::$_3&&) const::{lambda()#1}>(GDWTMenuLayer::init()::$_3&&, geode::Task<geode::Result<std::__ndk1::vector<MatchGroup, std::__ndk1::allocator<MatchGroup> >, std::__ndk1::basic_string<char, std::__ndk1::char_traits<char>, std::__ndk1::allocator<char> > >, std::__ndk1::monostate>::listen<GDWTMenuLayer::init()::$_3>(GDWTMenuLayer::init()::$_3&&) const::{lambda(auto:1 const&)#1}, geode::Task<geode::Result<std::__ndk1::vector<MatchGroup, std::__ndk1::allocator<MatchGroup> >, std::__ndk1::basic_string<char, std::__ndk1::char_traits<char>, std::__ndk1::allocator<char> > >, std::__ndk1::monostate>::listen<GDWTMenuLayer::init()::$_3>(GDWTMenuLayer::init()::$_3&&) const::{lambda()#1}&&) const::{lambda(geode::Task<geode::Result<std::__ndk1::vector<MatchGroup, std::__ndk1::allocator<MatchGroup> >, std::__ndk1::basic_string<char, std::__ndk1::char_traits<char>, std::__ndk1::allocator<char> > >, std::__ndk1::monostate>::Event*)#1}>, void (geode::Task<geode::Result<std::__ndk1::vector<MatchGroup, std::__ndk1::allocator<MatchGroup> >, std::__ndk1::basic_string<char, std::__ndk1::char_traits<char>, std::__ndk1::allocator<char> > >, std::__ndk1::monostate>::Event*)>::__clone() const
PUBLIC 80460 0 _ZNKSt6__ndk110__function6__funcIZNK5geode4TaskINS2_6ResultINS_6vectorI10MatchGroupNS_9allocatorIS6_EEEENS_12basic_stringIcNS_11char_traitsIcEENS7_IcEEEEEENS_9monostateEE6listenIZN13GDWTMenuLayer4initEvE3$_3ZNKSH_6listenISK_EEvOT_EUlRKSM_E_ZNKSL_ISK_EEvSN_EUlvE_EEvSN_OT0_OT1_EUlPNSH_5EventEE_NS7_ISY_EEFvSX_EE7__cloneEPNS0_6__baseIS10_EE
PUBLIC 80478 0 std::__ndk1::__function::__func<geode::Task<geode::Result<std::__ndk1::vector<MatchGroup, std::__ndk1::allocator<MatchGroup> >, std::__ndk1::basic_string<char, std::__ndk1::char_traits<char>, std::__ndk1::allocator<char> > >, std::__ndk1::monostate>::listen<GDWTMenuLayer::init()::$_3, geode::Task<geode::Result<std::__ndk1::vector<MatchGroup, std::__ndk1::allocator<MatchGroup> >, std::__ndk1::basic_string<char, std::__ndk1::char_traits<char>, std::__ndk1::allocator<char> > >, std::__ndk1::monostate>::listen<GDWTMenuLayer::init()::$_3>(GDWTMenuLayer::init()::$_3&&) const::{lambda(auto:1 const&)#1}, geode::Task<geode::Result<std::__ndk1::vector<MatchGroup, std::__ndk1::allocator<MatchGroup> >, std::__ndk1::basic_string<char, std::__ndk1::char_traits<char>, std::__ndk1::allocator<char> > >, std::__ndk1::monostate>::listen<GDWTMenuLayer::init()::$_3>(GDWTMenuLayer::init()::$_3&&) const::{lambda()#1}>(GDWTMenuLayer::init()::$_3&&, geode::Task<geode::Result<std::__ndk1::vector<MatchGroup, std::__ndk1::allocator<MatchGroup> >, std::__ndk1::basic_string<char, std::__ndk1::char_traits<char>, std::__ndk1::allocator<char> > >, std::__ndk1::monostate>::listen<GDWTMenuLayer::init()::$_3>(GDWTMenuLayer::init()::$_3&&) const::{lambda(auto:1 const&)#1}, geode::Task<geode::Result<std::__ndk1::vector<MatchGroup, std::__ndk1::allocator<MatchGroup> >, std::__ndk1::basic_string<char, std::__ndk1::char_traits<char>, std::__ndk1::allocator<char> > >, std::__ndk1::monostate>::listen<GDWTMenuLayer::init()::$_3>(GDWTMenuLayer::init()::$_3&&) const::{lambda()#1}&&) const::{lambda(geode::Task<geode::Result<std::__ndk1::vector<MatchGroup, std::__ndk1::allocator<MatchGroup> >, std::__ndk1::basic_string<char, std::__ndk1::char_traits<char>, std::__ndk1::allocator<char> > >, std::__ndk1::monostate>::Event*)#1}, std::__ndk1::allocator<geode::Task<geode::Result<std::__ndk1::vector<MatchGroup, std::__ndk1::allocator<MatchGroup> >, std::__ndk1::basic_string<char, std::__ndk1::char_traits<char>, std::__ndk1::allocator<char> > >, std::__ndk1::monostate>::listen<GDWTMenuLayer::init()::$_3, geode::Task<geode::Result<std::__ndk1::vector<MatchGroup, std::__ndk1::allocator<MatchGroup> >, std::__ndk1::basic_string<char, std::__ndk1::char_traits<char>, std::__ndk1::allocator<char> > >, std::__ndk1::monostate>::listen<GDWTMenuLayer::init()::$_3>(GDWTMenuLayer::init()::$_3&&) const::{lambda(auto:1 const&)#1}, geode::Task<geode::Result<std::__ndk1::vector<MatchGroup, std::__ndk1::allocator<MatchGroup> >, std::__ndk1::basic_string<char, std::__ndk1::char_traits<char>, std::__ndk1::allocator<char> > >, std::__ndk1::monostate>::listen<GDWTMenuLayer::init()::$_3>(GDWTMenuLayer::init()::$_3&&) const::{lambda()#1}>(GDWTMenuLayer::init()::$_3&&, geode::Task<geode::Result<std::__ndk1::vector<MatchGroup, std::__ndk1::allocator<MatchGroup> >, std::__ndk1::basic_string<char, std::__ndk1::char_traits<char>, std::__ndk1::allocator<char> > >, std::__ndk1::monostate>::listen<GDWTMenuLayer::init()::$_3>(GDWTMenuLayer::init()::$_3&&) const::{lambda(auto:1 const&)#1}, geode::Task<geode::Result<std::__ndk1::vector<MatchGroup, std::__ndk1::allocator<MatchGroup> >, std::__ndk1::basic_string<char, std::__ndk1::char_traits<char>, std::__ndk1::allocator<char> > >, std::__ndk1::monostate>::listen<GDWTMenuLayer::init()::$_3>(GDWTMenuLayer::init()::$_3&&) const::{lambda()#1}&&) const::{lambda(geode::Task<geode::Result<std::__ndk1::vector<MatchGroup, std::__ndk1::allocator<MatchGroup> >, std::__ndk1::basic_string<char, std::__ndk1::char_traits<char>, std::__ndk1::allocator<char> > >, std::__ndk1::monostate>::Event*)#1}>, void (geode::Task<geode::Result<std::__ndk1::vector<MatchGroup, std::__ndk1::allocator<MatchGroup> >, std::__ndk1::basic_string<char, std::__ndk1::char_traits<char>, std::__ndk1::allocator<char> > >, std::__ndk1::monostate>::Event*)>::destroy()
PUBLIC 8047c 0 std::__ndk1::__function::__func<geode::Task<geode::Result<std::__ndk1::vector<MatchGroup, std::__ndk1::allocator<MatchGroup> >, std::__ndk1::basic_string<char, std::__ndk1::char_traits<char>, std::__ndk1::allocator<char> > >, std::__ndk1::monostate>::listen<GDWTMenuLayer::init()::$_3, geode::Task<geode::Result<std::__ndk1::vector<MatchGroup, std::__ndk1::allocator<MatchGroup> >, std::__ndk1::basic_string<char, std::__ndk1::char_traits<char>, std::__ndk1::allocator<char> > >, std::__ndk1::monostate>::listen<GDWTMenuLayer::init()::$_3>(GDWTMenuLayer::init()::$_3&&) const::{lambda(auto:1 const&)#1}, geode::Task<geode::Result<std::__ndk1::vector<MatchGroup, std::__ndk1::allocator<MatchGroup> >, std::__ndk1::basic_string<char, std::__ndk1::char_traits<char>, std::__ndk1::allocator<char> > >, std::__ndk1::monostate>::listen<GDWTMenuLayer::init()::$_3>(GDWTMenuLayer::init()::$_3&&) const::{lambda()#1}>(GDWTMenuLayer::init()::$_3&&, geode::Task<geode::Result<std::__ndk1::vector<MatchGroup, std::__ndk1::allocator<MatchGroup> >, std::__ndk1::basic_string<char, std::__ndk1::char_traits<char>, std::__ndk1::allocator<char> > >, std::__ndk1::monostate>::listen<GDWTMenuLayer::init()::$_3>(GDWTMenuLayer::init()::$_3&&) const::{lambda(auto:1 const&)#1}, geode::Task<geode::Result<std::__ndk1::vector<MatchGroup, std::__ndk1::allocator<MatchGroup> >, std::__ndk1::basic_string<char, std::__ndk1::char_traits<char>, std::__ndk1::allocator<char> > >, std::__ndk1::monostate>::listen<GDWTMenuLayer::init()::$_3>(GDWTMenuLayer::init()::$_3&&) const::{lambda()#1}&&) const::{lambda(geode::Task<geode::Result<std::__ndk1::vector<MatchGroup, std::__ndk1::allocator<MatchGroup> >, std::__ndk1::basic_string<char, std::__ndk1::char_traits<char>, std::__ndk1::allocator<char> > >, std::__ndk1::monostate>::Event*)#1}, std::__ndk1::allocator<geode::Task<geode::Result<std::__ndk1::vector<MatchGroup, std::__ndk1::allocator<MatchGroup> >, std::__ndk1::basic_string<char, std::__ndk1::char_traits<char>, std::__ndk1::allocator<char> > >, std::__ndk1::monostate>::listen<GDWTMenuLayer::init()::$_3, geode::Task<geode::Result<std::__ndk1::vector<MatchGroup, std::__ndk1::allocator<MatchGroup> >, std::__ndk1::basic_string<char, std::__ndk1::char_traits<char>, std::__ndk1::allocator<char> > >, std::__ndk1::monostate>::listen<GDWTMenuLayer::init()::$_3>(GDWTMenuLayer::init()::$_3&&) const::{lambda(auto:1 const&)#1}, geode::Task<geode::Result<std::__ndk1::vector<MatchGroup, std::__ndk1::allocator<MatchGroup> >, std::__ndk1::basic_string<char, std::__ndk1::char_traits<char>, std::__ndk1::allocator<char> > >, std::__ndk1::monostate>::listen<GDWTMenuLayer::init()::$_3>(GDWTMenuLayer::init()::$_3&&) const::{lambda()#1}>(GDWTMenuLayer::init()::$_3&&, geode::Task<geode::Result<std::__ndk1::vector<MatchGroup, std::__ndk1::allocator<MatchGroup> >, std::__ndk1::basic_string<char, std::__ndk1::char_traits<char>, std::__ndk1::allocator<char> > >, std::__ndk1::monostate>::listen<GDWTMenuLayer::init()::$_3>(GDWTMenuLayer::init()::$_3&&) const::{lambda(auto:1 const&)#1}, geode::Task<geode::Result<std::__ndk1::vector<MatchGroup, std::__ndk1::allocator<MatchGroup> >, std::__ndk1::basic_string<char, std::__ndk1::char_traits<char>, std::__ndk1::allocator<char> > >, std::__ndk1::monostate>::listen<GDWTMenuLayer::init()::$_3>(GDWTMenuLayer::init()::$_3&&) const::{lambda()#1}&&) const::{lambda(geode::Task<geode::Result<std::__ndk1::vector<MatchGroup, std::__ndk1::allocator<MatchGroup> >, std::__ndk1::basic_string<char, std::__ndk1::char_traits<char>, std::__ndk1::allocator<char> > >, std::__ndk1::monostate>::Event*)#1}>, void (geode::Task<geode::Result<std::__ndk1::vector<MatchGroup, std::__ndk1::allocator<MatchGroup> >, std::__ndk1::basic_string<char, std::__ndk1::char_traits<char>, std::__ndk1::allocator<char> > >, std::__ndk1::monostate>::Event*)>::destroy_deallocate()
PUBLIC 80480 0 std::__ndk1::__function::__func<geode::Task<geode::Result<std::__ndk1::vector<MatchGroup, std::__ndk1::allocator<MatchGroup> >, std::__ndk1::basic_string<char, std::__ndk1::char_traits<char>, std::__ndk1::allocator<char> > >, std::__ndk1::monostate>::listen<GDWTMenuLayer::init()::$_3, geode::Task<geode::Result<std::__ndk1::vector<MatchGroup, std::__ndk1::allocator<MatchGroup> >, std::__ndk1::basic_string<char, std::__ndk1::char_traits<char>, std::__ndk1::allocator<char> > >, std::__ndk1::monostate>::listen<GDWTMenuLayer::init()::$_3>(GDWTMenuLayer::init()::$_3&&) const::{lambda(auto:1 const&)#1}, geode::Task<geode::Result<std::__ndk1::vector<MatchGroup, std::__ndk1::allocator<MatchGroup> >, std::__ndk1::basic_string<char, std::__ndk1::char_traits<char>, std::__ndk1::allocator<char> > >, std::__ndk1::monostate>::listen<GDWTMenuLayer::init()::$_3>(GDWTMenuLayer::init()::$_3&&) const::{lambda()#1}>(GDWTMenuLayer::init()::$_3&&, geode::Task<geode::Result<std::__ndk1::vector<MatchGroup, std::__ndk1::allocator<MatchGroup> >, std::__ndk1::basic_string<char, std::__ndk1::char_traits<char>, std::__ndk1::allocator<char> > >, std::__ndk1::monostate>::listen<GDWTMenuLayer::init()::$_3>(GDWTMenuLayer::init()::$_3&&) const::{lambda(auto:1 const&)#1}, geode::Task<geode::Result<std::__ndk1::vector<MatchGroup, std::__ndk1::allocator<MatchGroup> >, std::__ndk1::basic_string<char, std::__ndk1::char_traits<char>, std::__ndk1::allocator<char> > >, std::__ndk1::monostate>::listen<GDWTMenuLayer::init()::$_3>(GDWTMenuLayer::init()::$_3&&) const::{lambda()#1}&&) const::{lambda(geode::Task<geode::Result<std::__ndk1::vector<MatchGroup, std::__ndk1::allocator<MatchGroup> >, std::__ndk1::basic_string<char, std::__ndk1::char_traits<char>, std::__ndk1::allocator<char> > >, std::__ndk1::monostate>::Event*)#1}, std::__ndk1::allocator<geode::Task<geode::Result<std::__ndk1::vector<MatchGroup, std::__ndk1::allocator<MatchGroup> >, std::__ndk1::basic_string<char, std::__ndk1::char_traits<char>, std::__ndk1::allocator<char> > >, std::__ndk1::monostate>::listen<GDWTMenuLayer::init()::$_3, geode::Task<geode::Result<std::__ndk1::vector<MatchGroup, std::__ndk1::allocator<MatchGroup> >, std::__ndk1::basic_string<char, std::__ndk1::char_traits<char>, std::__ndk1::allocator<char> > >, std::__ndk1::monostate>::listen<GDWTMenuLayer::init()::$_3>(GDWTMenuLayer::init()::$_3&&) const::{lambda(auto:1 const&)#1}, geode::Task<geode::Result<std::__ndk1::vector<MatchGroup, std::__ndk1::allocator<MatchGroup> >, std::__ndk1::basic_string<char, std::__ndk1::char_traits<char>, std::__ndk1::allocator<char> > >, std::__ndk1::monostate>::listen<GDWTMenuLayer::init()::$_3>(GDWTMenuLayer::init()::$_3&&) const::{lambda()#1}>(GDWTMenuLayer::init()::$_3&&, geode::Task<geode::Result<std::__ndk1::vector<MatchGroup, std::__ndk1::allocator<MatchGroup> >, std::__ndk1::basic_string<char, std::__ndk1::char_traits<char>, std::__ndk1::allocator<char> > >, std::__ndk1::monostate>::listen<GDWTMenuLayer::init()::$_3>(GDWTMenuLayer::init()::$_3&&) const::{lambda(auto:1 const&)#1}, geode::Task<geode::Result<std::__ndk1::vector<MatchGroup, std::__ndk1::allocator<MatchGroup> >, std::__ndk1::basic_string<char, std::__ndk1::char_traits<char>, std::__ndk1::allocator<char> > >, std::__ndk1::monostate>::listen<GDWTMenuLayer::init()::$_3>(GDWTMenuLayer::init()::$_3&&) const::{lambda()#1}&&) const::{lambda(geode::Task<geode::Result<std::__ndk1::vector<MatchGroup, std::__ndk1::allocator<MatchGroup> >, std::__ndk1::basic_string<char, std::__ndk1::char_traits<char>, std::__ndk1::allocator<char> > >, std::__ndk1::monostate>::Event*)#1}>, void (geode::Task<geode::Result<std::__ndk1::vector<MatchGroup, std::__ndk1::allocator<MatchGroup> >, std::__ndk1::basic_string<char, std::__ndk1::char_traits<char>, std::__ndk1::allocator<char> > >, std::__ndk1::monostate>::Event*)>::operator()(geode::Task<geode::Result<std::__ndk1::vector<MatchGroup, std::__ndk1::allocator<MatchGroup> >, std::__ndk1::basic_string<char, std::__ndk1::char_traits<char>, std::__ndk1::allocator<char> > >, std::__ndk1::monostate>::Event*&&)
PUBLIC 8058c 0 std::__ndk1::__function::__func<geode::Task<geode::Result<std::__ndk1::vector<MatchGroup, std::__ndk1::allocator<MatchGroup> >, std::__ndk1::basic_string<char, std::__ndk1::char_traits<char>, std::__ndk1::allocator<char> > >, std::__ndk1::monostate>::listen<GDWTMenuLayer::init()::$_3, geode::Task<geode::Result<std::__ndk1::vector<MatchGroup, std::__ndk1::allocator<MatchGroup> >, std::__ndk1::basic_string<char, std::__ndk1::char_traits<char>, std::__ndk1::allocator<char> > >, std::__ndk1::monostate>::listen<GDWTMenuLayer::init()::$_3>(GDWTMenuLayer::init()::$_3&&) const::{lambda(auto:1 const&)#1}, geode::Task<geode::Result<std::__ndk1::vector<MatchGroup, std::__ndk1::allocator<MatchGroup> >, std::__ndk1::basic_string<char, std::__ndk1::char_traits<char>, std::__ndk1::allocator<char> > >, std::__ndk1::monostate>::listen<GDWTMenuLayer::init()::$_3>(GDWTMenuLayer::init()::$_3&&) const::{lambda()#1}>(GDWTMenuLayer::init()::$_3&&, geode::Task<geode::Result<std::__ndk1::vector<MatchGroup, std::__ndk1::allocator<MatchGroup> >, std::__ndk1::basic_string<char, std::__ndk1::char_traits<char>, std::__ndk1::allocator<char> > >, std::__ndk1::monostate>::listen<GDWTMenuLayer::init()::$_3>(GDWTMenuLayer::init()::$_3&&) const::{lambda(auto:1 const&)#1}, geode::Task<geode::Result<std::__ndk1::vector<MatchGroup, std::__ndk1::allocator<MatchGroup> >, std::__ndk1::basic_string<char, std::__ndk1::char_traits<char>, std::__ndk1::allocator<char> > >, std::__ndk1::monostate>::listen<GDWTMenuLayer::init()::$_3>(GDWTMenuLayer::init()::$_3&&) const::{lambda()#1}&&) const::{lambda(geode::Task<geode::Result<std::__ndk1::vector<MatchGroup, std::__ndk1::allocator<MatchGroup> >, std::__ndk1::basic_string<char, std::__ndk1::char_traits<char>, std::__ndk1::allocator<char> > >, std::__ndk1::monostate>::Event*)#1}, std::__ndk1::allocator<geode::Task<geode::Result<std::__ndk1::vector<MatchGroup, std::__ndk1::allocator<MatchGroup> >, std::__ndk1::basic_string<char, std::__ndk1::char_traits<char>, std::__ndk1::allocator<char> > >, std::__ndk1::monostate>::listen<GDWTMenuLayer::init()::$_3, geode::Task<geode::Result<std::__ndk1::vector<MatchGroup, std::__ndk1::allocator<MatchGroup> >, std::__ndk1::basic_string<char, std::__ndk1::char_traits<char>, std::__ndk1::allocator<char> > >, std::__ndk1::monostate>::listen<GDWTMenuLayer::init()::$_3>(GDWTMenuLayer::init()::$_3&&) const::{lambda(auto:1 const&)#1}, geode::Task<geode::Result<std::__ndk1::vector<MatchGroup, std::__ndk1::allocator<MatchGroup> >, std::__ndk1::basic_string<char, std::__ndk1::char_traits<char>, std::__ndk1::allocator<char> > >, std::__ndk1::monostate>::listen<GDWTMenuLayer::init()::$_3>(GDWTMenuLayer::init()::$_3&&) const::{lambda()#1}>(GDWTMenuLayer::init()::$_3&&, geode::Task<geode::Result<std::__ndk1::vector<MatchGroup, std::__ndk1::allocator<MatchGroup> >, std::__ndk1::basic_string<char, std::__ndk1::char_traits<char>, std::__ndk1::allocator<char> > >, std::__ndk1::monostate>::listen<GDWTMenuLayer::init()::$_3>(GDWTMenuLayer::init()::$_3&&) const::{lambda(auto:1 const&)#1}, geode::Task<geode::Result<std::__ndk1::vector<MatchGroup, std::__ndk1::allocator<MatchGroup> >, std::__ndk1::basic_string<char, std::__ndk1::char_traits<char>, std::__ndk1::allocator<char> > >, std::__ndk1::monostate>::listen<GDWTMenuLayer::init()::$_3>(GDWTMenuLayer::init()::$_3&&) const::{lambda()#1}&&) const::{lambda(geode::Task<geode::Result<std::__ndk1::vector<MatchGroup, std::__ndk1::allocator<MatchGroup> >, std::__ndk1::basic_string<char, std::__ndk1::char_traits<char>, std::__ndk1::allocator<char> > >, std::__ndk1::monostate>::Event*)#1}>, void (geode::Task<geode::Result<std::__ndk1::vector<MatchGroup, std::__ndk1::allocator<MatchGroup> >, std::__ndk1::basic_string<char, std::__ndk1::char_traits<char>, std::__ndk1::allocator<char> > >, std::__ndk1::monostate>::Event*)>::target(std::type_info const&) const
PUBLIC 805a8 0 std::__ndk1::__function::__func<geode::Task<geode::Result<std::__ndk1::vector<MatchGroup, std::__ndk1::allocator<MatchGroup> >, std::__ndk1::basic_string<char, std::__ndk1::char_traits<char>, std::__ndk1::allocator<char> > >, std::__ndk1::monostate>::listen<GDWTMenuLayer::init()::$_3, geode::Task<geode::Result<std::__ndk1::vector<MatchGroup, std::__ndk1::allocator<MatchGroup> >, std::__ndk1::basic_string<char, std::__ndk1::char_traits<char>, std::__ndk1::allocator<char> > >, std::__ndk1::monostate>::listen<GDWTMenuLayer::init()::$_3>(GDWTMenuLayer::init()::$_3&&) const::{lambda(auto:1 const&)#1}, geode::Task<geode::Result<std::__ndk1::vector<MatchGroup, std::__ndk1::allocator<MatchGroup> >, std::__ndk1::basic_string<char, std::__ndk1::char_traits<char>, std::__ndk1::allocator<char> > >, std::__ndk1::monostate>::listen<GDWTMenuLayer::init()::$_3>(GDWTMenuLayer::init()::$_3&&) const::{lambda()#1}>(GDWTMenuLayer::init()::$_3&&, geode::Task<geode::Result<std::__ndk1::vector<MatchGroup, std::__ndk1::allocator<MatchGroup> >, std::__ndk1::basic_string<char, std::__ndk1::char_traits<char>, std::__ndk1::allocator<char> > >, std::__ndk1::monostate>::listen<GDWTMenuLayer::init()::$_3>(GDWTMenuLayer::init()::$_3&&) const::{lambda(auto:1 const&)#1}, geode::Task<geode::Result<std::__ndk1::vector<MatchGroup, std::__ndk1::allocator<MatchGroup> >, std::__ndk1::basic_string<char, std::__ndk1::char_traits<char>, std::__ndk1::allocator<char> > >, std::__ndk1::monostate>::listen<GDWTMenuLayer::init()::$_3>(GDWTMenuLayer::init()::$_3&&) const::{lambda()#1}&&) const::{lambda(geode::Task<geode::Result<std::__ndk1::vector<MatchGroup, std::__ndk1::allocator<MatchGroup> >, std::__ndk1::basic_string<char, std::__ndk1::char_traits<char>, std::__ndk1::allocator<char> > >, std::__ndk1::monostate>::Event*)#1}, std::__ndk1::allocator<geode::Task<geode::Result<std::__ndk1::vector<MatchGroup, std::__ndk1::allocator<MatchGroup> >, std::__ndk1::basic_string<char, std::__ndk1::char_traits<char>, std::__ndk1::allocator<char> > >, std::__ndk1::monostate>::listen<GDWTMenuLayer::init()::$_3, geode::Task<geode::Result<std::__ndk1::vector<MatchGroup, std::__ndk1::allocator<MatchGroup> >, std::__ndk1::basic_string<char, std::__ndk1::char_traits<char>, std::__ndk1::allocator<char> > >, std::__ndk1::monostate>::listen<GDWTMenuLayer::init()::$_3>(GDWTMenuLayer::init()::$_3&&) const::{lambda(auto:1 const&)#1}, geode::Task<geode::Result<std::__ndk1::vector<MatchGroup, std::__ndk1::allocator<MatchGroup> >, std::__ndk1::basic_string<char, std::__ndk1::char_traits<char>, std::__ndk1::allocator<char> > >, std::__ndk1::monostate>::listen<GDWTMenuLayer::init()::$_3>(GDWTMenuLayer::init()::$_3&&) const::{lambda()#1}>(GDWTMenuLayer::init()::$_3&&, geode::Task<geode::Result<std::__ndk1::vector<MatchGroup, std::__ndk1::allocator<MatchGroup> >, std::__ndk1::basic_string<char, std::__ndk1::char_traits<char>, std::__ndk1::allocator<char> > >, std::__ndk1::monostate>::listen<GDWTMenuLayer::init()::$_3>(GDWTMenuLayer::init()::$_3&&) const::{lambda(auto:1 const&)#1}, geode::Task<geode::Result<std::__ndk1::vector<MatchGroup, std::__ndk1::allocator<MatchGroup> >, std::__ndk1::basic_string<char, std::__ndk1::char_traits<char>, std::__ndk1::allocator<char> > >, std::__ndk1::monostate>::listen<GDWTMenuLayer::init()::$_3>(GDWTMenuLayer::init()::$_3&&) const::{lambda()#1}&&) const::{lambda(geode::Task<geode::Result<std::__ndk1::vector<MatchGroup, std::__ndk1::allocator<MatchGroup> >, std::__ndk1::basic_string<char, std::__ndk1::char_traits<char>, std::__ndk1::allocator<char> > >, std::__ndk1::monostate>::Event*)#1}>, void (geode::Task<geode::Result<std::__ndk1::vector<MatchGroup, std::__ndk1::allocator<MatchGroup> >, std::__ndk1::basic_string<char, std::__ndk1::char_traits<char>, std::__ndk1::allocator<char> > >, std::__ndk1::monostate>::Event*)>::target_type() const
PUBLIC 805b4 0 std::__ndk1::__function::__base<void ()>::~__base()
PUBLIC 805b8 0 _ZNSt6__ndk110__function6__funcIZZNK5geode4TaskINS2_6ResultINS_6vectorI10MatchGroupNS_9allocatorIS6_EEEENS_12basic_stringIcNS_11char_traitsIcEENS7_IcEEEEEENS_9monostateEE6listenIZN13GDWTMenuLayer4initEvE3$_3ZNKSH_6listenISK_EEvOT_EUlRKSM_E_ZNKSL_ISK_EEvSN_EUlvE_EEvSN_OT0_OT1_ENUlPNSH_5EventEE_clESX_EUlvE_NS7_ISZ_EEFvvEED0Ev
PUBLIC 805bc 0 _ZNKSt6__ndk110__function6__funcIZZNK5geode4TaskINS2_6ResultINS_6vectorI10MatchGroupNS_9allocatorIS6_EEEENS_12basic_stringIcNS_11char_traitsIcEENS7_IcEEEEEENS_9monostateEE6listenIZN13GDWTMenuLayer4initEvE3$_3ZNKSH_6listenISK_EEvOT_EUlRKSM_E_ZNKSL_ISK_EEvSN_EUlvE_EEvSN_OT0_OT1_ENUlPNSH_5EventEE_clESX_EUlvE_NS7_ISZ_EEFvvEE7__cloneEv
PUBLIC 805f0 0 _ZNKSt6__ndk110__function6__funcIZZNK5geode4TaskINS2_6ResultINS_6vectorI10MatchGroupNS_9allocatorIS6_EEEENS_12basic_stringIcNS_11char_traitsIcEENS7_IcEEEEEENS_9monostateEE6listenIZN13GDWTMenuLayer4initEvE3$_3ZNKSH_6listenISK_EEvOT_EUlRKSM_E_ZNKSL_ISK_EEvSN_EUlvE_EEvSN_OT0_OT1_ENUlPNSH_5EventEE_clESX_EUlvE_NS7_ISZ_EEFvvEE7__cloneEPNS0_6__baseIS11_EE
PUBLIC 80604 0 _ZNSt6__ndk110__function6__funcIZZNK5geode4TaskINS2_6ResultINS_6vectorI10MatchGroupNS_9allocatorIS6_EEEENS_12basic_stringIcNS_11char_traitsIcEENS7_IcEEEEEENS_9monostateEE6listenIZN13GDWTMenuLayer4initEvE3$_3ZNKSH_6listenISK_EEvOT_EUlRKSM_E_ZNKSL_ISK_EEvSN_EUlvE_EEvSN_OT0_OT1_ENUlPNSH_5EventEE_clESX_EUlvE_NS7_ISZ_EEFvvEE7destroyEv
PUBLIC 80608 0 _ZNSt6__ndk110__function6__funcIZZNK5geode4TaskINS2_6ResultINS_6vectorI10MatchGroupNS_9allocatorIS6_EEEENS_12basic_stringIcNS_11char_traitsIcEENS7_IcEEEEEENS_9monostateEE6listenIZN13GDWTMenuLayer4initEvE3$_3ZNKSH_6listenISK_EEvOT_EUlRKSM_E_ZNKSL_ISK_EEvSN_EUlvE_EEvSN_OT0_OT1_ENUlPNSH_5EventEE_clESX_EUlvE_NS7_ISZ_EEFvvEE18destroy_deallocateEv
PUBLIC 8060c 0 _ZNSt6__ndk110__function6__funcIZZNK5geode4TaskINS2_6ResultINS_6vectorI10MatchGroupNS_9allocatorIS6_EEEENS_12basic_stringIcNS_11char_traitsIcEENS7_IcEEEEEENS_9monostateEE6listenIZN13GDWTMenuLayer4initEvE3$_3ZNKSH_6listenISK_EEvOT_EUlRKSM_E_ZNKSL_ISK_EEvSN_EUlvE_EEvSN_OT0_OT1_ENUlPNSH_5EventEE_clESX_EUlvE_NS7_ISZ_EEFvvEEclEv
PUBLIC 80624 0 _ZNKSt6__ndk110__function6__funcIZZNK5geode4TaskINS2_6ResultINS_6vectorI10MatchGroupNS_9allocatorIS6_EEEENS_12basic_stringIcNS_11char_traitsIcEENS7_IcEEEEEENS_9monostateEE6listenIZN13GDWTMenuLayer4initEvE3$_3ZNKSH_6listenISK_EEvOT_EUlRKSM_E_ZNKSL_ISK_EEvSN_EUlvE_EEvSN_OT0_OT1_ENUlPNSH_5EventEE_clESX_EUlvE_NS7_ISZ_EEFvvEE6targetERKSt9type_info
PUBLIC 80640 0 _ZNKSt6__ndk110__function6__funcIZZNK5geode4TaskINS2_6ResultINS_6vectorI10MatchGroupNS_9allocatorIS6_EEEENS_12basic_stringIcNS_11char_traitsIcEENS7_IcEEEEEENS_9monostateEE6listenIZN13GDWTMenuLayer4initEvE3$_3ZNKSH_6listenISK_EEvOT_EUlRKSM_E_ZNKSL_ISK_EEvSN_EUlvE_EEvSN_OT0_OT1_ENUlPNSH_5EventEE_clESX_EUlvE_NS7_ISZ_EEFvvEE11target_typeEv
PUBLIC 8064c 0 cocos2d::CCLayerRGBA::setOpacityModifyRGB(bool)
PUBLIC 80650 0 cocos2d::CCLayerRGBA::isOpacityModifyRGB()
PUBLIC 80658 0 {virtual override thunk({offset(-408)}, cocos2d::CCLayerRGBA::setOpacityModifyRGB(bool))}
PUBLIC 8065c 0 {virtual override thunk({offset(-408)}, cocos2d::CCLayerRGBA::isOpacityModifyRGB())}
PUBLIC 80664 0 __cxx_global_var_init
PUBLIC 80ae4 0 geode::modifier::ModifyBase<geode::modifier::ModifyDerive<GDWTPauseLayer, PauseLayer> >::~ModifyBase()
PUBLIC 80b00 0 geode::modifier::ModifyDerive<GDWTPauseLayer, PauseLayer>::apply()
PUBLIC 80e30 0 geode::modifier::ModifyBase<geode::modifier::ModifyDerive<GDWTPauseLayer, PauseLayer> >::apply()
PUBLIC 80e34 0 geode::modifier::AsStaticFunction_customSetup<GDWTPauseLayer, void (GDWTPauseLayer::*)()>::Impl<void (GDWTPauseLayer::*)()>::function(GDWTPauseLayer*)
PUBLIC 80f38 0 geode::addresser::Addresser::addressOfVirtual<void, PauseLayer, >(void (PauseLayer::*)())
PUBLIC 80fe0 0 PauseLayer::PauseLayer(geode::ZeroConstructorType)
PUBLIC 8106c 0 GDWTPlayLayer::sendProgressMessage(int, GJGameLevel*, int)
PUBLIC 818ec 0 GDWTPlayLayer::onDiscordMessageSent(geode::Task<geode::Result<void, std::__ndk1::basic_string<char, std::__ndk1::char_traits<char>, std::__ndk1::allocator<char> > >, std::__ndk1::monostate>::Event*)
PUBLIC 818f0 0 geode::Task<geode::Result<void, std::__ndk1::basic_string<char, std::__ndk1::char_traits<char>, std::__ndk1::allocator<char> > >, std::__ndk1::monostate>::~Task()
PUBLIC 81940 0 DiscordMessage::~DiscordMessage()
PUBLIC 819b8 0 DiscordEmbed::~DiscordEmbed()
PUBLIC 81a6c 0 __cxx_global_var_init
PUBLIC 81eec 0 geode::modifier::ModifyBase<geode::modifier::ModifyDerive<GDWTPlayLayer, PlayLayer> >::~ModifyBase()
PUBLIC 81f08 0 geode::modifier::FieldIntermediate<GDWTPlayLayer, PlayLayer>::self()
PUBLIC 8215c 0 geode::modifier::FieldContainer::getField(unsigned long)
PUBLIC 82414 0 geode::modifier::FieldContainer::setField(unsigned long, unsigned long, std::__ndk1::function<void (void*)>)
PUBLIC 82528 0 geode::modifier::FieldIntermediate<GDWTPlayLayer, PlayLayer>::fieldDestructor(void*)
PUBLIC 825d0 0 std::__ndk1::vector<void*, std::__ndk1::allocator<void*> >::__throw_length_error[abi:ne180000]() const
PUBLIC 825e4 0 std::__ndk1::vector<std::__ndk1::function<void (void*)>, std::__ndk1::allocator<std::__ndk1::function<void (void*)> > >::__push_back_slow_path<std::__ndk1::function<void (void*)> >(std::__ndk1::function<void (void*)>&&)
PUBLIC 82810 0 std::__ndk1::vector<std::__ndk1::function<void (void*)>, std::__ndk1::allocator<std::__ndk1::function<void (void*)> > >::__throw_length_error[abi:ne180000]() const
PUBLIC 82824 0 std::__ndk1::vector<void*, std::__ndk1::allocator<void*> >::__throw_out_of_range[abi:ne180000]() const
PUBLIC 82838 0 std::__ndk1::__throw_out_of_range[abi:ne180000](char const*)
PUBLIC 82888 0 std::out_of_range::out_of_range[abi:ne180000](char const*)
PUBLIC 828b8 0 std::__ndk1::vector<std::__ndk1::function<void (void*)>, std::__ndk1::allocator<std::__ndk1::function<void (void*)> > >::__throw_out_of_range[abi:ne180000]() const
PUBLIC 828cc 0 geode::EventListener<geode::Task<geode::Result<void, std::__ndk1::basic_string<char, std::__ndk1::char_traits<char>, std::__ndk1::allocator<char> > >, std::__ndk1::monostate> >::~EventListener()
PUBLIC 82968 0 geode::EventListener<geode::Task<geode::Result<void, std::__ndk1::basic_string<char, std::__ndk1::char_traits<char>, std::__ndk1::allocator<char> > >, std::__ndk1::monostate> >::getPool() const
PUBLIC 8296c 0 geode::EventListener<geode::Task<geode::Result<void, std::__ndk1::basic_string<char, std::__ndk1::char_traits<char>, std::__ndk1::allocator<char> > >, std::__ndk1::monostate> >::handle(geode::Event*)
PUBLIC 82b38 0 geode::EventListener<geode::Task<geode::Result<void, std::__ndk1::basic_string<char, std::__ndk1::char_traits<char>, std::__ndk1::allocator<char> > >, std::__ndk1::monostate> >::~EventListener()
PUBLIC 82bdc 0 std::__ndk1::__function::__base<void (void*)>::~__base()
PUBLIC 82be0 0 std::__ndk1::__function::__func<void (*)(void*), std::__ndk1::allocator<void (*)(void*)>, void (void*)>::~__func()
PUBLIC 82be4 0 std::__ndk1::__function::__func<void (*)(void*), std::__ndk1::allocator<void (*)(void*)>, void (void*)>::__clone() const
PUBLIC 82c1c 0 std::__ndk1::__function::__func<void (*)(void*), std::__ndk1::allocator<void (*)(void*)>, void (void*)>::__clone(std::__ndk1::__function::__base<void (void*)>*) const
PUBLIC 82c34 0 std::__ndk1::__function::__func<void (*)(void*), std::__ndk1::allocator<void (*)(void*)>, void (void*)>::destroy()
PUBLIC 82c38 0 std::__ndk1::__function::__func<void (*)(void*), std::__ndk1::allocator<void (*)(void*)>, void (void*)>::destroy_deallocate()
PUBLIC 82c3c 0 std::__ndk1::__function::__func<void (*)(void*), std::__ndk1::allocator<void (*)(void*)>, void (void*)>::operator()(void*&&)
PUBLIC 82c4c 0 std::__ndk1::__function::__func<void (*)(void*), std::__ndk1::allocator<void (*)(void*)>, void (void*)>::target(std::type_info const&) const
PUBLIC 82c68 0 std::__ndk1::__function::__func<void (*)(void*), std::__ndk1::allocator<void (*)(void*)>, void (void*)>::target_type() const
PUBLIC 82c74 0 geode::Task<geode::Result<void, std::__ndk1::basic_string<char, std::__ndk1::char_traits<char>, std::__ndk1::allocator<char> > >, std::__ndk1::monostate>::setListener(geode::EventListenerProtocol*)
PUBLIC 82e90 0 geode::Task<geode::Result<void, std::__ndk1::basic_string<char, std::__ndk1::char_traits<char>, std::__ndk1::allocator<char> > >, std::__ndk1::monostate>::setListener(geode::EventListenerProtocol*)::{lambda()#1}::~{lambda()#1}()
PUBLIC 82ee0 0 geode::Task<geode::Result<void, std::__ndk1::basic_string<char, std::__ndk1::char_traits<char>, std::__ndk1::allocator<char> > >, std::__ndk1::monostate>::setListener(geode::EventListenerProtocol*)::{lambda()#2}::~{lambda()#2}()
PUBLIC 82f30 0 std::__ndk1::__function::__func<geode::Task<geode::Result<void, std::__ndk1::basic_string<char, std::__ndk1::char_traits<char>, std::__ndk1::allocator<char> > >, std::__ndk1::monostate>::setListener(geode::EventListenerProtocol*)::{lambda()#1}, std::__ndk1::allocator<geode::Task<geode::Result<void, std::__ndk1::basic_string<char, std::__ndk1::char_traits<char>, std::__ndk1::allocator<char> > >, std::__ndk1::monostate>::setListener(geode::EventListenerProtocol*)::{lambda()#1}>, void ()>::~__func()
PUBLIC 82f8c 0 std::__ndk1::__function::__func<geode::Task<geode::Result<void, std::__ndk1::basic_string<char, std::__ndk1::char_traits<char>, std::__ndk1::allocator<char> > >, std::__ndk1::monostate>::setListener(geode::EventListenerProtocol*)::{lambda()#1}, std::__ndk1::allocator<geode::Task<geode::Result<void, std::__ndk1::basic_string<char, std::__ndk1::char_traits<char>, std::__ndk1::allocator<char> > >, std::__ndk1::monostate>::setListener(geode::EventListenerProtocol*)::{lambda()#1}>, void ()>::~__func()
PUBLIC 82ff8 0 std::__ndk1::__function::__func<geode::Task<geode::Result<void, std::__ndk1::basic_string<char, std::__ndk1::char_traits<char>, std::__ndk1::allocator<char> > >, std::__ndk1::monostate>::setListener(geode::EventListenerProtocol*)::{lambda()#1}, std::__ndk1::allocator<geode::Task<geode::Result<void, std::__ndk1::basic_string<char, std::__ndk1::char_traits<char>, std::__ndk1::allocator<char> > >, std::__ndk1::monostate>::setListener(geode::EventListenerProtocol*)::{lambda()#1}>, void ()>::__clone() const
PUBLIC 83050 0 std::__ndk1::__function::__func<geode::Task<geode::Result<void, std::__ndk1::basic_string<char, std::__ndk1::char_traits<char>, std::__ndk1::allocator<char> > >, std::__ndk1::monostate>::setListener(geode::EventListenerProtocol*)::{lambda()#1}, std::__ndk1::allocator<geode::Task<geode::Result<void, std::__ndk1::basic_string<char, std::__ndk1::char_traits<char>, std::__ndk1::allocator<char> > >, std::__ndk1::monostate>::setListener(geode::EventListenerProtocol*)::{lambda()#1}>, void ()>::__clone(std::__ndk1::__function::__base<void ()>*) const
PUBLIC 8309c 0 std::__ndk1::__function::__func<geode::Task<geode::Result<void, std::__ndk1::basic_string<char, std::__ndk1::char_traits<char>, std::__ndk1::allocator<char> > >, std::__ndk1::monostate>::setListener(geode::EventListenerProtocol*)::{lambda()#1}, std::__ndk1::allocator<geode::Task<geode::Result<void, std::__ndk1::basic_string<char, std::__ndk1::char_traits<char>, std::__ndk1::allocator<char> > >, std::__ndk1::monostate>::setListener(geode::EventListenerProtocol*)::{lambda()#1}>, void ()>::destroy()
PUBLIC 830ec 0 std::__ndk1::__function::__func<geode::Task<geode::Result<void, std::__ndk1::basic_string<char, std::__ndk1::char_traits<char>, std::__ndk1::allocator<char> > >, std::__ndk1::monostate>::setListener(geode::EventListenerProtocol*)::{lambda()#1}, std::__ndk1::allocator<geode::Task<geode::Result<void, std::__ndk1::basic_string<char, std::__ndk1::char_traits<char>, std::__ndk1::allocator<char> > >, std::__ndk1::monostate>::setListener(geode::EventListenerProtocol*)::{lambda()#1}>, void ()>::destroy_deallocate()
PUBLIC 8314c 0 std::__ndk1::__function::__func<geode::Task<geode::Result<void, std::__ndk1::basic_string<char, std::__ndk1::char_traits<char>, std::__ndk1::allocator<char> > >, std::__ndk1::monostate>::setListener(geode::EventListenerProtocol*)::{lambda()#1}, std::__ndk1::allocator<geode::Task<geode::Result<void, std::__ndk1::basic_string<char, std::__ndk1::char_traits<char>, std::__ndk1::allocator<char> > >, std::__ndk1::monostate>::setListener(geode::EventListenerProtocol*)::{lambda()#1}>, void ()>::operator()()
PUBLIC 83154 0 std::__ndk1::__function::__func<geode::Task<geode::Result<void, std::__ndk1::basic_string<char, std::__ndk1::char_traits<char>, std::__ndk1::allocator<char> > >, std::__ndk1::monostate>::setListener(geode::EventListenerProtocol*)::{lambda()#1}, std::__ndk1::allocator<geode::Task<geode::Result<void, std::__ndk1::basic_string<char, std::__ndk1::char_traits<char>, std::__ndk1::allocator<char> > >, std::__ndk1::monostate>::setListener(geode::EventListenerProtocol*)::{lambda()#1}>, void ()>::target(std::type_info const&) const
PUBLIC 83170 0 std::__ndk1::__function::__func<geode::Task<geode::Result<void, std::__ndk1::basic_string<char, std::__ndk1::char_traits<char>, std::__ndk1::allocator<char> > >, std::__ndk1::monostate>::setListener(geode::EventListenerProtocol*)::{lambda()#1}, std::__ndk1::allocator<geode::Task<geode::Result<void, std::__ndk1::basic_string<char, std::__ndk1::char_traits<char>, std::__ndk1::allocator<char> > >, std::__ndk1::monostate>::setListener(geode::EventListenerProtocol*)::{lambda()#1}>, void ()>::target_type() const
PUBLIC 8317c 0 geode::Task<geode::Result<void, std::__ndk1::basic_string<char, std::__ndk1::char_traits<char>, std::__ndk1::allocator<char> > >, std::__ndk1::monostate>::setListener(geode::EventListenerProtocol*)::{lambda()#1}::operator()() const
PUBLIC 8334c 0 geode::Task<geode::Result<void, std::__ndk1::basic_string<char, std::__ndk1::char_traits<char>, std::__ndk1::allocator<char> > >, std::__ndk1::monostate>::Event::~Event()
PUBLIC 833ac 0 geode::Task<geode::Result<void, std::__ndk1::basic_string<char, std::__ndk1::char_traits<char>, std::__ndk1::allocator<char> > >, std::__ndk1::monostate>::Event::~Event()
PUBLIC 8341c 0 std::__ndk1::__function::__func<geode::Task<geode::Result<void, std::__ndk1::basic_string<char, std::__ndk1::char_traits<char>, std::__ndk1::allocator<char> > >, std::__ndk1::monostate>::setListener(geode::EventListenerProtocol*)::{lambda()#2}, std::__ndk1::allocator<geode::Task<geode::Result<void, std::__ndk1::basic_string<char, std::__ndk1::char_traits<char>, std::__ndk1::allocator<char> > >, std::__ndk1::monostate>::setListener(geode::EventListenerProtocol*)::{lambda()#2}>, void ()>::~__func()
PUBLIC 83478 0 std::__ndk1::__function::__func<geode::Task<geode::Result<void, std::__ndk1::basic_string<char, std::__ndk1::char_traits<char>, std::__ndk1::allocator<char> > >, std::__ndk1::monostate>::setListener(geode::EventListenerProtocol*)::{lambda()#2}, std::__ndk1::allocator<geode::Task<geode::Result<void, std::__ndk1::basic_string<char, std::__ndk1::char_traits<char>, std::__ndk1::allocator<char> > >, std::__ndk1::monostate>::setListener(geode::EventListenerProtocol*)::{lambda()#2}>, void ()>::~__func()
PUBLIC 834e4 0 std::__ndk1::__function::__func<geode::Task<geode::Result<void, std::__ndk1::basic_string<char, std::__ndk1::char_traits<char>, std::__ndk1::allocator<char> > >, std::__ndk1::monostate>::setListener(geode::EventListenerProtocol*)::{lambda()#2}, std::__ndk1::allocator<geode::Task<geode::Result<void, std::__ndk1::basic_string<char, std::__ndk1::char_traits<char>, std::__ndk1::allocator<char> > >, std::__ndk1::monostate>::setListener(geode::EventListenerProtocol*)::{lambda()#2}>, void ()>::__clone() const
PUBLIC 8353c 0 std::__ndk1::__function::__func<geode::Task<geode::Result<void, std::__ndk1::basic_string<char, std::__ndk1::char_traits<char>, std::__ndk1::allocator<char> > >, std::__ndk1::monostate>::setListener(geode::EventListenerProtocol*)::{lambda()#2}, std::__ndk1::allocator<geode::Task<geode::Result<void, std::__ndk1::basic_string<char, std::__ndk1::char_traits<char>, std::__ndk1::allocator<char> > >, std::__ndk1::monostate>::setListener(geode::EventListenerProtocol*)::{lambda()#2}>, void ()>::__clone(std::__ndk1::__function::__base<void ()>*) const
PUBLIC 83588 0 std::__ndk1::__function::__func<geode::Task<geode::Result<void, std::__ndk1::basic_string<char, std::__ndk1::char_traits<char>, std::__ndk1::allocator<char> > >, std::__ndk1::monostate>::setListener(geode::EventListenerProtocol*)::{lambda()#2}, std::__ndk1::allocator<geode::Task<geode::Result<void, std::__ndk1::basic_string<char, std::__ndk1::char_traits<char>, std::__ndk1::allocator<char> > >, std::__ndk1::monostate>::setListener(geode::EventListenerProtocol*)::{lambda()#2}>, void ()>::destroy()
PUBLIC 835d8 0 std::__ndk1::__function::__func<geode::Task<geode::Result<void, std::__ndk1::basic_string<char, std::__ndk1::char_traits<char>, std::__ndk1::allocator<char> > >, std::__ndk1::monostate>::setListener(geode::EventListenerProtocol*)::{lambda()#2}, std::__ndk1::allocator<geode::Task<geode::Result<void, std::__ndk1::basic_string<char, std::__ndk1::char_traits<char>, std::__ndk1::allocator<char> > >, std::__ndk1::monostate>::setListener(geode::EventListenerProtocol*)::{lambda()#2}>, void ()>::destroy_deallocate()
PUBLIC 83638 0 std::__ndk1::__function::__func<geode::Task<geode::Result<void, std::__ndk1::basic_string<char, std::__ndk1::char_traits<char>, std::__ndk1::allocator<char> > >, std::__ndk1::monostate>::setListener(geode::EventListenerProtocol*)::{lambda()#2}, std::__ndk1::allocator<geode::Task<geode::Result<void, std::__ndk1::basic_string<char, std::__ndk1::char_traits<char>, std::__ndk1::allocator<char> > >, std::__ndk1::monostate>::setListener(geode::EventListenerProtocol*)::{lambda()#2}>, void ()>::operator()()
PUBLIC 83640 0 std::__ndk1::__function::__func<geode::Task<geode::Result<void, std::__ndk1::basic_string<char, std::__ndk1::char_traits<char>, std::__ndk1::allocator<char> > >, std::__ndk1::monostate>::setListener(geode::EventListenerProtocol*)::{lambda()#2}, std::__ndk1::allocator<geode::Task<geode::Result<void, std::__ndk1::basic_string<char, std::__ndk1::char_traits<char>, std::__ndk1::allocator<char> > >, std::__ndk1::monostate>::setListener(geode::EventListenerProtocol*)::{lambda()#2}>, void ()>::target(std::type_info const&) const
PUBLIC 8365c 0 std::__ndk1::__function::__func<geode::Task<geode::Result<void, std::__ndk1::basic_string<char, std::__ndk1::char_traits<char>, std::__ndk1::allocator<char> > >, std::__ndk1::monostate>::setListener(geode::EventListenerProtocol*)::{lambda()#2}, std::__ndk1::allocator<geode::Task<geode::Result<void, std::__ndk1::basic_string<char, std::__ndk1::char_traits<char>, std::__ndk1::allocator<char> > >, std::__ndk1::monostate>::setListener(geode::EventListenerProtocol*)::{lambda()#2}>, void ()>::target_type() const
PUBLIC 83668 0 geode::Task<geode::Result<void, std::__ndk1::basic_string<char, std::__ndk1::char_traits<char>, std::__ndk1::allocator<char> > >, std::__ndk1::monostate>::setListener(geode::EventListenerProtocol*)::{lambda()#2}::operator()() const
PUBLIC 8382c 0 std::__ndk1::basic_string<char, std::__ndk1::char_traits<char>, std::__ndk1::allocator<char> >::__throw_out_of_range[abi:ne180000]() const
PUBLIC 83840 0 std::__ndk1::vector<DiscordEmbed, std::__ndk1::allocator<DiscordEmbed> >::__push_back_slow_path<DiscordEmbed const&>(DiscordEmbed const&)
PUBLIC 83a64 0 DiscordEmbed::DiscordEmbed(DiscordEmbed const&)
PUBLIC 83c3c 0 std::__ndk1::__exception_guard_exceptions<std::__ndk1::vector<DiscordEmbedField, std::__ndk1::allocator<DiscordEmbedField> >::__destroy_vector>::~__exception_guard_exceptions[abi:ne180000]()
PUBLIC 83cf0 0 std::__ndk1::vector<DiscordEmbedField, std::__ndk1::allocator<DiscordEmbedField> >::__throw_length_error[abi:ne180000]() const
PUBLIC 83d04 0 std::__ndk1::__uninitialized_allocator_copy_impl[abi:ne180000]<std::__ndk1::allocator<DiscordEmbedField>, std::__ndk1::allocator*, std::__ndk1::allocator<DiscordEmbedField>, std::__ndk1::allocator<DiscordEmbedField> >(std::__ndk1::allocator<DiscordEmbedField>&, std::__ndk1::allocator*, std::__ndk1::allocator<DiscordEmbedField>, std::__ndk1::allocator*)
PUBLIC 83e30 0 std::__ndk1::__exception_guard_exceptions<std::__ndk1::_AllocatorDestroyRangeReverse<std::__ndk1::allocator<DiscordEmbedField>, DiscordEmbedField*> >::~__exception_guard_exceptions[abi:ne180000]()
PUBLIC 83e94 0 std::__ndk1::__split_buffer<DiscordEmbed, std::__ndk1::allocator<DiscordEmbed>&>::~__split_buffer()
PUBLIC 83ee8 0 std::__ndk1::vector<DiscordEmbed, std::__ndk1::allocator<DiscordEmbed> >::__throw_length_error[abi:ne180000]() const
PUBLIC 83efc 0 _ZNSt6__ndk112__destroy_atB8ne180000I12DiscordEmbedTnNS_9enable_ifIXntsr8is_arrayIT_EE5valueEiE4typeELi0EEEvPS3_
PUBLIC 83fb0 0 std::__ndk1::__exception_guard_exceptions<std::__ndk1::vector<DiscordEmbed, std::__ndk1::allocator<DiscordEmbed> >::__destroy_vector>::~__exception_guard_exceptions[abi:ne180000]()
PUBLIC 8402c 0 geode::modifier::ModifyDerive<GDWTPlayLayer, PlayLayer>::apply()
PUBLIC 847ec 0 geode::modifier::ModifyBase<geode::modifier::ModifyDerive<GDWTPlayLayer, PlayLayer> >::apply()
PUBLIC 847f0 0 geode::modifier::AsStaticFunction_destroyPlayer<GDWTPlayLayer, void (GDWTPlayLayer::*)(PlayerObject*, GameObject*)>::Impl<void (GDWTPlayLayer::*)(PlayerObject*, GameObject*)>::function(GDWTPlayLayer*, PlayerObject*, GameObject*)
PUBLIC 848f0 0 geode::Hook::create<void (*)(GDWTPlayLayer*)>(void*, void (*)(GDWTPlayLayer*), std::__ndk1::basic_string<char, std::__ndk1::char_traits<char>, std::__ndk1::allocator<char> > const&, tulip::hook::TulipConvention, tulip::hook::HookMetadata const&)
PUBLIC 84a24 0 geode::modifier::AsStaticFunction_levelComplete<GDWTPlayLayer, void (GDWTPlayLayer::*)()>::Impl<void (GDWTPlayLayer::*)()>::function(GDWTPlayLayer*)
PUBLIC 84b0c 0 geode::modifier::AsStaticFunction_resetLevel<GDWTPlayLayer, void (GDWTPlayLayer::*)()>::Impl<void (GDWTPlayLayer::*)()>::function(GDWTPlayLayer*)
PUBLIC 84b6c 0 geode::addresser::Addresser::addressOfVirtual<void, PlayLayer, PlayerObject*, GameObject*>(void (PlayLayer::*)(PlayerObject*, GameObject*))
PUBLIC 84c34 0 PlayLayer::PlayLayer(geode::ZeroConstructorType)
PUBLIC 85450 0 GJGameState::GJGameState()
PUBLIC 859c8 0 geode::stl::unordered_map<int, int, geode::stl::hash<int>, geode::stl::equal_to<int>, std::__ndk1::allocator<std::__ndk1::pair<int const, int> > >::~unordered_map()
PUBLIC 85a40 0 geode::stl::unordered_set<int, geode::stl::hash<int>, geode::stl::equal_to<int>, std::__ndk1::allocator<int> >::~unordered_set()
PUBLIC 85ab8 0 geode::stl::unordered_map<int, gd::string, geode::stl::hash<int>, geode::stl::equal_to<int>, std::__ndk1::allocator<std::__ndk1::pair<int const, gd::string> > >::~unordered_map()
PUBLIC 85b3c 0 gd::map<std::__ndk1::pair<int, int>, int>::~map()
PUBLIC 85b58 0 geode::stl::unordered_map<int, gd::vector<LabelGameObject*>, geode::stl::hash<int>, geode::stl::equal_to<int>, std::__ndk1::allocator<std::__ndk1::pair<int const, gd::vector<LabelGameObject*> > > >::~unordered_map()
PUBLIC 85be4 0 geode::stl::unordered_map<int, std::__ndk1::pair<int, int>, geode::stl::hash<int>, geode::stl::equal_to<int>, std::__ndk1::allocator<std::__ndk1::pair<int const, std::__ndk1::pair<int, int> > > >::~unordered_map()
PUBLIC 85c5c 0 geode::stl::unordered_map<int, gd::vector<GameObject*>, geode::stl::hash<int>, geode::stl::equal_to<int>, std::__ndk1::allocator<std::__ndk1::pair<int const, gd::vector<GameObject*> > > >::~unordered_map()
PUBLIC 85ce8 0 geode::stl::unordered_map<int, cocos2d::CCPoint, geode::stl::hash<int>, geode::stl::equal_to<int>, std::__ndk1::allocator<std::__ndk1::pair<int const, cocos2d::CCPoint> > >::~unordered_map()
PUBLIC 85d60 0 gd::vector<geode::stl::unordered_map<int, int, geode::stl::hash<int>, geode::stl::equal_to<int>, std::__ndk1::allocator<std::__ndk1::pair<int const, int> > > >::~vector()
PUBLIC 85e64 0 GJGameState::~GJGameState()
PUBLIC 8625c 0 geode::stl::unordered_map<int, SongChannelState, geode::stl::hash<int>, geode::stl::equal_to<int>, std::__ndk1::allocator<std::__ndk1::pair<int const, SongChannelState> > >::~unordered_map()
PUBLIC 862d4 0 gd::map<std::__ndk1::pair<int, int>, SFXTriggerInstance>::~map()
PUBLIC 862f0 0 geode::stl::unordered_map<int, std::__ndk1::vector<int, std::__ndk1::allocator<int> >, geode::stl::hash<int>, geode::stl::equal_to<int>, std::__ndk1::allocator<std::__ndk1::pair<int const, std::__ndk1::vector<int, std::__ndk1::allocator<int> > > > >::~unordered_map()
PUBLIC 86380 0 gd::vector<EnterEffectInstance>::~vector()
PUBLIC 86418 0 geode::stl::unordered_map<int, std::__ndk1::vector<EnterEffectInstance, std::__ndk1::allocator<EnterEffectInstance> >, geode::stl::hash<int>, geode::stl::equal_to<int>, std::__ndk1::allocator<std::__ndk1::pair<int const, std::__ndk1::vector<EnterEffectInstance, std::__ndk1::allocator<EnterEffectInstance> > > > >::~unordered_map()
PUBLIC 86454 0 gd::map<std::__ndk1::pair<GJGameEvent, int>, int>::~map()
PUBLIC 86470 0 gd::map<std::__ndk1::pair<GJGameEvent, int>, gd::vector<EventTriggerInstance> >::~map()
PUBLIC 8648c 0 geode::stl::unordered_map<int, EnhancedGameObject*, geode::stl::hash<int>, geode::stl::equal_to<int>, std::__ndk1::allocator<std::__ndk1::pair<int const, EnhancedGameObject*> > >::~unordered_map()
PUBLIC 86504 0 geode::stl::unordered_map<int, GameObjectPhysics, geode::stl::hash<int>, geode::stl::equal_to<int>, std::__ndk1::allocator<std::__ndk1::pair<int const, GameObjectPhysics> > >::~unordered_map()
PUBLIC 8657c 0 geode::stl::unordered_map<int, GJValueTween, geode::stl::hash<int>, geode::stl::equal_to<int>, std::__ndk1::allocator<std::__ndk1::pair<int const, GJValueTween> > >::~unordered_map()
PUBLIC 865f4 0 geode::stl::unordered_map<int, bool, geode::stl::hash<int>, geode::stl::equal_to<int>, std::__ndk1::allocator<std::__ndk1::pair<int const, bool> > >::~unordered_map()
PUBLIC 8666c 0 gd::map<std::__ndk1::pair<GJGameEvent, int>, gd::vector<EventTriggerInstance> >::map(std::__ndk1::map<std::__ndk1::pair<GJGameEvent, int>, gd::vector<EventTriggerInstance>, std::__ndk1::less<std::__ndk1::pair<GJGameEvent, int> >, std::__ndk1::allocator<std::__ndk1::pair<std::__ndk1::pair<GJGameEvent, int> const, gd::vector<EventTriggerInstance> > > >)
PUBLIC 86838 0 gd::map<std::__ndk1::pair<GJGameEvent, int>, gd::vector<EventTriggerInstance> >::insert_pair(std::__ndk1::pair<std::__ndk1::pair<GJGameEvent, int>, gd::vector<EventTriggerInstance> > const&)
PUBLIC 86af0 0 std::__ndk1::pair<std::__ndk1::pair<GJGameEvent, int>, gd::vector<EventTriggerInstance> >::~pair()
PUBLIC 86b70 0 std::__ndk1::pair<std::__ndk1::pair<GJGameEvent, int> const, gd::vector<EventTriggerInstance> >::~pair()
PUBLIC 86bf0 0 gd::vector<EventTriggerInstance>::vector(gd::vector<EventTriggerInstance> const&)
PUBLIC 86d90 0 geode::stl::_rb_insert_rebalance(bool, geode::stl::_rb_tree_base*, geode::stl::_rb_tree_base*, geode::stl::_rb_tree_base&)
PUBLIC 87048 0 gd::vector<EventTriggerInstance>::operator=(gd::vector<EventTriggerInstance> const&)
PUBLIC 87204 0 gd::vector<EventTriggerInstance>::~vector()
PUBLIC 87284 0 std::__ndk1::__tree<std::__ndk1::__value_type<std::__ndk1::pair<GJGameEvent, int>, gd::vector<EventTriggerInstance> >, std::__ndk1::__map_value_compare<std::__ndk1::pair<GJGameEvent, int>, std::__ndk1::__value_type<std::__ndk1::pair<GJGameEvent, int>, gd::vector<EventTriggerInstance> >, std::__ndk1::less<std::__ndk1::pair<GJGameEvent, int> >, true>, std::__ndk1::allocator<std::__ndk1::__value_type<std::__ndk1::pair<GJGameEvent, int>, gd::vector<EventTriggerInstance> > > >::destroy(std::__ndk1::__tree_node<std::__ndk1::__value_type<std::__ndk1::pair<GJGameEvent, int>, gd::vector<EventTriggerInstance> >, void*>*)
PUBLIC 8731c 0 gd::map<std::__ndk1::pair<int, int>, SFXTriggerInstance>::erase(geode::stl::_rb_tree_node<std::__ndk1::pair<std::__ndk1::pair<int, int>, SFXTriggerInstance> >*)
PUBLIC 87370 0 gd::map<int, EnterEffectAnimValue>::erase(geode::stl::_rb_tree_node<std::__ndk1::pair<int, EnterEffectAnimValue> >*)
PUBLIC 873c4 0 geode::stl::_Hashtable<int, std::__ndk1::pair<int const, std::__ndk1::vector<EnterEffectInstance, std::__ndk1::allocator<EnterEffectInstance> > >, std::__ndk1::allocator<std::__ndk1::pair<int const, std::__ndk1::vector<EnterEffectInstance, std::__ndk1::allocator<EnterEffectInstance> > > >, geode::stl::__detail::_Select1st, geode::stl::equal_to<int>, geode::stl::hash<int>, geode::stl::__detail::_Mod_range_hashing, geode::stl::__detail::_Default_ranged_hash, geode::stl::__detail::_Prime_rehash_policy, geode::stl::__detail::_Hashtable_traits<false, false, true> >::clear()
PUBLIC 8746c 0 gd::map<std::__ndk1::pair<GJGameEvent, int>, int>::erase(geode::stl::_rb_tree_node<std::__ndk1::pair<std::__ndk1::pair<GJGameEvent, int>, int> >*)
PUBLIC 874c0 0 gd::map<std::__ndk1::pair<GJGameEvent, int>, gd::vector<EventTriggerInstance> >::erase(geode::stl::_rb_tree_node<std::__ndk1::pair<std::__ndk1::pair<GJGameEvent, int>, gd::vector<EventTriggerInstance> > >*)
PUBLIC 87568 0 gd::map<std::__ndk1::pair<int, int>, int>::erase(geode::stl::_rb_tree_node<std::__ndk1::pair<std::__ndk1::pair<int, int>, int> >*)
PUBLIC 875bc 0 fmt::v11::detail::value<fmt::v11::context>::format_custom_arg<gd::string, fmt::v11::formatter<gd::string, char, void> >(void*, fmt::v11::basic_format_parse_context<char>&, fmt::v11::context&)
PUBLIC 8768c 0 fmt::v11::formatter<gd::string, char, void>::format<fmt::v11::context>(gd::string const&, fmt::v11::context&) const
PUBLIC 877ec 0 fmt::v11::detail::parse_format_specs<char>(char const*, char const*, fmt::v11::detail::dynamic_format_specs<char>&, fmt::v11::basic_format_parse_context<char>&, fmt::v11::detail::type)
PUBLIC 87ca0 0 fmt::v11::detail::parse_dynamic_spec<char>(char const*, char const*, int&, fmt::v11::detail::arg_ref<char>&, fmt::v11::basic_format_parse_context<char>&)
PUBLIC 87e44 0 fmt::v11::detail::do_parse_arg_id<char, fmt::v11::detail::dynamic_spec_id_handler<char>&>(char const*, char const*, fmt::v11::detail::dynamic_spec_id_handler<char>&)
PUBLIC 87fd8 0 fmt::v11::detail::handle_dynamic_spec<fmt::v11::detail::width_checker, fmt::v11::context>(int&, fmt::v11::detail::arg_ref<fmt::v11::context::char_type>, fmt::v11::context&)
PUBLIC 880ec 0 fmt::v11::detail::handle_dynamic_spec<fmt::v11::detail::precision_checker, fmt::v11::context>(int&, fmt::v11::detail::arg_ref<fmt::v11::context::char_type>, fmt::v11::context&)
PUBLIC 88200 0 fmt::v11::detail::write<char, fmt::v11::basic_appender<char> >(fmt::v11::basic_appender<char>, fmt::v11::basic_string_view<char>, fmt::v11::format_specs const&)
PUBLIC 8847c 0 fmt::v11::detail::write_escaped_string<char, fmt::v11::detail::counting_iterator>(fmt::v11::detail::counting_iterator, fmt::v11::basic_string_view<char>)
PUBLIC 8899c 0 fmt::v11::detail::write_padded<char, (fmt::v11::align::type)1, fmt::v11::basic_appender<char>, fmt::v11::detail::write<char, fmt::v11::basic_appender<char> >(fmt::v11::basic_appender<char>, fmt::v11::basic_string_view<char>, fmt::v11::format_specs const&)::{lambda(fmt::v11::basic_appender<char>)#1}>(fmt::v11::basic_appender<char>, fmt::v11::format_specs const&, unsigned long, unsigned long, fmt::v11::detail::write<char, fmt::v11::basic_appender<char> >(fmt::v11::basic_appender<char>, fmt::v11::basic_string_view<char>, fmt::v11::format_specs const&)::{lambda(fmt::v11::basic_appender<char>&&)#1})
PUBLIC 88ba8 0 fmt::v11::detail::for_each_codepoint<fmt::v11::detail::code_point_index(fmt::v11::basic_string_view<char>, unsigned long)::{lambda(unsigned int, fmt::v11::basic_string_view<char>)#1}>(fmt::v11::basic_string_view<char>, fmt::v11::detail::code_point_index(fmt::v11::basic_string_view<char>, unsigned long)::{lambda(unsigned int, fmt::v11::basic_string_view<char>)#1})
PUBLIC 88fd0 0 fmt::v11::detail::write_escaped_cp<fmt::v11::detail::counting_iterator, char>(fmt::v11::detail::counting_iterator, fmt::v11::detail::find_escape_result<char> const&)
PUBLIC 89164 0 fmt::v11::detail::for_each_codepoint<fmt::v11::detail::compute_width(fmt::v11::basic_string_view<char>)::count_code_points>(fmt::v11::basic_string_view<char>, fmt::v11::detail::compute_width(fmt::v11::basic_string_view<char>)::count_code_points)::{lambda(char const*, char const*)#1}::operator()(char const*, char const*) const
PUBLIC 8931c 0 fmt::v11::detail::fill<char, fmt::v11::basic_appender<char> >(fmt::v11::basic_appender<char>, unsigned long, fmt::v11::detail::fill_t const&)
PUBLIC 894ec 0 fmt::v11::detail::write_escaped_string<char, fmt::v11::basic_appender<char> >(fmt::v11::basic_appender<char>, fmt::v11::basic_string_view<char>)
PUBLIC 89b68 0 fmt::v11::detail::write_escaped_cp<fmt::v11::basic_appender<char>, char>(fmt::v11::basic_appender<char>, fmt::v11::detail::find_escape_result<char> const&)
PUBLIC 89d4c 0 fmt::v11::detail::write_codepoint<(unsigned long)2, char, fmt::v11::basic_appender<char> >(fmt::v11::basic_appender<char>, char, unsigned int)
PUBLIC 89ec4 0 fmt::v11::detail::write_codepoint<(unsigned long)4, char, fmt::v11::basic_appender<char> >(fmt::v11::basic_appender<char>, char, unsigned int)
PUBLIC 8a03c 0 fmt::v11::detail::write_codepoint<(unsigned long)8, char, fmt::v11::basic_appender<char> >(fmt::v11::basic_appender<char>, char, unsigned int)
PUBLIC 8a1b4 0 fmt::v11::detail::get_dynamic_spec<fmt::v11::detail::width_checker, fmt::v11::basic_format_arg<fmt::v11::context> >(fmt::v11::basic_format_arg<fmt::v11::context>)
PUBLIC 8a248 0 fmt::v11::basic_format_args<fmt::v11::context>::get<char>(fmt::v11::basic_string_view<char>) const
PUBLIC 8a3a0 0 fmt::v11::detail::get_dynamic_spec<fmt::v11::detail::precision_checker, fmt::v11::basic_format_arg<fmt::v11::context> >(fmt::v11::basic_format_arg<fmt::v11::context>)
PUBLIC 8a434 0 std::__ndk1::__function::__base<void (geode::Task<geode::Result<void, std::__ndk1::basic_string<char, std::__ndk1::char_traits<char>, std::__ndk1::allocator<char> > >, std::__ndk1::monostate>::Event*)>::~__base()
PUBLIC 8a438 0 std::__ndk1::__function::__func<std::__ndk1::__bind<void (GDWTPlayLayer::*&)(geode::Task<geode::Result<void, std::__ndk1::basic_string<char, std::__ndk1::char_traits<char>, std::__ndk1::allocator<char> > >, std::__ndk1::monostate>::Event*), GDWTPlayLayer*&, std::__ndk1::placeholders::__ph<1> const&>, std::__ndk1::allocator<std::__ndk1::__bind<void (GDWTPlayLayer::*&)(geode::Task<geode::Result<void, std::__ndk1::basic_string<char, std::__ndk1::char_traits<char>, std::__ndk1::allocator<char> > >, std::__ndk1::monostate>::Event*), GDWTPlayLayer*&, std::__ndk1::placeholders::__ph<1> const&> >, void (geode::Task<geode::Result<void, std::__ndk1::basic_string<char, std::__ndk1::char_traits<char>, std::__ndk1::allocator<char> > >, std::__ndk1::monostate>::Event*)>::~__func()
PUBLIC 8a43c 0 std::__ndk1::__function::__func<std::__ndk1::__bind<void (GDWTPlayLayer::*&)(geode::Task<geode::Result<void, std::__ndk1::basic_string<char, std::__ndk1::char_traits<char>, std::__ndk1::allocator<char> > >, std::__ndk1::monostate>::Event*), GDWTPlayLayer*&, std::__ndk1::placeholders::__ph<1> const&>, std::__ndk1::allocator<std::__ndk1::__bind<void (GDWTPlayLayer::*&)(geode::Task<geode::Result<void, std::__ndk1::basic_string<char, std::__ndk1::char_traits<char>, std::__ndk1::allocator<char> > >, std::__ndk1::monostate>::Event*), GDWTPlayLayer*&, std::__ndk1::placeholders::__ph<1> const&> >, void (geode::Task<geode::Result<void, std::__ndk1::basic_string<char, std::__ndk1::char_traits<char>, std::__ndk1::allocator<char> > >, std::__ndk1::monostate>::Event*)>::__clone() const
PUBLIC 8a47c 0 std::__ndk1::__function::__func<std::__ndk1::__bind<void (GDWTPlayLayer::*&)(geode::Task<geode::Result<void, std::__ndk1::basic_string<char, std::__ndk1::char_traits<char>, std::__ndk1::allocator<char> > >, std::__ndk1::monostate>::Event*), GDWTPlayLayer*&, std::__ndk1::placeholders::__ph<1> const&>, std::__ndk1::allocator<std::__ndk1::__bind<void (GDWTPlayLayer::*&)(geode::Task<geode::Result<void, std::__ndk1::basic_string<char, std::__ndk1::char_traits<char>, std::__ndk1::allocator<char> > >, std::__ndk1::monostate>::Event*), GDWTPlayLayer*&, std::__ndk1::placeholders::__ph<1> const&> >, void (geode::Task<geode::Result<void, std::__ndk1::basic_string<char, std::__ndk1::char_traits<char>, std::__ndk1::allocator<char> > >, std::__ndk1::monostate>::Event*)>::__clone(std::__ndk1::__function::__base<void (geode::Task<geode::Result<void, std::__ndk1::basic_string<char, std::__ndk1::char_traits<char>, std::__ndk1::allocator<char> > >, std::__ndk1::monostate>::Event*)>*) const
PUBLIC 8a49c 0 std::__ndk1::__function::__func<std::__ndk1::__bind<void (GDWTPlayLayer::*&)(geode::Task<geode::Result<void, std::__ndk1::basic_string<char, std::__ndk1::char_traits<char>, std::__ndk1::allocator<char> > >, std::__ndk1::monostate>::Event*), GDWTPlayLayer*&, std::__ndk1::placeholders::__ph<1> const&>, std::__ndk1::allocator<std::__ndk1::__bind<void (GDWTPlayLayer::*&)(geode::Task<geode::Result<void, std::__ndk1::basic_string<char, std::__ndk1::char_traits<char>, std::__ndk1::allocator<char> > >, std::__ndk1::monostate>::Event*), GDWTPlayLayer*&, std::__ndk1::placeholders::__ph<1> const&> >, void (geode::Task<geode::Result<void, std::__ndk1::basic_string<char, std::__ndk1::char_traits<char>, std::__ndk1::allocator<char> > >, std::__ndk1::monostate>::Event*)>::destroy()
PUBLIC 8a4a0 0 std::__ndk1::__function::__func<std::__ndk1::__bind<void (GDWTPlayLayer::*&)(geode::Task<geode::Result<void, std::__ndk1::basic_string<char, std::__ndk1::char_traits<char>, std::__ndk1::allocator<char> > >, std::__ndk1::monostate>::Event*), GDWTPlayLayer*&, std::__ndk1::placeholders::__ph<1> const&>, std::__ndk1::allocator<std::__ndk1::__bind<void (GDWTPlayLayer::*&)(geode::Task<geode::Result<void, std::__ndk1::basic_string<char, std::__ndk1::char_traits<char>, std::__ndk1::allocator<char> > >, std::__ndk1::monostate>::Event*), GDWTPlayLayer*&, std::__ndk1::placeholders::__ph<1> const&> >, void (geode::Task<geode::Result<void, std::__ndk1::basic_string<char, std::__ndk1::char_traits<char>, std::__ndk1::allocator<char> > >, std::__ndk1::monostate>::Event*)>::destroy_deallocate()
PUBLIC 8a4a4 0 std::__ndk1::__function::__func<std::__ndk1::__bind<void (GDWTPlayLayer::*&)(geode::Task<geode::Result<void, std::__ndk1::basic_string<char, std::__ndk1::char_traits<char>, std::__ndk1::allocator<char> > >, std::__ndk1::monostate>::Event*), GDWTPlayLayer*&, std::__ndk1::placeholders::__ph<1> const&>, std::__ndk1::allocator<std::__ndk1::__bind<void (GDWTPlayLayer::*&)(geode::Task<geode::Result<void, std::__ndk1::basic_string<char, std::__ndk1::char_traits<char>, std::__ndk1::allocator<char> > >, std::__ndk1::monostate>::Event*), GDWTPlayLayer*&, std::__ndk1::placeholders::__ph<1> const&> >, void (geode::Task<geode::Result<void, std::__ndk1::basic_string<char, std::__ndk1::char_traits<char>, std::__ndk1::allocator<char> > >, std::__ndk1::monostate>::Event*)>::operator()(geode::Task<geode::Result<void, std::__ndk1::basic_string<char, std::__ndk1::char_traits<char>, std::__ndk1::allocator<char> > >, std::__ndk1::monostate>::Event*&&)
PUBLIC 8a4c4 0 std::__ndk1::__function::__func<std::__ndk1::__bind<void (GDWTPlayLayer::*&)(geode::Task<geode::Result<void, std::__ndk1::basic_string<char, std::__ndk1::char_traits<char>, std::__ndk1::allocator<char> > >, std::__ndk1::monostate>::Event*), GDWTPlayLayer*&, std::__ndk1::placeholders::__ph<1> const&>, std::__ndk1::allocator<std::__ndk1::__bind<void (GDWTPlayLayer::*&)(geode::Task<geode::Result<void, std::__ndk1::basic_string<char, std::__ndk1::char_traits<char>, std::__ndk1::allocator<char> > >, std::__ndk1::monostate>::Event*), GDWTPlayLayer*&, std::__ndk1::placeholders::__ph<1> const&> >, void (geode::Task<geode::Result<void, std::__ndk1::basic_string<char, std::__ndk1::char_traits<char>, std::__ndk1::allocator<char> > >, std::__ndk1::monostate>::Event*)>::target(std::type_info const&) const
PUBLIC 8a4e0 0 std::__ndk1::__function::__func<std::__ndk1::__bind<void (GDWTPlayLayer::*&)(geode::Task<geode::Result<void, std::__ndk1::basic_string<char, std::__ndk1::char_traits<char>, std::__ndk1::allocator<char> > >, std::__ndk1::monostate>::Event*), GDWTPlayLayer*&, std::__ndk1::placeholders::__ph<1> const&>, std::__ndk1::allocator<std::__ndk1::__bind<void (GDWTPlayLayer::*&)(geode::Task<geode::Result<void, std::__ndk1::basic_string<char, std::__ndk1::char_traits<char>, std::__ndk1::allocator<char> > >, std::__ndk1::monostate>::Event*), GDWTPlayLayer*&, std::__ndk1::placeholders::__ph<1> const&> >, void (geode::Task<geode::Result<void, std::__ndk1::basic_string<char, std::__ndk1::char_traits<char>, std::__ndk1::allocator<char> > >, std::__ndk1::monostate>::Event*)>::target_type() const
PUBLIC 8a4ec 0 std::__ndk1::__function::__value_func<void (geode::Task<geode::Result<void, std::__ndk1::basic_string<char, std::__ndk1::char_traits<char>, std::__ndk1::allocator<char> > >, std::__ndk1::monostate>::Event*)>::swap[abi:ne180000](std::__ndk1::__function::__value_func<void (geode::Task<geode::Result<void, std::__ndk1::basic_string<char, std::__ndk1::char_traits<char>, std::__ndk1::allocator<char> > >, std::__ndk1::monostate>::Event*)>&)
PUBLIC 8a684 0 GDWTProfilePage::playersDataRecieved(geode::Task<geode::Result<std::__ndk1::vector<PlayerData, std::__ndk1::allocator<PlayerData> >, std::__ndk1::basic_string<char, std::__ndk1::char_traits<char>, std::__ndk1::allocator<char> > >, std::__ndk1::monostate>::Event*)
PUBLIC 8c97c 0 PlayerData::operator=(PlayerData const&)
PUBLIC 8cb24 0 GDWTProfilePage::createBadge(std::__ndk1::basic_string<char, std::__ndk1::char_traits<char>, std::__ndk1::allocator<char> > const&, std::__ndk1::basic_string<char, std::__ndk1::char_traits<char>, std::__ndk1::allocator<char> > const&, std::__ndk1::basic_string<char, std::__ndk1::char_traits<char>, std::__ndk1::allocator<char> > const&, int const&)
PUBLIC 8d2d0 0 PlayerData::~PlayerData()
PUBLIC 8d34c 0 std::__ndk1::vector<PlayerData, std::__ndk1::allocator<PlayerData> >::~vector[abi:ne180000]()
PUBLIC 8d37c 0 GDWTProfilePage::onBadgeClicked(cocos2d::CCObject*)
PUBLIC 8d7e0 0 std::__ndk1::pair<CCMenuItemSpriteExtra*, std::__ndk1::pair<std::__ndk1::basic_string<char, std::__ndk1::char_traits<char>, std::__ndk1::allocator<char> >, std::__ndk1::basic_string<char, std::__ndk1::char_traits<char>, std::__ndk1::allocator<char> > > >::~pair()
PUBLIC 8d824 0 std::__ndk1::pair<std::__ndk1::basic_string<char, std::__ndk1::char_traits<char>, std::__ndk1::allocator<char> >, std::__ndk1::basic_string<char, std::__ndk1::char_traits<char>, std::__ndk1::allocator<char> > >::~pair()
PUBLIC 8d868 0 __cxx_global_var_init
PUBLIC 8dce8 0 geode::modifier::ModifyBase<geode::modifier::ModifyDerive<GDWTProfilePage, ProfilePage> >::~ModifyBase()
PUBLIC 8dd04 0 geode::modifier::FieldIntermediate<GDWTProfilePage, ProfilePage>::self()
PUBLIC 8df48 0 geode::modifier::FieldIntermediate<GDWTProfilePage, ProfilePage>::fieldDestructor(void*)
PUBLIC 8e048 0 _ZN5geode15UnwrapExceptionC2IRNSt6__ndk112basic_stringIcNS2_11char_traitsIcEENS2_9allocatorIcEEEEQsr4implE18IsStringStreamableIT_EEENS_4impl6ErrTagEOSA_
PUBLIC 8e1b0 0 std::__ndk1::vector<PlayerData, std::__ndk1::allocator<PlayerData> >::__init_with_size[abi:ne180000]<PlayerData*, std::__ndk1::vector<PlayerData, std::__ndk1::allocator<PlayerData> >::__init_with_size[abi:ne180000]>(PlayerData*, std::__ndk1::vector<PlayerData, std::__ndk1::allocator<PlayerData> >::__init_with_size[abi:ne180000], unsigned long)
PUBLIC 8e2f8 0 std::__ndk1::__exception_guard_exceptions<std::__ndk1::vector<PlayerData, std::__ndk1::allocator<PlayerData> >::__destroy_vector>::~__exception_guard_exceptions[abi:ne180000]()
PUBLIC 8e33c 0 std::__ndk1::vector<PlayerData, std::__ndk1::allocator<PlayerData> >::__throw_length_error[abi:ne180000]() const
PUBLIC 8e350 0 std::__ndk1::__exception_guard_exceptions<std::__ndk1::_AllocatorDestroyRangeReverse<std::__ndk1::allocator<PlayerData>, PlayerData*> >::~__exception_guard_exceptions[abi:ne180000]()
PUBLIC 8e370 0 PlayerData::PlayerData(PlayerData const&)
PUBLIC 8e5cc 0 std::__ndk1::__tree<std::__ndk1::basic_string<char, std::__ndk1::char_traits<char>, std::__ndk1::allocator<char> >, std::__ndk1::less<std::__ndk1::basic_string<char, std::__ndk1::char_traits<char>, std::__ndk1::allocator<char> > >, std::__ndk1::allocator<std::__ndk1::basic_string<char, std::__ndk1::char_traits<char>, std::__ndk1::allocator<char> > > >::__emplace_hint_unique_key_args<std::__ndk1::basic_string<char, std::__ndk1::char_traits<char>, std::__ndk1::allocator<char> >, std::__ndk1::basic_string<char, std::__ndk1::char_traits<char>, std::__ndk1::allocator<char> > const&>(std::__ndk1::__tree_const_iterator<std::__ndk1::basic_string<char, std::__ndk1::char_traits<char>, std::__ndk1::allocator<char> >, std::__ndk1::__tree_node<std::__ndk1::basic_string<char, std::__ndk1::char_traits<char>, std::__ndk1::allocator<char> >, void*>*, long>, std::__ndk1::basic_string<char, std::__ndk1::char_traits<char>, std::__ndk1::allocator<char> > const&, std::__ndk1::basic_string<char, std::__ndk1::char_traits<char>, std::__ndk1::allocator<char> > const&)
PUBLIC 8e700 0 std::__ndk1::__tree<std::__ndk1::basic_string<char, std::__ndk1::char_traits<char>, std::__ndk1::allocator<char> >, std::__ndk1::less<std::__ndk1::basic_string<char, std::__ndk1::char_traits<char>, std::__ndk1::allocator<char> > >, std::__ndk1::allocator<std::__ndk1::basic_string<char, std::__ndk1::char_traits<char>, std::__ndk1::allocator<char> > > >::__find_equal<std::__ndk1::basic_string<char, std::__ndk1::char_traits<char>, std::__ndk1::allocator<char> > >(std::__ndk1::__tree_const_iterator<std::__ndk1::basic_string<char, std::__ndk1::char_traits<char>, std::__ndk1::allocator<char> >, std::__ndk1::__tree_node<std::__ndk1::basic_string<char, std::__ndk1::char_traits<char>, std::__ndk1::allocator<char> >, void*>*, long>, std::__ndk1::__tree_end_node<std::__ndk1::__tree_node_base<void*>*>*&, std::__ndk1::__tree_node_base<void*>*&, std::__ndk1::basic_string<char, std::__ndk1::char_traits<char>, std::__ndk1::allocator<char> > const&)
PUBLIC 8eaf0 0 std::__ndk1::unique_ptr<std::__ndk1::__tree_node<std::__ndk1::basic_string<char, std::__ndk1::char_traits<char>, std::__ndk1::allocator<char> >, void*>, std::__ndk1::__tree_node_destructor<std::__ndk1::allocator<std::__ndk1::__tree_node<std::__ndk1::basic_string<char, std::__ndk1::char_traits<char>, std::__ndk1::allocator<char> >, void*> > > >::~unique_ptr[abi:ne180000]()
PUBLIC 8eb40 0 std::__ndk1::__tree<std::__ndk1::basic_string<char, std::__ndk1::char_traits<char>, std::__ndk1::allocator<char> >, std::__ndk1::less<std::__ndk1::basic_string<char, std::__ndk1::char_traits<char>, std::__ndk1::allocator<char> > >, std::__ndk1::allocator<std::__ndk1::basic_string<char, std::__ndk1::char_traits<char>, std::__ndk1::allocator<char> > > >::destroy(std::__ndk1::__tree_node<std::__ndk1::basic_string<char, std::__ndk1::char_traits<char>, std::__ndk1::allocator<char> >, void*>*)
PUBLIC 8eb90 0 std::__ndk1::_AllocatorDestroyRangeReverse<std::__ndk1::allocator<PlayerData>, PlayerData*>::operator()[abi:ne180000]() const
PUBLIC 8ec24 0 std::__ndk1::vector<PlayerData, std::__ndk1::allocator<PlayerData> >::__base_destruct_at_end[abi:ne180000](PlayerData*)
PUBLIC 8ecc8 0 std::__ndk1::basic_string<char, std::__ndk1::char_traits<char>, std::__ndk1::allocator<char> >::__assign_no_alias<true>(char const*, unsigned long)
PUBLIC 8ed74 0 std::__ndk1::basic_string<char, std::__ndk1::char_traits<char>, std::__ndk1::allocator<char> >::__assign_no_alias<false>(char const*, unsigned long)
PUBLIC 8ee84 0 std::__ndk1::__tree<std::__ndk1::basic_string<char, std::__ndk1::char_traits<char>, std::__ndk1::allocator<char> >, std::__ndk1::less<std::__ndk1::basic_string<char, std::__ndk1::char_traits<char>, std::__ndk1::allocator<char> > >, std::__ndk1::allocator<std::__ndk1::basic_string<char, std::__ndk1::char_traits<char>, std::__ndk1::allocator<char> > > >::__assign_multi<std::__ndk1::__tree_const_iterator<std::__ndk1::basic_string<char, std::__ndk1::char_traits<char>, std::__ndk1::allocator<char> >, std::__ndk1::__tree_node<std::__ndk1::basic_string<char, std::__ndk1::char_traits<char>, std::__ndk1::allocator<char> >, void*>*, long> >(std::__ndk1::__tree_const_iterator<std::__ndk1::basic_string<char, std::__ndk1::char_traits<char>, std::__ndk1::allocator<char> >, std::__ndk1::__tree_node<std::__ndk1::basic_string<char, std::__ndk1::char_traits<char>, std::__ndk1::allocator<char> >, void*>*, long>, std::__ndk1::__tree_const_iterator<std::__ndk1::basic_string<char, std::__ndk1::char_traits<char>, std::__ndk1::allocator<char> >, std::__ndk1::__tree_node<std::__ndk1::basic_string<char, std::__ndk1::char_traits<char>, std::__ndk1::allocator<char> >, void*>*, long>)
PUBLIC 8f158 0 std::__ndk1::__tree<std::__ndk1::basic_string<char, std::__ndk1::char_traits<char>, std::__ndk1::allocator<char> >, std::__ndk1::less<std::__ndk1::basic_string<char, std::__ndk1::char_traits<char>, std::__ndk1::allocator<char> > >, std::__ndk1::allocator<std::__ndk1::basic_string<char, std::__ndk1::char_traits<char>, std::__ndk1::allocator<char> > > >::__node_insert_multi(std::__ndk1::__tree_node<std::__ndk1::basic_string<char, std::__ndk1::char_traits<char>, std::__ndk1::allocator<char> >, void*>*)
PUBLIC 8f260 0 std::__ndk1::__tree<std::__ndk1::basic_string<char, std::__ndk1::char_traits<char>, std::__ndk1::allocator<char> >, std::__ndk1::less<std::__ndk1::basic_string<char, std::__ndk1::char_traits<char>, std::__ndk1::allocator<char> > >, std::__ndk1::allocator<std::__ndk1::basic_string<char, std::__ndk1::char_traits<char>, std::__ndk1::allocator<char> > > >::_DetachedTreeCache::~_DetachedTreeCache[abi:ne180000]()
PUBLIC 8f2b8 0 std::__ndk1::__tree<std::__ndk1::basic_string<char, std::__ndk1::char_traits<char>, std::__ndk1::allocator<char> >, std::__ndk1::less<std::__ndk1::basic_string<char, std::__ndk1::char_traits<char>, std::__ndk1::allocator<char> > >, std::__ndk1::allocator<std::__ndk1::basic_string<char, std::__ndk1::char_traits<char>, std::__ndk1::allocator<char> > > >::__emplace_multi<std::__ndk1::basic_string<char, std::__ndk1::char_traits<char>, std::__ndk1::allocator<char> > const&>(std::__ndk1::basic_string<char, std::__ndk1::char_traits<char>, std::__ndk1::allocator<char> > const&)
PUBLIC 8f464 0 geode::modifier::ModifyDerive<GDWTProfilePage, ProfilePage>::apply()
PUBLIC 8f7e8 0 geode::modifier::ModifyBase<geode::modifier::ModifyDerive<GDWTProfilePage, ProfilePage> >::apply()
PUBLIC 8f7ec 0 geode::modifier::AsStaticFunction_loadPageFromUserInfo<GDWTProfilePage, void (GDWTProfilePage::*)(GJUserScore*)>::Impl<void (GDWTProfilePage::*)(GJUserScore*)>::function(GDWTProfilePage*, GJUserScore*)
PUBLIC 8f964 0 std::__ndk1::__function::__func<std::__ndk1::__bind<void (GDWTProfilePage::*&)(geode::Task<geode::Result<std::__ndk1::vector<PlayerData, std::__ndk1::allocator<PlayerData> >, std::__ndk1::basic_string<char, std::__ndk1::char_traits<char>, std::__ndk1::allocator<char> > >, std::__ndk1::monostate>::Event*), GDWTProfilePage*&, std::__ndk1::placeholders::__ph<1> const&>, std::__ndk1::allocator<std::__ndk1::__bind<void (GDWTProfilePage::*&)(geode::Task<geode::Result<std::__ndk1::vector<PlayerData, std::__ndk1::allocator<PlayerData> >, std::__ndk1::basic_string<char, std::__ndk1::char_traits<char>, std::__ndk1::allocator<char> > >, std::__ndk1::monostate>::Event*), GDWTProfilePage*&, std::__ndk1::placeholders::__ph<1> const&> >, void (geode::Task<geode::Result<std::__ndk1::vector<PlayerData, std::__ndk1::allocator<PlayerData> >, std::__ndk1::basic_string<char, std::__ndk1::char_traits<char>, std::__ndk1::allocator<char> > >, std::__ndk1::monostate>::Event*)>::~__func()
PUBLIC 8f968 0 std::__ndk1::__function::__func<std::__ndk1::__bind<void (GDWTProfilePage::*&)(geode::Task<geode::Result<std::__ndk1::vector<PlayerData, std::__ndk1::allocator<PlayerData> >, std::__ndk1::basic_string<char, std::__ndk1::char_traits<char>, std::__ndk1::allocator<char> > >, std::__ndk1::monostate>::Event*), GDWTProfilePage*&, std::__ndk1::placeholders::__ph<1> const&>, std::__ndk1::allocator<std::__ndk1::__bind<void (GDWTProfilePage::*&)(geode::Task<geode::Result<std::__ndk1::vector<PlayerData, std::__ndk1::allocator<PlayerData> >, std::__ndk1::basic_string<char, std::__ndk1::char_traits<char>, std::__ndk1::allocator<char> > >, std::__ndk1::monostate>::Event*), GDWTProfilePage*&, std::__ndk1::placeholders::__ph<1> const&> >, void (geode::Task<geode::Result<std::__ndk1::vector<PlayerData, std::__ndk1::allocator<PlayerData> >, std::__ndk1::basic_string<char, std::__ndk1::char_traits<char>, std::__ndk1::allocator<char> > >, std::__ndk1::monostate>::Event*)>::__clone() const
PUBLIC 8f9a8 0 std::__ndk1::__function::__func<std::__ndk1::__bind<void (GDWTProfilePage::*&)(geode::Task<geode::Result<std::__ndk1::vector<PlayerData, std::__ndk1::allocator<PlayerData> >, std::__ndk1::basic_string<char, std::__ndk1::char_traits<char>, std::__ndk1::allocator<char> > >, std::__ndk1::monostate>::Event*), GDWTProfilePage*&, std::__ndk1::placeholders::__ph<1> const&>, std::__ndk1::allocator<std::__ndk1::__bind<void (GDWTProfilePage::*&)(geode::Task<geode::Result<std::__ndk1::vector<PlayerData, std::__ndk1::allocator<PlayerData> >, std::__ndk1::basic_string<char, std::__ndk1::char_traits<char>, std::__ndk1::allocator<char> > >, std::__ndk1::monostate>::Event*), GDWTProfilePage*&, std::__ndk1::placeholders::__ph<1> const&> >, void (geode::Task<geode::Result<std::__ndk1::vector<PlayerData, std::__ndk1::allocator<PlayerData> >, std::__ndk1::basic_string<char, std::__ndk1::char_traits<char>, std::__ndk1::allocator<char> > >, std::__ndk1::monostate>::Event*)>::__clone(std::__ndk1::__function::__base<void (geode::Task<geode::Result<std::__ndk1::vector<PlayerData, std::__ndk1::allocator<PlayerData> >, std::__ndk1::basic_string<char, std::__ndk1::char_traits<char>, std::__ndk1::allocator<char> > >, std::__ndk1::monostate>::Event*)>*) const
PUBLIC 8f9c8 0 std::__ndk1::__function::__func<std::__ndk1::__bind<void (GDWTProfilePage::*&)(geode::Task<geode::Result<std::__ndk1::vector<PlayerData, std::__ndk1::allocator<PlayerData> >, std::__ndk1::basic_string<char, std::__ndk1::char_traits<char>, std::__ndk1::allocator<char> > >, std::__ndk1::monostate>::Event*), GDWTProfilePage*&, std::__ndk1::placeholders::__ph<1> const&>, std::__ndk1::allocator<std::__ndk1::__bind<void (GDWTProfilePage::*&)(geode::Task<geode::Result<std::__ndk1::vector<PlayerData, std::__ndk1::allocator<PlayerData> >, std::__ndk1::basic_string<char, std::__ndk1::char_traits<char>, std::__ndk1::allocator<char> > >, std::__ndk1::monostate>::Event*), GDWTProfilePage*&, std::__ndk1::placeholders::__ph<1> const&> >, void (geode::Task<geode::Result<std::__ndk1::vector<PlayerData, std::__ndk1::allocator<PlayerData> >, std::__ndk1::basic_string<char, std::__ndk1::char_traits<char>, std::__ndk1::allocator<char> > >, std::__ndk1::monostate>::Event*)>::destroy()
PUBLIC 8f9cc 0 std::__ndk1::__function::__func<std::__ndk1::__bind<void (GDWTProfilePage::*&)(geode::Task<geode::Result<std::__ndk1::vector<PlayerData, std::__ndk1::allocator<PlayerData> >, std::__ndk1::basic_string<char, std::__ndk1::char_traits<char>, std::__ndk1::allocator<char> > >, std::__ndk1::monostate>::Event*), GDWTProfilePage*&, std::__ndk1::placeholders::__ph<1> const&>, std::__ndk1::allocator<std::__ndk1::__bind<void (GDWTProfilePage::*&)(geode::Task<geode::Result<std::__ndk1::vector<PlayerData, std::__ndk1::allocator<PlayerData> >, std::__ndk1::basic_string<char, std::__ndk1::char_traits<char>, std::__ndk1::allocator<char> > >, std::__ndk1::monostate>::Event*), GDWTProfilePage*&, std::__ndk1::placeholders::__ph<1> const&> >, void (geode::Task<geode::Result<std::__ndk1::vector<PlayerData, std::__ndk1::allocator<PlayerData> >, std::__ndk1::basic_string<char, std::__ndk1::char_traits<char>, std::__ndk1::allocator<char> > >, std::__ndk1::monostate>::Event*)>::destroy_deallocate()
PUBLIC 8f9d0 0 std::__ndk1::__function::__func<std::__ndk1::__bind<void (GDWTProfilePage::*&)(geode::Task<geode::Result<std::__ndk1::vector<PlayerData, std::__ndk1::allocator<PlayerData> >, std::__ndk1::basic_string<char, std::__ndk1::char_traits<char>, std::__ndk1::allocator<char> > >, std::__ndk1::monostate>::Event*), GDWTProfilePage*&, std::__ndk1::placeholders::__ph<1> const&>, std::__ndk1::allocator<std::__ndk1::__bind<void (GDWTProfilePage::*&)(geode::Task<geode::Result<std::__ndk1::vector<PlayerData, std::__ndk1::allocator<PlayerData> >, std::__ndk1::basic_string<char, std::__ndk1::char_traits<char>, std::__ndk1::allocator<char> > >, std::__ndk1::monostate>::Event*), GDWTProfilePage*&, std::__ndk1::placeholders::__ph<1> const&> >, void (geode::Task<geode::Result<std::__ndk1::vector<PlayerData, std::__ndk1::allocator<PlayerData> >, std::__ndk1::basic_string<char, std::__ndk1::char_traits<char>, std::__ndk1::allocator<char> > >, std::__ndk1::monostate>::Event*)>::operator()(geode::Task<geode::Result<std::__ndk1::vector<PlayerData, std::__ndk1::allocator<PlayerData> >, std::__ndk1::basic_string<char, std::__ndk1::char_traits<char>, std::__ndk1::allocator<char> > >, std::__ndk1::monostate>::Event*&&)
PUBLIC 8f9f0 0 std::__ndk1::__function::__func<std::__ndk1::__bind<void (GDWTProfilePage::*&)(geode::Task<geode::Result<std::__ndk1::vector<PlayerData, std::__ndk1::allocator<PlayerData> >, std::__ndk1::basic_string<char, std::__ndk1::char_traits<char>, std::__ndk1::allocator<char> > >, std::__ndk1::monostate>::Event*), GDWTProfilePage*&, std::__ndk1::placeholders::__ph<1> const&>, std::__ndk1::allocator<std::__ndk1::__bind<void (GDWTProfilePage::*&)(geode::Task<geode::Result<std::__ndk1::vector<PlayerData, std::__ndk1::allocator<PlayerData> >, std::__ndk1::basic_string<char, std::__ndk1::char_traits<char>, std::__ndk1::allocator<char> > >, std::__ndk1::monostate>::Event*), GDWTProfilePage*&, std::__ndk1::placeholders::__ph<1> const&> >, void (geode::Task<geode::Result<std::__ndk1::vector<PlayerData, std::__ndk1::allocator<PlayerData> >, std::__ndk1::basic_string<char, std::__ndk1::char_traits<char>, std::__ndk1::allocator<char> > >, std::__ndk1::monostate>::Event*)>::target(std::type_info const&) const
PUBLIC 8fa0c 0 std::__ndk1::__function::__func<std::__ndk1::__bind<void (GDWTProfilePage::*&)(geode::Task<geode::Result<std::__ndk1::vector<PlayerData, std::__ndk1::allocator<PlayerData> >, std::__ndk1::basic_string<char, std::__ndk1::char_traits<char>, std::__ndk1::allocator<char> > >, std::__ndk1::monostate>::Event*), GDWTProfilePage*&, std::__ndk1::placeholders::__ph<1> const&>, std::__ndk1::allocator<std::__ndk1::__bind<void (GDWTProfilePage::*&)(geode::Task<geode::Result<std::__ndk1::vector<PlayerData, std::__ndk1::allocator<PlayerData> >, std::__ndk1::basic_string<char, std::__ndk1::char_traits<char>, std::__ndk1::allocator<char> > >, std::__ndk1::monostate>::Event*), GDWTProfilePage*&, std::__ndk1::placeholders::__ph<1> const&> >, void (geode::Task<geode::Result<std::__ndk1::vector<PlayerData, std::__ndk1::allocator<PlayerData> >, std::__ndk1::basic_string<char, std::__ndk1::char_traits<char>, std::__ndk1::allocator<char> > >, std::__ndk1::monostate>::Event*)>::target_type() const
PUBLIC 8fa18 0 std::__ndk1::unique_ptr<std::__ndk1::__hash_node<std::__ndk1::__hash_value_type<cocos2d::CCObject*, std::__ndk1::pair<std::__ndk1::basic_string<char, std::__ndk1::char_traits<char>, std::__ndk1::allocator<char> >, std::__ndk1::basic_string<char, std::__ndk1::char_traits<char>, std::__ndk1::allocator<char> > > >, void*>, std::__ndk1::__hash_node_destructor<std::__ndk1::allocator<std::__ndk1::__hash_node<std::__ndk1::__hash_value_type<cocos2d::CCObject*, std::__ndk1::pair<std::__ndk1::basic_string<char, std::__ndk1::char_traits<char>, std::__ndk1::allocator<char> >, std::__ndk1::basic_string<char, std::__ndk1::char_traits<char>, std::__ndk1::allocator<char> > > >, void*> > > >::~unique_ptr[abi:ne180000]()
PUBLIC 8fa74 0 std::__ndk1::__hash_table<std::__ndk1::__hash_value_type<cocos2d::CCObject*, std::__ndk1::pair<std::__ndk1::basic_string<char, std::__ndk1::char_traits<char>, std::__ndk1::allocator<char> >, std::__ndk1::basic_string<char, std::__ndk1::char_traits<char>, std::__ndk1::allocator<char> > > >, std::__ndk1::__unordered_map_hasher<cocos2d::CCObject*, std::__ndk1::__hash_value_type<cocos2d::CCObject*, std::__ndk1::pair<std::__ndk1::basic_string<char, std::__ndk1::char_traits<char>, std::__ndk1::allocator<char> >, std::__ndk1::basic_string<char, std::__ndk1::char_traits<char>, std::__ndk1::allocator<char> > > >, std::__ndk1::hash<cocos2d::CCObject*>, std::__ndk1::equal_to<cocos2d::CCObject*>, true>, std::__ndk1::__unordered_map_equal<cocos2d::CCObject*, std::__ndk1::__hash_value_type<cocos2d::CCObject*, std::__ndk1::pair<std::__ndk1::basic_string<char, std::__ndk1::char_traits<char>, std::__ndk1::allocator<char> >, std::__ndk1::basic_string<char, std::__ndk1::char_traits<char>, std::__ndk1::allocator<char> > > >, std::__ndk1::equal_to<cocos2d::CCObject*>, std::__ndk1::hash<cocos2d::CCObject*>, true>, std::__ndk1::allocator<std::__ndk1::__hash_value_type<cocos2d::CCObject*, std::__ndk1::pair<std::__ndk1::basic_string<char, std::__ndk1::char_traits<char>, std::__ndk1::allocator<char> >, std::__ndk1::basic_string<char, std::__ndk1::char_traits<char>, std::__ndk1::allocator<char> > > > > >::__do_rehash<true>(unsigned long)
PUBLIC 8fc20 0 std::__ndk1::__hash_table<std::__ndk1::__hash_value_type<cocos2d::CCObject*, std::__ndk1::pair<std::__ndk1::basic_string<char, std::__ndk1::char_traits<char>, std::__ndk1::allocator<char> >, std::__ndk1::basic_string<char, std::__ndk1::char_traits<char>, std::__ndk1::allocator<char> > > >, std::__ndk1::__unordered_map_hasher<cocos2d::CCObject*, std::__ndk1::__hash_value_type<cocos2d::CCObject*, std::__ndk1::pair<std::__ndk1::basic_string<char, std::__ndk1::char_traits<char>, std::__ndk1::allocator<char> >, std::__ndk1::basic_string<char, std::__ndk1::char_traits<char>, std::__ndk1::allocator<char> > > >, std::__ndk1::hash<cocos2d::CCObject*>, std::__ndk1::equal_to<cocos2d::CCObject*>, true>, std::__ndk1::__unordered_map_equal<cocos2d::CCObject*, std::__ndk1::__hash_value_type<cocos2d::CCObject*, std::__ndk1::pair<std::__ndk1::basic_string<char, std::__ndk1::char_traits<char>, std::__ndk1::allocator<char> >, std::__ndk1::basic_string<char, std::__ndk1::char_traits<char>, std::__ndk1::allocator<char> > > >, std::__ndk1::equal_to<cocos2d::CCObject*>, std::__ndk1::hash<cocos2d::CCObject*>, true>, std::__ndk1::allocator<std::__ndk1::__hash_value_type<cocos2d::CCObject*, std::__ndk1::pair<std::__ndk1::basic_string<char, std::__ndk1::char_traits<char>, std::__ndk1::allocator<char> >, std::__ndk1::basic_string<char, std::__ndk1::char_traits<char>, std::__ndk1::allocator<char> > > > > >::__emplace_unique_key_args<cocos2d::CCObject*, std::__ndk1::piecewise_construct_t const&, std::__ndk1::tuple<cocos2d::CCObject* const&>, std::__ndk1::tuple<> >(cocos2d::CCObject* const&, std::__ndk1::piecewise_construct_t const&, std::__ndk1::tuple<cocos2d::CCObject* const&>, std::__ndk1::tuple<>)
PUBLIC 8ffa0 0 CountyTextDisplay::create(std::__ndk1::vector<std::__ndk1::basic_string<char, std::__ndk1::char_traits<char>, std::__ndk1::allocator<char> >, std::__ndk1::allocator<std::__ndk1::basic_string<char, std::__ndk1::char_traits<char>, std::__ndk1::allocator<char> > > >, cocos2d::CCSize, bool)
PUBLIC 9012c 0 CountyTextDisplay::init(std::__ndk1::vector<std::__ndk1::basic_string<char, std::__ndk1::char_traits<char>, std::__ndk1::allocator<char> >, std::__ndk1::allocator<std::__ndk1::basic_string<char, std::__ndk1::char_traits<char>, std::__ndk1::allocator<char> > > >, cocos2d::CCSize, bool)
PUBLIC 90678 0 CountyTextDisplay::create(std::__ndk1::vector<std::__ndk1::tuple<std::__ndk1::basic_string<char, std::__ndk1::char_traits<char>, std::__ndk1::allocator<char> >, int, bool, int>, std::__ndk1::allocator<std::__ndk1::tuple<std::__ndk1::basic_string<char, std::__ndk1::char_traits<char>, std::__ndk1::allocator<char> >, int, bool, int> > >, cocos2d::CCSize, bool)
PUBLIC 907f8 0 CountyTextDisplay::init(std::__ndk1::vector<std::__ndk1::tuple<std::__ndk1::basic_string<char, std::__ndk1::char_traits<char>, std::__ndk1::allocator<char> >, int, bool, int>, std::__ndk1::allocator<std::__ndk1::tuple<std::__ndk1::basic_string<char, std::__ndk1::char_traits<char>, std::__ndk1::allocator<char> >, int, bool, int> > >, cocos2d::CCSize, bool)
PUBLIC 90e04 0 std::__ndk1::vector<std::__ndk1::tuple<std::__ndk1::basic_string<char, std::__ndk1::char_traits<char>, std::__ndk1::allocator<char> >, int, bool, int>, std::__ndk1::allocator<std::__ndk1::tuple<std::__ndk1::basic_string<char, std::__ndk1::char_traits<char>, std::__ndk1::allocator<char> >, int, bool, int> > >::~vector[abi:ne180000]()
PUBLIC 90e80 0 CountyTextDisplay::~CountyTextDisplay()
PUBLIC 90f10 0 CountyTextDisplay::~CountyTextDisplay()
PUBLIC 90fa8 0 std::__ndk1::vector<std::__ndk1::basic_string<char, std::__ndk1::char_traits<char>, std::__ndk1::allocator<char> >, std::__ndk1::allocator<std::__ndk1::basic_string<char, std::__ndk1::char_traits<char>, std::__ndk1::allocator<char> > > >::__init_with_size[abi:ne180000]<std::__ndk1::basic_string<char, std::__ndk1::char_traits<char>, std::__ndk1::allocator<char> >*, std::__ndk1::vector<std::__ndk1::basic_string<char, std::__ndk1::char_traits<char>, std::__ndk1::allocator<char> >, std::__ndk1::allocator<std::__ndk1::basic_string<char, std::__ndk1::char_traits<char>, std::__ndk1::allocator<char> > > >::__init_with_size[abi:ne180000]>(std::__ndk1::basic_string<char, std::__ndk1::char_traits<char>, std::__ndk1::allocator<char> >*, std::__ndk1::vector<std::__ndk1::basic_string<char, std::__ndk1::char_traits<char>, std::__ndk1::allocator<char> >, std::__ndk1::allocator<std::__ndk1::basic_string<char, std::__ndk1::char_traits<char>, std::__ndk1::allocator<char> > > >::__init_with_size[abi:ne180000], unsigned long)
PUBLIC 91114 0 std::__ndk1::__exception_guard_exceptions<std::__ndk1::vector<std::__ndk1::basic_string<char, std::__ndk1::char_traits<char>, std::__ndk1::allocator<char> >, std::__ndk1::allocator<std::__ndk1::basic_string<char, std::__ndk1::char_traits<char>, std::__ndk1::allocator<char> > > >::__destroy_vector>::~__exception_guard_exceptions[abi:ne180000]()
PUBLIC 911a0 0 std::__ndk1::__exception_guard_exceptions<std::__ndk1::_AllocatorDestroyRangeReverse<std::__ndk1::allocator<std::__ndk1::basic_string<char, std::__ndk1::char_traits<char>, std::__ndk1::allocator<char> > >, std::__ndk1::basic_string<char, std::__ndk1::char_traits<char>, std::__ndk1::allocator<char> >*> >::~__exception_guard_exceptions[abi:ne180000]()
PUBLIC 91200 0 std::__ndk1::vector<std::__ndk1::tuple<std::__ndk1::basic_string<char, std::__ndk1::char_traits<char>, std::__ndk1::allocator<char> >, int, bool, int>, std::__ndk1::allocator<std::__ndk1::tuple<std::__ndk1::basic_string<char, std::__ndk1::char_traits<char>, std::__ndk1::allocator<char> >, int, bool, int> > >::__init_with_size[abi:ne180000]<std::__ndk1::tuple<std::__ndk1::basic_string<char, std::__ndk1::char_traits<char>, std::__ndk1::allocator<char> >, int, bool, int>*, std::__ndk1::vector<std::__ndk1::tuple<std::__ndk1::basic_string<char, std::__ndk1::char_traits<char>, std::__ndk1::allocator<char> >, int, bool, int>, std::__ndk1::allocator<std::__ndk1::tuple<std::__ndk1::basic_string<char, std::__ndk1::char_traits<char>, std::__ndk1::allocator<char> >, int, bool, int> > >::__init_with_size[abi:ne180000]>(std::__ndk1::tuple<std::__ndk1::basic_string<char, std::__ndk1::char_traits<char>, std::__ndk1::allocator<char> >, int, bool, int>*, std::__ndk1::vector<std::__ndk1::tuple<std::__ndk1::basic_string<char, std::__ndk1::char_traits<char>, std::__ndk1::allocator<char> >, int, bool, int>, std::__ndk1::allocator<std::__ndk1::tuple<std::__ndk1::basic_string<char, std::__ndk1::char_traits<char>, std::__ndk1::allocator<char> >, int, bool, int> > >::__init_with_size[abi:ne180000], unsigned long)
PUBLIC 91380 0 std::__ndk1::__exception_guard_exceptions<std::__ndk1::vector<std::__ndk1::tuple<std::__ndk1::basic_string<char, std::__ndk1::char_traits<char>, std::__ndk1::allocator<char> >, int, bool, int>, std::__ndk1::allocator<std::__ndk1::tuple<std::__ndk1::basic_string<char, std::__ndk1::char_traits<char>, std::__ndk1::allocator<char> >, int, bool, int> > >::__destroy_vector>::~__exception_guard_exceptions[abi:ne180000]()
PUBLIC 9140c 0 std::__ndk1::vector<std::__ndk1::tuple<std::__ndk1::basic_string<char, std::__ndk1::char_traits<char>, std::__ndk1::allocator<char> >, int, bool, int>, std::__ndk1::allocator<std::__ndk1::tuple<std::__ndk1::basic_string<char, std::__ndk1::char_traits<char>, std::__ndk1::allocator<char> >, int, bool, int> > >::__throw_length_error[abi:ne180000]() const
PUBLIC 91420 0 std::__ndk1::__exception_guard_exceptions<std::__ndk1::_AllocatorDestroyRangeReverse<std::__ndk1::allocator<std::__ndk1::tuple<std::__ndk1::basic_string<char, std::__ndk1::char_traits<char>, std::__ndk1::allocator<char> >, int, bool, int> >, std::__ndk1::tuple<std::__ndk1::basic_string<char, std::__ndk1::char_traits<char>, std::__ndk1::allocator<char> >, int, bool, int>*> >::~__exception_guard_exceptions[abi:ne180000]()
PUBLIC 91480 0 std::__ndk1::vector<std::__ndk1::basic_string<char, std::__ndk1::char_traits<char>, std::__ndk1::allocator<char> >, std::__ndk1::allocator<std::__ndk1::basic_string<char, std::__ndk1::char_traits<char>, std::__ndk1::allocator<char> > > >::__assign_with_size[abi:ne180000]<std::__ndk1::basic_string<char, std::__ndk1::char_traits<char>, std::__ndk1::allocator<char> >*, std::__ndk1::vector<std::__ndk1::basic_string<char, std::__ndk1::char_traits<char>, std::__ndk1::allocator<char> >, std::__ndk1::allocator<std::__ndk1::basic_string<char, std::__ndk1::char_traits<char>, std::__ndk1::allocator<char> > > >::__assign_with_size[abi:ne180000]>(std::__ndk1::basic_string<char, std::__ndk1::char_traits<char>, std::__ndk1::allocator<char> >*, std::__ndk1::vector<std::__ndk1::basic_string<char, std::__ndk1::char_traits<char>, std::__ndk1::allocator<char> >, std::__ndk1::allocator<std::__ndk1::basic_string<char, std::__ndk1::char_traits<char>, std::__ndk1::allocator<char> > > >::__assign_with_size[abi:ne180000], long)
PUBLIC 9186c 0 std::__ndk1::vector<flagDisplay*, std::__ndk1::allocator<flagDisplay*> >::__throw_length_error[abi:ne180000]() const
PUBLIC 91880 0 GDWTLayer::GDWTLayer()
PUBLIC 91ae8 0 GDWTLayer::init()
PUBLIC 92e84 0 GDWTLayer::MatchesListArrowLeft(cocos2d::CCObject*)
PUBLIC 92e9c 0 GDWTLayer::MatchesListArrowRight(cocos2d::CCObject*)
PUBLIC 92eac 0 GDWTLayer::refreshMatchesList(int)
PUBLIC 9304c 0 GDWTLayer::TeamsListArrowLeft(cocos2d::CCObject*)
PUBLIC 9305c 0 GDWTLayer::TeamsListArrowRight(cocos2d::CCObject*)
PUBLIC 9306c 0 GDWTLayer::refreshTeamsList(int)
PUBLIC 9320c 0 GDWTLayer::MatchGroupsListArrowLeft(cocos2d::CCObject*)
PUBLIC 9321c 0 GDWTLayer::MatchGroupsListArrowRight(cocos2d::CCObject*)
PUBLIC 9322c 0 GDWTLayer::refreshMatchGroupsList(int)
PUBLIC 933cc 0 GDWTLayer::OnBackButton(cocos2d::CCObject*)
PUBLIC 933e8 0 GDWTLayer::openJoinMatchMenu(cocos2d::CCObject*)
PUBLIC 934c8 0 GDWTLayer::keyBackClicked()
PUBLIC 934e4 0 {virtual override thunk({offset(-336)}, GDWTLayer::keyBackClicked())}
PUBLIC 93500 0 GDWTLayer::update(float)
PUBLIC 938dc 0 GDWTLayer::~GDWTLayer()
PUBLIC 93ab4 0 GDWTLayer::~GDWTLayer()
PUBLIC 93ad8 0 {virtual override thunk({offset(-320)}, GDWTLayer::~GDWTLayer())}
PUBLIC 93ae0 0 {virtual override thunk({offset(-320)}, GDWTLayer::~GDWTLayer())}
PUBLIC 93b08 0 std::__ndk1::__function::__func<GDWTLayer::refreshMatchesList(int)::$_0, std::__ndk1::allocator<GDWTLayer::refreshMatchesList(int)::$_0>, void (geode::Task<geode::Result<std::__ndk1::vector<Match_s, std::__ndk1::allocator<Match_s> >, std::__ndk1::basic_string<char, std::__ndk1::char_traits<char>, std::__ndk1::allocator<char> > >, std::__ndk1::monostate>::Event*)>::~__func()
PUBLIC 93b0c 0 std::__ndk1::__function::__func<GDWTLayer::refreshMatchesList(int)::$_0, std::__ndk1::allocator<GDWTLayer::refreshMatchesList(int)::$_0>, void (geode::Task<geode::Result<std::__ndk1::vector<Match_s, std::__ndk1::allocator<Match_s> >, std::__ndk1::basic_string<char, std::__ndk1::char_traits<char>, std::__ndk1::allocator<char> > >, std::__ndk1::monostate>::Event*)>::__clone() const
PUBLIC 93b44 0 std::__ndk1::__function::__func<GDWTLayer::refreshMatchesList(int)::$_0, std::__ndk1::allocator<GDWTLayer::refreshMatchesList(int)::$_0>, void (geode::Task<geode::Result<std::__ndk1::vector<Match_s, std::__ndk1::allocator<Match_s> >, std::__ndk1::basic_string<char, std::__ndk1::char_traits<char>, std::__ndk1::allocator<char> > >, std::__ndk1::monostate>::Event*)>::__clone(std::__ndk1::__function::__base<void (geode::Task<geode::Result<std::__ndk1::vector<Match_s, std::__ndk1::allocator<Match_s> >, std::__ndk1::basic_string<char, std::__ndk1::char_traits<char>, std::__ndk1::allocator<char> > >, std::__ndk1::monostate>::Event*)>*) const
PUBLIC 93b5c 0 std::__ndk1::__function::__func<GDWTLayer::refreshMatchesList(int)::$_0, std::__ndk1::allocator<GDWTLayer::refreshMatchesList(int)::$_0>, void (geode::Task<geode::Result<std::__ndk1::vector<Match_s, std::__ndk1::allocator<Match_s> >, std::__ndk1::basic_string<char, std::__ndk1::char_traits<char>, std::__ndk1::allocator<char> > >, std::__ndk1::monostate>::Event*)>::destroy()
PUBLIC 93b60 0 std::__ndk1::__function::__func<GDWTLayer::refreshMatchesList(int)::$_0, std::__ndk1::allocator<GDWTLayer::refreshMatchesList(int)::$_0>, void (geode::Task<geode::Result<std::__ndk1::vector<Match_s, std::__ndk1::allocator<Match_s> >, std::__ndk1::basic_string<char, std::__ndk1::char_traits<char>, std::__ndk1::allocator<char> > >, std::__ndk1::monostate>::Event*)>::destroy_deallocate()
PUBLIC 93b64 0 std::__ndk1::__function::__func<GDWTLayer::refreshMatchesList(int)::$_0, std::__ndk1::allocator<GDWTLayer::refreshMatchesList(int)::$_0>, void (geode::Task<geode::Result<std::__ndk1::vector<Match_s, std::__ndk1::allocator<Match_s> >, std::__ndk1::basic_string<char, std::__ndk1::char_traits<char>, std::__ndk1::allocator<char> > >, std::__ndk1::monostate>::Event*)>::operator()(geode::Task<geode::Result<std::__ndk1::vector<Match_s, std::__ndk1::allocator<Match_s> >, std::__ndk1::basic_string<char, std::__ndk1::char_traits<char>, std::__ndk1::allocator<char> > >, std::__ndk1::monostate>::Event*&&)
PUBLIC 94000 0 std::__ndk1::__function::__func<GDWTLayer::refreshMatchesList(int)::$_0, std::__ndk1::allocator<GDWTLayer::refreshMatchesList(int)::$_0>, void (geode::Task<geode::Result<std::__ndk1::vector<Match_s, std::__ndk1::allocator<Match_s> >, std::__ndk1::basic_string<char, std::__ndk1::char_traits<char>, std::__ndk1::allocator<char> > >, std::__ndk1::monostate>::Event*)>::target(std::type_info const&) const
PUBLIC 9401c 0 std::__ndk1::__function::__func<GDWTLayer::refreshMatchesList(int)::$_0, std::__ndk1::allocator<GDWTLayer::refreshMatchesList(int)::$_0>, void (geode::Task<geode::Result<std::__ndk1::vector<Match_s, std::__ndk1::allocator<Match_s> >, std::__ndk1::basic_string<char, std::__ndk1::char_traits<char>, std::__ndk1::allocator<char> > >, std::__ndk1::monostate>::Event*)>::target_type() const
PUBLIC 94028 0 std::__ndk1::vector<Match_s, std::__ndk1::allocator<Match_s> >::operator=[abi:ne180000](std::__ndk1::vector<Match_s, std::__ndk1::allocator<Match_s> >&&)
PUBLIC 940ac 0 std::__ndk1::vector<Match_s, std::__ndk1::allocator<Match_s> >::~vector[abi:ne180000]()
PUBLIC 94114 0 std::__ndk1::vector<Match_s, std::__ndk1::allocator<Match_s> >::__init_with_size[abi:ne180000]<Match_s*, std::__ndk1::vector<Match_s, std::__ndk1::allocator<Match_s> >::__init_with_size[abi:ne180000]>(Match_s*, std::__ndk1::vector<Match_s, std::__ndk1::allocator<Match_s> >::__init_with_size[abi:ne180000], unsigned long)
PUBLIC 94248 0 std::__ndk1::__exception_guard_exceptions<std::__ndk1::vector<Match_s, std::__ndk1::allocator<Match_s> >::__destroy_vector>::~__exception_guard_exceptions[abi:ne180000]()
PUBLIC 942c4 0 std::__ndk1::vector<Match_s, std::__ndk1::allocator<Match_s> >::__throw_length_error[abi:ne180000]() const
PUBLIC 942d8 0 Match_s::Match_s(Match_s const&)
PUBLIC 944fc 0 std::__ndk1::vector<Level, std::__ndk1::allocator<Level> >::~vector[abi:ne180000]()
PUBLIC 94564 0 std::__ndk1::vector<Host, std::__ndk1::allocator<Host> >::~vector[abi:ne180000]()
PUBLIC 945ec 0 std::__ndk1::vector<Host, std::__ndk1::allocator<Host> >::__init_with_size[abi:ne180000]<Host*, std::__ndk1::vector<Host, std::__ndk1::allocator<Host> >::__init_with_size[abi:ne180000]>(Host*, std::__ndk1::vector<Host, std::__ndk1::allocator<Host> >::__init_with_size[abi:ne180000], unsigned long)
PUBLIC 9475c 0 std::__ndk1::__exception_guard_exceptions<std::__ndk1::vector<Host, std::__ndk1::allocator<Host> >::__destroy_vector>::~__exception_guard_exceptions[abi:ne180000]()
PUBLIC 947f4 0 std::__ndk1::vector<Host, std::__ndk1::allocator<Host> >::__throw_length_error[abi:ne180000]() const
PUBLIC 94808 0 std::__ndk1::__exception_guard_exceptions<std::__ndk1::_AllocatorDestroyRangeReverse<std::__ndk1::allocator<Host>, Host*> >::~__exception_guard_exceptions[abi:ne180000]()
PUBLIC 9485c 0 std::__ndk1::vector<Level, std::__ndk1::allocator<Level> >::__init_with_size[abi:ne180000]<Level*, std::__ndk1::vector<Level, std::__ndk1::allocator<Level> >::__init_with_size[abi:ne180000]>(Level*, std::__ndk1::vector<Level, std::__ndk1::allocator<Level> >::__init_with_size[abi:ne180000], unsigned long)
PUBLIC 94990 0 std::__ndk1::__exception_guard_exceptions<std::__ndk1::vector<Level, std::__ndk1::allocator<Level> >::__destroy_vector>::~__exception_guard_exceptions[abi:ne180000]()
PUBLIC 94a0c 0 std::__ndk1::vector<Level, std::__ndk1::allocator<Level> >::__throw_length_error[abi:ne180000]() const
PUBLIC 94a20 0 Level::Level(Level const&)
PUBLIC 94b80 0 std::__ndk1::vector<std::__ndk1::tuple<int, int, std::__ndk1::basic_string<char, std::__ndk1::char_traits<char>, std::__ndk1::allocator<char> > >, std::__ndk1::allocator<std::__ndk1::tuple<int, int, std::__ndk1::basic_string<char, std::__ndk1::char_traits<char>, std::__ndk1::allocator<char> > > > >::~vector[abi:ne180000]()
PUBLIC 94c08 0 std::__ndk1::vector<std::__ndk1::tuple<int, int, std::__ndk1::basic_string<char, std::__ndk1::char_traits<char>, std::__ndk1::allocator<char> > >, std::__ndk1::allocator<std::__ndk1::tuple<int, int, std::__ndk1::basic_string<char, std::__ndk1::char_traits<char>, std::__ndk1::allocator<char> > > > >::__init_with_size[abi:ne180000]<std::__ndk1::tuple<int, int, std::__ndk1::basic_string<char, std::__ndk1::char_traits<char>, std::__ndk1::allocator<char> > >*, std::__ndk1::vector<std::__ndk1::tuple<int, int, std::__ndk1::basic_string<char, std::__ndk1::char_traits<char>, std::__ndk1::allocator<char> > >, std::__ndk1::allocator<std::__ndk1::tuple<int, int, std::__ndk1::basic_string<char, std::__ndk1::char_traits<char>, std::__ndk1::allocator<char> > > > >::__init_with_size[abi:ne180000]>(std::__ndk1::tuple<int, int, std::__ndk1::basic_string<char, std::__ndk1::char_traits<char>, std::__ndk1::allocator<char> > >*, std::__ndk1::vector<std::__ndk1::tuple<int, int, std::__ndk1::basic_string<char, std::__ndk1::char_traits<char>, std::__ndk1::allocator<char> > >, std::__ndk1::allocator<std::__ndk1::tuple<int, int, std::__ndk1::basic_string<char, std::__ndk1::char_traits<char>, std::__ndk1::allocator<char> > > > >::__init_with_size[abi:ne180000], unsigned long)
PUBLIC 94d80 0 std::__ndk1::__exception_guard_exceptions<std::__ndk1::vector<std::__ndk1::tuple<int, int, std::__ndk1::basic_string<char, std::__ndk1::char_traits<char>, std::__ndk1::allocator<char> > >, std::__ndk1::allocator<std::__ndk1::tuple<int, int, std::__ndk1::basic_string<char, std::__ndk1::char_traits<char>, std::__ndk1::allocator<char> > > > >::__destroy_vector>::~__exception_guard_exceptions[abi:ne180000]()
PUBLIC 94e18 0 std::__ndk1::vector<std::__ndk1::tuple<int, int, std::__ndk1::basic_string<char, std::__ndk1::char_traits<char>, std::__ndk1::allocator<char> > >, std::__ndk1::allocator<std::__ndk1::tuple<int, int, std::__ndk1::basic_string<char, std::__ndk1::char_traits<char>, std::__ndk1::allocator<char> > > > >::__throw_length_error[abi:ne180000]() const
PUBLIC 94e2c 0 std::__ndk1::__exception_guard_exceptions<std::__ndk1::_AllocatorDestroyRangeReverse<std::__ndk1::allocator<std::__ndk1::tuple<int, int, std::__ndk1::basic_string<char, std::__ndk1::char_traits<char>, std::__ndk1::allocator<char> > > >, std::__ndk1::tuple<int, int, std::__ndk1::basic_string<char, std::__ndk1::char_traits<char>, std::__ndk1::allocator<char> > >*> >::~__exception_guard_exceptions[abi:ne180000]()
PUBLIC 94e80 0 std::__ndk1::__exception_guard_exceptions<std::__ndk1::vector<std::__ndk1::tuple<std::__ndk1::basic_string<char, std::__ndk1::char_traits<char>, std::__ndk1::allocator<char> >, std::__ndk1::basic_string<char, std::__ndk1::char_traits<char>, std::__ndk1::allocator<char> >, int>, std::__ndk1::allocator<std::__ndk1::tuple<std::__ndk1::basic_string<char, std::__ndk1::char_traits<char>, std::__ndk1::allocator<char> >, std::__ndk1::basic_string<char, std::__ndk1::char_traits<char>, std::__ndk1::allocator<char> >, int> > >::__destroy_vector>::~__exception_guard_exceptions[abi:ne180000]()
PUBLIC 94f34 0 std::__ndk1::vector<std::__ndk1::tuple<std::__ndk1::basic_string<char, std::__ndk1::char_traits<char>, std::__ndk1::allocator<char> >, std::__ndk1::basic_string<char, std::__ndk1::char_traits<char>, std::__ndk1::allocator<char> >, int>, std::__ndk1::allocator<std::__ndk1::tuple<std::__ndk1::basic_string<char, std::__ndk1::char_traits<char>, std::__ndk1::allocator<char> >, std::__ndk1::basic_string<char, std::__ndk1::char_traits<char>, std::__ndk1::allocator<char> >, int> > >::__throw_length_error[abi:ne180000]() const
PUBLIC 94f48 0 std::__ndk1::__uninitialized_allocator_copy_impl[abi:ne180000]<std::__ndk1::allocator<std::__ndk1::tuple<std::__ndk1::basic_string<char, std::__ndk1::char_traits<char>, std::__ndk1::__uninitialized_allocator_copy_impl[abi:ne180000]<char> >, std::__ndk1::__uninitialized_allocator_copy_impl[abi:ne180000]<char>, int> >, std::__ndk1::basic_string<char, std::__ndk1::char_traits<char>, std::__ndk1::__uninitialized_allocator_copy_impl[abi:ne180000]<char> >*, std::__ndk1::allocator<std::__ndk1::tuple<std::__ndk1::basic_string<char, std::__ndk1::char_traits<char>, std::__ndk1::__uninitialized_allocator_copy_impl[abi:ne180000]<char> >, std::__ndk1::__uninitialized_allocator_copy_impl[abi:ne180000]<char>, int> >, std::__ndk1::allocator<std::__ndk1::tuple<std::__ndk1::basic_string<char, std::__ndk1::char_traits<char>, std::__ndk1::__uninitialized_allocator_copy_impl[abi:ne180000]<char> >, std::__ndk1::__uninitialized_allocator_copy_impl[abi:ne180000]<char>, int> > >(std::__ndk1::allocator<std::__ndk1::tuple<std::__ndk1::basic_string<char, std::__ndk1::char_traits<char>, std::__ndk1::__uninitialized_allocator_copy_impl[abi:ne180000]<char> >, std::__ndk1::__uninitialized_allocator_copy_impl[abi:ne180000]<char>, int> >&, std::__ndk1::basic_string<char, std::__ndk1::char_traits<char>, std::__ndk1::__uninitialized_allocator_copy_impl[abi:ne180000]<char> >*, std::__ndk1::allocator<std::__ndk1::tuple<std::__ndk1::basic_string<char, std::__ndk1::char_traits<char>, std::__ndk1::__uninitialized_allocator_copy_impl[abi:ne180000]<char> >, std::__ndk1::__uninitialized_allocator_copy_impl[abi:ne180000]<char>, int> >, std::__ndk1::basic_string<char, std::__ndk1::char_traits<char>, std::__ndk1::__uninitialized_allocator_copy_impl[abi:ne180000]<char> >*)
PUBLIC 95074 0 std::__ndk1::__exception_guard_exceptions<std::__ndk1::_AllocatorDestroyRangeReverse<std::__ndk1::allocator<std::__ndk1::tuple<std::__ndk1::basic_string<char, std::__ndk1::char_traits<char>, std::__ndk1::allocator<char> >, std::__ndk1::basic_string<char, std::__ndk1::char_traits<char>, std::__ndk1::allocator<char> >, int> >, std::__ndk1::tuple<std::__ndk1::basic_string<char, std::__ndk1::char_traits<char>, std::__ndk1::allocator<char> >, std::__ndk1::basic_string<char, std::__ndk1::char_traits<char>, std::__ndk1::allocator<char> >, int>*> >::~__exception_guard_exceptions[abi:ne180000]()
PUBLIC 950d8 0 _ZNSt6__ndk112__destroy_atB8ne180000I5LevelTnNS_9enable_ifIXntsr8is_arrayIT_EE5valueEiE4typeELi0EEEvPS3_
PUBLIC 951c4 0 Match_s::~Match_s()
PUBLIC 95384 0 std::__ndk1::vector<Match_s, std::__ndk1::allocator<Match_s> >::__init_with_size[abi:ne180000]<std::__ndk1::__wrap_iter<Match_s*>, Match_s*>(std::__ndk1::__wrap_iter<Match_s*>, Match_s*, unsigned long)
PUBLIC 954b8 0 std::__ndk1::__function::__func<GDWTLayer::refreshTeamsList(int)::$_0, std::__ndk1::allocator<GDWTLayer::refreshTeamsList(int)::$_0>, void (geode::Task<geode::Result<std::__ndk1::vector<Team, std::__ndk1::allocator<Team> >, std::__ndk1::basic_string<char, std::__ndk1::char_traits<char>, std::__ndk1::allocator<char> > >, std::__ndk1::monostate>::Event*)>::~__func()
PUBLIC 954bc 0 std::__ndk1::__function::__func<GDWTLayer::refreshTeamsList(int)::$_0, std::__ndk1::allocator<GDWTLayer::refreshTeamsList(int)::$_0>, void (geode::Task<geode::Result<std::__ndk1::vector<Team, std::__ndk1::allocator<Team> >, std::__ndk1::basic_string<char, std::__ndk1::char_traits<char>, std::__ndk1::allocator<char> > >, std::__ndk1::monostate>::Event*)>::__clone() const
PUBLIC 954f4 0 std::__ndk1::__function::__func<GDWTLayer::refreshTeamsList(int)::$_0, std::__ndk1::allocator<GDWTLayer::refreshTeamsList(int)::$_0>, void (geode::Task<geode::Result<std::__ndk1::vector<Team, std::__ndk1::allocator<Team> >, std::__ndk1::basic_string<char, std::__ndk1::char_traits<char>, std::__ndk1::allocator<char> > >, std::__ndk1::monostate>::Event*)>::__clone(std::__ndk1::__function::__base<void (geode::Task<geode::Result<std::__ndk1::vector<Team, std::__ndk1::allocator<Team> >, std::__ndk1::basic_string<char, std::__ndk1::char_traits<char>, std::__ndk1::allocator<char> > >, std::__ndk1::monostate>::Event*)>*) const
PUBLIC 9550c 0 std::__ndk1::__function::__func<GDWTLayer::refreshTeamsList(int)::$_0, std::__ndk1::allocator<GDWTLayer::refreshTeamsList(int)::$_0>, void (geode::Task<geode::Result<std::__ndk1::vector<Team, std::__ndk1::allocator<Team> >, std::__ndk1::basic_string<char, std::__ndk1::char_traits<char>, std::__ndk1::allocator<char> > >, std::__ndk1::monostate>::Event*)>::destroy()
PUBLIC 95510 0 std::__ndk1::__function::__func<GDWTLayer::refreshTeamsList(int)::$_0, std::__ndk1::allocator<GDWTLayer::refreshTeamsList(int)::$_0>, void (geode::Task<geode::Result<std::__ndk1::vector<Team, std::__ndk1::allocator<Team> >, std::__ndk1::basic_string<char, std::__ndk1::char_traits<char>, std::__ndk1::allocator<char> > >, std::__ndk1::monostate>::Event*)>::destroy_deallocate()
PUBLIC 95514 0 std::__ndk1::__function::__func<GDWTLayer::refreshTeamsList(int)::$_0, std::__ndk1::allocator<GDWTLayer::refreshTeamsList(int)::$_0>, void (geode::Task<geode::Result<std::__ndk1::vector<Team, std::__ndk1::allocator<Team> >, std::__ndk1::basic_string<char, std::__ndk1::char_traits<char>, std::__ndk1::allocator<char> > >, std::__ndk1::monostate>::Event*)>::operator()(geode::Task<geode::Result<std::__ndk1::vector<Team, std::__ndk1::allocator<Team> >, std::__ndk1::basic_string<char, std::__ndk1::char_traits<char>, std::__ndk1::allocator<char> > >, std::__ndk1::monostate>::Event*&&)
PUBLIC 95984 0 std::__ndk1::__function::__func<GDWTLayer::refreshTeamsList(int)::$_0, std::__ndk1::allocator<GDWTLayer::refreshTeamsList(int)::$_0>, void (geode::Task<geode::Result<std::__ndk1::vector<Team, std::__ndk1::allocator<Team> >, std::__ndk1::basic_string<char, std::__ndk1::char_traits<char>, std::__ndk1::allocator<char> > >, std::__ndk1::monostate>::Event*)>::target(std::type_info const&) const
PUBLIC 959a0 0 std::__ndk1::__function::__func<GDWTLayer::refreshTeamsList(int)::$_0, std::__ndk1::allocator<GDWTLayer::refreshTeamsList(int)::$_0>, void (geode::Task<geode::Result<std::__ndk1::vector<Team, std::__ndk1::allocator<Team> >, std::__ndk1::basic_string<char, std::__ndk1::char_traits<char>, std::__ndk1::allocator<char> > >, std::__ndk1::monostate>::Event*)>::target_type() const
PUBLIC 959ac 0 std::__ndk1::vector<Team, std::__ndk1::allocator<Team> >::__init_with_size[abi:ne180000]<Team*, std::__ndk1::vector<Team, std::__ndk1::allocator<Team> >::__init_with_size[abi:ne180000]>(Team*, std::__ndk1::vector<Team, std::__ndk1::allocator<Team> >::__init_with_size[abi:ne180000], unsigned long)
PUBLIC 95af4 0 std::__ndk1::vector<Team, std::__ndk1::allocator<Team> >::__throw_length_error[abi:ne180000]() const
PUBLIC 95b08 0 std::__ndk1::__exception_guard_exceptions<std::__ndk1::_AllocatorDestroyRangeReverse<std::__ndk1::allocator<Team>, Team*> >::~__exception_guard_exceptions[abi:ne180000]()
PUBLIC 95b90 0 Team::Team(Team const&)
PUBLIC 95c88 0 std::__ndk1::vector<Team, std::__ndk1::allocator<Team> >::__destroy_vector::operator()[abi:ne180000]()
PUBLIC 95d60 0 std::__ndk1::__function::__func<GDWTLayer::refreshMatchGroupsList(int)::$_0, std::__ndk1::allocator<GDWTLayer::refreshMatchGroupsList(int)::$_0>, void (geode::Task<geode::Result<std::__ndk1::vector<MatchGroup, std::__ndk1::allocator<MatchGroup> >, std::__ndk1::basic_string<char, std::__ndk1::char_traits<char>, std::__ndk1::allocator<char> > >, std::__ndk1::monostate>::Event*)>::~__func()
PUBLIC 95d64 0 std::__ndk1::__function::__func<GDWTLayer::refreshMatchGroupsList(int)::$_0, std::__ndk1::allocator<GDWTLayer::refreshMatchGroupsList(int)::$_0>, void (geode::Task<geode::Result<std::__ndk1::vector<MatchGroup, std::__ndk1::allocator<MatchGroup> >, std::__ndk1::basic_string<char, std::__ndk1::char_traits<char>, std::__ndk1::allocator<char> > >, std::__ndk1::monostate>::Event*)>::__clone() const
PUBLIC 95d9c 0 std::__ndk1::__function::__func<GDWTLayer::refreshMatchGroupsList(int)::$_0, std::__ndk1::allocator<GDWTLayer::refreshMatchGroupsList(int)::$_0>, void (geode::Task<geode::Result<std::__ndk1::vector<MatchGroup, std::__ndk1::allocator<MatchGroup> >, std::__ndk1::basic_string<char, std::__ndk1::char_traits<char>, std::__ndk1::allocator<char> > >, std::__ndk1::monostate>::Event*)>::__clone(std::__ndk1::__function::__base<void (geode::Task<geode::Result<std::__ndk1::vector<MatchGroup, std::__ndk1::allocator<MatchGroup> >, std::__ndk1::basic_string<char, std::__ndk1::char_traits<char>, std::__ndk1::allocator<char> > >, std::__ndk1::monostate>::Event*)>*) const
PUBLIC 95db4 0 std::__ndk1::__function::__func<GDWTLayer::refreshMatchGroupsList(int)::$_0, std::__ndk1::allocator<GDWTLayer::refreshMatchGroupsList(int)::$_0>, void (geode::Task<geode::Result<std::__ndk1::vector<MatchGroup, std::__ndk1::allocator<MatchGroup> >, std::__ndk1::basic_string<char, std::__ndk1::char_traits<char>, std::__ndk1::allocator<char> > >, std::__ndk1::monostate>::Event*)>::destroy()
PUBLIC 95db8 0 std::__ndk1::__function::__func<GDWTLayer::refreshMatchGroupsList(int)::$_0, std::__ndk1::allocator<GDWTLayer::refreshMatchGroupsList(int)::$_0>, void (geode::Task<geode::Result<std::__ndk1::vector<MatchGroup, std::__ndk1::allocator<MatchGroup> >, std::__ndk1::basic_string<char, std::__ndk1::char_traits<char>, std::__ndk1::allocator<char> > >, std::__ndk1::monostate>::Event*)>::destroy_deallocate()
PUBLIC 95dbc 0 std::__ndk1::__function::__func<GDWTLayer::refreshMatchGroupsList(int)::$_0, std::__ndk1::allocator<GDWTLayer::refreshMatchGroupsList(int)::$_0>, void (geode::Task<geode::Result<std::__ndk1::vector<MatchGroup, std::__ndk1::allocator<MatchGroup> >, std::__ndk1::basic_string<char, std::__ndk1::char_traits<char>, std::__ndk1::allocator<char> > >, std::__ndk1::monostate>::Event*)>::operator()(geode::Task<geode::Result<std::__ndk1::vector<MatchGroup, std::__ndk1::allocator<MatchGroup> >, std::__ndk1::basic_string<char, std::__ndk1::char_traits<char>, std::__ndk1::allocator<char> > >, std::__ndk1::monostate>::Event*&&)
PUBLIC 962b8 0 std::__ndk1::__function::__func<GDWTLayer::refreshMatchGroupsList(int)::$_0, std::__ndk1::allocator<GDWTLayer::refreshMatchGroupsList(int)::$_0>, void (geode::Task<geode::Result<std::__ndk1::vector<MatchGroup, std::__ndk1::allocator<MatchGroup> >, std::__ndk1::basic_string<char, std::__ndk1::char_traits<char>, std::__ndk1::allocator<char> > >, std::__ndk1::monostate>::Event*)>::target(std::type_info const&) const
PUBLIC 962d4 0 std::__ndk1::__function::__func<GDWTLayer::refreshMatchGroupsList(int)::$_0, std::__ndk1::allocator<GDWTLayer::refreshMatchGroupsList(int)::$_0>, void (geode::Task<geode::Result<std::__ndk1::vector<MatchGroup, std::__ndk1::allocator<MatchGroup> >, std::__ndk1::basic_string<char, std::__ndk1::char_traits<char>, std::__ndk1::allocator<char> > >, std::__ndk1::monostate>::Event*)>::target_type() const
PUBLIC 962e0 0 std::__ndk1::vector<MatchGroup, std::__ndk1::allocator<MatchGroup> >::~vector[abi:ne180000]()
PUBLIC 96368 0 std::__ndk1::vector<MatchGroup, std::__ndk1::allocator<MatchGroup> >::__init_with_size[abi:ne180000]<MatchGroup*, std::__ndk1::vector<MatchGroup, std::__ndk1::allocator<MatchGroup> >::__init_with_size[abi:ne180000]>(MatchGroup*, std::__ndk1::vector<MatchGroup, std::__ndk1::allocator<MatchGroup> >::__init_with_size[abi:ne180000], unsigned long)
PUBLIC 964e4 0 std::__ndk1::__exception_guard_exceptions<std::__ndk1::vector<MatchGroup, std::__ndk1::allocator<MatchGroup> >::__destroy_vector>::~__exception_guard_exceptions[abi:ne180000]()
PUBLIC 9657c 0 std::__ndk1::vector<MatchGroup, std::__ndk1::allocator<MatchGroup> >::__throw_length_error[abi:ne180000]() const
PUBLIC 96590 0 std::__ndk1::__exception_guard_exceptions<std::__ndk1::_AllocatorDestroyRangeReverse<std::__ndk1::allocator<MatchGroup>, MatchGroup*> >::~__exception_guard_exceptions[abi:ne180000]()
PUBLIC 965e4 0 GDWTMatchCell::init(Match_s const&, cocos2d::CCSize, bool)
PUBLIC 97068 0 Match_s::operator=(Match_s const&)
PUBLIC 972d4 0 GDWTMatchCell::onLiveClicked(cocos2d::CCObject*)
PUBLIC 972dc 0 GDWTMatchCell::onMoreClicked(cocos2d::CCObject*)
PUBLIC 973cc 0 GDWTMatchCell::~GDWTMatchCell()
PUBLIC 97400 0 GDWTMatchCell::~GDWTMatchCell()
PUBLIC 9743c 0 std::__ndk1::vector<Host, std::__ndk1::allocator<Host> >::__assign_with_size[abi:ne180000]<Host*, std::__ndk1::vector<Host, std::__ndk1::allocator<Host> >::__assign_with_size[abi:ne180000]>(Host*, std::__ndk1::vector<Host, std::__ndk1::allocator<Host> >::__assign_with_size[abi:ne180000], long)
PUBLIC 9784c 0 std::__ndk1::vector<Level, std::__ndk1::allocator<Level> >::__assign_with_size[abi:ne180000]<Level*, std::__ndk1::vector<Level, std::__ndk1::allocator<Level> >::__assign_with_size[abi:ne180000]>(Level*, std::__ndk1::vector<Level, std::__ndk1::allocator<Level> >::__assign_with_size[abi:ne180000], long)
PUBLIC 97b4c 0 std::__ndk1::vector<std::__ndk1::tuple<int, int, std::__ndk1::basic_string<char, std::__ndk1::char_traits<char>, std::__ndk1::allocator<char> > >, std::__ndk1::allocator<std::__ndk1::tuple<int, int, std::__ndk1::basic_string<char, std::__ndk1::char_traits<char>, std::__ndk1::allocator<char> > > > >::__assign_with_size[abi:ne180000]<std::__ndk1::tuple<int, int, std::__ndk1::basic_string<char, std::__ndk1::char_traits<char>, std::__ndk1::allocator<char> > >*, std::__ndk1::vector<std::__ndk1::tuple<int, int, std::__ndk1::basic_string<char, std::__ndk1::char_traits<char>, std::__ndk1::allocator<char> > >, std::__ndk1::allocator<std::__ndk1::tuple<int, int, std::__ndk1::basic_string<char, std::__ndk1::char_traits<char>, std::__ndk1::allocator<char> > > > >::__assign_with_size[abi:ne180000]>(std::__ndk1::tuple<int, int, std::__ndk1::basic_string<char, std::__ndk1::char_traits<char>, std::__ndk1::allocator<char> > >*, std::__ndk1::vector<std::__ndk1::tuple<int, int, std::__ndk1::basic_string<char, std::__ndk1::char_traits<char>, std::__ndk1::allocator<char> > >, std::__ndk1::allocator<std::__ndk1::tuple<int, int, std::__ndk1::basic_string<char, std::__ndk1::char_traits<char>, std::__ndk1::allocator<char> > > > >::__assign_with_size[abi:ne180000], long)
PUBLIC 97f90 0 std::__ndk1::vector<std::__ndk1::tuple<std::__ndk1::basic_string<char, std::__ndk1::char_traits<char>, std::__ndk1::allocator<char> >, std::__ndk1::basic_string<char, std::__ndk1::char_traits<char>, std::__ndk1::allocator<char> >, int>, std::__ndk1::allocator<std::__ndk1::tuple<std::__ndk1::basic_string<char, std::__ndk1::char_traits<char>, std::__ndk1::allocator<char> >, std::__ndk1::basic_string<char, std::__ndk1::char_traits<char>, std::__ndk1::allocator<char> >, int> > >::__assign_with_size[abi:ne180000]<std::__ndk1::tuple<std::__ndk1::basic_string<char, std::__ndk1::char_traits<char>, std::__ndk1::allocator<char> >, std::__ndk1::basic_string<char, std::__ndk1::char_traits<char>, std::__ndk1::allocator<char> >, int>*, std::__ndk1::vector<std::__ndk1::tuple<std::__ndk1::basic_string<char, std::__ndk1::char_traits<char>, std::__ndk1::allocator<char> >, std::__ndk1::basic_string<char, std::__ndk1::char_traits<char>, std::__ndk1::allocator<char> >, int>, std::__ndk1::allocator<std::__ndk1::tuple<std::__ndk1::basic_string<char, std::__ndk1::char_traits<char>, std::__ndk1::allocator<char> >, std::__ndk1::basic_string<char, std::__ndk1::char_traits<char>, std::__ndk1::allocator<char> >, int> > >::__assign_with_size[abi:ne180000]>(std::__ndk1::tuple<std::__ndk1::basic_string<char, std::__ndk1::char_traits<char>, std::__ndk1::allocator<char> >, std::__ndk1::basic_string<char, std::__ndk1::char_traits<char>, std::__ndk1::allocator<char> >, int>*, std::__ndk1::vector<std::__ndk1::tuple<std::__ndk1::basic_string<char, std::__ndk1::char_traits<char>, std::__ndk1::allocator<char> >, std::__ndk1::basic_string<char, std::__ndk1::char_traits<char>, std::__ndk1::allocator<char> >, int>, std::__ndk1::allocator<std::__ndk1::tuple<std::__ndk1::basic_string<char, std::__ndk1::char_traits<char>, std::__ndk1::allocator<char> >, std::__ndk1::basic_string<char, std::__ndk1::char_traits<char>, std::__ndk1::allocator<char> >, int> > >::__assign_with_size[abi:ne180000], long)
PUBLIC 981f4 0 std::__ndk1::__memberwise_copy_assign[abi:ne180000]<std::__ndk1::tuple<std::__ndk1::basic_string<char, std::__ndk1::char_traits<char>, std::__ndk1::allocator<char> >, std::__ndk1::allocator<char>, int>, std::__ndk1::basic_string<char, std::__ndk1::char_traits<char>, std::__ndk1::allocator<char> >, (unsigned long)0, (unsigned long)1, (unsigned long)2>(std::__ndk1::tuple<std::__ndk1::basic_string<char, std::__ndk1::char_traits<char>, std::__ndk1::allocator<char> >, std::__ndk1::allocator<char>, int>&, std::__ndk1::basic_string<char, std::__ndk1::char_traits<char>, std::__ndk1::allocator<char> > const&, std::__ndk1::__tuple_indices<((unsigned long)0, (unsigned long)1, (unsigned long)2)...>)
PUBLIC 9830c 0 GDWTMatchGroupCell::GDWTMatchGroupCell()
PUBLIC 98458 0 GDWTMatchGroupCell::init(MatchGroup const&, cocos2d::CCSize, bool)
PUBLIC 98928 0 GDWTMatchGroupCell::onMoreClicked(cocos2d::CCObject*)
PUBLIC 98a1c 0 GDWTMatchGroupCell::~GDWTMatchGroupCell()
PUBLIC 98adc 0 GDWTMatchGroupCell::~GDWTMatchGroupCell()
PUBLIC 98ba4 0 std::__ndk1::__function::__func<GDWTMatchGroupCell::init(MatchGroup const&, cocos2d::CCSize, bool)::$_0, std::__ndk1::allocator<GDWTMatchGroupCell::init(MatchGroup const&, cocos2d::CCSize, bool)::$_0>, void (geode::Task<geode::Result<std::__ndk1::vector<Match_s, std::__ndk1::allocator<Match_s> >, std::__ndk1::basic_string<char, std::__ndk1::char_traits<char>, std::__ndk1::allocator<char> > >, std::__ndk1::monostate>::Event*)>::~__func()
PUBLIC 98ba8 0 std::__ndk1::__function::__func<GDWTMatchGroupCell::init(MatchGroup const&, cocos2d::CCSize, bool)::$_0, std::__ndk1::allocator<GDWTMatchGroupCell::init(MatchGroup const&, cocos2d::CCSize, bool)::$_0>, void (geode::Task<geode::Result<std::__ndk1::vector<Match_s, std::__ndk1::allocator<Match_s> >, std::__ndk1::basic_string<char, std::__ndk1::char_traits<char>, std::__ndk1::allocator<char> > >, std::__ndk1::monostate>::Event*)>::__clone() const
PUBLIC 98bdc 0 std::__ndk1::__function::__func<GDWTMatchGroupCell::init(MatchGroup const&, cocos2d::CCSize, bool)::$_0, std::__ndk1::allocator<GDWTMatchGroupCell::init(MatchGroup const&, cocos2d::CCSize, bool)::$_0>, void (geode::Task<geode::Result<std::__ndk1::vector<Match_s, std::__ndk1::allocator<Match_s> >, std::__ndk1::basic_string<char, std::__ndk1::char_traits<char>, std::__ndk1::allocator<char> > >, std::__ndk1::monostate>::Event*)>::__clone(std::__ndk1::__function::__base<void (geode::Task<geode::Result<std::__ndk1::vector<Match_s, std::__ndk1::allocator<Match_s> >, std::__ndk1::basic_string<char, std::__ndk1::char_traits<char>, std::__ndk1::allocator<char> > >, std::__ndk1::monostate>::Event*)>*) const
PUBLIC 98bf0 0 std::__ndk1::__function::__func<GDWTMatchGroupCell::init(MatchGroup const&, cocos2d::CCSize, bool)::$_0, std::__ndk1::allocator<GDWTMatchGroupCell::init(MatchGroup const&, cocos2d::CCSize, bool)::$_0>, void (geode::Task<geode::Result<std::__ndk1::vector<Match_s, std::__ndk1::allocator<Match_s> >, std::__ndk1::basic_string<char, std::__ndk1::char_traits<char>, std::__ndk1::allocator<char> > >, std::__ndk1::monostate>::Event*)>::destroy()
PUBLIC 98bf4 0 std::__ndk1::__function::__func<GDWTMatchGroupCell::init(MatchGroup const&, cocos2d::CCSize, bool)::$_0, std::__ndk1::allocator<GDWTMatchGroupCell::init(MatchGroup const&, cocos2d::CCSize, bool)::$_0>, void (geode::Task<geode::Result<std::__ndk1::vector<Match_s, std::__ndk1::allocator<Match_s> >, std::__ndk1::basic_string<char, std::__ndk1::char_traits<char>, std::__ndk1::allocator<char> > >, std::__ndk1::monostate>::Event*)>::destroy_deallocate()
PUBLIC 98bf8 0 std::__ndk1::__function::__func<GDWTMatchGroupCell::init(MatchGroup const&, cocos2d::CCSize, bool)::$_0, std::__ndk1::allocator<GDWTMatchGroupCell::init(MatchGroup const&, cocos2d::CCSize, bool)::$_0>, void (geode::Task<geode::Result<std::__ndk1::vector<Match_s, std::__ndk1::allocator<Match_s> >, std::__ndk1::basic_string<char, std::__ndk1::char_traits<char>, std::__ndk1::allocator<char> > >, std::__ndk1::monostate>::Event*)>::operator()(geode::Task<geode::Result<std::__ndk1::vector<Match_s, std::__ndk1::allocator<Match_s> >, std::__ndk1::basic_string<char, std::__ndk1::char_traits<char>, std::__ndk1::allocator<char> > >, std::__ndk1::monostate>::Event*&&)
PUBLIC 99074 0 std::__ndk1::__function::__func<GDWTMatchGroupCell::init(MatchGroup const&, cocos2d::CCSize, bool)::$_0, std::__ndk1::allocator<GDWTMatchGroupCell::init(MatchGroup const&, cocos2d::CCSize, bool)::$_0>, void (geode::Task<geode::Result<std::__ndk1::vector<Match_s, std::__ndk1::allocator<Match_s> >, std::__ndk1::basic_string<char, std::__ndk1::char_traits<char>, std::__ndk1::allocator<char> > >, std::__ndk1::monostate>::Event*)>::target(std::type_info const&) const
PUBLIC 99090 0 std::__ndk1::__function::__func<GDWTMatchGroupCell::init(MatchGroup const&, cocos2d::CCSize, bool)::$_0, std::__ndk1::allocator<GDWTMatchGroupCell::init(MatchGroup const&, cocos2d::CCSize, bool)::$_0>, void (geode::Task<geode::Result<std::__ndk1::vector<Match_s, std::__ndk1::allocator<Match_s> >, std::__ndk1::basic_string<char, std::__ndk1::char_traits<char>, std::__ndk1::allocator<char> > >, std::__ndk1::monostate>::Event*)>::target_type() const
PUBLIC 9909c 0 GDWTMatchGroupLayer::GDWTMatchGroupLayer()
PUBLIC 992d4 0 GDWTMatchGroupLayer::setup(MatchGroup const&)
PUBLIC 99a54 0 GDWTMatchGroupLayer::show()
PUBLIC 99abc 0 GDWTMatchGroupLayer::~GDWTMatchGroupLayer()
PUBLIC 99c7c 0 GDWTMatchGroupLayer::~GDWTMatchGroupLayer()
PUBLIC 99ca0 0 geode::Popup<MatchGroup const&>::registerWithTouchDispatcher()
PUBLIC 99ccc 0 geode::Popup<MatchGroup const&>::keyDown(cocos2d::enumKeyCodes)
PUBLIC 99cf4 0 geode::Popup<MatchGroup const&>::onClose(cocos2d::CCObject*)
PUBLIC 99e3c 0 {virtual override thunk({offset(-320)}, GDWTMatchGroupLayer::~GDWTMatchGroupLayer())}
PUBLIC 99e44 0 {virtual override thunk({offset(-320)}, GDWTMatchGroupLayer::~GDWTMatchGroupLayer())}
PUBLIC 99e6c 0 {virtual override thunk({offset(-344)}, geode::Popup<MatchGroup const&>::keyDown(cocos2d::enumKeyCodes))}
PUBLIC 99e98 0 geode::Task<std::__ndk1::vector<geode::Result<std::__ndk1::vector<std::__ndk1::tuple<std::__ndk1::basic_string<char, std::__ndk1::char_traits<char>, std::__ndk1::allocator<char> >, int, int>, std::__ndk1::allocator<std::__ndk1::tuple<std::__ndk1::basic_string<char, std::__ndk1::char_traits<char>, std::__ndk1::allocator<char> >, int, int> > >, std::__ndk1::basic_string<char, std::__ndk1::char_traits<char>, std::__ndk1::allocator<char> > >*, std::__ndk1::allocator<geode::Result<std::__ndk1::vector<std::__ndk1::tuple<std::__ndk1::basic_string<char, std::__ndk1::char_traits<char>, std::__ndk1::allocator<char> >, int, int>, std::__ndk1::allocator<std::__ndk1::tuple<std::__ndk1::basic_string<char, std::__ndk1::char_traits<char>, std::__ndk1::allocator<char> >, int, int> > >, std::__ndk1::basic_string<char, std::__ndk1::char_traits<char>, std::__ndk1::allocator<char> > >*> >, std::__ndk1::monostate>::~Task()
PUBLIC 99ee8 0 geode::Popup<MatchGroup const&>::~Popup()
PUBLIC 99f54 0 geode::Popup<MatchGroup const&>::~Popup()
PUBLIC 99f58 0 {virtual override thunk({offset(-320)}, geode::Popup<MatchGroup const&>::~Popup())}
PUBLIC 99fc4 0 {virtual override thunk({offset(-320)}, geode::Popup<MatchGroup const&>::~Popup())}
PUBLIC 99fc8 0 geode::Task<std::__ndk1::vector<geode::Result<std::__ndk1::vector<std::__ndk1::tuple<std::__ndk1::basic_string<char, std::__ndk1::char_traits<char>, std::__ndk1::allocator<char> >, int, int>, std::__ndk1::allocator<std::__ndk1::tuple<std::__ndk1::basic_string<char, std::__ndk1::char_traits<char>, std::__ndk1::allocator<char> >, int, int> > >, std::__ndk1::basic_string<char, std::__ndk1::char_traits<char>, std::__ndk1::allocator<char> > >*, std::__ndk1::allocator<geode::Result<std::__ndk1::vector<std::__ndk1::tuple<std::__ndk1::basic_string<char, std::__ndk1::char_traits<char>, std::__ndk1::allocator<char> >, int, int>, std::__ndk1::allocator<std::__ndk1::tuple<std::__ndk1::basic_string<char, std::__ndk1::char_traits<char>, std::__ndk1::allocator<char> >, int, int> > >, std::__ndk1::basic_string<char, std::__ndk1::char_traits<char>, std::__ndk1::allocator<char> > >*> >, std::__ndk1::monostate>::setListener(geode::EventListenerProtocol*)
PUBLIC 9a1cc 0 geode::EventListener<geode::Task<std::__ndk1::vector<geode::Result<std::__ndk1::vector<std::__ndk1::tuple<std::__ndk1::basic_string<char, std::__ndk1::char_traits<char>, std::__ndk1::allocator<char> >, int, int>, std::__ndk1::allocator<std::__ndk1::tuple<std::__ndk1::basic_string<char, std::__ndk1::char_traits<char>, std::__ndk1::allocator<char> >, int, int> > >, std::__ndk1::basic_string<char, std::__ndk1::char_traits<char>, std::__ndk1::allocator<char> > >*, std::__ndk1::allocator<geode::Result<std::__ndk1::vector<std::__ndk1::tuple<std::__ndk1::basic_string<char, std::__ndk1::char_traits<char>, std::__ndk1::allocator<char> >, int, int>, std::__ndk1::allocator<std::__ndk1::tuple<std::__ndk1::basic_string<char, std::__ndk1::char_traits<char>, std::__ndk1::allocator<char> >, int, int> > >, std::__ndk1::basic_string<char, std::__ndk1::char_traits<char>, std::__ndk1::allocator<char> > >*> >, std::__ndk1::monostate> >::getPool() const
PUBLIC 9a1d0 0 geode::EventListener<geode::Task<std::__ndk1::vector<geode::Result<std::__ndk1::vector<std::__ndk1::tuple<std::__ndk1::basic_string<char, std::__ndk1::char_traits<char>, std::__ndk1::allocator<char> >, int, int>, std::__ndk1::allocator<std::__ndk1::tuple<std::__ndk1::basic_string<char, std::__ndk1::char_traits<char>, std::__ndk1::allocator<char> >, int, int> > >, std::__ndk1::basic_string<char, std::__ndk1::char_traits<char>, std::__ndk1::allocator<char> > >*, std::__ndk1::allocator<geode::Result<std::__ndk1::vector<std::__ndk1::tuple<std::__ndk1::basic_string<char, std::__ndk1::char_traits<char>, std::__ndk1::allocator<char> >, int, int>, std::__ndk1::allocator<std::__ndk1::tuple<std::__ndk1::basic_string<char, std::__ndk1::char_traits<char>, std::__ndk1::allocator<char> >, int, int> > >, std::__ndk1::basic_string<char, std::__ndk1::char_traits<char>, std::__ndk1::allocator<char> > >*> >, std::__ndk1::monostate> >::handle(geode::Event*)
PUBLIC 9a39c 0 geode::EventListener<geode::Task<std::__ndk1::vector<geode::Result<std::__ndk1::vector<std::__ndk1::tuple<std::__ndk1::basic_string<char, std::__ndk1::char_traits<char>, std::__ndk1::allocator<char> >, int, int>, std::__ndk1::allocator<std::__ndk1::tuple<std::__ndk1::basic_string<char, std::__ndk1::char_traits<char>, std::__ndk1::allocator<char> >, int, int> > >, std::__ndk1::basic_string<char, std::__ndk1::char_traits<char>, std::__ndk1::allocator<char> > >*, std::__ndk1::allocator<geode::Result<std::__ndk1::vector<std::__ndk1::tuple<std::__ndk1::basic_string<char, std::__ndk1::char_traits<char>, std::__ndk1::allocator<char> >, int, int>, std::__ndk1::allocator<std::__ndk1::tuple<std::__ndk1::basic_string<char, std::__ndk1::char_traits<char>, std::__ndk1::allocator<char> >, int, int> > >, std::__ndk1::basic_string<char, std::__ndk1::char_traits<char>, std::__ndk1::allocator<char> > >*> >, std::__ndk1::monostate> >::~EventListener()
PUBLIC 9a438 0 geode::EventListener<geode::Task<std::__ndk1::vector<geode::Result<std::__ndk1::vector<std::__ndk1::tuple<std::__ndk1::basic_string<char, std::__ndk1::char_traits<char>, std::__ndk1::allocator<char> >, int, int>, std::__ndk1::allocator<std::__ndk1::tuple<std::__ndk1::basic_string<char, std::__ndk1::char_traits<char>, std::__ndk1::allocator<char> >, int, int> > >, std::__ndk1::basic_string<char, std::__ndk1::char_traits<char>, std::__ndk1::allocator<char> > >*, std::__ndk1::allocator<geode::Result<std::__ndk1::vector<std::__ndk1::tuple<std::__ndk1::basic_string<char, std::__ndk1::char_traits<char>, std::__ndk1::allocator<char> >, int, int>, std::__ndk1::allocator<std::__ndk1::tuple<std::__ndk1::basic_string<char, std::__ndk1::char_traits<char>, std::__ndk1::allocator<char> >, int, int> > >, std::__ndk1::basic_string<char, std::__ndk1::char_traits<char>, std::__ndk1::allocator<char> > >*> >, std::__ndk1::monostate> >::~EventListener()
PUBLIC 9a4dc 0 geode::Task<std::__ndk1::vector<geode::Result<std::__ndk1::vector<std::__ndk1::tuple<std::__ndk1::basic_string<char, std::__ndk1::char_traits<char>, std::__ndk1::allocator<char> >, int, int>, std::__ndk1::allocator<std::__ndk1::tuple<std::__ndk1::basic_string<char, std::__ndk1::char_traits<char>, std::__ndk1::allocator<char> >, int, int> > >, std::__ndk1::basic_string<char, std::__ndk1::char_traits<char>, std::__ndk1::allocator<char> > >*, std::__ndk1::allocator<geode::Result<std::__ndk1::vector<std::__ndk1::tuple<std::__ndk1::basic_string<char, std::__ndk1::char_traits<char>, std::__ndk1::allocator<char> >, int, int>, std::__ndk1::allocator<std::__ndk1::tuple<std::__ndk1::basic_string<char, std::__ndk1::char_traits<char>, std::__ndk1::allocator<char> >, int, int> > >, std::__ndk1::basic_string<char, std::__ndk1::char_traits<char>, std::__ndk1::allocator<char> > >*> >, std::__ndk1::monostate>::setListener(geode::EventListenerProtocol*)::{lambda()#1}::~{lambda()#1}()
PUBLIC 9a52c 0 geode::Task<std::__ndk1::vector<geode::Result<std::__ndk1::vector<std::__ndk1::tuple<std::__ndk1::basic_string<char, std::__ndk1::char_traits<char>, std::__ndk1::allocator<char> >, int, int>, std::__ndk1::allocator<std::__ndk1::tuple<std::__ndk1::basic_string<char, std::__ndk1::char_traits<char>, std::__ndk1::allocator<char> >, int, int> > >, std::__ndk1::basic_string<char, std::__ndk1::char_traits<char>, std::__ndk1::allocator<char> > >*, std::__ndk1::allocator<geode::Result<std::__ndk1::vector<std::__ndk1::tuple<std::__ndk1::basic_string<char, std::__ndk1::char_traits<char>, std::__ndk1::allocator<char> >, int, int>, std::__ndk1::allocator<std::__ndk1::tuple<std::__ndk1::basic_string<char, std::__ndk1::char_traits<char>, std::__ndk1::allocator<char> >, int, int> > >, std::__ndk1::basic_string<char, std::__ndk1::char_traits<char>, std::__ndk1::allocator<char> > >*> >, std::__ndk1::monostate>::setListener(geode::EventListenerProtocol*)::{lambda()#2}::~{lambda()#2}()
PUBLIC 9a57c 0 std::__ndk1::__function::__func<geode::Task<std::__ndk1::vector<geode::Result<std::__ndk1::vector<std::__ndk1::tuple<std::__ndk1::basic_string<char, std::__ndk1::char_traits<char>, std::__ndk1::allocator<char> >, int, int>, std::__ndk1::allocator<std::__ndk1::tuple<std::__ndk1::basic_string<char, std::__ndk1::char_traits<char>, std::__ndk1::allocator<char> >, int, int> > >, std::__ndk1::basic_string<char, std::__ndk1::char_traits<char>, std::__ndk1::allocator<char> > >*, std::__ndk1::allocator<geode::Result<std::__ndk1::vector<std::__ndk1::tuple<std::__ndk1::basic_string<char, std::__ndk1::char_traits<char>, std::__ndk1::allocator<char> >, int, int>, std::__ndk1::allocator<std::__ndk1::tuple<std::__ndk1::basic_string<char, std::__ndk1::char_traits<char>, std::__ndk1::allocator<char> >, int, int> > >, std::__ndk1::basic_string<char, std::__ndk1::char_traits<char>, std::__ndk1::allocator<char> > >*> >, std::__ndk1::monostate>::setListener(geode::EventListenerProtocol*)::{lambda()#1}, std::__ndk1::allocator<geode::Task<std::__ndk1::vector<geode::Result<std::__ndk1::vector<std::__ndk1::tuple<std::__ndk1::basic_string<char, std::__ndk1::char_traits<char>, std::__ndk1::allocator<char> >, int, int>, std::__ndk1::allocator<std::__ndk1::tuple<std::__ndk1::basic_string<char, std::__ndk1::char_traits<char>, std::__ndk1::allocator<char> >, int, int> > >, std::__ndk1::basic_string<char, std::__ndk1::char_traits<char>, std::__ndk1::allocator<char> > >*, std::__ndk1::allocator<geode::Result<std::__ndk1::vector<std::__ndk1::tuple<std::__ndk1::basic_string<char, std::__ndk1::char_traits<char>, std::__ndk1::allocator<char> >, int, int>, std::__ndk1::allocator<std::__ndk1::tuple<std::__ndk1::basic_string<char, std::__ndk1::char_traits<char>, std::__ndk1::allocator<char> >, int, int> > >, std::__ndk1::basic_string<char, std::__ndk1::char_traits<char>, std::__ndk1::allocator<char> > >*> >, std::__ndk1::monostate>::setListener(geode::EventListenerProtocol*)::{lambda()#1}>, void ()>::~__func()
PUBLIC 9a5d8 0 std::__ndk1::__function::__func<geode::Task<std::__ndk1::vector<geode::Result<std::__ndk1::vector<std::__ndk1::tuple<std::__ndk1::basic_string<char, std::__ndk1::char_traits<char>, std::__ndk1::allocator<char> >, int, int>, std::__ndk1::allocator<std::__ndk1::tuple<std::__ndk1::basic_string<char, std::__ndk1::char_traits<char>, std::__ndk1::allocator<char> >, int, int> > >, std::__ndk1::basic_string<char, std::__ndk1::char_traits<char>, std::__ndk1::allocator<char> > >*, std::__ndk1::allocator<geode::Result<std::__ndk1::vector<std::__ndk1::tuple<std::__ndk1::basic_string<char, std::__ndk1::char_traits<char>, std::__ndk1::allocator<char> >, int, int>, std::__ndk1::allocator<std::__ndk1::tuple<std::__ndk1::basic_string<char, std::__ndk1::char_traits<char>, std::__ndk1::allocator<char> >, int, int> > >, std::__ndk1::basic_string<char, std::__ndk1::char_traits<char>, std::__ndk1::allocator<char> > >*> >, std::__ndk1::monostate>::setListener(geode::EventListenerProtocol*)::{lambda()#1}, std::__ndk1::allocator<geode::Task<std::__ndk1::vector<geode::Result<std::__ndk1::vector<std::__ndk1::tuple<std::__ndk1::basic_string<char, std::__ndk1::char_traits<char>, std::__ndk1::allocator<char> >, int, int>, std::__ndk1::allocator<std::__ndk1::tuple<std::__ndk1::basic_string<char, std::__ndk1::char_traits<char>, std::__ndk1::allocator<char> >, int, int> > >, std::__ndk1::basic_string<char, std::__ndk1::char_traits<char>, std::__ndk1::allocator<char> > >*, std::__ndk1::allocator<geode::Result<std::__ndk1::vector<std::__ndk1::tuple<std::__ndk1::basic_string<char, std::__ndk1::char_traits<char>, std::__ndk1::allocator<char> >, int, int>, std::__ndk1::allocator<std::__ndk1::tuple<std::__ndk1::basic_string<char, std::__ndk1::char_traits<char>, std::__ndk1::allocator<char> >, int, int> > >, std::__ndk1::basic_string<char, std::__ndk1::char_traits<char>, std::__ndk1::allocator<char> > >*> >, std::__ndk1::monostate>::setListener(geode::EventListenerProtocol*)::{lambda()#1}>, void ()>::~__func()
PUBLIC 9a644 0 std::__ndk1::__function::__func<geode::Task<std::__ndk1::vector<geode::Result<std::__ndk1::vector<std::__ndk1::tuple<std::__ndk1::basic_string<char, std::__ndk1::char_traits<char>, std::__ndk1::allocator<char> >, int, int>, std::__ndk1::allocator<std::__ndk1::tuple<std::__ndk1::basic_string<char, std::__ndk1::char_traits<char>, std::__ndk1::allocator<char> >, int, int> > >, std::__ndk1::basic_string<char, std::__ndk1::char_traits<char>, std::__ndk1::allocator<char> > >*, std::__ndk1::allocator<geode::Result<std::__ndk1::vector<std::__ndk1::tuple<std::__ndk1::basic_string<char, std::__ndk1::char_traits<char>, std::__ndk1::allocator<char> >, int, int>, std::__ndk1::allocator<std::__ndk1::tuple<std::__ndk1::basic_string<char, std::__ndk1::char_traits<char>, std::__ndk1::allocator<char> >, int, int> > >, std::__ndk1::basic_string<char, std::__ndk1::char_traits<char>, std::__ndk1::allocator<char> > >*> >, std::__ndk1::monostate>::setListener(geode::EventListenerProtocol*)::{lambda()#1}, std::__ndk1::allocator<geode::Task<std::__ndk1::vector<geode::Result<std::__ndk1::vector<std::__ndk1::tuple<std::__ndk1::basic_string<char, std::__ndk1::char_traits<char>, std::__ndk1::allocator<char> >, int, int>, std::__ndk1::allocator<std::__ndk1::tuple<std::__ndk1::basic_string<char, std::__ndk1::char_traits<char>, std::__ndk1::allocator<char> >, int, int> > >, std::__ndk1::basic_string<char, std::__ndk1::char_traits<char>, std::__ndk1::allocator<char> > >*, std::__ndk1::allocator<geode::Result<std::__ndk1::vector<std::__ndk1::tuple<std::__ndk1::basic_string<char, std::__ndk1::char_traits<char>, std::__ndk1::allocator<char> >, int, int>, std::__ndk1::allocator<std::__ndk1::tuple<std::__ndk1::basic_string<char, std::__ndk1::char_traits<char>, std::__ndk1::allocator<char> >, int, int> > >, std::__ndk1::basic_string<char, std::__ndk1::char_traits<char>, std::__ndk1::allocator<char> > >*> >, std::__ndk1::monostate>::setListener(geode::EventListenerProtocol*)::{lambda()#1}>, void ()>::__clone() const
PUBLIC 9a69c 0 std::__ndk1::__function::__func<geode::Task<std::__ndk1::vector<geode::Result<std::__ndk1::vector<std::__ndk1::tuple<std::__ndk1::basic_string<char, std::__ndk1::char_traits<char>, std::__ndk1::allocator<char> >, int, int>, std::__ndk1::allocator<std::__ndk1::tuple<std::__ndk1::basic_string<char, std::__ndk1::char_traits<char>, std::__ndk1::allocator<char> >, int, int> > >, std::__ndk1::basic_string<char, std::__ndk1::char_traits<char>, std::__ndk1::allocator<char> > >*, std::__ndk1::allocator<geode::Result<std::__ndk1::vector<std::__ndk1::tuple<std::__ndk1::basic_string<char, std::__ndk1::char_traits<char>, std::__ndk1::allocator<char> >, int, int>, std::__ndk1::allocator<std::__ndk1::tuple<std::__ndk1::basic_string<char, std::__ndk1::char_traits<char>, std::__ndk1::allocator<char> >, int, int> > >, std::__ndk1::basic_string<char, std::__ndk1::char_traits<char>, std::__ndk1::allocator<char> > >*> >, std::__ndk1::monostate>::setListener(geode::EventListenerProtocol*)::{lambda()#1}, std::__ndk1::allocator<geode::Task<std::__ndk1::vector<geode::Result<std::__ndk1::vector<std::__ndk1::tuple<std::__ndk1::basic_string<char, std::__ndk1::char_traits<char>, std::__ndk1::allocator<char> >, int, int>, std::__ndk1::allocator<std::__ndk1::tuple<std::__ndk1::basic_string<char, std::__ndk1::char_traits<char>, std::__ndk1::allocator<char> >, int, int> > >, std::__ndk1::basic_string<char, std::__ndk1::char_traits<char>, std::__ndk1::allocator<char> > >*, std::__ndk1::allocator<geode::Result<std::__ndk1::vector<std::__ndk1::tuple<std::__ndk1::basic_string<char, std::__ndk1::char_traits<char>, std::__ndk1::allocator<char> >, int, int>, std::__ndk1::allocator<std::__ndk1::tuple<std::__ndk1::basic_string<char, std::__ndk1::char_traits<char>, std::__ndk1::allocator<char> >, int, int> > >, std::__ndk1::basic_string<char, std::__ndk1::char_traits<char>, std::__ndk1::allocator<char> > >*> >, std::__ndk1::monostate>::setListener(geode::EventListenerProtocol*)::{lambda()#1}>, void ()>::__clone(std::__ndk1::__function::__base<void ()>*) const
PUBLIC 9a6e8 0 std::__ndk1::__function::__func<geode::Task<std::__ndk1::vector<geode::Result<std::__ndk1::vector<std::__ndk1::tuple<std::__ndk1::basic_string<char, std::__ndk1::char_traits<char>, std::__ndk1::allocator<char> >, int, int>, std::__ndk1::allocator<std::__ndk1::tuple<std::__ndk1::basic_string<char, std::__ndk1::char_traits<char>, std::__ndk1::allocator<char> >, int, int> > >, std::__ndk1::basic_string<char, std::__ndk1::char_traits<char>, std::__ndk1::allocator<char> > >*, std::__ndk1::allocator<geode::Result<std::__ndk1::vector<std::__ndk1::tuple<std::__ndk1::basic_string<char, std::__ndk1::char_traits<char>, std::__ndk1::allocator<char> >, int, int>, std::__ndk1::allocator<std::__ndk1::tuple<std::__ndk1::basic_string<char, std::__ndk1::char_traits<char>, std::__ndk1::allocator<char> >, int, int> > >, std::__ndk1::basic_string<char, std::__ndk1::char_traits<char>, std::__ndk1::allocator<char> > >*> >, std::__ndk1::monostate>::setListener(geode::EventListenerProtocol*)::{lambda()#1}, std::__ndk1::allocator<geode::Task<std::__ndk1::vector<geode::Result<std::__ndk1::vector<std::__ndk1::tuple<std::__ndk1::basic_string<char, std::__ndk1::char_traits<char>, std::__ndk1::allocator<char> >, int, int>, std::__ndk1::allocator<std::__ndk1::tuple<std::__ndk1::basic_string<char, std::__ndk1::char_traits<char>, std::__ndk1::allocator<char> >, int, int> > >, std::__ndk1::basic_string<char, std::__ndk1::char_traits<char>, std::__ndk1::allocator<char> > >*, std::__ndk1::allocator<geode::Result<std::__ndk1::vector<std::__ndk1::tuple<std::__ndk1::basic_string<char, std::__ndk1::char_traits<char>, std::__ndk1::allocator<char> >, int, int>, std::__ndk1::allocator<std::__ndk1::tuple<std::__ndk1::basic_string<char, std::__ndk1::char_traits<char>, std::__ndk1::allocator<char> >, int, int> > >, std::__ndk1::basic_string<char, std::__ndk1::char_traits<char>, std::__ndk1::allocator<char> > >*> >, std::__ndk1::monostate>::setListener(geode::EventListenerProtocol*)::{lambda()#1}>, void ()>::destroy()
PUBLIC 9a738 0 std::__ndk1::__function::__func<geode::Task<std::__ndk1::vector<geode::Result<std::__ndk1::vector<std::__ndk1::tuple<std::__ndk1::basic_string<char, std::__ndk1::char_traits<char>, std::__ndk1::allocator<char> >, int, int>, std::__ndk1::allocator<std::__ndk1::tuple<std::__ndk1::basic_string<char, std::__ndk1::char_traits<char>, std::__ndk1::allocator<char> >, int, int> > >, std::__ndk1::basic_string<char, std::__ndk1::char_traits<char>, std::__ndk1::allocator<char> > >*, std::__ndk1::allocator<geode::Result<std::__ndk1::vector<std::__ndk1::tuple<std::__ndk1::basic_string<char, std::__ndk1::char_traits<char>, std::__ndk1::allocator<char> >, int, int>, std::__ndk1::allocator<std::__ndk1::tuple<std::__ndk1::basic_string<char, std::__ndk1::char_traits<char>, std::__ndk1::allocator<char> >, int, int> > >, std::__ndk1::basic_string<char, std::__ndk1::char_traits<char>, std::__ndk1::allocator<char> > >*> >, std::__ndk1::monostate>::setListener(geode::EventListenerProtocol*)::{lambda()#1}, std::__ndk1::allocator<geode::Task<std::__ndk1::vector<geode::Result<std::__ndk1::vector<std::__ndk1::tuple<std::__ndk1::basic_string<char, std::__ndk1::char_traits<char>, std::__ndk1::allocator<char> >, int, int>, std::__ndk1::allocator<std::__ndk1::tuple<std::__ndk1::basic_string<char, std::__ndk1::char_traits<char>, std::__ndk1::allocator<char> >, int, int> > >, std::__ndk1::basic_string<char, std::__ndk1::char_traits<char>, std::__ndk1::allocator<char> > >*, std::__ndk1::allocator<geode::Result<std::__ndk1::vector<std::__ndk1::tuple<std::__ndk1::basic_string<char, std::__ndk1::char_traits<char>, std::__ndk1::allocator<char> >, int, int>, std::__ndk1::allocator<std::__ndk1::tuple<std::__ndk1::basic_string<char, std::__ndk1::char_traits<char>, std::__ndk1::allocator<char> >, int, int> > >, std::__ndk1::basic_string<char, std::__ndk1::char_traits<char>, std::__ndk1::allocator<char> > >*> >, std::__ndk1::monostate>::setListener(geode::EventListenerProtocol*)::{lambda()#1}>, void ()>::destroy_deallocate()
PUBLIC 9a798 0 std::__ndk1::__function::__func<geode::Task<std::__ndk1::vector<geode::Result<std::__ndk1::vector<std::__ndk1::tuple<std::__ndk1::basic_string<char, std::__ndk1::char_traits<char>, std::__ndk1::allocator<char> >, int, int>, std::__ndk1::allocator<std::__ndk1::tuple<std::__ndk1::basic_string<char, std::__ndk1::char_traits<char>, std::__ndk1::allocator<char> >, int, int> > >, std::__ndk1::basic_string<char, std::__ndk1::char_traits<char>, std::__ndk1::allocator<char> > >*, std::__ndk1::allocator<geode::Result<std::__ndk1::vector<std::__ndk1::tuple<std::__ndk1::basic_string<char, std::__ndk1::char_traits<char>, std::__ndk1::allocator<char> >, int, int>, std::__ndk1::allocator<std::__ndk1::tuple<std::__ndk1::basic_string<char, std::__ndk1::char_traits<char>, std::__ndk1::allocator<char> >, int, int> > >, std::__ndk1::basic_string<char, std::__ndk1::char_traits<char>, std::__ndk1::allocator<char> > >*> >, std::__ndk1::monostate>::setListener(geode::EventListenerProtocol*)::{lambda()#1}, std::__ndk1::allocator<geode::Task<std::__ndk1::vector<geode::Result<std::__ndk1::vector<std::__ndk1::tuple<std::__ndk1::basic_string<char, std::__ndk1::char_traits<char>, std::__ndk1::allocator<char> >, int, int>, std::__ndk1::allocator<std::__ndk1::tuple<std::__ndk1::basic_string<char, std::__ndk1::char_traits<char>, std::__ndk1::allocator<char> >, int, int> > >, std::__ndk1::basic_string<char, std::__ndk1::char_traits<char>, std::__ndk1::allocator<char> > >*, std::__ndk1::allocator<geode::Result<std::__ndk1::vector<std::__ndk1::tuple<std::__ndk1::basic_string<char, std::__ndk1::char_traits<char>, std::__ndk1::allocator<char> >, int, int>, std::__ndk1::allocator<std::__ndk1::tuple<std::__ndk1::basic_string<char, std::__ndk1::char_traits<char>, std::__ndk1::allocator<char> >, int, int> > >, std::__ndk1::basic_string<char, std::__ndk1::char_traits<char>, std::__ndk1::allocator<char> > >*> >, std::__ndk1::monostate>::setListener(geode::EventListenerProtocol*)::{lambda()#1}>, void ()>::operator()()
PUBLIC 9a968 0 std::__ndk1::__function::__func<geode::Task<std::__ndk1::vector<geode::Result<std::__ndk1::vector<std::__ndk1::tuple<std::__ndk1::basic_string<char, std::__ndk1::char_traits<char>, std::__ndk1::allocator<char> >, int, int>, std::__ndk1::allocator<std::__ndk1::tuple<std::__ndk1::basic_string<char, std::__ndk1::char_traits<char>, std::__ndk1::allocator<char> >, int, int> > >, std::__ndk1::basic_string<char, std::__ndk1::char_traits<char>, std::__ndk1::allocator<char> > >*, std::__ndk1::allocator<geode::Result<std::__ndk1::vector<std::__ndk1::tuple<std::__ndk1::basic_string<char, std::__ndk1::char_traits<char>, std::__ndk1::allocator<char> >, int, int>, std::__ndk1::allocator<std::__ndk1::tuple<std::__ndk1::basic_string<char, std::__ndk1::char_traits<char>, std::__ndk1::allocator<char> >, int, int> > >, std::__ndk1::basic_string<char, std::__ndk1::char_traits<char>, std::__ndk1::allocator<char> > >*> >, std::__ndk1::monostate>::setListener(geode::EventListenerProtocol*)::{lambda()#1}, std::__ndk1::allocator<geode::Task<std::__ndk1::vector<geode::Result<std::__ndk1::vector<std::__ndk1::tuple<std::__ndk1::basic_string<char, std::__ndk1::char_traits<char>, std::__ndk1::allocator<char> >, int, int>, std::__ndk1::allocator<std::__ndk1::tuple<std::__ndk1::basic_string<char, std::__ndk1::char_traits<char>, std::__ndk1::allocator<char> >, int, int> > >, std::__ndk1::basic_string<char, std::__ndk1::char_traits<char>, std::__ndk1::allocator<char> > >*, std::__ndk1::allocator<geode::Result<std::__ndk1::vector<std::__ndk1::tuple<std::__ndk1::basic_string<char, std::__ndk1::char_traits<char>, std::__ndk1::allocator<char> >, int, int>, std::__ndk1::allocator<std::__ndk1::tuple<std::__ndk1::basic_string<char, std::__ndk1::char_traits<char>, std::__ndk1::allocator<char> >, int, int> > >, std::__ndk1::basic_string<char, std::__ndk1::char_traits<char>, std::__ndk1::allocator<char> > >*> >, std::__ndk1::monostate>::setListener(geode::EventListenerProtocol*)::{lambda()#1}>, void ()>::target(std::type_info const&) const
PUBLIC 9a984 0 std::__ndk1::__function::__func<geode::Task<std::__ndk1::vector<geode::Result<std::__ndk1::vector<std::__ndk1::tuple<std::__ndk1::basic_string<char, std::__ndk1::char_traits<char>, std::__ndk1::allocator<char> >, int, int>, std::__ndk1::allocator<std::__ndk1::tuple<std::__ndk1::basic_string<char, std::__ndk1::char_traits<char>, std::__ndk1::allocator<char> >, int, int> > >, std::__ndk1::basic_string<char, std::__ndk1::char_traits<char>, std::__ndk1::allocator<char> > >*, std::__ndk1::allocator<geode::Result<std::__ndk1::vector<std::__ndk1::tuple<std::__ndk1::basic_string<char, std::__ndk1::char_traits<char>, std::__ndk1::allocator<char> >, int, int>, std::__ndk1::allocator<std::__ndk1::tuple<std::__ndk1::basic_string<char, std::__ndk1::char_traits<char>, std::__ndk1::allocator<char> >, int, int> > >, std::__ndk1::basic_string<char, std::__ndk1::char_traits<char>, std::__ndk1::allocator<char> > >*> >, std::__ndk1::monostate>::setListener(geode::EventListenerProtocol*)::{lambda()#1}, std::__ndk1::allocator<geode::Task<std::__ndk1::vector<geode::Result<std::__ndk1::vector<std::__ndk1::tuple<std::__ndk1::basic_string<char, std::__ndk1::char_traits<char>, std::__ndk1::allocator<char> >, int, int>, std::__ndk1::allocator<std::__ndk1::tuple<std::__ndk1::basic_string<char, std::__ndk1::char_traits<char>, std::__ndk1::allocator<char> >, int, int> > >, std::__ndk1::basic_string<char, std::__ndk1::char_traits<char>, std::__ndk1::allocator<char> > >*, std::__ndk1::allocator<geode::Result<std::__ndk1::vector<std::__ndk1::tuple<std::__ndk1::basic_string<char, std::__ndk1::char_traits<char>, std::__ndk1::allocator<char> >, int, int>, std::__ndk1::allocator<std::__ndk1::tuple<std::__ndk1::basic_string<char, std::__ndk1::char_traits<char>, std::__ndk1::allocator<char> >, int, int> > >, std::__ndk1::basic_string<char, std::__ndk1::char_traits<char>, std::__ndk1::allocator<char> > >*> >, std::__ndk1::monostate>::setListener(geode::EventListenerProtocol*)::{lambda()#1}>, void ()>::target_type() const
PUBLIC 9a990 0 std::__ndk1::shared_ptr<geode::Task<std::__ndk1::vector<geode::Result<std::__ndk1::vector<std::__ndk1::tuple<std::__ndk1::basic_string<char, std::__ndk1::char_traits<char>, std::__ndk1::allocator<char> >, int, int>, std::__ndk1::allocator<std::__ndk1::tuple<std::__ndk1::basic_string<char, std::__ndk1::char_traits<char>, std::__ndk1::allocator<char> >, int, int> > >, std::__ndk1::basic_string<char, std::__ndk1::char_traits<char>, std::__ndk1::allocator<char> > >*, std::__ndk1::allocator<geode::Result<std::__ndk1::vector<std::__ndk1::tuple<std::__ndk1::basic_string<char, std::__ndk1::char_traits<char>, std::__ndk1::allocator<char> >, int, int>, std::__ndk1::allocator<std::__ndk1::tuple<std::__ndk1::basic_string<char, std::__ndk1::char_traits<char>, std::__ndk1::allocator<char> >, int, int> > >, std::__ndk1::basic_string<char, std::__ndk1::char_traits<char>, std::__ndk1::allocator<char> > >*> >, std::__ndk1::monostate>::Handle>::~shared_ptr[abi:ne180000]()
PUBLIC 9a9e0 0 geode::Task<std::__ndk1::vector<geode::Result<std::__ndk1::vector<std::__ndk1::tuple<std::__ndk1::basic_string<char, std::__ndk1::char_traits<char>, std::__ndk1::allocator<char> >, int, int>, std::__ndk1::allocator<std::__ndk1::tuple<std::__ndk1::basic_string<char, std::__ndk1::char_traits<char>, std::__ndk1::allocator<char> >, int, int> > >, std::__ndk1::basic_string<char, std::__ndk1::char_traits<char>, std::__ndk1::allocator<char> > >*, std::__ndk1::allocator<geode::Result<std::__ndk1::vector<std::__ndk1::tuple<std::__ndk1::basic_string<char, std::__ndk1::char_traits<char>, std::__ndk1::allocator<char> >, int, int>, std::__ndk1::allocator<std::__ndk1::tuple<std::__ndk1::basic_string<char, std::__ndk1::char_traits<char>, std::__ndk1::allocator<char> >, int, int> > >, std::__ndk1::basic_string<char, std::__ndk1::char_traits<char>, std::__ndk1::allocator<char> > >*> >, std::__ndk1::monostate>::Event::~Event()
PUBLIC 9aa40 0 geode::Task<std::__ndk1::vector<geode::Result<std::__ndk1::vector<std::__ndk1::tuple<std::__ndk1::basic_string<char, std::__ndk1::char_traits<char>, std::__ndk1::allocator<char> >, int, int>, std::__ndk1::allocator<std::__ndk1::tuple<std::__ndk1::basic_string<char, std::__ndk1::char_traits<char>, std::__ndk1::allocator<char> >, int, int> > >, std::__ndk1::basic_string<char, std::__ndk1::char_traits<char>, std::__ndk1::allocator<char> > >*, std::__ndk1::allocator<geode::Result<std::__ndk1::vector<std::__ndk1::tuple<std::__ndk1::basic_string<char, std::__ndk1::char_traits<char>, std::__ndk1::allocator<char> >, int, int>, std::__ndk1::allocator<std::__ndk1::tuple<std::__ndk1::basic_string<char, std::__ndk1::char_traits<char>, std::__ndk1::allocator<char> >, int, int> > >, std::__ndk1::basic_string<char, std::__ndk1::char_traits<char>, std::__ndk1::allocator<char> > >*> >, std::__ndk1::monostate>::Event::~Event()
PUBLIC 9aab0 0 std::__ndk1::__function::__func<geode::Task<std::__ndk1::vector<geode::Result<std::__ndk1::vector<std::__ndk1::tuple<std::__ndk1::basic_string<char, std::__ndk1::char_traits<char>, std::__ndk1::allocator<char> >, int, int>, std::__ndk1::allocator<std::__ndk1::tuple<std::__ndk1::basic_string<char, std::__ndk1::char_traits<char>, std::__ndk1::allocator<char> >, int, int> > >, std::__ndk1::basic_string<char, std::__ndk1::char_traits<char>, std::__ndk1::allocator<char> > >*, std::__ndk1::allocator<geode::Result<std::__ndk1::vector<std::__ndk1::tuple<std::__ndk1::basic_string<char, std::__ndk1::char_traits<char>, std::__ndk1::allocator<char> >, int, int>, std::__ndk1::allocator<std::__ndk1::tuple<std::__ndk1::basic_string<char, std::__ndk1::char_traits<char>, std::__ndk1::allocator<char> >, int, int> > >, std::__ndk1::basic_string<char, std::__ndk1::char_traits<char>, std::__ndk1::allocator<char> > >*> >, std::__ndk1::monostate>::setListener(geode::EventListenerProtocol*)::{lambda()#2}, std::__ndk1::allocator<geode::Task<std::__ndk1::vector<geode::Result<std::__ndk1::vector<std::__ndk1::tuple<std::__ndk1::basic_string<char, std::__ndk1::char_traits<char>, std::__ndk1::allocator<char> >, int, int>, std::__ndk1::allocator<std::__ndk1::tuple<std::__ndk1::basic_string<char, std::__ndk1::char_traits<char>, std::__ndk1::allocator<char> >, int, int> > >, std::__ndk1::basic_string<char, std::__ndk1::char_traits<char>, std::__ndk1::allocator<char> > >*, std::__ndk1::allocator<geode::Result<std::__ndk1::vector<std::__ndk1::tuple<std::__ndk1::basic_string<char, std::__ndk1::char_traits<char>, std::__ndk1::allocator<char> >, int, int>, std::__ndk1::allocator<std::__ndk1::tuple<std::__ndk1::basic_string<char, std::__ndk1::char_traits<char>, std::__ndk1::allocator<char> >, int, int> > >, std::__ndk1::basic_string<char, std::__ndk1::char_traits<char>, std::__ndk1::allocator<char> > >*> >, std::__ndk1::monostate>::setListener(geode::EventListenerProtocol*)::{lambda()#2}>, void ()>::~__func()
PUBLIC 9ab0c 0 std::__ndk1::__function::__func<geode::Task<std::__ndk1::vector<geode::Result<std::__ndk1::vector<std::__ndk1::tuple<std::__ndk1::basic_string<char, std::__ndk1::char_traits<char>, std::__ndk1::allocator<char> >, int, int>, std::__ndk1::allocator<std::__ndk1::tuple<std::__ndk1::basic_string<char, std::__ndk1::char_traits<char>, std::__ndk1::allocator<char> >, int, int> > >, std::__ndk1::basic_string<char, std::__ndk1::char_traits<char>, std::__ndk1::allocator<char> > >*, std::__ndk1::allocator<geode::Result<std::__ndk1::vector<std::__ndk1::tuple<std::__ndk1::basic_string<char, std::__ndk1::char_traits<char>, std::__ndk1::allocator<char> >, int, int>, std::__ndk1::allocator<std::__ndk1::tuple<std::__ndk1::basic_string<char, std::__ndk1::char_traits<char>, std::__ndk1::allocator<char> >, int, int> > >, std::__ndk1::basic_string<char, std::__ndk1::char_traits<char>, std::__ndk1::allocator<char> > >*> >, std::__ndk1::monostate>::setListener(geode::EventListenerProtocol*)::{lambda()#2}, std::__ndk1::allocator<geode::Task<std::__ndk1::vector<geode::Result<std::__ndk1::vector<std::__ndk1::tuple<std::__ndk1::basic_string<char, std::__ndk1::char_traits<char>, std::__ndk1::allocator<char> >, int, int>, std::__ndk1::allocator<std::__ndk1::tuple<std::__ndk1::basic_string<char, std::__ndk1::char_traits<char>, std::__ndk1::allocator<char> >, int, int> > >, std::__ndk1::basic_string<char, std::__ndk1::char_traits<char>, std::__ndk1::allocator<char> > >*, std::__ndk1::allocator<geode::Result<std::__ndk1::vector<std::__ndk1::tuple<std::__ndk1::basic_string<char, std::__ndk1::char_traits<char>, std::__ndk1::allocator<char> >, int, int>, std::__ndk1::allocator<std::__ndk1::tuple<std::__ndk1::basic_string<char, std::__ndk1::char_traits<char>, std::__ndk1::allocator<char> >, int, int> > >, std::__ndk1::basic_string<char, std::__ndk1::char_traits<char>, std::__ndk1::allocator<char> > >*> >, std::__ndk1::monostate>::setListener(geode::EventListenerProtocol*)::{lambda()#2}>, void ()>::~__func()
PUBLIC 9ab78 0 std::__ndk1::__function::__func<geode::Task<std::__ndk1::vector<geode::Result<std::__ndk1::vector<std::__ndk1::tuple<std::__ndk1::basic_string<char, std::__ndk1::char_traits<char>, std::__ndk1::allocator<char> >, int, int>, std::__ndk1::allocator<std::__ndk1::tuple<std::__ndk1::basic_string<char, std::__ndk1::char_traits<char>, std::__ndk1::allocator<char> >, int, int> > >, std::__ndk1::basic_string<char, std::__ndk1::char_traits<char>, std::__ndk1::allocator<char> > >*, std::__ndk1::allocator<geode::Result<std::__ndk1::vector<std::__ndk1::tuple<std::__ndk1::basic_string<char, std::__ndk1::char_traits<char>, std::__ndk1::allocator<char> >, int, int>, std::__ndk1::allocator<std::__ndk1::tuple<std::__ndk1::basic_string<char, std::__ndk1::char_traits<char>, std::__ndk1::allocator<char> >, int, int> > >, std::__ndk1::basic_string<char, std::__ndk1::char_traits<char>, std::__ndk1::allocator<char> > >*> >, std::__ndk1::monostate>::setListener(geode::EventListenerProtocol*)::{lambda()#2}, std::__ndk1::allocator<geode::Task<std::__ndk1::vector<geode::Result<std::__ndk1::vector<std::__ndk1::tuple<std::__ndk1::basic_string<char, std::__ndk1::char_traits<char>, std::__ndk1::allocator<char> >, int, int>, std::__ndk1::allocator<std::__ndk1::tuple<std::__ndk1::basic_string<char, std::__ndk1::char_traits<char>, std::__ndk1::allocator<char> >, int, int> > >, std::__ndk1::basic_string<char, std::__ndk1::char_traits<char>, std::__ndk1::allocator<char> > >*, std::__ndk1::allocator<geode::Result<std::__ndk1::vector<std::__ndk1::tuple<std::__ndk1::basic_string<char, std::__ndk1::char_traits<char>, std::__ndk1::allocator<char> >, int, int>, std::__ndk1::allocator<std::__ndk1::tuple<std::__ndk1::basic_string<char, std::__ndk1::char_traits<char>, std::__ndk1::allocator<char> >, int, int> > >, std::__ndk1::basic_string<char, std::__ndk1::char_traits<char>, std::__ndk1::allocator<char> > >*> >, std::__ndk1::monostate>::setListener(geode::EventListenerProtocol*)::{lambda()#2}>, void ()>::__clone() const
PUBLIC 9abd0 0 std::__ndk1::__function::__func<geode::Task<std::__ndk1::vector<geode::Result<std::__ndk1::vector<std::__ndk1::tuple<std::__ndk1::basic_string<char, std::__ndk1::char_traits<char>, std::__ndk1::allocator<char> >, int, int>, std::__ndk1::allocator<std::__ndk1::tuple<std::__ndk1::basic_string<char, std::__ndk1::char_traits<char>, std::__ndk1::allocator<char> >, int, int> > >, std::__ndk1::basic_string<char, std::__ndk1::char_traits<char>, std::__ndk1::allocator<char> > >*, std::__ndk1::allocator<geode::Result<std::__ndk1::vector<std::__ndk1::tuple<std::__ndk1::basic_string<char, std::__ndk1::char_traits<char>, std::__ndk1::allocator<char> >, int, int>, std::__ndk1::allocator<std::__ndk1::tuple<std::__ndk1::basic_string<char, std::__ndk1::char_traits<char>, std::__ndk1::allocator<char> >, int, int> > >, std::__ndk1::basic_string<char, std::__ndk1::char_traits<char>, std::__ndk1::allocator<char> > >*> >, std::__ndk1::monostate>::setListener(geode::EventListenerProtocol*)::{lambda()#2}, std::__ndk1::allocator<geode::Task<std::__ndk1::vector<geode::Result<std::__ndk1::vector<std::__ndk1::tuple<std::__ndk1::basic_string<char, std::__ndk1::char_traits<char>, std::__ndk1::allocator<char> >, int, int>, std::__ndk1::allocator<std::__ndk1::tuple<std::__ndk1::basic_string<char, std::__ndk1::char_traits<char>, std::__ndk1::allocator<char> >, int, int> > >, std::__ndk1::basic_string<char, std::__ndk1::char_traits<char>, std::__ndk1::allocator<char> > >*, std::__ndk1::allocator<geode::Result<std::__ndk1::vector<std::__ndk1::tuple<std::__ndk1::basic_string<char, std::__ndk1::char_traits<char>, std::__ndk1::allocator<char> >, int, int>, std::__ndk1::allocator<std::__ndk1::tuple<std::__ndk1::basic_string<char, std::__ndk1::char_traits<char>, std::__ndk1::allocator<char> >, int, int> > >, std::__ndk1::basic_string<char, std::__ndk1::char_traits<char>, std::__ndk1::allocator<char> > >*> >, std::__ndk1::monostate>::setListener(geode::EventListenerProtocol*)::{lambda()#2}>, void ()>::__clone(std::__ndk1::__function::__base<void ()>*) const
PUBLIC 9ac1c 0 std::__ndk1::__function::__func<geode::Task<std::__ndk1::vector<geode::Result<std::__ndk1::vector<std::__ndk1::tuple<std::__ndk1::basic_string<char, std::__ndk1::char_traits<char>, std::__ndk1::allocator<char> >, int, int>, std::__ndk1::allocator<std::__ndk1::tuple<std::__ndk1::basic_string<char, std::__ndk1::char_traits<char>, std::__ndk1::allocator<char> >, int, int> > >, std::__ndk1::basic_string<char, std::__ndk1::char_traits<char>, std::__ndk1::allocator<char> > >*, std::__ndk1::allocator<geode::Result<std::__ndk1::vector<std::__ndk1::tuple<std::__ndk1::basic_string<char, std::__ndk1::char_traits<char>, std::__ndk1::allocator<char> >, int, int>, std::__ndk1::allocator<std::__ndk1::tuple<std::__ndk1::basic_string<char, std::__ndk1::char_traits<char>, std::__ndk1::allocator<char> >, int, int> > >, std::__ndk1::basic_string<char, std::__ndk1::char_traits<char>, std::__ndk1::allocator<char> > >*> >, std::__ndk1::monostate>::setListener(geode::EventListenerProtocol*)::{lambda()#2}, std::__ndk1::allocator<geode::Task<std::__ndk1::vector<geode::Result<std::__ndk1::vector<std::__ndk1::tuple<std::__ndk1::basic_string<char, std::__ndk1::char_traits<char>, std::__ndk1::allocator<char> >, int, int>, std::__ndk1::allocator<std::__ndk1::tuple<std::__ndk1::basic_string<char, std::__ndk1::char_traits<char>, std::__ndk1::allocator<char> >, int, int> > >, std::__ndk1::basic_string<char, std::__ndk1::char_traits<char>, std::__ndk1::allocator<char> > >*, std::__ndk1::allocator<geode::Result<std::__ndk1::vector<std::__ndk1::tuple<std::__ndk1::basic_string<char, std::__ndk1::char_traits<char>, std::__ndk1::allocator<char> >, int, int>, std::__ndk1::allocator<std::__ndk1::tuple<std::__ndk1::basic_string<char, std::__ndk1::char_traits<char>, std::__ndk1::allocator<char> >, int, int> > >, std::__ndk1::basic_string<char, std::__ndk1::char_traits<char>, std::__ndk1::allocator<char> > >*> >, std::__ndk1::monostate>::setListener(geode::EventListenerProtocol*)::{lambda()#2}>, void ()>::destroy()
PUBLIC 9ac6c 0 std::__ndk1::__function::__func<geode::Task<std::__ndk1::vector<geode::Result<std::__ndk1::vector<std::__ndk1::tuple<std::__ndk1::basic_string<char, std::__ndk1::char_traits<char>, std::__ndk1::allocator<char> >, int, int>, std::__ndk1::allocator<std::__ndk1::tuple<std::__ndk1::basic_string<char, std::__ndk1::char_traits<char>, std::__ndk1::allocator<char> >, int, int> > >, std::__ndk1::basic_string<char, std::__ndk1::char_traits<char>, std::__ndk1::allocator<char> > >*, std::__ndk1::allocator<geode::Result<std::__ndk1::vector<std::__ndk1::tuple<std::__ndk1::basic_string<char, std::__ndk1::char_traits<char>, std::__ndk1::allocator<char> >, int, int>, std::__ndk1::allocator<std::__ndk1::tuple<std::__ndk1::basic_string<char, std::__ndk1::char_traits<char>, std::__ndk1::allocator<char> >, int, int> > >, std::__ndk1::basic_string<char, std::__ndk1::char_traits<char>, std::__ndk1::allocator<char> > >*> >, std::__ndk1::monostate>::setListener(geode::EventListenerProtocol*)::{lambda()#2}, std::__ndk1::allocator<geode::Task<std::__ndk1::vector<geode::Result<std::__ndk1::vector<std::__ndk1::tuple<std::__ndk1::basic_string<char, std::__ndk1::char_traits<char>, std::__ndk1::allocator<char> >, int, int>, std::__ndk1::allocator<std::__ndk1::tuple<std::__ndk1::basic_string<char, std::__ndk1::char_traits<char>, std::__ndk1::allocator<char> >, int, int> > >, std::__ndk1::basic_string<char, std::__ndk1::char_traits<char>, std::__ndk1::allocator<char> > >*, std::__ndk1::allocator<geode::Result<std::__ndk1::vector<std::__ndk1::tuple<std::__ndk1::basic_string<char, std::__ndk1::char_traits<char>, std::__ndk1::allocator<char> >, int, int>, std::__ndk1::allocator<std::__ndk1::tuple<std::__ndk1::basic_string<char, std::__ndk1::char_traits<char>, std::__ndk1::allocator<char> >, int, int> > >, std::__ndk1::basic_string<char, std::__ndk1::char_traits<char>, std::__ndk1::allocator<char> > >*> >, std::__ndk1::monostate>::setListener(geode::EventListenerProtocol*)::{lambda()#2}>, void ()>::destroy_deallocate()
PUBLIC 9accc 0 std::__ndk1::__function::__func<geode::Task<std::__ndk1::vector<geode::Result<std::__ndk1::vector<std::__ndk1::tuple<std::__ndk1::basic_string<char, std::__ndk1::char_traits<char>, std::__ndk1::allocator<char> >, int, int>, std::__ndk1::allocator<std::__ndk1::tuple<std::__ndk1::basic_string<char, std::__ndk1::char_traits<char>, std::__ndk1::allocator<char> >, int, int> > >, std::__ndk1::basic_string<char, std::__ndk1::char_traits<char>, std::__ndk1::allocator<char> > >*, std::__ndk1::allocator<geode::Result<std::__ndk1::vector<std::__ndk1::tuple<std::__ndk1::basic_string<char, std::__ndk1::char_traits<char>, std::__ndk1::allocator<char> >, int, int>, std::__ndk1::allocator<std::__ndk1::tuple<std::__ndk1::basic_string<char, std::__ndk1::char_traits<char>, std::__ndk1::allocator<char> >, int, int> > >, std::__ndk1::basic_string<char, std::__ndk1::char_traits<char>, std::__ndk1::allocator<char> > >*> >, std::__ndk1::monostate>::setListener(geode::EventListenerProtocol*)::{lambda()#2}, std::__ndk1::allocator<geode::Task<std::__ndk1::vector<geode::Result<std::__ndk1::vector<std::__ndk1::tuple<std::__ndk1::basic_string<char, std::__ndk1::char_traits<char>, std::__ndk1::allocator<char> >, int, int>, std::__ndk1::allocator<std::__ndk1::tuple<std::__ndk1::basic_string<char, std::__ndk1::char_traits<char>, std::__ndk1::allocator<char> >, int, int> > >, std::__ndk1::basic_string<char, std::__ndk1::char_traits<char>, std::__ndk1::allocator<char> > >*, std::__ndk1::allocator<geode::Result<std::__ndk1::vector<std::__ndk1::tuple<std::__ndk1::basic_string<char, std::__ndk1::char_traits<char>, std::__ndk1::allocator<char> >, int, int>, std::__ndk1::allocator<std::__ndk1::tuple<std::__ndk1::basic_string<char, std::__ndk1::char_traits<char>, std::__ndk1::allocator<char> >, int, int> > >, std::__ndk1::basic_string<char, std::__ndk1::char_traits<char>, std::__ndk1::allocator<char> > >*> >, std::__ndk1::monostate>::setListener(geode::EventListenerProtocol*)::{lambda()#2}>, void ()>::operator()()
PUBLIC 9ae90 0 std::__ndk1::__function::__func<geode::Task<std::__ndk1::vector<geode::Result<std::__ndk1::vector<std::__ndk1::tuple<std::__ndk1::basic_string<char, std::__ndk1::char_traits<char>, std::__ndk1::allocator<char> >, int, int>, std::__ndk1::allocator<std::__ndk1::tuple<std::__ndk1::basic_string<char, std::__ndk1::char_traits<char>, std::__ndk1::allocator<char> >, int, int> > >, std::__ndk1::basic_string<char, std::__ndk1::char_traits<char>, std::__ndk1::allocator<char> > >*, std::__ndk1::allocator<geode::Result<std::__ndk1::vector<std::__ndk1::tuple<std::__ndk1::basic_string<char, std::__ndk1::char_traits<char>, std::__ndk1::allocator<char> >, int, int>, std::__ndk1::allocator<std::__ndk1::tuple<std::__ndk1::basic_string<char, std::__ndk1::char_traits<char>, std::__ndk1::allocator<char> >, int, int> > >, std::__ndk1::basic_string<char, std::__ndk1::char_traits<char>, std::__ndk1::allocator<char> > >*> >, std::__ndk1::monostate>::setListener(geode::EventListenerProtocol*)::{lambda()#2}, std::__ndk1::allocator<geode::Task<std::__ndk1::vector<geode::Result<std::__ndk1::vector<std::__ndk1::tuple<std::__ndk1::basic_string<char, std::__ndk1::char_traits<char>, std::__ndk1::allocator<char> >, int, int>, std::__ndk1::allocator<std::__ndk1::tuple<std::__ndk1::basic_string<char, std::__ndk1::char_traits<char>, std::__ndk1::allocator<char> >, int, int> > >, std::__ndk1::basic_string<char, std::__ndk1::char_traits<char>, std::__ndk1::allocator<char> > >*, std::__ndk1::allocator<geode::Result<std::__ndk1::vector<std::__ndk1::tuple<std::__ndk1::basic_string<char, std::__ndk1::char_traits<char>, std::__ndk1::allocator<char> >, int, int>, std::__ndk1::allocator<std::__ndk1::tuple<std::__ndk1::basic_string<char, std::__ndk1::char_traits<char>, std::__ndk1::allocator<char> >, int, int> > >, std::__ndk1::basic_string<char, std::__ndk1::char_traits<char>, std::__ndk1::allocator<char> > >*> >, std::__ndk1::monostate>::setListener(geode::EventListenerProtocol*)::{lambda()#2}>, void ()>::target(std::type_info const&) const
PUBLIC 9aeac 0 std::__ndk1::__function::__func<geode::Task<std::__ndk1::vector<geode::Result<std::__ndk1::vector<std::__ndk1::tuple<std::__ndk1::basic_string<char, std::__ndk1::char_traits<char>, std::__ndk1::allocator<char> >, int, int>, std::__ndk1::allocator<std::__ndk1::tuple<std::__ndk1::basic_string<char, std::__ndk1::char_traits<char>, std::__ndk1::allocator<char> >, int, int> > >, std::__ndk1::basic_string<char, std::__ndk1::char_traits<char>, std::__ndk1::allocator<char> > >*, std::__ndk1::allocator<geode::Result<std::__ndk1::vector<std::__ndk1::tuple<std::__ndk1::basic_string<char, std::__ndk1::char_traits<char>, std::__ndk1::allocator<char> >, int, int>, std::__ndk1::allocator<std::__ndk1::tuple<std::__ndk1::basic_string<char, std::__ndk1::char_traits<char>, std::__ndk1::allocator<char> >, int, int> > >, std::__ndk1::basic_string<char, std::__ndk1::char_traits<char>, std::__ndk1::allocator<char> > >*> >, std::__ndk1::monostate>::setListener(geode::EventListenerProtocol*)::{lambda()#2}, std::__ndk1::allocator<geode::Task<std::__ndk1::vector<geode::Result<std::__ndk1::vector<std::__ndk1::tuple<std::__ndk1::basic_string<char, std::__ndk1::char_traits<char>, std::__ndk1::allocator<char> >, int, int>, std::__ndk1::allocator<std::__ndk1::tuple<std::__ndk1::basic_string<char, std::__ndk1::char_traits<char>, std::__ndk1::allocator<char> >, int, int> > >, std::__ndk1::basic_string<char, std::__ndk1::char_traits<char>, std::__ndk1::allocator<char> > >*, std::__ndk1::allocator<geode::Result<std::__ndk1::vector<std::__ndk1::tuple<std::__ndk1::basic_string<char, std::__ndk1::char_traits<char>, std::__ndk1::allocator<char> >, int, int>, std::__ndk1::allocator<std::__ndk1::tuple<std::__ndk1::basic_string<char, std::__ndk1::char_traits<char>, std::__ndk1::allocator<char> >, int, int> > >, std::__ndk1::basic_string<char, std::__ndk1::char_traits<char>, std::__ndk1::allocator<char> > >*> >, std::__ndk1::monostate>::setListener(geode::EventListenerProtocol*)::{lambda()#2}>, void ()>::target_type() const
PUBLIC 9aeb8 0 geode::Popup<MatchGroup const&>::initBase(float, float, MatchGroup const&, char const*, cocos2d::CCRect, bool)
PUBLIC 9b1cc 0 std::__ndk1::__function::__func<GDWTMatchGroupLayer::setup(MatchGroup const&)::$_0, std::__ndk1::allocator<GDWTMatchGroupLayer::setup(MatchGroup const&)::$_0>, void (geode::Task<geode::Result<std::__ndk1::vector<Match_s, std::__ndk1::allocator<Match_s> >, std::__ndk1::basic_string<char, std::__ndk1::char_traits<char>, std::__ndk1::allocator<char> > >, std::__ndk1::monostate>::Event*)>::~__func()
PUBLIC 9b1d0 0 std::__ndk1::__function::__func<GDWTMatchGroupLayer::setup(MatchGroup const&)::$_0, std::__ndk1::allocator<GDWTMatchGroupLayer::setup(MatchGroup const&)::$_0>, void (geode::Task<geode::Result<std::__ndk1::vector<Match_s, std::__ndk1::allocator<Match_s> >, std::__ndk1::basic_string<char, std::__ndk1::char_traits<char>, std::__ndk1::allocator<char> > >, std::__ndk1::monostate>::Event*)>::__clone() const
PUBLIC 9b210 0 std::__ndk1::__function::__func<GDWTMatchGroupLayer::setup(MatchGroup const&)::$_0, std::__ndk1::allocator<GDWTMatchGroupLayer::setup(MatchGroup const&)::$_0>, void (geode::Task<geode::Result<std::__ndk1::vector<Match_s, std::__ndk1::allocator<Match_s> >, std::__ndk1::basic_string<char, std::__ndk1::char_traits<char>, std::__ndk1::allocator<char> > >, std::__ndk1::monostate>::Event*)>::__clone(std::__ndk1::__function::__base<void (geode::Task<geode::Result<std::__ndk1::vector<Match_s, std::__ndk1::allocator<Match_s> >, std::__ndk1::basic_string<char, std::__ndk1::char_traits<char>, std::__ndk1::allocator<char> > >, std::__ndk1::monostate>::Event*)>*) const
PUBLIC 9b230 0 std::__ndk1::__function::__func<GDWTMatchGroupLayer::setup(MatchGroup const&)::$_0, std::__ndk1::allocator<GDWTMatchGroupLayer::setup(MatchGroup const&)::$_0>, void (geode::Task<geode::Result<std::__ndk1::vector<Match_s, std::__ndk1::allocator<Match_s> >, std::__ndk1::basic_string<char, std::__ndk1::char_traits<char>, std::__ndk1::allocator<char> > >, std::__ndk1::monostate>::Event*)>::destroy()
PUBLIC 9b234 0 std::__ndk1::__function::__func<GDWTMatchGroupLayer::setup(MatchGroup const&)::$_0, std::__ndk1::allocator<GDWTMatchGroupLayer::setup(MatchGroup const&)::$_0>, void (geode::Task<geode::Result<std::__ndk1::vector<Match_s, std::__ndk1::allocator<Match_s> >, std::__ndk1::basic_string<char, std::__ndk1::char_traits<char>, std::__ndk1::allocator<char> > >, std::__ndk1::monostate>::Event*)>::destroy_deallocate()
PUBLIC 9b238 0 std::__ndk1::__function::__func<GDWTMatchGroupLayer::setup(MatchGroup const&)::$_0, std::__ndk1::allocator<GDWTMatchGroupLayer::setup(MatchGroup const&)::$_0>, void (geode::Task<geode::Result<std::__ndk1::vector<Match_s, std::__ndk1::allocator<Match_s> >, std::__ndk1::basic_string<char, std::__ndk1::char_traits<char>, std::__ndk1::allocator<char> > >, std::__ndk1::monostate>::Event*)>::operator()(geode::Task<geode::Result<std::__ndk1::vector<Match_s, std::__ndk1::allocator<Match_s> >, std::__ndk1::basic_string<char, std::__ndk1::char_traits<char>, std::__ndk1::allocator<char> > >, std::__ndk1::monostate>::Event*&&)
PUBLIC 9c8a8 0 std::__ndk1::__function::__func<GDWTMatchGroupLayer::setup(MatchGroup const&)::$_0, std::__ndk1::allocator<GDWTMatchGroupLayer::setup(MatchGroup const&)::$_0>, void (geode::Task<geode::Result<std::__ndk1::vector<Match_s, std::__ndk1::allocator<Match_s> >, std::__ndk1::basic_string<char, std::__ndk1::char_traits<char>, std::__ndk1::allocator<char> > >, std::__ndk1::monostate>::Event*)>::target(std::type_info const&) const
PUBLIC 9c8c4 0 std::__ndk1::__function::__func<GDWTMatchGroupLayer::setup(MatchGroup const&)::$_0, std::__ndk1::allocator<GDWTMatchGroupLayer::setup(MatchGroup const&)::$_0>, void (geode::Task<geode::Result<std::__ndk1::vector<Match_s, std::__ndk1::allocator<Match_s> >, std::__ndk1::basic_string<char, std::__ndk1::char_traits<char>, std::__ndk1::allocator<char> > >, std::__ndk1::monostate>::Event*)>::target_type() const
PUBLIC 9c8d0 0 geode::Task<geode::Result<std::__ndk1::vector<std::__ndk1::tuple<std::__ndk1::basic_string<char, std::__ndk1::char_traits<char>, std::__ndk1::allocator<char> >, int, int>, std::__ndk1::allocator<std::__ndk1::tuple<std::__ndk1::basic_string<char, std::__ndk1::char_traits<char>, std::__ndk1::allocator<char> >, int, int> > >, std::__ndk1::basic_string<char, std::__ndk1::char_traits<char>, std::__ndk1::allocator<char> > >, std::__ndk1::monostate>::~Task()
PUBLIC 9c920 0 std::__ndk1::vector<geode::Task<geode::Result<std::__ndk1::vector<std::__ndk1::tuple<std::__ndk1::basic_string<char, std::__ndk1::char_traits<char>, std::__ndk1::allocator<char> >, int, int>, std::__ndk1::allocator<std::__ndk1::tuple<std::__ndk1::basic_string<char, std::__ndk1::char_traits<char>, std::__ndk1::allocator<char> >, int, int> > >, std::__ndk1::basic_string<char, std::__ndk1::char_traits<char>, std::__ndk1::allocator<char> > >, std::__ndk1::monostate>, std::__ndk1::allocator<geode::Task<geode::Result<std::__ndk1::vector<std::__ndk1::tuple<std::__ndk1::basic_string<char, std::__ndk1::char_traits<char>, std::__ndk1::allocator<char> >, int, int>, std::__ndk1::allocator<std::__ndk1::tuple<std::__ndk1::basic_string<char, std::__ndk1::char_traits<char>, std::__ndk1::allocator<char> >, int, int> > >, std::__ndk1::basic_string<char, std::__ndk1::char_traits<char>, std::__ndk1::allocator<char> > >, std::__ndk1::monostate> > >::~vector[abi:ne180000]()
PUBLIC 9c9c8 0 std::__ndk1::vector<std::__ndk1::tuple<std::__ndk1::basic_string<char, std::__ndk1::char_traits<char>, std::__ndk1::allocator<char> >, int, bool>, std::__ndk1::allocator<std::__ndk1::tuple<std::__ndk1::basic_string<char, std::__ndk1::char_traits<char>, std::__ndk1::allocator<char> >, int, bool> > >::~vector[abi:ne180000]()
PUBLIC 9ca44 0 std::__ndk1::vector<Match_s, std::__ndk1::allocator<Match_s> >::__push_back_slow_path<Match_s const&>(Match_s const&)
PUBLIC 9cd18 0 std::__ndk1::__split_buffer<Match_s, std::__ndk1::allocator<Match_s>&>::~__split_buffer()
PUBLIC 9cd6c 0 std::__ndk1::vector<geode::Task<geode::Result<std::__ndk1::vector<std::__ndk1::tuple<std::__ndk1::basic_string<char, std::__ndk1::char_traits<char>, std::__ndk1::allocator<char> >, int, int>, std::__ndk1::allocator<std::__ndk1::tuple<std::__ndk1::basic_string<char, std::__ndk1::char_traits<char>, std::__ndk1::allocator<char> >, int, int> > >, std::__ndk1::basic_string<char, std::__ndk1::char_traits<char>, std::__ndk1::allocator<char> > >, std::__ndk1::monostate>, std::__ndk1::allocator<geode::Task<geode::Result<std::__ndk1::vector<std::__ndk1::tuple<std::__ndk1::basic_string<char, std::__ndk1::char_traits<char>, std::__ndk1::allocator<char> >, int, int>, std::__ndk1::allocator<std::__ndk1::tuple<std::__ndk1::basic_string<char, std::__ndk1::char_traits<char>, std::__ndk1::allocator<char> >, int, int> > >, std::__ndk1::basic_string<char, std::__ndk1::char_traits<char>, std::__ndk1::allocator<char> > >, std::__ndk1::monostate> > >::__throw_length_error[abi:ne180000]() const
PUBLIC 9cd80 0 std::__ndk1::shared_ptr<geode::Task<geode::Result<std::__ndk1::vector<std::__ndk1::tuple<std::__ndk1::basic_string<char, std::__ndk1::char_traits<char>, std::__ndk1::allocator<char> >, int, int>, std::__ndk1::allocator<std::__ndk1::tuple<std::__ndk1::basic_string<char, std::__ndk1::char_traits<char>, std::__ndk1::allocator<char> >, int, int> > >, std::__ndk1::basic_string<char, std::__ndk1::char_traits<char>, std::__ndk1::allocator<char> > >, std::__ndk1::monostate>::Handle>::~shared_ptr[abi:ne180000]()
PUBLIC 9cdd0 0 std::__ndk1::__function::__base<void (geode::Task<std::__ndk1::vector<geode::Result<std::__ndk1::vector<std::__ndk1::tuple<std::__ndk1::basic_string<char, std::__ndk1::char_traits<char>, std::__ndk1::allocator<char> >, int, int>, std::__ndk1::allocator<std::__ndk1::tuple<std::__ndk1::basic_string<char, std::__ndk1::char_traits<char>, std::__ndk1::allocator<char> >, int, int> > >, std::__ndk1::basic_string<char, std::__ndk1::char_traits<char>, std::__ndk1::allocator<char> > >*, std::__ndk1::allocator<geode::Result<std::__ndk1::vector<std::__ndk1::tuple<std::__ndk1::basic_string<char, std::__ndk1::char_traits<char>, std::__ndk1::allocator<char> >, int, int>, std::__ndk1::allocator<std::__ndk1::tuple<std::__ndk1::basic_string<char, std::__ndk1::char_traits<char>, std::__ndk1::allocator<char> >, int, int> > >, std::__ndk1::basic_string<char, std::__ndk1::char_traits<char>, std::__ndk1::allocator<char> > >*> >, std::__ndk1::monostate>::Event*)>::~__base()
PUBLIC 9cdd4 0 std::__ndk1::__function::__func<GDWTMatchGroupLayer::setup(MatchGroup const&)::$_0::operator()(geode::Task<geode::Result<std::__ndk1::vector<Match_s, std::__ndk1::allocator<Match_s> >, std::__ndk1::basic_string<char, std::__ndk1::char_traits<char>, std::__ndk1::allocator<char> > >, std::__ndk1::monostate>::Event*) const::{lambda(geode::Task<std::__ndk1::vector<geode::Result<std::__ndk1::vector<std::__ndk1::tuple<std::__ndk1::basic_string<char, std::__ndk1::char_traits<char>, std::__ndk1::allocator<char> >, int, int>, std::__ndk1::allocator<std::__ndk1::tuple<std::__ndk1::basic_string<char, std::__ndk1::char_traits<char>, std::__ndk1::allocator<char> >, int, int> > >, std::__ndk1::basic_string<char, std::__ndk1::char_traits<char>, std::__ndk1::allocator<char> > >*, std::__ndk1::allocator<geode::Result<std::__ndk1::vector<std::__ndk1::tuple<std::__ndk1::basic_string<char, std::__ndk1::char_traits<char>, std::__ndk1::allocator<char> >, int, int>, std::__ndk1::allocator<std::__ndk1::tuple<std::__ndk1::basic_string<char, std::__ndk1::char_traits<char>, std::__ndk1::allocator<char> >, int, int> > >, std::__ndk1::basic_string<char, std::__ndk1::char_traits<char>, std::__ndk1::allocator<char> > >*> >, std::__ndk1::monostate>::Event*)#1}, std::__ndk1::allocator<GDWTMatchGroupLayer::setup(MatchGroup const&)::$_0::operator()(geode::Task<geode::Result<std::__ndk1::vector<Match_s, std::__ndk1::allocator<Match_s> >, std::__ndk1::basic_string<char, std::__ndk1::char_traits<char>, std::__ndk1::allocator<char> > >, std::__ndk1::monostate>::Event*) const::{lambda(geode::Task<std::__ndk1::vector<geode::Result<std::__ndk1::vector<std::__ndk1::tuple<std::__ndk1::basic_string<char, std::__ndk1::char_traits<char>, std::__ndk1::allocator<char> >, int, int>, std::__ndk1::allocator<std::__ndk1::tuple<std::__ndk1::basic_string<char, std::__ndk1::char_traits<char>, std::__ndk1::allocator<char> >, int, int> > >, std::__ndk1::basic_string<char, std::__ndk1::char_traits<char>, std::__ndk1::allocator<char> > >*, std::__ndk1::allocator<geode::Result<std::__ndk1::vector<std::__ndk1::tuple<std::__ndk1::basic_string<char, std::__ndk1::char_traits<char>, std::__ndk1::allocator<char> >, int, int>, std::__ndk1::allocator<std::__ndk1::tuple<std::__ndk1::basic_string<char, std::__ndk1::char_traits<char>, std::__ndk1::allocator<char> >, int, int> > >, std::__ndk1::basic_string<char, std::__ndk1::char_traits<char>, std::__ndk1::allocator<char> > >*> >, std::__ndk1::monostate>::Event*)#1}>, void (geode::Task<std::__ndk1::vector<geode::Result<std::__ndk1::vector<std::__ndk1::tuple<std::__ndk1::basic_string<char, std::__ndk1::char_traits<char>, std::__ndk1::allocator<char> >, int, int>, std::__ndk1::allocator<std::__ndk1::tuple<std::__ndk1::basic_string<char, std::__ndk1::char_traits<char>, std::__ndk1::allocator<char> >, int, int> > >, std::__ndk1::basic_string<char, std::__ndk1::char_traits<char>, std::__ndk1::allocator<char> > >*, std::__ndk1::allocator<geode::Result<std::__ndk1::vector<std::__ndk1::tuple<std::__ndk1::basic_string<char, std::__ndk1::char_traits<char>, std::__ndk1::allocator<char> >, int, int>, std::__ndk1::allocator<std::__ndk1::tuple<std::__ndk1::basic_string<char, std::__ndk1::char_traits<char>, std::__ndk1::allocator<char> >, int, int> > >, std::__ndk1::basic_string<char, std::__ndk1::char_traits<char>, std::__ndk1::allocator<char> > >*> >, std::__ndk1::monostate>::Event*)>::~__func()
PUBLIC 9cdd8 0 std::__ndk1::__function::__func<GDWTMatchGroupLayer::setup(MatchGroup const&)::$_0::operator()(geode::Task<geode::Result<std::__ndk1::vector<Match_s, std::__ndk1::allocator<Match_s> >, std::__ndk1::basic_string<char, std::__ndk1::char_traits<char>, std::__ndk1::allocator<char> > >, std::__ndk1::monostate>::Event*) const::{lambda(geode::Task<std::__ndk1::vector<geode::Result<std::__ndk1::vector<std::__ndk1::tuple<std::__ndk1::basic_string<char, std::__ndk1::char_traits<char>, std::__ndk1::allocator<char> >, int, int>, std::__ndk1::allocator<std::__ndk1::tuple<std::__ndk1::basic_string<char, std::__ndk1::char_traits<char>, std::__ndk1::allocator<char> >, int, int> > >, std::__ndk1::basic_string<char, std::__ndk1::char_traits<char>, std::__ndk1::allocator<char> > >*, std::__ndk1::allocator<geode::Result<std::__ndk1::vector<std::__ndk1::tuple<std::__ndk1::basic_string<char, std::__ndk1::char_traits<char>, std::__ndk1::allocator<char> >, int, int>, std::__ndk1::allocator<std::__ndk1::tuple<std::__ndk1::basic_string<char, std::__ndk1::char_traits<char>, std::__ndk1::allocator<char> >, int, int> > >, std::__ndk1::basic_string<char, std::__ndk1::char_traits<char>, std::__ndk1::allocator<char> > >*> >, std::__ndk1::monostate>::Event*)#1}, std::__ndk1::allocator<GDWTMatchGroupLayer::setup(MatchGroup const&)::$_0::operator()(geode::Task<geode::Result<std::__ndk1::vector<Match_s, std::__ndk1::allocator<Match_s> >, std::__ndk1::basic_string<char, std::__ndk1::char_traits<char>, std::__ndk1::allocator<char> > >, std::__ndk1::monostate>::Event*) const::{lambda(geode::Task<std::__ndk1::vector<geode::Result<std::__ndk1::vector<std::__ndk1::tuple<std::__ndk1::basic_string<char, std::__ndk1::char_traits<char>, std::__ndk1::allocator<char> >, int, int>, std::__ndk1::allocator<std::__ndk1::tuple<std::__ndk1::basic_string<char, std::__ndk1::char_traits<char>, std::__ndk1::allocator<char> >, int, int> > >, std::__ndk1::basic_string<char, std::__ndk1::char_traits<char>, std::__ndk1::allocator<char> > >*, std::__ndk1::allocator<geode::Result<std::__ndk1::vector<std::__ndk1::tuple<std::__ndk1::basic_string<char, std::__ndk1::char_traits<char>, std::__ndk1::allocator<char> >, int, int>, std::__ndk1::allocator<std::__ndk1::tuple<std::__ndk1::basic_string<char, std::__ndk1::char_traits<char>, std::__ndk1::allocator<char> >, int, int> > >, std::__ndk1::basic_string<char, std::__ndk1::char_traits<char>, std::__ndk1::allocator<char> > >*> >, std::__ndk1::monostate>::Event*)#1}>, void (geode::Task<std::__ndk1::vector<geode::Result<std::__ndk1::vector<std::__ndk1::tuple<std::__ndk1::basic_string<char, std::__ndk1::char_traits<char>, std::__ndk1::allocator<char> >, int, int>, std::__ndk1::allocator<std::__ndk1::tuple<std::__ndk1::basic_string<char, std::__ndk1::char_traits<char>, std::__ndk1::allocator<char> >, int, int> > >, std::__ndk1::basic_string<char, std::__ndk1::char_traits<char>, std::__ndk1::allocator<char> > >*, std::__ndk1::allocator<geode::Result<std::__ndk1::vector<std::__ndk1::tuple<std::__ndk1::basic_string<char, std::__ndk1::char_traits<char>, std::__ndk1::allocator<char> >, int, int>, std::__ndk1::allocator<std::__ndk1::tuple<std::__ndk1::basic_string<char, std::__ndk1::char_traits<char>, std::__ndk1::allocator<char> >, int, int> > >, std::__ndk1::basic_string<char, std::__ndk1::char_traits<char>, std::__ndk1::allocator<char> > >*> >, std::__ndk1::monostate>::Event*)>::__clone() const
PUBLIC 9ce10 0 _ZNKSt6__ndk110__function6__funcIZZN19GDWTMatchGroupLayer5setupERK10MatchGroupENK3$_0clEPN5geode4TaskINS7_6ResultINS_6vectorI7Match_sNS_9allocatorISB_EEEENS_12basic_stringIcNS_11char_traitsIcEENSC_IcEEEEEENS_9monostateEE5EventEEUlPNS8_INSA_IPNS9_INSA_INS_5tupleIJSJ_iiEEENSC_ISQ_EEEESJ_EENSC_ISU_EEEESL_E5EventEE_NSC_IS10_EEFvSZ_EE7__cloneEPNS0_6__baseIS12_EE
PUBLIC 9ce28 0 std::__ndk1::__function::__func<GDWTMatchGroupLayer::setup(MatchGroup const&)::$_0::operator()(geode::Task<geode::Result<std::__ndk1::vector<Match_s, std::__ndk1::allocator<Match_s> >, std::__ndk1::basic_string<char, std::__ndk1::char_traits<char>, std::__ndk1::allocator<char> > >, std::__ndk1::monostate>::Event*) const::{lambda(geode::Task<std::__ndk1::vector<geode::Result<std::__ndk1::vector<std::__ndk1::tuple<std::__ndk1::basic_string<char, std::__ndk1::char_traits<char>, std::__ndk1::allocator<char> >, int, int>, std::__ndk1::allocator<std::__ndk1::tuple<std::__ndk1::basic_string<char, std::__ndk1::char_traits<char>, std::__ndk1::allocator<char> >, int, int> > >, std::__ndk1::basic_string<char, std::__ndk1::char_traits<char>, std::__ndk1::allocator<char> > >*, std::__ndk1::allocator<geode::Result<std::__ndk1::vector<std::__ndk1::tuple<std::__ndk1::basic_string<char, std::__ndk1::char_traits<char>, std::__ndk1::allocator<char> >, int, int>, std::__ndk1::allocator<std::__ndk1::tuple<std::__ndk1::basic_string<char, std::__ndk1::char_traits<char>, std::__ndk1::allocator<char> >, int, int> > >, std::__ndk1::basic_string<char, std::__ndk1::char_traits<char>, std::__ndk1::allocator<char> > >*> >, std::__ndk1::monostate>::Event*)#1}, std::__ndk1::allocator<GDWTMatchGroupLayer::setup(MatchGroup const&)::$_0::operator()(geode::Task<geode::Result<std::__ndk1::vector<Match_s, std::__ndk1::allocator<Match_s> >, std::__ndk1::basic_string<char, std::__ndk1::char_traits<char>, std::__ndk1::allocator<char> > >, std::__ndk1::monostate>::Event*) const::{lambda(geode::Task<std::__ndk1::vector<geode::Result<std::__ndk1::vector<std::__ndk1::tuple<std::__ndk1::basic_string<char, std::__ndk1::char_traits<char>, std::__ndk1::allocator<char> >, int, int>, std::__ndk1::allocator<std::__ndk1::tuple<std::__ndk1::basic_string<char, std::__ndk1::char_traits<char>, std::__ndk1::allocator<char> >, int, int> > >, std::__ndk1::basic_string<char, std::__ndk1::char_traits<char>, std::__ndk1::allocator<char> > >*, std::__ndk1::allocator<geode::Result<std::__ndk1::vector<std::__ndk1::tuple<std::__ndk1::basic_string<char, std::__ndk1::char_traits<char>, std::__ndk1::allocator<char> >, int, int>, std::__ndk1::allocator<std::__ndk1::tuple<std::__ndk1::basic_string<char, std::__ndk1::char_traits<char>, std::__ndk1::allocator<char> >, int, int> > >, std::__ndk1::basic_string<char, std::__ndk1::char_traits<char>, std::__ndk1::allocator<char> > >*> >, std::__ndk1::monostate>::Event*)#1}>, void (geode::Task<std::__ndk1::vector<geode::Result<std::__ndk1::vector<std::__ndk1::tuple<std::__ndk1::basic_string<char, std::__ndk1::char_traits<char>, std::__ndk1::allocator<char> >, int, int>, std::__ndk1::allocator<std::__ndk1::tuple<std::__ndk1::basic_string<char, std::__ndk1::char_traits<char>, std::__ndk1::allocator<char> >, int, int> > >, std::__ndk1::basic_string<char, std::__ndk1::char_traits<char>, std::__ndk1::allocator<char> > >*, std::__ndk1::allocator<geode::Result<std::__ndk1::vector<std::__ndk1::tuple<std::__ndk1::basic_string<char, std::__ndk1::char_traits<char>, std::__ndk1::allocator<char> >, int, int>, std::__ndk1::allocator<std::__ndk1::tuple<std::__ndk1::basic_string<char, std::__ndk1::char_traits<char>, std::__ndk1::allocator<char> >, int, int> > >, std::__ndk1::basic_string<char, std::__ndk1::char_traits<char>, std::__ndk1::allocator<char> > >*> >, std::__ndk1::monostate>::Event*)>::destroy()
PUBLIC 9ce2c 0 std::__ndk1::__function::__func<GDWTMatchGroupLayer::setup(MatchGroup const&)::$_0::operator()(geode::Task<geode::Result<std::__ndk1::vector<Match_s, std::__ndk1::allocator<Match_s> >, std::__ndk1::basic_string<char, std::__ndk1::char_traits<char>, std::__ndk1::allocator<char> > >, std::__ndk1::monostate>::Event*) const::{lambda(geode::Task<std::__ndk1::vector<geode::Result<std::__ndk1::vector<std::__ndk1::tuple<std::__ndk1::basic_string<char, std::__ndk1::char_traits<char>, std::__ndk1::allocator<char> >, int, int>, std::__ndk1::allocator<std::__ndk1::tuple<std::__ndk1::basic_string<char, std::__ndk1::char_traits<char>, std::__ndk1::allocator<char> >, int, int> > >, std::__ndk1::basic_string<char, std::__ndk1::char_traits<char>, std::__ndk1::allocator<char> > >*, std::__ndk1::allocator<geode::Result<std::__ndk1::vector<std::__ndk1::tuple<std::__ndk1::basic_string<char, std::__ndk1::char_traits<char>, std::__ndk1::allocator<char> >, int, int>, std::__ndk1::allocator<std::__ndk1::tuple<std::__ndk1::basic_string<char, std::__ndk1::char_traits<char>, std::__ndk1::allocator<char> >, int, int> > >, std::__ndk1::basic_string<char, std::__ndk1::char_traits<char>, std::__ndk1::allocator<char> > >*> >, std::__ndk1::monostate>::Event*)#1}, std::__ndk1::allocator<GDWTMatchGroupLayer::setup(MatchGroup const&)::$_0::operator()(geode::Task<geode::Result<std::__ndk1::vector<Match_s, std::__ndk1::allocator<Match_s> >, std::__ndk1::basic_string<char, std::__ndk1::char_traits<char>, std::__ndk1::allocator<char> > >, std::__ndk1::monostate>::Event*) const::{lambda(geode::Task<std::__ndk1::vector<geode::Result<std::__ndk1::vector<std::__ndk1::tuple<std::__ndk1::basic_string<char, std::__ndk1::char_traits<char>, std::__ndk1::allocator<char> >, int, int>, std::__ndk1::allocator<std::__ndk1::tuple<std::__ndk1::basic_string<char, std::__ndk1::char_traits<char>, std::__ndk1::allocator<char> >, int, int> > >, std::__ndk1::basic_string<char, std::__ndk1::char_traits<char>, std::__ndk1::allocator<char> > >*, std::__ndk1::allocator<geode::Result<std::__ndk1::vector<std::__ndk1::tuple<std::__ndk1::basic_string<char, std::__ndk1::char_traits<char>, std::__ndk1::allocator<char> >, int, int>, std::__ndk1::allocator<std::__ndk1::tuple<std::__ndk1::basic_string<char, std::__ndk1::char_traits<char>, std::__ndk1::allocator<char> >, int, int> > >, std::__ndk1::basic_string<char, std::__ndk1::char_traits<char>, std::__ndk1::allocator<char> > >*> >, std::__ndk1::monostate>::Event*)#1}>, void (geode::Task<std::__ndk1::vector<geode::Result<std::__ndk1::vector<std::__ndk1::tuple<std::__ndk1::basic_string<char, std::__ndk1::char_traits<char>, std::__ndk1::allocator<char> >, int, int>, std::__ndk1::allocator<std::__ndk1::tuple<std::__ndk1::basic_string<char, std::__ndk1::char_traits<char>, std::__ndk1::allocator<char> >, int, int> > >, std::__ndk1::basic_string<char, std::__ndk1::char_traits<char>, std::__ndk1::allocator<char> > >*, std::__ndk1::allocator<geode::Result<std::__ndk1::vector<std::__ndk1::tuple<std::__ndk1::basic_string<char, std::__ndk1::char_traits<char>, std::__ndk1::allocator<char> >, int, int>, std::__ndk1::allocator<std::__ndk1::tuple<std::__ndk1::basic_string<char, std::__ndk1::char_traits<char>, std::__ndk1::allocator<char> >, int, int> > >, std::__ndk1::basic_string<char, std::__ndk1::char_traits<char>, std::__ndk1::allocator<char> > >*> >, std::__ndk1::monostate>::Event*)>::destroy_deallocate()
PUBLIC 9ce30 0 _ZNSt6__ndk110__function6__funcIZZN19GDWTMatchGroupLayer5setupERK10MatchGroupENK3$_0clEPN5geode4TaskINS7_6ResultINS_6vectorI7Match_sNS_9allocatorISB_EEEENS_12basic_stringIcNS_11char_traitsIcEENSC_IcEEEEEENS_9monostateEE5EventEEUlPNS8_INSA_IPNS9_INSA_INS_5tupleIJSJ_iiEEENSC_ISQ_EEEESJ_EENSC_ISU_EEEESL_E5EventEE_NSC_IS10_EEFvSZ_EEclEOSZ_
PUBLIC 9d624 0 std::__ndk1::__function::__func<GDWTMatchGroupLayer::setup(MatchGroup const&)::$_0::operator()(geode::Task<geode::Result<std::__ndk1::vector<Match_s, std::__ndk1::allocator<Match_s> >, std::__ndk1::basic_string<char, std::__ndk1::char_traits<char>, std::__ndk1::allocator<char> > >, std::__ndk1::monostate>::Event*) const::{lambda(geode::Task<std::__ndk1::vector<geode::Result<std::__ndk1::vector<std::__ndk1::tuple<std::__ndk1::basic_string<char, std::__ndk1::char_traits<char>, std::__ndk1::allocator<char> >, int, int>, std::__ndk1::allocator<std::__ndk1::tuple<std::__ndk1::basic_string<char, std::__ndk1::char_traits<char>, std::__ndk1::allocator<char> >, int, int> > >, std::__ndk1::basic_string<char, std::__ndk1::char_traits<char>, std::__ndk1::allocator<char> > >*, std::__ndk1::allocator<geode::Result<std::__ndk1::vector<std::__ndk1::tuple<std::__ndk1::basic_string<char, std::__ndk1::char_traits<char>, std::__ndk1::allocator<char> >, int, int>, std::__ndk1::allocator<std::__ndk1::tuple<std::__ndk1::basic_string<char, std::__ndk1::char_traits<char>, std::__ndk1::allocator<char> >, int, int> > >, std::__ndk1::basic_string<char, std::__ndk1::char_traits<char>, std::__ndk1::allocator<char> > >*> >, std::__ndk1::monostate>::Event*)#1}, std::__ndk1::allocator<GDWTMatchGroupLayer::setup(MatchGroup const&)::$_0::operator()(geode::Task<geode::Result<std::__ndk1::vector<Match_s, std::__ndk1::allocator<Match_s> >, std::__ndk1::basic_string<char, std::__ndk1::char_traits<char>, std::__ndk1::allocator<char> > >, std::__ndk1::monostate>::Event*) const::{lambda(geode::Task<std::__ndk1::vector<geode::Result<std::__ndk1::vector<std::__ndk1::tuple<std::__ndk1::basic_string<char, std::__ndk1::char_traits<char>, std::__ndk1::allocator<char> >, int, int>, std::__ndk1::allocator<std::__ndk1::tuple<std::__ndk1::basic_string<char, std::__ndk1::char_traits<char>, std::__ndk1::allocator<char> >, int, int> > >, std::__ndk1::basic_string<char, std::__ndk1::char_traits<char>, std::__ndk1::allocator<char> > >*, std::__ndk1::allocator<geode::Result<std::__ndk1::vector<std::__ndk1::tuple<std::__ndk1::basic_string<char, std::__ndk1::char_traits<char>, std::__ndk1::allocator<char> >, int, int>, std::__ndk1::allocator<std::__ndk1::tuple<std::__ndk1::basic_string<char, std::__ndk1::char_traits<char>, std::__ndk1::allocator<char> >, int, int> > >, std::__ndk1::basic_string<char, std::__ndk1::char_traits<char>, std::__ndk1::allocator<char> > >*> >, std::__ndk1::monostate>::Event*)#1}>, void (geode::Task<std::__ndk1::vector<geode::Result<std::__ndk1::vector<std::__ndk1::tuple<std::__ndk1::basic_string<char, std::__ndk1::char_traits<char>, std::__ndk1::allocator<char> >, int, int>, std::__ndk1::allocator<std::__ndk1::tuple<std::__ndk1::basic_string<char, std::__ndk1::char_traits<char>, std::__ndk1::allocator<char> >, int, int> > >, std::__ndk1::basic_string<char, std::__ndk1::char_traits<char>, std::__ndk1::allocator<char> > >*, std::__ndk1::allocator<geode::Result<std::__ndk1::vector<std::__ndk1::tuple<std::__ndk1::basic_string<char, std::__ndk1::char_traits<char>, std::__ndk1::allocator<char> >, int, int>, std::__ndk1::allocator<std::__ndk1::tuple<std::__ndk1::basic_string<char, std::__ndk1::char_traits<char>, std::__ndk1::allocator<char> >, int, int> > >, std::__ndk1::basic_string<char, std::__ndk1::char_traits<char>, std::__ndk1::allocator<char> > >*> >, std::__ndk1::monostate>::Event*)>::target(std::type_info const&) const
PUBLIC 9d640 0 std::__ndk1::__function::__func<GDWTMatchGroupLayer::setup(MatchGroup const&)::$_0::operator()(geode::Task<geode::Result<std::__ndk1::vector<Match_s, std::__ndk1::allocator<Match_s> >, std::__ndk1::basic_string<char, std::__ndk1::char_traits<char>, std::__ndk1::allocator<char> > >, std::__ndk1::monostate>::Event*) const::{lambda(geode::Task<std::__ndk1::vector<geode::Result<std::__ndk1::vector<std::__ndk1::tuple<std::__ndk1::basic_string<char, std::__ndk1::char_traits<char>, std::__ndk1::allocator<char> >, int, int>, std::__ndk1::allocator<std::__ndk1::tuple<std::__ndk1::basic_string<char, std::__ndk1::char_traits<char>, std::__ndk1::allocator<char> >, int, int> > >, std::__ndk1::basic_string<char, std::__ndk1::char_traits<char>, std::__ndk1::allocator<char> > >*, std::__ndk1::allocator<geode::Result<std::__ndk1::vector<std::__ndk1::tuple<std::__ndk1::basic_string<char, std::__ndk1::char_traits<char>, std::__ndk1::allocator<char> >, int, int>, std::__ndk1::allocator<std::__ndk1::tuple<std::__ndk1::basic_string<char, std::__ndk1::char_traits<char>, std::__ndk1::allocator<char> >, int, int> > >, std::__ndk1::basic_string<char, std::__ndk1::char_traits<char>, std::__ndk1::allocator<char> > >*> >, std::__ndk1::monostate>::Event*)#1}, std::__ndk1::allocator<GDWTMatchGroupLayer::setup(MatchGroup const&)::$_0::operator()(geode::Task<geode::Result<std::__ndk1::vector<Match_s, std::__ndk1::allocator<Match_s> >, std::__ndk1::basic_string<char, std::__ndk1::char_traits<char>, std::__ndk1::allocator<char> > >, std::__ndk1::monostate>::Event*) const::{lambda(geode::Task<std::__ndk1::vector<geode::Result<std::__ndk1::vector<std::__ndk1::tuple<std::__ndk1::basic_string<char, std::__ndk1::char_traits<char>, std::__ndk1::allocator<char> >, int, int>, std::__ndk1::allocator<std::__ndk1::tuple<std::__ndk1::basic_string<char, std::__ndk1::char_traits<char>, std::__ndk1::allocator<char> >, int, int> > >, std::__ndk1::basic_string<char, std::__ndk1::char_traits<char>, std::__ndk1::allocator<char> > >*, std::__ndk1::allocator<geode::Result<std::__ndk1::vector<std::__ndk1::tuple<std::__ndk1::basic_string<char, std::__ndk1::char_traits<char>, std::__ndk1::allocator<char> >, int, int>, std::__ndk1::allocator<std::__ndk1::tuple<std::__ndk1::basic_string<char, std::__ndk1::char_traits<char>, std::__ndk1::allocator<char> >, int, int> > >, std::__ndk1::basic_string<char, std::__ndk1::char_traits<char>, std::__ndk1::allocator<char> > >*> >, std::__ndk1::monostate>::Event*)#1}>, void (geode::Task<std::__ndk1::vector<geode::Result<std::__ndk1::vector<std::__ndk1::tuple<std::__ndk1::basic_string<char, std::__ndk1::char_traits<char>, std::__ndk1::allocator<char> >, int, int>, std::__ndk1::allocator<std::__ndk1::tuple<std::__ndk1::basic_string<char, std::__ndk1::char_traits<char>, std::__ndk1::allocator<char> >, int, int> > >, std::__ndk1::basic_string<char, std::__ndk1::char_traits<char>, std::__ndk1::allocator<char> > >*, std::__ndk1::allocator<geode::Result<std::__ndk1::vector<std::__ndk1::tuple<std::__ndk1::basic_string<char, std::__ndk1::char_traits<char>, std::__ndk1::allocator<char> >, int, int>, std::__ndk1::allocator<std::__ndk1::tuple<std::__ndk1::basic_string<char, std::__ndk1::char_traits<char>, std::__ndk1::allocator<char> >, int, int> > >, std::__ndk1::basic_string<char, std::__ndk1::char_traits<char>, std::__ndk1::allocator<char> > >*> >, std::__ndk1::monostate>::Event*)>::target_type() const
PUBLIC 9d64c 0 std::__ndk1::vector<std::__ndk1::tuple<std::__ndk1::basic_string<char, std::__ndk1::char_traits<char>, std::__ndk1::allocator<char> >, int, int>, std::__ndk1::allocator<std::__ndk1::tuple<std::__ndk1::basic_string<char, std::__ndk1::char_traits<char>, std::__ndk1::allocator<char> >, int, int> > >::~vector[abi:ne180000]()
PUBLIC 9d6c8 0 std::__ndk1::vector<geode::Result<std::__ndk1::vector<std::__ndk1::tuple<std::__ndk1::basic_string<char, std::__ndk1::char_traits<char>, std::__ndk1::allocator<char> >, int, int>, std::__ndk1::allocator<std::__ndk1::tuple<std::__ndk1::basic_string<char, std::__ndk1::char_traits<char>, std::__ndk1::allocator<char> >, int, int> > >, std::__ndk1::basic_string<char, std::__ndk1::char_traits<char>, std::__ndk1::allocator<char> > >*, std::__ndk1::allocator<geode::Result<std::__ndk1::vector<std::__ndk1::tuple<std::__ndk1::basic_string<char, std::__ndk1::char_traits<char>, std::__ndk1::allocator<char> >, int, int>, std::__ndk1::allocator<std::__ndk1::tuple<std::__ndk1::basic_string<char, std::__ndk1::char_traits<char>, std::__ndk1::allocator<char> >, int, int> > >, std::__ndk1::basic_string<char, std::__ndk1::char_traits<char>, std::__ndk1::allocator<char> > >*> >::__throw_length_error[abi:ne180000]() const
PUBLIC 9d6dc 0 std::__ndk1::vector<std::__ndk1::tuple<std::__ndk1::basic_string<char, std::__ndk1::char_traits<char>, std::__ndk1::allocator<char> >, int, int>, std::__ndk1::allocator<std::__ndk1::tuple<std::__ndk1::basic_string<char, std::__ndk1::char_traits<char>, std::__ndk1::allocator<char> >, int, int> > >::__init_with_size[abi:ne180000]<std::__ndk1::tuple<std::__ndk1::basic_string<char, std::__ndk1::char_traits<char>, std::__ndk1::allocator<char> >, int, int>*, std::__ndk1::vector<std::__ndk1::tuple<std::__ndk1::basic_string<char, std::__ndk1::char_traits<char>, std::__ndk1::allocator<char> >, int, int>, std::__ndk1::allocator<std::__ndk1::tuple<std::__ndk1::basic_string<char, std::__ndk1::char_traits<char>, std::__ndk1::allocator<char> >, int, int> > >::__init_with_size[abi:ne180000]>(std::__ndk1::tuple<std::__ndk1::basic_string<char, std::__ndk1::char_traits<char>, std::__ndk1::allocator<char> >, int, int>*, std::__ndk1::vector<std::__ndk1::tuple<std::__ndk1::basic_string<char, std::__ndk1::char_traits<char>, std::__ndk1::allocator<char> >, int, int>, std::__ndk1::allocator<std::__ndk1::tuple<std::__ndk1::basic_string<char, std::__ndk1::char_traits<char>, std::__ndk1::allocator<char> >, int, int> > >::__init_with_size[abi:ne180000], unsigned long)
PUBLIC 9d840 0 std::__ndk1::__exception_guard_exceptions<std::__ndk1::vector<std::__ndk1::tuple<std::__ndk1::basic_string<char, std::__ndk1::char_traits<char>, std::__ndk1::allocator<char> >, int, int>, std::__ndk1::allocator<std::__ndk1::tuple<std::__ndk1::basic_string<char, std::__ndk1::char_traits<char>, std::__ndk1::allocator<char> >, int, int> > >::__destroy_vector>::~__exception_guard_exceptions[abi:ne180000]()
PUBLIC 9d8cc 0 std::__ndk1::vector<std::__ndk1::tuple<std::__ndk1::basic_string<char, std::__ndk1::char_traits<char>, std::__ndk1::allocator<char> >, int, int>, std::__ndk1::allocator<std::__ndk1::tuple<std::__ndk1::basic_string<char, std::__ndk1::char_traits<char>, std::__ndk1::allocator<char> >, int, int> > >::__throw_length_error[abi:ne180000]() const
PUBLIC 9d8e0 0 std::__ndk1::__exception_guard_exceptions<std::__ndk1::_AllocatorDestroyRangeReverse<std::__ndk1::allocator<std::__ndk1::tuple<std::__ndk1::basic_string<char, std::__ndk1::char_traits<char>, std::__ndk1::allocator<char> >, int, int> >, std::__ndk1::tuple<std::__ndk1::basic_string<char, std::__ndk1::char_traits<char>, std::__ndk1::allocator<char> >, int, int>*> >::~__exception_guard_exceptions[abi:ne180000]()
PUBLIC 9d940 0 _ZNSt6__ndk111__introsortINS_15_RangeAlgPolicyERZZZN19GDWTMatchGroupLayer5setupERK10MatchGroupENK3$_0clEPN5geode4TaskINS7_6ResultINS_6vectorI7Match_sNS_9allocatorISB_EEEENS_12basic_stringIcNS_11char_traitsIcEENSC_IcEEEEEENS_9monostateEE5EventEENKUlPNS8_INSA_IPNS9_INSA_INS_5tupleIJSJ_iiEEENSC_ISQ_EEEESJ_EENSC_ISU_EEEESL_E5EventEE_clESZ_EUlNSP_IJSJ_ibiEEES11_E_PS11_Lb0EEEvT1_S15_T0_NS_15iterator_traitsIS15_E15difference_typeEb
PUBLIC 9fde0 0 _ZNSt6__ndk124__sort5_maybe_branchlessB8ne180000INS_15_RangeAlgPolicyERZZZN19GDWTMatchGroupLayer5setupERK10MatchGroupENK3$_0clEPN5geode4TaskINS7_6ResultINS_6vectorI7Match_sNS_9allocatorISB_EEEENS_12basic_stringIcNS_11char_traitsIcEENSC_IcEEEEEENS_9monostateEE5EventEENKUlPNS8_INSA_IPNS9_INSA_INS_5tupleIJSJ_iiEEENSC_ISQ_EEEESJ_EENSC_ISU_EEEESL_E5EventEE_clESZ_EUlNSP_IJSJ_ibiEEES11_E_PS11_TnNS_9enable_ifIXntsr21__use_branchless_sortIT0_T1_EE5valueEiE4typeELi0EEEvS17_S17_S17_S17_S17_S16_
PUBLIC a0334 0 _ZNSt6__ndk17__sort3B8ne180000INS_15_RangeAlgPolicyERZZZN19GDWTMatchGroupLayer5setupERK10MatchGroupENK3$_0clEPN5geode4TaskINS7_6ResultINS_6vectorI7Match_sNS_9allocatorISB_EEEENS_12basic_stringIcNS_11char_traitsIcEENSC_IcEEEEEENS_9monostateEE5EventEENKUlPNS8_INSA_IPNS9_INSA_INS_5tupleIJSJ_iiEEENSC_ISQ_EEEESJ_EENSC_ISU_EEEESL_E5EventEE_clESZ_EUlNSP_IJSJ_ibiEEES11_E_PS11_EEjT1_S15_S15_T0_
PUBLIC a09c0 0 _ZNSt6__ndk127__insertion_sort_incompleteB8ne180000INS_15_RangeAlgPolicyERZZZN19GDWTMatchGroupLayer5setupERK10MatchGroupENK3$_0clEPN5geode4TaskINS7_6ResultINS_6vectorI7Match_sNS_9allocatorISB_EEEENS_12basic_stringIcNS_11char_traitsIcEENSC_IcEEEEEENS_9monostateEE5EventEENKUlPNS8_INSA_IPNS9_INSA_INS_5tupleIJSJ_iiEEENSC_ISQ_EEEESJ_EENSC_ISU_EEEESL_E5EventEE_clESZ_EUlNSP_IJSJ_ibiEEES11_E_PS11_EEbT1_S15_T0_
PUBLIC a0f98 0 _ZNSt6__ndk17__sort4B8ne180000INS_15_RangeAlgPolicyERZZZN19GDWTMatchGroupLayer5setupERK10MatchGroupENK3$_0clEPN5geode4TaskINS7_6ResultINS_6vectorI7Match_sNS_9allocatorISB_EEEENS_12basic_stringIcNS_11char_traitsIcEENSC_IcEEEEEENS_9monostateEE5EventEENKUlPNS8_INSA_IPNS9_INSA_INS_5tupleIJSJ_iiEEENSC_ISQ_EEEESJ_EENSC_ISU_EEEESL_E5EventEE_clESZ_EUlNSP_IJSJ_ibiEEES11_E_PS11_EEvT1_S15_S15_S15_T0_
PUBLIC a13b8 0 geode::Task<std::__ndk1::monostate, std::__ndk1::monostate>::~Task()
PUBLIC a1408 0 geode::Task<std::__ndk1::vector<geode::Result<std::__ndk1::vector<std::__ndk1::tuple<std::__ndk1::basic_string<char, std::__ndk1::char_traits<char>, std::__ndk1::allocator<char> >, int, int>, std::__ndk1::allocator<std::__ndk1::tuple<std::__ndk1::basic_string<char, std::__ndk1::char_traits<char>, std::__ndk1::allocator<char> >, int, int> > >, std::__ndk1::basic_string<char, std::__ndk1::char_traits<char>, std::__ndk1::allocator<char> > >*, std::__ndk1::allocator<geode::Result<std::__ndk1::vector<std::__ndk1::tuple<std::__ndk1::basic_string<char, std::__ndk1::char_traits<char>, std::__ndk1::allocator<char> >, int, int>, std::__ndk1::allocator<std::__ndk1::tuple<std::__ndk1::basic_string<char, std::__ndk1::char_traits<char>, std::__ndk1::allocator<char> >, int, int> > >, std::__ndk1::basic_string<char, std::__ndk1::char_traits<char>, std::__ndk1::allocator<char> > >*> >, std::__ndk1::monostate>::finish(std::__ndk1::shared_ptr<geode::Task<std::__ndk1::vector<geode::Result<std::__ndk1::vector<std::__ndk1::tuple<std::__ndk1::basic_string<char, std::__ndk1::char_traits<char>, std::__ndk1::allocator<char> >, int, int>, std::__ndk1::allocator<std::__ndk1::tuple<std::__ndk1::basic_string<char, std::__ndk1::char_traits<char>, std::__ndk1::allocator<char> >, int, int> > >, std::__ndk1::basic_string<char, std::__ndk1::char_traits<char>, std::__ndk1::allocator<char> > >*, std::__ndk1::allocator<geode::Result<std::__ndk1::vector<std::__ndk1::tuple<std::__ndk1::basic_string<char, std::__ndk1::char_traits<char>, std::__ndk1::allocator<char> >, int, int>, std::__ndk1::allocator<std::__ndk1::tuple<std::__ndk1::basic_string<char, std::__ndk1::char_traits<char>, std::__ndk1::allocator<char> >, int, int> > >, std::__ndk1::basic_string<char, std::__ndk1::char_traits<char>, std::__ndk1::allocator<char> > >*> >, std::__ndk1::monostate>::Handle>, std::__ndk1::vector<geode::Result<std::__ndk1::vector<std::__ndk1::tuple<std::__ndk1::basic_string<char, std::__ndk1::char_traits<char>, std::__ndk1::allocator<char> >, int, int>, std::__ndk1::allocator<std::__ndk1::tuple<std::__ndk1::basic_string<char, std::__ndk1::char_traits<char>, std::__ndk1::allocator<char> >, int, int> > >, std::__ndk1::basic_string<char, std::__ndk1::char_traits<char>, std::__ndk1::allocator<char> > >*, std::__ndk1::allocator<geode::Result<std::__ndk1::vector<std::__ndk1::tuple<std::__ndk1::basic_string<char, std::__ndk1::char_traits<char>, std::__ndk1::allocator<char> >, int, int>, std::__ndk1::allocator<std::__ndk1::tuple<std::__ndk1::basic_string<char, std::__ndk1::char_traits<char>, std::__ndk1::allocator<char> >, int, int> > >, std::__ndk1::basic_string<char, std::__ndk1::char_traits<char>, std::__ndk1::allocator<char> > >*> >&&)
PUBLIC a15a0 0 geode::Task<std::__ndk1::vector<geode::Result<std::__ndk1::vector<std::__ndk1::tuple<std::__ndk1::basic_string<char, std::__ndk1::char_traits<char>, std::__ndk1::allocator<char> >, int, int>, std::__ndk1::allocator<std::__ndk1::tuple<std::__ndk1::basic_string<char, std::__ndk1::char_traits<char>, std::__ndk1::allocator<char> >, int, int> > >, std::__ndk1::basic_string<char, std::__ndk1::char_traits<char>, std::__ndk1::allocator<char> > >*, std::__ndk1::allocator<geode::Result<std::__ndk1::vector<std::__ndk1::tuple<std::__ndk1::basic_string<char, std::__ndk1::char_traits<char>, std::__ndk1::allocator<char> >, int, int>, std::__ndk1::allocator<std::__ndk1::tuple<std::__ndk1::basic_string<char, std::__ndk1::char_traits<char>, std::__ndk1::allocator<char> >, int, int> > >, std::__ndk1::basic_string<char, std::__ndk1::char_traits<char>, std::__ndk1::allocator<char> > >*> >, std::__ndk1::monostate>::finish(std::__ndk1::shared_ptr<geode::Task<std::__ndk1::vector<geode::Result<std::__ndk1::vector<std::__ndk1::tuple<std::__ndk1::basic_string<char, std::__ndk1::char_traits<char>, std::__ndk1::allocator<char> >, int, int>, std::__ndk1::allocator<std::__ndk1::tuple<std::__ndk1::basic_string<char, std::__ndk1::char_traits<char>, std::__ndk1::allocator<char> >, int, int> > >, std::__ndk1::basic_string<char, std::__ndk1::char_traits<char>, std::__ndk1::allocator<char> > >*, std::__ndk1::allocator<geode::Result<std::__ndk1::vector<std::__ndk1::tuple<std::__ndk1::basic_string<char, std::__ndk1::char_traits<char>, std::__ndk1::allocator<char> >, int, int>, std::__ndk1::allocator<std::__ndk1::tuple<std::__ndk1::basic_string<char, std::__ndk1::char_traits<char>, std::__ndk1::allocator<char> >, int, int> > >, std::__ndk1::basic_string<char, std::__ndk1::char_traits<char>, std::__ndk1::allocator<char> > >*> >, std::__ndk1::monostate>::Handle>, std::__ndk1::vector<geode::Result<std::__ndk1::vector<std::__ndk1::tuple<std::__ndk1::basic_string<char, std::__ndk1::char_traits<char>, std::__ndk1::allocator<char> >, int, int>, std::__ndk1::allocator<std::__ndk1::tuple<std::__ndk1::basic_string<char, std::__ndk1::char_traits<char>, std::__ndk1::allocator<char> >, int, int> > >, std::__ndk1::basic_string<char, std::__ndk1::char_traits<char>, std::__ndk1::allocator<char> > >*, std::__ndk1::allocator<geode::Result<std::__ndk1::vector<std::__ndk1::tuple<std::__ndk1::basic_string<char, std::__ndk1::char_traits<char>, std::__ndk1::allocator<char> >, int, int>, std::__ndk1::allocator<std::__ndk1::tuple<std::__ndk1::basic_string<char, std::__ndk1::char_traits<char>, std::__ndk1::allocator<char> >, int, int> > >, std::__ndk1::basic_string<char, std::__ndk1::char_traits<char>, std::__ndk1::allocator<char> > >*> >&&)::{lambda()#1}::~{lambda()#1}()
PUBLIC a15f0 0 _ZNSt6__ndk110__function6__funcIZN5geode4TaskINS_6vectorIPNS2_6ResultINS4_INS_5tupleIJNS_12basic_stringIcNS_11char_traitsIcEENS_9allocatorIcEEEEiiEEENSA_ISD_EEEESC_EENSA_ISH_EEEENS_9monostateEE6finishENS_10shared_ptrINSL_6HandleEEEOSJ_EUlvE_NSA_ISQ_EEFvvEED2Ev
PUBLIC a164c 0 _ZNSt6__ndk110__function6__funcIZN5geode4TaskINS_6vectorIPNS2_6ResultINS4_INS_5tupleIJNS_12basic_stringIcNS_11char_traitsIcEENS_9allocatorIcEEEEiiEEENSA_ISD_EEEESC_EENSA_ISH_EEEENS_9monostateEE6finishENS_10shared_ptrINSL_6HandleEEEOSJ_EUlvE_NSA_ISQ_EEFvvEED0Ev
PUBLIC a16b8 0 _ZNKSt6__ndk110__function6__funcIZN5geode4TaskINS_6vectorIPNS2_6ResultINS4_INS_5tupleIJNS_12basic_stringIcNS_11char_traitsIcEENS_9allocatorIcEEEEiiEEENSA_ISD_EEEESC_EENSA_ISH_EEEENS_9monostateEE6finishENS_10shared_ptrINSL_6HandleEEEOSJ_EUlvE_NSA_ISQ_EEFvvEE7__cloneEv
PUBLIC a1710 0 _ZNKSt6__ndk110__function6__funcIZN5geode4TaskINS_6vectorIPNS2_6ResultINS4_INS_5tupleIJNS_12basic_stringIcNS_11char_traitsIcEENS_9allocatorIcEEEEiiEEENSA_ISD_EEEESC_EENSA_ISH_EEEENS_9monostateEE6finishENS_10shared_ptrINSL_6HandleEEEOSJ_EUlvE_NSA_ISQ_EEFvvEE7__cloneEPNS0_6__baseISS_EE
PUBLIC a175c 0 _ZNSt6__ndk110__function6__funcIZN5geode4TaskINS_6vectorIPNS2_6ResultINS4_INS_5tupleIJNS_12basic_stringIcNS_11char_traitsIcEENS_9allocatorIcEEEEiiEEENSA_ISD_EEEESC_EENSA_ISH_EEEENS_9monostateEE6finishENS_10shared_ptrINSL_6HandleEEEOSJ_EUlvE_NSA_ISQ_EEFvvEE7destroyEv
PUBLIC a17ac 0 _ZNSt6__ndk110__function6__funcIZN5geode4TaskINS_6vectorIPNS2_6ResultINS4_INS_5tupleIJNS_12basic_stringIcNS_11char_traitsIcEENS_9allocatorIcEEEEiiEEENSA_ISD_EEEESC_EENSA_ISH_EEEENS_9monostateEE6finishENS_10shared_ptrINSL_6HandleEEEOSJ_EUlvE_NSA_ISQ_EEFvvEE18destroy_deallocateEv
PUBLIC a180c 0 _ZNSt6__ndk110__function6__funcIZN5geode4TaskINS_6vectorIPNS2_6ResultINS4_INS_5tupleIJNS_12basic_stringIcNS_11char_traitsIcEENS_9allocatorIcEEEEiiEEENSA_ISD_EEEESC_EENSA_ISH_EEEENS_9monostateEE6finishENS_10shared_ptrINSL_6HandleEEEOSJ_EUlvE_NSA_ISQ_EEFvvEEclEv
PUBLIC a19d8 0 _ZNKSt6__ndk110__function6__funcIZN5geode4TaskINS_6vectorIPNS2_6ResultINS4_INS_5tupleIJNS_12basic_stringIcNS_11char_traitsIcEENS_9allocatorIcEEEEiiEEENSA_ISD_EEEESC_EENSA_ISH_EEEENS_9monostateEE6finishENS_10shared_ptrINSL_6HandleEEEOSJ_EUlvE_NSA_ISQ_EEFvvEE6targetERKSt9type_info
PUBLIC a19f4 0 _ZNKSt6__ndk110__function6__funcIZN5geode4TaskINS_6vectorIPNS2_6ResultINS4_INS_5tupleIJNS_12basic_stringIcNS_11char_traitsIcEENS_9allocatorIcEEEEiiEEENSA_ISD_EEEESC_EENSA_ISH_EEEENS_9monostateEE6finishENS_10shared_ptrINSL_6HandleEEEOSJ_EUlvE_NSA_ISQ_EEFvvEE11target_typeEv
PUBLIC a1a00 0 std::__ndk1::__shared_ptr_emplace<geode::Task<std::__ndk1::vector<geode::Result<std::__ndk1::vector<std::__ndk1::tuple<std::__ndk1::basic_string<char, std::__ndk1::char_traits<char>, std::__ndk1::allocator<char> >, int, int>, std::__ndk1::allocator<std::__ndk1::tuple<std::__ndk1::basic_string<char, std::__ndk1::char_traits<char>, std::__ndk1::allocator<char> >, int, int> > >, std::__ndk1::basic_string<char, std::__ndk1::char_traits<char>, std::__ndk1::allocator<char> > >*, std::__ndk1::allocator<geode::Result<std::__ndk1::vector<std::__ndk1::tuple<std::__ndk1::basic_string<char, std::__ndk1::char_traits<char>, std::__ndk1::allocator<char> >, int, int>, std::__ndk1::allocator<std::__ndk1::tuple<std::__ndk1::basic_string<char, std::__ndk1::char_traits<char>, std::__ndk1::allocator<char> >, int, int> > >, std::__ndk1::basic_string<char, std::__ndk1::char_traits<char>, std::__ndk1::allocator<char> > >*> >, std::__ndk1::monostate>::Handle, std::__ndk1::allocator<geode::Task<std::__ndk1::vector<geode::Result<std::__ndk1::vector<std::__ndk1::tuple<std::__ndk1::basic_string<char, std::__ndk1::char_traits<char>, std::__ndk1::allocator<char> >, int, int>, std::__ndk1::allocator<std::__ndk1::tuple<std::__ndk1::basic_string<char, std::__ndk1::char_traits<char>, std::__ndk1::allocator<char> >, int, int> > >, std::__ndk1::basic_string<char, std::__ndk1::char_traits<char>, std::__ndk1::allocator<char> > >*, std::__ndk1::allocator<geode::Result<std::__ndk1::vector<std::__ndk1::tuple<std::__ndk1::basic_string<char, std::__ndk1::char_traits<char>, std::__ndk1::allocator<char> >, int, int>, std::__ndk1::allocator<std::__ndk1::tuple<std::__ndk1::basic_string<char, std::__ndk1::char_traits<char>, std::__ndk1::allocator<char> >, int, int> > >, std::__ndk1::basic_string<char, std::__ndk1::char_traits<char>, std::__ndk1::allocator<char> > >*> >, std::__ndk1::monostate>::Handle> >::~__shared_ptr_emplace()
PUBLIC a1a10 0 std::__ndk1::__shared_ptr_emplace<geode::Task<std::__ndk1::vector<geode::Result<std::__ndk1::vector<std::__ndk1::tuple<std::__ndk1::basic_string<char, std::__ndk1::char_traits<char>, std::__ndk1::allocator<char> >, int, int>, std::__ndk1::allocator<std::__ndk1::tuple<std::__ndk1::basic_string<char, std::__ndk1::char_traits<char>, std::__ndk1::allocator<char> >, int, int> > >, std::__ndk1::basic_string<char, std::__ndk1::char_traits<char>, std::__ndk1::allocator<char> > >*, std::__ndk1::allocator<geode::Result<std::__ndk1::vector<std::__ndk1::tuple<std::__ndk1::basic_string<char, std::__ndk1::char_traits<char>, std::__ndk1::allocator<char> >, int, int>, std::__ndk1::allocator<std::__ndk1::tuple<std::__ndk1::basic_string<char, std::__ndk1::char_traits<char>, std::__ndk1::allocator<char> >, int, int> > >, std::__ndk1::basic_string<char, std::__ndk1::char_traits<char>, std::__ndk1::allocator<char> > >*> >, std::__ndk1::monostate>::Handle, std::__ndk1::allocator<geode::Task<std::__ndk1::vector<geode::Result<std::__ndk1::vector<std::__ndk1::tuple<std::__ndk1::basic_string<char, std::__ndk1::char_traits<char>, std::__ndk1::allocator<char> >, int, int>, std::__ndk1::allocator<std::__ndk1::tuple<std::__ndk1::basic_string<char, std::__ndk1::char_traits<char>, std::__ndk1::allocator<char> >, int, int> > >, std::__ndk1::basic_string<char, std::__ndk1::char_traits<char>, std::__ndk1::allocator<char> > >*, std::__ndk1::allocator<geode::Result<std::__ndk1::vector<std::__ndk1::tuple<std::__ndk1::basic_string<char, std::__ndk1::char_traits<char>, std::__ndk1::allocator<char> >, int, int>, std::__ndk1::allocator<std::__ndk1::tuple<std::__ndk1::basic_string<char, std::__ndk1::char_traits<char>, std::__ndk1::allocator<char> >, int, int> > >, std::__ndk1::basic_string<char, std::__ndk1::char_traits<char>, std::__ndk1::allocator<char> > >*> >, std::__ndk1::monostate>::Handle> >::~__shared_ptr_emplace()
PUBLIC a1a40 0 std::__ndk1::__shared_ptr_emplace<geode::Task<std::__ndk1::vector<geode::Result<std::__ndk1::vector<std::__ndk1::tuple<std::__ndk1::basic_string<char, std::__ndk1::char_traits<char>, std::__ndk1::allocator<char> >, int, int>, std::__ndk1::allocator<std::__ndk1::tuple<std::__ndk1::basic_string<char, std::__ndk1::char_traits<char>, std::__ndk1::allocator<char> >, int, int> > >, std::__ndk1::basic_string<char, std::__ndk1::char_traits<char>, std::__ndk1::allocator<char> > >*, std::__ndk1::allocator<geode::Result<std::__ndk1::vector<std::__ndk1::tuple<std::__ndk1::basic_string<char, std::__ndk1::char_traits<char>, std::__ndk1::allocator<char> >, int, int>, std::__ndk1::allocator<std::__ndk1::tuple<std::__ndk1::basic_string<char, std::__ndk1::char_traits<char>, std::__ndk1::allocator<char> >, int, int> > >, std::__ndk1::basic_string<char, std::__ndk1::char_traits<char>, std::__ndk1::allocator<char> > >*> >, std::__ndk1::monostate>::Handle, std::__ndk1::allocator<geode::Task<std::__ndk1::vector<geode::Result<std::__ndk1::vector<std::__ndk1::tuple<std::__ndk1::basic_string<char, std::__ndk1::char_traits<char>, std::__ndk1::allocator<char> >, int, int>, std::__ndk1::allocator<std::__ndk1::tuple<std::__ndk1::basic_string<char, std::__ndk1::char_traits<char>, std::__ndk1::allocator<char> >, int, int> > >, std::__ndk1::basic_string<char, std::__ndk1::char_traits<char>, std::__ndk1::allocator<char> > >*, std::__ndk1::allocator<geode::Result<std::__ndk1::vector<std::__ndk1::tuple<std::__ndk1::basic_string<char, std::__ndk1::char_traits<char>, std::__ndk1::allocator<char> >, int, int>, std::__ndk1::allocator<std::__ndk1::tuple<std::__ndk1::basic_string<char, std::__ndk1::char_traits<char>, std::__ndk1::allocator<char> >, int, int> > >, std::__ndk1::basic_string<char, std::__ndk1::char_traits<char>, std::__ndk1::allocator<char> > >*> >, std::__ndk1::monostate>::Handle> >::__on_zero_shared()
PUBLIC a1af4 0 std::__ndk1::__shared_ptr_emplace<geode::Task<std::__ndk1::vector<geode::Result<std::__ndk1::vector<std::__ndk1::tuple<std::__ndk1::basic_string<char, std::__ndk1::char_traits<char>, std::__ndk1::allocator<char> >, int, int>, std::__ndk1::allocator<std::__ndk1::tuple<std::__ndk1::basic_string<char, std::__ndk1::char_traits<char>, std::__ndk1::allocator<char> >, int, int> > >, std::__ndk1::basic_string<char, std::__ndk1::char_traits<char>, std::__ndk1::allocator<char> > >*, std::__ndk1::allocator<geode::Result<std::__ndk1::vector<std::__ndk1::tuple<std::__ndk1::basic_string<char, std::__ndk1::char_traits<char>, std::__ndk1::allocator<char> >, int, int>, std::__ndk1::allocator<std::__ndk1::tuple<std::__ndk1::basic_string<char, std::__ndk1::char_traits<char>, std::__ndk1::allocator<char> >, int, int> > >, std::__ndk1::basic_string<char, std::__ndk1::char_traits<char>, std::__ndk1::allocator<char> > >*> >, std::__ndk1::monostate>::Handle, std::__ndk1::allocator<geode::Task<std::__ndk1::vector<geode::Result<std::__ndk1::vector<std::__ndk1::tuple<std::__ndk1::basic_string<char, std::__ndk1::char_traits<char>, std::__ndk1::allocator<char> >, int, int>, std::__ndk1::allocator<std::__ndk1::tuple<std::__ndk1::basic_string<char, std::__ndk1::char_traits<char>, std::__ndk1::allocator<char> >, int, int> > >, std::__ndk1::basic_string<char, std::__ndk1::char_traits<char>, std::__ndk1::allocator<char> > >*, std::__ndk1::allocator<geode::Result<std::__ndk1::vector<std::__ndk1::tuple<std::__ndk1::basic_string<char, std::__ndk1::char_traits<char>, std::__ndk1::allocator<char> >, int, int>, std::__ndk1::allocator<std::__ndk1::tuple<std::__ndk1::basic_string<char, std::__ndk1::char_traits<char>, std::__ndk1::allocator<char> >, int, int> > >, std::__ndk1::basic_string<char, std::__ndk1::char_traits<char>, std::__ndk1::allocator<char> > >*> >, std::__ndk1::monostate>::Handle> >::__on_zero_shared_weak()
PUBLIC a1af8 0 _ZZN5geode4TaskINS_6ResultINSt6__ndk16vectorINS2_5tupleIJNS2_12basic_stringIcNS2_11char_traitsIcEENS2_9allocatorIcEEEEiiEEENS8_ISB_EEEESA_EENS2_9monostateEE3allITkNS2_18move_constructibleESF_EENS0_INS3_IPSE_NS8_ISI_EEEESF_EEONS3_INS0_ISE_T_EENS8_ISN_EEEENS2_17basic_string_viewIcS7_EEENUlPvE_8__invokeEST_
PUBLIC a1ba0 0 _ZZN5geode4TaskINS_6ResultINSt6__ndk16vectorINS2_5tupleIJNS2_12basic_stringIcNS2_11char_traitsIcEENS2_9allocatorIcEEEEiiEEENS8_ISB_EEEESA_EENS2_9monostateEE3allITkNS2_18move_constructibleESF_EENS0_INS3_IPSE_NS8_ISI_EEEESF_EEONS3_INS0_ISE_T_EENS8_ISN_EEEENS2_17basic_string_viewIcS7_EEENUlPvE0_8__invokeEST_
PUBLIC a1ce4 0 geode::Task<std::__ndk1::monostate, std::__ndk1::monostate>::cancel(std::__ndk1::shared_ptr<geode::Task<std::__ndk1::monostate, std::__ndk1::monostate>::Handle>, bool)
PUBLIC a1e54 0 std::__ndk1::shared_ptr<geode::Task<std::__ndk1::monostate, std::__ndk1::monostate>::Handle>::~shared_ptr[abi:ne180000]()
PUBLIC a1ea4 0 geode::Task<std::__ndk1::monostate, std::__ndk1::monostate>::cancel(std::__ndk1::shared_ptr<geode::Task<std::__ndk1::monostate, std::__ndk1::monostate>::Handle>, bool)::{lambda()#1}::~{lambda()#1}()
PUBLIC a1ef4 0 std::__ndk1::__function::__func<geode::Task<std::__ndk1::monostate, std::__ndk1::monostate>::cancel(std::__ndk1::shared_ptr<geode::Task<std::__ndk1::monostate, std::__ndk1::monostate>::Handle>, bool)::{lambda()#1}, std::__ndk1::allocator<geode::Task<std::__ndk1::monostate, std::__ndk1::monostate>::cancel(std::__ndk1::shared_ptr<geode::Task<std::__ndk1::monostate, std::__ndk1::monostate>::Handle>, bool)::{lambda()#1}>, void ()>::~__func()
PUBLIC a1f50 0 std::__ndk1::__function::__func<geode::Task<std::__ndk1::monostate, std::__ndk1::monostate>::cancel(std::__ndk1::shared_ptr<geode::Task<std::__ndk1::monostate, std::__ndk1::monostate>::Handle>, bool)::{lambda()#1}, std::__ndk1::allocator<geode::Task<std::__ndk1::monostate, std::__ndk1::monostate>::cancel(std::__ndk1::shared_ptr<geode::Task<std::__ndk1::monostate, std::__ndk1::monostate>::Handle>, bool)::{lambda()#1}>, void ()>::~__func()
PUBLIC a1fbc 0 std::__ndk1::__function::__func<geode::Task<std::__ndk1::monostate, std::__ndk1::monostate>::cancel(std::__ndk1::shared_ptr<geode::Task<std::__ndk1::monostate, std::__ndk1::monostate>::Handle>, bool)::{lambda()#1}, std::__ndk1::allocator<geode::Task<std::__ndk1::monostate, std::__ndk1::monostate>::cancel(std::__ndk1::shared_ptr<geode::Task<std::__ndk1::monostate, std::__ndk1::monostate>::Handle>, bool)::{lambda()#1}>, void ()>::__clone() const
PUBLIC a200c 0 std::__ndk1::__function::__func<geode::Task<std::__ndk1::monostate, std::__ndk1::monostate>::cancel(std::__ndk1::shared_ptr<geode::Task<std::__ndk1::monostate, std::__ndk1::monostate>::Handle>, bool)::{lambda()#1}, std::__ndk1::allocator<geode::Task<std::__ndk1::monostate, std::__ndk1::monostate>::cancel(std::__ndk1::shared_ptr<geode::Task<std::__ndk1::monostate, std::__ndk1::monostate>::Handle>, bool)::{lambda()#1}>, void ()>::__clone(std::__ndk1::__function::__base<void ()>*) const
PUBLIC a2040 0 std::__ndk1::__function::__func<geode::Task<std::__ndk1::monostate, std::__ndk1::monostate>::cancel(std::__ndk1::shared_ptr<geode::Task<std::__ndk1::monostate, std::__ndk1::monostate>::Handle>, bool)::{lambda()#1}, std::__ndk1::allocator<geode::Task<std::__ndk1::monostate, std::__ndk1::monostate>::cancel(std::__ndk1::shared_ptr<geode::Task<std::__ndk1::monostate, std::__ndk1::monostate>::Handle>, bool)::{lambda()#1}>, void ()>::destroy()
PUBLIC a2090 0 std::__ndk1::__function::__func<geode::Task<std::__ndk1::monostate, std::__ndk1::monostate>::cancel(std::__ndk1::shared_ptr<geode::Task<std::__ndk1::monostate, std::__ndk1::monostate>::Handle>, bool)::{lambda()#1}, std::__ndk1::allocator<geode::Task<std::__ndk1::monostate, std::__ndk1::monostate>::cancel(std::__ndk1::shared_ptr<geode::Task<std::__ndk1::monostate, std::__ndk1::monostate>::Handle>, bool)::{lambda()#1}>, void ()>::destroy_deallocate()
PUBLIC a20f0 0 std::__ndk1::__function::__func<geode::Task<std::__ndk1::monostate, std::__ndk1::monostate>::cancel(std::__ndk1::shared_ptr<geode::Task<std::__ndk1::monostate, std::__ndk1::monostate>::Handle>, bool)::{lambda()#1}, std::__ndk1::allocator<geode::Task<std::__ndk1::monostate, std::__ndk1::monostate>::cancel(std::__ndk1::shared_ptr<geode::Task<std::__ndk1::monostate, std::__ndk1::monostate>::Handle>, bool)::{lambda()#1}>, void ()>::operator()()
PUBLIC a20f8 0 std::__ndk1::__function::__func<geode::Task<std::__ndk1::monostate, std::__ndk1::monostate>::cancel(std::__ndk1::shared_ptr<geode::Task<std::__ndk1::monostate, std::__ndk1::monostate>::Handle>, bool)::{lambda()#1}, std::__ndk1::allocator<geode::Task<std::__ndk1::monostate, std::__ndk1::monostate>::cancel(std::__ndk1::shared_ptr<geode::Task<std::__ndk1::monostate, std::__ndk1::monostate>::Handle>, bool)::{lambda()#1}>, void ()>::target(std::type_info const&) const
PUBLIC a2114 0 std::__ndk1::__function::__func<geode::Task<std::__ndk1::monostate, std::__ndk1::monostate>::cancel(std::__ndk1::shared_ptr<geode::Task<std::__ndk1::monostate, std::__ndk1::monostate>::Handle>, bool)::{lambda()#1}, std::__ndk1::allocator<geode::Task<std::__ndk1::monostate, std::__ndk1::monostate>::cancel(std::__ndk1::shared_ptr<geode::Task<std::__ndk1::monostate, std::__ndk1::monostate>::Handle>, bool)::{lambda()#1}>, void ()>::target_type() const
PUBLIC a2120 0 geode::Task<std::__ndk1::monostate, std::__ndk1::monostate>::cancel(std::__ndk1::shared_ptr<geode::Task<std::__ndk1::monostate, std::__ndk1::monostate>::Handle>, bool)::{lambda()#1}::operator()()
PUBLIC a22e4 0 geode::Task<std::__ndk1::monostate, std::__ndk1::monostate>::Event::~Event()
PUBLIC a2344 0 geode::Task<std::__ndk1::monostate, std::__ndk1::monostate>::Event::~Event()
PUBLIC a23b4 0 std::__ndk1::vector<geode::Task<std::__ndk1::monostate, std::__ndk1::monostate>, std::__ndk1::allocator<geode::Task<std::__ndk1::monostate, std::__ndk1::monostate> > >::__emplace_back_slow_path<geode::Task<std::__ndk1::monostate, std::__ndk1::monostate> >(geode::Task<std::__ndk1::monostate, std::__ndk1::monostate>&&)
PUBLIC a2530 0 std::__ndk1::vector<geode::Task<std::__ndk1::monostate, std::__ndk1::monostate>, std::__ndk1::allocator<geode::Task<std::__ndk1::monostate, std::__ndk1::monostate> > >::__throw_length_error[abi:ne180000]() const
PUBLIC a2544 0 geode::Task<std::__ndk1::monostate, std::__ndk1::monostate>::Handle::create(std::__ndk1::basic_string_view<char, std::__ndk1::char_traits<char> >)
PUBLIC a2658 0 geode::Task<std::__ndk1::monostate, std::__ndk1::monostate>::finish(std::__ndk1::shared_ptr<geode::Task<std::__ndk1::monostate, std::__ndk1::monostate>::Handle>, std::__ndk1::monostate&&)
PUBLIC a27b0 0 _ZZNK5geode4TaskINS_6ResultINSt6__ndk16vectorINS2_5tupleIJNS2_12basic_stringIcNS2_11char_traitsIcEENS2_9allocatorIcEEEEiiEEENS8_ISB_EEEESA_EENS2_9monostateEE3mapIZNSG_3allITkNS2_18move_constructibleESF_EENS0_INS3_IPSE_NS8_ISJ_EEEESF_EEONS3_INS0_ISE_T_EENS8_ISO_EEEENS2_17basic_string_viewIcS7_EEEUlPSN_E_ZNSI_ITkNS2_18move_constructibleESF_EESM_SR_ST_EUlSU_E0_ZNSI_ITkNS2_18move_constructibleESF_EESM_SR_ST_EUlvE_EEDaOSN_OT0_OT1_ST_ENUlPNSG_5EventEE_D2Ev
PUBLIC a27f8 0 std::__ndk1::__shared_ptr_emplace<geode::Task<std::__ndk1::monostate, std::__ndk1::monostate>::Handle, std::__ndk1::allocator<geode::Task<std::__ndk1::monostate, std::__ndk1::monostate>::Handle> >::~__shared_ptr_emplace()
PUBLIC a2808 0 std::__ndk1::__shared_ptr_emplace<geode::Task<std::__ndk1::monostate, std::__ndk1::monostate>::Handle, std::__ndk1::allocator<geode::Task<std::__ndk1::monostate, std::__ndk1::monostate>::Handle> >::~__shared_ptr_emplace()
PUBLIC a2838 0 std::__ndk1::__shared_ptr_emplace<geode::Task<std::__ndk1::monostate, std::__ndk1::monostate>::Handle, std::__ndk1::allocator<geode::Task<std::__ndk1::monostate, std::__ndk1::monostate>::Handle> >::__on_zero_shared()
PUBLIC a2840 0 std::__ndk1::__shared_ptr_emplace<geode::Task<std::__ndk1::monostate, std::__ndk1::monostate>::Handle, std::__ndk1::allocator<geode::Task<std::__ndk1::monostate, std::__ndk1::monostate>::Handle> >::__on_zero_shared_weak()
PUBLIC a2844 0 geode::Task<std::__ndk1::monostate, std::__ndk1::monostate>::Handle::~Handle()
PUBLIC a28dc 0 _ZZN5geode4TaskINS_6ResultINSt6__ndk16vectorINS2_5tupleIJNS2_12basic_stringIcNS2_11char_traitsIcEENS2_9allocatorIcEEEEiiEEENS8_ISB_EEEESA_EENS2_9monostateEE3allITkNS2_18move_constructibleESF_EENS0_INS3_IPSE_NS8_ISI_EEEESF_EEONS3_INS0_ISE_T_EENS8_ISN_EEEENS2_17basic_string_viewIcS7_EEENKUlmSI_E_clEmSI_
PUBLIC a2a50 0 geode::Task<std::__ndk1::monostate, std::__ndk1::monostate>::finish(std::__ndk1::shared_ptr<geode::Task<std::__ndk1::monostate, std::__ndk1::monostate>::Handle>, std::__ndk1::monostate&&)::{lambda()#1}::~{lambda()#1}()
PUBLIC a2aa0 0 std::__ndk1::__function::__func<geode::Task<std::__ndk1::monostate, std::__ndk1::monostate>::finish(std::__ndk1::shared_ptr<geode::Task<std::__ndk1::monostate, std::__ndk1::monostate>::Handle>, std::__ndk1::monostate&&)::{lambda()#1}, std::__ndk1::allocator<geode::Task<std::__ndk1::monostate, std::__ndk1::monostate>::finish(std::__ndk1::shared_ptr<geode::Task<std::__ndk1::monostate, std::__ndk1::monostate>::Handle>, std::__ndk1::monostate&&)::{lambda()#1}>, void ()>::~__func()
PUBLIC a2afc 0 std::__ndk1::__function::__func<geode::Task<std::__ndk1::monostate, std::__ndk1::monostate>::finish(std::__ndk1::shared_ptr<geode::Task<std::__ndk1::monostate, std::__ndk1::monostate>::Handle>, std::__ndk1::monostate&&)::{lambda()#1}, std::__ndk1::allocator<geode::Task<std::__ndk1::monostate, std::__ndk1::monostate>::finish(std::__ndk1::shared_ptr<geode::Task<std::__ndk1::monostate, std::__ndk1::monostate>::Handle>, std::__ndk1::monostate&&)::{lambda()#1}>, void ()>::~__func()
PUBLIC a2b68 0 std::__ndk1::__function::__func<geode::Task<std::__ndk1::monostate, std::__ndk1::monostate>::finish(std::__ndk1::shared_ptr<geode::Task<std::__ndk1::monostate, std::__ndk1::monostate>::Handle>, std::__ndk1::monostate&&)::{lambda()#1}, std::__ndk1::allocator<geode::Task<std::__ndk1::monostate, std::__ndk1::monostate>::finish(std::__ndk1::shared_ptr<geode::Task<std::__ndk1::monostate, std::__ndk1::monostate>::Handle>, std::__ndk1::monostate&&)::{lambda()#1}>, void ()>::__clone() const
PUBLIC a2bc0 0 std::__ndk1::__function::__func<geode::Task<std::__ndk1::monostate, std::__ndk1::monostate>::finish(std::__ndk1::shared_ptr<geode::Task<std::__ndk1::monostate, std::__ndk1::monostate>::Handle>, std::__ndk1::monostate&&)::{lambda()#1}, std::__ndk1::allocator<geode::Task<std::__ndk1::monostate, std::__ndk1::monostate>::finish(std::__ndk1::shared_ptr<geode::Task<std::__ndk1::monostate, std::__ndk1::monostate>::Handle>, std::__ndk1::monostate&&)::{lambda()#1}>, void ()>::__clone(std::__ndk1::__function::__base<void ()>*) const
PUBLIC a2c0c 0 std::__ndk1::__function::__func<geode::Task<std::__ndk1::monostate, std::__ndk1::monostate>::finish(std::__ndk1::shared_ptr<geode::Task<std::__ndk1::monostate, std::__ndk1::monostate>::Handle>, std::__ndk1::monostate&&)::{lambda()#1}, std::__ndk1::allocator<geode::Task<std::__ndk1::monostate, std::__ndk1::monostate>::finish(std::__ndk1::shared_ptr<geode::Task<std::__ndk1::monostate, std::__ndk1::monostate>::Handle>, std::__ndk1::monostate&&)::{lambda()#1}>, void ()>::destroy()
PUBLIC a2c5c 0 std::__ndk1::__function::__func<geode::Task<std::__ndk1::monostate, std::__ndk1::monostate>::finish(std::__ndk1::shared_ptr<geode::Task<std::__ndk1::monostate, std::__ndk1::monostate>::Handle>, std::__ndk1::monostate&&)::{lambda()#1}, std::__ndk1::allocator<geode::Task<std::__ndk1::monostate, std::__ndk1::monostate>::finish(std::__ndk1::shared_ptr<geode::Task<std::__ndk1::monostate, std::__ndk1::monostate>::Handle>, std::__ndk1::monostate&&)::{lambda()#1}>, void ()>::destroy_deallocate()
PUBLIC a2cbc 0 std::__ndk1::__function::__func<geode::Task<std::__ndk1::monostate, std::__ndk1::monostate>::finish(std::__ndk1::shared_ptr<geode::Task<std::__ndk1::monostate, std::__ndk1::monostate>::Handle>, std::__ndk1::monostate&&)::{lambda()#1}, std::__ndk1::allocator<geode::Task<std::__ndk1::monostate, std::__ndk1::monostate>::finish(std::__ndk1::shared_ptr<geode::Task<std::__ndk1::monostate, std::__ndk1::monostate>::Handle>, std::__ndk1::monostate&&)::{lambda()#1}>, void ()>::operator()()
PUBLIC a2cc4 0 std::__ndk1::__function::__func<geode::Task<std::__ndk1::monostate, std::__ndk1::monostate>::finish(std::__ndk1::shared_ptr<geode::Task<std::__ndk1::monostate, std::__ndk1::monostate>::Handle>, std::__ndk1::monostate&&)::{lambda()#1}, std::__ndk1::allocator<geode::Task<std::__ndk1::monostate, std::__ndk1::monostate>::finish(std::__ndk1::shared_ptr<geode::Task<std::__ndk1::monostate, std::__ndk1::monostate>::Handle>, std::__ndk1::monostate&&)::{lambda()#1}>, void ()>::target(std::type_info const&) const
PUBLIC a2ce0 0 std::__ndk1::__function::__func<geode::Task<std::__ndk1::monostate, std::__ndk1::monostate>::finish(std::__ndk1::shared_ptr<geode::Task<std::__ndk1::monostate, std::__ndk1::monostate>::Handle>, std::__ndk1::monostate&&)::{lambda()#1}, std::__ndk1::allocator<geode::Task<std::__ndk1::monostate, std::__ndk1::monostate>::finish(std::__ndk1::shared_ptr<geode::Task<std::__ndk1::monostate, std::__ndk1::monostate>::Handle>, std::__ndk1::monostate&&)::{lambda()#1}>, void ()>::target_type() const
PUBLIC a2cec 0 geode::Task<std::__ndk1::monostate, std::__ndk1::monostate>::finish(std::__ndk1::shared_ptr<geode::Task<std::__ndk1::monostate, std::__ndk1::monostate>::Handle>, std::__ndk1::monostate&&)::{lambda()#1}::operator()()
PUBLIC a2ec0 0 _ZNSt6__ndk110__function6__funcIZNK5geode4TaskINS2_6ResultINS_6vectorINS_5tupleIJNS_12basic_stringIcNS_11char_traitsIcEENS_9allocatorIcEEEEiiEEENSA_ISD_EEEESC_EENS_9monostateEE3mapIZNSI_3allITkNS_18move_constructibleESH_EENS3_INS5_IPSG_NSA_ISL_EEEESH_EEONS5_INS3_ISG_T_EENSA_ISQ_EEEENS_17basic_string_viewIcS9_EEEUlPSP_E_ZNSK_ITkNS_18move_constructibleESH_EESO_ST_SV_EUlSW_E0_ZNSK_ITkNS_18move_constructibleESH_EESO_ST_SV_EUlvE_EEDaOSP_OT0_OT1_SV_EUlPNSI_5EventEE_NSA_IS17_EEFvS16_EED2Ev
PUBLIC a2f14 0 _ZNSt6__ndk110__function6__funcIZNK5geode4TaskINS2_6ResultINS_6vectorINS_5tupleIJNS_12basic_stringIcNS_11char_traitsIcEENS_9allocatorIcEEEEiiEEENSA_ISD_EEEESC_EENS_9monostateEE3mapIZNSI_3allITkNS_18move_constructibleESH_EENS3_INS5_IPSG_NSA_ISL_EEEESH_EEONS5_INS3_ISG_T_EENSA_ISQ_EEEENS_17basic_string_viewIcS9_EEEUlPSP_E_ZNSK_ITkNS_18move_constructibleESH_EESO_ST_SV_EUlSW_E0_ZNSK_ITkNS_18move_constructibleESH_EESO_ST_SV_EUlvE_EEDaOSP_OT0_OT1_SV_EUlPNSI_5EventEE_NSA_IS17_EEFvS16_EED0Ev
PUBLIC a2f64 0 _ZNKSt6__ndk110__function6__funcIZNK5geode4TaskINS2_6ResultINS_6vectorINS_5tupleIJNS_12basic_stringIcNS_11char_traitsIcEENS_9allocatorIcEEEEiiEEENSA_ISD_EEEESC_EENS_9monostateEE3mapIZNSI_3allITkNS_18move_constructibleESH_EENS3_INS5_IPSG_NSA_ISL_EEEESH_EEONS5_INS3_ISG_T_EENSA_ISQ_EEEENS_17basic_string_viewIcS9_EEEUlPSP_E_ZNSK_ITkNS_18move_constructibleESH_EESO_ST_SV_EUlSW_E0_ZNSK_ITkNS_18move_constructibleESH_EESO_ST_SV_EUlvE_EEDaOSP_OT0_OT1_SV_EUlPNSI_5EventEE_NSA_IS17_EEFvS16_EE7__cloneEv
PUBLIC a2ff4 0 _ZNKSt6__ndk110__function6__funcIZNK5geode4TaskINS2_6ResultINS_6vectorINS_5tupleIJNS_12basic_stringIcNS_11char_traitsIcEENS_9allocatorIcEEEEiiEEENSA_ISD_EEEESC_EENS_9monostateEE3mapIZNSI_3allITkNS_18move_constructibleESH_EENS3_INS5_IPSG_NSA_ISL_EEEESH_EEONS5_INS3_ISG_T_EENSA_ISQ_EEEENS_17basic_string_viewIcS9_EEEUlPSP_E_ZNSK_ITkNS_18move_constructibleESH_EESO_ST_SV_EUlSW_E0_ZNSK_ITkNS_18move_constructibleESH_EESO_ST_SV_EUlvE_EEDaOSP_OT0_OT1_SV_EUlPNSI_5EventEE_NSA_IS17_EEFvS16_EE7__cloneEPNS0_6__baseIS19_EE
PUBLIC a3078 0 _ZNSt6__ndk110__function6__funcIZNK5geode4TaskINS2_6ResultINS_6vectorINS_5tupleIJNS_12basic_stringIcNS_11char_traitsIcEENS_9allocatorIcEEEEiiEEENSA_ISD_EEEESC_EENS_9monostateEE3mapIZNSI_3allITkNS_18move_constructibleESH_EENS3_INS5_IPSG_NSA_ISL_EEEESH_EEONS5_INS3_ISG_T_EENSA_ISQ_EEEENS_17basic_string_viewIcS9_EEEUlPSP_E_ZNSK_ITkNS_18move_constructibleESH_EESO_ST_SV_EUlSW_E0_ZNSK_ITkNS_18move_constructibleESH_EESO_ST_SV_EUlvE_EEDaOSP_OT0_OT1_SV_EUlPNSI_5EventEE_NSA_IS17_EEFvS16_EE7destroyEv
PUBLIC a30c0 0 _ZNSt6__ndk110__function6__funcIZNK5geode4TaskINS2_6ResultINS_6vectorINS_5tupleIJNS_12basic_stringIcNS_11char_traitsIcEENS_9allocatorIcEEEEiiEEENSA_ISD_EEEESC_EENS_9monostateEE3mapIZNSI_3allITkNS_18move_constructibleESH_EENS3_INS5_IPSG_NSA_ISL_EEEESH_EEONS5_INS3_ISG_T_EENSA_ISQ_EEEENS_17basic_string_viewIcS9_EEEUlPSP_E_ZNSK_ITkNS_18move_constructibleESH_EESO_ST_SV_EUlSW_E0_ZNSK_ITkNS_18move_constructibleESH_EESO_ST_SV_EUlvE_EEDaOSP_OT0_OT1_SV_EUlPNSI_5EventEE_NSA_IS17_EEFvS16_EE18destroy_deallocateEv
PUBLIC a3104 0 _ZNSt6__ndk110__function6__funcIZNK5geode4TaskINS2_6ResultINS_6vectorINS_5tupleIJNS_12basic_stringIcNS_11char_traitsIcEENS_9allocatorIcEEEEiiEEENSA_ISD_EEEESC_EENS_9monostateEE3mapIZNSI_3allITkNS_18move_constructibleESH_EENS3_INS5_IPSG_NSA_ISL_EEEESH_EEONS5_INS3_ISG_T_EENSA_ISQ_EEEENS_17basic_string_viewIcS9_EEEUlPSP_E_ZNSK_ITkNS_18move_constructibleESH_EESO_ST_SV_EUlSW_E0_ZNSK_ITkNS_18move_constructibleESH_EESO_ST_SV_EUlvE_EEDaOSP_OT0_OT1_SV_EUlPNSI_5EventEE_NSA_IS17_EEFvS16_EEclEOS16_
PUBLIC a3280 0 _ZNKSt6__ndk110__function6__funcIZNK5geode4TaskINS2_6ResultINS_6vectorINS_5tupleIJNS_12basic_stringIcNS_11char_traitsIcEENS_9allocatorIcEEEEiiEEENSA_ISD_EEEESC_EENS_9monostateEE3mapIZNSI_3allITkNS_18move_constructibleESH_EENS3_INS5_IPSG_NSA_ISL_EEEESH_EEONS5_INS3_ISG_T_EENSA_ISQ_EEEENS_17basic_string_viewIcS9_EEEUlPSP_E_ZNSK_ITkNS_18move_constructibleESH_EESO_ST_SV_EUlSW_E0_ZNSK_ITkNS_18move_constructibleESH_EESO_ST_SV_EUlvE_EEDaOSP_OT0_OT1_SV_EUlPNSI_5EventEE_NSA_IS17_EEFvS16_EE6targetERKSt9type_info
PUBLIC a329c 0 _ZNKSt6__ndk110__function6__funcIZNK5geode4TaskINS2_6ResultINS_6vectorINS_5tupleIJNS_12basic_stringIcNS_11char_traitsIcEENS_9allocatorIcEEEEiiEEENSA_ISD_EEEESC_EENS_9monostateEE3mapIZNSI_3allITkNS_18move_constructibleESH_EENS3_INS5_IPSG_NSA_ISL_EEEESH_EEONS5_INS3_ISG_T_EENSA_ISQ_EEEENS_17basic_string_viewIcS9_EEEUlPSP_E_ZNSK_ITkNS_18move_constructibleESH_EESO_ST_SV_EUlSW_E0_ZNSK_ITkNS_18move_constructibleESH_EESO_ST_SV_EUlvE_EEDaOSP_OT0_OT1_SV_EUlPNSI_5EventEE_NSA_IS17_EEFvS16_EE11target_typeEv
PUBLIC a32a8 0 geode::Task<std::__ndk1::monostate, std::__ndk1::monostate>::progress(std::__ndk1::shared_ptr<geode::Task<std::__ndk1::monostate, std::__ndk1::monostate>::Handle>, std::__ndk1::monostate&&)
PUBLIC a33e8 0 geode::Task<std::__ndk1::monostate, std::__ndk1::monostate>::progress(std::__ndk1::shared_ptr<geode::Task<std::__ndk1::monostate, std::__ndk1::monostate>::Handle>, std::__ndk1::monostate&&)::{lambda()#1}::~{lambda()#1}()
PUBLIC a3438 0 std::__ndk1::__function::__func<geode::Task<std::__ndk1::monostate, std::__ndk1::monostate>::progress(std::__ndk1::shared_ptr<geode::Task<std::__ndk1::monostate, std::__ndk1::monostate>::Handle>, std::__ndk1::monostate&&)::{lambda()#1}, std::__ndk1::allocator<geode::Task<std::__ndk1::monostate, std::__ndk1::monostate>::progress(std::__ndk1::shared_ptr<geode::Task<std::__ndk1::monostate, std::__ndk1::monostate>::Handle>, std::__ndk1::monostate&&)::{lambda()#1}>, void ()>::~__func()
PUBLIC a3494 0 std::__ndk1::__function::__func<geode::Task<std::__ndk1::monostate, std::__ndk1::monostate>::progress(std::__ndk1::shared_ptr<geode::Task<std::__ndk1::monostate, std::__ndk1::monostate>::Handle>, std::__ndk1::monostate&&)::{lambda()#1}, std::__ndk1::allocator<geode::Task<std::__ndk1::monostate, std::__ndk1::monostate>::progress(std::__ndk1::shared_ptr<geode::Task<std::__ndk1::monostate, std::__ndk1::monostate>::Handle>, std::__ndk1::monostate&&)::{lambda()#1}>, void ()>::~__func()
PUBLIC a3500 0 std::__ndk1::__function::__func<geode::Task<std::__ndk1::monostate, std::__ndk1::monostate>::progress(std::__ndk1::shared_ptr<geode::Task<std::__ndk1::monostate, std::__ndk1::monostate>::Handle>, std::__ndk1::monostate&&)::{lambda()#1}, std::__ndk1::allocator<geode::Task<std::__ndk1::monostate, std::__ndk1::monostate>::progress(std::__ndk1::shared_ptr<geode::Task<std::__ndk1::monostate, std::__ndk1::monostate>::Handle>, std::__ndk1::monostate&&)::{lambda()#1}>, void ()>::__clone() const
PUBLIC a3550 0 std::__ndk1::__function::__func<geode::Task<std::__ndk1::monostate, std::__ndk1::monostate>::progress(std::__ndk1::shared_ptr<geode::Task<std::__ndk1::monostate, std::__ndk1::monostate>::Handle>, std::__ndk1::monostate&&)::{lambda()#1}, std::__ndk1::allocator<geode::Task<std::__ndk1::monostate, std::__ndk1::monostate>::progress(std::__ndk1::shared_ptr<geode::Task<std::__ndk1::monostate, std::__ndk1::monostate>::Handle>, std::__ndk1::monostate&&)::{lambda()#1}>, void ()>::__clone(std::__ndk1::__function::__base<void ()>*) const
PUBLIC a3584 0 std::__ndk1::__function::__func<geode::Task<std::__ndk1::monostate, std::__ndk1::monostate>::progress(std::__ndk1::shared_ptr<geode::Task<std::__ndk1::monostate, std::__ndk1::monostate>::Handle>, std::__ndk1::monostate&&)::{lambda()#1}, std::__ndk1::allocator<geode::Task<std::__ndk1::monostate, std::__ndk1::monostate>::progress(std::__ndk1::shared_ptr<geode::Task<std::__ndk1::monostate, std::__ndk1::monostate>::Handle>, std::__ndk1::monostate&&)::{lambda()#1}>, void ()>::destroy()
PUBLIC a35d4 0 std::__ndk1::__function::__func<geode::Task<std::__ndk1::monostate, std::__ndk1::monostate>::progress(std::__ndk1::shared_ptr<geode::Task<std::__ndk1::monostate, std::__ndk1::monostate>::Handle>, std::__ndk1::monostate&&)::{lambda()#1}, std::__ndk1::allocator<geode::Task<std::__ndk1::monostate, std::__ndk1::monostate>::progress(std::__ndk1::shared_ptr<geode::Task<std::__ndk1::monostate, std::__ndk1::monostate>::Handle>, std::__ndk1::monostate&&)::{lambda()#1}>, void ()>::destroy_deallocate()
PUBLIC a3634 0 std::__ndk1::__function::__func<geode::Task<std::__ndk1::monostate, std::__ndk1::monostate>::progress(std::__ndk1::shared_ptr<geode::Task<std::__ndk1::monostate, std::__ndk1::monostate>::Handle>, std::__ndk1::monostate&&)::{lambda()#1}, std::__ndk1::allocator<geode::Task<std::__ndk1::monostate, std::__ndk1::monostate>::progress(std::__ndk1::shared_ptr<geode::Task<std::__ndk1::monostate, std::__ndk1::monostate>::Handle>, std::__ndk1::monostate&&)::{lambda()#1}>, void ()>::operator()()
PUBLIC a363c 0 std::__ndk1::__function::__func<geode::Task<std::__ndk1::monostate, std::__ndk1::monostate>::progress(std::__ndk1::shared_ptr<geode::Task<std::__ndk1::monostate, std::__ndk1::monostate>::Handle>, std::__ndk1::monostate&&)::{lambda()#1}, std::__ndk1::allocator<geode::Task<std::__ndk1::monostate, std::__ndk1::monostate>::progress(std::__ndk1::shared_ptr<geode::Task<std::__ndk1::monostate, std::__ndk1::monostate>::Handle>, std::__ndk1::monostate&&)::{lambda()#1}>, void ()>::target(std::type_info const&) const
PUBLIC a3658 0 std::__ndk1::__function::__func<geode::Task<std::__ndk1::monostate, std::__ndk1::monostate>::progress(std::__ndk1::shared_ptr<geode::Task<std::__ndk1::monostate, std::__ndk1::monostate>::Handle>, std::__ndk1::monostate&&)::{lambda()#1}, std::__ndk1::allocator<geode::Task<std::__ndk1::monostate, std::__ndk1::monostate>::progress(std::__ndk1::shared_ptr<geode::Task<std::__ndk1::monostate, std::__ndk1::monostate>::Handle>, std::__ndk1::monostate&&)::{lambda()#1}>, void ()>::target_type() const
PUBLIC a3664 0 geode::Task<std::__ndk1::monostate, std::__ndk1::monostate>::progress(std::__ndk1::shared_ptr<geode::Task<std::__ndk1::monostate, std::__ndk1::monostate>::Handle>, std::__ndk1::monostate&&)::{lambda()#1}::operator()()
PUBLIC a3820 0 geode::Task<geode::Result<std::__ndk1::vector<std::__ndk1::tuple<std::__ndk1::basic_string<char, std::__ndk1::char_traits<char>, std::__ndk1::allocator<char> >, int, int>, std::__ndk1::allocator<std::__ndk1::tuple<std::__ndk1::basic_string<char, std::__ndk1::char_traits<char>, std::__ndk1::allocator<char> >, int, int> > >, std::__ndk1::basic_string<char, std::__ndk1::char_traits<char>, std::__ndk1::allocator<char> > >, std::__ndk1::monostate>::setListener(geode::EventListenerProtocol*)
PUBLIC a3a3c 0 geode::EventListener<geode::Task<geode::Result<std::__ndk1::vector<std::__ndk1::tuple<std::__ndk1::basic_string<char, std::__ndk1::char_traits<char>, std::__ndk1::allocator<char> >, int, int>, std::__ndk1::allocator<std::__ndk1::tuple<std::__ndk1::basic_string<char, std::__ndk1::char_traits<char>, std::__ndk1::allocator<char> >, int, int> > >, std::__ndk1::basic_string<char, std::__ndk1::char_traits<char>, std::__ndk1::allocator<char> > >, std::__ndk1::monostate> >::getPool() const
PUBLIC a3a40 0 geode::EventListener<geode::Task<geode::Result<std::__ndk1::vector<std::__ndk1::tuple<std::__ndk1::basic_string<char, std::__ndk1::char_traits<char>, std::__ndk1::allocator<char> >, int, int>, std::__ndk1::allocator<std::__ndk1::tuple<std::__ndk1::basic_string<char, std::__ndk1::char_traits<char>, std::__ndk1::allocator<char> >, int, int> > >, std::__ndk1::basic_string<char, std::__ndk1::char_traits<char>, std::__ndk1::allocator<char> > >, std::__ndk1::monostate> >::handle(geode::Event*)
PUBLIC a3c0c 0 geode::EventListener<geode::Task<geode::Result<std::__ndk1::vector<std::__ndk1::tuple<std::__ndk1::basic_string<char, std::__ndk1::char_traits<char>, std::__ndk1::allocator<char> >, int, int>, std::__ndk1::allocator<std::__ndk1::tuple<std::__ndk1::basic_string<char, std::__ndk1::char_traits<char>, std::__ndk1::allocator<char> >, int, int> > >, std::__ndk1::basic_string<char, std::__ndk1::char_traits<char>, std::__ndk1::allocator<char> > >, std::__ndk1::monostate> >::~EventListener()
PUBLIC a3ca8 0 geode::EventListener<geode::Task<geode::Result<std::__ndk1::vector<std::__ndk1::tuple<std::__ndk1::basic_string<char, std::__ndk1::char_traits<char>, std::__ndk1::allocator<char> >, int, int>, std::__ndk1::allocator<std::__ndk1::tuple<std::__ndk1::basic_string<char, std::__ndk1::char_traits<char>, std::__ndk1::allocator<char> >, int, int> > >, std::__ndk1::basic_string<char, std::__ndk1::char_traits<char>, std::__ndk1::allocator<char> > >, std::__ndk1::monostate> >::~EventListener()
PUBLIC a3d4c 0 geode::Task<geode::Result<std::__ndk1::vector<std::__ndk1::tuple<std::__ndk1::basic_string<char, std::__ndk1::char_traits<char>, std::__ndk1::allocator<char> >, int, int>, std::__ndk1::allocator<std::__ndk1::tuple<std::__ndk1::basic_string<char, std::__ndk1::char_traits<char>, std::__ndk1::allocator<char> >, int, int> > >, std::__ndk1::basic_string<char, std::__ndk1::char_traits<char>, std::__ndk1::allocator<char> > >, std::__ndk1::monostate>::setListener(geode::EventListenerProtocol*)::{lambda()#1}::~{lambda()#1}()
PUBLIC a3d9c 0 geode::Task<geode::Result<std::__ndk1::vector<std::__ndk1::tuple<std::__ndk1::basic_string<char, std::__ndk1::char_traits<char>, std::__ndk1::allocator<char> >, int, int>, std::__ndk1::allocator<std::__ndk1::tuple<std::__ndk1::basic_string<char, std::__ndk1::char_traits<char>, std::__ndk1::allocator<char> >, int, int> > >, std::__ndk1::basic_string<char, std::__ndk1::char_traits<char>, std::__ndk1::allocator<char> > >, std::__ndk1::monostate>::setListener(geode::EventListenerProtocol*)::{lambda()#2}::~{lambda()#2}()
PUBLIC a3dec 0 std::__ndk1::__function::__func<geode::Task<geode::Result<std::__ndk1::vector<std::__ndk1::tuple<std::__ndk1::basic_string<char, std::__ndk1::char_traits<char>, std::__ndk1::allocator<char> >, int, int>, std::__ndk1::allocator<std::__ndk1::tuple<std::__ndk1::basic_string<char, std::__ndk1::char_traits<char>, std::__ndk1::allocator<char> >, int, int> > >, std::__ndk1::basic_string<char, std::__ndk1::char_traits<char>, std::__ndk1::allocator<char> > >, std::__ndk1::monostate>::setListener(geode::EventListenerProtocol*)::{lambda()#1}, std::__ndk1::allocator<geode::Task<geode::Result<std::__ndk1::vector<std::__ndk1::tuple<std::__ndk1::basic_string<char, std::__ndk1::char_traits<char>, std::__ndk1::allocator<char> >, int, int>, std::__ndk1::allocator<std::__ndk1::tuple<std::__ndk1::basic_string<char, std::__ndk1::char_traits<char>, std::__ndk1::allocator<char> >, int, int> > >, std::__ndk1::basic_string<char, std::__ndk1::char_traits<char>, std::__ndk1::allocator<char> > >, std::__ndk1::monostate>::setListener(geode::EventListenerProtocol*)::{lambda()#1}>, void ()>::~__func()
PUBLIC a3e48 0 std::__ndk1::__function::__func<geode::Task<geode::Result<std::__ndk1::vector<std::__ndk1::tuple<std::__ndk1::basic_string<char, std::__ndk1::char_traits<char>, std::__ndk1::allocator<char> >, int, int>, std::__ndk1::allocator<std::__ndk1::tuple<std::__ndk1::basic_string<char, std::__ndk1::char_traits<char>, std::__ndk1::allocator<char> >, int, int> > >, std::__ndk1::basic_string<char, std::__ndk1::char_traits<char>, std::__ndk1::allocator<char> > >, std::__ndk1::monostate>::setListener(geode::EventListenerProtocol*)::{lambda()#1}, std::__ndk1::allocator<geode::Task<geode::Result<std::__ndk1::vector<std::__ndk1::tuple<std::__ndk1::basic_string<char, std::__ndk1::char_traits<char>, std::__ndk1::allocator<char> >, int, int>, std::__ndk1::allocator<std::__ndk1::tuple<std::__ndk1::basic_string<char, std::__ndk1::char_traits<char>, std::__ndk1::allocator<char> >, int, int> > >, std::__ndk1::basic_string<char, std::__ndk1::char_traits<char>, std::__ndk1::allocator<char> > >, std::__ndk1::monostate>::setListener(geode::EventListenerProtocol*)::{lambda()#1}>, void ()>::~__func()
PUBLIC a3eb4 0 std::__ndk1::__function::__func<geode::Task<geode::Result<std::__ndk1::vector<std::__ndk1::tuple<std::__ndk1::basic_string<char, std::__ndk1::char_traits<char>, std::__ndk1::allocator<char> >, int, int>, std::__ndk1::allocator<std::__ndk1::tuple<std::__ndk1::basic_string<char, std::__ndk1::char_traits<char>, std::__ndk1::allocator<char> >, int, int> > >, std::__ndk1::basic_string<char, std::__ndk1::char_traits<char>, std::__ndk1::allocator<char> > >, std::__ndk1::monostate>::setListener(geode::EventListenerProtocol*)::{lambda()#1}, std::__ndk1::allocator<geode::Task<geode::Result<std::__ndk1::vector<std::__ndk1::tuple<std::__ndk1::basic_string<char, std::__ndk1::char_traits<char>, std::__ndk1::allocator<char> >, int, int>, std::__ndk1::allocator<std::__ndk1::tuple<std::__ndk1::basic_string<char, std::__ndk1::char_traits<char>, std::__ndk1::allocator<char> >, int, int> > >, std::__ndk1::basic_string<char, std::__ndk1::char_traits<char>, std::__ndk1::allocator<char> > >, std::__ndk1::monostate>::setListener(geode::EventListenerProtocol*)::{lambda()#1}>, void ()>::__clone() const
PUBLIC a3f0c 0 std::__ndk1::__function::__func<geode::Task<geode::Result<std::__ndk1::vector<std::__ndk1::tuple<std::__ndk1::basic_string<char, std::__ndk1::char_traits<char>, std::__ndk1::allocator<char> >, int, int>, std::__ndk1::allocator<std::__ndk1::tuple<std::__ndk1::basic_string<char, std::__ndk1::char_traits<char>, std::__ndk1::allocator<char> >, int, int> > >, std::__ndk1::basic_string<char, std::__ndk1::char_traits<char>, std::__ndk1::allocator<char> > >, std::__ndk1::monostate>::setListener(geode::EventListenerProtocol*)::{lambda()#1}, std::__ndk1::allocator<geode::Task<geode::Result<std::__ndk1::vector<std::__ndk1::tuple<std::__ndk1::basic_string<char, std::__ndk1::char_traits<char>, std::__ndk1::allocator<char> >, int, int>, std::__ndk1::allocator<std::__ndk1::tuple<std::__ndk1::basic_string<char, std::__ndk1::char_traits<char>, std::__ndk1::allocator<char> >, int, int> > >, std::__ndk1::basic_string<char, std::__ndk1::char_traits<char>, std::__ndk1::allocator<char> > >, std::__ndk1::monostate>::setListener(geode::EventListenerProtocol*)::{lambda()#1}>, void ()>::__clone(std::__ndk1::__function::__base<void ()>*) const
PUBLIC a3f58 0 std::__ndk1::__function::__func<geode::Task<geode::Result<std::__ndk1::vector<std::__ndk1::tuple<std::__ndk1::basic_string<char, std::__ndk1::char_traits<char>, std::__ndk1::allocator<char> >, int, int>, std::__ndk1::allocator<std::__ndk1::tuple<std::__ndk1::basic_string<char, std::__ndk1::char_traits<char>, std::__ndk1::allocator<char> >, int, int> > >, std::__ndk1::basic_string<char, std::__ndk1::char_traits<char>, std::__ndk1::allocator<char> > >, std::__ndk1::monostate>::setListener(geode::EventListenerProtocol*)::{lambda()#1}, std::__ndk1::allocator<geode::Task<geode::Result<std::__ndk1::vector<std::__ndk1::tuple<std::__ndk1::basic_string<char, std::__ndk1::char_traits<char>, std::__ndk1::allocator<char> >, int, int>, std::__ndk1::allocator<std::__ndk1::tuple<std::__ndk1::basic_string<char, std::__ndk1::char_traits<char>, std::__ndk1::allocator<char> >, int, int> > >, std::__ndk1::basic_string<char, std::__ndk1::char_traits<char>, std::__ndk1::allocator<char> > >, std::__ndk1::monostate>::setListener(geode::EventListenerProtocol*)::{lambda()#1}>, void ()>::destroy()
