MODULE Linux arm 2FD852F69214731353BAD5E027CA33380 weebify.separate_dual_icons.android32.so
INFO CODE_ID F652D82F1492137353BAD5E027CA33389D027DB2
INFO GENERATOR mozilla/dump_syms 2.3.4
PUBLIC d290 0 __on_dlclose
PUBLIC d2a0 0 __emutls_unregister_key
PUBLIC d2a4 0 __on_dlclose_late
PUBLIC d2a8 0 __atexit_handler_wrapper
PUBLIC d2b4 0 atexit
PUBLIC d2d4 0 pthread_atfork
FUNC d2e4 2d0 0 __cxx_global_var_init
FUNC d5b4 20 0 geode::modifier::ModifyBase<geode::modifier::ModifyDerive<hook6<(anonymous namespace)::hook6Parent>, CharacterColorPage> >::~ModifyBase()
FUNC d5d4 b00 0 geode::modifier::ModifyDerive<hook6<(anonymous namespace)::hook6Parent>, CharacterColorPage>::apply()
FUNC e0d4 20 0 geode::Mod::get<void>()
FUNC e0f4 3a 0 std::__ndk1::shared_ptr<geode::Hook>::~shared_ptr[abi:ne180000]()
FUNC e130 60 0 geode::impl::ResultData<geode::Hook*, std::__ndk1::basic_string<char, std::__ndk1::char_traits<char>, std::__ndk1::allocator<char> > >::~ResultData()
FUNC e190 3e 0 std::__ndk1::vector<std::__ndk1::basic_string<char, std::__ndk1::char_traits<char>, std::__ndk1::allocator<char> >, std::__ndk1::allocator<std::__ndk1::basic_string<char, std::__ndk1::char_traits<char>, std::__ndk1::allocator<char> > > >::~vector[abi:ne180000]()
FUNC e1ce 2 0 geode::modifier::ModifyBase<geode::modifier::ModifyDerive<hook6<(anonymous namespace)::hook6Parent>, CharacterColorPage> >::apply()
PUBLIC e1d1 0 __clang_call_terminate
FUNC e1dc f8 0 _ZN5geode15UnwrapExceptionC2IRPNS_4HookEQsr4implE18IsStringStreamableIT_EEENS_4impl5OkTagEOS5_
FUNC e2d4 34 0 std::__ndk1::__throw_bad_variant_access[abi:ne180000]()
FUNC e308 d8 0 std::__ndk1::basic_stringstream<char, std::__ndk1::char_traits<char>, std::__ndk1::allocator<char> >::basic_stringstream[abi:ne180000]()
FUNC e3e0 68 0 std::__ndk1::basic_stringstream<char, std::__ndk1::char_traits<char>, std::__ndk1::allocator<char> >::~basic_stringstream()
FUNC e448 10 0 geode::UnwrapException::~UnwrapException()
FUNC e458 108 0 std::__ndk1::__put_character_sequence[abi:ne180000]<char, std::__ndk1::char_traits<char> >(std::__ndk1::basic_ostream<char, std::__ndk1::char_traits<char> >, std::__ndk1::basic_ostream const*, unsigned int)
FUNC e560 110 0 std::__ndk1::__pad_and_output[abi:ne180000]<char, std::__ndk1::char_traits<char> >(std::__ndk1::char_traits<char>, std::__ndk1::ostreambuf_iterator const*, std::__ndk1::ostreambuf_iterator const, std::__ndk1::ostreambuf_iterator const, std::__ndk1::ios_base&, std::__ndk1::ostreambuf_iterator)
FUNC e670 10 0 std::__ndk1::basic_string<char, std::__ndk1::char_traits<char>, std::__ndk1::allocator<char> >::__throw_length_error[abi:ne180000]() const
FUNC e680 38 0 std::__ndk1::__throw_length_error[abi:ne180000](char const*)
FUNC e6b8 18 0 std::length_error::length_error[abi:ne180000](char const*)
FUNC e6d0 28 0 std::__throw_bad_array_new_length([abi:ne180000], void)
FUNC e6f8 ce 0 std::__ndk1::basic_stringbuf<char, std::__ndk1::char_traits<char>, std::__ndk1::allocator<char> >::str[abi:ne180000]() &&
FUNC e7c6 e0 0 std::__ndk1::basic_stringbuf<char, std::__ndk1::char_traits<char>, std::__ndk1::allocator<char> >::__init_buf_ptrs[abi:ne180000]()
FUNC e8a8 164 0 std::__ndk1::vector<std::__ndk1::basic_string<char, std::__ndk1::char_traits<char>, std::__ndk1::allocator<char> >, std::__ndk1::allocator<std::__ndk1::basic_string<char, std::__ndk1::char_traits<char>, std::__ndk1::allocator<char> > > >::__push_back_slow_path<std::__ndk1::basic_string<char, std::__ndk1::char_traits<char>, std::__ndk1::allocator<char> > const&>(std::__ndk1::basic_string<char, std::__ndk1::char_traits<char>, std::__ndk1::allocator<char> > const&)
FUNC ea0c 46 0 std::__ndk1::basic_string<char, std::__ndk1::char_traits<char>, std::__ndk1::allocator<char> >::__init_copy_ctor_external(char const*, unsigned int)
FUNC ea52 3c 0 std::__ndk1::__split_buffer<std::__ndk1::basic_string<char, std::__ndk1::char_traits<char>, std::__ndk1::allocator<char> >, std::__ndk1::allocator<std::__ndk1::basic_string<char, std::__ndk1::char_traits<char>, std::__ndk1::allocator<char> > >&>::~__split_buffer()
FUNC ea90 10 0 std::__ndk1::vector<std::__ndk1::basic_string<char, std::__ndk1::char_traits<char>, std::__ndk1::allocator<char> >, std::__ndk1::allocator<std::__ndk1::basic_string<char, std::__ndk1::char_traits<char>, std::__ndk1::allocator<char> > > >::__throw_length_error[abi:ne180000]() const
FUNC eaa0 2 0 std::__ndk1::__variant_detail::__visitation::__base::__dispatcher<(unsigned int)0>::__dispatch[abi:ne180000]<std::__ndk1::__variant_detail::__dtor<std::__ndk1::__variant_detail::__traits<geode::Hook*, std::__ndk1::basic_string<char, std::__ndk1::char_traits<char>, std::__ndk1::allocator<char> > >, (std::__ndk1::__variant_detail::_Trait)1>::__destroy[abi:ne180000]()::{lambda(auto:1&)#1}, std::__ndk1::__variant_detail::__base<(std::__ndk1::__variant_detail::__traits<geode::Hook*, std::__ndk1::basic_string<char, std::__ndk1::char_traits<char>, std::__ndk1::allocator<char> > >)1, geode::Hook, std::__ndk1::allocator<char> >&>(std::__ndk1::__variant_detail::__dtor<std::__ndk1::__variant_detail::__traits<geode::Hook*, std::__ndk1::basic_string<char, std::__ndk1::char_traits<char>, std::__ndk1::allocator<char> > >, (std::__ndk1::__variant_detail::_Trait)1>, std::__ndk1::__variant_detail::__base<(std::__ndk1::__variant_detail::__traits<geode::Hook*, std::__ndk1::basic_string<char, std::__ndk1::char_traits<char>, std::__ndk1::allocator<char> > >)1, geode::Hook, std::__ndk1::allocator<char> >&)
FUNC eaa2 e 0 std::__ndk1::__variant_detail::__visitation::__base::__dispatcher<(unsigned int)1>::__dispatch[abi:ne180000]<std::__ndk1::__variant_detail::__dtor<std::__ndk1::__variant_detail::__traits<geode::Hook*, std::__ndk1::basic_string<char, std::__ndk1::char_traits<char>, std::__ndk1::allocator<char> > >, (std::__ndk1::__variant_detail::_Trait)1>::__destroy[abi:ne180000]()::{lambda(auto:1&)#1}, std::__ndk1::__variant_detail::__base<(std::__ndk1::__variant_detail::__traits<geode::Hook*, std::__ndk1::basic_string<char, std::__ndk1::char_traits<char>, std::__ndk1::allocator<char> > >)1, geode::Hook, std::__ndk1::allocator<char> >&>(std::__ndk1::__variant_detail::__dtor<std::__ndk1::__variant_detail::__traits<geode::Hook*, std::__ndk1::basic_string<char, std::__ndk1::char_traits<char>, std::__ndk1::allocator<char> > >, (std::__ndk1::__variant_detail::_Trait)1>, std::__ndk1::__variant_detail::__base<(std::__ndk1::__variant_detail::__traits<geode::Hook*, std::__ndk1::basic_string<char, std::__ndk1::char_traits<char>, std::__ndk1::allocator<char> > >)1, geode::Hook, std::__ndk1::allocator<char> >&)
FUNC eab0 c0 0 std::__ndk1::__tree<std::__ndk1::__value_type<std::__ndk1::basic_string<char, std::__ndk1::char_traits<char>, std::__ndk1::allocator<char> >, std::__ndk1::shared_ptr<geode::Hook> >, std::__ndk1::__map_value_compare<std::__ndk1::basic_string<char, std::__ndk1::char_traits<char>, std::__ndk1::allocator<char> >, std::__ndk1::__value_type<std::__ndk1::basic_string<char, std::__ndk1::char_traits<char>, std::__ndk1::allocator<char> >, std::__ndk1::shared_ptr<geode::Hook> >, std::__ndk1::less<std::__ndk1::basic_string<char, std::__ndk1::char_traits<char>, std::__ndk1::allocator<char> > >, true>, std::__ndk1::allocator<std::__ndk1::__value_type<std::__ndk1::basic_string<char, std::__ndk1::char_traits<char>, std::__ndk1::allocator<char> >, std::__ndk1::shared_ptr<geode::Hook> > > >::find<std::__ndk1::basic_string<char, std::__ndk1::char_traits<char>, std::__ndk1::allocator<char> > >(std::__ndk1::basic_string<char, std::__ndk1::char_traits<char>, std::__ndk1::allocator<char> > const&)
FUNC eb70 82 0 std::__ndk1::__tree<std::__ndk1::__value_type<std::__ndk1::basic_string<char, std::__ndk1::char_traits<char>, std::__ndk1::allocator<char> >, std::__ndk1::shared_ptr<geode::Hook> >, std::__ndk1::__map_value_compare<std::__ndk1::basic_string<char, std::__ndk1::char_traits<char>, std::__ndk1::allocator<char> >, std::__ndk1::__value_type<std::__ndk1::basic_string<char, std::__ndk1::char_traits<char>, std::__ndk1::allocator<char> >, std::__ndk1::shared_ptr<geode::Hook> >, std::__ndk1::less<std::__ndk1::basic_string<char, std::__ndk1::char_traits<char>, std::__ndk1::allocator<char> > >, true>, std::__ndk1::allocator<std::__ndk1::__value_type<std::__ndk1::basic_string<char, std::__ndk1::char_traits<char>, std::__ndk1::allocator<char> >, std::__ndk1::shared_ptr<geode::Hook> > > >::erase(std::__ndk1::__tree_const_iterator<std::__ndk1::__value_type<std::__ndk1::basic_string<char, std::__ndk1::char_traits<char>, std::__ndk1::allocator<char> >, std::__ndk1::shared_ptr<geode::Hook> >, std::__ndk1::__tree_node<std::__ndk1::__value_type<std::__ndk1::basic_string<char, std::__ndk1::char_traits<char>, std::__ndk1::allocator<char> >, std::__ndk1::shared_ptr<geode::Hook> >, void*>*, int>)
FUNC ebf2 274 0 std::__ndk1::__tree_remove[abi:ne180000]<std::__ndk1::__tree_node_base<void*>*>(std::__ndk1::__tree_node_base<void*>*, std::__ndk1::__tree_node_base<void*>*)
FUNC ee66 5e 0 std::__ndk1::__tree<std::__ndk1::__value_type<std::__ndk1::basic_string<char, std::__ndk1::char_traits<char>, std::__ndk1::allocator<char> >, std::__ndk1::shared_ptr<geode::Hook> >, std::__ndk1::__map_value_compare<std::__ndk1::basic_string<char, std::__ndk1::char_traits<char>, std::__ndk1::allocator<char> >, std::__ndk1::__value_type<std::__ndk1::basic_string<char, std::__ndk1::char_traits<char>, std::__ndk1::allocator<char> >, std::__ndk1::shared_ptr<geode::Hook> >, std::__ndk1::less<std::__ndk1::basic_string<char, std::__ndk1::char_traits<char>, std::__ndk1::allocator<char> > >, true>, std::__ndk1::allocator<std::__ndk1::__value_type<std::__ndk1::basic_string<char, std::__ndk1::char_traits<char>, std::__ndk1::allocator<char> >, std::__ndk1::shared_ptr<geode::Hook> > > >::destroy(std::__ndk1::__tree_node<std::__ndk1::__value_type<std::__ndk1::basic_string<char, std::__ndk1::char_traits<char>, std::__ndk1::allocator<char> >, std::__ndk1::shared_ptr<geode::Hook> >, void*>*)
FUNC eec4 7c 0 geode::addresser::getVirtual<bool (CharacterColorPage::*)()>(bool (CharacterColorPage::*)())
FUNC ef40 fb0 0 geode::modifier::AsStaticFunction_init<hook6<(anonymous namespace)::hook6Parent>, bool (hook6<(anonymous namespace)::hook6Parent>::*)()>::Impl<bool (hook6<(anonymous namespace)::hook6Parent>::*)()>::function(hook6<(anonymous namespace)::hook6Parent>*)
FUNC fef0 108 0 geode::Hook::create<void (*)(hook6<(anonymous namespace)::hook6Parent>*, cocos2d::CCObject*)>(void*, void (*)(hook6<(anonymous namespace)::hook6Parent>*, cocos2d::CCObject*), std::__ndk1::basic_string<char, std::__ndk1::char_traits<char>, std::__ndk1::allocator<char> > const&, tulip::hook::TulipConvention, tulip::hook::HookMetadata const&)
FUNC fff8 448 0 geode::modifier::AsStaticFunction_onMode<hook6<(anonymous namespace)::hook6Parent>, void (hook6<(anonymous namespace)::hook6Parent>::*)(cocos2d::CCObject*)>::Impl<void (hook6<(anonymous namespace)::hook6Parent>::*)(cocos2d::CCObject*)>::function(hook6<(anonymous namespace)::hook6Parent>*, cocos2d::CCObject*)
FUNC 10440 ad0 0 geode::modifier::AsStaticFunction_onPlayerColor<hook6<(anonymous namespace)::hook6Parent>, void (hook6<(anonymous namespace)::hook6Parent>::*)(cocos2d::CCObject*)>::Impl<void (hook6<(anonymous namespace)::hook6Parent>::*)(cocos2d::CCObject*)>::function(hook6<(anonymous namespace)::hook6Parent>*, cocos2d::CCObject*)
FUNC 10f10 430 0 geode::modifier::AsStaticFunction_toggleGlow<hook6<(anonymous namespace)::hook6Parent>, void (hook6<(anonymous namespace)::hook6Parent>::*)(cocos2d::CCObject*)>::Impl<void (hook6<(anonymous namespace)::hook6Parent>::*)(cocos2d::CCObject*)>::function(hook6<(anonymous namespace)::hook6Parent>*, cocos2d::CCObject*)
FUNC 11340 164 0 geode::modifier::AsStaticFunction_toggleShip<hook6<(anonymous namespace)::hook6Parent>, void (hook6<(anonymous namespace)::hook6Parent>::*)(cocos2d::CCObject*)>::Impl<void (hook6<(anonymous namespace)::hook6Parent>::*)(cocos2d::CCObject*)>::function(hook6<(anonymous namespace)::hook6Parent>*, cocos2d::CCObject*)
FUNC 114a4 70 0 CharacterColorPage::CharacterColorPage(geode::ZeroConstructorType)
FUNC 11514 3a 0 std::__ndk1::shared_ptr<tulip::hook::CallingConvention>::~shared_ptr[abi:ne180000]()
FUNC 1154e 46 0 tulip::hook::HandlerMetadata::~HandlerMetadata()
FUNC 11594 148 0 geode::Mod::getSavedValue<bool>(std::__ndk1::basic_string_view<char, std::__ndk1::char_traits<char> >, bool const&)
FUNC 116dc 14c 0 geode::Mod::getSavedValue<long long>(std::__ndk1::basic_string_view<char, std::__ndk1::char_traits<char> >, long long const&)
FUNC 11828 e0 0 cocos2d::CCNode::getChildByType<SimplePlayer, SimplePlayer>(int)
FUNC 11908 60 0 geode::impl::ResultData<matjson::Value&, std::__ndk1::basic_string<char, std::__ndk1::char_traits<char>, std::__ndk1::allocator<char> > >::~ResultData()
FUNC 11968 2 0 std::__ndk1::__variant_detail::__visitation::__base::__dispatcher<(unsigned int)0>::__dispatch[abi:ne180000]<std::__ndk1::__variant_detail::__dtor<std::__ndk1::__variant_detail::__traits<std::__ndk1::reference_wrapper<matjson::Value>, std::__ndk1::basic_string<char, std::__ndk1::char_traits<char>, std::__ndk1::allocator<char> > >, (std::__ndk1::__variant_detail::_Trait)1>::__destroy[abi:ne180000]()::{lambda(auto:1&)#1}, std::__ndk1::__variant_detail::__base<(std::__ndk1::__variant_detail::__traits<std::__ndk1::reference_wrapper<matjson::Value>, std::__ndk1::basic_string<char, std::__ndk1::char_traits<char>, std::__ndk1::allocator<char> > >)1, matjson::Value, std::__ndk1::allocator<char> >&>(std::__ndk1::__variant_detail::__dtor<std::__ndk1::__variant_detail::__traits<std::__ndk1::reference_wrapper<matjson::Value>, std::__ndk1::basic_string<char, std::__ndk1::char_traits<char>, std::__ndk1::allocator<char> > >, (std::__ndk1::__variant_detail::_Trait)1>, std::__ndk1::__variant_detail::__base<(std::__ndk1::__variant_detail::__traits<std::__ndk1::reference_wrapper<matjson::Value>, std::__ndk1::basic_string<char, std::__ndk1::char_traits<char>, std::__ndk1::allocator<char> > >)1, matjson::Value, std::__ndk1::allocator<char> >&)
FUNC 1196a e 0 std::__ndk1::__variant_detail::__visitation::__base::__dispatcher<(unsigned int)1>::__dispatch[abi:ne180000]<std::__ndk1::__variant_detail::__dtor<std::__ndk1::__variant_detail::__traits<std::__ndk1::reference_wrapper<matjson::Value>, std::__ndk1::basic_string<char, std::__ndk1::char_traits<char>, std::__ndk1::allocator<char> > >, (std::__ndk1::__variant_detail::_Trait)1>::__destroy[abi:ne180000]()::{lambda(auto:1&)#1}, std::__ndk1::__variant_detail::__base<(std::__ndk1::__variant_detail::__traits<std::__ndk1::reference_wrapper<matjson::Value>, std::__ndk1::basic_string<char, std::__ndk1::char_traits<char>, std::__ndk1::allocator<char> > >)1, matjson::Value, std::__ndk1::allocator<char> >&>(std::__ndk1::__variant_detail::__dtor<std::__ndk1::__variant_detail::__traits<std::__ndk1::reference_wrapper<matjson::Value>, std::__ndk1::basic_string<char, std::__ndk1::char_traits<char>, std::__ndk1::allocator<char> > >, (std::__ndk1::__variant_detail::_Trait)1>, std::__ndk1::__variant_detail::__base<(std::__ndk1::__variant_detail::__traits<std::__ndk1::reference_wrapper<matjson::Value>, std::__ndk1::basic_string<char, std::__ndk1::char_traits<char>, std::__ndk1::allocator<char> > >)1, matjson::Value, std::__ndk1::allocator<char> >&)
FUNC 11978 2 0 std::__ndk1::__variant_detail::__visitation::__base::__dispatcher<(unsigned int)0>::__dispatch[abi:ne180000]<std::__ndk1::__variant_detail::__dtor<std::__ndk1::__variant_detail::__traits<bool, std::__ndk1::basic_string<char, std::__ndk1::char_traits<char>, std::__ndk1::allocator<char> > >, (std::__ndk1::__variant_detail::_Trait)1>::__destroy[abi:ne180000]()::{lambda(auto:1&)#1}, std::__ndk1::__variant_detail::__base<(std::__ndk1::__variant_detail::__traits<bool, std::__ndk1::basic_string<char, std::__ndk1::char_traits<char>, std::__ndk1::allocator<char> > >)1, bool, std::__ndk1::allocator<char> >&>(std::__ndk1::__variant_detail::__dtor<std::__ndk1::__variant_detail::__traits<bool, std::__ndk1::basic_string<char, std::__ndk1::char_traits<char>, std::__ndk1::allocator<char> > >, (std::__ndk1::__variant_detail::_Trait)1>, std::__ndk1::__variant_detail::__base<(std::__ndk1::__variant_detail::__traits<bool, std::__ndk1::basic_string<char, std::__ndk1::char_traits<char>, std::__ndk1::allocator<char> > >)1, bool, std::__ndk1::allocator<char> >&)
FUNC 1197a e 0 std::__ndk1::__variant_detail::__visitation::__base::__dispatcher<(unsigned int)1>::__dispatch[abi:ne180000]<std::__ndk1::__variant_detail::__dtor<std::__ndk1::__variant_detail::__traits<bool, std::__ndk1::basic_string<char, std::__ndk1::char_traits<char>, std::__ndk1::allocator<char> > >, (std::__ndk1::__variant_detail::_Trait)1>::__destroy[abi:ne180000]()::{lambda(auto:1&)#1}, std::__ndk1::__variant_detail::__base<(std::__ndk1::__variant_detail::__traits<bool, std::__ndk1::basic_string<char, std::__ndk1::char_traits<char>, std::__ndk1::allocator<char> > >)1, bool, std::__ndk1::allocator<char> >&>(std::__ndk1::__variant_detail::__dtor<std::__ndk1::__variant_detail::__traits<bool, std::__ndk1::basic_string<char, std::__ndk1::char_traits<char>, std::__ndk1::allocator<char> > >, (std::__ndk1::__variant_detail::_Trait)1>, std::__ndk1::__variant_detail::__base<(std::__ndk1::__variant_detail::__traits<bool, std::__ndk1::basic_string<char, std::__ndk1::char_traits<char>, std::__ndk1::allocator<char> > >)1, bool, std::__ndk1::allocator<char> >&)
FUNC 11988 c8 0 matjson::Value::as<long long>() const
FUNC 11a50 2 0 std::__ndk1::__variant_detail::__visitation::__base::__dispatcher<(unsigned int)0>::__dispatch[abi:ne180000]<std::__ndk1::__variant_detail::__dtor<std::__ndk1::__variant_detail::__traits<long long, std::__ndk1::basic_string<char, std::__ndk1::char_traits<char>, std::__ndk1::allocator<char> > >, (std::__ndk1::__variant_detail::_Trait)1>::__destroy[abi:ne180000]()::{lambda(auto:1&)#1}, std::__ndk1::__variant_detail::__base<(std::__ndk1::__variant_detail::__traits<long long, std::__ndk1::basic_string<char, std::__ndk1::char_traits<char>, std::__ndk1::allocator<char> > >)1, long long, std::__ndk1::allocator<char> >&>(std::__ndk1::__variant_detail::__dtor<std::__ndk1::__variant_detail::__traits<long long, std::__ndk1::basic_string<char, std::__ndk1::char_traits<char>, std::__ndk1::allocator<char> > >, (std::__ndk1::__variant_detail::_Trait)1>, std::__ndk1::__variant_detail::__base<(std::__ndk1::__variant_detail::__traits<long long, std::__ndk1::basic_string<char, std::__ndk1::char_traits<char>, std::__ndk1::allocator<char> > >)1, long long, std::__ndk1::allocator<char> >&)
FUNC 11a52 e 0 std::__ndk1::__variant_detail::__visitation::__base::__dispatcher<(unsigned int)1>::__dispatch[abi:ne180000]<std::__ndk1::__variant_detail::__dtor<std::__ndk1::__variant_detail::__traits<long long, std::__ndk1::basic_string<char, std::__ndk1::char_traits<char>, std::__ndk1::allocator<char> > >, (std::__ndk1::__variant_detail::_Trait)1>::__destroy[abi:ne180000]()::{lambda(auto:1&)#1}, std::__ndk1::__variant_detail::__base<(std::__ndk1::__variant_detail::__traits<long long, std::__ndk1::basic_string<char, std::__ndk1::char_traits<char>, std::__ndk1::allocator<char> > >)1, long long, std::__ndk1::allocator<char> >&>(std::__ndk1::__variant_detail::__dtor<std::__ndk1::__variant_detail::__traits<long long, std::__ndk1::basic_string<char, std::__ndk1::char_traits<char>, std::__ndk1::allocator<char> > >, (std::__ndk1::__variant_detail::_Trait)1>, std::__ndk1::__variant_detail::__base<(std::__ndk1::__variant_detail::__traits<long long, std::__ndk1::basic_string<char, std::__ndk1::char_traits<char>, std::__ndk1::allocator<char> > >)1, long long, std::__ndk1::allocator<char> >&)
FUNC 11a60 8c 0 geode::cast::traverseTypeinfoFor(void*, geode::cast::ClassTypeinfoType const*, char const*)
FUNC 11aec ba 0 std::__ndk1::__tree<std::__ndk1::__value_type<std::__ndk1::basic_string<char, std::__ndk1::char_traits<char>, std::__ndk1::allocator<char> >, std::__ndk1::shared_ptr<geode::Hook> >, std::__ndk1::__map_value_compare<std::__ndk1::basic_string<char, std::__ndk1::char_traits<char>, std::__ndk1::allocator<char> >, std::__ndk1::__value_type<std::__ndk1::basic_string<char, std::__ndk1::char_traits<char>, std::__ndk1::allocator<char> >, std::__ndk1::shared_ptr<geode::Hook> >, std::__ndk1::less<std::__ndk1::basic_string<char, std::__ndk1::char_traits<char>, std::__ndk1::allocator<char> > >, true>, std::__ndk1::allocator<std::__ndk1::__value_type<std::__ndk1::basic_string<char, std::__ndk1::char_traits<char>, std::__ndk1::allocator<char> >, std::__ndk1::shared_ptr<geode::Hook> > > >::__find_equal<std::__ndk1::basic_string<char, std::__ndk1::char_traits<char>, std::__ndk1::allocator<char> > >(std::__ndk1::__tree_end_node<std::__ndk1::__tree_node_base<void*>*>*&, std::__ndk1::basic_string<char, std::__ndk1::char_traits<char>, std::__ndk1::allocator<char> > const&)
FUNC 11ba6 14a 0 std::__ndk1::__tree_balance_after_insert[abi:ne180000]<std::__ndk1::__tree_node_base<void*>*>(std::__ndk1::__tree_node_base<void*>*, std::__ndk1::__tree_node_base<void*>*)
FUNC 11cf0 118 0 geode::modifier::FieldIntermediate<hook6<(anonymous namespace)::hook6Parent>, CharacterColorPage>::operator->()
FUNC 11e08 1c0 0 geode::modifier::FieldContainer::getField(unsigned int)
FUNC 11fc8 ae 0 geode::modifier::FieldContainer::setField(unsigned int, unsigned int, std::__ndk1::function<void (void*)>)
FUNC 12076 2 0 geode::modifier::FieldIntermediate<hook6<(anonymous namespace)::hook6Parent>, CharacterColorPage>::fieldDestructor(void*)
FUNC 12078 10 0 std::__ndk1::vector<void*, std::__ndk1::allocator<void*> >::__throw_length_error[abi:ne180000]() const
FUNC 12088 186 0 std::__ndk1::vector<std::__ndk1::function<void (void*)>, std::__ndk1::allocator<std::__ndk1::function<void (void*)> > >::__push_back_slow_path<std::__ndk1::function<void (void*)> >(std::__ndk1::function<void (void*)>&&)
FUNC 12210 10 0 std::__ndk1::vector<std::__ndk1::function<void (void*)>, std::__ndk1::allocator<std::__ndk1::function<void (void*)> > >::__throw_length_error[abi:ne180000]() const
FUNC 12220 10 0 std::__ndk1::vector<void*, std::__ndk1::allocator<void*> >::__throw_out_of_range[abi:ne180000]() const
FUNC 12230 38 0 std::__ndk1::__throw_out_of_range[abi:ne180000](char const*)
FUNC 12268 18 0 std::out_of_range::out_of_range[abi:ne180000](char const*)
FUNC 12280 10 0 std::__ndk1::vector<std::__ndk1::function<void (void*)>, std::__ndk1::allocator<std::__ndk1::function<void (void*)> > >::__throw_out_of_range[abi:ne180000]() const
FUNC 12290 2 0 std::__ndk1::__function::__base<void (void*)>::~__base()
FUNC 12292 4 0 std::__ndk1::__function::__func<void (*)(void*), std::__ndk1::allocator<void (*)(void*)>, void (void*)>::~__func()
FUNC 12298 20 0 std::__ndk1::__function::__func<void (*)(void*), std::__ndk1::allocator<void (*)(void*)>, void (void*)>::__clone() const
FUNC 122b8 14 0 std::__ndk1::__function::__func<void (*)(void*), std::__ndk1::allocator<void (*)(void*)>, void (void*)>::__clone(std::__ndk1::__function::__base<void (void*)>*) const
FUNC 122cc 2 0 std::__ndk1::__function::__func<void (*)(void*), std::__ndk1::allocator<void (*)(void*)>, void (void*)>::destroy()
FUNC 122ce 4 0 std::__ndk1::__function::__func<void (*)(void*), std::__ndk1::allocator<void (*)(void*)>, void (void*)>::destroy_deallocate()
FUNC 122d2 8 0 std::__ndk1::__function::__func<void (*)(void*), std::__ndk1::allocator<void (*)(void*)>, void (void*)>::operator()(void*&&)
FUNC 122dc 18 0 std::__ndk1::__function::__func<void (*)(void*), std::__ndk1::allocator<void (*)(void*)>, void (void*)>::target(std::type_info const&) const
FUNC 122f4 c 0 std::__ndk1::__function::__func<void (*)(void*), std::__ndk1::allocator<void (*)(void*)>, void (void*)>::target_type() const
FUNC 12300 84 0 geode::Mod::setSavedValue<long long>(std::__ndk1::basic_string_view<char, std::__ndk1::char_traits<char> >, long long const&)
FUNC 12384 10 0 std::__ndk1::vector<SimplePlayer*, std::__ndk1::allocator<SimplePlayer*> >::__throw_length_error[abi:ne180000]() const
FUNC 12394 114 0 geode::Mod::getSavedValue<long long>(std::__ndk1::basic_string_view<char, std::__ndk1::char_traits<char> >)
FUNC 124a8 80 0 geode::Mod::setSavedValue<bool>(std::__ndk1::basic_string_view<char, std::__ndk1::char_traits<char> >, bool const&)
FUNC 12528 110 0 geode::Mod::getSavedValue<bool>(std::__ndk1::basic_string_view<char, std::__ndk1::char_traits<char> >)
FUNC 12638 2f4 0 __cxx_global_var_init
FUNC 1292c 20 0 geode::modifier::ModifyBase<geode::modifier::ModifyDerive<MyGarageLayer, GJGarageLayer> >::~ModifyBase()
FUNC 12950 834 0 geode::modifier::ModifyDerive<MyGarageLayer, GJGarageLayer>::apply()
FUNC 13184 2 0 geode::modifier::ModifyBase<geode::modifier::ModifyDerive<MyGarageLayer, GJGarageLayer> >::apply()
FUNC 13188 7c 0 geode::addresser::getVirtual<bool (GJGarageLayer::*)()>(bool (GJGarageLayer::*)())
FUNC 13204 9dc 0 geode::modifier::AsStaticFunction_init<MyGarageLayer, bool (MyGarageLayer::*)()>::Impl<bool (MyGarageLayer::*)()>::function(MyGarageLayer*)
FUNC 13be0 c80 0 geode::modifier::AsStaticFunction_onSelect<MyGarageLayer, void (MyGarageLayer::*)(cocos2d::CCObject*)>::Impl<void (MyGarageLayer::*)(cocos2d::CCObject*)>::function(MyGarageLayer*, cocos2d::CCObject*)
FUNC 14860 c5c 0 geode::modifier::AsStaticFunction_setupPage<MyGarageLayer, void (MyGarageLayer::*)(int, IconType)>::Impl<void (MyGarageLayer::*)(int, IconType)>::function(MyGarageLayer*, int, IconType)
FUNC 154bc a4 0 GJGarageLayer::GJGarageLayer(geode::ZeroConstructorType)
FUNC 15560 10 0 std::__ndk1::vector<tulip::hook::AbstractType, std::__ndk1::allocator<tulip::hook::AbstractType> >::__throw_length_error[abi:ne180000]() const
FUNC 15570 1080 0 MyGarageLayer::on2PToggle(cocos2d::CCObject*)
FUNC 165f0 e90 0 MyGarageLayer::swap2PKit(cocos2d::CCObject*)
FUNC 17480 11c 0 geode::modifier::FieldIntermediate<MyGarageLayer, GJGarageLayer>::self()
FUNC 1759c 2 0 geode::modifier::FieldIntermediate<MyGarageLayer, GJGarageLayer>::fieldDestructor(void*)
FUNC 1759e 16 0 geode::cocos::CCArrayExt<CCMenuItemSpriteExtra*, CCMenuItemSpriteExtra>::~CCArrayExt()
FUNC 175b4 2 0 std::__ndk1::__variant_detail::__visitation::__base::__dispatcher<(unsigned int)0>::__dispatch[abi:ne180000]<std::__ndk1::__variant_detail::__dtor<std::__ndk1::__variant_detail::__traits<int, std::__ndk1::basic_string<char, std::__ndk1::char_traits<char>, std::__ndk1::allocator<char> > >, (std::__ndk1::__variant_detail::_Trait)1>::__destroy[abi:ne180000]()::{lambda(auto:1&)#1}, std::__ndk1::__variant_detail::__base<(std::__ndk1::__variant_detail::__traits<int, std::__ndk1::basic_string<char, std::__ndk1::char_traits<char>, std::__ndk1::allocator<char> > >)1, int, std::__ndk1::allocator<char> >&>(std::__ndk1::__variant_detail::__dtor<std::__ndk1::__variant_detail::__traits<int, std::__ndk1::basic_string<char, std::__ndk1::char_traits<char>, std::__ndk1::allocator<char> > >, (std::__ndk1::__variant_detail::_Trait)1>, std::__ndk1::__variant_detail::__base<(std::__ndk1::__variant_detail::__traits<int, std::__ndk1::basic_string<char, std::__ndk1::char_traits<char>, std::__ndk1::allocator<char> > >)1, int, std::__ndk1::allocator<char> >&)
FUNC 175b6 e 0 std::__ndk1::__variant_detail::__visitation::__base::__dispatcher<(unsigned int)1>::__dispatch[abi:ne180000]<std::__ndk1::__variant_detail::__dtor<std::__ndk1::__variant_detail::__traits<int, std::__ndk1::basic_string<char, std::__ndk1::char_traits<char>, std::__ndk1::allocator<char> > >, (std::__ndk1::__variant_detail::_Trait)1>::__destroy[abi:ne180000]()::{lambda(auto:1&)#1}, std::__ndk1::__variant_detail::__base<(std::__ndk1::__variant_detail::__traits<int, std::__ndk1::basic_string<char, std::__ndk1::char_traits<char>, std::__ndk1::allocator<char> > >)1, int, std::__ndk1::allocator<char> >&>(std::__ndk1::__variant_detail::__dtor<std::__ndk1::__variant_detail::__traits<int, std::__ndk1::basic_string<char, std::__ndk1::char_traits<char>, std::__ndk1::allocator<char> > >, (std::__ndk1::__variant_detail::_Trait)1>, std::__ndk1::__variant_detail::__base<(std::__ndk1::__variant_detail::__traits<int, std::__ndk1::basic_string<char, std::__ndk1::char_traits<char>, std::__ndk1::allocator<char> > >)1, int, std::__ndk1::allocator<char> >&)
FUNC 175c4 a0 0 MyGarageLayer::onSpecialRep(cocos2d::CCObject*)
FUNC 17664 2d0 0 __cxx_global_var_init
FUNC 17934 20 0 geode::modifier::ModifyBase<geode::modifier::ModifyDerive<hook6<(anonymous namespace)::hook6Parent>, LevelEditorLayer> >::~ModifyBase()
FUNC 17960 584 0 geode::modifier::ModifyDerive<hook6<(anonymous namespace)::hook6Parent>, LevelEditorLayer>::apply()
FUNC 17ee4 2 0 geode::modifier::ModifyBase<geode::modifier::ModifyDerive<hook6<(anonymous namespace)::hook6Parent>, LevelEditorLayer> >::apply()
FUNC 17ee8 84 0 geode::addresser::getVirtual<void (LevelEditorLayer::*)(float)>(void (LevelEditorLayer::*)(float))
FUNC 17f6c 2d8 0 geode::modifier::AsStaticFunction_postUpdate<hook6<(anonymous namespace)::hook6Parent>, void (hook6<(anonymous namespace)::hook6Parent>::*)(float)>::Impl<void (hook6<(anonymous namespace)::hook6Parent>::*)(float)>::function(hook6<(anonymous namespace)::hook6Parent>*, float)
FUNC 18244 3b8 0 geode::modifier::AsStaticFunction_onPlaytest<hook6<(anonymous namespace)::hook6Parent>, void (hook6<(anonymous namespace)::hook6Parent>::*)()>::Impl<void (hook6<(anonymous namespace)::hook6Parent>::*)()>::function(hook6<(anonymous namespace)::hook6Parent>*)
FUNC 185fc 658 0 LevelEditorLayer::LevelEditorLayer(geode::ZeroConstructorType)
FUNC 18c54 3e0 0 GJGameState::GJGameState()
FUNC 19034 3a 0 geode::stl::unordered_map<int, int, geode::stl::hash<int>, geode::stl::equal_to<int>, std::__ndk1::allocator<std::__ndk1::pair<int const, int> > >::~unordered_map()
FUNC 1906e 3a 0 geode::stl::unordered_set<int, geode::stl::hash<int>, geode::stl::equal_to<int>, std::__ndk1::allocator<int> >::~unordered_set()
FUNC 190a8 4c 0 geode::stl::unordered_map<int, gd::string, geode::stl::hash<int>, geode::stl::equal_to<int>, std::__ndk1::allocator<std::__ndk1::pair<int const, gd::string> > >::~unordered_map()
FUNC 190f4 14 0 gd::map<std::__ndk1::pair<int, int>, int>::~map()
FUNC 19108 4e 0 geode::stl::unordered_map<int, gd::vector<LabelGameObject*>, geode::stl::hash<int>, geode::stl::equal_to<int>, std::__ndk1::allocator<std::__ndk1::pair<int const, gd::vector<LabelGameObject*> > > >::~unordered_map()
FUNC 19156 3a 0 geode::stl::unordered_map<int, std::__ndk1::pair<int, int>, geode::stl::hash<int>, geode::stl::equal_to<int>, std::__ndk1::allocator<std::__ndk1::pair<int const, std::__ndk1::pair<int, int> > > >::~unordered_map()
FUNC 19190 4e 0 geode::stl::unordered_map<int, gd::vector<GameObject*>, geode::stl::hash<int>, geode::stl::equal_to<int>, std::__ndk1::allocator<std::__ndk1::pair<int const, gd::vector<GameObject*> > > >::~unordered_map()
FUNC 191de 3a 0 geode::stl::unordered_map<int, cocos2d::CCPoint, geode::stl::hash<int>, geode::stl::equal_to<int>, std::__ndk1::allocator<std::__ndk1::pair<int const, cocos2d::CCPoint> > >::~unordered_map()
FUNC 19218 9a 0 gd::vector<geode::stl::unordered_map<int, int, geode::stl::hash<int>, geode::stl::equal_to<int>, std::__ndk1::allocator<std::__ndk1::pair<int const, int> > > >::~vector()
FUNC 192b2 33a 0 GJGameState::~GJGameState()
FUNC 195ec 3a 0 geode::stl::unordered_map<int, SongChannelState, geode::stl::hash<int>, geode::stl::equal_to<int>, std::__ndk1::allocator<std::__ndk1::pair<int const, SongChannelState> > >::~unordered_map()
FUNC 19626 14 0 gd::map<std::__ndk1::pair<int, int>, SFXTriggerInstance>::~map()
FUNC 1963a 50 0 geode::stl::unordered_map<int, std::__ndk1::vector<int, std::__ndk1::allocator<int> >, geode::stl::hash<int>, geode::stl::equal_to<int>, std::__ndk1::allocator<std::__ndk1::pair<int const, std::__ndk1::vector<int, std::__ndk1::allocator<int> > > > >::~unordered_map()
FUNC 1968a 58 0 gd::vector<EnterEffectInstance>::~vector()
FUNC 196e2 34 0 geode::stl::unordered_map<int, std::__ndk1::vector<EnterEffectInstance, std::__ndk1::allocator<EnterEffectInstance> >, geode::stl::hash<int>, geode::stl::equal_to<int>, std::__ndk1::allocator<std::__ndk1::pair<int const, std::__ndk1::vector<EnterEffectInstance, std::__ndk1::allocator<EnterEffectInstance> > > > >::~unordered_map()
FUNC 19716 14 0 gd::map<std::__ndk1::pair<GJGameEvent, int>, int>::~map()
FUNC 1972a 14 0 gd::map<std::__ndk1::pair<GJGameEvent, int>, gd::vector<EventTriggerInstance> >::~map()
FUNC 1973e 3a 0 geode::stl::unordered_map<int, EnhancedGameObject*, geode::stl::hash<int>, geode::stl::equal_to<int>, std::__ndk1::allocator<std::__ndk1::pair<int const, EnhancedGameObject*> > >::~unordered_map()
FUNC 19778 3a 0 geode::stl::unordered_map<int, GameObjectPhysics, geode::stl::hash<int>, geode::stl::equal_to<int>, std::__ndk1::allocator<std::__ndk1::pair<int const, GameObjectPhysics> > >::~unordered_map()
FUNC 197b2 3a 0 geode::stl::unordered_map<int, GJValueTween, geode::stl::hash<int>, geode::stl::equal_to<int>, std::__ndk1::allocator<std::__ndk1::pair<int const, GJValueTween> > >::~unordered_map()
FUNC 197ec 3a 0 geode::stl::unordered_map<int, bool, geode::stl::hash<int>, geode::stl::equal_to<int>, std::__ndk1::allocator<std::__ndk1::pair<int const, bool> > >::~unordered_map()
FUNC 19828 11c 0 gd::map<std::__ndk1::pair<GJGameEvent, int>, gd::vector<EventTriggerInstance> >::map(std::__ndk1::map<std::__ndk1::pair<GJGameEvent, int>, gd::vector<EventTriggerInstance>, std::__ndk1::less<std::__ndk1::pair<GJGameEvent, int> >, std::__ndk1::allocator<std::__ndk1::pair<std::__ndk1::pair<GJGameEvent, int> const, gd::vector<EventTriggerInstance> > > >)
FUNC 19944 19e 0 gd::map<std::__ndk1::pair<GJGameEvent, int>, gd::vector<EventTriggerInstance> >::insert_pair(std::__ndk1::pair<std::__ndk1::pair<GJGameEvent, int>, gd::vector<EventTriggerInstance> > const&)
FUNC 19ae2 40 0 std::__ndk1::pair<std::__ndk1::pair<GJGameEvent, int>, gd::vector<EventTriggerInstance> >::~pair()
FUNC 19b22 40 0 std::__ndk1::pair<std::__ndk1::pair<GJGameEvent, int> const, gd::vector<EventTriggerInstance> >::~pair()
FUNC 19b62 10a 0 gd::vector<EventTriggerInstance>::vector(gd::vector<EventTriggerInstance> const&)
FUNC 19c6c 17c 0 geode::stl::_rb_insert_rebalance(bool, geode::stl::_rb_tree_base*, geode::stl::_rb_tree_base*, geode::stl::_rb_tree_base&)
FUNC 19de8 12e 0 gd::vector<EventTriggerInstance>::operator=(gd::vector<EventTriggerInstance> const&)
FUNC 19f16 40 0 gd::vector<EventTriggerInstance>::~vector()
FUNC 19f56 5c 0 std::__ndk1::__tree<std::__ndk1::__value_type<std::__ndk1::pair<GJGameEvent, int>, gd::vector<EventTriggerInstance> >, std::__ndk1::__map_value_compare<std::__ndk1::pair<GJGameEvent, int>, std::__ndk1::__value_type<std::__ndk1::pair<GJGameEvent, int>, gd::vector<EventTriggerInstance> >, std::__ndk1::less<std::__ndk1::pair<GJGameEvent, int> >, true>, std::__ndk1::allocator<std::__ndk1::__value_type<std::__ndk1::pair<GJGameEvent, int>, gd::vector<EventTriggerInstance> > > >::destroy(std::__ndk1::__tree_node<std::__ndk1::__value_type<std::__ndk1::pair<GJGameEvent, int>, gd::vector<EventTriggerInstance> >, void*>*)
FUNC 19fb2 2c 0 gd::map<std::__ndk1::pair<int, int>, SFXTriggerInstance>::erase(geode::stl::_rb_tree_node<std::__ndk1::pair<std::__ndk1::pair<int, int>, SFXTriggerInstance> >*)
FUNC 19fde 2c 0 gd::map<int, EnterEffectAnimValue>::erase(geode::stl::_rb_tree_node<std::__ndk1::pair<int, EnterEffectAnimValue> >*)
FUNC 1a00a 64 0 geode::stl::__detail::_Hashtable_alloc<std::__ndk1::allocator<geode::stl::__detail::_Hash_node<std::__ndk1::pair<int const, std::__ndk1::vector<EnterEffectInstance, std::__ndk1::allocator<EnterEffectInstance> > >, false> > >::_M_deallocate_nodes(geode::stl::__detail::_Hash_node<std::__ndk1::pair<int const, std::__ndk1::vector<EnterEffectInstance, std::__ndk1::allocator<EnterEffectInstance> > >, false>*)
FUNC 1a06e 2c 0 gd::map<std::__ndk1::pair<GJGameEvent, int>, int>::erase(geode::stl::_rb_tree_node<std::__ndk1::pair<std::__ndk1::pair<GJGameEvent, int>, int> >*)
FUNC 1a09a 6e 0 gd::map<std::__ndk1::pair<GJGameEvent, int>, gd::vector<EventTriggerInstance> >::erase(geode::stl::_rb_tree_node<std::__ndk1::pair<std::__ndk1::pair<GJGameEvent, int>, gd::vector<EventTriggerInstance> > >*)
FUNC 1a108 2c 0 gd::map<std::__ndk1::pair<int, int>, int>::erase(geode::stl::_rb_tree_node<std::__ndk1::pair<std::__ndk1::pair<int, int>, int> >*)
FUNC 1a134 118 0 geode::modifier::FieldIntermediate<hook6<(anonymous namespace)::hook6Parent>, LevelEditorLayer>::operator->()
FUNC 1a24c 2 0 geode::modifier::FieldIntermediate<hook6<(anonymous namespace)::hook6Parent>, LevelEditorLayer>::fieldDestructor(void*)
FUNC 1a250 2d0 0 __cxx_global_var_init
FUNC 1a520 20 0 geode::modifier::ModifyBase<geode::modifier::ModifyDerive<hook6<(anonymous namespace)::hook6Parent>, PlayLayer> >::~ModifyBase()
FUNC 1a540 350 0 geode::modifier::ModifyDerive<hook6<(anonymous namespace)::hook6Parent>, PlayLayer>::apply()
FUNC 1a890 2 0 geode::modifier::ModifyBase<geode::modifier::ModifyDerive<hook6<(anonymous namespace)::hook6Parent>, PlayLayer> >::apply()
FUNC 1a894 3d4 0 geode::modifier::AsStaticFunction_init<hook6<(anonymous namespace)::hook6Parent>, bool (hook6<(anonymous namespace)::hook6Parent>::*)(GJGameLevel*, bool, bool)>::Impl<bool (hook6<(anonymous namespace)::hook6Parent>::*)(GJGameLevel*, bool, bool)>::function(hook6<(anonymous namespace)::hook6Parent>*, GJGameLevel*, bool, bool)
FUNC 1ac68 2d0 0 __cxx_global_var_init
FUNC 1af38 20 0 geode::modifier::ModifyBase<geode::modifier::ModifyDerive<hook6<(anonymous namespace)::hook6Parent>, PlayerObject> >::~ModifyBase()
FUNC 1af60 1a04 0 geode::modifier::ModifyDerive<hook6<(anonymous namespace)::hook6Parent>, PlayerObject>::apply()
FUNC 1c964 2 0 geode::modifier::ModifyBase<geode::modifier::ModifyDerive<hook6<(anonymous namespace)::hook6Parent>, PlayerObject> >::apply()
FUNC 1c968 84 0 geode::addresser::getVirtual<void (PlayerObject::*)(cocos2d::_ccColor3B const&)>(void (PlayerObject::*)(cocos2d::_ccColor3B const&))
FUNC 1c9f0 108 0 geode::Hook::create<void (*)(hook6<(anonymous namespace)::hook6Parent>*, cocos2d::_ccColor3B const&)>(void*, void (*)(hook6<(anonymous namespace)::hook6Parent>*, cocos2d::_ccColor3B const&), std::__ndk1::basic_string<char, std::__ndk1::char_traits<char>, std::__ndk1::allocator<char> > const&, tulip::hook::TulipConvention, tulip::hook::HookMetadata const&)
FUNC 1caf8 b4 0 geode::modifier::AsStaticFunction_setColor<hook6<(anonymous namespace)::hook6Parent>, void (hook6<(anonymous namespace)::hook6Parent>::*)(cocos2d::_ccColor3B const&)>::Impl<void (hook6<(anonymous namespace)::hook6Parent>::*)(cocos2d::_ccColor3B const&)>::function(hook6<(anonymous namespace)::hook6Parent>*, cocos2d::_ccColor3B const&)
FUNC 1cbac cc 0 geode::Hook::create<void (*)(hook6<(anonymous namespace)::hook6Parent>*)>(void*, void (*)(hook6<(anonymous namespace)::hook6Parent>*), std::__ndk1::basic_string<char, std::__ndk1::char_traits<char>, std::__ndk1::allocator<char> > const&, tulip::hook::TulipConvention, tulip::hook::HookMetadata const&)
FUNC 1cc78 12c 0 geode::modifier::AsStaticFunction_playDeathEffect<hook6<(anonymous namespace)::hook6Parent>, void (hook6<(anonymous namespace)::hook6Parent>::*)()>::Impl<void (hook6<(anonymous namespace)::hook6Parent>::*)()>::function(hook6<(anonymous namespace)::hook6Parent>*)
FUNC 1cda4 b4 0 geode::modifier::AsStaticFunction_setSecondColor<hook6<(anonymous namespace)::hook6Parent>, void (hook6<(anonymous namespace)::hook6Parent>::*)(cocos2d::_ccColor3B const&)>::Impl<void (hook6<(anonymous namespace)::hook6Parent>::*)(cocos2d::_ccColor3B const&)>::function(hook6<(anonymous namespace)::hook6Parent>*, cocos2d::_ccColor3B const&)
FUNC 1ce58 13c 0 geode::modifier::AsStaticFunction_setupStreak<hook6<(anonymous namespace)::hook6Parent>, void (hook6<(anonymous namespace)::hook6Parent>::*)()>::Impl<void (hook6<(anonymous namespace)::hook6Parent>::*)()>::function(hook6<(anonymous namespace)::hook6Parent>*)
FUNC 1cf94 274 0 geode::modifier::AsStaticFunction_togglePlayerScale<hook6<(anonymous namespace)::hook6Parent>, void (hook6<(anonymous namespace)::hook6Parent>::*)(bool, bool)>::Impl<void (hook6<(anonymous namespace)::hook6Parent>::*)(bool, bool)>::function(hook6<(anonymous namespace)::hook6Parent>*, bool, bool)
FUNC 1d210 108 0 geode::Hook::create<void (*)(hook6<(anonymous namespace)::hook6Parent>*, int)>(void*, void (*)(hook6<(anonymous namespace)::hook6Parent>*, int), std::__ndk1::basic_string<char, std::__ndk1::char_traits<char>, std::__ndk1::allocator<char> > const&, tulip::hook::TulipConvention, tulip::hook::HookMetadata const&)
FUNC 1d318 98 0 geode::modifier::AsStaticFunction_updatePlayerBirdFrame<hook6<(anonymous namespace)::hook6Parent>, void (hook6<(anonymous namespace)::hook6Parent>::*)(int)>::Impl<void (hook6<(anonymous namespace)::hook6Parent>::*)(int)>::function(hook6<(anonymous namespace)::hook6Parent>*, int)
FUNC 1d3b0 98 0 geode::modifier::AsStaticFunction_updatePlayerDartFrame<hook6<(anonymous namespace)::hook6Parent>, void (hook6<(anonymous namespace)::hook6Parent>::*)(int)>::Impl<void (hook6<(anonymous namespace)::hook6Parent>::*)(int)>::function(hook6<(anonymous namespace)::hook6Parent>*, int)
FUNC 1d448 d0 0 geode::modifier::AsStaticFunction_updatePlayerFrame<hook6<(anonymous namespace)::hook6Parent>, void (hook6<(anonymous namespace)::hook6Parent>::*)(int)>::Impl<void (hook6<(anonymous namespace)::hook6Parent>::*)(int)>::function(hook6<(anonymous namespace)::hook6Parent>*, int)
FUNC 1d518 98 0 geode::modifier::AsStaticFunction_updatePlayerJetpackFrame<hook6<(anonymous namespace)::hook6Parent>, void (hook6<(anonymous namespace)::hook6Parent>::*)(int)>::Impl<void (hook6<(anonymous namespace)::hook6Parent>::*)(int)>::function(hook6<(anonymous namespace)::hook6Parent>*, int)
FUNC 1d5b0 d0 0 geode::modifier::AsStaticFunction_updatePlayerRollFrame<hook6<(anonymous namespace)::hook6Parent>, void (hook6<(anonymous namespace)::hook6Parent>::*)(int)>::Impl<void (hook6<(anonymous namespace)::hook6Parent>::*)(int)>::function(hook6<(anonymous namespace)::hook6Parent>*, int)
FUNC 1d680 98 0 geode::modifier::AsStaticFunction_updatePlayerShipFrame<hook6<(anonymous namespace)::hook6Parent>, void (hook6<(anonymous namespace)::hook6Parent>::*)(int)>::Impl<void (hook6<(anonymous namespace)::hook6Parent>::*)(int)>::function(hook6<(anonymous namespace)::hook6Parent>*, int)
FUNC 1d718 98 0 geode::modifier::AsStaticFunction_updatePlayerSwingFrame<hook6<(anonymous namespace)::hook6Parent>, void (hook6<(anonymous namespace)::hook6Parent>::*)(int)>::Impl<void (hook6<(anonymous namespace)::hook6Parent>::*)(int)>::function(hook6<(anonymous namespace)::hook6Parent>*, int)
FUNC 1d7b0 24c 0 PlayerObject::PlayerObject(geode::ZeroConstructorType)
FUNC 1d9fc 14 0 gd::map<int, bool>::~map()
FUNC 1da10 3a 0 geode::stl::unordered_map<int, GameObject*, geode::stl::hash<int>, geode::stl::equal_to<int>, std::__ndk1::allocator<std::__ndk1::pair<int const, GameObject*> > >::~unordered_map()
FUNC 1da4a 3a 0 geode::stl::unordered_map<int, GJPointDouble, geode::stl::hash<int>, geode::stl::equal_to<int>, std::__ndk1::allocator<std::__ndk1::pair<int const, GJPointDouble> > >::~unordered_map()
FUNC 1da84 38 0 GameObject::~GameObject()
FUNC 1dabc 2c 0 gd::map<int, bool>::erase(geode::stl::_rb_tree_node<std::__ndk1::pair<int, bool> >*)
FUNC 1dae8 114 0 geode::modifier::FieldIntermediate<hook6<(anonymous namespace)::hook6Parent>, PlayerObject>::operator->()
FUNC 1dbfc 2 0 geode::modifier::FieldIntermediate<hook6<(anonymous namespace)::hook6Parent>, PlayerObject>::fieldDestructor(void*)
FUNC 1dc00 4a4 0 __cxx_global_var_init
FUNC 1e0a4 20 0 geode::modifier::ModifyBase<geode::modifier::ModifyDerive<MyProfilePage, ProfilePage> >::~ModifyBase()
FUNC 1e0d0 5a8 0 geode::modifier::ModifyDerive<MyProfilePage, ProfilePage>::apply()
FUNC 1e678 2 0 geode::modifier::ModifyBase<geode::modifier::ModifyDerive<MyProfilePage, ProfilePage> >::apply()
FUNC 1e67a 5c 0 std::__ndk1::unique_ptr<std::__ndk1::__tree_node<std::__ndk1::__value_type<std::__ndk1::basic_string<char, std::__ndk1::char_traits<char>, std::__ndk1::allocator<char> >, std::__ndk1::shared_ptr<geode::Hook> >, void*>, std::__ndk1::__tree_node_destructor<std::__ndk1::allocator<std::__ndk1::__tree_node<std::__ndk1::__value_type<std::__ndk1::basic_string<char, std::__ndk1::char_traits<char>, std::__ndk1::allocator<char> >, std::__ndk1::shared_ptr<geode::Hook> >, void*> > > >::~unique_ptr[abi:ne180000]()
FUNC 1e6d8 104 0 _ZN5geode15UnwrapExceptionC2IRNSt6__ndk112basic_stringIcNS2_11char_traitsIcEENS2_9allocatorIcEEEEQsr4implE18IsStringStreamableIT_EEENS_4impl6ErrTagEOSA_
FUNC 1e7dc 2 0 std::__ndk1::__variant_detail::__visitation::__base::__dispatcher<(unsigned int)0>::__dispatch[abi:ne180000]<std::__ndk1::__variant_detail::__dtor<std::__ndk1::__variant_detail::__traits<std::__ndk1::monostate, std::__ndk1::basic_string<char, std::__ndk1::char_traits<char>, std::__ndk1::allocator<char> > >, (std::__ndk1::__variant_detail::_Trait)1>::__destroy[abi:ne180000]()::{lambda(auto:1&)#1}, std::__ndk1::__variant_detail::__base<(std::__ndk1::__variant_detail::__traits<std::__ndk1::monostate, std::__ndk1::basic_string<char, std::__ndk1::char_traits<char>, std::__ndk1::allocator<char> > >)1, std::__ndk1::__variant_detail::__traits, std::__ndk1::allocator<char> >&>(std::__ndk1::__variant_detail::__dtor<std::__ndk1::__variant_detail::__traits<std::__ndk1::monostate, std::__ndk1::basic_string<char, std::__ndk1::char_traits<char>, std::__ndk1::allocator<char> > >, (std::__ndk1::__variant_detail::_Trait)1>, std::__ndk1::__variant_detail::__base<(std::__ndk1::__variant_detail::__traits<std::__ndk1::monostate, std::__ndk1::basic_string<char, std::__ndk1::char_traits<char>, std::__ndk1::allocator<char> > >)1, std::__ndk1::__variant_detail::__traits, std::__ndk1::allocator<char> >&)
FUNC 1e7de e 0 std::__ndk1::__variant_detail::__visitation::__base::__dispatcher<(unsigned int)1>::__dispatch[abi:ne180000]<std::__ndk1::__variant_detail::__dtor<std::__ndk1::__variant_detail::__traits<std::__ndk1::monostate, std::__ndk1::basic_string<char, std::__ndk1::char_traits<char>, std::__ndk1::allocator<char> > >, (std::__ndk1::__variant_detail::_Trait)1>::__destroy[abi:ne180000]()::{lambda(auto:1&)#1}, std::__ndk1::__variant_detail::__base<(std::__ndk1::__variant_detail::__traits<std::__ndk1::monostate, std::__ndk1::basic_string<char, std::__ndk1::char_traits<char>, std::__ndk1::allocator<char> > >)1, std::__ndk1::__variant_detail::__traits, std::__ndk1::allocator<char> >&>(std::__ndk1::__variant_detail::__dtor<std::__ndk1::__variant_detail::__traits<std::__ndk1::monostate, std::__ndk1::basic_string<char, std::__ndk1::char_traits<char>, std::__ndk1::allocator<char> > >, (std::__ndk1::__variant_detail::_Trait)1>, std::__ndk1::__variant_detail::__base<(std::__ndk1::__variant_detail::__traits<std::__ndk1::monostate, std::__ndk1::basic_string<char, std::__ndk1::char_traits<char>, std::__ndk1::allocator<char> > >)1, std::__ndk1::__variant_detail::__traits, std::__ndk1::allocator<char> >&)
FUNC 1e7ec 8a4 0 geode::modifier::AsStaticFunction_loadPageFromUserInfo<MyProfilePage, void (MyProfilePage::*)(GJUserScore*)>::Impl<void (MyProfilePage::*)(GJUserScore*)>::function(MyProfilePage*, GJUserScore*)
FUNC 1f090 10c 0 geode::modifier::AsStaticFunction_toggleShip<MyProfilePage, void (MyProfilePage::*)(cocos2d::CCObject*)>::Impl<void (MyProfilePage::*)(cocos2d::CCObject*)>::function(MyProfilePage*, cocos2d::CCObject*)
FUNC 1f19c 15dc 0 MyProfilePage::on2PToggle(cocos2d::CCObject*)
FUNC 20778 118 0 geode::modifier::FieldIntermediate<MyProfilePage, ProfilePage>::self()
FUNC 20890 2 0 geode::modifier::FieldIntermediate<MyProfilePage, ProfilePage>::fieldDestructor(void*)
FUNC 20894 20 0 geodeImplicitEntry
FUNC 208b4 28 0 std::__ndk1::unordered_map<void*, bool, std::__ndk1::hash<void*>, std::__ndk1::equal_to<void*>, std::__ndk1::allocator<std::__ndk1::pair<void* const, bool> > >::~unordered_map[abi:ne180000]()
FUNC 208dc cc 0 wrapFunction(unsigned int, tulip::hook::WrapperMetadata const&)
FUNC 209a8 48 0 geode::impl::ResultData<void*, std::__ndk1::basic_string<char, std::__ndk1::char_traits<char>, std::__ndk1::allocator<char> > >::unwrapErr() &
FUNC 209f0 60 0 geode::impl::ResultData<void*, std::__ndk1::basic_string<char, std::__ndk1::char_traits<char>, std::__ndk1::allocator<char> > >::~ResultData()
FUNC 20a50 46 0 tulip::hook::WrapperMetadata::~WrapperMetadata()
FUNC 20a96 10 0 cocos2d::CCObject::~CCObject()
FUNC 20aa6 10 0 cocos2d::CCNode::~CCNode()
FUNC 20ab6 10 0 cocos2d::CCNodeRGBA::~CCNodeRGBA()
FUNC 20ac6 8 0 {virtual override thunk({offset(-264)}, cocos2d::CCLayer::~CCLayer())}
FUNC 20ace 10 0 cocos2d::CCLayer::~CCLayer()
FUNC 20ade 14 0 {virtual override thunk({offset(-264)}, cocos2d::CCLayer::~CCLayer())}
FUNC 20af2 10 0 cocos2d::CCSprite::~CCSprite()
FUNC 20b04 228 0 cocos2d::CCNodeRGBA::~CCNodeRGBA()
FUNC 20d2c 240 0 cocos2d::CCSprite::~CCSprite()
FUNC 20f6c d48 0 GJBaseGameLayer::~GJBaseGameLayer()
FUNC 21cb4 8 0 {virtual override thunk({offset(-264)}, GJBaseGameLayer::~GJBaseGameLayer())}
FUNC 21cbc 10 0 GJBaseGameLayer::~GJBaseGameLayer()
FUNC 21ccc 14 0 {virtual override thunk({offset(-264)}, GJBaseGameLayer::~GJBaseGameLayer())}
FUNC 21ce0 f0 0 GJBaseGameLayer::toggleGroupTriggered(int, bool, gd::vector<int> const&, int, int)
FUNC 21dd0 470 0 tulip::hook::AbstractFunction::from<void, GJBaseGameLayer*, int, bool, gd::vector<int> const&, int, int>(void (*)(GJBaseGameLayer*, int, bool, gd::vector<int> const&, int, int))
FUNC 22240 18 0 {virtual override thunk({offset(-316)}, GJBaseGameLayer::toggleGroupTriggered(int, bool, gd::vector<int> const&, int, int))}
FUNC 22258 fc 0 GJBaseGameLayer::spawnGroup(int, bool, double, gd::vector<int> const&, int, int)
FUNC 22360 570 0 tulip::hook::AbstractFunction::from<void, GJBaseGameLayer*, int, bool, double, gd::vector<int> const&, int, int>(void (*)(GJBaseGameLayer*, int, bool, double, gd::vector<int> const&, int, int))
FUNC 228d0 24 0 {virtual override thunk({offset(-316)}, GJBaseGameLayer::spawnGroup(int, bool, double, gd::vector<int> const&, int, int))}
FUNC 228f4 ec 0 GJBaseGameLayer::spawnObject(GameObject*, double, gd::vector<int> const&)
FUNC 229e0 260 0 tulip::hook::AbstractFunction::from<void, GJBaseGameLayer*, GameObject*, double, gd::vector<int> const&>(void (*)(GJBaseGameLayer*, GameObject*, double, gd::vector<int> const&))
FUNC 22c40 10 0 {virtual override thunk({offset(-316)}, GJBaseGameLayer::spawnObject(GameObject*, double, gd::vector<int> const&))}
FUNC 22c50 e8 0 GJBaseGameLayer::activatePlatformerEndTrigger(EndTriggerGameObject*, gd::vector<int> const&)
FUNC 22d40 b0 0 tulip::hook::AbstractFunction::from<void, GJBaseGameLayer*, EndTriggerGameObject*, gd::vector<int> const&>(void (*)(GJBaseGameLayer*, EndTriggerGameObject*, gd::vector<int> const&))
FUNC 22df0 2 0 GJBaseGameLayer::toggleGlitter(bool)
FUNC 22df2 4 0 GJBaseGameLayer::timeForPos(cocos2d::CCPoint, int, int, bool, int)
FUNC 22df6 8 0 GJBaseGameLayer::posForTime(float)
FUNC 22dfe 2 0 GJBaseGameLayer::resetSPTriggered()
FUNC 22e00 ec 0 GJBaseGameLayer::createCustomParticle(gd::string const&, cocos2d::ParticleStruct const&, int, bool)
FUNC 22ef0 360 0 tulip::hook::AbstractFunction::from<TodoReturnPlaceholder, GJBaseGameLayer*, gd::string const&, cocos2d::ParticleStruct const&, int, bool>(TodoReturnPlaceholder (*)(GJBaseGameLayer*, gd::string const&, cocos2d::ParticleStruct const&, int, bool))
FUNC 23250 fc 0 GJBaseGameLayer::claimCustomParticle(gd::string const&, cocos2d::ParticleStruct const&, int, int, int, bool)
FUNC 23350 570 0 tulip::hook::AbstractFunction::from<TodoReturnPlaceholder, GJBaseGameLayer*, gd::string const&, cocos2d::ParticleStruct const&, int, int, int, bool>(TodoReturnPlaceholder (*)(GJBaseGameLayer*, gd::string const&, cocos2d::ParticleStruct const&, int, int, int, bool))
FUNC 238c0 e8 0 GJBaseGameLayer::unclaimCustomParticle(gd::string const&, cocos2d::CCParticleSystemQuad*)
FUNC 239b0 b0 0 tulip::hook::AbstractFunction::from<TodoReturnPlaceholder, GJBaseGameLayer*, gd::string const&, cocos2d::CCParticleSystemQuad*>(TodoReturnPlaceholder (*)(GJBaseGameLayer*, gd::string const&, cocos2d::CCParticleSystemQuad*))
FUNC 23a60 4 0 cocos2d::CCCopying::copyWithZone(cocos2d::CCZone*)
FUNC 23a64 2 0 cocos2d::CCObject::update(float)
FUNC 23a66 2 0 cocos2d::CCNodeRGBA::setOpacityModifyRGB(bool)
FUNC 23a68 4 0 cocos2d::CCNodeRGBA::isOpacityModifyRGB()
FUNC 23a6c 2 0 {virtual override thunk({offset(-264)}, cocos2d::CCNodeRGBA::setOpacityModifyRGB(bool))}
FUNC 23a6e 4 0 {virtual override thunk({offset(-264)}, cocos2d::CCNodeRGBA::isOpacityModifyRGB())}
FUNC 23a72 6 0 cocos2d::CCSprite::setBlendFunc(cocos2d::_ccBlendFunc)
FUNC 23a78 a 0 cocos2d::CCSprite::getBlendFunc()
FUNC 23a82 6 0 cocos2d::CCSprite::isDirty()
FUNC 23a88 6 0 cocos2d::CCSprite::setDirty(bool)
FUNC 23a8e 6 0 {virtual override thunk({offset(-280)}, cocos2d::CCSprite::setBlendFunc(cocos2d::_ccBlendFunc))}
FUNC 23a94 a 0 {virtual override thunk({offset(-280)}, cocos2d::CCSprite::getBlendFunc())}
FUNC 23a9e 2 0 cocos2d::CCKeyboardDelegate::keyUp(cocos2d::enumKeyCodes)
FUNC 23aa0 2 0 cocos2d::CCMouseDelegate::rightKeyDown()
FUNC 23aa2 2 0 cocos2d::CCMouseDelegate::rightKeyUp()
FUNC 23aa4 2 0 cocos2d::CCMouseDelegate::scrollWheel(float, float)
FUNC 23aa8 214 0 cocos2d::CCNode::~CCNode()
FUNC 23cbc 25c 0 cocos2d::CCLayer::~CCLayer()
FUNC 23f18 410 0 cocos2d::CCObject::~CCObject()
FUNC 24328 f8 0 _ZN5geode15UnwrapExceptionC2IRPvQsr4implE18IsStringStreamableIT_EEENS_4impl5OkTagEOS4_
FUNC 24420 2 0 std::__ndk1::__variant_detail::__visitation::__base::__dispatcher<(unsigned int)0>::__dispatch[abi:ne180000]<std::__ndk1::__variant_detail::__dtor<std::__ndk1::__variant_detail::__traits<void*, std::__ndk1::basic_string<char, std::__ndk1::char_traits<char>, std::__ndk1::allocator<char> > >, (std::__ndk1::__variant_detail::_Trait)1>::__destroy[abi:ne180000]()::{lambda(auto:1&)#1}, std::__ndk1::__variant_detail::__base<(std::__ndk1::__variant_detail::__traits<void*, std::__ndk1::basic_string<char, std::__ndk1::char_traits<char>, std::__ndk1::allocator<char> > >)1, std::__ndk1::__variant_detail::__traits, std::__ndk1::allocator<char> >&>(std::__ndk1::__variant_detail::__dtor<std::__ndk1::__variant_detail::__traits<void*, std::__ndk1::basic_string<char, std::__ndk1::char_traits<char>, std::__ndk1::allocator<char> > >, (std::__ndk1::__variant_detail::_Trait)1>, std::__ndk1::__variant_detail::__base<(std::__ndk1::__variant_detail::__traits<void*, std::__ndk1::basic_string<char, std::__ndk1::char_traits<char>, std::__ndk1::allocator<char> > >)1, std::__ndk1::__variant_detail::__traits, std::__ndk1::allocator<char> >&)
FUNC 24422 e 0 std::__ndk1::__variant_detail::__visitation::__base::__dispatcher<(unsigned int)1>::__dispatch[abi:ne180000]<std::__ndk1::__variant_detail::__dtor<std::__ndk1::__variant_detail::__traits<void*, std::__ndk1::basic_string<char, std::__ndk1::char_traits<char>, std::__ndk1::allocator<char> > >, (std::__ndk1::__variant_detail::_Trait)1>::__destroy[abi:ne180000]()::{lambda(auto:1&)#1}, std::__ndk1::__variant_detail::__base<(std::__ndk1::__variant_detail::__traits<void*, std::__ndk1::basic_string<char, std::__ndk1::char_traits<char>, std::__ndk1::allocator<char> > >)1, std::__ndk1::__variant_detail::__traits, std::__ndk1::allocator<char> >&>(std::__ndk1::__variant_detail::__dtor<std::__ndk1::__variant_detail::__traits<void*, std::__ndk1::basic_string<char, std::__ndk1::char_traits<char>, std::__ndk1::allocator<char> > >, (std::__ndk1::__variant_detail::_Trait)1>, std::__ndk1::__variant_detail::__base<(std::__ndk1::__variant_detail::__traits<void*, std::__ndk1::basic_string<char, std::__ndk1::char_traits<char>, std::__ndk1::allocator<char> > >)1, std::__ndk1::__variant_detail::__traits, std::__ndk1::allocator<char> >&)
FUNC 24430 3f2 0 std::__ndk1::__hash_table<std::__ndk1::__hash_value_type<void*, bool>, std::__ndk1::__unordered_map_hasher<void*, std::__ndk1::__hash_value_type<void*, bool>, std::__ndk1::hash<void*>, std::__ndk1::equal_to<void*>, true>, std::__ndk1::__unordered_map_equal<void*, std::__ndk1::__hash_value_type<void*, bool>, std::__ndk1::equal_to<void*>, std::__ndk1::hash<void*>, true>, std::__ndk1::allocator<std::__ndk1::__hash_value_type<void*, bool> > >::__emplace_unique_key_args<void*, std::__ndk1::piecewise_construct_t const&, std::__ndk1::tuple<void* const&>, std::__ndk1::tuple<> >(void* const&, std::__ndk1::piecewise_construct_t const&, std::__ndk1::tuple<void* const&>, std::__ndk1::tuple<>)
PUBLIC 24825 0 __ThumbV7PILongThunk__ZdlPv
PUBLIC 24831 0 __ThumbV7PILongThunk__ZN5geode9addresser9Addresser19followThunkFunctionEi
PUBLIC 2483d 0 __ThumbV7PILongThunk___cxa_atexit
PUBLIC 24849 0 __ThumbV7PILongThunk__ZN12PlayerObject21updatePlayerRollFrameEi
PUBLIC 24855 0 __ThumbV7PILongThunk__ZN12PlayerObject17updatePlayerFrameEi
PUBLIC 24860 0 <.plt ELF section in weebify.separate_dual_icons.android32.so>
STACK CFI INIT d2e4 2d0 .cfa: sp 0 +
STACK CFI d2e6 .cfa: sp 20 + .ra: .cfa -4 + ^ r7: .cfa -8 + ^ r6: .cfa -12 + ^ r5: .cfa -16 + ^ r4: .cfa -20 + ^
STACK CFI d2e8 .cfa: r7 8 +
STACK CFI d2ec r11: .cfa -24 + ^ r10: .cfa -28 + ^ r9: .cfa -32 + ^ r8: .cfa -36 + ^
STACK CFI INIT d5b4 20 .cfa: sp 0 +
STACK CFI d5b6 .cfa: sp 16 + .ra: .cfa -4 + ^ r7: .cfa -8 + ^ r6: .cfa -12 + ^ r4: .cfa -16 + ^
STACK CFI d5b8 .cfa: r7 8 +
STACK CFI INIT d5d4 b00 .cfa: sp 0 +
STACK CFI d5d6 .cfa: sp 20 + .ra: .cfa -4 + ^ r7: .cfa -8 + ^ r6: .cfa -12 + ^ r5: .cfa -16 + ^ r4: .cfa -20 + ^
STACK CFI d5d8 .cfa: r7 8 +
STACK CFI d5dc r8: .cfa -24 + ^
STACK CFI INIT e0d4 20 .cfa: sp 0 +
STACK CFI e0d6 .cfa: sp 16 + .ra: .cfa -4 + ^ r7: .cfa -8 + ^ r6: .cfa -12 + ^ r4: .cfa -16 + ^
STACK CFI e0d8 .cfa: r7 8 +
STACK CFI INIT e0f4 3a .cfa: sp 0 +
STACK CFI e0f6 .cfa: sp 16 + .ra: .cfa -4 + ^ r7: .cfa -8 + ^ r5: .cfa -12 + ^ r4: .cfa -16 + ^
STACK CFI e0f8 .cfa: r7 8 +
STACK CFI INIT e130 60 .cfa: sp 0 +
STACK CFI e132 .cfa: sp 16 + .ra: .cfa -4 + ^ r7: .cfa -8 + ^ r6: .cfa -12 + ^ r4: .cfa -16 + ^
STACK CFI e134 .cfa: r7 8 +
STACK CFI INIT e190 3e .cfa: sp 0 +
STACK CFI e192 .cfa: sp 20 + .ra: .cfa -4 + ^ r7: .cfa -8 + ^ r6: .cfa -12 + ^ r5: .cfa -16 + ^ r4: .cfa -20 + ^
STACK CFI e194 .cfa: r7 8 +
STACK CFI e198 r11: .cfa -24 + ^
STACK CFI INIT e1ce 2 .cfa: sp 0 +
STACK CFI INIT e1d0 c .cfa: sp 0 +
STACK CFI e1d2 .cfa: sp 8 + .ra: .cfa -4 + ^ r7: .cfa -8 + ^
STACK CFI e1d4 .cfa: r7 8 +
STACK CFI INIT e1dc f8 .cfa: sp 0 +
STACK CFI e1de .cfa: sp 20 + .ra: .cfa -4 + ^ r7: .cfa -8 + ^ r6: .cfa -12 + ^ r5: .cfa -16 + ^ r4: .cfa -20 + ^
STACK CFI e1e0 .cfa: r7 8 +
STACK CFI e1e4 r8: .cfa -24 + ^
STACK CFI INIT e2d4 34 .cfa: sp 0 +
STACK CFI e2d6 .cfa: sp 8 + .ra: .cfa -4 + ^ r7: .cfa -8 + ^
STACK CFI e2d8 .cfa: r7 8 +
STACK CFI INIT e308 d8 .cfa: sp 0 +
STACK CFI e30a .cfa: sp 20 + .ra: .cfa -4 + ^ r7: .cfa -8 + ^ r6: .cfa -12 + ^ r5: .cfa -16 + ^ r4: .cfa -20 + ^
STACK CFI e30c .cfa: r7 8 +
STACK CFI e310 r11: .cfa -24 + ^ r10: .cfa -28 + ^ r9: .cfa -32 + ^ r8: .cfa -36 + ^
STACK CFI INIT e3e0 68 .cfa: sp 0 +
STACK CFI e3e2 .cfa: sp 20 + .ra: .cfa -4 + ^ r7: .cfa -8 + ^ r6: .cfa -12 + ^ r5: .cfa -16 + ^ r4: .cfa -20 + ^
STACK CFI e3e4 .cfa: r7 8 +
STACK CFI e3e8 r11: .cfa -24 + ^
STACK CFI INIT e448 10 .cfa: sp 0 +
STACK CFI e44a .cfa: sp 8 + .ra: .cfa -4 + ^ r7: .cfa -8 + ^
STACK CFI e44c .cfa: r7 8 +
STACK CFI INIT e458 108 .cfa: sp 0 +
STACK CFI e45a .cfa: sp 20 + .ra: .cfa -4 + ^ r7: .cfa -8 + ^ r6: .cfa -12 + ^ r5: .cfa -16 + ^ r4: .cfa -20 + ^
STACK CFI e45c .cfa: r7 8 +
STACK CFI e460 r11: .cfa -24 + ^ r10: .cfa -28 + ^ r9: .cfa -32 + ^ r8: .cfa -36 + ^
STACK CFI INIT e560 110 .cfa: sp 0 +
STACK CFI e562 .cfa: sp 20 + .ra: .cfa -4 + ^ r7: .cfa -8 + ^ r6: .cfa -12 + ^ r5: .cfa -16 + ^ r4: .cfa -20 + ^
STACK CFI e564 .cfa: r7 8 +
STACK CFI e568 r11: .cfa -24 + ^ r10: .cfa -28 + ^ r9: .cfa -32 + ^ r8: .cfa -36 + ^
STACK CFI INIT e670 10 .cfa: sp 0 +
STACK CFI e672 .cfa: sp 8 + .ra: .cfa -4 + ^ r7: .cfa -8 + ^
STACK CFI e674 .cfa: r7 8 +
STACK CFI INIT e680 38 .cfa: sp 0 +
STACK CFI e682 .cfa: sp 16 + .ra: .cfa -4 + ^ r7: .cfa -8 + ^ r5: .cfa -12 + ^ r4: .cfa -16 + ^
STACK CFI e684 .cfa: r7 8 +
STACK CFI INIT e6b8 18 .cfa: sp 0 +
STACK CFI e6ba .cfa: sp 8 + .ra: .cfa -4 + ^ r7: .cfa -8 + ^
STACK CFI e6bc .cfa: r7 8 +
STACK CFI INIT e6d0 28 .cfa: sp 0 +
STACK CFI e6d2 .cfa: sp 8 + .ra: .cfa -4 + ^ r7: .cfa -8 + ^
STACK CFI e6d4 .cfa: r7 8 +
STACK CFI INIT e6f8 ce .cfa: sp 0 +
STACK CFI e6fa .cfa: sp 20 + .ra: .cfa -4 + ^ r7: .cfa -8 + ^ r6: .cfa -12 + ^ r5: .cfa -16 + ^ r4: .cfa -20 + ^
STACK CFI e6fc .cfa: r7 8 +
STACK CFI e700 r10: .cfa -24 + ^ r9: .cfa -28 + ^ r8: .cfa -32 + ^
STACK CFI INIT e7c6 e0 .cfa: sp 0 +
STACK CFI e7c8 .cfa: sp 20 + .ra: .cfa -4 + ^ r7: .cfa -8 + ^ r6: .cfa -12 + ^ r5: .cfa -16 + ^ r4: .cfa -20 + ^
STACK CFI e7ca .cfa: r7 8 +
STACK CFI e7ce r11: .cfa -24 + ^ r9: .cfa -28 + ^ r8: .cfa -32 + ^
STACK CFI INIT e8a8 164 .cfa: sp 0 +
STACK CFI e8aa .cfa: sp 20 + .ra: .cfa -4 + ^ r7: .cfa -8 + ^ r6: .cfa -12 + ^ r5: .cfa -16 + ^ r4: .cfa -20 + ^
STACK CFI e8ac .cfa: r7 8 +
STACK CFI e8b0 r10: .cfa -24 + ^ r9: .cfa -28 + ^ r8: .cfa -32 + ^
STACK CFI INIT ea0c 46 .cfa: sp 0 +
STACK CFI ea0e .cfa: sp 20 + .ra: .cfa -4 + ^ r7: .cfa -8 + ^ r6: .cfa -12 + ^ r5: .cfa -16 + ^ r4: .cfa -20 + ^
STACK CFI ea10 .cfa: r7 8 +
STACK CFI ea14 r8: .cfa -24 + ^
STACK CFI INIT ea52 3c .cfa: sp 0 +
STACK CFI ea54 .cfa: sp 16 + .ra: .cfa -4 + ^ r7: .cfa -8 + ^ r5: .cfa -12 + ^ r4: .cfa -16 + ^
STACK CFI ea56 .cfa: r7 8 +
STACK CFI INIT ea90 10 .cfa: sp 0 +
STACK CFI ea92 .cfa: sp 8 + .ra: .cfa -4 + ^ r7: .cfa -8 + ^
STACK CFI ea94 .cfa: r7 8 +
STACK CFI INIT eaa0 2 .cfa: sp 0 +
STACK CFI INIT eaa2 e .cfa: sp 0 +
STACK CFI INIT eab0 c0 .cfa: sp 0 +
STACK CFI eab2 .cfa: sp 20 + .ra: .cfa -4 + ^ r7: .cfa -8 + ^ r6: .cfa -12 + ^ r5: .cfa -16 + ^ r4: .cfa -20 + ^
STACK CFI eab4 .cfa: r7 8 +
STACK CFI eab8 r10: .cfa -24 + ^ r9: .cfa -28 + ^ r8: .cfa -32 + ^
STACK CFI INIT eb70 82 .cfa: sp 0 +
STACK CFI eb72 .cfa: sp 20 + .ra: .cfa -4 + ^ r7: .cfa -8 + ^ r6: .cfa -12 + ^ r5: .cfa -16 + ^ r4: .cfa -20 + ^
STACK CFI eb74 .cfa: r7 8 +
STACK CFI eb78 r11: .cfa -24 + ^
STACK CFI INIT ebf2 274 .cfa: sp 0 +
STACK CFI ebf4 .cfa: sp 20 + .ra: .cfa -4 + ^ r7: .cfa -8 + ^ r6: .cfa -12 + ^ r5: .cfa -16 + ^ r4: .cfa -20 + ^
STACK CFI ebf6 .cfa: r7 8 +
STACK CFI ebfa r8: .cfa -24 + ^
STACK CFI INIT ee66 5e .cfa: sp 0 +
STACK CFI ee6e .cfa: sp 16 + .ra: .cfa -4 + ^ r7: .cfa -8 + ^ r5: .cfa -12 + ^ r4: .cfa -16 + ^
STACK CFI ee70 .cfa: r7 8 +
STACK CFI INIT eec4 7c .cfa: sp 0 +
STACK CFI eec6 .cfa: sp 16 + .ra: .cfa -4 + ^ r7: .cfa -8 + ^ r6: .cfa -12 + ^ r4: .cfa -16 + ^
STACK CFI eec8 .cfa: r7 8 +
STACK CFI INIT ef40 fb0 .cfa: sp 0 +
STACK CFI ef42 .cfa: sp 20 + .ra: .cfa -4 + ^ r7: .cfa -8 + ^ r6: .cfa -12 + ^ r5: .cfa -16 + ^ r4: .cfa -20 + ^
STACK CFI ef44 .cfa: r7 8 +
STACK CFI ef48 r11: .cfa -24 + ^ r10: .cfa -28 + ^ r9: .cfa -32 + ^ r8: .cfa -36 + ^
STACK CFI INIT fef0 108 .cfa: sp 0 +
STACK CFI fef2 .cfa: sp 20 + .ra: .cfa -4 + ^ r7: .cfa -8 + ^ r6: .cfa -12 + ^ r5: .cfa -16 + ^ r4: .cfa -20 + ^
STACK CFI fef4 .cfa: r7 8 +
STACK CFI fef8 r11: .cfa -24 + ^ r10: .cfa -28 + ^ r9: .cfa -32 + ^ r8: .cfa -36 + ^
STACK CFI INIT fff8 448 .cfa: sp 0 +
STACK CFI fffa .cfa: sp 20 + .ra: .cfa -4 + ^ r7: .cfa -8 + ^ r6: .cfa -12 + ^ r5: .cfa -16 + ^ r4: .cfa -20 + ^
STACK CFI fffc .cfa: r7 8 +
STACK CFI 10000 r11: .cfa -24 + ^ r10: .cfa -28 + ^ r9: .cfa -32 + ^ r8: .cfa -36 + ^
STACK CFI INIT 10440 ad0 .cfa: sp 0 +
STACK CFI 10442 .cfa: sp 20 + .ra: .cfa -4 + ^ r7: .cfa -8 + ^ r6: .cfa -12 + ^ r5: .cfa -16 + ^ r4: .cfa -20 + ^
STACK CFI 10444 .cfa: r7 8 +
STACK CFI 10448 r11: .cfa -24 + ^ r10: .cfa -28 + ^ r9: .cfa -32 + ^ r8: .cfa -36 + ^
STACK CFI INIT 10f10 430 .cfa: sp 0 +
STACK CFI 10f12 .cfa: sp 20 + .ra: .cfa -4 + ^ r7: .cfa -8 + ^ r6: .cfa -12 + ^ r5: .cfa -16 + ^ r4: .cfa -20 + ^
STACK CFI 10f14 .cfa: r7 8 +
STACK CFI 10f18 r11: .cfa -24 + ^ r10: .cfa -28 + ^ r9: .cfa -32 + ^ r8: .cfa -36 + ^
STACK CFI INIT 11340 164 .cfa: sp 0 +
STACK CFI 11342 .cfa: sp 20 + .ra: .cfa -4 + ^ r7: .cfa -8 + ^ r6: .cfa -12 + ^ r5: .cfa -16 + ^ r4: .cfa -20 + ^
STACK CFI 11344 .cfa: r7 8 +
STACK CFI 11348 r8: .cfa -24 + ^
STACK CFI INIT 114a4 70 .cfa: sp 0 +
STACK CFI 114a6 .cfa: sp 16 + .ra: .cfa -4 + ^ r7: .cfa -8 + ^ r6: .cfa -12 + ^ r4: .cfa -16 + ^
STACK CFI 114a8 .cfa: r7 8 +
STACK CFI INIT 11514 3a .cfa: sp 0 +
STACK CFI 11516 .cfa: sp 16 + .ra: .cfa -4 + ^ r7: .cfa -8 + ^ r5: .cfa -12 + ^ r4: .cfa -16 + ^
STACK CFI 11518 .cfa: r7 8 +
STACK CFI INIT 1154e 46 .cfa: sp 0 +
STACK CFI 11550 .cfa: sp 16 + .ra: .cfa -4 + ^ r7: .cfa -8 + ^ r5: .cfa -12 + ^ r4: .cfa -16 + ^
STACK CFI 11552 .cfa: r7 8 +
STACK CFI INIT 11594 148 .cfa: sp 0 +
STACK CFI 11596 .cfa: sp 20 + .ra: .cfa -4 + ^ r7: .cfa -8 + ^ r6: .cfa -12 + ^ r5: .cfa -16 + ^ r4: .cfa -20 + ^
STACK CFI 11598 .cfa: r7 8 +
STACK CFI 1159c r11: .cfa -24 + ^ r10: .cfa -28 + ^ r9: .cfa -32 + ^ r8: .cfa -36 + ^
STACK CFI INIT 116dc 14c .cfa: sp 0 +
STACK CFI 116de .cfa: sp 20 + .ra: .cfa -4 + ^ r7: .cfa -8 + ^ r6: .cfa -12 + ^ r5: .cfa -16 + ^ r4: .cfa -20 + ^
STACK CFI 116e0 .cfa: r7 8 +
STACK CFI 116e4 r11: .cfa -24 + ^ r10: .cfa -28 + ^ r9: .cfa -32 + ^ r8: .cfa -36 + ^
STACK CFI INIT 11828 e0 .cfa: sp 0 +
STACK CFI 1182a .cfa: sp 20 + .ra: .cfa -4 + ^ r7: .cfa -8 + ^ r6: .cfa -12 + ^ r5: .cfa -16 + ^ r4: .cfa -20 + ^
STACK CFI 1182c .cfa: r7 8 +
STACK CFI 11830 r11: .cfa -24 + ^ r9: .cfa -28 + ^ r8: .cfa -32 + ^
STACK CFI INIT 11908 60 .cfa: sp 0 +
STACK CFI 1190a .cfa: sp 16 + .ra: .cfa -4 + ^ r7: .cfa -8 + ^ r6: .cfa -12 + ^ r4: .cfa -16 + ^
STACK CFI 1190c .cfa: r7 8 +
STACK CFI INIT 11968 2 .cfa: sp 0 +
STACK CFI INIT 1196a e .cfa: sp 0 +
STACK CFI INIT 11978 2 .cfa: sp 0 +
STACK CFI INIT 1197a e .cfa: sp 0 +
STACK CFI INIT 11988 c8 .cfa: sp 0 +
STACK CFI 1198a .cfa: sp 16 + .ra: .cfa -4 + ^ r7: .cfa -8 + ^ r6: .cfa -12 + ^ r4: .cfa -16 + ^
STACK CFI 1198c .cfa: r7 8 +
STACK CFI INIT 11a50 2 .cfa: sp 0 +
STACK CFI INIT 11a52 e .cfa: sp 0 +
STACK CFI INIT 11a60 8c .cfa: sp 0 +
STACK CFI 11a62 .cfa: sp 20 + .ra: .cfa -4 + ^ r7: .cfa -8 + ^ r6: .cfa -12 + ^ r5: .cfa -16 + ^ r4: .cfa -20 + ^
STACK CFI 11a64 .cfa: r7 8 +
STACK CFI 11a68 r11: .cfa -24 + ^ r9: .cfa -28 + ^ r8: .cfa -32 + ^
STACK CFI INIT 11aec ba .cfa: sp 0 +
STACK CFI 11aee .cfa: sp 20 + .ra: .cfa -4 + ^ r7: .cfa -8 + ^ r6: .cfa -12 + ^ r5: .cfa -16 + ^ r4: .cfa -20 + ^
STACK CFI 11af0 .cfa: r7 8 +
STACK CFI 11af4 r11: .cfa -24 + ^ r10: .cfa -28 + ^ r9: .cfa -32 + ^ r8: .cfa -36 + ^
STACK CFI INIT 11ba6 14a .cfa: sp 0 +
STACK CFI 11bb8 .cfa: sp 16 + .ra: .cfa -4 + ^ r7: .cfa -8 + ^ r6: .cfa -12 + ^ r4: .cfa -16 + ^
STACK CFI 11bba .cfa: r7 8 +
STACK CFI INIT 11cf0 118 .cfa: sp 0 +
STACK CFI 11cf2 .cfa: sp 20 + .ra: .cfa -4 + ^ r7: .cfa -8 + ^ r6: .cfa -12 + ^ r5: .cfa -16 + ^ r4: .cfa -20 + ^
STACK CFI 11cf4 .cfa: r7 8 +
STACK CFI 11cf8 r11: .cfa -24 + ^
STACK CFI INIT 11e08 1c0 .cfa: sp 0 +
STACK CFI 11e0a .cfa: sp 20 + .ra: .cfa -4 + ^ r7: .cfa -8 + ^ r6: .cfa -12 + ^ r5: .cfa -16 + ^ r4: .cfa -20 + ^
STACK CFI 11e0c .cfa: r7 8 +
STACK CFI 11e10 r11: .cfa -24 + ^ r10: .cfa -28 + ^ r9: .cfa -32 + ^ r8: .cfa -36 + ^
STACK CFI INIT 11fc8 ae .cfa: sp 0 +
STACK CFI 11fca .cfa: sp 20 + .ra: .cfa -4 + ^ r7: .cfa -8 + ^ r6: .cfa -12 + ^ r5: .cfa -16 + ^ r4: .cfa -20 + ^
STACK CFI 11fcc .cfa: r7 8 +
STACK CFI 11fd0 r11: .cfa -24 + ^ r9: .cfa -28 + ^ r8: .cfa -32 + ^
STACK CFI INIT 12076 2 .cfa: sp 0 +
STACK CFI INIT 12078 10 .cfa: sp 0 +
STACK CFI 1207a .cfa: sp 8 + .ra: .cfa -4 + ^ r7: .cfa -8 + ^
STACK CFI 1207c .cfa: r7 8 +
STACK CFI INIT 12088 186 .cfa: sp 0 +
STACK CFI 1208a .cfa: sp 20 + .ra: .cfa -4 + ^ r7: .cfa -8 + ^ r6: .cfa -12 + ^ r5: .cfa -16 + ^ r4: .cfa -20 + ^
STACK CFI 1208c .cfa: r7 8 +
STACK CFI 12090 r11: .cfa -24 + ^ r10: .cfa -28 + ^ r9: .cfa -32 + ^ r8: .cfa -36 + ^
STACK CFI INIT 12210 10 .cfa: sp 0 +
STACK CFI 12212 .cfa: sp 8 + .ra: .cfa -4 + ^ r7: .cfa -8 + ^
STACK CFI 12214 .cfa: r7 8 +
STACK CFI INIT 12220 10 .cfa: sp 0 +
STACK CFI 12222 .cfa: sp 8 + .ra: .cfa -4 + ^ r7: .cfa -8 + ^
STACK CFI 12224 .cfa: r7 8 +
STACK CFI INIT 12230 38 .cfa: sp 0 +
STACK CFI 12232 .cfa: sp 16 + .ra: .cfa -4 + ^ r7: .cfa -8 + ^ r5: .cfa -12 + ^ r4: .cfa -16 + ^
STACK CFI 12234 .cfa: r7 8 +
STACK CFI INIT 12268 18 .cfa: sp 0 +
STACK CFI 1226a .cfa: sp 8 + .ra: .cfa -4 + ^ r7: .cfa -8 + ^
STACK CFI 1226c .cfa: r7 8 +
STACK CFI INIT 12280 10 .cfa: sp 0 +
STACK CFI 12282 .cfa: sp 8 + .ra: .cfa -4 + ^ r7: .cfa -8 + ^
STACK CFI 12284 .cfa: r7 8 +
STACK CFI INIT 12290 2 .cfa: sp 0 +
STACK CFI INIT 12292 4 .cfa: sp 0 +
STACK CFI INIT 12298 20 .cfa: sp 0 +
STACK CFI 1229a .cfa: sp 16 + .ra: .cfa -4 + ^ r7: .cfa -8 + ^ r6: .cfa -12 + ^ r4: .cfa -16 + ^
STACK CFI 1229c .cfa: r7 8 +
STACK CFI INIT 122b8 14 .cfa: sp 0 +
STACK CFI INIT 122cc 2 .cfa: sp 0 +
STACK CFI INIT 122ce 4 .cfa: sp 0 +
STACK CFI INIT 122d2 8 .cfa: sp 0 +
STACK CFI INIT 122dc 18 .cfa: sp 0 +
STACK CFI INIT 122f4 c .cfa: sp 0 +
STACK CFI INIT 12300 84 .cfa: sp 0 +
STACK CFI 12302 .cfa: sp 20 + .ra: .cfa -4 + ^ r7: .cfa -8 + ^ r6: .cfa -12 + ^ r5: .cfa -16 + ^ r4: .cfa -20 + ^
STACK CFI 12304 .cfa: r7 8 +
STACK CFI 12308 r11: .cfa -24 + ^ r10: .cfa -28 + ^ r9: .cfa -32 + ^ r8: .cfa -36 + ^
STACK CFI INIT 12384 10 .cfa: sp 0 +
STACK CFI 12386 .cfa: sp 8 + .ra: .cfa -4 + ^ r7: .cfa -8 + ^
STACK CFI 12388 .cfa: r7 8 +
STACK CFI INIT 12394 114 .cfa: sp 0 +
STACK CFI 12396 .cfa: sp 20 + .ra: .cfa -4 + ^ r7: .cfa -8 + ^ r6: .cfa -12 + ^ r5: .cfa -16 + ^ r4: .cfa -20 + ^
STACK CFI 12398 .cfa: r7 8 +
STACK CFI 1239c r8: .cfa -24 + ^
STACK CFI INIT 124a8 80 .cfa: sp 0 +
STACK CFI 124aa .cfa: sp 20 + .ra: .cfa -4 + ^ r7: .cfa -8 + ^ r6: .cfa -12 + ^ r5: .cfa -16 + ^ r4: .cfa -20 + ^
STACK CFI 124ac .cfa: r7 8 +
STACK CFI 124b0 r10: .cfa -24 + ^ r9: .cfa -28 + ^ r8: .cfa -32 + ^
STACK CFI INIT 12528 110 .cfa: sp 0 +
STACK CFI 1252a .cfa: sp 20 + .ra: .cfa -4 + ^ r7: .cfa -8 + ^ r6: .cfa -12 + ^ r5: .cfa -16 + ^ r4: .cfa -20 + ^
STACK CFI 1252c .cfa: r7 8 +
STACK CFI 12530 r11: .cfa -24 + ^
STACK CFI INIT 12638 2f4 .cfa: sp 0 +
STACK CFI 1263a .cfa: sp 20 + .ra: .cfa -4 + ^ r7: .cfa -8 + ^ r6: .cfa -12 + ^ r5: .cfa -16 + ^ r4: .cfa -20 + ^
STACK CFI 1263c .cfa: r7 8 +
STACK CFI 12640 r11: .cfa -24 + ^ r10: .cfa -28 + ^ r9: .cfa -32 + ^ r8: .cfa -36 + ^
STACK CFI INIT 1292c 20 .cfa: sp 0 +
STACK CFI 1292e .cfa: sp 16 + .ra: .cfa -4 + ^ r7: .cfa -8 + ^ r6: .cfa -12 + ^ r4: .cfa -16 + ^
STACK CFI 12930 .cfa: r7 8 +
STACK CFI INIT 12950 834 .cfa: sp 0 +
STACK CFI 12952 .cfa: sp 20 + .ra: .cfa -4 + ^ r7: .cfa -8 + ^ r6: .cfa -12 + ^ r5: .cfa -16 + ^ r4: .cfa -20 + ^
STACK CFI 12954 .cfa: r7 8 +
STACK CFI 12958 r10: .cfa -24 + ^ r9: .cfa -28 + ^ r8: .cfa -32 + ^
STACK CFI INIT 13184 2 .cfa: sp 0 +
STACK CFI INIT 13188 7c .cfa: sp 0 +
STACK CFI 1318a .cfa: sp 16 + .ra: .cfa -4 + ^ r7: .cfa -8 + ^ r6: .cfa -12 + ^ r4: .cfa -16 + ^
STACK CFI 1318c .cfa: r7 8 +
STACK CFI INIT 13204 9dc .cfa: sp 0 +
STACK CFI 13206 .cfa: sp 20 + .ra: .cfa -4 + ^ r7: .cfa -8 + ^ r6: .cfa -12 + ^ r5: .cfa -16 + ^ r4: .cfa -20 + ^
STACK CFI 13208 .cfa: r7 8 +
STACK CFI 1320c r11: .cfa -24 + ^ r10: .cfa -28 + ^ r9: .cfa -32 + ^ r8: .cfa -36 + ^
STACK CFI INIT 13be0 c80 .cfa: sp 0 +
STACK CFI 13be2 .cfa: sp 20 + .ra: .cfa -4 + ^ r7: .cfa -8 + ^ r6: .cfa -12 + ^ r5: .cfa -16 + ^ r4: .cfa -20 + ^
STACK CFI 13be4 .cfa: r7 8 +
STACK CFI 13be8 r11: .cfa -24 + ^ r10: .cfa -28 + ^ r9: .cfa -32 + ^ r8: .cfa -36 + ^
STACK CFI INIT 14860 c5c .cfa: sp 0 +
STACK CFI 14862 .cfa: sp 20 + .ra: .cfa -4 + ^ r7: .cfa -8 + ^ r6: .cfa -12 + ^ r5: .cfa -16 + ^ r4: .cfa -20 + ^
STACK CFI 14864 .cfa: r7 8 +
STACK CFI 14868 r11: .cfa -24 + ^ r10: .cfa -28 + ^ r9: .cfa -32 + ^ r8: .cfa -36 + ^
STACK CFI INIT 154bc a4 .cfa: sp 0 +
STACK CFI 154be .cfa: sp 20 + .ra: .cfa -4 + ^ r7: .cfa -8 + ^ r6: .cfa -12 + ^ r5: .cfa -16 + ^ r4: .cfa -20 + ^
STACK CFI 154c0 .cfa: r7 8 +
STACK CFI 154c4 r11: .cfa -24 + ^
STACK CFI INIT 15560 10 .cfa: sp 0 +
STACK CFI 15562 .cfa: sp 8 + .ra: .cfa -4 + ^ r7: .cfa -8 + ^
STACK CFI 15564 .cfa: r7 8 +
STACK CFI INIT 15570 1080 .cfa: sp 0 +
STACK CFI 15572 .cfa: sp 20 + .ra: .cfa -4 + ^ r7: .cfa -8 + ^ r6: .cfa -12 + ^ r5: .cfa -16 + ^ r4: .cfa -20 + ^
STACK CFI 15574 .cfa: r7 8 +
STACK CFI 15578 r11: .cfa -24 + ^ r10: .cfa -28 + ^ r9: .cfa -32 + ^ r8: .cfa -36 + ^
STACK CFI INIT 165f0 e90 .cfa: sp 0 +
STACK CFI 165f2 .cfa: sp 20 + .ra: .cfa -4 + ^ r7: .cfa -8 + ^ r6: .cfa -12 + ^ r5: .cfa -16 + ^ r4: .cfa -20 + ^
STACK CFI 165f4 .cfa: r7 8 +
STACK CFI 165f8 r11: .cfa -24 + ^ r10: .cfa -28 + ^ r9: .cfa -32 + ^ r8: .cfa -36 + ^
STACK CFI INIT 17480 11c .cfa: sp 0 +
STACK CFI 17482 .cfa: sp 20 + .ra: .cfa -4 + ^ r7: .cfa -8 + ^ r6: .cfa -12 + ^ r5: .cfa -16 + ^ r4: .cfa -20 + ^
STACK CFI 17484 .cfa: r7 8 +
STACK CFI 17488 r11: .cfa -24 + ^
STACK CFI INIT 1759c 2 .cfa: sp 0 +
STACK CFI INIT 1759e 16 .cfa: sp 0 +
STACK CFI 175a0 .cfa: sp 16 + .ra: .cfa -4 + ^ r7: .cfa -8 + ^ r6: .cfa -12 + ^ r4: .cfa -16 + ^
STACK CFI 175a2 .cfa: r7 8 +
STACK CFI INIT 175b4 2 .cfa: sp 0 +
STACK CFI INIT 175b6 e .cfa: sp 0 +
STACK CFI INIT 175c4 a0 .cfa: sp 0 +
STACK CFI 175c6 .cfa: sp 16 + .ra: .cfa -4 + ^ r7: .cfa -8 + ^ r5: .cfa -12 + ^ r4: .cfa -16 + ^
STACK CFI 175c8 .cfa: r7 8 +
STACK CFI INIT 17664 2d0 .cfa: sp 0 +
STACK CFI 17666 .cfa: sp 20 + .ra: .cfa -4 + ^ r7: .cfa -8 + ^ r6: .cfa -12 + ^ r5: .cfa -16 + ^ r4: .cfa -20 + ^
STACK CFI 17668 .cfa: r7 8 +
STACK CFI 1766c r11: .cfa -24 + ^ r10: .cfa -28 + ^ r9: .cfa -32 + ^ r8: .cfa -36 + ^
STACK CFI INIT 17934 20 .cfa: sp 0 +
STACK CFI 17936 .cfa: sp 16 + .ra: .cfa -4 + ^ r7: .cfa -8 + ^ r6: .cfa -12 + ^ r4: .cfa -16 + ^
STACK CFI 17938 .cfa: r7 8 +
STACK CFI INIT 17960 584 .cfa: sp 0 +
STACK CFI 17962 .cfa: sp 20 + .ra: .cfa -4 + ^ r7: .cfa -8 + ^ r6: .cfa -12 + ^ r5: .cfa -16 + ^ r4: .cfa -20 + ^
STACK CFI 17964 .cfa: r7 8 +
STACK CFI 17968 r10: .cfa -24 + ^ r9: .cfa -28 + ^ r8: .cfa -32 + ^
STACK CFI INIT 17ee4 2 .cfa: sp 0 +
STACK CFI INIT 17ee8 84 .cfa: sp 0 +
STACK CFI 17eea .cfa: sp 16 + .ra: .cfa -4 + ^ r7: .cfa -8 + ^ r5: .cfa -12 + ^ r4: .cfa -16 + ^
STACK CFI 17eec .cfa: r7 8 +
STACK CFI INIT 17f6c 2d8 .cfa: sp 0 +
STACK CFI 17f6e .cfa: sp 20 + .ra: .cfa -4 + ^ r7: .cfa -8 + ^ r6: .cfa -12 + ^ r5: .cfa -16 + ^ r4: .cfa -20 + ^
STACK CFI 17f70 .cfa: r7 8 +
STACK CFI 17f74 r11: .cfa -24 + ^ r9: .cfa -28 + ^ r8: .cfa -32 + ^
STACK CFI INIT 18244 3b8 .cfa: sp 0 +
STACK CFI 18246 .cfa: sp 20 + .ra: .cfa -4 + ^ r7: .cfa -8 + ^ r6: .cfa -12 + ^ r5: .cfa -16 + ^ r4: .cfa -20 + ^
STACK CFI 18248 .cfa: r7 8 +
STACK CFI 1824c r11: .cfa -24 + ^ r9: .cfa -28 + ^ r8: .cfa -32 + ^
STACK CFI INIT 185fc 658 .cfa: sp 0 +
STACK CFI 185fe .cfa: sp 20 + .ra: .cfa -4 + ^ r7: .cfa -8 + ^ r6: .cfa -12 + ^ r5: .cfa -16 + ^ r4: .cfa -20 + ^
STACK CFI 18600 .cfa: r7 8 +
STACK CFI 18604 r11: .cfa -24 + ^ r10: .cfa -28 + ^ r9: .cfa -32 + ^ r8: .cfa -36 + ^
STACK CFI INIT 18c54 3e0 .cfa: sp 0 +
STACK CFI 18c56 .cfa: sp 20 + .ra: .cfa -4 + ^ r7: .cfa -8 + ^ r6: .cfa -12 + ^ r5: .cfa -16 + ^ r4: .cfa -20 + ^
STACK CFI 18c58 .cfa: r7 8 +
STACK CFI 18c5c r11: .cfa -24 + ^ r10: .cfa -28 + ^ r9: .cfa -32 + ^ r8: .cfa -36 + ^
STACK CFI INIT 19034 3a .cfa: sp 0 +
STACK CFI 19036 .cfa: sp 16 + .ra: .cfa -4 + ^ r7: .cfa -8 + ^ r5: .cfa -12 + ^ r4: .cfa -16 + ^
STACK CFI 19038 .cfa: r7 8 +
STACK CFI INIT 1906e 3a .cfa: sp 0 +
STACK CFI 19070 .cfa: sp 16 + .ra: .cfa -4 + ^ r7: .cfa -8 + ^ r5: .cfa -12 + ^ r4: .cfa -16 + ^
STACK CFI 19072 .cfa: r7 8 +
STACK CFI INIT 190a8 4c .cfa: sp 0 +
STACK CFI 190aa .cfa: sp 20 + .ra: .cfa -4 + ^ r7: .cfa -8 + ^ r6: .cfa -12 + ^ r5: .cfa -16 + ^ r4: .cfa -20 + ^
STACK CFI 190ac .cfa: r7 8 +
STACK CFI 190b0 r11: .cfa -24 + ^
STACK CFI INIT 190f4 14 .cfa: sp 0 +
STACK CFI 190f6 .cfa: sp 16 + .ra: .cfa -4 + ^ r7: .cfa -8 + ^ r6: .cfa -12 + ^ r4: .cfa -16 + ^
STACK CFI 190f8 .cfa: r7 8 +
STACK CFI INIT 19108 4e .cfa: sp 0 +
STACK CFI 1910a .cfa: sp 20 + .ra: .cfa -4 + ^ r7: .cfa -8 + ^ r6: .cfa -12 + ^ r5: .cfa -16 + ^ r4: .cfa -20 + ^
STACK CFI 1910c .cfa: r7 8 +
STACK CFI 19110 r11: .cfa -24 + ^
STACK CFI INIT 19156 3a .cfa: sp 0 +
STACK CFI 19158 .cfa: sp 16 + .ra: .cfa -4 + ^ r7: .cfa -8 + ^ r5: .cfa -12 + ^ r4: .cfa -16 + ^
STACK CFI 1915a .cfa: r7 8 +
STACK CFI INIT 19190 4e .cfa: sp 0 +
STACK CFI 19192 .cfa: sp 20 + .ra: .cfa -4 + ^ r7: .cfa -8 + ^ r6: .cfa -12 + ^ r5: .cfa -16 + ^ r4: .cfa -20 + ^
STACK CFI 19194 .cfa: r7 8 +
STACK CFI 19198 r11: .cfa -24 + ^
STACK CFI INIT 191de 3a .cfa: sp 0 +
STACK CFI 191e0 .cfa: sp 16 + .ra: .cfa -4 + ^ r7: .cfa -8 + ^ r5: .cfa -12 + ^ r4: .cfa -16 + ^
STACK CFI 191e2 .cfa: r7 8 +
STACK CFI INIT 19218 9a .cfa: sp 0 +
STACK CFI 1921a .cfa: sp 20 + .ra: .cfa -4 + ^ r7: .cfa -8 + ^ r6: .cfa -12 + ^ r5: .cfa -16 + ^ r4: .cfa -20 + ^
STACK CFI 1921c .cfa: r7 8 +
STACK CFI 19220 r11: .cfa -24 + ^ r9: .cfa -28 + ^ r8: .cfa -32 + ^
STACK CFI INIT 192b2 33a .cfa: sp 0 +
STACK CFI 192b4 .cfa: sp 20 + .ra: .cfa -4 + ^ r7: .cfa -8 + ^ r6: .cfa -12 + ^ r5: .cfa -16 + ^ r4: .cfa -20 + ^
STACK CFI 192b6 .cfa: r7 8 +
STACK CFI 192ba r11: .cfa -24 + ^
STACK CFI INIT 195ec 3a .cfa: sp 0 +
STACK CFI 195ee .cfa: sp 16 + .ra: .cfa -4 + ^ r7: .cfa -8 + ^ r5: .cfa -12 + ^ r4: .cfa -16 + ^
STACK CFI 195f0 .cfa: r7 8 +
STACK CFI INIT 19626 14 .cfa: sp 0 +
STACK CFI 19628 .cfa: sp 16 + .ra: .cfa -4 + ^ r7: .cfa -8 + ^ r6: .cfa -12 + ^ r4: .cfa -16 + ^
STACK CFI 1962a .cfa: r7 8 +
STACK CFI INIT 1963a 50 .cfa: sp 0 +
STACK CFI 1963c .cfa: sp 20 + .ra: .cfa -4 + ^ r7: .cfa -8 + ^ r6: .cfa -12 + ^ r5: .cfa -16 + ^ r4: .cfa -20 + ^
STACK CFI 1963e .cfa: r7 8 +
STACK CFI 19642 r11: .cfa -24 + ^
STACK CFI INIT 1968a 58 .cfa: sp 0 +
STACK CFI 1968c .cfa: sp 20 + .ra: .cfa -4 + ^ r7: .cfa -8 + ^ r6: .cfa -12 + ^ r5: .cfa -16 + ^ r4: .cfa -20 + ^
STACK CFI 1968e .cfa: r7 8 +
STACK CFI 19692 r11: .cfa -24 + ^
STACK CFI INIT 196e2 34 .cfa: sp 0 +
STACK CFI 196e4 .cfa: sp 16 + .ra: .cfa -4 + ^ r7: .cfa -8 + ^ r6: .cfa -12 + ^ r4: .cfa -16 + ^
STACK CFI 196e6 .cfa: r7 8 +
STACK CFI INIT 19716 14 .cfa: sp 0 +
STACK CFI 19718 .cfa: sp 16 + .ra: .cfa -4 + ^ r7: .cfa -8 + ^ r6: .cfa -12 + ^ r4: .cfa -16 + ^
STACK CFI 1971a .cfa: r7 8 +
STACK CFI INIT 1972a 14 .cfa: sp 0 +
STACK CFI 1972c .cfa: sp 16 + .ra: .cfa -4 + ^ r7: .cfa -8 + ^ r6: .cfa -12 + ^ r4: .cfa -16 + ^
STACK CFI 1972e .cfa: r7 8 +
STACK CFI INIT 1973e 3a .cfa: sp 0 +
STACK CFI 19740 .cfa: sp 16 + .ra: .cfa -4 + ^ r7: .cfa -8 + ^ r5: .cfa -12 + ^ r4: .cfa -16 + ^
STACK CFI 19742 .cfa: r7 8 +
STACK CFI INIT 19778 3a .cfa: sp 0 +
STACK CFI 1977a .cfa: sp 16 + .ra: .cfa -4 + ^ r7: .cfa -8 + ^ r5: .cfa -12 + ^ r4: .cfa -16 + ^
STACK CFI 1977c .cfa: r7 8 +
STACK CFI INIT 197b2 3a .cfa: sp 0 +
STACK CFI 197b4 .cfa: sp 16 + .ra: .cfa -4 + ^ r7: .cfa -8 + ^ r5: .cfa -12 + ^ r4: .cfa -16 + ^
STACK CFI 197b6 .cfa: r7 8 +
STACK CFI INIT 197ec 3a .cfa: sp 0 +
STACK CFI 197ee .cfa: sp 16 + .ra: .cfa -4 + ^ r7: .cfa -8 + ^ r5: .cfa -12 + ^ r4: .cfa -16 + ^
STACK CFI 197f0 .cfa: r7 8 +
STACK CFI INIT 19828 11c .cfa: sp 0 +
STACK CFI 1982a .cfa: sp 20 + .ra: .cfa -4 + ^ r7: .cfa -8 + ^ r6: .cfa -12 + ^ r5: .cfa -16 + ^ r4: .cfa -20 + ^
STACK CFI 1982c .cfa: r7 8 +
STACK CFI 19830 r11: .cfa -24 + ^ r10: .cfa -28 + ^ r9: .cfa -32 + ^ r8: .cfa -36 + ^
STACK CFI INIT 19944 19e .cfa: sp 0 +
STACK CFI 19946 .cfa: sp 20 + .ra: .cfa -4 + ^ r7: .cfa -8 + ^ r6: .cfa -12 + ^ r5: .cfa -16 + ^ r4: .cfa -20 + ^
STACK CFI 19948 .cfa: r7 8 +
STACK CFI 1994c r11: .cfa -24 + ^ r10: .cfa -28 + ^ r9: .cfa -32 + ^ r8: .cfa -36 + ^
STACK CFI INIT 19ae2 40 .cfa: sp 0 +
STACK CFI 19ae4 .cfa: sp 20 + .ra: .cfa -4 + ^ r7: .cfa -8 + ^ r6: .cfa -12 + ^ r5: .cfa -16 + ^ r4: .cfa -20 + ^
STACK CFI 19ae6 .cfa: r7 8 +
STACK CFI 19aea r11: .cfa -24 + ^
STACK CFI INIT 19b22 40 .cfa: sp 0 +
STACK CFI 19b24 .cfa: sp 20 + .ra: .cfa -4 + ^ r7: .cfa -8 + ^ r6: .cfa -12 + ^ r5: .cfa -16 + ^ r4: .cfa -20 + ^
STACK CFI 19b26 .cfa: r7 8 +
STACK CFI 19b2a r11: .cfa -24 + ^
STACK CFI INIT 19b62 10a .cfa: sp 0 +
STACK CFI 19b64 .cfa: sp 20 + .ra: .cfa -4 + ^ r7: .cfa -8 + ^ r6: .cfa -12 + ^ r5: .cfa -16 + ^ r4: .cfa -20 + ^
STACK CFI 19b66 .cfa: r7 8 +
STACK CFI 19b6a r10: .cfa -24 + ^ r9: .cfa -28 + ^ r8: .cfa -32 + ^
STACK CFI INIT 19c6c 17c .cfa: sp 0 +
STACK CFI 19c6e .cfa: sp 20 + .ra: .cfa -4 + ^ r7: .cfa -8 + ^ r6: .cfa -12 + ^ r5: .cfa -16 + ^ r4: .cfa -20 + ^
STACK CFI 19c70 .cfa: r7 8 +
STACK CFI 19c74 r11: .cfa -24 + ^
STACK CFI INIT 19de8 12e .cfa: sp 0 +
STACK CFI 19dea .cfa: sp 20 + .ra: .cfa -4 + ^ r7: .cfa -8 + ^ r6: .cfa -12 + ^ r5: .cfa -16 + ^ r4: .cfa -20 + ^
STACK CFI 19dec .cfa: r7 8 +
STACK CFI 19df0 r10: .cfa -24 + ^ r9: .cfa -28 + ^ r8: .cfa -32 + ^
STACK CFI INIT 19f16 40 .cfa: sp 0 +
STACK CFI 19f18 .cfa: sp 20 + .ra: .cfa -4 + ^ r7: .cfa -8 + ^ r6: .cfa -12 + ^ r5: .cfa -16 + ^ r4: .cfa -20 + ^
STACK CFI 19f1a .cfa: r7 8 +
STACK CFI 19f1e r11: .cfa -24 + ^
STACK CFI INIT 19f56 5c .cfa: sp 0 +
STACK CFI 19f5e .cfa: sp 20 + .ra: .cfa -4 + ^ r7: .cfa -8 + ^ r6: .cfa -12 + ^ r5: .cfa -16 + ^ r4: .cfa -20 + ^
STACK CFI 19f60 .cfa: r7 8 +
STACK CFI 19f64 r11: .cfa -24 + ^
STACK CFI INIT 19fb2 2c .cfa: sp 0 +
STACK CFI 19fba .cfa: sp 16 + .ra: .cfa -4 + ^ r7: .cfa -8 + ^ r5: .cfa -12 + ^ r4: .cfa -16 + ^
STACK CFI 19fbc .cfa: r7 8 +
STACK CFI INIT 19fde 2c .cfa: sp 0 +
STACK CFI 19fe6 .cfa: sp 16 + .ra: .cfa -4 + ^ r7: .cfa -8 + ^ r5: .cfa -12 + ^ r4: .cfa -16 + ^
STACK CFI 19fe8 .cfa: r7 8 +
STACK CFI INIT 1a00a 64 .cfa: sp 0 +
STACK CFI 1a00c .cfa: sp 20 + .ra: .cfa -4 + ^ r7: .cfa -8 + ^ r6: .cfa -12 + ^ r5: .cfa -16 + ^ r4: .cfa -20 + ^
STACK CFI 1a00e .cfa: r7 8 +
STACK CFI 1a012 r11: .cfa -24 + ^ r9: .cfa -28 + ^ r8: .cfa -32 + ^
STACK CFI INIT 1a06e 2c .cfa: sp 0 +
STACK CFI 1a076 .cfa: sp 16 + .ra: .cfa -4 + ^ r7: .cfa -8 + ^ r5: .cfa -12 + ^ r4: .cfa -16 + ^
STACK CFI 1a078 .cfa: r7 8 +
STACK CFI INIT 1a09a 6e .cfa: sp 0 +
STACK CFI 1a0a2 .cfa: sp 20 + .ra: .cfa -4 + ^ r7: .cfa -8 + ^ r6: .cfa -12 + ^ r5: .cfa -16 + ^ r4: .cfa -20 + ^
STACK CFI 1a0a4 .cfa: r7 8 +
STACK CFI 1a0a8 r8: .cfa -24 + ^
STACK CFI INIT 1a108 2c .cfa: sp 0 +
STACK CFI 1a110 .cfa: sp 16 + .ra: .cfa -4 + ^ r7: .cfa -8 + ^ r5: .cfa -12 + ^ r4: .cfa -16 + ^
STACK CFI 1a112 .cfa: r7 8 +
STACK CFI INIT 1a134 118 .cfa: sp 0 +
STACK CFI 1a136 .cfa: sp 20 + .ra: .cfa -4 + ^ r7: .cfa -8 + ^ r6: .cfa -12 + ^ r5: .cfa -16 + ^ r4: .cfa -20 + ^
STACK CFI 1a138 .cfa: r7 8 +
STACK CFI 1a13c r11: .cfa -24 + ^
STACK CFI INIT 1a24c 2 .cfa: sp 0 +
STACK CFI INIT 1a250 2d0 .cfa: sp 0 +
STACK CFI 1a252 .cfa: sp 20 + .ra: .cfa -4 + ^ r7: .cfa -8 + ^ r6: .cfa -12 + ^ r5: .cfa -16 + ^ r4: .cfa -20 + ^
STACK CFI 1a254 .cfa: r7 8 +
STACK CFI 1a258 r11: .cfa -24 + ^ r10: .cfa -28 + ^ r9: .cfa -32 + ^ r8: .cfa -36 + ^
STACK CFI INIT 1a520 20 .cfa: sp 0 +
STACK CFI 1a522 .cfa: sp 16 + .ra: .cfa -4 + ^ r7: .cfa -8 + ^ r6: .cfa -12 + ^ r4: .cfa -16 + ^
STACK CFI 1a524 .cfa: r7 8 +
STACK CFI INIT 1a540 350 .cfa: sp 0 +
STACK CFI 1a542 .cfa: sp 20 + .ra: .cfa -4 + ^ r7: .cfa -8 + ^ r6: .cfa -12 + ^ r5: .cfa -16 + ^ r4: .cfa -20 + ^
STACK CFI 1a544 .cfa: r7 8 +
STACK CFI 1a548 r11: .cfa -24 + ^ r10: .cfa -28 + ^ r9: .cfa -32 + ^ r8: .cfa -36 + ^
STACK CFI INIT 1a890 2 .cfa: sp 0 +
STACK CFI INIT 1a894 3d4 .cfa: sp 0 +
STACK CFI 1a896 .cfa: sp 20 + .ra: .cfa -4 + ^ r7: .cfa -8 + ^ r6: .cfa -12 + ^ r5: .cfa -16 + ^ r4: .cfa -20 + ^
STACK CFI 1a898 .cfa: r7 8 +
STACK CFI 1a89c r10: .cfa -24 + ^ r9: .cfa -28 + ^ r8: .cfa -32 + ^
STACK CFI INIT 1ac68 2d0 .cfa: sp 0 +
STACK CFI 1ac6a .cfa: sp 20 + .ra: .cfa -4 + ^ r7: .cfa -8 + ^ r6: .cfa -12 + ^ r5: .cfa -16 + ^ r4: .cfa -20 + ^
STACK CFI 1ac6c .cfa: r7 8 +
STACK CFI 1ac70 r11: .cfa -24 + ^ r10: .cfa -28 + ^ r9: .cfa -32 + ^ r8: .cfa -36 + ^
STACK CFI INIT 1af38 20 .cfa: sp 0 +
STACK CFI 1af3a .cfa: sp 16 + .ra: .cfa -4 + ^ r7: .cfa -8 + ^ r6: .cfa -12 + ^ r4: .cfa -16 + ^
STACK CFI 1af3c .cfa: r7 8 +
STACK CFI INIT 1af60 1a04 .cfa: sp 0 +
STACK CFI 1af62 .cfa: sp 20 + .ra: .cfa -4 + ^ r7: .cfa -8 + ^ r6: .cfa -12 + ^ r5: .cfa -16 + ^ r4: .cfa -20 + ^
STACK CFI 1af64 .cfa: r7 8 +
STACK CFI 1af68 r10: .cfa -24 + ^ r9: .cfa -28 + ^ r8: .cfa -32 + ^
STACK CFI INIT 1c964 2 .cfa: sp 0 +
STACK CFI INIT 1c968 84 .cfa: sp 0 +
STACK CFI 1c96a .cfa: sp 16 + .ra: .cfa -4 + ^ r7: .cfa -8 + ^ r5: .cfa -12 + ^ r4: .cfa -16 + ^
STACK CFI 1c96c .cfa: r7 8 +
STACK CFI INIT 1c9f0 108 .cfa: sp 0 +
STACK CFI 1c9f2 .cfa: sp 20 + .ra: .cfa -4 + ^ r7: .cfa -8 + ^ r6: .cfa -12 + ^ r5: .cfa -16 + ^ r4: .cfa -20 + ^
STACK CFI 1c9f4 .cfa: r7 8 +
STACK CFI 1c9f8 r11: .cfa -24 + ^ r10: .cfa -28 + ^ r9: .cfa -32 + ^ r8: .cfa -36 + ^
STACK CFI INIT 1caf8 b4 .cfa: sp 0 +
STACK CFI 1cafa .cfa: sp 20 + .ra: .cfa -4 + ^ r7: .cfa -8 + ^ r6: .cfa -12 + ^ r5: .cfa -16 + ^ r4: .cfa -20 + ^
STACK CFI 1cafc .cfa: r7 8 +
STACK CFI 1cb00 r11: .cfa -24 + ^
STACK CFI INIT 1cbac cc .cfa: sp 0 +
STACK CFI 1cbae .cfa: sp 20 + .ra: .cfa -4 + ^ r7: .cfa -8 + ^ r6: .cfa -12 + ^ r5: .cfa -16 + ^ r4: .cfa -20 + ^
STACK CFI 1cbb0 .cfa: r7 8 +
STACK CFI 1cbb4 r10: .cfa -24 + ^ r9: .cfa -28 + ^ r8: .cfa -32 + ^
STACK CFI INIT 1cc78 12c .cfa: sp 0 +
STACK CFI 1cc7a .cfa: sp 20 + .ra: .cfa -4 + ^ r7: .cfa -8 + ^ r6: .cfa -12 + ^ r5: .cfa -16 + ^ r4: .cfa -20 + ^
STACK CFI 1cc7c .cfa: r7 8 +
STACK CFI 1cc80 r10: .cfa -24 + ^ r9: .cfa -28 + ^ r8: .cfa -32 + ^
STACK CFI INIT 1cda4 b4 .cfa: sp 0 +
STACK CFI 1cda6 .cfa: sp 20 + .ra: .cfa -4 + ^ r7: .cfa -8 + ^ r6: .cfa -12 + ^ r5: .cfa -16 + ^ r4: .cfa -20 + ^
STACK CFI 1cda8 .cfa: r7 8 +
STACK CFI 1cdac r11: .cfa -24 + ^
STACK CFI INIT 1ce58 13c .cfa: sp 0 +
STACK CFI 1ce5a .cfa: sp 20 + .ra: .cfa -4 + ^ r7: .cfa -8 + ^ r6: .cfa -12 + ^ r5: .cfa -16 + ^ r4: .cfa -20 + ^
STACK CFI 1ce5c .cfa: r7 8 +
STACK CFI 1ce60 r11: .cfa -24 + ^ r10: .cfa -28 + ^ r9: .cfa -32 + ^ r8: .cfa -36 + ^
STACK CFI INIT 1cf94 274 .cfa: sp 0 +
STACK CFI 1cf96 .cfa: sp 20 + .ra: .cfa -4 + ^ r7: .cfa -8 + ^ r6: .cfa -12 + ^ r5: .cfa -16 + ^ r4: .cfa -20 + ^
STACK CFI 1cf98 .cfa: r7 8 +
STACK CFI 1cf9c r11: .cfa -24 + ^
STACK CFI INIT 1d210 108 .cfa: sp 0 +
STACK CFI 1d212 .cfa: sp 20 + .ra: .cfa -4 + ^ r7: .cfa -8 + ^ r6: .cfa -12 + ^ r5: .cfa -16 + ^ r4: .cfa -20 + ^
STACK CFI 1d214 .cfa: r7 8 +
STACK CFI 1d218 r11: .cfa -24 + ^ r10: .cfa -28 + ^ r9: .cfa -32 + ^ r8: .cfa -36 + ^
STACK CFI INIT 1d318 98 .cfa: sp 0 +
STACK CFI 1d31a .cfa: sp 16 + .ra: .cfa -4 + ^ r7: .cfa -8 + ^ r5: .cfa -12 + ^ r4: .cfa -16 + ^
STACK CFI 1d31c .cfa: r7 8 +
STACK CFI INIT 1d3b0 98 .cfa: sp 0 +
STACK CFI 1d3b2 .cfa: sp 16 + .ra: .cfa -4 + ^ r7: .cfa -8 + ^ r5: .cfa -12 + ^ r4: .cfa -16 + ^
STACK CFI 1d3b4 .cfa: r7 8 +
STACK CFI INIT 1d448 d0 .cfa: sp 0 +
STACK CFI 1d44a .cfa: sp 16 + .ra: .cfa -4 + ^ r7: .cfa -8 + ^ r5: .cfa -12 + ^ r4: .cfa -16 + ^
STACK CFI 1d44c .cfa: r7 8 +
STACK CFI INIT 1d518 98 .cfa: sp 0 +
STACK CFI 1d51a .cfa: sp 16 + .ra: .cfa -4 + ^ r7: .cfa -8 + ^ r5: .cfa -12 + ^ r4: .cfa -16 + ^
STACK CFI 1d51c .cfa: r7 8 +
STACK CFI INIT 1d5b0 d0 .cfa: sp 0 +
STACK CFI 1d5b2 .cfa: sp 16 + .ra: .cfa -4 + ^ r7: .cfa -8 + ^ r5: .cfa -12 + ^ r4: .cfa -16 + ^
STACK CFI 1d5b4 .cfa: r7 8 +
STACK CFI INIT 1d680 98 .cfa: sp 0 +
STACK CFI 1d682 .cfa: sp 16 + .ra: .cfa -4 + ^ r7: .cfa -8 + ^ r5: .cfa -12 + ^ r4: .cfa -16 + ^
STACK CFI 1d684 .cfa: r7 8 +
STACK CFI INIT 1d718 98 .cfa: sp 0 +
STACK CFI 1d71a .cfa: sp 16 + .ra: .cfa -4 + ^ r7: .cfa -8 + ^ r5: .cfa -12 + ^ r4: .cfa -16 + ^
STACK CFI 1d71c .cfa: r7 8 +
STACK CFI INIT 1d7b0 24c .cfa: sp 0 +
STACK CFI 1d7b2 .cfa: sp 20 + .ra: .cfa -4 + ^ r7: .cfa -8 + ^ r6: .cfa -12 + ^ r5: .cfa -16 + ^ r4: .cfa -20 + ^
STACK CFI 1d7b4 .cfa: r7 8 +
STACK CFI 1d7b8 r11: .cfa -24 + ^ r9: .cfa -28 + ^ r8: .cfa -32 + ^
STACK CFI INIT 1d9fc 14 .cfa: sp 0 +
STACK CFI 1d9fe .cfa: sp 16 + .ra: .cfa -4 + ^ r7: .cfa -8 + ^ r6: .cfa -12 + ^ r4: .cfa -16 + ^
STACK CFI 1da00 .cfa: r7 8 +
STACK CFI INIT 1da10 3a .cfa: sp 0 +
STACK CFI 1da12 .cfa: sp 16 + .ra: .cfa -4 + ^ r7: .cfa -8 + ^ r5: .cfa -12 + ^ r4: .cfa -16 + ^
STACK CFI 1da14 .cfa: r7 8 +
STACK CFI INIT 1da4a 3a .cfa: sp 0 +
STACK CFI 1da4c .cfa: sp 16 + .ra: .cfa -4 + ^ r7: .cfa -8 + ^ r5: .cfa -12 + ^ r4: .cfa -16 + ^
STACK CFI 1da4e .cfa: r7 8 +
STACK CFI INIT 1da84 38 .cfa: sp 0 +
STACK CFI 1da86 .cfa: sp 16 + .ra: .cfa -4 + ^ r7: .cfa -8 + ^ r6: .cfa -12 + ^ r4: .cfa -16 + ^
STACK CFI 1da88 .cfa: r7 8 +
STACK CFI INIT 1dabc 2c .cfa: sp 0 +
STACK CFI 1dac4 .cfa: sp 16 + .ra: .cfa -4 + ^ r7: .cfa -8 + ^ r5: .cfa -12 + ^ r4: .cfa -16 + ^
STACK CFI 1dac6 .cfa: r7 8 +
STACK CFI INIT 1dae8 114 .cfa: sp 0 +
STACK CFI 1daea .cfa: sp 20 + .ra: .cfa -4 + ^ r7: .cfa -8 + ^ r6: .cfa -12 + ^ r5: .cfa -16 + ^ r4: .cfa -20 + ^
STACK CFI 1daec .cfa: r7 8 +
STACK CFI 1daf0 r11: .cfa -24 + ^
STACK CFI INIT 1dbfc 2 .cfa: sp 0 +
STACK CFI INIT 1dc00 4a4 .cfa: sp 0 +
STACK CFI 1dc02 .cfa: sp 20 + .ra: .cfa -4 + ^ r7: .cfa -8 + ^ r6: .cfa -12 + ^ r5: .cfa -16 + ^ r4: .cfa -20 + ^
STACK CFI 1dc04 .cfa: r7 8 +
STACK CFI 1dc08 r11: .cfa -24 + ^ r10: .cfa -28 + ^ r9: .cfa -32 + ^ r8: .cfa -36 + ^
STACK CFI INIT 1e0a4 20 .cfa: sp 0 +
STACK CFI 1e0a6 .cfa: sp 16 + .ra: .cfa -4 + ^ r7: .cfa -8 + ^ r6: .cfa -12 + ^ r4: .cfa -16 + ^
STACK CFI 1e0a8 .cfa: r7 8 +
STACK CFI INIT 1e0d0 5a8 .cfa: sp 0 +
STACK CFI 1e0d2 .cfa: sp 20 + .ra: .cfa -4 + ^ r7: .cfa -8 + ^ r6: .cfa -12 + ^ r5: .cfa -16 + ^ r4: .cfa -20 + ^
STACK CFI 1e0d4 .cfa: r7 8 +
STACK CFI 1e0d8 r10: .cfa -24 + ^ r9: .cfa -28 + ^ r8: .cfa -32 + ^
STACK CFI INIT 1e678 2 .cfa: sp 0 +
STACK CFI INIT 1e67a 5c .cfa: sp 0 +
STACK CFI 1e67c .cfa: sp 20 + .ra: .cfa -4 + ^ r7: .cfa -8 + ^ r6: .cfa -12 + ^ r5: .cfa -16 + ^ r4: .cfa -20 + ^
STACK CFI 1e67e .cfa: r7 8 +
STACK CFI 1e682 r11: .cfa -24 + ^
STACK CFI INIT 1e6d8 104 .cfa: sp 0 +
STACK CFI 1e6da .cfa: sp 20 + .ra: .cfa -4 + ^ r7: .cfa -8 + ^ r6: .cfa -12 + ^ r5: .cfa -16 + ^ r4: .cfa -20 + ^
STACK CFI 1e6dc .cfa: r7 8 +
STACK CFI 1e6e0 r8: .cfa -24 + ^
STACK CFI INIT 1e7dc 2 .cfa: sp 0 +
STACK CFI INIT 1e7de e .cfa: sp 0 +
STACK CFI INIT 1e7ec 8a4 .cfa: sp 0 +
STACK CFI 1e7ee .cfa: sp 20 + .ra: .cfa -4 + ^ r7: .cfa -8 + ^ r6: .cfa -12 + ^ r5: .cfa -16 + ^ r4: .cfa -20 + ^
STACK CFI 1e7f0 .cfa: r7 8 +
STACK CFI 1e7f4 r11: .cfa -24 + ^ r10: .cfa -28 + ^ r9: .cfa -32 + ^ r8: .cfa -36 + ^
STACK CFI INIT 1f090 10c .cfa: sp 0 +
STACK CFI 1f092 .cfa: sp 20 + .ra: .cfa -4 + ^ r7: .cfa -8 + ^ r6: .cfa -12 + ^ r5: .cfa -16 + ^ r4: .cfa -20 + ^
STACK CFI 1f094 .cfa: r7 8 +
STACK CFI 1f098 r11: .cfa -24 + ^ r9: .cfa -28 + ^ r8: .cfa -32 + ^
STACK CFI INIT 1f19c 15dc .cfa: sp 0 +
STACK CFI 1f19e .cfa: sp 20 + .ra: .cfa -4 + ^ r7: .cfa -8 + ^ r6: .cfa -12 + ^ r5: .cfa -16 + ^ r4: .cfa -20 + ^
STACK CFI 1f1a0 .cfa: r7 8 +
STACK CFI 1f1a4 r11: .cfa -24 + ^ r10: .cfa -28 + ^ r9: .cfa -32 + ^ r8: .cfa -36 + ^
STACK CFI INIT 20778 118 .cfa: sp 0 +
STACK CFI 2077a .cfa: sp 20 + .ra: .cfa -4 + ^ r7: .cfa -8 + ^ r6: .cfa -12 + ^ r5: .cfa -16 + ^ r4: .cfa -20 + ^
STACK CFI 2077c .cfa: r7 8 +
STACK CFI 20780 r11: .cfa -24 + ^
STACK CFI INIT 20890 2 .cfa: sp 0 +
STACK CFI INIT 0 20 .cfa: sp 0 +
STACK CFI 2 .cfa: sp 16 + .ra: .cfa -4 + ^ r7: .cfa -8 + ^ r6: .cfa -12 + ^ r4: .cfa -16 + ^
STACK CFI 4 .cfa: r7 8 +
STACK CFI INIT 20894 20 .cfa: sp 0 +
STACK CFI 20896 .cfa: sp 16 + .ra: .cfa -4 + ^ r7: .cfa -8 + ^ r6: .cfa -12 + ^ r4: .cfa -16 + ^
STACK CFI 20898 .cfa: r7 8 +
STACK CFI INIT 208b4 28 .cfa: sp 0 +
STACK CFI 208b6 .cfa: sp 16 + .ra: .cfa -4 + ^ r7: .cfa -8 + ^ r5: .cfa -12 + ^ r4: .cfa -16 + ^
STACK CFI 208b8 .cfa: r7 8 +
STACK CFI INIT 208dc cc .cfa: sp 0 +
STACK CFI 208de .cfa: sp 16 + .ra: .cfa -4 + ^ r7: .cfa -8 + ^ r6: .cfa -12 + ^ r4: .cfa -16 + ^
STACK CFI 208e0 .cfa: r7 8 +
STACK CFI INIT 209a8 48 .cfa: sp 0 +
STACK CFI 209aa .cfa: sp 16 + .ra: .cfa -4 + ^ r7: .cfa -8 + ^ r5: .cfa -12 + ^ r4: .cfa -16 + ^
STACK CFI 209ac .cfa: r7 8 +
STACK CFI INIT 209f0 60 .cfa: sp 0 +
STACK CFI 209f2 .cfa: sp 16 + .ra: .cfa -4 + ^ r7: .cfa -8 + ^ r6: .cfa -12 + ^ r4: .cfa -16 + ^
STACK CFI 209f4 .cfa: r7 8 +
STACK CFI INIT 20a50 46 .cfa: sp 0 +
STACK CFI 20a52 .cfa: sp 16 + .ra: .cfa -4 + ^ r7: .cfa -8 + ^ r5: .cfa -12 + ^ r4: .cfa -16 + ^
STACK CFI 20a54 .cfa: r7 8 +
STACK CFI INIT 20a96 10 .cfa: sp 0 +
STACK CFI 20a98 .cfa: sp 8 + .ra: .cfa -4 + ^ r7: .cfa -8 + ^
STACK CFI 20a9a .cfa: r7 8 +
STACK CFI INIT 20aa6 10 .cfa: sp 0 +
STACK CFI 20aa8 .cfa: sp 8 + .ra: .cfa -4 + ^ r7: .cfa -8 + ^
STACK CFI 20aaa .cfa: r7 8 +
STACK CFI INIT 20ab6 10 .cfa: sp 0 +
STACK CFI 20ab8 .cfa: sp 8 + .ra: .cfa -4 + ^ r7: .cfa -8 + ^
STACK CFI 20aba .cfa: r7 8 +
STACK CFI INIT 20ac6 8 .cfa: sp 0 +
STACK CFI INIT 20ace 10 .cfa: sp 0 +
STACK CFI 20ad0 .cfa: sp 8 + .ra: .cfa -4 + ^ r7: .cfa -8 + ^
STACK CFI 20ad2 .cfa: r7 8 +
STACK CFI INIT 20ade 14 .cfa: sp 0 +
STACK CFI 20ae0 .cfa: sp 8 + .ra: .cfa -4 + ^ r7: .cfa -8 + ^
STACK CFI 20ae2 .cfa: r7 8 +
STACK CFI INIT 20af2 10 .cfa: sp 0 +
STACK CFI 20af4 .cfa: sp 8 + .ra: .cfa -4 + ^ r7: .cfa -8 + ^
STACK CFI 20af6 .cfa: r7 8 +
STACK CFI INIT 20b04 228 .cfa: sp 0 +
STACK CFI 20b06 .cfa: sp 20 + .ra: .cfa -4 + ^ r7: .cfa -8 + ^ r6: .cfa -12 + ^ r5: .cfa -16 + ^ r4: .cfa -20 + ^
STACK CFI 20b08 .cfa: r7 8 +
STACK CFI 20b0c r11: .cfa -24 + ^ r10: .cfa -28 + ^ r9: .cfa -32 + ^ r8: .cfa -36 + ^
STACK CFI INIT 0 18 .cfa: sp 0 +
STACK CFI 2 .cfa: sp 8 + .ra: .cfa -4 + ^ r7: .cfa -8 + ^
STACK CFI 4 .cfa: r7 8 +
STACK CFI INIT 0 6 .cfa: sp 0 +
STACK CFI INIT 20d2c 240 .cfa: sp 0 +
STACK CFI 20d2e .cfa: sp 20 + .ra: .cfa -4 + ^ r7: .cfa -8 + ^ r6: .cfa -12 + ^ r5: .cfa -16 + ^ r4: .cfa -20 + ^
STACK CFI 20d30 .cfa: r7 8 +
STACK CFI 20d34 r11: .cfa -24 + ^ r10: .cfa -28 + ^ r9: .cfa -32 + ^ r8: .cfa -36 + ^
STACK CFI INIT 0 e .cfa: sp 0 +
STACK CFI 2 .cfa: sp 8 + .ra: .cfa -4 + ^ r7: .cfa -8 + ^
STACK CFI 4 .cfa: r7 8 +
STACK CFI INIT 0 4 .cfa: sp 0 +
STACK CFI INIT 0 e .cfa: sp 0 +
STACK CFI INIT 0 e .cfa: sp 0 +
STACK CFI INIT 0 e .cfa: sp 0 +
STACK CFI INIT 0 e .cfa: sp 0 +
STACK CFI INIT 0 e .cfa: sp 0 +
STACK CFI INIT 0 e .cfa: sp 0 +
STACK CFI INIT 0 e .cfa: sp 0 +
STACK CFI INIT 0 6 .cfa: sp 0 +
STACK CFI INIT 0 e .cfa: sp 0 +
STACK CFI INIT 0 e .cfa: sp 0 +
STACK CFI INIT 0 e .cfa: sp 0 +
STACK CFI INIT 0 e .cfa: sp 0 +
STACK CFI INIT 0 e .cfa: sp 0 +
STACK CFI INIT 0 e .cfa: sp 0 +
STACK CFI INIT 0 e .cfa: sp 0 +
STACK CFI INIT 0 e .cfa: sp 0 +
STACK CFI INIT 0 10 .cfa: sp 0 +
STACK CFI INIT 0 10 .cfa: sp 0 +
STACK CFI INIT 0 10 .cfa: sp 0 +
STACK CFI INIT 0 10 .cfa: sp 0 +
STACK CFI INIT 0 10 .cfa: sp 0 +
STACK CFI INIT 0 10 .cfa: sp 0 +
STACK CFI INIT 0 10 .cfa: sp 0 +
STACK CFI INIT 0 10 .cfa: sp 0 +
STACK CFI INIT 0 6 .cfa: sp 0 +
STACK CFI INIT 0 10 .cfa: sp 0 +
STACK CFI INIT 0 10 .cfa: sp 0 +
STACK CFI INIT 0 10 .cfa: sp 0 +
STACK CFI INIT 0 10 .cfa: sp 0 +
STACK CFI INIT 0 10 .cfa: sp 0 +
STACK CFI INIT 0 10 .cfa: sp 0 +
STACK CFI INIT 0 10 .cfa: sp 0 +
STACK CFI INIT 20f6c d48 .cfa: sp 0 +
STACK CFI 20f6e .cfa: sp 20 + .ra: .cfa -4 + ^ r7: .cfa -8 + ^ r6: .cfa -12 + ^ r5: .cfa -16 + ^ r4: .cfa -20 + ^
STACK CFI 20f70 .cfa: r7 8 +
STACK CFI 20f74 r11: .cfa -24 + ^ r10: .cfa -28 + ^ r9: .cfa -32 + ^ r8: .cfa -36 + ^
STACK CFI INIT 21cb4 8 .cfa: sp 0 +
STACK CFI INIT 21cbc 10 .cfa: sp 0 +
STACK CFI 21cbe .cfa: sp 8 + .ra: .cfa -4 + ^ r7: .cfa -8 + ^
STACK CFI 21cc0 .cfa: r7 8 +
STACK CFI INIT 21ccc 14 .cfa: sp 0 +
STACK CFI 21cce .cfa: sp 8 + .ra: .cfa -4 + ^ r7: .cfa -8 + ^
STACK CFI 21cd0 .cfa: r7 8 +
STACK CFI INIT 21ce0 f0 .cfa: sp 0 +
STACK CFI 21ce2 .cfa: sp 20 + .ra: .cfa -4 + ^ r7: .cfa -8 + ^ r6: .cfa -12 + ^ r5: .cfa -16 + ^ r4: .cfa -20 + ^
STACK CFI 21ce4 .cfa: r7 8 +
STACK CFI 21ce8 r11: .cfa -24 + ^ r10: .cfa -28 + ^ r9: .cfa -32 + ^ r8: .cfa -36 + ^
STACK CFI INIT 21dd0 470 .cfa: sp 0 +
STACK CFI 21dd2 .cfa: sp 20 + .ra: .cfa -4 + ^ r7: .cfa -8 + ^ r6: .cfa -12 + ^ r5: .cfa -16 + ^ r4: .cfa -20 + ^
STACK CFI 21dd4 .cfa: r7 8 +
STACK CFI 21dd8 r11: .cfa -24 + ^ r10: .cfa -28 + ^ r9: .cfa -32 + ^ r8: .cfa -36 + ^
STACK CFI INIT 22240 18 .cfa: sp 0 +
STACK CFI 22242 .cfa: sp 8 + .ra: .cfa -4 + ^ r7: .cfa -8 + ^
STACK CFI 22244 .cfa: r7 8 +
STACK CFI INIT 22258 fc .cfa: sp 0 +
STACK CFI 2225a .cfa: sp 20 + .ra: .cfa -4 + ^ r7: .cfa -8 + ^ r6: .cfa -12 + ^ r5: .cfa -16 + ^ r4: .cfa -20 + ^
STACK CFI 2225c .cfa: r7 8 +
STACK CFI 22260 r10: .cfa -24 + ^ r9: .cfa -28 + ^ r8: .cfa -32 + ^
STACK CFI INIT 22360 570 .cfa: sp 0 +
STACK CFI 22362 .cfa: sp 20 + .ra: .cfa -4 + ^ r7: .cfa -8 + ^ r6: .cfa -12 + ^ r5: .cfa -16 + ^ r4: .cfa -20 + ^
STACK CFI 22364 .cfa: r7 8 +
STACK CFI 22368 r11: .cfa -24 + ^ r10: .cfa -28 + ^ r9: .cfa -32 + ^ r8: .cfa -36 + ^
STACK CFI INIT 228d0 24 .cfa: sp 0 +
STACK CFI 228d2 .cfa: sp 8 + .ra: .cfa -4 + ^ r7: .cfa -8 + ^
STACK CFI 228d4 .cfa: r7 8 +
STACK CFI INIT 228f4 ec .cfa: sp 0 +
STACK CFI 228f6 .cfa: sp 20 + .ra: .cfa -4 + ^ r7: .cfa -8 + ^ r6: .cfa -12 + ^ r5: .cfa -16 + ^ r4: .cfa -20 + ^
STACK CFI 228f8 .cfa: r7 8 +
STACK CFI 228fc r11: .cfa -24 + ^ r10: .cfa -28 + ^ r9: .cfa -32 + ^ r8: .cfa -36 + ^
STACK CFI INIT 229e0 260 .cfa: sp 0 +
STACK CFI 229e2 .cfa: sp 20 + .ra: .cfa -4 + ^ r7: .cfa -8 + ^ r6: .cfa -12 + ^ r5: .cfa -16 + ^ r4: .cfa -20 + ^
STACK CFI 229e4 .cfa: r7 8 +
STACK CFI 229e8 r11: .cfa -24 + ^ r10: .cfa -28 + ^ r9: .cfa -32 + ^ r8: .cfa -36 + ^
STACK CFI INIT 22c40 10 .cfa: sp 0 +
STACK CFI INIT 22c50 e8 .cfa: sp 0 +
STACK CFI 22c52 .cfa: sp 20 + .ra: .cfa -4 + ^ r7: .cfa -8 + ^ r6: .cfa -12 + ^ r5: .cfa -16 + ^ r4: .cfa -20 + ^
STACK CFI 22c54 .cfa: r7 8 +
STACK CFI 22c58 r10: .cfa -24 + ^ r9: .cfa -28 + ^ r8: .cfa -32 + ^
STACK CFI INIT 22d40 b0 .cfa: sp 0 +
STACK CFI 22d42 .cfa: sp 20 + .ra: .cfa -4 + ^ r7: .cfa -8 + ^ r6: .cfa -12 + ^ r5: .cfa -16 + ^ r4: .cfa -20 + ^
STACK CFI 22d44 .cfa: r7 8 +
STACK CFI 22d48 r8: .cfa -24 + ^
STACK CFI INIT 22df0 2 .cfa: sp 0 +
STACK CFI INIT 22df2 4 .cfa: sp 0 +
STACK CFI INIT 22df6 8 .cfa: sp 0 +
STACK CFI INIT 22dfe 2 .cfa: sp 0 +
STACK CFI INIT 22e00 ec .cfa: sp 0 +
STACK CFI 22e02 .cfa: sp 20 + .ra: .cfa -4 + ^ r7: .cfa -8 + ^ r6: .cfa -12 + ^ r5: .cfa -16 + ^ r4: .cfa -20 + ^
STACK CFI 22e04 .cfa: r7 8 +
STACK CFI 22e08 r11: .cfa -24 + ^ r10: .cfa -28 + ^ r9: .cfa -32 + ^ r8: .cfa -36 + ^
STACK CFI INIT 22ef0 360 .cfa: sp 0 +
STACK CFI 22ef2 .cfa: sp 20 + .ra: .cfa -4 + ^ r7: .cfa -8 + ^ r6: .cfa -12 + ^ r5: .cfa -16 + ^ r4: .cfa -20 + ^
STACK CFI 22ef4 .cfa: r7 8 +
STACK CFI 22ef8 r11: .cfa -24 + ^ r10: .cfa -28 + ^ r9: .cfa -32 + ^ r8: .cfa -36 + ^
STACK CFI INIT 23250 fc .cfa: sp 0 +
STACK CFI 23252 .cfa: sp 20 + .ra: .cfa -4 + ^ r7: .cfa -8 + ^ r6: .cfa -12 + ^ r5: .cfa -16 + ^ r4: .cfa -20 + ^
STACK CFI 23254 .cfa: r7 8 +
STACK CFI 23258 r11: .cfa -24 + ^ r10: .cfa -28 + ^ r9: .cfa -32 + ^ r8: .cfa -36 + ^
STACK CFI INIT 23350 570 .cfa: sp 0 +
STACK CFI 23352 .cfa: sp 20 + .ra: .cfa -4 + ^ r7: .cfa -8 + ^ r6: .cfa -12 + ^ r5: .cfa -16 + ^ r4: .cfa -20 + ^
STACK CFI 23354 .cfa: r7 8 +
STACK CFI 23358 r11: .cfa -24 + ^ r10: .cfa -28 + ^ r9: .cfa -32 + ^ r8: .cfa -36 + ^
STACK CFI INIT 238c0 e8 .cfa: sp 0 +
STACK CFI 238c2 .cfa: sp 20 + .ra: .cfa -4 + ^ r7: .cfa -8 + ^ r6: .cfa -12 + ^ r5: .cfa -16 + ^ r4: .cfa -20 + ^
STACK CFI 238c4 .cfa: r7 8 +
STACK CFI 238c8 r10: .cfa -24 + ^ r9: .cfa -28 + ^ r8: .cfa -32 + ^
STACK CFI INIT 239b0 b0 .cfa: sp 0 +
STACK CFI 239b2 .cfa: sp 20 + .ra: .cfa -4 + ^ r7: .cfa -8 + ^ r6: .cfa -12 + ^ r5: .cfa -16 + ^ r4: .cfa -20 + ^
STACK CFI 239b4 .cfa: r7 8 +
STACK CFI 239b8 r8: .cfa -24 + ^
STACK CFI INIT 0 e .cfa: sp 0 +
STACK CFI 2 .cfa: sp 8 + .ra: .cfa -4 + ^ r7: .cfa -8 + ^
STACK CFI 4 .cfa: r7 8 +
STACK CFI INIT 0 8 .cfa: sp 0 +
STACK CFI INIT 0 14 .cfa: sp 0 +
STACK CFI INIT 0 1c .cfa: sp 0 +
STACK CFI 2 .cfa: sp 16 + .ra: .cfa -4 + ^ r7: .cfa -8 + ^ r6: .cfa -12 + ^ r4: .cfa -16 + ^
STACK CFI 4 .cfa: r7 8 +
STACK CFI INIT 23a60 4 .cfa: sp 0 +
STACK CFI INIT 23a64 2 .cfa: sp 0 +
STACK CFI INIT 23a66 2 .cfa: sp 0 +
STACK CFI INIT 23a68 4 .cfa: sp 0 +
STACK CFI INIT 23a6c 2 .cfa: sp 0 +
STACK CFI INIT 23a6e 4 .cfa: sp 0 +
STACK CFI INIT 23a72 6 .cfa: sp 0 +
STACK CFI INIT 23a78 a .cfa: sp 0 +
STACK CFI INIT 23a82 6 .cfa: sp 0 +
STACK CFI INIT 23a88 6 .cfa: sp 0 +
STACK CFI INIT 23a8e 6 .cfa: sp 0 +
STACK CFI INIT 23a94 a .cfa: sp 0 +
STACK CFI INIT 23a9e 2 .cfa: sp 0 +
STACK CFI INIT 23aa0 2 .cfa: sp 0 +
STACK CFI INIT 23aa2 2 .cfa: sp 0 +
STACK CFI INIT 23aa4 2 .cfa: sp 0 +
STACK CFI INIT 23aa8 214 .cfa: sp 0 +
STACK CFI 23aaa .cfa: sp 20 + .ra: .cfa -4 + ^ r7: .cfa -8 + ^ r6: .cfa -12 + ^ r5: .cfa -16 + ^ r4: .cfa -20 + ^
STACK CFI 23aac .cfa: r7 8 +
STACK CFI 23ab0 r11: .cfa -24 + ^ r10: .cfa -28 + ^ r9: .cfa -32 + ^ r8: .cfa -36 + ^
STACK CFI INIT 23cbc 25c .cfa: sp 0 +
STACK CFI 23cbe .cfa: sp 20 + .ra: .cfa -4 + ^ r7: .cfa -8 + ^ r6: .cfa -12 + ^ r5: .cfa -16 + ^ r4: .cfa -20 + ^
STACK CFI 23cc0 .cfa: r7 8 +
STACK CFI 23cc4 r11: .cfa -24 + ^ r10: .cfa -28 + ^ r9: .cfa -32 + ^ r8: .cfa -36 + ^
STACK CFI INIT 23f18 410 .cfa: sp 0 +
STACK CFI 23f1a .cfa: sp 20 + .ra: .cfa -4 + ^ r7: .cfa -8 + ^ r6: .cfa -12 + ^ r5: .cfa -16 + ^ r4: .cfa -20 + ^
STACK CFI 23f1c .cfa: r7 8 +
STACK CFI 23f20 r11: .cfa -24 + ^ r10: .cfa -28 + ^ r9: .cfa -32 + ^ r8: .cfa -36 + ^
STACK CFI INIT 24328 f8 .cfa: sp 0 +
STACK CFI 2432a .cfa: sp 20 + .ra: .cfa -4 + ^ r7: .cfa -8 + ^ r6: .cfa -12 + ^ r5: .cfa -16 + ^ r4: .cfa -20 + ^
STACK CFI 2432c .cfa: r7 8 +
STACK CFI 24330 r8: .cfa -24 + ^
STACK CFI INIT 24420 2 .cfa: sp 0 +
STACK CFI INIT 24422 e .cfa: sp 0 +
STACK CFI INIT 24430 3f2 .cfa: sp 0 +
STACK CFI 24432 .cfa: sp 20 + .ra: .cfa -4 + ^ r7: .cfa -8 + ^ r6: .cfa -12 + ^ r5: .cfa -16 + ^ r4: .cfa -20 + ^
STACK CFI 24434 .cfa: r7 8 +
STACK CFI 24438 r11: .cfa -24 + ^ r10: .cfa -28 + ^ r9: .cfa -32 + ^ r8: .cfa -36 + ^
