MODULE Linux arm64 D688BCB722A9BFF5FA35AAB760F46EF70 fleym.nongd.android64.so
INFO CODE_ID B7BC88D6A922F5BFFA35AAB760F46EF7034E5091
INFO GENERATOR mozilla/dump_syms 2.3.4
PUBLIC 572c0 0 __on_dlclose
PUBLIC 572d0 0 __emutls_unregister_key
PUBLIC 572d8 0 __on_dlclose_late
PUBLIC 572e0 0 __atexit_handler_wrapper
PUBLIC 572f4 0 atexit
PUBLIC 57310 0 pthread_atfork
PUBLIC 57320 0 jukebox::compat::v2::isSongValid(matjson::Value const&)
PUBLIC 573f0 0 jukebox::compat::v2::manifestPath()
PUBLIC 5754c 0 jukebox::compat::v2::backupManifest(bool)
PUBLIC 578d8 0 geode::impl::ResultData<std::__ndk1::__fs::filesystem::path, std::__ndk1::basic_string<char, std::__ndk1::char_traits<char>, std::__ndk1::allocator<char> > >::~ResultData()
PUBLIC 5794c 0 geode::impl::ResultData<std::__ndk1::basic_string<char, std::__ndk1::char_traits<char>, std::__ndk1::allocator<char> >, std::__ndk1::basic_string<char, std::__ndk1::char_traits<char>, std::__ndk1::allocator<char> > >::~ResultData()
PUBLIC 579c0 0 geode::impl::ResultData<std::__ndk1::basic_string<char, std::__ndk1::char_traits<char>, std::__ndk1::allocator<char> >, std::__ndk1::basic_string<char, std::__ndk1::char_traits<char>, std::__ndk1::allocator<char> > >::unwrap() &&
PUBLIC 57a38 0 jukebox::SongMetadata::SongMetadata(int, std::__ndk1::basic_string<char, std::__ndk1::char_traits<char>, std::__ndk1::allocator<char> >, std::__ndk1::basic_string<char, std::__ndk1::char_traits<char>, std::__ndk1::allocator<char> >, std::__ndk1::basic_string<char, std::__ndk1::char_traits<char>, std::__ndk1::allocator<char> >, std::__ndk1::optional<std::__ndk1::basic_string<char, std::__ndk1::char_traits<char>, std::__ndk1::allocator<char> > >, int)
PUBLIC 57bd0 0 jukebox::SongMetadata::~SongMetadata()
PUBLIC 57c4c 0 geode::impl::ResultData<long, std::__ndk1::basic_string<char, std::__ndk1::char_traits<char>, std::__ndk1::allocator<char> > >::~ResultData()
PUBLIC 57cc0 0 jukebox::compat::v2::getDefault(int, std::__ndk1::__fs::filesystem::path const&, matjson::Value const&)
PUBLIC 582bc 0 std::__ndk1::__fs::filesystem::operator==[abi:ne180000](std::__ndk1::__fs::filesystem::path const&, std::__ndk1::__fs::filesystem::path const)
PUBLIC 582f4 0 jukebox::compat::v2::getActive(int, std::__ndk1::__fs::filesystem::path const&, matjson::Value const&)
PUBLIC 588f0 0 jukebox::compat::v2::parseManifest()
PUBLIC 59bb4 0 geode::impl::ResultData<matjson::Value, matjson::ParseError>::~ResultData()
PUBLIC 59c28 0 _ZN5geode6ResultINSt6__ndk113unordered_mapIiN7jukebox6compat14CompatManifestENS1_4hashIiEENS1_8equal_toIiEENS1_9allocatorINS1_4pairIKiS5_EEEEEENS1_12basic_stringIcNS1_11char_traitsIcEENSA_IcEEEEECI2NS_4impl17ResultDataWrapperISF_SK_EEIRA13_KcQsr3stdE18constructible_fromIT0_TL0__EEEONSM_12ErrContainerIT_EE
PUBLIC 59cc8 0 _ZN7matjson3getILm0ERKNS_5ValueEQrqXsr3stdE9is_same_vIu7__decayIT0_ES1_EEEEDcOS4_
PUBLIC 59d9c 0 geode::impl::ResultData<std::__ndk1::vector<matjson::Value, std::__ndk1::allocator<matjson::Value> > const&, std::__ndk1::basic_string<char, std::__ndk1::char_traits<char>, std::__ndk1::allocator<char> > >::unwrap() &&
PUBLIC 59e18 0 std::__ndk1::vector<matjson::Value, std::__ndk1::allocator<matjson::Value> >::~vector[abi:ne180000]()
PUBLIC 59e80 0 geode::impl::ResultData<std::__ndk1::vector<matjson::Value, std::__ndk1::allocator<matjson::Value> > const&, std::__ndk1::basic_string<char, std::__ndk1::char_traits<char>, std::__ndk1::allocator<char> > >::~ResultData()
PUBLIC 59ef4 0 geode::log::warn<std::__ndk1::basic_string<char, std::__ndk1::char_traits<char>, std::__ndk1::allocator<char> >&>(fmt::v11::basic_format_string<char, fmt::v11::type_identity<std::__ndk1::conditional<IsWrappedCocos<std::__ndk1::basic_string<char, std::__ndk1::char_traits<char>, std::__ndk1::allocator<char> >&>, decltype ((wrapCocosObj<std::__ndk1::basic_string<char, std::__ndk1::char_traits<char>, std::__ndk1::allocator<char> >&>)((std::declval<std::__ndk1::basic_string<char, std::__ndk1::char_traits<char>, std::__ndk1::allocator<char> >&>)())), std::__ndk1::basic_string<char, std::__ndk1::char_traits<char>, std::__ndk1::allocator<char> >&>::type>::type>, std::__ndk1::basic_string<char, std::__ndk1::char_traits<char>, std::__ndk1::allocator<char> >&)
PUBLIC 59f94 0 geode::impl::ResultData<jukebox::LocalSong, std::__ndk1::basic_string<char, std::__ndk1::char_traits<char>, std::__ndk1::allocator<char> > >::unwrapErr() &
PUBLIC 5a00c 0 geode::impl::ResultData<jukebox::LocalSong, std::__ndk1::basic_string<char, std::__ndk1::char_traits<char>, std::__ndk1::allocator<char> > >::unwrap() &
PUBLIC 5a084 0 geode::log::warn<>(fmt::v11::basic_format_string<char, fmt::v11::type_identity<std::__ndk1::conditional<IsWrappedCocos<>, decltype ((wrapCocosObj<>)((std::declval<>)())), >::type>::type>, &&)
PUBLIC 5a0fc 0 std::__ndk1::vector<jukebox::LocalSong, std::__ndk1::allocator<jukebox::LocalSong> >::push_back[abi:ne180000](jukebox::LocalSong&&)
PUBLIC 5a31c 0 std::__ndk1::pair<int const, jukebox::compat::CompatManifest>::~pair()
PUBLIC 5a42c 0 jukebox::compat::CompatManifest::~CompatManifest()
PUBLIC 5a53c 0 std::__ndk1::vector<jukebox::LocalSong, std::__ndk1::allocator<jukebox::LocalSong> >::~vector[abi:ne180000]()
PUBLIC 5a5ec 0 geode::impl::ResultData<jukebox::LocalSong, std::__ndk1::basic_string<char, std::__ndk1::char_traits<char>, std::__ndk1::allocator<char> > >::~ResultData()
PUBLIC 5a660 0 geode::impl::ResultData<matjson::Value, std::__ndk1::basic_string<char, std::__ndk1::char_traits<char>, std::__ndk1::allocator<char> > >::~ResultData()
PUBLIC m 5a6d4 0 std::__ndk1::basic_ifstream<char, std::__ndk1::char_traits<char> >::~basic_ifstream()
PUBLIC 5a724 0 __clang_call_terminate
PUBLIC 5a734 0 std::__ndk1::__fs::filesystem::path::operator/=[abi:ne180000](std::__ndk1::__fs::filesystem::path const&)
PUBLIC 5a81c 0 std::__ndk1::basic_string<char, std::__ndk1::char_traits<char>, std::__ndk1::allocator<char> >::__throw_length_error[abi:ne180000]() const
PUBLIC 5a830 0 std::__ndk1::__throw_length_error[abi:ne180000](char const*)
PUBLIC 5a880 0 std::length_error::length_error[abi:ne180000](char const*)
PUBLIC 5a8b0 0 std::__throw_bad_array_new_length([abi:ne180000], void)
PUBLIC 5a8e4 0 _ZNSt6__ndk112basic_stringIcNS_11char_traitsIcEENS_9allocatorIcEEE6appendB8ne180000IPKcTnNS_9enable_ifIXsr31__has_forward_iterator_categoryIT_EE5valueEiE4typeELi0EEERS5_SA_SA_
PUBLIC 5abe8 0 std::__ndk1::__throw_bad_variant_access[abi:ne180000]()
PUBLIC 5ac1c 0 _ZN5geode15UnwrapExceptionC2IRNSt6__ndk112basic_stringIcNS2_11char_traitsIcEENS2_9allocatorIcEEEEQsr4implE18IsStringStreamableIT_EEENS_4impl6ErrTagEOSA_
PUBLIC 5ad84 0 std::__ndk1::basic_stringstream<char, std::__ndk1::char_traits<char>, std::__ndk1::allocator<char> >::basic_stringstream[abi:ne180000]()
PUBLIC m 5aeb0 0 std::__ndk1::basic_stringstream<char, std::__ndk1::char_traits<char>, std::__ndk1::allocator<char> >::~basic_stringstream()
PUBLIC 5af30 0 geode::UnwrapException::~UnwrapException()
PUBLIC 5af54 0 std::__ndk1::__put_character_sequence[abi:ne180000]<char, std::__ndk1::char_traits<char> >(std::__ndk1::basic_ostream<char, std::__ndk1::char_traits<char> >, std::__ndk1::basic_ostream const*, unsigned long)
PUBLIC 5b0f8 0 std::__ndk1::__pad_and_output[abi:ne180000]<char, std::__ndk1::char_traits<char> >(std::__ndk1::char_traits<char>, std::__ndk1::ostreambuf_iterator const*, std::__ndk1::ostreambuf_iterator const, std::__ndk1::ostreambuf_iterator const, std::__ndk1::ios_base&, std::__ndk1::ostreambuf_iterator)
PUBLIC 5b2d4 0 std::__ndk1::basic_stringbuf<char, std::__ndk1::char_traits<char>, std::__ndk1::allocator<char> >::str[abi:ne180000]() &&
PUBLIC 5b44c 0 std::__ndk1::basic_stringbuf<char, std::__ndk1::char_traits<char>, std::__ndk1::allocator<char> >::__init_buf_ptrs[abi:ne180000]()
PUBLIC 5b594 0 std::__ndk1::__variant_detail::__visitation::__base::__dispatcher<(unsigned long)0>::__dispatch[abi:ne180000]<std::__ndk1::__variant_detail::__dtor<std::__ndk1::__variant_detail::__traits<std::__ndk1::__fs::filesystem::path, std::__ndk1::basic_string<char, std::__ndk1::char_traits<char>, std::__ndk1::allocator<char> > >, (std::__ndk1::__variant_detail::_Trait)1>::__destroy[abi:ne180000]()::{lambda(auto:1&)#1}, std::__ndk1::__variant_detail::__base<(std::__ndk1::__variant_detail::__traits<std::__ndk1::__fs::filesystem::path, std::__ndk1::basic_string<char, std::__ndk1::char_traits<char>, std::__ndk1::allocator<char> > >)1, std::__ndk1::__fs::filesystem, std::__ndk1::allocator<char> >&>(std::__ndk1::__variant_detail::__dtor<std::__ndk1::__variant_detail::__traits<std::__ndk1::__fs::filesystem::path, std::__ndk1::basic_string<char, std::__ndk1::char_traits<char>, std::__ndk1::allocator<char> > >, (std::__ndk1::__variant_detail::_Trait)1>, std::__ndk1::__variant_detail::__base<(std::__ndk1::__variant_detail::__traits<std::__ndk1::__fs::filesystem::path, std::__ndk1::basic_string<char, std::__ndk1::char_traits<char>, std::__ndk1::allocator<char> > >)1, std::__ndk1::__fs::filesystem, std::__ndk1::allocator<char> >&)
PUBLIC 5b5a8 0 std::__ndk1::__variant_detail::__visitation::__base::__dispatcher<(unsigned long)1>::__dispatch[abi:ne180000]<std::__ndk1::__variant_detail::__dtor<std::__ndk1::__variant_detail::__traits<std::__ndk1::__fs::filesystem::path, std::__ndk1::basic_string<char, std::__ndk1::char_traits<char>, std::__ndk1::allocator<char> > >, (std::__ndk1::__variant_detail::_Trait)1>::__destroy[abi:ne180000]()::{lambda(auto:1&)#1}, std::__ndk1::__variant_detail::__base<(std::__ndk1::__variant_detail::__traits<std::__ndk1::__fs::filesystem::path, std::__ndk1::basic_string<char, std::__ndk1::char_traits<char>, std::__ndk1::allocator<char> > >)1, std::__ndk1::__fs::filesystem, std::__ndk1::allocator<char> >&>(std::__ndk1::__variant_detail::__dtor<std::__ndk1::__variant_detail::__traits<std::__ndk1::__fs::filesystem::path, std::__ndk1::basic_string<char, std::__ndk1::char_traits<char>, std::__ndk1::allocator<char> > >, (std::__ndk1::__variant_detail::_Trait)1>, std::__ndk1::__variant_detail::__base<(std::__ndk1::__variant_detail::__traits<std::__ndk1::__fs::filesystem::path, std::__ndk1::basic_string<char, std::__ndk1::char_traits<char>, std::__ndk1::allocator<char> > >)1, std::__ndk1::__fs::filesystem, std::__ndk1::allocator<char> >&)
PUBLIC 5b5bc 0 std::__ndk1::__variant_detail::__visitation::__base::__dispatcher<(unsigned long)0>::__dispatch[abi:ne180000]<std::__ndk1::__variant_detail::__dtor<std::__ndk1::__variant_detail::__traits<std::__ndk1::basic_string<char, std::__ndk1::char_traits<char>, std::__ndk1::allocator<char> >, std::__ndk1::allocator<char> >, (std::__ndk1::__variant_detail::_Trait)1>::__destroy[abi:ne180000]()::{lambda(auto:1&)#1}, std::__ndk1::__variant_detail::__base<(std::__ndk1::__variant_detail::__traits<std::__ndk1::basic_string<char, std::__ndk1::char_traits<char>, std::__ndk1::allocator<char> >, std::__ndk1::allocator<char> >)1, std::__ndk1::allocator<char>, std::__ndk1::allocator<char> >&>(std::__ndk1::__variant_detail::__dtor<std::__ndk1::__variant_detail::__traits<std::__ndk1::basic_string<char, std::__ndk1::char_traits<char>, std::__ndk1::allocator<char> >, std::__ndk1::allocator<char> >, (std::__ndk1::__variant_detail::_Trait)1>, std::__ndk1::__variant_detail::__base<(std::__ndk1::__variant_detail::__traits<std::__ndk1::basic_string<char, std::__ndk1::char_traits<char>, std::__ndk1::allocator<char> >, std::__ndk1::allocator<char> >)1, std::__ndk1::allocator<char>, std::__ndk1::allocator<char> >&)
PUBLIC 5b5d0 0 std::__ndk1::__variant_detail::__visitation::__base::__dispatcher<(unsigned long)1>::__dispatch[abi:ne180000]<std::__ndk1::__variant_detail::__dtor<std::__ndk1::__variant_detail::__traits<std::__ndk1::basic_string<char, std::__ndk1::char_traits<char>, std::__ndk1::allocator<char> >, std::__ndk1::allocator<char> >, (std::__ndk1::__variant_detail::_Trait)1>::__destroy[abi:ne180000]()::{lambda(auto:1&)#1}, std::__ndk1::__variant_detail::__base<(std::__ndk1::__variant_detail::__traits<std::__ndk1::basic_string<char, std::__ndk1::char_traits<char>, std::__ndk1::allocator<char> >, std::__ndk1::allocator<char> >)1, std::__ndk1::allocator<char>, std::__ndk1::allocator<char> >&>(std::__ndk1::__variant_detail::__dtor<std::__ndk1::__variant_detail::__traits<std::__ndk1::basic_string<char, std::__ndk1::char_traits<char>, std::__ndk1::allocator<char> >, std::__ndk1::allocator<char> >, (std::__ndk1::__variant_detail::_Trait)1>, std::__ndk1::__variant_detail::__base<(std::__ndk1::__variant_detail::__traits<std::__ndk1::basic_string<char, std::__ndk1::char_traits<char>, std::__ndk1::allocator<char> >, std::__ndk1::allocator<char> >)1, std::__ndk1::allocator<char>, std::__ndk1::allocator<char> >&)
PUBLIC 5b5e4 0 std::__ndk1::__variant_detail::__visitation::__base::__dispatcher<(unsigned long)0>::__dispatch[abi:ne180000]<std::__ndk1::__variant_detail::__dtor<std::__ndk1::__variant_detail::__traits<long, std::__ndk1::basic_string<char, std::__ndk1::char_traits<char>, std::__ndk1::allocator<char> > >, (std::__ndk1::__variant_detail::_Trait)1>::__destroy[abi:ne180000]()::{lambda(auto:1&)#1}, std::__ndk1::__variant_detail::__base<(std::__ndk1::__variant_detail::__traits<long, std::__ndk1::basic_string<char, std::__ndk1::char_traits<char>, std::__ndk1::allocator<char> > >)1, long, std::__ndk1::allocator<char> >&>(std::__ndk1::__variant_detail::__dtor<std::__ndk1::__variant_detail::__traits<long, std::__ndk1::basic_string<char, std::__ndk1::char_traits<char>, std::__ndk1::allocator<char> > >, (std::__ndk1::__variant_detail::_Trait)1>, std::__ndk1::__variant_detail::__base<(std::__ndk1::__variant_detail::__traits<long, std::__ndk1::basic_string<char, std::__ndk1::char_traits<char>, std::__ndk1::allocator<char> > >)1, long, std::__ndk1::allocator<char> >&)
PUBLIC 5b5e8 0 std::__ndk1::__variant_detail::__visitation::__base::__dispatcher<(unsigned long)1>::__dispatch[abi:ne180000]<std::__ndk1::__variant_detail::__dtor<std::__ndk1::__variant_detail::__traits<long, std::__ndk1::basic_string<char, std::__ndk1::char_traits<char>, std::__ndk1::allocator<char> > >, (std::__ndk1::__variant_detail::_Trait)1>::__destroy[abi:ne180000]()::{lambda(auto:1&)#1}, std::__ndk1::__variant_detail::__base<(std::__ndk1::__variant_detail::__traits<long, std::__ndk1::basic_string<char, std::__ndk1::char_traits<char>, std::__ndk1::allocator<char> > >)1, long, std::__ndk1::allocator<char> >&>(std::__ndk1::__variant_detail::__dtor<std::__ndk1::__variant_detail::__traits<long, std::__ndk1::basic_string<char, std::__ndk1::char_traits<char>, std::__ndk1::allocator<char> > >, (std::__ndk1::__variant_detail::_Trait)1>, std::__ndk1::__variant_detail::__base<(std::__ndk1::__variant_detail::__traits<long, std::__ndk1::basic_string<char, std::__ndk1::char_traits<char>, std::__ndk1::allocator<char> > >)1, long, std::__ndk1::allocator<char> >&)
PUBLIC 5b5fc 0 fmt::v11::detail::value<fmt::v11::context>::format_custom_arg<matjson::ParseError, fmt::v11::formatter<matjson::ParseError, char, void> >(void*, fmt::v11::basic_format_parse_context<char>&, fmt::v11::context&)
PUBLIC 5b7d0 0 fmt::v11::detail::parse_format_specs<char>(char const*, char const*, fmt::v11::detail::dynamic_format_specs<char>&, fmt::v11::basic_format_parse_context<char>&, fmt::v11::detail::type)
PUBLIC 5bc84 0 fmt::v11::detail::parse_dynamic_spec<char>(char const*, char const*, int&, fmt::v11::detail::arg_ref<char>&, fmt::v11::basic_format_parse_context<char>&)
PUBLIC 5be28 0 fmt::v11::detail::do_parse_arg_id<char, fmt::v11::detail::dynamic_spec_id_handler<char>&>(char const*, char const*, fmt::v11::detail::dynamic_spec_id_handler<char>&)
PUBLIC 5bfbc 0 matjson::ParseError::operator std::__ndk1::basic_string<char, std::__ndk1::char_traits<char>, std::__ndk1::allocator<char> >() const
PUBLIC 5c36c 0 fmt::v11::detail::handle_dynamic_spec<fmt::v11::detail::width_checker, fmt::v11::context>(int&, fmt::v11::detail::arg_ref<fmt::v11::context::char_type>, fmt::v11::context&)
PUBLIC 5c480 0 fmt::v11::detail::handle_dynamic_spec<fmt::v11::detail::precision_checker, fmt::v11::context>(int&, fmt::v11::detail::arg_ref<fmt::v11::context::char_type>, fmt::v11::context&)
PUBLIC 5c594 0 fmt::v11::detail::write<char, fmt::v11::basic_appender<char> >(fmt::v11::basic_appender<char>, fmt::v11::basic_string_view<char>, fmt::v11::format_specs const&)
PUBLIC 5c810 0 fmt::v11::detail::write_escaped_string<char, fmt::v11::detail::counting_iterator>(fmt::v11::detail::counting_iterator, fmt::v11::basic_string_view<char>)
PUBLIC 5cd30 0 fmt::v11::detail::write_padded<char, (fmt::v11::align::type)1, fmt::v11::basic_appender<char>, fmt::v11::detail::write<char, fmt::v11::basic_appender<char> >(fmt::v11::basic_appender<char>, fmt::v11::basic_string_view<char>, fmt::v11::format_specs const&)::{lambda(fmt::v11::basic_appender<char>)#1}>(fmt::v11::basic_appender<char>, fmt::v11::format_specs const&, unsigned long, unsigned long, fmt::v11::detail::write<char, fmt::v11::basic_appender<char> >(fmt::v11::basic_appender<char>, fmt::v11::basic_string_view<char>, fmt::v11::format_specs const&)::{lambda(fmt::v11::basic_appender<char>&&)#1})
PUBLIC 5cf3c 0 fmt::v11::detail::for_each_codepoint<fmt::v11::detail::code_point_index(fmt::v11::basic_string_view<char>, unsigned long)::{lambda(unsigned int, fmt::v11::basic_string_view<char>)#1}>(fmt::v11::basic_string_view<char>, fmt::v11::detail::code_point_index(fmt::v11::basic_string_view<char>, unsigned long)::{lambda(unsigned int, fmt::v11::basic_string_view<char>)#1})
PUBLIC 5d364 0 fmt::v11::detail::write_escaped_cp<fmt::v11::detail::counting_iterator, char>(fmt::v11::detail::counting_iterator, fmt::v11::detail::find_escape_result<char> const&)
PUBLIC 5d4f8 0 fmt::v11::detail::for_each_codepoint<fmt::v11::detail::compute_width(fmt::v11::basic_string_view<char>)::count_code_points>(fmt::v11::basic_string_view<char>, fmt::v11::detail::compute_width(fmt::v11::basic_string_view<char>)::count_code_points)::{lambda(char const*, char const*)#1}::operator()(char const*, char const*) const
PUBLIC 5d6b0 0 fmt::v11::detail::fill<char, fmt::v11::basic_appender<char> >(fmt::v11::basic_appender<char>, unsigned long, fmt::v11::detail::fill_t const&)
PUBLIC 5d880 0 fmt::v11::detail::write_escaped_string<char, fmt::v11::basic_appender<char> >(fmt::v11::basic_appender<char>, fmt::v11::basic_string_view<char>)
PUBLIC 5defc 0 fmt::v11::detail::write_escaped_cp<fmt::v11::basic_appender<char>, char>(fmt::v11::basic_appender<char>, fmt::v11::detail::find_escape_result<char> const&)
PUBLIC 5e0e0 0 fmt::v11::detail::write_codepoint<(unsigned long)2, char, fmt::v11::basic_appender<char> >(fmt::v11::basic_appender<char>, char, unsigned int)
PUBLIC 5e258 0 fmt::v11::detail::write_codepoint<(unsigned long)4, char, fmt::v11::basic_appender<char> >(fmt::v11::basic_appender<char>, char, unsigned int)
PUBLIC 5e3d0 0 fmt::v11::detail::write_codepoint<(unsigned long)8, char, fmt::v11::basic_appender<char> >(fmt::v11::basic_appender<char>, char, unsigned int)
PUBLIC 5e548 0 fmt::v11::detail::get_dynamic_spec<fmt::v11::detail::width_checker, fmt::v11::basic_format_arg<fmt::v11::context> >(fmt::v11::basic_format_arg<fmt::v11::context>)
PUBLIC 5e5dc 0 fmt::v11::basic_format_args<fmt::v11::context>::get<char>(fmt::v11::basic_string_view<char>) const
PUBLIC 5e734 0 fmt::v11::detail::get_dynamic_spec<fmt::v11::detail::precision_checker, fmt::v11::basic_format_arg<fmt::v11::context> >(fmt::v11::basic_format_arg<fmt::v11::context>)
PUBLIC 5e7c8 0 std::__ndk1::__variant_detail::__visitation::__base::__dispatcher<(unsigned long)0>::__dispatch[abi:ne180000]<std::__ndk1::__variant_detail::__dtor<std::__ndk1::__variant_detail::__traits<matjson::Value, std::__ndk1::__variant_detail::__traits::ParseError>, (std::__ndk1::__variant_detail::_Trait)1>::__destroy[abi:ne180000]()::{lambda(auto:1&)#1}, std::__ndk1::__variant_detail::__base<(std::__ndk1::__variant_detail::__traits<matjson::Value, std::__ndk1::__variant_detail::__traits::ParseError>)1, matjson, matjson::Value>&>(std::__ndk1::__variant_detail::__dtor<std::__ndk1::__variant_detail::__traits<matjson::Value, std::__ndk1::__variant_detail::__traits::ParseError>, (std::__ndk1::__variant_detail::_Trait)1>, std::__ndk1::__variant_detail::__base<(std::__ndk1::__variant_detail::__traits<matjson::Value, std::__ndk1::__variant_detail::__traits::ParseError>)1, matjson, matjson::Value>&)
PUBLIC 5e7d0 0 std::__ndk1::__variant_detail::__visitation::__base::__dispatcher<(unsigned long)1>::__dispatch[abi:ne180000]<std::__ndk1::__variant_detail::__dtor<std::__ndk1::__variant_detail::__traits<matjson::Value, std::__ndk1::__variant_detail::__traits::ParseError>, (std::__ndk1::__variant_detail::_Trait)1>::__destroy[abi:ne180000]()::{lambda(auto:1&)#1}, std::__ndk1::__variant_detail::__base<(std::__ndk1::__variant_detail::__traits<matjson::Value, std::__ndk1::__variant_detail::__traits::ParseError>)1, matjson, matjson::Value>&>(std::__ndk1::__variant_detail::__dtor<std::__ndk1::__variant_detail::__traits<matjson::Value, std::__ndk1::__variant_detail::__traits::ParseError>, (std::__ndk1::__variant_detail::_Trait)1>, std::__ndk1::__variant_detail::__base<(std::__ndk1::__variant_detail::__traits<matjson::Value, std::__ndk1::__variant_detail::__traits::ParseError>)1, matjson, matjson::Value>&)
PUBLIC 5e7e4 0 std::__ndk1::vector<matjson::Value, std::__ndk1::allocator<matjson::Value> >::__init_with_size[abi:ne180000]<matjson::Value*, std::__ndk1::vector<matjson::Value, std::__ndk1::allocator<matjson::Value> >::__init_with_size[abi:ne180000]>(matjson::Value*, std::__ndk1::vector<matjson::Value, std::__ndk1::allocator<matjson::Value> >::__init_with_size[abi:ne180000], unsigned long)
PUBLIC 5e900 0 std::__ndk1::__exception_guard_exceptions<std::__ndk1::vector<matjson::Value, std::__ndk1::allocator<matjson::Value> >::__destroy_vector>::~__exception_guard_exceptions[abi:ne180000]()
PUBLIC 5e97c 0 std::__ndk1::vector<matjson::Value, std::__ndk1::allocator<matjson::Value> >::__throw_length_error[abi:ne180000]() const
PUBLIC 5e990 0 std::__ndk1::__variant_detail::__visitation::__base::__dispatcher<(unsigned long)0>::__dispatch[abi:ne180000]<std::__ndk1::__variant_detail::__dtor<std::__ndk1::__variant_detail::__traits<std::__ndk1::reference_wrapper<std::__ndk1::vector<matjson::Value, std::__ndk1::allocator<matjson> > const>, std::__ndk1::basic_string<char, std::__ndk1::char_traits<char>, matjson::Value<char> > >, (std::__ndk1::__variant_detail::_Trait)1>::__destroy[abi:ne180000]()::{lambda(auto:1&)#1}, std::__ndk1::__variant_detail::__base<(std::__ndk1::__variant_detail::__traits<std::__ndk1::reference_wrapper<std::__ndk1::vector<matjson::Value, std::__ndk1::allocator<matjson> > const>, std::__ndk1::basic_string<char, std::__ndk1::char_traits<char>, matjson::Value<char> > >)1, std::__ndk1::vector<matjson::Value, std::__ndk1::allocator<matjson> > const, matjson::Value<char> >&>(std::__ndk1::__variant_detail::__dtor<std::__ndk1::__variant_detail::__traits<std::__ndk1::reference_wrapper<std::__ndk1::vector<matjson::Value, std::__ndk1::allocator<matjson> > const>, std::__ndk1::basic_string<char, std::__ndk1::char_traits<char>, matjson::Value<char> > >, (std::__ndk1::__variant_detail::_Trait)1>, std::__ndk1::__variant_detail::__base<(std::__ndk1::__variant_detail::__traits<std::__ndk1::reference_wrapper<std::__ndk1::vector<matjson::Value, std::__ndk1::allocator<matjson> > const>, std::__ndk1::basic_string<char, std::__ndk1::char_traits<char>, matjson::Value<char> > >)1, std::__ndk1::vector<matjson::Value, std::__ndk1::allocator<matjson> > const, matjson::Value<char> >&)
PUBLIC 5e994 0 std::__ndk1::__variant_detail::__visitation::__base::__dispatcher<(unsigned long)1>::__dispatch[abi:ne180000]<std::__ndk1::__variant_detail::__dtor<std::__ndk1::__variant_detail::__traits<std::__ndk1::reference_wrapper<std::__ndk1::vector<matjson::Value, std::__ndk1::allocator<matjson> > const>, std::__ndk1::basic_string<char, std::__ndk1::char_traits<char>, matjson::Value<char> > >, (std::__ndk1::__variant_detail::_Trait)1>::__destroy[abi:ne180000]()::{lambda(auto:1&)#1}, std::__ndk1::__variant_detail::__base<(std::__ndk1::__variant_detail::__traits<std::__ndk1::reference_wrapper<std::__ndk1::vector<matjson::Value, std::__ndk1::allocator<matjson> > const>, std::__ndk1::basic_string<char, std::__ndk1::char_traits<char>, matjson::Value<char> > >)1, std::__ndk1::vector<matjson::Value, std::__ndk1::allocator<matjson> > const, matjson::Value<char> >&>(std::__ndk1::__variant_detail::__dtor<std::__ndk1::__variant_detail::__traits<std::__ndk1::reference_wrapper<std::__ndk1::vector<matjson::Value, std::__ndk1::allocator<matjson> > const>, std::__ndk1::basic_string<char, std::__ndk1::char_traits<char>, matjson::Value<char> > >, (std::__ndk1::__variant_detail::_Trait)1>, std::__ndk1::__variant_detail::__base<(std::__ndk1::__variant_detail::__traits<std::__ndk1::reference_wrapper<std::__ndk1::vector<matjson::Value, std::__ndk1::allocator<matjson> > const>, std::__ndk1::basic_string<char, std::__ndk1::char_traits<char>, matjson::Value<char> > >)1, std::__ndk1::vector<matjson::Value, std::__ndk1::allocator<matjson> > const, matjson::Value<char> >&)
PUBLIC 5e9a8 0 _ZN5geode15UnwrapExceptionC2IRN7jukebox9LocalSongEQntsr4implE18IsStringStreamableIT_EEENS_4impl5OkTagEOS5_
PUBLIC 5e9dc 0 std::__ndk1::basic_string<char, std::__ndk1::char_traits<char>, std::__ndk1::allocator<char> >::__assign_no_alias<true>(char const*, unsigned long)
PUBLIC 5ea88 0 std::__ndk1::basic_string<char, std::__ndk1::char_traits<char>, std::__ndk1::allocator<char> >::__assign_no_alias<false>(char const*, unsigned long)
PUBLIC 5eb98 0 std::__ndk1::__split_buffer<jukebox::LocalSong, std::__ndk1::allocator<jukebox::LocalSong>&>::~__split_buffer()
PUBLIC 5ec2c 0 std::__ndk1::vector<jukebox::LocalSong, std::__ndk1::allocator<jukebox::LocalSong> >::__throw_length_error[abi:ne180000]() const
PUBLIC 5ec40 0 std::__ndk1::basic_string<char, std::__ndk1::char_traits<char>, std::__ndk1::allocator<char> >::__init_copy_ctor_external(char const*, unsigned long)
PUBLIC 5ecc0 0 std::__ndk1::__variant_detail::__visitation::__base::__dispatcher<(unsigned long)0>::__dispatch[abi:ne180000]<std::__ndk1::__variant_detail::__dtor<std::__ndk1::__variant_detail::__traits<jukebox::LocalSong, std::__ndk1::basic_string<char, std::__ndk1::char_traits<char>, std::__ndk1::allocator<char> > >, (std::__ndk1::__variant_detail::_Trait)1>::__destroy[abi:ne180000]()::{lambda(auto:1&)#1}, std::__ndk1::__variant_detail::__base<(std::__ndk1::__variant_detail::__traits<jukebox::LocalSong, std::__ndk1::basic_string<char, std::__ndk1::char_traits<char>, std::__ndk1::allocator<char> > >)1, jukebox, std::__ndk1::allocator<char> >&>(std::__ndk1::__variant_detail::__dtor<std::__ndk1::__variant_detail::__traits<jukebox::LocalSong, std::__ndk1::basic_string<char, std::__ndk1::char_traits<char>, std::__ndk1::allocator<char> > >, (std::__ndk1::__variant_detail::_Trait)1>, std::__ndk1::__variant_detail::__base<(std::__ndk1::__variant_detail::__traits<jukebox::LocalSong, std::__ndk1::basic_string<char, std::__ndk1::char_traits<char>, std::__ndk1::allocator<char> > >)1, jukebox, std::__ndk1::allocator<char> >&)
PUBLIC 5ed18 0 std::__ndk1::__variant_detail::__visitation::__base::__dispatcher<(unsigned long)1>::__dispatch[abi:ne180000]<std::__ndk1::__variant_detail::__dtor<std::__ndk1::__variant_detail::__traits<jukebox::LocalSong, std::__ndk1::basic_string<char, std::__ndk1::char_traits<char>, std::__ndk1::allocator<char> > >, (std::__ndk1::__variant_detail::_Trait)1>::__destroy[abi:ne180000]()::{lambda(auto:1&)#1}, std::__ndk1::__variant_detail::__base<(std::__ndk1::__variant_detail::__traits<jukebox::LocalSong, std::__ndk1::basic_string<char, std::__ndk1::char_traits<char>, std::__ndk1::allocator<char> > >)1, jukebox, std::__ndk1::allocator<char> >&>(std::__ndk1::__variant_detail::__dtor<std::__ndk1::__variant_detail::__traits<jukebox::LocalSong, std::__ndk1::basic_string<char, std::__ndk1::char_traits<char>, std::__ndk1::allocator<char> > >, (std::__ndk1::__variant_detail::_Trait)1>, std::__ndk1::__variant_detail::__base<(std::__ndk1::__variant_detail::__traits<jukebox::LocalSong, std::__ndk1::basic_string<char, std::__ndk1::char_traits<char>, std::__ndk1::allocator<char> > >)1, jukebox, std::__ndk1::allocator<char> >&)
PUBLIC 5ed2c 0 std::__ndk1::unordered_map<int, jukebox::compat::CompatManifest, std::__ndk1::hash<int>, std::__ndk1::equal_to<int>, std::__ndk1::allocator<std::__ndk1::pair<int const, jukebox::compat::CompatManifest> > >::unordered_map(std::__ndk1::unordered_map<int, jukebox::compat::CompatManifest, std::__ndk1::hash<int>, std::__ndk1::equal_to<int>, std::__ndk1::allocator<std::__ndk1::pair<int const, jukebox::compat::CompatManifest> > > const&)
PUBLIC 5f308 0 std::__ndk1::__hash_table<std::__ndk1::__hash_value_type<int, jukebox::compat::CompatManifest>, std::__ndk1::__unordered_map_hasher<int, std::__ndk1::__hash_value_type<int, jukebox::compat::CompatManifest>, std::__ndk1::hash<int>, std::__ndk1::equal_to<int>, true>, std::__ndk1::__unordered_map_equal<int, std::__ndk1::__hash_value_type<int, jukebox::compat::CompatManifest>, std::__ndk1::equal_to<int>, std::__ndk1::hash<int>, true>, std::__ndk1::allocator<std::__ndk1::__hash_value_type<int, jukebox::compat::CompatManifest> > >::~__hash_table()
PUBLIC 5f4bc 0 std::__ndk1::__hash_table<std::__ndk1::__hash_value_type<int, jukebox::compat::CompatManifest>, std::__ndk1::__unordered_map_hasher<int, std::__ndk1::__hash_value_type<int, jukebox::compat::CompatManifest>, std::__ndk1::hash<int>, std::__ndk1::equal_to<int>, true>, std::__ndk1::__unordered_map_equal<int, std::__ndk1::__hash_value_type<int, jukebox::compat::CompatManifest>, std::__ndk1::equal_to<int>, std::__ndk1::hash<int>, true>, std::__ndk1::allocator<std::__ndk1::__hash_value_type<int, jukebox::compat::CompatManifest> > >::__do_rehash<true>(unsigned long)
PUBLIC 5f668 0 std::__ndk1::unique_ptr<std::__ndk1::__hash_node<std::__ndk1::__hash_value_type<int, jukebox::compat::CompatManifest>, void*>, std::__ndk1::__hash_node_destructor<std::__ndk1::allocator<std::__ndk1::__hash_node<std::__ndk1::__hash_value_type<int, jukebox::compat::CompatManifest>, void*> > > >::~unique_ptr[abi:ne180000]()
PUBLIC 5f790 0 std::__ndk1::__exception_guard_exceptions<std::__ndk1::vector<jukebox::LocalSong, std::__ndk1::allocator<jukebox::LocalSong> >::__destroy_vector>::~__exception_guard_exceptions[abi:ne180000]()
PUBLIC 5f860 0 std::__ndk1::__variant_detail::__visitation::__base::__dispatcher<(unsigned long)0>::__dispatch[abi:ne180000]<std::__ndk1::__variant_detail::__dtor<std::__ndk1::__variant_detail::__traits<matjson::Value, std::__ndk1::basic_string<char, std::__ndk1::char_traits<char>, std::__ndk1::allocator<char> > >, (std::__ndk1::__variant_detail::_Trait)1>::__destroy[abi:ne180000]()::{lambda(auto:1&)#1}, std::__ndk1::__variant_detail::__base<(std::__ndk1::__variant_detail::__traits<matjson::Value, std::__ndk1::basic_string<char, std::__ndk1::char_traits<char>, std::__ndk1::allocator<char> > >)1, matjson, std::__ndk1::allocator<char> >&>(std::__ndk1::__variant_detail::__dtor<std::__ndk1::__variant_detail::__traits<matjson::Value, std::__ndk1::basic_string<char, std::__ndk1::char_traits<char>, std::__ndk1::allocator<char> > >, (std::__ndk1::__variant_detail::_Trait)1>, std::__ndk1::__variant_detail::__base<(std::__ndk1::__variant_detail::__traits<matjson::Value, std::__ndk1::basic_string<char, std::__ndk1::char_traits<char>, std::__ndk1::allocator<char> > >)1, matjson, std::__ndk1::allocator<char> >&)
PUBLIC 5f868 0 std::__ndk1::__variant_detail::__visitation::__base::__dispatcher<(unsigned long)1>::__dispatch[abi:ne180000]<std::__ndk1::__variant_detail::__dtor<std::__ndk1::__variant_detail::__traits<matjson::Value, std::__ndk1::basic_string<char, std::__ndk1::char_traits<char>, std::__ndk1::allocator<char> > >, (std::__ndk1::__variant_detail::_Trait)1>::__destroy[abi:ne180000]()::{lambda(auto:1&)#1}, std::__ndk1::__variant_detail::__base<(std::__ndk1::__variant_detail::__traits<matjson::Value, std::__ndk1::basic_string<char, std::__ndk1::char_traits<char>, std::__ndk1::allocator<char> > >)1, matjson, std::__ndk1::allocator<char> >&>(std::__ndk1::__variant_detail::__dtor<std::__ndk1::__variant_detail::__traits<matjson::Value, std::__ndk1::basic_string<char, std::__ndk1::char_traits<char>, std::__ndk1::allocator<char> > >, (std::__ndk1::__variant_detail::_Trait)1>, std::__ndk1::__variant_detail::__base<(std::__ndk1::__variant_detail::__traits<matjson::Value, std::__ndk1::basic_string<char, std::__ndk1::char_traits<char>, std::__ndk1::allocator<char> > >)1, matjson, std::__ndk1::allocator<char> >&)
PUBLIC 5f87c 0 std::__ndk1::basic_ifstream<char, std::__ndk1::char_traits<char> >::basic_ifstream(char const*, unsigned int)
PUBLIC 5f990 0 std::__ndk1::__hash_table<std::__ndk1::__hash_value_type<int, jukebox::compat::CompatManifest>, std::__ndk1::__unordered_map_hasher<int, std::__ndk1::__hash_value_type<int, jukebox::compat::CompatManifest>, std::__ndk1::hash<int>, std::__ndk1::equal_to<int>, true>, std::__ndk1::__unordered_map_equal<int, std::__ndk1::__hash_value_type<int, jukebox::compat::CompatManifest>, std::__ndk1::equal_to<int>, std::__ndk1::hash<int>, true>, std::__ndk1::allocator<std::__ndk1::__hash_value_type<int, jukebox::compat::CompatManifest> > >::__emplace_unique_key_args<int, std::__ndk1::pair<int const, jukebox::compat::CompatManifest> >(int const&, std::__ndk1::pair<int const, jukebox::compat::CompatManifest>&&)
PUBLIC 5fd00 0 __aarch64_ldadd8_relax
PUBLIC 5fd30 0 init_have_lse_atomics
PUBLIC 5fdc8 0 __init_cpu_features_constructor
PUBLIC 60364 0 __init_cpu_features
PUBLIC 603f0 0 __aarch64_ldadd8_acq_rel
PUBLIC 60420 0 jukebox::download::startHostedDownload(std::__ndk1::basic_string<char, std::__ndk1::char_traits<char>, std::__ndk1::allocator<char> > const&)
PUBLIC 60b28 0 geode::Task<geode::utils::web::WebResponse, geode::utils::web::WebProgress>::~Task()
PUBLIC 60b78 0 geode::Task<geode::Result<std::__ndk1::vector<unsigned char, std::__ndk1::allocator<unsigned char> >, std::__ndk1::basic_string<char, std::__ndk1::char_traits<char>, std::__ndk1::allocator<char> > >, float>::Handle::create(std::__ndk1::basic_string_view<char, std::__ndk1::char_traits<char> >)
PUBLIC 60ca0 0 std::__ndk1::shared_ptr<geode::Task<geode::Result<std::__ndk1::vector<unsigned char, std::__ndk1::allocator<unsigned char> >, std::__ndk1::basic_string<char, std::__ndk1::char_traits<char>, std::__ndk1::allocator<char> > >, float>::Handle>::~shared_ptr[abi:ne180000]()
PUBLIC 60cf0 0 geode::Task<geode::Result<std::__ndk1::vector<unsigned char, std::__ndk1::allocator<unsigned char> >, std::__ndk1::basic_string<char, std::__ndk1::char_traits<char>, std::__ndk1::allocator<char> > >, float>::cancel(std::__ndk1::shared_ptr<geode::Task<geode::Result<std::__ndk1::vector<unsigned char, std::__ndk1::allocator<unsigned char> >, std::__ndk1::basic_string<char, std::__ndk1::char_traits<char>, std::__ndk1::allocator<char> > >, float>::Handle>, bool)
PUBLIC 60e60 0 geode::Task<geode::Result<std::__ndk1::vector<unsigned char, std::__ndk1::allocator<unsigned char> >, std::__ndk1::basic_string<char, std::__ndk1::char_traits<char>, std::__ndk1::allocator<char> > >, float>::finish(std::__ndk1::shared_ptr<geode::Task<geode::Result<std::__ndk1::vector<unsigned char, std::__ndk1::allocator<unsigned char> >, std::__ndk1::basic_string<char, std::__ndk1::char_traits<char>, std::__ndk1::allocator<char> > >, float>::Handle>, geode::Result<std::__ndk1::vector<unsigned char, std::__ndk1::allocator<unsigned char> >, std::__ndk1::basic_string<char, std::__ndk1::char_traits<char>, std::__ndk1::allocator<char> > >&&)
PUBLIC 61034 0 geode::impl::ResultData<std::__ndk1::vector<unsigned char, std::__ndk1::allocator<unsigned char> >, std::__ndk1::basic_string<char, std::__ndk1::char_traits<char>, std::__ndk1::allocator<char> > >::~ResultData()
PUBLIC 610a8 0 geode::EventListener<geode::Task<geode::utils::web::WebResponse, geode::utils::web::WebProgress> >::EventListener(std::__ndk1::function<void (geode::Task<geode::utils::web::WebResponse, geode::utils::web::WebProgress>*::Event)>, geode::Task<geode::utils::web::WebResponse, geode::utils::web::WebProgress>)
PUBLIC 611b0 0 geode::Task<geode::Result<std::__ndk1::vector<unsigned char, std::__ndk1::allocator<unsigned char> >, std::__ndk1::basic_string<char, std::__ndk1::char_traits<char>, std::__ndk1::allocator<char> > >, float>::~Task()
PUBLIC 61200 0 std::__ndk1::__shared_ptr_emplace<geode::Task<geode::Result<std::__ndk1::vector<unsigned char, std::__ndk1::allocator<unsigned char> >, std::__ndk1::basic_string<char, std::__ndk1::char_traits<char>, std::__ndk1::allocator<char> > >, float>::Handle, std::__ndk1::allocator<geode::Task<geode::Result<std::__ndk1::vector<unsigned char, std::__ndk1::allocator<unsigned char> >, std::__ndk1::basic_string<char, std::__ndk1::char_traits<char>, std::__ndk1::allocator<char> > >, float>::Handle> >::~__shared_ptr_emplace()
PUBLIC 61210 0 std::__ndk1::__shared_ptr_emplace<geode::Task<geode::Result<std::__ndk1::vector<unsigned char, std::__ndk1::allocator<unsigned char> >, std::__ndk1::basic_string<char, std::__ndk1::char_traits<char>, std::__ndk1::allocator<char> > >, float>::Handle, std::__ndk1::allocator<geode::Task<geode::Result<std::__ndk1::vector<unsigned char, std::__ndk1::allocator<unsigned char> >, std::__ndk1::basic_string<char, std::__ndk1::char_traits<char>, std::__ndk1::allocator<char> > >, float>::Handle> >::~__shared_ptr_emplace()
PUBLIC 61240 0 std::__ndk1::__shared_ptr_emplace<geode::Task<geode::Result<std::__ndk1::vector<unsigned char, std::__ndk1::allocator<unsigned char> >, std::__ndk1::basic_string<char, std::__ndk1::char_traits<char>, std::__ndk1::allocator<char> > >, float>::Handle, std::__ndk1::allocator<geode::Task<geode::Result<std::__ndk1::vector<unsigned char, std::__ndk1::allocator<unsigned char> >, std::__ndk1::basic_string<char, std::__ndk1::char_traits<char>, std::__ndk1::allocator<char> > >, float>::Handle> >::__on_zero_shared()
PUBLIC 61248 0 std::__ndk1::__shared_ptr_emplace<geode::Task<geode::Result<std::__ndk1::vector<unsigned char, std::__ndk1::allocator<unsigned char> >, std::__ndk1::basic_string<char, std::__ndk1::char_traits<char>, std::__ndk1::allocator<char> > >, float>::Handle, std::__ndk1::allocator<geode::Task<geode::Result<std::__ndk1::vector<unsigned char, std::__ndk1::allocator<unsigned char> >, std::__ndk1::basic_string<char, std::__ndk1::char_traits<char>, std::__ndk1::allocator<char> > >, float>::Handle> >::__on_zero_shared_weak()
PUBLIC 6124c 0 std::__ndk1::__optional_destruct_base<geode::Result<std::__ndk1::vector<unsigned char, std::__ndk1::allocator<unsigned char> >, std::__ndk1::basic_string<char, std::__ndk1::char_traits<char>, std::__ndk1::allocator<char> > >, false>::~__optional_destruct_base[abi:ne180000]()
PUBLIC 612c8 0 geode::Task<geode::Result<std::__ndk1::vector<unsigned char, std::__ndk1::allocator<unsigned char> >, std::__ndk1::basic_string<char, std::__ndk1::char_traits<char>, std::__ndk1::allocator<char> > >, float>::Handle::~Handle()
PUBLIC 613cc 0 geode::Task<geode::Result<std::__ndk1::vector<unsigned char, std::__ndk1::allocator<unsigned char> >, std::__ndk1::basic_string<char, std::__ndk1::char_traits<char>, std::__ndk1::allocator<char> > >, float>::cancel(std::__ndk1::shared_ptr<geode::Task<geode::Result<std::__ndk1::vector<unsigned char, std::__ndk1::allocator<unsigned char> >, std::__ndk1::basic_string<char, std::__ndk1::char_traits<char>, std::__ndk1::allocator<char> > >, float>::Handle>, bool)::{lambda()#1}::~{lambda()#1}()
PUBLIC 6141c 0 std::__ndk1::__function::__func<geode::Task<geode::Result<std::__ndk1::vector<unsigned char, std::__ndk1::allocator<unsigned char> >, std::__ndk1::basic_string<char, std::__ndk1::char_traits<char>, std::__ndk1::allocator<char> > >, float>::cancel(std::__ndk1::shared_ptr<geode::Task<geode::Result<std::__ndk1::vector<unsigned char, std::__ndk1::allocator<unsigned char> >, std::__ndk1::basic_string<char, std::__ndk1::char_traits<char>, std::__ndk1::allocator<char> > >, float>::Handle>, bool)::{lambda()#1}, std::__ndk1::allocator<geode::Task<geode::Result<std::__ndk1::vector<unsigned char, std::__ndk1::allocator<unsigned char> >, std::__ndk1::basic_string<char, std::__ndk1::char_traits<char>, std::__ndk1::allocator<char> > >, float>::cancel(std::__ndk1::shared_ptr<geode::Task<geode::Result<std::__ndk1::vector<unsigned char, std::__ndk1::allocator<unsigned char> >, std::__ndk1::basic_string<char, std::__ndk1::char_traits<char>, std::__ndk1::allocator<char> > >, float>::Handle>, bool)::{lambda()#1}>, void ()>::~__func()
PUBLIC 61478 0 std::__ndk1::__function::__func<geode::Task<geode::Result<std::__ndk1::vector<unsigned char, std::__ndk1::allocator<unsigned char> >, std::__ndk1::basic_string<char, std::__ndk1::char_traits<char>, std::__ndk1::allocator<char> > >, float>::cancel(std::__ndk1::shared_ptr<geode::Task<geode::Result<std::__ndk1::vector<unsigned char, std::__ndk1::allocator<unsigned char> >, std::__ndk1::basic_string<char, std::__ndk1::char_traits<char>, std::__ndk1::allocator<char> > >, float>::Handle>, bool)::{lambda()#1}, std::__ndk1::allocator<geode::Task<geode::Result<std::__ndk1::vector<unsigned char, std::__ndk1::allocator<unsigned char> >, std::__ndk1::basic_string<char, std::__ndk1::char_traits<char>, std::__ndk1::allocator<char> > >, float>::cancel(std::__ndk1::shared_ptr<geode::Task<geode::Result<std::__ndk1::vector<unsigned char, std::__ndk1::allocator<unsigned char> >, std::__ndk1::basic_string<char, std::__ndk1::char_traits<char>, std::__ndk1::allocator<char> > >, float>::Handle>, bool)::{lambda()#1}>, void ()>::~__func()
PUBLIC 614e4 0 std::__ndk1::__function::__func<geode::Task<geode::Result<std::__ndk1::vector<unsigned char, std::__ndk1::allocator<unsigned char> >, std::__ndk1::basic_string<char, std::__ndk1::char_traits<char>, std::__ndk1::allocator<char> > >, float>::cancel(std::__ndk1::shared_ptr<geode::Task<geode::Result<std::__ndk1::vector<unsigned char, std::__ndk1::allocator<unsigned char> >, std::__ndk1::basic_string<char, std::__ndk1::char_traits<char>, std::__ndk1::allocator<char> > >, float>::Handle>, bool)::{lambda()#1}, std::__ndk1::allocator<geode::Task<geode::Result<std::__ndk1::vector<unsigned char, std::__ndk1::allocator<unsigned char> >, std::__ndk1::basic_string<char, std::__ndk1::char_traits<char>, std::__ndk1::allocator<char> > >, float>::cancel(std::__ndk1::shared_ptr<geode::Task<geode::Result<std::__ndk1::vector<unsigned char, std::__ndk1::allocator<unsigned char> >, std::__ndk1::basic_string<char, std::__ndk1::char_traits<char>, std::__ndk1::allocator<char> > >, float>::Handle>, bool)::{lambda()#1}>, void ()>::__clone() const
PUBLIC 61534 0 std::__ndk1::__function::__func<geode::Task<geode::Result<std::__ndk1::vector<unsigned char, std::__ndk1::allocator<unsigned char> >, std::__ndk1::basic_string<char, std::__ndk1::char_traits<char>, std::__ndk1::allocator<char> > >, float>::cancel(std::__ndk1::shared_ptr<geode::Task<geode::Result<std::__ndk1::vector<unsigned char, std::__ndk1::allocator<unsigned char> >, std::__ndk1::basic_string<char, std::__ndk1::char_traits<char>, std::__ndk1::allocator<char> > >, float>::Handle>, bool)::{lambda()#1}, std::__ndk1::allocator<geode::Task<geode::Result<std::__ndk1::vector<unsigned char, std::__ndk1::allocator<unsigned char> >, std::__ndk1::basic_string<char, std::__ndk1::char_traits<char>, std::__ndk1::allocator<char> > >, float>::cancel(std::__ndk1::shared_ptr<geode::Task<geode::Result<std::__ndk1::vector<unsigned char, std::__ndk1::allocator<unsigned char> >, std::__ndk1::basic_string<char, std::__ndk1::char_traits<char>, std::__ndk1::allocator<char> > >, float>::Handle>, bool)::{lambda()#1}>, void ()>::__clone(std::__ndk1::__function::__base<void ()>*) const
PUBLIC 61568 0 std::__ndk1::__function::__func<geode::Task<geode::Result<std::__ndk1::vector<unsigned char, std::__ndk1::allocator<unsigned char> >, std::__ndk1::basic_string<char, std::__ndk1::char_traits<char>, std::__ndk1::allocator<char> > >, float>::cancel(std::__ndk1::shared_ptr<geode::Task<geode::Result<std::__ndk1::vector<unsigned char, std::__ndk1::allocator<unsigned char> >, std::__ndk1::basic_string<char, std::__ndk1::char_traits<char>, std::__ndk1::allocator<char> > >, float>::Handle>, bool)::{lambda()#1}, std::__ndk1::allocator<geode::Task<geode::Result<std::__ndk1::vector<unsigned char, std::__ndk1::allocator<unsigned char> >, std::__ndk1::basic_string<char, std::__ndk1::char_traits<char>, std::__ndk1::allocator<char> > >, float>::cancel(std::__ndk1::shared_ptr<geode::Task<geode::Result<std::__ndk1::vector<unsigned char, std::__ndk1::allocator<unsigned char> >, std::__ndk1::basic_string<char, std::__ndk1::char_traits<char>, std::__ndk1::allocator<char> > >, float>::Handle>, bool)::{lambda()#1}>, void ()>::destroy()
PUBLIC 615b8 0 std::__ndk1::__function::__func<geode::Task<geode::Result<std::__ndk1::vector<unsigned char, std::__ndk1::allocator<unsigned char> >, std::__ndk1::basic_string<char, std::__ndk1::char_traits<char>, std::__ndk1::allocator<char> > >, float>::cancel(std::__ndk1::shared_ptr<geode::Task<geode::Result<std::__ndk1::vector<unsigned char, std::__ndk1::allocator<unsigned char> >, std::__ndk1::basic_string<char, std::__ndk1::char_traits<char>, std::__ndk1::allocator<char> > >, float>::Handle>, bool)::{lambda()#1}, std::__ndk1::allocator<geode::Task<geode::Result<std::__ndk1::vector<unsigned char, std::__ndk1::allocator<unsigned char> >, std::__ndk1::basic_string<char, std::__ndk1::char_traits<char>, std::__ndk1::allocator<char> > >, float>::cancel(std::__ndk1::shared_ptr<geode::Task<geode::Result<std::__ndk1::vector<unsigned char, std::__ndk1::allocator<unsigned char> >, std::__ndk1::basic_string<char, std::__ndk1::char_traits<char>, std::__ndk1::allocator<char> > >, float>::Handle>, bool)::{lambda()#1}>, void ()>::destroy_deallocate()
PUBLIC 61618 0 std::__ndk1::__function::__func<geode::Task<geode::Result<std::__ndk1::vector<unsigned char, std::__ndk1::allocator<unsigned char> >, std::__ndk1::basic_string<char, std::__ndk1::char_traits<char>, std::__ndk1::allocator<char> > >, float>::cancel(std::__ndk1::shared_ptr<geode::Task<geode::Result<std::__ndk1::vector<unsigned char, std::__ndk1::allocator<unsigned char> >, std::__ndk1::basic_string<char, std::__ndk1::char_traits<char>, std::__ndk1::allocator<char> > >, float>::Handle>, bool)::{lambda()#1}, std::__ndk1::allocator<geode::Task<geode::Result<std::__ndk1::vector<unsigned char, std::__ndk1::allocator<unsigned char> >, std::__ndk1::basic_string<char, std::__ndk1::char_traits<char>, std::__ndk1::allocator<char> > >, float>::cancel(std::__ndk1::shared_ptr<geode::Task<geode::Result<std::__ndk1::vector<unsigned char, std::__ndk1::allocator<unsigned char> >, std::__ndk1::basic_string<char, std::__ndk1::char_traits<char>, std::__ndk1::allocator<char> > >, float>::Handle>, bool)::{lambda()#1}>, void ()>::operator()()
PUBLIC 61620 0 std::__ndk1::__function::__func<geode::Task<geode::Result<std::__ndk1::vector<unsigned char, std::__ndk1::allocator<unsigned char> >, std::__ndk1::basic_string<char, std::__ndk1::char_traits<char>, std::__ndk1::allocator<char> > >, float>::cancel(std::__ndk1::shared_ptr<geode::Task<geode::Result<std::__ndk1::vector<unsigned char, std::__ndk1::allocator<unsigned char> >, std::__ndk1::basic_string<char, std::__ndk1::char_traits<char>, std::__ndk1::allocator<char> > >, float>::Handle>, bool)::{lambda()#1}, std::__ndk1::allocator<geode::Task<geode::Result<std::__ndk1::vector<unsigned char, std::__ndk1::allocator<unsigned char> >, std::__ndk1::basic_string<char, std::__ndk1::char_traits<char>, std::__ndk1::allocator<char> > >, float>::cancel(std::__ndk1::shared_ptr<geode::Task<geode::Result<std::__ndk1::vector<unsigned char, std::__ndk1::allocator<unsigned char> >, std::__ndk1::basic_string<char, std::__ndk1::char_traits<char>, std::__ndk1::allocator<char> > >, float>::Handle>, bool)::{lambda()#1}>, void ()>::target(std::type_info const&) const
PUBLIC 6163c 0 std::__ndk1::__function::__func<geode::Task<geode::Result<std::__ndk1::vector<unsigned char, std::__ndk1::allocator<unsigned char> >, std::__ndk1::basic_string<char, std::__ndk1::char_traits<char>, std::__ndk1::allocator<char> > >, float>::cancel(std::__ndk1::shared_ptr<geode::Task<geode::Result<std::__ndk1::vector<unsigned char, std::__ndk1::allocator<unsigned char> >, std::__ndk1::basic_string<char, std::__ndk1::char_traits<char>, std::__ndk1::allocator<char> > >, float>::Handle>, bool)::{lambda()#1}, std::__ndk1::allocator<geode::Task<geode::Result<std::__ndk1::vector<unsigned char, std::__ndk1::allocator<unsigned char> >, std::__ndk1::basic_string<char, std::__ndk1::char_traits<char>, std::__ndk1::allocator<char> > >, float>::cancel(std::__ndk1::shared_ptr<geode::Task<geode::Result<std::__ndk1::vector<unsigned char, std::__ndk1::allocator<unsigned char> >, std::__ndk1::basic_string<char, std::__ndk1::char_traits<char>, std::__ndk1::allocator<char> > >, float>::Handle>, bool)::{lambda()#1}>, void ()>::target_type() const
PUBLIC 61648 0 geode::Task<geode::Result<std::__ndk1::vector<unsigned char, std::__ndk1::allocator<unsigned char> >, std::__ndk1::basic_string<char, std::__ndk1::char_traits<char>, std::__ndk1::allocator<char> > >, float>::cancel(std::__ndk1::shared_ptr<geode::Task<geode::Result<std::__ndk1::vector<unsigned char, std::__ndk1::allocator<unsigned char> >, std::__ndk1::basic_string<char, std::__ndk1::char_traits<char>, std::__ndk1::allocator<char> > >, float>::Handle>, bool)::{lambda()#1}::operator()()
PUBLIC 6180c 0 geode::Task<geode::Result<std::__ndk1::vector<unsigned char, std::__ndk1::allocator<unsigned char> >, std::__ndk1::basic_string<char, std::__ndk1::char_traits<char>, std::__ndk1::allocator<char> > >, float>::Event::~Event()
PUBLIC 6186c 0 geode::Task<geode::Result<std::__ndk1::vector<unsigned char, std::__ndk1::allocator<unsigned char> >, std::__ndk1::basic_string<char, std::__ndk1::char_traits<char>, std::__ndk1::allocator<char> > >, float>::Event::~Event()
PUBLIC 618dc 0 geode::Task<geode::Result<std::__ndk1::vector<unsigned char, std::__ndk1::allocator<unsigned char> >, std::__ndk1::basic_string<char, std::__ndk1::char_traits<char>, std::__ndk1::allocator<char> > >, float>::finish(std::__ndk1::shared_ptr<geode::Task<geode::Result<std::__ndk1::vector<unsigned char, std::__ndk1::allocator<unsigned char> >, std::__ndk1::basic_string<char, std::__ndk1::char_traits<char>, std::__ndk1::allocator<char> > >, float>::Handle>, geode::Result<std::__ndk1::vector<unsigned char, std::__ndk1::allocator<unsigned char> >, std::__ndk1::basic_string<char, std::__ndk1::char_traits<char>, std::__ndk1::allocator<char> > >&&)::{lambda()#1}::~{lambda()#1}()
PUBLIC 6192c 0 std::__ndk1::__variant_detail::__visitation::__base::__dispatcher<(unsigned long)0>::__dispatch[abi:ne180000]<std::__ndk1::__variant_detail::__dtor<std::__ndk1::__variant_detail::__traits<std::__ndk1::vector<unsigned char, std::__ndk1::allocator<unsigned char> >, std::__ndk1::basic_string<char, std::__ndk1::char_traits<char>, std::__ndk1::vector<char> > >, (std::__ndk1::__variant_detail::_Trait)1>::__destroy[abi:ne180000]()::{lambda(auto:1&)#1}, std::__ndk1::__variant_detail::__base<(std::__ndk1::__variant_detail::__traits<std::__ndk1::vector<unsigned char, std::__ndk1::allocator<unsigned char> >, std::__ndk1::basic_string<char, std::__ndk1::char_traits<char>, std::__ndk1::vector<char> > >)1, std::__ndk1::allocator<unsigned char>, std::__ndk1::vector<char> >&>(std::__ndk1::__variant_detail::__dtor<std::__ndk1::__variant_detail::__traits<std::__ndk1::vector<unsigned char, std::__ndk1::allocator<unsigned char> >, std::__ndk1::basic_string<char, std::__ndk1::char_traits<char>, std::__ndk1::vector<char> > >, (std::__ndk1::__variant_detail::_Trait)1>, std::__ndk1::__variant_detail::__base<(std::__ndk1::__variant_detail::__traits<std::__ndk1::vector<unsigned char, std::__ndk1::allocator<unsigned char> >, std::__ndk1::basic_string<char, std::__ndk1::char_traits<char>, std::__ndk1::vector<char> > >)1, std::__ndk1::allocator<unsigned char>, std::__ndk1::vector<char> >&)
PUBLIC 61940 0 std::__ndk1::__variant_detail::__visitation::__base::__dispatcher<(unsigned long)1>::__dispatch[abi:ne180000]<std::__ndk1::__variant_detail::__dtor<std::__ndk1::__variant_detail::__traits<std::__ndk1::vector<unsigned char, std::__ndk1::allocator<unsigned char> >, std::__ndk1::basic_string<char, std::__ndk1::char_traits<char>, std::__ndk1::vector<char> > >, (std::__ndk1::__variant_detail::_Trait)1>::__destroy[abi:ne180000]()::{lambda(auto:1&)#1}, std::__ndk1::__variant_detail::__base<(std::__ndk1::__variant_detail::__traits<std::__ndk1::vector<unsigned char, std::__ndk1::allocator<unsigned char> >, std::__ndk1::basic_string<char, std::__ndk1::char_traits<char>, std::__ndk1::vector<char> > >)1, std::__ndk1::allocator<unsigned char>, std::__ndk1::vector<char> >&>(std::__ndk1::__variant_detail::__dtor<std::__ndk1::__variant_detail::__traits<std::__ndk1::vector<unsigned char, std::__ndk1::allocator<unsigned char> >, std::__ndk1::basic_string<char, std::__ndk1::char_traits<char>, std::__ndk1::vector<char> > >, (std::__ndk1::__variant_detail::_Trait)1>, std::__ndk1::__variant_detail::__base<(std::__ndk1::__variant_detail::__traits<std::__ndk1::vector<unsigned char, std::__ndk1::allocator<unsigned char> >, std::__ndk1::basic_string<char, std::__ndk1::char_traits<char>, std::__ndk1::vector<char> > >)1, std::__ndk1::allocator<unsigned char>, std::__ndk1::vector<char> >&)
PUBLIC 61954 0 _ZNSt6__ndk116__variant_detail12__visitation6__base12__dispatcherIJLm0ELm0EEE10__dispatchB8ne180000IOZNS0_6__ctorINS0_8__traitsIJNS_6vectorIhNS_9allocatorIhEEEENS_12basic_stringIcNS_11char_traitsIcEENS9_IcEEEEEEEE19__generic_constructB8ne180000INS0_18__move_constructorISH_LNS0_6_TraitE1EEEEEvRSI_OT_EUlRSO_OT0_E_JRNS0_6__baseILSL_1EJSB_SG_EEEOSW_EEEDcSO_DpT0_
PUBLIC 61978 0 _ZNSt6__ndk116__variant_detail12__visitation6__base12__dispatcherIJLm1ELm1EEE10__dispatchB8ne180000IOZNS0_6__ctorINS0_8__traitsIJNS_6vectorIhNS_9allocatorIhEEEENS_12basic_stringIcNS_11char_traitsIcEENS9_IcEEEEEEEE19__generic_constructB8ne180000INS0_18__move_constructorISH_LNS0_6_TraitE1EEEEEvRSI_OT_EUlRSO_OT0_E_JRNS0_6__baseILSL_1EJSB_SG_EEEOSW_EEEDcSO_DpT0_
PUBLIC 61994 0 std::__ndk1::__function::__func<geode::Task<geode::Result<std::__ndk1::vector<unsigned char, std::__ndk1::allocator<unsigned char> >, std::__ndk1::basic_string<char, std::__ndk1::char_traits<char>, std::__ndk1::allocator<char> > >, float>::finish(std::__ndk1::shared_ptr<geode::Task<geode::Result<std::__ndk1::vector<unsigned char, std::__ndk1::allocator<unsigned char> >, std::__ndk1::basic_string<char, std::__ndk1::char_traits<char>, std::__ndk1::allocator<char> > >, float>::Handle>, geode::Result<std::__ndk1::vector<unsigned char, std::__ndk1::allocator<unsigned char> >, std::__ndk1::basic_string<char, std::__ndk1::char_traits<char>, std::__ndk1::allocator<char> > >&&)::{lambda()#1}, std::__ndk1::allocator<geode::Task<geode::Result<std::__ndk1::vector<unsigned char, std::__ndk1::allocator<unsigned char> >, std::__ndk1::basic_string<char, std::__ndk1::char_traits<char>, std::__ndk1::allocator<char> > >, float>::finish(std::__ndk1::shared_ptr<geode::Task<geode::Result<std::__ndk1::vector<unsigned char, std::__ndk1::allocator<unsigned char> >, std::__ndk1::basic_string<char, std::__ndk1::char_traits<char>, std::__ndk1::allocator<char> > >, float>::Handle>, geode::Result<std::__ndk1::vector<unsigned char, std::__ndk1::allocator<unsigned char> >, std::__ndk1::basic_string<char, std::__ndk1::char_traits<char>, std::__ndk1::allocator<char> > >&&)::{lambda()#1}>, void ()>::~__func()
PUBLIC 619f0 0 std::__ndk1::__function::__func<geode::Task<geode::Result<std::__ndk1::vector<unsigned char, std::__ndk1::allocator<unsigned char> >, std::__ndk1::basic_string<char, std::__ndk1::char_traits<char>, std::__ndk1::allocator<char> > >, float>::finish(std::__ndk1::shared_ptr<geode::Task<geode::Result<std::__ndk1::vector<unsigned char, std::__ndk1::allocator<unsigned char> >, std::__ndk1::basic_string<char, std::__ndk1::char_traits<char>, std::__ndk1::allocator<char> > >, float>::Handle>, geode::Result<std::__ndk1::vector<unsigned char, std::__ndk1::allocator<unsigned char> >, std::__ndk1::basic_string<char, std::__ndk1::char_traits<char>, std::__ndk1::allocator<char> > >&&)::{lambda()#1}, std::__ndk1::allocator<geode::Task<geode::Result<std::__ndk1::vector<unsigned char, std::__ndk1::allocator<unsigned char> >, std::__ndk1::basic_string<char, std::__ndk1::char_traits<char>, std::__ndk1::allocator<char> > >, float>::finish(std::__ndk1::shared_ptr<geode::Task<geode::Result<std::__ndk1::vector<unsigned char, std::__ndk1::allocator<unsigned char> >, std::__ndk1::basic_string<char, std::__ndk1::char_traits<char>, std::__ndk1::allocator<char> > >, float>::Handle>, geode::Result<std::__ndk1::vector<unsigned char, std::__ndk1::allocator<unsigned char> >, std::__ndk1::basic_string<char, std::__ndk1::char_traits<char>, std::__ndk1::allocator<char> > >&&)::{lambda()#1}>, void ()>::~__func()
PUBLIC 61a5c 0 std::__ndk1::__function::__func<geode::Task<geode::Result<std::__ndk1::vector<unsigned char, std::__ndk1::allocator<unsigned char> >, std::__ndk1::basic_string<char, std::__ndk1::char_traits<char>, std::__ndk1::allocator<char> > >, float>::finish(std::__ndk1::shared_ptr<geode::Task<geode::Result<std::__ndk1::vector<unsigned char, std::__ndk1::allocator<unsigned char> >, std::__ndk1::basic_string<char, std::__ndk1::char_traits<char>, std::__ndk1::allocator<char> > >, float>::Handle>, geode::Result<std::__ndk1::vector<unsigned char, std::__ndk1::allocator<unsigned char> >, std::__ndk1::basic_string<char, std::__ndk1::char_traits<char>, std::__ndk1::allocator<char> > >&&)::{lambda()#1}, std::__ndk1::allocator<geode::Task<geode::Result<std::__ndk1::vector<unsigned char, std::__ndk1::allocator<unsigned char> >, std::__ndk1::basic_string<char, std::__ndk1::char_traits<char>, std::__ndk1::allocator<char> > >, float>::finish(std::__ndk1::shared_ptr<geode::Task<geode::Result<std::__ndk1::vector<unsigned char, std::__ndk1::allocator<unsigned char> >, std::__ndk1::basic_string<char, std::__ndk1::char_traits<char>, std::__ndk1::allocator<char> > >, float>::Handle>, geode::Result<std::__ndk1::vector<unsigned char, std::__ndk1::allocator<unsigned char> >, std::__ndk1::basic_string<char, std::__ndk1::char_traits<char>, std::__ndk1::allocator<char> > >&&)::{lambda()#1}>, void ()>::__clone() const
PUBLIC 61ab4 0 std::__ndk1::__function::__func<geode::Task<geode::Result<std::__ndk1::vector<unsigned char, std::__ndk1::allocator<unsigned char> >, std::__ndk1::basic_string<char, std::__ndk1::char_traits<char>, std::__ndk1::allocator<char> > >, float>::finish(std::__ndk1::shared_ptr<geode::Task<geode::Result<std::__ndk1::vector<unsigned char, std::__ndk1::allocator<unsigned char> >, std::__ndk1::basic_string<char, std::__ndk1::char_traits<char>, std::__ndk1::allocator<char> > >, float>::Handle>, geode::Result<std::__ndk1::vector<unsigned char, std::__ndk1::allocator<unsigned char> >, std::__ndk1::basic_string<char, std::__ndk1::char_traits<char>, std::__ndk1::allocator<char> > >&&)::{lambda()#1}, std::__ndk1::allocator<geode::Task<geode::Result<std::__ndk1::vector<unsigned char, std::__ndk1::allocator<unsigned char> >, std::__ndk1::basic_string<char, std::__ndk1::char_traits<char>, std::__ndk1::allocator<char> > >, float>::finish(std::__ndk1::shared_ptr<geode::Task<geode::Result<std::__ndk1::vector<unsigned char, std::__ndk1::allocator<unsigned char> >, std::__ndk1::basic_string<char, std::__ndk1::char_traits<char>, std::__ndk1::allocator<char> > >, float>::Handle>, geode::Result<std::__ndk1::vector<unsigned char, std::__ndk1::allocator<unsigned char> >, std::__ndk1::basic_string<char, std::__ndk1::char_traits<char>, std::__ndk1::allocator<char> > >&&)::{lambda()#1}>, void ()>::__clone(std::__ndk1::__function::__base<void ()>*) const
PUBLIC 61b00 0 std::__ndk1::__function::__func<geode::Task<geode::Result<std::__ndk1::vector<unsigned char, std::__ndk1::allocator<unsigned char> >, std::__ndk1::basic_string<char, std::__ndk1::char_traits<char>, std::__ndk1::allocator<char> > >, float>::finish(std::__ndk1::shared_ptr<geode::Task<geode::Result<std::__ndk1::vector<unsigned char, std::__ndk1::allocator<unsigned char> >, std::__ndk1::basic_string<char, std::__ndk1::char_traits<char>, std::__ndk1::allocator<char> > >, float>::Handle>, geode::Result<std::__ndk1::vector<unsigned char, std::__ndk1::allocator<unsigned char> >, std::__ndk1::basic_string<char, std::__ndk1::char_traits<char>, std::__ndk1::allocator<char> > >&&)::{lambda()#1}, std::__ndk1::allocator<geode::Task<geode::Result<std::__ndk1::vector<unsigned char, std::__ndk1::allocator<unsigned char> >, std::__ndk1::basic_string<char, std::__ndk1::char_traits<char>, std::__ndk1::allocator<char> > >, float>::finish(std::__ndk1::shared_ptr<geode::Task<geode::Result<std::__ndk1::vector<unsigned char, std::__ndk1::allocator<unsigned char> >, std::__ndk1::basic_string<char, std::__ndk1::char_traits<char>, std::__ndk1::allocator<char> > >, float>::Handle>, geode::Result<std::__ndk1::vector<unsigned char, std::__ndk1::allocator<unsigned char> >, std::__ndk1::basic_string<char, std::__ndk1::char_traits<char>, std::__ndk1::allocator<char> > >&&)::{lambda()#1}>, void ()>::destroy()
PUBLIC 61b50 0 std::__ndk1::__function::__func<geode::Task<geode::Result<std::__ndk1::vector<unsigned char, std::__ndk1::allocator<unsigned char> >, std::__ndk1::basic_string<char, std::__ndk1::char_traits<char>, std::__ndk1::allocator<char> > >, float>::finish(std::__ndk1::shared_ptr<geode::Task<geode::Result<std::__ndk1::vector<unsigned char, std::__ndk1::allocator<unsigned char> >, std::__ndk1::basic_string<char, std::__ndk1::char_traits<char>, std::__ndk1::allocator<char> > >, float>::Handle>, geode::Result<std::__ndk1::vector<unsigned char, std::__ndk1::allocator<unsigned char> >, std::__ndk1::basic_string<char, std::__ndk1::char_traits<char>, std::__ndk1::allocator<char> > >&&)::{lambda()#1}, std::__ndk1::allocator<geode::Task<geode::Result<std::__ndk1::vector<unsigned char, std::__ndk1::allocator<unsigned char> >, std::__ndk1::basic_string<char, std::__ndk1::char_traits<char>, std::__ndk1::allocator<char> > >, float>::finish(std::__ndk1::shared_ptr<geode::Task<geode::Result<std::__ndk1::vector<unsigned char, std::__ndk1::allocator<unsigned char> >, std::__ndk1::basic_string<char, std::__ndk1::char_traits<char>, std::__ndk1::allocator<char> > >, float>::Handle>, geode::Result<std::__ndk1::vector<unsigned char, std::__ndk1::allocator<unsigned char> >, std::__ndk1::basic_string<char, std::__ndk1::char_traits<char>, std::__ndk1::allocator<char> > >&&)::{lambda()#1}>, void ()>::destroy_deallocate()
PUBLIC 61bb0 0 std::__ndk1::__function::__func<geode::Task<geode::Result<std::__ndk1::vector<unsigned char, std::__ndk1::allocator<unsigned char> >, std::__ndk1::basic_string<char, std::__ndk1::char_traits<char>, std::__ndk1::allocator<char> > >, float>::finish(std::__ndk1::shared_ptr<geode::Task<geode::Result<std::__ndk1::vector<unsigned char, std::__ndk1::allocator<unsigned char> >, std::__ndk1::basic_string<char, std::__ndk1::char_traits<char>, std::__ndk1::allocator<char> > >, float>::Handle>, geode::Result<std::__ndk1::vector<unsigned char, std::__ndk1::allocator<unsigned char> >, std::__ndk1::basic_string<char, std::__ndk1::char_traits<char>, std::__ndk1::allocator<char> > >&&)::{lambda()#1}, std::__ndk1::allocator<geode::Task<geode::Result<std::__ndk1::vector<unsigned char, std::__ndk1::allocator<unsigned char> >, std::__ndk1::basic_string<char, std::__ndk1::char_traits<char>, std::__ndk1::allocator<char> > >, float>::finish(std::__ndk1::shared_ptr<geode::Task<geode::Result<std::__ndk1::vector<unsigned char, std::__ndk1::allocator<unsigned char> >, std::__ndk1::basic_string<char, std::__ndk1::char_traits<char>, std::__ndk1::allocator<char> > >, float>::Handle>, geode::Result<std::__ndk1::vector<unsigned char, std::__ndk1::allocator<unsigned char> >, std::__ndk1::basic_string<char, std::__ndk1::char_traits<char>, std::__ndk1::allocator<char> > >&&)::{lambda()#1}>, void ()>::operator()()
PUBLIC 61bb8 0 std::__ndk1::__function::__func<geode::Task<geode::Result<std::__ndk1::vector<unsigned char, std::__ndk1::allocator<unsigned char> >, std::__ndk1::basic_string<char, std::__ndk1::char_traits<char>, std::__ndk1::allocator<char> > >, float>::finish(std::__ndk1::shared_ptr<geode::Task<geode::Result<std::__ndk1::vector<unsigned char, std::__ndk1::allocator<unsigned char> >, std::__ndk1::basic_string<char, std::__ndk1::char_traits<char>, std::__ndk1::allocator<char> > >, float>::Handle>, geode::Result<std::__ndk1::vector<unsigned char, std::__ndk1::allocator<unsigned char> >, std::__ndk1::basic_string<char, std::__ndk1::char_traits<char>, std::__ndk1::allocator<char> > >&&)::{lambda()#1}, std::__ndk1::allocator<geode::Task<geode::Result<std::__ndk1::vector<unsigned char, std::__ndk1::allocator<unsigned char> >, std::__ndk1::basic_string<char, std::__ndk1::char_traits<char>, std::__ndk1::allocator<char> > >, float>::finish(std::__ndk1::shared_ptr<geode::Task<geode::Result<std::__ndk1::vector<unsigned char, std::__ndk1::allocator<unsigned char> >, std::__ndk1::basic_string<char, std::__ndk1::char_traits<char>, std::__ndk1::allocator<char> > >, float>::Handle>, geode::Result<std::__ndk1::vector<unsigned char, std::__ndk1::allocator<unsigned char> >, std::__ndk1::basic_string<char, std::__ndk1::char_traits<char>, std::__ndk1::allocator<char> > >&&)::{lambda()#1}>, void ()>::target(std::type_info const&) const
PUBLIC 61bd4 0 std::__ndk1::__function::__func<geode::Task<geode::Result<std::__ndk1::vector<unsigned char, std::__ndk1::allocator<unsigned char> >, std::__ndk1::basic_string<char, std::__ndk1::char_traits<char>, std::__ndk1::allocator<char> > >, float>::finish(std::__ndk1::shared_ptr<geode::Task<geode::Result<std::__ndk1::vector<unsigned char, std::__ndk1::allocator<unsigned char> >, std::__ndk1::basic_string<char, std::__ndk1::char_traits<char>, std::__ndk1::allocator<char> > >, float>::Handle>, geode::Result<std::__ndk1::vector<unsigned char, std::__ndk1::allocator<unsigned char> >, std::__ndk1::basic_string<char, std::__ndk1::char_traits<char>, std::__ndk1::allocator<char> > >&&)::{lambda()#1}, std::__ndk1::allocator<geode::Task<geode::Result<std::__ndk1::vector<unsigned char, std::__ndk1::allocator<unsigned char> >, std::__ndk1::basic_string<char, std::__ndk1::char_traits<char>, std::__ndk1::allocator<char> > >, float>::finish(std::__ndk1::shared_ptr<geode::Task<geode::Result<std::__ndk1::vector<unsigned char, std::__ndk1::allocator<unsigned char> >, std::__ndk1::basic_string<char, std::__ndk1::char_traits<char>, std::__ndk1::allocator<char> > >, float>::Handle>, geode::Result<std::__ndk1::vector<unsigned char, std::__ndk1::allocator<unsigned char> >, std::__ndk1::basic_string<char, std::__ndk1::char_traits<char>, std::__ndk1::allocator<char> > >&&)::{lambda()#1}>, void ()>::target_type() const
PUBLIC 61be0 0 geode::Task<geode::Result<std::__ndk1::vector<unsigned char, std::__ndk1::allocator<unsigned char> >, std::__ndk1::basic_string<char, std::__ndk1::char_traits<char>, std::__ndk1::allocator<char> > >, float>::finish(std::__ndk1::shared_ptr<geode::Task<geode::Result<std::__ndk1::vector<unsigned char, std::__ndk1::allocator<unsigned char> >, std::__ndk1::basic_string<char, std::__ndk1::char_traits<char>, std::__ndk1::allocator<char> > >, float>::Handle>, geode::Result<std::__ndk1::vector<unsigned char, std::__ndk1::allocator<unsigned char> >, std::__ndk1::basic_string<char, std::__ndk1::char_traits<char>, std::__ndk1::allocator<char> > >&&)::{lambda()#1}::operator()()
PUBLIC 61db4 0 std::__ndk1::__function::__func<geode::Task<geode::utils::web::WebResponse, geode::utils::web::WebProgress>::map<jukebox::download::startHostedDownload(std::__ndk1::basic_string<char, std::__ndk1::char_traits<char>, std::__ndk1::allocator<char> > const&)::$_0, jukebox::download::startHostedDownload(std::__ndk1::basic_string<char, std::__ndk1::char_traits<char>, std::__ndk1::allocator<char> > const&)::$_1, void (*)()>(jukebox::download::startHostedDownload(std::__ndk1::basic_string<char, std::__ndk1::char_traits<char>, std::__ndk1::allocator<char> > const&)::$_0&&, jukebox::download::startHostedDownload(std::__ndk1::basic_string<char, std::__ndk1::char_traits<char>, std::__ndk1::allocator<char> > const&)::$_1&&, void (*&&)(), std::__ndk1::basic_string_view<char, std::__ndk1::char_traits<char> >) const::{lambda(geode::Task<geode::utils::web::WebResponse, geode::utils::web::WebProgress>::Event*)#1}, std::__ndk1::allocator<geode::Task<geode::utils::web::WebResponse, geode::utils::web::WebProgress>::map<jukebox::download::startHostedDownload(std::__ndk1::basic_string<char, std::__ndk1::char_traits<char>, std::__ndk1::allocator<char> > const&)::$_0, jukebox::download::startHostedDownload(std::__ndk1::basic_string<char, std::__ndk1::char_traits<char>, std::__ndk1::allocator<char> > const&)::$_1, void (*)()>(jukebox::download::startHostedDownload(std::__ndk1::basic_string<char, std::__ndk1::char_traits<char>, std::__ndk1::allocator<char> > const&)::$_0&&, jukebox::download::startHostedDownload(std::__ndk1::basic_string<char, std::__ndk1::char_traits<char>, std::__ndk1::allocator<char> > const&)::$_1&&, void (*&&)(), std::__ndk1::basic_string_view<char, std::__ndk1::char_traits<char> >) const::{lambda(geode::Task<geode::utils::web::WebResponse, geode::utils::web::WebProgress>::Event*)#1}>, void (geode::Task<geode::utils::web::WebResponse, geode::utils::web::WebProgress>::Event*)>::~__func()
PUBLIC 61dd4 0 std::__ndk1::__function::__func<geode::Task<geode::utils::web::WebResponse, geode::utils::web::WebProgress>::map<jukebox::download::startHostedDownload(std::__ndk1::basic_string<char, std::__ndk1::char_traits<char>, std::__ndk1::allocator<char> > const&)::$_0, jukebox::download::startHostedDownload(std::__ndk1::basic_string<char, std::__ndk1::char_traits<char>, std::__ndk1::allocator<char> > const&)::$_1, void (*)()>(jukebox::download::startHostedDownload(std::__ndk1::basic_string<char, std::__ndk1::char_traits<char>, std::__ndk1::allocator<char> > const&)::$_0&&, jukebox::download::startHostedDownload(std::__ndk1::basic_string<char, std::__ndk1::char_traits<char>, std::__ndk1::allocator<char> > const&)::$_1&&, void (*&&)(), std::__ndk1::basic_string_view<char, std::__ndk1::char_traits<char> >) const::{lambda(geode::Task<geode::utils::web::WebResponse, geode::utils::web::WebProgress>::Event*)#1}, std::__ndk1::allocator<geode::Task<geode::utils::web::WebResponse, geode::utils::web::WebProgress>::map<jukebox::download::startHostedDownload(std::__ndk1::basic_string<char, std::__ndk1::char_traits<char>, std::__ndk1::allocator<char> > const&)::$_0, jukebox::download::startHostedDownload(std::__ndk1::basic_string<char, std::__ndk1::char_traits<char>, std::__ndk1::allocator<char> > const&)::$_1, void (*)()>(jukebox::download::startHostedDownload(std::__ndk1::basic_string<char, std::__ndk1::char_traits<char>, std::__ndk1::allocator<char> > const&)::$_0&&, jukebox::download::startHostedDownload(std::__ndk1::basic_string<char, std::__ndk1::char_traits<char>, std::__ndk1::allocator<char> > const&)::$_1&&, void (*&&)(), std::__ndk1::basic_string_view<char, std::__ndk1::char_traits<char> >) const::{lambda(geode::Task<geode::utils::web::WebResponse, geode::utils::web::WebProgress>::Event*)#1}>, void (geode::Task<geode::utils::web::WebResponse, geode::utils::web::WebProgress>::Event*)>::~__func()
PUBLIC 61e10 0 std::__ndk1::__function::__func<geode::Task<geode::utils::web::WebResponse, geode::utils::web::WebProgress>::map<jukebox::download::startHostedDownload(std::__ndk1::basic_string<char, std::__ndk1::char_traits<char>, std::__ndk1::allocator<char> > const&)::$_0, jukebox::download::startHostedDownload(std::__ndk1::basic_string<char, std::__ndk1::char_traits<char>, std::__ndk1::allocator<char> > const&)::$_1, void (*)()>(jukebox::download::startHostedDownload(std::__ndk1::basic_string<char, std::__ndk1::char_traits<char>, std::__ndk1::allocator<char> > const&)::$_0&&, jukebox::download::startHostedDownload(std::__ndk1::basic_string<char, std::__ndk1::char_traits<char>, std::__ndk1::allocator<char> > const&)::$_1&&, void (*&&)(), std::__ndk1::basic_string_view<char, std::__ndk1::char_traits<char> >) const::{lambda(geode::Task<geode::utils::web::WebResponse, geode::utils::web::WebProgress>::Event*)#1}, std::__ndk1::allocator<geode::Task<geode::utils::web::WebResponse, geode::utils::web::WebProgress>::map<jukebox::download::startHostedDownload(std::__ndk1::basic_string<char, std::__ndk1::char_traits<char>, std::__ndk1::allocator<char> > const&)::$_0, jukebox::download::startHostedDownload(std::__ndk1::basic_string<char, std::__ndk1::char_traits<char>, std::__ndk1::allocator<char> > const&)::$_1, void (*)()>(jukebox::download::startHostedDownload(std::__ndk1::basic_string<char, std::__ndk1::char_traits<char>, std::__ndk1::allocator<char> > const&)::$_0&&, jukebox::download::startHostedDownload(std::__ndk1::basic_string<char, std::__ndk1::char_traits<char>, std::__ndk1::allocator<char> > const&)::$_1&&, void (*&&)(), std::__ndk1::basic_string_view<char, std::__ndk1::char_traits<char> >) const::{lambda(geode::Task<geode::utils::web::WebResponse, geode::utils::web::WebProgress>::Event*)#1}>, void (geode::Task<geode::utils::web::WebResponse, geode::utils::web::WebProgress>::Event*)>::__clone() const
PUBLIC 61e68 0 std::__ndk1::__function::__func<geode::Task<geode::utils::web::WebResponse, geode::utils::web::WebProgress>::map<jukebox::download::startHostedDownload(std::__ndk1::basic_string<char, std::__ndk1::char_traits<char>, std::__ndk1::allocator<char> > const&)::$_0, jukebox::download::startHostedDownload(std::__ndk1::basic_string<char, std::__ndk1::char_traits<char>, std::__ndk1::allocator<char> > const&)::$_1, void (*)()>(jukebox::download::startHostedDownload(std::__ndk1::basic_string<char, std::__ndk1::char_traits<char>, std::__ndk1::allocator<char> > const&)::$_0&&, jukebox::download::startHostedDownload(std::__ndk1::basic_string<char, std::__ndk1::char_traits<char>, std::__ndk1::allocator<char> > const&)::$_1&&, void (*&&)(), std::__ndk1::basic_string_view<char, std::__ndk1::char_traits<char> >) const::{lambda(geode::Task<geode::utils::web::WebResponse, geode::utils::web::WebProgress>::Event*)#1}, std::__ndk1::allocator<geode::Task<geode::utils::web::WebResponse, geode::utils::web::WebProgress>::map<jukebox::download::startHostedDownload(std::__ndk1::basic_string<char, std::__ndk1::char_traits<char>, std::__ndk1::allocator<char> > const&)::$_0, jukebox::download::startHostedDownload(std::__ndk1::basic_string<char, std::__ndk1::char_traits<char>, std::__ndk1::allocator<char> > const&)::$_1, void (*)()>(jukebox::download::startHostedDownload(std::__ndk1::basic_string<char, std::__ndk1::char_traits<char>, std::__ndk1::allocator<char> > const&)::$_0&&, jukebox::download::startHostedDownload(std::__ndk1::basic_string<char, std::__ndk1::char_traits<char>, std::__ndk1::allocator<char> > const&)::$_1&&, void (*&&)(), std::__ndk1::basic_string_view<char, std::__ndk1::char_traits<char> >) const::{lambda(geode::Task<geode::utils::web::WebResponse, geode::utils::web::WebProgress>::Event*)#1}>, void (geode::Task<geode::utils::web::WebResponse, geode::utils::web::WebProgress>::Event*)>::__clone(std::__ndk1::__function::__base<void (geode::Task<geode::utils::web::WebResponse, geode::utils::web::WebProgress>::Event*)>*) const
PUBLIC 61eb4 0 std::__ndk1::__function::__func<geode::Task<geode::utils::web::WebResponse, geode::utils::web::WebProgress>::map<jukebox::download::startHostedDownload(std::__ndk1::basic_string<char, std::__ndk1::char_traits<char>, std::__ndk1::allocator<char> > const&)::$_0, jukebox::download::startHostedDownload(std::__ndk1::basic_string<char, std::__ndk1::char_traits<char>, std::__ndk1::allocator<char> > const&)::$_1, void (*)()>(jukebox::download::startHostedDownload(std::__ndk1::basic_string<char, std::__ndk1::char_traits<char>, std::__ndk1::allocator<char> > const&)::$_0&&, jukebox::download::startHostedDownload(std::__ndk1::basic_string<char, std::__ndk1::char_traits<char>, std::__ndk1::allocator<char> > const&)::$_1&&, void (*&&)(), std::__ndk1::basic_string_view<char, std::__ndk1::char_traits<char> >) const::{lambda(geode::Task<geode::utils::web::WebResponse, geode::utils::web::WebProgress>::Event*)#1}, std::__ndk1::allocator<geode::Task<geode::utils::web::WebResponse, geode::utils::web::WebProgress>::map<jukebox::download::startHostedDownload(std::__ndk1::basic_string<char, std::__ndk1::char_traits<char>, std::__ndk1::allocator<char> > const&)::$_0, jukebox::download::startHostedDownload(std::__ndk1::basic_string<char, std::__ndk1::char_traits<char>, std::__ndk1::allocator<char> > const&)::$_1, void (*)()>(jukebox::download::startHostedDownload(std::__ndk1::basic_string<char, std::__ndk1::char_traits<char>, std::__ndk1::allocator<char> > const&)::$_0&&, jukebox::download::startHostedDownload(std::__ndk1::basic_string<char, std::__ndk1::char_traits<char>, std::__ndk1::allocator<char> > const&)::$_1&&, void (*&&)(), std::__ndk1::basic_string_view<char, std::__ndk1::char_traits<char> >) const::{lambda(geode::Task<geode::utils::web::WebResponse, geode::utils::web::WebProgress>::Event*)#1}>, void (geode::Task<geode::utils::web::WebResponse, geode::utils::web::WebProgress>::Event*)>::destroy()
PUBLIC 61ec4 0 std::__ndk1::__function::__func<geode::Task<geode::utils::web::WebResponse, geode::utils::web::WebProgress>::map<jukebox::download::startHostedDownload(std::__ndk1::basic_string<char, std::__ndk1::char_traits<char>, std::__ndk1::allocator<char> > const&)::$_0, jukebox::download::startHostedDownload(std::__ndk1::basic_string<char, std::__ndk1::char_traits<char>, std::__ndk1::allocator<char> > const&)::$_1, void (*)()>(jukebox::download::startHostedDownload(std::__ndk1::basic_string<char, std::__ndk1::char_traits<char>, std::__ndk1::allocator<char> > const&)::$_0&&, jukebox::download::startHostedDownload(std::__ndk1::basic_string<char, std::__ndk1::char_traits<char>, std::__ndk1::allocator<char> > const&)::$_1&&, void (*&&)(), std::__ndk1::basic_string_view<char, std::__ndk1::char_traits<char> >) const::{lambda(geode::Task<geode::utils::web::WebResponse, geode::utils::web::WebProgress>::Event*)#1}, std::__ndk1::allocator<geode::Task<geode::utils::web::WebResponse, geode::utils::web::WebProgress>::map<jukebox::download::startHostedDownload(std::__ndk1::basic_string<char, std::__ndk1::char_traits<char>, std::__ndk1::allocator<char> > const&)::$_0, jukebox::download::startHostedDownload(std::__ndk1::basic_string<char, std::__ndk1::char_traits<char>, std::__ndk1::allocator<char> > const&)::$_1, void (*)()>(jukebox::download::startHostedDownload(std::__ndk1::basic_string<char, std::__ndk1::char_traits<char>, std::__ndk1::allocator<char> > const&)::$_0&&, jukebox::download::startHostedDownload(std::__ndk1::basic_string<char, std::__ndk1::char_traits<char>, std::__ndk1::allocator<char> > const&)::$_1&&, void (*&&)(), std::__ndk1::basic_string_view<char, std::__ndk1::char_traits<char> >) const::{lambda(geode::Task<geode::utils::web::WebResponse, geode::utils::web::WebProgress>::Event*)#1}>, void (geode::Task<geode::utils::web::WebResponse, geode::utils::web::WebProgress>::Event*)>::destroy_deallocate()
PUBLIC 61ef4 0 std::__ndk1::__function::__func<geode::Task<geode::utils::web::WebResponse, geode::utils::web::WebProgress>::map<jukebox::download::startHostedDownload(std::__ndk1::basic_string<char, std::__ndk1::char_traits<char>, std::__ndk1::allocator<char> > const&)::$_0, jukebox::download::startHostedDownload(std::__ndk1::basic_string<char, std::__ndk1::char_traits<char>, std::__ndk1::allocator<char> > const&)::$_1, void (*)()>(jukebox::download::startHostedDownload(std::__ndk1::basic_string<char, std::__ndk1::char_traits<char>, std::__ndk1::allocator<char> > const&)::$_0&&, jukebox::download::startHostedDownload(std::__ndk1::basic_string<char, std::__ndk1::char_traits<char>, std::__ndk1::allocator<char> > const&)::$_1&&, void (*&&)(), std::__ndk1::basic_string_view<char, std::__ndk1::char_traits<char> >) const::{lambda(geode::Task<geode::utils::web::WebResponse, geode::utils::web::WebProgress>::Event*)#1}, std::__ndk1::allocator<geode::Task<geode::utils::web::WebResponse, geode::utils::web::WebProgress>::map<jukebox::download::startHostedDownload(std::__ndk1::basic_string<char, std::__ndk1::char_traits<char>, std::__ndk1::allocator<char> > const&)::$_0, jukebox::download::startHostedDownload(std::__ndk1::basic_string<char, std::__ndk1::char_traits<char>, std::__ndk1::allocator<char> > const&)::$_1, void (*)()>(jukebox::download::startHostedDownload(std::__ndk1::basic_string<char, std::__ndk1::char_traits<char>, std::__ndk1::allocator<char> > const&)::$_0&&, jukebox::download::startHostedDownload(std::__ndk1::basic_string<char, std::__ndk1::char_traits<char>, std::__ndk1::allocator<char> > const&)::$_1&&, void (*&&)(), std::__ndk1::basic_string_view<char, std::__ndk1::char_traits<char> >) const::{lambda(geode::Task<geode::utils::web::WebResponse, geode::utils::web::WebProgress>::Event*)#1}>, void (geode::Task<geode::utils::web::WebResponse, geode::utils::web::WebProgress>::Event*)>::operator()(geode::Task<geode::utils::web::WebResponse, geode::utils::web::WebProgress>::Event*&&)
PUBLIC 62254 0 std::__ndk1::__function::__func<geode::Task<geode::utils::web::WebResponse, geode::utils::web::WebProgress>::map<jukebox::download::startHostedDownload(std::__ndk1::basic_string<char, std::__ndk1::char_traits<char>, std::__ndk1::allocator<char> > const&)::$_0, jukebox::download::startHostedDownload(std::__ndk1::basic_string<char, std::__ndk1::char_traits<char>, std::__ndk1::allocator<char> > const&)::$_1, void (*)()>(jukebox::download::startHostedDownload(std::__ndk1::basic_string<char, std::__ndk1::char_traits<char>, std::__ndk1::allocator<char> > const&)::$_0&&, jukebox::download::startHostedDownload(std::__ndk1::basic_string<char, std::__ndk1::char_traits<char>, std::__ndk1::allocator<char> > const&)::$_1&&, void (*&&)(), std::__ndk1::basic_string_view<char, std::__ndk1::char_traits<char> >) const::{lambda(geode::Task<geode::utils::web::WebResponse, geode::utils::web::WebProgress>::Event*)#1}, std::__ndk1::allocator<geode::Task<geode::utils::web::WebResponse, geode::utils::web::WebProgress>::map<jukebox::download::startHostedDownload(std::__ndk1::basic_string<char, std::__ndk1::char_traits<char>, std::__ndk1::allocator<char> > const&)::$_0, jukebox::download::startHostedDownload(std::__ndk1::basic_string<char, std::__ndk1::char_traits<char>, std::__ndk1::allocator<char> > const&)::$_1, void (*)()>(jukebox::download::startHostedDownload(std::__ndk1::basic_string<char, std::__ndk1::char_traits<char>, std::__ndk1::allocator<char> > const&)::$_0&&, jukebox::download::startHostedDownload(std::__ndk1::basic_string<char, std::__ndk1::char_traits<char>, std::__ndk1::allocator<char> > const&)::$_1&&, void (*&&)(), std::__ndk1::basic_string_view<char, std::__ndk1::char_traits<char> >) const::{lambda(geode::Task<geode::utils::web::WebResponse, geode::utils::web::WebProgress>::Event*)#1}>, void (geode::Task<geode::utils::web::WebResponse, geode::utils::web::WebProgress>::Event*)>::target(std::type_info const&) const
PUBLIC 62270 0 std::__ndk1::__function::__func<geode::Task<geode::utils::web::WebResponse, geode::utils::web::WebProgress>::map<jukebox::download::startHostedDownload(std::__ndk1::basic_string<char, std::__ndk1::char_traits<char>, std::__ndk1::allocator<char> > const&)::$_0, jukebox::download::startHostedDownload(std::__ndk1::basic_string<char, std::__ndk1::char_traits<char>, std::__ndk1::allocator<char> > const&)::$_1, void (*)()>(jukebox::download::startHostedDownload(std::__ndk1::basic_string<char, std::__ndk1::char_traits<char>, std::__ndk1::allocator<char> > const&)::$_0&&, jukebox::download::startHostedDownload(std::__ndk1::basic_string<char, std::__ndk1::char_traits<char>, std::__ndk1::allocator<char> > const&)::$_1&&, void (*&&)(), std::__ndk1::basic_string_view<char, std::__ndk1::char_traits<char> >) const::{lambda(geode::Task<geode::utils::web::WebResponse, geode::utils::web::WebProgress>::Event*)#1}, std::__ndk1::allocator<geode::Task<geode::utils::web::WebResponse, geode::utils::web::WebProgress>::map<jukebox::download::startHostedDownload(std::__ndk1::basic_string<char, std::__ndk1::char_traits<char>, std::__ndk1::allocator<char> > const&)::$_0, jukebox::download::startHostedDownload(std::__ndk1::basic_string<char, std::__ndk1::char_traits<char>, std::__ndk1::allocator<char> > const&)::$_1, void (*)()>(jukebox::download::startHostedDownload(std::__ndk1::basic_string<char, std::__ndk1::char_traits<char>, std::__ndk1::allocator<char> > const&)::$_0&&, jukebox::download::startHostedDownload(std::__ndk1::basic_string<char, std::__ndk1::char_traits<char>, std::__ndk1::allocator<char> > const&)::$_1&&, void (*&&)(), std::__ndk1::basic_string_view<char, std::__ndk1::char_traits<char> >) const::{lambda(geode::Task<geode::utils::web::WebResponse, geode::utils::web::WebProgress>::Event*)#1}>, void (geode::Task<geode::utils::web::WebResponse, geode::utils::web::WebProgress>::Event*)>::target_type() const
PUBLIC 6227c 0 geode::Task<geode::Result<std::__ndk1::vector<unsigned char, std::__ndk1::allocator<unsigned char> >, std::__ndk1::basic_string<char, std::__ndk1::char_traits<char>, std::__ndk1::allocator<char> > >, float>::progress(std::__ndk1::shared_ptr<geode::Task<geode::Result<std::__ndk1::vector<unsigned char, std::__ndk1::allocator<unsigned char> >, std::__ndk1::basic_string<char, std::__ndk1::char_traits<char>, std::__ndk1::allocator<char> > >, float>::Handle>, float&&)
PUBLIC 623cc 0 geode::Task<geode::Result<std::__ndk1::vector<unsigned char, std::__ndk1::allocator<unsigned char> >, std::__ndk1::basic_string<char, std::__ndk1::char_traits<char>, std::__ndk1::allocator<char> > >, float>::progress(std::__ndk1::shared_ptr<geode::Task<geode::Result<std::__ndk1::vector<unsigned char, std::__ndk1::allocator<unsigned char> >, std::__ndk1::basic_string<char, std::__ndk1::char_traits<char>, std::__ndk1::allocator<char> > >, float>::Handle>, float&&)::{lambda()#1}::~{lambda()#1}()
PUBLIC 6241c 0 std::__ndk1::__function::__func<geode::Task<geode::Result<std::__ndk1::vector<unsigned char, std::__ndk1::allocator<unsigned char> >, std::__ndk1::basic_string<char, std::__ndk1::char_traits<char>, std::__ndk1::allocator<char> > >, float>::progress(std::__ndk1::shared_ptr<geode::Task<geode::Result<std::__ndk1::vector<unsigned char, std::__ndk1::allocator<unsigned char> >, std::__ndk1::basic_string<char, std::__ndk1::char_traits<char>, std::__ndk1::allocator<char> > >, float>::Handle>, float&&)::{lambda()#1}, std::__ndk1::allocator<geode::Task<geode::Result<std::__ndk1::vector<unsigned char, std::__ndk1::allocator<unsigned char> >, std::__ndk1::basic_string<char, std::__ndk1::char_traits<char>, std::__ndk1::allocator<char> > >, float>::progress(std::__ndk1::shared_ptr<geode::Task<geode::Result<std::__ndk1::vector<unsigned char, std::__ndk1::allocator<unsigned char> >, std::__ndk1::basic_string<char, std::__ndk1::char_traits<char>, std::__ndk1::allocator<char> > >, float>::Handle>, float&&)::{lambda()#1}>, void ()>::~__func()
PUBLIC 62478 0 std::__ndk1::__function::__func<geode::Task<geode::Result<std::__ndk1::vector<unsigned char, std::__ndk1::allocator<unsigned char> >, std::__ndk1::basic_string<char, std::__ndk1::char_traits<char>, std::__ndk1::allocator<char> > >, float>::progress(std::__ndk1::shared_ptr<geode::Task<geode::Result<std::__ndk1::vector<unsigned char, std::__ndk1::allocator<unsigned char> >, std::__ndk1::basic_string<char, std::__ndk1::char_traits<char>, std::__ndk1::allocator<char> > >, float>::Handle>, float&&)::{lambda()#1}, std::__ndk1::allocator<geode::Task<geode::Result<std::__ndk1::vector<unsigned char, std::__ndk1::allocator<unsigned char> >, std::__ndk1::basic_string<char, std::__ndk1::char_traits<char>, std::__ndk1::allocator<char> > >, float>::progress(std::__ndk1::shared_ptr<geode::Task<geode::Result<std::__ndk1::vector<unsigned char, std::__ndk1::allocator<unsigned char> >, std::__ndk1::basic_string<char, std::__ndk1::char_traits<char>, std::__ndk1::allocator<char> > >, float>::Handle>, float&&)::{lambda()#1}>, void ()>::~__func()
PUBLIC 624e4 0 std::__ndk1::__function::__func<geode::Task<geode::Result<std::__ndk1::vector<unsigned char, std::__ndk1::allocator<unsigned char> >, std::__ndk1::basic_string<char, std::__ndk1::char_traits<char>, std::__ndk1::allocator<char> > >, float>::progress(std::__ndk1::shared_ptr<geode::Task<geode::Result<std::__ndk1::vector<unsigned char, std::__ndk1::allocator<unsigned char> >, std::__ndk1::basic_string<char, std::__ndk1::char_traits<char>, std::__ndk1::allocator<char> > >, float>::Handle>, float&&)::{lambda()#1}, std::__ndk1::allocator<geode::Task<geode::Result<std::__ndk1::vector<unsigned char, std::__ndk1::allocator<unsigned char> >, std::__ndk1::basic_string<char, std::__ndk1::char_traits<char>, std::__ndk1::allocator<char> > >, float>::progress(std::__ndk1::shared_ptr<geode::Task<geode::Result<std::__ndk1::vector<unsigned char, std::__ndk1::allocator<unsigned char> >, std::__ndk1::basic_string<char, std::__ndk1::char_traits<char>, std::__ndk1::allocator<char> > >, float>::Handle>, float&&)::{lambda()#1}>, void ()>::__clone() const
PUBLIC 6253c 0 std::__ndk1::__function::__func<geode::Task<geode::Result<std::__ndk1::vector<unsigned char, std::__ndk1::allocator<unsigned char> >, std::__ndk1::basic_string<char, std::__ndk1::char_traits<char>, std::__ndk1::allocator<char> > >, float>::progress(std::__ndk1::shared_ptr<geode::Task<geode::Result<std::__ndk1::vector<unsigned char, std::__ndk1::allocator<unsigned char> >, std::__ndk1::basic_string<char, std::__ndk1::char_traits<char>, std::__ndk1::allocator<char> > >, float>::Handle>, float&&)::{lambda()#1}, std::__ndk1::allocator<geode::Task<geode::Result<std::__ndk1::vector<unsigned char, std::__ndk1::allocator<unsigned char> >, std::__ndk1::basic_string<char, std::__ndk1::char_traits<char>, std::__ndk1::allocator<char> > >, float>::progress(std::__ndk1::shared_ptr<geode::Task<geode::Result<std::__ndk1::vector<unsigned char, std::__ndk1::allocator<unsigned char> >, std::__ndk1::basic_string<char, std::__ndk1::char_traits<char>, std::__ndk1::allocator<char> > >, float>::Handle>, float&&)::{lambda()#1}>, void ()>::__clone(std::__ndk1::__function::__base<void ()>*) const
PUBLIC 62588 0 std::__ndk1::__function::__func<geode::Task<geode::Result<std::__ndk1::vector<unsigned char, std::__ndk1::allocator<unsigned char> >, std::__ndk1::basic_string<char, std::__ndk1::char_traits<char>, std::__ndk1::allocator<char> > >, float>::progress(std::__ndk1::shared_ptr<geode::Task<geode::Result<std::__ndk1::vector<unsigned char, std::__ndk1::allocator<unsigned char> >, std::__ndk1::basic_string<char, std::__ndk1::char_traits<char>, std::__ndk1::allocator<char> > >, float>::Handle>, float&&)::{lambda()#1}, std::__ndk1::allocator<geode::Task<geode::Result<std::__ndk1::vector<unsigned char, std::__ndk1::allocator<unsigned char> >, std::__ndk1::basic_string<char, std::__ndk1::char_traits<char>, std::__ndk1::allocator<char> > >, float>::progress(std::__ndk1::shared_ptr<geode::Task<geode::Result<std::__ndk1::vector<unsigned char, std::__ndk1::allocator<unsigned char> >, std::__ndk1::basic_string<char, std::__ndk1::char_traits<char>, std::__ndk1::allocator<char> > >, float>::Handle>, float&&)::{lambda()#1}>, void ()>::destroy()
PUBLIC 625d8 0 std::__ndk1::__function::__func<geode::Task<geode::Result<std::__ndk1::vector<unsigned char, std::__ndk1::allocator<unsigned char> >, std::__ndk1::basic_string<char, std::__ndk1::char_traits<char>, std::__ndk1::allocator<char> > >, float>::progress(std::__ndk1::shared_ptr<geode::Task<geode::Result<std::__ndk1::vector<unsigned char, std::__ndk1::allocator<unsigned char> >, std::__ndk1::basic_string<char, std::__ndk1::char_traits<char>, std::__ndk1::allocator<char> > >, float>::Handle>, float&&)::{lambda()#1}, std::__ndk1::allocator<geode::Task<geode::Result<std::__ndk1::vector<unsigned char, std::__ndk1::allocator<unsigned char> >, std::__ndk1::basic_string<char, std::__ndk1::char_traits<char>, std::__ndk1::allocator<char> > >, float>::progress(std::__ndk1::shared_ptr<geode::Task<geode::Result<std::__ndk1::vector<unsigned char, std::__ndk1::allocator<unsigned char> >, std::__ndk1::basic_string<char, std::__ndk1::char_traits<char>, std::__ndk1::allocator<char> > >, float>::Handle>, float&&)::{lambda()#1}>, void ()>::destroy_deallocate()
PUBLIC 62638 0 std::__ndk1::__function::__func<geode::Task<geode::Result<std::__ndk1::vector<unsigned char, std::__ndk1::allocator<unsigned char> >, std::__ndk1::basic_string<char, std::__ndk1::char_traits<char>, std::__ndk1::allocator<char> > >, float>::progress(std::__ndk1::shared_ptr<geode::Task<geode::Result<std::__ndk1::vector<unsigned char, std::__ndk1::allocator<unsigned char> >, std::__ndk1::basic_string<char, std::__ndk1::char_traits<char>, std::__ndk1::allocator<char> > >, float>::Handle>, float&&)::{lambda()#1}, std::__ndk1::allocator<geode::Task<geode::Result<std::__ndk1::vector<unsigned char, std::__ndk1::allocator<unsigned char> >, std::__ndk1::basic_string<char, std::__ndk1::char_traits<char>, std::__ndk1::allocator<char> > >, float>::progress(std::__ndk1::shared_ptr<geode::Task<geode::Result<std::__ndk1::vector<unsigned char, std::__ndk1::allocator<unsigned char> >, std::__ndk1::basic_string<char, std::__ndk1::char_traits<char>, std::__ndk1::allocator<char> > >, float>::Handle>, float&&)::{lambda()#1}>, void ()>::operator()()
PUBLIC 62640 0 std::__ndk1::__function::__func<geode::Task<geode::Result<std::__ndk1::vector<unsigned char, std::__ndk1::allocator<unsigned char> >, std::__ndk1::basic_string<char, std::__ndk1::char_traits<char>, std::__ndk1::allocator<char> > >, float>::progress(std::__ndk1::shared_ptr<geode::Task<geode::Result<std::__ndk1::vector<unsigned char, std::__ndk1::allocator<unsigned char> >, std::__ndk1::basic_string<char, std::__ndk1::char_traits<char>, std::__ndk1::allocator<char> > >, float>::Handle>, float&&)::{lambda()#1}, std::__ndk1::allocator<geode::Task<geode::Result<std::__ndk1::vector<unsigned char, std::__ndk1::allocator<unsigned char> >, std::__ndk1::basic_string<char, std::__ndk1::char_traits<char>, std::__ndk1::allocator<char> > >, float>::progress(std::__ndk1::shared_ptr<geode::Task<geode::Result<std::__ndk1::vector<unsigned char, std::__ndk1::allocator<unsigned char> >, std::__ndk1::basic_string<char, std::__ndk1::char_traits<char>, std::__ndk1::allocator<char> > >, float>::Handle>, float&&)::{lambda()#1}>, void ()>::target(std::type_info const&) const
PUBLIC 6265c 0 std::__ndk1::__function::__func<geode::Task<geode::Result<std::__ndk1::vector<unsigned char, std::__ndk1::allocator<unsigned char> >, std::__ndk1::basic_string<char, std::__ndk1::char_traits<char>, std::__ndk1::allocator<char> > >, float>::progress(std::__ndk1::shared_ptr<geode::Task<geode::Result<std::__ndk1::vector<unsigned char, std::__ndk1::allocator<unsigned char> >, std::__ndk1::basic_string<char, std::__ndk1::char_traits<char>, std::__ndk1::allocator<char> > >, float>::Handle>, float&&)::{lambda()#1}, std::__ndk1::allocator<geode::Task<geode::Result<std::__ndk1::vector<unsigned char, std::__ndk1::allocator<unsigned char> >, std::__ndk1::basic_string<char, std::__ndk1::char_traits<char>, std::__ndk1::allocator<char> > >, float>::progress(std::__ndk1::shared_ptr<geode::Task<geode::Result<std::__ndk1::vector<unsigned char, std::__ndk1::allocator<unsigned char> >, std::__ndk1::basic_string<char, std::__ndk1::char_traits<char>, std::__ndk1::allocator<char> > >, float>::Handle>, float&&)::{lambda()#1}>, void ()>::target_type() const
PUBLIC 62668 0 geode::Task<geode::Result<std::__ndk1::vector<unsigned char, std::__ndk1::allocator<unsigned char> >, std::__ndk1::basic_string<char, std::__ndk1::char_traits<char>, std::__ndk1::allocator<char> > >, float>::progress(std::__ndk1::shared_ptr<geode::Task<geode::Result<std::__ndk1::vector<unsigned char, std::__ndk1::allocator<unsigned char> >, std::__ndk1::basic_string<char, std::__ndk1::char_traits<char>, std::__ndk1::allocator<char> > >, float>::Handle>, float&&)::{lambda()#1}::operator()()
PUBLIC 62824 0 geode::Task<geode::utils::web::WebResponse, geode::utils::web::WebProgress>::setListener(geode::EventListenerProtocol*)
PUBLIC 62a40 0 geode::EventListener<geode::Task<geode::utils::web::WebResponse, geode::utils::web::WebProgress> >::getPool() const
PUBLIC 62a44 0 geode::EventListener<geode::Task<geode::utils::web::WebResponse, geode::utils::web::WebProgress> >::handle(geode::Event*)
PUBLIC 62c10 0 geode::EventListener<geode::Task<geode::utils::web::WebResponse, geode::utils::web::WebProgress> >::~EventListener()
PUBLIC 62cac 0 geode::EventListener<geode::Task<geode::utils::web::WebResponse, geode::utils::web::WebProgress> >::~EventListener()
PUBLIC 62d50 0 geode::Task<geode::utils::web::WebResponse, geode::utils::web::WebProgress>::setListener(geode::EventListenerProtocol*)::{lambda()#1}::~{lambda()#1}()
PUBLIC 62da0 0 geode::Task<geode::utils::web::WebResponse, geode::utils::web::WebProgress>::setListener(geode::EventListenerProtocol*)::{lambda()#2}::~{lambda()#2}()
PUBLIC 62df0 0 std::__ndk1::__function::__func<geode::Task<geode::utils::web::WebResponse, geode::utils::web::WebProgress>::setListener(geode::EventListenerProtocol*)::{lambda()#1}, std::__ndk1::allocator<geode::Task<geode::utils::web::WebResponse, geode::utils::web::WebProgress>::setListener(geode::EventListenerProtocol*)::{lambda()#1}>, void ()>::~__func()
PUBLIC 62e4c 0 std::__ndk1::__function::__func<geode::Task<geode::utils::web::WebResponse, geode::utils::web::WebProgress>::setListener(geode::EventListenerProtocol*)::{lambda()#1}, std::__ndk1::allocator<geode::Task<geode::utils::web::WebResponse, geode::utils::web::WebProgress>::setListener(geode::EventListenerProtocol*)::{lambda()#1}>, void ()>::~__func()
PUBLIC 62eb8 0 std::__ndk1::__function::__func<geode::Task<geode::utils::web::WebResponse, geode::utils::web::WebProgress>::setListener(geode::EventListenerProtocol*)::{lambda()#1}, std::__ndk1::allocator<geode::Task<geode::utils::web::WebResponse, geode::utils::web::WebProgress>::setListener(geode::EventListenerProtocol*)::{lambda()#1}>, void ()>::__clone() const
PUBLIC 62f10 0 std::__ndk1::__function::__func<geode::Task<geode::utils::web::WebResponse, geode::utils::web::WebProgress>::setListener(geode::EventListenerProtocol*)::{lambda()#1}, std::__ndk1::allocator<geode::Task<geode::utils::web::WebResponse, geode::utils::web::WebProgress>::setListener(geode::EventListenerProtocol*)::{lambda()#1}>, void ()>::__clone(std::__ndk1::__function::__base<void ()>*) const
PUBLIC 62f5c 0 std::__ndk1::__function::__func<geode::Task<geode::utils::web::WebResponse, geode::utils::web::WebProgress>::setListener(geode::EventListenerProtocol*)::{lambda()#1}, std::__ndk1::allocator<geode::Task<geode::utils::web::WebResponse, geode::utils::web::WebProgress>::setListener(geode::EventListenerProtocol*)::{lambda()#1}>, void ()>::destroy()
PUBLIC 62fac 0 std::__ndk1::__function::__func<geode::Task<geode::utils::web::WebResponse, geode::utils::web::WebProgress>::setListener(geode::EventListenerProtocol*)::{lambda()#1}, std::__ndk1::allocator<geode::Task<geode::utils::web::WebResponse, geode::utils::web::WebProgress>::setListener(geode::EventListenerProtocol*)::{lambda()#1}>, void ()>::destroy_deallocate()
PUBLIC 6300c 0 std::__ndk1::__function::__func<geode::Task<geode::utils::web::WebResponse, geode::utils::web::WebProgress>::setListener(geode::EventListenerProtocol*)::{lambda()#1}, std::__ndk1::allocator<geode::Task<geode::utils::web::WebResponse, geode::utils::web::WebProgress>::setListener(geode::EventListenerProtocol*)::{lambda()#1}>, void ()>::operator()()
PUBLIC 63014 0 std::__ndk1::__function::__func<geode::Task<geode::utils::web::WebResponse, geode::utils::web::WebProgress>::setListener(geode::EventListenerProtocol*)::{lambda()#1}, std::__ndk1::allocator<geode::Task<geode::utils::web::WebResponse, geode::utils::web::WebProgress>::setListener(geode::EventListenerProtocol*)::{lambda()#1}>, void ()>::target(std::type_info const&) const
PUBLIC 63030 0 std::__ndk1::__function::__func<geode::Task<geode::utils::web::WebResponse, geode::utils::web::WebProgress>::setListener(geode::EventListenerProtocol*)::{lambda()#1}, std::__ndk1::allocator<geode::Task<geode::utils::web::WebResponse, geode::utils::web::WebProgress>::setListener(geode::EventListenerProtocol*)::{lambda()#1}>, void ()>::target_type() const
PUBLIC 6303c 0 geode::Task<geode::utils::web::WebResponse, geode::utils::web::WebProgress>::setListener(geode::EventListenerProtocol*)::{lambda()#1}::operator()() const
PUBLIC 6320c 0 std::__ndk1::shared_ptr<geode::Task<geode::utils::web::WebResponse, geode::utils::web::WebProgress>::Handle>::~shared_ptr[abi:ne180000]()
PUBLIC 6325c 0 geode::Task<geode::utils::web::WebResponse, geode::utils::web::WebProgress>::Event::~Event()
PUBLIC 632bc 0 geode::Task<geode::utils::web::WebResponse, geode::utils::web::WebProgress>::Event::~Event()
PUBLIC 6332c 0 std::__ndk1::__function::__func<geode::Task<geode::utils::web::WebResponse, geode::utils::web::WebProgress>::setListener(geode::EventListenerProtocol*)::{lambda()#2}, std::__ndk1::allocator<geode::Task<geode::utils::web::WebResponse, geode::utils::web::WebProgress>::setListener(geode::EventListenerProtocol*)::{lambda()#2}>, void ()>::~__func()
PUBLIC 63388 0 std::__ndk1::__function::__func<geode::Task<geode::utils::web::WebResponse, geode::utils::web::WebProgress>::setListener(geode::EventListenerProtocol*)::{lambda()#2}, std::__ndk1::allocator<geode::Task<geode::utils::web::WebResponse, geode::utils::web::WebProgress>::setListener(geode::EventListenerProtocol*)::{lambda()#2}>, void ()>::~__func()
PUBLIC 633f4 0 std::__ndk1::__function::__func<geode::Task<geode::utils::web::WebResponse, geode::utils::web::WebProgress>::setListener(geode::EventListenerProtocol*)::{lambda()#2}, std::__ndk1::allocator<geode::Task<geode::utils::web::WebResponse, geode::utils::web::WebProgress>::setListener(geode::EventListenerProtocol*)::{lambda()#2}>, void ()>::__clone() const
PUBLIC 6344c 0 std::__ndk1::__function::__func<geode::Task<geode::utils::web::WebResponse, geode::utils::web::WebProgress>::setListener(geode::EventListenerProtocol*)::{lambda()#2}, std::__ndk1::allocator<geode::Task<geode::utils::web::WebResponse, geode::utils::web::WebProgress>::setListener(geode::EventListenerProtocol*)::{lambda()#2}>, void ()>::__clone(std::__ndk1::__function::__base<void ()>*) const
PUBLIC 63498 0 std::__ndk1::__function::__func<geode::Task<geode::utils::web::WebResponse, geode::utils::web::WebProgress>::setListener(geode::EventListenerProtocol*)::{lambda()#2}, std::__ndk1::allocator<geode::Task<geode::utils::web::WebResponse, geode::utils::web::WebProgress>::setListener(geode::EventListenerProtocol*)::{lambda()#2}>, void ()>::destroy()
PUBLIC 634e8 0 std::__ndk1::__function::__func<geode::Task<geode::utils::web::WebResponse, geode::utils::web::WebProgress>::setListener(geode::EventListenerProtocol*)::{lambda()#2}, std::__ndk1::allocator<geode::Task<geode::utils::web::WebResponse, geode::utils::web::WebProgress>::setListener(geode::EventListenerProtocol*)::{lambda()#2}>, void ()>::destroy_deallocate()
PUBLIC 63548 0 std::__ndk1::__function::__func<geode::Task<geode::utils::web::WebResponse, geode::utils::web::WebProgress>::setListener(geode::EventListenerProtocol*)::{lambda()#2}, std::__ndk1::allocator<geode::Task<geode::utils::web::WebResponse, geode::utils::web::WebProgress>::setListener(geode::EventListenerProtocol*)::{lambda()#2}>, void ()>::operator()()
PUBLIC 63550 0 std::__ndk1::__function::__func<geode::Task<geode::utils::web::WebResponse, geode::utils::web::WebProgress>::setListener(geode::EventListenerProtocol*)::{lambda()#2}, std::__ndk1::allocator<geode::Task<geode::utils::web::WebResponse, geode::utils::web::WebProgress>::setListener(geode::EventListenerProtocol*)::{lambda()#2}>, void ()>::target(std::type_info const&) const
PUBLIC 6356c 0 std::__ndk1::__function::__func<geode::Task<geode::utils::web::WebResponse, geode::utils::web::WebProgress>::setListener(geode::EventListenerProtocol*)::{lambda()#2}, std::__ndk1::allocator<geode::Task<geode::utils::web::WebResponse, geode::utils::web::WebProgress>::setListener(geode::EventListenerProtocol*)::{lambda()#2}>, void ()>::target_type() const
PUBLIC 63578 0 geode::Task<geode::utils::web::WebResponse, geode::utils::web::WebProgress>::setListener(geode::EventListenerProtocol*)::{lambda()#2}::operator()() const
PUBLIC 6373c 0 geode::cast::traverseTypeinfoFor(void*, geode::cast::ClassTypeinfoType const*, char const*)
PUBLIC 63840 0 std::__ndk1::__throw_bad_function_call[abi:ne180000]()
PUBLIC 63874 0 std::__ndk1::bad_function_call::~bad_function_call()
PUBLIC 63898 0 geode::Task<geode::utils::web::WebResponse, geode::utils::web::WebProgress>::map<jukebox::download::startHostedDownload(std::__ndk1::basic_string<char, std::__ndk1::char_traits<char>, std::__ndk1::allocator<char> > const&)::$_0, jukebox::download::startHostedDownload(std::__ndk1::basic_string<char, std::__ndk1::char_traits<char>, std::__ndk1::allocator<char> > const&)::$_1, void (*)()>(jukebox::download::startHostedDownload(std::__ndk1::basic_string<char, std::__ndk1::char_traits<char>, std::__ndk1::allocator<char> > const&)::$_0&&, jukebox::download::startHostedDownload(std::__ndk1::basic_string<char, std::__ndk1::char_traits<char>, std::__ndk1::allocator<char> > const&)::$_1&&, void (*&&)(), std::__ndk1::basic_string_view<char, std::__ndk1::char_traits<char> >) const::{lambda(void*)#1}::__invoke(void*)
PUBLIC 638ac 0 geode::Task<geode::utils::web::WebResponse, geode::utils::web::WebProgress>::map<jukebox::download::startHostedDownload(std::__ndk1::basic_string<char, std::__ndk1::char_traits<char>, std::__ndk1::allocator<char> > const&)::$_0, jukebox::download::startHostedDownload(std::__ndk1::basic_string<char, std::__ndk1::char_traits<char>, std::__ndk1::allocator<char> > const&)::$_1, void (*)()>(jukebox::download::startHostedDownload(std::__ndk1::basic_string<char, std::__ndk1::char_traits<char>, std::__ndk1::allocator<char> > const&)::$_0&&, jukebox::download::startHostedDownload(std::__ndk1::basic_string<char, std::__ndk1::char_traits<char>, std::__ndk1::allocator<char> > const&)::$_1&&, void (*&&)(), std::__ndk1::basic_string_view<char, std::__ndk1::char_traits<char> >) const::{lambda(void*)#2}::__invoke(void*)
PUBLIC 63964 0 geode::Task<geode::utils::web::WebResponse, geode::utils::web::WebProgress>::cancel(std::__ndk1::shared_ptr<geode::Task<geode::utils::web::WebResponse, geode::utils::web::WebProgress>::Handle>, bool)
PUBLIC 63ad4 0 geode::Task<geode::utils::web::WebResponse, geode::utils::web::WebProgress>::cancel(std::__ndk1::shared_ptr<geode::Task<geode::utils::web::WebResponse, geode::utils::web::WebProgress>::Handle>, bool)::{lambda()#1}::~{lambda()#1}()
PUBLIC 63b24 0 std::__ndk1::__function::__func<geode::Task<geode::utils::web::WebResponse, geode::utils::web::WebProgress>::cancel(std::__ndk1::shared_ptr<geode::Task<geode::utils::web::WebResponse, geode::utils::web::WebProgress>::Handle>, bool)::{lambda()#1}, std::__ndk1::allocator<geode::Task<geode::utils::web::WebResponse, geode::utils::web::WebProgress>::cancel(std::__ndk1::shared_ptr<geode::Task<geode::utils::web::WebResponse, geode::utils::web::WebProgress>::Handle>, bool)::{lambda()#1}>, void ()>::~__func()
PUBLIC 63b80 0 std::__ndk1::__function::__func<geode::Task<geode::utils::web::WebResponse, geode::utils::web::WebProgress>::cancel(std::__ndk1::shared_ptr<geode::Task<geode::utils::web::WebResponse, geode::utils::web::WebProgress>::Handle>, bool)::{lambda()#1}, std::__ndk1::allocator<geode::Task<geode::utils::web::WebResponse, geode::utils::web::WebProgress>::cancel(std::__ndk1::shared_ptr<geode::Task<geode::utils::web::WebResponse, geode::utils::web::WebProgress>::Handle>, bool)::{lambda()#1}>, void ()>::~__func()
PUBLIC 63bec 0 std::__ndk1::__function::__func<geode::Task<geode::utils::web::WebResponse, geode::utils::web::WebProgress>::cancel(std::__ndk1::shared_ptr<geode::Task<geode::utils::web::WebResponse, geode::utils::web::WebProgress>::Handle>, bool)::{lambda()#1}, std::__ndk1::allocator<geode::Task<geode::utils::web::WebResponse, geode::utils::web::WebProgress>::cancel(std::__ndk1::shared_ptr<geode::Task<geode::utils::web::WebResponse, geode::utils::web::WebProgress>::Handle>, bool)::{lambda()#1}>, void ()>::__clone() const
PUBLIC 63c3c 0 std::__ndk1::__function::__func<geode::Task<geode::utils::web::WebResponse, geode::utils::web::WebProgress>::cancel(std::__ndk1::shared_ptr<geode::Task<geode::utils::web::WebResponse, geode::utils::web::WebProgress>::Handle>, bool)::{lambda()#1}, std::__ndk1::allocator<geode::Task<geode::utils::web::WebResponse, geode::utils::web::WebProgress>::cancel(std::__ndk1::shared_ptr<geode::Task<geode::utils::web::WebResponse, geode::utils::web::WebProgress>::Handle>, bool)::{lambda()#1}>, void ()>::__clone(std::__ndk1::__function::__base<void ()>*) const
PUBLIC 63c70 0 std::__ndk1::__function::__func<geode::Task<geode::utils::web::WebResponse, geode::utils::web::WebProgress>::cancel(std::__ndk1::shared_ptr<geode::Task<geode::utils::web::WebResponse, geode::utils::web::WebProgress>::Handle>, bool)::{lambda()#1}, std::__ndk1::allocator<geode::Task<geode::utils::web::WebResponse, geode::utils::web::WebProgress>::cancel(std::__ndk1::shared_ptr<geode::Task<geode::utils::web::WebResponse, geode::utils::web::WebProgress>::Handle>, bool)::{lambda()#1}>, void ()>::destroy()
PUBLIC 63cc0 0 std::__ndk1::__function::__func<geode::Task<geode::utils::web::WebResponse, geode::utils::web::WebProgress>::cancel(std::__ndk1::shared_ptr<geode::Task<geode::utils::web::WebResponse, geode::utils::web::WebProgress>::Handle>, bool)::{lambda()#1}, std::__ndk1::allocator<geode::Task<geode::utils::web::WebResponse, geode::utils::web::WebProgress>::cancel(std::__ndk1::shared_ptr<geode::Task<geode::utils::web::WebResponse, geode::utils::web::WebProgress>::Handle>, bool)::{lambda()#1}>, void ()>::destroy_deallocate()
PUBLIC 63d20 0 std::__ndk1::__function::__func<geode::Task<geode::utils::web::WebResponse, geode::utils::web::WebProgress>::cancel(std::__ndk1::shared_ptr<geode::Task<geode::utils::web::WebResponse, geode::utils::web::WebProgress>::Handle>, bool)::{lambda()#1}, std::__ndk1::allocator<geode::Task<geode::utils::web::WebResponse, geode::utils::web::WebProgress>::cancel(std::__ndk1::shared_ptr<geode::Task<geode::utils::web::WebResponse, geode::utils::web::WebProgress>::Handle>, bool)::{lambda()#1}>, void ()>::operator()()
PUBLIC 63d28 0 std::__ndk1::__function::__func<geode::Task<geode::utils::web::WebResponse, geode::utils::web::WebProgress>::cancel(std::__ndk1::shared_ptr<geode::Task<geode::utils::web::WebResponse, geode::utils::web::WebProgress>::Handle>, bool)::{lambda()#1}, std::__ndk1::allocator<geode::Task<geode::utils::web::WebResponse, geode::utils::web::WebProgress>::cancel(std::__ndk1::shared_ptr<geode::Task<geode::utils::web::WebResponse, geode::utils::web::WebProgress>::Handle>, bool)::{lambda()#1}>, void ()>::target(std::type_info const&) const
PUBLIC 63d44 0 std::__ndk1::__function::__func<geode::Task<geode::utils::web::WebResponse, geode::utils::web::WebProgress>::cancel(std::__ndk1::shared_ptr<geode::Task<geode::utils::web::WebResponse, geode::utils::web::WebProgress>::Handle>, bool)::{lambda()#1}, std::__ndk1::allocator<geode::Task<geode::utils::web::WebResponse, geode::utils::web::WebProgress>::cancel(std::__ndk1::shared_ptr<geode::Task<geode::utils::web::WebResponse, geode::utils::web::WebProgress>::Handle>, bool)::{lambda()#1}>, void ()>::target_type() const
PUBLIC 63d50 0 geode::Task<geode::utils::web::WebResponse, geode::utils::web::WebProgress>::cancel(std::__ndk1::shared_ptr<geode::Task<geode::utils::web::WebResponse, geode::utils::web::WebProgress>::Handle>, bool)::{lambda()#1}::operator()()
PUBLIC 63f14 0 geode::Task<geode::utils::web::WebResponse, geode::utils::web::WebProgress>::map<jukebox::download::startHostedDownload(std::__ndk1::basic_string<char, std::__ndk1::char_traits<char>, std::__ndk1::allocator<char> > const&)::$_0, jukebox::download::startHostedDownload(std::__ndk1::basic_string<char, std::__ndk1::char_traits<char>, std::__ndk1::allocator<char> > const&)::$_1>(jukebox::download::startHostedDownload(std::__ndk1::basic_string<char, std::__ndk1::char_traits<char>, std::__ndk1::allocator<char> > const&)::$_0&&, jukebox::download::startHostedDownload(std::__ndk1::basic_string<char, std::__ndk1::char_traits<char>, std::__ndk1::allocator<char> > const&)::$_1&&, std::__ndk1::basic_string_view<char, std::__ndk1::char_traits<char> >) const::{lambda()#1}::__invoke()
PUBLIC 63f18 0 matjson::makeObject(std::initializer_list<std::__ndk1::pair<std::__ndk1::basic_string<char, std::__ndk1::char_traits<char>, std::__ndk1::allocator<char> >, matjson::Value> >)
PUBLIC 640cc 0 _ZNSt6__ndk14pairINS_12basic_stringIcNS_11char_traitsIcEENS_9allocatorIcEEEEN7matjson5ValueEEC2B8ne180000IRA4_KcS6_TnNS_9enable_ifIXclsr10_CheckArgsE17__enable_implicitIT_T0_EEEiE4typeELi0EEEOSF_OSG_
PUBLIC 64230 0 std::__ndk1::pair<std::__ndk1::basic_string<char, std::__ndk1::char_traits<char>, std::__ndk1::allocator<char> >, matjson::Value>::~pair()
PUBLIC 6426c 0 std::__ndk1::vector<matjson::Value, std::__ndk1::allocator<matjson::Value> >::__emplace_back_slow_path<matjson::Value const&>(matjson::Value const&)
PUBLIC 64410 0 std::__ndk1::__split_buffer<matjson::Value, std::__ndk1::allocator<matjson::Value>&>::~__split_buffer()
PUBLIC 64464 0 geode::Task<geode::Result<std::__ndk1::vector<unsigned char, std::__ndk1::allocator<unsigned char> >, std::__ndk1::basic_string<char, std::__ndk1::char_traits<char>, std::__ndk1::allocator<char> > >, float>::setListener(geode::EventListenerProtocol*)
PUBLIC 64680 0 geode::EventListener<geode::Task<geode::Result<std::__ndk1::vector<unsigned char, std::__ndk1::allocator<unsigned char> >, std::__ndk1::basic_string<char, std::__ndk1::char_traits<char>, std::__ndk1::allocator<char> > >, float> >::getPool() const
PUBLIC 64684 0 geode::EventListener<geode::Task<geode::Result<std::__ndk1::vector<unsigned char, std::__ndk1::allocator<unsigned char> >, std::__ndk1::basic_string<char, std::__ndk1::char_traits<char>, std::__ndk1::allocator<char> > >, float> >::handle(geode::Event*)
PUBLIC 64850 0 geode::EventListener<geode::Task<geode::Result<std::__ndk1::vector<unsigned char, std::__ndk1::allocator<unsigned char> >, std::__ndk1::basic_string<char, std::__ndk1::char_traits<char>, std::__ndk1::allocator<char> > >, float> >::~EventListener()
PUBLIC 648ec 0 geode::EventListener<geode::Task<geode::Result<std::__ndk1::vector<unsigned char, std::__ndk1::allocator<unsigned char> >, std::__ndk1::basic_string<char, std::__ndk1::char_traits<char>, std::__ndk1::allocator<char> > >, float> >::~EventListener()
PUBLIC 64990 0 geode::Task<geode::Result<std::__ndk1::vector<unsigned char, std::__ndk1::allocator<unsigned char> >, std::__ndk1::basic_string<char, std::__ndk1::char_traits<char>, std::__ndk1::allocator<char> > >, float>::setListener(geode::EventListenerProtocol*)::{lambda()#1}::~{lambda()#1}()
PUBLIC 649e0 0 geode::Task<geode::Result<std::__ndk1::vector<unsigned char, std::__ndk1::allocator<unsigned char> >, std::__ndk1::basic_string<char, std::__ndk1::char_traits<char>, std::__ndk1::allocator<char> > >, float>::setListener(geode::EventListenerProtocol*)::{lambda()#2}::~{lambda()#2}()
PUBLIC 64a30 0 std::__ndk1::__function::__func<geode::Task<geode::Result<std::__ndk1::vector<unsigned char, std::__ndk1::allocator<unsigned char> >, std::__ndk1::basic_string<char, std::__ndk1::char_traits<char>, std::__ndk1::allocator<char> > >, float>::setListener(geode::EventListenerProtocol*)::{lambda()#1}, std::__ndk1::allocator<geode::Task<geode::Result<std::__ndk1::vector<unsigned char, std::__ndk1::allocator<unsigned char> >, std::__ndk1::basic_string<char, std::__ndk1::char_traits<char>, std::__ndk1::allocator<char> > >, float>::setListener(geode::EventListenerProtocol*)::{lambda()#1}>, void ()>::~__func()
PUBLIC 64a8c 0 std::__ndk1::__function::__func<geode::Task<geode::Result<std::__ndk1::vector<unsigned char, std::__ndk1::allocator<unsigned char> >, std::__ndk1::basic_string<char, std::__ndk1::char_traits<char>, std::__ndk1::allocator<char> > >, float>::setListener(geode::EventListenerProtocol*)::{lambda()#1}, std::__ndk1::allocator<geode::Task<geode::Result<std::__ndk1::vector<unsigned char, std::__ndk1::allocator<unsigned char> >, std::__ndk1::basic_string<char, std::__ndk1::char_traits<char>, std::__ndk1::allocator<char> > >, float>::setListener(geode::EventListenerProtocol*)::{lambda()#1}>, void ()>::~__func()
PUBLIC 64af8 0 std::__ndk1::__function::__func<geode::Task<geode::Result<std::__ndk1::vector<unsigned char, std::__ndk1::allocator<unsigned char> >, std::__ndk1::basic_string<char, std::__ndk1::char_traits<char>, std::__ndk1::allocator<char> > >, float>::setListener(geode::EventListenerProtocol*)::{lambda()#1}, std::__ndk1::allocator<geode::Task<geode::Result<std::__ndk1::vector<unsigned char, std::__ndk1::allocator<unsigned char> >, std::__ndk1::basic_string<char, std::__ndk1::char_traits<char>, std::__ndk1::allocator<char> > >, float>::setListener(geode::EventListenerProtocol*)::{lambda()#1}>, void ()>::__clone() const
PUBLIC 64b50 0 std::__ndk1::__function::__func<geode::Task<geode::Result<std::__ndk1::vector<unsigned char, std::__ndk1::allocator<unsigned char> >, std::__ndk1::basic_string<char, std::__ndk1::char_traits<char>, std::__ndk1::allocator<char> > >, float>::setListener(geode::EventListenerProtocol*)::{lambda()#1}, std::__ndk1::allocator<geode::Task<geode::Result<std::__ndk1::vector<unsigned char, std::__ndk1::allocator<unsigned char> >, std::__ndk1::basic_string<char, std::__ndk1::char_traits<char>, std::__ndk1::allocator<char> > >, float>::setListener(geode::EventListenerProtocol*)::{lambda()#1}>, void ()>::__clone(std::__ndk1::__function::__base<void ()>*) const
PUBLIC 64b9c 0 std::__ndk1::__function::__func<geode::Task<geode::Result<std::__ndk1::vector<unsigned char, std::__ndk1::allocator<unsigned char> >, std::__ndk1::basic_string<char, std::__ndk1::char_traits<char>, std::__ndk1::allocator<char> > >, float>::setListener(geode::EventListenerProtocol*)::{lambda()#1}, std::__ndk1::allocator<geode::Task<geode::Result<std::__ndk1::vector<unsigned char, std::__ndk1::allocator<unsigned char> >, std::__ndk1::basic_string<char, std::__ndk1::char_traits<char>, std::__ndk1::allocator<char> > >, float>::setListener(geode::EventListenerProtocol*)::{lambda()#1}>, void ()>::destroy()
PUBLIC 64bec 0 std::__ndk1::__function::__func<geode::Task<geode::Result<std::__ndk1::vector<unsigned char, std::__ndk1::allocator<unsigned char> >, std::__ndk1::basic_string<char, std::__ndk1::char_traits<char>, std::__ndk1::allocator<char> > >, float>::setListener(geode::EventListenerProtocol*)::{lambda()#1}, std::__ndk1::allocator<geode::Task<geode::Result<std::__ndk1::vector<unsigned char, std::__ndk1::allocator<unsigned char> >, std::__ndk1::basic_string<char, std::__ndk1::char_traits<char>, std::__ndk1::allocator<char> > >, float>::setListener(geode::EventListenerProtocol*)::{lambda()#1}>, void ()>::destroy_deallocate()
PUBLIC 64c4c 0 std::__ndk1::__function::__func<geode::Task<geode::Result<std::__ndk1::vector<unsigned char, std::__ndk1::allocator<unsigned char> >, std::__ndk1::basic_string<char, std::__ndk1::char_traits<char>, std::__ndk1::allocator<char> > >, float>::setListener(geode::EventListenerProtocol*)::{lambda()#1}, std::__ndk1::allocator<geode::Task<geode::Result<std::__ndk1::vector<unsigned char, std::__ndk1::allocator<unsigned char> >, std::__ndk1::basic_string<char, std::__ndk1::char_traits<char>, std::__ndk1::allocator<char> > >, float>::setListener(geode::EventListenerProtocol*)::{lambda()#1}>, void ()>::operator()()
PUBLIC 64c54 0 std::__ndk1::__function::__func<geode::Task<geode::Result<std::__ndk1::vector<unsigned char, std::__ndk1::allocator<unsigned char> >, std::__ndk1::basic_string<char, std::__ndk1::char_traits<char>, std::__ndk1::allocator<char> > >, float>::setListener(geode::EventListenerProtocol*)::{lambda()#1}, std::__ndk1::allocator<geode::Task<geode::Result<std::__ndk1::vector<unsigned char, std::__ndk1::allocator<unsigned char> >, std::__ndk1::basic_string<char, std::__ndk1::char_traits<char>, std::__ndk1::allocator<char> > >, float>::setListener(geode::EventListenerProtocol*)::{lambda()#1}>, void ()>::target(std::type_info const&) const
PUBLIC 64c70 0 std::__ndk1::__function::__func<geode::Task<geode::Result<std::__ndk1::vector<unsigned char, std::__ndk1::allocator<unsigned char> >, std::__ndk1::basic_string<char, std::__ndk1::char_traits<char>, std::__ndk1::allocator<char> > >, float>::setListener(geode::EventListenerProtocol*)::{lambda()#1}, std::__ndk1::allocator<geode::Task<geode::Result<std::__ndk1::vector<unsigned char, std::__ndk1::allocator<unsigned char> >, std::__ndk1::basic_string<char, std::__ndk1::char_traits<char>, std::__ndk1::allocator<char> > >, float>::setListener(geode::EventListenerProtocol*)::{lambda()#1}>, void ()>::target_type() const
PUBLIC 64c7c 0 geode::Task<geode::Result<std::__ndk1::vector<unsigned char, std::__ndk1::allocator<unsigned char> >, std::__ndk1::basic_string<char, std::__ndk1::char_traits<char>, std::__ndk1::allocator<char> > >, float>::setListener(geode::EventListenerProtocol*)::{lambda()#1}::operator()() const
PUBLIC 64e4c 0 std::__ndk1::__function::__func<geode::Task<geode::Result<std::__ndk1::vector<unsigned char, std::__ndk1::allocator<unsigned char> >, std::__ndk1::basic_string<char, std::__ndk1::char_traits<char>, std::__ndk1::allocator<char> > >, float>::setListener(geode::EventListenerProtocol*)::{lambda()#2}, std::__ndk1::allocator<geode::Task<geode::Result<std::__ndk1::vector<unsigned char, std::__ndk1::allocator<unsigned char> >, std::__ndk1::basic_string<char, std::__ndk1::char_traits<char>, std::__ndk1::allocator<char> > >, float>::setListener(geode::EventListenerProtocol*)::{lambda()#2}>, void ()>::~__func()
PUBLIC 64ea8 0 std::__ndk1::__function::__func<geode::Task<geode::Result<std::__ndk1::vector<unsigned char, std::__ndk1::allocator<unsigned char> >, std::__ndk1::basic_string<char, std::__ndk1::char_traits<char>, std::__ndk1::allocator<char> > >, float>::setListener(geode::EventListenerProtocol*)::{lambda()#2}, std::__ndk1::allocator<geode::Task<geode::Result<std::__ndk1::vector<unsigned char, std::__ndk1::allocator<unsigned char> >, std::__ndk1::basic_string<char, std::__ndk1::char_traits<char>, std::__ndk1::allocator<char> > >, float>::setListener(geode::EventListenerProtocol*)::{lambda()#2}>, void ()>::~__func()
PUBLIC 64f14 0 std::__ndk1::__function::__func<geode::Task<geode::Result<std::__ndk1::vector<unsigned char, std::__ndk1::allocator<unsigned char> >, std::__ndk1::basic_string<char, std::__ndk1::char_traits<char>, std::__ndk1::allocator<char> > >, float>::setListener(geode::EventListenerProtocol*)::{lambda()#2}, std::__ndk1::allocator<geode::Task<geode::Result<std::__ndk1::vector<unsigned char, std::__ndk1::allocator<unsigned char> >, std::__ndk1::basic_string<char, std::__ndk1::char_traits<char>, std::__ndk1::allocator<char> > >, float>::setListener(geode::EventListenerProtocol*)::{lambda()#2}>, void ()>::__clone() const
PUBLIC 64f6c 0 std::__ndk1::__function::__func<geode::Task<geode::Result<std::__ndk1::vector<unsigned char, std::__ndk1::allocator<unsigned char> >, std::__ndk1::basic_string<char, std::__ndk1::char_traits<char>, std::__ndk1::allocator<char> > >, float>::setListener(geode::EventListenerProtocol*)::{lambda()#2}, std::__ndk1::allocator<geode::Task<geode::Result<std::__ndk1::vector<unsigned char, std::__ndk1::allocator<unsigned char> >, std::__ndk1::basic_string<char, std::__ndk1::char_traits<char>, std::__ndk1::allocator<char> > >, float>::setListener(geode::EventListenerProtocol*)::{lambda()#2}>, void ()>::__clone(std::__ndk1::__function::__base<void ()>*) const
PUBLIC 64fb8 0 std::__ndk1::__function::__func<geode::Task<geode::Result<std::__ndk1::vector<unsigned char, std::__ndk1::allocator<unsigned char> >, std::__ndk1::basic_string<char, std::__ndk1::char_traits<char>, std::__ndk1::allocator<char> > >, float>::setListener(geode::EventListenerProtocol*)::{lambda()#2}, std::__ndk1::allocator<geode::Task<geode::Result<std::__ndk1::vector<unsigned char, std::__ndk1::allocator<unsigned char> >, std::__ndk1::basic_string<char, std::__ndk1::char_traits<char>, std::__ndk1::allocator<char> > >, float>::setListener(geode::EventListenerProtocol*)::{lambda()#2}>, void ()>::destroy()
PUBLIC 65008 0 std::__ndk1::__function::__func<geode::Task<geode::Result<std::__ndk1::vector<unsigned char, std::__ndk1::allocator<unsigned char> >, std::__ndk1::basic_string<char, std::__ndk1::char_traits<char>, std::__ndk1::allocator<char> > >, float>::setListener(geode::EventListenerProtocol*)::{lambda()#2}, std::__ndk1::allocator<geode::Task<geode::Result<std::__ndk1::vector<unsigned char, std::__ndk1::allocator<unsigned char> >, std::__ndk1::basic_string<char, std::__ndk1::char_traits<char>, std::__ndk1::allocator<char> > >, float>::setListener(geode::EventListenerProtocol*)::{lambda()#2}>, void ()>::destroy_deallocate()
PUBLIC 65068 0 std::__ndk1::__function::__func<geode::Task<geode::Result<std::__ndk1::vector<unsigned char, std::__ndk1::allocator<unsigned char> >, std::__ndk1::basic_string<char, std::__ndk1::char_traits<char>, std::__ndk1::allocator<char> > >, float>::setListener(geode::EventListenerProtocol*)::{lambda()#2}, std::__ndk1::allocator<geode::Task<geode::Result<std::__ndk1::vector<unsigned char, std::__ndk1::allocator<unsigned char> >, std::__ndk1::basic_string<char, std::__ndk1::char_traits<char>, std::__ndk1::allocator<char> > >, float>::setListener(geode::EventListenerProtocol*)::{lambda()#2}>, void ()>::operator()()
PUBLIC 65070 0 std::__ndk1::__function::__func<geode::Task<geode::Result<std::__ndk1::vector<unsigned char, std::__ndk1::allocator<unsigned char> >, std::__ndk1::basic_string<char, std::__ndk1::char_traits<char>, std::__ndk1::allocator<char> > >, float>::setListener(geode::EventListenerProtocol*)::{lambda()#2}, std::__ndk1::allocator<geode::Task<geode::Result<std::__ndk1::vector<unsigned char, std::__ndk1::allocator<unsigned char> >, std::__ndk1::basic_string<char, std::__ndk1::char_traits<char>, std::__ndk1::allocator<char> > >, float>::setListener(geode::EventListenerProtocol*)::{lambda()#2}>, void ()>::target(std::type_info const&) const
PUBLIC 6508c 0 std::__ndk1::__function::__func<geode::Task<geode::Result<std::__ndk1::vector<unsigned char, std::__ndk1::allocator<unsigned char> >, std::__ndk1::basic_string<char, std::__ndk1::char_traits<char>, std::__ndk1::allocator<char> > >, float>::setListener(geode::EventListenerProtocol*)::{lambda()#2}, std::__ndk1::allocator<geode::Task<geode::Result<std::__ndk1::vector<unsigned char, std::__ndk1::allocator<unsigned char> >, std::__ndk1::basic_string<char, std::__ndk1::char_traits<char>, std::__ndk1::allocator<char> > >, float>::setListener(geode::EventListenerProtocol*)::{lambda()#2}>, void ()>::target_type() const
PUBLIC 65098 0 geode::Task<geode::Result<std::__ndk1::vector<unsigned char, std::__ndk1::allocator<unsigned char> >, std::__ndk1::basic_string<char, std::__ndk1::char_traits<char>, std::__ndk1::allocator<char> > >, float>::setListener(geode::EventListenerProtocol*)::{lambda()#2}::operator()() const
PUBLIC 6525c 0 __cxx_global_var_init
PUBLIC 652bc 0 geode::modifier::ModifyBase<geode::modifier::ModifyDerive<JBMusicDownloadManager, MusicDownloadManager> >::~ModifyBase()
PUBLIC 652d8 0 jukebox::event::GetSongInfo::~GetSongInfo()
PUBLIC 6533c 0 jukebox::event::GetSongInfo::~GetSongInfo()
PUBLIC 653b0 0 geode::modifier::ModifyBase<geode::modifier::ModifyDerive<JBMusicDownloadManager, MusicDownloadManager> >::ModifyBase()
PUBLIC 657ac 0 geode::modifier::ModifyDerive<JBMusicDownloadManager, MusicDownloadManager>::apply()
PUBLIC 65e54 0 std::__ndk1::shared_ptr<geode::Hook>::~shared_ptr[abi:ne180000]()
PUBLIC 65ea4 0 geode::impl::ResultData<geode::Hook*, std::__ndk1::basic_string<char, std::__ndk1::char_traits<char>, std::__ndk1::allocator<char> > >::~ResultData()
PUBLIC 65f18 0 std::__ndk1::vector<std::__ndk1::basic_string<char, std::__ndk1::char_traits<char>, std::__ndk1::allocator<char> >, std::__ndk1::allocator<std::__ndk1::basic_string<char, std::__ndk1::char_traits<char>, std::__ndk1::allocator<char> > > >::~vector[abi:ne180000]()
PUBLIC 65f94 0 geode::modifier::ModifyBase<geode::modifier::ModifyDerive<JBMusicDownloadManager, MusicDownloadManager> >::apply()
PUBLIC 65f98 0 _ZN5geode15UnwrapExceptionC2IRPNS_4HookEQsr4implE18IsStringStreamableIT_EEENS_4impl5OkTagEOS5_
PUBLIC 660ec 0 std::__ndk1::vector<std::__ndk1::basic_string<char, std::__ndk1::char_traits<char>, std::__ndk1::allocator<char> >, std::__ndk1::allocator<std::__ndk1::basic_string<char, std::__ndk1::char_traits<char>, std::__ndk1::allocator<char> > > >::__push_back_slow_path<std::__ndk1::basic_string<char, std::__ndk1::char_traits<char>, std::__ndk1::allocator<char> > const&>(std::__ndk1::basic_string<char, std::__ndk1::char_traits<char>, std::__ndk1::allocator<char> > const&)
PUBLIC 66314 0 std::__ndk1::__split_buffer<std::__ndk1::basic_string<char, std::__ndk1::char_traits<char>, std::__ndk1::allocator<char> >, std::__ndk1::allocator<std::__ndk1::basic_string<char, std::__ndk1::char_traits<char>, std::__ndk1::allocator<char> > >&>::~__split_buffer()
PUBLIC 6637c 0 std::__ndk1::vector<std::__ndk1::basic_string<char, std::__ndk1::char_traits<char>, std::__ndk1::allocator<char> >, std::__ndk1::allocator<std::__ndk1::basic_string<char, std::__ndk1::char_traits<char>, std::__ndk1::allocator<char> > > >::__throw_length_error[abi:ne180000]() const
PUBLIC 66390 0 std::__ndk1::__variant_detail::__visitation::__base::__dispatcher<(unsigned long)0>::__dispatch[abi:ne180000]<std::__ndk1::__variant_detail::__dtor<std::__ndk1::__variant_detail::__traits<geode::Hook*, std::__ndk1::basic_string<char, std::__ndk1::char_traits<char>, std::__ndk1::allocator<char> > >, (std::__ndk1::__variant_detail::_Trait)1>::__destroy[abi:ne180000]()::{lambda(auto:1&)#1}, std::__ndk1::__variant_detail::__base<(std::__ndk1::__variant_detail::__traits<geode::Hook*, std::__ndk1::basic_string<char, std::__ndk1::char_traits<char>, std::__ndk1::allocator<char> > >)1, geode::Hook, std::__ndk1::allocator<char> >&>(std::__ndk1::__variant_detail::__dtor<std::__ndk1::__variant_detail::__traits<geode::Hook*, std::__ndk1::basic_string<char, std::__ndk1::char_traits<char>, std::__ndk1::allocator<char> > >, (std::__ndk1::__variant_detail::_Trait)1>, std::__ndk1::__variant_detail::__base<(std::__ndk1::__variant_detail::__traits<geode::Hook*, std::__ndk1::basic_string<char, std::__ndk1::char_traits<char>, std::__ndk1::allocator<char> > >)1, geode::Hook, std::__ndk1::allocator<char> >&)
PUBLIC 66394 0 std::__ndk1::__variant_detail::__visitation::__base::__dispatcher<(unsigned long)1>::__dispatch[abi:ne180000]<std::__ndk1::__variant_detail::__dtor<std::__ndk1::__variant_detail::__traits<geode::Hook*, std::__ndk1::basic_string<char, std::__ndk1::char_traits<char>, std::__ndk1::allocator<char> > >, (std::__ndk1::__variant_detail::_Trait)1>::__destroy[abi:ne180000]()::{lambda(auto:1&)#1}, std::__ndk1::__variant_detail::__base<(std::__ndk1::__variant_detail::__traits<geode::Hook*, std::__ndk1::basic_string<char, std::__ndk1::char_traits<char>, std::__ndk1::allocator<char> > >)1, geode::Hook, std::__ndk1::allocator<char> >&>(std::__ndk1::__variant_detail::__dtor<std::__ndk1::__variant_detail::__traits<geode::Hook*, std::__ndk1::basic_string<char, std::__ndk1::char_traits<char>, std::__ndk1::allocator<char> > >, (std::__ndk1::__variant_detail::_Trait)1>, std::__ndk1::__variant_detail::__base<(std::__ndk1::__variant_detail::__traits<geode::Hook*, std::__ndk1::basic_string<char, std::__ndk1::char_traits<char>, std::__ndk1::allocator<char> > >)1, geode::Hook, std::__ndk1::allocator<char> >&)
PUBLIC 663a8 0 std::__ndk1::__tree<std::__ndk1::__value_type<std::__ndk1::basic_string<char, std::__ndk1::char_traits<char>, std::__ndk1::allocator<char> >, std::__ndk1::shared_ptr<geode::Hook> >, std::__ndk1::__map_value_compare<std::__ndk1::basic_string<char, std::__ndk1::char_traits<char>, std::__ndk1::allocator<char> >, std::__ndk1::__value_type<std::__ndk1::basic_string<char, std::__ndk1::char_traits<char>, std::__ndk1::allocator<char> >, std::__ndk1::shared_ptr<geode::Hook> >, std::__ndk1::less<std::__ndk1::basic_string<char, std::__ndk1::char_traits<char>, std::__ndk1::allocator<char> > >, true>, std::__ndk1::allocator<std::__ndk1::__value_type<std::__ndk1::basic_string<char, std::__ndk1::char_traits<char>, std::__ndk1::allocator<char> >, std::__ndk1::shared_ptr<geode::Hook> > > >::find<std::__ndk1::basic_string<char, std::__ndk1::char_traits<char>, std::__ndk1::allocator<char> > >(std::__ndk1::basic_string<char, std::__ndk1::char_traits<char>, std::__ndk1::allocator<char> > const&)
PUBLIC 664c8 0 std::__ndk1::__tree<std::__ndk1::__value_type<std::__ndk1::basic_string<char, std::__ndk1::char_traits<char>, std::__ndk1::allocator<char> >, std::__ndk1::shared_ptr<geode::Hook> >, std::__ndk1::__map_value_compare<std::__ndk1::basic_string<char, std::__ndk1::char_traits<char>, std::__ndk1::allocator<char> >, std::__ndk1::__value_type<std::__ndk1::basic_string<char, std::__ndk1::char_traits<char>, std::__ndk1::allocator<char> >, std::__ndk1::shared_ptr<geode::Hook> >, std::__ndk1::less<std::__ndk1::basic_string<char, std::__ndk1::char_traits<char>, std::__ndk1::allocator<char> > >, true>, std::__ndk1::allocator<std::__ndk1::__value_type<std::__ndk1::basic_string<char, std::__ndk1::char_traits<char>, std::__ndk1::allocator<char> >, std::__ndk1::shared_ptr<geode::Hook> > > >::erase(std::__ndk1::__tree_const_iterator<std::__ndk1::__value_type<std::__ndk1::basic_string<char, std::__ndk1::char_traits<char>, std::__ndk1::allocator<char> >, std::__ndk1::shared_ptr<geode::Hook> >, std::__ndk1::__tree_node<std::__ndk1::__value_type<std::__ndk1::basic_string<char, std::__ndk1::char_traits<char>, std::__ndk1::allocator<char> >, std::__ndk1::shared_ptr<geode::Hook> >, void*>*, long>)
PUBLIC 6659c 0 std::__ndk1::__tree_remove[abi:ne180000]<std::__ndk1::__tree_node_base<void*>*>(std::__ndk1::__tree_node_base<void*>*, std::__ndk1::__tree_node_base<void*>*)
PUBLIC 66964 0 std::__ndk1::__tree<std::__ndk1::__value_type<std::__ndk1::basic_string<char, std::__ndk1::char_traits<char>, std::__ndk1::allocator<char> >, std::__ndk1::shared_ptr<geode::Hook> >, std::__ndk1::__map_value_compare<std::__ndk1::basic_string<char, std::__ndk1::char_traits<char>, std::__ndk1::allocator<char> >, std::__ndk1::__value_type<std::__ndk1::basic_string<char, std::__ndk1::char_traits<char>, std::__ndk1::allocator<char> >, std::__ndk1::shared_ptr<geode::Hook> >, std::__ndk1::less<std::__ndk1::basic_string<char, std::__ndk1::char_traits<char>, std::__ndk1::allocator<char> > >, true>, std::__ndk1::allocator<std::__ndk1::__value_type<std::__ndk1::basic_string<char, std::__ndk1::char_traits<char>, std::__ndk1::allocator<char> >, std::__ndk1::shared_ptr<geode::Hook> > > >::destroy(std::__ndk1::__tree_node<std::__ndk1::__value_type<std::__ndk1::basic_string<char, std::__ndk1::char_traits<char>, std::__ndk1::allocator<char> >, std::__ndk1::shared_ptr<geode::Hook> >, void*>*)
PUBLIC 669f0 0 geode::Hook::create<SongInfoObject* (*)(JBMusicDownloadManager*, int)>(void*, SongInfoObject* (*)(JBMusicDownloadManager*, int), std::__ndk1::basic_string<char, std::__ndk1::char_traits<char>, std::__ndk1::allocator<char> > const&, tulip::hook::TulipConvention, tulip::hook::HookMetadata const&)
PUBLIC 66b74 0 geode::modifier::AsStaticFunction_getSongInfoObject<JBMusicDownloadManager, SongInfoObject* (JBMusicDownloadManager::*)(int)>::Impl<SongInfoObject* (JBMusicDownloadManager::*)(int)>::function(JBMusicDownloadManager*, int)
PUBLIC 66b78 0 geode::Hook::create<void (*)(JBMusicDownloadManager*, gd::string, gd::string)>(void*, void (*)(JBMusicDownloadManager*, gd::string, gd::string), std::__ndk1::basic_string<char, std::__ndk1::char_traits<char>, std::__ndk1::allocator<char> > const&, tulip::hook::TulipConvention, tulip::hook::HookMetadata const&)
PUBLIC 66c90 0 geode::modifier::AsStaticFunction_onGetSongInfoCompleted<JBMusicDownloadManager, void (JBMusicDownloadManager::*)(gd::string, gd::string)>::Impl<void (JBMusicDownloadManager::*)(gd::string, gd::string)>::function(JBMusicDownloadManager*, gd::string, gd::string)
PUBLIC 66d48 0 geode::Hook::create<gd::string (*)(JBMusicDownloadManager*, int)>(void*, gd::string (*)(JBMusicDownloadManager*, int), std::__ndk1::basic_string<char, std::__ndk1::char_traits<char>, std::__ndk1::allocator<char> > const&, tulip::hook::TulipConvention, tulip::hook::HookMetadata const&)
PUBLIC 66ecc 0 geode::modifier::AsStaticFunction_pathForSong<JBMusicDownloadManager, gd::string (JBMusicDownloadManager::*)(int)>::Impl<gd::string (JBMusicDownloadManager::*)(int)>::function(JBMusicDownloadManager*, int)
PUBLIC 66ed0 0 std::__ndk1::shared_ptr<tulip::hook::CallingConvention>::~shared_ptr[abi:ne180000]()
PUBLIC 66f20 0 tulip::hook::HandlerMetadata::~HandlerMetadata()
PUBLIC 66f84 0 std::__ndk1::vector<tulip::hook::AbstractType, std::__ndk1::allocator<tulip::hook::AbstractType> >::__throw_length_error[abi:ne180000]() const
PUBLIC 66f98 0 std::__ndk1::__tree<std::__ndk1::__value_type<std::__ndk1::basic_string<char, std::__ndk1::char_traits<char>, std::__ndk1::allocator<char> >, std::__ndk1::shared_ptr<geode::Hook> >, std::__ndk1::__map_value_compare<std::__ndk1::basic_string<char, std::__ndk1::char_traits<char>, std::__ndk1::allocator<char> >, std::__ndk1::__value_type<std::__ndk1::basic_string<char, std::__ndk1::char_traits<char>, std::__ndk1::allocator<char> >, std::__ndk1::shared_ptr<geode::Hook> >, std::__ndk1::less<std::__ndk1::basic_string<char, std::__ndk1::char_traits<char>, std::__ndk1::allocator<char> > >, true>, std::__ndk1::allocator<std::__ndk1::__value_type<std::__ndk1::basic_string<char, std::__ndk1::char_traits<char>, std::__ndk1::allocator<char> >, std::__ndk1::shared_ptr<geode::Hook> > > >::__emplace_unique_key_args<std::__ndk1::basic_string<char, std::__ndk1::char_traits<char>, std::__ndk1::allocator<char> >, std::__ndk1::piecewise_construct_t const&, std::__ndk1::tuple<std::__ndk1::basic_string<char, std::__ndk1::char_traits<char>, std::__ndk1::allocator<char> >&&>, std::__ndk1::tuple<> >(std::__ndk1::basic_string<char, std::__ndk1::char_traits<char>, std::__ndk1::allocator<char> > const&, std::__ndk1::piecewise_construct_t const&, std::__ndk1::tuple<std::__ndk1::basic_string<char, std::__ndk1::char_traits<char>, std::__ndk1::allocator<char> >&&>, std::__ndk1::tuple<>)
PUBLIC 67110 0 std::__ndk1::__tree_balance_after_insert[abi:ne180000]<std::__ndk1::__tree_node_base<void*>*>(std::__ndk1::__tree_node_base<void*>*, std::__ndk1::__tree_node_base<void*>*)
PUBLIC 672c0 0 tulip::hook::AbstractFunction::from<void, JBMusicDownloadManager*, gd::string, gd::string>(void (*)(JBMusicDownloadManager*, gd::string, gd::string))
PUBLIC 673cc 0 jukebox::event::ManualSongAdded::~ManualSongAdded()
PUBLIC 673f0 0 jukebox::event::NongDeleted::~NongDeleted()
PUBLIC 67430 0 jukebox::event::NongDeleted::~NongDeleted()
PUBLIC 67474 0 jukebox::event::SongDownloadFailed::~SongDownloadFailed()
PUBLIC 674cc 0 jukebox::event::SongDownloadFailed::~SongDownloadFailed()
PUBLIC 67534 0 jukebox::event::SongDownloadFinished::~SongDownloadFinished()
PUBLIC 67558 0 jukebox::event::SongDownloadProgress::~SongDownloadProgress()
PUBLIC 6758c 0 jukebox::event::SongDownloadProgress::~SongDownloadProgress()
PUBLIC 675c4 0 jukebox::event::SongError::~SongError()
PUBLIC 675f8 0 jukebox::event::SongError::~SongError()
PUBLIC 67630 0 jukebox::event::SongStateChanged::~SongStateChanged()
PUBLIC 67654 0 jukebox::event::StartDownload::~StartDownload()
PUBLIC 67678 0 __cxx_global_var_init.1
PUBLIC 67af8 0 geode::modifier::ModifyBase<geode::modifier::ModifyDerive<JBSongWidget, CustomSongWidget> >::~ModifyBase()
PUBLIC 67b14 0 __cxx_global_var_init.2
PUBLIC 67f94 0 geode::modifier::ModifyBase<geode::modifier::ModifyDerive<JBLevelInfoLayer, LevelInfoLayer> >::~ModifyBase()
PUBLIC 67fb0 0 geode::modifier::ModifyDerive<JBSongWidget, CustomSongWidget>::apply()
PUBLIC 6977c 0 geode::modifier::ModifyBase<geode::modifier::ModifyDerive<JBSongWidget, CustomSongWidget> >::apply()
PUBLIC 69780 0 geode::modifier::AsStaticFunction_init<JBSongWidget, bool (JBSongWidget::*)(SongInfoObject*, CustomSongDelegate*, bool, bool, bool, bool, bool, bool, int)>::Impl<bool (JBSongWidget::*)(SongInfoObject*, CustomSongDelegate*, bool, bool, bool, bool, bool, bool, int)>::function(JBSongWidget*, SongInfoObject*, CustomSongDelegate*, bool, bool, bool, bool, bool, bool, int)
PUBLIC 69a78 0 geode::modifier::AsStaticFunction_onDelete<JBSongWidget, void (JBSongWidget::*)(cocos2d::CCObject*)>::Impl<void (JBSongWidget::*)(cocos2d::CCObject*)>::function(JBSongWidget*, cocos2d::CCObject*)
PUBLIC 69c4c 0 geode::modifier::AsStaticFunction_updateMultiAssetInfo<JBSongWidget, void (JBSongWidget::*)(bool)>::Impl<void (JBSongWidget::*)(bool)>::function(JBSongWidget*, bool)
PUBLIC 69c70 0 geode::modifier::AsStaticFunction_updateSongInfo<JBSongWidget, void (JBSongWidget::*)()>::Impl<void (JBSongWidget::*)()>::function(JBSongWidget*)
PUBLIC 69c74 0 geode::modifier::AsStaticFunction_updateWithMultiAssets<JBSongWidget, void (JBSongWidget::*)(gd::string, gd::string, int)>::Impl<void (JBSongWidget::*)(gd::string, gd::string, int)>::function(JBSongWidget*, gd::string, gd::string, int)
PUBLIC 69fb4 0 JBSongWidget::setupJBSW()
PUBLIC 6a67c 0 jukebox::NongManager::NongManager()
PUBLIC 6a7b4 0 jukebox::NongManager::~NongManager()
PUBLIC 6a8e0 0 geode::EventListener<geode::EventFilter<jukebox::event::SongError> >::~EventListener()
PUBLIC 6a93c 0 jukebox::Manifest::~Manifest()
PUBLIC 6a9d8 0 geode::EventListener<geode::EventFilter<jukebox::event::SongError> >::getPool() const
PUBLIC 6a9dc 0 geode::EventListener<geode::EventFilter<jukebox::event::SongError> >::handle(geode::Event*)
PUBLIC 6ab7c 0 geode::EventListener<geode::EventFilter<jukebox::event::SongError> >::~EventListener()
PUBLIC 6abe0 0 geode::EventListener<geode::EventFilter<jukebox::event::GetSongInfo> >::getPool() const
PUBLIC 6abe4 0 geode::EventListener<geode::EventFilter<jukebox::event::GetSongInfo> >::handle(geode::Event*)
PUBLIC 6ad84 0 geode::EventListener<geode::EventFilter<jukebox::event::GetSongInfo> >::~EventListener()
PUBLIC 6ade0 0 geode::EventListener<geode::EventFilter<jukebox::event::GetSongInfo> >::~EventListener()
PUBLIC 6ae44 0 std::__ndk1::__throw_bad_optional_access[abi:ne180000]()
PUBLIC 6ae78 0 JBSongWidget::restoreUI()
PUBLIC 6af58 0 JBSongWidget::getMultiAssetSongInfo()
PUBLIC 6b8a4 0 geode::impl::ResultData<jukebox::Nongs*, std::__ndk1::basic_string<char, std::__ndk1::char_traits<char>, std::__ndk1::allocator<char> > >::~ResultData()
PUBLIC 6b918 0 JBSongWidget::createSongLabels(jukebox::Nongs*)
PUBLIC 6ca84 0 std::__ndk1::__variant_detail::__visitation::__base::__dispatcher<(unsigned long)0>::__dispatch[abi:ne180000]<std::__ndk1::__variant_detail::__dtor<std::__ndk1::__variant_detail::__traits<jukebox::Nongs*, std::__ndk1::basic_string<char, std::__ndk1::char_traits<char>, std::__ndk1::allocator<char> > >, (std::__ndk1::__variant_detail::_Trait)1>::__destroy[abi:ne180000]()::{lambda(auto:1&)#1}, std::__ndk1::__variant_detail::__base<(std::__ndk1::__variant_detail::__traits<jukebox::Nongs*, std::__ndk1::basic_string<char, std::__ndk1::char_traits<char>, std::__ndk1::allocator<char> > >)1, jukebox::Nongs, std::__ndk1::allocator<char> >&>(std::__ndk1::__variant_detail::__dtor<std::__ndk1::__variant_detail::__traits<jukebox::Nongs*, std::__ndk1::basic_string<char, std::__ndk1::char_traits<char>, std::__ndk1::allocator<char> > >, (std::__ndk1::__variant_detail::_Trait)1>, std::__ndk1::__variant_detail::__base<(std::__ndk1::__variant_detail::__traits<jukebox::Nongs*, std::__ndk1::basic_string<char, std::__ndk1::char_traits<char>, std::__ndk1::allocator<char> > >)1, jukebox::Nongs, std::__ndk1::allocator<char> >&)
PUBLIC 6ca88 0 std::__ndk1::__variant_detail::__visitation::__base::__dispatcher<(unsigned long)1>::__dispatch[abi:ne180000]<std::__ndk1::__variant_detail::__dtor<std::__ndk1::__variant_detail::__traits<jukebox::Nongs*, std::__ndk1::basic_string<char, std::__ndk1::char_traits<char>, std::__ndk1::allocator<char> > >, (std::__ndk1::__variant_detail::_Trait)1>::__destroy[abi:ne180000]()::{lambda(auto:1&)#1}, std::__ndk1::__variant_detail::__base<(std::__ndk1::__variant_detail::__traits<jukebox::Nongs*, std::__ndk1::basic_string<char, std::__ndk1::char_traits<char>, std::__ndk1::allocator<char> > >)1, jukebox::Nongs, std::__ndk1::allocator<char> >&>(std::__ndk1::__variant_detail::__dtor<std::__ndk1::__variant_detail::__traits<jukebox::Nongs*, std::__ndk1::basic_string<char, std::__ndk1::char_traits<char>, std::__ndk1::allocator<char> > >, (std::__ndk1::__variant_detail::_Trait)1>, std::__ndk1::__variant_detail::__base<(std::__ndk1::__variant_detail::__traits<jukebox::Nongs*, std::__ndk1::basic_string<char, std::__ndk1::char_traits<char>, std::__ndk1::allocator<char> > >)1, jukebox::Nongs, std::__ndk1::allocator<char> >&)
PUBLIC 6ca9c 0 geode::Mod::getSettingValue<bool>(std::__ndk1::basic_string_view<char, std::__ndk1::char_traits<char> >) const
PUBLIC 6cbd0 0 JBSongWidget::addNongLayer(cocos2d::CCObject*)
PUBLIC 6d57c 0 std::__ndk1::vector<int, std::__ndk1::allocator<int> >::__throw_length_error[abi:ne180000]() const
PUBLIC 6d590 0 geode::Ref<CustomSongWidget>::~Ref()
PUBLIC 6d5ac 0 cocos2d::CCCopying::copyWithZone(cocos2d::CCZone*)
PUBLIC 6d5b4 0 geode::Popup<std::__ndk1::vector<int, std::__ndk1::allocator<int> >, CustomSongWidget*, int>::~Popup()
PUBLIC 6d620 0 geode::Popup<std::__ndk1::vector<int, std::__ndk1::allocator<int> >, CustomSongWidget*, int>::~Popup()
PUBLIC 6d624 0 geode::Popup<std::__ndk1::vector<int, std::__ndk1::allocator<int> >, CustomSongWidget*, int>::registerWithTouchDispatcher()
PUBLIC 6d650 0 geode::Popup<std::__ndk1::vector<int, std::__ndk1::allocator<int> >, CustomSongWidget*, int>::keyDown(cocos2d::enumKeyCodes)
PUBLIC 6d678 0 cocos2d::CCLayerRGBA::setOpacityModifyRGB(bool)
PUBLIC 6d67c 0 cocos2d::CCLayerRGBA::isOpacityModifyRGB()
PUBLIC 6d684 0 geode::Popup<std::__ndk1::vector<int, std::__ndk1::allocator<int> >, CustomSongWidget*, int>::onClose(cocos2d::CCObject*)
PUBLIC 6d7cc 0 {virtual override thunk({offset(-320)}, geode::Popup<std::__ndk1::vector<int, std::__ndk1::allocator<int> >, CustomSongWidget*, int>::~Popup())}
PUBLIC 6d838 0 {virtual override thunk({offset(-320)}, geode::Popup<std::__ndk1::vector<int, std::__ndk1::allocator<int> >, CustomSongWidget*, int>::~Popup())}
PUBLIC 6d83c 0 {virtual override thunk({offset(-344)}, geode::Popup<std::__ndk1::vector<int, std::__ndk1::allocator<int> >, CustomSongWidget*, int>::keyDown(cocos2d::enumKeyCodes))}
PUBLIC 6d868 0 cocos2d::CCKeyboardDelegate::keyUp(cocos2d::enumKeyCodes)
PUBLIC 6d86c 0 cocos2d::CCMouseDelegate::rightKeyDown()
PUBLIC 6d870 0 cocos2d::CCMouseDelegate::rightKeyUp()
PUBLIC 6d874 0 cocos2d::CCMouseDelegate::scrollWheel(float, float)
PUBLIC 6d878 0 {virtual override thunk({offset(-408)}, cocos2d::CCLayerRGBA::setOpacityModifyRGB(bool))}
PUBLIC 6d87c 0 {virtual override thunk({offset(-408)}, cocos2d::CCLayerRGBA::isOpacityModifyRGB())}
PUBLIC 6d884 0 geode::Popup<std::__ndk1::vector<int, std::__ndk1::allocator<int> >, CustomSongWidget*, int>::CloseEvent::~CloseEvent()
PUBLIC 6d8e4 0 geode::Popup<std::__ndk1::vector<int, std::__ndk1::allocator<int> >, CustomSongWidget*, int>::CloseEvent::~CloseEvent()
PUBLIC 6d954 0 std::__ndk1::__shared_ptr_emplace<geode::Popup<std::__ndk1::vector<int, std::__ndk1::allocator<int> >, CustomSongWidget*, int>::CloseEvent::Impl, std::__ndk1::allocator<geode::Popup<std::__ndk1::vector<int, std::__ndk1::allocator<int> >, CustomSongWidget*, int>::CloseEvent::Impl> >::~__shared_ptr_emplace()
PUBLIC 6d964 0 std::__ndk1::__shared_ptr_emplace<geode::Popup<std::__ndk1::vector<int, std::__ndk1::allocator<int> >, CustomSongWidget*, int>::CloseEvent::Impl, std::__ndk1::allocator<geode::Popup<std::__ndk1::vector<int, std::__ndk1::allocator<int> >, CustomSongWidget*, int>::CloseEvent::Impl> >::~__shared_ptr_emplace()
PUBLIC 6d994 0 std::__ndk1::__shared_ptr_emplace<geode::Popup<std::__ndk1::vector<int, std::__ndk1::allocator<int> >, CustomSongWidget*, int>::CloseEvent::Impl, std::__ndk1::allocator<geode::Popup<std::__ndk1::vector<int, std::__ndk1::allocator<int> >, CustomSongWidget*, int>::CloseEvent::Impl> >::__on_zero_shared()
PUBLIC 6d998 0 std::__ndk1::__shared_ptr_emplace<geode::Popup<std::__ndk1::vector<int, std::__ndk1::allocator<int> >, CustomSongWidget*, int>::CloseEvent::Impl, std::__ndk1::allocator<geode::Popup<std::__ndk1::vector<int, std::__ndk1::allocator<int> >, CustomSongWidget*, int>::CloseEvent::Impl> >::__on_zero_shared_weak()
PUBLIC 6d99c 0 geode::EventListener<geode::EventFilter<jukebox::event::SongDownloadFailed> >::getPool() const
PUBLIC 6d9a0 0 geode::EventListener<geode::EventFilter<jukebox::event::SongDownloadFailed> >::handle(geode::Event*)
PUBLIC 6db40 0 geode::EventListener<geode::EventFilter<jukebox::event::SongDownloadFailed> >::~EventListener()
PUBLIC 6db9c 0 geode::EventListener<geode::EventFilter<jukebox::event::SongDownloadFailed> >::~EventListener()
PUBLIC 6dc00 0 std::__ndk1::__throw_out_of_range[abi:ne180000](char const*)
PUBLIC 6dc50 0 std::out_of_range::out_of_range[abi:ne180000](char const*)
PUBLIC 6dc80 0 geode::modifier::FieldIntermediate<JBSongWidget, CustomSongWidget>::self()
PUBLIC 6df28 0 geode::modifier::FieldContainer::getField(unsigned long)
PUBLIC 6e1e0 0 geode::modifier::FieldContainer::setField(unsigned long, unsigned long, std::__ndk1::function<void (void*)>)
PUBLIC 6e2f4 0 geode::modifier::FieldIntermediate<JBSongWidget, CustomSongWidget>::fieldDestructor(void*)
PUBLIC 6e40c 0 std::__ndk1::vector<void*, std::__ndk1::allocator<void*> >::__throw_length_error[abi:ne180000]() const
PUBLIC 6e420 0 std::__ndk1::vector<std::__ndk1::function<void (void*)>, std::__ndk1::allocator<std::__ndk1::function<void (void*)> > >::__push_back_slow_path<std::__ndk1::function<void (void*)> >(std::__ndk1::function<void (void*)>&&)
PUBLIC 6e64c 0 std::__ndk1::vector<std::__ndk1::function<void (void*)>, std::__ndk1::allocator<std::__ndk1::function<void (void*)> > >::__throw_length_error[abi:ne180000]() const
PUBLIC 6e660 0 std::__ndk1::vector<void*, std::__ndk1::allocator<void*> >::__throw_out_of_range[abi:ne180000]() const
PUBLIC 6e674 0 std::__ndk1::vector<std::__ndk1::function<void (void*)>, std::__ndk1::allocator<std::__ndk1::function<void (void*)> > >::__throw_out_of_range[abi:ne180000]() const
PUBLIC 6e688 0 geode::EventListener<geode::Task<std::__ndk1::basic_string<char, std::__ndk1::char_traits<char>, std::__ndk1::allocator<char> >, std::__ndk1::monostate> >::~EventListener()
PUBLIC 6e724 0 std::__ndk1::unordered_map<int, jukebox::Nongs*, std::__ndk1::hash<int>, std::__ndk1::equal_to<int>, std::__ndk1::allocator<std::__ndk1::pair<int const, jukebox::Nongs*> > >::~unordered_map[abi:ne180000]()
PUBLIC 6e770 0 geode::Task<std::__ndk1::basic_string<char, std::__ndk1::char_traits<char>, std::__ndk1::allocator<char> >, std::__ndk1::monostate>::~Task()
PUBLIC 6e7c0 0 geode::EventListener<geode::Task<std::__ndk1::basic_string<char, std::__ndk1::char_traits<char>, std::__ndk1::allocator<char> >, std::__ndk1::monostate> >::getPool() const
PUBLIC 6e7c4 0 geode::EventListener<geode::Task<std::__ndk1::basic_string<char, std::__ndk1::char_traits<char>, std::__ndk1::allocator<char> >, std::__ndk1::monostate> >::handle(geode::Event*)
PUBLIC 6e990 0 geode::EventListener<geode::Task<std::__ndk1::basic_string<char, std::__ndk1::char_traits<char>, std::__ndk1::allocator<char> >, std::__ndk1::monostate> >::~EventListener()
PUBLIC 6ea34 0 std::__ndk1::__function::__base<void (void*)>::~__base()
PUBLIC 6ea38 0 std::__ndk1::__function::__func<void (*)(void*), std::__ndk1::allocator<void (*)(void*)>, void (void*)>::~__func()
PUBLIC 6ea3c 0 std::__ndk1::__function::__func<void (*)(void*), std::__ndk1::allocator<void (*)(void*)>, void (void*)>::__clone() const
PUBLIC 6ea74 0 std::__ndk1::__function::__func<void (*)(void*), std::__ndk1::allocator<void (*)(void*)>, void (void*)>::__clone(std::__ndk1::__function::__base<void (void*)>*) const
PUBLIC 6ea8c 0 std::__ndk1::__function::__func<void (*)(void*), std::__ndk1::allocator<void (*)(void*)>, void (void*)>::destroy()
PUBLIC 6ea90 0 std::__ndk1::__function::__func<void (*)(void*), std::__ndk1::allocator<void (*)(void*)>, void (void*)>::destroy_deallocate()
PUBLIC 6ea94 0 std::__ndk1::__function::__func<void (*)(void*), std::__ndk1::allocator<void (*)(void*)>, void (void*)>::operator()(void*&&)
PUBLIC 6eaa4 0 std::__ndk1::__function::__func<void (*)(void*), std::__ndk1::allocator<void (*)(void*)>, void (void*)>::target(std::type_info const&) const
PUBLIC 6eac0 0 std::__ndk1::__function::__func<void (*)(void*), std::__ndk1::allocator<void (*)(void*)>, void (void*)>::target_type() const
PUBLIC 6eacc 0 geode::Task<std::__ndk1::basic_string<char, std::__ndk1::char_traits<char>, std::__ndk1::allocator<char> >, std::__ndk1::monostate>::setListener(geode::EventListenerProtocol*)
PUBLIC 6ecd0 0 geode::Task<std::__ndk1::basic_string<char, std::__ndk1::char_traits<char>, std::__ndk1::allocator<char> >, std::__ndk1::monostate>::setListener(geode::EventListenerProtocol*)::{lambda()#1}::~{lambda()#1}()
PUBLIC 6ed20 0 geode::Task<std::__ndk1::basic_string<char, std::__ndk1::char_traits<char>, std::__ndk1::allocator<char> >, std::__ndk1::monostate>::setListener(geode::EventListenerProtocol*)::{lambda()#2}::~{lambda()#2}()
PUBLIC 6ed70 0 std::__ndk1::__function::__func<geode::Task<std::__ndk1::basic_string<char, std::__ndk1::char_traits<char>, std::__ndk1::allocator<char> >, std::__ndk1::monostate>::setListener(geode::EventListenerProtocol*)::{lambda()#1}, std::__ndk1::allocator<geode::Task<std::__ndk1::basic_string<char, std::__ndk1::char_traits<char>, std::__ndk1::allocator<char> >, std::__ndk1::monostate>::setListener(geode::EventListenerProtocol*)::{lambda()#1}>, void ()>::~__func()
PUBLIC 6edcc 0 std::__ndk1::__function::__func<geode::Task<std::__ndk1::basic_string<char, std::__ndk1::char_traits<char>, std::__ndk1::allocator<char> >, std::__ndk1::monostate>::setListener(geode::EventListenerProtocol*)::{lambda()#1}, std::__ndk1::allocator<geode::Task<std::__ndk1::basic_string<char, std::__ndk1::char_traits<char>, std::__ndk1::allocator<char> >, std::__ndk1::monostate>::setListener(geode::EventListenerProtocol*)::{lambda()#1}>, void ()>::~__func()
PUBLIC 6ee38 0 std::__ndk1::__function::__func<geode::Task<std::__ndk1::basic_string<char, std::__ndk1::char_traits<char>, std::__ndk1::allocator<char> >, std::__ndk1::monostate>::setListener(geode::EventListenerProtocol*)::{lambda()#1}, std::__ndk1::allocator<geode::Task<std::__ndk1::basic_string<char, std::__ndk1::char_traits<char>, std::__ndk1::allocator<char> >, std::__ndk1::monostate>::setListener(geode::EventListenerProtocol*)::{lambda()#1}>, void ()>::__clone() const
PUBLIC 6ee90 0 std::__ndk1::__function::__func<geode::Task<std::__ndk1::basic_string<char, std::__ndk1::char_traits<char>, std::__ndk1::allocator<char> >, std::__ndk1::monostate>::setListener(geode::EventListenerProtocol*)::{lambda()#1}, std::__ndk1::allocator<geode::Task<std::__ndk1::basic_string<char, std::__ndk1::char_traits<char>, std::__ndk1::allocator<char> >, std::__ndk1::monostate>::setListener(geode::EventListenerProtocol*)::{lambda()#1}>, void ()>::__clone(std::__ndk1::__function::__base<void ()>*) const
PUBLIC 6eedc 0 std::__ndk1::__function::__func<geode::Task<std::__ndk1::basic_string<char, std::__ndk1::char_traits<char>, std::__ndk1::allocator<char> >, std::__ndk1::monostate>::setListener(geode::EventListenerProtocol*)::{lambda()#1}, std::__ndk1::allocator<geode::Task<std::__ndk1::basic_string<char, std::__ndk1::char_traits<char>, std::__ndk1::allocator<char> >, std::__ndk1::monostate>::setListener(geode::EventListenerProtocol*)::{lambda()#1}>, void ()>::destroy()
PUBLIC 6ef2c 0 std::__ndk1::__function::__func<geode::Task<std::__ndk1::basic_string<char, std::__ndk1::char_traits<char>, std::__ndk1::allocator<char> >, std::__ndk1::monostate>::setListener(geode::EventListenerProtocol*)::{lambda()#1}, std::__ndk1::allocator<geode::Task<std::__ndk1::basic_string<char, std::__ndk1::char_traits<char>, std::__ndk1::allocator<char> >, std::__ndk1::monostate>::setListener(geode::EventListenerProtocol*)::{lambda()#1}>, void ()>::destroy_deallocate()
PUBLIC 6ef8c 0 std::__ndk1::__function::__func<geode::Task<std::__ndk1::basic_string<char, std::__ndk1::char_traits<char>, std::__ndk1::allocator<char> >, std::__ndk1::monostate>::setListener(geode::EventListenerProtocol*)::{lambda()#1}, std::__ndk1::allocator<geode::Task<std::__ndk1::basic_string<char, std::__ndk1::char_traits<char>, std::__ndk1::allocator<char> >, std::__ndk1::monostate>::setListener(geode::EventListenerProtocol*)::{lambda()#1}>, void ()>::operator()()
PUBLIC 6f15c 0 std::__ndk1::__function::__func<geode::Task<std::__ndk1::basic_string<char, std::__ndk1::char_traits<char>, std::__ndk1::allocator<char> >, std::__ndk1::monostate>::setListener(geode::EventListenerProtocol*)::{lambda()#1}, std::__ndk1::allocator<geode::Task<std::__ndk1::basic_string<char, std::__ndk1::char_traits<char>, std::__ndk1::allocator<char> >, std::__ndk1::monostate>::setListener(geode::EventListenerProtocol*)::{lambda()#1}>, void ()>::target(std::type_info const&) const
PUBLIC 6f178 0 std::__ndk1::__function::__func<geode::Task<std::__ndk1::basic_string<char, std::__ndk1::char_traits<char>, std::__ndk1::allocator<char> >, std::__ndk1::monostate>::setListener(geode::EventListenerProtocol*)::{lambda()#1}, std::__ndk1::allocator<geode::Task<std::__ndk1::basic_string<char, std::__ndk1::char_traits<char>, std::__ndk1::allocator<char> >, std::__ndk1::monostate>::setListener(geode::EventListenerProtocol*)::{lambda()#1}>, void ()>::target_type() const
PUBLIC 6f184 0 geode::Task<std::__ndk1::basic_string<char, std::__ndk1::char_traits<char>, std::__ndk1::allocator<char> >, std::__ndk1::monostate>::Event::~Event()
PUBLIC 6f1e4 0 geode::Task<std::__ndk1::basic_string<char, std::__ndk1::char_traits<char>, std::__ndk1::allocator<char> >, std::__ndk1::monostate>::Event::~Event()
PUBLIC 6f254 0 std::__ndk1::__function::__func<geode::Task<std::__ndk1::basic_string<char, std::__ndk1::char_traits<char>, std::__ndk1::allocator<char> >, std::__ndk1::monostate>::setListener(geode::EventListenerProtocol*)::{lambda()#2}, std::__ndk1::allocator<geode::Task<std::__ndk1::basic_string<char, std::__ndk1::char_traits<char>, std::__ndk1::allocator<char> >, std::__ndk1::monostate>::setListener(geode::EventListenerProtocol*)::{lambda()#2}>, void ()>::~__func()
PUBLIC 6f2b0 0 std::__ndk1::__function::__func<geode::Task<std::__ndk1::basic_string<char, std::__ndk1::char_traits<char>, std::__ndk1::allocator<char> >, std::__ndk1::monostate>::setListener(geode::EventListenerProtocol*)::{lambda()#2}, std::__ndk1::allocator<geode::Task<std::__ndk1::basic_string<char, std::__ndk1::char_traits<char>, std::__ndk1::allocator<char> >, std::__ndk1::monostate>::setListener(geode::EventListenerProtocol*)::{lambda()#2}>, void ()>::~__func()
PUBLIC 6f31c 0 std::__ndk1::__function::__func<geode::Task<std::__ndk1::basic_string<char, std::__ndk1::char_traits<char>, std::__ndk1::allocator<char> >, std::__ndk1::monostate>::setListener(geode::EventListenerProtocol*)::{lambda()#2}, std::__ndk1::allocator<geode::Task<std::__ndk1::basic_string<char, std::__ndk1::char_traits<char>, std::__ndk1::allocator<char> >, std::__ndk1::monostate>::setListener(geode::EventListenerProtocol*)::{lambda()#2}>, void ()>::__clone() const
PUBLIC 6f374 0 std::__ndk1::__function::__func<geode::Task<std::__ndk1::basic_string<char, std::__ndk1::char_traits<char>, std::__ndk1::allocator<char> >, std::__ndk1::monostate>::setListener(geode::EventListenerProtocol*)::{lambda()#2}, std::__ndk1::allocator<geode::Task<std::__ndk1::basic_string<char, std::__ndk1::char_traits<char>, std::__ndk1::allocator<char> >, std::__ndk1::monostate>::setListener(geode::EventListenerProtocol*)::{lambda()#2}>, void ()>::__clone(std::__ndk1::__function::__base<void ()>*) const
PUBLIC 6f3c0 0 std::__ndk1::__function::__func<geode::Task<std::__ndk1::basic_string<char, std::__ndk1::char_traits<char>, std::__ndk1::allocator<char> >, std::__ndk1::monostate>::setListener(geode::EventListenerProtocol*)::{lambda()#2}, std::__ndk1::allocator<geode::Task<std::__ndk1::basic_string<char, std::__ndk1::char_traits<char>, std::__ndk1::allocator<char> >, std::__ndk1::monostate>::setListener(geode::EventListenerProtocol*)::{lambda()#2}>, void ()>::destroy()
PUBLIC 6f410 0 std::__ndk1::__function::__func<geode::Task<std::__ndk1::basic_string<char, std::__ndk1::char_traits<char>, std::__ndk1::allocator<char> >, std::__ndk1::monostate>::setListener(geode::EventListenerProtocol*)::{lambda()#2}, std::__ndk1::allocator<geode::Task<std::__ndk1::basic_string<char, std::__ndk1::char_traits<char>, std::__ndk1::allocator<char> >, std::__ndk1::monostate>::setListener(geode::EventListenerProtocol*)::{lambda()#2}>, void ()>::destroy_deallocate()
PUBLIC 6f470 0 std::__ndk1::__function::__func<geode::Task<std::__ndk1::basic_string<char, std::__ndk1::char_traits<char>, std::__ndk1::allocator<char> >, std::__ndk1::monostate>::setListener(geode::EventListenerProtocol*)::{lambda()#2}, std::__ndk1::allocator<geode::Task<std::__ndk1::basic_string<char, std::__ndk1::char_traits<char>, std::__ndk1::allocator<char> >, std::__ndk1::monostate>::setListener(geode::EventListenerProtocol*)::{lambda()#2}>, void ()>::operator()()
PUBLIC 6f634 0 std::__ndk1::__function::__func<geode::Task<std::__ndk1::basic_string<char, std::__ndk1::char_traits<char>, std::__ndk1::allocator<char> >, std::__ndk1::monostate>::setListener(geode::EventListenerProtocol*)::{lambda()#2}, std::__ndk1::allocator<geode::Task<std::__ndk1::basic_string<char, std::__ndk1::char_traits<char>, std::__ndk1::allocator<char> >, std::__ndk1::monostate>::setListener(geode::EventListenerProtocol*)::{lambda()#2}>, void ()>::target(std::type_info const&) const
PUBLIC 6f650 0 std::__ndk1::__function::__func<geode::Task<std::__ndk1::basic_string<char, std::__ndk1::char_traits<char>, std::__ndk1::allocator<char> >, std::__ndk1::monostate>::setListener(geode::EventListenerProtocol*)::{lambda()#2}, std::__ndk1::allocator<geode::Task<std::__ndk1::basic_string<char, std::__ndk1::char_traits<char>, std::__ndk1::allocator<char> >, std::__ndk1::monostate>::setListener(geode::EventListenerProtocol*)::{lambda()#2}>, void ()>::target_type() const
PUBLIC 6f65c 0 std::__ndk1::__function::__base<geode::ListenerResult(jukebox::event::SongStateChanged*)>::~__base()
PUBLIC 6f660 0 std::__ndk1::__function::__func<JBSongWidget::init(SongInfoObject*, CustomSongDelegate*, bool, bool, bool, bool, bool, bool, int)::{lambda(jukebox::event::SongStateChanged*)#1}, std::__ndk1::allocator<JBSongWidget::init(SongInfoObject*, CustomSongDelegate*, bool, bool, bool, bool, bool, bool, int)::{lambda(jukebox::event::SongStateChanged*)#1}>, geode::ListenerResult(jukebox::event::SongStateChanged*)>::~__func()
PUBLIC 6f664 0 std::__ndk1::__function::__func<JBSongWidget::init(SongInfoObject*, CustomSongDelegate*, bool, bool, bool, bool, bool, bool, int)::{lambda(jukebox::event::SongStateChanged*)#1}, std::__ndk1::allocator<JBSongWidget::init(SongInfoObject*, CustomSongDelegate*, bool, bool, bool, bool, bool, bool, int)::{lambda(jukebox::event::SongStateChanged*)#1}>, geode::ListenerResult(jukebox::event::SongStateChanged*)>::__clone() const
PUBLIC 6f698 0 std::__ndk1::__function::__func<JBSongWidget::init(SongInfoObject*, CustomSongDelegate*, bool, bool, bool, bool, bool, bool, int)::{lambda(jukebox::event::SongStateChanged*)#1}, std::__ndk1::allocator<JBSongWidget::init(SongInfoObject*, CustomSongDelegate*, bool, bool, bool, bool, bool, bool, int)::{lambda(jukebox::event::SongStateChanged*)#1}>, geode::ListenerResult(jukebox::event::SongStateChanged*)>::__clone(std::__ndk1::__function::__base<geode::ListenerResult(jukebox::event::SongStateChanged*)>*) const
PUBLIC 6f6ac 0 std::__ndk1::__function::__func<JBSongWidget::init(SongInfoObject*, CustomSongDelegate*, bool, bool, bool, bool, bool, bool, int)::{lambda(jukebox::event::SongStateChanged*)#1}, std::__ndk1::allocator<JBSongWidget::init(SongInfoObject*, CustomSongDelegate*, bool, bool, bool, bool, bool, bool, int)::{lambda(jukebox::event::SongStateChanged*)#1}>, geode::ListenerResult(jukebox::event::SongStateChanged*)>::destroy()
PUBLIC 6f6b0 0 std::__ndk1::__function::__func<JBSongWidget::init(SongInfoObject*, CustomSongDelegate*, bool, bool, bool, bool, bool, bool, int)::{lambda(jukebox::event::SongStateChanged*)#1}, std::__ndk1::allocator<JBSongWidget::init(SongInfoObject*, CustomSongDelegate*, bool, bool, bool, bool, bool, bool, int)::{lambda(jukebox::event::SongStateChanged*)#1}>, geode::ListenerResult(jukebox::event::SongStateChanged*)>::destroy_deallocate()
PUBLIC 6f6b4 0 std::__ndk1::__function::__func<JBSongWidget::init(SongInfoObject*, CustomSongDelegate*, bool, bool, bool, bool, bool, bool, int)::{lambda(jukebox::event::SongStateChanged*)#1}, std::__ndk1::allocator<JBSongWidget::init(SongInfoObject*, CustomSongDelegate*, bool, bool, bool, bool, bool, bool, int)::{lambda(jukebox::event::SongStateChanged*)#1}>, geode::ListenerResult(jukebox::event::SongStateChanged*)>::operator()(jukebox::event::SongStateChanged*&&)
PUBLIC 6f7e0 0 std::__ndk1::__function::__func<JBSongWidget::init(SongInfoObject*, CustomSongDelegate*, bool, bool, bool, bool, bool, bool, int)::{lambda(jukebox::event::SongStateChanged*)#1}, std::__ndk1::allocator<JBSongWidget::init(SongInfoObject*, CustomSongDelegate*, bool, bool, bool, bool, bool, bool, int)::{lambda(jukebox::event::SongStateChanged*)#1}>, geode::ListenerResult(jukebox::event::SongStateChanged*)>::target(std::type_info const&) const
PUBLIC 6f7fc 0 std::__ndk1::__function::__func<JBSongWidget::init(SongInfoObject*, CustomSongDelegate*, bool, bool, bool, bool, bool, bool, int)::{lambda(jukebox::event::SongStateChanged*)#1}, std::__ndk1::allocator<JBSongWidget::init(SongInfoObject*, CustomSongDelegate*, bool, bool, bool, bool, bool, bool, int)::{lambda(jukebox::event::SongStateChanged*)#1}>, geode::ListenerResult(jukebox::event::SongStateChanged*)>::target_type() const
PUBLIC 6f808 0 JBSongWidget::updateSongInfo()
PUBLIC 6f9b8 0 geode::EventListener<geode::EventFilter<jukebox::event::SongStateChanged> >::getPool() const
PUBLIC 6f9bc 0 geode::EventListener<geode::EventFilter<jukebox::event::SongStateChanged> >::handle(geode::Event*)
PUBLIC 6fb5c 0 geode::EventListener<geode::EventFilter<jukebox::event::SongStateChanged> >::~EventListener()
PUBLIC 6fbb8 0 geode::EventListener<geode::EventFilter<jukebox::event::SongStateChanged> >::~EventListener()
PUBLIC 6fc1c 0 JBSongWidget::fixMultiAssetSize()
PUBLIC 7003c 0 std::__ndk1::__function::__base<void (geode::Task<std::__ndk1::basic_string<char, std::__ndk1::char_traits<char>, std::__ndk1::allocator<char> >, std::__ndk1::monostate>::Event*)>::~__base()
PUBLIC 70040 0 std::__ndk1::__function::__func<JBSongWidget::fixMultiAssetSize()::{lambda(geode::Task<std::__ndk1::basic_string<char, std::__ndk1::char_traits<char>, std::__ndk1::allocator<char> >, std::__ndk1::monostate>::Event*)#1}, std::__ndk1::allocator<JBSongWidget::fixMultiAssetSize()::{lambda(geode::Task<std::__ndk1::basic_string<char, std::__ndk1::char_traits<char>, std::__ndk1::allocator<char> >, std::__ndk1::monostate>::Event*)#1}>, void (geode::Task<std::__ndk1::basic_string<char, std::__ndk1::char_traits<char>, std::__ndk1::allocator<char> >, std::__ndk1::monostate>::Event*)>::~__func()
PUBLIC 70044 0 std::__ndk1::__function::__func<JBSongWidget::fixMultiAssetSize()::{lambda(geode::Task<std::__ndk1::basic_string<char, std::__ndk1::char_traits<char>, std::__ndk1::allocator<char> >, std::__ndk1::monostate>::Event*)#1}, std::__ndk1::allocator<JBSongWidget::fixMultiAssetSize()::{lambda(geode::Task<std::__ndk1::basic_string<char, std::__ndk1::char_traits<char>, std::__ndk1::allocator<char> >, std::__ndk1::monostate>::Event*)#1}>, void (geode::Task<std::__ndk1::basic_string<char, std::__ndk1::char_traits<char>, std::__ndk1::allocator<char> >, std::__ndk1::monostate>::Event*)>::__clone() const
PUBLIC 70078 0 std::__ndk1::__function::__func<JBSongWidget::fixMultiAssetSize()::{lambda(geode::Task<std::__ndk1::basic_string<char, std::__ndk1::char_traits<char>, std::__ndk1::allocator<char> >, std::__ndk1::monostate>::Event*)#1}, std::__ndk1::allocator<JBSongWidget::fixMultiAssetSize()::{lambda(geode::Task<std::__ndk1::basic_string<char, std::__ndk1::char_traits<char>, std::__ndk1::allocator<char> >, std::__ndk1::monostate>::Event*)#1}>, void (geode::Task<std::__ndk1::basic_string<char, std::__ndk1::char_traits<char>, std::__ndk1::allocator<char> >, std::__ndk1::monostate>::Event*)>::__clone(std::__ndk1::__function::__base<void (geode::Task<std::__ndk1::basic_string<char, std::__ndk1::char_traits<char>, std::__ndk1::allocator<char> >, std::__ndk1::monostate>::Event*)>*) const
PUBLIC 7008c 0 std::__ndk1::__function::__func<JBSongWidget::fixMultiAssetSize()::{lambda(geode::Task<std::__ndk1::basic_string<char, std::__ndk1::char_traits<char>, std::__ndk1::allocator<char> >, std::__ndk1::monostate>::Event*)#1}, std::__ndk1::allocator<JBSongWidget::fixMultiAssetSize()::{lambda(geode::Task<std::__ndk1::basic_string<char, std::__ndk1::char_traits<char>, std::__ndk1::allocator<char> >, std::__ndk1::monostate>::Event*)#1}>, void (geode::Task<std::__ndk1::basic_string<char, std::__ndk1::char_traits<char>, std::__ndk1::allocator<char> >, std::__ndk1::monostate>::Event*)>::destroy()
PUBLIC 70090 0 std::__ndk1::__function::__func<JBSongWidget::fixMultiAssetSize()::{lambda(geode::Task<std::__ndk1::basic_string<char, std::__ndk1::char_traits<char>, std::__ndk1::allocator<char> >, std::__ndk1::monostate>::Event*)#1}, std::__ndk1::allocator<JBSongWidget::fixMultiAssetSize()::{lambda(geode::Task<std::__ndk1::basic_string<char, std::__ndk1::char_traits<char>, std::__ndk1::allocator<char> >, std::__ndk1::monostate>::Event*)#1}>, void (geode::Task<std::__ndk1::basic_string<char, std::__ndk1::char_traits<char>, std::__ndk1::allocator<char> >, std::__ndk1::monostate>::Event*)>::destroy_deallocate()
PUBLIC 70094 0 std::__ndk1::__function::__func<JBSongWidget::fixMultiAssetSize()::{lambda(geode::Task<std::__ndk1::basic_string<char, std::__ndk1::char_traits<char>, std::__ndk1::allocator<char> >, std::__ndk1::monostate>::Event*)#1}, std::__ndk1::allocator<JBSongWidget::fixMultiAssetSize()::{lambda(geode::Task<std::__ndk1::basic_string<char, std::__ndk1::char_traits<char>, std::__ndk1::allocator<char> >, std::__ndk1::monostate>::Event*)#1}>, void (geode::Task<std::__ndk1::basic_string<char, std::__ndk1::char_traits<char>, std::__ndk1::allocator<char> >, std::__ndk1::monostate>::Event*)>::operator()(geode::Task<std::__ndk1::basic_string<char, std::__ndk1::char_traits<char>, std::__ndk1::allocator<char> >, std::__ndk1::monostate>::Event*&&)
PUBLIC 70270 0 std::__ndk1::__function::__func<JBSongWidget::fixMultiAssetSize()::{lambda(geode::Task<std::__ndk1::basic_string<char, std::__ndk1::char_traits<char>, std::__ndk1::allocator<char> >, std::__ndk1::monostate>::Event*)#1}, std::__ndk1::allocator<JBSongWidget::fixMultiAssetSize()::{lambda(geode::Task<std::__ndk1::basic_string<char, std::__ndk1::char_traits<char>, std::__ndk1::allocator<char> >, std::__ndk1::monostate>::Event*)#1}>, void (geode::Task<std::__ndk1::basic_string<char, std::__ndk1::char_traits<char>, std::__ndk1::allocator<char> >, std::__ndk1::monostate>::Event*)>::target(std::type_info const&) const
PUBLIC 7028c 0 std::__ndk1::__function::__func<JBSongWidget::fixMultiAssetSize()::{lambda(geode::Task<std::__ndk1::basic_string<char, std::__ndk1::char_traits<char>, std::__ndk1::allocator<char> >, std::__ndk1::monostate>::Event*)#1}, std::__ndk1::allocator<JBSongWidget::fixMultiAssetSize()::{lambda(geode::Task<std::__ndk1::basic_string<char, std::__ndk1::char_traits<char>, std::__ndk1::allocator<char> >, std::__ndk1::monostate>::Event*)#1}>, void (geode::Task<std::__ndk1::basic_string<char, std::__ndk1::char_traits<char>, std::__ndk1::allocator<char> >, std::__ndk1::monostate>::Event*)>::target_type() const
PUBLIC 70298 0 geode::modifier::ModifyDerive<JBLevelInfoLayer, LevelInfoLayer>::apply()
PUBLIC 70648 0 geode::modifier::ModifyBase<geode::modifier::ModifyDerive<JBLevelInfoLayer, LevelInfoLayer> >::apply()
PUBLIC 7064c 0 geode::modifier::AsStaticFunction_init<JBLevelInfoLayer, bool (JBLevelInfoLayer::*)(GJGameLevel*, bool)>::Impl<bool (JBLevelInfoLayer::*)(GJGameLevel*, bool)>::function(JBLevelInfoLayer*, GJGameLevel*, bool)
PUBLIC 70810 0 geode::Mod::getSavedValue<bool>(std::__ndk1::basic_string_view<char, std::__ndk1::char_traits<char> >, bool const&)
PUBLIC 709fc 0 geode::impl::ResultData<matjson::Value&, std::__ndk1::basic_string<char, std::__ndk1::char_traits<char>, std::__ndk1::allocator<char> > >::~ResultData()
PUBLIC 70a70 0 std::__ndk1::__variant_detail::__visitation::__base::__dispatcher<(unsigned long)0>::__dispatch[abi:ne180000]<std::__ndk1::__variant_detail::__dtor<std::__ndk1::__variant_detail::__traits<std::__ndk1::reference_wrapper<matjson::Value>, std::__ndk1::basic_string<char, std::__ndk1::char_traits<char>, std::__ndk1::allocator<char> > >, (std::__ndk1::__variant_detail::_Trait)1>::__destroy[abi:ne180000]()::{lambda(auto:1&)#1}, std::__ndk1::__variant_detail::__base<(std::__ndk1::__variant_detail::__traits<std::__ndk1::reference_wrapper<matjson::Value>, std::__ndk1::basic_string<char, std::__ndk1::char_traits<char>, std::__ndk1::allocator<char> > >)1, matjson::Value, std::__ndk1::allocator<char> >&>(std::__ndk1::__variant_detail::__dtor<std::__ndk1::__variant_detail::__traits<std::__ndk1::reference_wrapper<matjson::Value>, std::__ndk1::basic_string<char, std::__ndk1::char_traits<char>, std::__ndk1::allocator<char> > >, (std::__ndk1::__variant_detail::_Trait)1>, std::__ndk1::__variant_detail::__base<(std::__ndk1::__variant_detail::__traits<std::__ndk1::reference_wrapper<matjson::Value>, std::__ndk1::basic_string<char, std::__ndk1::char_traits<char>, std::__ndk1::allocator<char> > >)1, matjson::Value, std::__ndk1::allocator<char> >&)
PUBLIC 70a74 0 std::__ndk1::__variant_detail::__visitation::__base::__dispatcher<(unsigned long)1>::__dispatch[abi:ne180000]<std::__ndk1::__variant_detail::__dtor<std::__ndk1::__variant_detail::__traits<std::__ndk1::reference_wrapper<matjson::Value>, std::__ndk1::basic_string<char, std::__ndk1::char_traits<char>, std::__ndk1::allocator<char> > >, (std::__ndk1::__variant_detail::_Trait)1>::__destroy[abi:ne180000]()::{lambda(auto:1&)#1}, std::__ndk1::__variant_detail::__base<(std::__ndk1::__variant_detail::__traits<std::__ndk1::reference_wrapper<matjson::Value>, std::__ndk1::basic_string<char, std::__ndk1::char_traits<char>, std::__ndk1::allocator<char> > >)1, matjson::Value, std::__ndk1::allocator<char> >&>(std::__ndk1::__variant_detail::__dtor<std::__ndk1::__variant_detail::__traits<std::__ndk1::reference_wrapper<matjson::Value>, std::__ndk1::basic_string<char, std::__ndk1::char_traits<char>, std::__ndk1::allocator<char> > >, (std::__ndk1::__variant_detail::_Trait)1>, std::__ndk1::__variant_detail::__base<(std::__ndk1::__variant_detail::__traits<std::__ndk1::reference_wrapper<matjson::Value>, std::__ndk1::basic_string<char, std::__ndk1::char_traits<char>, std::__ndk1::allocator<char> > >)1, matjson::Value, std::__ndk1::allocator<char> >&)
PUBLIC 70a88 0 std::__ndk1::__variant_detail::__visitation::__base::__dispatcher<(unsigned long)0>::__dispatch[abi:ne180000]<std::__ndk1::__variant_detail::__dtor<std::__ndk1::__variant_detail::__traits<bool, std::__ndk1::basic_string<char, std::__ndk1::char_traits<char>, std::__ndk1::allocator<char> > >, (std::__ndk1::__variant_detail::_Trait)1>::__destroy[abi:ne180000]()::{lambda(auto:1&)#1}, std::__ndk1::__variant_detail::__base<(std::__ndk1::__variant_detail::__traits<bool, std::__ndk1::basic_string<char, std::__ndk1::char_traits<char>, std::__ndk1::allocator<char> > >)1, bool, std::__ndk1::allocator<char> >&>(std::__ndk1::__variant_detail::__dtor<std::__ndk1::__variant_detail::__traits<bool, std::__ndk1::basic_string<char, std::__ndk1::char_traits<char>, std::__ndk1::allocator<char> > >, (std::__ndk1::__variant_detail::_Trait)1>, std::__ndk1::__variant_detail::__base<(std::__ndk1::__variant_detail::__traits<bool, std::__ndk1::basic_string<char, std::__ndk1::char_traits<char>, std::__ndk1::allocator<char> > >)1, bool, std::__ndk1::allocator<char> >&)
PUBLIC 70a8c 0 std::__ndk1::__variant_detail::__visitation::__base::__dispatcher<(unsigned long)1>::__dispatch[abi:ne180000]<std::__ndk1::__variant_detail::__dtor<std::__ndk1::__variant_detail::__traits<bool, std::__ndk1::basic_string<char, std::__ndk1::char_traits<char>, std::__ndk1::allocator<char> > >, (std::__ndk1::__variant_detail::_Trait)1>::__destroy[abi:ne180000]()::{lambda(auto:1&)#1}, std::__ndk1::__variant_detail::__base<(std::__ndk1::__variant_detail::__traits<bool, std::__ndk1::basic_string<char, std::__ndk1::char_traits<char>, std::__ndk1::allocator<char> > >)1, bool, std::__ndk1::allocator<char> >&>(std::__ndk1::__variant_detail::__dtor<std::__ndk1::__variant_detail::__traits<bool, std::__ndk1::basic_string<char, std::__ndk1::char_traits<char>, std::__ndk1::allocator<char> > >, (std::__ndk1::__variant_detail::_Trait)1>, std::__ndk1::__variant_detail::__base<(std::__ndk1::__variant_detail::__traits<bool, std::__ndk1::basic_string<char, std::__ndk1::char_traits<char>, std::__ndk1::allocator<char> > >)1, bool, std::__ndk1::allocator<char> >&)
PUBLIC 70aa0 0 geode::Mod::getSavedValue<bool>(std::__ndk1::basic_string_view<char, std::__ndk1::char_traits<char> >)
PUBLIC 70c30 0 __cxx_global_var_init.1
PUBLIC 7106c 0 geode::modifier::ModifyBase<geode::modifier::ModifyDerive<hook8<(anonymous namespace)::hook8Parent>, FMODAudioEngine> >::~ModifyBase()
PUBLIC 71088 0 geode::modifier::ModifyDerive<hook8<(anonymous namespace)::hook8Parent>, FMODAudioEngine>::apply()
PUBLIC 725f4 0 geode::modifier::ModifyBase<geode::modifier::ModifyDerive<hook8<(anonymous namespace)::hook8Parent>, FMODAudioEngine> >::apply()
PUBLIC 725f8 0 geode::modifier::AsStaticFunction_queueStartMusic<hook8<(anonymous namespace)::hook8Parent>, void (hook8<(anonymous namespace)::hook8Parent>::*)(gd::string, float, float, float, bool, int, int, int, int, int, bool, int, bool, bool)>::Impl<void (hook8<(anonymous namespace)::hook8Parent>::*)(gd::string, float, float, float, bool, int, int, int, int, int, bool, int, bool, bool)>::function(hook8<(anonymous namespace)::hook8Parent>*, gd::string, float, float, float, bool, int, int, int, int, int, bool, int, bool, bool)
PUBLIC 7289c 0 geode::modifier::AsStaticFunction_setMusicTimeMS<hook8<(anonymous namespace)::hook8Parent>, void (hook8<(anonymous namespace)::hook8Parent>::*)(unsigned int, bool, int)>::Impl<void (hook8<(anonymous namespace)::hook8Parent>::*)(unsigned int, bool, int)>::function(hook8<(anonymous namespace)::hook8Parent>*, unsigned int, bool, int)
PUBLIC 729f8 0 __cxx_global_var_init.1
PUBLIC 72e34 0 geode::modifier::ModifyBase<geode::modifier::ModifyDerive<hook14<(anonymous namespace)::hook14Parent>, GJGameLevel> >::~ModifyBase()
PUBLIC 72e50 0 geode::modifier::ModifyDerive<hook14<(anonymous namespace)::hook14Parent>, GJGameLevel>::apply()
PUBLIC 73190 0 geode::modifier::ModifyBase<geode::modifier::ModifyDerive<hook14<(anonymous namespace)::hook14Parent>, GJGameLevel> >::apply()
PUBLIC 73194 0 geode::modifier::AsStaticFunction_getAudioFileName<hook14<(anonymous namespace)::hook14Parent>, gd::string (hook14<(anonymous namespace)::hook14Parent>::*)()>::Impl<gd::string (hook14<(anonymous namespace)::hook14Parent>::*)()>::function(hook14<(anonymous namespace)::hook14Parent>*)
PUBLIC 734f4 0 __cxx_global_var_init.1
PUBLIC 73974 0 geode::modifier::ModifyBase<geode::modifier::ModifyDerive<JBLevelCell, LevelCell> >::~ModifyBase()
PUBLIC 73990 0 geode::modifier::ModifyDerive<JBLevelCell, LevelCell>::apply()
PUBLIC 73cd0 0 geode::modifier::ModifyBase<geode::modifier::ModifyDerive<JBLevelCell, LevelCell> >::apply()
PUBLIC 73cd4 0 geode::modifier::AsStaticFunction_loadCustomLevelCell<JBLevelCell, void (JBLevelCell::*)()>::Impl<void (JBLevelCell::*)()>::function(JBLevelCell*)
PUBLIC 73f00 0 __cxx_global_var_init.1
PUBLIC 7433c 0 __cxx_global_var_init.2
PUBLIC 74778 0 geode::modifier::ModifyBase<geode::modifier::ModifyDerive<hook14<(anonymous namespace)::hook14Parent>, LevelTools> >::~ModifyBase()
PUBLIC 74794 0 geode::modifier::ModifyBase<geode::modifier::ModifyDerive<hook44<(anonymous namespace)::hook44Parent>, LevelSelectLayer> >::~ModifyBase()
PUBLIC 747b0 0 geode::modifier::ModifyDerive<hook14<(anonymous namespace)::hook14Parent>, LevelTools>::apply()
PUBLIC 74af0 0 geode::modifier::ModifyBase<geode::modifier::ModifyDerive<hook14<(anonymous namespace)::hook14Parent>, LevelTools> >::apply()
PUBLIC 74af4 0 geode::modifier::AsStaticFunction_getAudioTitle<hook14<(anonymous namespace)::hook14Parent>, gd::string (*)(int)>::Impl<gd::string (*)(int)>::function(int)
PUBLIC 74c5c 0 geode::modifier::ModifyDerive<hook44<(anonymous namespace)::hook44Parent>, LevelSelectLayer>::apply()
PUBLIC 74fbc 0 geode::modifier::ModifyBase<geode::modifier::ModifyDerive<hook44<(anonymous namespace)::hook44Parent>, LevelSelectLayer> >::apply()
PUBLIC 74fc0 0 geode::modifier::AsStaticFunction_init<hook44<(anonymous namespace)::hook44Parent>, bool (hook44<(anonymous namespace)::hook44Parent>::*)(int)>::Impl<bool (hook44<(anonymous namespace)::hook44Parent>::*)(int)>::function(hook44<(anonymous namespace)::hook44Parent>*, int)
PUBLIC 74ff0 0 __cxx_global_var_init
PUBLIC 75470 0 geode::modifier::ModifyBase<geode::modifier::ModifyDerive<JBMenuLayer, MenuLayer> >::~ModifyBase()
PUBLIC 7548c 0 geode::modifier::ModifyDerive<JBMenuLayer, MenuLayer>::apply()
PUBLIC 75794 0 geode::modifier::ModifyBase<geode::modifier::ModifyDerive<JBMenuLayer, MenuLayer> >::apply()
PUBLIC 75798 0 geode::modifier::AsStaticFunction_init<JBMenuLayer, bool (JBMenuLayer::*)()>::Impl<bool (JBMenuLayer::*)()>::function(JBMenuLayer*)
PUBLIC 75b74 0 geode::addresser::Addresser::addressOfVirtual<bool, MenuLayer, >(bool (MenuLayer::*)())
PUBLIC 75c1c 0 MenuLayer::MenuLayer(geode::ZeroConstructorType)
PUBLIC 75cb8 0 fmt::v11::detail::value<fmt::v11::context>::format_custom_arg<std::__ndk1::__fs::filesystem::path, fmt::v11::formatter<std::__ndk1::__fs::filesystem::path, char, void> >(void*, fmt::v11::basic_format_parse_context<char>&, fmt::v11::context&)
PUBLIC 75de0 0 fmt::v11::formatter<std::__ndk1::__fs::filesystem::path, char, void>::format<fmt::v11::context>(std::__ndk1::__fs::filesystem::path const&, fmt::v11::context&) const
PUBLIC 760a0 0 fmt::v11::detail::parse_align<char>(char const*, char const*, fmt::v11::format_specs&)
PUBLIC 76278 0 fmt::v11::basic_memory_buffer<char, (unsigned long)500, std::__ndk1::allocator<char> >::grow(fmt::v11::detail::buffer<char>&, unsigned long)
PUBLIC 762f0 0 fmt::v11::detail::write_escaped_string<char, std::__ndk1::back_insert_iterator<fmt::v11::basic_memory_buffer<char, (unsigned long)500, std::__ndk1::allocator<char> > > >(std::__ndk1::back_insert_iterator<fmt::v11::basic_memory_buffer<char, (unsigned long)500, std::__ndk1::allocator<char> > >, fmt::v11::basic_string_view<char>)
PUBLIC 7696c 0 fmt::v11::detail::write_escaped_cp<std::__ndk1::back_insert_iterator<fmt::v11::basic_memory_buffer<char, (unsigned long)500, std::__ndk1::allocator<char> > >, char>(std::__ndk1::back_insert_iterator<fmt::v11::basic_memory_buffer<char, (unsigned long)500, std::__ndk1::allocator<char> > >, fmt::v11::detail::find_escape_result<char> const&)
PUBLIC 76b50 0 fmt::v11::detail::write_codepoint<(unsigned long)2, char, std::__ndk1::back_insert_iterator<fmt::v11::basic_memory_buffer<char, (unsigned long)500, std::__ndk1::allocator<char> > > >(std::__ndk1::back_insert_iterator<fmt::v11::basic_memory_buffer<char, (unsigned long)500, std::__ndk1::allocator<char> > >, char, unsigned int)
PUBLIC 76cc8 0 fmt::v11::detail::write_codepoint<(unsigned long)4, char, std::__ndk1::back_insert_iterator<fmt::v11::basic_memory_buffer<char, (unsigned long)500, std::__ndk1::allocator<char> > > >(std::__ndk1::back_insert_iterator<fmt::v11::basic_memory_buffer<char, (unsigned long)500, std::__ndk1::allocator<char> > >, char, unsigned int)
PUBLIC 76e40 0 fmt::v11::detail::write_codepoint<(unsigned long)8, char, std::__ndk1::back_insert_iterator<fmt::v11::basic_memory_buffer<char, (unsigned long)500, std::__ndk1::allocator<char> > > >(std::__ndk1::back_insert_iterator<fmt::v11::basic_memory_buffer<char, (unsigned long)500, std::__ndk1::allocator<char> > >, char, unsigned int)
PUBLIC 76fb8 0 JBMusicDownloadManager::pathForSong(int)
PUBLIC 77318 0 JBMusicDownloadManager::onGetSongInfoCompleted(gd::string, gd::string)
PUBLIC 775c0 0 JBMusicDownloadManager::getSongInfoObject(int)
PUBLIC 776ec 0 geode::modifier::FieldIntermediate<JBMusicDownloadManager, MusicDownloadManager>::self()
PUBLIC 77874 0 geode::modifier::FieldIntermediate<JBMusicDownloadManager, MusicDownloadManager>::fieldDestructor(void*)
PUBLIC 77878 0 geodeExecFunction17<(anonymous namespace)::ExecFuncUnique17>(geode::ModStateEvent*)
PUBLIC 77994 0 std::__ndk1::__function::__base<geode::Result<std::__ndk1::shared_ptr<geode::SettingV3>, std::__ndk1::basic_string<char, std::__ndk1::char_traits<char>, std::__ndk1::allocator<char> > >(std::__ndk1::basic_string<char, std::__ndk1::char_traits<char>, std::__ndk1::allocator<char> > const&, std::__ndk1::basic_string<char, std::__ndk1::char_traits<char>, std::__ndk1::allocator<char> > const&, matjson::Value const&)>::~__base()
PUBLIC 77998 0 std::__ndk1::__function::__func<geode::Result<std::__ndk1::shared_ptr<geode::SettingV3>, std::__ndk1::basic_string<char, std::__ndk1::char_traits<char>, std::__ndk1::allocator<char> > > (*)(std::__ndk1::basic_string<char, std::__ndk1::char_traits<char>, std::__ndk1::allocator<char> > const&, std::__ndk1::basic_string<char, std::__ndk1::char_traits<char>, std::__ndk1::allocator<char> > const&, matjson::Value const&), std::__ndk1::allocator<geode::Result<std::__ndk1::shared_ptr<geode::SettingV3>, std::__ndk1::basic_string<char, std::__ndk1::char_traits<char>, std::__ndk1::allocator<char> > > (*)(std::__ndk1::basic_string<char, std::__ndk1::char_traits<char>, std::__ndk1::allocator<char> > const&, std::__ndk1::basic_string<char, std::__ndk1::char_traits<char>, std::__ndk1::allocator<char> > const&, matjson::Value const&)>, geode::Result<std::__ndk1::shared_ptr<geode::SettingV3>, std::__ndk1::basic_string<char, std::__ndk1::char_traits<char>, std::__ndk1::allocator<char> > >(std::__ndk1::basic_string<char, std::__ndk1::char_traits<char>, std::__ndk1::allocator<char> > const&, std::__ndk1::basic_string<char, std::__ndk1::char_traits<char>, std::__ndk1::allocator<char> > const&, matjson::Value const&)>::~__func()
PUBLIC 7799c 0 std::__ndk1::__function::__func<geode::Result<std::__ndk1::shared_ptr<geode::SettingV3>, std::__ndk1::basic_string<char, std::__ndk1::char_traits<char>, std::__ndk1::allocator<char> > > (*)(std::__ndk1::basic_string<char, std::__ndk1::char_traits<char>, std::__ndk1::allocator<char> > const&, std::__ndk1::basic_string<char, std::__ndk1::char_traits<char>, std::__ndk1::allocator<char> > const&, matjson::Value const&), std::__ndk1::allocator<geode::Result<std::__ndk1::shared_ptr<geode::SettingV3>, std::__ndk1::basic_string<char, std::__ndk1::char_traits<char>, std::__ndk1::allocator<char> > > (*)(std::__ndk1::basic_string<char, std::__ndk1::char_traits<char>, std::__ndk1::allocator<char> > const&, std::__ndk1::basic_string<char, std::__ndk1::char_traits<char>, std::__ndk1::allocator<char> > const&, matjson::Value const&)>, geode::Result<std::__ndk1::shared_ptr<geode::SettingV3>, std::__ndk1::basic_string<char, std::__ndk1::char_traits<char>, std::__ndk1::allocator<char> > >(std::__ndk1::basic_string<char, std::__ndk1::char_traits<char>, std::__ndk1::allocator<char> > const&, std::__ndk1::basic_string<char, std::__ndk1::char_traits<char>, std::__ndk1::allocator<char> > const&, matjson::Value const&)>::__clone() const
PUBLIC 779d0 0 std::__ndk1::__function::__func<geode::Result<std::__ndk1::shared_ptr<geode::SettingV3>, std::__ndk1::basic_string<char, std::__ndk1::char_traits<char>, std::__ndk1::allocator<char> > > (*)(std::__ndk1::basic_string<char, std::__ndk1::char_traits<char>, std::__ndk1::allocator<char> > const&, std::__ndk1::basic_string<char, std::__ndk1::char_traits<char>, std::__ndk1::allocator<char> > const&, matjson::Value const&), std::__ndk1::allocator<geode::Result<std::__ndk1::shared_ptr<geode::SettingV3>, std::__ndk1::basic_string<char, std::__ndk1::char_traits<char>, std::__ndk1::allocator<char> > > (*)(std::__ndk1::basic_string<char, std::__ndk1::char_traits<char>, std::__ndk1::allocator<char> > const&, std::__ndk1::basic_string<char, std::__ndk1::char_traits<char>, std::__ndk1::allocator<char> > const&, matjson::Value const&)>, geode::Result<std::__ndk1::shared_ptr<geode::SettingV3>, std::__ndk1::basic_string<char, std::__ndk1::char_traits<char>, std::__ndk1::allocator<char> > >(std::__ndk1::basic_string<char, std::__ndk1::char_traits<char>, std::__ndk1::allocator<char> > const&, std::__ndk1::basic_string<char, std::__ndk1::char_traits<char>, std::__ndk1::allocator<char> > const&, matjson::Value const&)>::__clone(std::__ndk1::__function::__base<geode::Result<std::__ndk1::shared_ptr<geode::SettingV3>, std::__ndk1::basic_string<char, std::__ndk1::char_traits<char>, std::__ndk1::allocator<char> > >(std::__ndk1::basic_string<char, std::__ndk1::char_traits<char>, std::__ndk1::allocator<char> > const&, std::__ndk1::basic_string<char, std::__ndk1::char_traits<char>, std::__ndk1::allocator<char> > const&, matjson::Value const&)>*) const
PUBLIC 779e4 0 std::__ndk1::__function::__func<geode::Result<std::__ndk1::shared_ptr<geode::SettingV3>, std::__ndk1::basic_string<char, std::__ndk1::char_traits<char>, std::__ndk1::allocator<char> > > (*)(std::__ndk1::basic_string<char, std::__ndk1::char_traits<char>, std::__ndk1::allocator<char> > const&, std::__ndk1::basic_string<char, std::__ndk1::char_traits<char>, std::__ndk1::allocator<char> > const&, matjson::Value const&), std::__ndk1::allocator<geode::Result<std::__ndk1::shared_ptr<geode::SettingV3>, std::__ndk1::basic_string<char, std::__ndk1::char_traits<char>, std::__ndk1::allocator<char> > > (*)(std::__ndk1::basic_string<char, std::__ndk1::char_traits<char>, std::__ndk1::allocator<char> > const&, std::__ndk1::basic_string<char, std::__ndk1::char_traits<char>, std::__ndk1::allocator<char> > const&, matjson::Value const&)>, geode::Result<std::__ndk1::shared_ptr<geode::SettingV3>, std::__ndk1::basic_string<char, std::__ndk1::char_traits<char>, std::__ndk1::allocator<char> > >(std::__ndk1::basic_string<char, std::__ndk1::char_traits<char>, std::__ndk1::allocator<char> > const&, std::__ndk1::basic_string<char, std::__ndk1::char_traits<char>, std::__ndk1::allocator<char> > const&, matjson::Value const&)>::destroy()
PUBLIC 779e8 0 std::__ndk1::__function::__func<geode::Result<std::__ndk1::shared_ptr<geode::SettingV3>, std::__ndk1::basic_string<char, std::__ndk1::char_traits<char>, std::__ndk1::allocator<char> > > (*)(std::__ndk1::basic_string<char, std::__ndk1::char_traits<char>, std::__ndk1::allocator<char> > const&, std::__ndk1::basic_string<char, std::__ndk1::char_traits<char>, std::__ndk1::allocator<char> > const&, matjson::Value const&), std::__ndk1::allocator<geode::Result<std::__ndk1::shared_ptr<geode::SettingV3>, std::__ndk1::basic_string<char, std::__ndk1::char_traits<char>, std::__ndk1::allocator<char> > > (*)(std::__ndk1::basic_string<char, std::__ndk1::char_traits<char>, std::__ndk1::allocator<char> > const&, std::__ndk1::basic_string<char, std::__ndk1::char_traits<char>, std::__ndk1::allocator<char> > const&, matjson::Value const&)>, geode::Result<std::__ndk1::shared_ptr<geode::SettingV3>, std::__ndk1::basic_string<char, std::__ndk1::char_traits<char>, std::__ndk1::allocator<char> > >(std::__ndk1::basic_string<char, std::__ndk1::char_traits<char>, std::__ndk1::allocator<char> > const&, std::__ndk1::basic_string<char, std::__ndk1::char_traits<char>, std::__ndk1::allocator<char> > const&, matjson::Value const&)>::destroy_deallocate()
PUBLIC 779ec 0 std::__ndk1::__function::__func<geode::Result<std::__ndk1::shared_ptr<geode::SettingV3>, std::__ndk1::basic_string<char, std::__ndk1::char_traits<char>, std::__ndk1::allocator<char> > > (*)(std::__ndk1::basic_string<char, std::__ndk1::char_traits<char>, std::__ndk1::allocator<char> > const&, std::__ndk1::basic_string<char, std::__ndk1::char_traits<char>, std::__ndk1::allocator<char> > const&, matjson::Value const&), std::__ndk1::allocator<geode::Result<std::__ndk1::shared_ptr<geode::SettingV3>, std::__ndk1::basic_string<char, std::__ndk1::char_traits<char>, std::__ndk1::allocator<char> > > (*)(std::__ndk1::basic_string<char, std::__ndk1::char_traits<char>, std::__ndk1::allocator<char> > const&, std::__ndk1::basic_string<char, std::__ndk1::char_traits<char>, std::__ndk1::allocator<char> > const&, matjson::Value const&)>, geode::Result<std::__ndk1::shared_ptr<geode::SettingV3>, std::__ndk1::basic_string<char, std::__ndk1::char_traits<char>, std::__ndk1::allocator<char> > >(std::__ndk1::basic_string<char, std::__ndk1::char_traits<char>, std::__ndk1::allocator<char> > const&, std::__ndk1::basic_string<char, std::__ndk1::char_traits<char>, std::__ndk1::allocator<char> > const&, matjson::Value const&)>::operator()(std::__ndk1::basic_string<char, std::__ndk1::char_traits<char>, std::__ndk1::allocator<char> > const&, std::__ndk1::basic_string<char, std::__ndk1::char_traits<char>, std::__ndk1::allocator<char> > const&, matjson::Value const&)
PUBLIC 77a00 0 std::__ndk1::__function::__func<geode::Result<std::__ndk1::shared_ptr<geode::SettingV3>, std::__ndk1::basic_string<char, std::__ndk1::char_traits<char>, std::__ndk1::allocator<char> > > (*)(std::__ndk1::basic_string<char, std::__ndk1::char_traits<char>, std::__ndk1::allocator<char> > const&, std::__ndk1::basic_string<char, std::__ndk1::char_traits<char>, std::__ndk1::allocator<char> > const&, matjson::Value const&), std::__ndk1::allocator<geode::Result<std::__ndk1::shared_ptr<geode::SettingV3>, std::__ndk1::basic_string<char, std::__ndk1::char_traits<char>, std::__ndk1::allocator<char> > > (*)(std::__ndk1::basic_string<char, std::__ndk1::char_traits<char>, std::__ndk1::allocator<char> > const&, std::__ndk1::basic_string<char, std::__ndk1::char_traits<char>, std::__ndk1::allocator<char> > const&, matjson::Value const&)>, geode::Result<std::__ndk1::shared_ptr<geode::SettingV3>, std::__ndk1::basic_string<char, std::__ndk1::char_traits<char>, std::__ndk1::allocator<char> > >(std::__ndk1::basic_string<char, std::__ndk1::char_traits<char>, std::__ndk1::allocator<char> > const&, std::__ndk1::basic_string<char, std::__ndk1::char_traits<char>, std::__ndk1::allocator<char> > const&, matjson::Value const&)>::target(std::type_info const&) const
PUBLIC 77a1c 0 std::__ndk1::__function::__func<geode::Result<std::__ndk1::shared_ptr<geode::SettingV3>, std::__ndk1::basic_string<char, std::__ndk1::char_traits<char>, std::__ndk1::allocator<char> > > (*)(std::__ndk1::basic_string<char, std::__ndk1::char_traits<char>, std::__ndk1::allocator<char> > const&, std::__ndk1::basic_string<char, std::__ndk1::char_traits<char>, std::__ndk1::allocator<char> > const&, matjson::Value const&), std::__ndk1::allocator<geode::Result<std::__ndk1::shared_ptr<geode::SettingV3>, std::__ndk1::basic_string<char, std::__ndk1::char_traits<char>, std::__ndk1::allocator<char> > > (*)(std::__ndk1::basic_string<char, std::__ndk1::char_traits<char>, std::__ndk1::allocator<char> > const&, std::__ndk1::basic_string<char, std::__ndk1::char_traits<char>, std::__ndk1::allocator<char> > const&, matjson::Value const&)>, geode::Result<std::__ndk1::shared_ptr<geode::SettingV3>, std::__ndk1::basic_string<char, std::__ndk1::char_traits<char>, std::__ndk1::allocator<char> > >(std::__ndk1::basic_string<char, std::__ndk1::char_traits<char>, std::__ndk1::allocator<char> > const&, std::__ndk1::basic_string<char, std::__ndk1::char_traits<char>, std::__ndk1::allocator<char> > const&, matjson::Value const&)>::target_type() const
PUBLIC 77a28 0 std::__ndk1::__variant_detail::__visitation::__base::__dispatcher<(unsigned long)0>::__dispatch[abi:ne180000]<std::__ndk1::__variant_detail::__dtor<std::__ndk1::__variant_detail::__traits<std::__ndk1::monostate, std::__ndk1::basic_string<char, std::__ndk1::char_traits<char>, std::__ndk1::allocator<char> > >, (std::__ndk1::__variant_detail::_Trait)1>::__destroy[abi:ne180000]()::{lambda(auto:1&)#1}, std::__ndk1::__variant_detail::__base<(std::__ndk1::__variant_detail::__traits<std::__ndk1::monostate, std::__ndk1::basic_string<char, std::__ndk1::char_traits<char>, std::__ndk1::allocator<char> > >)1, std::__ndk1::__variant_detail::__traits, std::__ndk1::allocator<char> >&>(std::__ndk1::__variant_detail::__dtor<std::__ndk1::__variant_detail::__traits<std::__ndk1::monostate, std::__ndk1::basic_string<char, std::__ndk1::char_traits<char>, std::__ndk1::allocator<char> > >, (std::__ndk1::__variant_detail::_Trait)1>, std::__ndk1::__variant_detail::__base<(std::__ndk1::__variant_detail::__traits<std::__ndk1::monostate, std::__ndk1::basic_string<char, std::__ndk1::char_traits<char>, std::__ndk1::allocator<char> > >)1, std::__ndk1::__variant_detail::__traits, std::__ndk1::allocator<char> >&)
PUBLIC 77a2c 0 std::__ndk1::__variant_detail::__visitation::__base::__dispatcher<(unsigned long)1>::__dispatch[abi:ne180000]<std::__ndk1::__variant_detail::__dtor<std::__ndk1::__variant_detail::__traits<std::__ndk1::monostate, std::__ndk1::basic_string<char, std::__ndk1::char_traits<char>, std::__ndk1::allocator<char> > >, (std::__ndk1::__variant_detail::_Trait)1>::__destroy[abi:ne180000]()::{lambda(auto:1&)#1}, std::__ndk1::__variant_detail::__base<(std::__ndk1::__variant_detail::__traits<std::__ndk1::monostate, std::__ndk1::basic_string<char, std::__ndk1::char_traits<char>, std::__ndk1::allocator<char> > >)1, std::__ndk1::__variant_detail::__traits, std::__ndk1::allocator<char> >&>(std::__ndk1::__variant_detail::__dtor<std::__ndk1::__variant_detail::__traits<std::__ndk1::monostate, std::__ndk1::basic_string<char, std::__ndk1::char_traits<char>, std::__ndk1::allocator<char> > >, (std::__ndk1::__variant_detail::_Trait)1>, std::__ndk1::__variant_detail::__base<(std::__ndk1::__variant_detail::__traits<std::__ndk1::monostate, std::__ndk1::basic_string<char, std::__ndk1::char_traits<char>, std::__ndk1::allocator<char> > >)1, std::__ndk1::__variant_detail::__traits, std::__ndk1::allocator<char> >&)
PUBLIC 77a40 0 jukebox::IndexManager::IndexManager()
PUBLIC 77b0c 0 jukebox::IndexManager::~IndexManager()
PUBLIC 77c98 0 geode::EventListener<geode::EventFilter<jukebox::event::StartDownload> >::EventListener<jukebox::IndexManager>(geode::to_member<jukebox::IndexManager, geode::ListenerResult(jukebox::event::StartDownload*)>::value, geode::EventFilter<jukebox::event::StartDownload>)
PUBLIC 77df4 0 std::__ndk1::unordered_map<std::__ndk1::basic_string<char, std::__ndk1::char_traits<char>, std::__ndk1::allocator<char> >, float, std::__ndk1::hash<std::__ndk1::basic_string<char, std::__ndk1::char_traits<char>, std::__ndk1::allocator<char> > >, std::__ndk1::equal_to<std::__ndk1::basic_string<char, std::__ndk1::char_traits<char>, std::__ndk1::allocator<char> > >, std::__ndk1::allocator<std::__ndk1::pair<std::__ndk1::basic_string<char, std::__ndk1::char_traits<char>, std::__ndk1::allocator<char> > const, float> > >::~unordered_map[abi:ne180000]()
PUBLIC 77e64 0 std::__ndk1::unordered_map<std::__ndk1::basic_string<char, std::__ndk1::char_traits<char>, std::__ndk1::allocator<char> >, geode::EventListener<geode::Task<geode::Result<std::__ndk1::vector<unsigned char, std::__ndk1::allocator<unsigned char> >, std::__ndk1::basic_string<char, std::__ndk1::char_traits<char>, std::__ndk1::allocator<char> > >, float> >, std::__ndk1::hash<std::__ndk1::basic_string<char, std::__ndk1::char_traits<char>, std::__ndk1::allocator<char> > >, std::__ndk1::equal_to<std::__ndk1::basic_string<char, std::__ndk1::char_traits<char>, std::__ndk1::allocator<char> > >, std::__ndk1::allocator<std::__ndk1::pair<std::__ndk1::basic_string<char, std::__ndk1::char_traits<char>, std::__ndk1::allocator<char> > const, geode::EventListener<geode::Task<geode::Result<std::__ndk1::vector<unsigned char, std::__ndk1::allocator<unsigned char> >, std::__ndk1::basic_string<char, std::__ndk1::char_traits<char>, std::__ndk1::allocator<char> > >, float> > > > >::~unordered_map[abi:ne180000]()
PUBLIC 77ea0 0 std::__ndk1::unordered_map<int, std::__ndk1::vector<jukebox::index::IndexSongMetadata*, std::__ndk1::allocator<jukebox::index::IndexSongMetadata*> >, std::__ndk1::hash<int>, std::__ndk1::equal_to<int>, std::__ndk1::allocator<std::__ndk1::pair<int const, std::__ndk1::vector<jukebox::index::IndexSongMetadata*, std::__ndk1::allocator<jukebox::index::IndexSongMetadata*> > > > >::~unordered_map[abi:ne180000]()
PUBLIC 77f10 0 std::__ndk1::unordered_map<std::__ndk1::basic_string<char, std::__ndk1::char_traits<char>, std::__ndk1::allocator<char> >, geode::EventListener<geode::Task<geode::Result<void, std::__ndk1::basic_string<char, std::__ndk1::char_traits<char>, std::__ndk1::allocator<char> > >, float> >, std::__ndk1::hash<std::__ndk1::basic_string<char, std::__ndk1::char_traits<char>, std::__ndk1::allocator<char> > >, std::__ndk1::equal_to<std::__ndk1::basic_string<char, std::__ndk1::char_traits<char>, std::__ndk1::allocator<char> > >, std::__ndk1::allocator<std::__ndk1::pair<std::__ndk1::basic_string<char, std::__ndk1::char_traits<char>, std::__ndk1::allocator<char> > const, geode::EventListener<geode::Task<geode::Result<void, std::__ndk1::basic_string<char, std::__ndk1::char_traits<char>, std::__ndk1::allocator<char> > >, float> > > > >::~unordered_map[abi:ne180000]()
PUBLIC 77f4c 0 std::__ndk1::__function::__base<geode::ListenerResult(jukebox::event::StartDownload*)>::~__base()
PUBLIC 77f50 0 std::__ndk1::__function::__func<std::__ndk1::__bind<geode::ListenerResult (jukebox::IndexManager&::*)(jukebox::event::StartDownload*), jukebox::IndexManager*&, std::__ndk1::placeholders::__ph<1> const&>, std::__ndk1::allocator<std::__ndk1::__bind<geode::ListenerResult (jukebox::IndexManager&::*)(jukebox::event::StartDownload*), jukebox::IndexManager*&, std::__ndk1::placeholders::__ph<1> const&> >, geode::ListenerResult(jukebox::event::StartDownload*)>::~__func()
PUBLIC 77f54 0 std::__ndk1::__function::__func<std::__ndk1::__bind<geode::ListenerResult (jukebox::IndexManager&::*)(jukebox::event::StartDownload*), jukebox::IndexManager*&, std::__ndk1::placeholders::__ph<1> const&>, std::__ndk1::allocator<std::__ndk1::__bind<geode::ListenerResult (jukebox::IndexManager&::*)(jukebox::event::StartDownload*), jukebox::IndexManager*&, std::__ndk1::placeholders::__ph<1> const&> >, geode::ListenerResult(jukebox::event::StartDownload*)>::__clone() const
PUBLIC 77f94 0 std::__ndk1::__function::__func<std::__ndk1::__bind<geode::ListenerResult (jukebox::IndexManager&::*)(jukebox::event::StartDownload*), jukebox::IndexManager*&, std::__ndk1::placeholders::__ph<1> const&>, std::__ndk1::allocator<std::__ndk1::__bind<geode::ListenerResult (jukebox::IndexManager&::*)(jukebox::event::StartDownload*), jukebox::IndexManager*&, std::__ndk1::placeholders::__ph<1> const&> >, geode::ListenerResult(jukebox::event::StartDownload*)>::__clone(std::__ndk1::__function::__base<geode::ListenerResult(jukebox::event::StartDownload*)>*) const
PUBLIC 77fb4 0 std::__ndk1::__function::__func<std::__ndk1::__bind<geode::ListenerResult (jukebox::IndexManager&::*)(jukebox::event::StartDownload*), jukebox::IndexManager*&, std::__ndk1::placeholders::__ph<1> const&>, std::__ndk1::allocator<std::__ndk1::__bind<geode::ListenerResult (jukebox::IndexManager&::*)(jukebox::event::StartDownload*), jukebox::IndexManager*&, std::__ndk1::placeholders::__ph<1> const&> >, geode::ListenerResult(jukebox::event::StartDownload*)>::destroy()
PUBLIC 77fb8 0 std::__ndk1::__function::__func<std::__ndk1::__bind<geode::ListenerResult (jukebox::IndexManager&::*)(jukebox::event::StartDownload*), jukebox::IndexManager*&, std::__ndk1::placeholders::__ph<1> const&>, std::__ndk1::allocator<std::__ndk1::__bind<geode::ListenerResult (jukebox::IndexManager&::*)(jukebox::event::StartDownload*), jukebox::IndexManager*&, std::__ndk1::placeholders::__ph<1> const&> >, geode::ListenerResult(jukebox::event::StartDownload*)>::destroy_deallocate()
PUBLIC 77fbc 0 std::__ndk1::__function::__func<std::__ndk1::__bind<geode::ListenerResult (jukebox::IndexManager&::*)(jukebox::event::StartDownload*), jukebox::IndexManager*&, std::__ndk1::placeholders::__ph<1> const&>, std::__ndk1::allocator<std::__ndk1::__bind<geode::ListenerResult (jukebox::IndexManager&::*)(jukebox::event::StartDownload*), jukebox::IndexManager*&, std::__ndk1::placeholders::__ph<1> const&> >, geode::ListenerResult(jukebox::event::StartDownload*)>::operator()(jukebox::event::StartDownload*&&)
PUBLIC 77fdc 0 std::__ndk1::__function::__func<std::__ndk1::__bind<geode::ListenerResult (jukebox::IndexManager&::*)(jukebox::event::StartDownload*), jukebox::IndexManager*&, std::__ndk1::placeholders::__ph<1> const&>, std::__ndk1::allocator<std::__ndk1::__bind<geode::ListenerResult (jukebox::IndexManager&::*)(jukebox::event::StartDownload*), jukebox::IndexManager*&, std::__ndk1::placeholders::__ph<1> const&> >, geode::ListenerResult(jukebox::event::StartDownload*)>::target(std::type_info const&) const
PUBLIC 77ff8 0 std::__ndk1::__function::__func<std::__ndk1::__bind<geode::ListenerResult (jukebox::IndexManager&::*)(jukebox::event::StartDownload*), jukebox::IndexManager*&, std::__ndk1::placeholders::__ph<1> const&>, std::__ndk1::allocator<std::__ndk1::__bind<geode::ListenerResult (jukebox::IndexManager&::*)(jukebox::event::StartDownload*), jukebox::IndexManager*&, std::__ndk1::placeholders::__ph<1> const&> >, geode::ListenerResult(jukebox::event::StartDownload*)>::target_type() const
PUBLIC 78004 0 geode::EventListener<geode::EventFilter<jukebox::event::StartDownload> >::getPool() const
PUBLIC 78008 0 geode::EventListener<geode::EventFilter<jukebox::event::StartDownload> >::handle(geode::Event*)
PUBLIC 781a8 0 geode::EventListener<geode::EventFilter<jukebox::event::StartDownload> >::~EventListener()
PUBLIC 78204 0 geode::EventListener<geode::EventFilter<jukebox::event::StartDownload> >::~EventListener()
PUBLIC 78268 0 std::__ndk1::__hash_table<std::__ndk1::__hash_value_type<std::__ndk1::basic_string<char, std::__ndk1::char_traits<char>, std::__ndk1::allocator<char> >, geode::EventListener<geode::Task<geode::Result<std::__ndk1::vector<unsigned char, std::__ndk1::allocator<unsigned char> >, std::__ndk1::basic_string<char, std::__ndk1::char_traits<char>, std::__ndk1::allocator<char> > >, float> > >, std::__ndk1::__unordered_map_hasher<std::__ndk1::basic_string<char, std::__ndk1::char_traits<char>, std::__ndk1::allocator<char> >, std::__ndk1::__hash_value_type<std::__ndk1::basic_string<char, std::__ndk1::char_traits<char>, std::__ndk1::allocator<char> >, geode::EventListener<geode::Task<geode::Result<std::__ndk1::vector<unsigned char, std::__ndk1::allocator<unsigned char> >, std::__ndk1::basic_string<char, std::__ndk1::char_traits<char>, std::__ndk1::allocator<char> > >, float> > >, std::__ndk1::hash<std::__ndk1::basic_string<char, std::__ndk1::char_traits<char>, std::__ndk1::allocator<char> > >, std::__ndk1::equal_to<std::__ndk1::basic_string<char, std::__ndk1::char_traits<char>, std::__ndk1::allocator<char> > >, true>, std::__ndk1::__unordered_map_equal<std::__ndk1::basic_string<char, std::__ndk1::char_traits<char>, std::__ndk1::allocator<char> >, std::__ndk1::__hash_value_type<std::__ndk1::basic_string<char, std::__ndk1::char_traits<char>, std::__ndk1::allocator<char> >, geode::EventListener<geode::Task<geode::Result<std::__ndk1::vector<unsigned char, std::__ndk1::allocator<unsigned char> >, std::__ndk1::basic_string<char, std::__ndk1::char_traits<char>, std::__ndk1::allocator<char> > >, float> > >, std::__ndk1::equal_to<std::__ndk1::basic_string<char, std::__ndk1::char_traits<char>, std::__ndk1::allocator<char> > >, std::__ndk1::hash<std::__ndk1::basic_string<char, std::__ndk1::char_traits<char>, std::__ndk1::allocator<char> > >, true>, std::__ndk1::allocator<std::__ndk1::__hash_value_type<std::__ndk1::basic_string<char, std::__ndk1::char_traits<char>, std::__ndk1::allocator<char> >, geode::EventListener<geode::Task<geode::Result<std::__ndk1::vector<unsigned char, std::__ndk1::allocator<unsigned char> >, std::__ndk1::basic_string<char, std::__ndk1::char_traits<char>, std::__ndk1::allocator<char> > >, float> > > > >::__deallocate_node(std::__ndk1::__hash_node_base<std::__ndk1::__hash_node<std::__ndk1::__hash_value_type<std::__ndk1::basic_string<char, std::__ndk1::char_traits<char>, std::__ndk1::allocator<char> >, geode::EventListener<geode::Task<geode::Result<std::__ndk1::vector<unsigned char, std::__ndk1::allocator<unsigned char> >, std::__ndk1::basic_string<char, std::__ndk1::char_traits<char>, std::__ndk1::allocator<char> > >, float> > >, void*>*>*)
PUBLIC 7834c 0 std::__ndk1::__hash_table<std::__ndk1::__hash_value_type<std::__ndk1::basic_string<char, std::__ndk1::char_traits<char>, std::__ndk1::allocator<char> >, geode::EventListener<geode::Task<geode::Result<void, std::__ndk1::basic_string<char, std::__ndk1::char_traits<char>, std::__ndk1::allocator<char> > >, float> > >, std::__ndk1::__unordered_map_hasher<std::__ndk1::basic_string<char, std::__ndk1::char_traits<char>, std::__ndk1::allocator<char> >, std::__ndk1::__hash_value_type<std::__ndk1::basic_string<char, std::__ndk1::char_traits<char>, std::__ndk1::allocator<char> >, geode::EventListener<geode::Task<geode::Result<void, std::__ndk1::basic_string<char, std::__ndk1::char_traits<char>, std::__ndk1::allocator<char> > >, float> > >, std::__ndk1::hash<std::__ndk1::basic_string<char, std::__ndk1::char_traits<char>, std::__ndk1::allocator<char> > >, std::__ndk1::equal_to<std::__ndk1::basic_string<char, std::__ndk1::char_traits<char>, std::__ndk1::allocator<char> > >, true>, std::__ndk1::__unordered_map_equal<std::__ndk1::basic_string<char, std::__ndk1::char_traits<char>, std::__ndk1::allocator<char> >, std::__ndk1::__hash_value_type<std::__ndk1::basic_string<char, std::__ndk1::char_traits<char>, std::__ndk1::allocator<char> >, geode::EventListener<geode::Task<geode::Result<void, std::__ndk1::basic_string<char, std::__ndk1::char_traits<char>, std::__ndk1::allocator<char> > >, float> > >, std::__ndk1::equal_to<std::__ndk1::basic_string<char, std::__ndk1::char_traits<char>, std::__ndk1::allocator<char> > >, std::__ndk1::hash<std::__ndk1::basic_string<char, std::__ndk1::char_traits<char>, std::__ndk1::allocator<char> > >, true>, std::__ndk1::allocator<std::__ndk1::__hash_value_type<std::__ndk1::basic_string<char, std::__ndk1::char_traits<char>, std::__ndk1::allocator<char> >, geode::EventListener<geode::Task<geode::Result<void, std::__ndk1::basic_string<char, std::__ndk1::char_traits<char>, std::__ndk1::allocator<char> > >, float> > > > >::__deallocate_node(std::__ndk1::__hash_node_base<std::__ndk1::__hash_node<std::__ndk1::__hash_value_type<std::__ndk1::basic_string<char, std::__ndk1::char_traits<char>, std::__ndk1::allocator<char> >, geode::EventListener<geode::Task<geode::Result<void, std::__ndk1::basic_string<char, std::__ndk1::char_traits<char>, std::__ndk1::allocator<char> > >, float> > >, void*>*>*)
PUBLIC 78430 0 geode::EventListener<geode::Task<geode::Result<void, std::__ndk1::basic_string<char, std::__ndk1::char_traits<char>, std::__ndk1::allocator<char> > >, float> >::~EventListener()
PUBLIC 784cc 0 geode::EventListener<geode::Task<geode::Result<void, std::__ndk1::basic_string<char, std::__ndk1::char_traits<char>, std::__ndk1::allocator<char> > >, float> >::getPool() const
PUBLIC 784d0 0 geode::EventListener<geode::Task<geode::Result<void, std::__ndk1::basic_string<char, std::__ndk1::char_traits<char>, std::__ndk1::allocator<char> > >, float> >::handle(geode::Event*)
PUBLIC 7869c 0 geode::EventListener<geode::Task<geode::Result<void, std::__ndk1::basic_string<char, std::__ndk1::char_traits<char>, std::__ndk1::allocator<char> > >, float> >::~EventListener()
PUBLIC 78740 0 jukebox::index::IndexMetadata::~IndexMetadata()
PUBLIC 788a8 0 jukebox::index::IndexSongMetadata::~IndexSongMetadata()
PUBLIC 7894c 0 std::__ndk1::__optional_destruct_base<jukebox::index::IndexMetadata::Features::Submit, false>::~__optional_destruct_base[abi:ne180000]()
PUBLIC 789d0 0 geode::EventListener<geode::ModStateFilter>::getPool() const
PUBLIC 789d4 0 geode::EventListener<geode::ModStateFilter>::handle(geode::Event*)
PUBLIC 78b48 0 geode::EventListener<geode::ModStateFilter>::~EventListener()
PUBLIC 78ba4 0 geode::EventListener<geode::ModStateFilter>::~EventListener()
PUBLIC 78c08 0 std::__ndk1::__function::__base<void (geode::ModStateEvent*)>::~__base()
PUBLIC 78c0c 0 std::__ndk1::__function::__func<void (*)(geode::ModStateEvent*), std::__ndk1::allocator<void (*)(geode::ModStateEvent*)>, void (geode::ModStateEvent*)>::~__func()
PUBLIC 78c10 0 std::__ndk1::__function::__func<void (*)(geode::ModStateEvent*), std::__ndk1::allocator<void (*)(geode::ModStateEvent*)>, void (geode::ModStateEvent*)>::__clone() const
PUBLIC 78c44 0 std::__ndk1::__function::__func<void (*)(geode::ModStateEvent*), std::__ndk1::allocator<void (*)(geode::ModStateEvent*)>, void (geode::ModStateEvent*)>::__clone(std::__ndk1::__function::__base<void (geode::ModStateEvent*)>*) const
PUBLIC 78c58 0 std::__ndk1::__function::__func<void (*)(geode::ModStateEvent*), std::__ndk1::allocator<void (*)(geode::ModStateEvent*)>, void (geode::ModStateEvent*)>::destroy()
PUBLIC 78c5c 0 std::__ndk1::__function::__func<void (*)(geode::ModStateEvent*), std::__ndk1::allocator<void (*)(geode::ModStateEvent*)>, void (geode::ModStateEvent*)>::destroy_deallocate()
PUBLIC 78c60 0 std::__ndk1::__function::__func<void (*)(geode::ModStateEvent*), std::__ndk1::allocator<void (*)(geode::ModStateEvent*)>, void (geode::ModStateEvent*)>::operator()(geode::ModStateEvent*&&)
PUBLIC 78c70 0 std::__ndk1::__function::__func<void (*)(geode::ModStateEvent*), std::__ndk1::allocator<void (*)(geode::ModStateEvent*)>, void (geode::ModStateEvent*)>::target(std::type_info const&) const
PUBLIC 78c8c 0 std::__ndk1::__function::__func<void (*)(geode::ModStateEvent*), std::__ndk1::allocator<void (*)(geode::ModStateEvent*)>, void (geode::ModStateEvent*)>::target_type() const
PUBLIC 78c98 0 _GLOBAL__sub_I_main.cpp
PUBLIC 78ea4 0 jukebox::IndexManager::init()
PUBLIC 79030 0 jukebox::IndexManager::baseIndexesPath()
PUBLIC 791a0 0 jukebox::IndexManager::fetchIndexes()
PUBLIC 7a590 0 geode::impl::ResultData<void, std::__ndk1::basic_string<char, std::__ndk1::char_traits<char>, std::__ndk1::allocator<char> > >::~ResultData()
PUBLIC 7a604 0 std::__ndk1::__fs::filesystem::path::~path[abi:ne180000]()
PUBLIC 7a618 0 geode::Mod::get<void>()
PUBLIC 7a654 0 jukebox::Indexes::~Indexes()
PUBLIC 7a6d0 0 std::__ndk1::__fs::filesystem::operator/[abi:ne180000](std::__ndk1::__fs::filesystem::path const&, std::__ndk1::__fs::filesystem::path const)
PUBLIC 7a744 0 std::__ndk1::__fs::filesystem::path::path[abi:ne180000]<char [14], void>(std::__ndk1::__fs::filesystem::path::format)
PUBLIC 7a794 0 jukebox::IndexManager::loadIndex(matjson::Value&&)
PUBLIC 7d33c 0 matjson::Serialize<jukebox::index::IndexMetadata>::fromJson(matjson::Value const&)
PUBLIC 7ec28 0 jukebox::index::IndexMetadata::IndexMetadata(jukebox::index::IndexMetadata&&)
PUBLIC 7ee6c 0 std::__ndk1::unique_ptr<jukebox::index::IndexSongMetadata, std::__ndk1::default_delete<jukebox::index::IndexSongMetadata> >::~unique_ptr[abi:ne180000]()
PUBLIC 7eea8 0 geode::impl::ResultData<jukebox::index::IndexSongMetadata, std::__ndk1::basic_string<char, std::__ndk1::char_traits<char>, std::__ndk1::allocator<char> > >::~ResultData()
PUBLIC 7ef1c 0 std::__ndk1::unique_ptr<jukebox::index::IndexMetadata, std::__ndk1::default_delete<jukebox::index::IndexMetadata> >::~unique_ptr[abi:ne180000]()
PUBLIC 7ef58 0 geode::impl::ResultData<jukebox::index::IndexMetadata, std::__ndk1::basic_string<char, std::__ndk1::char_traits<char>, std::__ndk1::allocator<char> > >::~ResultData()
PUBLIC 7efcc 0 geode::Task<geode::Result<matjson::Value, std::__ndk1::basic_string<char, std::__ndk1::char_traits<char>, std::__ndk1::allocator<char> > >, float>::~Task()
PUBLIC 7f01c 0 std::__ndk1::vector<jukebox::index::IndexSource, std::__ndk1::allocator<jukebox::index::IndexSource> >::~vector[abi:ne180000]()
PUBLIC 7f098 0 geode::impl::ResultData<std::__ndk1::vector<jukebox::index::IndexSource, std::__ndk1::allocator<jukebox::index::IndexSource> >, std::__ndk1::basic_string<char, std::__ndk1::char_traits<char>, std::__ndk1::allocator<char> > >::~ResultData()
PUBLIC m 7f10c 0 std::__ndk1::basic_ofstream<char, std::__ndk1::char_traits<char> >::~basic_ofstream()
PUBLIC 7f15c 0 jukebox::IndexManager::getIndexName(std::__ndk1::basic_string<char, std::__ndk1::char_traits<char>, std::__ndk1::allocator<char> > const&)
PUBLIC 7f320 0 geode::Mod::getSavedValue<matjson::Value>(std::__ndk1::basic_string_view<char, std::__ndk1::char_traits<char> >)
PUBLIC 7f4e8 0 jukebox::IndexManager::downloadSong(int, std::__ndk1::basic_string<char, std::__ndk1::char_traits<char>, std::__ndk1::allocator<char> > const&)
PUBLIC 80904 0 geode::impl::ResultData<geode::Task<geode::Result<std::__ndk1::vector<unsigned char, std::__ndk1::allocator<unsigned char> >, std::__ndk1::basic_string<char, std::__ndk1::char_traits<char>, std::__ndk1::allocator<char> > >, float>, std::__ndk1::basic_string<char, std::__ndk1::char_traits<char>, std::__ndk1::allocator<char> > >::~ResultData()
PUBLIC 80978 0 jukebox::NongManager::baseNongsPath()
PUBLIC 80af0 0 jukebox::IndexManager::onDownloadFinish(std::__ndk1::variant<jukebox::index::IndexSongMetadata*, jukebox::Song*>&&, jukebox::Nongs*, std::__ndk1::vector<unsigned char, std::__ndk1::allocator<unsigned char> >&&)::$_0::~$_0()
PUBLIC 80b34 0 geode::impl::ResultData<jukebox::HostedSong*, std::__ndk1::basic_string<char, std::__ndk1::char_traits<char>, std::__ndk1::allocator<char> > >::~ResultData()
PUBLIC 80ba8 0 geode::impl::ResultData<jukebox::YTSong*, std::__ndk1::basic_string<char, std::__ndk1::char_traits<char>, std::__ndk1::allocator<char> > >::~ResultData()
PUBLIC 80c1c 0 jukebox::IndexManager::onDownloadStart(jukebox::event::StartDownload*)
PUBLIC 80f54 0 jukebox::IndexManager::registerIndexNongs(jukebox::Nongs*)
PUBLIC 81534 0 std::__ndk1::vector<jukebox::index::IndexSource, std::__ndk1::allocator<jukebox::index::IndexSource> >::__init_with_size[abi:ne180000]<jukebox::index::IndexSource*, std::__ndk1::vector<jukebox::index::IndexSource, std::__ndk1::allocator<jukebox::index::IndexSource> >::__init_with_size[abi:ne180000]>(jukebox::index::IndexSource*, std::__ndk1::vector<jukebox::index::IndexSource, std::__ndk1::allocator<jukebox::index::IndexSource> >::__init_with_size[abi:ne180000], unsigned long)
PUBLIC 81690 0 std::__ndk1::__exception_guard_exceptions<std::__ndk1::vector<jukebox::index::IndexSource, std::__ndk1::allocator<jukebox::index::IndexSource> >::__destroy_vector>::~__exception_guard_exceptions[abi:ne180000]()
PUBLIC 8171c 0 std::__ndk1::vector<jukebox::index::IndexSource, std::__ndk1::allocator<jukebox::index::IndexSource> >::__throw_length_error[abi:ne180000]() const
PUBLIC 81730 0 std::__ndk1::__exception_guard_exceptions<std::__ndk1::_AllocatorDestroyRangeReverse<std::__ndk1::allocator<jukebox::index::IndexSource>, jukebox::index::IndexSource*> >::~__exception_guard_exceptions[abi:ne180000]()
PUBLIC 81790 0 _ZN5geode6ResultIN7jukebox5index13IndexMetadataENSt6__ndk112basic_stringIcNS4_11char_traitsIcEENS4_9allocatorIcEEEEECI2NS_4impl17ResultDataWrapperIS3_SA_EEIRA41_KcQsr3stdE18constructible_fromIT0_TL0__EEEONSC_12ErrContainerIT_EE
PUBLIC 81830 0 std::__ndk1::optional<std::__ndk1::basic_string<char, std::__ndk1::char_traits<char>, std::__ndk1::allocator<char> > >::operator=[abi:ne180000]<std::__ndk1::basic_string<char, std::__ndk1::char_traits<char>, std::__ndk1::allocator<char> >, void>(std::__ndk1::basic_string<char, std::__ndk1::char_traits<char>, std::__ndk1::allocator<char> >&&)
PUBLIC 818ac 0 jukebox::index::IndexMetadata::Features::~Features()
PUBLIC 818f0 0 _ZN5geode6ResultIN7jukebox5index13IndexMetadataENSt6__ndk112basic_stringIcNS4_11char_traitsIcEENS4_9allocatorIcEEEEECI2NS_4impl17ResultDataWrapperIS3_SA_EEIRA12_KcQsr3stdE18constructible_fromIT0_TL0__EEEONSC_12ErrContainerIT_EE
PUBLIC 81990 0 _ZN5geode6ResultIN7jukebox5index13IndexMetadataENSt6__ndk112basic_stringIcNS4_11char_traitsIcEENS4_9allocatorIcEEEEECI2NS_4impl17ResultDataWrapperIS3_SA_EEIRA29_KcQsr3stdE18constructible_fromIT0_TL0__EEEONSC_12ErrContainerIT_EE
PUBLIC 81a30 0 _ZNO5geode6ResultINSt6__ndk112basic_stringIcNS1_11char_traitsIcEENS1_9allocatorIcEEEES7_E3mapIZN7matjson9SerializeIN7jukebox5index13IndexMetadataEE8fromJsonERKNSA_5ValueEEUlT_E_Qsr3stdE9invocableITL0__SJ_EEENS0_INS1_13invoke_resultISJ_JS7_EE4typeES7_EEOSJ_
PUBLIC 81bc8 0 _ZNO5geode6ResultIlNSt6__ndk112basic_stringIcNS1_11char_traitsIcEENS1_9allocatorIcEEEEE3mapIZN7matjson9SerializeIN7jukebox5index13IndexMetadataEE8fromJsonERKNSA_5ValueEEUlT_E0_Qsr3stdE9invocableITL0__SJ_EEENS0_INS1_13invoke_resultISJ_JlEE4typeES7_EEOSJ_
PUBLIC 81ca4 0 jukebox::index::IndexMetadata::Links::Links(jukebox::index::IndexMetadata::Links const&)
PUBLIC 81d28 0 geode::impl::ResultData<jukebox::index::IndexMetadata::Features, std::__ndk1::basic_string<char, std::__ndk1::char_traits<char>, std::__ndk1::allocator<char> > >::unwrap() &
PUBLIC 81da8 0 jukebox::index::IndexMetadata::Features::Features(jukebox::index::IndexMetadata::Features const&)
PUBLIC 81ea0 0 geode::impl::ResultData<std::__ndk1::optional<long>, std::__ndk1::basic_string<char, std::__ndk1::char_traits<char>, std::__ndk1::allocator<char> > >::~ResultData()
PUBLIC 81f14 0 geode::impl::ResultData<std::__ndk1::optional<std::__ndk1::basic_string<char, std::__ndk1::char_traits<char>, std::__ndk1::allocator<char> > >, std::__ndk1::basic_string<char, std::__ndk1::char_traits<char>, std::__ndk1::allocator<char> > >::~ResultData()
PUBLIC 81f88 0 geode::impl::ResultData<jukebox::index::IndexMetadata::Features, std::__ndk1::basic_string<char, std::__ndk1::char_traits<char>, std::__ndk1::allocator<char> > >::~ResultData()
PUBLIC 81ffc 0 _ZN5geode6ResultIN7jukebox5index13IndexMetadata8FeaturesENSt6__ndk112basic_stringIcNS5_11char_traitsIcEENS5_9allocatorIcEEEEECI2NS_4impl17ResultDataWrapperIS4_SB_EEIRA51_KcQsr3stdE18constructible_fromIT0_TL0__EEEONSD_12ErrContainerIT_EE
PUBLIC 8209c 0 _ZN5geode6ResultIN7jukebox5index13IndexMetadata8FeaturesENSt6__ndk112basic_stringIcNS5_11char_traitsIcEENS5_9allocatorIcEEEEECI2NS_4impl17ResultDataWrapperIS4_SB_EEIRA53_KcQsr3stdE18constructible_fromIT0_TL0__EEEONSD_12ErrContainerIT_EE
PUBLIC 8213c 0 geode::impl::ResultData<jukebox::index::IndexMetadata::Features::SupportedSongType, std::__ndk1::basic_string<char, std::__ndk1::char_traits<char>, std::__ndk1::allocator<char> > >::~ResultData()
PUBLIC 821b0 0 matjson::Serialize<jukebox::index::IndexMetadata::Features::RequestParams>::fromJson(matjson::Value const&, int)
PUBLIC 824dc 0 geode::impl::ResultData<jukebox::index::IndexMetadata::Features::RequestParams, std::__ndk1::basic_string<char, std::__ndk1::char_traits<char>, std::__ndk1::allocator<char> > >::unwrapErr() &
PUBLIC 82550 0 geode::impl::ResultData<jukebox::index::IndexMetadata::Features::RequestParams, std::__ndk1::basic_string<char, std::__ndk1::char_traits<char>, std::__ndk1::allocator<char> > >::unwrap() &
PUBLIC 825c8 0 std::__ndk1::optional<jukebox::index::IndexMetadata::Features::RequestParams>::operator=[abi:ne180000]<jukebox::index::IndexMetadata::Features::RequestParams&, void>(jukebox::index::IndexMetadata::Features::RequestParams&)
PUBLIC 826a8 0 geode::impl::ResultData<jukebox::index::IndexMetadata::Features::RequestParams, std::__ndk1::basic_string<char, std::__ndk1::char_traits<char>, std::__ndk1::allocator<char> > >::~ResultData()
PUBLIC 8271c 0 std::__ndk1::__hash_table<std::__ndk1::__hash_value_type<jukebox::index::IndexMetadata::Features::SupportedSongType, bool>, std::__ndk1::__unordered_map_hasher<jukebox::index::IndexMetadata::Features::SupportedSongType, std::__ndk1::__hash_value_type<jukebox::index::IndexMetadata::Features::SupportedSongType, bool>, std::__ndk1::hash<jukebox::index::IndexMetadata::Features::SupportedSongType>, std::__ndk1::equal_to<jukebox::index::IndexMetadata::Features::SupportedSongType>, true>, std::__ndk1::__unordered_map_equal<jukebox::index::IndexMetadata::Features::SupportedSongType, std::__ndk1::__hash_value_type<jukebox::index::IndexMetadata::Features::SupportedSongType, bool>, std::__ndk1::equal_to<jukebox::index::IndexMetadata::Features::SupportedSongType>, std::__ndk1::hash<jukebox::index::IndexMetadata::Features::SupportedSongType>, true>, std::__ndk1::allocator<std::__ndk1::__hash_value_type<jukebox::index::IndexMetadata::Features::SupportedSongType, bool> > >::~__hash_table()
PUBLIC 82768 0 std::__ndk1::__hash_table<std::__ndk1::__hash_value_type<jukebox::index::IndexMetadata::Features::SupportedSongType, bool>, std::__ndk1::__unordered_map_hasher<jukebox::index::IndexMetadata::Features::SupportedSongType, std::__ndk1::__hash_value_type<jukebox::index::IndexMetadata::Features::SupportedSongType, bool>, std::__ndk1::hash<jukebox::index::IndexMetadata::Features::SupportedSongType>, std::__ndk1::equal_to<jukebox::index::IndexMetadata::Features::SupportedSongType>, true>, std::__ndk1::__unordered_map_equal<jukebox::index::IndexMetadata::Features::SupportedSongType, std::__ndk1::__hash_value_type<jukebox::index::IndexMetadata::Features::SupportedSongType, bool>, std::__ndk1::equal_to<jukebox::index::IndexMetadata::Features::SupportedSongType>, std::__ndk1::hash<jukebox::index::IndexMetadata::Features::SupportedSongType>, true>, std::__ndk1::allocator<std::__ndk1::__hash_value_type<jukebox::index::IndexMetadata::Features::SupportedSongType, bool> > >::__emplace_unique_key_args<jukebox::index::IndexMetadata::Features::SupportedSongType, std::__ndk1::pair<jukebox::index::IndexMetadata::Features::SupportedSongType const, bool> const&>(jukebox::index::IndexMetadata::Features::SupportedSongType const&, std::__ndk1::pair<jukebox::index::IndexMetadata::Features::SupportedSongType const, bool> const&)
PUBLIC 82a8c 0 std::__ndk1::__hash_table<std::__ndk1::__hash_value_type<jukebox::index::IndexMetadata::Features::SupportedSongType, bool>, std::__ndk1::__unordered_map_hasher<jukebox::index::IndexMetadata::Features::SupportedSongType, std::__ndk1::__hash_value_type<jukebox::index::IndexMetadata::Features::SupportedSongType, bool>, std::__ndk1::hash<jukebox::index::IndexMetadata::Features::SupportedSongType>, std::__ndk1::equal_to<jukebox::index::IndexMetadata::Features::SupportedSongType>, true>, std::__ndk1::__unordered_map_equal<jukebox::index::IndexMetadata::Features::SupportedSongType, std::__ndk1::__hash_value_type<jukebox::index::IndexMetadata::Features::SupportedSongType, bool>, std::__ndk1::equal_to<jukebox::index::IndexMetadata::Features::SupportedSongType>, std::__ndk1::hash<jukebox::index::IndexMetadata::Features::SupportedSongType>, true>, std::__ndk1::allocator<std::__ndk1::__hash_value_type<jukebox::index::IndexMetadata::Features::SupportedSongType, bool> > >::__do_rehash<true>(unsigned long)
PUBLIC 82c38 0 std::__ndk1::__variant_detail::__visitation::__base::__dispatcher<(unsigned long)0>::__dispatch[abi:ne180000]<std::__ndk1::__variant_detail::__dtor<std::__ndk1::__variant_detail::__traits<jukebox::index::IndexMetadata::Features::SupportedSongType, std::__ndk1::basic_string<char, std::__ndk1::char_traits<char>, std::__ndk1::allocator<char> > >, (std::__ndk1::__variant_detail::_Trait)1>::__destroy[abi:ne180000]()::{lambda(auto:1&)#1}, std::__ndk1::__variant_detail::__base<(std::__ndk1::__variant_detail::__traits<jukebox::index::IndexMetadata::Features::SupportedSongType, std::__ndk1::basic_string<char, std::__ndk1::char_traits<char>, std::__ndk1::allocator<char> > >)1, jukebox::index::IndexMetadata::Features, std::__ndk1::allocator<char> >&>(std::__ndk1::__variant_detail::__dtor<std::__ndk1::__variant_detail::__traits<jukebox::index::IndexMetadata::Features::SupportedSongType, std::__ndk1::basic_string<char, std::__ndk1::char_traits<char>, std::__ndk1::allocator<char> > >, (std::__ndk1::__variant_detail::_Trait)1>, std::__ndk1::__variant_detail::__base<(std::__ndk1::__variant_detail::__traits<jukebox::index::IndexMetadata::Features::SupportedSongType, std::__ndk1::basic_string<char, std::__ndk1::char_traits<char>, std::__ndk1::allocator<char> > >)1, jukebox::index::IndexMetadata::Features, std::__ndk1::allocator<char> >&)
PUBLIC 82c3c 0 std::__ndk1::__variant_detail::__visitation::__base::__dispatcher<(unsigned long)1>::__dispatch[abi:ne180000]<std::__ndk1::__variant_detail::__dtor<std::__ndk1::__variant_detail::__traits<jukebox::index::IndexMetadata::Features::SupportedSongType, std::__ndk1::basic_string<char, std::__ndk1::char_traits<char>, std::__ndk1::allocator<char> > >, (std::__ndk1::__variant_detail::_Trait)1>::__destroy[abi:ne180000]()::{lambda(auto:1&)#1}, std::__ndk1::__variant_detail::__base<(std::__ndk1::__variant_detail::__traits<jukebox::index::IndexMetadata::Features::SupportedSongType, std::__ndk1::basic_string<char, std::__ndk1::char_traits<char>, std::__ndk1::allocator<char> > >)1, jukebox::index::IndexMetadata::Features, std::__ndk1::allocator<char> >&>(std::__ndk1::__variant_detail::__dtor<std::__ndk1::__variant_detail::__traits<jukebox::index::IndexMetadata::Features::SupportedSongType, std::__ndk1::basic_string<char, std::__ndk1::char_traits<char>, std::__ndk1::allocator<char> > >, (std::__ndk1::__variant_detail::_Trait)1>, std::__ndk1::__variant_detail::__base<(std::__ndk1::__variant_detail::__traits<jukebox::index::IndexMetadata::Features::SupportedSongType, std::__ndk1::basic_string<char, std::__ndk1::char_traits<char>, std::__ndk1::allocator<char> > >)1, jukebox::index::IndexMetadata::Features, std::__ndk1::allocator<char> >&)
PUBLIC 82c50 0 geode::impl::ResultData<bool, std::__ndk1::basic_string<char, std::__ndk1::char_traits<char>, std::__ndk1::allocator<char> > >::~ResultData()
PUBLIC 82cc4 0 _ZN5geode15UnwrapExceptionC2IRN7jukebox5index13IndexMetadata8Features13RequestParamsEQntsr4implE18IsStringStreamableIT_EEENS_4impl5OkTagEOS8_
PUBLIC 82cf8 0 std::__ndk1::__variant_detail::__visitation::__base::__dispatcher<(unsigned long)0>::__dispatch[abi:ne180000]<std::__ndk1::__variant_detail::__dtor<std::__ndk1::__variant_detail::__traits<jukebox::index::IndexMetadata::Features::RequestParams, std::__ndk1::basic_string<char, std::__ndk1::char_traits<char>, std::__ndk1::allocator<char> > >, (std::__ndk1::__variant_detail::_Trait)1>::__destroy[abi:ne180000]()::{lambda(auto:1&)#1}, std::__ndk1::__variant_detail::__base<(std::__ndk1::__variant_detail::__traits<jukebox::index::IndexMetadata::Features::RequestParams, std::__ndk1::basic_string<char, std::__ndk1::char_traits<char>, std::__ndk1::allocator<char> > >)1, jukebox::index::IndexMetadata::Features, std::__ndk1::allocator<char> >&>(std::__ndk1::__variant_detail::__dtor<std::__ndk1::__variant_detail::__traits<jukebox::index::IndexMetadata::Features::RequestParams, std::__ndk1::basic_string<char, std::__ndk1::char_traits<char>, std::__ndk1::allocator<char> > >, (std::__ndk1::__variant_detail::_Trait)1>, std::__ndk1::__variant_detail::__base<(std::__ndk1::__variant_detail::__traits<jukebox::index::IndexMetadata::Features::RequestParams, std::__ndk1::basic_string<char, std::__ndk1::char_traits<char>, std::__ndk1::allocator<char> > >)1, jukebox::index::IndexMetadata::Features, std::__ndk1::allocator<char> >&)
PUBLIC 82d0c 0 std::__ndk1::__variant_detail::__visitation::__base::__dispatcher<(unsigned long)1>::__dispatch[abi:ne180000]<std::__ndk1::__variant_detail::__dtor<std::__ndk1::__variant_detail::__traits<jukebox::index::IndexMetadata::Features::RequestParams, std::__ndk1::basic_string<char, std::__ndk1::char_traits<char>, std::__ndk1::allocator<char> > >, (std::__ndk1::__variant_detail::_Trait)1>::__destroy[abi:ne180000]()::{lambda(auto:1&)#1}, std::__ndk1::__variant_detail::__base<(std::__ndk1::__variant_detail::__traits<jukebox::index::IndexMetadata::Features::RequestParams, std::__ndk1::basic_string<char, std::__ndk1::char_traits<char>, std::__ndk1::allocator<char> > >)1, jukebox::index::IndexMetadata::Features, std::__ndk1::allocator<char> >&>(std::__ndk1::__variant_detail::__dtor<std::__ndk1::__variant_detail::__traits<jukebox::index::IndexMetadata::Features::RequestParams, std::__ndk1::basic_string<char, std::__ndk1::char_traits<char>, std::__ndk1::allocator<char> > >, (std::__ndk1::__variant_detail::_Trait)1>, std::__ndk1::__variant_detail::__base<(std::__ndk1::__variant_detail::__traits<jukebox::index::IndexMetadata::Features::RequestParams, std::__ndk1::basic_string<char, std::__ndk1::char_traits<char>, std::__ndk1::allocator<char> > >)1, jukebox::index::IndexMetadata::Features, std::__ndk1::allocator<char> >&)
PUBLIC 82d20 0 std::__ndk1::__optional_destruct_base<jukebox::index::IndexMetadata::Features::Report, false>::~__optional_destruct_base[abi:ne180000]()
PUBLIC 82d44 0 jukebox::index::IndexMetadata::Features::Submit::Submit(jukebox::index::IndexMetadata::Features::Submit const&)
PUBLIC 82e54 0 std::__ndk1::unordered_map<jukebox::index::IndexMetadata::Features::SupportedSongType, bool, std::__ndk1::hash<jukebox::index::IndexMetadata::Features::SupportedSongType>, std::__ndk1::equal_to<jukebox::index::IndexMetadata::Features::SupportedSongType>, std::__ndk1::allocator<std::__ndk1::pair<jukebox::index::IndexMetadata::Features::SupportedSongType const, bool> > >::unordered_map(std::__ndk1::unordered_map<jukebox::index::IndexMetadata::Features::SupportedSongType, bool, std::__ndk1::hash<jukebox::index::IndexMetadata::Features::SupportedSongType>, std::__ndk1::equal_to<jukebox::index::IndexMetadata::Features::SupportedSongType>, std::__ndk1::allocator<std::__ndk1::pair<jukebox::index::IndexMetadata::Features::SupportedSongType const, bool> > > const&)
PUBLIC 82f90 0 std::__ndk1::__variant_detail::__visitation::__base::__dispatcher<(unsigned long)0>::__dispatch[abi:ne180000]<std::__ndk1::__variant_detail::__dtor<std::__ndk1::__variant_detail::__traits<std::__ndk1::optional<long>, std::__ndk1::basic_string<char, std::__ndk1::char_traits<char>, std::__ndk1::allocator<char> > >, (std::__ndk1::__variant_detail::_Trait)1>::__destroy[abi:ne180000]()::{lambda(auto:1&)#1}, std::__ndk1::__variant_detail::__base<(std::__ndk1::__variant_detail::__traits<std::__ndk1::optional<long>, std::__ndk1::basic_string<char, std::__ndk1::char_traits<char>, std::__ndk1::allocator<char> > >)1, std::__ndk1::optional, std::__ndk1::allocator<char> >&>(std::__ndk1::__variant_detail::__dtor<std::__ndk1::__variant_detail::__traits<std::__ndk1::optional<long>, std::__ndk1::basic_string<char, std::__ndk1::char_traits<char>, std::__ndk1::allocator<char> > >, (std::__ndk1::__variant_detail::_Trait)1>, std::__ndk1::__variant_detail::__base<(std::__ndk1::__variant_detail::__traits<std::__ndk1::optional<long>, std::__ndk1::basic_string<char, std::__ndk1::char_traits<char>, std::__ndk1::allocator<char> > >)1, std::__ndk1::optional, std::__ndk1::allocator<char> >&)
PUBLIC 82f94 0 std::__ndk1::__variant_detail::__visitation::__base::__dispatcher<(unsigned long)1>::__dispatch[abi:ne180000]<std::__ndk1::__variant_detail::__dtor<std::__ndk1::__variant_detail::__traits<std::__ndk1::optional<long>, std::__ndk1::basic_string<char, std::__ndk1::char_traits<char>, std::__ndk1::allocator<char> > >, (std::__ndk1::__variant_detail::_Trait)1>::__destroy[abi:ne180000]()::{lambda(auto:1&)#1}, std::__ndk1::__variant_detail::__base<(std::__ndk1::__variant_detail::__traits<std::__ndk1::optional<long>, std::__ndk1::basic_string<char, std::__ndk1::char_traits<char>, std::__ndk1::allocator<char> > >)1, std::__ndk1::optional, std::__ndk1::allocator<char> >&>(std::__ndk1::__variant_detail::__dtor<std::__ndk1::__variant_detail::__traits<std::__ndk1::optional<long>, std::__ndk1::basic_string<char, std::__ndk1::char_traits<char>, std::__ndk1::allocator<char> > >, (std::__ndk1::__variant_detail::_Trait)1>, std::__ndk1::__variant_detail::__base<(std::__ndk1::__variant_detail::__traits<std::__ndk1::optional<long>, std::__ndk1::basic_string<char, std::__ndk1::char_traits<char>, std::__ndk1::allocator<char> > >)1, std::__ndk1::optional, std::__ndk1::allocator<char> >&)
PUBLIC 82fa8 0 std::__ndk1::__variant_detail::__visitation::__base::__dispatcher<(unsigned long)0>::__dispatch[abi:ne180000]<std::__ndk1::__variant_detail::__dtor<std::__ndk1::__variant_detail::__traits<std::__ndk1::optional<std::__ndk1::basic_string<char, std::__ndk1::char_traits<char>, std::__ndk1::allocator<char> > >, std::__ndk1::allocator<char> >, (std::__ndk1::__variant_detail::_Trait)1>::__destroy[abi:ne180000]()::{lambda(auto:1&)#1}, std::__ndk1::__variant_detail::__base<(std::__ndk1::__variant_detail::__traits<std::__ndk1::optional<std::__ndk1::basic_string<char, std::__ndk1::char_traits<char>, std::__ndk1::allocator<char> > >, std::__ndk1::allocator<char> >)1, std::__ndk1::basic_string<char, std::__ndk1::char_traits<char>, std::__ndk1::allocator<char> >, std::__ndk1::allocator<char> >&>(std::__ndk1::__variant_detail::__dtor<std::__ndk1::__variant_detail::__traits<std::__ndk1::optional<std::__ndk1::basic_string<char, std::__ndk1::char_traits<char>, std::__ndk1::allocator<char> > >, std::__ndk1::allocator<char> >, (std::__ndk1::__variant_detail::_Trait)1>, std::__ndk1::__variant_detail::__base<(std::__ndk1::__variant_detail::__traits<std::__ndk1::optional<std::__ndk1::basic_string<char, std::__ndk1::char_traits<char>, std::__ndk1::allocator<char> > >, std::__ndk1::allocator<char> >)1, std::__ndk1::basic_string<char, std::__ndk1::char_traits<char>, std::__ndk1::allocator<char> >, std::__ndk1::allocator<char> >&)
PUBLIC 82fc4 0 std::__ndk1::__variant_detail::__visitation::__base::__dispatcher<(unsigned long)1>::__dispatch[abi:ne180000]<std::__ndk1::__variant_detail::__dtor<std::__ndk1::__variant_detail::__traits<std::__ndk1::optional<std::__ndk1::basic_string<char, std::__ndk1::char_traits<char>, std::__ndk1::allocator<char> > >, std::__ndk1::allocator<char> >, (std::__ndk1::__variant_detail::_Trait)1>::__destroy[abi:ne180000]()::{lambda(auto:1&)#1}, std::__ndk1::__variant_detail::__base<(std::__ndk1::__variant_detail::__traits<std::__ndk1::optional<std::__ndk1::basic_string<char, std::__ndk1::char_traits<char>, std::__ndk1::allocator<char> > >, std::__ndk1::allocator<char> >)1, std::__ndk1::basic_string<char, std::__ndk1::char_traits<char>, std::__ndk1::allocator<char> >, std::__ndk1::allocator<char> >&>(std::__ndk1::__variant_detail::__dtor<std::__ndk1::__variant_detail::__traits<std::__ndk1::optional<std::__ndk1::basic_string<char, std::__ndk1::char_traits<char>, std::__ndk1::allocator<char> > >, std::__ndk1::allocator<char> >, (std::__ndk1::__variant_detail::_Trait)1>, std::__ndk1::__variant_detail::__base<(std::__ndk1::__variant_detail::__traits<std::__ndk1::optional<std::__ndk1::basic_string<char, std::__ndk1::char_traits<char>, std::__ndk1::allocator<char> > >, std::__ndk1::allocator<char> >)1, std::__ndk1::basic_string<char, std::__ndk1::char_traits<char>, std::__ndk1::allocator<char> >, std::__ndk1::allocator<char> >&)
PUBLIC 82fd8 0 std::__ndk1::__variant_detail::__visitation::__base::__dispatcher<(unsigned long)0>::__dispatch[abi:ne180000]<std::__ndk1::__variant_detail::__dtor<std::__ndk1::__variant_detail::__traits<jukebox::index::IndexMetadata::Features, std::__ndk1::basic_string<char, std::__ndk1::char_traits<char>, std::__ndk1::allocator<char> > >, (std::__ndk1::__variant_detail::_Trait)1>::__destroy[abi:ne180000]()::{lambda(auto:1&)#1}, std::__ndk1::__variant_detail::__base<(std::__ndk1::__variant_detail::__traits<jukebox::index::IndexMetadata::Features, std::__ndk1::basic_string<char, std::__ndk1::char_traits<char>, std::__ndk1::allocator<char> > >)1, jukebox::index::IndexMetadata, std::__ndk1::allocator<char> >&>(std::__ndk1::__variant_detail::__dtor<std::__ndk1::__variant_detail::__traits<jukebox::index::IndexMetadata::Features, std::__ndk1::basic_string<char, std::__ndk1::char_traits<char>, std::__ndk1::allocator<char> > >, (std::__ndk1::__variant_detail::_Trait)1>, std::__ndk1::__variant_detail::__base<(std::__ndk1::__variant_detail::__traits<jukebox::index::IndexMetadata::Features, std::__ndk1::basic_string<char, std::__ndk1::char_traits<char>, std::__ndk1::allocator<char> > >)1, jukebox::index::IndexMetadata, std::__ndk1::allocator<char> >&)
PUBLIC 83020 0 std::__ndk1::__variant_detail::__visitation::__base::__dispatcher<(unsigned long)1>::__dispatch[abi:ne180000]<std::__ndk1::__variant_detail::__dtor<std::__ndk1::__variant_detail::__traits<jukebox::index::IndexMetadata::Features, std::__ndk1::basic_string<char, std::__ndk1::char_traits<char>, std::__ndk1::allocator<char> > >, (std::__ndk1::__variant_detail::_Trait)1>::__destroy[abi:ne180000]()::{lambda(auto:1&)#1}, std::__ndk1::__variant_detail::__base<(std::__ndk1::__variant_detail::__traits<jukebox::index::IndexMetadata::Features, std::__ndk1::basic_string<char, std::__ndk1::char_traits<char>, std::__ndk1::allocator<char> > >)1, jukebox::index::IndexMetadata, std::__ndk1::allocator<char> >&>(std::__ndk1::__variant_detail::__dtor<std::__ndk1::__variant_detail::__traits<jukebox::index::IndexMetadata::Features, std::__ndk1::basic_string<char, std::__ndk1::char_traits<char>, std::__ndk1::allocator<char> > >, (std::__ndk1::__variant_detail::_Trait)1>, std::__ndk1::__variant_detail::__base<(std::__ndk1::__variant_detail::__traits<jukebox::index::IndexMetadata::Features, std::__ndk1::basic_string<char, std::__ndk1::char_traits<char>, std::__ndk1::allocator<char> > >)1, jukebox::index::IndexMetadata, std::__ndk1::allocator<char> >&)
PUBLIC 83034 0 std::__ndk1::vector<jukebox::index::IndexSongMetadata*, std::__ndk1::allocator<jukebox::index::IndexSongMetadata*> >::__throw_length_error[abi:ne180000]() const
PUBLIC 83048 0 std::__ndk1::vector<std::__ndk1::unique_ptr<jukebox::index::IndexSongMetadata, std::__ndk1::default_delete<jukebox::index::IndexSongMetadata> >, std::__ndk1::allocator<std::__ndk1::unique_ptr<jukebox::index::IndexSongMetadata, std::__ndk1::default_delete<jukebox::index::IndexSongMetadata> > > >::__throw_length_error[abi:ne180000]() const
PUBLIC 8305c 0 std::__ndk1::__variant_detail::__visitation::__base::__dispatcher<(unsigned long)0>::__dispatch[abi:ne180000]<std::__ndk1::__variant_detail::__dtor<std::__ndk1::__variant_detail::__traits<jukebox::index::IndexSongMetadata, std::__ndk1::basic_string<char, std::__ndk1::char_traits<char>, std::__ndk1::allocator<char> > >, (std::__ndk1::__variant_detail::_Trait)1>::__destroy[abi:ne180000]()::{lambda(auto:1&)#1}, std::__ndk1::__variant_detail::__base<(std::__ndk1::__variant_detail::__traits<jukebox::index::IndexSongMetadata, std::__ndk1::basic_string<char, std::__ndk1::char_traits<char>, std::__ndk1::allocator<char> > >)1, jukebox::index, std::__ndk1::allocator<char> >&>(std::__ndk1::__variant_detail::__dtor<std::__ndk1::__variant_detail::__traits<jukebox::index::IndexSongMetadata, std::__ndk1::basic_string<char, std::__ndk1::char_traits<char>, std::__ndk1::allocator<char> > >, (std::__ndk1::__variant_detail::_Trait)1>, std::__ndk1::__variant_detail::__base<(std::__ndk1::__variant_detail::__traits<jukebox::index::IndexSongMetadata, std::__ndk1::basic_string<char, std::__ndk1::char_traits<char>, std::__ndk1::allocator<char> > >)1, jukebox::index, std::__ndk1::allocator<char> >&)
PUBLIC 83064 0 std::__ndk1::__variant_detail::__visitation::__base::__dispatcher<(unsigned long)1>::__dispatch[abi:ne180000]<std::__ndk1::__variant_detail::__dtor<std::__ndk1::__variant_detail::__traits<jukebox::index::IndexSongMetadata, std::__ndk1::basic_string<char, std::__ndk1::char_traits<char>, std::__ndk1::allocator<char> > >, (std::__ndk1::__variant_detail::_Trait)1>::__destroy[abi:ne180000]()::{lambda(auto:1&)#1}, std::__ndk1::__variant_detail::__base<(std::__ndk1::__variant_detail::__traits<jukebox::index::IndexSongMetadata, std::__ndk1::basic_string<char, std::__ndk1::char_traits<char>, std::__ndk1::allocator<char> > >)1, jukebox::index, std::__ndk1::allocator<char> >&>(std::__ndk1::__variant_detail::__dtor<std::__ndk1::__variant_detail::__traits<jukebox::index::IndexSongMetadata, std::__ndk1::basic_string<char, std::__ndk1::char_traits<char>, std::__ndk1::allocator<char> > >, (std::__ndk1::__variant_detail::_Trait)1>, std::__ndk1::__variant_detail::__base<(std::__ndk1::__variant_detail::__traits<jukebox::index::IndexSongMetadata, std::__ndk1::basic_string<char, std::__ndk1::char_traits<char>, std::__ndk1::allocator<char> > >)1, jukebox::index, std::__ndk1::allocator<char> >&)
PUBLIC 83078 0 std::__ndk1::__variant_detail::__visitation::__base::__dispatcher<(unsigned long)0>::__dispatch[abi:ne180000]<std::__ndk1::__variant_detail::__dtor<std::__ndk1::__variant_detail::__traits<jukebox::index::IndexMetadata, std::__ndk1::basic_string<char, std::__ndk1::char_traits<char>, std::__ndk1::allocator<char> > >, (std::__ndk1::__variant_detail::_Trait)1>::__destroy[abi:ne180000]()::{lambda(auto:1&)#1}, std::__ndk1::__variant_detail::__base<(std::__ndk1::__variant_detail::__traits<jukebox::index::IndexMetadata, std::__ndk1::basic_string<char, std::__ndk1::char_traits<char>, std::__ndk1::allocator<char> > >)1, jukebox::index, std::__ndk1::allocator<char> >&>(std::__ndk1::__variant_detail::__dtor<std::__ndk1::__variant_detail::__traits<jukebox::index::IndexMetadata, std::__ndk1::basic_string<char, std::__ndk1::char_traits<char>, std::__ndk1::allocator<char> > >, (std::__ndk1::__variant_detail::_Trait)1>, std::__ndk1::__variant_detail::__base<(std::__ndk1::__variant_detail::__traits<jukebox::index::IndexMetadata, std::__ndk1::basic_string<char, std::__ndk1::char_traits<char>, std::__ndk1::allocator<char> > >)1, jukebox::index, std::__ndk1::allocator<char> >&)
PUBLIC 83080 0 std::__ndk1::__variant_detail::__visitation::__base::__dispatcher<(unsigned long)1>::__dispatch[abi:ne180000]<std::__ndk1::__variant_detail::__dtor<std::__ndk1::__variant_detail::__traits<jukebox::index::IndexMetadata, std::__ndk1::basic_string<char, std::__ndk1::char_traits<char>, std::__ndk1::allocator<char> > >, (std::__ndk1::__variant_detail::_Trait)1>::__destroy[abi:ne180000]()::{lambda(auto:1&)#1}, std::__ndk1::__variant_detail::__base<(std::__ndk1::__variant_detail::__traits<jukebox::index::IndexMetadata, std::__ndk1::basic_string<char, std::__ndk1::char_traits<char>, std::__ndk1::allocator<char> > >)1, jukebox::index, std::__ndk1::allocator<char> >&>(std::__ndk1::__variant_detail::__dtor<std::__ndk1::__variant_detail::__traits<jukebox::index::IndexMetadata, std::__ndk1::basic_string<char, std::__ndk1::char_traits<char>, std::__ndk1::allocator<char> > >, (std::__ndk1::__variant_detail::_Trait)1>, std::__ndk1::__variant_detail::__base<(std::__ndk1::__variant_detail::__traits<jukebox::index::IndexMetadata, std::__ndk1::basic_string<char, std::__ndk1::char_traits<char>, std::__ndk1::allocator<char> > >)1, jukebox::index, std::__ndk1::allocator<char> >&)
PUBLIC 83094 0 std::__ndk1::shared_ptr<geode::Task<geode::Result<matjson::Value, std::__ndk1::basic_string<char, std::__ndk1::char_traits<char>, std::__ndk1::allocator<char> > >, float>::Handle>::~shared_ptr[abi:ne180000]()
PUBLIC 830e4 0 std::__ndk1::__variant_detail::__visitation::__base::__dispatcher<(unsigned long)0>::__dispatch[abi:ne180000]<std::__ndk1::__variant_detail::__dtor<std::__ndk1::__variant_detail::__traits<std::__ndk1::vector<jukebox::index::IndexSource, std::__ndk1::allocator<jukebox::index> >, std::__ndk1::basic_string<char, std::__ndk1::char_traits<char>, jukebox::index::IndexSource<char> > >, (std::__ndk1::__variant_detail::_Trait)1>::__destroy[abi:ne180000]()::{lambda(auto:1&)#1}, std::__ndk1::__variant_detail::__base<(std::__ndk1::__variant_detail::__traits<std::__ndk1::vector<jukebox::index::IndexSource, std::__ndk1::allocator<jukebox::index> >, std::__ndk1::basic_string<char, std::__ndk1::char_traits<char>, jukebox::index::IndexSource<char> > >)1, std::__ndk1::allocator<jukebox::index>, jukebox::index::IndexSource<char> >&>(std::__ndk1::__variant_detail::__dtor<std::__ndk1::__variant_detail::__traits<std::__ndk1::vector<jukebox::index::IndexSource, std::__ndk1::allocator<jukebox::index> >, std::__ndk1::basic_string<char, std::__ndk1::char_traits<char>, jukebox::index::IndexSource<char> > >, (std::__ndk1::__variant_detail::_Trait)1>, std::__ndk1::__variant_detail::__base<(std::__ndk1::__variant_detail::__traits<std::__ndk1::vector<jukebox::index::IndexSource, std::__ndk1::allocator<jukebox::index> >, std::__ndk1::basic_string<char, std::__ndk1::char_traits<char>, jukebox::index::IndexSource<char> > >)1, std::__ndk1::allocator<jukebox::index>, jukebox::index::IndexSource<char> >&)
PUBLIC 83160 0 std::__ndk1::__variant_detail::__visitation::__base::__dispatcher<(unsigned long)1>::__dispatch[abi:ne180000]<std::__ndk1::__variant_detail::__dtor<std::__ndk1::__variant_detail::__traits<std::__ndk1::vector<jukebox::index::IndexSource, std::__ndk1::allocator<jukebox::index> >, std::__ndk1::basic_string<char, std::__ndk1::char_traits<char>, jukebox::index::IndexSource<char> > >, (std::__ndk1::__variant_detail::_Trait)1>::__destroy[abi:ne180000]()::{lambda(auto:1&)#1}, std::__ndk1::__variant_detail::__base<(std::__ndk1::__variant_detail::__traits<std::__ndk1::vector<jukebox::index::IndexSource, std::__ndk1::allocator<jukebox::index> >, std::__ndk1::basic_string<char, std::__ndk1::char_traits<char>, jukebox::index::IndexSource<char> > >)1, std::__ndk1::allocator<jukebox::index>, jukebox::index::IndexSource<char> >&>(std::__ndk1::__variant_detail::__dtor<std::__ndk1::__variant_detail::__traits<std::__ndk1::vector<jukebox::index::IndexSource, std::__ndk1::allocator<jukebox::index> >, std::__ndk1::basic_string<char, std::__ndk1::char_traits<char>, jukebox::index::IndexSource<char> > >, (std::__ndk1::__variant_detail::_Trait)1>, std::__ndk1::__variant_detail::__base<(std::__ndk1::__variant_detail::__traits<std::__ndk1::vector<jukebox::index::IndexSource, std::__ndk1::allocator<jukebox::index> >, std::__ndk1::basic_string<char, std::__ndk1::char_traits<char>, jukebox::index::IndexSource<char> > >)1, std::__ndk1::allocator<jukebox::index>, jukebox::index::IndexSource<char> >&)
PUBLIC 83174 0 geode::Task<geode::Result<matjson::Value, std::__ndk1::basic_string<char, std::__ndk1::char_traits<char>, std::__ndk1::allocator<char> > >, float>::cancel(std::__ndk1::shared_ptr<geode::Task<geode::Result<matjson::Value, std::__ndk1::basic_string<char, std::__ndk1::char_traits<char>, std::__ndk1::allocator<char> > >, float>::Handle>, bool)
PUBLIC 832d8 0 geode::Task<geode::Result<matjson::Value, std::__ndk1::basic_string<char, std::__ndk1::char_traits<char>, std::__ndk1::allocator<char> > >, float>::finish(std::__ndk1::shared_ptr<geode::Task<geode::Result<matjson::Value, std::__ndk1::basic_string<char, std::__ndk1::char_traits<char>, std::__ndk1::allocator<char> > >, float>::Handle>, geode::Result<matjson::Value, std::__ndk1::basic_string<char, std::__ndk1::char_traits<char>, std::__ndk1::allocator<char> > >&&)
PUBLIC 834a8 0 jukebox::IndexManager::fetchIndex(jukebox::index::IndexSource const&)::$_0::operator()(geode::utils::web::WebResponse*) const
PUBLIC 83b5c 0 geode::Task<geode::utils::web::WebResponse, geode::utils::web::WebProgress>::map<jukebox::IndexManager::fetchIndex(jukebox::index::IndexSource const&)::$_0, jukebox::IndexManager::fetchIndex(jukebox::index::IndexSource const&)::$_1, void (*)()>(jukebox::IndexManager::fetchIndex(jukebox::index::IndexSource const&)::$_0&&, jukebox::IndexManager::fetchIndex(jukebox::index::IndexSource const&)::$_1&&, void (*&&)(), std::__ndk1::basic_string_view<char, std::__ndk1::char_traits<char> >) const::{lambda(geode::Task<geode::utils::web::WebResponse, geode::utils::web::WebProgress>::Event*)#1}::~{lambda(geode::Task<geode::utils::web::WebResponse, geode::utils::web::WebProgress>::Event*)#1}()
PUBLIC 83b9c 0 std::__ndk1::__shared_ptr_emplace<geode::Task<geode::Result<matjson::Value, std::__ndk1::basic_string<char, std::__ndk1::char_traits<char>, std::__ndk1::allocator<char> > >, float>::Handle, std::__ndk1::allocator<geode::Task<geode::Result<matjson::Value, std::__ndk1::basic_string<char, std::__ndk1::char_traits<char>, std::__ndk1::allocator<char> > >, float>::Handle> >::~__shared_ptr_emplace()
PUBLIC 83bac 0 std::__ndk1::__shared_ptr_emplace<geode::Task<geode::Result<matjson::Value, std::__ndk1::basic_string<char, std::__ndk1::char_traits<char>, std::__ndk1::allocator<char> > >, float>::Handle, std::__ndk1::allocator<geode::Task<geode::Result<matjson::Value, std::__ndk1::basic_string<char, std::__ndk1::char_traits<char>, std::__ndk1::allocator<char> > >, float>::Handle> >::~__shared_ptr_emplace()
PUBLIC 83bdc 0 std::__ndk1::__shared_ptr_emplace<geode::Task<geode::Result<matjson::Value, std::__ndk1::basic_string<char, std::__ndk1::char_traits<char>, std::__ndk1::allocator<char> > >, float>::Handle, std::__ndk1::allocator<geode::Task<geode::Result<matjson::Value, std::__ndk1::basic_string<char, std::__ndk1::char_traits<char>, std::__ndk1::allocator<char> > >, float>::Handle> >::__on_zero_shared()
PUBLIC 83ce4 0 std::__ndk1::__shared_ptr_emplace<geode::Task<geode::Result<matjson::Value, std::__ndk1::basic_string<char, std::__ndk1::char_traits<char>, std::__ndk1::allocator<char> > >, float>::Handle, std::__ndk1::allocator<geode::Task<geode::Result<matjson::Value, std::__ndk1::basic_string<char, std::__ndk1::char_traits<char>, std::__ndk1::allocator<char> > >, float>::Handle> >::__on_zero_shared_weak()
PUBLIC 83ce8 0 std::__ndk1::__optional_destruct_base<geode::Result<matjson::Value, std::__ndk1::basic_string<char, std::__ndk1::char_traits<char>, std::__ndk1::allocator<char> > >, false>::~__optional_destruct_base[abi:ne180000]()
PUBLIC 83d64 0 geode::Task<geode::Result<matjson::Value, std::__ndk1::basic_string<char, std::__ndk1::char_traits<char>, std::__ndk1::allocator<char> > >, float>::cancel(std::__ndk1::shared_ptr<geode::Task<geode::Result<matjson::Value, std::__ndk1::basic_string<char, std::__ndk1::char_traits<char>, std::__ndk1::allocator<char> > >, float>::Handle>, bool)::{lambda()#1}::~{lambda()#1}()
PUBLIC 83db4 0 std::__ndk1::__function::__func<geode::Task<geode::Result<matjson::Value, std::__ndk1::basic_string<char, std::__ndk1::char_traits<char>, std::__ndk1::allocator<char> > >, float>::cancel(std::__ndk1::shared_ptr<geode::Task<geode::Result<matjson::Value, std::__ndk1::basic_string<char, std::__ndk1::char_traits<char>, std::__ndk1::allocator<char> > >, float>::Handle>, bool)::{lambda()#1}, std::__ndk1::allocator<geode::Task<geode::Result<matjson::Value, std::__ndk1::basic_string<char, std::__ndk1::char_traits<char>, std::__ndk1::allocator<char> > >, float>::cancel(std::__ndk1::shared_ptr<geode::Task<geode::Result<matjson::Value, std::__ndk1::basic_string<char, std::__ndk1::char_traits<char>, std::__ndk1::allocator<char> > >, float>::Handle>, bool)::{lambda()#1}>, void ()>::~__func()
PUBLIC 83e10 0 std::__ndk1::__function::__func<geode::Task<geode::Result<matjson::Value, std::__ndk1::basic_string<char, std::__ndk1::char_traits<char>, std::__ndk1::allocator<char> > >, float>::cancel(std::__ndk1::shared_ptr<geode::Task<geode::Result<matjson::Value, std::__ndk1::basic_string<char, std::__ndk1::char_traits<char>, std::__ndk1::allocator<char> > >, float>::Handle>, bool)::{lambda()#1}, std::__ndk1::allocator<geode::Task<geode::Result<matjson::Value, std::__ndk1::basic_string<char, std::__ndk1::char_traits<char>, std::__ndk1::allocator<char> > >, float>::cancel(std::__ndk1::shared_ptr<geode::Task<geode::Result<matjson::Value, std::__ndk1::basic_string<char, std::__ndk1::char_traits<char>, std::__ndk1::allocator<char> > >, float>::Handle>, bool)::{lambda()#1}>, void ()>::~__func()
PUBLIC 83e7c 0 std::__ndk1::__function::__func<geode::Task<geode::Result<matjson::Value, std::__ndk1::basic_string<char, std::__ndk1::char_traits<char>, std::__ndk1::allocator<char> > >, float>::cancel(std::__ndk1::shared_ptr<geode::Task<geode::Result<matjson::Value, std::__ndk1::basic_string<char, std::__ndk1::char_traits<char>, std::__ndk1::allocator<char> > >, float>::Handle>, bool)::{lambda()#1}, std::__ndk1::allocator<geode::Task<geode::Result<matjson::Value, std::__ndk1::basic_string<char, std::__ndk1::char_traits<char>, std::__ndk1::allocator<char> > >, float>::cancel(std::__ndk1::shared_ptr<geode::Task<geode::Result<matjson::Value, std::__ndk1::basic_string<char, std::__ndk1::char_traits<char>, std::__ndk1::allocator<char> > >, float>::Handle>, bool)::{lambda()#1}>, void ()>::__clone() const
PUBLIC 83ecc 0 std::__ndk1::__function::__func<geode::Task<geode::Result<matjson::Value, std::__ndk1::basic_string<char, std::__ndk1::char_traits<char>, std::__ndk1::allocator<char> > >, float>::cancel(std::__ndk1::shared_ptr<geode::Task<geode::Result<matjson::Value, std::__ndk1::basic_string<char, std::__ndk1::char_traits<char>, std::__ndk1::allocator<char> > >, float>::Handle>, bool)::{lambda()#1}, std::__ndk1::allocator<geode::Task<geode::Result<matjson::Value, std::__ndk1::basic_string<char, std::__ndk1::char_traits<char>, std::__ndk1::allocator<char> > >, float>::cancel(std::__ndk1::shared_ptr<geode::Task<geode::Result<matjson::Value, std::__ndk1::basic_string<char, std::__ndk1::char_traits<char>, std::__ndk1::allocator<char> > >, float>::Handle>, bool)::{lambda()#1}>, void ()>::__clone(std::__ndk1::__function::__base<void ()>*) const
PUBLIC 83f00 0 std::__ndk1::__function::__func<geode::Task<geode::Result<matjson::Value, std::__ndk1::basic_string<char, std::__ndk1::char_traits<char>, std::__ndk1::allocator<char> > >, float>::cancel(std::__ndk1::shared_ptr<geode::Task<geode::Result<matjson::Value, std::__ndk1::basic_string<char, std::__ndk1::char_traits<char>, std::__ndk1::allocator<char> > >, float>::Handle>, bool)::{lambda()#1}, std::__ndk1::allocator<geode::Task<geode::Result<matjson::Value, std::__ndk1::basic_string<char, std::__ndk1::char_traits<char>, std::__ndk1::allocator<char> > >, float>::cancel(std::__ndk1::shared_ptr<geode::Task<geode::Result<matjson::Value, std::__ndk1::basic_string<char, std::__ndk1::char_traits<char>, std::__ndk1::allocator<char> > >, float>::Handle>, bool)::{lambda()#1}>, void ()>::destroy()
PUBLIC 83f50 0 std::__ndk1::__function::__func<geode::Task<geode::Result<matjson::Value, std::__ndk1::basic_string<char, std::__ndk1::char_traits<char>, std::__ndk1::allocator<char> > >, float>::cancel(std::__ndk1::shared_ptr<geode::Task<geode::Result<matjson::Value, std::__ndk1::basic_string<char, std::__ndk1::char_traits<char>, std::__ndk1::allocator<char> > >, float>::Handle>, bool)::{lambda()#1}, std::__ndk1::allocator<geode::Task<geode::Result<matjson::Value, std::__ndk1::basic_string<char, std::__ndk1::char_traits<char>, std::__ndk1::allocator<char> > >, float>::cancel(std::__ndk1::shared_ptr<geode::Task<geode::Result<matjson::Value, std::__ndk1::basic_string<char, std::__ndk1::char_traits<char>, std::__ndk1::allocator<char> > >, float>::Handle>, bool)::{lambda()#1}>, void ()>::destroy_deallocate()
PUBLIC 83fb0 0 std::__ndk1::__function::__func<geode::Task<geode::Result<matjson::Value, std::__ndk1::basic_string<char, std::__ndk1::char_traits<char>, std::__ndk1::allocator<char> > >, float>::cancel(std::__ndk1::shared_ptr<geode::Task<geode::Result<matjson::Value, std::__ndk1::basic_string<char, std::__ndk1::char_traits<char>, std::__ndk1::allocator<char> > >, float>::Handle>, bool)::{lambda()#1}, std::__ndk1::allocator<geode::Task<geode::Result<matjson::Value, std::__ndk1::basic_string<char, std::__ndk1::char_traits<char>, std::__ndk1::allocator<char> > >, float>::cancel(std::__ndk1::shared_ptr<geode::Task<geode::Result<matjson::Value, std::__ndk1::basic_string<char, std::__ndk1::char_traits<char>, std::__ndk1::allocator<char> > >, float>::Handle>, bool)::{lambda()#1}>, void ()>::operator()()
PUBLIC 8416c 0 std::__ndk1::__function::__func<geode::Task<geode::Result<matjson::Value, std::__ndk1::basic_string<char, std::__ndk1::char_traits<char>, std::__ndk1::allocator<char> > >, float>::cancel(std::__ndk1::shared_ptr<geode::Task<geode::Result<matjson::Value, std::__ndk1::basic_string<char, std::__ndk1::char_traits<char>, std::__ndk1::allocator<char> > >, float>::Handle>, bool)::{lambda()#1}, std::__ndk1::allocator<geode::Task<geode::Result<matjson::Value, std::__ndk1::basic_string<char, std::__ndk1::char_traits<char>, std::__ndk1::allocator<char> > >, float>::cancel(std::__ndk1::shared_ptr<geode::Task<geode::Result<matjson::Value, std::__ndk1::basic_string<char, std::__ndk1::char_traits<char>, std::__ndk1::allocator<char> > >, float>::Handle>, bool)::{lambda()#1}>, void ()>::target(std::type_info const&) const
PUBLIC 84188 0 std::__ndk1::__function::__func<geode::Task<geode::Result<matjson::Value, std::__ndk1::basic_string<char, std::__ndk1::char_traits<char>, std::__ndk1::allocator<char> > >, float>::cancel(std::__ndk1::shared_ptr<geode::Task<geode::Result<matjson::Value, std::__ndk1::basic_string<char, std::__ndk1::char_traits<char>, std::__ndk1::allocator<char> > >, float>::Handle>, bool)::{lambda()#1}, std::__ndk1::allocator<geode::Task<geode::Result<matjson::Value, std::__ndk1::basic_string<char, std::__ndk1::char_traits<char>, std::__ndk1::allocator<char> > >, float>::cancel(std::__ndk1::shared_ptr<geode::Task<geode::Result<matjson::Value, std::__ndk1::basic_string<char, std::__ndk1::char_traits<char>, std::__ndk1::allocator<char> > >, float>::Handle>, bool)::{lambda()#1}>, void ()>::target_type() const
PUBLIC 84194 0 geode::Task<geode::Result<matjson::Value, std::__ndk1::basic_string<char, std::__ndk1::char_traits<char>, std::__ndk1::allocator<char> > >, float>::Event::~Event()
PUBLIC 841f4 0 geode::Task<geode::Result<matjson::Value, std::__ndk1::basic_string<char, std::__ndk1::char_traits<char>, std::__ndk1::allocator<char> > >, float>::Event::~Event()
PUBLIC 84264 0 geode::Task<geode::Result<matjson::Value, std::__ndk1::basic_string<char, std::__ndk1::char_traits<char>, std::__ndk1::allocator<char> > >, float>::finish(std::__ndk1::shared_ptr<geode::Task<geode::Result<matjson::Value, std::__ndk1::basic_string<char, std::__ndk1::char_traits<char>, std::__ndk1::allocator<char> > >, float>::Handle>, geode::Result<matjson::Value, std::__ndk1::basic_string<char, std::__ndk1::char_traits<char>, std::__ndk1::allocator<char> > >&&)::{lambda()#1}::~{lambda()#1}()
PUBLIC 842b4 0 std::__ndk1::__variant_detail::__visitation::__base::__dispatcher<(unsigned long)0, (unsigned long)0>::__dispatch[abi:ne180000]<std::__ndk1::__variant_detail::__ctor<std::__ndk1::__variant_detail::__traits<matjson::Value, std::__ndk1::basic_string<char, std::__ndk1::char_traits<char>, std::__ndk1::allocator<char> > > >::__generic_construct[abi:ne180000]<std::__ndk1::__variant_detail::__move_constructor<std::__ndk1::basic_string<char, std::__ndk1::char_traits<char>, std::__ndk1::allocator<char> >, (std::__ndk1::__variant_detail::_Trait)1> >(std::__ndk1::__variant_detail::__traits<matjson::Value, std::__ndk1::basic_string<char, std::__ndk1::char_traits<char>, std::__ndk1::allocator<char> > >&, std::__ndk1::__variant_detail::__move_constructor<std::__ndk1::basic_string<char, std::__ndk1::char_traits<char>, std::__ndk1::allocator<char> >, (std::__ndk1::__variant_detail::_Trait)1>&&)::{lambda(std::__ndk1::__variant_detail::__move_constructor<std::__ndk1::basic_string<char, std::__ndk1::char_traits<char>, std::__ndk1::allocator<char> >, (std::__ndk1::__variant_detail::_Trait)1>&, auto:2&&)#1}, std::__ndk1::__variant_detail::__base<(std::__ndk1::__variant_detail::__ctor<std::__ndk1::__variant_detail::__traits<matjson::Value, std::__ndk1::basic_string<char, std::__ndk1::char_traits<char>, std::__ndk1::allocator<char> > > >::__generic_construct[abi:ne180000])1, matjson, std::__ndk1::allocator<char> >&, std::__ndk1::__variant_detail::__ctor<std::__ndk1::__variant_detail::__traits<matjson::Value, std::__ndk1::basic_string<char, std::__ndk1::char_traits<char>, std::__ndk1::allocator<char> > > >::__generic_construct[abi:ne180000]<std::__ndk1::__variant_detail::__move_constructor<std::__ndk1::basic_string<char, std::__ndk1::char_traits<char>, std::__ndk1::allocator<char> >, (std::__ndk1::__variant_detail::_Trait)1> >(std::__ndk1::__variant_detail::__traits<matjson::Value, std::__ndk1::basic_string<char, std::__ndk1::char_traits<char>, std::__ndk1::allocator<char> > >&, std::__ndk1::__variant_detail::__move_constructor<std::__ndk1::basic_string<char, std::__ndk1::char_traits<char>, std::__ndk1::allocator<char> >, (std::__ndk1::__variant_detail::_Trait)1>&&)::{lambda(std::__ndk1::__variant_detail::__move_constructor<std::__ndk1::basic_string<char, std::__ndk1::char_traits<char>, std::__ndk1::allocator<char> >, (std::__ndk1::__variant_detail::_Trait)1>&, auto:2&&)#1}>(std::__ndk1::__variant_detail::__move_constructor<std::__ndk1::basic_string<char, std::__ndk1::char_traits<char>, std::__ndk1::allocator<char> >, (std::__ndk1::__variant_detail::_Trait)1>, std::__ndk1::__variant_detail::__base<(std::__ndk1::__variant_detail::__ctor<std::__ndk1::__variant_detail::__traits<matjson::Value, std::__ndk1::basic_string<char, std::__ndk1::char_traits<char>, std::__ndk1::allocator<char> > > >::__generic_construct[abi:ne180000])1, matjson, std::__ndk1::allocator<char> >&, std::__ndk1::__variant_detail::__ctor<std::__ndk1::__variant_detail::__traits<matjson::Value, std::__ndk1::basic_string<char, std::__ndk1::char_traits<char>, std::__ndk1::allocator<char> > > >::__generic_construct[abi:ne180000]<std::__ndk1::__variant_detail::__move_constructor<std::__ndk1::basic_string<char, std::__ndk1::char_traits<char>, std::__ndk1::allocator<char> >, (std::__ndk1::__variant_detail::_Trait)1> >(std::__ndk1::__variant_detail::__traits<matjson::Value, std::__ndk1::basic_string<char, std::__ndk1::char_traits<char>, std::__ndk1::allocator<char> > >&, std::__ndk1::__variant_detail::__move_constructor<std::__ndk1::basic_string<char, std::__ndk1::char_traits<char>, std::__ndk1::allocator<char> >, (std::__ndk1::__variant_detail::_Trait)1>&&)::{lambda(std::__ndk1::__variant_detail::__move_constructor<std::__ndk1::basic_string<char, std::__ndk1::char_traits<char>, std::__ndk1::allocator<char> >, (std::__ndk1::__variant_detail::_Trait)1>&, auto:2&&)#1})
PUBLIC 842c0 0 std::__ndk1::__variant_detail::__visitation::__base::__dispatcher<(unsigned long)1, (unsigned long)1>::__dispatch[abi:ne180000]<std::__ndk1::__variant_detail::__ctor<std::__ndk1::__variant_detail::__traits<matjson::Value, std::__ndk1::basic_string<char, std::__ndk1::char_traits<char>, std::__ndk1::allocator<char> > > >::__generic_construct[abi:ne180000]<std::__ndk1::__variant_detail::__move_constructor<std::__ndk1::basic_string<char, std::__ndk1::char_traits<char>, std::__ndk1::allocator<char> >, (std::__ndk1::__variant_detail::_Trait)1> >(std::__ndk1::__variant_detail::__traits<matjson::Value, std::__ndk1::basic_string<char, std::__ndk1::char_traits<char>, std::__ndk1::allocator<char> > >&, std::__ndk1::__variant_detail::__move_constructor<std::__ndk1::basic_string<char, std::__ndk1::char_traits<char>, std::__ndk1::allocator<char> >, (std::__ndk1::__variant_detail::_Trait)1>&&)::{lambda(std::__ndk1::__variant_detail::__move_constructor<std::__ndk1::basic_string<char, std::__ndk1::char_traits<char>, std::__ndk1::allocator<char> >, (std::__ndk1::__variant_detail::_Trait)1>&, auto:2&&)#1}, std::__ndk1::__variant_detail::__base<(std::__ndk1::__variant_detail::__ctor<std::__ndk1::__variant_detail::__traits<matjson::Value, std::__ndk1::basic_string<char, std::__ndk1::char_traits<char>, std::__ndk1::allocator<char> > > >::__generic_construct[abi:ne180000])1, matjson, std::__ndk1::allocator<char> >&, std::__ndk1::__variant_detail::__ctor<std::__ndk1::__variant_detail::__traits<matjson::Value, std::__ndk1::basic_string<char, std::__ndk1::char_traits<char>, std::__ndk1::allocator<char> > > >::__generic_construct[abi:ne180000]<std::__ndk1::__variant_detail::__move_constructor<std::__ndk1::basic_string<char, std::__ndk1::char_traits<char>, std::__ndk1::allocator<char> >, (std::__ndk1::__variant_detail::_Trait)1> >(std::__ndk1::__variant_detail::__traits<matjson::Value, std::__ndk1::basic_string<char, std::__ndk1::char_traits<char>, std::__ndk1::allocator<char> > >&, std::__ndk1::__variant_detail::__move_constructor<std::__ndk1::basic_string<char, std::__ndk1::char_traits<char>, std::__ndk1::allocator<char> >, (std::__ndk1::__variant_detail::_Trait)1>&&)::{lambda(std::__ndk1::__variant_detail::__move_constructor<std::__ndk1::basic_string<char, std::__ndk1::char_traits<char>, std::__ndk1::allocator<char> >, (std::__ndk1::__variant_detail::_Trait)1>&, auto:2&&)#1}>(std::__ndk1::__variant_detail::__move_constructor<std::__ndk1::basic_string<char, std::__ndk1::char_traits<char>, std::__ndk1::allocator<char> >, (std::__ndk1::__variant_detail::_Trait)1>, std::__ndk1::__variant_detail::__base<(std::__ndk1::__variant_detail::__ctor<std::__ndk1::__variant_detail::__traits<matjson::Value, std::__ndk1::basic_string<char, std::__ndk1::char_traits<char>, std::__ndk1::allocator<char> > > >::__generic_construct[abi:ne180000])1, matjson, std::__ndk1::allocator<char> >&, std::__ndk1::__variant_detail::__ctor<std::__ndk1::__variant_detail::__traits<matjson::Value, std::__ndk1::basic_string<char, std::__ndk1::char_traits<char>, std::__ndk1::allocator<char> > > >::__generic_construct[abi:ne180000]<std::__ndk1::__variant_detail::__move_constructor<std::__ndk1::basic_string<char, std::__ndk1::char_traits<char>, std::__ndk1::allocator<char> >, (std::__ndk1::__variant_detail::_Trait)1> >(std::__ndk1::__variant_detail::__traits<matjson::Value, std::__ndk1::basic_string<char, std::__ndk1::char_traits<char>, std::__ndk1::allocator<char> > >&, std::__ndk1::__variant_detail::__move_constructor<std::__ndk1::basic_string<char, std::__ndk1::char_traits<char>, std::__ndk1::allocator<char> >, (std::__ndk1::__variant_detail::_Trait)1>&&)::{lambda(std::__ndk1::__variant_detail::__move_constructor<std::__ndk1::basic_string<char, std::__ndk1::char_traits<char>, std::__ndk1::allocator<char> >, (std::__ndk1::__variant_detail::_Trait)1>&, auto:2&&)#1})
PUBLIC 842dc 0 std::__ndk1::__function::__func<geode::Task<geode::Result<matjson::Value, std::__ndk1::basic_string<char, std::__ndk1::char_traits<char>, std::__ndk1::allocator<char> > >, float>::finish(std::__ndk1::shared_ptr<geode::Task<geode::Result<matjson::Value, std::__ndk1::basic_string<char, std::__ndk1::char_traits<char>, std::__ndk1::allocator<char> > >, float>::Handle>, geode::Result<matjson::Value, std::__ndk1::basic_string<char, std::__ndk1::char_traits<char>, std::__ndk1::allocator<char> > >&&)::{lambda()#1}, std::__ndk1::allocator<geode::Task<geode::Result<matjson::Value, std::__ndk1::basic_string<char, std::__ndk1::char_traits<char>, std::__ndk1::allocator<char> > >, float>::finish(std::__ndk1::shared_ptr<geode::Task<geode::Result<matjson::Value, std::__ndk1::basic_string<char, std::__ndk1::char_traits<char>, std::__ndk1::allocator<char> > >, float>::Handle>, geode::Result<matjson::Value, std::__ndk1::basic_string<char, std::__ndk1::char_traits<char>, std::__ndk1::allocator<char> > >&&)::{lambda()#1}>, void ()>::~__func()
PUBLIC 84338 0 std::__ndk1::__function::__func<geode::Task<geode::Result<matjson::Value, std::__ndk1::basic_string<char, std::__ndk1::char_traits<char>, std::__ndk1::allocator<char> > >, float>::finish(std::__ndk1::shared_ptr<geode::Task<geode::Result<matjson::Value, std::__ndk1::basic_string<char, std::__ndk1::char_traits<char>, std::__ndk1::allocator<char> > >, float>::Handle>, geode::Result<matjson::Value, std::__ndk1::basic_string<char, std::__ndk1::char_traits<char>, std::__ndk1::allocator<char> > >&&)::{lambda()#1}, std::__ndk1::allocator<geode::Task<geode::Result<matjson::Value, std::__ndk1::basic_string<char, std::__ndk1::char_traits<char>, std::__ndk1::allocator<char> > >, float>::finish(std::__ndk1::shared_ptr<geode::Task<geode::Result<matjson::Value, std::__ndk1::basic_string<char, std::__ndk1::char_traits<char>, std::__ndk1::allocator<char> > >, float>::Handle>, geode::Result<matjson::Value, std::__ndk1::basic_string<char, std::__ndk1::char_traits<char>, std::__ndk1::allocator<char> > >&&)::{lambda()#1}>, void ()>::~__func()
PUBLIC 843a4 0 std::__ndk1::__function::__func<geode::Task<geode::Result<matjson::Value, std::__ndk1::basic_string<char, std::__ndk1::char_traits<char>, std::__ndk1::allocator<char> > >, float>::finish(std::__ndk1::shared_ptr<geode::Task<geode::Result<matjson::Value, std::__ndk1::basic_string<char, std::__ndk1::char_traits<char>, std::__ndk1::allocator<char> > >, float>::Handle>, geode::Result<matjson::Value, std::__ndk1::basic_string<char, std::__ndk1::char_traits<char>, std::__ndk1::allocator<char> > >&&)::{lambda()#1}, std::__ndk1::allocator<geode::Task<geode::Result<matjson::Value, std::__ndk1::basic_string<char, std::__ndk1::char_traits<char>, std::__ndk1::allocator<char> > >, float>::finish(std::__ndk1::shared_ptr<geode::Task<geode::Result<matjson::Value, std::__ndk1::basic_string<char, std::__ndk1::char_traits<char>, std::__ndk1::allocator<char> > >, float>::Handle>, geode::Result<matjson::Value, std::__ndk1::basic_string<char, std::__ndk1::char_traits<char>, std::__ndk1::allocator<char> > >&&)::{lambda()#1}>, void ()>::__clone() const
PUBLIC 843fc 0 std::__ndk1::__function::__func<geode::Task<geode::Result<matjson::Value, std::__ndk1::basic_string<char, std::__ndk1::char_traits<char>, std::__ndk1::allocator<char> > >, float>::finish(std::__ndk1::shared_ptr<geode::Task<geode::Result<matjson::Value, std::__ndk1::basic_string<char, std::__ndk1::char_traits<char>, std::__ndk1::allocator<char> > >, float>::Handle>, geode::Result<matjson::Value, std::__ndk1::basic_string<char, std::__ndk1::char_traits<char>, std::__ndk1::allocator<char> > >&&)::{lambda()#1}, std::__ndk1::allocator<geode::Task<geode::Result<matjson::Value, std::__ndk1::basic_string<char, std::__ndk1::char_traits<char>, std::__ndk1::allocator<char> > >, float>::finish(std::__ndk1::shared_ptr<geode::Task<geode::Result<matjson::Value, std::__ndk1::basic_string<char, std::__ndk1::char_traits<char>, std::__ndk1::allocator<char> > >, float>::Handle>, geode::Result<matjson::Value, std::__ndk1::basic_string<char, std::__ndk1::char_traits<char>, std::__ndk1::allocator<char> > >&&)::{lambda()#1}>, void ()>::__clone(std::__ndk1::__function::__base<void ()>*) const
PUBLIC 84448 0 std::__ndk1::__function::__func<geode::Task<geode::Result<matjson::Value, std::__ndk1::basic_string<char, std::__ndk1::char_traits<char>, std::__ndk1::allocator<char> > >, float>::finish(std::__ndk1::shared_ptr<geode::Task<geode::Result<matjson::Value, std::__ndk1::basic_string<char, std::__ndk1::char_traits<char>, std::__ndk1::allocator<char> > >, float>::Handle>, geode::Result<matjson::Value, std::__ndk1::basic_string<char, std::__ndk1::char_traits<char>, std::__ndk1::allocator<char> > >&&)::{lambda()#1}, std::__ndk1::allocator<geode::Task<geode::Result<matjson::Value, std::__ndk1::basic_string<char, std::__ndk1::char_traits<char>, std::__ndk1::allocator<char> > >, float>::finish(std::__ndk1::shared_ptr<geode::Task<geode::Result<matjson::Value, std::__ndk1::basic_string<char, std::__ndk1::char_traits<char>, std::__ndk1::allocator<char> > >, float>::Handle>, geode::Result<matjson::Value, std::__ndk1::basic_string<char, std::__ndk1::char_traits<char>, std::__ndk1::allocator<char> > >&&)::{lambda()#1}>, void ()>::destroy()
PUBLIC 84498 0 std::__ndk1::__function::__func<geode::Task<geode::Result<matjson::Value, std::__ndk1::basic_string<char, std::__ndk1::char_traits<char>, std::__ndk1::allocator<char> > >, float>::finish(std::__ndk1::shared_ptr<geode::Task<geode::Result<matjson::Value, std::__ndk1::basic_string<char, std::__ndk1::char_traits<char>, std::__ndk1::allocator<char> > >, float>::Handle>, geode::Result<matjson::Value, std::__ndk1::basic_string<char, std::__ndk1::char_traits<char>, std::__ndk1::allocator<char> > >&&)::{lambda()#1}, std::__ndk1::allocator<geode::Task<geode::Result<matjson::Value, std::__ndk1::basic_string<char, std::__ndk1::char_traits<char>, std::__ndk1::allocator<char> > >, float>::finish(std::__ndk1::shared_ptr<geode::Task<geode::Result<matjson::Value, std::__ndk1::basic_string<char, std::__ndk1::char_traits<char>, std::__ndk1::allocator<char> > >, float>::Handle>, geode::Result<matjson::Value, std::__ndk1::basic_string<char, std::__ndk1::char_traits<char>, std::__ndk1::allocator<char> > >&&)::{lambda()#1}>, void ()>::destroy_deallocate()
PUBLIC 844f8 0 std::__ndk1::__function::__func<geode::Task<geode::Result<matjson::Value, std::__ndk1::basic_string<char, std::__ndk1::char_traits<char>, std::__ndk1::allocator<char> > >, float>::finish(std::__ndk1::shared_ptr<geode::Task<geode::Result<matjson::Value, std::__ndk1::basic_string<char, std::__ndk1::char_traits<char>, std::__ndk1::allocator<char> > >, float>::Handle>, geode::Result<matjson::Value, std::__ndk1::basic_string<char, std::__ndk1::char_traits<char>, std::__ndk1::allocator<char> > >&&)::{lambda()#1}, std::__ndk1::allocator<geode::Task<geode::Result<matjson::Value, std::__ndk1::basic_string<char, std::__ndk1::char_traits<char>, std::__ndk1::allocator<char> > >, float>::finish(std::__ndk1::shared_ptr<geode::Task<geode::Result<matjson::Value, std::__ndk1::basic_string<char, std::__ndk1::char_traits<char>, std::__ndk1::allocator<char> > >, float>::Handle>, geode::Result<matjson::Value, std::__ndk1::basic_string<char, std::__ndk1::char_traits<char>, std::__ndk1::allocator<char> > >&&)::{lambda()#1}>, void ()>::operator()()
PUBLIC 846c4 0 std::__ndk1::__function::__func<geode::Task<geode::Result<matjson::Value, std::__ndk1::basic_string<char, std::__ndk1::char_traits<char>, std::__ndk1::allocator<char> > >, float>::finish(std::__ndk1::shared_ptr<geode::Task<geode::Result<matjson::Value, std::__ndk1::basic_string<char, std::__ndk1::char_traits<char>, std::__ndk1::allocator<char> > >, float>::Handle>, geode::Result<matjson::Value, std::__ndk1::basic_string<char, std::__ndk1::char_traits<char>, std::__ndk1::allocator<char> > >&&)::{lambda()#1}, std::__ndk1::allocator<geode::Task<geode::Result<matjson::Value, std::__ndk1::basic_string<char, std::__ndk1::char_traits<char>, std::__ndk1::allocator<char> > >, float>::finish(std::__ndk1::shared_ptr<geode::Task<geode::Result<matjson::Value, std::__ndk1::basic_string<char, std::__ndk1::char_traits<char>, std::__ndk1::allocator<char> > >, float>::Handle>, geode::Result<matjson::Value, std::__ndk1::basic_string<char, std::__ndk1::char_traits<char>, std::__ndk1::allocator<char> > >&&)::{lambda()#1}>, void ()>::target(std::type_info const&) const
PUBLIC 846e0 0 std::__ndk1::__function::__func<geode::Task<geode::Result<matjson::Value, std::__ndk1::basic_string<char, std::__ndk1::char_traits<char>, std::__ndk1::allocator<char> > >, float>::finish(std::__ndk1::shared_ptr<geode::Task<geode::Result<matjson::Value, std::__ndk1::basic_string<char, std::__ndk1::char_traits<char>, std::__ndk1::allocator<char> > >, float>::Handle>, geode::Result<matjson::Value, std::__ndk1::basic_string<char, std::__ndk1::char_traits<char>, std::__ndk1::allocator<char> > >&&)::{lambda()#1}, std::__ndk1::allocator<geode::Task<geode::Result<matjson::Value, std::__ndk1::basic_string<char, std::__ndk1::char_traits<char>, std::__ndk1::allocator<char> > >, float>::finish(std::__ndk1::shared_ptr<geode::Task<geode::Result<matjson::Value, std::__ndk1::basic_string<char, std::__ndk1::char_traits<char>, std::__ndk1::allocator<char> > >, float>::Handle>, geode::Result<matjson::Value, std::__ndk1::basic_string<char, std::__ndk1::char_traits<char>, std::__ndk1::allocator<char> > >&&)::{lambda()#1}>, void ()>::target_type() const
PUBLIC 846ec 0 std::__ndk1::__function::__func<geode::Task<geode::utils::web::WebResponse, geode::utils::web::WebProgress>::map<jukebox::IndexManager::fetchIndex(jukebox::index::IndexSource const&)::$_0, jukebox::IndexManager::fetchIndex(jukebox::index::IndexSource const&)::$_1, void (*)()>(jukebox::IndexManager::fetchIndex(jukebox::index::IndexSource const&)::$_0&&, jukebox::IndexManager::fetchIndex(jukebox::index::IndexSource const&)::$_1&&, void (*&&)(), std::__ndk1::basic_string_view<char, std::__ndk1::char_traits<char> >) const::{lambda(geode::Task<geode::utils::web::WebResponse, geode::utils::web::WebProgress>::Event*)#1}, std::__ndk1::allocator<geode::Task<geode::utils::web::WebResponse, geode::utils::web::WebProgress>::map<jukebox::IndexManager::fetchIndex(jukebox::index::IndexSource const&)::$_0, jukebox::IndexManager::fetchIndex(jukebox::index::IndexSource const&)::$_1, void (*)()>(jukebox::IndexManager::fetchIndex(jukebox::index::IndexSource const&)::$_0&&, jukebox::IndexManager::fetchIndex(jukebox::index::IndexSource const&)::$_1&&, void (*&&)(), std::__ndk1::basic_string_view<char, std::__ndk1::char_traits<char> >) const::{lambda(geode::Task<geode::utils::web::WebResponse, geode::utils::web::WebProgress>::Event*)#1}>, void (geode::Task<geode::utils::web::WebResponse, geode::utils::web::WebProgress>::Event*)>::~__func()
PUBLIC 84738 0 std::__ndk1::__function::__func<geode::Task<geode::utils::web::WebResponse, geode::utils::web::WebProgress>::map<jukebox::IndexManager::fetchIndex(jukebox::index::IndexSource const&)::$_0, jukebox::IndexManager::fetchIndex(jukebox::index::IndexSource const&)::$_1, void (*)()>(jukebox::IndexManager::fetchIndex(jukebox::index::IndexSource const&)::$_0&&, jukebox::IndexManager::fetchIndex(jukebox::index::IndexSource const&)::$_1&&, void (*&&)(), std::__ndk1::basic_string_view<char, std::__ndk1::char_traits<char> >) const::{lambda(geode::Task<geode::utils::web::WebResponse, geode::utils::web::WebProgress>::Event*)#1}, std::__ndk1::allocator<geode::Task<geode::utils::web::WebResponse, geode::utils::web::WebProgress>::map<jukebox::IndexManager::fetchIndex(jukebox::index::IndexSource const&)::$_0, jukebox::IndexManager::fetchIndex(jukebox::index::IndexSource const&)::$_1, void (*)()>(jukebox::IndexManager::fetchIndex(jukebox::index::IndexSource const&)::$_0&&, jukebox::IndexManager::fetchIndex(jukebox::index::IndexSource const&)::$_1&&, void (*&&)(), std::__ndk1::basic_string_view<char, std::__ndk1::char_traits<char> >) const::{lambda(geode::Task<geode::utils::web::WebResponse, geode::utils::web::WebProgress>::Event*)#1}>, void (geode::Task<geode::utils::web::WebResponse, geode::utils::web::WebProgress>::Event*)>::~__func()
PUBLIC 84780 0 std::__ndk1::__function::__func<geode::Task<geode::utils::web::WebResponse, geode::utils::web::WebProgress>::map<jukebox::IndexManager::fetchIndex(jukebox::index::IndexSource const&)::$_0, jukebox::IndexManager::fetchIndex(jukebox::index::IndexSource const&)::$_1, void (*)()>(jukebox::IndexManager::fetchIndex(jukebox::index::IndexSource const&)::$_0&&, jukebox::IndexManager::fetchIndex(jukebox::index::IndexSource const&)::$_1&&, void (*&&)(), std::__ndk1::basic_string_view<char, std::__ndk1::char_traits<char> >) const::{lambda(geode::Task<geode::utils::web::WebResponse, geode::utils::web::WebProgress>::Event*)#1}, std::__ndk1::allocator<geode::Task<geode::utils::web::WebResponse, geode::utils::web::WebProgress>::map<jukebox::IndexManager::fetchIndex(jukebox::index::IndexSource const&)::$_0, jukebox::IndexManager::fetchIndex(jukebox::index::IndexSource const&)::$_1, void (*)()>(jukebox::IndexManager::fetchIndex(jukebox::index::IndexSource const&)::$_0&&, jukebox::IndexManager::fetchIndex(jukebox::index::IndexSource const&)::$_1&&, void (*&&)(), std::__ndk1::basic_string_view<char, std::__ndk1::char_traits<char> >) const::{lambda(geode::Task<geode::utils::web::WebResponse, geode::utils::web::WebProgress>::Event*)#1}>, void (geode::Task<geode::utils::web::WebResponse, geode::utils::web::WebProgress>::Event*)>::__clone() const
PUBLIC 84838 0 std::__ndk1::__function::__func<geode::Task<geode::utils::web::WebResponse, geode::utils::web::WebProgress>::map<jukebox::IndexManager::fetchIndex(jukebox::index::IndexSource const&)::$_0, jukebox::IndexManager::fetchIndex(jukebox::index::IndexSource const&)::$_1, void (*)()>(jukebox::IndexManager::fetchIndex(jukebox::index::IndexSource const&)::$_0&&, jukebox::IndexManager::fetchIndex(jukebox::index::IndexSource const&)::$_1&&, void (*&&)(), std::__ndk1::basic_string_view<char, std::__ndk1::char_traits<char> >) const::{lambda(geode::Task<geode::utils::web::WebResponse, geode::utils::web::WebProgress>::Event*)#1}, std::__ndk1::allocator<geode::Task<geode::utils::web::WebResponse, geode::utils::web::WebProgress>::map<jukebox::IndexManager::fetchIndex(jukebox::index::IndexSource const&)::$_0, jukebox::IndexManager::fetchIndex(jukebox::index::IndexSource const&)::$_1, void (*)()>(jukebox::IndexManager::fetchIndex(jukebox::index::IndexSource const&)::$_0&&, jukebox::IndexManager::fetchIndex(jukebox::index::IndexSource const&)::$_1&&, void (*&&)(), std::__ndk1::basic_string_view<char, std::__ndk1::char_traits<char> >) const::{lambda(geode::Task<geode::utils::web::WebResponse, geode::utils::web::WebProgress>::Event*)#1}>, void (geode::Task<geode::utils::web::WebResponse, geode::utils::web::WebProgress>::Event*)>::__clone(std::__ndk1::__function::__base<void (geode::Task<geode::utils::web::WebResponse, geode::utils::web::WebProgress>::Event*)>*) const
PUBLIC 848dc 0 std::__ndk1::__function::__func<geode::Task<geode::utils::web::WebResponse, geode::utils::web::WebProgress>::map<jukebox::IndexManager::fetchIndex(jukebox::index::IndexSource const&)::$_0, jukebox::IndexManager::fetchIndex(jukebox::index::IndexSource const&)::$_1, void (*)()>(jukebox::IndexManager::fetchIndex(jukebox::index::IndexSource const&)::$_0&&, jukebox::IndexManager::fetchIndex(jukebox::index::IndexSource const&)::$_1&&, void (*&&)(), std::__ndk1::basic_string_view<char, std::__ndk1::char_traits<char> >) const::{lambda(geode::Task<geode::utils::web::WebResponse, geode::utils::web::WebProgress>::Event*)#1}, std::__ndk1::allocator<geode::Task<geode::utils::web::WebResponse, geode::utils::web::WebProgress>::map<jukebox::IndexManager::fetchIndex(jukebox::index::IndexSource const&)::$_0, jukebox::IndexManager::fetchIndex(jukebox::index::IndexSource const&)::$_1, void (*)()>(jukebox::IndexManager::fetchIndex(jukebox::index::IndexSource const&)::$_0&&, jukebox::IndexManager::fetchIndex(jukebox::index::IndexSource const&)::$_1&&, void (*&&)(), std::__ndk1::basic_string_view<char, std::__ndk1::char_traits<char> >) const::{lambda(geode::Task<geode::utils::web::WebResponse, geode::utils::web::WebProgress>::Event*)#1}>, void (geode::Task<geode::utils::web::WebResponse, geode::utils::web::WebProgress>::Event*)>::destroy()
PUBLIC 8491c 0 std::__ndk1::__function::__func<geode::Task<geode::utils::web::WebResponse, geode::utils::web::WebProgress>::map<jukebox::IndexManager::fetchIndex(jukebox::index::IndexSource const&)::$_0, jukebox::IndexManager::fetchIndex(jukebox::index::IndexSource const&)::$_1, void (*)()>(jukebox::IndexManager::fetchIndex(jukebox::index::IndexSource const&)::$_0&&, jukebox::IndexManager::fetchIndex(jukebox::index::IndexSource const&)::$_1&&, void (*&&)(), std::__ndk1::basic_string_view<char, std::__ndk1::char_traits<char> >) const::{lambda(geode::Task<geode::utils::web::WebResponse, geode::utils::web::WebProgress>::Event*)#1}, std::__ndk1::allocator<geode::Task<geode::utils::web::WebResponse, geode::utils::web::WebProgress>::map<jukebox::IndexManager::fetchIndex(jukebox::index::IndexSource const&)::$_0, jukebox::IndexManager::fetchIndex(jukebox::index::IndexSource const&)::$_1, void (*)()>(jukebox::IndexManager::fetchIndex(jukebox::index::IndexSource const&)::$_0&&, jukebox::IndexManager::fetchIndex(jukebox::index::IndexSource const&)::$_1&&, void (*&&)(), std::__ndk1::basic_string_view<char, std::__ndk1::char_traits<char> >) const::{lambda(geode::Task<geode::utils::web::WebResponse, geode::utils::web::WebProgress>::Event*)#1}>, void (geode::Task<geode::utils::web::WebResponse, geode::utils::web::WebProgress>::Event*)>::destroy_deallocate()
PUBLIC 84958 0 std::__ndk1::__function::__func<geode::Task<geode::utils::web::WebResponse, geode::utils::web::WebProgress>::map<jukebox::IndexManager::fetchIndex(jukebox::index::IndexSource const&)::$_0, jukebox::IndexManager::fetchIndex(jukebox::index::IndexSource const&)::$_1, void (*)()>(jukebox::IndexManager::fetchIndex(jukebox::index::IndexSource const&)::$_0&&, jukebox::IndexManager::fetchIndex(jukebox::index::IndexSource const&)::$_1&&, void (*&&)(), std::__ndk1::basic_string_view<char, std::__ndk1::char_traits<char> >) const::{lambda(geode::Task<geode::utils::web::WebResponse, geode::utils::web::WebProgress>::Event*)#1}, std::__ndk1::allocator<geode::Task<geode::utils::web::WebResponse, geode::utils::web::WebProgress>::map<jukebox::IndexManager::fetchIndex(jukebox::index::IndexSource const&)::$_0, jukebox::IndexManager::fetchIndex(jukebox::index::IndexSource const&)::$_1, void (*)()>(jukebox::IndexManager::fetchIndex(jukebox::index::IndexSource const&)::$_0&&, jukebox::IndexManager::fetchIndex(jukebox::index::IndexSource const&)::$_1&&, void (*&&)(), std::__ndk1::basic_string_view<char, std::__ndk1::char_traits<char> >) const::{lambda(geode::Task<geode::utils::web::WebResponse, geode::utils::web::WebProgress>::Event*)#1}>, void (geode::Task<geode::utils::web::WebResponse, geode::utils::web::WebProgress>::Event*)>::operator()(geode::Task<geode::utils::web::WebResponse, geode::utils::web::WebProgress>::Event*&&)
PUBLIC 84c0c 0 std::__ndk1::__function::__func<geode::Task<geode::utils::web::WebResponse, geode::utils::web::WebProgress>::map<jukebox::IndexManager::fetchIndex(jukebox::index::IndexSource const&)::$_0, jukebox::IndexManager::fetchIndex(jukebox::index::IndexSource const&)::$_1, void (*)()>(jukebox::IndexManager::fetchIndex(jukebox::index::IndexSource const&)::$_0&&, jukebox::IndexManager::fetchIndex(jukebox::index::IndexSource const&)::$_1&&, void (*&&)(), std::__ndk1::basic_string_view<char, std::__ndk1::char_traits<char> >) const::{lambda(geode::Task<geode::utils::web::WebResponse, geode::utils::web::WebProgress>::Event*)#1}, std::__ndk1::allocator<geode::Task<geode::utils::web::WebResponse, geode::utils::web::WebProgress>::map<jukebox::IndexManager::fetchIndex(jukebox::index::IndexSource const&)::$_0, jukebox::IndexManager::fetchIndex(jukebox::index::IndexSource const&)::$_1, void (*)()>(jukebox::IndexManager::fetchIndex(jukebox::index::IndexSource const&)::$_0&&, jukebox::IndexManager::fetchIndex(jukebox::index::IndexSource const&)::$_1&&, void (*&&)(), std::__ndk1::basic_string_view<char, std::__ndk1::char_traits<char> >) const::{lambda(geode::Task<geode::utils::web::WebResponse, geode::utils::web::WebProgress>::Event*)#1}>, void (geode::Task<geode::utils::web::WebResponse, geode::utils::web::WebProgress>::Event*)>::target(std::type_info const&) const
PUBLIC 84c28 0 std::__ndk1::__function::__func<geode::Task<geode::utils::web::WebResponse, geode::utils::web::WebProgress>::map<jukebox::IndexManager::fetchIndex(jukebox::index::IndexSource const&)::$_0, jukebox::IndexManager::fetchIndex(jukebox::index::IndexSource const&)::$_1, void (*)()>(jukebox::IndexManager::fetchIndex(jukebox::index::IndexSource const&)::$_0&&, jukebox::IndexManager::fetchIndex(jukebox::index::IndexSource const&)::$_1&&, void (*&&)(), std::__ndk1::basic_string_view<char, std::__ndk1::char_traits<char> >) const::{lambda(geode::Task<geode::utils::web::WebResponse, geode::utils::web::WebProgress>::Event*)#1}, std::__ndk1::allocator<geode::Task<geode::utils::web::WebResponse, geode::utils::web::WebProgress>::map<jukebox::IndexManager::fetchIndex(jukebox::index::IndexSource const&)::$_0, jukebox::IndexManager::fetchIndex(jukebox::index::IndexSource const&)::$_1, void (*)()>(jukebox::IndexManager::fetchIndex(jukebox::index::IndexSource const&)::$_0&&, jukebox::IndexManager::fetchIndex(jukebox::index::IndexSource const&)::$_1&&, void (*&&)(), std::__ndk1::basic_string_view<char, std::__ndk1::char_traits<char> >) const::{lambda(geode::Task<geode::utils::web::WebResponse, geode::utils::web::WebProgress>::Event*)#1}>, void (geode::Task<geode::utils::web::WebResponse, geode::utils::web::WebProgress>::Event*)>::target_type() const
PUBLIC 84c34 0 std::__ndk1::__function::__func<geode::Task<geode::Result<matjson::Value, std::__ndk1::basic_string<char, std::__ndk1::char_traits<char>, std::__ndk1::allocator<char> > >, float>::progress(std::__ndk1::shared_ptr<geode::Task<geode::Result<matjson::Value, std::__ndk1::basic_string<char, std::__ndk1::char_traits<char>, std::__ndk1::allocator<char> > >, float>::Handle>, float&&)::{lambda()#1}, std::__ndk1::allocator<geode::Task<geode::Result<matjson::Value, std::__ndk1::basic_string<char, std::__ndk1::char_traits<char>, std::__ndk1::allocator<char> > >, float>::progress(std::__ndk1::shared_ptr<geode::Task<geode::Result<matjson::Value, std::__ndk1::basic_string<char, std::__ndk1::char_traits<char>, std::__ndk1::allocator<char> > >, float>::Handle>, float&&)::{lambda()#1}>, void ()>::~__func()
PUBLIC 84c90 0 std::__ndk1::__function::__func<geode::Task<geode::Result<matjson::Value, std::__ndk1::basic_string<char, std::__ndk1::char_traits<char>, std::__ndk1::allocator<char> > >, float>::progress(std::__ndk1::shared_ptr<geode::Task<geode::Result<matjson::Value, std::__ndk1::basic_string<char, std::__ndk1::char_traits<char>, std::__ndk1::allocator<char> > >, float>::Handle>, float&&)::{lambda()#1}, std::__ndk1::allocator<geode::Task<geode::Result<matjson::Value, std::__ndk1::basic_string<char, std::__ndk1::char_traits<char>, std::__ndk1::allocator<char> > >, float>::progress(std::__ndk1::shared_ptr<geode::Task<geode::Result<matjson::Value, std::__ndk1::basic_string<char, std::__ndk1::char_traits<char>, std::__ndk1::allocator<char> > >, float>::Handle>, float&&)::{lambda()#1}>, void ()>::~__func()
PUBLIC 84cfc 0 std::__ndk1::__function::__func<geode::Task<geode::Result<matjson::Value, std::__ndk1::basic_string<char, std::__ndk1::char_traits<char>, std::__ndk1::allocator<char> > >, float>::progress(std::__ndk1::shared_ptr<geode::Task<geode::Result<matjson::Value, std::__ndk1::basic_string<char, std::__ndk1::char_traits<char>, std::__ndk1::allocator<char> > >, float>::Handle>, float&&)::{lambda()#1}, std::__ndk1::allocator<geode::Task<geode::Result<matjson::Value, std::__ndk1::basic_string<char, std::__ndk1::char_traits<char>, std::__ndk1::allocator<char> > >, float>::progress(std::__ndk1::shared_ptr<geode::Task<geode::Result<matjson::Value, std::__ndk1::basic_string<char, std::__ndk1::char_traits<char>, std::__ndk1::allocator<char> > >, float>::Handle>, float&&)::{lambda()#1}>, void ()>::__clone() const
PUBLIC 84d54 0 std::__ndk1::__function::__func<geode::Task<geode::Result<matjson::Value, std::__ndk1::basic_string<char, std::__ndk1::char_traits<char>, std::__ndk1::allocator<char> > >, float>::progress(std::__ndk1::shared_ptr<geode::Task<geode::Result<matjson::Value, std::__ndk1::basic_string<char, std::__ndk1::char_traits<char>, std::__ndk1::allocator<char> > >, float>::Handle>, float&&)::{lambda()#1}, std::__ndk1::allocator<geode::Task<geode::Result<matjson::Value, std::__ndk1::basic_string<char, std::__ndk1::char_traits<char>, std::__ndk1::allocator<char> > >, float>::progress(std::__ndk1::shared_ptr<geode::Task<geode::Result<matjson::Value, std::__ndk1::basic_string<char, std::__ndk1::char_traits<char>, std::__ndk1::allocator<char> > >, float>::Handle>, float&&)::{lambda()#1}>, void ()>::__clone(std::__ndk1::__function::__base<void ()>*) const
PUBLIC 84da0 0 std::__ndk1::__function::__func<geode::Task<geode::Result<matjson::Value, std::__ndk1::basic_string<char, std::__ndk1::char_traits<char>, std::__ndk1::allocator<char> > >, float>::progress(std::__ndk1::shared_ptr<geode::Task<geode::Result<matjson::Value, std::__ndk1::basic_string<char, std::__ndk1::char_traits<char>, std::__ndk1::allocator<char> > >, float>::Handle>, float&&)::{lambda()#1}, std::__ndk1::allocator<geode::Task<geode::Result<matjson::Value, std::__ndk1::basic_string<char, std::__ndk1::char_traits<char>, std::__ndk1::allocator<char> > >, float>::progress(std::__ndk1::shared_ptr<geode::Task<geode::Result<matjson::Value, std::__ndk1::basic_string<char, std::__ndk1::char_traits<char>, std::__ndk1::allocator<char> > >, float>::Handle>, float&&)::{lambda()#1}>, void ()>::destroy()
PUBLIC 84df0 0 std::__ndk1::__function::__func<geode::Task<geode::Result<matjson::Value, std::__ndk1::basic_string<char, std::__ndk1::char_traits<char>, std::__ndk1::allocator<char> > >, float>::progress(std::__ndk1::shared_ptr<geode::Task<geode::Result<matjson::Value, std::__ndk1::basic_string<char, std::__ndk1::char_traits<char>, std::__ndk1::allocator<char> > >, float>::Handle>, float&&)::{lambda()#1}, std::__ndk1::allocator<geode::Task<geode::Result<matjson::Value, std::__ndk1::basic_string<char, std::__ndk1::char_traits<char>, std::__ndk1::allocator<char> > >, float>::progress(std::__ndk1::shared_ptr<geode::Task<geode::Result<matjson::Value, std::__ndk1::basic_string<char, std::__ndk1::char_traits<char>, std::__ndk1::allocator<char> > >, float>::Handle>, float&&)::{lambda()#1}>, void ()>::destroy_deallocate()
PUBLIC 84e50 0 std::__ndk1::__function::__func<geode::Task<geode::Result<matjson::Value, std::__ndk1::basic_string<char, std::__ndk1::char_traits<char>, std::__ndk1::allocator<char> > >, float>::progress(std::__ndk1::shared_ptr<geode::Task<geode::Result<matjson::Value, std::__ndk1::basic_string<char, std::__ndk1::char_traits<char>, std::__ndk1::allocator<char> > >, float>::Handle>, float&&)::{lambda()#1}, std::__ndk1::allocator<geode::Task<geode::Result<matjson::Value, std::__ndk1::basic_string<char, std::__ndk1::char_traits<char>, std::__ndk1::allocator<char> > >, float>::progress(std::__ndk1::shared_ptr<geode::Task<geode::Result<matjson::Value, std::__ndk1::basic_string<char, std::__ndk1::char_traits<char>, std::__ndk1::allocator<char> > >, float>::Handle>, float&&)::{lambda()#1}>, void ()>::operator()()
PUBLIC 85004 0 std::__ndk1::__function::__func<geode::Task<geode::Result<matjson::Value, std::__ndk1::basic_string<char, std::__ndk1::char_traits<char>, std::__ndk1::allocator<char> > >, float>::progress(std::__ndk1::shared_ptr<geode::Task<geode::Result<matjson::Value, std::__ndk1::basic_string<char, std::__ndk1::char_traits<char>, std::__ndk1::allocator<char> > >, float>::Handle>, float&&)::{lambda()#1}, std::__ndk1::allocator<geode::Task<geode::Result<matjson::Value, std::__ndk1::basic_string<char, std::__ndk1::char_traits<char>, std::__ndk1::allocator<char> > >, float>::progress(std::__ndk1::shared_ptr<geode::Task<geode::Result<matjson::Value, std::__ndk1::basic_string<char, std::__ndk1::char_traits<char>, std::__ndk1::allocator<char> > >, float>::Handle>, float&&)::{lambda()#1}>, void ()>::target(std::type_info const&) const
PUBLIC 85020 0 std::__ndk1::__function::__func<geode::Task<geode::Result<matjson::Value, std::__ndk1::basic_string<char, std::__ndk1::char_traits<char>, std::__ndk1::allocator<char> > >, float>::progress(std::__ndk1::shared_ptr<geode::Task<geode::Result<matjson::Value, std::__ndk1::basic_string<char, std::__ndk1::char_traits<char>, std::__ndk1::allocator<char> > >, float>::Handle>, float&&)::{lambda()#1}, std::__ndk1::allocator<geode::Task<geode::Result<matjson::Value, std::__ndk1::basic_string<char, std::__ndk1::char_traits<char>, std::__ndk1::allocator<char> > >, float>::progress(std::__ndk1::shared_ptr<geode::Task<geode::Result<matjson::Value, std::__ndk1::basic_string<char, std::__ndk1::char_traits<char>, std::__ndk1::allocator<char> > >, float>::Handle>, float&&)::{lambda()#1}>, void ()>::target_type() const
PUBLIC 8502c 0 geode::Task<geode::utils::web::WebResponse, geode::utils::web::WebProgress>::map<jukebox::IndexManager::fetchIndex(jukebox::index::IndexSource const&)::$_0, jukebox::IndexManager::fetchIndex(jukebox::index::IndexSource const&)::$_1, void (*)()>(jukebox::IndexManager::fetchIndex(jukebox::index::IndexSource const&)::$_0&&, jukebox::IndexManager::fetchIndex(jukebox::index::IndexSource const&)::$_1&&, void (*&&)(), std::__ndk1::basic_string_view<char, std::__ndk1::char_traits<char> >) const::{lambda(void*)#1}::__invoke(void*)
PUBLIC 85040 0 geode::Task<geode::utils::web::WebResponse, geode::utils::web::WebProgress>::map<jukebox::IndexManager::fetchIndex(jukebox::index::IndexSource const&)::$_0, jukebox::IndexManager::fetchIndex(jukebox::index::IndexSource const&)::$_1, void (*)()>(jukebox::IndexManager::fetchIndex(jukebox::index::IndexSource const&)::$_0&&, jukebox::IndexManager::fetchIndex(jukebox::index::IndexSource const&)::$_1&&, void (*&&)(), std::__ndk1::basic_string_view<char, std::__ndk1::char_traits<char> >) const::{lambda(void*)#2}::__invoke(void*)
PUBLIC 850f8 0 geode::Task<geode::utils::web::WebResponse, geode::utils::web::WebProgress>::map<jukebox::IndexManager::fetchIndex(jukebox::index::IndexSource const&)::$_0, jukebox::IndexManager::fetchIndex(jukebox::index::IndexSource const&)::$_1>(jukebox::IndexManager::fetchIndex(jukebox::index::IndexSource const&)::$_0&&, jukebox::IndexManager::fetchIndex(jukebox::index::IndexSource const&)::$_1&&, std::__ndk1::basic_string_view<char, std::__ndk1::char_traits<char> >) const::{lambda()#1}::__invoke()
PUBLIC 850fc 0 _ZN5geode15UnwrapExceptionC2IRPN7jukebox5NongsEQsr4implE18IsStringStreamableIT_EEENS_4impl5OkTagEOS6_
PUBLIC 85250 0 std::__ndk1::__variant_detail::__visitation::__base::__dispatcher<(unsigned long)0>::__dispatch[abi:ne180000]<std::__ndk1::__variant_detail::__dtor<std::__ndk1::__variant_detail::__traits<geode::Task<std::__ndk1::__variant_detail::__traits::Result<std::__ndk1::vector<unsigned char, std::__ndk1::allocator<unsigned char> >, std::__ndk1::basic_string<char, std::__ndk1::char_traits<char>, std::__ndk1::vector<char> > >, float>, std::__ndk1::vector<char> >, (std::__ndk1::__variant_detail::_Trait)1>::__destroy[abi:ne180000]()::{lambda(auto:1&)#1}, std::__ndk1::__variant_detail::__base<(std::__ndk1::__variant_detail::__traits<geode::Task<std::__ndk1::__variant_detail::__traits::Result<std::__ndk1::vector<unsigned char, std::__ndk1::allocator<unsigned char> >, std::__ndk1::basic_string<char, std::__ndk1::char_traits<char>, std::__ndk1::vector<char> > >, float>, std::__ndk1::vector<char> >)1, std::__ndk1::__variant_detail::__traits::Result<std::__ndk1::vector<unsigned char, std::__ndk1::allocator<unsigned char> >, std::__ndk1::basic_string<char, std::__ndk1::char_traits<char>, std::__ndk1::vector<char> > >, std::__ndk1::vector<char> >&>(std::__ndk1::__variant_detail::__dtor<std::__ndk1::__variant_detail::__traits<geode::Task<std::__ndk1::__variant_detail::__traits::Result<std::__ndk1::vector<unsigned char, std::__ndk1::allocator<unsigned char> >, std::__ndk1::basic_string<char, std::__ndk1::char_traits<char>, std::__ndk1::vector<char> > >, float>, std::__ndk1::vector<char> >, (std::__ndk1::__variant_detail::_Trait)1>, std::__ndk1::__variant_detail::__base<(std::__ndk1::__variant_detail::__traits<geode::Task<std::__ndk1::__variant_detail::__traits::Result<std::__ndk1::vector<unsigned char, std::__ndk1::allocator<unsigned char> >, std::__ndk1::basic_string<char, std::__ndk1::char_traits<char>, std::__ndk1::vector<char> > >, float>, std::__ndk1::vector<char> >)1, std::__ndk1::__variant_detail::__traits::Result<std::__ndk1::vector<unsigned char, std::__ndk1::allocator<unsigned char> >, std::__ndk1::basic_string<char, std::__ndk1::char_traits<char>, std::__ndk1::vector<char> > >, std::__ndk1::vector<char> >&)
PUBLIC 852a0 0 std::__ndk1::__variant_detail::__visitation::__base::__dispatcher<(unsigned long)1>::__dispatch[abi:ne180000]<std::__ndk1::__variant_detail::__dtor<std::__ndk1::__variant_detail::__traits<geode::Task<std::__ndk1::__variant_detail::__traits::Result<std::__ndk1::vector<unsigned char, std::__ndk1::allocator<unsigned char> >, std::__ndk1::basic_string<char, std::__ndk1::char_traits<char>, std::__ndk1::vector<char> > >, float>, std::__ndk1::vector<char> >, (std::__ndk1::__variant_detail::_Trait)1>::__destroy[abi:ne180000]()::{lambda(auto:1&)#1}, std::__ndk1::__variant_detail::__base<(std::__ndk1::__variant_detail::__traits<geode::Task<std::__ndk1::__variant_detail::__traits::Result<std::__ndk1::vector<unsigned char, std::__ndk1::allocator<unsigned char> >, std::__ndk1::basic_string<char, std::__ndk1::char_traits<char>, std::__ndk1::vector<char> > >, float>, std::__ndk1::vector<char> >)1, std::__ndk1::__variant_detail::__traits::Result<std::__ndk1::vector<unsigned char, std::__ndk1::allocator<unsigned char> >, std::__ndk1::basic_string<char, std::__ndk1::char_traits<char>, std::__ndk1::vector<char> > >, std::__ndk1::vector<char> >&>(std::__ndk1::__variant_detail::__dtor<std::__ndk1::__variant_detail::__traits<geode::Task<std::__ndk1::__variant_detail::__traits::Result<std::__ndk1::vector<unsigned char, std::__ndk1::allocator<unsigned char> >, std::__ndk1::basic_string<char, std::__ndk1::char_traits<char>, std::__ndk1::vector<char> > >, float>, std::__ndk1::vector<char> >, (std::__ndk1::__variant_detail::_Trait)1>, std::__ndk1::__variant_detail::__base<(std::__ndk1::__variant_detail::__traits<geode::Task<std::__ndk1::__variant_detail::__traits::Result<std::__ndk1::vector<unsigned char, std::__ndk1::allocator<unsigned char> >, std::__ndk1::basic_string<char, std::__ndk1::char_traits<char>, std::__ndk1::vector<char> > >, float>, std::__ndk1::vector<char> >)1, std::__ndk1::__variant_detail::__traits::Result<std::__ndk1::vector<unsigned char, std::__ndk1::allocator<unsigned char> >, std::__ndk1::basic_string<char, std::__ndk1::char_traits<char>, std::__ndk1::vector<char> > >, std::__ndk1::vector<char> >&)
PUBLIC 852b4 0 std::__ndk1::__fs::filesystem::path::path[abi:ne180000]<char [6], void>(std::__ndk1::__fs::filesystem::path::format)
PUBLIC 85308 0 std::__ndk1::__variant_detail::__visitation::__base::__dispatcher<(unsigned long)0>::__dispatch[abi:ne180000]<std::__ndk1::__variant_detail::__dtor<std::__ndk1::__variant_detail::__traits<jukebox::HostedSong*, std::__ndk1::basic_string<char, std::__ndk1::char_traits<char>, std::__ndk1::allocator<char> > >, (std::__ndk1::__variant_detail::_Trait)1>::__destroy[abi:ne180000]()::{lambda(auto:1&)#1}, std::__ndk1::__variant_detail::__base<(std::__ndk1::__variant_detail::__traits<jukebox::HostedSong*, std::__ndk1::basic_string<char, std::__ndk1::char_traits<char>, std::__ndk1::allocator<char> > >)1, jukebox::HostedSong, std::__ndk1::allocator<char> >&>(std::__ndk1::__variant_detail::__dtor<std::__ndk1::__variant_detail::__traits<jukebox::HostedSong*, std::__ndk1::basic_string<char, std::__ndk1::char_traits<char>, std::__ndk1::allocator<char> > >, (std::__ndk1::__variant_detail::_Trait)1>, std::__ndk1::__variant_detail::__base<(std::__ndk1::__variant_detail::__traits<jukebox::HostedSong*, std::__ndk1::basic_string<char, std::__ndk1::char_traits<char>, std::__ndk1::allocator<char> > >)1, jukebox::HostedSong, std::__ndk1::allocator<char> >&)
PUBLIC 8530c 0 std::__ndk1::__variant_detail::__visitation::__base::__dispatcher<(unsigned long)1>::__dispatch[abi:ne180000]<std::__ndk1::__variant_detail::__dtor<std::__ndk1::__variant_detail::__traits<jukebox::HostedSong*, std::__ndk1::basic_string<char, std::__ndk1::char_traits<char>, std::__ndk1::allocator<char> > >, (std::__ndk1::__variant_detail::_Trait)1>::__destroy[abi:ne180000]()::{lambda(auto:1&)#1}, std::__ndk1::__variant_detail::__base<(std::__ndk1::__variant_detail::__traits<jukebox::HostedSong*, std::__ndk1::basic_string<char, std::__ndk1::char_traits<char>, std::__ndk1::allocator<char> > >)1, jukebox::HostedSong, std::__ndk1::allocator<char> >&>(std::__ndk1::__variant_detail::__dtor<std::__ndk1::__variant_detail::__traits<jukebox::HostedSong*, std::__ndk1::basic_string<char, std::__ndk1::char_traits<char>, std::__ndk1::allocator<char> > >, (std::__ndk1::__variant_detail::_Trait)1>, std::__ndk1::__variant_detail::__base<(std::__ndk1::__variant_detail::__traits<jukebox::HostedSong*, std::__ndk1::basic_string<char, std::__ndk1::char_traits<char>, std::__ndk1::allocator<char> > >)1, jukebox::HostedSong, std::__ndk1::allocator<char> >&)
PUBLIC 85320 0 std::__ndk1::__variant_detail::__visitation::__base::__dispatcher<(unsigned long)0>::__dispatch[abi:ne180000]<std::__ndk1::__variant_detail::__dtor<std::__ndk1::__variant_detail::__traits<jukebox::YTSong*, std::__ndk1::basic_string<char, std::__ndk1::char_traits<char>, std::__ndk1::allocator<char> > >, (std::__ndk1::__variant_detail::_Trait)1>::__destroy[abi:ne180000]()::{lambda(auto:1&)#1}, std::__ndk1::__variant_detail::__base<(std::__ndk1::__variant_detail::__traits<jukebox::YTSong*, std::__ndk1::basic_string<char, std::__ndk1::char_traits<char>, std::__ndk1::allocator<char> > >)1, jukebox::YTSong, std::__ndk1::allocator<char> >&>(std::__ndk1::__variant_detail::__dtor<std::__ndk1::__variant_detail::__traits<jukebox::YTSong*, std::__ndk1::basic_string<char, std::__ndk1::char_traits<char>, std::__ndk1::allocator<char> > >, (std::__ndk1::__variant_detail::_Trait)1>, std::__ndk1::__variant_detail::__base<(std::__ndk1::__variant_detail::__traits<jukebox::YTSong*, std::__ndk1::basic_string<char, std::__ndk1::char_traits<char>, std::__ndk1::allocator<char> > >)1, jukebox::YTSong, std::__ndk1::allocator<char> >&)
PUBLIC 85324 0 std::__ndk1::__variant_detail::__visitation::__base::__dispatcher<(unsigned long)1>::__dispatch[abi:ne180000]<std::__ndk1::__variant_detail::__dtor<std::__ndk1::__variant_detail::__traits<jukebox::YTSong*, std::__ndk1::basic_string<char, std::__ndk1::char_traits<char>, std::__ndk1::allocator<char> > >, (std::__ndk1::__variant_detail::_Trait)1>::__destroy[abi:ne180000]()::{lambda(auto:1&)#1}, std::__ndk1::__variant_detail::__base<(std::__ndk1::__variant_detail::__traits<jukebox::YTSong*, std::__ndk1::basic_string<char, std::__ndk1::char_traits<char>, std::__ndk1::allocator<char> > >)1, jukebox::YTSong, std::__ndk1::allocator<char> >&>(std::__ndk1::__variant_detail::__dtor<std::__ndk1::__variant_detail::__traits<jukebox::YTSong*, std::__ndk1::basic_string<char, std::__ndk1::char_traits<char>, std::__ndk1::allocator<char> > >, (std::__ndk1::__variant_detail::_Trait)1>, std::__ndk1::__variant_detail::__base<(std::__ndk1::__variant_detail::__traits<jukebox::YTSong*, std::__ndk1::basic_string<char, std::__ndk1::char_traits<char>, std::__ndk1::allocator<char> > >)1, jukebox::YTSong, std::__ndk1::allocator<char> >&)
PUBLIC 85338 0 std::__ndk1::shared_ptr<jukebox::IndexSetting>::~shared_ptr[abi:ne180000]()
PUBLIC 85388 0 std::__ndk1::__hash_table<std::__ndk1::__hash_value_type<int, std::__ndk1::vector<jukebox::index::IndexSongMetadata*, std::__ndk1::allocator<jukebox::index::IndexSongMetadata*> > >, std::__ndk1::__unordered_map_hasher<int, std::__ndk1::__hash_value_type<int, std::__ndk1::vector<jukebox::index::IndexSongMetadata*, std::__ndk1::allocator<jukebox::index::IndexSongMetadata*> > >, std::__ndk1::hash<int>, std::__ndk1::equal_to<int>, true>, std::__ndk1::__unordered_map_equal<int, std::__ndk1::__hash_value_type<int, std::__ndk1::vector<jukebox::index::IndexSongMetadata*, std::__ndk1::allocator<jukebox::index::IndexSongMetadata*> > >, std::__ndk1::equal_to<int>, std::__ndk1::hash<int>, true>, std::__ndk1::allocator<std::__ndk1::__hash_value_type<int, std::__ndk1::vector<jukebox::index::IndexSongMetadata*, std::__ndk1::allocator<jukebox::index::IndexSongMetadata*> > > > >::__emplace_unique_key_args<int, std::__ndk1::piecewise_construct_t const&, std::__ndk1::tuple<int const&>, std::__ndk1::tuple<> >(int const&, std::__ndk1::piecewise_construct_t const&, std::__ndk1::tuple<int const&>, std::__ndk1::tuple<>)
PUBLIC 856cc 0 std::__ndk1::unique_ptr<std::__ndk1::__hash_node<std::__ndk1::__hash_value_type<int, std::__ndk1::vector<jukebox::index::IndexSongMetadata*, std::__ndk1::allocator<jukebox::index::IndexSongMetadata*> > >, void*>, std::__ndk1::__hash_node_destructor<std::__ndk1::allocator<std::__ndk1::__hash_node<std::__ndk1::__hash_value_type<int, std::__ndk1::vector<jukebox::index::IndexSongMetadata*, std::__ndk1::allocator<jukebox::index::IndexSongMetadata*> > >, void*> > > >::~unique_ptr[abi:ne180000]()
PUBLIC 85718 0 std::__ndk1::__hash_table<std::__ndk1::__hash_value_type<int, std::__ndk1::vector<jukebox::index::IndexSongMetadata*, std::__ndk1::allocator<jukebox::index::IndexSongMetadata*> > >, std::__ndk1::__unordered_map_hasher<int, std::__ndk1::__hash_value_type<int, std::__ndk1::vector<jukebox::index::IndexSongMetadata*, std::__ndk1::allocator<jukebox::index::IndexSongMetadata*> > >, std::__ndk1::hash<int>, std::__ndk1::equal_to<int>, true>, std::__ndk1::__unordered_map_equal<int, std::__ndk1::__hash_value_type<int, std::__ndk1::vector<jukebox::index::IndexSongMetadata*, std::__ndk1::allocator<jukebox::index::IndexSongMetadata*> > >, std::__ndk1::equal_to<int>, std::__ndk1::hash<int>, true>, std::__ndk1::allocator<std::__ndk1::__hash_value_type<int, std::__ndk1::vector<jukebox::index::IndexSongMetadata*, std::__ndk1::allocator<jukebox::index::IndexSongMetadata*> > > > >::__do_rehash<true>(unsigned long)
PUBLIC 858c4 0 std::__ndk1::unique_ptr<std::__ndk1::__hash_node<std::__ndk1::__hash_value_type<std::__ndk1::basic_string<char, std::__ndk1::char_traits<char>, std::__ndk1::allocator<char> >, std::__ndk1::unique_ptr<jukebox::index::IndexMetadata, std::__ndk1::default_delete<jukebox::index::IndexMetadata> > >, void*>, std::__ndk1::__hash_node_destructor<std::__ndk1::allocator<std::__ndk1::__hash_node<std::__ndk1::__hash_value_type<std::__ndk1::basic_string<char, std::__ndk1::char_traits<char>, std::__ndk1::allocator<char> >, std::__ndk1::unique_ptr<jukebox::index::IndexMetadata, std::__ndk1::default_delete<jukebox::index::IndexMetadata> > >, void*> > > >::~unique_ptr[abi:ne180000]()
PUBLIC 8592c 0 geode::Task<geode::Result<matjson::Value, std::__ndk1::basic_string<char, std::__ndk1::char_traits<char>, std::__ndk1::allocator<char> > >, float>::listen<jukebox::IndexManager::fetchIndexes()::$_0, jukebox::IndexManager::fetchIndexes()::$_1, jukebox::IndexManager::fetchIndexes()::$_2>(jukebox::IndexManager::fetchIndexes()::$_0&&, jukebox::IndexManager::fetchIndexes()::$_1&&, jukebox::IndexManager::fetchIndexes()::$_2&&) const::{lambda(geode::Task<geode::Result<matjson::Value, std::__ndk1::basic_string<char, std::__ndk1::char_traits<char>, std::__ndk1::allocator<char> > >, float>::Event*)#1}::~{lambda(geode::Task<geode::Result<matjson::Value, std::__ndk1::basic_string<char, std::__ndk1::char_traits<char>, std::__ndk1::allocator<char> > >, float>::Event*)#1}()
PUBLIC 85970 0 geode::EventListener<geode::Task<geode::Result<matjson::Value, std::__ndk1::basic_string<char, std::__ndk1::char_traits<char>, std::__ndk1::allocator<char> > >, float> >::getPool() const
PUBLIC 85974 0 geode::EventListener<geode::Task<geode::Result<matjson::Value, std::__ndk1::basic_string<char, std::__ndk1::char_traits<char>, std::__ndk1::allocator<char> > >, float> >::handle(geode::Event*)
PUBLIC 85b40 0 geode::EventListener<geode::Task<geode::Result<matjson::Value, std::__ndk1::basic_string<char, std::__ndk1::char_traits<char>, std::__ndk1::allocator<char> > >, float> >::~EventListener()
PUBLIC 85bdc 0 geode::EventListener<geode::Task<geode::Result<matjson::Value, std::__ndk1::basic_string<char, std::__ndk1::char_traits<char>, std::__ndk1::allocator<char> > >, float> >::~EventListener()
PUBLIC 85c80 0 geode::Task<geode::Result<matjson::Value, std::__ndk1::basic_string<char, std::__ndk1::char_traits<char>, std::__ndk1::allocator<char> > >, float>::setListener(geode::EventListenerProtocol*)::{lambda()#1}::~{lambda()#1}()
PUBLIC 85cd0 0 std::__ndk1::__function::__func<geode::Task<geode::Result<matjson::Value, std::__ndk1::basic_string<char, std::__ndk1::char_traits<char>, std::__ndk1::allocator<char> > >, float>::setListener(geode::EventListenerProtocol*)::{lambda()#1}, std::__ndk1::allocator<geode::Task<geode::Result<matjson::Value, std::__ndk1::basic_string<char, std::__ndk1::char_traits<char>, std::__ndk1::allocator<char> > >, float>::setListener(geode::EventListenerProtocol*)::{lambda()#1}>, void ()>::~__func()
PUBLIC 85d2c 0 std::__ndk1::__function::__func<geode::Task<geode::Result<matjson::Value, std::__ndk1::basic_string<char, std::__ndk1::char_traits<char>, std::__ndk1::allocator<char> > >, float>::setListener(geode::EventListenerProtocol*)::{lambda()#1}, std::__ndk1::allocator<geode::Task<geode::Result<matjson::Value, std::__ndk1::basic_string<char, std::__ndk1::char_traits<char>, std::__ndk1::allocator<char> > >, float>::setListener(geode::EventListenerProtocol*)::{lambda()#1}>, void ()>::~__func()
PUBLIC 85d98 0 std::__ndk1::__function::__func<geode::Task<geode::Result<matjson::Value, std::__ndk1::basic_string<char, std::__ndk1::char_traits<char>, std::__ndk1::allocator<char> > >, float>::setListener(geode::EventListenerProtocol*)::{lambda()#1}, std::__ndk1::allocator<geode::Task<geode::Result<matjson::Value, std::__ndk1::basic_string<char, std::__ndk1::char_traits<char>, std::__ndk1::allocator<char> > >, float>::setListener(geode::EventListenerProtocol*)::{lambda()#1}>, void ()>::__clone() const
PUBLIC 85df0 0 std::__ndk1::__function::__func<geode::Task<geode::Result<matjson::Value, std::__ndk1::basic_string<char, std::__ndk1::char_traits<char>, std::__ndk1::allocator<char> > >, float>::setListener(geode::EventListenerProtocol*)::{lambda()#1}, std::__ndk1::allocator<geode::Task<geode::Result<matjson::Value, std::__ndk1::basic_string<char, std::__ndk1::char_traits<char>, std::__ndk1::allocator<char> > >, float>::setListener(geode::EventListenerProtocol*)::{lambda()#1}>, void ()>::__clone(std::__ndk1::__function::__base<void ()>*) const
PUBLIC 85e3c 0 std::__ndk1::__function::__func<geode::Task<geode::Result<matjson::Value, std::__ndk1::basic_string<char, std::__ndk1::char_traits<char>, std::__ndk1::allocator<char> > >, float>::setListener(geode::EventListenerProtocol*)::{lambda()#1}, std::__ndk1::allocator<geode::Task<geode::Result<matjson::Value, std::__ndk1::basic_string<char, std::__ndk1::char_traits<char>, std::__ndk1::allocator<char> > >, float>::setListener(geode::EventListenerProtocol*)::{lambda()#1}>, void ()>::destroy()
PUBLIC 85e8c 0 std::__ndk1::__function::__func<geode::Task<geode::Result<matjson::Value, std::__ndk1::basic_string<char, std::__ndk1::char_traits<char>, std::__ndk1::allocator<char> > >, float>::setListener(geode::EventListenerProtocol*)::{lambda()#1}, std::__ndk1::allocator<geode::Task<geode::Result<matjson::Value, std::__ndk1::basic_string<char, std::__ndk1::char_traits<char>, std::__ndk1::allocator<char> > >, float>::setListener(geode::EventListenerProtocol*)::{lambda()#1}>, void ()>::destroy_deallocate()
PUBLIC 85eec 0 std::__ndk1::__function::__func<geode::Task<geode::Result<matjson::Value, std::__ndk1::basic_string<char, std::__ndk1::char_traits<char>, std::__ndk1::allocator<char> > >, float>::setListener(geode::EventListenerProtocol*)::{lambda()#1}, std::__ndk1::allocator<geode::Task<geode::Result<matjson::Value, std::__ndk1::basic_string<char, std::__ndk1::char_traits<char>, std::__ndk1::allocator<char> > >, float>::setListener(geode::EventListenerProtocol*)::{lambda()#1}>, void ()>::operator()()
PUBLIC 860bc 0 std::__ndk1::__function::__func<geode::Task<geode::Result<matjson::Value, std::__ndk1::basic_string<char, std::__ndk1::char_traits<char>, std::__ndk1::allocator<char> > >, float>::setListener(geode::EventListenerProtocol*)::{lambda()#1}, std::__ndk1::allocator<geode::Task<geode::Result<matjson::Value, std::__ndk1::basic_string<char, std::__ndk1::char_traits<char>, std::__ndk1::allocator<char> > >, float>::setListener(geode::EventListenerProtocol*)::{lambda()#1}>, void ()>::target(std::type_info const&) const
PUBLIC 860d8 0 std::__ndk1::__function::__func<geode::Task<geode::Result<matjson::Value, std::__ndk1::basic_string<char, std::__ndk1::char_traits<char>, std::__ndk1::allocator<char> > >, float>::setListener(geode::EventListenerProtocol*)::{lambda()#1}, std::__ndk1::allocator<geode::Task<geode::Result<matjson::Value, std::__ndk1::basic_string<char, std::__ndk1::char_traits<char>, std::__ndk1::allocator<char> > >, float>::setListener(geode::EventListenerProtocol*)::{lambda()#1}>, void ()>::target_type() const
PUBLIC 860e4 0 std::__ndk1::__function::__func<geode::Task<geode::Result<matjson::Value, std::__ndk1::basic_string<char, std::__ndk1::char_traits<char>, std::__ndk1::allocator<char> > >, float>::setListener(geode::EventListenerProtocol*)::{lambda()#2}, std::__ndk1::allocator<geode::Task<geode::Result<matjson::Value, std::__ndk1::basic_string<char, std::__ndk1::char_traits<char>, std::__ndk1::allocator<char> > >, float>::setListener(geode::EventListenerProtocol*)::{lambda()#2}>, void ()>::~__func()
PUBLIC 86140 0 std::__ndk1::__function::__func<geode::Task<geode::Result<matjson::Value, std::__ndk1::basic_string<char, std::__ndk1::char_traits<char>, std::__ndk1::allocator<char> > >, float>::setListener(geode::EventListenerProtocol*)::{lambda()#2}, std::__ndk1::allocator<geode::Task<geode::Result<matjson::Value, std::__ndk1::basic_string<char, std::__ndk1::char_traits<char>, std::__ndk1::allocator<char> > >, float>::setListener(geode::EventListenerProtocol*)::{lambda()#2}>, void ()>::~__func()
PUBLIC 861ac 0 std::__ndk1::__function::__func<geode::Task<geode::Result<matjson::Value, std::__ndk1::basic_string<char, std::__ndk1::char_traits<char>, std::__ndk1::allocator<char> > >, float>::setListener(geode::EventListenerProtocol*)::{lambda()#2}, std::__ndk1::allocator<geode::Task<geode::Result<matjson::Value, std::__ndk1::basic_string<char, std::__ndk1::char_traits<char>, std::__ndk1::allocator<char> > >, float>::setListener(geode::EventListenerProtocol*)::{lambda()#2}>, void ()>::__clone() const
PUBLIC 86204 0 std::__ndk1::__function::__func<geode::Task<geode::Result<matjson::Value, std::__ndk1::basic_string<char, std::__ndk1::char_traits<char>, std::__ndk1::allocator<char> > >, float>::setListener(geode::EventListenerProtocol*)::{lambda()#2}, std::__ndk1::allocator<geode::Task<geode::Result<matjson::Value, std::__ndk1::basic_string<char, std::__ndk1::char_traits<char>, std::__ndk1::allocator<char> > >, float>::setListener(geode::EventListenerProtocol*)::{lambda()#2}>, void ()>::__clone(std::__ndk1::__function::__base<void ()>*) const
PUBLIC 86250 0 std::__ndk1::__function::__func<geode::Task<geode::Result<matjson::Value, std::__ndk1::basic_string<char, std::__ndk1::char_traits<char>, std::__ndk1::allocator<char> > >, float>::setListener(geode::EventListenerProtocol*)::{lambda()#2}, std::__ndk1::allocator<geode::Task<geode::Result<matjson::Value, std::__ndk1::basic_string<char, std::__ndk1::char_traits<char>, std::__ndk1::allocator<char> > >, float>::setListener(geode::EventListenerProtocol*)::{lambda()#2}>, void ()>::destroy()
PUBLIC 862a0 0 std::__ndk1::__function::__func<geode::Task<geode::Result<matjson::Value, std::__ndk1::basic_string<char, std::__ndk1::char_traits<char>, std::__ndk1::allocator<char> > >, float>::setListener(geode::EventListenerProtocol*)::{lambda()#2}, std::__ndk1::allocator<geode::Task<geode::Result<matjson::Value, std::__ndk1::basic_string<char, std::__ndk1::char_traits<char>, std::__ndk1::allocator<char> > >, float>::setListener(geode::EventListenerProtocol*)::{lambda()#2}>, void ()>::destroy_deallocate()
PUBLIC 86300 0 std::__ndk1::__function::__func<geode::Task<geode::Result<matjson::Value, std::__ndk1::basic_string<char, std::__ndk1::char_traits<char>, std::__ndk1::allocator<char> > >, float>::setListener(geode::EventListenerProtocol*)::{lambda()#2}, std::__ndk1::allocator<geode::Task<geode::Result<matjson::Value, std::__ndk1::basic_string<char, std::__ndk1::char_traits<char>, std::__ndk1::allocator<char> > >, float>::setListener(geode::EventListenerProtocol*)::{lambda()#2}>, void ()>::operator()()
PUBLIC 864c4 0 std::__ndk1::__function::__func<geode::Task<geode::Result<matjson::Value, std::__ndk1::basic_string<char, std::__ndk1::char_traits<char>, std::__ndk1::allocator<char> > >, float>::setListener(geode::EventListenerProtocol*)::{lambda()#2}, std::__ndk1::allocator<geode::Task<geode::Result<matjson::Value, std::__ndk1::basic_string<char, std::__ndk1::char_traits<char>, std::__ndk1::allocator<char> > >, float>::setListener(geode::EventListenerProtocol*)::{lambda()#2}>, void ()>::target(std::type_info const&) const
PUBLIC 864e0 0 std::__ndk1::__function::__func<geode::Task<geode::Result<matjson::Value, std::__ndk1::basic_string<char, std::__ndk1::char_traits<char>, std::__ndk1::allocator<char> > >, float>::setListener(geode::EventListenerProtocol*)::{lambda()#2}, std::__ndk1::allocator<geode::Task<geode::Result<matjson::Value, std::__ndk1::basic_string<char, std::__ndk1::char_traits<char>, std::__ndk1::allocator<char> > >, float>::setListener(geode::EventListenerProtocol*)::{lambda()#2}>, void ()>::target_type() const
PUBLIC 864ec 0 std::__ndk1::__function::__func<geode::Task<geode::Result<matjson::Value, std::__ndk1::basic_string<char, std::__ndk1::char_traits<char>, std::__ndk1::allocator<char> > >, float>::listen<jukebox::IndexManager::fetchIndexes()::$_0, jukebox::IndexManager::fetchIndexes()::$_1, jukebox::IndexManager::fetchIndexes()::$_2>(jukebox::IndexManager::fetchIndexes()::$_0&&, jukebox::IndexManager::fetchIndexes()::$_1&&, jukebox::IndexManager::fetchIndexes()::$_2&&) const::{lambda(geode::Task<geode::Result<matjson::Value, std::__ndk1::basic_string<char, std::__ndk1::char_traits<char>, std::__ndk1::allocator<char> > >, float>::Event*)#1}, std::__ndk1::allocator<geode::Task<geode::Result<matjson::Value, std::__ndk1::basic_string<char, std::__ndk1::char_traits<char>, std::__ndk1::allocator<char> > >, float>::listen<jukebox::IndexManager::fetchIndexes()::$_0, jukebox::IndexManager::fetchIndexes()::$_1, jukebox::IndexManager::fetchIndexes()::$_2>(jukebox::IndexManager::fetchIndexes()::$_0&&, jukebox::IndexManager::fetchIndexes()::$_1&&, jukebox::IndexManager::fetchIndexes()::$_2&&) const::{lambda(geode::Task<geode::Result<matjson::Value, std::__ndk1::basic_string<char, std::__ndk1::char_traits<char>, std::__ndk1::allocator<char> > >, float>::Event*)#1}>, void (geode::Task<geode::Result<matjson::Value, std::__ndk1::basic_string<char, std::__ndk1::char_traits<char>, std::__ndk1::allocator<char> > >, float>::Event*)>::~__func()
PUBLIC 8653c 0 std::__ndk1::__function::__func<geode::Task<geode::Result<matjson::Value, std::__ndk1::basic_string<char, std::__ndk1::char_traits<char>, std::__ndk1::allocator<char> > >, float>::listen<jukebox::IndexManager::fetchIndexes()::$_0, jukebox::IndexManager::fetchIndexes()::$_1, jukebox::IndexManager::fetchIndexes()::$_2>(jukebox::IndexManager::fetchIndexes()::$_0&&, jukebox::IndexManager::fetchIndexes()::$_1&&, jukebox::IndexManager::fetchIndexes()::$_2&&) const::{lambda(geode::Task<geode::Result<matjson::Value, std::__ndk1::basic_string<char, std::__ndk1::char_traits<char>, std::__ndk1::allocator<char> > >, float>::Event*)#1}, std::__ndk1::allocator<geode::Task<geode::Result<matjson::Value, std::__ndk1::basic_string<char, std::__ndk1::char_traits<char>, std::__ndk1::allocator<char> > >, float>::listen<jukebox::IndexManager::fetchIndexes()::$_0, jukebox::IndexManager::fetchIndexes()::$_1, jukebox::IndexManager::fetchIndexes()::$_2>(jukebox::IndexManager::fetchIndexes()::$_0&&, jukebox::IndexManager::fetchIndexes()::$_1&&, jukebox::IndexManager::fetchIndexes()::$_2&&) const::{lambda(geode::Task<geode::Result<matjson::Value, std::__ndk1::basic_string<char, std::__ndk1::char_traits<char>, std::__ndk1::allocator<char> > >, float>::Event*)#1}>, void (geode::Task<geode::Result<matjson::Value, std::__ndk1::basic_string<char, std::__ndk1::char_traits<char>, std::__ndk1::allocator<char> > >, float>::Event*)>::~__func()
PUBLIC 865a0 0 std::__ndk1::__function::__func<geode::Task<geode::Result<matjson::Value, std::__ndk1::basic_string<char, std::__ndk1::char_traits<char>, std::__ndk1::allocator<char> > >, float>::listen<jukebox::IndexManager::fetchIndexes()::$_0, jukebox::IndexManager::fetchIndexes()::$_1, jukebox::IndexManager::fetchIndexes()::$_2>(jukebox::IndexManager::fetchIndexes()::$_0&&, jukebox::IndexManager::fetchIndexes()::$_1&&, jukebox::IndexManager::fetchIndexes()::$_2&&) const::{lambda(geode::Task<geode::Result<matjson::Value, std::__ndk1::basic_string<char, std::__ndk1::char_traits<char>, std::__ndk1::allocator<char> > >, float>::Event*)#1}, std::__ndk1::allocator<geode::Task<geode::Result<matjson::Value, std::__ndk1::basic_string<char, std::__ndk1::char_traits<char>, std::__ndk1::allocator<char> > >, float>::listen<jukebox::IndexManager::fetchIndexes()::$_0, jukebox::IndexManager::fetchIndexes()::$_1, jukebox::IndexManager::fetchIndexes()::$_2>(jukebox::IndexManager::fetchIndexes()::$_0&&, jukebox::IndexManager::fetchIndexes()::$_1&&, jukebox::IndexManager::fetchIndexes()::$_2&&) const::{lambda(geode::Task<geode::Result<matjson::Value, std::__ndk1::basic_string<char, std::__ndk1::char_traits<char>, std::__ndk1::allocator<char> > >, float>::Event*)#1}>, void (geode::Task<geode::Result<matjson::Value, std::__ndk1::basic_string<char, std::__ndk1::char_traits<char>, std::__ndk1::allocator<char> > >, float>::Event*)>::__clone() const
PUBLIC 8667c 0 std::__ndk1::__function::__func<geode::Task<geode::Result<matjson::Value, std::__ndk1::basic_string<char, std::__ndk1::char_traits<char>, std::__ndk1::allocator<char> > >, float>::listen<jukebox::IndexManager::fetchIndexes()::$_0, jukebox::IndexManager::fetchIndexes()::$_1, jukebox::IndexManager::fetchIndexes()::$_2>(jukebox::IndexManager::fetchIndexes()::$_0&&, jukebox::IndexManager::fetchIndexes()::$_1&&, jukebox::IndexManager::fetchIndexes()::$_2&&) const::{lambda(geode::Task<geode::Result<matjson::Value, std::__ndk1::basic_string<char, std::__ndk1::char_traits<char>, std::__ndk1::allocator<char> > >, float>::Event*)#1}, std::__ndk1::allocator<geode::Task<geode::Result<matjson::Value, std::__ndk1::basic_string<char, std::__ndk1::char_traits<char>, std::__ndk1::allocator<char> > >, float>::listen<jukebox::IndexManager::fetchIndexes()::$_0, jukebox::IndexManager::fetchIndexes()::$_1, jukebox::IndexManager::fetchIndexes()::$_2>(jukebox::IndexManager::fetchIndexes()::$_0&&, jukebox::IndexManager::fetchIndexes()::$_1&&, jukebox::IndexManager::fetchIndexes()::$_2&&) const::{lambda(geode::Task<geode::Result<matjson::Value, std::__ndk1::basic_string<char, std::__ndk1::char_traits<char>, std::__ndk1::allocator<char> > >, float>::Event*)#1}>, void (geode::Task<geode::Result<matjson::Value, std::__ndk1::basic_string<char, std::__ndk1::char_traits<char>, std::__ndk1::allocator<char> > >, float>::Event*)>::__clone(std::__ndk1::__function::__base<void (geode::Task<geode::Result<matjson::Value, std::__ndk1::basic_string<char, std::__ndk1::char_traits<char>, std::__ndk1::allocator<char> > >, float>::Event*)>*) const
PUBLIC 86738 0 std::__ndk1::__function::__func<geode::Task<geode::Result<matjson::Value, std::__ndk1::basic_string<char, std::__ndk1::char_traits<char>, std::__ndk1::allocator<char> > >, float>::listen<jukebox::IndexManager::fetchIndexes()::$_0, jukebox::IndexManager::fetchIndexes()::$_1, jukebox::IndexManager::fetchIndexes()::$_2>(jukebox::IndexManager::fetchIndexes()::$_0&&, jukebox::IndexManager::fetchIndexes()::$_1&&, jukebox::IndexManager::fetchIndexes()::$_2&&) const::{lambda(geode::Task<geode::Result<matjson::Value, std::__ndk1::basic_string<char, std::__ndk1::char_traits<char>, std::__ndk1::allocator<char> > >, float>::Event*)#1}, std::__ndk1::allocator<geode::Task<geode::Result<matjson::Value, std::__ndk1::basic_string<char, std::__ndk1::char_traits<char>, std::__ndk1::allocator<char> > >, float>::listen<jukebox::IndexManager::fetchIndexes()::$_0, jukebox::IndexManager::fetchIndexes()::$_1, jukebox::IndexManager::fetchIndexes()::$_2>(jukebox::IndexManager::fetchIndexes()::$_0&&, jukebox::IndexManager::fetchIndexes()::$_1&&, jukebox::IndexManager::fetchIndexes()::$_2&&) const::{lambda(geode::Task<geode::Result<matjson::Value, std::__ndk1::basic_string<char, std::__ndk1::char_traits<char>, std::__ndk1::allocator<char> > >, float>::Event*)#1}>, void (geode::Task<geode::Result<matjson::Value, std::__ndk1::basic_string<char, std::__ndk1::char_traits<char>, std::__ndk1::allocator<char> > >, float>::Event*)>::destroy()
PUBLIC 8677c 0 std::__ndk1::__function::__func<geode::Task<geode::Result<matjson::Value, std::__ndk1::basic_string<char, std::__ndk1::char_traits<char>, std::__ndk1::allocator<char> > >, float>::listen<jukebox::IndexManager::fetchIndexes()::$_0, jukebox::IndexManager::fetchIndexes()::$_1, jukebox::IndexManager::fetchIndexes()::$_2>(jukebox::IndexManager::fetchIndexes()::$_0&&, jukebox::IndexManager::fetchIndexes()::$_1&&, jukebox::IndexManager::fetchIndexes()::$_2&&) const::{lambda(geode::Task<geode::Result<matjson::Value, std::__ndk1::basic_string<char, std::__ndk1::char_traits<char>, std::__ndk1::allocator<char> > >, float>::Event*)#1}, std::__ndk1::allocator<geode::Task<geode::Result<matjson::Value, std::__ndk1::basic_string<char, std::__ndk1::char_traits<char>, std::__ndk1::allocator<char> > >, float>::listen<jukebox::IndexManager::fetchIndexes()::$_0, jukebox::IndexManager::fetchIndexes()::$_1, jukebox::IndexManager::fetchIndexes()::$_2>(jukebox::IndexManager::fetchIndexes()::$_0&&, jukebox::IndexManager::fetchIndexes()::$_1&&, jukebox::IndexManager::fetchIndexes()::$_2&&) const::{lambda(geode::Task<geode::Result<matjson::Value, std::__ndk1::basic_string<char, std::__ndk1::char_traits<char>, std::__ndk1::allocator<char> > >, float>::Event*)#1}>, void (geode::Task<geode::Result<matjson::Value, std::__ndk1::basic_string<char, std::__ndk1::char_traits<char>, std::__ndk1::allocator<char> > >, float>::Event*)>::destroy_deallocate()
PUBLIC 867d4 0 std::__ndk1::__function::__func<geode::Task<geode::Result<matjson::Value, std::__ndk1::basic_string<char, std::__ndk1::char_traits<char>, std::__ndk1::allocator<char> > >, float>::listen<jukebox::IndexManager::fetchIndexes()::$_0, jukebox::IndexManager::fetchIndexes()::$_1, jukebox::IndexManager::fetchIndexes()::$_2>(jukebox::IndexManager::fetchIndexes()::$_0&&, jukebox::IndexManager::fetchIndexes()::$_1&&, jukebox::IndexManager::fetchIndexes()::$_2&&) const::{lambda(geode::Task<geode::Result<matjson::Value, std::__ndk1::basic_string<char, std::__ndk1::char_traits<char>, std::__ndk1::allocator<char> > >, float>::Event*)#1}, std::__ndk1::allocator<geode::Task<geode::Result<matjson::Value, std::__ndk1::basic_string<char, std::__ndk1::char_traits<char>, std::__ndk1::allocator<char> > >, float>::listen<jukebox::IndexManager::fetchIndexes()::$_0, jukebox::IndexManager::fetchIndexes()::$_1, jukebox::IndexManager::fetchIndexes()::$_2>(jukebox::IndexManager::fetchIndexes()::$_0&&, jukebox::IndexManager::fetchIndexes()::$_1&&, jukebox::IndexManager::fetchIndexes()::$_2&&) const::{lambda(geode::Task<geode::Result<matjson::Value, std::__ndk1::basic_string<char, std::__ndk1::char_traits<char>, std::__ndk1::allocator<char> > >, float>::Event*)#1}>, void (geode::Task<geode::Result<matjson::Value, std::__ndk1::basic_string<char, std::__ndk1::char_traits<char>, std::__ndk1::allocator<char> > >, float>::Event*)>::operator()(geode::Task<geode::Result<matjson::Value, std::__ndk1::basic_string<char, std::__ndk1::char_traits<char>, std::__ndk1::allocator<char> > >, float>::Event*&&)
PUBLIC 86f90 0 std::__ndk1::__function::__func<geode::Task<geode::Result<matjson::Value, std::__ndk1::basic_string<char, std::__ndk1::char_traits<char>, std::__ndk1::allocator<char> > >, float>::listen<jukebox::IndexManager::fetchIndexes()::$_0, jukebox::IndexManager::fetchIndexes()::$_1, jukebox::IndexManager::fetchIndexes()::$_2>(jukebox::IndexManager::fetchIndexes()::$_0&&, jukebox::IndexManager::fetchIndexes()::$_1&&, jukebox::IndexManager::fetchIndexes()::$_2&&) const::{lambda(geode::Task<geode::Result<matjson::Value, std::__ndk1::basic_string<char, std::__ndk1::char_traits<char>, std::__ndk1::allocator<char> > >, float>::Event*)#1}, std::__ndk1::allocator<geode::Task<geode::Result<matjson::Value, std::__ndk1::basic_string<char, std::__ndk1::char_traits<char>, std::__ndk1::allocator<char> > >, float>::listen<jukebox::IndexManager::fetchIndexes()::$_0, jukebox::IndexManager::fetchIndexes()::$_1, jukebox::IndexManager::fetchIndexes()::$_2>(jukebox::IndexManager::fetchIndexes()::$_0&&, jukebox::IndexManager::fetchIndexes()::$_1&&, jukebox::IndexManager::fetchIndexes()::$_2&&) const::{lambda(geode::Task<geode::Result<matjson::Value, std::__ndk1::basic_string<char, std::__ndk1::char_traits<char>, std::__ndk1::allocator<char> > >, float>::Event*)#1}>, void (geode::Task<geode::Result<matjson::Value, std::__ndk1::basic_string<char, std::__ndk1::char_traits<char>, std::__ndk1::allocator<char> > >, float>::Event*)>::target(std::type_info const&) const
PUBLIC 86fac 0 std::__ndk1::__function::__func<geode::Task<geode::Result<matjson::Value, std::__ndk1::basic_string<char, std::__ndk1::char_traits<char>, std::__ndk1::allocator<char> > >, float>::listen<jukebox::IndexManager::fetchIndexes()::$_0, jukebox::IndexManager::fetchIndexes()::$_1, jukebox::IndexManager::fetchIndexes()::$_2>(jukebox::IndexManager::fetchIndexes()::$_0&&, jukebox::IndexManager::fetchIndexes()::$_1&&, jukebox::IndexManager::fetchIndexes()::$_2&&) const::{lambda(geode::Task<geode::Result<matjson::Value, std::__ndk1::basic_string<char, std::__ndk1::char_traits<char>, std::__ndk1::allocator<char> > >, float>::Event*)#1}, std::__ndk1::allocator<geode::Task<geode::Result<matjson::Value, std::__ndk1::basic_string<char, std::__ndk1::char_traits<char>, std::__ndk1::allocator<char> > >, float>::listen<jukebox::IndexManager::fetchIndexes()::$_0, jukebox::IndexManager::fetchIndexes()::$_1, jukebox::IndexManager::fetchIndexes()::$_2>(jukebox::IndexManager::fetchIndexes()::$_0&&, jukebox::IndexManager::fetchIndexes()::$_1&&, jukebox::IndexManager::fetchIndexes()::$_2&&) const::{lambda(geode::Task<geode::Result<matjson::Value, std::__ndk1::basic_string<char, std::__ndk1::char_traits<char>, std::__ndk1::allocator<char> > >, float>::Event*)#1}>, void (geode::Task<geode::Result<matjson::Value, std::__ndk1::basic_string<char, std::__ndk1::char_traits<char>, std::__ndk1::allocator<char> > >, float>::Event*)>::target_type() const
PUBLIC 86fb8 0 std::__ndk1::__function::__func<geode::Task<geode::Result<matjson::Value, std::__ndk1::basic_string<char, std::__ndk1::char_traits<char>, std::__ndk1::allocator<char> > >, float>::listen<jukebox::IndexManager::fetchIndexes()::$_0, jukebox::IndexManager::fetchIndexes()::$_1, jukebox::IndexManager::fetchIndexes()::$_2>(jukebox::IndexManager::fetchIndexes()::$_0&&, jukebox::IndexManager::fetchIndexes()::$_1&&, jukebox::IndexManager::fetchIndexes()::$_2&&) const::{lambda(geode::Task<geode::Result<matjson::Value, std::__ndk1::basic_string<char, std::__ndk1::char_traits<char>, std::__ndk1::allocator<char> > >, float>::Event*)#1}::operator()(geode::Task<geode::Result<matjson::Value, std::__ndk1::basic_string<char, std::__ndk1::char_traits<char>, std::__ndk1::allocator<char> > >, float>::Event*)::{lambda()#1}, std::__ndk1::allocator<geode::Task<geode::Result<matjson::Value, std::__ndk1::basic_string<char, std::__ndk1::char_traits<char>, std::__ndk1::allocator<char> > >, float>::listen<jukebox::IndexManager::fetchIndexes()::$_0, jukebox::IndexManager::fetchIndexes()::$_1, jukebox::IndexManager::fetchIndexes()::$_2>(jukebox::IndexManager::fetchIndexes()::$_0&&, jukebox::IndexManager::fetchIndexes()::$_1&&, jukebox::IndexManager::fetchIndexes()::$_2&&) const::{lambda(geode::Task<geode::Result<matjson::Value, std::__ndk1::basic_string<char, std::__ndk1::char_traits<char>, std::__ndk1::allocator<char> > >, float>::Event*)#1}::operator()(geode::Task<geode::Result<matjson::Value, std::__ndk1::basic_string<char, std::__ndk1::char_traits<char>, std::__ndk1::allocator<char> > >, float>::Event*)::{lambda()#1}>, void ()>::~__func()
PUBLIC 86fbc 0 std::__ndk1::__function::__func<geode::Task<geode::Result<matjson::Value, std::__ndk1::basic_string<char, std::__ndk1::char_traits<char>, std::__ndk1::allocator<char> > >, float>::listen<jukebox::IndexManager::fetchIndexes()::$_0, jukebox::IndexManager::fetchIndexes()::$_1, jukebox::IndexManager::fetchIndexes()::$_2>(jukebox::IndexManager::fetchIndexes()::$_0&&, jukebox::IndexManager::fetchIndexes()::$_1&&, jukebox::IndexManager::fetchIndexes()::$_2&&) const::{lambda(geode::Task<geode::Result<matjson::Value, std::__ndk1::basic_string<char, std::__ndk1::char_traits<char>, std::__ndk1::allocator<char> > >, float>::Event*)#1}::operator()(geode::Task<geode::Result<matjson::Value, std::__ndk1::basic_string<char, std::__ndk1::char_traits<char>, std::__ndk1::allocator<char> > >, float>::Event*)::{lambda()#1}, std::__ndk1::allocator<geode::Task<geode::Result<matjson::Value, std::__ndk1::basic_string<char, std::__ndk1::char_traits<char>, std::__ndk1::allocator<char> > >, float>::listen<jukebox::IndexManager::fetchIndexes()::$_0, jukebox::IndexManager::fetchIndexes()::$_1, jukebox::IndexManager::fetchIndexes()::$_2>(jukebox::IndexManager::fetchIndexes()::$_0&&, jukebox::IndexManager::fetchIndexes()::$_1&&, jukebox::IndexManager::fetchIndexes()::$_2&&) const::{lambda(geode::Task<geode::Result<matjson::Value, std::__ndk1::basic_string<char, std::__ndk1::char_traits<char>, std::__ndk1::allocator<char> > >, float>::Event*)#1}::operator()(geode::Task<geode::Result<matjson::Value, std::__ndk1::basic_string<char, std::__ndk1::char_traits<char>, std::__ndk1::allocator<char> > >, float>::Event*)::{lambda()#1}>, void ()>::__clone() const
PUBLIC 86ff0 0 std::__ndk1::__function::__func<geode::Task<geode::Result<matjson::Value, std::__ndk1::basic_string<char, std::__ndk1::char_traits<char>, std::__ndk1::allocator<char> > >, float>::listen<jukebox::IndexManager::fetchIndexes()::$_0, jukebox::IndexManager::fetchIndexes()::$_1, jukebox::IndexManager::fetchIndexes()::$_2>(jukebox::IndexManager::fetchIndexes()::$_0&&, jukebox::IndexManager::fetchIndexes()::$_1&&, jukebox::IndexManager::fetchIndexes()::$_2&&) const::{lambda(geode::Task<geode::Result<matjson::Value, std::__ndk1::basic_string<char, std::__ndk1::char_traits<char>, std::__ndk1::allocator<char> > >, float>::Event*)#1}::operator()(geode::Task<geode::Result<matjson::Value, std::__ndk1::basic_string<char, std::__ndk1::char_traits<char>, std::__ndk1::allocator<char> > >, float>::Event*)::{lambda()#1}, std::__ndk1::allocator<geode::Task<geode::Result<matjson::Value, std::__ndk1::basic_string<char, std::__ndk1::char_traits<char>, std::__ndk1::allocator<char> > >, float>::listen<jukebox::IndexManager::fetchIndexes()::$_0, jukebox::IndexManager::fetchIndexes()::$_1, jukebox::IndexManager::fetchIndexes()::$_2>(jukebox::IndexManager::fetchIndexes()::$_0&&, jukebox::IndexManager::fetchIndexes()::$_1&&, jukebox::IndexManager::fetchIndexes()::$_2&&) const::{lambda(geode::Task<geode::Result<matjson::Value, std::__ndk1::basic_string<char, std::__ndk1::char_traits<char>, std::__ndk1::allocator<char> > >, float>::Event*)#1}::operator()(geode::Task<geode::Result<matjson::Value, std::__ndk1::basic_string<char, std::__ndk1::char_traits<char>, std::__ndk1::allocator<char> > >, float>::Event*)::{lambda()#1}>, void ()>::__clone(std::__ndk1::__function::__base<void ()>*) const
PUBLIC 87004 0 std::__ndk1::__function::__func<geode::Task<geode::Result<matjson::Value, std::__ndk1::basic_string<char, std::__ndk1::char_traits<char>, std::__ndk1::allocator<char> > >, float>::listen<jukebox::IndexManager::fetchIndexes()::$_0, jukebox::IndexManager::fetchIndexes()::$_1, jukebox::IndexManager::fetchIndexes()::$_2>(jukebox::IndexManager::fetchIndexes()::$_0&&, jukebox::IndexManager::fetchIndexes()::$_1&&, jukebox::IndexManager::fetchIndexes()::$_2&&) const::{lambda(geode::Task<geode::Result<matjson::Value, std::__ndk1::basic_string<char, std::__ndk1::char_traits<char>, std::__ndk1::allocator<char> > >, float>::Event*)#1}::operator()(geode::Task<geode::Result<matjson::Value, std::__ndk1::basic_string<char, std::__ndk1::char_traits<char>, std::__ndk1::allocator<char> > >, float>::Event*)::{lambda()#1}, std::__ndk1::allocator<geode::Task<geode::Result<matjson::Value, std::__ndk1::basic_string<char, std::__ndk1::char_traits<char>, std::__ndk1::allocator<char> > >, float>::listen<jukebox::IndexManager::fetchIndexes()::$_0, jukebox::IndexManager::fetchIndexes()::$_1, jukebox::IndexManager::fetchIndexes()::$_2>(jukebox::IndexManager::fetchIndexes()::$_0&&, jukebox::IndexManager::fetchIndexes()::$_1&&, jukebox::IndexManager::fetchIndexes()::$_2&&) const::{lambda(geode::Task<geode::Result<matjson::Value, std::__ndk1::basic_string<char, std::__ndk1::char_traits<char>, std::__ndk1::allocator<char> > >, float>::Event*)#1}::operator()(geode::Task<geode::Result<matjson::Value, std::__ndk1::basic_string<char, std::__ndk1::char_traits<char>, std::__ndk1::allocator<char> > >, float>::Event*)::{lambda()#1}>, void ()>::destroy()
PUBLIC 87008 0 std::__ndk1::__function::__func<geode::Task<geode::Result<matjson::Value, std::__ndk1::basic_string<char, std::__ndk1::char_traits<char>, std::__ndk1::allocator<char> > >, float>::listen<jukebox::IndexManager::fetchIndexes()::$_0, jukebox::IndexManager::fetchIndexes()::$_1, jukebox::IndexManager::fetchIndexes()::$_2>(jukebox::IndexManager::fetchIndexes()::$_0&&, jukebox::IndexManager::fetchIndexes()::$_1&&, jukebox::IndexManager::fetchIndexes()::$_2&&) const::{lambda(geode::Task<geode::Result<matjson::Value, std::__ndk1::basic_string<char, std::__ndk1::char_traits<char>, std::__ndk1::allocator<char> > >, float>::Event*)#1}::operator()(geode::Task<geode::Result<matjson::Value, std::__ndk1::basic_string<char, std::__ndk1::char_traits<char>, std::__ndk1::allocator<char> > >, float>::Event*)::{lambda()#1}, std::__ndk1::allocator<geode::Task<geode::Result<matjson::Value, std::__ndk1::basic_string<char, std::__ndk1::char_traits<char>, std::__ndk1::allocator<char> > >, float>::listen<jukebox::IndexManager::fetchIndexes()::$_0, jukebox::IndexManager::fetchIndexes()::$_1, jukebox::IndexManager::fetchIndexes()::$_2>(jukebox::IndexManager::fetchIndexes()::$_0&&, jukebox::IndexManager::fetchIndexes()::$_1&&, jukebox::IndexManager::fetchIndexes()::$_2&&) const::{lambda(geode::Task<geode::Result<matjson::Value, std::__ndk1::basic_string<char, std::__ndk1::char_traits<char>, std::__ndk1::allocator<char> > >, float>::Event*)#1}::operator()(geode::Task<geode::Result<matjson::Value, std::__ndk1::basic_string<char, std::__ndk1::char_traits<char>, std::__ndk1::allocator<char> > >, float>::Event*)::{lambda()#1}>, void ()>::destroy_deallocate()
PUBLIC 8700c 0 std::__ndk1::__function::__func<geode::Task<geode::Result<matjson::Value, std::__ndk1::basic_string<char, std::__ndk1::char_traits<char>, std::__ndk1::allocator<char> > >, float>::listen<jukebox::IndexManager::fetchIndexes()::$_0, jukebox::IndexManager::fetchIndexes()::$_1, jukebox::IndexManager::fetchIndexes()::$_2>(jukebox::IndexManager::fetchIndexes()::$_0&&, jukebox::IndexManager::fetchIndexes()::$_1&&, jukebox::IndexManager::fetchIndexes()::$_2&&) const::{lambda(geode::Task<geode::Result<matjson::Value, std::__ndk1::basic_string<char, std::__ndk1::char_traits<char>, std::__ndk1::allocator<char> > >, float>::Event*)#1}::operator()(geode::Task<geode::Result<matjson::Value, std::__ndk1::basic_string<char, std::__ndk1::char_traits<char>, std::__ndk1::allocator<char> > >, float>::Event*)::{lambda()#1}, std::__ndk1::allocator<geode::Task<geode::Result<matjson::Value, std::__ndk1::basic_string<char, std::__ndk1::char_traits<char>, std::__ndk1::allocator<char> > >, float>::listen<jukebox::IndexManager::fetchIndexes()::$_0, jukebox::IndexManager::fetchIndexes()::$_1, jukebox::IndexManager::fetchIndexes()::$_2>(jukebox::IndexManager::fetchIndexes()::$_0&&, jukebox::IndexManager::fetchIndexes()::$_1&&, jukebox::IndexManager::fetchIndexes()::$_2&&) const::{lambda(geode::Task<geode::Result<matjson::Value, std::__ndk1::basic_string<char, std::__ndk1::char_traits<char>, std::__ndk1::allocator<char> > >, float>::Event*)#1}::operator()(geode::Task<geode::Result<matjson::Value, std::__ndk1::basic_string<char, std::__ndk1::char_traits<char>, std::__ndk1::allocator<char> > >, float>::Event*)::{lambda()#1}>, void ()>::operator()()
PUBLIC 87024 0 std::__ndk1::__function::__func<geode::Task<geode::Result<matjson::Value, std::__ndk1::basic_string<char, std::__ndk1::char_traits<char>, std::__ndk1::allocator<char> > >, float>::listen<jukebox::IndexManager::fetchIndexes()::$_0, jukebox::IndexManager::fetchIndexes()::$_1, jukebox::IndexManager::fetchIndexes()::$_2>(jukebox::IndexManager::fetchIndexes()::$_0&&, jukebox::IndexManager::fetchIndexes()::$_1&&, jukebox::IndexManager::fetchIndexes()::$_2&&) const::{lambda(geode::Task<geode::Result<matjson::Value, std::__ndk1::basic_string<char, std::__ndk1::char_traits<char>, std::__ndk1::allocator<char> > >, float>::Event*)#1}::operator()(geode::Task<geode::Result<matjson::Value, std::__ndk1::basic_string<char, std::__ndk1::char_traits<char>, std::__ndk1::allocator<char> > >, float>::Event*)::{lambda()#1}, std::__ndk1::allocator<geode::Task<geode::Result<matjson::Value, std::__ndk1::basic_string<char, std::__ndk1::char_traits<char>, std::__ndk1::allocator<char> > >, float>::listen<jukebox::IndexManager::fetchIndexes()::$_0, jukebox::IndexManager::fetchIndexes()::$_1, jukebox::IndexManager::fetchIndexes()::$_2>(jukebox::IndexManager::fetchIndexes()::$_0&&, jukebox::IndexManager::fetchIndexes()::$_1&&, jukebox::IndexManager::fetchIndexes()::$_2&&) const::{lambda(geode::Task<geode::Result<matjson::Value, std::__ndk1::basic_string<char, std::__ndk1::char_traits<char>, std::__ndk1::allocator<char> > >, float>::Event*)#1}::operator()(geode::Task<geode::Result<matjson::Value, std::__ndk1::basic_string<char, std::__ndk1::char_traits<char>, std::__ndk1::allocator<char> > >, float>::Event*)::{lambda()#1}>, void ()>::target(std::type_info const&) const
PUBLIC 87040 0 std::__ndk1::__function::__func<geode::Task<geode::Result<matjson::Value, std::__ndk1::basic_string<char, std::__ndk1::char_traits<char>, std::__ndk1::allocator<char> > >, float>::listen<jukebox::IndexManager::fetchIndexes()::$_0, jukebox::IndexManager::fetchIndexes()::$_1, jukebox::IndexManager::fetchIndexes()::$_2>(jukebox::IndexManager::fetchIndexes()::$_0&&, jukebox::IndexManager::fetchIndexes()::$_1&&, jukebox::IndexManager::fetchIndexes()::$_2&&) const::{lambda(geode::Task<geode::Result<matjson::Value, std::__ndk1::basic_string<char, std::__ndk1::char_traits<char>, std::__ndk1::allocator<char> > >, float>::Event*)#1}::operator()(geode::Task<geode::Result<matjson::Value, std::__ndk1::basic_string<char, std::__ndk1::char_traits<char>, std::__ndk1::allocator<char> > >, float>::Event*)::{lambda()#1}, std::__ndk1::allocator<geode::Task<geode::Result<matjson::Value, std::__ndk1::basic_string<char, std::__ndk1::char_traits<char>, std::__ndk1::allocator<char> > >, float>::listen<jukebox::IndexManager::fetchIndexes()::$_0, jukebox::IndexManager::fetchIndexes()::$_1, jukebox::IndexManager::fetchIndexes()::$_2>(jukebox::IndexManager::fetchIndexes()::$_0&&, jukebox::IndexManager::fetchIndexes()::$_1&&, jukebox::IndexManager::fetchIndexes()::$_2&&) const::{lambda(geode::Task<geode::Result<matjson::Value, std::__ndk1::basic_string<char, std::__ndk1::char_traits<char>, std::__ndk1::allocator<char> > >, float>::Event*)#1}::operator()(geode::Task<geode::Result<matjson::Value, std::__ndk1::basic_string<char, std::__ndk1::char_traits<char>, std::__ndk1::allocator<char> > >, float>::Event*)::{lambda()#1}>, void ()>::target_type() const
PUBLIC 8704c 0 std::__ndk1::__murmur2_or_cityhash<unsigned long, (unsigned long)64>::operator()[abi:ne180000](void const*, unsigned long) const
PUBLIC 87498 0 std::__ndk1::basic_ofstream<char, std::__ndk1::char_traits<char> >::basic_ofstream(char const*, unsigned int)
PUBLIC 875a8 0 geode::Task<geode::Result<std::__ndk1::vector<unsigned char, std::__ndk1::allocator<unsigned char> >, std::__ndk1::basic_string<char, std::__ndk1::char_traits<char>, std::__ndk1::allocator<char> > >, float>::listen<jukebox::IndexManager::downloadSong(int, std::__ndk1::basic_string<char, std::__ndk1::char_traits<char>, std::__ndk1::allocator<char> > const&)::$_2, jukebox::IndexManager::downloadSong(int, std::__ndk1::basic_string<char, std::__ndk1::char_traits<char>, std::__ndk1::allocator<char> > const&)::$_3, geode::Task<geode::Result<std::__ndk1::vector<unsigned char, std::__ndk1::allocator<unsigned char> >, std::__ndk1::basic_string<char, std::__ndk1::char_traits<char>, std::__ndk1::allocator<char> > >, float>::listen<jukebox::IndexManager::downloadSong(int, std::__ndk1::basic_string<char, std::__ndk1::char_traits<char>, std::__ndk1::allocator<char> > const&)::$_2, jukebox::IndexManager::downloadSong(int, std::__ndk1::basic_string<char, std::__ndk1::char_traits<char>, std::__ndk1::allocator<char> > const&)::$_3>(jukebox::IndexManager::downloadSong(int, std::__ndk1::basic_string<char, std::__ndk1::char_traits<char>, std::__ndk1::allocator<char> > const&)::$_2&&, jukebox::IndexManager::downloadSong(int, std::__ndk1::basic_string<char, std::__ndk1::char_traits<char>, std::__ndk1::allocator<char> > const&)::$_3&&) const::{lambda()#1}>(jukebox::IndexManager::downloadSong(int, std::__ndk1::basic_string<char, std::__ndk1::char_traits<char>, std::__ndk1::allocator<char> > const&)::$_2&&, jukebox::IndexManager::downloadSong(int, std::__ndk1::basic_string<char, std::__ndk1::char_traits<char>, std::__ndk1::allocator<char> > const&)::$_3&&, geode::Task<geode::Result<std::__ndk1::vector<unsigned char, std::__ndk1::allocator<unsigned char> >, std::__ndk1::basic_string<char, std::__ndk1::char_traits<char>, std::__ndk1::allocator<char> > >, float>::listen<jukebox::IndexManager::downloadSong(int, std::__ndk1::basic_string<char, std::__ndk1::char_traits<char>, std::__ndk1::allocator<char> > const&)::$_2, jukebox::IndexManager::downloadSong(int, std::__ndk1::basic_string<char, std::__ndk1::char_traits<char>, std::__ndk1::allocator<char> > const&)::$_3>(jukebox::IndexManager::downloadSong(int, std::__ndk1::basic_string<char, std::__ndk1::char_traits<char>, std::__ndk1::allocator<char> > const&)::$_2&&, jukebox::IndexManager::downloadSong(int, std::__ndk1::basic_string<char, std::__ndk1::char_traits<char>, std::__ndk1::allocator<char> > const&)::$_3&&) const::{lambda()#1}&&) const::{lambda(geode::Task<geode::Result<std::__ndk1::vector<unsigned char, std::__ndk1::allocator<unsigned char> >, std::__ndk1::basic_string<char, std::__ndk1::char_traits<char>, std::__ndk1::allocator<char> > >, float>::Event*)#1}::~{lambda(geode::Task<geode::Result<std::__ndk1::vector<unsigned char, std::__ndk1::allocator<unsigned char> >, std::__ndk1::basic_string<char, std::__ndk1::char_traits<char>, std::__ndk1::allocator<char> > >, float>::Event*)#1}()
PUBLIC 875ec 0 std::__ndk1::__function::__value_func<void (geode::Task<geode::Result<std::__ndk1::vector<unsigned char, std::__ndk1::allocator<unsigned char> >, std::__ndk1::basic_string<char, std::__ndk1::char_traits<char>, std::__ndk1::allocator<char> > >, float>::Event*)>::swap[abi:ne180000](std::__ndk1::__function::__value_func<void (geode::Task<geode::Result<std::__ndk1::vector<unsigned char, std::__ndk1::allocator<unsigned char> >, std::__ndk1::basic_string<char, std::__ndk1::char_traits<char>, std::__ndk1::allocator<char> > >, float>::Event*)>&)
PUBLIC 87784 0 _ZNSt6__ndk110__function6__funcIZNK5geode4TaskINS2_6ResultINS_6vectorIhNS_9allocatorIhEEEENS_12basic_stringIcNS_11char_traitsIcEENS6_IcEEEEEEfE6listenIZN7jukebox12IndexManager12downloadSongEiRKSD_E3$_2ZNSI_12downloadSongEiSK_E3$_3ZNKSF_6listenISL_SM_EEvOT_OT0_EUlvE_EEvSP_SR_OT1_EUlPNSF_5EventEE_NS6_ISX_EEFvSW_EED2Ev
PUBLIC 877d4 0 _ZNSt6__ndk110__function6__funcIZNK5geode4TaskINS2_6ResultINS_6vectorIhNS_9allocatorIhEEEENS_12basic_stringIcNS_11char_traitsIcEENS6_IcEEEEEEfE6listenIZN7jukebox12IndexManager12downloadSongEiRKSD_E3$_2ZNSI_12downloadSongEiSK_E3$_3ZNKSF_6listenISL_SM_EEvOT_OT0_EUlvE_EEvSP_SR_OT1_EUlPNSF_5EventEE_NS6_ISX_EEFvSW_EED0Ev
PUBLIC 87838 0 _ZNKSt6__ndk110__function6__funcIZNK5geode4TaskINS2_6ResultINS_6vectorIhNS_9allocatorIhEEEENS_12basic_stringIcNS_11char_traitsIcEENS6_IcEEEEEEfE6listenIZN7jukebox12IndexManager12downloadSongEiRKSD_E3$_2ZNSI_12downloadSongEiSK_E3$_3ZNKSF_6listenISL_SM_EEvOT_OT0_EUlvE_EEvSP_SR_OT1_EUlPNSF_5EventEE_NS6_ISX_EEFvSW_EE7__cloneEv
PUBLIC 8792c 0 _ZNKSt6__ndk110__function6__funcIZNK5geode4TaskINS2_6ResultINS_6vectorIhNS_9allocatorIhEEEENS_12basic_stringIcNS_11char_traitsIcEENS6_IcEEEEEEfE6listenIZN7jukebox12IndexManager12downloadSongEiRKSD_E3$_2ZNSI_12downloadSongEiSK_E3$_3ZNKSF_6listenISL_SM_EEvOT_OT0_EUlvE_EEvSP_SR_OT1_EUlPNSF_5EventEE_NS6_ISX_EEFvSW_EE7__cloneEPNS0_6__baseISZ_EE
PUBLIC 87a0c 0 _ZNSt6__ndk110__function6__funcIZNK5geode4TaskINS2_6ResultINS_6vectorIhNS_9allocatorIhEEEENS_12basic_stringIcNS_11char_traitsIcEENS6_IcEEEEEEfE6listenIZN7jukebox12IndexManager12downloadSongEiRKSD_E3$_2ZNSI_12downloadSongEiSK_E3$_3ZNKSF_6listenISL_SM_EEvOT_OT0_EUlvE_EEvSP_SR_OT1_EUlPNSF_5EventEE_NS6_ISX_EEFvSW_EE7destroyEv
PUBLIC 87a50 0 _ZNSt6__ndk110__function6__funcIZNK5geode4TaskINS2_6ResultINS_6vectorIhNS_9allocatorIhEEEENS_12basic_stringIcNS_11char_traitsIcEENS6_IcEEEEEEfE6listenIZN7jukebox12IndexManager12downloadSongEiRKSD_E3$_2ZNSI_12downloadSongEiSK_E3$_3ZNKSF_6listenISL_SM_EEvOT_OT0_EUlvE_EEvSP_SR_OT1_EUlPNSF_5EventEE_NS6_ISX_EEFvSW_EE18destroy_deallocateEv
PUBLIC 87aa8 0 _ZNSt6__ndk110__function6__funcIZNK5geode4TaskINS2_6ResultINS_6vectorIhNS_9allocatorIhEEEENS_12basic_stringIcNS_11char_traitsIcEENS6_IcEEEEEEfE6listenIZN7jukebox12IndexManager12downloadSongEiRKSD_E3$_2ZNSI_12downloadSongEiSK_E3$_3ZNKSF_6listenISL_SM_EEvOT_OT0_EUlvE_EEvSP_SR_OT1_EUlPNSF_5EventEE_NS6_ISX_EEFvSW_EEclEOSW_
PUBLIC 89c94 0 _ZNKSt6__ndk110__function6__funcIZNK5geode4TaskINS2_6ResultINS_6vectorIhNS_9allocatorIhEEEENS_12basic_stringIcNS_11char_traitsIcEENS6_IcEEEEEEfE6listenIZN7jukebox12IndexManager12downloadSongEiRKSD_E3$_2ZNSI_12downloadSongEiSK_E3$_3ZNKSF_6listenISL_SM_EEvOT_OT0_EUlvE_EEvSP_SR_OT1_EUlPNSF_5EventEE_NS6_ISX_EEFvSW_EE6targetERKSt9type_info
PUBLIC 89cb0 0 _ZNKSt6__ndk110__function6__funcIZNK5geode4TaskINS2_6ResultINS_6vectorIhNS_9allocatorIhEEEENS_12basic_stringIcNS_11char_traitsIcEENS6_IcEEEEEEfE6listenIZN7jukebox12IndexManager12downloadSongEiRKSD_E3$_2ZNSI_12downloadSongEiSK_E3$_3ZNKSF_6listenISL_SM_EEvOT_OT0_EUlvE_EEvSP_SR_OT1_EUlPNSF_5EventEE_NS6_ISX_EEFvSW_EE11target_typeEv
PUBLIC 89cbc 0 std::__ndk1::__function::__base<void ()>::~__base()
PUBLIC 89cc0 0 _ZNSt6__ndk110__function6__funcIZZNK5geode4TaskINS2_6ResultINS_6vectorIhNS_9allocatorIhEEEENS_12basic_stringIcNS_11char_traitsIcEENS6_IcEEEEEEfE6listenIZN7jukebox12IndexManager12downloadSongEiRKSD_E3$_2ZNSI_12downloadSongEiSK_E3$_3ZNKSF_6listenISL_SM_EEvOT_OT0_EUlvE_EEvSP_SR_OT1_ENUlPNSF_5EventEE_clESW_EUlvE_NS6_ISY_EEFvvEED0Ev
PUBLIC 89cc4 0 _ZNKSt6__ndk110__function6__funcIZZNK5geode4TaskINS2_6ResultINS_6vectorIhNS_9allocatorIhEEEENS_12basic_stringIcNS_11char_traitsIcEENS6_IcEEEEEEfE6listenIZN7jukebox12IndexManager12downloadSongEiRKSD_E3$_2ZNSI_12downloadSongEiSK_E3$_3ZNKSF_6listenISL_SM_EEvOT_OT0_EUlvE_EEvSP_SR_OT1_ENUlPNSF_5EventEE_clESW_EUlvE_NS6_ISY_EEFvvEE7__cloneEv
PUBLIC 89cf8 0 _ZNKSt6__ndk110__function6__funcIZZNK5geode4TaskINS2_6ResultINS_6vectorIhNS_9allocatorIhEEEENS_12basic_stringIcNS_11char_traitsIcEENS6_IcEEEEEEfE6listenIZN7jukebox12IndexManager12downloadSongEiRKSD_E3$_2ZNSI_12downloadSongEiSK_E3$_3ZNKSF_6listenISL_SM_EEvOT_OT0_EUlvE_EEvSP_SR_OT1_ENUlPNSF_5EventEE_clESW_EUlvE_NS6_ISY_EEFvvEE7__cloneEPNS0_6__baseIS10_EE
PUBLIC 89d0c 0 _ZNSt6__ndk110__function6__funcIZZNK5geode4TaskINS2_6ResultINS_6vectorIhNS_9allocatorIhEEEENS_12basic_stringIcNS_11char_traitsIcEENS6_IcEEEEEEfE6listenIZN7jukebox12IndexManager12downloadSongEiRKSD_E3$_2ZNSI_12downloadSongEiSK_E3$_3ZNKSF_6listenISL_SM_EEvOT_OT0_EUlvE_EEvSP_SR_OT1_ENUlPNSF_5EventEE_clESW_EUlvE_NS6_ISY_EEFvvEE7destroyEv
PUBLIC 89d10 0 _ZNSt6__ndk110__function6__funcIZZNK5geode4TaskINS2_6ResultINS_6vectorIhNS_9allocatorIhEEEENS_12basic_stringIcNS_11char_traitsIcEENS6_IcEEEEEEfE6listenIZN7jukebox12IndexManager12downloadSongEiRKSD_E3$_2ZNSI_12downloadSongEiSK_E3$_3ZNKSF_6listenISL_SM_EEvOT_OT0_EUlvE_EEvSP_SR_OT1_ENUlPNSF_5EventEE_clESW_EUlvE_NS6_ISY_EEFvvEE18destroy_deallocateEv
PUBLIC 89d14 0 _ZNSt6__ndk110__function6__funcIZZNK5geode4TaskINS2_6ResultINS_6vectorIhNS_9allocatorIhEEEENS_12basic_stringIcNS_11char_traitsIcEENS6_IcEEEEEEfE6listenIZN7jukebox12IndexManager12downloadSongEiRKSD_E3$_2ZNSI_12downloadSongEiSK_E3$_3ZNKSF_6listenISL_SM_EEvOT_OT0_EUlvE_EEvSP_SR_OT1_ENUlPNSF_5EventEE_clESW_EUlvE_NS6_ISY_EEFvvEEclEv
PUBLIC 89d2c 0 _ZNKSt6__ndk110__function6__funcIZZNK5geode4TaskINS2_6ResultINS_6vectorIhNS_9allocatorIhEEEENS_12basic_stringIcNS_11char_traitsIcEENS6_IcEEEEEEfE6listenIZN7jukebox12IndexManager12downloadSongEiRKSD_E3$_2ZNSI_12downloadSongEiSK_E3$_3ZNKSF_6listenISL_SM_EEvOT_OT0_EUlvE_EEvSP_SR_OT1_ENUlPNSF_5EventEE_clESW_EUlvE_NS6_ISY_EEFvvEE6targetERKSt9type_info
PUBLIC 89d48 0 _ZNKSt6__ndk110__function6__funcIZZNK5geode4TaskINS2_6ResultINS_6vectorIhNS_9allocatorIhEEEENS_12basic_stringIcNS_11char_traitsIcEENS6_IcEEEEEEfE6listenIZN7jukebox12IndexManager12downloadSongEiRKSD_E3$_2ZNSI_12downloadSongEiSK_E3$_3ZNKSF_6listenISL_SM_EEvOT_OT0_EUlvE_EEvSP_SR_OT1_ENUlPNSF_5EventEE_clESW_EUlvE_NS6_ISY_EEFvvEE11target_typeEv
PUBLIC 89d54 0 std::__ndk1::__function::__func<jukebox::IndexManager::onDownloadFinish(std::__ndk1::variant<jukebox::index::IndexSongMetadata*, jukebox::Song*>&&, jukebox::Nongs*, std::__ndk1::vector<unsigned char, std::__ndk1::allocator<unsigned char> >&&)::$_0, std::__ndk1::allocator<jukebox::IndexManager::onDownloadFinish(std::__ndk1::variant<jukebox::index::IndexSongMetadata*, jukebox::Song*>&&, jukebox::Nongs*, std::__ndk1::vector<unsigned char, std::__ndk1::allocator<unsigned char> >&&)::$_0>, void (std::__ndk1::basic_string<char, std::__ndk1::char_traits<char>, std::__ndk1::allocator<char> >)>::~__func()
PUBLIC 89da4 0 std::__ndk1::__function::__func<jukebox::IndexManager::onDownloadFinish(std::__ndk1::variant<jukebox::index::IndexSongMetadata*, jukebox::Song*>&&, jukebox::Nongs*, std::__ndk1::vector<unsigned char, std::__ndk1::allocator<unsigned char> >&&)::$_0, std::__ndk1::allocator<jukebox::IndexManager::onDownloadFinish(std::__ndk1::variant<jukebox::index::IndexSongMetadata*, jukebox::Song*>&&, jukebox::Nongs*, std::__ndk1::vector<unsigned char, std::__ndk1::allocator<unsigned char> >&&)::$_0>, void (std::__ndk1::basic_string<char, std::__ndk1::char_traits<char>, std::__ndk1::allocator<char> >)>::~__func()
PUBLIC 89e08 0 std::__ndk1::__function::__func<jukebox::IndexManager::onDownloadFinish(std::__ndk1::variant<jukebox::index::IndexSongMetadata*, jukebox::Song*>&&, jukebox::Nongs*, std::__ndk1::vector<unsigned char, std::__ndk1::allocator<unsigned char> >&&)::$_0, std::__ndk1::allocator<jukebox::IndexManager::onDownloadFinish(std::__ndk1::variant<jukebox::index::IndexSongMetadata*, jukebox::Song*>&&, jukebox::Nongs*, std::__ndk1::vector<unsigned char, std::__ndk1::allocator<unsigned char> >&&)::$_0>, void (std::__ndk1::basic_string<char, std::__ndk1::char_traits<char>, std::__ndk1::allocator<char> >)>::__clone() const
PUBLIC 89ee0 0 std::__ndk1::__function::__func<jukebox::IndexManager::onDownloadFinish(std::__ndk1::variant<jukebox::index::IndexSongMetadata*, jukebox::Song*>&&, jukebox::Nongs*, std::__ndk1::vector<unsigned char, std::__ndk1::allocator<unsigned char> >&&)::$_0, std::__ndk1::allocator<jukebox::IndexManager::onDownloadFinish(std::__ndk1::variant<jukebox::index::IndexSongMetadata*, jukebox::Song*>&&, jukebox::Nongs*, std::__ndk1::vector<unsigned char, std::__ndk1::allocator<unsigned char> >&&)::$_0>, void (std::__ndk1::basic_string<char, std::__ndk1::char_traits<char>, std::__ndk1::allocator<char> >)>::__clone(std::__ndk1::__function::__base<void (std::__ndk1::basic_string<char, std::__ndk1::char_traits<char>, std::__ndk1::allocator<char> >)>*) const
PUBLIC 89f94 0 std::__ndk1::__function::__func<jukebox::IndexManager::onDownloadFinish(std::__ndk1::variant<jukebox::index::IndexSongMetadata*, jukebox::Song*>&&, jukebox::Nongs*, std::__ndk1::vector<unsigned char, std::__ndk1::allocator<unsigned char> >&&)::$_0, std::__ndk1::allocator<jukebox::IndexManager::onDownloadFinish(std::__ndk1::variant<jukebox::index::IndexSongMetadata*, jukebox::Song*>&&, jukebox::Nongs*, std::__ndk1::vector<unsigned char, std::__ndk1::allocator<unsigned char> >&&)::$_0>, void (std::__ndk1::basic_string<char, std::__ndk1::char_traits<char>, std::__ndk1::allocator<char> >)>::destroy()
PUBLIC 89fd8 0 std::__ndk1::__function::__func<jukebox::IndexManager::onDownloadFinish(std::__ndk1::variant<jukebox::index::IndexSongMetadata*, jukebox::Song*>&&, jukebox::Nongs*, std::__ndk1::vector<unsigned char, std::__ndk1::allocator<unsigned char> >&&)::$_0, std::__ndk1::allocator<jukebox::IndexManager::onDownloadFinish(std::__ndk1::variant<jukebox::index::IndexSongMetadata*, jukebox::Song*>&&, jukebox::Nongs*, std::__ndk1::vector<unsigned char, std::__ndk1::allocator<unsigned char> >&&)::$_0>, void (std::__ndk1::basic_string<char, std::__ndk1::char_traits<char>, std::__ndk1::allocator<char> >)>::destroy_deallocate()
PUBLIC 8a030 0 std::__ndk1::__function::__func<jukebox::IndexManager::onDownloadFinish(std::__ndk1::variant<jukebox::index::IndexSongMetadata*, jukebox::Song*>&&, jukebox::Nongs*, std::__ndk1::vector<unsigned char, std::__ndk1::allocator<unsigned char> >&&)::$_0, std::__ndk1::allocator<jukebox::IndexManager::onDownloadFinish(std::__ndk1::variant<jukebox::index::IndexSongMetadata*, jukebox::Song*>&&, jukebox::Nongs*, std::__ndk1::vector<unsigned char, std::__ndk1::allocator<unsigned char> >&&)::$_0>, void (std::__ndk1::basic_string<char, std::__ndk1::char_traits<char>, std::__ndk1::allocator<char> >)>::operator()(std::__ndk1::basic_string<char, std::__ndk1::char_traits<char>, std::__ndk1::allocator<char> >&&)
PUBLIC 8a474 0 std::__ndk1::__function::__func<jukebox::IndexManager::onDownloadFinish(std::__ndk1::variant<jukebox::index::IndexSongMetadata*, jukebox::Song*>&&, jukebox::Nongs*, std::__ndk1::vector<unsigned char, std::__ndk1::allocator<unsigned char> >&&)::$_0, std::__ndk1::allocator<jukebox::IndexManager::onDownloadFinish(std::__ndk1::variant<jukebox::index::IndexSongMetadata*, jukebox::Song*>&&, jukebox::Nongs*, std::__ndk1::vector<unsigned char, std::__ndk1::allocator<unsigned char> >&&)::$_0>, void (std::__ndk1::basic_string<char, std::__ndk1::char_traits<char>, std::__ndk1::allocator<char> >)>::target(std::type_info const&) const
PUBLIC 8a490 0 std::__ndk1::__function::__func<jukebox::IndexManager::onDownloadFinish(std::__ndk1::variant<jukebox::index::IndexSongMetadata*, jukebox::Song*>&&, jukebox::Nongs*, std::__ndk1::vector<unsigned char, std::__ndk1::allocator<unsigned char> >&&)::$_0, std::__ndk1::allocator<jukebox::IndexManager::onDownloadFinish(std::__ndk1::variant<jukebox::index::IndexSongMetadata*, jukebox::Song*>&&, jukebox::Nongs*, std::__ndk1::vector<unsigned char, std::__ndk1::allocator<unsigned char> >&&)::$_0>, void (std::__ndk1::basic_string<char, std::__ndk1::char_traits<char>, std::__ndk1::allocator<char> >)>::target_type() const
PUBLIC 8a49c 0 jukebox::NongManager::getNongs(int)
PUBLIC 8a5f4 0 jukebox::NongManager::initSongID(SongInfoObject*, int, bool)
PUBLIC 8b46c 0 std::__ndk1::pair<int const, std::__ndk1::unique_ptr<jukebox::Nongs, std::__ndk1::default_delete<jukebox::Nongs> > >::~pair()
PUBLIC 8b4bc 0 std::__ndk1::unique_ptr<jukebox::Nongs, std::__ndk1::default_delete<jukebox::Nongs> >::~unique_ptr[abi:ne180000]()
PUBLIC 8b50c 0 jukebox::NongManager::getFormattedSize(std::__ndk1::__fs::filesystem::path const&)
PUBLIC 8b74c 0 jukebox::NongManager::getMultiAssetSizes(std::__ndk1::basic_string<char, std::__ndk1::char_traits<char>, std::__ndk1::allocator<char> >, std::__ndk1::basic_string<char, std::__ndk1::char_traits<char>, std::__ndk1::allocator<char> >)
PUBLIC 8bf7c 0 jukebox::NongManager::getMultiAssetSizes(std::__ndk1::basic_string<char, std::__ndk1::char_traits<char>, std::__ndk1::allocator<char> >, std::__ndk1::basic_string<char, std::__ndk1::char_traits<char>, std::__ndk1::allocator<char> >)::$_0::~$_0()
PUBLIC 8bff8 0 jukebox::NongManager::init()
PUBLIC 8e524 0 jukebox::NongManager::baseManifestPath()
PUBLIC 8e69c 0 std::__ndk1::__fs::filesystem::directory_iterator::~directory_iterator[abi:ne180000]()
PUBLIC 8e6ec 0 geode::impl::ResultData<std::__ndk1::unique_ptr<jukebox::Nongs, std::__ndk1::default_delete<jukebox::Nongs> >, std::__ndk1::basic_string<char, std::__ndk1::char_traits<char>, std::__ndk1::allocator<char> > >::~ResultData()
PUBLIC 8e760 0 geode::impl::ResultData<jukebox::LocalSong*, std::__ndk1::basic_string<char, std::__ndk1::char_traits<char>, std::__ndk1::allocator<char> > >::~ResultData()
PUBLIC 8e7d4 0 geode::impl::ResultData<std::__ndk1::unordered_map<int, jukebox::compat::CompatManifest, std::__ndk1::hash<int>, std::__ndk1::equal_to<int>, std::__ndk1::allocator<std::__ndk1::pair<int const, jukebox::compat::CompatManifest> > >, std::__ndk1::basic_string<char, std::__ndk1::char_traits<char>, std::__ndk1::allocator<char> > >::~ResultData()
PUBLIC 8e848 0 jukebox::NongManager::saveNongs(std::__ndk1::optional<int>)
PUBLIC 8ea7c 0 matjson::Serialize<jukebox::Nongs>::fromJson(matjson::Value const&, int)
PUBLIC 91714 0 geode::impl::ResultData<jukebox::Nongs, std::__ndk1::basic_string<char, std::__ndk1::char_traits<char>, std::__ndk1::allocator<char> > >::~ResultData()
PUBLIC 91788 0 jukebox::NongManager::setActiveSong(int, std::__ndk1::basic_string<char, std::__ndk1::char_traits<char>, std::__ndk1::allocator<char> >)
PUBLIC 91898 0 jukebox::NongManager::deleteAllSongs(int)
PUBLIC 91a7c 0 jukebox::NongManager::deleteSongAudio(int, std::__ndk1::basic_string<char, std::__ndk1::char_traits<char>, std::__ndk1::allocator<char> >)
PUBLIC 91e58 0 jukebox::NongManager::deleteSong(int, std::__ndk1::basic_string<char, std::__ndk1::char_traits<char>, std::__ndk1::allocator<char> >)
PUBLIC 92230 0 std::__ndk1::__fs::filesystem::path::path[abi:ne180000]<char [9], void>(std::__ndk1::__fs::filesystem::path::format)
PUBLIC 92284 0 _ZN5geode15UnwrapExceptionC2IRNSt6__ndk110unique_ptrIN7jukebox5NongsENS2_14default_deleteIS5_EEEEQsr4implE18IsStringStreamableIT_EEENS_4impl5OkTagEOSA_
PUBLIC 923d8 0 std::__ndk1::__variant_detail::__visitation::__base::__dispatcher<(unsigned long)0>::__dispatch[abi:ne180000]<std::__ndk1::__variant_detail::__dtor<std::__ndk1::__variant_detail::__traits<std::__ndk1::unique_ptr<jukebox::Nongs, std::__ndk1::default_delete<jukebox> >, std::__ndk1::basic_string<char, std::__ndk1::char_traits<char>, std::__ndk1::allocator<char> > >, (std::__ndk1::__variant_detail::_Trait)1>::__destroy[abi:ne180000]()::{lambda(auto:1&)#1}, std::__ndk1::__variant_detail::__base<(std::__ndk1::__variant_detail::__traits<std::__ndk1::unique_ptr<jukebox::Nongs, std::__ndk1::default_delete<jukebox> >, std::__ndk1::basic_string<char, std::__ndk1::char_traits<char>, std::__ndk1::allocator<char> > >)1, std::__ndk1::default_delete<jukebox>, std::__ndk1::allocator<char> >&>(std::__ndk1::__variant_detail::__dtor<std::__ndk1::__variant_detail::__traits<std::__ndk1::unique_ptr<jukebox::Nongs, std::__ndk1::default_delete<jukebox> >, std::__ndk1::basic_string<char, std::__ndk1::char_traits<char>, std::__ndk1::allocator<char> > >, (std::__ndk1::__variant_detail::_Trait)1>, std::__ndk1::__variant_detail::__base<(std::__ndk1::__variant_detail::__traits<std::__ndk1::unique_ptr<jukebox::Nongs, std::__ndk1::default_delete<jukebox> >, std::__ndk1::basic_string<char, std::__ndk1::char_traits<char>, std::__ndk1::allocator<char> > >)1, std::__ndk1::default_delete<jukebox>, std::__ndk1::allocator<char> >&)
PUBLIC 92428 0 std::__ndk1::__variant_detail::__visitation::__base::__dispatcher<(unsigned long)1>::__dispatch[abi:ne180000]<std::__ndk1::__variant_detail::__dtor<std::__ndk1::__variant_detail::__traits<std::__ndk1::unique_ptr<jukebox::Nongs, std::__ndk1::default_delete<jukebox> >, std::__ndk1::basic_string<char, std::__ndk1::char_traits<char>, std::__ndk1::allocator<char> > >, (std::__ndk1::__variant_detail::_Trait)1>::__destroy[abi:ne180000]()::{lambda(auto:1&)#1}, std::__ndk1::__variant_detail::__base<(std::__ndk1::__variant_detail::__traits<std::__ndk1::unique_ptr<jukebox::Nongs, std::__ndk1::default_delete<jukebox> >, std::__ndk1::basic_string<char, std::__ndk1::char_traits<char>, std::__ndk1::allocator<char> > >)1, std::__ndk1::default_delete<jukebox>, std::__ndk1::allocator<char> >&>(std::__ndk1::__variant_detail::__dtor<std::__ndk1::__variant_detail::__traits<std::__ndk1::unique_ptr<jukebox::Nongs, std::__ndk1::default_delete<jukebox> >, std::__ndk1::basic_string<char, std::__ndk1::char_traits<char>, std::__ndk1::allocator<char> > >, (std::__ndk1::__variant_detail::_Trait)1>, std::__ndk1::__variant_detail::__base<(std::__ndk1::__variant_detail::__traits<std::__ndk1::unique_ptr<jukebox::Nongs, std::__ndk1::default_delete<jukebox> >, std::__ndk1::basic_string<char, std::__ndk1::char_traits<char>, std::__ndk1::allocator<char> > >)1, std::__ndk1::default_delete<jukebox>, std::__ndk1::allocator<char> >&)
PUBLIC 9243c 0 std::__ndk1::__variant_detail::__visitation::__base::__dispatcher<(unsigned long)0>::__dispatch[abi:ne180000]<std::__ndk1::__variant_detail::__dtor<std::__ndk1::__variant_detail::__traits<jukebox::LocalSong*, std::__ndk1::basic_string<char, std::__ndk1::char_traits<char>, std::__ndk1::allocator<char> > >, (std::__ndk1::__variant_detail::_Trait)1>::__destroy[abi:ne180000]()::{lambda(auto:1&)#1}, std::__ndk1::__variant_detail::__base<(std::__ndk1::__variant_detail::__traits<jukebox::LocalSong*, std::__ndk1::basic_string<char, std::__ndk1::char_traits<char>, std::__ndk1::allocator<char> > >)1, jukebox::LocalSong, std::__ndk1::allocator<char> >&>(std::__ndk1::__variant_detail::__dtor<std::__ndk1::__variant_detail::__traits<jukebox::LocalSong*, std::__ndk1::basic_string<char, std::__ndk1::char_traits<char>, std::__ndk1::allocator<char> > >, (std::__ndk1::__variant_detail::_Trait)1>, std::__ndk1::__variant_detail::__base<(std::__ndk1::__variant_detail::__traits<jukebox::LocalSong*, std::__ndk1::basic_string<char, std::__ndk1::char_traits<char>, std::__ndk1::allocator<char> > >)1, jukebox::LocalSong, std::__ndk1::allocator<char> >&)
PUBLIC 92440 0 std::__ndk1::__variant_detail::__visitation::__base::__dispatcher<(unsigned long)1>::__dispatch[abi:ne180000]<std::__ndk1::__variant_detail::__dtor<std::__ndk1::__variant_detail::__traits<jukebox::LocalSong*, std::__ndk1::basic_string<char, std::__ndk1::char_traits<char>, std::__ndk1::allocator<char> > >, (std::__ndk1::__variant_detail::_Trait)1>::__destroy[abi:ne180000]()::{lambda(auto:1&)#1}, std::__ndk1::__variant_detail::__base<(std::__ndk1::__variant_detail::__traits<jukebox::LocalSong*, std::__ndk1::basic_string<char, std::__ndk1::char_traits<char>, std::__ndk1::allocator<char> > >)1, jukebox::LocalSong, std::__ndk1::allocator<char> >&>(std::__ndk1::__variant_detail::__dtor<std::__ndk1::__variant_detail::__traits<jukebox::LocalSong*, std::__ndk1::basic_string<char, std::__ndk1::char_traits<char>, std::__ndk1::allocator<char> > >, (std::__ndk1::__variant_detail::_Trait)1>, std::__ndk1::__variant_detail::__base<(std::__ndk1::__variant_detail::__traits<jukebox::LocalSong*, std::__ndk1::basic_string<char, std::__ndk1::char_traits<char>, std::__ndk1::allocator<char> > >)1, jukebox::LocalSong, std::__ndk1::allocator<char> >&)
PUBLIC 92454 0 std::__ndk1::__variant_detail::__visitation::__base::__dispatcher<(unsigned long)0>::__dispatch[abi:ne180000]<std::__ndk1::__variant_detail::__dtor<std::__ndk1::__variant_detail::__traits<std::__ndk1::unordered_map<int, jukebox::compat::CompatManifest, std::__ndk1::hash<int>, std::__ndk1::equal_to<int>, std::__ndk1::allocator<std::__ndk1::pair<int const, jukebox::compat> > >, std::__ndk1::basic_string<char, std::__ndk1::char_traits<char>, std::__ndk1::equal_to<int><char> > >, (std::__ndk1::__variant_detail::_Trait)1>::__destroy[abi:ne180000]()::{lambda(auto:1&)#1}, std::__ndk1::__variant_detail::__base<(std::__ndk1::__variant_detail::__traits<std::__ndk1::unordered_map<int, jukebox::compat::CompatManifest, std::__ndk1::hash<int>, std::__ndk1::equal_to<int>, std::__ndk1::allocator<std::__ndk1::pair<int const, jukebox::compat> > >, std::__ndk1::basic_string<char, std::__ndk1::char_traits<char>, std::__ndk1::equal_to<int><char> > >)1, std::__ndk1::allocator<std::__ndk1::pair<int const, jukebox::compat> >, std::__ndk1::equal_to<int><char> >&>(std::__ndk1::__variant_detail::__dtor<std::__ndk1::__variant_detail::__traits<std::__ndk1::unordered_map<int, jukebox::compat::CompatManifest, std::__ndk1::hash<int>, std::__ndk1::equal_to<int>, std::__ndk1::allocator<std::__ndk1::pair<int const, jukebox::compat> > >, std::__ndk1::basic_string<char, std::__ndk1::char_traits<char>, std::__ndk1::equal_to<int><char> > >, (std::__ndk1::__variant_detail::_Trait)1>, std::__ndk1::__variant_detail::__base<(std::__ndk1::__variant_detail::__traits<std::__ndk1::unordered_map<int, jukebox::compat::CompatManifest, std::__ndk1::hash<int>, std::__ndk1::equal_to<int>, std::__ndk1::allocator<std::__ndk1::pair<int const, jukebox::compat> > >, std::__ndk1::basic_string<char, std::__ndk1::char_traits<char>, std::__ndk1::equal_to<int><char> > >)1, std::__ndk1::allocator<std::__ndk1::pair<int const, jukebox::compat> >, std::__ndk1::equal_to<int><char> >&)
PUBLIC 9245c 0 std::__ndk1::__variant_detail::__visitation::__base::__dispatcher<(unsigned long)1>::__dispatch[abi:ne180000]<std::__ndk1::__variant_detail::__dtor<std::__ndk1::__variant_detail::__traits<std::__ndk1::unordered_map<int, jukebox::compat::CompatManifest, std::__ndk1::hash<int>, std::__ndk1::equal_to<int>, std::__ndk1::allocator<std::__ndk1::pair<int const, jukebox::compat> > >, std::__ndk1::basic_string<char, std::__ndk1::char_traits<char>, std::__ndk1::equal_to<int><char> > >, (std::__ndk1::__variant_detail::_Trait)1>::__destroy[abi:ne180000]()::{lambda(auto:1&)#1}, std::__ndk1::__variant_detail::__base<(std::__ndk1::__variant_detail::__traits<std::__ndk1::unordered_map<int, jukebox::compat::CompatManifest, std::__ndk1::hash<int>, std::__ndk1::equal_to<int>, std::__ndk1::allocator<std::__ndk1::pair<int const, jukebox::compat> > >, std::__ndk1::basic_string<char, std::__ndk1::char_traits<char>, std::__ndk1::equal_to<int><char> > >)1, std::__ndk1::allocator<std::__ndk1::pair<int const, jukebox::compat> >, std::__ndk1::equal_to<int><char> >&>(std::__ndk1::__variant_detail::__dtor<std::__ndk1::__variant_detail::__traits<std::__ndk1::unordered_map<int, jukebox::compat::CompatManifest, std::__ndk1::hash<int>, std::__ndk1::equal_to<int>, std::__ndk1::allocator<std::__ndk1::pair<int const, jukebox::compat> > >, std::__ndk1::basic_string<char, std::__ndk1::char_traits<char>, std::__ndk1::equal_to<int><char> > >, (std::__ndk1::__variant_detail::_Trait)1>, std::__ndk1::__variant_detail::__base<(std::__ndk1::__variant_detail::__traits<std::__ndk1::unordered_map<int, jukebox::compat::CompatManifest, std::__ndk1::hash<int>, std::__ndk1::equal_to<int>, std::__ndk1::allocator<std::__ndk1::pair<int const, jukebox::compat> > >, std::__ndk1::basic_string<char, std::__ndk1::char_traits<char>, std::__ndk1::equal_to<int><char> > >)1, std::__ndk1::allocator<std::__ndk1::pair<int const, jukebox::compat> >, std::__ndk1::equal_to<int><char> >&)
PUBLIC 92470 0 matjson::Serialize<jukebox::LocalSong>::fromJson(matjson::Value const&, int)
PUBLIC 92d80 0 std::__ndk1::unique_ptr<jukebox::LocalSong, std::__ndk1::default_delete<jukebox::LocalSong> >::~unique_ptr[abi:ne180000]()
PUBLIC 92dec 0 std::__ndk1::unique_ptr<jukebox::YTSong, std::__ndk1::default_delete<jukebox::YTSong> >::~unique_ptr[abi:ne180000]()
PUBLIC 92e34 0 geode::impl::ResultData<jukebox::YTSong, std::__ndk1::basic_string<char, std::__ndk1::char_traits<char>, std::__ndk1::allocator<char> > >::~ResultData()
PUBLIC 92ea8 0 std::__ndk1::unique_ptr<jukebox::HostedSong, std::__ndk1::default_delete<jukebox::HostedSong> >::~unique_ptr[abi:ne180000]()
PUBLIC 92ef0 0 geode::impl::ResultData<jukebox::HostedSong, std::__ndk1::basic_string<char, std::__ndk1::char_traits<char>, std::__ndk1::allocator<char> > >::~ResultData()
PUBLIC 92f64 0 matjson::Serialize<jukebox::SongMetadata>::fromJson(matjson::Value const&, int)
PUBLIC 93818 0 geode::impl::ResultData<jukebox::SongMetadata, std::__ndk1::basic_string<char, std::__ndk1::char_traits<char>, std::__ndk1::allocator<char> > >::~ResultData()
PUBLIC 9388c 0 std::__ndk1::__variant_detail::__visitation::__base::__dispatcher<(unsigned long)0>::__dispatch[abi:ne180000]<std::__ndk1::__variant_detail::__dtor<std::__ndk1::__variant_detail::__traits<jukebox::SongMetadata, std::__ndk1::basic_string<char, std::__ndk1::char_traits<char>, std::__ndk1::allocator<char> > >, (std::__ndk1::__variant_detail::_Trait)1>::__destroy[abi:ne180000]()::{lambda(auto:1&)#1}, std::__ndk1::__variant_detail::__base<(std::__ndk1::__variant_detail::__traits<jukebox::SongMetadata, std::__ndk1::basic_string<char, std::__ndk1::char_traits<char>, std::__ndk1::allocator<char> > >)1, jukebox, std::__ndk1::allocator<char> >&>(std::__ndk1::__variant_detail::__dtor<std::__ndk1::__variant_detail::__traits<jukebox::SongMetadata, std::__ndk1::basic_string<char, std::__ndk1::char_traits<char>, std::__ndk1::allocator<char> > >, (std::__ndk1::__variant_detail::_Trait)1>, std::__ndk1::__variant_detail::__base<(std::__ndk1::__variant_detail::__traits<jukebox::SongMetadata, std::__ndk1::basic_string<char, std::__ndk1::char_traits<char>, std::__ndk1::allocator<char> > >)1, jukebox, std::__ndk1::allocator<char> >&)
PUBLIC 93908 0 std::__ndk1::__variant_detail::__visitation::__base::__dispatcher<(unsigned long)1>::__dispatch[abi:ne180000]<std::__ndk1::__variant_detail::__dtor<std::__ndk1::__variant_detail::__traits<jukebox::SongMetadata, std::__ndk1::basic_string<char, std::__ndk1::char_traits<char>, std::__ndk1::allocator<char> > >, (std::__ndk1::__variant_detail::_Trait)1>::__destroy[abi:ne180000]()::{lambda(auto:1&)#1}, std::__ndk1::__variant_detail::__base<(std::__ndk1::__variant_detail::__traits<jukebox::SongMetadata, std::__ndk1::basic_string<char, std::__ndk1::char_traits<char>, std::__ndk1::allocator<char> > >)1, jukebox, std::__ndk1::allocator<char> >&>(std::__ndk1::__variant_detail::__dtor<std::__ndk1::__variant_detail::__traits<jukebox::SongMetadata, std::__ndk1::basic_string<char, std::__ndk1::char_traits<char>, std::__ndk1::allocator<char> > >, (std::__ndk1::__variant_detail::_Trait)1>, std::__ndk1::__variant_detail::__base<(std::__ndk1::__variant_detail::__traits<jukebox::SongMetadata, std::__ndk1::basic_string<char, std::__ndk1::char_traits<char>, std::__ndk1::allocator<char> > >)1, jukebox, std::__ndk1::allocator<char> >&)
PUBLIC 9391c 0 matjson::Serialize<std::__ndk1::__fs::filesystem::path>::fromJson(matjson::Value const&)
PUBLIC 93bb0 0 std::__ndk1::vector<std::__ndk1::unique_ptr<jukebox::LocalSong, std::__ndk1::default_delete<jukebox::LocalSong> >, std::__ndk1::allocator<std::__ndk1::unique_ptr<jukebox::LocalSong, std::__ndk1::default_delete<jukebox::LocalSong> > > >::__throw_length_error[abi:ne180000]() const
PUBLIC 93bc4 0 std::__ndk1::vector<std::__ndk1::unique_ptr<jukebox::YTSong, std::__ndk1::default_delete<jukebox::YTSong> >, std::__ndk1::allocator<std::__ndk1::unique_ptr<jukebox::YTSong, std::__ndk1::default_delete<jukebox::YTSong> > > >::__push_back_slow_path<std::__ndk1::unique_ptr<jukebox::YTSong, std::__ndk1::default_delete<jukebox::YTSong> > >(std::__ndk1::unique_ptr<jukebox::YTSong, std::__ndk1::default_delete<jukebox::YTSong> >&&)
PUBLIC 93d80 0 std::__ndk1::vector<std::__ndk1::unique_ptr<jukebox::YTSong, std::__ndk1::default_delete<jukebox::YTSong> >, std::__ndk1::allocator<std::__ndk1::unique_ptr<jukebox::YTSong, std::__ndk1::default_delete<jukebox::YTSong> > > >::__throw_length_error[abi:ne180000]() const
PUBLIC 93d94 0 std::__ndk1::__variant_detail::__visitation::__base::__dispatcher<(unsigned long)0>::__dispatch[abi:ne180000]<std::__ndk1::__variant_detail::__dtor<std::__ndk1::__variant_detail::__traits<jukebox::YTSong, std::__ndk1::basic_string<char, std::__ndk1::char_traits<char>, std::__ndk1::allocator<char> > >, (std::__ndk1::__variant_detail::_Trait)1>::__destroy[abi:ne180000]()::{lambda(auto:1&)#1}, std::__ndk1::__variant_detail::__base<(std::__ndk1::__variant_detail::__traits<jukebox::YTSong, std::__ndk1::basic_string<char, std::__ndk1::char_traits<char>, std::__ndk1::allocator<char> > >)1, jukebox, std::__ndk1::allocator<char> >&>(std::__ndk1::__variant_detail::__dtor<std::__ndk1::__variant_detail::__traits<jukebox::YTSong, std::__ndk1::basic_string<char, std::__ndk1::char_traits<char>, std::__ndk1::allocator<char> > >, (std::__ndk1::__variant_detail::_Trait)1>, std::__ndk1::__variant_detail::__base<(std::__ndk1::__variant_detail::__traits<jukebox::YTSong, std::__ndk1::basic_string<char, std::__ndk1::char_traits<char>, std::__ndk1::allocator<char> > >)1, jukebox, std::__ndk1::allocator<char> >&)
PUBLIC 93db0 0 std::__ndk1::__variant_detail::__visitation::__base::__dispatcher<(unsigned long)1>::__dispatch[abi:ne180000]<std::__ndk1::__variant_detail::__dtor<std::__ndk1::__variant_detail::__traits<jukebox::YTSong, std::__ndk1::basic_string<char, std::__ndk1::char_traits<char>, std::__ndk1::allocator<char> > >, (std::__ndk1::__variant_detail::_Trait)1>::__destroy[abi:ne180000]()::{lambda(auto:1&)#1}, std::__ndk1::__variant_detail::__base<(std::__ndk1::__variant_detail::__traits<jukebox::YTSong, std::__ndk1::basic_string<char, std::__ndk1::char_traits<char>, std::__ndk1::allocator<char> > >)1, jukebox, std::__ndk1::allocator<char> >&>(std::__ndk1::__variant_detail::__dtor<std::__ndk1::__variant_detail::__traits<jukebox::YTSong, std::__ndk1::basic_string<char, std::__ndk1::char_traits<char>, std::__ndk1::allocator<char> > >, (std::__ndk1::__variant_detail::_Trait)1>, std::__ndk1::__variant_detail::__base<(std::__ndk1::__variant_detail::__traits<jukebox::YTSong, std::__ndk1::basic_string<char, std::__ndk1::char_traits<char>, std::__ndk1::allocator<char> > >)1, jukebox, std::__ndk1::allocator<char> >&)
PUBLIC 93dc4 0 std::__ndk1::vector<std::__ndk1::unique_ptr<jukebox::HostedSong, std::__ndk1::default_delete<jukebox::HostedSong> >, std::__ndk1::allocator<std::__ndk1::unique_ptr<jukebox::HostedSong, std::__ndk1::default_delete<jukebox::HostedSong> > > >::__push_back_slow_path<std::__ndk1::unique_ptr<jukebox::HostedSong, std::__ndk1::default_delete<jukebox::HostedSong> > >(std::__ndk1::unique_ptr<jukebox::HostedSong, std::__ndk1::default_delete<jukebox::HostedSong> >&&)
PUBLIC 93f80 0 std::__ndk1::vector<std::__ndk1::unique_ptr<jukebox::HostedSong, std::__ndk1::default_delete<jukebox::HostedSong> >, std::__ndk1::allocator<std::__ndk1::unique_ptr<jukebox::HostedSong, std::__ndk1::default_delete<jukebox::HostedSong> > > >::__throw_length_error[abi:ne180000]() const
PUBLIC 93f94 0 std::__ndk1::__variant_detail::__visitation::__base::__dispatcher<(unsigned long)0>::__dispatch[abi:ne180000]<std::__ndk1::__variant_detail::__dtor<std::__ndk1::__variant_detail::__traits<jukebox::HostedSong, std::__ndk1::basic_string<char, std::__ndk1::char_traits<char>, std::__ndk1::allocator<char> > >, (std::__ndk1::__variant_detail::_Trait)1>::__destroy[abi:ne180000]()::{lambda(auto:1&)#1}, std::__ndk1::__variant_detail::__base<(std::__ndk1::__variant_detail::__traits<jukebox::HostedSong, std::__ndk1::basic_string<char, std::__ndk1::char_traits<char>, std::__ndk1::allocator<char> > >)1, jukebox, std::__ndk1::allocator<char> >&>(std::__ndk1::__variant_detail::__dtor<std::__ndk1::__variant_detail::__traits<jukebox::HostedSong, std::__ndk1::basic_string<char, std::__ndk1::char_traits<char>, std::__ndk1::allocator<char> > >, (std::__ndk1::__variant_detail::_Trait)1>, std::__ndk1::__variant_detail::__base<(std::__ndk1::__variant_detail::__traits<jukebox::HostedSong, std::__ndk1::basic_string<char, std::__ndk1::char_traits<char>, std::__ndk1::allocator<char> > >)1, jukebox, std::__ndk1::allocator<char> >&)
PUBLIC 93fb0 0 std::__ndk1::__variant_detail::__visitation::__base::__dispatcher<(unsigned long)1>::__dispatch[abi:ne180000]<std::__ndk1::__variant_detail::__dtor<std::__ndk1::__variant_detail::__traits<jukebox::HostedSong, std::__ndk1::basic_string<char, std::__ndk1::char_traits<char>, std::__ndk1::allocator<char> > >, (std::__ndk1::__variant_detail::_Trait)1>::__destroy[abi:ne180000]()::{lambda(auto:1&)#1}, std::__ndk1::__variant_detail::__base<(std::__ndk1::__variant_detail::__traits<jukebox::HostedSong, std::__ndk1::basic_string<char, std::__ndk1::char_traits<char>, std::__ndk1::allocator<char> > >)1, jukebox, std::__ndk1::allocator<char> >&>(std::__ndk1::__variant_detail::__dtor<std::__ndk1::__variant_detail::__traits<jukebox::HostedSong, std::__ndk1::basic_string<char, std::__ndk1::char_traits<char>, std::__ndk1::allocator<char> > >, (std::__ndk1::__variant_detail::_Trait)1>, std::__ndk1::__variant_detail::__base<(std::__ndk1::__variant_detail::__traits<jukebox::HostedSong, std::__ndk1::basic_string<char, std::__ndk1::char_traits<char>, std::__ndk1::allocator<char> > >)1, jukebox, std::__ndk1::allocator<char> >&)
PUBLIC 93fc4 0 std::__ndk1::__variant_detail::__visitation::__base::__dispatcher<(unsigned long)0>::__dispatch[abi:ne180000]<std::__ndk1::__variant_detail::__dtor<std::__ndk1::__variant_detail::__traits<jukebox::Nongs, std::__ndk1::basic_string<char, std::__ndk1::char_traits<char>, std::__ndk1::allocator<char> > >, (std::__ndk1::__variant_detail::_Trait)1>::__destroy[abi:ne180000]()::{lambda(auto:1&)#1}, std::__ndk1::__variant_detail::__base<(std::__ndk1::__variant_detail::__traits<jukebox::Nongs, std::__ndk1::basic_string<char, std::__ndk1::char_traits<char>, std::__ndk1::allocator<char> > >)1, jukebox, std::__ndk1::allocator<char> >&>(std::__ndk1::__variant_detail::__dtor<std::__ndk1::__variant_detail::__traits<jukebox::Nongs, std::__ndk1::basic_string<char, std::__ndk1::char_traits<char>, std::__ndk1::allocator<char> > >, (std::__ndk1::__variant_detail::_Trait)1>, std::__ndk1::__variant_detail::__base<(std::__ndk1::__variant_detail::__traits<jukebox::Nongs, std::__ndk1::basic_string<char, std::__ndk1::char_traits<char>, std::__ndk1::allocator<char> > >)1, jukebox, std::__ndk1::allocator<char> >&)
PUBLIC 94000 0 std::__ndk1::__variant_detail::__visitation::__base::__dispatcher<(unsigned long)1>::__dispatch[abi:ne180000]<std::__ndk1::__variant_detail::__dtor<std::__ndk1::__variant_detail::__traits<jukebox::Nongs, std::__ndk1::basic_string<char, std::__ndk1::char_traits<char>, std::__ndk1::allocator<char> > >, (std::__ndk1::__variant_detail::_Trait)1>::__destroy[abi:ne180000]()::{lambda(auto:1&)#1}, std::__ndk1::__variant_detail::__base<(std::__ndk1::__variant_detail::__traits<jukebox::Nongs, std::__ndk1::basic_string<char, std::__ndk1::char_traits<char>, std::__ndk1::allocator<char> > >)1, jukebox, std::__ndk1::allocator<char> >&>(std::__ndk1::__variant_detail::__dtor<std::__ndk1::__variant_detail::__traits<jukebox::Nongs, std::__ndk1::basic_string<char, std::__ndk1::char_traits<char>, std::__ndk1::allocator<char> > >, (std::__ndk1::__variant_detail::_Trait)1>, std::__ndk1::__variant_detail::__base<(std::__ndk1::__variant_detail::__traits<jukebox::Nongs, std::__ndk1::basic_string<char, std::__ndk1::char_traits<char>, std::__ndk1::allocator<char> > >)1, jukebox, std::__ndk1::allocator<char> >&)
PUBLIC 94014 0 std::__ndk1::__hash_table<std::__ndk1::__hash_value_type<int, std::__ndk1::unique_ptr<jukebox::Nongs, std::__ndk1::default_delete<jukebox::Nongs> > >, std::__ndk1::__unordered_map_hasher<int, std::__ndk1::__hash_value_type<int, std::__ndk1::unique_ptr<jukebox::Nongs, std::__ndk1::default_delete<jukebox::Nongs> > >, std::__ndk1::hash<int>, std::__ndk1::equal_to<int>, true>, std::__ndk1::__unordered_map_equal<int, std::__ndk1::__hash_value_type<int, std::__ndk1::unique_ptr<jukebox::Nongs, std::__ndk1::default_delete<jukebox::Nongs> > >, std::__ndk1::equal_to<int>, std::__ndk1::hash<int>, true>, std::__ndk1::allocator<std::__ndk1::__hash_value_type<int, std::__ndk1::unique_ptr<jukebox::Nongs, std::__ndk1::default_delete<jukebox::Nongs> > > > >::__emplace_unique_key_args<int, std::__ndk1::piecewise_construct_t const&, std::__ndk1::tuple<int const&>, std::__ndk1::tuple<> >(int const&, std::__ndk1::piecewise_construct_t const&, std::__ndk1::tuple<int const&>, std::__ndk1::tuple<>)
PUBLIC 94388 0 std::__ndk1::unique_ptr<std::__ndk1::__hash_node<std::__ndk1::__hash_value_type<int, std::__ndk1::unique_ptr<jukebox::Nongs, std::__ndk1::default_delete<jukebox::Nongs> > >, void*>, std::__ndk1::__hash_node_destructor<std::__ndk1::allocator<std::__ndk1::__hash_node<std::__ndk1::__hash_value_type<int, std::__ndk1::unique_ptr<jukebox::Nongs, std::__ndk1::default_delete<jukebox::Nongs> > >, void*> > > >::~unique_ptr[abi:ne180000]()
PUBLIC 94400 0 std::__ndk1::__hash_table<std::__ndk1::__hash_value_type<int, std::__ndk1::unique_ptr<jukebox::Nongs, std::__ndk1::default_delete<jukebox::Nongs> > >, std::__ndk1::__unordered_map_hasher<int, std::__ndk1::__hash_value_type<int, std::__ndk1::unique_ptr<jukebox::Nongs, std::__ndk1::default_delete<jukebox::Nongs> > >, std::__ndk1::hash<int>, std::__ndk1::equal_to<int>, true>, std::__ndk1::__unordered_map_equal<int, std::__ndk1::__hash_value_type<int, std::__ndk1::unique_ptr<jukebox::Nongs, std::__ndk1::default_delete<jukebox::Nongs> > >, std::__ndk1::equal_to<int>, std::__ndk1::hash<int>, true>, std::__ndk1::allocator<std::__ndk1::__hash_value_type<int, std::__ndk1::unique_ptr<jukebox::Nongs, std::__ndk1::default_delete<jukebox::Nongs> > > > >::__do_rehash<true>(unsigned long)
PUBLIC 945ac 0 std::__ndk1::__hash_table<std::__ndk1::__hash_value_type<int, std::__ndk1::unique_ptr<jukebox::Nongs, std::__ndk1::default_delete<jukebox::Nongs> > >, std::__ndk1::__unordered_map_hasher<int, std::__ndk1::__hash_value_type<int, std::__ndk1::unique_ptr<jukebox::Nongs, std::__ndk1::default_delete<jukebox::Nongs> > >, std::__ndk1::hash<int>, std::__ndk1::equal_to<int>, true>, std::__ndk1::__unordered_map_equal<int, std::__ndk1::__hash_value_type<int, std::__ndk1::unique_ptr<jukebox::Nongs, std::__ndk1::default_delete<jukebox::Nongs> > >, std::__ndk1::equal_to<int>, std::__ndk1::hash<int>, true>, std::__ndk1::allocator<std::__ndk1::__hash_value_type<int, std::__ndk1::unique_ptr<jukebox::Nongs, std::__ndk1::default_delete<jukebox::Nongs> > > > >::__emplace_unique_key_args<int, std::__ndk1::pair<int const, std::__ndk1::unique_ptr<jukebox::Nongs, std::__ndk1::default_delete<jukebox::Nongs> > > >(int const&, std::__ndk1::pair<int const, std::__ndk1::unique_ptr<jukebox::Nongs, std::__ndk1::default_delete<jukebox::Nongs> > >&&)
PUBLIC 948f0 0 std::__ndk1::shared_ptr<geode::Task<std::__ndk1::basic_string<char, std::__ndk1::char_traits<char>, std::__ndk1::allocator<char> >, std::__ndk1::monostate>::Handle>::~shared_ptr[abi:ne180000]()
PUBLIC 94940 0 geode::Task<std::__ndk1::basic_string<char, std::__ndk1::char_traits<char>, std::__ndk1::allocator<char> >, std::__ndk1::monostate>::run(std::__ndk1::function<geode::Task<std::__ndk1::basic_string<char, std::__ndk1::char_traits<char>, std::__ndk1::allocator<char> >, std::__ndk1::monostate>::Result(std::__ndk1::function<void (std::__ndk1::monostate)>, std::__ndk1::function<bool ()>)>&&, std::__ndk1::basic_string_view<char, std::__ndk1::char_traits<char> >)::{lambda()#1}::~{lambda()#1}()
PUBLIC 949b0 0 std::__ndk1::__shared_ptr_emplace<geode::Task<std::__ndk1::basic_string<char, std::__ndk1::char_traits<char>, std::__ndk1::allocator<char> >, std::__ndk1::monostate>::Handle, std::__ndk1::allocator<geode::Task<std::__ndk1::basic_string<char, std::__ndk1::char_traits<char>, std::__ndk1::allocator<char> >, std::__ndk1::monostate>::Handle> >::~__shared_ptr_emplace()
PUBLIC 949c0 0 std::__ndk1::__shared_ptr_emplace<geode::Task<std::__ndk1::basic_string<char, std::__ndk1::char_traits<char>, std::__ndk1::allocator<char> >, std::__ndk1::monostate>::Handle, std::__ndk1::allocator<geode::Task<std::__ndk1::basic_string<char, std::__ndk1::char_traits<char>, std::__ndk1::allocator<char> >, std::__ndk1::monostate>::Handle> >::~__shared_ptr_emplace()
PUBLIC 949f0 0 std::__ndk1::__shared_ptr_emplace<geode::Task<std::__ndk1::basic_string<char, std::__ndk1::char_traits<char>, std::__ndk1::allocator<char> >, std::__ndk1::monostate>::Handle, std::__ndk1::allocator<geode::Task<std::__ndk1::basic_string<char, std::__ndk1::char_traits<char>, std::__ndk1::allocator<char> >, std::__ndk1::monostate>::Handle> >::__on_zero_shared()
PUBLIC 94aa4 0 std::__ndk1::__shared_ptr_emplace<geode::Task<std::__ndk1::basic_string<char, std::__ndk1::char_traits<char>, std::__ndk1::allocator<char> >, std::__ndk1::monostate>::Handle, std::__ndk1::allocator<geode::Task<std::__ndk1::basic_string<char, std::__ndk1::char_traits<char>, std::__ndk1::allocator<char> >, std::__ndk1::monostate>::Handle> >::__on_zero_shared_weak()
PUBLIC 94aa8 0 std::__ndk1::__thread_proxy[abi:ne180000]<std::__ndk1::tuple<std::__ndk1::unique_ptr<std::__ndk1::__thread_struct, std::__ndk1::default_delete<std::__ndk1::unique_ptr> >, geode::Task<std::__ndk1::basic_string<char, std::__ndk1::char_traits<char>, std::__ndk1::allocator<char> >, std::__ndk1::monostate>::run(std::__ndk1::function<std::__ndk1::monostate(geode::Task<std::__ndk1::basic_string<char, std::__ndk1::char_traits<char>, std::__ndk1::allocator<char> >, std::__ndk1::monostate><void (std::__ndk1::basic_string<char, std::__ndk1::char_traits<char>, std::__ndk1::allocator<char> >)>, geode::Task<std::__ndk1::basic_string<char, std::__ndk1::char_traits<char>, std::__ndk1::allocator<char> >, std::__ndk1::monostate><bool ()>)::Result>&&, std::__ndk1::basic_string_view<char, std::__ndk1::char_traits>)::{lambda()#1}> >(std::__ndk1::tuple<std::__ndk1::unique_ptr<std::__ndk1::__thread_struct, std::__ndk1::default_delete<std::__ndk1::unique_ptr> >, geode::Task<std::__ndk1::basic_string<char, std::__ndk1::char_traits<char>, std::__ndk1::allocator<char> >, std::__ndk1::monostate>::run(std::__ndk1::function<std::__ndk1::monostate(geode::Task<std::__ndk1::basic_string<char, std::__ndk1::char_traits<char>, std::__ndk1::allocator<char> >, std::__ndk1::monostate><void (std::__ndk1::basic_string<char, std::__ndk1::char_traits<char>, std::__ndk1::allocator<char> >)>, geode::Task<std::__ndk1::basic_string<char, std::__ndk1::char_traits<char>, std::__ndk1::allocator<char> >, std::__ndk1::monostate><bool ()>)::Result>&&, std::__ndk1::basic_string_view<char, std::__ndk1::char_traits>)::{lambda()#1}>)
PUBLIC 95114 0 std::__ndk1::unique_ptr<std::__ndk1::__thread_struct, std::__ndk1::default_delete<std::__ndk1::__thread_struct> >::~unique_ptr[abi:ne180000]()
PUBLIC 95150 0 geode::Task<std::__ndk1::basic_string<char, std::__ndk1::char_traits<char>, std::__ndk1::allocator<char> >, std::__ndk1::monostate>::Result::~Result()
PUBLIC 951c4 0 std::__ndk1::__function::__func<geode::Task<std::__ndk1::basic_string<char, std::__ndk1::char_traits<char>, std::__ndk1::allocator<char> >, std::__ndk1::monostate>::run(std::__ndk1::function<geode::Task<std::__ndk1::basic_string<char, std::__ndk1::char_traits<char>, std::__ndk1::allocator<char> >, std::__ndk1::monostate>::Result(std::__ndk1::function<void (std::__ndk1::monostate)>, std::__ndk1::function<bool ()>)>&&, std::__ndk1::basic_string_view<char, std::__ndk1::char_traits<char> >)::{lambda()#1}::operator()() const::{lambda(std::__ndk1::monostate)#1}, std::__ndk1::allocator<geode::Task<std::__ndk1::basic_string<char, std::__ndk1::char_traits<char>, std::__ndk1::allocator<char> >, std::__ndk1::monostate>::run(std::__ndk1::function<geode::Task<std::__ndk1::basic_string<char, std::__ndk1::char_traits<char>, std::__ndk1::allocator<char> >, std::__ndk1::monostate>::Result(std::__ndk1::function<void (std::__ndk1::monostate)>, std::__ndk1::function<bool ()>)>&&, std::__ndk1::basic_string_view<char, std::__ndk1::char_traits<char> >)::{lambda()#1}::operator()() const::{lambda(std::__ndk1::monostate)#1}>, void (std::__ndk1::monostate)>::~__func()
PUBLIC 951e4 0 std::__ndk1::__function::__func<geode::Task<std::__ndk1::basic_string<char, std::__ndk1::char_traits<char>, std::__ndk1::allocator<char> >, std::__ndk1::monostate>::run(std::__ndk1::function<geode::Task<std::__ndk1::basic_string<char, std::__ndk1::char_traits<char>, std::__ndk1::allocator<char> >, std::__ndk1::monostate>::Result(std::__ndk1::function<void (std::__ndk1::monostate)>, std::__ndk1::function<bool ()>)>&&, std::__ndk1::basic_string_view<char, std::__ndk1::char_traits<char> >)::{lambda()#1}::operator()() const::{lambda(std::__ndk1::monostate)#1}, std::__ndk1::allocator<geode::Task<std::__ndk1::basic_string<char, std::__ndk1::char_traits<char>, std::__ndk1::allocator<char> >, std::__ndk1::monostate>::run(std::__ndk1::function<geode::Task<std::__ndk1::basic_string<char, std::__ndk1::char_traits<char>, std::__ndk1::allocator<char> >, std::__ndk1::monostate>::Result(std::__ndk1::function<void (std::__ndk1::monostate)>, std::__ndk1::function<bool ()>)>&&, std::__ndk1::basic_string_view<char, std::__ndk1::char_traits<char> >)::{lambda()#1}::operator()() const::{lambda(std::__ndk1::monostate)#1}>, void (std::__ndk1::monostate)>::~__func()
PUBLIC 95220 0 std::__ndk1::__function::__func<geode::Task<std::__ndk1::basic_string<char, std::__ndk1::char_traits<char>, std::__ndk1::allocator<char> >, std::__ndk1::monostate>::run(std::__ndk1::function<geode::Task<std::__ndk1::basic_string<char, std::__ndk1::char_traits<char>, std::__ndk1::allocator<char> >, std::__ndk1::monostate>::Result(std::__ndk1::function<void (std::__ndk1::monostate)>, std::__ndk1::function<bool ()>)>&&, std::__ndk1::basic_string_view<char, std::__ndk1::char_traits<char> >)::{lambda()#1}::operator()() const::{lambda(std::__ndk1::monostate)#1}, std::__ndk1::allocator<geode::Task<std::__ndk1::basic_string<char, std::__ndk1::char_traits<char>, std::__ndk1::allocator<char> >, std::__ndk1::monostate>::run(std::__ndk1::function<geode::Task<std::__ndk1::basic_string<char, std::__ndk1::char_traits<char>, std::__ndk1::allocator<char> >, std::__ndk1::monostate>::Result(std::__ndk1::function<void (std::__ndk1::monostate)>, std::__ndk1::function<bool ()>)>&&, std::__ndk1::basic_string_view<char, std::__ndk1::char_traits<char> >)::{lambda()#1}::operator()() const::{lambda(std::__ndk1::monostate)#1}>, void (std::__ndk1::monostate)>::__clone() const
PUBLIC 95270 0 std::__ndk1::__function::__func<geode::Task<std::__ndk1::basic_string<char, std::__ndk1::char_traits<char>, std::__ndk1::allocator<char> >, std::__ndk1::monostate>::run(std::__ndk1::function<geode::Task<std::__ndk1::basic_string<char, std::__ndk1::char_traits<char>, std::__ndk1::allocator<char> >, std::__ndk1::monostate>::Result(std::__ndk1::function<void (std::__ndk1::monostate)>, std::__ndk1::function<bool ()>)>&&, std::__ndk1::basic_string_view<char, std::__ndk1::char_traits<char> >)::{lambda()#1}::operator()() const::{lambda(std::__ndk1::monostate)#1}, std::__ndk1::allocator<geode::Task<std::__ndk1::basic_string<char, std::__ndk1::char_traits<char>, std::__ndk1::allocator<char> >, std::__ndk1::monostate>::run(std::__ndk1::function<geode::Task<std::__ndk1::basic_string<char, std::__ndk1::char_traits<char>, std::__ndk1::allocator<char> >, std::__ndk1::monostate>::Result(std::__ndk1::function<void (std::__ndk1::monostate)>, std::__ndk1::function<bool ()>)>&&, std::__ndk1::basic_string_view<char, std::__ndk1::char_traits<char> >)::{lambda()#1}::operator()() const::{lambda(std::__ndk1::monostate)#1}>, void (std::__ndk1::monostate)>::__clone(std::__ndk1::__function::__base<void (std::__ndk1::monostate)>*) const
PUBLIC 952a4 0 std::__ndk1::__function::__func<geode::Task<std::__ndk1::basic_string<char, std::__ndk1::char_traits<char>, std::__ndk1::allocator<char> >, std::__ndk1::monostate>::run(std::__ndk1::function<geode::Task<std::__ndk1::basic_string<char, std::__ndk1::char_traits<char>, std::__ndk1::allocator<char> >, std::__ndk1::monostate>::Result(std::__ndk1::function<void (std::__ndk1::monostate)>, std::__ndk1::function<bool ()>)>&&, std::__ndk1::basic_string_view<char, std::__ndk1::char_traits<char> >)::{lambda()#1}::operator()() const::{lambda(std::__ndk1::monostate)#1}, std::__ndk1::allocator<geode::Task<std::__ndk1::basic_string<char, std::__ndk1::char_traits<char>, std::__ndk1::allocator<char> >, std::__ndk1::monostate>::run(std::__ndk1::function<geode::Task<std::__ndk1::basic_string<char, std::__ndk1::char_traits<char>, std::__ndk1::allocator<char> >, std::__ndk1::monostate>::Result(std::__ndk1::function<void (std::__ndk1::monostate)>, std::__ndk1::function<bool ()>)>&&, std::__ndk1::basic_string_view<char, std::__ndk1::char_traits<char> >)::{lambda()#1}::operator()() const::{lambda(std::__ndk1::monostate)#1}>, void (std::__ndk1::monostate)>::destroy()
PUBLIC 952b4 0 std::__ndk1::__function::__func<geode::Task<std::__ndk1::basic_string<char, std::__ndk1::char_traits<char>, std::__ndk1::allocator<char> >, std::__ndk1::monostate>::run(std::__ndk1::function<geode::Task<std::__ndk1::basic_string<char, std::__ndk1::char_traits<char>, std::__ndk1::allocator<char> >, std::__ndk1::monostate>::Result(std::__ndk1::function<void (std::__ndk1::monostate)>, std::__ndk1::function<bool ()>)>&&, std::__ndk1::basic_string_view<char, std::__ndk1::char_traits<char> >)::{lambda()#1}::operator()() const::{lambda(std::__ndk1::monostate)#1}, std::__ndk1::allocator<geode::Task<std::__ndk1::basic_string<char, std::__ndk1::char_traits<char>, std::__ndk1::allocator<char> >, std::__ndk1::monostate>::run(std::__ndk1::function<geode::Task<std::__ndk1::basic_string<char, std::__ndk1::char_traits<char>, std::__ndk1::allocator<char> >, std::__ndk1::monostate>::Result(std::__ndk1::function<void (std::__ndk1::monostate)>, std::__ndk1::function<bool ()>)>&&, std::__ndk1::basic_string_view<char, std::__ndk1::char_traits<char> >)::{lambda()#1}::operator()() const::{lambda(std::__ndk1::monostate)#1}>, void (std::__ndk1::monostate)>::destroy_deallocate()
PUBLIC 952e4 0 std::__ndk1::__function::__func<geode::Task<std::__ndk1::basic_string<char, std::__ndk1::char_traits<char>, std::__ndk1::allocator<char> >, std::__ndk1::monostate>::run(std::__ndk1::function<geode::Task<std::__ndk1::basic_string<char, std::__ndk1::char_traits<char>, std::__ndk1::allocator<char> >, std::__ndk1::monostate>::Result(std::__ndk1::function<void (std::__ndk1::monostate)>, std::__ndk1::function<bool ()>)>&&, std::__ndk1::basic_string_view<char, std::__ndk1::char_traits<char> >)::{lambda()#1}::operator()() const::{lambda(std::__ndk1::monostate)#1}, std::__ndk1::allocator<geode::Task<std::__ndk1::basic_string<char, std::__ndk1::char_traits<char>, std::__ndk1::allocator<char> >, std::__ndk1::monostate>::run(std::__ndk1::function<geode::Task<std::__ndk1::basic_string<char, std::__ndk1::char_traits<char>, std::__ndk1::allocator<char> >, std::__ndk1::monostate>::Result(std::__ndk1::function<void (std::__ndk1::monostate)>, std::__ndk1::function<bool ()>)>&&, std::__ndk1::basic_string_view<char, std::__ndk1::char_traits<char> >)::{lambda()#1}::operator()() const::{lambda(std::__ndk1::monostate)#1}>, void (std::__ndk1::monostate)>::operator()(std::__ndk1::monostate&&)
PUBLIC 95458 0 std::__ndk1::__function::__func<geode::Task<std::__ndk1::basic_string<char, std::__ndk1::char_traits<char>, std::__ndk1::allocator<char> >, std::__ndk1::monostate>::run(std::__ndk1::function<geode::Task<std::__ndk1::basic_string<char, std::__ndk1::char_traits<char>, std::__ndk1::allocator<char> >, std::__ndk1::monostate>::Result(std::__ndk1::function<void (std::__ndk1::monostate)>, std::__ndk1::function<bool ()>)>&&, std::__ndk1::basic_string_view<char, std::__ndk1::char_traits<char> >)::{lambda()#1}::operator()() const::{lambda(std::__ndk1::monostate)#1}, std::__ndk1::allocator<geode::Task<std::__ndk1::basic_string<char, std::__ndk1::char_traits<char>, std::__ndk1::allocator<char> >, std::__ndk1::monostate>::run(std::__ndk1::function<geode::Task<std::__ndk1::basic_string<char, std::__ndk1::char_traits<char>, std::__ndk1::allocator<char> >, std::__ndk1::monostate>::Result(std::__ndk1::function<void (std::__ndk1::monostate)>, std::__ndk1::function<bool ()>)>&&, std::__ndk1::basic_string_view<char, std::__ndk1::char_traits<char> >)::{lambda()#1}::operator()() const::{lambda(std::__ndk1::monostate)#1}>, void (std::__ndk1::monostate)>::target(std::type_info const&) const
PUBLIC 95474 0 std::__ndk1::__function::__func<geode::Task<std::__ndk1::basic_string<char, std::__ndk1::char_traits<char>, std::__ndk1::allocator<char> >, std::__ndk1::monostate>::run(std::__ndk1::function<geode::Task<std::__ndk1::basic_string<char, std::__ndk1::char_traits<char>, std::__ndk1::allocator<char> >, std::__ndk1::monostate>::Result(std::__ndk1::function<void (std::__ndk1::monostate)>, std::__ndk1::function<bool ()>)>&&, std::__ndk1::basic_string_view<char, std::__ndk1::char_traits<char> >)::{lambda()#1}::operator()() const::{lambda(std::__ndk1::monostate)#1}, std::__ndk1::allocator<geode::Task<std::__ndk1::basic_string<char, std::__ndk1::char_traits<char>, std::__ndk1::allocator<char> >, std::__ndk1::monostate>::run(std::__ndk1::function<geode::Task<std::__ndk1::basic_string<char, std::__ndk1::char_traits<char>, std::__ndk1::allocator<char> >, std::__ndk1::monostate>::Result(std::__ndk1::function<void (std::__ndk1::monostate)>, std::__ndk1::function<bool ()>)>&&, std::__ndk1::basic_string_view<char, std::__ndk1::char_traits<char> >)::{lambda()#1}::operator()() const::{lambda(std::__ndk1::monostate)#1}>, void (std::__ndk1::monostate)>::target_type() const
PUBLIC 95480 0 std::__ndk1::__function::__func<geode::Task<std::__ndk1::basic_string<char, std::__ndk1::char_traits<char>, std::__ndk1::allocator<char> >, std::__ndk1::monostate>::progress(std::__ndk1::shared_ptr<geode::Task<std::__ndk1::basic_string<char, std::__ndk1::char_traits<char>, std::__ndk1::allocator<char> >, std::__ndk1::monostate>::Handle>, std::__ndk1::monostate&&)::{lambda()#1}, std::__ndk1::allocator<geode::Task<std::__ndk1::basic_string<char, std::__ndk1::char_traits<char>, std::__ndk1::allocator<char> >, std::__ndk1::monostate>::progress(std::__ndk1::shared_ptr<geode::Task<std::__ndk1::basic_string<char, std::__ndk1::char_traits<char>, std::__ndk1::allocator<char> >, std::__ndk1::monostate>::Handle>, std::__ndk1::monostate&&)::{lambda()#1}>, void ()>::~__func()
PUBLIC 954dc 0 std::__ndk1::__function::__func<geode::Task<std::__ndk1::basic_string<char, std::__ndk1::char_traits<char>, std::__ndk1::allocator<char> >, std::__ndk1::monostate>::progress(std::__ndk1::shared_ptr<geode::Task<std::__ndk1::basic_string<char, std::__ndk1::char_traits<char>, std::__ndk1::allocator<char> >, std::__ndk1::monostate>::Handle>, std::__ndk1::monostate&&)::{lambda()#1}, std::__ndk1::allocator<geode::Task<std::__ndk1::basic_string<char, std::__ndk1::char_traits<char>, std::__ndk1::allocator<char> >, std::__ndk1::monostate>::progress(std::__ndk1::shared_ptr<geode::Task<std::__ndk1::basic_string<char, std::__ndk1::char_traits<char>, std::__ndk1::allocator<char> >, std::__ndk1::monostate>::Handle>, std::__ndk1::monostate&&)::{lambda()#1}>, void ()>::~__func()
PUBLIC 95548 0 std::__ndk1::__function::__func<geode::Task<std::__ndk1::basic_string<char, std::__ndk1::char_traits<char>, std::__ndk1::allocator<char> >, std::__ndk1::monostate>::progress(std::__ndk1::shared_ptr<geode::Task<std::__ndk1::basic_string<char, std::__ndk1::char_traits<char>, std::__ndk1::allocator<char> >, std::__ndk1::monostate>::Handle>, std::__ndk1::monostate&&)::{lambda()#1}, std::__ndk1::allocator<geode::Task<std::__ndk1::basic_string<char, std::__ndk1::char_traits<char>, std::__ndk1::allocator<char> >, std::__ndk1::monostate>::progress(std::__ndk1::shared_ptr<geode::Task<std::__ndk1::basic_string<char, std::__ndk1::char_traits<char>, std::__ndk1::allocator<char> >, std::__ndk1::monostate>::Handle>, std::__ndk1::monostate&&)::{lambda()#1}>, void ()>::__clone() const
PUBLIC 95598 0 std::__ndk1::__function::__func<geode::Task<std::__ndk1::basic_string<char, std::__ndk1::char_traits<char>, std::__ndk1::allocator<char> >, std::__ndk1::monostate>::progress(std::__ndk1::shared_ptr<geode::Task<std::__ndk1::basic_string<char, std::__ndk1::char_traits<char>, std::__ndk1::allocator<char> >, std::__ndk1::monostate>::Handle>, std::__ndk1::monostate&&)::{lambda()#1}, std::__ndk1::allocator<geode::Task<std::__ndk1::basic_string<char, std::__ndk1::char_traits<char>, std::__ndk1::allocator<char> >, std::__ndk1::monostate>::progress(std::__ndk1::shared_ptr<geode::Task<std::__ndk1::basic_string<char, std::__ndk1::char_traits<char>, std::__ndk1::allocator<char> >, std::__ndk1::monostate>::Handle>, std::__ndk1::monostate&&)::{lambda()#1}>, void ()>::__clone(std::__ndk1::__function::__base<void ()>*) const
PUBLIC 955cc 0 std::__ndk1::__function::__func<geode::Task<std::__ndk1::basic_string<char, std::__ndk1::char_traits<char>, std::__ndk1::allocator<char> >, std::__ndk1::monostate>::progress(std::__ndk1::shared_ptr<geode::Task<std::__ndk1::basic_string<char, std::__ndk1::char_traits<char>, std::__ndk1::allocator<char> >, std::__ndk1::monostate>::Handle>, std::__ndk1::monostate&&)::{lambda()#1}, std::__ndk1::allocator<geode::Task<std::__ndk1::basic_string<char, std::__ndk1::char_traits<char>, std::__ndk1::allocator<char> >, std::__ndk1::monostate>::progress(std::__ndk1::shared_ptr<geode::Task<std::__ndk1::basic_string<char, std::__ndk1::char_traits<char>, std::__ndk1::allocator<char> >, std::__ndk1::monostate>::Handle>, std::__ndk1::monostate&&)::{lambda()#1}>, void ()>::destroy()
PUBLIC 9561c 0 std::__ndk1::__function::__func<geode::Task<std::__ndk1::basic_string<char, std::__ndk1::char_traits<char>, std::__ndk1::allocator<char> >, std::__ndk1::monostate>::progress(std::__ndk1::shared_ptr<geode::Task<std::__ndk1::basic_string<char, std::__ndk1::char_traits<char>, std::__ndk1::allocator<char> >, std::__ndk1::monostate>::Handle>, std::__ndk1::monostate&&)::{lambda()#1}, std::__ndk1::allocator<geode::Task<std::__ndk1::basic_string<char, std::__ndk1::char_traits<char>, std::__ndk1::allocator<char> >, std::__ndk1::monostate>::progress(std::__ndk1::shared_ptr<geode::Task<std::__ndk1::basic_string<char, std::__ndk1::char_traits<char>, std::__ndk1::allocator<char> >, std::__ndk1::monostate>::Handle>, std::__ndk1::monostate&&)::{lambda()#1}>, void ()>::destroy_deallocate()
PUBLIC 9567c 0 std::__ndk1::__function::__func<geode::Task<std::__ndk1::basic_string<char, std::__ndk1::char_traits<char>, std::__ndk1::allocator<char> >, std::__ndk1::monostate>::progress(std::__ndk1::shared_ptr<geode::Task<std::__ndk1::basic_string<char, std::__ndk1::char_traits<char>, std::__ndk1::allocator<char> >, std::__ndk1::monostate>::Handle>, std::__ndk1::monostate&&)::{lambda()#1}, std::__ndk1::allocator<geode::Task<std::__ndk1::basic_string<char, std::__ndk1::char_traits<char>, std::__ndk1::allocator<char> >, std::__ndk1::monostate>::progress(std::__ndk1::shared_ptr<geode::Task<std::__ndk1::basic_string<char, std::__ndk1::char_traits<char>, std::__ndk1::allocator<char> >, std::__ndk1::monostate>::Handle>, std::__ndk1::monostate&&)::{lambda()#1}>, void ()>::operator()()
PUBLIC 95830 0 std::__ndk1::__function::__func<geode::Task<std::__ndk1::basic_string<char, std::__ndk1::char_traits<char>, std::__ndk1::allocator<char> >, std::__ndk1::monostate>::progress(std::__ndk1::shared_ptr<geode::Task<std::__ndk1::basic_string<char, std::__ndk1::char_traits<char>, std::__ndk1::allocator<char> >, std::__ndk1::monostate>::Handle>, std::__ndk1::monostate&&)::{lambda()#1}, std::__ndk1::allocator<geode::Task<std::__ndk1::basic_string<char, std::__ndk1::char_traits<char>, std::__ndk1::allocator<char> >, std::__ndk1::monostate>::progress(std::__ndk1::shared_ptr<geode::Task<std::__ndk1::basic_string<char, std::__ndk1::char_traits<char>, std::__ndk1::allocator<char> >, std::__ndk1::monostate>::Handle>, std::__ndk1::monostate&&)::{lambda()#1}>, void ()>::target(std::type_info const&) const
PUBLIC 9584c 0 std::__ndk1::__function::__func<geode::Task<std::__ndk1::basic_string<char, std::__ndk1::char_traits<char>, std::__ndk1::allocator<char> >, std::__ndk1::monostate>::progress(std::__ndk1::shared_ptr<geode::Task<std::__ndk1::basic_string<char, std::__ndk1::char_traits<char>, std::__ndk1::allocator<char> >, std::__ndk1::monostate>::Handle>, std::__ndk1::monostate&&)::{lambda()#1}, std::__ndk1::allocator<geode::Task<std::__ndk1::basic_string<char, std::__ndk1::char_traits<char>, std::__ndk1::allocator<char> >, std::__ndk1::monostate>::progress(std::__ndk1::shared_ptr<geode::Task<std::__ndk1::basic_string<char, std::__ndk1::char_traits<char>, std::__ndk1::allocator<char> >, std::__ndk1::monostate>::Handle>, std::__ndk1::monostate&&)::{lambda()#1}>, void ()>::target_type() const
PUBLIC 95858 0 std::__ndk1::__function::__func<geode::Task<std::__ndk1::basic_string<char, std::__ndk1::char_traits<char>, std::__ndk1::allocator<char> >, std::__ndk1::monostate>::run(std::__ndk1::function<geode::Task<std::__ndk1::basic_string<char, std::__ndk1::char_traits<char>, std::__ndk1::allocator<char> >, std::__ndk1::monostate>::Result(std::__ndk1::function<void (std::__ndk1::monostate)>, std::__ndk1::function<bool ()>)>&&, std::__ndk1::basic_string_view<char, std::__ndk1::char_traits<char> >)::{lambda()#1}::operator()() const::{lambda()#1}, std::__ndk1::allocator<geode::Task<std::__ndk1::basic_string<char, std::__ndk1::char_traits<char>, std::__ndk1::allocator<char> >, std::__ndk1::monostate>::run(std::__ndk1::function<geode::Task<std::__ndk1::basic_string<char, std::__ndk1::char_traits<char>, std::__ndk1::allocator<char> >, std::__ndk1::monostate>::Result(std::__ndk1::function<void (std::__ndk1::monostate)>, std::__ndk1::function<bool ()>)>&&, std::__ndk1::basic_string_view<char, std::__ndk1::char_traits<char> >)::{lambda()#1}::operator()() const::{lambda()#1}>, bool ()>::~__func()
PUBLIC 95878 0 std::__ndk1::__function::__func<geode::Task<std::__ndk1::basic_string<char, std::__ndk1::char_traits<char>, std::__ndk1::allocator<char> >, std::__ndk1::monostate>::run(std::__ndk1::function<geode::Task<std::__ndk1::basic_string<char, std::__ndk1::char_traits<char>, std::__ndk1::allocator<char> >, std::__ndk1::monostate>::Result(std::__ndk1::function<void (std::__ndk1::monostate)>, std::__ndk1::function<bool ()>)>&&, std::__ndk1::basic_string_view<char, std::__ndk1::char_traits<char> >)::{lambda()#1}::operator()() const::{lambda()#1}, std::__ndk1::allocator<geode::Task<std::__ndk1::basic_string<char, std::__ndk1::char_traits<char>, std::__ndk1::allocator<char> >, std::__ndk1::monostate>::run(std::__ndk1::function<geode::Task<std::__ndk1::basic_string<char, std::__ndk1::char_traits<char>, std::__ndk1::allocator<char> >, std::__ndk1::monostate>::Result(std::__ndk1::function<void (std::__ndk1::monostate)>, std::__ndk1::function<bool ()>)>&&, std::__ndk1::basic_string_view<char, std::__ndk1::char_traits<char> >)::{lambda()#1}::operator()() const::{lambda()#1}>, bool ()>::~__func()
PUBLIC 958b4 0 std::__ndk1::__function::__func<geode::Task<std::__ndk1::basic_string<char, std::__ndk1::char_traits<char>, std::__ndk1::allocator<char> >, std::__ndk1::monostate>::run(std::__ndk1::function<geode::Task<std::__ndk1::basic_string<char, std::__ndk1::char_traits<char>, std::__ndk1::allocator<char> >, std::__ndk1::monostate>::Result(std::__ndk1::function<void (std::__ndk1::monostate)>, std::__ndk1::function<bool ()>)>&&, std::__ndk1::basic_string_view<char, std::__ndk1::char_traits<char> >)::{lambda()#1}::operator()() const::{lambda()#1}, std::__ndk1::allocator<geode::Task<std::__ndk1::basic_string<char, std::__ndk1::char_traits<char>, std::__ndk1::allocator<char> >, std::__ndk1::monostate>::run(std::__ndk1::function<geode::Task<std::__ndk1::basic_string<char, std::__ndk1::char_traits<char>, std::__ndk1::allocator<char> >, std::__ndk1::monostate>::Result(std::__ndk1::function<void (std::__ndk1::monostate)>, std::__ndk1::function<bool ()>)>&&, std::__ndk1::basic_string_view<char, std::__ndk1::char_traits<char> >)::{lambda()#1}::operator()() const::{lambda()#1}>, bool ()>::__clone() const
PUBLIC 95904 0 std::__ndk1::__function::__func<geode::Task<std::__ndk1::basic_string<char, std::__ndk1::char_traits<char>, std::__ndk1::allocator<char> >, std::__ndk1::monostate>::run(std::__ndk1::function<geode::Task<std::__ndk1::basic_string<char, std::__ndk1::char_traits<char>, std::__ndk1::allocator<char> >, std::__ndk1::monostate>::Result(std::__ndk1::function<void (std::__ndk1::monostate)>, std::__ndk1::function<bool ()>)>&&, std::__ndk1::basic_string_view<char, std::__ndk1::char_traits<char> >)::{lambda()#1}::operator()() const::{lambda()#1}, std::__ndk1::allocator<geode::Task<std::__ndk1::basic_string<char, std::__ndk1::char_traits<char>, std::__ndk1::allocator<char> >, std::__ndk1::monostate>::run(std::__ndk1::function<geode::Task<std::__ndk1::basic_string<char, std::__ndk1::char_traits<char>, std::__ndk1::allocator<char> >, std::__ndk1::monostate>::Result(std::__ndk1::function<void (std::__ndk1::monostate)>, std::__ndk1::function<bool ()>)>&&, std::__ndk1::basic_string_view<char, std::__ndk1::char_traits<char> >)::{lambda()#1}::operator()() const::{lambda()#1}>, bool ()>::__clone(std::__ndk1::__function::__base<bool ()>*) const
PUBLIC 95938 0 std::__ndk1::__function::__func<geode::Task<std::__ndk1::basic_string<char, std::__ndk1::char_traits<char>, std::__ndk1::allocator<char> >, std::__ndk1::monostate>::run(std::__ndk1::function<geode::Task<std::__ndk1::basic_string<char, std::__ndk1::char_traits<char>, std::__ndk1::allocator<char> >, std::__ndk1::monostate>::Result(std::__ndk1::function<void (std::__ndk1::monostate)>, std::__ndk1::function<bool ()>)>&&, std::__ndk1::basic_string_view<char, std::__ndk1::char_traits<char> >)::{lambda()#1}::operator()() const::{lambda()#1}, std::__ndk1::allocator<geode::Task<std::__ndk1::basic_string<char, std::__ndk1::char_traits<char>, std::__ndk1::allocator<char> >, std::__ndk1::monostate>::run(std::__ndk1::function<geode::Task<std::__ndk1::basic_string<char, std::__ndk1::char_traits<char>, std::__ndk1::allocator<char> >, std::__ndk1::monostate>::Result(std::__ndk1::function<void (std::__ndk1::monostate)>, std::__ndk1::function<bool ()>)>&&, std::__ndk1::basic_string_view<char, std::__ndk1::char_traits<char> >)::{lambda()#1}::operator()() const::{lambda()#1}>, bool ()>::destroy()
PUBLIC 95948 0 std::__ndk1::__function::__func<geode::Task<std::__ndk1::basic_string<char, std::__ndk1::char_traits<char>, std::__ndk1::allocator<char> >, std::__ndk1::monostate>::run(std::__ndk1::function<geode::Task<std::__ndk1::basic_string<char, std::__ndk1::char_traits<char>, std::__ndk1::allocator<char> >, std::__ndk1::monostate>::Result(std::__ndk1::function<void (std::__ndk1::monostate)>, std::__ndk1::function<bool ()>)>&&, std::__ndk1::basic_string_view<char, std::__ndk1::char_traits<char> >)::{lambda()#1}::operator()() const::{lambda()#1}, std::__ndk1::allocator<geode::Task<std::__ndk1::basic_string<char, std::__ndk1::char_traits<char>, std::__ndk1::allocator<char> >, std::__ndk1::monostate>::run(std::__ndk1::function<geode::Task<std::__ndk1::basic_string<char, std::__ndk1::char_traits<char>, std::__ndk1::allocator<char> >, std::__ndk1::monostate>::Result(std::__ndk1::function<void (std::__ndk1::monostate)>, std::__ndk1::function<bool ()>)>&&, std::__ndk1::basic_string_view<char, std::__ndk1::char_traits<char> >)::{lambda()#1}::operator()() const::{lambda()#1}>, bool ()>::destroy_deallocate()
PUBLIC 95978 0 std::__ndk1::__function::__func<geode::Task<std::__ndk1::basic_string<char, std::__ndk1::char_traits<char>, std::__ndk1::allocator<char> >, std::__ndk1::monostate>::run(std::__ndk1::function<geode::Task<std::__ndk1::basic_string<char, std::__ndk1::char_traits<char>, std::__ndk1::allocator<char> >, std::__ndk1::monostate>::Result(std::__ndk1::function<void (std::__ndk1::monostate)>, std::__ndk1::function<bool ()>)>&&, std::__ndk1::basic_string_view<char, std::__ndk1::char_traits<char> >)::{lambda()#1}::operator()() const::{lambda()#1}, std::__ndk1::allocator<geode::Task<std::__ndk1::basic_string<char, std::__ndk1::char_traits<char>, std::__ndk1::allocator<char> >, std::__ndk1::monostate>::run(std::__ndk1::function<geode::Task<std::__ndk1::basic_string<char, std::__ndk1::char_traits<char>, std::__ndk1::allocator<char> >, std::__ndk1::monostate>::Result(std::__ndk1::function<void (std::__ndk1::monostate)>, std::__ndk1::function<bool ()>)>&&, std::__ndk1::basic_string_view<char, std::__ndk1::char_traits<char> >)::{lambda()#1}::operator()() const::{lambda()#1}>, bool ()>::operator()()
PUBLIC 95a74 0 std::__ndk1::__function::__func<geode::Task<std::__ndk1::basic_string<char, std::__ndk1::char_traits<char>, std::__ndk1::allocator<char> >, std::__ndk1::monostate>::run(std::__ndk1::function<geode::Task<std::__ndk1::basic_string<char, std::__ndk1::char_traits<char>, std::__ndk1::allocator<char> >, std::__ndk1::monostate>::Result(std::__ndk1::function<void (std::__ndk1::monostate)>, std::__ndk1::function<bool ()>)>&&, std::__ndk1::basic_string_view<char, std::__ndk1::char_traits<char> >)::{lambda()#1}::operator()() const::{lambda()#1}, std::__ndk1::allocator<geode::Task<std::__ndk1::basic_string<char, std::__ndk1::char_traits<char>, std::__ndk1::allocator<char> >, std::__ndk1::monostate>::run(std::__ndk1::function<geode::Task<std::__ndk1::basic_string<char, std::__ndk1::char_traits<char>, std::__ndk1::allocator<char> >, std::__ndk1::monostate>::Result(std::__ndk1::function<void (std::__ndk1::monostate)>, std::__ndk1::function<bool ()>)>&&, std::__ndk1::basic_string_view<char, std::__ndk1::char_traits<char> >)::{lambda()#1}::operator()() const::{lambda()#1}>, bool ()>::target(std::type_info const&) const
PUBLIC 95a90 0 std::__ndk1::__function::__func<geode::Task<std::__ndk1::basic_string<char, std::__ndk1::char_traits<char>, std::__ndk1::allocator<char> >, std::__ndk1::monostate>::run(std::__ndk1::function<geode::Task<std::__ndk1::basic_string<char, std::__ndk1::char_traits<char>, std::__ndk1::allocator<char> >, std::__ndk1::monostate>::Result(std::__ndk1::function<void (std::__ndk1::monostate)>, std::__ndk1::function<bool ()>)>&&, std::__ndk1::basic_string_view<char, std::__ndk1::char_traits<char> >)::{lambda()#1}::operator()() const::{lambda()#1}, std::__ndk1::allocator<geode::Task<std::__ndk1::basic_string<char, std::__ndk1::char_traits<char>, std::__ndk1::allocator<char> >, std::__ndk1::monostate>::run(std::__ndk1::function<geode::Task<std::__ndk1::basic_string<char, std::__ndk1::char_traits<char>, std::__ndk1::allocator<char> >, std::__ndk1::monostate>::Result(std::__ndk1::function<void (std::__ndk1::monostate)>, std::__ndk1::function<bool ()>)>&&, std::__ndk1::basic_string_view<char, std::__ndk1::char_traits<char> >)::{lambda()#1}::operator()() const::{lambda()#1}>, bool ()>::target_type() const
PUBLIC 95a9c 0 std::__ndk1::__function::__func<geode::Task<std::__ndk1::basic_string<char, std::__ndk1::char_traits<char>, std::__ndk1::allocator<char> >, std::__ndk1::monostate>::cancel(std::__ndk1::shared_ptr<geode::Task<std::__ndk1::basic_string<char, std::__ndk1::char_traits<char>, std::__ndk1::allocator<char> >, std::__ndk1::monostate>::Handle>, bool)::{lambda()#1}, std::__ndk1::allocator<geode::Task<std::__ndk1::basic_string<char, std::__ndk1::char_traits<char>, std::__ndk1::allocator<char> >, std::__ndk1::monostate>::cancel(std::__ndk1::shared_ptr<geode::Task<std::__ndk1::basic_string<char, std::__ndk1::char_traits<char>, std::__ndk1::allocator<char> >, std::__ndk1::monostate>::Handle>, bool)::{lambda()#1}>, void ()>::~__func()
PUBLIC 95af8 0 std::__ndk1::__function::__func<geode::Task<std::__ndk1::basic_string<char, std::__ndk1::char_traits<char>, std::__ndk1::allocator<char> >, std::__ndk1::monostate>::cancel(std::__ndk1::shared_ptr<geode::Task<std::__ndk1::basic_string<char, std::__ndk1::char_traits<char>, std::__ndk1::allocator<char> >, std::__ndk1::monostate>::Handle>, bool)::{lambda()#1}, std::__ndk1::allocator<geode::Task<std::__ndk1::basic_string<char, std::__ndk1::char_traits<char>, std::__ndk1::allocator<char> >, std::__ndk1::monostate>::cancel(std::__ndk1::shared_ptr<geode::Task<std::__ndk1::basic_string<char, std::__ndk1::char_traits<char>, std::__ndk1::allocator<char> >, std::__ndk1::monostate>::Handle>, bool)::{lambda()#1}>, void ()>::~__func()
PUBLIC 95b64 0 std::__ndk1::__function::__func<geode::Task<std::__ndk1::basic_string<char, std::__ndk1::char_traits<char>, std::__ndk1::allocator<char> >, std::__ndk1::monostate>::cancel(std::__ndk1::shared_ptr<geode::Task<std::__ndk1::basic_string<char, std::__ndk1::char_traits<char>, std::__ndk1::allocator<char> >, std::__ndk1::monostate>::Handle>, bool)::{lambda()#1}, std::__ndk1::allocator<geode::Task<std::__ndk1::basic_string<char, std::__ndk1::char_traits<char>, std::__ndk1::allocator<char> >, std::__ndk1::monostate>::cancel(std::__ndk1::shared_ptr<geode::Task<std::__ndk1::basic_string<char, std::__ndk1::char_traits<char>, std::__ndk1::allocator<char> >, std::__ndk1::monostate>::Handle>, bool)::{lambda()#1}>, void ()>::__clone() const
PUBLIC 95bb4 0 std::__ndk1::__function::__func<geode::Task<std::__ndk1::basic_string<char, std::__ndk1::char_traits<char>, std::__ndk1::allocator<char> >, std::__ndk1::monostate>::cancel(std::__ndk1::shared_ptr<geode::Task<std::__ndk1::basic_string<char, std::__ndk1::char_traits<char>, std::__ndk1::allocator<char> >, std::__ndk1::monostate>::Handle>, bool)::{lambda()#1}, std::__ndk1::allocator<geode::Task<std::__ndk1::basic_string<char, std::__ndk1::char_traits<char>, std::__ndk1::allocator<char> >, std::__ndk1::monostate>::cancel(std::__ndk1::shared_ptr<geode::Task<std::__ndk1::basic_string<char, std::__ndk1::char_traits<char>, std::__ndk1::allocator<char> >, std::__ndk1::monostate>::Handle>, bool)::{lambda()#1}>, void ()>::__clone(std::__ndk1::__function::__base<void ()>*) const
PUBLIC 95be8 0 std::__ndk1::__function::__func<geode::Task<std::__ndk1::basic_string<char, std::__ndk1::char_traits<char>, std::__ndk1::allocator<char> >, std::__ndk1::monostate>::cancel(std::__ndk1::shared_ptr<geode::Task<std::__ndk1::basic_string<char, std::__ndk1::char_traits<char>, std::__ndk1::allocator<char> >, std::__ndk1::monostate>::Handle>, bool)::{lambda()#1}, std::__ndk1::allocator<geode::Task<std::__ndk1::basic_string<char, std::__ndk1::char_traits<char>, std::__ndk1::allocator<char> >, std::__ndk1::monostate>::cancel(std::__ndk1::shared_ptr<geode::Task<std::__ndk1::basic_string<char, std::__ndk1::char_traits<char>, std::__ndk1::allocator<char> >, std::__ndk1::monostate>::Handle>, bool)::{lambda()#1}>, void ()>::destroy()
PUBLIC 95c38 0 std::__ndk1::__function::__func<geode::Task<std::__ndk1::basic_string<char, std::__ndk1::char_traits<char>, std::__ndk1::allocator<char> >, std::__ndk1::monostate>::cancel(std::__ndk1::shared_ptr<geode::Task<std::__ndk1::basic_string<char, std::__ndk1::char_traits<char>, std::__ndk1::allocator<char> >, std::__ndk1::monostate>::Handle>, bool)::{lambda()#1}, std::__ndk1::allocator<geode::Task<std::__ndk1::basic_string<char, std::__ndk1::char_traits<char>, std::__ndk1::allocator<char> >, std::__ndk1::monostate>::cancel(std::__ndk1::shared_ptr<geode::Task<std::__ndk1::basic_string<char, std::__ndk1::char_traits<char>, std::__ndk1::allocator<char> >, std::__ndk1::monostate>::Handle>, bool)::{lambda()#1}>, void ()>::destroy_deallocate()
PUBLIC 95c98 0 std::__ndk1::__function::__func<geode::Task<std::__ndk1::basic_string<char, std::__ndk1::char_traits<char>, std::__ndk1::allocator<char> >, std::__ndk1::monostate>::cancel(std::__ndk1::shared_ptr<geode::Task<std::__ndk1::basic_string<char, std::__ndk1::char_traits<char>, std::__ndk1::allocator<char> >, std::__ndk1::monostate>::Handle>, bool)::{lambda()#1}, std::__ndk1::allocator<geode::Task<std::__ndk1::basic_string<char, std::__ndk1::char_traits<char>, std::__ndk1::allocator<char> >, std::__ndk1::monostate>::cancel(std::__ndk1::shared_ptr<geode::Task<std::__ndk1::basic_string<char, std::__ndk1::char_traits<char>, std::__ndk1::allocator<char> >, std::__ndk1::monostate>::Handle>, bool)::{lambda()#1}>, void ()>::operator()()
PUBLIC 95e54 0 std::__ndk1::__function::__func<geode::Task<std::__ndk1::basic_string<char, std::__ndk1::char_traits<char>, std::__ndk1::allocator<char> >, std::__ndk1::monostate>::cancel(std::__ndk1::shared_ptr<geode::Task<std::__ndk1::basic_string<char, std::__ndk1::char_traits<char>, std::__ndk1::allocator<char> >, std::__ndk1::monostate>::Handle>, bool)::{lambda()#1}, std::__ndk1::allocator<geode::Task<std::__ndk1::basic_string<char, std::__ndk1::char_traits<char>, std::__ndk1::allocator<char> >, std::__ndk1::monostate>::cancel(std::__ndk1::shared_ptr<geode::Task<std::__ndk1::basic_string<char, std::__ndk1::char_traits<char>, std::__ndk1::allocator<char> >, std::__ndk1::monostate>::Handle>, bool)::{lambda()#1}>, void ()>::target(std::type_info const&) const
PUBLIC 95e70 0 std::__ndk1::__function::__func<geode::Task<std::__ndk1::basic_string<char, std::__ndk1::char_traits<char>, std::__ndk1::allocator<char> >, std::__ndk1::monostate>::cancel(std::__ndk1::shared_ptr<geode::Task<std::__ndk1::basic_string<char, std::__ndk1::char_traits<char>, std::__ndk1::allocator<char> >, std::__ndk1::monostate>::Handle>, bool)::{lambda()#1}, std::__ndk1::allocator<geode::Task<std::__ndk1::basic_string<char, std::__ndk1::char_traits<char>, std::__ndk1::allocator<char> >, std::__ndk1::monostate>::cancel(std::__ndk1::shared_ptr<geode::Task<std::__ndk1::basic_string<char, std::__ndk1::char_traits<char>, std::__ndk1::allocator<char> >, std::__ndk1::monostate>::Handle>, bool)::{lambda()#1}>, void ()>::target_type() const
PUBLIC 95e7c 0 std::__ndk1::__function::__func<geode::Task<std::__ndk1::basic_string<char, std::__ndk1::char_traits<char>, std::__ndk1::allocator<char> >, std::__ndk1::monostate>::finish(std::__ndk1::shared_ptr<geode::Task<std::__ndk1::basic_string<char, std::__ndk1::char_traits<char>, std::__ndk1::allocator<char> >, std::__ndk1::monostate>::Handle>, std::__ndk1::basic_string<char, std::__ndk1::char_traits<char>, std::__ndk1::allocator<char> >&&)::{lambda()#1}, std::__ndk1::allocator<geode::Task<std::__ndk1::basic_string<char, std::__ndk1::char_traits<char>, std::__ndk1::allocator<char> >, std::__ndk1::monostate>::finish(std::__ndk1::shared_ptr<geode::Task<std::__ndk1::basic_string<char, std::__ndk1::char_traits<char>, std::__ndk1::allocator<char> >, std::__ndk1::monostate>::Handle>, std::__ndk1::basic_string<char, std::__ndk1::char_traits<char>, std::__ndk1::allocator<char> >&&)::{lambda()#1}>, void ()>::~__func()
PUBLIC 95ed8 0 std::__ndk1::__function::__func<geode::Task<std::__ndk1::basic_string<char, std::__ndk1::char_traits<char>, std::__ndk1::allocator<char> >, std::__ndk1::monostate>::finish(std::__ndk1::shared_ptr<geode::Task<std::__ndk1::basic_string<char, std::__ndk1::char_traits<char>, std::__ndk1::allocator<char> >, std::__ndk1::monostate>::Handle>, std::__ndk1::basic_string<char, std::__ndk1::char_traits<char>, std::__ndk1::allocator<char> >&&)::{lambda()#1}, std::__ndk1::allocator<geode::Task<std::__ndk1::basic_string<char, std::__ndk1::char_traits<char>, std::__ndk1::allocator<char> >, std::__ndk1::monostate>::finish(std::__ndk1::shared_ptr<geode::Task<std::__ndk1::basic_string<char, std::__ndk1::char_traits<char>, std::__ndk1::allocator<char> >, std::__ndk1::monostate>::Handle>, std::__ndk1::basic_string<char, std::__ndk1::char_traits<char>, std::__ndk1::allocator<char> >&&)::{lambda()#1}>, void ()>::~__func()
PUBLIC 95f44 0 std::__ndk1::__function::__func<geode::Task<std::__ndk1::basic_string<char, std::__ndk1::char_traits<char>, std::__ndk1::allocator<char> >, std::__ndk1::monostate>::finish(std::__ndk1::shared_ptr<geode::Task<std::__ndk1::basic_string<char, std::__ndk1::char_traits<char>, std::__ndk1::allocator<char> >, std::__ndk1::monostate>::Handle>, std::__ndk1::basic_string<char, std::__ndk1::char_traits<char>, std::__ndk1::allocator<char> >&&)::{lambda()#1}, std::__ndk1::allocator<geode::Task<std::__ndk1::basic_string<char, std::__ndk1::char_traits<char>, std::__ndk1::allocator<char> >, std::__ndk1::monostate>::finish(std::__ndk1::shared_ptr<geode::Task<std::__ndk1::basic_string<char, std::__ndk1::char_traits<char>, std::__ndk1::allocator<char> >, std::__ndk1::monostate>::Handle>, std::__ndk1::basic_string<char, std::__ndk1::char_traits<char>, std::__ndk1::allocator<char> >&&)::{lambda()#1}>, void ()>::__clone() const
PUBLIC 95f9c 0 std::__ndk1::__function::__func<geode::Task<std::__ndk1::basic_string<char, std::__ndk1::char_traits<char>, std::__ndk1::allocator<char> >, std::__ndk1::monostate>::finish(std::__ndk1::shared_ptr<geode::Task<std::__ndk1::basic_string<char, std::__ndk1::char_traits<char>, std::__ndk1::allocator<char> >, std::__ndk1::monostate>::Handle>, std::__ndk1::basic_string<char, std::__ndk1::char_traits<char>, std::__ndk1::allocator<char> >&&)::{lambda()#1}, std::__ndk1::allocator<geode::Task<std::__ndk1::basic_string<char, std::__ndk1::char_traits<char>, std::__ndk1::allocator<char> >, std::__ndk1::monostate>::finish(std::__ndk1::shared_ptr<geode::Task<std::__ndk1::basic_string<char, std::__ndk1::char_traits<char>, std::__ndk1::allocator<char> >, std::__ndk1::monostate>::Handle>, std::__ndk1::basic_string<char, std::__ndk1::char_traits<char>, std::__ndk1::allocator<char> >&&)::{lambda()#1}>, void ()>::__clone(std::__ndk1::__function::__base<void ()>*) const
PUBLIC 95fe8 0 std::__ndk1::__function::__func<geode::Task<std::__ndk1::basic_string<char, std::__ndk1::char_traits<char>, std::__ndk1::allocator<char> >, std::__ndk1::monostate>::finish(std::__ndk1::shared_ptr<geode::Task<std::__ndk1::basic_string<char, std::__ndk1::char_traits<char>, std::__ndk1::allocator<char> >, std::__ndk1::monostate>::Handle>, std::__ndk1::basic_string<char, std::__ndk1::char_traits<char>, std::__ndk1::allocator<char> >&&)::{lambda()#1}, std::__ndk1::allocator<geode::Task<std::__ndk1::basic_string<char, std::__ndk1::char_traits<char>, std::__ndk1::allocator<char> >, std::__ndk1::monostate>::finish(std::__ndk1::shared_ptr<geode::Task<std::__ndk1::basic_string<char, std::__ndk1::char_traits<char>, std::__ndk1::allocator<char> >, std::__ndk1::monostate>::Handle>, std::__ndk1::basic_string<char, std::__ndk1::char_traits<char>, std::__ndk1::allocator<char> >&&)::{lambda()#1}>, void ()>::destroy()
PUBLIC 96038 0 std::__ndk1::__function::__func<geode::Task<std::__ndk1::basic_string<char, std::__ndk1::char_traits<char>, std::__ndk1::allocator<char> >, std::__ndk1::monostate>::finish(std::__ndk1::shared_ptr<geode::Task<std::__ndk1::basic_string<char, std::__ndk1::char_traits<char>, std::__ndk1::allocator<char> >, std::__ndk1::monostate>::Handle>, std::__ndk1::basic_string<char, std::__ndk1::char_traits<char>, std::__ndk1::allocator<char> >&&)::{lambda()#1}, std::__ndk1::allocator<geode::Task<std::__ndk1::basic_string<char, std::__ndk1::char_traits<char>, std::__ndk1::allocator<char> >, std::__ndk1::monostate>::finish(std::__ndk1::shared_ptr<geode::Task<std::__ndk1::basic_string<char, std::__ndk1::char_traits<char>, std::__ndk1::allocator<char> >, std::__ndk1::monostate>::Handle>, std::__ndk1::basic_string<char, std::__ndk1::char_traits<char>, std::__ndk1::allocator<char> >&&)::{lambda()#1}>, void ()>::destroy_deallocate()
PUBLIC 96098 0 std::__ndk1::__function::__func<geode::Task<std::__ndk1::basic_string<char, std::__ndk1::char_traits<char>, std::__ndk1::allocator<char> >, std::__ndk1::monostate>::finish(std::__ndk1::shared_ptr<geode::Task<std::__ndk1::basic_string<char, std::__ndk1::char_traits<char>, std::__ndk1::allocator<char> >, std::__ndk1::monostate>::Handle>, std::__ndk1::basic_string<char, std::__ndk1::char_traits<char>, std::__ndk1::allocator<char> >&&)::{lambda()#1}, std::__ndk1::allocator<geode::Task<std::__ndk1::basic_string<char, std::__ndk1::char_traits<char>, std::__ndk1::allocator<char> >, std::__ndk1::monostate>::finish(std::__ndk1::shared_ptr<geode::Task<std::__ndk1::basic_string<char, std::__ndk1::char_traits<char>, std::__ndk1::allocator<char> >, std::__ndk1::monostate>::Handle>, std::__ndk1::basic_string<char, std::__ndk1::char_traits<char>, std::__ndk1::allocator<char> >&&)::{lambda()#1}>, void ()>::operator()()
PUBLIC 96264 0 std::__ndk1::__function::__func<geode::Task<std::__ndk1::basic_string<char, std::__ndk1::char_traits<char>, std::__ndk1::allocator<char> >, std::__ndk1::monostate>::finish(std::__ndk1::shared_ptr<geode::Task<std::__ndk1::basic_string<char, std::__ndk1::char_traits<char>, std::__ndk1::allocator<char> >, std::__ndk1::monostate>::Handle>, std::__ndk1::basic_string<char, std::__ndk1::char_traits<char>, std::__ndk1::allocator<char> >&&)::{lambda()#1}, std::__ndk1::allocator<geode::Task<std::__ndk1::basic_string<char, std::__ndk1::char_traits<char>, std::__ndk1::allocator<char> >, std::__ndk1::monostate>::finish(std::__ndk1::shared_ptr<geode::Task<std::__ndk1::basic_string<char, std::__ndk1::char_traits<char>, std::__ndk1::allocator<char> >, std::__ndk1::monostate>::Handle>, std::__ndk1::basic_string<char, std::__ndk1::char_traits<char>, std::__ndk1::allocator<char> >&&)::{lambda()#1}>, void ()>::target(std::type_info const&) const
PUBLIC 96280 0 std::__ndk1::__function::__func<geode::Task<std::__ndk1::basic_string<char, std::__ndk1::char_traits<char>, std::__ndk1::allocator<char> >, std::__ndk1::monostate>::finish(std::__ndk1::shared_ptr<geode::Task<std::__ndk1::basic_string<char, std::__ndk1::char_traits<char>, std::__ndk1::allocator<char> >, std::__ndk1::monostate>::Handle>, std::__ndk1::basic_string<char, std::__ndk1::char_traits<char>, std::__ndk1::allocator<char> >&&)::{lambda()#1}, std::__ndk1::allocator<geode::Task<std::__ndk1::basic_string<char, std::__ndk1::char_traits<char>, std::__ndk1::allocator<char> >, std::__ndk1::monostate>::finish(std::__ndk1::shared_ptr<geode::Task<std::__ndk1::basic_string<char, std::__ndk1::char_traits<char>, std::__ndk1::allocator<char> >, std::__ndk1::monostate>::Handle>, std::__ndk1::basic_string<char, std::__ndk1::char_traits<char>, std::__ndk1::allocator<char> >&&)::{lambda()#1}>, void ()>::target_type() const
PUBLIC 9628c 0 std::__ndk1::__variant_detail::__visitation::__base::__dispatcher<(unsigned long)0>::__dispatch[abi:ne180000]<std::__ndk1::__variant_detail::__dtor<std::__ndk1::__variant_detail::__traits<std::__ndk1::basic_string<char, std::__ndk1::char_traits<char>, std::__ndk1::allocator<char> >, geode::Task<std::__ndk1::allocator<char>, std::__ndk1::monostate>::Cancel>, (std::__ndk1::__variant_detail::_Trait)1>::__destroy[abi:ne180000]()::{lambda(auto:1&)#1}, std::__ndk1::__variant_detail::__base<(std::__ndk1::__variant_detail::__traits<std::__ndk1::basic_string<char, std::__ndk1::char_traits<char>, std::__ndk1::allocator<char> >, geode::Task<std::__ndk1::allocator<char>, std::__ndk1::monostate>::Cancel>)1, std::__ndk1::allocator<char>, geode::Task<std::__ndk1::allocator<char>, std::__ndk1::monostate> >&>(std::__ndk1::__variant_detail::__dtor<std::__ndk1::__variant_detail::__traits<std::__ndk1::basic_string<char, std::__ndk1::char_traits<char>, std::__ndk1::allocator<char> >, geode::Task<std::__ndk1::allocator<char>, std::__ndk1::monostate>::Cancel>, (std::__ndk1::__variant_detail::_Trait)1>, std::__ndk1::__variant_detail::__base<(std::__ndk1::__variant_detail::__traits<std::__ndk1::basic_string<char, std::__ndk1::char_traits<char>, std::__ndk1::allocator<char> >, geode::Task<std::__ndk1::allocator<char>, std::__ndk1::monostate>::Cancel>)1, std::__ndk1::allocator<char>, geode::Task<std::__ndk1::allocator<char>, std::__ndk1::monostate> >&)
PUBLIC 962a0 0 std::__ndk1::__variant_detail::__visitation::__base::__dispatcher<(unsigned long)1>::__dispatch[abi:ne180000]<std::__ndk1::__variant_detail::__dtor<std::__ndk1::__variant_detail::__traits<std::__ndk1::basic_string<char, std::__ndk1::char_traits<char>, std::__ndk1::allocator<char> >, geode::Task<std::__ndk1::allocator<char>, std::__ndk1::monostate>::Cancel>, (std::__ndk1::__variant_detail::_Trait)1>::__destroy[abi:ne180000]()::{lambda(auto:1&)#1}, std::__ndk1::__variant_detail::__base<(std::__ndk1::__variant_detail::__traits<std::__ndk1::basic_string<char, std::__ndk1::char_traits<char>, std::__ndk1::allocator<char> >, geode::Task<std::__ndk1::allocator<char>, std::__ndk1::monostate>::Cancel>)1, std::__ndk1::allocator<char>, geode::Task<std::__ndk1::allocator<char>, std::__ndk1::monostate> >&>(std::__ndk1::__variant_detail::__dtor<std::__ndk1::__variant_detail::__traits<std::__ndk1::basic_string<char, std::__ndk1::char_traits<char>, std::__ndk1::allocator<char> >, geode::Task<std::__ndk1::allocator<char>, std::__ndk1::monostate>::Cancel>, (std::__ndk1::__variant_detail::_Trait)1>, std::__ndk1::__variant_detail::__base<(std::__ndk1::__variant_detail::__traits<std::__ndk1::basic_string<char, std::__ndk1::char_traits<char>, std::__ndk1::allocator<char> >, geode::Task<std::__ndk1::allocator<char>, std::__ndk1::monostate>::Cancel>)1, std::__ndk1::allocator<char>, geode::Task<std::__ndk1::allocator<char>, std::__ndk1::monostate> >&)
PUBLIC 962a4 0 std::__ndk1::unique_ptr<std::__ndk1::tuple<std::__ndk1::unique_ptr<std::__ndk1::__thread_struct, std::__ndk1::default_delete<std::__ndk1::__thread_struct> >, geode::Task<std::__ndk1::basic_string<char, std::__ndk1::char_traits<char>, std::__ndk1::allocator<char> >, std::__ndk1::monostate>::run(std::__ndk1::function<geode::Task<std::__ndk1::basic_string<char, std::__ndk1::char_traits<char>, std::__ndk1::allocator<char> >, std::__ndk1::monostate>::Result(std::__ndk1::function<void (std::__ndk1::monostate)>, std::__ndk1::function<bool ()>)>&&, std::__ndk1::basic_string_view<char, std::__ndk1::char_traits<char> >)::{lambda()#1}>, std::__ndk1::default_delete<std::__ndk1::tuple<std::__ndk1::unique_ptr<std::__ndk1::__thread_struct, std::__ndk1::default_delete<std::__ndk1::__thread_struct> >, geode::Task<std::__ndk1::basic_string<char, std::__ndk1::char_traits<char>, std::__ndk1::allocator<char> >, std::__ndk1::monostate>::run(std::__ndk1::function<geode::Task<std::__ndk1::basic_string<char, std::__ndk1::char_traits<char>, std::__ndk1::allocator<char> >, std::__ndk1::monostate>::Result(std::__ndk1::function<void (std::__ndk1::monostate)>, std::__ndk1::function<bool ()>)>&&, std::__ndk1::basic_string_view<char, std::__ndk1::char_traits<char> >)::{lambda()#1}> > >::reset[abi:ne180000](std::__ndk1::tuple<std::__ndk1::unique_ptr<std::__ndk1::__thread_struct, std::__ndk1::default_delete<std::__ndk1::__thread_struct> >, geode::Task<std::__ndk1::basic_string<char, std::__ndk1::char_traits<char>, std::__ndk1::allocator<char> >, std::__ndk1::monostate>::run(std::__ndk1::function<geode::Task<std::__ndk1::basic_string<char, std::__ndk1::char_traits<char>, std::__ndk1::allocator<char> >, std::__ndk1::monostate>::Result(std::__ndk1::function<void (std::__ndk1::monostate)>, std::__ndk1::function<bool ()>)>&&, std::__ndk1::basic_string_view<char, std::__ndk1::char_traits<char> >)::{lambda()#1}>*)
PUBLIC 96340 0 std::__ndk1::__function::__func<jukebox::NongManager::getMultiAssetSizes(std::__ndk1::basic_string<char, std::__ndk1::char_traits<char>, std::__ndk1::allocator<char> >, std::__ndk1::basic_string<char, std::__ndk1::char_traits<char>, std::__ndk1::allocator<char> >)::$_0, std::__ndk1::allocator<jukebox::NongManager::getMultiAssetSizes(std::__ndk1::basic_string<char, std::__ndk1::char_traits<char>, std::__ndk1::allocator<char> >, std::__ndk1::basic_string<char, std::__ndk1::char_traits<char>, std::__ndk1::allocator<char> >)::$_0>, geode::Task<std::__ndk1::basic_string<char, std::__ndk1::char_traits<char>, std::__ndk1::allocator<char> >, std::__ndk1::monostate>::Result(std::__ndk1::function<void (std::__ndk1::monostate)>, std::__ndk1::function<bool ()>)>::~__func()
PUBLIC 963c8 0 std::__ndk1::__function::__func<jukebox::NongManager::getMultiAssetSizes(std::__ndk1::basic_string<char, std::__ndk1::char_traits<char>, std::__ndk1::allocator<char> >, std::__ndk1::basic_string<char, std::__ndk1::char_traits<char>, std::__ndk1::allocator<char> >)::$_0, std::__ndk1::allocator<jukebox::NongManager::getMultiAssetSizes(std::__ndk1::basic_string<char, std::__ndk1::char_traits<char>, std::__ndk1::allocator<char> >, std::__ndk1::basic_string<char, std::__ndk1::char_traits<char>, std::__ndk1::allocator<char> >)::$_0>, geode::Task<std::__ndk1::basic_string<char, std::__ndk1::char_traits<char>, std::__ndk1::allocator<char> >, std::__ndk1::monostate>::Result(std::__ndk1::function<void (std::__ndk1::monostate)>, std::__ndk1::function<bool ()>)>::~__func()
PUBLIC 9645c 0 std::__ndk1::__function::__func<jukebox::NongManager::getMultiAssetSizes(std::__ndk1::basic_string<char, std::__ndk1::char_traits<char>, std::__ndk1::allocator<char> >, std::__ndk1::basic_string<char, std::__ndk1::char_traits<char>, std::__ndk1::allocator<char> >)::$_0, std::__ndk1::allocator<jukebox::NongManager::getMultiAssetSizes(std::__ndk1::basic_string<char, std::__ndk1::char_traits<char>, std::__ndk1::allocator<char> >, std::__ndk1::basic_string<char, std::__ndk1::char_traits<char>, std::__ndk1::allocator<char> >)::$_0>, geode::Task<std::__ndk1::basic_string<char, std::__ndk1::char_traits<char>, std::__ndk1::allocator<char> >, std::__ndk1::monostate>::Result(std::__ndk1::function<void (std::__ndk1::monostate)>, std::__ndk1::function<bool ()>)>::__clone() const
PUBLIC 964b0 0 std::__ndk1::__function::__func<jukebox::NongManager::getMultiAssetSizes(std::__ndk1::basic_string<char, std::__ndk1::char_traits<char>, std::__ndk1::allocator<char> >, std::__ndk1::basic_string<char, std::__ndk1::char_traits<char>, std::__ndk1::allocator<char> >)::$_0, std::__ndk1::allocator<jukebox::NongManager::getMultiAssetSizes(std::__ndk1::basic_string<char, std::__ndk1::char_traits<char>, std::__ndk1::allocator<char> >, std::__ndk1::basic_string<char, std::__ndk1::char_traits<char>, std::__ndk1::allocator<char> >)::$_0>, geode::Task<std::__ndk1::basic_string<char, std::__ndk1::char_traits<char>, std::__ndk1::allocator<char> >, std::__ndk1::monostate>::Result(std::__ndk1::function<void (std::__ndk1::monostate)>, std::__ndk1::function<bool ()>)>::__clone(std::__ndk1::__function::__base<geode::Task<std::__ndk1::basic_string<char, std::__ndk1::char_traits<char>, std::__ndk1::allocator<char> >, std::__ndk1::monostate>::Result(std::__ndk1::function<void (std::__ndk1::monostate)>, std::__ndk1::function<bool ()>)>*) const
PUBLIC 964cc 0 std::__ndk1::__function::__func<jukebox::NongManager::getMultiAssetSizes(std::__ndk1::basic_string<char, std::__ndk1::char_traits<char>, std::__ndk1::allocator<char> >, std::__ndk1::basic_string<char, std::__ndk1::char_traits<char>, std::__ndk1::allocator<char> >)::$_0, std::__ndk1::allocator<jukebox::NongManager::getMultiAssetSizes(std::__ndk1::basic_string<char, std::__ndk1::char_traits<char>, std::__ndk1::allocator<char> >, std::__ndk1::basic_string<char, std::__ndk1::char_traits<char>, std::__ndk1::allocator<char> >)::$_0>, geode::Task<std::__ndk1::basic_string<char, std::__ndk1::char_traits<char>, std::__ndk1::allocator<char> >, std::__ndk1::monostate>::Result(std::__ndk1::function<void (std::__ndk1::monostate)>, std::__ndk1::function<bool ()>)>::destroy()
PUBLIC 96548 0 std::__ndk1::__function::__func<jukebox::NongManager::getMultiAssetSizes(std::__ndk1::basic_string<char, std::__ndk1::char_traits<char>, std::__ndk1::allocator<char> >, std::__ndk1::basic_string<char, std::__ndk1::char_traits<char>, std::__ndk1::allocator<char> >)::$_0, std::__ndk1::allocator<jukebox::NongManager::getMultiAssetSizes(std::__ndk1::basic_string<char, std::__ndk1::char_traits<char>, std::__ndk1::allocator<char> >, std::__ndk1::basic_string<char, std::__ndk1::char_traits<char>, std::__ndk1::allocator<char> >)::$_0>, geode::Task<std::__ndk1::basic_string<char, std::__ndk1::char_traits<char>, std::__ndk1::allocator<char> >, std::__ndk1::monostate>::Result(std::__ndk1::function<void (std::__ndk1::monostate)>, std::__ndk1::function<bool ()>)>::destroy_deallocate()
PUBLIC 965d0 0 std::__ndk1::__function::__func<jukebox::NongManager::getMultiAssetSizes(std::__ndk1::basic_string<char, std::__ndk1::char_traits<char>, std::__ndk1::allocator<char> >, std::__ndk1::basic_string<char, std::__ndk1::char_traits<char>, std::__ndk1::allocator<char> >)::$_0, std::__ndk1::allocator<jukebox::NongManager::getMultiAssetSizes(std::__ndk1::basic_string<char, std::__ndk1::char_traits<char>, std::__ndk1::allocator<char> >, std::__ndk1::basic_string<char, std::__ndk1::char_traits<char>, std::__ndk1::allocator<char> >)::$_0>, geode::Task<std::__ndk1::basic_string<char, std::__ndk1::char_traits<char>, std::__ndk1::allocator<char> >, std::__ndk1::monostate>::Result(std::__ndk1::function<void (std::__ndk1::monostate)>, std::__ndk1::function<bool ()>)>::operator()(std::__ndk1::function<void (std::__ndk1::monostate)>&&, std::__ndk1::function<bool ()>&&)
PUBLIC 97258 0 std::__ndk1::__function::__func<jukebox::NongManager::getMultiAssetSizes(std::__ndk1::basic_string<char, std::__ndk1::char_traits<char>, std::__ndk1::allocator<char> >, std::__ndk1::basic_string<char, std::__ndk1::char_traits<char>, std::__ndk1::allocator<char> >)::$_0, std::__ndk1::allocator<jukebox::NongManager::getMultiAssetSizes(std::__ndk1::basic_string<char, std::__ndk1::char_traits<char>, std::__ndk1::allocator<char> >, std::__ndk1::basic_string<char, std::__ndk1::char_traits<char>, std::__ndk1::allocator<char> >)::$_0>, geode::Task<std::__ndk1::basic_string<char, std::__ndk1::char_traits<char>, std::__ndk1::allocator<char> >, std::__ndk1::monostate>::Result(std::__ndk1::function<void (std::__ndk1::monostate)>, std::__ndk1::function<bool ()>)>::target(std::type_info const&) const
PUBLIC 97274 0 std::__ndk1::__function::__func<jukebox::NongManager::getMultiAssetSizes(std::__ndk1::basic_string<char, std::__ndk1::char_traits<char>, std::__ndk1::allocator<char> >, std::__ndk1::basic_string<char, std::__ndk1::char_traits<char>, std::__ndk1::allocator<char> >)::$_0, std::__ndk1::allocator<jukebox::NongManager::getMultiAssetSizes(std::__ndk1::basic_string<char, std::__ndk1::char_traits<char>, std::__ndk1::allocator<char> >, std::__ndk1::basic_string<char, std::__ndk1::char_traits<char>, std::__ndk1::allocator<char> >)::$_0>, geode::Task<std::__ndk1::basic_string<char, std::__ndk1::char_traits<char>, std::__ndk1::allocator<char> >, std::__ndk1::monostate>::Result(std::__ndk1::function<void (std::__ndk1::monostate)>, std::__ndk1::function<bool ()>)>::target_type() const
PUBLIC 97280 0 std::__ndk1::__compressed_pair_elem<jukebox::NongManager::getMultiAssetSizes(std::__ndk1::basic_string<char, std::__ndk1::char_traits<char>, std::__ndk1::allocator<char> >, std::__ndk1::basic_string<char, std::__ndk1::char_traits<char>, std::__ndk1::allocator<char> >)::$_0, 0, false>::__compressed_pair_elem[abi:ne180000]<jukebox::NongManager::getMultiAssetSizes(std::__ndk1::basic_string<char, std::__ndk1::char_traits<char>, std::__ndk1::allocator<char> >, std::__ndk1::basic_string<char, std::__ndk1::char_traits<char>, std::__ndk1::allocator<char> >)::$_0 const&, (unsigned long)0>(std::__ndk1::tuple<jukebox::NongManager::getMultiAssetSizes(std::__ndk1::basic_string<char, std::__ndk1::char_traits<char>, std::__ndk1::allocator<char> >, std::__ndk1::basic_string<char, std::__ndk1::char_traits<char>, std::__ndk1::allocator<char> >)::$_0 const&>, std::__ndk1::__tuple_indices<((unsigned long)0)...>)
PUBLIC 973f4 0 std::__ndk1::basic_istringstream<char, std::__ndk1::char_traits<char>, std::__ndk1::allocator<char> >::basic_istringstream[abi:ne180000](std::__ndk1::basic_string<char, std::__ndk1::char_traits<char>, std::__ndk1::allocator<char> > const&, unsigned int)
PUBLIC 97548 0 std::__ndk1::getline[abi:ne180000]<char, std::__ndk1::char_traits<char>, std::__ndk1::allocator<char> >(std::__ndk1::basic_istream<char, std::__ndk1::char_traits<char> >, std::__ndk1::basic_string<std::__ndk1::basic_istream, char, std::__ndk1::allocator<char> >&, std::__ndk1::basic_istream)
PUBLIC 976f8 0 std::__ndk1::basic_istringstream<char, std::__ndk1::char_traits<char>, std::__ndk1::allocator<char> >::~basic_istringstream()
PUBLIC 97774 0 std::__ndk1::__function::__value_func<geode::ListenerResult(jukebox::event::SongError*)>::swap[abi:ne180000](std::__ndk1::__function::__value_func<geode::ListenerResult(jukebox::event::SongError*)>&)
PUBLIC 9790c 0 std::__ndk1::__function::__base<geode::ListenerResult(jukebox::event::SongError*)>::~__base()
PUBLIC 97910 0 std::__ndk1::__function::__func<jukebox::NongManager::init()::$_0, std::__ndk1::allocator<jukebox::NongManager::init()::$_0>, geode::ListenerResult(jukebox::event::SongError*)>::~__func()
PUBLIC 97914 0 std::__ndk1::__function::__func<jukebox::NongManager::init()::$_0, std::__ndk1::allocator<jukebox::NongManager::init()::$_0>, geode::ListenerResult(jukebox::event::SongError*)>::__clone() const
PUBLIC 97948 0 std::__ndk1::__function::__func<jukebox::NongManager::init()::$_0, std::__ndk1::allocator<jukebox::NongManager::init()::$_0>, geode::ListenerResult(jukebox::event::SongError*)>::__clone(std::__ndk1::__function::__base<geode::ListenerResult(jukebox::event::SongError*)>*) const
PUBLIC 9795c 0 std::__ndk1::__function::__func<jukebox::NongManager::init()::$_0, std::__ndk1::allocator<jukebox::NongManager::init()::$_0>, geode::ListenerResult(jukebox::event::SongError*)>::destroy()
PUBLIC 97960 0 std::__ndk1::__function::__func<jukebox::NongManager::init()::$_0, std::__ndk1::allocator<jukebox::NongManager::init()::$_0>, geode::ListenerResult(jukebox::event::SongError*)>::destroy_deallocate()
PUBLIC 97964 0 std::__ndk1::__function::__func<jukebox::NongManager::init()::$_0, std::__ndk1::allocator<jukebox::NongManager::init()::$_0>, geode::ListenerResult(jukebox::event::SongError*)>::operator()(jukebox::event::SongError*&&)
PUBLIC 97a7c 0 std::__ndk1::__function::__func<jukebox::NongManager::init()::$_0, std::__ndk1::allocator<jukebox::NongManager::init()::$_0>, geode::ListenerResult(jukebox::event::SongError*)>::target(std::type_info const&) const
PUBLIC 97a98 0 std::__ndk1::__function::__func<jukebox::NongManager::init()::$_0, std::__ndk1::allocator<jukebox::NongManager::init()::$_0>, geode::ListenerResult(jukebox::event::SongError*)>::target_type() const
PUBLIC 97aa4 0 std::__ndk1::__function::__value_func<geode::ListenerResult(jukebox::event::GetSongInfo*)>::swap[abi:ne180000](std::__ndk1::__function::__value_func<geode::ListenerResult(jukebox::event::GetSongInfo*)>&)
PUBLIC 97c3c 0 std::__ndk1::__function::__base<geode::ListenerResult(jukebox::event::GetSongInfo*)>::~__base()
PUBLIC 97c40 0 std::__ndk1::__function::__func<jukebox::NongManager::init()::$_1, std::__ndk1::allocator<jukebox::NongManager::init()::$_1>, geode::ListenerResult(jukebox::event::GetSongInfo*)>::~__func()
PUBLIC 97c44 0 std::__ndk1::__function::__func<jukebox::NongManager::init()::$_1, std::__ndk1::allocator<jukebox::NongManager::init()::$_1>, geode::ListenerResult(jukebox::event::GetSongInfo*)>::__clone() const
PUBLIC 97c78 0 std::__ndk1::__function::__func<jukebox::NongManager::init()::$_1, std::__ndk1::allocator<jukebox::NongManager::init()::$_1>, geode::ListenerResult(jukebox::event::GetSongInfo*)>::__clone(std::__ndk1::__function::__base<geode::ListenerResult(jukebox::event::GetSongInfo*)>*) const
PUBLIC 97c8c 0 std::__ndk1::__function::__func<jukebox::NongManager::init()::$_1, std::__ndk1::allocator<jukebox::NongManager::init()::$_1>, geode::ListenerResult(jukebox::event::GetSongInfo*)>::destroy()
PUBLIC 97c90 0 std::__ndk1::__function::__func<jukebox::NongManager::init()::$_1, std::__ndk1::allocator<jukebox::NongManager::init()::$_1>, geode::ListenerResult(jukebox::event::GetSongInfo*)>::destroy_deallocate()
PUBLIC 97c94 0 std::__ndk1::__function::__func<jukebox::NongManager::init()::$_1, std::__ndk1::allocator<jukebox::NongManager::init()::$_1>, geode::ListenerResult(jukebox::event::GetSongInfo*)>::operator()(jukebox::event::GetSongInfo*&&)
PUBLIC 98018 0 std::__ndk1::__function::__func<jukebox::NongManager::init()::$_1, std::__ndk1::allocator<jukebox::NongManager::init()::$_1>, geode::ListenerResult(jukebox::event::GetSongInfo*)>::target(std::type_info const&) const
PUBLIC 98034 0 std::__ndk1::__function::__func<jukebox::NongManager::init()::$_1, std::__ndk1::allocator<jukebox::NongManager::init()::$_1>, geode::ListenerResult(jukebox::event::GetSongInfo*)>::target_type() const
PUBLIC 98040 0 jukebox::LocalSong::LocalSong(jukebox::SongMetadata&&, std::__ndk1::__fs::filesystem::path const&)
PUBLIC m 9813c 0 jukebox::LocalSong::LocalSong(jukebox::LocalSong const&)
PUBLIC m 9823c 0 jukebox::LocalSong::~LocalSong()
PUBLIC 98294 0 jukebox::LocalSong::~LocalSong()
PUBLIC 982ec 0 jukebox::LocalSong::metadata() const
PUBLIC 982f8 0 jukebox::LocalSong::path() const
PUBLIC 98384 0 jukebox::LocalSong::setPath(std::__ndk1::__fs::filesystem::path)
PUBLIC 983dc 0 jukebox::LocalSong::createUnknown(int)
PUBLIC 986ac 0 std::__ndk1::make_unique[abi:ne180000]<jukebox::YTSong::Impl, std::__ndk1::make_unique[abi:ne180000]::SongMetadata, std::__ndk1::basic_string<char, std::__ndk1::char_traits<char>, std::__ndk1::allocator<char> >&, std::__ndk1::optional<std::__ndk1::allocator<char> >&, std::__ndk1::basic_string<char, std::__ndk1::char_traits<char>, std::__ndk1::allocator<char> ><std::__ndk1::__fs::filesystem::path>&>(std::__ndk1::make_unique[abi:ne180000]::SongMetadata&&, std::__ndk1::basic_string<char, std::__ndk1::char_traits<char>, std::__ndk1::allocator<char> >&, std::__ndk1::optional<std::__ndk1::allocator<char> >&, std::__ndk1::basic_string<char, std::__ndk1::char_traits<char>, std::__ndk1::allocator<char> ><std::__ndk1::__fs::filesystem::path>&)
PUBLIC m 98a34 0 jukebox::YTSong::~YTSong()
PUBLIC 98a48 0 jukebox::YTSong::~YTSong()
PUBLIC 98a80 0 jukebox::YTSong::metadata() const
PUBLIC 98a8c 0 jukebox::YTSong::indexID() const
PUBLIC 98b10 0 jukebox::YTSong::setIndexID(std::__ndk1::basic_string<char, std::__ndk1::char_traits<char>, std::__ndk1::allocator<char> > const&)
PUBLIC 98bd0 0 jukebox::YTSong::path() const
PUBLIC 98c54 0 jukebox::YTSong::setPath(std::__ndk1::__fs::filesystem::path)
PUBLIC 98d14 0 std::__ndk1::make_unique[abi:ne180000]<jukebox::HostedSong::Impl, std::__ndk1::make_unique[abi:ne180000]::SongMetadata, std::__ndk1::basic_string<char, std::__ndk1::char_traits<char>, std::__ndk1::allocator<char> >&, std::__ndk1::optional<std::__ndk1::allocator<char> >&, std::__ndk1::basic_string<char, std::__ndk1::char_traits<char>, std::__ndk1::allocator<char> ><std::__ndk1::__fs::filesystem::path>&>(std::__ndk1::make_unique[abi:ne180000]::SongMetadata&&, std::__ndk1::basic_string<char, std::__ndk1::char_traits<char>, std::__ndk1::allocator<char> >&, std::__ndk1::optional<std::__ndk1::allocator<char> >&, std::__ndk1::basic_string<char, std::__ndk1::char_traits<char>, std::__ndk1::allocator<char> ><std::__ndk1::__fs::filesystem::path>&)
PUBLIC 9909c 0 jukebox::HostedSong::metadata() const
PUBLIC 990a8 0 jukebox::HostedSong::indexID() const
PUBLIC 9912c 0 jukebox::HostedSong::setIndexID(std::__ndk1::basic_string<char, std::__ndk1::char_traits<char>, std::__ndk1::allocator<char> > const&)
PUBLIC 991ec 0 jukebox::HostedSong::path() const
PUBLIC 99270 0 jukebox::HostedSong::setPath(std::__ndk1::__fs::filesystem::path)
PUBLIC 99330 0 jukebox::HostedSong::Impl::startDownload()
PUBLIC m 99434 0 jukebox::HostedSong::~HostedSong()
PUBLIC 99448 0 jukebox::HostedSong::~HostedSong()
PUBLIC 99480 0 jukebox::Nongs::Impl::findSong(std::__ndk1::basic_string<char, std::__ndk1::char_traits<char>, std::__ndk1::allocator<char> > const&) const
PUBLIC 99738 0 jukebox::Nongs::Impl::commit(jukebox::Nongs*)
PUBLIC 9accc 0 jukebox::Nongs::Impl::replaceSong(std::__ndk1::basic_string<char, std::__ndk1::char_traits<char>, std::__ndk1::allocator<char> > const&, jukebox::LocalSong&&, jukebox::Nongs*)
PUBLIC 9b1ac 0 jukebox::Nongs::Impl::replaceSong(std::__ndk1::basic_string<char, std::__ndk1::char_traits<char>, std::__ndk1::allocator<char> > const&, jukebox::HostedSong&&, jukebox::Nongs*)
PUBLIC 9b738 0 jukebox::Nongs::Impl::registerIndexSong(jukebox::index::IndexSongMetadata*)
PUBLIC 9bc80 0 jukebox::Nongs::Impl::setActive(std::__ndk1::basic_string<char, std::__ndk1::char_traits<char>, std::__ndk1::allocator<char> > const&, jukebox::Nongs*)
PUBLIC 9c590 0 jukebox::Nongs::Impl::deleteAllSongs()
PUBLIC 9c944 0 jukebox::Nongs::Impl::deleteSong(std::__ndk1::basic_string<char, std::__ndk1::char_traits<char>, std::__ndk1::allocator<char> > const&, bool, jukebox::Nongs*)
PUBLIC 9d458 0 jukebox::Nongs::Impl::deleteSongAudio(std::__ndk1::basic_string<char, std::__ndk1::char_traits<char>, std::__ndk1::allocator<char> > const&)
PUBLIC 9d9a8 0 jukebox::Nongs::Impl::add(jukebox::LocalSong&&)
PUBLIC 9df34 0 jukebox::Nongs::Impl::add(jukebox::HostedSong&&)
PUBLIC 9e31c 0 jukebox::Nongs::~Nongs()
PUBLIC 9e358 0 jukebox::LocalSong::type() const
PUBLIC 9e360 0 jukebox::LocalSong::indexID() const
PUBLIC 9e36c 0 jukebox::LocalSong::setIndexID(std::__ndk1::basic_string<char, std::__ndk1::char_traits<char>, std::__ndk1::allocator<char> > const&)
PUBLIC 9e370 0 jukebox::YTSong::type() const
PUBLIC 9e378 0 jukebox::HostedSong::type() const
PUBLIC 9e380 0 matjson::Serialize<jukebox::LocalSong>::toJson(jukebox::LocalSong const&)
PUBLIC 9e75c 0 _ZNSt6__ndk14pairINS_12basic_stringIcNS_11char_traitsIcEENS_9allocatorIcEEEEN7matjson5ValueEEC2B8ne180000IRA5_KcRS6_TnNS_9enable_ifIXclsr10_CheckArgsE17__enable_implicitIT_T0_EEEiE4typeELi0EEEOSG_OSH_
PUBLIC 9e86c 0 _ZNSt6__ndk14pairINS_12basic_stringIcNS_11char_traitsIcEENS_9allocatorIcEEEEN7matjson5ValueEEC2B8ne180000IRA10_KcRS6_TnNS_9enable_ifIXclsr10_CheckArgsE17__enable_implicitIT_T0_EEEiE4typeELi0EEEOSG_OSH_
PUBLIC 9e984 0 _ZNSt6__ndk14pairINS_12basic_stringIcNS_11char_traitsIcEENS_9allocatorIcEEEEN7matjson5ValueEEC2B8ne180000IRA7_KcRS6_TnNS_9enable_ifIXclsr10_CheckArgsE17__enable_implicitIT_T0_EEEiE4typeELi0EEEOSG_OSH_
PUBLIC 9ea9c 0 _ZNSt6__ndk14pairINS_12basic_stringIcNS_11char_traitsIcEENS_9allocatorIcEEEEN7matjson5ValueEEC2B8ne180000IRA5_KcNS_4__fs10filesystem4pathETnNS_9enable_ifIXclsr10_CheckArgsE17__enable_implicitIT_T0_EEEiE4typeELi0EEEOSI_OSJ_
PUBLIC 9ebc0 0 jukebox::Nongs::Impl::canSetActive(std::__ndk1::basic_string<char, std::__ndk1::char_traits<char>, std::__ndk1::allocator<char> > const&, std::__ndk1::__fs::filesystem::path)
PUBLIC 9ed28 0 jukebox::Nongs::Impl::deletePath(std::__ndk1::optional<std::__ndk1::__fs::filesystem::path>)
PUBLIC 9eeac 0 jukebox::SongMetadata::SongMetadata(jukebox::SongMetadata const&)
PUBLIC 9f04c 0 std::__ndk1::default_delete<jukebox::SongMetadata>::operator()[abi:ne180000](jukebox::SongMetadata*) const
PUBLIC 9f0dc 0 std::__ndk1::default_delete<jukebox::YTSong::Impl>::operator()[abi:ne180000](jukebox::YTSong::Impl*) const
PUBLIC 9f158 0 jukebox::YTSong::Impl::Impl(jukebox::YTSong::Impl const&)
PUBLIC 9f2e8 0 std::__ndk1::default_delete<jukebox::HostedSong::Impl>::operator()[abi:ne180000](jukebox::HostedSong::Impl*) const
PUBLIC 9f364 0 jukebox::HostedSong::Impl::Impl(jukebox::HostedSong::Impl const&)
PUBLIC 9f4f4 0 jukebox::Nongs::Impl::~Impl()
PUBLIC 9f6c4 0 jukebox::IndexChoosePopup::setup(std::__ndk1::vector<std::__ndk1::basic_string<char, std::__ndk1::char_traits<char>, std::__ndk1::allocator<char> >, std::__ndk1::allocator<std::__ndk1::basic_string<char, std::__ndk1::char_traits<char>, std::__ndk1::allocator<char> > > >, std::__ndk1::function<void (std::__ndk1::basic_string<char, std::__ndk1::char_traits<char>, std::__ndk1::allocator<char> > const&)>)
PUBLIC a00c4 0 jukebox::IndexChoosePopup::onLeft(cocos2d::CCObject*)
PUBLIC a00fc 0 jukebox::IndexChoosePopup::onRight(cocos2d::CCObject*)
PUBLIC a0130 0 jukebox::IndexChoosePopup::onOK(cocos2d::CCObject*)
PUBLIC a01a8 0 jukebox::IndexChoosePopup::updateLabel()
PUBLIC a032c 0 jukebox::IndexChoosePopup::create(std::__ndk1::vector<std::__ndk1::basic_string<char, std::__ndk1::char_traits<char>, std::__ndk1::allocator<char> >, std::__ndk1::allocator<std::__ndk1::basic_string<char, std::__ndk1::char_traits<char>, std::__ndk1::allocator<char> > > >, std::__ndk1::function<void (std::__ndk1::basic_string<char, std::__ndk1::char_traits<char>, std::__ndk1::allocator<char> > const&)>)
PUBLIC a0a60 0 jukebox::IndexChoosePopup::~IndexChoosePopup()
PUBLIC a0b8c 0 jukebox::IndexChoosePopup::~IndexChoosePopup()
PUBLIC a0bb0 0 geode::Popup<std::__ndk1::vector<std::__ndk1::basic_string<char, std::__ndk1::char_traits<char>, std::__ndk1::allocator<char> >, std::__ndk1::allocator<std::__ndk1::basic_string<char, std::__ndk1::char_traits<char>, std::__ndk1::allocator<char> > > >, std::__ndk1::function<void (std::__ndk1::basic_string<char, std::__ndk1::char_traits<char>, std::__ndk1::allocator<char> > const&)> >::registerWithTouchDispatcher()
PUBLIC a0bdc 0 geode::Popup<std::__ndk1::vector<std::__ndk1::basic_string<char, std::__ndk1::char_traits<char>, std::__ndk1::allocator<char> >, std::__ndk1::allocator<std::__ndk1::basic_string<char, std::__ndk1::char_traits<char>, std::__ndk1::allocator<char> > > >, std::__ndk1::function<void (std::__ndk1::basic_string<char, std::__ndk1::char_traits<char>, std::__ndk1::allocator<char> > const&)> >::keyDown(cocos2d::enumKeyCodes)
PUBLIC a0c04 0 geode::Popup<std::__ndk1::vector<std::__ndk1::basic_string<char, std::__ndk1::char_traits<char>, std::__ndk1::allocator<char> >, std::__ndk1::allocator<std::__ndk1::basic_string<char, std::__ndk1::char_traits<char>, std::__ndk1::allocator<char> > > >, std::__ndk1::function<void (std::__ndk1::basic_string<char, std::__ndk1::char_traits<char>, std::__ndk1::allocator<char> > const&)> >::onClose(cocos2d::CCObject*)
PUBLIC a0d4c 0 {virtual override thunk({offset(-320)}, jukebox::IndexChoosePopup::~IndexChoosePopup())}
PUBLIC a0d54 0 {virtual override thunk({offset(-320)}, jukebox::IndexChoosePopup::~IndexChoosePopup())}
PUBLIC a0d7c 0 {virtual override thunk({offset(-344)}, geode::Popup<std::__ndk1::vector<std::__ndk1::basic_string<char, std::__ndk1::char_traits<char>, std::__ndk1::allocator<char> >, std::__ndk1::allocator<std::__ndk1::basic_string<char, std::__ndk1::char_traits<char>, std::__ndk1::allocator<char> > > >, std::__ndk1::function<void (std::__ndk1::basic_string<char, std::__ndk1::char_traits<char>, std::__ndk1::allocator<char> > const&)> >::keyDown(cocos2d::enumKeyCodes))}
PUBLIC a0da8 0 std::__ndk1::__exception_guard_exceptions<std::__ndk1::_AllocatorDestroyRangeReverse<std::__ndk1::allocator<std::__ndk1::basic_string<char, std::__ndk1::char_traits<char>, std::__ndk1::allocator<char> > >, std::__ndk1::basic_string<char, std::__ndk1::char_traits<char>, std::__ndk1::allocator<char> >*> >::~__exception_guard_exceptions[abi:ne180000]()
PUBLIC a0e08 0 std::__ndk1::vector<std::__ndk1::basic_string<char, std::__ndk1::char_traits<char>, std::__ndk1::allocator<char> >, std::__ndk1::allocator<std::__ndk1::basic_string<char, std::__ndk1::char_traits<char>, std::__ndk1::allocator<char> > > >::__throw_out_of_range[abi:ne180000]() const
PUBLIC a0e1c 0 geode::Popup<std::__ndk1::vector<std::__ndk1::basic_string<char, std::__ndk1::char_traits<char>, std::__ndk1::allocator<char> >, std::__ndk1::allocator<std::__ndk1::basic_string<char, std::__ndk1::char_traits<char>, std::__ndk1::allocator<char> > > >, std::__ndk1::function<void (std::__ndk1::basic_string<char, std::__ndk1::char_traits<char>, std::__ndk1::allocator<char> > const&)> >::~Popup()
PUBLIC a0e88 0 geode::Popup<std::__ndk1::vector<std::__ndk1::basic_string<char, std::__ndk1::char_traits<char>, std::__ndk1::allocator<char> >, std::__ndk1::allocator<std::__ndk1::basic_string<char, std::__ndk1::char_traits<char>, std::__ndk1::allocator<char> > > >, std::__ndk1::function<void (std::__ndk1::basic_string<char, std::__ndk1::char_traits<char>, std::__ndk1::allocator<char> > const&)> >::~Popup()
PUBLIC a0e8c 0 {virtual override thunk({offset(-320)}, geode::Popup<std::__ndk1::vector<std::__ndk1::basic_string<char, std::__ndk1::char_traits<char>, std::__ndk1::allocator<char> >, std::__ndk1::allocator<std::__ndk1::basic_string<char, std::__ndk1::char_traits<char>, std::__ndk1::allocator<char> > > >, std::__ndk1::function<void (std::__ndk1::basic_string<char, std::__ndk1::char_traits<char>, std::__ndk1::allocator<char> > const&)> >::~Popup())}
PUBLIC a0ef8 0 {virtual override thunk({offset(-320)}, geode::Popup<std::__ndk1::vector<std::__ndk1::basic_string<char, std::__ndk1::char_traits<char>, std::__ndk1::allocator<char> >, std::__ndk1::allocator<std::__ndk1::basic_string<char, std::__ndk1::char_traits<char>, std::__ndk1::allocator<char> > > >, std::__ndk1::function<void (std::__ndk1::basic_string<char, std::__ndk1::char_traits<char>, std::__ndk1::allocator<char> > const&)> >::~Popup())}
PUBLIC a0efc 0 std::__ndk1::vector<std::__ndk1::basic_string<char, std::__ndk1::char_traits<char>, std::__ndk1::allocator<char> >, std::__ndk1::allocator<std::__ndk1::basic_string<char, std::__ndk1::char_traits<char>, std::__ndk1::allocator<char> > > >::__init_with_size[abi:ne180000]<std::__ndk1::basic_string<char, std::__ndk1::char_traits<char>, std::__ndk1::allocator<char> >*, std::__ndk1::vector<std::__ndk1::basic_string<char, std::__ndk1::char_traits<char>, std::__ndk1::allocator<char> >, std::__ndk1::allocator<std::__ndk1::basic_string<char, std::__ndk1::char_traits<char>, std::__ndk1::allocator<char> > > >::__init_with_size[abi:ne180000]>(std::__ndk1::basic_string<char, std::__ndk1::char_traits<char>, std::__ndk1::allocator<char> >*, std::__ndk1::vector<std::__ndk1::basic_string<char, std::__ndk1::char_traits<char>, std::__ndk1::allocator<char> >, std::__ndk1::allocator<std::__ndk1::basic_string<char, std::__ndk1::char_traits<char>, std::__ndk1::allocator<char> > > >::__init_with_size[abi:ne180000], unsigned long)
PUBLIC a1068 0 std::__ndk1::__exception_guard_exceptions<std::__ndk1::vector<std::__ndk1::basic_string<char, std::__ndk1::char_traits<char>, std::__ndk1::allocator<char> >, std::__ndk1::allocator<std::__ndk1::basic_string<char, std::__ndk1::char_traits<char>, std::__ndk1::allocator<char> > > >::__destroy_vector>::~__exception_guard_exceptions[abi:ne180000]()
PUBLIC a10f4 0 geode::Popup<std::__ndk1::vector<std::__ndk1::basic_string<char, std::__ndk1::char_traits<char>, std::__ndk1::allocator<char> >, std::__ndk1::allocator<std::__ndk1::basic_string<char, std::__ndk1::char_traits<char>, std::__ndk1::allocator<char> > > >, std::__ndk1::function<void (std::__ndk1::basic_string<char, std::__ndk1::char_traits<char>, std::__ndk1::allocator<char> > const&)> >::CloseEvent::~CloseEvent()
PUBLIC a1154 0 geode::Popup<std::__ndk1::vector<std::__ndk1::basic_string<char, std::__ndk1::char_traits<char>, std::__ndk1::allocator<char> >, std::__ndk1::allocator<std::__ndk1::basic_string<char, std::__ndk1::char_traits<char>, std::__ndk1::allocator<char> > > >, std::__ndk1::function<void (std::__ndk1::basic_string<char, std::__ndk1::char_traits<char>, std::__ndk1::allocator<char> > const&)> >::CloseEvent::~CloseEvent()
PUBLIC a11c4 0 std::__ndk1::__shared_ptr_emplace<geode::Popup<std::__ndk1::vector<std::__ndk1::basic_string<char, std::__ndk1::char_traits<char>, std::__ndk1::allocator<char> >, std::__ndk1::allocator<std::__ndk1::basic_string<char, std::__ndk1::char_traits<char>, std::__ndk1::allocator<char> > > >, std::__ndk1::function<void (std::__ndk1::basic_string<char, std::__ndk1::char_traits<char>, std::__ndk1::allocator<char> > const&)> >::CloseEvent::Impl, std::__ndk1::allocator<geode::Popup<std::__ndk1::vector<std::__ndk1::basic_string<char, std::__ndk1::char_traits<char>, std::__ndk1::allocator<char> >, std::__ndk1::allocator<std::__ndk1::basic_string<char, std::__ndk1::char_traits<char>, std::__ndk1::allocator<char> > > >, std::__ndk1::function<void (std::__ndk1::basic_string<char, std::__ndk1::char_traits<char>, std::__ndk1::allocator<char> > const&)> >::CloseEvent::Impl> >::~__shared_ptr_emplace()
PUBLIC a11d4 0 std::__ndk1::__shared_ptr_emplace<geode::Popup<std::__ndk1::vector<std::__ndk1::basic_string<char, std::__ndk1::char_traits<char>, std::__ndk1::allocator<char> >, std::__ndk1::allocator<std::__ndk1::basic_string<char, std::__ndk1::char_traits<char>, std::__ndk1::allocator<char> > > >, std::__ndk1::function<void (std::__ndk1::basic_string<char, std::__ndk1::char_traits<char>, std::__ndk1::allocator<char> > const&)> >::CloseEvent::Impl, std::__ndk1::allocator<geode::Popup<std::__ndk1::vector<std::__ndk1::basic_string<char, std::__ndk1::char_traits<char>, std::__ndk1::allocator<char> >, std::__ndk1::allocator<std::__ndk1::basic_string<char, std::__ndk1::char_traits<char>, std::__ndk1::allocator<char> > > >, std::__ndk1::function<void (std::__ndk1::basic_string<char, std::__ndk1::char_traits<char>, std::__ndk1::allocator<char> > const&)> >::CloseEvent::Impl> >::~__shared_ptr_emplace()
PUBLIC a1204 0 std::__ndk1::__shared_ptr_emplace<geode::Popup<std::__ndk1::vector<std::__ndk1::basic_string<char, std::__ndk1::char_traits<char>, std::__ndk1::allocator<char> >, std::__ndk1::allocator<std::__ndk1::basic_string<char, std::__ndk1::char_traits<char>, std::__ndk1::allocator<char> > > >, std::__ndk1::function<void (std::__ndk1::basic_string<char, std::__ndk1::char_traits<char>, std::__ndk1::allocator<char> > const&)> >::CloseEvent::Impl, std::__ndk1::allocator<geode::Popup<std::__ndk1::vector<std::__ndk1::basic_string<char, std::__ndk1::char_traits<char>, std::__ndk1::allocator<char> >, std::__ndk1::allocator<std::__ndk1::basic_string<char, std::__ndk1::char_traits<char>, std::__ndk1::allocator<char> > > >, std::__ndk1::function<void (std::__ndk1::basic_string<char, std::__ndk1::char_traits<char>, std::__ndk1::allocator<char> > const&)> >::CloseEvent::Impl> >::__on_zero_shared()
PUBLIC a1208 0 std::__ndk1::__shared_ptr_emplace<geode::Popup<std::__ndk1::vector<std::__ndk1::basic_string<char, std::__ndk1::char_traits<char>, std::__ndk1::allocator<char> >, std::__ndk1::allocator<std::__ndk1::basic_string<char, std::__ndk1::char_traits<char>, std::__ndk1::allocator<char> > > >, std::__ndk1::function<void (std::__ndk1::basic_string<char, std::__ndk1::char_traits<char>, std::__ndk1::allocator<char> > const&)> >::CloseEvent::Impl, std::__ndk1::allocator<geode::Popup<std::__ndk1::vector<std::__ndk1::basic_string<char, std::__ndk1::char_traits<char>, std::__ndk1::allocator<char> >, std::__ndk1::allocator<std::__ndk1::basic_string<char, std::__ndk1::char_traits<char>, std::__ndk1::allocator<char> > > >, std::__ndk1::function<void (std::__ndk1::basic_string<char, std::__ndk1::char_traits<char>, std::__ndk1::allocator<char> > const&)> >::CloseEvent::Impl> >::__on_zero_shared_weak()
PUBLIC a120c 0 jukebox::IndexesPopup::setup(std::__ndk1::vector<jukebox::index::IndexSource, std::__ndk1::allocator<jukebox::index::IndexSource> >, std::__ndk1::function<void (std::__ndk1::vector<jukebox::index::IndexSource, std::__ndk1::allocator<jukebox::index::IndexSource> >)>)
PUBLIC a1538 0 jukebox::IndexesPopup::createList()
PUBLIC a17e4 0 jukebox::IndexesPopup::onAdd(cocos2d::CCObject*)
PUBLIC a1954 0 jukebox::IndexesPopup::onClose(cocos2d::CCObject*)
PUBLIC a1a64 0 geode::Popup<std::__ndk1::vector<jukebox::index::IndexSource, std::__ndk1::allocator<jukebox::index::IndexSource> >, std::__ndk1::function<void (std::__ndk1::vector<jukebox::index::IndexSource, std::__ndk1::allocator<jukebox::index::IndexSource> >)> >::onClose(cocos2d::CCObject*)
PUBLIC a1bac 0 jukebox::IndexesPopup::create(std::__ndk1::vector<jukebox::index::IndexSource, std::__ndk1::allocator<jukebox::index::IndexSource> >, std::__ndk1::function<void (std::__ndk1::vector<jukebox::index::IndexSource, std::__ndk1::allocator<jukebox::index::IndexSource> >)>)
PUBLIC a22cc 0 jukebox::IndexesPopup::~IndexesPopup()
PUBLIC a23f8 0 jukebox::IndexesPopup::~IndexesPopup()
PUBLIC a241c 0 geode::Popup<std::__ndk1::vector<jukebox::index::IndexSource, std::__ndk1::allocator<jukebox::index::IndexSource> >, std::__ndk1::function<void (std::__ndk1::vector<jukebox::index::IndexSource, std::__ndk1::allocator<jukebox::index::IndexSource> >)> >::registerWithTouchDispatcher()
PUBLIC a2448 0 geode::Popup<std::__ndk1::vector<jukebox::index::IndexSource, std::__ndk1::allocator<jukebox::index::IndexSource> >, std::__ndk1::function<void (std::__ndk1::vector<jukebox::index::IndexSource, std::__ndk1::allocator<jukebox::index::IndexSource> >)> >::keyDown(cocos2d::enumKeyCodes)
PUBLIC a2470 0 {virtual override thunk({offset(-320)}, jukebox::IndexesPopup::~IndexesPopup())}
PUBLIC a2478 0 {virtual override thunk({offset(-320)}, jukebox::IndexesPopup::~IndexesPopup())}
PUBLIC a24a0 0 {virtual override thunk({offset(-344)}, geode::Popup<std::__ndk1::vector<jukebox::index::IndexSource, std::__ndk1::allocator<jukebox::index::IndexSource> >, std::__ndk1::function<void (std::__ndk1::vector<jukebox::index::IndexSource, std::__ndk1::allocator<jukebox::index::IndexSource> >)> >::keyDown(cocos2d::enumKeyCodes))}
PUBLIC a24cc 0 std::__ndk1::vector<jukebox::index::IndexSource, std::__ndk1::allocator<jukebox::index::IndexSource> >::__assign_with_size[abi:ne180000]<jukebox::index::IndexSource*, std::__ndk1::vector<jukebox::index::IndexSource, std::__ndk1::allocator<jukebox::index::IndexSource> >::__assign_with_size[abi:ne180000]>(jukebox::index::IndexSource*, std::__ndk1::vector<jukebox::index::IndexSource, std::__ndk1::allocator<jukebox::index::IndexSource> >::__assign_with_size[abi:ne180000], long)
PUBLIC a28c4 0 geode::Popup<std::__ndk1::vector<jukebox::index::IndexSource, std::__ndk1::allocator<jukebox::index::IndexSource> >, std::__ndk1::function<void (std::__ndk1::vector<jukebox::index::IndexSource, std::__ndk1::allocator<jukebox::index::IndexSource> >)> >::~Popup()
PUBLIC a2930 0 geode::Popup<std::__ndk1::vector<jukebox::index::IndexSource, std::__ndk1::allocator<jukebox::index::IndexSource> >, std::__ndk1::function<void (std::__ndk1::vector<jukebox::index::IndexSource, std::__ndk1::allocator<jukebox::index::IndexSource> >)> >::~Popup()
PUBLIC a2934 0 {virtual override thunk({offset(-320)}, geode::Popup<std::__ndk1::vector<jukebox::index::IndexSource, std::__ndk1::allocator<jukebox::index::IndexSource> >, std::__ndk1::function<void (std::__ndk1::vector<jukebox::index::IndexSource, std::__ndk1::allocator<jukebox::index::IndexSource> >)> >::~Popup())}
PUBLIC a29a0 0 {virtual override thunk({offset(-320)}, geode::Popup<std::__ndk1::vector<jukebox::index::IndexSource, std::__ndk1::allocator<jukebox::index::IndexSource> >, std::__ndk1::function<void (std::__ndk1::vector<jukebox::index::IndexSource, std::__ndk1::allocator<jukebox::index::IndexSource> >)> >::~Popup())}
PUBLIC a29a4 0 geode::Popup<std::__ndk1::vector<jukebox::index::IndexSource, std::__ndk1::allocator<jukebox::index::IndexSource> >, std::__ndk1::function<void (std::__ndk1::vector<jukebox::index::IndexSource, std::__ndk1::allocator<jukebox::index::IndexSource> >)> >::CloseEvent::~CloseEvent()
PUBLIC a2a04 0 geode::Popup<std::__ndk1::vector<jukebox::index::IndexSource, std::__ndk1::allocator<jukebox::index::IndexSource> >, std::__ndk1::function<void (std::__ndk1::vector<jukebox::index::IndexSource, std::__ndk1::allocator<jukebox::index::IndexSource> >)> >::CloseEvent::~CloseEvent()
PUBLIC a2a74 0 std::__ndk1::__shared_ptr_emplace<geode::Popup<std::__ndk1::vector<jukebox::index::IndexSource, std::__ndk1::allocator<jukebox::index::IndexSource> >, std::__ndk1::function<void (std::__ndk1::vector<jukebox::index::IndexSource, std::__ndk1::allocator<jukebox::index::IndexSource> >)> >::CloseEvent::Impl, std::__ndk1::allocator<geode::Popup<std::__ndk1::vector<jukebox::index::IndexSource, std::__ndk1::allocator<jukebox::index::IndexSource> >, std::__ndk1::function<void (std::__ndk1::vector<jukebox::index::IndexSource, std::__ndk1::allocator<jukebox::index::IndexSource> >)> >::CloseEvent::Impl> >::~__shared_ptr_emplace()
PUBLIC a2a84 0 std::__ndk1::__shared_ptr_emplace<geode::Popup<std::__ndk1::vector<jukebox::index::IndexSource, std::__ndk1::allocator<jukebox::index::IndexSource> >, std::__ndk1::function<void (std::__ndk1::vector<jukebox::index::IndexSource, std::__ndk1::allocator<jukebox::index::IndexSource> >)> >::CloseEvent::Impl, std::__ndk1::allocator<geode::Popup<std::__ndk1::vector<jukebox::index::IndexSource, std::__ndk1::allocator<jukebox::index::IndexSource> >, std::__ndk1::function<void (std::__ndk1::vector<jukebox::index::IndexSource, std::__ndk1::allocator<jukebox::index::IndexSource> >)> >::CloseEvent::Impl> >::~__shared_ptr_emplace()
PUBLIC a2ab4 0 std::__ndk1::__shared_ptr_emplace<geode::Popup<std::__ndk1::vector<jukebox::index::IndexSource, std::__ndk1::allocator<jukebox::index::IndexSource> >, std::__ndk1::function<void (std::__ndk1::vector<jukebox::index::IndexSource, std::__ndk1::allocator<jukebox::index::IndexSource> >)> >::CloseEvent::Impl, std::__ndk1::allocator<geode::Popup<std::__ndk1::vector<jukebox::index::IndexSource, std::__ndk1::allocator<jukebox::index::IndexSource> >, std::__ndk1::function<void (std::__ndk1::vector<jukebox::index::IndexSource, std::__ndk1::allocator<jukebox::index::IndexSource> >)> >::CloseEvent::Impl> >::__on_zero_shared()
PUBLIC a2ab8 0 std::__ndk1::__shared_ptr_emplace<geode::Popup<std::__ndk1::vector<jukebox::index::IndexSource, std::__ndk1::allocator<jukebox::index::IndexSource> >, std::__ndk1::function<void (std::__ndk1::vector<jukebox::index::IndexSource, std::__ndk1::allocator<jukebox::index::IndexSource> >)> >::CloseEvent::Impl, std::__ndk1::allocator<geode::Popup<std::__ndk1::vector<jukebox::index::IndexSource, std::__ndk1::allocator<jukebox::index::IndexSource> >, std::__ndk1::function<void (std::__ndk1::vector<jukebox::index::IndexSource, std::__ndk1::allocator<jukebox::index::IndexSource> >)> >::CloseEvent::Impl> >::__on_zero_shared_weak()
PUBLIC a2abc 0 std::__ndk1::__function::__func<jukebox::IndexesPopup::createList()::$_0, std::__ndk1::allocator<jukebox::IndexesPopup::createList()::$_0>, void ()>::~__func()
PUBLIC a2ac0 0 std::__ndk1::__function::__func<jukebox::IndexesPopup::createList()::$_0, std::__ndk1::allocator<jukebox::IndexesPopup::createList()::$_0>, void ()>::__clone() const
PUBLIC a2af8 0 std::__ndk1::__function::__func<jukebox::IndexesPopup::createList()::$_0, std::__ndk1::allocator<jukebox::IndexesPopup::createList()::$_0>, void ()>::__clone(std::__ndk1::__function::__base<void ()>*) const
PUBLIC a2b10 0 std::__ndk1::__function::__func<jukebox::IndexesPopup::createList()::$_0, std::__ndk1::allocator<jukebox::IndexesPopup::createList()::$_0>, void ()>::destroy()
PUBLIC a2b14 0 std::__ndk1::__function::__func<jukebox::IndexesPopup::createList()::$_0, std::__ndk1::allocator<jukebox::IndexesPopup::createList()::$_0>, void ()>::destroy_deallocate()
PUBLIC a2b18 0 std::__ndk1::__function::__func<jukebox::IndexesPopup::createList()::$_0, std::__ndk1::allocator<jukebox::IndexesPopup::createList()::$_0>, void ()>::operator()()
PUBLIC a2bec 0 std::__ndk1::__function::__func<jukebox::IndexesPopup::createList()::$_0, std::__ndk1::allocator<jukebox::IndexesPopup::createList()::$_0>, void ()>::target(std::type_info const&) const
PUBLIC a2c08 0 std::__ndk1::__function::__func<jukebox::IndexesPopup::createList()::$_0, std::__ndk1::allocator<jukebox::IndexesPopup::createList()::$_0>, void ()>::target_type() const
PUBLIC a2c14 0 jukebox::IndexSetting::createNode(float)
PUBLIC a310c 0 std::__ndk1::shared_ptr<geode::SettingV3>::~shared_ptr[abi:ne180000]()
PUBLIC a315c 0 jukebox::IndexSettingNode::onView(cocos2d::CCObject*)
PUBLIC a337c 0 jukebox::IndexSetting::parse(std::__ndk1::basic_string<char, std::__ndk1::char_traits<char>, std::__ndk1::allocator<char> > const&, std::__ndk1::basic_string<char, std::__ndk1::char_traits<char>, std::__ndk1::allocator<char> > const&, matjson::Value const&)
PUBLIC a3a14 0 jukebox::IndexSetting::~IndexSetting()
PUBLIC a3a90 0 geode::SettingBaseValueV3<jukebox::Indexes, jukebox::Indexes>::load(matjson::Value const&)
PUBLIC a3bec 0 geode::SettingBaseValueV3<jukebox::Indexes, jukebox::Indexes>::save(matjson::Value&) const
PUBLIC a3ef8 0 geode::SettingBaseValueV3<jukebox::Indexes, jukebox::Indexes>::isDefaultValue() const
PUBLIC a4000 0 geode::SettingBaseValueV3<jukebox::Indexes, jukebox::Indexes>::reset()
PUBLIC a40e8 0 geode::SettingBaseValueV3<jukebox::Indexes, jukebox::Indexes>::isValid(jukebox::Indexes) const
PUBLIC a40f0 0 geode::SettingValueNodeV3<jukebox::IndexSetting>::~SettingValueNodeV3()
PUBLIC a419c 0 jukebox::IndexSettingNode::~IndexSettingNode()
PUBLIC a4258 0 geode::SettingValueNodeV3<jukebox::IndexSetting>::updateState(cocos2d::CCNode*)
PUBLIC a44ec 0 geode::SettingValueNodeV3<jukebox::IndexSetting>::onCommit()
PUBLIC a4714 0 geode::SettingValueNodeV3<jukebox::IndexSetting>::onResetToDefault()
PUBLIC a4868 0 geode::SettingValueNodeV3<jukebox::IndexSetting>::hasUncommittedChanges() const
PUBLIC a4a6c 0 geode::SettingValueNodeV3<jukebox::IndexSetting>::hasNonDefaultValue() const
PUBLIC a4c70 0 geode::SettingValueNodeV3<jukebox::IndexSetting>::~SettingValueNodeV3()
PUBLIC a4d2c 0 geode::SettingBaseValueV3<jukebox::Indexes, jukebox::Indexes>::setValue(jukebox::Indexes)
PUBLIC a4e98 0 std::__ndk1::__variant_detail::__visitation::__base::__dispatcher<(unsigned long)0>::__dispatch[abi:ne180000]<std::__ndk1::__variant_detail::__dtor<std::__ndk1::__variant_detail::__traits<std::__ndk1::shared_ptr<jukebox::IndexSetting>, std::__ndk1::basic_string<char, std::__ndk1::char_traits<char>, std::__ndk1::allocator<char> > >, (std::__ndk1::__variant_detail::_Trait)1>::__destroy[abi:ne180000]()::{lambda(auto:1&)#1}, std::__ndk1::__variant_detail::__base<(std::__ndk1::__variant_detail::__traits<std::__ndk1::shared_ptr<jukebox::IndexSetting>, std::__ndk1::basic_string<char, std::__ndk1::char_traits<char>, std::__ndk1::allocator<char> > >)1, jukebox::IndexSetting, std::__ndk1::allocator<char> >&>(std::__ndk1::__variant_detail::__dtor<std::__ndk1::__variant_detail::__traits<std::__ndk1::shared_ptr<jukebox::IndexSetting>, std::__ndk1::basic_string<char, std::__ndk1::char_traits<char>, std::__ndk1::allocator<char> > >, (std::__ndk1::__variant_detail::_Trait)1>, std::__ndk1::__variant_detail::__base<(std::__ndk1::__variant_detail::__traits<std::__ndk1::shared_ptr<jukebox::IndexSetting>, std::__ndk1::basic_string<char, std::__ndk1::char_traits<char>, std::__ndk1::allocator<char> > >)1, jukebox::IndexSetting, std::__ndk1::allocator<char> >&)
PUBLIC a4ee8 0 std::__ndk1::__variant_detail::__visitation::__base::__dispatcher<(unsigned long)1>::__dispatch[abi:ne180000]<std::__ndk1::__variant_detail::__dtor<std::__ndk1::__variant_detail::__traits<std::__ndk1::shared_ptr<jukebox::IndexSetting>, std::__ndk1::basic_string<char, std::__ndk1::char_traits<char>, std::__ndk1::allocator<char> > >, (std::__ndk1::__variant_detail::_Trait)1>::__destroy[abi:ne180000]()::{lambda(auto:1&)#1}, std::__ndk1::__variant_detail::__base<(std::__ndk1::__variant_detail::__traits<std::__ndk1::shared_ptr<jukebox::IndexSetting>, std::__ndk1::basic_string<char, std::__ndk1::char_traits<char>, std::__ndk1::allocator<char> > >)1, jukebox::IndexSetting, std::__ndk1::allocator<char> >&>(std::__ndk1::__variant_detail::__dtor<std::__ndk1::__variant_detail::__traits<std::__ndk1::shared_ptr<jukebox::IndexSetting>, std::__ndk1::basic_string<char, std::__ndk1::char_traits<char>, std::__ndk1::allocator<char> > >, (std::__ndk1::__variant_detail::_Trait)1>, std::__ndk1::__variant_detail::__base<(std::__ndk1::__variant_detail::__traits<std::__ndk1::shared_ptr<jukebox::IndexSetting>, std::__ndk1::basic_string<char, std::__ndk1::char_traits<char>, std::__ndk1::allocator<char> > >)1, jukebox::IndexSetting, std::__ndk1::allocator<char> >&)
PUBLIC a4efc 0 geode::SettingBaseValueV3<jukebox::Indexes, jukebox::Indexes>::~SettingBaseValueV3()
PUBLIC a4f68 0 geode::SettingBaseValueV3<jukebox::Indexes, jukebox::Indexes>::~SettingBaseValueV3()
PUBLIC a4f6c 0 std::__ndk1::__throw_bad_weak_ptr[abi:ne180000]()
PUBLIC a4fa0 0 std::__ndk1::__shared_ptr_emplace<geode::SettingValueNodeV3<jukebox::IndexSetting>::Impl, std::__ndk1::allocator<geode::SettingValueNodeV3<jukebox::IndexSetting>::Impl> >::~__shared_ptr_emplace()
PUBLIC a4fb0 0 std::__ndk1::__shared_ptr_emplace<geode::SettingValueNodeV3<jukebox::IndexSetting>::Impl, std::__ndk1::allocator<geode::SettingValueNodeV3<jukebox::IndexSetting>::Impl> >::~__shared_ptr_emplace()
PUBLIC a4fe0 0 std::__ndk1::__shared_ptr_emplace<geode::SettingValueNodeV3<jukebox::IndexSetting>::Impl, std::__ndk1::allocator<geode::SettingValueNodeV3<jukebox::IndexSetting>::Impl> >::__on_zero_shared()
PUBLIC a505c 0 std::__ndk1::__shared_ptr_emplace<geode::SettingValueNodeV3<jukebox::IndexSetting>::Impl, std::__ndk1::allocator<geode::SettingValueNodeV3<jukebox::IndexSetting>::Impl> >::__on_zero_shared_weak()
PUBLIC a5060 0 std::__ndk1::__function::__base<void (std::__ndk1::vector<jukebox::index::IndexSource, std::__ndk1::allocator<jukebox::index::IndexSource> >)>::~__base()
PUBLIC a5064 0 std::__ndk1::__function::__func<jukebox::IndexSettingNode::onView(cocos2d::CCObject*)::$_0, std::__ndk1::allocator<jukebox::IndexSettingNode::onView(cocos2d::CCObject*)::$_0>, void (std::__ndk1::vector<jukebox::index::IndexSource, std::__ndk1::allocator<jukebox::index::IndexSource> >)>::~__func()
PUBLIC a5068 0 std::__ndk1::__function::__func<jukebox::IndexSettingNode::onView(cocos2d::CCObject*)::$_0, std::__ndk1::allocator<jukebox::IndexSettingNode::onView(cocos2d::CCObject*)::$_0>, void (std::__ndk1::vector<jukebox::index::IndexSource, std::__ndk1::allocator<jukebox::index::IndexSource> >)>::__clone() const
PUBLIC a509c 0 std::__ndk1::__function::__func<jukebox::IndexSettingNode::onView(cocos2d::CCObject*)::$_0, std::__ndk1::allocator<jukebox::IndexSettingNode::onView(cocos2d::CCObject*)::$_0>, void (std::__ndk1::vector<jukebox::index::IndexSource, std::__ndk1::allocator<jukebox::index::IndexSource> >)>::__clone(std::__ndk1::__function::__base<void (std::__ndk1::vector<jukebox::index::IndexSource, std::__ndk1::allocator<jukebox::index::IndexSource> >)>*) const
PUBLIC a50b0 0 std::__ndk1::__function::__func<jukebox::IndexSettingNode::onView(cocos2d::CCObject*)::$_0, std::__ndk1::allocator<jukebox::IndexSettingNode::onView(cocos2d::CCObject*)::$_0>, void (std::__ndk1::vector<jukebox::index::IndexSource, std::__ndk1::allocator<jukebox::index::IndexSource> >)>::destroy()
PUBLIC a50b4 0 std::__ndk1::__function::__func<jukebox::IndexSettingNode::onView(cocos2d::CCObject*)::$_0, std::__ndk1::allocator<jukebox::IndexSettingNode::onView(cocos2d::CCObject*)::$_0>, void (std::__ndk1::vector<jukebox::index::IndexSource, std::__ndk1::allocator<jukebox::index::IndexSource> >)>::destroy_deallocate()
PUBLIC a50b8 0 std::__ndk1::__function::__func<jukebox::IndexSettingNode::onView(cocos2d::CCObject*)::$_0, std::__ndk1::allocator<jukebox::IndexSettingNode::onView(cocos2d::CCObject*)::$_0>, void (std::__ndk1::vector<jukebox::index::IndexSource, std::__ndk1::allocator<jukebox::index::IndexSource> >)>::operator()(std::__ndk1::vector<jukebox::index::IndexSource, std::__ndk1::allocator<jukebox::index::IndexSource> >&&)
PUBLIC a5230 0 std::__ndk1::__function::__func<jukebox::IndexSettingNode::onView(cocos2d::CCObject*)::$_0, std::__ndk1::allocator<jukebox::IndexSettingNode::onView(cocos2d::CCObject*)::$_0>, void (std::__ndk1::vector<jukebox::index::IndexSource, std::__ndk1::allocator<jukebox::index::IndexSource> >)>::target(std::type_info const&) const
PUBLIC a524c 0 std::__ndk1::__function::__func<jukebox::IndexSettingNode::onView(cocos2d::CCObject*)::$_0, std::__ndk1::allocator<jukebox::IndexSettingNode::onView(cocos2d::CCObject*)::$_0>, void (std::__ndk1::vector<jukebox::index::IndexSource, std::__ndk1::allocator<jukebox::index::IndexSource> >)>::target_type() const
PUBLIC a5258 0 std::__ndk1::__shared_ptr_emplace<jukebox::IndexSetting, std::__ndk1::allocator<jukebox::IndexSetting> >::~__shared_ptr_emplace()
PUBLIC a5268 0 std::__ndk1::__shared_ptr_emplace<jukebox::IndexSetting, std::__ndk1::allocator<jukebox::IndexSetting> >::~__shared_ptr_emplace()
PUBLIC a5298 0 std::__ndk1::__shared_ptr_emplace<jukebox::IndexSetting, std::__ndk1::allocator<jukebox::IndexSetting> >::__on_zero_shared()
PUBLIC a52a4 0 std::__ndk1::__shared_ptr_emplace<jukebox::IndexSetting, std::__ndk1::allocator<jukebox::IndexSetting> >::__on_zero_shared_weak()
PUBLIC a52a8 0 std::__ndk1::__shared_ptr_emplace<geode::SettingBaseValueV3<jukebox::Indexes, jukebox::Indexes>::Impl, std::__ndk1::allocator<geode::SettingBaseValueV3<jukebox::Indexes, jukebox::Indexes>::Impl> >::~__shared_ptr_emplace()
PUBLIC a52b8 0 std::__ndk1::__shared_ptr_emplace<geode::SettingBaseValueV3<jukebox::Indexes, jukebox::Indexes>::Impl, std::__ndk1::allocator<geode::SettingBaseValueV3<jukebox::Indexes, jukebox::Indexes>::Impl> >::~__shared_ptr_emplace()
PUBLIC a52e8 0 std::__ndk1::__shared_ptr_emplace<geode::SettingBaseValueV3<jukebox::Indexes, jukebox::Indexes>::Impl, std::__ndk1::allocator<geode::SettingBaseValueV3<jukebox::Indexes, jukebox::Indexes>::Impl> >::__on_zero_shared()
PUBLIC a53b0 0 std::__ndk1::__shared_ptr_emplace<geode::SettingBaseValueV3<jukebox::Indexes, jukebox::Indexes>::Impl, std::__ndk1::allocator<geode::SettingBaseValueV3<jukebox::Indexes, jukebox::Indexes>::Impl> >::__on_zero_shared_weak()
PUBLIC a53b4 0 geode::JsonExpectedValue::tryGet<jukebox::Indexes>()
PUBLIC a5610 0 geode::impl::ResultData<jukebox::Indexes, std::__ndk1::basic_string<char, std::__ndk1::char_traits<char>, std::__ndk1::allocator<char> > >::~ResultData()
PUBLIC a5684 0 matjson::Serialize<jukebox::Indexes>::fromJson(matjson::Value const&)
PUBLIC a5f60 0 geode::impl::ResultData<jukebox::index::IndexSource, std::__ndk1::basic_string<char, std::__ndk1::char_traits<char>, std::__ndk1::allocator<char> > >::~ResultData()
PUBLIC a5fd4 0 std::__ndk1::__split_buffer<jukebox::index::IndexSource, std::__ndk1::allocator<jukebox::index::IndexSource>&>::~__split_buffer()
