MODULE Linux arm64 D39C27EB22B2B5175E29643A9978E8F80 ninkaz.colorful-icons.android64.so
INFO CODE_ID EB279CD3B22217B55E29643A9978E8F8F6B9D46B
INFO GENERATOR mozilla/dump_syms 2.3.4
PUBLIC 5f50 0 __on_dlclose
PUBLIC 5f60 0 __emutls_unregister_key
PUBLIC 5f68 0 __on_dlclose_late
PUBLIC 5f70 0 __atexit_handler_wrapper
PUBLIC 5f84 0 atexit
PUBLIC 5fa0 0 pthread_atfork
PUBLIC 5fb0 0 color::rgb2hsv(cocos2d::_ccColor3B const&)
PUBLIC 609c 0 color::hsv2rgb(cocos2d::_ccHSVValue const&)
PUBLIC 61f0 0 __aarch64_ldadd8_relax
PUBLIC 6220 0 init_have_lse_atomics
PUBLIC 62b8 0 __init_cpu_features_constructor
PUBLIC 6564 0 __init_cpu_features
PUBLIC 65f0 0 __aarch64_ldadd8_acq_rel
PUBLIC 6620 0 ModSimplePlayer::changeToPlayerColors()
PUBLIC 69c8 0 geode::Mod::getSavedValue<long>(std::__ndk1::basic_string_view<char, std::__ndk1::char_traits<char> >)
PUBLIC 6be0 0 geode::Mod::getSavedValue<bool>(std::__ndk1::basic_string_view<char, std::__ndk1::char_traits<char> >)
PUBLIC 6d68 0 cocos2d::CCSequence::create(cocos2d::CCFiniteTimeAction*, ...)
PUBLIC 6e00 0 ModSimplePlayer::tintPlayerSprites()
PUBLIC 6e38 0 ModSimplePlayer::updateRobotSprite(float)
PUBLIC 6f18 0 ModSimplePlayer::tintToRandomColor(ModSimplePlayer::ColorType, float)
PUBLIC 7150 0 geode::Mod::getSettingValue<bool>(std::__ndk1::basic_string_view<char, std::__ndk1::char_traits<char> >) const
PUBLIC 7278 0 ModGJGarageLayer::updateSeparateDualIcons(float)
PUBLIC 739c 0 __cxx_global_var_init
PUBLIC 7810 0 geode::modifier::ModifyBase<geode::modifier::ModifyDerive<ModSimplePlayer, SimplePlayer> >::~ModifyBase()
PUBLIC 7828 0 __cxx_global_var_init.8
PUBLIC 7c9c 0 geode::modifier::ModifyBase<geode::modifier::ModifyDerive<ModGJItemIcon, GJItemIcon> >::~ModifyBase()
PUBLIC 7cb4 0 __cxx_global_var_init.9
PUBLIC 8128 0 geode::modifier::ModifyBase<geode::modifier::ModifyDerive<ModGJGarageLayer, GJGarageLayer> >::~ModifyBase()
PUBLIC 8140 0 geode::modifier::FieldIntermediate<ModGJGarageLayer, GJGarageLayer>::self()
PUBLIC 82cc 0 geode::modifier::FieldContainer::getField(unsigned long)
PUBLIC 869c 0 geode::modifier::FieldContainer::setField(unsigned long, unsigned long, std::__ndk1::function<void (void*)>)
PUBLIC 87a8 0 geode::modifier::FieldIntermediate<ModGJGarageLayer, GJGarageLayer>::fieldDestructor(void*)
PUBLIC 87ac 0 std::__ndk1::vector<void*, std::__ndk1::allocator<void*> >::__throw_length_error[abi:ne190000]() const
PUBLIC 87c0 0 __clang_call_terminate
PUBLIC 87d0 0 std::__ndk1::__throw_length_error[abi:ne190000](char const*)
PUBLIC 8820 0 std::length_error::length_error[abi:ne190000](char const*)
PUBLIC 8850 0 std::__throw_bad_array_new_length([abi:ne190000], void)
PUBLIC 8884 0 std::__ndk1::vector<std::__ndk1::function<void (void*)>, std::__ndk1::allocator<std::__ndk1::function<void (void*)> > >::__throw_length_error[abi:ne190000]() const
PUBLIC 8898 0 std::__ndk1::vector<void*, std::__ndk1::allocator<void*> >::__throw_out_of_range[abi:ne190000]() const
PUBLIC 88a4 0 std::__ndk1::__throw_out_of_range[abi:ne190000](char const*)
PUBLIC 88f4 0 std::out_of_range::out_of_range[abi:ne190000](char const*)
PUBLIC 8924 0 std::__ndk1::vector<std::__ndk1::function<void (void*)>, std::__ndk1::allocator<std::__ndk1::function<void (void*)> > >::__throw_out_of_range[abi:ne190000]() const
PUBLIC 8930 0 std::__ndk1::__function::__base<void (void*)>::~__base()
PUBLIC 8934 0 std::__ndk1::__function::__func<void (*)(void*), std::__ndk1::allocator<void (*)(void*)>, void (void*)>::~__func()
PUBLIC 8938 0 std::__ndk1::__function::__func<void (*)(void*), std::__ndk1::allocator<void (*)(void*)>, void (void*)>::__clone() const
PUBLIC 8970 0 std::__ndk1::__function::__func<void (*)(void*), std::__ndk1::allocator<void (*)(void*)>, void (void*)>::__clone(std::__ndk1::__function::__base<void (void*)>*) const
PUBLIC 8988 0 std::__ndk1::__function::__func<void (*)(void*), std::__ndk1::allocator<void (*)(void*)>, void (void*)>::destroy()
PUBLIC 898c 0 std::__ndk1::__function::__func<void (*)(void*), std::__ndk1::allocator<void (*)(void*)>, void (void*)>::destroy_deallocate()
PUBLIC 8990 0 std::__ndk1::__function::__func<void (*)(void*), std::__ndk1::allocator<void (*)(void*)>, void (void*)>::operator()(void*&&)
PUBLIC 89a0 0 std::__ndk1::__function::__func<void (*)(void*), std::__ndk1::allocator<void (*)(void*)>, void (void*)>::target(std::type_info const&) const
PUBLIC 89bc 0 std::__ndk1::__function::__func<void (*)(void*), std::__ndk1::allocator<void (*)(void*)>, void (void*)>::target_type() const
PUBLIC 89c8 0 std::__ndk1::basic_string<char, std::__ndk1::char_traits<char>, std::__ndk1::allocator<char> >::__throw_length_error[abi:ne190000]() const
PUBLIC 89dc 0 geode::modifier::FieldIntermediate<ModSimplePlayer, SimplePlayer>::self()
PUBLIC 8b6c 0 geode::modifier::FieldIntermediate<ModSimplePlayer, SimplePlayer>::fieldDestructor(void*)
PUBLIC 8b70 0 geode::modifier::ModifyDerive<ModSimplePlayer, SimplePlayer>::apply()
PUBLIC 8eac 0 std::__ndk1::shared_ptr<geode::Hook>::~shared_ptr[abi:ne190000]()
PUBLIC 8efc 0 geode::impl::ResultData<geode::Hook*, std::__ndk1::basic_string<char, std::__ndk1::char_traits<char>, std::__ndk1::allocator<char> > >::~ResultData()
PUBLIC 8f70 0 std::__ndk1::vector<std::__ndk1::basic_string<char, std::__ndk1::char_traits<char>, std::__ndk1::allocator<char> >, std::__ndk1::allocator<std::__ndk1::basic_string<char, std::__ndk1::char_traits<char>, std::__ndk1::allocator<char> > > >::~vector[abi:ne190000]()
PUBLIC 8fec 0 geode::modifier::ModifyBase<geode::modifier::ModifyDerive<ModSimplePlayer, SimplePlayer> >::apply()
PUBLIC 8ff0 0 _ZN5geode15UnwrapExceptionC2IRPNS_4HookEQsr4implE18IsStringStreamableIT_EEENS_4impl5OkTagEOS5_
PUBLIC 9144 0 std::__ndk1::__throw_bad_variant_access[abi:ne190000]()
PUBLIC 9178 0 std::__ndk1::basic_stringstream<char, std::__ndk1::char_traits<char>, std::__ndk1::allocator<char> >::basic_stringstream[abi:ne190000]()
PUBLIC m 92ac 0 std::__ndk1::basic_stringstream<char, std::__ndk1::char_traits<char>, std::__ndk1::allocator<char> >::~basic_stringstream()
PUBLIC 932c 0 geode::UnwrapException::~UnwrapException()
PUBLIC 9350 0 std::__ndk1::__put_character_sequence[abi:ne190000]<char, std::__ndk1::char_traits<char> >(std::__ndk1::basic_ostream<char, std::__ndk1::char_traits<char> >, std::__ndk1::basic_ostream const*, unsigned long)
PUBLIC 94f4 0 std::__ndk1::__pad_and_output[abi:ne190000]<char, std::__ndk1::char_traits<char> >(std::__ndk1::char_traits<char>, std::__ndk1::ostreambuf_iterator const*, std::__ndk1::ostreambuf_iterator const, std::__ndk1::ostreambuf_iterator const, std::__ndk1::ios_base&, std::__ndk1::ostreambuf_iterator)
PUBLIC 96e0 0 std::__ndk1::basic_stringbuf<char, std::__ndk1::char_traits<char>, std::__ndk1::allocator<char> >::str[abi:ne190000]() &&
PUBLIC 9850 0 std::__ndk1::basic_stringbuf<char, std::__ndk1::char_traits<char>, std::__ndk1::allocator<char> >::__init_buf_ptrs[abi:ne190000]()
PUBLIC 9998 0 std::__ndk1::basic_string<char, std::__ndk1::char_traits<char>, std::__ndk1::allocator<char> >::__erase_external_with_move(unsigned long, unsigned long)
PUBLIC 9a20 0 std::__ndk1::vector<std::__ndk1::basic_string<char, std::__ndk1::char_traits<char>, std::__ndk1::allocator<char> >, std::__ndk1::allocator<std::__ndk1::basic_string<char, std::__ndk1::char_traits<char>, std::__ndk1::allocator<char> > > >::__push_back_slow_path<std::__ndk1::basic_string<char, std::__ndk1::char_traits<char>, std::__ndk1::allocator<char> > const&>(std::__ndk1::basic_string<char, std::__ndk1::char_traits<char>, std::__ndk1::allocator<char> > const&)
PUBLIC 9bcc 0 std::__ndk1::basic_string<char, std::__ndk1::char_traits<char>, std::__ndk1::allocator<char> >::__init_copy_ctor_external(char const*, unsigned long)
PUBLIC 9c60 0 std::__ndk1::__split_buffer<std::__ndk1::basic_string<char, std::__ndk1::char_traits<char>, std::__ndk1::allocator<char> >, std::__ndk1::allocator<std::__ndk1::basic_string<char, std::__ndk1::char_traits<char>, std::__ndk1::allocator<char> > >&>::~__split_buffer()
PUBLIC 9cc8 0 std::__ndk1::vector<std::__ndk1::basic_string<char, std::__ndk1::char_traits<char>, std::__ndk1::allocator<char> >, std::__ndk1::allocator<std::__ndk1::basic_string<char, std::__ndk1::char_traits<char>, std::__ndk1::allocator<char> > > >::__throw_length_error[abi:ne190000]() const
PUBLIC 9cdc 0 std::__ndk1::__variant_detail::__visitation::__base::__dispatcher<(unsigned long)0>::__dispatch[abi:ne190000]<std::__ndk1::__variant_detail::__dtor<std::__ndk1::__variant_detail::__traits<geode::Hook*, std::__ndk1::basic_string<char, std::__ndk1::char_traits<char>, std::__ndk1::allocator<char> > >, (std::__ndk1::__variant_detail::_Trait)1>::__destroy[abi:ne190000]()::{lambda(auto:1&)#1}, std::__ndk1::__variant_detail::__base<(std::__ndk1::__variant_detail::__traits<geode::Hook*, std::__ndk1::basic_string<char, std::__ndk1::char_traits<char>, std::__ndk1::allocator<char> > >)1, geode::Hook, std::__ndk1::allocator<char> >&>(std::__ndk1::__variant_detail::__dtor<std::__ndk1::__variant_detail::__traits<geode::Hook*, std::__ndk1::basic_string<char, std::__ndk1::char_traits<char>, std::__ndk1::allocator<char> > >, (std::__ndk1::__variant_detail::_Trait)1>, std::__ndk1::__variant_detail::__base<(std::__ndk1::__variant_detail::__traits<geode::Hook*, std::__ndk1::basic_string<char, std::__ndk1::char_traits<char>, std::__ndk1::allocator<char> > >)1, geode::Hook, std::__ndk1::allocator<char> >&)
PUBLIC 9ce0 0 std::__ndk1::__variant_detail::__visitation::__base::__dispatcher<(unsigned long)1>::__dispatch[abi:ne190000]<std::__ndk1::__variant_detail::__dtor<std::__ndk1::__variant_detail::__traits<geode::Hook*, std::__ndk1::basic_string<char, std::__ndk1::char_traits<char>, std::__ndk1::allocator<char> > >, (std::__ndk1::__variant_detail::_Trait)1>::__destroy[abi:ne190000]()::{lambda(auto:1&)#1}, std::__ndk1::__variant_detail::__base<(std::__ndk1::__variant_detail::__traits<geode::Hook*, std::__ndk1::basic_string<char, std::__ndk1::char_traits<char>, std::__ndk1::allocator<char> > >)1, geode::Hook, std::__ndk1::allocator<char> >&>(std::__ndk1::__variant_detail::__dtor<std::__ndk1::__variant_detail::__traits<geode::Hook*, std::__ndk1::basic_string<char, std::__ndk1::char_traits<char>, std::__ndk1::allocator<char> > >, (std::__ndk1::__variant_detail::_Trait)1>, std::__ndk1::__variant_detail::__base<(std::__ndk1::__variant_detail::__traits<geode::Hook*, std::__ndk1::basic_string<char, std::__ndk1::char_traits<char>, std::__ndk1::allocator<char> > >)1, geode::Hook, std::__ndk1::allocator<char> >&)
PUBLIC 9cf4 0 std::__ndk1::__tree<std::__ndk1::__value_type<std::__ndk1::basic_string<char, std::__ndk1::char_traits<char>, std::__ndk1::allocator<char> >, std::__ndk1::shared_ptr<geode::Hook> >, std::__ndk1::__map_value_compare<std::__ndk1::basic_string<char, std::__ndk1::char_traits<char>, std::__ndk1::allocator<char> >, std::__ndk1::__value_type<std::__ndk1::basic_string<char, std::__ndk1::char_traits<char>, std::__ndk1::allocator<char> >, std::__ndk1::shared_ptr<geode::Hook> >, std::__ndk1::less<std::__ndk1::basic_string<char, std::__ndk1::char_traits<char>, std::__ndk1::allocator<char> > >, true>, std::__ndk1::allocator<std::__ndk1::__value_type<std::__ndk1::basic_string<char, std::__ndk1::char_traits<char>, std::__ndk1::allocator<char> >, std::__ndk1::shared_ptr<geode::Hook> > > >::find<std::__ndk1::basic_string<char, std::__ndk1::char_traits<char>, std::__ndk1::allocator<char> > >(std::__ndk1::basic_string<char, std::__ndk1::char_traits<char>, std::__ndk1::allocator<char> > const&)
PUBLIC 9e1c 0 std::__ndk1::__tree<std::__ndk1::__value_type<std::__ndk1::basic_string<char, std::__ndk1::char_traits<char>, std::__ndk1::allocator<char> >, std::__ndk1::shared_ptr<geode::Hook> >, std::__ndk1::__map_value_compare<std::__ndk1::basic_string<char, std::__ndk1::char_traits<char>, std::__ndk1::allocator<char> >, std::__ndk1::__value_type<std::__ndk1::basic_string<char, std::__ndk1::char_traits<char>, std::__ndk1::allocator<char> >, std::__ndk1::shared_ptr<geode::Hook> >, std::__ndk1::less<std::__ndk1::basic_string<char, std::__ndk1::char_traits<char>, std::__ndk1::allocator<char> > >, true>, std::__ndk1::allocator<std::__ndk1::__value_type<std::__ndk1::basic_string<char, std::__ndk1::char_traits<char>, std::__ndk1::allocator<char> >, std::__ndk1::shared_ptr<geode::Hook> > > >::erase(std::__ndk1::__tree_const_iterator<std::__ndk1::__value_type<std::__ndk1::basic_string<char, std::__ndk1::char_traits<char>, std::__ndk1::allocator<char> >, std::__ndk1::shared_ptr<geode::Hook> >, std::__ndk1::__tree_node<std::__ndk1::__value_type<std::__ndk1::basic_string<char, std::__ndk1::char_traits<char>, std::__ndk1::allocator<char> >, std::__ndk1::shared_ptr<geode::Hook> >, void*>*, long>)
PUBLIC a2c0 0 std::__ndk1::__tree<std::__ndk1::__value_type<std::__ndk1::basic_string<char, std::__ndk1::char_traits<char>, std::__ndk1::allocator<char> >, std::__ndk1::shared_ptr<geode::Hook> >, std::__ndk1::__map_value_compare<std::__ndk1::basic_string<char, std::__ndk1::char_traits<char>, std::__ndk1::allocator<char> >, std::__ndk1::__value_type<std::__ndk1::basic_string<char, std::__ndk1::char_traits<char>, std::__ndk1::allocator<char> >, std::__ndk1::shared_ptr<geode::Hook> >, std::__ndk1::less<std::__ndk1::basic_string<char, std::__ndk1::char_traits<char>, std::__ndk1::allocator<char> > >, true>, std::__ndk1::allocator<std::__ndk1::__value_type<std::__ndk1::basic_string<char, std::__ndk1::char_traits<char>, std::__ndk1::allocator<char> >, std::__ndk1::shared_ptr<geode::Hook> > > >::destroy(std::__ndk1::__tree_node<std::__ndk1::__value_type<std::__ndk1::basic_string<char, std::__ndk1::char_traits<char>, std::__ndk1::allocator<char> >, std::__ndk1::shared_ptr<geode::Hook> >, void*>*)
PUBLIC a344 0 geode::modifier::AsStaticFunction_init<ModSimplePlayer, bool (ModSimplePlayer::*)(int)>::Impl<bool (ModSimplePlayer::*)(int)>::function(ModSimplePlayer*, int)
PUBLIC a444 0 std::__ndk1::shared_ptr<tulip::hook::CallingConvention>::~shared_ptr[abi:ne190000]()
PUBLIC a494 0 tulip::hook::HandlerMetadata::~HandlerMetadata()
PUBLIC a4f8 0 std::__ndk1::__tree<std::__ndk1::__value_type<std::__ndk1::basic_string<char, std::__ndk1::char_traits<char>, std::__ndk1::allocator<char> >, std::__ndk1::shared_ptr<geode::Hook> >, std::__ndk1::__map_value_compare<std::__ndk1::basic_string<char, std::__ndk1::char_traits<char>, std::__ndk1::allocator<char> >, std::__ndk1::__value_type<std::__ndk1::basic_string<char, std::__ndk1::char_traits<char>, std::__ndk1::allocator<char> >, std::__ndk1::shared_ptr<geode::Hook> >, std::__ndk1::less<std::__ndk1::basic_string<char, std::__ndk1::char_traits<char>, std::__ndk1::allocator<char> > >, true>, std::__ndk1::allocator<std::__ndk1::__value_type<std::__ndk1::basic_string<char, std::__ndk1::char_traits<char>, std::__ndk1::allocator<char> >, std::__ndk1::shared_ptr<geode::Hook> > > >::__emplace_unique_key_args<std::__ndk1::basic_string<char, std::__ndk1::char_traits<char>, std::__ndk1::allocator<char> >, std::__ndk1::piecewise_construct_t const&, std::__ndk1::tuple<std::__ndk1::basic_string<char, std::__ndk1::char_traits<char>, std::__ndk1::allocator<char> >&&>, std::__ndk1::tuple<> >(std::__ndk1::basic_string<char, std::__ndk1::char_traits<char>, std::__ndk1::allocator<char> > const&, std::__ndk1::piecewise_construct_t const&, std::__ndk1::tuple<std::__ndk1::basic_string<char, std::__ndk1::char_traits<char>, std::__ndk1::allocator<char> >&&>, std::__ndk1::tuple<>)
PUBLIC a660 0 std::__ndk1::__tree_balance_after_insert[abi:ne190000]<std::__ndk1::__tree_node_base<void*>*>(std::__ndk1::__tree_node_base<void*>*, std::__ndk1::__tree_node_base<void*>*)
PUBLIC a808 0 geode::modifier::ModifyDerive<ModGJItemIcon, GJItemIcon>::apply()
PUBLIC ab68 0 geode::modifier::ModifyBase<geode::modifier::ModifyDerive<ModGJItemIcon, GJItemIcon> >::apply()
PUBLIC ab6c 0 geode::modifier::AsStaticFunction_changeToLockedState<ModGJItemIcon, void (ModGJItemIcon::*)(float)>::Impl<void (ModGJItemIcon::*)(float)>::function(ModGJItemIcon*, float)
PUBLIC b418 0 geode::modifier::ModifyDerive<ModGJGarageLayer, GJGarageLayer>::apply()
PUBLIC b96c 0 geode::modifier::ModifyBase<geode::modifier::ModifyDerive<ModGJGarageLayer, GJGarageLayer> >::apply()
PUBLIC b970 0 geode::modifier::AsStaticFunction_init<ModGJGarageLayer, bool (ModGJGarageLayer::*)()>::Impl<bool (ModGJGarageLayer::*)()>::function(ModGJGarageLayer*)
PUBLIC ba6c 0 geode::modifier::AsStaticFunction_playerColorChanged<ModGJGarageLayer, void (ModGJGarageLayer::*)()>::Impl<void (ModGJGarageLayer::*)()>::function(ModGJGarageLayer*)
PUBLIC bcb8 0 geode::addresser::Addresser::addressOfVirtual<bool, GJGarageLayer, >(bool (GJGarageLayer::*)())
PUBLIC bd60 0 GJGarageLayer::GJGarageLayer(geode::ZeroConstructorType)
PUBLIC be14 0 geode::addresser::Addresser::addressOfVirtual<void, GJGarageLayer, >(void (GJGarageLayer::*)())
PUBLIC bebc 0 std::__ndk1::__function::__base<void ()>::~__base()
PUBLIC bec0 0 std::__ndk1::__function::__func<ModSimplePlayer::init(int)::$_0, std::__ndk1::allocator<ModSimplePlayer::init(int)::$_0>, void ()>::~__func()
PUBLIC bec4 0 std::__ndk1::__function::__func<ModSimplePlayer::init(int)::$_0, std::__ndk1::allocator<ModSimplePlayer::init(int)::$_0>, void ()>::__clone() const
PUBLIC bef8 0 std::__ndk1::__function::__func<ModSimplePlayer::init(int)::$_0, std::__ndk1::allocator<ModSimplePlayer::init(int)::$_0>, void ()>::__clone(std::__ndk1::__function::__base<void ()>*) const
PUBLIC bf0c 0 std::__ndk1::__function::__func<ModSimplePlayer::init(int)::$_0, std::__ndk1::allocator<ModSimplePlayer::init(int)::$_0>, void ()>::destroy()
PUBLIC bf10 0 std::__ndk1::__function::__func<ModSimplePlayer::init(int)::$_0, std::__ndk1::allocator<ModSimplePlayer::init(int)::$_0>, void ()>::destroy_deallocate()
PUBLIC bf14 0 std::__ndk1::__function::__func<ModSimplePlayer::init(int)::$_0, std::__ndk1::allocator<ModSimplePlayer::init(int)::$_0>, void ()>::operator()()
PUBLIC c254 0 std::__ndk1::__function::__func<ModSimplePlayer::init(int)::$_0, std::__ndk1::allocator<ModSimplePlayer::init(int)::$_0>, void ()>::target(std::type_info const&) const
PUBLIC c270 0 std::__ndk1::__function::__func<ModSimplePlayer::init(int)::$_0, std::__ndk1::allocator<ModSimplePlayer::init(int)::$_0>, void ()>::target_type() const
PUBLIC c27c 0 geode::cast::traverseTypeinfoFor(void*, geode::cast::ClassTypeinfoType const*, char const*)
PUBLIC c374 0 geode::impl::ResultData<matjson::Value&, std::__ndk1::basic_string<char, std::__ndk1::char_traits<char>, std::__ndk1::allocator<char> > >::~ResultData()
PUBLIC c3e8 0 std::__ndk1::__variant_detail::__visitation::__base::__dispatcher<(unsigned long)0>::__dispatch[abi:ne190000]<std::__ndk1::__variant_detail::__dtor<std::__ndk1::__variant_detail::__traits<std::__ndk1::reference_wrapper<matjson::Value>, std::__ndk1::basic_string<char, std::__ndk1::char_traits<char>, std::__ndk1::allocator<char> > >, (std::__ndk1::__variant_detail::_Trait)1>::__destroy[abi:ne190000]()::{lambda(auto:1&)#1}, std::__ndk1::__variant_detail::__base<(std::__ndk1::__variant_detail::__traits<std::__ndk1::reference_wrapper<matjson::Value>, std::__ndk1::basic_string<char, std::__ndk1::char_traits<char>, std::__ndk1::allocator<char> > >)1, matjson::Value, std::__ndk1::allocator<char> >&>(std::__ndk1::__variant_detail::__dtor<std::__ndk1::__variant_detail::__traits<std::__ndk1::reference_wrapper<matjson::Value>, std::__ndk1::basic_string<char, std::__ndk1::char_traits<char>, std::__ndk1::allocator<char> > >, (std::__ndk1::__variant_detail::_Trait)1>, std::__ndk1::__variant_detail::__base<(std::__ndk1::__variant_detail::__traits<std::__ndk1::reference_wrapper<matjson::Value>, std::__ndk1::basic_string<char, std::__ndk1::char_traits<char>, std::__ndk1::allocator<char> > >)1, matjson::Value, std::__ndk1::allocator<char> >&)
PUBLIC c3ec 0 std::__ndk1::__variant_detail::__visitation::__base::__dispatcher<(unsigned long)1>::__dispatch[abi:ne190000]<std::__ndk1::__variant_detail::__dtor<std::__ndk1::__variant_detail::__traits<std::__ndk1::reference_wrapper<matjson::Value>, std::__ndk1::basic_string<char, std::__ndk1::char_traits<char>, std::__ndk1::allocator<char> > >, (std::__ndk1::__variant_detail::_Trait)1>::__destroy[abi:ne190000]()::{lambda(auto:1&)#1}, std::__ndk1::__variant_detail::__base<(std::__ndk1::__variant_detail::__traits<std::__ndk1::reference_wrapper<matjson::Value>, std::__ndk1::basic_string<char, std::__ndk1::char_traits<char>, std::__ndk1::allocator<char> > >)1, matjson::Value, std::__ndk1::allocator<char> >&>(std::__ndk1::__variant_detail::__dtor<std::__ndk1::__variant_detail::__traits<std::__ndk1::reference_wrapper<matjson::Value>, std::__ndk1::basic_string<char, std::__ndk1::char_traits<char>, std::__ndk1::allocator<char> > >, (std::__ndk1::__variant_detail::_Trait)1>, std::__ndk1::__variant_detail::__base<(std::__ndk1::__variant_detail::__traits<std::__ndk1::reference_wrapper<matjson::Value>, std::__ndk1::basic_string<char, std::__ndk1::char_traits<char>, std::__ndk1::allocator<char> > >)1, matjson::Value, std::__ndk1::allocator<char> >&)
PUBLIC c400 0 std::__ndk1::__variant_detail::__visitation::__base::__dispatcher<(unsigned long)0>::__dispatch[abi:ne190000]<std::__ndk1::__variant_detail::__dtor<std::__ndk1::__variant_detail::__traits<long, std::__ndk1::basic_string<char, std::__ndk1::char_traits<char>, std::__ndk1::allocator<char> > >, (std::__ndk1::__variant_detail::_Trait)1>::__destroy[abi:ne190000]()::{lambda(auto:1&)#1}, std::__ndk1::__variant_detail::__base<(std::__ndk1::__variant_detail::__traits<long, std::__ndk1::basic_string<char, std::__ndk1::char_traits<char>, std::__ndk1::allocator<char> > >)1, long, std::__ndk1::allocator<char> >&>(std::__ndk1::__variant_detail::__dtor<std::__ndk1::__variant_detail::__traits<long, std::__ndk1::basic_string<char, std::__ndk1::char_traits<char>, std::__ndk1::allocator<char> > >, (std::__ndk1::__variant_detail::_Trait)1>, std::__ndk1::__variant_detail::__base<(std::__ndk1::__variant_detail::__traits<long, std::__ndk1::basic_string<char, std::__ndk1::char_traits<char>, std::__ndk1::allocator<char> > >)1, long, std::__ndk1::allocator<char> >&)
PUBLIC c404 0 std::__ndk1::__variant_detail::__visitation::__base::__dispatcher<(unsigned long)1>::__dispatch[abi:ne190000]<std::__ndk1::__variant_detail::__dtor<std::__ndk1::__variant_detail::__traits<long, std::__ndk1::basic_string<char, std::__ndk1::char_traits<char>, std::__ndk1::allocator<char> > >, (std::__ndk1::__variant_detail::_Trait)1>::__destroy[abi:ne190000]()::{lambda(auto:1&)#1}, std::__ndk1::__variant_detail::__base<(std::__ndk1::__variant_detail::__traits<long, std::__ndk1::basic_string<char, std::__ndk1::char_traits<char>, std::__ndk1::allocator<char> > >)1, long, std::__ndk1::allocator<char> >&>(std::__ndk1::__variant_detail::__dtor<std::__ndk1::__variant_detail::__traits<long, std::__ndk1::basic_string<char, std::__ndk1::char_traits<char>, std::__ndk1::allocator<char> > >, (std::__ndk1::__variant_detail::_Trait)1>, std::__ndk1::__variant_detail::__base<(std::__ndk1::__variant_detail::__traits<long, std::__ndk1::basic_string<char, std::__ndk1::char_traits<char>, std::__ndk1::allocator<char> > >)1, long, std::__ndk1::allocator<char> >&)
PUBLIC c418 0 std::__ndk1::__variant_detail::__visitation::__base::__dispatcher<(unsigned long)0>::__dispatch[abi:ne190000]<std::__ndk1::__variant_detail::__dtor<std::__ndk1::__variant_detail::__traits<bool, std::__ndk1::basic_string<char, std::__ndk1::char_traits<char>, std::__ndk1::allocator<char> > >, (std::__ndk1::__variant_detail::_Trait)1>::__destroy[abi:ne190000]()::{lambda(auto:1&)#1}, std::__ndk1::__variant_detail::__base<(std::__ndk1::__variant_detail::__traits<bool, std::__ndk1::basic_string<char, std::__ndk1::char_traits<char>, std::__ndk1::allocator<char> > >)1, bool, std::__ndk1::allocator<char> >&>(std::__ndk1::__variant_detail::__dtor<std::__ndk1::__variant_detail::__traits<bool, std::__ndk1::basic_string<char, std::__ndk1::char_traits<char>, std::__ndk1::allocator<char> > >, (std::__ndk1::__variant_detail::_Trait)1>, std::__ndk1::__variant_detail::__base<(std::__ndk1::__variant_detail::__traits<bool, std::__ndk1::basic_string<char, std::__ndk1::char_traits<char>, std::__ndk1::allocator<char> > >)1, bool, std::__ndk1::allocator<char> >&)
PUBLIC c41c 0 std::__ndk1::__variant_detail::__visitation::__base::__dispatcher<(unsigned long)1>::__dispatch[abi:ne190000]<std::__ndk1::__variant_detail::__dtor<std::__ndk1::__variant_detail::__traits<bool, std::__ndk1::basic_string<char, std::__ndk1::char_traits<char>, std::__ndk1::allocator<char> > >, (std::__ndk1::__variant_detail::_Trait)1>::__destroy[abi:ne190000]()::{lambda(auto:1&)#1}, std::__ndk1::__variant_detail::__base<(std::__ndk1::__variant_detail::__traits<bool, std::__ndk1::basic_string<char, std::__ndk1::char_traits<char>, std::__ndk1::allocator<char> > >)1, bool, std::__ndk1::allocator<char> >&>(std::__ndk1::__variant_detail::__dtor<std::__ndk1::__variant_detail::__traits<bool, std::__ndk1::basic_string<char, std::__ndk1::char_traits<char>, std::__ndk1::allocator<char> > >, (std::__ndk1::__variant_detail::_Trait)1>, std::__ndk1::__variant_detail::__base<(std::__ndk1::__variant_detail::__traits<bool, std::__ndk1::basic_string<char, std::__ndk1::char_traits<char>, std::__ndk1::allocator<char> > >)1, bool, std::__ndk1::allocator<char> >&)
PUBLIC c430 0 std::__ndk1::uniform_int_distribution<int>::operator()<std::__ndk1::mersenne_twister_engine<unsigned long, (unsigned long)32, (unsigned long)624, (unsigned long)397, (unsigned long)31, (unsigned long)2567483615, (unsigned long)11, (unsigned long)4294967295, (unsigned long)7, (unsigned long)2636928640, (unsigned long)15, (unsigned long)4022730752, (unsigned long)18, (unsigned long)1812433253> >(std::__ndk1::mersenne_twister_engine<unsigned long, (unsigned long)32, (unsigned long)624, (unsigned long)397, (unsigned long)31, (unsigned long)2567483615, (unsigned long)11, (unsigned long)4294967295, (unsigned long)7, (unsigned long)2636928640, (unsigned long)15, (unsigned long)4022730752, (unsigned long)18, (unsigned long)1812433253>&, std::__ndk1::uniform_int_distribution<int>::param_type const&)
PUBLIC c574 0 std::__ndk1::__independent_bits_engine<std::__ndk1::mersenne_twister_engine<unsigned long, (unsigned long)32, (unsigned long)624, (unsigned long)397, (unsigned long)31, (unsigned long)2567483615, (unsigned long)11, (unsigned long)4294967295, (unsigned long)7, (unsigned long)2636928640, (unsigned long)15, (unsigned long)4022730752, (unsigned long)18, (unsigned long)1812433253>, unsigned int>::__eval(std::__ndk1::integral_constant<bool, true>)
PUBLIC c774 0 geode::getMod()
PUBLIC m c7b0 0 geodeImplicitEntry
PUBLIC c7ec 0 GameManager::get()
PUBLIC c7f0 0 GameManager::getPlayerColor()
PUBLIC c808 0 GameManager::getPlayerColor2()
PUBLIC c820 0 GameManager::getPlayerGlow()
PUBLIC c828 0 GameManager::getPlayerGlowColor()
PUBLIC c840 0 GameStatsManager::get()
PUBLIC c844 0 SimplePlayer::disableCustomGlowColor()
PUBLIC c84c 0 SimplePlayer::enableCustomGlowColor(cocos2d::_ccColor3B const&)
PUBLIC c870 0 <.plt ELF section in ninkaz.colorful-icons.android64.so>
STACK CFI INIT 5f50 10 .cfa: sp 0 +
STACK CFI INIT 5f60 8 .cfa: sp 0 +
STACK CFI INIT 5f68 8 .cfa: sp 0 +
STACK CFI INIT 5f70 14 .cfa: sp 0 +
STACK CFI INIT 5f84 1c .cfa: sp 0 +
STACK CFI INIT 5fa0 10 .cfa: sp 0 +
STACK CFI INIT 5fb0 ec .cfa: sp 0 +
STACK CFI INIT 609c 148 .cfa: sp 0 +
STACK CFI 60a0 .cfa: sp 48 +
STACK CFI 60ac .cfa: x29 16 + .ra: .cfa -8 + ^ x29: .cfa -16 + ^ v8: .cfa -24 + ^ v9: .cfa -32 + ^ v10: .cfa -48 + ^
STACK CFI 61d4 .cfa: sp 48 +
STACK CFI 61e0 .cfa: sp 0 +
STACK CFI INIT 61f0 30 .cfa: sp 0 +
STACK CFI INIT 6220 98 .cfa: sp 0 +
STACK CFI INIT 62b8 2ac .cfa: sp 0 +
STACK CFI INIT 6564 8c .cfa: sp 0 +
STACK CFI INIT 65f0 30 .cfa: sp 0 +
STACK CFI INIT 6d68 98 .cfa: sp 0 +
STACK CFI 6d6c .cfa: sp 304 +
STACK CFI 6d78 .cfa: x29 32 + x19: .cfa -8 + ^ x28: .cfa -16 + ^ .ra: .cfa -24 + ^ x29: .cfa -32 + ^
STACK CFI 6dec .cfa: sp 304 +
STACK CFI 6df8 .cfa: sp 0 +
STACK CFI 6dfc .cfa: x29 32 +
STACK CFI INIT 6e00 38 .cfa: sp 0 +
STACK CFI 6e04 .cfa: sp 32 +
STACK CFI 6e0c .cfa: x29 32 + x19: .cfa -16 + ^ .ra: .cfa -24 + ^ x29: .cfa -32 + ^
STACK CFI 6e2c .cfa: sp 32 +
STACK CFI 6e34 .cfa: sp 0 +
STACK CFI INIT 6e38 e0 .cfa: sp 0 +
STACK CFI 6e3c .cfa: sp 80 +
STACK CFI 6e4c .cfa: x29 48 + x19: .cfa -8 + ^ x20: .cfa -16 + ^ x21: .cfa -24 + ^ x22: .cfa -32 + ^ .ra: .cfa -40 + ^ x29: .cfa -48 + ^
STACK CFI 6f00 .cfa: sp 80 +
STACK CFI 6f10 .cfa: sp 0 +
STACK CFI 6f14 .cfa: x29 48 +
STACK CFI INIT 7150 128 .cfa: sp 0 +
STACK CFI 7154 .cfa: sp 80 +
STACK CFI 7164 .cfa: x29 48 + x19: .cfa -8 + ^ x20: .cfa -16 + ^ x21: .cfa -24 + ^ x22: .cfa -32 + ^ .ra: .cfa -40 + ^ x29: .cfa -48 + ^
STACK CFI 7260 .cfa: sp 80 +
STACK CFI 7270 .cfa: sp 0 +
STACK CFI 7274 .cfa: x29 48 +
STACK CFI INIT 7810 18 .cfa: sp 0 +
STACK CFI INIT 7c9c 18 .cfa: sp 0 +
STACK CFI INIT 8128 18 .cfa: sp 0 +
STACK CFI INIT 87a8 4 .cfa: sp 0 +
STACK CFI INIT 87ac 14 .cfa: sp 0 +
STACK CFI 87b0 .cfa: sp 16 +
STACK CFI 87b4 .cfa: x29 16 + .ra: .cfa -8 + ^ x29: .cfa -16 + ^
STACK CFI INIT 87c0 10 .cfa: sp 0 +
STACK CFI 87c4 .cfa: sp 16 +
STACK CFI 87c8 .cfa: x29 16 + .ra: .cfa -8 + ^ x29: .cfa -16 + ^
STACK CFI INIT 8820 30 .cfa: sp 0 +
STACK CFI 8824 .cfa: sp 32 +
STACK CFI 882c .cfa: x29 32 + x19: .cfa -16 + ^ .ra: .cfa -24 + ^ x29: .cfa -32 + ^
STACK CFI 8844 .cfa: sp 32 +
STACK CFI 884c .cfa: sp 0 +
STACK CFI INIT 8850 34 .cfa: sp 0 +
STACK CFI 8854 .cfa: sp 32 +
STACK CFI 885c .cfa: x29 32 + x19: .cfa -16 + ^ .ra: .cfa -24 + ^ x29: .cfa -32 + ^
STACK CFI INIT 8884 14 .cfa: sp 0 +
STACK CFI 8888 .cfa: sp 16 +
STACK CFI 888c .cfa: x29 16 + .ra: .cfa -8 + ^ x29: .cfa -16 + ^
STACK CFI INIT 8898 c .cfa: sp 0 +
STACK CFI 889c .cfa: sp 16 +
STACK CFI 88a0 .cfa: x29 16 + .ra: .cfa -8 + ^ x29: .cfa -16 + ^
STACK CFI INIT 88f4 30 .cfa: sp 0 +
STACK CFI 88f8 .cfa: sp 32 +
STACK CFI 8900 .cfa: x29 32 + x19: .cfa -16 + ^ .ra: .cfa -24 + ^ x29: .cfa -32 + ^
STACK CFI 8918 .cfa: sp 32 +
STACK CFI 8920 .cfa: sp 0 +
STACK CFI INIT 8924 c .cfa: sp 0 +
STACK CFI 8928 .cfa: sp 16 +
STACK CFI 892c .cfa: x29 16 + .ra: .cfa -8 + ^ x29: .cfa -16 + ^
STACK CFI INIT 8930 4 .cfa: sp 0 +
STACK CFI INIT 8934 4 .cfa: sp 0 +
STACK CFI INIT 8938 38 .cfa: sp 0 +
STACK CFI 893c .cfa: sp 32 +
STACK CFI 8944 .cfa: x29 32 + x19: .cfa -16 + ^ .ra: .cfa -24 + ^ x29: .cfa -32 + ^
STACK CFI 8964 .cfa: sp 32 +
STACK CFI 896c .cfa: sp 0 +
STACK CFI INIT 8970 18 .cfa: sp 0 +
STACK CFI INIT 8988 4 .cfa: sp 0 +
STACK CFI INIT 898c 4 .cfa: sp 0 +
STACK CFI INIT 8990 10 .cfa: sp 0 +
STACK CFI INIT 89a0 1c .cfa: sp 0 +
STACK CFI INIT 89bc c .cfa: sp 0 +
STACK CFI INIT 89c8 14 .cfa: sp 0 +
STACK CFI 89cc .cfa: sp 16 +
STACK CFI 89d0 .cfa: x29 16 + .ra: .cfa -8 + ^ x29: .cfa -16 + ^
STACK CFI INIT 8b6c 4 .cfa: sp 0 +
STACK CFI INIT 8eac 50 .cfa: sp 0 +
STACK CFI 8eb0 .cfa: sp 32 +
STACK CFI 8eb8 .cfa: x29 32 + x19: .cfa -16 + ^ .ra: .cfa -24 + ^ x29: .cfa -32 + ^
STACK CFI 8ed0 .cfa: sp 32 +
STACK CFI 8ed8 .cfa: sp 0 +
STACK CFI 8edc .cfa: x29 32 +
STACK CFI 8ef0 .cfa: sp 32 +
STACK CFI 8ef8 .cfa: sp 0 +
STACK CFI INIT 8f70 7c .cfa: sp 0 +
STACK CFI 8f74 .cfa: sp 48 +
STACK CFI 8f80 .cfa: x29 48 + x19: .cfa -8 + ^ x20: .cfa -16 + ^ x21: .cfa -32 + ^ .ra: .cfa -40 + ^ x29: .cfa -48 + ^
STACK CFI 8fcc .cfa: sp 48 +
STACK CFI 8fd8 .cfa: sp 0 +
STACK CFI 8fdc .cfa: sp 48 +
STACK CFI 8fe8 .cfa: sp 0 +
STACK CFI INIT 8fec 4 .cfa: sp 0 +
STACK CFI INIT 9144 34 .cfa: sp 0 +
STACK CFI 9148 .cfa: sp 16 +
STACK CFI 914c .cfa: x29 16 + .ra: .cfa -8 + ^ x29: .cfa -16 + ^
STACK CFI INIT 92ac 80 .cfa: sp 0 +
STACK CFI 92b0 .cfa: sp 48 +
STACK CFI 92bc .cfa: x29 48 + x19: .cfa -8 + ^ x20: .cfa -16 + ^ x21: .cfa -32 + ^ .ra: .cfa -40 + ^ x29: .cfa -48 + ^
STACK CFI 931c .cfa: sp 48 +
STACK CFI 9328 .cfa: sp 0 +
STACK CFI INIT 932c 24 .cfa: sp 0 +
STACK CFI 9330 .cfa: sp 32 +
STACK CFI 9338 .cfa: x29 32 + x19: .cfa -16 + ^ .ra: .cfa -24 + ^ x29: .cfa -32 + ^
STACK CFI 9344 .cfa: sp 32 +
STACK CFI 934c .cfa: sp 0 +
STACK CFI INIT 9850 148 .cfa: sp 0 +
STACK CFI 9854 .cfa: sp 48 +
STACK CFI 9860 .cfa: x29 48 + x19: .cfa -8 + ^ x20: .cfa -16 + ^ x21: .cfa -32 + ^ .ra: .cfa -40 + ^ x29: .cfa -48 + ^
STACK CFI 9988 .cfa: sp 48 +
STACK CFI 9994 .cfa: sp 0 +
STACK CFI INIT 9998 88 .cfa: sp 0 +
STACK CFI 99a0 .cfa: sp 48 +
STACK CFI 99ac .cfa: x29 48 + x19: .cfa -8 + ^ x20: .cfa -16 + ^ x21: .cfa -24 + ^ x22: .cfa -32 + ^ .ra: .cfa -40 + ^ x29: .cfa -48 + ^
STACK CFI 9a10 .cfa: sp 48 +
STACK CFI 9a1c .cfa: sp 0 +
STACK CFI INIT 9bcc 94 .cfa: sp 0 +
STACK CFI 9bd0 .cfa: sp 48 +
STACK CFI 9bdc .cfa: x29 48 + x19: .cfa -8 + ^ x20: .cfa -16 + ^ x21: .cfa -24 + ^ x22: .cfa -32 + ^ .ra: .cfa -40 + ^ x29: .cfa -48 + ^
STACK CFI 9bf4 .cfa: sp 48 +
STACK CFI 9c00 .cfa: sp 0 +
STACK CFI 9c04 .cfa: x29 48 +
STACK CFI 9c48 .cfa: sp 48 +
STACK CFI 9c54 .cfa: sp 0 +
STACK CFI 9c58 .cfa: x29 48 +
STACK CFI INIT 9c60 68 .cfa: sp 0 +
STACK CFI 9c64 .cfa: sp 32 +
STACK CFI 9c6c .cfa: x29 32 + x19: .cfa -8 + ^ x20: .cfa -16 + ^ .ra: .cfa -24 + ^ x29: .cfa -32 + ^
STACK CFI 9c84 .cfa: sp 32 +
STACK CFI 9c8c .cfa: sp 0 +
STACK CFI 9c90 .cfa: x29 32 +
STACK CFI 9cbc .cfa: sp 32 +
STACK CFI 9cc4 .cfa: sp 0 +
STACK CFI INIT 9cc8 14 .cfa: sp 0 +
STACK CFI 9ccc .cfa: sp 16 +
STACK CFI 9cd0 .cfa: x29 16 + .ra: .cfa -8 + ^ x29: .cfa -16 + ^
STACK CFI INIT 9cdc 4 .cfa: sp 0 +
STACK CFI INIT 9ce0 14 .cfa: sp 0 +
STACK CFI INIT 9cf4 128 .cfa: sp 0 +
STACK CFI 9cf8 .cfa: sp 64 +
STACK CFI 9d08 .cfa: x29 64 + x19: .cfa -8 + ^ x20: .cfa -16 + ^ x21: .cfa -24 + ^ x22: .cfa -32 + ^ x23: .cfa -40 + ^ x24: .cfa -48 + ^ .ra: .cfa -56 + ^ x29: .cfa -64 + ^
STACK CFI 9e08 .cfa: sp 64 +
STACK CFI 9e18 .cfa: sp 0 +
STACK CFI INIT 9e1c 4a4 .cfa: sp 0 +
STACK CFI 9e20 .cfa: sp 32 +
STACK CFI 9e28 .cfa: x29 32 + x19: .cfa -8 + ^ x20: .cfa -16 + ^ .ra: .cfa -24 + ^ x29: .cfa -32 + ^
STACK CFI a208 .cfa: sp 32 +
STACK CFI a210 .cfa: sp 0 +
STACK CFI a214 .cfa: x29 32 +
STACK CFI INIT a2c0 84 .cfa: sp 0 +
STACK CFI a2c8 .cfa: sp 32 +
STACK CFI a2d0 .cfa: x29 32 + x19: .cfa -8 + ^ x20: .cfa -16 + ^ .ra: .cfa -24 + ^ x29: .cfa -32 + ^
STACK CFI a310 .cfa: sp 32 +
STACK CFI a318 .cfa: sp 0 +
STACK CFI a320 .cfa: x29 32 +
STACK CFI INIT a444 50 .cfa: sp 0 +
STACK CFI a448 .cfa: sp 32 +
STACK CFI a450 .cfa: x29 32 + x19: .cfa -16 + ^ .ra: .cfa -24 + ^ x29: .cfa -32 + ^
STACK CFI a468 .cfa: sp 32 +
STACK CFI a470 .cfa: sp 0 +
STACK CFI a474 .cfa: x29 32 +
STACK CFI a488 .cfa: sp 32 +
STACK CFI a490 .cfa: sp 0 +
STACK CFI INIT a494 64 .cfa: sp 0 +
STACK CFI a498 .cfa: sp 32 +
STACK CFI a4a0 .cfa: x29 32 + x19: .cfa -16 + ^ .ra: .cfa -24 + ^ x29: .cfa -32 + ^
STACK CFI a4cc .cfa: sp 32 +
STACK CFI a4d4 .cfa: sp 0 +
STACK CFI a4d8 .cfa: x29 32 +
STACK CFI a4ec .cfa: sp 32 +
STACK CFI a4f4 .cfa: sp 0 +
STACK CFI INIT a4f8 168 .cfa: sp 0 +
STACK CFI a4fc .cfa: sp 80 +
STACK CFI a510 .cfa: x29 80 + x19: .cfa -8 + ^ x20: .cfa -16 + ^ x21: .cfa -24 + ^ x22: .cfa -32 + ^ x23: .cfa -40 + ^ x24: .cfa -48 + ^ x25: .cfa -56 + ^ x26: .cfa -64 + ^ .ra: .cfa -72 + ^ x29: .cfa -80 + ^
STACK CFI a648 .cfa: sp 80 +
STACK CFI a65c .cfa: sp 0 +
STACK CFI INIT a660 1a8 .cfa: sp 0 +
STACK CFI INIT ab68 4 .cfa: sp 0 +
STACK CFI INIT b96c 4 .cfa: sp 0 +
STACK CFI INIT bd60 b4 .cfa: sp 0 +
STACK CFI bd64 .cfa: sp 32 +
STACK CFI bd6c .cfa: x29 32 + x19: .cfa -16 + ^ .ra: .cfa -24 + ^ x29: .cfa -32 + ^
STACK CFI be08 .cfa: sp 32 +
STACK CFI be10 .cfa: sp 0 +
STACK CFI INIT bebc 4 .cfa: sp 0 +
STACK CFI INIT bec0 4 .cfa: sp 0 +
STACK CFI INIT bec4 34 .cfa: sp 0 +
STACK CFI bec8 .cfa: sp 32 +
STACK CFI bed0 .cfa: x29 32 + x19: .cfa -16 + ^ .ra: .cfa -24 + ^ x29: .cfa -32 + ^
STACK CFI beec .cfa: sp 32 +
STACK CFI bef4 .cfa: sp 0 +
STACK CFI INIT bef8 14 .cfa: sp 0 +
STACK CFI INIT bf0c 4 .cfa: sp 0 +
STACK CFI INIT bf10 4 .cfa: sp 0 +
STACK CFI INIT c254 1c .cfa: sp 0 +
STACK CFI INIT c270 c .cfa: sp 0 +
STACK CFI INIT c27c f8 .cfa: sp 0 +
STACK CFI c280 .cfa: sp 64 +
STACK CFI c290 .cfa: x29 64 + x19: .cfa -8 + ^ x20: .cfa -16 + ^ x21: .cfa -24 + ^ x22: .cfa -32 + ^ x23: .cfa -48 + ^ .ra: .cfa -56 + ^ x29: .cfa -64 + ^
STACK CFI c2ec .cfa: sp 64 +
STACK CFI c2fc .cfa: sp 0 +
STACK CFI c300 .cfa: x29 64 +
STACK CFI c31c .cfa: sp 64 +
STACK CFI c32c .cfa: sp 0 +
STACK CFI c330 .cfa: x29 64 +
STACK CFI c360 .cfa: sp 64 +
STACK CFI c370 .cfa: sp 0 +
STACK CFI INIT c3e8 4 .cfa: sp 0 +
STACK CFI INIT c3ec 14 .cfa: sp 0 +
STACK CFI INIT c400 4 .cfa: sp 0 +
STACK CFI INIT c404 14 .cfa: sp 0 +
STACK CFI INIT c418 4 .cfa: sp 0 +
STACK CFI INIT c41c 14 .cfa: sp 0 +
STACK CFI INIT c430 144 .cfa: sp 0 +
STACK CFI c434 .cfa: sp 128 +
STACK CFI c444 .cfa: x29 48 + x19: .cfa -8 + ^ x20: .cfa -16 + ^ x21: .cfa -32 + ^ .ra: .cfa -40 + ^ x29: .cfa -48 + ^
STACK CFI c50c .cfa: sp 128 +
STACK CFI c51c .cfa: sp 0 +
STACK CFI c520 .cfa: x29 48 +
STACK CFI INIT c574 200 .cfa: sp 0 +
STACK CFI INIT c774 3c .cfa: sp 0 +
STACK CFI c778 .cfa: sp 32 +
STACK CFI c780 .cfa: x29 32 + x19: .cfa -16 + ^ .ra: .cfa -24 + ^ x29: .cfa -32 + ^
STACK CFI c78c .cfa: sp 32 +
STACK CFI c794 .cfa: sp 0 +
STACK CFI c798 .cfa: x29 32 +
STACK CFI c7a4 .cfa: sp 32 +
STACK CFI c7ac .cfa: sp 0 +
STACK CFI INIT c7b0 3c .cfa: sp 0 +
STACK CFI c7b4 .cfa: sp 32 +
STACK CFI c7bc .cfa: x29 32 + x19: .cfa -16 + ^ .ra: .cfa -24 + ^ x29: .cfa -32 + ^
STACK CFI c7c8 .cfa: sp 32 +
STACK CFI c7d0 .cfa: sp 0 +
STACK CFI c7d4 .cfa: x29 32 +
STACK CFI c7e0 .cfa: sp 32 +
STACK CFI c7e8 .cfa: sp 0 +
STACK CFI INIT c7ec 4 .cfa: sp 0 +
STACK CFI INIT c7f0 18 .cfa: sp 0 +
STACK CFI INIT c808 18 .cfa: sp 0 +
STACK CFI INIT c820 8 .cfa: sp 0 +
STACK CFI INIT c828 18 .cfa: sp 0 +
STACK CFI INIT c840 4 .cfa: sp 0 +
STACK CFI INIT c844 8 .cfa: sp 0 +
STACK CFI INIT c84c 20 .cfa: sp 0 +
STACK CFI INIT 6620 3a8 .cfa: sp 0 +
STACK CFI 6624 .cfa: sp 112 +
STACK CFI 6638 .cfa: x29 64 + x19: .cfa -8 + ^ x20: .cfa -16 + ^ x21: .cfa -24 + ^ x22: .cfa -32 + ^ x23: .cfa -40 + ^ x24: .cfa -48 + ^ .ra: .cfa -56 + ^ x29: .cfa -64 + ^
STACK CFI 6980 .cfa: sp 112 +
STACK CFI 6994 .cfa: sp 0 +
STACK CFI 6998 .cfa: x29 64 +
STACK CFI INIT 69c8 218 .cfa: sp 0 +
STACK CFI 69cc .cfa: sp 192 +
STACK CFI 69dc .cfa: x29 48 + x19: .cfa -8 + ^ x20: .cfa -16 + ^ x21: .cfa -24 + ^ x22: .cfa -32 + ^ .ra: .cfa -40 + ^ x29: .cfa -48 + ^
STACK CFI 6b68 .cfa: sp 192 +
STACK CFI 6b78 .cfa: sp 0 +
STACK CFI 6b7c .cfa: x29 48 +
STACK CFI INIT 6be0 188 .cfa: sp 0 +
STACK CFI 6be4 .cfa: sp 160 +
STACK CFI 6bf4 .cfa: x29 48 + x19: .cfa -8 + ^ x20: .cfa -16 + ^ x21: .cfa -32 + ^ .ra: .cfa -40 + ^ x29: .cfa -48 + ^
STACK CFI 6d0c .cfa: sp 160 +
STACK CFI 6d1c .cfa: sp 0 +
STACK CFI 6d20 .cfa: x29 48 +
STACK CFI INIT 6f18 238 .cfa: sp 0 +
STACK CFI 6f1c .cfa: sp 64 +
STACK CFI 6f2c .cfa: x29 64 + x19: .cfa -8 + ^ x20: .cfa -16 + ^ x21: .cfa -24 + ^ x22: .cfa -32 + ^ x23: .cfa -40 + ^ x28: .cfa -48 + ^ .ra: .cfa -56 + ^ x29: .cfa -64 + ^
STACK CFI 70f8 .cfa: sp 64 +
STACK CFI 7108 .cfa: sp 0 +
STACK CFI 710c .cfa: x29 64 +
STACK CFI INIT 7278 124 .cfa: sp 0 +
STACK CFI 727c .cfa: sp 80 +
STACK CFI 728c .cfa: x29 48 + x19: .cfa -8 + ^ x20: .cfa -16 + ^ x21: .cfa -32 + ^ .ra: .cfa -40 + ^ x29: .cfa -48 + ^
STACK CFI 7358 .cfa: sp 80 +
STACK CFI 7368 .cfa: sp 0 +
STACK CFI 736c .cfa: x29 48 +
STACK CFI INIT 739c 474 .cfa: sp 0 +
STACK CFI 73a0 .cfa: sp 224 +
STACK CFI 73bc .cfa: x29 96 + x19: .cfa -8 + ^ x20: .cfa -16 + ^ x21: .cfa -24 + ^ x22: .cfa -32 + ^ x23: .cfa -40 + ^ x24: .cfa -48 + ^ x25: .cfa -56 + ^ x26: .cfa -64 + ^ x27: .cfa -72 + ^ x28: .cfa -80 + ^ .ra: .cfa -88 + ^ x29: .cfa -96 + ^
STACK CFI 761c .cfa: sp 224 +
STACK CFI 7638 .cfa: sp 0 +
STACK CFI 763c .cfa: x29 96 +
STACK CFI 7708 .cfa: sp 224 +
STACK CFI 7724 .cfa: sp 0 +
STACK CFI 7728 .cfa: x29 96 +
STACK CFI INIT 7828 474 .cfa: sp 0 +
STACK CFI 782c .cfa: sp 224 +
STACK CFI 7848 .cfa: x29 96 + x19: .cfa -8 + ^ x20: .cfa -16 + ^ x21: .cfa -24 + ^ x22: .cfa -32 + ^ x23: .cfa -40 + ^ x24: .cfa -48 + ^ x25: .cfa -56 + ^ x26: .cfa -64 + ^ x27: .cfa -72 + ^ x28: .cfa -80 + ^ .ra: .cfa -88 + ^ x29: .cfa -96 + ^
STACK CFI 7aa8 .cfa: sp 224 +
STACK CFI 7ac4 .cfa: sp 0 +
STACK CFI 7ac8 .cfa: x29 96 +
STACK CFI 7b94 .cfa: sp 224 +
STACK CFI 7bb0 .cfa: sp 0 +
STACK CFI 7bb4 .cfa: x29 96 +
STACK CFI INIT 7cb4 474 .cfa: sp 0 +
STACK CFI 7cb8 .cfa: sp 224 +
STACK CFI 7cd4 .cfa: x29 96 + x19: .cfa -8 + ^ x20: .cfa -16 + ^ x21: .cfa -24 + ^ x22: .cfa -32 + ^ x23: .cfa -40 + ^ x24: .cfa -48 + ^ x25: .cfa -56 + ^ x26: .cfa -64 + ^ x27: .cfa -72 + ^ x28: .cfa -80 + ^ .ra: .cfa -88 + ^ x29: .cfa -96 + ^
STACK CFI 7f34 .cfa: sp 224 +
STACK CFI 7f50 .cfa: sp 0 +
STACK CFI 7f54 .cfa: x29 96 +
STACK CFI 8020 .cfa: sp 224 +
STACK CFI 803c .cfa: sp 0 +
STACK CFI 8040 .cfa: x29 96 +
STACK CFI INIT 8140 18c .cfa: sp 0 +
STACK CFI 8144 .cfa: sp 112 +
STACK CFI 8154 .cfa: x29 48 + x19: .cfa -8 + ^ x20: .cfa -16 + ^ x21: .cfa -32 + ^ .ra: .cfa -40 + ^ x29: .cfa -48 + ^
STACK CFI 8224 .cfa: sp 112 +
STACK CFI 8234 .cfa: sp 0 +
STACK CFI 8238 .cfa: x29 48 +
STACK CFI INIT 82cc 3d0 .cfa: sp 0 +
STACK CFI 82d0 .cfa: sp 176 +
STACK CFI 82ec .cfa: x29 96 + x19: .cfa -8 + ^ x20: .cfa -16 + ^ x21: .cfa -24 + ^ x22: .cfa -32 + ^ x23: .cfa -40 + ^ x24: .cfa -48 + ^ x25: .cfa -56 + ^ x26: .cfa -64 + ^ x27: .cfa -72 + ^ x28: .cfa -80 + ^ .ra: .cfa -88 + ^ x29: .cfa -96 + ^
STACK CFI 832c .cfa: sp 176 +
STACK CFI 8348 .cfa: sp 0 +
STACK CFI 834c .cfa: x29 96 +
STACK CFI INIT 869c 10c .cfa: sp 0 +
STACK CFI 86a0 .cfa: sp 64 +
STACK CFI 86b0 .cfa: x29 64 + x19: .cfa -8 + ^ x20: .cfa -16 + ^ x21: .cfa -24 + ^ x22: .cfa -32 + ^ x23: .cfa -48 + ^ .ra: .cfa -56 + ^ x29: .cfa -64 + ^
STACK CFI 8788 .cfa: sp 64 +
STACK CFI 8798 .cfa: sp 0 +
STACK CFI 879c .cfa: x29 64 +
STACK CFI INIT 87d0 50 .cfa: sp 0 +
STACK CFI 87d4 .cfa: sp 32 +
STACK CFI 87dc .cfa: x29 32 + x19: .cfa -8 + ^ x20: .cfa -16 + ^ .ra: .cfa -24 + ^ x29: .cfa -32 + ^
STACK CFI INIT 88a4 50 .cfa: sp 0 +
STACK CFI 88a8 .cfa: sp 32 +
STACK CFI 88b0 .cfa: x29 32 + x19: .cfa -8 + ^ x20: .cfa -16 + ^ .ra: .cfa -24 + ^ x29: .cfa -32 + ^
STACK CFI INIT 89dc 190 .cfa: sp 0 +
STACK CFI 89e0 .cfa: sp 112 +
STACK CFI 89f0 .cfa: x29 48 + x19: .cfa -8 + ^ x20: .cfa -16 + ^ x21: .cfa -32 + ^ .ra: .cfa -40 + ^ x29: .cfa -48 + ^
STACK CFI 8ac4 .cfa: sp 112 +
STACK CFI 8ad4 .cfa: sp 0 +
STACK CFI 8ad8 .cfa: x29 48 +
STACK CFI INIT 8b70 33c .cfa: sp 0 +
STACK CFI 8b74 .cfa: sp 192 +
STACK CFI 8b88 .cfa: x29 64 + x19: .cfa -8 + ^ x20: .cfa -16 + ^ x21: .cfa -24 + ^ x22: .cfa -32 + ^ x23: .cfa -48 + ^ .ra: .cfa -56 + ^ x29: .cfa -64 + ^
STACK CFI 8d88 .cfa: sp 192 +
STACK CFI 8d9c .cfa: sp 0 +
STACK CFI 8da0 .cfa: x29 64 +
STACK CFI INIT 8efc 74 .cfa: sp 0 +
STACK CFI 8f00 .cfa: sp 48 +
STACK CFI 8f0c .cfa: x29 32 + x19: .cfa -8 + ^ x20: .cfa -16 + ^ .ra: .cfa -24 + ^ x29: .cfa -32 + ^
STACK CFI 8f58 .cfa: sp 48 +
STACK CFI 8f64 .cfa: sp 0 +
STACK CFI 8f68 .cfa: x29 32 +
STACK CFI INIT 8ff0 154 .cfa: sp 0 +
STACK CFI 8ff4 .cfa: sp 384 +
STACK CFI 9008 .cfa: x29 64 + x19: .cfa -8 + ^ x20: .cfa -16 + ^ x21: .cfa -24 + ^ x22: .cfa -32 + ^ x23: .cfa -40 + ^ x28: .cfa -48 + ^ .ra: .cfa -56 + ^ x29: .cfa -64 + ^
STACK CFI 90ec .cfa: sp 384 +
STACK CFI 9100 .cfa: sp 0 +
STACK CFI 9104 .cfa: x29 64 +
STACK CFI INIT 9178 134 .cfa: sp 0 +
STACK CFI 917c .cfa: sp 80 +
STACK CFI 9190 .cfa: x29 80 + x19: .cfa -8 + ^ x20: .cfa -16 + ^ x21: .cfa -24 + ^ x22: .cfa -32 + ^ x23: .cfa -40 + ^ x24: .cfa -48 + ^ x25: .cfa -56 + ^ x26: .cfa -64 + ^ .ra: .cfa -72 + ^ x29: .cfa -80 + ^
STACK CFI 9260 .cfa: sp 80 +
STACK CFI 9274 .cfa: sp 0 +
STACK CFI 9278 .cfa: x29 80 +
STACK CFI INIT 9350 1a4 .cfa: sp 0 +
STACK CFI 9354 .cfa: sp 112 +
STACK CFI 936c .cfa: x29 80 + x19: .cfa -8 + ^ x20: .cfa -16 + ^ x21: .cfa -24 + ^ x22: .cfa -32 + ^ x23: .cfa -40 + ^ x24: .cfa -48 + ^ x25: .cfa -56 + ^ x26: .cfa -64 + ^ .ra: .cfa -72 + ^ x29: .cfa -80 + ^
STACK CFI 945c .cfa: sp 112 +
STACK CFI 9474 .cfa: sp 0 +
STACK CFI 9478 .cfa: x29 80 +
STACK CFI INIT 94f4 1ec .cfa: sp 0 +
STACK CFI 94f8 .cfa: sp 128 +
STACK CFI 9514 .cfa: x29 96 + x19: .cfa -8 + ^ x20: .cfa -16 + ^ x21: .cfa -24 + ^ x22: .cfa -32 + ^ x23: .cfa -40 + ^ x24: .cfa -48 + ^ x25: .cfa -56 + ^ x26: .cfa -64 + ^ x27: .cfa -80 + ^ .ra: .cfa -88 + ^ x29: .cfa -96 + ^
STACK CFI 9690 .cfa: sp 128 +
STACK CFI 96ac .cfa: sp 0 +
STACK CFI 96b0 .cfa: x29 96 +
STACK CFI INIT 96e0 170 .cfa: sp 0 +
STACK CFI 96e4 .cfa: sp 48 +
STACK CFI 96f0 .cfa: x29 48 + x19: .cfa -8 + ^ x20: .cfa -16 + ^ x21: .cfa -32 + ^ .ra: .cfa -40 + ^ x29: .cfa -48 + ^
STACK CFI 9824 .cfa: sp 48 +
STACK CFI 9830 .cfa: sp 0 +
STACK CFI 9834 .cfa: x29 48 +
STACK CFI INIT 9a20 1ac .cfa: sp 0 +
STACK CFI 9a24 .cfa: sp 128 +
STACK CFI 9a3c .cfa: x29 80 + x19: .cfa -8 + ^ x20: .cfa -16 + ^ x21: .cfa -24 + ^ x22: .cfa -32 + ^ x23: .cfa -40 + ^ x24: .cfa -48 + ^ x25: .cfa -64 + ^ .ra: .cfa -72 + ^ x29: .cfa -80 + ^
STACK CFI 9b60 .cfa: sp 128 +
STACK CFI 9b78 .cfa: sp 0 +
STACK CFI 9b7c .cfa: x29 80 +
STACK CFI INIT a344 100 .cfa: sp 0 +
STACK CFI a348 .cfa: sp 112 +
STACK CFI a358 .cfa: x29 48 + x19: .cfa -8 + ^ x20: .cfa -16 + ^ x21: .cfa -24 + ^ x22: .cfa -32 + ^ .ra: .cfa -40 + ^ x29: .cfa -48 + ^
STACK CFI a3e0 .cfa: sp 112 +
STACK CFI a3f0 .cfa: sp 0 +
STACK CFI a3f4 .cfa: x29 48 +
STACK CFI INIT a808 360 .cfa: sp 0 +
STACK CFI a80c .cfa: sp 240 +
STACK CFI a820 .cfa: x29 64 + x19: .cfa -8 + ^ x20: .cfa -16 + ^ x21: .cfa -24 + ^ x22: .cfa -32 + ^ x23: .cfa -48 + ^ .ra: .cfa -56 + ^ x29: .cfa -64 + ^
STACK CFI aa3c .cfa: sp 240 +
STACK CFI aa50 .cfa: sp 0 +
STACK CFI aa54 .cfa: x29 64 +
STACK CFI INIT ab6c 8ac .cfa: sp 0 +
STACK CFI ab70 .cfa: sp 144 +
STACK CFI ab90 .cfa: x29 96 + x19: .cfa -8 + ^ x20: .cfa -16 + ^ x21: .cfa -24 + ^ x22: .cfa -32 + ^ x23: .cfa -40 + ^ x24: .cfa -48 + ^ x25: .cfa -56 + ^ x26: .cfa -64 + ^ x27: .cfa -72 + ^ x28: .cfa -80 + ^ .ra: .cfa -88 + ^ x29: .cfa -96 + ^ v8: .cfa -112 + ^
STACK CFI aff8 .cfa: sp 144 +
STACK CFI b018 .cfa: sp 0 +
STACK CFI b01c .cfa: x29 96 +
STACK CFI b36c .cfa: sp 144 +
STACK CFI b38c .cfa: sp 0 +
STACK CFI b390 .cfa: x29 96 +
STACK CFI INIT b418 554 .cfa: sp 0 +
STACK CFI b41c .cfa: sp 256 +
STACK CFI b434 .cfa: x29 80 + x19: .cfa -8 + ^ x20: .cfa -16 + ^ x21: .cfa -24 + ^ x22: .cfa -32 + ^ x23: .cfa -40 + ^ x24: .cfa -48 + ^ x25: .cfa -56 + ^ x26: .cfa -64 + ^ .ra: .cfa -72 + ^ x29: .cfa -80 + ^
STACK CFI b7c4 .cfa: sp 256 +
STACK CFI b7dc .cfa: sp 0 +
STACK CFI b7e0 .cfa: x29 80 +
STACK CFI INIT b970 fc .cfa: sp 0 +
STACK CFI b974 .cfa: sp 80 +
STACK CFI b984 .cfa: x29 48 + x19: .cfa -8 + ^ x20: .cfa -16 + ^ x21: .cfa -24 + ^ x22: .cfa -32 + ^ .ra: .cfa -40 + ^ x29: .cfa -48 + ^
STACK CFI ba28 .cfa: sp 80 +
STACK CFI ba38 .cfa: sp 0 +
STACK CFI ba3c .cfa: x29 48 +
STACK CFI INIT ba6c 24c .cfa: sp 0 +
STACK CFI ba70 .cfa: sp 80 +
STACK CFI ba84 .cfa: x29 80 + x19: .cfa -8 + ^ x20: .cfa -16 + ^ x21: .cfa -24 + ^ x22: .cfa -32 + ^ x23: .cfa -40 + ^ x24: .cfa -48 + ^ x25: .cfa -64 + ^ .ra: .cfa -72 + ^ x29: .cfa -80 + ^
STACK CFI bc78 .cfa: sp 80 +
STACK CFI bc8c .cfa: sp 0 +
STACK CFI bc90 .cfa: x29 80 +
STACK CFI INIT bcb8 a8 .cfa: sp 0 +
STACK CFI bcbc .cfa: sp 32 +
STACK CFI bcc4 .cfa: x29 32 + x19: .cfa -16 + ^ .ra: .cfa -24 + ^ x29: .cfa -32 + ^
STACK CFI bcf8 .cfa: sp 32 +
STACK CFI bd00 .cfa: sp 0 +
STACK CFI bd04 .cfa: x29 32 +
STACK CFI bd08 .cfa: sp 32 +
STACK CFI bd10 .cfa: sp 0 +
STACK CFI bd14 .cfa: x29 32 +
STACK CFI INIT be14 a8 .cfa: sp 0 +
STACK CFI be18 .cfa: sp 32 +
STACK CFI be20 .cfa: x29 32 + x19: .cfa -16 + ^ .ra: .cfa -24 + ^ x29: .cfa -32 + ^
STACK CFI be54 .cfa: sp 32 +
STACK CFI be5c .cfa: sp 0 +
STACK CFI be60 .cfa: x29 32 +
STACK CFI be64 .cfa: sp 32 +
STACK CFI be6c .cfa: sp 0 +
STACK CFI be70 .cfa: x29 32 +
STACK CFI INIT bf14 340 .cfa: sp 0 +
STACK CFI bf18 .cfa: sp 64 +
STACK CFI bf2c .cfa: x29 56 + x19: .cfa -8 + ^ x20: .cfa -16 + ^ x21: .cfa -24 + ^ x22: .cfa -32 + ^ x28: .cfa -40 + ^ .ra: .cfa -48 + ^ x29: .cfa -56 + ^ v8: .cfa -64 + ^
STACK CFI c1f8 .cfa: sp 64 +
STACK CFI c20c .cfa: sp 0 +
STACK CFI c210 .cfa: x29 56 +
STACK CFI INIT c374 74 .cfa: sp 0 +
STACK CFI c378 .cfa: sp 48 +
STACK CFI c384 .cfa: x29 32 + x19: .cfa -8 + ^ x20: .cfa -16 + ^ .ra: .cfa -24 + ^ x29: .cfa -32 + ^
STACK CFI c3d0 .cfa: sp 48 +
STACK CFI c3dc .cfa: sp 0 +
STACK CFI c3e0 .cfa: x29 32 +
