MODULE Linux arm64 14BD3528BA02FF9208939EC67CEA61040 weebify.level_info_in_pause_menu.android64.so
INFO CODE_ID 2835BD1402BA92FF08939EC67CEA610406F21A32
INFO GENERATOR mozilla/dump_syms 2.3.4
FILE 0 /home/runner/work/lvlinfo-in-pause-geode/lvlinfo-in-pause-geode/geode-sdk-clone/loader/include/Geode/utils/addresser.hpp
FILE 1 /usr/local/lib/android/sdk/ndk/27.2.12479018/toolchains/llvm/prebuilt/linux-x86_64/sysroot/usr/include/c++/v1/ostream
FILE 2 /usr/local/lib/android/sdk/ndk/27.2.12479018/toolchains/llvm/prebuilt/linux-x86_64/sysroot/usr/include/c++/v1/__tree
FILE 3 /usr/local/lib/android/sdk/ndk/27.2.12479018/toolchains/llvm/prebuilt/linux-x86_64/sysroot/usr/include/c++/v1/variant
FILE 4 /usr/local/lib/android/sdk/ndk/27.2.12479018/toolchains/llvm/prebuilt/linux-x86_64/sysroot/usr/include/c++/v1/locale
FILE 5 /usr/local/lib/android/sdk/ndk/27.2.12479018/toolchains/llvm/prebuilt/linux-x86_64/sysroot/usr/include/c++/v1/stdexcept
FILE 6 /usr/local/lib/android/sdk/ndk/27.2.12479018/toolchains/llvm/prebuilt/linux-x86_64/sysroot/usr/include/c++/v1/new
FILE 7 /home/runner/work/lvlinfo-in-pause-geode/lvlinfo-in-pause-geode/build/bindings/bindings/Geode/modify/PauseLayer.hpp
FILE 8 /usr/local/lib/android/sdk/ndk/27.2.12479018/toolchains/llvm/prebuilt/linux-x86_64/sysroot/usr/include/c++/v1/sstream
FILE 9 /home/runner/work/lvlinfo-in-pause-geode/lvlinfo-in-pause-geode/src/utils.hpp
FILE 10 /usr/local/lib/android/sdk/ndk/27.2.12479018/toolchains/llvm/prebuilt/linux-x86_64/sysroot/usr/include/c++/v1/string
FILE 11 /usr/local/lib/android/sdk/ndk/27.2.12479018/toolchains/llvm/prebuilt/linux-x86_64/sysroot/usr/include/c++/v1/deque
FILE 12 /home/runner/work/lvlinfo-in-pause-geode/lvlinfo-in-pause-geode/geode-sdk-clone/loader/include/Geode/modify/Modify.hpp
FILE 13 /home/runner/work/lvlinfo-in-pause-geode/lvlinfo-in-pause-geode/cpm-cache/result/28b1b03e0682509636d5e5825265ce2421aac4dc/include/Geode/Result.hpp
FILE 14 /usr/local/lib/android/sdk/ndk/27.2.12479018/toolchains/llvm/prebuilt/linux-x86_64/sysroot/usr/include/c++/v1/vector
FILE 15 /usr/local/lib/android/sdk/ndk/27.2.12479018/toolchains/llvm/prebuilt/linux-x86_64/sysroot/usr/include/c++/v1/__memory/unique_ptr.h
FILE 16 /usr/local/lib/android/sdk/ndk/27.2.12479018/toolchains/llvm/prebuilt/linux-x86_64/sysroot/usr/include/c++/v1/__split_buffer
FILE 17 /usr/local/lib/android/sdk/ndk/27.2.12479018/toolchains/llvm/prebuilt/linux-x86_64/sysroot/usr/include/c++/v1/__memory/shared_ptr.h
FILE 18 /home/runner/work/lvlinfo-in-pause-geode/lvlinfo-in-pause-geode/cpm-cache/tuliphook/727bc6fdab39f84eb52f1519195d5488a312e77e/include/tulip/HandlerData.hpp
FILE 19 /home/runner/work/lvlinfo-in-pause-geode/lvlinfo-in-pause-geode/build/bindings/bindings/Geode/binding/PauseLayer.hpp
FILE 20 /home/runner/work/lvlinfo-in-pause-geode/lvlinfo-in-pause-geode/src/main.cpp
FILE 21 /home/runner/work/lvlinfo-in-pause-geode/lvlinfo-in-pause-geode/geode-sdk-clone/entry.cpp
FILE 22 /home/runner/work/lvlinfo-in-pause-geode/lvlinfo-in-pause-geode/build/bindings/bindings/Geode/GeneratedSource.cpp
FILE 23 /home/runner/work/lvlinfo-in-pause-geode/lvlinfo-in-pause-geode/cpm-cache/tuliphook/727bc6fdab39f84eb52f1519195d5488a312e77e/include/tulip/WrapperData.hpp
FILE 24 /home/runner/work/lvlinfo-in-pause-geode/lvlinfo-in-pause-geode/cpm-cache/tuliphook/727bc6fdab39f84eb52f1519195d5488a312e77e/include/tulip/AbstractFunction.hpp
PUBLIC 60a0 0 __on_dlclose
PUBLIC 60b0 0 __emutls_unregister_key
PUBLIC 60b8 0 __on_dlclose_late
PUBLIC 60c0 0 __atexit_handler_wrapper
PUBLIC 60d4 0 atexit
PUBLIC 60f0 0 pthread_atfork
PUBLIC 6100 0 unwind_phase2
PUBLIC 6234 0 _Unwind_Resume
PUBLIC 62b8 0 unwind_phase2_forced
PUBLIC m 63ac 0 __unw_init_local
PUBLIC m 6454 0 __unw_get_reg
PUBLIC 64d0 0 __unw_step_stage2
PUBLIC m 64e4 0 __unw_get_proc_info
PUBLIC m 6524 0 __unw_resume
PUBLIC 654c 0 libunwind::CFI_Parser<libunwind::LocalAddressSpace>::decodeFDE(libunwind::LocalAddressSpace&, unsigned long, libunwind::CFI_Parser<libunwind::LocalAddressSpace>::FDE_Info*, libunwind::CFI_Parser<libunwind::LocalAddressSpace>::CIE_Info*, bool)
PUBLIC 66dc 0 libunwind::CFI_Parser<libunwind::LocalAddressSpace>::parseCIE(libunwind::LocalAddressSpace&, unsigned long, libunwind::CFI_Parser<libunwind::LocalAddressSpace>::CIE_Info*)
PUBLIC 69a4 0 libunwind::AbstractUnwindCursor::~AbstractUnwindCursor()
PUBLIC 69ac 0 libunwind::UnwindCursor<libunwind::LocalAddressSpace, libunwind::Registers_arm64>::~UnwindCursor()
PUBLIC 69b4 0 libunwind::UnwindCursor<libunwind::LocalAddressSpace, libunwind::Registers_arm64>::validReg(int)
PUBLIC 69f8 0 libunwind::UnwindCursor<libunwind::LocalAddressSpace, libunwind::Registers_arm64>::getReg(int)
PUBLIC 6ae0 0 libunwind::UnwindCursor<libunwind::LocalAddressSpace, libunwind::Registers_arm64>::setReg(int, unsigned long)
PUBLIC 6bc8 0 libunwind::UnwindCursor<libunwind::LocalAddressSpace, libunwind::Registers_arm64>::validFloatReg(int)
PUBLIC 6bdc 0 libunwind::UnwindCursor<libunwind::LocalAddressSpace, libunwind::Registers_arm64>::getFloatReg(int)
PUBLIC 6bec 0 libunwind::UnwindCursor<libunwind::LocalAddressSpace, libunwind::Registers_arm64>::setFloatReg(int, double)
PUBLIC 6bfc 0 libunwind::UnwindCursor<libunwind::LocalAddressSpace, libunwind::Registers_arm64>::step(bool)
PUBLIC 6cec 0 libunwind::UnwindCursor<libunwind::LocalAddressSpace, libunwind::Registers_arm64>::getInfo(unw_proc_info_t*)
PUBLIC 6d30 0 libunwind::UnwindCursor<libunwind::LocalAddressSpace, libunwind::Registers_arm64>::jumpto()
PUBLIC 6d3c 0 libunwind::UnwindCursor<libunwind::LocalAddressSpace, libunwind::Registers_arm64>::isSignalFrame()
PUBLIC 6d48 0 libunwind::UnwindCursor<libunwind::LocalAddressSpace, libunwind::Registers_arm64>::getFunctionName(char*, unsigned long, unsigned long*)
PUBLIC 6d74 0 libunwind::UnwindCursor<libunwind::LocalAddressSpace, libunwind::Registers_arm64>::setInfoBasedOnIPRegister(bool)
PUBLIC 6ff4 0 libunwind::UnwindCursor<libunwind::LocalAddressSpace, libunwind::Registers_arm64>::getRegisterName(int)
PUBLIC 7000 0 libunwind::UnwindCursor<libunwind::LocalAddressSpace, libunwind::Registers_arm64>::stepThroughSigReturn(libunwind::Registers_arm64&)
PUBLIC 7120 0 libunwind::DwarfInstructions<libunwind::LocalAddressSpace, libunwind::Registers_arm64>::stepWithDwarf(libunwind::LocalAddressSpace&, unsigned long, unsigned long, libunwind::Registers_arm64&, bool&, bool)
PUBLIC 75a8 0 libunwind::CFI_Parser<libunwind::LocalAddressSpace>::parseFDEInstructions(libunwind::LocalAddressSpace&, libunwind::CFI_Parser<libunwind::LocalAddressSpace>::FDE_Info const&, libunwind::CFI_Parser<libunwind::LocalAddressSpace>::CIE_Info const&, unsigned long, int, libunwind::CFI_Parser<libunwind::LocalAddressSpace>::PrologInfo*)
PUBLIC 81f0 0 libunwind::DwarfInstructions<libunwind::LocalAddressSpace, libunwind::Registers_arm64>::getCFA(libunwind::LocalAddressSpace&, libunwind::CFI_Parser<libunwind::LocalAddressSpace>::PrologInfo const&, libunwind::Registers_arm64 const&)
PUBLIC 8324 0 libunwind::DwarfInstructions<libunwind::LocalAddressSpace, libunwind::Registers_arm64>::getSavedRegister(libunwind::LocalAddressSpace&, libunwind::Registers_arm64 const&, unsigned long, libunwind::CFI_Parser<libunwind::LocalAddressSpace>::RegisterLocation const&)
PUBLIC 8534 0 libunwind::LocalAddressSpace::getEncodedP(unsigned long&, unsigned long, unsigned char, unsigned long)
PUBLIC 88c0 0 libunwind::LocalAddressSpace::getULEB128(unsigned long&, unsigned long)
PUBLIC 8a88 0 libunwind::DwarfInstructions<libunwind::LocalAddressSpace, libunwind::Registers_arm64>::evaluateExpression(unsigned long, libunwind::LocalAddressSpace&, libunwind::Registers_arm64 const&, unsigned long)
PUBLIC 9444 0 libunwind::UnwindCursor<libunwind::LocalAddressSpace, libunwind::Registers_arm64>::getInfoFromDwarfSection(unsigned long, libunwind::UnwindInfoSections const&, unsigned int)
PUBLIC 9718 0 libunwind::findUnwindSectionsByPhdr(dl_phdr_info*, unsigned long, void*)
PUBLIC 984c 0 libunwind::EHHeaderParser<libunwind::LocalAddressSpace>::decodeEHHdr(libunwind::LocalAddressSpace&, unsigned long, unsigned long, libunwind::EHHeaderParser<libunwind::LocalAddressSpace>::EHHeaderInfo&)
PUBLIC 996c 0 libunwind::CFI_Parser<libunwind::LocalAddressSpace>::findFDE(libunwind::LocalAddressSpace&, unsigned long, unsigned long, unsigned long, unsigned long, libunwind::CFI_Parser<libunwind::LocalAddressSpace>::FDE_Info*, libunwind::CFI_Parser<libunwind::LocalAddressSpace>::CIE_Info*)
PUBLIC 9b34 0 libunwind::EHHeaderParser<libunwind::LocalAddressSpace>::findFDE(libunwind::LocalAddressSpace&, unsigned long, unsigned long, unsigned int, libunwind::CFI_Parser<libunwind::LocalAddressSpace>::FDE_Info*, libunwind::CFI_Parser<libunwind::LocalAddressSpace>::CIE_Info*)
PUBLIC 9c9c 0 libunwind::EHHeaderParser<libunwind::LocalAddressSpace>::getTableEntrySize(unsigned char)
PUBLIC 9d98 0 libunwind::Registers_arm64::getRegisterName(int)
PUBLIC 9dc8 0 __libunwind_Registers_arm64_jumpto
PUBLIC m 9e58 0 __unw_getcontext
PUBLIC 9f00 0 __aarch64_ldadd8_relax
PUBLIC 9f30 0 init_have_lse_atomics
PUBLIC 9fc8 0 __init_cpu_features_constructor
PUBLIC a564 0 __init_cpu_features
PUBLIC a5f0 0 __aarch64_ldadd8_acq_rel
FUNC a620 7c 0 std::__ndk1::basic_ostringstream<char, std::__ndk1::char_traits<char>, std::__ndk1::allocator<char> >::~basic_ostringstream()
a620 7c 1103 8
FUNC a69c 2ec 0 formatTime(int)
a69c 24 24 9
a6c0 7c 25 9
a73c 4 26 9
a740 24 25 9
a764 38 27 9
a79c 4 28 9
a7a0 c 30 9
a7ac 38 31 9
a7e4 4 32 9
a7e8 1c 35 9
a804 a0 36 9
a8a4 4 37 9
a8a8 8 36 9
a8b0 28 37 9
a8d8 4 25 9
a8dc 10 37 9
a8ec 4 25 9
a8f0 34 37 9
a924 1c 36 9
a940 24 25 9
a964 24 37 9
FUNC a988 d0 0 std::__ndk1::deque<int, std::__ndk1::allocator<int> >::~deque[abi:ne180000]()
a988 10 564 11
a998 60 565 11
a9f8 8 569 11
aa00 8 570 11
aa08 8 569 11
aa10 48 571 11
FUNC aa58 80 0 std::__ndk1::basic_stringstream<char, std::__ndk1::char_traits<char>, std::__ndk1::allocator<char> >::~basic_stringstream()
aa58 80 1102 8
FUNC aad8 c2c 0 __cxx_global_var_init
ab14 bf0 387 12
FUNC b704 18 0 geode::modifier::ModifyBase<geode::modifier::ModifyDerive<ModPauseLayer, PauseLayer> >::~ModifyBase()
b704 18 141 12
FUNC b71c 198 0 std::__ndk1::__put_character_sequence[abi:ne180000]<char, std::__ndk1::char_traits<char> >(std::__ndk1::basic_ostream<char, std::__ndk1::char_traits<char> >, std::__ndk1::basic_ostream const*, unsigned long)
b71c 34 665 1
b750 c 669 1
b75c 8 670 1
b764 c 673 1
b770 4 678 1
b774 4 673 1
b778 4 675 1
b77c 54 678 1
b7d0 10 675 1
b7e0 10 672 1
b7f0 1c 680 1
b80c 8 683 1
b814 38 687 1
b84c 10 678 1
b85c 18 683 1
b874 10 684 1
b884 30 685 1
FUNC b8b4 1b4 0 std::__ndk1::__pad_and_output[abi:ne180000]<char, std::__ndk1::char_traits<char> >(std::__ndk1::char_traits<char>, std::__ndk1::ostreambuf_iterator const*, std::__ndk1::ostreambuf_iterator const, std::__ndk1::ostreambuf_iterator const, std::__ndk1::ios_base&, std::__ndk1::ostreambuf_iterator)
b8b4 30 1246 4
b8e4 4 1247 4
b8e8 4 1250 4
b8ec 4 1249 4
b8f0 10 1255 4
b900 c 1251 4
b90c 8 1256 4
b914 1c 1257 4
b930 8 1262 4
b938 4c 1263 4
b984 2c 1264 4
b9b0 1c 1268 4
b9cc 4 1269 4
b9d0 8 1270 4
b9d8 20 1271 4
b9f8 c 1276 4
ba04 34 1278 4
ba38 30 1268 4
PUBLIC ba68 0 __clang_call_terminate
FUNC ba78 14 0 std::__ndk1::basic_string<char, std::__ndk1::char_traits<char>, std::__ndk1::allocator<char> >::__throw_length_error[abi:ne180000]() const
ba78 8 2118 10
ba80 c 2119 10
FUNC ba8c 50 0 std::__ndk1::__throw_length_error[abi:ne180000](char const*)
ba8c 10 239 5
ba9c 40 241 5
FUNC badc 30 0 std::length_error::length_error[abi:ne180000](char const*)
badc 30 152 5
FUNC bb0c 34 0 std::__throw_bad_array_new_length([abi:ne180000], void)
bb0c c 172 6
bb18 28 174 6
FUNC bb40 148 0 std::__ndk1::basic_stringbuf<char, std::__ndk1::char_traits<char>, std::__ndk1::allocator<char> >::__init_buf_ptrs[abi:ne180000]()
bb40 10 626 8
bb50 8 628 8
bb58 4 630 8
bb5c 4 628 8
bb60 4 627 8
bb64 8 629 8
bb6c 4 628 8
bb70 4 629 8
bb74 4 630 8
bb78 4 631 8
bb7c 4 632 8
bb80 4 631 8
bb84 4 632 8
bb88 4 634 8
bb8c 20 636 8
bbac 4 635 8
bbb0 4 636 8
bbb4 4 635 8
bbb8 3c 636 8
bbf4 14 637 8
bc08 4 638 8
bc0c 4 637 8
bc10 4 638 8
bc14 8 637 8
bc1c 4 638 8
bc20 48 639 8
bc68 4 640 8
bc6c 4 643 8
bc70 8 644 8
bc78 10 647 8
FUNC bc88 ac 0 std::__ndk1::basic_string<char, std::__ndk1::char_traits<char>, std::__ndk1::allocator<char> >::__assign_no_alias<true>(char const*, unsigned long)
bc88 18 2450 10
bca0 c 2452 10
bcac c 2457 10
bcb8 14 2458 10
bccc 44 2464 10
bd10 1c 2466 10
bd2c 8 2464 10
FUNC bd34 18c 0 std::__ndk1::__split_buffer<int*, std::__ndk1::allocator<int*> >::push_front(int* const&)
bd34 14 454 16
bd48 1c 455 16
bd64 c 456 16
bd70 8 457 16
bd78 c 458 16
bd84 4 459 16
bd88 4 458 16
bd8c 1c 459 16
bda8 8 460 16
bdb0 8 459 16
bdb8 c 462 16
bdc4 1c 463 16
bde0 4 464 16
bde4 c 463 16
bdf0 8c 464 16
be7c 4 465 16
be80 4 467 16
be84 c 469 16
be90 c 471 16
be9c c 472 16
bea8 14 473 16
bebc 4 463 16
FUNC bec0 694 0 geode::modifier::ModifyDerive<ModPauseLayer, PauseLayer>::apply()
bec0 30 281 7
bef0 264 298 7
c154 23c 308 7
c390 2c 311 7
c3bc 48 298 7
c404 48 308 7
c44c 30 298 7
c47c 40 308 7
c4bc 14 298 7
c4d0 3c 308 7
c50c 48 298 7
FUNC c554 50 0 std::__ndk1::shared_ptr<geode::Hook>::~shared_ptr[abi:ne180000]()
c554 c 643 17
c560 8 644 17
c568 10 645 17
c578 c 646 17
c584 20 645 17
FUNC c5a4 74 0 geode::impl::ResultData<geode::Hook*, std::__ndk1::basic_string<char, std::__ndk1::char_traits<char>, std::__ndk1::allocator<char> > >::~ResultData()
c5a4 74 334 13
FUNC c618 7c 0 std::__ndk1::vector<std::__ndk1::basic_string<char, std::__ndk1::char_traits<char>, std::__ndk1::allocator<char> >, std::__ndk1::allocator<std::__ndk1::basic_string<char, std::__ndk1::char_traits<char>, std::__ndk1::allocator<char> > > >::~vector[abi:ne180000]()
c618 7c 501 14
FUNC c694 4 0 geode::modifier::ModifyBase<geode::modifier::ModifyDerive<ModPauseLayer, PauseLayer> >::apply()
c694 4 357 12
FUNC c698 100 0 std::__ndk1::__tree<std::__ndk1::__value_type<std::__ndk1::basic_string<char, std::__ndk1::char_traits<char>, std::__ndk1::allocator<char> >, std::__ndk1::shared_ptr<geode::Hook> >, std::__ndk1::__map_value_compare<std::__ndk1::basic_string<char, std::__ndk1::char_traits<char>, std::__ndk1::allocator<char> >, std::__ndk1::__value_type<std::__ndk1::basic_string<char, std::__ndk1::char_traits<char>, std::__ndk1::allocator<char> >, std::__ndk1::shared_ptr<geode::Hook> >, std::__ndk1::less<std::__ndk1::basic_string<char, std::__ndk1::char_traits<char>, std::__ndk1::allocator<char> > >, true>, std::__ndk1::allocator<std::__ndk1::__value_type<std::__ndk1::basic_string<char, std::__ndk1::char_traits<char>, std::__ndk1::allocator<char> >, std::__ndk1::shared_ptr<geode::Hook> > > >::find<std::__ndk1::basic_string<char, std::__ndk1::char_traits<char>, std::__ndk1::allocator<char> > >(std::__ndk1::basic_string<char, std::__ndk1::char_traits<char>, std::__ndk1::allocator<char> > const&)
c698 14 2087 2
c6ac 84 2088 2
c730 50 2089 2
c780 18 2092 2
FUNC c798 104 0 std::__ndk1::__tree<std::__ndk1::__value_type<std::__ndk1::basic_string<char, std::__ndk1::char_traits<char>, std::__ndk1::allocator<char> >, std::__ndk1::shared_ptr<geode::Hook> >, std::__ndk1::__map_value_compare<std::__ndk1::basic_string<char, std::__ndk1::char_traits<char>, std::__ndk1::allocator<char> >, std::__ndk1::__value_type<std::__ndk1::basic_string<char, std::__ndk1::char_traits<char>, std::__ndk1::allocator<char> >, std::__ndk1::shared_ptr<geode::Hook> >, std::__ndk1::less<std::__ndk1::basic_string<char, std::__ndk1::char_traits<char>, std::__ndk1::allocator<char> > >, true>, std::__ndk1::allocator<std::__ndk1::__value_type<std::__ndk1::basic_string<char, std::__ndk1::char_traits<char>, std::__ndk1::allocator<char> >, std::__ndk1::shared_ptr<geode::Hook> > > >::__find_equal<std::__ndk1::basic_string<char, std::__ndk1::char_traits<char>, std::__ndk1::allocator<char> > >(std::__ndk1::__tree_end_node<std::__ndk1::__tree_node_base<void*>*>*&, std::__ndk1::basic_string<char, std::__ndk1::char_traits<char>, std::__ndk1::allocator<char> > const&)
c798 20 1682 2
c7b8 4 1683 2
c7bc 20 1685 2
c7dc 10 1688 2
c7ec 50 1687 2
c83c 2c 1695 2
c868 14 1696 2
c87c 20 1711 2
FUNC c89c 7c 0 std::__ndk1::unique_ptr<std::__ndk1::__tree_node<std::__ndk1::__value_type<std::__ndk1::basic_string<char, std::__ndk1::char_traits<char>, std::__ndk1::allocator<char> >, std::__ndk1::shared_ptr<geode::Hook> >, void*>, std::__ndk1::__tree_node_destructor<std::__ndk1::allocator<std::__ndk1::__tree_node<std::__ndk1::__value_type<std::__ndk1::basic_string<char, std::__ndk1::char_traits<char>, std::__ndk1::allocator<char> >, std::__ndk1::shared_ptr<geode::Hook> >, void*> > > >::~unique_ptr[abi:ne180000]()
c89c 7c 240 15
FUNC c918 70 0 std::__ndk1::basic_string<char, std::__ndk1::char_traits<char>, std::__ndk1::allocator<char> >::__init_copy_ctor_external(char const*, unsigned long)
c918 14 2232 10
c92c 8 2237 10
c934 10 2239 10
c944 8 2241 10
c94c 10 2243 10
c95c 8 2247 10
c964 4 2246 10
c968 4 2247 10
c96c 14 2250 10
c980 8 2242 10
FUNC c988 19c 0 std::__ndk1::__tree_balance_after_insert[abi:ne180000]<std::__ndk1::__tree_node_base<void*>*>(std::__ndk1::__tree_node_base<void*>*, std::__ndk1::__tree_node_base<void*>*)
c988 c 285 2
c994 34 286 2
c9c8 10 288 2
c9d8 10 310 2
c9e8 4 289 2
c9ec c 290 2
c9f8 c 297 2
ca04 38 299 2
ca3c 4 303 2
ca40 4 299 2
ca44 8 305 2
ca4c 4 330 2
ca50 14 317 2
ca64 30 319 2
ca94 4 323 2
ca98 4 319 2
ca9c 8 325 2
caa4 4 322 2
caa8 4 325 2
caac 4 324 2
cab0 2c 325 2
cadc 8 330 2
cae4 8 305 2
caec 4 302 2
caf0 4 304 2
caf4 2c 305 2
cb20 4 330 2
FUNC cb24 154 0 _ZN5geode15UnwrapExceptionC2IRPNS_4HookEQsr4implE18IsStringStreamableIT_EEENS_4impl5OkTagEOS5_
cb24 20 316 13
cb44 48 315 13
cb8c 5c 314 13
cbe8 4 315 13
cbec 18 314 13
cc04 34 316 13
cc38 40 314 13
FUNC cc78 34 0 std::__ndk1::__throw_bad_variant_access[abi:ne180000]()
cc78 8 285 3
cc80 2c 287 3
FUNC ccac 124 0 std::__ndk1::basic_stringstream<char, std::__ndk1::char_traits<char>, std::__ndk1::allocator<char> >::basic_stringstream[abi:ne180000]()
ccac 124 1010 8
FUNC cdd0 24 0 geode::UnwrapException::~UnwrapException()
cdd0 24 325 13
FUNC cdf4 15c 0 std::__ndk1::basic_stringbuf<char, std::__ndk1::char_traits<char>, std::__ndk1::allocator<char> >::str[abi:ne180000]() &&
cdf4 18 396 8
ce0c 40 397 8
ce4c 8 398 8
ce54 8 402 8
ce5c 4 398 8
ce60 4 402 8
ce64 4 398 8
ce68 c 402 8
ce74 4 398 8
ce78 8 402 8
ce80 4 398 8
ce84 4 402 8
ce88 4 398 8
ce8c 3c 402 8
cec8 4 401 8
cecc 30 402 8
cefc 1c 403 8
cf18 4 404 8
cf1c 34 406 8
FUNC cf50 168 0 _ZN5geode15UnwrapExceptionC2IRNSt6__ndk112basic_stringIcNS2_11char_traitsIcEENS2_9allocatorIcEEEEQsr4implE18IsStringStreamableIT_EEENS_4impl6ErrTagEOSA_
cf50 20 304 13
cf70 5c 303 13
cfcc 5c 302 13
d028 4 303 13
d02c 18 302 13
d044 34 304 13
d078 40 302 13
FUNC d0b8 4 0 std::__ndk1::__variant_detail::__visitation::__base::__dispatcher<(unsigned long)0>::__dispatch[abi:ne180000]<std::__ndk1::__variant_detail::__dtor<std::__ndk1::__variant_detail::__traits<std::__ndk1::monostate, std::__ndk1::basic_string<char, std::__ndk1::char_traits<char>, std::__ndk1::allocator<char> > >, (std::__ndk1::__variant_detail::_Trait)1>::__destroy[abi:ne180000]()::{lambda(auto:1&)#1}, std::__ndk1::__variant_detail::__base<(std::__ndk1::__variant_detail::__traits<std::__ndk1::monostate, std::__ndk1::basic_string<char, std::__ndk1::char_traits<char>, std::__ndk1::allocator<char> > >)1, std::__ndk1::__variant_detail::__traits, std::__ndk1::allocator<char> >&>(std::__ndk1::__variant_detail::__dtor<std::__ndk1::__variant_detail::__traits<std::__ndk1::monostate, std::__ndk1::basic_string<char, std::__ndk1::char_traits<char>, std::__ndk1::allocator<char> > >, (std::__ndk1::__variant_detail::_Trait)1>, std::__ndk1::__variant_detail::__base<(std::__ndk1::__variant_detail::__traits<std::__ndk1::monostate, std::__ndk1::basic_string<char, std::__ndk1::char_traits<char>, std::__ndk1::allocator<char> > >)1, std::__ndk1::__variant_detail::__traits, std::__ndk1::allocator<char> >&)
d0b8 4 526 3
FUNC d0bc 14 0 std::__ndk1::__variant_detail::__visitation::__base::__dispatcher<(unsigned long)1>::__dispatch[abi:ne180000]<std::__ndk1::__variant_detail::__dtor<std::__ndk1::__variant_detail::__traits<std::__ndk1::monostate, std::__ndk1::basic_string<char, std::__ndk1::char_traits<char>, std::__ndk1::allocator<char> > >, (std::__ndk1::__variant_detail::_Trait)1>::__destroy[abi:ne180000]()::{lambda(auto:1&)#1}, std::__ndk1::__variant_detail::__base<(std::__ndk1::__variant_detail::__traits<std::__ndk1::monostate, std::__ndk1::basic_string<char, std::__ndk1::char_traits<char>, std::__ndk1::allocator<char> > >)1, std::__ndk1::__variant_detail::__traits, std::__ndk1::allocator<char> >&>(std::__ndk1::__variant_detail::__dtor<std::__ndk1::__variant_detail::__traits<std::__ndk1::monostate, std::__ndk1::basic_string<char, std::__ndk1::char_traits<char>, std::__ndk1::allocator<char> > >, (std::__ndk1::__variant_detail::_Trait)1>, std::__ndk1::__variant_detail::__base<(std::__ndk1::__variant_detail::__traits<std::__ndk1::monostate, std::__ndk1::basic_string<char, std::__ndk1::char_traits<char>, std::__ndk1::allocator<char> > >)1, std::__ndk1::__variant_detail::__traits, std::__ndk1::allocator<char> >&)
d0bc 14 526 3
FUNC d0d0 68 0 std::__ndk1::__split_buffer<std::__ndk1::basic_string<char, std::__ndk1::char_traits<char>, std::__ndk1::allocator<char> >, std::__ndk1::allocator<std::__ndk1::basic_string<char, std::__ndk1::char_traits<char>, std::__ndk1::allocator<char> > >&>::~__split_buffer()
d0d0 c 352 16
d0dc 10 353 16
d0ec 8 354 16
d0f4 c 355 16
d100 2c 353 16
d12c c 356 16
FUNC d138 14 0 std::__ndk1::vector<std::__ndk1::basic_string<char, std::__ndk1::char_traits<char>, std::__ndk1::allocator<char> >, std::__ndk1::allocator<std::__ndk1::basic_string<char, std::__ndk1::char_traits<char>, std::__ndk1::allocator<char> > > >::__throw_length_error[abi:ne180000]() const
d138 14 940 14
FUNC d14c 4 0 std::__ndk1::__variant_detail::__visitation::__base::__dispatcher<(unsigned long)0>::__dispatch[abi:ne180000]<std::__ndk1::__variant_detail::__dtor<std::__ndk1::__variant_detail::__traits<geode::Hook*, std::__ndk1::basic_string<char, std::__ndk1::char_traits<char>, std::__ndk1::allocator<char> > >, (std::__ndk1::__variant_detail::_Trait)1>::__destroy[abi:ne180000]()::{lambda(auto:1&)#1}, std::__ndk1::__variant_detail::__base<(std::__ndk1::__variant_detail::__traits<geode::Hook*, std::__ndk1::basic_string<char, std::__ndk1::char_traits<char>, std::__ndk1::allocator<char> > >)1, geode::Hook, std::__ndk1::allocator<char> >&>(std::__ndk1::__variant_detail::__dtor<std::__ndk1::__variant_detail::__traits<geode::Hook*, std::__ndk1::basic_string<char, std::__ndk1::char_traits<char>, std::__ndk1::allocator<char> > >, (std::__ndk1::__variant_detail::_Trait)1>, std::__ndk1::__variant_detail::__base<(std::__ndk1::__variant_detail::__traits<geode::Hook*, std::__ndk1::basic_string<char, std::__ndk1::char_traits<char>, std::__ndk1::allocator<char> > >)1, geode::Hook, std::__ndk1::allocator<char> >&)
d14c 4 526 3
FUNC d150 14 0 std::__ndk1::__variant_detail::__visitation::__base::__dispatcher<(unsigned long)1>::__dispatch[abi:ne180000]<std::__ndk1::__variant_detail::__dtor<std::__ndk1::__variant_detail::__traits<geode::Hook*, std::__ndk1::basic_string<char, std::__ndk1::char_traits<char>, std::__ndk1::allocator<char> > >, (std::__ndk1::__variant_detail::_Trait)1>::__destroy[abi:ne180000]()::{lambda(auto:1&)#1}, std::__ndk1::__variant_detail::__base<(std::__ndk1::__variant_detail::__traits<geode::Hook*, std::__ndk1::basic_string<char, std::__ndk1::char_traits<char>, std::__ndk1::allocator<char> > >)1, geode::Hook, std::__ndk1::allocator<char> >&>(std::__ndk1::__variant_detail::__dtor<std::__ndk1::__variant_detail::__traits<geode::Hook*, std::__ndk1::basic_string<char, std::__ndk1::char_traits<char>, std::__ndk1::allocator<char> > >, (std::__ndk1::__variant_detail::_Trait)1>, std::__ndk1::__variant_detail::__base<(std::__ndk1::__variant_detail::__traits<geode::Hook*, std::__ndk1::basic_string<char, std::__ndk1::char_traits<char>, std::__ndk1::allocator<char> > >)1, geode::Hook, std::__ndk1::allocator<char> >&)
d150 14 526 3
FUNC d164 84 0 std::__ndk1::__tree<std::__ndk1::__value_type<std::__ndk1::basic_string<char, std::__ndk1::char_traits<char>, std::__ndk1::allocator<char> >, std::__ndk1::shared_ptr<geode::Hook> >, std::__ndk1::__map_value_compare<std::__ndk1::basic_string<char, std::__ndk1::char_traits<char>, std::__ndk1::allocator<char> >, std::__ndk1::__value_type<std::__ndk1::basic_string<char, std::__ndk1::char_traits<char>, std::__ndk1::allocator<char> >, std::__ndk1::shared_ptr<geode::Hook> >, std::__ndk1::less<std::__ndk1::basic_string<char, std::__ndk1::char_traits<char>, std::__ndk1::allocator<char> > >, true>, std::__ndk1::allocator<std::__ndk1::__value_type<std::__ndk1::basic_string<char, std::__ndk1::char_traits<char>, std::__ndk1::allocator<char> >, std::__ndk1::shared_ptr<geode::Hook> > > >::destroy(std::__ndk1::__tree_node<std::__ndk1::__value_type<std::__ndk1::basic_string<char, std::__ndk1::char_traits<char>, std::__ndk1::allocator<char> >, std::__ndk1::shared_ptr<geode::Hook> >, void*>*)
d164 14 1544 2
d178 8 1545 2
d180 8 1546 2
d188 28 1548 2
d1b0 10 1549 2
d1c0 4 1551 2
d1c4 24 1548 2
FUNC d1e8 40 0 geode::modifier::AsStaticFunction_onResume<ModPauseLayer, void (ModPauseLayer::*)(cocos2d::CCObject*)>::Impl<void (ModPauseLayer::*)(cocos2d::CCObject*)>::function(ModPauseLayer*, cocos2d::CCObject*)
d1e8 40 80 7
FUNC d228 a8 0 geode::addresser::getVirtual<void (PauseLayer::*)()>(void (PauseLayer::*)())
d228 c 169 0
d234 9c 170 0
FUNC d2d0 1b8 0 geode::modifier::AsStaticFunction_customSetup<ModPauseLayer, void (ModPauseLayer::*)()>::Impl<void (ModPauseLayer::*)()>::function(ModPauseLayer*)
d2d0 1b8 130 7
FUNC d488 50 0 std::__ndk1::shared_ptr<tulip::hook::CallingConvention>::~shared_ptr[abi:ne180000]()
d488 c 643 17
d494 8 644 17
d49c 10 645 17
d4ac c 646 17
d4b8 20 645 17
FUNC d4d8 64 0 tulip::hook::HandlerMetadata::~HandlerMetadata()
d4d8 64 12 18
FUNC d53c 8c 0 PauseLayer::PauseLayer(geode::ZeroConstructorType)
d53c 8c 17 19
FUNC d5c8 1524 0 ModPauseLayer::onInfo(cocos2d::CCObject*)
d5c8 30 40 20
d5f8 4 41 20
d5fc 20 42 20
d61c 4 41 20
d620 4 42 20
d624 4 41 20
d628 6c 42 20
d694 2c 43 20
d6c0 28 44 20
d6e8 28 45 20
d710 58 46 20
d768 14 43 20
d77c c 48 20
d788 194 49 20
d91c 3c 52 20
d958 30 53 20
d988 124 49 20
daac 18 50 20
dac4 14 49 20
dad8 c 56 20
dae4 2c 57 20
db10 4c 58 20
db5c 4c 59 20
dba8 24 57 20
dbcc 94 62 20
dc60 20 63 20
dc80 4 62 20
dc84 920 63 20
e5a4 8 66 20
e5ac c4 67 20
e670 5c 65 20
e6cc 44 70 20
e710 1c 72 20
e72c 38 73 20
e764 4 42 20
e768 18 73 20
e780 4 42 20
e784 3c 73 20
e7c0 30 63 20
e7f0 1c 62 20
e80c 1c 67 20
e828 1c 49 20
e844 24 63 20
e868 24 57 20
e88c 2c 49 20
e8b8 8c 63 20
e944 4c 65 20
e990 38 42 20
e9c8 18 49 20
e9e0 18 63 20
e9f8 14 49 20
ea0c b8 63 20
eac4 28 73 20
FUNC eaec 30 0 geodeImplicitEntry
eaec c 16 21
eaf8 18 18 21
eb10 c 19 21
FUNC eb1c 134 0 wrapFunction(unsigned long, tulip::hook::WrapperMetadata const&)
eb1c 1c 27 22
eb38 8 28 22
eb40 8 29 22
eb48 4 32 22
eb4c 20 33 22
eb6c 4 32 22
eb70 c 29 22
eb7c 30 30 22
ebac 7c 32 22
ec28 28 33 22
FUNC ec50 78 0 geode::impl::ResultData<void*, std::__ndk1::basic_string<char, std::__ndk1::char_traits<char>, std::__ndk1::allocator<char> > >::unwrapErr() &
ec50 c 472 13
ec5c c 473 13
ec68 10 474 13
ec78 50 477 13
FUNC ecc8 74 0 geode::impl::ResultData<void*, std::__ndk1::basic_string<char, std::__ndk1::char_traits<char>, std::__ndk1::allocator<char> > >::~ResultData()
ecc8 74 334 13
FUNC ed3c 64 0 tulip::hook::WrapperMetadata::~WrapperMetadata()
ed3c 64 10 23
FUNC eda0 1b8 0 FLAlertLayer::create(FLAlertLayerProtocol*, char const*, gd::string, char const*, char const*, float)
eda0 44 1154 22
ede4 14 1156 22
edf8 6c 1160 22
ee64 38 1156 22
ee9c 10 1157 22
eeac 4 1156 22
eeb0 8 1158 22
eeb8 74 1156 22
ef2c 2c 1160 22
FUNC ef58 148 0 tulip::hook::AbstractFunction::from<FLAlertLayer*, FLAlertLayerProtocol*, char const*, gd::string, char const*, char const*, float>(FLAlertLayer* (*)(FLAlertLayerProtocol*, char const*, gd::string, char const*, char const*, float))
ef58 1c 39 24
ef74 4 42 24
ef78 4 41 24
ef7c c 40 24
ef88 4 41 24
ef8c d8 42 24
f064 3c 45 24
FUNC f0a0 154 0 _ZN5geode15UnwrapExceptionC2IRPvQsr4implE18IsStringStreamableIT_EEENS_4impl5OkTagEOS4_
f0a0 20 316 13
f0c0 48 315 13
f108 5c 314 13
f164 4 315 13
f168 18 314 13
f180 34 316 13
f1b4 40 314 13
FUNC f1f4 4 0 std::__ndk1::__variant_detail::__visitation::__base::__dispatcher<(unsigned long)0>::__dispatch[abi:ne180000]<std::__ndk1::__variant_detail::__dtor<std::__ndk1::__variant_detail::__traits<void*, std::__ndk1::basic_string<char, std::__ndk1::char_traits<char>, std::__ndk1::allocator<char> > >, (std::__ndk1::__variant_detail::_Trait)1>::__destroy[abi:ne180000]()::{lambda(auto:1&)#1}, std::__ndk1::__variant_detail::__base<(std::__ndk1::__variant_detail::__traits<void*, std::__ndk1::basic_string<char, std::__ndk1::char_traits<char>, std::__ndk1::allocator<char> > >)1, std::__ndk1::__variant_detail::__traits, std::__ndk1::allocator<char> >&>(std::__ndk1::__variant_detail::__dtor<std::__ndk1::__variant_detail::__traits<void*, std::__ndk1::basic_string<char, std::__ndk1::char_traits<char>, std::__ndk1::allocator<char> > >, (std::__ndk1::__variant_detail::_Trait)1>, std::__ndk1::__variant_detail::__base<(std::__ndk1::__variant_detail::__traits<void*, std::__ndk1::basic_string<char, std::__ndk1::char_traits<char>, std::__ndk1::allocator<char> > >)1, std::__ndk1::__variant_detail::__traits, std::__ndk1::allocator<char> >&)
f1f4 4 526 3
FUNC f1f8 14 0 std::__ndk1::__variant_detail::__visitation::__base::__dispatcher<(unsigned long)1>::__dispatch[abi:ne180000]<std::__ndk1::__variant_detail::__dtor<std::__ndk1::__variant_detail::__traits<void*, std::__ndk1::basic_string<char, std::__ndk1::char_traits<char>, std::__ndk1::allocator<char> > >, (std::__ndk1::__variant_detail::_Trait)1>::__destroy[abi:ne180000]()::{lambda(auto:1&)#1}, std::__ndk1::__variant_detail::__base<(std::__ndk1::__variant_detail::__traits<void*, std::__ndk1::basic_string<char, std::__ndk1::char_traits<char>, std::__ndk1::allocator<char> > >)1, std::__ndk1::__variant_detail::__traits, std::__ndk1::allocator<char> >&>(std::__ndk1::__variant_detail::__dtor<std::__ndk1::__variant_detail::__traits<void*, std::__ndk1::basic_string<char, std::__ndk1::char_traits<char>, std::__ndk1::allocator<char> > >, (std::__ndk1::__variant_detail::_Trait)1>, std::__ndk1::__variant_detail::__base<(std::__ndk1::__variant_detail::__traits<void*, std::__ndk1::basic_string<char, std::__ndk1::char_traits<char>, std::__ndk1::allocator<char> > >)1, std::__ndk1::__variant_detail::__traits, std::__ndk1::allocator<char> >&)
f1f8 14 526 3
PUBLIC f210 0 <.plt ELF section in weebify.level_info_in_pause_menu.android64.so>
STACK CFI INIT 60a0 10 .cfa: sp 0 +
STACK CFI INIT 60b0 8 .cfa: sp 0 +
STACK CFI INIT 60b8 8 .cfa: sp 0 +
STACK CFI INIT 60c0 14 .cfa: sp 0 +
STACK CFI INIT 60d4 1c .cfa: sp 0 +
STACK CFI INIT 60f0 10 .cfa: sp 0 +
STACK CFI INIT 6100 134 .cfa: sp 0 +
STACK CFI INIT 6234 84 .cfa: sp 0 +
STACK CFI INIT 62b8 f4 .cfa: sp 0 +
STACK CFI INIT 63ac a8 .cfa: sp 0 +
STACK CFI INIT 6454 7c .cfa: sp 0 +
STACK CFI INIT 64d0 14 .cfa: sp 0 +
STACK CFI INIT 64e4 40 .cfa: sp 0 +
STACK CFI INIT 6524 28 .cfa: sp 0 +
STACK CFI INIT 654c 190 .cfa: sp 0 +
STACK CFI INIT 66dc 2c8 .cfa: sp 0 +
STACK CFI INIT 69a4 8 .cfa: sp 0 +
STACK CFI INIT 69ac 8 .cfa: sp 0 +
STACK CFI INIT 69b4 44 .cfa: sp 0 +
STACK CFI INIT 69f8 e8 .cfa: sp 0 +
STACK CFI INIT 6ae0 e8 .cfa: sp 0 +
STACK CFI INIT 6bc8 14 .cfa: sp 0 +
STACK CFI INIT 6bdc 10 .cfa: sp 0 +
STACK CFI INIT 6bec 10 .cfa: sp 0 +
STACK CFI INIT 6bfc f0 .cfa: sp 0 +
STACK CFI INIT 6cec 44 .cfa: sp 0 +
STACK CFI INIT 6d30 c .cfa: sp 0 +
STACK CFI INIT 6d3c c .cfa: sp 0 +
STACK CFI INIT 6d48 2c .cfa: sp 0 +
STACK CFI INIT 6d74 280 .cfa: sp 0 +
STACK CFI INIT 6ff4 c .cfa: sp 0 +
STACK CFI INIT 7000 120 .cfa: sp 0 +
STACK CFI INIT 7120 488 .cfa: sp 0 +
STACK CFI INIT 75a8 c48 .cfa: sp 0 +
STACK CFI INIT 81f0 134 .cfa: sp 0 +
STACK CFI INIT 8324 210 .cfa: sp 0 +
STACK CFI INIT 8534 38c .cfa: sp 0 +
STACK CFI INIT 88c0 1c8 .cfa: sp 0 +
STACK CFI INIT 8a88 9bc .cfa: sp 0 +
STACK CFI INIT 9444 2d4 .cfa: sp 0 +
STACK CFI INIT 9718 134 .cfa: sp 0 +
STACK CFI INIT 984c 120 .cfa: sp 0 +
STACK CFI INIT 996c 1c8 .cfa: sp 0 +
STACK CFI INIT 9b34 168 .cfa: sp 0 +
STACK CFI INIT 9c9c fc .cfa: sp 0 +
STACK CFI INIT 9d98 30 .cfa: sp 0 +
STACK CFI INIT 9f00 30 .cfa: sp 0 +
STACK CFI INIT 9f30 98 .cfa: sp 0 +
STACK CFI INIT 9fc8 59c .cfa: sp 0 +
STACK CFI INIT a564 8c .cfa: sp 0 +
STACK CFI INIT a5f0 30 .cfa: sp 0 +
STACK CFI INIT a620 7c .cfa: sp 0 +
STACK CFI a624 .cfa: sp 48 +
STACK CFI a630 .cfa: x29 48 + x19: .cfa -8 + ^ x20: .cfa -16 + ^ x21: .cfa -32 + ^ .ra: .cfa -40 + ^ x29: .cfa -48 + ^
STACK CFI a68c .cfa: sp 48 +
STACK CFI a698 .cfa: sp 0 +
STACK CFI INIT a988 d0 .cfa: sp 0 +
STACK CFI a98c .cfa: sp 48 +
STACK CFI a998 .cfa: x29 48 + x19: .cfa -8 + ^ x20: .cfa -16 + ^ x21: .cfa -32 + ^ .ra: .cfa -40 + ^ x29: .cfa -48 + ^
STACK CFI aa38 .cfa: sp 48 +
STACK CFI aa44 .cfa: sp 0 +
STACK CFI aa48 .cfa: sp 48 +
STACK CFI aa54 .cfa: sp 0 +
STACK CFI INIT aa58 80 .cfa: sp 0 +
STACK CFI aa5c .cfa: sp 48 +
STACK CFI aa68 .cfa: x29 48 + x19: .cfa -8 + ^ x20: .cfa -16 + ^ x21: .cfa -32 + ^ .ra: .cfa -40 + ^ x29: .cfa -48 + ^
STACK CFI aac8 .cfa: sp 48 +
STACK CFI aad4 .cfa: sp 0 +
STACK CFI INIT b704 18 .cfa: sp 0 +
STACK CFI INIT ba68 10 .cfa: sp 0 +
STACK CFI ba6c .cfa: sp 16 +
STACK CFI ba70 .cfa: x29 16 + .ra: .cfa -8 + ^ x29: .cfa -16 + ^
STACK CFI INIT ba78 14 .cfa: sp 0 +
STACK CFI ba7c .cfa: sp 16 +
STACK CFI ba80 .cfa: x29 16 + .ra: .cfa -8 + ^ x29: .cfa -16 + ^
STACK CFI INIT badc 30 .cfa: sp 0 +
STACK CFI bae0 .cfa: sp 32 +
STACK CFI bae8 .cfa: x29 32 + x19: .cfa -16 + ^ .ra: .cfa -24 + ^ x29: .cfa -32 + ^
STACK CFI bb00 .cfa: sp 32 +
STACK CFI bb08 .cfa: sp 0 +
STACK CFI INIT bb0c 34 .cfa: sp 0 +
STACK CFI bb10 .cfa: sp 32 +
STACK CFI bb18 .cfa: x29 32 + x19: .cfa -16 + ^ .ra: .cfa -24 + ^ x29: .cfa -32 + ^
STACK CFI INIT bb40 148 .cfa: sp 0 +
STACK CFI bb44 .cfa: sp 48 +
STACK CFI bb50 .cfa: x29 48 + x19: .cfa -8 + ^ x20: .cfa -16 + ^ x21: .cfa -32 + ^ .ra: .cfa -40 + ^ x29: .cfa -48 + ^
STACK CFI bc78 .cfa: sp 48 +
STACK CFI bc84 .cfa: sp 0 +
STACK CFI INIT bc88 ac .cfa: sp 0 +
STACK CFI bc8c .cfa: sp 64 +
STACK CFI bc9c .cfa: x29 64 + x19: .cfa -8 + ^ x20: .cfa -16 + ^ x21: .cfa -24 + ^ x22: .cfa -32 + ^ x23: .cfa -48 + ^ .ra: .cfa -56 + ^ x29: .cfa -64 + ^
STACK CFI bd18 .cfa: sp 64 +
STACK CFI bd28 .cfa: sp 0 +
STACK CFI bd2c .cfa: x29 64 +
STACK CFI INIT bd34 18c .cfa: sp 0 +
STACK CFI bd38 .cfa: sp 64 +
STACK CFI bd48 .cfa: x29 64 + x19: .cfa -8 + ^ x20: .cfa -16 + ^ x21: .cfa -24 + ^ x22: .cfa -32 + ^ x23: .cfa -40 + ^ x24: .cfa -48 + ^ .ra: .cfa -56 + ^ x29: .cfa -64 + ^
STACK CFI bea8 .cfa: sp 64 +
STACK CFI beb8 .cfa: sp 0 +
STACK CFI bebc .cfa: x29 64 +
STACK CFI INIT c554 50 .cfa: sp 0 +
STACK CFI c558 .cfa: sp 32 +
STACK CFI c560 .cfa: x29 32 + x19: .cfa -16 + ^ .ra: .cfa -24 + ^ x29: .cfa -32 + ^
STACK CFI c578 .cfa: sp 32 +
STACK CFI c580 .cfa: sp 0 +
STACK CFI c584 .cfa: x29 32 +
STACK CFI c598 .cfa: sp 32 +
STACK CFI c5a0 .cfa: sp 0 +
STACK CFI INIT c618 7c .cfa: sp 0 +
STACK CFI c61c .cfa: sp 48 +
STACK CFI c628 .cfa: x29 48 + x19: .cfa -8 + ^ x20: .cfa -16 + ^ x21: .cfa -32 + ^ .ra: .cfa -40 + ^ x29: .cfa -48 + ^
STACK CFI c674 .cfa: sp 48 +
STACK CFI c680 .cfa: sp 0 +
STACK CFI c684 .cfa: sp 48 +
STACK CFI c690 .cfa: sp 0 +
STACK CFI INIT c694 4 .cfa: sp 0 +
STACK CFI INIT c698 100 .cfa: sp 0 +
STACK CFI c69c .cfa: sp 64 +
STACK CFI c6ac .cfa: x29 64 + x19: .cfa -8 + ^ x20: .cfa -16 + ^ x21: .cfa -24 + ^ x22: .cfa -32 + ^ x23: .cfa -40 + ^ x24: .cfa -48 + ^ .ra: .cfa -56 + ^ x29: .cfa -64 + ^
STACK CFI c784 .cfa: sp 64 +
STACK CFI c794 .cfa: sp 0 +
STACK CFI INIT c798 104 .cfa: sp 0 +
STACK CFI c79c .cfa: sp 80 +
STACK CFI c7b0 .cfa: x29 80 + x19: .cfa -8 + ^ x20: .cfa -16 + ^ x21: .cfa -24 + ^ x22: .cfa -32 + ^ x23: .cfa -40 + ^ x24: .cfa -48 + ^ x25: .cfa -56 + ^ x26: .cfa -64 + ^ .ra: .cfa -72 + ^ x29: .cfa -80 + ^
STACK CFI c884 .cfa: sp 80 +
STACK CFI c898 .cfa: sp 0 +
STACK CFI INIT c89c 7c .cfa: sp 0 +
STACK CFI c8a0 .cfa: sp 32 +
STACK CFI c8a8 .cfa: x29 32 + x19: .cfa -8 + ^ x20: .cfa -16 + ^ .ra: .cfa -24 + ^ x29: .cfa -32 + ^
STACK CFI c900 .cfa: sp 32 +
STACK CFI c908 .cfa: sp 0 +
STACK CFI c90c .cfa: sp 32 +
STACK CFI c914 .cfa: sp 0 +
STACK CFI INIT c918 70 .cfa: sp 0 +
STACK CFI c91c .cfa: sp 48 +
STACK CFI c928 .cfa: x29 48 + x19: .cfa -8 + ^ x20: .cfa -16 + ^ x21: .cfa -24 + ^ x22: .cfa -32 + ^ .ra: .cfa -40 + ^ x29: .cfa -48 + ^
STACK CFI c970 .cfa: sp 48 +
STACK CFI c97c .cfa: sp 0 +
STACK CFI c980 .cfa: x29 48 +
STACK CFI INIT c988 19c .cfa: sp 0 +
STACK CFI INIT cc78 34 .cfa: sp 0 +
STACK CFI cc7c .cfa: sp 16 +
STACK CFI cc80 .cfa: x29 16 + .ra: .cfa -8 + ^ x29: .cfa -16 + ^
STACK CFI INIT cdd0 24 .cfa: sp 0 +
STACK CFI cdd4 .cfa: sp 32 +
STACK CFI cddc .cfa: x29 32 + x19: .cfa -16 + ^ .ra: .cfa -24 + ^ x29: .cfa -32 + ^
STACK CFI cde8 .cfa: sp 32 +
STACK CFI cdf0 .cfa: sp 0 +
STACK CFI INIT d0b8 4 .cfa: sp 0 +
STACK CFI INIT d0bc 14 .cfa: sp 0 +
STACK CFI INIT d0d0 68 .cfa: sp 0 +
STACK CFI d0d4 .cfa: sp 32 +
STACK CFI d0dc .cfa: x29 32 + x19: .cfa -8 + ^ x20: .cfa -16 + ^ .ra: .cfa -24 + ^ x29: .cfa -32 + ^
STACK CFI d0f4 .cfa: sp 32 +
STACK CFI d0fc .cfa: sp 0 +
STACK CFI d100 .cfa: x29 32 +
STACK CFI d12c .cfa: sp 32 +
STACK CFI d134 .cfa: sp 0 +
STACK CFI INIT d138 14 .cfa: sp 0 +
STACK CFI d13c .cfa: sp 16 +
STACK CFI d140 .cfa: x29 16 + .ra: .cfa -8 + ^ x29: .cfa -16 + ^
STACK CFI INIT d14c 4 .cfa: sp 0 +
STACK CFI INIT d150 14 .cfa: sp 0 +
STACK CFI INIT d164 84 .cfa: sp 0 +
STACK CFI d16c .cfa: sp 32 +
STACK CFI d174 .cfa: x29 32 + x19: .cfa -8 + ^ x20: .cfa -16 + ^ .ra: .cfa -24 + ^ x29: .cfa -32 + ^
STACK CFI d1b4 .cfa: sp 32 +
STACK CFI d1bc .cfa: sp 0 +
STACK CFI d1c4 .cfa: x29 32 +
STACK CFI INIT d1e8 40 .cfa: sp 0 +
STACK CFI d1ec .cfa: sp 32 +
STACK CFI d1f4 .cfa: x29 32 + x19: .cfa -8 + ^ x20: .cfa -16 + ^ .ra: .cfa -24 + ^ x29: .cfa -32 + ^
STACK CFI d21c .cfa: sp 32 +
STACK CFI d224 .cfa: sp 0 +
STACK CFI INIT d488 50 .cfa: sp 0 +
STACK CFI d48c .cfa: sp 32 +
STACK CFI d494 .cfa: x29 32 + x19: .cfa -16 + ^ .ra: .cfa -24 + ^ x29: .cfa -32 + ^
STACK CFI d4ac .cfa: sp 32 +
STACK CFI d4b4 .cfa: sp 0 +
STACK CFI d4b8 .cfa: x29 32 +
STACK CFI d4cc .cfa: sp 32 +
STACK CFI d4d4 .cfa: sp 0 +
STACK CFI INIT d4d8 64 .cfa: sp 0 +
STACK CFI d4dc .cfa: sp 32 +
STACK CFI d4e4 .cfa: x29 32 + x19: .cfa -16 + ^ .ra: .cfa -24 + ^ x29: .cfa -32 + ^
STACK CFI d510 .cfa: sp 32 +
STACK CFI d518 .cfa: sp 0 +
STACK CFI d51c .cfa: x29 32 +
STACK CFI d530 .cfa: sp 32 +
STACK CFI d538 .cfa: sp 0 +
STACK CFI INIT d53c 8c .cfa: sp 0 +
STACK CFI d540 .cfa: sp 32 +
STACK CFI d548 .cfa: x29 32 + x19: .cfa -16 + ^ .ra: .cfa -24 + ^ x29: .cfa -32 + ^
STACK CFI d5bc .cfa: sp 32 +
STACK CFI d5c4 .cfa: sp 0 +
STACK CFI INIT eaec 30 .cfa: sp 0 +
STACK CFI eaf0 .cfa: sp 32 +
STACK CFI eaf8 .cfa: x29 32 + x19: .cfa -16 + ^ .ra: .cfa -24 + ^ x29: .cfa -32 + ^
STACK CFI eb10 .cfa: sp 32 +
STACK CFI eb18 .cfa: sp 0 +
STACK CFI INIT ed3c 64 .cfa: sp 0 +
STACK CFI ed40 .cfa: sp 32 +
STACK CFI ed48 .cfa: x29 32 + x19: .cfa -16 + ^ .ra: .cfa -24 + ^ x29: .cfa -32 + ^
STACK CFI ed74 .cfa: sp 32 +
STACK CFI ed7c .cfa: sp 0 +
STACK CFI ed80 .cfa: x29 32 +
STACK CFI ed94 .cfa: sp 32 +
STACK CFI ed9c .cfa: sp 0 +
STACK CFI INIT f1f4 4 .cfa: sp 0 +
STACK CFI INIT f1f8 14 .cfa: sp 0 +
STACK CFI INIT a69c 2ec .cfa: sp 0 +
STACK CFI a6a0 .cfa: sp 368 +
STACK CFI a6bc .cfa: x29 96 + x19: .cfa -8 + ^ x20: .cfa -16 + ^ x21: .cfa -24 + ^ x22: .cfa -32 + ^ x23: .cfa -40 + ^ x24: .cfa -48 + ^ x25: .cfa -56 + ^ x26: .cfa -64 + ^ x28: .cfa -80 + ^ .ra: .cfa -88 + ^ x29: .cfa -96 + ^
STACK CFI a904 .cfa: sp 368 +
STACK CFI a920 .cfa: sp 0 +
STACK CFI a924 .cfa: x29 96 +
STACK CFI INIT aad8 c2c .cfa: sp 0 +
STACK CFI aadc .cfa: sp 256 +
STACK CFI aaf8 .cfa: x29 96 + x19: .cfa -8 + ^ x20: .cfa -16 + ^ x21: .cfa -24 + ^ x22: .cfa -32 + ^ x23: .cfa -40 + ^ x24: .cfa -48 + ^ x25: .cfa -56 + ^ x26: .cfa -64 + ^ x27: .cfa -72 + ^ x28: .cfa -80 + ^ .ra: .cfa -88 + ^ x29: .cfa -96 + ^
STACK CFI ac68 .cfa: sp 256 +
STACK CFI ac84 .cfa: sp 0 +
STACK CFI ac88 .cfa: x29 96 +
STACK CFI b568 .cfa: sp 256 +
STACK CFI b584 .cfa: sp 0 +
STACK CFI b588 .cfa: x29 96 +
STACK CFI INIT b71c 198 .cfa: sp 0 +
STACK CFI b720 .cfa: sp 112 +
STACK CFI b738 .cfa: x29 80 + x19: .cfa -8 + ^ x20: .cfa -16 + ^ x21: .cfa -24 + ^ x22: .cfa -32 + ^ x23: .cfa -40 + ^ x24: .cfa -48 + ^ x25: .cfa -56 + ^ x26: .cfa -64 + ^ .ra: .cfa -72 + ^ x29: .cfa -80 + ^
STACK CFI b828 .cfa: sp 112 +
STACK CFI b840 .cfa: sp 0 +
STACK CFI b844 .cfa: x29 80 +
STACK CFI INIT b8b4 1b4 .cfa: sp 0 +
STACK CFI b8b8 .cfa: sp 128 +
STACK CFI b8d4 .cfa: x29 96 + x19: .cfa -8 + ^ x20: .cfa -16 + ^ x21: .cfa -24 + ^ x22: .cfa -32 + ^ x23: .cfa -40 + ^ x24: .cfa -48 + ^ x25: .cfa -56 + ^ x26: .cfa -64 + ^ x27: .cfa -80 + ^ .ra: .cfa -88 + ^ x29: .cfa -96 + ^
STACK CFI ba18 .cfa: sp 128 +
STACK CFI ba34 .cfa: sp 0 +
STACK CFI ba38 .cfa: x29 96 +
STACK CFI INIT ba8c 50 .cfa: sp 0 +
STACK CFI ba90 .cfa: sp 32 +
STACK CFI ba98 .cfa: x29 32 + x19: .cfa -8 + ^ x20: .cfa -16 + ^ .ra: .cfa -24 + ^ x29: .cfa -32 + ^
STACK CFI INIT bec0 694 .cfa: sp 0 +
STACK CFI bec4 .cfa: sp 240 +
STACK CFI bedc .cfa: x29 80 + x19: .cfa -8 + ^ x20: .cfa -16 + ^ x21: .cfa -24 + ^ x22: .cfa -32 + ^ x23: .cfa -40 + ^ x24: .cfa -48 + ^ x25: .cfa -56 + ^ x26: .cfa -64 + ^ .ra: .cfa -72 + ^ x29: .cfa -80 + ^
STACK CFI c3a0 .cfa: sp 240 +
STACK CFI c3b8 .cfa: sp 0 +
STACK CFI c3bc .cfa: x29 80 +
STACK CFI INIT c5a4 74 .cfa: sp 0 +
STACK CFI c5a8 .cfa: sp 48 +
STACK CFI c5b4 .cfa: x29 32 + x19: .cfa -8 + ^ x20: .cfa -16 + ^ .ra: .cfa -24 + ^ x29: .cfa -32 + ^
STACK CFI c600 .cfa: sp 48 +
STACK CFI c60c .cfa: sp 0 +
STACK CFI c610 .cfa: x29 32 +
STACK CFI INIT cb24 154 .cfa: sp 0 +
STACK CFI cb28 .cfa: sp 384 +
STACK CFI cb3c .cfa: x29 64 + x19: .cfa -8 + ^ x20: .cfa -16 + ^ x21: .cfa -24 + ^ x22: .cfa -32 + ^ x23: .cfa -40 + ^ x28: .cfa -48 + ^ .ra: .cfa -56 + ^ x29: .cfa -64 + ^
STACK CFI cc20 .cfa: sp 384 +
STACK CFI cc34 .cfa: sp 0 +
STACK CFI cc38 .cfa: x29 64 +
STACK CFI INIT ccac 124 .cfa: sp 0 +
STACK CFI ccb0 .cfa: sp 80 +
STACK CFI ccc4 .cfa: x29 80 + x19: .cfa -8 + ^ x20: .cfa -16 + ^ x21: .cfa -24 + ^ x22: .cfa -32 + ^ x23: .cfa -40 + ^ x24: .cfa -48 + ^ x25: .cfa -56 + ^ x26: .cfa -64 + ^ .ra: .cfa -72 + ^ x29: .cfa -80 + ^
STACK CFI cd90 .cfa: sp 80 +
STACK CFI cda4 .cfa: sp 0 +
STACK CFI cda8 .cfa: x29 80 +
STACK CFI INIT cdf4 15c .cfa: sp 0 +
STACK CFI cdf8 .cfa: sp 80 +
STACK CFI ce0c .cfa: x29 80 + x19: .cfa -8 + ^ x20: .cfa -16 + ^ x21: .cfa -24 + ^ x22: .cfa -32 + ^ x23: .cfa -40 + ^ x24: .cfa -48 + ^ x25: .cfa -64 + ^ .ra: .cfa -72 + ^ x29: .cfa -80 + ^
STACK CFI cf1c .cfa: sp 80 +
STACK CFI cf30 .cfa: sp 0 +
STACK CFI cf34 .cfa: x29 80 +
STACK CFI INIT cf50 168 .cfa: sp 0 +
STACK CFI cf54 .cfa: sp 384 +
STACK CFI cf68 .cfa: x29 64 + x19: .cfa -8 + ^ x20: .cfa -16 + ^ x21: .cfa -24 + ^ x22: .cfa -32 + ^ x23: .cfa -40 + ^ x28: .cfa -48 + ^ .ra: .cfa -56 + ^ x29: .cfa -64 + ^
STACK CFI d060 .cfa: sp 384 +
STACK CFI d074 .cfa: sp 0 +
STACK CFI d078 .cfa: x29 64 +
STACK CFI INIT d228 a8 .cfa: sp 0 +
STACK CFI d22c .cfa: sp 32 +
STACK CFI d234 .cfa: x29 32 + x19: .cfa -8 + ^ x20: .cfa -16 + ^ .ra: .cfa -24 + ^ x29: .cfa -32 + ^
STACK CFI d268 .cfa: sp 32 +
STACK CFI d270 .cfa: sp 0 +
STACK CFI d274 .cfa: x29 32 +
STACK CFI d278 .cfa: sp 32 +
STACK CFI d280 .cfa: sp 0 +
STACK CFI d284 .cfa: x29 32 +
STACK CFI INIT d2d0 1b8 .cfa: sp 0 +
STACK CFI d2d4 .cfa: sp 112 +
STACK CFI d2e4 .cfa: x29 48 + x19: .cfa -8 + ^ x20: .cfa -16 + ^ x21: .cfa -32 + ^ .ra: .cfa -40 + ^ x29: .cfa -48 + ^
STACK CFI d444 .cfa: sp 112 +
STACK CFI d454 .cfa: sp 0 +
STACK CFI d458 .cfa: x29 48 +
STACK CFI INIT d5c8 1524 .cfa: sp 0 +
STACK CFI d5cc .cfa: sp 96 +
STACK CFI d5e4 .cfa: x29 96 + x19: .cfa -8 + ^ x20: .cfa -16 + ^ x21: .cfa -24 + ^ x22: .cfa -32 + ^ x23: .cfa -40 + ^ x24: .cfa -48 + ^ x25: .cfa -56 + ^ x26: .cfa -64 + ^ x27: .cfa -72 + ^ x28: .cfa -80 + ^ .ra: .cfa -88 + ^ x29: .cfa -96 + ^
STACK CFI e7a0 .cfa: sp 96 +
STACK CFI e7b8 .cfa: sp 0 +
STACK CFI e7bc .cfa: x29 96 +
STACK CFI INIT eb1c 134 .cfa: sp 0 +
STACK CFI eb20 .cfa: sp 80 +
STACK CFI eb2c .cfa: x29 32 + x19: .cfa -8 + ^ x20: .cfa -16 + ^ .ra: .cfa -24 + ^ x29: .cfa -32 + ^
STACK CFI eb5c .cfa: sp 80 +
STACK CFI eb68 .cfa: sp 0 +
STACK CFI eb6c .cfa: x29 32 +
STACK CFI INIT ec50 78 .cfa: sp 0 +
STACK CFI ec54 .cfa: sp 32 +
STACK CFI ec5c .cfa: x29 32 + x19: .cfa -8 + ^ x20: .cfa -16 + ^ .ra: .cfa -24 + ^ x29: .cfa -32 + ^
STACK CFI ec68 .cfa: sp 32 +
STACK CFI ec70 .cfa: sp 0 +
STACK CFI ec74 .cfa: x29 32 +
STACK CFI INIT ecc8 74 .cfa: sp 0 +
STACK CFI eccc .cfa: sp 48 +
STACK CFI ecd8 .cfa: x29 32 + x19: .cfa -8 + ^ x20: .cfa -16 + ^ .ra: .cfa -24 + ^ x29: .cfa -32 + ^
STACK CFI ed24 .cfa: sp 48 +
STACK CFI ed30 .cfa: sp 0 +
STACK CFI ed34 .cfa: x29 32 +
STACK CFI INIT eda0 1b8 .cfa: sp 0 +
STACK CFI eda4 .cfa: sp 160 +
STACK CFI edc0 .cfa: x29 72 + x19: .cfa -8 + ^ x20: .cfa -16 + ^ x21: .cfa -24 + ^ x22: .cfa -32 + ^ x23: .cfa -40 + ^ x24: .cfa -48 + ^ x25: .cfa -56 + ^ .ra: .cfa -64 + ^ x29: .cfa -72 + ^ v8: .cfa -80 + ^
STACK CFI ee44 .cfa: sp 160 +
STACK CFI ee60 .cfa: sp 0 +
STACK CFI ee64 .cfa: x29 72 +
STACK CFI INIT ef58 148 .cfa: sp 0 +
STACK CFI ef5c .cfa: sp 64 +
STACK CFI ef6c .cfa: x29 48 + x19: .cfa -8 + ^ x20: .cfa -16 + ^ x21: .cfa -24 + ^ x22: .cfa -32 + ^ .ra: .cfa -40 + ^ x29: .cfa -48 + ^
STACK CFI f064 .cfa: sp 64 +
STACK CFI f074 .cfa: sp 0 +
STACK CFI f078 .cfa: x29 48 +
STACK CFI INIT f0a0 154 .cfa: sp 0 +
STACK CFI f0a4 .cfa: sp 384 +
STACK CFI f0b8 .cfa: x29 64 + x19: .cfa -8 + ^ x20: .cfa -16 + ^ x21: .cfa -24 + ^ x22: .cfa -32 + ^ x23: .cfa -40 + ^ x28: .cfa -48 + ^ .ra: .cfa -56 + ^ x29: .cfa -64 + ^
STACK CFI f19c .cfa: sp 384 +
STACK CFI f1b0 .cfa: sp 0 +
STACK CFI f1b4 .cfa: x29 64 +
