MODULE Linux arm64 60E7C713E24213FC2B062B35C4B5E0280 alphalaneous.pages_api.android64.so
INFO CODE_ID 13C7E76042E2FC132B062B35C4B5E028AEB22654
INFO GENERATOR mozilla/dump_syms 2.3.4
PUBLIC b000 0 __on_dlclose
PUBLIC b010 0 __emutls_unregister_key
PUBLIC b018 0 __on_dlclose_late
PUBLIC b020 0 __atexit_handler_wrapper
PUBLIC b034 0 atexit
PUBLIC b050 0 pthread_atfork
PUBLIC b060 0 unwind_phase2
PUBLIC b194 0 _Unwind_Resume
PUBLIC b218 0 unwind_phase2_forced
PUBLIC m b30c 0 __unw_init_local
PUBLIC m b3b4 0 __unw_get_reg
PUBLIC b430 0 __unw_step_stage2
PUBLIC m b444 0 __unw_get_proc_info
PUBLIC m b484 0 __unw_resume
PUBLIC b4ac 0 libunwind::CFI_Parser<libunwind::LocalAddressSpace>::decodeFDE(libunwind::LocalAddressSpace&, unsigned long, libunwind::CFI_Parser<libunwind::LocalAddressSpace>::FDE_Info*, libunwind::CFI_Parser<libunwind::LocalAddressSpace>::CIE_Info*, bool)
PUBLIC b63c 0 libunwind::CFI_Parser<libunwind::LocalAddressSpace>::parseCIE(libunwind::LocalAddressSpace&, unsigned long, libunwind::CFI_Parser<libunwind::LocalAddressSpace>::CIE_Info*)
PUBLIC b904 0 libunwind::AbstractUnwindCursor::~AbstractUnwindCursor()
PUBLIC b90c 0 libunwind::UnwindCursor<libunwind::LocalAddressSpace, libunwind::Registers_arm64>::~UnwindCursor()
PUBLIC b914 0 libunwind::UnwindCursor<libunwind::LocalAddressSpace, libunwind::Registers_arm64>::validReg(int)
PUBLIC b958 0 libunwind::UnwindCursor<libunwind::LocalAddressSpace, libunwind::Registers_arm64>::getReg(int)
PUBLIC ba40 0 libunwind::UnwindCursor<libunwind::LocalAddressSpace, libunwind::Registers_arm64>::setReg(int, unsigned long)
PUBLIC bb28 0 libunwind::UnwindCursor<libunwind::LocalAddressSpace, libunwind::Registers_arm64>::validFloatReg(int)
PUBLIC bb3c 0 libunwind::UnwindCursor<libunwind::LocalAddressSpace, libunwind::Registers_arm64>::getFloatReg(int)
PUBLIC bb4c 0 libunwind::UnwindCursor<libunwind::LocalAddressSpace, libunwind::Registers_arm64>::setFloatReg(int, double)
PUBLIC bb5c 0 libunwind::UnwindCursor<libunwind::LocalAddressSpace, libunwind::Registers_arm64>::step(bool)
PUBLIC bc4c 0 libunwind::UnwindCursor<libunwind::LocalAddressSpace, libunwind::Registers_arm64>::getInfo(unw_proc_info_t*)
PUBLIC bc90 0 libunwind::UnwindCursor<libunwind::LocalAddressSpace, libunwind::Registers_arm64>::jumpto()
PUBLIC bc9c 0 libunwind::UnwindCursor<libunwind::LocalAddressSpace, libunwind::Registers_arm64>::isSignalFrame()
PUBLIC bca8 0 libunwind::UnwindCursor<libunwind::LocalAddressSpace, libunwind::Registers_arm64>::getFunctionName(char*, unsigned long, unsigned long*)
PUBLIC bcd4 0 libunwind::UnwindCursor<libunwind::LocalAddressSpace, libunwind::Registers_arm64>::setInfoBasedOnIPRegister(bool)
PUBLIC bf10 0 libunwind::UnwindCursor<libunwind::LocalAddressSpace, libunwind::Registers_arm64>::getRegisterName(int)
PUBLIC bf1c 0 libunwind::UnwindCursor<libunwind::LocalAddressSpace, libunwind::Registers_arm64>::stepThroughSigReturn(libunwind::Registers_arm64&)
PUBLIC c03c 0 libunwind::DwarfInstructions<libunwind::LocalAddressSpace, libunwind::Registers_arm64>::stepWithDwarf(libunwind::LocalAddressSpace&, unsigned long, unsigned long, libunwind::Registers_arm64&, bool&, bool)
PUBLIC c4d0 0 libunwind::CFI_Parser<libunwind::LocalAddressSpace>::parseFDEInstructions(libunwind::LocalAddressSpace&, libunwind::CFI_Parser<libunwind::LocalAddressSpace>::FDE_Info const&, libunwind::CFI_Parser<libunwind::LocalAddressSpace>::CIE_Info const&, unsigned long, int, libunwind::CFI_Parser<libunwind::LocalAddressSpace>::PrologInfo*)
PUBLIC d048 0 libunwind::DwarfInstructions<libunwind::LocalAddressSpace, libunwind::Registers_arm64>::getCFA(libunwind::LocalAddressSpace&, libunwind::CFI_Parser<libunwind::LocalAddressSpace>::PrologInfo const&, libunwind::Registers_arm64 const&)
PUBLIC d17c 0 libunwind::DwarfInstructions<libunwind::LocalAddressSpace, libunwind::Registers_arm64>::getSavedRegister(libunwind::LocalAddressSpace&, libunwind::Registers_arm64 const&, unsigned long, libunwind::CFI_Parser<libunwind::LocalAddressSpace>::RegisterLocation const&)
PUBLIC d38c 0 libunwind::LocalAddressSpace::getEncodedP(unsigned long&, unsigned long, unsigned char, unsigned long)
PUBLIC d718 0 libunwind::LocalAddressSpace::getULEB128(unsigned long&, unsigned long)
PUBLIC d8e0 0 libunwind::DwarfInstructions<libunwind::LocalAddressSpace, libunwind::Registers_arm64>::evaluateExpression(unsigned long, libunwind::LocalAddressSpace&, libunwind::Registers_arm64 const&, unsigned long)
PUBLIC e2a4 0 libunwind::UnwindCursor<libunwind::LocalAddressSpace, libunwind::Registers_arm64>::getInfoFromDwarfSection(unsigned long, libunwind::UnwindInfoSections const&, unsigned int)
PUBLIC e578 0 libunwind::findUnwindSectionsByPhdr(dl_phdr_info*, unsigned long, void*)
PUBLIC e6a8 0 libunwind::EHHeaderParser<libunwind::LocalAddressSpace>::decodeEHHdr(libunwind::LocalAddressSpace&, unsigned long, unsigned long, libunwind::EHHeaderParser<libunwind::LocalAddressSpace>::EHHeaderInfo&)
PUBLIC e7c8 0 libunwind::CFI_Parser<libunwind::LocalAddressSpace>::findFDE(libunwind::LocalAddressSpace&, unsigned long, unsigned long, unsigned long, unsigned long, libunwind::CFI_Parser<libunwind::LocalAddressSpace>::FDE_Info*, libunwind::CFI_Parser<libunwind::LocalAddressSpace>::CIE_Info*)
PUBLIC e990 0 libunwind::EHHeaderParser<libunwind::LocalAddressSpace>::findFDE(libunwind::LocalAddressSpace&, unsigned long, unsigned long, unsigned int, libunwind::CFI_Parser<libunwind::LocalAddressSpace>::FDE_Info*, libunwind::CFI_Parser<libunwind::LocalAddressSpace>::CIE_Info*)
PUBLIC eaf8 0 libunwind::EHHeaderParser<libunwind::LocalAddressSpace>::getTableEntrySize(unsigned char)
PUBLIC ebf4 0 libunwind::Registers_arm64::getRegisterName(int)
PUBLIC ec24 0 __libunwind_Registers_arm64_jumpto
PUBLIC m ecb4 0 __unw_getcontext
PUBLIC ed50 0 __aarch64_ldadd8_acq_rel
PUBLIC ed80 0 init_have_lse_atomics
PUBLIC ee18 0 __init_cpu_features_constructor
PUBLIC f0c4 0 __init_cpu_features
PUBLIC m f150 0 PageMenu::checkChildren(float)
PUBLIC f2c4 0 geode::modifier::FieldIntermediate<PageMenu, cocos2d::CCMenu>::self()
PUBLIC m f8a8 0 PageMenu::setPaged(int, PageOrientation, float, float)
PUBLIC m 100f8 0 PageMenu::setElementCount(int)
PUBLIC m 10130 0 PageMenu::setOrientation(PageOrientation)
PUBLIC m 1016c 0 PageMenu::setMax(float)
PUBLIC m 101b4 0 PageMenu::enablePages(bool)
PUBLIC 102bc 0 geode::cocos::CCArrayExt<cocos2d::CCNode*, cocos2d::CCNode>::~CCArrayExt()
PUBLIC m 102d8 0 PageMenu::setFixed(float)
PUBLIC m 10374 0 PageMenu::setButtonScale(float)
PUBLIC m 103bc 0 PageMenu::setPage(int)
PUBLIC m 10510 0 PageMenu::addArrowButtons()
PUBLIC m 10a60 0 PageMenu::nextPage(cocos2d::CCObject*)
PUBLIC m 10aa0 0 PageMenu::prevPage(cocos2d::CCObject*)
PUBLIC 10af8 0 geode::cocos::CCArrayExt<cocos2d::CCArray*, cocos2d::CCArray>::~CCArrayExt()
PUBLIC 10b14 0 __cxx_global_var_init
PUBLIC 10b60 0 geode::modifier::ModifyBase<geode::modifier::ModifyDerive<PageMenu, cocos2d::CCMenu> >::~ModifyBase()
PUBLIC 10b78 0 geode::modifier::FieldIntermediate<PageMenu, cocos2d::CCMenu>::fieldDestructor(void*)
PUBLIC 10b98 0 std::__ndk1::vector<void*, std::__ndk1::allocator<void*> >::__throw_length_error[abi:ne190000]() const
PUBLIC 10bac 0 __clang_call_terminate
PUBLIC 10bbc 0 std::__ndk1::__throw_length_error[abi:ne190000](char const*)
PUBLIC 10c0c 0 std::length_error::length_error[abi:ne190000](char const*)
PUBLIC 10c3c 0 std::__throw_bad_array_new_length([abi:ne190000], void)
PUBLIC 10c70 0 std::__ndk1::vector<std::__ndk1::function<void (void*)>, std::__ndk1::allocator<std::__ndk1::function<void (void*)> > >::__throw_length_error[abi:ne190000]() const
PUBLIC 10c84 0 std::__ndk1::vector<void*, std::__ndk1::allocator<void*> >::__throw_out_of_range[abi:ne190000]() const
PUBLIC 10c90 0 std::__ndk1::__throw_out_of_range[abi:ne190000](char const*)
PUBLIC 10ce0 0 std::out_of_range::out_of_range[abi:ne190000](char const*)
PUBLIC 10d10 0 std::__ndk1::vector<std::__ndk1::function<void (void*)>, std::__ndk1::allocator<std::__ndk1::function<void (void*)> > >::__throw_out_of_range[abi:ne190000]() const
PUBLIC 10d1c 0 std::__ndk1::__function::__base<void (void*)>::~__base()
PUBLIC 10d20 0 std::__ndk1::__function::__func<void (*)(void*), std::__ndk1::allocator<void (*)(void*)>, void (void*)>::~__func()
PUBLIC 10d24 0 std::__ndk1::__function::__func<void (*)(void*), std::__ndk1::allocator<void (*)(void*)>, void (void*)>::__clone() const
PUBLIC 10d5c 0 std::__ndk1::__function::__func<void (*)(void*), std::__ndk1::allocator<void (*)(void*)>, void (void*)>::__clone(std::__ndk1::__function::__base<void (void*)>*) const
PUBLIC 10d74 0 std::__ndk1::__function::__func<void (*)(void*), std::__ndk1::allocator<void (*)(void*)>, void (void*)>::destroy()
PUBLIC 10d78 0 std::__ndk1::__function::__func<void (*)(void*), std::__ndk1::allocator<void (*)(void*)>, void (void*)>::destroy_deallocate()
PUBLIC 10d7c 0 std::__ndk1::__function::__func<void (*)(void*), std::__ndk1::allocator<void (*)(void*)>, void (void*)>::operator()(void*&&)
PUBLIC 10d8c 0 std::__ndk1::__function::__func<void (*)(void*), std::__ndk1::allocator<void (*)(void*)>, void (void*)>::target(std::type_info const&) const
PUBLIC 10da8 0 std::__ndk1::__function::__func<void (*)(void*), std::__ndk1::allocator<void (*)(void*)>, void (void*)>::target_type() const
PUBLIC 10db4 0 geode::cocos::CallFuncExtImpl<PageMenu::setPaged(int, PageOrientation, float, float)::$_0>::~CallFuncExtImpl()
PUBLIC 10dd8 0 geode::cocos::CallFuncExtImpl<PageMenu::setPaged(int, PageOrientation, float, float)::$_0>::update(float)
PUBLIC 10f54 0 cocos2d::CCAction::setTag(int)
PUBLIC 10f5c 0 std::__ndk1::basic_string<char, std::__ndk1::char_traits<char>, std::__ndk1::allocator<char> >::__throw_length_error[abi:ne190000]() const
PUBLIC 10f70 0 geode::cocos::CallFuncExtImpl<PageMenu::setPaged(int, PageOrientation, float, float)::$_1>::~CallFuncExtImpl()
PUBLIC 10f94 0 geode::cocos::CallFuncExtImpl<PageMenu::setPaged(int, PageOrientation, float, float)::$_1>::update(float)
PUBLIC 1111c 0 geode::cocos::CallFuncExtImpl<PageMenu::setPaged(int, PageOrientation, float, float)::$_2>::~CallFuncExtImpl()
PUBLIC 11140 0 geode::cocos::CallFuncExtImpl<PageMenu::setPaged(int, PageOrientation, float, float)::$_2>::update(float)
PUBLIC 112c8 0 geode::cocos::CallFuncExtImpl<PageMenu::setPaged(int, PageOrientation, float, float)::$_3>::~CallFuncExtImpl()
PUBLIC 112ec 0 geode::cocos::CallFuncExtImpl<PageMenu::setPaged(int, PageOrientation, float, float)::$_3>::update(float)
PUBLIC 11454 0 geode::cocos::CallFuncExtImpl<PageMenu::setPaged(int, PageOrientation, float, float)::$_4>::~CallFuncExtImpl()
PUBLIC 11478 0 geode::cocos::CallFuncExtImpl<PageMenu::setPaged(int, PageOrientation, float, float)::$_4>::update(float)
PUBLIC 11568 0 cocos2d::CCCopying::copyWithZone(cocos2d::CCZone*)
PUBLIC 11570 0 cocos2d::CCBool::~CCBool()
PUBLIC 11594 0 cocos2d::CCBool::acceptVisitor(cocos2d::CCDataVisitor&)
PUBLIC 115ac 0 cocos2d::CCObject::update(float)
PUBLIC 115b0 0 geode::modifier::ModifyDerive<PageMenu, cocos2d::CCMenu>::apply()
PUBLIC 115b4 0 geode::modifier::ModifyBase<geode::modifier::ModifyDerive<PageMenu, cocos2d::CCMenu> >::apply()
PUBLIC 115b8 0 std::__ndk1::__tree<std::__ndk1::__value_type<std::__ndk1::basic_string<char, std::__ndk1::char_traits<char>, std::__ndk1::allocator<char> >, std::__ndk1::shared_ptr<geode::Hook> >, std::__ndk1::__map_value_compare<std::__ndk1::basic_string<char, std::__ndk1::char_traits<char>, std::__ndk1::allocator<char> >, std::__ndk1::__value_type<std::__ndk1::basic_string<char, std::__ndk1::char_traits<char>, std::__ndk1::allocator<char> >, std::__ndk1::shared_ptr<geode::Hook> >, std::__ndk1::less<std::__ndk1::basic_string<char, std::__ndk1::char_traits<char>, std::__ndk1::allocator<char> > >, true>, std::__ndk1::allocator<std::__ndk1::__value_type<std::__ndk1::basic_string<char, std::__ndk1::char_traits<char>, std::__ndk1::allocator<char> >, std::__ndk1::shared_ptr<geode::Hook> > > >::destroy(std::__ndk1::__tree_node<std::__ndk1::__value_type<std::__ndk1::basic_string<char, std::__ndk1::char_traits<char>, std::__ndk1::allocator<char> >, std::__ndk1::shared_ptr<geode::Hook> >, void*>*)
PUBLIC 1163c 0 geode::cast::traverseTypeinfoFor(void*, geode::cast::ClassTypeinfoType const*, char const*)
PUBLIC m 11734 0 geodeImplicitEntry
PUBLIC 11770 0 std::__ndk1::unordered_map<void*, bool, std::__ndk1::hash<void*>, std::__ndk1::equal_to<void*>, std::__ndk1::allocator<std::__ndk1::pair<void* const, bool> > >::~unordered_map[abi:ne190000]()
PUBLIC 117bc 0 wrapFunction(unsigned long, tulip::hook::WrapperMetadata const&)
PUBLIC 118f0 0 geode::impl::ResultData<void*, std::__ndk1::basic_string<char, std::__ndk1::char_traits<char>, std::__ndk1::allocator<char> > >::unwrapErr() &
PUBLIC 11968 0 geode::impl::ResultData<void*, std::__ndk1::basic_string<char, std::__ndk1::char_traits<char>, std::__ndk1::allocator<char> > >::~ResultData()
PUBLIC 119dc 0 std::__ndk1::shared_ptr<tulip::hook::CallingConvention>::~shared_ptr[abi:ne190000]()
PUBLIC 11a2c 0 tulip::hook::WrapperMetadata::~WrapperMetadata()
PUBLIC 11a90 0 cocos2d::CCObject::CCObject()
PUBLIC 11cb4 0 cocos2d::CCObject::~CCObject()
PUBLIC 11cd8 0 cocos2d::CCAction::~CCAction()
PUBLIC 11cfc 0 cocos2d::CCActionInstant::CCActionInstant()
PUBLIC 11f28 0 cocos2d::CCAction::~CCAction()
PUBLIC 12198 0 CCMenuItemSpriteExtra::create(cocos2d::CCNode*, cocos2d::CCObject*, void (cocos2d::CCObject::*)(cocos2d::CCObject*))
PUBLIC 121ac 0 cocos2d::CCObject::~CCObject()
PUBLIC 126a0 0 _ZN5geode15UnwrapExceptionC2IRPvQsr4implE18IsStringStreamableIT_EEENS_4impl5OkTagEOS4_
PUBLIC 127f4 0 std::__ndk1::__throw_bad_variant_access[abi:ne190000]()
PUBLIC 12828 0 std::__ndk1::basic_stringstream<char, std::__ndk1::char_traits<char>, std::__ndk1::allocator<char> >::basic_stringstream[abi:ne190000]()
PUBLIC m 1295c 0 std::__ndk1::basic_stringstream<char, std::__ndk1::char_traits<char>, std::__ndk1::allocator<char> >::~basic_stringstream()
PUBLIC 129dc 0 geode::UnwrapException::~UnwrapException()
PUBLIC 12a00 0 std::__ndk1::__put_character_sequence[abi:ne190000]<char, std::__ndk1::char_traits<char> >(std::__ndk1::basic_ostream<char, std::__ndk1::char_traits<char> >, std::__ndk1::basic_ostream const*, unsigned long)
PUBLIC 12ce4 0 std::__ndk1::basic_stringbuf<char, std::__ndk1::char_traits<char>, std::__ndk1::allocator<char> >::str[abi:ne190000]() &&
PUBLIC 12f68 0 std::__ndk1::basic_string<char, std::__ndk1::char_traits<char>, std::__ndk1::allocator<char> >::__erase_external_with_move(unsigned long, unsigned long)
PUBLIC 12fec 0 _ZN5geode15UnwrapExceptionC2IRNSt6__ndk112basic_stringIcNS2_11char_traitsIcEENS2_9allocatorIcEEEEQsr4implE18IsStringStreamableIT_EEENS_4impl6ErrTagEOSA_
PUBLIC 13154 0 std::__ndk1::__variant_detail::__visitation::__base::__dispatcher<(unsigned long)0>::__dispatch[abi:ne190000]<std::__ndk1::__variant_detail::__dtor<std::__ndk1::__variant_detail::__traits<void*, std::__ndk1::basic_string<char, std::__ndk1::char_traits<char>, std::__ndk1::allocator<char> > >, (std::__ndk1::__variant_detail::_Trait)1>::__destroy[abi:ne190000]()::{lambda(auto:1&)#1}, std::__ndk1::__variant_detail::__base<(std::__ndk1::__variant_detail::__traits<void*, std::__ndk1::basic_string<char, std::__ndk1::char_traits<char>, std::__ndk1::allocator<char> > >)1, std::__ndk1::__variant_detail::__traits, std::__ndk1::allocator<char> >&>(std::__ndk1::__variant_detail::__dtor<std::__ndk1::__variant_detail::__traits<void*, std::__ndk1::basic_string<char, std::__ndk1::char_traits<char>, std::__ndk1::allocator<char> > >, (std::__ndk1::__variant_detail::_Trait)1>, std::__ndk1::__variant_detail::__base<(std::__ndk1::__variant_detail::__traits<void*, std::__ndk1::basic_string<char, std::__ndk1::char_traits<char>, std::__ndk1::allocator<char> > >)1, std::__ndk1::__variant_detail::__traits, std::__ndk1::allocator<char> >&)
PUBLIC 13158 0 std::__ndk1::__variant_detail::__visitation::__base::__dispatcher<(unsigned long)1>::__dispatch[abi:ne190000]<std::__ndk1::__variant_detail::__dtor<std::__ndk1::__variant_detail::__traits<void*, std::__ndk1::basic_string<char, std::__ndk1::char_traits<char>, std::__ndk1::allocator<char> > >, (std::__ndk1::__variant_detail::_Trait)1>::__destroy[abi:ne190000]()::{lambda(auto:1&)#1}, std::__ndk1::__variant_detail::__base<(std::__ndk1::__variant_detail::__traits<void*, std::__ndk1::basic_string<char, std::__ndk1::char_traits<char>, std::__ndk1::allocator<char> > >)1, std::__ndk1::__variant_detail::__traits, std::__ndk1::allocator<char> >&>(std::__ndk1::__variant_detail::__dtor<std::__ndk1::__variant_detail::__traits<void*, std::__ndk1::basic_string<char, std::__ndk1::char_traits<char>, std::__ndk1::allocator<char> > >, (std::__ndk1::__variant_detail::_Trait)1>, std::__ndk1::__variant_detail::__base<(std::__ndk1::__variant_detail::__traits<void*, std::__ndk1::basic_string<char, std::__ndk1::char_traits<char>, std::__ndk1::allocator<char> > >)1, std::__ndk1::__variant_detail::__traits, std::__ndk1::allocator<char> >&)
PUBLIC 1316c 0 std::__ndk1::__hash_table<std::__ndk1::__hash_value_type<void*, bool>, std::__ndk1::__unordered_map_hasher<void*, std::__ndk1::__hash_value_type<void*, bool>, std::__ndk1::hash<void*>, std::__ndk1::equal_to<void*>, true>, std::__ndk1::__unordered_map_equal<void*, std::__ndk1::__hash_value_type<void*, bool>, std::__ndk1::equal_to<void*>, std::__ndk1::hash<void*>, true>, std::__ndk1::allocator<std::__ndk1::__hash_value_type<void*, bool> > >::__emplace_unique_key_args<void*, std::__ndk1::piecewise_construct_t const&, std::__ndk1::tuple<void* const&>, std::__ndk1::tuple<> >(void* const&, std::__ndk1::piecewise_construct_t const&, std::__ndk1::tuple<void* const&>, std::__ndk1::tuple<>)
PUBLIC 13678 0 __udivti3
PUBLIC 13684 0 __udivmodti4
PUBLIC m 138d0 0 __eqtf2
PUBLIC 13970 0 __unordtf2
PUBLIC 139a8 0 fmt::v11::detail::write_loc(fmt::v11::basic_appender<char>, fmt::v11::loc_value, fmt::v11::format_specs const&, fmt::v11::detail::locale_ref)
PUBLIC 13c3c 0 fmt::v11::format_facet<std::__ndk1::locale>::~format_facet()
PUBLIC 13cb8 0 fmt::v11::report_error(char const*)
PUBLIC 13d08 0 fmt::v11::format_error::runtime_error(char const*)
PUBLIC 13d34 0 fmt::v11::format_facet<std::__ndk1::locale>::do_put(fmt::v11::basic_appender<char>, fmt::v11::loc_value, fmt::v11::format_specs const&) const
PUBLIC 144f4 0 fmt::v11::detail::loc_writer<char>::~loc_writer()
PUBLIC 14558 0 fmt::v11::vformat(fmt::v11::basic_string_view<char>, fmt::v11::basic_format_args<fmt::v11::context>)
PUBLIC 146a4 0 fmt::v11::detail::vformat_to<char>(fmt::v11::detail::buffer<char>&, fmt::v11::basic_string_view<char>, fmt::v11::detail::vformat_args<char>::type, fmt::v11::detail::locale_ref)
PUBLIC 14c14 0 fmt::v11::detail::is_printable(unsigned int)
PUBLIC 14e3c 0 fmt::v11::detail::dragonbox::to_decimal<float>(float)
PUBLIC 15118 0 fmt::v11::detail::dragonbox::to_decimal<double>(double)
PUBLIC 15654 0 fmt::v11::basic_memory_buffer<char, (unsigned long)500, std::__ndk1::allocator<char> >::grow(fmt::v11::detail::buffer<char>&, unsigned long)
PUBLIC 156cc 0 fmt::v11::format_facet<std::__ndk1::locale>::~format_facet()
PUBLIC 15758 0 fmt::v11::format_error::~format_error()
PUBLIC 1577c 0 std::__ndk1::basic_string<char, std::__ndk1::char_traits<char>, std::__ndk1::allocator<char> >::__init_copy_ctor_external(char const*, unsigned long)
PUBLIC 15810 0 fmt::v11::detail::copy_noinline<char, char const*, fmt::v11::basic_appender<char> >(char const*, char const*, fmt::v11::basic_appender<char>)
PUBLIC 15960 0 fmt::v11::detail::default_arg_formatter<char>::operator()<bool>(bool)
PUBLIC 159c8 0 fmt::v11::detail::default_arg_formatter<char>::operator()<char>(char)
PUBLIC 15a58 0 fmt::v11::detail::default_arg_formatter<char>::operator()<float>(float)
PUBLIC 15b44 0 fmt::v11::detail::default_arg_formatter<char>::operator()<double>(double)
PUBLIC 15c30 0 fmt::v11::detail::default_arg_formatter<char>::operator()<char const*>(char const*)
PUBLIC 15c78 0 fmt::v11::detail::default_arg_formatter<char>::operator()<void const*>(void const*)
PUBLIC 15d10 0 _ZN3fmt3v116detail5writeIcNS0_14basic_appenderIcEEiTnNSt6__ndk19enable_ifIXaaaasr11is_integralIT1_EE5valuentsr3std7is_sameIS7_bEE5valuentsr3std7is_sameIS7_T_EE5valueEiE4typeELi0EEET0_SB_S7_
PUBLIC 15f70 0 fmt::v11::detail::copy_noinline<char, char*, fmt::v11::basic_appender<char> >(char*, char*, fmt::v11::basic_appender<char>)
PUBLIC 160c0 0 _ZN3fmt3v116detail5writeIcNS0_14basic_appenderIcEEjTnNSt6__ndk19enable_ifIXaaaasr11is_integralIT1_EE5valuentsr3std7is_sameIS7_bEE5valuentsr3std7is_sameIS7_T_EE5valueEiE4typeELi0EEET0_SB_S7_
PUBLIC 162a0 0 _ZN3fmt3v116detail5writeIcNS0_14basic_appenderIcEExTnNSt6__ndk19enable_ifIXaaaasr11is_integralIT1_EE5valuentsr3std7is_sameIS7_bEE5valuentsr3std7is_sameIS7_T_EE5valueEiE4typeELi0EEET0_SB_S7_
PUBLIC 16524 0 _ZN3fmt3v116detail5writeIcNS0_14basic_appenderIcEEyTnNSt6__ndk19enable_ifIXaaaasr11is_integralIT1_EE5valuentsr3std7is_sameIS7_bEE5valuentsr3std7is_sameIS7_T_EE5valueEiE4typeELi0EEET0_SB_S7_
PUBLIC 1672c 0 _ZN3fmt3v116detail5writeIcNS0_14basic_appenderIcEEnTnNSt6__ndk19enable_ifIXaaaasr11is_integralIT1_EE5valuentsr3std7is_sameIS7_bEE5valuentsr3std7is_sameIS7_T_EE5valueEiE4typeELi0EEET0_SB_S7_
PUBLIC 16a8c 0 _ZN3fmt3v116detail5writeIcNS0_14basic_appenderIcEEoTnNSt6__ndk19enable_ifIXaaaasr11is_integralIT1_EE5valuentsr3std7is_sameIS7_bEE5valuentsr3std7is_sameIS7_T_EE5valueEiE4typeELi0EEET0_SB_S7_
PUBLIC 16da0 0 _ZN3fmt3v116detail5writeIcNS0_14basic_appenderIcEEbTnNSt6__ndk19enable_ifIXsr3std7is_sameIT1_bEE5valueEiE4typeELi0EEET0_SA_S7_RKNS0_12format_specsENS1_10locale_refE
PUBLIC 17030 0 fmt::v11::detail::write_int_noinline<char, fmt::v11::basic_appender<char>, unsigned int>(fmt::v11::basic_appender<char>, fmt::v11::detail::write_int_arg<unsigned int>, fmt::v11::format_specs const&, fmt::v11::detail::locale_ref)
PUBLIC 17df8 0 fmt::v11::detail::fill<char, fmt::v11::basic_appender<char> >(fmt::v11::basic_appender<char>, unsigned long, fmt::v11::detail::fill_t const&)
PUBLIC 17fc8 0 fmt::v11::detail::write_padded<char, (fmt::v11::align::type)1, fmt::v11::basic_appender<char>, fmt::v11::detail::write_char<char, fmt::v11::basic_appender<char> >(fmt::v11::basic_appender<char>, char, fmt::v11::format_specs const&)::{lambda(fmt::v11::basic_appender<char>&)#1}>(fmt::v11::basic_appender<char>, fmt::v11::format_specs const&, unsigned long, unsigned long, fmt::v11::detail::write_char<char, fmt::v11::basic_appender<char> >(fmt::v11::basic_appender<char>, char, fmt::v11::format_specs const&)::{lambda(fmt::v11::basic_appender<char>&)#1})
PUBLIC 18204 0 fmt::v11::detail::write_escaped_cp<fmt::v11::basic_appender<char>, char>(fmt::v11::basic_appender<char>, fmt::v11::detail::find_escape_result<char> const&)
PUBLIC 18510 0 fmt::v11::detail::write_codepoint<(unsigned long)2, char, fmt::v11::basic_appender<char> >(fmt::v11::basic_appender<char>, char, unsigned int)
PUBLIC 18688 0 fmt::v11::detail::write_codepoint<(unsigned long)8, char, fmt::v11::basic_appender<char> >(fmt::v11::basic_appender<char>, char, unsigned int)
PUBLIC 18800 0 fmt::v11::detail::write_padded<char, (fmt::v11::align::type)1, fmt::v11::basic_appender<char>, fmt::v11::detail::write_nonfinite<char, fmt::v11::basic_appender<char> >(fmt::v11::basic_appender<char>, bool, fmt::v11::format_specs, fmt::v11::sign::type)::{lambda(fmt::v11::basic_appender<char>&)#1}>(fmt::v11::basic_appender<char>, fmt::v11::format_specs const&, unsigned long, unsigned long, fmt::v11::detail::write_nonfinite<char, fmt::v11::basic_appender<char> >(fmt::v11::basic_appender<char>, bool, fmt::v11::format_specs, fmt::v11::sign::type)::{lambda(fmt::v11::basic_appender<char>&)#1})
PUBLIC 18a40 0 fmt::v11::detail::do_write_float<char, fmt::v11::basic_appender<char>, fmt::v11::detail::dragonbox::decimal_fp<float>, fmt::v11::detail::digit_grouping<char> >(fmt::v11::basic_appender<char>, fmt::v11::detail::dragonbox::decimal_fp<float> const&, fmt::v11::format_specs const&, fmt::v11::detail::float_specs, fmt::v11::detail::locale_ref)
PUBLIC 196b4 0 fmt::v11::detail::do_write_float<char, fmt::v11::basic_appender<char>, fmt::v11::detail::dragonbox::decimal_fp<float>, fmt::v11::detail::digit_grouping<char> >(fmt::v11::basic_appender<char>, fmt::v11::detail::dragonbox::decimal_fp<float> const&, fmt::v11::format_specs const&, fmt::v11::detail::float_specs, fmt::v11::detail::locale_ref)::{lambda(fmt::v11::basic_appender<char>(fmt::v11::basic_appender<char>))#1}::operator() const
PUBLIC 19808 0 fmt::v11::detail::digit_grouping<char>::digit_grouping(fmt::v11::detail::locale_ref, bool)
PUBLIC 19a70 0 fmt::v11::detail::digit_grouping<char>::~digit_grouping()
PUBLIC 19ab4 0 fmt::v11::detail::write_exponent<char, fmt::v11::basic_appender<char> >(int, fmt::v11::basic_appender<char>)
PUBLIC 19c84 0 _ZN3fmt3v116detail17write_significandIcjTnNSt6__ndk19enable_ifIXsr3std11is_integralIT0_EE5valueEiE4typeELi0EEEPT_S9_S5_iiS8_
PUBLIC 19e00 0 std::__ndk1::basic_string<char, std::__ndk1::char_traits<char>, std::__ndk1::allocator<char> >::__assign_no_alias<true>(char const*, unsigned long)
PUBLIC 19eac 0 std::__ndk1::basic_string<char, std::__ndk1::char_traits<char>, std::__ndk1::allocator<char> >::__assign_no_alias<false>(char const*, unsigned long)
PUBLIC 19fe8 0 fmt::v11::detail::digit_grouping<char>::apply<fmt::v11::basic_appender<char>, char>(fmt::v11::basic_appender<char>, fmt::v11::basic_string_view<char>) const
PUBLIC 1a3a0 0 fmt::v11::basic_memory_buffer<int, (unsigned long)500, std::__ndk1::allocator<int> >::grow(fmt::v11::detail::buffer<int>&, unsigned long)
PUBLIC 1a440 0 fmt::v11::detail::do_write_float<char, fmt::v11::basic_appender<char>, fmt::v11::detail::dragonbox::decimal_fp<double>, fmt::v11::detail::digit_grouping<char> >(fmt::v11::basic_appender<char>, fmt::v11::detail::dragonbox::decimal_fp<double> const&, fmt::v11::format_specs const&, fmt::v11::detail::float_specs, fmt::v11::detail::locale_ref)
PUBLIC 1b0f0 0 fmt::v11::detail::do_write_float<char, fmt::v11::basic_appender<char>, fmt::v11::detail::dragonbox::decimal_fp<double>, fmt::v11::detail::digit_grouping<char> >(fmt::v11::basic_appender<char>, fmt::v11::detail::dragonbox::decimal_fp<double> const&, fmt::v11::format_specs const&, fmt::v11::detail::float_specs, fmt::v11::detail::locale_ref)::{lambda(fmt::v11::basic_appender<char>(fmt::v11::basic_appender<char>))#1}::operator() const
PUBLIC 1b248 0 _ZN3fmt3v116detail17write_significandIcmTnNSt6__ndk19enable_ifIXsr3std11is_integralIT0_EE5valueEiE4typeELi0EEEPT_S9_S5_iiS8_
PUBLIC 1b3d8 0 fmt::v11::detail::write_float<char, fmt::v11::basic_appender<char>, long double>(fmt::v11::basic_appender<char>, long double, fmt::v11::format_specs, fmt::v11::detail::locale_ref)
PUBLIC 1bebc 0 fmt::v11::detail::write_padded<char, (fmt::v11::align::type)2, fmt::v11::basic_appender<char>, fmt::v11::detail::write_bytes<char, (fmt::v11::align::type)2, fmt::v11::basic_appender<char> >(fmt::v11::basic_appender<char>, fmt::v11::basic_string_view<char>, fmt::v11::format_specs const&)::{lambda(fmt::v11::basic_appender<char>&)#1}>(fmt::v11::basic_appender<char>, fmt::v11::format_specs const&, unsigned long, unsigned long, fmt::v11::detail::write_bytes<char, (fmt::v11::align::type)2, fmt::v11::basic_appender<char> >(fmt::v11::basic_appender<char>, fmt::v11::basic_string_view<char>, fmt::v11::format_specs const&)::{lambda(fmt::v11::basic_appender<char>&)#1})
PUBLIC 1c098 0 fmt::v11::detail::format_dragon(fmt::v11::detail::basic_fp<unsigned __int128>, unsigned int, int, fmt::v11::detail::buffer<char>&, int&)
PUBLIC 1d4bc 0 fmt::v11::detail::bigint::operator<<=(int)
PUBLIC 1d5e0 0 fmt::v11::detail::bigint::assign_pow10(int)
PUBLIC 1dd3c 0 fmt::v11::detail::bigint::divmod_assign(fmt::v11::detail::bigint const&)
PUBLIC 1e060 0 fmt::v11::basic_memory_buffer<unsigned int, (unsigned long)32, std::__ndk1::allocator<unsigned int> >::grow(fmt::v11::detail::buffer<unsigned int>&, unsigned long)
PUBLIC 1e100 0 fmt::v11::detail::do_write_float<char, fmt::v11::basic_appender<char>, fmt::v11::detail::big_decimal_fp, fmt::v11::detail::digit_grouping<char> >(fmt::v11::basic_appender<char>, fmt::v11::detail::big_decimal_fp const&, fmt::v11::format_specs const&, fmt::v11::detail::float_specs, fmt::v11::detail::locale_ref)
PUBLIC 1efac 0 fmt::v11::detail::do_write_float<char, fmt::v11::basic_appender<char>, fmt::v11::detail::big_decimal_fp, fmt::v11::detail::digit_grouping<char> >(fmt::v11::basic_appender<char>, fmt::v11::detail::big_decimal_fp const&, fmt::v11::format_specs const&, fmt::v11::detail::float_specs, fmt::v11::detail::locale_ref)::{lambda(fmt::v11::basic_appender<char>(fmt::v11::basic_appender<char>))#1}::operator() const
PUBLIC 1f10c 0 fmt::v11::detail::write_padded<char, (fmt::v11::align::type)2, fmt::v11::basic_appender<char>, fmt::v11::detail::write_ptr<char, fmt::v11::basic_appender<char>, unsigned long>(fmt::v11::basic_appender<char>, unsigned long, fmt::v11::format_specs const*)::{lambda(fmt::v11::basic_appender<char>&)#1}>(fmt::v11::basic_appender<char>, fmt::v11::format_specs const&, unsigned long, unsigned long, fmt::v11::detail::write_ptr<char, fmt::v11::basic_appender<char>, unsigned long>(fmt::v11::basic_appender<char>, unsigned long, fmt::v11::format_specs const*)::{lambda(fmt::v11::basic_appender<char>&)#1})
PUBLIC 1f320 0 fmt::v11::detail::parse_replacement_field<char, fmt::v11::detail::vformat_to<char>(fmt::v11::detail::buffer<char>&, fmt::v11::basic_string_view<char>, fmt::v11::detail::vformat_args<char>::type, fmt::v11::detail::locale_ref)::format_handler&>(char const*, char const*, fmt::v11::detail::vformat_to<char>(fmt::v11::detail::buffer<char>&, fmt::v11::basic_string_view<char>, fmt::v11::detail::vformat_args<char>::type, fmt::v11::detail::locale_ref)::format_handler&)
PUBLIC 20f84 0 fmt::v11::detail::parse_dynamic_spec<char>(char const*, char const*, int&, fmt::v11::detail::arg_ref<char>&, fmt::v11::basic_format_parse_context<char>&)
PUBLIC 21214 0 fmt::v11::basic_format_args<fmt::v11::context>::get<char>(fmt::v11::basic_string_view<char>) const
PUBLIC 21348 0 fmt::v11::detail::write_int_noinline<char, fmt::v11::basic_appender<char>, unsigned long>(fmt::v11::basic_appender<char>, fmt::v11::detail::write_int_arg<unsigned long>, fmt::v11::format_specs const&, fmt::v11::detail::locale_ref)
PUBLIC 22194 0 fmt::v11::detail::write_int_noinline<char, fmt::v11::basic_appender<char>, unsigned __int128>(fmt::v11::basic_appender<char>, fmt::v11::detail::write_int_arg<unsigned __int128>, fmt::v11::format_specs const&, fmt::v11::detail::locale_ref)
PUBLIC 231fc 0 _ZN3fmt3v116detail15format_hexfloatIdTnNSt6__ndk19enable_ifIXntsr16is_double_doubleIT_EE5valueEiE4typeELi0EEEvS5_NS0_12format_specsERNS1_6bufferIcEE
PUBLIC 2371c 0 fmt::v11::detail::format_float<double>(double, int, fmt::v11::detail::float_specs, fmt::v11::detail::buffer<char>&)
PUBLIC 24168 0 fmt::v11::detail::write<char, fmt::v11::basic_appender<char> >(fmt::v11::basic_appender<char>, fmt::v11::basic_string_view<char>, fmt::v11::format_specs const&)
PUBLIC 25444 0 fmt::v11::detail::for_each_codepoint<fmt::v11::detail::compute_width(fmt::v11::basic_string_view<char>)::count_code_points>(fmt::v11::basic_string_view<char>, fmt::v11::detail::compute_width(fmt::v11::basic_string_view<char>)::count_code_points)::{lambda(char const*, char const*)#1}::operator()(char const*, char const*) const
PUBLIC 255fc 0 fmt::v11::detail::write_int<fmt::v11::basic_appender<char>, unsigned long, char>(fmt::v11::basic_appender<char>, unsigned long, unsigned int, fmt::v11::format_specs const&, fmt::v11::detail::digit_grouping<char> const&)
PUBLIC 25b78 0 fmt::v11::detail::write_int<fmt::v11::basic_appender<char>, unsigned __int128, char>(fmt::v11::basic_appender<char>, unsigned __int128, unsigned int, fmt::v11::format_specs const&, fmt::v11::detail::digit_grouping<char> const&)
PUBLIC 26200 0 <.plt ELF section in alphalaneous.pages_api.android64.so>
STACK CFI INIT b000 10 .cfa: sp 0 +
STACK CFI INIT b010 8 .cfa: sp 0 +
STACK CFI INIT b018 8 .cfa: sp 0 +
STACK CFI INIT b020 14 .cfa: sp 0 +
STACK CFI INIT b034 1c .cfa: sp 0 +
STACK CFI INIT b050 10 .cfa: sp 0 +
STACK CFI INIT b060 134 .cfa: sp 0 +
STACK CFI INIT b194 84 .cfa: sp 0 +
STACK CFI INIT b218 f4 .cfa: sp 0 +
STACK CFI INIT b30c a8 .cfa: sp 0 +
STACK CFI INIT b3b4 7c .cfa: sp 0 +
STACK CFI INIT b430 14 .cfa: sp 0 +
STACK CFI INIT b444 40 .cfa: sp 0 +
STACK CFI INIT b484 28 .cfa: sp 0 +
STACK CFI INIT b4ac 190 .cfa: sp 0 +
STACK CFI INIT b63c 2c8 .cfa: sp 0 +
STACK CFI INIT b904 8 .cfa: sp 0 +
STACK CFI INIT b90c 8 .cfa: sp 0 +
STACK CFI INIT b914 44 .cfa: sp 0 +
STACK CFI INIT b958 e8 .cfa: sp 0 +
STACK CFI INIT ba40 e8 .cfa: sp 0 +
STACK CFI INIT bb28 14 .cfa: sp 0 +
STACK CFI INIT bb3c 10 .cfa: sp 0 +
STACK CFI INIT bb4c 10 .cfa: sp 0 +
STACK CFI INIT bb5c f0 .cfa: sp 0 +
STACK CFI INIT bc4c 44 .cfa: sp 0 +
STACK CFI INIT bc90 c .cfa: sp 0 +
STACK CFI INIT bc9c c .cfa: sp 0 +
STACK CFI INIT bca8 2c .cfa: sp 0 +
STACK CFI INIT bcd4 23c .cfa: sp 0 +
STACK CFI INIT bf10 c .cfa: sp 0 +
STACK CFI INIT bf1c 120 .cfa: sp 0 +
STACK CFI INIT c03c 494 .cfa: sp 0 +
STACK CFI INIT c4d0 b78 .cfa: sp 0 +
STACK CFI INIT d048 134 .cfa: sp 0 +
STACK CFI INIT d17c 210 .cfa: sp 0 +
STACK CFI INIT d38c 38c .cfa: sp 0 +
STACK CFI INIT d718 1c8 .cfa: sp 0 +
STACK CFI INIT d8e0 9c4 .cfa: sp 0 +
STACK CFI INIT e2a4 2d4 .cfa: sp 0 +
STACK CFI INIT e578 130 .cfa: sp 0 +
STACK CFI INIT e6a8 120 .cfa: sp 0 +
STACK CFI INIT e7c8 1c8 .cfa: sp 0 +
STACK CFI INIT e990 168 .cfa: sp 0 +
STACK CFI INIT eaf8 fc .cfa: sp 0 +
STACK CFI INIT ebf4 30 .cfa: sp 0 +
STACK CFI INIT ed50 30 .cfa: sp 0 +
STACK CFI INIT ed80 98 .cfa: sp 0 +
STACK CFI INIT ee18 2ac .cfa: sp 0 +
STACK CFI INIT f0c4 8c .cfa: sp 0 +
STACK CFI INIT f150 174 .cfa: sp 0 +
STACK CFI f154 .cfa: sp 96 +
STACK CFI f168 .cfa: x29 48 + x19: .cfa -8 + ^ x20: .cfa -16 + ^ x21: .cfa -24 + ^ x22: .cfa -32 + ^ .ra: .cfa -40 + ^ x29: .cfa -48 + ^ v8: .cfa -64 + ^
STACK CFI f2a8 .cfa: sp 96 +
STACK CFI f2bc .cfa: sp 0 +
STACK CFI f2c0 .cfa: x29 48 +
STACK CFI INIT 100f8 38 .cfa: sp 0 +
STACK CFI 100fc .cfa: sp 32 +
STACK CFI 10104 .cfa: x29 32 + x19: .cfa -8 + ^ x20: .cfa -16 + ^ .ra: .cfa -24 + ^ x29: .cfa -32 + ^
STACK CFI 10124 .cfa: sp 32 +
STACK CFI 1012c .cfa: sp 0 +
STACK CFI INIT 10130 3c .cfa: sp 0 +
STACK CFI 10134 .cfa: sp 32 +
STACK CFI 1013c .cfa: x29 32 + x19: .cfa -8 + ^ x20: .cfa -16 + ^ .ra: .cfa -24 + ^ x29: .cfa -32 + ^
STACK CFI 10160 .cfa: sp 32 +
STACK CFI 10168 .cfa: sp 0 +
STACK CFI INIT 1016c 48 .cfa: sp 0 +
STACK CFI 10170 .cfa: sp 32 +
STACK CFI 1017c .cfa: x29 24 + x19: .cfa -8 + ^ .ra: .cfa -16 + ^ x29: .cfa -24 + ^ v8: .cfa -32 + ^
STACK CFI 101a4 .cfa: sp 32 +
STACK CFI 101b0 .cfa: sp 0 +
STACK CFI INIT 102d8 9c .cfa: sp 0 +
STACK CFI 102dc .cfa: sp 48 +
STACK CFI 102e8 .cfa: x29 32 + x19: .cfa -8 + ^ x20: .cfa -16 + ^ .ra: .cfa -24 + ^ x29: .cfa -32 + ^ v8: .cfa -48 + ^
STACK CFI 1034c .cfa: sp 48 +
STACK CFI 10358 .cfa: sp 0 +
STACK CFI 1035c .cfa: x29 32 +
STACK CFI 10364 .cfa: sp 48 +
STACK CFI 10370 .cfa: sp 0 +
STACK CFI INIT 10374 48 .cfa: sp 0 +
STACK CFI 10378 .cfa: sp 32 +
STACK CFI 10384 .cfa: x29 24 + x19: .cfa -8 + ^ .ra: .cfa -16 + ^ x29: .cfa -24 + ^ v8: .cfa -32 + ^
STACK CFI 103ac .cfa: sp 32 +
STACK CFI 103b8 .cfa: sp 0 +
STACK CFI INIT 10a60 40 .cfa: sp 0 +
STACK CFI 10a64 .cfa: sp 32 +
STACK CFI 10a6c .cfa: x29 32 + x19: .cfa -16 + ^ .ra: .cfa -24 + ^ x29: .cfa -32 + ^
STACK CFI 10a94 .cfa: sp 32 +
STACK CFI 10a9c .cfa: sp 0 +
STACK CFI INIT 10aa0 58 .cfa: sp 0 +
STACK CFI 10aa4 .cfa: sp 32 +
STACK CFI 10aac .cfa: x29 32 + x19: .cfa -16 + ^ .ra: .cfa -24 + ^ x29: .cfa -32 + ^
STACK CFI 10ad0 .cfa: sp 32 +
STACK CFI 10ad8 .cfa: sp 0 +
STACK CFI 10adc .cfa: x29 32 +
STACK CFI 10aec .cfa: sp 32 +
STACK CFI 10af4 .cfa: sp 0 +
STACK CFI INIT 10b14 4c .cfa: sp 0 +
STACK CFI INIT 10b60 18 .cfa: sp 0 +
STACK CFI INIT 10b98 14 .cfa: sp 0 +
STACK CFI 10b9c .cfa: sp 16 +
STACK CFI 10ba0 .cfa: x29 16 + .ra: .cfa -8 + ^ x29: .cfa -16 + ^
STACK CFI INIT 10bac 10 .cfa: sp 0 +
STACK CFI 10bb0 .cfa: sp 16 +
STACK CFI 10bb4 .cfa: x29 16 + .ra: .cfa -8 + ^ x29: .cfa -16 + ^
STACK CFI INIT 10c0c 30 .cfa: sp 0 +
STACK CFI 10c10 .cfa: sp 32 +
STACK CFI 10c18 .cfa: x29 32 + x19: .cfa -16 + ^ .ra: .cfa -24 + ^ x29: .cfa -32 + ^
STACK CFI 10c30 .cfa: sp 32 +
STACK CFI 10c38 .cfa: sp 0 +
STACK CFI INIT 10c3c 34 .cfa: sp 0 +
STACK CFI 10c40 .cfa: sp 32 +
STACK CFI 10c48 .cfa: x29 32 + x19: .cfa -16 + ^ .ra: .cfa -24 + ^ x29: .cfa -32 + ^
STACK CFI INIT 10c70 14 .cfa: sp 0 +
STACK CFI 10c74 .cfa: sp 16 +
STACK CFI 10c78 .cfa: x29 16 + .ra: .cfa -8 + ^ x29: .cfa -16 + ^
STACK CFI INIT 10c84 c .cfa: sp 0 +
STACK CFI 10c88 .cfa: sp 16 +
STACK CFI 10c8c .cfa: x29 16 + .ra: .cfa -8 + ^ x29: .cfa -16 + ^
STACK CFI INIT 10ce0 30 .cfa: sp 0 +
STACK CFI 10ce4 .cfa: sp 32 +
STACK CFI 10cec .cfa: x29 32 + x19: .cfa -16 + ^ .ra: .cfa -24 + ^ x29: .cfa -32 + ^
STACK CFI 10d04 .cfa: sp 32 +
STACK CFI 10d0c .cfa: sp 0 +
STACK CFI INIT 10d10 c .cfa: sp 0 +
STACK CFI 10d14 .cfa: sp 16 +
STACK CFI 10d18 .cfa: x29 16 + .ra: .cfa -8 + ^ x29: .cfa -16 + ^
STACK CFI INIT 10d1c 4 .cfa: sp 0 +
STACK CFI INIT 10d20 4 .cfa: sp 0 +
STACK CFI INIT 10d24 38 .cfa: sp 0 +
STACK CFI 10d28 .cfa: sp 32 +
STACK CFI 10d30 .cfa: x29 32 + x19: .cfa -16 + ^ .ra: .cfa -24 + ^ x29: .cfa -32 + ^
STACK CFI 10d50 .cfa: sp 32 +
STACK CFI 10d58 .cfa: sp 0 +
STACK CFI INIT 10d5c 18 .cfa: sp 0 +
STACK CFI INIT 10d74 4 .cfa: sp 0 +
STACK CFI INIT 10d78 4 .cfa: sp 0 +
STACK CFI INIT 10d7c 10 .cfa: sp 0 +
STACK CFI INIT 10d8c 1c .cfa: sp 0 +
STACK CFI INIT 10da8 c .cfa: sp 0 +
STACK CFI INIT 10db4 24 .cfa: sp 0 +
STACK CFI 10db8 .cfa: sp 32 +
STACK CFI 10dc0 .cfa: x29 32 + x19: .cfa -16 + ^ .ra: .cfa -24 + ^ x29: .cfa -32 + ^
STACK CFI 10dcc .cfa: sp 32 +
STACK CFI 10dd4 .cfa: sp 0 +
STACK CFI INIT 10f54 8 .cfa: sp 0 +
STACK CFI INIT 10f5c 14 .cfa: sp 0 +
STACK CFI 10f60 .cfa: sp 16 +
STACK CFI 10f64 .cfa: x29 16 + .ra: .cfa -8 + ^ x29: .cfa -16 + ^
STACK CFI INIT 10f70 24 .cfa: sp 0 +
STACK CFI 10f74 .cfa: sp 32 +
STACK CFI 10f7c .cfa: x29 32 + x19: .cfa -16 + ^ .ra: .cfa -24 + ^ x29: .cfa -32 + ^
STACK CFI 10f88 .cfa: sp 32 +
STACK CFI 10f90 .cfa: sp 0 +
STACK CFI INIT 1111c 24 .cfa: sp 0 +
STACK CFI 11120 .cfa: sp 32 +
STACK CFI 11128 .cfa: x29 32 + x19: .cfa -16 + ^ .ra: .cfa -24 + ^ x29: .cfa -32 + ^
STACK CFI 11134 .cfa: sp 32 +
STACK CFI 1113c .cfa: sp 0 +
STACK CFI INIT 112c8 24 .cfa: sp 0 +
STACK CFI 112cc .cfa: sp 32 +
STACK CFI 112d4 .cfa: x29 32 + x19: .cfa -16 + ^ .ra: .cfa -24 + ^ x29: .cfa -32 + ^
STACK CFI 112e0 .cfa: sp 32 +
STACK CFI 112e8 .cfa: sp 0 +
STACK CFI INIT 11454 24 .cfa: sp 0 +
STACK CFI 11458 .cfa: sp 32 +
STACK CFI 11460 .cfa: x29 32 + x19: .cfa -16 + ^ .ra: .cfa -24 + ^ x29: .cfa -32 + ^
STACK CFI 1146c .cfa: sp 32 +
STACK CFI 11474 .cfa: sp 0 +
STACK CFI INIT 11568 8 .cfa: sp 0 +
STACK CFI INIT 11570 24 .cfa: sp 0 +
STACK CFI 11574 .cfa: sp 32 +
STACK CFI 1157c .cfa: x29 32 + x19: .cfa -16 + ^ .ra: .cfa -24 + ^ x29: .cfa -32 + ^
STACK CFI 11588 .cfa: sp 32 +
STACK CFI 11590 .cfa: sp 0 +
STACK CFI INIT 11594 18 .cfa: sp 0 +
STACK CFI INIT 115ac 4 .cfa: sp 0 +
STACK CFI INIT 115b0 4 .cfa: sp 0 +
STACK CFI INIT 115b4 4 .cfa: sp 0 +
STACK CFI INIT 115b8 84 .cfa: sp 0 +
STACK CFI 115c0 .cfa: sp 32 +
STACK CFI 115c8 .cfa: x29 32 + x19: .cfa -8 + ^ x20: .cfa -16 + ^ .ra: .cfa -24 + ^ x29: .cfa -32 + ^
STACK CFI 11608 .cfa: sp 32 +
STACK CFI 11610 .cfa: sp 0 +
STACK CFI 11618 .cfa: x29 32 +
STACK CFI INIT 1163c f8 .cfa: sp 0 +
STACK CFI 11640 .cfa: sp 64 +
STACK CFI 11650 .cfa: x29 64 + x19: .cfa -8 + ^ x20: .cfa -16 + ^ x21: .cfa -24 + ^ x22: .cfa -32 + ^ x23: .cfa -48 + ^ .ra: .cfa -56 + ^ x29: .cfa -64 + ^
STACK CFI 116ac .cfa: sp 64 +
STACK CFI 116bc .cfa: sp 0 +
STACK CFI 116c0 .cfa: x29 64 +
STACK CFI 116dc .cfa: sp 64 +
STACK CFI 116ec .cfa: sp 0 +
STACK CFI 116f0 .cfa: x29 64 +
STACK CFI 11720 .cfa: sp 64 +
STACK CFI 11730 .cfa: sp 0 +
STACK CFI INIT 11734 3c .cfa: sp 0 +
STACK CFI 11738 .cfa: sp 32 +
STACK CFI 11740 .cfa: x29 32 + x19: .cfa -16 + ^ .ra: .cfa -24 + ^ x29: .cfa -32 + ^
STACK CFI 1174c .cfa: sp 32 +
STACK CFI 11754 .cfa: sp 0 +
STACK CFI 11758 .cfa: x29 32 +
STACK CFI 11764 .cfa: sp 32 +
STACK CFI 1176c .cfa: sp 0 +
STACK CFI INIT 11770 4c .cfa: sp 0 +
STACK CFI 11774 .cfa: sp 32 +
STACK CFI 1177c .cfa: x29 32 + x19: .cfa -8 + ^ x20: .cfa -16 + ^ .ra: .cfa -24 + ^ x29: .cfa -32 + ^
STACK CFI 117a4 .cfa: sp 32 +
STACK CFI 117ac .cfa: sp 0 +
STACK CFI 117b0 .cfa: sp 32 +
STACK CFI 117b8 .cfa: sp 0 +
STACK CFI INIT 119dc 50 .cfa: sp 0 +
STACK CFI 119e0 .cfa: sp 32 +
STACK CFI 119e8 .cfa: x29 32 + x19: .cfa -16 + ^ .ra: .cfa -24 + ^ x29: .cfa -32 + ^
STACK CFI 11a00 .cfa: sp 32 +
STACK CFI 11a08 .cfa: sp 0 +
STACK CFI 11a0c .cfa: x29 32 +
STACK CFI 11a20 .cfa: sp 32 +
STACK CFI 11a28 .cfa: sp 0 +
STACK CFI INIT 11a2c 64 .cfa: sp 0 +
STACK CFI 11a30 .cfa: sp 32 +
STACK CFI 11a38 .cfa: x29 32 + x19: .cfa -16 + ^ .ra: .cfa -24 + ^ x29: .cfa -32 + ^
STACK CFI 11a64 .cfa: sp 32 +
STACK CFI 11a6c .cfa: sp 0 +
STACK CFI 11a70 .cfa: x29 32 +
STACK CFI 11a84 .cfa: sp 32 +
STACK CFI 11a8c .cfa: sp 0 +
STACK CFI INIT 11cb4 24 .cfa: sp 0 +
STACK CFI 11cb8 .cfa: sp 32 +
STACK CFI 11cc0 .cfa: x29 32 + x19: .cfa -16 + ^ .ra: .cfa -24 + ^ x29: .cfa -32 + ^
STACK CFI 11ccc .cfa: sp 32 +
STACK CFI 11cd4 .cfa: sp 0 +
STACK CFI INIT 11cd8 24 .cfa: sp 0 +
STACK CFI 11cdc .cfa: sp 32 +
STACK CFI 11ce4 .cfa: x29 32 + x19: .cfa -16 + ^ .ra: .cfa -24 + ^ x29: .cfa -32 + ^
STACK CFI 11cf0 .cfa: sp 32 +
STACK CFI 11cf8 .cfa: sp 0 +
STACK CFI INIT 12198 14 .cfa: sp 0 +
STACK CFI INIT 127f4 34 .cfa: sp 0 +
STACK CFI 127f8 .cfa: sp 16 +
STACK CFI 127fc .cfa: x29 16 + .ra: .cfa -8 + ^ x29: .cfa -16 + ^
STACK CFI INIT 1295c 80 .cfa: sp 0 +
STACK CFI 12960 .cfa: sp 48 +
STACK CFI 1296c .cfa: x29 48 + x19: .cfa -8 + ^ x20: .cfa -16 + ^ x21: .cfa -32 + ^ .ra: .cfa -40 + ^ x29: .cfa -48 + ^
STACK CFI 129cc .cfa: sp 48 +
STACK CFI 129d8 .cfa: sp 0 +
STACK CFI INIT 129dc 24 .cfa: sp 0 +
STACK CFI 129e0 .cfa: sp 32 +
STACK CFI 129e8 .cfa: x29 32 + x19: .cfa -16 + ^ .ra: .cfa -24 + ^ x29: .cfa -32 + ^
STACK CFI 129f4 .cfa: sp 32 +
STACK CFI 129fc .cfa: sp 0 +
STACK CFI INIT 12f68 84 .cfa: sp 0 +
STACK CFI 12f70 .cfa: sp 48 +
STACK CFI 12f7c .cfa: x29 48 + x19: .cfa -8 + ^ x20: .cfa -16 + ^ x21: .cfa -32 + ^ .ra: .cfa -40 + ^ x29: .cfa -48 + ^
STACK CFI 12fdc .cfa: sp 48 +
STACK CFI 12fe8 .cfa: sp 0 +
STACK CFI INIT 13154 4 .cfa: sp 0 +
STACK CFI INIT 13158 14 .cfa: sp 0 +
STACK CFI INIT 13678 c .cfa: sp 0 +
STACK CFI INIT 13684 24c .cfa: sp 0 +
STACK CFI INIT 138d0 a0 .cfa: sp 0 +
STACK CFI 138dc .cfa: sp 32 +
STACK CFI 13934 .cfa: sp 0 +
STACK CFI 13938 .cfa: sp 32 +
STACK CFI 13940 .cfa: sp 0 +
STACK CFI 13944 .cfa: sp 32 +
STACK CFI 13958 .cfa: sp 0 +
STACK CFI 1395c .cfa: sp 32 +
STACK CFI 1396c .cfa: sp 0 +
STACK CFI INIT 13970 38 .cfa: sp 0 +
STACK CFI 1397c .cfa: sp 32 +
STACK CFI 139a4 .cfa: sp 0 +
STACK CFI INIT 13c3c 7c .cfa: sp 0 +
STACK CFI 13c40 .cfa: sp 32 +
STACK CFI 13c48 .cfa: x29 32 + x19: .cfa -16 + ^ .ra: .cfa -24 + ^ x29: .cfa -32 + ^
STACK CFI 13c74 .cfa: sp 32 +
STACK CFI 13c7c .cfa: sp 0 +
STACK CFI 13c80 .cfa: x29 32 +
STACK CFI 13cac .cfa: sp 32 +
STACK CFI 13cb4 .cfa: sp 0 +
STACK CFI INIT 13d08 2c .cfa: sp 0 +
STACK CFI 13d0c .cfa: sp 32 +
STACK CFI 13d14 .cfa: x29 32 + x19: .cfa -16 + ^ .ra: .cfa -24 + ^ x29: .cfa -32 + ^
STACK CFI 13d28 .cfa: sp 32 +
STACK CFI 13d30 .cfa: sp 0 +
STACK CFI INIT 144f4 64 .cfa: sp 0 +
STACK CFI 144f8 .cfa: sp 32 +
STACK CFI 14500 .cfa: x29 32 + x19: .cfa -16 + ^ .ra: .cfa -24 + ^ x29: .cfa -32 + ^
STACK CFI 1451c .cfa: sp 32 +
STACK CFI 14524 .cfa: sp 0 +
STACK CFI 14528 .cfa: x29 32 +
STACK CFI 1454c .cfa: sp 32 +
STACK CFI 14554 .cfa: sp 0 +
STACK CFI INIT 146a4 570 .cfa: sp 0 +
STACK CFI 146a8 .cfa: sp 176 +
STACK CFI 146bc .cfa: x29 64 + x19: .cfa -8 + ^ x20: .cfa -16 + ^ x21: .cfa -24 + ^ x22: .cfa -32 + ^ x23: .cfa -40 + ^ x24: .cfa -48 + ^ .ra: .cfa -56 + ^ x29: .cfa -64 + ^
STACK CFI 148ec .cfa: sp 176 +
STACK CFI 14900 .cfa: sp 0 +
STACK CFI 14904 .cfa: x29 64 +
STACK CFI 14950 .cfa: sp 176 +
STACK CFI 14964 .cfa: sp 0 +
STACK CFI 14968 .cfa: x29 64 +
STACK CFI 149a0 .cfa: sp 176 +
STACK CFI 149b4 .cfa: sp 0 +
STACK CFI 149b8 .cfa: x29 64 +
STACK CFI 149d0 .cfa: sp 176 +
STACK CFI 149e4 .cfa: sp 0 +
STACK CFI 149e8 .cfa: x29 64 +
STACK CFI 14a08 .cfa: sp 176 +
STACK CFI 14a1c .cfa: sp 0 +
STACK CFI 14a20 .cfa: x29 64 +
STACK CFI 14a38 .cfa: sp 176 +
STACK CFI 14a4c .cfa: sp 0 +
STACK CFI 14a50 .cfa: x29 64 +
STACK CFI 14a64 .cfa: sp 176 +
STACK CFI 14a78 .cfa: sp 0 +
STACK CFI 14a7c .cfa: x29 64 +
STACK CFI 14a90 .cfa: sp 176 +
STACK CFI 14aa4 .cfa: sp 0 +
STACK CFI 14aa8 .cfa: x29 64 +
STACK CFI 14ab8 .cfa: sp 176 +
STACK CFI 14acc .cfa: sp 0 +
STACK CFI 14ad0 .cfa: x29 64 +
STACK CFI 14ae0 .cfa: sp 176 +
STACK CFI 14af4 .cfa: sp 0 +
STACK CFI 14af8 .cfa: x29 64 +
STACK CFI 14b10 .cfa: sp 176 +
STACK CFI 14b24 .cfa: sp 0 +
STACK CFI 14b28 .cfa: x29 64 +
STACK CFI 14b3c .cfa: sp 176 +
STACK CFI 14b50 .cfa: sp 0 +
STACK CFI 14b54 .cfa: x29 64 +
STACK CFI 14b6c .cfa: sp 176 +
STACK CFI 14b80 .cfa: sp 0 +
STACK CFI 14b84 .cfa: x29 64 +
STACK CFI 14bb0 .cfa: sp 176 +
STACK CFI 14bc4 .cfa: sp 0 +
STACK CFI 14bc8 .cfa: x29 64 +
STACK CFI 14bdc .cfa: sp 176 +
STACK CFI 14bf0 .cfa: sp 0 +
STACK CFI 14bf4 .cfa: x29 64 +
STACK CFI INIT 14c14 228 .cfa: sp 0 +
STACK CFI INIT 14e3c 2dc .cfa: sp 0 +
STACK CFI INIT 15118 53c .cfa: sp 0 +
STACK CFI INIT 15654 78 .cfa: sp 0 +
STACK CFI 15658 .cfa: sp 48 +
STACK CFI 15664 .cfa: x29 48 + x19: .cfa -8 + ^ x20: .cfa -16 + ^ x21: .cfa -24 + ^ x22: .cfa -32 + ^ .ra: .cfa -40 + ^ x29: .cfa -48 + ^
STACK CFI 156ac .cfa: sp 48 +
STACK CFI 156b8 .cfa: sp 0 +
STACK CFI 156bc .cfa: sp 48 +
STACK CFI 156c8 .cfa: sp 0 +
STACK CFI INIT 156cc 8c .cfa: sp 0 +
STACK CFI 156d0 .cfa: sp 32 +
STACK CFI 156d8 .cfa: x29 32 + x19: .cfa -16 + ^ .ra: .cfa -24 + ^ x29: .cfa -32 + ^
STACK CFI 1570c .cfa: sp 32 +
STACK CFI 15714 .cfa: sp 0 +
STACK CFI 15718 .cfa: x29 32 +
STACK CFI 1574c .cfa: sp 32 +
STACK CFI 15754 .cfa: sp 0 +
STACK CFI INIT 15758 24 .cfa: sp 0 +
STACK CFI 1575c .cfa: sp 32 +
STACK CFI 15764 .cfa: x29 32 + x19: .cfa -16 + ^ .ra: .cfa -24 + ^ x29: .cfa -32 + ^
STACK CFI 15770 .cfa: sp 32 +
STACK CFI 15778 .cfa: sp 0 +
STACK CFI INIT 1577c 94 .cfa: sp 0 +
STACK CFI 15780 .cfa: sp 48 +
STACK CFI 1578c .cfa: x29 48 + x19: .cfa -8 + ^ x20: .cfa -16 + ^ x21: .cfa -24 + ^ x22: .cfa -32 + ^ .ra: .cfa -40 + ^ x29: .cfa -48 + ^
STACK CFI 157a4 .cfa: sp 48 +
STACK CFI 157b0 .cfa: sp 0 +
STACK CFI 157b4 .cfa: x29 48 +
STACK CFI 157f8 .cfa: sp 48 +
STACK CFI 15804 .cfa: sp 0 +
STACK CFI 15808 .cfa: x29 48 +
STACK CFI INIT 15810 150 .cfa: sp 0 +
STACK CFI 15814 .cfa: sp 48 +
STACK CFI 15820 .cfa: x29 48 + x19: .cfa -8 + ^ x20: .cfa -16 + ^ x21: .cfa -24 + ^ x22: .cfa -32 + ^ .ra: .cfa -40 + ^ x29: .cfa -48 + ^
STACK CFI 15950 .cfa: sp 48 +
STACK CFI 1595c .cfa: sp 0 +
STACK CFI INIT 15960 68 .cfa: sp 0 +
STACK CFI 15964 .cfa: sp 64 +
STACK CFI 15970 .cfa: x29 32 + x19: .cfa -16 + ^ .ra: .cfa -24 + ^ x29: .cfa -32 + ^
STACK CFI 159b4 .cfa: sp 64 +
STACK CFI 159c0 .cfa: sp 0 +
STACK CFI 159c4 .cfa: x29 32 +
STACK CFI INIT 159c8 90 .cfa: sp 0 +
STACK CFI 159cc .cfa: sp 32 +
STACK CFI 159d4 .cfa: x29 32 + x19: .cfa -8 + ^ x20: .cfa -16 + ^ .ra: .cfa -24 + ^ x29: .cfa -32 + ^
STACK CFI 15a00 .cfa: sp 32 +
STACK CFI 15a08 .cfa: sp 0 +
STACK CFI 15a0c .cfa: x29 32 +
STACK CFI 15a4c .cfa: sp 32 +
STACK CFI 15a54 .cfa: sp 0 +
STACK CFI INIT 15a58 ec .cfa: sp 0 +
STACK CFI 15a5c .cfa: sp 112 +
STACK CFI 15a6c .cfa: x29 48 + x19: .cfa -8 + ^ x20: .cfa -16 + ^ x21: .cfa -32 + ^ .ra: .cfa -40 + ^ x29: .cfa -48 + ^
STACK CFI 15b2c .cfa: sp 112 +
STACK CFI 15b3c .cfa: sp 0 +
STACK CFI 15b40 .cfa: x29 48 +
STACK CFI INIT 15b44 ec .cfa: sp 0 +
STACK CFI 15b48 .cfa: sp 112 +
STACK CFI 15b58 .cfa: x29 48 + x19: .cfa -8 + ^ x20: .cfa -16 + ^ x21: .cfa -32 + ^ .ra: .cfa -40 + ^ x29: .cfa -48 + ^
STACK CFI 15c18 .cfa: sp 112 +
STACK CFI 15c28 .cfa: sp 0 +
STACK CFI 15c2c .cfa: x29 48 +
STACK CFI INIT 15c30 48 .cfa: sp 0 +
STACK CFI 15c34 .cfa: sp 32 +
STACK CFI 15c3c .cfa: x29 32 + x19: .cfa -8 + ^ x20: .cfa -16 + ^ .ra: .cfa -24 + ^ x29: .cfa -32 + ^
STACK CFI 15c60 .cfa: sp 32 +
STACK CFI 15c68 .cfa: sp 0 +
STACK CFI 15c6c .cfa: x29 32 +
STACK CFI INIT 15c78 98 .cfa: sp 0 +
STACK CFI 15c7c .cfa: sp 80 +
STACK CFI 15c88 .cfa: x29 32 + x19: .cfa -16 + ^ .ra: .cfa -24 + ^ x29: .cfa -32 + ^
STACK CFI 15cfc .cfa: sp 80 +
STACK CFI 15d08 .cfa: sp 0 +
STACK CFI 15d0c .cfa: x29 32 +
STACK CFI INIT 15d10 260 .cfa: sp 0 +
STACK CFI 15d14 .cfa: sp 112 +
STACK CFI 15d2c .cfa: x29 80 + x19: .cfa -8 + ^ x20: .cfa -16 + ^ x21: .cfa -24 + ^ x22: .cfa -32 + ^ x23: .cfa -40 + ^ x24: .cfa -48 + ^ x25: .cfa -64 + ^ .ra: .cfa -72 + ^ x29: .cfa -80 + ^
STACK CFI 15f10 .cfa: sp 112 +
STACK CFI 15f28 .cfa: sp 0 +
STACK CFI 15f2c .cfa: x29 80 +
STACK CFI INIT 15f70 150 .cfa: sp 0 +
STACK CFI 15f74 .cfa: sp 48 +
STACK CFI 15f80 .cfa: x29 48 + x19: .cfa -8 + ^ x20: .cfa -16 + ^ x21: .cfa -24 + ^ x22: .cfa -32 + ^ .ra: .cfa -40 + ^ x29: .cfa -48 + ^
STACK CFI 160b0 .cfa: sp 48 +
STACK CFI 160bc .cfa: sp 0 +
STACK CFI INIT 160c0 1e0 .cfa: sp 0 +
STACK CFI 160c4 .cfa: sp 96 +
STACK CFI 160d8 .cfa: x29 64 + x19: .cfa -8 + ^ x20: .cfa -16 + ^ x21: .cfa -24 + ^ x22: .cfa -32 + ^ x23: .cfa -40 + ^ x24: .cfa -48 + ^ .ra: .cfa -56 + ^ x29: .cfa -64 + ^
STACK CFI 16258 .cfa: sp 96 +
STACK CFI 1626c .cfa: sp 0 +
STACK CFI 16270 .cfa: x29 64 +
STACK CFI INIT 162a0 284 .cfa: sp 0 +
STACK CFI 162a4 .cfa: sp 112 +
STACK CFI 162bc .cfa: x29 80 + x19: .cfa -8 + ^ x20: .cfa -16 + ^ x21: .cfa -24 + ^ x22: .cfa -32 + ^ x23: .cfa -40 + ^ x24: .cfa -48 + ^ x25: .cfa -64 + ^ .ra: .cfa -72 + ^ x29: .cfa -80 + ^
STACK CFI 164c4 .cfa: sp 112 +
STACK CFI 164dc .cfa: sp 0 +
STACK CFI 164e0 .cfa: x29 80 +
STACK CFI INIT 16524 208 .cfa: sp 0 +
STACK CFI 16528 .cfa: sp 96 +
STACK CFI 1653c .cfa: x29 64 + x19: .cfa -8 + ^ x20: .cfa -16 + ^ x21: .cfa -24 + ^ x22: .cfa -32 + ^ x23: .cfa -40 + ^ x24: .cfa -48 + ^ .ra: .cfa -56 + ^ x29: .cfa -64 + ^
STACK CFI 166e4 .cfa: sp 96 +
STACK CFI 166f8 .cfa: sp 0 +
STACK CFI 166fc .cfa: x29 64 +
STACK CFI INIT 1672c 360 .cfa: sp 0 +
STACK CFI 16730 .cfa: sp 160 +
STACK CFI 1674c .cfa: x29 96 + x19: .cfa -8 + ^ x20: .cfa -16 + ^ x21: .cfa -24 + ^ x22: .cfa -32 + ^ x23: .cfa -40 + ^ x24: .cfa -48 + ^ x25: .cfa -56 + ^ x26: .cfa -64 + ^ x27: .cfa -72 + ^ x28: .cfa -80 + ^ .ra: .cfa -88 + ^ x29: .cfa -96 + ^
STACK CFI 16a18 .cfa: sp 160 +
STACK CFI 16a34 .cfa: sp 0 +
STACK CFI 16a38 .cfa: x29 96 +
STACK CFI INIT 16a8c 314 .cfa: sp 0 +
STACK CFI 16a90 .cfa: sp 144 +
STACK CFI 16aac .cfa: x29 96 + x19: .cfa -8 + ^ x20: .cfa -16 + ^ x21: .cfa -24 + ^ x22: .cfa -32 + ^ x23: .cfa -40 + ^ x24: .cfa -48 + ^ x25: .cfa -56 + ^ x26: .cfa -64 + ^ x27: .cfa -72 + ^ x28: .cfa -80 + ^ .ra: .cfa -88 + ^ x29: .cfa -96 + ^
STACK CFI 16d28 .cfa: sp 144 +
STACK CFI 16d44 .cfa: sp 0 +
STACK CFI 16d48 .cfa: x29 96 +
STACK CFI INIT 16da0 290 .cfa: sp 0 +
STACK CFI 16da4 .cfa: sp 128 +
STACK CFI 16dbc .cfa: x29 80 + x19: .cfa -8 + ^ x20: .cfa -16 + ^ x21: .cfa -24 + ^ x22: .cfa -32 + ^ x23: .cfa -40 + ^ x24: .cfa -48 + ^ x25: .cfa -56 + ^ x26: .cfa -64 + ^ .ra: .cfa -72 + ^ x29: .cfa -80 + ^
STACK CFI 17010 .cfa: sp 128 +
STACK CFI 17028 .cfa: sp 0 +
STACK CFI 1702c .cfa: x29 80 +
STACK CFI INIT 17030 dc8 .cfa: sp 0 +
STACK CFI 17034 .cfa: sp 144 +
STACK CFI 17050 .cfa: x29 96 + x19: .cfa -8 + ^ x20: .cfa -16 + ^ x21: .cfa -24 + ^ x22: .cfa -32 + ^ x23: .cfa -40 + ^ x24: .cfa -48 + ^ x25: .cfa -56 + ^ x26: .cfa -64 + ^ x27: .cfa -72 + ^ x28: .cfa -80 + ^ .ra: .cfa -88 + ^ x29: .cfa -96 + ^
STACK CFI 17cd0 .cfa: sp 144 +
STACK CFI 17cec .cfa: sp 0 +
STACK CFI 17cf0 .cfa: x29 96 +
STACK CFI INIT 17df8 1d0 .cfa: sp 0 +
STACK CFI 17dfc .cfa: sp 80 +
STACK CFI 17e10 .cfa: x29 80 + x19: .cfa -8 + ^ x20: .cfa -16 + ^ x21: .cfa -24 + ^ x22: .cfa -32 + ^ x23: .cfa -40 + ^ x24: .cfa -48 + ^ x25: .cfa -64 + ^ .ra: .cfa -72 + ^ x29: .cfa -80 + ^
STACK CFI 17fb0 .cfa: sp 80 +
STACK CFI 17fc4 .cfa: sp 0 +
STACK CFI INIT 17fc8 23c .cfa: sp 0 +
STACK CFI 17fcc .cfa: sp 112 +
STACK CFI 17fe0 .cfa: x29 64 + x19: .cfa -8 + ^ x20: .cfa -16 + ^ x21: .cfa -24 + ^ x22: .cfa -32 + ^ x23: .cfa -40 + ^ x24: .cfa -48 + ^ .ra: .cfa -56 + ^ x29: .cfa -64 + ^
STACK CFI 181bc .cfa: sp 112 +
STACK CFI 181d0 .cfa: sp 0 +
STACK CFI 181d4 .cfa: x29 64 +
STACK CFI INIT 18204 30c .cfa: sp 0 +
STACK CFI 18208 .cfa: sp 80 +
STACK CFI 1821c .cfa: x29 64 + x19: .cfa -8 + ^ x20: .cfa -16 + ^ x21: .cfa -24 + ^ x22: .cfa -32 + ^ x23: .cfa -40 + ^ x24: .cfa -48 + ^ .ra: .cfa -56 + ^ x29: .cfa -64 + ^
STACK CFI 18398 .cfa: sp 80 +
STACK CFI 183ac .cfa: sp 0 +
STACK CFI 183b0 .cfa: x29 64 +
STACK CFI INIT 18510 178 .cfa: sp 0 +
STACK CFI 18514 .cfa: sp 80 +
STACK CFI 18528 .cfa: x29 64 + x19: .cfa -8 + ^ x20: .cfa -16 + ^ x21: .cfa -24 + ^ x22: .cfa -32 + ^ x23: .cfa -40 + ^ x24: .cfa -48 + ^ .ra: .cfa -56 + ^ x29: .cfa -64 + ^
STACK CFI 1866c .cfa: sp 80 +
STACK CFI 18680 .cfa: sp 0 +
STACK CFI 18684 .cfa: x29 64 +
STACK CFI INIT 18688 178 .cfa: sp 0 +
STACK CFI 1868c .cfa: sp 80 +
STACK CFI 186a0 .cfa: x29 64 + x19: .cfa -8 + ^ x20: .cfa -16 + ^ x21: .cfa -24 + ^ x22: .cfa -32 + ^ x23: .cfa -40 + ^ x24: .cfa -48 + ^ .ra: .cfa -56 + ^ x29: .cfa -64 + ^
STACK CFI 187e4 .cfa: sp 80 +
STACK CFI 187f8 .cfa: sp 0 +
STACK CFI 187fc .cfa: x29 64 +
STACK CFI INIT 18800 240 .cfa: sp 0 +
STACK CFI 18804 .cfa: sp 96 +
STACK CFI 1881c .cfa: x29 96 + x19: .cfa -8 + ^ x20: .cfa -16 + ^ x21: .cfa -24 + ^ x22: .cfa -32 + ^ x23: .cfa -40 + ^ x24: .cfa -48 + ^ x25: .cfa -56 + ^ x26: .cfa -64 + ^ x27: .cfa -72 + ^ x28: .cfa -80 + ^ .ra: .cfa -88 + ^ x29: .cfa -96 + ^
STACK CFI 18a24 .cfa: sp 96 +
STACK CFI 18a3c .cfa: sp 0 +
STACK CFI INIT 196b4 154 .cfa: sp 0 +
STACK CFI 196b8 .cfa: sp 96 +
STACK CFI 196cc .cfa: x29 64 + x19: .cfa -8 + ^ x20: .cfa -16 + ^ x21: .cfa -24 + ^ x22: .cfa -32 + ^ x23: .cfa -48 + ^ .ra: .cfa -56 + ^ x29: .cfa -64 + ^
STACK CFI 197ac .cfa: sp 96 +
STACK CFI 197c0 .cfa: sp 0 +
STACK CFI 197c4 .cfa: x29 64 +
STACK CFI INIT 19a70 44 .cfa: sp 0 +
STACK CFI 19a74 .cfa: sp 32 +
STACK CFI 19a7c .cfa: x29 32 + x19: .cfa -16 + ^ .ra: .cfa -24 + ^ x29: .cfa -32 + ^
STACK CFI 19a98 .cfa: sp 32 +
STACK CFI 19aa0 .cfa: sp 0 +
STACK CFI 19aa4 .cfa: x29 32 +
STACK CFI 19aa8 .cfa: sp 32 +
STACK CFI 19ab0 .cfa: sp 0 +
STACK CFI INIT 19ab4 1d0 .cfa: sp 0 +
STACK CFI 19ab8 .cfa: sp 64 +
STACK CFI 19ac8 .cfa: x29 64 + x19: .cfa -8 + ^ x20: .cfa -16 + ^ x21: .cfa -24 + ^ x22: .cfa -32 + ^ x23: .cfa -40 + ^ x24: .cfa -48 + ^ .ra: .cfa -56 + ^ x29: .cfa -64 + ^
STACK CFI 19b88 .cfa: sp 64 +
STACK CFI 19b98 .cfa: sp 0 +
STACK CFI 19b9c .cfa: x29 64 +
STACK CFI INIT 19c84 17c .cfa: sp 0 +
STACK CFI INIT 19e00 ac .cfa: sp 0 +
STACK CFI 19e04 .cfa: sp 64 +
STACK CFI 19e14 .cfa: x29 64 + x19: .cfa -8 + ^ x20: .cfa -16 + ^ x21: .cfa -24 + ^ x22: .cfa -32 + ^ x23: .cfa -48 + ^ .ra: .cfa -56 + ^ x29: .cfa -64 + ^
STACK CFI 19e90 .cfa: sp 64 +
STACK CFI 19ea0 .cfa: sp 0 +
STACK CFI 19ea4 .cfa: x29 64 +
STACK CFI INIT 19eac 13c .cfa: sp 0 +
STACK CFI 19eb0 .cfa: sp 64 +
STACK CFI 19ec0 .cfa: x29 64 + x19: .cfa -8 + ^ x20: .cfa -16 + ^ x21: .cfa -24 + ^ x22: .cfa -32 + ^ x23: .cfa -40 + ^ x24: .cfa -48 + ^ .ra: .cfa -56 + ^ x29: .cfa -64 + ^
STACK CFI 19fa0 .cfa: sp 64 +
STACK CFI 19fb0 .cfa: sp 0 +
STACK CFI 19fb4 .cfa: x29 64 +
STACK CFI INIT 1a3a0 a0 .cfa: sp 0 +
STACK CFI 1a3a4 .cfa: sp 48 +
STACK CFI 1a3b0 .cfa: x29 48 + x19: .cfa -8 + ^ x20: .cfa -16 + ^ x21: .cfa -24 + ^ x22: .cfa -32 + ^ .ra: .cfa -40 + ^ x29: .cfa -48 + ^
STACK CFI 1a41c .cfa: sp 48 +
STACK CFI 1a428 .cfa: sp 0 +
STACK CFI 1a42c .cfa: sp 48 +
STACK CFI 1a438 .cfa: sp 0 +
STACK CFI 1a43c .cfa: x29 48 +
STACK CFI INIT 1b0f0 158 .cfa: sp 0 +
STACK CFI 1b0f4 .cfa: sp 96 +
STACK CFI 1b108 .cfa: x29 64 + x19: .cfa -8 + ^ x20: .cfa -16 + ^ x21: .cfa -24 + ^ x22: .cfa -32 + ^ x23: .cfa -48 + ^ .ra: .cfa -56 + ^ x29: .cfa -64 + ^
STACK CFI 1b1ec .cfa: sp 96 +
STACK CFI 1b200 .cfa: sp 0 +
STACK CFI 1b204 .cfa: x29 64 +
STACK CFI INIT 1b248 190 .cfa: sp 0 +
STACK CFI INIT 1bebc 1dc .cfa: sp 0 +
STACK CFI 1bec0 .cfa: sp 80 +
STACK CFI 1bed4 .cfa: x29 80 + x19: .cfa -8 + ^ x20: .cfa -16 + ^ x21: .cfa -24 + ^ x22: .cfa -32 + ^ x23: .cfa -40 + ^ x24: .cfa -48 + ^ x25: .cfa -64 + ^ .ra: .cfa -72 + ^ x29: .cfa -80 + ^
STACK CFI 1c080 .cfa: sp 80 +
STACK CFI 1c094 .cfa: sp 0 +
STACK CFI INIT 1d4bc 124 .cfa: sp 0 +
STACK CFI 1d4ec .cfa: sp 32 +
STACK CFI 1d4f4 .cfa: x29 32 + x19: .cfa -8 + ^ x20: .cfa -16 + ^ .ra: .cfa -24 + ^ x29: .cfa -32 + ^
STACK CFI 1d5d4 .cfa: sp 32 +
STACK CFI 1d5dc .cfa: sp 0 +
STACK CFI INIT 1dd3c 324 .cfa: sp 0 +
STACK CFI 1dd40 .cfa: sp 64 +
STACK CFI 1dd50 .cfa: x29 64 + x19: .cfa -8 + ^ x20: .cfa -16 + ^ x21: .cfa -24 + ^ x22: .cfa -32 + ^ x23: .cfa -40 + ^ x24: .cfa -48 + ^ .ra: .cfa -56 + ^ x29: .cfa -64 + ^
STACK CFI 1ddcc .cfa: sp 64 +
STACK CFI 1dddc .cfa: sp 0 +
STACK CFI 1dde0 .cfa: x29 64 +
STACK CFI 1dfb8 .cfa: sp 64 +
STACK CFI 1dfc8 .cfa: sp 0 +
STACK CFI 1dfcc .cfa: x29 64 +
STACK CFI 1dfdc .cfa: sp 64 +
STACK CFI 1dfec .cfa: sp 0 +
STACK CFI 1dff0 .cfa: x29 64 +
STACK CFI INIT 1e060 a0 .cfa: sp 0 +
STACK CFI 1e064 .cfa: sp 48 +
STACK CFI 1e070 .cfa: x29 48 + x19: .cfa -8 + ^ x20: .cfa -16 + ^ x21: .cfa -24 + ^ x22: .cfa -32 + ^ .ra: .cfa -40 + ^ x29: .cfa -48 + ^
STACK CFI 1e0dc .cfa: sp 48 +
STACK CFI 1e0e8 .cfa: sp 0 +
STACK CFI 1e0ec .cfa: sp 48 +
STACK CFI 1e0f8 .cfa: sp 0 +
STACK CFI 1e0fc .cfa: x29 48 +
STACK CFI INIT 1efac 160 .cfa: sp 0 +
STACK CFI 1efb0 .cfa: sp 64 +
STACK CFI 1efc0 .cfa: x29 64 + x19: .cfa -8 + ^ x20: .cfa -16 + ^ x21: .cfa -24 + ^ x22: .cfa -32 + ^ x23: .cfa -48 + ^ .ra: .cfa -56 + ^ x29: .cfa -64 + ^
STACK CFI 1f0b8 .cfa: sp 64 +
STACK CFI 1f0c8 .cfa: sp 0 +
STACK CFI 1f0cc .cfa: x29 64 +
STACK CFI INIT 1f10c 214 .cfa: sp 0 +
STACK CFI 1f110 .cfa: sp 128 +
STACK CFI 1f12c .cfa: x29 96 + x19: .cfa -8 + ^ x20: .cfa -16 + ^ x21: .cfa -24 + ^ x22: .cfa -32 + ^ x23: .cfa -40 + ^ x24: .cfa -48 + ^ x25: .cfa -56 + ^ x26: .cfa -64 + ^ x27: .cfa -80 + ^ .ra: .cfa -88 + ^ x29: .cfa -96 + ^
STACK CFI 1f2a8 .cfa: sp 128 +
STACK CFI 1f2c4 .cfa: sp 0 +
STACK CFI 1f2c8 .cfa: x29 96 +
STACK CFI INIT 20f84 290 .cfa: sp 0 +
STACK CFI 20f88 .cfa: sp 16 +
STACK CFI 20f8c .cfa: x29 16 + .ra: .cfa -8 + ^ x29: .cfa -16 + ^
STACK CFI 21018 .cfa: sp 16 +
STACK CFI 2101c .cfa: sp 0 +
STACK CFI 21020 .cfa: x29 16 +
STACK CFI 21070 .cfa: sp 16 +
STACK CFI 21074 .cfa: sp 0 +
STACK CFI 21078 .cfa: x29 16 +
STACK CFI 211dc .cfa: sp 16 +
STACK CFI 211e0 .cfa: sp 0 +
STACK CFI 211e4 .cfa: x29 16 +
STACK CFI INIT 21214 134 .cfa: sp 0 +
STACK CFI 21218 .cfa: sp 96 +
STACK CFI 21230 .cfa: x29 96 + x19: .cfa -8 + ^ x20: .cfa -16 + ^ x21: .cfa -24 + ^ x22: .cfa -32 + ^ x23: .cfa -40 + ^ x24: .cfa -48 + ^ x25: .cfa -56 + ^ x26: .cfa -64 + ^ x27: .cfa -72 + ^ x28: .cfa -80 + ^ .ra: .cfa -88 + ^ x29: .cfa -96 + ^
STACK CFI 21300 .cfa: sp 96 +
STACK CFI 21304 .cfa: x29 96 +
STACK CFI 21308 .cfa: sp 96 +
STACK CFI 21320 .cfa: sp 0 +
STACK CFI 21324 .cfa: x29 96 +
STACK CFI 21344 .cfa: sp 96 +
STACK CFI INIT 21348 e4c .cfa: sp 0 +
STACK CFI 2134c .cfa: sp 192 +
STACK CFI 21368 .cfa: x29 96 + x19: .cfa -8 + ^ x20: .cfa -16 + ^ x21: .cfa -24 + ^ x22: .cfa -32 + ^ x23: .cfa -40 + ^ x24: .cfa -48 + ^ x25: .cfa -56 + ^ x26: .cfa -64 + ^ x27: .cfa -72 + ^ x28: .cfa -80 + ^ .ra: .cfa -88 + ^ x29: .cfa -96 + ^
STACK CFI 2207c .cfa: sp 192 +
STACK CFI 22098 .cfa: sp 0 +
STACK CFI 2209c .cfa: x29 96 +
STACK CFI INIT 22194 1068 .cfa: sp 0 +
STACK CFI 22198 .cfa: sp 288 +
STACK CFI 221b4 .cfa: x29 96 + x19: .cfa -8 + ^ x20: .cfa -16 + ^ x21: .cfa -24 + ^ x22: .cfa -32 + ^ x23: .cfa -40 + ^ x24: .cfa -48 + ^ x25: .cfa -56 + ^ x26: .cfa -64 + ^ x27: .cfa -72 + ^ x28: .cfa -80 + ^ .ra: .cfa -88 + ^ x29: .cfa -96 + ^
STACK CFI 22f44 .cfa: sp 288 +
STACK CFI 22f60 .cfa: sp 0 +
STACK CFI 22f64 .cfa: x29 96 +
STACK CFI INIT 231fc 520 .cfa: sp 0 +
STACK CFI 23200 .cfa: sp 144 +
STACK CFI 2321c .cfa: x29 96 + x19: .cfa -8 + ^ x20: .cfa -16 + ^ x21: .cfa -24 + ^ x22: .cfa -32 + ^ x23: .cfa -40 + ^ x24: .cfa -48 + ^ x25: .cfa -56 + ^ x26: .cfa -64 + ^ x27: .cfa -72 + ^ x28: .cfa -80 + ^ .ra: .cfa -88 + ^ x29: .cfa -96 + ^
STACK CFI 236f8 .cfa: sp 144 +
STACK CFI 23714 .cfa: sp 0 +
STACK CFI 23718 .cfa: x29 96 +
STACK CFI INIT 24168 12dc .cfa: sp 0 +
STACK CFI 2416c .cfa: sp 208 +
STACK CFI 24188 .cfa: x29 96 + x19: .cfa -8 + ^ x20: .cfa -16 + ^ x21: .cfa -24 + ^ x22: .cfa -32 + ^ x23: .cfa -40 + ^ x24: .cfa -48 + ^ x25: .cfa -56 + ^ x26: .cfa -64 + ^ x27: .cfa -72 + ^ x28: .cfa -80 + ^ .ra: .cfa -88 + ^ x29: .cfa -96 + ^
STACK CFI 25420 .cfa: sp 208 +
STACK CFI 2543c .cfa: sp 0 +
STACK CFI 25440 .cfa: x29 96 +
STACK CFI INIT 25444 1b8 .cfa: sp 0 +
STACK CFI INIT f2c4 5e4 .cfa: sp 0 +
STACK CFI f2c8 .cfa: sp 224 +
STACK CFI f2e4 .cfa: x29 96 + x19: .cfa -8 + ^ x20: .cfa -16 + ^ x21: .cfa -24 + ^ x22: .cfa -32 + ^ x23: .cfa -40 + ^ x24: .cfa -48 + ^ x25: .cfa -56 + ^ x26: .cfa -64 + ^ x27: .cfa -72 + ^ x28: .cfa -80 + ^ .ra: .cfa -88 + ^ x29: .cfa -96 + ^
STACK CFI f738 .cfa: sp 224 +
STACK CFI f754 .cfa: sp 0 +
STACK CFI f758 .cfa: x29 96 +
STACK CFI INIT f8a8 850 .cfa: sp 0 +
STACK CFI f8ac .cfa: sp 192 +
STACK CFI f8cc .cfa: x29 96 + x19: .cfa -8 + ^ x20: .cfa -16 + ^ x21: .cfa -24 + ^ x22: .cfa -32 + ^ x23: .cfa -40 + ^ x24: .cfa -48 + ^ x25: .cfa -56 + ^ x26: .cfa -64 + ^ x27: .cfa -72 + ^ x28: .cfa -80 + ^ .ra: .cfa -88 + ^ x29: .cfa -96 + ^ v8: .cfa -104 + ^ v9: .cfa -112 + ^
STACK CFI fff4 .cfa: sp 192 +
STACK CFI 10014 .cfa: sp 0 +
STACK CFI 10018 .cfa: x29 96 +
STACK CFI INIT 101b4 108 .cfa: sp 0 +
STACK CFI 101b8 .cfa: sp 48 +
STACK CFI 101c4 .cfa: x29 48 + x19: .cfa -8 + ^ x20: .cfa -16 + ^ x21: .cfa -24 + ^ x22: .cfa -32 + ^ .ra: .cfa -40 + ^ x29: .cfa -48 + ^
STACK CFI 101f0 .cfa: sp 48 +
STACK CFI 101fc .cfa: sp 0 +
STACK CFI 10200 .cfa: x29 48 +
STACK CFI 10270 .cfa: sp 48 +
STACK CFI 1027c .cfa: sp 0 +
STACK CFI 10280 .cfa: sp 48 +
STACK CFI 1028c .cfa: sp 0 +
STACK CFI 10290 .cfa: x29 48 +
STACK CFI INIT 102bc 1c .cfa: sp 0 +
STACK CFI 102c0 .cfa: sp 16 +
STACK CFI 102c4 .cfa: x29 16 + .ra: .cfa -8 + ^ x29: .cfa -16 + ^
STACK CFI 102cc .cfa: sp 16 +
STACK CFI 102d0 .cfa: sp 0 +
STACK CFI 102d4 .cfa: x29 16 +
STACK CFI INIT 103bc 154 .cfa: sp 0 +
STACK CFI 103c0 .cfa: sp 96 +
STACK CFI 103d8 .cfa: x29 96 + x19: .cfa -8 + ^ x20: .cfa -16 + ^ x21: .cfa -24 + ^ x22: .cfa -32 + ^ x23: .cfa -40 + ^ x24: .cfa -48 + ^ x25: .cfa -56 + ^ x26: .cfa -64 + ^ x27: .cfa -80 + ^ .ra: .cfa -88 + ^ x29: .cfa -96 + ^
STACK CFI 104a4 .cfa: sp 96 +
STACK CFI 104bc .cfa: sp 0 +
STACK CFI 104c0 .cfa: x29 96 +
STACK CFI INIT 10510 550 .cfa: sp 0 +
STACK CFI 10514 .cfa: sp 144 +
STACK CFI 10530 .cfa: x29 72 + x19: .cfa -8 + ^ x20: .cfa -16 + ^ x21: .cfa -24 + ^ x22: .cfa -32 + ^ x23: .cfa -40 + ^ x24: .cfa -48 + ^ x25: .cfa -56 + ^ .ra: .cfa -64 + ^ x29: .cfa -72 + ^ v8: .cfa -80 + ^
STACK CFI 10a08 .cfa: sp 144 +
STACK CFI 10a24 .cfa: sp 0 +
STACK CFI 10a28 .cfa: x29 72 +
STACK CFI INIT 10af8 1c .cfa: sp 0 +
STACK CFI 10afc .cfa: sp 16 +
STACK CFI 10b00 .cfa: x29 16 + .ra: .cfa -8 + ^ x29: .cfa -16 + ^
STACK CFI 10b08 .cfa: sp 16 +
STACK CFI 10b0c .cfa: sp 0 +
STACK CFI 10b10 .cfa: x29 16 +
STACK CFI INIT 10b78 20 .cfa: sp 0 +
STACK CFI 10b7c .cfa: sp 16 +
STACK CFI 10b80 .cfa: x29 16 + .ra: .cfa -8 + ^ x29: .cfa -16 + ^
STACK CFI 10b8c .cfa: sp 16 +
STACK CFI 10b90 .cfa: sp 0 +
STACK CFI 10b94 .cfa: x29 16 +
STACK CFI INIT 10bbc 50 .cfa: sp 0 +
STACK CFI 10bc0 .cfa: sp 32 +
STACK CFI 10bc8 .cfa: x29 32 + x19: .cfa -8 + ^ x20: .cfa -16 + ^ .ra: .cfa -24 + ^ x29: .cfa -32 + ^
STACK CFI INIT 10c90 50 .cfa: sp 0 +
STACK CFI 10c94 .cfa: sp 32 +
STACK CFI 10c9c .cfa: x29 32 + x19: .cfa -8 + ^ x20: .cfa -16 + ^ .ra: .cfa -24 + ^ x29: .cfa -32 + ^
STACK CFI INIT 10dd8 17c .cfa: sp 0 +
STACK CFI 10ddc .cfa: sp 96 +
STACK CFI 10df0 .cfa: x29 64 + x19: .cfa -8 + ^ x20: .cfa -16 + ^ x21: .cfa -24 + ^ x22: .cfa -32 + ^ x23: .cfa -40 + ^ x24: .cfa -48 + ^ .ra: .cfa -56 + ^ x29: .cfa -64 + ^
STACK CFI 10ef4 .cfa: sp 96 +
STACK CFI 10f08 .cfa: sp 0 +
STACK CFI 10f0c .cfa: x29 64 +
STACK CFI INIT 10f94 188 .cfa: sp 0 +
STACK CFI 10f98 .cfa: sp 112 +
STACK CFI 10fb0 .cfa: x29 64 + x19: .cfa -8 + ^ x20: .cfa -16 + ^ x21: .cfa -24 + ^ x22: .cfa -32 + ^ x23: .cfa -40 + ^ x24: .cfa -48 + ^ .ra: .cfa -56 + ^ x29: .cfa -64 + ^ v8: .cfa -80 + ^
STACK CFI 110b8 .cfa: sp 112 +
STACK CFI 110d0 .cfa: sp 0 +
STACK CFI 110d4 .cfa: x29 64 +
STACK CFI INIT 11140 188 .cfa: sp 0 +
STACK CFI 11144 .cfa: sp 112 +
STACK CFI 1115c .cfa: x29 64 + x19: .cfa -8 + ^ x20: .cfa -16 + ^ x21: .cfa -24 + ^ x22: .cfa -32 + ^ x23: .cfa -40 + ^ x24: .cfa -48 + ^ .ra: .cfa -56 + ^ x29: .cfa -64 + ^ v8: .cfa -80 + ^
STACK CFI 11264 .cfa: sp 112 +
STACK CFI 1127c .cfa: sp 0 +
STACK CFI 11280 .cfa: x29 64 +
STACK CFI INIT 112ec 168 .cfa: sp 0 +
STACK CFI 112f0 .cfa: sp 96 +
STACK CFI 11304 .cfa: x29 64 + x19: .cfa -8 + ^ x20: .cfa -16 + ^ x21: .cfa -24 + ^ x22: .cfa -32 + ^ x23: .cfa -40 + ^ x24: .cfa -48 + ^ .ra: .cfa -56 + ^ x29: .cfa -64 + ^
STACK CFI 113f4 .cfa: sp 96 +
STACK CFI 11408 .cfa: sp 0 +
STACK CFI 1140c .cfa: x29 64 +
STACK CFI INIT 11478 f0 .cfa: sp 0 +
STACK CFI 1147c .cfa: sp 80 +
STACK CFI 1148c .cfa: x29 48 + x19: .cfa -8 + ^ x20: .cfa -16 + ^ x21: .cfa -32 + ^ .ra: .cfa -40 + ^ x29: .cfa -48 + ^
STACK CFI 11524 .cfa: sp 80 +
STACK CFI 11534 .cfa: sp 0 +
STACK CFI 11538 .cfa: x29 48 +
STACK CFI INIT 117bc 134 .cfa: sp 0 +
STACK CFI 117c0 .cfa: sp 80 +
STACK CFI 117cc .cfa: x29 32 + x19: .cfa -8 + ^ x20: .cfa -16 + ^ .ra: .cfa -24 + ^ x29: .cfa -32 + ^
STACK CFI 117fc .cfa: sp 80 +
STACK CFI 11808 .cfa: sp 0 +
STACK CFI 1180c .cfa: x29 32 +
STACK CFI INIT 118f0 78 .cfa: sp 0 +
STACK CFI 118f4 .cfa: sp 32 +
STACK CFI 118fc .cfa: x29 32 + x19: .cfa -8 + ^ x20: .cfa -16 + ^ .ra: .cfa -24 + ^ x29: .cfa -32 + ^
STACK CFI 11908 .cfa: sp 32 +
STACK CFI 11910 .cfa: sp 0 +
STACK CFI 11914 .cfa: x29 32 +
STACK CFI INIT 11968 74 .cfa: sp 0 +
STACK CFI 1196c .cfa: sp 48 +
STACK CFI 11978 .cfa: x29 32 + x19: .cfa -8 + ^ x20: .cfa -16 + ^ .ra: .cfa -24 + ^ x29: .cfa -32 + ^
STACK CFI 119c4 .cfa: sp 48 +
STACK CFI 119d0 .cfa: sp 0 +
STACK CFI 119d4 .cfa: x29 32 +
STACK CFI INIT 11a90 224 .cfa: sp 0 +
STACK CFI 11a94 .cfa: sp 128 +
STACK CFI 11aa4 .cfa: x29 48 + x19: .cfa -8 + ^ x20: .cfa -16 + ^ x21: .cfa -32 + ^ .ra: .cfa -40 + ^ x29: .cfa -48 + ^
STACK CFI 11b54 .cfa: sp 128 +
STACK CFI 11b64 .cfa: sp 0 +
STACK CFI 11b68 .cfa: x29 48 +
STACK CFI INIT 11cfc 22c .cfa: sp 0 +
STACK CFI 11d00 .cfa: sp 128 +
STACK CFI 11d10 .cfa: x29 48 + x19: .cfa -8 + ^ x20: .cfa -16 + ^ x21: .cfa -32 + ^ .ra: .cfa -40 + ^ x29: .cfa -48 + ^
STACK CFI 11dc8 .cfa: sp 128 +
STACK CFI 11dd8 .cfa: sp 0 +
STACK CFI 11ddc .cfa: x29 48 +
STACK CFI INIT 11f28 270 .cfa: sp 0 +
STACK CFI 11f2c .cfa: sp 144 +
STACK CFI 11f40 .cfa: x29 64 + x19: .cfa -8 + ^ x20: .cfa -16 + ^ x21: .cfa -24 + ^ x22: .cfa -32 + ^ x23: .cfa -48 + ^ .ra: .cfa -56 + ^ x29: .cfa -64 + ^
STACK CFI 1203c .cfa: sp 144 +
STACK CFI 12050 .cfa: sp 0 +
STACK CFI 12054 .cfa: x29 64 +
STACK CFI INIT 121ac 4f4 .cfa: sp 0 +
STACK CFI 121b0 .cfa: sp 144 +
STACK CFI 121c4 .cfa: x29 64 + x19: .cfa -8 + ^ x20: .cfa -16 + ^ x21: .cfa -24 + ^ x22: .cfa -32 + ^ x23: .cfa -48 + ^ .ra: .cfa -56 + ^ x29: .cfa -64 + ^
STACK CFI 124f8 .cfa: sp 144 +
STACK CFI 1250c .cfa: sp 0 +
STACK CFI 12510 .cfa: x29 64 +
STACK CFI INIT 126a0 154 .cfa: sp 0 +
STACK CFI 126a4 .cfa: sp 384 +
STACK CFI 126b8 .cfa: x29 64 + x19: .cfa -8 + ^ x20: .cfa -16 + ^ x21: .cfa -24 + ^ x22: .cfa -32 + ^ x23: .cfa -40 + ^ x28: .cfa -48 + ^ .ra: .cfa -56 + ^ x29: .cfa -64 + ^
STACK CFI 1279c .cfa: sp 384 +
STACK CFI 127b0 .cfa: sp 0 +
STACK CFI 127b4 .cfa: x29 64 +
STACK CFI INIT 12828 134 .cfa: sp 0 +
STACK CFI 1282c .cfa: sp 80 +
STACK CFI 12840 .cfa: x29 80 + x19: .cfa -8 + ^ x20: .cfa -16 + ^ x21: .cfa -24 + ^ x22: .cfa -32 + ^ x23: .cfa -40 + ^ x24: .cfa -48 + ^ x25: .cfa -56 + ^ x26: .cfa -64 + ^ .ra: .cfa -72 + ^ x29: .cfa -80 + ^
STACK CFI 12910 .cfa: sp 80 +
STACK CFI 12924 .cfa: sp 0 +
STACK CFI 12928 .cfa: x29 80 +
STACK CFI INIT 12a00 2e4 .cfa: sp 0 +
STACK CFI 12a04 .cfa: sp 144 +
STACK CFI 12a20 .cfa: x29 96 + x19: .cfa -8 + ^ x20: .cfa -16 + ^ x21: .cfa -24 + ^ x22: .cfa -32 + ^ x23: .cfa -40 + ^ x24: .cfa -48 + ^ x25: .cfa -56 + ^ x26: .cfa -64 + ^ x27: .cfa -72 + ^ x28: .cfa -80 + ^ .ra: .cfa -88 + ^ x29: .cfa -96 + ^
STACK CFI 12c30 .cfa: sp 144 +
STACK CFI 12c4c .cfa: sp 0 +
STACK CFI 12c50 .cfa: x29 96 +
STACK CFI INIT 12ce4 284 .cfa: sp 0 +
STACK CFI 12ce8 .cfa: sp 48 +
STACK CFI 12cf4 .cfa: x29 48 + x19: .cfa -8 + ^ x20: .cfa -16 + ^ x21: .cfa -24 + ^ x22: .cfa -32 + ^ .ra: .cfa -40 + ^ x29: .cfa -48 + ^
STACK CFI 12f3c .cfa: sp 48 +
STACK CFI 12f48 .cfa: sp 0 +
STACK CFI 12f4c .cfa: x29 48 +
STACK CFI INIT 12fec 168 .cfa: sp 0 +
STACK CFI 12ff0 .cfa: sp 384 +
STACK CFI 13004 .cfa: x29 64 + x19: .cfa -8 + ^ x20: .cfa -16 + ^ x21: .cfa -24 + ^ x22: .cfa -32 + ^ x23: .cfa -40 + ^ x28: .cfa -48 + ^ .ra: .cfa -56 + ^ x29: .cfa -64 + ^
STACK CFI 130fc .cfa: sp 384 +
STACK CFI 13110 .cfa: sp 0 +
STACK CFI 13114 .cfa: x29 64 +
STACK CFI INIT 1316c 50c .cfa: sp 0 +
STACK CFI 13170 .cfa: sp 64 +
STACK CFI 13180 .cfa: x29 64 + x19: .cfa -8 + ^ x20: .cfa -16 + ^ x21: .cfa -24 + ^ x22: .cfa -32 + ^ x23: .cfa -40 + ^ x24: .cfa -48 + ^ .ra: .cfa -56 + ^ x29: .cfa -64 + ^
STACK CFI 132a0 .cfa: sp 64 +
STACK CFI 132b0 .cfa: sp 0 +
STACK CFI 132b4 .cfa: x29 64 +
STACK CFI 1364c .cfa: sp 64 +
STACK CFI 1365c .cfa: sp 0 +
STACK CFI 13660 .cfa: x29 64 +
STACK CFI INIT 139a8 294 .cfa: sp 0 +
STACK CFI 139ac .cfa: sp 240 +
STACK CFI 139c4 .cfa: x29 80 + x19: .cfa -8 + ^ x20: .cfa -16 + ^ x21: .cfa -24 + ^ x22: .cfa -32 + ^ x23: .cfa -40 + ^ x24: .cfa -48 + ^ x25: .cfa -64 + ^ .ra: .cfa -72 + ^ x29: .cfa -80 + ^
STACK CFI 13b64 .cfa: sp 240 +
STACK CFI 13b7c .cfa: sp 0 +
STACK CFI 13b80 .cfa: x29 80 +
STACK CFI INIT 13cb8 50 .cfa: sp 0 +
STACK CFI 13cbc .cfa: sp 32 +
STACK CFI 13cc4 .cfa: x29 32 + x19: .cfa -8 + ^ x20: .cfa -16 + ^ .ra: .cfa -24 + ^ x29: .cfa -32 + ^
STACK CFI INIT 13d34 7c0 .cfa: sp 0 +
STACK CFI 13d38 .cfa: sp 320 +
STACK CFI 13d54 .cfa: x29 96 + x19: .cfa -8 + ^ x20: .cfa -16 + ^ x21: .cfa -24 + ^ x22: .cfa -32 + ^ x23: .cfa -40 + ^ x24: .cfa -48 + ^ x25: .cfa -56 + ^ x26: .cfa -64 + ^ x27: .cfa -72 + ^ x28: .cfa -80 + ^ .ra: .cfa -88 + ^ x29: .cfa -96 + ^
STACK CFI 143a4 .cfa: sp 320 +
STACK CFI 143c0 .cfa: sp 0 +
STACK CFI 143c4 .cfa: x29 96 +
STACK CFI INIT 14558 14c .cfa: sp 0 +
STACK CFI 1455c .cfa: sp 80 +
STACK CFI 14570 .cfa: x29 80 + x19: .cfa -8 + ^ x20: .cfa -16 + ^ x21: .cfa -24 + ^ x22: .cfa -32 + ^ x23: .cfa -40 + ^ x24: .cfa -48 + ^ x28: .cfa -64 + ^ .ra: .cfa -72 + ^ x29: .cfa -80 + ^
STACK CFI 14604 .cfa: sp 80 +
STACK CFI 14618 .cfa: sp 0 +
STACK CFI 1461c .cfa: x29 80 +
STACK CFI INIT 18a40 c74 .cfa: sp 0 +
STACK CFI 18a44 .cfa: sp 96 +
STACK CFI 18a5c .cfa: x29 96 + x19: .cfa -8 + ^ x20: .cfa -16 + ^ x21: .cfa -24 + ^ x22: .cfa -32 + ^ x23: .cfa -40 + ^ x24: .cfa -48 + ^ x25: .cfa -56 + ^ x26: .cfa -64 + ^ x27: .cfa -72 + ^ x28: .cfa -80 + ^ .ra: .cfa -88 + ^ x29: .cfa -96 + ^
STACK CFI 194d0 .cfa: sp 96 +
STACK CFI 194e8 .cfa: sp 0 +
STACK CFI 194ec .cfa: x29 96 +
STACK CFI INIT 19808 268 .cfa: sp 0 +
STACK CFI 1980c .cfa: sp 128 +
STACK CFI 1981c .cfa: x29 48 + x19: .cfa -8 + ^ x20: .cfa -16 + ^ x21: .cfa -24 + ^ x22: .cfa -32 + ^ .ra: .cfa -40 + ^ x29: .cfa -48 + ^
STACK CFI 199bc .cfa: sp 128 +
STACK CFI 199cc .cfa: sp 0 +
STACK CFI 199d0 .cfa: x29 48 +
STACK CFI INIT 19fe8 3b8 .cfa: sp 0 +
STACK CFI 19fec .cfa: sp 96 +
STACK CFI 1a004 .cfa: x29 96 + x19: .cfa -8 + ^ x20: .cfa -16 + ^ x21: .cfa -24 + ^ x22: .cfa -32 + ^ x23: .cfa -40 + ^ x24: .cfa -48 + ^ x25: .cfa -56 + ^ x26: .cfa -64 + ^ x27: .cfa -72 + ^ x28: .cfa -80 + ^ .ra: .cfa -88 + ^ x29: .cfa -96 + ^
STACK CFI 1a340 .cfa: sp 96 +
STACK CFI 1a358 .cfa: sp 0 +
STACK CFI 1a35c .cfa: x29 96 +
STACK CFI INIT 1a440 cb0 .cfa: sp 0 +
STACK CFI 1a444 .cfa: sp 96 +
STACK CFI 1a45c .cfa: x29 96 + x19: .cfa -8 + ^ x20: .cfa -16 + ^ x21: .cfa -24 + ^ x22: .cfa -32 + ^ x23: .cfa -40 + ^ x24: .cfa -48 + ^ x25: .cfa -56 + ^ x26: .cfa -64 + ^ x27: .cfa -72 + ^ x28: .cfa -80 + ^ .ra: .cfa -88 + ^ x29: .cfa -96 + ^
STACK CFI 1af00 .cfa: sp 96 +
STACK CFI 1af18 .cfa: sp 0 +
STACK CFI 1af1c .cfa: x29 96 +
STACK CFI INIT 1b3d8 ae4 .cfa: sp 0 +
STACK CFI 1b3dc .cfa: sp 96 +
STACK CFI 1b3f4 .cfa: x29 96 + x19: .cfa -8 + ^ x20: .cfa -16 + ^ x21: .cfa -24 + ^ x22: .cfa -32 + ^ x23: .cfa -40 + ^ x24: .cfa -48 + ^ x25: .cfa -56 + ^ x26: .cfa -64 + ^ x27: .cfa -72 + ^ x28: .cfa -80 + ^ .ra: .cfa -88 + ^ x29: .cfa -96 + ^
STACK CFI 1be30 .cfa: sp 96 +
STACK CFI 1be48 .cfa: sp 0 +
STACK CFI 1be4c .cfa: x29 96 +
STACK CFI INIT 1c098 1424 .cfa: sp 0 +
STACK CFI 1c09c .cfa: sp 96 +
STACK CFI 1c0b4 .cfa: x29 96 + x19: .cfa -8 + ^ x20: .cfa -16 + ^ x21: .cfa -24 + ^ x22: .cfa -32 + ^ x23: .cfa -40 + ^ x24: .cfa -48 + ^ x25: .cfa -56 + ^ x26: .cfa -64 + ^ x27: .cfa -72 + ^ x28: .cfa -80 + ^ .ra: .cfa -88 + ^ x29: .cfa -96 + ^
STACK CFI 1d34c .cfa: sp 96 +
STACK CFI 1d364 .cfa: sp 0 +
STACK CFI 1d368 .cfa: x29 96 +
STACK CFI INIT 1d5e0 75c .cfa: sp 0 +
STACK CFI 1d5e4 .cfa: sp 368 +
STACK CFI 1d600 .cfa: x29 96 + x19: .cfa -8 + ^ x20: .cfa -16 + ^ x21: .cfa -24 + ^ x22: .cfa -32 + ^ x23: .cfa -40 + ^ x24: .cfa -48 + ^ x25: .cfa -56 + ^ x26: .cfa -64 + ^ x27: .cfa -72 + ^ x28: .cfa -80 + ^ .ra: .cfa -88 + ^ x29: .cfa -96 + ^
STACK CFI 1d6b4 .cfa: sp 368 +
STACK CFI 1d6d0 .cfa: sp 0 +
STACK CFI 1d6d4 .cfa: x29 96 +
STACK CFI 1d728 .cfa: sp 368 +
STACK CFI 1d744 .cfa: sp 0 +
STACK CFI 1d748 .cfa: x29 96 +
STACK CFI INIT 1e100 eac .cfa: sp 0 +
STACK CFI 1e104 .cfa: sp 96 +
STACK CFI 1e11c .cfa: x29 96 + x19: .cfa -8 + ^ x20: .cfa -16 + ^ x21: .cfa -24 + ^ x22: .cfa -32 + ^ x23: .cfa -40 + ^ x24: .cfa -48 + ^ x25: .cfa -56 + ^ x26: .cfa -64 + ^ x27: .cfa -72 + ^ x28: .cfa -80 + ^ .ra: .cfa -88 + ^ x29: .cfa -96 + ^
STACK CFI 1edc0 .cfa: sp 96 +
STACK CFI 1edd8 .cfa: sp 0 +
STACK CFI 1eddc .cfa: x29 96 +
STACK CFI INIT 1f320 1c64 .cfa: sp 0 +
STACK CFI 1f324 .cfa: sp 112 +
STACK CFI 1f340 .cfa: x29 96 + x19: .cfa -8 + ^ x20: .cfa -16 + ^ x21: .cfa -24 + ^ x22: .cfa -32 + ^ x23: .cfa -40 + ^ x24: .cfa -48 + ^ x25: .cfa -56 + ^ x26: .cfa -64 + ^ x27: .cfa -72 + ^ x28: .cfa -80 + ^ .ra: .cfa -88 + ^ x29: .cfa -96 + ^ v8: .cfa -112 + ^
STACK CFI 1f714 .cfa: sp 112 +
STACK CFI 1f730 .cfa: sp 0 +
STACK CFI 1f734 .cfa: x29 96 +
STACK CFI INIT 2371c a4c .cfa: sp 0 +
STACK CFI 23720 .cfa: sp 144 +
STACK CFI 23738 .cfa: x29 80 + x19: .cfa -8 + ^ x20: .cfa -16 + ^ x21: .cfa -24 + ^ x22: .cfa -32 + ^ x23: .cfa -40 + ^ x24: .cfa -48 + ^ x25: .cfa -64 + ^ .ra: .cfa -72 + ^ x29: .cfa -80 + ^
STACK CFI 240c0 .cfa: sp 144 +
STACK CFI 240d8 .cfa: sp 0 +
STACK CFI 240dc .cfa: x29 80 +
STACK CFI INIT 255fc 57c .cfa: sp 0 +
STACK CFI 25600 .cfa: sp 96 +
STACK CFI 25618 .cfa: x29 96 + x19: .cfa -8 + ^ x20: .cfa -16 + ^ x21: .cfa -24 + ^ x22: .cfa -32 + ^ x23: .cfa -40 + ^ x24: .cfa -48 + ^ x25: .cfa -56 + ^ x26: .cfa -64 + ^ x27: .cfa -72 + ^ x28: .cfa -80 + ^ .ra: .cfa -88 + ^ x29: .cfa -96 + ^
STACK CFI 25adc .cfa: sp 96 +
STACK CFI 25af4 .cfa: sp 0 +
STACK CFI 25af8 .cfa: x29 96 +
STACK CFI INIT 25b78 67c .cfa: sp 0 +
STACK CFI 25b7c .cfa: sp 96 +
STACK CFI 25b94 .cfa: x29 96 + x19: .cfa -8 + ^ x20: .cfa -16 + ^ x21: .cfa -24 + ^ x22: .cfa -32 + ^ x23: .cfa -40 + ^ x24: .cfa -48 + ^ x25: .cfa -56 + ^ x26: .cfa -64 + ^ x27: .cfa -72 + ^ x28: .cfa -80 + ^ .ra: .cfa -88 + ^ x29: .cfa -96 + ^
STACK CFI 26158 .cfa: sp 96 +
STACK CFI 26170 .cfa: sp 0 +
STACK CFI 26174 .cfa: x29 96 +
