MODULE Linux arm64 3C6033472BA5E4974B0C5410BA9CC0A60 hbg1010.iconsteal.android64.so
INFO CODE_ID 4733603CA52B97E44B0C5410BA9CC0A674D3F26A
INFO GENERATOR mozilla/dump_syms 2.3.4
PUBLIC 16cb0 0 __on_dlclose
PUBLIC 16cc0 0 __emutls_unregister_key
PUBLIC 16cc8 0 __on_dlclose_late
PUBLIC 16cd0 0 __atexit_handler_wrapper
PUBLIC 16ce4 0 atexit
PUBLIC 16d00 0 pthread_atfork
PUBLIC 16d10 0 unwind_phase2
PUBLIC 16e44 0 _Unwind_Resume
PUBLIC 16ec8 0 unwind_phase2_forced
PUBLIC m 16fbc 0 __unw_init_local
PUBLIC m 17064 0 __unw_get_reg
PUBLIC 170e0 0 __unw_step_stage2
PUBLIC m 170f4 0 __unw_get_proc_info
PUBLIC m 17134 0 __unw_resume
PUBLIC 1715c 0 libunwind::CFI_Parser<libunwind::LocalAddressSpace>::decodeFDE(libunwind::LocalAddressSpace&, unsigned long, libunwind::CFI_Parser<libunwind::LocalAddressSpace>::FDE_Info*, libunwind::CFI_Parser<libunwind::LocalAddressSpace>::CIE_Info*, bool)
PUBLIC 172ec 0 libunwind::CFI_Parser<libunwind::LocalAddressSpace>::parseCIE(libunwind::LocalAddressSpace&, unsigned long, libunwind::CFI_Parser<libunwind::LocalAddressSpace>::CIE_Info*)
PUBLIC 175b4 0 libunwind::AbstractUnwindCursor::~AbstractUnwindCursor()
PUBLIC 175bc 0 libunwind::UnwindCursor<libunwind::LocalAddressSpace, libunwind::Registers_arm64>::~UnwindCursor()
PUBLIC 175c4 0 libunwind::UnwindCursor<libunwind::LocalAddressSpace, libunwind::Registers_arm64>::validReg(int)
PUBLIC 17608 0 libunwind::UnwindCursor<libunwind::LocalAddressSpace, libunwind::Registers_arm64>::getReg(int)
PUBLIC 176f0 0 libunwind::UnwindCursor<libunwind::LocalAddressSpace, libunwind::Registers_arm64>::setReg(int, unsigned long)
PUBLIC 177d8 0 libunwind::UnwindCursor<libunwind::LocalAddressSpace, libunwind::Registers_arm64>::validFloatReg(int)
PUBLIC 177ec 0 libunwind::UnwindCursor<libunwind::LocalAddressSpace, libunwind::Registers_arm64>::getFloatReg(int)
PUBLIC 177fc 0 libunwind::UnwindCursor<libunwind::LocalAddressSpace, libunwind::Registers_arm64>::setFloatReg(int, double)
PUBLIC 1780c 0 libunwind::UnwindCursor<libunwind::LocalAddressSpace, libunwind::Registers_arm64>::step(bool)
PUBLIC 178fc 0 libunwind::UnwindCursor<libunwind::LocalAddressSpace, libunwind::Registers_arm64>::getInfo(unw_proc_info_t*)
PUBLIC 17940 0 libunwind::UnwindCursor<libunwind::LocalAddressSpace, libunwind::Registers_arm64>::jumpto()
PUBLIC 1794c 0 libunwind::UnwindCursor<libunwind::LocalAddressSpace, libunwind::Registers_arm64>::isSignalFrame()
PUBLIC 17958 0 libunwind::UnwindCursor<libunwind::LocalAddressSpace, libunwind::Registers_arm64>::getFunctionName(char*, unsigned long, unsigned long*)
PUBLIC 17984 0 libunwind::UnwindCursor<libunwind::LocalAddressSpace, libunwind::Registers_arm64>::setInfoBasedOnIPRegister(bool)
PUBLIC 17bc0 0 libunwind::UnwindCursor<libunwind::LocalAddressSpace, libunwind::Registers_arm64>::getRegisterName(int)
PUBLIC 17bcc 0 libunwind::UnwindCursor<libunwind::LocalAddressSpace, libunwind::Registers_arm64>::stepThroughSigReturn(libunwind::Registers_arm64&)
PUBLIC 17cec 0 libunwind::DwarfInstructions<libunwind::LocalAddressSpace, libunwind::Registers_arm64>::stepWithDwarf(libunwind::LocalAddressSpace&, unsigned long, unsigned long, libunwind::Registers_arm64&, bool&, bool)
PUBLIC 18180 0 libunwind::CFI_Parser<libunwind::LocalAddressSpace>::parseFDEInstructions(libunwind::LocalAddressSpace&, libunwind::CFI_Parser<libunwind::LocalAddressSpace>::FDE_Info const&, libunwind::CFI_Parser<libunwind::LocalAddressSpace>::CIE_Info const&, unsigned long, int, libunwind::CFI_Parser<libunwind::LocalAddressSpace>::PrologInfo*)
PUBLIC 18cf8 0 libunwind::DwarfInstructions<libunwind::LocalAddressSpace, libunwind::Registers_arm64>::getCFA(libunwind::LocalAddressSpace&, libunwind::CFI_Parser<libunwind::LocalAddressSpace>::PrologInfo const&, libunwind::Registers_arm64 const&)
PUBLIC 18e2c 0 libunwind::DwarfInstructions<libunwind::LocalAddressSpace, libunwind::Registers_arm64>::getSavedRegister(libunwind::LocalAddressSpace&, libunwind::Registers_arm64 const&, unsigned long, libunwind::CFI_Parser<libunwind::LocalAddressSpace>::RegisterLocation const&)
PUBLIC 1903c 0 libunwind::LocalAddressSpace::getEncodedP(unsigned long&, unsigned long, unsigned char, unsigned long)
PUBLIC 193c8 0 libunwind::LocalAddressSpace::getULEB128(unsigned long&, unsigned long)
PUBLIC 19590 0 libunwind::DwarfInstructions<libunwind::LocalAddressSpace, libunwind::Registers_arm64>::evaluateExpression(unsigned long, libunwind::LocalAddressSpace&, libunwind::Registers_arm64 const&, unsigned long)
PUBLIC 19f54 0 libunwind::UnwindCursor<libunwind::LocalAddressSpace, libunwind::Registers_arm64>::getInfoFromDwarfSection(unsigned long, libunwind::UnwindInfoSections const&, unsigned int)
PUBLIC 1a228 0 libunwind::findUnwindSectionsByPhdr(dl_phdr_info*, unsigned long, void*)
PUBLIC 1a358 0 libunwind::EHHeaderParser<libunwind::LocalAddressSpace>::decodeEHHdr(libunwind::LocalAddressSpace&, unsigned long, unsigned long, libunwind::EHHeaderParser<libunwind::LocalAddressSpace>::EHHeaderInfo&)
PUBLIC 1a478 0 libunwind::CFI_Parser<libunwind::LocalAddressSpace>::findFDE(libunwind::LocalAddressSpace&, unsigned long, unsigned long, unsigned long, unsigned long, libunwind::CFI_Parser<libunwind::LocalAddressSpace>::FDE_Info*, libunwind::CFI_Parser<libunwind::LocalAddressSpace>::CIE_Info*)
PUBLIC 1a640 0 libunwind::EHHeaderParser<libunwind::LocalAddressSpace>::findFDE(libunwind::LocalAddressSpace&, unsigned long, unsigned long, unsigned int, libunwind::CFI_Parser<libunwind::LocalAddressSpace>::FDE_Info*, libunwind::CFI_Parser<libunwind::LocalAddressSpace>::CIE_Info*)
PUBLIC 1a7a8 0 libunwind::EHHeaderParser<libunwind::LocalAddressSpace>::getTableEntrySize(unsigned char)
PUBLIC 1a8a4 0 libunwind::Registers_arm64::getRegisterName(int)
PUBLIC 1a8d4 0 __libunwind_Registers_arm64_jumpto
PUBLIC m 1a964 0 __unw_getcontext
PUBLIC 1aa00 0 __aarch64_ldadd8_relax
PUBLIC 1aa30 0 init_have_lse_atomics
PUBLIC 1aac8 0 __init_cpu_features_constructor
PUBLIC 1ad74 0 __init_cpu_features
PUBLIC 1ae00 0 __aarch64_ldadd8_acq_rel
PUBLIC 1ae30 0 CopyPlusPopup::create(GJUserScore* const&)
PUBLIC 1afd0 0 CopyPlusPopup::createFormatted(char const*)
PUBLIC 1b378 0 CopyPlusPopup::onSelect(cocos2d::CCObject*)
PUBLIC 1b730 0 CopyPlusPopup::createTextButton(char const*)
PUBLIC 1b8ac 0 CopyPlusPopup::~CopyPlusPopup()
PUBLIC 1b938 0 {virtual override thunk({offset(-320)}, CopyPlusPopup::~CopyPlusPopup())}
PUBLIC 1b9d0 0 CopyPlusPopup::~CopyPlusPopup()
PUBLIC 1ba64 0 {virtual override thunk({offset(-320)}, CopyPlusPopup::~CopyPlusPopup())}
PUBLIC 1bb04 0 CopyPlusPopup::setup(GJUserScore* const&)
PUBLIC 1c7cc 0 geode::Mod::getSettingValue<bool>(std::__ndk1::basic_string_view<char, std::__ndk1::char_traits<char> >) const
PUBLIC 1c8f8 0 CopyPlusPopup::lockObject(int)
PUBLIC 1cb44 0 CopyPlusPopup::setIcons(cocos2d::CCObject*)
PUBLIC 1cef4 0 CopyPlusPopup::createInfoPopup(cocos2d::CCObject*)
PUBLIC 1cff4 0 CopyPlusPopup::resetButtons(cocos2d::CCObject*)
PUBLIC 1d0fc 0 geode::Popup<GJUserScore* const&>::onClose(cocos2d::CCObject*)
PUBLIC 1d230 0 cocos2d::CCCopying::copyWithZone(cocos2d::CCZone*)
PUBLIC 1d238 0 geode::Popup<GJUserScore* const&>::registerWithTouchDispatcher()
PUBLIC 1d264 0 geode::Popup<GJUserScore* const&>::keyDown(cocos2d::enumKeyCodes)
PUBLIC 1d28c 0 cocos2d::CCLayerRGBA::setOpacityModifyRGB(bool)
PUBLIC 1d290 0 cocos2d::CCLayerRGBA::isOpacityModifyRGB()
PUBLIC 1d298 0 {virtual override thunk({offset(-344)}, geode::Popup<GJUserScore* const&>::keyDown(cocos2d::enumKeyCodes))}
PUBLIC 1d2c4 0 cocos2d::CCKeyboardDelegate::keyUp(cocos2d::enumKeyCodes)
PUBLIC 1d2c8 0 cocos2d::CCMouseDelegate::rightKeyDown()
PUBLIC 1d2cc 0 cocos2d::CCMouseDelegate::rightKeyUp()
PUBLIC 1d2d0 0 cocos2d::CCMouseDelegate::scrollWheel(float, float)
PUBLIC 1d2d4 0 {virtual override thunk({offset(-408)}, cocos2d::CCLayerRGBA::setOpacityModifyRGB(bool))}
PUBLIC 1d2d8 0 {virtual override thunk({offset(-408)}, cocos2d::CCLayerRGBA::isOpacityModifyRGB())}
PUBLIC 1d2e0 0 geode::Popup<GJUserScore* const&>::~Popup()
PUBLIC 1d34c 0 geode::Popup<GJUserScore* const&>::~Popup()
PUBLIC 1d350 0 {virtual override thunk({offset(-320)}, geode::Popup<GJUserScore* const&>::~Popup())}
PUBLIC 1d3bc 0 {virtual override thunk({offset(-320)}, geode::Popup<GJUserScore* const&>::~Popup())}
PUBLIC 1d3c0 0 std::__ndk1::basic_string<char, std::__ndk1::char_traits<char>, std::__ndk1::allocator<char> >::__throw_length_error[abi:ne190000]() const
PUBLIC 1d3d4 0 std::__ndk1::__throw_length_error[abi:ne190000](char const*)
PUBLIC 1d424 0 std::length_error::length_error[abi:ne190000](char const*)
PUBLIC 1d454 0 __clang_call_terminate
PUBLIC 1d464 0 std::__ndk1::basic_string<char, std::__ndk1::char_traits<char>, std::__ndk1::allocator<char> >::__throw_out_of_range[abi:ne190000]() const
PUBLIC 1d470 0 std::__ndk1::__throw_out_of_range[abi:ne190000](char const*)
PUBLIC 1d4c0 0 std::out_of_range::out_of_range[abi:ne190000](char const*)
PUBLIC 1d4f0 0 geode::Popup<GJUserScore* const&>::initBase(float, float, GJUserScore* const&, char const*, cocos2d::CCRect, bool)
PUBLIC 1d800 0 geode::cast::traverseTypeinfoFor(void*, geode::cast::ClassTypeinfoType const*, char const*)
PUBLIC 1d904 0 geode::Popup<GJUserScore* const&>::CloseEvent::~CloseEvent()
PUBLIC 1d964 0 geode::Popup<GJUserScore* const&>::CloseEvent::~CloseEvent()
PUBLIC 1d9d4 0 std::__ndk1::__shared_ptr_emplace<geode::Popup<GJUserScore* const&>::CloseEvent::Impl, std::__ndk1::allocator<geode::Popup<GJUserScore* const&>::CloseEvent::Impl> >::~__shared_ptr_emplace()
PUBLIC 1d9e4 0 std::__ndk1::__shared_ptr_emplace<geode::Popup<GJUserScore* const&>::CloseEvent::Impl, std::__ndk1::allocator<geode::Popup<GJUserScore* const&>::CloseEvent::Impl> >::~__shared_ptr_emplace()
PUBLIC 1da14 0 std::__ndk1::__shared_ptr_emplace<geode::Popup<GJUserScore* const&>::CloseEvent::Impl, std::__ndk1::allocator<geode::Popup<GJUserScore* const&>::CloseEvent::Impl> >::__on_zero_shared()
PUBLIC 1da18 0 std::__ndk1::__shared_ptr_emplace<geode::Popup<GJUserScore* const&>::CloseEvent::Impl, std::__ndk1::allocator<geode::Popup<GJUserScore* const&>::CloseEvent::Impl> >::__on_zero_shared_weak()
PUBLIC 1da1c 0 __cxx_global_var_init
PUBLIC 1e574 0 geode::modifier::ModifyBase<geode::modifier::ModifyDerive<copyIcons, ProfilePage> >::~ModifyBase()
PUBLIC 1e58c 0 geode::modifier::ModifyDerive<copyIcons, ProfilePage>::apply()
PUBLIC 1e9fc 0 std::__ndk1::shared_ptr<geode::Hook>::~shared_ptr[abi:ne190000]()
PUBLIC 1ea4c 0 geode::impl::ResultData<geode::Hook*, std::__ndk1::basic_string<char, std::__ndk1::char_traits<char>, std::__ndk1::allocator<char> > >::~ResultData()
PUBLIC 1eac0 0 std::__ndk1::vector<std::__ndk1::basic_string<char, std::__ndk1::char_traits<char>, std::__ndk1::allocator<char> >, std::__ndk1::allocator<std::__ndk1::basic_string<char, std::__ndk1::char_traits<char>, std::__ndk1::allocator<char> > > >::~vector[abi:ne190000]()
PUBLIC 1eb3c 0 geode::modifier::ModifyBase<geode::modifier::ModifyDerive<copyIcons, ProfilePage> >::apply()
PUBLIC 1eb40 0 _ZN5geode15UnwrapExceptionC2IRPNS_4HookEQsr4implE18IsStringStreamableIT_EEENS_4impl5OkTagEOS5_
PUBLIC 1ec94 0 std::__ndk1::__throw_bad_variant_access[abi:ne190000]()
PUBLIC 1ecc8 0 std::__ndk1::basic_stringstream<char, std::__ndk1::char_traits<char>, std::__ndk1::allocator<char> >::basic_stringstream[abi:ne190000]()
PUBLIC m 1edfc 0 std::__ndk1::basic_stringstream<char, std::__ndk1::char_traits<char>, std::__ndk1::allocator<char> >::~basic_stringstream()
PUBLIC 1ee7c 0 geode::UnwrapException::~UnwrapException()
PUBLIC 1eea0 0 std::__ndk1::__put_character_sequence[abi:ne190000]<char, std::__ndk1::char_traits<char> >(std::__ndk1::basic_ostream<char, std::__ndk1::char_traits<char> >, std::__ndk1::basic_ostream const*, unsigned long)
PUBLIC 1f044 0 std::__ndk1::__pad_and_output[abi:ne190000]<char, std::__ndk1::char_traits<char> >(std::__ndk1::char_traits<char>, std::__ndk1::ostreambuf_iterator const*, std::__ndk1::ostreambuf_iterator const, std::__ndk1::ostreambuf_iterator const, std::__ndk1::ios_base&, std::__ndk1::ostreambuf_iterator)
PUBLIC 1f230 0 std::__throw_bad_array_new_length([abi:ne190000], void)
PUBLIC 1f264 0 std::__ndk1::basic_stringbuf<char, std::__ndk1::char_traits<char>, std::__ndk1::allocator<char> >::str[abi:ne190000]() &&
PUBLIC 1f3d4 0 std::__ndk1::basic_stringbuf<char, std::__ndk1::char_traits<char>, std::__ndk1::allocator<char> >::__init_buf_ptrs[abi:ne190000]()
PUBLIC 1f51c 0 std::__ndk1::basic_string<char, std::__ndk1::char_traits<char>, std::__ndk1::allocator<char> >::__erase_external_with_move(unsigned long, unsigned long)
PUBLIC 1f5a4 0 std::__ndk1::basic_string<char, std::__ndk1::char_traits<char>, std::__ndk1::allocator<char> >::__init_copy_ctor_external(char const*, unsigned long)
PUBLIC 1f638 0 std::__ndk1::__split_buffer<std::__ndk1::basic_string<char, std::__ndk1::char_traits<char>, std::__ndk1::allocator<char> >, std::__ndk1::allocator<std::__ndk1::basic_string<char, std::__ndk1::char_traits<char>, std::__ndk1::allocator<char> > >&>::~__split_buffer()
PUBLIC 1f6a0 0 std::__ndk1::vector<std::__ndk1::basic_string<char, std::__ndk1::char_traits<char>, std::__ndk1::allocator<char> >, std::__ndk1::allocator<std::__ndk1::basic_string<char, std::__ndk1::char_traits<char>, std::__ndk1::allocator<char> > > >::__throw_length_error[abi:ne190000]() const
PUBLIC 1f6b4 0 std::__ndk1::__variant_detail::__visitation::__base::__dispatcher<(unsigned long)0>::__dispatch[abi:ne190000]<std::__ndk1::__variant_detail::__dtor<std::__ndk1::__variant_detail::__traits<geode::Hook*, std::__ndk1::basic_string<char, std::__ndk1::char_traits<char>, std::__ndk1::allocator<char> > >, (std::__ndk1::__variant_detail::_Trait)1>::__destroy[abi:ne190000]()::{lambda(auto:1&)#1}, std::__ndk1::__variant_detail::__base<(std::__ndk1::__variant_detail::__traits<geode::Hook*, std::__ndk1::basic_string<char, std::__ndk1::char_traits<char>, std::__ndk1::allocator<char> > >)1, geode::Hook, std::__ndk1::allocator<char> >&>(std::__ndk1::__variant_detail::__dtor<std::__ndk1::__variant_detail::__traits<geode::Hook*, std::__ndk1::basic_string<char, std::__ndk1::char_traits<char>, std::__ndk1::allocator<char> > >, (std::__ndk1::__variant_detail::_Trait)1>, std::__ndk1::__variant_detail::__base<(std::__ndk1::__variant_detail::__traits<geode::Hook*, std::__ndk1::basic_string<char, std::__ndk1::char_traits<char>, std::__ndk1::allocator<char> > >)1, geode::Hook, std::__ndk1::allocator<char> >&)
PUBLIC 1f6b8 0 std::__ndk1::__variant_detail::__visitation::__base::__dispatcher<(unsigned long)1>::__dispatch[abi:ne190000]<std::__ndk1::__variant_detail::__dtor<std::__ndk1::__variant_detail::__traits<geode::Hook*, std::__ndk1::basic_string<char, std::__ndk1::char_traits<char>, std::__ndk1::allocator<char> > >, (std::__ndk1::__variant_detail::_Trait)1>::__destroy[abi:ne190000]()::{lambda(auto:1&)#1}, std::__ndk1::__variant_detail::__base<(std::__ndk1::__variant_detail::__traits<geode::Hook*, std::__ndk1::basic_string<char, std::__ndk1::char_traits<char>, std::__ndk1::allocator<char> > >)1, geode::Hook, std::__ndk1::allocator<char> >&>(std::__ndk1::__variant_detail::__dtor<std::__ndk1::__variant_detail::__traits<geode::Hook*, std::__ndk1::basic_string<char, std::__ndk1::char_traits<char>, std::__ndk1::allocator<char> > >, (std::__ndk1::__variant_detail::_Trait)1>, std::__ndk1::__variant_detail::__base<(std::__ndk1::__variant_detail::__traits<geode::Hook*, std::__ndk1::basic_string<char, std::__ndk1::char_traits<char>, std::__ndk1::allocator<char> > >)1, geode::Hook, std::__ndk1::allocator<char> >&)
PUBLIC 1f6cc 0 std::__ndk1::__tree<std::__ndk1::__value_type<std::__ndk1::basic_string<char, std::__ndk1::char_traits<char>, std::__ndk1::allocator<char> >, std::__ndk1::shared_ptr<geode::Hook> >, std::__ndk1::__map_value_compare<std::__ndk1::basic_string<char, std::__ndk1::char_traits<char>, std::__ndk1::allocator<char> >, std::__ndk1::__value_type<std::__ndk1::basic_string<char, std::__ndk1::char_traits<char>, std::__ndk1::allocator<char> >, std::__ndk1::shared_ptr<geode::Hook> >, std::__ndk1::less<std::__ndk1::basic_string<char, std::__ndk1::char_traits<char>, std::__ndk1::allocator<char> > >, true>, std::__ndk1::allocator<std::__ndk1::__value_type<std::__ndk1::basic_string<char, std::__ndk1::char_traits<char>, std::__ndk1::allocator<char> >, std::__ndk1::shared_ptr<geode::Hook> > > >::destroy(std::__ndk1::__tree_node<std::__ndk1::__value_type<std::__ndk1::basic_string<char, std::__ndk1::char_traits<char>, std::__ndk1::allocator<char> >, std::__ndk1::shared_ptr<geode::Hook> >, void*>*)
PUBLIC 1f750 0 geode::modifier::AsStaticFunction_loadPageFromUserInfo<copyIcons, void (copyIcons::*)(GJUserScore*)>::Impl<void (copyIcons::*)(GJUserScore*)>::function(copyIcons*, GJUserScore*)
PUBLIC 1f9f4 0 std::__ndk1::shared_ptr<tulip::hook::CallingConvention>::~shared_ptr[abi:ne190000]()
PUBLIC 1fa44 0 tulip::hook::HandlerMetadata::~HandlerMetadata()
PUBLIC 1faa8 0 copyIcons::setIcons(cocos2d::CCObject*)
PUBLIC 201b8 0 copyIcons::createCopyPlusLayer(cocos2d::CCObject*)
PUBLIC 20294 0 std::__ndk1::__tree_balance_after_insert[abi:ne190000]<std::__ndk1::__tree_node_base<void*>*>(std::__ndk1::__tree_node_base<void*>*, std::__ndk1::__tree_node_base<void*>*)
PUBLIC 2043c 0 geode::getMod()
PUBLIC m 20478 0 geodeImplicitEntry
PUBLIC 204b4 0 std::__ndk1::unordered_map<void*, bool, std::__ndk1::hash<void*>, std::__ndk1::equal_to<void*>, std::__ndk1::allocator<std::__ndk1::pair<void* const, bool> > >::~unordered_map[abi:ne190000]()
PUBLIC 20500 0 wrapFunction(unsigned long, tulip::hook::WrapperMetadata const&)
PUBLIC 20634 0 geode::impl::ResultData<void*, std::__ndk1::basic_string<char, std::__ndk1::char_traits<char>, std::__ndk1::allocator<char> > >::unwrapErr() &
PUBLIC 206ac 0 geode::impl::ResultData<void*, std::__ndk1::basic_string<char, std::__ndk1::char_traits<char>, std::__ndk1::allocator<char> > >::~ResultData()
PUBLIC 20720 0 tulip::hook::WrapperMetadata::~WrapperMetadata()
PUBLIC 20784 0 cocos2d::CCObject::~CCObject()
PUBLIC 207a8 0 cocos2d::CCNode::~CCNode()
PUBLIC 207cc 0 {virtual override thunk({offset(-320)}, cocos2d::CCLayer::~CCLayer())}
PUBLIC 207d4 0 cocos2d::CCLayer::~CCLayer()
PUBLIC 207f8 0 {virtual override thunk({offset(-320)}, cocos2d::CCLayer::~CCLayer())}
PUBLIC 20820 0 cocos2d::CCLayerRGBA::~CCLayerRGBA()
PUBLIC 20af8 0 {virtual override thunk({offset(-320)}, cocos2d::CCLayerRGBA::~CCLayerRGBA())}
PUBLIC 20b00 0 cocos2d::CCLayerRGBA::~CCLayerRGBA()
PUBLIC 20b24 0 {virtual override thunk({offset(-320)}, cocos2d::CCLayerRGBA::~CCLayerRGBA())}
PUBLIC 20b4c 0 cocos2d::CCLayerColor::CCLayerColor()
PUBLIC 20d9c 0 {virtual override thunk({offset(-320)}, cocos2d::CCLayerColor::~CCLayerColor())}
PUBLIC 20da4 0 cocos2d::CCLayerColor::~CCLayerColor()
PUBLIC 20dc8 0 {virtual override thunk({offset(-320)}, cocos2d::CCLayerColor::~CCLayerColor())}
PUBLIC 20df0 0 FLAlertLayer::FLAlertLayer()
PUBLIC 20e8c 0 {virtual override thunk({offset(-320)}, FLAlertLayer::~FLAlertLayer())}
PUBLIC 20e94 0 FLAlertLayer::~FLAlertLayer()
PUBLIC 20eb8 0 {virtual override thunk({offset(-320)}, FLAlertLayer::~FLAlertLayer())}
PUBLIC 20ee0 0 FLAlertLayer::create(FLAlertLayerProtocol*, char const*, gd::string, char const*, char const*, float)
PUBLIC 21098 0 tulip::hook::AbstractFunction::from<FLAlertLayer*, FLAlertLayerProtocol*, char const*, gd::string, char const*, char const*, float>(FLAlertLayer* (*)(FLAlertLayerProtocol*, char const*, gd::string, char const*, char const*, float))
PUBLIC 211fc 0 FLAlertLayer::create(char const*, gd::string const&, char const*)
PUBLIC 212a8 0 ButtonSprite::create(char const*)
PUBLIC 212d0 0 ButtonSprite::create(char const*, char const*, char const*)
PUBLIC 212f0 0 CCMenuItemSpriteExtra::create(cocos2d::CCNode*, cocos2d::CCObject*, void (cocos2d::CCObject::*)(cocos2d::CCObject*))
PUBLIC 21304 0 CCMenuItemSpriteExtra::setSprite(cocos2d::CCSprite*)
PUBLIC 213d8 0 GameLevelManager::get()
PUBLIC 213dc 0 GameManager::setPlayerBall(int)
PUBLIC 213f0 0 GameManager::setPlayerBird(int)
PUBLIC 21404 0 GameManager::setPlayerColor(int)
PUBLIC 21418 0 GameManager::setPlayerColor2(int)
PUBLIC 2142c 0 GameManager::setPlayerColor3(int)
PUBLIC 21440 0 GameManager::setPlayerDart(int)
PUBLIC 21454 0 GameManager::setPlayerDeathEffect(int)
PUBLIC 21468 0 GameManager::setPlayerFrame(int)
PUBLIC 2147c 0 GameManager::setPlayerGlow(bool)
PUBLIC 21484 0 GameManager::setPlayerJetpack(int)
PUBLIC 21498 0 GameManager::setPlayerRobot(int)
PUBLIC 214ac 0 GameManager::setPlayerShip(int)
PUBLIC 214c0 0 GameManager::setPlayerSpider(int)
PUBLIC 214d4 0 GameManager::setPlayerStreak(int)
PUBLIC 214e8 0 GameManager::setPlayerSwing(int)
PUBLIC 214fc 0 cocos2d::CCObject::update(float)
PUBLIC 21500 0 cocos2d::CCLayerColor::~CCLayerColor()
PUBLIC 217bc 0 cocos2d::CCLayer::~CCLayer()
PUBLIC 21a84 0 cocos2d::CCNode::~CCNode()
PUBLIC 21cfc 0 FLAlertLayer::~FLAlertLayer()
PUBLIC 21fb8 0 cocos2d::CCObject::~CCObject()
PUBLIC 22484 0 _ZN5geode15UnwrapExceptionC2IRPvQsr4implE18IsStringStreamableIT_EEENS_4impl5OkTagEOS4_
PUBLIC 225d8 0 _ZN5geode15UnwrapExceptionC2IRNSt6__ndk112basic_stringIcNS2_11char_traitsIcEENS2_9allocatorIcEEEEQsr4implE18IsStringStreamableIT_EEENS_4impl6ErrTagEOSA_
PUBLIC 22740 0 std::__ndk1::__variant_detail::__visitation::__base::__dispatcher<(unsigned long)0>::__dispatch[abi:ne190000]<std::__ndk1::__variant_detail::__dtor<std::__ndk1::__variant_detail::__traits<void*, std::__ndk1::basic_string<char, std::__ndk1::char_traits<char>, std::__ndk1::allocator<char> > >, (std::__ndk1::__variant_detail::_Trait)1>::__destroy[abi:ne190000]()::{lambda(auto:1&)#1}, std::__ndk1::__variant_detail::__base<(std::__ndk1::__variant_detail::__traits<void*, std::__ndk1::basic_string<char, std::__ndk1::char_traits<char>, std::__ndk1::allocator<char> > >)1, std::__ndk1::__variant_detail::__traits, std::__ndk1::allocator<char> >&>(std::__ndk1::__variant_detail::__dtor<std::__ndk1::__variant_detail::__traits<void*, std::__ndk1::basic_string<char, std::__ndk1::char_traits<char>, std::__ndk1::allocator<char> > >, (std::__ndk1::__variant_detail::_Trait)1>, std::__ndk1::__variant_detail::__base<(std::__ndk1::__variant_detail::__traits<void*, std::__ndk1::basic_string<char, std::__ndk1::char_traits<char>, std::__ndk1::allocator<char> > >)1, std::__ndk1::__variant_detail::__traits, std::__ndk1::allocator<char> >&)
PUBLIC 22744 0 std::__ndk1::__variant_detail::__visitation::__base::__dispatcher<(unsigned long)1>::__dispatch[abi:ne190000]<std::__ndk1::__variant_detail::__dtor<std::__ndk1::__variant_detail::__traits<void*, std::__ndk1::basic_string<char, std::__ndk1::char_traits<char>, std::__ndk1::allocator<char> > >, (std::__ndk1::__variant_detail::_Trait)1>::__destroy[abi:ne190000]()::{lambda(auto:1&)#1}, std::__ndk1::__variant_detail::__base<(std::__ndk1::__variant_detail::__traits<void*, std::__ndk1::basic_string<char, std::__ndk1::char_traits<char>, std::__ndk1::allocator<char> > >)1, std::__ndk1::__variant_detail::__traits, std::__ndk1::allocator<char> >&>(std::__ndk1::__variant_detail::__dtor<std::__ndk1::__variant_detail::__traits<void*, std::__ndk1::basic_string<char, std::__ndk1::char_traits<char>, std::__ndk1::allocator<char> > >, (std::__ndk1::__variant_detail::_Trait)1>, std::__ndk1::__variant_detail::__base<(std::__ndk1::__variant_detail::__traits<void*, std::__ndk1::basic_string<char, std::__ndk1::char_traits<char>, std::__ndk1::allocator<char> > >)1, std::__ndk1::__variant_detail::__traits, std::__ndk1::allocator<char> >&)
PUBLIC 22758 0 std::__ndk1::__hash_table<std::__ndk1::__hash_value_type<void*, bool>, std::__ndk1::__unordered_map_hasher<void*, std::__ndk1::__hash_value_type<void*, bool>, std::__ndk1::hash<void*>, std::__ndk1::equal_to<void*>, true>, std::__ndk1::__unordered_map_equal<void*, std::__ndk1::__hash_value_type<void*, bool>, std::__ndk1::equal_to<void*>, std::__ndk1::hash<void*>, true>, std::__ndk1::allocator<std::__ndk1::__hash_value_type<void*, bool> > >::__emplace_unique_key_args<void*, std::__ndk1::piecewise_construct_t const&, std::__ndk1::tuple<void* const&>, std::__ndk1::tuple<> >(void* const&, std::__ndk1::piecewise_construct_t const&, std::__ndk1::tuple<void* const&>, std::__ndk1::tuple<>)
PUBLIC 22c38 0 __udivti3
PUBLIC 22c44 0 __udivmodti4
PUBLIC m 22e90 0 __eqtf2
PUBLIC 22f30 0 __unordtf2
PUBLIC 22f68 0 fmt::v11::detail::write_loc(fmt::v11::basic_appender<char>, fmt::v11::loc_value, fmt::v11::format_specs const&, fmt::v11::detail::locale_ref)
PUBLIC 231fc 0 fmt::v11::format_facet<std::__ndk1::locale>::~format_facet()
PUBLIC 23278 0 fmt::v11::report_error(char const*)
PUBLIC 232c8 0 fmt::v11::format_error::runtime_error(char const*)
PUBLIC 232f4 0 fmt::v11::format_facet<std::__ndk1::locale>::do_put(fmt::v11::basic_appender<char>, fmt::v11::loc_value, fmt::v11::format_specs const&) const
PUBLIC 23ab4 0 fmt::v11::detail::loc_writer<char>::~loc_writer()
PUBLIC 23b18 0 fmt::v11::vformat(fmt::v11::basic_string_view<char>, fmt::v11::basic_format_args<fmt::v11::context>)
PUBLIC 23c64 0 fmt::v11::detail::vformat_to<char>(fmt::v11::detail::buffer<char>&, fmt::v11::basic_string_view<char>, fmt::v11::detail::vformat_args<char>::type, fmt::v11::detail::locale_ref)
PUBLIC 241d4 0 fmt::v11::detail::is_printable(unsigned int)
PUBLIC 243fc 0 fmt::v11::detail::dragonbox::to_decimal<float>(float)
PUBLIC 246d8 0 fmt::v11::detail::dragonbox::to_decimal<double>(double)
PUBLIC 24c14 0 fmt::v11::basic_memory_buffer<char, (unsigned long)500, std::__ndk1::allocator<char> >::grow(fmt::v11::detail::buffer<char>&, unsigned long)
PUBLIC 24c8c 0 fmt::v11::format_facet<std::__ndk1::locale>::~format_facet()
PUBLIC 24d18 0 fmt::v11::format_error::~format_error()
PUBLIC 24d3c 0 fmt::v11::detail::copy_noinline<char, char const*, fmt::v11::basic_appender<char> >(char const*, char const*, fmt::v11::basic_appender<char>)
PUBLIC 24e8c 0 fmt::v11::detail::default_arg_formatter<char>::operator()<bool>(bool)
PUBLIC 24ef4 0 fmt::v11::detail::default_arg_formatter<char>::operator()<char>(char)
PUBLIC 24f84 0 fmt::v11::detail::default_arg_formatter<char>::operator()<float>(float)
PUBLIC 25070 0 fmt::v11::detail::default_arg_formatter<char>::operator()<double>(double)
PUBLIC 2515c 0 fmt::v11::detail::default_arg_formatter<char>::operator()<char const*>(char const*)
PUBLIC 251a4 0 fmt::v11::detail::default_arg_formatter<char>::operator()<void const*>(void const*)
PUBLIC 2523c 0 _ZN3fmt3v116detail5writeIcNS0_14basic_appenderIcEEiTnNSt6__ndk19enable_ifIXaaaasr11is_integralIT1_EE5valuentsr3std7is_sameIS7_bEE5valuentsr3std7is_sameIS7_T_EE5valueEiE4typeELi0EEET0_SB_S7_
PUBLIC 2549c 0 fmt::v11::detail::copy_noinline<char, char*, fmt::v11::basic_appender<char> >(char*, char*, fmt::v11::basic_appender<char>)
PUBLIC 255ec 0 _ZN3fmt3v116detail5writeIcNS0_14basic_appenderIcEEjTnNSt6__ndk19enable_ifIXaaaasr11is_integralIT1_EE5valuentsr3std7is_sameIS7_bEE5valuentsr3std7is_sameIS7_T_EE5valueEiE4typeELi0EEET0_SB_S7_
PUBLIC 257cc 0 _ZN3fmt3v116detail5writeIcNS0_14basic_appenderIcEExTnNSt6__ndk19enable_ifIXaaaasr11is_integralIT1_EE5valuentsr3std7is_sameIS7_bEE5valuentsr3std7is_sameIS7_T_EE5valueEiE4typeELi0EEET0_SB_S7_
PUBLIC 25a50 0 _ZN3fmt3v116detail5writeIcNS0_14basic_appenderIcEEyTnNSt6__ndk19enable_ifIXaaaasr11is_integralIT1_EE5valuentsr3std7is_sameIS7_bEE5valuentsr3std7is_sameIS7_T_EE5valueEiE4typeELi0EEET0_SB_S7_
PUBLIC 25c58 0 _ZN3fmt3v116detail5writeIcNS0_14basic_appenderIcEEnTnNSt6__ndk19enable_ifIXaaaasr11is_integralIT1_EE5valuentsr3std7is_sameIS7_bEE5valuentsr3std7is_sameIS7_T_EE5valueEiE4typeELi0EEET0_SB_S7_
PUBLIC 25fb8 0 _ZN3fmt3v116detail5writeIcNS0_14basic_appenderIcEEoTnNSt6__ndk19enable_ifIXaaaasr11is_integralIT1_EE5valuentsr3std7is_sameIS7_bEE5valuentsr3std7is_sameIS7_T_EE5valueEiE4typeELi0EEET0_SB_S7_
PUBLIC 262cc 0 _ZN3fmt3v116detail5writeIcNS0_14basic_appenderIcEEbTnNSt6__ndk19enable_ifIXsr3std7is_sameIT1_bEE5valueEiE4typeELi0EEET0_SA_S7_RKNS0_12format_specsENS1_10locale_refE
PUBLIC 2655c 0 fmt::v11::detail::write_int_noinline<char, fmt::v11::basic_appender<char>, unsigned int>(fmt::v11::basic_appender<char>, fmt::v11::detail::write_int_arg<unsigned int>, fmt::v11::format_specs const&, fmt::v11::detail::locale_ref)
PUBLIC 27324 0 fmt::v11::detail::fill<char, fmt::v11::basic_appender<char> >(fmt::v11::basic_appender<char>, unsigned long, fmt::v11::detail::fill_t const&)
PUBLIC 274f4 0 fmt::v11::detail::write_padded<char, (fmt::v11::align::type)1, fmt::v11::basic_appender<char>, fmt::v11::detail::write_char<char, fmt::v11::basic_appender<char> >(fmt::v11::basic_appender<char>, char, fmt::v11::format_specs const&)::{lambda(fmt::v11::basic_appender<char>&)#1}>(fmt::v11::basic_appender<char>, fmt::v11::format_specs const&, unsigned long, unsigned long, fmt::v11::detail::write_char<char, fmt::v11::basic_appender<char> >(fmt::v11::basic_appender<char>, char, fmt::v11::format_specs const&)::{lambda(fmt::v11::basic_appender<char>&)#1})
PUBLIC 27730 0 fmt::v11::detail::write_escaped_cp<fmt::v11::basic_appender<char>, char>(fmt::v11::basic_appender<char>, fmt::v11::detail::find_escape_result<char> const&)
PUBLIC 27a3c 0 fmt::v11::detail::write_codepoint<(unsigned long)2, char, fmt::v11::basic_appender<char> >(fmt::v11::basic_appender<char>, char, unsigned int)
PUBLIC 27bb4 0 fmt::v11::detail::write_codepoint<(unsigned long)8, char, fmt::v11::basic_appender<char> >(fmt::v11::basic_appender<char>, char, unsigned int)
PUBLIC 27d2c 0 fmt::v11::detail::write_padded<char, (fmt::v11::align::type)1, fmt::v11::basic_appender<char>, fmt::v11::detail::write_nonfinite<char, fmt::v11::basic_appender<char> >(fmt::v11::basic_appender<char>, bool, fmt::v11::format_specs, fmt::v11::sign::type)::{lambda(fmt::v11::basic_appender<char>&)#1}>(fmt::v11::basic_appender<char>, fmt::v11::format_specs const&, unsigned long, unsigned long, fmt::v11::detail::write_nonfinite<char, fmt::v11::basic_appender<char> >(fmt::v11::basic_appender<char>, bool, fmt::v11::format_specs, fmt::v11::sign::type)::{lambda(fmt::v11::basic_appender<char>&)#1})
PUBLIC 27f6c 0 fmt::v11::detail::do_write_float<char, fmt::v11::basic_appender<char>, fmt::v11::detail::dragonbox::decimal_fp<float>, fmt::v11::detail::digit_grouping<char> >(fmt::v11::basic_appender<char>, fmt::v11::detail::dragonbox::decimal_fp<float> const&, fmt::v11::format_specs const&, fmt::v11::detail::float_specs, fmt::v11::detail::locale_ref)
PUBLIC 28be0 0 fmt::v11::detail::do_write_float<char, fmt::v11::basic_appender<char>, fmt::v11::detail::dragonbox::decimal_fp<float>, fmt::v11::detail::digit_grouping<char> >(fmt::v11::basic_appender<char>, fmt::v11::detail::dragonbox::decimal_fp<float> const&, fmt::v11::format_specs const&, fmt::v11::detail::float_specs, fmt::v11::detail::locale_ref)::{lambda(fmt::v11::basic_appender<char>(fmt::v11::basic_appender<char>))#1}::operator() const
PUBLIC 28d34 0 fmt::v11::detail::digit_grouping<char>::digit_grouping(fmt::v11::detail::locale_ref, bool)
PUBLIC 28f9c 0 fmt::v11::detail::digit_grouping<char>::~digit_grouping()
PUBLIC 28fe0 0 fmt::v11::detail::write_exponent<char, fmt::v11::basic_appender<char> >(int, fmt::v11::basic_appender<char>)
PUBLIC 291b0 0 _ZN3fmt3v116detail17write_significandIcjTnNSt6__ndk19enable_ifIXsr3std11is_integralIT0_EE5valueEiE4typeELi0EEEPT_S9_S5_iiS8_
PUBLIC 2932c 0 std::__ndk1::basic_string<char, std::__ndk1::char_traits<char>, std::__ndk1::allocator<char> >::__assign_no_alias<true>(char const*, unsigned long)
PUBLIC 293d8 0 std::__ndk1::basic_string<char, std::__ndk1::char_traits<char>, std::__ndk1::allocator<char> >::__assign_no_alias<false>(char const*, unsigned long)
PUBLIC 29514 0 fmt::v11::detail::digit_grouping<char>::apply<fmt::v11::basic_appender<char>, char>(fmt::v11::basic_appender<char>, fmt::v11::basic_string_view<char>) const
PUBLIC 298cc 0 fmt::v11::basic_memory_buffer<int, (unsigned long)500, std::__ndk1::allocator<int> >::grow(fmt::v11::detail::buffer<int>&, unsigned long)
PUBLIC 2996c 0 fmt::v11::detail::do_write_float<char, fmt::v11::basic_appender<char>, fmt::v11::detail::dragonbox::decimal_fp<double>, fmt::v11::detail::digit_grouping<char> >(fmt::v11::basic_appender<char>, fmt::v11::detail::dragonbox::decimal_fp<double> const&, fmt::v11::format_specs const&, fmt::v11::detail::float_specs, fmt::v11::detail::locale_ref)
PUBLIC 2a61c 0 fmt::v11::detail::do_write_float<char, fmt::v11::basic_appender<char>, fmt::v11::detail::dragonbox::decimal_fp<double>, fmt::v11::detail::digit_grouping<char> >(fmt::v11::basic_appender<char>, fmt::v11::detail::dragonbox::decimal_fp<double> const&, fmt::v11::format_specs const&, fmt::v11::detail::float_specs, fmt::v11::detail::locale_ref)::{lambda(fmt::v11::basic_appender<char>(fmt::v11::basic_appender<char>))#1}::operator() const
PUBLIC 2a774 0 _ZN3fmt3v116detail17write_significandIcmTnNSt6__ndk19enable_ifIXsr3std11is_integralIT0_EE5valueEiE4typeELi0EEEPT_S9_S5_iiS8_
PUBLIC 2a904 0 fmt::v11::detail::write_float<char, fmt::v11::basic_appender<char>, long double>(fmt::v11::basic_appender<char>, long double, fmt::v11::format_specs, fmt::v11::detail::locale_ref)
PUBLIC 2b3e8 0 fmt::v11::detail::write_padded<char, (fmt::v11::align::type)2, fmt::v11::basic_appender<char>, fmt::v11::detail::write_bytes<char, (fmt::v11::align::type)2, fmt::v11::basic_appender<char> >(fmt::v11::basic_appender<char>, fmt::v11::basic_string_view<char>, fmt::v11::format_specs const&)::{lambda(fmt::v11::basic_appender<char>&)#1}>(fmt::v11::basic_appender<char>, fmt::v11::format_specs const&, unsigned long, unsigned long, fmt::v11::detail::write_bytes<char, (fmt::v11::align::type)2, fmt::v11::basic_appender<char> >(fmt::v11::basic_appender<char>, fmt::v11::basic_string_view<char>, fmt::v11::format_specs const&)::{lambda(fmt::v11::basic_appender<char>&)#1})
PUBLIC 2b5c4 0 fmt::v11::detail::format_dragon(fmt::v11::detail::basic_fp<unsigned __int128>, unsigned int, int, fmt::v11::detail::buffer<char>&, int&)
PUBLIC 2c9e8 0 fmt::v11::detail::bigint::operator<<=(int)
PUBLIC 2cb0c 0 fmt::v11::detail::bigint::assign_pow10(int)
PUBLIC 2d268 0 fmt::v11::detail::bigint::divmod_assign(fmt::v11::detail::bigint const&)
PUBLIC 2d58c 0 fmt::v11::basic_memory_buffer<unsigned int, (unsigned long)32, std::__ndk1::allocator<unsigned int> >::grow(fmt::v11::detail::buffer<unsigned int>&, unsigned long)
PUBLIC 2d62c 0 fmt::v11::detail::do_write_float<char, fmt::v11::basic_appender<char>, fmt::v11::detail::big_decimal_fp, fmt::v11::detail::digit_grouping<char> >(fmt::v11::basic_appender<char>, fmt::v11::detail::big_decimal_fp const&, fmt::v11::format_specs const&, fmt::v11::detail::float_specs, fmt::v11::detail::locale_ref)
PUBLIC 2e4d8 0 fmt::v11::detail::do_write_float<char, fmt::v11::basic_appender<char>, fmt::v11::detail::big_decimal_fp, fmt::v11::detail::digit_grouping<char> >(fmt::v11::basic_appender<char>, fmt::v11::detail::big_decimal_fp const&, fmt::v11::format_specs const&, fmt::v11::detail::float_specs, fmt::v11::detail::locale_ref)::{lambda(fmt::v11::basic_appender<char>(fmt::v11::basic_appender<char>))#1}::operator() const
PUBLIC 2e638 0 fmt::v11::detail::write_padded<char, (fmt::v11::align::type)2, fmt::v11::basic_appender<char>, fmt::v11::detail::write_ptr<char, fmt::v11::basic_appender<char>, unsigned long>(fmt::v11::basic_appender<char>, unsigned long, fmt::v11::format_specs const*)::{lambda(fmt::v11::basic_appender<char>&)#1}>(fmt::v11::basic_appender<char>, fmt::v11::format_specs const&, unsigned long, unsigned long, fmt::v11::detail::write_ptr<char, fmt::v11::basic_appender<char>, unsigned long>(fmt::v11::basic_appender<char>, unsigned long, fmt::v11::format_specs const*)::{lambda(fmt::v11::basic_appender<char>&)#1})
PUBLIC 2e84c 0 fmt::v11::detail::parse_replacement_field<char, fmt::v11::detail::vformat_to<char>(fmt::v11::detail::buffer<char>&, fmt::v11::basic_string_view<char>, fmt::v11::detail::vformat_args<char>::type, fmt::v11::detail::locale_ref)::format_handler&>(char const*, char const*, fmt::v11::detail::vformat_to<char>(fmt::v11::detail::buffer<char>&, fmt::v11::basic_string_view<char>, fmt::v11::detail::vformat_args<char>::type, fmt::v11::detail::locale_ref)::format_handler&)
PUBLIC 304b0 0 fmt::v11::detail::parse_dynamic_spec<char>(char const*, char const*, int&, fmt::v11::detail::arg_ref<char>&, fmt::v11::basic_format_parse_context<char>&)
PUBLIC 30740 0 fmt::v11::basic_format_args<fmt::v11::context>::get<char>(fmt::v11::basic_string_view<char>) const
PUBLIC 30874 0 fmt::v11::detail::write_int_noinline<char, fmt::v11::basic_appender<char>, unsigned long>(fmt::v11::basic_appender<char>, fmt::v11::detail::write_int_arg<unsigned long>, fmt::v11::format_specs const&, fmt::v11::detail::locale_ref)
PUBLIC 316c0 0 fmt::v11::detail::write_int_noinline<char, fmt::v11::basic_appender<char>, unsigned __int128>(fmt::v11::basic_appender<char>, fmt::v11::detail::write_int_arg<unsigned __int128>, fmt::v11::format_specs const&, fmt::v11::detail::locale_ref)
PUBLIC 32728 0 _ZN3fmt3v116detail15format_hexfloatIdTnNSt6__ndk19enable_ifIXntsr16is_double_doubleIT_EE5valueEiE4typeELi0EEEvS5_NS0_12format_specsERNS1_6bufferIcEE
PUBLIC 32c48 0 fmt::v11::detail::format_float<double>(double, int, fmt::v11::detail::float_specs, fmt::v11::detail::buffer<char>&)
PUBLIC 33694 0 fmt::v11::detail::write<char, fmt::v11::basic_appender<char> >(fmt::v11::basic_appender<char>, fmt::v11::basic_string_view<char>, fmt::v11::format_specs const&)
PUBLIC 34970 0 fmt::v11::detail::for_each_codepoint<fmt::v11::detail::compute_width(fmt::v11::basic_string_view<char>)::count_code_points>(fmt::v11::basic_string_view<char>, fmt::v11::detail::compute_width(fmt::v11::basic_string_view<char>)::count_code_points)::{lambda(char const*, char const*)#1}::operator()(char const*, char const*) const
PUBLIC 34b28 0 fmt::v11::detail::write_int<fmt::v11::basic_appender<char>, unsigned long, char>(fmt::v11::basic_appender<char>, unsigned long, unsigned int, fmt::v11::format_specs const&, fmt::v11::detail::digit_grouping<char> const&)
PUBLIC 350a4 0 fmt::v11::detail::write_int<fmt::v11::basic_appender<char>, unsigned __int128, char>(fmt::v11::basic_appender<char>, unsigned __int128, unsigned int, fmt::v11::format_specs const&, fmt::v11::detail::digit_grouping<char> const&)
PUBLIC 35720 0 <.plt ELF section in hbg1010.iconsteal.android64.so>
STACK CFI INIT 16cb0 10 .cfa: sp 0 +
STACK CFI INIT 16cc0 8 .cfa: sp 0 +
STACK CFI INIT 16cc8 8 .cfa: sp 0 +
STACK CFI INIT 16cd0 14 .cfa: sp 0 +
STACK CFI INIT 16ce4 1c .cfa: sp 0 +
STACK CFI INIT 16d00 10 .cfa: sp 0 +
STACK CFI INIT 16d10 134 .cfa: sp 0 +
STACK CFI INIT 16e44 84 .cfa: sp 0 +
STACK CFI INIT 16ec8 f4 .cfa: sp 0 +
STACK CFI INIT 16fbc a8 .cfa: sp 0 +
STACK CFI INIT 17064 7c .cfa: sp 0 +
STACK CFI INIT 170e0 14 .cfa: sp 0 +
STACK CFI INIT 170f4 40 .cfa: sp 0 +
STACK CFI INIT 17134 28 .cfa: sp 0 +
STACK CFI INIT 1715c 190 .cfa: sp 0 +
STACK CFI INIT 172ec 2c8 .cfa: sp 0 +
STACK CFI INIT 175b4 8 .cfa: sp 0 +
STACK CFI INIT 175bc 8 .cfa: sp 0 +
STACK CFI INIT 175c4 44 .cfa: sp 0 +
STACK CFI INIT 17608 e8 .cfa: sp 0 +
STACK CFI INIT 176f0 e8 .cfa: sp 0 +
STACK CFI INIT 177d8 14 .cfa: sp 0 +
STACK CFI INIT 177ec 10 .cfa: sp 0 +
STACK CFI INIT 177fc 10 .cfa: sp 0 +
STACK CFI INIT 1780c f0 .cfa: sp 0 +
STACK CFI INIT 178fc 44 .cfa: sp 0 +
STACK CFI INIT 17940 c .cfa: sp 0 +
STACK CFI INIT 1794c c .cfa: sp 0 +
STACK CFI INIT 17958 2c .cfa: sp 0 +
STACK CFI INIT 17984 23c .cfa: sp 0 +
STACK CFI INIT 17bc0 c .cfa: sp 0 +
STACK CFI INIT 17bcc 120 .cfa: sp 0 +
STACK CFI INIT 17cec 494 .cfa: sp 0 +
STACK CFI INIT 18180 b78 .cfa: sp 0 +
STACK CFI INIT 18cf8 134 .cfa: sp 0 +
STACK CFI INIT 18e2c 210 .cfa: sp 0 +
STACK CFI INIT 1903c 38c .cfa: sp 0 +
STACK CFI INIT 193c8 1c8 .cfa: sp 0 +
STACK CFI INIT 19590 9c4 .cfa: sp 0 +
STACK CFI INIT 19f54 2d4 .cfa: sp 0 +
STACK CFI INIT 1a228 130 .cfa: sp 0 +
STACK CFI INIT 1a358 120 .cfa: sp 0 +
STACK CFI INIT 1a478 1c8 .cfa: sp 0 +
STACK CFI INIT 1a640 168 .cfa: sp 0 +
STACK CFI INIT 1a7a8 fc .cfa: sp 0 +
STACK CFI INIT 1a8a4 30 .cfa: sp 0 +
STACK CFI INIT 1aa00 30 .cfa: sp 0 +
STACK CFI INIT 1aa30 98 .cfa: sp 0 +
STACK CFI INIT 1aac8 2ac .cfa: sp 0 +
STACK CFI INIT 1ad74 8c .cfa: sp 0 +
STACK CFI INIT 1ae00 30 .cfa: sp 0 +
STACK CFI INIT 1cff4 108 .cfa: sp 0 +
STACK CFI 1cff8 .cfa: sp 112 +
STACK CFI 1d010 .cfa: x29 80 + x19: .cfa -8 + ^ x20: .cfa -16 + ^ x21: .cfa -24 + ^ x22: .cfa -32 + ^ x23: .cfa -40 + ^ x24: .cfa -48 + ^ x25: .cfa -64 + ^ .ra: .cfa -72 + ^ x29: .cfa -80 + ^
STACK CFI 1d0dc .cfa: sp 112 +
STACK CFI 1d0f4 .cfa: sp 0 +
STACK CFI 1d0f8 .cfa: x29 80 +
STACK CFI INIT 1d230 8 .cfa: sp 0 +
STACK CFI INIT 1d238 2c .cfa: sp 0 +
STACK CFI 1d23c .cfa: sp 32 +
STACK CFI 1d244 .cfa: x29 32 + x19: .cfa -16 + ^ .ra: .cfa -24 + ^ x29: .cfa -32 + ^
STACK CFI 1d258 .cfa: sp 32 +
STACK CFI 1d260 .cfa: sp 0 +
STACK CFI INIT 1d264 28 .cfa: sp 0 +
STACK CFI INIT 1d28c 4 .cfa: sp 0 +
STACK CFI INIT 1d290 8 .cfa: sp 0 +
STACK CFI INIT 1d298 2c .cfa: sp 0 +
STACK CFI INIT 1d2c4 4 .cfa: sp 0 +
STACK CFI INIT 1d2c8 4 .cfa: sp 0 +
STACK CFI INIT 1d2cc 4 .cfa: sp 0 +
STACK CFI INIT 1d2d0 4 .cfa: sp 0 +
STACK CFI INIT 1d2d4 4 .cfa: sp 0 +
STACK CFI INIT 1d2d8 8 .cfa: sp 0 +
STACK CFI INIT 1d34c 4 .cfa: sp 0 +
STACK CFI INIT 1d3bc 4 .cfa: sp 0 +
STACK CFI INIT 1d3c0 14 .cfa: sp 0 +
STACK CFI 1d3c4 .cfa: sp 16 +
STACK CFI 1d3c8 .cfa: x29 16 + .ra: .cfa -8 + ^ x29: .cfa -16 + ^
STACK CFI INIT 1d424 30 .cfa: sp 0 +
STACK CFI 1d428 .cfa: sp 32 +
STACK CFI 1d430 .cfa: x29 32 + x19: .cfa -16 + ^ .ra: .cfa -24 + ^ x29: .cfa -32 + ^
STACK CFI 1d448 .cfa: sp 32 +
STACK CFI 1d450 .cfa: sp 0 +
STACK CFI INIT 1d454 10 .cfa: sp 0 +
STACK CFI 1d458 .cfa: sp 16 +
STACK CFI 1d45c .cfa: x29 16 + .ra: .cfa -8 + ^ x29: .cfa -16 + ^
STACK CFI INIT 1d464 c .cfa: sp 0 +
STACK CFI 1d468 .cfa: sp 16 +
STACK CFI 1d46c .cfa: x29 16 + .ra: .cfa -8 + ^ x29: .cfa -16 + ^
STACK CFI INIT 1d4c0 30 .cfa: sp 0 +
STACK CFI 1d4c4 .cfa: sp 32 +
STACK CFI 1d4cc .cfa: x29 32 + x19: .cfa -16 + ^ .ra: .cfa -24 + ^ x29: .cfa -32 + ^
STACK CFI 1d4e4 .cfa: sp 32 +
STACK CFI 1d4ec .cfa: sp 0 +
STACK CFI INIT 1d4f0 310 .cfa: sp 0 +
STACK CFI 1d4f4 .cfa: sp 128 +
STACK CFI 1d50c .cfa: x29 64 + x19: .cfa -8 + ^ x20: .cfa -16 + ^ x21: .cfa -24 + ^ x22: .cfa -32 + ^ x23: .cfa -40 + ^ x24: .cfa -48 + ^ .ra: .cfa -56 + ^ x29: .cfa -64 + ^ v8: .cfa -72 + ^ v9: .cfa -80 + ^
STACK CFI 1d744 .cfa: sp 128 +
STACK CFI 1d75c .cfa: sp 0 +
STACK CFI 1d760 .cfa: x29 64 +
STACK CFI INIT 1d800 104 .cfa: sp 0 +
STACK CFI 1d804 .cfa: sp 64 +
STACK CFI 1d814 .cfa: x29 64 + x19: .cfa -8 + ^ x20: .cfa -16 + ^ x21: .cfa -24 + ^ x22: .cfa -32 + ^ x23: .cfa -48 + ^ .ra: .cfa -56 + ^ x29: .cfa -64 + ^
STACK CFI 1d870 .cfa: sp 64 +
STACK CFI 1d880 .cfa: sp 0 +
STACK CFI 1d884 .cfa: x29 64 +
STACK CFI 1d8a0 .cfa: sp 64 +
STACK CFI 1d8b0 .cfa: sp 0 +
STACK CFI 1d8b4 .cfa: x29 64 +
STACK CFI 1d8f0 .cfa: sp 64 +
STACK CFI 1d900 .cfa: sp 0 +
STACK CFI INIT 1d904 60 .cfa: sp 0 +
STACK CFI 1d908 .cfa: sp 32 +
STACK CFI 1d910 .cfa: x29 32 + x19: .cfa -8 + ^ x20: .cfa -16 + ^ .ra: .cfa -24 + ^ x29: .cfa -32 + ^
STACK CFI 1d930 .cfa: sp 32 +
STACK CFI 1d938 .cfa: sp 0 +
STACK CFI 1d93c .cfa: x29 32 +
STACK CFI 1d958 .cfa: sp 32 +
STACK CFI 1d960 .cfa: sp 0 +
STACK CFI INIT 1d964 70 .cfa: sp 0 +
STACK CFI 1d968 .cfa: sp 32 +
STACK CFI 1d970 .cfa: x29 32 + x19: .cfa -8 + ^ x20: .cfa -16 + ^ .ra: .cfa -24 + ^ x29: .cfa -32 + ^
STACK CFI 1d998 .cfa: sp 32 +
STACK CFI 1d9a0 .cfa: sp 0 +
STACK CFI 1d9a4 .cfa: x29 32 +
STACK CFI 1d9c8 .cfa: sp 32 +
STACK CFI 1d9d0 .cfa: sp 0 +
STACK CFI INIT 1d9d4 10 .cfa: sp 0 +
STACK CFI INIT 1d9e4 30 .cfa: sp 0 +
STACK CFI 1d9e8 .cfa: sp 32 +
STACK CFI 1d9f0 .cfa: x29 32 + x19: .cfa -16 + ^ .ra: .cfa -24 + ^ x29: .cfa -32 + ^
STACK CFI 1da08 .cfa: sp 32 +
STACK CFI 1da10 .cfa: sp 0 +
STACK CFI INIT 1da14 4 .cfa: sp 0 +
STACK CFI INIT 1da18 4 .cfa: sp 0 +
STACK CFI INIT 1e574 18 .cfa: sp 0 +
STACK CFI INIT 1e9fc 50 .cfa: sp 0 +
STACK CFI 1ea00 .cfa: sp 32 +
STACK CFI 1ea08 .cfa: x29 32 + x19: .cfa -16 + ^ .ra: .cfa -24 + ^ x29: .cfa -32 + ^
STACK CFI 1ea20 .cfa: sp 32 +
STACK CFI 1ea28 .cfa: sp 0 +
STACK CFI 1ea2c .cfa: x29 32 +
STACK CFI 1ea40 .cfa: sp 32 +
STACK CFI 1ea48 .cfa: sp 0 +
STACK CFI INIT 1eac0 7c .cfa: sp 0 +
STACK CFI 1eac4 .cfa: sp 48 +
STACK CFI 1ead0 .cfa: x29 48 + x19: .cfa -8 + ^ x20: .cfa -16 + ^ x21: .cfa -32 + ^ .ra: .cfa -40 + ^ x29: .cfa -48 + ^
STACK CFI 1eb1c .cfa: sp 48 +
STACK CFI 1eb28 .cfa: sp 0 +
STACK CFI 1eb2c .cfa: sp 48 +
STACK CFI 1eb38 .cfa: sp 0 +
STACK CFI INIT 1eb3c 4 .cfa: sp 0 +
STACK CFI INIT 1ec94 34 .cfa: sp 0 +
STACK CFI 1ec98 .cfa: sp 16 +
STACK CFI 1ec9c .cfa: x29 16 + .ra: .cfa -8 + ^ x29: .cfa -16 + ^
STACK CFI INIT 1edfc 80 .cfa: sp 0 +
STACK CFI 1ee00 .cfa: sp 48 +
STACK CFI 1ee0c .cfa: x29 48 + x19: .cfa -8 + ^ x20: .cfa -16 + ^ x21: .cfa -32 + ^ .ra: .cfa -40 + ^ x29: .cfa -48 + ^
STACK CFI 1ee6c .cfa: sp 48 +
STACK CFI 1ee78 .cfa: sp 0 +
STACK CFI INIT 1ee7c 24 .cfa: sp 0 +
STACK CFI 1ee80 .cfa: sp 32 +
STACK CFI 1ee88 .cfa: x29 32 + x19: .cfa -16 + ^ .ra: .cfa -24 + ^ x29: .cfa -32 + ^
STACK CFI 1ee94 .cfa: sp 32 +
STACK CFI 1ee9c .cfa: sp 0 +
STACK CFI INIT 1f230 34 .cfa: sp 0 +
STACK CFI 1f234 .cfa: sp 32 +
STACK CFI 1f23c .cfa: x29 32 + x19: .cfa -16 + ^ .ra: .cfa -24 + ^ x29: .cfa -32 + ^
STACK CFI INIT 1f3d4 148 .cfa: sp 0 +
STACK CFI 1f3d8 .cfa: sp 48 +
STACK CFI 1f3e4 .cfa: x29 48 + x19: .cfa -8 + ^ x20: .cfa -16 + ^ x21: .cfa -32 + ^ .ra: .cfa -40 + ^ x29: .cfa -48 + ^
STACK CFI 1f50c .cfa: sp 48 +
STACK CFI 1f518 .cfa: sp 0 +
STACK CFI INIT 1f51c 88 .cfa: sp 0 +
STACK CFI 1f524 .cfa: sp 48 +
STACK CFI 1f530 .cfa: x29 48 + x19: .cfa -8 + ^ x20: .cfa -16 + ^ x21: .cfa -24 + ^ x22: .cfa -32 + ^ .ra: .cfa -40 + ^ x29: .cfa -48 + ^
STACK CFI 1f594 .cfa: sp 48 +
STACK CFI 1f5a0 .cfa: sp 0 +
STACK CFI INIT 1f5a4 94 .cfa: sp 0 +
STACK CFI 1f5a8 .cfa: sp 48 +
STACK CFI 1f5b4 .cfa: x29 48 + x19: .cfa -8 + ^ x20: .cfa -16 + ^ x21: .cfa -24 + ^ x22: .cfa -32 + ^ .ra: .cfa -40 + ^ x29: .cfa -48 + ^
STACK CFI 1f5cc .cfa: sp 48 +
STACK CFI 1f5d8 .cfa: sp 0 +
STACK CFI 1f5dc .cfa: x29 48 +
STACK CFI 1f620 .cfa: sp 48 +
STACK CFI 1f62c .cfa: sp 0 +
STACK CFI 1f630 .cfa: x29 48 +
STACK CFI INIT 1f638 68 .cfa: sp 0 +
STACK CFI 1f63c .cfa: sp 32 +
STACK CFI 1f644 .cfa: x29 32 + x19: .cfa -8 + ^ x20: .cfa -16 + ^ .ra: .cfa -24 + ^ x29: .cfa -32 + ^
STACK CFI 1f65c .cfa: sp 32 +
STACK CFI 1f664 .cfa: sp 0 +
STACK CFI 1f668 .cfa: x29 32 +
STACK CFI 1f694 .cfa: sp 32 +
STACK CFI 1f69c .cfa: sp 0 +
STACK CFI INIT 1f6a0 14 .cfa: sp 0 +
STACK CFI 1f6a4 .cfa: sp 16 +
STACK CFI 1f6a8 .cfa: x29 16 + .ra: .cfa -8 + ^ x29: .cfa -16 + ^
STACK CFI INIT 1f6b4 4 .cfa: sp 0 +
STACK CFI INIT 1f6b8 14 .cfa: sp 0 +
STACK CFI INIT 1f6cc 84 .cfa: sp 0 +
STACK CFI 1f6d4 .cfa: sp 32 +
STACK CFI 1f6dc .cfa: x29 32 + x19: .cfa -8 + ^ x20: .cfa -16 + ^ .ra: .cfa -24 + ^ x29: .cfa -32 + ^
STACK CFI 1f71c .cfa: sp 32 +
STACK CFI 1f724 .cfa: sp 0 +
STACK CFI 1f72c .cfa: x29 32 +
STACK CFI INIT 1f9f4 50 .cfa: sp 0 +
STACK CFI 1f9f8 .cfa: sp 32 +
STACK CFI 1fa00 .cfa: x29 32 + x19: .cfa -16 + ^ .ra: .cfa -24 + ^ x29: .cfa -32 + ^
STACK CFI 1fa18 .cfa: sp 32 +
STACK CFI 1fa20 .cfa: sp 0 +
STACK CFI 1fa24 .cfa: x29 32 +
STACK CFI 1fa38 .cfa: sp 32 +
STACK CFI 1fa40 .cfa: sp 0 +
STACK CFI INIT 1fa44 64 .cfa: sp 0 +
STACK CFI 1fa48 .cfa: sp 32 +
STACK CFI 1fa50 .cfa: x29 32 + x19: .cfa -16 + ^ .ra: .cfa -24 + ^ x29: .cfa -32 + ^
STACK CFI 1fa7c .cfa: sp 32 +
STACK CFI 1fa84 .cfa: sp 0 +
STACK CFI 1fa88 .cfa: x29 32 +
STACK CFI 1fa9c .cfa: sp 32 +
STACK CFI 1faa4 .cfa: sp 0 +
STACK CFI INIT 20294 1a8 .cfa: sp 0 +
STACK CFI INIT 2043c 3c .cfa: sp 0 +
STACK CFI 20440 .cfa: sp 32 +
STACK CFI 20448 .cfa: x29 32 + x19: .cfa -16 + ^ .ra: .cfa -24 + ^ x29: .cfa -32 + ^
STACK CFI 20454 .cfa: sp 32 +
STACK CFI 2045c .cfa: sp 0 +
STACK CFI 20460 .cfa: x29 32 +
STACK CFI 2046c .cfa: sp 32 +
STACK CFI 20474 .cfa: sp 0 +
STACK CFI INIT 20478 3c .cfa: sp 0 +
STACK CFI 2047c .cfa: sp 32 +
STACK CFI 20484 .cfa: x29 32 + x19: .cfa -16 + ^ .ra: .cfa -24 + ^ x29: .cfa -32 + ^
STACK CFI 20490 .cfa: sp 32 +
STACK CFI 20498 .cfa: sp 0 +
STACK CFI 2049c .cfa: x29 32 +
STACK CFI 204a8 .cfa: sp 32 +
STACK CFI 204b0 .cfa: sp 0 +
STACK CFI INIT 204b4 4c .cfa: sp 0 +
STACK CFI 204b8 .cfa: sp 32 +
STACK CFI 204c0 .cfa: x29 32 + x19: .cfa -8 + ^ x20: .cfa -16 + ^ .ra: .cfa -24 + ^ x29: .cfa -32 + ^
STACK CFI 204e8 .cfa: sp 32 +
STACK CFI 204f0 .cfa: sp 0 +
STACK CFI 204f4 .cfa: sp 32 +
STACK CFI 204fc .cfa: sp 0 +
STACK CFI INIT 20720 64 .cfa: sp 0 +
STACK CFI 20724 .cfa: sp 32 +
STACK CFI 2072c .cfa: x29 32 + x19: .cfa -16 + ^ .ra: .cfa -24 + ^ x29: .cfa -32 + ^
STACK CFI 20758 .cfa: sp 32 +
STACK CFI 20760 .cfa: sp 0 +
STACK CFI 20764 .cfa: x29 32 +
STACK CFI 20778 .cfa: sp 32 +
STACK CFI 20780 .cfa: sp 0 +
STACK CFI INIT 20784 24 .cfa: sp 0 +
STACK CFI 20788 .cfa: sp 32 +
STACK CFI 20790 .cfa: x29 32 + x19: .cfa -16 + ^ .ra: .cfa -24 + ^ x29: .cfa -32 + ^
STACK CFI 2079c .cfa: sp 32 +
STACK CFI 207a4 .cfa: sp 0 +
STACK CFI INIT 207a8 24 .cfa: sp 0 +
STACK CFI 207ac .cfa: sp 32 +
STACK CFI 207b4 .cfa: x29 32 + x19: .cfa -16 + ^ .ra: .cfa -24 + ^ x29: .cfa -32 + ^
STACK CFI 207c0 .cfa: sp 32 +
STACK CFI 207c8 .cfa: sp 0 +
STACK CFI INIT 207cc 8 .cfa: sp 0 +
STACK CFI INIT 207d4 24 .cfa: sp 0 +
STACK CFI 207d8 .cfa: sp 32 +
STACK CFI 207e0 .cfa: x29 32 + x19: .cfa -16 + ^ .ra: .cfa -24 + ^ x29: .cfa -32 + ^
STACK CFI 207ec .cfa: sp 32 +
STACK CFI 207f4 .cfa: sp 0 +
STACK CFI INIT 207f8 28 .cfa: sp 0 +
STACK CFI 207fc .cfa: sp 32 +
STACK CFI 20804 .cfa: x29 32 + x19: .cfa -16 + ^ .ra: .cfa -24 + ^ x29: .cfa -32 + ^
STACK CFI 20814 .cfa: sp 32 +
STACK CFI 2081c .cfa: sp 0 +
STACK CFI INIT 20af8 8 .cfa: sp 0 +
STACK CFI INIT 20b00 24 .cfa: sp 0 +
STACK CFI 20b04 .cfa: sp 32 +
STACK CFI 20b0c .cfa: x29 32 + x19: .cfa -16 + ^ .ra: .cfa -24 + ^ x29: .cfa -32 + ^
STACK CFI 20b18 .cfa: sp 32 +
STACK CFI 20b20 .cfa: sp 0 +
STACK CFI INIT 20b24 28 .cfa: sp 0 +
STACK CFI 20b28 .cfa: sp 32 +
STACK CFI 20b30 .cfa: x29 32 + x19: .cfa -16 + ^ .ra: .cfa -24 + ^ x29: .cfa -32 + ^
STACK CFI 20b40 .cfa: sp 32 +
STACK CFI 20b48 .cfa: sp 0 +
STACK CFI INIT 20d9c 8 .cfa: sp 0 +
STACK CFI INIT 20da4 24 .cfa: sp 0 +
STACK CFI 20da8 .cfa: sp 32 +
STACK CFI 20db0 .cfa: x29 32 + x19: .cfa -16 + ^ .ra: .cfa -24 + ^ x29: .cfa -32 + ^
STACK CFI 20dbc .cfa: sp 32 +
STACK CFI 20dc4 .cfa: sp 0 +
STACK CFI INIT 20dc8 28 .cfa: sp 0 +
STACK CFI 20dcc .cfa: sp 32 +
STACK CFI 20dd4 .cfa: x29 32 + x19: .cfa -16 + ^ .ra: .cfa -24 + ^ x29: .cfa -32 + ^
STACK CFI 20de4 .cfa: sp 32 +
STACK CFI 20dec .cfa: sp 0 +
STACK CFI INIT 20df0 9c .cfa: sp 0 +
STACK CFI 20df4 .cfa: sp 32 +
STACK CFI 20dfc .cfa: x29 32 + x19: .cfa -16 + ^ .ra: .cfa -24 + ^ x29: .cfa -32 + ^
STACK CFI 20e80 .cfa: sp 32 +
STACK CFI 20e88 .cfa: sp 0 +
STACK CFI INIT 20e8c 8 .cfa: sp 0 +
STACK CFI INIT 20e94 24 .cfa: sp 0 +
STACK CFI 20e98 .cfa: sp 32 +
STACK CFI 20ea0 .cfa: x29 32 + x19: .cfa -16 + ^ .ra: .cfa -24 + ^ x29: .cfa -32 + ^
STACK CFI 20eac .cfa: sp 32 +
STACK CFI 20eb4 .cfa: sp 0 +
STACK CFI INIT 20eb8 28 .cfa: sp 0 +
STACK CFI 20ebc .cfa: sp 32 +
STACK CFI 20ec4 .cfa: x29 32 + x19: .cfa -16 + ^ .ra: .cfa -24 + ^ x29: .cfa -32 + ^
STACK CFI 20ed4 .cfa: sp 32 +
STACK CFI 20edc .cfa: sp 0 +
STACK CFI INIT 212a8 28 .cfa: sp 0 +
STACK CFI INIT 212d0 20 .cfa: sp 0 +
STACK CFI INIT 212f0 14 .cfa: sp 0 +
STACK CFI INIT 21304 d4 .cfa: sp 0 +
STACK CFI 21308 .cfa: sp 80 +
STACK CFI 2131c .cfa: x29 40 + x19: .cfa -8 + ^ x20: .cfa -16 + ^ x21: .cfa -24 + ^ .ra: .cfa -32 + ^ x29: .cfa -40 + ^ v8: .cfa -48 + ^
STACK CFI 213bc .cfa: sp 80 +
STACK CFI 213d0 .cfa: sp 0 +
STACK CFI 213d4 .cfa: x29 40 +
STACK CFI INIT 213d8 4 .cfa: sp 0 +
STACK CFI INIT 213dc 14 .cfa: sp 0 +
STACK CFI INIT 213f0 14 .cfa: sp 0 +
STACK CFI INIT 21404 14 .cfa: sp 0 +
STACK CFI INIT 21418 14 .cfa: sp 0 +
STACK CFI INIT 2142c 14 .cfa: sp 0 +
STACK CFI INIT 21440 14 .cfa: sp 0 +
STACK CFI INIT 21454 14 .cfa: sp 0 +
STACK CFI INIT 21468 14 .cfa: sp 0 +
STACK CFI INIT 2147c 8 .cfa: sp 0 +
STACK CFI INIT 21484 14 .cfa: sp 0 +
STACK CFI INIT 21498 14 .cfa: sp 0 +
STACK CFI INIT 214ac 14 .cfa: sp 0 +
STACK CFI INIT 214c0 14 .cfa: sp 0 +
STACK CFI INIT 214d4 14 .cfa: sp 0 +
STACK CFI INIT 214e8 14 .cfa: sp 0 +
STACK CFI INIT 214fc 4 .cfa: sp 0 +
STACK CFI INIT 22740 4 .cfa: sp 0 +
STACK CFI INIT 22744 14 .cfa: sp 0 +
STACK CFI INIT 22c38 c .cfa: sp 0 +
STACK CFI INIT 22c44 24c .cfa: sp 0 +
STACK CFI INIT 22e90 a0 .cfa: sp 0 +
STACK CFI 22e9c .cfa: sp 32 +
STACK CFI 22ef4 .cfa: sp 0 +
STACK CFI 22ef8 .cfa: sp 32 +
STACK CFI 22f00 .cfa: sp 0 +
STACK CFI 22f04 .cfa: sp 32 +
STACK CFI 22f18 .cfa: sp 0 +
STACK CFI 22f1c .cfa: sp 32 +
STACK CFI 22f2c .cfa: sp 0 +
STACK CFI INIT 22f30 38 .cfa: sp 0 +
STACK CFI 22f3c .cfa: sp 32 +
STACK CFI 22f64 .cfa: sp 0 +
STACK CFI INIT 231fc 7c .cfa: sp 0 +
STACK CFI 23200 .cfa: sp 32 +
STACK CFI 23208 .cfa: x29 32 + x19: .cfa -16 + ^ .ra: .cfa -24 + ^ x29: .cfa -32 + ^
STACK CFI 23234 .cfa: sp 32 +
STACK CFI 2323c .cfa: sp 0 +
STACK CFI 23240 .cfa: x29 32 +
STACK CFI 2326c .cfa: sp 32 +
STACK CFI 23274 .cfa: sp 0 +
STACK CFI INIT 232c8 2c .cfa: sp 0 +
STACK CFI 232cc .cfa: sp 32 +
STACK CFI 232d4 .cfa: x29 32 + x19: .cfa -16 + ^ .ra: .cfa -24 + ^ x29: .cfa -32 + ^
STACK CFI 232e8 .cfa: sp 32 +
STACK CFI 232f0 .cfa: sp 0 +
STACK CFI INIT 23ab4 64 .cfa: sp 0 +
STACK CFI 23ab8 .cfa: sp 32 +
STACK CFI 23ac0 .cfa: x29 32 + x19: .cfa -16 + ^ .ra: .cfa -24 + ^ x29: .cfa -32 + ^
STACK CFI 23adc .cfa: sp 32 +
STACK CFI 23ae4 .cfa: sp 0 +
STACK CFI 23ae8 .cfa: x29 32 +
STACK CFI 23b0c .cfa: sp 32 +
STACK CFI 23b14 .cfa: sp 0 +
STACK CFI INIT 23c64 570 .cfa: sp 0 +
STACK CFI 23c68 .cfa: sp 176 +
STACK CFI 23c7c .cfa: x29 64 + x19: .cfa -8 + ^ x20: .cfa -16 + ^ x21: .cfa -24 + ^ x22: .cfa -32 + ^ x23: .cfa -40 + ^ x24: .cfa -48 + ^ .ra: .cfa -56 + ^ x29: .cfa -64 + ^
STACK CFI 23eac .cfa: sp 176 +
STACK CFI 23ec0 .cfa: sp 0 +
STACK CFI 23ec4 .cfa: x29 64 +
STACK CFI 23f10 .cfa: sp 176 +
STACK CFI 23f24 .cfa: sp 0 +
STACK CFI 23f28 .cfa: x29 64 +
STACK CFI 23f60 .cfa: sp 176 +
STACK CFI 23f74 .cfa: sp 0 +
STACK CFI 23f78 .cfa: x29 64 +
STACK CFI 23f90 .cfa: sp 176 +
STACK CFI 23fa4 .cfa: sp 0 +
STACK CFI 23fa8 .cfa: x29 64 +
STACK CFI 23fc8 .cfa: sp 176 +
STACK CFI 23fdc .cfa: sp 0 +
STACK CFI 23fe0 .cfa: x29 64 +
STACK CFI 23ff8 .cfa: sp 176 +
STACK CFI 2400c .cfa: sp 0 +
STACK CFI 24010 .cfa: x29 64 +
STACK CFI 24024 .cfa: sp 176 +
STACK CFI 24038 .cfa: sp 0 +
STACK CFI 2403c .cfa: x29 64 +
STACK CFI 24050 .cfa: sp 176 +
STACK CFI 24064 .cfa: sp 0 +
STACK CFI 24068 .cfa: x29 64 +
STACK CFI 24078 .cfa: sp 176 +
STACK CFI 2408c .cfa: sp 0 +
STACK CFI 24090 .cfa: x29 64 +
STACK CFI 240a0 .cfa: sp 176 +
STACK CFI 240b4 .cfa: sp 0 +
STACK CFI 240b8 .cfa: x29 64 +
STACK CFI 240d0 .cfa: sp 176 +
STACK CFI 240e4 .cfa: sp 0 +
STACK CFI 240e8 .cfa: x29 64 +
STACK CFI 240fc .cfa: sp 176 +
STACK CFI 24110 .cfa: sp 0 +
STACK CFI 24114 .cfa: x29 64 +
STACK CFI 2412c .cfa: sp 176 +
STACK CFI 24140 .cfa: sp 0 +
STACK CFI 24144 .cfa: x29 64 +
STACK CFI 24170 .cfa: sp 176 +
STACK CFI 24184 .cfa: sp 0 +
STACK CFI 24188 .cfa: x29 64 +
STACK CFI 2419c .cfa: sp 176 +
STACK CFI 241b0 .cfa: sp 0 +
STACK CFI 241b4 .cfa: x29 64 +
STACK CFI INIT 241d4 228 .cfa: sp 0 +
STACK CFI INIT 243fc 2dc .cfa: sp 0 +
STACK CFI INIT 246d8 53c .cfa: sp 0 +
STACK CFI INIT 24c14 78 .cfa: sp 0 +
STACK CFI 24c18 .cfa: sp 48 +
STACK CFI 24c24 .cfa: x29 48 + x19: .cfa -8 + ^ x20: .cfa -16 + ^ x21: .cfa -24 + ^ x22: .cfa -32 + ^ .ra: .cfa -40 + ^ x29: .cfa -48 + ^
STACK CFI 24c6c .cfa: sp 48 +
STACK CFI 24c78 .cfa: sp 0 +
STACK CFI 24c7c .cfa: sp 48 +
STACK CFI 24c88 .cfa: sp 0 +
STACK CFI INIT 24c8c 8c .cfa: sp 0 +
STACK CFI 24c90 .cfa: sp 32 +
STACK CFI 24c98 .cfa: x29 32 + x19: .cfa -16 + ^ .ra: .cfa -24 + ^ x29: .cfa -32 + ^
STACK CFI 24ccc .cfa: sp 32 +
STACK CFI 24cd4 .cfa: sp 0 +
STACK CFI 24cd8 .cfa: x29 32 +
STACK CFI 24d0c .cfa: sp 32 +
STACK CFI 24d14 .cfa: sp 0 +
STACK CFI INIT 24d18 24 .cfa: sp 0 +
STACK CFI 24d1c .cfa: sp 32 +
STACK CFI 24d24 .cfa: x29 32 + x19: .cfa -16 + ^ .ra: .cfa -24 + ^ x29: .cfa -32 + ^
STACK CFI 24d30 .cfa: sp 32 +
STACK CFI 24d38 .cfa: sp 0 +
STACK CFI INIT 24d3c 150 .cfa: sp 0 +
STACK CFI 24d40 .cfa: sp 48 +
STACK CFI 24d4c .cfa: x29 48 + x19: .cfa -8 + ^ x20: .cfa -16 + ^ x21: .cfa -24 + ^ x22: .cfa -32 + ^ .ra: .cfa -40 + ^ x29: .cfa -48 + ^
STACK CFI 24e7c .cfa: sp 48 +
STACK CFI 24e88 .cfa: sp 0 +
STACK CFI INIT 24e8c 68 .cfa: sp 0 +
STACK CFI 24e90 .cfa: sp 64 +
STACK CFI 24e9c .cfa: x29 32 + x19: .cfa -16 + ^ .ra: .cfa -24 + ^ x29: .cfa -32 + ^
STACK CFI 24ee0 .cfa: sp 64 +
STACK CFI 24eec .cfa: sp 0 +
STACK CFI 24ef0 .cfa: x29 32 +
STACK CFI INIT 24ef4 90 .cfa: sp 0 +
STACK CFI 24ef8 .cfa: sp 32 +
STACK CFI 24f00 .cfa: x29 32 + x19: .cfa -8 + ^ x20: .cfa -16 + ^ .ra: .cfa -24 + ^ x29: .cfa -32 + ^
STACK CFI 24f2c .cfa: sp 32 +
STACK CFI 24f34 .cfa: sp 0 +
STACK CFI 24f38 .cfa: x29 32 +
STACK CFI 24f78 .cfa: sp 32 +
STACK CFI 24f80 .cfa: sp 0 +
STACK CFI INIT 24f84 ec .cfa: sp 0 +
STACK CFI 24f88 .cfa: sp 112 +
STACK CFI 24f98 .cfa: x29 48 + x19: .cfa -8 + ^ x20: .cfa -16 + ^ x21: .cfa -32 + ^ .ra: .cfa -40 + ^ x29: .cfa -48 + ^
STACK CFI 25058 .cfa: sp 112 +
STACK CFI 25068 .cfa: sp 0 +
STACK CFI 2506c .cfa: x29 48 +
STACK CFI INIT 25070 ec .cfa: sp 0 +
STACK CFI 25074 .cfa: sp 112 +
STACK CFI 25084 .cfa: x29 48 + x19: .cfa -8 + ^ x20: .cfa -16 + ^ x21: .cfa -32 + ^ .ra: .cfa -40 + ^ x29: .cfa -48 + ^
STACK CFI 25144 .cfa: sp 112 +
STACK CFI 25154 .cfa: sp 0 +
STACK CFI 25158 .cfa: x29 48 +
STACK CFI INIT 2515c 48 .cfa: sp 0 +
STACK CFI 25160 .cfa: sp 32 +
STACK CFI 25168 .cfa: x29 32 + x19: .cfa -8 + ^ x20: .cfa -16 + ^ .ra: .cfa -24 + ^ x29: .cfa -32 + ^
STACK CFI 2518c .cfa: sp 32 +
STACK CFI 25194 .cfa: sp 0 +
STACK CFI 25198 .cfa: x29 32 +
STACK CFI INIT 251a4 98 .cfa: sp 0 +
STACK CFI 251a8 .cfa: sp 80 +
STACK CFI 251b4 .cfa: x29 32 + x19: .cfa -16 + ^ .ra: .cfa -24 + ^ x29: .cfa -32 + ^
STACK CFI 25228 .cfa: sp 80 +
STACK CFI 25234 .cfa: sp 0 +
STACK CFI 25238 .cfa: x29 32 +
STACK CFI INIT 2523c 260 .cfa: sp 0 +
STACK CFI 25240 .cfa: sp 112 +
STACK CFI 25258 .cfa: x29 80 + x19: .cfa -8 + ^ x20: .cfa -16 + ^ x21: .cfa -24 + ^ x22: .cfa -32 + ^ x23: .cfa -40 + ^ x24: .cfa -48 + ^ x25: .cfa -64 + ^ .ra: .cfa -72 + ^ x29: .cfa -80 + ^
STACK CFI 2543c .cfa: sp 112 +
STACK CFI 25454 .cfa: sp 0 +
STACK CFI 25458 .cfa: x29 80 +
STACK CFI INIT 2549c 150 .cfa: sp 0 +
STACK CFI 254a0 .cfa: sp 48 +
STACK CFI 254ac .cfa: x29 48 + x19: .cfa -8 + ^ x20: .cfa -16 + ^ x21: .cfa -24 + ^ x22: .cfa -32 + ^ .ra: .cfa -40 + ^ x29: .cfa -48 + ^
STACK CFI 255dc .cfa: sp 48 +
STACK CFI 255e8 .cfa: sp 0 +
STACK CFI INIT 255ec 1e0 .cfa: sp 0 +
STACK CFI 255f0 .cfa: sp 96 +
STACK CFI 25604 .cfa: x29 64 + x19: .cfa -8 + ^ x20: .cfa -16 + ^ x21: .cfa -24 + ^ x22: .cfa -32 + ^ x23: .cfa -40 + ^ x24: .cfa -48 + ^ .ra: .cfa -56 + ^ x29: .cfa -64 + ^
STACK CFI 25784 .cfa: sp 96 +
STACK CFI 25798 .cfa: sp 0 +
STACK CFI 2579c .cfa: x29 64 +
STACK CFI INIT 257cc 284 .cfa: sp 0 +
STACK CFI 257d0 .cfa: sp 112 +
STACK CFI 257e8 .cfa: x29 80 + x19: .cfa -8 + ^ x20: .cfa -16 + ^ x21: .cfa -24 + ^ x22: .cfa -32 + ^ x23: .cfa -40 + ^ x24: .cfa -48 + ^ x25: .cfa -64 + ^ .ra: .cfa -72 + ^ x29: .cfa -80 + ^
STACK CFI 259f0 .cfa: sp 112 +
STACK CFI 25a08 .cfa: sp 0 +
STACK CFI 25a0c .cfa: x29 80 +
STACK CFI INIT 25a50 208 .cfa: sp 0 +
STACK CFI 25a54 .cfa: sp 96 +
STACK CFI 25a68 .cfa: x29 64 + x19: .cfa -8 + ^ x20: .cfa -16 + ^ x21: .cfa -24 + ^ x22: .cfa -32 + ^ x23: .cfa -40 + ^ x24: .cfa -48 + ^ .ra: .cfa -56 + ^ x29: .cfa -64 + ^
STACK CFI 25c10 .cfa: sp 96 +
STACK CFI 25c24 .cfa: sp 0 +
STACK CFI 25c28 .cfa: x29 64 +
STACK CFI INIT 25c58 360 .cfa: sp 0 +
STACK CFI 25c5c .cfa: sp 160 +
STACK CFI 25c78 .cfa: x29 96 + x19: .cfa -8 + ^ x20: .cfa -16 + ^ x21: .cfa -24 + ^ x22: .cfa -32 + ^ x23: .cfa -40 + ^ x24: .cfa -48 + ^ x25: .cfa -56 + ^ x26: .cfa -64 + ^ x27: .cfa -72 + ^ x28: .cfa -80 + ^ .ra: .cfa -88 + ^ x29: .cfa -96 + ^
STACK CFI 25f44 .cfa: sp 160 +
STACK CFI 25f60 .cfa: sp 0 +
STACK CFI 25f64 .cfa: x29 96 +
STACK CFI INIT 25fb8 314 .cfa: sp 0 +
STACK CFI 25fbc .cfa: sp 144 +
STACK CFI 25fd8 .cfa: x29 96 + x19: .cfa -8 + ^ x20: .cfa -16 + ^ x21: .cfa -24 + ^ x22: .cfa -32 + ^ x23: .cfa -40 + ^ x24: .cfa -48 + ^ x25: .cfa -56 + ^ x26: .cfa -64 + ^ x27: .cfa -72 + ^ x28: .cfa -80 + ^ .ra: .cfa -88 + ^ x29: .cfa -96 + ^
STACK CFI 26254 .cfa: sp 144 +
STACK CFI 26270 .cfa: sp 0 +
STACK CFI 26274 .cfa: x29 96 +
STACK CFI INIT 262cc 290 .cfa: sp 0 +
STACK CFI 262d0 .cfa: sp 128 +
STACK CFI 262e8 .cfa: x29 80 + x19: .cfa -8 + ^ x20: .cfa -16 + ^ x21: .cfa -24 + ^ x22: .cfa -32 + ^ x23: .cfa -40 + ^ x24: .cfa -48 + ^ x25: .cfa -56 + ^ x26: .cfa -64 + ^ .ra: .cfa -72 + ^ x29: .cfa -80 + ^
STACK CFI 2653c .cfa: sp 128 +
STACK CFI 26554 .cfa: sp 0 +
STACK CFI 26558 .cfa: x29 80 +
STACK CFI INIT 2655c dc8 .cfa: sp 0 +
STACK CFI 26560 .cfa: sp 144 +
STACK CFI 2657c .cfa: x29 96 + x19: .cfa -8 + ^ x20: .cfa -16 + ^ x21: .cfa -24 + ^ x22: .cfa -32 + ^ x23: .cfa -40 + ^ x24: .cfa -48 + ^ x25: .cfa -56 + ^ x26: .cfa -64 + ^ x27: .cfa -72 + ^ x28: .cfa -80 + ^ .ra: .cfa -88 + ^ x29: .cfa -96 + ^
STACK CFI 271fc .cfa: sp 144 +
STACK CFI 27218 .cfa: sp 0 +
STACK CFI 2721c .cfa: x29 96 +
STACK CFI INIT 27324 1d0 .cfa: sp 0 +
STACK CFI 27328 .cfa: sp 80 +
STACK CFI 2733c .cfa: x29 80 + x19: .cfa -8 + ^ x20: .cfa -16 + ^ x21: .cfa -24 + ^ x22: .cfa -32 + ^ x23: .cfa -40 + ^ x24: .cfa -48 + ^ x25: .cfa -64 + ^ .ra: .cfa -72 + ^ x29: .cfa -80 + ^
STACK CFI 274dc .cfa: sp 80 +
STACK CFI 274f0 .cfa: sp 0 +
STACK CFI INIT 274f4 23c .cfa: sp 0 +
STACK CFI 274f8 .cfa: sp 112 +
STACK CFI 2750c .cfa: x29 64 + x19: .cfa -8 + ^ x20: .cfa -16 + ^ x21: .cfa -24 + ^ x22: .cfa -32 + ^ x23: .cfa -40 + ^ x24: .cfa -48 + ^ .ra: .cfa -56 + ^ x29: .cfa -64 + ^
STACK CFI 276e8 .cfa: sp 112 +
STACK CFI 276fc .cfa: sp 0 +
STACK CFI 27700 .cfa: x29 64 +
STACK CFI INIT 27730 30c .cfa: sp 0 +
STACK CFI 27734 .cfa: sp 80 +
STACK CFI 27748 .cfa: x29 64 + x19: .cfa -8 + ^ x20: .cfa -16 + ^ x21: .cfa -24 + ^ x22: .cfa -32 + ^ x23: .cfa -40 + ^ x24: .cfa -48 + ^ .ra: .cfa -56 + ^ x29: .cfa -64 + ^
STACK CFI 278c4 .cfa: sp 80 +
STACK CFI 278d8 .cfa: sp 0 +
STACK CFI 278dc .cfa: x29 64 +
STACK CFI INIT 27a3c 178 .cfa: sp 0 +
STACK CFI 27a40 .cfa: sp 80 +
STACK CFI 27a54 .cfa: x29 64 + x19: .cfa -8 + ^ x20: .cfa -16 + ^ x21: .cfa -24 + ^ x22: .cfa -32 + ^ x23: .cfa -40 + ^ x24: .cfa -48 + ^ .ra: .cfa -56 + ^ x29: .cfa -64 + ^
STACK CFI 27b98 .cfa: sp 80 +
STACK CFI 27bac .cfa: sp 0 +
STACK CFI 27bb0 .cfa: x29 64 +
STACK CFI INIT 27bb4 178 .cfa: sp 0 +
STACK CFI 27bb8 .cfa: sp 80 +
STACK CFI 27bcc .cfa: x29 64 + x19: .cfa -8 + ^ x20: .cfa -16 + ^ x21: .cfa -24 + ^ x22: .cfa -32 + ^ x23: .cfa -40 + ^ x24: .cfa -48 + ^ .ra: .cfa -56 + ^ x29: .cfa -64 + ^
STACK CFI 27d10 .cfa: sp 80 +
STACK CFI 27d24 .cfa: sp 0 +
STACK CFI 27d28 .cfa: x29 64 +
STACK CFI INIT 27d2c 240 .cfa: sp 0 +
STACK CFI 27d30 .cfa: sp 96 +
STACK CFI 27d48 .cfa: x29 96 + x19: .cfa -8 + ^ x20: .cfa -16 + ^ x21: .cfa -24 + ^ x22: .cfa -32 + ^ x23: .cfa -40 + ^ x24: .cfa -48 + ^ x25: .cfa -56 + ^ x26: .cfa -64 + ^ x27: .cfa -72 + ^ x28: .cfa -80 + ^ .ra: .cfa -88 + ^ x29: .cfa -96 + ^
STACK CFI 27f50 .cfa: sp 96 +
STACK CFI 27f68 .cfa: sp 0 +
STACK CFI INIT 28be0 154 .cfa: sp 0 +
STACK CFI 28be4 .cfa: sp 96 +
STACK CFI 28bf8 .cfa: x29 64 + x19: .cfa -8 + ^ x20: .cfa -16 + ^ x21: .cfa -24 + ^ x22: .cfa -32 + ^ x23: .cfa -48 + ^ .ra: .cfa -56 + ^ x29: .cfa -64 + ^
STACK CFI 28cd8 .cfa: sp 96 +
STACK CFI 28cec .cfa: sp 0 +
STACK CFI 28cf0 .cfa: x29 64 +
STACK CFI INIT 28f9c 44 .cfa: sp 0 +
STACK CFI 28fa0 .cfa: sp 32 +
STACK CFI 28fa8 .cfa: x29 32 + x19: .cfa -16 + ^ .ra: .cfa -24 + ^ x29: .cfa -32 + ^
STACK CFI 28fc4 .cfa: sp 32 +
STACK CFI 28fcc .cfa: sp 0 +
STACK CFI 28fd0 .cfa: x29 32 +
STACK CFI 28fd4 .cfa: sp 32 +
STACK CFI 28fdc .cfa: sp 0 +
STACK CFI INIT 28fe0 1d0 .cfa: sp 0 +
STACK CFI 28fe4 .cfa: sp 64 +
STACK CFI 28ff4 .cfa: x29 64 + x19: .cfa -8 + ^ x20: .cfa -16 + ^ x21: .cfa -24 + ^ x22: .cfa -32 + ^ x23: .cfa -40 + ^ x24: .cfa -48 + ^ .ra: .cfa -56 + ^ x29: .cfa -64 + ^
STACK CFI 290b4 .cfa: sp 64 +
STACK CFI 290c4 .cfa: sp 0 +
STACK CFI 290c8 .cfa: x29 64 +
STACK CFI INIT 291b0 17c .cfa: sp 0 +
STACK CFI INIT 2932c ac .cfa: sp 0 +
STACK CFI 29330 .cfa: sp 64 +
STACK CFI 29340 .cfa: x29 64 + x19: .cfa -8 + ^ x20: .cfa -16 + ^ x21: .cfa -24 + ^ x22: .cfa -32 + ^ x23: .cfa -48 + ^ .ra: .cfa -56 + ^ x29: .cfa -64 + ^
STACK CFI 293bc .cfa: sp 64 +
STACK CFI 293cc .cfa: sp 0 +
STACK CFI 293d0 .cfa: x29 64 +
STACK CFI INIT 293d8 13c .cfa: sp 0 +
STACK CFI 293dc .cfa: sp 64 +
STACK CFI 293ec .cfa: x29 64 + x19: .cfa -8 + ^ x20: .cfa -16 + ^ x21: .cfa -24 + ^ x22: .cfa -32 + ^ x23: .cfa -40 + ^ x24: .cfa -48 + ^ .ra: .cfa -56 + ^ x29: .cfa -64 + ^
STACK CFI 294cc .cfa: sp 64 +
STACK CFI 294dc .cfa: sp 0 +
STACK CFI 294e0 .cfa: x29 64 +
STACK CFI INIT 298cc a0 .cfa: sp 0 +
STACK CFI 298d0 .cfa: sp 48 +
STACK CFI 298dc .cfa: x29 48 + x19: .cfa -8 + ^ x20: .cfa -16 + ^ x21: .cfa -24 + ^ x22: .cfa -32 + ^ .ra: .cfa -40 + ^ x29: .cfa -48 + ^
STACK CFI 29948 .cfa: sp 48 +
STACK CFI 29954 .cfa: sp 0 +
STACK CFI 29958 .cfa: sp 48 +
STACK CFI 29964 .cfa: sp 0 +
STACK CFI 29968 .cfa: x29 48 +
STACK CFI INIT 2a61c 158 .cfa: sp 0 +
STACK CFI 2a620 .cfa: sp 96 +
STACK CFI 2a634 .cfa: x29 64 + x19: .cfa -8 + ^ x20: .cfa -16 + ^ x21: .cfa -24 + ^ x22: .cfa -32 + ^ x23: .cfa -48 + ^ .ra: .cfa -56 + ^ x29: .cfa -64 + ^
STACK CFI 2a718 .cfa: sp 96 +
STACK CFI 2a72c .cfa: sp 0 +
STACK CFI 2a730 .cfa: x29 64 +
STACK CFI INIT 2a774 190 .cfa: sp 0 +
STACK CFI INIT 2b3e8 1dc .cfa: sp 0 +
STACK CFI 2b3ec .cfa: sp 80 +
STACK CFI 2b400 .cfa: x29 80 + x19: .cfa -8 + ^ x20: .cfa -16 + ^ x21: .cfa -24 + ^ x22: .cfa -32 + ^ x23: .cfa -40 + ^ x24: .cfa -48 + ^ x25: .cfa -64 + ^ .ra: .cfa -72 + ^ x29: .cfa -80 + ^
STACK CFI 2b5ac .cfa: sp 80 +
STACK CFI 2b5c0 .cfa: sp 0 +
STACK CFI INIT 2c9e8 124 .cfa: sp 0 +
STACK CFI 2ca18 .cfa: sp 32 +
STACK CFI 2ca20 .cfa: x29 32 + x19: .cfa -8 + ^ x20: .cfa -16 + ^ .ra: .cfa -24 + ^ x29: .cfa -32 + ^
STACK CFI 2cb00 .cfa: sp 32 +
STACK CFI 2cb08 .cfa: sp 0 +
STACK CFI INIT 2d268 324 .cfa: sp 0 +
STACK CFI 2d26c .cfa: sp 64 +
STACK CFI 2d27c .cfa: x29 64 + x19: .cfa -8 + ^ x20: .cfa -16 + ^ x21: .cfa -24 + ^ x22: .cfa -32 + ^ x23: .cfa -40 + ^ x24: .cfa -48 + ^ .ra: .cfa -56 + ^ x29: .cfa -64 + ^
STACK CFI 2d2f8 .cfa: sp 64 +
STACK CFI 2d308 .cfa: sp 0 +
STACK CFI 2d30c .cfa: x29 64 +
STACK CFI 2d4e4 .cfa: sp 64 +
STACK CFI 2d4f4 .cfa: sp 0 +
STACK CFI 2d4f8 .cfa: x29 64 +
STACK CFI 2d508 .cfa: sp 64 +
STACK CFI 2d518 .cfa: sp 0 +
STACK CFI 2d51c .cfa: x29 64 +
STACK CFI INIT 2d58c a0 .cfa: sp 0 +
STACK CFI 2d590 .cfa: sp 48 +
STACK CFI 2d59c .cfa: x29 48 + x19: .cfa -8 + ^ x20: .cfa -16 + ^ x21: .cfa -24 + ^ x22: .cfa -32 + ^ .ra: .cfa -40 + ^ x29: .cfa -48 + ^
STACK CFI 2d608 .cfa: sp 48 +
STACK CFI 2d614 .cfa: sp 0 +
STACK CFI 2d618 .cfa: sp 48 +
STACK CFI 2d624 .cfa: sp 0 +
STACK CFI 2d628 .cfa: x29 48 +
STACK CFI INIT 2e4d8 160 .cfa: sp 0 +
STACK CFI 2e4dc .cfa: sp 64 +
STACK CFI 2e4ec .cfa: x29 64 + x19: .cfa -8 + ^ x20: .cfa -16 + ^ x21: .cfa -24 + ^ x22: .cfa -32 + ^ x23: .cfa -48 + ^ .ra: .cfa -56 + ^ x29: .cfa -64 + ^
STACK CFI 2e5e4 .cfa: sp 64 +
STACK CFI 2e5f4 .cfa: sp 0 +
STACK CFI 2e5f8 .cfa: x29 64 +
STACK CFI INIT 2e638 214 .cfa: sp 0 +
STACK CFI 2e63c .cfa: sp 128 +
STACK CFI 2e658 .cfa: x29 96 + x19: .cfa -8 + ^ x20: .cfa -16 + ^ x21: .cfa -24 + ^ x22: .cfa -32 + ^ x23: .cfa -40 + ^ x24: .cfa -48 + ^ x25: .cfa -56 + ^ x26: .cfa -64 + ^ x27: .cfa -80 + ^ .ra: .cfa -88 + ^ x29: .cfa -96 + ^
STACK CFI 2e7d4 .cfa: sp 128 +
STACK CFI 2e7f0 .cfa: sp 0 +
STACK CFI 2e7f4 .cfa: x29 96 +
STACK CFI INIT 304b0 290 .cfa: sp 0 +
STACK CFI 304b4 .cfa: sp 16 +
STACK CFI 304b8 .cfa: x29 16 + .ra: .cfa -8 + ^ x29: .cfa -16 + ^
STACK CFI 30544 .cfa: sp 16 +
STACK CFI 30548 .cfa: sp 0 +
STACK CFI 3054c .cfa: x29 16 +
STACK CFI 3059c .cfa: sp 16 +
STACK CFI 305a0 .cfa: sp 0 +
STACK CFI 305a4 .cfa: x29 16 +
STACK CFI 30708 .cfa: sp 16 +
STACK CFI 3070c .cfa: sp 0 +
STACK CFI 30710 .cfa: x29 16 +
STACK CFI INIT 30740 134 .cfa: sp 0 +
STACK CFI 30744 .cfa: sp 96 +
STACK CFI 3075c .cfa: x29 96 + x19: .cfa -8 + ^ x20: .cfa -16 + ^ x21: .cfa -24 + ^ x22: .cfa -32 + ^ x23: .cfa -40 + ^ x24: .cfa -48 + ^ x25: .cfa -56 + ^ x26: .cfa -64 + ^ x27: .cfa -72 + ^ x28: .cfa -80 + ^ .ra: .cfa -88 + ^ x29: .cfa -96 + ^
STACK CFI 3082c .cfa: sp 96 +
STACK CFI 30830 .cfa: x29 96 +
STACK CFI 30834 .cfa: sp 96 +
STACK CFI 3084c .cfa: sp 0 +
STACK CFI 30850 .cfa: x29 96 +
STACK CFI 30870 .cfa: sp 96 +
STACK CFI INIT 30874 e4c .cfa: sp 0 +
STACK CFI 30878 .cfa: sp 192 +
STACK CFI 30894 .cfa: x29 96 + x19: .cfa -8 + ^ x20: .cfa -16 + ^ x21: .cfa -24 + ^ x22: .cfa -32 + ^ x23: .cfa -40 + ^ x24: .cfa -48 + ^ x25: .cfa -56 + ^ x26: .cfa -64 + ^ x27: .cfa -72 + ^ x28: .cfa -80 + ^ .ra: .cfa -88 + ^ x29: .cfa -96 + ^
STACK CFI 315a8 .cfa: sp 192 +
STACK CFI 315c4 .cfa: sp 0 +
STACK CFI 315c8 .cfa: x29 96 +
STACK CFI INIT 316c0 1068 .cfa: sp 0 +
STACK CFI 316c4 .cfa: sp 288 +
STACK CFI 316e0 .cfa: x29 96 + x19: .cfa -8 + ^ x20: .cfa -16 + ^ x21: .cfa -24 + ^ x22: .cfa -32 + ^ x23: .cfa -40 + ^ x24: .cfa -48 + ^ x25: .cfa -56 + ^ x26: .cfa -64 + ^ x27: .cfa -72 + ^ x28: .cfa -80 + ^ .ra: .cfa -88 + ^ x29: .cfa -96 + ^
STACK CFI 32470 .cfa: sp 288 +
STACK CFI 3248c .cfa: sp 0 +
STACK CFI 32490 .cfa: x29 96 +
STACK CFI INIT 32728 520 .cfa: sp 0 +
STACK CFI 3272c .cfa: sp 144 +
STACK CFI 32748 .cfa: x29 96 + x19: .cfa -8 + ^ x20: .cfa -16 + ^ x21: .cfa -24 + ^ x22: .cfa -32 + ^ x23: .cfa -40 + ^ x24: .cfa -48 + ^ x25: .cfa -56 + ^ x26: .cfa -64 + ^ x27: .cfa -72 + ^ x28: .cfa -80 + ^ .ra: .cfa -88 + ^ x29: .cfa -96 + ^
STACK CFI 32c24 .cfa: sp 144 +
STACK CFI 32c40 .cfa: sp 0 +
STACK CFI 32c44 .cfa: x29 96 +
STACK CFI INIT 33694 12dc .cfa: sp 0 +
STACK CFI 33698 .cfa: sp 208 +
STACK CFI 336b4 .cfa: x29 96 + x19: .cfa -8 + ^ x20: .cfa -16 + ^ x21: .cfa -24 + ^ x22: .cfa -32 + ^ x23: .cfa -40 + ^ x24: .cfa -48 + ^ x25: .cfa -56 + ^ x26: .cfa -64 + ^ x27: .cfa -72 + ^ x28: .cfa -80 + ^ .ra: .cfa -88 + ^ x29: .cfa -96 + ^
STACK CFI 3494c .cfa: sp 208 +
STACK CFI 34968 .cfa: sp 0 +
STACK CFI 3496c .cfa: x29 96 +
STACK CFI INIT 34970 1b8 .cfa: sp 0 +
STACK CFI INIT 1ae30 1a0 .cfa: sp 0 +
STACK CFI 1ae34 .cfa: sp 80 +
STACK CFI 1ae44 .cfa: x29 48 + x19: .cfa -8 + ^ x20: .cfa -16 + ^ x21: .cfa -32 + ^ .ra: .cfa -40 + ^ x29: .cfa -48 + ^
STACK CFI 1af90 .cfa: sp 80 +
STACK CFI 1afa0 .cfa: sp 0 +
STACK CFI 1afa4 .cfa: x29 48 +
STACK CFI INIT 1afd0 3a8 .cfa: sp 0 +
STACK CFI 1afd4 .cfa: sp 208 +
STACK CFI 1aff0 .cfa: x29 96 + x19: .cfa -8 + ^ x20: .cfa -16 + ^ x21: .cfa -24 + ^ x22: .cfa -32 + ^ x23: .cfa -40 + ^ x24: .cfa -48 + ^ x25: .cfa -56 + ^ x26: .cfa -64 + ^ x27: .cfa -72 + ^ x28: .cfa -80 + ^ .ra: .cfa -88 + ^ x29: .cfa -96 + ^
STACK CFI 1b220 .cfa: sp 208 +
STACK CFI 1b23c .cfa: sp 0 +
STACK CFI 1b240 .cfa: x29 96 +
STACK CFI INIT 1b378 3b8 .cfa: sp 0 +
STACK CFI 1b37c .cfa: sp 208 +
STACK CFI 1b394 .cfa: x29 80 + x19: .cfa -8 + ^ x20: .cfa -16 + ^ x21: .cfa -24 + ^ x22: .cfa -32 + ^ x23: .cfa -40 + ^ x24: .cfa -48 + ^ x25: .cfa -56 + ^ x26: .cfa -64 + ^ .ra: .cfa -72 + ^ x29: .cfa -80 + ^
STACK CFI 1b4b0 .cfa: sp 208 +
STACK CFI 1b4c8 .cfa: sp 0 +
STACK CFI 1b4cc .cfa: x29 80 +
STACK CFI 1b640 .cfa: sp 208 +
STACK CFI 1b658 .cfa: sp 0 +
STACK CFI 1b65c .cfa: x29 80 +
STACK CFI INIT 1b730 17c .cfa: sp 0 +
STACK CFI 1b734 .cfa: sp 96 +
STACK CFI 1b748 .cfa: x29 64 + x19: .cfa -8 + ^ x20: .cfa -16 + ^ x21: .cfa -24 + ^ x22: .cfa -32 + ^ x23: .cfa -40 + ^ x24: .cfa -48 + ^ .ra: .cfa -56 + ^ x29: .cfa -64 + ^
STACK CFI 1b84c .cfa: sp 96 +
STACK CFI 1b860 .cfa: sp 0 +
STACK CFI 1b864 .cfa: x29 64 +
STACK CFI INIT 1b8ac 8c .cfa: sp 0 +
STACK CFI 1b8b0 .cfa: sp 32 +
STACK CFI 1b8b8 .cfa: x29 32 + x19: .cfa -8 + ^ x20: .cfa -16 + ^ .ra: .cfa -24 + ^ x29: .cfa -32 + ^
STACK CFI 1b928 .cfa: sp 32 +
STACK CFI 1b930 .cfa: sp 0 +
STACK CFI 1b934 .cfa: x29 32 +
STACK CFI INIT 1b938 98 .cfa: sp 0 +
STACK CFI 1b93c .cfa: sp 48 +
STACK CFI 1b948 .cfa: x29 48 + x19: .cfa -8 + ^ x20: .cfa -16 + ^ x21: .cfa -32 + ^ .ra: .cfa -40 + ^ x29: .cfa -48 + ^
STACK CFI 1b9bc .cfa: sp 48 +
STACK CFI 1b9c8 .cfa: sp 0 +
STACK CFI 1b9cc .cfa: x29 48 +
STACK CFI INIT 1b9d0 94 .cfa: sp 0 +
STACK CFI 1b9d4 .cfa: sp 32 +
STACK CFI 1b9dc .cfa: x29 32 + x19: .cfa -8 + ^ x20: .cfa -16 + ^ .ra: .cfa -24 + ^ x29: .cfa -32 + ^
STACK CFI 1ba54 .cfa: sp 32 +
STACK CFI 1ba5c .cfa: sp 0 +
STACK CFI 1ba60 .cfa: x29 32 +
STACK CFI INIT 1ba64 a0 .cfa: sp 0 +
STACK CFI 1ba68 .cfa: sp 48 +
STACK CFI 1ba74 .cfa: x29 48 + x19: .cfa -8 + ^ x20: .cfa -16 + ^ x21: .cfa -32 + ^ .ra: .cfa -40 + ^ x29: .cfa -48 + ^
STACK CFI 1baf0 .cfa: sp 48 +
STACK CFI 1bafc .cfa: sp 0 +
STACK CFI 1bb00 .cfa: x29 48 +
STACK CFI INIT 1bb04 cc8 .cfa: sp 0 +
STACK CFI 1bb08 .cfa: sp 176 +
STACK CFI 1bb28 .cfa: x29 96 + x19: .cfa -8 + ^ x20: .cfa -16 + ^ x21: .cfa -24 + ^ x22: .cfa -32 + ^ x23: .cfa -40 + ^ x24: .cfa -48 + ^ x25: .cfa -56 + ^ x26: .cfa -64 + ^ x27: .cfa -72 + ^ x28: .cfa -80 + ^ .ra: .cfa -88 + ^ x29: .cfa -96 + ^ v8: .cfa -112 + ^
STACK CFI 1c768 .cfa: sp 176 +
STACK CFI 1c788 .cfa: sp 0 +
STACK CFI 1c78c .cfa: x29 96 +
STACK CFI INIT 1c7cc 12c .cfa: sp 0 +
STACK CFI 1c7d0 .cfa: sp 80 +
STACK CFI 1c7e0 .cfa: x29 48 + x19: .cfa -8 + ^ x20: .cfa -16 + ^ x21: .cfa -24 + ^ x22: .cfa -32 + ^ .ra: .cfa -40 + ^ x29: .cfa -48 + ^
STACK CFI 1c8dc .cfa: sp 80 +
STACK CFI 1c8ec .cfa: sp 0 +
STACK CFI 1c8f0 .cfa: x29 48 +
STACK CFI INIT 1c8f8 24c .cfa: sp 0 +
STACK CFI 1c8fc .cfa: sp 96 +
STACK CFI 1c90c .cfa: x29 48 + x19: .cfa -8 + ^ x20: .cfa -16 + ^ x21: .cfa -32 + ^ .ra: .cfa -40 + ^ x29: .cfa -48 + ^
STACK CFI 1cb00 .cfa: sp 96 +
STACK CFI 1cb10 .cfa: sp 0 +
STACK CFI 1cb14 .cfa: x29 48 +
STACK CFI INIT 1cb44 3b0 .cfa: sp 0 +
STACK CFI 1cb48 .cfa: sp 144 +
STACK CFI 1cb5c .cfa: x29 64 + x19: .cfa -8 + ^ x20: .cfa -16 + ^ x21: .cfa -24 + ^ x22: .cfa -32 + ^ x23: .cfa -40 + ^ x24: .cfa -48 + ^ .ra: .cfa -56 + ^ x29: .cfa -64 + ^
STACK CFI 1ce74 .cfa: sp 144 +
STACK CFI 1ce88 .cfa: sp 0 +
STACK CFI 1ce8c .cfa: x29 64 +
STACK CFI INIT 1cef4 100 .cfa: sp 0 +
STACK CFI 1cef8 .cfa: sp 64 +
STACK CFI 1cf04 .cfa: x29 32 + x19: .cfa -8 + ^ x20: .cfa -16 + ^ .ra: .cfa -24 + ^ x29: .cfa -32 + ^
STACK CFI 1cfa4 .cfa: sp 64 +
STACK CFI 1cfb0 .cfa: sp 0 +
STACK CFI 1cfb4 .cfa: x29 32 +
STACK CFI INIT 1d0fc 134 .cfa: sp 0 +
STACK CFI 1d100 .cfa: sp 96 +
STACK CFI 1d110 .cfa: x29 48 + x19: .cfa -8 + ^ x20: .cfa -16 + ^ x21: .cfa -32 + ^ .ra: .cfa -40 + ^ x29: .cfa -48 + ^
STACK CFI 1d1e4 .cfa: sp 96 +
STACK CFI 1d1f4 .cfa: sp 0 +
STACK CFI 1d1f8 .cfa: x29 48 +
STACK CFI INIT 1d2e0 6c .cfa: sp 0 +
STACK CFI 1d2e4 .cfa: sp 32 +
STACK CFI 1d2ec .cfa: x29 32 + x19: .cfa -16 + ^ .ra: .cfa -24 + ^ x29: .cfa -32 + ^
STACK CFI 1d33c .cfa: sp 32 +
STACK CFI 1d344 .cfa: sp 0 +
STACK CFI 1d348 .cfa: x29 32 +
STACK CFI INIT 1d350 6c .cfa: sp 0 +
STACK CFI 1d354 .cfa: sp 32 +
STACK CFI 1d35c .cfa: x29 32 + x19: .cfa -16 + ^ .ra: .cfa -24 + ^ x29: .cfa -32 + ^
STACK CFI 1d3ac .cfa: sp 32 +
STACK CFI 1d3b4 .cfa: sp 0 +
STACK CFI 1d3b8 .cfa: x29 32 +
STACK CFI INIT 1d3d4 50 .cfa: sp 0 +
STACK CFI 1d3d8 .cfa: sp 32 +
STACK CFI 1d3e0 .cfa: x29 32 + x19: .cfa -8 + ^ x20: .cfa -16 + ^ .ra: .cfa -24 + ^ x29: .cfa -32 + ^
STACK CFI INIT 1d470 50 .cfa: sp 0 +
STACK CFI 1d474 .cfa: sp 32 +
STACK CFI 1d47c .cfa: x29 32 + x19: .cfa -8 + ^ x20: .cfa -16 + ^ .ra: .cfa -24 + ^ x29: .cfa -32 + ^
STACK CFI INIT 1da1c b58 .cfa: sp 0 +
STACK CFI 1da20 .cfa: sp 240 +
STACK CFI 1da3c .cfa: x29 96 + x19: .cfa -8 + ^ x20: .cfa -16 + ^ x21: .cfa -24 + ^ x22: .cfa -32 + ^ x23: .cfa -40 + ^ x24: .cfa -48 + ^ x25: .cfa -56 + ^ x26: .cfa -64 + ^ x27: .cfa -72 + ^ x28: .cfa -80 + ^ .ra: .cfa -88 + ^ x29: .cfa -96 + ^
STACK CFI 1dd8c .cfa: sp 240 +
STACK CFI 1dda8 .cfa: sp 0 +
STACK CFI 1ddac .cfa: x29 96 +
STACK CFI 1e41c .cfa: sp 240 +
STACK CFI 1e438 .cfa: sp 0 +
STACK CFI 1e43c .cfa: x29 96 +
STACK CFI INIT 1e58c 470 .cfa: sp 0 +
STACK CFI 1e590 .cfa: sp 304 +
STACK CFI 1e5ac .cfa: x29 96 + x19: .cfa -8 + ^ x20: .cfa -16 + ^ x21: .cfa -24 + ^ x22: .cfa -32 + ^ x23: .cfa -40 + ^ x24: .cfa -48 + ^ x25: .cfa -56 + ^ x26: .cfa -64 + ^ x27: .cfa -72 + ^ x28: .cfa -80 + ^ .ra: .cfa -88 + ^ x29: .cfa -96 + ^
STACK CFI 1e8bc .cfa: sp 304 +
STACK CFI 1e8d8 .cfa: sp 0 +
STACK CFI 1e8dc .cfa: x29 96 +
STACK CFI INIT 1ea4c 74 .cfa: sp 0 +
STACK CFI 1ea50 .cfa: sp 48 +
STACK CFI 1ea5c .cfa: x29 32 + x19: .cfa -8 + ^ x20: .cfa -16 + ^ .ra: .cfa -24 + ^ x29: .cfa -32 + ^
STACK CFI 1eaa8 .cfa: sp 48 +
STACK CFI 1eab4 .cfa: sp 0 +
STACK CFI 1eab8 .cfa: x29 32 +
STACK CFI INIT 1eb40 154 .cfa: sp 0 +
STACK CFI 1eb44 .cfa: sp 384 +
STACK CFI 1eb58 .cfa: x29 64 + x19: .cfa -8 + ^ x20: .cfa -16 + ^ x21: .cfa -24 + ^ x22: .cfa -32 + ^ x23: .cfa -40 + ^ x28: .cfa -48 + ^ .ra: .cfa -56 + ^ x29: .cfa -64 + ^
STACK CFI 1ec3c .cfa: sp 384 +
STACK CFI 1ec50 .cfa: sp 0 +
STACK CFI 1ec54 .cfa: x29 64 +
STACK CFI INIT 1ecc8 134 .cfa: sp 0 +
STACK CFI 1eccc .cfa: sp 80 +
STACK CFI 1ece0 .cfa: x29 80 + x19: .cfa -8 + ^ x20: .cfa -16 + ^ x21: .cfa -24 + ^ x22: .cfa -32 + ^ x23: .cfa -40 + ^ x24: .cfa -48 + ^ x25: .cfa -56 + ^ x26: .cfa -64 + ^ .ra: .cfa -72 + ^ x29: .cfa -80 + ^
STACK CFI 1edb0 .cfa: sp 80 +
STACK CFI 1edc4 .cfa: sp 0 +
STACK CFI 1edc8 .cfa: x29 80 +
STACK CFI INIT 1eea0 1a4 .cfa: sp 0 +
STACK CFI 1eea4 .cfa: sp 112 +
STACK CFI 1eebc .cfa: x29 80 + x19: .cfa -8 + ^ x20: .cfa -16 + ^ x21: .cfa -24 + ^ x22: .cfa -32 + ^ x23: .cfa -40 + ^ x24: .cfa -48 + ^ x25: .cfa -56 + ^ x26: .cfa -64 + ^ .ra: .cfa -72 + ^ x29: .cfa -80 + ^
STACK CFI 1efac .cfa: sp 112 +
STACK CFI 1efc4 .cfa: sp 0 +
STACK CFI 1efc8 .cfa: x29 80 +
STACK CFI INIT 1f044 1ec .cfa: sp 0 +
STACK CFI 1f048 .cfa: sp 128 +
STACK CFI 1f064 .cfa: x29 96 + x19: .cfa -8 + ^ x20: .cfa -16 + ^ x21: .cfa -24 + ^ x22: .cfa -32 + ^ x23: .cfa -40 + ^ x24: .cfa -48 + ^ x25: .cfa -56 + ^ x26: .cfa -64 + ^ x27: .cfa -80 + ^ .ra: .cfa -88 + ^ x29: .cfa -96 + ^
STACK CFI 1f1e0 .cfa: sp 128 +
STACK CFI 1f1fc .cfa: sp 0 +
STACK CFI 1f200 .cfa: x29 96 +
STACK CFI INIT 1f264 170 .cfa: sp 0 +
STACK CFI 1f268 .cfa: sp 48 +
STACK CFI 1f274 .cfa: x29 48 + x19: .cfa -8 + ^ x20: .cfa -16 + ^ x21: .cfa -32 + ^ .ra: .cfa -40 + ^ x29: .cfa -48 + ^
STACK CFI 1f3a8 .cfa: sp 48 +
STACK CFI 1f3b4 .cfa: sp 0 +
STACK CFI 1f3b8 .cfa: x29 48 +
STACK CFI INIT 1f750 2a4 .cfa: sp 0 +
STACK CFI 1f754 .cfa: sp 96 +
STACK CFI 1f768 .cfa: x29 64 + x19: .cfa -8 + ^ x20: .cfa -16 + ^ x21: .cfa -24 + ^ x22: .cfa -32 + ^ x23: .cfa -48 + ^ .ra: .cfa -56 + ^ x29: .cfa -64 + ^
STACK CFI 1f9a8 .cfa: sp 96 +
STACK CFI 1f9bc .cfa: sp 0 +
STACK CFI 1f9c0 .cfa: x29 64 +
STACK CFI INIT 1faa8 710 .cfa: sp 0 +
STACK CFI 1faac .cfa: sp 144 +
STACK CFI 1fac0 .cfa: x29 64 + x19: .cfa -8 + ^ x20: .cfa -16 + ^ x21: .cfa -24 + ^ x22: .cfa -32 + ^ x23: .cfa -48 + ^ .ra: .cfa -56 + ^ x29: .cfa -64 + ^
STACK CFI 200e0 .cfa: sp 144 +
STACK CFI 200f4 .cfa: sp 0 +
STACK CFI 200f8 .cfa: x29 64 +
STACK CFI INIT 201b8 dc .cfa: sp 0 +
STACK CFI 201bc .cfa: sp 64 +
STACK CFI 201c8 .cfa: x29 32 + x19: .cfa -8 + ^ x20: .cfa -16 + ^ .ra: .cfa -24 + ^ x29: .cfa -32 + ^
STACK CFI 20254 .cfa: sp 64 +
STACK CFI 20260 .cfa: sp 0 +
STACK CFI 20264 .cfa: x29 32 +
STACK CFI INIT 20500 134 .cfa: sp 0 +
STACK CFI 20504 .cfa: sp 80 +
STACK CFI 20510 .cfa: x29 32 + x19: .cfa -8 + ^ x20: .cfa -16 + ^ .ra: .cfa -24 + ^ x29: .cfa -32 + ^
STACK CFI 20540 .cfa: sp 80 +
STACK CFI 2054c .cfa: sp 0 +
STACK CFI 20550 .cfa: x29 32 +
STACK CFI INIT 20634 78 .cfa: sp 0 +
STACK CFI 20638 .cfa: sp 32 +
STACK CFI 20640 .cfa: x29 32 + x19: .cfa -8 + ^ x20: .cfa -16 + ^ .ra: .cfa -24 + ^ x29: .cfa -32 + ^
STACK CFI 2064c .cfa: sp 32 +
STACK CFI 20654 .cfa: sp 0 +
STACK CFI 20658 .cfa: x29 32 +
STACK CFI INIT 206ac 74 .cfa: sp 0 +
STACK CFI 206b0 .cfa: sp 48 +
STACK CFI 206bc .cfa: x29 32 + x19: .cfa -8 + ^ x20: .cfa -16 + ^ .ra: .cfa -24 + ^ x29: .cfa -32 + ^
STACK CFI 20708 .cfa: sp 48 +
STACK CFI 20714 .cfa: sp 0 +
STACK CFI 20718 .cfa: x29 32 +
STACK CFI INIT 20820 2d8 .cfa: sp 0 +
STACK CFI 20824 .cfa: sp 128 +
STACK CFI 20838 .cfa: x29 64 + x19: .cfa -8 + ^ x20: .cfa -16 + ^ x21: .cfa -24 + ^ x22: .cfa -32 + ^ x23: .cfa -48 + ^ .ra: .cfa -56 + ^ x29: .cfa -64 + ^
STACK CFI 209a4 .cfa: sp 128 +
STACK CFI 209b8 .cfa: sp 0 +
STACK CFI 209bc .cfa: x29 64 +
STACK CFI INIT 20b4c 250 .cfa: sp 0 +
STACK CFI 20b50 .cfa: sp 112 +
STACK CFI 20b60 .cfa: x29 48 + x19: .cfa -8 + ^ x20: .cfa -16 + ^ x21: .cfa -32 + ^ .ra: .cfa -40 + ^ x29: .cfa -48 + ^
STACK CFI 20c44 .cfa: sp 112 +
STACK CFI 20c54 .cfa: sp 0 +
STACK CFI 20c58 .cfa: x29 48 +
STACK CFI INIT 20ee0 1b8 .cfa: sp 0 +
STACK CFI 20ee4 .cfa: sp 160 +
STACK CFI 20f00 .cfa: x29 72 + x19: .cfa -8 + ^ x20: .cfa -16 + ^ x21: .cfa -24 + ^ x22: .cfa -32 + ^ x23: .cfa -40 + ^ x24: .cfa -48 + ^ x25: .cfa -56 + ^ .ra: .cfa -64 + ^ x29: .cfa -72 + ^ v8: .cfa -80 + ^
STACK CFI 20f84 .cfa: sp 160 +
STACK CFI 20fa0 .cfa: sp 0 +
STACK CFI 20fa4 .cfa: x29 72 +
STACK CFI INIT 21098 164 .cfa: sp 0 +
STACK CFI 2109c .cfa: sp 64 +
STACK CFI 210ac .cfa: x29 48 + x19: .cfa -8 + ^ x20: .cfa -16 + ^ x21: .cfa -24 + ^ x22: .cfa -32 + ^ .ra: .cfa -40 + ^ x29: .cfa -48 + ^
STACK CFI 2119c .cfa: sp 64 +
STACK CFI 211ac .cfa: sp 0 +
STACK CFI 211b0 .cfa: x29 48 +
STACK CFI INIT 211fc ac .cfa: sp 0 +
STACK CFI 21200 .cfa: sp 64 +
STACK CFI 21210 .cfa: x29 48 + x19: .cfa -8 + ^ x20: .cfa -16 + ^ x21: .cfa -32 + ^ .ra: .cfa -40 + ^ x29: .cfa -48 + ^
STACK CFI 2126c .cfa: sp 64 +
STACK CFI 2127c .cfa: sp 0 +
STACK CFI 21280 .cfa: x29 48 +
STACK CFI INIT 21500 2bc .cfa: sp 0 +
STACK CFI 21504 .cfa: sp 128 +
STACK CFI 21518 .cfa: x29 64 + x19: .cfa -8 + ^ x20: .cfa -16 + ^ x21: .cfa -24 + ^ x22: .cfa -32 + ^ x23: .cfa -48 + ^ .ra: .cfa -56 + ^ x29: .cfa -64 + ^
STACK CFI 21668 .cfa: sp 128 +
STACK CFI 2167c .cfa: sp 0 +
STACK CFI 21680 .cfa: x29 64 +
STACK CFI INIT 217bc 2c8 .cfa: sp 0 +
STACK CFI 217c0 .cfa: sp 128 +
STACK CFI 217d4 .cfa: x29 64 + x19: .cfa -8 + ^ x20: .cfa -16 + ^ x21: .cfa -24 + ^ x22: .cfa -32 + ^ x23: .cfa -48 + ^ .ra: .cfa -56 + ^ x29: .cfa -64 + ^
STACK CFI 21930 .cfa: sp 128 +
STACK CFI 21944 .cfa: sp 0 +
STACK CFI 21948 .cfa: x29 64 +
STACK CFI INIT 21a84 278 .cfa: sp 0 +
STACK CFI 21a88 .cfa: sp 128 +
STACK CFI 21a9c .cfa: x29 64 + x19: .cfa -8 + ^ x20: .cfa -16 + ^ x21: .cfa -24 + ^ x22: .cfa -32 + ^ x23: .cfa -48 + ^ .ra: .cfa -56 + ^ x29: .cfa -64 + ^
STACK CFI 21ba8 .cfa: sp 128 +
STACK CFI 21bbc .cfa: sp 0 +
STACK CFI 21bc0 .cfa: x29 64 +
STACK CFI INIT 21cfc 2bc .cfa: sp 0 +
STACK CFI 21d00 .cfa: sp 128 +
STACK CFI 21d14 .cfa: x29 64 + x19: .cfa -8 + ^ x20: .cfa -16 + ^ x21: .cfa -24 + ^ x22: .cfa -32 + ^ x23: .cfa -48 + ^ .ra: .cfa -56 + ^ x29: .cfa -64 + ^
STACK CFI 21e64 .cfa: sp 128 +
STACK CFI 21e78 .cfa: sp 0 +
STACK CFI 21e7c .cfa: x29 64 +
STACK CFI INIT 21fb8 4cc .cfa: sp 0 +
STACK CFI 21fbc .cfa: sp 128 +
STACK CFI 21fd0 .cfa: x29 64 + x19: .cfa -8 + ^ x20: .cfa -16 + ^ x21: .cfa -24 + ^ x22: .cfa -32 + ^ x23: .cfa -48 + ^ .ra: .cfa -56 + ^ x29: .cfa -64 + ^
STACK CFI 222dc .cfa: sp 128 +
STACK CFI 222f0 .cfa: sp 0 +
STACK CFI 222f4 .cfa: x29 64 +
STACK CFI INIT 22484 154 .cfa: sp 0 +
STACK CFI 22488 .cfa: sp 384 +
STACK CFI 2249c .cfa: x29 64 + x19: .cfa -8 + ^ x20: .cfa -16 + ^ x21: .cfa -24 + ^ x22: .cfa -32 + ^ x23: .cfa -40 + ^ x28: .cfa -48 + ^ .ra: .cfa -56 + ^ x29: .cfa -64 + ^
STACK CFI 22580 .cfa: sp 384 +
STACK CFI 22594 .cfa: sp 0 +
STACK CFI 22598 .cfa: x29 64 +
STACK CFI INIT 225d8 168 .cfa: sp 0 +
STACK CFI 225dc .cfa: sp 384 +
STACK CFI 225f0 .cfa: x29 64 + x19: .cfa -8 + ^ x20: .cfa -16 + ^ x21: .cfa -24 + ^ x22: .cfa -32 + ^ x23: .cfa -40 + ^ x28: .cfa -48 + ^ .ra: .cfa -56 + ^ x29: .cfa -64 + ^
STACK CFI 226e8 .cfa: sp 384 +
STACK CFI 226fc .cfa: sp 0 +
STACK CFI 22700 .cfa: x29 64 +
STACK CFI INIT 22758 4e0 .cfa: sp 0 +
STACK CFI 2275c .cfa: sp 64 +
STACK CFI 2276c .cfa: x29 64 + x19: .cfa -8 + ^ x20: .cfa -16 + ^ x21: .cfa -24 + ^ x22: .cfa -32 + ^ x23: .cfa -40 + ^ x24: .cfa -48 + ^ .ra: .cfa -56 + ^ x29: .cfa -64 + ^
STACK CFI 22c0c .cfa: sp 64 +
STACK CFI 22c1c .cfa: sp 0 +
STACK CFI 22c20 .cfa: x29 64 +
STACK CFI INIT 22f68 294 .cfa: sp 0 +
STACK CFI 22f6c .cfa: sp 240 +
STACK CFI 22f84 .cfa: x29 80 + x19: .cfa -8 + ^ x20: .cfa -16 + ^ x21: .cfa -24 + ^ x22: .cfa -32 + ^ x23: .cfa -40 + ^ x24: .cfa -48 + ^ x25: .cfa -64 + ^ .ra: .cfa -72 + ^ x29: .cfa -80 + ^
STACK CFI 23124 .cfa: sp 240 +
STACK CFI 2313c .cfa: sp 0 +
STACK CFI 23140 .cfa: x29 80 +
STACK CFI INIT 23278 50 .cfa: sp 0 +
STACK CFI 2327c .cfa: sp 32 +
STACK CFI 23284 .cfa: x29 32 + x19: .cfa -8 + ^ x20: .cfa -16 + ^ .ra: .cfa -24 + ^ x29: .cfa -32 + ^
STACK CFI INIT 232f4 7c0 .cfa: sp 0 +
STACK CFI 232f8 .cfa: sp 320 +
STACK CFI 23314 .cfa: x29 96 + x19: .cfa -8 + ^ x20: .cfa -16 + ^ x21: .cfa -24 + ^ x22: .cfa -32 + ^ x23: .cfa -40 + ^ x24: .cfa -48 + ^ x25: .cfa -56 + ^ x26: .cfa -64 + ^ x27: .cfa -72 + ^ x28: .cfa -80 + ^ .ra: .cfa -88 + ^ x29: .cfa -96 + ^
STACK CFI 23964 .cfa: sp 320 +
STACK CFI 23980 .cfa: sp 0 +
STACK CFI 23984 .cfa: x29 96 +
STACK CFI INIT 23b18 14c .cfa: sp 0 +
STACK CFI 23b1c .cfa: sp 80 +
STACK CFI 23b30 .cfa: x29 80 + x19: .cfa -8 + ^ x20: .cfa -16 + ^ x21: .cfa -24 + ^ x22: .cfa -32 + ^ x23: .cfa -40 + ^ x24: .cfa -48 + ^ x28: .cfa -64 + ^ .ra: .cfa -72 + ^ x29: .cfa -80 + ^
STACK CFI 23bc4 .cfa: sp 80 +
STACK CFI 23bd8 .cfa: sp 0 +
STACK CFI 23bdc .cfa: x29 80 +
STACK CFI INIT 27f6c c74 .cfa: sp 0 +
STACK CFI 27f70 .cfa: sp 96 +
STACK CFI 27f88 .cfa: x29 96 + x19: .cfa -8 + ^ x20: .cfa -16 + ^ x21: .cfa -24 + ^ x22: .cfa -32 + ^ x23: .cfa -40 + ^ x24: .cfa -48 + ^ x25: .cfa -56 + ^ x26: .cfa -64 + ^ x27: .cfa -72 + ^ x28: .cfa -80 + ^ .ra: .cfa -88 + ^ x29: .cfa -96 + ^
STACK CFI 289fc .cfa: sp 96 +
STACK CFI 28a14 .cfa: sp 0 +
STACK CFI 28a18 .cfa: x29 96 +
STACK CFI INIT 28d34 268 .cfa: sp 0 +
STACK CFI 28d38 .cfa: sp 128 +
STACK CFI 28d48 .cfa: x29 48 + x19: .cfa -8 + ^ x20: .cfa -16 + ^ x21: .cfa -24 + ^ x22: .cfa -32 + ^ .ra: .cfa -40 + ^ x29: .cfa -48 + ^
STACK CFI 28ee8 .cfa: sp 128 +
STACK CFI 28ef8 .cfa: sp 0 +
STACK CFI 28efc .cfa: x29 48 +
STACK CFI INIT 29514 3b8 .cfa: sp 0 +
STACK CFI 29518 .cfa: sp 96 +
STACK CFI 29530 .cfa: x29 96 + x19: .cfa -8 + ^ x20: .cfa -16 + ^ x21: .cfa -24 + ^ x22: .cfa -32 + ^ x23: .cfa -40 + ^ x24: .cfa -48 + ^ x25: .cfa -56 + ^ x26: .cfa -64 + ^ x27: .cfa -72 + ^ x28: .cfa -80 + ^ .ra: .cfa -88 + ^ x29: .cfa -96 + ^
STACK CFI 2986c .cfa: sp 96 +
STACK CFI 29884 .cfa: sp 0 +
STACK CFI 29888 .cfa: x29 96 +
STACK CFI INIT 2996c cb0 .cfa: sp 0 +
STACK CFI 29970 .cfa: sp 96 +
STACK CFI 29988 .cfa: x29 96 + x19: .cfa -8 + ^ x20: .cfa -16 + ^ x21: .cfa -24 + ^ x22: .cfa -32 + ^ x23: .cfa -40 + ^ x24: .cfa -48 + ^ x25: .cfa -56 + ^ x26: .cfa -64 + ^ x27: .cfa -72 + ^ x28: .cfa -80 + ^ .ra: .cfa -88 + ^ x29: .cfa -96 + ^
STACK CFI 2a42c .cfa: sp 96 +
STACK CFI 2a444 .cfa: sp 0 +
STACK CFI 2a448 .cfa: x29 96 +
STACK CFI INIT 2a904 ae4 .cfa: sp 0 +
STACK CFI 2a908 .cfa: sp 96 +
STACK CFI 2a920 .cfa: x29 96 + x19: .cfa -8 + ^ x20: .cfa -16 + ^ x21: .cfa -24 + ^ x22: .cfa -32 + ^ x23: .cfa -40 + ^ x24: .cfa -48 + ^ x25: .cfa -56 + ^ x26: .cfa -64 + ^ x27: .cfa -72 + ^ x28: .cfa -80 + ^ .ra: .cfa -88 + ^ x29: .cfa -96 + ^
STACK CFI 2b35c .cfa: sp 96 +
STACK CFI 2b374 .cfa: sp 0 +
STACK CFI 2b378 .cfa: x29 96 +
STACK CFI INIT 2b5c4 1424 .cfa: sp 0 +
STACK CFI 2b5c8 .cfa: sp 96 +
STACK CFI 2b5e0 .cfa: x29 96 + x19: .cfa -8 + ^ x20: .cfa -16 + ^ x21: .cfa -24 + ^ x22: .cfa -32 + ^ x23: .cfa -40 + ^ x24: .cfa -48 + ^ x25: .cfa -56 + ^ x26: .cfa -64 + ^ x27: .cfa -72 + ^ x28: .cfa -80 + ^ .ra: .cfa -88 + ^ x29: .cfa -96 + ^
STACK CFI 2c878 .cfa: sp 96 +
STACK CFI 2c890 .cfa: sp 0 +
STACK CFI 2c894 .cfa: x29 96 +
STACK CFI INIT 2cb0c 75c .cfa: sp 0 +
STACK CFI 2cb10 .cfa: sp 368 +
STACK CFI 2cb2c .cfa: x29 96 + x19: .cfa -8 + ^ x20: .cfa -16 + ^ x21: .cfa -24 + ^ x22: .cfa -32 + ^ x23: .cfa -40 + ^ x24: .cfa -48 + ^ x25: .cfa -56 + ^ x26: .cfa -64 + ^ x27: .cfa -72 + ^ x28: .cfa -80 + ^ .ra: .cfa -88 + ^ x29: .cfa -96 + ^
STACK CFI 2cbe0 .cfa: sp 368 +
STACK CFI 2cbfc .cfa: sp 0 +
STACK CFI 2cc00 .cfa: x29 96 +
STACK CFI 2cc54 .cfa: sp 368 +
STACK CFI 2cc70 .cfa: sp 0 +
STACK CFI 2cc74 .cfa: x29 96 +
STACK CFI INIT 2d62c eac .cfa: sp 0 +
STACK CFI 2d630 .cfa: sp 96 +
STACK CFI 2d648 .cfa: x29 96 + x19: .cfa -8 + ^ x20: .cfa -16 + ^ x21: .cfa -24 + ^ x22: .cfa -32 + ^ x23: .cfa -40 + ^ x24: .cfa -48 + ^ x25: .cfa -56 + ^ x26: .cfa -64 + ^ x27: .cfa -72 + ^ x28: .cfa -80 + ^ .ra: .cfa -88 + ^ x29: .cfa -96 + ^
STACK CFI 2e2ec .cfa: sp 96 +
STACK CFI 2e304 .cfa: sp 0 +
STACK CFI 2e308 .cfa: x29 96 +
STACK CFI INIT 2e84c 1c64 .cfa: sp 0 +
STACK CFI 2e850 .cfa: sp 112 +
STACK CFI 2e86c .cfa: x29 96 + x19: .cfa -8 + ^ x20: .cfa -16 + ^ x21: .cfa -24 + ^ x22: .cfa -32 + ^ x23: .cfa -40 + ^ x24: .cfa -48 + ^ x25: .cfa -56 + ^ x26: .cfa -64 + ^ x27: .cfa -72 + ^ x28: .cfa -80 + ^ .ra: .cfa -88 + ^ x29: .cfa -96 + ^ v8: .cfa -112 + ^
STACK CFI 2ec40 .cfa: sp 112 +
STACK CFI 2ec5c .cfa: sp 0 +
STACK CFI 2ec60 .cfa: x29 96 +
STACK CFI INIT 32c48 a4c .cfa: sp 0 +
STACK CFI 32c4c .cfa: sp 144 +
STACK CFI 32c64 .cfa: x29 80 + x19: .cfa -8 + ^ x20: .cfa -16 + ^ x21: .cfa -24 + ^ x22: .cfa -32 + ^ x23: .cfa -40 + ^ x24: .cfa -48 + ^ x25: .cfa -64 + ^ .ra: .cfa -72 + ^ x29: .cfa -80 + ^
STACK CFI 335ec .cfa: sp 144 +
STACK CFI 33604 .cfa: sp 0 +
STACK CFI 33608 .cfa: x29 80 +
STACK CFI INIT 34b28 57c .cfa: sp 0 +
STACK CFI 34b2c .cfa: sp 96 +
STACK CFI 34b44 .cfa: x29 96 + x19: .cfa -8 + ^ x20: .cfa -16 + ^ x21: .cfa -24 + ^ x22: .cfa -32 + ^ x23: .cfa -40 + ^ x24: .cfa -48 + ^ x25: .cfa -56 + ^ x26: .cfa -64 + ^ x27: .cfa -72 + ^ x28: .cfa -80 + ^ .ra: .cfa -88 + ^ x29: .cfa -96 + ^
STACK CFI 35008 .cfa: sp 96 +
STACK CFI 35020 .cfa: sp 0 +
STACK CFI 35024 .cfa: x29 96 +
STACK CFI INIT 350a4 67c .cfa: sp 0 +
STACK CFI 350a8 .cfa: sp 96 +
STACK CFI 350c0 .cfa: x29 96 + x19: .cfa -8 + ^ x20: .cfa -16 + ^ x21: .cfa -24 + ^ x22: .cfa -32 + ^ x23: .cfa -40 + ^ x24: .cfa -48 + ^ x25: .cfa -56 + ^ x26: .cfa -64 + ^ x27: .cfa -72 + ^ x28: .cfa -80 + ^ .ra: .cfa -88 + ^ x29: .cfa -96 + ^
STACK CFI 35684 .cfa: sp 96 +
STACK CFI 3569c .cfa: sp 0 +
STACK CFI 356a0 .cfa: x29 96 +
