MODULE Linux arm64 A7F2699AEBC77960D0789B62CB12ADDA0 alphalaneous.repeating_editor_buttons.android64.so
INFO CODE_ID 9A69F2A7C7EB6079D0789B62CB12ADDA0DA94806
INFO GENERATOR mozilla/dump_syms 2.3.4
PUBLIC 71d0 0 __on_dlclose
PUBLIC 71e0 0 __emutls_unregister_key
PUBLIC 71e8 0 __on_dlclose_late
PUBLIC 71f0 0 __atexit_handler_wrapper
PUBLIC 7204 0 atexit
PUBLIC 7220 0 pthread_atfork
PUBLIC 7230 0 unwind_phase2
PUBLIC 7364 0 _Unwind_Resume
PUBLIC 73e8 0 unwind_phase2_forced
PUBLIC m 74dc 0 __unw_init_local
PUBLIC m 7584 0 __unw_get_reg
PUBLIC 7600 0 __unw_step_stage2
PUBLIC m 7614 0 __unw_get_proc_info
PUBLIC m 7654 0 __unw_resume
PUBLIC 767c 0 libunwind::CFI_Parser<libunwind::LocalAddressSpace>::decodeFDE(libunwind::LocalAddressSpace&, unsigned long, libunwind::CFI_Parser<libunwind::LocalAddressSpace>::FDE_Info*, libunwind::CFI_Parser<libunwind::LocalAddressSpace>::CIE_Info*, bool)
PUBLIC 780c 0 libunwind::CFI_Parser<libunwind::LocalAddressSpace>::parseCIE(libunwind::LocalAddressSpace&, unsigned long, libunwind::CFI_Parser<libunwind::LocalAddressSpace>::CIE_Info*)
PUBLIC 7ad4 0 libunwind::AbstractUnwindCursor::~AbstractUnwindCursor()
PUBLIC 7adc 0 libunwind::UnwindCursor<libunwind::LocalAddressSpace, libunwind::Registers_arm64>::~UnwindCursor()
PUBLIC 7ae4 0 libunwind::UnwindCursor<libunwind::LocalAddressSpace, libunwind::Registers_arm64>::validReg(int)
PUBLIC 7b28 0 libunwind::UnwindCursor<libunwind::LocalAddressSpace, libunwind::Registers_arm64>::getReg(int)
PUBLIC 7c10 0 libunwind::UnwindCursor<libunwind::LocalAddressSpace, libunwind::Registers_arm64>::setReg(int, unsigned long)
PUBLIC 7cf8 0 libunwind::UnwindCursor<libunwind::LocalAddressSpace, libunwind::Registers_arm64>::validFloatReg(int)
PUBLIC 7d0c 0 libunwind::UnwindCursor<libunwind::LocalAddressSpace, libunwind::Registers_arm64>::getFloatReg(int)
PUBLIC 7d1c 0 libunwind::UnwindCursor<libunwind::LocalAddressSpace, libunwind::Registers_arm64>::setFloatReg(int, double)
PUBLIC 7d2c 0 libunwind::UnwindCursor<libunwind::LocalAddressSpace, libunwind::Registers_arm64>::step(bool)
PUBLIC 7e1c 0 libunwind::UnwindCursor<libunwind::LocalAddressSpace, libunwind::Registers_arm64>::getInfo(unw_proc_info_t*)
PUBLIC 7e60 0 libunwind::UnwindCursor<libunwind::LocalAddressSpace, libunwind::Registers_arm64>::jumpto()
PUBLIC 7e6c 0 libunwind::UnwindCursor<libunwind::LocalAddressSpace, libunwind::Registers_arm64>::isSignalFrame()
PUBLIC 7e78 0 libunwind::UnwindCursor<libunwind::LocalAddressSpace, libunwind::Registers_arm64>::getFunctionName(char*, unsigned long, unsigned long*)
PUBLIC 7ea4 0 libunwind::UnwindCursor<libunwind::LocalAddressSpace, libunwind::Registers_arm64>::setInfoBasedOnIPRegister(bool)
PUBLIC 8124 0 libunwind::UnwindCursor<libunwind::LocalAddressSpace, libunwind::Registers_arm64>::getRegisterName(int)
PUBLIC 8130 0 libunwind::UnwindCursor<libunwind::LocalAddressSpace, libunwind::Registers_arm64>::stepThroughSigReturn(libunwind::Registers_arm64&)
PUBLIC 8250 0 libunwind::DwarfInstructions<libunwind::LocalAddressSpace, libunwind::Registers_arm64>::stepWithDwarf(libunwind::LocalAddressSpace&, unsigned long, unsigned long, libunwind::Registers_arm64&, bool&, bool)
PUBLIC 86d8 0 libunwind::CFI_Parser<libunwind::LocalAddressSpace>::parseFDEInstructions(libunwind::LocalAddressSpace&, libunwind::CFI_Parser<libunwind::LocalAddressSpace>::FDE_Info const&, libunwind::CFI_Parser<libunwind::LocalAddressSpace>::CIE_Info const&, unsigned long, int, libunwind::CFI_Parser<libunwind::LocalAddressSpace>::PrologInfo*)
PUBLIC 9320 0 libunwind::DwarfInstructions<libunwind::LocalAddressSpace, libunwind::Registers_arm64>::getCFA(libunwind::LocalAddressSpace&, libunwind::CFI_Parser<libunwind::LocalAddressSpace>::PrologInfo const&, libunwind::Registers_arm64 const&)
PUBLIC 9454 0 libunwind::DwarfInstructions<libunwind::LocalAddressSpace, libunwind::Registers_arm64>::getSavedRegister(libunwind::LocalAddressSpace&, libunwind::Registers_arm64 const&, unsigned long, libunwind::CFI_Parser<libunwind::LocalAddressSpace>::RegisterLocation const&)
PUBLIC 9664 0 libunwind::LocalAddressSpace::getEncodedP(unsigned long&, unsigned long, unsigned char, unsigned long)
PUBLIC 99f0 0 libunwind::LocalAddressSpace::getULEB128(unsigned long&, unsigned long)
PUBLIC 9bb8 0 libunwind::DwarfInstructions<libunwind::LocalAddressSpace, libunwind::Registers_arm64>::evaluateExpression(unsigned long, libunwind::LocalAddressSpace&, libunwind::Registers_arm64 const&, unsigned long)
PUBLIC a574 0 libunwind::UnwindCursor<libunwind::LocalAddressSpace, libunwind::Registers_arm64>::getInfoFromDwarfSection(unsigned long, libunwind::UnwindInfoSections const&, unsigned int)
PUBLIC a848 0 libunwind::findUnwindSectionsByPhdr(dl_phdr_info*, unsigned long, void*)
PUBLIC a97c 0 libunwind::EHHeaderParser<libunwind::LocalAddressSpace>::decodeEHHdr(libunwind::LocalAddressSpace&, unsigned long, unsigned long, libunwind::EHHeaderParser<libunwind::LocalAddressSpace>::EHHeaderInfo&)
PUBLIC aa9c 0 libunwind::CFI_Parser<libunwind::LocalAddressSpace>::findFDE(libunwind::LocalAddressSpace&, unsigned long, unsigned long, unsigned long, unsigned long, libunwind::CFI_Parser<libunwind::LocalAddressSpace>::FDE_Info*, libunwind::CFI_Parser<libunwind::LocalAddressSpace>::CIE_Info*)
PUBLIC ac64 0 libunwind::EHHeaderParser<libunwind::LocalAddressSpace>::findFDE(libunwind::LocalAddressSpace&, unsigned long, unsigned long, unsigned int, libunwind::CFI_Parser<libunwind::LocalAddressSpace>::FDE_Info*, libunwind::CFI_Parser<libunwind::LocalAddressSpace>::CIE_Info*)
PUBLIC adcc 0 libunwind::EHHeaderParser<libunwind::LocalAddressSpace>::getTableEntrySize(unsigned char)
PUBLIC aec8 0 libunwind::Registers_arm64::getRegisterName(int)
PUBLIC aef8 0 __libunwind_Registers_arm64_jumpto
PUBLIC m af88 0 __unw_getcontext
PUBLIC b030 0 __aarch64_ldadd8_relax
PUBLIC b060 0 init_have_lse_atomics
PUBLIC b0f8 0 __init_cpu_features_constructor
PUBLIC b694 0 __init_cpu_features
PUBLIC b720 0 __aarch64_ldadd8_acq_rel
PUBLIC b750 0 __cxx_global_var_init
PUBLIC bbd4 0 geode::modifier::ModifyBase<geode::modifier::ModifyDerive<MyCCMenuItemSpriteExtra, CCMenuItemSpriteExtra> >::~ModifyBase()
PUBLIC bbec 0 __cxx_global_var_init.1
PUBLIC c070 0 geode::modifier::ModifyBase<geode::modifier::ModifyDerive<MyEditButtonBar, EditButtonBar> >::~ModifyBase()
PUBLIC c088 0 __cxx_global_var_init.2
PUBLIC c50c 0 geode::modifier::ModifyBase<geode::modifier::ModifyDerive<MySetGroupIDLayer, SetGroupIDLayer> >::~ModifyBase()
PUBLIC c524 0 __cxx_global_var_init.3
PUBLIC c9a8 0 geode::modifier::ModifyBase<geode::modifier::ModifyDerive<MyEditorUI, EditorUI> >::~ModifyBase()
PUBLIC c9c0 0 geode::modifier::ModifyDerive<MyCCMenuItemSpriteExtra, CCMenuItemSpriteExtra>::apply()
PUBLIC d3b4 0 std::__ndk1::shared_ptr<geode::Hook>::~shared_ptr[abi:ne180000]()
PUBLIC d404 0 geode::impl::ResultData<geode::Hook*, std::__ndk1::basic_string<char, std::__ndk1::char_traits<char>, std::__ndk1::allocator<char> > >::~ResultData()
PUBLIC d478 0 std::__ndk1::vector<std::__ndk1::basic_string<char, std::__ndk1::char_traits<char>, std::__ndk1::allocator<char> >, std::__ndk1::allocator<std::__ndk1::basic_string<char, std::__ndk1::char_traits<char>, std::__ndk1::allocator<char> > > >::~vector[abi:ne180000]()
PUBLIC d4f4 0 geode::modifier::ModifyBase<geode::modifier::ModifyDerive<MyCCMenuItemSpriteExtra, CCMenuItemSpriteExtra> >::apply()
PUBLIC d4f8 0 __clang_call_terminate
PUBLIC d508 0 _ZN5geode15UnwrapExceptionC2IRPNS_4HookEQsr4implE18IsStringStreamableIT_EEENS_4impl5OkTagEOS5_
PUBLIC dc04 0 std::__ndk1::__throw_bad_variant_access[abi:ne180000]()
PUBLIC m dc38 0 std::__ndk1::basic_stringstream<char, std::__ndk1::char_traits<char>, std::__ndk1::allocator<char> >::~basic_stringstream()
PUBLIC dcb8 0 geode::UnwrapException::~UnwrapException()
PUBLIC dcdc 0 std::__ndk1::basic_string<char, std::__ndk1::char_traits<char>, std::__ndk1::allocator<char> >::__throw_length_error[abi:ne180000]() const
PUBLIC dcf0 0 std::__ndk1::__throw_length_error[abi:ne180000](char const*)
PUBLIC dd40 0 std::length_error::length_error[abi:ne180000](char const*)
PUBLIC dd70 0 std::__throw_bad_array_new_length([abi:ne180000], void)
PUBLIC dda4 0 std::__ndk1::vector<std::__ndk1::basic_string<char, std::__ndk1::char_traits<char>, std::__ndk1::allocator<char> >, std::__ndk1::allocator<std::__ndk1::basic_string<char, std::__ndk1::char_traits<char>, std::__ndk1::allocator<char> > > >::__push_back_slow_path<std::__ndk1::basic_string<char, std::__ndk1::char_traits<char>, std::__ndk1::allocator<char> > const&>(std::__ndk1::basic_string<char, std::__ndk1::char_traits<char>, std::__ndk1::allocator<char> > const&)
PUBLIC dfc8 0 std::__ndk1::basic_string<char, std::__ndk1::char_traits<char>, std::__ndk1::allocator<char> >::__init_copy_ctor_external(char const*, unsigned long)
PUBLIC e044 0 std::__ndk1::__split_buffer<std::__ndk1::basic_string<char, std::__ndk1::char_traits<char>, std::__ndk1::allocator<char> >, std::__ndk1::allocator<std::__ndk1::basic_string<char, std::__ndk1::char_traits<char>, std::__ndk1::allocator<char> > >&>::~__split_buffer()
PUBLIC e0ac 0 std::__ndk1::vector<std::__ndk1::basic_string<char, std::__ndk1::char_traits<char>, std::__ndk1::allocator<char> >, std::__ndk1::allocator<std::__ndk1::basic_string<char, std::__ndk1::char_traits<char>, std::__ndk1::allocator<char> > > >::__throw_length_error[abi:ne180000]() const
PUBLIC e0c0 0 std::__ndk1::__variant_detail::__visitation::__base::__dispatcher<(unsigned long)0>::__dispatch[abi:ne180000]<std::__ndk1::__variant_detail::__dtor<std::__ndk1::__variant_detail::__traits<geode::Hook*, std::__ndk1::basic_string<char, std::__ndk1::char_traits<char>, std::__ndk1::allocator<char> > >, (std::__ndk1::__variant_detail::_Trait)1>::__destroy[abi:ne180000]()::{lambda(auto:1&)#1}, std::__ndk1::__variant_detail::__base<(std::__ndk1::__variant_detail::__traits<geode::Hook*, std::__ndk1::basic_string<char, std::__ndk1::char_traits<char>, std::__ndk1::allocator<char> > >)1, geode::Hook, std::__ndk1::allocator<char> >&>(std::__ndk1::__variant_detail::__dtor<std::__ndk1::__variant_detail::__traits<geode::Hook*, std::__ndk1::basic_string<char, std::__ndk1::char_traits<char>, std::__ndk1::allocator<char> > >, (std::__ndk1::__variant_detail::_Trait)1>, std::__ndk1::__variant_detail::__base<(std::__ndk1::__variant_detail::__traits<geode::Hook*, std::__ndk1::basic_string<char, std::__ndk1::char_traits<char>, std::__ndk1::allocator<char> > >)1, geode::Hook, std::__ndk1::allocator<char> >&)
PUBLIC e0c4 0 std::__ndk1::__variant_detail::__visitation::__base::__dispatcher<(unsigned long)1>::__dispatch[abi:ne180000]<std::__ndk1::__variant_detail::__dtor<std::__ndk1::__variant_detail::__traits<geode::Hook*, std::__ndk1::basic_string<char, std::__ndk1::char_traits<char>, std::__ndk1::allocator<char> > >, (std::__ndk1::__variant_detail::_Trait)1>::__destroy[abi:ne180000]()::{lambda(auto:1&)#1}, std::__ndk1::__variant_detail::__base<(std::__ndk1::__variant_detail::__traits<geode::Hook*, std::__ndk1::basic_string<char, std::__ndk1::char_traits<char>, std::__ndk1::allocator<char> > >)1, geode::Hook, std::__ndk1::allocator<char> >&>(std::__ndk1::__variant_detail::__dtor<std::__ndk1::__variant_detail::__traits<geode::Hook*, std::__ndk1::basic_string<char, std::__ndk1::char_traits<char>, std::__ndk1::allocator<char> > >, (std::__ndk1::__variant_detail::_Trait)1>, std::__ndk1::__variant_detail::__base<(std::__ndk1::__variant_detail::__traits<geode::Hook*, std::__ndk1::basic_string<char, std::__ndk1::char_traits<char>, std::__ndk1::allocator<char> > >)1, geode::Hook, std::__ndk1::allocator<char> >&)
PUBLIC e0d8 0 std::__ndk1::__tree<std::__ndk1::__value_type<std::__ndk1::basic_string<char, std::__ndk1::char_traits<char>, std::__ndk1::allocator<char> >, std::__ndk1::shared_ptr<geode::Hook> >, std::__ndk1::__map_value_compare<std::__ndk1::basic_string<char, std::__ndk1::char_traits<char>, std::__ndk1::allocator<char> >, std::__ndk1::__value_type<std::__ndk1::basic_string<char, std::__ndk1::char_traits<char>, std::__ndk1::allocator<char> >, std::__ndk1::shared_ptr<geode::Hook> >, std::__ndk1::less<std::__ndk1::basic_string<char, std::__ndk1::char_traits<char>, std::__ndk1::allocator<char> > >, true>, std::__ndk1::allocator<std::__ndk1::__value_type<std::__ndk1::basic_string<char, std::__ndk1::char_traits<char>, std::__ndk1::allocator<char> >, std::__ndk1::shared_ptr<geode::Hook> > > >::find<std::__ndk1::basic_string<char, std::__ndk1::char_traits<char>, std::__ndk1::allocator<char> > >(std::__ndk1::basic_string<char, std::__ndk1::char_traits<char>, std::__ndk1::allocator<char> > const&)
PUBLIC e1f8 0 std::__ndk1::__tree<std::__ndk1::__value_type<std::__ndk1::basic_string<char, std::__ndk1::char_traits<char>, std::__ndk1::allocator<char> >, std::__ndk1::shared_ptr<geode::Hook> >, std::__ndk1::__map_value_compare<std::__ndk1::basic_string<char, std::__ndk1::char_traits<char>, std::__ndk1::allocator<char> >, std::__ndk1::__value_type<std::__ndk1::basic_string<char, std::__ndk1::char_traits<char>, std::__ndk1::allocator<char> >, std::__ndk1::shared_ptr<geode::Hook> >, std::__ndk1::less<std::__ndk1::basic_string<char, std::__ndk1::char_traits<char>, std::__ndk1::allocator<char> > >, true>, std::__ndk1::allocator<std::__ndk1::__value_type<std::__ndk1::basic_string<char, std::__ndk1::char_traits<char>, std::__ndk1::allocator<char> >, std::__ndk1::shared_ptr<geode::Hook> > > >::erase(std::__ndk1::__tree_const_iterator<std::__ndk1::__value_type<std::__ndk1::basic_string<char, std::__ndk1::char_traits<char>, std::__ndk1::allocator<char> >, std::__ndk1::shared_ptr<geode::Hook> >, std::__ndk1::__tree_node<std::__ndk1::__value_type<std::__ndk1::basic_string<char, std::__ndk1::char_traits<char>, std::__ndk1::allocator<char> >, std::__ndk1::shared_ptr<geode::Hook> >, void*>*, long>)
PUBLIC e69c 0 std::__ndk1::__tree<std::__ndk1::__value_type<std::__ndk1::basic_string<char, std::__ndk1::char_traits<char>, std::__ndk1::allocator<char> >, std::__ndk1::shared_ptr<geode::Hook> >, std::__ndk1::__map_value_compare<std::__ndk1::basic_string<char, std::__ndk1::char_traits<char>, std::__ndk1::allocator<char> >, std::__ndk1::__value_type<std::__ndk1::basic_string<char, std::__ndk1::char_traits<char>, std::__ndk1::allocator<char> >, std::__ndk1::shared_ptr<geode::Hook> >, std::__ndk1::less<std::__ndk1::basic_string<char, std::__ndk1::char_traits<char>, std::__ndk1::allocator<char> > >, true>, std::__ndk1::allocator<std::__ndk1::__value_type<std::__ndk1::basic_string<char, std::__ndk1::char_traits<char>, std::__ndk1::allocator<char> >, std::__ndk1::shared_ptr<geode::Hook> > > >::destroy(std::__ndk1::__tree_node<std::__ndk1::__value_type<std::__ndk1::basic_string<char, std::__ndk1::char_traits<char>, std::__ndk1::allocator<char> >, std::__ndk1::shared_ptr<geode::Hook> >, void*>*)
PUBLIC e720 0 geode::Hook::create<void (*)(MyCCMenuItemSpriteExtra*)>(void*, void (*)(MyCCMenuItemSpriteExtra*), std::__ndk1::basic_string<char, std::__ndk1::char_traits<char>, std::__ndk1::allocator<char> > const&, tulip::hook::TulipConvention, tulip::hook::HookMetadata const&)
PUBLIC e858 0 geode::modifier::AsStaticFunction_activate<MyCCMenuItemSpriteExtra, void (MyCCMenuItemSpriteExtra::*)()>::Impl<void (MyCCMenuItemSpriteExtra::*)()>::function(MyCCMenuItemSpriteExtra*)
PUBLIC e894 0 geode::modifier::AsStaticFunction_selected<MyCCMenuItemSpriteExtra, void (MyCCMenuItemSpriteExtra::*)()>::Impl<void (MyCCMenuItemSpriteExtra::*)()>::function(MyCCMenuItemSpriteExtra*)
PUBLIC e8f8 0 geode::modifier::AsStaticFunction_unselected<MyCCMenuItemSpriteExtra, void (MyCCMenuItemSpriteExtra::*)()>::Impl<void (MyCCMenuItemSpriteExtra::*)()>::function(MyCCMenuItemSpriteExtra*)
PUBLIC ea04 0 geode::modifier::AsStaticFunction_init<MyCCMenuItemSpriteExtra, bool (MyCCMenuItemSpriteExtra::*)(cocos2d::CCNode*, cocos2d::CCNode*, cocos2d::CCObject*, void (cocos2d::CCObject::*)(cocos2d::CCObject*))>::Impl<bool (MyCCMenuItemSpriteExtra::*)(cocos2d::CCNode*, cocos2d::CCNode*, cocos2d::CCObject*, void (cocos2d::CCObject::*)(cocos2d::CCObject*))>::function(MyCCMenuItemSpriteExtra*, cocos2d::CCNode*, cocos2d::CCNode*, cocos2d::CCObject*, void (cocos2d::CCObject::*)(cocos2d::CCObject*))
PUBLIC ea9c 0 geode::addresser::Addresser::addressOfVirtual<void, CCMenuItemSpriteExtra, >(void (CCMenuItemSpriteExtra::*)())
PUBLIC eb88 0 CCMenuItemSpriteExtra::CCMenuItemSpriteExtra(geode::ZeroConstructorType)
PUBLIC ec6c 0 std::__ndk1::shared_ptr<tulip::hook::CallingConvention>::~shared_ptr[abi:ne180000]()
PUBLIC ecbc 0 tulip::hook::HandlerMetadata::~HandlerMetadata()
PUBLIC ed20 0 geode::modifier::FieldIntermediate<MyCCMenuItemSpriteExtra, CCMenuItemSpriteExtra>::self()
PUBLIC f1cc 0 geode::modifier::FieldIntermediate<MyCCMenuItemSpriteExtra, CCMenuItemSpriteExtra>::fieldDestructor(void*)
PUBLIC f1d0 0 std::__ndk1::vector<void*, std::__ndk1::allocator<void*> >::__throw_length_error[abi:ne180000]() const
PUBLIC f1e4 0 std::__ndk1::vector<std::__ndk1::function<void (void*)>, std::__ndk1::allocator<std::__ndk1::function<void (void*)> > >::__push_back_slow_path<std::__ndk1::function<void (void*)> >(std::__ndk1::function<void (void*)>&&)
PUBLIC f40c 0 std::__ndk1::vector<std::__ndk1::function<void (void*)>, std::__ndk1::allocator<std::__ndk1::function<void (void*)> > >::__throw_length_error[abi:ne180000]() const
PUBLIC f420 0 std::__ndk1::vector<void*, std::__ndk1::allocator<void*> >::__throw_out_of_range[abi:ne180000]() const
PUBLIC f42c 0 std::__ndk1::__throw_out_of_range[abi:ne180000](char const*)
PUBLIC f474 0 std::out_of_range::out_of_range[abi:ne180000](char const*)
PUBLIC f4ac 0 std::__ndk1::vector<std::__ndk1::function<void (void*)>, std::__ndk1::allocator<std::__ndk1::function<void (void*)> > >::__throw_out_of_range[abi:ne180000]() const
PUBLIC f4b8 0 std::__ndk1::__function::__base<void (void*)>::~__base()
PUBLIC f4bc 0 std::__ndk1::__function::__func<void (*)(void*), std::__ndk1::allocator<void (*)(void*)>, void (void*)>::~__func()
PUBLIC f4c0 0 std::__ndk1::__function::__func<void (*)(void*), std::__ndk1::allocator<void (*)(void*)>, void (void*)>::__clone() const
PUBLIC f4f8 0 std::__ndk1::__function::__func<void (*)(void*), std::__ndk1::allocator<void (*)(void*)>, void (void*)>::__clone(std::__ndk1::__function::__base<void (void*)>*) const
PUBLIC f510 0 std::__ndk1::__function::__func<void (*)(void*), std::__ndk1::allocator<void (*)(void*)>, void (void*)>::destroy()
PUBLIC f514 0 std::__ndk1::__function::__func<void (*)(void*), std::__ndk1::allocator<void (*)(void*)>, void (void*)>::destroy_deallocate()
PUBLIC f518 0 std::__ndk1::__function::__func<void (*)(void*), std::__ndk1::allocator<void (*)(void*)>, void (void*)>::operator()(void*&&)
PUBLIC f528 0 std::__ndk1::__function::__func<void (*)(void*), std::__ndk1::allocator<void (*)(void*)>, void (void*)>::target(std::type_info const&) const
PUBLIC f544 0 std::__ndk1::__function::__func<void (*)(void*), std::__ndk1::allocator<void (*)(void*)>, void (void*)>::target_type() const
PUBLIC f550 0 std::__ndk1::__tree<std::__ndk1::__value_type<std::__ndk1::basic_string<char, std::__ndk1::char_traits<char>, std::__ndk1::allocator<char> >, std::__ndk1::shared_ptr<geode::Hook> >, std::__ndk1::__map_value_compare<std::__ndk1::basic_string<char, std::__ndk1::char_traits<char>, std::__ndk1::allocator<char> >, std::__ndk1::__value_type<std::__ndk1::basic_string<char, std::__ndk1::char_traits<char>, std::__ndk1::allocator<char> >, std::__ndk1::shared_ptr<geode::Hook> >, std::__ndk1::less<std::__ndk1::basic_string<char, std::__ndk1::char_traits<char>, std::__ndk1::allocator<char> > >, true>, std::__ndk1::allocator<std::__ndk1::__value_type<std::__ndk1::basic_string<char, std::__ndk1::char_traits<char>, std::__ndk1::allocator<char> >, std::__ndk1::shared_ptr<geode::Hook> > > >::__emplace_unique_key_args<std::__ndk1::basic_string<char, std::__ndk1::char_traits<char>, std::__ndk1::allocator<char> >, std::__ndk1::piecewise_construct_t const&, std::__ndk1::tuple<std::__ndk1::basic_string<char, std::__ndk1::char_traits<char>, std::__ndk1::allocator<char> >&&>, std::__ndk1::tuple<> >(std::__ndk1::basic_string<char, std::__ndk1::char_traits<char>, std::__ndk1::allocator<char> > const&, std::__ndk1::piecewise_construct_t const&, std::__ndk1::tuple<std::__ndk1::basic_string<char, std::__ndk1::char_traits<char>, std::__ndk1::allocator<char> >&&>, std::__ndk1::tuple<>)
PUBLIC f864 0 std::__ndk1::__function::__func<MyCCMenuItemSpriteExtra::unselected()::{lambda()#1}, std::__ndk1::allocator<MyCCMenuItemSpriteExtra::unselected()::{lambda()#1}>, void ()>::~__func()
PUBLIC f868 0 std::__ndk1::__function::__func<MyCCMenuItemSpriteExtra::unselected()::{lambda()#1}, std::__ndk1::allocator<MyCCMenuItemSpriteExtra::unselected()::{lambda()#1}>, void ()>::__clone() const
PUBLIC f89c 0 std::__ndk1::__function::__func<MyCCMenuItemSpriteExtra::unselected()::{lambda()#1}, std::__ndk1::allocator<MyCCMenuItemSpriteExtra::unselected()::{lambda()#1}>, void ()>::__clone(std::__ndk1::__function::__base<void ()>*) const
PUBLIC f8b0 0 std::__ndk1::__function::__func<MyCCMenuItemSpriteExtra::unselected()::{lambda()#1}, std::__ndk1::allocator<MyCCMenuItemSpriteExtra::unselected()::{lambda()#1}>, void ()>::destroy()
PUBLIC f8b4 0 std::__ndk1::__function::__func<MyCCMenuItemSpriteExtra::unselected()::{lambda()#1}, std::__ndk1::allocator<MyCCMenuItemSpriteExtra::unselected()::{lambda()#1}>, void ()>::destroy_deallocate()
PUBLIC f8b8 0 std::__ndk1::__function::__func<MyCCMenuItemSpriteExtra::unselected()::{lambda()#1}, std::__ndk1::allocator<MyCCMenuItemSpriteExtra::unselected()::{lambda()#1}>, void ()>::operator()()
PUBLIC f8c4 0 std::__ndk1::__function::__func<MyCCMenuItemSpriteExtra::unselected()::{lambda()#1}, std::__ndk1::allocator<MyCCMenuItemSpriteExtra::unselected()::{lambda()#1}>, void ()>::target(std::type_info const&) const
PUBLIC f8e0 0 std::__ndk1::__function::__func<MyCCMenuItemSpriteExtra::unselected()::{lambda()#1}, std::__ndk1::allocator<MyCCMenuItemSpriteExtra::unselected()::{lambda()#1}>, void ()>::target_type() const
PUBLIC f8ec 0 MyCCMenuItemSpriteExtra::checkHold(float)
PUBLIC f938 0 geode::Mod::getSettingValue<int>(std::__ndk1::basic_string_view<char, std::__ndk1::char_traits<char> >) const
PUBLIC fa4c 0 geode::cast::traverseTypeinfoFor(void*, geode::cast::ClassTypeinfoType const*, char const*)
PUBLIC fb44 0 geode::modifier::ModifyDerive<MyEditButtonBar, EditButtonBar>::apply()
PUBLIC ff48 0 geode::modifier::ModifyBase<geode::modifier::ModifyDerive<MyEditButtonBar, EditButtonBar> >::apply()
PUBLIC ff4c 0 geode::modifier::AsStaticFunction_loadFromItems<MyEditButtonBar, void (MyEditButtonBar::*)(cocos2d::CCArray*, int, int, bool)>::Impl<void (MyEditButtonBar::*)(cocos2d::CCArray*, int, int, bool)>::function(MyEditButtonBar*, cocos2d::CCArray*, int, int, bool)
PUBLIC 10038 0 std::__ndk1::__function::__base<void ()>::~__base()
PUBLIC 1003c 0 std::__ndk1::__function::__func<MyEditButtonBar::loadFromItems(cocos2d::CCArray*, int, int, bool)::{lambda()#1}, std::__ndk1::allocator<MyEditButtonBar::loadFromItems(cocos2d::CCArray*, int, int, bool)::{lambda()#1}>, void ()>::~__func()
PUBLIC 10040 0 std::__ndk1::__function::__func<MyEditButtonBar::loadFromItems(cocos2d::CCArray*, int, int, bool)::{lambda()#1}, std::__ndk1::allocator<MyEditButtonBar::loadFromItems(cocos2d::CCArray*, int, int, bool)::{lambda()#1}>, void ()>::__clone() const
PUBLIC 10074 0 std::__ndk1::__function::__func<MyEditButtonBar::loadFromItems(cocos2d::CCArray*, int, int, bool)::{lambda()#1}, std::__ndk1::allocator<MyEditButtonBar::loadFromItems(cocos2d::CCArray*, int, int, bool)::{lambda()#1}>, void ()>::__clone(std::__ndk1::__function::__base<void ()>*) const
PUBLIC 10088 0 std::__ndk1::__function::__func<MyEditButtonBar::loadFromItems(cocos2d::CCArray*, int, int, bool)::{lambda()#1}, std::__ndk1::allocator<MyEditButtonBar::loadFromItems(cocos2d::CCArray*, int, int, bool)::{lambda()#1}>, void ()>::destroy()
PUBLIC 1008c 0 std::__ndk1::__function::__func<MyEditButtonBar::loadFromItems(cocos2d::CCArray*, int, int, bool)::{lambda()#1}, std::__ndk1::allocator<MyEditButtonBar::loadFromItems(cocos2d::CCArray*, int, int, bool)::{lambda()#1}>, void ()>::destroy_deallocate()
PUBLIC 10090 0 std::__ndk1::__function::__func<MyEditButtonBar::loadFromItems(cocos2d::CCArray*, int, int, bool)::{lambda()#1}, std::__ndk1::allocator<MyEditButtonBar::loadFromItems(cocos2d::CCArray*, int, int, bool)::{lambda()#1}>, void ()>::operator()()
PUBLIC 10720 0 std::__ndk1::__function::__func<MyEditButtonBar::loadFromItems(cocos2d::CCArray*, int, int, bool)::{lambda()#1}, std::__ndk1::allocator<MyEditButtonBar::loadFromItems(cocos2d::CCArray*, int, int, bool)::{lambda()#1}>, void ()>::target(std::type_info const&) const
PUBLIC 1073c 0 std::__ndk1::__function::__func<MyEditButtonBar::loadFromItems(cocos2d::CCArray*, int, int, bool)::{lambda()#1}, std::__ndk1::allocator<MyEditButtonBar::loadFromItems(cocos2d::CCArray*, int, int, bool)::{lambda()#1}>, void ()>::target_type() const
PUBLIC 10748 0 geode::cocos::CCArrayExt<cocos2d::CCNode*, cocos2d::CCNode>::~CCArrayExt()
PUBLIC 10764 0 geode::modifier::ModifyDerive<MySetGroupIDLayer, SetGroupIDLayer>::apply()
PUBLIC 10af0 0 geode::modifier::ModifyBase<geode::modifier::ModifyDerive<MySetGroupIDLayer, SetGroupIDLayer> >::apply()
PUBLIC 10af4 0 geode::modifier::AsStaticFunction_init<MySetGroupIDLayer, bool (MySetGroupIDLayer::*)(GameObject*, cocos2d::CCArray*)>::Impl<bool (MySetGroupIDLayer::*)(GameObject*, cocos2d::CCArray*)>::function(MySetGroupIDLayer*, GameObject*, cocos2d::CCArray*)
PUBLIC 111f0 0 geode::modifier::ModifyDerive<MyEditorUI, EditorUI>::apply()
PUBLIC 1153c 0 geode::modifier::ModifyBase<geode::modifier::ModifyDerive<MyEditorUI, EditorUI> >::apply()
PUBLIC 11540 0 geode::modifier::AsStaticFunction_init<MyEditorUI, bool (MyEditorUI::*)(LevelEditorLayer*)>::Impl<bool (MyEditorUI::*)(LevelEditorLayer*)>::function(MyEditorUI*, LevelEditorLayer*)
PUBLIC 116d4 0 MyEditorUI::recursivelySetRepeat(cocos2d::CCNode*)
PUBLIC m 117e0 0 geodeImplicitEntry
PUBLIC 11820 0 <.plt ELF section in alphalaneous.repeating_editor_buttons.android64.so>
STACK CFI INIT 71d0 10 .cfa: sp 0 +
STACK CFI INIT 71e0 8 .cfa: sp 0 +
STACK CFI INIT 71e8 8 .cfa: sp 0 +
STACK CFI INIT 71f0 14 .cfa: sp 0 +
STACK CFI INIT 7204 1c .cfa: sp 0 +
STACK CFI INIT 7220 10 .cfa: sp 0 +
STACK CFI INIT 7230 134 .cfa: sp 0 +
STACK CFI INIT 7364 84 .cfa: sp 0 +
STACK CFI INIT 73e8 f4 .cfa: sp 0 +
STACK CFI INIT 74dc a8 .cfa: sp 0 +
STACK CFI INIT 7584 7c .cfa: sp 0 +
STACK CFI INIT 7600 14 .cfa: sp 0 +
STACK CFI INIT 7614 40 .cfa: sp 0 +
STACK CFI INIT 7654 28 .cfa: sp 0 +
STACK CFI INIT 767c 190 .cfa: sp 0 +
STACK CFI INIT 780c 2c8 .cfa: sp 0 +
STACK CFI INIT 7ad4 8 .cfa: sp 0 +
STACK CFI INIT 7adc 8 .cfa: sp 0 +
STACK CFI INIT 7ae4 44 .cfa: sp 0 +
STACK CFI INIT 7b28 e8 .cfa: sp 0 +
STACK CFI INIT 7c10 e8 .cfa: sp 0 +
STACK CFI INIT 7cf8 14 .cfa: sp 0 +
STACK CFI INIT 7d0c 10 .cfa: sp 0 +
STACK CFI INIT 7d1c 10 .cfa: sp 0 +
STACK CFI INIT 7d2c f0 .cfa: sp 0 +
STACK CFI INIT 7e1c 44 .cfa: sp 0 +
STACK CFI INIT 7e60 c .cfa: sp 0 +
STACK CFI INIT 7e6c c .cfa: sp 0 +
STACK CFI INIT 7e78 2c .cfa: sp 0 +
STACK CFI INIT 7ea4 280 .cfa: sp 0 +
STACK CFI INIT 8124 c .cfa: sp 0 +
STACK CFI INIT 8130 120 .cfa: sp 0 +
STACK CFI INIT 8250 488 .cfa: sp 0 +
STACK CFI INIT 86d8 c48 .cfa: sp 0 +
STACK CFI INIT 9320 134 .cfa: sp 0 +
STACK CFI INIT 9454 210 .cfa: sp 0 +
STACK CFI INIT 9664 38c .cfa: sp 0 +
STACK CFI INIT 99f0 1c8 .cfa: sp 0 +
STACK CFI INIT 9bb8 9bc .cfa: sp 0 +
STACK CFI INIT a574 2d4 .cfa: sp 0 +
STACK CFI INIT a848 134 .cfa: sp 0 +
STACK CFI INIT a97c 120 .cfa: sp 0 +
STACK CFI INIT aa9c 1c8 .cfa: sp 0 +
STACK CFI INIT ac64 168 .cfa: sp 0 +
STACK CFI INIT adcc fc .cfa: sp 0 +
STACK CFI INIT aec8 30 .cfa: sp 0 +
STACK CFI INIT b030 30 .cfa: sp 0 +
STACK CFI INIT b060 98 .cfa: sp 0 +
STACK CFI INIT b0f8 59c .cfa: sp 0 +
STACK CFI INIT b694 8c .cfa: sp 0 +
STACK CFI INIT b720 30 .cfa: sp 0 +
STACK CFI INIT bbd4 18 .cfa: sp 0 +
STACK CFI INIT c070 18 .cfa: sp 0 +
STACK CFI INIT c50c 18 .cfa: sp 0 +
STACK CFI INIT c9a8 18 .cfa: sp 0 +
STACK CFI INIT d3b4 50 .cfa: sp 0 +
STACK CFI d3b8 .cfa: sp 32 +
STACK CFI d3c0 .cfa: x29 32 + x19: .cfa -16 + ^ .ra: .cfa -24 + ^ x29: .cfa -32 + ^
STACK CFI d3d8 .cfa: sp 32 +
STACK CFI d3e0 .cfa: sp 0 +
STACK CFI d3e4 .cfa: x29 32 +
STACK CFI d3f8 .cfa: sp 32 +
STACK CFI d400 .cfa: sp 0 +
STACK CFI INIT d478 7c .cfa: sp 0 +
STACK CFI d47c .cfa: sp 48 +
STACK CFI d488 .cfa: x29 48 + x19: .cfa -8 + ^ x20: .cfa -16 + ^ x21: .cfa -32 + ^ .ra: .cfa -40 + ^ x29: .cfa -48 + ^
STACK CFI d4d4 .cfa: sp 48 +
STACK CFI d4e0 .cfa: sp 0 +
STACK CFI d4e4 .cfa: sp 48 +
STACK CFI d4f0 .cfa: sp 0 +
STACK CFI INIT d4f4 4 .cfa: sp 0 +
STACK CFI INIT d4f8 10 .cfa: sp 0 +
STACK CFI d4fc .cfa: sp 16 +
STACK CFI d500 .cfa: x29 16 + .ra: .cfa -8 + ^ x29: .cfa -16 + ^
STACK CFI INIT dc04 34 .cfa: sp 0 +
STACK CFI dc08 .cfa: sp 16 +
STACK CFI dc0c .cfa: x29 16 + .ra: .cfa -8 + ^ x29: .cfa -16 + ^
STACK CFI INIT dc38 80 .cfa: sp 0 +
STACK CFI dc3c .cfa: sp 48 +
STACK CFI dc48 .cfa: x29 48 + x19: .cfa -8 + ^ x20: .cfa -16 + ^ x21: .cfa -32 + ^ .ra: .cfa -40 + ^ x29: .cfa -48 + ^
STACK CFI dca8 .cfa: sp 48 +
STACK CFI dcb4 .cfa: sp 0 +
STACK CFI INIT dcb8 24 .cfa: sp 0 +
STACK CFI dcbc .cfa: sp 32 +
STACK CFI dcc4 .cfa: x29 32 + x19: .cfa -16 + ^ .ra: .cfa -24 + ^ x29: .cfa -32 + ^
STACK CFI dcd0 .cfa: sp 32 +
STACK CFI dcd8 .cfa: sp 0 +
STACK CFI INIT dcdc 14 .cfa: sp 0 +
STACK CFI dce0 .cfa: sp 16 +
STACK CFI dce4 .cfa: x29 16 + .ra: .cfa -8 + ^ x29: .cfa -16 + ^
STACK CFI INIT dd40 30 .cfa: sp 0 +
STACK CFI dd44 .cfa: sp 32 +
STACK CFI dd4c .cfa: x29 32 + x19: .cfa -16 + ^ .ra: .cfa -24 + ^ x29: .cfa -32 + ^
STACK CFI dd64 .cfa: sp 32 +
STACK CFI dd6c .cfa: sp 0 +
STACK CFI INIT dd70 34 .cfa: sp 0 +
STACK CFI dd74 .cfa: sp 32 +
STACK CFI dd7c .cfa: x29 32 + x19: .cfa -16 + ^ .ra: .cfa -24 + ^ x29: .cfa -32 + ^
STACK CFI INIT dfc8 7c .cfa: sp 0 +
STACK CFI dfcc .cfa: sp 48 +
STACK CFI dfd8 .cfa: x29 48 + x19: .cfa -8 + ^ x20: .cfa -16 + ^ x21: .cfa -24 + ^ x22: .cfa -32 + ^ .ra: .cfa -40 + ^ x29: .cfa -48 + ^
STACK CFI dff0 .cfa: sp 48 +
STACK CFI dffc .cfa: sp 0 +
STACK CFI e000 .cfa: x29 48 +
STACK CFI e030 .cfa: sp 48 +
STACK CFI e03c .cfa: sp 0 +
STACK CFI e040 .cfa: x29 48 +
STACK CFI INIT e044 68 .cfa: sp 0 +
STACK CFI e048 .cfa: sp 32 +
STACK CFI e050 .cfa: x29 32 + x19: .cfa -8 + ^ x20: .cfa -16 + ^ .ra: .cfa -24 + ^ x29: .cfa -32 + ^
STACK CFI e068 .cfa: sp 32 +
STACK CFI e070 .cfa: sp 0 +
STACK CFI e074 .cfa: x29 32 +
STACK CFI e0a0 .cfa: sp 32 +
STACK CFI e0a8 .cfa: sp 0 +
STACK CFI INIT e0ac 14 .cfa: sp 0 +
STACK CFI e0b0 .cfa: sp 16 +
STACK CFI e0b4 .cfa: x29 16 + .ra: .cfa -8 + ^ x29: .cfa -16 + ^
STACK CFI INIT e0c0 4 .cfa: sp 0 +
STACK CFI INIT e0c4 14 .cfa: sp 0 +
STACK CFI INIT e0d8 120 .cfa: sp 0 +
STACK CFI e0dc .cfa: sp 64 +
STACK CFI e0ec .cfa: x29 64 + x19: .cfa -8 + ^ x20: .cfa -16 + ^ x21: .cfa -24 + ^ x22: .cfa -32 + ^ x23: .cfa -40 + ^ x24: .cfa -48 + ^ .ra: .cfa -56 + ^ x29: .cfa -64 + ^
STACK CFI e1e4 .cfa: sp 64 +
STACK CFI e1f4 .cfa: sp 0 +
STACK CFI INIT e1f8 4a4 .cfa: sp 0 +
STACK CFI e1fc .cfa: sp 32 +
STACK CFI e204 .cfa: x29 32 + x19: .cfa -8 + ^ x20: .cfa -16 + ^ .ra: .cfa -24 + ^ x29: .cfa -32 + ^
STACK CFI e5e4 .cfa: sp 32 +
STACK CFI e5ec .cfa: sp 0 +
STACK CFI e5f0 .cfa: x29 32 +
STACK CFI INIT e69c 84 .cfa: sp 0 +
STACK CFI e6a4 .cfa: sp 32 +
STACK CFI e6ac .cfa: x29 32 + x19: .cfa -8 + ^ x20: .cfa -16 + ^ .ra: .cfa -24 + ^ x29: .cfa -32 + ^
STACK CFI e6ec .cfa: sp 32 +
STACK CFI e6f4 .cfa: sp 0 +
STACK CFI e6fc .cfa: x29 32 +
STACK CFI INIT e858 3c .cfa: sp 0 +
STACK CFI e85c .cfa: sp 32 +
STACK CFI e864 .cfa: x29 32 + x19: .cfa -16 + ^ .ra: .cfa -24 + ^ x29: .cfa -32 + ^
STACK CFI e878 .cfa: sp 32 +
STACK CFI e880 .cfa: sp 0 +
STACK CFI e884 .cfa: x29 32 +
STACK CFI e888 .cfa: sp 32 +
STACK CFI e890 .cfa: sp 0 +
STACK CFI INIT e894 64 .cfa: sp 0 +
STACK CFI e898 .cfa: sp 32 +
STACK CFI e8a0 .cfa: x29 32 + x19: .cfa -16 + ^ .ra: .cfa -24 + ^ x29: .cfa -32 + ^
STACK CFI e8e0 .cfa: sp 32 +
STACK CFI e8e8 .cfa: sp 0 +
STACK CFI e8ec .cfa: sp 32 +
STACK CFI e8f4 .cfa: sp 0 +
STACK CFI INIT ea04 98 .cfa: sp 0 +
STACK CFI ea08 .cfa: sp 48 +
STACK CFI ea14 .cfa: x29 48 + x19: .cfa -8 + ^ x20: .cfa -16 + ^ x21: .cfa -24 + ^ x22: .cfa -32 + ^ .ra: .cfa -40 + ^ x29: .cfa -48 + ^
STACK CFI ea8c .cfa: sp 48 +
STACK CFI ea98 .cfa: sp 0 +
STACK CFI INIT ec6c 50 .cfa: sp 0 +
STACK CFI ec70 .cfa: sp 32 +
STACK CFI ec78 .cfa: x29 32 + x19: .cfa -16 + ^ .ra: .cfa -24 + ^ x29: .cfa -32 + ^
STACK CFI ec90 .cfa: sp 32 +
STACK CFI ec98 .cfa: sp 0 +
STACK CFI ec9c .cfa: x29 32 +
STACK CFI ecb0 .cfa: sp 32 +
STACK CFI ecb8 .cfa: sp 0 +
STACK CFI INIT ecbc 64 .cfa: sp 0 +
STACK CFI ecc0 .cfa: sp 32 +
STACK CFI ecc8 .cfa: x29 32 + x19: .cfa -16 + ^ .ra: .cfa -24 + ^ x29: .cfa -32 + ^
STACK CFI ecf4 .cfa: sp 32 +
STACK CFI ecfc .cfa: sp 0 +
STACK CFI ed00 .cfa: x29 32 +
STACK CFI ed14 .cfa: sp 32 +
STACK CFI ed1c .cfa: sp 0 +
STACK CFI INIT f1cc 4 .cfa: sp 0 +
STACK CFI INIT f1d0 14 .cfa: sp 0 +
STACK CFI f1d4 .cfa: sp 16 +
STACK CFI f1d8 .cfa: x29 16 + .ra: .cfa -8 + ^ x29: .cfa -16 + ^
STACK CFI INIT f40c 14 .cfa: sp 0 +
STACK CFI f410 .cfa: sp 16 +
STACK CFI f414 .cfa: x29 16 + .ra: .cfa -8 + ^ x29: .cfa -16 + ^
STACK CFI INIT f420 c .cfa: sp 0 +
STACK CFI f424 .cfa: sp 16 +
STACK CFI f428 .cfa: x29 16 + .ra: .cfa -8 + ^ x29: .cfa -16 + ^
STACK CFI INIT f474 38 .cfa: sp 0 +
STACK CFI f478 .cfa: sp 32 +
STACK CFI f480 .cfa: x29 32 + x19: .cfa -16 + ^ .ra: .cfa -24 + ^ x29: .cfa -32 + ^
STACK CFI f4a0 .cfa: sp 32 +
STACK CFI f4a8 .cfa: sp 0 +
STACK CFI INIT f4ac c .cfa: sp 0 +
STACK CFI f4b0 .cfa: sp 16 +
STACK CFI f4b4 .cfa: x29 16 + .ra: .cfa -8 + ^ x29: .cfa -16 + ^
STACK CFI INIT f4b8 4 .cfa: sp 0 +
STACK CFI INIT f4bc 4 .cfa: sp 0 +
STACK CFI INIT f4c0 38 .cfa: sp 0 +
STACK CFI f4c4 .cfa: sp 32 +
STACK CFI f4cc .cfa: x29 32 + x19: .cfa -16 + ^ .ra: .cfa -24 + ^ x29: .cfa -32 + ^
STACK CFI f4ec .cfa: sp 32 +
STACK CFI f4f4 .cfa: sp 0 +
STACK CFI INIT f4f8 18 .cfa: sp 0 +
STACK CFI INIT f510 4 .cfa: sp 0 +
STACK CFI INIT f514 4 .cfa: sp 0 +
STACK CFI INIT f518 10 .cfa: sp 0 +
STACK CFI INIT f528 1c .cfa: sp 0 +
STACK CFI INIT f544 c .cfa: sp 0 +
STACK CFI INIT f550 314 .cfa: sp 0 +
STACK CFI f554 .cfa: sp 96 +
STACK CFI f56c .cfa: x29 96 + x19: .cfa -8 + ^ x20: .cfa -16 + ^ x21: .cfa -24 + ^ x22: .cfa -32 + ^ x23: .cfa -40 + ^ x24: .cfa -48 + ^ x25: .cfa -56 + ^ x26: .cfa -64 + ^ x27: .cfa -80 + ^ .ra: .cfa -88 + ^ x29: .cfa -96 + ^
STACK CFI f828 .cfa: sp 96 +
STACK CFI f840 .cfa: sp 0 +
STACK CFI f844 .cfa: x29 96 +
STACK CFI INIT f864 4 .cfa: sp 0 +
STACK CFI INIT f868 34 .cfa: sp 0 +
STACK CFI f86c .cfa: sp 32 +
STACK CFI f874 .cfa: x29 32 + x19: .cfa -16 + ^ .ra: .cfa -24 + ^ x29: .cfa -32 + ^
STACK CFI f890 .cfa: sp 32 +
STACK CFI f898 .cfa: sp 0 +
STACK CFI INIT f89c 14 .cfa: sp 0 +
STACK CFI INIT f8b0 4 .cfa: sp 0 +
STACK CFI INIT f8b4 4 .cfa: sp 0 +
STACK CFI INIT f8b8 c .cfa: sp 0 +
STACK CFI INIT f8c4 1c .cfa: sp 0 +
STACK CFI INIT f8e0 c .cfa: sp 0 +
STACK CFI INIT f8ec 4c .cfa: sp 0 +
STACK CFI f8f0 .cfa: sp 32 +
STACK CFI f8f8 .cfa: x29 32 + x19: .cfa -16 + ^ .ra: .cfa -24 + ^ x29: .cfa -32 + ^
STACK CFI f92c .cfa: sp 32 +
STACK CFI f934 .cfa: sp 0 +
STACK CFI INIT f938 114 .cfa: sp 0 +
STACK CFI f93c .cfa: sp 80 +
STACK CFI f94c .cfa: x29 48 + x19: .cfa -8 + ^ x20: .cfa -16 + ^ x21: .cfa -24 + ^ x22: .cfa -32 + ^ .ra: .cfa -40 + ^ x29: .cfa -48 + ^
STACK CFI fa34 .cfa: sp 80 +
STACK CFI fa44 .cfa: sp 0 +
STACK CFI fa48 .cfa: x29 48 +
STACK CFI INIT fa4c f8 .cfa: sp 0 +
STACK CFI fa50 .cfa: sp 64 +
STACK CFI fa60 .cfa: x29 64 + x19: .cfa -8 + ^ x20: .cfa -16 + ^ x21: .cfa -24 + ^ x22: .cfa -32 + ^ x23: .cfa -48 + ^ .ra: .cfa -56 + ^ x29: .cfa -64 + ^
STACK CFI fabc .cfa: sp 64 +
STACK CFI facc .cfa: sp 0 +
STACK CFI fad0 .cfa: x29 64 +
STACK CFI faec .cfa: sp 64 +
STACK CFI fafc .cfa: sp 0 +
STACK CFI fb00 .cfa: x29 64 +
STACK CFI fb30 .cfa: sp 64 +
STACK CFI fb40 .cfa: sp 0 +
STACK CFI INIT ff48 4 .cfa: sp 0 +
STACK CFI INIT 10038 4 .cfa: sp 0 +
STACK CFI INIT 1003c 4 .cfa: sp 0 +
STACK CFI INIT 10040 34 .cfa: sp 0 +
STACK CFI 10044 .cfa: sp 32 +
STACK CFI 1004c .cfa: x29 32 + x19: .cfa -16 + ^ .ra: .cfa -24 + ^ x29: .cfa -32 + ^
STACK CFI 10068 .cfa: sp 32 +
STACK CFI 10070 .cfa: sp 0 +
STACK CFI INIT 10074 14 .cfa: sp 0 +
STACK CFI INIT 10088 4 .cfa: sp 0 +
STACK CFI INIT 1008c 4 .cfa: sp 0 +
STACK CFI INIT 10720 1c .cfa: sp 0 +
STACK CFI INIT 1073c c .cfa: sp 0 +
STACK CFI INIT 10af0 4 .cfa: sp 0 +
STACK CFI INIT 1153c 4 .cfa: sp 0 +
STACK CFI INIT 117e0 3c .cfa: sp 0 +
STACK CFI 117e4 .cfa: sp 32 +
STACK CFI 117ec .cfa: x29 32 + x19: .cfa -16 + ^ .ra: .cfa -24 + ^ x29: .cfa -32 + ^
STACK CFI 117f8 .cfa: sp 32 +
STACK CFI 11800 .cfa: sp 0 +
STACK CFI 11804 .cfa: x29 32 +
STACK CFI 11810 .cfa: sp 32 +
STACK CFI 11818 .cfa: sp 0 +
STACK CFI INIT b750 484 .cfa: sp 0 +
STACK CFI b754 .cfa: sp 224 +
STACK CFI b770 .cfa: x29 96 + x19: .cfa -8 + ^ x20: .cfa -16 + ^ x21: .cfa -24 + ^ x22: .cfa -32 + ^ x23: .cfa -40 + ^ x24: .cfa -48 + ^ x25: .cfa -56 + ^ x26: .cfa -64 + ^ x27: .cfa -72 + ^ x28: .cfa -80 + ^ .ra: .cfa -88 + ^ x29: .cfa -96 + ^
STACK CFI b9e0 .cfa: sp 224 +
STACK CFI b9fc .cfa: sp 0 +
STACK CFI ba00 .cfa: x29 96 +
STACK CFI bacc .cfa: sp 224 +
STACK CFI bae8 .cfa: sp 0 +
STACK CFI baec .cfa: x29 96 +
STACK CFI INIT bbec 484 .cfa: sp 0 +
STACK CFI bbf0 .cfa: sp 224 +
STACK CFI bc0c .cfa: x29 96 + x19: .cfa -8 + ^ x20: .cfa -16 + ^ x21: .cfa -24 + ^ x22: .cfa -32 + ^ x23: .cfa -40 + ^ x24: .cfa -48 + ^ x25: .cfa -56 + ^ x26: .cfa -64 + ^ x27: .cfa -72 + ^ x28: .cfa -80 + ^ .ra: .cfa -88 + ^ x29: .cfa -96 + ^
STACK CFI be7c .cfa: sp 224 +
STACK CFI be98 .cfa: sp 0 +
STACK CFI be9c .cfa: x29 96 +
STACK CFI bf68 .cfa: sp 224 +
STACK CFI bf84 .cfa: sp 0 +
STACK CFI bf88 .cfa: x29 96 +
STACK CFI INIT c088 484 .cfa: sp 0 +
STACK CFI c08c .cfa: sp 224 +
STACK CFI c0a8 .cfa: x29 96 + x19: .cfa -8 + ^ x20: .cfa -16 + ^ x21: .cfa -24 + ^ x22: .cfa -32 + ^ x23: .cfa -40 + ^ x24: .cfa -48 + ^ x25: .cfa -56 + ^ x26: .cfa -64 + ^ x27: .cfa -72 + ^ x28: .cfa -80 + ^ .ra: .cfa -88 + ^ x29: .cfa -96 + ^
STACK CFI c318 .cfa: sp 224 +
STACK CFI c334 .cfa: sp 0 +
STACK CFI c338 .cfa: x29 96 +
STACK CFI c404 .cfa: sp 224 +
STACK CFI c420 .cfa: sp 0 +
STACK CFI c424 .cfa: x29 96 +
STACK CFI INIT c524 484 .cfa: sp 0 +
STACK CFI c528 .cfa: sp 224 +
STACK CFI c544 .cfa: x29 96 + x19: .cfa -8 + ^ x20: .cfa -16 + ^ x21: .cfa -24 + ^ x22: .cfa -32 + ^ x23: .cfa -40 + ^ x24: .cfa -48 + ^ x25: .cfa -56 + ^ x26: .cfa -64 + ^ x27: .cfa -72 + ^ x28: .cfa -80 + ^ .ra: .cfa -88 + ^ x29: .cfa -96 + ^
STACK CFI c7b4 .cfa: sp 224 +
STACK CFI c7d0 .cfa: sp 0 +
STACK CFI c7d4 .cfa: x29 96 +
STACK CFI c8a0 .cfa: sp 224 +
STACK CFI c8bc .cfa: sp 0 +
STACK CFI c8c0 .cfa: x29 96 +
STACK CFI INIT c9c0 9f4 .cfa: sp 0 +
STACK CFI c9c4 .cfa: sp 272 +
STACK CFI c9dc .cfa: x29 80 + x19: .cfa -8 + ^ x20: .cfa -16 + ^ x21: .cfa -24 + ^ x22: .cfa -32 + ^ x23: .cfa -40 + ^ x24: .cfa -48 + ^ x25: .cfa -56 + ^ x28: .cfa -64 + ^ .ra: .cfa -72 + ^ x29: .cfa -80 + ^
STACK CFI d0dc .cfa: sp 272 +
STACK CFI d0f4 .cfa: sp 0 +
STACK CFI d0f8 .cfa: x29 80 +
STACK CFI INIT d404 74 .cfa: sp 0 +
STACK CFI d408 .cfa: sp 48 +
STACK CFI d414 .cfa: x29 32 + x19: .cfa -8 + ^ x20: .cfa -16 + ^ .ra: .cfa -24 + ^ x29: .cfa -32 + ^
STACK CFI d460 .cfa: sp 48 +
STACK CFI d46c .cfa: sp 0 +
STACK CFI d470 .cfa: x29 32 +
STACK CFI INIT d508 6fc .cfa: sp 0 +
STACK CFI d50c .cfa: sp 496 +
STACK CFI d528 .cfa: x29 96 + x19: .cfa -8 + ^ x20: .cfa -16 + ^ x21: .cfa -24 + ^ x22: .cfa -32 + ^ x23: .cfa -40 + ^ x24: .cfa -48 + ^ x25: .cfa -56 + ^ x26: .cfa -64 + ^ x27: .cfa -72 + ^ x28: .cfa -80 + ^ .ra: .cfa -88 + ^ x29: .cfa -96 + ^
STACK CFI dad8 .cfa: sp 496 +
STACK CFI daf4 .cfa: sp 0 +
STACK CFI daf8 .cfa: x29 96 +
STACK CFI INIT dcf0 50 .cfa: sp 0 +
STACK CFI dcf4 .cfa: sp 32 +
STACK CFI dcfc .cfa: x29 32 + x19: .cfa -8 + ^ x20: .cfa -16 + ^ .ra: .cfa -24 + ^ x29: .cfa -32 + ^
STACK CFI INIT dda4 224 .cfa: sp 0 +
STACK CFI dda8 .cfa: sp 128 +
STACK CFI ddc0 .cfa: x29 80 + x19: .cfa -8 + ^ x20: .cfa -16 + ^ x21: .cfa -24 + ^ x22: .cfa -32 + ^ x23: .cfa -40 + ^ x24: .cfa -48 + ^ x25: .cfa -64 + ^ .ra: .cfa -72 + ^ x29: .cfa -80 + ^
STACK CFI df5c .cfa: sp 128 +
STACK CFI df74 .cfa: sp 0 +
STACK CFI df78 .cfa: x29 80 +
STACK CFI INIT e720 138 .cfa: sp 0 +
STACK CFI e724 .cfa: sp 128 +
STACK CFI e738 .cfa: x29 64 + x19: .cfa -8 + ^ x20: .cfa -16 + ^ x21: .cfa -24 + ^ x22: .cfa -32 + ^ x23: .cfa -40 + ^ x24: .cfa -48 + ^ .ra: .cfa -56 + ^ x29: .cfa -64 + ^
STACK CFI e804 .cfa: sp 128 +
STACK CFI e818 .cfa: sp 0 +
STACK CFI e81c .cfa: x29 64 +
STACK CFI INIT e8f8 10c .cfa: sp 0 +
STACK CFI e8fc .cfa: sp 112 +
STACK CFI e90c .cfa: x29 48 + x19: .cfa -8 + ^ x20: .cfa -16 + ^ x21: .cfa -32 + ^ .ra: .cfa -40 + ^ x29: .cfa -48 + ^
STACK CFI e9a0 .cfa: sp 112 +
STACK CFI e9b0 .cfa: sp 0 +
STACK CFI e9b4 .cfa: x29 48 +
STACK CFI INIT ea9c ec .cfa: sp 0 +
STACK CFI eaa0 .cfa: sp 48 +
STACK CFI eaac .cfa: x29 48 + x19: .cfa -8 + ^ x20: .cfa -16 + ^ x21: .cfa -24 + ^ x22: .cfa -32 + ^ .ra: .cfa -40 + ^ x29: .cfa -48 + ^
STACK CFI eaf8 .cfa: sp 48 +
STACK CFI eb04 .cfa: sp 0 +
STACK CFI eb08 .cfa: x29 48 +
STACK CFI eb0c .cfa: sp 48 +
STACK CFI eb18 .cfa: sp 0 +
STACK CFI eb1c .cfa: x29 48 +
STACK CFI INIT eb88 e4 .cfa: sp 0 +
STACK CFI eb8c .cfa: sp 32 +
STACK CFI eb94 .cfa: x29 32 + x19: .cfa -8 + ^ x20: .cfa -16 + ^ .ra: .cfa -24 + ^ x29: .cfa -32 + ^
STACK CFI ec30 .cfa: sp 32 +
STACK CFI ec38 .cfa: sp 0 +
STACK CFI ec3c .cfa: x29 32 +
STACK CFI INIT ed20 4ac .cfa: sp 0 +
STACK CFI ed24 .cfa: sp 208 +
STACK CFI ed40 .cfa: x29 96 + x19: .cfa -8 + ^ x20: .cfa -16 + ^ x21: .cfa -24 + ^ x22: .cfa -32 + ^ x23: .cfa -40 + ^ x24: .cfa -48 + ^ x25: .cfa -56 + ^ x26: .cfa -64 + ^ x27: .cfa -72 + ^ x28: .cfa -80 + ^ .ra: .cfa -88 + ^ x29: .cfa -96 + ^
STACK CFI f0a4 .cfa: sp 208 +
STACK CFI f0c0 .cfa: sp 0 +
STACK CFI f0c4 .cfa: x29 96 +
STACK CFI INIT f1e4 228 .cfa: sp 0 +
STACK CFI f1e8 .cfa: sp 96 +
STACK CFI f200 .cfa: x29 96 + x19: .cfa -8 + ^ x20: .cfa -16 + ^ x21: .cfa -24 + ^ x22: .cfa -32 + ^ x23: .cfa -40 + ^ x24: .cfa -48 + ^ x25: .cfa -56 + ^ x26: .cfa -64 + ^ x27: .cfa -80 + ^ .ra: .cfa -88 + ^ x29: .cfa -96 + ^
STACK CFI f3a4 .cfa: sp 96 +
STACK CFI f3bc .cfa: sp 0 +
STACK CFI f3c0 .cfa: x29 96 +
STACK CFI INIT f42c 48 .cfa: sp 0 +
STACK CFI f430 .cfa: sp 32 +
STACK CFI f438 .cfa: x29 32 + x19: .cfa -8 + ^ x20: .cfa -16 + ^ .ra: .cfa -24 + ^ x29: .cfa -32 + ^
STACK CFI INIT fb44 404 .cfa: sp 0 +
STACK CFI fb48 .cfa: sp 272 +
STACK CFI fb5c .cfa: x29 64 + x19: .cfa -8 + ^ x20: .cfa -16 + ^ x21: .cfa -24 + ^ x22: .cfa -32 + ^ x23: .cfa -40 + ^ x28: .cfa -48 + ^ .ra: .cfa -56 + ^ x29: .cfa -64 + ^
STACK CFI fe0c .cfa: sp 272 +
STACK CFI fe20 .cfa: sp 0 +
STACK CFI fe24 .cfa: x29 64 +
STACK CFI INIT ff4c ec .cfa: sp 0 +
STACK CFI ff50 .cfa: sp 112 +
STACK CFI ff60 .cfa: x29 48 + x19: .cfa -8 + ^ x20: .cfa -16 + ^ x21: .cfa -32 + ^ .ra: .cfa -40 + ^ x29: .cfa -48 + ^
STACK CFI ffd4 .cfa: sp 112 +
STACK CFI ffe4 .cfa: sp 0 +
STACK CFI ffe8 .cfa: x29 48 +
STACK CFI INIT 10090 690 .cfa: sp 0 +
STACK CFI 10094 .cfa: sp 256 +
STACK CFI 100b0 .cfa: x29 96 + x19: .cfa -8 + ^ x20: .cfa -16 + ^ x21: .cfa -24 + ^ x22: .cfa -32 + ^ x23: .cfa -40 + ^ x24: .cfa -48 + ^ x25: .cfa -56 + ^ x26: .cfa -64 + ^ x27: .cfa -72 + ^ x28: .cfa -80 + ^ .ra: .cfa -88 + ^ x29: .cfa -96 + ^
STACK CFI 105a0 .cfa: sp 256 +
STACK CFI 105bc .cfa: sp 0 +
STACK CFI 105c0 .cfa: x29 96 +
STACK CFI INIT 10748 1c .cfa: sp 0 +
STACK CFI 1074c .cfa: sp 16 +
STACK CFI 10750 .cfa: x29 16 + .ra: .cfa -8 + ^ x29: .cfa -16 + ^
STACK CFI 10758 .cfa: sp 16 +
STACK CFI 1075c .cfa: sp 0 +
STACK CFI 10760 .cfa: x29 16 +
STACK CFI INIT 10764 38c .cfa: sp 0 +
STACK CFI 10768 .cfa: sp 208 +
STACK CFI 1077c .cfa: x29 64 + x19: .cfa -8 + ^ x20: .cfa -16 + ^ x21: .cfa -24 + ^ x22: .cfa -32 + ^ x23: .cfa -40 + ^ x24: .cfa -48 + ^ .ra: .cfa -56 + ^ x29: .cfa -64 + ^
STACK CFI 109c0 .cfa: sp 208 +
STACK CFI 109d4 .cfa: sp 0 +
STACK CFI 109d8 .cfa: x29 64 +
STACK CFI INIT 10af4 6fc .cfa: sp 0 +
STACK CFI 10af8 .cfa: sp 176 +
STACK CFI 10b0c .cfa: x29 64 + x19: .cfa -8 + ^ x20: .cfa -16 + ^ x21: .cfa -24 + ^ x22: .cfa -32 + ^ x23: .cfa -40 + ^ x24: .cfa -48 + ^ .ra: .cfa -56 + ^ x29: .cfa -64 + ^
STACK CFI 11144 .cfa: sp 176 +
STACK CFI 11158 .cfa: sp 0 +
STACK CFI 1115c .cfa: x29 64 +
STACK CFI INIT 111f0 34c .cfa: sp 0 +
STACK CFI 111f4 .cfa: sp 208 +
STACK CFI 1120c .cfa: x29 80 + x19: .cfa -8 + ^ x20: .cfa -16 + ^ x21: .cfa -24 + ^ x22: .cfa -32 + ^ x23: .cfa -40 + ^ x24: .cfa -48 + ^ x25: .cfa -64 + ^ .ra: .cfa -72 + ^ x29: .cfa -80 + ^
STACK CFI 11414 .cfa: sp 208 +
STACK CFI 1142c .cfa: sp 0 +
STACK CFI 11430 .cfa: x29 80 +
STACK CFI INIT 11540 194 .cfa: sp 0 +
STACK CFI 11544 .cfa: sp 64 +
STACK CFI 11554 .cfa: x29 64 + x19: .cfa -8 + ^ x20: .cfa -16 + ^ x21: .cfa -24 + ^ x22: .cfa -32 + ^ x23: .cfa -40 + ^ x24: .cfa -48 + ^ .ra: .cfa -56 + ^ x29: .cfa -64 + ^
STACK CFI 11694 .cfa: sp 64 +
STACK CFI 116a4 .cfa: sp 0 +
STACK CFI 116a8 .cfa: x29 64 +
STACK CFI INIT 116d4 10c .cfa: sp 0 +
STACK CFI 116d8 .cfa: sp 64 +
STACK CFI 116e8 .cfa: x29 64 + x19: .cfa -8 + ^ x20: .cfa -16 + ^ x21: .cfa -24 + ^ x22: .cfa -32 + ^ x23: .cfa -40 + ^ x24: .cfa -48 + ^ .ra: .cfa -56 + ^ x29: .cfa -64 + ^
STACK CFI 1178c .cfa: sp 64 +
STACK CFI 1179c .cfa: sp 0 +
STACK CFI 117a0 .cfa: x29 64 +
