MODULE Linux arm64 3D0DDF07346D859856B41575231931AD0 camila314.custombg.android64.so
INFO CODE_ID 07DF0D3D6D34988556B41575231931AD32782EC0
INFO GENERATOR mozilla/dump_syms 2.3.4
FILE 0 /home/runner/work/CustomBackground/CustomBackground/geode-sdk-clone/loader/include/Geode/utils/addresser.hpp
FILE 1 /home/runner/work/CustomBackground/CustomBackground/geode-sdk-clone/loader/include/Geode/platform/ItaniumCast.hpp
FILE 2 /usr/local/lib/android/sdk/ndk/27.2.12479018/toolchains/llvm/prebuilt/linux-x86_64/sysroot/usr/include/c++/v1/variant
FILE 3 /usr/local/lib/android/sdk/ndk/27.2.12479018/toolchains/llvm/prebuilt/linux-x86_64/sysroot/usr/include/c++/v1/__tree
FILE 4 /usr/local/lib/android/sdk/ndk/27.2.12479018/toolchains/llvm/prebuilt/linux-x86_64/sysroot/usr/include/c++/v1/stdexcept
FILE 5 /usr/local/lib/android/sdk/ndk/27.2.12479018/toolchains/llvm/prebuilt/linux-x86_64/sysroot/usr/include/c++/v1/new
FILE 6 /home/runner/work/CustomBackground/CustomBackground/build/bindings/bindings/Geode/modify/CCScale9Sprite.hpp
FILE 7 /home/runner/work/CustomBackground/CustomBackground/build/bindings/bindings/Geode/modify/EditLevelLayer.hpp
FILE 8 /home/runner/work/CustomBackground/CustomBackground/build/bindings/bindings/Geode/modify/LevelSearchLayer.hpp
FILE 9 /home/runner/work/CustomBackground/CustomBackground/build/bindings/bindings/Geode/modify/CCSprite.hpp
FILE 10 /home/runner/work/CustomBackground/CustomBackground/geode-sdk-clone/loader/include/Geode/modify/Modify.hpp
FILE 11 /usr/local/lib/android/sdk/ndk/27.2.12479018/toolchains/llvm/prebuilt/linux-x86_64/sysroot/usr/include/c++/v1/vector
FILE 12 /usr/local/lib/android/sdk/ndk/27.2.12479018/toolchains/llvm/prebuilt/linux-x86_64/sysroot/usr/include/c++/v1/string
FILE 13 /home/runner/work/CustomBackground/CustomBackground/cpm-cache/result/a5380f9e23f94b98200baa461086514f602899cb/include/Geode/Result.hpp
FILE 14 /usr/local/lib/android/sdk/ndk/27.2.12479018/toolchains/llvm/prebuilt/linux-x86_64/sysroot/usr/include/c++/v1/__memory/shared_ptr.h
FILE 15 /home/runner/work/CustomBackground/CustomBackground/cpm-cache/tuliphook/8d0d2aa407f52cdee9f79187fca5c9affddf8dd5/include/tulip/HandlerData.hpp
FILE 16 /usr/local/lib/android/sdk/ndk/27.2.12479018/toolchains/llvm/prebuilt/linux-x86_64/sysroot/usr/include/c++/v1/sstream
FILE 17 /usr/local/lib/android/sdk/ndk/27.2.12479018/toolchains/llvm/prebuilt/linux-x86_64/sysroot/usr/include/c++/v1/__split_buffer
FILE 18 /home/runner/work/CustomBackground/CustomBackground/geode-sdk-clone/loader/include/Geode/cocos/extensions/GUI/CCControlExtension/CCScale9Sprite.h
FILE 19 /home/runner/work/CustomBackground/CustomBackground/geode-sdk-clone/loader/include/Geode/modify/Field.hpp
FILE 20 /usr/local/lib/android/sdk/ndk/27.2.12479018/toolchains/llvm/prebuilt/linux-x86_64/sysroot/usr/include/c++/v1/__functional/function.h
FILE 21 /home/runner/work/CustomBackground/CustomBackground/geode-sdk-clone/loader/include/Geode/loader/Mod.hpp
FILE 22 /home/runner/work/CustomBackground/CustomBackground/geode-sdk-clone/entry.cpp
PUBLIC 6b10 0 __on_dlclose
PUBLIC 6b20 0 __emutls_unregister_key
PUBLIC 6b28 0 __on_dlclose_late
PUBLIC 6b30 0 __atexit_handler_wrapper
PUBLIC 6b44 0 atexit
PUBLIC 6b60 0 pthread_atfork
PUBLIC 6b70 0 unwind_phase2
PUBLIC 6ca4 0 _Unwind_Resume
PUBLIC 6d28 0 unwind_phase2_forced
PUBLIC m 6e1c 0 __unw_init_local
PUBLIC m 6ec4 0 __unw_get_reg
PUBLIC 6f40 0 __unw_step_stage2
PUBLIC m 6f54 0 __unw_get_proc_info
PUBLIC m 6f94 0 __unw_resume
PUBLIC 6fbc 0 libunwind::CFI_Parser<libunwind::LocalAddressSpace>::decodeFDE(libunwind::LocalAddressSpace&, unsigned long, libunwind::CFI_Parser<libunwind::LocalAddressSpace>::FDE_Info*, libunwind::CFI_Parser<libunwind::LocalAddressSpace>::CIE_Info*, bool)
PUBLIC 714c 0 libunwind::CFI_Parser<libunwind::LocalAddressSpace>::parseCIE(libunwind::LocalAddressSpace&, unsigned long, libunwind::CFI_Parser<libunwind::LocalAddressSpace>::CIE_Info*)
PUBLIC 7414 0 libunwind::AbstractUnwindCursor::~AbstractUnwindCursor()
PUBLIC 741c 0 libunwind::UnwindCursor<libunwind::LocalAddressSpace, libunwind::Registers_arm64>::~UnwindCursor()
PUBLIC 7424 0 libunwind::UnwindCursor<libunwind::LocalAddressSpace, libunwind::Registers_arm64>::validReg(int)
PUBLIC 7468 0 libunwind::UnwindCursor<libunwind::LocalAddressSpace, libunwind::Registers_arm64>::getReg(int)
PUBLIC 7550 0 libunwind::UnwindCursor<libunwind::LocalAddressSpace, libunwind::Registers_arm64>::setReg(int, unsigned long)
PUBLIC 7638 0 libunwind::UnwindCursor<libunwind::LocalAddressSpace, libunwind::Registers_arm64>::validFloatReg(int)
PUBLIC 764c 0 libunwind::UnwindCursor<libunwind::LocalAddressSpace, libunwind::Registers_arm64>::getFloatReg(int)
PUBLIC 765c 0 libunwind::UnwindCursor<libunwind::LocalAddressSpace, libunwind::Registers_arm64>::setFloatReg(int, double)
PUBLIC 766c 0 libunwind::UnwindCursor<libunwind::LocalAddressSpace, libunwind::Registers_arm64>::step(bool)
PUBLIC 775c 0 libunwind::UnwindCursor<libunwind::LocalAddressSpace, libunwind::Registers_arm64>::getInfo(unw_proc_info_t*)
PUBLIC 77a0 0 libunwind::UnwindCursor<libunwind::LocalAddressSpace, libunwind::Registers_arm64>::jumpto()
PUBLIC 77ac 0 libunwind::UnwindCursor<libunwind::LocalAddressSpace, libunwind::Registers_arm64>::isSignalFrame()
PUBLIC 77b8 0 libunwind::UnwindCursor<libunwind::LocalAddressSpace, libunwind::Registers_arm64>::getFunctionName(char*, unsigned long, unsigned long*)
PUBLIC 77e4 0 libunwind::UnwindCursor<libunwind::LocalAddressSpace, libunwind::Registers_arm64>::setInfoBasedOnIPRegister(bool)
PUBLIC 7a64 0 libunwind::UnwindCursor<libunwind::LocalAddressSpace, libunwind::Registers_arm64>::getRegisterName(int)
PUBLIC 7a70 0 libunwind::UnwindCursor<libunwind::LocalAddressSpace, libunwind::Registers_arm64>::stepThroughSigReturn(libunwind::Registers_arm64&)
PUBLIC 7b90 0 libunwind::DwarfInstructions<libunwind::LocalAddressSpace, libunwind::Registers_arm64>::stepWithDwarf(libunwind::LocalAddressSpace&, unsigned long, unsigned long, libunwind::Registers_arm64&, bool&, bool)
PUBLIC 8018 0 libunwind::CFI_Parser<libunwind::LocalAddressSpace>::parseFDEInstructions(libunwind::LocalAddressSpace&, libunwind::CFI_Parser<libunwind::LocalAddressSpace>::FDE_Info const&, libunwind::CFI_Parser<libunwind::LocalAddressSpace>::CIE_Info const&, unsigned long, int, libunwind::CFI_Parser<libunwind::LocalAddressSpace>::PrologInfo*)
PUBLIC 8c60 0 libunwind::DwarfInstructions<libunwind::LocalAddressSpace, libunwind::Registers_arm64>::getCFA(libunwind::LocalAddressSpace&, libunwind::CFI_Parser<libunwind::LocalAddressSpace>::PrologInfo const&, libunwind::Registers_arm64 const&)
PUBLIC 8d94 0 libunwind::DwarfInstructions<libunwind::LocalAddressSpace, libunwind::Registers_arm64>::getSavedRegister(libunwind::LocalAddressSpace&, libunwind::Registers_arm64 const&, unsigned long, libunwind::CFI_Parser<libunwind::LocalAddressSpace>::RegisterLocation const&)
PUBLIC 8fa4 0 libunwind::LocalAddressSpace::getEncodedP(unsigned long&, unsigned long, unsigned char, unsigned long)
PUBLIC 9330 0 libunwind::LocalAddressSpace::getULEB128(unsigned long&, unsigned long)
PUBLIC 94f8 0 libunwind::DwarfInstructions<libunwind::LocalAddressSpace, libunwind::Registers_arm64>::evaluateExpression(unsigned long, libunwind::LocalAddressSpace&, libunwind::Registers_arm64 const&, unsigned long)
PUBLIC 9eb4 0 libunwind::UnwindCursor<libunwind::LocalAddressSpace, libunwind::Registers_arm64>::getInfoFromDwarfSection(unsigned long, libunwind::UnwindInfoSections const&, unsigned int)
PUBLIC a188 0 libunwind::findUnwindSectionsByPhdr(dl_phdr_info*, unsigned long, void*)
PUBLIC a2bc 0 libunwind::EHHeaderParser<libunwind::LocalAddressSpace>::decodeEHHdr(libunwind::LocalAddressSpace&, unsigned long, unsigned long, libunwind::EHHeaderParser<libunwind::LocalAddressSpace>::EHHeaderInfo&)
PUBLIC a3dc 0 libunwind::CFI_Parser<libunwind::LocalAddressSpace>::findFDE(libunwind::LocalAddressSpace&, unsigned long, unsigned long, unsigned long, unsigned long, libunwind::CFI_Parser<libunwind::LocalAddressSpace>::FDE_Info*, libunwind::CFI_Parser<libunwind::LocalAddressSpace>::CIE_Info*)
PUBLIC a5a4 0 libunwind::EHHeaderParser<libunwind::LocalAddressSpace>::findFDE(libunwind::LocalAddressSpace&, unsigned long, unsigned long, unsigned int, libunwind::CFI_Parser<libunwind::LocalAddressSpace>::FDE_Info*, libunwind::CFI_Parser<libunwind::LocalAddressSpace>::CIE_Info*)
PUBLIC a70c 0 libunwind::EHHeaderParser<libunwind::LocalAddressSpace>::getTableEntrySize(unsigned char)
PUBLIC a808 0 libunwind::Registers_arm64::getRegisterName(int)
PUBLIC a838 0 __libunwind_Registers_arm64_jumpto
PUBLIC m a8c8 0 __unw_getcontext
PUBLIC a970 0 __aarch64_ldadd8_relax
PUBLIC a9a0 0 init_have_lse_atomics
PUBLIC aa38 0 __init_cpu_features_constructor
PUBLIC afd4 0 __init_cpu_features
PUBLIC b060 0 __aarch64_ldadd8_acq_rel
FUNC b090 41c 0 __cxx_global_var_init
b0b4 3f8 446 10
FUNC b4ac 41c 0 __cxx_global_var_init.1
b4d0 3f8 446 10
FUNC b8c8 41c 0 __cxx_global_var_init.2
b8ec 3f8 446 10
FUNC bce4 41c 0 __cxx_global_var_init.3
bd08 3f8 446 10
FUNC c100 18 0 geode::modifier::ModifyBase<geode::modifier::ModifyDerive<hook10<(anonymous namespace)::hook10Parent>, cocos2d::extension::CCScale9Sprite> >::~ModifyBase()
c100 18 200 10
FUNC c118 18 0 geode::modifier::ModifyBase<geode::modifier::ModifyDerive<hook66<(anonymous namespace)::hook66Parent>, EditLevelLayer> >::~ModifyBase()
c118 18 200 10
FUNC c130 18 0 geode::modifier::ModifyBase<geode::modifier::ModifyDerive<hook111<(anonymous namespace)::hook111Parent>, LevelSearchLayer> >::~ModifyBase()
c130 18 200 10
FUNC c148 18 0 geode::modifier::ModifyBase<geode::modifier::ModifyDerive<hook140<(anonymous namespace)::hook140Parent>, cocos2d::CCSprite> >::~ModifyBase()
c148 18 200 10
FUNC c160 38c 0 geode::modifier::ModifyDerive<hook10<(anonymous namespace)::hook10Parent>, cocos2d::extension::CCScale9Sprite>::apply()
c160 2c 326 6
c18c 24c 337 6
c3d8 28 370 6
c400 ec 337 6
FUNC c4ec 50 0 std::__ndk1::shared_ptr<geode::Hook>::~shared_ptr[abi:ne180000]()
c4ec c 643 14
c4f8 8 644 14
c500 10 645 14
c510 c 646 14
c51c 20 645 14
FUNC c53c 74 0 geode::impl::ResultData<geode::Hook*, std::__ndk1::basic_string<char, std::__ndk1::char_traits<char>, std::__ndk1::allocator<char> > >::~ResultData()
c53c 74 422 13
FUNC c5b0 7c 0 std::__ndk1::vector<std::__ndk1::basic_string<char, std::__ndk1::char_traits<char>, std::__ndk1::allocator<char> >, std::__ndk1::allocator<std::__ndk1::basic_string<char, std::__ndk1::char_traits<char>, std::__ndk1::allocator<char> > > >::~vector[abi:ne180000]()
c5b0 7c 501 11
FUNC c62c 4 0 geode::modifier::ModifyBase<geode::modifier::ModifyDerive<hook10<(anonymous namespace)::hook10Parent>, cocos2d::extension::CCScale9Sprite> >::apply()
c62c 4 416 10
PUBLIC c630 0 __clang_call_terminate
FUNC c640 6e0 0 _ZN5geode15UnwrapExceptionC2IRPNS_4HookEQsr4implE18IsStringStreamableIT_EEENS_4impl5OkTagEOS5_
c640 24 404 13
c664 50c 403 13
cb70 4c 402 13
cbbc 4 403 13
cbc0 10 402 13
cbd0 4 403 13
cbd4 4 402 13
cbd8 3c 404 13
cc14 e4 403 13
ccf8 28 402 13
FUNC cd20 34 0 std::__ndk1::__throw_bad_variant_access[abi:ne180000]()
cd20 8 285 2
cd28 2c 287 2
FUNC cd54 80 0 std::__ndk1::basic_stringstream<char, std::__ndk1::char_traits<char>, std::__ndk1::allocator<char> >::~basic_stringstream()
cd54 80 1102 16
FUNC cdd4 24 0 geode::UnwrapException::~UnwrapException()
cdd4 24 413 13
FUNC cdf8 14 0 std::__ndk1::basic_string<char, std::__ndk1::char_traits<char>, std::__ndk1::allocator<char> >::__throw_length_error[abi:ne180000]() const
cdf8 8 2118 12
ce00 c 2119 12
FUNC ce0c 50 0 std::__ndk1::__throw_length_error[abi:ne180000](char const*)
ce0c 10 239 4
ce1c 40 241 4
FUNC ce5c 30 0 std::length_error::length_error[abi:ne180000](char const*)
ce5c 30 152 4
FUNC ce8c 34 0 std::__throw_bad_array_new_length([abi:ne180000], void)
ce8c c 172 5
ce98 28 174 5
FUNC cec0 218 0 std::__ndk1::vector<std::__ndk1::basic_string<char, std::__ndk1::char_traits<char>, std::__ndk1::allocator<char> >, std::__ndk1::allocator<std::__ndk1::basic_string<char, std::__ndk1::char_traits<char>, std::__ndk1::allocator<char> > > >::__push_back_slow_path<std::__ndk1::basic_string<char, std::__ndk1::char_traits<char>, std::__ndk1::allocator<char> > const&>(std::__ndk1::basic_string<char, std::__ndk1::char_traits<char>, std::__ndk1::allocator<char> > const&)
cec0 30 1449 11
cef0 94 1451 11
cf84 4 1453 11
cf88 4 1451 11
cf8c 24 1453 11
cfb0 4 1455 11
cfb4 4 1454 11
cfb8 4 1455 11
cfbc 4 1454 11
cfc0 44 1455 11
d004 4 1457 11
d008 10 1455 11
d018 70 1457 11
d088 2c 1451 11
d0b4 24 1457 11
FUNC d0d8 6c 0 std::__ndk1::basic_string<char, std::__ndk1::char_traits<char>, std::__ndk1::allocator<char> >::__init_copy_ctor_external(char const*, unsigned long)
d0d8 14 2232 12
d0ec 8 2237 12
d0f4 c 2239 12
d100 8 2241 12
d108 14 2243 12
d11c 8 2247 12
d124 4 2246 12
d128 4 2247 12
d12c 14 2250 12
d140 4 2242 12
FUNC d144 68 0 std::__ndk1::__split_buffer<std::__ndk1::basic_string<char, std::__ndk1::char_traits<char>, std::__ndk1::allocator<char> >, std::__ndk1::allocator<std::__ndk1::basic_string<char, std::__ndk1::char_traits<char>, std::__ndk1::allocator<char> > >&>::~__split_buffer()
d144 c 352 17
d150 10 353 17
d160 8 354 17
d168 c 355 17
d174 2c 353 17
d1a0 c 356 17
FUNC d1ac 14 0 std::__ndk1::vector<std::__ndk1::basic_string<char, std::__ndk1::char_traits<char>, std::__ndk1::allocator<char> >, std::__ndk1::allocator<std::__ndk1::basic_string<char, std::__ndk1::char_traits<char>, std::__ndk1::allocator<char> > > >::__throw_length_error[abi:ne180000]() const
d1ac 14 940 11
FUNC d1c0 4 0 std::__ndk1::__variant_detail::__visitation::__base::__dispatcher<(unsigned long)0>::__dispatch[abi:ne180000]<std::__ndk1::__variant_detail::__dtor<std::__ndk1::__variant_detail::__traits<geode::Hook*, std::__ndk1::basic_string<char, std::__ndk1::char_traits<char>, std::__ndk1::allocator<char> > >, (std::__ndk1::__variant_detail::_Trait)1>::__destroy[abi:ne180000]()::{lambda(auto:1&)#1}, std::__ndk1::__variant_detail::__base<(std::__ndk1::__variant_detail::__traits<geode::Hook*, std::__ndk1::basic_string<char, std::__ndk1::char_traits<char>, std::__ndk1::allocator<char> > >)1, geode::Hook, std::__ndk1::allocator<char> >&>(std::__ndk1::__variant_detail::__dtor<std::__ndk1::__variant_detail::__traits<geode::Hook*, std::__ndk1::basic_string<char, std::__ndk1::char_traits<char>, std::__ndk1::allocator<char> > >, (std::__ndk1::__variant_detail::_Trait)1>, std::__ndk1::__variant_detail::__base<(std::__ndk1::__variant_detail::__traits<geode::Hook*, std::__ndk1::basic_string<char, std::__ndk1::char_traits<char>, std::__ndk1::allocator<char> > >)1, geode::Hook, std::__ndk1::allocator<char> >&)
d1c0 4 526 2
FUNC d1c4 14 0 std::__ndk1::__variant_detail::__visitation::__base::__dispatcher<(unsigned long)1>::__dispatch[abi:ne180000]<std::__ndk1::__variant_detail::__dtor<std::__ndk1::__variant_detail::__traits<geode::Hook*, std::__ndk1::basic_string<char, std::__ndk1::char_traits<char>, std::__ndk1::allocator<char> > >, (std::__ndk1::__variant_detail::_Trait)1>::__destroy[abi:ne180000]()::{lambda(auto:1&)#1}, std::__ndk1::__variant_detail::__base<(std::__ndk1::__variant_detail::__traits<geode::Hook*, std::__ndk1::basic_string<char, std::__ndk1::char_traits<char>, std::__ndk1::allocator<char> > >)1, geode::Hook, std::__ndk1::allocator<char> >&>(std::__ndk1::__variant_detail::__dtor<std::__ndk1::__variant_detail::__traits<geode::Hook*, std::__ndk1::basic_string<char, std::__ndk1::char_traits<char>, std::__ndk1::allocator<char> > >, (std::__ndk1::__variant_detail::_Trait)1>, std::__ndk1::__variant_detail::__base<(std::__ndk1::__variant_detail::__traits<geode::Hook*, std::__ndk1::basic_string<char, std::__ndk1::char_traits<char>, std::__ndk1::allocator<char> > >)1, geode::Hook, std::__ndk1::allocator<char> >&)
d1c4 14 526 2
FUNC d1d8 fc 0 std::__ndk1::__tree<std::__ndk1::__value_type<std::__ndk1::basic_string<char, std::__ndk1::char_traits<char>, std::__ndk1::allocator<char> >, std::__ndk1::shared_ptr<geode::Hook> >, std::__ndk1::__map_value_compare<std::__ndk1::basic_string<char, std::__ndk1::char_traits<char>, std::__ndk1::allocator<char> >, std::__ndk1::__value_type<std::__ndk1::basic_string<char, std::__ndk1::char_traits<char>, std::__ndk1::allocator<char> >, std::__ndk1::shared_ptr<geode::Hook> >, std::__ndk1::less<std::__ndk1::basic_string<char, std::__ndk1::char_traits<char>, std::__ndk1::allocator<char> > >, true>, std::__ndk1::allocator<std::__ndk1::__value_type<std::__ndk1::basic_string<char, std::__ndk1::char_traits<char>, std::__ndk1::allocator<char> >, std::__ndk1::shared_ptr<geode::Hook> > > >::find<std::__ndk1::basic_string<char, std::__ndk1::char_traits<char>, std::__ndk1::allocator<char> > >(std::__ndk1::basic_string<char, std::__ndk1::char_traits<char>, std::__ndk1::allocator<char> > const&)
d1d8 18 2087 3
d1f0 7c 2088 3
d26c 50 2089 3
d2bc 18 2092 3
FUNC d2d4 454 0 std::__ndk1::__tree<std::__ndk1::__value_type<std::__ndk1::basic_string<char, std::__ndk1::char_traits<char>, std::__ndk1::allocator<char> >, std::__ndk1::shared_ptr<geode::Hook> >, std::__ndk1::__map_value_compare<std::__ndk1::basic_string<char, std::__ndk1::char_traits<char>, std::__ndk1::allocator<char> >, std::__ndk1::__value_type<std::__ndk1::basic_string<char, std::__ndk1::char_traits<char>, std::__ndk1::allocator<char> >, std::__ndk1::shared_ptr<geode::Hook> >, std::__ndk1::less<std::__ndk1::basic_string<char, std::__ndk1::char_traits<char>, std::__ndk1::allocator<char> > >, true>, std::__ndk1::allocator<std::__ndk1::__value_type<std::__ndk1::basic_string<char, std::__ndk1::char_traits<char>, std::__ndk1::allocator<char> >, std::__ndk1::shared_ptr<geode::Hook> > > >::erase(std::__ndk1::__tree_const_iterator<std::__ndk1::__value_type<std::__ndk1::basic_string<char, std::__ndk1::char_traits<char>, std::__ndk1::allocator<char> >, std::__ndk1::shared_ptr<geode::Hook> >, std::__ndk1::__tree_node<std::__ndk1::__value_type<std::__ndk1::basic_string<char, std::__ndk1::char_traits<char>, std::__ndk1::allocator<char> >, std::__ndk1::shared_ptr<geode::Hook> >, void*>*, long>)
d2d4 c 2046 3
d2e0 284 2048 3
d564 14 2050 3
d578 4 2048 3
d57c c 2050 3
d588 a4 2048 3
d62c 40 2050 3
d66c 10 2051 3
d67c a0 2048 3
d71c c 2050 3
FUNC d728 84 0 std::__ndk1::__tree<std::__ndk1::__value_type<std::__ndk1::basic_string<char, std::__ndk1::char_traits<char>, std::__ndk1::allocator<char> >, std::__ndk1::shared_ptr<geode::Hook> >, std::__ndk1::__map_value_compare<std::__ndk1::basic_string<char, std::__ndk1::char_traits<char>, std::__ndk1::allocator<char> >, std::__ndk1::__value_type<std::__ndk1::basic_string<char, std::__ndk1::char_traits<char>, std::__ndk1::allocator<char> >, std::__ndk1::shared_ptr<geode::Hook> >, std::__ndk1::less<std::__ndk1::basic_string<char, std::__ndk1::char_traits<char>, std::__ndk1::allocator<char> > >, true>, std::__ndk1::allocator<std::__ndk1::__value_type<std::__ndk1::basic_string<char, std::__ndk1::char_traits<char>, std::__ndk1::allocator<char> >, std::__ndk1::shared_ptr<geode::Hook> > > >::destroy(std::__ndk1::__tree_node<std::__ndk1::__value_type<std::__ndk1::basic_string<char, std::__ndk1::char_traits<char>, std::__ndk1::allocator<char> >, std::__ndk1::shared_ptr<geode::Hook> >, void*>*)
d728 14 1544 3
d73c 8 1545 3
d744 8 1546 3
d74c 28 1548 3
d774 10 1549 3
d784 4 1551 3
d788 24 1548 3
FUNC d7ac a8 0 geode::addresser::getVirtual<void (cocos2d::extension::CCScale9Sprite::*)()>(void (cocos2d::extension::CCScale9Sprite::*)())
d7ac c 169 0
d7b8 9c 170 0
FUNC d854 298 0 geode::modifier::AsStaticFunction_visit<hook10<(anonymous namespace)::hook10Parent>, void (hook10<(anonymous namespace)::hook10Parent>::*)()>::Impl<void (hook10<(anonymous namespace)::hook10Parent>::*)()>::function(hook10<(anonymous namespace)::hook10Parent>*)
d854 298 30 6
FUNC daec 7c 0 cocos2d::extension::CCScale9Sprite::CCScale9Sprite(geode::ZeroConstructorType)
daec 7c 57 18
FUNC db68 50 0 std::__ndk1::shared_ptr<tulip::hook::CallingConvention>::~shared_ptr[abi:ne180000]()
db68 c 643 14
db74 8 644 14
db7c 10 645 14
db8c c 646 14
db98 20 645 14
FUNC dbb8 64 0 tulip::hook::HandlerMetadata::~HandlerMetadata()
dbb8 64 12 15
FUNC dc1c 61c 0 geode::modifier::FieldIntermediate<hook10<(anonymous namespace)::hook10Parent>, cocos2d::extension::CCScale9Sprite>::operator->()
dc1c 24 101 19
dc40 5f8 102 19
FUNC e238 4 0 geode::modifier::FieldIntermediate<hook10<(anonymous namespace)::hook10Parent>, cocos2d::extension::CCScale9Sprite>::fieldDestructor(void*)
e238 4 71 19
FUNC e23c 14 0 std::__ndk1::vector<void*, std::__ndk1::allocator<void*> >::__throw_length_error[abi:ne180000]() const
e23c 14 940 11
FUNC e250 14 0 std::__ndk1::vector<std::__ndk1::function<void (void*)>, std::__ndk1::allocator<std::__ndk1::function<void (void*)> > >::__throw_length_error[abi:ne180000]() const
e250 14 940 11
FUNC e264 c 0 std::__ndk1::vector<void*, std::__ndk1::allocator<void*> >::__throw_out_of_range[abi:ne180000]() const
e264 c 942 11
FUNC e270 48 0 std::__ndk1::__throw_out_of_range[abi:ne180000](char const*)
e270 c 247 4
e27c 3c 249 4
FUNC e2b8 38 0 std::out_of_range::out_of_range[abi:ne180000](char const*)
e2b8 38 163 4
FUNC e2f0 c 0 std::__ndk1::vector<std::__ndk1::function<void (void*)>, std::__ndk1::allocator<std::__ndk1::function<void (void*)> > >::__throw_out_of_range[abi:ne180000]() const
e2f0 c 942 11
FUNC e2fc 4 0 std::__ndk1::__function::__base<void (void*)>::~__base()
e2fc 4 235 20
FUNC e300 4 0 std::__ndk1::__function::__func<void (*)(void*), std::__ndk1::allocator<void (*)(void*)>, void (void*)>::~__func()
e300 4 250 20
FUNC e304 38 0 std::__ndk1::__function::__func<void (*)(void*), std::__ndk1::allocator<void (*)(void*)>, void (void*)>::__clone() const
e304 10 277 20
e314 8 282 20
e31c 14 283 20
e330 c 285 20
FUNC e33c 18 0 std::__ndk1::__function::__func<void (*)(void*), std::__ndk1::allocator<void (*)(void*)>, void (void*)>::__clone(std::__ndk1::__function::__base<void (void*)>*) const
e33c 14 289 20
e350 4 290 20
FUNC e354 4 0 std::__ndk1::__function::__func<void (*)(void*), std::__ndk1::allocator<void (*)(void*)>, void (void*)>::destroy()
e354 4 295 20
FUNC e358 4 0 std::__ndk1::__function::__func<void (*)(void*), std::__ndk1::allocator<void (*)(void*)>, void (void*)>::destroy_deallocate()
e358 4 303 20
FUNC e35c 10 0 std::__ndk1::__function::__func<void (*)(void*), std::__ndk1::allocator<void (*)(void*)>, void (void*)>::operator()(void*&&)
e35c 10 308 20
FUNC e36c 1c 0 std::__ndk1::__function::__func<void (*)(void*), std::__ndk1::allocator<void (*)(void*)>, void (void*)>::target(std::type_info const&) const
e36c 18 315 20
e384 4 318 20
FUNC e388 c 0 std::__ndk1::__function::__func<void (*)(void*), std::__ndk1::allocator<void (*)(void*)>, void (void*)>::target_type() const
e388 c 322 20
FUNC e394 104 0 std::__ndk1::__tree<std::__ndk1::__value_type<std::__ndk1::basic_string<char, std::__ndk1::char_traits<char>, std::__ndk1::allocator<char> >, std::__ndk1::shared_ptr<geode::Hook> >, std::__ndk1::__map_value_compare<std::__ndk1::basic_string<char, std::__ndk1::char_traits<char>, std::__ndk1::allocator<char> >, std::__ndk1::__value_type<std::__ndk1::basic_string<char, std::__ndk1::char_traits<char>, std::__ndk1::allocator<char> >, std::__ndk1::shared_ptr<geode::Hook> >, std::__ndk1::less<std::__ndk1::basic_string<char, std::__ndk1::char_traits<char>, std::__ndk1::allocator<char> > >, true>, std::__ndk1::allocator<std::__ndk1::__value_type<std::__ndk1::basic_string<char, std::__ndk1::char_traits<char>, std::__ndk1::allocator<char> >, std::__ndk1::shared_ptr<geode::Hook> > > >::__find_equal<std::__ndk1::basic_string<char, std::__ndk1::char_traits<char>, std::__ndk1::allocator<char> > >(std::__ndk1::__tree_end_node<std::__ndk1::__tree_node_base<void*>*>*&, std::__ndk1::basic_string<char, std::__ndk1::char_traits<char>, std::__ndk1::allocator<char> > const&)
e394 20 1682 3
e3b4 4 1683 3
e3b8 20 1685 3
e3d8 10 1688 3
e3e8 50 1687 3
e438 2c 1695 3
e464 14 1696 3
e478 20 1711 3
FUNC e498 19c 0 std::__ndk1::__tree_balance_after_insert[abi:ne180000]<std::__ndk1::__tree_node_base<void*>*>(std::__ndk1::__tree_node_base<void*>*, std::__ndk1::__tree_node_base<void*>*)
e498 c 285 3
e4a4 34 286 3
e4d8 10 288 3
e4e8 10 310 3
e4f8 4 289 3
e4fc c 290 3
e508 c 297 3
e514 38 299 3
e54c 4 303 3
e550 4 299 3
e554 8 305 3
e55c 4 330 3
e560 14 317 3
e574 30 319 3
e5a4 4 323 3
e5a8 4 319 3
e5ac 8 325 3
e5b4 4 322 3
e5b8 4 325 3
e5bc 4 324 3
e5c0 2c 325 3
e5ec 8 330 3
e5f4 8 305 3
e5fc 4 302 3
e600 4 304 3
e604 2c 305 3
e630 4 330 3
FUNC e634 3b0 0 geode::modifier::ModifyDerive<hook66<(anonymous namespace)::hook66Parent>, EditLevelLayer>::apply()
e634 2c 386 7
e660 264 405 7
e8c4 28 426 7
e8ec f8 405 7
FUNC e9e4 4 0 geode::modifier::ModifyBase<geode::modifier::ModifyDerive<hook66<(anonymous namespace)::hook66Parent>, EditLevelLayer> >::apply()
e9e4 4 416 10
FUNC e9e8 2e4 0 geode::modifier::AsStaticFunction_init<hook66<(anonymous namespace)::hook66Parent>, bool (hook66<(anonymous namespace)::hook66Parent>::*)(GJGameLevel*)>::Impl<bool (hook66<(anonymous namespace)::hook66Parent>::*)(GJGameLevel*)>::function(hook66<(anonymous namespace)::hook66Parent>*, GJGameLevel*)
e9e8 2e4 160 9
FUNC eccc 130 0 geode::Mod::getSettingValue<bool>(std::__ndk1::basic_string_view<char, std::__ndk1::char_traits<char> >) const
eccc 20 228 21
ecec 7c 230 21
ed68 10 231 21
ed78 50 230 21
edc8 8 234 21
edd0 8 230 21
edd8 24 234 21
FUNC edfc 128 0 geode::Mod::getSettingValue<cocos2d::_ccColor3B>(std::__ndk1::basic_string_view<char, std::__ndk1::char_traits<char> >) const
edfc 18 228 21
ee14 a8 230 21
eebc 10 231 21
eecc 2c 230 21
eef8 2c 234 21
FUNC ef24 d8 0 geode::cast::traverseTypeinfoFor(void*, geode::cast::ClassTypeinfoType const*, char const*)
ef24 14 57 1
ef38 c 59 1
ef44 1c 60 1
ef60 4 64 1
ef64 4 65 1
ef68 8 64 1
ef70 c 65 1
ef7c 4 67 1
ef80 4 60 1
ef84 4 59 1
ef88 c 60 1
ef94 18 69 1
efac 18 80 1
efc4 c 71 1
efd0 4 73 1
efd4 4 74 1
efd8 4 73 1
efdc 8 74 1
efe4 18 71 1
FUNC effc 4 0 std::__ndk1::__function::__func<hook66<(anonymous namespace)::hook66Parent>::init(GJGameLevel*)::{lambda()#1}, std::__ndk1::allocator<hook66<(anonymous namespace)::hook66Parent>::init(GJGameLevel*)::{lambda()#1}>, void ()>::~__func()
effc 4 250 20
FUNC f000 38 0 std::__ndk1::__function::__func<hook66<(anonymous namespace)::hook66Parent>::init(GJGameLevel*)::{lambda()#1}, std::__ndk1::allocator<hook66<(anonymous namespace)::hook66Parent>::init(GJGameLevel*)::{lambda()#1}>, void ()>::__clone() const
f000 10 277 20
f010 8 282 20
f018 14 283 20
f02c c 285 20
FUNC f038 18 0 std::__ndk1::__function::__func<hook66<(anonymous namespace)::hook66Parent>::init(GJGameLevel*)::{lambda()#1}, std::__ndk1::allocator<hook66<(anonymous namespace)::hook66Parent>::init(GJGameLevel*)::{lambda()#1}>, void ()>::__clone(std::__ndk1::__function::__base<void ()>*) const
f038 14 289 20
f04c 4 290 20
FUNC f050 4 0 std::__ndk1::__function::__func<hook66<(anonymous namespace)::hook66Parent>::init(GJGameLevel*)::{lambda()#1}, std::__ndk1::allocator<hook66<(anonymous namespace)::hook66Parent>::init(GJGameLevel*)::{lambda()#1}>, void ()>::destroy()
f050 4 295 20
FUNC f054 4 0 std::__ndk1::__function::__func<hook66<(anonymous namespace)::hook66Parent>::init(GJGameLevel*)::{lambda()#1}, std::__ndk1::allocator<hook66<(anonymous namespace)::hook66Parent>::init(GJGameLevel*)::{lambda()#1}>, void ()>::destroy_deallocate()
f054 4 303 20
FUNC f058 cc 0 std::__ndk1::__function::__func<hook66<(anonymous namespace)::hook66Parent>::init(GJGameLevel*)::{lambda()#1}, std::__ndk1::allocator<hook66<(anonymous namespace)::hook66Parent>::init(GJGameLevel*)::{lambda()#1}>, void ()>::operator()()
f058 24 307 20
f07c a8 308 20
FUNC f124 1c 0 std::__ndk1::__function::__func<hook66<(anonymous namespace)::hook66Parent>::init(GJGameLevel*)::{lambda()#1}, std::__ndk1::allocator<hook66<(anonymous namespace)::hook66Parent>::init(GJGameLevel*)::{lambda()#1}>, void ()>::target(std::type_info const&) const
f124 18 315 20
f13c 4 318 20
FUNC f140 c 0 std::__ndk1::__function::__func<hook66<(anonymous namespace)::hook66Parent>::init(GJGameLevel*)::{lambda()#1}, std::__ndk1::allocator<hook66<(anonymous namespace)::hook66Parent>::init(GJGameLevel*)::{lambda()#1}>, void ()>::target_type() const
f140 c 322 20
FUNC f14c 3a4 0 geode::modifier::ModifyDerive<hook111<(anonymous namespace)::hook111Parent>, LevelSearchLayer>::apply()
f14c 2c 416 8
f178 258 433 8
f3d0 28 458 8
f3f8 f8 433 8
FUNC f4f0 4 0 geode::modifier::ModifyBase<geode::modifier::ModifyDerive<hook111<(anonymous namespace)::hook111Parent>, LevelSearchLayer> >::apply()
f4f0 4 416 10
FUNC f4f4 338 0 geode::modifier::AsStaticFunction_init<hook111<(anonymous namespace)::hook111Parent>, bool (hook111<(anonymous namespace)::hook111Parent>::*)(int)>::Impl<bool (hook111<(anonymous namespace)::hook111Parent>::*)(int)>::function(hook111<(anonymous namespace)::hook111Parent>*, int)
f4f4 338 160 9
FUNC f82c 390 0 geode::modifier::ModifyDerive<hook140<(anonymous namespace)::hook140Parent>, cocos2d::CCSprite>::apply()
f82c 2c 796 9
f858 248 798 9
faa0 28 887 9
fac8 f4 798 9
FUNC fbbc 4 0 geode::modifier::ModifyBase<geode::modifier::ModifyDerive<hook140<(anonymous namespace)::hook140Parent>, cocos2d::CCSprite> >::apply()
fbbc 4 416 10
FUNC fbc0 3c0 0 geode::modifier::AsStaticFunction_create<hook140<(anonymous namespace)::hook140Parent>, cocos2d::CCSprite* (*)(char const*)>::Impl<cocos2d::CCSprite* (*)(char const*)>::function(char const*)
fbc0 3c0 10 9
FUNC ff80 50 0 std::__ndk1::shared_ptr<geode::FileSettingV3>::~shared_ptr[abi:ne180000]()
ff80 c 643 14
ff8c 8 644 14
ff94 10 645 14
ffa4 c 646 14
ffb0 20 645 14
FUNC ffd0 4 0 std::__ndk1::__function::__base<void ()>::~__base()
ffd0 4 235 20
FUNC ffd4 4 0 std::__ndk1::__function::__func<hook140<(anonymous namespace)::hook140Parent>::create(char const*)::{lambda()#1}, std::__ndk1::allocator<hook140<(anonymous namespace)::hook140Parent>::create(char const*)::{lambda()#1}>, void ()>::~__func()
ffd4 4 250 20
FUNC ffd8 38 0 std::__ndk1::__function::__func<hook140<(anonymous namespace)::hook140Parent>::create(char const*)::{lambda()#1}, std::__ndk1::allocator<hook140<(anonymous namespace)::hook140Parent>::create(char const*)::{lambda()#1}>, void ()>::__clone() const
ffd8 10 277 20
ffe8 8 282 20
fff0 14 283 20
10004 c 285 20
FUNC 10010 18 0 std::__ndk1::__function::__func<hook140<(anonymous namespace)::hook140Parent>::create(char const*)::{lambda()#1}, std::__ndk1::allocator<hook140<(anonymous namespace)::hook140Parent>::create(char const*)::{lambda()#1}>, void ()>::__clone(std::__ndk1::__function::__base<void ()>*) const
10010 14 289 20
10024 4 290 20
FUNC 10028 4 0 std::__ndk1::__function::__func<hook140<(anonymous namespace)::hook140Parent>::create(char const*)::{lambda()#1}, std::__ndk1::allocator<hook140<(anonymous namespace)::hook140Parent>::create(char const*)::{lambda()#1}>, void ()>::destroy()
10028 4 295 20
FUNC 1002c 4 0 std::__ndk1::__function::__func<hook140<(anonymous namespace)::hook140Parent>::create(char const*)::{lambda()#1}, std::__ndk1::allocator<hook140<(anonymous namespace)::hook140Parent>::create(char const*)::{lambda()#1}>, void ()>::destroy_deallocate()
1002c 4 303 20
FUNC 10030 68 0 std::__ndk1::__function::__func<hook140<(anonymous namespace)::hook140Parent>::create(char const*)::{lambda()#1}, std::__ndk1::allocator<hook140<(anonymous namespace)::hook140Parent>::create(char const*)::{lambda()#1}>, void ()>::operator()()
10030 10 307 20
10040 58 308 20
FUNC 10098 1c 0 std::__ndk1::__function::__func<hook140<(anonymous namespace)::hook140Parent>::create(char const*)::{lambda()#1}, std::__ndk1::allocator<hook140<(anonymous namespace)::hook140Parent>::create(char const*)::{lambda()#1}>, void ()>::target(std::type_info const&) const
10098 18 315 20
100b0 4 318 20
FUNC 100b4 c 0 std::__ndk1::__function::__func<hook140<(anonymous namespace)::hook140Parent>::create(char const*)::{lambda()#1}, std::__ndk1::allocator<hook140<(anonymous namespace)::hook140Parent>::create(char const*)::{lambda()#1}>, void ()>::target_type() const
100b4 c 322 20
FUNC 100c0 30 0 geodeImplicitEntry
100c0 c 16 22
100cc 18 18 22
100e4 c 19 22
PUBLIC 100f0 0 <.plt ELF section in camila314.custombg.android64.so>
STACK CFI INIT 6b10 10 .cfa: sp 0 +
STACK CFI INIT 6b20 8 .cfa: sp 0 +
STACK CFI INIT 6b28 8 .cfa: sp 0 +
STACK CFI INIT 6b30 14 .cfa: sp 0 +
STACK CFI INIT 6b44 1c .cfa: sp 0 +
STACK CFI INIT 6b60 10 .cfa: sp 0 +
STACK CFI INIT 6b70 134 .cfa: sp 0 +
STACK CFI INIT 6ca4 84 .cfa: sp 0 +
STACK CFI INIT 6d28 f4 .cfa: sp 0 +
STACK CFI INIT 6e1c a8 .cfa: sp 0 +
STACK CFI INIT 6ec4 7c .cfa: sp 0 +
STACK CFI INIT 6f40 14 .cfa: sp 0 +
STACK CFI INIT 6f54 40 .cfa: sp 0 +
STACK CFI INIT 6f94 28 .cfa: sp 0 +
STACK CFI INIT 6fbc 190 .cfa: sp 0 +
STACK CFI INIT 714c 2c8 .cfa: sp 0 +
STACK CFI INIT 7414 8 .cfa: sp 0 +
STACK CFI INIT 741c 8 .cfa: sp 0 +
STACK CFI INIT 7424 44 .cfa: sp 0 +
STACK CFI INIT 7468 e8 .cfa: sp 0 +
STACK CFI INIT 7550 e8 .cfa: sp 0 +
STACK CFI INIT 7638 14 .cfa: sp 0 +
STACK CFI INIT 764c 10 .cfa: sp 0 +
STACK CFI INIT 765c 10 .cfa: sp 0 +
STACK CFI INIT 766c f0 .cfa: sp 0 +
STACK CFI INIT 775c 44 .cfa: sp 0 +
STACK CFI INIT 77a0 c .cfa: sp 0 +
STACK CFI INIT 77ac c .cfa: sp 0 +
STACK CFI INIT 77b8 2c .cfa: sp 0 +
STACK CFI INIT 77e4 280 .cfa: sp 0 +
STACK CFI INIT 7a64 c .cfa: sp 0 +
STACK CFI INIT 7a70 120 .cfa: sp 0 +
STACK CFI INIT 7b90 488 .cfa: sp 0 +
STACK CFI INIT 8018 c48 .cfa: sp 0 +
STACK CFI INIT 8c60 134 .cfa: sp 0 +
STACK CFI INIT 8d94 210 .cfa: sp 0 +
STACK CFI INIT 8fa4 38c .cfa: sp 0 +
STACK CFI INIT 9330 1c8 .cfa: sp 0 +
STACK CFI INIT 94f8 9bc .cfa: sp 0 +
STACK CFI INIT 9eb4 2d4 .cfa: sp 0 +
STACK CFI INIT a188 134 .cfa: sp 0 +
STACK CFI INIT a2bc 120 .cfa: sp 0 +
STACK CFI INIT a3dc 1c8 .cfa: sp 0 +
STACK CFI INIT a5a4 168 .cfa: sp 0 +
STACK CFI INIT a70c fc .cfa: sp 0 +
STACK CFI INIT a808 30 .cfa: sp 0 +
STACK CFI INIT a970 30 .cfa: sp 0 +
STACK CFI INIT a9a0 98 .cfa: sp 0 +
STACK CFI INIT aa38 59c .cfa: sp 0 +
STACK CFI INIT afd4 8c .cfa: sp 0 +
STACK CFI INIT b060 30 .cfa: sp 0 +
STACK CFI INIT c100 18 .cfa: sp 0 +
STACK CFI INIT c118 18 .cfa: sp 0 +
STACK CFI INIT c130 18 .cfa: sp 0 +
STACK CFI INIT c148 18 .cfa: sp 0 +
STACK CFI INIT c4ec 50 .cfa: sp 0 +
STACK CFI c4f0 .cfa: sp 32 +
STACK CFI c4f8 .cfa: x29 32 + x19: .cfa -16 + ^ .ra: .cfa -24 + ^ x29: .cfa -32 + ^
STACK CFI c510 .cfa: sp 32 +
STACK CFI c518 .cfa: sp 0 +
STACK CFI c51c .cfa: x29 32 +
STACK CFI c530 .cfa: sp 32 +
STACK CFI c538 .cfa: sp 0 +
STACK CFI INIT c5b0 7c .cfa: sp 0 +
STACK CFI c5b4 .cfa: sp 48 +
STACK CFI c5c0 .cfa: x29 48 + x19: .cfa -8 + ^ x20: .cfa -16 + ^ x21: .cfa -32 + ^ .ra: .cfa -40 + ^ x29: .cfa -48 + ^
STACK CFI c60c .cfa: sp 48 +
STACK CFI c618 .cfa: sp 0 +
STACK CFI c61c .cfa: sp 48 +
STACK CFI c628 .cfa: sp 0 +
STACK CFI INIT c62c 4 .cfa: sp 0 +
STACK CFI INIT c630 10 .cfa: sp 0 +
STACK CFI c634 .cfa: sp 16 +
STACK CFI c638 .cfa: x29 16 + .ra: .cfa -8 + ^ x29: .cfa -16 + ^
STACK CFI INIT cd20 34 .cfa: sp 0 +
STACK CFI cd24 .cfa: sp 16 +
STACK CFI cd28 .cfa: x29 16 + .ra: .cfa -8 + ^ x29: .cfa -16 + ^
STACK CFI INIT cd54 80 .cfa: sp 0 +
STACK CFI cd58 .cfa: sp 48 +
STACK CFI cd64 .cfa: x29 48 + x19: .cfa -8 + ^ x20: .cfa -16 + ^ x21: .cfa -32 + ^ .ra: .cfa -40 + ^ x29: .cfa -48 + ^
STACK CFI cdc4 .cfa: sp 48 +
STACK CFI cdd0 .cfa: sp 0 +
STACK CFI INIT cdd4 24 .cfa: sp 0 +
STACK CFI cdd8 .cfa: sp 32 +
STACK CFI cde0 .cfa: x29 32 + x19: .cfa -16 + ^ .ra: .cfa -24 + ^ x29: .cfa -32 + ^
STACK CFI cdec .cfa: sp 32 +
STACK CFI cdf4 .cfa: sp 0 +
STACK CFI INIT cdf8 14 .cfa: sp 0 +
STACK CFI cdfc .cfa: sp 16 +
STACK CFI ce00 .cfa: x29 16 + .ra: .cfa -8 + ^ x29: .cfa -16 + ^
STACK CFI INIT ce5c 30 .cfa: sp 0 +
STACK CFI ce60 .cfa: sp 32 +
STACK CFI ce68 .cfa: x29 32 + x19: .cfa -16 + ^ .ra: .cfa -24 + ^ x29: .cfa -32 + ^
STACK CFI ce80 .cfa: sp 32 +
STACK CFI ce88 .cfa: sp 0 +
STACK CFI INIT ce8c 34 .cfa: sp 0 +
STACK CFI ce90 .cfa: sp 32 +
STACK CFI ce98 .cfa: x29 32 + x19: .cfa -16 + ^ .ra: .cfa -24 + ^ x29: .cfa -32 + ^
STACK CFI INIT d0d8 6c .cfa: sp 0 +
STACK CFI d0dc .cfa: sp 48 +
STACK CFI d0e8 .cfa: x29 48 + x19: .cfa -8 + ^ x20: .cfa -16 + ^ x21: .cfa -24 + ^ x22: .cfa -32 + ^ .ra: .cfa -40 + ^ x29: .cfa -48 + ^
STACK CFI d130 .cfa: sp 48 +
STACK CFI d13c .cfa: sp 0 +
STACK CFI d140 .cfa: x29 48 +
STACK CFI INIT d144 68 .cfa: sp 0 +
STACK CFI d148 .cfa: sp 32 +
STACK CFI d150 .cfa: x29 32 + x19: .cfa -8 + ^ x20: .cfa -16 + ^ .ra: .cfa -24 + ^ x29: .cfa -32 + ^
STACK CFI d168 .cfa: sp 32 +
STACK CFI d170 .cfa: sp 0 +
STACK CFI d174 .cfa: x29 32 +
STACK CFI d1a0 .cfa: sp 32 +
STACK CFI d1a8 .cfa: sp 0 +
STACK CFI INIT d1ac 14 .cfa: sp 0 +
STACK CFI d1b0 .cfa: sp 16 +
STACK CFI d1b4 .cfa: x29 16 + .ra: .cfa -8 + ^ x29: .cfa -16 + ^
STACK CFI INIT d1c0 4 .cfa: sp 0 +
STACK CFI INIT d1c4 14 .cfa: sp 0 +
STACK CFI INIT d1d8 fc .cfa: sp 0 +
STACK CFI d1dc .cfa: sp 64 +
STACK CFI d1ec .cfa: x29 64 + x19: .cfa -8 + ^ x20: .cfa -16 + ^ x21: .cfa -24 + ^ x22: .cfa -32 + ^ x23: .cfa -40 + ^ x24: .cfa -48 + ^ .ra: .cfa -56 + ^ x29: .cfa -64 + ^
STACK CFI d2c0 .cfa: sp 64 +
STACK CFI d2d0 .cfa: sp 0 +
STACK CFI INIT d2d4 454 .cfa: sp 0 +
STACK CFI d2d8 .cfa: sp 32 +
STACK CFI d2e0 .cfa: x29 32 + x19: .cfa -8 + ^ x20: .cfa -16 + ^ .ra: .cfa -24 + ^ x29: .cfa -32 + ^
STACK CFI d670 .cfa: sp 32 +
STACK CFI d678 .cfa: sp 0 +
STACK CFI d67c .cfa: x29 32 +
STACK CFI INIT d728 84 .cfa: sp 0 +
STACK CFI d730 .cfa: sp 32 +
STACK CFI d738 .cfa: x29 32 + x19: .cfa -8 + ^ x20: .cfa -16 + ^ .ra: .cfa -24 + ^ x29: .cfa -32 + ^
STACK CFI d778 .cfa: sp 32 +
STACK CFI d780 .cfa: sp 0 +
STACK CFI d788 .cfa: x29 32 +
STACK CFI INIT d854 298 .cfa: sp 0 +
STACK CFI d858 .cfa: sp 240 +
STACK CFI d87c .cfa: x29 72 + x19: .cfa -8 + ^ x20: .cfa -16 + ^ x21: .cfa -24 + ^ x22: .cfa -32 + ^ x23: .cfa -40 + ^ x24: .cfa -48 + ^ x25: .cfa -56 + ^ .ra: .cfa -64 + ^ x29: .cfa -72 + ^ v8: .cfa -80 + ^ v9: .cfa -88 + ^ v10: .cfa -96 + ^ v11: .cfa -104 + ^ v12: .cfa -112 + ^
STACK CFI dac0 .cfa: sp 240 +
STACK CFI dae4 .cfa: sp 0 +
STACK CFI dae8 .cfa: x29 72 +
STACK CFI INIT daec 7c .cfa: sp 0 +
STACK CFI daf0 .cfa: sp 32 +
STACK CFI daf8 .cfa: x29 32 + x19: .cfa -16 + ^ .ra: .cfa -24 + ^ x29: .cfa -32 + ^
STACK CFI db5c .cfa: sp 32 +
STACK CFI db64 .cfa: sp 0 +
STACK CFI INIT db68 50 .cfa: sp 0 +
STACK CFI db6c .cfa: sp 32 +
STACK CFI db74 .cfa: x29 32 + x19: .cfa -16 + ^ .ra: .cfa -24 + ^ x29: .cfa -32 + ^
STACK CFI db8c .cfa: sp 32 +
STACK CFI db94 .cfa: sp 0 +
STACK CFI db98 .cfa: x29 32 +
STACK CFI dbac .cfa: sp 32 +
STACK CFI dbb4 .cfa: sp 0 +
STACK CFI INIT dbb8 64 .cfa: sp 0 +
STACK CFI dbbc .cfa: sp 32 +
STACK CFI dbc4 .cfa: x29 32 + x19: .cfa -16 + ^ .ra: .cfa -24 + ^ x29: .cfa -32 + ^
STACK CFI dbf0 .cfa: sp 32 +
STACK CFI dbf8 .cfa: sp 0 +
STACK CFI dbfc .cfa: x29 32 +
STACK CFI dc10 .cfa: sp 32 +
STACK CFI dc18 .cfa: sp 0 +
STACK CFI INIT e238 4 .cfa: sp 0 +
STACK CFI INIT e23c 14 .cfa: sp 0 +
STACK CFI e240 .cfa: sp 16 +
STACK CFI e244 .cfa: x29 16 + .ra: .cfa -8 + ^ x29: .cfa -16 + ^
STACK CFI INIT e250 14 .cfa: sp 0 +
STACK CFI e254 .cfa: sp 16 +
STACK CFI e258 .cfa: x29 16 + .ra: .cfa -8 + ^ x29: .cfa -16 + ^
STACK CFI INIT e264 c .cfa: sp 0 +
STACK CFI e268 .cfa: sp 16 +
STACK CFI e26c .cfa: x29 16 + .ra: .cfa -8 + ^ x29: .cfa -16 + ^
STACK CFI INIT e2b8 38 .cfa: sp 0 +
STACK CFI e2bc .cfa: sp 32 +
STACK CFI e2c4 .cfa: x29 32 + x19: .cfa -16 + ^ .ra: .cfa -24 + ^ x29: .cfa -32 + ^
STACK CFI e2e4 .cfa: sp 32 +
STACK CFI e2ec .cfa: sp 0 +
STACK CFI INIT e2f0 c .cfa: sp 0 +
STACK CFI e2f4 .cfa: sp 16 +
STACK CFI e2f8 .cfa: x29 16 + .ra: .cfa -8 + ^ x29: .cfa -16 + ^
STACK CFI INIT e2fc 4 .cfa: sp 0 +
STACK CFI INIT e300 4 .cfa: sp 0 +
STACK CFI INIT e304 38 .cfa: sp 0 +
STACK CFI e308 .cfa: sp 32 +
STACK CFI e310 .cfa: x29 32 + x19: .cfa -16 + ^ .ra: .cfa -24 + ^ x29: .cfa -32 + ^
STACK CFI e330 .cfa: sp 32 +
STACK CFI e338 .cfa: sp 0 +
STACK CFI INIT e33c 18 .cfa: sp 0 +
STACK CFI INIT e354 4 .cfa: sp 0 +
STACK CFI INIT e358 4 .cfa: sp 0 +
STACK CFI INIT e35c 10 .cfa: sp 0 +
STACK CFI INIT e36c 1c .cfa: sp 0 +
STACK CFI INIT e388 c .cfa: sp 0 +
STACK CFI INIT e394 104 .cfa: sp 0 +
STACK CFI e398 .cfa: sp 80 +
STACK CFI e3ac .cfa: x29 80 + x19: .cfa -8 + ^ x20: .cfa -16 + ^ x21: .cfa -24 + ^ x22: .cfa -32 + ^ x23: .cfa -40 + ^ x24: .cfa -48 + ^ x25: .cfa -56 + ^ x26: .cfa -64 + ^ .ra: .cfa -72 + ^ x29: .cfa -80 + ^
STACK CFI e480 .cfa: sp 80 +
STACK CFI e494 .cfa: sp 0 +
STACK CFI INIT e498 19c .cfa: sp 0 +
STACK CFI INIT e9e4 4 .cfa: sp 0 +
STACK CFI INIT eccc 130 .cfa: sp 0 +
STACK CFI ecd0 .cfa: sp 80 +
STACK CFI ece0 .cfa: x29 48 + x19: .cfa -8 + ^ x20: .cfa -16 + ^ x21: .cfa -24 + ^ x22: .cfa -32 + ^ .ra: .cfa -40 + ^ x29: .cfa -48 + ^
STACK CFI ede4 .cfa: sp 80 +
STACK CFI edf4 .cfa: sp 0 +
STACK CFI edf8 .cfa: x29 48 +
STACK CFI INIT edfc 128 .cfa: sp 0 +
STACK CFI ee00 .cfa: sp 80 +
STACK CFI ee10 .cfa: x29 48 + x19: .cfa -8 + ^ x20: .cfa -16 + ^ x21: .cfa -24 + ^ x22: .cfa -32 + ^ .ra: .cfa -40 + ^ x29: .cfa -48 + ^
STACK CFI ef0c .cfa: sp 80 +
STACK CFI ef1c .cfa: sp 0 +
STACK CFI ef20 .cfa: x29 48 +
STACK CFI INIT ef24 d8 .cfa: sp 0 +
STACK CFI ef28 .cfa: sp 64 +
STACK CFI ef38 .cfa: x29 64 + x19: .cfa -8 + ^ x20: .cfa -16 + ^ x21: .cfa -24 + ^ x22: .cfa -32 + ^ x23: .cfa -48 + ^ .ra: .cfa -56 + ^ x29: .cfa -64 + ^
STACK CFI efb0 .cfa: sp 64 +
STACK CFI efc0 .cfa: sp 0 +
STACK CFI efc4 .cfa: x29 64 +
STACK CFI INIT effc 4 .cfa: sp 0 +
STACK CFI INIT f000 38 .cfa: sp 0 +
STACK CFI f004 .cfa: sp 32 +
STACK CFI f00c .cfa: x29 32 + x19: .cfa -16 + ^ .ra: .cfa -24 + ^ x29: .cfa -32 + ^
STACK CFI f02c .cfa: sp 32 +
STACK CFI f034 .cfa: sp 0 +
STACK CFI INIT f038 18 .cfa: sp 0 +
STACK CFI INIT f050 4 .cfa: sp 0 +
STACK CFI INIT f054 4 .cfa: sp 0 +
STACK CFI INIT f124 1c .cfa: sp 0 +
STACK CFI INIT f140 c .cfa: sp 0 +
STACK CFI INIT f4f0 4 .cfa: sp 0 +
STACK CFI INIT f4f4 338 .cfa: sp 0 +
STACK CFI f4f8 .cfa: sp 80 +
STACK CFI f508 .cfa: x29 48 + x19: .cfa -8 + ^ x20: .cfa -16 + ^ x21: .cfa -24 + ^ x22: .cfa -32 + ^ .ra: .cfa -40 + ^ x29: .cfa -48 + ^
STACK CFI f814 .cfa: sp 80 +
STACK CFI f824 .cfa: sp 0 +
STACK CFI f828 .cfa: x29 48 +
STACK CFI INIT fbbc 4 .cfa: sp 0 +
STACK CFI INIT ff80 50 .cfa: sp 0 +
STACK CFI ff84 .cfa: sp 32 +
STACK CFI ff8c .cfa: x29 32 + x19: .cfa -16 + ^ .ra: .cfa -24 + ^ x29: .cfa -32 + ^
STACK CFI ffa4 .cfa: sp 32 +
STACK CFI ffac .cfa: sp 0 +
STACK CFI ffb0 .cfa: x29 32 +
STACK CFI ffc4 .cfa: sp 32 +
STACK CFI ffcc .cfa: sp 0 +
STACK CFI INIT ffd0 4 .cfa: sp 0 +
STACK CFI INIT ffd4 4 .cfa: sp 0 +
STACK CFI INIT ffd8 38 .cfa: sp 0 +
STACK CFI ffdc .cfa: sp 32 +
STACK CFI ffe4 .cfa: x29 32 + x19: .cfa -16 + ^ .ra: .cfa -24 + ^ x29: .cfa -32 + ^
STACK CFI 10004 .cfa: sp 32 +
STACK CFI 1000c .cfa: sp 0 +
STACK CFI INIT 10010 18 .cfa: sp 0 +
STACK CFI INIT 10028 4 .cfa: sp 0 +
STACK CFI INIT 1002c 4 .cfa: sp 0 +
STACK CFI INIT 10030 68 .cfa: sp 0 +
STACK CFI 10034 .cfa: sp 32 +
STACK CFI 1003c .cfa: x29 32 + x19: .cfa -16 + ^ .ra: .cfa -24 + ^ x29: .cfa -32 + ^
STACK CFI 10080 .cfa: sp 32 +
STACK CFI 10088 .cfa: sp 0 +
STACK CFI 1008c .cfa: sp 32 +
STACK CFI 10094 .cfa: sp 0 +
STACK CFI INIT 10098 1c .cfa: sp 0 +
STACK CFI INIT 100b4 c .cfa: sp 0 +
STACK CFI INIT 100c0 30 .cfa: sp 0 +
STACK CFI 100c4 .cfa: sp 32 +
STACK CFI 100cc .cfa: x29 32 + x19: .cfa -16 + ^ .ra: .cfa -24 + ^ x29: .cfa -32 + ^
STACK CFI 100e4 .cfa: sp 32 +
STACK CFI 100ec .cfa: sp 0 +
STACK CFI INIT b090 41c .cfa: sp 0 +
STACK CFI b094 .cfa: sp 224 +
STACK CFI b0b0 .cfa: x29 96 + x19: .cfa -8 + ^ x20: .cfa -16 + ^ x21: .cfa -24 + ^ x22: .cfa -32 + ^ x23: .cfa -40 + ^ x24: .cfa -48 + ^ x25: .cfa -56 + ^ x26: .cfa -64 + ^ x27: .cfa -72 + ^ x28: .cfa -80 + ^ .ra: .cfa -88 + ^ x29: .cfa -96 + ^
STACK CFI b398 .cfa: sp 224 +
STACK CFI b3b4 .cfa: sp 0 +
STACK CFI b3b8 .cfa: x29 96 +
STACK CFI INIT b4ac 41c .cfa: sp 0 +
STACK CFI b4b0 .cfa: sp 224 +
STACK CFI b4cc .cfa: x29 96 + x19: .cfa -8 + ^ x20: .cfa -16 + ^ x21: .cfa -24 + ^ x22: .cfa -32 + ^ x23: .cfa -40 + ^ x24: .cfa -48 + ^ x25: .cfa -56 + ^ x26: .cfa -64 + ^ x27: .cfa -72 + ^ x28: .cfa -80 + ^ .ra: .cfa -88 + ^ x29: .cfa -96 + ^
STACK CFI b7b4 .cfa: sp 224 +
STACK CFI b7d0 .cfa: sp 0 +
STACK CFI b7d4 .cfa: x29 96 +
STACK CFI INIT b8c8 41c .cfa: sp 0 +
STACK CFI b8cc .cfa: sp 224 +
STACK CFI b8e8 .cfa: x29 96 + x19: .cfa -8 + ^ x20: .cfa -16 + ^ x21: .cfa -24 + ^ x22: .cfa -32 + ^ x23: .cfa -40 + ^ x24: .cfa -48 + ^ x25: .cfa -56 + ^ x26: .cfa -64 + ^ x27: .cfa -72 + ^ x28: .cfa -80 + ^ .ra: .cfa -88 + ^ x29: .cfa -96 + ^
STACK CFI bbd0 .cfa: sp 224 +
STACK CFI bbec .cfa: sp 0 +
STACK CFI bbf0 .cfa: x29 96 +
STACK CFI INIT bce4 41c .cfa: sp 0 +
STACK CFI bce8 .cfa: sp 224 +
STACK CFI bd04 .cfa: x29 96 + x19: .cfa -8 + ^ x20: .cfa -16 + ^ x21: .cfa -24 + ^ x22: .cfa -32 + ^ x23: .cfa -40 + ^ x24: .cfa -48 + ^ x25: .cfa -56 + ^ x26: .cfa -64 + ^ x27: .cfa -72 + ^ x28: .cfa -80 + ^ .ra: .cfa -88 + ^ x29: .cfa -96 + ^
STACK CFI bfec .cfa: sp 224 +
STACK CFI c008 .cfa: sp 0 +
STACK CFI c00c .cfa: x29 96 +
STACK CFI INIT c160 38c .cfa: sp 0 +
STACK CFI c164 .cfa: sp 256 +
STACK CFI c178 .cfa: x29 64 + x19: .cfa -8 + ^ x20: .cfa -16 + ^ x21: .cfa -24 + ^ x22: .cfa -32 + ^ x23: .cfa -48 + ^ .ra: .cfa -56 + ^ x29: .cfa -64 + ^
STACK CFI c3e8 .cfa: sp 256 +
STACK CFI c3fc .cfa: sp 0 +
STACK CFI c400 .cfa: x29 64 +
STACK CFI INIT c53c 74 .cfa: sp 0 +
STACK CFI c540 .cfa: sp 48 +
STACK CFI c54c .cfa: x29 32 + x19: .cfa -8 + ^ x20: .cfa -16 + ^ .ra: .cfa -24 + ^ x29: .cfa -32 + ^
STACK CFI c598 .cfa: sp 48 +
STACK CFI c5a4 .cfa: sp 0 +
STACK CFI c5a8 .cfa: x29 32 +
STACK CFI INIT c640 6e0 .cfa: sp 0 +
STACK CFI c644 .cfa: sp 496 +
STACK CFI c660 .cfa: x29 96 + x19: .cfa -8 + ^ x20: .cfa -16 + ^ x21: .cfa -24 + ^ x22: .cfa -32 + ^ x23: .cfa -40 + ^ x24: .cfa -48 + ^ x25: .cfa -56 + ^ x26: .cfa -64 + ^ x27: .cfa -72 + ^ x28: .cfa -80 + ^ .ra: .cfa -88 + ^ x29: .cfa -96 + ^
STACK CFI cbf4 .cfa: sp 496 +
STACK CFI cc10 .cfa: sp 0 +
STACK CFI cc14 .cfa: x29 96 +
STACK CFI INIT ce0c 50 .cfa: sp 0 +
STACK CFI ce10 .cfa: sp 32 +
STACK CFI ce18 .cfa: x29 32 + x19: .cfa -8 + ^ x20: .cfa -16 + ^ .ra: .cfa -24 + ^ x29: .cfa -32 + ^
STACK CFI INIT cec0 218 .cfa: sp 0 +
STACK CFI cec4 .cfa: sp 128 +
STACK CFI cedc .cfa: x29 80 + x19: .cfa -8 + ^ x20: .cfa -16 + ^ x21: .cfa -24 + ^ x22: .cfa -32 + ^ x23: .cfa -40 + ^ x24: .cfa -48 + ^ x25: .cfa -64 + ^ .ra: .cfa -72 + ^ x29: .cfa -80 + ^
STACK CFI d06c .cfa: sp 128 +
STACK CFI d084 .cfa: sp 0 +
STACK CFI d088 .cfa: x29 80 +
STACK CFI INIT d7ac a8 .cfa: sp 0 +
STACK CFI d7b0 .cfa: sp 32 +
STACK CFI d7b8 .cfa: x29 32 + x19: .cfa -8 + ^ x20: .cfa -16 + ^ .ra: .cfa -24 + ^ x29: .cfa -32 + ^
STACK CFI d7ec .cfa: sp 32 +
STACK CFI d7f4 .cfa: sp 0 +
STACK CFI d7f8 .cfa: x29 32 +
STACK CFI d7fc .cfa: sp 32 +
STACK CFI d804 .cfa: sp 0 +
STACK CFI d808 .cfa: x29 32 +
STACK CFI INIT dc1c 61c .cfa: sp 0 +
STACK CFI dc20 .cfa: sp 176 +
STACK CFI dc3c .cfa: x29 96 + x19: .cfa -8 + ^ x20: .cfa -16 + ^ x21: .cfa -24 + ^ x22: .cfa -32 + ^ x23: .cfa -40 + ^ x24: .cfa -48 + ^ x25: .cfa -56 + ^ x26: .cfa -64 + ^ x27: .cfa -72 + ^ x28: .cfa -80 + ^ .ra: .cfa -88 + ^ x29: .cfa -96 + ^
STACK CFI e0d8 .cfa: sp 176 +
STACK CFI e0f4 .cfa: sp 0 +
STACK CFI e0f8 .cfa: x29 96 +
STACK CFI INIT e270 48 .cfa: sp 0 +
STACK CFI e274 .cfa: sp 32 +
STACK CFI e27c .cfa: x29 32 + x19: .cfa -8 + ^ x20: .cfa -16 + ^ .ra: .cfa -24 + ^ x29: .cfa -32 + ^
STACK CFI INIT e634 3b0 .cfa: sp 0 +
STACK CFI e638 .cfa: sp 208 +
STACK CFI e64c .cfa: x29 64 + x19: .cfa -8 + ^ x20: .cfa -16 + ^ x21: .cfa -24 + ^ x22: .cfa -32 + ^ x23: .cfa -48 + ^ .ra: .cfa -56 + ^ x29: .cfa -64 + ^
STACK CFI e8d4 .cfa: sp 208 +
STACK CFI e8e8 .cfa: sp 0 +
STACK CFI e8ec .cfa: x29 64 +
STACK CFI INIT e9e8 2e4 .cfa: sp 0 +
STACK CFI e9ec .cfa: sp 128 +
STACK CFI ea00 .cfa: x29 64 + x19: .cfa -8 + ^ x20: .cfa -16 + ^ x21: .cfa -24 + ^ x22: .cfa -32 + ^ x23: .cfa -48 + ^ .ra: .cfa -56 + ^ x29: .cfa -64 + ^
STACK CFI ec64 .cfa: sp 128 +
STACK CFI ec78 .cfa: sp 0 +
STACK CFI ec7c .cfa: x29 64 +
STACK CFI INIT f058 cc .cfa: sp 0 +
STACK CFI f05c .cfa: sp 64 +
STACK CFI f06c .cfa: x29 48 + x19: .cfa -8 + ^ x20: .cfa -16 + ^ x21: .cfa -32 + ^ .ra: .cfa -40 + ^ x29: .cfa -48 + ^
STACK CFI f0e8 .cfa: sp 64 +
STACK CFI f0f8 .cfa: sp 0 +
STACK CFI f0fc .cfa: x29 48 +
STACK CFI INIT f14c 3a4 .cfa: sp 0 +
STACK CFI f150 .cfa: sp 192 +
STACK CFI f164 .cfa: x29 64 + x19: .cfa -8 + ^ x20: .cfa -16 + ^ x21: .cfa -24 + ^ x22: .cfa -32 + ^ x23: .cfa -40 + ^ x24: .cfa -48 + ^ .ra: .cfa -56 + ^ x29: .cfa -64 + ^
STACK CFI f3e0 .cfa: sp 192 +
STACK CFI f3f4 .cfa: sp 0 +
STACK CFI f3f8 .cfa: x29 64 +
STACK CFI INIT f82c 390 .cfa: sp 0 +
STACK CFI f830 .cfa: sp 256 +
STACK CFI f844 .cfa: x29 64 + x19: .cfa -8 + ^ x20: .cfa -16 + ^ x21: .cfa -24 + ^ x22: .cfa -32 + ^ x23: .cfa -48 + ^ .ra: .cfa -56 + ^ x29: .cfa -64 + ^
STACK CFI fab0 .cfa: sp 256 +
STACK CFI fac4 .cfa: sp 0 +
STACK CFI fac8 .cfa: x29 64 +
STACK CFI INIT fbc0 3c0 .cfa: sp 0 +
STACK CFI fbc4 .cfa: sp 192 +
STACK CFI fbdc .cfa: x29 80 + x19: .cfa -8 + ^ x20: .cfa -16 + ^ x21: .cfa -24 + ^ x22: .cfa -32 + ^ x23: .cfa -40 + ^ x24: .cfa -48 + ^ x25: .cfa -64 + ^ .ra: .cfa -72 + ^ x29: .cfa -80 + ^
STACK CFI fec4 .cfa: sp 192 +
STACK CFI fedc .cfa: sp 0 +
STACK CFI fee0 .cfa: x29 80 +
