MODULE Linux arm64 129FBCF5C17D6A5EAC59AD1FCAFA72B90 smjs.gdintercept.android64.so
INFO CODE_ID F5BC9F127DC15E6AAC59AD1FCAFA72B952771DE5
INFO GENERATOR mozilla/dump_syms 2.3.4
PUBLIC 674b0 0 __on_dlclose
PUBLIC 674c0 0 __emutls_unregister_key
PUBLIC 674c8 0 __on_dlclose_late
PUBLIC 674d0 0 __atexit_handler_wrapper
PUBLIC 674e4 0 atexit
PUBLIC 67500 0 pthread_atfork
PUBLIC 67510 0 unwind_phase2
PUBLIC 67644 0 _Unwind_Resume
PUBLIC 676c8 0 unwind_phase2_forced
PUBLIC m 677bc 0 __unw_init_local
PUBLIC m 67864 0 __unw_get_reg
PUBLIC 678e0 0 __unw_step_stage2
PUBLIC m 678f4 0 __unw_get_proc_info
PUBLIC m 67934 0 __unw_resume
PUBLIC 6795c 0 libunwind::CFI_Parser<libunwind::LocalAddressSpace>::decodeFDE(libunwind::LocalAddressSpace&, unsigned long, libunwind::CFI_Parser<libunwind::LocalAddressSpace>::FDE_Info*, libunwind::CFI_Parser<libunwind::LocalAddressSpace>::CIE_Info*, bool)
PUBLIC 67aec 0 libunwind::CFI_Parser<libunwind::LocalAddressSpace>::parseCIE(libunwind::LocalAddressSpace&, unsigned long, libunwind::CFI_Parser<libunwind::LocalAddressSpace>::CIE_Info*)
PUBLIC 67db4 0 libunwind::AbstractUnwindCursor::~AbstractUnwindCursor()
PUBLIC 67dbc 0 libunwind::UnwindCursor<libunwind::LocalAddressSpace, libunwind::Registers_arm64>::~UnwindCursor()
PUBLIC 67dc4 0 libunwind::UnwindCursor<libunwind::LocalAddressSpace, libunwind::Registers_arm64>::validReg(int)
PUBLIC 67e08 0 libunwind::UnwindCursor<libunwind::LocalAddressSpace, libunwind::Registers_arm64>::getReg(int)
PUBLIC 67ef0 0 libunwind::UnwindCursor<libunwind::LocalAddressSpace, libunwind::Registers_arm64>::setReg(int, unsigned long)
PUBLIC 67fd8 0 libunwind::UnwindCursor<libunwind::LocalAddressSpace, libunwind::Registers_arm64>::validFloatReg(int)
PUBLIC 67fec 0 libunwind::UnwindCursor<libunwind::LocalAddressSpace, libunwind::Registers_arm64>::getFloatReg(int)
PUBLIC 67ffc 0 libunwind::UnwindCursor<libunwind::LocalAddressSpace, libunwind::Registers_arm64>::setFloatReg(int, double)
PUBLIC 6800c 0 libunwind::UnwindCursor<libunwind::LocalAddressSpace, libunwind::Registers_arm64>::step(bool)
PUBLIC 680fc 0 libunwind::UnwindCursor<libunwind::LocalAddressSpace, libunwind::Registers_arm64>::getInfo(unw_proc_info_t*)
PUBLIC 68140 0 libunwind::UnwindCursor<libunwind::LocalAddressSpace, libunwind::Registers_arm64>::jumpto()
PUBLIC 6814c 0 libunwind::UnwindCursor<libunwind::LocalAddressSpace, libunwind::Registers_arm64>::isSignalFrame()
PUBLIC 68158 0 libunwind::UnwindCursor<libunwind::LocalAddressSpace, libunwind::Registers_arm64>::getFunctionName(char*, unsigned long, unsigned long*)
PUBLIC 68184 0 libunwind::UnwindCursor<libunwind::LocalAddressSpace, libunwind::Registers_arm64>::setInfoBasedOnIPRegister(bool)
PUBLIC 68404 0 libunwind::UnwindCursor<libunwind::LocalAddressSpace, libunwind::Registers_arm64>::getRegisterName(int)
PUBLIC 68410 0 libunwind::UnwindCursor<libunwind::LocalAddressSpace, libunwind::Registers_arm64>::stepThroughSigReturn(libunwind::Registers_arm64&)
PUBLIC 68530 0 libunwind::DwarfInstructions<libunwind::LocalAddressSpace, libunwind::Registers_arm64>::stepWithDwarf(libunwind::LocalAddressSpace&, unsigned long, unsigned long, libunwind::Registers_arm64&, bool&, bool)
PUBLIC 689b8 0 libunwind::CFI_Parser<libunwind::LocalAddressSpace>::parseFDEInstructions(libunwind::LocalAddressSpace&, libunwind::CFI_Parser<libunwind::LocalAddressSpace>::FDE_Info const&, libunwind::CFI_Parser<libunwind::LocalAddressSpace>::CIE_Info const&, unsigned long, int, libunwind::CFI_Parser<libunwind::LocalAddressSpace>::PrologInfo*)
PUBLIC 69600 0 libunwind::DwarfInstructions<libunwind::LocalAddressSpace, libunwind::Registers_arm64>::getCFA(libunwind::LocalAddressSpace&, libunwind::CFI_Parser<libunwind::LocalAddressSpace>::PrologInfo const&, libunwind::Registers_arm64 const&)
PUBLIC 69734 0 libunwind::DwarfInstructions<libunwind::LocalAddressSpace, libunwind::Registers_arm64>::getSavedRegister(libunwind::LocalAddressSpace&, libunwind::Registers_arm64 const&, unsigned long, libunwind::CFI_Parser<libunwind::LocalAddressSpace>::RegisterLocation const&)
PUBLIC 69944 0 libunwind::LocalAddressSpace::getEncodedP(unsigned long&, unsigned long, unsigned char, unsigned long)
PUBLIC 69cd0 0 libunwind::LocalAddressSpace::getULEB128(unsigned long&, unsigned long)
PUBLIC 69e98 0 libunwind::DwarfInstructions<libunwind::LocalAddressSpace, libunwind::Registers_arm64>::evaluateExpression(unsigned long, libunwind::LocalAddressSpace&, libunwind::Registers_arm64 const&, unsigned long)
PUBLIC 6a854 0 libunwind::UnwindCursor<libunwind::LocalAddressSpace, libunwind::Registers_arm64>::getInfoFromDwarfSection(unsigned long, libunwind::UnwindInfoSections const&, unsigned int)
PUBLIC 6ab28 0 libunwind::findUnwindSectionsByPhdr(dl_phdr_info*, unsigned long, void*)
PUBLIC 6ac5c 0 libunwind::EHHeaderParser<libunwind::LocalAddressSpace>::decodeEHHdr(libunwind::LocalAddressSpace&, unsigned long, unsigned long, libunwind::EHHeaderParser<libunwind::LocalAddressSpace>::EHHeaderInfo&)
PUBLIC 6ad7c 0 libunwind::CFI_Parser<libunwind::LocalAddressSpace>::findFDE(libunwind::LocalAddressSpace&, unsigned long, unsigned long, unsigned long, unsigned long, libunwind::CFI_Parser<libunwind::LocalAddressSpace>::FDE_Info*, libunwind::CFI_Parser<libunwind::LocalAddressSpace>::CIE_Info*)
PUBLIC 6af44 0 libunwind::EHHeaderParser<libunwind::LocalAddressSpace>::findFDE(libunwind::LocalAddressSpace&, unsigned long, unsigned long, unsigned int, libunwind::CFI_Parser<libunwind::LocalAddressSpace>::FDE_Info*, libunwind::CFI_Parser<libunwind::LocalAddressSpace>::CIE_Info*)
PUBLIC 6b0ac 0 libunwind::EHHeaderParser<libunwind::LocalAddressSpace>::getTableEntrySize(unsigned char)
PUBLIC 6b1a8 0 libunwind::Registers_arm64::getRegisterName(int)
PUBLIC 6b1d8 0 __libunwind_Registers_arm64_jumpto
PUBLIC m 6b268 0 __unw_getcontext
PUBLIC 6b310 0 __aarch64_ldadd8_relax
PUBLIC 6b340 0 init_have_lse_atomics
PUBLIC 6b3d8 0 __init_cpu_features_constructor
PUBLIC 6b974 0 __init_cpu_features
PUBLIC 6ba00 0 __aarch64_ldadd8_acq_rel
PUBLIC 6ba30 0 geodeExecFunction6<(anonymous namespace)::ExecFuncUnique6>()
PUBLIC 6f7ec 0 geodeExecFunction277<(anonymous namespace)::ExecFuncUnique277>(geode::ModStateEvent*)
PUBLIC 6fa50 0 std::__ndk1::basic_string<char, std::__ndk1::char_traits<char>, std::__ndk1::allocator<char> >::basic_string[abi:ne180000]<0>()
PUBLIC 6faec 0 geode::Ref<keybinds::Bind>::~Ref()
PUBLIC 6fb08 0 keybinds::BindableAction::~BindableAction()
PUBLIC 6fbcc 0 std::__ndk1::vector<geode::Ref<keybinds::Bind>, std::__ndk1::allocator<geode::Ref<keybinds::Bind> > >::~vector[abi:ne180000]()
PUBLIC 6fc50 0 geode::EventListener<keybinds::InvokeBindFilter>::EventListener(std::__ndk1::function<geode::ListenerResult(keybinds::InvokeBindEvent*)>, keybinds::InvokeBindFilter)
PUBLIC 6fd7c 0 std::__ndk1::basic_string<char, std::__ndk1::char_traits<char>, std::__ndk1::allocator<char> >::__throw_length_error[abi:ne180000]() const
PUBLIC 6fd90 0 std::__ndk1::__throw_length_error[abi:ne180000](char const*)
PUBLIC 6fde0 0 std::length_error::length_error[abi:ne180000](char const*)
PUBLIC 6fe10 0 std::__throw_bad_array_new_length([abi:ne180000], void)
PUBLIC 6fe44 0 __clang_call_terminate
PUBLIC 6fe54 0 std::__ndk1::__exception_guard_exceptions<std::__ndk1::vector<geode::Ref<keybinds::Bind>, std::__ndk1::allocator<geode::Ref<keybinds::Bind> > >::__destroy_vector>::~__exception_guard_exceptions[abi:ne180000]()
PUBLIC 6fee8 0 std::__ndk1::__exception_guard_exceptions<std::__ndk1::_AllocatorDestroyRangeReverse<std::__ndk1::allocator<geode::Ref<keybinds::Bind> >, geode::Ref<keybinds::Bind>*> >::~__exception_guard_exceptions[abi:ne180000]()
PUBLIC 6ff30 0 std::__ndk1::__function::__base<geode::ListenerResult(keybinds::InvokeBindEvent*)>::~__base()
PUBLIC 6ff34 0 std::__ndk1::__function::__func<geodeExecFunction6<(anonymous namespace)::ExecFuncUnique6>()::{lambda(keybinds::InvokeBindEvent const*)#1}, std::__ndk1::allocator<geodeExecFunction6<(anonymous namespace)::ExecFuncUnique6>()::{lambda(keybinds::InvokeBindEvent const*)#1}>, geode::ListenerResult(keybinds::InvokeBindEvent*)>::~__func()
PUBLIC 6ff38 0 std::__ndk1::__function::__func<geodeExecFunction6<(anonymous namespace)::ExecFuncUnique6>()::{lambda(keybinds::InvokeBindEvent const*)#1}, std::__ndk1::allocator<geodeExecFunction6<(anonymous namespace)::ExecFuncUnique6>()::{lambda(keybinds::InvokeBindEvent const*)#1}>, geode::ListenerResult(keybinds::InvokeBindEvent*)>::__clone() const
PUBLIC 6ff5c 0 std::__ndk1::__function::__func<geodeExecFunction6<(anonymous namespace)::ExecFuncUnique6>()::{lambda(keybinds::InvokeBindEvent const*)#1}, std::__ndk1::allocator<geodeExecFunction6<(anonymous namespace)::ExecFuncUnique6>()::{lambda(keybinds::InvokeBindEvent const*)#1}>, geode::ListenerResult(keybinds::InvokeBindEvent*)>::__clone(std::__ndk1::__function::__base<geode::ListenerResult(keybinds::InvokeBindEvent*)>*) const
PUBLIC 6ff6c 0 std::__ndk1::__function::__func<geodeExecFunction6<(anonymous namespace)::ExecFuncUnique6>()::{lambda(keybinds::InvokeBindEvent const*)#1}, std::__ndk1::allocator<geodeExecFunction6<(anonymous namespace)::ExecFuncUnique6>()::{lambda(keybinds::InvokeBindEvent const*)#1}>, geode::ListenerResult(keybinds::InvokeBindEvent*)>::destroy()
PUBLIC 6ff70 0 std::__ndk1::__function::__func<geodeExecFunction6<(anonymous namespace)::ExecFuncUnique6>()::{lambda(keybinds::InvokeBindEvent const*)#1}, std::__ndk1::allocator<geodeExecFunction6<(anonymous namespace)::ExecFuncUnique6>()::{lambda(keybinds::InvokeBindEvent const*)#1}>, geode::ListenerResult(keybinds::InvokeBindEvent*)>::destroy_deallocate()
PUBLIC 6ff74 0 std::__ndk1::__function::__func<geodeExecFunction6<(anonymous namespace)::ExecFuncUnique6>()::{lambda(keybinds::InvokeBindEvent const*)#1}, std::__ndk1::allocator<geodeExecFunction6<(anonymous namespace)::ExecFuncUnique6>()::{lambda(keybinds::InvokeBindEvent const*)#1}>, geode::ListenerResult(keybinds::InvokeBindEvent*)>::operator()(keybinds::InvokeBindEvent*&&)
PUBLIC 6ff98 0 std::__ndk1::__function::__func<geodeExecFunction6<(anonymous namespace)::ExecFuncUnique6>()::{lambda(keybinds::InvokeBindEvent const*)#1}, std::__ndk1::allocator<geodeExecFunction6<(anonymous namespace)::ExecFuncUnique6>()::{lambda(keybinds::InvokeBindEvent const*)#1}>, geode::ListenerResult(keybinds::InvokeBindEvent*)>::target(std::type_info const&) const
PUBLIC 6ffb4 0 std::__ndk1::__function::__func<geodeExecFunction6<(anonymous namespace)::ExecFuncUnique6>()::{lambda(keybinds::InvokeBindEvent const*)#1}, std::__ndk1::allocator<geodeExecFunction6<(anonymous namespace)::ExecFuncUnique6>()::{lambda(keybinds::InvokeBindEvent const*)#1}>, geode::ListenerResult(keybinds::InvokeBindEvent*)>::target_type() const
PUBLIC 6ffc0 0 geode::EventListener<keybinds::InvokeBindFilter>::getPool() const
PUBLIC 6ffc4 0 geode::EventListener<keybinds::InvokeBindFilter>::handle(geode::Event*)
PUBLIC 70138 0 geode::EventListener<keybinds::InvokeBindFilter>::~EventListener()
PUBLIC 701a4 0 geode::EventListener<keybinds::InvokeBindFilter>::~EventListener()
PUBLIC 70218 0 std::__ndk1::basic_string<char, std::__ndk1::char_traits<char>, std::__ndk1::allocator<char> >::__init_copy_ctor_external(char const*, unsigned long)
PUBLIC 70298 0 geode::cast::traverseTypeinfoFor(void*, geode::cast::ClassTypeinfoType const*, char const*)
PUBLIC 7039c 0 proxy::ProxyFilter<proxy::RequestEvent>::~ProxyFilter()
PUBLIC 70418 0 proxy::ProxyFilter<proxy::ResponseEvent>::~ProxyFilter()
PUBLIC 70494 0 proxy::ProxyFilter<proxy::CancelEvent>::~ProxyFilter()
PUBLIC 70510 0 std::__ndk1::__function::__base<geode::ListenerResult(proxy::RequestEvent*)>::~__base()
PUBLIC 70514 0 std::__ndk1::__function::__func<geodeExecFunction189<(anonymous namespace)::ExecFuncUnique189>()::{lambda(proxy::RequestEvent const*)#1}, std::__ndk1::allocator<geodeExecFunction189<(anonymous namespace)::ExecFuncUnique189>()::{lambda(proxy::RequestEvent const*)#1}>, geode::ListenerResult(proxy::RequestEvent*)>::~__func()
PUBLIC 70518 0 std::__ndk1::__function::__func<geodeExecFunction189<(anonymous namespace)::ExecFuncUnique189>()::{lambda(proxy::RequestEvent const*)#1}, std::__ndk1::allocator<geodeExecFunction189<(anonymous namespace)::ExecFuncUnique189>()::{lambda(proxy::RequestEvent const*)#1}>, geode::ListenerResult(proxy::RequestEvent*)>::__clone() const
PUBLIC 7053c 0 std::__ndk1::__function::__func<geodeExecFunction189<(anonymous namespace)::ExecFuncUnique189>()::{lambda(proxy::RequestEvent const*)#1}, std::__ndk1::allocator<geodeExecFunction189<(anonymous namespace)::ExecFuncUnique189>()::{lambda(proxy::RequestEvent const*)#1}>, geode::ListenerResult(proxy::RequestEvent*)>::__clone(std::__ndk1::__function::__base<geode::ListenerResult(proxy::RequestEvent*)>*) const
PUBLIC 7054c 0 std::__ndk1::__function::__func<geodeExecFunction189<(anonymous namespace)::ExecFuncUnique189>()::{lambda(proxy::RequestEvent const*)#1}, std::__ndk1::allocator<geodeExecFunction189<(anonymous namespace)::ExecFuncUnique189>()::{lambda(proxy::RequestEvent const*)#1}>, geode::ListenerResult(proxy::RequestEvent*)>::destroy()
PUBLIC 70550 0 std::__ndk1::__function::__func<geodeExecFunction189<(anonymous namespace)::ExecFuncUnique189>()::{lambda(proxy::RequestEvent const*)#1}, std::__ndk1::allocator<geodeExecFunction189<(anonymous namespace)::ExecFuncUnique189>()::{lambda(proxy::RequestEvent const*)#1}>, geode::ListenerResult(proxy::RequestEvent*)>::destroy_deallocate()
PUBLIC 70554 0 std::__ndk1::__function::__func<geodeExecFunction189<(anonymous namespace)::ExecFuncUnique189>()::{lambda(proxy::RequestEvent const*)#1}, std::__ndk1::allocator<geodeExecFunction189<(anonymous namespace)::ExecFuncUnique189>()::{lambda(proxy::RequestEvent const*)#1}>, geode::ListenerResult(proxy::RequestEvent*)>::operator()(proxy::RequestEvent*&&)
PUBLIC 70afc 0 std::__ndk1::__function::__func<geodeExecFunction189<(anonymous namespace)::ExecFuncUnique189>()::{lambda(proxy::RequestEvent const*)#1}, std::__ndk1::allocator<geodeExecFunction189<(anonymous namespace)::ExecFuncUnique189>()::{lambda(proxy::RequestEvent const*)#1}>, geode::ListenerResult(proxy::RequestEvent*)>::target(std::type_info const&) const
PUBLIC 70b18 0 std::__ndk1::__function::__func<geodeExecFunction189<(anonymous namespace)::ExecFuncUnique189>()::{lambda(proxy::RequestEvent const*)#1}, std::__ndk1::allocator<geodeExecFunction189<(anonymous namespace)::ExecFuncUnique189>()::{lambda(proxy::RequestEvent const*)#1}>, geode::ListenerResult(proxy::RequestEvent*)>::target_type() const
PUBLIC 70b24 0 geode::Mod::getSettingValue<bool>(std::__ndk1::basic_string_view<char, std::__ndk1::char_traits<char> >) const
PUBLIC 70c58 0 proxy::URL::~URL()
PUBLIC 70e40 0 proxy::HttpInfo::Request::~Request()
PUBLIC 70e94 0 std::__ndk1::shared_ptr<geode::SettingV3>::~shared_ptr[abi:ne180000]()
PUBLIC 70ee4 0 proxy::URL::URL(proxy::URL const&)
PUBLIC 71364 0 nlohmann::json_abi_v3_11_3::basic_json<std::__ndk1::map, std::__ndk1::vector, std::__ndk1::basic_string<char, std::__ndk1::char_traits<char>, std::__ndk1::allocator<char> >, bool, long, unsigned long, double, std::__ndk1::allocator, nlohmann::json_abi_v3_11_3::adl_serializer, std::__ndk1::vector<unsigned char, std::__ndk1::allocator<unsigned char> >, void>::basic_json(nlohmann::json_abi_v3_11_3::basic_json<std::__ndk1::map, std::__ndk1::vector, std::__ndk1::basic_string<char, std::__ndk1::char_traits<char>, std::__ndk1::allocator<char> >, bool, long, unsigned long, double, std::__ndk1::allocator, nlohmann::json_abi_v3_11_3::adl_serializer, std::__ndk1::vector<unsigned char, std::__ndk1::allocator<unsigned char> >, void> const&)
PUBLIC 71684 0 std::__ndk1::vector<std::__ndk1::basic_string<char, std::__ndk1::char_traits<char>, std::__ndk1::allocator<char> >, std::__ndk1::allocator<std::__ndk1::basic_string<char, std::__ndk1::char_traits<char>, std::__ndk1::allocator<char> > > >::~vector[abi:ne180000]()
PUBLIC 71700 0 std::__ndk1::vector<std::__ndk1::basic_string<char, std::__ndk1::char_traits<char>, std::__ndk1::allocator<char> >, std::__ndk1::allocator<std::__ndk1::basic_string<char, std::__ndk1::char_traits<char>, std::__ndk1::allocator<char> > > >::__init_with_size[abi:ne180000]<std::__ndk1::basic_string<char, std::__ndk1::char_traits<char>, std::__ndk1::allocator<char> >*, std::__ndk1::vector<std::__ndk1::basic_string<char, std::__ndk1::char_traits<char>, std::__ndk1::allocator<char> >, std::__ndk1::allocator<std::__ndk1::basic_string<char, std::__ndk1::char_traits<char>, std::__ndk1::allocator<char> > > >::__init_with_size[abi:ne180000]>(std::__ndk1::basic_string<char, std::__ndk1::char_traits<char>, std::__ndk1::allocator<char> >*, std::__ndk1::vector<std::__ndk1::basic_string<char, std::__ndk1::char_traits<char>, std::__ndk1::allocator<char> >, std::__ndk1::allocator<std::__ndk1::basic_string<char, std::__ndk1::char_traits<char>, std::__ndk1::allocator<char> > > >::__init_with_size[abi:ne180000], unsigned long)
PUBLIC 7186c 0 std::__ndk1::__exception_guard_exceptions<std::__ndk1::vector<std::__ndk1::basic_string<char, std::__ndk1::char_traits<char>, std::__ndk1::allocator<char> >, std::__ndk1::allocator<std::__ndk1::basic_string<char, std::__ndk1::char_traits<char>, std::__ndk1::allocator<char> > > >::__destroy_vector>::~__exception_guard_exceptions[abi:ne180000]()
PUBLIC 718f8 0 std::__ndk1::vector<std::__ndk1::basic_string<char, std::__ndk1::char_traits<char>, std::__ndk1::allocator<char> >, std::__ndk1::allocator<std::__ndk1::basic_string<char, std::__ndk1::char_traits<char>, std::__ndk1::allocator<char> > > >::__throw_length_error[abi:ne180000]() const
PUBLIC 7190c 0 std::__ndk1::__exception_guard_exceptions<std::__ndk1::_AllocatorDestroyRangeReverse<std::__ndk1::allocator<std::__ndk1::basic_string<char, std::__ndk1::char_traits<char>, std::__ndk1::allocator<char> > >, std::__ndk1::basic_string<char, std::__ndk1::char_traits<char>, std::__ndk1::allocator<char> >*> >::~__exception_guard_exceptions[abi:ne180000]()
PUBLIC 7196c 0 nlohmann::json_abi_v3_11_3::basic_json<std::__ndk1::map, std::__ndk1::vector, std::__ndk1::basic_string<char, std::__ndk1::char_traits<char>, std::__ndk1::allocator<char> >, bool, long, unsigned long, double, std::__ndk1::allocator, nlohmann::json_abi_v3_11_3::adl_serializer, std::__ndk1::vector<unsigned char, std::__ndk1::allocator<unsigned char> >, void>::data::~data()
PUBLIC 71988 0 std::__ndk1::__tree<std::__ndk1::__value_type<std::__ndk1::basic_string<char, std::__ndk1::char_traits<char>, std::__ndk1::allocator<char> >, nlohmann::json_abi_v3_11_3::basic_json<std::__ndk1::map, std::__ndk1::vector, std::__ndk1::basic_string<char, std::__ndk1::char_traits<char>, std::__ndk1::allocator<char> >, bool, long, unsigned long, double, std::__ndk1::allocator, nlohmann::json_abi_v3_11_3::adl_serializer, std::__ndk1::vector<unsigned char, std::__ndk1::allocator<unsigned char> >, void> >, std::__ndk1::__map_value_compare<std::__ndk1::basic_string<char, std::__ndk1::char_traits<char>, std::__ndk1::allocator<char> >, std::__ndk1::__value_type<std::__ndk1::basic_string<char, std::__ndk1::char_traits<char>, std::__ndk1::allocator<char> >, nlohmann::json_abi_v3_11_3::basic_json<std::__ndk1::map, std::__ndk1::vector, std::__ndk1::basic_string<char, std::__ndk1::char_traits<char>, std::__ndk1::allocator<char> >, bool, long, unsigned long, double, std::__ndk1::allocator, nlohmann::json_abi_v3_11_3::adl_serializer, std::__ndk1::vector<unsigned char, std::__ndk1::allocator<unsigned char> >, void> >, std::__ndk1::less<void>, true>, std::__ndk1::allocator<std::__ndk1::__value_type<std::__ndk1::basic_string<char, std::__ndk1::char_traits<char>, std::__ndk1::allocator<char> >, nlohmann::json_abi_v3_11_3::basic_json<std::__ndk1::map, std::__ndk1::vector, std::__ndk1::basic_string<char, std::__ndk1::char_traits<char>, std::__ndk1::allocator<char> >, bool, long, unsigned long, double, std::__ndk1::allocator, nlohmann::json_abi_v3_11_3::adl_serializer, std::__ndk1::vector<unsigned char, std::__ndk1::allocator<unsigned char> >, void> > > >::__emplace_hint_unique_key_args<std::__ndk1::basic_string<char, std::__ndk1::char_traits<char>, std::__ndk1::allocator<char> >, std::__ndk1::pair<std::__ndk1::basic_string<char, std::__ndk1::char_traits<char>, std::__ndk1::allocator<char> > const, nlohmann::json_abi_v3_11_3::basic_json<std::__ndk1::map, std::__ndk1::vector, std::__ndk1::basic_string<char, std::__ndk1::char_traits<char>, std::__ndk1::allocator<char> >, bool, long, unsigned long, double, std::__ndk1::allocator, nlohmann::json_abi_v3_11_3::adl_serializer, std::__ndk1::vector<unsigned char, std::__ndk1::allocator<unsigned char> >, void> > const&>(std::__ndk1::__tree_const_iterator<std::__ndk1::__value_type<std::__ndk1::basic_string<char, std::__ndk1::char_traits<char>, std::__ndk1::allocator<char> >, nlohmann::json_abi_v3_11_3::basic_json<std::__ndk1::map, std::__ndk1::vector, std::__ndk1::basic_string<char, std::__ndk1::char_traits<char>, std::__ndk1::allocator<char> >, bool, long, unsigned long, double, std::__ndk1::allocator, nlohmann::json_abi_v3_11_3::adl_serializer, std::__ndk1::vector<unsigned char, std::__ndk1::allocator<unsigned char> >, void> >, std::__ndk1::__tree_node<std::__ndk1::__value_type<std::__ndk1::basic_string<char, std::__ndk1::char_traits<char>, std::__ndk1::allocator<char> >, nlohmann::json_abi_v3_11_3::basic_json<std::__ndk1::map, std::__ndk1::vector, std::__ndk1::basic_string<char, std::__ndk1::char_traits<char>, std::__ndk1::allocator<char> >, bool, long, unsigned long, double, std::__ndk1::allocator, nlohmann::json_abi_v3_11_3::adl_serializer, std::__ndk1::vector<unsigned char, std::__ndk1::allocator<unsigned char> >, void> >, void*>*, long>, std::__ndk1::basic_string<char, std::__ndk1::char_traits<char>, std::__ndk1::allocator<char> > const&, std::__ndk1::pair<std::__ndk1::basic_string<char, std::__ndk1::char_traits<char>, std::__ndk1::allocator<char> > const, nlohmann::json_abi_v3_11_3::basic_json<std::__ndk1::map, std::__ndk1::vector, std::__ndk1::basic_string<char, std::__ndk1::char_traits<char>, std::__ndk1::allocator<char> >, bool, long, unsigned long, double, std::__ndk1::allocator, nlohmann::json_abi_v3_11_3::adl_serializer, std::__ndk1::vector<unsigned char, std::__ndk1::allocator<unsigned char> >, void> > const&)
PUBLIC 71ae0 0 std::__ndk1::__tree<std::__ndk1::__value_type<std::__ndk1::basic_string<char, std::__ndk1::char_traits<char>, std::__ndk1::allocator<char> >, nlohmann::json_abi_v3_11_3::basic_json<std::__ndk1::map, std::__ndk1::vector, std::__ndk1::basic_string<char, std::__ndk1::char_traits<char>, std::__ndk1::allocator<char> >, bool, long, unsigned long, double, std::__ndk1::allocator, nlohmann::json_abi_v3_11_3::adl_serializer, std::__ndk1::vector<unsigned char, std::__ndk1::allocator<unsigned char> >, void> >, std::__ndk1::__map_value_compare<std::__ndk1::basic_string<char, std::__ndk1::char_traits<char>, std::__ndk1::allocator<char> >, std::__ndk1::__value_type<std::__ndk1::basic_string<char, std::__ndk1::char_traits<char>, std::__ndk1::allocator<char> >, nlohmann::json_abi_v3_11_3::basic_json<std::__ndk1::map, std::__ndk1::vector, std::__ndk1::basic_string<char, std::__ndk1::char_traits<char>, std::__ndk1::allocator<char> >, bool, long, unsigned long, double, std::__ndk1::allocator, nlohmann::json_abi_v3_11_3::adl_serializer, std::__ndk1::vector<unsigned char, std::__ndk1::allocator<unsigned char> >, void> >, std::__ndk1::less<void>, true>, std::__ndk1::allocator<std::__ndk1::__value_type<std::__ndk1::basic_string<char, std::__ndk1::char_traits<char>, std::__ndk1::allocator<char> >, nlohmann::json_abi_v3_11_3::basic_json<std::__ndk1::map, std::__ndk1::vector, std::__ndk1::basic_string<char, std::__ndk1::char_traits<char>, std::__ndk1::allocator<char> >, bool, long, unsigned long, double, std::__ndk1::allocator, nlohmann::json_abi_v3_11_3::adl_serializer, std::__ndk1::vector<unsigned char, std::__ndk1::allocator<unsigned char> >, void> > > >::__find_equal<std::__ndk1::basic_string<char, std::__ndk1::char_traits<char>, std::__ndk1::allocator<char> > >(std::__ndk1::__tree_const_iterator<std::__ndk1::__value_type<std::__ndk1::basic_string<char, std::__ndk1::char_traits<char>, std::__ndk1::allocator<char> >, nlohmann::json_abi_v3_11_3::basic_json<std::__ndk1::map, std::__ndk1::vector, std::__ndk1::basic_string<char, std::__ndk1::char_traits<char>, std::__ndk1::allocator<char> >, bool, long, unsigned long, double, std::__ndk1::allocator, nlohmann::json_abi_v3_11_3::adl_serializer, std::__ndk1::vector<unsigned char, std::__ndk1::allocator<unsigned char> >, void> >, std::__ndk1::__tree_node<std::__ndk1::__value_type<std::__ndk1::basic_string<char, std::__ndk1::char_traits<char>, std::__ndk1::allocator<char> >, nlohmann::json_abi_v3_11_3::basic_json<std::__ndk1::map, std::__ndk1::vector, std::__ndk1::basic_string<char, std::__ndk1::char_traits<char>, std::__ndk1::allocator<char> >, bool, long, unsigned long, double, std::__ndk1::allocator, nlohmann::json_abi_v3_11_3::adl_serializer, std::__ndk1::vector<unsigned char, std::__ndk1::allocator<unsigned char> >, void> >, void*>*, long>, std::__ndk1::__tree_end_node<std::__ndk1::__tree_node_base<void*>*>*&, std::__ndk1::__tree_node_base<void*>*&, std::__ndk1::basic_string<char, std::__ndk1::char_traits<char>, std::__ndk1::allocator<char> > const&)
PUBLIC 71ed0 0 std::__ndk1::unique_ptr<std::__ndk1::__tree_node<std::__ndk1::__value_type<std::__ndk1::basic_string<char, std::__ndk1::char_traits<char>, std::__ndk1::allocator<char> >, nlohmann::json_abi_v3_11_3::basic_json<std::__ndk1::map, std::__ndk1::vector, std::__ndk1::basic_string<char, std::__ndk1::char_traits<char>, std::__ndk1::allocator<char> >, bool, long, unsigned long, double, std::__ndk1::allocator, nlohmann::json_abi_v3_11_3::adl_serializer, std::__ndk1::vector<unsigned char, std::__ndk1::allocator<unsigned char> >, void> >, void*>, std::__ndk1::__tree_node_destructor<std::__ndk1::allocator<std::__ndk1::__tree_node<std::__ndk1::__value_type<std::__ndk1::basic_string<char, std::__ndk1::char_traits<char>, std::__ndk1::allocator<char> >, nlohmann::json_abi_v3_11_3::basic_json<std::__ndk1::map, std::__ndk1::vector, std::__ndk1::basic_string<char, std::__ndk1::char_traits<char>, std::__ndk1::allocator<char> >, bool, long, unsigned long, double, std::__ndk1::allocator, nlohmann::json_abi_v3_11_3::adl_serializer, std::__ndk1::vector<unsigned char, std::__ndk1::allocator<unsigned char> >, void> >, void*> > > >::~unique_ptr[abi:ne180000]()
PUBLIC 71f2c 0 std::__ndk1::__tree_balance_after_insert[abi:ne180000]<std::__ndk1::__tree_node_base<void*>*>(std::__ndk1::__tree_node_base<void*>*, std::__ndk1::__tree_node_base<void*>*)
PUBLIC 720dc 0 nlohmann::json_abi_v3_11_3::basic_json<std::__ndk1::map, std::__ndk1::vector, std::__ndk1::basic_string<char, std::__ndk1::char_traits<char>, std::__ndk1::allocator<char> >, bool, long, unsigned long, double, std::__ndk1::allocator, nlohmann::json_abi_v3_11_3::adl_serializer, std::__ndk1::vector<unsigned char, std::__ndk1::allocator<unsigned char> >, void>::~basic_json()
PUBLIC 720f8 0 std::__ndk1::__tree<std::__ndk1::__value_type<std::__ndk1::basic_string<char, std::__ndk1::char_traits<char>, std::__ndk1::allocator<char> >, nlohmann::json_abi_v3_11_3::basic_json<std::__ndk1::map, std::__ndk1::vector, std::__ndk1::basic_string<char, std::__ndk1::char_traits<char>, std::__ndk1::allocator<char> >, bool, long, unsigned long, double, std::__ndk1::allocator, nlohmann::json_abi_v3_11_3::adl_serializer, std::__ndk1::vector<unsigned char, std::__ndk1::allocator<unsigned char> >, void> >, std::__ndk1::__map_value_compare<std::__ndk1::basic_string<char, std::__ndk1::char_traits<char>, std::__ndk1::allocator<char> >, std::__ndk1::__value_type<std::__ndk1::basic_string<char, std::__ndk1::char_traits<char>, std::__ndk1::allocator<char> >, nlohmann::json_abi_v3_11_3::basic_json<std::__ndk1::map, std::__ndk1::vector, std::__ndk1::basic_string<char, std::__ndk1::char_traits<char>, std::__ndk1::allocator<char> >, bool, long, unsigned long, double, std::__ndk1::allocator, nlohmann::json_abi_v3_11_3::adl_serializer, std::__ndk1::vector<unsigned char, std::__ndk1::allocator<unsigned char> >, void> >, std::__ndk1::less<void>, true>, std::__ndk1::allocator<std::__ndk1::__value_type<std::__ndk1::basic_string<char, std::__ndk1::char_traits<char>, std::__ndk1::allocator<char> >, nlohmann::json_abi_v3_11_3::basic_json<std::__ndk1::map, std::__ndk1::vector, std::__ndk1::basic_string<char, std::__ndk1::char_traits<char>, std::__ndk1::allocator<char> >, bool, long, unsigned long, double, std::__ndk1::allocator, nlohmann::json_abi_v3_11_3::adl_serializer, std::__ndk1::vector<unsigned char, std::__ndk1::allocator<unsigned char> >, void> > > >::destroy(std::__ndk1::__tree_node<std::__ndk1::__value_type<std::__ndk1::basic_string<char, std::__ndk1::char_traits<char>, std::__ndk1::allocator<char> >, nlohmann::json_abi_v3_11_3::basic_json<std::__ndk1::map, std::__ndk1::vector, std::__ndk1::basic_string<char, std::__ndk1::char_traits<char>, std::__ndk1::allocator<char> >, bool, long, unsigned long, double, std::__ndk1::allocator, nlohmann::json_abi_v3_11_3::adl_serializer, std::__ndk1::vector<unsigned char, std::__ndk1::allocator<unsigned char> >, void> >, void*>*)
PUBLIC 72160 0 std::__ndk1::vector<nlohmann::json_abi_v3_11_3::basic_json<std::__ndk1::map, std::__ndk1::vector, std::__ndk1::basic_string<char, std::__ndk1::char_traits<char>, std::__ndk1::allocator<char> >, bool, long, unsigned long, double, std::__ndk1::allocator, nlohmann::json_abi_v3_11_3::adl_serializer, std::__ndk1::vector<unsigned char, std::__ndk1::allocator<unsigned char> >, void>, std::__ndk1::allocator<nlohmann::json_abi_v3_11_3::basic_json<std::__ndk1::map, std::__ndk1::vector, std::__ndk1::basic_string<char, std::__ndk1::char_traits<char>, std::__ndk1::allocator<char> >, bool, long, unsigned long, double, std::__ndk1::allocator, nlohmann::json_abi_v3_11_3::adl_serializer, std::__ndk1::vector<unsigned char, std::__ndk1::allocator<unsigned char> >, void> > >::__init_with_size[abi:ne180000]<nlohmann::json_abi_v3_11_3::basic_json<std::__ndk1::map, std::__ndk1::vector, std::__ndk1::basic_string<char, std::__ndk1::char_traits<char>, std::__ndk1::allocator<char> >, bool, long, unsigned long, double, std::__ndk1::allocator, nlohmann::json_abi_v3_11_3::adl_serializer, std::__ndk1::vector<unsigned char, std::__ndk1::allocator<unsigned char> >, void>*, std::__ndk1::vector<nlohmann::json_abi_v3_11_3::basic_json<std::__ndk1::map, std::__ndk1::vector, std::__ndk1::basic_string<char, std::__ndk1::char_traits<char>, std::__ndk1::allocator<char> >, bool, long, unsigned long, double, std::__ndk1::allocator, nlohmann::json_abi_v3_11_3::adl_serializer, std::__ndk1::vector<unsigned char, std::__ndk1::allocator<unsigned char> >, void>, std::__ndk1::allocator<nlohmann::json_abi_v3_11_3::basic_json<std::__ndk1::map, std::__ndk1::vector, std::__ndk1::basic_string<char, std::__ndk1::char_traits<char>, std::__ndk1::allocator<char> >, bool, long, unsigned long, double, std::__ndk1::allocator, nlohmann::json_abi_v3_11_3::adl_serializer, std::__ndk1::vector<unsigned char, std::__ndk1::allocator<unsigned char> >, void> > >::__init_with_size[abi:ne180000]>(nlohmann::json_abi_v3_11_3::basic_json<std::__ndk1::map, std::__ndk1::vector, std::__ndk1::basic_string<char, std::__ndk1::char_traits<char>, std::__ndk1::allocator<char> >, bool, long, unsigned long, double, std::__ndk1::allocator, nlohmann::json_abi_v3_11_3::adl_serializer, std::__ndk1::vector<unsigned char, std::__ndk1::allocator<unsigned char> >, void>*, std::__ndk1::vector<nlohmann::json_abi_v3_11_3::basic_json<std::__ndk1::map, std::__ndk1::vector, std::__ndk1::basic_string<char, std::__ndk1::char_traits<char>, std::__ndk1::allocator<char> >, bool, long, unsigned long, double, std::__ndk1::allocator, nlohmann::json_abi_v3_11_3::adl_serializer, std::__ndk1::vector<unsigned char, std::__ndk1::allocator<unsigned char> >, void>, std::__ndk1::allocator<nlohmann::json_abi_v3_11_3::basic_json<std::__ndk1::map, std::__ndk1::vector, std::__ndk1::basic_string<char, std::__ndk1::char_traits<char>, std::__ndk1::allocator<char> >, bool, long, unsigned long, double, std::__ndk1::allocator, nlohmann::json_abi_v3_11_3::adl_serializer, std::__ndk1::vector<unsigned char, std::__ndk1::allocator<unsigned char> >, void> > >::__init_with_size[abi:ne180000], unsigned long)
PUBLIC 72290 0 std::__ndk1::__exception_guard_exceptions<std::__ndk1::vector<nlohmann::json_abi_v3_11_3::basic_json<std::__ndk1::map, std::__ndk1::vector, std::__ndk1::basic_string<char, std::__ndk1::char_traits<char>, std::__ndk1::allocator<char> >, bool, long, unsigned long, double, std::__ndk1::allocator, nlohmann::json_abi_v3_11_3::adl_serializer, std::__ndk1::vector<unsigned char, std::__ndk1::allocator<unsigned char> >, void>, std::__ndk1::allocator<nlohmann::json_abi_v3_11_3::basic_json<std::__ndk1::map, std::__ndk1::vector, std::__ndk1::basic_string<char, std::__ndk1::char_traits<char>, std::__ndk1::allocator<char> >, bool, long, unsigned long, double, std::__ndk1::allocator, nlohmann::json_abi_v3_11_3::adl_serializer, std::__ndk1::vector<unsigned char, std::__ndk1::allocator<unsigned char> >, void> > >::__destroy_vector>::~__exception_guard_exceptions[abi:ne180000]()
PUBLIC 72304 0 std::__ndk1::vector<nlohmann::json_abi_v3_11_3::basic_json<std::__ndk1::map, std::__ndk1::vector, std::__ndk1::basic_string<char, std::__ndk1::char_traits<char>, std::__ndk1::allocator<char> >, bool, long, unsigned long, double, std::__ndk1::allocator, nlohmann::json_abi_v3_11_3::adl_serializer, std::__ndk1::vector<unsigned char, std::__ndk1::allocator<unsigned char> >, void>, std::__ndk1::allocator<nlohmann::json_abi_v3_11_3::basic_json<std::__ndk1::map, std::__ndk1::vector, std::__ndk1::basic_string<char, std::__ndk1::char_traits<char>, std::__ndk1::allocator<char> >, bool, long, unsigned long, double, std::__ndk1::allocator, nlohmann::json_abi_v3_11_3::adl_serializer, std::__ndk1::vector<unsigned char, std::__ndk1::allocator<unsigned char> >, void> > >::__throw_length_error[abi:ne180000]() const
PUBLIC 72318 0 std::__ndk1::__exception_guard_exceptions<std::__ndk1::_AllocatorDestroyRangeReverse<std::__ndk1::allocator<nlohmann::json_abi_v3_11_3::basic_json<std::__ndk1::map, std::__ndk1::vector, std::__ndk1::basic_string<char, std::__ndk1::char_traits<char>, std::__ndk1::allocator<char> >, bool, long, unsigned long, double, std::__ndk1::allocator, nlohmann::json_abi_v3_11_3::adl_serializer, std::__ndk1::vector<unsigned char, std::__ndk1::allocator<unsigned char> >, void> >, nlohmann::json_abi_v3_11_3::basic_json<std::__ndk1::map, std::__ndk1::vector, std::__ndk1::basic_string<char, std::__ndk1::char_traits<char>, std::__ndk1::allocator<char> >, bool, long, unsigned long, double, std::__ndk1::allocator, nlohmann::json_abi_v3_11_3::adl_serializer, std::__ndk1::vector<unsigned char, std::__ndk1::allocator<unsigned char> >, void>*> >::~__exception_guard_exceptions[abi:ne180000]()
PUBLIC 72360 0 std::__ndk1::vector<unsigned char, std::__ndk1::allocator<unsigned char> >::__throw_length_error[abi:ne180000]() const
PUBLIC 72374 0 nlohmann::json_abi_v3_11_3::basic_json<std::__ndk1::map, std::__ndk1::vector, std::__ndk1::basic_string<char, std::__ndk1::char_traits<char>, std::__ndk1::allocator<char> >, bool, long, unsigned long, double, std::__ndk1::allocator, nlohmann::json_abi_v3_11_3::adl_serializer, std::__ndk1::vector<unsigned char, std::__ndk1::allocator<unsigned char> >, void>::json_value::destroy(nlohmann::json_abi_v3_11_3::detail::value_t)
PUBLIC 727c4 0 std::__ndk1::vector<nlohmann::json_abi_v3_11_3::basic_json<std::__ndk1::map, std::__ndk1::vector, std::__ndk1::basic_string<char, std::__ndk1::char_traits<char>, std::__ndk1::allocator<char> >, bool, long, unsigned long, double, std::__ndk1::allocator, nlohmann::json_abi_v3_11_3::adl_serializer, std::__ndk1::vector<unsigned char, std::__ndk1::allocator<unsigned char> >, void>, std::__ndk1::allocator<nlohmann::json_abi_v3_11_3::basic_json<std::__ndk1::map, std::__ndk1::vector, std::__ndk1::basic_string<char, std::__ndk1::char_traits<char>, std::__ndk1::allocator<char> >, bool, long, unsigned long, double, std::__ndk1::allocator, nlohmann::json_abi_v3_11_3::adl_serializer, std::__ndk1::vector<unsigned char, std::__ndk1::allocator<unsigned char> >, void> > >::reserve(unsigned long)
PUBLIC 728a0 0 std::__ndk1::vector<nlohmann::json_abi_v3_11_3::basic_json<std::__ndk1::map, std::__ndk1::vector, std::__ndk1::basic_string<char, std::__ndk1::char_traits<char>, std::__ndk1::allocator<char> >, bool, long, unsigned long, double, std::__ndk1::allocator, nlohmann::json_abi_v3_11_3::adl_serializer, std::__ndk1::vector<unsigned char, std::__ndk1::allocator<unsigned char> >, void>, std::__ndk1::allocator<nlohmann::json_abi_v3_11_3::basic_json<std::__ndk1::map, std::__ndk1::vector, std::__ndk1::basic_string<char, std::__ndk1::char_traits<char>, std::__ndk1::allocator<char> >, bool, long, unsigned long, double, std::__ndk1::allocator, nlohmann::json_abi_v3_11_3::adl_serializer, std::__ndk1::vector<unsigned char, std::__ndk1::allocator<unsigned char> >, void> > >::~vector[abi:ne180000]()
PUBLIC 72904 0 std::__ndk1::vector<nlohmann::json_abi_v3_11_3::basic_json<std::__ndk1::map, std::__ndk1::vector, std::__ndk1::basic_string<char, std::__ndk1::char_traits<char>, std::__ndk1::allocator<char> >, bool, long, unsigned long, double, std::__ndk1::allocator, nlohmann::json_abi_v3_11_3::adl_serializer, std::__ndk1::vector<unsigned char, std::__ndk1::allocator<unsigned char> >, void>, std::__ndk1::allocator<nlohmann::json_abi_v3_11_3::basic_json<std::__ndk1::map, std::__ndk1::vector, std::__ndk1::basic_string<char, std::__ndk1::char_traits<char>, std::__ndk1::allocator<char> >, bool, long, unsigned long, double, std::__ndk1::allocator, nlohmann::json_abi_v3_11_3::adl_serializer, std::__ndk1::vector<unsigned char, std::__ndk1::allocator<unsigned char> >, void> > >::__push_back_slow_path<nlohmann::json_abi_v3_11_3::basic_json<std::__ndk1::map, std::__ndk1::vector, std::__ndk1::basic_string<char, std::__ndk1::char_traits<char>, std::__ndk1::allocator<char> >, bool, long, unsigned long, double, std::__ndk1::allocator, nlohmann::json_abi_v3_11_3::adl_serializer, std::__ndk1::vector<unsigned char, std::__ndk1::allocator<unsigned char> >, void> >(nlohmann::json_abi_v3_11_3::basic_json<std::__ndk1::map, std::__ndk1::vector, std::__ndk1::basic_string<char, std::__ndk1::char_traits<char>, std::__ndk1::allocator<char> >, bool, long, unsigned long, double, std::__ndk1::allocator, nlohmann::json_abi_v3_11_3::adl_serializer, std::__ndk1::vector<unsigned char, std::__ndk1::allocator<unsigned char> >, void>&&)
PUBLIC 72a24 0 std::__ndk1::__hash_table<std::__ndk1::__hash_value_type<std::__ndk1::basic_string<char, std::__ndk1::char_traits<char>, std::__ndk1::allocator<char> >, std::__ndk1::vector<std::__ndk1::basic_string<char, std::__ndk1::char_traits<char>, std::__ndk1::allocator<char> >, std::__ndk1::allocator<std::__ndk1::basic_string<char, std::__ndk1::char_traits<char>, std::__ndk1::allocator<char> > > > >, std::__ndk1::__unordered_map_hasher<std::__ndk1::basic_string<char, std::__ndk1::char_traits<char>, std::__ndk1::allocator<char> >, std::__ndk1::__hash_value_type<std::__ndk1::basic_string<char, std::__ndk1::char_traits<char>, std::__ndk1::allocator<char> >, std::__ndk1::vector<std::__ndk1::basic_string<char, std::__ndk1::char_traits<char>, std::__ndk1::allocator<char> >, std::__ndk1::allocator<std::__ndk1::basic_string<char, std::__ndk1::char_traits<char>, std::__ndk1::allocator<char> > > > >, std::__ndk1::hash<std::__ndk1::basic_string<char, std::__ndk1::char_traits<char>, std::__ndk1::allocator<char> > >, std::__ndk1::equal_to<std::__ndk1::basic_string<char, std::__ndk1::char_traits<char>, std::__ndk1::allocator<char> > >, true>, std::__ndk1::__unordered_map_equal<std::__ndk1::basic_string<char, std::__ndk1::char_traits<char>, std::__ndk1::allocator<char> >, std::__ndk1::__hash_value_type<std::__ndk1::basic_string<char, std::__ndk1::char_traits<char>, std::__ndk1::allocator<char> >, std::__ndk1::vector<std::__ndk1::basic_string<char, std::__ndk1::char_traits<char>, std::__ndk1::allocator<char> >, std::__ndk1::allocator<std::__ndk1::basic_string<char, std::__ndk1::char_traits<char>, std::__ndk1::allocator<char> > > > >, std::__ndk1::equal_to<std::__ndk1::basic_string<char, std::__ndk1::char_traits<char>, std::__ndk1::allocator<char> > >, std::__ndk1::hash<std::__ndk1::basic_string<char, std::__ndk1::char_traits<char>, std::__ndk1::allocator<char> > >, true>, std::__ndk1::allocator<std::__ndk1::__hash_value_type<std::__ndk1::basic_string<char, std::__ndk1::char_traits<char>, std::__ndk1::allocator<char> >, std::__ndk1::vector<std::__ndk1::basic_string<char, std::__ndk1::char_traits<char>, std::__ndk1::allocator<char> >, std::__ndk1::allocator<std::__ndk1::basic_string<char, std::__ndk1::char_traits<char>, std::__ndk1::allocator<char> > > > > > >::~__hash_table()
PUBLIC 72aec 0 geode::EventListener<proxy::RequestFilter>::getPool() const
PUBLIC 72af0 0 geode::EventListener<proxy::RequestFilter>::handle(geode::Event*)
PUBLIC 72f1c 0 geode::EventListener<proxy::RequestFilter>::~EventListener()
PUBLIC 72fcc 0 geode::EventListener<proxy::RequestFilter>::~EventListener()
PUBLIC 73084 0 std::__ndk1::__throw_bad_function_call[abi:ne180000]()
PUBLIC 730b8 0 std::__ndk1::bad_function_call::~bad_function_call()
PUBLIC 730dc 0 std::__ndk1::__function::__base<geode::ListenerResult(proxy::ResponseEvent*)>::~__base()
PUBLIC 730e0 0 std::__ndk1::__function::__func<geodeExecFunction189<(anonymous namespace)::ExecFuncUnique189>()::{lambda(proxy::ResponseEvent const*)#1}, std::__ndk1::allocator<geodeExecFunction189<(anonymous namespace)::ExecFuncUnique189>()::{lambda(proxy::ResponseEvent const*)#1}>, geode::ListenerResult(proxy::ResponseEvent*)>::~__func()
PUBLIC 730e4 0 std::__ndk1::__function::__func<geodeExecFunction189<(anonymous namespace)::ExecFuncUnique189>()::{lambda(proxy::ResponseEvent const*)#1}, std::__ndk1::allocator<geodeExecFunction189<(anonymous namespace)::ExecFuncUnique189>()::{lambda(proxy::ResponseEvent const*)#1}>, geode::ListenerResult(proxy::ResponseEvent*)>::__clone() const
PUBLIC 73108 0 std::__ndk1::__function::__func<geodeExecFunction189<(anonymous namespace)::ExecFuncUnique189>()::{lambda(proxy::ResponseEvent const*)#1}, std::__ndk1::allocator<geodeExecFunction189<(anonymous namespace)::ExecFuncUnique189>()::{lambda(proxy::ResponseEvent const*)#1}>, geode::ListenerResult(proxy::ResponseEvent*)>::__clone(std::__ndk1::__function::__base<geode::ListenerResult(proxy::ResponseEvent*)>*) const
PUBLIC 73118 0 std::__ndk1::__function::__func<geodeExecFunction189<(anonymous namespace)::ExecFuncUnique189>()::{lambda(proxy::ResponseEvent const*)#1}, std::__ndk1::allocator<geodeExecFunction189<(anonymous namespace)::ExecFuncUnique189>()::{lambda(proxy::ResponseEvent const*)#1}>, geode::ListenerResult(proxy::ResponseEvent*)>::destroy()
PUBLIC 7311c 0 std::__ndk1::__function::__func<geodeExecFunction189<(anonymous namespace)::ExecFuncUnique189>()::{lambda(proxy::ResponseEvent const*)#1}, std::__ndk1::allocator<geodeExecFunction189<(anonymous namespace)::ExecFuncUnique189>()::{lambda(proxy::ResponseEvent const*)#1}>, geode::ListenerResult(proxy::ResponseEvent*)>::destroy_deallocate()
PUBLIC 73120 0 std::__ndk1::__function::__func<geodeExecFunction189<(anonymous namespace)::ExecFuncUnique189>()::{lambda(proxy::ResponseEvent const*)#1}, std::__ndk1::allocator<geodeExecFunction189<(anonymous namespace)::ExecFuncUnique189>()::{lambda(proxy::ResponseEvent const*)#1}>, geode::ListenerResult(proxy::ResponseEvent*)>::operator()(proxy::ResponseEvent*&&)
PUBLIC 73168 0 std::__ndk1::__function::__func<geodeExecFunction189<(anonymous namespace)::ExecFuncUnique189>()::{lambda(proxy::ResponseEvent const*)#1}, std::__ndk1::allocator<geodeExecFunction189<(anonymous namespace)::ExecFuncUnique189>()::{lambda(proxy::ResponseEvent const*)#1}>, geode::ListenerResult(proxy::ResponseEvent*)>::target(std::type_info const&) const
PUBLIC 73184 0 std::__ndk1::__function::__func<geodeExecFunction189<(anonymous namespace)::ExecFuncUnique189>()::{lambda(proxy::ResponseEvent const*)#1}, std::__ndk1::allocator<geodeExecFunction189<(anonymous namespace)::ExecFuncUnique189>()::{lambda(proxy::ResponseEvent const*)#1}>, geode::ListenerResult(proxy::ResponseEvent*)>::target_type() const
PUBLIC 73190 0 geode::EventListener<proxy::ResponseFilter>::getPool() const
PUBLIC 73194 0 geode::EventListener<proxy::ResponseFilter>::handle(geode::Event*)
PUBLIC 735c0 0 geode::EventListener<proxy::ResponseFilter>::~EventListener()
PUBLIC 73670 0 geode::EventListener<proxy::ResponseFilter>::~EventListener()
PUBLIC 73728 0 std::__ndk1::__function::__base<geode::ListenerResult(proxy::CancelEvent*)>::~__base()
PUBLIC 7372c 0 std::__ndk1::__function::__func<geodeExecFunction189<(anonymous namespace)::ExecFuncUnique189>()::{lambda(proxy::CancelEvent const*)#1}, std::__ndk1::allocator<geodeExecFunction189<(anonymous namespace)::ExecFuncUnique189>()::{lambda(proxy::CancelEvent const*)#1}>, geode::ListenerResult(proxy::CancelEvent*)>::~__func()
PUBLIC 73730 0 std::__ndk1::__function::__func<geodeExecFunction189<(anonymous namespace)::ExecFuncUnique189>()::{lambda(proxy::CancelEvent const*)#1}, std::__ndk1::allocator<geodeExecFunction189<(anonymous namespace)::ExecFuncUnique189>()::{lambda(proxy::CancelEvent const*)#1}>, geode::ListenerResult(proxy::CancelEvent*)>::__clone() const
PUBLIC 73754 0 std::__ndk1::__function::__func<geodeExecFunction189<(anonymous namespace)::ExecFuncUnique189>()::{lambda(proxy::CancelEvent const*)#1}, std::__ndk1::allocator<geodeExecFunction189<(anonymous namespace)::ExecFuncUnique189>()::{lambda(proxy::CancelEvent const*)#1}>, geode::ListenerResult(proxy::CancelEvent*)>::__clone(std::__ndk1::__function::__base<geode::ListenerResult(proxy::CancelEvent*)>*) const
PUBLIC 73764 0 std::__ndk1::__function::__func<geodeExecFunction189<(anonymous namespace)::ExecFuncUnique189>()::{lambda(proxy::CancelEvent const*)#1}, std::__ndk1::allocator<geodeExecFunction189<(anonymous namespace)::ExecFuncUnique189>()::{lambda(proxy::CancelEvent const*)#1}>, geode::ListenerResult(proxy::CancelEvent*)>::destroy()
PUBLIC 73768 0 std::__ndk1::__function::__func<geodeExecFunction189<(anonymous namespace)::ExecFuncUnique189>()::{lambda(proxy::CancelEvent const*)#1}, std::__ndk1::allocator<geodeExecFunction189<(anonymous namespace)::ExecFuncUnique189>()::{lambda(proxy::CancelEvent const*)#1}>, geode::ListenerResult(proxy::CancelEvent*)>::destroy_deallocate()
PUBLIC 7376c 0 std::__ndk1::__function::__func<geodeExecFunction189<(anonymous namespace)::ExecFuncUnique189>()::{lambda(proxy::CancelEvent const*)#1}, std::__ndk1::allocator<geodeExecFunction189<(anonymous namespace)::ExecFuncUnique189>()::{lambda(proxy::CancelEvent const*)#1}>, geode::ListenerResult(proxy::CancelEvent*)>::operator()(proxy::CancelEvent*&&)
PUBLIC 737b4 0 std::__ndk1::__function::__func<geodeExecFunction189<(anonymous namespace)::ExecFuncUnique189>()::{lambda(proxy::CancelEvent const*)#1}, std::__ndk1::allocator<geodeExecFunction189<(anonymous namespace)::ExecFuncUnique189>()::{lambda(proxy::CancelEvent const*)#1}>, geode::ListenerResult(proxy::CancelEvent*)>::target(std::type_info const&) const
PUBLIC 737d0 0 std::__ndk1::__function::__func<geodeExecFunction189<(anonymous namespace)::ExecFuncUnique189>()::{lambda(proxy::CancelEvent const*)#1}, std::__ndk1::allocator<geodeExecFunction189<(anonymous namespace)::ExecFuncUnique189>()::{lambda(proxy::CancelEvent const*)#1}>, geode::ListenerResult(proxy::CancelEvent*)>::target_type() const
PUBLIC 737dc 0 geode::EventListener<proxy::CancelFilter>::getPool() const
PUBLIC 737e0 0 geode::EventListener<proxy::CancelFilter>::handle(geode::Event*)
PUBLIC 73c0c 0 geode::EventListener<proxy::CancelFilter>::~EventListener()
PUBLIC 73cbc 0 geode::EventListener<proxy::CancelFilter>::~EventListener()
PUBLIC 73d74 0 std::__ndk1::__function::__base<void (std::__ndk1::shared_ptr<geode::SettingV3>)>::~__base()
PUBLIC 73d78 0 std::__ndk1::__function::__func<geodeExecFunction189<(anonymous namespace)::ExecFuncUnique189>()::{lambda(std::__ndk1::shared_ptr<geode::SettingV3>)#1}, std::__ndk1::allocator<geodeExecFunction189<(anonymous namespace)::ExecFuncUnique189>()::{lambda(std::__ndk1::shared_ptr<geode::SettingV3>)#1}>, void (std::__ndk1::shared_ptr<geode::SettingV3>)>::~__func()
PUBLIC 73d7c 0 std::__ndk1::__function::__func<geodeExecFunction189<(anonymous namespace)::ExecFuncUnique189>()::{lambda(std::__ndk1::shared_ptr<geode::SettingV3>)#1}, std::__ndk1::allocator<geodeExecFunction189<(anonymous namespace)::ExecFuncUnique189>()::{lambda(std::__ndk1::shared_ptr<geode::SettingV3>)#1}>, void (std::__ndk1::shared_ptr<geode::SettingV3>)>::__clone() const
PUBLIC 73da0 0 std::__ndk1::__function::__func<geodeExecFunction189<(anonymous namespace)::ExecFuncUnique189>()::{lambda(std::__ndk1::shared_ptr<geode::SettingV3>)#1}, std::__ndk1::allocator<geodeExecFunction189<(anonymous namespace)::ExecFuncUnique189>()::{lambda(std::__ndk1::shared_ptr<geode::SettingV3>)#1}>, void (std::__ndk1::shared_ptr<geode::SettingV3>)>::__clone(std::__ndk1::__function::__base<void (std::__ndk1::shared_ptr<geode::SettingV3>)>*) const
PUBLIC 73db0 0 std::__ndk1::__function::__func<geodeExecFunction189<(anonymous namespace)::ExecFuncUnique189>()::{lambda(std::__ndk1::shared_ptr<geode::SettingV3>)#1}, std::__ndk1::allocator<geodeExecFunction189<(anonymous namespace)::ExecFuncUnique189>()::{lambda(std::__ndk1::shared_ptr<geode::SettingV3>)#1}>, void (std::__ndk1::shared_ptr<geode::SettingV3>)>::destroy()
PUBLIC 73db4 0 std::__ndk1::__function::__func<geodeExecFunction189<(anonymous namespace)::ExecFuncUnique189>()::{lambda(std::__ndk1::shared_ptr<geode::SettingV3>)#1}, std::__ndk1::allocator<geodeExecFunction189<(anonymous namespace)::ExecFuncUnique189>()::{lambda(std::__ndk1::shared_ptr<geode::SettingV3>)#1}>, void (std::__ndk1::shared_ptr<geode::SettingV3>)>::destroy_deallocate()
PUBLIC 73db8 0 std::__ndk1::__function::__func<geodeExecFunction189<(anonymous namespace)::ExecFuncUnique189>()::{lambda(std::__ndk1::shared_ptr<geode::SettingV3>)#1}, std::__ndk1::allocator<geodeExecFunction189<(anonymous namespace)::ExecFuncUnique189>()::{lambda(std::__ndk1::shared_ptr<geode::SettingV3>)#1}>, void (std::__ndk1::shared_ptr<geode::SettingV3>)>::operator()(std::__ndk1::shared_ptr<geode::SettingV3>&&)
PUBLIC 74824 0 std::__ndk1::__function::__func<geodeExecFunction189<(anonymous namespace)::ExecFuncUnique189>()::{lambda(std::__ndk1::shared_ptr<geode::SettingV3>)#1}, std::__ndk1::allocator<geodeExecFunction189<(anonymous namespace)::ExecFuncUnique189>()::{lambda(std::__ndk1::shared_ptr<geode::SettingV3>)#1}>, void (std::__ndk1::shared_ptr<geode::SettingV3>)>::target(std::type_info const&) const
PUBLIC 74840 0 std::__ndk1::__function::__func<geodeExecFunction189<(anonymous namespace)::ExecFuncUnique189>()::{lambda(std::__ndk1::shared_ptr<geode::SettingV3>)#1}, std::__ndk1::allocator<geodeExecFunction189<(anonymous namespace)::ExecFuncUnique189>()::{lambda(std::__ndk1::shared_ptr<geode::SettingV3>)#1}>, void (std::__ndk1::shared_ptr<geode::SettingV3>)>::target_type() const
PUBLIC 7484c 0 std::__ndk1::vector<std::__ndk1::basic_string<char, std::__ndk1::char_traits<char>, std::__ndk1::allocator<char> >, std::__ndk1::allocator<std::__ndk1::basic_string<char, std::__ndk1::char_traits<char>, std::__ndk1::allocator<char> > > >::vector[abi:ne180000](std::initializer_list<std::__ndk1::basic_string<char, std::__ndk1::char_traits<char>, std::__ndk1::allocator<char> > >)
PUBLIC 749a4 0 geode::Mod::getSettingValue<long>(std::__ndk1::basic_string_view<char, std::__ndk1::char_traits<char> >) const
PUBLIC 74abc 0 std::__ndk1::__function::__func<void (*)(), std::__ndk1::allocator<void (*)()>, void ()>::~__func()
PUBLIC 74ac0 0 std::__ndk1::__function::__func<void (*)(), std::__ndk1::allocator<void (*)()>, void ()>::__clone() const
PUBLIC 74af4 0 std::__ndk1::__function::__func<void (*)(), std::__ndk1::allocator<void (*)()>, void ()>::__clone(std::__ndk1::__function::__base<void ()>*) const
PUBLIC 74b08 0 std::__ndk1::__function::__func<void (*)(), std::__ndk1::allocator<void (*)()>, void ()>::destroy()
PUBLIC 74b0c 0 std::__ndk1::__function::__func<void (*)(), std::__ndk1::allocator<void (*)()>, void ()>::destroy_deallocate()
PUBLIC 74b10 0 std::__ndk1::__function::__func<void (*)(), std::__ndk1::allocator<void (*)()>, void ()>::operator()()
PUBLIC 74b18 0 std::__ndk1::__function::__func<void (*)(), std::__ndk1::allocator<void (*)()>, void ()>::target(std::type_info const&) const
PUBLIC 74b34 0 std::__ndk1::__function::__func<void (*)(), std::__ndk1::allocator<void (*)()>, void ()>::target_type() const
PUBLIC 74b40 0 std::__ndk1::__function::__base<void ()>::~__base()
PUBLIC 74b44 0 std::__ndk1::__function::__func<geodeExecFunction277<(anonymous namespace)::ExecFuncUnique277>(geode::ModStateEvent*)::{lambda()#1}, std::__ndk1::allocator<geodeExecFunction277<(anonymous namespace)::ExecFuncUnique277>(geode::ModStateEvent*)::{lambda()#1}>, void ()>::~__func()
PUBLIC 74b48 0 std::__ndk1::__function::__func<geodeExecFunction277<(anonymous namespace)::ExecFuncUnique277>(geode::ModStateEvent*)::{lambda()#1}, std::__ndk1::allocator<geodeExecFunction277<(anonymous namespace)::ExecFuncUnique277>(geode::ModStateEvent*)::{lambda()#1}>, void ()>::__clone() const
PUBLIC 74b6c 0 std::__ndk1::__function::__func<geodeExecFunction277<(anonymous namespace)::ExecFuncUnique277>(geode::ModStateEvent*)::{lambda()#1}, std::__ndk1::allocator<geodeExecFunction277<(anonymous namespace)::ExecFuncUnique277>(geode::ModStateEvent*)::{lambda()#1}>, void ()>::__clone(std::__ndk1::__function::__base<void ()>*) const
PUBLIC 74b7c 0 std::__ndk1::__function::__func<geodeExecFunction277<(anonymous namespace)::ExecFuncUnique277>(geode::ModStateEvent*)::{lambda()#1}, std::__ndk1::allocator<geodeExecFunction277<(anonymous namespace)::ExecFuncUnique277>(geode::ModStateEvent*)::{lambda()#1}>, void ()>::destroy()
PUBLIC 74b80 0 std::__ndk1::__function::__func<geodeExecFunction277<(anonymous namespace)::ExecFuncUnique277>(geode::ModStateEvent*)::{lambda()#1}, std::__ndk1::allocator<geodeExecFunction277<(anonymous namespace)::ExecFuncUnique277>(geode::ModStateEvent*)::{lambda()#1}>, void ()>::destroy_deallocate()
PUBLIC 74b84 0 std::__ndk1::__function::__func<geodeExecFunction277<(anonymous namespace)::ExecFuncUnique277>(geode::ModStateEvent*)::{lambda()#1}, std::__ndk1::allocator<geodeExecFunction277<(anonymous namespace)::ExecFuncUnique277>(geode::ModStateEvent*)::{lambda()#1}>, void ()>::operator()()
PUBLIC 74bbc 0 std::__ndk1::__function::__func<geodeExecFunction277<(anonymous namespace)::ExecFuncUnique277>(geode::ModStateEvent*)::{lambda()#1}, std::__ndk1::allocator<geodeExecFunction277<(anonymous namespace)::ExecFuncUnique277>(geode::ModStateEvent*)::{lambda()#1}>, void ()>::target(std::type_info const&) const
PUBLIC 74bd8 0 std::__ndk1::__function::__func<geodeExecFunction277<(anonymous namespace)::ExecFuncUnique277>(geode::ModStateEvent*)::{lambda()#1}, std::__ndk1::allocator<geodeExecFunction277<(anonymous namespace)::ExecFuncUnique277>(geode::ModStateEvent*)::{lambda()#1}>, void ()>::target_type() const
PUBLIC 74be4 0 geode::EventListener<geode::ModStateFilter>::getPool() const
PUBLIC 74be8 0 geode::EventListener<geode::ModStateFilter>::handle(geode::Event*)
PUBLIC 74d5c 0 geode::EventListener<geode::ModStateFilter>::~EventListener()
PUBLIC 74db8 0 geode::EventListener<geode::ModStateFilter>::~EventListener()
PUBLIC 74e1c 0 std::__ndk1::__function::__base<void (geode::ModStateEvent*)>::~__base()
PUBLIC 74e20 0 std::__ndk1::__function::__func<void (*)(geode::ModStateEvent*), std::__ndk1::allocator<void (*)(geode::ModStateEvent*)>, void (geode::ModStateEvent*)>::~__func()
PUBLIC 74e24 0 std::__ndk1::__function::__func<void (*)(geode::ModStateEvent*), std::__ndk1::allocator<void (*)(geode::ModStateEvent*)>, void (geode::ModStateEvent*)>::__clone() const
PUBLIC 74e58 0 std::__ndk1::__function::__func<void (*)(geode::ModStateEvent*), std::__ndk1::allocator<void (*)(geode::ModStateEvent*)>, void (geode::ModStateEvent*)>::__clone(std::__ndk1::__function::__base<void (geode::ModStateEvent*)>*) const
PUBLIC 74e6c 0 std::__ndk1::__function::__func<void (*)(geode::ModStateEvent*), std::__ndk1::allocator<void (*)(geode::ModStateEvent*)>, void (geode::ModStateEvent*)>::destroy()
PUBLIC 74e70 0 std::__ndk1::__function::__func<void (*)(geode::ModStateEvent*), std::__ndk1::allocator<void (*)(geode::ModStateEvent*)>, void (geode::ModStateEvent*)>::destroy_deallocate()
PUBLIC 74e74 0 std::__ndk1::__function::__func<void (*)(geode::ModStateEvent*), std::__ndk1::allocator<void (*)(geode::ModStateEvent*)>, void (geode::ModStateEvent*)>::operator()(geode::ModStateEvent*&&)
PUBLIC 74e84 0 std::__ndk1::__function::__func<void (*)(geode::ModStateEvent*), std::__ndk1::allocator<void (*)(geode::ModStateEvent*)>, void (geode::ModStateEvent*)>::target(std::type_info const&) const
PUBLIC 74ea0 0 std::__ndk1::__function::__func<void (*)(geode::ModStateEvent*), std::__ndk1::allocator<void (*)(geode::ModStateEvent*)>, void (geode::ModStateEvent*)>::target_type() const
PUBLIC 74eac 0 _GLOBAL__sub_I_main.cpp
PUBLIC 75384 0 __cxx_global_var_init
PUBLIC 75aec 0 geode::modifier::ModifyBase<geode::modifier::ModifyDerive<ModCCHttpClient, cocos2d::extension::CCHttpClient> >::~ModifyBase()
PUBLIC 75b08 0 geode::modifier::ModifyDerive<ModCCHttpClient, cocos2d::extension::CCHttpClient>::apply()
PUBLIC 75e90 0 std::__ndk1::shared_ptr<geode::Hook>::~shared_ptr[abi:ne180000]()
PUBLIC 75ee0 0 geode::impl::ResultData<geode::Hook*, std::__ndk1::basic_string<char, std::__ndk1::char_traits<char>, std::__ndk1::allocator<char> > >::~ResultData()
PUBLIC 75f54 0 geode::modifier::ModifyBase<geode::modifier::ModifyDerive<ModCCHttpClient, cocos2d::extension::CCHttpClient> >::apply()
PUBLIC 75f58 0 std::__ndk1::__tree<std::__ndk1::__value_type<std::__ndk1::basic_string<char, std::__ndk1::char_traits<char>, std::__ndk1::allocator<char> >, std::__ndk1::shared_ptr<geode::Hook> >, std::__ndk1::__map_value_compare<std::__ndk1::basic_string<char, std::__ndk1::char_traits<char>, std::__ndk1::allocator<char> >, std::__ndk1::__value_type<std::__ndk1::basic_string<char, std::__ndk1::char_traits<char>, std::__ndk1::allocator<char> >, std::__ndk1::shared_ptr<geode::Hook> >, std::__ndk1::less<std::__ndk1::basic_string<char, std::__ndk1::char_traits<char>, std::__ndk1::allocator<char> > >, true>, std::__ndk1::allocator<std::__ndk1::__value_type<std::__ndk1::basic_string<char, std::__ndk1::char_traits<char>, std::__ndk1::allocator<char> >, std::__ndk1::shared_ptr<geode::Hook> > > >::find<std::__ndk1::basic_string<char, std::__ndk1::char_traits<char>, std::__ndk1::allocator<char> > >(std::__ndk1::basic_string<char, std::__ndk1::char_traits<char>, std::__ndk1::allocator<char> > const&)
PUBLIC 76078 0 std::__ndk1::unique_ptr<std::__ndk1::__tree_node<std::__ndk1::__value_type<std::__ndk1::basic_string<char, std::__ndk1::char_traits<char>, std::__ndk1::allocator<char> >, std::__ndk1::shared_ptr<geode::Hook> >, void*>, std::__ndk1::__tree_node_destructor<std::__ndk1::allocator<std::__ndk1::__tree_node<std::__ndk1::__value_type<std::__ndk1::basic_string<char, std::__ndk1::char_traits<char>, std::__ndk1::allocator<char> >, std::__ndk1::shared_ptr<geode::Hook> >, void*> > > >::~unique_ptr[abi:ne180000]()
PUBLIC 760f4 0 _ZN5geode15UnwrapExceptionC2IRPNS_4HookEQsr4implE18IsStringStreamableIT_EEENS_4impl5OkTagEOS5_
PUBLIC 76248 0 std::__ndk1::__throw_bad_variant_access[abi:ne180000]()
PUBLIC 7627c 0 std::__ndk1::basic_stringstream<char, std::__ndk1::char_traits<char>, std::__ndk1::allocator<char> >::basic_stringstream[abi:ne180000]()
PUBLIC m 763a8 0 std::__ndk1::basic_stringstream<char, std::__ndk1::char_traits<char>, std::__ndk1::allocator<char> >::~basic_stringstream()
PUBLIC 76428 0 geode::UnwrapException::~UnwrapException()
PUBLIC 7644c 0 std::__ndk1::__put_character_sequence[abi:ne180000]<char, std::__ndk1::char_traits<char> >(std::__ndk1::basic_ostream<char, std::__ndk1::char_traits<char> >, std::__ndk1::basic_ostream const*, unsigned long)
PUBLIC 765f0 0 std::__ndk1::__pad_and_output[abi:ne180000]<char, std::__ndk1::char_traits<char> >(std::__ndk1::char_traits<char>, std::__ndk1::ostreambuf_iterator const*, std::__ndk1::ostreambuf_iterator const, std::__ndk1::ostreambuf_iterator const, std::__ndk1::ios_base&, std::__ndk1::ostreambuf_iterator)
PUBLIC 767cc 0 std::__ndk1::basic_stringbuf<char, std::__ndk1::char_traits<char>, std::__ndk1::allocator<char> >::str[abi:ne180000]() &&
PUBLIC 76944 0 std::__ndk1::basic_stringbuf<char, std::__ndk1::char_traits<char>, std::__ndk1::allocator<char> >::__init_buf_ptrs[abi:ne180000]()
PUBLIC 76a8c 0 _ZN5geode15UnwrapExceptionC2IRNSt6__ndk112basic_stringIcNS2_11char_traitsIcEENS2_9allocatorIcEEEEQsr4implE18IsStringStreamableIT_EEENS_4impl6ErrTagEOSA_
PUBLIC 76bf4 0 std::__ndk1::__variant_detail::__visitation::__base::__dispatcher<(unsigned long)0>::__dispatch[abi:ne180000]<std::__ndk1::__variant_detail::__dtor<std::__ndk1::__variant_detail::__traits<std::__ndk1::monostate, std::__ndk1::basic_string<char, std::__ndk1::char_traits<char>, std::__ndk1::allocator<char> > >, (std::__ndk1::__variant_detail::_Trait)1>::__destroy[abi:ne180000]()::{lambda(auto:1&)#1}, std::__ndk1::__variant_detail::__base<(std::__ndk1::__variant_detail::__traits<std::__ndk1::monostate, std::__ndk1::basic_string<char, std::__ndk1::char_traits<char>, std::__ndk1::allocator<char> > >)1, std::__ndk1::__variant_detail::__traits, std::__ndk1::allocator<char> >&>(std::__ndk1::__variant_detail::__dtor<std::__ndk1::__variant_detail::__traits<std::__ndk1::monostate, std::__ndk1::basic_string<char, std::__ndk1::char_traits<char>, std::__ndk1::allocator<char> > >, (std::__ndk1::__variant_detail::_Trait)1>, std::__ndk1::__variant_detail::__base<(std::__ndk1::__variant_detail::__traits<std::__ndk1::monostate, std::__ndk1::basic_string<char, std::__ndk1::char_traits<char>, std::__ndk1::allocator<char> > >)1, std::__ndk1::__variant_detail::__traits, std::__ndk1::allocator<char> >&)
PUBLIC 76bf8 0 std::__ndk1::__variant_detail::__visitation::__base::__dispatcher<(unsigned long)1>::__dispatch[abi:ne180000]<std::__ndk1::__variant_detail::__dtor<std::__ndk1::__variant_detail::__traits<std::__ndk1::monostate, std::__ndk1::basic_string<char, std::__ndk1::char_traits<char>, std::__ndk1::allocator<char> > >, (std::__ndk1::__variant_detail::_Trait)1>::__destroy[abi:ne180000]()::{lambda(auto:1&)#1}, std::__ndk1::__variant_detail::__base<(std::__ndk1::__variant_detail::__traits<std::__ndk1::monostate, std::__ndk1::basic_string<char, std::__ndk1::char_traits<char>, std::__ndk1::allocator<char> > >)1, std::__ndk1::__variant_detail::__traits, std::__ndk1::allocator<char> >&>(std::__ndk1::__variant_detail::__dtor<std::__ndk1::__variant_detail::__traits<std::__ndk1::monostate, std::__ndk1::basic_string<char, std::__ndk1::char_traits<char>, std::__ndk1::allocator<char> > >, (std::__ndk1::__variant_detail::_Trait)1>, std::__ndk1::__variant_detail::__base<(std::__ndk1::__variant_detail::__traits<std::__ndk1::monostate, std::__ndk1::basic_string<char, std::__ndk1::char_traits<char>, std::__ndk1::allocator<char> > >)1, std::__ndk1::__variant_detail::__traits, std::__ndk1::allocator<char> >&)
PUBLIC 76c0c 0 std::__ndk1::vector<std::__ndk1::basic_string<char, std::__ndk1::char_traits<char>, std::__ndk1::allocator<char> >, std::__ndk1::allocator<std::__ndk1::basic_string<char, std::__ndk1::char_traits<char>, std::__ndk1::allocator<char> > > >::__push_back_slow_path<std::__ndk1::basic_string<char, std::__ndk1::char_traits<char>, std::__ndk1::allocator<char> > const&>(std::__ndk1::basic_string<char, std::__ndk1::char_traits<char>, std::__ndk1::allocator<char> > const&)
PUBLIC 76e34 0 std::__ndk1::__split_buffer<std::__ndk1::basic_string<char, std::__ndk1::char_traits<char>, std::__ndk1::allocator<char> >, std::__ndk1::allocator<std::__ndk1::basic_string<char, std::__ndk1::char_traits<char>, std::__ndk1::allocator<char> > >&>::~__split_buffer()
PUBLIC 76e9c 0 std::__ndk1::__variant_detail::__visitation::__base::__dispatcher<(unsigned long)0>::__dispatch[abi:ne180000]<std::__ndk1::__variant_detail::__dtor<std::__ndk1::__variant_detail::__traits<geode::Hook*, std::__ndk1::basic_string<char, std::__ndk1::char_traits<char>, std::__ndk1::allocator<char> > >, (std::__ndk1::__variant_detail::_Trait)1>::__destroy[abi:ne180000]()::{lambda(auto:1&)#1}, std::__ndk1::__variant_detail::__base<(std::__ndk1::__variant_detail::__traits<geode::Hook*, std::__ndk1::basic_string<char, std::__ndk1::char_traits<char>, std::__ndk1::allocator<char> > >)1, geode::Hook, std::__ndk1::allocator<char> >&>(std::__ndk1::__variant_detail::__dtor<std::__ndk1::__variant_detail::__traits<geode::Hook*, std::__ndk1::basic_string<char, std::__ndk1::char_traits<char>, std::__ndk1::allocator<char> > >, (std::__ndk1::__variant_detail::_Trait)1>, std::__ndk1::__variant_detail::__base<(std::__ndk1::__variant_detail::__traits<geode::Hook*, std::__ndk1::basic_string<char, std::__ndk1::char_traits<char>, std::__ndk1::allocator<char> > >)1, geode::Hook, std::__ndk1::allocator<char> >&)
PUBLIC 76ea0 0 std::__ndk1::__variant_detail::__visitation::__base::__dispatcher<(unsigned long)1>::__dispatch[abi:ne180000]<std::__ndk1::__variant_detail::__dtor<std::__ndk1::__variant_detail::__traits<geode::Hook*, std::__ndk1::basic_string<char, std::__ndk1::char_traits<char>, std::__ndk1::allocator<char> > >, (std::__ndk1::__variant_detail::_Trait)1>::__destroy[abi:ne180000]()::{lambda(auto:1&)#1}, std::__ndk1::__variant_detail::__base<(std::__ndk1::__variant_detail::__traits<geode::Hook*, std::__ndk1::basic_string<char, std::__ndk1::char_traits<char>, std::__ndk1::allocator<char> > >)1, geode::Hook, std::__ndk1::allocator<char> >&>(std::__ndk1::__variant_detail::__dtor<std::__ndk1::__variant_detail::__traits<geode::Hook*, std::__ndk1::basic_string<char, std::__ndk1::char_traits<char>, std::__ndk1::allocator<char> > >, (std::__ndk1::__variant_detail::_Trait)1>, std::__ndk1::__variant_detail::__base<(std::__ndk1::__variant_detail::__traits<geode::Hook*, std::__ndk1::basic_string<char, std::__ndk1::char_traits<char>, std::__ndk1::allocator<char> > >)1, geode::Hook, std::__ndk1::allocator<char> >&)
PUBLIC 76eb4 0 std::__ndk1::__tree<std::__ndk1::__value_type<std::__ndk1::basic_string<char, std::__ndk1::char_traits<char>, std::__ndk1::allocator<char> >, std::__ndk1::shared_ptr<geode::Hook> >, std::__ndk1::__map_value_compare<std::__ndk1::basic_string<char, std::__ndk1::char_traits<char>, std::__ndk1::allocator<char> >, std::__ndk1::__value_type<std::__ndk1::basic_string<char, std::__ndk1::char_traits<char>, std::__ndk1::allocator<char> >, std::__ndk1::shared_ptr<geode::Hook> >, std::__ndk1::less<std::__ndk1::basic_string<char, std::__ndk1::char_traits<char>, std::__ndk1::allocator<char> > >, true>, std::__ndk1::allocator<std::__ndk1::__value_type<std::__ndk1::basic_string<char, std::__ndk1::char_traits<char>, std::__ndk1::allocator<char> >, std::__ndk1::shared_ptr<geode::Hook> > > >::erase(std::__ndk1::__tree_const_iterator<std::__ndk1::__value_type<std::__ndk1::basic_string<char, std::__ndk1::char_traits<char>, std::__ndk1::allocator<char> >, std::__ndk1::shared_ptr<geode::Hook> >, std::__ndk1::__tree_node<std::__ndk1::__value_type<std::__ndk1::basic_string<char, std::__ndk1::char_traits<char>, std::__ndk1::allocator<char> >, std::__ndk1::shared_ptr<geode::Hook> >, void*>*, long>)
PUBLIC 76f88 0 std::__ndk1::__tree_remove[abi:ne180000]<std::__ndk1::__tree_node_base<void*>*>(std::__ndk1::__tree_node_base<void*>*, std::__ndk1::__tree_node_base<void*>*)
PUBLIC 77350 0 std::__ndk1::__tree<std::__ndk1::__value_type<std::__ndk1::basic_string<char, std::__ndk1::char_traits<char>, std::__ndk1::allocator<char> >, std::__ndk1::shared_ptr<geode::Hook> >, std::__ndk1::__map_value_compare<std::__ndk1::basic_string<char, std::__ndk1::char_traits<char>, std::__ndk1::allocator<char> >, std::__ndk1::__value_type<std::__ndk1::basic_string<char, std::__ndk1::char_traits<char>, std::__ndk1::allocator<char> >, std::__ndk1::shared_ptr<geode::Hook> >, std::__ndk1::less<std::__ndk1::basic_string<char, std::__ndk1::char_traits<char>, std::__ndk1::allocator<char> > >, true>, std::__ndk1::allocator<std::__ndk1::__value_type<std::__ndk1::basic_string<char, std::__ndk1::char_traits<char>, std::__ndk1::allocator<char> >, std::__ndk1::shared_ptr<geode::Hook> > > >::destroy(std::__ndk1::__tree_node<std::__ndk1::__value_type<std::__ndk1::basic_string<char, std::__ndk1::char_traits<char>, std::__ndk1::allocator<char> >, std::__ndk1::shared_ptr<geode::Hook> >, void*>*)
PUBLIC 773dc 0 geode::modifier::AsStaticFunction_send<ModCCHttpClient, void (ModCCHttpClient::*)(cocos2d::extension::CCHttpRequest*)>::Impl<void (ModCCHttpClient::*)(cocos2d::extension::CCHttpRequest*)>::function(ModCCHttpClient*, cocos2d::extension::CCHttpRequest*)
PUBLIC 77418 0 std::__ndk1::shared_ptr<tulip::hook::CallingConvention>::~shared_ptr[abi:ne180000]()
PUBLIC 77468 0 tulip::hook::HandlerMetadata::~HandlerMetadata()
PUBLIC 774cc 0 std::__ndk1::__tree<std::__ndk1::__value_type<std::__ndk1::basic_string<char, std::__ndk1::char_traits<char>, std::__ndk1::allocator<char> >, std::__ndk1::shared_ptr<geode::Hook> >, std::__ndk1::__map_value_compare<std::__ndk1::basic_string<char, std::__ndk1::char_traits<char>, std::__ndk1::allocator<char> >, std::__ndk1::__value_type<std::__ndk1::basic_string<char, std::__ndk1::char_traits<char>, std::__ndk1::allocator<char> >, std::__ndk1::shared_ptr<geode::Hook> >, std::__ndk1::less<std::__ndk1::basic_string<char, std::__ndk1::char_traits<char>, std::__ndk1::allocator<char> > >, true>, std::__ndk1::allocator<std::__ndk1::__value_type<std::__ndk1::basic_string<char, std::__ndk1::char_traits<char>, std::__ndk1::allocator<char> >, std::__ndk1::shared_ptr<geode::Hook> > > >::__emplace_unique_key_args<std::__ndk1::basic_string<char, std::__ndk1::char_traits<char>, std::__ndk1::allocator<char> >, std::__ndk1::piecewise_construct_t const&, std::__ndk1::tuple<std::__ndk1::basic_string<char, std::__ndk1::char_traits<char>, std::__ndk1::allocator<char> >&&>, std::__ndk1::tuple<> >(std::__ndk1::basic_string<char, std::__ndk1::char_traits<char>, std::__ndk1::allocator<char> > const&, std::__ndk1::piecewise_construct_t const&, std::__ndk1::tuple<std::__ndk1::basic_string<char, std::__ndk1::char_traits<char>, std::__ndk1::allocator<char> >&&>, std::__ndk1::tuple<>)
PUBLIC 77644 0 WebRequest_send(geode::utils::web::WebRequest*, std::__ndk1::basic_string_view<char, std::__ndk1::char_traits<char> >, std::__ndk1::basic_string_view<char, std::__ndk1::char_traits<char> >)
PUBLIC 778f8 0 geodeExecFunction12<(anonymous namespace)::ExecFuncUnique12>(geode::ModStateEvent*)
PUBLIC 77df0 0 std::__ndk1::vector<tulip::hook::AbstractType, std::__ndk1::allocator<tulip::hook::AbstractType> >::__throw_length_error[abi:ne180000]() const
PUBLIC 77e04 0 _ZN5geode15UnwrapExceptionC2IRKPNS_4HookEQsr4implE18IsStringStreamableIT_EEENS_4impl5OkTagEOS6_
PUBLIC 77f58 0 _GLOBAL__sub_I_GeodeWeb.cpp
PUBLIC 78084 0 ModMenuLayer::onLogoClick(cocos2d::CCObject*)
PUBLIC 78088 0 cocos2d::CCCopying::copyWithZone(cocos2d::CCZone*)
PUBLIC 78090 0 cocos2d::CCKeyboardDelegate::keyUp(cocos2d::enumKeyCodes)
PUBLIC 78094 0 cocos2d::CCMouseDelegate::rightKeyDown()
PUBLIC 78098 0 cocos2d::CCMouseDelegate::rightKeyUp()
PUBLIC 7809c 0 cocos2d::CCMouseDelegate::scrollWheel(float, float)
PUBLIC 780a0 0 __cxx_global_var_init
PUBLIC 78520 0 geode::modifier::ModifyBase<geode::modifier::ModifyDerive<ModMenuLayer, MenuLayer> >::~ModifyBase()
PUBLIC 7853c 0 geode::modifier::ModifyDerive<ModMenuLayer, MenuLayer>::apply()
PUBLIC 78844 0 geode::modifier::ModifyBase<geode::modifier::ModifyDerive<ModMenuLayer, MenuLayer> >::apply()
PUBLIC 78848 0 geode::modifier::AsStaticFunction_init<ModMenuLayer, bool (ModMenuLayer::*)()>::Impl<bool (ModMenuLayer::*)()>::function(ModMenuLayer*)
PUBLIC 789c4 0 geode::addresser::Addresser::addressOfVirtual<bool, MenuLayer, >(bool (MenuLayer::*)())
PUBLIC 78a6c 0 MenuLayer::MenuLayer(geode::ZeroConstructorType)
PUBLIC 78b08 0 InterceptPopup::scene()
PUBLIC 78f34 0 InterceptPopup::setup()
PUBLIC 792ac 0 InterceptPopup::setupCodeBlock(bool)
PUBLIC 793d8 0 InterceptPopup::setupList()
PUBLIC 795a0 0 InterceptPopup::onSettings(cocos2d::CCObject*)
PUBLIC 79620 0 InterceptPopup::reloadList()
PUBLIC 796d4 0 InterceptPopup::preReload()
PUBLIC 797ac 0 InterceptPopup::reloadCodeBlock(bool)
PUBLIC 79868 0 geode::cocos::CCArrayExt<cocos2d::CCNode*, cocos2d::CCNode>::~CCArrayExt()
PUBLIC 79884 0 geode::Popup<>::~Popup()
PUBLIC 798f0 0 InterceptPopup::~InterceptPopup()
PUBLIC 79964 0 geode::Popup<>::registerWithTouchDispatcher()
PUBLIC 79990 0 geode::Popup<>::keyDown(cocos2d::enumKeyCodes)
PUBLIC 799b8 0 cocos2d::CCLayerRGBA::setOpacityModifyRGB(bool)
PUBLIC 799bc 0 cocos2d::CCLayerRGBA::isOpacityModifyRGB()
PUBLIC 799c4 0 geode::Popup<>::onClose(cocos2d::CCObject*)
PUBLIC 79b0c 0 {virtual override thunk({offset(-320)}, InterceptPopup::~InterceptPopup())}
PUBLIC 79b78 0 {virtual override thunk({offset(-320)}, InterceptPopup::~InterceptPopup())}
PUBLIC 79bec 0 {virtual override thunk({offset(-344)}, geode::Popup<>::keyDown(cocos2d::enumKeyCodes))}
PUBLIC 79c18 0 {virtual override thunk({offset(-408)}, cocos2d::CCLayerRGBA::setOpacityModifyRGB(bool))}
PUBLIC 79c1c 0 {virtual override thunk({offset(-408)}, cocos2d::CCLayerRGBA::isOpacityModifyRGB())}
PUBLIC 79c24 0 geode::Popup<>::~Popup()
PUBLIC 79c28 0 {virtual override thunk({offset(-320)}, geode::Popup<>::~Popup())}
PUBLIC 79c94 0 {virtual override thunk({offset(-320)}, geode::Popup<>::~Popup())}
PUBLIC 79c98 0 std::__ndk1::__function::__base<void (proxy::HttpInfo*)>::~__base()
PUBLIC 79c9c 0 std::__ndk1::__function::__func<InterceptPopup::setupList()::$_0, std::__ndk1::allocator<InterceptPopup::setupList()::$_0>, void (proxy::HttpInfo*)>::~__func()
PUBLIC 79ca0 0 std::__ndk1::__function::__func<InterceptPopup::setupList()::$_0, std::__ndk1::allocator<InterceptPopup::setupList()::$_0>, void (proxy::HttpInfo*)>::__clone() const
PUBLIC 79cd4 0 std::__ndk1::__function::__func<InterceptPopup::setupList()::$_0, std::__ndk1::allocator<InterceptPopup::setupList()::$_0>, void (proxy::HttpInfo*)>::__clone(std::__ndk1::__function::__base<void (proxy::HttpInfo*)>*) const
PUBLIC 79ce8 0 std::__ndk1::__function::__func<InterceptPopup::setupList()::$_0, std::__ndk1::allocator<InterceptPopup::setupList()::$_0>, void (proxy::HttpInfo*)>::destroy()
PUBLIC 79cec 0 std::__ndk1::__function::__func<InterceptPopup::setupList()::$_0, std::__ndk1::allocator<InterceptPopup::setupList()::$_0>, void (proxy::HttpInfo*)>::destroy_deallocate()
PUBLIC 79cf0 0 std::__ndk1::__function::__func<InterceptPopup::setupList()::$_0, std::__ndk1::allocator<InterceptPopup::setupList()::$_0>, void (proxy::HttpInfo*)>::operator()(proxy::HttpInfo*&&)
PUBLIC 79d3c 0 std::__ndk1::__function::__func<InterceptPopup::setupList()::$_0, std::__ndk1::allocator<InterceptPopup::setupList()::$_0>, void (proxy::HttpInfo*)>::target(std::type_info const&) const
PUBLIC 79d58 0 std::__ndk1::__function::__func<InterceptPopup::setupList()::$_0, std::__ndk1::allocator<InterceptPopup::setupList()::$_0>, void (proxy::HttpInfo*)>::target_type() const
PUBLIC 79d64 0 geode::Popup<>::CloseEvent::~CloseEvent()
PUBLIC 79dc4 0 geode::Popup<>::CloseEvent::~CloseEvent()
PUBLIC 79e34 0 std::__ndk1::__shared_ptr_emplace<geode::Popup<>::CloseEvent::Impl, std::__ndk1::allocator<geode::Popup<>::CloseEvent::Impl> >::~__shared_ptr_emplace()
PUBLIC 79e44 0 std::__ndk1::__shared_ptr_emplace<geode::Popup<>::CloseEvent::Impl, std::__ndk1::allocator<geode::Popup<>::CloseEvent::Impl> >::~__shared_ptr_emplace()
PUBLIC 79e74 0 std::__ndk1::__shared_ptr_emplace<geode::Popup<>::CloseEvent::Impl, std::__ndk1::allocator<geode::Popup<>::CloseEvent::Impl> >::__on_zero_shared()
PUBLIC 79e78 0 std::__ndk1::__shared_ptr_emplace<geode::Popup<>::CloseEvent::Impl, std::__ndk1::allocator<geode::Popup<>::CloseEvent::Impl> >::__on_zero_shared_weak()
PUBLIC 79e7c 0 Warning::show()
PUBLIC 7a024 0 CaptureList::create(cocos2d::CCSize const&, float, std::__ndk1::function<void (proxy::HttpInfo*)> const&)
PUBLIC 7a164 0 CaptureList::init(cocos2d::CCSize const&, float, std::__ndk1::function<void (proxy::HttpInfo*)> const&)
PUBLIC 7a670 0 std::__ndk1::deque<proxy::ProxyHandler*, std::__ndk1::allocator<proxy::ProxyHandler*> >::~deque[abi:ne180000]()
PUBLIC 7a740 0 std::__ndk1::__function::__func<CaptureList::init(cocos2d::CCSize const&, float, std::__ndk1::function<void (proxy::HttpInfo*)> const&)::$_0, std::__ndk1::allocator<CaptureList::init(cocos2d::CCSize const&, float, std::__ndk1::function<void (proxy::HttpInfo*)> const&)::$_0>, void (CaptureCell*)>::~__func()
PUBLIC 7a78c 0 std::__ndk1::__function::__func<CaptureList::init(cocos2d::CCSize const&, float, std::__ndk1::function<void (proxy::HttpInfo*)> const&)::$_0, std::__ndk1::allocator<CaptureList::init(cocos2d::CCSize const&, float, std::__ndk1::function<void (proxy::HttpInfo*)> const&)::$_0>, void (CaptureCell*)>::~__func()
PUBLIC 7a7e8 0 std::__ndk1::__function::__func<CaptureList::init(cocos2d::CCSize const&, float, std::__ndk1::function<void (proxy::HttpInfo*)> const&)::$_0, std::__ndk1::allocator<CaptureList::init(cocos2d::CCSize const&, float, std::__ndk1::function<void (proxy::HttpInfo*)> const&)::$_0>, void (CaptureCell*)>::__clone() const
PUBLIC 7a884 0 std::__ndk1::__function::__func<CaptureList::init(cocos2d::CCSize const&, float, std::__ndk1::function<void (proxy::HttpInfo*)> const&)::$_0, std::__ndk1::allocator<CaptureList::init(cocos2d::CCSize const&, float, std::__ndk1::function<void (proxy::HttpInfo*)> const&)::$_0>, void (CaptureCell*)>::__clone(std::__ndk1::__function::__base<void (CaptureCell*)>*) const
PUBLIC 7a90c 0 std::__ndk1::__function::__func<CaptureList::init(cocos2d::CCSize const&, float, std::__ndk1::function<void (proxy::HttpInfo*)> const&)::$_0, std::__ndk1::allocator<CaptureList::init(cocos2d::CCSize const&, float, std::__ndk1::function<void (proxy::HttpInfo*)> const&)::$_0>, void (CaptureCell*)>::destroy()
PUBLIC 7a94c 0 std::__ndk1::__function::__func<CaptureList::init(cocos2d::CCSize const&, float, std::__ndk1::function<void (proxy::HttpInfo*)> const&)::$_0, std::__ndk1::allocator<CaptureList::init(cocos2d::CCSize const&, float, std::__ndk1::function<void (proxy::HttpInfo*)> const&)::$_0>, void (CaptureCell*)>::destroy_deallocate()
PUBLIC 7a99c 0 std::__ndk1::__function::__func<CaptureList::init(cocos2d::CCSize const&, float, std::__ndk1::function<void (proxy::HttpInfo*)> const&)::$_0, std::__ndk1::allocator<CaptureList::init(cocos2d::CCSize const&, float, std::__ndk1::function<void (proxy::HttpInfo*)> const&)::$_0>, void (CaptureCell*)>::operator()(CaptureCell*&&)
PUBLIC 7aaac 0 std::__ndk1::__function::__func<CaptureList::init(cocos2d::CCSize const&, float, std::__ndk1::function<void (proxy::HttpInfo*)> const&)::$_0, std::__ndk1::allocator<CaptureList::init(cocos2d::CCSize const&, float, std::__ndk1::function<void (proxy::HttpInfo*)> const&)::$_0>, void (CaptureCell*)>::target(std::type_info const&) const
PUBLIC 7aac8 0 std::__ndk1::__function::__func<CaptureList::init(cocos2d::CCSize const&, float, std::__ndk1::function<void (proxy::HttpInfo*)> const&)::$_0, std::__ndk1::allocator<CaptureList::init(cocos2d::CCSize const&, float, std::__ndk1::function<void (proxy::HttpInfo*)> const&)::$_0>, void (CaptureCell*)>::target_type() const
PUBLIC 7aad4 0 CaptureList::setup()
PUBLIC 7acac 0 KeybindNode<geode::Border>::bind(std::__ndk1::basic_string<char, std::__ndk1::char_traits<char>, std::__ndk1::allocator<char> > const&, std::__ndk1::function<void ()> const&)
PUBLIC 7aebc 0 CaptureList::tabCell(bool)
PUBLIC 7b0d4 0 CaptureList::~CaptureList()
PUBLIC 7b140 0 CaptureList::~CaptureList()
PUBLIC 7b1b4 0 KeybindNode<geode::Border>::init()
PUBLIC 7b1d4 0 {virtual override thunk({offset(-320)}, CaptureList::~CaptureList())}
PUBLIC 7b244 0 {virtual override thunk({offset(-320)}, CaptureList::~CaptureList())}
PUBLIC 7b2bc 0 cocos2d::CCNode::addEventListener<keybinds::InvokeBindFilter, std::__ndk1::basic_string<char, std::__ndk1::char_traits<char>, std::__ndk1::allocator<char> > const&>(std::__ndk1::function<keybinds::InvokeBindFilter::Callback>, std::__ndk1::basic_string<char, std::__ndk1::char_traits<char>, std::__ndk1::allocator<char> > const&)
PUBLIC 7b43c 0 cocos2d::CCNode::addEventListener<keybinds::InvokeBindFilter, std::__ndk1::basic_string<char, std::__ndk1::char_traits<char>, std::__ndk1::allocator<char> > const&>(std::__ndk1::basic_string<char, std::__ndk1::char_traits<char>, std::__ndk1::allocator<char> > const&, std::__ndk1::function<keybinds::InvokeBindFilter::Callback>, std::__ndk1::basic_string<char, std::__ndk1::char_traits<char>, std::__ndk1::allocator<char> > const&)
PUBLIC 7b5dc 0 std::__ndk1::__function::__func<KeybindNode<geode::Border>::bind(std::__ndk1::basic_string<char, std::__ndk1::char_traits<char>, std::__ndk1::allocator<char> > const&, std::__ndk1::function<void ()> const&)::{lambda(keybinds::InvokeBindEvent const*)#1}, std::__ndk1::allocator<KeybindNode<geode::Border>::bind(std::__ndk1::basic_string<char, std::__ndk1::char_traits<char>, std::__ndk1::allocator<char> > const&, std::__ndk1::function<void ()> const&)::{lambda(keybinds::InvokeBindEvent const*)#1}>, geode::ListenerResult(keybinds::InvokeBindEvent*)>::~__func()
PUBLIC 7b628 0 std::__ndk1::__function::__func<KeybindNode<geode::Border>::bind(std::__ndk1::basic_string<char, std::__ndk1::char_traits<char>, std::__ndk1::allocator<char> > const&, std::__ndk1::function<void ()> const&)::{lambda(keybinds::InvokeBindEvent const*)#1}, std::__ndk1::allocator<KeybindNode<geode::Border>::bind(std::__ndk1::basic_string<char, std::__ndk1::char_traits<char>, std::__ndk1::allocator<char> > const&, std::__ndk1::function<void ()> const&)::{lambda(keybinds::InvokeBindEvent const*)#1}>, geode::ListenerResult(keybinds::InvokeBindEvent*)>::~__func()
PUBLIC 7b684 0 std::__ndk1::__function::__func<KeybindNode<geode::Border>::bind(std::__ndk1::basic_string<char, std::__ndk1::char_traits<char>, std::__ndk1::allocator<char> > const&, std::__ndk1::function<void ()> const&)::{lambda(keybinds::InvokeBindEvent const*)#1}, std::__ndk1::allocator<KeybindNode<geode::Border>::bind(std::__ndk1::basic_string<char, std::__ndk1::char_traits<char>, std::__ndk1::allocator<char> > const&, std::__ndk1::function<void ()> const&)::{lambda(keybinds::InvokeBindEvent const*)#1}>, geode::ListenerResult(keybinds::InvokeBindEvent*)>::__clone() const
PUBLIC 7b720 0 std::__ndk1::__function::__func<KeybindNode<geode::Border>::bind(std::__ndk1::basic_string<char, std::__ndk1::char_traits<char>, std::__ndk1::allocator<char> > const&, std::__ndk1::function<void ()> const&)::{lambda(keybinds::InvokeBindEvent const*)#1}, std::__ndk1::allocator<KeybindNode<geode::Border>::bind(std::__ndk1::basic_string<char, std::__ndk1::char_traits<char>, std::__ndk1::allocator<char> > const&, std::__ndk1::function<void ()> const&)::{lambda(keybinds::InvokeBindEvent const*)#1}>, geode::ListenerResult(keybinds::InvokeBindEvent*)>::__clone(std::__ndk1::__function::__base<geode::ListenerResult(keybinds::InvokeBindEvent*)>*) const
PUBLIC 7b7a8 0 std::__ndk1::__function::__func<KeybindNode<geode::Border>::bind(std::__ndk1::basic_string<char, std::__ndk1::char_traits<char>, std::__ndk1::allocator<char> > const&, std::__ndk1::function<void ()> const&)::{lambda(keybinds::InvokeBindEvent const*)#1}, std::__ndk1::allocator<KeybindNode<geode::Border>::bind(std::__ndk1::basic_string<char, std::__ndk1::char_traits<char>, std::__ndk1::allocator<char> > const&, std::__ndk1::function<void ()> const&)::{lambda(keybinds::InvokeBindEvent const*)#1}>, geode::ListenerResult(keybinds::InvokeBindEvent*)>::destroy()
PUBLIC 7b7e8 0 std::__ndk1::__function::__func<KeybindNode<geode::Border>::bind(std::__ndk1::basic_string<char, std::__ndk1::char_traits<char>, std::__ndk1::allocator<char> > const&, std::__ndk1::function<void ()> const&)::{lambda(keybinds::InvokeBindEvent const*)#1}, std::__ndk1::allocator<KeybindNode<geode::Border>::bind(std::__ndk1::basic_string<char, std::__ndk1::char_traits<char>, std::__ndk1::allocator<char> > const&, std::__ndk1::function<void ()> const&)::{lambda(keybinds::InvokeBindEvent const*)#1}>, geode::ListenerResult(keybinds::InvokeBindEvent*)>::destroy_deallocate()
PUBLIC 7b838 0 std::__ndk1::__function::__func<KeybindNode<geode::Border>::bind(std::__ndk1::basic_string<char, std::__ndk1::char_traits<char>, std::__ndk1::allocator<char> > const&, std::__ndk1::function<void ()> const&)::{lambda(keybinds::InvokeBindEvent const*)#1}, std::__ndk1::allocator<KeybindNode<geode::Border>::bind(std::__ndk1::basic_string<char, std::__ndk1::char_traits<char>, std::__ndk1::allocator<char> > const&, std::__ndk1::function<void ()> const&)::{lambda(keybinds::InvokeBindEvent const*)#1}>, geode::ListenerResult(keybinds::InvokeBindEvent*)>::operator()(keybinds::InvokeBindEvent*&&)
PUBLIC 7b880 0 std::__ndk1::__function::__func<KeybindNode<geode::Border>::bind(std::__ndk1::basic_string<char, std::__ndk1::char_traits<char>, std::__ndk1::allocator<char> > const&, std::__ndk1::function<void ()> const&)::{lambda(keybinds::InvokeBindEvent const*)#1}, std::__ndk1::allocator<KeybindNode<geode::Border>::bind(std::__ndk1::basic_string<char, std::__ndk1::char_traits<char>, std::__ndk1::allocator<char> > const&, std::__ndk1::function<void ()> const&)::{lambda(keybinds::InvokeBindEvent const*)#1}>, geode::ListenerResult(keybinds::InvokeBindEvent*)>::target(std::type_info const&) const
PUBLIC 7b89c 0 std::__ndk1::__function::__func<KeybindNode<geode::Border>::bind(std::__ndk1::basic_string<char, std::__ndk1::char_traits<char>, std::__ndk1::allocator<char> > const&, std::__ndk1::function<void ()> const&)::{lambda(keybinds::InvokeBindEvent const*)#1}, std::__ndk1::allocator<KeybindNode<geode::Border>::bind(std::__ndk1::basic_string<char, std::__ndk1::char_traits<char>, std::__ndk1::allocator<char> > const&, std::__ndk1::function<void ()> const&)::{lambda(keybinds::InvokeBindEvent const*)#1}>, geode::ListenerResult(keybinds::InvokeBindEvent*)>::target_type() const
PUBLIC 7b8a8 0 std::__ndk1::__function::__func<CaptureList::setup()::$_0, std::__ndk1::allocator<CaptureList::setup()::$_0>, void ()>::~__func()
PUBLIC 7b8ac 0 std::__ndk1::__function::__func<CaptureList::setup()::$_0, std::__ndk1::allocator<CaptureList::setup()::$_0>, void ()>::__clone() const
PUBLIC 7b8e0 0 std::__ndk1::__function::__func<CaptureList::setup()::$_0, std::__ndk1::allocator<CaptureList::setup()::$_0>, void ()>::__clone(std::__ndk1::__function::__base<void ()>*) const
PUBLIC 7b8f4 0 std::__ndk1::__function::__func<CaptureList::setup()::$_0, std::__ndk1::allocator<CaptureList::setup()::$_0>, void ()>::destroy()
PUBLIC 7b8f8 0 std::__ndk1::__function::__func<CaptureList::setup()::$_0, std::__ndk1::allocator<CaptureList::setup()::$_0>, void ()>::destroy_deallocate()
PUBLIC 7b8fc 0 std::__ndk1::__function::__func<CaptureList::setup()::$_0, std::__ndk1::allocator<CaptureList::setup()::$_0>, void ()>::operator()()
PUBLIC 7b908 0 std::__ndk1::__function::__func<CaptureList::setup()::$_0, std::__ndk1::allocator<CaptureList::setup()::$_0>, void ()>::target(std::type_info const&) const
PUBLIC 7b924 0 std::__ndk1::__function::__func<CaptureList::setup()::$_0, std::__ndk1::allocator<CaptureList::setup()::$_0>, void ()>::target_type() const
PUBLIC 7b930 0 std::__ndk1::__function::__func<CaptureList::setup()::$_1, std::__ndk1::allocator<CaptureList::setup()::$_1>, void ()>::~__func()
PUBLIC 7b934 0 std::__ndk1::__function::__func<CaptureList::setup()::$_1, std::__ndk1::allocator<CaptureList::setup()::$_1>, void ()>::__clone() const
PUBLIC 7b968 0 std::__ndk1::__function::__func<CaptureList::setup()::$_1, std::__ndk1::allocator<CaptureList::setup()::$_1>, void ()>::__clone(std::__ndk1::__function::__base<void ()>*) const
PUBLIC 7b97c 0 std::__ndk1::__function::__func<CaptureList::setup()::$_1, std::__ndk1::allocator<CaptureList::setup()::$_1>, void ()>::destroy()
PUBLIC 7b980 0 std::__ndk1::__function::__func<CaptureList::setup()::$_1, std::__ndk1::allocator<CaptureList::setup()::$_1>, void ()>::destroy_deallocate()
PUBLIC 7b984 0 std::__ndk1::__function::__func<CaptureList::setup()::$_1, std::__ndk1::allocator<CaptureList::setup()::$_1>, void ()>::operator()()
PUBLIC 7b990 0 std::__ndk1::__function::__func<CaptureList::setup()::$_1, std::__ndk1::allocator<CaptureList::setup()::$_1>, void ()>::target(std::type_info const&) const
PUBLIC 7b9ac 0 std::__ndk1::__function::__func<CaptureList::setup()::$_1, std::__ndk1::allocator<CaptureList::setup()::$_1>, void ()>::target_type() const
PUBLIC 7b9b8 0 CaptureCell::create(unsigned long, proxy::HttpInfo const*, cocos2d::CCSize const&, std::__ndk1::function<void (CaptureCell*)> const&)
PUBLIC 7baf8 0 CaptureCell::init(unsigned long, cocos2d::CCSize const&)
PUBLIC 7d674 0 CaptureCell::onView(cocos2d::CCObject*)
PUBLIC 7d708 0 std::__ndk1::vector<std::__ndk1::tuple<std::__ndk1::basic_string<char, std::__ndk1::char_traits<char>, std::__ndk1::allocator<char> >, cocos2d::CCNode*, std::__ndk1::function<void (unsigned char)> >, std::__ndk1::allocator<std::__ndk1::tuple<std::__ndk1::basic_string<char, std::__ndk1::char_traits<char>, std::__ndk1::allocator<char> >, cocos2d::CCNode*, std::__ndk1::function<void (unsigned char)> > > >::~vector[abi:ne180000]()
PUBLIC 7d7c0 0 std::__ndk1::tuple<std::__ndk1::basic_string<char, std::__ndk1::char_traits<char>, std::__ndk1::allocator<char> >, cocos2d::CCNode*, std::__ndk1::function<void (unsigned char)> >::~tuple()
PUBLIC 7d824 0 CaptureCell::~CaptureCell()
PUBLIC 7d8dc 0 CaptureCell::~CaptureCell()
PUBLIC 7d99c 0 {virtual override thunk({offset(-320)}, CaptureCell::~CaptureCell())}
PUBLIC 7da58 0 {virtual override thunk({offset(-320)}, CaptureCell::~CaptureCell())}
PUBLIC 7db1c 0 std::__ndk1::__function::__func<CaptureCell::makeBadgeInfo<cocos2d::CCSprite>(std::__ndk1::basic_string<char, std::__ndk1::char_traits<char>, std::__ndk1::allocator<char> > const&, cocos2d::CCSprite*)::$_0, std::__ndk1::allocator<CaptureCell::makeBadgeInfo<cocos2d::CCSprite>(std::__ndk1::basic_string<char, std::__ndk1::char_traits<char>, std::__ndk1::allocator<char> > const&, cocos2d::CCSprite*)::$_0>, void (unsigned char)>::~__func()
PUBLIC 7db20 0 std::__ndk1::__function::__func<CaptureCell::makeBadgeInfo<cocos2d::CCSprite>(std::__ndk1::basic_string<char, std::__ndk1::char_traits<char>, std::__ndk1::allocator<char> > const&, cocos2d::CCSprite*)::$_0, std::__ndk1::allocator<CaptureCell::makeBadgeInfo<cocos2d::CCSprite>(std::__ndk1::basic_string<char, std::__ndk1::char_traits<char>, std::__ndk1::allocator<char> > const&, cocos2d::CCSprite*)::$_0>, void (unsigned char)>::__clone() const
PUBLIC 7db54 0 std::__ndk1::__function::__func<CaptureCell::makeBadgeInfo<cocos2d::CCSprite>(std::__ndk1::basic_string<char, std::__ndk1::char_traits<char>, std::__ndk1::allocator<char> > const&, cocos2d::CCSprite*)::$_0, std::__ndk1::allocator<CaptureCell::makeBadgeInfo<cocos2d::CCSprite>(std::__ndk1::basic_string<char, std::__ndk1::char_traits<char>, std::__ndk1::allocator<char> > const&, cocos2d::CCSprite*)::$_0>, void (unsigned char)>::__clone(std::__ndk1::__function::__base<void (unsigned char)>*) const
PUBLIC 7db68 0 std::__ndk1::__function::__func<CaptureCell::makeBadgeInfo<cocos2d::CCSprite>(std::__ndk1::basic_string<char, std::__ndk1::char_traits<char>, std::__ndk1::allocator<char> > const&, cocos2d::CCSprite*)::$_0, std::__ndk1::allocator<CaptureCell::makeBadgeInfo<cocos2d::CCSprite>(std::__ndk1::basic_string<char, std::__ndk1::char_traits<char>, std::__ndk1::allocator<char> > const&, cocos2d::CCSprite*)::$_0>, void (unsigned char)>::destroy()
PUBLIC 7db6c 0 std::__ndk1::__function::__func<CaptureCell::makeBadgeInfo<cocos2d::CCSprite>(std::__ndk1::basic_string<char, std::__ndk1::char_traits<char>, std::__ndk1::allocator<char> > const&, cocos2d::CCSprite*)::$_0, std::__ndk1::allocator<CaptureCell::makeBadgeInfo<cocos2d::CCSprite>(std::__ndk1::basic_string<char, std::__ndk1::char_traits<char>, std::__ndk1::allocator<char> > const&, cocos2d::CCSprite*)::$_0>, void (unsigned char)>::destroy_deallocate()
PUBLIC 7db70 0 std::__ndk1::__function::__func<CaptureCell::makeBadgeInfo<cocos2d::CCSprite>(std::__ndk1::basic_string<char, std::__ndk1::char_traits<char>, std::__ndk1::allocator<char> > const&, cocos2d::CCSprite*)::$_0, std::__ndk1::allocator<CaptureCell::makeBadgeInfo<cocos2d::CCSprite>(std::__ndk1::basic_string<char, std::__ndk1::char_traits<char>, std::__ndk1::allocator<char> > const&, cocos2d::CCSprite*)::$_0>, void (unsigned char)>::operator()(unsigned char&&)
PUBLIC 7db84 0 std::__ndk1::__function::__func<CaptureCell::makeBadgeInfo<cocos2d::CCSprite>(std::__ndk1::basic_string<char, std::__ndk1::char_traits<char>, std::__ndk1::allocator<char> > const&, cocos2d::CCSprite*)::$_0, std::__ndk1::allocator<CaptureCell::makeBadgeInfo<cocos2d::CCSprite>(std::__ndk1::basic_string<char, std::__ndk1::char_traits<char>, std::__ndk1::allocator<char> > const&, cocos2d::CCSprite*)::$_0>, void (unsigned char)>::target(std::type_info const&) const
PUBLIC 7dba0 0 std::__ndk1::__function::__func<CaptureCell::makeBadgeInfo<cocos2d::CCSprite>(std::__ndk1::basic_string<char, std::__ndk1::char_traits<char>, std::__ndk1::allocator<char> > const&, cocos2d::CCSprite*)::$_0, std::__ndk1::allocator<CaptureCell::makeBadgeInfo<cocos2d::CCSprite>(std::__ndk1::basic_string<char, std::__ndk1::char_traits<char>, std::__ndk1::allocator<char> > const&, cocos2d::CCSprite*)::$_0>, void (unsigned char)>::target_type() const
PUBLIC 7dbac 0 std::__ndk1::__function::__base<void (unsigned char)>::~__base()
PUBLIC 7dbb0 0 std::__ndk1::__function::__func<CaptureCell::makeBadgeInfo<Character>(std::__ndk1::basic_string<char, std::__ndk1::char_traits<char>, std::__ndk1::allocator<char> > const&, Character*)::$_0, std::__ndk1::allocator<CaptureCell::makeBadgeInfo<Character>(std::__ndk1::basic_string<char, std::__ndk1::char_traits<char>, std::__ndk1::allocator<char> > const&, Character*)::$_0>, void (unsigned char)>::~__func()
PUBLIC 7dbb4 0 std::__ndk1::__function::__func<CaptureCell::makeBadgeInfo<Character>(std::__ndk1::basic_string<char, std::__ndk1::char_traits<char>, std::__ndk1::allocator<char> > const&, Character*)::$_0, std::__ndk1::allocator<CaptureCell::makeBadgeInfo<Character>(std::__ndk1::basic_string<char, std::__ndk1::char_traits<char>, std::__ndk1::allocator<char> > const&, Character*)::$_0>, void (unsigned char)>::__clone() const
PUBLIC 7dbe8 0 std::__ndk1::__function::__func<CaptureCell::makeBadgeInfo<Character>(std::__ndk1::basic_string<char, std::__ndk1::char_traits<char>, std::__ndk1::allocator<char> > const&, Character*)::$_0, std::__ndk1::allocator<CaptureCell::makeBadgeInfo<Character>(std::__ndk1::basic_string<char, std::__ndk1::char_traits<char>, std::__ndk1::allocator<char> > const&, Character*)::$_0>, void (unsigned char)>::__clone(std::__ndk1::__function::__base<void (unsigned char)>*) const
PUBLIC 7dbfc 0 std::__ndk1::__function::__func<CaptureCell::makeBadgeInfo<Character>(std::__ndk1::basic_string<char, std::__ndk1::char_traits<char>, std::__ndk1::allocator<char> > const&, Character*)::$_0, std::__ndk1::allocator<CaptureCell::makeBadgeInfo<Character>(std::__ndk1::basic_string<char, std::__ndk1::char_traits<char>, std::__ndk1::allocator<char> > const&, Character*)::$_0>, void (unsigned char)>::destroy()
PUBLIC 7dc00 0 std::__ndk1::__function::__func<CaptureCell::makeBadgeInfo<Character>(std::__ndk1::basic_string<char, std::__ndk1::char_traits<char>, std::__ndk1::allocator<char> > const&, Character*)::$_0, std::__ndk1::allocator<CaptureCell::makeBadgeInfo<Character>(std::__ndk1::basic_string<char, std::__ndk1::char_traits<char>, std::__ndk1::allocator<char> > const&, Character*)::$_0>, void (unsigned char)>::destroy_deallocate()
PUBLIC 7dc04 0 std::__ndk1::__function::__func<CaptureCell::makeBadgeInfo<Character>(std::__ndk1::basic_string<char, std::__ndk1::char_traits<char>, std::__ndk1::allocator<char> > const&, Character*)::$_0, std::__ndk1::allocator<CaptureCell::makeBadgeInfo<Character>(std::__ndk1::basic_string<char, std::__ndk1::char_traits<char>, std::__ndk1::allocator<char> > const&, Character*)::$_0>, void (unsigned char)>::operator()(unsigned char&&)
PUBLIC 7dc18 0 std::__ndk1::__function::__func<CaptureCell::makeBadgeInfo<Character>(std::__ndk1::basic_string<char, std::__ndk1::char_traits<char>, std::__ndk1::allocator<char> > const&, Character*)::$_0, std::__ndk1::allocator<CaptureCell::makeBadgeInfo<Character>(std::__ndk1::basic_string<char, std::__ndk1::char_traits<char>, std::__ndk1::allocator<char> > const&, Character*)::$_0>, void (unsigned char)>::target(std::type_info const&) const
PUBLIC 7dc34 0 std::__ndk1::__function::__func<CaptureCell::makeBadgeInfo<Character>(std::__ndk1::basic_string<char, std::__ndk1::char_traits<char>, std::__ndk1::allocator<char> > const&, Character*)::$_0, std::__ndk1::allocator<CaptureCell::makeBadgeInfo<Character>(std::__ndk1::basic_string<char, std::__ndk1::char_traits<char>, std::__ndk1::allocator<char> > const&, Character*)::$_0>, void (unsigned char)>::target_type() const
PUBLIC 7dc40 0 TableViewCell::~TableViewCell()
PUBLIC 7dc9c 0 TableViewCell::~TableViewCell()
PUBLIC 7dd00 0 {virtual override thunk({offset(-320)}, TableViewCell::~TableViewCell())}
PUBLIC 7dd60 0 {virtual override thunk({offset(-320)}, TableViewCell::~TableViewCell())}
PUBLIC 7ddc8 0 proxy::HttpInfo::Request::Request(proxy::HttpInfo::Request const&)
PUBLIC 7dea4 0 std::__ndk1::unordered_map<std::__ndk1::basic_string<char, std::__ndk1::char_traits<char>, std::__ndk1::allocator<char> >, std::__ndk1::vector<std::__ndk1::basic_string<char, std::__ndk1::char_traits<char>, std::__ndk1::allocator<char> >, std::__ndk1::allocator<std::__ndk1::basic_string<char, std::__ndk1::char_traits<char>, std::__ndk1::allocator<char> > > >, std::__ndk1::hash<std::__ndk1::basic_string<char, std::__ndk1::char_traits<char>, std::__ndk1::allocator<char> > >, std::__ndk1::equal_to<std::__ndk1::basic_string<char, std::__ndk1::char_traits<char>, std::__ndk1::allocator<char> > >, std::__ndk1::allocator<std::__ndk1::pair<std::__ndk1::basic_string<char, std::__ndk1::char_traits<char>, std::__ndk1::allocator<char> > const, std::__ndk1::vector<std::__ndk1::basic_string<char, std::__ndk1::char_traits<char>, std::__ndk1::allocator<char> >, std::__ndk1::allocator<std::__ndk1::basic_string<char, std::__ndk1::char_traits<char>, std::__ndk1::allocator<char> > > > > > >::unordered_map(std::__ndk1::unordered_map<std::__ndk1::basic_string<char, std::__ndk1::char_traits<char>, std::__ndk1::allocator<char> >, std::__ndk1::vector<std::__ndk1::basic_string<char, std::__ndk1::char_traits<char>, std::__ndk1::allocator<char> >, std::__ndk1::allocator<std::__ndk1::basic_string<char, std::__ndk1::char_traits<char>, std::__ndk1::allocator<char> > > >, std::__ndk1::hash<std::__ndk1::basic_string<char, std::__ndk1::char_traits<char>, std::__ndk1::allocator<char> > >, std::__ndk1::equal_to<std::__ndk1::basic_string<char, std::__ndk1::char_traits<char>, std::__ndk1::allocator<char> > >, std::__ndk1::allocator<std::__ndk1::pair<std::__ndk1::basic_string<char, std::__ndk1::char_traits<char>, std::__ndk1::allocator<char> > const, std::__ndk1::vector<std::__ndk1::basic_string<char, std::__ndk1::char_traits<char>, std::__ndk1::allocator<char> >, std::__ndk1::allocator<std::__ndk1::basic_string<char, std::__ndk1::char_traits<char>, std::__ndk1::allocator<char> > > > > > > const&)
PUBLIC 7dfe0 0 std::__ndk1::__hash_table<std::__ndk1::__hash_value_type<std::__ndk1::basic_string<char, std::__ndk1::char_traits<char>, std::__ndk1::allocator<char> >, std::__ndk1::vector<std::__ndk1::basic_string<char, std::__ndk1::char_traits<char>, std::__ndk1::allocator<char> >, std::__ndk1::allocator<std::__ndk1::basic_string<char, std::__ndk1::char_traits<char>, std::__ndk1::allocator<char> > > > >, std::__ndk1::__unordered_map_hasher<std::__ndk1::basic_string<char, std::__ndk1::char_traits<char>, std::__ndk1::allocator<char> >, std::__ndk1::__hash_value_type<std::__ndk1::basic_string<char, std::__ndk1::char_traits<char>, std::__ndk1::allocator<char> >, std::__ndk1::vector<std::__ndk1::basic_string<char, std::__ndk1::char_traits<char>, std::__ndk1::allocator<char> >, std::__ndk1::allocator<std::__ndk1::basic_string<char, std::__ndk1::char_traits<char>, std::__ndk1::allocator<char> > > > >, std::__ndk1::hash<std::__ndk1::basic_string<char, std::__ndk1::char_traits<char>, std::__ndk1::allocator<char> > >, std::__ndk1::equal_to<std::__ndk1::basic_string<char, std::__ndk1::char_traits<char>, std::__ndk1::allocator<char> > >, true>, std::__ndk1::__unordered_map_equal<std::__ndk1::basic_string<char, std::__ndk1::char_traits<char>, std::__ndk1::allocator<char> >, std::__ndk1::__hash_value_type<std::__ndk1::basic_string<char, std::__ndk1::char_traits<char>, std::__ndk1::allocator<char> >, std::__ndk1::vector<std::__ndk1::basic_string<char, std::__ndk1::char_traits<char>, std::__ndk1::allocator<char> >, std::__ndk1::allocator<std::__ndk1::basic_string<char, std::__ndk1::char_traits<char>, std::__ndk1::allocator<char> > > > >, std::__ndk1::equal_to<std::__ndk1::basic_string<char, std::__ndk1::char_traits<char>, std::__ndk1::allocator<char> > >, std::__ndk1::hash<std::__ndk1::basic_string<char, std::__ndk1::char_traits<char>, std::__ndk1::allocator<char> > >, true>, std::__ndk1::allocator<std::__ndk1::__hash_value_type<std::__ndk1::basic_string<char, std::__ndk1::char_traits<char>, std::__ndk1::allocator<char> >, std::__ndk1::vector<std::__ndk1::basic_string<char, std::__ndk1::char_traits<char>, std::__ndk1::allocator<char> >, std::__ndk1::allocator<std::__ndk1::basic_string<char, std::__ndk1::char_traits<char>, std::__ndk1::allocator<char> > > > > > >::__do_rehash<true>(unsigned long)
PUBLIC 7e18c 0 std::__ndk1::__hash_table<std::__ndk1::__hash_value_type<std::__ndk1::basic_string<char, std::__ndk1::char_traits<char>, std::__ndk1::allocator<char> >, std::__ndk1::vector<std::__ndk1::basic_string<char, std::__ndk1::char_traits<char>, std::__ndk1::allocator<char> >, std::__ndk1::allocator<std::__ndk1::basic_string<char, std::__ndk1::char_traits<char>, std::__ndk1::allocator<char> > > > >, std::__ndk1::__unordered_map_hasher<std::__ndk1::basic_string<char, std::__ndk1::char_traits<char>, std::__ndk1::allocator<char> >, std::__ndk1::__hash_value_type<std::__ndk1::basic_string<char, std::__ndk1::char_traits<char>, std::__ndk1::allocator<char> >, std::__ndk1::vector<std::__ndk1::basic_string<char, std::__ndk1::char_traits<char>, std::__ndk1::allocator<char> >, std::__ndk1::allocator<std::__ndk1::basic_string<char, std::__ndk1::char_traits<char>, std::__ndk1::allocator<char> > > > >, std::__ndk1::hash<std::__ndk1::basic_string<char, std::__ndk1::char_traits<char>, std::__ndk1::allocator<char> > >, std::__ndk1::equal_to<std::__ndk1::basic_string<char, std::__ndk1::char_traits<char>, std::__ndk1::allocator<char> > >, true>, std::__ndk1::__unordered_map_equal<std::__ndk1::basic_string<char, std::__ndk1::char_traits<char>, std::__ndk1::allocator<char> >, std::__ndk1::__hash_value_type<std::__ndk1::basic_string<char, std::__ndk1::char_traits<char>, std::__ndk1::allocator<char> >, std::__ndk1::vector<std::__ndk1::basic_string<char, std::__ndk1::char_traits<char>, std::__ndk1::allocator<char> >, std::__ndk1::allocator<std::__ndk1::basic_string<char, std::__ndk1::char_traits<char>, std::__ndk1::allocator<char> > > > >, std::__ndk1::equal_to<std::__ndk1::basic_string<char, std::__ndk1::char_traits<char>, std::__ndk1::allocator<char> > >, std::__ndk1::hash<std::__ndk1::basic_string<char, std::__ndk1::char_traits<char>, std::__ndk1::allocator<char> > >, true>, std::__ndk1::allocator<std::__ndk1::__hash_value_type<std::__ndk1::basic_string<char, std::__ndk1::char_traits<char>, std::__ndk1::allocator<char> >, std::__ndk1::vector<std::__ndk1::basic_string<char, std::__ndk1::char_traits<char>, std::__ndk1::allocator<char> >, std::__ndk1::allocator<std::__ndk1::basic_string<char, std::__ndk1::char_traits<char>, std::__ndk1::allocator<char> > > > > > >::__emplace_unique_key_args<std::__ndk1::basic_string<char, std::__ndk1::char_traits<char>, std::__ndk1::allocator<char> >, std::__ndk1::pair<std::__ndk1::basic_string<char, std::__ndk1::char_traits<char>, std::__ndk1::allocator<char> > const, std::__ndk1::vector<std::__ndk1::basic_string<char, std::__ndk1::char_traits<char>, std::__ndk1::allocator<char> >, std::__ndk1::allocator<std::__ndk1::basic_string<char, std::__ndk1::char_traits<char>, std::__ndk1::allocator<char> > > > > const&>(std::__ndk1::basic_string<char, std::__ndk1::char_traits<char>, std::__ndk1::allocator<char> > const&, std::__ndk1::pair<std::__ndk1::basic_string<char, std::__ndk1::char_traits<char>, std::__ndk1::allocator<char> > const, std::__ndk1::vector<std::__ndk1::basic_string<char, std::__ndk1::char_traits<char>, std::__ndk1::allocator<char> >, std::__ndk1::allocator<std::__ndk1::basic_string<char, std::__ndk1::char_traits<char>, std::__ndk1::allocator<char> > > > > const&)
PUBLIC 7e604 0 std::__ndk1::__hash_table<std::__ndk1::__hash_value_type<std::__ndk1::basic_string<char, std::__ndk1::char_traits<char>, std::__ndk1::allocator<char> >, std::__ndk1::vector<std::__ndk1::basic_string<char, std::__ndk1::char_traits<char>, std::__ndk1::allocator<char> >, std::__ndk1::allocator<std::__ndk1::basic_string<char, std::__ndk1::char_traits<char>, std::__ndk1::allocator<char> > > > >, std::__ndk1::__unordered_map_hasher<std::__ndk1::basic_string<char, std::__ndk1::char_traits<char>, std::__ndk1::allocator<char> >, std::__ndk1::__hash_value_type<std::__ndk1::basic_string<char, std::__ndk1::char_traits<char>, std::__ndk1::allocator<char> >, std::__ndk1::vector<std::__ndk1::basic_string<char, std::__ndk1::char_traits<char>, std::__ndk1::allocator<char> >, std::__ndk1::allocator<std::__ndk1::basic_string<char, std::__ndk1::char_traits<char>, std::__ndk1::allocator<char> > > > >, std::__ndk1::hash<std::__ndk1::basic_string<char, std::__ndk1::char_traits<char>, std::__ndk1::allocator<char> > >, std::__ndk1::equal_to<std::__ndk1::basic_string<char, std::__ndk1::char_traits<char>, std::__ndk1::allocator<char> > >, true>, std::__ndk1::__unordered_map_equal<std::__ndk1::basic_string<char, std::__ndk1::char_traits<char>, std::__ndk1::allocator<char> >, std::__ndk1::__hash_value_type<std::__ndk1::basic_string<char, std::__ndk1::char_traits<char>, std::__ndk1::allocator<char> >, std::__ndk1::vector<std::__ndk1::basic_string<char, std::__ndk1::char_traits<char>, std::__ndk1::allocator<char> >, std::__ndk1::allocator<std::__ndk1::basic_string<char, std::__ndk1::char_traits<char>, std::__ndk1::allocator<char> > > > >, std::__ndk1::equal_to<std::__ndk1::basic_string<char, std::__ndk1::char_traits<char>, std::__ndk1::allocator<char> > >, std::__ndk1::hash<std::__ndk1::basic_string<char, std::__ndk1::char_traits<char>, std::__ndk1::allocator<char> > >, true>, std::__ndk1::allocator<std::__ndk1::__hash_value_type<std::__ndk1::basic_string<char, std::__ndk1::char_traits<char>, std::__ndk1::allocator<char> >, std::__ndk1::vector<std::__ndk1::basic_string<char, std::__ndk1::char_traits<char>, std::__ndk1::allocator<char> >, std::__ndk1::allocator<std::__ndk1::basic_string<char, std::__ndk1::char_traits<char>, std::__ndk1::allocator<char> > > > > > >::__construct_node_hash<std::__ndk1::pair<std::__ndk1::basic_string<char, std::__ndk1::char_traits<char>, std::__ndk1::allocator<char> > const, std::__ndk1::vector<std::__ndk1::basic_string<char, std::__ndk1::char_traits<char>, std::__ndk1::allocator<char> >, std::__ndk1::allocator<std::__ndk1::basic_string<char, std::__ndk1::char_traits<char>, std::__ndk1::allocator<char> > > > > const&, >(unsigned long, std::__ndk1::pair<std::__ndk1::basic_string<char, std::__ndk1::char_traits<char>, std::__ndk1::allocator<char> > const, std::__ndk1::vector<std::__ndk1::basic_string<char, std::__ndk1::char_traits<char>, std::__ndk1::allocator<char> >, std::__ndk1::allocator<std::__ndk1::basic_string<char, std::__ndk1::char_traits<char>, std::__ndk1::allocator<char> > > > > const&, &&)
PUBLIC 7e6e4 0 std::__ndk1::unique_ptr<std::__ndk1::__hash_node<std::__ndk1::__hash_value_type<std::__ndk1::basic_string<char, std::__ndk1::char_traits<char>, std::__ndk1::allocator<char> >, std::__ndk1::vector<std::__ndk1::basic_string<char, std::__ndk1::char_traits<char>, std::__ndk1::allocator<char> >, std::__ndk1::allocator<std::__ndk1::basic_string<char, std::__ndk1::char_traits<char>, std::__ndk1::allocator<char> > > > >, void*>, std::__ndk1::__hash_node_destructor<std::__ndk1::allocator<std::__ndk1::__hash_node<std::__ndk1::__hash_value_type<std::__ndk1::basic_string<char, std::__ndk1::char_traits<char>, std::__ndk1::allocator<char> >, std::__ndk1::vector<std::__ndk1::basic_string<char, std::__ndk1::char_traits<char>, std::__ndk1::allocator<char> >, std::__ndk1::allocator<std::__ndk1::basic_string<char, std::__ndk1::char_traits<char>, std::__ndk1::allocator<char> > > > >, void*> > > >::~unique_ptr[abi:ne180000]()
PUBLIC 7e788 0 std::__ndk1::__murmur2_or_cityhash<unsigned long, (unsigned long)64>::operator()[abi:ne180000](void const*, unsigned long) const
PUBLIC 7ebd4 0 std::__ndk1::basic_string<char, std::__ndk1::char_traits<char>, std::__ndk1::allocator<char> >::__throw_out_of_range[abi:ne180000]() const
PUBLIC 7ebe8 0 std::__ndk1::__throw_out_of_range[abi:ne180000](char const*)
PUBLIC 7ec38 0 std::out_of_range::out_of_range[abi:ne180000](char const*)
PUBLIC 7ec68 0 std::__ndk1::vector<std::__ndk1::tuple<std::__ndk1::basic_string<char, std::__ndk1::char_traits<char>, std::__ndk1::allocator<char> >, cocos2d::CCNode*, std::__ndk1::function<void (unsigned char)> >, std::__ndk1::allocator<std::__ndk1::tuple<std::__ndk1::basic_string<char, std::__ndk1::char_traits<char>, std::__ndk1::allocator<char> >, cocos2d::CCNode*, std::__ndk1::function<void (unsigned char)> > > >::__push_back_slow_path<std::__ndk1::tuple<std::__ndk1::basic_string<char, std::__ndk1::char_traits<char>, std::__ndk1::allocator<char> >, cocos2d::CCNode*, std::__ndk1::function<void (unsigned char)> > >(std::__ndk1::tuple<std::__ndk1::basic_string<char, std::__ndk1::char_traits<char>, std::__ndk1::allocator<char> >, cocos2d::CCNode*, std::__ndk1::function<void (unsigned char)> >&&)
PUBLIC 7eeb4 0 std::__ndk1::vector<std::__ndk1::tuple<std::__ndk1::basic_string<char, std::__ndk1::char_traits<char>, std::__ndk1::allocator<char> >, cocos2d::CCNode*, std::__ndk1::function<void (unsigned char)> >, std::__ndk1::allocator<std::__ndk1::tuple<std::__ndk1::basic_string<char, std::__ndk1::char_traits<char>, std::__ndk1::allocator<char> >, cocos2d::CCNode*, std::__ndk1::function<void (unsigned char)> > > >::__throw_length_error[abi:ne180000]() const
PUBLIC 7eec8 0 Badge::Badge(std::__ndk1::basic_string<char, std::__ndk1::char_traits<char>, std::__ndk1::allocator<char> > const&, cocos2d::CCNode*, std::__ndk1::function<void (unsigned char)> const&)
PUBLIC 7efb8 0 Badge::init()
PUBLIC 7f08c 0 Badge::onHover()
PUBLIC 7f2d0 0 Badge::unHover()
PUBLIC 7f360 0 Badge::~Badge()
PUBLIC 7f3cc 0 Badge::~Badge()
PUBLIC 7f440 0 HoverNode<cocos2d::CCNode>::update(float)
PUBLIC 7f444 0 Tooltip::create(std::__ndk1::basic_string<char, std::__ndk1::char_traits<char>, std::__ndk1::allocator<char> > const&, float, unsigned char)
PUBLIC 7f610 0 Tooltip::setup(cocos2d::CCLabelBMFont*, unsigned char)
PUBLIC 7f7ac 0 geode::Popup<cocos2d::CCLabelBMFont*, unsigned char const>::~Popup()
PUBLIC 7f818 0 Tooltip::~Tooltip()
PUBLIC 7f88c 0 geode::Popup<cocos2d::CCLabelBMFont*, unsigned char const>::registerWithTouchDispatcher()
PUBLIC 7f8b8 0 geode::Popup<cocos2d::CCLabelBMFont*, unsigned char const>::keyDown(cocos2d::enumKeyCodes)
PUBLIC 7f8e0 0 geode::Popup<cocos2d::CCLabelBMFont*, unsigned char const>::onClose(cocos2d::CCObject*)
PUBLIC 7fa28 0 {virtual override thunk({offset(-320)}, Tooltip::~Tooltip())}
PUBLIC 7fa94 0 {virtual override thunk({offset(-320)}, Tooltip::~Tooltip())}
PUBLIC 7fb08 0 {virtual override thunk({offset(-344)}, geode::Popup<cocos2d::CCLabelBMFont*, unsigned char const>::keyDown(cocos2d::enumKeyCodes))}
PUBLIC 7fb34 0 geode::Popup<cocos2d::CCLabelBMFont*, unsigned char const>::~Popup()
PUBLIC 7fb38 0 {virtual override thunk({offset(-320)}, geode::Popup<cocos2d::CCLabelBMFont*, unsigned char const>::~Popup())}
PUBLIC 7fba4 0 {virtual override thunk({offset(-320)}, geode::Popup<cocos2d::CCLabelBMFont*, unsigned char const>::~Popup())}
PUBLIC 7fba8 0 geode::Popup<cocos2d::CCLabelBMFont*, unsigned char const>::initBase(float, float, cocos2d::CCLabelBMFont*, unsigned char, char const*, cocos2d::CCRect, bool)
PUBLIC 7feac 0 geode::Popup<cocos2d::CCLabelBMFont*, unsigned char const>::CloseEvent::~CloseEvent()
PUBLIC 7ff0c 0 geode::Popup<cocos2d::CCLabelBMFont*, unsigned char const>::CloseEvent::~CloseEvent()
PUBLIC 7ff7c 0 std::__ndk1::__shared_ptr_emplace<geode::Popup<cocos2d::CCLabelBMFont*, unsigned char const>::CloseEvent::Impl, std::__ndk1::allocator<geode::Popup<cocos2d::CCLabelBMFont*, unsigned char const>::CloseEvent::Impl> >::~__shared_ptr_emplace()
PUBLIC 7ff8c 0 std::__ndk1::__shared_ptr_emplace<geode::Popup<cocos2d::CCLabelBMFont*, unsigned char const>::CloseEvent::Impl, std::__ndk1::allocator<geode::Popup<cocos2d::CCLabelBMFont*, unsigned char const>::CloseEvent::Impl> >::~__shared_ptr_emplace()
PUBLIC 7ffbc 0 std::__ndk1::__shared_ptr_emplace<geode::Popup<cocos2d::CCLabelBMFont*, unsigned char const>::CloseEvent::Impl, std::__ndk1::allocator<geode::Popup<cocos2d::CCLabelBMFont*, unsigned char const>::CloseEvent::Impl> >::__on_zero_shared()
PUBLIC 7ffc0 0 std::__ndk1::__shared_ptr_emplace<geode::Popup<cocos2d::CCLabelBMFont*, unsigned char const>::CloseEvent::Impl, std::__ndk1::allocator<geode::Popup<cocos2d::CCLabelBMFont*, unsigned char const>::CloseEvent::Impl> >::__on_zero_shared_weak()
PUBLIC 7ffc4 0 CodeBlock::create(cocos2d::CCSize const&)
PUBLIC 800d8 0 CodeBlock::init(cocos2d::CCSize const&)
PUBLIC 804dc 0 CodeBlock::reloadSideBar()
PUBLIC 806b8 0 Theme::Theme::~Theme()
PUBLIC 806fc 0 CodeBlock::setCode(proxy::HttpInfo::Content const&)
PUBLIC 81614 0 StringStreamer::of(std::__ndk1::basic_string<char, std::__ndk1::char_traits<char>, std::__ndk1::allocator<char> > const&, char)
PUBLIC 817c4 0 CodeBlock::showMessage(std::__ndk1::basic_string<char, std::__ndk1::char_traits<char>, std::__ndk1::allocator<char> > const&, cocos2d::_ccColor3B const&)
PUBLIC 81900 0 std::__ndk1::basic_stringstream<char, std::__ndk1::char_traits<char>, std::__ndk1::allocator<char> >::basic_stringstream[abi:ne180000](std::__ndk1::basic_string<char, std::__ndk1::char_traits<char>, std::__ndk1::allocator<char> > const&, unsigned int)
PUBLIC 81a94 0 std::__ndk1::getline[abi:ne180000]<char, std::__ndk1::char_traits<char>, std::__ndk1::allocator<char> >(std::__ndk1::basic_istream<char, std::__ndk1::char_traits<char> >, std::__ndk1::basic_string<std::__ndk1::basic_istream, char, std::__ndk1::allocator<char> >&, std::__ndk1::basic_istream)
PUBLIC 81c48 0 std::__ndk1::basic_string<char, std::__ndk1::char_traits<char>, std::__ndk1::allocator<char> >::__assign_no_alias<true>(char const*, unsigned long)
PUBLIC 81cf4 0 std::__ndk1::basic_string<char, std::__ndk1::char_traits<char>, std::__ndk1::allocator<char> >::__assign_no_alias<false>(char const*, unsigned long)
PUBLIC 81e04 0 std::__ndk1::vector<CodeLineCell*, std::__ndk1::allocator<CodeLineCell*> >::__throw_length_error[abi:ne180000]() const
PUBLIC 81e18 0 std::__ndk1::__function::__base<CodeLineCell* (std::__ndk1::basic_string<char, std::__ndk1::char_traits<char>, std::__ndk1::allocator<char> > const&, unsigned long)>::~__base()
PUBLIC 81e1c 0 std::__ndk1::__function::__func<CodeBlock::setCode(proxy::HttpInfo::Content const&)::$_0, std::__ndk1::allocator<CodeBlock::setCode(proxy::HttpInfo::Content const&)::$_0>, CodeLineCell* (std::__ndk1::basic_string<char, std::__ndk1::char_traits<char>, std::__ndk1::allocator<char> > const&, unsigned long)>::~__func()
PUBLIC 81e20 0 std::__ndk1::__function::__func<CodeBlock::setCode(proxy::HttpInfo::Content const&)::$_0, std::__ndk1::allocator<CodeBlock::setCode(proxy::HttpInfo::Content const&)::$_0>, CodeLineCell* (std::__ndk1::basic_string<char, std::__ndk1::char_traits<char>, std::__ndk1::allocator<char> > const&, unsigned long)>::__clone() const
PUBLIC 81e70 0 std::__ndk1::__function::__func<CodeBlock::setCode(proxy::HttpInfo::Content const&)::$_0, std::__ndk1::allocator<CodeBlock::setCode(proxy::HttpInfo::Content const&)::$_0>, CodeLineCell* (std::__ndk1::basic_string<char, std::__ndk1::char_traits<char>, std::__ndk1::allocator<char> > const&, unsigned long)>::__clone(std::__ndk1::__function::__base<CodeLineCell* (std::__ndk1::basic_string<char, std::__ndk1::char_traits<char>, std::__ndk1::allocator<char> > const&, unsigned long)>*) const
PUBLIC 81ea0 0 std::__ndk1::__function::__func<CodeBlock::setCode(proxy::HttpInfo::Content const&)::$_0, std::__ndk1::allocator<CodeBlock::setCode(proxy::HttpInfo::Content const&)::$_0>, CodeLineCell* (std::__ndk1::basic_string<char, std::__ndk1::char_traits<char>, std::__ndk1::allocator<char> > const&, unsigned long)>::destroy()
PUBLIC 81ea4 0 std::__ndk1::__function::__func<CodeBlock::setCode(proxy::HttpInfo::Content const&)::$_0, std::__ndk1::allocator<CodeBlock::setCode(proxy::HttpInfo::Content const&)::$_0>, CodeLineCell* (std::__ndk1::basic_string<char, std::__ndk1::char_traits<char>, std::__ndk1::allocator<char> > const&, unsigned long)>::destroy_deallocate()
PUBLIC 81ea8 0 std::__ndk1::__function::__func<CodeBlock::setCode(proxy::HttpInfo::Content const&)::$_0, std::__ndk1::allocator<CodeBlock::setCode(proxy::HttpInfo::Content const&)::$_0>, CodeLineCell* (std::__ndk1::basic_string<char, std::__ndk1::char_traits<char>, std::__ndk1::allocator<char> > const&, unsigned long)>::operator()(std::__ndk1::basic_string<char, std::__ndk1::char_traits<char>, std::__ndk1::allocator<char> > const&, unsigned long&&)
PUBLIC 82084 0 std::__ndk1::__function::__func<CodeBlock::setCode(proxy::HttpInfo::Content const&)::$_0, std::__ndk1::allocator<CodeBlock::setCode(proxy::HttpInfo::Content const&)::$_0>, CodeLineCell* (std::__ndk1::basic_string<char, std::__ndk1::char_traits<char>, std::__ndk1::allocator<char> > const&, unsigned long)>::target(std::type_info const&) const
PUBLIC 820a0 0 std::__ndk1::__function::__func<CodeBlock::setCode(proxy::HttpInfo::Content const&)::$_0, std::__ndk1::allocator<CodeBlock::setCode(proxy::HttpInfo::Content const&)::$_0>, CodeLineCell* (std::__ndk1::basic_string<char, std::__ndk1::char_traits<char>, std::__ndk1::allocator<char> > const&, unsigned long)>::target_type() const
PUBLIC 820ac 0 std::__ndk1::vector<CullingCell*, std::__ndk1::allocator<CullingCell*> >::__throw_length_error[abi:ne180000]() const
PUBLIC 820c0 0 std::__ndk1::__function::__base<CullingCell* (CodeLineCell* const&)>::~__base()
PUBLIC 820c4 0 std::__ndk1::__function::__func<Stream<CodeLineCell*>::cast<CullingCell*>() const::{lambda(CodeLineCell* const&)#1}, std::__ndk1::allocator<Stream<CodeLineCell*>::cast<CullingCell*>() const::{lambda(CodeLineCell* const&)#1}>, CullingCell* (CodeLineCell* const&)>::~__func()
PUBLIC 820c8 0 std::__ndk1::__function::__func<Stream<CodeLineCell*>::cast<CullingCell*>() const::{lambda(CodeLineCell* const&)#1}, std::__ndk1::allocator<Stream<CodeLineCell*>::cast<CullingCell*>() const::{lambda(CodeLineCell* const&)#1}>, CullingCell* (CodeLineCell* const&)>::__clone() const
PUBLIC 820ec 0 std::__ndk1::__function::__func<Stream<CodeLineCell*>::cast<CullingCell*>() const::{lambda(CodeLineCell* const&)#1}, std::__ndk1::allocator<Stream<CodeLineCell*>::cast<CullingCell*>() const::{lambda(CodeLineCell* const&)#1}>, CullingCell* (CodeLineCell* const&)>::__clone(std::__ndk1::__function::__base<CullingCell* (CodeLineCell* const&)>*) const
PUBLIC 820fc 0 std::__ndk1::__function::__func<Stream<CodeLineCell*>::cast<CullingCell*>() const::{lambda(CodeLineCell* const&)#1}, std::__ndk1::allocator<Stream<CodeLineCell*>::cast<CullingCell*>() const::{lambda(CodeLineCell* const&)#1}>, CullingCell* (CodeLineCell* const&)>::destroy()
PUBLIC 82100 0 std::__ndk1::__function::__func<Stream<CodeLineCell*>::cast<CullingCell*>() const::{lambda(CodeLineCell* const&)#1}, std::__ndk1::allocator<Stream<CodeLineCell*>::cast<CullingCell*>() const::{lambda(CodeLineCell* const&)#1}>, CullingCell* (CodeLineCell* const&)>::destroy_deallocate()
PUBLIC 82104 0 std::__ndk1::__function::__func<Stream<CodeLineCell*>::cast<CullingCell*>() const::{lambda(CodeLineCell* const&)#1}, std::__ndk1::allocator<Stream<CodeLineCell*>::cast<CullingCell*>() const::{lambda(CodeLineCell* const&)#1}>, CullingCell* (CodeLineCell* const&)>::operator()(CodeLineCell* const&)
PUBLIC 8210c 0 std::__ndk1::__function::__func<Stream<CodeLineCell*>::cast<CullingCell*>() const::{lambda(CodeLineCell* const&)#1}, std::__ndk1::allocator<Stream<CodeLineCell*>::cast<CullingCell*>() const::{lambda(CodeLineCell* const&)#1}>, CullingCell* (CodeLineCell* const&)>::target(std::type_info const&) const
PUBLIC 82128 0 std::__ndk1::__function::__func<Stream<CodeLineCell*>::cast<CullingCell*>() const::{lambda(CodeLineCell* const&)#1}, std::__ndk1::allocator<Stream<CodeLineCell*>::cast<CullingCell*>() const::{lambda(CodeLineCell* const&)#1}>, CullingCell* (CodeLineCell* const&)>::target_type() const
PUBLIC 82134 0 SideBarCell::SideBarView::~SideBarView()
PUBLIC 821d8 0 std::__ndk1::vector<SideBarCell::SideBarView, std::__ndk1::allocator<SideBarCell::SideBarView> >::~vector[abi:ne180000]()
PUBLIC 822bc 0 _ZNSt6__ndk14pairIN11SideBarCell15SideBarCategoryENS_6vectorINS1_13SideBarActionENS_9allocatorIS4_EEEEEC2B8ne180000ILb1ETnNS_9enable_ifIXclsr13_CheckArgsDepIXT_EEE17__enable_implicitIRKS2_RKS7_EEEiE4typeELi0EEESC_SE_
PUBLIC 823a4 0 std::__ndk1::pair<SideBarCell::SideBarCategory, std::__ndk1::vector<SideBarCell::SideBarAction, std::__ndk1::allocator<SideBarCell::SideBarAction> > >::~pair()
PUBLIC 8242c 0 std::__ndk1::vector<SideBarCell::SideBarAction, std::__ndk1::allocator<SideBarCell::SideBarAction> >::~vector[abi:ne180000]()
PUBLIC 82494 0 SideBarCell::SideBarAction::~SideBarAction()
PUBLIC 825d0 0 std::__ndk1::tuple<std::__ndk1::function<bool (CodeBlock*, std::__ndk1::function<bool ()> const&)>, std::__ndk1::function<bool (CodeBlock*, std::__ndk1::function<bool ()> const&)> >::~tuple()
PUBLIC 82668 0 std::__ndk1::tuple<std::__ndk1::basic_string<char, std::__ndk1::char_traits<char>, std::__ndk1::allocator<char> >, std::__ndk1::basic_string<char, std::__ndk1::char_traits<char>, std::__ndk1::allocator<char> > >::~tuple()
PUBLIC 826ac 0 SideBarCell::SideBarActionButton::~SideBarActionButton()
PUBLIC 82720 0 SideBarCell::SideBarCategory::~SideBarCategory()
PUBLIC 82764 0 LookupTable<SideBarCell::SideBarCategory, std::__ndk1::vector<SideBarCell::SideBarAction, std::__ndk1::allocator<SideBarCell::SideBarAction> > >::~LookupTable()
PUBLIC 82794 0 CodeBlock::setup()
PUBLIC 83050 0 CodeBlock::onSend()
PUBLIC 83604 0 CodeBlock::onOpenSaveFiles()
PUBLIC 8372c 0 geode::Mod::getSavedValue<std::__ndk1::__fs::filesystem::path>(std::__ndk1::basic_string_view<char, std::__ndk1::char_traits<char> >, std::__ndk1::__fs::filesystem::path const&)
PUBLIC 8397c 0 CodeBlock::onOpenThemeFiles()
PUBLIC 83af4 0 CodeBlock::onSave()
PUBLIC 85038 0 CodeBlock::onSave()::$_0::~$_0()
PUBLIC 8507c 0 geode::Task<geode::Result<std::__ndk1::__fs::filesystem::path, std::__ndk1::basic_string<char, std::__ndk1::char_traits<char>, std::__ndk1::allocator<char> > >, std::__ndk1::monostate>::~Task()
PUBLIC 850cc 0 geode::utils::file::FilePickOptions::~FilePickOptions()
PUBLIC 85154 0 proxy::HttpInfo::Response::~Response()
PUBLIC 85188 0 CodeBlock::onPause()
PUBLIC 852fc 0 std::__ndk1::pair<std::__ndk1::basic_string<char, std::__ndk1::char_traits<char>, std::__ndk1::allocator<char> >, std::__ndk1::basic_string<char, std::__ndk1::char_traits<char>, std::__ndk1::allocator<char> > >::~pair()
PUBLIC 85340 0 LookupTable<std::__ndk1::basic_string<char, std::__ndk1::char_traits<char>, std::__ndk1::allocator<char> >, std::__ndk1::basic_string<char, std::__ndk1::char_traits<char>, std::__ndk1::allocator<char> > >::~LookupTable()
PUBLIC 853e4 0 CodeBlock::FLAlert_Clicked(FLAlertLayer*, bool)
PUBLIC 854c4 0 {virtual override thunk({offset(-560)}, CodeBlock::FLAlert_Clicked(FLAlertLayer*, bool))}
PUBLIC 854cc 0 CodeBlock::~CodeBlock()
PUBLIC 85544 0 CodeBlock::~CodeBlock()
PUBLIC 855c0 0 {virtual override thunk({offset(-320)}, CodeBlock::~CodeBlock())}
PUBLIC 85634 0 {virtual override thunk({offset(-320)}, CodeBlock::~CodeBlock())}
PUBLIC 856b0 0 std::__ndk1::__exception_guard_exceptions<std::__ndk1::vector<SideBarCell::SideBarView, std::__ndk1::allocator<SideBarCell::SideBarView> >::__destroy_vector>::~__exception_guard_exceptions[abi:ne180000]()
PUBLIC 857a4 0 std::__ndk1::__exception_guard_exceptions<std::__ndk1::vector<SideBarCell::SideBarAction, std::__ndk1::allocator<SideBarCell::SideBarAction> >::__destroy_vector>::~__exception_guard_exceptions[abi:ne180000]()
PUBLIC 85820 0 std::__ndk1::vector<SideBarCell::SideBarAction, std::__ndk1::allocator<SideBarCell::SideBarAction> >::__throw_length_error[abi:ne180000]() const
PUBLIC 85834 0 SideBarCell::SideBarAction::SideBarAction(SideBarCell::SideBarAction const&)
PUBLIC 85964 0 SideBarCell::SideBarActionButton::SideBarActionButton(SideBarCell::SideBarActionButton const&)
PUBLIC 85a7c 0 std::__ndk1::vector<SideBarCell::SideBarAction, std::__ndk1::allocator<SideBarCell::SideBarAction> >::__init_with_size[abi:ne180000]<SideBarCell::SideBarAction*, std::__ndk1::vector<SideBarCell::SideBarAction, std::__ndk1::allocator<SideBarCell::SideBarAction> >::__init_with_size[abi:ne180000]>(SideBarCell::SideBarAction*, std::__ndk1::vector<SideBarCell::SideBarAction, std::__ndk1::allocator<SideBarCell::SideBarAction> >::__init_with_size[abi:ne180000], unsigned long)
PUBLIC 85bb0 0 _ZNSt6__ndk112__tuple_implINS_15__tuple_indicesIJLm0ELm1EEEEJNS_12basic_stringIcNS_11char_traitsIcEENS_9allocatorIcEEEES8_EEC2B8ne180000IJLm0ELm1EEJS8_S8_ETpTnmJEJEJPKcSC_EEENS1_IJXspT_EEEENS_13__tuple_typesIJDpT0_EEENS1_IJXspT1_EEEENSE_IJDpT2_EEEDpOT3_
PUBLIC 85cec 0 std::__ndk1::__function::__func<CodeBlock::$_12, std::__ndk1::allocator<CodeBlock::$_12>, bool (CodeBlock*, std::__ndk1::function<bool ()> const&)>::~__func()
PUBLIC 85cf0 0 std::__ndk1::__function::__func<CodeBlock::$_12, std::__ndk1::allocator<CodeBlock::$_12>, bool (CodeBlock*, std::__ndk1::function<bool ()> const&)>::__clone() const
PUBLIC 85d14 0 std::__ndk1::__function::__func<CodeBlock::$_12, std::__ndk1::allocator<CodeBlock::$_12>, bool (CodeBlock*, std::__ndk1::function<bool ()> const&)>::__clone(std::__ndk1::__function::__base<bool (CodeBlock*, std::__ndk1::function<bool ()> const&)>*) const
PUBLIC 85d24 0 std::__ndk1::__function::__func<CodeBlock::$_12, std::__ndk1::allocator<CodeBlock::$_12>, bool (CodeBlock*, std::__ndk1::function<bool ()> const&)>::destroy()
PUBLIC 85d28 0 std::__ndk1::__function::__func<CodeBlock::$_12, std::__ndk1::allocator<CodeBlock::$_12>, bool (CodeBlock*, std::__ndk1::function<bool ()> const&)>::destroy_deallocate()
PUBLIC 85d2c 0 std::__ndk1::__function::__func<CodeBlock::$_12, std::__ndk1::allocator<CodeBlock::$_12>, bool (CodeBlock*, std::__ndk1::function<bool ()> const&)>::operator()(CodeBlock*&&, std::__ndk1::function<bool ()> const&)
PUBLIC 85e14 0 std::__ndk1::__function::__func<CodeBlock::$_12, std::__ndk1::allocator<CodeBlock::$_12>, bool (CodeBlock*, std::__ndk1::function<bool ()> const&)>::target(std::type_info const&) const
PUBLIC 85e30 0 std::__ndk1::__function::__func<CodeBlock::$_12, std::__ndk1::allocator<CodeBlock::$_12>, bool (CodeBlock*, std::__ndk1::function<bool ()> const&)>::target_type() const
PUBLIC 85e3c 0 std::__ndk1::__function::__base<bool (CodeBlock*, std::__ndk1::function<bool ()> const&)>::~__base()
PUBLIC 85e40 0 std::__ndk1::__function::__func<CodeBlock::$_13, std::__ndk1::allocator<CodeBlock::$_13>, bool (CodeBlock*, std::__ndk1::function<bool ()> const&)>::~__func()
PUBLIC 85e44 0 std::__ndk1::__function::__func<CodeBlock::$_13, std::__ndk1::allocator<CodeBlock::$_13>, bool (CodeBlock*, std::__ndk1::function<bool ()> const&)>::__clone() const
PUBLIC 85e68 0 std::__ndk1::__function::__func<CodeBlock::$_13, std::__ndk1::allocator<CodeBlock::$_13>, bool (CodeBlock*, std::__ndk1::function<bool ()> const&)>::__clone(std::__ndk1::__function::__base<bool (CodeBlock*, std::__ndk1::function<bool ()> const&)>*) const
PUBLIC 85e78 0 std::__ndk1::__function::__func<CodeBlock::$_13, std::__ndk1::allocator<CodeBlock::$_13>, bool (CodeBlock*, std::__ndk1::function<bool ()> const&)>::destroy()
PUBLIC 85e7c 0 std::__ndk1::__function::__func<CodeBlock::$_13, std::__ndk1::allocator<CodeBlock::$_13>, bool (CodeBlock*, std::__ndk1::function<bool ()> const&)>::destroy_deallocate()
PUBLIC 85e80 0 std::__ndk1::__function::__func<CodeBlock::$_13, std::__ndk1::allocator<CodeBlock::$_13>, bool (CodeBlock*, std::__ndk1::function<bool ()> const&)>::operator()(CodeBlock*&&, std::__ndk1::function<bool ()> const&)
PUBLIC 85f70 0 std::__ndk1::__function::__func<CodeBlock::$_13, std::__ndk1::allocator<CodeBlock::$_13>, bool (CodeBlock*, std::__ndk1::function<bool ()> const&)>::target(std::type_info const&) const
PUBLIC 85f8c 0 std::__ndk1::__function::__func<CodeBlock::$_13, std::__ndk1::allocator<CodeBlock::$_13>, bool (CodeBlock*, std::__ndk1::function<bool ()> const&)>::target_type() const
PUBLIC 85f98 0 std::__ndk1::vector<std::__ndk1::pair<SideBarCell::SideBarCategory, std::__ndk1::vector<SideBarCell::SideBarAction, std::__ndk1::allocator<SideBarCell::SideBarAction> > >, std::__ndk1::allocator<std::__ndk1::pair<SideBarCell::SideBarCategory, std::__ndk1::vector<SideBarCell::SideBarAction, std::__ndk1::allocator<SideBarCell::SideBarAction> > > > >::__base_destruct_at_end[abi:ne180000](std::__ndk1::pair<SideBarCell::SideBarCategory, std::__ndk1::vector<SideBarCell::SideBarAction, std::__ndk1::allocator<SideBarCell::SideBarAction> > >*)
PUBLIC 8617c 0 std::__ndk1::__fs::filesystem::path::operator/=[abi:ne180000](std::__ndk1::__fs::filesystem::path const&)
PUBLIC 86264 0 fmt::v11::format_error::runtime_error(char const*)
PUBLIC 86290 0 fmt::v11::format_error::~format_error()
PUBLIC 862b4 0 std::__ndk1::vector<geode::utils::file::FilePickOptions::Filter, std::__ndk1::allocator<geode::utils::file::FilePickOptions::Filter> >::__destroy_vector::operator()[abi:ne180000]()
PUBLIC 86398 0 std::__ndk1::__function::__func<CodeBlock::$_0, std::__ndk1::allocator<CodeBlock::$_0>, Theme::Color(Theme::Menu::Icons const&)>::~__func()
PUBLIC 8639c 0 std::__ndk1::__function::__func<CodeBlock::$_0, std::__ndk1::allocator<CodeBlock::$_0>, Theme::Color(Theme::Menu::Icons const&)>::__clone() const
PUBLIC 863c0 0 std::__ndk1::__function::__func<CodeBlock::$_0, std::__ndk1::allocator<CodeBlock::$_0>, Theme::Color(Theme::Menu::Icons const&)>::__clone(std::__ndk1::__function::__base<Theme::Color(Theme::Menu::Icons const&)>*) const
PUBLIC 863d0 0 std::__ndk1::__function::__func<CodeBlock::$_0, std::__ndk1::allocator<CodeBlock::$_0>, Theme::Color(Theme::Menu::Icons const&)>::destroy()
PUBLIC 863d4 0 std::__ndk1::__function::__func<CodeBlock::$_0, std::__ndk1::allocator<CodeBlock::$_0>, Theme::Color(Theme::Menu::Icons const&)>::destroy_deallocate()
PUBLIC 863d8 0 std::__ndk1::__function::__func<CodeBlock::$_0, std::__ndk1::allocator<CodeBlock::$_0>, Theme::Color(Theme::Menu::Icons const&)>::operator()(Theme::Menu::Icons const&)
PUBLIC 863e0 0 std::__ndk1::__function::__func<CodeBlock::$_0, std::__ndk1::allocator<CodeBlock::$_0>, Theme::Color(Theme::Menu::Icons const&)>::target(std::type_info const&) const
PUBLIC 863fc 0 std::__ndk1::__function::__func<CodeBlock::$_0, std::__ndk1::allocator<CodeBlock::$_0>, Theme::Color(Theme::Menu::Icons const&)>::target_type() const
PUBLIC 86408 0 std::__ndk1::__function::__func<CodeBlock::$_6, std::__ndk1::allocator<CodeBlock::$_6>, void (CodeBlock*)>::~__func()
PUBLIC 8640c 0 std::__ndk1::__function::__func<CodeBlock::$_6, std::__ndk1::allocator<CodeBlock::$_6>, void (CodeBlock*)>::__clone() const
PUBLIC 86430 0 std::__ndk1::__function::__func<CodeBlock::$_6, std::__ndk1::allocator<CodeBlock::$_6>, void (CodeBlock*)>::__clone(std::__ndk1::__function::__base<void (CodeBlock*)>*) const
PUBLIC 86440 0 std::__ndk1::__function::__func<CodeBlock::$_6, std::__ndk1::allocator<CodeBlock::$_6>, void (CodeBlock*)>::destroy()
PUBLIC 86444 0 std::__ndk1::__function::__func<CodeBlock::$_6, std::__ndk1::allocator<CodeBlock::$_6>, void (CodeBlock*)>::destroy_deallocate()
PUBLIC 86448 0 std::__ndk1::__function::__func<CodeBlock::$_6, std::__ndk1::allocator<CodeBlock::$_6>, void (CodeBlock*)>::operator()(CodeBlock*&&)
PUBLIC 87670 0 std::__ndk1::__function::__func<CodeBlock::$_6, std::__ndk1::allocator<CodeBlock::$_6>, void (CodeBlock*)>::target(std::type_info const&) const
PUBLIC 8768c 0 std::__ndk1::__function::__func<CodeBlock::$_6, std::__ndk1::allocator<CodeBlock::$_6>, void (CodeBlock*)>::target_type() const
PUBLIC 87698 0 std::__ndk1::__function::__func<CodeBlock::$_1, std::__ndk1::allocator<CodeBlock::$_1>, Theme::Color(Theme::Menu::Icons const&)>::~__func()
PUBLIC 8769c 0 std::__ndk1::__function::__func<CodeBlock::$_1, std::__ndk1::allocator<CodeBlock::$_1>, Theme::Color(Theme::Menu::Icons const&)>::__clone() const
PUBLIC 876c0 0 std::__ndk1::__function::__func<CodeBlock::$_1, std::__ndk1::allocator<CodeBlock::$_1>, Theme::Color(Theme::Menu::Icons const&)>::__clone(std::__ndk1::__function::__base<Theme::Color(Theme::Menu::Icons const&)>*) const
PUBLIC 876d0 0 std::__ndk1::__function::__func<CodeBlock::$_1, std::__ndk1::allocator<CodeBlock::$_1>, Theme::Color(Theme::Menu::Icons const&)>::destroy()
PUBLIC 876d4 0 std::__ndk1::__function::__func<CodeBlock::$_1, std::__ndk1::allocator<CodeBlock::$_1>, Theme::Color(Theme::Menu::Icons const&)>::destroy_deallocate()
PUBLIC 876d8 0 std::__ndk1::__function::__func<CodeBlock::$_1, std::__ndk1::allocator<CodeBlock::$_1>, Theme::Color(Theme::Menu::Icons const&)>::operator()(Theme::Menu::Icons const&)
PUBLIC 876e0 0 std::__ndk1::__function::__func<CodeBlock::$_1, std::__ndk1::allocator<CodeBlock::$_1>, Theme::Color(Theme::Menu::Icons const&)>::target(std::type_info const&) const
PUBLIC 876fc 0 std::__ndk1::__function::__func<CodeBlock::$_1, std::__ndk1::allocator<CodeBlock::$_1>, Theme::Color(Theme::Menu::Icons const&)>::target_type() const
PUBLIC 87708 0 std::__ndk1::__function::__func<CodeBlock::$_7, std::__ndk1::allocator<CodeBlock::$_7>, void (CodeBlock*)>::~__func()
PUBLIC 8770c 0 std::__ndk1::__function::__func<CodeBlock::$_7, std::__ndk1::allocator<CodeBlock::$_7>, void (CodeBlock*)>::__clone() const
PUBLIC 87730 0 std::__ndk1::__function::__func<CodeBlock::$_7, std::__ndk1::allocator<CodeBlock::$_7>, void (CodeBlock*)>::__clone(std::__ndk1::__function::__base<void (CodeBlock*)>*) const
PUBLIC 87740 0 std::__ndk1::__function::__func<CodeBlock::$_7, std::__ndk1::allocator<CodeBlock::$_7>, void (CodeBlock*)>::destroy()
PUBLIC 87744 0 std::__ndk1::__function::__func<CodeBlock::$_7, std::__ndk1::allocator<CodeBlock::$_7>, void (CodeBlock*)>::destroy_deallocate()
PUBLIC 87748 0 std::__ndk1::__function::__func<CodeBlock::$_7, std::__ndk1::allocator<CodeBlock::$_7>, void (CodeBlock*)>::operator()(CodeBlock*&&)
PUBLIC 87918 0 std::__ndk1::__function::__func<CodeBlock::$_7, std::__ndk1::allocator<CodeBlock::$_7>, void (CodeBlock*)>::target(std::type_info const&) const
PUBLIC 87934 0 std::__ndk1::__function::__func<CodeBlock::$_7, std::__ndk1::allocator<CodeBlock::$_7>, void (CodeBlock*)>::target_type() const
PUBLIC 87940 0 std::__ndk1::__function::__func<CodeBlock::$_2, std::__ndk1::allocator<CodeBlock::$_2>, Theme::Color(Theme::Menu::Icons const&)>::~__func()
PUBLIC 87944 0 std::__ndk1::__function::__func<CodeBlock::$_2, std::__ndk1::allocator<CodeBlock::$_2>, Theme::Color(Theme::Menu::Icons const&)>::__clone() const
PUBLIC 87968 0 std::__ndk1::__function::__func<CodeBlock::$_2, std::__ndk1::allocator<CodeBlock::$_2>, Theme::Color(Theme::Menu::Icons const&)>::__clone(std::__ndk1::__function::__base<Theme::Color(Theme::Menu::Icons const&)>*) const
PUBLIC 87978 0 std::__ndk1::__function::__func<CodeBlock::$_2, std::__ndk1::allocator<CodeBlock::$_2>, Theme::Color(Theme::Menu::Icons const&)>::destroy()
PUBLIC 8797c 0 std::__ndk1::__function::__func<CodeBlock::$_2, std::__ndk1::allocator<CodeBlock::$_2>, Theme::Color(Theme::Menu::Icons const&)>::destroy_deallocate()
PUBLIC 87980 0 std::__ndk1::__function::__func<CodeBlock::$_2, std::__ndk1::allocator<CodeBlock::$_2>, Theme::Color(Theme::Menu::Icons const&)>::operator()(Theme::Menu::Icons const&)
PUBLIC 87988 0 std::__ndk1::__function::__func<CodeBlock::$_2, std::__ndk1::allocator<CodeBlock::$_2>, Theme::Color(Theme::Menu::Icons const&)>::target(std::type_info const&) const
PUBLIC 879a4 0 std::__ndk1::__function::__func<CodeBlock::$_2, std::__ndk1::allocator<CodeBlock::$_2>, Theme::Color(Theme::Menu::Icons const&)>::target_type() const
PUBLIC 879b0 0 std::__ndk1::__function::__func<CodeBlock::$_8, std::__ndk1::allocator<CodeBlock::$_8>, void (CodeBlock*)>::~__func()
PUBLIC 879b4 0 std::__ndk1::__function::__func<CodeBlock::$_8, std::__ndk1::allocator<CodeBlock::$_8>, void (CodeBlock*)>::__clone() const
PUBLIC 879d8 0 std::__ndk1::__function::__func<CodeBlock::$_8, std::__ndk1::allocator<CodeBlock::$_8>, void (CodeBlock*)>::__clone(std::__ndk1::__function::__base<void (CodeBlock*)>*) const
PUBLIC 879e8 0 std::__ndk1::__function::__func<CodeBlock::$_8, std::__ndk1::allocator<CodeBlock::$_8>, void (CodeBlock*)>::destroy()
PUBLIC 879ec 0 std::__ndk1::__function::__func<CodeBlock::$_8, std::__ndk1::allocator<CodeBlock::$_8>, void (CodeBlock*)>::destroy_deallocate()
PUBLIC 879f0 0 std::__ndk1::__function::__func<CodeBlock::$_8, std::__ndk1::allocator<CodeBlock::$_8>, void (CodeBlock*)>::operator()(CodeBlock*&&)
PUBLIC 87ba8 0 std::__ndk1::__function::__func<CodeBlock::$_8, std::__ndk1::allocator<CodeBlock::$_8>, void (CodeBlock*)>::target(std::type_info const&) const
PUBLIC 87bc4 0 std::__ndk1::__function::__func<CodeBlock::$_8, std::__ndk1::allocator<CodeBlock::$_8>, void (CodeBlock*)>::target_type() const
PUBLIC 87bd0 0 std::__ndk1::__function::__func<CodeBlock::$_3, std::__ndk1::allocator<CodeBlock::$_3>, Theme::Color(Theme::Menu::Icons const&)>::~__func()
PUBLIC 87bd4 0 std::__ndk1::__function::__func<CodeBlock::$_3, std::__ndk1::allocator<CodeBlock::$_3>, Theme::Color(Theme::Menu::Icons const&)>::__clone() const
PUBLIC 87bf8 0 std::__ndk1::__function::__func<CodeBlock::$_3, std::__ndk1::allocator<CodeBlock::$_3>, Theme::Color(Theme::Menu::Icons const&)>::__clone(std::__ndk1::__function::__base<Theme::Color(Theme::Menu::Icons const&)>*) const
PUBLIC 87c08 0 std::__ndk1::__function::__func<CodeBlock::$_3, std::__ndk1::allocator<CodeBlock::$_3>, Theme::Color(Theme::Menu::Icons const&)>::destroy()
PUBLIC 87c0c 0 std::__ndk1::__function::__func<CodeBlock::$_3, std::__ndk1::allocator<CodeBlock::$_3>, Theme::Color(Theme::Menu::Icons const&)>::destroy_deallocate()
PUBLIC 87c10 0 std::__ndk1::__function::__func<CodeBlock::$_3, std::__ndk1::allocator<CodeBlock::$_3>, Theme::Color(Theme::Menu::Icons const&)>::operator()(Theme::Menu::Icons const&)
PUBLIC 87c18 0 std::__ndk1::__function::__func<CodeBlock::$_3, std::__ndk1::allocator<CodeBlock::$_3>, Theme::Color(Theme::Menu::Icons const&)>::target(std::type_info const&) const
PUBLIC 87c34 0 std::__ndk1::__function::__func<CodeBlock::$_3, std::__ndk1::allocator<CodeBlock::$_3>, Theme::Color(Theme::Menu::Icons const&)>::target_type() const
PUBLIC 87c40 0 std::__ndk1::__function::__func<CodeBlock::$_9, std::__ndk1::allocator<CodeBlock::$_9>, void (CodeBlock*)>::~__func()
PUBLIC 87c44 0 std::__ndk1::__function::__func<CodeBlock::$_9, std::__ndk1::allocator<CodeBlock::$_9>, void (CodeBlock*)>::__clone() const
PUBLIC 87c68 0 std::__ndk1::__function::__func<CodeBlock::$_9, std::__ndk1::allocator<CodeBlock::$_9>, void (CodeBlock*)>::__clone(std::__ndk1::__function::__base<void (CodeBlock*)>*) const
PUBLIC 87c78 0 std::__ndk1::__function::__func<CodeBlock::$_9, std::__ndk1::allocator<CodeBlock::$_9>, void (CodeBlock*)>::destroy()
PUBLIC 87c7c 0 std::__ndk1::__function::__func<CodeBlock::$_9, std::__ndk1::allocator<CodeBlock::$_9>, void (CodeBlock*)>::destroy_deallocate()
PUBLIC 87c80 0 std::__ndk1::__function::__func<CodeBlock::$_9, std::__ndk1::allocator<CodeBlock::$_9>, void (CodeBlock*)>::operator()(CodeBlock*&&)
PUBLIC 87de8 0 std::__ndk1::__function::__func<CodeBlock::$_9, std::__ndk1::allocator<CodeBlock::$_9>, void (CodeBlock*)>::target(std::type_info const&) const
PUBLIC 87e04 0 std::__ndk1::__function::__func<CodeBlock::$_9, std::__ndk1::allocator<CodeBlock::$_9>, void (CodeBlock*)>::target_type() const
PUBLIC 87e10 0 std::__ndk1::__function::__func<CodeBlock::$_4, std::__ndk1::allocator<CodeBlock::$_4>, Theme::Color(Theme::Menu::Icons const&)>::~__func()
PUBLIC 87e14 0 std::__ndk1::__function::__func<CodeBlock::$_4, std::__ndk1::allocator<CodeBlock::$_4>, Theme::Color(Theme::Menu::Icons const&)>::__clone() const
PUBLIC 87e38 0 std::__ndk1::__function::__func<CodeBlock::$_4, std::__ndk1::allocator<CodeBlock::$_4>, Theme::Color(Theme::Menu::Icons const&)>::__clone(std::__ndk1::__function::__base<Theme::Color(Theme::Menu::Icons const&)>*) const
PUBLIC 87e48 0 std::__ndk1::__function::__func<CodeBlock::$_4, std::__ndk1::allocator<CodeBlock::$_4>, Theme::Color(Theme::Menu::Icons const&)>::destroy()
PUBLIC 87e4c 0 std::__ndk1::__function::__func<CodeBlock::$_4, std::__ndk1::allocator<CodeBlock::$_4>, Theme::Color(Theme::Menu::Icons const&)>::destroy_deallocate()
PUBLIC 87e50 0 std::__ndk1::__function::__func<CodeBlock::$_4, std::__ndk1::allocator<CodeBlock::$_4>, Theme::Color(Theme::Menu::Icons const&)>::operator()(Theme::Menu::Icons const&)
PUBLIC 87e58 0 std::__ndk1::__function::__func<CodeBlock::$_4, std::__ndk1::allocator<CodeBlock::$_4>, Theme::Color(Theme::Menu::Icons const&)>::target(std::type_info const&) const
PUBLIC 87e74 0 std::__ndk1::__function::__func<CodeBlock::$_4, std::__ndk1::allocator<CodeBlock::$_4>, Theme::Color(Theme::Menu::Icons const&)>::target_type() const
PUBLIC 87e80 0 std::__ndk1::__function::__func<CodeBlock::$_10, std::__ndk1::allocator<CodeBlock::$_10>, void (CodeBlock*)>::~__func()
PUBLIC 87e84 0 std::__ndk1::__function::__func<CodeBlock::$_10, std::__ndk1::allocator<CodeBlock::$_10>, void (CodeBlock*)>::__clone() const
PUBLIC 87ea8 0 std::__ndk1::__function::__func<CodeBlock::$_10, std::__ndk1::allocator<CodeBlock::$_10>, void (CodeBlock*)>::__clone(std::__ndk1::__function::__base<void (CodeBlock*)>*) const
PUBLIC 87eb8 0 std::__ndk1::__function::__func<CodeBlock::$_10, std::__ndk1::allocator<CodeBlock::$_10>, void (CodeBlock*)>::destroy()
PUBLIC 87ebc 0 std::__ndk1::__function::__func<CodeBlock::$_10, std::__ndk1::allocator<CodeBlock::$_10>, void (CodeBlock*)>::destroy_deallocate()
PUBLIC 87ec0 0 std::__ndk1::__function::__func<CodeBlock::$_10, std::__ndk1::allocator<CodeBlock::$_10>, void (CodeBlock*)>::operator()(CodeBlock*&&)
PUBLIC 881fc 0 std::__ndk1::__function::__func<CodeBlock::$_10, std::__ndk1::allocator<CodeBlock::$_10>, void (CodeBlock*)>::target(std::type_info const&) const
PUBLIC 88218 0 std::__ndk1::__function::__func<CodeBlock::$_10, std::__ndk1::allocator<CodeBlock::$_10>, void (CodeBlock*)>::target_type() const
PUBLIC 88224 0 std::__ndk1::__function::__base<Theme::Color(Theme::Menu::Icons const&)>::~__base()
PUBLIC 88228 0 std::__ndk1::__function::__func<CodeBlock::$_5, std::__ndk1::allocator<CodeBlock::$_5>, Theme::Color(Theme::Menu::Icons const&)>::~__func()
PUBLIC 8822c 0 std::__ndk1::__function::__func<CodeBlock::$_5, std::__ndk1::allocator<CodeBlock::$_5>, Theme::Color(Theme::Menu::Icons const&)>::__clone() const
PUBLIC 88250 0 std::__ndk1::__function::__func<CodeBlock::$_5, std::__ndk1::allocator<CodeBlock::$_5>, Theme::Color(Theme::Menu::Icons const&)>::__clone(std::__ndk1::__function::__base<Theme::Color(Theme::Menu::Icons const&)>*) const
PUBLIC 88260 0 std::__ndk1::__function::__func<CodeBlock::$_5, std::__ndk1::allocator<CodeBlock::$_5>, Theme::Color(Theme::Menu::Icons const&)>::destroy()
PUBLIC 88264 0 std::__ndk1::__function::__func<CodeBlock::$_5, std::__ndk1::allocator<CodeBlock::$_5>, Theme::Color(Theme::Menu::Icons const&)>::destroy_deallocate()
PUBLIC 88268 0 std::__ndk1::__function::__func<CodeBlock::$_5, std::__ndk1::allocator<CodeBlock::$_5>, Theme::Color(Theme::Menu::Icons const&)>::operator()(Theme::Menu::Icons const&)
PUBLIC 88270 0 std::__ndk1::__function::__func<CodeBlock::$_5, std::__ndk1::allocator<CodeBlock::$_5>, Theme::Color(Theme::Menu::Icons const&)>::target(std::type_info const&) const
PUBLIC 8828c 0 std::__ndk1::__function::__func<CodeBlock::$_5, std::__ndk1::allocator<CodeBlock::$_5>, Theme::Color(Theme::Menu::Icons const&)>::target_type() const
PUBLIC 88298 0 std::__ndk1::__function::__base<void (CodeBlock*)>::~__base()
PUBLIC 8829c 0 std::__ndk1::__function::__func<CodeBlock::$_11, std::__ndk1::allocator<CodeBlock::$_11>, void (CodeBlock*)>::~__func()
PUBLIC 882a0 0 std::__ndk1::__function::__func<CodeBlock::$_11, std::__ndk1::allocator<CodeBlock::$_11>, void (CodeBlock*)>::__clone() const
PUBLIC 882c4 0 std::__ndk1::__function::__func<CodeBlock::$_11, std::__ndk1::allocator<CodeBlock::$_11>, void (CodeBlock*)>::__clone(std::__ndk1::__function::__base<void (CodeBlock*)>*) const
PUBLIC 882d4 0 std::__ndk1::__function::__func<CodeBlock::$_11, std::__ndk1::allocator<CodeBlock::$_11>, void (CodeBlock*)>::destroy()
PUBLIC 882d8 0 std::__ndk1::__function::__func<CodeBlock::$_11, std::__ndk1::allocator<CodeBlock::$_11>, void (CodeBlock*)>::destroy_deallocate()
PUBLIC 882dc 0 std::__ndk1::__function::__func<CodeBlock::$_11, std::__ndk1::allocator<CodeBlock::$_11>, void (CodeBlock*)>::operator()(CodeBlock*&&)
PUBLIC 88614 0 std::__ndk1::__function::__func<CodeBlock::$_11, std::__ndk1::allocator<CodeBlock::$_11>, void (CodeBlock*)>::target(std::type_info const&) const
PUBLIC 88630 0 std::__ndk1::__function::__func<CodeBlock::$_11, std::__ndk1::allocator<CodeBlock::$_11>, void (CodeBlock*)>::target_type() const
PUBLIC 8863c 0 std::__ndk1::__function::__func<CodeBlock::$_14, std::__ndk1::allocator<CodeBlock::$_14>, bool (CodeBlock*)>::~__func()
PUBLIC 88640 0 std::__ndk1::__function::__func<CodeBlock::$_14, std::__ndk1::allocator<CodeBlock::$_14>, bool (CodeBlock*)>::__clone() const
PUBLIC 88664 0 std::__ndk1::__function::__func<CodeBlock::$_14, std::__ndk1::allocator<CodeBlock::$_14>, bool (CodeBlock*)>::__clone(std::__ndk1::__function::__base<bool (CodeBlock*)>*) const
PUBLIC 88674 0 std::__ndk1::__function::__func<CodeBlock::$_14, std::__ndk1::allocator<CodeBlock::$_14>, bool (CodeBlock*)>::destroy()
PUBLIC 88678 0 std::__ndk1::__function::__func<CodeBlock::$_14, std::__ndk1::allocator<CodeBlock::$_14>, bool (CodeBlock*)>::destroy_deallocate()
PUBLIC 8867c 0 std::__ndk1::__function::__func<CodeBlock::$_14, std::__ndk1::allocator<CodeBlock::$_14>, bool (CodeBlock*)>::operator()(CodeBlock*&&)
PUBLIC 88694 0 std::__ndk1::__function::__func<CodeBlock::$_14, std::__ndk1::allocator<CodeBlock::$_14>, bool (CodeBlock*)>::target(std::type_info const&) const
PUBLIC 886b0 0 std::__ndk1::__function::__func<CodeBlock::$_14, std::__ndk1::allocator<CodeBlock::$_14>, bool (CodeBlock*)>::target_type() const
PUBLIC 886bc 0 std::__ndk1::__function::__func<CodeBlock::$_15, std::__ndk1::allocator<CodeBlock::$_15>, bool (CodeBlock*)>::~__func()
PUBLIC 886c0 0 std::__ndk1::__function::__func<CodeBlock::$_15, std::__ndk1::allocator<CodeBlock::$_15>, bool (CodeBlock*)>::__clone() const
PUBLIC 886e4 0 std::__ndk1::__function::__func<CodeBlock::$_15, std::__ndk1::allocator<CodeBlock::$_15>, bool (CodeBlock*)>::__clone(std::__ndk1::__function::__base<bool (CodeBlock*)>*) const
PUBLIC 886f4 0 std::__ndk1::__function::__func<CodeBlock::$_15, std::__ndk1::allocator<CodeBlock::$_15>, bool (CodeBlock*)>::destroy()
PUBLIC 886f8 0 std::__ndk1::__function::__func<CodeBlock::$_15, std::__ndk1::allocator<CodeBlock::$_15>, bool (CodeBlock*)>::destroy_deallocate()
PUBLIC 886fc 0 std::__ndk1::__function::__func<CodeBlock::$_15, std::__ndk1::allocator<CodeBlock::$_15>, bool (CodeBlock*)>::operator()(CodeBlock*&&)
PUBLIC 887c0 0 std::__ndk1::__function::__func<CodeBlock::$_15, std::__ndk1::allocator<CodeBlock::$_15>, bool (CodeBlock*)>::target(std::type_info const&) const
PUBLIC 887dc 0 std::__ndk1::__function::__func<CodeBlock::$_15, std::__ndk1::allocator<CodeBlock::$_15>, bool (CodeBlock*)>::target_type() const
PUBLIC 887e8 0 std::__ndk1::__function::__func<CodeBlock::$_16, std::__ndk1::allocator<CodeBlock::$_16>, bool (CodeBlock*)>::~__func()
PUBLIC 887ec 0 std::__ndk1::__function::__func<CodeBlock::$_16, std::__ndk1::allocator<CodeBlock::$_16>, bool (CodeBlock*)>::__clone() const
PUBLIC 88810 0 std::__ndk1::__function::__func<CodeBlock::$_16, std::__ndk1::allocator<CodeBlock::$_16>, bool (CodeBlock*)>::__clone(std::__ndk1::__function::__base<bool (CodeBlock*)>*) const
PUBLIC 88820 0 std::__ndk1::__function::__func<CodeBlock::$_16, std::__ndk1::allocator<CodeBlock::$_16>, bool (CodeBlock*)>::destroy()
PUBLIC 88824 0 std::__ndk1::__function::__func<CodeBlock::$_16, std::__ndk1::allocator<CodeBlock::$_16>, bool (CodeBlock*)>::destroy_deallocate()
PUBLIC 88828 0 std::__ndk1::__function::__func<CodeBlock::$_16, std::__ndk1::allocator<CodeBlock::$_16>, bool (CodeBlock*)>::operator()(CodeBlock*&&)
PUBLIC 88840 0 std::__ndk1::__function::__func<CodeBlock::$_16, std::__ndk1::allocator<CodeBlock::$_16>, bool (CodeBlock*)>::target(std::type_info const&) const
PUBLIC 8885c 0 std::__ndk1::__function::__func<CodeBlock::$_16, std::__ndk1::allocator<CodeBlock::$_16>, bool (CodeBlock*)>::target_type() const
PUBLIC 88868 0 std::__ndk1::__function::__func<CodeBlock::$_17, std::__ndk1::allocator<CodeBlock::$_17>, bool (CodeBlock*)>::~__func()
PUBLIC 8886c 0 std::__ndk1::__function::__func<CodeBlock::$_17, std::__ndk1::allocator<CodeBlock::$_17>, bool (CodeBlock*)>::__clone() const
PUBLIC 88890 0 std::__ndk1::__function::__func<CodeBlock::$_17, std::__ndk1::allocator<CodeBlock::$_17>, bool (CodeBlock*)>::__clone(std::__ndk1::__function::__base<bool (CodeBlock*)>*) const
PUBLIC 888a0 0 std::__ndk1::__function::__func<CodeBlock::$_17, std::__ndk1::allocator<CodeBlock::$_17>, bool (CodeBlock*)>::destroy()
PUBLIC 888a4 0 std::__ndk1::__function::__func<CodeBlock::$_17, std::__ndk1::allocator<CodeBlock::$_17>, bool (CodeBlock*)>::destroy_deallocate()
PUBLIC 888a8 0 std::__ndk1::__function::__func<CodeBlock::$_17, std::__ndk1::allocator<CodeBlock::$_17>, bool (CodeBlock*)>::operator()(CodeBlock*&&)
PUBLIC 888c4 0 std::__ndk1::__function::__func<CodeBlock::$_17, std::__ndk1::allocator<CodeBlock::$_17>, bool (CodeBlock*)>::target(std::type_info const&) const
PUBLIC 888e0 0 std::__ndk1::__function::__func<CodeBlock::$_17, std::__ndk1::allocator<CodeBlock::$_17>, bool (CodeBlock*)>::target_type() const
PUBLIC 888ec 0 std::__ndk1::__function::__func<CodeBlock::$_18, std::__ndk1::allocator<CodeBlock::$_18>, bool (CodeBlock*)>::~__func()
PUBLIC 888f0 0 std::__ndk1::__function::__func<CodeBlock::$_18, std::__ndk1::allocator<CodeBlock::$_18>, bool (CodeBlock*)>::__clone() const
PUBLIC 88914 0 std::__ndk1::__function::__func<CodeBlock::$_18, std::__ndk1::allocator<CodeBlock::$_18>, bool (CodeBlock*)>::__clone(std::__ndk1::__function::__base<bool (CodeBlock*)>*) const
PUBLIC 88924 0 std::__ndk1::__function::__func<CodeBlock::$_18, std::__ndk1::allocator<CodeBlock::$_18>, bool (CodeBlock*)>::destroy()
PUBLIC 88928 0 std::__ndk1::__function::__func<CodeBlock::$_18, std::__ndk1::allocator<CodeBlock::$_18>, bool (CodeBlock*)>::destroy_deallocate()
PUBLIC 8892c 0 std::__ndk1::__function::__func<CodeBlock::$_18, std::__ndk1::allocator<CodeBlock::$_18>, bool (CodeBlock*)>::operator()(CodeBlock*&&)
PUBLIC 88940 0 std::__ndk1::__function::__func<CodeBlock::$_18, std::__ndk1::allocator<CodeBlock::$_18>, bool (CodeBlock*)>::target(std::type_info const&) const
PUBLIC 8895c 0 std::__ndk1::__function::__func<CodeBlock::$_18, std::__ndk1::allocator<CodeBlock::$_18>, bool (CodeBlock*)>::target_type() const
PUBLIC 88968 0 std::__ndk1::__function::__func<CodeBlock::$_19, std::__ndk1::allocator<CodeBlock::$_19>, bool (CodeBlock*)>::~__func()
PUBLIC 8896c 0 std::__ndk1::__function::__func<CodeBlock::$_19, std::__ndk1::allocator<CodeBlock::$_19>, bool (CodeBlock*)>::__clone() const
PUBLIC 88990 0 std::__ndk1::__function::__func<CodeBlock::$_19, std::__ndk1::allocator<CodeBlock::$_19>, bool (CodeBlock*)>::__clone(std::__ndk1::__function::__base<bool (CodeBlock*)>*) const
PUBLIC 889a0 0 std::__ndk1::__function::__func<CodeBlock::$_19, std::__ndk1::allocator<CodeBlock::$_19>, bool (CodeBlock*)>::destroy()
PUBLIC 889a4 0 std::__ndk1::__function::__func<CodeBlock::$_19, std::__ndk1::allocator<CodeBlock::$_19>, bool (CodeBlock*)>::destroy_deallocate()
PUBLIC 889a8 0 std::__ndk1::__function::__func<CodeBlock::$_19, std::__ndk1::allocator<CodeBlock::$_19>, bool (CodeBlock*)>::operator()(CodeBlock*&&)
PUBLIC 88a7c 0 std::__ndk1::__function::__func<CodeBlock::$_19, std::__ndk1::allocator<CodeBlock::$_19>, bool (CodeBlock*)>::target(std::type_info const&) const
PUBLIC 88a98 0 std::__ndk1::__function::__func<CodeBlock::$_19, std::__ndk1::allocator<CodeBlock::$_19>, bool (CodeBlock*)>::target_type() const
PUBLIC 88aa4 0 std::__ndk1::__function::__func<CodeBlock::$_20, std::__ndk1::allocator<CodeBlock::$_20>, bool (CodeBlock*)>::~__func()
PUBLIC 88aa8 0 std::__ndk1::__function::__func<CodeBlock::$_20, std::__ndk1::allocator<CodeBlock::$_20>, bool (CodeBlock*)>::__clone() const
PUBLIC 88acc 0 std::__ndk1::__function::__func<CodeBlock::$_20, std::__ndk1::allocator<CodeBlock::$_20>, bool (CodeBlock*)>::__clone(std::__ndk1::__function::__base<bool (CodeBlock*)>*) const
PUBLIC 88adc 0 std::__ndk1::__function::__func<CodeBlock::$_20, std::__ndk1::allocator<CodeBlock::$_20>, bool (CodeBlock*)>::destroy()
PUBLIC 88ae0 0 std::__ndk1::__function::__func<CodeBlock::$_20, std::__ndk1::allocator<CodeBlock::$_20>, bool (CodeBlock*)>::destroy_deallocate()
PUBLIC 88ae4 0 std::__ndk1::__function::__func<CodeBlock::$_20, std::__ndk1::allocator<CodeBlock::$_20>, bool (CodeBlock*)>::operator()(CodeBlock*&&)
PUBLIC 88af8 0 std::__ndk1::__function::__func<CodeBlock::$_20, std::__ndk1::allocator<CodeBlock::$_20>, bool (CodeBlock*)>::target(std::type_info const&) const
PUBLIC 88b14 0 std::__ndk1::__function::__func<CodeBlock::$_20, std::__ndk1::allocator<CodeBlock::$_20>, bool (CodeBlock*)>::target_type() const
PUBLIC 88b20 0 std::__ndk1::__function::__func<CodeBlock::$_21, std::__ndk1::allocator<CodeBlock::$_21>, bool (CodeBlock*)>::~__func()
PUBLIC 88b24 0 std::__ndk1::__function::__func<CodeBlock::$_21, std::__ndk1::allocator<CodeBlock::$_21>, bool (CodeBlock*)>::__clone() const
PUBLIC 88b48 0 std::__ndk1::__function::__func<CodeBlock::$_21, std::__ndk1::allocator<CodeBlock::$_21>, bool (CodeBlock*)>::__clone(std::__ndk1::__function::__base<bool (CodeBlock*)>*) const
PUBLIC 88b58 0 std::__ndk1::__function::__func<CodeBlock::$_21, std::__ndk1::allocator<CodeBlock::$_21>, bool (CodeBlock*)>::destroy()
PUBLIC 88b5c 0 std::__ndk1::__function::__func<CodeBlock::$_21, std::__ndk1::allocator<CodeBlock::$_21>, bool (CodeBlock*)>::destroy_deallocate()
PUBLIC 88b60 0 std::__ndk1::__function::__func<CodeBlock::$_21, std::__ndk1::allocator<CodeBlock::$_21>, bool (CodeBlock*)>::operator()(CodeBlock*&&)
PUBLIC 88b7c 0 std::__ndk1::__function::__func<CodeBlock::$_21, std::__ndk1::allocator<CodeBlock::$_21>, bool (CodeBlock*)>::target(std::type_info const&) const
PUBLIC 88b98 0 std::__ndk1::__function::__func<CodeBlock::$_21, std::__ndk1::allocator<CodeBlock::$_21>, bool (CodeBlock*)>::target_type() const
PUBLIC 88ba4 0 std::__ndk1::__function::__func<CodeBlock::$_22, std::__ndk1::allocator<CodeBlock::$_22>, bool (CodeBlock*)>::~__func()
PUBLIC 88ba8 0 std::__ndk1::__function::__func<CodeBlock::$_22, std::__ndk1::allocator<CodeBlock::$_22>, bool (CodeBlock*)>::__clone() const
PUBLIC 88bcc 0 std::__ndk1::__function::__func<CodeBlock::$_22, std::__ndk1::allocator<CodeBlock::$_22>, bool (CodeBlock*)>::__clone(std::__ndk1::__function::__base<bool (CodeBlock*)>*) const
PUBLIC 88bdc 0 std::__ndk1::__function::__func<CodeBlock::$_22, std::__ndk1::allocator<CodeBlock::$_22>, bool (CodeBlock*)>::destroy()
PUBLIC 88be0 0 std::__ndk1::__function::__func<CodeBlock::$_22, std::__ndk1::allocator<CodeBlock::$_22>, bool (CodeBlock*)>::destroy_deallocate()
PUBLIC 88be4 0 std::__ndk1::__function::__func<CodeBlock::$_22, std::__ndk1::allocator<CodeBlock::$_22>, bool (CodeBlock*)>::operator()(CodeBlock*&&)
PUBLIC 88bf8 0 std::__ndk1::__function::__func<CodeBlock::$_22, std::__ndk1::allocator<CodeBlock::$_22>, bool (CodeBlock*)>::target(std::type_info const&) const
PUBLIC 88c14 0 std::__ndk1::__function::__func<CodeBlock::$_22, std::__ndk1::allocator<CodeBlock::$_22>, bool (CodeBlock*)>::target_type() const
PUBLIC 88c20 0 std::__ndk1::__function::__func<CodeBlock::$_23, std::__ndk1::allocator<CodeBlock::$_23>, bool (CodeBlock*)>::~__func()
PUBLIC 88c24 0 std::__ndk1::__function::__func<CodeBlock::$_23, std::__ndk1::allocator<CodeBlock::$_23>, bool (CodeBlock*)>::__clone() const
PUBLIC 88c48 0 std::__ndk1::__function::__func<CodeBlock::$_23, std::__ndk1::allocator<CodeBlock::$_23>, bool (CodeBlock*)>::__clone(std::__ndk1::__function::__base<bool (CodeBlock*)>*) const
PUBLIC 88c58 0 std::__ndk1::__function::__func<CodeBlock::$_23, std::__ndk1::allocator<CodeBlock::$_23>, bool (CodeBlock*)>::destroy()
PUBLIC 88c5c 0 std::__ndk1::__function::__func<CodeBlock::$_23, std::__ndk1::allocator<CodeBlock::$_23>, bool (CodeBlock*)>::destroy_deallocate()
PUBLIC 88c60 0 std::__ndk1::__function::__func<CodeBlock::$_23, std::__ndk1::allocator<CodeBlock::$_23>, bool (CodeBlock*)>::operator()(CodeBlock*&&)
PUBLIC 88d98 0 std::__ndk1::__function::__func<CodeBlock::$_23, std::__ndk1::allocator<CodeBlock::$_23>, bool (CodeBlock*)>::target(std::type_info const&) const
PUBLIC 88db4 0 std::__ndk1::__function::__func<CodeBlock::$_23, std::__ndk1::allocator<CodeBlock::$_23>, bool (CodeBlock*)>::target_type() const
PUBLIC 88dc0 0 std::__ndk1::__function::__func<CodeBlock::$_24, std::__ndk1::allocator<CodeBlock::$_24>, bool (CodeBlock*)>::~__func()
PUBLIC 88dc4 0 std::__ndk1::__function::__func<CodeBlock::$_24, std::__ndk1::allocator<CodeBlock::$_24>, bool (CodeBlock*)>::__clone() const
PUBLIC 88de8 0 std::__ndk1::__function::__func<CodeBlock::$_24, std::__ndk1::allocator<CodeBlock::$_24>, bool (CodeBlock*)>::__clone(std::__ndk1::__function::__base<bool (CodeBlock*)>*) const
PUBLIC 88df8 0 std::__ndk1::__function::__func<CodeBlock::$_24, std::__ndk1::allocator<CodeBlock::$_24>, bool (CodeBlock*)>::destroy()
PUBLIC 88dfc 0 std::__ndk1::__function::__func<CodeBlock::$_24, std::__ndk1::allocator<CodeBlock::$_24>, bool (CodeBlock*)>::destroy_deallocate()
PUBLIC 88e00 0 std::__ndk1::__function::__func<CodeBlock::$_24, std::__ndk1::allocator<CodeBlock::$_24>, bool (CodeBlock*)>::operator()(CodeBlock*&&)
PUBLIC 88e24 0 std::__ndk1::__function::__func<CodeBlock::$_24, std::__ndk1::allocator<CodeBlock::$_24>, bool (CodeBlock*)>::target(std::type_info const&) const
PUBLIC 88e40 0 std::__ndk1::__function::__func<CodeBlock::$_24, std::__ndk1::allocator<CodeBlock::$_24>, bool (CodeBlock*)>::target_type() const
PUBLIC 88e4c 0 std::__ndk1::__function::__func<CodeBlock::$_25, std::__ndk1::allocator<CodeBlock::$_25>, bool (CodeBlock*)>::~__func()
PUBLIC 88e50 0 std::__ndk1::__function::__func<CodeBlock::$_25, std::__ndk1::allocator<CodeBlock::$_25>, bool (CodeBlock*)>::__clone() const
PUBLIC 88e74 0 std::__ndk1::__function::__func<CodeBlock::$_25, std::__ndk1::allocator<CodeBlock::$_25>, bool (CodeBlock*)>::__clone(std::__ndk1::__function::__base<bool (CodeBlock*)>*) const
PUBLIC 88e84 0 std::__ndk1::__function::__func<CodeBlock::$_25, std::__ndk1::allocator<CodeBlock::$_25>, bool (CodeBlock*)>::destroy()
PUBLIC 88e88 0 std::__ndk1::__function::__func<CodeBlock::$_25, std::__ndk1::allocator<CodeBlock::$_25>, bool (CodeBlock*)>::destroy_deallocate()
PUBLIC 88e8c 0 std::__ndk1::__function::__func<CodeBlock::$_25, std::__ndk1::allocator<CodeBlock::$_25>, bool (CodeBlock*)>::operator()(CodeBlock*&&)
PUBLIC 88f84 0 std::__ndk1::__function::__func<CodeBlock::$_25, std::__ndk1::allocator<CodeBlock::$_25>, bool (CodeBlock*)>::target(std::type_info const&) const
PUBLIC 88fa0 0 std::__ndk1::__function::__func<CodeBlock::$_25, std::__ndk1::allocator<CodeBlock::$_25>, bool (CodeBlock*)>::target_type() const
PUBLIC 88fac 0 std::__ndk1::__function::__func<CodeBlock::$_26, std::__ndk1::allocator<CodeBlock::$_26>, bool (CodeBlock*)>::~__func()
PUBLIC 88fb0 0 std::__ndk1::__function::__func<CodeBlock::$_26, std::__ndk1::allocator<CodeBlock::$_26>, bool (CodeBlock*)>::__clone() const
PUBLIC 88fd4 0 std::__ndk1::__function::__func<CodeBlock::$_26, std::__ndk1::allocator<CodeBlock::$_26>, bool (CodeBlock*)>::__clone(std::__ndk1::__function::__base<bool (CodeBlock*)>*) const
PUBLIC 88fe4 0 std::__ndk1::__function::__func<CodeBlock::$_26, std::__ndk1::allocator<CodeBlock::$_26>, bool (CodeBlock*)>::destroy()
PUBLIC 88fe8 0 std::__ndk1::__function::__func<CodeBlock::$_26, std::__ndk1::allocator<CodeBlock::$_26>, bool (CodeBlock*)>::destroy_deallocate()
PUBLIC 88fec 0 std::__ndk1::__function::__func<CodeBlock::$_26, std::__ndk1::allocator<CodeBlock::$_26>, bool (CodeBlock*)>::operator()(CodeBlock*&&)
PUBLIC 88ff4 0 std::__ndk1::__function::__func<CodeBlock::$_26, std::__ndk1::allocator<CodeBlock::$_26>, bool (CodeBlock*)>::target(std::type_info const&) const
PUBLIC 89010 0 std::__ndk1::__function::__func<CodeBlock::$_26, std::__ndk1::allocator<CodeBlock::$_26>, bool (CodeBlock*)>::target_type() const
PUBLIC 8901c 0 std::__ndk1::__function::__base<bool (CodeBlock*)>::~__base()
PUBLIC 89020 0 std::__ndk1::__function::__func<CodeBlock::$_27, std::__ndk1::allocator<CodeBlock::$_27>, bool (CodeBlock*)>::~__func()
PUBLIC 89024 0 std::__ndk1::__function::__func<CodeBlock::$_27, std::__ndk1::allocator<CodeBlock::$_27>, bool (CodeBlock*)>::__clone() const
PUBLIC 89048 0 std::__ndk1::__function::__func<CodeBlock::$_27, std::__ndk1::allocator<CodeBlock::$_27>, bool (CodeBlock*)>::__clone(std::__ndk1::__function::__base<bool (CodeBlock*)>*) const
PUBLIC 89058 0 std::__ndk1::__function::__func<CodeBlock::$_27, std::__ndk1::allocator<CodeBlock::$_27>, bool (CodeBlock*)>::destroy()
PUBLIC 8905c 0 std::__ndk1::__function::__func<CodeBlock::$_27, std::__ndk1::allocator<CodeBlock::$_27>, bool (CodeBlock*)>::destroy_deallocate()
PUBLIC 89060 0 std::__ndk1::__function::__func<CodeBlock::$_27, std::__ndk1::allocator<CodeBlock::$_27>, bool (CodeBlock*)>::operator()(CodeBlock*&&)
PUBLIC 8906c 0 std::__ndk1::__function::__func<CodeBlock::$_27, std::__ndk1::allocator<CodeBlock::$_27>, bool (CodeBlock*)>::target(std::type_info const&) const
PUBLIC 89088 0 std::__ndk1::__function::__func<CodeBlock::$_27, std::__ndk1::allocator<CodeBlock::$_27>, bool (CodeBlock*)>::target_type() const
PUBLIC 89094 0 std::__ndk1::__exception_guard_exceptions<std::__ndk1::vector<std::__ndk1::pair<SideBarCell::SideBarCategory, std::__ndk1::vector<SideBarCell::SideBarAction, std::__ndk1::allocator<SideBarCell::SideBarAction> > >, std::__ndk1::allocator<std::__ndk1::pair<SideBarCell::SideBarCategory, std::__ndk1::vector<SideBarCell::SideBarAction, std::__ndk1::allocator<SideBarCell::SideBarAction> > > > >::__destroy_vector>::~__exception_guard_exceptions[abi:ne180000]()
PUBLIC 890d8 0 std::__ndk1::vector<std::__ndk1::pair<SideBarCell::SideBarCategory, std::__ndk1::vector<SideBarCell::SideBarAction, std::__ndk1::allocator<SideBarCell::SideBarAction> > >, std::__ndk1::allocator<std::__ndk1::pair<SideBarCell::SideBarCategory, std::__ndk1::vector<SideBarCell::SideBarAction, std::__ndk1::allocator<SideBarCell::SideBarAction> > > > >::__throw_length_error[abi:ne180000]() const
PUBLIC 890ec 0 std::__ndk1::__exception_guard_exceptions<std::__ndk1::_AllocatorDestroyRangeReverse<std::__ndk1::allocator<std::__ndk1::pair<SideBarCell::SideBarCategory, std::__ndk1::vector<SideBarCell::SideBarAction, std::__ndk1::allocator<SideBarCell::SideBarAction> > > >, std::__ndk1::pair<SideBarCell::SideBarCategory, std::__ndk1::vector<SideBarCell::SideBarAction, std::__ndk1::allocator<SideBarCell::SideBarAction> > >*> >::~__exception_guard_exceptions[abi:ne180000]()
PUBLIC 89124 0 std::__ndk1::pair<SideBarCell::SideBarCategory, std::__ndk1::vector<SideBarCell::SideBarAction, std::__ndk1::allocator<SideBarCell::SideBarAction> > >::pair[abi:ne180000](std::__ndk1::pair<SideBarCell::SideBarCategory, std::__ndk1::vector<SideBarCell::SideBarAction, std::__ndk1::allocator<SideBarCell::SideBarAction> > > const&)
PUBLIC 89200 0 std::__ndk1::__allocator_destroy[abi:ne180000]<std::__ndk1::allocator<std::__ndk1::pair<SideBarCell::SideBarCategory, std::__ndk1::vector<std::__ndk1::pair::SideBarAction, std::__ndk1::__allocator_destroy[abi:ne180000]<std::__ndk1::vector> > > >, std::__ndk1::reverse_iterator<std::__ndk1::vector<std::__ndk1::pair::SideBarAction, std::__ndk1::__allocator_destroy[abi:ne180000]<std::__ndk1::vector> >*>, std::__ndk1::vector<std::__ndk1::pair::SideBarAction, std::__ndk1::__allocator_destroy[abi:ne180000]<std::__ndk1::vector> >*>(std::__ndk1::allocator<std::__ndk1::pair<SideBarCell::SideBarCategory, std::__ndk1::vector<std::__ndk1::pair::SideBarAction, std::__ndk1::__allocator_destroy[abi:ne180000]<std::__ndk1::vector> > > >&, std::__ndk1::reverse_iterator<std::__ndk1::vector<std::__ndk1::pair::SideBarAction, std::__ndk1::__allocator_destroy[abi:ne180000]<std::__ndk1::vector> >*>, std::__ndk1::vector<std::__ndk1::pair::SideBarAction, std::__ndk1::__allocator_destroy[abi:ne180000]<std::__ndk1::vector> >*)
PUBLIC 893d8 0 std::__ndk1::__function::__func<CodeBlock::setup()::$_0, std::__ndk1::allocator<CodeBlock::setup()::$_0>, void ()>::~__func()
PUBLIC 893dc 0 std::__ndk1::__function::__func<CodeBlock::setup()::$_0, std::__ndk1::allocator<CodeBlock::setup()::$_0>, void ()>::__clone() const
PUBLIC 89410 0 std::__ndk1::__function::__func<CodeBlock::setup()::$_0, std::__ndk1::allocator<CodeBlock::setup()::$_0>, void ()>::__clone(std::__ndk1::__function::__base<void ()>*) const
PUBLIC 89424 0 std::__ndk1::__function::__func<CodeBlock::setup()::$_0, std::__ndk1::allocator<CodeBlock::setup()::$_0>, void ()>::destroy()
PUBLIC 89428 0 std::__ndk1::__function::__func<CodeBlock::setup()::$_0, std::__ndk1::allocator<CodeBlock::setup()::$_0>, void ()>::destroy_deallocate()
PUBLIC 8942c 0 std::__ndk1::__function::__func<CodeBlock::setup()::$_0, std::__ndk1::allocator<CodeBlock::setup()::$_0>, void ()>::operator()()
PUBLIC 89430 0 std::__ndk1::__function::__func<CodeBlock::setup()::$_0, std::__ndk1::allocator<CodeBlock::setup()::$_0>, void ()>::target(std::type_info const&) const
PUBLIC 8944c 0 std::__ndk1::__function::__func<CodeBlock::setup()::$_0, std::__ndk1::allocator<CodeBlock::setup()::$_0>, void ()>::target_type() const
PUBLIC 89458 0 std::__ndk1::__function::__func<CodeBlock::setup()::$_1, std::__ndk1::allocator<CodeBlock::setup()::$_1>, void ()>::~__func()
PUBLIC 8945c 0 std::__ndk1::__function::__func<CodeBlock::setup()::$_1, std::__ndk1::allocator<CodeBlock::setup()::$_1>, void ()>::__clone() const
PUBLIC 89490 0 std::__ndk1::__function::__func<CodeBlock::setup()::$_1, std::__ndk1::allocator<CodeBlock::setup()::$_1>, void ()>::__clone(std::__ndk1::__function::__base<void ()>*) const
PUBLIC 894a4 0 std::__ndk1::__function::__func<CodeBlock::setup()::$_1, std::__ndk1::allocator<CodeBlock::setup()::$_1>, void ()>::destroy()
PUBLIC 894a8 0 std::__ndk1::__function::__func<CodeBlock::setup()::$_1, std::__ndk1::allocator<CodeBlock::setup()::$_1>, void ()>::destroy_deallocate()
PUBLIC 894ac 0 std::__ndk1::__function::__func<CodeBlock::setup()::$_1, std::__ndk1::allocator<CodeBlock::setup()::$_1>, void ()>::operator()()
PUBLIC 894b0 0 std::__ndk1::__function::__func<CodeBlock::setup()::$_1, std::__ndk1::allocator<CodeBlock::setup()::$_1>, void ()>::target(std::type_info const&) const
PUBLIC 894cc 0 std::__ndk1::__function::__func<CodeBlock::setup()::$_1, std::__ndk1::allocator<CodeBlock::setup()::$_1>, void ()>::target_type() const
PUBLIC 894d8 0 std::__ndk1::__function::__func<CodeBlock::setup()::$_2, std::__ndk1::allocator<CodeBlock::setup()::$_2>, void ()>::~__func()
PUBLIC 894dc 0 std::__ndk1::__function::__func<CodeBlock::setup()::$_2, std::__ndk1::allocator<CodeBlock::setup()::$_2>, void ()>::__clone() const
PUBLIC 89510 0 std::__ndk1::__function::__func<CodeBlock::setup()::$_2, std::__ndk1::allocator<CodeBlock::setup()::$_2>, void ()>::__clone(std::__ndk1::__function::__base<void ()>*) const
PUBLIC 89524 0 std::__ndk1::__function::__func<CodeBlock::setup()::$_2, std::__ndk1::allocator<CodeBlock::setup()::$_2>, void ()>::destroy()
PUBLIC 89528 0 std::__ndk1::__function::__func<CodeBlock::setup()::$_2, std::__ndk1::allocator<CodeBlock::setup()::$_2>, void ()>::destroy_deallocate()
PUBLIC 8952c 0 std::__ndk1::__function::__func<CodeBlock::setup()::$_2, std::__ndk1::allocator<CodeBlock::setup()::$_2>, void ()>::operator()()
PUBLIC 89534 0 std::__ndk1::__function::__func<CodeBlock::setup()::$_2, std::__ndk1::allocator<CodeBlock::setup()::$_2>, void ()>::target(std::type_info const&) const
PUBLIC 89550 0 std::__ndk1::__function::__func<CodeBlock::setup()::$_2, std::__ndk1::allocator<CodeBlock::setup()::$_2>, void ()>::target_type() const
PUBLIC 8955c 0 std::__ndk1::__function::__func<CodeBlock::setup()::$_3, std::__ndk1::allocator<CodeBlock::setup()::$_3>, void ()>::~__func()
PUBLIC 89560 0 std::__ndk1::__function::__func<CodeBlock::setup()::$_3, std::__ndk1::allocator<CodeBlock::setup()::$_3>, void ()>::__clone() const
PUBLIC 89594 0 std::__ndk1::__function::__func<CodeBlock::setup()::$_3, std::__ndk1::allocator<CodeBlock::setup()::$_3>, void ()>::__clone(std::__ndk1::__function::__base<void ()>*) const
PUBLIC 895a8 0 std::__ndk1::__function::__func<CodeBlock::setup()::$_3, std::__ndk1::allocator<CodeBlock::setup()::$_3>, void ()>::destroy()
PUBLIC 895ac 0 std::__ndk1::__function::__func<CodeBlock::setup()::$_3, std::__ndk1::allocator<CodeBlock::setup()::$_3>, void ()>::destroy_deallocate()
PUBLIC 895b0 0 std::__ndk1::__function::__func<CodeBlock::setup()::$_3, std::__ndk1::allocator<CodeBlock::setup()::$_3>, void ()>::operator()()
PUBLIC 89680 0 std::__ndk1::__function::__func<CodeBlock::setup()::$_3, std::__ndk1::allocator<CodeBlock::setup()::$_3>, void ()>::target(std::type_info const&) const
PUBLIC 8969c 0 std::__ndk1::__function::__func<CodeBlock::setup()::$_3, std::__ndk1::allocator<CodeBlock::setup()::$_3>, void ()>::target_type() const
PUBLIC 896a8 0 std::__ndk1::__function::__func<CodeBlock::setup()::$_4, std::__ndk1::allocator<CodeBlock::setup()::$_4>, void ()>::~__func()
PUBLIC 896ac 0 std::__ndk1::__function::__func<CodeBlock::setup()::$_4, std::__ndk1::allocator<CodeBlock::setup()::$_4>, void ()>::__clone() const
PUBLIC 896e0 0 std::__ndk1::__function::__func<CodeBlock::setup()::$_4, std::__ndk1::allocator<CodeBlock::setup()::$_4>, void ()>::__clone(std::__ndk1::__function::__base<void ()>*) const
PUBLIC 896f4 0 std::__ndk1::__function::__func<CodeBlock::setup()::$_4, std::__ndk1::allocator<CodeBlock::setup()::$_4>, void ()>::destroy()
PUBLIC 896f8 0 std::__ndk1::__function::__func<CodeBlock::setup()::$_4, std::__ndk1::allocator<CodeBlock::setup()::$_4>, void ()>::destroy_deallocate()
PUBLIC 896fc 0 std::__ndk1::__function::__func<CodeBlock::setup()::$_4, std::__ndk1::allocator<CodeBlock::setup()::$_4>, void ()>::operator()()
PUBLIC 89704 0 std::__ndk1::__function::__func<CodeBlock::setup()::$_4, std::__ndk1::allocator<CodeBlock::setup()::$_4>, void ()>::target(std::type_info const&) const
PUBLIC 89720 0 std::__ndk1::__function::__func<CodeBlock::setup()::$_4, std::__ndk1::allocator<CodeBlock::setup()::$_4>, void ()>::target_type() const
PUBLIC 8972c 0 std::__ndk1::__function::__func<CodeBlock::setup()::$_5, std::__ndk1::allocator<CodeBlock::setup()::$_5>, void ()>::~__func()
PUBLIC 89730 0 std::__ndk1::__function::__func<CodeBlock::setup()::$_5, std::__ndk1::allocator<CodeBlock::setup()::$_5>, void ()>::__clone() const
PUBLIC 89764 0 std::__ndk1::__function::__func<CodeBlock::setup()::$_5, std::__ndk1::allocator<CodeBlock::setup()::$_5>, void ()>::__clone(std::__ndk1::__function::__base<void ()>*) const
PUBLIC 89778 0 std::__ndk1::__function::__func<CodeBlock::setup()::$_5, std::__ndk1::allocator<CodeBlock::setup()::$_5>, void ()>::destroy()
PUBLIC 8977c 0 std::__ndk1::__function::__func<CodeBlock::setup()::$_5, std::__ndk1::allocator<CodeBlock::setup()::$_5>, void ()>::destroy_deallocate()
PUBLIC 89780 0 std::__ndk1::__function::__func<CodeBlock::setup()::$_5, std::__ndk1::allocator<CodeBlock::setup()::$_5>, void ()>::operator()()
PUBLIC 898a8 0 std::__ndk1::__function::__func<CodeBlock::setup()::$_5, std::__ndk1::allocator<CodeBlock::setup()::$_5>, void ()>::target(std::type_info const&) const
PUBLIC 898c4 0 std::__ndk1::__function::__func<CodeBlock::setup()::$_5, std::__ndk1::allocator<CodeBlock::setup()::$_5>, void ()>::target_type() const
PUBLIC 898d0 0 std::__ndk1::shared_ptr<geode::BoolSettingV3>::~shared_ptr[abi:ne180000]()
PUBLIC 89920 0 std::__ndk1::__function::__func<CodeBlock::setup()::$_6, std::__ndk1::allocator<CodeBlock::setup()::$_6>, void ()>::~__func()
PUBLIC 89924 0 std::__ndk1::__function::__func<CodeBlock::setup()::$_6, std::__ndk1::allocator<CodeBlock::setup()::$_6>, void ()>::__clone() const
PUBLIC 89958 0 std::__ndk1::__function::__func<CodeBlock::setup()::$_6, std::__ndk1::allocator<CodeBlock::setup()::$_6>, void ()>::__clone(std::__ndk1::__function::__base<void ()>*) const
PUBLIC 8996c 0 std::__ndk1::__function::__func<CodeBlock::setup()::$_6, std::__ndk1::allocator<CodeBlock::setup()::$_6>, void ()>::destroy()
PUBLIC 89970 0 std::__ndk1::__function::__func<CodeBlock::setup()::$_6, std::__ndk1::allocator<CodeBlock::setup()::$_6>, void ()>::destroy_deallocate()
PUBLIC 89974 0 std::__ndk1::__function::__func<CodeBlock::setup()::$_6, std::__ndk1::allocator<CodeBlock::setup()::$_6>, void ()>::operator()()
PUBLIC 89bf0 0 std::__ndk1::__function::__func<CodeBlock::setup()::$_6, std::__ndk1::allocator<CodeBlock::setup()::$_6>, void ()>::target(std::type_info const&) const
PUBLIC 89c0c 0 std::__ndk1::__function::__func<CodeBlock::setup()::$_6, std::__ndk1::allocator<CodeBlock::setup()::$_6>, void ()>::target_type() const
PUBLIC 89c18 0 std::__ndk1::__function::__func<CodeBlock::setup()::$_6::operator()() const::{lambda()#1}, std::__ndk1::allocator<CodeBlock::setup()::$_6::operator()() const::{lambda()#1}>, bool ()>::~__func()
PUBLIC 89c1c 0 std::__ndk1::__function::__func<CodeBlock::setup()::$_6::operator()() const::{lambda()#1}, std::__ndk1::allocator<CodeBlock::setup()::$_6::operator()() const::{lambda()#1}>, bool ()>::__clone() const
PUBLIC 89c50 0 std::__ndk1::__function::__func<CodeBlock::setup()::$_6::operator()() const::{lambda()#1}, std::__ndk1::allocator<CodeBlock::setup()::$_6::operator()() const::{lambda()#1}>, bool ()>::__clone(std::__ndk1::__function::__base<bool ()>*) const
PUBLIC 89c64 0 std::__ndk1::__function::__func<CodeBlock::setup()::$_6::operator()() const::{lambda()#1}, std::__ndk1::allocator<CodeBlock::setup()::$_6::operator()() const::{lambda()#1}>, bool ()>::destroy()
PUBLIC 89c68 0 std::__ndk1::__function::__func<CodeBlock::setup()::$_6::operator()() const::{lambda()#1}, std::__ndk1::allocator<CodeBlock::setup()::$_6::operator()() const::{lambda()#1}>, bool ()>::destroy_deallocate()
PUBLIC 89c6c 0 std::__ndk1::__function::__func<CodeBlock::setup()::$_6::operator()() const::{lambda()#1}, std::__ndk1::allocator<CodeBlock::setup()::$_6::operator()() const::{lambda()#1}>, bool ()>::operator()()
PUBLIC 89ccc 0 std::__ndk1::__function::__func<CodeBlock::setup()::$_6::operator()() const::{lambda()#1}, std::__ndk1::allocator<CodeBlock::setup()::$_6::operator()() const::{lambda()#1}>, bool ()>::target(std::type_info const&) const
PUBLIC 89ce8 0 std::__ndk1::__function::__func<CodeBlock::setup()::$_6::operator()() const::{lambda()#1}, std::__ndk1::allocator<CodeBlock::setup()::$_6::operator()() const::{lambda()#1}>, bool ()>::target_type() const
PUBLIC 89cf4 0 geode::Mod::setSettingValue<bool>(std::__ndk1::basic_string_view<char, std::__ndk1::char_traits<char> >, bool const&)
PUBLIC 89ec8 0 std::__ndk1::__function::__base<bool ()>::~__base()
PUBLIC 89ecc 0 std::__ndk1::__function::__func<CodeBlock::setup()::$_6::operator()() const::{lambda()#2}, std::__ndk1::allocator<CodeBlock::setup()::$_6::operator()() const::{lambda()#2}>, bool ()>::~__func()
PUBLIC 89ed0 0 std::__ndk1::__function::__func<CodeBlock::setup()::$_6::operator()() const::{lambda()#2}, std::__ndk1::allocator<CodeBlock::setup()::$_6::operator()() const::{lambda()#2}>, bool ()>::__clone() const
PUBLIC 89f04 0 std::__ndk1::__function::__func<CodeBlock::setup()::$_6::operator()() const::{lambda()#2}, std::__ndk1::allocator<CodeBlock::setup()::$_6::operator()() const::{lambda()#2}>, bool ()>::__clone(std::__ndk1::__function::__base<bool ()>*) const
PUBLIC 89f18 0 std::__ndk1::__function::__func<CodeBlock::setup()::$_6::operator()() const::{lambda()#2}, std::__ndk1::allocator<CodeBlock::setup()::$_6::operator()() const::{lambda()#2}>, bool ()>::destroy()
PUBLIC 89f1c 0 std::__ndk1::__function::__func<CodeBlock::setup()::$_6::operator()() const::{lambda()#2}, std::__ndk1::allocator<CodeBlock::setup()::$_6::operator()() const::{lambda()#2}>, bool ()>::destroy_deallocate()
PUBLIC 89f20 0 std::__ndk1::__function::__func<CodeBlock::setup()::$_6::operator()() const::{lambda()#2}, std::__ndk1::allocator<CodeBlock::setup()::$_6::operator()() const::{lambda()#2}>, bool ()>::operator()()
PUBLIC 89f84 0 std::__ndk1::__function::__func<CodeBlock::setup()::$_6::operator()() const::{lambda()#2}, std::__ndk1::allocator<CodeBlock::setup()::$_6::operator()() const::{lambda()#2}>, bool ()>::target(std::type_info const&) const
PUBLIC 89fa0 0 std::__ndk1::__function::__func<CodeBlock::setup()::$_6::operator()() const::{lambda()#2}, std::__ndk1::allocator<CodeBlock::setup()::$_6::operator()() const::{lambda()#2}>, bool ()>::target_type() const
PUBLIC 89fac 0 std::__ndk1::__function::__func<CodeBlock::setup()::$_7, std::__ndk1::allocator<CodeBlock::setup()::$_7>, void ()>::~__func()
PUBLIC 89fb0 0 std::__ndk1::__function::__func<CodeBlock::setup()::$_7, std::__ndk1::allocator<CodeBlock::setup()::$_7>, void ()>::__clone() const
PUBLIC 89fe4 0 std::__ndk1::__function::__func<CodeBlock::setup()::$_7, std::__ndk1::allocator<CodeBlock::setup()::$_7>, void ()>::__clone(std::__ndk1::__function::__base<void ()>*) const
PUBLIC 89ff8 0 std::__ndk1::__function::__func<CodeBlock::setup()::$_7, std::__ndk1::allocator<CodeBlock::setup()::$_7>, void ()>::destroy()
PUBLIC 89ffc 0 std::__ndk1::__function::__func<CodeBlock::setup()::$_7, std::__ndk1::allocator<CodeBlock::setup()::$_7>, void ()>::destroy_deallocate()
PUBLIC 8a000 0 std::__ndk1::__function::__func<CodeBlock::setup()::$_7, std::__ndk1::allocator<CodeBlock::setup()::$_7>, void ()>::operator()()
PUBLIC 8a1e0 0 std::__ndk1::__function::__func<CodeBlock::setup()::$_7, std::__ndk1::allocator<CodeBlock::setup()::$_7>, void ()>::target(std::type_info const&) const
PUBLIC 8a1fc 0 std::__ndk1::__function::__func<CodeBlock::setup()::$_7, std::__ndk1::allocator<CodeBlock::setup()::$_7>, void ()>::target_type() const
PUBLIC 8a208 0 std::__ndk1::__function::__func<CodeBlock::setup()::$_8, std::__ndk1::allocator<CodeBlock::setup()::$_8>, void ()>::~__func()
PUBLIC 8a20c 0 std::__ndk1::__function::__func<CodeBlock::setup()::$_8, std::__ndk1::allocator<CodeBlock::setup()::$_8>, void ()>::__clone() const
PUBLIC 8a240 0 std::__ndk1::__function::__func<CodeBlock::setup()::$_8, std::__ndk1::allocator<CodeBlock::setup()::$_8>, void ()>::__clone(std::__ndk1::__function::__base<void ()>*) const
PUBLIC 8a254 0 std::__ndk1::__function::__func<CodeBlock::setup()::$_8, std::__ndk1::allocator<CodeBlock::setup()::$_8>, void ()>::destroy()
PUBLIC 8a258 0 std::__ndk1::__function::__func<CodeBlock::setup()::$_8, std::__ndk1::allocator<CodeBlock::setup()::$_8>, void ()>::destroy_deallocate()
PUBLIC 8a25c 0 std::__ndk1::__function::__func<CodeBlock::setup()::$_8, std::__ndk1::allocator<CodeBlock::setup()::$_8>, void ()>::operator()()
PUBLIC 8a438 0 std::__ndk1::__function::__func<CodeBlock::setup()::$_8, std::__ndk1::allocator<CodeBlock::setup()::$_8>, void ()>::target(std::type_info const&) const
PUBLIC 8a454 0 std::__ndk1::__function::__func<CodeBlock::setup()::$_8, std::__ndk1::allocator<CodeBlock::setup()::$_8>, void ()>::target_type() const
PUBLIC 8a460 0 std::__ndk1::__function::__func<CodeBlock::setup()::$_9, std::__ndk1::allocator<CodeBlock::setup()::$_9>, void ()>::~__func()
PUBLIC 8a464 0 std::__ndk1::__function::__func<CodeBlock::setup()::$_9, std::__ndk1::allocator<CodeBlock::setup()::$_9>, void ()>::__clone() const
PUBLIC 8a498 0 std::__ndk1::__function::__func<CodeBlock::setup()::$_9, std::__ndk1::allocator<CodeBlock::setup()::$_9>, void ()>::__clone(std::__ndk1::__function::__base<void ()>*) const
PUBLIC 8a4ac 0 std::__ndk1::__function::__func<CodeBlock::setup()::$_9, std::__ndk1::allocator<CodeBlock::setup()::$_9>, void ()>::destroy()
PUBLIC 8a4b0 0 std::__ndk1::__function::__func<CodeBlock::setup()::$_9, std::__ndk1::allocator<CodeBlock::setup()::$_9>, void ()>::destroy_deallocate()
PUBLIC 8a4b4 0 std::__ndk1::__function::__func<CodeBlock::setup()::$_9, std::__ndk1::allocator<CodeBlock::setup()::$_9>, void ()>::operator()()
PUBLIC 8a5a8 0 std::__ndk1::__function::__func<CodeBlock::setup()::$_9, std::__ndk1::allocator<CodeBlock::setup()::$_9>, void ()>::target(std::type_info const&) const
PUBLIC 8a5c4 0 std::__ndk1::__function::__func<CodeBlock::setup()::$_9, std::__ndk1::allocator<CodeBlock::setup()::$_9>, void ()>::target_type() const
PUBLIC 8a5d0 0 std::__ndk1::__function::__func<CodeBlock::setup()::$_10, std::__ndk1::allocator<CodeBlock::setup()::$_10>, void ()>::~__func()
PUBLIC 8a5d4 0 std::__ndk1::__function::__func<CodeBlock::setup()::$_10, std::__ndk1::allocator<CodeBlock::setup()::$_10>, void ()>::__clone() const
PUBLIC 8a608 0 std::__ndk1::__function::__func<CodeBlock::setup()::$_10, std::__ndk1::allocator<CodeBlock::setup()::$_10>, void ()>::__clone(std::__ndk1::__function::__base<void ()>*) const
PUBLIC 8a61c 0 std::__ndk1::__function::__func<CodeBlock::setup()::$_10, std::__ndk1::allocator<CodeBlock::setup()::$_10>, void ()>::destroy()
PUBLIC 8a620 0 std::__ndk1::__function::__func<CodeBlock::setup()::$_10, std::__ndk1::allocator<CodeBlock::setup()::$_10>, void ()>::destroy_deallocate()
PUBLIC 8a624 0 std::__ndk1::__function::__func<CodeBlock::setup()::$_10, std::__ndk1::allocator<CodeBlock::setup()::$_10>, void ()>::operator()()
PUBLIC 8a714 0 std::__ndk1::__function::__func<CodeBlock::setup()::$_10, std::__ndk1::allocator<CodeBlock::setup()::$_10>, void ()>::target(std::type_info const&) const
PUBLIC 8a730 0 std::__ndk1::__function::__func<CodeBlock::setup()::$_10, std::__ndk1::allocator<CodeBlock::setup()::$_10>, void ()>::target_type() const
PUBLIC 8a73c 0 std::__ndk1::__function::__func<CodeBlock::setup()::$_11, std::__ndk1::allocator<CodeBlock::setup()::$_11>, void ()>::~__func()
PUBLIC 8a740 0 std::__ndk1::__function::__func<CodeBlock::setup()::$_11, std::__ndk1::allocator<CodeBlock::setup()::$_11>, void ()>::__clone() const
PUBLIC 8a774 0 std::__ndk1::__function::__func<CodeBlock::setup()::$_11, std::__ndk1::allocator<CodeBlock::setup()::$_11>, void ()>::__clone(std::__ndk1::__function::__base<void ()>*) const
PUBLIC 8a788 0 std::__ndk1::__function::__func<CodeBlock::setup()::$_11, std::__ndk1::allocator<CodeBlock::setup()::$_11>, void ()>::destroy()
PUBLIC 8a78c 0 std::__ndk1::__function::__func<CodeBlock::setup()::$_11, std::__ndk1::allocator<CodeBlock::setup()::$_11>, void ()>::destroy_deallocate()
PUBLIC 8a790 0 std::__ndk1::__function::__func<CodeBlock::setup()::$_11, std::__ndk1::allocator<CodeBlock::setup()::$_11>, void ()>::operator()()
PUBLIC 8a9c0 0 std::__ndk1::__function::__func<CodeBlock::setup()::$_11, std::__ndk1::allocator<CodeBlock::setup()::$_11>, void ()>::target(std::type_info const&) const
PUBLIC 8a9dc 0 std::__ndk1::__function::__func<CodeBlock::setup()::$_11, std::__ndk1::allocator<CodeBlock::setup()::$_11>, void ()>::target_type() const
PUBLIC 8a9e8 0 std::__ndk1::__function::__func<CodeBlock::setup()::$_12, std::__ndk1::allocator<CodeBlock::setup()::$_12>, void ()>::~__func()
PUBLIC 8a9ec 0 std::__ndk1::__function::__func<CodeBlock::setup()::$_12, std::__ndk1::allocator<CodeBlock::setup()::$_12>, void ()>::__clone() const
PUBLIC 8aa20 0 std::__ndk1::__function::__func<CodeBlock::setup()::$_12, std::__ndk1::allocator<CodeBlock::setup()::$_12>, void ()>::__clone(std::__ndk1::__function::__base<void ()>*) const
PUBLIC 8aa34 0 std::__ndk1::__function::__func<CodeBlock::setup()::$_12, std::__ndk1::allocator<CodeBlock::setup()::$_12>, void ()>::destroy()
PUBLIC 8aa38 0 std::__ndk1::__function::__func<CodeBlock::setup()::$_12, std::__ndk1::allocator<CodeBlock::setup()::$_12>, void ()>::destroy_deallocate()
PUBLIC 8aa3c 0 std::__ndk1::__function::__func<CodeBlock::setup()::$_12, std::__ndk1::allocator<CodeBlock::setup()::$_12>, void ()>::operator()()
PUBLIC 8ac70 0 std::__ndk1::__function::__func<CodeBlock::setup()::$_12, std::__ndk1::allocator<CodeBlock::setup()::$_12>, void ()>::target(std::type_info const&) const
PUBLIC 8ac8c 0 std::__ndk1::__function::__func<CodeBlock::setup()::$_12, std::__ndk1::allocator<CodeBlock::setup()::$_12>, void ()>::target_type() const
PUBLIC 8ac98 0 geode::impl::ResultData<matjson::Value&, std::__ndk1::basic_string<char, std::__ndk1::char_traits<char>, std::__ndk1::allocator<char> > >::~ResultData()
PUBLIC 8ad0c 0 geode::impl::ResultData<std::__ndk1::__fs::filesystem::path, std::__ndk1::basic_string<char, std::__ndk1::char_traits<char>, std::__ndk1::allocator<char> > >::~ResultData()
PUBLIC 8ad80 0 _ZN7matjson5ValueC2ITkNS_12CanSerializeERKNSt6__ndk14__fs10filesystem4pathEEEOT_
PUBLIC 8ae4c 0 matjson::Serialize<std::__ndk1::__fs::filesystem::path>::fromJson(matjson::Value const&)
PUBLIC 8b0e0 0 geode::impl::ResultData<std::__ndk1::basic_string<char, std::__ndk1::char_traits<char>, std::__ndk1::allocator<char> >, std::__ndk1::basic_string<char, std::__ndk1::char_traits<char>, std::__ndk1::allocator<char> > >::~ResultData()
PUBLIC 8b154 0 _ZNSt6__ndk112basic_stringIcNS_11char_traitsIcEENS_9allocatorIcEEE6appendB8ne180000IPKcTnNS_9enable_ifIXsr31__has_forward_iterator_categoryIT_EE5valueEiE4typeELi0EEERS5_SA_SA_
PUBLIC 8b458 0 std::__ndk1::__variant_detail::__visitation::__base::__dispatcher<(unsigned long)0>::__dispatch[abi:ne180000]<std::__ndk1::__variant_detail::__dtor<std::__ndk1::__variant_detail::__traits<std::__ndk1::basic_string<char, std::__ndk1::char_traits<char>, std::__ndk1::allocator<char> >, std::__ndk1::allocator<char> >, (std::__ndk1::__variant_detail::_Trait)1>::__destroy[abi:ne180000]()::{lambda(auto:1&)#1}, std::__ndk1::__variant_detail::__base<(std::__ndk1::__variant_detail::__traits<std::__ndk1::basic_string<char, std::__ndk1::char_traits<char>, std::__ndk1::allocator<char> >, std::__ndk1::allocator<char> >)1, std::__ndk1::allocator<char>, std::__ndk1::allocator<char> >&>(std::__ndk1::__variant_detail::__dtor<std::__ndk1::__variant_detail::__traits<std::__ndk1::basic_string<char, std::__ndk1::char_traits<char>, std::__ndk1::allocator<char> >, std::__ndk1::allocator<char> >, (std::__ndk1::__variant_detail::_Trait)1>, std::__ndk1::__variant_detail::__base<(std::__ndk1::__variant_detail::__traits<std::__ndk1::basic_string<char, std::__ndk1::char_traits<char>, std::__ndk1::allocator<char> >, std::__ndk1::allocator<char> >)1, std::__ndk1::allocator<char>, std::__ndk1::allocator<char> >&)
PUBLIC 8b46c 0 std::__ndk1::__variant_detail::__visitation::__base::__dispatcher<(unsigned long)1>::__dispatch[abi:ne180000]<std::__ndk1::__variant_detail::__dtor<std::__ndk1::__variant_detail::__traits<std::__ndk1::basic_string<char, std::__ndk1::char_traits<char>, std::__ndk1::allocator<char> >, std::__ndk1::allocator<char> >, (std::__ndk1::__variant_detail::_Trait)1>::__destroy[abi:ne180000]()::{lambda(auto:1&)#1}, std::__ndk1::__variant_detail::__base<(std::__ndk1::__variant_detail::__traits<std::__ndk1::basic_string<char, std::__ndk1::char_traits<char>, std::__ndk1::allocator<char> >, std::__ndk1::allocator<char> >)1, std::__ndk1::allocator<char>, std::__ndk1::allocator<char> >&>(std::__ndk1::__variant_detail::__dtor<std::__ndk1::__variant_detail::__traits<std::__ndk1::basic_string<char, std::__ndk1::char_traits<char>, std::__ndk1::allocator<char> >, std::__ndk1::allocator<char> >, (std::__ndk1::__variant_detail::_Trait)1>, std::__ndk1::__variant_detail::__base<(std::__ndk1::__variant_detail::__traits<std::__ndk1::basic_string<char, std::__ndk1::char_traits<char>, std::__ndk1::allocator<char> >, std::__ndk1::allocator<char> >)1, std::__ndk1::allocator<char>, std::__ndk1::allocator<char> >&)
PUBLIC 8b480 0 std::__ndk1::__variant_detail::__visitation::__base::__dispatcher<(unsigned long)0>::__dispatch[abi:ne180000]<std::__ndk1::__variant_detail::__dtor<std::__ndk1::__variant_detail::__traits<std::__ndk1::reference_wrapper<matjson::Value>, std::__ndk1::basic_string<char, std::__ndk1::char_traits<char>, std::__ndk1::allocator<char> > >, (std::__ndk1::__variant_detail::_Trait)1>::__destroy[abi:ne180000]()::{lambda(auto:1&)#1}, std::__ndk1::__variant_detail::__base<(std::__ndk1::__variant_detail::__traits<std::__ndk1::reference_wrapper<matjson::Value>, std::__ndk1::basic_string<char, std::__ndk1::char_traits<char>, std::__ndk1::allocator<char> > >)1, matjson::Value, std::__ndk1::allocator<char> >&>(std::__ndk1::__variant_detail::__dtor<std::__ndk1::__variant_detail::__traits<std::__ndk1::reference_wrapper<matjson::Value>, std::__ndk1::basic_string<char, std::__ndk1::char_traits<char>, std::__ndk1::allocator<char> > >, (std::__ndk1::__variant_detail::_Trait)1>, std::__ndk1::__variant_detail::__base<(std::__ndk1::__variant_detail::__traits<std::__ndk1::reference_wrapper<matjson::Value>, std::__ndk1::basic_string<char, std::__ndk1::char_traits<char>, std::__ndk1::allocator<char> > >)1, matjson::Value, std::__ndk1::allocator<char> >&)
PUBLIC 8b484 0 std::__ndk1::__variant_detail::__visitation::__base::__dispatcher<(unsigned long)1>::__dispatch[abi:ne180000]<std::__ndk1::__variant_detail::__dtor<std::__ndk1::__variant_detail::__traits<std::__ndk1::reference_wrapper<matjson::Value>, std::__ndk1::basic_string<char, std::__ndk1::char_traits<char>, std::__ndk1::allocator<char> > >, (std::__ndk1::__variant_detail::_Trait)1>::__destroy[abi:ne180000]()::{lambda(auto:1&)#1}, std::__ndk1::__variant_detail::__base<(std::__ndk1::__variant_detail::__traits<std::__ndk1::reference_wrapper<matjson::Value>, std::__ndk1::basic_string<char, std::__ndk1::char_traits<char>, std::__ndk1::allocator<char> > >)1, matjson::Value, std::__ndk1::allocator<char> >&>(std::__ndk1::__variant_detail::__dtor<std::__ndk1::__variant_detail::__traits<std::__ndk1::reference_wrapper<matjson::Value>, std::__ndk1::basic_string<char, std::__ndk1::char_traits<char>, std::__ndk1::allocator<char> > >, (std::__ndk1::__variant_detail::_Trait)1>, std::__ndk1::__variant_detail::__base<(std::__ndk1::__variant_detail::__traits<std::__ndk1::reference_wrapper<matjson::Value>, std::__ndk1::basic_string<char, std::__ndk1::char_traits<char>, std::__ndk1::allocator<char> > >)1, matjson::Value, std::__ndk1::allocator<char> >&)
PUBLIC 8b498 0 std::__ndk1::__variant_detail::__visitation::__base::__dispatcher<(unsigned long)0>::__dispatch[abi:ne180000]<std::__ndk1::__variant_detail::__dtor<std::__ndk1::__variant_detail::__traits<std::__ndk1::__fs::filesystem::path, std::__ndk1::basic_string<char, std::__ndk1::char_traits<char>, std::__ndk1::allocator<char> > >, (std::__ndk1::__variant_detail::_Trait)1>::__destroy[abi:ne180000]()::{lambda(auto:1&)#1}, std::__ndk1::__variant_detail::__base<(std::__ndk1::__variant_detail::__traits<std::__ndk1::__fs::filesystem::path, std::__ndk1::basic_string<char, std::__ndk1::char_traits<char>, std::__ndk1::allocator<char> > >)1, std::__ndk1::__fs::filesystem, std::__ndk1::allocator<char> >&>(std::__ndk1::__variant_detail::__dtor<std::__ndk1::__variant_detail::__traits<std::__ndk1::__fs::filesystem::path, std::__ndk1::basic_string<char, std::__ndk1::char_traits<char>, std::__ndk1::allocator<char> > >, (std::__ndk1::__variant_detail::_Trait)1>, std::__ndk1::__variant_detail::__base<(std::__ndk1::__variant_detail::__traits<std::__ndk1::__fs::filesystem::path, std::__ndk1::basic_string<char, std::__ndk1::char_traits<char>, std::__ndk1::allocator<char> > >)1, std::__ndk1::__fs::filesystem, std::__ndk1::allocator<char> >&)
PUBLIC 8b4ac 0 std::__ndk1::__variant_detail::__visitation::__base::__dispatcher<(unsigned long)1>::__dispatch[abi:ne180000]<std::__ndk1::__variant_detail::__dtor<std::__ndk1::__variant_detail::__traits<std::__ndk1::__fs::filesystem::path, std::__ndk1::basic_string<char, std::__ndk1::char_traits<char>, std::__ndk1::allocator<char> > >, (std::__ndk1::__variant_detail::_Trait)1>::__destroy[abi:ne180000]()::{lambda(auto:1&)#1}, std::__ndk1::__variant_detail::__base<(std::__ndk1::__variant_detail::__traits<std::__ndk1::__fs::filesystem::path, std::__ndk1::basic_string<char, std::__ndk1::char_traits<char>, std::__ndk1::allocator<char> > >)1, std::__ndk1::__fs::filesystem, std::__ndk1::allocator<char> >&>(std::__ndk1::__variant_detail::__dtor<std::__ndk1::__variant_detail::__traits<std::__ndk1::__fs::filesystem::path, std::__ndk1::basic_string<char, std::__ndk1::char_traits<char>, std::__ndk1::allocator<char> > >, (std::__ndk1::__variant_detail::_Trait)1>, std::__ndk1::__variant_detail::__base<(std::__ndk1::__variant_detail::__traits<std::__ndk1::__fs::filesystem::path, std::__ndk1::basic_string<char, std::__ndk1::char_traits<char>, std::__ndk1::allocator<char> > >)1, std::__ndk1::__fs::filesystem, std::__ndk1::allocator<char> >&)
PUBLIC 8b4c0 0 fmt::v11::detail::value<fmt::v11::context>::format_custom_arg<tm, fmt::v11::formatter<tm, char, void> >(void*, fmt::v11::basic_format_parse_context<char>&, fmt::v11::context&)
PUBLIC 8d218 0 fmt::v11::detail::parse_dynamic_spec<char>(char const*, char const*, int&, fmt::v11::detail::arg_ref<char>&, fmt::v11::basic_format_parse_context<char>&)
PUBLIC 8d3bc 0 fmt::v11::detail::do_parse_arg_id<char, fmt::v11::detail::dynamic_spec_id_handler<char>&>(char const*, char const*, fmt::v11::detail::dynamic_spec_id_handler<char>&)
PUBLIC 8d550 0 fmt::v11::detail::tm_format_checker::unsupported()
PUBLIC 8d5a0 0 fmt::v11::detail::handle_dynamic_spec<fmt::v11::detail::width_checker, fmt::v11::context>(int&, fmt::v11::detail::arg_ref<fmt::v11::context::char_type>, fmt::v11::context&)
PUBLIC 8d6b4 0 fmt::v11::detail::write<char, fmt::v11::basic_appender<char> >(fmt::v11::basic_appender<char>, fmt::v11::basic_string_view<char>, fmt::v11::format_specs const&)
PUBLIC 8d930 0 fmt::v11::basic_memory_buffer<char, (unsigned long)500, std::__ndk1::allocator<char> >::grow(fmt::v11::detail::buffer<char>&, unsigned long)
PUBLIC 8d9a8 0 fmt::v11::detail::get_dynamic_spec<fmt::v11::detail::width_checker, fmt::v11::basic_format_arg<fmt::v11::context> >(fmt::v11::basic_format_arg<fmt::v11::context>)
PUBLIC 8da3c 0 fmt::v11::basic_format_args<fmt::v11::context>::get<char>(fmt::v11::basic_string_view<char>) const
PUBLIC 8db94 0 fmt::v11::detail::tm_writer<std::__ndk1::back_insert_iterator<fmt::v11::basic_memory_buffer<char, (unsigned long)500, std::__ndk1::allocator<char> > >, char, std::__ndk1::chrono::duration<long long, std::__ndk1::ratio<(long)1, (long)1> > >::on_year(fmt::v11::detail::numeric_system)
PUBLIC 8dcbc 0 fmt::v11::detail::tm_writer<std::__ndk1::back_insert_iterator<fmt::v11::basic_memory_buffer<char, (unsigned long)500, std::__ndk1::allocator<char> > >, char, std::__ndk1::chrono::duration<long long, std::__ndk1::ratio<(long)1, (long)1> > >::on_short_year(fmt::v11::detail::numeric_system)
PUBLIC 8de80 0 fmt::v11::detail::tm_writer<std::__ndk1::back_insert_iterator<fmt::v11::basic_memory_buffer<char, (unsigned long)500, std::__ndk1::allocator<char> > >, char, std::__ndk1::chrono::duration<long long, std::__ndk1::ratio<(long)1, (long)1> > >::on_century(fmt::v11::detail::numeric_system)
PUBLIC 8e1ec 0 fmt::v11::detail::tm_writer<std::__ndk1::back_insert_iterator<fmt::v11::basic_memory_buffer<char, (unsigned long)500, std::__ndk1::allocator<char> > >, char, std::__ndk1::chrono::duration<long long, std::__ndk1::ratio<(long)1, (long)1> > >::on_abbr_weekday()
PUBLIC 8e324 0 fmt::v11::detail::tm_writer<std::__ndk1::back_insert_iterator<fmt::v11::basic_memory_buffer<char, (unsigned long)500, std::__ndk1::allocator<char> > >, char, std::__ndk1::chrono::duration<long long, std::__ndk1::ratio<(long)1, (long)1> > >::on_dec0_weekday(fmt::v11::detail::numeric_system)
PUBLIC 8e484 0 fmt::v11::detail::tm_writer<std::__ndk1::back_insert_iterator<fmt::v11::basic_memory_buffer<char, (unsigned long)500, std::__ndk1::allocator<char> > >, char, std::__ndk1::chrono::duration<long long, std::__ndk1::ratio<(long)1, (long)1> > >::on_dec1_weekday(fmt::v11::detail::numeric_system)
PUBLIC 8e5f0 0 fmt::v11::detail::tm_writer<std::__ndk1::back_insert_iterator<fmt::v11::basic_memory_buffer<char, (unsigned long)500, std::__ndk1::allocator<char> > >, char, std::__ndk1::chrono::duration<long long, std::__ndk1::ratio<(long)1, (long)1> > >::on_abbr_month()
PUBLIC 8e728 0 fmt::v11::detail::tm_writer<std::__ndk1::back_insert_iterator<fmt::v11::basic_memory_buffer<char, (unsigned long)500, std::__ndk1::allocator<char> > >, char, std::__ndk1::chrono::duration<long long, std::__ndk1::ratio<(long)1, (long)1> > >::on_dec_month(fmt::v11::detail::numeric_system)
PUBLIC 8e8d4 0 fmt::v11::detail::tm_writer<std::__ndk1::back_insert_iterator<fmt::v11::basic_memory_buffer<char, (unsigned long)500, std::__ndk1::allocator<char> > >, char, std::__ndk1::chrono::duration<long long, std::__ndk1::ratio<(long)1, (long)1> > >::on_dec0_week_of_year(fmt::v11::detail::numeric_system, fmt::v11::detail::pad_type)
PUBLIC 8ea20 0 fmt::v11::detail::tm_writer<std::__ndk1::back_insert_iterator<fmt::v11::basic_memory_buffer<char, (unsigned long)500, std::__ndk1::allocator<char> > >, char, std::__ndk1::chrono::duration<long long, std::__ndk1::ratio<(long)1, (long)1> > >::on_dec1_week_of_year(fmt::v11::detail::numeric_system, fmt::v11::detail::pad_type)
PUBLIC 8eb80 0 fmt::v11::detail::tm_writer<std::__ndk1::back_insert_iterator<fmt::v11::basic_memory_buffer<char, (unsigned long)500, std::__ndk1::allocator<char> > >, char, std::__ndk1::chrono::duration<long long, std::__ndk1::ratio<(long)1, (long)1> > >::on_iso_week_of_year(fmt::v11::detail::numeric_system, fmt::v11::detail::pad_type)
PUBLIC 8eeb8 0 fmt::v11::detail::tm_writer<std::__ndk1::back_insert_iterator<fmt::v11::basic_memory_buffer<char, (unsigned long)500, std::__ndk1::allocator<char> > >, char, std::__ndk1::chrono::duration<long long, std::__ndk1::ratio<(long)1, (long)1> > >::on_day_of_month(fmt::v11::detail::numeric_system, fmt::v11::detail::pad_type)
PUBLIC 8efe0 0 fmt::v11::detail::tm_writer<std::__ndk1::back_insert_iterator<fmt::v11::basic_memory_buffer<char, (unsigned long)500, std::__ndk1::allocator<char> > >, char, std::__ndk1::chrono::duration<long long, std::__ndk1::ratio<(long)1, (long)1> > >::on_24_hour(fmt::v11::detail::numeric_system, fmt::v11::detail::pad_type)
PUBLIC 8f108 0 fmt::v11::detail::tm_writer<std::__ndk1::back_insert_iterator<fmt::v11::basic_memory_buffer<char, (unsigned long)500, std::__ndk1::allocator<char> > >, char, std::__ndk1::chrono::duration<long long, std::__ndk1::ratio<(long)1, (long)1> > >::on_12_hour(fmt::v11::detail::numeric_system, fmt::v11::detail::pad_type)
PUBLIC 8f244 0 fmt::v11::detail::tm_writer<std::__ndk1::back_insert_iterator<fmt::v11::basic_memory_buffer<char, (unsigned long)500, std::__ndk1::allocator<char> > >, char, std::__ndk1::chrono::duration<long long, std::__ndk1::ratio<(long)1, (long)1> > >::on_minute(fmt::v11::detail::numeric_system, fmt::v11::detail::pad_type)
PUBLIC 8f36c 0 fmt::v11::detail::tm_writer<std::__ndk1::back_insert_iterator<fmt::v11::basic_memory_buffer<char, (unsigned long)500, std::__ndk1::allocator<char> > >, char, std::__ndk1::chrono::duration<long long, std::__ndk1::ratio<(long)1, (long)1> > >::on_second(fmt::v11::detail::numeric_system, fmt::v11::detail::pad_type)
PUBLIC 8f494 0 fmt::v11::detail::tm_writer<std::__ndk1::back_insert_iterator<fmt::v11::basic_memory_buffer<char, (unsigned long)500, std::__ndk1::allocator<char> > >, char, std::__ndk1::chrono::duration<long long, std::__ndk1::ratio<(long)1, (long)1> > >::on_datetime(fmt::v11::detail::numeric_system)
PUBLIC 8f720 0 fmt::v11::detail::tm_writer<std::__ndk1::back_insert_iterator<fmt::v11::basic_memory_buffer<char, (unsigned long)500, std::__ndk1::allocator<char> > >, char, std::__ndk1::chrono::duration<long long, std::__ndk1::ratio<(long)1, (long)1> > >::on_loc_date(fmt::v11::detail::numeric_system)
PUBLIC 8f93c 0 fmt::v11::detail::tm_writer<std::__ndk1::back_insert_iterator<fmt::v11::basic_memory_buffer<char, (unsigned long)500, std::__ndk1::allocator<char> > >, char, std::__ndk1::chrono::duration<long long, std::__ndk1::ratio<(long)1, (long)1> > >::on_loc_time(fmt::v11::detail::numeric_system)
PUBLIC 8fab4 0 fmt::v11::detail::tm_writer<std::__ndk1::back_insert_iterator<fmt::v11::basic_memory_buffer<char, (unsigned long)500, std::__ndk1::allocator<char> > >, char, std::__ndk1::chrono::duration<long long, std::__ndk1::ratio<(long)1, (long)1> > >::on_24_hour_time()
PUBLIC 8fc48 0 fmt::v11::detail::tm_writer<std::__ndk1::back_insert_iterator<fmt::v11::basic_memory_buffer<char, (unsigned long)500, std::__ndk1::allocator<char> > >, char, std::__ndk1::chrono::duration<long long, std::__ndk1::ratio<(long)1, (long)1> > >::on_am_pm()
PUBLIC 8fdd4 0 fmt::v11::detail::tm_writer<std::__ndk1::back_insert_iterator<fmt::v11::basic_memory_buffer<char, (unsigned long)500, std::__ndk1::allocator<char> > >, char, std::__ndk1::chrono::duration<long long, std::__ndk1::ratio<(long)1, (long)1> > >::on_offset_year()
PUBLIC 8ff98 0 fmt::v11::detail::tm_writer<std::__ndk1::back_insert_iterator<fmt::v11::basic_memory_buffer<char, (unsigned long)500, std::__ndk1::allocator<char> > >, char, std::__ndk1::chrono::duration<long long, std::__ndk1::ratio<(long)1, (long)1> > >::write_year(long long)
PUBLIC 90100 0 fmt::v11::detail::tm_writer<std::__ndk1::back_insert_iterator<fmt::v11::basic_memory_buffer<char, (unsigned long)500, std::__ndk1::allocator<char> > >, char, std::__ndk1::chrono::duration<long long, std::__ndk1::ratio<(long)1, (long)1> > >::write_year_extended(long long)
PUBLIC 902d4 0 fmt::v11::detail::copy_noinline<char, char*, std::__ndk1::back_insert_iterator<fmt::v11::basic_memory_buffer<char, (unsigned long)500, std::__ndk1::allocator<char> > > >(char*, char*, std::__ndk1::back_insert_iterator<fmt::v11::basic_memory_buffer<char, (unsigned long)500, std::__ndk1::allocator<char> > >)
PUBLIC 90424 0 fmt::v11::detail::do_write<char>(fmt::v11::detail::buffer<char>&, tm const&, std::__ndk1::locale const&, char, char)
PUBLIC 90658 0 fmt::v11::detail::write_encoded_tm_str<std::__ndk1::back_insert_iterator<fmt::v11::basic_memory_buffer<char, (unsigned long)500, std::__ndk1::allocator<char> > > >(std::__ndk1::back_insert_iterator<fmt::v11::basic_memory_buffer<char, (unsigned long)500, std::__ndk1::allocator<char> > >, fmt::v11::basic_string_view<char>, std::__ndk1::locale const&)
PUBLIC 90d74 0 fmt::v11::detail::formatbuf<std::__ndk1::basic_streambuf<char, std::__ndk1::char_traits<char> > >::~formatbuf()
PUBLIC 90d98 0 fmt::v11::detail::formatbuf<std::__ndk1::basic_streambuf<char, std::__ndk1::char_traits<char> > >::xsputn(char const*, long)
PUBLIC 90ef0 0 fmt::v11::detail::formatbuf<std::__ndk1::basic_streambuf<char, std::__ndk1::char_traits<char> > >::overflow(int)
PUBLIC 90f4c 0 fmt::v11::basic_memory_buffer<char, (unsigned long)128, std::__ndk1::allocator<char> >::grow(fmt::v11::detail::buffer<char>&, unsigned long)
PUBLIC 90fc4 0 fmt::v11::detail::copy_noinline<char, char const*, std::__ndk1::back_insert_iterator<fmt::v11::basic_memory_buffer<char, (unsigned long)500, std::__ndk1::allocator<char> > > >(char const*, char const*, std::__ndk1::back_insert_iterator<fmt::v11::basic_memory_buffer<char, (unsigned long)500, std::__ndk1::allocator<char> > >)
PUBLIC 91114 0 fmt::v11::detail::tm_writer<std::__ndk1::back_insert_iterator<fmt::v11::basic_memory_buffer<char, (unsigned long)500, std::__ndk1::allocator<char> > >, char, std::__ndk1::chrono::duration<long long, std::__ndk1::ratio<(long)1, (long)1> > >::write2(int, fmt::v11::detail::pad_type)
PUBLIC 9126c 0 fmt::v11::detail::tm_writer<std::__ndk1::back_insert_iterator<fmt::v11::basic_memory_buffer<char, (unsigned long)500, std::__ndk1::allocator<char> > >, char, std::__ndk1::chrono::duration<long long, std::__ndk1::ratio<(long)1, (long)1> > >::write_utc_offset(long, fmt::v11::detail::numeric_system)
PUBLIC 91498 0 fmt::v11::detail::write_escaped_string<char, fmt::v11::detail::counting_iterator>(fmt::v11::detail::counting_iterator, fmt::v11::basic_string_view<char>)
PUBLIC 919b8 0 fmt::v11::detail::write_padded<char, (fmt::v11::align::type)1, fmt::v11::basic_appender<char>, fmt::v11::detail::write<char, fmt::v11::basic_appender<char> >(fmt::v11::basic_appender<char>, fmt::v11::basic_string_view<char>, fmt::v11::format_specs const&)::{lambda(fmt::v11::basic_appender<char>)#1}>(fmt::v11::basic_appender<char>, fmt::v11::format_specs const&, unsigned long, unsigned long, fmt::v11::detail::write<char, fmt::v11::basic_appender<char> >(fmt::v11::basic_appender<char>, fmt::v11::basic_string_view<char>, fmt::v11::format_specs const&)::{lambda(fmt::v11::basic_appender<char>&&)#1})
PUBLIC 91bc4 0 fmt::v11::detail::for_each_codepoint<fmt::v11::detail::code_point_index(fmt::v11::basic_string_view<char>, unsigned long)::{lambda(unsigned int, fmt::v11::basic_string_view<char>)#1}>(fmt::v11::basic_string_view<char>, fmt::v11::detail::code_point_index(fmt::v11::basic_string_view<char>, unsigned long)::{lambda(unsigned int, fmt::v11::basic_string_view<char>)#1})
PUBLIC 91fec 0 fmt::v11::detail::write_escaped_cp<fmt::v11::detail::counting_iterator, char>(fmt::v11::detail::counting_iterator, fmt::v11::detail::find_escape_result<char> const&)
PUBLIC 92180 0 fmt::v11::detail::for_each_codepoint<fmt::v11::detail::compute_width(fmt::v11::basic_string_view<char>)::count_code_points>(fmt::v11::basic_string_view<char>, fmt::v11::detail::compute_width(fmt::v11::basic_string_view<char>)::count_code_points)::{lambda(char const*, char const*)#1}::operator()(char const*, char const*) const
PUBLIC 92338 0 fmt::v11::detail::fill<char, fmt::v11::basic_appender<char> >(fmt::v11::basic_appender<char>, unsigned long, fmt::v11::detail::fill_t const&)
PUBLIC 92508 0 fmt::v11::detail::write_escaped_string<char, fmt::v11::basic_appender<char> >(fmt::v11::basic_appender<char>, fmt::v11::basic_string_view<char>)
PUBLIC 92b84 0 fmt::v11::detail::write_escaped_cp<fmt::v11::basic_appender<char>, char>(fmt::v11::basic_appender<char>, fmt::v11::detail::find_escape_result<char> const&)
PUBLIC 92d68 0 fmt::v11::detail::write_codepoint<(unsigned long)2, char, fmt::v11::basic_appender<char> >(fmt::v11::basic_appender<char>, char, unsigned int)
PUBLIC 92ee0 0 fmt::v11::detail::write_codepoint<(unsigned long)4, char, fmt::v11::basic_appender<char> >(fmt::v11::basic_appender<char>, char, unsigned int)
PUBLIC 93058 0 fmt::v11::detail::write_codepoint<(unsigned long)8, char, fmt::v11::basic_appender<char> >(fmt::v11::basic_appender<char>, char, unsigned int)
PUBLIC 931d0 0 geode::Task<geode::Result<std::__ndk1::__fs::filesystem::path, std::__ndk1::basic_string<char, std::__ndk1::char_traits<char>, std::__ndk1::allocator<char> > >, std::__ndk1::monostate>::listen<CodeBlock::onSave()::$_0, CodeBlock::onSave()::$_1, CodeBlock::onSave()::$_2>(CodeBlock::onSave()::$_0&&, CodeBlock::onSave()::$_1&&, CodeBlock::onSave()::$_2&&) const::{lambda(geode::Task<geode::Result<std::__ndk1::__fs::filesystem::path, std::__ndk1::basic_string<char, std::__ndk1::char_traits<char>, std::__ndk1::allocator<char> > >, std::__ndk1::monostate>::Event*)#1}::~{lambda(geode::Task<geode::Result<std::__ndk1::__fs::filesystem::path, std::__ndk1::basic_string<char, std::__ndk1::char_traits<char>, std::__ndk1::allocator<char> > >, std::__ndk1::monostate>::Event*)#1}()
PUBLIC 93214 0 geode::EventListener<geode::Task<geode::Result<std::__ndk1::__fs::filesystem::path, std::__ndk1::basic_string<char, std::__ndk1::char_traits<char>, std::__ndk1::allocator<char> > >, std::__ndk1::monostate> >::getPool() const
PUBLIC 93218 0 geode::EventListener<geode::Task<geode::Result<std::__ndk1::__fs::filesystem::path, std::__ndk1::basic_string<char, std::__ndk1::char_traits<char>, std::__ndk1::allocator<char> > >, std::__ndk1::monostate> >::handle(geode::Event*)
PUBLIC 933e4 0 geode::EventListener<geode::Task<geode::Result<std::__ndk1::__fs::filesystem::path, std::__ndk1::basic_string<char, std::__ndk1::char_traits<char>, std::__ndk1::allocator<char> > >, std::__ndk1::monostate> >::~EventListener()
PUBLIC 93480 0 geode::EventListener<geode::Task<geode::Result<std::__ndk1::__fs::filesystem::path, std::__ndk1::basic_string<char, std::__ndk1::char_traits<char>, std::__ndk1::allocator<char> > >, std::__ndk1::monostate> >::~EventListener()
PUBLIC 93524 0 geode::Task<geode::Result<std::__ndk1::__fs::filesystem::path, std::__ndk1::basic_string<char, std::__ndk1::char_traits<char>, std::__ndk1::allocator<char> > >, std::__ndk1::monostate>::setListener(geode::EventListenerProtocol*)::{lambda()#1}::~{lambda()#1}()
PUBLIC 93574 0 std::__ndk1::__function::__func<geode::Task<geode::Result<std::__ndk1::__fs::filesystem::path, std::__ndk1::basic_string<char, std::__ndk1::char_traits<char>, std::__ndk1::allocator<char> > >, std::__ndk1::monostate>::setListener(geode::EventListenerProtocol*)::{lambda()#1}, std::__ndk1::allocator<geode::Task<geode::Result<std::__ndk1::__fs::filesystem::path, std::__ndk1::basic_string<char, std::__ndk1::char_traits<char>, std::__ndk1::allocator<char> > >, std::__ndk1::monostate>::setListener(geode::EventListenerProtocol*)::{lambda()#1}>, void ()>::~__func()
PUBLIC 935d0 0 std::__ndk1::__function::__func<geode::Task<geode::Result<std::__ndk1::__fs::filesystem::path, std::__ndk1::basic_string<char, std::__ndk1::char_traits<char>, std::__ndk1::allocator<char> > >, std::__ndk1::monostate>::setListener(geode::EventListenerProtocol*)::{lambda()#1}, std::__ndk1::allocator<geode::Task<geode::Result<std::__ndk1::__fs::filesystem::path, std::__ndk1::basic_string<char, std::__ndk1::char_traits<char>, std::__ndk1::allocator<char> > >, std::__ndk1::monostate>::setListener(geode::EventListenerProtocol*)::{lambda()#1}>, void ()>::~__func()
PUBLIC 9363c 0 std::__ndk1::__function::__func<geode::Task<geode::Result<std::__ndk1::__fs::filesystem::path, std::__ndk1::basic_string<char, std::__ndk1::char_traits<char>, std::__ndk1::allocator<char> > >, std::__ndk1::monostate>::setListener(geode::EventListenerProtocol*)::{lambda()#1}, std::__ndk1::allocator<geode::Task<geode::Result<std::__ndk1::__fs::filesystem::path, std::__ndk1::basic_string<char, std::__ndk1::char_traits<char>, std::__ndk1::allocator<char> > >, std::__ndk1::monostate>::setListener(geode::EventListenerProtocol*)::{lambda()#1}>, void ()>::__clone() const
PUBLIC 93694 0 std::__ndk1::__function::__func<geode::Task<geode::Result<std::__ndk1::__fs::filesystem::path, std::__ndk1::basic_string<char, std::__ndk1::char_traits<char>, std::__ndk1::allocator<char> > >, std::__ndk1::monostate>::setListener(geode::EventListenerProtocol*)::{lambda()#1}, std::__ndk1::allocator<geode::Task<geode::Result<std::__ndk1::__fs::filesystem::path, std::__ndk1::basic_string<char, std::__ndk1::char_traits<char>, std::__ndk1::allocator<char> > >, std::__ndk1::monostate>::setListener(geode::EventListenerProtocol*)::{lambda()#1}>, void ()>::__clone(std::__ndk1::__function::__base<void ()>*) const
PUBLIC 936e0 0 std::__ndk1::__function::__func<geode::Task<geode::Result<std::__ndk1::__fs::filesystem::path, std::__ndk1::basic_string<char, std::__ndk1::char_traits<char>, std::__ndk1::allocator<char> > >, std::__ndk1::monostate>::setListener(geode::EventListenerProtocol*)::{lambda()#1}, std::__ndk1::allocator<geode::Task<geode::Result<std::__ndk1::__fs::filesystem::path, std::__ndk1::basic_string<char, std::__ndk1::char_traits<char>, std::__ndk1::allocator<char> > >, std::__ndk1::monostate>::setListener(geode::EventListenerProtocol*)::{lambda()#1}>, void ()>::destroy()
PUBLIC 93730 0 std::__ndk1::__function::__func<geode::Task<geode::Result<std::__ndk1::__fs::filesystem::path, std::__ndk1::basic_string<char, std::__ndk1::char_traits<char>, std::__ndk1::allocator<char> > >, std::__ndk1::monostate>::setListener(geode::EventListenerProtocol*)::{lambda()#1}, std::__ndk1::allocator<geode::Task<geode::Result<std::__ndk1::__fs::filesystem::path, std::__ndk1::basic_string<char, std::__ndk1::char_traits<char>, std::__ndk1::allocator<char> > >, std::__ndk1::monostate>::setListener(geode::EventListenerProtocol*)::{lambda()#1}>, void ()>::destroy_deallocate()
PUBLIC 93790 0 std::__ndk1::__function::__func<geode::Task<geode::Result<std::__ndk1::__fs::filesystem::path, std::__ndk1::basic_string<char, std::__ndk1::char_traits<char>, std::__ndk1::allocator<char> > >, std::__ndk1::monostate>::setListener(geode::EventListenerProtocol*)::{lambda()#1}, std::__ndk1::allocator<geode::Task<geode::Result<std::__ndk1::__fs::filesystem::path, std::__ndk1::basic_string<char, std::__ndk1::char_traits<char>, std::__ndk1::allocator<char> > >, std::__ndk1::monostate>::setListener(geode::EventListenerProtocol*)::{lambda()#1}>, void ()>::operator()()
PUBLIC 93960 0 std::__ndk1::__function::__func<geode::Task<geode::Result<std::__ndk1::__fs::filesystem::path, std::__ndk1::basic_string<char, std::__ndk1::char_traits<char>, std::__ndk1::allocator<char> > >, std::__ndk1::monostate>::setListener(geode::EventListenerProtocol*)::{lambda()#1}, std::__ndk1::allocator<geode::Task<geode::Result<std::__ndk1::__fs::filesystem::path, std::__ndk1::basic_string<char, std::__ndk1::char_traits<char>, std::__ndk1::allocator<char> > >, std::__ndk1::monostate>::setListener(geode::EventListenerProtocol*)::{lambda()#1}>, void ()>::target(std::type_info const&) const
PUBLIC 9397c 0 std::__ndk1::__function::__func<geode::Task<geode::Result<std::__ndk1::__fs::filesystem::path, std::__ndk1::basic_string<char, std::__ndk1::char_traits<char>, std::__ndk1::allocator<char> > >, std::__ndk1::monostate>::setListener(geode::EventListenerProtocol*)::{lambda()#1}, std::__ndk1::allocator<geode::Task<geode::Result<std::__ndk1::__fs::filesystem::path, std::__ndk1::basic_string<char, std::__ndk1::char_traits<char>, std::__ndk1::allocator<char> > >, std::__ndk1::monostate>::setListener(geode::EventListenerProtocol*)::{lambda()#1}>, void ()>::target_type() const
PUBLIC 93988 0 geode::Task<geode::Result<std::__ndk1::__fs::filesystem::path, std::__ndk1::basic_string<char, std::__ndk1::char_traits<char>, std::__ndk1::allocator<char> > >, std::__ndk1::monostate>::Event::~Event()
PUBLIC 939e8 0 geode::Task<geode::Result<std::__ndk1::__fs::filesystem::path, std::__ndk1::basic_string<char, std::__ndk1::char_traits<char>, std::__ndk1::allocator<char> > >, std::__ndk1::monostate>::Event::~Event()
PUBLIC 93a58 0 std::__ndk1::__function::__func<geode::Task<geode::Result<std::__ndk1::__fs::filesystem::path, std::__ndk1::basic_string<char, std::__ndk1::char_traits<char>, std::__ndk1::allocator<char> > >, std::__ndk1::monostate>::setListener(geode::EventListenerProtocol*)::{lambda()#2}, std::__ndk1::allocator<geode::Task<geode::Result<std::__ndk1::__fs::filesystem::path, std::__ndk1::basic_string<char, std::__ndk1::char_traits<char>, std::__ndk1::allocator<char> > >, std::__ndk1::monostate>::setListener(geode::EventListenerProtocol*)::{lambda()#2}>, void ()>::~__func()
PUBLIC 93ab4 0 std::__ndk1::__function::__func<geode::Task<geode::Result<std::__ndk1::__fs::filesystem::path, std::__ndk1::basic_string<char, std::__ndk1::char_traits<char>, std::__ndk1::allocator<char> > >, std::__ndk1::monostate>::setListener(geode::EventListenerProtocol*)::{lambda()#2}, std::__ndk1::allocator<geode::Task<geode::Result<std::__ndk1::__fs::filesystem::path, std::__ndk1::basic_string<char, std::__ndk1::char_traits<char>, std::__ndk1::allocator<char> > >, std::__ndk1::monostate>::setListener(geode::EventListenerProtocol*)::{lambda()#2}>, void ()>::~__func()
PUBLIC 93b20 0 std::__ndk1::__function::__func<geode::Task<geode::Result<std::__ndk1::__fs::filesystem::path, std::__ndk1::basic_string<char, std::__ndk1::char_traits<char>, std::__ndk1::allocator<char> > >, std::__ndk1::monostate>::setListener(geode::EventListenerProtocol*)::{lambda()#2}, std::__ndk1::allocator<geode::Task<geode::Result<std::__ndk1::__fs::filesystem::path, std::__ndk1::basic_string<char, std::__ndk1::char_traits<char>, std::__ndk1::allocator<char> > >, std::__ndk1::monostate>::setListener(geode::EventListenerProtocol*)::{lambda()#2}>, void ()>::__clone() const
PUBLIC 93b78 0 std::__ndk1::__function::__func<geode::Task<geode::Result<std::__ndk1::__fs::filesystem::path, std::__ndk1::basic_string<char, std::__ndk1::char_traits<char>, std::__ndk1::allocator<char> > >, std::__ndk1::monostate>::setListener(geode::EventListenerProtocol*)::{lambda()#2}, std::__ndk1::allocator<geode::Task<geode::Result<std::__ndk1::__fs::filesystem::path, std::__ndk1::basic_string<char, std::__ndk1::char_traits<char>, std::__ndk1::allocator<char> > >, std::__ndk1::monostate>::setListener(geode::EventListenerProtocol*)::{lambda()#2}>, void ()>::__clone(std::__ndk1::__function::__base<void ()>*) const
PUBLIC 93bc4 0 std::__ndk1::__function::__func<geode::Task<geode::Result<std::__ndk1::__fs::filesystem::path, std::__ndk1::basic_string<char, std::__ndk1::char_traits<char>, std::__ndk1::allocator<char> > >, std::__ndk1::monostate>::setListener(geode::EventListenerProtocol*)::{lambda()#2}, std::__ndk1::allocator<geode::Task<geode::Result<std::__ndk1::__fs::filesystem::path, std::__ndk1::basic_string<char, std::__ndk1::char_traits<char>, std::__ndk1::allocator<char> > >, std::__ndk1::monostate>::setListener(geode::EventListenerProtocol*)::{lambda()#2}>, void ()>::destroy()
PUBLIC 93c14 0 std::__ndk1::__function::__func<geode::Task<geode::Result<std::__ndk1::__fs::filesystem::path, std::__ndk1::basic_string<char, std::__ndk1::char_traits<char>, std::__ndk1::allocator<char> > >, std::__ndk1::monostate>::setListener(geode::EventListenerProtocol*)::{lambda()#2}, std::__ndk1::allocator<geode::Task<geode::Result<std::__ndk1::__fs::filesystem::path, std::__ndk1::basic_string<char, std::__ndk1::char_traits<char>, std::__ndk1::allocator<char> > >, std::__ndk1::monostate>::setListener(geode::EventListenerProtocol*)::{lambda()#2}>, void ()>::destroy_deallocate()
PUBLIC 93c74 0 std::__ndk1::__function::__func<geode::Task<geode::Result<std::__ndk1::__fs::filesystem::path, std::__ndk1::basic_string<char, std::__ndk1::char_traits<char>, std::__ndk1::allocator<char> > >, std::__ndk1::monostate>::setListener(geode::EventListenerProtocol*)::{lambda()#2}, std::__ndk1::allocator<geode::Task<geode::Result<std::__ndk1::__fs::filesystem::path, std::__ndk1::basic_string<char, std::__ndk1::char_traits<char>, std::__ndk1::allocator<char> > >, std::__ndk1::monostate>::setListener(geode::EventListenerProtocol*)::{lambda()#2}>, void ()>::operator()()
PUBLIC 93e38 0 std::__ndk1::__function::__func<geode::Task<geode::Result<std::__ndk1::__fs::filesystem::path, std::__ndk1::basic_string<char, std::__ndk1::char_traits<char>, std::__ndk1::allocator<char> > >, std::__ndk1::monostate>::setListener(geode::EventListenerProtocol*)::{lambda()#2}, std::__ndk1::allocator<geode::Task<geode::Result<std::__ndk1::__fs::filesystem::path, std::__ndk1::basic_string<char, std::__ndk1::char_traits<char>, std::__ndk1::allocator<char> > >, std::__ndk1::monostate>::setListener(geode::EventListenerProtocol*)::{lambda()#2}>, void ()>::target(std::type_info const&) const
PUBLIC 93e54 0 std::__ndk1::__function::__func<geode::Task<geode::Result<std::__ndk1::__fs::filesystem::path, std::__ndk1::basic_string<char, std::__ndk1::char_traits<char>, std::__ndk1::allocator<char> > >, std::__ndk1::monostate>::setListener(geode::EventListenerProtocol*)::{lambda()#2}, std::__ndk1::allocator<geode::Task<geode::Result<std::__ndk1::__fs::filesystem::path, std::__ndk1::basic_string<char, std::__ndk1::char_traits<char>, std::__ndk1::allocator<char> > >, std::__ndk1::monostate>::setListener(geode::EventListenerProtocol*)::{lambda()#2}>, void ()>::target_type() const
PUBLIC 93e60 0 std::__ndk1::__function::__func<geode::Task<geode::Result<std::__ndk1::__fs::filesystem::path, std::__ndk1::basic_string<char, std::__ndk1::char_traits<char>, std::__ndk1::allocator<char> > >, std::__ndk1::monostate>::listen<CodeBlock::onSave()::$_0, CodeBlock::onSave()::$_1, CodeBlock::onSave()::$_2>(CodeBlock::onSave()::$_0&&, CodeBlock::onSave()::$_1&&, CodeBlock::onSave()::$_2&&) const::{lambda(geode::Task<geode::Result<std::__ndk1::__fs::filesystem::path, std::__ndk1::basic_string<char, std::__ndk1::char_traits<char>, std::__ndk1::allocator<char> > >, std::__ndk1::monostate>::Event*)#1}, std::__ndk1::allocator<geode::Task<geode::Result<std::__ndk1::__fs::filesystem::path, std::__ndk1::basic_string<char, std::__ndk1::char_traits<char>, std::__ndk1::allocator<char> > >, std::__ndk1::monostate>::listen<CodeBlock::onSave()::$_0, CodeBlock::onSave()::$_1, CodeBlock::onSave()::$_2>(CodeBlock::onSave()::$_0&&, CodeBlock::onSave()::$_1&&, CodeBlock::onSave()::$_2&&) const::{lambda(geode::Task<geode::Result<std::__ndk1::__fs::filesystem::path, std::__ndk1::basic_string<char, std::__ndk1::char_traits<char>, std::__ndk1::allocator<char> > >, std::__ndk1::monostate>::Event*)#1}>, void (geode::Task<geode::Result<std::__ndk1::__fs::filesystem::path, std::__ndk1::basic_string<char, std::__ndk1::char_traits<char>, std::__ndk1::allocator<char> > >, std::__ndk1::monostate>::Event*)>::~__func()
PUBLIC 93eb0 0 std::__ndk1::__function::__func<geode::Task<geode::Result<std::__ndk1::__fs::filesystem::path, std::__ndk1::basic_string<char, std::__ndk1::char_traits<char>, std::__ndk1::allocator<char> > >, std::__ndk1::monostate>::listen<CodeBlock::onSave()::$_0, CodeBlock::onSave()::$_1, CodeBlock::onSave()::$_2>(CodeBlock::onSave()::$_0&&, CodeBlock::onSave()::$_1&&, CodeBlock::onSave()::$_2&&) const::{lambda(geode::Task<geode::Result<std::__ndk1::__fs::filesystem::path, std::__ndk1::basic_string<char, std::__ndk1::char_traits<char>, std::__ndk1::allocator<char> > >, std::__ndk1::monostate>::Event*)#1}, std::__ndk1::allocator<geode::Task<geode::Result<std::__ndk1::__fs::filesystem::path, std::__ndk1::basic_string<char, std::__ndk1::char_traits<char>, std::__ndk1::allocator<char> > >, std::__ndk1::monostate>::listen<CodeBlock::onSave()::$_0, CodeBlock::onSave()::$_1, CodeBlock::onSave()::$_2>(CodeBlock::onSave()::$_0&&, CodeBlock::onSave()::$_1&&, CodeBlock::onSave()::$_2&&) const::{lambda(geode::Task<geode::Result<std::__ndk1::__fs::filesystem::path, std::__ndk1::basic_string<char, std::__ndk1::char_traits<char>, std::__ndk1::allocator<char> > >, std::__ndk1::monostate>::Event*)#1}>, void (geode::Task<geode::Result<std::__ndk1::__fs::filesystem::path, std::__ndk1::basic_string<char, std::__ndk1::char_traits<char>, std::__ndk1::allocator<char> > >, std::__ndk1::monostate>::Event*)>::~__func()
PUBLIC 93f14 0 std::__ndk1::__function::__func<geode::Task<geode::Result<std::__ndk1::__fs::filesystem::path, std::__ndk1::basic_string<char, std::__ndk1::char_traits<char>, std::__ndk1::allocator<char> > >, std::__ndk1::monostate>::listen<CodeBlock::onSave()::$_0, CodeBlock::onSave()::$_1, CodeBlock::onSave()::$_2>(CodeBlock::onSave()::$_0&&, CodeBlock::onSave()::$_1&&, CodeBlock::onSave()::$_2&&) const::{lambda(geode::Task<geode::Result<std::__ndk1::__fs::filesystem::path, std::__ndk1::basic_string<char, std::__ndk1::char_traits<char>, std::__ndk1::allocator<char> > >, std::__ndk1::monostate>::Event*)#1}, std::__ndk1::allocator<geode::Task<geode::Result<std::__ndk1::__fs::filesystem::path, std::__ndk1::basic_string<char, std::__ndk1::char_traits<char>, std::__ndk1::allocator<char> > >, std::__ndk1::monostate>::listen<CodeBlock::onSave()::$_0, CodeBlock::onSave()::$_1, CodeBlock::onSave()::$_2>(CodeBlock::onSave()::$_0&&, CodeBlock::onSave()::$_1&&, CodeBlock::onSave()::$_2&&) const::{lambda(geode::Task<geode::Result<std::__ndk1::__fs::filesystem::path, std::__ndk1::basic_string<char, std::__ndk1::char_traits<char>, std::__ndk1::allocator<char> > >, std::__ndk1::monostate>::Event*)#1}>, void (geode::Task<geode::Result<std::__ndk1::__fs::filesystem::path, std::__ndk1::basic_string<char, std::__ndk1::char_traits<char>, std::__ndk1::allocator<char> > >, std::__ndk1::monostate>::Event*)>::__clone() const
PUBLIC 93ff4 0 std::__ndk1::__function::__func<geode::Task<geode::Result<std::__ndk1::__fs::filesystem::path, std::__ndk1::basic_string<char, std::__ndk1::char_traits<char>, std::__ndk1::allocator<char> > >, std::__ndk1::monostate>::listen<CodeBlock::onSave()::$_0, CodeBlock::onSave()::$_1, CodeBlock::onSave()::$_2>(CodeBlock::onSave()::$_0&&, CodeBlock::onSave()::$_1&&, CodeBlock::onSave()::$_2&&) const::{lambda(geode::Task<geode::Result<std::__ndk1::__fs::filesystem::path, std::__ndk1::basic_string<char, std::__ndk1::char_traits<char>, std::__ndk1::allocator<char> > >, std::__ndk1::monostate>::Event*)#1}, std::__ndk1::allocator<geode::Task<geode::Result<std::__ndk1::__fs::filesystem::path, std::__ndk1::basic_string<char, std::__ndk1::char_traits<char>, std::__ndk1::allocator<char> > >, std::__ndk1::monostate>::listen<CodeBlock::onSave()::$_0, CodeBlock::onSave()::$_1, CodeBlock::onSave()::$_2>(CodeBlock::onSave()::$_0&&, CodeBlock::onSave()::$_1&&, CodeBlock::onSave()::$_2&&) const::{lambda(geode::Task<geode::Result<std::__ndk1::__fs::filesystem::path, std::__ndk1::basic_string<char, std::__ndk1::char_traits<char>, std::__ndk1::allocator<char> > >, std::__ndk1::monostate>::Event*)#1}>, void (geode::Task<geode::Result<std::__ndk1::__fs::filesystem::path, std::__ndk1::basic_string<char, std::__ndk1::char_traits<char>, std::__ndk1::allocator<char> > >, std::__ndk1::monostate>::Event*)>::__clone(std::__ndk1::__function::__base<void (geode::Task<geode::Result<std::__ndk1::__fs::filesystem::path, std::__ndk1::basic_string<char, std::__ndk1::char_traits<char>, std::__ndk1::allocator<char> > >, std::__ndk1::monostate>::Event*)>*) const
PUBLIC 940b4 0 std::__ndk1::__function::__func<geode::Task<geode::Result<std::__ndk1::__fs::filesystem::path, std::__ndk1::basic_string<char, std::__ndk1::char_traits<char>, std::__ndk1::allocator<char> > >, std::__ndk1::monostate>::listen<CodeBlock::onSave()::$_0, CodeBlock::onSave()::$_1, CodeBlock::onSave()::$_2>(CodeBlock::onSave()::$_0&&, CodeBlock::onSave()::$_1&&, CodeBlock::onSave()::$_2&&) const::{lambda(geode::Task<geode::Result<std::__ndk1::__fs::filesystem::path, std::__ndk1::basic_string<char, std::__ndk1::char_traits<char>, std::__ndk1::allocator<char> > >, std::__ndk1::monostate>::Event*)#1}, std::__ndk1::allocator<geode::Task<geode::Result<std::__ndk1::__fs::filesystem::path, std::__ndk1::basic_string<char, std::__ndk1::char_traits<char>, std::__ndk1::allocator<char> > >, std::__ndk1::monostate>::listen<CodeBlock::onSave()::$_0, CodeBlock::onSave()::$_1, CodeBlock::onSave()::$_2>(CodeBlock::onSave()::$_0&&, CodeBlock::onSave()::$_1&&, CodeBlock::onSave()::$_2&&) const::{lambda(geode::Task<geode::Result<std::__ndk1::__fs::filesystem::path, std::__ndk1::basic_string<char, std::__ndk1::char_traits<char>, std::__ndk1::allocator<char> > >, std::__ndk1::monostate>::Event*)#1}>, void (geode::Task<geode::Result<std::__ndk1::__fs::filesystem::path, std::__ndk1::basic_string<char, std::__ndk1::char_traits<char>, std::__ndk1::allocator<char> > >, std::__ndk1::monostate>::Event*)>::destroy()
PUBLIC 940f8 0 std::__ndk1::__function::__func<geode::Task<geode::Result<std::__ndk1::__fs::filesystem::path, std::__ndk1::basic_string<char, std::__ndk1::char_traits<char>, std::__ndk1::allocator<char> > >, std::__ndk1::monostate>::listen<CodeBlock::onSave()::$_0, CodeBlock::onSave()::$_1, CodeBlock::onSave()::$_2>(CodeBlock::onSave()::$_0&&, CodeBlock::onSave()::$_1&&, CodeBlock::onSave()::$_2&&) const::{lambda(geode::Task<geode::Result<std::__ndk1::__fs::filesystem::path, std::__ndk1::basic_string<char, std::__ndk1::char_traits<char>, std::__ndk1::allocator<char> > >, std::__ndk1::monostate>::Event*)#1}, std::__ndk1::allocator<geode::Task<geode::Result<std::__ndk1::__fs::filesystem::path, std::__ndk1::basic_string<char, std::__ndk1::char_traits<char>, std::__ndk1::allocator<char> > >, std::__ndk1::monostate>::listen<CodeBlock::onSave()::$_0, CodeBlock::onSave()::$_1, CodeBlock::onSave()::$_2>(CodeBlock::onSave()::$_0&&, CodeBlock::onSave()::$_1&&, CodeBlock::onSave()::$_2&&) const::{lambda(geode::Task<geode::Result<std::__ndk1::__fs::filesystem::path, std::__ndk1::basic_string<char, std::__ndk1::char_traits<char>, std::__ndk1::allocator<char> > >, std::__ndk1::monostate>::Event*)#1}>, void (geode::Task<geode::Result<std::__ndk1::__fs::filesystem::path, std::__ndk1::basic_string<char, std::__ndk1::char_traits<char>, std::__ndk1::allocator<char> > >, std::__ndk1::monostate>::Event*)>::destroy_deallocate()
PUBLIC 94150 0 std::__ndk1::__function::__func<geode::Task<geode::Result<std::__ndk1::__fs::filesystem::path, std::__ndk1::basic_string<char, std::__ndk1::char_traits<char>, std::__ndk1::allocator<char> > >, std::__ndk1::monostate>::listen<CodeBlock::onSave()::$_0, CodeBlock::onSave()::$_1, CodeBlock::onSave()::$_2>(CodeBlock::onSave()::$_0&&, CodeBlock::onSave()::$_1&&, CodeBlock::onSave()::$_2&&) const::{lambda(geode::Task<geode::Result<std::__ndk1::__fs::filesystem::path, std::__ndk1::basic_string<char, std::__ndk1::char_traits<char>, std::__ndk1::allocator<char> > >, std::__ndk1::monostate>::Event*)#1}, std::__ndk1::allocator<geode::Task<geode::Result<std::__ndk1::__fs::filesystem::path, std::__ndk1::basic_string<char, std::__ndk1::char_traits<char>, std::__ndk1::allocator<char> > >, std::__ndk1::monostate>::listen<CodeBlock::onSave()::$_0, CodeBlock::onSave()::$_1, CodeBlock::onSave()::$_2>(CodeBlock::onSave()::$_0&&, CodeBlock::onSave()::$_1&&, CodeBlock::onSave()::$_2&&) const::{lambda(geode::Task<geode::Result<std::__ndk1::__fs::filesystem::path, std::__ndk1::basic_string<char, std::__ndk1::char_traits<char>, std::__ndk1::allocator<char> > >, std::__ndk1::monostate>::Event*)#1}>, void (geode::Task<geode::Result<std::__ndk1::__fs::filesystem::path, std::__ndk1::basic_string<char, std::__ndk1::char_traits<char>, std::__ndk1::allocator<char> > >, std::__ndk1::monostate>::Event*)>::operator()(geode::Task<geode::Result<std::__ndk1::__fs::filesystem::path, std::__ndk1::basic_string<char, std::__ndk1::char_traits<char>, std::__ndk1::allocator<char> > >, std::__ndk1::monostate>::Event*&&)
PUBLIC 944ac 0 std::__ndk1::__function::__func<geode::Task<geode::Result<std::__ndk1::__fs::filesystem::path, std::__ndk1::basic_string<char, std::__ndk1::char_traits<char>, std::__ndk1::allocator<char> > >, std::__ndk1::monostate>::listen<CodeBlock::onSave()::$_0, CodeBlock::onSave()::$_1, CodeBlock::onSave()::$_2>(CodeBlock::onSave()::$_0&&, CodeBlock::onSave()::$_1&&, CodeBlock::onSave()::$_2&&) const::{lambda(geode::Task<geode::Result<std::__ndk1::__fs::filesystem::path, std::__ndk1::basic_string<char, std::__ndk1::char_traits<char>, std::__ndk1::allocator<char> > >, std::__ndk1::monostate>::Event*)#1}, std::__ndk1::allocator<geode::Task<geode::Result<std::__ndk1::__fs::filesystem::path, std::__ndk1::basic_string<char, std::__ndk1::char_traits<char>, std::__ndk1::allocator<char> > >, std::__ndk1::monostate>::listen<CodeBlock::onSave()::$_0, CodeBlock::onSave()::$_1, CodeBlock::onSave()::$_2>(CodeBlock::onSave()::$_0&&, CodeBlock::onSave()::$_1&&, CodeBlock::onSave()::$_2&&) const::{lambda(geode::Task<geode::Result<std::__ndk1::__fs::filesystem::path, std::__ndk1::basic_string<char, std::__ndk1::char_traits<char>, std::__ndk1::allocator<char> > >, std::__ndk1::monostate>::Event*)#1}>, void (geode::Task<geode::Result<std::__ndk1::__fs::filesystem::path, std::__ndk1::basic_string<char, std::__ndk1::char_traits<char>, std::__ndk1::allocator<char> > >, std::__ndk1::monostate>::Event*)>::target(std::type_info const&) const
PUBLIC 944c8 0 std::__ndk1::__function::__func<geode::Task<geode::Result<std::__ndk1::__fs::filesystem::path, std::__ndk1::basic_string<char, std::__ndk1::char_traits<char>, std::__ndk1::allocator<char> > >, std::__ndk1::monostate>::listen<CodeBlock::onSave()::$_0, CodeBlock::onSave()::$_1, CodeBlock::onSave()::$_2>(CodeBlock::onSave()::$_0&&, CodeBlock::onSave()::$_1&&, CodeBlock::onSave()::$_2&&) const::{lambda(geode::Task<geode::Result<std::__ndk1::__fs::filesystem::path, std::__ndk1::basic_string<char, std::__ndk1::char_traits<char>, std::__ndk1::allocator<char> > >, std::__ndk1::monostate>::Event*)#1}, std::__ndk1::allocator<geode::Task<geode::Result<std::__ndk1::__fs::filesystem::path, std::__ndk1::basic_string<char, std::__ndk1::char_traits<char>, std::__ndk1::allocator<char> > >, std::__ndk1::monostate>::listen<CodeBlock::onSave()::$_0, CodeBlock::onSave()::$_1, CodeBlock::onSave()::$_2>(CodeBlock::onSave()::$_0&&, CodeBlock::onSave()::$_1&&, CodeBlock::onSave()::$_2&&) const::{lambda(geode::Task<geode::Result<std::__ndk1::__fs::filesystem::path, std::__ndk1::basic_string<char, std::__ndk1::char_traits<char>, std::__ndk1::allocator<char> > >, std::__ndk1::monostate>::Event*)#1}>, void (geode::Task<geode::Result<std::__ndk1::__fs::filesystem::path, std::__ndk1::basic_string<char, std::__ndk1::char_traits<char>, std::__ndk1::allocator<char> > >, std::__ndk1::monostate>::Event*)>::target_type() const
PUBLIC 944d4 0 CodeBlock::onSave()::$_0::operator()(geode::Result<std::__ndk1::__fs::filesystem::path, std::__ndk1::basic_string<char, std::__ndk1::char_traits<char>, std::__ndk1::allocator<char> > > const*) const::{lambda()#1}::~{lambda()#1}()
PUBLIC 94518 0 std::__ndk1::__function::__func<CodeBlock::onSave()::$_0::operator()(geode::Result<std::__ndk1::__fs::filesystem::path, std::__ndk1::basic_string<char, std::__ndk1::char_traits<char>, std::__ndk1::allocator<char> > > const*) const::{lambda()#1}, std::__ndk1::allocator<CodeBlock::onSave()::$_0::operator()(geode::Result<std::__ndk1::__fs::filesystem::path, std::__ndk1::basic_string<char, std::__ndk1::char_traits<char>, std::__ndk1::allocator<char> > > const*) const::{lambda()#1}>, void ()>::~__func()
PUBLIC 94568 0 std::__ndk1::__function::__func<CodeBlock::onSave()::$_0::operator()(geode::Result<std::__ndk1::__fs::filesystem::path, std::__ndk1::basic_string<char, std::__ndk1::char_traits<char>, std::__ndk1::allocator<char> > > const*) const::{lambda()#1}, std::__ndk1::allocator<CodeBlock::onSave()::$_0::operator()(geode::Result<std::__ndk1::__fs::filesystem::path, std::__ndk1::basic_string<char, std::__ndk1::char_traits<char>, std::__ndk1::allocator<char> > > const*) const::{lambda()#1}>, void ()>::~__func()
PUBLIC 945cc 0 std::__ndk1::__function::__func<CodeBlock::onSave()::$_0::operator()(geode::Result<std::__ndk1::__fs::filesystem::path, std::__ndk1::basic_string<char, std::__ndk1::char_traits<char>, std::__ndk1::allocator<char> > > const*) const::{lambda()#1}, std::__ndk1::allocator<CodeBlock::onSave()::$_0::operator()(geode::Result<std::__ndk1::__fs::filesystem::path, std::__ndk1::basic_string<char, std::__ndk1::char_traits<char>, std::__ndk1::allocator<char> > > const*) const::{lambda()#1}>, void ()>::__clone() const
PUBLIC 946b0 0 std::__ndk1::__function::__func<CodeBlock::onSave()::$_0::operator()(geode::Result<std::__ndk1::__fs::filesystem::path, std::__ndk1::basic_string<char, std::__ndk1::char_traits<char>, std::__ndk1::allocator<char> > > const*) const::{lambda()#1}, std::__ndk1::allocator<CodeBlock::onSave()::$_0::operator()(geode::Result<std::__ndk1::__fs::filesystem::path, std::__ndk1::basic_string<char, std::__ndk1::char_traits<char>, std::__ndk1::allocator<char> > > const*) const::{lambda()#1}>, void ()>::__clone(std::__ndk1::__function::__base<void ()>*) const
PUBLIC 94770 0 std::__ndk1::__function::__func<CodeBlock::onSave()::$_0::operator()(geode::Result<std::__ndk1::__fs::filesystem::path, std::__ndk1::basic_string<char, std::__ndk1::char_traits<char>, std::__ndk1::allocator<char> > > const*) const::{lambda()#1}, std::__ndk1::allocator<CodeBlock::onSave()::$_0::operator()(geode::Result<std::__ndk1::__fs::filesystem::path, std::__ndk1::basic_string<char, std::__ndk1::char_traits<char>, std::__ndk1::allocator<char> > > const*) const::{lambda()#1}>, void ()>::destroy()
PUBLIC 947b4 0 std::__ndk1::__function::__func<CodeBlock::onSave()::$_0::operator()(geode::Result<std::__ndk1::__fs::filesystem::path, std::__ndk1::basic_string<char, std::__ndk1::char_traits<char>, std::__ndk1::allocator<char> > > const*) const::{lambda()#1}, std::__ndk1::allocator<CodeBlock::onSave()::$_0::operator()(geode::Result<std::__ndk1::__fs::filesystem::path, std::__ndk1::basic_string<char, std::__ndk1::char_traits<char>, std::__ndk1::allocator<char> > > const*) const::{lambda()#1}>, void ()>::destroy_deallocate()
PUBLIC 9480c 0 std::__ndk1::__function::__func<CodeBlock::onSave()::$_0::operator()(geode::Result<std::__ndk1::__fs::filesystem::path, std::__ndk1::basic_string<char, std::__ndk1::char_traits<char>, std::__ndk1::allocator<char> > > const*) const::{lambda()#1}, std::__ndk1::allocator<CodeBlock::onSave()::$_0::operator()(geode::Result<std::__ndk1::__fs::filesystem::path, std::__ndk1::basic_string<char, std::__ndk1::char_traits<char>, std::__ndk1::allocator<char> > > const*) const::{lambda()#1}>, void ()>::operator()()
PUBLIC 94d50 0 std::__ndk1::__function::__func<CodeBlock::onSave()::$_0::operator()(geode::Result<std::__ndk1::__fs::filesystem::path, std::__ndk1::basic_string<char, std::__ndk1::char_traits<char>, std::__ndk1::allocator<char> > > const*) const::{lambda()#1}, std::__ndk1::allocator<CodeBlock::onSave()::$_0::operator()(geode::Result<std::__ndk1::__fs::filesystem::path, std::__ndk1::basic_string<char, std::__ndk1::char_traits<char>, std::__ndk1::allocator<char> > > const*) const::{lambda()#1}>, void ()>::target(std::type_info const&) const
PUBLIC 94d6c 0 std::__ndk1::__function::__func<CodeBlock::onSave()::$_0::operator()(geode::Result<std::__ndk1::__fs::filesystem::path, std::__ndk1::basic_string<char, std::__ndk1::char_traits<char>, std::__ndk1::allocator<char> > > const*) const::{lambda()#1}, std::__ndk1::allocator<CodeBlock::onSave()::$_0::operator()(geode::Result<std::__ndk1::__fs::filesystem::path, std::__ndk1::basic_string<char, std::__ndk1::char_traits<char>, std::__ndk1::allocator<char> > > const*) const::{lambda()#1}>, void ()>::target_type() const
PUBLIC 94d78 0 _ZN5geode15UnwrapExceptionC2IRKNSt6__ndk112basic_stringIcNS2_11char_traitsIcEENS2_9allocatorIcEEEEQsr4implE18IsStringStreamableIT_EEENS_4impl6ErrTagEOSB_
PUBLIC 94ee0 0 std::__ndk1::__function::__func<CodeBlock::onSave()::$_2::operator()() const::{lambda()#1}, std::__ndk1::allocator<CodeBlock::onSave()::$_2::operator()() const::{lambda()#1}>, void ()>::~__func()
PUBLIC 94ee4 0 std::__ndk1::__function::__func<CodeBlock::onSave()::$_2::operator()() const::{lambda()#1}, std::__ndk1::allocator<CodeBlock::onSave()::$_2::operator()() const::{lambda()#1}>, void ()>::__clone() const
PUBLIC 94f18 0 std::__ndk1::__function::__func<CodeBlock::onSave()::$_2::operator()() const::{lambda()#1}, std::__ndk1::allocator<CodeBlock::onSave()::$_2::operator()() const::{lambda()#1}>, void ()>::__clone(std::__ndk1::__function::__base<void ()>*) const
PUBLIC 94f2c 0 std::__ndk1::__function::__func<CodeBlock::onSave()::$_2::operator()() const::{lambda()#1}, std::__ndk1::allocator<CodeBlock::onSave()::$_2::operator()() const::{lambda()#1}>, void ()>::destroy()
PUBLIC 94f30 0 std::__ndk1::__function::__func<CodeBlock::onSave()::$_2::operator()() const::{lambda()#1}, std::__ndk1::allocator<CodeBlock::onSave()::$_2::operator()() const::{lambda()#1}>, void ()>::destroy_deallocate()
PUBLIC 94f34 0 std::__ndk1::__function::__func<CodeBlock::onSave()::$_2::operator()() const::{lambda()#1}, std::__ndk1::allocator<CodeBlock::onSave()::$_2::operator()() const::{lambda()#1}>, void ()>::operator()()
PUBLIC 94ff4 0 std::__ndk1::__function::__func<CodeBlock::onSave()::$_2::operator()() const::{lambda()#1}, std::__ndk1::allocator<CodeBlock::onSave()::$_2::operator()() const::{lambda()#1}>, void ()>::target(std::type_info const&) const
PUBLIC 95010 0 std::__ndk1::__function::__func<CodeBlock::onSave()::$_2::operator()() const::{lambda()#1}, std::__ndk1::allocator<CodeBlock::onSave()::$_2::operator()() const::{lambda()#1}>, void ()>::target_type() const
PUBLIC 9501c 0 std::__ndk1::__function::__func<geode::Task<geode::Result<std::__ndk1::__fs::filesystem::path, std::__ndk1::basic_string<char, std::__ndk1::char_traits<char>, std::__ndk1::allocator<char> > >, std::__ndk1::monostate>::listen<CodeBlock::onSave()::$_0, CodeBlock::onSave()::$_1, CodeBlock::onSave()::$_2>(CodeBlock::onSave()::$_0&&, CodeBlock::onSave()::$_1&&, CodeBlock::onSave()::$_2&&) const::{lambda(geode::Task<geode::Result<std::__ndk1::__fs::filesystem::path, std::__ndk1::basic_string<char, std::__ndk1::char_traits<char>, std::__ndk1::allocator<char> > >, std::__ndk1::monostate>::Event*)#1}::operator()(geode::Task<geode::Result<std::__ndk1::__fs::filesystem::path, std::__ndk1::basic_string<char, std::__ndk1::char_traits<char>, std::__ndk1::allocator<char> > >, std::__ndk1::monostate>::Event*)::{lambda()#1}, std::__ndk1::allocator<geode::Task<geode::Result<std::__ndk1::__fs::filesystem::path, std::__ndk1::basic_string<char, std::__ndk1::char_traits<char>, std::__ndk1::allocator<char> > >, std::__ndk1::monostate>::listen<CodeBlock::onSave()::$_0, CodeBlock::onSave()::$_1, CodeBlock::onSave()::$_2>(CodeBlock::onSave()::$_0&&, CodeBlock::onSave()::$_1&&, CodeBlock::onSave()::$_2&&) const::{lambda(geode::Task<geode::Result<std::__ndk1::__fs::filesystem::path, std::__ndk1::basic_string<char, std::__ndk1::char_traits<char>, std::__ndk1::allocator<char> > >, std::__ndk1::monostate>::Event*)#1}::operator()(geode::Task<geode::Result<std::__ndk1::__fs::filesystem::path, std::__ndk1::basic_string<char, std::__ndk1::char_traits<char>, std::__ndk1::allocator<char> > >, std::__ndk1::monostate>::Event*)::{lambda()#1}>, void ()>::~__func()
PUBLIC 95020 0 std::__ndk1::__function::__func<geode::Task<geode::Result<std::__ndk1::__fs::filesystem::path, std::__ndk1::basic_string<char, std::__ndk1::char_traits<char>, std::__ndk1::allocator<char> > >, std::__ndk1::monostate>::listen<CodeBlock::onSave()::$_0, CodeBlock::onSave()::$_1, CodeBlock::onSave()::$_2>(CodeBlock::onSave()::$_0&&, CodeBlock::onSave()::$_1&&, CodeBlock::onSave()::$_2&&) const::{lambda(geode::Task<geode::Result<std::__ndk1::__fs::filesystem::path, std::__ndk1::basic_string<char, std::__ndk1::char_traits<char>, std::__ndk1::allocator<char> > >, std::__ndk1::monostate>::Event*)#1}::operator()(geode::Task<geode::Result<std::__ndk1::__fs::filesystem::path, std::__ndk1::basic_string<char, std::__ndk1::char_traits<char>, std::__ndk1::allocator<char> > >, std::__ndk1::monostate>::Event*)::{lambda()#1}, std::__ndk1::allocator<geode::Task<geode::Result<std::__ndk1::__fs::filesystem::path, std::__ndk1::basic_string<char, std::__ndk1::char_traits<char>, std::__ndk1::allocator<char> > >, std::__ndk1::monostate>::listen<CodeBlock::onSave()::$_0, CodeBlock::onSave()::$_1, CodeBlock::onSave()::$_2>(CodeBlock::onSave()::$_0&&, CodeBlock::onSave()::$_1&&, CodeBlock::onSave()::$_2&&) const::{lambda(geode::Task<geode::Result<std::__ndk1::__fs::filesystem::path, std::__ndk1::basic_string<char, std::__ndk1::char_traits<char>, std::__ndk1::allocator<char> > >, std::__ndk1::monostate>::Event*)#1}::operator()(geode::Task<geode::Result<std::__ndk1::__fs::filesystem::path, std::__ndk1::basic_string<char, std::__ndk1::char_traits<char>, std::__ndk1::allocator<char> > >, std::__ndk1::monostate>::Event*)::{lambda()#1}>, void ()>::__clone() const
PUBLIC 95054 0 std::__ndk1::__function::__func<geode::Task<geode::Result<std::__ndk1::__fs::filesystem::path, std::__ndk1::basic_string<char, std::__ndk1::char_traits<char>, std::__ndk1::allocator<char> > >, std::__ndk1::monostate>::listen<CodeBlock::onSave()::$_0, CodeBlock::onSave()::$_1, CodeBlock::onSave()::$_2>(CodeBlock::onSave()::$_0&&, CodeBlock::onSave()::$_1&&, CodeBlock::onSave()::$_2&&) const::{lambda(geode::Task<geode::Result<std::__ndk1::__fs::filesystem::path, std::__ndk1::basic_string<char, std::__ndk1::char_traits<char>, std::__ndk1::allocator<char> > >, std::__ndk1::monostate>::Event*)#1}::operator()(geode::Task<geode::Result<std::__ndk1::__fs::filesystem::path, std::__ndk1::basic_string<char, std::__ndk1::char_traits<char>, std::__ndk1::allocator<char> > >, std::__ndk1::monostate>::Event*)::{lambda()#1}, std::__ndk1::allocator<geode::Task<geode::Result<std::__ndk1::__fs::filesystem::path, std::__ndk1::basic_string<char, std::__ndk1::char_traits<char>, std::__ndk1::allocator<char> > >, std::__ndk1::monostate>::listen<CodeBlock::onSave()::$_0, CodeBlock::onSave()::$_1, CodeBlock::onSave()::$_2>(CodeBlock::onSave()::$_0&&, CodeBlock::onSave()::$_1&&, CodeBlock::onSave()::$_2&&) const::{lambda(geode::Task<geode::Result<std::__ndk1::__fs::filesystem::path, std::__ndk1::basic_string<char, std::__ndk1::char_traits<char>, std::__ndk1::allocator<char> > >, std::__ndk1::monostate>::Event*)#1}::operator()(geode::Task<geode::Result<std::__ndk1::__fs::filesystem::path, std::__ndk1::basic_string<char, std::__ndk1::char_traits<char>, std::__ndk1::allocator<char> > >, std::__ndk1::monostate>::Event*)::{lambda()#1}>, void ()>::__clone(std::__ndk1::__function::__base<void ()>*) const
PUBLIC 95068 0 std::__ndk1::__function::__func<geode::Task<geode::Result<std::__ndk1::__fs::filesystem::path, std::__ndk1::basic_string<char, std::__ndk1::char_traits<char>, std::__ndk1::allocator<char> > >, std::__ndk1::monostate>::listen<CodeBlock::onSave()::$_0, CodeBlock::onSave()::$_1, CodeBlock::onSave()::$_2>(CodeBlock::onSave()::$_0&&, CodeBlock::onSave()::$_1&&, CodeBlock::onSave()::$_2&&) const::{lambda(geode::Task<geode::Result<std::__ndk1::__fs::filesystem::path, std::__ndk1::basic_string<char, std::__ndk1::char_traits<char>, std::__ndk1::allocator<char> > >, std::__ndk1::monostate>::Event*)#1}::operator()(geode::Task<geode::Result<std::__ndk1::__fs::filesystem::path, std::__ndk1::basic_string<char, std::__ndk1::char_traits<char>, std::__ndk1::allocator<char> > >, std::__ndk1::monostate>::Event*)::{lambda()#1}, std::__ndk1::allocator<geode::Task<geode::Result<std::__ndk1::__fs::filesystem::path, std::__ndk1::basic_string<char, std::__ndk1::char_traits<char>, std::__ndk1::allocator<char> > >, std::__ndk1::monostate>::listen<CodeBlock::onSave()::$_0, CodeBlock::onSave()::$_1, CodeBlock::onSave()::$_2>(CodeBlock::onSave()::$_0&&, CodeBlock::onSave()::$_1&&, CodeBlock::onSave()::$_2&&) const::{lambda(geode::Task<geode::Result<std::__ndk1::__fs::filesystem::path, std::__ndk1::basic_string<char, std::__ndk1::char_traits<char>, std::__ndk1::allocator<char> > >, std::__ndk1::monostate>::Event*)#1}::operator()(geode::Task<geode::Result<std::__ndk1::__fs::filesystem::path, std::__ndk1::basic_string<char, std::__ndk1::char_traits<char>, std::__ndk1::allocator<char> > >, std::__ndk1::monostate>::Event*)::{lambda()#1}>, void ()>::destroy()
PUBLIC 9506c 0 std::__ndk1::__function::__func<geode::Task<geode::Result<std::__ndk1::__fs::filesystem::path, std::__ndk1::basic_string<char, std::__ndk1::char_traits<char>, std::__ndk1::allocator<char> > >, std::__ndk1::monostate>::listen<CodeBlock::onSave()::$_0, CodeBlock::onSave()::$_1, CodeBlock::onSave()::$_2>(CodeBlock::onSave()::$_0&&, CodeBlock::onSave()::$_1&&, CodeBlock::onSave()::$_2&&) const::{lambda(geode::Task<geode::Result<std::__ndk1::__fs::filesystem::path, std::__ndk1::basic_string<char, std::__ndk1::char_traits<char>, std::__ndk1::allocator<char> > >, std::__ndk1::monostate>::Event*)#1}::operator()(geode::Task<geode::Result<std::__ndk1::__fs::filesystem::path, std::__ndk1::basic_string<char, std::__ndk1::char_traits<char>, std::__ndk1::allocator<char> > >, std::__ndk1::monostate>::Event*)::{lambda()#1}, std::__ndk1::allocator<geode::Task<geode::Result<std::__ndk1::__fs::filesystem::path, std::__ndk1::basic_string<char, std::__ndk1::char_traits<char>, std::__ndk1::allocator<char> > >, std::__ndk1::monostate>::listen<CodeBlock::onSave()::$_0, CodeBlock::onSave()::$_1, CodeBlock::onSave()::$_2>(CodeBlock::onSave()::$_0&&, CodeBlock::onSave()::$_1&&, CodeBlock::onSave()::$_2&&) const::{lambda(geode::Task<geode::Result<std::__ndk1::__fs::filesystem::path, std::__ndk1::basic_string<char, std::__ndk1::char_traits<char>, std::__ndk1::allocator<char> > >, std::__ndk1::monostate>::Event*)#1}::operator()(geode::Task<geode::Result<std::__ndk1::__fs::filesystem::path, std::__ndk1::basic_string<char, std::__ndk1::char_traits<char>, std::__ndk1::allocator<char> > >, std::__ndk1::monostate>::Event*)::{lambda()#1}>, void ()>::destroy_deallocate()
PUBLIC 95070 0 std::__ndk1::__function::__func<geode::Task<geode::Result<std::__ndk1::__fs::filesystem::path, std::__ndk1::basic_string<char, std::__ndk1::char_traits<char>, std::__ndk1::allocator<char> > >, std::__ndk1::monostate>::listen<CodeBlock::onSave()::$_0, CodeBlock::onSave()::$_1, CodeBlock::onSave()::$_2>(CodeBlock::onSave()::$_0&&, CodeBlock::onSave()::$_1&&, CodeBlock::onSave()::$_2&&) const::{lambda(geode::Task<geode::Result<std::__ndk1::__fs::filesystem::path, std::__ndk1::basic_string<char, std::__ndk1::char_traits<char>, std::__ndk1::allocator<char> > >, std::__ndk1::monostate>::Event*)#1}::operator()(geode::Task<geode::Result<std::__ndk1::__fs::filesystem::path, std::__ndk1::basic_string<char, std::__ndk1::char_traits<char>, std::__ndk1::allocator<char> > >, std::__ndk1::monostate>::Event*)::{lambda()#1}, std::__ndk1::allocator<geode::Task<geode::Result<std::__ndk1::__fs::filesystem::path, std::__ndk1::basic_string<char, std::__ndk1::char_traits<char>, std::__ndk1::allocator<char> > >, std::__ndk1::monostate>::listen<CodeBlock::onSave()::$_0, CodeBlock::onSave()::$_1, CodeBlock::onSave()::$_2>(CodeBlock::onSave()::$_0&&, CodeBlock::onSave()::$_1&&, CodeBlock::onSave()::$_2&&) const::{lambda(geode::Task<geode::Result<std::__ndk1::__fs::filesystem::path, std::__ndk1::basic_string<char, std::__ndk1::char_traits<char>, std::__ndk1::allocator<char> > >, std::__ndk1::monostate>::Event*)#1}::operator()(geode::Task<geode::Result<std::__ndk1::__fs::filesystem::path, std::__ndk1::basic_string<char, std::__ndk1::char_traits<char>, std::__ndk1::allocator<char> > >, std::__ndk1::monostate>::Event*)::{lambda()#1}>, void ()>::operator()()
PUBLIC 95088 0 std::__ndk1::__function::__func<geode::Task<geode::Result<std::__ndk1::__fs::filesystem::path, std::__ndk1::basic_string<char, std::__ndk1::char_traits<char>, std::__ndk1::allocator<char> > >, std::__ndk1::monostate>::listen<CodeBlock::onSave()::$_0, CodeBlock::onSave()::$_1, CodeBlock::onSave()::$_2>(CodeBlock::onSave()::$_0&&, CodeBlock::onSave()::$_1&&, CodeBlock::onSave()::$_2&&) const::{lambda(geode::Task<geode::Result<std::__ndk1::__fs::filesystem::path, std::__ndk1::basic_string<char, std::__ndk1::char_traits<char>, std::__ndk1::allocator<char> > >, std::__ndk1::monostate>::Event*)#1}::operator()(geode::Task<geode::Result<std::__ndk1::__fs::filesystem::path, std::__ndk1::basic_string<char, std::__ndk1::char_traits<char>, std::__ndk1::allocator<char> > >, std::__ndk1::monostate>::Event*)::{lambda()#1}, std::__ndk1::allocator<geode::Task<geode::Result<std::__ndk1::__fs::filesystem::path, std::__ndk1::basic_string<char, std::__ndk1::char_traits<char>, std::__ndk1::allocator<char> > >, std::__ndk1::monostate>::listen<CodeBlock::onSave()::$_0, CodeBlock::onSave()::$_1, CodeBlock::onSave()::$_2>(CodeBlock::onSave()::$_0&&, CodeBlock::onSave()::$_1&&, CodeBlock::onSave()::$_2&&) const::{lambda(geode::Task<geode::Result<std::__ndk1::__fs::filesystem::path, std::__ndk1::basic_string<char, std::__ndk1::char_traits<char>, std::__ndk1::allocator<char> > >, std::__ndk1::monostate>::Event*)#1}::operator()(geode::Task<geode::Result<std::__ndk1::__fs::filesystem::path, std::__ndk1::basic_string<char, std::__ndk1::char_traits<char>, std::__ndk1::allocator<char> > >, std::__ndk1::monostate>::Event*)::{lambda()#1}>, void ()>::target(std::type_info const&) const
PUBLIC 950a4 0 std::__ndk1::__function::__func<geode::Task<geode::Result<std::__ndk1::__fs::filesystem::path, std::__ndk1::basic_string<char, std::__ndk1::char_traits<char>, std::__ndk1::allocator<char> > >, std::__ndk1::monostate>::listen<CodeBlock::onSave()::$_0, CodeBlock::onSave()::$_1, CodeBlock::onSave()::$_2>(CodeBlock::onSave()::$_0&&, CodeBlock::onSave()::$_1&&, CodeBlock::onSave()::$_2&&) const::{lambda(geode::Task<geode::Result<std::__ndk1::__fs::filesystem::path, std::__ndk1::basic_string<char, std::__ndk1::char_traits<char>, std::__ndk1::allocator<char> > >, std::__ndk1::monostate>::Event*)#1}::operator()(geode::Task<geode::Result<std::__ndk1::__fs::filesystem::path, std::__ndk1::basic_string<char, std::__ndk1::char_traits<char>, std::__ndk1::allocator<char> > >, std::__ndk1::monostate>::Event*)::{lambda()#1}, std::__ndk1::allocator<geode::Task<geode::Result<std::__ndk1::__fs::filesystem::path, std::__ndk1::basic_string<char, std::__ndk1::char_traits<char>, std::__ndk1::allocator<char> > >, std::__ndk1::monostate>::listen<CodeBlock::onSave()::$_0, CodeBlock::onSave()::$_1, CodeBlock::onSave()::$_2>(CodeBlock::onSave()::$_0&&, CodeBlock::onSave()::$_1&&, CodeBlock::onSave()::$_2&&) const::{lambda(geode::Task<geode::Result<std::__ndk1::__fs::filesystem::path, std::__ndk1::basic_string<char, std::__ndk1::char_traits<char>, std::__ndk1::allocator<char> > >, std::__ndk1::monostate>::Event*)#1}::operator()(geode::Task<geode::Result<std::__ndk1::__fs::filesystem::path, std::__ndk1::basic_string<char, std::__ndk1::char_traits<char>, std::__ndk1::allocator<char> > >, std::__ndk1::monostate>::Event*)::{lambda()#1}>, void ()>::target_type() const
PUBLIC 950b0 0 std::__ndk1::__exception_guard_exceptions<std::__ndk1::vector<std::__ndk1::pair<std::__ndk1::basic_string<char, std::__ndk1::char_traits<char>, std::__ndk1::allocator<char> >, std::__ndk1::basic_string<char, std::__ndk1::char_traits<char>, std::__ndk1::allocator<char> > >, std::__ndk1::allocator<std::__ndk1::pair<std::__ndk1::basic_string<char, std::__ndk1::char_traits<char>, std::__ndk1::allocator<char> >, std::__ndk1::basic_string<char, std::__ndk1::char_traits<char>, std::__ndk1::allocator<char> > > > >::__destroy_vector>::~__exception_guard_exceptions[abi:ne180000]()
PUBLIC 95164 0 std::__ndk1::vector<std::__ndk1::pair<std::__ndk1::basic_string<char, std::__ndk1::char_traits<char>, std::__ndk1::allocator<char> >, std::__ndk1::basic_string<char, std::__ndk1::char_traits<char>, std::__ndk1::allocator<char> > >, std::__ndk1::allocator<std::__ndk1::pair<std::__ndk1::basic_string<char, std::__ndk1::char_traits<char>, std::__ndk1::allocator<char> >, std::__ndk1::basic_string<char, std::__ndk1::char_traits<char>, std::__ndk1::allocator<char> > > > >::__throw_length_error[abi:ne180000]() const
PUBLIC 95178 0 std::__ndk1::__uninitialized_allocator_copy_impl[abi:ne180000]<std::__ndk1::allocator<std::__ndk1::pair<std::__ndk1::basic_string<char, std::__ndk1::char_traits<char>, std::__ndk1::__uninitialized_allocator_copy_impl[abi:ne180000]<char> >, std::__ndk1::__uninitialized_allocator_copy_impl[abi:ne180000]<char> > >, std::__ndk1::basic_string<char, std::__ndk1::char_traits<char>, std::__ndk1::__uninitialized_allocator_copy_impl[abi:ne180000]<char> > const*, std::__ndk1::basic_string<char, std::__ndk1::char_traits<char>, std::__ndk1::__uninitialized_allocator_copy_impl[abi:ne180000]<char> > const, std::__ndk1::basic_string<char, std::__ndk1::char_traits<char>, std::__ndk1::__uninitialized_allocator_copy_impl[abi:ne180000]<char> >*>(std::__ndk1::allocator<std::__ndk1::pair<std::__ndk1::basic_string<char, std::__ndk1::char_traits<char>, std::__ndk1::__uninitialized_allocator_copy_impl[abi:ne180000]<char> >, std::__ndk1::__uninitialized_allocator_copy_impl[abi:ne180000]<char> > >&, std::__ndk1::basic_string<char, std::__ndk1::char_traits<char>, std::__ndk1::__uninitialized_allocator_copy_impl[abi:ne180000]<char> > const*, std::__ndk1::basic_string<char, std::__ndk1::char_traits<char>, std::__ndk1::__uninitialized_allocator_copy_impl[abi:ne180000]<char> > const, std::__ndk1::basic_string<char, std::__ndk1::char_traits<char>, std::__ndk1::__uninitialized_allocator_copy_impl[abi:ne180000]<char> >*)
PUBLIC 9529c 0 std::__ndk1::__exception_guard_exceptions<std::__ndk1::_AllocatorDestroyRangeReverse<std::__ndk1::allocator<std::__ndk1::pair<std::__ndk1::basic_string<char, std::__ndk1::char_traits<char>, std::__ndk1::allocator<char> >, std::__ndk1::basic_string<char, std::__ndk1::char_traits<char>, std::__ndk1::allocator<char> > > >, std::__ndk1::pair<std::__ndk1::basic_string<char, std::__ndk1::char_traits<char>, std::__ndk1::allocator<char> >, std::__ndk1::basic_string<char, std::__ndk1::char_traits<char>, std::__ndk1::allocator<char> > >*> >::~__exception_guard_exceptions[abi:ne180000]()
PUBLIC 95300 0 LookupTable<std::__ndk1::basic_string<char, std::__ndk1::char_traits<char>, std::__ndk1::allocator<char> >, std::__ndk1::basic_string<char, std::__ndk1::char_traits<char>, std::__ndk1::allocator<char> > >::emplace(std::__ndk1::basic_string<char, std::__ndk1::char_traits<char>, std::__ndk1::allocator<char> > const&, std::__ndk1::pair<std::__ndk1::basic_string<char, std::__ndk1::char_traits<char>, std::__ndk1::allocator<char> >, std::__ndk1::basic_string<char, std::__ndk1::char_traits<char>, std::__ndk1::allocator<char> > > const&)
PUBLIC 95a88 0 LookupTable<std::__ndk1::basic_string<char, std::__ndk1::char_traits<char>, std::__ndk1::allocator<char> >, std::__ndk1::basic_string<char, std::__ndk1::char_traits<char>, std::__ndk1::allocator<char> > >::erase(std::__ndk1::basic_string<char, std::__ndk1::char_traits<char>, std::__ndk1::allocator<char> > const&)
PUBLIC 95c34 0 std::__ndk1::__split_buffer<std::__ndk1::pair<std::__ndk1::basic_string<char, std::__ndk1::char_traits<char>, std::__ndk1::allocator<char> >, std::__ndk1::basic_string<char, std::__ndk1::char_traits<char>, std::__ndk1::allocator<char> > >, std::__ndk1::allocator<std::__ndk1::pair<std::__ndk1::basic_string<char, std::__ndk1::char_traits<char>, std::__ndk1::allocator<char> >, std::__ndk1::basic_string<char, std::__ndk1::char_traits<char>, std::__ndk1::allocator<char> > > >&>::~__split_buffer()
PUBLIC 95cb0 0 std::__ndk1::vector<std::__ndk1::pair<std::__ndk1::basic_string<char, std::__ndk1::char_traits<char>, std::__ndk1::allocator<char> >, std::__ndk1::basic_string<char, std::__ndk1::char_traits<char>, std::__ndk1::allocator<char> > >, std::__ndk1::allocator<std::__ndk1::pair<std::__ndk1::basic_string<char, std::__ndk1::char_traits<char>, std::__ndk1::allocator<char> >, std::__ndk1::basic_string<char, std::__ndk1::char_traits<char>, std::__ndk1::allocator<char> > > > >::__push_back_slow_path<std::__ndk1::pair<std::__ndk1::basic_string<char, std::__ndk1::char_traits<char>, std::__ndk1::allocator<char> >, std::__ndk1::basic_string<char, std::__ndk1::char_traits<char>, std::__ndk1::allocator<char> > > const&>(std::__ndk1::pair<std::__ndk1::basic_string<char, std::__ndk1::char_traits<char>, std::__ndk1::allocator<char> >, std::__ndk1::basic_string<char, std::__ndk1::char_traits<char>, std::__ndk1::allocator<char> > > const&)
PUBLIC 95f38 0 std::__ndk1::__function::__base<std::__ndk1::basic_string<char, std::__ndk1::char_traits<char>, std::__ndk1::allocator<char> >(std::__ndk1::basic_string<char, std::__ndk1::char_traits<char>, std::__ndk1::allocator<char> > const&, std::__ndk1::pair<std::__ndk1::basic_string<char, std::__ndk1::char_traits<char>, std::__ndk1::allocator<char> >, std::__ndk1::basic_string<char, std::__ndk1::char_traits<char>, std::__ndk1::allocator<char> > > const&)>::~__base()
PUBLIC 95f3c 0 std::__ndk1::__function::__func<CodeBlock::onInfo()::$_0, std::__ndk1::allocator<CodeBlock::onInfo()::$_0>, std::__ndk1::basic_string<char, std::__ndk1::char_traits<char>, std::__ndk1::allocator<char> >(std::__ndk1::basic_string<char, std::__ndk1::char_traits<char>, std::__ndk1::allocator<char> > const&, std::__ndk1::pair<std::__ndk1::basic_string<char, std::__ndk1::char_traits<char>, std::__ndk1::allocator<char> >, std::__ndk1::basic_string<char, std::__ndk1::char_traits<char>, std::__ndk1::allocator<char> > > const&)>::~__func()
PUBLIC 95f40 0 std::__ndk1::__function::__func<CodeBlock::onInfo()::$_0, std::__ndk1::allocator<CodeBlock::onInfo()::$_0>, std::__ndk1::basic_string<char, std::__ndk1::char_traits<char>, std::__ndk1::allocator<char> >(std::__ndk1::basic_string<char, std::__ndk1::char_traits<char>, std::__ndk1::allocator<char> > const&, std::__ndk1::pair<std::__ndk1::basic_string<char, std::__ndk1::char_traits<char>, std::__ndk1::allocator<char> >, std::__ndk1::basic_string<char, std::__ndk1::char_traits<char>, std::__ndk1::allocator<char> > > const&)>::__clone() const
PUBLIC 95f64 0 std::__ndk1::__function::__func<CodeBlock::onInfo()::$_0, std::__ndk1::allocator<CodeBlock::onInfo()::$_0>, std::__ndk1::basic_string<char, std::__ndk1::char_traits<char>, std::__ndk1::allocator<char> >(std::__ndk1::basic_string<char, std::__ndk1::char_traits<char>, std::__ndk1::allocator<char> > const&, std::__ndk1::pair<std::__ndk1::basic_string<char, std::__ndk1::char_traits<char>, std::__ndk1::allocator<char> >, std::__ndk1::basic_string<char, std::__ndk1::char_traits<char>, std::__ndk1::allocator<char> > > const&)>::__clone(std::__ndk1::__function::__base<std::__ndk1::basic_string<char, std::__ndk1::char_traits<char>, std::__ndk1::allocator<char> >(std::__ndk1::basic_string<char, std::__ndk1::char_traits<char>, std::__ndk1::allocator<char> > const&, std::__ndk1::pair<std::__ndk1::basic_string<char, std::__ndk1::char_traits<char>, std::__ndk1::allocator<char> >, std::__ndk1::basic_string<char, std::__ndk1::char_traits<char>, std::__ndk1::allocator<char> > > const&)>*) const
PUBLIC 95f74 0 std::__ndk1::__function::__func<CodeBlock::onInfo()::$_0, std::__ndk1::allocator<CodeBlock::onInfo()::$_0>, std::__ndk1::basic_string<char, std::__ndk1::char_traits<char>, std::__ndk1::allocator<char> >(std::__ndk1::basic_string<char, std::__ndk1::char_traits<char>, std::__ndk1::allocator<char> > const&, std::__ndk1::pair<std::__ndk1::basic_string<char, std::__ndk1::char_traits<char>, std::__ndk1::allocator<char> >, std::__ndk1::basic_string<char, std::__ndk1::char_traits<char>, std::__ndk1::allocator<char> > > const&)>::destroy()
PUBLIC 95f78 0 std::__ndk1::__function::__func<CodeBlock::onInfo()::$_0, std::__ndk1::allocator<CodeBlock::onInfo()::$_0>, std::__ndk1::basic_string<char, std::__ndk1::char_traits<char>, std::__ndk1::allocator<char> >(std::__ndk1::basic_string<char, std::__ndk1::char_traits<char>, std::__ndk1::allocator<char> > const&, std::__ndk1::pair<std::__ndk1::basic_string<char, std::__ndk1::char_traits<char>, std::__ndk1::allocator<char> >, std::__ndk1::basic_string<char, std::__ndk1::char_traits<char>, std::__ndk1::allocator<char> > > const&)>::destroy_deallocate()
PUBLIC 95f7c 0 std::__ndk1::__function::__func<CodeBlock::onInfo()::$_0, std::__ndk1::allocator<CodeBlock::onInfo()::$_0>, std::__ndk1::basic_string<char, std::__ndk1::char_traits<char>, std::__ndk1::allocator<char> >(std::__ndk1::basic_string<char, std::__ndk1::char_traits<char>, std::__ndk1::allocator<char> > const&, std::__ndk1::pair<std::__ndk1::basic_string<char, std::__ndk1::char_traits<char>, std::__ndk1::allocator<char> >, std::__ndk1::basic_string<char, std::__ndk1::char_traits<char>, std::__ndk1::allocator<char> > > const&)>::operator()(std::__ndk1::basic_string<char, std::__ndk1::char_traits<char>, std::__ndk1::allocator<char> > const&, std::__ndk1::pair<std::__ndk1::basic_string<char, std::__ndk1::char_traits<char>, std::__ndk1::allocator<char> >, std::__ndk1::basic_string<char, std::__ndk1::char_traits<char>, std::__ndk1::allocator<char> > > const&)
PUBLIC 96218 0 std::__ndk1::__function::__func<CodeBlock::onInfo()::$_0, std::__ndk1::allocator<CodeBlock::onInfo()::$_0>, std::__ndk1::basic_string<char, std::__ndk1::char_traits<char>, std::__ndk1::allocator<char> >(std::__ndk1::basic_string<char, std::__ndk1::char_traits<char>, std::__ndk1::allocator<char> > const&, std::__ndk1::pair<std::__ndk1::basic_string<char, std::__ndk1::char_traits<char>, std::__ndk1::allocator<char> >, std::__ndk1::basic_string<char, std::__ndk1::char_traits<char>, std::__ndk1::allocator<char> > > const&)>::target(std::type_info const&) const
PUBLIC 96234 0 std::__ndk1::__function::__func<CodeBlock::onInfo()::$_0, std::__ndk1::allocator<CodeBlock::onInfo()::$_0>, std::__ndk1::basic_string<char, std::__ndk1::char_traits<char>, std::__ndk1::allocator<char> >(std::__ndk1::basic_string<char, std::__ndk1::char_traits<char>, std::__ndk1::allocator<char> > const&, std::__ndk1::pair<std::__ndk1::basic_string<char, std::__ndk1::char_traits<char>, std::__ndk1::allocator<char> >, std::__ndk1::basic_string<char, std::__ndk1::char_traits<char>, std::__ndk1::allocator<char> > > const&)>::target_type() const
PUBLIC 96240 0 _GLOBAL__sub_I_CodeBlock.events.cpp
PUBLIC 99440 0 SideBar::ActionID::ActionID(std::__ndk1::basic_string<char, std::__ndk1::char_traits<char>, std::__ndk1::allocator<char> > const&)
PUBLIC 9968c 0 SideBar::ActionID::getCategory(LookupTable<SideBarCell::SideBarCategory, std::__ndk1::vector<SideBarCell::SideBarAction, std::__ndk1::allocator<SideBarCell::SideBarAction> > > const&) const
PUBLIC 99804 0 SideBar::init(float)
PUBLIC 9a754 0 SideBar::SideBar(CodeBlock*, std::__ndk1::vector<SideBarCell::SideBarView, std::__ndk1::allocator<SideBarCell::SideBarView> > const&, LookupTable<SideBarCell::SideBarCategory, std::__ndk1::vector<SideBarCell::SideBarAction, std::__ndk1::allocator<SideBarCell::SideBarAction> > > const&)
PUBLIC 9a86c 0 SideBar::createMenuItem(SharedWidthNode<HoverNode<cocos2d::CCLayerColor> >*, void (cocos2d::CCObject::*)(cocos2d::CCObject*))
PUBLIC 9aac8 0 SideBar::reloadState()
PUBLIC 9ae70 0 SideBar::draw()
PUBLIC 9af54 0 std::__ndk1::vector<SideBarCell::SideBarView, std::__ndk1::allocator<SideBarCell::SideBarView> >::__init_with_size[abi:ne180000]<SideBarCell::SideBarView*, std::__ndk1::vector<SideBarCell::SideBarView, std::__ndk1::allocator<SideBarCell::SideBarView> >::__init_with_size[abi:ne180000]>(SideBarCell::SideBarView*, std::__ndk1::vector<SideBarCell::SideBarView, std::__ndk1::allocator<SideBarCell::SideBarView> >::__init_with_size[abi:ne180000], unsigned long)
PUBLIC 9b1a8 0 std::__ndk1::vector<SideBarCell::SideBarView, std::__ndk1::allocator<SideBarCell::SideBarView> >::__throw_length_error[abi:ne180000]() const
PUBLIC 9b1bc 0 std::__ndk1::__exception_guard_exceptions<std::__ndk1::_AllocatorDestroyRangeReverse<std::__ndk1::allocator<SideBarCell::SideBarView>, SideBarCell::SideBarView*> >::~__exception_guard_exceptions[abi:ne180000]()
PUBLIC 9b26c 0 std::__ndk1::vector<std::__ndk1::pair<SideBarCell::SideBarCategory, std::__ndk1::vector<SideBarCell::SideBarAction, std::__ndk1::allocator<SideBarCell::SideBarAction> > >, std::__ndk1::allocator<std::__ndk1::pair<SideBarCell::SideBarCategory, std::__ndk1::vector<SideBarCell::SideBarAction, std::__ndk1::allocator<SideBarCell::SideBarAction> > > > >::__init_with_size[abi:ne180000]<std::__ndk1::pair<SideBarCell::SideBarCategory, std::__ndk1::vector<SideBarCell::SideBarAction, std::__ndk1::allocator<SideBarCell::SideBarAction> > >*, std::__ndk1::vector<std::__ndk1::pair<SideBarCell::SideBarCategory, std::__ndk1::vector<SideBarCell::SideBarAction, std::__ndk1::allocator<SideBarCell::SideBarAction> > >, std::__ndk1::allocator<std::__ndk1::pair<SideBarCell::SideBarCategory, std::__ndk1::vector<SideBarCell::SideBarAction, std::__ndk1::allocator<SideBarCell::SideBarAction> > > > >::__init_with_size[abi:ne180000]>(std::__ndk1::pair<SideBarCell::SideBarCategory, std::__ndk1::vector<SideBarCell::SideBarAction, std::__ndk1::allocator<SideBarCell::SideBarAction> > >*, std::__ndk1::vector<std::__ndk1::pair<SideBarCell::SideBarCategory, std::__ndk1::vector<SideBarCell::SideBarAction, std::__ndk1::allocator<SideBarCell::SideBarAction> > >, std::__ndk1::allocator<std::__ndk1::pair<SideBarCell::SideBarCategory, std::__ndk1::vector<SideBarCell::SideBarAction, std::__ndk1::allocator<SideBarCell::SideBarAction> > > > >::__init_with_size[abi:ne180000], unsigned long)
PUBLIC 9b3b4 0 std::__ndk1::vector<ViewCell*, std::__ndk1::allocator<ViewCell*> >::__throw_length_error[abi:ne180000]() const
PUBLIC 9b3c8 0 std::__ndk1::vector<SharedWidthNode<HoverNode<cocos2d::CCLayerColor> >*, std::__ndk1::allocator<SharedWidthNode<HoverNode<cocos2d::CCLayerColor> >*> >::__throw_length_error[abi:ne180000]() const
PUBLIC 9b3dc 0 std::__ndk1::vector<SideBarCell::SideBarAction, std::__ndk1::allocator<SideBarCell::SideBarAction> >::__throw_out_of_range[abi:ne180000]() const
PUBLIC 9b3f0 0 std::__ndk1::vector<ActionCell*, std::__ndk1::allocator<ActionCell*> >::__throw_length_error[abi:ne180000]() const
PUBLIC 9b404 0 std::__ndk1::__function::__base<void (std::__ndk1::basic_string<char, std::__ndk1::char_traits<char>, std::__ndk1::allocator<char> > const&, unsigned long)>::~__base()
PUBLIC 9b408 0 std::__ndk1::__function::__func<SideBar::ActionID::ActionID(std::__ndk1::basic_string<char, std::__ndk1::char_traits<char>, std::__ndk1::allocator<char> > const&)::$_0, std::__ndk1::allocator<SideBar::ActionID::ActionID(std::__ndk1::basic_string<char, std::__ndk1::char_traits<char>, std::__ndk1::allocator<char> > const&)::$_0>, void (std::__ndk1::basic_string<char, std::__ndk1::char_traits<char>, std::__ndk1::allocator<char> > const&, unsigned long)>::~__func()
PUBLIC 9b40c 0 std::__ndk1::__function::__func<SideBar::ActionID::ActionID(std::__ndk1::basic_string<char, std::__ndk1::char_traits<char>, std::__ndk1::allocator<char> > const&)::$_0, std::__ndk1::allocator<SideBar::ActionID::ActionID(std::__ndk1::basic_string<char, std::__ndk1::char_traits<char>, std::__ndk1::allocator<char> > const&)::$_0>, void (std::__ndk1::basic_string<char, std::__ndk1::char_traits<char>, std::__ndk1::allocator<char> > const&, unsigned long)>::__clone() const
PUBLIC 9b440 0 std::__ndk1::__function::__func<SideBar::ActionID::ActionID(std::__ndk1::basic_string<char, std::__ndk1::char_traits<char>, std::__ndk1::allocator<char> > const&)::$_0, std::__ndk1::allocator<SideBar::ActionID::ActionID(std::__ndk1::basic_string<char, std::__ndk1::char_traits<char>, std::__ndk1::allocator<char> > const&)::$_0>, void (std::__ndk1::basic_string<char, std::__ndk1::char_traits<char>, std::__ndk1::allocator<char> > const&, unsigned long)>::__clone(std::__ndk1::__function::__base<void (std::__ndk1::basic_string<char, std::__ndk1::char_traits<char>, std::__ndk1::allocator<char> > const&, unsigned long)>*) const
PUBLIC 9b454 0 std::__ndk1::__function::__func<SideBar::ActionID::ActionID(std::__ndk1::basic_string<char, std::__ndk1::char_traits<char>, std::__ndk1::allocator<char> > const&)::$_0, std::__ndk1::allocator<SideBar::ActionID::ActionID(std::__ndk1::basic_string<char, std::__ndk1::char_traits<char>, std::__ndk1::allocator<char> > const&)::$_0>, void (std::__ndk1::basic_string<char, std::__ndk1::char_traits<char>, std::__ndk1::allocator<char> > const&, unsigned long)>::destroy()
PUBLIC 9b458 0 std::__ndk1::__function::__func<SideBar::ActionID::ActionID(std::__ndk1::basic_string<char, std::__ndk1::char_traits<char>, std::__ndk1::allocator<char> > const&)::$_0, std::__ndk1::allocator<SideBar::ActionID::ActionID(std::__ndk1::basic_string<char, std::__ndk1::char_traits<char>, std::__ndk1::allocator<char> > const&)::$_0>, void (std::__ndk1::basic_string<char, std::__ndk1::char_traits<char>, std::__ndk1::allocator<char> > const&, unsigned long)>::destroy_deallocate()
PUBLIC 9b45c 0 std::__ndk1::__function::__func<SideBar::ActionID::ActionID(std::__ndk1::basic_string<char, std::__ndk1::char_traits<char>, std::__ndk1::allocator<char> > const&)::$_0, std::__ndk1::allocator<SideBar::ActionID::ActionID(std::__ndk1::basic_string<char, std::__ndk1::char_traits<char>, std::__ndk1::allocator<char> > const&)::$_0>, void (std::__ndk1::basic_string<char, std::__ndk1::char_traits<char>, std::__ndk1::allocator<char> > const&, unsigned long)>::operator()(std::__ndk1::basic_string<char, std::__ndk1::char_traits<char>, std::__ndk1::allocator<char> > const&, unsigned long&&)
PUBLIC 9b528 0 std::__ndk1::__function::__func<SideBar::ActionID::ActionID(std::__ndk1::basic_string<char, std::__ndk1::char_traits<char>, std::__ndk1::allocator<char> > const&)::$_0, std::__ndk1::allocator<SideBar::ActionID::ActionID(std::__ndk1::basic_string<char, std::__ndk1::char_traits<char>, std::__ndk1::allocator<char> > const&)::$_0>, void (std::__ndk1::basic_string<char, std::__ndk1::char_traits<char>, std::__ndk1::allocator<char> > const&, unsigned long)>::target(std::type_info const&) const
PUBLIC 9b544 0 std::__ndk1::__function::__func<SideBar::ActionID::ActionID(std::__ndk1::basic_string<char, std::__ndk1::char_traits<char>, std::__ndk1::allocator<char> > const&)::$_0, std::__ndk1::allocator<SideBar::ActionID::ActionID(std::__ndk1::basic_string<char, std::__ndk1::char_traits<char>, std::__ndk1::allocator<char> > const&)::$_0>, void (std::__ndk1::basic_string<char, std::__ndk1::char_traits<char>, std::__ndk1::allocator<char> > const&, unsigned long)>::target_type() const
PUBLIC 9b550 0 _GLOBAL__sub_I_SideBar.cpp
PUBLIC 9b768 0 SideBar::setup()
PUBLIC 9b9cc 0 SideBar::switchView(cocos2d::CCObject*)
PUBLIC 9bb34 0 SideBar::executeAction(cocos2d::CCObject*)
PUBLIC 9be50 0 SideBar::onScaleToMin()
PUBLIC 9bee4 0 SideBar::onScaleToMax()
PUBLIC 9bf78 0 SideBar::~SideBar()
PUBLIC 9c0cc 0 SideBar::~SideBar()
PUBLIC 9c0f0 0 KeybindNode<SharedWidthNode<cocos2d::CCLayerColor> >::init()
PUBLIC 9c110 0 {virtual override thunk({offset(-320)}, SideBar::~SideBar())}
PUBLIC 9c118 0 {virtual override thunk({offset(-320)}, SideBar::~SideBar())}
PUBLIC 9c140 0 std::__ndk1::vector<SideBarCell::SideBarView, std::__ndk1::allocator<SideBarCell::SideBarView> >::__throw_out_of_range[abi:ne180000]() const
PUBLIC 9c154 0 std::__ndk1::vector<ActionCell*, std::__ndk1::allocator<ActionCell*> >::__throw_out_of_range[abi:ne180000]() const
PUBLIC 9c168 0 std::__ndk1::__function::__func<KeybindNode<SharedWidthNode<cocos2d::CCLayerColor> >::bind(std::__ndk1::basic_string<char, std::__ndk1::char_traits<char>, std::__ndk1::allocator<char> > const&, std::__ndk1::function<void ()> const&)::{lambda(keybinds::InvokeBindEvent const*)#1}, std::__ndk1::allocator<KeybindNode<SharedWidthNode<cocos2d::CCLayerColor> >::bind(std::__ndk1::basic_string<char, std::__ndk1::char_traits<char>, std::__ndk1::allocator<char> > const&, std::__ndk1::function<void ()> const&)::{lambda(keybinds::InvokeBindEvent const*)#1}>, geode::ListenerResult(keybinds::InvokeBindEvent*)>::~__func()
PUBLIC 9c1b4 0 std::__ndk1::__function::__func<KeybindNode<SharedWidthNode<cocos2d::CCLayerColor> >::bind(std::__ndk1::basic_string<char, std::__ndk1::char_traits<char>, std::__ndk1::allocator<char> > const&, std::__ndk1::function<void ()> const&)::{lambda(keybinds::InvokeBindEvent const*)#1}, std::__ndk1::allocator<KeybindNode<SharedWidthNode<cocos2d::CCLayerColor> >::bind(std::__ndk1::basic_string<char, std::__ndk1::char_traits<char>, std::__ndk1::allocator<char> > const&, std::__ndk1::function<void ()> const&)::{lambda(keybinds::InvokeBindEvent const*)#1}>, geode::ListenerResult(keybinds::InvokeBindEvent*)>::~__func()
PUBLIC 9c210 0 std::__ndk1::__function::__func<KeybindNode<SharedWidthNode<cocos2d::CCLayerColor> >::bind(std::__ndk1::basic_string<char, std::__ndk1::char_traits<char>, std::__ndk1::allocator<char> > const&, std::__ndk1::function<void ()> const&)::{lambda(keybinds::InvokeBindEvent const*)#1}, std::__ndk1::allocator<KeybindNode<SharedWidthNode<cocos2d::CCLayerColor> >::bind(std::__ndk1::basic_string<char, std::__ndk1::char_traits<char>, std::__ndk1::allocator<char> > const&, std::__ndk1::function<void ()> const&)::{lambda(keybinds::InvokeBindEvent const*)#1}>, geode::ListenerResult(keybinds::InvokeBindEvent*)>::__clone() const
PUBLIC 9c2ac 0 std::__ndk1::__function::__func<KeybindNode<SharedWidthNode<cocos2d::CCLayerColor> >::bind(std::__ndk1::basic_string<char, std::__ndk1::char_traits<char>, std::__ndk1::allocator<char> > const&, std::__ndk1::function<void ()> const&)::{lambda(keybinds::InvokeBindEvent const*)#1}, std::__ndk1::allocator<KeybindNode<SharedWidthNode<cocos2d::CCLayerColor> >::bind(std::__ndk1::basic_string<char, std::__ndk1::char_traits<char>, std::__ndk1::allocator<char> > const&, std::__ndk1::function<void ()> const&)::{lambda(keybinds::InvokeBindEvent const*)#1}>, geode::ListenerResult(keybinds::InvokeBindEvent*)>::__clone(std::__ndk1::__function::__base<geode::ListenerResult(keybinds::InvokeBindEvent*)>*) const
PUBLIC 9c334 0 std::__ndk1::__function::__func<KeybindNode<SharedWidthNode<cocos2d::CCLayerColor> >::bind(std::__ndk1::basic_string<char, std::__ndk1::char_traits<char>, std::__ndk1::allocator<char> > const&, std::__ndk1::function<void ()> const&)::{lambda(keybinds::InvokeBindEvent const*)#1}, std::__ndk1::allocator<KeybindNode<SharedWidthNode<cocos2d::CCLayerColor> >::bind(std::__ndk1::basic_string<char, std::__ndk1::char_traits<char>, std::__ndk1::allocator<char> > const&, std::__ndk1::function<void ()> const&)::{lambda(keybinds::InvokeBindEvent const*)#1}>, geode::ListenerResult(keybinds::InvokeBindEvent*)>::destroy()
PUBLIC 9c374 0 std::__ndk1::__function::__func<KeybindNode<SharedWidthNode<cocos2d::CCLayerColor> >::bind(std::__ndk1::basic_string<char, std::__ndk1::char_traits<char>, std::__ndk1::allocator<char> > const&, std::__ndk1::function<void ()> const&)::{lambda(keybinds::InvokeBindEvent const*)#1}, std::__ndk1::allocator<KeybindNode<SharedWidthNode<cocos2d::CCLayerColor> >::bind(std::__ndk1::basic_string<char, std::__ndk1::char_traits<char>, std::__ndk1::allocator<char> > const&, std::__ndk1::function<void ()> const&)::{lambda(keybinds::InvokeBindEvent const*)#1}>, geode::ListenerResult(keybinds::InvokeBindEvent*)>::destroy_deallocate()
PUBLIC 9c3c4 0 std::__ndk1::__function::__func<KeybindNode<SharedWidthNode<cocos2d::CCLayerColor> >::bind(std::__ndk1::basic_string<char, std::__ndk1::char_traits<char>, std::__ndk1::allocator<char> > const&, std::__ndk1::function<void ()> const&)::{lambda(keybinds::InvokeBindEvent const*)#1}, std::__ndk1::allocator<KeybindNode<SharedWidthNode<cocos2d::CCLayerColor> >::bind(std::__ndk1::basic_string<char, std::__ndk1::char_traits<char>, std::__ndk1::allocator<char> > const&, std::__ndk1::function<void ()> const&)::{lambda(keybinds::InvokeBindEvent const*)#1}>, geode::ListenerResult(keybinds::InvokeBindEvent*)>::operator()(keybinds::InvokeBindEvent*&&)
PUBLIC 9c40c 0 std::__ndk1::__function::__func<KeybindNode<SharedWidthNode<cocos2d::CCLayerColor> >::bind(std::__ndk1::basic_string<char, std::__ndk1::char_traits<char>, std::__ndk1::allocator<char> > const&, std::__ndk1::function<void ()> const&)::{lambda(keybinds::InvokeBindEvent const*)#1}, std::__ndk1::allocator<KeybindNode<SharedWidthNode<cocos2d::CCLayerColor> >::bind(std::__ndk1::basic_string<char, std::__ndk1::char_traits<char>, std::__ndk1::allocator<char> > const&, std::__ndk1::function<void ()> const&)::{lambda(keybinds::InvokeBindEvent const*)#1}>, geode::ListenerResult(keybinds::InvokeBindEvent*)>::target(std::type_info const&) const
PUBLIC 9c428 0 std::__ndk1::__function::__func<KeybindNode<SharedWidthNode<cocos2d::CCLayerColor> >::bind(std::__ndk1::basic_string<char, std::__ndk1::char_traits<char>, std::__ndk1::allocator<char> > const&, std::__ndk1::function<void ()> const&)::{lambda(keybinds::InvokeBindEvent const*)#1}, std::__ndk1::allocator<KeybindNode<SharedWidthNode<cocos2d::CCLayerColor> >::bind(std::__ndk1::basic_string<char, std::__ndk1::char_traits<char>, std::__ndk1::allocator<char> > const&, std::__ndk1::function<void ()> const&)::{lambda(keybinds::InvokeBindEvent const*)#1}>, geode::ListenerResult(keybinds::InvokeBindEvent*)>::target_type() const
PUBLIC 9c434 0 std::__ndk1::__function::__func<SideBar::setup()::$_0, std::__ndk1::allocator<SideBar::setup()::$_0>, void ()>::~__func()
PUBLIC 9c438 0 std::__ndk1::__function::__func<SideBar::setup()::$_0, std::__ndk1::allocator<SideBar::setup()::$_0>, void ()>::__clone() const
PUBLIC 9c46c 0 std::__ndk1::__function::__func<SideBar::setup()::$_0, std::__ndk1::allocator<SideBar::setup()::$_0>, void ()>::__clone(std::__ndk1::__function::__base<void ()>*) const
PUBLIC 9c480 0 std::__ndk1::__function::__func<SideBar::setup()::$_0, std::__ndk1::allocator<SideBar::setup()::$_0>, void ()>::destroy()
PUBLIC 9c484 0 std::__ndk1::__function::__func<SideBar::setup()::$_0, std::__ndk1::allocator<SideBar::setup()::$_0>, void ()>::destroy_deallocate()
PUBLIC 9c488 0 std::__ndk1::__function::__func<SideBar::setup()::$_0, std::__ndk1::allocator<SideBar::setup()::$_0>, void ()>::operator()()
PUBLIC 9c524 0 std::__ndk1::__function::__func<SideBar::setup()::$_0, std::__ndk1::allocator<SideBar::setup()::$_0>, void ()>::target(std::type_info const&) const
PUBLIC 9c540 0 std::__ndk1::__function::__func<SideBar::setup()::$_0, std::__ndk1::allocator<SideBar::setup()::$_0>, void ()>::target_type() const
PUBLIC 9c54c 0 SideBarCell::SideBarActionButton::SideBarActionButton(std::__ndk1::basic_string<char, std::__ndk1::char_traits<char>, std::__ndk1::allocator<char> > const&, std::__ndk1::basic_string<char, std::__ndk1::char_traits<char>, std::__ndk1::allocator<char> > const&, std::__ndk1::function<bool (CodeBlock*)> const&)
PUBLIC 9c66c 0 SideBarCell::SideBarAction::SideBarAction(SideBarCell::SideBarActionButton const&, SideBarCell::SideBarActionButton const&, std::__ndk1::function<bool (CodeBlock*)> const&, std::__ndk1::function<bool (CodeBlock*)> const&)
PUBLIC 9c79c 0 SideBarCell::SideBarAction::SideBarAction(std::__ndk1::basic_string<char, std::__ndk1::char_traits<char>, std::__ndk1::allocator<char> > const&, std::__ndk1::tuple<std::__ndk1::basic_string<char, std::__ndk1::char_traits<char>, std::__ndk1::allocator<char> >, std::__ndk1::basic_string<char, std::__ndk1::char_traits<char>, std::__ndk1::allocator<char> > > const&, std::__ndk1::tuple<std::__ndk1::basic_string<char, std::__ndk1::char_traits<char>, std::__ndk1::allocator<char> >, std::__ndk1::basic_string<char, std::__ndk1::char_traits<char>, std::__ndk1::allocator<char> > > const&, bool, std::__ndk1::tuple<std::__ndk1::function<bool (CodeBlock*, std::__ndk1::function<bool ()> const&)>, std::__ndk1::function<bool (CodeBlock*, std::__ndk1::function<bool ()> const&)> > const&)
PUBLIC 9cfe0 0 SideBarCell::SideBarAction::SideBarAction(std::__ndk1::basic_string<char, std::__ndk1::char_traits<char>, std::__ndk1::allocator<char> > const&, std::__ndk1::tuple<std::__ndk1::basic_string<char, std::__ndk1::char_traits<char>, std::__ndk1::allocator<char> >, std::__ndk1::basic_string<char, std::__ndk1::char_traits<char>, std::__ndk1::allocator<char> > > const&, std::__ndk1::tuple<std::__ndk1::basic_string<char, std::__ndk1::char_traits<char>, std::__ndk1::allocator<char> >, std::__ndk1::basic_string<char, std::__ndk1::char_traits<char>, std::__ndk1::allocator<char> > > const&, bool, std::__ndk1::tuple<std::__ndk1::function<bool (CodeBlock*, std::__ndk1::function<bool ()> const&)>, std::__ndk1::function<bool (CodeBlock*, std::__ndk1::function<bool ()> const&)> > const&)::$_0::~$_0()
PUBLIC 9d074 0 SideBarCell::SideBarAction::SideBarAction(std::__ndk1::basic_string<char, std::__ndk1::char_traits<char>, std::__ndk1::allocator<char> > const&, std::__ndk1::tuple<std::__ndk1::basic_string<char, std::__ndk1::char_traits<char>, std::__ndk1::allocator<char> >, std::__ndk1::basic_string<char, std::__ndk1::char_traits<char>, std::__ndk1::allocator<char> > > const&, std::__ndk1::tuple<std::__ndk1::basic_string<char, std::__ndk1::char_traits<char>, std::__ndk1::allocator<char> >, std::__ndk1::basic_string<char, std::__ndk1::char_traits<char>, std::__ndk1::allocator<char> > > const&, bool, std::__ndk1::tuple<std::__ndk1::function<bool (CodeBlock*, std::__ndk1::function<bool ()> const&)>, std::__ndk1::function<bool (CodeBlock*, std::__ndk1::function<bool ()> const&)> > const&)::$_1::~$_1()
PUBLIC 9d108 0 ActionCell::ActionCell(CodeBlock*, SideBarCell::SideBarAction const&)
PUBLIC 9d25c 0 ActionCell::init()
PUBLIC 9d734 0 ActionCell::setState(bool)
PUBLIC 9d9f0 0 ActionCell::hideOpacity(float)
PUBLIC 9da04 0 ActionCell::enable()
PUBLIC 9db40 0 ActionCell::disable()
PUBLIC 9dc78 0 ActionCell::onHover()
PUBLIC 9dcd8 0 ActionCell::unHover()
PUBLIC 9dd28 0 ActionCell::onScaleToMin()
PUBLIC 9ddb8 0 ActionCell::onScaleToMax()
PUBLIC 9dec8 0 ActionCell::~ActionCell()
PUBLIC 9df2c 0 ActionCell::~ActionCell()
PUBLIC 9df98 0 HoverNode<cocos2d::CCLayerColor>::update(float)
PUBLIC 9df9c 0 {virtual override thunk({offset(-320)}, ActionCell::~ActionCell())}
PUBLIC 9e000 0 {virtual override thunk({offset(-320)}, ActionCell::~ActionCell())}
PUBLIC 9e06c 0 std::__ndk1::__function::__func<SideBarCell::SideBarAction::SideBarAction(std::__ndk1::basic_string<char, std::__ndk1::char_traits<char>, std::__ndk1::allocator<char> > const&, std::__ndk1::tuple<std::__ndk1::basic_string<char, std::__ndk1::char_traits<char>, std::__ndk1::allocator<char> >, std::__ndk1::basic_string<char, std::__ndk1::char_traits<char>, std::__ndk1::allocator<char> > > const&, std::__ndk1::tuple<std::__ndk1::basic_string<char, std::__ndk1::char_traits<char>, std::__ndk1::allocator<char> >, std::__ndk1::basic_string<char, std::__ndk1::char_traits<char>, std::__ndk1::allocator<char> > > const&, bool, std::__ndk1::tuple<std::__ndk1::function<bool (CodeBlock*, std::__ndk1::function<bool ()> const&)>, std::__ndk1::function<bool (CodeBlock*, std::__ndk1::function<bool ()> const&)> > const&)::$_0, std::__ndk1::allocator<SideBarCell::SideBarAction::SideBarAction(std::__ndk1::basic_string<char, std::__ndk1::char_traits<char>, std::__ndk1::allocator<char> > const&, std::__ndk1::tuple<std::__ndk1::basic_string<char, std::__ndk1::char_traits<char>, std::__ndk1::allocator<char> >, std::__ndk1::basic_string<char, std::__ndk1::char_traits<char>, std::__ndk1::allocator<char> > > const&, std::__ndk1::tuple<std::__ndk1::basic_string<char, std::__ndk1::char_traits<char>, std::__ndk1::allocator<char> >, std::__ndk1::basic_string<char, std::__ndk1::char_traits<char>, std::__ndk1::allocator<char> > > const&, bool, std::__ndk1::tuple<std::__ndk1::function<bool (CodeBlock*, std::__ndk1::function<bool ()> const&)>, std::__ndk1::function<bool (CodeBlock*, std::__ndk1::function<bool ()> const&)> > const&)::$_0>, bool (CodeBlock*)>::~__func()
PUBLIC 9e10c 0 std::__ndk1::__function::__func<SideBarCell::SideBarAction::SideBarAction(std::__ndk1::basic_string<char, std::__ndk1::char_traits<char>, std::__ndk1::allocator<char> > const&, std::__ndk1::tuple<std::__ndk1::basic_string<char, std::__ndk1::char_traits<char>, std::__ndk1::allocator<char> >, std::__ndk1::basic_string<char, std::__ndk1::char_traits<char>, std::__ndk1::allocator<char> > > const&, std::__ndk1::tuple<std::__ndk1::basic_string<char, std::__ndk1::char_traits<char>, std::__ndk1::allocator<char> >, std::__ndk1::basic_string<char, std::__ndk1::char_traits<char>, std::__ndk1::allocator<char> > > const&, bool, std::__ndk1::tuple<std::__ndk1::function<bool (CodeBlock*, std::__ndk1::function<bool ()> const&)>, std::__ndk1::function<bool (CodeBlock*, std::__ndk1::function<bool ()> const&)> > const&)::$_0, std::__ndk1::allocator<SideBarCell::SideBarAction::SideBarAction(std::__ndk1::basic_string<char, std::__ndk1::char_traits<char>, std::__ndk1::allocator<char> > const&, std::__ndk1::tuple<std::__ndk1::basic_string<char, std::__ndk1::char_traits<char>, std::__ndk1::allocator<char> >, std::__ndk1::basic_string<char, std::__ndk1::char_traits<char>, std::__ndk1::allocator<char> > > const&, std::__ndk1::tuple<std::__ndk1::basic_string<char, std::__ndk1::char_traits<char>, std::__ndk1::allocator<char> >, std::__ndk1::basic_string<char, std::__ndk1::char_traits<char>, std::__ndk1::allocator<char> > > const&, bool, std::__ndk1::tuple<std::__ndk1::function<bool (CodeBlock*, std::__ndk1::function<bool ()> const&)>, std::__ndk1::function<bool (CodeBlock*, std::__ndk1::function<bool ()> const&)> > const&)::$_0>, bool (CodeBlock*)>::~__func()
PUBLIC 9e1a8 0 std::__ndk1::__function::__func<SideBarCell::SideBarAction::SideBarAction(std::__ndk1::basic_string<char, std::__ndk1::char_traits<char>, std::__ndk1::allocator<char> > const&, std::__ndk1::tuple<std::__ndk1::basic_string<char, std::__ndk1::char_traits<char>, std::__ndk1::allocator<char> >, std::__ndk1::basic_string<char, std::__ndk1::char_traits<char>, std::__ndk1::allocator<char> > > const&, std::__ndk1::tuple<std::__ndk1::basic_string<char, std::__ndk1::char_traits<char>, std::__ndk1::allocator<char> >, std::__ndk1::basic_string<char, std::__ndk1::char_traits<char>, std::__ndk1::allocator<char> > > const&, bool, std::__ndk1::tuple<std::__ndk1::function<bool (CodeBlock*, std::__ndk1::function<bool ()> const&)>, std::__ndk1::function<bool (CodeBlock*, std::__ndk1::function<bool ()> const&)> > const&)::$_0, std::__ndk1::allocator<SideBarCell::SideBarAction::SideBarAction(std::__ndk1::basic_string<char, std::__ndk1::char_traits<char>, std::__ndk1::allocator<char> > const&, std::__ndk1::tuple<std::__ndk1::basic_string<char, std::__ndk1::char_traits<char>, std::__ndk1::allocator<char> >, std::__ndk1::basic_string<char, std::__ndk1::char_traits<char>, std::__ndk1::allocator<char> > > const&, std::__ndk1::tuple<std::__ndk1::basic_string<char, std::__ndk1::char_traits<char>, std::__ndk1::allocator<char> >, std::__ndk1::basic_string<char, std::__ndk1::char_traits<char>, std::__ndk1::allocator<char> > > const&, bool, std::__ndk1::tuple<std::__ndk1::function<bool (CodeBlock*, std::__ndk1::function<bool ()> const&)>, std::__ndk1::function<bool (CodeBlock*, std::__ndk1::function<bool ()> const&)> > const&)::$_0>, bool (CodeBlock*)>::__clone() const
PUBLIC 9e1fc 0 std::__ndk1::__function::__func<SideBarCell::SideBarAction::SideBarAction(std::__ndk1::basic_string<char, std::__ndk1::char_traits<char>, std::__ndk1::allocator<char> > const&, std::__ndk1::tuple<std::__ndk1::basic_string<char, std::__ndk1::char_traits<char>, std::__ndk1::allocator<char> >, std::__ndk1::basic_string<char, std::__ndk1::char_traits<char>, std::__ndk1::allocator<char> > > const&, std::__ndk1::tuple<std::__ndk1::basic_string<char, std::__ndk1::char_traits<char>, std::__ndk1::allocator<char> >, std::__ndk1::basic_string<char, std::__ndk1::char_traits<char>, std::__ndk1::allocator<char> > > const&, bool, std::__ndk1::tuple<std::__ndk1::function<bool (CodeBlock*, std::__ndk1::function<bool ()> const&)>, std::__ndk1::function<bool (CodeBlock*, std::__ndk1::function<bool ()> const&)> > const&)::$_0, std::__ndk1::allocator<SideBarCell::SideBarAction::SideBarAction(std::__ndk1::basic_string<char, std::__ndk1::char_traits<char>, std::__ndk1::allocator<char> > const&, std::__ndk1::tuple<std::__ndk1::basic_string<char, std::__ndk1::char_traits<char>, std::__ndk1::allocator<char> >, std::__ndk1::basic_string<char, std::__ndk1::char_traits<char>, std::__ndk1::allocator<char> > > const&, std::__ndk1::tuple<std::__ndk1::basic_string<char, std::__ndk1::char_traits<char>, std::__ndk1::allocator<char> >, std::__ndk1::basic_string<char, std::__ndk1::char_traits<char>, std::__ndk1::allocator<char> > > const&, bool, std::__ndk1::tuple<std::__ndk1::function<bool (CodeBlock*, std::__ndk1::function<bool ()> const&)>, std::__ndk1::function<bool (CodeBlock*, std::__ndk1::function<bool ()> const&)> > const&)::$_0>, bool (CodeBlock*)>::__clone(std::__ndk1::__function::__base<bool (CodeBlock*)>*) const
PUBLIC 9e218 0 std::__ndk1::__function::__func<SideBarCell::SideBarAction::SideBarAction(std::__ndk1::basic_string<char, std::__ndk1::char_traits<char>, std::__ndk1::allocator<char> > const&, std::__ndk1::tuple<std::__ndk1::basic_string<char, std::__ndk1::char_traits<char>, std::__ndk1::allocator<char> >, std::__ndk1::basic_string<char, std::__ndk1::char_traits<char>, std::__ndk1::allocator<char> > > const&, std::__ndk1::tuple<std::__ndk1::basic_string<char, std::__ndk1::char_traits<char>, std::__ndk1::allocator<char> >, std::__ndk1::basic_string<char, std::__ndk1::char_traits<char>, std::__ndk1::allocator<char> > > const&, bool, std::__ndk1::tuple<std::__ndk1::function<bool (CodeBlock*, std::__ndk1::function<bool ()> const&)>, std::__ndk1::function<bool (CodeBlock*, std::__ndk1::function<bool ()> const&)> > const&)::$_0, std::__ndk1::allocator<SideBarCell::SideBarAction::SideBarAction(std::__ndk1::basic_string<char, std::__ndk1::char_traits<char>, std::__ndk1::allocator<char> > const&, std::__ndk1::tuple<std::__ndk1::basic_string<char, std::__ndk1::char_traits<char>, std::__ndk1::allocator<char> >, std::__ndk1::basic_string<char, std::__ndk1::char_traits<char>, std::__ndk1::allocator<char> > > const&, std::__ndk1::tuple<std::__ndk1::basic_string<char, std::__ndk1::char_traits<char>, std::__ndk1::allocator<char> >, std::__ndk1::basic_string<char, std::__ndk1::char_traits<char>, std::__ndk1::allocator<char> > > const&, bool, std::__ndk1::tuple<std::__ndk1::function<bool (CodeBlock*, std::__ndk1::function<bool ()> const&)>, std::__ndk1::function<bool (CodeBlock*, std::__ndk1::function<bool ()> const&)> > const&)::$_0>, bool (CodeBlock*)>::destroy()
PUBLIC 9e2ac 0 std::__ndk1::__function::__func<SideBarCell::SideBarAction::SideBarAction(std::__ndk1::basic_string<char, std::__ndk1::char_traits<char>, std::__ndk1::allocator<char> > const&, std::__ndk1::tuple<std::__ndk1::basic_string<char, std::__ndk1::char_traits<char>, std::__ndk1::allocator<char> >, std::__ndk1::basic_string<char, std::__ndk1::char_traits<char>, std::__ndk1::allocator<char> > > const&, std::__ndk1::tuple<std::__ndk1::basic_string<char, std::__ndk1::char_traits<char>, std::__ndk1::allocator<char> >, std::__ndk1::basic_string<char, std::__ndk1::char_traits<char>, std::__ndk1::allocator<char> > > const&, bool, std::__ndk1::tuple<std::__ndk1::function<bool (CodeBlock*, std::__ndk1::function<bool ()> const&)>, std::__ndk1::function<bool (CodeBlock*, std::__ndk1::function<bool ()> const&)> > const&)::$_0, std::__ndk1::allocator<SideBarCell::SideBarAction::SideBarAction(std::__ndk1::basic_string<char, std::__ndk1::char_traits<char>, std::__ndk1::allocator<char> > const&, std::__ndk1::tuple<std::__ndk1::basic_string<char, std::__ndk1::char_traits<char>, std::__ndk1::allocator<char> >, std::__ndk1::basic_string<char, std::__ndk1::char_traits<char>, std::__ndk1::allocator<char> > > const&, std::__ndk1::tuple<std::__ndk1::basic_string<char, std::__ndk1::char_traits<char>, std::__ndk1::allocator<char> >, std::__ndk1::basic_string<char, std::__ndk1::char_traits<char>, std::__ndk1::allocator<char> > > const&, bool, std::__ndk1::tuple<std::__ndk1::function<bool (CodeBlock*, std::__ndk1::function<bool ()> const&)>, std::__ndk1::function<bool (CodeBlock*, std::__ndk1::function<bool ()> const&)> > const&)::$_0>, bool (CodeBlock*)>::destroy_deallocate()
PUBLIC 9e33c 0 std::__ndk1::__function::__func<SideBarCell::SideBarAction::SideBarAction(std::__ndk1::basic_string<char, std::__ndk1::char_traits<char>, std::__ndk1::allocator<char> > const&, std::__ndk1::tuple<std::__ndk1::basic_string<char, std::__ndk1::char_traits<char>, std::__ndk1::allocator<char> >, std::__ndk1::basic_string<char, std::__ndk1::char_traits<char>, std::__ndk1::allocator<char> > > const&, std::__ndk1::tuple<std::__ndk1::basic_string<char, std::__ndk1::char_traits<char>, std::__ndk1::allocator<char> >, std::__ndk1::basic_string<char, std::__ndk1::char_traits<char>, std::__ndk1::allocator<char> > > const&, bool, std::__ndk1::tuple<std::__ndk1::function<bool (CodeBlock*, std::__ndk1::function<bool ()> const&)>, std::__ndk1::function<bool (CodeBlock*, std::__ndk1::function<bool ()> const&)> > const&)::$_0, std::__ndk1::allocator<SideBarCell::SideBarAction::SideBarAction(std::__ndk1::basic_string<char, std::__ndk1::char_traits<char>, std::__ndk1::allocator<char> > const&, std::__ndk1::tuple<std::__ndk1::basic_string<char, std::__ndk1::char_traits<char>, std::__ndk1::allocator<char> >, std::__ndk1::basic_string<char, std::__ndk1::char_traits<char>, std::__ndk1::allocator<char> > > const&, std::__ndk1::tuple<std::__ndk1::basic_string<char, std::__ndk1::char_traits<char>, std::__ndk1::allocator<char> >, std::__ndk1::basic_string<char, std::__ndk1::char_traits<char>, std::__ndk1::allocator<char> > > const&, bool, std::__ndk1::tuple<std::__ndk1::function<bool (CodeBlock*, std::__ndk1::function<bool ()> const&)>, std::__ndk1::function<bool (CodeBlock*, std::__ndk1::function<bool ()> const&)> > const&)::$_0>, bool (CodeBlock*)>::operator()(CodeBlock*&&)
PUBLIC 9e63c 0 std::__ndk1::__function::__func<SideBarCell::SideBarAction::SideBarAction(std::__ndk1::basic_string<char, std::__ndk1::char_traits<char>, std::__ndk1::allocator<char> > const&, std::__ndk1::tuple<std::__ndk1::basic_string<char, std::__ndk1::char_traits<char>, std::__ndk1::allocator<char> >, std::__ndk1::basic_string<char, std::__ndk1::char_traits<char>, std::__ndk1::allocator<char> > > const&, std::__ndk1::tuple<std::__ndk1::basic_string<char, std::__ndk1::char_traits<char>, std::__ndk1::allocator<char> >, std::__ndk1::basic_string<char, std::__ndk1::char_traits<char>, std::__ndk1::allocator<char> > > const&, bool, std::__ndk1::tuple<std::__ndk1::function<bool (CodeBlock*, std::__ndk1::function<bool ()> const&)>, std::__ndk1::function<bool (CodeBlock*, std::__ndk1::function<bool ()> const&)> > const&)::$_0, std::__ndk1::allocator<SideBarCell::SideBarAction::SideBarAction(std::__ndk1::basic_string<char, std::__ndk1::char_traits<char>, std::__ndk1::allocator<char> > const&, std::__ndk1::tuple<std::__ndk1::basic_string<char, std::__ndk1::char_traits<char>, std::__ndk1::allocator<char> >, std::__ndk1::basic_string<char, std::__ndk1::char_traits<char>, std::__ndk1::allocator<char> > > const&, std::__ndk1::tuple<std::__ndk1::basic_string<char, std::__ndk1::char_traits<char>, std::__ndk1::allocator<char> >, std::__ndk1::basic_string<char, std::__ndk1::char_traits<char>, std::__ndk1::allocator<char> > > const&, bool, std::__ndk1::tuple<std::__ndk1::function<bool (CodeBlock*, std::__ndk1::function<bool ()> const&)>, std::__ndk1::function<bool (CodeBlock*, std::__ndk1::function<bool ()> const&)> > const&)::$_0>, bool (CodeBlock*)>::target(std::type_info const&) const
PUBLIC 9e658 0 std::__ndk1::__function::__func<SideBarCell::SideBarAction::SideBarAction(std::__ndk1::basic_string<char, std::__ndk1::char_traits<char>, std::__ndk1::allocator<char> > const&, std::__ndk1::tuple<std::__ndk1::basic_string<char, std::__ndk1::char_traits<char>, std::__ndk1::allocator<char> >, std::__ndk1::basic_string<char, std::__ndk1::char_traits<char>, std::__ndk1::allocator<char> > > const&, std::__ndk1::tuple<std::__ndk1::basic_string<char, std::__ndk1::char_traits<char>, std::__ndk1::allocator<char> >, std::__ndk1::basic_string<char, std::__ndk1::char_traits<char>, std::__ndk1::allocator<char> > > const&, bool, std::__ndk1::tuple<std::__ndk1::function<bool (CodeBlock*, std::__ndk1::function<bool ()> const&)>, std::__ndk1::function<bool (CodeBlock*, std::__ndk1::function<bool ()> const&)> > const&)::$_0, std::__ndk1::allocator<SideBarCell::SideBarAction::SideBarAction(std::__ndk1::basic_string<char, std::__ndk1::char_traits<char>, std::__ndk1::allocator<char> > const&, std::__ndk1::tuple<std::__ndk1::basic_string<char, std::__ndk1::char_traits<char>, std::__ndk1::allocator<char> >, std::__ndk1::basic_string<char, std::__ndk1::char_traits<char>, std::__ndk1::allocator<char> > > const&, std::__ndk1::tuple<std::__ndk1::basic_string<char, std::__ndk1::char_traits<char>, std::__ndk1::allocator<char> >, std::__ndk1::basic_string<char, std::__ndk1::char_traits<char>, std::__ndk1::allocator<char> > > const&, bool, std::__ndk1::tuple<std::__ndk1::function<bool (CodeBlock*, std::__ndk1::function<bool ()> const&)>, std::__ndk1::function<bool (CodeBlock*, std::__ndk1::function<bool ()> const&)> > const&)::$_0>, bool (CodeBlock*)>::target_type() const
PUBLIC 9e664 0 std::__ndk1::__compressed_pair_elem<SideBarCell::SideBarAction::SideBarAction(std::__ndk1::basic_string<char, std::__ndk1::char_traits<char>, std::__ndk1::allocator<char> > const&, std::__ndk1::tuple<std::__ndk1::basic_string<char, std::__ndk1::char_traits<char>, std::__ndk1::allocator<char> >, std::__ndk1::basic_string<char, std::__ndk1::char_traits<char>, std::__ndk1::allocator<char> > > const&, std::__ndk1::tuple<std::__ndk1::basic_string<char, std::__ndk1::char_traits<char>, std::__ndk1::allocator<char> >, std::__ndk1::basic_string<char, std::__ndk1::char_traits<char>, std::__ndk1::allocator<char> > > const&, bool, std::__ndk1::tuple<std::__ndk1::function<bool (CodeBlock*, std::__ndk1::function<bool ()> const&)>, std::__ndk1::function<bool (CodeBlock*, std::__ndk1::function<bool ()> const&)> > const&)::$_0, 0, false>::__compressed_pair_elem[abi:ne180000]<SideBarCell::SideBarAction::SideBarAction(std::__ndk1::basic_string<char, std::__ndk1::char_traits<char>, std::__ndk1::allocator<char> > const&, std::__ndk1::tuple<std::__ndk1::basic_string<char, std::__ndk1::char_traits<char>, std::__ndk1::allocator<char> >, std::__ndk1::basic_string<char, std::__ndk1::char_traits<char>, std::__ndk1::allocator<char> > > const&, std::__ndk1::tuple<std::__ndk1::basic_string<char, std::__ndk1::char_traits<char>, std::__ndk1::allocator<char> >, std::__ndk1::basic_string<char, std::__ndk1::char_traits<char>, std::__ndk1::allocator<char> > > const&, bool, std::__ndk1::tuple<std::__ndk1::function<bool (CodeBlock*, std::__ndk1::function<bool ()> const&)>, std::__ndk1::function<bool (CodeBlock*, std::__ndk1::function<bool ()> const&)> > const&)::$_0 const&, (unsigned long)0>(std::__ndk1::tuple<SideBarCell::SideBarAction::SideBarAction(std::__ndk1::basic_string<char, std::__ndk1::char_traits<char>, std::__ndk1::allocator<char> > const&, std::__ndk1::tuple<std::__ndk1::basic_string<char, std::__ndk1::char_traits<char>, std::__ndk1::allocator<char> >, std::__ndk1::basic_string<char, std::__ndk1::char_traits<char>, std::__ndk1::allocator<char> > > const&, std::__ndk1::tuple<std::__ndk1::basic_string<char, std::__ndk1::char_traits<char>, std::__ndk1::allocator<char> >, std::__ndk1::basic_string<char, std::__ndk1::char_traits<char>, std::__ndk1::allocator<char> > > const&, bool, std::__ndk1::tuple<std::__ndk1::function<bool (CodeBlock*, std::__ndk1::function<bool ()> const&)>, std::__ndk1::function<bool (CodeBlock*, std::__ndk1::function<bool ()> const&)> > const&)::$_0 const&>, std::__ndk1::__tuple_indices<((unsigned long)0)...>)
PUBLIC 9e7cc 0 std::__ndk1::__function::__func<SideBarCell::SideBarAction::SideBarAction(std::__ndk1::basic_string<char, std::__ndk1::char_traits<char>, std::__ndk1::allocator<char> > const&, std::__ndk1::tuple<std::__ndk1::basic_string<char, std::__ndk1::char_traits<char>, std::__ndk1::allocator<char> >, std::__ndk1::basic_string<char, std::__ndk1::char_traits<char>, std::__ndk1::allocator<char> > > const&, std::__ndk1::tuple<std::__ndk1::basic_string<char, std::__ndk1::char_traits<char>, std::__ndk1::allocator<char> >, std::__ndk1::basic_string<char, std::__ndk1::char_traits<char>, std::__ndk1::allocator<char> > > const&, bool, std::__ndk1::tuple<std::__ndk1::function<bool (CodeBlock*, std::__ndk1::function<bool ()> const&)>, std::__ndk1::function<bool (CodeBlock*, std::__ndk1::function<bool ()> const&)> > const&)::$_0::operator()(CodeBlock*) const::{lambda()#1}, std::__ndk1::allocator<SideBarCell::SideBarAction::SideBarAction(std::__ndk1::basic_string<char, std::__ndk1::char_traits<char>, std::__ndk1::allocator<char> > const&, std::__ndk1::tuple<std::__ndk1::basic_string<char, std::__ndk1::char_traits<char>, std::__ndk1::allocator<char> >, std::__ndk1::basic_string<char, std::__ndk1::char_traits<char>, std::__ndk1::allocator<char> > > const&, std::__ndk1::tuple<std::__ndk1::basic_string<char, std::__ndk1::char_traits<char>, std::__ndk1::allocator<char> >, std::__ndk1::basic_string<char, std::__ndk1::char_traits<char>, std::__ndk1::allocator<char> > > const&, bool, std::__ndk1::tuple<std::__ndk1::function<bool (CodeBlock*, std::__ndk1::function<bool ()> const&)>, std::__ndk1::function<bool (CodeBlock*, std::__ndk1::function<bool ()> const&)> > const&)::$_0::operator()(CodeBlock*) const::{lambda()#1}>, bool ()>::~__func()
PUBLIC 9e7ec 0 std::__ndk1::__function::__func<SideBarCell::SideBarAction::SideBarAction(std::__ndk1::basic_string<char, std::__ndk1::char_traits<char>, std::__ndk1::allocator<char> > const&, std::__ndk1::tuple<std::__ndk1::basic_string<char, std::__ndk1::char_traits<char>, std::__ndk1::allocator<char> >, std::__ndk1::basic_string<char, std::__ndk1::char_traits<char>, std::__ndk1::allocator<char> > > const&, std::__ndk1::tuple<std::__ndk1::basic_string<char, std::__ndk1::char_traits<char>, std::__ndk1::allocator<char> >, std::__ndk1::basic_string<char, std::__ndk1::char_traits<char>, std::__ndk1::allocator<char> > > const&, bool, std::__ndk1::tuple<std::__ndk1::function<bool (CodeBlock*, std::__ndk1::function<bool ()> const&)>, std::__ndk1::function<bool (CodeBlock*, std::__ndk1::function<bool ()> const&)> > const&)::$_0::operator()(CodeBlock*) const::{lambda()#1}, std::__ndk1::allocator<SideBarCell::SideBarAction::SideBarAction(std::__ndk1::basic_string<char, std::__ndk1::char_traits<char>, std::__ndk1::allocator<char> > const&, std::__ndk1::tuple<std::__ndk1::basic_string<char, std::__ndk1::char_traits<char>, std::__ndk1::allocator<char> >, std::__ndk1::basic_string<char, std::__ndk1::char_traits<char>, std::__ndk1::allocator<char> > > const&, std::__ndk1::tuple<std::__ndk1::basic_string<char, std::__ndk1::char_traits<char>, std::__ndk1::allocator<char> >, std::__ndk1::basic_string<char, std::__ndk1::char_traits<char>, std::__ndk1::allocator<char> > > const&, bool, std::__ndk1::tuple<std::__ndk1::function<bool (CodeBlock*, std::__ndk1::function<bool ()> const&)>, std::__ndk1::function<bool (CodeBlock*, std::__ndk1::function<bool ()> const&)> > const&)::$_0::operator()(CodeBlock*) const::{lambda()#1}>, bool ()>::~__func()
PUBLIC 9e82c 0 std::__ndk1::__function::__func<SideBarCell::SideBarAction::SideBarAction(std::__ndk1::basic_string<char, std::__ndk1::char_traits<char>, std::__ndk1::allocator<char> > const&, std::__ndk1::tuple<std::__ndk1::basic_string<char, std::__ndk1::char_traits<char>, std::__ndk1::allocator<char> >, std::__ndk1::basic_string<char, std::__ndk1::char_traits<char>, std::__ndk1::allocator<char> > > const&, std::__ndk1::tuple<std::__ndk1::basic_string<char, std::__ndk1::char_traits<char>, std::__ndk1::allocator<char> >, std::__ndk1::basic_string<char, std::__ndk1::char_traits<char>, std::__ndk1::allocator<char> > > const&, bool, std::__ndk1::tuple<std::__ndk1::function<bool (CodeBlock*, std::__ndk1::function<bool ()> const&)>, std::__ndk1::function<bool (CodeBlock*, std::__ndk1::function<bool ()> const&)> > const&)::$_0::operator()(CodeBlock*) const::{lambda()#1}, std::__ndk1::allocator<SideBarCell::SideBarAction::SideBarAction(std::__ndk1::basic_string<char, std::__ndk1::char_traits<char>, std::__ndk1::allocator<char> > const&, std::__ndk1::tuple<std::__ndk1::basic_string<char, std::__ndk1::char_traits<char>, std::__ndk1::allocator<char> >, std::__ndk1::basic_string<char, std::__ndk1::char_traits<char>, std::__ndk1::allocator<char> > > const&, std::__ndk1::tuple<std::__ndk1::basic_string<char, std::__ndk1::char_traits<char>, std::__ndk1::allocator<char> >, std::__ndk1::basic_string<char, std::__ndk1::char_traits<char>, std::__ndk1::allocator<char> > > const&, bool, std::__ndk1::tuple<std::__ndk1::function<bool (CodeBlock*, std::__ndk1::function<bool ()> const&)>, std::__ndk1::function<bool (CodeBlock*, std::__ndk1::function<bool ()> const&)> > const&)::$_0::operator()(CodeBlock*) const::{lambda()#1}>, bool ()>::__clone() const
PUBLIC 9e8bc 0 std::__ndk1::__function::__func<SideBarCell::SideBarAction::SideBarAction(std::__ndk1::basic_string<char, std::__ndk1::char_traits<char>, std::__ndk1::allocator<char> > const&, std::__ndk1::tuple<std::__ndk1::basic_string<char, std::__ndk1::char_traits<char>, std::__ndk1::allocator<char> >, std::__ndk1::basic_string<char, std::__ndk1::char_traits<char>, std::__ndk1::allocator<char> > > const&, std::__ndk1::tuple<std::__ndk1::basic_string<char, std::__ndk1::char_traits<char>, std::__ndk1::allocator<char> >, std::__ndk1::basic_string<char, std::__ndk1::char_traits<char>, std::__ndk1::allocator<char> > > const&, bool, std::__ndk1::tuple<std::__ndk1::function<bool (CodeBlock*, std::__ndk1::function<bool ()> const&)>, std::__ndk1::function<bool (CodeBlock*, std::__ndk1::function<bool ()> const&)> > const&)::$_0::operator()(CodeBlock*) const::{lambda()#1}, std::__ndk1::allocator<SideBarCell::SideBarAction::SideBarAction(std::__ndk1::basic_string<char, std::__ndk1::char_traits<char>, std::__ndk1::allocator<char> > const&, std::__ndk1::tuple<std::__ndk1::basic_string<char, std::__ndk1::char_traits<char>, std::__ndk1::allocator<char> >, std::__ndk1::basic_string<char, std::__ndk1::char_traits<char>, std::__ndk1::allocator<char> > > const&, std::__ndk1::tuple<std::__ndk1::basic_string<char, std::__ndk1::char_traits<char>, std::__ndk1::allocator<char> >, std::__ndk1::basic_string<char, std::__ndk1::char_traits<char>, std::__ndk1::allocator<char> > > const&, bool, std::__ndk1::tuple<std::__ndk1::function<bool (CodeBlock*, std::__ndk1::function<bool ()> const&)>, std::__ndk1::function<bool (CodeBlock*, std::__ndk1::function<bool ()> const&)> > const&)::$_0::operator()(CodeBlock*) const::{lambda()#1}>, bool ()>::__clone(std::__ndk1::__function::__base<bool ()>*) const
PUBLIC 9e92c 0 std::__ndk1::__function::__func<SideBarCell::SideBarAction::SideBarAction(std::__ndk1::basic_string<char, std::__ndk1::char_traits<char>, std::__ndk1::allocator<char> > const&, std::__ndk1::tuple<std::__ndk1::basic_string<char, std::__ndk1::char_traits<char>, std::__ndk1::allocator<char> >, std::__ndk1::basic_string<char, std::__ndk1::char_traits<char>, std::__ndk1::allocator<char> > > const&, std::__ndk1::tuple<std::__ndk1::basic_string<char, std::__ndk1::char_traits<char>, std::__ndk1::allocator<char> >, std::__ndk1::basic_string<char, std::__ndk1::char_traits<char>, std::__ndk1::allocator<char> > > const&, bool, std::__ndk1::tuple<std::__ndk1::function<bool (CodeBlock*, std::__ndk1::function<bool ()> const&)>, std::__ndk1::function<bool (CodeBlock*, std::__ndk1::function<bool ()> const&)> > const&)::$_0::operator()(CodeBlock*) const::{lambda()#1}, std::__ndk1::allocator<SideBarCell::SideBarAction::SideBarAction(std::__ndk1::basic_string<char, std::__ndk1::char_traits<char>, std::__ndk1::allocator<char> > const&, std::__ndk1::tuple<std::__ndk1::basic_string<char, std::__ndk1::char_traits<char>, std::__ndk1::allocator<char> >, std::__ndk1::basic_string<char, std::__ndk1::char_traits<char>, std::__ndk1::allocator<char> > > const&, std::__ndk1::tuple<std::__ndk1::basic_string<char, std::__ndk1::char_traits<char>, std::__ndk1::allocator<char> >, std::__ndk1::basic_string<char, std::__ndk1::char_traits<char>, std::__ndk1::allocator<char> > > const&, bool, std::__ndk1::tuple<std::__ndk1::function<bool (CodeBlock*, std::__ndk1::function<bool ()> const&)>, std::__ndk1::function<bool (CodeBlock*, std::__ndk1::function<bool ()> const&)> > const&)::$_0::operator()(CodeBlock*) const::{lambda()#1}>, bool ()>::destroy()
PUBLIC 9e940 0 std::__ndk1::__function::__func<SideBarCell::SideBarAction::SideBarAction(std::__ndk1::basic_string<char, std::__ndk1::char_traits<char>, std::__ndk1::allocator<char> > const&, std::__ndk1::tuple<std::__ndk1::basic_string<char, std::__ndk1::char_traits<char>, std::__ndk1::allocator<char> >, std::__ndk1::basic_string<char, std::__ndk1::char_traits<char>, std::__ndk1::allocator<char> > > const&, std::__ndk1::tuple<std::__ndk1::basic_string<char, std::__ndk1::char_traits<char>, std::__ndk1::allocator<char> >, std::__ndk1::basic_string<char, std::__ndk1::char_traits<char>, std::__ndk1::allocator<char> > > const&, bool, std::__ndk1::tuple<std::__ndk1::function<bool (CodeBlock*, std::__ndk1::function<bool ()> const&)>, std::__ndk1::function<bool (CodeBlock*, std::__ndk1::function<bool ()> const&)> > const&)::$_0::operator()(CodeBlock*) const::{lambda()#1}, std::__ndk1::allocator<SideBarCell::SideBarAction::SideBarAction(std::__ndk1::basic_string<char, std::__ndk1::char_traits<char>, std::__ndk1::allocator<char> > const&, std::__ndk1::tuple<std::__ndk1::basic_string<char, std::__ndk1::char_traits<char>, std::__ndk1::allocator<char> >, std::__ndk1::basic_string<char, std::__ndk1::char_traits<char>, std::__ndk1::allocator<char> > > const&, std::__ndk1::tuple<std::__ndk1::basic_string<char, std::__ndk1::char_traits<char>, std::__ndk1::allocator<char> >, std::__ndk1::basic_string<char, std::__ndk1::char_traits<char>, std::__ndk1::allocator<char> > > const&, bool, std::__ndk1::tuple<std::__ndk1::function<bool (CodeBlock*, std::__ndk1::function<bool ()> const&)>, std::__ndk1::function<bool (CodeBlock*, std::__ndk1::function<bool ()> const&)> > const&)::$_0::operator()(CodeBlock*) const::{lambda()#1}>, bool ()>::destroy_deallocate()
PUBLIC 9e974 0 std::__ndk1::__function::__func<SideBarCell::SideBarAction::SideBarAction(std::__ndk1::basic_string<char, std::__ndk1::char_traits<char>, std::__ndk1::allocator<char> > const&, std::__ndk1::tuple<std::__ndk1::basic_string<char, std::__ndk1::char_traits<char>, std::__ndk1::allocator<char> >, std::__ndk1::basic_string<char, std::__ndk1::char_traits<char>, std::__ndk1::allocator<char> > > const&, std::__ndk1::tuple<std::__ndk1::basic_string<char, std::__ndk1::char_traits<char>, std::__ndk1::allocator<char> >, std::__ndk1::basic_string<char, std::__ndk1::char_traits<char>, std::__ndk1::allocator<char> > > const&, bool, std::__ndk1::tuple<std::__ndk1::function<bool (CodeBlock*, std::__ndk1::function<bool ()> const&)>, std::__ndk1::function<bool (CodeBlock*, std::__ndk1::function<bool ()> const&)> > const&)::$_0::operator()(CodeBlock*) const::{lambda()#1}, std::__ndk1::allocator<SideBarCell::SideBarAction::SideBarAction(std::__ndk1::basic_string<char, std::__ndk1::char_traits<char>, std::__ndk1::allocator<char> > const&, std::__ndk1::tuple<std::__ndk1::basic_string<char, std::__ndk1::char_traits<char>, std::__ndk1::allocator<char> >, std::__ndk1::basic_string<char, std::__ndk1::char_traits<char>, std::__ndk1::allocator<char> > > const&, std::__ndk1::tuple<std::__ndk1::basic_string<char, std::__ndk1::char_traits<char>, std::__ndk1::allocator<char> >, std::__ndk1::basic_string<char, std::__ndk1::char_traits<char>, std::__ndk1::allocator<char> > > const&, bool, std::__ndk1::tuple<std::__ndk1::function<bool (CodeBlock*, std::__ndk1::function<bool ()> const&)>, std::__ndk1::function<bool (CodeBlock*, std::__ndk1::function<bool ()> const&)> > const&)::$_0::operator()(CodeBlock*) const::{lambda()#1}>, bool ()>::operator()()
PUBLIC 9ea10 0 std::__ndk1::__function::__func<SideBarCell::SideBarAction::SideBarAction(std::__ndk1::basic_string<char, std::__ndk1::char_traits<char>, std::__ndk1::allocator<char> > const&, std::__ndk1::tuple<std::__ndk1::basic_string<char, std::__ndk1::char_traits<char>, std::__ndk1::allocator<char> >, std::__ndk1::basic_string<char, std::__ndk1::char_traits<char>, std::__ndk1::allocator<char> > > const&, std::__ndk1::tuple<std::__ndk1::basic_string<char, std::__ndk1::char_traits<char>, std::__ndk1::allocator<char> >, std::__ndk1::basic_string<char, std::__ndk1::char_traits<char>, std::__ndk1::allocator<char> > > const&, bool, std::__ndk1::tuple<std::__ndk1::function<bool (CodeBlock*, std::__ndk1::function<bool ()> const&)>, std::__ndk1::function<bool (CodeBlock*, std::__ndk1::function<bool ()> const&)> > const&)::$_0::operator()(CodeBlock*) const::{lambda()#1}, std::__ndk1::allocator<SideBarCell::SideBarAction::SideBarAction(std::__ndk1::basic_string<char, std::__ndk1::char_traits<char>, std::__ndk1::allocator<char> > const&, std::__ndk1::tuple<std::__ndk1::basic_string<char, std::__ndk1::char_traits<char>, std::__ndk1::allocator<char> >, std::__ndk1::basic_string<char, std::__ndk1::char_traits<char>, std::__ndk1::allocator<char> > > const&, std::__ndk1::tuple<std::__ndk1::basic_string<char, std::__ndk1::char_traits<char>, std::__ndk1::allocator<char> >, std::__ndk1::basic_string<char, std::__ndk1::char_traits<char>, std::__ndk1::allocator<char> > > const&, bool, std::__ndk1::tuple<std::__ndk1::function<bool (CodeBlock*, std::__ndk1::function<bool ()> const&)>, std::__ndk1::function<bool (CodeBlock*, std::__ndk1::function<bool ()> const&)> > const&)::$_0::operator()(CodeBlock*) const::{lambda()#1}>, bool ()>::target(std::type_info const&) const
PUBLIC 9ea2c 0 std::__ndk1::__function::__func<SideBarCell::SideBarAction::SideBarAction(std::__ndk1::basic_string<char, std::__ndk1::char_traits<char>, std::__ndk1::allocator<char> > const&, std::__ndk1::tuple<std::__ndk1::basic_string<char, std::__ndk1::char_traits<char>, std::__ndk1::allocator<char> >, std::__ndk1::basic_string<char, std::__ndk1::char_traits<char>, std::__ndk1::allocator<char> > > const&, std::__ndk1::tuple<std::__ndk1::basic_string<char, std::__ndk1::char_traits<char>, std::__ndk1::allocator<char> >, std::__ndk1::basic_string<char, std::__ndk1::char_traits<char>, std::__ndk1::allocator<char> > > const&, bool, std::__ndk1::tuple<std::__ndk1::function<bool (CodeBlock*, std::__ndk1::function<bool ()> const&)>, std::__ndk1::function<bool (CodeBlock*, std::__ndk1::function<bool ()> const&)> > const&)::$_0::operator()(CodeBlock*) const::{lambda()#1}, std::__ndk1::allocator<SideBarCell::SideBarAction::SideBarAction(std::__ndk1::basic_string<char, std::__ndk1::char_traits<char>, std::__ndk1::allocator<char> > const&, std::__ndk1::tuple<std::__ndk1::basic_string<char, std::__ndk1::char_traits<char>, std::__ndk1::allocator<char> >, std::__ndk1::basic_string<char, std::__ndk1::char_traits<char>, std::__ndk1::allocator<char> > > const&, std::__ndk1::tuple<std::__ndk1::basic_string<char, std::__ndk1::char_traits<char>, std::__ndk1::allocator<char> >, std::__ndk1::basic_string<char, std::__ndk1::char_traits<char>, std::__ndk1::allocator<char> > > const&, bool, std::__ndk1::tuple<std::__ndk1::function<bool (CodeBlock*, std::__ndk1::function<bool ()> const&)>, std::__ndk1::function<bool (CodeBlock*, std::__ndk1::function<bool ()> const&)> > const&)::$_0::operator()(CodeBlock*) const::{lambda()#1}>, bool ()>::target_type() const
PUBLIC 9ea38 0 std::__ndk1::__function::__func<SideBarCell::SideBarAction::SideBarAction(std::__ndk1::basic_string<char, std::__ndk1::char_traits<char>, std::__ndk1::allocator<char> > const&, std::__ndk1::tuple<std::__ndk1::basic_string<char, std::__ndk1::char_traits<char>, std::__ndk1::allocator<char> >, std::__ndk1::basic_string<char, std::__ndk1::char_traits<char>, std::__ndk1::allocator<char> > > const&, std::__ndk1::tuple<std::__ndk1::basic_string<char, std::__ndk1::char_traits<char>, std::__ndk1::allocator<char> >, std::__ndk1::basic_string<char, std::__ndk1::char_traits<char>, std::__ndk1::allocator<char> > > const&, bool, std::__ndk1::tuple<std::__ndk1::function<bool (CodeBlock*, std::__ndk1::function<bool ()> const&)>, std::__ndk1::function<bool (CodeBlock*, std::__ndk1::function<bool ()> const&)> > const&)::$_1, std::__ndk1::allocator<SideBarCell::SideBarAction::SideBarAction(std::__ndk1::basic_string<char, std::__ndk1::char_traits<char>, std::__ndk1::allocator<char> > const&, std::__ndk1::tuple<std::__ndk1::basic_string<char, std::__ndk1::char_traits<char>, std::__ndk1::allocator<char> >, std::__ndk1::basic_string<char, std::__ndk1::char_traits<char>, std::__ndk1::allocator<char> > > const&, std::__ndk1::tuple<std::__ndk1::basic_string<char, std::__ndk1::char_traits<char>, std::__ndk1::allocator<char> >, std::__ndk1::basic_string<char, std::__ndk1::char_traits<char>, std::__ndk1::allocator<char> > > const&, bool, std::__ndk1::tuple<std::__ndk1::function<bool (CodeBlock*, std::__ndk1::function<bool ()> const&)>, std::__ndk1::function<bool (CodeBlock*, std::__ndk1::function<bool ()> const&)> > const&)::$_1>, bool (CodeBlock*)>::~__func()
PUBLIC 9ead8 0 std::__ndk1::__function::__func<SideBarCell::SideBarAction::SideBarAction(std::__ndk1::basic_string<char, std::__ndk1::char_traits<char>, std::__ndk1::allocator<char> > const&, std::__ndk1::tuple<std::__ndk1::basic_string<char, std::__ndk1::char_traits<char>, std::__ndk1::allocator<char> >, std::__ndk1::basic_string<char, std::__ndk1::char_traits<char>, std::__ndk1::allocator<char> > > const&, std::__ndk1::tuple<std::__ndk1::basic_string<char, std::__ndk1::char_traits<char>, std::__ndk1::allocator<char> >, std::__ndk1::basic_string<char, std::__ndk1::char_traits<char>, std::__ndk1::allocator<char> > > const&, bool, std::__ndk1::tuple<std::__ndk1::function<bool (CodeBlock*, std::__ndk1::function<bool ()> const&)>, std::__ndk1::function<bool (CodeBlock*, std::__ndk1::function<bool ()> const&)> > const&)::$_1, std::__ndk1::allocator<SideBarCell::SideBarAction::SideBarAction(std::__ndk1::basic_string<char, std::__ndk1::char_traits<char>, std::__ndk1::allocator<char> > const&, std::__ndk1::tuple<std::__ndk1::basic_string<char, std::__ndk1::char_traits<char>, std::__ndk1::allocator<char> >, std::__ndk1::basic_string<char, std::__ndk1::char_traits<char>, std::__ndk1::allocator<char> > > const&, std::__ndk1::tuple<std::__ndk1::basic_string<char, std::__ndk1::char_traits<char>, std::__ndk1::allocator<char> >, std::__ndk1::basic_string<char, std::__ndk1::char_traits<char>, std::__ndk1::allocator<char> > > const&, bool, std::__ndk1::tuple<std::__ndk1::function<bool (CodeBlock*, std::__ndk1::function<bool ()> const&)>, std::__ndk1::function<bool (CodeBlock*, std::__ndk1::function<bool ()> const&)> > const&)::$_1>, bool (CodeBlock*)>::~__func()
PUBLIC 9eb74 0 std::__ndk1::__function::__func<SideBarCell::SideBarAction::SideBarAction(std::__ndk1::basic_string<char, std::__ndk1::char_traits<char>, std::__ndk1::allocator<char> > const&, std::__ndk1::tuple<std::__ndk1::basic_string<char, std::__ndk1::char_traits<char>, std::__ndk1::allocator<char> >, std::__ndk1::basic_string<char, std::__ndk1::char_traits<char>, std::__ndk1::allocator<char> > > const&, std::__ndk1::tuple<std::__ndk1::basic_string<char, std::__ndk1::char_traits<char>, std::__ndk1::allocator<char> >, std::__ndk1::basic_string<char, std::__ndk1::char_traits<char>, std::__ndk1::allocator<char> > > const&, bool, std::__ndk1::tuple<std::__ndk1::function<bool (CodeBlock*, std::__ndk1::function<bool ()> const&)>, std::__ndk1::function<bool (CodeBlock*, std::__ndk1::function<bool ()> const&)> > const&)::$_1, std::__ndk1::allocator<SideBarCell::SideBarAction::SideBarAction(std::__ndk1::basic_string<char, std::__ndk1::char_traits<char>, std::__ndk1::allocator<char> > const&, std::__ndk1::tuple<std::__ndk1::basic_string<char, std::__ndk1::char_traits<char>, std::__ndk1::allocator<char> >, std::__ndk1::basic_string<char, std::__ndk1::char_traits<char>, std::__ndk1::allocator<char> > > const&, std::__ndk1::tuple<std::__ndk1::basic_string<char, std::__ndk1::char_traits<char>, std::__ndk1::allocator<char> >, std::__ndk1::basic_string<char, std::__ndk1::char_traits<char>, std::__ndk1::allocator<char> > > const&, bool, std::__ndk1::tuple<std::__ndk1::function<bool (CodeBlock*, std::__ndk1::function<bool ()> const&)>, std::__ndk1::function<bool (CodeBlock*, std::__ndk1::function<bool ()> const&)> > const&)::$_1>, bool (CodeBlock*)>::__clone() const
PUBLIC 9ebc8 0 std::__ndk1::__function::__func<SideBarCell::SideBarAction::SideBarAction(std::__ndk1::basic_string<char, std::__ndk1::char_traits<char>, std::__ndk1::allocator<char> > const&, std::__ndk1::tuple<std::__ndk1::basic_string<char, std::__ndk1::char_traits<char>, std::__ndk1::allocator<char> >, std::__ndk1::basic_string<char, std::__ndk1::char_traits<char>, std::__ndk1::allocator<char> > > const&, std::__ndk1::tuple<std::__ndk1::basic_string<char, std::__ndk1::char_traits<char>, std::__ndk1::allocator<char> >, std::__ndk1::basic_string<char, std::__ndk1::char_traits<char>, std::__ndk1::allocator<char> > > const&, bool, std::__ndk1::tuple<std::__ndk1::function<bool (CodeBlock*, std::__ndk1::function<bool ()> const&)>, std::__ndk1::function<bool (CodeBlock*, std::__ndk1::function<bool ()> const&)> > const&)::$_1, std::__ndk1::allocator<SideBarCell::SideBarAction::SideBarAction(std::__ndk1::basic_string<char, std::__ndk1::char_traits<char>, std::__ndk1::allocator<char> > const&, std::__ndk1::tuple<std::__ndk1::basic_string<char, std::__ndk1::char_traits<char>, std::__ndk1::allocator<char> >, std::__ndk1::basic_string<char, std::__ndk1::char_traits<char>, std::__ndk1::allocator<char> > > const&, std::__ndk1::tuple<std::__ndk1::basic_string<char, std::__ndk1::char_traits<char>, std::__ndk1::allocator<char> >, std::__ndk1::basic_string<char, std::__ndk1::char_traits<char>, std::__ndk1::allocator<char> > > const&, bool, std::__ndk1::tuple<std::__ndk1::function<bool (CodeBlock*, std::__ndk1::function<bool ()> const&)>, std::__ndk1::function<bool (CodeBlock*, std::__ndk1::function<bool ()> const&)> > const&)::$_1>, bool (CodeBlock*)>::__clone(std::__ndk1::__function::__base<bool (CodeBlock*)>*) const
PUBLIC 9ebe4 0 std::__ndk1::__function::__func<SideBarCell::SideBarAction::SideBarAction(std::__ndk1::basic_string<char, std::__ndk1::char_traits<char>, std::__ndk1::allocator<char> > const&, std::__ndk1::tuple<std::__ndk1::basic_string<char, std::__ndk1::char_traits<char>, std::__ndk1::allocator<char> >, std::__ndk1::basic_string<char, std::__ndk1::char_traits<char>, std::__ndk1::allocator<char> > > const&, std::__ndk1::tuple<std::__ndk1::basic_string<char, std::__ndk1::char_traits<char>, std::__ndk1::allocator<char> >, std::__ndk1::basic_string<char, std::__ndk1::char_traits<char>, std::__ndk1::allocator<char> > > const&, bool, std::__ndk1::tuple<std::__ndk1::function<bool (CodeBlock*, std::__ndk1::function<bool ()> const&)>, std::__ndk1::function<bool (CodeBlock*, std::__ndk1::function<bool ()> const&)> > const&)::$_1, std::__ndk1::allocator<SideBarCell::SideBarAction::SideBarAction(std::__ndk1::basic_string<char, std::__ndk1::char_traits<char>, std::__ndk1::allocator<char> > const&, std::__ndk1::tuple<std::__ndk1::basic_string<char, std::__ndk1::char_traits<char>, std::__ndk1::allocator<char> >, std::__ndk1::basic_string<char, std::__ndk1::char_traits<char>, std::__ndk1::allocator<char> > > const&, std::__ndk1::tuple<std::__ndk1::basic_string<char, std::__ndk1::char_traits<char>, std::__ndk1::allocator<char> >, std::__ndk1::basic_string<char, std::__ndk1::char_traits<char>, std::__ndk1::allocator<char> > > const&, bool, std::__ndk1::tuple<std::__ndk1::function<bool (CodeBlock*, std::__ndk1::function<bool ()> const&)>, std::__ndk1::function<bool (CodeBlock*, std::__ndk1::function<bool ()> const&)> > const&)::$_1>, bool (CodeBlock*)>::destroy()
PUBLIC 9ec78 0 std::__ndk1::__function::__func<SideBarCell::SideBarAction::SideBarAction(std::__ndk1::basic_string<char, std::__ndk1::char_traits<char>, std::__ndk1::allocator<char> > const&, std::__ndk1::tuple<std::__ndk1::basic_string<char, std::__ndk1::char_traits<char>, std::__ndk1::allocator<char> >, std::__ndk1::basic_string<char, std::__ndk1::char_traits<char>, std::__ndk1::allocator<char> > > const&, std::__ndk1::tuple<std::__ndk1::basic_string<char, std::__ndk1::char_traits<char>, std::__ndk1::allocator<char> >, std::__ndk1::basic_string<char, std::__ndk1::char_traits<char>, std::__ndk1::allocator<char> > > const&, bool, std::__ndk1::tuple<std::__ndk1::function<bool (CodeBlock*, std::__ndk1::function<bool ()> const&)>, std::__ndk1::function<bool (CodeBlock*, std::__ndk1::function<bool ()> const&)> > const&)::$_1, std::__ndk1::allocator<SideBarCell::SideBarAction::SideBarAction(std::__ndk1::basic_string<char, std::__ndk1::char_traits<char>, std::__ndk1::allocator<char> > const&, std::__ndk1::tuple<std::__ndk1::basic_string<char, std::__ndk1::char_traits<char>, std::__ndk1::allocator<char> >, std::__ndk1::basic_string<char, std::__ndk1::char_traits<char>, std::__ndk1::allocator<char> > > const&, std::__ndk1::tuple<std::__ndk1::basic_string<char, std::__ndk1::char_traits<char>, std::__ndk1::allocator<char> >, std::__ndk1::basic_string<char, std::__ndk1::char_traits<char>, std::__ndk1::allocator<char> > > const&, bool, std::__ndk1::tuple<std::__ndk1::function<bool (CodeBlock*, std::__ndk1::function<bool ()> const&)>, std::__ndk1::function<bool (CodeBlock*, std::__ndk1::function<bool ()> const&)> > const&)::$_1>, bool (CodeBlock*)>::destroy_deallocate()
PUBLIC 9ed08 0 std::__ndk1::__function::__func<SideBarCell::SideBarAction::SideBarAction(std::__ndk1::basic_string<char, std::__ndk1::char_traits<char>, std::__ndk1::allocator<char> > const&, std::__ndk1::tuple<std::__ndk1::basic_string<char, std::__ndk1::char_traits<char>, std::__ndk1::allocator<char> >, std::__ndk1::basic_string<char, std::__ndk1::char_traits<char>, std::__ndk1::allocator<char> > > const&, std::__ndk1::tuple<std::__ndk1::basic_string<char, std::__ndk1::char_traits<char>, std::__ndk1::allocator<char> >, std::__ndk1::basic_string<char, std::__ndk1::char_traits<char>, std::__ndk1::allocator<char> > > const&, bool, std::__ndk1::tuple<std::__ndk1::function<bool (CodeBlock*, std::__ndk1::function<bool ()> const&)>, std::__ndk1::function<bool (CodeBlock*, std::__ndk1::function<bool ()> const&)> > const&)::$_1, std::__ndk1::allocator<SideBarCell::SideBarAction::SideBarAction(std::__ndk1::basic_string<char, std::__ndk1::char_traits<char>, std::__ndk1::allocator<char> > const&, std::__ndk1::tuple<std::__ndk1::basic_string<char, std::__ndk1::char_traits<char>, std::__ndk1::allocator<char> >, std::__ndk1::basic_string<char, std::__ndk1::char_traits<char>, std::__ndk1::allocator<char> > > const&, std::__ndk1::tuple<std::__ndk1::basic_string<char, std::__ndk1::char_traits<char>, std::__ndk1::allocator<char> >, std::__ndk1::basic_string<char, std::__ndk1::char_traits<char>, std::__ndk1::allocator<char> > > const&, bool, std::__ndk1::tuple<std::__ndk1::function<bool (CodeBlock*, std::__ndk1::function<bool ()> const&)>, std::__ndk1::function<bool (CodeBlock*, std::__ndk1::function<bool ()> const&)> > const&)::$_1>, bool (CodeBlock*)>::operator()(CodeBlock*&&)
PUBLIC 9f000 0 std::__ndk1::__function::__func<SideBarCell::SideBarAction::SideBarAction(std::__ndk1::basic_string<char, std::__ndk1::char_traits<char>, std::__ndk1::allocator<char> > const&, std::__ndk1::tuple<std::__ndk1::basic_string<char, std::__ndk1::char_traits<char>, std::__ndk1::allocator<char> >, std::__ndk1::basic_string<char, std::__ndk1::char_traits<char>, std::__ndk1::allocator<char> > > const&, std::__ndk1::tuple<std::__ndk1::basic_string<char, std::__ndk1::char_traits<char>, std::__ndk1::allocator<char> >, std::__ndk1::basic_string<char, std::__ndk1::char_traits<char>, std::__ndk1::allocator<char> > > const&, bool, std::__ndk1::tuple<std::__ndk1::function<bool (CodeBlock*, std::__ndk1::function<bool ()> const&)>, std::__ndk1::function<bool (CodeBlock*, std::__ndk1::function<bool ()> const&)> > const&)::$_1, std::__ndk1::allocator<SideBarCell::SideBarAction::SideBarAction(std::__ndk1::basic_string<char, std::__ndk1::char_traits<char>, std::__ndk1::allocator<char> > const&, std::__ndk1::tuple<std::__ndk1::basic_string<char, std::__ndk1::char_traits<char>, std::__ndk1::allocator<char> >, std::__ndk1::basic_string<char, std::__ndk1::char_traits<char>, std::__ndk1::allocator<char> > > const&, std::__ndk1::tuple<std::__ndk1::basic_string<char, std::__ndk1::char_traits<char>, std::__ndk1::allocator<char> >, std::__ndk1::basic_string<char, std::__ndk1::char_traits<char>, std::__ndk1::allocator<char> > > const&, bool, std::__ndk1::tuple<std::__ndk1::function<bool (CodeBlock*, std::__ndk1::function<bool ()> const&)>, std::__ndk1::function<bool (CodeBlock*, std::__ndk1::function<bool ()> const&)> > const&)::$_1>, bool (CodeBlock*)>::target(std::type_info const&) const
PUBLIC 9f01c 0 std::__ndk1::__function::__func<SideBarCell::SideBarAction::SideBarAction(std::__ndk1::basic_string<char, std::__ndk1::char_traits<char>, std::__ndk1::allocator<char> > const&, std::__ndk1::tuple<std::__ndk1::basic_string<char, std::__ndk1::char_traits<char>, std::__ndk1::allocator<char> >, std::__ndk1::basic_string<char, std::__ndk1::char_traits<char>, std::__ndk1::allocator<char> > > const&, std::__ndk1::tuple<std::__ndk1::basic_string<char, std::__ndk1::char_traits<char>, std::__ndk1::allocator<char> >, std::__ndk1::basic_string<char, std::__ndk1::char_traits<char>, std::__ndk1::allocator<char> > > const&, bool, std::__ndk1::tuple<std::__ndk1::function<bool (CodeBlock*, std::__ndk1::function<bool ()> const&)>, std::__ndk1::function<bool (CodeBlock*, std::__ndk1::function<bool ()> const&)> > const&)::$_1, std::__ndk1::allocator<SideBarCell::SideBarAction::SideBarAction(std::__ndk1::basic_string<char, std::__ndk1::char_traits<char>, std::__ndk1::allocator<char> > const&, std::__ndk1::tuple<std::__ndk1::basic_string<char, std::__ndk1::char_traits<char>, std::__ndk1::allocator<char> >, std::__ndk1::basic_string<char, std::__ndk1::char_traits<char>, std::__ndk1::allocator<char> > > const&, std::__ndk1::tuple<std::__ndk1::basic_string<char, std::__ndk1::char_traits<char>, std::__ndk1::allocator<char> >, std::__ndk1::basic_string<char, std::__ndk1::char_traits<char>, std::__ndk1::allocator<char> > > const&, bool, std::__ndk1::tuple<std::__ndk1::function<bool (CodeBlock*, std::__ndk1::function<bool ()> const&)>, std::__ndk1::function<bool (CodeBlock*, std::__ndk1::function<bool ()> const&)> > const&)::$_1>, bool (CodeBlock*)>::target_type() const
PUBLIC 9f028 0 std::__ndk1::__compressed_pair_elem<SideBarCell::SideBarAction::SideBarAction(std::__ndk1::basic_string<char, std::__ndk1::char_traits<char>, std::__ndk1::allocator<char> > const&, std::__ndk1::tuple<std::__ndk1::basic_string<char, std::__ndk1::char_traits<char>, std::__ndk1::allocator<char> >, std::__ndk1::basic_string<char, std::__ndk1::char_traits<char>, std::__ndk1::allocator<char> > > const&, std::__ndk1::tuple<std::__ndk1::basic_string<char, std::__ndk1::char_traits<char>, std::__ndk1::allocator<char> >, std::__ndk1::basic_string<char, std::__ndk1::char_traits<char>, std::__ndk1::allocator<char> > > const&, bool, std::__ndk1::tuple<std::__ndk1::function<bool (CodeBlock*, std::__ndk1::function<bool ()> const&)>, std::__ndk1::function<bool (CodeBlock*, std::__ndk1::function<bool ()> const&)> > const&)::$_1, 0, false>::__compressed_pair_elem[abi:ne180000]<SideBarCell::SideBarAction::SideBarAction(std::__ndk1::basic_string<char, std::__ndk1::char_traits<char>, std::__ndk1::allocator<char> > const&, std::__ndk1::tuple<std::__ndk1::basic_string<char, std::__ndk1::char_traits<char>, std::__ndk1::allocator<char> >, std::__ndk1::basic_string<char, std::__ndk1::char_traits<char>, std::__ndk1::allocator<char> > > const&, std::__ndk1::tuple<std::__ndk1::basic_string<char, std::__ndk1::char_traits<char>, std::__ndk1::allocator<char> >, std::__ndk1::basic_string<char, std::__ndk1::char_traits<char>, std::__ndk1::allocator<char> > > const&, bool, std::__ndk1::tuple<std::__ndk1::function<bool (CodeBlock*, std::__ndk1::function<bool ()> const&)>, std::__ndk1::function<bool (CodeBlock*, std::__ndk1::function<bool ()> const&)> > const&)::$_1 const&, (unsigned long)0>(std::__ndk1::tuple<SideBarCell::SideBarAction::SideBarAction(std::__ndk1::basic_string<char, std::__ndk1::char_traits<char>, std::__ndk1::allocator<char> > const&, std::__ndk1::tuple<std::__ndk1::basic_string<char, std::__ndk1::char_traits<char>, std::__ndk1::allocator<char> >, std::__ndk1::basic_string<char, std::__ndk1::char_traits<char>, std::__ndk1::allocator<char> > > const&, std::__ndk1::tuple<std::__ndk1::basic_string<char, std::__ndk1::char_traits<char>, std::__ndk1::allocator<char> >, std::__ndk1::basic_string<char, std::__ndk1::char_traits<char>, std::__ndk1::allocator<char> > > const&, bool, std::__ndk1::tuple<std::__ndk1::function<bool (CodeBlock*, std::__ndk1::function<bool ()> const&)>, std::__ndk1::function<bool (CodeBlock*, std::__ndk1::function<bool ()> const&)> > const&)::$_1 const&>, std::__ndk1::__tuple_indices<((unsigned long)0)...>)
PUBLIC 9f190 0 std::__ndk1::__function::__func<SideBarCell::SideBarAction::SideBarAction(std::__ndk1::basic_string<char, std::__ndk1::char_traits<char>, std::__ndk1::allocator<char> > const&, std::__ndk1::tuple<std::__ndk1::basic_string<char, std::__ndk1::char_traits<char>, std::__ndk1::allocator<char> >, std::__ndk1::basic_string<char, std::__ndk1::char_traits<char>, std::__ndk1::allocator<char> > > const&, std::__ndk1::tuple<std::__ndk1::basic_string<char, std::__ndk1::char_traits<char>, std::__ndk1::allocator<char> >, std::__ndk1::basic_string<char, std::__ndk1::char_traits<char>, std::__ndk1::allocator<char> > > const&, bool, std::__ndk1::tuple<std::__ndk1::function<bool (CodeBlock*, std::__ndk1::function<bool ()> const&)>, std::__ndk1::function<bool (CodeBlock*, std::__ndk1::function<bool ()> const&)> > const&)::$_1::operator()(CodeBlock*) const::{lambda()#1}, std::__ndk1::allocator<SideBarCell::SideBarAction::SideBarAction(std::__ndk1::basic_string<char, std::__ndk1::char_traits<char>, std::__ndk1::allocator<char> > const&, std::__ndk1::tuple<std::__ndk1::basic_string<char, std::__ndk1::char_traits<char>, std::__ndk1::allocator<char> >, std::__ndk1::basic_string<char, std::__ndk1::char_traits<char>, std::__ndk1::allocator<char> > > const&, std::__ndk1::tuple<std::__ndk1::basic_string<char, std::__ndk1::char_traits<char>, std::__ndk1::allocator<char> >, std::__ndk1::basic_string<char, std::__ndk1::char_traits<char>, std::__ndk1::allocator<char> > > const&, bool, std::__ndk1::tuple<std::__ndk1::function<bool (CodeBlock*, std::__ndk1::function<bool ()> const&)>, std::__ndk1::function<bool (CodeBlock*, std::__ndk1::function<bool ()> const&)> > const&)::$_1::operator()(CodeBlock*) const::{lambda()#1}>, bool ()>::~__func()
PUBLIC 9f1b0 0 std::__ndk1::__function::__func<SideBarCell::SideBarAction::SideBarAction(std::__ndk1::basic_string<char, std::__ndk1::char_traits<char>, std::__ndk1::allocator<char> > const&, std::__ndk1::tuple<std::__ndk1::basic_string<char, std::__ndk1::char_traits<char>, std::__ndk1::allocator<char> >, std::__ndk1::basic_string<char, std::__ndk1::char_traits<char>, std::__ndk1::allocator<char> > > const&, std::__ndk1::tuple<std::__ndk1::basic_string<char, std::__ndk1::char_traits<char>, std::__ndk1::allocator<char> >, std::__ndk1::basic_string<char, std::__ndk1::char_traits<char>, std::__ndk1::allocator<char> > > const&, bool, std::__ndk1::tuple<std::__ndk1::function<bool (CodeBlock*, std::__ndk1::function<bool ()> const&)>, std::__ndk1::function<bool (CodeBlock*, std::__ndk1::function<bool ()> const&)> > const&)::$_1::operator()(CodeBlock*) const::{lambda()#1}, std::__ndk1::allocator<SideBarCell::SideBarAction::SideBarAction(std::__ndk1::basic_string<char, std::__ndk1::char_traits<char>, std::__ndk1::allocator<char> > const&, std::__ndk1::tuple<std::__ndk1::basic_string<char, std::__ndk1::char_traits<char>, std::__ndk1::allocator<char> >, std::__ndk1::basic_string<char, std::__ndk1::char_traits<char>, std::__ndk1::allocator<char> > > const&, std::__ndk1::tuple<std::__ndk1::basic_string<char, std::__ndk1::char_traits<char>, std::__ndk1::allocator<char> >, std::__ndk1::basic_string<char, std::__ndk1::char_traits<char>, std::__ndk1::allocator<char> > > const&, bool, std::__ndk1::tuple<std::__ndk1::function<bool (CodeBlock*, std::__ndk1::function<bool ()> const&)>, std::__ndk1::function<bool (CodeBlock*, std::__ndk1::function<bool ()> const&)> > const&)::$_1::operator()(CodeBlock*) const::{lambda()#1}>, bool ()>::~__func()
PUBLIC 9f1f0 0 std::__ndk1::__function::__func<SideBarCell::SideBarAction::SideBarAction(std::__ndk1::basic_string<char, std::__ndk1::char_traits<char>, std::__ndk1::allocator<char> > const&, std::__ndk1::tuple<std::__ndk1::basic_string<char, std::__ndk1::char_traits<char>, std::__ndk1::allocator<char> >, std::__ndk1::basic_string<char, std::__ndk1::char_traits<char>, std::__ndk1::allocator<char> > > const&, std::__ndk1::tuple<std::__ndk1::basic_string<char, std::__ndk1::char_traits<char>, std::__ndk1::allocator<char> >, std::__ndk1::basic_string<char, std::__ndk1::char_traits<char>, std::__ndk1::allocator<char> > > const&, bool, std::__ndk1::tuple<std::__ndk1::function<bool (CodeBlock*, std::__ndk1::function<bool ()> const&)>, std::__ndk1::function<bool (CodeBlock*, std::__ndk1::function<bool ()> const&)> > const&)::$_1::operator()(CodeBlock*) const::{lambda()#1}, std::__ndk1::allocator<SideBarCell::SideBarAction::SideBarAction(std::__ndk1::basic_string<char, std::__ndk1::char_traits<char>, std::__ndk1::allocator<char> > const&, std::__ndk1::tuple<std::__ndk1::basic_string<char, std::__ndk1::char_traits<char>, std::__ndk1::allocator<char> >, std::__ndk1::basic_string<char, std::__ndk1::char_traits<char>, std::__ndk1::allocator<char> > > const&, std::__ndk1::tuple<std::__ndk1::basic_string<char, std::__ndk1::char_traits<char>, std::__ndk1::allocator<char> >, std::__ndk1::basic_string<char, std::__ndk1::char_traits<char>, std::__ndk1::allocator<char> > > const&, bool, std::__ndk1::tuple<std::__ndk1::function<bool (CodeBlock*, std::__ndk1::function<bool ()> const&)>, std::__ndk1::function<bool (CodeBlock*, std::__ndk1::function<bool ()> const&)> > const&)::$_1::operator()(CodeBlock*) const::{lambda()#1}>, bool ()>::__clone() const
PUBLIC 9f280 0 std::__ndk1::__function::__func<SideBarCell::SideBarAction::SideBarAction(std::__ndk1::basic_string<char, std::__ndk1::char_traits<char>, std::__ndk1::allocator<char> > const&, std::__ndk1::tuple<std::__ndk1::basic_string<char, std::__ndk1::char_traits<char>, std::__ndk1::allocator<char> >, std::__ndk1::basic_string<char, std::__ndk1::char_traits<char>, std::__ndk1::allocator<char> > > const&, std::__ndk1::tuple<std::__ndk1::basic_string<char, std::__ndk1::char_traits<char>, std::__ndk1::allocator<char> >, std::__ndk1::basic_string<char, std::__ndk1::char_traits<char>, std::__ndk1::allocator<char> > > const&, bool, std::__ndk1::tuple<std::__ndk1::function<bool (CodeBlock*, std::__ndk1::function<bool ()> const&)>, std::__ndk1::function<bool (CodeBlock*, std::__ndk1::function<bool ()> const&)> > const&)::$_1::operator()(CodeBlock*) const::{lambda()#1}, std::__ndk1::allocator<SideBarCell::SideBarAction::SideBarAction(std::__ndk1::basic_string<char, std::__ndk1::char_traits<char>, std::__ndk1::allocator<char> > const&, std::__ndk1::tuple<std::__ndk1::basic_string<char, std::__ndk1::char_traits<char>, std::__ndk1::allocator<char> >, std::__ndk1::basic_string<char, std::__ndk1::char_traits<char>, std::__ndk1::allocator<char> > > const&, std::__ndk1::tuple<std::__ndk1::basic_string<char, std::__ndk1::char_traits<char>, std::__ndk1::allocator<char> >, std::__ndk1::basic_string<char, std::__ndk1::char_traits<char>, std::__ndk1::allocator<char> > > const&, bool, std::__ndk1::tuple<std::__ndk1::function<bool (CodeBlock*, std::__ndk1::function<bool ()> const&)>, std::__ndk1::function<bool (CodeBlock*, std::__ndk1::function<bool ()> const&)> > const&)::$_1::operator()(CodeBlock*) const::{lambda()#1}>, bool ()>::__clone(std::__ndk1::__function::__base<bool ()>*) const
PUBLIC 9f2f0 0 std::__ndk1::__function::__func<SideBarCell::SideBarAction::SideBarAction(std::__ndk1::basic_string<char, std::__ndk1::char_traits<char>, std::__ndk1::allocator<char> > const&, std::__ndk1::tuple<std::__ndk1::basic_string<char, std::__ndk1::char_traits<char>, std::__ndk1::allocator<char> >, std::__ndk1::basic_string<char, std::__ndk1::char_traits<char>, std::__ndk1::allocator<char> > > const&, std::__ndk1::tuple<std::__ndk1::basic_string<char, std::__ndk1::char_traits<char>, std::__ndk1::allocator<char> >, std::__ndk1::basic_string<char, std::__ndk1::char_traits<char>, std::__ndk1::allocator<char> > > const&, bool, std::__ndk1::tuple<std::__ndk1::function<bool (CodeBlock*, std::__ndk1::function<bool ()> const&)>, std::__ndk1::function<bool (CodeBlock*, std::__ndk1::function<bool ()> const&)> > const&)::$_1::operator()(CodeBlock*) const::{lambda()#1}, std::__ndk1::allocator<SideBarCell::SideBarAction::SideBarAction(std::__ndk1::basic_string<char, std::__ndk1::char_traits<char>, std::__ndk1::allocator<char> > const&, std::__ndk1::tuple<std::__ndk1::basic_string<char, std::__ndk1::char_traits<char>, std::__ndk1::allocator<char> >, std::__ndk1::basic_string<char, std::__ndk1::char_traits<char>, std::__ndk1::allocator<char> > > const&, std::__ndk1::tuple<std::__ndk1::basic_string<char, std::__ndk1::char_traits<char>, std::__ndk1::allocator<char> >, std::__ndk1::basic_string<char, std::__ndk1::char_traits<char>, std::__ndk1::allocator<char> > > const&, bool, std::__ndk1::tuple<std::__ndk1::function<bool (CodeBlock*, std::__ndk1::function<bool ()> const&)>, std::__ndk1::function<bool (CodeBlock*, std::__ndk1::function<bool ()> const&)> > const&)::$_1::operator()(CodeBlock*) const::{lambda()#1}>, bool ()>::destroy()
PUBLIC 9f304 0 std::__ndk1::__function::__func<SideBarCell::SideBarAction::SideBarAction(std::__ndk1::basic_string<char, std::__ndk1::char_traits<char>, std::__ndk1::allocator<char> > const&, std::__ndk1::tuple<std::__ndk1::basic_string<char, std::__ndk1::char_traits<char>, std::__ndk1::allocator<char> >, std::__ndk1::basic_string<char, std::__ndk1::char_traits<char>, std::__ndk1::allocator<char> > > const&, std::__ndk1::tuple<std::__ndk1::basic_string<char, std::__ndk1::char_traits<char>, std::__ndk1::allocator<char> >, std::__ndk1::basic_string<char, std::__ndk1::char_traits<char>, std::__ndk1::allocator<char> > > const&, bool, std::__ndk1::tuple<std::__ndk1::function<bool (CodeBlock*, std::__ndk1::function<bool ()> const&)>, std::__ndk1::function<bool (CodeBlock*, std::__ndk1::function<bool ()> const&)> > const&)::$_1::operator()(CodeBlock*) const::{lambda()#1}, std::__ndk1::allocator<SideBarCell::SideBarAction::SideBarAction(std::__ndk1::basic_string<char, std::__ndk1::char_traits<char>, std::__ndk1::allocator<char> > const&, std::__ndk1::tuple<std::__ndk1::basic_string<char, std::__ndk1::char_traits<char>, std::__ndk1::allocator<char> >, std::__ndk1::basic_string<char, std::__ndk1::char_traits<char>, std::__ndk1::allocator<char> > > const&, std::__ndk1::tuple<std::__ndk1::basic_string<char, std::__ndk1::char_traits<char>, std::__ndk1::allocator<char> >, std::__ndk1::basic_string<char, std::__ndk1::char_traits<char>, std::__ndk1::allocator<char> > > const&, bool, std::__ndk1::tuple<std::__ndk1::function<bool (CodeBlock*, std::__ndk1::function<bool ()> const&)>, std::__ndk1::function<bool (CodeBlock*, std::__ndk1::function<bool ()> const&)> > const&)::$_1::operator()(CodeBlock*) const::{lambda()#1}>, bool ()>::destroy_deallocate()
PUBLIC 9f338 0 std::__ndk1::__function::__func<SideBarCell::SideBarAction::SideBarAction(std::__ndk1::basic_string<char, std::__ndk1::char_traits<char>, std::__ndk1::allocator<char> > const&, std::__ndk1::tuple<std::__ndk1::basic_string<char, std::__ndk1::char_traits<char>, std::__ndk1::allocator<char> >, std::__ndk1::basic_string<char, std::__ndk1::char_traits<char>, std::__ndk1::allocator<char> > > const&, std::__ndk1::tuple<std::__ndk1::basic_string<char, std::__ndk1::char_traits<char>, std::__ndk1::allocator<char> >, std::__ndk1::basic_string<char, std::__ndk1::char_traits<char>, std::__ndk1::allocator<char> > > const&, bool, std::__ndk1::tuple<std::__ndk1::function<bool (CodeBlock*, std::__ndk1::function<bool ()> const&)>, std::__ndk1::function<bool (CodeBlock*, std::__ndk1::function<bool ()> const&)> > const&)::$_1::operator()(CodeBlock*) const::{lambda()#1}, std::__ndk1::allocator<SideBarCell::SideBarAction::SideBarAction(std::__ndk1::basic_string<char, std::__ndk1::char_traits<char>, std::__ndk1::allocator<char> > const&, std::__ndk1::tuple<std::__ndk1::basic_string<char, std::__ndk1::char_traits<char>, std::__ndk1::allocator<char> >, std::__ndk1::basic_string<char, std::__ndk1::char_traits<char>, std::__ndk1::allocator<char> > > const&, std::__ndk1::tuple<std::__ndk1::basic_string<char, std::__ndk1::char_traits<char>, std::__ndk1::allocator<char> >, std::__ndk1::basic_string<char, std::__ndk1::char_traits<char>, std::__ndk1::allocator<char> > > const&, bool, std::__ndk1::tuple<std::__ndk1::function<bool (CodeBlock*, std::__ndk1::function<bool ()> const&)>, std::__ndk1::function<bool (CodeBlock*, std::__ndk1::function<bool ()> const&)> > const&)::$_1::operator()(CodeBlock*) const::{lambda()#1}>, bool ()>::operator()()
PUBLIC 9f398 0 std::__ndk1::__function::__func<SideBarCell::SideBarAction::SideBarAction(std::__ndk1::basic_string<char, std::__ndk1::char_traits<char>, std::__ndk1::allocator<char> > const&, std::__ndk1::tuple<std::__ndk1::basic_string<char, std::__ndk1::char_traits<char>, std::__ndk1::allocator<char> >, std::__ndk1::basic_string<char, std::__ndk1::char_traits<char>, std::__ndk1::allocator<char> > > const&, std::__ndk1::tuple<std::__ndk1::basic_string<char, std::__ndk1::char_traits<char>, std::__ndk1::allocator<char> >, std::__ndk1::basic_string<char, std::__ndk1::char_traits<char>, std::__ndk1::allocator<char> > > const&, bool, std::__ndk1::tuple<std::__ndk1::function<bool (CodeBlock*, std::__ndk1::function<bool ()> const&)>, std::__ndk1::function<bool (CodeBlock*, std::__ndk1::function<bool ()> const&)> > const&)::$_1::operator()(CodeBlock*) const::{lambda()#1}, std::__ndk1::allocator<SideBarCell::SideBarAction::SideBarAction(std::__ndk1::basic_string<char, std::__ndk1::char_traits<char>, std::__ndk1::allocator<char> > const&, std::__ndk1::tuple<std::__ndk1::basic_string<char, std::__ndk1::char_traits<char>, std::__ndk1::allocator<char> >, std::__ndk1::basic_string<char, std::__ndk1::char_traits<char>, std::__ndk1::allocator<char> > > const&, std::__ndk1::tuple<std::__ndk1::basic_string<char, std::__ndk1::char_traits<char>, std::__ndk1::allocator<char> >, std::__ndk1::basic_string<char, std::__ndk1::char_traits<char>, std::__ndk1::allocator<char> > > const&, bool, std::__ndk1::tuple<std::__ndk1::function<bool (CodeBlock*, std::__ndk1::function<bool ()> const&)>, std::__ndk1::function<bool (CodeBlock*, std::__ndk1::function<bool ()> const&)> > const&)::$_1::operator()(CodeBlock*) const::{lambda()#1}>, bool ()>::target(std::type_info const&) const
PUBLIC 9f3b4 0 std::__ndk1::__function::__func<SideBarCell::SideBarAction::SideBarAction(std::__ndk1::basic_string<char, std::__ndk1::char_traits<char>, std::__ndk1::allocator<char> > const&, std::__ndk1::tuple<std::__ndk1::basic_string<char, std::__ndk1::char_traits<char>, std::__ndk1::allocator<char> >, std::__ndk1::basic_string<char, std::__ndk1::char_traits<char>, std::__ndk1::allocator<char> > > const&, std::__ndk1::tuple<std::__ndk1::basic_string<char, std::__ndk1::char_traits<char>, std::__ndk1::allocator<char> >, std::__ndk1::basic_string<char, std::__ndk1::char_traits<char>, std::__ndk1::allocator<char> > > const&, bool, std::__ndk1::tuple<std::__ndk1::function<bool (CodeBlock*, std::__ndk1::function<bool ()> const&)>, std::__ndk1::function<bool (CodeBlock*, std::__ndk1::function<bool ()> const&)> > const&)::$_1::operator()(CodeBlock*) const::{lambda()#1}, std::__ndk1::allocator<SideBarCell::SideBarAction::SideBarAction(std::__ndk1::basic_string<char, std::__ndk1::char_traits<char>, std::__ndk1::allocator<char> > const&, std::__ndk1::tuple<std::__ndk1::basic_string<char, std::__ndk1::char_traits<char>, std::__ndk1::allocator<char> >, std::__ndk1::basic_string<char, std::__ndk1::char_traits<char>, std::__ndk1::allocator<char> > > const&, std::__ndk1::tuple<std::__ndk1::basic_string<char, std::__ndk1::char_traits<char>, std::__ndk1::allocator<char> >, std::__ndk1::basic_string<char, std::__ndk1::char_traits<char>, std::__ndk1::allocator<char> > > const&, bool, std::__ndk1::tuple<std::__ndk1::function<bool (CodeBlock*, std::__ndk1::function<bool ()> const&)>, std::__ndk1::function<bool (CodeBlock*, std::__ndk1::function<bool ()> const&)> > const&)::$_1::operator()(CodeBlock*) const::{lambda()#1}>, bool ()>::target_type() const
PUBLIC 9f3c0 0 std::__ndk1::__function::__func<SideBarCell::SideBarAction::SideBarAction(std::__ndk1::basic_string<char, std::__ndk1::char_traits<char>, std::__ndk1::allocator<char> > const&, std::__ndk1::tuple<std::__ndk1::basic_string<char, std::__ndk1::char_traits<char>, std::__ndk1::allocator<char> >, std::__ndk1::basic_string<char, std::__ndk1::char_traits<char>, std::__ndk1::allocator<char> > > const&, std::__ndk1::tuple<std::__ndk1::basic_string<char, std::__ndk1::char_traits<char>, std::__ndk1::allocator<char> >, std::__ndk1::basic_string<char, std::__ndk1::char_traits<char>, std::__ndk1::allocator<char> > > const&, bool, std::__ndk1::tuple<std::__ndk1::function<bool (CodeBlock*, std::__ndk1::function<bool ()> const&)>, std::__ndk1::function<bool (CodeBlock*, std::__ndk1::function<bool ()> const&)> > const&)::$_2, std::__ndk1::allocator<SideBarCell::SideBarAction::SideBarAction(std::__ndk1::basic_string<char, std::__ndk1::char_traits<char>, std::__ndk1::allocator<char> > const&, std::__ndk1::tuple<std::__ndk1::basic_string<char, std::__ndk1::char_traits<char>, std::__ndk1::allocator<char> >, std::__ndk1::basic_string<char, std::__ndk1::char_traits<char>, std::__ndk1::allocator<char> > > const&, std::__ndk1::tuple<std::__ndk1::basic_string<char, std::__ndk1::char_traits<char>, std::__ndk1::allocator<char> >, std::__ndk1::basic_string<char, std::__ndk1::char_traits<char>, std::__ndk1::allocator<char> > > const&, bool, std::__ndk1::tuple<std::__ndk1::function<bool (CodeBlock*, std::__ndk1::function<bool ()> const&)>, std::__ndk1::function<bool (CodeBlock*, std::__ndk1::function<bool ()> const&)> > const&)::$_2>, bool (CodeBlock*)>::~__func()
PUBLIC 9f3e0 0 std::__ndk1::__function::__func<SideBarCell::SideBarAction::SideBarAction(std::__ndk1::basic_string<char, std::__ndk1::char_traits<char>, std::__ndk1::allocator<char> > const&, std::__ndk1::tuple<std::__ndk1::basic_string<char, std::__ndk1::char_traits<char>, std::__ndk1::allocator<char> >, std::__ndk1::basic_string<char, std::__ndk1::char_traits<char>, std::__ndk1::allocator<char> > > const&, std::__ndk1::tuple<std::__ndk1::basic_string<char, std::__ndk1::char_traits<char>, std::__ndk1::allocator<char> >, std::__ndk1::basic_string<char, std::__ndk1::char_traits<char>, std::__ndk1::allocator<char> > > const&, bool, std::__ndk1::tuple<std::__ndk1::function<bool (CodeBlock*, std::__ndk1::function<bool ()> const&)>, std::__ndk1::function<bool (CodeBlock*, std::__ndk1::function<bool ()> const&)> > const&)::$_2, std::__ndk1::allocator<SideBarCell::SideBarAction::SideBarAction(std::__ndk1::basic_string<char, std::__ndk1::char_traits<char>, std::__ndk1::allocator<char> > const&, std::__ndk1::tuple<std::__ndk1::basic_string<char, std::__ndk1::char_traits<char>, std::__ndk1::allocator<char> >, std::__ndk1::basic_string<char, std::__ndk1::char_traits<char>, std::__ndk1::allocator<char> > > const&, std::__ndk1::tuple<std::__ndk1::basic_string<char, std::__ndk1::char_traits<char>, std::__ndk1::allocator<char> >, std::__ndk1::basic_string<char, std::__ndk1::char_traits<char>, std::__ndk1::allocator<char> > > const&, bool, std::__ndk1::tuple<std::__ndk1::function<bool (CodeBlock*, std::__ndk1::function<bool ()> const&)>, std::__ndk1::function<bool (CodeBlock*, std::__ndk1::function<bool ()> const&)> > const&)::$_2>, bool (CodeBlock*)>::~__func()
PUBLIC 9f420 0 std::__ndk1::__function::__func<SideBarCell::SideBarAction::SideBarAction(std::__ndk1::basic_string<char, std::__ndk1::char_traits<char>, std::__ndk1::allocator<char> > const&, std::__ndk1::tuple<std::__ndk1::basic_string<char, std::__ndk1::char_traits<char>, std::__ndk1::allocator<char> >, std::__ndk1::basic_string<char, std::__ndk1::char_traits<char>, std::__ndk1::allocator<char> > > const&, std::__ndk1::tuple<std::__ndk1::basic_string<char, std::__ndk1::char_traits<char>, std::__ndk1::allocator<char> >, std::__ndk1::basic_string<char, std::__ndk1::char_traits<char>, std::__ndk1::allocator<char> > > const&, bool, std::__ndk1::tuple<std::__ndk1::function<bool (CodeBlock*, std::__ndk1::function<bool ()> const&)>, std::__ndk1::function<bool (CodeBlock*, std::__ndk1::function<bool ()> const&)> > const&)::$_2, std::__ndk1::allocator<SideBarCell::SideBarAction::SideBarAction(std::__ndk1::basic_string<char, std::__ndk1::char_traits<char>, std::__ndk1::allocator<char> > const&, std::__ndk1::tuple<std::__ndk1::basic_string<char, std::__ndk1::char_traits<char>, std::__ndk1::allocator<char> >, std::__ndk1::basic_string<char, std::__ndk1::char_traits<char>, std::__ndk1::allocator<char> > > const&, std::__ndk1::tuple<std::__ndk1::basic_string<char, std::__ndk1::char_traits<char>, std::__ndk1::allocator<char> >, std::__ndk1::basic_string<char, std::__ndk1::char_traits<char>, std::__ndk1::allocator<char> > > const&, bool, std::__ndk1::tuple<std::__ndk1::function<bool (CodeBlock*, std::__ndk1::function<bool ()> const&)>, std::__ndk1::function<bool (CodeBlock*, std::__ndk1::function<bool ()> const&)> > const&)::$_2>, bool (CodeBlock*)>::__clone() const
PUBLIC 9f4b0 0 std::__ndk1::__function::__func<SideBarCell::SideBarAction::SideBarAction(std::__ndk1::basic_string<char, std::__ndk1::char_traits<char>, std::__ndk1::allocator<char> > const&, std::__ndk1::tuple<std::__ndk1::basic_string<char, std::__ndk1::char_traits<char>, std::__ndk1::allocator<char> >, std::__ndk1::basic_string<char, std::__ndk1::char_traits<char>, std::__ndk1::allocator<char> > > const&, std::__ndk1::tuple<std::__ndk1::basic_string<char, std::__ndk1::char_traits<char>, std::__ndk1::allocator<char> >, std::__ndk1::basic_string<char, std::__ndk1::char_traits<char>, std::__ndk1::allocator<char> > > const&, bool, std::__ndk1::tuple<std::__ndk1::function<bool (CodeBlock*, std::__ndk1::function<bool ()> const&)>, std::__ndk1::function<bool (CodeBlock*, std::__ndk1::function<bool ()> const&)> > const&)::$_2, std::__ndk1::allocator<SideBarCell::SideBarAction::SideBarAction(std::__ndk1::basic_string<char, std::__ndk1::char_traits<char>, std::__ndk1::allocator<char> > const&, std::__ndk1::tuple<std::__ndk1::basic_string<char, std::__ndk1::char_traits<char>, std::__ndk1::allocator<char> >, std::__ndk1::basic_string<char, std::__ndk1::char_traits<char>, std::__ndk1::allocator<char> > > const&, std::__ndk1::tuple<std::__ndk1::basic_string<char, std::__ndk1::char_traits<char>, std::__ndk1::allocator<char> >, std::__ndk1::basic_string<char, std::__ndk1::char_traits<char>, std::__ndk1::allocator<char> > > const&, bool, std::__ndk1::tuple<std::__ndk1::function<bool (CodeBlock*, std::__ndk1::function<bool ()> const&)>, std::__ndk1::function<bool (CodeBlock*, std::__ndk1::function<bool ()> const&)> > const&)::$_2>, bool (CodeBlock*)>::__clone(std::__ndk1::__function::__base<bool (CodeBlock*)>*) const
PUBLIC 9f520 0 std::__ndk1::__function::__func<SideBarCell::SideBarAction::SideBarAction(std::__ndk1::basic_string<char, std::__ndk1::char_traits<char>, std::__ndk1::allocator<char> > const&, std::__ndk1::tuple<std::__ndk1::basic_string<char, std::__ndk1::char_traits<char>, std::__ndk1::allocator<char> >, std::__ndk1::basic_string<char, std::__ndk1::char_traits<char>, std::__ndk1::allocator<char> > > const&, std::__ndk1::tuple<std::__ndk1::basic_string<char, std::__ndk1::char_traits<char>, std::__ndk1::allocator<char> >, std::__ndk1::basic_string<char, std::__ndk1::char_traits<char>, std::__ndk1::allocator<char> > > const&, bool, std::__ndk1::tuple<std::__ndk1::function<bool (CodeBlock*, std::__ndk1::function<bool ()> const&)>, std::__ndk1::function<bool (CodeBlock*, std::__ndk1::function<bool ()> const&)> > const&)::$_2, std::__ndk1::allocator<SideBarCell::SideBarAction::SideBarAction(std::__ndk1::basic_string<char, std::__ndk1::char_traits<char>, std::__ndk1::allocator<char> > const&, std::__ndk1::tuple<std::__ndk1::basic_string<char, std::__ndk1::char_traits<char>, std::__ndk1::allocator<char> >, std::__ndk1::basic_string<char, std::__ndk1::char_traits<char>, std::__ndk1::allocator<char> > > const&, std::__ndk1::tuple<std::__ndk1::basic_string<char, std::__ndk1::char_traits<char>, std::__ndk1::allocator<char> >, std::__ndk1::basic_string<char, std::__ndk1::char_traits<char>, std::__ndk1::allocator<char> > > const&, bool, std::__ndk1::tuple<std::__ndk1::function<bool (CodeBlock*, std::__ndk1::function<bool ()> const&)>, std::__ndk1::function<bool (CodeBlock*, std::__ndk1::function<bool ()> const&)> > const&)::$_2>, bool (CodeBlock*)>::destroy()
PUBLIC 9f534 0 std::__ndk1::__function::__func<SideBarCell::SideBarAction::SideBarAction(std::__ndk1::basic_string<char, std::__ndk1::char_traits<char>, std::__ndk1::allocator<char> > const&, std::__ndk1::tuple<std::__ndk1::basic_string<char, std::__ndk1::char_traits<char>, std::__ndk1::allocator<char> >, std::__ndk1::basic_string<char, std::__ndk1::char_traits<char>, std::__ndk1::allocator<char> > > const&, std::__ndk1::tuple<std::__ndk1::basic_string<char, std::__ndk1::char_traits<char>, std::__ndk1::allocator<char> >, std::__ndk1::basic_string<char, std::__ndk1::char_traits<char>, std::__ndk1::allocator<char> > > const&, bool, std::__ndk1::tuple<std::__ndk1::function<bool (CodeBlock*, std::__ndk1::function<bool ()> const&)>, std::__ndk1::function<bool (CodeBlock*, std::__ndk1::function<bool ()> const&)> > const&)::$_2, std::__ndk1::allocator<SideBarCell::SideBarAction::SideBarAction(std::__ndk1::basic_string<char, std::__ndk1::char_traits<char>, std::__ndk1::allocator<char> > const&, std::__ndk1::tuple<std::__ndk1::basic_string<char, std::__ndk1::char_traits<char>, std::__ndk1::allocator<char> >, std::__ndk1::basic_string<char, std::__ndk1::char_traits<char>, std::__ndk1::allocator<char> > > const&, std::__ndk1::tuple<std::__ndk1::basic_string<char, std::__ndk1::char_traits<char>, std::__ndk1::allocator<char> >, std::__ndk1::basic_string<char, std::__ndk1::char_traits<char>, std::__ndk1::allocator<char> > > const&, bool, std::__ndk1::tuple<std::__ndk1::function<bool (CodeBlock*, std::__ndk1::function<bool ()> const&)>, std::__ndk1::function<bool (CodeBlock*, std::__ndk1::function<bool ()> const&)> > const&)::$_2>, bool (CodeBlock*)>::destroy_deallocate()
PUBLIC 9f568 0 std::__ndk1::__function::__func<SideBarCell::SideBarAction::SideBarAction(std::__ndk1::basic_string<char, std::__ndk1::char_traits<char>, std::__ndk1::allocator<char> > const&, std::__ndk1::tuple<std::__ndk1::basic_string<char, std::__ndk1::char_traits<char>, std::__ndk1::allocator<char> >, std::__ndk1::basic_string<char, std::__ndk1::char_traits<char>, std::__ndk1::allocator<char> > > const&, std::__ndk1::tuple<std::__ndk1::basic_string<char, std::__ndk1::char_traits<char>, std::__ndk1::allocator<char> >, std::__ndk1::basic_string<char, std::__ndk1::char_traits<char>, std::__ndk1::allocator<char> > > const&, bool, std::__ndk1::tuple<std::__ndk1::function<bool (CodeBlock*, std::__ndk1::function<bool ()> const&)>, std::__ndk1::function<bool (CodeBlock*, std::__ndk1::function<bool ()> const&)> > const&)::$_2, std::__ndk1::allocator<SideBarCell::SideBarAction::SideBarAction(std::__ndk1::basic_string<char, std::__ndk1::char_traits<char>, std::__ndk1::allocator<char> > const&, std::__ndk1::tuple<std::__ndk1::basic_string<char, std::__ndk1::char_traits<char>, std::__ndk1::allocator<char> >, std::__ndk1::basic_string<char, std::__ndk1::char_traits<char>, std::__ndk1::allocator<char> > > const&, std::__ndk1::tuple<std::__ndk1::basic_string<char, std::__ndk1::char_traits<char>, std::__ndk1::allocator<char> >, std::__ndk1::basic_string<char, std::__ndk1::char_traits<char>, std::__ndk1::allocator<char> > > const&, bool, std::__ndk1::tuple<std::__ndk1::function<bool (CodeBlock*, std::__ndk1::function<bool ()> const&)>, std::__ndk1::function<bool (CodeBlock*, std::__ndk1::function<bool ()> const&)> > const&)::$_2>, bool (CodeBlock*)>::operator()(CodeBlock*&&)
PUBLIC 9f5d0 0 std::__ndk1::__function::__func<SideBarCell::SideBarAction::SideBarAction(std::__ndk1::basic_string<char, std::__ndk1::char_traits<char>, std::__ndk1::allocator<char> > const&, std::__ndk1::tuple<std::__ndk1::basic_string<char, std::__ndk1::char_traits<char>, std::__ndk1::allocator<char> >, std::__ndk1::basic_string<char, std::__ndk1::char_traits<char>, std::__ndk1::allocator<char> > > const&, std::__ndk1::tuple<std::__ndk1::basic_string<char, std::__ndk1::char_traits<char>, std::__ndk1::allocator<char> >, std::__ndk1::basic_string<char, std::__ndk1::char_traits<char>, std::__ndk1::allocator<char> > > const&, bool, std::__ndk1::tuple<std::__ndk1::function<bool (CodeBlock*, std::__ndk1::function<bool ()> const&)>, std::__ndk1::function<bool (CodeBlock*, std::__ndk1::function<bool ()> const&)> > const&)::$_2, std::__ndk1::allocator<SideBarCell::SideBarAction::SideBarAction(std::__ndk1::basic_string<char, std::__ndk1::char_traits<char>, std::__ndk1::allocator<char> > const&, std::__ndk1::tuple<std::__ndk1::basic_string<char, std::__ndk1::char_traits<char>, std::__ndk1::allocator<char> >, std::__ndk1::basic_string<char, std::__ndk1::char_traits<char>, std::__ndk1::allocator<char> > > const&, std::__ndk1::tuple<std::__ndk1::basic_string<char, std::__ndk1::char_traits<char>, std::__ndk1::allocator<char> >, std::__ndk1::basic_string<char, std::__ndk1::char_traits<char>, std::__ndk1::allocator<char> > > const&, bool, std::__ndk1::tuple<std::__ndk1::function<bool (CodeBlock*, std::__ndk1::function<bool ()> const&)>, std::__ndk1::function<bool (CodeBlock*, std::__ndk1::function<bool ()> const&)> > const&)::$_2>, bool (CodeBlock*)>::target(std::type_info const&) const
PUBLIC 9f5ec 0 std::__ndk1::__function::__func<SideBarCell::SideBarAction::SideBarAction(std::__ndk1::basic_string<char, std::__ndk1::char_traits<char>, std::__ndk1::allocator<char> > const&, std::__ndk1::tuple<std::__ndk1::basic_string<char, std::__ndk1::char_traits<char>, std::__ndk1::allocator<char> >, std::__ndk1::basic_string<char, std::__ndk1::char_traits<char>, std::__ndk1::allocator<char> > > const&, std::__ndk1::tuple<std::__ndk1::basic_string<char, std::__ndk1::char_traits<char>, std::__ndk1::allocator<char> >, std::__ndk1::basic_string<char, std::__ndk1::char_traits<char>, std::__ndk1::allocator<char> > > const&, bool, std::__ndk1::tuple<std::__ndk1::function<bool (CodeBlock*, std::__ndk1::function<bool ()> const&)>, std::__ndk1::function<bool (CodeBlock*, std::__ndk1::function<bool ()> const&)> > const&)::$_2, std::__ndk1::allocator<SideBarCell::SideBarAction::SideBarAction(std::__ndk1::basic_string<char, std::__ndk1::char_traits<char>, std::__ndk1::allocator<char> > const&, std::__ndk1::tuple<std::__ndk1::basic_string<char, std::__ndk1::char_traits<char>, std::__ndk1::allocator<char> >, std::__ndk1::basic_string<char, std::__ndk1::char_traits<char>, std::__ndk1::allocator<char> > > const&, std::__ndk1::tuple<std::__ndk1::basic_string<char, std::__ndk1::char_traits<char>, std::__ndk1::allocator<char> >, std::__ndk1::basic_string<char, std::__ndk1::char_traits<char>, std::__ndk1::allocator<char> > > const&, bool, std::__ndk1::tuple<std::__ndk1::function<bool (CodeBlock*, std::__ndk1::function<bool ()> const&)>, std::__ndk1::function<bool (CodeBlock*, std::__ndk1::function<bool ()> const&)> > const&)::$_2>, bool (CodeBlock*)>::target_type() const
PUBLIC 9f5f8 0 SideBarCell::SideBarCategory::operator==(SideBarCell::SideBarCategory const&) const
PUBLIC 9f768 0 CategoryCell::init(SideBarCell::SideBarCategory const&)
PUBLIC 9fb54 0 HoverNode<cocos2d::CCLayerColor>::init()
PUBLIC 9fb58 0 CategoryCell::onHover()
PUBLIC 9fb5c 0 CategoryCell::onScaleToMin()
PUBLIC 9fbec 0 CategoryCell::onScaleToMax()
PUBLIC 9fcfc 0 CategoryCell::draw()
PUBLIC 9fe24 0 CategoryCell::~CategoryCell()
PUBLIC 9fe48 0 HoverNode<cocos2d::CCLayerColor>::unHover()
PUBLIC 9fe4c 0 {virtual override thunk({offset(-320)}, CategoryCell::~CategoryCell())}
PUBLIC 9fe54 0 {virtual override thunk({offset(-320)}, CategoryCell::~CategoryCell())}
PUBLIC 9fe7c 0 CodeLineCell::CodeLineCell(cocos2d::CCSize const&, unsigned long, float, proxy::HttpInfo::Content const&, JSONTokenizer&)
PUBLIC a00e4 0 CodeLineCell::initRender()
PUBLIC a0890 0 CodeLineCell::~CodeLineCell()
PUBLIC a0978 0 CodeLineCell::~CodeLineCell()
PUBLIC a0a68 0 CullingCell::firstRender()
PUBLIC a0a6c 0 {virtual override thunk({offset(-320)}, CodeLineCell::~CodeLineCell())}
PUBLIC a0b58 0 {virtual override thunk({offset(-320)}, CodeLineCell::~CodeLineCell())}
PUBLIC a0c4c 0 CullingCell::CullingCell(cocos2d::CCSize const&)
PUBLIC a0d4c 0 CullingCell::~CullingCell()
PUBLIC a0de8 0 {virtual override thunk({offset(-320)}, CullingCell::~CullingCell())}
PUBLIC a0e88 0 CullingCell::~CullingCell()
PUBLIC a0e8c 0 {virtual override thunk({offset(-320)}, CullingCell::~CullingCell())}
PUBLIC a0e90 0 CullingCell::discard()
PUBLIC a0ea8 0 ViewCell::init(SideBarCell::SideBarView const&)
PUBLIC a11e0 0 ViewCell::onHover()
PUBLIC a1230 0 ViewCell::unHover()
PUBLIC a1280 0 ViewCell::onScaleToMin()
PUBLIC a1310 0 ViewCell::onScaleToMax()
PUBLIC a1410 0 ViewCell::~ViewCell()
PUBLIC a1434 0 {virtual override thunk({offset(-320)}, ViewCell::~ViewCell())}
PUBLIC a143c 0 {virtual override thunk({offset(-320)}, ViewCell::~ViewCell())}
PUBLIC a1464 0 CullingList::init(cocos2d::CCSize const&)
PUBLIC a1554 0 CullingList::CullingList(std::__ndk1::vector<CullingCell*, std::__ndk1::allocator<CullingCell*> > const&)
PUBLIC a1688 0 CullingList::~CullingList()
PUBLIC a1760 0 {virtual override thunk({offset(-320)}, CullingList::~CullingList())}
PUBLIC a1768 0 CullingList::~CullingList()
PUBLIC a178c 0 {virtual override thunk({offset(-320)}, CullingList::~CullingList())}
PUBLIC a17b4 0 CullingList::reloadData()
PUBLIC a1a98 0 CullingList::setCells(std::__ndk1::vector<CullingCell*, std::__ndk1::allocator<CullingCell*> > const&)
PUBLIC a1b9c 0 CullingList::setContentSize(cocos2d::CCSize const&)
PUBLIC a1be8 0 CullingList::update(float)
PUBLIC a22a0 0 CullingList::numberOfRowsInSection(unsigned int, TableView*)
PUBLIC a22a8 0 {virtual override thunk({offset(-552)}, CullingList::numberOfRowsInSection(unsigned int, TableView*))}
PUBLIC a22b0 0 CullingList::numberOfSectionsInTableView(TableView*)
PUBLIC a22b8 0 {virtual override thunk({offset(-552)}, CullingList::numberOfSectionsInTableView(TableView*))}
PUBLIC a22c0 0 CullingList::cellHeightForRowAtIndexPath(CCIndexPath&, TableView*)
PUBLIC a22c8 0 {virtual override thunk({offset(-544)}, CullingList::cellHeightForRowAtIndexPath(CCIndexPath&, TableView*))}
PUBLIC a22d0 0 CullingList::cellForRowAtIndexPath(CCIndexPath&, TableView*)
PUBLIC a22d8 0 {virtual override thunk({offset(-552)}, CullingList::cellForRowAtIndexPath(CCIndexPath&, TableView*))}
PUBLIC a22e0 0 std::__ndk1::vector<CullingCell*, std::__ndk1::allocator<CullingCell*> >::__throw_out_of_range[abi:ne180000]() const
PUBLIC a22f4 0 std::__ndk1::vector<CullingCell*, std::__ndk1::allocator<CullingCell*> >::__assign_with_size[abi:ne180000]<CullingCell**, std::__ndk1::vector<CullingCell*, std::__ndk1::allocator<CullingCell*> >::__assign_with_size[abi:ne180000]>(CullingCell**, std::__ndk1::vector<CullingCell*, std::__ndk1::allocator<CullingCell*> >::__assign_with_size[abi:ne180000], long)
PUBLIC a2424 0 std::__ndk1::__function::__base<void (CullingCell* const&)>::~__base()
PUBLIC a2428 0 std::__ndk1::__function::__func<CullingList::reloadData()::$_0, std::__ndk1::allocator<CullingList::reloadData()::$_0>, void (CullingCell* const&)>::~__func()
PUBLIC a242c 0 std::__ndk1::__function::__func<CullingList::reloadData()::$_0, std::__ndk1::allocator<CullingList::reloadData()::$_0>, void (CullingCell* const&)>::__clone() const
PUBLIC a2460 0 std::__ndk1::__function::__func<CullingList::reloadData()::$_0, std::__ndk1::allocator<CullingList::reloadData()::$_0>, void (CullingCell* const&)>::__clone(std::__ndk1::__function::__base<void (CullingCell* const&)>*) const
PUBLIC a2474 0 std::__ndk1::__function::__func<CullingList::reloadData()::$_0, std::__ndk1::allocator<CullingList::reloadData()::$_0>, void (CullingCell* const&)>::destroy()
PUBLIC a2478 0 std::__ndk1::__function::__func<CullingList::reloadData()::$_0, std::__ndk1::allocator<CullingList::reloadData()::$_0>, void (CullingCell* const&)>::destroy_deallocate()
PUBLIC a247c 0 std::__ndk1::__function::__func<CullingList::reloadData()::$_0, std::__ndk1::allocator<CullingList::reloadData()::$_0>, void (CullingCell* const&)>::operator()(CullingCell* const&)
PUBLIC a249c 0 std::__ndk1::__function::__func<CullingList::reloadData()::$_0, std::__ndk1::allocator<CullingList::reloadData()::$_0>, void (CullingCell* const&)>::target(std::type_info const&) const
PUBLIC a24b8 0 std::__ndk1::__function::__func<CullingList::reloadData()::$_0, std::__ndk1::allocator<CullingList::reloadData()::$_0>, void (CullingCell* const&)>::target_type() const
PUBLIC a24c4 0 MonospaceLabel::create(std::__ndk1::basic_string<char, std::__ndk1::char_traits<char>, std::__ndk1::allocator<char> > const&, std::__ndk1::basic_string<char, std::__ndk1::char_traits<char>, std::__ndk1::allocator<char> > const&, float)
PUBLIC a262c 0 MonospaceLabel::updateLabel()
PUBLIC a2810 0 MonospaceLabel::~MonospaceLabel()
PUBLIC a2834 0 TracklessScrollbar::init(cocos2d::CCSize const&, CCScrollLayerExt*)
PUBLIC a2968 0 TracklessScrollbar::ccTouchMoved(cocos2d::CCTouch*, cocos2d::CCEvent*)
PUBLIC a2ad0 0 {virtual override thunk({offset(-320)}, TracklessScrollbar::ccTouchMoved(cocos2d::CCTouch*, cocos2d::CCEvent*))}
PUBLIC a2ad8 0 TracklessScrollbar::update(float)
PUBLIC a2de0 0 TracklessScrollbar::draw()
PUBLIC a2ef4 0 TracklessScrollbar::~TracklessScrollbar()
PUBLIC a2f18 0 {virtual override thunk({offset(-320)}, TracklessScrollbar::~TracklessScrollbar())}
PUBLIC a2f20 0 {virtual override thunk({offset(-320)}, TracklessScrollbar::~TracklessScrollbar())}
PUBLIC a2f48 0 CenterLabel::create(std::__ndk1::basic_string<char, std::__ndk1::char_traits<char>, std::__ndk1::allocator<char> > const&, std::__ndk1::basic_string<char, std::__ndk1::char_traits<char>, std::__ndk1::allocator<char> > const&)
PUBLIC a3090 0 CenterLabel::updateLabel()
PUBLIC a31d0 0 CenterLabel::~CenterLabel()
PUBLIC a31f4 0 Character::create(char, std::__ndk1::basic_string<char, std::__ndk1::char_traits<char>, std::__ndk1::allocator<char> > const&, bool)
PUBLIC a333c 0 Character::setCString(char const*)
PUBLIC a34ec 0 Character::updateLabel()
PUBLIC a35b4 0 Character::~Character()
PUBLIC a35d8 0 RescalingNode::init(cocos2d::CCNode*, cocos2d::CCSize const&)
PUBLIC a3708 0 RescalingNode::setContentSize(cocos2d::CCSize const&)
PUBLIC a3814 0 RescalingNode::~RescalingNode()
PUBLIC a3838 0 JSONTokenizer::parseLine(std::__ndk1::basic_string<char, std::__ndk1::char_traits<char>, std::__ndk1::allocator<char> > const&)
PUBLIC a43b8 0 std::__ndk1::vector<JSONTokenizer::TokenOffset, std::__ndk1::allocator<JSONTokenizer::TokenOffset> >::__throw_length_error[abi:ne180000]() const
PUBLIC a43cc 0 LookupTable<std::__ndk1::basic_string<char, std::__ndk1::char_traits<char>, std::__ndk1::allocator<char> >, Theme::Theme>::~LookupTable()
PUBLIC a4488 0 Theme::Color::extractChannels(std::__ndk1::basic_string<char, std::__ndk1::char_traits<char>, std::__ndk1::allocator<char> > const&)
PUBLIC a46f0 0 Theme::Color::extractChannel(std::__ndk1::basic_string<char, std::__ndk1::char_traits<char>, std::__ndk1::allocator<char> > const&, unsigned long, bool) const
PUBLIC a48f0 0 Theme::Theme::load()
PUBLIC a5014 0 Theme::Theme::loadDirectory(std::__ndk1::__fs::filesystem::path const&)
PUBLIC a826c 0 nlohmann::json_abi_v3_11_3::basic_json<std::__ndk1::map, std::__ndk1::vector, std::__ndk1::basic_string<char, std::__ndk1::char_traits<char>, std::__ndk1::allocator<char> >, bool, long, unsigned long, double, std::__ndk1::allocator, nlohmann::json_abi_v3_11_3::adl_serializer, std::__ndk1::vector<unsigned char, std::__ndk1::allocator<unsigned char> >, void>::parse<std::__ndk1::basic_string<char, std::__ndk1::char_traits<char>, std::__ndk1::allocator<char> > const&>(std::__ndk1::basic_string<char, std::__ndk1::char_traits<char>, std::__ndk1::allocator<char> > const&, std::__ndk1::function<bool (int, nlohmann::json_abi_v3_11_3::detail::parse_event_t, nlohmann::json_abi_v3_11_3::basic_json<std::__ndk1::map, std::__ndk1::vector, std::__ndk1::basic_string<char, std::__ndk1::char_traits<char>, std::__ndk1::allocator<char> >, bool, long, unsigned long, double, std::__ndk1::allocator, nlohmann::json_abi_v3_11_3::adl_serializer, std::__ndk1::vector<unsigned char, std::__ndk1::allocator<unsigned char> >, void>&)>, bool, bool)
PUBLIC a8510 0 _ZNK8nlohmann16json_abi_v3_11_310basic_jsonINSt6__ndk13mapENS2_6vectorENS2_12basic_stringIcNS2_11char_traitsIcEENS2_9allocatorIcEEEEblmdS8_NS0_14adl_serializerENS4_IhNS8_IhEEEEvE2atIRA5_KcTnNS2_9enable_ifIXsr6detail32is_usable_as_basic_json_key_typeISE_T_EE5valueEiE4typeELi0EEERKSE_OSK_
PUBLIC a86f4 0 _ZNK8nlohmann16json_abi_v3_11_310basic_jsonINSt6__ndk13mapENS2_6vectorENS2_12basic_stringIcNS2_11char_traitsIcEENS2_9allocatorIcEEEEblmdS8_NS0_14adl_serializerENS4_IhNS8_IhEEEEvE2atIRA6_KcTnNS2_9enable_ifIXsr6detail32is_usable_as_basic_json_key_typeISE_T_EE5valueEiE4typeELi0EEERKSE_OSK_
PUBLIC a88d8 0 geode::log::warn<std::__ndk1::basic_string<char, std::__ndk1::char_traits<char>, std::__ndk1::allocator<char> >, char const*>(fmt::v11::basic_format_string<char, fmt::v11::type_identity<std::__ndk1::conditional<IsWrappedCocos<std::__ndk1::basic_string<char, std::__ndk1::char_traits<char>, std::__ndk1::allocator<char> >, char const*>, decltype ((wrapCocosObj<std::__ndk1::basic_string<char, std::__ndk1::char_traits<char>, std::__ndk1::allocator<char> >, char const*>)((std::declval<std::__ndk1::basic_string<char, std::__ndk1::char_traits<char>, std::__ndk1::allocator<char> >, char const*>)())), std::__ndk1::basic_string<char, std::__ndk1::char_traits<char>, std::__ndk1::allocator<char> >, char const*>::type>::type>, std::__ndk1::basic_string<char, std::__ndk1::char_traits<char>, std::__ndk1::allocator<char> >&&, char const*)
PUBLIC a8984 0 geode::impl::ResultData<std::__ndk1::vector<std::__ndk1::__fs::filesystem::path, std::__ndk1::allocator<std::__ndk1::__fs::filesystem::path> >, std::__ndk1::basic_string<char, std::__ndk1::char_traits<char>, std::__ndk1::allocator<char> > >::~ResultData()
PUBLIC a89f8 0 _ZNK8nlohmann16json_abi_v3_11_310basic_jsonINSt6__ndk13mapENS2_6vectorENS2_12basic_stringIcNS2_11char_traitsIcEENS2_9allocatorIcEEEEblmdS8_NS0_14adl_serializerENS4_IhNS8_IhEEEEvE2atIRA7_KcTnNS2_9enable_ifIXsr6detail32is_usable_as_basic_json_key_typeISE_T_EE5valueEiE4typeELi0EEERKSE_OSK_
PUBLIC a8ccc 0 _ZNK8nlohmann16json_abi_v3_11_310basic_jsonINSt6__ndk13mapENS2_6vectorENS2_12basic_stringIcNS2_11char_traitsIcEENS2_9allocatorIcEEEEblmdS8_NS0_14adl_serializerENS4_IhNS8_IhEEEEvE2atIRA11_KcTnNS2_9enable_ifIXsr6detail32is_usable_as_basic_json_key_typeISE_T_EE5valueEiE4typeELi0EEERKSE_OSK_
PUBLIC a8fa0 0 _ZNK8nlohmann16json_abi_v3_11_310basic_jsonINSt6__ndk13mapENS2_6vectorENS2_12basic_stringIcNS2_11char_traitsIcEENS2_9allocatorIcEEEEblmdS8_NS0_14adl_serializerENS4_IhNS8_IhEEEEvE2atIRA9_KcTnNS2_9enable_ifIXsr6detail32is_usable_as_basic_json_key_typeISE_T_EE5valueEiE4typeELi0EEERKSE_OSK_
PUBLIC a9184 0 nlohmann::json_abi_v3_11_3::basic_json<std::__ndk1::map, std::__ndk1::vector, std::__ndk1::basic_string<char, std::__ndk1::char_traits<char>, std::__ndk1::allocator<char> >, bool, long, unsigned long, double, std::__ndk1::allocator, nlohmann::json_abi_v3_11_3::adl_serializer, std::__ndk1::vector<unsigned char, std::__ndk1::allocator<unsigned char> >, void>::at(std::__ndk1::basic_string<char, std::__ndk1::char_traits<char>, std::__ndk1::allocator<char> > const&) const
PUBLIC a9330 0 Theme::getTheme()
PUBLIC a97b4 0 LookupTable<std::__ndk1::basic_string<char, std::__ndk1::char_traits<char>, std::__ndk1::allocator<char> >, Theme::Theme>::at(std::__ndk1::basic_string<char, std::__ndk1::char_traits<char>, std::__ndk1::allocator<char> > const&)
PUBLIC a98b4 0 Theme::from_json(nlohmann::json_abi_v3_11_3::basic_json<std::__ndk1::map, std::__ndk1::vector, std::__ndk1::basic_string<char, std::__ndk1::char_traits<char>, std::__ndk1::allocator<char> >, bool, long, unsigned long, double, std::__ndk1::allocator, nlohmann::json_abi_v3_11_3::adl_serializer, std::__ndk1::vector<unsigned char, std::__ndk1::allocator<unsigned char> >, void> const&, Theme::Color&)
PUBLIC a9b38 0 nlohmann::json_abi_v3_11_3::basic_json<std::__ndk1::map, std::__ndk1::vector, std::__ndk1::basic_string<char, std::__ndk1::char_traits<char>, std::__ndk1::allocator<char> >, bool, long, unsigned long, double, std::__ndk1::allocator, nlohmann::json_abi_v3_11_3::adl_serializer, std::__ndk1::vector<unsigned char, std::__ndk1::allocator<unsigned char> >, void>::at(unsigned long) const
PUBLIC a9d68 0 _ZNK8nlohmann16json_abi_v3_11_310basic_jsonINSt6__ndk13mapENS2_6vectorENS2_12basic_stringIcNS2_11char_traitsIcEENS2_9allocatorIcEEEEblmdS8_NS0_14adl_serializerENS4_IhNS8_IhEEEEvE2atIRA2_KcTnNS2_9enable_ifIXsr6detail32is_usable_as_basic_json_key_typeISE_T_EE5valueEiE4typeELi0EEERKSE_OSK_
PUBLIC a9f4c 0 nlohmann::json_abi_v3_11_3::basic_json<std::__ndk1::map, std::__ndk1::vector, std::__ndk1::basic_string<char, std::__ndk1::char_traits<char>, std::__ndk1::allocator<char> >, bool, long, unsigned long, double, std::__ndk1::allocator, nlohmann::json_abi_v3_11_3::adl_serializer, std::__ndk1::vector<unsigned char, std::__ndk1::allocator<unsigned char> >, void>::dump(int, char, bool, nlohmann::json_abi_v3_11_3::detail::error_handler_t) const
PUBLIC aa220 0 std::__ndk1::pair<std::__ndk1::basic_string<char, std::__ndk1::char_traits<char>, std::__ndk1::allocator<char> >, Theme::Theme>::~pair()
PUBLIC aa284 0 nlohmann::json_abi_v3_11_3::detail::from_json<nlohmann::json_abi_v3_11_3::basic_json<std::__ndk1::map, std::__ndk1::vector, std::__ndk1::basic_string<char, std::__ndk1::char_traits<char>, std::__ndk1::allocator<char> >, bool, long, unsigned long, double, std::__ndk1::allocator, nlohmann::json_abi_v3_11_3::adl_serializer, std::__ndk1::vector<unsigned char, std::__ndk1::allocator<unsigned char> >, void> >(nlohmann::json_abi_v3_11_3::basic_json<std::__ndk1::map, std::__ndk1::vector, std::__ndk1::basic_string<char, std::__ndk1::char_traits<char>, std::__ndk1::allocator<char> >, bool, long, unsigned long, double, std::__ndk1::allocator, nlohmann::json_abi_v3_11_3::adl_serializer, std::__ndk1::vector<unsigned char, std::__ndk1::allocator<unsigned char> >, void> const&, nlohmann::json_abi_v3_11_3::basic_json<std::__ndk1::map, std::__ndk1::vector, std::__ndk1::basic_string<char, std::__ndk1::char_traits<char>, std::__ndk1::allocator<char> >, bool, long, unsigned long, double, std::__ndk1::allocator, nlohmann::json_abi_v3_11_3::adl_serializer, std::__ndk1::vector<unsigned char, std::__ndk1::allocator<unsigned char> >, void>&::string_t)
PUBLIC aa458 0 _ZN8nlohmann16json_abi_v3_11_36detail10type_error6createIPKNS0_10basic_jsonINSt6__ndk13mapENS5_6vectorENS5_12basic_stringIcNS5_11char_traitsIcEENS5_9allocatorIcEEEEblmdSB_NS0_14adl_serializerENS7_IhNSB_IhEEEEvEETnNS5_9enable_ifIXsr21is_basic_json_contextIT_EE5valueEiE4typeELi0EEES2_iRKSD_SL_
PUBLIC aa640 0 nlohmann::json_abi_v3_11_3::detail::concat<std::__ndk1::basic_string<char, std::__ndk1::char_traits<char>, std::__ndk1::allocator<char> >, char const (&) [29], char const*>(char const (&) [29], char const*)
PUBLIC aa6e8 0 nlohmann::json_abi_v3_11_3::basic_json<std::__ndk1::map, std::__ndk1::vector, std::__ndk1::basic_string<char, std::__ndk1::char_traits<char>, std::__ndk1::allocator<char> >, bool, long, unsigned long, double, std::__ndk1::allocator, nlohmann::json_abi_v3_11_3::adl_serializer, std::__ndk1::vector<unsigned char, std::__ndk1::allocator<unsigned char> >, void>::type_name() const
PUBLIC aa714 0 nlohmann::json_abi_v3_11_3::detail::concat<std::__ndk1::basic_string<char, std::__ndk1::char_traits<char>, std::__ndk1::allocator<char> >, std::__ndk1::basic_string<char, std::__ndk1::char_traits<char>, std::__ndk1::allocator<char> >, std::__ndk1::basic_string<char, std::__ndk1::char_traits<char>, std::__ndk1::allocator<char> >, std::__ndk1::basic_string<char, std::__ndk1::char_traits<char>, std::__ndk1::allocator<char> > const&>(std::__ndk1::basic_string<char, std::__ndk1::char_traits<char>, std::__ndk1::allocator<char> >&&, std::__ndk1::basic_string<char, std::__ndk1::char_traits<char>, std::__ndk1::allocator<char> >, std::__ndk1::basic_string<char, std::__ndk1::char_traits<char>, std::__ndk1::allocator<char> > const&)
PUBLIC aa814 0 nlohmann::json_abi_v3_11_3::detail::concat<std::__ndk1::basic_string<char, std::__ndk1::char_traits<char>, std::__ndk1::allocator<char> >, char const (&) [17], std::__ndk1::basic_string<char, std::__ndk1::char_traits<char>, std::__ndk1::allocator<char> > const&, char, std::__ndk1::basic_string<char, std::__ndk1::char_traits<char>, std::__ndk1::allocator<char> >, char const (&) [3]>(char const (&) [17], std::__ndk1::basic_string<char, std::__ndk1::char_traits<char>, std::__ndk1::allocator<char> > const&, char, std::__ndk1::basic_string<char, std::__ndk1::char_traits<char>, std::__ndk1::allocator<char> >, char const (&) [3])
PUBLIC aa968 0 nlohmann::json_abi_v3_11_3::detail::type_error::~type_error()
PUBLIC aa9a0 0 nlohmann::json_abi_v3_11_3::detail::exception::what() const
PUBLIC aa9a8 0 nlohmann::json_abi_v3_11_3::detail::exception::~exception()
PUBLIC aa9e0 0 std::__ndk1::__variant_detail::__visitation::__base::__dispatcher<(unsigned long)0>::__dispatch[abi:ne180000]<std::__ndk1::__variant_detail::__dtor<std::__ndk1::__variant_detail::__traits<std::__ndk1::vector<std::__ndk1::__fs::filesystem::path, std::__ndk1::allocator<std::__ndk1::__fs::filesystem> >, std::__ndk1::basic_string<char, std::__ndk1::char_traits<char>, std::__ndk1::__fs::filesystem::path<char> > >, (std::__ndk1::__variant_detail::_Trait)1>::__destroy[abi:ne180000]()::{lambda(auto:1&)#1}, std::__ndk1::__variant_detail::__base<(std::__ndk1::__variant_detail::__traits<std::__ndk1::vector<std::__ndk1::__fs::filesystem::path, std::__ndk1::allocator<std::__ndk1::__fs::filesystem> >, std::__ndk1::basic_string<char, std::__ndk1::char_traits<char>, std::__ndk1::__fs::filesystem::path<char> > >)1, std::__ndk1::allocator<std::__ndk1::__fs::filesystem>, std::__ndk1::__fs::filesystem::path<char> >&>(std::__ndk1::__variant_detail::__dtor<std::__ndk1::__variant_detail::__traits<std::__ndk1::vector<std::__ndk1::__fs::filesystem::path, std::__ndk1::allocator<std::__ndk1::__fs::filesystem> >, std::__ndk1::basic_string<char, std::__ndk1::char_traits<char>, std::__ndk1::__fs::filesystem::path<char> > >, (std::__ndk1::__variant_detail::_Trait)1>, std::__ndk1::__variant_detail::__base<(std::__ndk1::__variant_detail::__traits<std::__ndk1::vector<std::__ndk1::__fs::filesystem::path, std::__ndk1::allocator<std::__ndk1::__fs::filesystem> >, std::__ndk1::basic_string<char, std::__ndk1::char_traits<char>, std::__ndk1::__fs::filesystem::path<char> > >)1, std::__ndk1::allocator<std::__ndk1::__fs::filesystem>, std::__ndk1::__fs::filesystem::path<char> >&)
PUBLIC aaa5c 0 std::__ndk1::__variant_detail::__visitation::__base::__dispatcher<(unsigned long)1>::__dispatch[abi:ne180000]<std::__ndk1::__variant_detail::__dtor<std::__ndk1::__variant_detail::__traits<std::__ndk1::vector<std::__ndk1::__fs::filesystem::path, std::__ndk1::allocator<std::__ndk1::__fs::filesystem> >, std::__ndk1::basic_string<char, std::__ndk1::char_traits<char>, std::__ndk1::__fs::filesystem::path<char> > >, (std::__ndk1::__variant_detail::_Trait)1>::__destroy[abi:ne180000]()::{lambda(auto:1&)#1}, std::__ndk1::__variant_detail::__base<(std::__ndk1::__variant_detail::__traits<std::__ndk1::vector<std::__ndk1::__fs::filesystem::path, std::__ndk1::allocator<std::__ndk1::__fs::filesystem> >, std::__ndk1::basic_string<char, std::__ndk1::char_traits<char>, std::__ndk1::__fs::filesystem::path<char> > >)1, std::__ndk1::allocator<std::__ndk1::__fs::filesystem>, std::__ndk1::__fs::filesystem::path<char> >&>(std::__ndk1::__variant_detail::__dtor<std::__ndk1::__variant_detail::__traits<std::__ndk1::vector<std::__ndk1::__fs::filesystem::path, std::__ndk1::allocator<std::__ndk1::__fs::filesystem> >, std::__ndk1::basic_string<char, std::__ndk1::char_traits<char>, std::__ndk1::__fs::filesystem::path<char> > >, (std::__ndk1::__variant_detail::_Trait)1>, std::__ndk1::__variant_detail::__base<(std::__ndk1::__variant_detail::__traits<std::__ndk1::vector<std::__ndk1::__fs::filesystem::path, std::__ndk1::allocator<std::__ndk1::__fs::filesystem> >, std::__ndk1::basic_string<char, std::__ndk1::char_traits<char>, std::__ndk1::__fs::filesystem::path<char> > >)1, std::__ndk1::allocator<std::__ndk1::__fs::filesystem>, std::__ndk1::__fs::filesystem::path<char> >&)
PUBLIC aaa70 0 _ZN8nlohmann16json_abi_v3_11_36detail9from_jsonINS0_10basic_jsonINSt6__ndk13mapENS4_6vectorENS4_12basic_stringIcNS4_11char_traitsIcEENS4_9allocatorIcEEEEblmdSA_NS0_14adl_serializerENS6_IhNSA_IhEEEEvEEfTnNS4_9enable_ifIXaaaaaaaasr3std13is_arithmeticIT0_EE5valuentsr3std7is_sameISI_NT_17number_unsigned_tEEE5valuentsr3std7is_sameISI_NSJ_16number_integer_tEEE5valuentsr3std7is_sameISI_NSJ_14number_float_tEEE5valuentsr3std7is_sameISI_NSJ_9boolean_tEEE5valueEiE4typeELi0EEEvRKSJ_RSI_
PUBLIC aabec 0 std::__ndk1::__split_buffer<nlohmann::json_abi_v3_11_3::basic_json<std::__ndk1::map, std::__ndk1::vector, std::__ndk1::basic_string<char, std::__ndk1::char_traits<char>, std::__ndk1::allocator<char> >, bool, long, unsigned long, double, std::__ndk1::allocator, nlohmann::json_abi_v3_11_3::adl_serializer, std::__ndk1::vector<unsigned char, std::__ndk1::allocator<unsigned char> >, void>, std::__ndk1::allocator<nlohmann::json_abi_v3_11_3::basic_json<std::__ndk1::map, std::__ndk1::vector, std::__ndk1::basic_string<char, std::__ndk1::char_traits<char>, std::__ndk1::allocator<char> >, bool, long, unsigned long, double, std::__ndk1::allocator, nlohmann::json_abi_v3_11_3::adl_serializer, std::__ndk1::vector<unsigned char, std::__ndk1::allocator<unsigned char> >, void> >&>::~__split_buffer()
PUBLIC aac44 0 geode::Mod::getSavedValue<std::__ndk1::vector<std::__ndk1::basic_string<char, std::__ndk1::char_traits<char>, std::__ndk1::allocator<char> >, std::__ndk1::allocator<std::__ndk1::basic_string<char, std::__ndk1::char_traits<char>, std::__ndk1::allocator<char> > > > >(std::__ndk1::basic_string_view<char, std::__ndk1::char_traits<char> >)
PUBLIC aae28 0 geode::impl::ResultData<std::__ndk1::vector<std::__ndk1::basic_string<char, std::__ndk1::char_traits<char>, std::__ndk1::allocator<char> >, std::__ndk1::allocator<std::__ndk1::basic_string<char, std::__ndk1::char_traits<char>, std::__ndk1::allocator<char> > > >, std::__ndk1::basic_string<char, std::__ndk1::char_traits<char>, std::__ndk1::allocator<char> > >::~ResultData()
PUBLIC aae9c 0 _ZN7matjson9SerializeINSt6__ndk16vectorINS1_12basic_stringIcNS1_11char_traitsIcEENS1_9allocatorIcEEEENS6_IS8_EEEEE8fromJsonERKNS_5ValueEQrQSE__Xcldtfp_2asIT_EEE
PUBLIC ab1d0 0 std::__ndk1::vector<std::__ndk1::basic_string<char, std::__ndk1::char_traits<char>, std::__ndk1::allocator<char> >, std::__ndk1::allocator<std::__ndk1::basic_string<char, std::__ndk1::char_traits<char>, std::__ndk1::allocator<char> > > >::reserve(unsigned long)
PUBLIC ab2e4 0 std::__ndk1::vector<std::__ndk1::basic_string<char, std::__ndk1::char_traits<char>, std::__ndk1::allocator<char> >, std::__ndk1::allocator<std::__ndk1::basic_string<char, std::__ndk1::char_traits<char>, std::__ndk1::allocator<char> > > >::__emplace_back_slow_path<std::__ndk1::basic_string<char, std::__ndk1::char_traits<char>, std::__ndk1::allocator<char> > >(std::__ndk1::basic_string<char, std::__ndk1::char_traits<char>, std::__ndk1::allocator<char> >&&)
PUBLIC ab44c 0 std::__ndk1::__variant_detail::__visitation::__base::__dispatcher<(unsigned long)0>::__dispatch[abi:ne180000]<std::__ndk1::__variant_detail::__dtor<std::__ndk1::__variant_detail::__traits<std::__ndk1::vector<std::__ndk1::basic_string<char, std::__ndk1::char_traits<char>, std::__ndk1::allocator<char> >, std::__ndk1::char_traits<char><std::__ndk1::allocator<char> > >, std::__ndk1::allocator<char> >, (std::__ndk1::__variant_detail::_Trait)1>::__destroy[abi:ne180000]()::{lambda(auto:1&)#1}, std::__ndk1::__variant_detail::__base<(std::__ndk1::__variant_detail::__traits<std::__ndk1::vector<std::__ndk1::basic_string<char, std::__ndk1::char_traits<char>, std::__ndk1::allocator<char> >, std::__ndk1::char_traits<char><std::__ndk1::allocator<char> > >, std::__ndk1::allocator<char> >)1, std::__ndk1::char_traits<char><std::__ndk1::allocator<char> >, std::__ndk1::allocator<char> >&>(std::__ndk1::__variant_detail::__dtor<std::__ndk1::__variant_detail::__traits<std::__ndk1::vector<std::__ndk1::basic_string<char, std::__ndk1::char_traits<char>, std::__ndk1::allocator<char> >, std::__ndk1::char_traits<char><std::__ndk1::allocator<char> > >, std::__ndk1::allocator<char> >, (std::__ndk1::__variant_detail::_Trait)1>, std::__ndk1::__variant_detail::__base<(std::__ndk1::__variant_detail::__traits<std::__ndk1::vector<std::__ndk1::basic_string<char, std::__ndk1::char_traits<char>, std::__ndk1::allocator<char> >, std::__ndk1::char_traits<char><std::__ndk1::allocator<char> > >, std::__ndk1::allocator<char> >)1, std::__ndk1::char_traits<char><std::__ndk1::allocator<char> >, std::__ndk1::allocator<char> >&)
PUBLIC ab4c8 0 std::__ndk1::__variant_detail::__visitation::__base::__dispatcher<(unsigned long)1>::__dispatch[abi:ne180000]<std::__ndk1::__variant_detail::__dtor<std::__ndk1::__variant_detail::__traits<std::__ndk1::vector<std::__ndk1::basic_string<char, std::__ndk1::char_traits<char>, std::__ndk1::allocator<char> >, std::__ndk1::char_traits<char><std::__ndk1::allocator<char> > >, std::__ndk1::allocator<char> >, (std::__ndk1::__variant_detail::_Trait)1>::__destroy[abi:ne180000]()::{lambda(auto:1&)#1}, std::__ndk1::__variant_detail::__base<(std::__ndk1::__variant_detail::__traits<std::__ndk1::vector<std::__ndk1::basic_string<char, std::__ndk1::char_traits<char>, std::__ndk1::allocator<char> >, std::__ndk1::char_traits<char><std::__ndk1::allocator<char> > >, std::__ndk1::allocator<char> >)1, std::__ndk1::char_traits<char><std::__ndk1::allocator<char> >, std::__ndk1::allocator<char> >&>(std::__ndk1::__variant_detail::__dtor<std::__ndk1::__variant_detail::__traits<std::__ndk1::vector<std::__ndk1::basic_string<char, std::__ndk1::char_traits<char>, std::__ndk1::allocator<char> >, std::__ndk1::char_traits<char><std::__ndk1::allocator<char> > >, std::__ndk1::allocator<char> >, (std::__ndk1::__variant_detail::_Trait)1>, std::__ndk1::__variant_detail::__base<(std::__ndk1::__variant_detail::__traits<std::__ndk1::vector<std::__ndk1::basic_string<char, std::__ndk1::char_traits<char>, std::__ndk1::allocator<char> >, std::__ndk1::char_traits<char><std::__ndk1::allocator<char> > >, std::__ndk1::allocator<char> >)1, std::__ndk1::char_traits<char><std::__ndk1::allocator<char> >, std::__ndk1::allocator<char> >&)
PUBLIC ab4dc 0 std::__ndk1::vector<matjson::Value, std::__ndk1::allocator<matjson::Value> >::~vector[abi:ne180000]()
PUBLIC ab544 0 std::__ndk1::vector<matjson::Value, std::__ndk1::allocator<matjson::Value> >::__throw_length_error[abi:ne180000]() const
PUBLIC ab558 0 nlohmann::json_abi_v3_11_3::detail::parser<nlohmann::json_abi_v3_11_3::basic_json<std::__ndk1::map, std::__ndk1::vector, std::__ndk1::basic_string<char, std::__ndk1::char_traits<char>, std::__ndk1::allocator<char> >, bool, long, unsigned long, double, std::__ndk1::allocator, nlohmann::json_abi_v3_11_3::adl_serializer, std::__ndk1::vector<unsigned char, std::__ndk1::allocator<unsigned char> >, void>, nlohmann::json_abi_v3_11_3::detail::iterator_input_adapter<std::__ndk1::__wrap_iter<char const*> > >::parse(bool, nlohmann::json_abi_v3_11_3::basic_json<std::__ndk1::map, std::__ndk1::vector, std::__ndk1::basic_string<char, std::__ndk1::char_traits<char>, std::__ndk1::allocator<char> >, bool, long, unsigned long, double, std::__ndk1::allocator, nlohmann::json_abi_v3_11_3::adl_serializer, std::__ndk1::vector<unsigned char, std::__ndk1::allocator<unsigned char> >, void>&)
PUBLIC abb40 0 nlohmann::json_abi_v3_11_3::detail::parser<nlohmann::json_abi_v3_11_3::basic_json<std::__ndk1::map, std::__ndk1::vector, std::__ndk1::basic_string<char, std::__ndk1::char_traits<char>, std::__ndk1::allocator<char> >, bool, long, unsigned long, double, std::__ndk1::allocator, nlohmann::json_abi_v3_11_3::adl_serializer, std::__ndk1::vector<unsigned char, std::__ndk1::allocator<unsigned char> >, void>, nlohmann::json_abi_v3_11_3::detail::iterator_input_adapter<std::__ndk1::__wrap_iter<char const*> > >::~parser()
PUBLIC abbc8 0 nlohmann::json_abi_v3_11_3::basic_json<std::__ndk1::map, std::__ndk1::vector, std::__ndk1::basic_string<char, std::__ndk1::char_traits<char>, std::__ndk1::allocator<char> >, bool, long, unsigned long, double, std::__ndk1::allocator, nlohmann::json_abi_v3_11_3::adl_serializer, std::__ndk1::vector<unsigned char, std::__ndk1::allocator<unsigned char> >, void>::json_value::json_value(nlohmann::json_abi_v3_11_3::detail::value_t)
PUBLIC abcdc 0 nlohmann::json_abi_v3_11_3::detail::parser<nlohmann::json_abi_v3_11_3::basic_json<std::__ndk1::map, std::__ndk1::vector, std::__ndk1::basic_string<char, std::__ndk1::char_traits<char>, std::__ndk1::allocator<char> >, bool, long, unsigned long, double, std::__ndk1::allocator, nlohmann::json_abi_v3_11_3::adl_serializer, std::__ndk1::vector<unsigned char, std::__ndk1::allocator<unsigned char> >, void>, nlohmann::json_abi_v3_11_3::detail::iterator_input_adapter<std::__ndk1::__wrap_iter<char const*> > >::parser(nlohmann::json_abi_v3_11_3::detail::iterator_input_adapter<std::__ndk1::__wrap_iter<char const*> >&&, std::__ndk1::function<bool (int, nlohmann::json_abi_v3_11_3::detail::parse_event_t, nlohmann::json_abi_v3_11_3::basic_json<std::__ndk1::map, std::__ndk1::vector, std::__ndk1::basic_string<char, std::__ndk1::char_traits<char>, std::__ndk1::allocator<char> >, bool, long, unsigned long, double, std::__ndk1::allocator, nlohmann::json_abi_v3_11_3::adl_serializer, std::__ndk1::vector<unsigned char, std::__ndk1::allocator<unsigned char> >, void>&)>, bool, bool)
PUBLIC abe14 0 nlohmann::json_abi_v3_11_3::detail::lexer<nlohmann::json_abi_v3_11_3::basic_json<std::__ndk1::map, std::__ndk1::vector, std::__ndk1::basic_string<char, std::__ndk1::char_traits<char>, std::__ndk1::allocator<char> >, bool, long, unsigned long, double, std::__ndk1::allocator, nlohmann::json_abi_v3_11_3::adl_serializer, std::__ndk1::vector<unsigned char, std::__ndk1::allocator<unsigned char> >, void>, nlohmann::json_abi_v3_11_3::detail::iterator_input_adapter<std::__ndk1::__wrap_iter<char const*> > >::~lexer()
PUBLIC abe58 0 nlohmann::json_abi_v3_11_3::detail::lexer<nlohmann::json_abi_v3_11_3::basic_json<std::__ndk1::map, std::__ndk1::vector, std::__ndk1::basic_string<char, std::__ndk1::char_traits<char>, std::__ndk1::allocator<char> >, bool, long, unsigned long, double, std::__ndk1::allocator, nlohmann::json_abi_v3_11_3::adl_serializer, std::__ndk1::vector<unsigned char, std::__ndk1::allocator<unsigned char> >, void>, nlohmann::json_abi_v3_11_3::detail::iterator_input_adapter<std::__ndk1::__wrap_iter<char const*> > >::scan()
PUBLIC ac0e0 0 nlohmann::json_abi_v3_11_3::detail::lexer<nlohmann::json_abi_v3_11_3::basic_json<std::__ndk1::map, std::__ndk1::vector, std::__ndk1::basic_string<char, std::__ndk1::char_traits<char>, std::__ndk1::allocator<char> >, bool, long, unsigned long, double, std::__ndk1::allocator, nlohmann::json_abi_v3_11_3::adl_serializer, std::__ndk1::vector<unsigned char, std::__ndk1::allocator<unsigned char> >, void>, nlohmann::json_abi_v3_11_3::detail::iterator_input_adapter<std::__ndk1::__wrap_iter<char const*> > >::skip_whitespace()
PUBLIC ac344 0 nlohmann::json_abi_v3_11_3::detail::lexer<nlohmann::json_abi_v3_11_3::basic_json<std::__ndk1::map, std::__ndk1::vector, std::__ndk1::basic_string<char, std::__ndk1::char_traits<char>, std::__ndk1::allocator<char> >, bool, long, unsigned long, double, std::__ndk1::allocator, nlohmann::json_abi_v3_11_3::adl_serializer, std::__ndk1::vector<unsigned char, std::__ndk1::allocator<unsigned char> >, void>, nlohmann::json_abi_v3_11_3::detail::iterator_input_adapter<std::__ndk1::__wrap_iter<char const*> > >::scan_comment()
PUBLIC ac464 0 nlohmann::json_abi_v3_11_3::detail::lexer<nlohmann::json_abi_v3_11_3::basic_json<std::__ndk1::map, std::__ndk1::vector, std::__ndk1::basic_string<char, std::__ndk1::char_traits<char>, std::__ndk1::allocator<char> >, bool, long, unsigned long, double, std::__ndk1::allocator, nlohmann::json_abi_v3_11_3::adl_serializer, std::__ndk1::vector<unsigned char, std::__ndk1::allocator<unsigned char> >, void>, nlohmann::json_abi_v3_11_3::detail::iterator_input_adapter<std::__ndk1::__wrap_iter<char const*> > >::scan_string()
PUBLIC ad4e8 0 nlohmann::json_abi_v3_11_3::detail::lexer<nlohmann::json_abi_v3_11_3::basic_json<std::__ndk1::map, std::__ndk1::vector, std::__ndk1::basic_string<char, std::__ndk1::char_traits<char>, std::__ndk1::allocator<char> >, bool, long, unsigned long, double, std::__ndk1::allocator, nlohmann::json_abi_v3_11_3::adl_serializer, std::__ndk1::vector<unsigned char, std::__ndk1::allocator<unsigned char> >, void>, nlohmann::json_abi_v3_11_3::detail::iterator_input_adapter<std::__ndk1::__wrap_iter<char const*> > >::scan_number()
PUBLIC adbe0 0 nlohmann::json_abi_v3_11_3::detail::lexer<nlohmann::json_abi_v3_11_3::basic_json<std::__ndk1::map, std::__ndk1::vector, std::__ndk1::basic_string<char, std::__ndk1::char_traits<char>, std::__ndk1::allocator<char> >, bool, long, unsigned long, double, std::__ndk1::allocator, nlohmann::json_abi_v3_11_3::adl_serializer, std::__ndk1::vector<unsigned char, std::__ndk1::allocator<unsigned char> >, void>, nlohmann::json_abi_v3_11_3::detail::iterator_input_adapter<std::__ndk1::__wrap_iter<char const*> > >::get()
PUBLIC ade20 0 std::__ndk1::vector<char, std::__ndk1::allocator<char> >::__throw_length_error[abi:ne180000]() const
PUBLIC ade34 0 nlohmann::json_abi_v3_11_3::detail::lexer<nlohmann::json_abi_v3_11_3::basic_json<std::__ndk1::map, std::__ndk1::vector, std::__ndk1::basic_string<char, std::__ndk1::char_traits<char>, std::__ndk1::allocator<char> >, bool, long, unsigned long, double, std::__ndk1::allocator, nlohmann::json_abi_v3_11_3::adl_serializer, std::__ndk1::vector<unsigned char, std::__ndk1::allocator<unsigned char> >, void>, nlohmann::json_abi_v3_11_3::detail::iterator_input_adapter<std::__ndk1::__wrap_iter<char const*> > >::get_codepoint()
PUBLIC adfe0 0 nlohmann::json_abi_v3_11_3::detail::json_sax_dom_callback_parser<nlohmann::json_abi_v3_11_3::basic_json<std::__ndk1::map, std::__ndk1::vector, std::__ndk1::basic_string<char, std::__ndk1::char_traits<char>, std::__ndk1::allocator<char> >, bool, long, unsigned long, double, std::__ndk1::allocator, nlohmann::json_abi_v3_11_3::adl_serializer, std::__ndk1::vector<unsigned char, std::__ndk1::allocator<unsigned char> >, void> >::json_sax_dom_callback_parser(nlohmann::json_abi_v3_11_3::basic_json<std::__ndk1::map, std::__ndk1::vector, std::__ndk1::basic_string<char, std::__ndk1::char_traits<char>, std::__ndk1::allocator<char> >, bool, long, unsigned long, double, std::__ndk1::allocator, nlohmann::json_abi_v3_11_3::adl_serializer, std::__ndk1::vector<unsigned char, std::__ndk1::allocator<unsigned char> >, void>&, std::__ndk1::function<bool (int, nlohmann::json_abi_v3_11_3::detail::parse_event_t, nlohmann::json_abi_v3_11_3::basic_json<std::__ndk1::map, std::__ndk1::vector, std::__ndk1::basic_string<char, std::__ndk1::char_traits<char>, std::__ndk1::allocator<char> >, bool, long, unsigned long, double, std::__ndk1::allocator, nlohmann::json_abi_v3_11_3::adl_serializer, std::__ndk1::vector<unsigned char, std::__ndk1::allocator<unsigned char> >, void>&)>, bool)
PUBLIC ae1a0 0 nlohmann::json_abi_v3_11_3::detail::parser<nlohmann::json_abi_v3_11_3::basic_json<std::__ndk1::map, std::__ndk1::vector, std::__ndk1::basic_string<char, std::__ndk1::char_traits<char>, std::__ndk1::allocator<char> >, bool, long, unsigned long, double, std::__ndk1::allocator, nlohmann::json_abi_v3_11_3::adl_serializer, std::__ndk1::vector<unsigned char, std::__ndk1::allocator<unsigned char> >, void>, nlohmann::json_abi_v3_11_3::detail::iterator_input_adapter<std::__ndk1::__wrap_iter<char const*> > >::sax_parse_internal<nlohmann::json_abi_v3_11_3::detail::json_sax_dom_callback_parser<nlohmann::json_abi_v3_11_3::basic_json<std::__ndk1::map, std::__ndk1::vector, std::__ndk1::basic_string<char, std::__ndk1::char_traits<char>, std::__ndk1::allocator<char> >, bool, long, unsigned long, double, std::__ndk1::allocator, nlohmann::json_abi_v3_11_3::adl_serializer, std::__ndk1::vector<unsigned char, std::__ndk1::allocator<unsigned char> >, void> > >(nlohmann::json_abi_v3_11_3::detail::json_sax_dom_callback_parser<nlohmann::json_abi_v3_11_3::basic_json<std::__ndk1::map, std::__ndk1::vector, std::__ndk1::basic_string<char, std::__ndk1::char_traits<char>, std::__ndk1::allocator<char> >, bool, long, unsigned long, double, std::__ndk1::allocator, nlohmann::json_abi_v3_11_3::adl_serializer, std::__ndk1::vector<unsigned char, std::__ndk1::allocator<unsigned char> >, void> >*)
PUBLIC aef70 0 nlohmann::json_abi_v3_11_3::detail::json_sax_dom_callback_parser<nlohmann::json_abi_v3_11_3::basic_json<std::__ndk1::map, std::__ndk1::vector, std::__ndk1::basic_string<char, std::__ndk1::char_traits<char>, std::__ndk1::allocator<char> >, bool, long, unsigned long, double, std::__ndk1::allocator, nlohmann::json_abi_v3_11_3::adl_serializer, std::__ndk1::vector<unsigned char, std::__ndk1::allocator<unsigned char> >, void> >::parse_error<nlohmann::json_abi_v3_11_3::detail::parse_error>(unsigned long, std::__ndk1::basic_string<char, std::__ndk1::char_traits<char>, std::__ndk1::allocator<char> > const&, nlohmann::json_abi_v3_11_3::detail::parse_error const&)
PUBLIC aefc4 0 nlohmann::json_abi_v3_11_3::detail::lexer<nlohmann::json_abi_v3_11_3::basic_json<std::__ndk1::map, std::__ndk1::vector, std::__ndk1::basic_string<char, std::__ndk1::char_traits<char>, std::__ndk1::allocator<char> >, bool, long, unsigned long, double, std::__ndk1::allocator, nlohmann::json_abi_v3_11_3::adl_serializer, std::__ndk1::vector<unsigned char, std::__ndk1::allocator<unsigned char> >, void>, nlohmann::json_abi_v3_11_3::detail::iterator_input_adapter<std::__ndk1::__wrap_iter<char const*> > >::get_token_string() const
PUBLIC af0c4 0 _ZN8nlohmann16json_abi_v3_11_36detail11parse_error6createIDnTnNSt6__ndk19enable_ifIXsr21is_basic_json_contextIT_EE5valueEiE4typeELi0EEES2_iRKNS1_10position_tERKNS4_12basic_stringIcNS4_11char_traitsIcEENS4_9allocatorIcEEEES6_
PUBLIC af330 0 nlohmann::json_abi_v3_11_3::detail::parser<nlohmann::json_abi_v3_11_3::basic_json<std::__ndk1::map, std::__ndk1::vector, std::__ndk1::basic_string<char, std::__ndk1::char_traits<char>, std::__ndk1::allocator<char> >, bool, long, unsigned long, double, std::__ndk1::allocator, nlohmann::json_abi_v3_11_3::adl_serializer, std::__ndk1::vector<unsigned char, std::__ndk1::allocator<unsigned char> >, void>, nlohmann::json_abi_v3_11_3::detail::iterator_input_adapter<std::__ndk1::__wrap_iter<char const*> > >::exception_message(nlohmann::json_abi_v3_11_3::detail::lexer_base<nlohmann::json_abi_v3_11_3::basic_json<std::__ndk1::map, std::__ndk1::vector, std::__ndk1::basic_string<char, std::__ndk1::char_traits<char>, std::__ndk1::allocator<char> >, bool, long, unsigned long, double, std::__ndk1::allocator, nlohmann::json_abi_v3_11_3::adl_serializer, std::__ndk1::vector<unsigned char, std::__ndk1::allocator<unsigned char> >, void> >::token_type, std::__ndk1::basic_string<char, std::__ndk1::char_traits<char>, std::__ndk1::allocator<char> > const&)
PUBLIC af6d4 0 nlohmann::json_abi_v3_11_3::detail::exception::~exception()
PUBLIC af704 0 nlohmann::json_abi_v3_11_3::detail::json_sax_dom_callback_parser<nlohmann::json_abi_v3_11_3::basic_json<std::__ndk1::map, std::__ndk1::vector, std::__ndk1::basic_string<char, std::__ndk1::char_traits<char>, std::__ndk1::allocator<char> >, bool, long, unsigned long, double, std::__ndk1::allocator, nlohmann::json_abi_v3_11_3::adl_serializer, std::__ndk1::vector<unsigned char, std::__ndk1::allocator<unsigned char> >, void> >::~json_sax_dom_callback_parser()
PUBLIC af790 0 nlohmann::json_abi_v3_11_3::detail::parser<nlohmann::json_abi_v3_11_3::basic_json<std::__ndk1::map, std::__ndk1::vector, std::__ndk1::basic_string<char, std::__ndk1::char_traits<char>, std::__ndk1::allocator<char> >, bool, long, unsigned long, double, std::__ndk1::allocator, nlohmann::json_abi_v3_11_3::adl_serializer, std::__ndk1::vector<unsigned char, std::__ndk1::allocator<unsigned char> >, void>, nlohmann::json_abi_v3_11_3::detail::iterator_input_adapter<std::__ndk1::__wrap_iter<char const*> > >::sax_parse_internal<nlohmann::json_abi_v3_11_3::detail::json_sax_dom_parser<nlohmann::json_abi_v3_11_3::basic_json<std::__ndk1::map, std::__ndk1::vector, std::__ndk1::basic_string<char, std::__ndk1::char_traits<char>, std::__ndk1::allocator<char> >, bool, long, unsigned long, double, std::__ndk1::allocator, nlohmann::json_abi_v3_11_3::adl_serializer, std::__ndk1::vector<unsigned char, std::__ndk1::allocator<unsigned char> >, void> > >(nlohmann::json_abi_v3_11_3::detail::json_sax_dom_parser<nlohmann::json_abi_v3_11_3::basic_json<std::__ndk1::map, std::__ndk1::vector, std::__ndk1::basic_string<char, std::__ndk1::char_traits<char>, std::__ndk1::allocator<char> >, bool, long, unsigned long, double, std::__ndk1::allocator, nlohmann::json_abi_v3_11_3::adl_serializer, std::__ndk1::vector<unsigned char, std::__ndk1::allocator<unsigned char> >, void> >*)
PUBLIC b057c 0 nlohmann::json_abi_v3_11_3::detail::json_sax_dom_parser<nlohmann::json_abi_v3_11_3::basic_json<std::__ndk1::map, std::__ndk1::vector, std::__ndk1::basic_string<char, std::__ndk1::char_traits<char>, std::__ndk1::allocator<char> >, bool, long, unsigned long, double, std::__ndk1::allocator, nlohmann::json_abi_v3_11_3::adl_serializer, std::__ndk1::vector<unsigned char, std::__ndk1::allocator<unsigned char> >, void> >::parse_error<nlohmann::json_abi_v3_11_3::detail::parse_error>(unsigned long, std::__ndk1::basic_string<char, std::__ndk1::char_traits<char>, std::__ndk1::allocator<char> > const&, nlohmann::json_abi_v3_11_3::detail::parse_error const&)
PUBLIC b05d0 0 std::__ndk1::vector<bool, std::__ndk1::allocator<bool> >::reserve(unsigned long)
PUBLIC b06d4 0 std::__ndk1::vector<bool, std::__ndk1::allocator<bool> >::__throw_length_error[abi:ne180000]() const
PUBLIC b06e8 0 nlohmann::json_abi_v3_11_3::detail::json_sax_dom_callback_parser<nlohmann::json_abi_v3_11_3::basic_json<std::__ndk1::map, std::__ndk1::vector, std::__ndk1::basic_string<char, std::__ndk1::char_traits<char>, std::__ndk1::allocator<char> >, bool, long, unsigned long, double, std::__ndk1::allocator, nlohmann::json_abi_v3_11_3::adl_serializer, std::__ndk1::vector<unsigned char, std::__ndk1::allocator<unsigned char> >, void> >::start_object(unsigned long)
PUBLIC b0ad8 0 nlohmann::json_abi_v3_11_3::detail::json_sax_dom_callback_parser<nlohmann::json_abi_v3_11_3::basic_json<std::__ndk1::map, std::__ndk1::vector, std::__ndk1::basic_string<char, std::__ndk1::char_traits<char>, std::__ndk1::allocator<char> >, bool, long, unsigned long, double, std::__ndk1::allocator, nlohmann::json_abi_v3_11_3::adl_serializer, std::__ndk1::vector<unsigned char, std::__ndk1::allocator<unsigned char> >, void> >::end_object()
PUBLIC b0d8c 0 nlohmann::json_abi_v3_11_3::detail::json_sax_dom_callback_parser<nlohmann::json_abi_v3_11_3::basic_json<std::__ndk1::map, std::__ndk1::vector, std::__ndk1::basic_string<char, std::__ndk1::char_traits<char>, std::__ndk1::allocator<char> >, bool, long, unsigned long, double, std::__ndk1::allocator, nlohmann::json_abi_v3_11_3::adl_serializer, std::__ndk1::vector<unsigned char, std::__ndk1::allocator<unsigned char> >, void> >::key(std::__ndk1::basic_string<char, std::__ndk1::char_traits<char>, std::__ndk1::allocator<char> >&)
PUBLIC b0fec 0 nlohmann::json_abi_v3_11_3::detail::json_sax_dom_callback_parser<nlohmann::json_abi_v3_11_3::basic_json<std::__ndk1::map, std::__ndk1::vector, std::__ndk1::basic_string<char, std::__ndk1::char_traits<char>, std::__ndk1::allocator<char> >, bool, long, unsigned long, double, std::__ndk1::allocator, nlohmann::json_abi_v3_11_3::adl_serializer, std::__ndk1::vector<unsigned char, std::__ndk1::allocator<unsigned char> >, void> >::start_array(unsigned long)
PUBLIC b13e0 0 nlohmann::json_abi_v3_11_3::detail::json_sax_dom_callback_parser<nlohmann::json_abi_v3_11_3::basic_json<std::__ndk1::map, std::__ndk1::vector, std::__ndk1::basic_string<char, std::__ndk1::char_traits<char>, std::__ndk1::allocator<char> >, bool, long, unsigned long, double, std::__ndk1::allocator, nlohmann::json_abi_v3_11_3::adl_serializer, std::__ndk1::vector<unsigned char, std::__ndk1::allocator<unsigned char> >, void> >::end_array()
PUBLIC b1570 0 nlohmann::json_abi_v3_11_3::detail::json_sax_dom_callback_parser<nlohmann::json_abi_v3_11_3::basic_json<std::__ndk1::map, std::__ndk1::vector, std::__ndk1::basic_string<char, std::__ndk1::char_traits<char>, std::__ndk1::allocator<char> >, bool, long, unsigned long, double, std::__ndk1::allocator, nlohmann::json_abi_v3_11_3::adl_serializer, std::__ndk1::vector<unsigned char, std::__ndk1::allocator<unsigned char> >, void> >::parse_error<nlohmann::json_abi_v3_11_3::detail::out_of_range>(unsigned long, std::__ndk1::basic_string<char, std::__ndk1::char_traits<char>, std::__ndk1::allocator<char> > const&, nlohmann::json_abi_v3_11_3::detail::out_of_range const&)
PUBLIC b15c4 0 _ZN8nlohmann16json_abi_v3_11_36detail12out_of_range6createIDnTnNSt6__ndk19enable_ifIXsr21is_basic_json_contextIT_EE5valueEiE4typeELi0EEES2_iRKNS4_12basic_stringIcNS4_11char_traitsIcEENS4_9allocatorIcEEEES6_
PUBLIC b17b0 0 nlohmann::json_abi_v3_11_3::detail::concat<std::__ndk1::basic_string<char, std::__ndk1::char_traits<char>, std::__ndk1::allocator<char> >, char const (&) [26], std::__ndk1::basic_string<char, std::__ndk1::char_traits<char>, std::__ndk1::allocator<char> >, char>(char const (&) [26], std::__ndk1::basic_string<char, std::__ndk1::char_traits<char>, std::__ndk1::allocator<char> >, char)
PUBLIC b1874 0 nlohmann::json_abi_v3_11_3::detail::json_sax_dom_callback_parser<nlohmann::json_abi_v3_11_3::basic_json<std::__ndk1::map, std::__ndk1::vector, std::__ndk1::basic_string<char, std::__ndk1::char_traits<char>, std::__ndk1::allocator<char> >, bool, long, unsigned long, double, std::__ndk1::allocator, nlohmann::json_abi_v3_11_3::adl_serializer, std::__ndk1::vector<unsigned char, std::__ndk1::allocator<unsigned char> >, void> >::handle_value<nlohmann::json_abi_v3_11_3::detail::value_t>(nlohmann::json_abi_v3_11_3::detail::value_t&&, bool)
PUBLIC b1ac4 0 _ZN8nlohmann16json_abi_v3_11_36detail12out_of_range6createIPNS0_10basic_jsonINSt6__ndk13mapENS5_6vectorENS5_12basic_stringIcNS5_11char_traitsIcEENS5_9allocatorIcEEEEblmdSB_NS0_14adl_serializerENS7_IhNSB_IhEEEEvEETnNS5_9enable_ifIXsr21is_basic_json_contextIT_EE5valueEiE4typeELi0EEES2_iRKSD_SK_
PUBLIC b1cb0 0 nlohmann::json_abi_v3_11_3::detail::concat<std::__ndk1::basic_string<char, std::__ndk1::char_traits<char>, std::__ndk1::allocator<char> >, char const (&) [24], std::__ndk1::basic_string<char, std::__ndk1::char_traits<char>, std::__ndk1::allocator<char> > >(char const (&) [24], std::__ndk1::basic_string<char, std::__ndk1::char_traits<char>, std::__ndk1::allocator<char> >)
PUBLIC b1d60 0 std::__ndk1::vector<nlohmann::json_abi_v3_11_3::basic_json<std::__ndk1::map, std::__ndk1::vector, std::__ndk1::basic_string<char, std::__ndk1::char_traits<char>, std::__ndk1::allocator<char> >, bool, long, unsigned long, double, std::__ndk1::allocator, nlohmann::json_abi_v3_11_3::adl_serializer, std::__ndk1::vector<unsigned char, std::__ndk1::allocator<unsigned char> >, void>, std::__ndk1::allocator<nlohmann::json_abi_v3_11_3::basic_json<std::__ndk1::map, std::__ndk1::vector, std::__ndk1::basic_string<char, std::__ndk1::char_traits<char>, std::__ndk1::allocator<char> >, bool, long, unsigned long, double, std::__ndk1::allocator, nlohmann::json_abi_v3_11_3::adl_serializer, std::__ndk1::vector<unsigned char, std::__ndk1::allocator<unsigned char> >, void> > >::__emplace_back_slow_path<nlohmann::json_abi_v3_11_3::basic_json<std::__ndk1::map, std::__ndk1::vector, std::__ndk1::basic_string<char, std::__ndk1::char_traits<char>, std::__ndk1::allocator<char> >, bool, long, unsigned long, double, std::__ndk1::allocator, nlohmann::json_abi_v3_11_3::adl_serializer, std::__ndk1::vector<unsigned char, std::__ndk1::allocator<unsigned char> >, void> >(nlohmann::json_abi_v3_11_3::basic_json<std::__ndk1::map, std::__ndk1::vector, std::__ndk1::basic_string<char, std::__ndk1::char_traits<char>, std::__ndk1::allocator<char> >, bool, long, unsigned long, double, std::__ndk1::allocator, nlohmann::json_abi_v3_11_3::adl_serializer, std::__ndk1::vector<unsigned char, std::__ndk1::allocator<unsigned char> >, void>&&)
PUBLIC b1e80 0 std::__ndk1::vector<nlohmann::json_abi_v3_11_3::basic_json<std::__ndk1::map, std::__ndk1::vector, std::__ndk1::basic_string<char, std::__ndk1::char_traits<char>, std::__ndk1::allocator<char> >, bool, long, unsigned long, double, std::__ndk1::allocator, nlohmann::json_abi_v3_11_3::adl_serializer, std::__ndk1::vector<unsigned char, std::__ndk1::allocator<unsigned char> >, void>*, std::__ndk1::allocator<nlohmann::json_abi_v3_11_3::basic_json<std::__ndk1::map, std::__ndk1::vector, std::__ndk1::basic_string<char, std::__ndk1::char_traits<char>, std::__ndk1::allocator<char> >, bool, long, unsigned long, double, std::__ndk1::allocator, nlohmann::json_abi_v3_11_3::adl_serializer, std::__ndk1::vector<unsigned char, std::__ndk1::allocator<unsigned char> >, void>*> >::__throw_length_error[abi:ne180000]() const
PUBLIC b1e94 0 nlohmann::json_abi_v3_11_3::detail::out_of_range::~out_of_range()
PUBLIC b1ecc 0 nlohmann::json_abi_v3_11_3::detail::iter_impl<nlohmann::json_abi_v3_11_3::basic_json<std::__ndk1::map, std::__ndk1::vector, std::__ndk1::basic_string<char, std::__ndk1::char_traits<char>, std::__ndk1::allocator<char> >, bool, long, unsigned long, double, std::__ndk1::allocator, nlohmann::json_abi_v3_11_3::adl_serializer, std::__ndk1::vector<unsigned char, std::__ndk1::allocator<unsigned char> >, void> >::operator->() const
PUBLIC b1ff8 0 _ZN8nlohmann16json_abi_v3_11_310basic_jsonINSt6__ndk13mapENS2_6vectorENS2_12basic_stringIcNS2_11char_traitsIcEENS2_9allocatorIcEEEEblmdS8_NS0_14adl_serializerENS4_IhNS8_IhEEEEvE5eraseINS0_6detail9iter_implISE_EETnNS2_9enable_ifIXoosr3std7is_sameIT_SI_EE5valuesr3std7is_sameISK_NSH_IKSE_EEEE5valueEiE4typeELi0EEESK_SK_
PUBLIC b2394 0 _ZNK8nlohmann16json_abi_v3_11_36detail9iter_implINS0_10basic_jsonINSt6__ndk13mapENS4_6vectorENS4_12basic_stringIcNS4_11char_traitsIcEENS4_9allocatorIcEEEEblmdSA_NS0_14adl_serializerENS6_IhNSA_IhEEEEvEEEeqISH_TnNS4_9enable_ifIXoosr3std7is_sameIT_SH_EE5valuesr3std7is_sameISK_NS2_IKSG_EEEE5valueEDnE4typeELDn0EEEbRKSK_
PUBLIC b24d4 0 _ZN8nlohmann16json_abi_v3_11_36detail16invalid_iterator6createIPNS0_10basic_jsonINSt6__ndk13mapENS5_6vectorENS5_12basic_stringIcNS5_11char_traitsIcEENS5_9allocatorIcEEEEblmdSB_NS0_14adl_serializerENS7_IhNSB_IhEEEEvEETnNS5_9enable_ifIXsr21is_basic_json_contextIT_EE5valueEiE4typeELi0EEES2_iRKSD_SK_
PUBLIC b26b4 0 nlohmann::json_abi_v3_11_3::detail::invalid_iterator::~invalid_iterator()
PUBLIC b26ec 0 _ZN8nlohmann16json_abi_v3_11_36detail10type_error6createIPNS0_10basic_jsonINSt6__ndk13mapENS5_6vectorENS5_12basic_stringIcNS5_11char_traitsIcEENS5_9allocatorIcEEEEblmdSB_NS0_14adl_serializerENS7_IhNSB_IhEEEEvEETnNS5_9enable_ifIXsr21is_basic_json_contextIT_EE5valueEiE4typeELi0EEES2_iRKSD_SK_
PUBLIC b28d4 0 nlohmann::json_abi_v3_11_3::detail::concat<std::__ndk1::basic_string<char, std::__ndk1::char_traits<char>, std::__ndk1::allocator<char> >, char const (&) [25], char const*>(char const (&) [25], char const*)
PUBLIC b297c 0 std::__ndk1::__tree<std::__ndk1::__value_type<std::__ndk1::basic_string<char, std::__ndk1::char_traits<char>, std::__ndk1::allocator<char> >, nlohmann::json_abi_v3_11_3::basic_json<std::__ndk1::map, std::__ndk1::vector, std::__ndk1::basic_string<char, std::__ndk1::char_traits<char>, std::__ndk1::allocator<char> >, bool, long, unsigned long, double, std::__ndk1::allocator, nlohmann::json_abi_v3_11_3::adl_serializer, std::__ndk1::vector<unsigned char, std::__ndk1::allocator<unsigned char> >, void> >, std::__ndk1::__map_value_compare<std::__ndk1::basic_string<char, std::__ndk1::char_traits<char>, std::__ndk1::allocator<char> >, std::__ndk1::__value_type<std::__ndk1::basic_string<char, std::__ndk1::char_traits<char>, std::__ndk1::allocator<char> >, nlohmann::json_abi_v3_11_3::basic_json<std::__ndk1::map, std::__ndk1::vector, std::__ndk1::basic_string<char, std::__ndk1::char_traits<char>, std::__ndk1::allocator<char> >, bool, long, unsigned long, double, std::__ndk1::allocator, nlohmann::json_abi_v3_11_3::adl_serializer, std::__ndk1::vector<unsigned char, std::__ndk1::allocator<unsigned char> >, void> >, std::__ndk1::less<void>, true>, std::__ndk1::allocator<std::__ndk1::__value_type<std::__ndk1::basic_string<char, std::__ndk1::char_traits<char>, std::__ndk1::allocator<char> >, nlohmann::json_abi_v3_11_3::basic_json<std::__ndk1::map, std::__ndk1::vector, std::__ndk1::basic_string<char, std::__ndk1::char_traits<char>, std::__ndk1::allocator<char> >, bool, long, unsigned long, double, std::__ndk1::allocator, nlohmann::json_abi_v3_11_3::adl_serializer, std::__ndk1::vector<unsigned char, std::__ndk1::allocator<unsigned char> >, void> > > >::erase(std::__ndk1::__tree_const_iterator<std::__ndk1::__value_type<std::__ndk1::basic_string<char, std::__ndk1::char_traits<char>, std::__ndk1::allocator<char> >, nlohmann::json_abi_v3_11_3::basic_json<std::__ndk1::map, std::__ndk1::vector, std::__ndk1::basic_string<char, std::__ndk1::char_traits<char>, std::__ndk1::allocator<char> >, bool, long, unsigned long, double, std::__ndk1::allocator, nlohmann::json_abi_v3_11_3::adl_serializer, std::__ndk1::vector<unsigned char, std::__ndk1::allocator<unsigned char> >, void> >, std::__ndk1::__tree_node<std::__ndk1::__value_type<std::__ndk1::basic_string<char, std::__ndk1::char_traits<char>, std::__ndk1::allocator<char> >, nlohmann::json_abi_v3_11_3::basic_json<std::__ndk1::map, std::__ndk1::vector, std::__ndk1::basic_string<char, std::__ndk1::char_traits<char>, std::__ndk1::allocator<char> >, bool, long, unsigned long, double, std::__ndk1::allocator, nlohmann::json_abi_v3_11_3::adl_serializer, std::__ndk1::vector<unsigned char, std::__ndk1::allocator<unsigned char> >, void> >, void*>*, long>)
PUBLIC b2a1c 0 std::__ndk1::__tree<std::__ndk1::__value_type<std::__ndk1::basic_string<char, std::__ndk1::char_traits<char>, std::__ndk1::allocator<char> >, nlohmann::json_abi_v3_11_3::basic_json<std::__ndk1::map, std::__ndk1::vector, std::__ndk1::basic_string<char, std::__ndk1::char_traits<char>, std::__ndk1::allocator<char> >, bool, long, unsigned long, double, std::__ndk1::allocator, nlohmann::json_abi_v3_11_3::adl_serializer, std::__ndk1::vector<unsigned char, std::__ndk1::allocator<unsigned char> >, void> >, std::__ndk1::__map_value_compare<std::__ndk1::basic_string<char, std::__ndk1::char_traits<char>, std::__ndk1::allocator<char> >, std::__ndk1::__value_type<std::__ndk1::basic_string<char, std::__ndk1::char_traits<char>, std::__ndk1::allocator<char> >, nlohmann::json_abi_v3_11_3::basic_json<std::__ndk1::map, std::__ndk1::vector, std::__ndk1::basic_string<char, std::__ndk1::char_traits<char>, std::__ndk1::allocator<char> >, bool, long, unsigned long, double, std::__ndk1::allocator, nlohmann::json_abi_v3_11_3::adl_serializer, std::__ndk1::vector<unsigned char, std::__ndk1::allocator<unsigned char> >, void> >, std::__ndk1::less<void>, true>, std::__ndk1::allocator<std::__ndk1::__value_type<std::__ndk1::basic_string<char, std::__ndk1::char_traits<char>, std::__ndk1::allocator<char> >, nlohmann::json_abi_v3_11_3::basic_json<std::__ndk1::map, std::__ndk1::vector, std::__ndk1::basic_string<char, std::__ndk1::char_traits<char>, std::__ndk1::allocator<char> >, bool, long, unsigned long, double, std::__ndk1::allocator, nlohmann::json_abi_v3_11_3::adl_serializer, std::__ndk1::vector<unsigned char, std::__ndk1::allocator<unsigned char> >, void> > > >::__emplace_unique_key_args<std::__ndk1::basic_string<char, std::__ndk1::char_traits<char>, std::__ndk1::allocator<char> >, std::__ndk1::piecewise_construct_t const&, std::__ndk1::tuple<std::__ndk1::basic_string<char, std::__ndk1::char_traits<char>, std::__ndk1::allocator<char> > const&>, std::__ndk1::tuple<> >(std::__ndk1::basic_string<char, std::__ndk1::char_traits<char>, std::__ndk1::allocator<char> > const&, std::__ndk1::piecewise_construct_t const&, std::__ndk1::tuple<std::__ndk1::basic_string<char, std::__ndk1::char_traits<char>, std::__ndk1::allocator<char> > const&>, std::__ndk1::tuple<>)
PUBLIC b2c14 0 nlohmann::json_abi_v3_11_3::detail::concat<std::__ndk1::basic_string<char, std::__ndk1::char_traits<char>, std::__ndk1::allocator<char> >, char const (&) [23], std::__ndk1::basic_string<char, std::__ndk1::char_traits<char>, std::__ndk1::allocator<char> > >(char const (&) [23], std::__ndk1::basic_string<char, std::__ndk1::char_traits<char>, std::__ndk1::allocator<char> >)
PUBLIC b2cc4 0 nlohmann::json_abi_v3_11_3::detail::out_of_range::out_of_range(nlohmann::json_abi_v3_11_3::detail::out_of_range const&)
PUBLIC b2d0c 0 nlohmann::json_abi_v3_11_3::detail::json_sax_dom_callback_parser<nlohmann::json_abi_v3_11_3::basic_json<std::__ndk1::map, std::__ndk1::vector, std::__ndk1::basic_string<char, std::__ndk1::char_traits<char>, std::__ndk1::allocator<char> >, bool, long, unsigned long, double, std::__ndk1::allocator, nlohmann::json_abi_v3_11_3::adl_serializer, std::__ndk1::vector<unsigned char, std::__ndk1::allocator<unsigned char> >, void> >::handle_value<double&>(double&, bool)
PUBLIC b2f58 0 nlohmann::json_abi_v3_11_3::detail::json_sax_dom_callback_parser<nlohmann::json_abi_v3_11_3::basic_json<std::__ndk1::map, std::__ndk1::vector, std::__ndk1::basic_string<char, std::__ndk1::char_traits<char>, std::__ndk1::allocator<char> >, bool, long, unsigned long, double, std::__ndk1::allocator, nlohmann::json_abi_v3_11_3::adl_serializer, std::__ndk1::vector<unsigned char, std::__ndk1::allocator<unsigned char> >, void> >::handle_value<bool&>(bool&, bool)
PUBLIC b31a0 0 nlohmann::json_abi_v3_11_3::detail::json_sax_dom_callback_parser<nlohmann::json_abi_v3_11_3::basic_json<std::__ndk1::map, std::__ndk1::vector, std::__ndk1::basic_string<char, std::__ndk1::char_traits<char>, std::__ndk1::allocator<char> >, bool, long, unsigned long, double, std::__ndk1::allocator, nlohmann::json_abi_v3_11_3::adl_serializer, std::__ndk1::vector<unsigned char, std::__ndk1::allocator<unsigned char> >, void> >::handle_value<std::nullptr_t>(std::nullptr_t&&, bool)
PUBLIC b33e4 0 nlohmann::json_abi_v3_11_3::detail::json_sax_dom_callback_parser<nlohmann::json_abi_v3_11_3::basic_json<std::__ndk1::map, std::__ndk1::vector, std::__ndk1::basic_string<char, std::__ndk1::char_traits<char>, std::__ndk1::allocator<char> >, bool, long, unsigned long, double, std::__ndk1::allocator, nlohmann::json_abi_v3_11_3::adl_serializer, std::__ndk1::vector<unsigned char, std::__ndk1::allocator<unsigned char> >, void> >::handle_value<long&>(long&, bool)
PUBLIC b3628 0 nlohmann::json_abi_v3_11_3::detail::json_sax_dom_callback_parser<nlohmann::json_abi_v3_11_3::basic_json<std::__ndk1::map, std::__ndk1::vector, std::__ndk1::basic_string<char, std::__ndk1::char_traits<char>, std::__ndk1::allocator<char> >, bool, long, unsigned long, double, std::__ndk1::allocator, nlohmann::json_abi_v3_11_3::adl_serializer, std::__ndk1::vector<unsigned char, std::__ndk1::allocator<unsigned char> >, void> >::handle_value<std::__ndk1::basic_string<char, std::__ndk1::char_traits<char>, std::__ndk1::allocator<char> >&>(std::__ndk1::basic_string<char, std::__ndk1::char_traits<char>, std::__ndk1::allocator<char> >&, bool)
PUBLIC b38d8 0 nlohmann::json_abi_v3_11_3::detail::json_sax_dom_callback_parser<nlohmann::json_abi_v3_11_3::basic_json<std::__ndk1::map, std::__ndk1::vector, std::__ndk1::basic_string<char, std::__ndk1::char_traits<char>, std::__ndk1::allocator<char> >, bool, long, unsigned long, double, std::__ndk1::allocator, nlohmann::json_abi_v3_11_3::adl_serializer, std::__ndk1::vector<unsigned char, std::__ndk1::allocator<unsigned char> >, void> >::handle_value<unsigned long&>(unsigned long&, bool)
PUBLIC b3b20 0 nlohmann::json_abi_v3_11_3::detail::parse_error::parse_error(nlohmann::json_abi_v3_11_3::detail::parse_error const&)
PUBLIC b3b74 0 nlohmann::json_abi_v3_11_3::detail::parse_error::~parse_error()
PUBLIC b3bac 0 snprintf(char*, unsigned long pass_object_size1, char const*, ...)
PUBLIC b3c50 0 nlohmann::json_abi_v3_11_3::detail::concat<std::__ndk1::basic_string<char, std::__ndk1::char_traits<char>, std::__ndk1::allocator<char> >, std::__ndk1::basic_string<char, std::__ndk1::char_traits<char>, std::__ndk1::allocator<char> >, char const (&) [12], std::__ndk1::basic_string<char, std::__ndk1::char_traits<char>, std::__ndk1::allocator<char> >, char const (&) [3], std::__ndk1::basic_string<char, std::__ndk1::char_traits<char>, std::__ndk1::allocator<char> >, std::__ndk1::basic_string<char, std::__ndk1::char_traits<char>, std::__ndk1::allocator<char> > const&>(std::__ndk1::basic_string<char, std::__ndk1::char_traits<char>, std::__ndk1::allocator<char> >&&, char const (&) [12], std::__ndk1::basic_string<char, std::__ndk1::char_traits<char>, std::__ndk1::allocator<char> >, char const (&) [3], std::__ndk1::basic_string<char, std::__ndk1::char_traits<char>, std::__ndk1::allocator<char> >, std::__ndk1::basic_string<char, std::__ndk1::char_traits<char>, std::__ndk1::allocator<char> > const&)
PUBLIC b3e0c 0 nlohmann::json_abi_v3_11_3::detail::parse_error::position_string(nlohmann::json_abi_v3_11_3::detail::position_t const&)
PUBLIC b3f38 0 nlohmann::json_abi_v3_11_3::detail::concat<std::__ndk1::basic_string<char, std::__ndk1::char_traits<char>, std::__ndk1::allocator<char> >, char const (&) [10], std::__ndk1::basic_string<char, std::__ndk1::char_traits<char>, std::__ndk1::allocator<char> >, char const (&) [10], std::__ndk1::basic_string<char, std::__ndk1::char_traits<char>, std::__ndk1::allocator<char> > >(char const (&) [10], std::__ndk1::basic_string<char, std::__ndk1::char_traits<char>, std::__ndk1::allocator<char> >, char const (&) [10], std::__ndk1::basic_string<char, std::__ndk1::char_traits<char>, std::__ndk1::allocator<char> >)
PUBLIC b4064 0 nlohmann::json_abi_v3_11_3::detail::concat<std::__ndk1::basic_string<char, std::__ndk1::char_traits<char>, std::__ndk1::allocator<char> >, char const (&) [15], std::__ndk1::basic_string<char, std::__ndk1::char_traits<char>, std::__ndk1::allocator<char> > const&, char>(char const (&) [15], std::__ndk1::basic_string<char, std::__ndk1::char_traits<char>, std::__ndk1::allocator<char> > const&, char)
PUBLIC b4128 0 nlohmann::json_abi_v3_11_3::detail::concat<std::__ndk1::basic_string<char, std::__ndk1::char_traits<char>, std::__ndk1::allocator<char> >, char const*, char const (&) [15], std::__ndk1::basic_string<char, std::__ndk1::char_traits<char>, std::__ndk1::allocator<char> >, char>(char const*, char const (&) [15], std::__ndk1::basic_string<char, std::__ndk1::char_traits<char>, std::__ndk1::allocator<char> >, char)
PUBLIC b422c 0 nlohmann::json_abi_v3_11_3::detail::json_sax_dom_parser<nlohmann::json_abi_v3_11_3::basic_json<std::__ndk1::map, std::__ndk1::vector, std::__ndk1::basic_string<char, std::__ndk1::char_traits<char>, std::__ndk1::allocator<char> >, bool, long, unsigned long, double, std::__ndk1::allocator, nlohmann::json_abi_v3_11_3::adl_serializer, std::__ndk1::vector<unsigned char, std::__ndk1::allocator<unsigned char> >, void> >::start_object(unsigned long)
PUBLIC b4530 0 nlohmann::json_abi_v3_11_3::detail::json_sax_dom_parser<nlohmann::json_abi_v3_11_3::basic_json<std::__ndk1::map, std::__ndk1::vector, std::__ndk1::basic_string<char, std::__ndk1::char_traits<char>, std::__ndk1::allocator<char> >, bool, long, unsigned long, double, std::__ndk1::allocator, nlohmann::json_abi_v3_11_3::adl_serializer, std::__ndk1::vector<unsigned char, std::__ndk1::allocator<unsigned char> >, void> >::start_array(unsigned long)
PUBLIC b4834 0 nlohmann::json_abi_v3_11_3::detail::json_sax_dom_parser<nlohmann::json_abi_v3_11_3::basic_json<std::__ndk1::map, std::__ndk1::vector, std::__ndk1::basic_string<char, std::__ndk1::char_traits<char>, std::__ndk1::allocator<char> >, bool, long, unsigned long, double, std::__ndk1::allocator, nlohmann::json_abi_v3_11_3::adl_serializer, std::__ndk1::vector<unsigned char, std::__ndk1::allocator<unsigned char> >, void> >::parse_error<nlohmann::json_abi_v3_11_3::detail::out_of_range>(unsigned long, std::__ndk1::basic_string<char, std::__ndk1::char_traits<char>, std::__ndk1::allocator<char> > const&, nlohmann::json_abi_v3_11_3::detail::out_of_range const&)
PUBLIC b4888 0 nlohmann::json_abi_v3_11_3::detail::json_sax_dom_parser<nlohmann::json_abi_v3_11_3::basic_json<std::__ndk1::map, std::__ndk1::vector, std::__ndk1::basic_string<char, std::__ndk1::char_traits<char>, std::__ndk1::allocator<char> >, bool, long, unsigned long, double, std::__ndk1::allocator, nlohmann::json_abi_v3_11_3::adl_serializer, std::__ndk1::vector<unsigned char, std::__ndk1::allocator<unsigned char> >, void> >::handle_value<nlohmann::json_abi_v3_11_3::detail::value_t>(nlohmann::json_abi_v3_11_3::detail::value_t&&)
PUBLIC b49ec 0 std::__ndk1::vector<nlohmann::json_abi_v3_11_3::basic_json<std::__ndk1::map, std::__ndk1::vector, std::__ndk1::basic_string<char, std::__ndk1::char_traits<char>, std::__ndk1::allocator<char> >, bool, long, unsigned long, double, std::__ndk1::allocator, nlohmann::json_abi_v3_11_3::adl_serializer, std::__ndk1::vector<unsigned char, std::__ndk1::allocator<unsigned char> >, void>, std::__ndk1::allocator<nlohmann::json_abi_v3_11_3::basic_json<std::__ndk1::map, std::__ndk1::vector, std::__ndk1::basic_string<char, std::__ndk1::char_traits<char>, std::__ndk1::allocator<char> >, bool, long, unsigned long, double, std::__ndk1::allocator, nlohmann::json_abi_v3_11_3::adl_serializer, std::__ndk1::vector<unsigned char, std::__ndk1::allocator<unsigned char> >, void> > >::__emplace_back_slow_path<nlohmann::json_abi_v3_11_3::detail::value_t>(nlohmann::json_abi_v3_11_3::detail::value_t&&)
PUBLIC b4ba0 0 nlohmann::json_abi_v3_11_3::detail::json_sax_dom_parser<nlohmann::json_abi_v3_11_3::basic_json<std::__ndk1::map, std::__ndk1::vector, std::__ndk1::basic_string<char, std::__ndk1::char_traits<char>, std::__ndk1::allocator<char> >, bool, long, unsigned long, double, std::__ndk1::allocator, nlohmann::json_abi_v3_11_3::adl_serializer, std::__ndk1::vector<unsigned char, std::__ndk1::allocator<unsigned char> >, void> >::handle_value<double&>(double&)
PUBLIC b4cd4 0 std::__ndk1::vector<nlohmann::json_abi_v3_11_3::basic_json<std::__ndk1::map, std::__ndk1::vector, std::__ndk1::basic_string<char, std::__ndk1::char_traits<char>, std::__ndk1::allocator<char> >, bool, long, unsigned long, double, std::__ndk1::allocator, nlohmann::json_abi_v3_11_3::adl_serializer, std::__ndk1::vector<unsigned char, std::__ndk1::allocator<unsigned char> >, void>, std::__ndk1::allocator<nlohmann::json_abi_v3_11_3::basic_json<std::__ndk1::map, std::__ndk1::vector, std::__ndk1::basic_string<char, std::__ndk1::char_traits<char>, std::__ndk1::allocator<char> >, bool, long, unsigned long, double, std::__ndk1::allocator, nlohmann::json_abi_v3_11_3::adl_serializer, std::__ndk1::vector<unsigned char, std::__ndk1::allocator<unsigned char> >, void> > >::__emplace_back_slow_path<double&>(double&)
PUBLIC b4df0 0 nlohmann::json_abi_v3_11_3::detail::json_sax_dom_parser<nlohmann::json_abi_v3_11_3::basic_json<std::__ndk1::map, std::__ndk1::vector, std::__ndk1::basic_string<char, std::__ndk1::char_traits<char>, std::__ndk1::allocator<char> >, bool, long, unsigned long, double, std::__ndk1::allocator, nlohmann::json_abi_v3_11_3::adl_serializer, std::__ndk1::vector<unsigned char, std::__ndk1::allocator<unsigned char> >, void> >::handle_value<bool&>(bool&)
PUBLIC b4f24 0 std::__ndk1::vector<nlohmann::json_abi_v3_11_3::basic_json<std::__ndk1::map, std::__ndk1::vector, std::__ndk1::basic_string<char, std::__ndk1::char_traits<char>, std::__ndk1::allocator<char> >, bool, long, unsigned long, double, std::__ndk1::allocator, nlohmann::json_abi_v3_11_3::adl_serializer, std::__ndk1::vector<unsigned char, std::__ndk1::allocator<unsigned char> >, void>, std::__ndk1::allocator<nlohmann::json_abi_v3_11_3::basic_json<std::__ndk1::map, std::__ndk1::vector, std::__ndk1::basic_string<char, std::__ndk1::char_traits<char>, std::__ndk1::allocator<char> >, bool, long, unsigned long, double, std::__ndk1::allocator, nlohmann::json_abi_v3_11_3::adl_serializer, std::__ndk1::vector<unsigned char, std::__ndk1::allocator<unsigned char> >, void> > >::__emplace_back_slow_path<bool&>(bool&)
PUBLIC b503c 0 nlohmann::json_abi_v3_11_3::detail::json_sax_dom_parser<nlohmann::json_abi_v3_11_3::basic_json<std::__ndk1::map, std::__ndk1::vector, std::__ndk1::basic_string<char, std::__ndk1::char_traits<char>, std::__ndk1::allocator<char> >, bool, long, unsigned long, double, std::__ndk1::allocator, nlohmann::json_abi_v3_11_3::adl_serializer, std::__ndk1::vector<unsigned char, std::__ndk1::allocator<unsigned char> >, void> >::handle_value<std::nullptr_t>(std::nullptr_t&&)
PUBLIC b514c 0 std::__ndk1::vector<nlohmann::json_abi_v3_11_3::basic_json<std::__ndk1::map, std::__ndk1::vector, std::__ndk1::basic_string<char, std::__ndk1::char_traits<char>, std::__ndk1::allocator<char> >, bool, long, unsigned long, double, std::__ndk1::allocator, nlohmann::json_abi_v3_11_3::adl_serializer, std::__ndk1::vector<unsigned char, std::__ndk1::allocator<unsigned char> >, void>, std::__ndk1::allocator<nlohmann::json_abi_v3_11_3::basic_json<std::__ndk1::map, std::__ndk1::vector, std::__ndk1::basic_string<char, std::__ndk1::char_traits<char>, std::__ndk1::allocator<char> >, bool, long, unsigned long, double, std::__ndk1::allocator, nlohmann::json_abi_v3_11_3::adl_serializer, std::__ndk1::vector<unsigned char, std::__ndk1::allocator<unsigned char> >, void> > >::__emplace_back_slow_path<std::nullptr_t>(std::nullptr_t&&)
PUBLIC b525c 0 nlohmann::json_abi_v3_11_3::detail::json_sax_dom_parser<nlohmann::json_abi_v3_11_3::basic_json<std::__ndk1::map, std::__ndk1::vector, std::__ndk1::basic_string<char, std::__ndk1::char_traits<char>, std::__ndk1::allocator<char> >, bool, long, unsigned long, double, std::__ndk1::allocator, nlohmann::json_abi_v3_11_3::adl_serializer, std::__ndk1::vector<unsigned char, std::__ndk1::allocator<unsigned char> >, void> >::handle_value<long&>(long&)
PUBLIC b5390 0 std::__ndk1::vector<nlohmann::json_abi_v3_11_3::basic_json<std::__ndk1::map, std::__ndk1::vector, std::__ndk1::basic_string<char, std::__ndk1::char_traits<char>, std::__ndk1::allocator<char> >, bool, long, unsigned long, double, std::__ndk1::allocator, nlohmann::json_abi_v3_11_3::adl_serializer, std::__ndk1::vector<unsigned char, std::__ndk1::allocator<unsigned char> >, void>, std::__ndk1::allocator<nlohmann::json_abi_v3_11_3::basic_json<std::__ndk1::map, std::__ndk1::vector, std::__ndk1::basic_string<char, std::__ndk1::char_traits<char>, std::__ndk1::allocator<char> >, bool, long, unsigned long, double, std::__ndk1::allocator, nlohmann::json_abi_v3_11_3::adl_serializer, std::__ndk1::vector<unsigned char, std::__ndk1::allocator<unsigned char> >, void> > >::__emplace_back_slow_path<long&>(long&)
PUBLIC b54a8 0 nlohmann::json_abi_v3_11_3::detail::json_sax_dom_parser<nlohmann::json_abi_v3_11_3::basic_json<std::__ndk1::map, std::__ndk1::vector, std::__ndk1::basic_string<char, std::__ndk1::char_traits<char>, std::__ndk1::allocator<char> >, bool, long, unsigned long, double, std::__ndk1::allocator, nlohmann::json_abi_v3_11_3::adl_serializer, std::__ndk1::vector<unsigned char, std::__ndk1::allocator<unsigned char> >, void> >::handle_value<std::__ndk1::basic_string<char, std::__ndk1::char_traits<char>, std::__ndk1::allocator<char> >&>(std::__ndk1::basic_string<char, std::__ndk1::char_traits<char>, std::__ndk1::allocator<char> >&)
PUBLIC b571c 0 std::__ndk1::vector<nlohmann::json_abi_v3_11_3::basic_json<std::__ndk1::map, std::__ndk1::vector, std::__ndk1::basic_string<char, std::__ndk1::char_traits<char>, std::__ndk1::allocator<char> >, bool, long, unsigned long, double, std::__ndk1::allocator, nlohmann::json_abi_v3_11_3::adl_serializer, std::__ndk1::vector<unsigned char, std::__ndk1::allocator<unsigned char> >, void>, std::__ndk1::allocator<nlohmann::json_abi_v3_11_3::basic_json<std::__ndk1::map, std::__ndk1::vector, std::__ndk1::basic_string<char, std::__ndk1::char_traits<char>, std::__ndk1::allocator<char> >, bool, long, unsigned long, double, std::__ndk1::allocator, nlohmann::json_abi_v3_11_3::adl_serializer, std::__ndk1::vector<unsigned char, std::__ndk1::allocator<unsigned char> >, void> > >::__emplace_back_slow_path<std::__ndk1::basic_string<char, std::__ndk1::char_traits<char>, std::__ndk1::allocator<char> >&>(std::__ndk1::basic_string<char, std::__ndk1::char_traits<char>, std::__ndk1::allocator<char> >&)
PUBLIC b592c 0 nlohmann::json_abi_v3_11_3::detail::json_sax_dom_parser<nlohmann::json_abi_v3_11_3::basic_json<std::__ndk1::map, std::__ndk1::vector, std::__ndk1::basic_string<char, std::__ndk1::char_traits<char>, std::__ndk1::allocator<char> >, bool, long, unsigned long, double, std::__ndk1::allocator, nlohmann::json_abi_v3_11_3::adl_serializer, std::__ndk1::vector<unsigned char, std::__ndk1::allocator<unsigned char> >, void> >::handle_value<unsigned long&>(unsigned long&)
PUBLIC b5a60 0 std::__ndk1::vector<nlohmann::json_abi_v3_11_3::basic_json<std::__ndk1::map, std::__ndk1::vector, std::__ndk1::basic_string<char, std::__ndk1::char_traits<char>, std::__ndk1::allocator<char> >, bool, long, unsigned long, double, std::__ndk1::allocator, nlohmann::json_abi_v3_11_3::adl_serializer, std::__ndk1::vector<unsigned char, std::__ndk1::allocator<unsigned char> >, void>, std::__ndk1::allocator<nlohmann::json_abi_v3_11_3::basic_json<std::__ndk1::map, std::__ndk1::vector, std::__ndk1::basic_string<char, std::__ndk1::char_traits<char>, std::__ndk1::allocator<char> >, bool, long, unsigned long, double, std::__ndk1::allocator, nlohmann::json_abi_v3_11_3::adl_serializer, std::__ndk1::vector<unsigned char, std::__ndk1::allocator<unsigned char> >, void> > >::__emplace_back_slow_path<unsigned long&>(unsigned long&)
PUBLIC b5b78 0 std::__ndk1::__tree<std::__ndk1::__value_type<std::__ndk1::basic_string<char, std::__ndk1::char_traits<char>, std::__ndk1::allocator<char> >, nlohmann::json_abi_v3_11_3::basic_json<std::__ndk1::map, std::__ndk1::vector, std::__ndk1::basic_string<char, std::__ndk1::char_traits<char>, std::__ndk1::allocator<char> >, bool, long, unsigned long, double, std::__ndk1::allocator, nlohmann::json_abi_v3_11_3::adl_serializer, std::__ndk1::vector<unsigned char, std::__ndk1::allocator<unsigned char> >, void> >, std::__ndk1::__map_value_compare<std::__ndk1::basic_string<char, std::__ndk1::char_traits<char>, std::__ndk1::allocator<char> >, std::__ndk1::__value_type<std::__ndk1::basic_string<char, std::__ndk1::char_traits<char>, std::__ndk1::allocator<char> >, nlohmann::json_abi_v3_11_3::basic_json<std::__ndk1::map, std::__ndk1::vector, std::__ndk1::basic_string<char, std::__ndk1::char_traits<char>, std::__ndk1::allocator<char> >, bool, long, unsigned long, double, std::__ndk1::allocator, nlohmann::json_abi_v3_11_3::adl_serializer, std::__ndk1::vector<unsigned char, std::__ndk1::allocator<unsigned char> >, void> >, std::__ndk1::less<void>, true>, std::__ndk1::allocator<std::__ndk1::__value_type<std::__ndk1::basic_string<char, std::__ndk1::char_traits<char>, std::__ndk1::allocator<char> >, nlohmann::json_abi_v3_11_3::basic_json<std::__ndk1::map, std::__ndk1::vector, std::__ndk1::basic_string<char, std::__ndk1::char_traits<char>, std::__ndk1::allocator<char> >, bool, long, unsigned long, double, std::__ndk1::allocator, nlohmann::json_abi_v3_11_3::adl_serializer, std::__ndk1::vector<unsigned char, std::__ndk1::allocator<unsigned char> >, void> > > >::find<char [5]>(char const (&) [5])
PUBLIC b5cd8 0 std::__ndk1::__tree<std::__ndk1::__value_type<std::__ndk1::basic_string<char, std::__ndk1::char_traits<char>, std::__ndk1::allocator<char> >, nlohmann::json_abi_v3_11_3::basic_json<std::__ndk1::map, std::__ndk1::vector, std::__ndk1::basic_string<char, std::__ndk1::char_traits<char>, std::__ndk1::allocator<char> >, bool, long, unsigned long, double, std::__ndk1::allocator, nlohmann::json_abi_v3_11_3::adl_serializer, std::__ndk1::vector<unsigned char, std::__ndk1::allocator<unsigned char> >, void> >, std::__ndk1::__map_value_compare<std::__ndk1::basic_string<char, std::__ndk1::char_traits<char>, std::__ndk1::allocator<char> >, std::__ndk1::__value_type<std::__ndk1::basic_string<char, std::__ndk1::char_traits<char>, std::__ndk1::allocator<char> >, nlohmann::json_abi_v3_11_3::basic_json<std::__ndk1::map, std::__ndk1::vector, std::__ndk1::basic_string<char, std::__ndk1::char_traits<char>, std::__ndk1::allocator<char> >, bool, long, unsigned long, double, std::__ndk1::allocator, nlohmann::json_abi_v3_11_3::adl_serializer, std::__ndk1::vector<unsigned char, std::__ndk1::allocator<unsigned char> >, void> >, std::__ndk1::less<void>, true>, std::__ndk1::allocator<std::__ndk1::__value_type<std::__ndk1::basic_string<char, std::__ndk1::char_traits<char>, std::__ndk1::allocator<char> >, nlohmann::json_abi_v3_11_3::basic_json<std::__ndk1::map, std::__ndk1::vector, std::__ndk1::basic_string<char, std::__ndk1::char_traits<char>, std::__ndk1::allocator<char> >, bool, long, unsigned long, double, std::__ndk1::allocator, nlohmann::json_abi_v3_11_3::adl_serializer, std::__ndk1::vector<unsigned char, std::__ndk1::allocator<unsigned char> >, void> > > >::find<char [6]>(char const (&) [6])
PUBLIC b5e38 0 nlohmann::json_abi_v3_11_3::detail::concat<std::__ndk1::basic_string<char, std::__ndk1::char_traits<char>, std::__ndk1::allocator<char> >, char const (&) [22], char const*>(char const (&) [22], char const*)
PUBLIC b5ee0 0 _ZN8nlohmann16json_abi_v3_11_36detail12out_of_range6createIPKNS0_10basic_jsonINSt6__ndk13mapENS5_6vectorENS5_12basic_stringIcNS5_11char_traitsIcEENS5_9allocatorIcEEEEblmdSB_NS0_14adl_serializerENS7_IhNSB_IhEEEEvEETnNS5_9enable_ifIXsr21is_basic_json_contextIT_EE5valueEiE4typeELi0EEES2_iRKSD_SL_
PUBLIC b60cc 0 nlohmann::json_abi_v3_11_3::detail::concat<std::__ndk1::basic_string<char, std::__ndk1::char_traits<char>, std::__ndk1::allocator<char> >, char const (&) [6], std::__ndk1::basic_string<char, std::__ndk1::char_traits<char>, std::__ndk1::allocator<char> >, char const (&) [12]>(char const (&) [6], std::__ndk1::basic_string<char, std::__ndk1::char_traits<char>, std::__ndk1::allocator<char> >, char const (&) [12])
PUBLIC b61bc 0 std::__ndk1::pair<std::__ndk1::basic_string<char, std::__ndk1::char_traits<char>, std::__ndk1::allocator<char> >, Theme::Theme>::pair[abi:ne180000](std::__ndk1::pair<std::__ndk1::basic_string<char, std::__ndk1::char_traits<char>, std::__ndk1::allocator<char> >, Theme::Theme> const&)
PUBLIC b62f8 0 std::__ndk1::__split_buffer<std::__ndk1::pair<std::__ndk1::basic_string<char, std::__ndk1::char_traits<char>, std::__ndk1::allocator<char> >, Theme::Theme>, std::__ndk1::allocator<std::__ndk1::pair<std::__ndk1::basic_string<char, std::__ndk1::char_traits<char>, std::__ndk1::allocator<char> >, Theme::Theme> >&>::~__split_buffer()
PUBLIC b6398 0 std::__ndk1::vector<std::__ndk1::pair<std::__ndk1::basic_string<char, std::__ndk1::char_traits<char>, std::__ndk1::allocator<char> >, Theme::Theme>, std::__ndk1::allocator<std::__ndk1::pair<std::__ndk1::basic_string<char, std::__ndk1::char_traits<char>, std::__ndk1::allocator<char> >, Theme::Theme> > >::__throw_length_error[abi:ne180000]() const
PUBLIC b63ac 0 std::__ndk1::__function::__func<Theme::Theme::createTheme(nlohmann::json_abi_v3_11_3::basic_json<std::__ndk1::map, std::__ndk1::vector, std::__ndk1::basic_string<char, std::__ndk1::char_traits<char>, std::__ndk1::allocator<char> >, bool, long, unsigned long, double, std::__ndk1::allocator, nlohmann::json_abi_v3_11_3::adl_serializer, std::__ndk1::vector<unsigned char, std::__ndk1::allocator<unsigned char> >, void> const&)::$_0, std::__ndk1::allocator<Theme::Theme::createTheme(nlohmann::json_abi_v3_11_3::basic_json<std::__ndk1::map, std::__ndk1::vector, std::__ndk1::basic_string<char, std::__ndk1::char_traits<char>, std::__ndk1::allocator<char> >, bool, long, unsigned long, double, std::__ndk1::allocator, nlohmann::json_abi_v3_11_3::adl_serializer, std::__ndk1::vector<unsigned char, std::__ndk1::allocator<unsigned char> >, void> const&)::$_0>, float (nlohmann::json_abi_v3_11_3::basic_json<std::__ndk1::map, std::__ndk1::vector, std::__ndk1::basic_string<char, std::__ndk1::char_traits<char>, std::__ndk1::allocator<char> >, bool, long, unsigned long, double, std::__ndk1::allocator, nlohmann::json_abi_v3_11_3::adl_serializer, std::__ndk1::vector<unsigned char, std::__ndk1::allocator<unsigned char> >, void> const&)>::~__func()
PUBLIC b63b0 0 std::__ndk1::__function::__func<Theme::Theme::createTheme(nlohmann::json_abi_v3_11_3::basic_json<std::__ndk1::map, std::__ndk1::vector, std::__ndk1::basic_string<char, std::__ndk1::char_traits<char>, std::__ndk1::allocator<char> >, bool, long, unsigned long, double, std::__ndk1::allocator, nlohmann::json_abi_v3_11_3::adl_serializer, std::__ndk1::vector<unsigned char, std::__ndk1::allocator<unsigned char> >, void> const&)::$_0, std::__ndk1::allocator<Theme::Theme::createTheme(nlohmann::json_abi_v3_11_3::basic_json<std::__ndk1::map, std::__ndk1::vector, std::__ndk1::basic_string<char, std::__ndk1::char_traits<char>, std::__ndk1::allocator<char> >, bool, long, unsigned long, double, std::__ndk1::allocator, nlohmann::json_abi_v3_11_3::adl_serializer, std::__ndk1::vector<unsigned char, std::__ndk1::allocator<unsigned char> >, void> const&)::$_0>, float (nlohmann::json_abi_v3_11_3::basic_json<std::__ndk1::map, std::__ndk1::vector, std::__ndk1::basic_string<char, std::__ndk1::char_traits<char>, std::__ndk1::allocator<char> >, bool, long, unsigned long, double, std::__ndk1::allocator, nlohmann::json_abi_v3_11_3::adl_serializer, std::__ndk1::vector<unsigned char, std::__ndk1::allocator<unsigned char> >, void> const&)>::__clone() const
PUBLIC b63d4 0 std::__ndk1::__function::__func<Theme::Theme::createTheme(nlohmann::json_abi_v3_11_3::basic_json<std::__ndk1::map, std::__ndk1::vector, std::__ndk1::basic_string<char, std::__ndk1::char_traits<char>, std::__ndk1::allocator<char> >, bool, long, unsigned long, double, std::__ndk1::allocator, nlohmann::json_abi_v3_11_3::adl_serializer, std::__ndk1::vector<unsigned char, std::__ndk1::allocator<unsigned char> >, void> const&)::$_0, std::__ndk1::allocator<Theme::Theme::createTheme(nlohmann::json_abi_v3_11_3::basic_json<std::__ndk1::map, std::__ndk1::vector, std::__ndk1::basic_string<char, std::__ndk1::char_traits<char>, std::__ndk1::allocator<char> >, bool, long, unsigned long, double, std::__ndk1::allocator, nlohmann::json_abi_v3_11_3::adl_serializer, std::__ndk1::vector<unsigned char, std::__ndk1::allocator<unsigned char> >, void> const&)::$_0>, float (nlohmann::json_abi_v3_11_3::basic_json<std::__ndk1::map, std::__ndk1::vector, std::__ndk1::basic_string<char, std::__ndk1::char_traits<char>, std::__ndk1::allocator<char> >, bool, long, unsigned long, double, std::__ndk1::allocator, nlohmann::json_abi_v3_11_3::adl_serializer, std::__ndk1::vector<unsigned char, std::__ndk1::allocator<unsigned char> >, void> const&)>::__clone(std::__ndk1::__function::__base<float (nlohmann::json_abi_v3_11_3::basic_json<std::__ndk1::map, std::__ndk1::vector, std::__ndk1::basic_string<char, std::__ndk1::char_traits<char>, std::__ndk1::allocator<char> >, bool, long, unsigned long, double, std::__ndk1::allocator, nlohmann::json_abi_v3_11_3::adl_serializer, std::__ndk1::vector<unsigned char, std::__ndk1::allocator<unsigned char> >, void> const&)>*) const
PUBLIC b63e4 0 std::__ndk1::__function::__func<Theme::Theme::createTheme(nlohmann::json_abi_v3_11_3::basic_json<std::__ndk1::map, std::__ndk1::vector, std::__ndk1::basic_string<char, std::__ndk1::char_traits<char>, std::__ndk1::allocator<char> >, bool, long, unsigned long, double, std::__ndk1::allocator, nlohmann::json_abi_v3_11_3::adl_serializer, std::__ndk1::vector<unsigned char, std::__ndk1::allocator<unsigned char> >, void> const&)::$_0, std::__ndk1::allocator<Theme::Theme::createTheme(nlohmann::json_abi_v3_11_3::basic_json<std::__ndk1::map, std::__ndk1::vector, std::__ndk1::basic_string<char, std::__ndk1::char_traits<char>, std::__ndk1::allocator<char> >, bool, long, unsigned long, double, std::__ndk1::allocator, nlohmann::json_abi_v3_11_3::adl_serializer, std::__ndk1::vector<unsigned char, std::__ndk1::allocator<unsigned char> >, void> const&)::$_0>, float (nlohmann::json_abi_v3_11_3::basic_json<std::__ndk1::map, std::__ndk1::vector, std::__ndk1::basic_string<char, std::__ndk1::char_traits<char>, std::__ndk1::allocator<char> >, bool, long, unsigned long, double, std::__ndk1::allocator, nlohmann::json_abi_v3_11_3::adl_serializer, std::__ndk1::vector<unsigned char, std::__ndk1::allocator<unsigned char> >, void> const&)>::destroy()
PUBLIC b63e8 0 std::__ndk1::__function::__func<Theme::Theme::createTheme(nlohmann::json_abi_v3_11_3::basic_json<std::__ndk1::map, std::__ndk1::vector, std::__ndk1::basic_string<char, std::__ndk1::char_traits<char>, std::__ndk1::allocator<char> >, bool, long, unsigned long, double, std::__ndk1::allocator, nlohmann::json_abi_v3_11_3::adl_serializer, std::__ndk1::vector<unsigned char, std::__ndk1::allocator<unsigned char> >, void> const&)::$_0, std::__ndk1::allocator<Theme::Theme::createTheme(nlohmann::json_abi_v3_11_3::basic_json<std::__ndk1::map, std::__ndk1::vector, std::__ndk1::basic_string<char, std::__ndk1::char_traits<char>, std::__ndk1::allocator<char> >, bool, long, unsigned long, double, std::__ndk1::allocator, nlohmann::json_abi_v3_11_3::adl_serializer, std::__ndk1::vector<unsigned char, std::__ndk1::allocator<unsigned char> >, void> const&)::$_0>, float (nlohmann::json_abi_v3_11_3::basic_json<std::__ndk1::map, std::__ndk1::vector, std::__ndk1::basic_string<char, std::__ndk1::char_traits<char>, std::__ndk1::allocator<char> >, bool, long, unsigned long, double, std::__ndk1::allocator, nlohmann::json_abi_v3_11_3::adl_serializer, std::__ndk1::vector<unsigned char, std::__ndk1::allocator<unsigned char> >, void> const&)>::destroy_deallocate()
PUBLIC b63ec 0 std::__ndk1::__function::__func<Theme::Theme::createTheme(nlohmann::json_abi_v3_11_3::basic_json<std::__ndk1::map, std::__ndk1::vector, std::__ndk1::basic_string<char, std::__ndk1::char_traits<char>, std::__ndk1::allocator<char> >, bool, long, unsigned long, double, std::__ndk1::allocator, nlohmann::json_abi_v3_11_3::adl_serializer, std::__ndk1::vector<unsigned char, std::__ndk1::allocator<unsigned char> >, void> const&)::$_0, std::__ndk1::allocator<Theme::Theme::createTheme(nlohmann::json_abi_v3_11_3::basic_json<std::__ndk1::map, std::__ndk1::vector, std::__ndk1::basic_string<char, std::__ndk1::char_traits<char>, std::__ndk1::allocator<char> >, bool, long, unsigned long, double, std::__ndk1::allocator, nlohmann::json_abi_v3_11_3::adl_serializer, std::__ndk1::vector<unsigned char, std::__ndk1::allocator<unsigned char> >, void> const&)::$_0>, float (nlohmann::json_abi_v3_11_3::basic_json<std::__ndk1::map, std::__ndk1::vector, std::__ndk1::basic_string<char, std::__ndk1::char_traits<char>, std::__ndk1::allocator<char> >, bool, long, unsigned long, double, std::__ndk1::allocator, nlohmann::json_abi_v3_11_3::adl_serializer, std::__ndk1::vector<unsigned char, std::__ndk1::allocator<unsigned char> >, void> const&)>::operator()(nlohmann::json_abi_v3_11_3::basic_json<std::__ndk1::map, std::__ndk1::vector, std::__ndk1::basic_string<char, std::__ndk1::char_traits<char>, std::__ndk1::allocator<char> >, bool, long, unsigned long, double, std::__ndk1::allocator, nlohmann::json_abi_v3_11_3::adl_serializer, std::__ndk1::vector<unsigned char, std::__ndk1::allocator<unsigned char> >, void> const&)
PUBLIC b6440 0 std::__ndk1::__function::__func<Theme::Theme::createTheme(nlohmann::json_abi_v3_11_3::basic_json<std::__ndk1::map, std::__ndk1::vector, std::__ndk1::basic_string<char, std::__ndk1::char_traits<char>, std::__ndk1::allocator<char> >, bool, long, unsigned long, double, std::__ndk1::allocator, nlohmann::json_abi_v3_11_3::adl_serializer, std::__ndk1::vector<unsigned char, std::__ndk1::allocator<unsigned char> >, void> const&)::$_0, std::__ndk1::allocator<Theme::Theme::createTheme(nlohmann::json_abi_v3_11_3::basic_json<std::__ndk1::map, std::__ndk1::vector, std::__ndk1::basic_string<char, std::__ndk1::char_traits<char>, std::__ndk1::allocator<char> >, bool, long, unsigned long, double, std::__ndk1::allocator, nlohmann::json_abi_v3_11_3::adl_serializer, std::__ndk1::vector<unsigned char, std::__ndk1::allocator<unsigned char> >, void> const&)::$_0>, float (nlohmann::json_abi_v3_11_3::basic_json<std::__ndk1::map, std::__ndk1::vector, std::__ndk1::basic_string<char, std::__ndk1::char_traits<char>, std::__ndk1::allocator<char> >, bool, long, unsigned long, double, std::__ndk1::allocator, nlohmann::json_abi_v3_11_3::adl_serializer, std::__ndk1::vector<unsigned char, std::__ndk1::allocator<unsigned char> >, void> const&)>::target(std::type_info const&) const
PUBLIC b645c 0 std::__ndk1::__function::__func<Theme::Theme::createTheme(nlohmann::json_abi_v3_11_3::basic_json<std::__ndk1::map, std::__ndk1::vector, std::__ndk1::basic_string<char, std::__ndk1::char_traits<char>, std::__ndk1::allocator<char> >, bool, long, unsigned long, double, std::__ndk1::allocator, nlohmann::json_abi_v3_11_3::adl_serializer, std::__ndk1::vector<unsigned char, std::__ndk1::allocator<unsigned char> >, void> const&)::$_0, std::__ndk1::allocator<Theme::Theme::createTheme(nlohmann::json_abi_v3_11_3::basic_json<std::__ndk1::map, std::__ndk1::vector, std::__ndk1::basic_string<char, std::__ndk1::char_traits<char>, std::__ndk1::allocator<char> >, bool, long, unsigned long, double, std::__ndk1::allocator, nlohmann::json_abi_v3_11_3::adl_serializer, std::__ndk1::vector<unsigned char, std::__ndk1::allocator<unsigned char> >, void> const&)::$_0>, float (nlohmann::json_abi_v3_11_3::basic_json<std::__ndk1::map, std::__ndk1::vector, std::__ndk1::basic_string<char, std::__ndk1::char_traits<char>, std::__ndk1::allocator<char> >, bool, long, unsigned long, double, std::__ndk1::allocator, nlohmann::json_abi_v3_11_3::adl_serializer, std::__ndk1::vector<unsigned char, std::__ndk1::allocator<unsigned char> >, void> const&)>::target_type() const
PUBLIC b6468 0 std::__ndk1::__function::__func<Theme::Theme::createTheme(nlohmann::json_abi_v3_11_3::basic_json<std::__ndk1::map, std::__ndk1::vector, std::__ndk1::basic_string<char, std::__ndk1::char_traits<char>, std::__ndk1::allocator<char> >, bool, long, unsigned long, double, std::__ndk1::allocator, nlohmann::json_abi_v3_11_3::adl_serializer, std::__ndk1::vector<unsigned char, std::__ndk1::allocator<unsigned char> >, void> const&)::$_1, std::__ndk1::allocator<Theme::Theme::createTheme(nlohmann::json_abi_v3_11_3::basic_json<std::__ndk1::map, std::__ndk1::vector, std::__ndk1::basic_string<char, std::__ndk1::char_traits<char>, std::__ndk1::allocator<char> >, bool, long, unsigned long, double, std::__ndk1::allocator, nlohmann::json_abi_v3_11_3::adl_serializer, std::__ndk1::vector<unsigned char, std::__ndk1::allocator<unsigned char> >, void> const&)::$_1>, float (nlohmann::json_abi_v3_11_3::basic_json<std::__ndk1::map, std::__ndk1::vector, std::__ndk1::basic_string<char, std::__ndk1::char_traits<char>, std::__ndk1::allocator<char> >, bool, long, unsigned long, double, std::__ndk1::allocator, nlohmann::json_abi_v3_11_3::adl_serializer, std::__ndk1::vector<unsigned char, std::__ndk1::allocator<unsigned char> >, void> const&)>::~__func()
PUBLIC b646c 0 std::__ndk1::__function::__func<Theme::Theme::createTheme(nlohmann::json_abi_v3_11_3::basic_json<std::__ndk1::map, std::__ndk1::vector, std::__ndk1::basic_string<char, std::__ndk1::char_traits<char>, std::__ndk1::allocator<char> >, bool, long, unsigned long, double, std::__ndk1::allocator, nlohmann::json_abi_v3_11_3::adl_serializer, std::__ndk1::vector<unsigned char, std::__ndk1::allocator<unsigned char> >, void> const&)::$_1, std::__ndk1::allocator<Theme::Theme::createTheme(nlohmann::json_abi_v3_11_3::basic_json<std::__ndk1::map, std::__ndk1::vector, std::__ndk1::basic_string<char, std::__ndk1::char_traits<char>, std::__ndk1::allocator<char> >, bool, long, unsigned long, double, std::__ndk1::allocator, nlohmann::json_abi_v3_11_3::adl_serializer, std::__ndk1::vector<unsigned char, std::__ndk1::allocator<unsigned char> >, void> const&)::$_1>, float (nlohmann::json_abi_v3_11_3::basic_json<std::__ndk1::map, std::__ndk1::vector, std::__ndk1::basic_string<char, std::__ndk1::char_traits<char>, std::__ndk1::allocator<char> >, bool, long, unsigned long, double, std::__ndk1::allocator, nlohmann::json_abi_v3_11_3::adl_serializer, std::__ndk1::vector<unsigned char, std::__ndk1::allocator<unsigned char> >, void> const&)>::__clone() const
PUBLIC b6490 0 std::__ndk1::__function::__func<Theme::Theme::createTheme(nlohmann::json_abi_v3_11_3::basic_json<std::__ndk1::map, std::__ndk1::vector, std::__ndk1::basic_string<char, std::__ndk1::char_traits<char>, std::__ndk1::allocator<char> >, bool, long, unsigned long, double, std::__ndk1::allocator, nlohmann::json_abi_v3_11_3::adl_serializer, std::__ndk1::vector<unsigned char, std::__ndk1::allocator<unsigned char> >, void> const&)::$_1, std::__ndk1::allocator<Theme::Theme::createTheme(nlohmann::json_abi_v3_11_3::basic_json<std::__ndk1::map, std::__ndk1::vector, std::__ndk1::basic_string<char, std::__ndk1::char_traits<char>, std::__ndk1::allocator<char> >, bool, long, unsigned long, double, std::__ndk1::allocator, nlohmann::json_abi_v3_11_3::adl_serializer, std::__ndk1::vector<unsigned char, std::__ndk1::allocator<unsigned char> >, void> const&)::$_1>, float (nlohmann::json_abi_v3_11_3::basic_json<std::__ndk1::map, std::__ndk1::vector, std::__ndk1::basic_string<char, std::__ndk1::char_traits<char>, std::__ndk1::allocator<char> >, bool, long, unsigned long, double, std::__ndk1::allocator, nlohmann::json_abi_v3_11_3::adl_serializer, std::__ndk1::vector<unsigned char, std::__ndk1::allocator<unsigned char> >, void> const&)>::__clone(std::__ndk1::__function::__base<float (nlohmann::json_abi_v3_11_3::basic_json<std::__ndk1::map, std::__ndk1::vector, std::__ndk1::basic_string<char, std::__ndk1::char_traits<char>, std::__ndk1::allocator<char> >, bool, long, unsigned long, double, std::__ndk1::allocator, nlohmann::json_abi_v3_11_3::adl_serializer, std::__ndk1::vector<unsigned char, std::__ndk1::allocator<unsigned char> >, void> const&)>*) const
PUBLIC b64a0 0 std::__ndk1::__function::__func<Theme::Theme::createTheme(nlohmann::json_abi_v3_11_3::basic_json<std::__ndk1::map, std::__ndk1::vector, std::__ndk1::basic_string<char, std::__ndk1::char_traits<char>, std::__ndk1::allocator<char> >, bool, long, unsigned long, double, std::__ndk1::allocator, nlohmann::json_abi_v3_11_3::adl_serializer, std::__ndk1::vector<unsigned char, std::__ndk1::allocator<unsigned char> >, void> const&)::$_1, std::__ndk1::allocator<Theme::Theme::createTheme(nlohmann::json_abi_v3_11_3::basic_json<std::__ndk1::map, std::__ndk1::vector, std::__ndk1::basic_string<char, std::__ndk1::char_traits<char>, std::__ndk1::allocator<char> >, bool, long, unsigned long, double, std::__ndk1::allocator, nlohmann::json_abi_v3_11_3::adl_serializer, std::__ndk1::vector<unsigned char, std::__ndk1::allocator<unsigned char> >, void> const&)::$_1>, float (nlohmann::json_abi_v3_11_3::basic_json<std::__ndk1::map, std::__ndk1::vector, std::__ndk1::basic_string<char, std::__ndk1::char_traits<char>, std::__ndk1::allocator<char> >, bool, long, unsigned long, double, std::__ndk1::allocator, nlohmann::json_abi_v3_11_3::adl_serializer, std::__ndk1::vector<unsigned char, std::__ndk1::allocator<unsigned char> >, void> const&)>::destroy()
PUBLIC b64a4 0 std::__ndk1::__function::__func<Theme::Theme::createTheme(nlohmann::json_abi_v3_11_3::basic_json<std::__ndk1::map, std::__ndk1::vector, std::__ndk1::basic_string<char, std::__ndk1::char_traits<char>, std::__ndk1::allocator<char> >, bool, long, unsigned long, double, std::__ndk1::allocator, nlohmann::json_abi_v3_11_3::adl_serializer, std::__ndk1::vector<unsigned char, std::__ndk1::allocator<unsigned char> >, void> const&)::$_1, std::__ndk1::allocator<Theme::Theme::createTheme(nlohmann::json_abi_v3_11_3::basic_json<std::__ndk1::map, std::__ndk1::vector, std::__ndk1::basic_string<char, std::__ndk1::char_traits<char>, std::__ndk1::allocator<char> >, bool, long, unsigned long, double, std::__ndk1::allocator, nlohmann::json_abi_v3_11_3::adl_serializer, std::__ndk1::vector<unsigned char, std::__ndk1::allocator<unsigned char> >, void> const&)::$_1>, float (nlohmann::json_abi_v3_11_3::basic_json<std::__ndk1::map, std::__ndk1::vector, std::__ndk1::basic_string<char, std::__ndk1::char_traits<char>, std::__ndk1::allocator<char> >, bool, long, unsigned long, double, std::__ndk1::allocator, nlohmann::json_abi_v3_11_3::adl_serializer, std::__ndk1::vector<unsigned char, std::__ndk1::allocator<unsigned char> >, void> const&)>::destroy_deallocate()
PUBLIC b64a8 0 std::__ndk1::__function::__func<Theme::Theme::createTheme(nlohmann::json_abi_v3_11_3::basic_json<std::__ndk1::map, std::__ndk1::vector, std::__ndk1::basic_string<char, std::__ndk1::char_traits<char>, std::__ndk1::allocator<char> >, bool, long, unsigned long, double, std::__ndk1::allocator, nlohmann::json_abi_v3_11_3::adl_serializer, std::__ndk1::vector<unsigned char, std::__ndk1::allocator<unsigned char> >, void> const&)::$_1, std::__ndk1::allocator<Theme::Theme::createTheme(nlohmann::json_abi_v3_11_3::basic_json<std::__ndk1::map, std::__ndk1::vector, std::__ndk1::basic_string<char, std::__ndk1::char_traits<char>, std::__ndk1::allocator<char> >, bool, long, unsigned long, double, std::__ndk1::allocator, nlohmann::json_abi_v3_11_3::adl_serializer, std::__ndk1::vector<unsigned char, std::__ndk1::allocator<unsigned char> >, void> const&)::$_1>, float (nlohmann::json_abi_v3_11_3::basic_json<std::__ndk1::map, std::__ndk1::vector, std::__ndk1::basic_string<char, std::__ndk1::char_traits<char>, std::__ndk1::allocator<char> >, bool, long, unsigned long, double, std::__ndk1::allocator, nlohmann::json_abi_v3_11_3::adl_serializer, std::__ndk1::vector<unsigned char, std::__ndk1::allocator<unsigned char> >, void> const&)>::operator()(nlohmann::json_abi_v3_11_3::basic_json<std::__ndk1::map, std::__ndk1::vector, std::__ndk1::basic_string<char, std::__ndk1::char_traits<char>, std::__ndk1::allocator<char> >, bool, long, unsigned long, double, std::__ndk1::allocator, nlohmann::json_abi_v3_11_3::adl_serializer, std::__ndk1::vector<unsigned char, std::__ndk1::allocator<unsigned char> >, void> const&)
PUBLIC b64fc 0 std::__ndk1::__function::__func<Theme::Theme::createTheme(nlohmann::json_abi_v3_11_3::basic_json<std::__ndk1::map, std::__ndk1::vector, std::__ndk1::basic_string<char, std::__ndk1::char_traits<char>, std::__ndk1::allocator<char> >, bool, long, unsigned long, double, std::__ndk1::allocator, nlohmann::json_abi_v3_11_3::adl_serializer, std::__ndk1::vector<unsigned char, std::__ndk1::allocator<unsigned char> >, void> const&)::$_1, std::__ndk1::allocator<Theme::Theme::createTheme(nlohmann::json_abi_v3_11_3::basic_json<std::__ndk1::map, std::__ndk1::vector, std::__ndk1::basic_string<char, std::__ndk1::char_traits<char>, std::__ndk1::allocator<char> >, bool, long, unsigned long, double, std::__ndk1::allocator, nlohmann::json_abi_v3_11_3::adl_serializer, std::__ndk1::vector<unsigned char, std::__ndk1::allocator<unsigned char> >, void> const&)::$_1>, float (nlohmann::json_abi_v3_11_3::basic_json<std::__ndk1::map, std::__ndk1::vector, std::__ndk1::basic_string<char, std::__ndk1::char_traits<char>, std::__ndk1::allocator<char> >, bool, long, unsigned long, double, std::__ndk1::allocator, nlohmann::json_abi_v3_11_3::adl_serializer, std::__ndk1::vector<unsigned char, std::__ndk1::allocator<unsigned char> >, void> const&)>::target(std::type_info const&) const
PUBLIC b6518 0 std::__ndk1::__function::__func<Theme::Theme::createTheme(nlohmann::json_abi_v3_11_3::basic_json<std::__ndk1::map, std::__ndk1::vector, std::__ndk1::basic_string<char, std::__ndk1::char_traits<char>, std::__ndk1::allocator<char> >, bool, long, unsigned long, double, std::__ndk1::allocator, nlohmann::json_abi_v3_11_3::adl_serializer, std::__ndk1::vector<unsigned char, std::__ndk1::allocator<unsigned char> >, void> const&)::$_1, std::__ndk1::allocator<Theme::Theme::createTheme(nlohmann::json_abi_v3_11_3::basic_json<std::__ndk1::map, std::__ndk1::vector, std::__ndk1::basic_string<char, std::__ndk1::char_traits<char>, std::__ndk1::allocator<char> >, bool, long, unsigned long, double, std::__ndk1::allocator, nlohmann::json_abi_v3_11_3::adl_serializer, std::__ndk1::vector<unsigned char, std::__ndk1::allocator<unsigned char> >, void> const&)::$_1>, float (nlohmann::json_abi_v3_11_3::basic_json<std::__ndk1::map, std::__ndk1::vector, std::__ndk1::basic_string<char, std::__ndk1::char_traits<char>, std::__ndk1::allocator<char> >, bool, long, unsigned long, double, std::__ndk1::allocator, nlohmann::json_abi_v3_11_3::adl_serializer, std::__ndk1::vector<unsigned char, std::__ndk1::allocator<unsigned char> >, void> const&)>::target_type() const
PUBLIC b6524 0 std::__ndk1::__function::__func<Theme::Theme::createTheme(nlohmann::json_abi_v3_11_3::basic_json<std::__ndk1::map, std::__ndk1::vector, std::__ndk1::basic_string<char, std::__ndk1::char_traits<char>, std::__ndk1::allocator<char> >, bool, long, unsigned long, double, std::__ndk1::allocator, nlohmann::json_abi_v3_11_3::adl_serializer, std::__ndk1::vector<unsigned char, std::__ndk1::allocator<unsigned char> >, void> const&)::$_2, std::__ndk1::allocator<Theme::Theme::createTheme(nlohmann::json_abi_v3_11_3::basic_json<std::__ndk1::map, std::__ndk1::vector, std::__ndk1::basic_string<char, std::__ndk1::char_traits<char>, std::__ndk1::allocator<char> >, bool, long, unsigned long, double, std::__ndk1::allocator, nlohmann::json_abi_v3_11_3::adl_serializer, std::__ndk1::vector<unsigned char, std::__ndk1::allocator<unsigned char> >, void> const&)::$_2>, float (nlohmann::json_abi_v3_11_3::basic_json<std::__ndk1::map, std::__ndk1::vector, std::__ndk1::basic_string<char, std::__ndk1::char_traits<char>, std::__ndk1::allocator<char> >, bool, long, unsigned long, double, std::__ndk1::allocator, nlohmann::json_abi_v3_11_3::adl_serializer, std::__ndk1::vector<unsigned char, std::__ndk1::allocator<unsigned char> >, void> const&)>::~__func()
PUBLIC b6528 0 std::__ndk1::__function::__func<Theme::Theme::createTheme(nlohmann::json_abi_v3_11_3::basic_json<std::__ndk1::map, std::__ndk1::vector, std::__ndk1::basic_string<char, std::__ndk1::char_traits<char>, std::__ndk1::allocator<char> >, bool, long, unsigned long, double, std::__ndk1::allocator, nlohmann::json_abi_v3_11_3::adl_serializer, std::__ndk1::vector<unsigned char, std::__ndk1::allocator<unsigned char> >, void> const&)::$_2, std::__ndk1::allocator<Theme::Theme::createTheme(nlohmann::json_abi_v3_11_3::basic_json<std::__ndk1::map, std::__ndk1::vector, std::__ndk1::basic_string<char, std::__ndk1::char_traits<char>, std::__ndk1::allocator<char> >, bool, long, unsigned long, double, std::__ndk1::allocator, nlohmann::json_abi_v3_11_3::adl_serializer, std::__ndk1::vector<unsigned char, std::__ndk1::allocator<unsigned char> >, void> const&)::$_2>, float (nlohmann::json_abi_v3_11_3::basic_json<std::__ndk1::map, std::__ndk1::vector, std::__ndk1::basic_string<char, std::__ndk1::char_traits<char>, std::__ndk1::allocator<char> >, bool, long, unsigned long, double, std::__ndk1::allocator, nlohmann::json_abi_v3_11_3::adl_serializer, std::__ndk1::vector<unsigned char, std::__ndk1::allocator<unsigned char> >, void> const&)>::__clone() const
PUBLIC b654c 0 std::__ndk1::__function::__func<Theme::Theme::createTheme(nlohmann::json_abi_v3_11_3::basic_json<std::__ndk1::map, std::__ndk1::vector, std::__ndk1::basic_string<char, std::__ndk1::char_traits<char>, std::__ndk1::allocator<char> >, bool, long, unsigned long, double, std::__ndk1::allocator, nlohmann::json_abi_v3_11_3::adl_serializer, std::__ndk1::vector<unsigned char, std::__ndk1::allocator<unsigned char> >, void> const&)::$_2, std::__ndk1::allocator<Theme::Theme::createTheme(nlohmann::json_abi_v3_11_3::basic_json<std::__ndk1::map, std::__ndk1::vector, std::__ndk1::basic_string<char, std::__ndk1::char_traits<char>, std::__ndk1::allocator<char> >, bool, long, unsigned long, double, std::__ndk1::allocator, nlohmann::json_abi_v3_11_3::adl_serializer, std::__ndk1::vector<unsigned char, std::__ndk1::allocator<unsigned char> >, void> const&)::$_2>, float (nlohmann::json_abi_v3_11_3::basic_json<std::__ndk1::map, std::__ndk1::vector, std::__ndk1::basic_string<char, std::__ndk1::char_traits<char>, std::__ndk1::allocator<char> >, bool, long, unsigned long, double, std::__ndk1::allocator, nlohmann::json_abi_v3_11_3::adl_serializer, std::__ndk1::vector<unsigned char, std::__ndk1::allocator<unsigned char> >, void> const&)>::__clone(std::__ndk1::__function::__base<float (nlohmann::json_abi_v3_11_3::basic_json<std::__ndk1::map, std::__ndk1::vector, std::__ndk1::basic_string<char, std::__ndk1::char_traits<char>, std::__ndk1::allocator<char> >, bool, long, unsigned long, double, std::__ndk1::allocator, nlohmann::json_abi_v3_11_3::adl_serializer, std::__ndk1::vector<unsigned char, std::__ndk1::allocator<unsigned char> >, void> const&)>*) const
PUBLIC b655c 0 std::__ndk1::__function::__func<Theme::Theme::createTheme(nlohmann::json_abi_v3_11_3::basic_json<std::__ndk1::map, std::__ndk1::vector, std::__ndk1::basic_string<char, std::__ndk1::char_traits<char>, std::__ndk1::allocator<char> >, bool, long, unsigned long, double, std::__ndk1::allocator, nlohmann::json_abi_v3_11_3::adl_serializer, std::__ndk1::vector<unsigned char, std::__ndk1::allocator<unsigned char> >, void> const&)::$_2, std::__ndk1::allocator<Theme::Theme::createTheme(nlohmann::json_abi_v3_11_3::basic_json<std::__ndk1::map, std::__ndk1::vector, std::__ndk1::basic_string<char, std::__ndk1::char_traits<char>, std::__ndk1::allocator<char> >, bool, long, unsigned long, double, std::__ndk1::allocator, nlohmann::json_abi_v3_11_3::adl_serializer, std::__ndk1::vector<unsigned char, std::__ndk1::allocator<unsigned char> >, void> const&)::$_2>, float (nlohmann::json_abi_v3_11_3::basic_json<std::__ndk1::map, std::__ndk1::vector, std::__ndk1::basic_string<char, std::__ndk1::char_traits<char>, std::__ndk1::allocator<char> >, bool, long, unsigned long, double, std::__ndk1::allocator, nlohmann::json_abi_v3_11_3::adl_serializer, std::__ndk1::vector<unsigned char, std::__ndk1::allocator<unsigned char> >, void> const&)>::destroy()
PUBLIC b6560 0 std::__ndk1::__function::__func<Theme::Theme::createTheme(nlohmann::json_abi_v3_11_3::basic_json<std::__ndk1::map, std::__ndk1::vector, std::__ndk1::basic_string<char, std::__ndk1::char_traits<char>, std::__ndk1::allocator<char> >, bool, long, unsigned long, double, std::__ndk1::allocator, nlohmann::json_abi_v3_11_3::adl_serializer, std::__ndk1::vector<unsigned char, std::__ndk1::allocator<unsigned char> >, void> const&)::$_2, std::__ndk1::allocator<Theme::Theme::createTheme(nlohmann::json_abi_v3_11_3::basic_json<std::__ndk1::map, std::__ndk1::vector, std::__ndk1::basic_string<char, std::__ndk1::char_traits<char>, std::__ndk1::allocator<char> >, bool, long, unsigned long, double, std::__ndk1::allocator, nlohmann::json_abi_v3_11_3::adl_serializer, std::__ndk1::vector<unsigned char, std::__ndk1::allocator<unsigned char> >, void> const&)::$_2>, float (nlohmann::json_abi_v3_11_3::basic_json<std::__ndk1::map, std::__ndk1::vector, std::__ndk1::basic_string<char, std::__ndk1::char_traits<char>, std::__ndk1::allocator<char> >, bool, long, unsigned long, double, std::__ndk1::allocator, nlohmann::json_abi_v3_11_3::adl_serializer, std::__ndk1::vector<unsigned char, std::__ndk1::allocator<unsigned char> >, void> const&)>::destroy_deallocate()
PUBLIC b6564 0 std::__ndk1::__function::__func<Theme::Theme::createTheme(nlohmann::json_abi_v3_11_3::basic_json<std::__ndk1::map, std::__ndk1::vector, std::__ndk1::basic_string<char, std::__ndk1::char_traits<char>, std::__ndk1::allocator<char> >, bool, long, unsigned long, double, std::__ndk1::allocator, nlohmann::json_abi_v3_11_3::adl_serializer, std::__ndk1::vector<unsigned char, std::__ndk1::allocator<unsigned char> >, void> const&)::$_2, std::__ndk1::allocator<Theme::Theme::createTheme(nlohmann::json_abi_v3_11_3::basic_json<std::__ndk1::map, std::__ndk1::vector, std::__ndk1::basic_string<char, std::__ndk1::char_traits<char>, std::__ndk1::allocator<char> >, bool, long, unsigned long, double, std::__ndk1::allocator, nlohmann::json_abi_v3_11_3::adl_serializer, std::__ndk1::vector<unsigned char, std::__ndk1::allocator<unsigned char> >, void> const&)::$_2>, float (nlohmann::json_abi_v3_11_3::basic_json<std::__ndk1::map, std::__ndk1::vector, std::__ndk1::basic_string<char, std::__ndk1::char_traits<char>, std::__ndk1::allocator<char> >, bool, long, unsigned long, double, std::__ndk1::allocator, nlohmann::json_abi_v3_11_3::adl_serializer, std::__ndk1::vector<unsigned char, std::__ndk1::allocator<unsigned char> >, void> const&)>::operator()(nlohmann::json_abi_v3_11_3::basic_json<std::__ndk1::map, std::__ndk1::vector, std::__ndk1::basic_string<char, std::__ndk1::char_traits<char>, std::__ndk1::allocator<char> >, bool, long, unsigned long, double, std::__ndk1::allocator, nlohmann::json_abi_v3_11_3::adl_serializer, std::__ndk1::vector<unsigned char, std::__ndk1::allocator<unsigned char> >, void> const&)
PUBLIC b65b8 0 std::__ndk1::__function::__func<Theme::Theme::createTheme(nlohmann::json_abi_v3_11_3::basic_json<std::__ndk1::map, std::__ndk1::vector, std::__ndk1::basic_string<char, std::__ndk1::char_traits<char>, std::__ndk1::allocator<char> >, bool, long, unsigned long, double, std::__ndk1::allocator, nlohmann::json_abi_v3_11_3::adl_serializer, std::__ndk1::vector<unsigned char, std::__ndk1::allocator<unsigned char> >, void> const&)::$_2, std::__ndk1::allocator<Theme::Theme::createTheme(nlohmann::json_abi_v3_11_3::basic_json<std::__ndk1::map, std::__ndk1::vector, std::__ndk1::basic_string<char, std::__ndk1::char_traits<char>, std::__ndk1::allocator<char> >, bool, long, unsigned long, double, std::__ndk1::allocator, nlohmann::json_abi_v3_11_3::adl_serializer, std::__ndk1::vector<unsigned char, std::__ndk1::allocator<unsigned char> >, void> const&)::$_2>, float (nlohmann::json_abi_v3_11_3::basic_json<std::__ndk1::map, std::__ndk1::vector, std::__ndk1::basic_string<char, std::__ndk1::char_traits<char>, std::__ndk1::allocator<char> >, bool, long, unsigned long, double, std::__ndk1::allocator, nlohmann::json_abi_v3_11_3::adl_serializer, std::__ndk1::vector<unsigned char, std::__ndk1::allocator<unsigned char> >, void> const&)>::target(std::type_info const&) const
PUBLIC b65d4 0 std::__ndk1::__function::__func<Theme::Theme::createTheme(nlohmann::json_abi_v3_11_3::basic_json<std::__ndk1::map, std::__ndk1::vector, std::__ndk1::basic_string<char, std::__ndk1::char_traits<char>, std::__ndk1::allocator<char> >, bool, long, unsigned long, double, std::__ndk1::allocator, nlohmann::json_abi_v3_11_3::adl_serializer, std::__ndk1::vector<unsigned char, std::__ndk1::allocator<unsigned char> >, void> const&)::$_2, std::__ndk1::allocator<Theme::Theme::createTheme(nlohmann::json_abi_v3_11_3::basic_json<std::__ndk1::map, std::__ndk1::vector, std::__ndk1::basic_string<char, std::__ndk1::char_traits<char>, std::__ndk1::allocator<char> >, bool, long, unsigned long, double, std::__ndk1::allocator, nlohmann::json_abi_v3_11_3::adl_serializer, std::__ndk1::vector<unsigned char, std::__ndk1::allocator<unsigned char> >, void> const&)::$_2>, float (nlohmann::json_abi_v3_11_3::basic_json<std::__ndk1::map, std::__ndk1::vector, std::__ndk1::basic_string<char, std::__ndk1::char_traits<char>, std::__ndk1::allocator<char> >, bool, long, unsigned long, double, std::__ndk1::allocator, nlohmann::json_abi_v3_11_3::adl_serializer, std::__ndk1::vector<unsigned char, std::__ndk1::allocator<unsigned char> >, void> const&)>::target_type() const
PUBLIC b65e0 0 std::__ndk1::__function::__func<Theme::Theme::createTheme(nlohmann::json_abi_v3_11_3::basic_json<std::__ndk1::map, std::__ndk1::vector, std::__ndk1::basic_string<char, std::__ndk1::char_traits<char>, std::__ndk1::allocator<char> >, bool, long, unsigned long, double, std::__ndk1::allocator, nlohmann::json_abi_v3_11_3::adl_serializer, std::__ndk1::vector<unsigned char, std::__ndk1::allocator<unsigned char> >, void> const&)::$_3, std::__ndk1::allocator<Theme::Theme::createTheme(nlohmann::json_abi_v3_11_3::basic_json<std::__ndk1::map, std::__ndk1::vector, std::__ndk1::basic_string<char, std::__ndk1::char_traits<char>, std::__ndk1::allocator<char> >, bool, long, unsigned long, double, std::__ndk1::allocator, nlohmann::json_abi_v3_11_3::adl_serializer, std::__ndk1::vector<unsigned char, std::__ndk1::allocator<unsigned char> >, void> const&)::$_3>, float (nlohmann::json_abi_v3_11_3::basic_json<std::__ndk1::map, std::__ndk1::vector, std::__ndk1::basic_string<char, std::__ndk1::char_traits<char>, std::__ndk1::allocator<char> >, bool, long, unsigned long, double, std::__ndk1::allocator, nlohmann::json_abi_v3_11_3::adl_serializer, std::__ndk1::vector<unsigned char, std::__ndk1::allocator<unsigned char> >, void> const&)>::~__func()
PUBLIC b65e4 0 std::__ndk1::__function::__func<Theme::Theme::createTheme(nlohmann::json_abi_v3_11_3::basic_json<std::__ndk1::map, std::__ndk1::vector, std::__ndk1::basic_string<char, std::__ndk1::char_traits<char>, std::__ndk1::allocator<char> >, bool, long, unsigned long, double, std::__ndk1::allocator, nlohmann::json_abi_v3_11_3::adl_serializer, std::__ndk1::vector<unsigned char, std::__ndk1::allocator<unsigned char> >, void> const&)::$_3, std::__ndk1::allocator<Theme::Theme::createTheme(nlohmann::json_abi_v3_11_3::basic_json<std::__ndk1::map, std::__ndk1::vector, std::__ndk1::basic_string<char, std::__ndk1::char_traits<char>, std::__ndk1::allocator<char> >, bool, long, unsigned long, double, std::__ndk1::allocator, nlohmann::json_abi_v3_11_3::adl_serializer, std::__ndk1::vector<unsigned char, std::__ndk1::allocator<unsigned char> >, void> const&)::$_3>, float (nlohmann::json_abi_v3_11_3::basic_json<std::__ndk1::map, std::__ndk1::vector, std::__ndk1::basic_string<char, std::__ndk1::char_traits<char>, std::__ndk1::allocator<char> >, bool, long, unsigned long, double, std::__ndk1::allocator, nlohmann::json_abi_v3_11_3::adl_serializer, std::__ndk1::vector<unsigned char, std::__ndk1::allocator<unsigned char> >, void> const&)>::__clone() const
PUBLIC b6608 0 std::__ndk1::__function::__func<Theme::Theme::createTheme(nlohmann::json_abi_v3_11_3::basic_json<std::__ndk1::map, std::__ndk1::vector, std::__ndk1::basic_string<char, std::__ndk1::char_traits<char>, std::__ndk1::allocator<char> >, bool, long, unsigned long, double, std::__ndk1::allocator, nlohmann::json_abi_v3_11_3::adl_serializer, std::__ndk1::vector<unsigned char, std::__ndk1::allocator<unsigned char> >, void> const&)::$_3, std::__ndk1::allocator<Theme::Theme::createTheme(nlohmann::json_abi_v3_11_3::basic_json<std::__ndk1::map, std::__ndk1::vector, std::__ndk1::basic_string<char, std::__ndk1::char_traits<char>, std::__ndk1::allocator<char> >, bool, long, unsigned long, double, std::__ndk1::allocator, nlohmann::json_abi_v3_11_3::adl_serializer, std::__ndk1::vector<unsigned char, std::__ndk1::allocator<unsigned char> >, void> const&)::$_3>, float (nlohmann::json_abi_v3_11_3::basic_json<std::__ndk1::map, std::__ndk1::vector, std::__ndk1::basic_string<char, std::__ndk1::char_traits<char>, std::__ndk1::allocator<char> >, bool, long, unsigned long, double, std::__ndk1::allocator, nlohmann::json_abi_v3_11_3::adl_serializer, std::__ndk1::vector<unsigned char, std::__ndk1::allocator<unsigned char> >, void> const&)>::__clone(std::__ndk1::__function::__base<float (nlohmann::json_abi_v3_11_3::basic_json<std::__ndk1::map, std::__ndk1::vector, std::__ndk1::basic_string<char, std::__ndk1::char_traits<char>, std::__ndk1::allocator<char> >, bool, long, unsigned long, double, std::__ndk1::allocator, nlohmann::json_abi_v3_11_3::adl_serializer, std::__ndk1::vector<unsigned char, std::__ndk1::allocator<unsigned char> >, void> const&)>*) const
PUBLIC b6618 0 std::__ndk1::__function::__func<Theme::Theme::createTheme(nlohmann::json_abi_v3_11_3::basic_json<std::__ndk1::map, std::__ndk1::vector, std::__ndk1::basic_string<char, std::__ndk1::char_traits<char>, std::__ndk1::allocator<char> >, bool, long, unsigned long, double, std::__ndk1::allocator, nlohmann::json_abi_v3_11_3::adl_serializer, std::__ndk1::vector<unsigned char, std::__ndk1::allocator<unsigned char> >, void> const&)::$_3, std::__ndk1::allocator<Theme::Theme::createTheme(nlohmann::json_abi_v3_11_3::basic_json<std::__ndk1::map, std::__ndk1::vector, std::__ndk1::basic_string<char, std::__ndk1::char_traits<char>, std::__ndk1::allocator<char> >, bool, long, unsigned long, double, std::__ndk1::allocator, nlohmann::json_abi_v3_11_3::adl_serializer, std::__ndk1::vector<unsigned char, std::__ndk1::allocator<unsigned char> >, void> const&)::$_3>, float (nlohmann::json_abi_v3_11_3::basic_json<std::__ndk1::map, std::__ndk1::vector, std::__ndk1::basic_string<char, std::__ndk1::char_traits<char>, std::__ndk1::allocator<char> >, bool, long, unsigned long, double, std::__ndk1::allocator, nlohmann::json_abi_v3_11_3::adl_serializer, std::__ndk1::vector<unsigned char, std::__ndk1::allocator<unsigned char> >, void> const&)>::destroy()
PUBLIC b661c 0 std::__ndk1::__function::__func<Theme::Theme::createTheme(nlohmann::json_abi_v3_11_3::basic_json<std::__ndk1::map, std::__ndk1::vector, std::__ndk1::basic_string<char, std::__ndk1::char_traits<char>, std::__ndk1::allocator<char> >, bool, long, unsigned long, double, std::__ndk1::allocator, nlohmann::json_abi_v3_11_3::adl_serializer, std::__ndk1::vector<unsigned char, std::__ndk1::allocator<unsigned char> >, void> const&)::$_3, std::__ndk1::allocator<Theme::Theme::createTheme(nlohmann::json_abi_v3_11_3::basic_json<std::__ndk1::map, std::__ndk1::vector, std::__ndk1::basic_string<char, std::__ndk1::char_traits<char>, std::__ndk1::allocator<char> >, bool, long, unsigned long, double, std::__ndk1::allocator, nlohmann::json_abi_v3_11_3::adl_serializer, std::__ndk1::vector<unsigned char, std::__ndk1::allocator<unsigned char> >, void> const&)::$_3>, float (nlohmann::json_abi_v3_11_3::basic_json<std::__ndk1::map, std::__ndk1::vector, std::__ndk1::basic_string<char, std::__ndk1::char_traits<char>, std::__ndk1::allocator<char> >, bool, long, unsigned long, double, std::__ndk1::allocator, nlohmann::json_abi_v3_11_3::adl_serializer, std::__ndk1::vector<unsigned char, std::__ndk1::allocator<unsigned char> >, void> const&)>::destroy_deallocate()
PUBLIC b6620 0 std::__ndk1::__function::__func<Theme::Theme::createTheme(nlohmann::json_abi_v3_11_3::basic_json<std::__ndk1::map, std::__ndk1::vector, std::__ndk1::basic_string<char, std::__ndk1::char_traits<char>, std::__ndk1::allocator<char> >, bool, long, unsigned long, double, std::__ndk1::allocator, nlohmann::json_abi_v3_11_3::adl_serializer, std::__ndk1::vector<unsigned char, std::__ndk1::allocator<unsigned char> >, void> const&)::$_3, std::__ndk1::allocator<Theme::Theme::createTheme(nlohmann::json_abi_v3_11_3::basic_json<std::__ndk1::map, std::__ndk1::vector, std::__ndk1::basic_string<char, std::__ndk1::char_traits<char>, std::__ndk1::allocator<char> >, bool, long, unsigned long, double, std::__ndk1::allocator, nlohmann::json_abi_v3_11_3::adl_serializer, std::__ndk1::vector<unsigned char, std::__ndk1::allocator<unsigned char> >, void> const&)::$_3>, float (nlohmann::json_abi_v3_11_3::basic_json<std::__ndk1::map, std::__ndk1::vector, std::__ndk1::basic_string<char, std::__ndk1::char_traits<char>, std::__ndk1::allocator<char> >, bool, long, unsigned long, double, std::__ndk1::allocator, nlohmann::json_abi_v3_11_3::adl_serializer, std::__ndk1::vector<unsigned char, std::__ndk1::allocator<unsigned char> >, void> const&)>::operator()(nlohmann::json_abi_v3_11_3::basic_json<std::__ndk1::map, std::__ndk1::vector, std::__ndk1::basic_string<char, std::__ndk1::char_traits<char>, std::__ndk1::allocator<char> >, bool, long, unsigned long, double, std::__ndk1::allocator, nlohmann::json_abi_v3_11_3::adl_serializer, std::__ndk1::vector<unsigned char, std::__ndk1::allocator<unsigned char> >, void> const&)
PUBLIC b6674 0 std::__ndk1::__function::__func<Theme::Theme::createTheme(nlohmann::json_abi_v3_11_3::basic_json<std::__ndk1::map, std::__ndk1::vector, std::__ndk1::basic_string<char, std::__ndk1::char_traits<char>, std::__ndk1::allocator<char> >, bool, long, unsigned long, double, std::__ndk1::allocator, nlohmann::json_abi_v3_11_3::adl_serializer, std::__ndk1::vector<unsigned char, std::__ndk1::allocator<unsigned char> >, void> const&)::$_3, std::__ndk1::allocator<Theme::Theme::createTheme(nlohmann::json_abi_v3_11_3::basic_json<std::__ndk1::map, std::__ndk1::vector, std::__ndk1::basic_string<char, std::__ndk1::char_traits<char>, std::__ndk1::allocator<char> >, bool, long, unsigned long, double, std::__ndk1::allocator, nlohmann::json_abi_v3_11_3::adl_serializer, std::__ndk1::vector<unsigned char, std::__ndk1::allocator<unsigned char> >, void> const&)::$_3>, float (nlohmann::json_abi_v3_11_3::basic_json<std::__ndk1::map, std::__ndk1::vector, std::__ndk1::basic_string<char, std::__ndk1::char_traits<char>, std::__ndk1::allocator<char> >, bool, long, unsigned long, double, std::__ndk1::allocator, nlohmann::json_abi_v3_11_3::adl_serializer, std::__ndk1::vector<unsigned char, std::__ndk1::allocator<unsigned char> >, void> const&)>::target(std::type_info const&) const
PUBLIC b6690 0 std::__ndk1::__function::__func<Theme::Theme::createTheme(nlohmann::json_abi_v3_11_3::basic_json<std::__ndk1::map, std::__ndk1::vector, std::__ndk1::basic_string<char, std::__ndk1::char_traits<char>, std::__ndk1::allocator<char> >, bool, long, unsigned long, double, std::__ndk1::allocator, nlohmann::json_abi_v3_11_3::adl_serializer, std::__ndk1::vector<unsigned char, std::__ndk1::allocator<unsigned char> >, void> const&)::$_3, std::__ndk1::allocator<Theme::Theme::createTheme(nlohmann::json_abi_v3_11_3::basic_json<std::__ndk1::map, std::__ndk1::vector, std::__ndk1::basic_string<char, std::__ndk1::char_traits<char>, std::__ndk1::allocator<char> >, bool, long, unsigned long, double, std::__ndk1::allocator, nlohmann::json_abi_v3_11_3::adl_serializer, std::__ndk1::vector<unsigned char, std::__ndk1::allocator<unsigned char> >, void> const&)::$_3>, float (nlohmann::json_abi_v3_11_3::basic_json<std::__ndk1::map, std::__ndk1::vector, std::__ndk1::basic_string<char, std::__ndk1::char_traits<char>, std::__ndk1::allocator<char> >, bool, long, unsigned long, double, std::__ndk1::allocator, nlohmann::json_abi_v3_11_3::adl_serializer, std::__ndk1::vector<unsigned char, std::__ndk1::allocator<unsigned char> >, void> const&)>::target_type() const
PUBLIC b669c 0 std::__ndk1::__function::__func<Theme::Theme::createTheme(nlohmann::json_abi_v3_11_3::basic_json<std::__ndk1::map, std::__ndk1::vector, std::__ndk1::basic_string<char, std::__ndk1::char_traits<char>, std::__ndk1::allocator<char> >, bool, long, unsigned long, double, std::__ndk1::allocator, nlohmann::json_abi_v3_11_3::adl_serializer, std::__ndk1::vector<unsigned char, std::__ndk1::allocator<unsigned char> >, void> const&)::$_4, std::__ndk1::allocator<Theme::Theme::createTheme(nlohmann::json_abi_v3_11_3::basic_json<std::__ndk1::map, std::__ndk1::vector, std::__ndk1::basic_string<char, std::__ndk1::char_traits<char>, std::__ndk1::allocator<char> >, bool, long, unsigned long, double, std::__ndk1::allocator, nlohmann::json_abi_v3_11_3::adl_serializer, std::__ndk1::vector<unsigned char, std::__ndk1::allocator<unsigned char> >, void> const&)::$_4>, float (nlohmann::json_abi_v3_11_3::basic_json<std::__ndk1::map, std::__ndk1::vector, std::__ndk1::basic_string<char, std::__ndk1::char_traits<char>, std::__ndk1::allocator<char> >, bool, long, unsigned long, double, std::__ndk1::allocator, nlohmann::json_abi_v3_11_3::adl_serializer, std::__ndk1::vector<unsigned char, std::__ndk1::allocator<unsigned char> >, void> const&)>::~__func()
PUBLIC b66a0 0 std::__ndk1::__function::__func<Theme::Theme::createTheme(nlohmann::json_abi_v3_11_3::basic_json<std::__ndk1::map, std::__ndk1::vector, std::__ndk1::basic_string<char, std::__ndk1::char_traits<char>, std::__ndk1::allocator<char> >, bool, long, unsigned long, double, std::__ndk1::allocator, nlohmann::json_abi_v3_11_3::adl_serializer, std::__ndk1::vector<unsigned char, std::__ndk1::allocator<unsigned char> >, void> const&)::$_4, std::__ndk1::allocator<Theme::Theme::createTheme(nlohmann::json_abi_v3_11_3::basic_json<std::__ndk1::map, std::__ndk1::vector, std::__ndk1::basic_string<char, std::__ndk1::char_traits<char>, std::__ndk1::allocator<char> >, bool, long, unsigned long, double, std::__ndk1::allocator, nlohmann::json_abi_v3_11_3::adl_serializer, std::__ndk1::vector<unsigned char, std::__ndk1::allocator<unsigned char> >, void> const&)::$_4>, float (nlohmann::json_abi_v3_11_3::basic_json<std::__ndk1::map, std::__ndk1::vector, std::__ndk1::basic_string<char, std::__ndk1::char_traits<char>, std::__ndk1::allocator<char> >, bool, long, unsigned long, double, std::__ndk1::allocator, nlohmann::json_abi_v3_11_3::adl_serializer, std::__ndk1::vector<unsigned char, std::__ndk1::allocator<unsigned char> >, void> const&)>::__clone() const
PUBLIC b66c4 0 std::__ndk1::__function::__func<Theme::Theme::createTheme(nlohmann::json_abi_v3_11_3::basic_json<std::__ndk1::map, std::__ndk1::vector, std::__ndk1::basic_string<char, std::__ndk1::char_traits<char>, std::__ndk1::allocator<char> >, bool, long, unsigned long, double, std::__ndk1::allocator, nlohmann::json_abi_v3_11_3::adl_serializer, std::__ndk1::vector<unsigned char, std::__ndk1::allocator<unsigned char> >, void> const&)::$_4, std::__ndk1::allocator<Theme::Theme::createTheme(nlohmann::json_abi_v3_11_3::basic_json<std::__ndk1::map, std::__ndk1::vector, std::__ndk1::basic_string<char, std::__ndk1::char_traits<char>, std::__ndk1::allocator<char> >, bool, long, unsigned long, double, std::__ndk1::allocator, nlohmann::json_abi_v3_11_3::adl_serializer, std::__ndk1::vector<unsigned char, std::__ndk1::allocator<unsigned char> >, void> const&)::$_4>, float (nlohmann::json_abi_v3_11_3::basic_json<std::__ndk1::map, std::__ndk1::vector, std::__ndk1::basic_string<char, std::__ndk1::char_traits<char>, std::__ndk1::allocator<char> >, bool, long, unsigned long, double, std::__ndk1::allocator, nlohmann::json_abi_v3_11_3::adl_serializer, std::__ndk1::vector<unsigned char, std::__ndk1::allocator<unsigned char> >, void> const&)>::__clone(std::__ndk1::__function::__base<float (nlohmann::json_abi_v3_11_3::basic_json<std::__ndk1::map, std::__ndk1::vector, std::__ndk1::basic_string<char, std::__ndk1::char_traits<char>, std::__ndk1::allocator<char> >, bool, long, unsigned long, double, std::__ndk1::allocator, nlohmann::json_abi_v3_11_3::adl_serializer, std::__ndk1::vector<unsigned char, std::__ndk1::allocator<unsigned char> >, void> const&)>*) const
PUBLIC b66d4 0 std::__ndk1::__function::__func<Theme::Theme::createTheme(nlohmann::json_abi_v3_11_3::basic_json<std::__ndk1::map, std::__ndk1::vector, std::__ndk1::basic_string<char, std::__ndk1::char_traits<char>, std::__ndk1::allocator<char> >, bool, long, unsigned long, double, std::__ndk1::allocator, nlohmann::json_abi_v3_11_3::adl_serializer, std::__ndk1::vector<unsigned char, std::__ndk1::allocator<unsigned char> >, void> const&)::$_4, std::__ndk1::allocator<Theme::Theme::createTheme(nlohmann::json_abi_v3_11_3::basic_json<std::__ndk1::map, std::__ndk1::vector, std::__ndk1::basic_string<char, std::__ndk1::char_traits<char>, std::__ndk1::allocator<char> >, bool, long, unsigned long, double, std::__ndk1::allocator, nlohmann::json_abi_v3_11_3::adl_serializer, std::__ndk1::vector<unsigned char, std::__ndk1::allocator<unsigned char> >, void> const&)::$_4>, float (nlohmann::json_abi_v3_11_3::basic_json<std::__ndk1::map, std::__ndk1::vector, std::__ndk1::basic_string<char, std::__ndk1::char_traits<char>, std::__ndk1::allocator<char> >, bool, long, unsigned long, double, std::__ndk1::allocator, nlohmann::json_abi_v3_11_3::adl_serializer, std::__ndk1::vector<unsigned char, std::__ndk1::allocator<unsigned char> >, void> const&)>::destroy()
PUBLIC b66d8 0 std::__ndk1::__function::__func<Theme::Theme::createTheme(nlohmann::json_abi_v3_11_3::basic_json<std::__ndk1::map, std::__ndk1::vector, std::__ndk1::basic_string<char, std::__ndk1::char_traits<char>, std::__ndk1::allocator<char> >, bool, long, unsigned long, double, std::__ndk1::allocator, nlohmann::json_abi_v3_11_3::adl_serializer, std::__ndk1::vector<unsigned char, std::__ndk1::allocator<unsigned char> >, void> const&)::$_4, std::__ndk1::allocator<Theme::Theme::createTheme(nlohmann::json_abi_v3_11_3::basic_json<std::__ndk1::map, std::__ndk1::vector, std::__ndk1::basic_string<char, std::__ndk1::char_traits<char>, std::__ndk1::allocator<char> >, bool, long, unsigned long, double, std::__ndk1::allocator, nlohmann::json_abi_v3_11_3::adl_serializer, std::__ndk1::vector<unsigned char, std::__ndk1::allocator<unsigned char> >, void> const&)::$_4>, float (nlohmann::json_abi_v3_11_3::basic_json<std::__ndk1::map, std::__ndk1::vector, std::__ndk1::basic_string<char, std::__ndk1::char_traits<char>, std::__ndk1::allocator<char> >, bool, long, unsigned long, double, std::__ndk1::allocator, nlohmann::json_abi_v3_11_3::adl_serializer, std::__ndk1::vector<unsigned char, std::__ndk1::allocator<unsigned char> >, void> const&)>::destroy_deallocate()
