MODULE Linux arm64 FA2B2DCDA235C6D5131613B1242EB6500 beat.shipcopter.android64.so
INFO CODE_ID CD2D2BFA35A2D5C6131613B1242EB65033145A1E
INFO GENERATOR mozilla/dump_syms 2.3.4
PUBLIC 2c30 0 __on_dlclose
PUBLIC 2c40 0 __emutls_unregister_key
PUBLIC 2c48 0 __on_dlclose_late
PUBLIC 2c50 0 __atexit_handler_wrapper
PUBLIC 2c64 0 atexit
PUBLIC 2c80 0 pthread_atfork
PUBLIC 2c90 0 __aarch64_ldadd8_relax
PUBLIC 2cc0 0 init_have_lse_atomics
PUBLIC 2d58 0 __init_cpu_features_constructor
PUBLIC 32f4 0 __init_cpu_features
PUBLIC 3380 0 __aarch64_ldadd8_acq_rel
PUBLIC 33b0 0 __cxx_global_var_init
PUBLIC 3f50 0 geode::modifier::ModifyBase<geode::modifier::ModifyDerive<hook7<(anonymous namespace)::hook7Parent>, PlayerObject> >::~ModifyBase()
PUBLIC 3f68 0 geode::modifier::ModifyDerive<hook7<(anonymous namespace)::hook7Parent>, PlayerObject>::apply()
PUBLIC 43d4 0 std::__ndk1::shared_ptr<geode::Hook>::~shared_ptr[abi:ne180000]()
PUBLIC 4424 0 geode::impl::ResultData<geode::Hook*, std::__ndk1::basic_string<char, std::__ndk1::char_traits<char>, std::__ndk1::allocator<char> > >::~ResultData()
PUBLIC 4498 0 std::__ndk1::vector<std::__ndk1::basic_string<char, std::__ndk1::char_traits<char>, std::__ndk1::allocator<char> >, std::__ndk1::allocator<std::__ndk1::basic_string<char, std::__ndk1::char_traits<char>, std::__ndk1::allocator<char> > > >::~vector[abi:ne180000]()
PUBLIC 4514 0 geode::modifier::ModifyBase<geode::modifier::ModifyDerive<hook7<(anonymous namespace)::hook7Parent>, PlayerObject> >::apply()
PUBLIC 4518 0 __clang_call_terminate
PUBLIC 4528 0 _ZN5geode15UnwrapExceptionC2IRPNS_4HookEQsr4implE18IsStringStreamableIT_EEENS_4impl5OkTagEOS5_
PUBLIC 467c 0 std::__ndk1::__throw_bad_variant_access[abi:ne180000]()
PUBLIC 46b0 0 std::__ndk1::basic_stringstream<char, std::__ndk1::char_traits<char>, std::__ndk1::allocator<char> >::basic_stringstream[abi:ne180000]()
PUBLIC m 47dc 0 std::__ndk1::basic_stringstream<char, std::__ndk1::char_traits<char>, std::__ndk1::allocator<char> >::~basic_stringstream()
PUBLIC 485c 0 geode::UnwrapException::~UnwrapException()
PUBLIC 4880 0 std::__ndk1::__put_character_sequence[abi:ne180000]<char, std::__ndk1::char_traits<char> >(std::__ndk1::basic_ostream<char, std::__ndk1::char_traits<char> >, std::__ndk1::basic_ostream const*, unsigned long)
PUBLIC 4a24 0 std::__ndk1::__pad_and_output[abi:ne180000]<char, std::__ndk1::char_traits<char> >(std::__ndk1::char_traits<char>, std::__ndk1::ostreambuf_iterator const*, std::__ndk1::ostreambuf_iterator const, std::__ndk1::ostreambuf_iterator const, std::__ndk1::ios_base&, std::__ndk1::ostreambuf_iterator)
PUBLIC 4c00 0 std::__ndk1::basic_string<char, std::__ndk1::char_traits<char>, std::__ndk1::allocator<char> >::__throw_length_error[abi:ne180000]() const
PUBLIC 4c14 0 std::__ndk1::__throw_length_error[abi:ne180000](char const*)
PUBLIC 4c64 0 std::length_error::length_error[abi:ne180000](char const*)
PUBLIC 4c94 0 std::__throw_bad_array_new_length([abi:ne180000], void)
PUBLIC 4cc8 0 std::__ndk1::basic_stringbuf<char, std::__ndk1::char_traits<char>, std::__ndk1::allocator<char> >::str[abi:ne180000]() &&
PUBLIC 4e40 0 std::__ndk1::basic_stringbuf<char, std::__ndk1::char_traits<char>, std::__ndk1::allocator<char> >::__init_buf_ptrs[abi:ne180000]()
PUBLIC 4f88 0 std::__ndk1::basic_string<char, std::__ndk1::char_traits<char>, std::__ndk1::allocator<char> >::__init_copy_ctor_external(char const*, unsigned long)
PUBLIC 5008 0 std::__ndk1::__split_buffer<std::__ndk1::basic_string<char, std::__ndk1::char_traits<char>, std::__ndk1::allocator<char> >, std::__ndk1::allocator<std::__ndk1::basic_string<char, std::__ndk1::char_traits<char>, std::__ndk1::allocator<char> > >&>::~__split_buffer()
PUBLIC 5070 0 std::__ndk1::vector<std::__ndk1::basic_string<char, std::__ndk1::char_traits<char>, std::__ndk1::allocator<char> >, std::__ndk1::allocator<std::__ndk1::basic_string<char, std::__ndk1::char_traits<char>, std::__ndk1::allocator<char> > > >::__throw_length_error[abi:ne180000]() const
PUBLIC 5084 0 std::__ndk1::__variant_detail::__visitation::__base::__dispatcher<(unsigned long)0>::__dispatch[abi:ne180000]<std::__ndk1::__variant_detail::__dtor<std::__ndk1::__variant_detail::__traits<geode::Hook*, std::__ndk1::basic_string<char, std::__ndk1::char_traits<char>, std::__ndk1::allocator<char> > >, (std::__ndk1::__variant_detail::_Trait)1>::__destroy[abi:ne180000]()::{lambda(auto:1&)#1}, std::__ndk1::__variant_detail::__base<(std::__ndk1::__variant_detail::__traits<geode::Hook*, std::__ndk1::basic_string<char, std::__ndk1::char_traits<char>, std::__ndk1::allocator<char> > >)1, geode::Hook, std::__ndk1::allocator<char> >&>(std::__ndk1::__variant_detail::__dtor<std::__ndk1::__variant_detail::__traits<geode::Hook*, std::__ndk1::basic_string<char, std::__ndk1::char_traits<char>, std::__ndk1::allocator<char> > >, (std::__ndk1::__variant_detail::_Trait)1>, std::__ndk1::__variant_detail::__base<(std::__ndk1::__variant_detail::__traits<geode::Hook*, std::__ndk1::basic_string<char, std::__ndk1::char_traits<char>, std::__ndk1::allocator<char> > >)1, geode::Hook, std::__ndk1::allocator<char> >&)
PUBLIC 5088 0 std::__ndk1::__variant_detail::__visitation::__base::__dispatcher<(unsigned long)1>::__dispatch[abi:ne180000]<std::__ndk1::__variant_detail::__dtor<std::__ndk1::__variant_detail::__traits<geode::Hook*, std::__ndk1::basic_string<char, std::__ndk1::char_traits<char>, std::__ndk1::allocator<char> > >, (std::__ndk1::__variant_detail::_Trait)1>::__destroy[abi:ne180000]()::{lambda(auto:1&)#1}, std::__ndk1::__variant_detail::__base<(std::__ndk1::__variant_detail::__traits<geode::Hook*, std::__ndk1::basic_string<char, std::__ndk1::char_traits<char>, std::__ndk1::allocator<char> > >)1, geode::Hook, std::__ndk1::allocator<char> >&>(std::__ndk1::__variant_detail::__dtor<std::__ndk1::__variant_detail::__traits<geode::Hook*, std::__ndk1::basic_string<char, std::__ndk1::char_traits<char>, std::__ndk1::allocator<char> > >, (std::__ndk1::__variant_detail::_Trait)1>, std::__ndk1::__variant_detail::__base<(std::__ndk1::__variant_detail::__traits<geode::Hook*, std::__ndk1::basic_string<char, std::__ndk1::char_traits<char>, std::__ndk1::allocator<char> > >)1, geode::Hook, std::__ndk1::allocator<char> >&)
PUBLIC 509c 0 std::__ndk1::__tree<std::__ndk1::__value_type<std::__ndk1::basic_string<char, std::__ndk1::char_traits<char>, std::__ndk1::allocator<char> >, std::__ndk1::shared_ptr<geode::Hook> >, std::__ndk1::__map_value_compare<std::__ndk1::basic_string<char, std::__ndk1::char_traits<char>, std::__ndk1::allocator<char> >, std::__ndk1::__value_type<std::__ndk1::basic_string<char, std::__ndk1::char_traits<char>, std::__ndk1::allocator<char> >, std::__ndk1::shared_ptr<geode::Hook> >, std::__ndk1::less<std::__ndk1::basic_string<char, std::__ndk1::char_traits<char>, std::__ndk1::allocator<char> > >, true>, std::__ndk1::allocator<std::__ndk1::__value_type<std::__ndk1::basic_string<char, std::__ndk1::char_traits<char>, std::__ndk1::allocator<char> >, std::__ndk1::shared_ptr<geode::Hook> > > >::destroy(std::__ndk1::__tree_node<std::__ndk1::__value_type<std::__ndk1::basic_string<char, std::__ndk1::char_traits<char>, std::__ndk1::allocator<char> >, std::__ndk1::shared_ptr<geode::Hook> >, void*>*)
PUBLIC 5120 0 geode::Hook::create<bool (*)(hook7<(anonymous namespace)::hook7Parent>*, PlayerButton)>(void*, bool (*)(hook7<(anonymous namespace)::hook7Parent>*, PlayerButton), std::__ndk1::basic_string<char, std::__ndk1::char_traits<char>, std::__ndk1::allocator<char> > const&, tulip::hook::TulipConvention, tulip::hook::HookMetadata const&)
PUBLIC 52a4 0 geode::modifier::AsStaticFunction_pushButton<hook7<(anonymous namespace)::hook7Parent>, bool (hook7<(anonymous namespace)::hook7Parent>::*)(PlayerButton)>::Impl<bool (hook7<(anonymous namespace)::hook7Parent>::*)(PlayerButton)>::function(hook7<(anonymous namespace)::hook7Parent>*, PlayerButton)
PUBLIC 5344 0 geode::modifier::AsStaticFunction_releaseButton<hook7<(anonymous namespace)::hook7Parent>, bool (hook7<(anonymous namespace)::hook7Parent>::*)(PlayerButton)>::Impl<bool (hook7<(anonymous namespace)::hook7Parent>::*)(PlayerButton)>::function(hook7<(anonymous namespace)::hook7Parent>*, PlayerButton)
PUBLIC 53f4 0 std::__ndk1::shared_ptr<tulip::hook::CallingConvention>::~shared_ptr[abi:ne180000]()
PUBLIC 5444 0 tulip::hook::HandlerMetadata::~HandlerMetadata()
PUBLIC 54a8 0 std::__ndk1::__tree<std::__ndk1::__value_type<std::__ndk1::basic_string<char, std::__ndk1::char_traits<char>, std::__ndk1::allocator<char> >, std::__ndk1::shared_ptr<geode::Hook> >, std::__ndk1::__map_value_compare<std::__ndk1::basic_string<char, std::__ndk1::char_traits<char>, std::__ndk1::allocator<char> >, std::__ndk1::__value_type<std::__ndk1::basic_string<char, std::__ndk1::char_traits<char>, std::__ndk1::allocator<char> >, std::__ndk1::shared_ptr<geode::Hook> >, std::__ndk1::less<std::__ndk1::basic_string<char, std::__ndk1::char_traits<char>, std::__ndk1::allocator<char> > >, true>, std::__ndk1::allocator<std::__ndk1::__value_type<std::__ndk1::basic_string<char, std::__ndk1::char_traits<char>, std::__ndk1::allocator<char> >, std::__ndk1::shared_ptr<geode::Hook> > > >::__emplace_unique_key_args<std::__ndk1::basic_string<char, std::__ndk1::char_traits<char>, std::__ndk1::allocator<char> >, std::__ndk1::piecewise_construct_t const&, std::__ndk1::tuple<std::__ndk1::basic_string<char, std::__ndk1::char_traits<char>, std::__ndk1::allocator<char> >&&>, std::__ndk1::tuple<> >(std::__ndk1::basic_string<char, std::__ndk1::char_traits<char>, std::__ndk1::allocator<char> > const&, std::__ndk1::piecewise_construct_t const&, std::__ndk1::tuple<std::__ndk1::basic_string<char, std::__ndk1::char_traits<char>, std::__ndk1::allocator<char> >&&>, std::__ndk1::tuple<>)
PUBLIC 5610 0 std::__ndk1::__tree_balance_after_insert[abi:ne180000]<std::__ndk1::__tree_node_base<void*>*>(std::__ndk1::__tree_node_base<void*>*, std::__ndk1::__tree_node_base<void*>*)
PUBLIC m 57c0 0 geodeImplicitEntry
PUBLIC 5800 0 <.plt ELF section in beat.shipcopter.android64.so>
STACK CFI INIT 2c30 10 .cfa: sp 0 +
STACK CFI INIT 2c40 8 .cfa: sp 0 +
STACK CFI INIT 2c48 8 .cfa: sp 0 +
STACK CFI INIT 2c50 14 .cfa: sp 0 +
STACK CFI INIT 2c64 1c .cfa: sp 0 +
STACK CFI INIT 2c80 10 .cfa: sp 0 +
STACK CFI INIT 2c90 30 .cfa: sp 0 +
STACK CFI INIT 2cc0 98 .cfa: sp 0 +
STACK CFI INIT 2d58 59c .cfa: sp 0 +
STACK CFI INIT 32f4 8c .cfa: sp 0 +
STACK CFI INIT 3380 30 .cfa: sp 0 +
STACK CFI INIT 3f50 18 .cfa: sp 0 +
STACK CFI INIT 43d4 50 .cfa: sp 0 +
STACK CFI 43d8 .cfa: sp 32 +
STACK CFI 43e0 .cfa: x29 32 + x19: .cfa -16 + ^ .ra: .cfa -24 + ^ x29: .cfa -32 + ^
STACK CFI 43f8 .cfa: sp 32 +
STACK CFI 4400 .cfa: sp 0 +
STACK CFI 4404 .cfa: x29 32 +
STACK CFI 4418 .cfa: sp 32 +
STACK CFI 4420 .cfa: sp 0 +
STACK CFI INIT 4498 7c .cfa: sp 0 +
STACK CFI 449c .cfa: sp 48 +
STACK CFI 44a8 .cfa: x29 48 + x19: .cfa -8 + ^ x20: .cfa -16 + ^ x21: .cfa -32 + ^ .ra: .cfa -40 + ^ x29: .cfa -48 + ^
STACK CFI 44f4 .cfa: sp 48 +
STACK CFI 4500 .cfa: sp 0 +
STACK CFI 4504 .cfa: sp 48 +
STACK CFI 4510 .cfa: sp 0 +
STACK CFI INIT 4514 4 .cfa: sp 0 +
STACK CFI INIT 4518 10 .cfa: sp 0 +
STACK CFI 451c .cfa: sp 16 +
STACK CFI 4520 .cfa: x29 16 + .ra: .cfa -8 + ^ x29: .cfa -16 + ^
STACK CFI INIT 467c 34 .cfa: sp 0 +
STACK CFI 4680 .cfa: sp 16 +
STACK CFI 4684 .cfa: x29 16 + .ra: .cfa -8 + ^ x29: .cfa -16 + ^
STACK CFI INIT 47dc 80 .cfa: sp 0 +
STACK CFI 47e0 .cfa: sp 48 +
STACK CFI 47ec .cfa: x29 48 + x19: .cfa -8 + ^ x20: .cfa -16 + ^ x21: .cfa -32 + ^ .ra: .cfa -40 + ^ x29: .cfa -48 + ^
STACK CFI 484c .cfa: sp 48 +
STACK CFI 4858 .cfa: sp 0 +
STACK CFI INIT 485c 24 .cfa: sp 0 +
STACK CFI 4860 .cfa: sp 32 +
STACK CFI 4868 .cfa: x29 32 + x19: .cfa -16 + ^ .ra: .cfa -24 + ^ x29: .cfa -32 + ^
STACK CFI 4874 .cfa: sp 32 +
STACK CFI 487c .cfa: sp 0 +
STACK CFI INIT 4c00 14 .cfa: sp 0 +
STACK CFI 4c04 .cfa: sp 16 +
STACK CFI 4c08 .cfa: x29 16 + .ra: .cfa -8 + ^ x29: .cfa -16 + ^
STACK CFI INIT 4c64 30 .cfa: sp 0 +
STACK CFI 4c68 .cfa: sp 32 +
STACK CFI 4c70 .cfa: x29 32 + x19: .cfa -16 + ^ .ra: .cfa -24 + ^ x29: .cfa -32 + ^
STACK CFI 4c88 .cfa: sp 32 +
STACK CFI 4c90 .cfa: sp 0 +
STACK CFI INIT 4c94 34 .cfa: sp 0 +
STACK CFI 4c98 .cfa: sp 32 +
STACK CFI 4ca0 .cfa: x29 32 + x19: .cfa -16 + ^ .ra: .cfa -24 + ^ x29: .cfa -32 + ^
STACK CFI INIT 4e40 148 .cfa: sp 0 +
STACK CFI 4e44 .cfa: sp 48 +
STACK CFI 4e50 .cfa: x29 48 + x19: .cfa -8 + ^ x20: .cfa -16 + ^ x21: .cfa -32 + ^ .ra: .cfa -40 + ^ x29: .cfa -48 + ^
STACK CFI 4f78 .cfa: sp 48 +
STACK CFI 4f84 .cfa: sp 0 +
STACK CFI INIT 4f88 80 .cfa: sp 0 +
STACK CFI 4f8c .cfa: sp 48 +
STACK CFI 4f98 .cfa: x29 48 + x19: .cfa -8 + ^ x20: .cfa -16 + ^ x21: .cfa -24 + ^ x22: .cfa -32 + ^ .ra: .cfa -40 + ^ x29: .cfa -48 + ^
STACK CFI 4fb0 .cfa: sp 48 +
STACK CFI 4fbc .cfa: sp 0 +
STACK CFI 4fc0 .cfa: x29 48 +
STACK CFI 4ff0 .cfa: sp 48 +
STACK CFI 4ffc .cfa: sp 0 +
STACK CFI 5000 .cfa: x29 48 +
STACK CFI INIT 5008 68 .cfa: sp 0 +
STACK CFI 500c .cfa: sp 32 +
STACK CFI 5014 .cfa: x29 32 + x19: .cfa -8 + ^ x20: .cfa -16 + ^ .ra: .cfa -24 + ^ x29: .cfa -32 + ^
STACK CFI 502c .cfa: sp 32 +
STACK CFI 5034 .cfa: sp 0 +
STACK CFI 5038 .cfa: x29 32 +
STACK CFI 5064 .cfa: sp 32 +
STACK CFI 506c .cfa: sp 0 +
STACK CFI INIT 5070 14 .cfa: sp 0 +
STACK CFI 5074 .cfa: sp 16 +
STACK CFI 5078 .cfa: x29 16 + .ra: .cfa -8 + ^ x29: .cfa -16 + ^
STACK CFI INIT 5084 4 .cfa: sp 0 +
STACK CFI INIT 5088 14 .cfa: sp 0 +
STACK CFI INIT 509c 84 .cfa: sp 0 +
STACK CFI 50a4 .cfa: sp 32 +
STACK CFI 50ac .cfa: x29 32 + x19: .cfa -8 + ^ x20: .cfa -16 + ^ .ra: .cfa -24 + ^ x29: .cfa -32 + ^
STACK CFI 50ec .cfa: sp 32 +
STACK CFI 50f4 .cfa: sp 0 +
STACK CFI 50fc .cfa: x29 32 +
STACK CFI INIT 52a4 a0 .cfa: sp 0 +
STACK CFI 52a8 .cfa: sp 32 +
STACK CFI 52b0 .cfa: x29 32 + x19: .cfa -8 + ^ x20: .cfa -16 + ^ .ra: .cfa -24 + ^ x29: .cfa -32 + ^
STACK CFI 5324 .cfa: sp 32 +
STACK CFI 532c .cfa: sp 0 +
STACK CFI 5330 .cfa: x29 32 +
STACK CFI 5338 .cfa: sp 32 +
STACK CFI 5340 .cfa: sp 0 +
STACK CFI INIT 5344 b0 .cfa: sp 0 +
STACK CFI 5348 .cfa: sp 32 +
STACK CFI 5350 .cfa: x29 32 + x19: .cfa -8 + ^ x20: .cfa -16 + ^ .ra: .cfa -24 + ^ x29: .cfa -32 + ^
STACK CFI 53d4 .cfa: sp 32 +
STACK CFI 53dc .cfa: sp 0 +
STACK CFI 53e0 .cfa: x29 32 +
STACK CFI 53e8 .cfa: sp 32 +
STACK CFI 53f0 .cfa: sp 0 +
STACK CFI INIT 53f4 50 .cfa: sp 0 +
STACK CFI 53f8 .cfa: sp 32 +
STACK CFI 5400 .cfa: x29 32 + x19: .cfa -16 + ^ .ra: .cfa -24 + ^ x29: .cfa -32 + ^
STACK CFI 5418 .cfa: sp 32 +
STACK CFI 5420 .cfa: sp 0 +
STACK CFI 5424 .cfa: x29 32 +
STACK CFI 5438 .cfa: sp 32 +
STACK CFI 5440 .cfa: sp 0 +
STACK CFI INIT 5444 64 .cfa: sp 0 +
STACK CFI 5448 .cfa: sp 32 +
STACK CFI 5450 .cfa: x29 32 + x19: .cfa -16 + ^ .ra: .cfa -24 + ^ x29: .cfa -32 + ^
STACK CFI 547c .cfa: sp 32 +
STACK CFI 5484 .cfa: sp 0 +
STACK CFI 5488 .cfa: x29 32 +
STACK CFI 549c .cfa: sp 32 +
STACK CFI 54a4 .cfa: sp 0 +
STACK CFI INIT 54a8 168 .cfa: sp 0 +
STACK CFI 54ac .cfa: sp 80 +
STACK CFI 54c0 .cfa: x29 80 + x19: .cfa -8 + ^ x20: .cfa -16 + ^ x21: .cfa -24 + ^ x22: .cfa -32 + ^ x23: .cfa -40 + ^ x24: .cfa -48 + ^ x25: .cfa -56 + ^ x26: .cfa -64 + ^ .ra: .cfa -72 + ^ x29: .cfa -80 + ^
STACK CFI 55f8 .cfa: sp 80 +
STACK CFI 560c .cfa: sp 0 +
STACK CFI INIT 5610 1b0 .cfa: sp 0 +
STACK CFI INIT 57c0 3c .cfa: sp 0 +
STACK CFI 57c4 .cfa: sp 32 +
STACK CFI 57cc .cfa: x29 32 + x19: .cfa -16 + ^ .ra: .cfa -24 + ^ x29: .cfa -32 + ^
STACK CFI 57d8 .cfa: sp 32 +
STACK CFI 57e0 .cfa: sp 0 +
STACK CFI 57e4 .cfa: x29 32 +
STACK CFI 57f0 .cfa: sp 32 +
STACK CFI 57f8 .cfa: sp 0 +
STACK CFI INIT 33b0 ba0 .cfa: sp 0 +
STACK CFI 33b4 .cfa: sp 240 +
STACK CFI 33d0 .cfa: x29 96 + x19: .cfa -8 + ^ x20: .cfa -16 + ^ x21: .cfa -24 + ^ x22: .cfa -32 + ^ x23: .cfa -40 + ^ x24: .cfa -48 + ^ x25: .cfa -56 + ^ x26: .cfa -64 + ^ x27: .cfa -72 + ^ x28: .cfa -80 + ^ .ra: .cfa -88 + ^ x29: .cfa -96 + ^
STACK CFI 3df8 .cfa: sp 240 +
STACK CFI 3e14 .cfa: sp 0 +
STACK CFI 3e18 .cfa: x29 96 +
STACK CFI INIT 3f68 46c .cfa: sp 0 +
STACK CFI 3f6c .cfa: sp 176 +
STACK CFI 3f80 .cfa: x29 64 + x19: .cfa -8 + ^ x20: .cfa -16 + ^ x21: .cfa -24 + ^ x22: .cfa -32 + ^ x23: .cfa -40 + ^ x24: .cfa -48 + ^ .ra: .cfa -56 + ^ x29: .cfa -64 + ^
STACK CFI 4280 .cfa: sp 176 +
STACK CFI 4294 .cfa: sp 0 +
STACK CFI 4298 .cfa: x29 64 +
STACK CFI INIT 4424 74 .cfa: sp 0 +
STACK CFI 4428 .cfa: sp 48 +
STACK CFI 4434 .cfa: x29 32 + x19: .cfa -8 + ^ x20: .cfa -16 + ^ .ra: .cfa -24 + ^ x29: .cfa -32 + ^
STACK CFI 4480 .cfa: sp 48 +
STACK CFI 448c .cfa: sp 0 +
STACK CFI 4490 .cfa: x29 32 +
STACK CFI INIT 4528 154 .cfa: sp 0 +
STACK CFI 452c .cfa: sp 384 +
STACK CFI 4540 .cfa: x29 64 + x19: .cfa -8 + ^ x20: .cfa -16 + ^ x21: .cfa -24 + ^ x22: .cfa -32 + ^ x23: .cfa -40 + ^ x28: .cfa -48 + ^ .ra: .cfa -56 + ^ x29: .cfa -64 + ^
STACK CFI 4624 .cfa: sp 384 +
STACK CFI 4638 .cfa: sp 0 +
STACK CFI 463c .cfa: x29 64 +
STACK CFI INIT 46b0 12c .cfa: sp 0 +
STACK CFI 46b4 .cfa: sp 80 +
STACK CFI 46c8 .cfa: x29 80 + x19: .cfa -8 + ^ x20: .cfa -16 + ^ x21: .cfa -24 + ^ x22: .cfa -32 + ^ x23: .cfa -40 + ^ x24: .cfa -48 + ^ x25: .cfa -56 + ^ x26: .cfa -64 + ^ .ra: .cfa -72 + ^ x29: .cfa -80 + ^
STACK CFI 4790 .cfa: sp 80 +
STACK CFI 47a4 .cfa: sp 0 +
STACK CFI 47a8 .cfa: x29 80 +
STACK CFI INIT 4880 1a4 .cfa: sp 0 +
STACK CFI 4884 .cfa: sp 112 +
STACK CFI 489c .cfa: x29 80 + x19: .cfa -8 + ^ x20: .cfa -16 + ^ x21: .cfa -24 + ^ x22: .cfa -32 + ^ x23: .cfa -40 + ^ x24: .cfa -48 + ^ x25: .cfa -56 + ^ x26: .cfa -64 + ^ .ra: .cfa -72 + ^ x29: .cfa -80 + ^
STACK CFI 498c .cfa: sp 112 +
STACK CFI 49a4 .cfa: sp 0 +
STACK CFI 49a8 .cfa: x29 80 +
STACK CFI INIT 4a24 1dc .cfa: sp 0 +
STACK CFI 4a28 .cfa: sp 128 +
STACK CFI 4a44 .cfa: x29 96 + x19: .cfa -8 + ^ x20: .cfa -16 + ^ x21: .cfa -24 + ^ x22: .cfa -32 + ^ x23: .cfa -40 + ^ x24: .cfa -48 + ^ x25: .cfa -56 + ^ x26: .cfa -64 + ^ x27: .cfa -80 + ^ .ra: .cfa -88 + ^ x29: .cfa -96 + ^
STACK CFI 4bb0 .cfa: sp 128 +
STACK CFI 4bcc .cfa: sp 0 +
STACK CFI 4bd0 .cfa: x29 96 +
STACK CFI INIT 4c14 50 .cfa: sp 0 +
STACK CFI 4c18 .cfa: sp 32 +
STACK CFI 4c20 .cfa: x29 32 + x19: .cfa -8 + ^ x20: .cfa -16 + ^ .ra: .cfa -24 + ^ x29: .cfa -32 + ^
STACK CFI INIT 4cc8 178 .cfa: sp 0 +
STACK CFI 4ccc .cfa: sp 80 +
STACK CFI 4ce0 .cfa: x29 80 + x19: .cfa -8 + ^ x20: .cfa -16 + ^ x21: .cfa -24 + ^ x22: .cfa -32 + ^ x23: .cfa -40 + ^ x24: .cfa -48 + ^ x25: .cfa -64 + ^ .ra: .cfa -72 + ^ x29: .cfa -80 + ^
STACK CFI 4e0c .cfa: sp 80 +
STACK CFI 4e20 .cfa: sp 0 +
STACK CFI 4e24 .cfa: x29 80 +
STACK CFI INIT 5120 184 .cfa: sp 0 +
STACK CFI 5124 .cfa: sp 144 +
STACK CFI 513c .cfa: x29 80 + x19: .cfa -8 + ^ x20: .cfa -16 + ^ x21: .cfa -24 + ^ x22: .cfa -32 + ^ x23: .cfa -40 + ^ x24: .cfa -48 + ^ x25: .cfa -56 + ^ x26: .cfa -64 + ^ .ra: .cfa -72 + ^ x29: .cfa -80 + ^
STACK CFI 523c .cfa: sp 144 +
STACK CFI 5254 .cfa: sp 0 +
STACK CFI 5258 .cfa: x29 80 +
