MODULE Linux arm64 9782C27A753C8E62EF16FAA8E48474740 raydeeux.revisedlevelcells.android64.so
INFO CODE_ID 7AC282973C75628EEF16FAA8E4847474CF5BF0C3
INFO GENERATOR mozilla/dump_syms 2.3.4
PUBLIC 17390 0 __on_dlclose
PUBLIC 173a0 0 __emutls_unregister_key
PUBLIC 173a8 0 __on_dlclose_late
PUBLIC 173b0 0 __atexit_handler_wrapper
PUBLIC 173c4 0 atexit
PUBLIC 173e0 0 pthread_atfork
PUBLIC 173f0 0 unwind_phase2
PUBLIC 17524 0 _Unwind_Resume
PUBLIC 175a8 0 unwind_phase2_forced
PUBLIC m 1769c 0 __unw_init_local
PUBLIC m 17744 0 __unw_get_reg
PUBLIC 177c0 0 __unw_step_stage2
PUBLIC m 177d4 0 __unw_get_proc_info
PUBLIC m 17814 0 __unw_resume
PUBLIC 1783c 0 libunwind::CFI_Parser<libunwind::LocalAddressSpace>::decodeFDE(libunwind::LocalAddressSpace&, unsigned long, libunwind::CFI_Parser<libunwind::LocalAddressSpace>::FDE_Info*, libunwind::CFI_Parser<libunwind::LocalAddressSpace>::CIE_Info*, bool)
PUBLIC 179cc 0 libunwind::CFI_Parser<libunwind::LocalAddressSpace>::parseCIE(libunwind::LocalAddressSpace&, unsigned long, libunwind::CFI_Parser<libunwind::LocalAddressSpace>::CIE_Info*)
PUBLIC 17c94 0 libunwind::AbstractUnwindCursor::~AbstractUnwindCursor()
PUBLIC 17c9c 0 libunwind::UnwindCursor<libunwind::LocalAddressSpace, libunwind::Registers_arm64>::~UnwindCursor()
PUBLIC 17ca4 0 libunwind::UnwindCursor<libunwind::LocalAddressSpace, libunwind::Registers_arm64>::validReg(int)
PUBLIC 17ce8 0 libunwind::UnwindCursor<libunwind::LocalAddressSpace, libunwind::Registers_arm64>::getReg(int)
PUBLIC 17dd0 0 libunwind::UnwindCursor<libunwind::LocalAddressSpace, libunwind::Registers_arm64>::setReg(int, unsigned long)
PUBLIC 17eb8 0 libunwind::UnwindCursor<libunwind::LocalAddressSpace, libunwind::Registers_arm64>::validFloatReg(int)
PUBLIC 17ecc 0 libunwind::UnwindCursor<libunwind::LocalAddressSpace, libunwind::Registers_arm64>::getFloatReg(int)
PUBLIC 17edc 0 libunwind::UnwindCursor<libunwind::LocalAddressSpace, libunwind::Registers_arm64>::setFloatReg(int, double)
PUBLIC 17eec 0 libunwind::UnwindCursor<libunwind::LocalAddressSpace, libunwind::Registers_arm64>::step(bool)
PUBLIC 17fdc 0 libunwind::UnwindCursor<libunwind::LocalAddressSpace, libunwind::Registers_arm64>::getInfo(unw_proc_info_t*)
PUBLIC 18020 0 libunwind::UnwindCursor<libunwind::LocalAddressSpace, libunwind::Registers_arm64>::jumpto()
PUBLIC 1802c 0 libunwind::UnwindCursor<libunwind::LocalAddressSpace, libunwind::Registers_arm64>::isSignalFrame()
PUBLIC 18038 0 libunwind::UnwindCursor<libunwind::LocalAddressSpace, libunwind::Registers_arm64>::getFunctionName(char*, unsigned long, unsigned long*)
PUBLIC 18064 0 libunwind::UnwindCursor<libunwind::LocalAddressSpace, libunwind::Registers_arm64>::setInfoBasedOnIPRegister(bool)
PUBLIC 182e4 0 libunwind::UnwindCursor<libunwind::LocalAddressSpace, libunwind::Registers_arm64>::getRegisterName(int)
PUBLIC 182f0 0 libunwind::UnwindCursor<libunwind::LocalAddressSpace, libunwind::Registers_arm64>::stepThroughSigReturn(libunwind::Registers_arm64&)
PUBLIC 18410 0 libunwind::DwarfInstructions<libunwind::LocalAddressSpace, libunwind::Registers_arm64>::stepWithDwarf(libunwind::LocalAddressSpace&, unsigned long, unsigned long, libunwind::Registers_arm64&, bool&, bool)
PUBLIC 18898 0 libunwind::CFI_Parser<libunwind::LocalAddressSpace>::parseFDEInstructions(libunwind::LocalAddressSpace&, libunwind::CFI_Parser<libunwind::LocalAddressSpace>::FDE_Info const&, libunwind::CFI_Parser<libunwind::LocalAddressSpace>::CIE_Info const&, unsigned long, int, libunwind::CFI_Parser<libunwind::LocalAddressSpace>::PrologInfo*)
PUBLIC 194e0 0 libunwind::DwarfInstructions<libunwind::LocalAddressSpace, libunwind::Registers_arm64>::getCFA(libunwind::LocalAddressSpace&, libunwind::CFI_Parser<libunwind::LocalAddressSpace>::PrologInfo const&, libunwind::Registers_arm64 const&)
PUBLIC 19614 0 libunwind::DwarfInstructions<libunwind::LocalAddressSpace, libunwind::Registers_arm64>::getSavedRegister(libunwind::LocalAddressSpace&, libunwind::Registers_arm64 const&, unsigned long, libunwind::CFI_Parser<libunwind::LocalAddressSpace>::RegisterLocation const&)
PUBLIC 19824 0 libunwind::LocalAddressSpace::getEncodedP(unsigned long&, unsigned long, unsigned char, unsigned long)
PUBLIC 19bb0 0 libunwind::LocalAddressSpace::getULEB128(unsigned long&, unsigned long)
PUBLIC 19d78 0 libunwind::DwarfInstructions<libunwind::LocalAddressSpace, libunwind::Registers_arm64>::evaluateExpression(unsigned long, libunwind::LocalAddressSpace&, libunwind::Registers_arm64 const&, unsigned long)
PUBLIC 1a734 0 libunwind::UnwindCursor<libunwind::LocalAddressSpace, libunwind::Registers_arm64>::getInfoFromDwarfSection(unsigned long, libunwind::UnwindInfoSections const&, unsigned int)
PUBLIC 1aa08 0 libunwind::findUnwindSectionsByPhdr(dl_phdr_info*, unsigned long, void*)
PUBLIC 1ab3c 0 libunwind::EHHeaderParser<libunwind::LocalAddressSpace>::decodeEHHdr(libunwind::LocalAddressSpace&, unsigned long, unsigned long, libunwind::EHHeaderParser<libunwind::LocalAddressSpace>::EHHeaderInfo&)
PUBLIC 1ac5c 0 libunwind::CFI_Parser<libunwind::LocalAddressSpace>::findFDE(libunwind::LocalAddressSpace&, unsigned long, unsigned long, unsigned long, unsigned long, libunwind::CFI_Parser<libunwind::LocalAddressSpace>::FDE_Info*, libunwind::CFI_Parser<libunwind::LocalAddressSpace>::CIE_Info*)
PUBLIC 1ae24 0 libunwind::EHHeaderParser<libunwind::LocalAddressSpace>::findFDE(libunwind::LocalAddressSpace&, unsigned long, unsigned long, unsigned int, libunwind::CFI_Parser<libunwind::LocalAddressSpace>::FDE_Info*, libunwind::CFI_Parser<libunwind::LocalAddressSpace>::CIE_Info*)
PUBLIC 1af8c 0 libunwind::EHHeaderParser<libunwind::LocalAddressSpace>::getTableEntrySize(unsigned char)
PUBLIC 1b088 0 libunwind::Registers_arm64::getRegisterName(int)
PUBLIC 1b0b8 0 __libunwind_Registers_arm64_jumpto
PUBLIC m 1b148 0 __unw_getcontext
PUBLIC 1b1f0 0 __aarch64_ldadd8_relax
PUBLIC 1b220 0 init_have_lse_atomics
PUBLIC 1b2b8 0 __init_cpu_features_constructor
PUBLIC 1b854 0 __init_cpu_features
PUBLIC 1b8e0 0 __aarch64_ldadd8_acq_rel
PUBLIC 1b910 0 __cxx_global_var_init
PUBLIC 1bd90 0 geode::modifier::ModifyBase<geode::modifier::ModifyDerive<MyCustomListView, CustomListView> >::~ModifyBase()
PUBLIC 1bdac 0 geode::modifier::ModifyDerive<MyCustomListView, CustomListView>::apply()
PUBLIC 1c1ac 0 std::__ndk1::shared_ptr<geode::Hook>::~shared_ptr[abi:ne180000]()
PUBLIC 1c1fc 0 geode::impl::ResultData<geode::Hook*, std::__ndk1::basic_string<char, std::__ndk1::char_traits<char>, std::__ndk1::allocator<char> > >::~ResultData()
PUBLIC 1c270 0 std::__ndk1::vector<std::__ndk1::basic_string<char, std::__ndk1::char_traits<char>, std::__ndk1::allocator<char> >, std::__ndk1::allocator<std::__ndk1::basic_string<char, std::__ndk1::char_traits<char>, std::__ndk1::allocator<char> > > >::~vector[abi:ne180000]()
PUBLIC 1c2ec 0 geode::modifier::ModifyBase<geode::modifier::ModifyDerive<MyCustomListView, CustomListView> >::apply()
PUBLIC 1c2f0 0 __clang_call_terminate
PUBLIC 1c300 0 _ZN5geode15UnwrapExceptionC2IRPNS_4HookEQsr4implE18IsStringStreamableIT_EEENS_4impl5OkTagEOS5_
PUBLIC 1c454 0 std::__ndk1::__throw_bad_variant_access[abi:ne180000]()
PUBLIC 1c488 0 std::__ndk1::basic_stringstream<char, std::__ndk1::char_traits<char>, std::__ndk1::allocator<char> >::basic_stringstream[abi:ne180000]()
PUBLIC m 1c5b4 0 std::__ndk1::basic_stringstream<char, std::__ndk1::char_traits<char>, std::__ndk1::allocator<char> >::~basic_stringstream()
PUBLIC 1c634 0 geode::UnwrapException::~UnwrapException()
PUBLIC 1c658 0 std::__ndk1::__put_character_sequence[abi:ne180000]<char, std::__ndk1::char_traits<char> >(std::__ndk1::basic_ostream<char, std::__ndk1::char_traits<char> >, std::__ndk1::basic_ostream const*, unsigned long)
PUBLIC 1c7fc 0 std::__ndk1::__pad_and_output[abi:ne180000]<char, std::__ndk1::char_traits<char> >(std::__ndk1::char_traits<char>, std::__ndk1::ostreambuf_iterator const*, std::__ndk1::ostreambuf_iterator const, std::__ndk1::ostreambuf_iterator const, std::__ndk1::ios_base&, std::__ndk1::ostreambuf_iterator)
PUBLIC 1c9d8 0 std::__ndk1::basic_string<char, std::__ndk1::char_traits<char>, std::__ndk1::allocator<char> >::__throw_length_error[abi:ne180000]() const
PUBLIC 1c9ec 0 std::__ndk1::__throw_length_error[abi:ne180000](char const*)
PUBLIC 1ca3c 0 std::length_error::length_error[abi:ne180000](char const*)
PUBLIC 1ca6c 0 std::__throw_bad_array_new_length([abi:ne180000], void)
PUBLIC 1caa0 0 std::__ndk1::basic_stringbuf<char, std::__ndk1::char_traits<char>, std::__ndk1::allocator<char> >::str[abi:ne180000]() &&
PUBLIC 1cc18 0 std::__ndk1::basic_stringbuf<char, std::__ndk1::char_traits<char>, std::__ndk1::allocator<char> >::__init_buf_ptrs[abi:ne180000]()
PUBLIC 1cd60 0 std::__ndk1::vector<std::__ndk1::basic_string<char, std::__ndk1::char_traits<char>, std::__ndk1::allocator<char> >, std::__ndk1::allocator<std::__ndk1::basic_string<char, std::__ndk1::char_traits<char>, std::__ndk1::allocator<char> > > >::__push_back_slow_path<std::__ndk1::basic_string<char, std::__ndk1::char_traits<char>, std::__ndk1::allocator<char> > const&>(std::__ndk1::basic_string<char, std::__ndk1::char_traits<char>, std::__ndk1::allocator<char> > const&)
PUBLIC 1cf88 0 std::__ndk1::basic_string<char, std::__ndk1::char_traits<char>, std::__ndk1::allocator<char> >::__init_copy_ctor_external(char const*, unsigned long)
PUBLIC 1d008 0 std::__ndk1::__split_buffer<std::__ndk1::basic_string<char, std::__ndk1::char_traits<char>, std::__ndk1::allocator<char> >, std::__ndk1::allocator<std::__ndk1::basic_string<char, std::__ndk1::char_traits<char>, std::__ndk1::allocator<char> > >&>::~__split_buffer()
PUBLIC 1d070 0 std::__ndk1::vector<std::__ndk1::basic_string<char, std::__ndk1::char_traits<char>, std::__ndk1::allocator<char> >, std::__ndk1::allocator<std::__ndk1::basic_string<char, std::__ndk1::char_traits<char>, std::__ndk1::allocator<char> > > >::__throw_length_error[abi:ne180000]() const
PUBLIC 1d084 0 std::__ndk1::__variant_detail::__visitation::__base::__dispatcher<(unsigned long)0>::__dispatch[abi:ne180000]<std::__ndk1::__variant_detail::__dtor<std::__ndk1::__variant_detail::__traits<geode::Hook*, std::__ndk1::basic_string<char, std::__ndk1::char_traits<char>, std::__ndk1::allocator<char> > >, (std::__ndk1::__variant_detail::_Trait)1>::__destroy[abi:ne180000]()::{lambda(auto:1&)#1}, std::__ndk1::__variant_detail::__base<(std::__ndk1::__variant_detail::__traits<geode::Hook*, std::__ndk1::basic_string<char, std::__ndk1::char_traits<char>, std::__ndk1::allocator<char> > >)1, geode::Hook, std::__ndk1::allocator<char> >&>(std::__ndk1::__variant_detail::__dtor<std::__ndk1::__variant_detail::__traits<geode::Hook*, std::__ndk1::basic_string<char, std::__ndk1::char_traits<char>, std::__ndk1::allocator<char> > >, (std::__ndk1::__variant_detail::_Trait)1>, std::__ndk1::__variant_detail::__base<(std::__ndk1::__variant_detail::__traits<geode::Hook*, std::__ndk1::basic_string<char, std::__ndk1::char_traits<char>, std::__ndk1::allocator<char> > >)1, geode::Hook, std::__ndk1::allocator<char> >&)
PUBLIC 1d088 0 std::__ndk1::__variant_detail::__visitation::__base::__dispatcher<(unsigned long)1>::__dispatch[abi:ne180000]<std::__ndk1::__variant_detail::__dtor<std::__ndk1::__variant_detail::__traits<geode::Hook*, std::__ndk1::basic_string<char, std::__ndk1::char_traits<char>, std::__ndk1::allocator<char> > >, (std::__ndk1::__variant_detail::_Trait)1>::__destroy[abi:ne180000]()::{lambda(auto:1&)#1}, std::__ndk1::__variant_detail::__base<(std::__ndk1::__variant_detail::__traits<geode::Hook*, std::__ndk1::basic_string<char, std::__ndk1::char_traits<char>, std::__ndk1::allocator<char> > >)1, geode::Hook, std::__ndk1::allocator<char> >&>(std::__ndk1::__variant_detail::__dtor<std::__ndk1::__variant_detail::__traits<geode::Hook*, std::__ndk1::basic_string<char, std::__ndk1::char_traits<char>, std::__ndk1::allocator<char> > >, (std::__ndk1::__variant_detail::_Trait)1>, std::__ndk1::__variant_detail::__base<(std::__ndk1::__variant_detail::__traits<geode::Hook*, std::__ndk1::basic_string<char, std::__ndk1::char_traits<char>, std::__ndk1::allocator<char> > >)1, geode::Hook, std::__ndk1::allocator<char> >&)
PUBLIC 1d09c 0 std::__ndk1::__tree<std::__ndk1::__value_type<std::__ndk1::basic_string<char, std::__ndk1::char_traits<char>, std::__ndk1::allocator<char> >, std::__ndk1::shared_ptr<geode::Hook> >, std::__ndk1::__map_value_compare<std::__ndk1::basic_string<char, std::__ndk1::char_traits<char>, std::__ndk1::allocator<char> >, std::__ndk1::__value_type<std::__ndk1::basic_string<char, std::__ndk1::char_traits<char>, std::__ndk1::allocator<char> >, std::__ndk1::shared_ptr<geode::Hook> >, std::__ndk1::less<std::__ndk1::basic_string<char, std::__ndk1::char_traits<char>, std::__ndk1::allocator<char> > >, true>, std::__ndk1::allocator<std::__ndk1::__value_type<std::__ndk1::basic_string<char, std::__ndk1::char_traits<char>, std::__ndk1::allocator<char> >, std::__ndk1::shared_ptr<geode::Hook> > > >::find<std::__ndk1::basic_string<char, std::__ndk1::char_traits<char>, std::__ndk1::allocator<char> > >(std::__ndk1::basic_string<char, std::__ndk1::char_traits<char>, std::__ndk1::allocator<char> > const&)
PUBLIC 1d1bc 0 std::__ndk1::__tree<std::__ndk1::__value_type<std::__ndk1::basic_string<char, std::__ndk1::char_traits<char>, std::__ndk1::allocator<char> >, std::__ndk1::shared_ptr<geode::Hook> >, std::__ndk1::__map_value_compare<std::__ndk1::basic_string<char, std::__ndk1::char_traits<char>, std::__ndk1::allocator<char> >, std::__ndk1::__value_type<std::__ndk1::basic_string<char, std::__ndk1::char_traits<char>, std::__ndk1::allocator<char> >, std::__ndk1::shared_ptr<geode::Hook> >, std::__ndk1::less<std::__ndk1::basic_string<char, std::__ndk1::char_traits<char>, std::__ndk1::allocator<char> > >, true>, std::__ndk1::allocator<std::__ndk1::__value_type<std::__ndk1::basic_string<char, std::__ndk1::char_traits<char>, std::__ndk1::allocator<char> >, std::__ndk1::shared_ptr<geode::Hook> > > >::erase(std::__ndk1::__tree_const_iterator<std::__ndk1::__value_type<std::__ndk1::basic_string<char, std::__ndk1::char_traits<char>, std::__ndk1::allocator<char> >, std::__ndk1::shared_ptr<geode::Hook> >, std::__ndk1::__tree_node<std::__ndk1::__value_type<std::__ndk1::basic_string<char, std::__ndk1::char_traits<char>, std::__ndk1::allocator<char> >, std::__ndk1::shared_ptr<geode::Hook> >, void*>*, long>)
PUBLIC 1d290 0 std::__ndk1::__tree_remove[abi:ne180000]<std::__ndk1::__tree_node_base<void*>*>(std::__ndk1::__tree_node_base<void*>*, std::__ndk1::__tree_node_base<void*>*)
PUBLIC 1d658 0 std::__ndk1::__tree<std::__ndk1::__value_type<std::__ndk1::basic_string<char, std::__ndk1::char_traits<char>, std::__ndk1::allocator<char> >, std::__ndk1::shared_ptr<geode::Hook> >, std::__ndk1::__map_value_compare<std::__ndk1::basic_string<char, std::__ndk1::char_traits<char>, std::__ndk1::allocator<char> >, std::__ndk1::__value_type<std::__ndk1::basic_string<char, std::__ndk1::char_traits<char>, std::__ndk1::allocator<char> >, std::__ndk1::shared_ptr<geode::Hook> >, std::__ndk1::less<std::__ndk1::basic_string<char, std::__ndk1::char_traits<char>, std::__ndk1::allocator<char> > >, true>, std::__ndk1::allocator<std::__ndk1::__value_type<std::__ndk1::basic_string<char, std::__ndk1::char_traits<char>, std::__ndk1::allocator<char> >, std::__ndk1::shared_ptr<geode::Hook> > > >::destroy(std::__ndk1::__tree_node<std::__ndk1::__value_type<std::__ndk1::basic_string<char, std::__ndk1::char_traits<char>, std::__ndk1::allocator<char> >, std::__ndk1::shared_ptr<geode::Hook> >, void*>*)
PUBLIC 1d6e4 0 geode::modifier::AsStaticFunction_create<MyCustomListView, CustomListView* (*)(cocos2d::CCArray*, TableViewCellDelegate*, float, float, int, BoomListType, float)>::Impl<CustomListView* (*)(cocos2d::CCArray*, TableViewCellDelegate*, float, float, int, BoomListType, float)>::function(cocos2d::CCArray*, TableViewCellDelegate*, float, float, int, BoomListType, float)
PUBLIC 1d830 0 std::__ndk1::shared_ptr<tulip::hook::CallingConvention>::~shared_ptr[abi:ne180000]()
PUBLIC 1d880 0 tulip::hook::HandlerMetadata::~HandlerMetadata()
PUBLIC 1d8e4 0 std::__ndk1::vector<tulip::hook::AbstractType, std::__ndk1::allocator<tulip::hook::AbstractType> >::__throw_length_error[abi:ne180000]() const
PUBLIC 1d8f8 0 std::__ndk1::__tree<std::__ndk1::__value_type<std::__ndk1::basic_string<char, std::__ndk1::char_traits<char>, std::__ndk1::allocator<char> >, std::__ndk1::shared_ptr<geode::Hook> >, std::__ndk1::__map_value_compare<std::__ndk1::basic_string<char, std::__ndk1::char_traits<char>, std::__ndk1::allocator<char> >, std::__ndk1::__value_type<std::__ndk1::basic_string<char, std::__ndk1::char_traits<char>, std::__ndk1::allocator<char> >, std::__ndk1::shared_ptr<geode::Hook> >, std::__ndk1::less<std::__ndk1::basic_string<char, std::__ndk1::char_traits<char>, std::__ndk1::allocator<char> > >, true>, std::__ndk1::allocator<std::__ndk1::__value_type<std::__ndk1::basic_string<char, std::__ndk1::char_traits<char>, std::__ndk1::allocator<char> >, std::__ndk1::shared_ptr<geode::Hook> > > >::__emplace_unique_key_args<std::__ndk1::basic_string<char, std::__ndk1::char_traits<char>, std::__ndk1::allocator<char> >, std::__ndk1::piecewise_construct_t const&, std::__ndk1::tuple<std::__ndk1::basic_string<char, std::__ndk1::char_traits<char>, std::__ndk1::allocator<char> >&&>, std::__ndk1::tuple<> >(std::__ndk1::basic_string<char, std::__ndk1::char_traits<char>, std::__ndk1::allocator<char> > const&, std::__ndk1::piecewise_construct_t const&, std::__ndk1::tuple<std::__ndk1::basic_string<char, std::__ndk1::char_traits<char>, std::__ndk1::allocator<char> >&&>, std::__ndk1::tuple<>)
PUBLIC 1da70 0 std::__ndk1::__tree_balance_after_insert[abi:ne180000]<std::__ndk1::__tree_node_base<void*>*>(std::__ndk1::__tree_node_base<void*>*, std::__ndk1::__tree_node_base<void*>*)
PUBLIC 1dc20 0 __cxx_global_var_init
PUBLIC 1e190 0 geode::modifier::ModifyBase<geode::modifier::ModifyDerive<MyLevelCell, LevelCell> >::~ModifyBase()
PUBLIC 1e1ac 0 geode::modifier::ModifyDerive<MyLevelCell, LevelCell>::apply()
PUBLIC 1ede8 0 geode::modifier::ModifyBase<geode::modifier::ModifyDerive<MyLevelCell, LevelCell> >::apply()
PUBLIC 1edec 0 geode::modifier::ModifyBase<geode::modifier::ModifyDerive<MyLevelCell, LevelCell> >::setHookPriority(std::__ndk1::basic_string_view<char, std::__ndk1::char_traits<char> >, int)
PUBLIC 1f174 0 std::__ndk1::basic_string<char, std::__ndk1::char_traits<char>, std::__ndk1::allocator<char> >::basic_string[abi:ne180000]<0>()
PUBLIC 1f210 0 std::__ndk1::unique_ptr<std::__ndk1::__tree_node<std::__ndk1::__value_type<std::__ndk1::basic_string<char, std::__ndk1::char_traits<char>, std::__ndk1::allocator<char> >, std::__ndk1::shared_ptr<geode::Hook> >, void*>, std::__ndk1::__tree_node_destructor<std::__ndk1::allocator<std::__ndk1::__tree_node<std::__ndk1::__value_type<std::__ndk1::basic_string<char, std::__ndk1::char_traits<char>, std::__ndk1::allocator<char> >, std::__ndk1::shared_ptr<geode::Hook> >, void*> > > >::~unique_ptr[abi:ne180000]()
PUBLIC 1f28c 0 _ZN5geode15UnwrapExceptionC2IRNSt6__ndk112basic_stringIcNS2_11char_traitsIcEENS2_9allocatorIcEEEEQsr4implE18IsStringStreamableIT_EEENS_4impl6ErrTagEOSA_
PUBLIC 1f3f4 0 std::__ndk1::__variant_detail::__visitation::__base::__dispatcher<(unsigned long)0>::__dispatch[abi:ne180000]<std::__ndk1::__variant_detail::__dtor<std::__ndk1::__variant_detail::__traits<std::__ndk1::monostate, std::__ndk1::basic_string<char, std::__ndk1::char_traits<char>, std::__ndk1::allocator<char> > >, (std::__ndk1::__variant_detail::_Trait)1>::__destroy[abi:ne180000]()::{lambda(auto:1&)#1}, std::__ndk1::__variant_detail::__base<(std::__ndk1::__variant_detail::__traits<std::__ndk1::monostate, std::__ndk1::basic_string<char, std::__ndk1::char_traits<char>, std::__ndk1::allocator<char> > >)1, std::__ndk1::__variant_detail::__traits, std::__ndk1::allocator<char> >&>(std::__ndk1::__variant_detail::__dtor<std::__ndk1::__variant_detail::__traits<std::__ndk1::monostate, std::__ndk1::basic_string<char, std::__ndk1::char_traits<char>, std::__ndk1::allocator<char> > >, (std::__ndk1::__variant_detail::_Trait)1>, std::__ndk1::__variant_detail::__base<(std::__ndk1::__variant_detail::__traits<std::__ndk1::monostate, std::__ndk1::basic_string<char, std::__ndk1::char_traits<char>, std::__ndk1::allocator<char> > >)1, std::__ndk1::__variant_detail::__traits, std::__ndk1::allocator<char> >&)
PUBLIC 1f3f8 0 std::__ndk1::__variant_detail::__visitation::__base::__dispatcher<(unsigned long)1>::__dispatch[abi:ne180000]<std::__ndk1::__variant_detail::__dtor<std::__ndk1::__variant_detail::__traits<std::__ndk1::monostate, std::__ndk1::basic_string<char, std::__ndk1::char_traits<char>, std::__ndk1::allocator<char> > >, (std::__ndk1::__variant_detail::_Trait)1>::__destroy[abi:ne180000]()::{lambda(auto:1&)#1}, std::__ndk1::__variant_detail::__base<(std::__ndk1::__variant_detail::__traits<std::__ndk1::monostate, std::__ndk1::basic_string<char, std::__ndk1::char_traits<char>, std::__ndk1::allocator<char> > >)1, std::__ndk1::__variant_detail::__traits, std::__ndk1::allocator<char> >&>(std::__ndk1::__variant_detail::__dtor<std::__ndk1::__variant_detail::__traits<std::__ndk1::monostate, std::__ndk1::basic_string<char, std::__ndk1::char_traits<char>, std::__ndk1::allocator<char> > >, (std::__ndk1::__variant_detail::_Trait)1>, std::__ndk1::__variant_detail::__base<(std::__ndk1::__variant_detail::__traits<std::__ndk1::monostate, std::__ndk1::basic_string<char, std::__ndk1::char_traits<char>, std::__ndk1::allocator<char> > >)1, std::__ndk1::__variant_detail::__traits, std::__ndk1::allocator<char> >&)
PUBLIC 1f40c 0 geode::Hook::create<void (*)(MyLevelCell*)>(void*, void (*)(MyLevelCell*), std::__ndk1::basic_string<char, std::__ndk1::char_traits<char>, std::__ndk1::allocator<char> > const&, tulip::hook::TulipConvention, tulip::hook::HookMetadata const&)
PUBLIC 1f540 0 geode::modifier::AsStaticFunction_draw<MyLevelCell, void (MyLevelCell::*)()>::Impl<void (MyLevelCell::*)()>::function(MyLevelCell*)
PUBLIC 1f92c 0 geode::modifier::AsStaticFunction_loadCustomLevelCell<MyLevelCell, void (MyLevelCell::*)()>::Impl<void (MyLevelCell::*)()>::function(MyLevelCell*)
PUBLIC 1fe50 0 geode::modifier::AsStaticFunction_loadFromLevel<MyLevelCell, void (MyLevelCell::*)(GJGameLevel*)>::Impl<void (MyLevelCell::*)(GJGameLevel*)>::function(MyLevelCell*, GJGameLevel*)
PUBLIC 21550 0 geode::modifier::AsStaticFunction_loadLocalLevelCell<MyLevelCell, void (MyLevelCell::*)()>::Impl<void (MyLevelCell::*)()>::function(MyLevelCell*)
PUBLIC 216c8 0 geode::modifier::AsStaticFunction_onClick<MyLevelCell, void (MyLevelCell::*)(cocos2d::CCObject*)>::Impl<void (MyLevelCell::*)(cocos2d::CCObject*)>::function(MyLevelCell*, cocos2d::CCObject*)
PUBLIC 217fc 0 geode::addresser::Addresser::addressOfVirtual<void, LevelCell, >(void (LevelCell::*)())
PUBLIC 218c4 0 LevelCell::LevelCell(geode::ZeroConstructorType)
PUBLIC 219b8 0 cocos2d::CCCopying::copyWithZone(cocos2d::CCZone*)
PUBLIC 219c0 0 TableViewCell::~TableViewCell()
PUBLIC 21a1c 0 TableViewCell::~TableViewCell()
PUBLIC 21a80 0 {virtual override thunk({offset(-320)}, TableViewCell::~TableViewCell())}
PUBLIC 21ae0 0 {virtual override thunk({offset(-320)}, TableViewCell::~TableViewCell())}
PUBLIC 21b48 0 cocos2d::CCKeyboardDelegate::keyUp(cocos2d::enumKeyCodes)
PUBLIC 21b4c 0 cocos2d::CCMouseDelegate::rightKeyDown()
PUBLIC 21b50 0 cocos2d::CCMouseDelegate::rightKeyUp()
PUBLIC 21b54 0 cocos2d::CCMouseDelegate::scrollWheel(float, float)
PUBLIC 21b58 0 geode::modifier::FieldIntermediate<MyLevelCell, LevelCell>::self()
PUBLIC 221b0 0 geode::modifier::FieldIntermediate<MyLevelCell, LevelCell>::fieldDestructor(void*)
PUBLIC 221b4 0 std::__ndk1::vector<void*, std::__ndk1::allocator<void*> >::__throw_length_error[abi:ne180000]() const
PUBLIC 221c8 0 std::__ndk1::vector<std::__ndk1::function<void (void*)>, std::__ndk1::allocator<std::__ndk1::function<void (void*)> > >::__throw_length_error[abi:ne180000]() const
PUBLIC 221dc 0 std::__ndk1::vector<void*, std::__ndk1::allocator<void*> >::__throw_out_of_range[abi:ne180000]() const
PUBLIC 221e8 0 std::__ndk1::__throw_out_of_range[abi:ne180000](char const*)
PUBLIC 22238 0 std::out_of_range::out_of_range[abi:ne180000](char const*)
PUBLIC 22268 0 std::__ndk1::vector<std::__ndk1::function<void (void*)>, std::__ndk1::allocator<std::__ndk1::function<void (void*)> > >::__throw_out_of_range[abi:ne180000]() const
PUBLIC 22274 0 std::__ndk1::__function::__base<void (void*)>::~__base()
PUBLIC 22278 0 std::__ndk1::__function::__func<void (*)(void*), std::__ndk1::allocator<void (*)(void*)>, void (void*)>::~__func()
PUBLIC 2227c 0 std::__ndk1::__function::__func<void (*)(void*), std::__ndk1::allocator<void (*)(void*)>, void (void*)>::__clone() const
PUBLIC 222b4 0 std::__ndk1::__function::__func<void (*)(void*), std::__ndk1::allocator<void (*)(void*)>, void (void*)>::__clone(std::__ndk1::__function::__base<void (void*)>*) const
PUBLIC 222cc 0 std::__ndk1::__function::__func<void (*)(void*), std::__ndk1::allocator<void (*)(void*)>, void (void*)>::destroy()
PUBLIC 222d0 0 std::__ndk1::__function::__func<void (*)(void*), std::__ndk1::allocator<void (*)(void*)>, void (void*)>::destroy_deallocate()
PUBLIC 222d4 0 std::__ndk1::__function::__func<void (*)(void*), std::__ndk1::allocator<void (*)(void*)>, void (void*)>::operator()(void*&&)
PUBLIC 222e4 0 std::__ndk1::__function::__func<void (*)(void*), std::__ndk1::allocator<void (*)(void*)>, void (void*)>::target(std::type_info const&) const
PUBLIC 22300 0 std::__ndk1::__function::__func<void (*)(void*), std::__ndk1::allocator<void (*)(void*)>, void (void*)>::target_type() const
PUBLIC 2230c 0 geode::cast::traverseTypeinfoFor(void*, geode::cast::ClassTypeinfoType const*, char const*)
PUBLIC 22410 0 MyLevelCell::addColorToSequence(cocos2d::CCArray*, cocos2d::_ccColor4B)
PUBLIC 22510 0 std::__ndk1::__variant_detail::__visitation::__base::__dispatcher<(unsigned long)0>::__dispatch[abi:ne180000]<std::__ndk1::__variant_detail::__dtor<std::__ndk1::__variant_detail::__traits<int, std::__ndk1::basic_string<char, std::__ndk1::char_traits<char>, std::__ndk1::allocator<char> > >, (std::__ndk1::__variant_detail::_Trait)1>::__destroy[abi:ne180000]()::{lambda(auto:1&)#1}, std::__ndk1::__variant_detail::__base<(std::__ndk1::__variant_detail::__traits<int, std::__ndk1::basic_string<char, std::__ndk1::char_traits<char>, std::__ndk1::allocator<char> > >)1, int, std::__ndk1::allocator<char> >&>(std::__ndk1::__variant_detail::__dtor<std::__ndk1::__variant_detail::__traits<int, std::__ndk1::basic_string<char, std::__ndk1::char_traits<char>, std::__ndk1::allocator<char> > >, (std::__ndk1::__variant_detail::_Trait)1>, std::__ndk1::__variant_detail::__base<(std::__ndk1::__variant_detail::__traits<int, std::__ndk1::basic_string<char, std::__ndk1::char_traits<char>, std::__ndk1::allocator<char> > >)1, int, std::__ndk1::allocator<char> >&)
PUBLIC 22514 0 std::__ndk1::__variant_detail::__visitation::__base::__dispatcher<(unsigned long)1>::__dispatch[abi:ne180000]<std::__ndk1::__variant_detail::__dtor<std::__ndk1::__variant_detail::__traits<int, std::__ndk1::basic_string<char, std::__ndk1::char_traits<char>, std::__ndk1::allocator<char> > >, (std::__ndk1::__variant_detail::_Trait)1>::__destroy[abi:ne180000]()::{lambda(auto:1&)#1}, std::__ndk1::__variant_detail::__base<(std::__ndk1::__variant_detail::__traits<int, std::__ndk1::basic_string<char, std::__ndk1::char_traits<char>, std::__ndk1::allocator<char> > >)1, int, std::__ndk1::allocator<char> >&>(std::__ndk1::__variant_detail::__dtor<std::__ndk1::__variant_detail::__traits<int, std::__ndk1::basic_string<char, std::__ndk1::char_traits<char>, std::__ndk1::allocator<char> > >, (std::__ndk1::__variant_detail::_Trait)1>, std::__ndk1::__variant_detail::__base<(std::__ndk1::__variant_detail::__traits<int, std::__ndk1::basic_string<char, std::__ndk1::char_traits<char>, std::__ndk1::allocator<char> > >)1, int, std::__ndk1::allocator<char> >&)
PUBLIC 22528 0 cocos2d::CCSequence::create(cocos2d::CCFiniteTimeAction*, ...)
PUBLIC 225c0 0 MyLevelCell::onShowLevelDesc(cocos2d::CCObject*)
PUBLIC 23f94 0 std::__ndk1::basic_regex<char, std::__ndk1::regex_traits<char> >::~basic_regex()
PUBLIC 23ff4 0 std::__ndk1::basic_string<char, std::__ndk1::char_traits<char>, std::__ndk1::allocator<char> >::__assign_external(char const*, unsigned long)
PUBLIC 240f8 0 fmt::v11::detail::value<fmt::v11::context>::format_custom_arg<gd::string, fmt::v11::formatter<gd::string, char, void> >(void*, fmt::v11::basic_format_parse_context<char>&, fmt::v11::context&)
PUBLIC 242cc 0 fmt::v11::detail::parse_format_specs<char>(char const*, char const*, fmt::v11::detail::dynamic_format_specs<char>&, fmt::v11::basic_format_parse_context<char>&, fmt::v11::detail::type)
PUBLIC 24780 0 fmt::v11::detail::parse_dynamic_spec<char>(char const*, char const*, int&, fmt::v11::detail::arg_ref<char>&, fmt::v11::basic_format_parse_context<char>&)
PUBLIC 24924 0 fmt::v11::detail::do_parse_arg_id<char, fmt::v11::detail::dynamic_spec_id_handler<char>&>(char const*, char const*, fmt::v11::detail::dynamic_spec_id_handler<char>&)
PUBLIC 24ab8 0 fmt::v11::detail::handle_dynamic_spec<fmt::v11::detail::width_checker, fmt::v11::context>(int&, fmt::v11::detail::arg_ref<fmt::v11::context::char_type>, fmt::v11::context&)
PUBLIC 24bcc 0 fmt::v11::detail::handle_dynamic_spec<fmt::v11::detail::precision_checker, fmt::v11::context>(int&, fmt::v11::detail::arg_ref<fmt::v11::context::char_type>, fmt::v11::context&)
PUBLIC 24ce0 0 fmt::v11::detail::write<char, fmt::v11::basic_appender<char> >(fmt::v11::basic_appender<char>, fmt::v11::basic_string_view<char>, fmt::v11::format_specs const&)
PUBLIC 24f5c 0 fmt::v11::detail::write_escaped_string<char, fmt::v11::detail::counting_iterator>(fmt::v11::detail::counting_iterator, fmt::v11::basic_string_view<char>)
PUBLIC 2547c 0 fmt::v11::detail::write_padded<char, (fmt::v11::align::type)1, fmt::v11::basic_appender<char>, fmt::v11::detail::write<char, fmt::v11::basic_appender<char> >(fmt::v11::basic_appender<char>, fmt::v11::basic_string_view<char>, fmt::v11::format_specs const&)::{lambda(fmt::v11::basic_appender<char>)#1}>(fmt::v11::basic_appender<char>, fmt::v11::format_specs const&, unsigned long, unsigned long, fmt::v11::detail::write<char, fmt::v11::basic_appender<char> >(fmt::v11::basic_appender<char>, fmt::v11::basic_string_view<char>, fmt::v11::format_specs const&)::{lambda(fmt::v11::basic_appender<char>&&)#1})
PUBLIC 25688 0 fmt::v11::detail::for_each_codepoint<fmt::v11::detail::code_point_index(fmt::v11::basic_string_view<char>, unsigned long)::{lambda(unsigned int, fmt::v11::basic_string_view<char>)#1}>(fmt::v11::basic_string_view<char>, fmt::v11::detail::code_point_index(fmt::v11::basic_string_view<char>, unsigned long)::{lambda(unsigned int, fmt::v11::basic_string_view<char>)#1})
PUBLIC 25ab0 0 fmt::v11::detail::write_escaped_cp<fmt::v11::detail::counting_iterator, char>(fmt::v11::detail::counting_iterator, fmt::v11::detail::find_escape_result<char> const&)
PUBLIC 25c44 0 fmt::v11::detail::for_each_codepoint<fmt::v11::detail::compute_width(fmt::v11::basic_string_view<char>)::count_code_points>(fmt::v11::basic_string_view<char>, fmt::v11::detail::compute_width(fmt::v11::basic_string_view<char>)::count_code_points)::{lambda(char const*, char const*)#1}::operator()(char const*, char const*) const
PUBLIC 25dfc 0 fmt::v11::detail::fill<char, fmt::v11::basic_appender<char> >(fmt::v11::basic_appender<char>, unsigned long, fmt::v11::detail::fill_t const&)
PUBLIC 25fcc 0 fmt::v11::detail::write_escaped_string<char, fmt::v11::basic_appender<char> >(fmt::v11::basic_appender<char>, fmt::v11::basic_string_view<char>)
PUBLIC 26648 0 fmt::v11::detail::write_escaped_cp<fmt::v11::basic_appender<char>, char>(fmt::v11::basic_appender<char>, fmt::v11::detail::find_escape_result<char> const&)
PUBLIC 2682c 0 fmt::v11::detail::write_codepoint<(unsigned long)2, char, fmt::v11::basic_appender<char> >(fmt::v11::basic_appender<char>, char, unsigned int)
PUBLIC 269a4 0 fmt::v11::detail::write_codepoint<(unsigned long)4, char, fmt::v11::basic_appender<char> >(fmt::v11::basic_appender<char>, char, unsigned int)
PUBLIC 26b1c 0 fmt::v11::detail::write_codepoint<(unsigned long)8, char, fmt::v11::basic_appender<char> >(fmt::v11::basic_appender<char>, char, unsigned int)
PUBLIC 26c94 0 fmt::v11::detail::get_dynamic_spec<fmt::v11::detail::width_checker, fmt::v11::basic_format_arg<fmt::v11::context> >(fmt::v11::basic_format_arg<fmt::v11::context>)
PUBLIC 26d28 0 fmt::v11::basic_format_args<fmt::v11::context>::get<char>(fmt::v11::basic_string_view<char>) const
PUBLIC 26e80 0 fmt::v11::detail::get_dynamic_spec<fmt::v11::detail::precision_checker, fmt::v11::basic_format_arg<fmt::v11::context> >(fmt::v11::basic_format_arg<fmt::v11::context>)
PUBLIC 26f14 0 std::__ndk1::basic_regex<char, std::__ndk1::regex_traits<char> >::__search<std::__ndk1::allocator<std::__ndk1::sub_match<char const*> > >(char const*, char const*, std::__ndk1::match_results<char const*, std::__ndk1::allocator<std::__ndk1::sub_match<char const*> > >&, std::__ndk1::regex_constants::match_flag_type) const
PUBLIC 27180 0 std::__ndk1::match_results<std::__ndk1::__wrap_iter<char const*>, std::__ndk1::allocator<std::__ndk1::sub_match<std::__ndk1::__wrap_iter<char const*> > > >::__assign[abi:ne180000]<char const*, std::__ndk1::allocator<std::__ndk1::sub_match<char const*> > >(std::__ndk1::__wrap_iter<char const*>, std::__ndk1::__wrap_iter<char const*>, std::__ndk1::match_results<char const*, std::__ndk1::allocator<std::__ndk1::sub_match<char const*> > > const&, bool)
PUBLIC 27498 0 std::__ndk1::vector<std::__ndk1::sub_match<char const*>, std::__ndk1::allocator<std::__ndk1::sub_match<char const*> > >::assign(unsigned long, std::__ndk1::sub_match<char const*> const&)
PUBLIC 27668 0 std::__ndk1::basic_regex<char, std::__ndk1::regex_traits<char> >::__match_at_start_ecma<std::__ndk1::allocator<std::__ndk1::sub_match<char const*> > >(char const*, char const*, std::__ndk1::match_results<char const*, std::__ndk1::allocator<std::__ndk1::sub_match<char const*> > >&, std::__ndk1::regex_constants::match_flag_type, bool) const
PUBLIC 27ab4 0 std::__ndk1::basic_regex<char, std::__ndk1::regex_traits<char> >::__match_at_start_posix_nosubs<std::__ndk1::allocator<std::__ndk1::sub_match<char const*> > >(char const*, char const*, std::__ndk1::match_results<char const*, std::__ndk1::allocator<std::__ndk1::sub_match<char const*> > >&, std::__ndk1::regex_constants::match_flag_type, bool) const
PUBLIC 2895c 0 std::__ndk1::basic_regex<char, std::__ndk1::regex_traits<char> >::__match_at_start_posix_subs<std::__ndk1::allocator<std::__ndk1::sub_match<char const*> > >(char const*, char const*, std::__ndk1::match_results<char const*, std::__ndk1::allocator<std::__ndk1::sub_match<char const*> > >&, std::__ndk1::regex_constants::match_flag_type, bool) const
PUBLIC 2935c 0 std::__ndk1::__state<char>::~__state()
PUBLIC 293a0 0 std::__ndk1::__throw_regex_error[abi:ne180000]<(std::__ndk1::regex_constants::error_type)12>()
PUBLIC 293ec 0 std::__ndk1::__state<char>::__state(std::__ndk1::__state<char> const&)
PUBLIC 2955c 0 std::__ndk1::__throw_regex_error[abi:ne180000]<(std::__ndk1::regex_constants::error_type)16>()
PUBLIC 295a8 0 std::__ndk1::vector<std::__ndk1::__state<char>, std::__ndk1::allocator<std::__ndk1::__state<char> > >::~vector[abi:ne180000]()
PUBLIC 29640 0 std::__ndk1::vector<std::__ndk1::__state<char>, std::__ndk1::allocator<std::__ndk1::__state<char> > >::__push_back_slow_path<std::__ndk1::__state<char> >(std::__ndk1::__state<char>&&)
PUBLIC 2981c 0 std::__ndk1::vector<std::__ndk1::__state<char>, std::__ndk1::allocator<std::__ndk1::__state<char> > >::__throw_length_error[abi:ne180000]() const
PUBLIC 29830 0 std::__ndk1::vector<std::__ndk1::sub_match<char const*>, std::__ndk1::allocator<std::__ndk1::sub_match<char const*> > >::__append(unsigned long, std::__ndk1::sub_match<char const*> const&)
PUBLIC 299d8 0 std::__ndk1::vector<std::__ndk1::sub_match<char const*>, std::__ndk1::allocator<std::__ndk1::sub_match<char const*> > >::__throw_length_error[abi:ne180000]() const
PUBLIC 299ec 0 std::__ndk1::vector<std::__ndk1::pair<unsigned long, char const*>, std::__ndk1::allocator<std::__ndk1::pair<unsigned long, char const*> > >::__append(unsigned long)
PUBLIC 29b18 0 std::__ndk1::vector<std::__ndk1::pair<unsigned long, char const*>, std::__ndk1::allocator<std::__ndk1::pair<unsigned long, char const*> > >::__throw_length_error[abi:ne180000]() const
PUBLIC 29b2c 0 std::__ndk1::deque<std::__ndk1::__state<char>, std::__ndk1::allocator<std::__ndk1::__state<char> > >::~deque[abi:ne180000]()
PUBLIC 29cf4 0 std::__ndk1::deque<std::__ndk1::__state<char>, std::__ndk1::allocator<std::__ndk1::__state<char> > >::__add_back_capacity()
PUBLIC 2a2e4 0 std::__ndk1::__split_buffer<std::__ndk1::__state<char>*, std::__ndk1::allocator<std::__ndk1::__state<char>*> >::push_back(std::__ndk1::__state<char>*&&)
PUBLIC 2a46c 0 std::__ndk1::__split_buffer<std::__ndk1::__state<char>*, std::__ndk1::allocator<std::__ndk1::__state<char>*> >::push_front(std::__ndk1::__state<char>*&&)
PUBLIC 2a5f8 0 std::__ndk1::__split_buffer<std::__ndk1::__state<char>*, std::__ndk1::allocator<std::__ndk1::__state<char>*> >::push_front(std::__ndk1::__state<char>* const&)
PUBLIC 2a784 0 std::__ndk1::vector<std::__ndk1::sub_match<std::__ndk1::__wrap_iter<char const*> >, std::__ndk1::allocator<std::__ndk1::sub_match<std::__ndk1::__wrap_iter<char const*> > > >::__throw_length_error[abi:ne180000]() const
PUBLIC 2a798 0 std::__ndk1::__throw_regex_error[abi:ne180000]<(std::__ndk1::regex_constants::error_type)3>()
PUBLIC 2a7e4 0 std::__ndk1::shared_ptr<std::__ndk1::__empty_state<char> >::~shared_ptr[abi:ne180000]()
PUBLIC 2a834 0 std::__ndk1::basic_regex<char, std::__ndk1::regex_traits<char> >::__parse<char const*>(char const*, char const*)
PUBLIC 2aef8 0 std::__ndk1::__throw_regex_error[abi:ne180000]<(std::__ndk1::regex_constants::error_type)17>()
PUBLIC 2af44 0 std::__ndk1::basic_regex<char, std::__ndk1::regex_traits<char> >::__parse_ecma_exp<char const*>(char const*, char const*)
PUBLIC 2b1b0 0 std::__ndk1::basic_regex<char, std::__ndk1::regex_traits<char> >::__parse_basic_reg_exp<char const*>(char const*, char const*)
PUBLIC 2b358 0 std::__ndk1::basic_regex<char, std::__ndk1::regex_traits<char> >::__parse_extended_reg_exp<char const*>(char const*, char const*)
PUBLIC 2b4c8 0 std::__ndk1::__throw_regex_error[abi:ne180000]<(std::__ndk1::regex_constants::error_type)14>()
PUBLIC 2b514 0 std::__ndk1::__end_state<char>::~__end_state()
PUBLIC 2b518 0 std::__ndk1::__end_state<char>::__exec(std::__ndk1::__state<char>&) const
PUBLIC 2b524 0 std::__ndk1::__node<char>::__exec_split(bool, std::__ndk1::__state<char>&) const
PUBLIC 2b528 0 std::__ndk1::__node<char>::__exec(std::__ndk1::__state<char>&) const
PUBLIC 2b52c 0 std::__ndk1::__shared_ptr_pointer<std::__ndk1::__empty_state<char>*, std::__ndk1::shared_ptr<std::__ndk1::__empty_state<char> >::__shared_ptr_default_delete<std::__ndk1::__empty_state<char>, std::__ndk1::__empty_state<char> >, std::__ndk1::allocator<std::__ndk1::__empty_state<char> > >::~__shared_ptr_pointer()
PUBLIC 2b550 0 std::__ndk1::__shared_ptr_pointer<std::__ndk1::__empty_state<char>*, std::__ndk1::shared_ptr<std::__ndk1::__empty_state<char> >::__shared_ptr_default_delete<std::__ndk1::__empty_state<char>, std::__ndk1::__empty_state<char> >, std::__ndk1::allocator<std::__ndk1::__empty_state<char> > >::__on_zero_shared()
PUBLIC 2b568 0 std::__ndk1::__shared_ptr_pointer<std::__ndk1::__empty_state<char>*, std::__ndk1::shared_ptr<std::__ndk1::__empty_state<char> >::__shared_ptr_default_delete<std::__ndk1::__empty_state<char>, std::__ndk1::__empty_state<char> >, std::__ndk1::allocator<std::__ndk1::__empty_state<char> > >::__get_deleter(std::type_info const&) const
PUBLIC 2b584 0 std::__ndk1::__shared_ptr_pointer<std::__ndk1::__empty_state<char>*, std::__ndk1::shared_ptr<std::__ndk1::__empty_state<char> >::__shared_ptr_default_delete<std::__ndk1::__empty_state<char>, std::__ndk1::__empty_state<char> >, std::__ndk1::allocator<std::__ndk1::__empty_state<char> > >::__on_zero_shared_weak()
PUBLIC 2b588 0 std::__ndk1::__empty_state<char>::~__empty_state()
PUBLIC 2b5d0 0 std::__ndk1::__empty_state<char>::__exec(std::__ndk1::__state<char>&) const
PUBLIC 2b5e4 0 std::__ndk1::__owns_one_state<char>::~__owns_one_state()
PUBLIC 2b62c 0 std::__ndk1::basic_regex<char, std::__ndk1::regex_traits<char> >::__parse_assertion<char const*>(char const*, char const*)
PUBLIC 2b990 0 std::__ndk1::basic_regex<char, std::__ndk1::regex_traits<char> >::__parse_atom<char const*>(char const*, char const*)
PUBLIC 2bfd4 0 std::__ndk1::basic_regex<char, std::__ndk1::regex_traits<char> >::__parse_ERE_dupl_symbol<char const*>(char const*, char const*, std::__ndk1::__owns_one_state<char>*, unsigned int, unsigned int)
PUBLIC 2c3c8 0 std::__ndk1::basic_regex<char, std::__ndk1::regex_traits<char> >::basic_regex[abi:ne180000]()
PUBLIC 2c434 0 std::__ndk1::basic_regex<char, std::__ndk1::regex_traits<char> >::__push_lookahead(std::__ndk1::basic_regex<char, std::__ndk1::regex_traits<char> > const&, bool, unsigned int)
PUBLIC 2c4e8 0 std::__ndk1::__throw_regex_error[abi:ne180000]<(std::__ndk1::regex_constants::error_type)6>()
PUBLIC 2c534 0 std::__ndk1::__l_anchor_multiline<char>::~__l_anchor_multiline()
PUBLIC 2c57c 0 std::__ndk1::__l_anchor_multiline<char>::__exec(std::__ndk1::__state<char>&) const
PUBLIC 2c5e0 0 std::__ndk1::__r_anchor_multiline<char>::~__r_anchor_multiline()
PUBLIC 2c628 0 std::__ndk1::__r_anchor_multiline<char>::__exec(std::__ndk1::__state<char>&) const
PUBLIC 2c67c 0 std::__ndk1::__word_boundary<char, std::__ndk1::regex_traits<char> >::~__word_boundary()
PUBLIC 2c6d8 0 std::__ndk1::__word_boundary<char, std::__ndk1::regex_traits<char> >::~__word_boundary()
PUBLIC 2c730 0 std::__ndk1::__word_boundary<char, std::__ndk1::regex_traits<char> >::__exec(std::__ndk1::__state<char>&) const
PUBLIC 2c840 0 std::__ndk1::__lookahead<char, std::__ndk1::regex_traits<char> >::~__lookahead()
PUBLIC 2c8d0 0 std::__ndk1::__lookahead<char, std::__ndk1::regex_traits<char> >::~__lookahead()
PUBLIC 2c95c 0 std::__ndk1::__lookahead<char, std::__ndk1::regex_traits<char> >::__exec(std::__ndk1::__state<char>&) const
PUBLIC 2cb30 0 std::__ndk1::basic_regex<char, std::__ndk1::regex_traits<char> >::__parse_bracket_expression<char const*>(char const*, char const*)
PUBLIC 2dc24 0 std::__ndk1::__throw_regex_error[abi:ne180000]<(std::__ndk1::regex_constants::error_type)11>()
PUBLIC 2dc70 0 std::__ndk1::__match_any_but_newline<char>::~__match_any_but_newline()
PUBLIC 2dcb8 0 std::__ndk1::basic_regex<char, std::__ndk1::regex_traits<char> >::__parse_character_escape<char const*>(char const*, char const*, std::__ndk1::basic_string<char, std::__ndk1::char_traits<char>, std::__ndk1::allocator<char> >*)
PUBLIC 2e1c4 0 std::__ndk1::basic_regex<char, std::__ndk1::regex_traits<char> >::__push_char(char)
PUBLIC 2e304 0 std::__ndk1::__throw_regex_error[abi:ne180000]<(std::__ndk1::regex_constants::error_type)4>()
PUBLIC 2e350 0 std::__ndk1::basic_regex<char, std::__ndk1::regex_traits<char> >::__push_back_ref(int)
PUBLIC 2e418 0 std::__ndk1::__match_char_icase<char, std::__ndk1::regex_traits<char> >::~__match_char_icase()
PUBLIC 2e474 0 std::__ndk1::__match_char_icase<char, std::__ndk1::regex_traits<char> >::~__match_char_icase()
PUBLIC 2e4cc 0 std::__ndk1::__match_char_icase<char, std::__ndk1::regex_traits<char> >::__exec(std::__ndk1::__state<char>&) const
PUBLIC 2e54c 0 std::__ndk1::__match_char_collate<char, std::__ndk1::regex_traits<char> >::~__match_char_collate()
PUBLIC 2e5a8 0 std::__ndk1::__match_char_collate<char, std::__ndk1::regex_traits<char> >::~__match_char_collate()
PUBLIC 2e600 0 std::__ndk1::__match_char_collate<char, std::__ndk1::regex_traits<char> >::__exec(std::__ndk1::__state<char>&) const
PUBLIC 2e648 0 std::__ndk1::__match_char<char>::~__match_char()
PUBLIC 2e690 0 std::__ndk1::__match_char<char>::__exec(std::__ndk1::__state<char>&) const
PUBLIC 2e6d8 0 std::__ndk1::__back_ref_icase<char, std::__ndk1::regex_traits<char> >::~__back_ref_icase()
PUBLIC 2e734 0 std::__ndk1::__back_ref_icase<char, std::__ndk1::regex_traits<char> >::~__back_ref_icase()
PUBLIC 2e78c 0 std::__ndk1::__back_ref_icase<char, std::__ndk1::regex_traits<char> >::__exec(std::__ndk1::__state<char>&) const
PUBLIC 2e884 0 std::__ndk1::__back_ref_collate<char, std::__ndk1::regex_traits<char> >::~__back_ref_collate()
PUBLIC 2e8e0 0 std::__ndk1::__back_ref_collate<char, std::__ndk1::regex_traits<char> >::~__back_ref_collate()
PUBLIC 2e938 0 std::__ndk1::__back_ref_collate<char, std::__ndk1::regex_traits<char> >::__exec(std::__ndk1::__state<char>&) const
PUBLIC 2e9c8 0 std::__ndk1::__back_ref<char>::~__back_ref()
PUBLIC 2ea10 0 std::__ndk1::__back_ref<char>::__exec(std::__ndk1::__state<char>&) const
PUBLIC 2eae0 0 std::__ndk1::__bracket_expression<char, std::__ndk1::regex_traits<char> >::__add_char[abi:ne180000](char)
PUBLIC 2ef90 0 std::__ndk1::__bracket_expression<char, std::__ndk1::regex_traits<char> >::__bracket_expression[abi:ne180000](std::__ndk1::regex_traits<char> const&, std::__ndk1::__node<char>*, bool, bool, bool)
PUBLIC 2f16c 0 std::__ndk1::vector<std::__ndk1::pair<std::__ndk1::basic_string<char, std::__ndk1::char_traits<char>, std::__ndk1::allocator<char> >, std::__ndk1::basic_string<char, std::__ndk1::char_traits<char>, std::__ndk1::allocator<char> > >, std::__ndk1::allocator<std::__ndk1::pair<std::__ndk1::basic_string<char, std::__ndk1::char_traits<char>, std::__ndk1::allocator<char> >, std::__ndk1::basic_string<char, std::__ndk1::char_traits<char>, std::__ndk1::allocator<char> > > > >::~vector[abi:ne180000]()
PUBLIC 2f210 0 std::__ndk1::__bracket_expression<char, std::__ndk1::regex_traits<char> >::~__bracket_expression()
PUBLIC 2f35c 0 std::__ndk1::__bracket_expression<char, std::__ndk1::regex_traits<char> >::~__bracket_expression()
PUBLIC 2f380 0 std::__ndk1::__bracket_expression<char, std::__ndk1::regex_traits<char> >::__exec(std::__ndk1::__state<char>&) const
PUBLIC 2ffec 0 std::__ndk1::pair<std::__ndk1::basic_string<char, std::__ndk1::char_traits<char>, std::__ndk1::allocator<char> >, std::__ndk1::basic_string<char, std::__ndk1::char_traits<char>, std::__ndk1::allocator<char> > >::~pair()
PUBLIC 30030 0 std::__ndk1::regex_traits<char>::__transform_primary<char*>(char*, char*, char) const
PUBLIC 301f4 0 std::__ndk1::vector<char, std::__ndk1::allocator<char> >::__throw_length_error[abi:ne180000]() const
PUBLIC 30208 0 std::__ndk1::__throw_regex_error[abi:ne180000]<(std::__ndk1::regex_constants::error_type)5>()
PUBLIC 30254 0 std::__ndk1::basic_regex<char, std::__ndk1::regex_traits<char> >::__parse_class_escape<char const*>(char const*, char const*, std::__ndk1::basic_string<char, std::__ndk1::char_traits<char>, std::__ndk1::allocator<char> >&, std::__ndk1::__bracket_expression<char, std::__ndk1::regex_traits<char> >*)
PUBLIC 3081c 0 std::__ndk1::basic_regex<char, std::__ndk1::regex_traits<char> >::__parse_awk_escape<char const*>(char const*, char const*, std::__ndk1::basic_string<char, std::__ndk1::char_traits<char>, std::__ndk1::allocator<char> >*)
PUBLIC 30ce0 0 std::__ndk1::__bracket_expression<char, std::__ndk1::regex_traits<char> >::__add_digraph[abi:ne180000](char, char)
PUBLIC 31100 0 std::__ndk1::__throw_regex_error[abi:ne180000]<(std::__ndk1::regex_constants::error_type)1>()
PUBLIC 3114c 0 std::__ndk1::regex_traits<char>::__lookup_collatename<char const*>(char const*, char const*, char) const
PUBLIC 31400 0 std::__ndk1::__throw_regex_error[abi:ne180000]<(std::__ndk1::regex_constants::error_type)2>()
PUBLIC 3144c 0 std::__ndk1::regex_traits<char>::transform<std::__ndk1::__wrap_iter<char*> >(std::__ndk1::__wrap_iter<char*>, std::__ndk1::__wrap_iter<char*>) const
PUBLIC 31600 0 std::__ndk1::__throw_regex_error[abi:ne180000]<(std::__ndk1::regex_constants::error_type)9>()
PUBLIC 3164c 0 std::__ndk1::vector<std::__ndk1::pair<std::__ndk1::basic_string<char, std::__ndk1::char_traits<char>, std::__ndk1::allocator<char> >, std::__ndk1::basic_string<char, std::__ndk1::char_traits<char>, std::__ndk1::allocator<char> > >, std::__ndk1::allocator<std::__ndk1::pair<std::__ndk1::basic_string<char, std::__ndk1::char_traits<char>, std::__ndk1::allocator<char> >, std::__ndk1::basic_string<char, std::__ndk1::char_traits<char>, std::__ndk1::allocator<char> > > > >::__push_back_slow_path<std::__ndk1::pair<std::__ndk1::basic_string<char, std::__ndk1::char_traits<char>, std::__ndk1::allocator<char> >, std::__ndk1::basic_string<char, std::__ndk1::char_traits<char>, std::__ndk1::allocator<char> > > >(std::__ndk1::pair<std::__ndk1::basic_string<char, std::__ndk1::char_traits<char>, std::__ndk1::allocator<char> >, std::__ndk1::basic_string<char, std::__ndk1::char_traits<char>, std::__ndk1::allocator<char> > >&&)
PUBLIC 317f4 0 std::__ndk1::vector<std::__ndk1::pair<std::__ndk1::basic_string<char, std::__ndk1::char_traits<char>, std::__ndk1::allocator<char> >, std::__ndk1::basic_string<char, std::__ndk1::char_traits<char>, std::__ndk1::allocator<char> > >, std::__ndk1::allocator<std::__ndk1::pair<std::__ndk1::basic_string<char, std::__ndk1::char_traits<char>, std::__ndk1::allocator<char> >, std::__ndk1::basic_string<char, std::__ndk1::char_traits<char>, std::__ndk1::allocator<char> > > > >::__throw_length_error[abi:ne180000]() const
PUBLIC 31808 0 std::__ndk1::vector<std::__ndk1::pair<char, char>, std::__ndk1::allocator<std::__ndk1::pair<char, char> > >::__throw_length_error[abi:ne180000]() const
PUBLIC 3181c 0 std::__ndk1::__begin_marked_subexpression<char>::~__begin_marked_subexpression()
PUBLIC 31864 0 std::__ndk1::__begin_marked_subexpression<char>::__exec(std::__ndk1::__state<char>&) const
PUBLIC 31894 0 std::__ndk1::__end_marked_subexpression<char>::~__end_marked_subexpression()
PUBLIC 318dc 0 std::__ndk1::__end_marked_subexpression<char>::__exec(std::__ndk1::__state<char>&) const
PUBLIC 31914 0 std::__ndk1::basic_regex<char, std::__ndk1::regex_traits<char> >::__push_loop(unsigned long, unsigned long, std::__ndk1::__owns_one_state<char>*, unsigned long, unsigned long, bool)
PUBLIC 31a54 0 std::__ndk1::__throw_regex_error[abi:ne180000]<(std::__ndk1::regex_constants::error_type)8>()
PUBLIC 31aa0 0 std::__ndk1::__throw_regex_error[abi:ne180000]<(std::__ndk1::regex_constants::error_type)7>()
PUBLIC 31aec 0 std::__ndk1::__loop<char>::~__loop()
PUBLIC 31b54 0 std::__ndk1::__loop<char>::__exec(std::__ndk1::__state<char>&) const
PUBLIC 31d18 0 std::__ndk1::__loop<char>::__exec_split(bool, std::__ndk1::__state<char>&) const
PUBLIC 31ddc 0 std::__ndk1::__owns_two_states<char>::~__owns_two_states()
PUBLIC 31e44 0 std::__ndk1::__repeat_one_loop<char>::~__repeat_one_loop()
PUBLIC 31e48 0 std::__ndk1::__repeat_one_loop<char>::__exec(std::__ndk1::__state<char>&) const
PUBLIC 31e5c 0 std::__ndk1::__owns_two_states<char>::~__owns_two_states()
PUBLIC 31ec8 0 std::__ndk1::__alternate<char>::~__alternate()
PUBLIC 31f30 0 std::__ndk1::__alternate<char>::__exec(std::__ndk1::__state<char>&) const
PUBLIC 31f3c 0 std::__ndk1::__alternate<char>::__exec_split(bool, std::__ndk1::__state<char>&) const
PUBLIC 31f60 0 std::__ndk1::__node<char>::~__node()
PUBLIC 31f64 0 std::__ndk1::__empty_non_own_state<char>::~__empty_non_own_state()
PUBLIC 31f68 0 std::__ndk1::__empty_non_own_state<char>::__exec(std::__ndk1::__state<char>&) const
PUBLIC 31f7c 0 std::__ndk1::__throw_regex_error[abi:ne180000]<(std::__ndk1::regex_constants::error_type)15>()
PUBLIC 31fc8 0 std::__ndk1::basic_regex<char, std::__ndk1::regex_traits<char> >::__parse_nondupl_RE<char const*>(char const*, char const*)
PUBLIC 322c4 0 std::__ndk1::basic_regex<char, std::__ndk1::regex_traits<char> >::__parse_RE_dupl_symbol<char const*>(char const*, char const*, std::__ndk1::__owns_one_state<char>*, unsigned int, unsigned int)
PUBLIC 32534 0 std::__ndk1::__owns_one_state<char>::~__owns_one_state()
PUBLIC 32560 0 std::__ndk1::__match_any<char>::~__match_any()
PUBLIC 325a8 0 std::__ndk1::__match_any<char>::__exec(std::__ndk1::__state<char>&) const
PUBLIC 325e8 0 std::__ndk1::basic_regex<char, std::__ndk1::regex_traits<char> >::__test_back_ref(char)
PUBLIC 32648 0 std::__ndk1::basic_regex<char, std::__ndk1::regex_traits<char> >::__parse_ERE_expression<char const*>(char const*, char const*)
PUBLIC 32994 0 std::__ndk1::basic_string<char, std::__ndk1::char_traits<char>, std::__ndk1::allocator<char> >::__assign_no_alias<true>(char const*, unsigned long)
PUBLIC 32a40 0 std::__ndk1::basic_string<char, std::__ndk1::char_traits<char>, std::__ndk1::allocator<char> >::__assign_no_alias<false>(char const*, unsigned long)
PUBLIC 32b50 0 Utils::getBool(std::__ndk1::basic_string<char, std::__ndk1::char_traits<char>, std::__ndk1::allocator<char> > const&)
PUBLIC 32ba0 0 Utils::getDouble(std::__ndk1::basic_string<char, std::__ndk1::char_traits<char>, std::__ndk1::allocator<char> > const&)
PUBLIC 32bf0 0 Utils::getColorAlpha(std::__ndk1::basic_string<char, std::__ndk1::char_traits<char>, std::__ndk1::allocator<char> > const&)
PUBLIC 32c40 0 Utils::modEnabled()
PUBLIC 32d10 0 Utils::doesNodeExist(std::__ndk1::basic_string<char, std::__ndk1::char_traits<char>, std::__ndk1::allocator<char> > const&, std::__ndk1::basic_string<char, std::__ndk1::char_traits<char>, std::__ndk1::allocator<char> > const&)
PUBLIC 32dac 0 geode::Mod::getSettingValue<bool>(std::__ndk1::basic_string_view<char, std::__ndk1::char_traits<char> >) const
PUBLIC 32ee0 0 geode::Mod::getSettingValue<double>(std::__ndk1::basic_string_view<char, std::__ndk1::char_traits<char> >) const
PUBLIC 33010 0 geode::Mod::getSettingValue<cocos2d::_ccColor4B>(std::__ndk1::basic_string_view<char, std::__ndk1::char_traits<char> >) const
PUBLIC m 33128 0 geodeImplicitEntry
PUBLIC 33164 0 std::__ndk1::unordered_map<void*, bool, std::__ndk1::hash<void*>, std::__ndk1::equal_to<void*>, std::__ndk1::allocator<std::__ndk1::pair<void* const, bool> > >::~unordered_map[abi:ne180000]()
PUBLIC 331b0 0 wrapFunction(unsigned long, tulip::hook::WrapperMetadata const&)
PUBLIC 332e4 0 geode::impl::ResultData<void*, std::__ndk1::basic_string<char, std::__ndk1::char_traits<char>, std::__ndk1::allocator<char> > >::unwrapErr() &
PUBLIC 3335c 0 geode::impl::ResultData<void*, std::__ndk1::basic_string<char, std::__ndk1::char_traits<char>, std::__ndk1::allocator<char> > >::~ResultData()
PUBLIC 333d0 0 tulip::hook::WrapperMetadata::~WrapperMetadata()
PUBLIC 33434 0 cocos2d::CCObject::CCObject()
PUBLIC 3363c 0 cocos2d::CCObject::~CCObject()
PUBLIC 33660 0 cocos2d::CCNode::~CCNode()
PUBLIC 33684 0 {virtual override thunk({offset(-320)}, cocos2d::CCLayer::~CCLayer())}
PUBLIC 3368c 0 cocos2d::CCLayer::~CCLayer()
PUBLIC 336b0 0 {virtual override thunk({offset(-320)}, cocos2d::CCLayer::~CCLayer())}
PUBLIC 336d8 0 FLAlertLayer::create(FLAlertLayerProtocol*, char const*, gd::string, char const*, char const*, float, bool, float, float)
PUBLIC 338b0 0 tulip::hook::AbstractFunction::from<FLAlertLayer*, FLAlertLayerProtocol*, char const*, gd::string, char const*, char const*, float, bool, float, float>(FLAlertLayer* (*)(FLAlertLayerProtocol*, char const*, gd::string, char const*, char const*, float, bool, float, float))
PUBLIC 34094 0 cocos2d::CCObject::update(float)
PUBLIC 34098 0 CCIndexPath::~CCIndexPath()
PUBLIC 340bc 0 cocos2d::CCNode::~CCNode()
PUBLIC 34334 0 cocos2d::CCLayer::~CCLayer()
PUBLIC 345fc 0 cocos2d::CCObject::~CCObject()
PUBLIC 34ac8 0 _ZN5geode15UnwrapExceptionC2IRPvQsr4implE18IsStringStreamableIT_EEENS_4impl5OkTagEOS4_
PUBLIC 34c1c 0 std::__ndk1::__variant_detail::__visitation::__base::__dispatcher<(unsigned long)0>::__dispatch[abi:ne180000]<std::__ndk1::__variant_detail::__dtor<std::__ndk1::__variant_detail::__traits<void*, std::__ndk1::basic_string<char, std::__ndk1::char_traits<char>, std::__ndk1::allocator<char> > >, (std::__ndk1::__variant_detail::_Trait)1>::__destroy[abi:ne180000]()::{lambda(auto:1&)#1}, std::__ndk1::__variant_detail::__base<(std::__ndk1::__variant_detail::__traits<void*, std::__ndk1::basic_string<char, std::__ndk1::char_traits<char>, std::__ndk1::allocator<char> > >)1, std::__ndk1::__variant_detail::__traits, std::__ndk1::allocator<char> >&>(std::__ndk1::__variant_detail::__dtor<std::__ndk1::__variant_detail::__traits<void*, std::__ndk1::basic_string<char, std::__ndk1::char_traits<char>, std::__ndk1::allocator<char> > >, (std::__ndk1::__variant_detail::_Trait)1>, std::__ndk1::__variant_detail::__base<(std::__ndk1::__variant_detail::__traits<void*, std::__ndk1::basic_string<char, std::__ndk1::char_traits<char>, std::__ndk1::allocator<char> > >)1, std::__ndk1::__variant_detail::__traits, std::__ndk1::allocator<char> >&)
PUBLIC 34c20 0 std::__ndk1::__variant_detail::__visitation::__base::__dispatcher<(unsigned long)1>::__dispatch[abi:ne180000]<std::__ndk1::__variant_detail::__dtor<std::__ndk1::__variant_detail::__traits<void*, std::__ndk1::basic_string<char, std::__ndk1::char_traits<char>, std::__ndk1::allocator<char> > >, (std::__ndk1::__variant_detail::_Trait)1>::__destroy[abi:ne180000]()::{lambda(auto:1&)#1}, std::__ndk1::__variant_detail::__base<(std::__ndk1::__variant_detail::__traits<void*, std::__ndk1::basic_string<char, std::__ndk1::char_traits<char>, std::__ndk1::allocator<char> > >)1, std::__ndk1::__variant_detail::__traits, std::__ndk1::allocator<char> >&>(std::__ndk1::__variant_detail::__dtor<std::__ndk1::__variant_detail::__traits<void*, std::__ndk1::basic_string<char, std::__ndk1::char_traits<char>, std::__ndk1::allocator<char> > >, (std::__ndk1::__variant_detail::_Trait)1>, std::__ndk1::__variant_detail::__base<(std::__ndk1::__variant_detail::__traits<void*, std::__ndk1::basic_string<char, std::__ndk1::char_traits<char>, std::__ndk1::allocator<char> > >)1, std::__ndk1::__variant_detail::__traits, std::__ndk1::allocator<char> >&)
PUBLIC 34c34 0 std::__ndk1::__hash_table<std::__ndk1::__hash_value_type<void*, bool>, std::__ndk1::__unordered_map_hasher<void*, std::__ndk1::__hash_value_type<void*, bool>, std::__ndk1::hash<void*>, std::__ndk1::equal_to<void*>, true>, std::__ndk1::__unordered_map_equal<void*, std::__ndk1::__hash_value_type<void*, bool>, std::__ndk1::equal_to<void*>, std::__ndk1::hash<void*>, true>, std::__ndk1::allocator<std::__ndk1::__hash_value_type<void*, bool> > >::__emplace_unique_key_args<void*, std::__ndk1::piecewise_construct_t const&, std::__ndk1::tuple<void* const&>, std::__ndk1::tuple<> >(void* const&, std::__ndk1::piecewise_construct_t const&, std::__ndk1::tuple<void* const&>, std::__ndk1::tuple<>)
PUBLIC 35114 0 __udivti3
PUBLIC 35120 0 __udivmodti4
PUBLIC m 3536c 0 __eqtf2
PUBLIC 3540c 0 __unordtf2
PUBLIC 35444 0 fmt::v11::detail::write_loc(fmt::v11::basic_appender<char>, fmt::v11::loc_value, fmt::v11::format_specs const&, fmt::v11::detail::locale_ref)
PUBLIC 356d8 0 fmt::v11::format_facet<std::__ndk1::locale>::~format_facet()
PUBLIC 35754 0 fmt::v11::report_error(char const*)
PUBLIC 357a4 0 fmt::v11::format_error::runtime_error(char const*)
PUBLIC 357d0 0 fmt::v11::format_facet<std::__ndk1::locale>::do_put(fmt::v11::basic_appender<char>, fmt::v11::loc_value, fmt::v11::format_specs const&) const
PUBLIC 35f90 0 fmt::v11::detail::loc_writer<char>::~loc_writer()
PUBLIC 35ff4 0 fmt::v11::detail::vformat_to<char>(fmt::v11::detail::buffer<char>&, fmt::v11::basic_string_view<char>, fmt::v11::detail::vformat_args<char>::type, fmt::v11::detail::locale_ref)
PUBLIC 36564 0 fmt::v11::detail::is_printable(unsigned int)
PUBLIC 3678c 0 fmt::v11::detail::dragonbox::to_decimal<float>(float)
PUBLIC 36a68 0 fmt::v11::detail::dragonbox::to_decimal<double>(double)
PUBLIC 36fa4 0 fmt::v11::basic_memory_buffer<char, (unsigned long)500, std::__ndk1::allocator<char> >::grow(fmt::v11::detail::buffer<char>&, unsigned long)
PUBLIC 3701c 0 fmt::v11::format_facet<std::__ndk1::locale>::~format_facet()
PUBLIC 370a8 0 fmt::v11::format_error::~format_error()
PUBLIC 370cc 0 fmt::v11::detail::copy_noinline<char, char const*, fmt::v11::basic_appender<char> >(char const*, char const*, fmt::v11::basic_appender<char>)
PUBLIC 3721c 0 fmt::v11::detail::default_arg_formatter<char>::operator()<bool>(bool)
PUBLIC 37284 0 fmt::v11::detail::default_arg_formatter<char>::operator()<char>(char)
PUBLIC 37314 0 fmt::v11::detail::default_arg_formatter<char>::operator()<float>(float)
PUBLIC 37400 0 fmt::v11::detail::default_arg_formatter<char>::operator()<double>(double)
PUBLIC 374ec 0 fmt::v11::detail::default_arg_formatter<char>::operator()<char const*>(char const*)
PUBLIC 37534 0 fmt::v11::detail::default_arg_formatter<char>::operator()<void const*>(void const*)
PUBLIC 375cc 0 _ZN3fmt3v116detail5writeIcNS0_14basic_appenderIcEEiTnNSt6__ndk19enable_ifIXaaaasr11is_integralIT1_EE5valuentsr3std7is_sameIS7_bEE5valuentsr3std7is_sameIS7_T_EE5valueEiE4typeELi0EEET0_SB_S7_
PUBLIC 3782c 0 fmt::v11::detail::copy_noinline<char, char*, fmt::v11::basic_appender<char> >(char*, char*, fmt::v11::basic_appender<char>)
PUBLIC 3797c 0 _ZN3fmt3v116detail5writeIcNS0_14basic_appenderIcEEjTnNSt6__ndk19enable_ifIXaaaasr11is_integralIT1_EE5valuentsr3std7is_sameIS7_bEE5valuentsr3std7is_sameIS7_T_EE5valueEiE4typeELi0EEET0_SB_S7_
PUBLIC 37b5c 0 _ZN3fmt3v116detail5writeIcNS0_14basic_appenderIcEExTnNSt6__ndk19enable_ifIXaaaasr11is_integralIT1_EE5valuentsr3std7is_sameIS7_bEE5valuentsr3std7is_sameIS7_T_EE5valueEiE4typeELi0EEET0_SB_S7_
PUBLIC 37de0 0 _ZN3fmt3v116detail5writeIcNS0_14basic_appenderIcEEyTnNSt6__ndk19enable_ifIXaaaasr11is_integralIT1_EE5valuentsr3std7is_sameIS7_bEE5valuentsr3std7is_sameIS7_T_EE5valueEiE4typeELi0EEET0_SB_S7_
PUBLIC 37fe8 0 _ZN3fmt3v116detail5writeIcNS0_14basic_appenderIcEEnTnNSt6__ndk19enable_ifIXaaaasr11is_integralIT1_EE5valuentsr3std7is_sameIS7_bEE5valuentsr3std7is_sameIS7_T_EE5valueEiE4typeELi0EEET0_SB_S7_
PUBLIC 38348 0 _ZN3fmt3v116detail5writeIcNS0_14basic_appenderIcEEoTnNSt6__ndk19enable_ifIXaaaasr11is_integralIT1_EE5valuentsr3std7is_sameIS7_bEE5valuentsr3std7is_sameIS7_T_EE5valueEiE4typeELi0EEET0_SB_S7_
PUBLIC 3865c 0 _ZN3fmt3v116detail5writeIcNS0_14basic_appenderIcEEbTnNSt6__ndk19enable_ifIXsr3std7is_sameIT1_bEE5valueEiE4typeELi0EEET0_SA_S7_RKNS0_12format_specsENS1_10locale_refE
PUBLIC 38910 0 fmt::v11::detail::write_int_noinline<char, fmt::v11::basic_appender<char>, unsigned int>(fmt::v11::basic_appender<char>, fmt::v11::detail::write_int_arg<unsigned int>, fmt::v11::format_specs const&, fmt::v11::detail::locale_ref)
PUBLIC 396f0 0 fmt::v11::detail::write_padded<char, (fmt::v11::align::type)1, fmt::v11::basic_appender<char>, fmt::v11::detail::write_char<char, fmt::v11::basic_appender<char> >(fmt::v11::basic_appender<char>, char, fmt::v11::format_specs const&)::{lambda(fmt::v11::basic_appender<char>&)#1}>(fmt::v11::basic_appender<char>, fmt::v11::format_specs const&, unsigned long, unsigned long, fmt::v11::detail::write_char<char, fmt::v11::basic_appender<char> >(fmt::v11::basic_appender<char>, char, fmt::v11::format_specs const&)::{lambda(fmt::v11::basic_appender<char>&)#1})
PUBLIC 39954 0 fmt::v11::detail::write_padded<char, (fmt::v11::align::type)1, fmt::v11::basic_appender<char>, fmt::v11::detail::write_nonfinite<char, fmt::v11::basic_appender<char> >(fmt::v11::basic_appender<char>, bool, fmt::v11::format_specs, fmt::v11::sign::type)::{lambda(fmt::v11::basic_appender<char>&)#1}>(fmt::v11::basic_appender<char>, fmt::v11::format_specs const&, unsigned long, unsigned long, fmt::v11::detail::write_nonfinite<char, fmt::v11::basic_appender<char> >(fmt::v11::basic_appender<char>, bool, fmt::v11::format_specs, fmt::v11::sign::type)::{lambda(fmt::v11::basic_appender<char>&)#1})
PUBLIC 39bac 0 fmt::v11::detail::do_write_float<char, fmt::v11::basic_appender<char>, fmt::v11::detail::dragonbox::decimal_fp<float>, fmt::v11::detail::digit_grouping<char> >(fmt::v11::basic_appender<char>, fmt::v11::detail::dragonbox::decimal_fp<float> const&, fmt::v11::format_specs const&, fmt::v11::detail::float_specs, fmt::v11::detail::locale_ref)
PUBLIC 3a830 0 fmt::v11::detail::do_write_float<char, fmt::v11::basic_appender<char>, fmt::v11::detail::dragonbox::decimal_fp<float>, fmt::v11::detail::digit_grouping<char> >(fmt::v11::basic_appender<char>, fmt::v11::detail::dragonbox::decimal_fp<float> const&, fmt::v11::format_specs const&, fmt::v11::detail::float_specs, fmt::v11::detail::locale_ref)::{lambda(fmt::v11::basic_appender<char>(fmt::v11::basic_appender<char>))#1}::operator() const
PUBLIC 3a984 0 fmt::v11::detail::digit_grouping<char>::digit_grouping(fmt::v11::detail::locale_ref, bool)
PUBLIC 3abf0 0 fmt::v11::detail::digit_grouping<char>::~digit_grouping()
PUBLIC 3ac34 0 fmt::v11::detail::write_exponent<char, fmt::v11::basic_appender<char> >(int, fmt::v11::basic_appender<char>)
PUBLIC 3ae04 0 _ZN3fmt3v116detail17write_significandIcjTnNSt6__ndk19enable_ifIXsr3std11is_integralIT0_EE5valueEiE4typeELi0EEEPT_S9_S5_iiS8_
PUBLIC 3af80 0 fmt::v11::detail::digit_grouping<char>::apply<fmt::v11::basic_appender<char>, char>(fmt::v11::basic_appender<char>, fmt::v11::basic_string_view<char>) const
PUBLIC 3b338 0 fmt::v11::basic_memory_buffer<int, (unsigned long)500, std::__ndk1::allocator<int> >::grow(fmt::v11::detail::buffer<int>&, unsigned long)
PUBLIC 3b3d8 0 fmt::v11::detail::do_write_float<char, fmt::v11::basic_appender<char>, fmt::v11::detail::dragonbox::decimal_fp<double>, fmt::v11::detail::digit_grouping<char> >(fmt::v11::basic_appender<char>, fmt::v11::detail::dragonbox::decimal_fp<double> const&, fmt::v11::format_specs const&, fmt::v11::detail::float_specs, fmt::v11::detail::locale_ref)
PUBLIC 3c098 0 fmt::v11::detail::do_write_float<char, fmt::v11::basic_appender<char>, fmt::v11::detail::dragonbox::decimal_fp<double>, fmt::v11::detail::digit_grouping<char> >(fmt::v11::basic_appender<char>, fmt::v11::detail::dragonbox::decimal_fp<double> const&, fmt::v11::format_specs const&, fmt::v11::detail::float_specs, fmt::v11::detail::locale_ref)::{lambda(fmt::v11::basic_appender<char>(fmt::v11::basic_appender<char>))#1}::operator() const
PUBLIC 3c1f0 0 _ZN3fmt3v116detail17write_significandIcmTnNSt6__ndk19enable_ifIXsr3std11is_integralIT0_EE5valueEiE4typeELi0EEEPT_S9_S5_iiS8_
PUBLIC 3c380 0 fmt::v11::detail::write_float<char, fmt::v11::basic_appender<char>, long double>(fmt::v11::basic_appender<char>, long double, fmt::v11::format_specs, fmt::v11::detail::locale_ref)
PUBLIC 3ce78 0 fmt::v11::detail::write_padded<char, (fmt::v11::align::type)2, fmt::v11::basic_appender<char>, fmt::v11::detail::write_bytes<char, (fmt::v11::align::type)2, fmt::v11::basic_appender<char> >(fmt::v11::basic_appender<char>, fmt::v11::basic_string_view<char>, fmt::v11::format_specs const&)::{lambda(fmt::v11::basic_appender<char>&)#1}>(fmt::v11::basic_appender<char>, fmt::v11::format_specs const&, unsigned long, unsigned long, fmt::v11::detail::write_bytes<char, (fmt::v11::align::type)2, fmt::v11::basic_appender<char> >(fmt::v11::basic_appender<char>, fmt::v11::basic_string_view<char>, fmt::v11::format_specs const&)::{lambda(fmt::v11::basic_appender<char>&)#1})
PUBLIC 3d06c 0 fmt::v11::detail::format_dragon(fmt::v11::detail::basic_fp<unsigned __int128>, unsigned int, int, fmt::v11::detail::buffer<char>&, int&)
PUBLIC 3e49c 0 fmt::v11::detail::bigint::operator<<=(int)
PUBLIC 3e5c0 0 fmt::v11::detail::bigint::assign_pow10(int)
PUBLIC 3ed1c 0 fmt::v11::detail::bigint::divmod_assign(fmt::v11::detail::bigint const&)
PUBLIC 3f03c 0 fmt::v11::basic_memory_buffer<unsigned int, (unsigned long)32, std::__ndk1::allocator<unsigned int> >::grow(fmt::v11::detail::buffer<unsigned int>&, unsigned long)
PUBLIC 3f0dc 0 fmt::v11::detail::do_write_float<char, fmt::v11::basic_appender<char>, fmt::v11::detail::big_decimal_fp, fmt::v11::detail::digit_grouping<char> >(fmt::v11::basic_appender<char>, fmt::v11::detail::big_decimal_fp const&, fmt::v11::format_specs const&, fmt::v11::detail::float_specs, fmt::v11::detail::locale_ref)
PUBLIC 3ffbc 0 fmt::v11::detail::do_write_float<char, fmt::v11::basic_appender<char>, fmt::v11::detail::big_decimal_fp, fmt::v11::detail::digit_grouping<char> >(fmt::v11::basic_appender<char>, fmt::v11::detail::big_decimal_fp const&, fmt::v11::format_specs const&, fmt::v11::detail::float_specs, fmt::v11::detail::locale_ref)::{lambda(fmt::v11::basic_appender<char>(fmt::v11::basic_appender<char>))#1}::operator() const
PUBLIC 4011c 0 fmt::v11::detail::write_padded<char, (fmt::v11::align::type)2, fmt::v11::basic_appender<char>, fmt::v11::detail::write_ptr<char, fmt::v11::basic_appender<char>, unsigned long>(fmt::v11::basic_appender<char>, unsigned long, fmt::v11::format_specs const*)::{lambda(fmt::v11::basic_appender<char>&)#1}>(fmt::v11::basic_appender<char>, fmt::v11::format_specs const&, unsigned long, unsigned long, fmt::v11::detail::write_ptr<char, fmt::v11::basic_appender<char>, unsigned long>(fmt::v11::basic_appender<char>, unsigned long, fmt::v11::format_specs const*)::{lambda(fmt::v11::basic_appender<char>&)#1})
PUBLIC 40330 0 fmt::v11::detail::parse_replacement_field<char, fmt::v11::detail::vformat_to<char>(fmt::v11::detail::buffer<char>&, fmt::v11::basic_string_view<char>, fmt::v11::detail::vformat_args<char>::type, fmt::v11::detail::locale_ref)::format_handler&>(char const*, char const*, fmt::v11::detail::vformat_to<char>(fmt::v11::detail::buffer<char>&, fmt::v11::basic_string_view<char>, fmt::v11::detail::vformat_args<char>::type, fmt::v11::detail::locale_ref)::format_handler&)
PUBLIC 417e4 0 fmt::v11::detail::write_int_noinline<char, fmt::v11::basic_appender<char>, unsigned long>(fmt::v11::basic_appender<char>, fmt::v11::detail::write_int_arg<unsigned long>, fmt::v11::format_specs const&, fmt::v11::detail::locale_ref)
PUBLIC 42644 0 fmt::v11::detail::write_int_noinline<char, fmt::v11::basic_appender<char>, unsigned __int128>(fmt::v11::basic_appender<char>, fmt::v11::detail::write_int_arg<unsigned __int128>, fmt::v11::format_specs const&, fmt::v11::detail::locale_ref)
PUBLIC 436d4 0 _ZN3fmt3v116detail15format_hexfloatIdTnNSt6__ndk19enable_ifIXntsr16is_double_doubleIT_EE5valueEiE4typeELi0EEEvS5_NS0_12format_specsERNS1_6bufferIcEE
PUBLIC 43bf4 0 fmt::v11::detail::format_float<double>(double, int, fmt::v11::detail::float_specs, fmt::v11::detail::buffer<char>&)
PUBLIC 44594 0 fmt::v11::detail::write_int<fmt::v11::basic_appender<char>, unsigned long, char>(fmt::v11::basic_appender<char>, unsigned long, unsigned int, fmt::v11::format_specs const&, fmt::v11::detail::digit_grouping<char> const&)
PUBLIC 44b10 0 fmt::v11::detail::write_int<fmt::v11::basic_appender<char>, unsigned __int128, char>(fmt::v11::basic_appender<char>, unsigned __int128, unsigned int, fmt::v11::format_specs const&, fmt::v11::detail::digit_grouping<char> const&)
PUBLIC 45190 0 <.plt ELF section in raydeeux.revisedlevelcells.android64.so>
STACK CFI INIT 17390 10 .cfa: sp 0 +
STACK CFI INIT 173a0 8 .cfa: sp 0 +
STACK CFI INIT 173a8 8 .cfa: sp 0 +
STACK CFI INIT 173b0 14 .cfa: sp 0 +
STACK CFI INIT 173c4 1c .cfa: sp 0 +
STACK CFI INIT 173e0 10 .cfa: sp 0 +
STACK CFI INIT 173f0 134 .cfa: sp 0 +
STACK CFI INIT 17524 84 .cfa: sp 0 +
STACK CFI INIT 175a8 f4 .cfa: sp 0 +
STACK CFI INIT 1769c a8 .cfa: sp 0 +
STACK CFI INIT 17744 7c .cfa: sp 0 +
STACK CFI INIT 177c0 14 .cfa: sp 0 +
STACK CFI INIT 177d4 40 .cfa: sp 0 +
STACK CFI INIT 17814 28 .cfa: sp 0 +
STACK CFI INIT 1783c 190 .cfa: sp 0 +
STACK CFI INIT 179cc 2c8 .cfa: sp 0 +
STACK CFI INIT 17c94 8 .cfa: sp 0 +
STACK CFI INIT 17c9c 8 .cfa: sp 0 +
STACK CFI INIT 17ca4 44 .cfa: sp 0 +
STACK CFI INIT 17ce8 e8 .cfa: sp 0 +
STACK CFI INIT 17dd0 e8 .cfa: sp 0 +
STACK CFI INIT 17eb8 14 .cfa: sp 0 +
STACK CFI INIT 17ecc 10 .cfa: sp 0 +
STACK CFI INIT 17edc 10 .cfa: sp 0 +
STACK CFI INIT 17eec f0 .cfa: sp 0 +
STACK CFI INIT 17fdc 44 .cfa: sp 0 +
STACK CFI INIT 18020 c .cfa: sp 0 +
STACK CFI INIT 1802c c .cfa: sp 0 +
STACK CFI INIT 18038 2c .cfa: sp 0 +
STACK CFI INIT 18064 280 .cfa: sp 0 +
STACK CFI INIT 182e4 c .cfa: sp 0 +
STACK CFI INIT 182f0 120 .cfa: sp 0 +
STACK CFI INIT 18410 488 .cfa: sp 0 +
STACK CFI INIT 18898 c48 .cfa: sp 0 +
STACK CFI INIT 194e0 134 .cfa: sp 0 +
STACK CFI INIT 19614 210 .cfa: sp 0 +
STACK CFI INIT 19824 38c .cfa: sp 0 +
STACK CFI INIT 19bb0 1c8 .cfa: sp 0 +
STACK CFI INIT 19d78 9bc .cfa: sp 0 +
STACK CFI INIT 1a734 2d4 .cfa: sp 0 +
STACK CFI INIT 1aa08 134 .cfa: sp 0 +
STACK CFI INIT 1ab3c 120 .cfa: sp 0 +
STACK CFI INIT 1ac5c 1c8 .cfa: sp 0 +
STACK CFI INIT 1ae24 168 .cfa: sp 0 +
STACK CFI INIT 1af8c fc .cfa: sp 0 +
STACK CFI INIT 1b088 30 .cfa: sp 0 +
STACK CFI INIT 1b1f0 30 .cfa: sp 0 +
STACK CFI INIT 1b220 98 .cfa: sp 0 +
STACK CFI INIT 1b2b8 59c .cfa: sp 0 +
STACK CFI INIT 1b854 8c .cfa: sp 0 +
STACK CFI INIT 1b8e0 30 .cfa: sp 0 +
STACK CFI INIT 1bd90 1c .cfa: sp 0 +
STACK CFI INIT 1c1ac 50 .cfa: sp 0 +
STACK CFI 1c1b0 .cfa: sp 32 +
STACK CFI 1c1b8 .cfa: x29 32 + x19: .cfa -16 + ^ .ra: .cfa -24 + ^ x29: .cfa -32 + ^
STACK CFI 1c1d0 .cfa: sp 32 +
STACK CFI 1c1d8 .cfa: sp 0 +
STACK CFI 1c1dc .cfa: x29 32 +
STACK CFI 1c1f0 .cfa: sp 32 +
STACK CFI 1c1f8 .cfa: sp 0 +
STACK CFI INIT 1c270 7c .cfa: sp 0 +
STACK CFI 1c274 .cfa: sp 48 +
STACK CFI 1c280 .cfa: x29 48 + x19: .cfa -8 + ^ x20: .cfa -16 + ^ x21: .cfa -32 + ^ .ra: .cfa -40 + ^ x29: .cfa -48 + ^
STACK CFI 1c2cc .cfa: sp 48 +
STACK CFI 1c2d8 .cfa: sp 0 +
STACK CFI 1c2dc .cfa: sp 48 +
STACK CFI 1c2e8 .cfa: sp 0 +
STACK CFI INIT 1c2ec 4 .cfa: sp 0 +
STACK CFI INIT 1c2f0 10 .cfa: sp 0 +
STACK CFI 1c2f4 .cfa: sp 16 +
STACK CFI 1c2f8 .cfa: x29 16 + .ra: .cfa -8 + ^ x29: .cfa -16 + ^
STACK CFI INIT 1c454 34 .cfa: sp 0 +
STACK CFI 1c458 .cfa: sp 16 +
STACK CFI 1c45c .cfa: x29 16 + .ra: .cfa -8 + ^ x29: .cfa -16 + ^
STACK CFI INIT 1c5b4 80 .cfa: sp 0 +
STACK CFI 1c5b8 .cfa: sp 48 +
STACK CFI 1c5c4 .cfa: x29 48 + x19: .cfa -8 + ^ x20: .cfa -16 + ^ x21: .cfa -32 + ^ .ra: .cfa -40 + ^ x29: .cfa -48 + ^
STACK CFI 1c624 .cfa: sp 48 +
STACK CFI 1c630 .cfa: sp 0 +
STACK CFI INIT 1c634 24 .cfa: sp 0 +
STACK CFI 1c638 .cfa: sp 32 +
STACK CFI 1c640 .cfa: x29 32 + x19: .cfa -16 + ^ .ra: .cfa -24 + ^ x29: .cfa -32 + ^
STACK CFI 1c64c .cfa: sp 32 +
STACK CFI 1c654 .cfa: sp 0 +
STACK CFI INIT 1c9d8 14 .cfa: sp 0 +
STACK CFI 1c9dc .cfa: sp 16 +
STACK CFI 1c9e0 .cfa: x29 16 + .ra: .cfa -8 + ^ x29: .cfa -16 + ^
STACK CFI INIT 1ca3c 30 .cfa: sp 0 +
STACK CFI 1ca40 .cfa: sp 32 +
STACK CFI 1ca48 .cfa: x29 32 + x19: .cfa -16 + ^ .ra: .cfa -24 + ^ x29: .cfa -32 + ^
STACK CFI 1ca60 .cfa: sp 32 +
STACK CFI 1ca68 .cfa: sp 0 +
STACK CFI INIT 1ca6c 34 .cfa: sp 0 +
STACK CFI 1ca70 .cfa: sp 32 +
STACK CFI 1ca78 .cfa: x29 32 + x19: .cfa -16 + ^ .ra: .cfa -24 + ^ x29: .cfa -32 + ^
STACK CFI INIT 1cc18 148 .cfa: sp 0 +
STACK CFI 1cc1c .cfa: sp 48 +
STACK CFI 1cc28 .cfa: x29 48 + x19: .cfa -8 + ^ x20: .cfa -16 + ^ x21: .cfa -32 + ^ .ra: .cfa -40 + ^ x29: .cfa -48 + ^
STACK CFI 1cd50 .cfa: sp 48 +
STACK CFI 1cd5c .cfa: sp 0 +
STACK CFI INIT 1cf88 80 .cfa: sp 0 +
STACK CFI 1cf8c .cfa: sp 48 +
STACK CFI 1cf98 .cfa: x29 48 + x19: .cfa -8 + ^ x20: .cfa -16 + ^ x21: .cfa -24 + ^ x22: .cfa -32 + ^ .ra: .cfa -40 + ^ x29: .cfa -48 + ^
STACK CFI 1cfb0 .cfa: sp 48 +
STACK CFI 1cfbc .cfa: sp 0 +
STACK CFI 1cfc0 .cfa: x29 48 +
STACK CFI 1cff0 .cfa: sp 48 +
STACK CFI 1cffc .cfa: sp 0 +
STACK CFI 1d000 .cfa: x29 48 +
STACK CFI INIT 1d008 68 .cfa: sp 0 +
STACK CFI 1d00c .cfa: sp 32 +
STACK CFI 1d014 .cfa: x29 32 + x19: .cfa -8 + ^ x20: .cfa -16 + ^ .ra: .cfa -24 + ^ x29: .cfa -32 + ^
STACK CFI 1d02c .cfa: sp 32 +
STACK CFI 1d034 .cfa: sp 0 +
STACK CFI 1d038 .cfa: x29 32 +
STACK CFI 1d064 .cfa: sp 32 +
STACK CFI 1d06c .cfa: sp 0 +
STACK CFI INIT 1d070 14 .cfa: sp 0 +
STACK CFI 1d074 .cfa: sp 16 +
STACK CFI 1d078 .cfa: x29 16 + .ra: .cfa -8 + ^ x29: .cfa -16 + ^
STACK CFI INIT 1d084 4 .cfa: sp 0 +
STACK CFI INIT 1d088 14 .cfa: sp 0 +
STACK CFI INIT 1d09c 120 .cfa: sp 0 +
STACK CFI 1d0a0 .cfa: sp 64 +
STACK CFI 1d0b0 .cfa: x29 64 + x19: .cfa -8 + ^ x20: .cfa -16 + ^ x21: .cfa -24 + ^ x22: .cfa -32 + ^ x23: .cfa -40 + ^ x24: .cfa -48 + ^ .ra: .cfa -56 + ^ x29: .cfa -64 + ^
STACK CFI 1d1a8 .cfa: sp 64 +
STACK CFI 1d1b8 .cfa: sp 0 +
STACK CFI INIT 1d1bc d4 .cfa: sp 0 +
STACK CFI 1d1c0 .cfa: sp 48 +
STACK CFI 1d1cc .cfa: x29 48 + x19: .cfa -8 + ^ x20: .cfa -16 + ^ x21: .cfa -32 + ^ .ra: .cfa -40 + ^ x29: .cfa -48 + ^
STACK CFI 1d25c .cfa: sp 48 +
STACK CFI 1d268 .cfa: sp 0 +
STACK CFI 1d26c .cfa: x29 48 +
STACK CFI INIT 1d290 3c8 .cfa: sp 0 +
STACK CFI INIT 1d658 8c .cfa: sp 0 +
STACK CFI 1d660 .cfa: sp 32 +
STACK CFI 1d668 .cfa: x29 32 + x19: .cfa -8 + ^ x20: .cfa -16 + ^ .ra: .cfa -24 + ^ x29: .cfa -32 + ^
STACK CFI 1d6b0 .cfa: sp 32 +
STACK CFI 1d6b8 .cfa: sp 0 +
STACK CFI 1d6c0 .cfa: x29 32 +
STACK CFI INIT 1d830 50 .cfa: sp 0 +
STACK CFI 1d834 .cfa: sp 32 +
STACK CFI 1d83c .cfa: x29 32 + x19: .cfa -16 + ^ .ra: .cfa -24 + ^ x29: .cfa -32 + ^
STACK CFI 1d854 .cfa: sp 32 +
STACK CFI 1d85c .cfa: sp 0 +
STACK CFI 1d860 .cfa: x29 32 +
STACK CFI 1d874 .cfa: sp 32 +
STACK CFI 1d87c .cfa: sp 0 +
STACK CFI INIT 1d880 64 .cfa: sp 0 +
STACK CFI 1d884 .cfa: sp 32 +
STACK CFI 1d88c .cfa: x29 32 + x19: .cfa -16 + ^ .ra: .cfa -24 + ^ x29: .cfa -32 + ^
STACK CFI 1d8b8 .cfa: sp 32 +
STACK CFI 1d8c0 .cfa: sp 0 +
STACK CFI 1d8c4 .cfa: x29 32 +
STACK CFI 1d8d8 .cfa: sp 32 +
STACK CFI 1d8e0 .cfa: sp 0 +
STACK CFI INIT 1d8e4 14 .cfa: sp 0 +
STACK CFI 1d8e8 .cfa: sp 16 +
STACK CFI 1d8ec .cfa: x29 16 + .ra: .cfa -8 + ^ x29: .cfa -16 + ^
STACK CFI INIT 1d8f8 178 .cfa: sp 0 +
STACK CFI 1d8fc .cfa: sp 80 +
STACK CFI 1d910 .cfa: x29 80 + x19: .cfa -8 + ^ x20: .cfa -16 + ^ x21: .cfa -24 + ^ x22: .cfa -32 + ^ x23: .cfa -40 + ^ x24: .cfa -48 + ^ x25: .cfa -56 + ^ x26: .cfa -64 + ^ .ra: .cfa -72 + ^ x29: .cfa -80 + ^
STACK CFI 1da58 .cfa: sp 80 +
STACK CFI 1da6c .cfa: sp 0 +
STACK CFI INIT 1da70 1b0 .cfa: sp 0 +
STACK CFI INIT 1e190 1c .cfa: sp 0 +
STACK CFI INIT 1ede8 4 .cfa: sp 0 +
STACK CFI INIT 1f174 9c .cfa: sp 0 +
STACK CFI 1f178 .cfa: sp 48 +
STACK CFI 1f184 .cfa: x29 48 + x19: .cfa -8 + ^ x20: .cfa -16 + ^ x21: .cfa -24 + ^ x22: .cfa -32 + ^ .ra: .cfa -40 + ^ x29: .cfa -48 + ^
STACK CFI 1f1b8 .cfa: sp 48 +
STACK CFI 1f1c4 .cfa: sp 0 +
STACK CFI 1f1c8 .cfa: x29 48 +
STACK CFI 1f1f8 .cfa: sp 48 +
STACK CFI 1f204 .cfa: sp 0 +
STACK CFI 1f208 .cfa: x29 48 +
STACK CFI INIT 1f210 7c .cfa: sp 0 +
STACK CFI 1f214 .cfa: sp 32 +
STACK CFI 1f21c .cfa: x29 32 + x19: .cfa -8 + ^ x20: .cfa -16 + ^ .ra: .cfa -24 + ^ x29: .cfa -32 + ^
STACK CFI 1f274 .cfa: sp 32 +
STACK CFI 1f27c .cfa: sp 0 +
STACK CFI 1f280 .cfa: sp 32 +
STACK CFI 1f288 .cfa: sp 0 +
STACK CFI INIT 1f3f4 4 .cfa: sp 0 +
STACK CFI INIT 1f3f8 14 .cfa: sp 0 +
STACK CFI INIT 219b8 8 .cfa: sp 0 +
STACK CFI INIT 219c0 5c .cfa: sp 0 +
STACK CFI 219c4 .cfa: sp 32 +
STACK CFI 219cc .cfa: x29 32 + x19: .cfa -16 + ^ .ra: .cfa -24 + ^ x29: .cfa -32 + ^
STACK CFI 21a10 .cfa: sp 32 +
STACK CFI 21a18 .cfa: sp 0 +
STACK CFI INIT 21a1c 64 .cfa: sp 0 +
STACK CFI 21a20 .cfa: sp 32 +
STACK CFI 21a28 .cfa: x29 32 + x19: .cfa -16 + ^ .ra: .cfa -24 + ^ x29: .cfa -32 + ^
STACK CFI 21a74 .cfa: sp 32 +
STACK CFI 21a7c .cfa: sp 0 +
STACK CFI INIT 21a80 60 .cfa: sp 0 +
STACK CFI 21a84 .cfa: sp 32 +
STACK CFI 21a8c .cfa: x29 32 + x19: .cfa -8 + ^ x20: .cfa -16 + ^ .ra: .cfa -24 + ^ x29: .cfa -32 + ^
STACK CFI 21ad4 .cfa: sp 32 +
STACK CFI 21adc .cfa: sp 0 +
STACK CFI INIT 21ae0 68 .cfa: sp 0 +
STACK CFI 21ae4 .cfa: sp 32 +
STACK CFI 21aec .cfa: x29 32 + x19: .cfa -8 + ^ x20: .cfa -16 + ^ .ra: .cfa -24 + ^ x29: .cfa -32 + ^
STACK CFI 21b3c .cfa: sp 32 +
STACK CFI 21b44 .cfa: sp 0 +
STACK CFI INIT 21b48 4 .cfa: sp 0 +
STACK CFI INIT 21b4c 4 .cfa: sp 0 +
STACK CFI INIT 21b50 4 .cfa: sp 0 +
STACK CFI INIT 21b54 4 .cfa: sp 0 +
STACK CFI INIT 221b0 4 .cfa: sp 0 +
STACK CFI INIT 221b4 14 .cfa: sp 0 +
STACK CFI 221b8 .cfa: sp 16 +
STACK CFI 221bc .cfa: x29 16 + .ra: .cfa -8 + ^ x29: .cfa -16 + ^
STACK CFI INIT 221c8 14 .cfa: sp 0 +
STACK CFI 221cc .cfa: sp 16 +
STACK CFI 221d0 .cfa: x29 16 + .ra: .cfa -8 + ^ x29: .cfa -16 + ^
STACK CFI INIT 221dc c .cfa: sp 0 +
STACK CFI 221e0 .cfa: sp 16 +
STACK CFI 221e4 .cfa: x29 16 + .ra: .cfa -8 + ^ x29: .cfa -16 + ^
STACK CFI INIT 22238 30 .cfa: sp 0 +
STACK CFI 2223c .cfa: sp 32 +
STACK CFI 22244 .cfa: x29 32 + x19: .cfa -16 + ^ .ra: .cfa -24 + ^ x29: .cfa -32 + ^
STACK CFI 2225c .cfa: sp 32 +
STACK CFI 22264 .cfa: sp 0 +
STACK CFI INIT 22268 c .cfa: sp 0 +
STACK CFI 2226c .cfa: sp 16 +
STACK CFI 22270 .cfa: x29 16 + .ra: .cfa -8 + ^ x29: .cfa -16 + ^
STACK CFI INIT 22274 4 .cfa: sp 0 +
STACK CFI INIT 22278 4 .cfa: sp 0 +
STACK CFI INIT 2227c 38 .cfa: sp 0 +
STACK CFI 22280 .cfa: sp 32 +
STACK CFI 22288 .cfa: x29 32 + x19: .cfa -16 + ^ .ra: .cfa -24 + ^ x29: .cfa -32 + ^
STACK CFI 222a8 .cfa: sp 32 +
STACK CFI 222b0 .cfa: sp 0 +
STACK CFI INIT 222b4 18 .cfa: sp 0 +
STACK CFI INIT 222cc 4 .cfa: sp 0 +
STACK CFI INIT 222d0 4 .cfa: sp 0 +
STACK CFI INIT 222d4 10 .cfa: sp 0 +
STACK CFI INIT 222e4 1c .cfa: sp 0 +
STACK CFI INIT 22300 c .cfa: sp 0 +
STACK CFI INIT 2230c 104 .cfa: sp 0 +
STACK CFI 22310 .cfa: sp 64 +
STACK CFI 22320 .cfa: x29 64 + x19: .cfa -8 + ^ x20: .cfa -16 + ^ x21: .cfa -24 + ^ x22: .cfa -32 + ^ x23: .cfa -48 + ^ .ra: .cfa -56 + ^ x29: .cfa -64 + ^
STACK CFI 2237c .cfa: sp 64 +
STACK CFI 2238c .cfa: sp 0 +
STACK CFI 22390 .cfa: x29 64 +
STACK CFI 223ac .cfa: sp 64 +
STACK CFI 223bc .cfa: sp 0 +
STACK CFI 223c0 .cfa: x29 64 +
STACK CFI 223fc .cfa: sp 64 +
STACK CFI 2240c .cfa: sp 0 +
STACK CFI INIT 22510 4 .cfa: sp 0 +
STACK CFI INIT 22514 14 .cfa: sp 0 +
STACK CFI INIT 22528 98 .cfa: sp 0 +
STACK CFI 2252c .cfa: sp 304 +
STACK CFI 22538 .cfa: x29 32 + x19: .cfa -8 + ^ x28: .cfa -16 + ^ .ra: .cfa -24 + ^ x29: .cfa -32 + ^
STACK CFI 225ac .cfa: sp 304 +
STACK CFI 225b8 .cfa: sp 0 +
STACK CFI 225bc .cfa: x29 32 +
STACK CFI INIT 23f94 60 .cfa: sp 0 +
STACK CFI 23f98 .cfa: sp 32 +
STACK CFI 23fa0 .cfa: x29 32 + x19: .cfa -8 + ^ x20: .cfa -16 + ^ .ra: .cfa -24 + ^ x29: .cfa -32 + ^
STACK CFI 23fc0 .cfa: sp 32 +
STACK CFI 23fc8 .cfa: sp 0 +
STACK CFI 23fcc .cfa: x29 32 +
STACK CFI 23fe8 .cfa: sp 32 +
STACK CFI 23ff0 .cfa: sp 0 +
STACK CFI INIT 23ff4 104 .cfa: sp 0 +
STACK CFI 23ff8 .cfa: sp 80 +
STACK CFI 2400c .cfa: x29 80 + x19: .cfa -8 + ^ x20: .cfa -16 + ^ x21: .cfa -24 + ^ x22: .cfa -32 + ^ x23: .cfa -40 + ^ x24: .cfa -48 + ^ x25: .cfa -56 + ^ x26: .cfa -64 + ^ .ra: .cfa -72 + ^ x29: .cfa -80 + ^
STACK CFI 240d8 .cfa: sp 80 +
STACK CFI 240ec .cfa: sp 0 +
STACK CFI 240f0 .cfa: x29 80 +
STACK CFI INIT 242cc 4b4 .cfa: sp 0 +
STACK CFI 242d0 .cfa: sp 96 +
STACK CFI 242e8 .cfa: x29 96 + x19: .cfa -8 + ^ x20: .cfa -16 + ^ x21: .cfa -24 + ^ x22: .cfa -32 + ^ x23: .cfa -40 + ^ x24: .cfa -48 + ^ x25: .cfa -56 + ^ x26: .cfa -64 + ^ x27: .cfa -72 + ^ x28: .cfa -80 + ^ .ra: .cfa -88 + ^ x29: .cfa -96 + ^
STACK CFI 24730 .cfa: sp 96 +
STACK CFI 24748 .cfa: sp 0 +
STACK CFI 2474c .cfa: x29 96 +
STACK CFI INIT 24780 1a4 .cfa: sp 0 +
STACK CFI 24784 .cfa: sp 64 +
STACK CFI 24790 .cfa: x29 32 + x19: .cfa -8 + ^ x20: .cfa -16 + ^ .ra: .cfa -24 + ^ x29: .cfa -32 + ^
STACK CFI 248bc .cfa: sp 64 +
STACK CFI 248c8 .cfa: sp 0 +
STACK CFI 248cc .cfa: x29 32 +
STACK CFI INIT 24924 194 .cfa: sp 0 +
STACK CFI 24928 .cfa: sp 16 +
STACK CFI 2492c .cfa: x29 16 + .ra: .cfa -8 + ^ x29: .cfa -16 + ^
STACK CFI 249c4 .cfa: sp 16 +
STACK CFI 249c8 .cfa: sp 0 +
STACK CFI 249cc .cfa: x29 16 +
STACK CFI 24a98 .cfa: sp 16 +
STACK CFI 24a9c .cfa: sp 0 +
STACK CFI 24aa0 .cfa: x29 16 +
STACK CFI INIT 24ab8 114 .cfa: sp 0 +
STACK CFI 24abc .cfa: sp 128 +
STACK CFI 24acc .cfa: x29 48 + x19: .cfa -8 + ^ x20: .cfa -16 + ^ x21: .cfa -32 + ^ .ra: .cfa -40 + ^ x29: .cfa -48 + ^
STACK CFI 24b98 .cfa: sp 128 +
STACK CFI 24ba8 .cfa: sp 0 +
STACK CFI 24bac .cfa: x29 48 +
STACK CFI INIT 24bcc 114 .cfa: sp 0 +
STACK CFI 24bd0 .cfa: sp 128 +
STACK CFI 24be0 .cfa: x29 48 + x19: .cfa -8 + ^ x20: .cfa -16 + ^ x21: .cfa -32 + ^ .ra: .cfa -40 + ^ x29: .cfa -48 + ^
STACK CFI 24cac .cfa: sp 128 +
STACK CFI 24cbc .cfa: sp 0 +
STACK CFI 24cc0 .cfa: x29 48 +
STACK CFI INIT 24ce0 27c .cfa: sp 0 +
STACK CFI 24ce4 .cfa: sp 176 +
STACK CFI 24d00 .cfa: x29 96 + x19: .cfa -8 + ^ x20: .cfa -16 + ^ x21: .cfa -24 + ^ x22: .cfa -32 + ^ x23: .cfa -40 + ^ x24: .cfa -48 + ^ x25: .cfa -56 + ^ x26: .cfa -64 + ^ x27: .cfa -72 + ^ x28: .cfa -80 + ^ .ra: .cfa -88 + ^ x29: .cfa -96 + ^
STACK CFI 24f38 .cfa: sp 176 +
STACK CFI 24f54 .cfa: sp 0 +
STACK CFI 24f58 .cfa: x29 96 +
STACK CFI INIT 24f5c 520 .cfa: sp 0 +
STACK CFI 24f60 .cfa: sp 176 +
STACK CFI 24f7c .cfa: x29 96 + x19: .cfa -8 + ^ x20: .cfa -16 + ^ x21: .cfa -24 + ^ x22: .cfa -32 + ^ x23: .cfa -40 + ^ x24: .cfa -48 + ^ x25: .cfa -56 + ^ x26: .cfa -64 + ^ x27: .cfa -72 + ^ x28: .cfa -80 + ^ .ra: .cfa -88 + ^ x29: .cfa -96 + ^
STACK CFI 25458 .cfa: sp 176 +
STACK CFI 25474 .cfa: sp 0 +
STACK CFI 25478 .cfa: x29 96 +
STACK CFI INIT 2547c 20c .cfa: sp 0 +
STACK CFI 25480 .cfa: sp 80 +
STACK CFI 25494 .cfa: x29 80 + x19: .cfa -8 + ^ x20: .cfa -16 + ^ x21: .cfa -24 + ^ x22: .cfa -32 + ^ x23: .cfa -40 + ^ x24: .cfa -48 + ^ x25: .cfa -64 + ^ .ra: .cfa -72 + ^ x29: .cfa -80 + ^
STACK CFI 25524 .cfa: sp 80 +
STACK CFI 25538 .cfa: sp 0 +
STACK CFI 2553c .cfa: x29 80 +
STACK CFI 25548 .cfa: sp 80 +
STACK CFI 2555c .cfa: sp 0 +
STACK CFI 25560 .cfa: x29 80 +
STACK CFI INIT 25688 428 .cfa: sp 0 +
STACK CFI 2568c .cfa: sp 128 +
STACK CFI 256a8 .cfa: x29 96 + x19: .cfa -8 + ^ x20: .cfa -16 + ^ x21: .cfa -24 + ^ x22: .cfa -32 + ^ x23: .cfa -40 + ^ x24: .cfa -48 + ^ x25: .cfa -56 + ^ x26: .cfa -64 + ^ x27: .cfa -72 + ^ x28: .cfa -80 + ^ .ra: .cfa -88 + ^ x29: .cfa -96 + ^
STACK CFI 25a8c .cfa: sp 128 +
STACK CFI 25aa8 .cfa: sp 0 +
STACK CFI 25aac .cfa: x29 96 +
STACK CFI INIT 25ab0 194 .cfa: sp 0 +
STACK CFI 25ab4 .cfa: sp 32 +
STACK CFI 25abc .cfa: x29 16 + .ra: .cfa -8 + ^ x29: .cfa -16 + ^
STACK CFI 25b00 .cfa: sp 32 +
STACK CFI 25b08 .cfa: sp 0 +
STACK CFI 25b0c .cfa: x29 16 +
STACK CFI INIT 25c44 1b8 .cfa: sp 0 +
STACK CFI INIT 25dfc 1d0 .cfa: sp 0 +
STACK CFI 25e00 .cfa: sp 80 +
STACK CFI 25e14 .cfa: x29 80 + x19: .cfa -8 + ^ x20: .cfa -16 + ^ x21: .cfa -24 + ^ x22: .cfa -32 + ^ x23: .cfa -40 + ^ x24: .cfa -48 + ^ x25: .cfa -64 + ^ .ra: .cfa -72 + ^ x29: .cfa -80 + ^
STACK CFI 25fb4 .cfa: sp 80 +
STACK CFI 25fc8 .cfa: sp 0 +
STACK CFI INIT 25fcc 67c .cfa: sp 0 +
STACK CFI 25fd0 .cfa: sp 176 +
STACK CFI 25fec .cfa: x29 96 + x19: .cfa -8 + ^ x20: .cfa -16 + ^ x21: .cfa -24 + ^ x22: .cfa -32 + ^ x23: .cfa -40 + ^ x24: .cfa -48 + ^ x25: .cfa -56 + ^ x26: .cfa -64 + ^ x27: .cfa -72 + ^ x28: .cfa -80 + ^ .ra: .cfa -88 + ^ x29: .cfa -96 + ^
STACK CFI 26624 .cfa: sp 176 +
STACK CFI 26640 .cfa: sp 0 +
STACK CFI 26644 .cfa: x29 96 +
STACK CFI INIT 26648 1e4 .cfa: sp 0 +
STACK CFI 2664c .cfa: sp 32 +
STACK CFI 26654 .cfa: x29 32 + x19: .cfa -8 + ^ x20: .cfa -16 + ^ .ra: .cfa -24 + ^ x29: .cfa -32 + ^
STACK CFI 26744 .cfa: sp 32 +
STACK CFI 2674c .cfa: sp 0 +
STACK CFI 26750 .cfa: x29 32 +
STACK CFI 267c4 .cfa: sp 32 +
STACK CFI 267cc .cfa: sp 0 +
STACK CFI 267d0 .cfa: x29 32 +
STACK CFI 267e0 .cfa: sp 32 +
STACK CFI 267e8 .cfa: sp 0 +
STACK CFI 267ec .cfa: x29 32 +
STACK CFI 267fc .cfa: sp 32 +
STACK CFI 26804 .cfa: sp 0 +
STACK CFI 26808 .cfa: x29 32 +
STACK CFI INIT 2682c 178 .cfa: sp 0 +
STACK CFI 26830 .cfa: sp 80 +
STACK CFI 26844 .cfa: x29 64 + x19: .cfa -8 + ^ x20: .cfa -16 + ^ x21: .cfa -24 + ^ x22: .cfa -32 + ^ x23: .cfa -40 + ^ x24: .cfa -48 + ^ .ra: .cfa -56 + ^ x29: .cfa -64 + ^
STACK CFI 26988 .cfa: sp 80 +
STACK CFI 2699c .cfa: sp 0 +
STACK CFI 269a0 .cfa: x29 64 +
STACK CFI INIT 269a4 178 .cfa: sp 0 +
STACK CFI 269a8 .cfa: sp 80 +
STACK CFI 269bc .cfa: x29 64 + x19: .cfa -8 + ^ x20: .cfa -16 + ^ x21: .cfa -24 + ^ x22: .cfa -32 + ^ x23: .cfa -40 + ^ x24: .cfa -48 + ^ .ra: .cfa -56 + ^ x29: .cfa -64 + ^
STACK CFI 26b00 .cfa: sp 80 +
STACK CFI 26b14 .cfa: sp 0 +
STACK CFI 26b18 .cfa: x29 64 +
STACK CFI INIT 26b1c 178 .cfa: sp 0 +
STACK CFI 26b20 .cfa: sp 80 +
STACK CFI 26b34 .cfa: x29 64 + x19: .cfa -8 + ^ x20: .cfa -16 + ^ x21: .cfa -24 + ^ x22: .cfa -32 + ^ x23: .cfa -40 + ^ x24: .cfa -48 + ^ .ra: .cfa -56 + ^ x29: .cfa -64 + ^
STACK CFI 26c78 .cfa: sp 80 +
STACK CFI 26c8c .cfa: sp 0 +
STACK CFI 26c90 .cfa: x29 64 +
STACK CFI INIT 26c94 94 .cfa: sp 0 +
STACK CFI 26c98 .cfa: sp 16 +
STACK CFI 26c9c .cfa: x29 16 + .ra: .cfa -8 + ^ x29: .cfa -16 + ^
STACK CFI 26cf0 .cfa: sp 16 +
STACK CFI 26cf4 .cfa: sp 0 +
STACK CFI 26cf8 .cfa: x29 16 +
STACK CFI INIT 26d28 158 .cfa: sp 0 +
STACK CFI 26d2c .cfa: sp 112 +
STACK CFI 26d48 .cfa: x29 96 + x19: .cfa -8 + ^ x20: .cfa -16 + ^ x21: .cfa -24 + ^ x22: .cfa -32 + ^ x23: .cfa -40 + ^ x24: .cfa -48 + ^ x25: .cfa -56 + ^ x26: .cfa -64 + ^ x27: .cfa -72 + ^ x28: .cfa -80 + ^ .ra: .cfa -88 + ^ x29: .cfa -96 + ^
STACK CFI 26e30 .cfa: sp 112 +
STACK CFI 26e34 .cfa: x29 96 +
STACK CFI 26e3c .cfa: sp 112 +
STACK CFI 26e58 .cfa: sp 0 +
STACK CFI 26e5c .cfa: x29 96 +
STACK CFI 26e7c .cfa: sp 112 +
STACK CFI INIT 26e80 94 .cfa: sp 0 +
STACK CFI 26e84 .cfa: sp 16 +
STACK CFI 26e88 .cfa: x29 16 + .ra: .cfa -8 + ^ x29: .cfa -16 + ^
STACK CFI 26edc .cfa: sp 16 +
STACK CFI 26ee0 .cfa: sp 0 +
STACK CFI 26ee4 .cfa: x29 16 +
STACK CFI INIT 26f14 26c .cfa: sp 0 +
STACK CFI 26f18 .cfa: sp 80 +
STACK CFI 26f2c .cfa: x29 80 + x19: .cfa -8 + ^ x20: .cfa -16 + ^ x21: .cfa -24 + ^ x22: .cfa -32 + ^ x23: .cfa -40 + ^ x24: .cfa -48 + ^ x25: .cfa -64 + ^ .ra: .cfa -72 + ^ x29: .cfa -80 + ^
STACK CFI 27060 .cfa: sp 80 +
STACK CFI 27074 .cfa: sp 0 +
STACK CFI 27078 .cfa: x29 80 +
STACK CFI 27168 .cfa: sp 80 +
STACK CFI 2717c .cfa: sp 0 +
STACK CFI INIT 27180 318 .cfa: sp 0 +
STACK CFI 27184 .cfa: sp 128 +
STACK CFI 271a0 .cfa: x29 96 + x19: .cfa -8 + ^ x20: .cfa -16 + ^ x21: .cfa -24 + ^ x22: .cfa -32 + ^ x23: .cfa -40 + ^ x24: .cfa -48 + ^ x25: .cfa -56 + ^ x26: .cfa -64 + ^ x27: .cfa -72 + ^ x28: .cfa -80 + ^ .ra: .cfa -88 + ^ x29: .cfa -96 + ^
STACK CFI 27470 .cfa: sp 128 +
STACK CFI 2748c .cfa: sp 0 +
STACK CFI 27490 .cfa: x29 96 +
STACK CFI INIT 27498 1d0 .cfa: sp 0 +
STACK CFI 2749c .cfa: sp 48 +
STACK CFI 274a8 .cfa: x29 48 + x19: .cfa -8 + ^ x20: .cfa -16 + ^ x21: .cfa -24 + ^ x22: .cfa -32 + ^ .ra: .cfa -40 + ^ x29: .cfa -48 + ^
STACK CFI 27638 .cfa: sp 48 +
STACK CFI 27644 .cfa: sp 0 +
STACK CFI 27648 .cfa: x29 48 +
STACK CFI 27654 .cfa: sp 48 +
STACK CFI 27660 .cfa: sp 0 +
STACK CFI 27664 .cfa: x29 48 +
STACK CFI INIT 2935c 44 .cfa: sp 0 +
STACK CFI 29360 .cfa: sp 32 +
STACK CFI 29368 .cfa: x29 32 + x19: .cfa -16 + ^ .ra: .cfa -24 + ^ x29: .cfa -32 + ^
STACK CFI 29388 .cfa: sp 32 +
STACK CFI 29390 .cfa: sp 0 +
STACK CFI 29394 .cfa: sp 32 +
STACK CFI 2939c .cfa: sp 0 +
STACK CFI INIT 295a8 98 .cfa: sp 0 +
STACK CFI 295ac .cfa: sp 48 +
STACK CFI 295b8 .cfa: x29 48 + x19: .cfa -8 + ^ x20: .cfa -16 + ^ x21: .cfa -32 + ^ .ra: .cfa -40 + ^ x29: .cfa -48 + ^
STACK CFI 295d8 .cfa: sp 48 +
STACK CFI 295e4 .cfa: sp 0 +
STACK CFI 295e8 .cfa: x29 48 +
STACK CFI 29620 .cfa: sp 48 +
STACK CFI 2962c .cfa: sp 0 +
STACK CFI 29630 .cfa: sp 48 +
STACK CFI 2963c .cfa: sp 0 +
STACK CFI INIT 29640 1dc .cfa: sp 0 +
STACK CFI 29644 .cfa: sp 48 +
STACK CFI 29650 .cfa: x29 48 + x19: .cfa -8 + ^ x20: .cfa -16 + ^ x21: .cfa -24 + ^ x22: .cfa -32 + ^ .ra: .cfa -40 + ^ x29: .cfa -48 + ^
STACK CFI 29804 .cfa: sp 48 +
STACK CFI 29810 .cfa: sp 0 +
STACK CFI 29814 .cfa: x29 48 +
STACK CFI INIT 2981c 14 .cfa: sp 0 +
STACK CFI 29820 .cfa: sp 16 +
STACK CFI 29824 .cfa: x29 16 + .ra: .cfa -8 + ^ x29: .cfa -16 + ^
STACK CFI INIT 29830 1a8 .cfa: sp 0 +
STACK CFI 29834 .cfa: sp 64 +
STACK CFI 29844 .cfa: x29 64 + x19: .cfa -8 + ^ x20: .cfa -16 + ^ x21: .cfa -24 + ^ x22: .cfa -32 + ^ x23: .cfa -40 + ^ x24: .cfa -48 + ^ .ra: .cfa -56 + ^ x29: .cfa -64 + ^
STACK CFI 299a8 .cfa: sp 64 +
STACK CFI 299b8 .cfa: sp 0 +
STACK CFI 299bc .cfa: sp 64 +
STACK CFI 299cc .cfa: sp 0 +
STACK CFI 299d0 .cfa: x29 64 +
STACK CFI INIT 299d8 14 .cfa: sp 0 +
STACK CFI 299dc .cfa: sp 16 +
STACK CFI 299e0 .cfa: x29 16 + .ra: .cfa -8 + ^ x29: .cfa -16 + ^
STACK CFI INIT 299ec 12c .cfa: sp 0 +
STACK CFI 299f0 .cfa: sp 64 +
STACK CFI 29a00 .cfa: x29 64 + x19: .cfa -8 + ^ x20: .cfa -16 + ^ x21: .cfa -24 + ^ x22: .cfa -32 + ^ x23: .cfa -40 + ^ x24: .cfa -48 + ^ .ra: .cfa -56 + ^ x29: .cfa -64 + ^
STACK CFI 29ae8 .cfa: sp 64 +
STACK CFI 29af8 .cfa: sp 0 +
STACK CFI 29afc .cfa: sp 64 +
STACK CFI 29b0c .cfa: sp 0 +
STACK CFI 29b10 .cfa: x29 64 +
STACK CFI INIT 29b18 14 .cfa: sp 0 +
STACK CFI 29b1c .cfa: sp 16 +
STACK CFI 29b20 .cfa: x29 16 + .ra: .cfa -8 + ^ x29: .cfa -16 + ^
STACK CFI INIT 29b2c 1c8 .cfa: sp 0 +
STACK CFI 29b30 .cfa: sp 80 +
STACK CFI 29b44 .cfa: x29 80 + x19: .cfa -8 + ^ x20: .cfa -16 + ^ x21: .cfa -24 + ^ x22: .cfa -32 + ^ x23: .cfa -40 + ^ x24: .cfa -48 + ^ x25: .cfa -64 + ^ .ra: .cfa -72 + ^ x29: .cfa -80 + ^
STACK CFI 29cc4 .cfa: sp 80 +
STACK CFI 29cd8 .cfa: sp 0 +
STACK CFI 29cdc .cfa: sp 80 +
STACK CFI 29cf0 .cfa: sp 0 +
STACK CFI INIT 2a2e4 188 .cfa: sp 0 +
STACK CFI 2a2e8 .cfa: sp 80 +
STACK CFI 2a2fc .cfa: x29 80 + x19: .cfa -8 + ^ x20: .cfa -16 + ^ x21: .cfa -24 + ^ x22: .cfa -32 + ^ x23: .cfa -40 + ^ x24: .cfa -48 + ^ x25: .cfa -64 + ^ .ra: .cfa -72 + ^ x29: .cfa -80 + ^
STACK CFI 2a450 .cfa: sp 80 +
STACK CFI 2a464 .cfa: sp 0 +
STACK CFI 2a468 .cfa: x29 80 +
STACK CFI INIT 2a46c 18c .cfa: sp 0 +
STACK CFI 2a470 .cfa: sp 64 +
STACK CFI 2a480 .cfa: x29 64 + x19: .cfa -8 + ^ x20: .cfa -16 + ^ x21: .cfa -24 + ^ x22: .cfa -32 + ^ x23: .cfa -40 + ^ x24: .cfa -48 + ^ .ra: .cfa -56 + ^ x29: .cfa -64 + ^
STACK CFI 2a5e0 .cfa: sp 64 +
STACK CFI 2a5f0 .cfa: sp 0 +
STACK CFI 2a5f4 .cfa: x29 64 +
STACK CFI INIT 2a5f8 18c .cfa: sp 0 +
STACK CFI 2a5fc .cfa: sp 64 +
STACK CFI 2a60c .cfa: x29 64 + x19: .cfa -8 + ^ x20: .cfa -16 + ^ x21: .cfa -24 + ^ x22: .cfa -32 + ^ x23: .cfa -40 + ^ x24: .cfa -48 + ^ .ra: .cfa -56 + ^ x29: .cfa -64 + ^
STACK CFI 2a76c .cfa: sp 64 +
STACK CFI 2a77c .cfa: sp 0 +
STACK CFI 2a780 .cfa: x29 64 +
STACK CFI INIT 2a784 14 .cfa: sp 0 +
STACK CFI 2a788 .cfa: sp 16 +
STACK CFI 2a78c .cfa: x29 16 + .ra: .cfa -8 + ^ x29: .cfa -16 + ^
STACK CFI INIT 2a7e4 50 .cfa: sp 0 +
STACK CFI 2a7e8 .cfa: sp 32 +
STACK CFI 2a7f0 .cfa: x29 32 + x19: .cfa -16 + ^ .ra: .cfa -24 + ^ x29: .cfa -32 + ^
STACK CFI 2a808 .cfa: sp 32 +
STACK CFI 2a810 .cfa: sp 0 +
STACK CFI 2a814 .cfa: x29 32 +
STACK CFI 2a828 .cfa: sp 32 +
STACK CFI 2a830 .cfa: sp 0 +
STACK CFI INIT 2af44 26c .cfa: sp 0 +
STACK CFI 2af48 .cfa: sp 112 +
STACK CFI 2af64 .cfa: x29 96 + x19: .cfa -8 + ^ x20: .cfa -16 + ^ x21: .cfa -24 + ^ x22: .cfa -32 + ^ x23: .cfa -40 + ^ x24: .cfa -48 + ^ x25: .cfa -56 + ^ x26: .cfa -64 + ^ x27: .cfa -72 + ^ x28: .cfa -80 + ^ .ra: .cfa -88 + ^ x29: .cfa -96 + ^
STACK CFI 2b190 .cfa: sp 112 +
STACK CFI 2b1ac .cfa: sp 0 +
STACK CFI INIT 2b1b0 1a8 .cfa: sp 0 +
STACK CFI 2b1b4 .cfa: sp 64 +
STACK CFI 2b1c4 .cfa: x29 64 + x19: .cfa -8 + ^ x20: .cfa -16 + ^ x21: .cfa -24 + ^ x22: .cfa -32 + ^ x23: .cfa -48 + ^ .ra: .cfa -56 + ^ x29: .cfa -64 + ^
STACK CFI 2b248 .cfa: sp 64 +
STACK CFI 2b258 .cfa: sp 0 +
STACK CFI 2b25c .cfa: x29 64 +
STACK CFI 2b264 .cfa: sp 64 +
STACK CFI 2b274 .cfa: sp 0 +
STACK CFI 2b278 .cfa: x29 64 +
STACK CFI 2b340 .cfa: sp 64 +
STACK CFI 2b350 .cfa: sp 0 +
STACK CFI 2b354 .cfa: x29 64 +
STACK CFI INIT 2b358 170 .cfa: sp 0 +
STACK CFI 2b35c .cfa: sp 96 +
STACK CFI 2b374 .cfa: x29 96 + x19: .cfa -8 + ^ x20: .cfa -16 + ^ x21: .cfa -24 + ^ x22: .cfa -32 + ^ x23: .cfa -40 + ^ x24: .cfa -48 + ^ x25: .cfa -56 + ^ x26: .cfa -64 + ^ x27: .cfa -80 + ^ .ra: .cfa -88 + ^ x29: .cfa -96 + ^
STACK CFI 2b4a8 .cfa: sp 96 +
STACK CFI 2b4c0 .cfa: sp 0 +
STACK CFI 2b4c4 .cfa: x29 96 +
STACK CFI INIT 2b514 4 .cfa: sp 0 +
STACK CFI INIT 2b518 c .cfa: sp 0 +
STACK CFI INIT 2b524 4 .cfa: sp 0 +
STACK CFI INIT 2b528 4 .cfa: sp 0 +
STACK CFI INIT 2b52c 24 .cfa: sp 0 +
STACK CFI 2b530 .cfa: sp 32 +
STACK CFI 2b538 .cfa: x29 32 + x19: .cfa -16 + ^ .ra: .cfa -24 + ^ x29: .cfa -32 + ^
STACK CFI 2b544 .cfa: sp 32 +
STACK CFI 2b54c .cfa: sp 0 +
STACK CFI INIT 2b550 18 .cfa: sp 0 +
STACK CFI INIT 2b568 1c .cfa: sp 0 +
STACK CFI INIT 2b584 4 .cfa: sp 0 +
STACK CFI INIT 2b588 48 .cfa: sp 0 +
STACK CFI 2b5a4 .cfa: sp 32 +
STACK CFI 2b5ac .cfa: x29 32 + x19: .cfa -16 + ^ .ra: .cfa -24 + ^ x29: .cfa -32 + ^
STACK CFI 2b5c4 .cfa: sp 32 +
STACK CFI 2b5cc .cfa: sp 0 +
STACK CFI INIT 2b5d0 14 .cfa: sp 0 +
STACK CFI INIT 2b5e4 48 .cfa: sp 0 +
STACK CFI 2b600 .cfa: sp 32 +
STACK CFI 2b608 .cfa: x29 32 + x19: .cfa -16 + ^ .ra: .cfa -24 + ^ x29: .cfa -32 + ^
STACK CFI 2b620 .cfa: sp 32 +
STACK CFI 2b628 .cfa: sp 0 +
STACK CFI INIT 2bfd4 3f4 .cfa: sp 0 +
STACK CFI 2bfd8 .cfa: sp 32 +
STACK CFI 2bfe0 .cfa: x29 32 + x19: .cfa -16 + ^ .ra: .cfa -24 + ^ x29: .cfa -32 + ^
STACK CFI 2c12c .cfa: sp 32 +
STACK CFI 2c134 .cfa: sp 0 +
STACK CFI 2c138 .cfa: x29 32 +
STACK CFI 2c140 .cfa: sp 32 +
STACK CFI 2c148 .cfa: sp 0 +
STACK CFI 2c14c .cfa: x29 32 +
STACK CFI 2c188 .cfa: sp 32 +
STACK CFI 2c190 .cfa: sp 0 +
STACK CFI 2c194 .cfa: x29 32 +
STACK CFI 2c1d0 .cfa: sp 32 +
STACK CFI 2c1d8 .cfa: sp 0 +
STACK CFI 2c1dc .cfa: x29 32 +
STACK CFI 2c208 .cfa: sp 32 +
STACK CFI 2c210 .cfa: sp 0 +
STACK CFI 2c214 .cfa: x29 32 +
STACK CFI 2c230 .cfa: sp 32 +
STACK CFI 2c238 .cfa: sp 0 +
STACK CFI 2c23c .cfa: x29 32 +
STACK CFI 2c2a0 .cfa: sp 32 +
STACK CFI 2c2a8 .cfa: sp 0 +
STACK CFI 2c2ac .cfa: x29 32 +
STACK CFI 2c37c .cfa: sp 32 +
STACK CFI 2c384 .cfa: sp 0 +
STACK CFI 2c388 .cfa: x29 32 +
STACK CFI 2c3b4 .cfa: sp 32 +
STACK CFI 2c3bc .cfa: sp 0 +
STACK CFI 2c3c0 .cfa: x29 32 +
STACK CFI INIT 2c434 b4 .cfa: sp 0 +
STACK CFI 2c438 .cfa: sp 64 +
STACK CFI 2c448 .cfa: x29 64 + x19: .cfa -8 + ^ x20: .cfa -16 + ^ x21: .cfa -24 + ^ x22: .cfa -32 + ^ x23: .cfa -48 + ^ .ra: .cfa -56 + ^ x29: .cfa -64 + ^
STACK CFI 2c4d4 .cfa: sp 64 +
STACK CFI 2c4e4 .cfa: sp 0 +
STACK CFI INIT 2c534 48 .cfa: sp 0 +
STACK CFI 2c550 .cfa: sp 32 +
STACK CFI 2c558 .cfa: x29 32 + x19: .cfa -16 + ^ .ra: .cfa -24 + ^ x29: .cfa -32 + ^
STACK CFI 2c570 .cfa: sp 32 +
STACK CFI 2c578 .cfa: sp 0 +
STACK CFI INIT 2c57c 64 .cfa: sp 0 +
STACK CFI INIT 2c5e0 48 .cfa: sp 0 +
STACK CFI 2c5fc .cfa: sp 32 +
STACK CFI 2c604 .cfa: x29 32 + x19: .cfa -16 + ^ .ra: .cfa -24 + ^ x29: .cfa -32 + ^
STACK CFI 2c61c .cfa: sp 32 +
STACK CFI 2c624 .cfa: sp 0 +
STACK CFI INIT 2c628 54 .cfa: sp 0 +
STACK CFI INIT 2c67c 5c .cfa: sp 0 +
STACK CFI 2c680 .cfa: sp 32 +
STACK CFI 2c688 .cfa: x29 32 + x19: .cfa -16 + ^ .ra: .cfa -24 + ^ x29: .cfa -32 + ^
STACK CFI 2c6c0 .cfa: sp 32 +
STACK CFI 2c6c8 .cfa: sp 0 +
STACK CFI 2c6cc .cfa: sp 32 +
STACK CFI 2c6d4 .cfa: sp 0 +
STACK CFI INIT 2c6d8 58 .cfa: sp 0 +
STACK CFI 2c6dc .cfa: sp 32 +
STACK CFI 2c6e4 .cfa: x29 32 + x19: .cfa -16 + ^ .ra: .cfa -24 + ^ x29: .cfa -32 + ^
STACK CFI 2c724 .cfa: sp 32 +
STACK CFI 2c72c .cfa: sp 0 +
STACK CFI INIT 2c730 110 .cfa: sp 0 +
STACK CFI INIT 2c840 90 .cfa: sp 0 +
STACK CFI 2c844 .cfa: sp 32 +
STACK CFI 2c84c .cfa: x29 32 + x19: .cfa -8 + ^ x20: .cfa -16 + ^ .ra: .cfa -24 + ^ x29: .cfa -32 + ^
STACK CFI 2c8b8 .cfa: sp 32 +
STACK CFI 2c8c0 .cfa: sp 0 +
STACK CFI 2c8c4 .cfa: sp 32 +
STACK CFI 2c8cc .cfa: sp 0 +
STACK CFI INIT 2c8d0 8c .cfa: sp 0 +
STACK CFI 2c8d4 .cfa: sp 32 +
STACK CFI 2c8dc .cfa: x29 32 + x19: .cfa -8 + ^ x20: .cfa -16 + ^ .ra: .cfa -24 + ^ x29: .cfa -32 + ^
STACK CFI 2c950 .cfa: sp 32 +
STACK CFI 2c958 .cfa: sp 0 +
STACK CFI INIT 2dc70 48 .cfa: sp 0 +
STACK CFI 2dc8c .cfa: sp 32 +
STACK CFI 2dc94 .cfa: x29 32 + x19: .cfa -16 + ^ .ra: .cfa -24 + ^ x29: .cfa -32 + ^
STACK CFI 2dcac .cfa: sp 32 +
STACK CFI 2dcb4 .cfa: sp 0 +
STACK CFI INIT 2dcb8 50c .cfa: sp 0 +
STACK CFI 2dcbc .cfa: sp 32 +
STACK CFI 2dcc4 .cfa: x29 32 + x19: .cfa -16 + ^ .ra: .cfa -24 + ^ x29: .cfa -32 + ^
STACK CFI 2de0c .cfa: sp 32 +
STACK CFI 2de14 .cfa: sp 0 +
STACK CFI 2de18 .cfa: x29 32 +
STACK CFI 2df88 .cfa: sp 32 +
STACK CFI 2df90 .cfa: sp 0 +
STACK CFI 2df94 .cfa: x29 32 +
STACK CFI 2dfb0 .cfa: sp 32 +
STACK CFI 2dfb8 .cfa: sp 0 +
STACK CFI 2dfbc .cfa: x29 32 +
STACK CFI 2e018 .cfa: sp 32 +
STACK CFI 2e020 .cfa: sp 0 +
STACK CFI 2e024 .cfa: x29 32 +
STACK CFI 2e040 .cfa: sp 32 +
STACK CFI 2e048 .cfa: sp 0 +
STACK CFI 2e04c .cfa: x29 32 +
STACK CFI 2e068 .cfa: sp 32 +
STACK CFI 2e070 .cfa: sp 0 +
STACK CFI 2e074 .cfa: x29 32 +
STACK CFI 2e090 .cfa: sp 32 +
STACK CFI 2e098 .cfa: sp 0 +
STACK CFI 2e09c .cfa: x29 32 +
STACK CFI 2e0b4 .cfa: sp 32 +
STACK CFI 2e0bc .cfa: sp 0 +
STACK CFI 2e0c0 .cfa: x29 32 +
STACK CFI 2e0dc .cfa: sp 32 +
STACK CFI 2e0e4 .cfa: sp 0 +
STACK CFI 2e0e8 .cfa: x29 32 +
STACK CFI 2e104 .cfa: sp 32 +
STACK CFI 2e10c .cfa: sp 0 +
STACK CFI 2e110 .cfa: x29 32 +
STACK CFI 2e12c .cfa: sp 32 +
STACK CFI 2e134 .cfa: sp 0 +
STACK CFI 2e138 .cfa: x29 32 +
STACK CFI 2e18c .cfa: sp 32 +
STACK CFI 2e194 .cfa: sp 0 +
STACK CFI 2e198 .cfa: x29 32 +
STACK CFI 2e1b4 .cfa: sp 32 +
STACK CFI 2e1bc .cfa: sp 0 +
STACK CFI 2e1c0 .cfa: x29 32 +
STACK CFI INIT 2e350 c8 .cfa: sp 0 +
STACK CFI 2e354 .cfa: sp 48 +
STACK CFI 2e360 .cfa: x29 48 + x19: .cfa -8 + ^ x20: .cfa -16 + ^ x21: .cfa -32 + ^ .ra: .cfa -40 + ^ x29: .cfa -48 + ^
STACK CFI 2e408 .cfa: sp 48 +
STACK CFI 2e414 .cfa: sp 0 +
STACK CFI INIT 2e418 5c .cfa: sp 0 +
STACK CFI 2e41c .cfa: sp 32 +
STACK CFI 2e424 .cfa: x29 32 + x19: .cfa -16 + ^ .ra: .cfa -24 + ^ x29: .cfa -32 + ^
STACK CFI 2e45c .cfa: sp 32 +
STACK CFI 2e464 .cfa: sp 0 +
STACK CFI 2e468 .cfa: sp 32 +
STACK CFI 2e470 .cfa: sp 0 +
STACK CFI INIT 2e474 58 .cfa: sp 0 +
STACK CFI 2e478 .cfa: sp 32 +
STACK CFI 2e480 .cfa: x29 32 + x19: .cfa -16 + ^ .ra: .cfa -24 + ^ x29: .cfa -32 + ^
STACK CFI 2e4c0 .cfa: sp 32 +
STACK CFI 2e4c8 .cfa: sp 0 +
STACK CFI INIT 2e4cc 80 .cfa: sp 0 +
STACK CFI 2e4d0 .cfa: sp 32 +
STACK CFI 2e4d8 .cfa: x29 32 + x19: .cfa -8 + ^ x20: .cfa -16 + ^ .ra: .cfa -24 + ^ x29: .cfa -32 + ^
STACK CFI 2e528 .cfa: sp 32 +
STACK CFI 2e530 .cfa: sp 0 +
STACK CFI 2e534 .cfa: x29 32 +
STACK CFI 2e540 .cfa: sp 32 +
STACK CFI 2e548 .cfa: sp 0 +
STACK CFI INIT 2e54c 5c .cfa: sp 0 +
STACK CFI 2e550 .cfa: sp 32 +
STACK CFI 2e558 .cfa: x29 32 + x19: .cfa -16 + ^ .ra: .cfa -24 + ^ x29: .cfa -32 + ^
STACK CFI 2e590 .cfa: sp 32 +
STACK CFI 2e598 .cfa: sp 0 +
STACK CFI 2e59c .cfa: sp 32 +
STACK CFI 2e5a4 .cfa: sp 0 +
STACK CFI INIT 2e5a8 58 .cfa: sp 0 +
STACK CFI 2e5ac .cfa: sp 32 +
STACK CFI 2e5b4 .cfa: x29 32 + x19: .cfa -16 + ^ .ra: .cfa -24 + ^ x29: .cfa -32 + ^
STACK CFI 2e5f4 .cfa: sp 32 +
STACK CFI 2e5fc .cfa: sp 0 +
STACK CFI INIT 2e600 48 .cfa: sp 0 +
STACK CFI INIT 2e648 48 .cfa: sp 0 +
STACK CFI 2e664 .cfa: sp 32 +
STACK CFI 2e66c .cfa: x29 32 + x19: .cfa -16 + ^ .ra: .cfa -24 + ^ x29: .cfa -32 + ^
STACK CFI 2e684 .cfa: sp 32 +
STACK CFI 2e68c .cfa: sp 0 +
STACK CFI INIT 2e690 48 .cfa: sp 0 +
STACK CFI INIT 2e6d8 5c .cfa: sp 0 +
STACK CFI 2e6dc .cfa: sp 32 +
STACK CFI 2e6e4 .cfa: x29 32 + x19: .cfa -16 + ^ .ra: .cfa -24 + ^ x29: .cfa -32 + ^
STACK CFI 2e71c .cfa: sp 32 +
STACK CFI 2e724 .cfa: sp 0 +
STACK CFI 2e728 .cfa: sp 32 +
STACK CFI 2e730 .cfa: sp 0 +
STACK CFI INIT 2e734 58 .cfa: sp 0 +
STACK CFI 2e738 .cfa: sp 32 +
STACK CFI 2e740 .cfa: x29 32 + x19: .cfa -16 + ^ .ra: .cfa -24 + ^ x29: .cfa -32 + ^
STACK CFI 2e780 .cfa: sp 32 +
STACK CFI 2e788 .cfa: sp 0 +
STACK CFI INIT 2e78c f8 .cfa: sp 0 +
STACK CFI 2e790 .cfa: sp 64 +
STACK CFI 2e7a0 .cfa: x29 64 + x19: .cfa -8 + ^ x20: .cfa -16 + ^ x21: .cfa -24 + ^ x22: .cfa -32 + ^ x23: .cfa -40 + ^ x24: .cfa -48 + ^ .ra: .cfa -56 + ^ x29: .cfa -64 + ^
STACK CFI 2e7e4 .cfa: sp 64 +
STACK CFI 2e7f4 .cfa: sp 0 +
STACK CFI 2e7f8 .cfa: x29 64 +
STACK CFI 2e870 .cfa: sp 64 +
STACK CFI 2e880 .cfa: sp 0 +
STACK CFI INIT 2e884 5c .cfa: sp 0 +
STACK CFI 2e888 .cfa: sp 32 +
STACK CFI 2e890 .cfa: x29 32 + x19: .cfa -16 + ^ .ra: .cfa -24 + ^ x29: .cfa -32 + ^
STACK CFI 2e8c8 .cfa: sp 32 +
STACK CFI 2e8d0 .cfa: sp 0 +
STACK CFI 2e8d4 .cfa: sp 32 +
STACK CFI 2e8dc .cfa: sp 0 +
STACK CFI INIT 2e8e0 58 .cfa: sp 0 +
STACK CFI 2e8e4 .cfa: sp 32 +
STACK CFI 2e8ec .cfa: x29 32 + x19: .cfa -16 + ^ .ra: .cfa -24 + ^ x29: .cfa -32 + ^
STACK CFI 2e92c .cfa: sp 32 +
STACK CFI 2e934 .cfa: sp 0 +
STACK CFI INIT 2e938 90 .cfa: sp 0 +
STACK CFI INIT 2e9c8 48 .cfa: sp 0 +
STACK CFI 2e9e4 .cfa: sp 32 +
STACK CFI 2e9ec .cfa: x29 32 + x19: .cfa -16 + ^ .ra: .cfa -24 + ^ x29: .cfa -32 + ^
STACK CFI 2ea04 .cfa: sp 32 +
STACK CFI 2ea0c .cfa: sp 0 +
STACK CFI INIT 2ea10 d0 .cfa: sp 0 +
STACK CFI 2ea14 .cfa: sp 48 +
STACK CFI 2ea20 .cfa: x29 48 + x19: .cfa -8 + ^ x20: .cfa -16 + ^ x21: .cfa -24 + ^ x22: .cfa -32 + ^ .ra: .cfa -40 + ^ x29: .cfa -48 + ^
STACK CFI 2eaa4 .cfa: sp 48 +
STACK CFI 2eab0 .cfa: sp 0 +
STACK CFI 2eab4 .cfa: x29 48 +
STACK CFI 2eacc .cfa: sp 48 +
STACK CFI 2ead8 .cfa: sp 0 +
STACK CFI 2eadc .cfa: x29 48 +
STACK CFI INIT 2eae0 4b0 .cfa: sp 0 +
STACK CFI 2eae4 .cfa: sp 80 +
STACK CFI 2eaf8 .cfa: x29 80 + x19: .cfa -8 + ^ x20: .cfa -16 + ^ x21: .cfa -24 + ^ x22: .cfa -32 + ^ x23: .cfa -40 + ^ x24: .cfa -48 + ^ x25: .cfa -64 + ^ .ra: .cfa -72 + ^ x29: .cfa -80 + ^
STACK CFI 2eb2c .cfa: sp 80 +
STACK CFI 2eb40 .cfa: sp 0 +
STACK CFI 2eb44 .cfa: x29 80 +
STACK CFI 2ef04 .cfa: sp 80 +
STACK CFI 2ef18 .cfa: sp 0 +
STACK CFI 2ef1c .cfa: x29 80 +
STACK CFI 2ef74 .cfa: sp 80 +
STACK CFI 2ef88 .cfa: sp 0 +
STACK CFI 2ef8c .cfa: x29 80 +
STACK CFI INIT 2f16c a4 .cfa: sp 0 +
STACK CFI 2f170 .cfa: sp 48 +
STACK CFI 2f17c .cfa: x29 48 + x19: .cfa -8 + ^ x20: .cfa -16 + ^ x21: .cfa -32 + ^ .ra: .cfa -40 + ^ x29: .cfa -48 + ^
STACK CFI 2f19c .cfa: sp 48 +
STACK CFI 2f1a8 .cfa: sp 0 +
STACK CFI 2f1ac .cfa: x29 48 +
STACK CFI 2f1f0 .cfa: sp 48 +
STACK CFI 2f1fc .cfa: sp 0 +
STACK CFI 2f200 .cfa: sp 48 +
STACK CFI 2f20c .cfa: sp 0 +
STACK CFI INIT 2f210 14c .cfa: sp 0 +
STACK CFI 2f214 .cfa: sp 48 +
STACK CFI 2f220 .cfa: x29 48 + x19: .cfa -8 + ^ x20: .cfa -16 + ^ x21: .cfa -32 + ^ .ra: .cfa -40 + ^ x29: .cfa -48 + ^
STACK CFI 2f33c .cfa: sp 48 +
STACK CFI 2f348 .cfa: sp 0 +
STACK CFI 2f34c .cfa: sp 48 +
STACK CFI 2f358 .cfa: sp 0 +
STACK CFI INIT 2f35c 24 .cfa: sp 0 +
STACK CFI 2f360 .cfa: sp 32 +
STACK CFI 2f368 .cfa: x29 32 + x19: .cfa -16 + ^ .ra: .cfa -24 + ^ x29: .cfa -32 + ^
STACK CFI 2f374 .cfa: sp 32 +
STACK CFI 2f37c .cfa: sp 0 +
STACK CFI INIT 2ffec 44 .cfa: sp 0 +
STACK CFI 2fff0 .cfa: sp 32 +
STACK CFI 2fff8 .cfa: x29 32 + x19: .cfa -16 + ^ .ra: .cfa -24 + ^ x29: .cfa -32 + ^
STACK CFI 30014 .cfa: sp 32 +
STACK CFI 3001c .cfa: sp 0 +
STACK CFI 30020 .cfa: x29 32 +
STACK CFI 30024 .cfa: sp 32 +
STACK CFI 3002c .cfa: sp 0 +
STACK CFI INIT 301f4 14 .cfa: sp 0 +
STACK CFI 301f8 .cfa: sp 16 +
STACK CFI 301fc .cfa: x29 16 + .ra: .cfa -8 + ^ x29: .cfa -16 + ^
STACK CFI INIT 30254 5c8 .cfa: sp 0 +
STACK CFI 30258 .cfa: sp 80 +
STACK CFI 3026c .cfa: x29 80 + x19: .cfa -8 + ^ x20: .cfa -16 + ^ x21: .cfa -24 + ^ x22: .cfa -32 + ^ x23: .cfa -40 + ^ x24: .cfa -48 + ^ x25: .cfa -56 + ^ x26: .cfa -64 + ^ .ra: .cfa -72 + ^ x29: .cfa -80 + ^
STACK CFI 3035c .cfa: sp 80 +
STACK CFI 30370 .cfa: sp 0 +
STACK CFI 30374 .cfa: x29 80 +
STACK CFI 303c8 .cfa: sp 80 +
STACK CFI 303dc .cfa: sp 0 +
STACK CFI 303e0 .cfa: x29 80 +
STACK CFI 307fc .cfa: sp 80 +
STACK CFI 30810 .cfa: sp 0 +
STACK CFI 30814 .cfa: x29 80 +
STACK CFI INIT 3081c 4c4 .cfa: sp 0 +
STACK CFI 30820 .cfa: sp 32 +
STACK CFI 30828 .cfa: x29 32 + x19: .cfa -16 + ^ .ra: .cfa -24 + ^ x29: .cfa -32 + ^
STACK CFI 3087c .cfa: sp 32 +
STACK CFI 30884 .cfa: sp 0 +
STACK CFI 30888 .cfa: x29 32 +
STACK CFI 308c8 .cfa: sp 32 +
STACK CFI 308d0 .cfa: sp 0 +
STACK CFI 308d4 .cfa: x29 32 +
STACK CFI 30904 .cfa: sp 32 +
STACK CFI 3090c .cfa: sp 0 +
STACK CFI 30910 .cfa: x29 32 +
STACK CFI 30940 .cfa: sp 32 +
STACK CFI 30948 .cfa: sp 0 +
STACK CFI 3094c .cfa: x29 32 +
STACK CFI 3095c .cfa: sp 32 +
STACK CFI 30964 .cfa: sp 0 +
STACK CFI 30968 .cfa: x29 32 +
STACK CFI 30988 .cfa: sp 32 +
STACK CFI 30990 .cfa: sp 0 +
STACK CFI 30994 .cfa: x29 32 +
STACK CFI 309b4 .cfa: sp 32 +
STACK CFI 309bc .cfa: sp 0 +
STACK CFI 309c0 .cfa: x29 32 +
STACK CFI 309e0 .cfa: sp 32 +
STACK CFI 309e8 .cfa: sp 0 +
STACK CFI 309ec .cfa: x29 32 +
STACK CFI 30a0c .cfa: sp 32 +
STACK CFI 30a14 .cfa: sp 0 +
STACK CFI 30a18 .cfa: x29 32 +
STACK CFI 30a9c .cfa: sp 32 +
STACK CFI 30aa4 .cfa: sp 0 +
STACK CFI 30aa8 .cfa: x29 32 +
STACK CFI 30ab8 .cfa: sp 32 +
STACK CFI 30ac0 .cfa: sp 0 +
STACK CFI 30ac4 .cfa: x29 32 +
STACK CFI 30ad4 .cfa: sp 32 +
STACK CFI 30adc .cfa: sp 0 +
STACK CFI 30ae0 .cfa: x29 32 +
STACK CFI 30af0 .cfa: sp 32 +
STACK CFI 30af8 .cfa: sp 0 +
STACK CFI 30afc .cfa: x29 32 +
STACK CFI 30b0c .cfa: sp 32 +
STACK CFI 30b14 .cfa: sp 0 +
STACK CFI 30b18 .cfa: x29 32 +
STACK CFI 30b28 .cfa: sp 32 +
STACK CFI 30b30 .cfa: sp 0 +
STACK CFI 30b34 .cfa: x29 32 +
STACK CFI 30b44 .cfa: sp 32 +
STACK CFI 30b4c .cfa: sp 0 +
STACK CFI 30b50 .cfa: x29 32 +
STACK CFI 30b60 .cfa: sp 32 +
STACK CFI 30b68 .cfa: sp 0 +
STACK CFI 30b6c .cfa: x29 32 +
STACK CFI 30b90 .cfa: sp 32 +
STACK CFI 30b98 .cfa: sp 0 +
STACK CFI 30b9c .cfa: x29 32 +
STACK CFI 30bb4 .cfa: sp 32 +
STACK CFI 30bbc .cfa: sp 0 +
STACK CFI 30bc0 .cfa: x29 32 +
STACK CFI 30bd8 .cfa: sp 32 +
STACK CFI 30be0 .cfa: sp 0 +
STACK CFI 30be4 .cfa: x29 32 +
STACK CFI 30bfc .cfa: sp 32 +
STACK CFI 30c04 .cfa: sp 0 +
STACK CFI 30c08 .cfa: x29 32 +
STACK CFI 30c20 .cfa: sp 32 +
STACK CFI 30c28 .cfa: sp 0 +
STACK CFI 30c2c .cfa: x29 32 +
STACK CFI 30c44 .cfa: sp 32 +
STACK CFI 30c4c .cfa: sp 0 +
STACK CFI 30c50 .cfa: x29 32 +
STACK CFI 30c68 .cfa: sp 32 +
STACK CFI 30c70 .cfa: sp 0 +
STACK CFI 30c74 .cfa: x29 32 +
STACK CFI 30c8c .cfa: sp 32 +
STACK CFI 30c94 .cfa: sp 0 +
STACK CFI 30c98 .cfa: x29 32 +
STACK CFI 30cb0 .cfa: sp 32 +
STACK CFI 30cb8 .cfa: sp 0 +
STACK CFI 30cbc .cfa: x29 32 +
STACK CFI 30cd0 .cfa: sp 32 +
STACK CFI 30cd8 .cfa: sp 0 +
STACK CFI 30cdc .cfa: x29 32 +
STACK CFI INIT 30ce0 420 .cfa: sp 0 +
STACK CFI 30ce4 .cfa: sp 80 +
STACK CFI 30cf8 .cfa: x29 80 + x19: .cfa -8 + ^ x20: .cfa -16 + ^ x21: .cfa -24 + ^ x22: .cfa -32 + ^ x23: .cfa -40 + ^ x24: .cfa -48 + ^ x25: .cfa -64 + ^ .ra: .cfa -72 + ^ x29: .cfa -80 + ^
STACK CFI 30d4c .cfa: sp 80 +
STACK CFI 30d60 .cfa: sp 0 +
STACK CFI 30d64 .cfa: x29 80 +
STACK CFI 30f0c .cfa: sp 80 +
STACK CFI 30f20 .cfa: sp 0 +
STACK CFI 30f24 .cfa: x29 80 +
STACK CFI 310e0 .cfa: sp 80 +
STACK CFI 310f4 .cfa: sp 0 +
STACK CFI 310f8 .cfa: x29 80 +
STACK CFI INIT 3164c 1a8 .cfa: sp 0 +
STACK CFI 31650 .cfa: sp 48 +
STACK CFI 3165c .cfa: x29 48 + x19: .cfa -8 + ^ x20: .cfa -16 + ^ x21: .cfa -24 + ^ x22: .cfa -32 + ^ .ra: .cfa -40 + ^ x29: .cfa -48 + ^
STACK CFI 317dc .cfa: sp 48 +
STACK CFI 317e8 .cfa: sp 0 +
STACK CFI 317ec .cfa: x29 48 +
STACK CFI INIT 317f4 14 .cfa: sp 0 +
STACK CFI 317f8 .cfa: sp 16 +
STACK CFI 317fc .cfa: x29 16 + .ra: .cfa -8 + ^ x29: .cfa -16 + ^
STACK CFI INIT 31808 14 .cfa: sp 0 +
STACK CFI 3180c .cfa: sp 16 +
STACK CFI 31810 .cfa: x29 16 + .ra: .cfa -8 + ^ x29: .cfa -16 + ^
STACK CFI INIT 3181c 48 .cfa: sp 0 +
STACK CFI 31838 .cfa: sp 32 +
STACK CFI 31840 .cfa: x29 32 + x19: .cfa -16 + ^ .ra: .cfa -24 + ^ x29: .cfa -32 + ^
STACK CFI 31858 .cfa: sp 32 +
STACK CFI 31860 .cfa: sp 0 +
STACK CFI INIT 31864 30 .cfa: sp 0 +
STACK CFI INIT 31894 48 .cfa: sp 0 +
STACK CFI 318b0 .cfa: sp 32 +
STACK CFI 318b8 .cfa: x29 32 + x19: .cfa -16 + ^ .ra: .cfa -24 + ^ x29: .cfa -32 + ^
STACK CFI 318d0 .cfa: sp 32 +
STACK CFI 318d8 .cfa: sp 0 +
STACK CFI INIT 318dc 38 .cfa: sp 0 +
STACK CFI INIT 31aec 68 .cfa: sp 0 +
STACK CFI 31af0 .cfa: sp 32 +
STACK CFI 31af8 .cfa: x29 32 + x19: .cfa -16 + ^ .ra: .cfa -24 + ^ x29: .cfa -32 + ^
STACK CFI 31b48 .cfa: sp 32 +
STACK CFI 31b50 .cfa: sp 0 +
STACK CFI INIT 31b54 1c4 .cfa: sp 0 +
STACK CFI INIT 31d18 c4 .cfa: sp 0 +
STACK CFI INIT 31ddc 68 .cfa: sp 0 +
STACK CFI 31de0 .cfa: sp 32 +
STACK CFI 31de8 .cfa: x29 32 + x19: .cfa -16 + ^ .ra: .cfa -24 + ^ x29: .cfa -32 + ^
STACK CFI 31e38 .cfa: sp 32 +
STACK CFI 31e40 .cfa: sp 0 +
STACK CFI INIT 31e44 4 .cfa: sp 0 +
STACK CFI INIT 31e48 14 .cfa: sp 0 +
STACK CFI INIT 31e5c 6c .cfa: sp 0 +
STACK CFI 31e60 .cfa: sp 32 +
STACK CFI 31e68 .cfa: x29 32 + x19: .cfa -16 + ^ .ra: .cfa -24 + ^ x29: .cfa -32 + ^
STACK CFI 31eb0 .cfa: sp 32 +
STACK CFI 31eb8 .cfa: sp 0 +
STACK CFI 31ebc .cfa: sp 32 +
STACK CFI 31ec4 .cfa: sp 0 +
STACK CFI INIT 31ec8 68 .cfa: sp 0 +
STACK CFI 31ecc .cfa: sp 32 +
STACK CFI 31ed4 .cfa: x29 32 + x19: .cfa -16 + ^ .ra: .cfa -24 + ^ x29: .cfa -32 + ^
STACK CFI 31f24 .cfa: sp 32 +
STACK CFI 31f2c .cfa: sp 0 +
STACK CFI INIT 31f30 c .cfa: sp 0 +
STACK CFI INIT 31f3c 24 .cfa: sp 0 +
STACK CFI INIT 31f60 4 .cfa: sp 0 +
STACK CFI INIT 31f64 4 .cfa: sp 0 +
STACK CFI INIT 31f68 14 .cfa: sp 0 +
STACK CFI INIT 31fc8 2fc .cfa: sp 0 +
STACK CFI 31fcc .cfa: sp 64 +
STACK CFI 31fdc .cfa: x29 64 + x19: .cfa -8 + ^ x20: .cfa -16 + ^ x21: .cfa -24 + ^ x22: .cfa -32 + ^ x23: .cfa -40 + ^ x24: .cfa -48 + ^ .ra: .cfa -56 + ^ x29: .cfa -64 + ^
STACK CFI 32158 .cfa: sp 64 +
STACK CFI 32168 .cfa: sp 0 +
STACK CFI 3216c .cfa: x29 64 +
STACK CFI 321b0 .cfa: sp 64 +
STACK CFI 321c0 .cfa: sp 0 +
STACK CFI 321c4 .cfa: x29 64 +
STACK CFI 32294 .cfa: sp 64 +
STACK CFI 322a4 .cfa: sp 0 +
STACK CFI 322a8 .cfa: sp 64 +
STACK CFI 322b8 .cfa: sp 0 +
STACK CFI 322bc .cfa: x29 64 +
STACK CFI INIT 322c4 270 .cfa: sp 0 +
STACK CFI 322c8 .cfa: sp 32 +
STACK CFI 322d0 .cfa: x29 32 + x19: .cfa -16 + ^ .ra: .cfa -24 + ^ x29: .cfa -32 + ^
STACK CFI 32308 .cfa: sp 32 +
STACK CFI 32310 .cfa: sp 0 +
STACK CFI 32314 .cfa: x29 32 +
STACK CFI 3245c .cfa: sp 32 +
STACK CFI 32464 .cfa: sp 0 +
STACK CFI 32468 .cfa: x29 32 +
STACK CFI 324a4 .cfa: sp 32 +
STACK CFI 324ac .cfa: sp 0 +
STACK CFI 324b0 .cfa: x29 32 +
STACK CFI 32524 .cfa: sp 32 +
STACK CFI 3252c .cfa: sp 0 +
STACK CFI 32530 .cfa: x29 32 +
STACK CFI INIT 32534 2c .cfa: sp 0 +
STACK CFI INIT 32560 48 .cfa: sp 0 +
STACK CFI 3257c .cfa: sp 32 +
STACK CFI 32584 .cfa: x29 32 + x19: .cfa -16 + ^ .ra: .cfa -24 + ^ x29: .cfa -32 + ^
STACK CFI 3259c .cfa: sp 32 +
STACK CFI 325a4 .cfa: sp 0 +
STACK CFI INIT 325a8 40 .cfa: sp 0 +
STACK CFI INIT 325e8 60 .cfa: sp 0 +
STACK CFI 325ec .cfa: sp 16 +
STACK CFI 325f0 .cfa: x29 16 + .ra: .cfa -8 + ^ x29: .cfa -16 + ^
STACK CFI 32630 .cfa: sp 16 +
STACK CFI 32634 .cfa: sp 0 +
STACK CFI 32638 .cfa: x29 16 +
STACK CFI 3263c .cfa: sp 16 +
STACK CFI 32640 .cfa: sp 0 +
STACK CFI 32644 .cfa: x29 16 +
STACK CFI INIT 32648 34c .cfa: sp 0 +
STACK CFI 3264c .cfa: sp 80 +
STACK CFI 32660 .cfa: x29 80 + x19: .cfa -8 + ^ x20: .cfa -16 + ^ x21: .cfa -24 + ^ x22: .cfa -32 + ^ x23: .cfa -40 + ^ x24: .cfa -48 + ^ x25: .cfa -64 + ^ .ra: .cfa -72 + ^ x29: .cfa -80 + ^
STACK CFI 3295c .cfa: sp 80 +
STACK CFI 32970 .cfa: sp 0 +
STACK CFI 32974 .cfa: x29 80 +
STACK CFI 32978 .cfa: sp 80 +
STACK CFI 3298c .cfa: sp 0 +
STACK CFI 32990 .cfa: x29 80 +
STACK CFI INIT 32994 ac .cfa: sp 0 +
STACK CFI 32998 .cfa: sp 64 +
STACK CFI 329a8 .cfa: x29 64 + x19: .cfa -8 + ^ x20: .cfa -16 + ^ x21: .cfa -24 + ^ x22: .cfa -32 + ^ x23: .cfa -48 + ^ .ra: .cfa -56 + ^ x29: .cfa -64 + ^
STACK CFI 32a24 .cfa: sp 64 +
STACK CFI 32a34 .cfa: sp 0 +
STACK CFI 32a38 .cfa: x29 64 +
STACK CFI INIT 32a40 110 .cfa: sp 0 +
STACK CFI 32a44 .cfa: sp 64 +
STACK CFI 32a54 .cfa: x29 64 + x19: .cfa -8 + ^ x20: .cfa -16 + ^ x21: .cfa -24 + ^ x22: .cfa -32 + ^ x23: .cfa -40 + ^ x24: .cfa -48 + ^ .ra: .cfa -56 + ^ x29: .cfa -64 + ^
STACK CFI 32b34 .cfa: sp 64 +
STACK CFI 32b44 .cfa: sp 0 +
STACK CFI 32b48 .cfa: x29 64 +
STACK CFI INIT 32b50 50 .cfa: sp 0 +
STACK CFI 32b54 .cfa: sp 32 +
STACK CFI 32b5c .cfa: x29 32 + x19: .cfa -8 + ^ x20: .cfa -16 + ^ .ra: .cfa -24 + ^ x29: .cfa -32 + ^
STACK CFI 32b94 .cfa: sp 32 +
STACK CFI 32b9c .cfa: sp 0 +
STACK CFI INIT 32ba0 50 .cfa: sp 0 +
STACK CFI 32ba4 .cfa: sp 32 +
STACK CFI 32bac .cfa: x29 32 + x19: .cfa -8 + ^ x20: .cfa -16 + ^ .ra: .cfa -24 + ^ x29: .cfa -32 + ^
STACK CFI 32be4 .cfa: sp 32 +
STACK CFI 32bec .cfa: sp 0 +
STACK CFI INIT 32bf0 50 .cfa: sp 0 +
STACK CFI 32bf4 .cfa: sp 32 +
STACK CFI 32bfc .cfa: x29 32 + x19: .cfa -8 + ^ x20: .cfa -16 + ^ .ra: .cfa -24 + ^ x29: .cfa -32 + ^
STACK CFI 32c34 .cfa: sp 32 +
STACK CFI 32c3c .cfa: sp 0 +
STACK CFI INIT 32d10 9c .cfa: sp 0 +
STACK CFI 32d14 .cfa: sp 48 +
STACK CFI 32d20 .cfa: x29 48 + x19: .cfa -8 + ^ x20: .cfa -16 + ^ x21: .cfa -32 + ^ .ra: .cfa -40 + ^ x29: .cfa -48 + ^
STACK CFI 32d9c .cfa: sp 48 +
STACK CFI 32da8 .cfa: sp 0 +
STACK CFI INIT 33128 3c .cfa: sp 0 +
STACK CFI 3312c .cfa: sp 32 +
STACK CFI 33134 .cfa: x29 32 + x19: .cfa -16 + ^ .ra: .cfa -24 + ^ x29: .cfa -32 + ^
STACK CFI 33140 .cfa: sp 32 +
STACK CFI 33148 .cfa: sp 0 +
STACK CFI 3314c .cfa: x29 32 +
STACK CFI 33158 .cfa: sp 32 +
STACK CFI 33160 .cfa: sp 0 +
STACK CFI INIT 33164 4c .cfa: sp 0 +
STACK CFI 33168 .cfa: sp 32 +
STACK CFI 33170 .cfa: x29 32 + x19: .cfa -8 + ^ x20: .cfa -16 + ^ .ra: .cfa -24 + ^ x29: .cfa -32 + ^
STACK CFI 33198 .cfa: sp 32 +
STACK CFI 331a0 .cfa: sp 0 +
STACK CFI 331a4 .cfa: sp 32 +
STACK CFI 331ac .cfa: sp 0 +
STACK CFI INIT 333d0 64 .cfa: sp 0 +
STACK CFI 333d4 .cfa: sp 32 +
STACK CFI 333dc .cfa: x29 32 + x19: .cfa -16 + ^ .ra: .cfa -24 + ^ x29: .cfa -32 + ^
STACK CFI 33408 .cfa: sp 32 +
STACK CFI 33410 .cfa: sp 0 +
STACK CFI 33414 .cfa: x29 32 +
STACK CFI 33428 .cfa: sp 32 +
STACK CFI 33430 .cfa: sp 0 +
STACK CFI INIT 3363c 24 .cfa: sp 0 +
STACK CFI 33640 .cfa: sp 32 +
STACK CFI 33648 .cfa: x29 32 + x19: .cfa -16 + ^ .ra: .cfa -24 + ^ x29: .cfa -32 + ^
STACK CFI 33654 .cfa: sp 32 +
STACK CFI 3365c .cfa: sp 0 +
STACK CFI INIT 33660 24 .cfa: sp 0 +
STACK CFI 33664 .cfa: sp 32 +
STACK CFI 3366c .cfa: x29 32 + x19: .cfa -16 + ^ .ra: .cfa -24 + ^ x29: .cfa -32 + ^
STACK CFI 33678 .cfa: sp 32 +
STACK CFI 33680 .cfa: sp 0 +
STACK CFI INIT 33684 8 .cfa: sp 0 +
STACK CFI INIT 3368c 24 .cfa: sp 0 +
STACK CFI 33690 .cfa: sp 32 +
STACK CFI 33698 .cfa: x29 32 + x19: .cfa -16 + ^ .ra: .cfa -24 + ^ x29: .cfa -32 + ^
STACK CFI 336a4 .cfa: sp 32 +
STACK CFI 336ac .cfa: sp 0 +
STACK CFI INIT 336b0 28 .cfa: sp 0 +
STACK CFI 336b4 .cfa: sp 32 +
STACK CFI 336bc .cfa: x29 32 + x19: .cfa -16 + ^ .ra: .cfa -24 + ^ x29: .cfa -32 + ^
STACK CFI 336cc .cfa: sp 32 +
STACK CFI 336d4 .cfa: sp 0 +
STACK CFI INIT 34094 4 .cfa: sp 0 +
STACK CFI INIT 34098 24 .cfa: sp 0 +
STACK CFI 3409c .cfa: sp 32 +
STACK CFI 340a4 .cfa: x29 32 + x19: .cfa -16 + ^ .ra: .cfa -24 + ^ x29: .cfa -32 + ^
STACK CFI 340b0 .cfa: sp 32 +
STACK CFI 340b8 .cfa: sp 0 +
STACK CFI INIT 34c1c 4 .cfa: sp 0 +
STACK CFI INIT 34c20 14 .cfa: sp 0 +
STACK CFI INIT 35114 c .cfa: sp 0 +
STACK CFI INIT 35120 24c .cfa: sp 0 +
STACK CFI INIT 3536c a0 .cfa: sp 0 +
STACK CFI 35378 .cfa: sp 32 +
STACK CFI 353d0 .cfa: sp 0 +
STACK CFI 353d4 .cfa: sp 32 +
STACK CFI 353dc .cfa: sp 0 +
STACK CFI 353e0 .cfa: sp 32 +
STACK CFI 353f4 .cfa: sp 0 +
STACK CFI 353f8 .cfa: sp 32 +
STACK CFI 35408 .cfa: sp 0 +
STACK CFI INIT 3540c 38 .cfa: sp 0 +
STACK CFI 35418 .cfa: sp 32 +
STACK CFI 35440 .cfa: sp 0 +
STACK CFI INIT 356d8 7c .cfa: sp 0 +
STACK CFI 356dc .cfa: sp 32 +
STACK CFI 356e4 .cfa: x29 32 + x19: .cfa -16 + ^ .ra: .cfa -24 + ^ x29: .cfa -32 + ^
STACK CFI 35710 .cfa: sp 32 +
STACK CFI 35718 .cfa: sp 0 +
STACK CFI 3571c .cfa: x29 32 +
STACK CFI 35748 .cfa: sp 32 +
STACK CFI 35750 .cfa: sp 0 +
STACK CFI INIT 357a4 2c .cfa: sp 0 +
STACK CFI 357a8 .cfa: sp 32 +
STACK CFI 357b0 .cfa: x29 32 + x19: .cfa -16 + ^ .ra: .cfa -24 + ^ x29: .cfa -32 + ^
STACK CFI 357c4 .cfa: sp 32 +
STACK CFI 357cc .cfa: sp 0 +
STACK CFI INIT 35f90 64 .cfa: sp 0 +
STACK CFI 35f94 .cfa: sp 32 +
STACK CFI 35f9c .cfa: x29 32 + x19: .cfa -16 + ^ .ra: .cfa -24 + ^ x29: .cfa -32 + ^
STACK CFI 35fb8 .cfa: sp 32 +
STACK CFI 35fc0 .cfa: sp 0 +
STACK CFI 35fc4 .cfa: x29 32 +
STACK CFI 35fe8 .cfa: sp 32 +
STACK CFI 35ff0 .cfa: sp 0 +
STACK CFI INIT 35ff4 570 .cfa: sp 0 +
STACK CFI 35ff8 .cfa: sp 176 +
STACK CFI 3600c .cfa: x29 64 + x19: .cfa -8 + ^ x20: .cfa -16 + ^ x21: .cfa -24 + ^ x22: .cfa -32 + ^ x23: .cfa -40 + ^ x24: .cfa -48 + ^ .ra: .cfa -56 + ^ x29: .cfa -64 + ^
STACK CFI 3623c .cfa: sp 176 +
STACK CFI 36250 .cfa: sp 0 +
STACK CFI 36254 .cfa: x29 64 +
STACK CFI 362a0 .cfa: sp 176 +
STACK CFI 362b4 .cfa: sp 0 +
STACK CFI 362b8 .cfa: x29 64 +
STACK CFI 362f0 .cfa: sp 176 +
STACK CFI 36304 .cfa: sp 0 +
STACK CFI 36308 .cfa: x29 64 +
STACK CFI 36320 .cfa: sp 176 +
STACK CFI 36334 .cfa: sp 0 +
STACK CFI 36338 .cfa: x29 64 +
STACK CFI 36358 .cfa: sp 176 +
STACK CFI 3636c .cfa: sp 0 +
STACK CFI 36370 .cfa: x29 64 +
STACK CFI 36388 .cfa: sp 176 +
STACK CFI 3639c .cfa: sp 0 +
STACK CFI 363a0 .cfa: x29 64 +
STACK CFI 363b4 .cfa: sp 176 +
STACK CFI 363c8 .cfa: sp 0 +
STACK CFI 363cc .cfa: x29 64 +
STACK CFI 363e0 .cfa: sp 176 +
STACK CFI 363f4 .cfa: sp 0 +
STACK CFI 363f8 .cfa: x29 64 +
STACK CFI 36408 .cfa: sp 176 +
STACK CFI 3641c .cfa: sp 0 +
STACK CFI 36420 .cfa: x29 64 +
STACK CFI 36430 .cfa: sp 176 +
STACK CFI 36444 .cfa: sp 0 +
STACK CFI 36448 .cfa: x29 64 +
STACK CFI 36460 .cfa: sp 176 +
STACK CFI 36474 .cfa: sp 0 +
STACK CFI 36478 .cfa: x29 64 +
STACK CFI 3648c .cfa: sp 176 +
STACK CFI 364a0 .cfa: sp 0 +
STACK CFI 364a4 .cfa: x29 64 +
STACK CFI 364bc .cfa: sp 176 +
STACK CFI 364d0 .cfa: sp 0 +
STACK CFI 364d4 .cfa: x29 64 +
STACK CFI 36500 .cfa: sp 176 +
STACK CFI 36514 .cfa: sp 0 +
STACK CFI 36518 .cfa: x29 64 +
STACK CFI 3652c .cfa: sp 176 +
STACK CFI 36540 .cfa: sp 0 +
STACK CFI 36544 .cfa: x29 64 +
STACK CFI INIT 36564 228 .cfa: sp 0 +
STACK CFI INIT 3678c 2dc .cfa: sp 0 +
STACK CFI INIT 36a68 53c .cfa: sp 0 +
STACK CFI INIT 36fa4 78 .cfa: sp 0 +
STACK CFI 36fa8 .cfa: sp 48 +
STACK CFI 36fb4 .cfa: x29 48 + x19: .cfa -8 + ^ x20: .cfa -16 + ^ x21: .cfa -24 + ^ x22: .cfa -32 + ^ .ra: .cfa -40 + ^ x29: .cfa -48 + ^
STACK CFI 36ffc .cfa: sp 48 +
STACK CFI 37008 .cfa: sp 0 +
STACK CFI 3700c .cfa: sp 48 +
STACK CFI 37018 .cfa: sp 0 +
STACK CFI INIT 3701c 8c .cfa: sp 0 +
STACK CFI 37020 .cfa: sp 32 +
STACK CFI 37028 .cfa: x29 32 + x19: .cfa -16 + ^ .ra: .cfa -24 + ^ x29: .cfa -32 + ^
STACK CFI 3705c .cfa: sp 32 +
STACK CFI 37064 .cfa: sp 0 +
STACK CFI 37068 .cfa: x29 32 +
STACK CFI 3709c .cfa: sp 32 +
STACK CFI 370a4 .cfa: sp 0 +
STACK CFI INIT 370a8 24 .cfa: sp 0 +
STACK CFI 370ac .cfa: sp 32 +
STACK CFI 370b4 .cfa: x29 32 + x19: .cfa -16 + ^ .ra: .cfa -24 + ^ x29: .cfa -32 + ^
STACK CFI 370c0 .cfa: sp 32 +
STACK CFI 370c8 .cfa: sp 0 +
STACK CFI INIT 370cc 150 .cfa: sp 0 +
STACK CFI 370d0 .cfa: sp 48 +
STACK CFI 370dc .cfa: x29 48 + x19: .cfa -8 + ^ x20: .cfa -16 + ^ x21: .cfa -24 + ^ x22: .cfa -32 + ^ .ra: .cfa -40 + ^ x29: .cfa -48 + ^
STACK CFI 3720c .cfa: sp 48 +
STACK CFI 37218 .cfa: sp 0 +
STACK CFI INIT 3721c 68 .cfa: sp 0 +
STACK CFI 37220 .cfa: sp 64 +
STACK CFI 3722c .cfa: x29 32 + x19: .cfa -16 + ^ .ra: .cfa -24 + ^ x29: .cfa -32 + ^
STACK CFI 37270 .cfa: sp 64 +
STACK CFI 3727c .cfa: sp 0 +
STACK CFI 37280 .cfa: x29 32 +
STACK CFI INIT 37284 90 .cfa: sp 0 +
STACK CFI 37288 .cfa: sp 32 +
STACK CFI 37290 .cfa: x29 32 + x19: .cfa -8 + ^ x20: .cfa -16 + ^ .ra: .cfa -24 + ^ x29: .cfa -32 + ^
STACK CFI 372bc .cfa: sp 32 +
STACK CFI 372c4 .cfa: sp 0 +
STACK CFI 372c8 .cfa: x29 32 +
STACK CFI 37308 .cfa: sp 32 +
STACK CFI 37310 .cfa: sp 0 +
STACK CFI INIT 37314 ec .cfa: sp 0 +
STACK CFI 37318 .cfa: sp 112 +
STACK CFI 37328 .cfa: x29 48 + x19: .cfa -8 + ^ x20: .cfa -16 + ^ x21: .cfa -32 + ^ .ra: .cfa -40 + ^ x29: .cfa -48 + ^
STACK CFI 373e8 .cfa: sp 112 +
STACK CFI 373f8 .cfa: sp 0 +
STACK CFI 373fc .cfa: x29 48 +
STACK CFI INIT 37400 ec .cfa: sp 0 +
STACK CFI 37404 .cfa: sp 112 +
STACK CFI 37414 .cfa: x29 48 + x19: .cfa -8 + ^ x20: .cfa -16 + ^ x21: .cfa -32 + ^ .ra: .cfa -40 + ^ x29: .cfa -48 + ^
STACK CFI 374d4 .cfa: sp 112 +
STACK CFI 374e4 .cfa: sp 0 +
STACK CFI 374e8 .cfa: x29 48 +
STACK CFI INIT 374ec 48 .cfa: sp 0 +
STACK CFI 374f0 .cfa: sp 32 +
STACK CFI 374f8 .cfa: x29 32 + x19: .cfa -8 + ^ x20: .cfa -16 + ^ .ra: .cfa -24 + ^ x29: .cfa -32 + ^
STACK CFI 3751c .cfa: sp 32 +
STACK CFI 37524 .cfa: sp 0 +
STACK CFI 37528 .cfa: x29 32 +
STACK CFI INIT 37534 98 .cfa: sp 0 +
STACK CFI 37538 .cfa: sp 80 +
STACK CFI 37544 .cfa: x29 32 + x19: .cfa -16 + ^ .ra: .cfa -24 + ^ x29: .cfa -32 + ^
STACK CFI 375b8 .cfa: sp 80 +
STACK CFI 375c4 .cfa: sp 0 +
STACK CFI 375c8 .cfa: x29 32 +
STACK CFI INIT 375cc 260 .cfa: sp 0 +
STACK CFI 375d0 .cfa: sp 112 +
STACK CFI 375e8 .cfa: x29 80 + x19: .cfa -8 + ^ x20: .cfa -16 + ^ x21: .cfa -24 + ^ x22: .cfa -32 + ^ x23: .cfa -40 + ^ x24: .cfa -48 + ^ x25: .cfa -64 + ^ .ra: .cfa -72 + ^ x29: .cfa -80 + ^
STACK CFI 377cc .cfa: sp 112 +
STACK CFI 377e4 .cfa: sp 0 +
STACK CFI 377e8 .cfa: x29 80 +
STACK CFI INIT 3782c 150 .cfa: sp 0 +
STACK CFI 37830 .cfa: sp 48 +
STACK CFI 3783c .cfa: x29 48 + x19: .cfa -8 + ^ x20: .cfa -16 + ^ x21: .cfa -24 + ^ x22: .cfa -32 + ^ .ra: .cfa -40 + ^ x29: .cfa -48 + ^
STACK CFI 3796c .cfa: sp 48 +
STACK CFI 37978 .cfa: sp 0 +
STACK CFI INIT 3797c 1e0 .cfa: sp 0 +
STACK CFI 37980 .cfa: sp 96 +
STACK CFI 37994 .cfa: x29 64 + x19: .cfa -8 + ^ x20: .cfa -16 + ^ x21: .cfa -24 + ^ x22: .cfa -32 + ^ x23: .cfa -40 + ^ x24: .cfa -48 + ^ .ra: .cfa -56 + ^ x29: .cfa -64 + ^
STACK CFI 37b14 .cfa: sp 96 +
STACK CFI 37b28 .cfa: sp 0 +
STACK CFI 37b2c .cfa: x29 64 +
STACK CFI INIT 37b5c 284 .cfa: sp 0 +
STACK CFI 37b60 .cfa: sp 112 +
STACK CFI 37b78 .cfa: x29 80 + x19: .cfa -8 + ^ x20: .cfa -16 + ^ x21: .cfa -24 + ^ x22: .cfa -32 + ^ x23: .cfa -40 + ^ x24: .cfa -48 + ^ x25: .cfa -64 + ^ .ra: .cfa -72 + ^ x29: .cfa -80 + ^
STACK CFI 37d80 .cfa: sp 112 +
STACK CFI 37d98 .cfa: sp 0 +
STACK CFI 37d9c .cfa: x29 80 +
STACK CFI INIT 37de0 208 .cfa: sp 0 +
STACK CFI 37de4 .cfa: sp 96 +
STACK CFI 37df8 .cfa: x29 64 + x19: .cfa -8 + ^ x20: .cfa -16 + ^ x21: .cfa -24 + ^ x22: .cfa -32 + ^ x23: .cfa -40 + ^ x24: .cfa -48 + ^ .ra: .cfa -56 + ^ x29: .cfa -64 + ^
STACK CFI 37fa0 .cfa: sp 96 +
STACK CFI 37fb4 .cfa: sp 0 +
STACK CFI 37fb8 .cfa: x29 64 +
STACK CFI INIT 37fe8 360 .cfa: sp 0 +
STACK CFI 37fec .cfa: sp 160 +
STACK CFI 38008 .cfa: x29 96 + x19: .cfa -8 + ^ x20: .cfa -16 + ^ x21: .cfa -24 + ^ x22: .cfa -32 + ^ x23: .cfa -40 + ^ x24: .cfa -48 + ^ x25: .cfa -56 + ^ x26: .cfa -64 + ^ x27: .cfa -72 + ^ x28: .cfa -80 + ^ .ra: .cfa -88 + ^ x29: .cfa -96 + ^
STACK CFI 382d4 .cfa: sp 160 +
STACK CFI 382f0 .cfa: sp 0 +
STACK CFI 382f4 .cfa: x29 96 +
STACK CFI INIT 38348 314 .cfa: sp 0 +
STACK CFI 3834c .cfa: sp 144 +
STACK CFI 38368 .cfa: x29 96 + x19: .cfa -8 + ^ x20: .cfa -16 + ^ x21: .cfa -24 + ^ x22: .cfa -32 + ^ x23: .cfa -40 + ^ x24: .cfa -48 + ^ x25: .cfa -56 + ^ x26: .cfa -64 + ^ x27: .cfa -72 + ^ x28: .cfa -80 + ^ .ra: .cfa -88 + ^ x29: .cfa -96 + ^
STACK CFI 385e4 .cfa: sp 144 +
STACK CFI 38600 .cfa: sp 0 +
STACK CFI 38604 .cfa: x29 96 +
STACK CFI INIT 3865c 2b4 .cfa: sp 0 +
STACK CFI 38660 .cfa: sp 128 +
STACK CFI 38678 .cfa: x29 80 + x19: .cfa -8 + ^ x20: .cfa -16 + ^ x21: .cfa -24 + ^ x22: .cfa -32 + ^ x23: .cfa -40 + ^ x24: .cfa -48 + ^ x25: .cfa -56 + ^ x26: .cfa -64 + ^ .ra: .cfa -72 + ^ x29: .cfa -80 + ^
STACK CFI 3886c .cfa: sp 128 +
STACK CFI 38884 .cfa: sp 0 +
STACK CFI 38888 .cfa: x29 80 +
STACK CFI 388f0 .cfa: sp 128 +
STACK CFI 38908 .cfa: sp 0 +
STACK CFI 3890c .cfa: x29 80 +
STACK CFI INIT 38910 de0 .cfa: sp 0 +
STACK CFI 38914 .cfa: sp 144 +
STACK CFI 38930 .cfa: x29 96 + x19: .cfa -8 + ^ x20: .cfa -16 + ^ x21: .cfa -24 + ^ x22: .cfa -32 + ^ x23: .cfa -40 + ^ x24: .cfa -48 + ^ x25: .cfa -56 + ^ x26: .cfa -64 + ^ x27: .cfa -72 + ^ x28: .cfa -80 + ^ .ra: .cfa -88 + ^ x29: .cfa -96 + ^
STACK CFI 395c8 .cfa: sp 144 +
STACK CFI 395e4 .cfa: sp 0 +
STACK CFI 395e8 .cfa: x29 96 +
STACK CFI INIT 396f0 264 .cfa: sp 0 +
STACK CFI 396f4 .cfa: sp 112 +
STACK CFI 39708 .cfa: x29 64 + x19: .cfa -8 + ^ x20: .cfa -16 + ^ x21: .cfa -24 + ^ x22: .cfa -32 + ^ x23: .cfa -40 + ^ x24: .cfa -48 + ^ .ra: .cfa -56 + ^ x29: .cfa -64 + ^
STACK CFI 39884 .cfa: sp 112 +
STACK CFI 39898 .cfa: sp 0 +
STACK CFI 3989c .cfa: x29 64 +
STACK CFI 3990c .cfa: sp 112 +
STACK CFI 39920 .cfa: sp 0 +
STACK CFI 39924 .cfa: x29 64 +
STACK CFI INIT 39954 258 .cfa: sp 0 +
STACK CFI 39958 .cfa: sp 96 +
STACK CFI 39970 .cfa: x29 96 + x19: .cfa -8 + ^ x20: .cfa -16 + ^ x21: .cfa -24 + ^ x22: .cfa -32 + ^ x23: .cfa -40 + ^ x24: .cfa -48 + ^ x25: .cfa -56 + ^ x26: .cfa -64 + ^ x27: .cfa -72 + ^ x28: .cfa -80 + ^ .ra: .cfa -88 + ^ x29: .cfa -96 + ^
STACK CFI 39b68 .cfa: sp 96 +
STACK CFI 39b80 .cfa: sp 0 +
STACK CFI 39b84 .cfa: x29 96 +
STACK CFI 39b90 .cfa: sp 96 +
STACK CFI 39ba8 .cfa: sp 0 +
STACK CFI INIT 3a830 154 .cfa: sp 0 +
STACK CFI 3a834 .cfa: sp 96 +
STACK CFI 3a848 .cfa: x29 64 + x19: .cfa -8 + ^ x20: .cfa -16 + ^ x21: .cfa -24 + ^ x22: .cfa -32 + ^ x23: .cfa -48 + ^ .ra: .cfa -56 + ^ x29: .cfa -64 + ^
STACK CFI 3a928 .cfa: sp 96 +
STACK CFI 3a93c .cfa: sp 0 +
STACK CFI 3a940 .cfa: x29 64 +
STACK CFI INIT 3abf0 44 .cfa: sp 0 +
STACK CFI 3abf4 .cfa: sp 32 +
STACK CFI 3abfc .cfa: x29 32 + x19: .cfa -16 + ^ .ra: .cfa -24 + ^ x29: .cfa -32 + ^
STACK CFI 3ac18 .cfa: sp 32 +
STACK CFI 3ac20 .cfa: sp 0 +
STACK CFI 3ac24 .cfa: x29 32 +
STACK CFI 3ac28 .cfa: sp 32 +
STACK CFI 3ac30 .cfa: sp 0 +
STACK CFI INIT 3ac34 1d0 .cfa: sp 0 +
STACK CFI 3ac38 .cfa: sp 64 +
STACK CFI 3ac48 .cfa: x29 64 + x19: .cfa -8 + ^ x20: .cfa -16 + ^ x21: .cfa -24 + ^ x22: .cfa -32 + ^ x23: .cfa -40 + ^ x24: .cfa -48 + ^ .ra: .cfa -56 + ^ x29: .cfa -64 + ^
STACK CFI 3ad08 .cfa: sp 64 +
STACK CFI 3ad18 .cfa: sp 0 +
STACK CFI 3ad1c .cfa: x29 64 +
STACK CFI INIT 3ae04 17c .cfa: sp 0 +
STACK CFI INIT 3b338 a0 .cfa: sp 0 +
STACK CFI 3b33c .cfa: sp 48 +
STACK CFI 3b348 .cfa: x29 48 + x19: .cfa -8 + ^ x20: .cfa -16 + ^ x21: .cfa -24 + ^ x22: .cfa -32 + ^ .ra: .cfa -40 + ^ x29: .cfa -48 + ^
STACK CFI 3b3b4 .cfa: sp 48 +
STACK CFI 3b3c0 .cfa: sp 0 +
STACK CFI 3b3c4 .cfa: sp 48 +
STACK CFI 3b3d0 .cfa: sp 0 +
STACK CFI 3b3d4 .cfa: x29 48 +
STACK CFI INIT 3c098 158 .cfa: sp 0 +
STACK CFI 3c09c .cfa: sp 96 +
STACK CFI 3c0b0 .cfa: x29 64 + x19: .cfa -8 + ^ x20: .cfa -16 + ^ x21: .cfa -24 + ^ x22: .cfa -32 + ^ x23: .cfa -48 + ^ .ra: .cfa -56 + ^ x29: .cfa -64 + ^
STACK CFI 3c194 .cfa: sp 96 +
STACK CFI 3c1a8 .cfa: sp 0 +
STACK CFI 3c1ac .cfa: x29 64 +
STACK CFI INIT 3c1f0 190 .cfa: sp 0 +
STACK CFI INIT 3ce78 1f4 .cfa: sp 0 +
STACK CFI 3ce7c .cfa: sp 80 +
STACK CFI 3ce90 .cfa: x29 80 + x19: .cfa -8 + ^ x20: .cfa -16 + ^ x21: .cfa -24 + ^ x22: .cfa -32 + ^ x23: .cfa -40 + ^ x24: .cfa -48 + ^ x25: .cfa -64 + ^ .ra: .cfa -72 + ^ x29: .cfa -80 + ^
STACK CFI 3d030 .cfa: sp 80 +
STACK CFI 3d044 .cfa: sp 0 +
STACK CFI 3d048 .cfa: x29 80 +
STACK CFI 3d054 .cfa: sp 80 +
STACK CFI 3d068 .cfa: sp 0 +
STACK CFI INIT 3e49c 124 .cfa: sp 0 +
STACK CFI 3e4cc .cfa: sp 32 +
STACK CFI 3e4d4 .cfa: x29 32 + x19: .cfa -8 + ^ x20: .cfa -16 + ^ .ra: .cfa -24 + ^ x29: .cfa -32 + ^
STACK CFI 3e5b4 .cfa: sp 32 +
STACK CFI 3e5bc .cfa: sp 0 +
STACK CFI INIT 3ed1c 320 .cfa: sp 0 +
STACK CFI 3ed20 .cfa: sp 64 +
STACK CFI 3ed30 .cfa: x29 64 + x19: .cfa -8 + ^ x20: .cfa -16 + ^ x21: .cfa -24 + ^ x22: .cfa -32 + ^ x23: .cfa -40 + ^ x24: .cfa -48 + ^ .ra: .cfa -56 + ^ x29: .cfa -64 + ^
STACK CFI 3edac .cfa: sp 64 +
STACK CFI 3edbc .cfa: sp 0 +
STACK CFI 3edc0 .cfa: x29 64 +
STACK CFI 3ef94 .cfa: sp 64 +
STACK CFI 3efa4 .cfa: sp 0 +
STACK CFI 3efa8 .cfa: x29 64 +
STACK CFI 3efb8 .cfa: sp 64 +
STACK CFI 3efc8 .cfa: sp 0 +
STACK CFI 3efcc .cfa: x29 64 +
STACK CFI INIT 3f03c a0 .cfa: sp 0 +
STACK CFI 3f040 .cfa: sp 48 +
STACK CFI 3f04c .cfa: x29 48 + x19: .cfa -8 + ^ x20: .cfa -16 + ^ x21: .cfa -24 + ^ x22: .cfa -32 + ^ .ra: .cfa -40 + ^ x29: .cfa -48 + ^
STACK CFI 3f0b8 .cfa: sp 48 +
STACK CFI 3f0c4 .cfa: sp 0 +
STACK CFI 3f0c8 .cfa: sp 48 +
STACK CFI 3f0d4 .cfa: sp 0 +
STACK CFI 3f0d8 .cfa: x29 48 +
STACK CFI INIT 3ffbc 160 .cfa: sp 0 +
STACK CFI 3ffc0 .cfa: sp 64 +
STACK CFI 3ffd0 .cfa: x29 64 + x19: .cfa -8 + ^ x20: .cfa -16 + ^ x21: .cfa -24 + ^ x22: .cfa -32 + ^ x23: .cfa -48 + ^ .ra: .cfa -56 + ^ x29: .cfa -64 + ^
STACK CFI 400c8 .cfa: sp 64 +
STACK CFI 400d8 .cfa: sp 0 +
STACK CFI 400dc .cfa: x29 64 +
STACK CFI INIT 4011c 214 .cfa: sp 0 +
STACK CFI 40120 .cfa: sp 128 +
STACK CFI 4013c .cfa: x29 96 + x19: .cfa -8 + ^ x20: .cfa -16 + ^ x21: .cfa -24 + ^ x22: .cfa -32 + ^ x23: .cfa -40 + ^ x24: .cfa -48 + ^ x25: .cfa -56 + ^ x26: .cfa -64 + ^ x27: .cfa -80 + ^ .ra: .cfa -88 + ^ x29: .cfa -96 + ^
STACK CFI 402b8 .cfa: sp 128 +
STACK CFI 402d4 .cfa: sp 0 +
STACK CFI 402d8 .cfa: x29 96 +
STACK CFI INIT 417e4 e60 .cfa: sp 0 +
STACK CFI 417e8 .cfa: sp 192 +
STACK CFI 41804 .cfa: x29 96 + x19: .cfa -8 + ^ x20: .cfa -16 + ^ x21: .cfa -24 + ^ x22: .cfa -32 + ^ x23: .cfa -40 + ^ x24: .cfa -48 + ^ x25: .cfa -56 + ^ x26: .cfa -64 + ^ x27: .cfa -72 + ^ x28: .cfa -80 + ^ .ra: .cfa -88 + ^ x29: .cfa -96 + ^
STACK CFI 4252c .cfa: sp 192 +
STACK CFI 42548 .cfa: sp 0 +
STACK CFI 4254c .cfa: x29 96 +
STACK CFI INIT 42644 1090 .cfa: sp 0 +
STACK CFI 42648 .cfa: sp 288 +
STACK CFI 42664 .cfa: x29 96 + x19: .cfa -8 + ^ x20: .cfa -16 + ^ x21: .cfa -24 + ^ x22: .cfa -32 + ^ x23: .cfa -40 + ^ x24: .cfa -48 + ^ x25: .cfa -56 + ^ x26: .cfa -64 + ^ x27: .cfa -72 + ^ x28: .cfa -80 + ^ .ra: .cfa -88 + ^ x29: .cfa -96 + ^
STACK CFI 4341c .cfa: sp 288 +
STACK CFI 43438 .cfa: sp 0 +
STACK CFI 4343c .cfa: x29 96 +
STACK CFI INIT 436d4 520 .cfa: sp 0 +
STACK CFI 436d8 .cfa: sp 144 +
STACK CFI 436f4 .cfa: x29 96 + x19: .cfa -8 + ^ x20: .cfa -16 + ^ x21: .cfa -24 + ^ x22: .cfa -32 + ^ x23: .cfa -40 + ^ x24: .cfa -48 + ^ x25: .cfa -56 + ^ x26: .cfa -64 + ^ x27: .cfa -72 + ^ x28: .cfa -80 + ^ .ra: .cfa -88 + ^ x29: .cfa -96 + ^
STACK CFI 43bd0 .cfa: sp 144 +
STACK CFI 43bec .cfa: sp 0 +
STACK CFI 43bf0 .cfa: x29 96 +
STACK CFI INIT 1b910 480 .cfa: sp 0 +
STACK CFI 1b914 .cfa: sp 224 +
STACK CFI 1b930 .cfa: x29 96 + x19: .cfa -8 + ^ x20: .cfa -16 + ^ x21: .cfa -24 + ^ x22: .cfa -32 + ^ x23: .cfa -40 + ^ x24: .cfa -48 + ^ x25: .cfa -56 + ^ x26: .cfa -64 + ^ x27: .cfa -80 + ^ .ra: .cfa -88 + ^ x29: .cfa -96 + ^
STACK CFI 1bb9c .cfa: sp 224 +
STACK CFI 1bbb8 .cfa: sp 0 +
STACK CFI 1bbbc .cfa: x29 96 +
STACK CFI 1bc88 .cfa: sp 224 +
STACK CFI 1bca4 .cfa: sp 0 +
STACK CFI 1bca8 .cfa: x29 96 +
STACK CFI INIT 1bdac 400 .cfa: sp 0 +
STACK CFI 1bdb0 .cfa: sp 224 +
STACK CFI 1bdc4 .cfa: x29 64 + x19: .cfa -8 + ^ x20: .cfa -16 + ^ x21: .cfa -24 + ^ x22: .cfa -32 + ^ x23: .cfa -40 + ^ x24: .cfa -48 + ^ .ra: .cfa -56 + ^ x29: .cfa -64 + ^
STACK CFI 1c078 .cfa: sp 224 +
STACK CFI 1c08c .cfa: sp 0 +
STACK CFI 1c090 .cfa: x29 64 +
STACK CFI INIT 1c1fc 74 .cfa: sp 0 +
STACK CFI 1c200 .cfa: sp 48 +
STACK CFI 1c20c .cfa: x29 32 + x19: .cfa -8 + ^ x20: .cfa -16 + ^ .ra: .cfa -24 + ^ x29: .cfa -32 + ^
STACK CFI 1c258 .cfa: sp 48 +
STACK CFI 1c264 .cfa: sp 0 +
STACK CFI 1c268 .cfa: x29 32 +
STACK CFI INIT 1c300 154 .cfa: sp 0 +
STACK CFI 1c304 .cfa: sp 384 +
STACK CFI 1c318 .cfa: x29 64 + x19: .cfa -8 + ^ x20: .cfa -16 + ^ x21: .cfa -24 + ^ x22: .cfa -32 + ^ x23: .cfa -40 + ^ x28: .cfa -48 + ^ .ra: .cfa -56 + ^ x29: .cfa -64 + ^
STACK CFI 1c3fc .cfa: sp 384 +
STACK CFI 1c410 .cfa: sp 0 +
STACK CFI 1c414 .cfa: x29 64 +
STACK CFI INIT 1c488 12c .cfa: sp 0 +
STACK CFI 1c48c .cfa: sp 80 +
STACK CFI 1c4a0 .cfa: x29 80 + x19: .cfa -8 + ^ x20: .cfa -16 + ^ x21: .cfa -24 + ^ x22: .cfa -32 + ^ x23: .cfa -40 + ^ x24: .cfa -48 + ^ x25: .cfa -56 + ^ x26: .cfa -64 + ^ .ra: .cfa -72 + ^ x29: .cfa -80 + ^
STACK CFI 1c568 .cfa: sp 80 +
STACK CFI 1c57c .cfa: sp 0 +
STACK CFI 1c580 .cfa: x29 80 +
STACK CFI INIT 1c658 1a4 .cfa: sp 0 +
STACK CFI 1c65c .cfa: sp 112 +
STACK CFI 1c674 .cfa: x29 80 + x19: .cfa -8 + ^ x20: .cfa -16 + ^ x21: .cfa -24 + ^ x22: .cfa -32 + ^ x23: .cfa -40 + ^ x24: .cfa -48 + ^ x25: .cfa -56 + ^ x26: .cfa -64 + ^ .ra: .cfa -72 + ^ x29: .cfa -80 + ^
STACK CFI 1c764 .cfa: sp 112 +
STACK CFI 1c77c .cfa: sp 0 +
STACK CFI 1c780 .cfa: x29 80 +
STACK CFI INIT 1c7fc 1dc .cfa: sp 0 +
STACK CFI 1c800 .cfa: sp 128 +
STACK CFI 1c81c .cfa: x29 96 + x19: .cfa -8 + ^ x20: .cfa -16 + ^ x21: .cfa -24 + ^ x22: .cfa -32 + ^ x23: .cfa -40 + ^ x24: .cfa -48 + ^ x25: .cfa -56 + ^ x26: .cfa -64 + ^ x27: .cfa -80 + ^ .ra: .cfa -88 + ^ x29: .cfa -96 + ^
STACK CFI 1c988 .cfa: sp 128 +
STACK CFI 1c9a4 .cfa: sp 0 +
STACK CFI 1c9a8 .cfa: x29 96 +
STACK CFI INIT 1c9ec 50 .cfa: sp 0 +
STACK CFI 1c9f0 .cfa: sp 32 +
STACK CFI 1c9f8 .cfa: x29 32 + x19: .cfa -8 + ^ x20: .cfa -16 + ^ .ra: .cfa -24 + ^ x29: .cfa -32 + ^
STACK CFI INIT 1caa0 178 .cfa: sp 0 +
STACK CFI 1caa4 .cfa: sp 80 +
STACK CFI 1cab8 .cfa: x29 80 + x19: .cfa -8 + ^ x20: .cfa -16 + ^ x21: .cfa -24 + ^ x22: .cfa -32 + ^ x23: .cfa -40 + ^ x24: .cfa -48 + ^ x25: .cfa -64 + ^ .ra: .cfa -72 + ^ x29: .cfa -80 + ^
STACK CFI 1cbe4 .cfa: sp 80 +
STACK CFI 1cbf8 .cfa: sp 0 +
STACK CFI 1cbfc .cfa: x29 80 +
STACK CFI INIT 1cd60 228 .cfa: sp 0 +
STACK CFI 1cd64 .cfa: sp 128 +
STACK CFI 1cd7c .cfa: x29 80 + x19: .cfa -8 + ^ x20: .cfa -16 + ^ x21: .cfa -24 + ^ x22: .cfa -32 + ^ x23: .cfa -40 + ^ x24: .cfa -48 + ^ x25: .cfa -64 + ^ .ra: .cfa -72 + ^ x29: .cfa -80 + ^
STACK CFI 1cf18 .cfa: sp 128 +
STACK CFI 1cf30 .cfa: sp 0 +
STACK CFI 1cf34 .cfa: x29 80 +
STACK CFI INIT 1d6e4 14c .cfa: sp 0 +
STACK CFI 1d6e8 .cfa: sp 112 +
STACK CFI 1d704 .cfa: x29 56 + x19: .cfa -8 + ^ x20: .cfa -16 + ^ x21: .cfa -24 + ^ x22: .cfa -32 + ^ x23: .cfa -40 + ^ .ra: .cfa -48 + ^ x29: .cfa -56 + ^ v8: .cfa -64 + ^ v9: .cfa -72 + ^ v10: .cfa -80 + ^
STACK CFI 1d7e0 .cfa: sp 112 +
STACK CFI 1d7fc .cfa: sp 0 +
STACK CFI 1d800 .cfa: x29 56 +
STACK CFI INIT 1dc20 570 .cfa: sp 0 +
STACK CFI 1dc24 .cfa: sp 256 +
STACK CFI 1dc40 .cfa: x29 96 + x19: .cfa -8 + ^ x20: .cfa -16 + ^ x21: .cfa -24 + ^ x22: .cfa -32 + ^ x23: .cfa -40 + ^ x24: .cfa -48 + ^ x25: .cfa -56 + ^ x26: .cfa -64 + ^ x27: .cfa -80 + ^ .ra: .cfa -88 + ^ x29: .cfa -96 + ^
STACK CFI 1df8c .cfa: sp 256 +
STACK CFI 1dfa8 .cfa: sp 0 +
STACK CFI 1dfac .cfa: x29 96 +
STACK CFI 1e078 .cfa: sp 256 +
STACK CFI 1e094 .cfa: sp 0 +
STACK CFI 1e098 .cfa: x29 96 +
STACK CFI INIT 1e1ac c3c .cfa: sp 0 +
STACK CFI 1e1b0 .cfa: sp 256 +
STACK CFI 1e1c8 .cfa: x29 80 + x19: .cfa -8 + ^ x20: .cfa -16 + ^ x21: .cfa -24 + ^ x22: .cfa -32 + ^ x23: .cfa -40 + ^ x24: .cfa -48 + ^ x25: .cfa -56 + ^ x26: .cfa -64 + ^ .ra: .cfa -72 + ^ x29: .cfa -80 + ^
STACK CFI 1ea6c .cfa: sp 256 +
STACK CFI 1ea84 .cfa: sp 0 +
STACK CFI 1ea88 .cfa: x29 80 +
STACK CFI INIT 1edec 388 .cfa: sp 0 +
STACK CFI 1edf0 .cfa: sp 192 +
STACK CFI 1ee0c .cfa: x29 96 + x19: .cfa -8 + ^ x20: .cfa -16 + ^ x21: .cfa -24 + ^ x22: .cfa -32 + ^ x23: .cfa -40 + ^ x24: .cfa -48 + ^ x25: .cfa -56 + ^ x26: .cfa -64 + ^ x27: .cfa -72 + ^ x28: .cfa -80 + ^ .ra: .cfa -88 + ^ x29: .cfa -96 + ^
STACK CFI 1f0e0 .cfa: sp 192 +
STACK CFI 1f0fc .cfa: sp 0 +
STACK CFI 1f100 .cfa: x29 96 +
STACK CFI INIT 1f28c 168 .cfa: sp 0 +
STACK CFI 1f290 .cfa: sp 384 +
STACK CFI 1f2a4 .cfa: x29 64 + x19: .cfa -8 + ^ x20: .cfa -16 + ^ x21: .cfa -24 + ^ x22: .cfa -32 + ^ x23: .cfa -40 + ^ x28: .cfa -48 + ^ .ra: .cfa -56 + ^ x29: .cfa -64 + ^
STACK CFI 1f39c .cfa: sp 384 +
STACK CFI 1f3b0 .cfa: sp 0 +
STACK CFI 1f3b4 .cfa: x29 64 +
STACK CFI INIT 1f40c 134 .cfa: sp 0 +
STACK CFI 1f410 .cfa: sp 128 +
STACK CFI 1f424 .cfa: x29 64 + x19: .cfa -8 + ^ x20: .cfa -16 + ^ x21: .cfa -24 + ^ x22: .cfa -32 + ^ x23: .cfa -40 + ^ x24: .cfa -48 + ^ .ra: .cfa -56 + ^ x29: .cfa -64 + ^
STACK CFI 1f4f0 .cfa: sp 128 +
STACK CFI 1f504 .cfa: sp 0 +
STACK CFI 1f508 .cfa: x29 64 +
STACK CFI INIT 1f540 3ec .cfa: sp 0 +
STACK CFI 1f544 .cfa: sp 144 +
STACK CFI 1f560 .cfa: x29 96 + x19: .cfa -8 + ^ x20: .cfa -16 + ^ x21: .cfa -24 + ^ x22: .cfa -32 + ^ x23: .cfa -40 + ^ x24: .cfa -48 + ^ x25: .cfa -56 + ^ x26: .cfa -64 + ^ x27: .cfa -72 + ^ x28: .cfa -80 + ^ .ra: .cfa -88 + ^ x29: .cfa -96 + ^
STACK CFI 1f898 .cfa: sp 144 +
STACK CFI 1f8b4 .cfa: sp 0 +
STACK CFI 1f8b8 .cfa: x29 96 +
STACK CFI INIT 1f92c 524 .cfa: sp 0 +
STACK CFI 1f930 .cfa: sp 128 +
STACK CFI 1f94c .cfa: x29 80 + x19: .cfa -8 + ^ x20: .cfa -16 + ^ x21: .cfa -24 + ^ x22: .cfa -32 + ^ x23: .cfa -40 + ^ x24: .cfa -48 + ^ x25: .cfa -56 + ^ x26: .cfa -64 + ^ .ra: .cfa -72 + ^ x29: .cfa -80 + ^ v8: .cfa -96 + ^
STACK CFI 1fda4 .cfa: sp 128 +
STACK CFI 1fdc0 .cfa: sp 0 +
STACK CFI 1fdc4 .cfa: x29 80 +
STACK CFI INIT 1fe50 1700 .cfa: sp 0 +
STACK CFI 1fe54 .cfa: sp 464 +
STACK CFI 1fe78 .cfa: x29 96 + x19: .cfa -8 + ^ x20: .cfa -16 + ^ x21: .cfa -24 + ^ x22: .cfa -32 + ^ x23: .cfa -40 + ^ x24: .cfa -48 + ^ x25: .cfa -56 + ^ x26: .cfa -64 + ^ x27: .cfa -72 + ^ x28: .cfa -80 + ^ .ra: .cfa -88 + ^ x29: .cfa -96 + ^ v8: .cfa -104 + ^ v9: .cfa -112 + ^ v10: .cfa -120 + ^ v11: .cfa -128 + ^
STACK CFI 21028 .cfa: sp 464 +
STACK CFI 2104c .cfa: sp 0 +
STACK CFI 21050 .cfa: x29 96 +
STACK CFI INIT 21550 178 .cfa: sp 0 +
STACK CFI 21554 .cfa: sp 80 +
STACK CFI 21564 .cfa: x29 48 + x19: .cfa -8 + ^ x20: .cfa -16 + ^ x21: .cfa -32 + ^ .ra: .cfa -40 + ^ x29: .cfa -48 + ^
STACK CFI 21684 .cfa: sp 80 +
STACK CFI 21694 .cfa: sp 0 +
STACK CFI 21698 .cfa: x29 48 +
STACK CFI INIT 216c8 134 .cfa: sp 0 +
STACK CFI 216cc .cfa: sp 80 +
STACK CFI 216dc .cfa: x29 48 + x19: .cfa -8 + ^ x20: .cfa -16 + ^ x21: .cfa -24 + ^ x22: .cfa -32 + ^ .ra: .cfa -40 + ^ x29: .cfa -48 + ^
STACK CFI 217b8 .cfa: sp 80 +
STACK CFI 217c8 .cfa: sp 0 +
STACK CFI 217cc .cfa: x29 48 +
STACK CFI INIT 217fc c8 .cfa: sp 0 +
STACK CFI 21800 .cfa: sp 32 +
STACK CFI 21808 .cfa: x29 32 + x19: .cfa -8 + ^ x20: .cfa -16 + ^ .ra: .cfa -24 + ^ x29: .cfa -32 + ^
STACK CFI 2183c .cfa: sp 32 +
STACK CFI 21844 .cfa: sp 0 +
STACK CFI 21848 .cfa: x29 32 +
STACK CFI 2184c .cfa: sp 32 +
STACK CFI 21854 .cfa: sp 0 +
STACK CFI 21858 .cfa: x29 32 +
STACK CFI INIT 218c4 f4 .cfa: sp 0 +
STACK CFI 218c8 .cfa: sp 32 +
STACK CFI 218d0 .cfa: x29 32 + x19: .cfa -8 + ^ x20: .cfa -16 + ^ .ra: .cfa -24 + ^ x29: .cfa -32 + ^
STACK CFI 2197c .cfa: sp 32 +
STACK CFI 21984 .cfa: sp 0 +
STACK CFI 21988 .cfa: x29 32 +
STACK CFI INIT 21b58 658 .cfa: sp 0 +
STACK CFI 21b5c .cfa: sp 224 +
STACK CFI 21b78 .cfa: x29 96 + x19: .cfa -8 + ^ x20: .cfa -16 + ^ x21: .cfa -24 + ^ x22: .cfa -32 + ^ x23: .cfa -40 + ^ x24: .cfa -48 + ^ x25: .cfa -56 + ^ x26: .cfa -64 + ^ x27: .cfa -72 + ^ x28: .cfa -80 + ^ .ra: .cfa -88 + ^ x29: .cfa -96 + ^
STACK CFI 22040 .cfa: sp 224 +
STACK CFI 2205c .cfa: sp 0 +
STACK CFI 22060 .cfa: x29 96 +
STACK CFI INIT 221e8 50 .cfa: sp 0 +
STACK CFI 221ec .cfa: sp 32 +
STACK CFI 221f4 .cfa: x29 32 + x19: .cfa -8 + ^ x20: .cfa -16 + ^ .ra: .cfa -24 + ^ x29: .cfa -32 + ^
STACK CFI INIT 22410 100 .cfa: sp 0 +
STACK CFI 22414 .cfa: sp 80 +
STACK CFI 22424 .cfa: x29 48 + x19: .cfa -8 + ^ x20: .cfa -16 + ^ x21: .cfa -24 + ^ x22: .cfa -32 + ^ .ra: .cfa -40 + ^ x29: .cfa -48 + ^
STACK CFI 224cc .cfa: sp 80 +
STACK CFI 224dc .cfa: sp 0 +
STACK CFI 224e0 .cfa: x29 48 +
STACK CFI INIT 225c0 19d4 .cfa: sp 0 +
STACK CFI 225c4 .cfa: sp 96 +
STACK CFI 225dc .cfa: x29 96 + x19: .cfa -8 + ^ x20: .cfa -16 + ^ x21: .cfa -24 + ^ x22: .cfa -32 + ^ x23: .cfa -40 + ^ x24: .cfa -48 + ^ x25: .cfa -56 + ^ x26: .cfa -64 + ^ x27: .cfa -72 + ^ x28: .cfa -80 + ^ .ra: .cfa -88 + ^ x29: .cfa -96 + ^
STACK CFI 23c54 .cfa: sp 96 +
STACK CFI 23c6c .cfa: sp 0 +
STACK CFI 23c70 .cfa: x29 96 +
STACK CFI INIT 240f8 1d4 .cfa: sp 0 +
STACK CFI 240fc .cfa: sp 320 +
STACK CFI 24114 .cfa: x29 80 + x19: .cfa -8 + ^ x20: .cfa -16 + ^ x21: .cfa -24 + ^ x22: .cfa -32 + ^ x23: .cfa -40 + ^ x24: .cfa -48 + ^ x28: .cfa -64 + ^ .ra: .cfa -72 + ^ x29: .cfa -80 + ^
STACK CFI 24280 .cfa: sp 320 +
STACK CFI 24298 .cfa: sp 0 +
STACK CFI 2429c .cfa: x29 80 +
STACK CFI INIT 27668 44c .cfa: sp 0 +
STACK CFI 2766c .cfa: sp 256 +
STACK CFI 27688 .cfa: x29 96 + x19: .cfa -8 + ^ x20: .cfa -16 + ^ x21: .cfa -24 + ^ x22: .cfa -32 + ^ x23: .cfa -40 + ^ x24: .cfa -48 + ^ x25: .cfa -56 + ^ x26: .cfa -64 + ^ x27: .cfa -72 + ^ x28: .cfa -80 + ^ .ra: .cfa -88 + ^ x29: .cfa -96 + ^
STACK CFI 279b8 .cfa: sp 256 +
STACK CFI 279d4 .cfa: sp 0 +
STACK CFI 279d8 .cfa: x29 96 +
STACK CFI INIT 27ab4 ea8 .cfa: sp 0 +
STACK CFI 27ab8 .cfa: sp 384 +
STACK CFI 27ad4 .cfa: x29 96 + x19: .cfa -8 + ^ x20: .cfa -16 + ^ x21: .cfa -24 + ^ x22: .cfa -32 + ^ x23: .cfa -40 + ^ x24: .cfa -48 + ^ x25: .cfa -56 + ^ x26: .cfa -64 + ^ x27: .cfa -72 + ^ x28: .cfa -80 + ^ .ra: .cfa -88 + ^ x29: .cfa -96 + ^
STACK CFI 28834 .cfa: sp 384 +
STACK CFI 28850 .cfa: sp 0 +
STACK CFI 28854 .cfa: x29 96 +
STACK CFI INIT 2895c a00 .cfa: sp 0 +
STACK CFI 28960 .cfa: sp 416 +
STACK CFI 2897c .cfa: x29 96 + x19: .cfa -8 + ^ x20: .cfa -16 + ^ x21: .cfa -24 + ^ x22: .cfa -32 + ^ x23: .cfa -40 + ^ x24: .cfa -48 + ^ x25: .cfa -56 + ^ x26: .cfa -64 + ^ x27: .cfa -72 + ^ x28: .cfa -80 + ^ .ra: .cfa -88 + ^ x29: .cfa -96 + ^
STACK CFI 28aa4 .cfa: sp 416 +
STACK CFI 28ac0 .cfa: sp 0 +
STACK CFI 28ac4 .cfa: x29 96 +
STACK CFI INIT 293a0 4c .cfa: sp 0 +
STACK CFI 293a4 .cfa: sp 32 +
STACK CFI 293ac .cfa: x29 32 + x19: .cfa -8 + ^ x20: .cfa -16 + ^ .ra: .cfa -24 + ^ x29: .cfa -32 + ^
STACK CFI INIT 293ec 170 .cfa: sp 0 +
STACK CFI 293f0 .cfa: sp 80 +
STACK CFI 29404 .cfa: x29 80 + x19: .cfa -8 + ^ x20: .cfa -16 + ^ x21: .cfa -24 + ^ x22: .cfa -32 + ^ x23: .cfa -40 + ^ x24: .cfa -48 + ^ x25: .cfa -64 + ^ .ra: .cfa -72 + ^ x29: .cfa -80 + ^
STACK CFI 294f8 .cfa: sp 80 +
STACK CFI 2950c .cfa: sp 0 +
STACK CFI 29510 .cfa: x29 80 +
STACK CFI INIT 2955c 4c .cfa: sp 0 +
STACK CFI 29560 .cfa: sp 32 +
STACK CFI 29568 .cfa: x29 32 + x19: .cfa -8 + ^ x20: .cfa -16 + ^ .ra: .cfa -24 + ^ x29: .cfa -32 + ^
STACK CFI INIT 29cf4 5f0 .cfa: sp 0 +
STACK CFI 29cf8 .cfa: sp 112 +
STACK CFI 29d14 .cfa: x29 96 + x19: .cfa -8 + ^ x20: .cfa -16 + ^ x21: .cfa -24 + ^ x22: .cfa -32 + ^ x23: .cfa -40 + ^ x24: .cfa -48 + ^ x25: .cfa -56 + ^ x26: .cfa -64 + ^ x27: .cfa -80 + ^ .ra: .cfa -88 + ^ x29: .cfa -96 + ^
STACK CFI 29fb8 .cfa: sp 112 +
STACK CFI 29fd4 .cfa: sp 0 +
STACK CFI 29fd8 .cfa: x29 96 +
STACK CFI 2a1cc .cfa: sp 112 +
STACK CFI 2a1e8 .cfa: sp 0 +
STACK CFI 2a1ec .cfa: x29 96 +
STACK CFI INIT 2a798 4c .cfa: sp 0 +
STACK CFI 2a79c .cfa: sp 32 +
STACK CFI 2a7a4 .cfa: x29 32 + x19: .cfa -8 + ^ x20: .cfa -16 + ^ .ra: .cfa -24 + ^ x29: .cfa -32 + ^
STACK CFI INIT 2a834 6c4 .cfa: sp 0 +
STACK CFI 2a838 .cfa: sp 112 +
STACK CFI 2a854 .cfa: x29 96 + x19: .cfa -8 + ^ x20: .cfa -16 + ^ x21: .cfa -24 + ^ x22: .cfa -32 + ^ x23: .cfa -40 + ^ x24: .cfa -48 + ^ x25: .cfa -56 + ^ x26: .cfa -64 + ^ x27: .cfa -72 + ^ x28: .cfa -80 + ^ .ra: .cfa -88 + ^ x29: .cfa -96 + ^
STACK CFI 2a998 .cfa: sp 112 +
STACK CFI 2a9b4 .cfa: sp 0 +
STACK CFI 2a9b8 .cfa: x29 96 +
STACK CFI 2a9c4 .cfa: sp 112 +
STACK CFI 2a9e0 .cfa: sp 0 +
STACK CFI 2a9e4 .cfa: x29 96 +
STACK CFI 2ae80 .cfa: sp 112 +
STACK CFI 2ae9c .cfa: sp 0 +
STACK CFI 2aea0 .cfa: x29 96 +
STACK CFI INIT 2aef8 4c .cfa: sp 0 +
STACK CFI 2aefc .cfa: sp 32 +
STACK CFI 2af04 .cfa: x29 32 + x19: .cfa -8 + ^ x20: .cfa -16 + ^ .ra: .cfa -24 + ^ x29: .cfa -32 + ^
STACK CFI INIT 2b4c8 4c .cfa: sp 0 +
STACK CFI 2b4cc .cfa: sp 32 +
STACK CFI 2b4d4 .cfa: x29 32 + x19: .cfa -8 + ^ x20: .cfa -16 + ^ .ra: .cfa -24 + ^ x29: .cfa -32 + ^
STACK CFI INIT 2b62c 364 .cfa: sp 0 +
STACK CFI 2b630 .cfa: sp 144 +
STACK CFI 2b644 .cfa: x29 64 + x19: .cfa -8 + ^ x20: .cfa -16 + ^ x21: .cfa -24 + ^ x22: .cfa -32 + ^ x23: .cfa -48 + ^ .ra: .cfa -56 + ^ x29: .cfa -64 + ^
STACK CFI 2b7d8 .cfa: sp 144 +
STACK CFI 2b7ec .cfa: sp 0 +
STACK CFI 2b7f0 .cfa: x29 64 +
STACK CFI INIT 2b990 644 .cfa: sp 0 +
STACK CFI 2b994 .cfa: sp 64 +
STACK CFI 2b9a4 .cfa: x29 64 + x19: .cfa -8 + ^ x20: .cfa -16 + ^ x21: .cfa -24 + ^ x22: .cfa -32 + ^ x23: .cfa -48 + ^ .ra: .cfa -56 + ^ x29: .cfa -64 + ^
STACK CFI 2ba10 .cfa: sp 64 +
STACK CFI 2ba20 .cfa: sp 0 +
STACK CFI 2ba24 .cfa: x29 64 +
STACK CFI 2ba74 .cfa: sp 64 +
STACK CFI 2ba84 .cfa: sp 0 +
STACK CFI 2ba88 .cfa: x29 64 +
STACK CFI 2bb04 .cfa: sp 64 +
STACK CFI 2bb14 .cfa: sp 0 +
STACK CFI 2bb18 .cfa: x29 64 +
STACK CFI 2bc08 .cfa: sp 64 +
STACK CFI 2bc18 .cfa: sp 0 +
STACK CFI 2bc1c .cfa: x29 64 +
STACK CFI 2bcac .cfa: sp 64 +
STACK CFI 2bcbc .cfa: sp 0 +
STACK CFI 2bcc0 .cfa: x29 64 +
STACK CFI 2bcd8 .cfa: sp 64 +
STACK CFI 2bce8 .cfa: sp 0 +
STACK CFI 2bcec .cfa: x29 64 +
STACK CFI 2be74 .cfa: sp 64 +
STACK CFI 2be84 .cfa: sp 0 +
STACK CFI 2be88 .cfa: x29 64 +
STACK CFI 2be9c .cfa: sp 64 +
STACK CFI 2beac .cfa: sp 0 +
STACK CFI 2beb0 .cfa: x29 64 +
STACK CFI 2bf38 .cfa: sp 64 +
STACK CFI 2bf48 .cfa: sp 0 +
STACK CFI 2bf4c .cfa: x29 64 +
STACK CFI INIT 2c3c8 6c .cfa: sp 0 +
STACK CFI 2c3cc .cfa: sp 32 +
STACK CFI 2c3d4 .cfa: x29 32 + x19: .cfa -8 + ^ x20: .cfa -16 + ^ .ra: .cfa -24 + ^ x29: .cfa -32 + ^
STACK CFI 2c414 .cfa: sp 32 +
STACK CFI 2c41c .cfa: sp 0 +
STACK CFI 2c420 .cfa: x29 32 +
STACK CFI INIT 2c4e8 4c .cfa: sp 0 +
STACK CFI 2c4ec .cfa: sp 32 +
STACK CFI 2c4f4 .cfa: x29 32 + x19: .cfa -8 + ^ x20: .cfa -16 + ^ .ra: .cfa -24 + ^ x29: .cfa -32 + ^
STACK CFI INIT 2c95c 1d4 .cfa: sp 0 +
STACK CFI 2c960 .cfa: sp 176 +
STACK CFI 2c970 .cfa: x29 48 + x19: .cfa -8 + ^ x20: .cfa -16 + ^ x21: .cfa -24 + ^ x22: .cfa -32 + ^ .ra: .cfa -40 + ^ x29: .cfa -48 + ^
STACK CFI 2cac8 .cfa: sp 176 +
STACK CFI 2cad8 .cfa: sp 0 +
STACK CFI 2cadc .cfa: x29 48 +
STACK CFI 2caec .cfa: sp 176 +
STACK CFI 2cafc .cfa: sp 0 +
STACK CFI 2cb00 .cfa: x29 48 +
STACK CFI INIT 2cb30 10f4 .cfa: sp 0 +
STACK CFI 2cb34 .cfa: sp 432 +
STACK CFI 2cb50 .cfa: x29 96 + x19: .cfa -8 + ^ x20: .cfa -16 + ^ x21: .cfa -24 + ^ x22: .cfa -32 + ^ x23: .cfa -40 + ^ x24: .cfa -48 + ^ x25: .cfa -56 + ^ x26: .cfa -64 + ^ x27: .cfa -72 + ^ x28: .cfa -80 + ^ .ra: .cfa -88 + ^ x29: .cfa -96 + ^
STACK CFI 2d938 .cfa: sp 432 +
STACK CFI 2d954 .cfa: sp 0 +
STACK CFI 2d958 .cfa: x29 96 +
STACK CFI INIT 2dc24 4c .cfa: sp 0 +
STACK CFI 2dc28 .cfa: sp 32 +
STACK CFI 2dc30 .cfa: x29 32 + x19: .cfa -8 + ^ x20: .cfa -16 + ^ .ra: .cfa -24 + ^ x29: .cfa -32 + ^
STACK CFI INIT 2e1c4 140 .cfa: sp 0 +
STACK CFI 2e1c8 .cfa: sp 48 +
STACK CFI 2e1d4 .cfa: x29 48 + x19: .cfa -8 + ^ x20: .cfa -16 + ^ x21: .cfa -32 + ^ .ra: .cfa -40 + ^ x29: .cfa -48 + ^
STACK CFI 2e2b4 .cfa: sp 48 +
STACK CFI 2e2c0 .cfa: sp 0 +
STACK CFI 2e2c4 .cfa: x29 48 +
STACK CFI INIT 2e304 4c .cfa: sp 0 +
STACK CFI 2e308 .cfa: sp 32 +
STACK CFI 2e310 .cfa: x29 32 + x19: .cfa -8 + ^ x20: .cfa -16 + ^ .ra: .cfa -24 + ^ x29: .cfa -32 + ^
STACK CFI INIT 2ef90 1dc .cfa: sp 0 +
STACK CFI 2ef94 .cfa: sp 128 +
STACK CFI 2efac .cfa: x29 80 + x19: .cfa -8 + ^ x20: .cfa -16 + ^ x21: .cfa -24 + ^ x22: .cfa -32 + ^ x23: .cfa -40 + ^ x24: .cfa -48 + ^ x25: .cfa -64 + ^ .ra: .cfa -72 + ^ x29: .cfa -80 + ^
STACK CFI 2f0a0 .cfa: sp 128 +
STACK CFI 2f0b8 .cfa: sp 0 +
STACK CFI 2f0bc .cfa: x29 80 +
STACK CFI INIT 2f380 c6c .cfa: sp 0 +
STACK CFI 2f384 .cfa: sp 256 +
STACK CFI 2f3a0 .cfa: x29 96 + x19: .cfa -8 + ^ x20: .cfa -16 + ^ x21: .cfa -24 + ^ x22: .cfa -32 + ^ x23: .cfa -40 + ^ x24: .cfa -48 + ^ x25: .cfa -56 + ^ x26: .cfa -64 + ^ x27: .cfa -72 + ^ x28: .cfa -80 + ^ .ra: .cfa -88 + ^ x29: .cfa -96 + ^
STACK CFI 2ff28 .cfa: sp 256 +
STACK CFI 2ff44 .cfa: sp 0 +
STACK CFI 2ff48 .cfa: x29 96 +
STACK CFI INIT 30030 1c4 .cfa: sp 0 +
STACK CFI 30034 .cfa: sp 112 +
STACK CFI 3004c .cfa: x29 80 + x19: .cfa -8 + ^ x20: .cfa -16 + ^ x21: .cfa -24 + ^ x22: .cfa -32 + ^ x23: .cfa -40 + ^ x24: .cfa -48 + ^ x25: .cfa -56 + ^ x26: .cfa -64 + ^ .ra: .cfa -72 + ^ x29: .cfa -80 + ^
STACK CFI 30178 .cfa: sp 112 +
STACK CFI 30190 .cfa: sp 0 +
STACK CFI 30194 .cfa: x29 80 +
STACK CFI INIT 30208 4c .cfa: sp 0 +
STACK CFI 3020c .cfa: sp 32 +
STACK CFI 30214 .cfa: x29 32 + x19: .cfa -8 + ^ x20: .cfa -16 + ^ .ra: .cfa -24 + ^ x29: .cfa -32 + ^
STACK CFI INIT 31100 4c .cfa: sp 0 +
STACK CFI 31104 .cfa: sp 32 +
STACK CFI 3110c .cfa: x29 32 + x19: .cfa -8 + ^ x20: .cfa -16 + ^ .ra: .cfa -24 + ^ x29: .cfa -32 + ^
STACK CFI INIT 3114c 2b4 .cfa: sp 0 +
STACK CFI 31150 .cfa: sp 144 +
STACK CFI 31168 .cfa: x29 80 + x19: .cfa -8 + ^ x20: .cfa -16 + ^ x21: .cfa -24 + ^ x22: .cfa -32 + ^ x23: .cfa -40 + ^ x24: .cfa -48 + ^ x25: .cfa -56 + ^ x26: .cfa -64 + ^ .ra: .cfa -72 + ^ x29: .cfa -80 + ^
STACK CFI 3136c .cfa: sp 144 +
STACK CFI 31384 .cfa: sp 0 +
STACK CFI 31388 .cfa: x29 80 +
STACK CFI INIT 31400 4c .cfa: sp 0 +
STACK CFI 31404 .cfa: sp 32 +
STACK CFI 3140c .cfa: x29 32 + x19: .cfa -8 + ^ x20: .cfa -16 + ^ .ra: .cfa -24 + ^ x29: .cfa -32 + ^
STACK CFI INIT 3144c 1b4 .cfa: sp 0 +
STACK CFI 31450 .cfa: sp 112 +
STACK CFI 31468 .cfa: x29 80 + x19: .cfa -8 + ^ x20: .cfa -16 + ^ x21: .cfa -24 + ^ x22: .cfa -32 + ^ x23: .cfa -40 + ^ x24: .cfa -48 + ^ x25: .cfa -64 + ^ .ra: .cfa -72 + ^ x29: .cfa -80 + ^
STACK CFI 3159c .cfa: sp 112 +
STACK CFI 315b4 .cfa: sp 0 +
STACK CFI 315b8 .cfa: x29 80 +
STACK CFI INIT 31600 4c .cfa: sp 0 +
STACK CFI 31604 .cfa: sp 32 +
STACK CFI 3160c .cfa: x29 32 + x19: .cfa -8 + ^ x20: .cfa -16 + ^ .ra: .cfa -24 + ^ x29: .cfa -32 + ^
STACK CFI INIT 31914 140 .cfa: sp 0 +
STACK CFI 31918 .cfa: sp 96 +
STACK CFI 31930 .cfa: x29 96 + x19: .cfa -8 + ^ x20: .cfa -16 + ^ x21: .cfa -24 + ^ x22: .cfa -32 + ^ x23: .cfa -40 + ^ x24: .cfa -48 + ^ x25: .cfa -56 + ^ x26: .cfa -64 + ^ x27: .cfa -72 + ^ x28: .cfa -80 + ^ .ra: .cfa -88 + ^ x29: .cfa -96 + ^
STACK CFI 319ec .cfa: sp 96 +
STACK CFI 31a04 .cfa: sp 0 +
STACK CFI 31a08 .cfa: x29 96 +
STACK CFI INIT 31a54 4c .cfa: sp 0 +
STACK CFI 31a58 .cfa: sp 32 +
STACK CFI 31a60 .cfa: x29 32 + x19: .cfa -8 + ^ x20: .cfa -16 + ^ .ra: .cfa -24 + ^ x29: .cfa -32 + ^
STACK CFI INIT 31aa0 4c .cfa: sp 0 +
STACK CFI 31aa4 .cfa: sp 32 +
STACK CFI 31aac .cfa: x29 32 + x19: .cfa -8 + ^ x20: .cfa -16 + ^ .ra: .cfa -24 + ^ x29: .cfa -32 + ^
STACK CFI INIT 31f7c 4c .cfa: sp 0 +
STACK CFI 31f80 .cfa: sp 32 +
STACK CFI 31f88 .cfa: x29 32 + x19: .cfa -8 + ^ x20: .cfa -16 + ^ .ra: .cfa -24 + ^ x29: .cfa -32 + ^
STACK CFI INIT 32c40 d0 .cfa: sp 0 +
STACK CFI 32c44 .cfa: sp 64 +
STACK CFI 32c50 .cfa: x29 32 + x19: .cfa -8 + ^ x20: .cfa -16 + ^ .ra: .cfa -24 + ^ x29: .cfa -32 + ^
STACK CFI 32cd0 .cfa: sp 64 +
STACK CFI 32cdc .cfa: sp 0 +
STACK CFI 32ce0 .cfa: x29 32 +
STACK CFI INIT 32dac 134 .cfa: sp 0 +
STACK CFI 32db0 .cfa: sp 80 +
STACK CFI 32dc0 .cfa: x29 48 + x19: .cfa -8 + ^ x20: .cfa -16 + ^ x21: .cfa -24 + ^ x22: .cfa -32 + ^ .ra: .cfa -40 + ^ x29: .cfa -48 + ^
STACK CFI 32ec4 .cfa: sp 80 +
STACK CFI 32ed4 .cfa: sp 0 +
STACK CFI 32ed8 .cfa: x29 48 +
STACK CFI INIT 32ee0 130 .cfa: sp 0 +
STACK CFI 32ee4 .cfa: sp 96 +
STACK CFI 32ef8 .cfa: x29 48 + x19: .cfa -8 + ^ x20: .cfa -16 + ^ x21: .cfa -24 + ^ x22: .cfa -32 + ^ .ra: .cfa -40 + ^ x29: .cfa -48 + ^ v8: .cfa -64 + ^
STACK CFI 32ff0 .cfa: sp 96 +
STACK CFI 33004 .cfa: sp 0 +
STACK CFI 33008 .cfa: x29 48 +
STACK CFI INIT 33010 118 .cfa: sp 0 +
STACK CFI 33014 .cfa: sp 80 +
STACK CFI 33024 .cfa: x29 48 + x19: .cfa -8 + ^ x20: .cfa -16 + ^ x21: .cfa -24 + ^ x22: .cfa -32 + ^ .ra: .cfa -40 + ^ x29: .cfa -48 + ^
STACK CFI 3310c .cfa: sp 80 +
STACK CFI 3311c .cfa: sp 0 +
STACK CFI 33120 .cfa: x29 48 +
STACK CFI INIT 331b0 134 .cfa: sp 0 +
STACK CFI 331b4 .cfa: sp 80 +
STACK CFI 331c0 .cfa: x29 32 + x19: .cfa -8 + ^ x20: .cfa -16 + ^ .ra: .cfa -24 + ^ x29: .cfa -32 + ^
STACK CFI 331f0 .cfa: sp 80 +
STACK CFI 331fc .cfa: sp 0 +
STACK CFI 33200 .cfa: x29 32 +
STACK CFI INIT 332e4 78 .cfa: sp 0 +
STACK CFI 332e8 .cfa: sp 32 +
STACK CFI 332f0 .cfa: x29 32 + x19: .cfa -8 + ^ x20: .cfa -16 + ^ .ra: .cfa -24 + ^ x29: .cfa -32 + ^
STACK CFI 332fc .cfa: sp 32 +
STACK CFI 33304 .cfa: sp 0 +
STACK CFI 33308 .cfa: x29 32 +
STACK CFI INIT 3335c 74 .cfa: sp 0 +
STACK CFI 33360 .cfa: sp 48 +
STACK CFI 3336c .cfa: x29 32 + x19: .cfa -8 + ^ x20: .cfa -16 + ^ .ra: .cfa -24 + ^ x29: .cfa -32 + ^
STACK CFI 333b8 .cfa: sp 48 +
STACK CFI 333c4 .cfa: sp 0 +
STACK CFI 333c8 .cfa: x29 32 +
STACK CFI INIT 33434 208 .cfa: sp 0 +
STACK CFI 33438 .cfa: sp 112 +
STACK CFI 33448 .cfa: x29 48 + x19: .cfa -8 + ^ x20: .cfa -16 + ^ x21: .cfa -32 + ^ .ra: .cfa -40 + ^ x29: .cfa -48 + ^
STACK CFI 334e4 .cfa: sp 112 +
STACK CFI 334f4 .cfa: sp 0 +
STACK CFI 334f8 .cfa: x29 48 +
STACK CFI INIT 336d8 1d8 .cfa: sp 0 +
STACK CFI 336dc .cfa: sp 192 +
STACK CFI 336fc .cfa: x29 80 + x19: .cfa -8 + ^ x20: .cfa -16 + ^ x21: .cfa -24 + ^ x22: .cfa -32 + ^ x23: .cfa -40 + ^ x24: .cfa -48 + ^ x25: .cfa -56 + ^ x26: .cfa -64 + ^ .ra: .cfa -72 + ^ x29: .cfa -80 + ^ v8: .cfa -88 + ^ v9: .cfa -96 + ^ v10: .cfa -112 + ^
STACK CFI 33798 .cfa: sp 192 +
STACK CFI 337b8 .cfa: sp 0 +
STACK CFI 337bc .cfa: x29 80 +
STACK CFI INIT 338b0 7e4 .cfa: sp 0 +
STACK CFI 338b4 .cfa: sp 96 +
STACK CFI 338cc .cfa: x29 80 + x19: .cfa -8 + ^ x20: .cfa -16 + ^ x21: .cfa -24 + ^ x22: .cfa -32 + ^ x23: .cfa -40 + ^ x24: .cfa -48 + ^ x25: .cfa -64 + ^ .ra: .cfa -72 + ^ x29: .cfa -80 + ^
STACK CFI 33fe0 .cfa: sp 96 +
STACK CFI 33ff8 .cfa: sp 0 +
STACK CFI 33ffc .cfa: x29 80 +
STACK CFI INIT 340bc 278 .cfa: sp 0 +
STACK CFI 340c0 .cfa: sp 128 +
STACK CFI 340d4 .cfa: x29 64 + x19: .cfa -8 + ^ x20: .cfa -16 + ^ x21: .cfa -24 + ^ x22: .cfa -32 + ^ x23: .cfa -48 + ^ .ra: .cfa -56 + ^ x29: .cfa -64 + ^
STACK CFI 341e0 .cfa: sp 128 +
STACK CFI 341f4 .cfa: sp 0 +
STACK CFI 341f8 .cfa: x29 64 +
STACK CFI INIT 34334 2c8 .cfa: sp 0 +
STACK CFI 34338 .cfa: sp 128 +
STACK CFI 3434c .cfa: x29 64 + x19: .cfa -8 + ^ x20: .cfa -16 + ^ x21: .cfa -24 + ^ x22: .cfa -32 + ^ x23: .cfa -48 + ^ .ra: .cfa -56 + ^ x29: .cfa -64 + ^
STACK CFI 344a8 .cfa: sp 128 +
STACK CFI 344bc .cfa: sp 0 +
STACK CFI 344c0 .cfa: x29 64 +
STACK CFI INIT 345fc 4cc .cfa: sp 0 +
STACK CFI 34600 .cfa: sp 128 +
STACK CFI 34614 .cfa: x29 64 + x19: .cfa -8 + ^ x20: .cfa -16 + ^ x21: .cfa -24 + ^ x22: .cfa -32 + ^ x23: .cfa -48 + ^ .ra: .cfa -56 + ^ x29: .cfa -64 + ^
STACK CFI 34920 .cfa: sp 128 +
STACK CFI 34934 .cfa: sp 0 +
STACK CFI 34938 .cfa: x29 64 +
STACK CFI INIT 34ac8 154 .cfa: sp 0 +
STACK CFI 34acc .cfa: sp 384 +
STACK CFI 34ae0 .cfa: x29 64 + x19: .cfa -8 + ^ x20: .cfa -16 + ^ x21: .cfa -24 + ^ x22: .cfa -32 + ^ x23: .cfa -40 + ^ x28: .cfa -48 + ^ .ra: .cfa -56 + ^ x29: .cfa -64 + ^
STACK CFI 34bc4 .cfa: sp 384 +
STACK CFI 34bd8 .cfa: sp 0 +
STACK CFI 34bdc .cfa: x29 64 +
STACK CFI INIT 34c34 4e0 .cfa: sp 0 +
STACK CFI 34c38 .cfa: sp 64 +
STACK CFI 34c48 .cfa: x29 64 + x19: .cfa -8 + ^ x20: .cfa -16 + ^ x21: .cfa -24 + ^ x22: .cfa -32 + ^ x23: .cfa -40 + ^ x24: .cfa -48 + ^ .ra: .cfa -56 + ^ x29: .cfa -64 + ^
STACK CFI 350e8 .cfa: sp 64 +
STACK CFI 350f8 .cfa: sp 0 +
STACK CFI 350fc .cfa: x29 64 +
STACK CFI INIT 35444 294 .cfa: sp 0 +
STACK CFI 35448 .cfa: sp 240 +
STACK CFI 35460 .cfa: x29 80 + x19: .cfa -8 + ^ x20: .cfa -16 + ^ x21: .cfa -24 + ^ x22: .cfa -32 + ^ x23: .cfa -40 + ^ x24: .cfa -48 + ^ x25: .cfa -64 + ^ .ra: .cfa -72 + ^ x29: .cfa -80 + ^
STACK CFI 35600 .cfa: sp 240 +
STACK CFI 35618 .cfa: sp 0 +
STACK CFI 3561c .cfa: x29 80 +
STACK CFI INIT 35754 50 .cfa: sp 0 +
STACK CFI 35758 .cfa: sp 32 +
STACK CFI 35760 .cfa: x29 32 + x19: .cfa -8 + ^ x20: .cfa -16 + ^ .ra: .cfa -24 + ^ x29: .cfa -32 + ^
STACK CFI INIT 357d0 7c0 .cfa: sp 0 +
STACK CFI 357d4 .cfa: sp 320 +
STACK CFI 357f0 .cfa: x29 96 + x19: .cfa -8 + ^ x20: .cfa -16 + ^ x21: .cfa -24 + ^ x22: .cfa -32 + ^ x23: .cfa -40 + ^ x24: .cfa -48 + ^ x25: .cfa -56 + ^ x26: .cfa -64 + ^ x27: .cfa -72 + ^ x28: .cfa -80 + ^ .ra: .cfa -88 + ^ x29: .cfa -96 + ^
STACK CFI 35e40 .cfa: sp 320 +
STACK CFI 35e5c .cfa: sp 0 +
STACK CFI 35e60 .cfa: x29 96 +
STACK CFI INIT 39bac c84 .cfa: sp 0 +
STACK CFI 39bb0 .cfa: sp 96 +
STACK CFI 39bc8 .cfa: x29 96 + x19: .cfa -8 + ^ x20: .cfa -16 + ^ x21: .cfa -24 + ^ x22: .cfa -32 + ^ x23: .cfa -40 + ^ x24: .cfa -48 + ^ x25: .cfa -56 + ^ x26: .cfa -64 + ^ x27: .cfa -72 + ^ x28: .cfa -80 + ^ .ra: .cfa -88 + ^ x29: .cfa -96 + ^
STACK CFI 3a650 .cfa: sp 96 +
STACK CFI 3a668 .cfa: sp 0 +
STACK CFI 3a66c .cfa: x29 96 +
STACK CFI INIT 3a984 26c .cfa: sp 0 +
STACK CFI 3a988 .cfa: sp 128 +
STACK CFI 3a998 .cfa: x29 48 + x19: .cfa -8 + ^ x20: .cfa -16 + ^ x21: .cfa -24 + ^ x22: .cfa -32 + ^ .ra: .cfa -40 + ^ x29: .cfa -48 + ^
STACK CFI 3ab3c .cfa: sp 128 +
STACK CFI 3ab4c .cfa: sp 0 +
STACK CFI 3ab50 .cfa: x29 48 +
STACK CFI INIT 3af80 3b8 .cfa: sp 0 +
STACK CFI 3af84 .cfa: sp 96 +
STACK CFI 3af9c .cfa: x29 96 + x19: .cfa -8 + ^ x20: .cfa -16 + ^ x21: .cfa -24 + ^ x22: .cfa -32 + ^ x23: .cfa -40 + ^ x24: .cfa -48 + ^ x25: .cfa -56 + ^ x26: .cfa -64 + ^ x27: .cfa -72 + ^ x28: .cfa -80 + ^ .ra: .cfa -88 + ^ x29: .cfa -96 + ^
STACK CFI 3b2d8 .cfa: sp 96 +
STACK CFI 3b2f0 .cfa: sp 0 +
STACK CFI 3b2f4 .cfa: x29 96 +
STACK CFI INIT 3b3d8 cc0 .cfa: sp 0 +
STACK CFI 3b3dc .cfa: sp 96 +
STACK CFI 3b3f4 .cfa: x29 96 + x19: .cfa -8 + ^ x20: .cfa -16 + ^ x21: .cfa -24 + ^ x22: .cfa -32 + ^ x23: .cfa -40 + ^ x24: .cfa -48 + ^ x25: .cfa -56 + ^ x26: .cfa -64 + ^ x27: .cfa -72 + ^ x28: .cfa -80 + ^ .ra: .cfa -88 + ^ x29: .cfa -96 + ^
STACK CFI 3bea8 .cfa: sp 96 +
STACK CFI 3bec0 .cfa: sp 0 +
STACK CFI 3bec4 .cfa: x29 96 +
STACK CFI INIT 3c380 af8 .cfa: sp 0 +
STACK CFI 3c384 .cfa: sp 96 +
STACK CFI 3c39c .cfa: x29 96 + x19: .cfa -8 + ^ x20: .cfa -16 + ^ x21: .cfa -24 + ^ x22: .cfa -32 + ^ x23: .cfa -40 + ^ x24: .cfa -48 + ^ x25: .cfa -56 + ^ x26: .cfa -64 + ^ x27: .cfa -72 + ^ x28: .cfa -80 + ^ .ra: .cfa -88 + ^ x29: .cfa -96 + ^
STACK CFI 3cdec .cfa: sp 96 +
STACK CFI 3ce04 .cfa: sp 0 +
STACK CFI 3ce08 .cfa: x29 96 +
STACK CFI INIT 3d06c 1430 .cfa: sp 0 +
STACK CFI 3d070 .cfa: sp 96 +
STACK CFI 3d088 .cfa: x29 96 + x19: .cfa -8 + ^ x20: .cfa -16 + ^ x21: .cfa -24 + ^ x22: .cfa -32 + ^ x23: .cfa -40 + ^ x24: .cfa -48 + ^ x25: .cfa -56 + ^ x26: .cfa -64 + ^ x27: .cfa -72 + ^ x28: .cfa -80 + ^ .ra: .cfa -88 + ^ x29: .cfa -96 + ^
STACK CFI 3e324 .cfa: sp 96 +
STACK CFI 3e33c .cfa: sp 0 +
STACK CFI 3e340 .cfa: x29 96 +
STACK CFI INIT 3e5c0 75c .cfa: sp 0 +
STACK CFI 3e5c4 .cfa: sp 368 +
STACK CFI 3e5e0 .cfa: x29 96 + x19: .cfa -8 + ^ x20: .cfa -16 + ^ x21: .cfa -24 + ^ x22: .cfa -32 + ^ x23: .cfa -40 + ^ x24: .cfa -48 + ^ x25: .cfa -56 + ^ x26: .cfa -64 + ^ x27: .cfa -72 + ^ x28: .cfa -80 + ^ .ra: .cfa -88 + ^ x29: .cfa -96 + ^
STACK CFI 3e694 .cfa: sp 368 +
STACK CFI 3e6b0 .cfa: sp 0 +
STACK CFI 3e6b4 .cfa: x29 96 +
STACK CFI 3e708 .cfa: sp 368 +
STACK CFI 3e724 .cfa: sp 0 +
STACK CFI 3e728 .cfa: x29 96 +
STACK CFI INIT 3f0dc ee0 .cfa: sp 0 +
STACK CFI 3f0e0 .cfa: sp 96 +
STACK CFI 3f0f8 .cfa: x29 96 + x19: .cfa -8 + ^ x20: .cfa -16 + ^ x21: .cfa -24 + ^ x22: .cfa -32 + ^ x23: .cfa -40 + ^ x24: .cfa -48 + ^ x25: .cfa -56 + ^ x26: .cfa -64 + ^ x27: .cfa -72 + ^ x28: .cfa -80 + ^ .ra: .cfa -88 + ^ x29: .cfa -96 + ^
STACK CFI 3fdb4 .cfa: sp 96 +
STACK CFI 3fdcc .cfa: sp 0 +
STACK CFI 3fdd0 .cfa: x29 96 +
STACK CFI INIT 40330 14b4 .cfa: sp 0 +
STACK CFI 40334 .cfa: sp 112 +
STACK CFI 40350 .cfa: x29 96 + x19: .cfa -8 + ^ x20: .cfa -16 + ^ x21: .cfa -24 + ^ x22: .cfa -32 + ^ x23: .cfa -40 + ^ x24: .cfa -48 + ^ x25: .cfa -56 + ^ x26: .cfa -64 + ^ x27: .cfa -72 + ^ x28: .cfa -80 + ^ .ra: .cfa -88 + ^ x29: .cfa -96 + ^ v8: .cfa -112 + ^
STACK CFI 40730 .cfa: sp 112 +
STACK CFI 4074c .cfa: sp 0 +
STACK CFI 40750 .cfa: x29 96 +
STACK CFI INIT 43bf4 9a0 .cfa: sp 0 +
STACK CFI 43bf8 .cfa: sp 144 +
STACK CFI 43c10 .cfa: x29 80 + x19: .cfa -8 + ^ x20: .cfa -16 + ^ x21: .cfa -24 + ^ x22: .cfa -32 + ^ x23: .cfa -40 + ^ x24: .cfa -48 + ^ x25: .cfa -64 + ^ .ra: .cfa -72 + ^ x29: .cfa -80 + ^
STACK CFI 44510 .cfa: sp 144 +
STACK CFI 44528 .cfa: sp 0 +
STACK CFI 4452c .cfa: x29 80 +
STACK CFI INIT 44594 57c .cfa: sp 0 +
STACK CFI 44598 .cfa: sp 96 +
STACK CFI 445b0 .cfa: x29 96 + x19: .cfa -8 + ^ x20: .cfa -16 + ^ x21: .cfa -24 + ^ x22: .cfa -32 + ^ x23: .cfa -40 + ^ x24: .cfa -48 + ^ x25: .cfa -56 + ^ x26: .cfa -64 + ^ x27: .cfa -72 + ^ x28: .cfa -80 + ^ .ra: .cfa -88 + ^ x29: .cfa -96 + ^
STACK CFI 44a74 .cfa: sp 96 +
STACK CFI 44a8c .cfa: sp 0 +
STACK CFI 44a90 .cfa: x29 96 +
STACK CFI INIT 44b10 67c .cfa: sp 0 +
STACK CFI 44b14 .cfa: sp 96 +
STACK CFI 44b2c .cfa: x29 96 + x19: .cfa -8 + ^ x20: .cfa -16 + ^ x21: .cfa -24 + ^ x22: .cfa -32 + ^ x23: .cfa -40 + ^ x24: .cfa -48 + ^ x25: .cfa -56 + ^ x26: .cfa -64 + ^ x27: .cfa -72 + ^ x28: .cfa -80 + ^ .ra: .cfa -88 + ^ x29: .cfa -96 + ^
STACK CFI 450f0 .cfa: sp 96 +
STACK CFI 45108 .cfa: sp 0 +
STACK CFI 4510c .cfa: x29 96 +
