MODULE Linux arm64 A2A7EB668115511730BD8C61CA6144AF0 raydeeux.toktikmode.android64.so
INFO CODE_ID 66EBA7A21581175130BD8C61CA6144AF0C97A0DB
INFO GENERATOR mozilla/dump_syms 2.3.4
PUBLIC 282f0 0 __on_dlclose
PUBLIC 28300 0 __emutls_unregister_key
PUBLIC 28308 0 __on_dlclose_late
PUBLIC 28310 0 __atexit_handler_wrapper
PUBLIC 28324 0 atexit
PUBLIC 28340 0 pthread_atfork
PUBLIC 28350 0 __aarch64_ldadd8_relax
PUBLIC 28380 0 init_have_lse_atomics
PUBLIC 28418 0 __init_cpu_features_constructor
PUBLIC 289b4 0 __init_cpu_features
PUBLIC 28a40 0 __aarch64_ldadd8_acq_rel
PUBLIC 28a70 0 BanModal::create(bool)
PUBLIC 28b78 0 BanModal::init(bool)
PUBLIC 2995c 0 geode::modifier::FieldIntermediate<MyPlayLayer, PlayLayer>::self()
PUBLIC 29b78 0 geode::cocos::CCArrayExt<cocos2d::CCLabelBMFont*>::~CCArrayExt()
PUBLIC 29b94 0 BanModal::keyBackClicked()
PUBLIC 29b98 0 {virtual override thunk({offset(-336)}, BanModal::keyBackClicked())}
PUBLIC 29ba0 0 cocos2d::CCCopying::copyWithZone(cocos2d::CCZone*)
PUBLIC 29ba8 0 BanModal::~BanModal()
PUBLIC 29bcc 0 cocos2d::CCLayerRGBA::setOpacityModifyRGB(bool)
PUBLIC 29bd0 0 cocos2d::CCLayerRGBA::isOpacityModifyRGB()
PUBLIC 29bd8 0 {virtual override thunk({offset(-320)}, BanModal::~BanModal())}
PUBLIC 29be0 0 {virtual override thunk({offset(-320)}, BanModal::~BanModal())}
PUBLIC 29c08 0 cocos2d::CCKeyboardDelegate::keyUp(cocos2d::enumKeyCodes)
PUBLIC 29c0c 0 cocos2d::CCMouseDelegate::rightKeyDown()
PUBLIC 29c10 0 cocos2d::CCMouseDelegate::rightKeyUp()
PUBLIC 29c14 0 cocos2d::CCMouseDelegate::scrollWheel(float, float)
PUBLIC 29c18 0 {virtual override thunk({offset(-408)}, cocos2d::CCLayerRGBA::setOpacityModifyRGB(bool))}
PUBLIC 29c1c 0 {virtual override thunk({offset(-408)}, cocos2d::CCLayerRGBA::isOpacityModifyRGB())}
PUBLIC 29c24 0 __cxx_global_var_init
PUBLIC 29c84 0 geode::modifier::ModifyBase<geode::modifier::ModifyDerive<MyPlayLayer, PlayLayer> >::~ModifyBase()
PUBLIC 29ca0 0 geode::modifier::FieldContainer::getField(unsigned long)
PUBLIC 29f58 0 geode::modifier::FieldContainer::setField(unsigned long, unsigned long, std::__ndk1::function<void (void*)>)
PUBLIC 2a06c 0 geode::modifier::FieldIntermediate<MyPlayLayer, PlayLayer>::fieldDestructor(void*)
PUBLIC 2a09c 0 std::__ndk1::vector<void*, std::__ndk1::allocator<void*> >::__throw_length_error[abi:ne180000]() const
PUBLIC 2a0b0 0 __clang_call_terminate
PUBLIC 2a0c0 0 std::__ndk1::__throw_length_error[abi:ne180000](char const*)
PUBLIC 2a110 0 std::length_error::length_error[abi:ne180000](char const*)
PUBLIC 2a140 0 std::__throw_bad_array_new_length([abi:ne180000], void)
PUBLIC 2a174 0 std::__ndk1::vector<std::__ndk1::function<void (void*)>, std::__ndk1::allocator<std::__ndk1::function<void (void*)> > >::__push_back_slow_path<std::__ndk1::function<void (void*)> >(std::__ndk1::function<void (void*)>&&)
PUBLIC 2a3a0 0 std::__ndk1::vector<std::__ndk1::function<void (void*)>, std::__ndk1::allocator<std::__ndk1::function<void (void*)> > >::__throw_length_error[abi:ne180000]() const
PUBLIC 2a3b4 0 std::__ndk1::vector<void*, std::__ndk1::allocator<void*> >::__throw_out_of_range[abi:ne180000]() const
PUBLIC 2a3c8 0 std::__ndk1::__throw_out_of_range[abi:ne180000](char const*)
PUBLIC 2a418 0 std::out_of_range::out_of_range[abi:ne180000](char const*)
PUBLIC 2a448 0 std::__ndk1::vector<std::__ndk1::function<void (void*)>, std::__ndk1::allocator<std::__ndk1::function<void (void*)> > >::__throw_out_of_range[abi:ne180000]() const
PUBLIC 2a45c 0 MyPlayLayer::Fields::FLAlert_Clicked(FLAlertLayer*, bool)
PUBLIC 2a6e8 0 geode::cast::traverseTypeinfoFor(void*, geode::cast::ClassTypeinfoType const*, char const*)
PUBLIC 2a7ec 0 std::__ndk1::__function::__base<void (void*)>::~__base()
PUBLIC 2a7f0 0 std::__ndk1::__function::__func<void (*)(void*), std::__ndk1::allocator<void (*)(void*)>, void (void*)>::~__func()
PUBLIC 2a7f4 0 std::__ndk1::__function::__func<void (*)(void*), std::__ndk1::allocator<void (*)(void*)>, void (void*)>::__clone() const
PUBLIC 2a82c 0 std::__ndk1::__function::__func<void (*)(void*), std::__ndk1::allocator<void (*)(void*)>, void (void*)>::__clone(std::__ndk1::__function::__base<void (void*)>*) const
PUBLIC 2a844 0 std::__ndk1::__function::__func<void (*)(void*), std::__ndk1::allocator<void (*)(void*)>, void (void*)>::destroy()
PUBLIC 2a848 0 std::__ndk1::__function::__func<void (*)(void*), std::__ndk1::allocator<void (*)(void*)>, void (void*)>::destroy_deallocate()
PUBLIC 2a84c 0 std::__ndk1::__function::__func<void (*)(void*), std::__ndk1::allocator<void (*)(void*)>, void (void*)>::operator()(void*&&)
PUBLIC 2a85c 0 std::__ndk1::__function::__func<void (*)(void*), std::__ndk1::allocator<void (*)(void*)>, void (void*)>::target(std::type_info const&) const
PUBLIC 2a878 0 std::__ndk1::__function::__func<void (*)(void*), std::__ndk1::allocator<void (*)(void*)>, void (void*)>::target_type() const
PUBLIC 2a884 0 std::__ndk1::basic_string<char, std::__ndk1::char_traits<char>, std::__ndk1::allocator<char> >::__throw_length_error[abi:ne180000]() const
PUBLIC 2a898 0 geode::modifier::ModifyBase<geode::modifier::ModifyDerive<MyPlayLayer, PlayLayer> >::ModifyBase()
PUBLIC 2aca0 0 geode::modifier::ModifyDerive<MyPlayLayer, PlayLayer>::apply()
PUBLIC 2b4d0 0 MyPlayLayer::onModify<geode::modifier::ModifyBase<geode::modifier::ModifyDerive<MyPlayLayer, PlayLayer> > >(geode::modifier::ModifyBase<geode::modifier::ModifyDerive<MyPlayLayer, PlayLayer> >&)
PUBLIC 2b5e0 0 std::__ndk1::shared_ptr<geode::Hook>::~shared_ptr[abi:ne180000]()
PUBLIC 2b630 0 geode::impl::ResultData<geode::Hook*, std::__ndk1::basic_string<char, std::__ndk1::char_traits<char>, std::__ndk1::allocator<char> > >::~ResultData()
PUBLIC 2b6a4 0 std::__ndk1::vector<std::__ndk1::basic_string<char, std::__ndk1::char_traits<char>, std::__ndk1::allocator<char> >, std::__ndk1::allocator<std::__ndk1::basic_string<char, std::__ndk1::char_traits<char>, std::__ndk1::allocator<char> > > >::~vector[abi:ne180000]()
PUBLIC 2b720 0 geode::modifier::ModifyBase<geode::modifier::ModifyDerive<MyPlayLayer, PlayLayer> >::apply()
PUBLIC 2b724 0 geode::modifier::ModifyBase<geode::modifier::ModifyDerive<MyPlayLayer, PlayLayer> >::setHookPriority(std::__ndk1::basic_string_view<char, std::__ndk1::char_traits<char> >, int)
PUBLIC 2b894 0 geode::modifier::ModifyBase<geode::modifier::ModifyDerive<MyPlayLayer, PlayLayer> >::getHook(std::__ndk1::basic_string_view<char, std::__ndk1::char_traits<char> >)
PUBLIC 2ba3c 0 std::__ndk1::__tree<std::__ndk1::__value_type<std::__ndk1::basic_string<char, std::__ndk1::char_traits<char>, std::__ndk1::allocator<char> >, std::__ndk1::shared_ptr<geode::Hook> >, std::__ndk1::__map_value_compare<std::__ndk1::basic_string<char, std::__ndk1::char_traits<char>, std::__ndk1::allocator<char> >, std::__ndk1::__value_type<std::__ndk1::basic_string<char, std::__ndk1::char_traits<char>, std::__ndk1::allocator<char> >, std::__ndk1::shared_ptr<geode::Hook> >, std::__ndk1::less<std::__ndk1::basic_string<char, std::__ndk1::char_traits<char>, std::__ndk1::allocator<char> > >, true>, std::__ndk1::allocator<std::__ndk1::__value_type<std::__ndk1::basic_string<char, std::__ndk1::char_traits<char>, std::__ndk1::allocator<char> >, std::__ndk1::shared_ptr<geode::Hook> > > >::find<std::__ndk1::basic_string<char, std::__ndk1::char_traits<char>, std::__ndk1::allocator<char> > >(std::__ndk1::basic_string<char, std::__ndk1::char_traits<char>, std::__ndk1::allocator<char> > const&)
PUBLIC 2bb5c 0 std::__ndk1::__tree<std::__ndk1::__value_type<std::__ndk1::basic_string<char, std::__ndk1::char_traits<char>, std::__ndk1::allocator<char> >, std::__ndk1::shared_ptr<geode::Hook> >, std::__ndk1::__map_value_compare<std::__ndk1::basic_string<char, std::__ndk1::char_traits<char>, std::__ndk1::allocator<char> >, std::__ndk1::__value_type<std::__ndk1::basic_string<char, std::__ndk1::char_traits<char>, std::__ndk1::allocator<char> >, std::__ndk1::shared_ptr<geode::Hook> >, std::__ndk1::less<std::__ndk1::basic_string<char, std::__ndk1::char_traits<char>, std::__ndk1::allocator<char> > >, true>, std::__ndk1::allocator<std::__ndk1::__value_type<std::__ndk1::basic_string<char, std::__ndk1::char_traits<char>, std::__ndk1::allocator<char> >, std::__ndk1::shared_ptr<geode::Hook> > > >::__emplace_unique_key_args<std::__ndk1::basic_string<char, std::__ndk1::char_traits<char>, std::__ndk1::allocator<char> >, std::__ndk1::piecewise_construct_t const&, std::__ndk1::tuple<std::__ndk1::basic_string<char, std::__ndk1::char_traits<char>, std::__ndk1::allocator<char> > const&>, std::__ndk1::tuple<> >(std::__ndk1::basic_string<char, std::__ndk1::char_traits<char>, std::__ndk1::allocator<char> > const&, std::__ndk1::piecewise_construct_t const&, std::__ndk1::tuple<std::__ndk1::basic_string<char, std::__ndk1::char_traits<char>, std::__ndk1::allocator<char> > const&>, std::__ndk1::tuple<>)
PUBLIC 2bd50 0 std::__ndk1::unique_ptr<std::__ndk1::__tree_node<std::__ndk1::__value_type<std::__ndk1::basic_string<char, std::__ndk1::char_traits<char>, std::__ndk1::allocator<char> >, std::__ndk1::shared_ptr<geode::Hook> >, void*>, std::__ndk1::__tree_node_destructor<std::__ndk1::allocator<std::__ndk1::__tree_node<std::__ndk1::__value_type<std::__ndk1::basic_string<char, std::__ndk1::char_traits<char>, std::__ndk1::allocator<char> >, std::__ndk1::shared_ptr<geode::Hook> >, void*> > > >::~unique_ptr[abi:ne180000]()
PUBLIC 2bdcc 0 std::__ndk1::basic_string<char, std::__ndk1::char_traits<char>, std::__ndk1::allocator<char> >::__init_copy_ctor_external(char const*, unsigned long)
PUBLIC 2be4c 0 std::__ndk1::__tree_balance_after_insert[abi:ne180000]<std::__ndk1::__tree_node_base<void*>*>(std::__ndk1::__tree_node_base<void*>*, std::__ndk1::__tree_node_base<void*>*)
PUBLIC 2bffc 0 _ZN5geode15UnwrapExceptionC2IRPNS_4HookEQsr4implE18IsStringStreamableIT_EEENS_4impl5OkTagEOS5_
PUBLIC 2c150 0 std::__ndk1::__throw_bad_variant_access[abi:ne180000]()
PUBLIC 2c184 0 std::__ndk1::basic_stringstream<char, std::__ndk1::char_traits<char>, std::__ndk1::allocator<char> >::basic_stringstream[abi:ne180000]()
PUBLIC m 2c2b0 0 std::__ndk1::basic_stringstream<char, std::__ndk1::char_traits<char>, std::__ndk1::allocator<char> >::~basic_stringstream()
PUBLIC 2c330 0 geode::UnwrapException::~UnwrapException()
PUBLIC 2c354 0 std::__ndk1::__put_character_sequence[abi:ne180000]<char, std::__ndk1::char_traits<char> >(std::__ndk1::basic_ostream<char, std::__ndk1::char_traits<char> >, std::__ndk1::basic_ostream const*, unsigned long)
PUBLIC 2c4f8 0 std::__ndk1::__pad_and_output[abi:ne180000]<char, std::__ndk1::char_traits<char> >(std::__ndk1::char_traits<char>, std::__ndk1::ostreambuf_iterator const*, std::__ndk1::ostreambuf_iterator const, std::__ndk1::ostreambuf_iterator const, std::__ndk1::ios_base&, std::__ndk1::ostreambuf_iterator)
PUBLIC 2c6d4 0 std::__ndk1::basic_stringbuf<char, std::__ndk1::char_traits<char>, std::__ndk1::allocator<char> >::str[abi:ne180000]() &&
PUBLIC 2c84c 0 std::__ndk1::basic_stringbuf<char, std::__ndk1::char_traits<char>, std::__ndk1::allocator<char> >::__init_buf_ptrs[abi:ne180000]()
PUBLIC 2c994 0 _ZN5geode15UnwrapExceptionC2IRNSt6__ndk112basic_stringIcNS2_11char_traitsIcEENS2_9allocatorIcEEEEQsr4implE18IsStringStreamableIT_EEENS_4impl6ErrTagEOSA_
PUBLIC 2cafc 0 std::__ndk1::__variant_detail::__visitation::__base::__dispatcher<(unsigned long)0>::__dispatch[abi:ne180000]<std::__ndk1::__variant_detail::__dtor<std::__ndk1::__variant_detail::__traits<std::__ndk1::monostate, std::__ndk1::basic_string<char, std::__ndk1::char_traits<char>, std::__ndk1::allocator<char> > >, (std::__ndk1::__variant_detail::_Trait)1>::__destroy[abi:ne180000]()::{lambda(auto:1&)#1}, std::__ndk1::__variant_detail::__base<(std::__ndk1::__variant_detail::__traits<std::__ndk1::monostate, std::__ndk1::basic_string<char, std::__ndk1::char_traits<char>, std::__ndk1::allocator<char> > >)1, std::__ndk1::__variant_detail::__traits, std::__ndk1::allocator<char> >&>(std::__ndk1::__variant_detail::__dtor<std::__ndk1::__variant_detail::__traits<std::__ndk1::monostate, std::__ndk1::basic_string<char, std::__ndk1::char_traits<char>, std::__ndk1::allocator<char> > >, (std::__ndk1::__variant_detail::_Trait)1>, std::__ndk1::__variant_detail::__base<(std::__ndk1::__variant_detail::__traits<std::__ndk1::monostate, std::__ndk1::basic_string<char, std::__ndk1::char_traits<char>, std::__ndk1::allocator<char> > >)1, std::__ndk1::__variant_detail::__traits, std::__ndk1::allocator<char> >&)
PUBLIC 2cb00 0 std::__ndk1::__variant_detail::__visitation::__base::__dispatcher<(unsigned long)1>::__dispatch[abi:ne180000]<std::__ndk1::__variant_detail::__dtor<std::__ndk1::__variant_detail::__traits<std::__ndk1::monostate, std::__ndk1::basic_string<char, std::__ndk1::char_traits<char>, std::__ndk1::allocator<char> > >, (std::__ndk1::__variant_detail::_Trait)1>::__destroy[abi:ne180000]()::{lambda(auto:1&)#1}, std::__ndk1::__variant_detail::__base<(std::__ndk1::__variant_detail::__traits<std::__ndk1::monostate, std::__ndk1::basic_string<char, std::__ndk1::char_traits<char>, std::__ndk1::allocator<char> > >)1, std::__ndk1::__variant_detail::__traits, std::__ndk1::allocator<char> >&>(std::__ndk1::__variant_detail::__dtor<std::__ndk1::__variant_detail::__traits<std::__ndk1::monostate, std::__ndk1::basic_string<char, std::__ndk1::char_traits<char>, std::__ndk1::allocator<char> > >, (std::__ndk1::__variant_detail::_Trait)1>, std::__ndk1::__variant_detail::__base<(std::__ndk1::__variant_detail::__traits<std::__ndk1::monostate, std::__ndk1::basic_string<char, std::__ndk1::char_traits<char>, std::__ndk1::allocator<char> > >)1, std::__ndk1::__variant_detail::__traits, std::__ndk1::allocator<char> >&)
PUBLIC 2cb14 0 std::__ndk1::vector<std::__ndk1::basic_string<char, std::__ndk1::char_traits<char>, std::__ndk1::allocator<char> >, std::__ndk1::allocator<std::__ndk1::basic_string<char, std::__ndk1::char_traits<char>, std::__ndk1::allocator<char> > > >::__push_back_slow_path<std::__ndk1::basic_string<char, std::__ndk1::char_traits<char>, std::__ndk1::allocator<char> > const&>(std::__ndk1::basic_string<char, std::__ndk1::char_traits<char>, std::__ndk1::allocator<char> > const&)
PUBLIC 2cd3c 0 std::__ndk1::__split_buffer<std::__ndk1::basic_string<char, std::__ndk1::char_traits<char>, std::__ndk1::allocator<char> >, std::__ndk1::allocator<std::__ndk1::basic_string<char, std::__ndk1::char_traits<char>, std::__ndk1::allocator<char> > >&>::~__split_buffer()
PUBLIC 2cda4 0 std::__ndk1::vector<std::__ndk1::basic_string<char, std::__ndk1::char_traits<char>, std::__ndk1::allocator<char> >, std::__ndk1::allocator<std::__ndk1::basic_string<char, std::__ndk1::char_traits<char>, std::__ndk1::allocator<char> > > >::__throw_length_error[abi:ne180000]() const
PUBLIC 2cdb8 0 std::__ndk1::__variant_detail::__visitation::__base::__dispatcher<(unsigned long)0>::__dispatch[abi:ne180000]<std::__ndk1::__variant_detail::__dtor<std::__ndk1::__variant_detail::__traits<geode::Hook*, std::__ndk1::basic_string<char, std::__ndk1::char_traits<char>, std::__ndk1::allocator<char> > >, (std::__ndk1::__variant_detail::_Trait)1>::__destroy[abi:ne180000]()::{lambda(auto:1&)#1}, std::__ndk1::__variant_detail::__base<(std::__ndk1::__variant_detail::__traits<geode::Hook*, std::__ndk1::basic_string<char, std::__ndk1::char_traits<char>, std::__ndk1::allocator<char> > >)1, geode::Hook, std::__ndk1::allocator<char> >&>(std::__ndk1::__variant_detail::__dtor<std::__ndk1::__variant_detail::__traits<geode::Hook*, std::__ndk1::basic_string<char, std::__ndk1::char_traits<char>, std::__ndk1::allocator<char> > >, (std::__ndk1::__variant_detail::_Trait)1>, std::__ndk1::__variant_detail::__base<(std::__ndk1::__variant_detail::__traits<geode::Hook*, std::__ndk1::basic_string<char, std::__ndk1::char_traits<char>, std::__ndk1::allocator<char> > >)1, geode::Hook, std::__ndk1::allocator<char> >&)
PUBLIC 2cdbc 0 std::__ndk1::__variant_detail::__visitation::__base::__dispatcher<(unsigned long)1>::__dispatch[abi:ne180000]<std::__ndk1::__variant_detail::__dtor<std::__ndk1::__variant_detail::__traits<geode::Hook*, std::__ndk1::basic_string<char, std::__ndk1::char_traits<char>, std::__ndk1::allocator<char> > >, (std::__ndk1::__variant_detail::_Trait)1>::__destroy[abi:ne180000]()::{lambda(auto:1&)#1}, std::__ndk1::__variant_detail::__base<(std::__ndk1::__variant_detail::__traits<geode::Hook*, std::__ndk1::basic_string<char, std::__ndk1::char_traits<char>, std::__ndk1::allocator<char> > >)1, geode::Hook, std::__ndk1::allocator<char> >&>(std::__ndk1::__variant_detail::__dtor<std::__ndk1::__variant_detail::__traits<geode::Hook*, std::__ndk1::basic_string<char, std::__ndk1::char_traits<char>, std::__ndk1::allocator<char> > >, (std::__ndk1::__variant_detail::_Trait)1>, std::__ndk1::__variant_detail::__base<(std::__ndk1::__variant_detail::__traits<geode::Hook*, std::__ndk1::basic_string<char, std::__ndk1::char_traits<char>, std::__ndk1::allocator<char> > >)1, geode::Hook, std::__ndk1::allocator<char> >&)
PUBLIC 2cdd0 0 std::__ndk1::__tree<std::__ndk1::__value_type<std::__ndk1::basic_string<char, std::__ndk1::char_traits<char>, std::__ndk1::allocator<char> >, std::__ndk1::shared_ptr<geode::Hook> >, std::__ndk1::__map_value_compare<std::__ndk1::basic_string<char, std::__ndk1::char_traits<char>, std::__ndk1::allocator<char> >, std::__ndk1::__value_type<std::__ndk1::basic_string<char, std::__ndk1::char_traits<char>, std::__ndk1::allocator<char> >, std::__ndk1::shared_ptr<geode::Hook> >, std::__ndk1::less<std::__ndk1::basic_string<char, std::__ndk1::char_traits<char>, std::__ndk1::allocator<char> > >, true>, std::__ndk1::allocator<std::__ndk1::__value_type<std::__ndk1::basic_string<char, std::__ndk1::char_traits<char>, std::__ndk1::allocator<char> >, std::__ndk1::shared_ptr<geode::Hook> > > >::erase(std::__ndk1::__tree_const_iterator<std::__ndk1::__value_type<std::__ndk1::basic_string<char, std::__ndk1::char_traits<char>, std::__ndk1::allocator<char> >, std::__ndk1::shared_ptr<geode::Hook> >, std::__ndk1::__tree_node<std::__ndk1::__value_type<std::__ndk1::basic_string<char, std::__ndk1::char_traits<char>, std::__ndk1::allocator<char> >, std::__ndk1::shared_ptr<geode::Hook> >, void*>*, long>)
PUBLIC 2cea4 0 std::__ndk1::__tree_remove[abi:ne180000]<std::__ndk1::__tree_node_base<void*>*>(std::__ndk1::__tree_node_base<void*>*, std::__ndk1::__tree_node_base<void*>*)
PUBLIC 2d26c 0 std::__ndk1::__tree<std::__ndk1::__value_type<std::__ndk1::basic_string<char, std::__ndk1::char_traits<char>, std::__ndk1::allocator<char> >, std::__ndk1::shared_ptr<geode::Hook> >, std::__ndk1::__map_value_compare<std::__ndk1::basic_string<char, std::__ndk1::char_traits<char>, std::__ndk1::allocator<char> >, std::__ndk1::__value_type<std::__ndk1::basic_string<char, std::__ndk1::char_traits<char>, std::__ndk1::allocator<char> >, std::__ndk1::shared_ptr<geode::Hook> >, std::__ndk1::less<std::__ndk1::basic_string<char, std::__ndk1::char_traits<char>, std::__ndk1::allocator<char> > >, true>, std::__ndk1::allocator<std::__ndk1::__value_type<std::__ndk1::basic_string<char, std::__ndk1::char_traits<char>, std::__ndk1::allocator<char> >, std::__ndk1::shared_ptr<geode::Hook> > > >::destroy(std::__ndk1::__tree_node<std::__ndk1::__value_type<std::__ndk1::basic_string<char, std::__ndk1::char_traits<char>, std::__ndk1::allocator<char> >, std::__ndk1::shared_ptr<geode::Hook> >, void*>*)
PUBLIC 2d2f8 0 geode::Hook::create<void (*)(MyPlayLayer*)>(void*, void (*)(MyPlayLayer*), std::__ndk1::basic_string<char, std::__ndk1::char_traits<char>, std::__ndk1::allocator<char> > const&, tulip::hook::TulipConvention, tulip::hook::HookMetadata const&)
PUBLIC 2d42c 0 geode::modifier::AsStaticFunction_onEnterTransitionDidFinish<MyPlayLayer, void (MyPlayLayer::*)()>::Impl<void (MyPlayLayer::*)()>::function(MyPlayLayer*)
PUBLIC 2d430 0 geode::Hook::create<void (*)(MyPlayLayer*, GameObject*)>(void*, void (*)(MyPlayLayer*, GameObject*), std::__ndk1::basic_string<char, std::__ndk1::char_traits<char>, std::__ndk1::allocator<char> > const&, tulip::hook::TulipConvention, tulip::hook::HookMetadata const&)
PUBLIC 2d5b4 0 geode::modifier::AsStaticFunction_addObject<MyPlayLayer, void (MyPlayLayer::*)(GameObject*)>::Impl<void (MyPlayLayer::*)(GameObject*)>::function(MyPlayLayer*, GameObject*)
PUBLIC 2d684 0 geode::modifier::AsStaticFunction_onQuit<MyPlayLayer, void (MyPlayLayer::*)()>::Impl<void (MyPlayLayer::*)()>::function(MyPlayLayer*)
PUBLIC 2d6bc 0 geode::modifier::AsStaticFunction_startGame<MyPlayLayer, void (MyPlayLayer::*)()>::Impl<void (MyPlayLayer::*)()>::function(MyPlayLayer*)
PUBLIC 2d6c0 0 geode::addresser::Addresser::addressOfVirtual<void, PlayLayer, >(void (PlayLayer::*)())
PUBLIC 2d7ac 0 PlayLayer::PlayLayer(geode::ZeroConstructorType)
PUBLIC 2d840 0 GJBaseGameLayer::GJBaseGameLayer(geode::ZeroConstructorType, unsigned long)
PUBLIC 2dfec 0 GJGameState::GJGameState()
PUBLIC 2e564 0 geode::stl::unordered_map<int, int, geode::stl::hash<int>, geode::stl::equal_to<int>, std::__ndk1::allocator<std::__ndk1::pair<int const, int> > >::~unordered_map()
PUBLIC 2e5dc 0 geode::stl::unordered_set<int, geode::stl::hash<int>, geode::stl::equal_to<int>, std::__ndk1::allocator<int> >::~unordered_set()
PUBLIC 2e654 0 geode::stl::unordered_map<int, gd::string, geode::stl::hash<int>, geode::stl::equal_to<int>, std::__ndk1::allocator<std::__ndk1::pair<int const, gd::string> > >::~unordered_map()
PUBLIC 2e6d8 0 gd::map<std::__ndk1::pair<int, int>, int>::~map()
PUBLIC 2e6f4 0 geode::stl::unordered_map<int, gd::vector<LabelGameObject*>, geode::stl::hash<int>, geode::stl::equal_to<int>, std::__ndk1::allocator<std::__ndk1::pair<int const, gd::vector<LabelGameObject*> > > >::~unordered_map()
PUBLIC 2e780 0 geode::stl::unordered_map<int, std::__ndk1::pair<int, int>, geode::stl::hash<int>, geode::stl::equal_to<int>, std::__ndk1::allocator<std::__ndk1::pair<int const, std::__ndk1::pair<int, int> > > >::~unordered_map()
PUBLIC 2e7f8 0 geode::stl::unordered_map<int, gd::vector<GameObject*>, geode::stl::hash<int>, geode::stl::equal_to<int>, std::__ndk1::allocator<std::__ndk1::pair<int const, gd::vector<GameObject*> > > >::~unordered_map()
PUBLIC 2e884 0 geode::stl::unordered_map<int, cocos2d::CCPoint, geode::stl::hash<int>, geode::stl::equal_to<int>, std::__ndk1::allocator<std::__ndk1::pair<int const, cocos2d::CCPoint> > >::~unordered_map()
PUBLIC 2e8fc 0 gd::vector<geode::stl::unordered_map<int, int, geode::stl::hash<int>, geode::stl::equal_to<int>, std::__ndk1::allocator<std::__ndk1::pair<int const, int> > > >::~vector()
PUBLIC 2ea00 0 GJGameState::~GJGameState()
PUBLIC 2edf8 0 geode::stl::unordered_map<int, SongChannelState, geode::stl::hash<int>, geode::stl::equal_to<int>, std::__ndk1::allocator<std::__ndk1::pair<int const, SongChannelState> > >::~unordered_map()
PUBLIC 2ee70 0 gd::map<std::__ndk1::pair<int, int>, SFXTriggerInstance>::~map()
PUBLIC 2ee8c 0 geode::stl::unordered_map<int, std::__ndk1::vector<int, std::__ndk1::allocator<int> >, geode::stl::hash<int>, geode::stl::equal_to<int>, std::__ndk1::allocator<std::__ndk1::pair<int const, std::__ndk1::vector<int, std::__ndk1::allocator<int> > > > >::~unordered_map()
PUBLIC 2ef1c 0 gd::vector<EnterEffectInstance>::~vector()
PUBLIC 2efb4 0 geode::stl::unordered_map<int, std::__ndk1::vector<EnterEffectInstance, std::__ndk1::allocator<EnterEffectInstance> >, geode::stl::hash<int>, geode::stl::equal_to<int>, std::__ndk1::allocator<std::__ndk1::pair<int const, std::__ndk1::vector<EnterEffectInstance, std::__ndk1::allocator<EnterEffectInstance> > > > >::~unordered_map()
PUBLIC 2eff0 0 gd::map<std::__ndk1::pair<GJGameEvent, int>, int>::~map()
PUBLIC 2f00c 0 gd::map<std::__ndk1::pair<GJGameEvent, int>, gd::vector<EventTriggerInstance> >::~map()
PUBLIC 2f028 0 geode::stl::unordered_map<int, EnhancedGameObject*, geode::stl::hash<int>, geode::stl::equal_to<int>, std::__ndk1::allocator<std::__ndk1::pair<int const, EnhancedGameObject*> > >::~unordered_map()
PUBLIC 2f0a0 0 geode::stl::unordered_map<int, GameObjectPhysics, geode::stl::hash<int>, geode::stl::equal_to<int>, std::__ndk1::allocator<std::__ndk1::pair<int const, GameObjectPhysics> > >::~unordered_map()
PUBLIC 2f118 0 geode::stl::unordered_map<int, GJValueTween, geode::stl::hash<int>, geode::stl::equal_to<int>, std::__ndk1::allocator<std::__ndk1::pair<int const, GJValueTween> > >::~unordered_map()
PUBLIC 2f190 0 geode::stl::unordered_map<int, bool, geode::stl::hash<int>, geode::stl::equal_to<int>, std::__ndk1::allocator<std::__ndk1::pair<int const, bool> > >::~unordered_map()
PUBLIC 2f208 0 gd::map<std::__ndk1::pair<GJGameEvent, int>, gd::vector<EventTriggerInstance> >::map(std::__ndk1::map<std::__ndk1::pair<GJGameEvent, int>, gd::vector<EventTriggerInstance>, std::__ndk1::less<std::__ndk1::pair<GJGameEvent, int> >, std::__ndk1::allocator<std::__ndk1::pair<std::__ndk1::pair<GJGameEvent, int> const, gd::vector<EventTriggerInstance> > > >)
PUBLIC 2f3d4 0 gd::map<std::__ndk1::pair<GJGameEvent, int>, gd::vector<EventTriggerInstance> >::insert_pair(std::__ndk1::pair<std::__ndk1::pair<GJGameEvent, int>, gd::vector<EventTriggerInstance> > const&)
PUBLIC 2f68c 0 std::__ndk1::pair<std::__ndk1::pair<GJGameEvent, int>, gd::vector<EventTriggerInstance> >::~pair()
PUBLIC 2f70c 0 std::__ndk1::pair<std::__ndk1::pair<GJGameEvent, int> const, gd::vector<EventTriggerInstance> >::~pair()
PUBLIC 2f78c 0 gd::vector<EventTriggerInstance>::vector(gd::vector<EventTriggerInstance> const&)
PUBLIC 2f92c 0 geode::stl::_rb_insert_rebalance(bool, geode::stl::_rb_tree_base*, geode::stl::_rb_tree_base*, geode::stl::_rb_tree_base&)
PUBLIC 2fbe4 0 gd::vector<EventTriggerInstance>::operator=(gd::vector<EventTriggerInstance> const&)
PUBLIC 2fda0 0 gd::vector<EventTriggerInstance>::~vector()
PUBLIC 2fe20 0 std::__ndk1::__tree<std::__ndk1::__value_type<std::__ndk1::pair<GJGameEvent, int>, gd::vector<EventTriggerInstance> >, std::__ndk1::__map_value_compare<std::__ndk1::pair<GJGameEvent, int>, std::__ndk1::__value_type<std::__ndk1::pair<GJGameEvent, int>, gd::vector<EventTriggerInstance> >, std::__ndk1::less<std::__ndk1::pair<GJGameEvent, int> >, true>, std::__ndk1::allocator<std::__ndk1::__value_type<std::__ndk1::pair<GJGameEvent, int>, gd::vector<EventTriggerInstance> > > >::destroy(std::__ndk1::__tree_node<std::__ndk1::__value_type<std::__ndk1::pair<GJGameEvent, int>, gd::vector<EventTriggerInstance> >, void*>*)
PUBLIC 2feb8 0 gd::map<std::__ndk1::pair<int, int>, SFXTriggerInstance>::erase(geode::stl::_rb_tree_node<std::__ndk1::pair<std::__ndk1::pair<int, int>, SFXTriggerInstance> >*)
PUBLIC 2ff0c 0 gd::map<int, EnterEffectAnimValue>::erase(geode::stl::_rb_tree_node<std::__ndk1::pair<int, EnterEffectAnimValue> >*)
PUBLIC 2ff60 0 geode::stl::_Hashtable<int, std::__ndk1::pair<int const, std::__ndk1::vector<EnterEffectInstance, std::__ndk1::allocator<EnterEffectInstance> > >, std::__ndk1::allocator<std::__ndk1::pair<int const, std::__ndk1::vector<EnterEffectInstance, std::__ndk1::allocator<EnterEffectInstance> > > >, geode::stl::__detail::_Select1st, geode::stl::equal_to<int>, geode::stl::hash<int>, geode::stl::__detail::_Mod_range_hashing, geode::stl::__detail::_Default_ranged_hash, geode::stl::__detail::_Prime_rehash_policy, geode::stl::__detail::_Hashtable_traits<false, false, true> >::clear()
PUBLIC 30008 0 gd::map<std::__ndk1::pair<GJGameEvent, int>, int>::erase(geode::stl::_rb_tree_node<std::__ndk1::pair<std::__ndk1::pair<GJGameEvent, int>, int> >*)
PUBLIC 3005c 0 gd::map<std::__ndk1::pair<GJGameEvent, int>, gd::vector<EventTriggerInstance> >::erase(geode::stl::_rb_tree_node<std::__ndk1::pair<std::__ndk1::pair<GJGameEvent, int>, gd::vector<EventTriggerInstance> > >*)
PUBLIC 30104 0 gd::map<std::__ndk1::pair<int, int>, int>::erase(geode::stl::_rb_tree_node<std::__ndk1::pair<std::__ndk1::pair<int, int>, int> >*)
PUBLIC 30158 0 std::__ndk1::shared_ptr<tulip::hook::CallingConvention>::~shared_ptr[abi:ne180000]()
PUBLIC 301a8 0 tulip::hook::HandlerMetadata::~HandlerMetadata()
PUBLIC 3020c 0 MyPlayLayer::onEnterTransitionDidFinish()
PUBLIC 30cf8 0 MyPlayLayer::createFooter()
PUBLIC 30e84 0 MyPlayLayer::createActions(cocos2d::CCNode*)
PUBLIC 31018 0 MyPlayLayer::createDescLabel(cocos2d::CCNode*)
PUBLIC 312d8 0 MyPlayLayer::createUsernameLabel(cocos2d::CCNode*)
PUBLIC 316dc 0 MyPlayLayer::createSimplePlayer(cocos2d::CCNode*)
PUBLIC 31a20 0 MyPlayLayer::createForYou()
PUBLIC 31ba4 0 MyPlayLayer::createSearch(cocos2d::CCNode*)
PUBLIC 31d0c 0 MyPlayLayer::createLive(cocos2d::CCNode*)
PUBLIC 31e88 0 MyPlayLayer::createVibingCube(cocos2d::CCNode*)
PUBLIC 3201c 0 MyPlayLayer::createInteractiveFooterButtons(cocos2d::CCNode*)
PUBLIC 32518 0 MyPlayLayer::applyWinSize()
PUBLIC 32600 0 MyPlayLayer::updateRender(float)
PUBLIC 32744 0 MyPlayLayer::createLikesLabel(cocos2d::CCNode*)
PUBLIC 32914 0 MyPlayLayer::createDownloadsLabel(cocos2d::CCNode*)
PUBLIC 32a90 0 MyPlayLayer::createCommentsLabel(cocos2d::CCNode*)
PUBLIC 32c84 0 _ZN5geode5utils22numToAbbreviatedStringITkNSt6__ndk18integralEiEENS2_12basic_stringIcNS2_11char_traitsIcEENS2_9allocatorIcEEEET_
PUBLIC 3317c 0 _ZN3fmt3v119to_stringIiTnNSt6__ndk19enable_ifIXsr3std11is_integralIT_EE5valueEiE4typeELi0EEENS2_12basic_stringIcNS2_11char_traitsIcEENS2_9allocatorIcEEEES4_
PUBLIC 3332c 0 std::__ndk1::basic_string<char, std::__ndk1::char_traits<char>, std::__ndk1::allocator<char> >::__assign_external(char const*, unsigned long)
PUBLIC 33454 0 fmt::v11::detail::value<fmt::v11::context>::format_custom_arg<gd::string, fmt::v11::formatter<gd::string, char, void> >(void*, fmt::v11::basic_format_parse_context<char>&, fmt::v11::context&)
PUBLIC 33524 0 fmt::v11::formatter<gd::string, char, void>::format<fmt::v11::context>(gd::string const&, fmt::v11::context&) const
PUBLIC 33684 0 fmt::v11::detail::parse_format_specs<char>(char const*, char const*, fmt::v11::detail::dynamic_format_specs<char>&, fmt::v11::basic_format_parse_context<char>&, fmt::v11::detail::type)
PUBLIC 33b38 0 fmt::v11::detail::parse_dynamic_spec<char>(char const*, char const*, int&, fmt::v11::detail::arg_ref<char>&, fmt::v11::basic_format_parse_context<char>&)
PUBLIC 33cdc 0 fmt::v11::detail::do_parse_arg_id<char, fmt::v11::detail::dynamic_spec_id_handler<char>&>(char const*, char const*, fmt::v11::detail::dynamic_spec_id_handler<char>&)
PUBLIC 33e70 0 fmt::v11::detail::handle_dynamic_spec<fmt::v11::detail::width_checker, fmt::v11::context>(int&, fmt::v11::detail::arg_ref<fmt::v11::context::char_type>, fmt::v11::context&)
PUBLIC 33f84 0 fmt::v11::detail::handle_dynamic_spec<fmt::v11::detail::precision_checker, fmt::v11::context>(int&, fmt::v11::detail::arg_ref<fmt::v11::context::char_type>, fmt::v11::context&)
PUBLIC 34098 0 fmt::v11::detail::write<char, fmt::v11::basic_appender<char> >(fmt::v11::basic_appender<char>, fmt::v11::basic_string_view<char>, fmt::v11::format_specs const&)
PUBLIC 34314 0 fmt::v11::detail::write_escaped_string<char, fmt::v11::detail::counting_iterator>(fmt::v11::detail::counting_iterator, fmt::v11::basic_string_view<char>)
PUBLIC 34834 0 fmt::v11::detail::write_padded<char, (fmt::v11::align::type)1, fmt::v11::basic_appender<char>, fmt::v11::detail::write<char, fmt::v11::basic_appender<char> >(fmt::v11::basic_appender<char>, fmt::v11::basic_string_view<char>, fmt::v11::format_specs const&)::{lambda(fmt::v11::basic_appender<char>)#1}>(fmt::v11::basic_appender<char>, fmt::v11::format_specs const&, unsigned long, unsigned long, fmt::v11::detail::write<char, fmt::v11::basic_appender<char> >(fmt::v11::basic_appender<char>, fmt::v11::basic_string_view<char>, fmt::v11::format_specs const&)::{lambda(fmt::v11::basic_appender<char>&&)#1})
PUBLIC 34a40 0 fmt::v11::detail::for_each_codepoint<fmt::v11::detail::code_point_index(fmt::v11::basic_string_view<char>, unsigned long)::{lambda(unsigned int, fmt::v11::basic_string_view<char>)#1}>(fmt::v11::basic_string_view<char>, fmt::v11::detail::code_point_index(fmt::v11::basic_string_view<char>, unsigned long)::{lambda(unsigned int, fmt::v11::basic_string_view<char>)#1})
PUBLIC 34e68 0 fmt::v11::detail::write_escaped_cp<fmt::v11::detail::counting_iterator, char>(fmt::v11::detail::counting_iterator, fmt::v11::detail::find_escape_result<char> const&)
PUBLIC 34ffc 0 fmt::v11::detail::for_each_codepoint<fmt::v11::detail::compute_width(fmt::v11::basic_string_view<char>)::count_code_points>(fmt::v11::basic_string_view<char>, fmt::v11::detail::compute_width(fmt::v11::basic_string_view<char>)::count_code_points)::{lambda(char const*, char const*)#1}::operator()(char const*, char const*) const
PUBLIC 351b4 0 fmt::v11::detail::fill<char, fmt::v11::basic_appender<char> >(fmt::v11::basic_appender<char>, unsigned long, fmt::v11::detail::fill_t const&)
PUBLIC 35384 0 fmt::v11::detail::write_escaped_string<char, fmt::v11::basic_appender<char> >(fmt::v11::basic_appender<char>, fmt::v11::basic_string_view<char>)
PUBLIC 35a00 0 fmt::v11::detail::write_escaped_cp<fmt::v11::basic_appender<char>, char>(fmt::v11::basic_appender<char>, fmt::v11::detail::find_escape_result<char> const&)
PUBLIC 35be4 0 fmt::v11::detail::write_codepoint<(unsigned long)2, char, fmt::v11::basic_appender<char> >(fmt::v11::basic_appender<char>, char, unsigned int)
PUBLIC 35d5c 0 fmt::v11::detail::write_codepoint<(unsigned long)4, char, fmt::v11::basic_appender<char> >(fmt::v11::basic_appender<char>, char, unsigned int)
PUBLIC 35ed4 0 fmt::v11::detail::write_codepoint<(unsigned long)8, char, fmt::v11::basic_appender<char> >(fmt::v11::basic_appender<char>, char, unsigned int)
PUBLIC 3604c 0 fmt::v11::detail::get_dynamic_spec<fmt::v11::detail::width_checker, fmt::v11::basic_format_arg<fmt::v11::context> >(fmt::v11::basic_format_arg<fmt::v11::context>)
PUBLIC 360e0 0 fmt::v11::basic_format_args<fmt::v11::context>::get<char>(fmt::v11::basic_string_view<char>) const
PUBLIC 36238 0 fmt::v11::detail::get_dynamic_spec<fmt::v11::detail::precision_checker, fmt::v11::basic_format_arg<fmt::v11::context> >(fmt::v11::basic_format_arg<fmt::v11::context>)
PUBLIC 362cc 0 MyPlayLayer::whichIcon(GameManager*)
PUBLIC 36400 0 MyPlayLayer::exitPlayLayer(cocos2d::CCObject*)
PUBLIC 36500 0 MyPlayLayer::openFriends(cocos2d::CCObject*)
PUBLIC 36648 0 MyPlayLayer::openMyLevels(cocos2d::CCObject*)
PUBLIC 36770 0 MyPlayLayer::openMessages(cocos2d::CCObject*)
PUBLIC 3694c 0 MyPlayLayer::openProfile(cocos2d::CCObject*)
PUBLIC 36a90 0 std::__ndk1::__tree<std::__ndk1::__value_type<std::__ndk1::basic_string<char, std::__ndk1::char_traits<char>, std::__ndk1::allocator<char> >, std::__ndk1::shared_ptr<geode::Hook> >, std::__ndk1::__map_value_compare<std::__ndk1::basic_string<char, std::__ndk1::char_traits<char>, std::__ndk1::allocator<char> >, std::__ndk1::__value_type<std::__ndk1::basic_string<char, std::__ndk1::char_traits<char>, std::__ndk1::allocator<char> >, std::__ndk1::shared_ptr<geode::Hook> >, std::__ndk1::less<std::__ndk1::basic_string<char, std::__ndk1::char_traits<char>, std::__ndk1::allocator<char> > >, true>, std::__ndk1::allocator<std::__ndk1::__value_type<std::__ndk1::basic_string<char, std::__ndk1::char_traits<char>, std::__ndk1::allocator<char> >, std::__ndk1::shared_ptr<geode::Hook> > > >::__emplace_unique_key_args<std::__ndk1::basic_string<char, std::__ndk1::char_traits<char>, std::__ndk1::allocator<char> >, std::__ndk1::piecewise_construct_t const&, std::__ndk1::tuple<std::__ndk1::basic_string<char, std::__ndk1::char_traits<char>, std::__ndk1::allocator<char> >&&>, std::__ndk1::tuple<> >(std::__ndk1::basic_string<char, std::__ndk1::char_traits<char>, std::__ndk1::allocator<char> > const&, std::__ndk1::piecewise_construct_t const&, std::__ndk1::tuple<std::__ndk1::basic_string<char, std::__ndk1::char_traits<char>, std::__ndk1::allocator<char> >&&>, std::__ndk1::tuple<>)
PUBLIC 36c08 0 MyPlayLayer::startGame()
PUBLIC 36ec0 0 __cxx_global_var_init
PUBLIC 374f0 0 geode::modifier::ModifyBase<geode::modifier::ModifyDerive<MyCCLabelBMFont, cocos2d::CCLabelBMFont> >::~ModifyBase()
PUBLIC 3750c 0 geode::modifier::ModifyDerive<MyCCLabelBMFont, cocos2d::CCLabelBMFont>::apply()
PUBLIC 37510 0 geode::modifier::ModifyBase<geode::modifier::ModifyDerive<MyCCLabelBMFont, cocos2d::CCLabelBMFont> >::apply()
PUBLIC 37514 0 __cxx_global_var_init.1
PUBLIC 37994 0 geode::modifier::ModifyBase<geode::modifier::ModifyDerive<MyCCScene, cocos2d::CCScene> >::~ModifyBase()
PUBLIC 379b0 0 geode::modifier::ModifyDerive<MyCCScene, cocos2d::CCScene>::apply()
PUBLIC 37cf4 0 geode::modifier::ModifyBase<geode::modifier::ModifyDerive<MyCCScene, cocos2d::CCScene> >::apply()
PUBLIC 37cf8 0 geode::modifier::AsStaticFunction_getHighestChildZ<MyCCScene, int (MyCCScene::*)()>::Impl<int (MyCCScene::*)()>::function(MyCCScene*)
PUBLIC 37e50 0 __cxx_global_var_init.1
PUBLIC 382d0 0 geode::modifier::ModifyBase<geode::modifier::ModifyDerive<MyCCScheduler, cocos2d::CCScheduler> >::~ModifyBase()
PUBLIC 382ec 0 geode::modifier::ModifyDerive<MyCCScheduler, cocos2d::CCScheduler>::apply()
PUBLIC 3866c 0 geode::modifier::ModifyBase<geode::modifier::ModifyDerive<MyCCScheduler, cocos2d::CCScheduler> >::apply()
PUBLIC 38670 0 geode::modifier::AsStaticFunction_update<MyCCScheduler, void (MyCCScheduler::*)(float)>::Impl<void (MyCCScheduler::*)(float)>::function(MyCCScheduler*, float)
PUBLIC 38870 0 geode::addresser::Addresser::addressOfVirtual<void, cocos2d::CCScheduler, float>(void (cocos2d::CCScheduler::*)(float))
PUBLIC 38948 0 __cxx_global_var_init.1
PUBLIC 38f80 0 geode::modifier::ModifyBase<geode::modifier::ModifyDerive<MyCCTouchDispatcher, cocos2d::CCTouchDispatcher> >::~ModifyBase()
PUBLIC 38f9c 0 std::__ndk1::vector<tulip::hook::AbstractType, std::__ndk1::allocator<tulip::hook::AbstractType> >::__throw_length_error[abi:ne180000]() const
PUBLIC 38fb0 0 cocos2d::CCNode::getChildByType<PauseLayer>(int)
PUBLIC 39078 0 geode::modifier::ModifyDerive<MyCCTouchDispatcher, cocos2d::CCTouchDispatcher>::apply()
PUBLIC 39458 0 geode::modifier::ModifyBase<geode::modifier::ModifyDerive<MyCCTouchDispatcher, cocos2d::CCTouchDispatcher> >::apply()
PUBLIC 3945c 0 geode::modifier::AsStaticFunction_touches<MyCCTouchDispatcher, void (MyCCTouchDispatcher::*)(cocos2d::CCSet*, cocos2d::CCEvent*, unsigned int)>::Impl<void (MyCCTouchDispatcher::*)(cocos2d::CCSet*, cocos2d::CCEvent*, unsigned int)>::function(MyCCTouchDispatcher*, cocos2d::CCSet*, cocos2d::CCEvent*, unsigned int)
PUBLIC 398c4 0 __cxx_global_var_init
PUBLIC 39ef8 0 geode::modifier::ModifyBase<geode::modifier::ModifyDerive<MyCommentCell, CommentCell> >::~ModifyBase()
PUBLIC 39f14 0 geode::modifier::ModifyDerive<MyCommentCell, CommentCell>::apply()
PUBLIC 3a294 0 geode::modifier::ModifyBase<geode::modifier::ModifyDerive<MyCommentCell, CommentCell> >::apply()
PUBLIC 3a298 0 geode::modifier::AsStaticFunction_onGoToLevel<MyCommentCell, void (MyCommentCell::*)(cocos2d::CCObject*)>::Impl<void (MyCommentCell::*)(cocos2d::CCObject*)>::function(MyCommentCell*, cocos2d::CCObject*)
PUBLIC 3a59c 0 geode::modifier::FieldIntermediate<MyCommentCell, CommentCell>::fieldDestructor(void*)
PUBLIC 3a5a0 0 __cxx_global_var_init
PUBLIC 3aa98 0 geode::modifier::ModifyBase<geode::modifier::ModifyDerive<MyFriendsProfilePage, FriendsProfilePage> >::~ModifyBase()
PUBLIC 3aab4 0 geode::modifier::ModifyDerive<MyFriendsProfilePage, FriendsProfilePage>::apply()
PUBLIC 3b168 0 geode::modifier::ModifyBase<geode::modifier::ModifyDerive<MyFriendsProfilePage, FriendsProfilePage> >::apply()
PUBLIC 3b16c 0 geode::modifier::ModifyBase<geode::modifier::ModifyDerive<MyFriendsProfilePage, FriendsProfilePage> >::setHookPriority(std::__ndk1::basic_string_view<char, std::__ndk1::char_traits<char> >, int)
PUBLIC 3b3b4 0 geode::modifier::AsStaticFunction_onClose<MyFriendsProfilePage, void (MyFriendsProfilePage::*)(cocos2d::CCObject*)>::Impl<void (MyFriendsProfilePage::*)(cocos2d::CCObject*)>::function(MyFriendsProfilePage*, cocos2d::CCObject*)
PUBLIC 3b53c 0 geode::modifier::AsStaticFunction_setupUsersBrowser<MyFriendsProfilePage, void (MyFriendsProfilePage::*)(cocos2d::CCArray*, UserListType)>::Impl<void (MyFriendsProfilePage::*)(cocos2d::CCArray*, UserListType)>::function(MyFriendsProfilePage*, cocos2d::CCArray*, UserListType)
PUBLIC 3b650 0 geode::modifier::FieldIntermediate<MyFriendsProfilePage, FriendsProfilePage>::self()
PUBLIC 3b830 0 geode::modifier::FieldIntermediate<MyFriendsProfilePage, FriendsProfilePage>::fieldDestructor(void*)
PUBLIC 3b834 0 __cxx_global_var_init
PUBLIC 3be68 0 geode::modifier::ModifyBase<geode::modifier::ModifyDerive<MyGameManager, GameManager> >::~ModifyBase()
PUBLIC 3be84 0 geode::modifier::ModifyDerive<MyGameManager, GameManager>::apply()
PUBLIC 3c204 0 geode::modifier::ModifyBase<geode::modifier::ModifyDerive<MyGameManager, GameManager> >::apply()
PUBLIC 3c208 0 geode::modifier::AsStaticFunction_encodeDataTo<MyGameManager, void (MyGameManager::*)(DS_Dictionary*)>::Impl<void (MyGameManager::*)(DS_Dictionary*)>::function(MyGameManager*, DS_Dictionary*)
PUBLIC 3c424 0 geode::addresser::Addresser::addressOfVirtual<void, GameManager, DS_Dictionary*>(void (GameManager::*)(DS_Dictionary*))
PUBLIC 3c4ec 0 GameManager::GameManager(geode::ZeroConstructorType)
PUBLIC 3c784 0 gd::map<int, gd::vector<cocos2d::CCObject*> >::~map()
PUBLIC 3c7a0 0 gd::map<int, bool>::~map()
PUBLIC 3c7bc 0 gd::map<int, gd::map<int, int> >::~map()
PUBLIC 3c7d8 0 gd::map<int, int>::~map()
PUBLIC 3c7f4 0 gd::map<int, int>::insert_pair(std::__ndk1::pair<int, int> const&)
PUBLIC 3c994 0 std::__ndk1::__tree<std::__ndk1::__value_type<int, int>, std::__ndk1::__map_value_compare<int, std::__ndk1::__value_type<int, int>, std::__ndk1::less<int>, true>, std::__ndk1::allocator<std::__ndk1::__value_type<int, int> > >::destroy(std::__ndk1::__tree_node<std::__ndk1::__value_type<int, int>, void*>*)
PUBLIC 3c9d8 0 gd::map<int, gd::map<int, int> >::map(std::__ndk1::map<int, gd::map<int, int>, std::__ndk1::less<int>, std::__ndk1::allocator<std::__ndk1::pair<int const, gd::map<int, int> > > >)
PUBLIC 3cb1c 0 gd::map<int, gd::map<int, int> >::insert_pair(std::__ndk1::pair<int, gd::map<int, int> > const&)
PUBLIC 3ccec 0 std::__ndk1::pair<int, gd::map<int, int> >::~pair()
PUBLIC 3cd0c 0 std::__ndk1::pair<int const, gd::map<int, int> >::~pair()
PUBLIC 3cd2c 0 gd::map<int, int>::map(gd::map<int, int> const&)
PUBLIC 3ce2c 0 gd::map<int, int>::operator std::__ndk1::map<int, int, std::__ndk1::less<int>, std::__ndk1::allocator<std::__ndk1::pair<int const, int> > >() const
PUBLIC 3cfac 0 std::__ndk1::__tree<std::__ndk1::__value_type<int, gd::map<int, int> >, std::__ndk1::__map_value_compare<int, std::__ndk1::__value_type<int, gd::map<int, int> >, std::__ndk1::less<int>, true>, std::__ndk1::allocator<std::__ndk1::__value_type<int, gd::map<int, int> > > >::destroy(std::__ndk1::__tree_node<std::__ndk1::__value_type<int, gd::map<int, int> >, void*>*)
PUBLIC 3d004 0 gd::map<int, gd::vector<cocos2d::CCObject*> >::map(std::__ndk1::map<int, gd::vector<cocos2d::CCObject*>, std::__ndk1::less<int>, std::__ndk1::allocator<std::__ndk1::pair<int const, gd::vector<cocos2d::CCObject*> > > >)
PUBLIC 3d204 0 gd::map<int, gd::vector<cocos2d::CCObject*> >::insert_pair(std::__ndk1::pair<int, gd::vector<cocos2d::CCObject*> > const&)
PUBLIC 3d484 0 std::__ndk1::__tree<std::__ndk1::__value_type<int, gd::vector<cocos2d::CCObject*> >, std::__ndk1::__map_value_compare<int, std::__ndk1::__value_type<int, gd::vector<cocos2d::CCObject*> >, std::__ndk1::less<int>, true>, std::__ndk1::allocator<std::__ndk1::__value_type<int, gd::vector<cocos2d::CCObject*> > > >::destroy(std::__ndk1::__tree_node<std::__ndk1::__value_type<int, gd::vector<cocos2d::CCObject*> >, void*>*)
PUBLIC 3d4d0 0 gd::map<int, gd::vector<cocos2d::CCObject*> >::erase(geode::stl::_rb_tree_node<std::__ndk1::pair<int, gd::vector<cocos2d::CCObject*> > >*)
PUBLIC 3d52c 0 gd::map<int, bool>::erase(geode::stl::_rb_tree_node<std::__ndk1::pair<int, bool> >*)
PUBLIC 3d580 0 gd::map<int, gd::map<int, int> >::erase(geode::stl::_rb_tree_node<std::__ndk1::pair<int, gd::map<int, int> > >*)
PUBLIC 3d5e4 0 gd::map<int, int>::erase(geode::stl::_rb_tree_node<std::__ndk1::pair<int, int> >*)
PUBLIC 3d638 0 geode::Mod::setSettingValue<bool>(std::__ndk1::basic_string_view<char, std::__ndk1::char_traits<char> >, bool const&)
PUBLIC 3d7e8 0 std::__ndk1::shared_ptr<geode::BoolSettingV3>::~shared_ptr[abi:ne180000]()
PUBLIC 3d838 0 __cxx_global_var_init
PUBLIC 3de6c 0 geode::modifier::ModifyBase<geode::modifier::ModifyDerive<MyInfoLayer, InfoLayer> >::~ModifyBase()
PUBLIC 3de88 0 geode::modifier::ModifyDerive<MyInfoLayer, InfoLayer>::apply()
PUBLIC 3e210 0 geode::modifier::ModifyBase<geode::modifier::ModifyDerive<MyInfoLayer, InfoLayer> >::apply()
PUBLIC 3e214 0 geode::modifier::AsStaticFunction_setupCommentsBrowser<MyInfoLayer, void (MyInfoLayer::*)(cocos2d::CCArray*)>::Impl<void (MyInfoLayer::*)(cocos2d::CCArray*)>::function(MyInfoLayer*, cocos2d::CCArray*)
PUBLIC 3e500 0 geode::modifier::FieldIntermediate<MyInfoLayer, InfoLayer>::fieldDestructor(void*)
PUBLIC 3e504 0 __cxx_global_var_init
PUBLIC 3e984 0 geode::modifier::ModifyBase<geode::modifier::ModifyDerive<MyMenuLayer, MenuLayer> >::~ModifyBase()
PUBLIC 3e9a0 0 geode::modifier::ModifyDerive<MyMenuLayer, MenuLayer>::apply()
PUBLIC 3eca8 0 geode::modifier::ModifyBase<geode::modifier::ModifyDerive<MyMenuLayer, MenuLayer> >::apply()
PUBLIC 3ecac 0 geode::modifier::AsStaticFunction_init<MyMenuLayer, bool (MyMenuLayer::*)()>::Impl<bool (MyMenuLayer::*)()>::function(MyMenuLayer*)
PUBLIC 3ed98 0 geode::addresser::Addresser::addressOfVirtual<bool, MenuLayer, >(bool (MenuLayer::*)())
PUBLIC 3ee40 0 MenuLayer::MenuLayer(geode::ZeroConstructorType)
PUBLIC 3eedc 0 std::__ndk1::basic_string<char, std::__ndk1::char_traits<char>, std::__ndk1::allocator<char> >::__assign_external(char const*)
PUBLIC 3ef10 0 __cxx_global_var_init
PUBLIC 3f408 0 geode::modifier::ModifyBase<geode::modifier::ModifyDerive<MyProfilePage, ProfilePage> >::~ModifyBase()
PUBLIC 3f424 0 geode::modifier::ModifyDerive<MyProfilePage, ProfilePage>::apply()
PUBLIC 3fba0 0 geode::modifier::ModifyBase<geode::modifier::ModifyDerive<MyProfilePage, ProfilePage> >::apply()
PUBLIC 3fba4 0 geode::modifier::ModifyBase<geode::modifier::ModifyDerive<MyProfilePage, ProfilePage> >::setHookPriority(std::__ndk1::basic_string_view<char, std::__ndk1::char_traits<char> >, int)
PUBLIC 3fdec 0 geode::Hook::create<void (*)(MyProfilePage*, cocos2d::CCObject*)>(void*, void (*)(MyProfilePage*, cocos2d::CCObject*), std::__ndk1::basic_string<char, std::__ndk1::char_traits<char>, std::__ndk1::allocator<char> > const&, tulip::hook::TulipConvention, tulip::hook::HookMetadata const&)
PUBLIC 3ff70 0 geode::modifier::AsStaticFunction_onMyLevels<MyProfilePage, void (MyProfilePage::*)(cocos2d::CCObject*)>::Impl<void (MyProfilePage::*)(cocos2d::CCObject*)>::function(MyProfilePage*, cocos2d::CCObject*)
PUBLIC 4009c 0 geode::modifier::AsStaticFunction_onMyLists<MyProfilePage, void (MyProfilePage::*)(cocos2d::CCObject*)>::Impl<void (MyProfilePage::*)(cocos2d::CCObject*)>::function(MyProfilePage*, cocos2d::CCObject*)
PUBLIC 401c8 0 geode::modifier::AsStaticFunction_setupCommentsBrowser<MyProfilePage, void (MyProfilePage::*)(cocos2d::CCArray*)>::Impl<void (MyProfilePage::*)(cocos2d::CCArray*)>::function(MyProfilePage*, cocos2d::CCArray*)
PUBLIC 402dc 0 geode::modifier::FieldIntermediate<MyProfilePage, ProfilePage>::self()
PUBLIC 404bc 0 geode::modifier::FieldIntermediate<MyProfilePage, ProfilePage>::fieldDestructor(void*)
PUBLIC 404c0 0 std::__ndk1::basic_regex<char, std::__ndk1::regex_traits<char> >::~basic_regex()
PUBLIC 40520 0 Utils::getBool(std::__ndk1::basic_string_view<char, std::__ndk1::char_traits<char> >)
PUBLIC 40584 0 Utils::getRandInt(int, int)
PUBLIC 406c8 0 Utils::showGuardrailAlert()
PUBLIC 407b0 0 Utils::showFirstTimeAlert()
PUBLIC 40a34 0 geode::Mod::getSavedValue<bool>(std::__ndk1::basic_string_view<char, std::__ndk1::char_traits<char> >)
PUBLIC 40bc4 0 std::__ndk1::shared_ptr<std::__ndk1::__empty_state<char> >::~shared_ptr[abi:ne180000]()
PUBLIC 40c18 0 std::__ndk1::basic_regex<char, std::__ndk1::regex_traits<char> >::__parse<char const*>(char const*, char const*)
PUBLIC 412dc 0 std::__ndk1::__throw_regex_error[abi:ne180000]<(std::__ndk1::regex_constants::error_type)17>()
PUBLIC 41328 0 std::__ndk1::basic_regex<char, std::__ndk1::regex_traits<char> >::__parse_ecma_exp<char const*>(char const*, char const*)
PUBLIC 41594 0 std::__ndk1::basic_regex<char, std::__ndk1::regex_traits<char> >::__parse_basic_reg_exp<char const*>(char const*, char const*)
PUBLIC 4173c 0 std::__ndk1::basic_regex<char, std::__ndk1::regex_traits<char> >::__parse_extended_reg_exp<char const*>(char const*, char const*)
PUBLIC 418ac 0 std::__ndk1::__throw_regex_error[abi:ne180000]<(std::__ndk1::regex_constants::error_type)14>()
PUBLIC 418f8 0 std::__ndk1::__end_state<char>::~__end_state()
PUBLIC 418fc 0 std::__ndk1::__end_state<char>::__exec(std::__ndk1::__state<char>&) const
PUBLIC 41908 0 std::__ndk1::__node<char>::__exec_split(bool, std::__ndk1::__state<char>&) const
PUBLIC 4190c 0 std::__ndk1::__node<char>::__exec(std::__ndk1::__state<char>&) const
PUBLIC 41910 0 std::__ndk1::__shared_ptr_pointer<std::__ndk1::__empty_state<char>*, std::__ndk1::shared_ptr<std::__ndk1::__empty_state<char> >::__shared_ptr_default_delete<std::__ndk1::__empty_state<char>, std::__ndk1::__empty_state<char> >, std::__ndk1::allocator<std::__ndk1::__empty_state<char> > >::~__shared_ptr_pointer()
PUBLIC 41934 0 std::__ndk1::__shared_ptr_pointer<std::__ndk1::__empty_state<char>*, std::__ndk1::shared_ptr<std::__ndk1::__empty_state<char> >::__shared_ptr_default_delete<std::__ndk1::__empty_state<char>, std::__ndk1::__empty_state<char> >, std::__ndk1::allocator<std::__ndk1::__empty_state<char> > >::__on_zero_shared()
PUBLIC 4194c 0 std::__ndk1::__shared_ptr_pointer<std::__ndk1::__empty_state<char>*, std::__ndk1::shared_ptr<std::__ndk1::__empty_state<char> >::__shared_ptr_default_delete<std::__ndk1::__empty_state<char>, std::__ndk1::__empty_state<char> >, std::__ndk1::allocator<std::__ndk1::__empty_state<char> > >::__get_deleter(std::type_info const&) const
PUBLIC 41968 0 std::__ndk1::__shared_ptr_pointer<std::__ndk1::__empty_state<char>*, std::__ndk1::shared_ptr<std::__ndk1::__empty_state<char> >::__shared_ptr_default_delete<std::__ndk1::__empty_state<char>, std::__ndk1::__empty_state<char> >, std::__ndk1::allocator<std::__ndk1::__empty_state<char> > >::__on_zero_shared_weak()
PUBLIC 4196c 0 std::__ndk1::__empty_state<char>::~__empty_state()
PUBLIC 419b4 0 std::__ndk1::__empty_state<char>::__exec(std::__ndk1::__state<char>&) const
PUBLIC 419c8 0 std::__ndk1::__owns_one_state<char>::~__owns_one_state()
PUBLIC 41a10 0 std::__ndk1::basic_regex<char, std::__ndk1::regex_traits<char> >::__parse_assertion<char const*>(char const*, char const*)
PUBLIC 41d74 0 std::__ndk1::basic_regex<char, std::__ndk1::regex_traits<char> >::__parse_atom<char const*>(char const*, char const*)
PUBLIC 423b8 0 std::__ndk1::basic_regex<char, std::__ndk1::regex_traits<char> >::__parse_ERE_dupl_symbol<char const*>(char const*, char const*, std::__ndk1::__owns_one_state<char>*, unsigned int, unsigned int)
PUBLIC 427ac 0 std::__ndk1::basic_regex<char, std::__ndk1::regex_traits<char> >::basic_regex[abi:ne180000]()
PUBLIC 42818 0 std::__ndk1::basic_regex<char, std::__ndk1::regex_traits<char> >::__push_lookahead(std::__ndk1::basic_regex<char, std::__ndk1::regex_traits<char> > const&, bool, unsigned int)
PUBLIC 428cc 0 std::__ndk1::__throw_regex_error[abi:ne180000]<(std::__ndk1::regex_constants::error_type)6>()
PUBLIC 42918 0 std::__ndk1::__l_anchor_multiline<char>::~__l_anchor_multiline()
PUBLIC 42960 0 std::__ndk1::__l_anchor_multiline<char>::__exec(std::__ndk1::__state<char>&) const
PUBLIC 429c4 0 std::__ndk1::__r_anchor_multiline<char>::~__r_anchor_multiline()
PUBLIC 42a0c 0 std::__ndk1::__r_anchor_multiline<char>::__exec(std::__ndk1::__state<char>&) const
PUBLIC 42a60 0 std::__ndk1::__word_boundary<char, std::__ndk1::regex_traits<char> >::~__word_boundary()
PUBLIC 42abc 0 std::__ndk1::__word_boundary<char, std::__ndk1::regex_traits<char> >::~__word_boundary()
PUBLIC 42b14 0 std::__ndk1::__word_boundary<char, std::__ndk1::regex_traits<char> >::__exec(std::__ndk1::__state<char>&) const
PUBLIC 42c24 0 std::__ndk1::__lookahead<char, std::__ndk1::regex_traits<char> >::~__lookahead()
PUBLIC 42cb4 0 std::__ndk1::__lookahead<char, std::__ndk1::regex_traits<char> >::~__lookahead()
PUBLIC 42d40 0 std::__ndk1::__lookahead<char, std::__ndk1::regex_traits<char> >::__exec(std::__ndk1::__state<char>&) const
PUBLIC 435c0 0 std::__ndk1::vector<std::__ndk1::sub_match<char const*>, std::__ndk1::allocator<std::__ndk1::sub_match<char const*> > >::__throw_length_error[abi:ne180000]() const
PUBLIC 435d4 0 std::__ndk1::__state<char>::~__state()
PUBLIC 43618 0 std::__ndk1::__throw_regex_error[abi:ne180000]<(std::__ndk1::regex_constants::error_type)12>()
PUBLIC 43664 0 std::__ndk1::__throw_regex_error[abi:ne180000]<(std::__ndk1::regex_constants::error_type)16>()
PUBLIC 436b0 0 std::__ndk1::vector<std::__ndk1::__state<char>, std::__ndk1::allocator<std::__ndk1::__state<char> > >::~vector[abi:ne180000]()
PUBLIC 43748 0 std::__ndk1::vector<std::__ndk1::__state<char>, std::__ndk1::allocator<std::__ndk1::__state<char> > >::__push_back_slow_path<std::__ndk1::__state<char> >(std::__ndk1::__state<char>&&)
PUBLIC 43924 0 std::__ndk1::vector<std::__ndk1::__state<char>, std::__ndk1::allocator<std::__ndk1::__state<char> > >::__throw_length_error[abi:ne180000]() const
PUBLIC 43938 0 std::__ndk1::vector<std::__ndk1::pair<unsigned long, char const*>, std::__ndk1::allocator<std::__ndk1::pair<unsigned long, char const*> > >::__throw_length_error[abi:ne180000]() const
PUBLIC 4394c 0 std::__ndk1::basic_regex<char, std::__ndk1::regex_traits<char> >::__parse_bracket_expression<char const*>(char const*, char const*)
PUBLIC 44a40 0 std::__ndk1::__throw_regex_error[abi:ne180000]<(std::__ndk1::regex_constants::error_type)11>()
PUBLIC 44a8c 0 std::__ndk1::__match_any_but_newline<char>::~__match_any_but_newline()
PUBLIC 44ad4 0 std::__ndk1::__throw_regex_error[abi:ne180000]<(std::__ndk1::regex_constants::error_type)3>()
PUBLIC 44b20 0 std::__ndk1::basic_regex<char, std::__ndk1::regex_traits<char> >::__parse_character_escape<char const*>(char const*, char const*, std::__ndk1::basic_string<char, std::__ndk1::char_traits<char>, std::__ndk1::allocator<char> >*)
PUBLIC 4502c 0 std::__ndk1::basic_regex<char, std::__ndk1::regex_traits<char> >::__push_char(char)
PUBLIC 4516c 0 std::__ndk1::__throw_regex_error[abi:ne180000]<(std::__ndk1::regex_constants::error_type)4>()
PUBLIC 451b8 0 std::__ndk1::basic_regex<char, std::__ndk1::regex_traits<char> >::__push_back_ref(int)
PUBLIC 45280 0 std::__ndk1::__match_char_icase<char, std::__ndk1::regex_traits<char> >::~__match_char_icase()
PUBLIC 452dc 0 std::__ndk1::__match_char_icase<char, std::__ndk1::regex_traits<char> >::~__match_char_icase()
PUBLIC 45334 0 std::__ndk1::__match_char_icase<char, std::__ndk1::regex_traits<char> >::__exec(std::__ndk1::__state<char>&) const
PUBLIC 453b4 0 std::__ndk1::__match_char_collate<char, std::__ndk1::regex_traits<char> >::~__match_char_collate()
PUBLIC 45410 0 std::__ndk1::__match_char_collate<char, std::__ndk1::regex_traits<char> >::~__match_char_collate()
PUBLIC 45468 0 std::__ndk1::__match_char_collate<char, std::__ndk1::regex_traits<char> >::__exec(std::__ndk1::__state<char>&) const
PUBLIC 454b0 0 std::__ndk1::__match_char<char>::~__match_char()
PUBLIC 454f8 0 std::__ndk1::__match_char<char>::__exec(std::__ndk1::__state<char>&) const
PUBLIC 45540 0 std::__ndk1::__back_ref_icase<char, std::__ndk1::regex_traits<char> >::~__back_ref_icase()
PUBLIC 4559c 0 std::__ndk1::__back_ref_icase<char, std::__ndk1::regex_traits<char> >::~__back_ref_icase()
PUBLIC 455f4 0 std::__ndk1::__back_ref_icase<char, std::__ndk1::regex_traits<char> >::__exec(std::__ndk1::__state<char>&) const
PUBLIC 456ec 0 std::__ndk1::__back_ref_collate<char, std::__ndk1::regex_traits<char> >::~__back_ref_collate()
PUBLIC 45748 0 std::__ndk1::__back_ref_collate<char, std::__ndk1::regex_traits<char> >::~__back_ref_collate()
PUBLIC 457a0 0 std::__ndk1::__back_ref_collate<char, std::__ndk1::regex_traits<char> >::__exec(std::__ndk1::__state<char>&) const
PUBLIC 45830 0 std::__ndk1::__back_ref<char>::~__back_ref()
PUBLIC 45878 0 std::__ndk1::__back_ref<char>::__exec(std::__ndk1::__state<char>&) const
PUBLIC 45948 0 std::__ndk1::__bracket_expression<char, std::__ndk1::regex_traits<char> >::__add_char[abi:ne180000](char)
PUBLIC 45df8 0 std::__ndk1::__bracket_expression<char, std::__ndk1::regex_traits<char> >::__bracket_expression[abi:ne180000](std::__ndk1::regex_traits<char> const&, std::__ndk1::__node<char>*, bool, bool, bool)
PUBLIC 45fd4 0 std::__ndk1::vector<std::__ndk1::pair<std::__ndk1::basic_string<char, std::__ndk1::char_traits<char>, std::__ndk1::allocator<char> >, std::__ndk1::basic_string<char, std::__ndk1::char_traits<char>, std::__ndk1::allocator<char> > >, std::__ndk1::allocator<std::__ndk1::pair<std::__ndk1::basic_string<char, std::__ndk1::char_traits<char>, std::__ndk1::allocator<char> >, std::__ndk1::basic_string<char, std::__ndk1::char_traits<char>, std::__ndk1::allocator<char> > > > >::~vector[abi:ne180000]()
PUBLIC 46078 0 std::__ndk1::__bracket_expression<char, std::__ndk1::regex_traits<char> >::~__bracket_expression()
PUBLIC 461c4 0 std::__ndk1::__bracket_expression<char, std::__ndk1::regex_traits<char> >::~__bracket_expression()
PUBLIC 461e8 0 std::__ndk1::__bracket_expression<char, std::__ndk1::regex_traits<char> >::__exec(std::__ndk1::__state<char>&) const
PUBLIC 46e54 0 std::__ndk1::pair<std::__ndk1::basic_string<char, std::__ndk1::char_traits<char>, std::__ndk1::allocator<char> >, std::__ndk1::basic_string<char, std::__ndk1::char_traits<char>, std::__ndk1::allocator<char> > >::~pair()
PUBLIC 46e98 0 std::__ndk1::basic_string<char, std::__ndk1::char_traits<char>, std::__ndk1::allocator<char> >::__assign_no_alias<true>(char const*, unsigned long)
PUBLIC 46f44 0 std::__ndk1::basic_string<char, std::__ndk1::char_traits<char>, std::__ndk1::allocator<char> >::__assign_no_alias<false>(char const*, unsigned long)
PUBLIC 47054 0 std::__ndk1::regex_traits<char>::__transform_primary<char*>(char*, char*, char) const
PUBLIC 47218 0 std::__ndk1::vector<char, std::__ndk1::allocator<char> >::__throw_length_error[abi:ne180000]() const
PUBLIC 4722c 0 std::__ndk1::__throw_regex_error[abi:ne180000]<(std::__ndk1::regex_constants::error_type)5>()
PUBLIC 47278 0 std::__ndk1::basic_regex<char, std::__ndk1::regex_traits<char> >::__parse_class_escape<char const*>(char const*, char const*, std::__ndk1::basic_string<char, std::__ndk1::char_traits<char>, std::__ndk1::allocator<char> >&, std::__ndk1::__bracket_expression<char, std::__ndk1::regex_traits<char> >*)
PUBLIC 47840 0 std::__ndk1::basic_regex<char, std::__ndk1::regex_traits<char> >::__parse_awk_escape<char const*>(char const*, char const*, std::__ndk1::basic_string<char, std::__ndk1::char_traits<char>, std::__ndk1::allocator<char> >*)
PUBLIC 47d04 0 std::__ndk1::__bracket_expression<char, std::__ndk1::regex_traits<char> >::__add_digraph[abi:ne180000](char, char)
PUBLIC 48124 0 std::__ndk1::__throw_regex_error[abi:ne180000]<(std::__ndk1::regex_constants::error_type)1>()
PUBLIC 48170 0 std::__ndk1::regex_traits<char>::__lookup_collatename<char const*>(char const*, char const*, char) const
PUBLIC 48424 0 std::__ndk1::__throw_regex_error[abi:ne180000]<(std::__ndk1::regex_constants::error_type)2>()
PUBLIC 48470 0 std::__ndk1::regex_traits<char>::transform<std::__ndk1::__wrap_iter<char*> >(std::__ndk1::__wrap_iter<char*>, std::__ndk1::__wrap_iter<char*>) const
PUBLIC 48624 0 std::__ndk1::__throw_regex_error[abi:ne180000]<(std::__ndk1::regex_constants::error_type)9>()
PUBLIC 48670 0 std::__ndk1::vector<std::__ndk1::pair<std::__ndk1::basic_string<char, std::__ndk1::char_traits<char>, std::__ndk1::allocator<char> >, std::__ndk1::basic_string<char, std::__ndk1::char_traits<char>, std::__ndk1::allocator<char> > >, std::__ndk1::allocator<std::__ndk1::pair<std::__ndk1::basic_string<char, std::__ndk1::char_traits<char>, std::__ndk1::allocator<char> >, std::__ndk1::basic_string<char, std::__ndk1::char_traits<char>, std::__ndk1::allocator<char> > > > >::__push_back_slow_path<std::__ndk1::pair<std::__ndk1::basic_string<char, std::__ndk1::char_traits<char>, std::__ndk1::allocator<char> >, std::__ndk1::basic_string<char, std::__ndk1::char_traits<char>, std::__ndk1::allocator<char> > > >(std::__ndk1::pair<std::__ndk1::basic_string<char, std::__ndk1::char_traits<char>, std::__ndk1::allocator<char> >, std::__ndk1::basic_string<char, std::__ndk1::char_traits<char>, std::__ndk1::allocator<char> > >&&)
PUBLIC 48818 0 std::__ndk1::vector<std::__ndk1::pair<std::__ndk1::basic_string<char, std::__ndk1::char_traits<char>, std::__ndk1::allocator<char> >, std::__ndk1::basic_string<char, std::__ndk1::char_traits<char>, std::__ndk1::allocator<char> > >, std::__ndk1::allocator<std::__ndk1::pair<std::__ndk1::basic_string<char, std::__ndk1::char_traits<char>, std::__ndk1::allocator<char> >, std::__ndk1::basic_string<char, std::__ndk1::char_traits<char>, std::__ndk1::allocator<char> > > > >::__throw_length_error[abi:ne180000]() const
PUBLIC 4882c 0 std::__ndk1::vector<std::__ndk1::pair<char, char>, std::__ndk1::allocator<std::__ndk1::pair<char, char> > >::__throw_length_error[abi:ne180000]() const
PUBLIC 48840 0 std::__ndk1::__begin_marked_subexpression<char>::~__begin_marked_subexpression()
PUBLIC 48888 0 std::__ndk1::__begin_marked_subexpression<char>::__exec(std::__ndk1::__state<char>&) const
PUBLIC 488b8 0 std::__ndk1::__end_marked_subexpression<char>::~__end_marked_subexpression()
PUBLIC 48900 0 std::__ndk1::__end_marked_subexpression<char>::__exec(std::__ndk1::__state<char>&) const
PUBLIC 48938 0 std::__ndk1::basic_regex<char, std::__ndk1::regex_traits<char> >::__push_loop(unsigned long, unsigned long, std::__ndk1::__owns_one_state<char>*, unsigned long, unsigned long, bool)
PUBLIC 48a78 0 std::__ndk1::__throw_regex_error[abi:ne180000]<(std::__ndk1::regex_constants::error_type)8>()
PUBLIC 48ac4 0 std::__ndk1::__throw_regex_error[abi:ne180000]<(std::__ndk1::regex_constants::error_type)7>()
PUBLIC 48b10 0 std::__ndk1::__loop<char>::~__loop()
PUBLIC 48b78 0 std::__ndk1::__loop<char>::__exec(std::__ndk1::__state<char>&) const
PUBLIC 48d3c 0 std::__ndk1::__loop<char>::__exec_split(bool, std::__ndk1::__state<char>&) const
PUBLIC 48e00 0 std::__ndk1::__owns_two_states<char>::~__owns_two_states()
PUBLIC 48e68 0 std::__ndk1::__repeat_one_loop<char>::~__repeat_one_loop()
PUBLIC 48e6c 0 std::__ndk1::__repeat_one_loop<char>::__exec(std::__ndk1::__state<char>&) const
PUBLIC 48e80 0 std::__ndk1::__owns_two_states<char>::~__owns_two_states()
PUBLIC 48eec 0 std::__ndk1::__alternate<char>::~__alternate()
PUBLIC 48f54 0 std::__ndk1::__alternate<char>::__exec(std::__ndk1::__state<char>&) const
PUBLIC 48f60 0 std::__ndk1::__alternate<char>::__exec_split(bool, std::__ndk1::__state<char>&) const
PUBLIC 48f84 0 std::__ndk1::__node<char>::~__node()
PUBLIC 48f88 0 std::__ndk1::__empty_non_own_state<char>::~__empty_non_own_state()
PUBLIC 48f8c 0 std::__ndk1::__empty_non_own_state<char>::__exec(std::__ndk1::__state<char>&) const
PUBLIC 48fa0 0 std::__ndk1::__throw_regex_error[abi:ne180000]<(std::__ndk1::regex_constants::error_type)15>()
PUBLIC 48fec 0 std::__ndk1::basic_regex<char, std::__ndk1::regex_traits<char> >::__parse_nondupl_RE<char const*>(char const*, char const*)
PUBLIC 492e8 0 std::__ndk1::basic_regex<char, std::__ndk1::regex_traits<char> >::__parse_RE_dupl_symbol<char const*>(char const*, char const*, std::__ndk1::__owns_one_state<char>*, unsigned int, unsigned int)
PUBLIC 49558 0 std::__ndk1::__owns_one_state<char>::~__owns_one_state()
PUBLIC 49584 0 std::__ndk1::__match_any<char>::~__match_any()
PUBLIC 495cc 0 std::__ndk1::__match_any<char>::__exec(std::__ndk1::__state<char>&) const
PUBLIC 4960c 0 std::__ndk1::basic_regex<char, std::__ndk1::regex_traits<char> >::__test_back_ref(char)
PUBLIC 4966c 0 std::__ndk1::basic_regex<char, std::__ndk1::regex_traits<char> >::__parse_ERE_expression<char const*>(char const*, char const*)
PUBLIC 499b8 0 geode::Mod::getSettingValue<bool>(std::__ndk1::basic_string_view<char, std::__ndk1::char_traits<char> >) const
PUBLIC 49aec 0 geode::Mod::getSettingValue<long>(std::__ndk1::basic_string_view<char, std::__ndk1::char_traits<char> >) const
PUBLIC 49c04 0 geode::Mod::getSettingValue<std::__ndk1::basic_string<char, std::__ndk1::char_traits<char>, std::__ndk1::allocator<char> > >(std::__ndk1::basic_string_view<char, std::__ndk1::char_traits<char> >) const
PUBLIC 49d8c 0 std::__ndk1::shared_ptr<geode::StringSettingV3>::~shared_ptr[abi:ne180000]()
PUBLIC 49ddc 0 std::__ndk1::uniform_int_distribution<int>::operator()<std::__ndk1::mersenne_twister_engine<unsigned long, (unsigned long)32, (unsigned long)624, (unsigned long)397, (unsigned long)31, (unsigned long)2567483615, (unsigned long)11, (unsigned long)4294967295, (unsigned long)7, (unsigned long)2636928640, (unsigned long)15, (unsigned long)4022730752, (unsigned long)18, (unsigned long)1812433253> >(std::__ndk1::mersenne_twister_engine<unsigned long, (unsigned long)32, (unsigned long)624, (unsigned long)397, (unsigned long)31, (unsigned long)2567483615, (unsigned long)11, (unsigned long)4294967295, (unsigned long)7, (unsigned long)2636928640, (unsigned long)15, (unsigned long)4022730752, (unsigned long)18, (unsigned long)1812433253>&, std::__ndk1::uniform_int_distribution<int>::param_type const&)
PUBLIC 49f1c 0 std::__ndk1::__independent_bits_engine<std::__ndk1::mersenne_twister_engine<unsigned long, (unsigned long)32, (unsigned long)624, (unsigned long)397, (unsigned long)31, (unsigned long)2567483615, (unsigned long)11, (unsigned long)4294967295, (unsigned long)7, (unsigned long)2636928640, (unsigned long)15, (unsigned long)4022730752, (unsigned long)18, (unsigned long)1812433253>, unsigned int>::__eval(std::__ndk1::integral_constant<bool, true>)
PUBLIC 4a11c 0 geode::impl::ResultData<matjson::Value&, std::__ndk1::basic_string<char, std::__ndk1::char_traits<char>, std::__ndk1::allocator<char> > >::~ResultData()
PUBLIC 4a190 0 std::__ndk1::__variant_detail::__visitation::__base::__dispatcher<(unsigned long)0>::__dispatch[abi:ne180000]<std::__ndk1::__variant_detail::__dtor<std::__ndk1::__variant_detail::__traits<std::__ndk1::reference_wrapper<matjson::Value>, std::__ndk1::basic_string<char, std::__ndk1::char_traits<char>, std::__ndk1::allocator<char> > >, (std::__ndk1::__variant_detail::_Trait)1>::__destroy[abi:ne180000]()::{lambda(auto:1&)#1}, std::__ndk1::__variant_detail::__base<(std::__ndk1::__variant_detail::__traits<std::__ndk1::reference_wrapper<matjson::Value>, std::__ndk1::basic_string<char, std::__ndk1::char_traits<char>, std::__ndk1::allocator<char> > >)1, matjson::Value, std::__ndk1::allocator<char> >&>(std::__ndk1::__variant_detail::__dtor<std::__ndk1::__variant_detail::__traits<std::__ndk1::reference_wrapper<matjson::Value>, std::__ndk1::basic_string<char, std::__ndk1::char_traits<char>, std::__ndk1::allocator<char> > >, (std::__ndk1::__variant_detail::_Trait)1>, std::__ndk1::__variant_detail::__base<(std::__ndk1::__variant_detail::__traits<std::__ndk1::reference_wrapper<matjson::Value>, std::__ndk1::basic_string<char, std::__ndk1::char_traits<char>, std::__ndk1::allocator<char> > >)1, matjson::Value, std::__ndk1::allocator<char> >&)
PUBLIC 4a194 0 std::__ndk1::__variant_detail::__visitation::__base::__dispatcher<(unsigned long)1>::__dispatch[abi:ne180000]<std::__ndk1::__variant_detail::__dtor<std::__ndk1::__variant_detail::__traits<std::__ndk1::reference_wrapper<matjson::Value>, std::__ndk1::basic_string<char, std::__ndk1::char_traits<char>, std::__ndk1::allocator<char> > >, (std::__ndk1::__variant_detail::_Trait)1>::__destroy[abi:ne180000]()::{lambda(auto:1&)#1}, std::__ndk1::__variant_detail::__base<(std::__ndk1::__variant_detail::__traits<std::__ndk1::reference_wrapper<matjson::Value>, std::__ndk1::basic_string<char, std::__ndk1::char_traits<char>, std::__ndk1::allocator<char> > >)1, matjson::Value, std::__ndk1::allocator<char> >&>(std::__ndk1::__variant_detail::__dtor<std::__ndk1::__variant_detail::__traits<std::__ndk1::reference_wrapper<matjson::Value>, std::__ndk1::basic_string<char, std::__ndk1::char_traits<char>, std::__ndk1::allocator<char> > >, (std::__ndk1::__variant_detail::_Trait)1>, std::__ndk1::__variant_detail::__base<(std::__ndk1::__variant_detail::__traits<std::__ndk1::reference_wrapper<matjson::Value>, std::__ndk1::basic_string<char, std::__ndk1::char_traits<char>, std::__ndk1::allocator<char> > >)1, matjson::Value, std::__ndk1::allocator<char> >&)
PUBLIC 4a1a8 0 std::__ndk1::__variant_detail::__visitation::__base::__dispatcher<(unsigned long)0>::__dispatch[abi:ne180000]<std::__ndk1::__variant_detail::__dtor<std::__ndk1::__variant_detail::__traits<bool, std::__ndk1::basic_string<char, std::__ndk1::char_traits<char>, std::__ndk1::allocator<char> > >, (std::__ndk1::__variant_detail::_Trait)1>::__destroy[abi:ne180000]()::{lambda(auto:1&)#1}, std::__ndk1::__variant_detail::__base<(std::__ndk1::__variant_detail::__traits<bool, std::__ndk1::basic_string<char, std::__ndk1::char_traits<char>, std::__ndk1::allocator<char> > >)1, bool, std::__ndk1::allocator<char> >&>(std::__ndk1::__variant_detail::__dtor<std::__ndk1::__variant_detail::__traits<bool, std::__ndk1::basic_string<char, std::__ndk1::char_traits<char>, std::__ndk1::allocator<char> > >, (std::__ndk1::__variant_detail::_Trait)1>, std::__ndk1::__variant_detail::__base<(std::__ndk1::__variant_detail::__traits<bool, std::__ndk1::basic_string<char, std::__ndk1::char_traits<char>, std::__ndk1::allocator<char> > >)1, bool, std::__ndk1::allocator<char> >&)
PUBLIC 4a1ac 0 std::__ndk1::__variant_detail::__visitation::__base::__dispatcher<(unsigned long)1>::__dispatch[abi:ne180000]<std::__ndk1::__variant_detail::__dtor<std::__ndk1::__variant_detail::__traits<bool, std::__ndk1::basic_string<char, std::__ndk1::char_traits<char>, std::__ndk1::allocator<char> > >, (std::__ndk1::__variant_detail::_Trait)1>::__destroy[abi:ne180000]()::{lambda(auto:1&)#1}, std::__ndk1::__variant_detail::__base<(std::__ndk1::__variant_detail::__traits<bool, std::__ndk1::basic_string<char, std::__ndk1::char_traits<char>, std::__ndk1::allocator<char> > >)1, bool, std::__ndk1::allocator<char> >&>(std::__ndk1::__variant_detail::__dtor<std::__ndk1::__variant_detail::__traits<bool, std::__ndk1::basic_string<char, std::__ndk1::char_traits<char>, std::__ndk1::allocator<char> > >, (std::__ndk1::__variant_detail::_Trait)1>, std::__ndk1::__variant_detail::__base<(std::__ndk1::__variant_detail::__traits<bool, std::__ndk1::basic_string<char, std::__ndk1::char_traits<char>, std::__ndk1::allocator<char> > >)1, bool, std::__ndk1::allocator<char> >&)
PUBLIC 4a1c0 0 _GLOBAL__sub_I_Utils.cpp
PUBLIC 4a29c 0 geodeExecFunction27<(anonymous namespace)::ExecFuncUnique27>(geode::ModStateEvent*)
PUBLIC 4a5ac 0 geode::EventListener<geode::SettingChangedFilterV3>::EventListener(std::__ndk1::function<void (std::__ndk1::shared_ptr<geode::SettingV3>)>, geode::SettingChangedFilterV3)
PUBLIC 4a6a4 0 geode::SettingChangedFilterV3::~SettingChangedFilterV3()
PUBLIC 4a6f4 0 std::__ndk1::__function::__func<geode::listenForSettingChangesV3<bool, geodeExecFunction27<(anonymous namespace)::ExecFuncUnique27>(geode::ModStateEvent*)::{lambda(bool)#1}>(std::__ndk1::basic_string_view<char, std::__ndk1::char_traits<char> >, geodeExecFunction27<(anonymous namespace)::ExecFuncUnique27>(geode::ModStateEvent*)::{lambda(bool)#1}&&, geode::Mod*)::{lambda(std::__ndk1::shared_ptr<geode::SettingV3>)#1}, std::__ndk1::allocator<geode::listenForSettingChangesV3<bool, geodeExecFunction27<(anonymous namespace)::ExecFuncUnique27>(geode::ModStateEvent*)::{lambda(bool)#1}>(std::__ndk1::basic_string_view<char, std::__ndk1::char_traits<char> >, geodeExecFunction27<(anonymous namespace)::ExecFuncUnique27>(geode::ModStateEvent*)::{lambda(bool)#1}&&, geode::Mod*)::{lambda(std::__ndk1::shared_ptr<geode::SettingV3>)#1}>, void (std::__ndk1::shared_ptr<geode::SettingV3>)>::~__func()
PUBLIC 4a6f8 0 std::__ndk1::__function::__func<geode::listenForSettingChangesV3<bool, geodeExecFunction27<(anonymous namespace)::ExecFuncUnique27>(geode::ModStateEvent*)::{lambda(bool)#1}>(std::__ndk1::basic_string_view<char, std::__ndk1::char_traits<char> >, geodeExecFunction27<(anonymous namespace)::ExecFuncUnique27>(geode::ModStateEvent*)::{lambda(bool)#1}&&, geode::Mod*)::{lambda(std::__ndk1::shared_ptr<geode::SettingV3>)#1}, std::__ndk1::allocator<geode::listenForSettingChangesV3<bool, geodeExecFunction27<(anonymous namespace)::ExecFuncUnique27>(geode::ModStateEvent*)::{lambda(bool)#1}>(std::__ndk1::basic_string_view<char, std::__ndk1::char_traits<char> >, geodeExecFunction27<(anonymous namespace)::ExecFuncUnique27>(geode::ModStateEvent*)::{lambda(bool)#1}&&, geode::Mod*)::{lambda(std::__ndk1::shared_ptr<geode::SettingV3>)#1}>, void (std::__ndk1::shared_ptr<geode::SettingV3>)>::__clone() const
PUBLIC 4a730 0 std::__ndk1::__function::__func<geode::listenForSettingChangesV3<bool, geodeExecFunction27<(anonymous namespace)::ExecFuncUnique27>(geode::ModStateEvent*)::{lambda(bool)#1}>(std::__ndk1::basic_string_view<char, std::__ndk1::char_traits<char> >, geodeExecFunction27<(anonymous namespace)::ExecFuncUnique27>(geode::ModStateEvent*)::{lambda(bool)#1}&&, geode::Mod*)::{lambda(std::__ndk1::shared_ptr<geode::SettingV3>)#1}, std::__ndk1::allocator<geode::listenForSettingChangesV3<bool, geodeExecFunction27<(anonymous namespace)::ExecFuncUnique27>(geode::ModStateEvent*)::{lambda(bool)#1}>(std::__ndk1::basic_string_view<char, std::__ndk1::char_traits<char> >, geodeExecFunction27<(anonymous namespace)::ExecFuncUnique27>(geode::ModStateEvent*)::{lambda(bool)#1}&&, geode::Mod*)::{lambda(std::__ndk1::shared_ptr<geode::SettingV3>)#1}>, void (std::__ndk1::shared_ptr<geode::SettingV3>)>::__clone(std::__ndk1::__function::__base<void (std::__ndk1::shared_ptr<geode::SettingV3>)>*) const
PUBLIC 4a748 0 std::__ndk1::__function::__func<geode::listenForSettingChangesV3<bool, geodeExecFunction27<(anonymous namespace)::ExecFuncUnique27>(geode::ModStateEvent*)::{lambda(bool)#1}>(std::__ndk1::basic_string_view<char, std::__ndk1::char_traits<char> >, geodeExecFunction27<(anonymous namespace)::ExecFuncUnique27>(geode::ModStateEvent*)::{lambda(bool)#1}&&, geode::Mod*)::{lambda(std::__ndk1::shared_ptr<geode::SettingV3>)#1}, std::__ndk1::allocator<geode::listenForSettingChangesV3<bool, geodeExecFunction27<(anonymous namespace)::ExecFuncUnique27>(geode::ModStateEvent*)::{lambda(bool)#1}>(std::__ndk1::basic_string_view<char, std::__ndk1::char_traits<char> >, geodeExecFunction27<(anonymous namespace)::ExecFuncUnique27>(geode::ModStateEvent*)::{lambda(bool)#1}&&, geode::Mod*)::{lambda(std::__ndk1::shared_ptr<geode::SettingV3>)#1}>, void (std::__ndk1::shared_ptr<geode::SettingV3>)>::destroy()
PUBLIC 4a74c 0 std::__ndk1::__function::__func<geode::listenForSettingChangesV3<bool, geodeExecFunction27<(anonymous namespace)::ExecFuncUnique27>(geode::ModStateEvent*)::{lambda(bool)#1}>(std::__ndk1::basic_string_view<char, std::__ndk1::char_traits<char> >, geodeExecFunction27<(anonymous namespace)::ExecFuncUnique27>(geode::ModStateEvent*)::{lambda(bool)#1}&&, geode::Mod*)::{lambda(std::__ndk1::shared_ptr<geode::SettingV3>)#1}, std::__ndk1::allocator<geode::listenForSettingChangesV3<bool, geodeExecFunction27<(anonymous namespace)::ExecFuncUnique27>(geode::ModStateEvent*)::{lambda(bool)#1}>(std::__ndk1::basic_string_view<char, std::__ndk1::char_traits<char> >, geodeExecFunction27<(anonymous namespace)::ExecFuncUnique27>(geode::ModStateEvent*)::{lambda(bool)#1}&&, geode::Mod*)::{lambda(std::__ndk1::shared_ptr<geode::SettingV3>)#1}>, void (std::__ndk1::shared_ptr<geode::SettingV3>)>::destroy_deallocate()
PUBLIC 4a750 0 std::__ndk1::__function::__func<geode::listenForSettingChangesV3<bool, geodeExecFunction27<(anonymous namespace)::ExecFuncUnique27>(geode::ModStateEvent*)::{lambda(bool)#1}>(std::__ndk1::basic_string_view<char, std::__ndk1::char_traits<char> >, geodeExecFunction27<(anonymous namespace)::ExecFuncUnique27>(geode::ModStateEvent*)::{lambda(bool)#1}&&, geode::Mod*)::{lambda(std::__ndk1::shared_ptr<geode::SettingV3>)#1}, std::__ndk1::allocator<geode::listenForSettingChangesV3<bool, geodeExecFunction27<(anonymous namespace)::ExecFuncUnique27>(geode::ModStateEvent*)::{lambda(bool)#1}>(std::__ndk1::basic_string_view<char, std::__ndk1::char_traits<char> >, geodeExecFunction27<(anonymous namespace)::ExecFuncUnique27>(geode::ModStateEvent*)::{lambda(bool)#1}&&, geode::Mod*)::{lambda(std::__ndk1::shared_ptr<geode::SettingV3>)#1}>, void (std::__ndk1::shared_ptr<geode::SettingV3>)>::operator()(std::__ndk1::shared_ptr<geode::SettingV3>&&)
PUBLIC 4a984 0 std::__ndk1::__function::__func<geode::listenForSettingChangesV3<bool, geodeExecFunction27<(anonymous namespace)::ExecFuncUnique27>(geode::ModStateEvent*)::{lambda(bool)#1}>(std::__ndk1::basic_string_view<char, std::__ndk1::char_traits<char> >, geodeExecFunction27<(anonymous namespace)::ExecFuncUnique27>(geode::ModStateEvent*)::{lambda(bool)#1}&&, geode::Mod*)::{lambda(std::__ndk1::shared_ptr<geode::SettingV3>)#1}, std::__ndk1::allocator<geode::listenForSettingChangesV3<bool, geodeExecFunction27<(anonymous namespace)::ExecFuncUnique27>(geode::ModStateEvent*)::{lambda(bool)#1}>(std::__ndk1::basic_string_view<char, std::__ndk1::char_traits<char> >, geodeExecFunction27<(anonymous namespace)::ExecFuncUnique27>(geode::ModStateEvent*)::{lambda(bool)#1}&&, geode::Mod*)::{lambda(std::__ndk1::shared_ptr<geode::SettingV3>)#1}>, void (std::__ndk1::shared_ptr<geode::SettingV3>)>::target(std::type_info const&) const
PUBLIC 4a9a0 0 std::__ndk1::__function::__func<geode::listenForSettingChangesV3<bool, geodeExecFunction27<(anonymous namespace)::ExecFuncUnique27>(geode::ModStateEvent*)::{lambda(bool)#1}>(std::__ndk1::basic_string_view<char, std::__ndk1::char_traits<char> >, geodeExecFunction27<(anonymous namespace)::ExecFuncUnique27>(geode::ModStateEvent*)::{lambda(bool)#1}&&, geode::Mod*)::{lambda(std::__ndk1::shared_ptr<geode::SettingV3>)#1}, std::__ndk1::allocator<geode::listenForSettingChangesV3<bool, geodeExecFunction27<(anonymous namespace)::ExecFuncUnique27>(geode::ModStateEvent*)::{lambda(bool)#1}>(std::__ndk1::basic_string_view<char, std::__ndk1::char_traits<char> >, geodeExecFunction27<(anonymous namespace)::ExecFuncUnique27>(geode::ModStateEvent*)::{lambda(bool)#1}&&, geode::Mod*)::{lambda(std::__ndk1::shared_ptr<geode::SettingV3>)#1}>, void (std::__ndk1::shared_ptr<geode::SettingV3>)>::target_type() const
PUBLIC 4a9ac 0 std::__ndk1::shared_ptr<geode::SettingV3>::~shared_ptr[abi:ne180000]()
PUBLIC 4a9fc 0 geode::EventListener<geode::SettingChangedFilterV3>::getPool() const
PUBLIC 4aa00 0 geode::EventListener<geode::SettingChangedFilterV3>::handle(geode::Event*)
PUBLIC 4ab74 0 geode::EventListener<geode::SettingChangedFilterV3>::~EventListener()
PUBLIC 4ac10 0 geode::EventListener<geode::SettingChangedFilterV3>::~EventListener()
PUBLIC 4acb4 0 std::__ndk1::__function::__base<void (std::__ndk1::shared_ptr<geode::SettingV3>)>::~__base()
PUBLIC 4acb8 0 std::__ndk1::__function::__func<geode::listenForSettingChangesV3<bool, geodeExecFunction27<(anonymous namespace)::ExecFuncUnique27>(geode::ModStateEvent*)::{lambda(bool)#2}>(std::__ndk1::basic_string_view<char, std::__ndk1::char_traits<char> >, geodeExecFunction27<(anonymous namespace)::ExecFuncUnique27>(geode::ModStateEvent*)::{lambda(bool)#2}&&, geode::Mod*)::{lambda(std::__ndk1::shared_ptr<geode::SettingV3>)#1}, std::__ndk1::allocator<geode::listenForSettingChangesV3<bool, geodeExecFunction27<(anonymous namespace)::ExecFuncUnique27>(geode::ModStateEvent*)::{lambda(bool)#2}>(std::__ndk1::basic_string_view<char, std::__ndk1::char_traits<char> >, geodeExecFunction27<(anonymous namespace)::ExecFuncUnique27>(geode::ModStateEvent*)::{lambda(bool)#2}&&, geode::Mod*)::{lambda(std::__ndk1::shared_ptr<geode::SettingV3>)#1}>, void (std::__ndk1::shared_ptr<geode::SettingV3>)>::~__func()
PUBLIC 4acbc 0 std::__ndk1::__function::__func<geode::listenForSettingChangesV3<bool, geodeExecFunction27<(anonymous namespace)::ExecFuncUnique27>(geode::ModStateEvent*)::{lambda(bool)#2}>(std::__ndk1::basic_string_view<char, std::__ndk1::char_traits<char> >, geodeExecFunction27<(anonymous namespace)::ExecFuncUnique27>(geode::ModStateEvent*)::{lambda(bool)#2}&&, geode::Mod*)::{lambda(std::__ndk1::shared_ptr<geode::SettingV3>)#1}, std::__ndk1::allocator<geode::listenForSettingChangesV3<bool, geodeExecFunction27<(anonymous namespace)::ExecFuncUnique27>(geode::ModStateEvent*)::{lambda(bool)#2}>(std::__ndk1::basic_string_view<char, std::__ndk1::char_traits<char> >, geodeExecFunction27<(anonymous namespace)::ExecFuncUnique27>(geode::ModStateEvent*)::{lambda(bool)#2}&&, geode::Mod*)::{lambda(std::__ndk1::shared_ptr<geode::SettingV3>)#1}>, void (std::__ndk1::shared_ptr<geode::SettingV3>)>::__clone() const
PUBLIC 4acf4 0 std::__ndk1::__function::__func<geode::listenForSettingChangesV3<bool, geodeExecFunction27<(anonymous namespace)::ExecFuncUnique27>(geode::ModStateEvent*)::{lambda(bool)#2}>(std::__ndk1::basic_string_view<char, std::__ndk1::char_traits<char> >, geodeExecFunction27<(anonymous namespace)::ExecFuncUnique27>(geode::ModStateEvent*)::{lambda(bool)#2}&&, geode::Mod*)::{lambda(std::__ndk1::shared_ptr<geode::SettingV3>)#1}, std::__ndk1::allocator<geode::listenForSettingChangesV3<bool, geodeExecFunction27<(anonymous namespace)::ExecFuncUnique27>(geode::ModStateEvent*)::{lambda(bool)#2}>(std::__ndk1::basic_string_view<char, std::__ndk1::char_traits<char> >, geodeExecFunction27<(anonymous namespace)::ExecFuncUnique27>(geode::ModStateEvent*)::{lambda(bool)#2}&&, geode::Mod*)::{lambda(std::__ndk1::shared_ptr<geode::SettingV3>)#1}>, void (std::__ndk1::shared_ptr<geode::SettingV3>)>::__clone(std::__ndk1::__function::__base<void (std::__ndk1::shared_ptr<geode::SettingV3>)>*) const
PUBLIC 4ad0c 0 std::__ndk1::__function::__func<geode::listenForSettingChangesV3<bool, geodeExecFunction27<(anonymous namespace)::ExecFuncUnique27>(geode::ModStateEvent*)::{lambda(bool)#2}>(std::__ndk1::basic_string_view<char, std::__ndk1::char_traits<char> >, geodeExecFunction27<(anonymous namespace)::ExecFuncUnique27>(geode::ModStateEvent*)::{lambda(bool)#2}&&, geode::Mod*)::{lambda(std::__ndk1::shared_ptr<geode::SettingV3>)#1}, std::__ndk1::allocator<geode::listenForSettingChangesV3<bool, geodeExecFunction27<(anonymous namespace)::ExecFuncUnique27>(geode::ModStateEvent*)::{lambda(bool)#2}>(std::__ndk1::basic_string_view<char, std::__ndk1::char_traits<char> >, geodeExecFunction27<(anonymous namespace)::ExecFuncUnique27>(geode::ModStateEvent*)::{lambda(bool)#2}&&, geode::Mod*)::{lambda(std::__ndk1::shared_ptr<geode::SettingV3>)#1}>, void (std::__ndk1::shared_ptr<geode::SettingV3>)>::destroy()
PUBLIC 4ad10 0 std::__ndk1::__function::__func<geode::listenForSettingChangesV3<bool, geodeExecFunction27<(anonymous namespace)::ExecFuncUnique27>(geode::ModStateEvent*)::{lambda(bool)#2}>(std::__ndk1::basic_string_view<char, std::__ndk1::char_traits<char> >, geodeExecFunction27<(anonymous namespace)::ExecFuncUnique27>(geode::ModStateEvent*)::{lambda(bool)#2}&&, geode::Mod*)::{lambda(std::__ndk1::shared_ptr<geode::SettingV3>)#1}, std::__ndk1::allocator<geode::listenForSettingChangesV3<bool, geodeExecFunction27<(anonymous namespace)::ExecFuncUnique27>(geode::ModStateEvent*)::{lambda(bool)#2}>(std::__ndk1::basic_string_view<char, std::__ndk1::char_traits<char> >, geodeExecFunction27<(anonymous namespace)::ExecFuncUnique27>(geode::ModStateEvent*)::{lambda(bool)#2}&&, geode::Mod*)::{lambda(std::__ndk1::shared_ptr<geode::SettingV3>)#1}>, void (std::__ndk1::shared_ptr<geode::SettingV3>)>::destroy_deallocate()
PUBLIC 4ad14 0 std::__ndk1::__function::__func<geode::listenForSettingChangesV3<bool, geodeExecFunction27<(anonymous namespace)::ExecFuncUnique27>(geode::ModStateEvent*)::{lambda(bool)#2}>(std::__ndk1::basic_string_view<char, std::__ndk1::char_traits<char> >, geodeExecFunction27<(anonymous namespace)::ExecFuncUnique27>(geode::ModStateEvent*)::{lambda(bool)#2}&&, geode::Mod*)::{lambda(std::__ndk1::shared_ptr<geode::SettingV3>)#1}, std::__ndk1::allocator<geode::listenForSettingChangesV3<bool, geodeExecFunction27<(anonymous namespace)::ExecFuncUnique27>(geode::ModStateEvent*)::{lambda(bool)#2}>(std::__ndk1::basic_string_view<char, std::__ndk1::char_traits<char> >, geodeExecFunction27<(anonymous namespace)::ExecFuncUnique27>(geode::ModStateEvent*)::{lambda(bool)#2}&&, geode::Mod*)::{lambda(std::__ndk1::shared_ptr<geode::SettingV3>)#1}>, void (std::__ndk1::shared_ptr<geode::SettingV3>)>::operator()(std::__ndk1::shared_ptr<geode::SettingV3>&&)
PUBLIC 4af88 0 std::__ndk1::__function::__func<geode::listenForSettingChangesV3<bool, geodeExecFunction27<(anonymous namespace)::ExecFuncUnique27>(geode::ModStateEvent*)::{lambda(bool)#2}>(std::__ndk1::basic_string_view<char, std::__ndk1::char_traits<char> >, geodeExecFunction27<(anonymous namespace)::ExecFuncUnique27>(geode::ModStateEvent*)::{lambda(bool)#2}&&, geode::Mod*)::{lambda(std::__ndk1::shared_ptr<geode::SettingV3>)#1}, std::__ndk1::allocator<geode::listenForSettingChangesV3<bool, geodeExecFunction27<(anonymous namespace)::ExecFuncUnique27>(geode::ModStateEvent*)::{lambda(bool)#2}>(std::__ndk1::basic_string_view<char, std::__ndk1::char_traits<char> >, geodeExecFunction27<(anonymous namespace)::ExecFuncUnique27>(geode::ModStateEvent*)::{lambda(bool)#2}&&, geode::Mod*)::{lambda(std::__ndk1::shared_ptr<geode::SettingV3>)#1}>, void (std::__ndk1::shared_ptr<geode::SettingV3>)>::target(std::type_info const&) const
PUBLIC 4afa4 0 std::__ndk1::__function::__func<geode::listenForSettingChangesV3<bool, geodeExecFunction27<(anonymous namespace)::ExecFuncUnique27>(geode::ModStateEvent*)::{lambda(bool)#2}>(std::__ndk1::basic_string_view<char, std::__ndk1::char_traits<char> >, geodeExecFunction27<(anonymous namespace)::ExecFuncUnique27>(geode::ModStateEvent*)::{lambda(bool)#2}&&, geode::Mod*)::{lambda(std::__ndk1::shared_ptr<geode::SettingV3>)#1}, std::__ndk1::allocator<geode::listenForSettingChangesV3<bool, geodeExecFunction27<(anonymous namespace)::ExecFuncUnique27>(geode::ModStateEvent*)::{lambda(bool)#2}>(std::__ndk1::basic_string_view<char, std::__ndk1::char_traits<char> >, geodeExecFunction27<(anonymous namespace)::ExecFuncUnique27>(geode::ModStateEvent*)::{lambda(bool)#2}&&, geode::Mod*)::{lambda(std::__ndk1::shared_ptr<geode::SettingV3>)#1}>, void (std::__ndk1::shared_ptr<geode::SettingV3>)>::target_type() const
PUBLIC 4afb0 0 geode::EventListener<geode::ModStateFilter>::getPool() const
PUBLIC 4afb4 0 geode::EventListener<geode::ModStateFilter>::handle(geode::Event*)
PUBLIC 4b128 0 geode::EventListener<geode::ModStateFilter>::~EventListener()
PUBLIC 4b184 0 geode::EventListener<geode::ModStateFilter>::~EventListener()
PUBLIC 4b1e8 0 std::__ndk1::__function::__base<void (geode::ModStateEvent*)>::~__base()
PUBLIC 4b1ec 0 std::__ndk1::__function::__func<void (*)(geode::ModStateEvent*), std::__ndk1::allocator<void (*)(geode::ModStateEvent*)>, void (geode::ModStateEvent*)>::~__func()
PUBLIC 4b1f0 0 std::__ndk1::__function::__func<void (*)(geode::ModStateEvent*), std::__ndk1::allocator<void (*)(geode::ModStateEvent*)>, void (geode::ModStateEvent*)>::__clone() const
PUBLIC 4b224 0 std::__ndk1::__function::__func<void (*)(geode::ModStateEvent*), std::__ndk1::allocator<void (*)(geode::ModStateEvent*)>, void (geode::ModStateEvent*)>::__clone(std::__ndk1::__function::__base<void (geode::ModStateEvent*)>*) const
PUBLIC 4b238 0 std::__ndk1::__function::__func<void (*)(geode::ModStateEvent*), std::__ndk1::allocator<void (*)(geode::ModStateEvent*)>, void (geode::ModStateEvent*)>::destroy()
PUBLIC 4b23c 0 std::__ndk1::__function::__func<void (*)(geode::ModStateEvent*), std::__ndk1::allocator<void (*)(geode::ModStateEvent*)>, void (geode::ModStateEvent*)>::destroy_deallocate()
PUBLIC 4b240 0 std::__ndk1::__function::__func<void (*)(geode::ModStateEvent*), std::__ndk1::allocator<void (*)(geode::ModStateEvent*)>, void (geode::ModStateEvent*)>::operator()(geode::ModStateEvent*&&)
PUBLIC 4b250 0 std::__ndk1::__function::__func<void (*)(geode::ModStateEvent*), std::__ndk1::allocator<void (*)(geode::ModStateEvent*)>, void (geode::ModStateEvent*)>::target(std::type_info const&) const
PUBLIC 4b26c 0 std::__ndk1::__function::__func<void (*)(geode::ModStateEvent*), std::__ndk1::allocator<void (*)(geode::ModStateEvent*)>, void (geode::ModStateEvent*)>::target_type() const
PUBLIC 4b278 0 _GLOBAL__sub_I_main.cpp
PUBLIC m 4b3a4 0 geodeImplicitEntry
PUBLIC 4b3e0 0 std::__ndk1::unordered_map<void*, bool, std::__ndk1::hash<void*>, std::__ndk1::equal_to<void*>, std::__ndk1::allocator<std::__ndk1::pair<void* const, bool> > >::~unordered_map[abi:ne180000]()
PUBLIC 4b42c 0 wrapFunction(unsigned long, tulip::hook::WrapperMetadata const&)
PUBLIC 4b560 0 geode::impl::ResultData<void*, std::__ndk1::basic_string<char, std::__ndk1::char_traits<char>, std::__ndk1::allocator<char> > >::unwrapErr() &
PUBLIC 4b5d8 0 geode::impl::ResultData<void*, std::__ndk1::basic_string<char, std::__ndk1::char_traits<char>, std::__ndk1::allocator<char> > >::~ResultData()
PUBLIC 4b64c 0 tulip::hook::WrapperMetadata::~WrapperMetadata()
PUBLIC 4b6b0 0 cocos2d::CCObject::~CCObject()
PUBLIC 4b6d4 0 cocos2d::CCNode::~CCNode()
PUBLIC 4b6f8 0 {virtual override thunk({offset(-320)}, cocos2d::CCLayer::~CCLayer())}
PUBLIC 4b700 0 cocos2d::CCLayer::~CCLayer()
PUBLIC 4b724 0 {virtual override thunk({offset(-320)}, cocos2d::CCLayer::~CCLayer())}
PUBLIC 4b74c 0 cocos2d::CCLayerRGBA::~CCLayerRGBA()
PUBLIC 4ba24 0 {virtual override thunk({offset(-320)}, cocos2d::CCLayerRGBA::~CCLayerRGBA())}
PUBLIC 4ba2c 0 cocos2d::CCLayerRGBA::~CCLayerRGBA()
PUBLIC 4ba50 0 {virtual override thunk({offset(-320)}, cocos2d::CCLayerRGBA::~CCLayerRGBA())}
PUBLIC 4ba78 0 cocos2d::CCLayerColor::CCLayerColor()
PUBLIC 4bcc8 0 {virtual override thunk({offset(-320)}, cocos2d::CCLayerColor::~CCLayerColor())}
PUBLIC 4bcd0 0 cocos2d::CCLayerColor::~CCLayerColor()
PUBLIC 4bcf4 0 {virtual override thunk({offset(-320)}, cocos2d::CCLayerColor::~CCLayerColor())}
PUBLIC 4bd1c 0 {virtual override thunk({offset(-320)}, FLAlertLayer::~FLAlertLayer())}
PUBLIC 4bd24 0 FLAlertLayer::~FLAlertLayer()
PUBLIC 4bd48 0 {virtual override thunk({offset(-320)}, FLAlertLayer::~FLAlertLayer())}
PUBLIC 4bd70 0 FLAlertLayer::create(FLAlertLayerProtocol*, char const*, gd::string, char const*, char const*, float)
PUBLIC 4bf28 0 tulip::hook::AbstractFunction::from<FLAlertLayer*, FLAlertLayerProtocol*, char const*, gd::string, char const*, char const*, float>(FLAlertLayer* (*)(FLAlertLayerProtocol*, char const*, gd::string, char const*, char const*, float))
PUBLIC 4c40c 0 FLAlertLayer::init(FLAlertLayerProtocol*, char const*, gd::string, char const*, char const*, float, bool, float, float)
PUBLIC 4c5f4 0 tulip::hook::AbstractFunction::from<bool, FLAlertLayer*, FLAlertLayerProtocol*, char const*, gd::string, char const*, char const*, float, bool, float, float>(bool (*)(FLAlertLayer*, FLAlertLayerProtocol*, char const*, gd::string, char const*, char const*, float, bool, float, float))
PUBLIC 4ceec 0 GameManager::~GameManager()
PUBLIC 4d400 0 GameManager::~GameManager()
PUBLIC 4d424 0 GJBaseGameLayer::~GJBaseGameLayer()
PUBLIC 4dc38 0 GJBaseGameLayer::GJBaseGameLayer(geode::CutoffConstructorType, unsigned long)
PUBLIC 4e3e8 0 {virtual override thunk({offset(-320)}, GJBaseGameLayer::~GJBaseGameLayer())}
PUBLIC 4e3f0 0 GJBaseGameLayer::~GJBaseGameLayer()
PUBLIC 4e414 0 {virtual override thunk({offset(-320)}, GJBaseGameLayer::~GJBaseGameLayer())}
PUBLIC 4e43c 0 GJBaseGameLayer::toggleGroupTriggered(int, bool, gd::vector<int> const&, int, int)
PUBLIC 4e5a8 0 tulip::hook::AbstractFunction::from<void, GJBaseGameLayer*, int, bool, gd::vector<int> const&, int, int>(void (*)(GJBaseGameLayer*, int, bool, gd::vector<int> const&, int, int))
PUBLIC 4ea54 0 {virtual override thunk({offset(-408)}, GJBaseGameLayer::toggleGroupTriggered(int, bool, gd::vector<int> const&, int, int))}
PUBLIC 4ea5c 0 GJBaseGameLayer::spawnGroup(int, bool, double, gd::vector<int> const&, int, int)
PUBLIC 4ebd8 0 tulip::hook::AbstractFunction::from<void, GJBaseGameLayer*, int, bool, double, gd::vector<int> const&, int, int>(void (*)(GJBaseGameLayer*, int, bool, double, gd::vector<int> const&, int, int))
PUBLIC 4f184 0 {virtual override thunk({offset(-408)}, GJBaseGameLayer::spawnGroup(int, bool, double, gd::vector<int> const&, int, int))}
PUBLIC 4f18c 0 GJBaseGameLayer::spawnObject(GameObject*, double, gd::vector<int> const&)
PUBLIC 4f2e8 0 tulip::hook::AbstractFunction::from<void, GJBaseGameLayer*, GameObject*, double, gd::vector<int> const&>(void (*)(GJBaseGameLayer*, GameObject*, double, gd::vector<int> const&))
PUBLIC 4f5bc 0 {virtual override thunk({offset(-408)}, GJBaseGameLayer::spawnObject(GameObject*, double, gd::vector<int> const&))}
PUBLIC 4f5c4 0 GJBaseGameLayer::activatePlatformerEndTrigger(EndTriggerGameObject*, gd::vector<int> const&)
PUBLIC 4f710 0 tulip::hook::AbstractFunction::from<void, GJBaseGameLayer*, EndTriggerGameObject*, gd::vector<int> const&>(void (*)(GJBaseGameLayer*, EndTriggerGameObject*, gd::vector<int> const&))
PUBLIC 4f818 0 GJBaseGameLayer::toggleGlitter(bool)
PUBLIC 4f81c 0 GJBaseGameLayer::timeForPos(cocos2d::CCPoint, int, int, bool, int)
PUBLIC 4f824 0 GJBaseGameLayer::posForTime(float)
PUBLIC 4f82c 0 GJBaseGameLayer::resetSPTriggered()
PUBLIC 4f830 0 GJBaseGameLayer::createCustomParticle(gd::string const&, cocos2d::ParticleStruct const&, int, bool)
PUBLIC 4f994 0 tulip::hook::AbstractFunction::from<TodoReturnPlaceholder, GJBaseGameLayer*, gd::string const&, cocos2d::ParticleStruct const&, int, bool>(TodoReturnPlaceholder (*)(GJBaseGameLayer*, gd::string const&, cocos2d::ParticleStruct const&, int, bool))
PUBLIC 4fd68 0 GJBaseGameLayer::claimCustomParticle(gd::string const&, cocos2d::ParticleStruct const&, int, int, int, bool)
PUBLIC 4fee4 0 tulip::hook::AbstractFunction::from<TodoReturnPlaceholder, GJBaseGameLayer*, gd::string const&, cocos2d::ParticleStruct const&, int, int, int, bool>(TodoReturnPlaceholder (*)(GJBaseGameLayer*, gd::string const&, cocos2d::ParticleStruct const&, int, int, int, bool))
PUBLIC 504b8 0 GJBaseGameLayer::unclaimCustomParticle(gd::string const&, cocos2d::CCParticleSystemQuad*)
PUBLIC 50604 0 tulip::hook::AbstractFunction::from<TodoReturnPlaceholder, GJBaseGameLayer*, gd::string const&, cocos2d::CCParticleSystemQuad*>(TodoReturnPlaceholder (*)(GJBaseGameLayer*, gd::string const&, cocos2d::CCParticleSystemQuad*))
PUBLIC 5070c 0 PlayLayer::~PlayLayer()
PUBLIC 50a10 0 {virtual override thunk({offset(-320)}, PlayLayer::~PlayLayer())}
PUBLIC 50a18 0 PlayLayer::~PlayLayer()
PUBLIC 50a3c 0 {virtual override thunk({offset(-320)}, PlayLayer::~PlayLayer())}
PUBLIC 50a64 0 PlayLayer::activatePlatformerEndTrigger(EndTriggerGameObject*, gd::vector<int> const&)
PUBLIC 50bb0 0 tulip::hook::AbstractFunction::from<void, PlayLayer*, EndTriggerGameObject*, gd::vector<int> const&>(void (*)(PlayLayer*, EndTriggerGameObject*, gd::vector<int> const&))
PUBLIC 50cb8 0 cocos2d::CCObject::update(float)
PUBLIC 50cbc 0 cocos2d::CCLayerColor::~CCLayerColor()
PUBLIC 50f78 0 FLAlertLayer::~FLAlertLayer()
PUBLIC 51234 0 cocos2d::CCNode::~CCNode()
PUBLIC 514ac 0 cocos2d::CCLayer::~CCLayer()
PUBLIC 51774 0 cocos2d::CCObject::~CCObject()
PUBLIC 51c40 0 _ZN5geode15UnwrapExceptionC2IRPvQsr4implE18IsStringStreamableIT_EEENS_4impl5OkTagEOS4_
PUBLIC 51d94 0 std::__ndk1::__variant_detail::__visitation::__base::__dispatcher<(unsigned long)0>::__dispatch[abi:ne180000]<std::__ndk1::__variant_detail::__dtor<std::__ndk1::__variant_detail::__traits<void*, std::__ndk1::basic_string<char, std::__ndk1::char_traits<char>, std::__ndk1::allocator<char> > >, (std::__ndk1::__variant_detail::_Trait)1>::__destroy[abi:ne180000]()::{lambda(auto:1&)#1}, std::__ndk1::__variant_detail::__base<(std::__ndk1::__variant_detail::__traits<void*, std::__ndk1::basic_string<char, std::__ndk1::char_traits<char>, std::__ndk1::allocator<char> > >)1, std::__ndk1::__variant_detail::__traits, std::__ndk1::allocator<char> >&>(std::__ndk1::__variant_detail::__dtor<std::__ndk1::__variant_detail::__traits<void*, std::__ndk1::basic_string<char, std::__ndk1::char_traits<char>, std::__ndk1::allocator<char> > >, (std::__ndk1::__variant_detail::_Trait)1>, std::__ndk1::__variant_detail::__base<(std::__ndk1::__variant_detail::__traits<void*, std::__ndk1::basic_string<char, std::__ndk1::char_traits<char>, std::__ndk1::allocator<char> > >)1, std::__ndk1::__variant_detail::__traits, std::__ndk1::allocator<char> >&)
PUBLIC 51d98 0 std::__ndk1::__variant_detail::__visitation::__base::__dispatcher<(unsigned long)1>::__dispatch[abi:ne180000]<std::__ndk1::__variant_detail::__dtor<std::__ndk1::__variant_detail::__traits<void*, std::__ndk1::basic_string<char, std::__ndk1::char_traits<char>, std::__ndk1::allocator<char> > >, (std::__ndk1::__variant_detail::_Trait)1>::__destroy[abi:ne180000]()::{lambda(auto:1&)#1}, std::__ndk1::__variant_detail::__base<(std::__ndk1::__variant_detail::__traits<void*, std::__ndk1::basic_string<char, std::__ndk1::char_traits<char>, std::__ndk1::allocator<char> > >)1, std::__ndk1::__variant_detail::__traits, std::__ndk1::allocator<char> >&>(std::__ndk1::__variant_detail::__dtor<std::__ndk1::__variant_detail::__traits<void*, std::__ndk1::basic_string<char, std::__ndk1::char_traits<char>, std::__ndk1::allocator<char> > >, (std::__ndk1::__variant_detail::_Trait)1>, std::__ndk1::__variant_detail::__base<(std::__ndk1::__variant_detail::__traits<void*, std::__ndk1::basic_string<char, std::__ndk1::char_traits<char>, std::__ndk1::allocator<char> > >)1, std::__ndk1::__variant_detail::__traits, std::__ndk1::allocator<char> >&)
PUBLIC 51dac 0 std::__ndk1::__hash_table<std::__ndk1::__hash_value_type<void*, bool>, std::__ndk1::__unordered_map_hasher<void*, std::__ndk1::__hash_value_type<void*, bool>, std::__ndk1::hash<void*>, std::__ndk1::equal_to<void*>, true>, std::__ndk1::__unordered_map_equal<void*, std::__ndk1::__hash_value_type<void*, bool>, std::__ndk1::equal_to<void*>, std::__ndk1::hash<void*>, true>, std::__ndk1::allocator<std::__ndk1::__hash_value_type<void*, bool> > >::__emplace_unique_key_args<void*, std::__ndk1::piecewise_construct_t const&, std::__ndk1::tuple<void* const&>, std::__ndk1::tuple<> >(void* const&, std::__ndk1::piecewise_construct_t const&, std::__ndk1::tuple<void* const&>, std::__ndk1::tuple<>)
PUBLIC 5228c 0 __udivti3
PUBLIC 52298 0 __udivmodti4
PUBLIC m 524e4 0 __eqtf2
PUBLIC 52584 0 __unordtf2
PUBLIC 525bc 0 fmt::v11::detail::write_loc(fmt::v11::basic_appender<char>, fmt::v11::loc_value, fmt::v11::format_specs const&, fmt::v11::detail::locale_ref)
PUBLIC 52850 0 fmt::v11::format_facet<std::__ndk1::locale>::~format_facet()
PUBLIC 528cc 0 fmt::v11::report_error(char const*)
PUBLIC 5291c 0 fmt::v11::format_error::runtime_error(char const*)
PUBLIC 52948 0 fmt::v11::format_facet<std::__ndk1::locale>::do_put(fmt::v11::basic_appender<char>, fmt::v11::loc_value, fmt::v11::format_specs const&) const
PUBLIC 53108 0 fmt::v11::detail::loc_writer<char>::~loc_writer()
PUBLIC 5316c 0 fmt::v11::vformat(fmt::v11::basic_string_view<char>, fmt::v11::basic_format_args<fmt::v11::context>)
PUBLIC 532a8 0 fmt::v11::detail::vformat_to<char>(fmt::v11::detail::buffer<char>&, fmt::v11::basic_string_view<char>, fmt::v11::detail::vformat_args<char>::type, fmt::v11::detail::locale_ref)
PUBLIC 53818 0 fmt::v11::detail::is_printable(unsigned int)
PUBLIC 53a40 0 fmt::v11::detail::dragonbox::to_decimal<float>(float)
PUBLIC 53d1c 0 fmt::v11::detail::dragonbox::to_decimal<double>(double)
PUBLIC 54258 0 fmt::v11::basic_memory_buffer<char, (unsigned long)500, std::__ndk1::allocator<char> >::grow(fmt::v11::detail::buffer<char>&, unsigned long)
PUBLIC 542d0 0 fmt::v11::format_facet<std::__ndk1::locale>::~format_facet()
PUBLIC 5435c 0 fmt::v11::format_error::~format_error()
PUBLIC 54380 0 fmt::v11::detail::copy_noinline<char, char const*, fmt::v11::basic_appender<char> >(char const*, char const*, fmt::v11::basic_appender<char>)
PUBLIC 544d0 0 fmt::v11::detail::default_arg_formatter<char>::operator()<bool>(bool)
PUBLIC 54538 0 fmt::v11::detail::default_arg_formatter<char>::operator()<char>(char)
PUBLIC 545c8 0 fmt::v11::detail::default_arg_formatter<char>::operator()<float>(float)
PUBLIC 546b4 0 fmt::v11::detail::default_arg_formatter<char>::operator()<double>(double)
PUBLIC 547a0 0 fmt::v11::detail::default_arg_formatter<char>::operator()<char const*>(char const*)
PUBLIC 547e8 0 fmt::v11::detail::default_arg_formatter<char>::operator()<void const*>(void const*)
PUBLIC 54880 0 _ZN3fmt3v116detail5writeIcNS0_14basic_appenderIcEEiTnNSt6__ndk19enable_ifIXaaaasr11is_integralIT1_EE5valuentsr3std7is_sameIS7_bEE5valuentsr3std7is_sameIS7_T_EE5valueEiE4typeELi0EEET0_SB_S7_
PUBLIC 54ae0 0 fmt::v11::detail::copy_noinline<char, char*, fmt::v11::basic_appender<char> >(char*, char*, fmt::v11::basic_appender<char>)
PUBLIC 54c30 0 _ZN3fmt3v116detail5writeIcNS0_14basic_appenderIcEEjTnNSt6__ndk19enable_ifIXaaaasr11is_integralIT1_EE5valuentsr3std7is_sameIS7_bEE5valuentsr3std7is_sameIS7_T_EE5valueEiE4typeELi0EEET0_SB_S7_
PUBLIC 54e10 0 _ZN3fmt3v116detail5writeIcNS0_14basic_appenderIcEExTnNSt6__ndk19enable_ifIXaaaasr11is_integralIT1_EE5valuentsr3std7is_sameIS7_bEE5valuentsr3std7is_sameIS7_T_EE5valueEiE4typeELi0EEET0_SB_S7_
PUBLIC 55094 0 _ZN3fmt3v116detail5writeIcNS0_14basic_appenderIcEEyTnNSt6__ndk19enable_ifIXaaaasr11is_integralIT1_EE5valuentsr3std7is_sameIS7_bEE5valuentsr3std7is_sameIS7_T_EE5valueEiE4typeELi0EEET0_SB_S7_
PUBLIC 5529c 0 _ZN3fmt3v116detail5writeIcNS0_14basic_appenderIcEEnTnNSt6__ndk19enable_ifIXaaaasr11is_integralIT1_EE5valuentsr3std7is_sameIS7_bEE5valuentsr3std7is_sameIS7_T_EE5valueEiE4typeELi0EEET0_SB_S7_
PUBLIC 555fc 0 _ZN3fmt3v116detail5writeIcNS0_14basic_appenderIcEEoTnNSt6__ndk19enable_ifIXaaaasr11is_integralIT1_EE5valuentsr3std7is_sameIS7_bEE5valuentsr3std7is_sameIS7_T_EE5valueEiE4typeELi0EEET0_SB_S7_
PUBLIC 55910 0 _ZN3fmt3v116detail5writeIcNS0_14basic_appenderIcEEbTnNSt6__ndk19enable_ifIXsr3std7is_sameIT1_bEE5valueEiE4typeELi0EEET0_SA_S7_RKNS0_12format_specsENS1_10locale_refE
PUBLIC 55bc4 0 fmt::v11::detail::write_int_noinline<char, fmt::v11::basic_appender<char>, unsigned int>(fmt::v11::basic_appender<char>, fmt::v11::detail::write_int_arg<unsigned int>, fmt::v11::format_specs const&, fmt::v11::detail::locale_ref)
PUBLIC 569a4 0 fmt::v11::detail::write_padded<char, (fmt::v11::align::type)1, fmt::v11::basic_appender<char>, fmt::v11::detail::write_char<char, fmt::v11::basic_appender<char> >(fmt::v11::basic_appender<char>, char, fmt::v11::format_specs const&)::{lambda(fmt::v11::basic_appender<char>&)#1}>(fmt::v11::basic_appender<char>, fmt::v11::format_specs const&, unsigned long, unsigned long, fmt::v11::detail::write_char<char, fmt::v11::basic_appender<char> >(fmt::v11::basic_appender<char>, char, fmt::v11::format_specs const&)::{lambda(fmt::v11::basic_appender<char>&)#1})
PUBLIC 56c08 0 fmt::v11::detail::write_padded<char, (fmt::v11::align::type)1, fmt::v11::basic_appender<char>, fmt::v11::detail::write_nonfinite<char, fmt::v11::basic_appender<char> >(fmt::v11::basic_appender<char>, bool, fmt::v11::format_specs, fmt::v11::sign::type)::{lambda(fmt::v11::basic_appender<char>&)#1}>(fmt::v11::basic_appender<char>, fmt::v11::format_specs const&, unsigned long, unsigned long, fmt::v11::detail::write_nonfinite<char, fmt::v11::basic_appender<char> >(fmt::v11::basic_appender<char>, bool, fmt::v11::format_specs, fmt::v11::sign::type)::{lambda(fmt::v11::basic_appender<char>&)#1})
PUBLIC 56e60 0 fmt::v11::detail::do_write_float<char, fmt::v11::basic_appender<char>, fmt::v11::detail::dragonbox::decimal_fp<float>, fmt::v11::detail::digit_grouping<char> >(fmt::v11::basic_appender<char>, fmt::v11::detail::dragonbox::decimal_fp<float> const&, fmt::v11::format_specs const&, fmt::v11::detail::float_specs, fmt::v11::detail::locale_ref)
PUBLIC 57ae4 0 fmt::v11::detail::do_write_float<char, fmt::v11::basic_appender<char>, fmt::v11::detail::dragonbox::decimal_fp<float>, fmt::v11::detail::digit_grouping<char> >(fmt::v11::basic_appender<char>, fmt::v11::detail::dragonbox::decimal_fp<float> const&, fmt::v11::format_specs const&, fmt::v11::detail::float_specs, fmt::v11::detail::locale_ref)::{lambda(fmt::v11::basic_appender<char>(fmt::v11::basic_appender<char>))#1}::operator() const
PUBLIC 57c38 0 fmt::v11::detail::digit_grouping<char>::digit_grouping(fmt::v11::detail::locale_ref, bool)
PUBLIC 57ea4 0 fmt::v11::detail::digit_grouping<char>::~digit_grouping()
PUBLIC 57ee8 0 fmt::v11::detail::write_exponent<char, fmt::v11::basic_appender<char> >(int, fmt::v11::basic_appender<char>)
PUBLIC 580b8 0 _ZN3fmt3v116detail17write_significandIcjTnNSt6__ndk19enable_ifIXsr3std11is_integralIT0_EE5valueEiE4typeELi0EEEPT_S9_S5_iiS8_
PUBLIC 58234 0 fmt::v11::detail::digit_grouping<char>::apply<fmt::v11::basic_appender<char>, char>(fmt::v11::basic_appender<char>, fmt::v11::basic_string_view<char>) const
PUBLIC 585ec 0 fmt::v11::basic_memory_buffer<int, (unsigned long)500, std::__ndk1::allocator<int> >::grow(fmt::v11::detail::buffer<int>&, unsigned long)
PUBLIC 5868c 0 fmt::v11::detail::do_write_float<char, fmt::v11::basic_appender<char>, fmt::v11::detail::dragonbox::decimal_fp<double>, fmt::v11::detail::digit_grouping<char> >(fmt::v11::basic_appender<char>, fmt::v11::detail::dragonbox::decimal_fp<double> const&, fmt::v11::format_specs const&, fmt::v11::detail::float_specs, fmt::v11::detail::locale_ref)
PUBLIC 5934c 0 fmt::v11::detail::do_write_float<char, fmt::v11::basic_appender<char>, fmt::v11::detail::dragonbox::decimal_fp<double>, fmt::v11::detail::digit_grouping<char> >(fmt::v11::basic_appender<char>, fmt::v11::detail::dragonbox::decimal_fp<double> const&, fmt::v11::format_specs const&, fmt::v11::detail::float_specs, fmt::v11::detail::locale_ref)::{lambda(fmt::v11::basic_appender<char>(fmt::v11::basic_appender<char>))#1}::operator() const
PUBLIC 594a4 0 _ZN3fmt3v116detail17write_significandIcmTnNSt6__ndk19enable_ifIXsr3std11is_integralIT0_EE5valueEiE4typeELi0EEEPT_S9_S5_iiS8_
PUBLIC 59634 0 fmt::v11::detail::write_float<char, fmt::v11::basic_appender<char>, long double>(fmt::v11::basic_appender<char>, long double, fmt::v11::format_specs, fmt::v11::detail::locale_ref)
PUBLIC 5a12c 0 fmt::v11::detail::write_padded<char, (fmt::v11::align::type)2, fmt::v11::basic_appender<char>, fmt::v11::detail::write_bytes<char, (fmt::v11::align::type)2, fmt::v11::basic_appender<char> >(fmt::v11::basic_appender<char>, fmt::v11::basic_string_view<char>, fmt::v11::format_specs const&)::{lambda(fmt::v11::basic_appender<char>&)#1}>(fmt::v11::basic_appender<char>, fmt::v11::format_specs const&, unsigned long, unsigned long, fmt::v11::detail::write_bytes<char, (fmt::v11::align::type)2, fmt::v11::basic_appender<char> >(fmt::v11::basic_appender<char>, fmt::v11::basic_string_view<char>, fmt::v11::format_specs const&)::{lambda(fmt::v11::basic_appender<char>&)#1})
PUBLIC 5a320 0 fmt::v11::detail::format_dragon(fmt::v11::detail::basic_fp<unsigned __int128>, unsigned int, int, fmt::v11::detail::buffer<char>&, int&)
PUBLIC 5b750 0 fmt::v11::detail::bigint::operator<<=(int)
PUBLIC 5b874 0 fmt::v11::detail::bigint::assign_pow10(int)
PUBLIC 5bfd0 0 fmt::v11::detail::bigint::divmod_assign(fmt::v11::detail::bigint const&)
PUBLIC 5c2f0 0 fmt::v11::basic_memory_buffer<unsigned int, (unsigned long)32, std::__ndk1::allocator<unsigned int> >::grow(fmt::v11::detail::buffer<unsigned int>&, unsigned long)
PUBLIC 5c390 0 fmt::v11::detail::do_write_float<char, fmt::v11::basic_appender<char>, fmt::v11::detail::big_decimal_fp, fmt::v11::detail::digit_grouping<char> >(fmt::v11::basic_appender<char>, fmt::v11::detail::big_decimal_fp const&, fmt::v11::format_specs const&, fmt::v11::detail::float_specs, fmt::v11::detail::locale_ref)
PUBLIC 5d270 0 fmt::v11::detail::do_write_float<char, fmt::v11::basic_appender<char>, fmt::v11::detail::big_decimal_fp, fmt::v11::detail::digit_grouping<char> >(fmt::v11::basic_appender<char>, fmt::v11::detail::big_decimal_fp const&, fmt::v11::format_specs const&, fmt::v11::detail::float_specs, fmt::v11::detail::locale_ref)::{lambda(fmt::v11::basic_appender<char>(fmt::v11::basic_appender<char>))#1}::operator() const
PUBLIC 5d3d0 0 fmt::v11::detail::write_padded<char, (fmt::v11::align::type)2, fmt::v11::basic_appender<char>, fmt::v11::detail::write_ptr<char, fmt::v11::basic_appender<char>, unsigned long>(fmt::v11::basic_appender<char>, unsigned long, fmt::v11::format_specs const*)::{lambda(fmt::v11::basic_appender<char>&)#1}>(fmt::v11::basic_appender<char>, fmt::v11::format_specs const&, unsigned long, unsigned long, fmt::v11::detail::write_ptr<char, fmt::v11::basic_appender<char>, unsigned long>(fmt::v11::basic_appender<char>, unsigned long, fmt::v11::format_specs const*)::{lambda(fmt::v11::basic_appender<char>&)#1})
PUBLIC 5d5e4 0 fmt::v11::detail::parse_replacement_field<char, fmt::v11::detail::vformat_to<char>(fmt::v11::detail::buffer<char>&, fmt::v11::basic_string_view<char>, fmt::v11::detail::vformat_args<char>::type, fmt::v11::detail::locale_ref)::format_handler&>(char const*, char const*, fmt::v11::detail::vformat_to<char>(fmt::v11::detail::buffer<char>&, fmt::v11::basic_string_view<char>, fmt::v11::detail::vformat_args<char>::type, fmt::v11::detail::locale_ref)::format_handler&)
PUBLIC 5ea98 0 fmt::v11::detail::write_int_noinline<char, fmt::v11::basic_appender<char>, unsigned long>(fmt::v11::basic_appender<char>, fmt::v11::detail::write_int_arg<unsigned long>, fmt::v11::format_specs const&, fmt::v11::detail::locale_ref)
PUBLIC 5f8f8 0 fmt::v11::detail::write_int_noinline<char, fmt::v11::basic_appender<char>, unsigned __int128>(fmt::v11::basic_appender<char>, fmt::v11::detail::write_int_arg<unsigned __int128>, fmt::v11::format_specs const&, fmt::v11::detail::locale_ref)
PUBLIC 60988 0 _ZN3fmt3v116detail15format_hexfloatIdTnNSt6__ndk19enable_ifIXntsr16is_double_doubleIT_EE5valueEiE4typeELi0EEEvS5_NS0_12format_specsERNS1_6bufferIcEE
PUBLIC 60ea8 0 fmt::v11::detail::format_float<double>(double, int, fmt::v11::detail::float_specs, fmt::v11::detail::buffer<char>&)
PUBLIC 61848 0 fmt::v11::detail::write_int<fmt::v11::basic_appender<char>, unsigned long, char>(fmt::v11::basic_appender<char>, unsigned long, unsigned int, fmt::v11::format_specs const&, fmt::v11::detail::digit_grouping<char> const&)
PUBLIC 61dc4 0 fmt::v11::detail::write_int<fmt::v11::basic_appender<char>, unsigned __int128, char>(fmt::v11::basic_appender<char>, unsigned __int128, unsigned int, fmt::v11::format_specs const&, fmt::v11::detail::digit_grouping<char> const&)
PUBLIC 62440 0 <.plt ELF section in raydeeux.toktikmode.android64.so>
STACK CFI INIT 282f0 10 .cfa: sp 0 +
STACK CFI INIT 28300 8 .cfa: sp 0 +
STACK CFI INIT 28308 8 .cfa: sp 0 +
STACK CFI INIT 28310 14 .cfa: sp 0 +
STACK CFI INIT 28324 1c .cfa: sp 0 +
STACK CFI INIT 28340 10 .cfa: sp 0 +
STACK CFI INIT 28350 30 .cfa: sp 0 +
STACK CFI INIT 28380 98 .cfa: sp 0 +
STACK CFI INIT 28418 59c .cfa: sp 0 +
STACK CFI INIT 289b4 8c .cfa: sp 0 +
STACK CFI INIT 28a40 30 .cfa: sp 0 +
STACK CFI INIT 29b94 4 .cfa: sp 0 +
STACK CFI INIT 29b98 8 .cfa: sp 0 +
STACK CFI INIT 29ba0 8 .cfa: sp 0 +
STACK CFI INIT 29ba8 24 .cfa: sp 0 +
STACK CFI 29bac .cfa: sp 32 +
STACK CFI 29bb4 .cfa: x29 32 + x19: .cfa -16 + ^ .ra: .cfa -24 + ^ x29: .cfa -32 + ^
STACK CFI 29bc0 .cfa: sp 32 +
STACK CFI 29bc8 .cfa: sp 0 +
STACK CFI INIT 29bcc 4 .cfa: sp 0 +
STACK CFI INIT 29bd0 8 .cfa: sp 0 +
STACK CFI INIT 29bd8 8 .cfa: sp 0 +
STACK CFI INIT 29be0 28 .cfa: sp 0 +
STACK CFI 29be4 .cfa: sp 32 +
STACK CFI 29bec .cfa: x29 32 + x19: .cfa -16 + ^ .ra: .cfa -24 + ^ x29: .cfa -32 + ^
STACK CFI 29bfc .cfa: sp 32 +
STACK CFI 29c04 .cfa: sp 0 +
STACK CFI INIT 29c08 4 .cfa: sp 0 +
STACK CFI INIT 29c0c 4 .cfa: sp 0 +
STACK CFI INIT 29c10 4 .cfa: sp 0 +
STACK CFI INIT 29c14 4 .cfa: sp 0 +
STACK CFI INIT 29c18 4 .cfa: sp 0 +
STACK CFI INIT 29c1c 8 .cfa: sp 0 +
STACK CFI INIT 29c24 60 .cfa: sp 0 +
STACK CFI 29c34 .cfa: sp 32 +
STACK CFI 29c3c .cfa: x29 32 + x19: .cfa -16 + ^ .ra: .cfa -24 + ^ x29: .cfa -32 + ^
STACK CFI 29c74 .cfa: sp 32 +
STACK CFI 29c7c .cfa: sp 0 +
STACK CFI INIT 29c84 1c .cfa: sp 0 +
STACK CFI INIT 2a09c 14 .cfa: sp 0 +
STACK CFI 2a0a0 .cfa: sp 16 +
STACK CFI 2a0a4 .cfa: x29 16 + .ra: .cfa -8 + ^ x29: .cfa -16 + ^
STACK CFI INIT 2a0b0 10 .cfa: sp 0 +
STACK CFI 2a0b4 .cfa: sp 16 +
STACK CFI 2a0b8 .cfa: x29 16 + .ra: .cfa -8 + ^ x29: .cfa -16 + ^
STACK CFI INIT 2a110 30 .cfa: sp 0 +
STACK CFI 2a114 .cfa: sp 32 +
STACK CFI 2a11c .cfa: x29 32 + x19: .cfa -16 + ^ .ra: .cfa -24 + ^ x29: .cfa -32 + ^
STACK CFI 2a134 .cfa: sp 32 +
STACK CFI 2a13c .cfa: sp 0 +
STACK CFI INIT 2a140 34 .cfa: sp 0 +
STACK CFI 2a144 .cfa: sp 32 +
STACK CFI 2a14c .cfa: x29 32 + x19: .cfa -16 + ^ .ra: .cfa -24 + ^ x29: .cfa -32 + ^
STACK CFI INIT 2a3a0 14 .cfa: sp 0 +
STACK CFI 2a3a4 .cfa: sp 16 +
STACK CFI 2a3a8 .cfa: x29 16 + .ra: .cfa -8 + ^ x29: .cfa -16 + ^
STACK CFI INIT 2a3b4 14 .cfa: sp 0 +
STACK CFI 2a3b8 .cfa: sp 16 +
STACK CFI 2a3bc .cfa: x29 16 + .ra: .cfa -8 + ^ x29: .cfa -16 + ^
STACK CFI INIT 2a418 30 .cfa: sp 0 +
STACK CFI 2a41c .cfa: sp 32 +
STACK CFI 2a424 .cfa: x29 32 + x19: .cfa -16 + ^ .ra: .cfa -24 + ^ x29: .cfa -32 + ^
STACK CFI 2a43c .cfa: sp 32 +
STACK CFI 2a444 .cfa: sp 0 +
STACK CFI INIT 2a448 14 .cfa: sp 0 +
STACK CFI 2a44c .cfa: sp 16 +
STACK CFI 2a450 .cfa: x29 16 + .ra: .cfa -8 + ^ x29: .cfa -16 + ^
STACK CFI INIT 2a6e8 104 .cfa: sp 0 +
STACK CFI 2a6ec .cfa: sp 64 +
STACK CFI 2a6fc .cfa: x29 64 + x19: .cfa -8 + ^ x20: .cfa -16 + ^ x21: .cfa -24 + ^ x22: .cfa -32 + ^ x23: .cfa -48 + ^ .ra: .cfa -56 + ^ x29: .cfa -64 + ^
STACK CFI 2a758 .cfa: sp 64 +
STACK CFI 2a768 .cfa: sp 0 +
STACK CFI 2a76c .cfa: x29 64 +
STACK CFI 2a788 .cfa: sp 64 +
STACK CFI 2a798 .cfa: sp 0 +
STACK CFI 2a79c .cfa: x29 64 +
STACK CFI 2a7d8 .cfa: sp 64 +
STACK CFI 2a7e8 .cfa: sp 0 +
STACK CFI INIT 2a7ec 4 .cfa: sp 0 +
STACK CFI INIT 2a7f0 4 .cfa: sp 0 +
STACK CFI INIT 2a7f4 38 .cfa: sp 0 +
STACK CFI 2a7f8 .cfa: sp 32 +
STACK CFI 2a800 .cfa: x29 32 + x19: .cfa -16 + ^ .ra: .cfa -24 + ^ x29: .cfa -32 + ^
STACK CFI 2a820 .cfa: sp 32 +
STACK CFI 2a828 .cfa: sp 0 +
STACK CFI INIT 2a82c 18 .cfa: sp 0 +
STACK CFI INIT 2a844 4 .cfa: sp 0 +
STACK CFI INIT 2a848 4 .cfa: sp 0 +
STACK CFI INIT 2a84c 10 .cfa: sp 0 +
STACK CFI INIT 2a85c 1c .cfa: sp 0 +
STACK CFI INIT 2a878 c .cfa: sp 0 +
STACK CFI INIT 2a884 14 .cfa: sp 0 +
STACK CFI 2a888 .cfa: sp 16 +
STACK CFI 2a88c .cfa: x29 16 + .ra: .cfa -8 + ^ x29: .cfa -16 + ^
STACK CFI INIT 2b5e0 50 .cfa: sp 0 +
STACK CFI 2b5e4 .cfa: sp 32 +
STACK CFI 2b5ec .cfa: x29 32 + x19: .cfa -16 + ^ .ra: .cfa -24 + ^ x29: .cfa -32 + ^
STACK CFI 2b604 .cfa: sp 32 +
STACK CFI 2b60c .cfa: sp 0 +
STACK CFI 2b610 .cfa: x29 32 +
STACK CFI 2b624 .cfa: sp 32 +
STACK CFI 2b62c .cfa: sp 0 +
STACK CFI INIT 2b6a4 7c .cfa: sp 0 +
STACK CFI 2b6a8 .cfa: sp 48 +
STACK CFI 2b6b4 .cfa: x29 48 + x19: .cfa -8 + ^ x20: .cfa -16 + ^ x21: .cfa -32 + ^ .ra: .cfa -40 + ^ x29: .cfa -48 + ^
STACK CFI 2b700 .cfa: sp 48 +
STACK CFI 2b70c .cfa: sp 0 +
STACK CFI 2b710 .cfa: sp 48 +
STACK CFI 2b71c .cfa: sp 0 +
STACK CFI INIT 2b720 4 .cfa: sp 0 +
STACK CFI INIT 2ba3c 120 .cfa: sp 0 +
STACK CFI 2ba40 .cfa: sp 64 +
STACK CFI 2ba50 .cfa: x29 64 + x19: .cfa -8 + ^ x20: .cfa -16 + ^ x21: .cfa -24 + ^ x22: .cfa -32 + ^ x23: .cfa -40 + ^ x24: .cfa -48 + ^ .ra: .cfa -56 + ^ x29: .cfa -64 + ^
STACK CFI 2bb48 .cfa: sp 64 +
STACK CFI 2bb58 .cfa: sp 0 +
STACK CFI INIT 2bd50 7c .cfa: sp 0 +
STACK CFI 2bd54 .cfa: sp 32 +
STACK CFI 2bd5c .cfa: x29 32 + x19: .cfa -8 + ^ x20: .cfa -16 + ^ .ra: .cfa -24 + ^ x29: .cfa -32 + ^
STACK CFI 2bdb4 .cfa: sp 32 +
STACK CFI 2bdbc .cfa: sp 0 +
STACK CFI 2bdc0 .cfa: sp 32 +
STACK CFI 2bdc8 .cfa: sp 0 +
STACK CFI INIT 2bdcc 80 .cfa: sp 0 +
STACK CFI 2bdd0 .cfa: sp 48 +
STACK CFI 2bddc .cfa: x29 48 + x19: .cfa -8 + ^ x20: .cfa -16 + ^ x21: .cfa -24 + ^ x22: .cfa -32 + ^ .ra: .cfa -40 + ^ x29: .cfa -48 + ^
STACK CFI 2bdf4 .cfa: sp 48 +
STACK CFI 2be00 .cfa: sp 0 +
STACK CFI 2be04 .cfa: x29 48 +
STACK CFI 2be34 .cfa: sp 48 +
STACK CFI 2be40 .cfa: sp 0 +
STACK CFI 2be44 .cfa: x29 48 +
STACK CFI INIT 2be4c 1b0 .cfa: sp 0 +
STACK CFI INIT 2c150 34 .cfa: sp 0 +
STACK CFI 2c154 .cfa: sp 16 +
STACK CFI 2c158 .cfa: x29 16 + .ra: .cfa -8 + ^ x29: .cfa -16 + ^
STACK CFI INIT 2c2b0 80 .cfa: sp 0 +
STACK CFI 2c2b4 .cfa: sp 48 +
STACK CFI 2c2c0 .cfa: x29 48 + x19: .cfa -8 + ^ x20: .cfa -16 + ^ x21: .cfa -32 + ^ .ra: .cfa -40 + ^ x29: .cfa -48 + ^
STACK CFI 2c320 .cfa: sp 48 +
STACK CFI 2c32c .cfa: sp 0 +
STACK CFI INIT 2c330 24 .cfa: sp 0 +
STACK CFI 2c334 .cfa: sp 32 +
STACK CFI 2c33c .cfa: x29 32 + x19: .cfa -16 + ^ .ra: .cfa -24 + ^ x29: .cfa -32 + ^
STACK CFI 2c348 .cfa: sp 32 +
STACK CFI 2c350 .cfa: sp 0 +
STACK CFI INIT 2c84c 148 .cfa: sp 0 +
STACK CFI 2c850 .cfa: sp 48 +
STACK CFI 2c85c .cfa: x29 48 + x19: .cfa -8 + ^ x20: .cfa -16 + ^ x21: .cfa -32 + ^ .ra: .cfa -40 + ^ x29: .cfa -48 + ^
STACK CFI 2c984 .cfa: sp 48 +
STACK CFI 2c990 .cfa: sp 0 +
STACK CFI INIT 2cafc 4 .cfa: sp 0 +
STACK CFI INIT 2cb00 14 .cfa: sp 0 +
STACK CFI INIT 2cd3c 68 .cfa: sp 0 +
STACK CFI 2cd40 .cfa: sp 32 +
STACK CFI 2cd48 .cfa: x29 32 + x19: .cfa -8 + ^ x20: .cfa -16 + ^ .ra: .cfa -24 + ^ x29: .cfa -32 + ^
STACK CFI 2cd60 .cfa: sp 32 +
STACK CFI 2cd68 .cfa: sp 0 +
STACK CFI 2cd6c .cfa: x29 32 +
STACK CFI 2cd98 .cfa: sp 32 +
STACK CFI 2cda0 .cfa: sp 0 +
STACK CFI INIT 2cda4 14 .cfa: sp 0 +
STACK CFI 2cda8 .cfa: sp 16 +
STACK CFI 2cdac .cfa: x29 16 + .ra: .cfa -8 + ^ x29: .cfa -16 + ^
STACK CFI INIT 2cdb8 4 .cfa: sp 0 +
STACK CFI INIT 2cdbc 14 .cfa: sp 0 +
STACK CFI INIT 2cdd0 d4 .cfa: sp 0 +
STACK CFI 2cdd4 .cfa: sp 48 +
STACK CFI 2cde0 .cfa: x29 48 + x19: .cfa -8 + ^ x20: .cfa -16 + ^ x21: .cfa -32 + ^ .ra: .cfa -40 + ^ x29: .cfa -48 + ^
STACK CFI 2ce70 .cfa: sp 48 +
STACK CFI 2ce7c .cfa: sp 0 +
STACK CFI 2ce80 .cfa: x29 48 +
STACK CFI INIT 2cea4 3c8 .cfa: sp 0 +
STACK CFI INIT 2d26c 8c .cfa: sp 0 +
STACK CFI 2d274 .cfa: sp 32 +
STACK CFI 2d27c .cfa: x29 32 + x19: .cfa -8 + ^ x20: .cfa -16 + ^ .ra: .cfa -24 + ^ x29: .cfa -32 + ^
STACK CFI 2d2c4 .cfa: sp 32 +
STACK CFI 2d2cc .cfa: sp 0 +
STACK CFI 2d2d4 .cfa: x29 32 +
STACK CFI INIT 2d42c 4 .cfa: sp 0 +
STACK CFI INIT 2d5b4 d0 .cfa: sp 0 +
STACK CFI 2d5b8 .cfa: sp 48 +
STACK CFI 2d5c4 .cfa: x29 48 + x19: .cfa -8 + ^ x20: .cfa -16 + ^ x21: .cfa -32 + ^ .ra: .cfa -40 + ^ x29: .cfa -48 + ^
STACK CFI 2d600 .cfa: sp 48 +
STACK CFI 2d60c .cfa: sp 0 +
STACK CFI 2d610 .cfa: x29 48 +
STACK CFI 2d674 .cfa: sp 48 +
STACK CFI 2d680 .cfa: sp 0 +
STACK CFI INIT 2d684 38 .cfa: sp 0 +
STACK CFI 2d688 .cfa: sp 32 +
STACK CFI 2d690 .cfa: x29 32 + x19: .cfa -16 + ^ .ra: .cfa -24 + ^ x29: .cfa -32 + ^
STACK CFI 2d6b0 .cfa: sp 32 +
STACK CFI 2d6b8 .cfa: sp 0 +
STACK CFI INIT 2d6bc 4 .cfa: sp 0 +
STACK CFI INIT 2d7ac 94 .cfa: sp 0 +
STACK CFI 2d7b0 .cfa: sp 32 +
STACK CFI 2d7b8 .cfa: x29 32 + x19: .cfa -16 + ^ .ra: .cfa -24 + ^ x29: .cfa -32 + ^
STACK CFI 2d834 .cfa: sp 32 +
STACK CFI 2d83c .cfa: sp 0 +
STACK CFI INIT 2e564 78 .cfa: sp 0 +
STACK CFI 2e568 .cfa: sp 48 +
STACK CFI 2e574 .cfa: x29 48 + x19: .cfa -8 + ^ x20: .cfa -16 + ^ x21: .cfa -32 + ^ .ra: .cfa -40 + ^ x29: .cfa -48 + ^
STACK CFI 2e5bc .cfa: sp 48 +
STACK CFI 2e5c8 .cfa: sp 0 +
STACK CFI 2e5cc .cfa: sp 48 +
STACK CFI 2e5d8 .cfa: sp 0 +
STACK CFI INIT 2e5dc 78 .cfa: sp 0 +
STACK CFI 2e5e0 .cfa: sp 48 +
STACK CFI 2e5ec .cfa: x29 48 + x19: .cfa -8 + ^ x20: .cfa -16 + ^ x21: .cfa -32 + ^ .ra: .cfa -40 + ^ x29: .cfa -48 + ^
STACK CFI 2e634 .cfa: sp 48 +
STACK CFI 2e640 .cfa: sp 0 +
STACK CFI 2e644 .cfa: sp 48 +
STACK CFI 2e650 .cfa: sp 0 +
STACK CFI INIT 2e654 84 .cfa: sp 0 +
STACK CFI 2e658 .cfa: sp 48 +
STACK CFI 2e664 .cfa: x29 48 + x19: .cfa -8 + ^ x20: .cfa -16 + ^ x21: .cfa -24 + ^ x22: .cfa -32 + ^ .ra: .cfa -40 + ^ x29: .cfa -48 + ^
STACK CFI 2e6b8 .cfa: sp 48 +
STACK CFI 2e6c4 .cfa: sp 0 +
STACK CFI 2e6c8 .cfa: sp 48 +
STACK CFI 2e6d4 .cfa: sp 0 +
STACK CFI INIT 2e6f4 8c .cfa: sp 0 +
STACK CFI 2e6f8 .cfa: sp 48 +
STACK CFI 2e704 .cfa: x29 48 + x19: .cfa -8 + ^ x20: .cfa -16 + ^ x21: .cfa -24 + ^ x22: .cfa -32 + ^ .ra: .cfa -40 + ^ x29: .cfa -48 + ^
STACK CFI 2e73c .cfa: sp 48 +
STACK CFI 2e748 .cfa: sp 0 +
STACK CFI 2e74c .cfa: x29 48 +
STACK CFI 2e770 .cfa: sp 48 +
STACK CFI 2e77c .cfa: sp 0 +
STACK CFI INIT 2e780 78 .cfa: sp 0 +
STACK CFI 2e784 .cfa: sp 48 +
STACK CFI 2e790 .cfa: x29 48 + x19: .cfa -8 + ^ x20: .cfa -16 + ^ x21: .cfa -32 + ^ .ra: .cfa -40 + ^ x29: .cfa -48 + ^
STACK CFI 2e7d8 .cfa: sp 48 +
STACK CFI 2e7e4 .cfa: sp 0 +
STACK CFI 2e7e8 .cfa: sp 48 +
STACK CFI 2e7f4 .cfa: sp 0 +
STACK CFI INIT 2e7f8 8c .cfa: sp 0 +
STACK CFI 2e7fc .cfa: sp 48 +
STACK CFI 2e808 .cfa: x29 48 + x19: .cfa -8 + ^ x20: .cfa -16 + ^ x21: .cfa -24 + ^ x22: .cfa -32 + ^ .ra: .cfa -40 + ^ x29: .cfa -48 + ^
STACK CFI 2e840 .cfa: sp 48 +
STACK CFI 2e84c .cfa: sp 0 +
STACK CFI 2e850 .cfa: x29 48 +
STACK CFI 2e874 .cfa: sp 48 +
STACK CFI 2e880 .cfa: sp 0 +
STACK CFI INIT 2e884 78 .cfa: sp 0 +
STACK CFI 2e888 .cfa: sp 48 +
STACK CFI 2e894 .cfa: x29 48 + x19: .cfa -8 + ^ x20: .cfa -16 + ^ x21: .cfa -32 + ^ .ra: .cfa -40 + ^ x29: .cfa -48 + ^
STACK CFI 2e8dc .cfa: sp 48 +
STACK CFI 2e8e8 .cfa: sp 0 +
STACK CFI 2e8ec .cfa: sp 48 +
STACK CFI 2e8f8 .cfa: sp 0 +
STACK CFI INIT 2e8fc 104 .cfa: sp 0 +
STACK CFI 2e900 .cfa: sp 64 +
STACK CFI 2e910 .cfa: x29 64 + x19: .cfa -8 + ^ x20: .cfa -16 + ^ x21: .cfa -24 + ^ x22: .cfa -32 + ^ x23: .cfa -48 + ^ .ra: .cfa -56 + ^ x29: .cfa -64 + ^
STACK CFI 2e9d8 .cfa: sp 64 +
STACK CFI 2e9e8 .cfa: sp 0 +
STACK CFI 2e9ec .cfa: sp 64 +
STACK CFI 2e9fc .cfa: sp 0 +
STACK CFI INIT 2edf8 78 .cfa: sp 0 +
STACK CFI 2edfc .cfa: sp 48 +
STACK CFI 2ee08 .cfa: x29 48 + x19: .cfa -8 + ^ x20: .cfa -16 + ^ x21: .cfa -32 + ^ .ra: .cfa -40 + ^ x29: .cfa -48 + ^
STACK CFI 2ee50 .cfa: sp 48 +
STACK CFI 2ee5c .cfa: sp 0 +
STACK CFI 2ee60 .cfa: sp 48 +
STACK CFI 2ee6c .cfa: sp 0 +
STACK CFI INIT 2ee8c 90 .cfa: sp 0 +
STACK CFI 2ee90 .cfa: sp 48 +
STACK CFI 2ee9c .cfa: x29 48 + x19: .cfa -8 + ^ x20: .cfa -16 + ^ x21: .cfa -24 + ^ x22: .cfa -32 + ^ .ra: .cfa -40 + ^ x29: .cfa -48 + ^
STACK CFI 2eed4 .cfa: sp 48 +
STACK CFI 2eee0 .cfa: sp 0 +
STACK CFI 2eee4 .cfa: x29 48 +
STACK CFI 2ef0c .cfa: sp 48 +
STACK CFI 2ef18 .cfa: sp 0 +
STACK CFI INIT 2efb4 3c .cfa: sp 0 +
STACK CFI 2efb8 .cfa: sp 32 +
STACK CFI 2efc0 .cfa: x29 32 + x19: .cfa -16 + ^ .ra: .cfa -24 + ^ x29: .cfa -32 + ^
STACK CFI 2efd8 .cfa: sp 32 +
STACK CFI 2efe0 .cfa: sp 0 +
STACK CFI 2efe4 .cfa: sp 32 +
STACK CFI 2efec .cfa: sp 0 +
STACK CFI INIT 2f028 78 .cfa: sp 0 +
STACK CFI 2f02c .cfa: sp 48 +
STACK CFI 2f038 .cfa: x29 48 + x19: .cfa -8 + ^ x20: .cfa -16 + ^ x21: .cfa -32 + ^ .ra: .cfa -40 + ^ x29: .cfa -48 + ^
STACK CFI 2f080 .cfa: sp 48 +
STACK CFI 2f08c .cfa: sp 0 +
STACK CFI 2f090 .cfa: sp 48 +
STACK CFI 2f09c .cfa: sp 0 +
STACK CFI INIT 2f0a0 78 .cfa: sp 0 +
STACK CFI 2f0a4 .cfa: sp 48 +
STACK CFI 2f0b0 .cfa: x29 48 + x19: .cfa -8 + ^ x20: .cfa -16 + ^ x21: .cfa -32 + ^ .ra: .cfa -40 + ^ x29: .cfa -48 + ^
STACK CFI 2f0f8 .cfa: sp 48 +
STACK CFI 2f104 .cfa: sp 0 +
STACK CFI 2f108 .cfa: sp 48 +
STACK CFI 2f114 .cfa: sp 0 +
STACK CFI INIT 2f118 78 .cfa: sp 0 +
STACK CFI 2f11c .cfa: sp 48 +
STACK CFI 2f128 .cfa: x29 48 + x19: .cfa -8 + ^ x20: .cfa -16 + ^ x21: .cfa -32 + ^ .ra: .cfa -40 + ^ x29: .cfa -48 + ^
STACK CFI 2f170 .cfa: sp 48 +
STACK CFI 2f17c .cfa: sp 0 +
STACK CFI 2f180 .cfa: sp 48 +
STACK CFI 2f18c .cfa: sp 0 +
STACK CFI INIT 2f190 78 .cfa: sp 0 +
STACK CFI 2f194 .cfa: sp 48 +
STACK CFI 2f1a0 .cfa: x29 48 + x19: .cfa -8 + ^ x20: .cfa -16 + ^ x21: .cfa -32 + ^ .ra: .cfa -40 + ^ x29: .cfa -48 + ^
STACK CFI 2f1e8 .cfa: sp 48 +
STACK CFI 2f1f4 .cfa: sp 0 +
STACK CFI 2f1f8 .cfa: sp 48 +
STACK CFI 2f204 .cfa: sp 0 +
STACK CFI INIT 2f3d4 2b8 .cfa: sp 0 +
STACK CFI 2f3d8 .cfa: sp 80 +
STACK CFI 2f3ec .cfa: x29 80 + x19: .cfa -8 + ^ x20: .cfa -16 + ^ x21: .cfa -24 + ^ x22: .cfa -32 + ^ x23: .cfa -40 + ^ x24: .cfa -48 + ^ x25: .cfa -64 + ^ .ra: .cfa -72 + ^ x29: .cfa -80 + ^
STACK CFI 2f598 .cfa: sp 80 +
STACK CFI 2f5ac .cfa: sp 0 +
STACK CFI 2f5b0 .cfa: x29 80 +
STACK CFI 2f674 .cfa: sp 80 +
STACK CFI 2f688 .cfa: sp 0 +
STACK CFI INIT 2f68c 80 .cfa: sp 0 +
STACK CFI 2f690 .cfa: sp 48 +
STACK CFI 2f69c .cfa: x29 48 + x19: .cfa -8 + ^ x20: .cfa -16 + ^ x21: .cfa -32 + ^ .ra: .cfa -40 + ^ x29: .cfa -48 + ^
STACK CFI 2f6ec .cfa: sp 48 +
STACK CFI 2f6f8 .cfa: sp 0 +
STACK CFI 2f6fc .cfa: sp 48 +
STACK CFI 2f708 .cfa: sp 0 +
STACK CFI INIT 2f70c 80 .cfa: sp 0 +
STACK CFI 2f710 .cfa: sp 48 +
STACK CFI 2f71c .cfa: x29 48 + x19: .cfa -8 + ^ x20: .cfa -16 + ^ x21: .cfa -32 + ^ .ra: .cfa -40 + ^ x29: .cfa -48 + ^
STACK CFI 2f76c .cfa: sp 48 +
STACK CFI 2f778 .cfa: sp 0 +
STACK CFI 2f77c .cfa: sp 48 +
STACK CFI 2f788 .cfa: sp 0 +
STACK CFI INIT 2f92c 2b8 .cfa: sp 0 +
STACK CFI INIT 2fbe4 1bc .cfa: sp 0 +
STACK CFI 2fbe8 .cfa: sp 64 +
STACK CFI 2fbf8 .cfa: x29 64 + x19: .cfa -8 + ^ x20: .cfa -16 + ^ x21: .cfa -24 + ^ x22: .cfa -32 + ^ x23: .cfa -48 + ^ .ra: .cfa -56 + ^ x29: .cfa -64 + ^
STACK CFI 2fcfc .cfa: sp 64 +
STACK CFI 2fd0c .cfa: sp 0 +
STACK CFI 2fd10 .cfa: x29 64 +
STACK CFI INIT 2fda0 80 .cfa: sp 0 +
STACK CFI 2fda4 .cfa: sp 48 +
STACK CFI 2fdb0 .cfa: x29 48 + x19: .cfa -8 + ^ x20: .cfa -16 + ^ x21: .cfa -32 + ^ .ra: .cfa -40 + ^ x29: .cfa -48 + ^
STACK CFI 2fe00 .cfa: sp 48 +
STACK CFI 2fe0c .cfa: sp 0 +
STACK CFI 2fe10 .cfa: sp 48 +
STACK CFI 2fe1c .cfa: sp 0 +
STACK CFI INIT 2fe20 98 .cfa: sp 0 +
STACK CFI 2fe28 .cfa: sp 48 +
STACK CFI 2fe34 .cfa: x29 48 + x19: .cfa -8 + ^ x20: .cfa -16 + ^ x21: .cfa -32 + ^ .ra: .cfa -40 + ^ x29: .cfa -48 + ^
STACK CFI 2fe84 .cfa: sp 0 + x19: x19 x20: x20 x21: x21 .ra: x30 x29: x29
STACK CFI 2fe88 .cfa: x29 48 + x19: .cfa -8 + ^ x20: .cfa -16 + ^ x21: .cfa -32 + ^ .ra: .cfa -40 + ^ x29: .cfa -48 + ^
STACK CFI 2fea8 .cfa: sp 48 +
STACK CFI 2feb4 .cfa: sp 0 +
STACK CFI INIT 2feb8 54 .cfa: sp 0 +
STACK CFI 2fec0 .cfa: sp 32 +
STACK CFI 2fec8 .cfa: x29 32 + x19: .cfa -8 + ^ x20: .cfa -16 + ^ .ra: .cfa -24 + ^ x29: .cfa -32 + ^
STACK CFI 2ff00 .cfa: sp 32 +
STACK CFI 2ff08 .cfa: sp 0 +
STACK CFI INIT 2ff0c 54 .cfa: sp 0 +
STACK CFI 2ff14 .cfa: sp 32 +
STACK CFI 2ff1c .cfa: x29 32 + x19: .cfa -8 + ^ x20: .cfa -16 + ^ .ra: .cfa -24 + ^ x29: .cfa -32 + ^
STACK CFI 2ff54 .cfa: sp 32 +
STACK CFI 2ff5c .cfa: sp 0 +
STACK CFI INIT 30008 54 .cfa: sp 0 +
STACK CFI 30010 .cfa: sp 32 +
STACK CFI 30018 .cfa: x29 32 + x19: .cfa -8 + ^ x20: .cfa -16 + ^ .ra: .cfa -24 + ^ x29: .cfa -32 + ^
STACK CFI 30050 .cfa: sp 32 +
STACK CFI 30058 .cfa: sp 0 +
STACK CFI INIT 3005c a8 .cfa: sp 0 +
STACK CFI 30064 .cfa: sp 48 +
STACK CFI 30070 .cfa: x29 48 + x19: .cfa -8 + ^ x20: .cfa -16 + ^ x21: .cfa -24 + ^ x22: .cfa -32 + ^ .ra: .cfa -40 + ^ x29: .cfa -48 + ^
STACK CFI 300f4 .cfa: sp 48 +
STACK CFI 30100 .cfa: sp 0 +
STACK CFI INIT 30104 54 .cfa: sp 0 +
STACK CFI 3010c .cfa: sp 32 +
STACK CFI 30114 .cfa: x29 32 + x19: .cfa -8 + ^ x20: .cfa -16 + ^ .ra: .cfa -24 + ^ x29: .cfa -32 + ^
STACK CFI 3014c .cfa: sp 32 +
STACK CFI 30154 .cfa: sp 0 +
STACK CFI INIT 30158 50 .cfa: sp 0 +
STACK CFI 3015c .cfa: sp 32 +
STACK CFI 30164 .cfa: x29 32 + x19: .cfa -16 + ^ .ra: .cfa -24 + ^ x29: .cfa -32 + ^
STACK CFI 3017c .cfa: sp 32 +
STACK CFI 30184 .cfa: sp 0 +
STACK CFI 30188 .cfa: x29 32 +
STACK CFI 3019c .cfa: sp 32 +
STACK CFI 301a4 .cfa: sp 0 +
STACK CFI INIT 301a8 64 .cfa: sp 0 +
STACK CFI 301ac .cfa: sp 32 +
STACK CFI 301b4 .cfa: x29 32 + x19: .cfa -16 + ^ .ra: .cfa -24 + ^ x29: .cfa -32 + ^
STACK CFI 301e0 .cfa: sp 32 +
STACK CFI 301e8 .cfa: sp 0 +
STACK CFI 301ec .cfa: x29 32 +
STACK CFI 30200 .cfa: sp 32 +
STACK CFI 30208 .cfa: sp 0 +
STACK CFI INIT 32518 e8 .cfa: sp 0 +
STACK CFI 3251c .cfa: sp 64 +
STACK CFI 3252c .cfa: x29 48 + x19: .cfa -8 + ^ x20: .cfa -16 + ^ x21: .cfa -24 + ^ x22: .cfa -32 + ^ .ra: .cfa -40 + ^ x29: .cfa -48 + ^ v8: .cfa -64 + ^
STACK CFI 3255c .cfa: sp 64 +
STACK CFI 3256c .cfa: sp 0 +
STACK CFI 32570 .cfa: x29 48 +
STACK CFI 325ec .cfa: sp 64 +
STACK CFI 325fc .cfa: sp 0 +
STACK CFI INIT 32600 144 .cfa: sp 0 +
STACK CFI 32604 .cfa: sp 48 +
STACK CFI 32610 .cfa: x29 48 + x19: .cfa -8 + ^ x20: .cfa -16 + ^ x21: .cfa -32 + ^ .ra: .cfa -40 + ^ x29: .cfa -48 + ^
STACK CFI 32724 .cfa: sp 48 +
STACK CFI 32730 .cfa: sp 0 +
STACK CFI 32734 .cfa: sp 48 +
STACK CFI 32740 .cfa: sp 0 +
STACK CFI INIT 3317c 1b0 .cfa: sp 0 +
STACK CFI 33180 .cfa: sp 112 +
STACK CFI 33198 .cfa: x29 80 + x19: .cfa -8 + ^ x20: .cfa -16 + ^ x21: .cfa -24 + ^ x22: .cfa -32 + ^ x23: .cfa -40 + ^ x24: .cfa -48 + ^ x25: .cfa -64 + ^ .ra: .cfa -72 + ^ x29: .cfa -80 + ^
STACK CFI 332f4 .cfa: sp 112 +
STACK CFI 3330c .cfa: sp 0 +
STACK CFI 33310 .cfa: x29 80 +
STACK CFI INIT 3332c 128 .cfa: sp 0 +
STACK CFI 33330 .cfa: sp 80 +
STACK CFI 33344 .cfa: x29 80 + x19: .cfa -8 + ^ x20: .cfa -16 + ^ x21: .cfa -24 + ^ x22: .cfa -32 + ^ x23: .cfa -40 + ^ x24: .cfa -48 + ^ x25: .cfa -64 + ^ .ra: .cfa -72 + ^ x29: .cfa -80 + ^
STACK CFI 33434 .cfa: sp 80 +
STACK CFI 33448 .cfa: sp 0 +
STACK CFI 3344c .cfa: x29 80 +
STACK CFI INIT 33454 d0 .cfa: sp 0 +
STACK CFI 33458 .cfa: sp 128 +
STACK CFI 33468 .cfa: x29 48 + x19: .cfa -8 + ^ x20: .cfa -16 + ^ x21: .cfa -24 + ^ x22: .cfa -32 + ^ .ra: .cfa -40 + ^ x29: .cfa -48 + ^
STACK CFI 3350c .cfa: sp 128 +
STACK CFI 3351c .cfa: sp 0 +
STACK CFI 33520 .cfa: x29 48 +
STACK CFI INIT 33684 4b4 .cfa: sp 0 +
STACK CFI 33688 .cfa: sp 96 +
STACK CFI 336a0 .cfa: x29 96 + x19: .cfa -8 + ^ x20: .cfa -16 + ^ x21: .cfa -24 + ^ x22: .cfa -32 + ^ x23: .cfa -40 + ^ x24: .cfa -48 + ^ x25: .cfa -56 + ^ x26: .cfa -64 + ^ x27: .cfa -72 + ^ x28: .cfa -80 + ^ .ra: .cfa -88 + ^ x29: .cfa -96 + ^
STACK CFI 33ae8 .cfa: sp 96 +
STACK CFI 33b00 .cfa: sp 0 +
STACK CFI 33b04 .cfa: x29 96 +
STACK CFI INIT 33b38 1a4 .cfa: sp 0 +
STACK CFI 33b3c .cfa: sp 64 +
STACK CFI 33b48 .cfa: x29 32 + x19: .cfa -8 + ^ x20: .cfa -16 + ^ .ra: .cfa -24 + ^ x29: .cfa -32 + ^
STACK CFI 33c74 .cfa: sp 64 +
STACK CFI 33c80 .cfa: sp 0 +
STACK CFI 33c84 .cfa: x29 32 +
STACK CFI INIT 33cdc 194 .cfa: sp 0 +
STACK CFI 33ce0 .cfa: sp 16 +
STACK CFI 33ce4 .cfa: x29 16 + .ra: .cfa -8 + ^ x29: .cfa -16 + ^
STACK CFI 33d7c .cfa: sp 16 +
STACK CFI 33d80 .cfa: sp 0 +
STACK CFI 33d84 .cfa: x29 16 +
STACK CFI 33e50 .cfa: sp 16 +
STACK CFI 33e54 .cfa: sp 0 +
STACK CFI 33e58 .cfa: x29 16 +
STACK CFI INIT 33e70 114 .cfa: sp 0 +
STACK CFI 33e74 .cfa: sp 128 +
STACK CFI 33e84 .cfa: x29 48 + x19: .cfa -8 + ^ x20: .cfa -16 + ^ x21: .cfa -32 + ^ .ra: .cfa -40 + ^ x29: .cfa -48 + ^
STACK CFI 33f50 .cfa: sp 128 +
STACK CFI 33f60 .cfa: sp 0 +
STACK CFI 33f64 .cfa: x29 48 +
STACK CFI INIT 33f84 114 .cfa: sp 0 +
STACK CFI 33f88 .cfa: sp 128 +
STACK CFI 33f98 .cfa: x29 48 + x19: .cfa -8 + ^ x20: .cfa -16 + ^ x21: .cfa -32 + ^ .ra: .cfa -40 + ^ x29: .cfa -48 + ^
STACK CFI 34064 .cfa: sp 128 +
STACK CFI 34074 .cfa: sp 0 +
STACK CFI 34078 .cfa: x29 48 +
STACK CFI INIT 34098 27c .cfa: sp 0 +
STACK CFI 3409c .cfa: sp 176 +
STACK CFI 340b8 .cfa: x29 96 + x19: .cfa -8 + ^ x20: .cfa -16 + ^ x21: .cfa -24 + ^ x22: .cfa -32 + ^ x23: .cfa -40 + ^ x24: .cfa -48 + ^ x25: .cfa -56 + ^ x26: .cfa -64 + ^ x27: .cfa -72 + ^ x28: .cfa -80 + ^ .ra: .cfa -88 + ^ x29: .cfa -96 + ^
STACK CFI 342f0 .cfa: sp 176 +
STACK CFI 3430c .cfa: sp 0 +
STACK CFI 34310 .cfa: x29 96 +
STACK CFI INIT 34314 520 .cfa: sp 0 +
STACK CFI 34318 .cfa: sp 176 +
STACK CFI 34334 .cfa: x29 96 + x19: .cfa -8 + ^ x20: .cfa -16 + ^ x21: .cfa -24 + ^ x22: .cfa -32 + ^ x23: .cfa -40 + ^ x24: .cfa -48 + ^ x25: .cfa -56 + ^ x26: .cfa -64 + ^ x27: .cfa -72 + ^ x28: .cfa -80 + ^ .ra: .cfa -88 + ^ x29: .cfa -96 + ^
STACK CFI 34810 .cfa: sp 176 +
STACK CFI 3482c .cfa: sp 0 +
STACK CFI 34830 .cfa: x29 96 +
STACK CFI INIT 34834 20c .cfa: sp 0 +
STACK CFI 34838 .cfa: sp 80 +
STACK CFI 3484c .cfa: x29 80 + x19: .cfa -8 + ^ x20: .cfa -16 + ^ x21: .cfa -24 + ^ x22: .cfa -32 + ^ x23: .cfa -40 + ^ x24: .cfa -48 + ^ x25: .cfa -64 + ^ .ra: .cfa -72 + ^ x29: .cfa -80 + ^
STACK CFI 348dc .cfa: sp 80 +
STACK CFI 348f0 .cfa: sp 0 +
STACK CFI 348f4 .cfa: x29 80 +
STACK CFI 34900 .cfa: sp 80 +
STACK CFI 34914 .cfa: sp 0 +
STACK CFI 34918 .cfa: x29 80 +
STACK CFI INIT 34a40 428 .cfa: sp 0 +
STACK CFI 34a44 .cfa: sp 128 +
STACK CFI 34a60 .cfa: x29 96 + x19: .cfa -8 + ^ x20: .cfa -16 + ^ x21: .cfa -24 + ^ x22: .cfa -32 + ^ x23: .cfa -40 + ^ x24: .cfa -48 + ^ x25: .cfa -56 + ^ x26: .cfa -64 + ^ x27: .cfa -72 + ^ x28: .cfa -80 + ^ .ra: .cfa -88 + ^ x29: .cfa -96 + ^
STACK CFI 34e44 .cfa: sp 128 +
STACK CFI 34e60 .cfa: sp 0 +
STACK CFI 34e64 .cfa: x29 96 +
STACK CFI INIT 34e68 194 .cfa: sp 0 +
STACK CFI 34e6c .cfa: sp 32 +
STACK CFI 34e74 .cfa: x29 16 + .ra: .cfa -8 + ^ x29: .cfa -16 + ^
STACK CFI 34eb8 .cfa: sp 32 +
STACK CFI 34ec0 .cfa: sp 0 +
STACK CFI 34ec4 .cfa: x29 16 +
STACK CFI INIT 34ffc 1b8 .cfa: sp 0 +
STACK CFI INIT 351b4 1d0 .cfa: sp 0 +
STACK CFI 351b8 .cfa: sp 80 +
STACK CFI 351cc .cfa: x29 80 + x19: .cfa -8 + ^ x20: .cfa -16 + ^ x21: .cfa -24 + ^ x22: .cfa -32 + ^ x23: .cfa -40 + ^ x24: .cfa -48 + ^ x25: .cfa -64 + ^ .ra: .cfa -72 + ^ x29: .cfa -80 + ^
STACK CFI 3536c .cfa: sp 80 +
STACK CFI 35380 .cfa: sp 0 +
STACK CFI INIT 35384 67c .cfa: sp 0 +
STACK CFI 35388 .cfa: sp 176 +
STACK CFI 353a4 .cfa: x29 96 + x19: .cfa -8 + ^ x20: .cfa -16 + ^ x21: .cfa -24 + ^ x22: .cfa -32 + ^ x23: .cfa -40 + ^ x24: .cfa -48 + ^ x25: .cfa -56 + ^ x26: .cfa -64 + ^ x27: .cfa -72 + ^ x28: .cfa -80 + ^ .ra: .cfa -88 + ^ x29: .cfa -96 + ^
STACK CFI 359dc .cfa: sp 176 +
STACK CFI 359f8 .cfa: sp 0 +
STACK CFI 359fc .cfa: x29 96 +
STACK CFI INIT 35a00 1e4 .cfa: sp 0 +
STACK CFI 35a04 .cfa: sp 32 +
STACK CFI 35a0c .cfa: x29 32 + x19: .cfa -8 + ^ x20: .cfa -16 + ^ .ra: .cfa -24 + ^ x29: .cfa -32 + ^
STACK CFI 35afc .cfa: sp 32 +
STACK CFI 35b04 .cfa: sp 0 +
STACK CFI 35b08 .cfa: x29 32 +
STACK CFI 35b7c .cfa: sp 32 +
STACK CFI 35b84 .cfa: sp 0 +
STACK CFI 35b88 .cfa: x29 32 +
STACK CFI 35b98 .cfa: sp 32 +
STACK CFI 35ba0 .cfa: sp 0 +
STACK CFI 35ba4 .cfa: x29 32 +
STACK CFI 35bb4 .cfa: sp 32 +
STACK CFI 35bbc .cfa: sp 0 +
STACK CFI 35bc0 .cfa: x29 32 +
STACK CFI INIT 35be4 178 .cfa: sp 0 +
STACK CFI 35be8 .cfa: sp 80 +
STACK CFI 35bfc .cfa: x29 64 + x19: .cfa -8 + ^ x20: .cfa -16 + ^ x21: .cfa -24 + ^ x22: .cfa -32 + ^ x23: .cfa -40 + ^ x24: .cfa -48 + ^ .ra: .cfa -56 + ^ x29: .cfa -64 + ^
STACK CFI 35d40 .cfa: sp 80 +
STACK CFI 35d54 .cfa: sp 0 +
STACK CFI 35d58 .cfa: x29 64 +
STACK CFI INIT 35d5c 178 .cfa: sp 0 +
STACK CFI 35d60 .cfa: sp 80 +
STACK CFI 35d74 .cfa: x29 64 + x19: .cfa -8 + ^ x20: .cfa -16 + ^ x21: .cfa -24 + ^ x22: .cfa -32 + ^ x23: .cfa -40 + ^ x24: .cfa -48 + ^ .ra: .cfa -56 + ^ x29: .cfa -64 + ^
STACK CFI 35eb8 .cfa: sp 80 +
STACK CFI 35ecc .cfa: sp 0 +
STACK CFI 35ed0 .cfa: x29 64 +
STACK CFI INIT 35ed4 178 .cfa: sp 0 +
STACK CFI 35ed8 .cfa: sp 80 +
STACK CFI 35eec .cfa: x29 64 + x19: .cfa -8 + ^ x20: .cfa -16 + ^ x21: .cfa -24 + ^ x22: .cfa -32 + ^ x23: .cfa -40 + ^ x24: .cfa -48 + ^ .ra: .cfa -56 + ^ x29: .cfa -64 + ^
STACK CFI 36030 .cfa: sp 80 +
STACK CFI 36044 .cfa: sp 0 +
STACK CFI 36048 .cfa: x29 64 +
STACK CFI INIT 3604c 94 .cfa: sp 0 +
STACK CFI 36050 .cfa: sp 16 +
STACK CFI 36054 .cfa: x29 16 + .ra: .cfa -8 + ^ x29: .cfa -16 + ^
STACK CFI 360a8 .cfa: sp 16 +
STACK CFI 360ac .cfa: sp 0 +
STACK CFI 360b0 .cfa: x29 16 +
STACK CFI INIT 360e0 158 .cfa: sp 0 +
STACK CFI 360e4 .cfa: sp 112 +
STACK CFI 36100 .cfa: x29 96 + x19: .cfa -8 + ^ x20: .cfa -16 + ^ x21: .cfa -24 + ^ x22: .cfa -32 + ^ x23: .cfa -40 + ^ x24: .cfa -48 + ^ x25: .cfa -56 + ^ x26: .cfa -64 + ^ x27: .cfa -72 + ^ x28: .cfa -80 + ^ .ra: .cfa -88 + ^ x29: .cfa -96 + ^
STACK CFI 361e8 .cfa: sp 112 +
STACK CFI 361ec .cfa: x29 96 +
STACK CFI 361f4 .cfa: sp 112 +
STACK CFI 36210 .cfa: sp 0 +
STACK CFI 36214 .cfa: x29 96 +
STACK CFI 36234 .cfa: sp 112 +
STACK CFI INIT 36238 94 .cfa: sp 0 +
STACK CFI 3623c .cfa: sp 16 +
STACK CFI 36240 .cfa: x29 16 + .ra: .cfa -8 + ^ x29: .cfa -16 + ^
STACK CFI 36294 .cfa: sp 16 +
STACK CFI 36298 .cfa: sp 0 +
STACK CFI 3629c .cfa: x29 16 +
STACK CFI INIT 362cc 134 .cfa: sp 0 +
STACK CFI INIT 36400 100 .cfa: sp 0 +
STACK CFI 36404 .cfa: sp 32 +
STACK CFI 3640c .cfa: x29 32 + x19: .cfa -8 + ^ x20: .cfa -16 + ^ .ra: .cfa -24 + ^ x29: .cfa -32 + ^
STACK CFI 36434 .cfa: sp 32 +
STACK CFI 3643c .cfa: sp 0 +
STACK CFI 36440 .cfa: x29 32 +
STACK CFI 364f4 .cfa: sp 32 +
STACK CFI 364fc .cfa: sp 0 +
STACK CFI INIT 36500 148 .cfa: sp 0 +
STACK CFI 36504 .cfa: sp 48 +
STACK CFI 36510 .cfa: x29 48 + x19: .cfa -8 + ^ x20: .cfa -16 + ^ x21: .cfa -32 + ^ .ra: .cfa -40 + ^ x29: .cfa -48 + ^
STACK CFI 3653c .cfa: sp 48 +
STACK CFI 36548 .cfa: sp 0 +
STACK CFI 3654c .cfa: x29 48 +
STACK CFI 36638 .cfa: sp 48 +
STACK CFI 36644 .cfa: sp 0 +
STACK CFI INIT 36648 128 .cfa: sp 0 +
STACK CFI 3664c .cfa: sp 32 +
STACK CFI 36654 .cfa: x29 32 + x19: .cfa -8 + ^ x20: .cfa -16 + ^ .ra: .cfa -24 + ^ x29: .cfa -32 + ^
STACK CFI 3667c .cfa: sp 32 +
STACK CFI 36684 .cfa: sp 0 +
STACK CFI 36688 .cfa: x29 32 +
STACK CFI 36764 .cfa: sp 32 +
STACK CFI 3676c .cfa: sp 0 +
STACK CFI INIT 3694c 144 .cfa: sp 0 +
STACK CFI 36950 .cfa: sp 48 +
STACK CFI 3695c .cfa: x29 48 + x19: .cfa -8 + ^ x20: .cfa -16 + ^ x21: .cfa -32 + ^ .ra: .cfa -40 + ^ x29: .cfa -48 + ^
STACK CFI 36988 .cfa: sp 48 +
STACK CFI 36994 .cfa: sp 0 +
STACK CFI 36998 .cfa: x29 48 +
STACK CFI 36a80 .cfa: sp 48 +
STACK CFI 36a8c .cfa: sp 0 +
STACK CFI INIT 36a90 178 .cfa: sp 0 +
STACK CFI 36a94 .cfa: sp 80 +
STACK CFI 36aa8 .cfa: x29 80 + x19: .cfa -8 + ^ x20: .cfa -16 + ^ x21: .cfa -24 + ^ x22: .cfa -32 + ^ x23: .cfa -40 + ^ x24: .cfa -48 + ^ x25: .cfa -56 + ^ x26: .cfa -64 + ^ .ra: .cfa -72 + ^ x29: .cfa -80 + ^
STACK CFI 36bf0 .cfa: sp 80 +
STACK CFI 36c04 .cfa: sp 0 +
STACK CFI INIT 374f0 1c .cfa: sp 0 +
STACK CFI INIT 3750c 4 .cfa: sp 0 +
STACK CFI INIT 37510 4 .cfa: sp 0 +
STACK CFI INIT 37994 1c .cfa: sp 0 +
STACK CFI INIT 37cf4 4 .cfa: sp 0 +
STACK CFI INIT 37cf8 158 .cfa: sp 0 +
STACK CFI 37cfc .cfa: sp 48 +
STACK CFI 37d08 .cfa: x29 48 + x19: .cfa -8 + ^ x20: .cfa -16 + ^ x21: .cfa -32 + ^ .ra: .cfa -40 + ^ x29: .cfa -48 + ^
STACK CFI 37e2c .cfa: sp 48 +
STACK CFI 37e38 .cfa: sp 0 +
STACK CFI 37e3c .cfa: x29 48 +
STACK CFI 37e40 .cfa: sp 48 +
STACK CFI 37e4c .cfa: sp 0 +
STACK CFI INIT 382d0 1c .cfa: sp 0 +
STACK CFI INIT 3866c 4 .cfa: sp 0 +
STACK CFI INIT 38670 200 .cfa: sp 0 +
STACK CFI 38674 .cfa: sp 64 +
STACK CFI 38684 .cfa: x29 48 + x19: .cfa -8 + ^ x20: .cfa -16 + ^ x21: .cfa -24 + ^ x22: .cfa -32 + ^ .ra: .cfa -40 + ^ x29: .cfa -48 + ^ v8: .cfa -64 + ^
STACK CFI 38764 .cfa: sp 64 +
STACK CFI 38774 .cfa: sp 0 +
STACK CFI 38778 .cfa: x29 48 +
STACK CFI 387d8 .cfa: sp 64 +
STACK CFI 387e8 .cfa: sp 0 +
STACK CFI 387ec .cfa: x29 48 +
STACK CFI 3885c .cfa: sp 64 +
STACK CFI 3886c .cfa: sp 0 +
STACK CFI INIT 38f80 1c .cfa: sp 0 +
STACK CFI INIT 38f9c 14 .cfa: sp 0 +
STACK CFI 38fa0 .cfa: sp 16 +
STACK CFI 38fa4 .cfa: x29 16 + .ra: .cfa -8 + ^ x29: .cfa -16 + ^
STACK CFI INIT 38fb0 c8 .cfa: sp 0 +
STACK CFI 38fb4 .cfa: sp 48 +
STACK CFI 38fc0 .cfa: x29 48 + x19: .cfa -8 + ^ x20: .cfa -16 + ^ x21: .cfa -32 + ^ .ra: .cfa -40 + ^ x29: .cfa -48 + ^
STACK CFI 39054 .cfa: sp 48 +
STACK CFI 39060 .cfa: sp 0 +
STACK CFI 39064 .cfa: x29 48 +
STACK CFI 39068 .cfa: sp 48 +
STACK CFI 39074 .cfa: sp 0 +
STACK CFI INIT 39458 4 .cfa: sp 0 +
STACK CFI INIT 3945c 468 .cfa: sp 0 +
STACK CFI 39460 .cfa: sp 192 +
STACK CFI 39484 .cfa: x29 88 + x19: .cfa -8 + ^ x20: .cfa -16 + ^ x21: .cfa -24 + ^ x22: .cfa -32 + ^ x23: .cfa -40 + ^ x24: .cfa -48 + ^ x25: .cfa -56 + ^ x26: .cfa -64 + ^ x27: .cfa -72 + ^ .ra: .cfa -80 + ^ x29: .cfa -88 + ^ v8: .cfa -96 + ^ v9: .cfa -104 + ^ v10: .cfa -112 + ^
STACK CFI 396e0 .cfa: sp 192 +
STACK CFI 39704 .cfa: sp 0 +
STACK CFI 39708 .cfa: x29 88 +
STACK CFI 39728 .cfa: sp 192 +
STACK CFI 3974c .cfa: sp 0 +
STACK CFI 39750 .cfa: x29 88 +
STACK CFI INIT 39ef8 1c .cfa: sp 0 +
STACK CFI INIT 3a294 4 .cfa: sp 0 +
STACK CFI INIT 3a59c 4 .cfa: sp 0 +
STACK CFI INIT 3aa98 1c .cfa: sp 0 +
STACK CFI INIT 3b168 4 .cfa: sp 0 +
STACK CFI INIT 3b3b4 188 .cfa: sp 0 +
STACK CFI 3b3b8 .cfa: sp 48 +
STACK CFI 3b3c4 .cfa: x29 48 + x19: .cfa -8 + ^ x20: .cfa -16 + ^ x21: .cfa -32 + ^ .ra: .cfa -40 + ^ x29: .cfa -48 + ^
STACK CFI 3b514 .cfa: sp 48 +
STACK CFI 3b520 .cfa: sp 0 +
STACK CFI 3b524 .cfa: x29 48 +
STACK CFI 3b52c .cfa: sp 48 +
STACK CFI 3b538 .cfa: sp 0 +
STACK CFI INIT 3b53c 114 .cfa: sp 0 +
STACK CFI 3b540 .cfa: sp 32 +
STACK CFI 3b548 .cfa: x29 32 + x19: .cfa -8 + ^ x20: .cfa -16 + ^ .ra: .cfa -24 + ^ x29: .cfa -32 + ^
STACK CFI 3b638 .cfa: sp 32 +
STACK CFI 3b640 .cfa: sp 0 +
STACK CFI 3b644 .cfa: sp 32 +
STACK CFI 3b64c .cfa: sp 0 +
STACK CFI INIT 3b830 4 .cfa: sp 0 +
STACK CFI INIT 3be68 1c .cfa: sp 0 +
STACK CFI INIT 3c204 4 .cfa: sp 0 +
STACK CFI INIT 3c7f4 1a0 .cfa: sp 0 +
STACK CFI 3c7f8 .cfa: sp 64 +
STACK CFI 3c808 .cfa: x29 64 + x19: .cfa -8 + ^ x20: .cfa -16 + ^ x21: .cfa -24 + ^ x22: .cfa -32 + ^ x23: .cfa -40 + ^ x24: .cfa -48 + ^ .ra: .cfa -56 + ^ x29: .cfa -64 + ^
STACK CFI 3c968 .cfa: sp 64 +
STACK CFI 3c978 .cfa: sp 0 +
STACK CFI 3c97c .cfa: x29 64 +
STACK CFI INIT 3c994 44 .cfa: sp 0 +
STACK CFI 3c99c .cfa: sp 32 +
STACK CFI 3c9a4 .cfa: x29 32 + x19: .cfa -8 + ^ x20: .cfa -16 + ^ .ra: .cfa -24 + ^ x29: .cfa -32 + ^
STACK CFI 3c9c8 .cfa: sp 32 +
STACK CFI 3c9d0 .cfa: sp 0 +
STACK CFI INIT 3cb1c 1d0 .cfa: sp 0 +
STACK CFI 3cb20 .cfa: sp 64 +
STACK CFI 3cb30 .cfa: x29 64 + x19: .cfa -8 + ^ x20: .cfa -16 + ^ x21: .cfa -24 + ^ x22: .cfa -32 + ^ x23: .cfa -40 + ^ x24: .cfa -48 + ^ .ra: .cfa -56 + ^ x29: .cfa -64 + ^
STACK CFI 3ccc0 .cfa: sp 64 +
STACK CFI 3ccd0 .cfa: sp 0 +
STACK CFI 3ccd4 .cfa: x29 64 +
STACK CFI INIT 3d204 280 .cfa: sp 0 +
STACK CFI 3d208 .cfa: sp 80 +
STACK CFI 3d21c .cfa: x29 80 + x19: .cfa -8 + ^ x20: .cfa -16 + ^ x21: .cfa -24 + ^ x22: .cfa -32 + ^ x23: .cfa -40 + ^ x24: .cfa -48 + ^ x25: .cfa -64 + ^ .ra: .cfa -72 + ^ x29: .cfa -80 + ^
STACK CFI 3d454 .cfa: sp 80 +
STACK CFI 3d468 .cfa: sp 0 +
STACK CFI 3d46c .cfa: x29 80 +
STACK CFI INIT 3d484 4c .cfa: sp 0 +
STACK CFI 3d48c .cfa: sp 32 +
STACK CFI 3d494 .cfa: x29 32 + x19: .cfa -8 + ^ x20: .cfa -16 + ^ .ra: .cfa -24 + ^ x29: .cfa -32 + ^
STACK CFI 3d4c0 .cfa: sp 32 +
STACK CFI 3d4c8 .cfa: sp 0 +
STACK CFI INIT 3d4d0 5c .cfa: sp 0 +
STACK CFI 3d4d8 .cfa: sp 32 +
STACK CFI 3d4e0 .cfa: x29 32 + x19: .cfa -8 + ^ x20: .cfa -16 + ^ .ra: .cfa -24 + ^ x29: .cfa -32 + ^
STACK CFI 3d520 .cfa: sp 32 +
STACK CFI 3d528 .cfa: sp 0 +
STACK CFI INIT 3d52c 54 .cfa: sp 0 +
STACK CFI 3d534 .cfa: sp 32 +
STACK CFI 3d53c .cfa: x29 32 + x19: .cfa -8 + ^ x20: .cfa -16 + ^ .ra: .cfa -24 + ^ x29: .cfa -32 + ^
STACK CFI 3d574 .cfa: sp 32 +
STACK CFI 3d57c .cfa: sp 0 +
STACK CFI INIT 3d5e4 54 .cfa: sp 0 +
STACK CFI 3d5ec .cfa: sp 32 +
STACK CFI 3d5f4 .cfa: x29 32 + x19: .cfa -8 + ^ x20: .cfa -16 + ^ .ra: .cfa -24 + ^ x29: .cfa -32 + ^
STACK CFI 3d62c .cfa: sp 32 +
STACK CFI 3d634 .cfa: sp 0 +
STACK CFI INIT 3d7e8 50 .cfa: sp 0 +
STACK CFI 3d7ec .cfa: sp 32 +
STACK CFI 3d7f4 .cfa: x29 32 + x19: .cfa -16 + ^ .ra: .cfa -24 + ^ x29: .cfa -32 + ^
STACK CFI 3d80c .cfa: sp 32 +
STACK CFI 3d814 .cfa: sp 0 +
STACK CFI 3d818 .cfa: x29 32 +
STACK CFI 3d82c .cfa: sp 32 +
STACK CFI 3d834 .cfa: sp 0 +
STACK CFI INIT 3de6c 1c .cfa: sp 0 +
STACK CFI INIT 3e210 4 .cfa: sp 0 +
STACK CFI INIT 3e500 4 .cfa: sp 0 +
STACK CFI INIT 3e984 1c .cfa: sp 0 +
STACK CFI INIT 3eca8 4 .cfa: sp 0 +
STACK CFI INIT 3ecac ec .cfa: sp 0 +
STACK CFI 3ecb0 .cfa: sp 48 +
STACK CFI 3ecbc .cfa: x29 48 + x19: .cfa -8 + ^ x20: .cfa -16 + ^ x21: .cfa -32 + ^ .ra: .cfa -40 + ^ x29: .cfa -48 + ^
STACK CFI 3ece0 .cfa: sp 48 +
STACK CFI 3ecec .cfa: sp 0 +
STACK CFI 3ecf0 .cfa: x29 48 +
STACK CFI 3ed88 .cfa: sp 48 +
STACK CFI 3ed94 .cfa: sp 0 +
STACK CFI INIT 3ee40 9c .cfa: sp 0 +
STACK CFI INIT 3eedc 34 .cfa: sp 0 +
STACK CFI 3eee0 .cfa: sp 32 +
STACK CFI 3eee8 .cfa: x29 32 + x19: .cfa -8 + ^ x20: .cfa -16 + ^ .ra: .cfa -24 + ^ x29: .cfa -32 + ^
STACK CFI 3ef04 .cfa: sp 32 +
STACK CFI 3ef0c .cfa: sp 0 +
STACK CFI INIT 3f408 1c .cfa: sp 0 +
STACK CFI INIT 3fba0 4 .cfa: sp 0 +
STACK CFI INIT 3ff70 12c .cfa: sp 0 +
STACK CFI 3ff74 .cfa: sp 48 +
STACK CFI 3ff80 .cfa: x29 48 + x19: .cfa -8 + ^ x20: .cfa -16 + ^ x21: .cfa -32 + ^ .ra: .cfa -40 + ^ x29: .cfa -48 + ^
STACK CFI 40074 .cfa: sp 48 +
STACK CFI 40080 .cfa: sp 0 +
STACK CFI 40084 .cfa: x29 48 +
STACK CFI 4008c .cfa: sp 48 +
STACK CFI 40098 .cfa: sp 0 +
STACK CFI INIT 4009c 12c .cfa: sp 0 +
STACK CFI 400a0 .cfa: sp 48 +
STACK CFI 400ac .cfa: x29 48 + x19: .cfa -8 + ^ x20: .cfa -16 + ^ x21: .cfa -32 + ^ .ra: .cfa -40 + ^ x29: .cfa -48 + ^
STACK CFI 401a0 .cfa: sp 48 +
STACK CFI 401ac .cfa: sp 0 +
STACK CFI 401b0 .cfa: x29 48 +
STACK CFI 401b8 .cfa: sp 48 +
STACK CFI 401c4 .cfa: sp 0 +
STACK CFI INIT 401c8 114 .cfa: sp 0 +
STACK CFI 401cc .cfa: sp 32 +
STACK CFI 401d4 .cfa: x29 32 + x19: .cfa -8 + ^ x20: .cfa -16 + ^ .ra: .cfa -24 + ^ x29: .cfa -32 + ^
STACK CFI 402c4 .cfa: sp 32 +
STACK CFI 402cc .cfa: sp 0 +
STACK CFI 402d0 .cfa: sp 32 +
STACK CFI 402d8 .cfa: sp 0 +
STACK CFI INIT 404bc 4 .cfa: sp 0 +
STACK CFI INIT 404c0 60 .cfa: sp 0 +
STACK CFI 404c4 .cfa: sp 32 +
STACK CFI 404cc .cfa: x29 32 + x19: .cfa -8 + ^ x20: .cfa -16 + ^ .ra: .cfa -24 + ^ x29: .cfa -32 + ^
STACK CFI 404ec .cfa: sp 32 +
STACK CFI 404f4 .cfa: sp 0 +
STACK CFI 404f8 .cfa: x29 32 +
STACK CFI 40514 .cfa: sp 32 +
STACK CFI 4051c .cfa: sp 0 +
STACK CFI INIT 40520 64 .cfa: sp 0 +
STACK CFI 40524 .cfa: sp 48 +
STACK CFI 40530 .cfa: x29 48 + x19: .cfa -8 + ^ x20: .cfa -16 + ^ x21: .cfa -32 + ^ .ra: .cfa -40 + ^ x29: .cfa -48 + ^
STACK CFI 40550 .cfa: sp 48 +
STACK CFI 4055c .cfa: sp 0 +
STACK CFI 40560 .cfa: x29 48 +
STACK CFI 40574 .cfa: sp 48 +
STACK CFI 40580 .cfa: sp 0 +
STACK CFI INIT 40bc4 54 .cfa: sp 0 +
STACK CFI 40bc8 .cfa: sp 32 +
STACK CFI 40bd0 .cfa: x29 32 + x19: .cfa -16 + ^ .ra: .cfa -24 + ^ x29: .cfa -32 + ^
STACK CFI 40bec .cfa: sp 32 +
STACK CFI 40bf4 .cfa: sp 0 +
STACK CFI 40bf8 .cfa: x29 32 +
STACK CFI 40c0c .cfa: sp 32 +
STACK CFI 40c14 .cfa: sp 0 +
STACK CFI INIT 41328 26c .cfa: sp 0 +
STACK CFI 4132c .cfa: sp 112 +
STACK CFI 41348 .cfa: x29 96 + x19: .cfa -8 + ^ x20: .cfa -16 + ^ x21: .cfa -24 + ^ x22: .cfa -32 + ^ x23: .cfa -40 + ^ x24: .cfa -48 + ^ x25: .cfa -56 + ^ x26: .cfa -64 + ^ x27: .cfa -72 + ^ x28: .cfa -80 + ^ .ra: .cfa -88 + ^ x29: .cfa -96 + ^
STACK CFI 41574 .cfa: sp 112 +
STACK CFI 41590 .cfa: sp 0 +
STACK CFI INIT 41594 1a8 .cfa: sp 0 +
STACK CFI 41598 .cfa: sp 64 +
STACK CFI 415a8 .cfa: x29 64 + x19: .cfa -8 + ^ x20: .cfa -16 + ^ x21: .cfa -24 + ^ x22: .cfa -32 + ^ x23: .cfa -48 + ^ .ra: .cfa -56 + ^ x29: .cfa -64 + ^
STACK CFI 4162c .cfa: sp 64 +
STACK CFI 4163c .cfa: sp 0 +
STACK CFI 41640 .cfa: x29 64 +
STACK CFI 41648 .cfa: sp 64 +
STACK CFI 41658 .cfa: sp 0 +
STACK CFI 4165c .cfa: x29 64 +
STACK CFI 41724 .cfa: sp 64 +
STACK CFI 41734 .cfa: sp 0 +
STACK CFI 41738 .cfa: x29 64 +
STACK CFI INIT 4173c 170 .cfa: sp 0 +
STACK CFI 41740 .cfa: sp 96 +
STACK CFI 41758 .cfa: x29 96 + x19: .cfa -8 + ^ x20: .cfa -16 + ^ x21: .cfa -24 + ^ x22: .cfa -32 + ^ x23: .cfa -40 + ^ x24: .cfa -48 + ^ x25: .cfa -56 + ^ x26: .cfa -64 + ^ x27: .cfa -80 + ^ .ra: .cfa -88 + ^ x29: .cfa -96 + ^
STACK CFI 4188c .cfa: sp 96 +
STACK CFI 418a4 .cfa: sp 0 +
STACK CFI 418a8 .cfa: x29 96 +
STACK CFI INIT 418f8 4 .cfa: sp 0 +
STACK CFI INIT 418fc c .cfa: sp 0 +
STACK CFI INIT 41908 4 .cfa: sp 0 +
STACK CFI INIT 4190c 4 .cfa: sp 0 +
STACK CFI INIT 41910 24 .cfa: sp 0 +
STACK CFI 41914 .cfa: sp 32 +
STACK CFI 4191c .cfa: x29 32 + x19: .cfa -16 + ^ .ra: .cfa -24 + ^ x29: .cfa -32 + ^
STACK CFI 41928 .cfa: sp 32 +
STACK CFI 41930 .cfa: sp 0 +
STACK CFI INIT 41934 18 .cfa: sp 0 +
STACK CFI INIT 4194c 1c .cfa: sp 0 +
STACK CFI INIT 41968 4 .cfa: sp 0 +
STACK CFI INIT 4196c 48 .cfa: sp 0 +
STACK CFI 41988 .cfa: sp 32 +
STACK CFI 41990 .cfa: x29 32 + x19: .cfa -16 + ^ .ra: .cfa -24 + ^ x29: .cfa -32 + ^
STACK CFI 419a8 .cfa: sp 32 +
STACK CFI 419b0 .cfa: sp 0 +
STACK CFI INIT 419b4 14 .cfa: sp 0 +
STACK CFI INIT 419c8 48 .cfa: sp 0 +
STACK CFI 419e4 .cfa: sp 32 +
STACK CFI 419ec .cfa: x29 32 + x19: .cfa -16 + ^ .ra: .cfa -24 + ^ x29: .cfa -32 + ^
STACK CFI 41a04 .cfa: sp 32 +
STACK CFI 41a0c .cfa: sp 0 +
STACK CFI INIT 423b8 3f4 .cfa: sp 0 +
STACK CFI 423bc .cfa: sp 32 +
STACK CFI 423c4 .cfa: x29 32 + x19: .cfa -16 + ^ .ra: .cfa -24 + ^ x29: .cfa -32 + ^
STACK CFI 42510 .cfa: sp 32 +
STACK CFI 42518 .cfa: sp 0 +
STACK CFI 4251c .cfa: x29 32 +
STACK CFI 42524 .cfa: sp 32 +
STACK CFI 4252c .cfa: sp 0 +
STACK CFI 42530 .cfa: x29 32 +
STACK CFI 4256c .cfa: sp 32 +
STACK CFI 42574 .cfa: sp 0 +
STACK CFI 42578 .cfa: x29 32 +
STACK CFI 425b4 .cfa: sp 32 +
STACK CFI 425bc .cfa: sp 0 +
STACK CFI 425c0 .cfa: x29 32 +
STACK CFI 425ec .cfa: sp 32 +
STACK CFI 425f4 .cfa: sp 0 +
STACK CFI 425f8 .cfa: x29 32 +
STACK CFI 42614 .cfa: sp 32 +
STACK CFI 4261c .cfa: sp 0 +
STACK CFI 42620 .cfa: x29 32 +
STACK CFI 42684 .cfa: sp 32 +
STACK CFI 4268c .cfa: sp 0 +
STACK CFI 42690 .cfa: x29 32 +
STACK CFI 42760 .cfa: sp 32 +
STACK CFI 42768 .cfa: sp 0 +
STACK CFI 4276c .cfa: x29 32 +
STACK CFI 42798 .cfa: sp 32 +
STACK CFI 427a0 .cfa: sp 0 +
STACK CFI 427a4 .cfa: x29 32 +
STACK CFI INIT 42818 b4 .cfa: sp 0 +
STACK CFI 4281c .cfa: sp 64 +
STACK CFI 4282c .cfa: x29 64 + x19: .cfa -8 + ^ x20: .cfa -16 + ^ x21: .cfa -24 + ^ x22: .cfa -32 + ^ x23: .cfa -48 + ^ .ra: .cfa -56 + ^ x29: .cfa -64 + ^
STACK CFI 428b8 .cfa: sp 64 +
STACK CFI 428c8 .cfa: sp 0 +
STACK CFI INIT 42918 48 .cfa: sp 0 +
STACK CFI 42934 .cfa: sp 32 +
STACK CFI 4293c .cfa: x29 32 + x19: .cfa -16 + ^ .ra: .cfa -24 + ^ x29: .cfa -32 + ^
STACK CFI 42954 .cfa: sp 32 +
STACK CFI 4295c .cfa: sp 0 +
STACK CFI INIT 42960 64 .cfa: sp 0 +
STACK CFI INIT 429c4 48 .cfa: sp 0 +
STACK CFI 429e0 .cfa: sp 32 +
STACK CFI 429e8 .cfa: x29 32 + x19: .cfa -16 + ^ .ra: .cfa -24 + ^ x29: .cfa -32 + ^
STACK CFI 42a00 .cfa: sp 32 +
STACK CFI 42a08 .cfa: sp 0 +
STACK CFI INIT 42a0c 54 .cfa: sp 0 +
STACK CFI INIT 42a60 5c .cfa: sp 0 +
STACK CFI 42a64 .cfa: sp 32 +
STACK CFI 42a6c .cfa: x29 32 + x19: .cfa -16 + ^ .ra: .cfa -24 + ^ x29: .cfa -32 + ^
STACK CFI 42aa4 .cfa: sp 32 +
STACK CFI 42aac .cfa: sp 0 +
STACK CFI 42ab0 .cfa: sp 32 +
STACK CFI 42ab8 .cfa: sp 0 +
STACK CFI INIT 42abc 58 .cfa: sp 0 +
STACK CFI 42ac0 .cfa: sp 32 +
STACK CFI 42ac8 .cfa: x29 32 + x19: .cfa -16 + ^ .ra: .cfa -24 + ^ x29: .cfa -32 + ^
STACK CFI 42b08 .cfa: sp 32 +
STACK CFI 42b10 .cfa: sp 0 +
STACK CFI INIT 42b14 110 .cfa: sp 0 +
STACK CFI INIT 42c24 90 .cfa: sp 0 +
STACK CFI 42c28 .cfa: sp 32 +
STACK CFI 42c30 .cfa: x29 32 + x19: .cfa -8 + ^ x20: .cfa -16 + ^ .ra: .cfa -24 + ^ x29: .cfa -32 + ^
STACK CFI 42c9c .cfa: sp 32 +
STACK CFI 42ca4 .cfa: sp 0 +
STACK CFI 42ca8 .cfa: sp 32 +
STACK CFI 42cb0 .cfa: sp 0 +
STACK CFI INIT 42cb4 8c .cfa: sp 0 +
STACK CFI 42cb8 .cfa: sp 32 +
STACK CFI 42cc0 .cfa: x29 32 + x19: .cfa -8 + ^ x20: .cfa -16 + ^ .ra: .cfa -24 + ^ x29: .cfa -32 + ^
STACK CFI 42d34 .cfa: sp 32 +
STACK CFI 42d3c .cfa: sp 0 +
STACK CFI INIT 435c0 14 .cfa: sp 0 +
STACK CFI 435c4 .cfa: sp 16 +
STACK CFI 435c8 .cfa: x29 16 + .ra: .cfa -8 + ^ x29: .cfa -16 + ^
STACK CFI INIT 435d4 44 .cfa: sp 0 +
STACK CFI 435d8 .cfa: sp 32 +
STACK CFI 435e0 .cfa: x29 32 + x19: .cfa -16 + ^ .ra: .cfa -24 + ^ x29: .cfa -32 + ^
STACK CFI 43600 .cfa: sp 32 +
STACK CFI 43608 .cfa: sp 0 +
STACK CFI 4360c .cfa: sp 32 +
STACK CFI 43614 .cfa: sp 0 +
STACK CFI INIT 436b0 98 .cfa: sp 0 +
STACK CFI 436b4 .cfa: sp 48 +
STACK CFI 436c0 .cfa: x29 48 + x19: .cfa -8 + ^ x20: .cfa -16 + ^ x21: .cfa -32 + ^ .ra: .cfa -40 + ^ x29: .cfa -48 + ^
STACK CFI 436e0 .cfa: sp 48 +
STACK CFI 436ec .cfa: sp 0 +
STACK CFI 436f0 .cfa: x29 48 +
STACK CFI 43728 .cfa: sp 48 +
STACK CFI 43734 .cfa: sp 0 +
STACK CFI 43738 .cfa: sp 48 +
STACK CFI 43744 .cfa: sp 0 +
STACK CFI INIT 43748 1dc .cfa: sp 0 +
STACK CFI 4374c .cfa: sp 48 +
STACK CFI 43758 .cfa: x29 48 + x19: .cfa -8 + ^ x20: .cfa -16 + ^ x21: .cfa -24 + ^ x22: .cfa -32 + ^ .ra: .cfa -40 + ^ x29: .cfa -48 + ^
STACK CFI 4390c .cfa: sp 48 +
STACK CFI 43918 .cfa: sp 0 +
STACK CFI 4391c .cfa: x29 48 +
STACK CFI INIT 43924 14 .cfa: sp 0 +
STACK CFI 43928 .cfa: sp 16 +
STACK CFI 4392c .cfa: x29 16 + .ra: .cfa -8 + ^ x29: .cfa -16 + ^
STACK CFI INIT 43938 14 .cfa: sp 0 +
STACK CFI 4393c .cfa: sp 16 +
STACK CFI 43940 .cfa: x29 16 + .ra: .cfa -8 + ^ x29: .cfa -16 + ^
STACK CFI INIT 44a8c 48 .cfa: sp 0 +
STACK CFI 44aa8 .cfa: sp 32 +
STACK CFI 44ab0 .cfa: x29 32 + x19: .cfa -16 + ^ .ra: .cfa -24 + ^ x29: .cfa -32 + ^
STACK CFI 44ac8 .cfa: sp 32 +
STACK CFI 44ad0 .cfa: sp 0 +
STACK CFI INIT 44b20 50c .cfa: sp 0 +
STACK CFI 44b24 .cfa: sp 32 +
STACK CFI 44b2c .cfa: x29 32 + x19: .cfa -16 + ^ .ra: .cfa -24 + ^ x29: .cfa -32 + ^
STACK CFI 44c74 .cfa: sp 32 +
STACK CFI 44c7c .cfa: sp 0 +
STACK CFI 44c80 .cfa: x29 32 +
STACK CFI 44df0 .cfa: sp 32 +
STACK CFI 44df8 .cfa: sp 0 +
STACK CFI 44dfc .cfa: x29 32 +
STACK CFI 44e18 .cfa: sp 32 +
STACK CFI 44e20 .cfa: sp 0 +
STACK CFI 44e24 .cfa: x29 32 +
STACK CFI 44e80 .cfa: sp 32 +
STACK CFI 44e88 .cfa: sp 0 +
STACK CFI 44e8c .cfa: x29 32 +
STACK CFI 44ea8 .cfa: sp 32 +
STACK CFI 44eb0 .cfa: sp 0 +
STACK CFI 44eb4 .cfa: x29 32 +
STACK CFI 44ed0 .cfa: sp 32 +
STACK CFI 44ed8 .cfa: sp 0 +
STACK CFI 44edc .cfa: x29 32 +
STACK CFI 44ef8 .cfa: sp 32 +
STACK CFI 44f00 .cfa: sp 0 +
STACK CFI 44f04 .cfa: x29 32 +
STACK CFI 44f1c .cfa: sp 32 +
STACK CFI 44f24 .cfa: sp 0 +
STACK CFI 44f28 .cfa: x29 32 +
STACK CFI 44f44 .cfa: sp 32 +
STACK CFI 44f4c .cfa: sp 0 +
STACK CFI 44f50 .cfa: x29 32 +
STACK CFI 44f6c .cfa: sp 32 +
STACK CFI 44f74 .cfa: sp 0 +
STACK CFI 44f78 .cfa: x29 32 +
STACK CFI 44f94 .cfa: sp 32 +
STACK CFI 44f9c .cfa: sp 0 +
STACK CFI 44fa0 .cfa: x29 32 +
STACK CFI 44ff4 .cfa: sp 32 +
STACK CFI 44ffc .cfa: sp 0 +
STACK CFI 45000 .cfa: x29 32 +
STACK CFI 4501c .cfa: sp 32 +
STACK CFI 45024 .cfa: sp 0 +
STACK CFI 45028 .cfa: x29 32 +
STACK CFI INIT 451b8 c8 .cfa: sp 0 +
STACK CFI 451bc .cfa: sp 48 +
STACK CFI 451c8 .cfa: x29 48 + x19: .cfa -8 + ^ x20: .cfa -16 + ^ x21: .cfa -32 + ^ .ra: .cfa -40 + ^ x29: .cfa -48 + ^
STACK CFI 45270 .cfa: sp 48 +
STACK CFI 4527c .cfa: sp 0 +
STACK CFI INIT 45280 5c .cfa: sp 0 +
STACK CFI 45284 .cfa: sp 32 +
STACK CFI 4528c .cfa: x29 32 + x19: .cfa -16 + ^ .ra: .cfa -24 + ^ x29: .cfa -32 + ^
STACK CFI 452c4 .cfa: sp 32 +
STACK CFI 452cc .cfa: sp 0 +
STACK CFI 452d0 .cfa: sp 32 +
STACK CFI 452d8 .cfa: sp 0 +
STACK CFI INIT 452dc 58 .cfa: sp 0 +
STACK CFI 452e0 .cfa: sp 32 +
STACK CFI 452e8 .cfa: x29 32 + x19: .cfa -16 + ^ .ra: .cfa -24 + ^ x29: .cfa -32 + ^
STACK CFI 45328 .cfa: sp 32 +
STACK CFI 45330 .cfa: sp 0 +
STACK CFI INIT 45334 80 .cfa: sp 0 +
STACK CFI 45338 .cfa: sp 32 +
STACK CFI 45340 .cfa: x29 32 + x19: .cfa -8 + ^ x20: .cfa -16 + ^ .ra: .cfa -24 + ^ x29: .cfa -32 + ^
STACK CFI 45390 .cfa: sp 32 +
STACK CFI 45398 .cfa: sp 0 +
STACK CFI 4539c .cfa: x29 32 +
STACK CFI 453a8 .cfa: sp 32 +
STACK CFI 453b0 .cfa: sp 0 +
STACK CFI INIT 453b4 5c .cfa: sp 0 +
STACK CFI 453b8 .cfa: sp 32 +
STACK CFI 453c0 .cfa: x29 32 + x19: .cfa -16 + ^ .ra: .cfa -24 + ^ x29: .cfa -32 + ^
STACK CFI 453f8 .cfa: sp 32 +
STACK CFI 45400 .cfa: sp 0 +
STACK CFI 45404 .cfa: sp 32 +
STACK CFI 4540c .cfa: sp 0 +
STACK CFI INIT 45410 58 .cfa: sp 0 +
STACK CFI 45414 .cfa: sp 32 +
STACK CFI 4541c .cfa: x29 32 + x19: .cfa -16 + ^ .ra: .cfa -24 + ^ x29: .cfa -32 + ^
STACK CFI 4545c .cfa: sp 32 +
STACK CFI 45464 .cfa: sp 0 +
STACK CFI INIT 45468 48 .cfa: sp 0 +
STACK CFI INIT 454b0 48 .cfa: sp 0 +
STACK CFI 454cc .cfa: sp 32 +
STACK CFI 454d4 .cfa: x29 32 + x19: .cfa -16 + ^ .ra: .cfa -24 + ^ x29: .cfa -32 + ^
STACK CFI 454ec .cfa: sp 32 +
STACK CFI 454f4 .cfa: sp 0 +
STACK CFI INIT 454f8 48 .cfa: sp 0 +
STACK CFI INIT 45540 5c .cfa: sp 0 +
STACK CFI 45544 .cfa: sp 32 +
STACK CFI 4554c .cfa: x29 32 + x19: .cfa -16 + ^ .ra: .cfa -24 + ^ x29: .cfa -32 + ^
STACK CFI 45584 .cfa: sp 32 +
STACK CFI 4558c .cfa: sp 0 +
STACK CFI 45590 .cfa: sp 32 +
STACK CFI 45598 .cfa: sp 0 +
STACK CFI INIT 4559c 58 .cfa: sp 0 +
STACK CFI 455a0 .cfa: sp 32 +
STACK CFI 455a8 .cfa: x29 32 + x19: .cfa -16 + ^ .ra: .cfa -24 + ^ x29: .cfa -32 + ^
STACK CFI 455e8 .cfa: sp 32 +
STACK CFI 455f0 .cfa: sp 0 +
STACK CFI INIT 455f4 f8 .cfa: sp 0 +
STACK CFI 455f8 .cfa: sp 64 +
STACK CFI 45608 .cfa: x29 64 + x19: .cfa -8 + ^ x20: .cfa -16 + ^ x21: .cfa -24 + ^ x22: .cfa -32 + ^ x23: .cfa -40 + ^ x24: .cfa -48 + ^ .ra: .cfa -56 + ^ x29: .cfa -64 + ^
STACK CFI 4564c .cfa: sp 64 +
STACK CFI 4565c .cfa: sp 0 +
STACK CFI 45660 .cfa: x29 64 +
STACK CFI 456d8 .cfa: sp 64 +
STACK CFI 456e8 .cfa: sp 0 +
STACK CFI INIT 456ec 5c .cfa: sp 0 +
STACK CFI 456f0 .cfa: sp 32 +
STACK CFI 456f8 .cfa: x29 32 + x19: .cfa -16 + ^ .ra: .cfa -24 + ^ x29: .cfa -32 + ^
STACK CFI 45730 .cfa: sp 32 +
STACK CFI 45738 .cfa: sp 0 +
STACK CFI 4573c .cfa: sp 32 +
STACK CFI 45744 .cfa: sp 0 +
STACK CFI INIT 45748 58 .cfa: sp 0 +
STACK CFI 4574c .cfa: sp 32 +
STACK CFI 45754 .cfa: x29 32 + x19: .cfa -16 + ^ .ra: .cfa -24 + ^ x29: .cfa -32 + ^
STACK CFI 45794 .cfa: sp 32 +
STACK CFI 4579c .cfa: sp 0 +
STACK CFI INIT 457a0 90 .cfa: sp 0 +
STACK CFI INIT 45830 48 .cfa: sp 0 +
STACK CFI 4584c .cfa: sp 32 +
STACK CFI 45854 .cfa: x29 32 + x19: .cfa -16 + ^ .ra: .cfa -24 + ^ x29: .cfa -32 + ^
STACK CFI 4586c .cfa: sp 32 +
STACK CFI 45874 .cfa: sp 0 +
STACK CFI INIT 45878 d0 .cfa: sp 0 +
STACK CFI 4587c .cfa: sp 48 +
STACK CFI 45888 .cfa: x29 48 + x19: .cfa -8 + ^ x20: .cfa -16 + ^ x21: .cfa -24 + ^ x22: .cfa -32 + ^ .ra: .cfa -40 + ^ x29: .cfa -48 + ^
STACK CFI 4590c .cfa: sp 48 +
STACK CFI 45918 .cfa: sp 0 +
STACK CFI 4591c .cfa: x29 48 +
STACK CFI 45934 .cfa: sp 48 +
STACK CFI 45940 .cfa: sp 0 +
STACK CFI 45944 .cfa: x29 48 +
STACK CFI INIT 45948 4b0 .cfa: sp 0 +
STACK CFI 4594c .cfa: sp 80 +
STACK CFI 45960 .cfa: x29 80 + x19: .cfa -8 + ^ x20: .cfa -16 + ^ x21: .cfa -24 + ^ x22: .cfa -32 + ^ x23: .cfa -40 + ^ x24: .cfa -48 + ^ x25: .cfa -64 + ^ .ra: .cfa -72 + ^ x29: .cfa -80 + ^
STACK CFI 45994 .cfa: sp 80 +
STACK CFI 459a8 .cfa: sp 0 +
STACK CFI 459ac .cfa: x29 80 +
STACK CFI 45d6c .cfa: sp 80 +
STACK CFI 45d80 .cfa: sp 0 +
STACK CFI 45d84 .cfa: x29 80 +
STACK CFI 45ddc .cfa: sp 80 +
STACK CFI 45df0 .cfa: sp 0 +
STACK CFI 45df4 .cfa: x29 80 +
STACK CFI INIT 45fd4 a4 .cfa: sp 0 +
STACK CFI 45fd8 .cfa: sp 48 +
STACK CFI 45fe4 .cfa: x29 48 + x19: .cfa -8 + ^ x20: .cfa -16 + ^ x21: .cfa -32 + ^ .ra: .cfa -40 + ^ x29: .cfa -48 + ^
STACK CFI 46004 .cfa: sp 48 +
STACK CFI 46010 .cfa: sp 0 +
STACK CFI 46014 .cfa: x29 48 +
STACK CFI 46058 .cfa: sp 48 +
STACK CFI 46064 .cfa: sp 0 +
STACK CFI 46068 .cfa: sp 48 +
STACK CFI 46074 .cfa: sp 0 +
STACK CFI INIT 46078 14c .cfa: sp 0 +
STACK CFI 4607c .cfa: sp 48 +
STACK CFI 46088 .cfa: x29 48 + x19: .cfa -8 + ^ x20: .cfa -16 + ^ x21: .cfa -32 + ^ .ra: .cfa -40 + ^ x29: .cfa -48 + ^
STACK CFI 461a4 .cfa: sp 48 +
STACK CFI 461b0 .cfa: sp 0 +
STACK CFI 461b4 .cfa: sp 48 +
STACK CFI 461c0 .cfa: sp 0 +
STACK CFI INIT 461c4 24 .cfa: sp 0 +
STACK CFI 461c8 .cfa: sp 32 +
STACK CFI 461d0 .cfa: x29 32 + x19: .cfa -16 + ^ .ra: .cfa -24 + ^ x29: .cfa -32 + ^
STACK CFI 461dc .cfa: sp 32 +
STACK CFI 461e4 .cfa: sp 0 +
STACK CFI INIT 46e54 44 .cfa: sp 0 +
STACK CFI 46e58 .cfa: sp 32 +
STACK CFI 46e60 .cfa: x29 32 + x19: .cfa -16 + ^ .ra: .cfa -24 + ^ x29: .cfa -32 + ^
STACK CFI 46e7c .cfa: sp 32 +
STACK CFI 46e84 .cfa: sp 0 +
STACK CFI 46e88 .cfa: x29 32 +
STACK CFI 46e8c .cfa: sp 32 +
STACK CFI 46e94 .cfa: sp 0 +
STACK CFI INIT 46e98 ac .cfa: sp 0 +
STACK CFI 46e9c .cfa: sp 64 +
STACK CFI 46eac .cfa: x29 64 + x19: .cfa -8 + ^ x20: .cfa -16 + ^ x21: .cfa -24 + ^ x22: .cfa -32 + ^ x23: .cfa -48 + ^ .ra: .cfa -56 + ^ x29: .cfa -64 + ^
STACK CFI 46f28 .cfa: sp 64 +
STACK CFI 46f38 .cfa: sp 0 +
STACK CFI 46f3c .cfa: x29 64 +
STACK CFI INIT 46f44 110 .cfa: sp 0 +
STACK CFI 46f48 .cfa: sp 64 +
STACK CFI 46f58 .cfa: x29 64 + x19: .cfa -8 + ^ x20: .cfa -16 + ^ x21: .cfa -24 + ^ x22: .cfa -32 + ^ x23: .cfa -40 + ^ x24: .cfa -48 + ^ .ra: .cfa -56 + ^ x29: .cfa -64 + ^
STACK CFI 47038 .cfa: sp 64 +
STACK CFI 47048 .cfa: sp 0 +
STACK CFI 4704c .cfa: x29 64 +
STACK CFI INIT 47218 14 .cfa: sp 0 +
STACK CFI 4721c .cfa: sp 16 +
STACK CFI 47220 .cfa: x29 16 + .ra: .cfa -8 + ^ x29: .cfa -16 + ^
STACK CFI INIT 47278 5c8 .cfa: sp 0 +
STACK CFI 4727c .cfa: sp 80 +
STACK CFI 47290 .cfa: x29 80 + x19: .cfa -8 + ^ x20: .cfa -16 + ^ x21: .cfa -24 + ^ x22: .cfa -32 + ^ x23: .cfa -40 + ^ x24: .cfa -48 + ^ x25: .cfa -56 + ^ x26: .cfa -64 + ^ .ra: .cfa -72 + ^ x29: .cfa -80 + ^
STACK CFI 47380 .cfa: sp 80 +
STACK CFI 47394 .cfa: sp 0 +
STACK CFI 47398 .cfa: x29 80 +
STACK CFI 473ec .cfa: sp 80 +
STACK CFI 47400 .cfa: sp 0 +
STACK CFI 47404 .cfa: x29 80 +
STACK CFI 47820 .cfa: sp 80 +
STACK CFI 47834 .cfa: sp 0 +
STACK CFI 47838 .cfa: x29 80 +
STACK CFI INIT 47840 4c4 .cfa: sp 0 +
STACK CFI 47844 .cfa: sp 32 +
STACK CFI 4784c .cfa: x29 32 + x19: .cfa -16 + ^ .ra: .cfa -24 + ^ x29: .cfa -32 + ^
STACK CFI 478a0 .cfa: sp 32 +
STACK CFI 478a8 .cfa: sp 0 +
STACK CFI 478ac .cfa: x29 32 +
STACK CFI 478ec .cfa: sp 32 +
STACK CFI 478f4 .cfa: sp 0 +
STACK CFI 478f8 .cfa: x29 32 +
STACK CFI 47928 .cfa: sp 32 +
STACK CFI 47930 .cfa: sp 0 +
STACK CFI 47934 .cfa: x29 32 +
STACK CFI 47964 .cfa: sp 32 +
STACK CFI 4796c .cfa: sp 0 +
STACK CFI 47970 .cfa: x29 32 +
STACK CFI 47980 .cfa: sp 32 +
STACK CFI 47988 .cfa: sp 0 +
STACK CFI 4798c .cfa: x29 32 +
STACK CFI 479ac .cfa: sp 32 +
STACK CFI 479b4 .cfa: sp 0 +
STACK CFI 479b8 .cfa: x29 32 +
STACK CFI 479d8 .cfa: sp 32 +
STACK CFI 479e0 .cfa: sp 0 +
STACK CFI 479e4 .cfa: x29 32 +
STACK CFI 47a04 .cfa: sp 32 +
STACK CFI 47a0c .cfa: sp 0 +
STACK CFI 47a10 .cfa: x29 32 +
STACK CFI 47a30 .cfa: sp 32 +
STACK CFI 47a38 .cfa: sp 0 +
STACK CFI 47a3c .cfa: x29 32 +
STACK CFI 47ac0 .cfa: sp 32 +
STACK CFI 47ac8 .cfa: sp 0 +
STACK CFI 47acc .cfa: x29 32 +
STACK CFI 47adc .cfa: sp 32 +
STACK CFI 47ae4 .cfa: sp 0 +
STACK CFI 47ae8 .cfa: x29 32 +
STACK CFI 47af8 .cfa: sp 32 +
STACK CFI 47b00 .cfa: sp 0 +
STACK CFI 47b04 .cfa: x29 32 +
STACK CFI 47b14 .cfa: sp 32 +
STACK CFI 47b1c .cfa: sp 0 +
STACK CFI 47b20 .cfa: x29 32 +
STACK CFI 47b30 .cfa: sp 32 +
STACK CFI 47b38 .cfa: sp 0 +
STACK CFI 47b3c .cfa: x29 32 +
STACK CFI 47b4c .cfa: sp 32 +
STACK CFI 47b54 .cfa: sp 0 +
STACK CFI 47b58 .cfa: x29 32 +
STACK CFI 47b68 .cfa: sp 32 +
STACK CFI 47b70 .cfa: sp 0 +
STACK CFI 47b74 .cfa: x29 32 +
STACK CFI 47b84 .cfa: sp 32 +
STACK CFI 47b8c .cfa: sp 0 +
STACK CFI 47b90 .cfa: x29 32 +
STACK CFI 47bb4 .cfa: sp 32 +
STACK CFI 47bbc .cfa: sp 0 +
STACK CFI 47bc0 .cfa: x29 32 +
STACK CFI 47bd8 .cfa: sp 32 +
STACK CFI 47be0 .cfa: sp 0 +
STACK CFI 47be4 .cfa: x29 32 +
STACK CFI 47bfc .cfa: sp 32 +
STACK CFI 47c04 .cfa: sp 0 +
STACK CFI 47c08 .cfa: x29 32 +
STACK CFI 47c20 .cfa: sp 32 +
STACK CFI 47c28 .cfa: sp 0 +
STACK CFI 47c2c .cfa: x29 32 +
STACK CFI 47c44 .cfa: sp 32 +
STACK CFI 47c4c .cfa: sp 0 +
STACK CFI 47c50 .cfa: x29 32 +
STACK CFI 47c68 .cfa: sp 32 +
STACK CFI 47c70 .cfa: sp 0 +
STACK CFI 47c74 .cfa: x29 32 +
STACK CFI 47c8c .cfa: sp 32 +
STACK CFI 47c94 .cfa: sp 0 +
STACK CFI 47c98 .cfa: x29 32 +
STACK CFI 47cb0 .cfa: sp 32 +
STACK CFI 47cb8 .cfa: sp 0 +
STACK CFI 47cbc .cfa: x29 32 +
STACK CFI 47cd4 .cfa: sp 32 +
STACK CFI 47cdc .cfa: sp 0 +
STACK CFI 47ce0 .cfa: x29 32 +
STACK CFI 47cf4 .cfa: sp 32 +
STACK CFI 47cfc .cfa: sp 0 +
STACK CFI 47d00 .cfa: x29 32 +
STACK CFI INIT 47d04 420 .cfa: sp 0 +
STACK CFI 47d08 .cfa: sp 80 +
STACK CFI 47d1c .cfa: x29 80 + x19: .cfa -8 + ^ x20: .cfa -16 + ^ x21: .cfa -24 + ^ x22: .cfa -32 + ^ x23: .cfa -40 + ^ x24: .cfa -48 + ^ x25: .cfa -64 + ^ .ra: .cfa -72 + ^ x29: .cfa -80 + ^
STACK CFI 47d70 .cfa: sp 80 +
STACK CFI 47d84 .cfa: sp 0 +
STACK CFI 47d88 .cfa: x29 80 +
STACK CFI 47f30 .cfa: sp 80 +
STACK CFI 47f44 .cfa: sp 0 +
STACK CFI 47f48 .cfa: x29 80 +
STACK CFI 48104 .cfa: sp 80 +
STACK CFI 48118 .cfa: sp 0 +
STACK CFI 4811c .cfa: x29 80 +
STACK CFI INIT 48670 1a8 .cfa: sp 0 +
STACK CFI 48674 .cfa: sp 48 +
STACK CFI 48680 .cfa: x29 48 + x19: .cfa -8 + ^ x20: .cfa -16 + ^ x21: .cfa -24 + ^ x22: .cfa -32 + ^ .ra: .cfa -40 + ^ x29: .cfa -48 + ^
STACK CFI 48800 .cfa: sp 48 +
STACK CFI 4880c .cfa: sp 0 +
STACK CFI 48810 .cfa: x29 48 +
STACK CFI INIT 48818 14 .cfa: sp 0 +
STACK CFI 4881c .cfa: sp 16 +
STACK CFI 48820 .cfa: x29 16 + .ra: .cfa -8 + ^ x29: .cfa -16 + ^
STACK CFI INIT 4882c 14 .cfa: sp 0 +
STACK CFI 48830 .cfa: sp 16 +
STACK CFI 48834 .cfa: x29 16 + .ra: .cfa -8 + ^ x29: .cfa -16 + ^
STACK CFI INIT 48840 48 .cfa: sp 0 +
STACK CFI 4885c .cfa: sp 32 +
STACK CFI 48864 .cfa: x29 32 + x19: .cfa -16 + ^ .ra: .cfa -24 + ^ x29: .cfa -32 + ^
STACK CFI 4887c .cfa: sp 32 +
STACK CFI 48884 .cfa: sp 0 +
STACK CFI INIT 48888 30 .cfa: sp 0 +
STACK CFI INIT 488b8 48 .cfa: sp 0 +
STACK CFI 488d4 .cfa: sp 32 +
STACK CFI 488dc .cfa: x29 32 + x19: .cfa -16 + ^ .ra: .cfa -24 + ^ x29: .cfa -32 + ^
STACK CFI 488f4 .cfa: sp 32 +
STACK CFI 488fc .cfa: sp 0 +
STACK CFI INIT 48900 38 .cfa: sp 0 +
STACK CFI INIT 48b10 68 .cfa: sp 0 +
STACK CFI 48b14 .cfa: sp 32 +
STACK CFI 48b1c .cfa: x29 32 + x19: .cfa -16 + ^ .ra: .cfa -24 + ^ x29: .cfa -32 + ^
STACK CFI 48b6c .cfa: sp 32 +
STACK CFI 48b74 .cfa: sp 0 +
STACK CFI INIT 48b78 1c4 .cfa: sp 0 +
STACK CFI INIT 48d3c c4 .cfa: sp 0 +
STACK CFI INIT 48e00 68 .cfa: sp 0 +
STACK CFI 48e04 .cfa: sp 32 +
STACK CFI 48e0c .cfa: x29 32 + x19: .cfa -16 + ^ .ra: .cfa -24 + ^ x29: .cfa -32 + ^
STACK CFI 48e5c .cfa: sp 32 +
STACK CFI 48e64 .cfa: sp 0 +
STACK CFI INIT 48e68 4 .cfa: sp 0 +
STACK CFI INIT 48e6c 14 .cfa: sp 0 +
STACK CFI INIT 48e80 6c .cfa: sp 0 +
STACK CFI 48e84 .cfa: sp 32 +
STACK CFI 48e8c .cfa: x29 32 + x19: .cfa -16 + ^ .ra: .cfa -24 + ^ x29: .cfa -32 + ^
STACK CFI 48ed4 .cfa: sp 32 +
STACK CFI 48edc .cfa: sp 0 +
STACK CFI 48ee0 .cfa: sp 32 +
STACK CFI 48ee8 .cfa: sp 0 +
STACK CFI INIT 48eec 68 .cfa: sp 0 +
STACK CFI 48ef0 .cfa: sp 32 +
STACK CFI 48ef8 .cfa: x29 32 + x19: .cfa -16 + ^ .ra: .cfa -24 + ^ x29: .cfa -32 + ^
STACK CFI 48f48 .cfa: sp 32 +
STACK CFI 48f50 .cfa: sp 0 +
STACK CFI INIT 48f54 c .cfa: sp 0 +
STACK CFI INIT 48f60 24 .cfa: sp 0 +
STACK CFI INIT 48f84 4 .cfa: sp 0 +
STACK CFI INIT 48f88 4 .cfa: sp 0 +
STACK CFI INIT 48f8c 14 .cfa: sp 0 +
STACK CFI INIT 48fec 2fc .cfa: sp 0 +
STACK CFI 48ff0 .cfa: sp 64 +
STACK CFI 49000 .cfa: x29 64 + x19: .cfa -8 + ^ x20: .cfa -16 + ^ x21: .cfa -24 + ^ x22: .cfa -32 + ^ x23: .cfa -40 + ^ x24: .cfa -48 + ^ .ra: .cfa -56 + ^ x29: .cfa -64 + ^
STACK CFI 4917c .cfa: sp 64 +
STACK CFI 4918c .cfa: sp 0 +
STACK CFI 49190 .cfa: x29 64 +
STACK CFI 491d4 .cfa: sp 64 +
STACK CFI 491e4 .cfa: sp 0 +
STACK CFI 491e8 .cfa: x29 64 +
STACK CFI 492b8 .cfa: sp 64 +
STACK CFI 492c8 .cfa: sp 0 +
STACK CFI 492cc .cfa: sp 64 +
STACK CFI 492dc .cfa: sp 0 +
STACK CFI 492e0 .cfa: x29 64 +
STACK CFI INIT 492e8 270 .cfa: sp 0 +
STACK CFI 492ec .cfa: sp 32 +
STACK CFI 492f4 .cfa: x29 32 + x19: .cfa -16 + ^ .ra: .cfa -24 + ^ x29: .cfa -32 + ^
STACK CFI 4932c .cfa: sp 32 +
STACK CFI 49334 .cfa: sp 0 +
STACK CFI 49338 .cfa: x29 32 +
STACK CFI 49480 .cfa: sp 32 +
STACK CFI 49488 .cfa: sp 0 +
STACK CFI 4948c .cfa: x29 32 +
STACK CFI 494c8 .cfa: sp 32 +
STACK CFI 494d0 .cfa: sp 0 +
STACK CFI 494d4 .cfa: x29 32 +
STACK CFI 49548 .cfa: sp 32 +
STACK CFI 49550 .cfa: sp 0 +
STACK CFI 49554 .cfa: x29 32 +
STACK CFI INIT 49558 2c .cfa: sp 0 +
STACK CFI INIT 49584 48 .cfa: sp 0 +
STACK CFI 495a0 .cfa: sp 32 +
STACK CFI 495a8 .cfa: x29 32 + x19: .cfa -16 + ^ .ra: .cfa -24 + ^ x29: .cfa -32 + ^
STACK CFI 495c0 .cfa: sp 32 +
STACK CFI 495c8 .cfa: sp 0 +
STACK CFI INIT 495cc 40 .cfa: sp 0 +
STACK CFI INIT 4960c 60 .cfa: sp 0 +
STACK CFI 49610 .cfa: sp 16 +
STACK CFI 49614 .cfa: x29 16 + .ra: .cfa -8 + ^ x29: .cfa -16 + ^
STACK CFI 49654 .cfa: sp 16 +
STACK CFI 49658 .cfa: sp 0 +
STACK CFI 4965c .cfa: x29 16 +
STACK CFI 49660 .cfa: sp 16 +
STACK CFI 49664 .cfa: sp 0 +
STACK CFI 49668 .cfa: x29 16 +
STACK CFI INIT 4966c 34c .cfa: sp 0 +
STACK CFI 49670 .cfa: sp 80 +
STACK CFI 49684 .cfa: x29 80 + x19: .cfa -8 + ^ x20: .cfa -16 + ^ x21: .cfa -24 + ^ x22: .cfa -32 + ^ x23: .cfa -40 + ^ x24: .cfa -48 + ^ x25: .cfa -64 + ^ .ra: .cfa -72 + ^ x29: .cfa -80 + ^
STACK CFI 49980 .cfa: sp 80 +
STACK CFI 49994 .cfa: sp 0 +
STACK CFI 49998 .cfa: x29 80 +
STACK CFI 4999c .cfa: sp 80 +
STACK CFI 499b0 .cfa: sp 0 +
STACK CFI 499b4 .cfa: x29 80 +
STACK CFI INIT 49d8c 50 .cfa: sp 0 +
STACK CFI 49d90 .cfa: sp 32 +
STACK CFI 49d98 .cfa: x29 32 + x19: .cfa -16 + ^ .ra: .cfa -24 + ^ x29: .cfa -32 + ^
STACK CFI 49db0 .cfa: sp 32 +
STACK CFI 49db8 .cfa: sp 0 +
STACK CFI 49dbc .cfa: x29 32 +
STACK CFI 49dd0 .cfa: sp 32 +
STACK CFI 49dd8 .cfa: sp 0 +
STACK CFI INIT 49ddc 140 .cfa: sp 0 +
STACK CFI 49de0 .cfa: sp 128 +
STACK CFI 49df0 .cfa: x29 48 + x19: .cfa -8 + ^ x20: .cfa -16 + ^ x21: .cfa -32 + ^ .ra: .cfa -40 + ^ x29: .cfa -48 + ^
STACK CFI 49eb8 .cfa: sp 128 +
STACK CFI 49ec8 .cfa: sp 0 +
STACK CFI 49ecc .cfa: x29 48 +
STACK CFI INIT 49f1c 200 .cfa: sp 0 +
STACK CFI INIT 4a190 4 .cfa: sp 0 +
STACK CFI INIT 4a194 14 .cfa: sp 0 +
STACK CFI INIT 4a1a8 4 .cfa: sp 0 +
STACK CFI INIT 4a1ac 14 .cfa: sp 0 +
STACK CFI INIT 4a6a4 50 .cfa: sp 0 +
STACK CFI 4a6a8 .cfa: sp 32 +
STACK CFI 4a6b0 .cfa: x29 32 + x19: .cfa -16 + ^ .ra: .cfa -24 + ^ x29: .cfa -32 + ^
STACK CFI 4a6c8 .cfa: sp 32 +
STACK CFI 4a6d0 .cfa: sp 0 +
STACK CFI 4a6d4 .cfa: x29 32 +
STACK CFI 4a6e8 .cfa: sp 32 +
STACK CFI 4a6f0 .cfa: sp 0 +
STACK CFI INIT 4a6f4 4 .cfa: sp 0 +
STACK CFI INIT 4a6f8 38 .cfa: sp 0 +
STACK CFI 4a6fc .cfa: sp 32 +
STACK CFI 4a704 .cfa: x29 32 + x19: .cfa -16 + ^ .ra: .cfa -24 + ^ x29: .cfa -32 + ^
STACK CFI 4a724 .cfa: sp 32 +
STACK CFI 4a72c .cfa: sp 0 +
STACK CFI INIT 4a730 18 .cfa: sp 0 +
STACK CFI INIT 4a748 4 .cfa: sp 0 +
STACK CFI INIT 4a74c 4 .cfa: sp 0 +
STACK CFI INIT 4a984 1c .cfa: sp 0 +
STACK CFI INIT 4a9a0 c .cfa: sp 0 +
STACK CFI INIT 4a9ac 50 .cfa: sp 0 +
STACK CFI 4a9b0 .cfa: sp 32 +
STACK CFI 4a9b8 .cfa: x29 32 + x19: .cfa -16 + ^ .ra: .cfa -24 + ^ x29: .cfa -32 + ^
STACK CFI 4a9d0 .cfa: sp 32 +
STACK CFI 4a9d8 .cfa: sp 0 +
STACK CFI 4a9dc .cfa: x29 32 +
STACK CFI 4a9f0 .cfa: sp 32 +
STACK CFI 4a9f8 .cfa: sp 0 +
STACK CFI INIT 4a9fc 4 .cfa: sp 0 +
STACK CFI INIT 4ab74 9c .cfa: sp 0 +
STACK CFI 4ab78 .cfa: sp 32 +
STACK CFI 4ab80 .cfa: x29 32 + x19: .cfa -8 + ^ x20: .cfa -16 + ^ .ra: .cfa -24 + ^ x29: .cfa -32 + ^
STACK CFI 4ac04 .cfa: sp 32 +
STACK CFI 4ac0c .cfa: sp 0 +
STACK CFI INIT 4ac10 a4 .cfa: sp 0 +
STACK CFI 4ac14 .cfa: sp 32 +
STACK CFI 4ac1c .cfa: x29 32 + x19: .cfa -8 + ^ x20: .cfa -16 + ^ .ra: .cfa -24 + ^ x29: .cfa -32 + ^
STACK CFI 4aca8 .cfa: sp 32 +
STACK CFI 4acb0 .cfa: sp 0 +
STACK CFI INIT 4acb4 4 .cfa: sp 0 +
STACK CFI INIT 4acb8 4 .cfa: sp 0 +
STACK CFI INIT 4acbc 38 .cfa: sp 0 +
STACK CFI 4acc0 .cfa: sp 32 +
STACK CFI 4acc8 .cfa: x29 32 + x19: .cfa -16 + ^ .ra: .cfa -24 + ^ x29: .cfa -32 + ^
STACK CFI 4ace8 .cfa: sp 32 +
STACK CFI 4acf0 .cfa: sp 0 +
STACK CFI INIT 4acf4 18 .cfa: sp 0 +
STACK CFI INIT 4ad0c 4 .cfa: sp 0 +
STACK CFI INIT 4ad10 4 .cfa: sp 0 +
STACK CFI INIT 4af88 1c .cfa: sp 0 +
STACK CFI INIT 4afa4 c .cfa: sp 0 +
STACK CFI INIT 4afb0 4 .cfa: sp 0 +
STACK CFI INIT 4b128 5c .cfa: sp 0 +
STACK CFI 4b12c .cfa: sp 32 +
STACK CFI 4b134 .cfa: x29 32 + x19: .cfa -16 + ^ .ra: .cfa -24 + ^ x29: .cfa -32 + ^
STACK CFI 4b178 .cfa: sp 32 +
STACK CFI 4b180 .cfa: sp 0 +
STACK CFI INIT 4b184 64 .cfa: sp 0 +
STACK CFI 4b188 .cfa: sp 32 +
STACK CFI 4b190 .cfa: x29 32 + x19: .cfa -16 + ^ .ra: .cfa -24 + ^ x29: .cfa -32 + ^
STACK CFI 4b1dc .cfa: sp 32 +
STACK CFI 4b1e4 .cfa: sp 0 +
STACK CFI INIT 4b1e8 4 .cfa: sp 0 +
STACK CFI INIT 4b1ec 4 .cfa: sp 0 +
STACK CFI INIT 4b1f0 34 .cfa: sp 0 +
STACK CFI 4b1f4 .cfa: sp 32 +
STACK CFI 4b1fc .cfa: x29 32 + x19: .cfa -16 + ^ .ra: .cfa -24 + ^ x29: .cfa -32 + ^
STACK CFI 4b218 .cfa: sp 32 +
STACK CFI 4b220 .cfa: sp 0 +
STACK CFI INIT 4b224 14 .cfa: sp 0 +
STACK CFI INIT 4b238 4 .cfa: sp 0 +
STACK CFI INIT 4b23c 4 .cfa: sp 0 +
STACK CFI INIT 4b240 10 .cfa: sp 0 +
STACK CFI INIT 4b250 1c .cfa: sp 0 +
STACK CFI INIT 4b26c c .cfa: sp 0 +
STACK CFI INIT 4b3a4 3c .cfa: sp 0 +
STACK CFI 4b3a8 .cfa: sp 32 +
STACK CFI 4b3b0 .cfa: x29 32 + x19: .cfa -16 + ^ .ra: .cfa -24 + ^ x29: .cfa -32 + ^
STACK CFI 4b3bc .cfa: sp 32 +
STACK CFI 4b3c4 .cfa: sp 0 +
STACK CFI 4b3c8 .cfa: x29 32 +
STACK CFI 4b3d4 .cfa: sp 32 +
STACK CFI 4b3dc .cfa: sp 0 +
STACK CFI INIT 4b3e0 4c .cfa: sp 0 +
STACK CFI 4b3e4 .cfa: sp 32 +
STACK CFI 4b3ec .cfa: x29 32 + x19: .cfa -8 + ^ x20: .cfa -16 + ^ .ra: .cfa -24 + ^ x29: .cfa -32 + ^
STACK CFI 4b414 .cfa: sp 32 +
STACK CFI 4b41c .cfa: sp 0 +
STACK CFI 4b420 .cfa: sp 32 +
STACK CFI 4b428 .cfa: sp 0 +
STACK CFI INIT 4b64c 64 .cfa: sp 0 +
STACK CFI 4b650 .cfa: sp 32 +
STACK CFI 4b658 .cfa: x29 32 + x19: .cfa -16 + ^ .ra: .cfa -24 + ^ x29: .cfa -32 + ^
STACK CFI 4b684 .cfa: sp 32 +
STACK CFI 4b68c .cfa: sp 0 +
STACK CFI 4b690 .cfa: x29 32 +
STACK CFI 4b6a4 .cfa: sp 32 +
STACK CFI 4b6ac .cfa: sp 0 +
STACK CFI INIT 4b6b0 24 .cfa: sp 0 +
STACK CFI 4b6b4 .cfa: sp 32 +
STACK CFI 4b6bc .cfa: x29 32 + x19: .cfa -16 + ^ .ra: .cfa -24 + ^ x29: .cfa -32 + ^
STACK CFI 4b6c8 .cfa: sp 32 +
STACK CFI 4b6d0 .cfa: sp 0 +
STACK CFI INIT 4b6d4 24 .cfa: sp 0 +
STACK CFI 4b6d8 .cfa: sp 32 +
STACK CFI 4b6e0 .cfa: x29 32 + x19: .cfa -16 + ^ .ra: .cfa -24 + ^ x29: .cfa -32 + ^
STACK CFI 4b6ec .cfa: sp 32 +
STACK CFI 4b6f4 .cfa: sp 0 +
STACK CFI INIT 4b6f8 8 .cfa: sp 0 +
STACK CFI INIT 4b700 24 .cfa: sp 0 +
STACK CFI 4b704 .cfa: sp 32 +
STACK CFI 4b70c .cfa: x29 32 + x19: .cfa -16 + ^ .ra: .cfa -24 + ^ x29: .cfa -32 + ^
STACK CFI 4b718 .cfa: sp 32 +
STACK CFI 4b720 .cfa: sp 0 +
STACK CFI INIT 4b724 28 .cfa: sp 0 +
STACK CFI 4b728 .cfa: sp 32 +
STACK CFI 4b730 .cfa: x29 32 + x19: .cfa -16 + ^ .ra: .cfa -24 + ^ x29: .cfa -32 + ^
STACK CFI 4b740 .cfa: sp 32 +
STACK CFI 4b748 .cfa: sp 0 +
STACK CFI INIT 4ba24 8 .cfa: sp 0 +
STACK CFI INIT 4ba2c 24 .cfa: sp 0 +
STACK CFI 4ba30 .cfa: sp 32 +
STACK CFI 4ba38 .cfa: x29 32 + x19: .cfa -16 + ^ .ra: .cfa -24 + ^ x29: .cfa -32 + ^
STACK CFI 4ba44 .cfa: sp 32 +
STACK CFI 4ba4c .cfa: sp 0 +
STACK CFI INIT 4ba50 28 .cfa: sp 0 +
STACK CFI 4ba54 .cfa: sp 32 +
STACK CFI 4ba5c .cfa: x29 32 + x19: .cfa -16 + ^ .ra: .cfa -24 + ^ x29: .cfa -32 + ^
STACK CFI 4ba6c .cfa: sp 32 +
STACK CFI 4ba74 .cfa: sp 0 +
STACK CFI INIT 4bcc8 8 .cfa: sp 0 +
STACK CFI INIT 4bcd0 24 .cfa: sp 0 +
STACK CFI 4bcd4 .cfa: sp 32 +
STACK CFI 4bcdc .cfa: x29 32 + x19: .cfa -16 + ^ .ra: .cfa -24 + ^ x29: .cfa -32 + ^
STACK CFI 4bce8 .cfa: sp 32 +
STACK CFI 4bcf0 .cfa: sp 0 +
STACK CFI INIT 4bcf4 28 .cfa: sp 0 +
STACK CFI 4bcf8 .cfa: sp 32 +
STACK CFI 4bd00 .cfa: x29 32 + x19: .cfa -16 + ^ .ra: .cfa -24 + ^ x29: .cfa -32 + ^
STACK CFI 4bd10 .cfa: sp 32 +
STACK CFI 4bd18 .cfa: sp 0 +
STACK CFI INIT 4bd1c 8 .cfa: sp 0 +
STACK CFI INIT 4bd24 24 .cfa: sp 0 +
STACK CFI 4bd28 .cfa: sp 32 +
STACK CFI 4bd30 .cfa: x29 32 + x19: .cfa -16 + ^ .ra: .cfa -24 + ^ x29: .cfa -32 + ^
STACK CFI 4bd3c .cfa: sp 32 +
STACK CFI 4bd44 .cfa: sp 0 +
STACK CFI INIT 4bd48 28 .cfa: sp 0 +
STACK CFI 4bd4c .cfa: sp 32 +
STACK CFI 4bd54 .cfa: x29 32 + x19: .cfa -16 + ^ .ra: .cfa -24 + ^ x29: .cfa -32 + ^
STACK CFI 4bd64 .cfa: sp 32 +
STACK CFI 4bd6c .cfa: sp 0 +
STACK CFI INIT 4d400 24 .cfa: sp 0 +
STACK CFI 4d404 .cfa: sp 32 +
STACK CFI 4d40c .cfa: x29 32 + x19: .cfa -16 + ^ .ra: .cfa -24 + ^ x29: .cfa -32 + ^
STACK CFI 4d418 .cfa: sp 32 +
STACK CFI 4d420 .cfa: sp 0 +
STACK CFI INIT 4e3e8 8 .cfa: sp 0 +
STACK CFI INIT 4e3f0 24 .cfa: sp 0 +
STACK CFI 4e3f4 .cfa: sp 32 +
STACK CFI 4e3fc .cfa: x29 32 + x19: .cfa -16 + ^ .ra: .cfa -24 + ^ x29: .cfa -32 + ^
STACK CFI 4e408 .cfa: sp 32 +
STACK CFI 4e410 .cfa: sp 0 +
STACK CFI INIT 4e414 28 .cfa: sp 0 +
STACK CFI 4e418 .cfa: sp 32 +
STACK CFI 4e420 .cfa: x29 32 + x19: .cfa -16 + ^ .ra: .cfa -24 + ^ x29: .cfa -32 + ^
STACK CFI 4e430 .cfa: sp 32 +
STACK CFI 4e438 .cfa: sp 0 +
STACK CFI INIT 4ea54 8 .cfa: sp 0 +
STACK CFI INIT 4f184 8 .cfa: sp 0 +
STACK CFI INIT 4f5bc 8 .cfa: sp 0 +
STACK CFI INIT 4f818 4 .cfa: sp 0 +
STACK CFI INIT 4f81c 8 .cfa: sp 0 +
STACK CFI INIT 4f824 8 .cfa: sp 0 +
STACK CFI INIT 4f82c 4 .cfa: sp 0 +
STACK CFI INIT 50a10 8 .cfa: sp 0 +
STACK CFI INIT 50a18 24 .cfa: sp 0 +
STACK CFI 50a1c .cfa: sp 32 +
STACK CFI 50a24 .cfa: x29 32 + x19: .cfa -16 + ^ .ra: .cfa -24 + ^ x29: .cfa -32 + ^
STACK CFI 50a30 .cfa: sp 32 +
STACK CFI 50a38 .cfa: sp 0 +
STACK CFI INIT 50a3c 28 .cfa: sp 0 +
STACK CFI 50a40 .cfa: sp 32 +
STACK CFI 50a48 .cfa: x29 32 + x19: .cfa -16 + ^ .ra: .cfa -24 + ^ x29: .cfa -32 + ^
STACK CFI 50a58 .cfa: sp 32 +
STACK CFI 50a60 .cfa: sp 0 +
STACK CFI INIT 50cb8 4 .cfa: sp 0 +
STACK CFI INIT 51d94 4 .cfa: sp 0 +
STACK CFI INIT 51d98 14 .cfa: sp 0 +
STACK CFI INIT 5228c c .cfa: sp 0 +
STACK CFI INIT 52298 24c .cfa: sp 0 +
STACK CFI INIT 524e4 a0 .cfa: sp 0 +
STACK CFI 524f0 .cfa: sp 32 +
STACK CFI 52548 .cfa: sp 0 +
STACK CFI 5254c .cfa: sp 32 +
STACK CFI 52554 .cfa: sp 0 +
STACK CFI 52558 .cfa: sp 32 +
STACK CFI 5256c .cfa: sp 0 +
STACK CFI 52570 .cfa: sp 32 +
STACK CFI 52580 .cfa: sp 0 +
STACK CFI INIT 52584 38 .cfa: sp 0 +
STACK CFI 52590 .cfa: sp 32 +
STACK CFI 525b8 .cfa: sp 0 +
STACK CFI INIT 52850 7c .cfa: sp 0 +
STACK CFI 52854 .cfa: sp 32 +
STACK CFI 5285c .cfa: x29 32 + x19: .cfa -16 + ^ .ra: .cfa -24 + ^ x29: .cfa -32 + ^
STACK CFI 52888 .cfa: sp 32 +
STACK CFI 52890 .cfa: sp 0 +
STACK CFI 52894 .cfa: x29 32 +
STACK CFI 528c0 .cfa: sp 32 +
STACK CFI 528c8 .cfa: sp 0 +
STACK CFI INIT 5291c 2c .cfa: sp 0 +
STACK CFI 52920 .cfa: sp 32 +
STACK CFI 52928 .cfa: x29 32 + x19: .cfa -16 + ^ .ra: .cfa -24 + ^ x29: .cfa -32 + ^
STACK CFI 5293c .cfa: sp 32 +
STACK CFI 52944 .cfa: sp 0 +
STACK CFI INIT 53108 64 .cfa: sp 0 +
STACK CFI 5310c .cfa: sp 32 +
STACK CFI 53114 .cfa: x29 32 + x19: .cfa -16 + ^ .ra: .cfa -24 + ^ x29: .cfa -32 + ^
STACK CFI 53130 .cfa: sp 32 +
STACK CFI 53138 .cfa: sp 0 +
STACK CFI 5313c .cfa: x29 32 +
STACK CFI 53160 .cfa: sp 32 +
STACK CFI 53168 .cfa: sp 0 +
STACK CFI INIT 532a8 570 .cfa: sp 0 +
STACK CFI 532ac .cfa: sp 176 +
STACK CFI 532c0 .cfa: x29 64 + x19: .cfa -8 + ^ x20: .cfa -16 + ^ x21: .cfa -24 + ^ x22: .cfa -32 + ^ x23: .cfa -40 + ^ x24: .cfa -48 + ^ .ra: .cfa -56 + ^ x29: .cfa -64 + ^
STACK CFI 534f0 .cfa: sp 176 +
STACK CFI 53504 .cfa: sp 0 +
STACK CFI 53508 .cfa: x29 64 +
STACK CFI 53554 .cfa: sp 176 +
STACK CFI 53568 .cfa: sp 0 +
STACK CFI 5356c .cfa: x29 64 +
STACK CFI 535a4 .cfa: sp 176 +
STACK CFI 535b8 .cfa: sp 0 +
STACK CFI 535bc .cfa: x29 64 +
STACK CFI 535d4 .cfa: sp 176 +
STACK CFI 535e8 .cfa: sp 0 +
STACK CFI 535ec .cfa: x29 64 +
STACK CFI 5360c .cfa: sp 176 +
STACK CFI 53620 .cfa: sp 0 +
STACK CFI 53624 .cfa: x29 64 +
STACK CFI 5363c .cfa: sp 176 +
STACK CFI 53650 .cfa: sp 0 +
STACK CFI 53654 .cfa: x29 64 +
STACK CFI 53668 .cfa: sp 176 +
STACK CFI 5367c .cfa: sp 0 +
STACK CFI 53680 .cfa: x29 64 +
STACK CFI 53694 .cfa: sp 176 +
STACK CFI 536a8 .cfa: sp 0 +
STACK CFI 536ac .cfa: x29 64 +
STACK CFI 536bc .cfa: sp 176 +
STACK CFI 536d0 .cfa: sp 0 +
STACK CFI 536d4 .cfa: x29 64 +
STACK CFI 536e4 .cfa: sp 176 +
STACK CFI 536f8 .cfa: sp 0 +
STACK CFI 536fc .cfa: x29 64 +
STACK CFI 53714 .cfa: sp 176 +
STACK CFI 53728 .cfa: sp 0 +
STACK CFI 5372c .cfa: x29 64 +
STACK CFI 53740 .cfa: sp 176 +
STACK CFI 53754 .cfa: sp 0 +
STACK CFI 53758 .cfa: x29 64 +
STACK CFI 53770 .cfa: sp 176 +
STACK CFI 53784 .cfa: sp 0 +
STACK CFI 53788 .cfa: x29 64 +
STACK CFI 537b4 .cfa: sp 176 +
STACK CFI 537c8 .cfa: sp 0 +
STACK CFI 537cc .cfa: x29 64 +
STACK CFI 537e0 .cfa: sp 176 +
STACK CFI 537f4 .cfa: sp 0 +
STACK CFI 537f8 .cfa: x29 64 +
STACK CFI INIT 53818 228 .cfa: sp 0 +
STACK CFI INIT 53a40 2dc .cfa: sp 0 +
STACK CFI INIT 53d1c 53c .cfa: sp 0 +
STACK CFI INIT 54258 78 .cfa: sp 0 +
STACK CFI 5425c .cfa: sp 48 +
STACK CFI 54268 .cfa: x29 48 + x19: .cfa -8 + ^ x20: .cfa -16 + ^ x21: .cfa -24 + ^ x22: .cfa -32 + ^ .ra: .cfa -40 + ^ x29: .cfa -48 + ^
STACK CFI 542b0 .cfa: sp 48 +
STACK CFI 542bc .cfa: sp 0 +
STACK CFI 542c0 .cfa: sp 48 +
STACK CFI 542cc .cfa: sp 0 +
STACK CFI INIT 542d0 8c .cfa: sp 0 +
STACK CFI 542d4 .cfa: sp 32 +
STACK CFI 542dc .cfa: x29 32 + x19: .cfa -16 + ^ .ra: .cfa -24 + ^ x29: .cfa -32 + ^
STACK CFI 54310 .cfa: sp 32 +
STACK CFI 54318 .cfa: sp 0 +
STACK CFI 5431c .cfa: x29 32 +
STACK CFI 54350 .cfa: sp 32 +
STACK CFI 54358 .cfa: sp 0 +
STACK CFI INIT 5435c 24 .cfa: sp 0 +
STACK CFI 54360 .cfa: sp 32 +
STACK CFI 54368 .cfa: x29 32 + x19: .cfa -16 + ^ .ra: .cfa -24 + ^ x29: .cfa -32 + ^
STACK CFI 54374 .cfa: sp 32 +
STACK CFI 5437c .cfa: sp 0 +
STACK CFI INIT 54380 150 .cfa: sp 0 +
STACK CFI 54384 .cfa: sp 48 +
STACK CFI 54390 .cfa: x29 48 + x19: .cfa -8 + ^ x20: .cfa -16 + ^ x21: .cfa -24 + ^ x22: .cfa -32 + ^ .ra: .cfa -40 + ^ x29: .cfa -48 + ^
STACK CFI 544c0 .cfa: sp 48 +
STACK CFI 544cc .cfa: sp 0 +
STACK CFI INIT 544d0 68 .cfa: sp 0 +
STACK CFI 544d4 .cfa: sp 64 +
STACK CFI 544e0 .cfa: x29 32 + x19: .cfa -16 + ^ .ra: .cfa -24 + ^ x29: .cfa -32 + ^
STACK CFI 54524 .cfa: sp 64 +
STACK CFI 54530 .cfa: sp 0 +
STACK CFI 54534 .cfa: x29 32 +
STACK CFI INIT 54538 90 .cfa: sp 0 +
STACK CFI 5453c .cfa: sp 32 +
STACK CFI 54544 .cfa: x29 32 + x19: .cfa -8 + ^ x20: .cfa -16 + ^ .ra: .cfa -24 + ^ x29: .cfa -32 + ^
STACK CFI 54570 .cfa: sp 32 +
STACK CFI 54578 .cfa: sp 0 +
STACK CFI 5457c .cfa: x29 32 +
STACK CFI 545bc .cfa: sp 32 +
STACK CFI 545c4 .cfa: sp 0 +
STACK CFI INIT 545c8 ec .cfa: sp 0 +
STACK CFI 545cc .cfa: sp 112 +
STACK CFI 545dc .cfa: x29 48 + x19: .cfa -8 + ^ x20: .cfa -16 + ^ x21: .cfa -32 + ^ .ra: .cfa -40 + ^ x29: .cfa -48 + ^
STACK CFI 5469c .cfa: sp 112 +
STACK CFI 546ac .cfa: sp 0 +
STACK CFI 546b0 .cfa: x29 48 +
STACK CFI INIT 546b4 ec .cfa: sp 0 +
STACK CFI 546b8 .cfa: sp 112 +
STACK CFI 546c8 .cfa: x29 48 + x19: .cfa -8 + ^ x20: .cfa -16 + ^ x21: .cfa -32 + ^ .ra: .cfa -40 + ^ x29: .cfa -48 + ^
STACK CFI 54788 .cfa: sp 112 +
STACK CFI 54798 .cfa: sp 0 +
STACK CFI 5479c .cfa: x29 48 +
STACK CFI INIT 547a0 48 .cfa: sp 0 +
STACK CFI 547a4 .cfa: sp 32 +
STACK CFI 547ac .cfa: x29 32 + x19: .cfa -8 + ^ x20: .cfa -16 + ^ .ra: .cfa -24 + ^ x29: .cfa -32 + ^
STACK CFI 547d0 .cfa: sp 32 +
STACK CFI 547d8 .cfa: sp 0 +
STACK CFI 547dc .cfa: x29 32 +
STACK CFI INIT 547e8 98 .cfa: sp 0 +
STACK CFI 547ec .cfa: sp 80 +
STACK CFI 547f8 .cfa: x29 32 + x19: .cfa -16 + ^ .ra: .cfa -24 + ^ x29: .cfa -32 + ^
STACK CFI 5486c .cfa: sp 80 +
STACK CFI 54878 .cfa: sp 0 +
STACK CFI 5487c .cfa: x29 32 +
STACK CFI INIT 54880 260 .cfa: sp 0 +
STACK CFI 54884 .cfa: sp 112 +
STACK CFI 5489c .cfa: x29 80 + x19: .cfa -8 + ^ x20: .cfa -16 + ^ x21: .cfa -24 + ^ x22: .cfa -32 + ^ x23: .cfa -40 + ^ x24: .cfa -48 + ^ x25: .cfa -64 + ^ .ra: .cfa -72 + ^ x29: .cfa -80 + ^
STACK CFI 54a80 .cfa: sp 112 +
STACK CFI 54a98 .cfa: sp 0 +
STACK CFI 54a9c .cfa: x29 80 +
STACK CFI INIT 54ae0 150 .cfa: sp 0 +
STACK CFI 54ae4 .cfa: sp 48 +
STACK CFI 54af0 .cfa: x29 48 + x19: .cfa -8 + ^ x20: .cfa -16 + ^ x21: .cfa -24 + ^ x22: .cfa -32 + ^ .ra: .cfa -40 + ^ x29: .cfa -48 + ^
STACK CFI 54c20 .cfa: sp 48 +
STACK CFI 54c2c .cfa: sp 0 +
STACK CFI INIT 54c30 1e0 .cfa: sp 0 +
STACK CFI 54c34 .cfa: sp 96 +
STACK CFI 54c48 .cfa: x29 64 + x19: .cfa -8 + ^ x20: .cfa -16 + ^ x21: .cfa -24 + ^ x22: .cfa -32 + ^ x23: .cfa -40 + ^ x24: .cfa -48 + ^ .ra: .cfa -56 + ^ x29: .cfa -64 + ^
STACK CFI 54dc8 .cfa: sp 96 +
STACK CFI 54ddc .cfa: sp 0 +
STACK CFI 54de0 .cfa: x29 64 +
STACK CFI INIT 54e10 284 .cfa: sp 0 +
STACK CFI 54e14 .cfa: sp 112 +
STACK CFI 54e2c .cfa: x29 80 + x19: .cfa -8 + ^ x20: .cfa -16 + ^ x21: .cfa -24 + ^ x22: .cfa -32 + ^ x23: .cfa -40 + ^ x24: .cfa -48 + ^ x25: .cfa -64 + ^ .ra: .cfa -72 + ^ x29: .cfa -80 + ^
STACK CFI 55034 .cfa: sp 112 +
STACK CFI 5504c .cfa: sp 0 +
STACK CFI 55050 .cfa: x29 80 +
STACK CFI INIT 55094 208 .cfa: sp 0 +
STACK CFI 55098 .cfa: sp 96 +
STACK CFI 550ac .cfa: x29 64 + x19: .cfa -8 + ^ x20: .cfa -16 + ^ x21: .cfa -24 + ^ x22: .cfa -32 + ^ x23: .cfa -40 + ^ x24: .cfa -48 + ^ .ra: .cfa -56 + ^ x29: .cfa -64 + ^
STACK CFI 55254 .cfa: sp 96 +
STACK CFI 55268 .cfa: sp 0 +
STACK CFI 5526c .cfa: x29 64 +
STACK CFI INIT 5529c 360 .cfa: sp 0 +
STACK CFI 552a0 .cfa: sp 160 +
STACK CFI 552bc .cfa: x29 96 + x19: .cfa -8 + ^ x20: .cfa -16 + ^ x21: .cfa -24 + ^ x22: .cfa -32 + ^ x23: .cfa -40 + ^ x24: .cfa -48 + ^ x25: .cfa -56 + ^ x26: .cfa -64 + ^ x27: .cfa -72 + ^ x28: .cfa -80 + ^ .ra: .cfa -88 + ^ x29: .cfa -96 + ^
STACK CFI 55588 .cfa: sp 160 +
STACK CFI 555a4 .cfa: sp 0 +
STACK CFI 555a8 .cfa: x29 96 +
STACK CFI INIT 555fc 314 .cfa: sp 0 +
STACK CFI 55600 .cfa: sp 144 +
STACK CFI 5561c .cfa: x29 96 + x19: .cfa -8 + ^ x20: .cfa -16 + ^ x21: .cfa -24 + ^ x22: .cfa -32 + ^ x23: .cfa -40 + ^ x24: .cfa -48 + ^ x25: .cfa -56 + ^ x26: .cfa -64 + ^ x27: .cfa -72 + ^ x28: .cfa -80 + ^ .ra: .cfa -88 + ^ x29: .cfa -96 + ^
STACK CFI 55898 .cfa: sp 144 +
STACK CFI 558b4 .cfa: sp 0 +
STACK CFI 558b8 .cfa: x29 96 +
STACK CFI INIT 55910 2b4 .cfa: sp 0 +
STACK CFI 55914 .cfa: sp 128 +
STACK CFI 5592c .cfa: x29 80 + x19: .cfa -8 + ^ x20: .cfa -16 + ^ x21: .cfa -24 + ^ x22: .cfa -32 + ^ x23: .cfa -40 + ^ x24: .cfa -48 + ^ x25: .cfa -56 + ^ x26: .cfa -64 + ^ .ra: .cfa -72 + ^ x29: .cfa -80 + ^
STACK CFI 55b20 .cfa: sp 128 +
STACK CFI 55b38 .cfa: sp 0 +
STACK CFI 55b3c .cfa: x29 80 +
STACK CFI 55ba4 .cfa: sp 128 +
STACK CFI 55bbc .cfa: sp 0 +
STACK CFI 55bc0 .cfa: x29 80 +
STACK CFI INIT 55bc4 de0 .cfa: sp 0 +
STACK CFI 55bc8 .cfa: sp 144 +
STACK CFI 55be4 .cfa: x29 96 + x19: .cfa -8 + ^ x20: .cfa -16 + ^ x21: .cfa -24 + ^ x22: .cfa -32 + ^ x23: .cfa -40 + ^ x24: .cfa -48 + ^ x25: .cfa -56 + ^ x26: .cfa -64 + ^ x27: .cfa -72 + ^ x28: .cfa -80 + ^ .ra: .cfa -88 + ^ x29: .cfa -96 + ^
STACK CFI 5687c .cfa: sp 144 +
STACK CFI 56898 .cfa: sp 0 +
STACK CFI 5689c .cfa: x29 96 +
STACK CFI INIT 569a4 264 .cfa: sp 0 +
STACK CFI 569a8 .cfa: sp 112 +
STACK CFI 569bc .cfa: x29 64 + x19: .cfa -8 + ^ x20: .cfa -16 + ^ x21: .cfa -24 + ^ x22: .cfa -32 + ^ x23: .cfa -40 + ^ x24: .cfa -48 + ^ .ra: .cfa -56 + ^ x29: .cfa -64 + ^
STACK CFI 56b38 .cfa: sp 112 +
STACK CFI 56b4c .cfa: sp 0 +
STACK CFI 56b50 .cfa: x29 64 +
STACK CFI 56bc0 .cfa: sp 112 +
STACK CFI 56bd4 .cfa: sp 0 +
STACK CFI 56bd8 .cfa: x29 64 +
STACK CFI INIT 56c08 258 .cfa: sp 0 +
STACK CFI 56c0c .cfa: sp 96 +
STACK CFI 56c24 .cfa: x29 96 + x19: .cfa -8 + ^ x20: .cfa -16 + ^ x21: .cfa -24 + ^ x22: .cfa -32 + ^ x23: .cfa -40 + ^ x24: .cfa -48 + ^ x25: .cfa -56 + ^ x26: .cfa -64 + ^ x27: .cfa -72 + ^ x28: .cfa -80 + ^ .ra: .cfa -88 + ^ x29: .cfa -96 + ^
STACK CFI 56e1c .cfa: sp 96 +
STACK CFI 56e34 .cfa: sp 0 +
STACK CFI 56e38 .cfa: x29 96 +
STACK CFI 56e44 .cfa: sp 96 +
STACK CFI 56e5c .cfa: sp 0 +
STACK CFI INIT 57ae4 154 .cfa: sp 0 +
STACK CFI 57ae8 .cfa: sp 96 +
STACK CFI 57afc .cfa: x29 64 + x19: .cfa -8 + ^ x20: .cfa -16 + ^ x21: .cfa -24 + ^ x22: .cfa -32 + ^ x23: .cfa -48 + ^ .ra: .cfa -56 + ^ x29: .cfa -64 + ^
STACK CFI 57bdc .cfa: sp 96 +
STACK CFI 57bf0 .cfa: sp 0 +
STACK CFI 57bf4 .cfa: x29 64 +
STACK CFI INIT 57ea4 44 .cfa: sp 0 +
STACK CFI 57ea8 .cfa: sp 32 +
STACK CFI 57eb0 .cfa: x29 32 + x19: .cfa -16 + ^ .ra: .cfa -24 + ^ x29: .cfa -32 + ^
STACK CFI 57ecc .cfa: sp 32 +
STACK CFI 57ed4 .cfa: sp 0 +
STACK CFI 57ed8 .cfa: x29 32 +
STACK CFI 57edc .cfa: sp 32 +
STACK CFI 57ee4 .cfa: sp 0 +
STACK CFI INIT 57ee8 1d0 .cfa: sp 0 +
STACK CFI 57eec .cfa: sp 64 +
STACK CFI 57efc .cfa: x29 64 + x19: .cfa -8 + ^ x20: .cfa -16 + ^ x21: .cfa -24 + ^ x22: .cfa -32 + ^ x23: .cfa -40 + ^ x24: .cfa -48 + ^ .ra: .cfa -56 + ^ x29: .cfa -64 + ^
STACK CFI 57fbc .cfa: sp 64 +
STACK CFI 57fcc .cfa: sp 0 +
STACK CFI 57fd0 .cfa: x29 64 +
STACK CFI INIT 580b8 17c .cfa: sp 0 +
STACK CFI INIT 585ec a0 .cfa: sp 0 +
STACK CFI 585f0 .cfa: sp 48 +
STACK CFI 585fc .cfa: x29 48 + x19: .cfa -8 + ^ x20: .cfa -16 + ^ x21: .cfa -24 + ^ x22: .cfa -32 + ^ .ra: .cfa -40 + ^ x29: .cfa -48 + ^
STACK CFI 58668 .cfa: sp 48 +
STACK CFI 58674 .cfa: sp 0 +
STACK CFI 58678 .cfa: sp 48 +
STACK CFI 58684 .cfa: sp 0 +
STACK CFI 58688 .cfa: x29 48 +
STACK CFI INIT 5934c 158 .cfa: sp 0 +
STACK CFI 59350 .cfa: sp 96 +
STACK CFI 59364 .cfa: x29 64 + x19: .cfa -8 + ^ x20: .cfa -16 + ^ x21: .cfa -24 + ^ x22: .cfa -32 + ^ x23: .cfa -48 + ^ .ra: .cfa -56 + ^ x29: .cfa -64 + ^
STACK CFI 59448 .cfa: sp 96 +
STACK CFI 5945c .cfa: sp 0 +
STACK CFI 59460 .cfa: x29 64 +
STACK CFI INIT 594a4 190 .cfa: sp 0 +
STACK CFI INIT 5a12c 1f4 .cfa: sp 0 +
STACK CFI 5a130 .cfa: sp 80 +
STACK CFI 5a144 .cfa: x29 80 + x19: .cfa -8 + ^ x20: .cfa -16 + ^ x21: .cfa -24 + ^ x22: .cfa -32 + ^ x23: .cfa -40 + ^ x24: .cfa -48 + ^ x25: .cfa -64 + ^ .ra: .cfa -72 + ^ x29: .cfa -80 + ^
STACK CFI 5a2e4 .cfa: sp 80 +
STACK CFI 5a2f8 .cfa: sp 0 +
STACK CFI 5a2fc .cfa: x29 80 +
STACK CFI 5a308 .cfa: sp 80 +
STACK CFI 5a31c .cfa: sp 0 +
STACK CFI INIT 5b750 124 .cfa: sp 0 +
STACK CFI 5b780 .cfa: sp 32 +
STACK CFI 5b788 .cfa: x29 32 + x19: .cfa -8 + ^ x20: .cfa -16 + ^ .ra: .cfa -24 + ^ x29: .cfa -32 + ^
STACK CFI 5b868 .cfa: sp 32 +
STACK CFI 5b870 .cfa: sp 0 +
STACK CFI INIT 5bfd0 320 .cfa: sp 0 +
STACK CFI 5bfd4 .cfa: sp 64 +
STACK CFI 5bfe4 .cfa: x29 64 + x19: .cfa -8 + ^ x20: .cfa -16 + ^ x21: .cfa -24 + ^ x22: .cfa -32 + ^ x23: .cfa -40 + ^ x24: .cfa -48 + ^ .ra: .cfa -56 + ^ x29: .cfa -64 + ^
STACK CFI 5c060 .cfa: sp 64 +
STACK CFI 5c070 .cfa: sp 0 +
STACK CFI 5c074 .cfa: x29 64 +
STACK CFI 5c248 .cfa: sp 64 +
STACK CFI 5c258 .cfa: sp 0 +
STACK CFI 5c25c .cfa: x29 64 +
STACK CFI 5c26c .cfa: sp 64 +
STACK CFI 5c27c .cfa: sp 0 +
STACK CFI 5c280 .cfa: x29 64 +
STACK CFI INIT 5c2f0 a0 .cfa: sp 0 +
STACK CFI 5c2f4 .cfa: sp 48 +
STACK CFI 5c300 .cfa: x29 48 + x19: .cfa -8 + ^ x20: .cfa -16 + ^ x21: .cfa -24 + ^ x22: .cfa -32 + ^ .ra: .cfa -40 + ^ x29: .cfa -48 + ^
STACK CFI 5c36c .cfa: sp 48 +
STACK CFI 5c378 .cfa: sp 0 +
STACK CFI 5c37c .cfa: sp 48 +
STACK CFI 5c388 .cfa: sp 0 +
STACK CFI 5c38c .cfa: x29 48 +
STACK CFI INIT 5d270 160 .cfa: sp 0 +
STACK CFI 5d274 .cfa: sp 64 +
STACK CFI 5d284 .cfa: x29 64 + x19: .cfa -8 + ^ x20: .cfa -16 + ^ x21: .cfa -24 + ^ x22: .cfa -32 + ^ x23: .cfa -48 + ^ .ra: .cfa -56 + ^ x29: .cfa -64 + ^
STACK CFI 5d37c .cfa: sp 64 +
STACK CFI 5d38c .cfa: sp 0 +
STACK CFI 5d390 .cfa: x29 64 +
STACK CFI INIT 5d3d0 214 .cfa: sp 0 +
STACK CFI 5d3d4 .cfa: sp 128 +
STACK CFI 5d3f0 .cfa: x29 96 + x19: .cfa -8 + ^ x20: .cfa -16 + ^ x21: .cfa -24 + ^ x22: .cfa -32 + ^ x23: .cfa -40 + ^ x24: .cfa -48 + ^ x25: .cfa -56 + ^ x26: .cfa -64 + ^ x27: .cfa -80 + ^ .ra: .cfa -88 + ^ x29: .cfa -96 + ^
STACK CFI 5d56c .cfa: sp 128 +
STACK CFI 5d588 .cfa: sp 0 +
STACK CFI 5d58c .cfa: x29 96 +
STACK CFI INIT 5ea98 e60 .cfa: sp 0 +
STACK CFI 5ea9c .cfa: sp 192 +
STACK CFI 5eab8 .cfa: x29 96 + x19: .cfa -8 + ^ x20: .cfa -16 + ^ x21: .cfa -24 + ^ x22: .cfa -32 + ^ x23: .cfa -40 + ^ x24: .cfa -48 + ^ x25: .cfa -56 + ^ x26: .cfa -64 + ^ x27: .cfa -72 + ^ x28: .cfa -80 + ^ .ra: .cfa -88 + ^ x29: .cfa -96 + ^
STACK CFI 5f7e0 .cfa: sp 192 +
STACK CFI 5f7fc .cfa: sp 0 +
STACK CFI 5f800 .cfa: x29 96 +
STACK CFI INIT 5f8f8 1090 .cfa: sp 0 +
STACK CFI 5f8fc .cfa: sp 288 +
STACK CFI 5f918 .cfa: x29 96 + x19: .cfa -8 + ^ x20: .cfa -16 + ^ x21: .cfa -24 + ^ x22: .cfa -32 + ^ x23: .cfa -40 + ^ x24: .cfa -48 + ^ x25: .cfa -56 + ^ x26: .cfa -64 + ^ x27: .cfa -72 + ^ x28: .cfa -80 + ^ .ra: .cfa -88 + ^ x29: .cfa -96 + ^
STACK CFI 606d0 .cfa: sp 288 +
STACK CFI 606ec .cfa: sp 0 +
STACK CFI 606f0 .cfa: x29 96 +
STACK CFI INIT 60988 520 .cfa: sp 0 +
STACK CFI 6098c .cfa: sp 144 +
STACK CFI 609a8 .cfa: x29 96 + x19: .cfa -8 + ^ x20: .cfa -16 + ^ x21: .cfa -24 + ^ x22: .cfa -32 + ^ x23: .cfa -40 + ^ x24: .cfa -48 + ^ x25: .cfa -56 + ^ x26: .cfa -64 + ^ x27: .cfa -72 + ^ x28: .cfa -80 + ^ .ra: .cfa -88 + ^ x29: .cfa -96 + ^
STACK CFI 60e84 .cfa: sp 144 +
STACK CFI 60ea0 .cfa: sp 0 +
STACK CFI 60ea4 .cfa: x29 96 +
STACK CFI INIT 28a70 108 .cfa: sp 0 +
STACK CFI 28a74 .cfa: sp 32 +
STACK CFI 28a7c .cfa: x29 32 + x19: .cfa -8 + ^ x20: .cfa -16 + ^ .ra: .cfa -24 + ^ x29: .cfa -32 + ^
STACK CFI 28b34 .cfa: sp 32 +
STACK CFI 28b3c .cfa: sp 0 +
STACK CFI 28b40 .cfa: x29 32 +
STACK CFI 28b58 .cfa: sp 32 +
STACK CFI 28b60 .cfa: sp 0 +
STACK CFI 28b64 .cfa: x29 32 +
STACK CFI INIT 28b78 de4 .cfa: sp 0 +
STACK CFI 28b7c .cfa: sp 96 +
STACK CFI 28b94 .cfa: x29 96 + x19: .cfa -8 + ^ x20: .cfa -16 + ^ x21: .cfa -24 + ^ x22: .cfa -32 + ^ x23: .cfa -40 + ^ x24: .cfa -48 + ^ x25: .cfa -56 + ^ x26: .cfa -64 + ^ x27: .cfa -72 + ^ x28: .cfa -80 + ^ .ra: .cfa -88 + ^ x29: .cfa -96 + ^
STACK CFI 29868 .cfa: sp 96 +
STACK CFI 29880 .cfa: sp 0 +
STACK CFI 29884 .cfa: x29 96 +
STACK CFI INIT 2995c 21c .cfa: sp 0 +
STACK CFI 29960 .cfa: sp 112 +
STACK CFI 29970 .cfa: x29 48 + x19: .cfa -8 + ^ x20: .cfa -16 + ^ x21: .cfa -32 + ^ .ra: .cfa -40 + ^ x29: .cfa -48 + ^
STACK CFI 29ad0 .cfa: sp 112 +
STACK CFI 29ae0 .cfa: sp 0 +
STACK CFI 29ae4 .cfa: x29 48 +
STACK CFI INIT 29b78 1c .cfa: sp 0 +
STACK CFI 29b7c .cfa: sp 16 +
STACK CFI 29b80 .cfa: x29 16 + .ra: .cfa -8 + ^ x29: .cfa -16 + ^
STACK CFI 29b88 .cfa: sp 16 +
STACK CFI 29b8c .cfa: sp 0 +
STACK CFI 29b90 .cfa: x29 16 +
STACK CFI INIT 29ca0 2b8 .cfa: sp 0 +
STACK CFI 29ca4 .cfa: sp 160 +
STACK CFI 29cc0 .cfa: x29 96 + x19: .cfa -8 + ^ x20: .cfa -16 + ^ x21: .cfa -24 + ^ x22: .cfa -32 + ^ x23: .cfa -40 + ^ x24: .cfa -48 + ^ x25: .cfa -56 + ^ x26: .cfa -64 + ^ x27: .cfa -72 + ^ x28: .cfa -80 + ^ .ra: .cfa -88 + ^ x29: .cfa -96 + ^
STACK CFI 29cf8 .cfa: sp 160 +
STACK CFI 29d14 .cfa: sp 0 +
STACK CFI 29d18 .cfa: x29 96 +
STACK CFI INIT 29f58 114 .cfa: sp 0 +
STACK CFI 29f5c .cfa: sp 64 +
STACK CFI 29f6c .cfa: x29 64 + x19: .cfa -8 + ^ x20: .cfa -16 + ^ x21: .cfa -24 + ^ x22: .cfa -32 + ^ x23: .cfa -48 + ^ .ra: .cfa -56 + ^ x29: .cfa -64 + ^
STACK CFI 2a048 .cfa: sp 64 +
STACK CFI 2a058 .cfa: sp 0 +
STACK CFI 2a05c .cfa: x29 64 +
STACK CFI INIT 2a06c 30 .cfa: sp 0 +
STACK CFI 2a070 .cfa: sp 16 +
STACK CFI 2a074 .cfa: x29 16 + .ra: .cfa -8 + ^ x29: .cfa -16 + ^
STACK CFI 2a090 .cfa: sp 16 +
STACK CFI 2a094 .cfa: sp 0 +
STACK CFI 2a098 .cfa: x29 16 +
STACK CFI INIT 2a0c0 50 .cfa: sp 0 +
STACK CFI 2a0c4 .cfa: sp 32 +
STACK CFI 2a0cc .cfa: x29 32 + x19: .cfa -8 + ^ x20: .cfa -16 + ^ .ra: .cfa -24 + ^ x29: .cfa -32 + ^
STACK CFI INIT 2a174 22c .cfa: sp 0 +
STACK CFI 2a178 .cfa: sp 96 +
STACK CFI 2a190 .cfa: x29 96 + x19: .cfa -8 + ^ x20: .cfa -16 + ^ x21: .cfa -24 + ^ x22: .cfa -32 + ^ x23: .cfa -40 + ^ x24: .cfa -48 + ^ x25: .cfa -56 + ^ x26: .cfa -64 + ^ x27: .cfa -80 + ^ .ra: .cfa -88 + ^ x29: .cfa -96 + ^
STACK CFI 2a334 .cfa: sp 96 +
STACK CFI 2a34c .cfa: sp 0 +
STACK CFI 2a350 .cfa: x29 96 +
STACK CFI INIT 2a3c8 50 .cfa: sp 0 +
STACK CFI 2a3cc .cfa: sp 32 +
STACK CFI 2a3d4 .cfa: x29 32 + x19: .cfa -8 + ^ x20: .cfa -16 + ^ .ra: .cfa -24 + ^ x29: .cfa -32 + ^
STACK CFI INIT 2a45c 28c .cfa: sp 0 +
STACK CFI 2a460 .cfa: sp 96 +
STACK CFI 2a474 .cfa: x29 64 + x19: .cfa -8 + ^ x20: .cfa -16 + ^ x21: .cfa -24 + ^ x22: .cfa -32 + ^ x23: .cfa -48 + ^ .ra: .cfa -56 + ^ x29: .cfa -64 + ^
STACK CFI 2a5c4 .cfa: sp 96 +
STACK CFI 2a5d8 .cfa: sp 0 +
STACK CFI 2a5dc .cfa: x29 64 +
STACK CFI 2a69c .cfa: sp 96 +
STACK CFI 2a6b0 .cfa: sp 0 +
STACK CFI 2a6b4 .cfa: x29 64 +
STACK CFI INIT 2a898 408 .cfa: sp 0 +
STACK CFI 2a89c .cfa: sp 224 +
STACK CFI 2a8b8 .cfa: x29 96 + x19: .cfa -8 + ^ x20: .cfa -16 + ^ x21: .cfa -24 + ^ x22: .cfa -32 + ^ x23: .cfa -40 + ^ x24: .cfa -48 + ^ x25: .cfa -56 + ^ x26: .cfa -64 + ^ x27: .cfa -72 + ^ x28: .cfa -80 + ^ .ra: .cfa -88 + ^ x29: .cfa -96 + ^
STACK CFI 2ab9c .cfa: sp 224 +
STACK CFI 2abb8 .cfa: sp 0 +
STACK CFI 2abbc .cfa: x29 96 +
STACK CFI INIT 2aca0 830 .cfa: sp 0 +
STACK CFI 2aca4 .cfa: sp 176 +
STACK CFI 2acb8 .cfa: x29 64 + x19: .cfa -8 + ^ x20: .cfa -16 + ^ x21: .cfa -24 + ^ x22: .cfa -32 + ^ x23: .cfa -40 + ^ x24: .cfa -48 + ^ .ra: .cfa -56 + ^ x29: .cfa -64 + ^
STACK CFI 2b2a8 .cfa: sp 176 +
STACK CFI 2b2bc .cfa: sp 0 +
STACK CFI 2b2c0 .cfa: x29 64 +
STACK CFI INIT 2b4d0 110 .cfa: sp 0 +
STACK CFI 2b4d4 .cfa: sp 160 +
STACK CFI 2b4e4 .cfa: x29 48 + x19: .cfa -8 + ^ x20: .cfa -16 + ^ x21: .cfa -24 + ^ x22: .cfa -32 + ^ .ra: .cfa -40 + ^ x29: .cfa -48 + ^
STACK CFI 2b5bc .cfa: sp 160 +
STACK CFI 2b5cc .cfa: sp 0 +
STACK CFI 2b5d0 .cfa: x29 48 +
STACK CFI INIT 2b630 74 .cfa: sp 0 +
STACK CFI 2b634 .cfa: sp 48 +
STACK CFI 2b640 .cfa: x29 32 + x19: .cfa -8 + ^ x20: .cfa -16 + ^ .ra: .cfa -24 + ^ x29: .cfa -32 + ^
STACK CFI 2b68c .cfa: sp 48 +
STACK CFI 2b698 .cfa: sp 0 +
STACK CFI 2b69c .cfa: x29 32 +
STACK CFI INIT 2b724 170 .cfa: sp 0 +
STACK CFI 2b728 .cfa: sp 112 +
STACK CFI 2b738 .cfa: x29 48 + x19: .cfa -8 + ^ x20: .cfa -16 + ^ x21: .cfa -32 + ^ .ra: .cfa -40 + ^ x29: .cfa -48 + ^
STACK CFI 2b7e4 .cfa: sp 112 +
STACK CFI 2b7f4 .cfa: sp 0 +
STACK CFI 2b7f8 .cfa: x29 48 +
STACK CFI INIT 2b894 1a8 .cfa: sp 0 +
STACK CFI 2b898 .cfa: sp 112 +
STACK CFI 2b8ac .cfa: x29 64 + x19: .cfa -8 + ^ x20: .cfa -16 + ^ x21: .cfa -24 + ^ x22: .cfa -32 + ^ x23: .cfa -40 + ^ x24: .cfa -48 + ^ .ra: .cfa -56 + ^ x29: .cfa -64 + ^
STACK CFI 2b98c .cfa: sp 112 +
STACK CFI 2b9a0 .cfa: sp 0 +
STACK CFI 2b9a4 .cfa: x29 64 +
STACK CFI INIT 2bb5c 1f4 .cfa: sp 0 +
STACK CFI 2bb60 .cfa: sp 128 +
STACK CFI 2bb7c .cfa: x29 96 + x19: .cfa -8 + ^ x20: .cfa -16 + ^ x21: .cfa -24 + ^ x22: .cfa -32 + ^ x23: .cfa -40 + ^ x24: .cfa -48 + ^ x25: .cfa -56 + ^ x26: .cfa -64 + ^ x27: .cfa -72 + ^ x28: .cfa -80 + ^ .ra: .cfa -88 + ^ x29: .cfa -96 + ^
STACK CFI 2bd08 .cfa: sp 128 +
STACK CFI 2bd24 .cfa: sp 0 +
STACK CFI 2bd28 .cfa: x29 96 +
STACK CFI INIT 2bffc 154 .cfa: sp 0 +
STACK CFI 2c000 .cfa: sp 384 +
STACK CFI 2c014 .cfa: x29 64 + x19: .cfa -8 + ^ x20: .cfa -16 + ^ x21: .cfa -24 + ^ x22: .cfa -32 + ^ x23: .cfa -40 + ^ x28: .cfa -48 + ^ .ra: .cfa -56 + ^ x29: .cfa -64 + ^
STACK CFI 2c0f8 .cfa: sp 384 +
STACK CFI 2c10c .cfa: sp 0 +
STACK CFI 2c110 .cfa: x29 64 +
STACK CFI INIT 2c184 12c .cfa: sp 0 +
STACK CFI 2c188 .cfa: sp 80 +
STACK CFI 2c19c .cfa: x29 80 + x19: .cfa -8 + ^ x20: .cfa -16 + ^ x21: .cfa -24 + ^ x22: .cfa -32 + ^ x23: .cfa -40 + ^ x24: .cfa -48 + ^ x25: .cfa -56 + ^ x26: .cfa -64 + ^ .ra: .cfa -72 + ^ x29: .cfa -80 + ^
STACK CFI 2c264 .cfa: sp 80 +
STACK CFI 2c278 .cfa: sp 0 +
STACK CFI 2c27c .cfa: x29 80 +
STACK CFI INIT 2c354 1a4 .cfa: sp 0 +
STACK CFI 2c358 .cfa: sp 112 +
STACK CFI 2c370 .cfa: x29 80 + x19: .cfa -8 + ^ x20: .cfa -16 + ^ x21: .cfa -24 + ^ x22: .cfa -32 + ^ x23: .cfa -40 + ^ x24: .cfa -48 + ^ x25: .cfa -56 + ^ x26: .cfa -64 + ^ .ra: .cfa -72 + ^ x29: .cfa -80 + ^
STACK CFI 2c460 .cfa: sp 112 +
STACK CFI 2c478 .cfa: sp 0 +
STACK CFI 2c47c .cfa: x29 80 +
STACK CFI INIT 2c4f8 1dc .cfa: sp 0 +
STACK CFI 2c4fc .cfa: sp 128 +
STACK CFI 2c518 .cfa: x29 96 + x19: .cfa -8 + ^ x20: .cfa -16 + ^ x21: .cfa -24 + ^ x22: .cfa -32 + ^ x23: .cfa -40 + ^ x24: .cfa -48 + ^ x25: .cfa -56 + ^ x26: .cfa -64 + ^ x27: .cfa -80 + ^ .ra: .cfa -88 + ^ x29: .cfa -96 + ^
STACK CFI 2c684 .cfa: sp 128 +
STACK CFI 2c6a0 .cfa: sp 0 +
STACK CFI 2c6a4 .cfa: x29 96 +
STACK CFI INIT 2c6d4 178 .cfa: sp 0 +
STACK CFI 2c6d8 .cfa: sp 80 +
STACK CFI 2c6ec .cfa: x29 80 + x19: .cfa -8 + ^ x20: .cfa -16 + ^ x21: .cfa -24 + ^ x22: .cfa -32 + ^ x23: .cfa -40 + ^ x24: .cfa -48 + ^ x25: .cfa -64 + ^ .ra: .cfa -72 + ^ x29: .cfa -80 + ^
STACK CFI 2c818 .cfa: sp 80 +
STACK CFI 2c82c .cfa: sp 0 +
STACK CFI 2c830 .cfa: x29 80 +
STACK CFI INIT 2c994 168 .cfa: sp 0 +
STACK CFI 2c998 .cfa: sp 384 +
STACK CFI 2c9ac .cfa: x29 64 + x19: .cfa -8 + ^ x20: .cfa -16 + ^ x21: .cfa -24 + ^ x22: .cfa -32 + ^ x23: .cfa -40 + ^ x28: .cfa -48 + ^ .ra: .cfa -56 + ^ x29: .cfa -64 + ^
STACK CFI 2caa4 .cfa: sp 384 +
STACK CFI 2cab8 .cfa: sp 0 +
STACK CFI 2cabc .cfa: x29 64 +
STACK CFI INIT 2cb14 228 .cfa: sp 0 +
STACK CFI 2cb18 .cfa: sp 128 +
STACK CFI 2cb30 .cfa: x29 80 + x19: .cfa -8 + ^ x20: .cfa -16 + ^ x21: .cfa -24 + ^ x22: .cfa -32 + ^ x23: .cfa -40 + ^ x24: .cfa -48 + ^ x25: .cfa -64 + ^ .ra: .cfa -72 + ^ x29: .cfa -80 + ^
STACK CFI 2cccc .cfa: sp 128 +
STACK CFI 2cce4 .cfa: sp 0 +
STACK CFI 2cce8 .cfa: x29 80 +
STACK CFI INIT 2d2f8 134 .cfa: sp 0 +
STACK CFI 2d2fc .cfa: sp 128 +
STACK CFI 2d310 .cfa: x29 64 + x19: .cfa -8 + ^ x20: .cfa -16 + ^ x21: .cfa -24 + ^ x22: .cfa -32 + ^ x23: .cfa -40 + ^ x24: .cfa -48 + ^ .ra: .cfa -56 + ^ x29: .cfa -64 + ^
STACK CFI 2d3dc .cfa: sp 128 +
STACK CFI 2d3f0 .cfa: sp 0 +
STACK CFI 2d3f4 .cfa: x29 64 +
STACK CFI INIT 2d430 184 .cfa: sp 0 +
STACK CFI 2d434 .cfa: sp 160 +
STACK CFI 2d44c .cfa: x29 80 + x19: .cfa -8 + ^ x20: .cfa -16 + ^ x21: .cfa -24 + ^ x22: .cfa -32 + ^ x23: .cfa -40 + ^ x24: .cfa -48 + ^ x25: .cfa -56 + ^ x26: .cfa -64 + ^ .ra: .cfa -72 + ^ x29: .cfa -80 + ^
STACK CFI 2d54c .cfa: sp 160 +
STACK CFI 2d564 .cfa: sp 0 +
STACK CFI 2d568 .cfa: x29 80 +
STACK CFI INIT 2d6c0 ec .cfa: sp 0 +
STACK CFI 2d6c4 .cfa: sp 48 +
STACK CFI 2d6d0 .cfa: x29 48 + x19: .cfa -8 + ^ x20: .cfa -16 + ^ x21: .cfa -24 + ^ x22: .cfa -32 + ^ .ra: .cfa -40 + ^ x29: .cfa -48 + ^
STACK CFI 2d71c .cfa: sp 48 +
STACK CFI 2d728 .cfa: sp 0 +
STACK CFI 2d72c .cfa: x29 48 +
STACK CFI 2d730 .cfa: sp 48 +
STACK CFI 2d73c .cfa: sp 0 +
STACK CFI 2d740 .cfa: x29 48 +
STACK CFI INIT 2d840 7ac .cfa: sp 0 +
STACK CFI 2d844 .cfa: sp 80 +
STACK CFI 2d858 .cfa: x29 80 + x19: .cfa -8 + ^ x20: .cfa -16 + ^ x21: .cfa -24 + ^ x22: .cfa -32 + ^ x23: .cfa -40 + ^ x24: .cfa -48 + ^ x25: .cfa -56 + ^ x26: .cfa -64 + ^ .ra: .cfa -72 + ^ x29: .cfa -80 + ^
STACK CFI 2dc70 .cfa: sp 80 +
STACK CFI 2dc84 .cfa: sp 0 +
STACK CFI 2dc88 .cfa: x29 80 +
STACK CFI INIT 2dfec 578 .cfa: sp 0 +
STACK CFI 2dff0 .cfa: sp 96 +
STACK CFI 2e004 .cfa: x29 64 + x19: .cfa -8 + ^ x20: .cfa -16 + ^ x21: .cfa -24 + ^ x22: .cfa -32 + ^ x23: .cfa -48 + ^ .ra: .cfa -56 + ^ x29: .cfa -64 + ^
STACK CFI 2e3a4 .cfa: sp 96 +
STACK CFI 2e3b8 .cfa: sp 0 +
STACK CFI 2e3bc .cfa: x29 64 +
STACK CFI INIT 2e6d8 1c .cfa: sp 0 +
STACK CFI 2e6dc .cfa: sp 16 +
STACK CFI 2e6e0 .cfa: x29 16 + .ra: .cfa -8 + ^ x29: .cfa -16 + ^
STACK CFI 2e6e8 .cfa: sp 16 +
STACK CFI 2e6ec .cfa: sp 0 +
STACK CFI 2e6f0 .cfa: x29 16 +
STACK CFI INIT 2ea00 3f8 .cfa: sp 0 +
STACK CFI 2ea04 .cfa: sp 48 +
STACK CFI 2ea10 .cfa: x29 48 + x19: .cfa -8 + ^ x20: .cfa -16 + ^ x21: .cfa -24 + ^ x22: .cfa -32 + ^ .ra: .cfa -40 + ^ x29: .cfa -48 + ^
STACK CFI 2ed78 .cfa: sp 48 +
STACK CFI 2ed84 .cfa: sp 0 +
STACK CFI 2ed88 .cfa: x29 48 +
STACK CFI 2edd8 .cfa: sp 48 +
STACK CFI 2ede4 .cfa: sp 0 +
STACK CFI 2ede8 .cfa: x29 48 +
STACK CFI INIT 2ee70 1c .cfa: sp 0 +
STACK CFI 2ee74 .cfa: sp 16 +
STACK CFI 2ee78 .cfa: x29 16 + .ra: .cfa -8 + ^ x29: .cfa -16 + ^
STACK CFI 2ee80 .cfa: sp 16 +
STACK CFI 2ee84 .cfa: sp 0 +
STACK CFI 2ee88 .cfa: x29 16 +
STACK CFI INIT 2ef1c 98 .cfa: sp 0 +
STACK CFI 2ef20 .cfa: sp 48 +
STACK CFI 2ef2c .cfa: x29 48 + x19: .cfa -8 + ^ x20: .cfa -16 + ^ x21: .cfa -32 + ^ .ra: .cfa -40 + ^ x29: .cfa -48 + ^
STACK CFI 2ef8c .cfa: sp 48 +
STACK CFI 2ef98 .cfa: sp 0 +
STACK CFI 2ef9c .cfa: sp 48 +
STACK CFI 2efa8 .cfa: sp 0 +
STACK CFI 2efac .cfa: x29 48 +
STACK CFI INIT 2eff0 1c .cfa: sp 0 +
STACK CFI 2eff4 .cfa: sp 16 +
STACK CFI 2eff8 .cfa: x29 16 + .ra: .cfa -8 + ^ x29: .cfa -16 + ^
STACK CFI 2f000 .cfa: sp 16 +
STACK CFI 2f004 .cfa: sp 0 +
STACK CFI 2f008 .cfa: x29 16 +
STACK CFI INIT 2f00c 1c .cfa: sp 0 +
STACK CFI 2f010 .cfa: sp 16 +
STACK CFI 2f014 .cfa: x29 16 + .ra: .cfa -8 + ^ x29: .cfa -16 + ^
STACK CFI 2f01c .cfa: sp 16 +
STACK CFI 2f020 .cfa: sp 0 +
STACK CFI 2f024 .cfa: x29 16 +
STACK CFI INIT 2f208 1cc .cfa: sp 0 +
STACK CFI 2f20c .cfa: sp 160 +
STACK CFI 2f224 .cfa: x29 80 + x19: .cfa -8 + ^ x20: .cfa -16 + ^ x21: .cfa -24 + ^ x22: .cfa -32 + ^ x23: .cfa -40 + ^ x24: .cfa -48 + ^ x25: .cfa -56 + ^ x26: .cfa -64 + ^ .ra: .cfa -72 + ^ x29: .cfa -80 + ^
STACK CFI 2f380 .cfa: sp 160 +
STACK CFI 2f398 .cfa: sp 0 +
STACK CFI 2f39c .cfa: x29 80 +
STACK CFI INIT 2f78c 1a0 .cfa: sp 0 +
STACK CFI 2f790 .cfa: sp 64 +
STACK CFI 2f7a0 .cfa: x29 64 + x19: .cfa -8 + ^ x20: .cfa -16 + ^ x21: .cfa -24 + ^ x22: .cfa -32 + ^ x23: .cfa -48 + ^ .ra: .cfa -56 + ^ x29: .cfa -64 + ^
STACK CFI 2f864 .cfa: sp 64 +
STACK CFI 2f874 .cfa: sp 0 +
STACK CFI 2f878 .cfa: x29 64 +
STACK CFI INIT 2ff60 a8 .cfa: sp 0 +
STACK CFI 2ff64 .cfa: sp 64 +
STACK CFI 2ff74 .cfa: x29 64 + x19: .cfa -8 + ^ x20: .cfa -16 + ^ x21: .cfa -24 + ^ x22: .cfa -32 + ^ x23: .cfa -40 + ^ x24: .cfa -48 + ^ .ra: .cfa -56 + ^ x29: .cfa -64 + ^
STACK CFI 2ff98 .cfa: sp 64 +
STACK CFI 2ffa8 .cfa: sp 0 +
STACK CFI 2ffac .cfa: x29 64 +
STACK CFI INIT 3020c aec .cfa: sp 0 +
STACK CFI 30210 .cfa: sp 192 +
STACK CFI 30230 .cfa: x29 96 + x19: .cfa -8 + ^ x20: .cfa -16 + ^ x21: .cfa -24 + ^ x22: .cfa -32 + ^ x23: .cfa -40 + ^ x24: .cfa -48 + ^ x25: .cfa -56 + ^ x26: .cfa -64 + ^ x27: .cfa -72 + ^ x28: .cfa -80 + ^ .ra: .cfa -88 + ^ x29: .cfa -96 + ^ v8: .cfa -104 + ^ v9: .cfa -112 + ^
STACK CFI 30c94 .cfa: sp 192 +
STACK CFI 30cb4 .cfa: sp 0 +
STACK CFI 30cb8 .cfa: x29 96 +
STACK CFI INIT 30cf8 18c .cfa: sp 0 +
STACK CFI 30cfc .cfa: sp 112 +
STACK CFI 30d10 .cfa: x29 48 + x19: .cfa -8 + ^ x20: .cfa -16 + ^ x21: .cfa -24 + ^ x22: .cfa -32 + ^ .ra: .cfa -40 + ^ x29: .cfa -48 + ^ v8: .cfa -64 + ^
STACK CFI 30e3c .cfa: sp 112 +
STACK CFI 30e50 .cfa: sp 0 +
STACK CFI 30e54 .cfa: x29 48 +
STACK CFI INIT 30e84 194 .cfa: sp 0 +
STACK CFI 30e88 .cfa: sp 80 +
STACK CFI 30e98 .cfa: x29 48 + x19: .cfa -8 + ^ x20: .cfa -16 + ^ x21: .cfa -24 + ^ x22: .cfa -32 + ^ .ra: .cfa -40 + ^ x29: .cfa -48 + ^
STACK CFI 30fd4 .cfa: sp 80 +
STACK CFI 30fe4 .cfa: sp 0 +
STACK CFI 30fe8 .cfa: x29 48 +
STACK CFI INIT 31018 2c0 .cfa: sp 0 +
STACK CFI 3101c .cfa: sp 112 +
STACK CFI 3102c .cfa: x29 48 + x19: .cfa -8 + ^ x20: .cfa -16 + ^ x21: .cfa -24 + ^ x22: .cfa -32 + ^ .ra: .cfa -40 + ^ x29: .cfa -48 + ^
STACK CFI 31228 .cfa: sp 112 +
STACK CFI 31238 .cfa: sp 0 +
STACK CFI 3123c .cfa: x29 48 +
STACK CFI INIT 312d8 404 .cfa: sp 0 +
STACK CFI 312dc .cfa: sp 96 +
STACK CFI 312f8 .cfa: x29 88 + x19: .cfa -8 + ^ x20: .cfa -16 + ^ x21: .cfa -24 + ^ x22: .cfa -32 + ^ x23: .cfa -40 + ^ x24: .cfa -48 + ^ x25: .cfa -56 + ^ x26: .cfa -64 + ^ x28: .cfa -72 + ^ .ra: .cfa -80 + ^ x29: .cfa -88 + ^ v8: .cfa -96 + ^
STACK CFI 31640 .cfa: sp 96 +
STACK CFI 3165c .cfa: sp 0 +
STACK CFI 31660 .cfa: x29 88 +
STACK CFI INIT 316dc 344 .cfa: sp 0 +
STACK CFI 316e0 .cfa: sp 112 +
STACK CFI 316f8 .cfa: x29 64 + x19: .cfa -8 + ^ x20: .cfa -16 + ^ x21: .cfa -24 + ^ x22: .cfa -32 + ^ x23: .cfa -40 + ^ x24: .cfa -48 + ^ .ra: .cfa -56 + ^ x29: .cfa -64 + ^ v8: .cfa -72 + ^ v9: .cfa -80 + ^
STACK CFI 319d4 .cfa: sp 112 +
STACK CFI 319ec .cfa: sp 0 +
STACK CFI 319f0 .cfa: x29 64 +
STACK CFI INIT 31a20 184 .cfa: sp 0 +
STACK CFI 31a24 .cfa: sp 96 +
STACK CFI 31a34 .cfa: x29 48 + x19: .cfa -8 + ^ x20: .cfa -16 + ^ x21: .cfa -32 + ^ .ra: .cfa -40 + ^ x29: .cfa -48 + ^
STACK CFI 31b60 .cfa: sp 96 +
STACK CFI 31b70 .cfa: sp 0 +
STACK CFI 31b74 .cfa: x29 48 +
STACK CFI INIT 31ba4 168 .cfa: sp 0 +
STACK CFI 31ba8 .cfa: sp 80 +
STACK CFI 31bb8 .cfa: x29 48 + x19: .cfa -8 + ^ x20: .cfa -16 + ^ x21: .cfa -32 + ^ .ra: .cfa -40 + ^ x29: .cfa -48 + ^
STACK CFI 31cc8 .cfa: sp 80 +
STACK CFI 31cd8 .cfa: sp 0 +
STACK CFI 31cdc .cfa: x29 48 +
STACK CFI INIT 31d0c 17c .cfa: sp 0 +
STACK CFI 31d10 .cfa: sp 96 +
STACK CFI 31d20 .cfa: x29 48 + x19: .cfa -8 + ^ x20: .cfa -16 + ^ x21: .cfa -32 + ^ .ra: .cfa -40 + ^ x29: .cfa -48 + ^
STACK CFI 31e44 .cfa: sp 96 +
STACK CFI 31e54 .cfa: sp 0 +
STACK CFI 31e58 .cfa: x29 48 +
STACK CFI INIT 31e88 194 .cfa: sp 0 +
STACK CFI 31e8c .cfa: sp 80 +
STACK CFI 31ea0 .cfa: x29 40 + x19: .cfa -8 + ^ x20: .cfa -16 + ^ x21: .cfa -24 + ^ .ra: .cfa -32 + ^ x29: .cfa -40 + ^ v8: .cfa -48 + ^
STACK CFI 31fd4 .cfa: sp 80 +
STACK CFI 31fe8 .cfa: sp 0 +
STACK CFI 31fec .cfa: x29 40 +
STACK CFI INIT 3201c 4fc .cfa: sp 0 +
STACK CFI 32020 .cfa: sp 96 +
STACK CFI 32030 .cfa: x29 48 + x19: .cfa -8 + ^ x20: .cfa -16 + ^ x21: .cfa -24 + ^ x22: .cfa -32 + ^ .ra: .cfa -40 + ^ x29: .cfa -48 + ^
STACK CFI 324c0 .cfa: sp 96 +
STACK CFI 324d0 .cfa: sp 0 +
STACK CFI 324d4 .cfa: x29 48 +
STACK CFI INIT 32744 1d0 .cfa: sp 0 +
STACK CFI 32748 .cfa: sp 112 +
STACK CFI 32758 .cfa: x29 48 + x19: .cfa -8 + ^ x20: .cfa -16 + ^ x21: .cfa -32 + ^ .ra: .cfa -40 + ^ x29: .cfa -48 + ^
STACK CFI 3288c .cfa: sp 112 +
STACK CFI 3289c .cfa: sp 0 +
STACK CFI 328a0 .cfa: x29 48 +
STACK CFI INIT 32914 17c .cfa: sp 0 +
STACK CFI 32918 .cfa: sp 80 +
STACK CFI 32928 .cfa: x29 48 + x19: .cfa -8 + ^ x20: .cfa -16 + ^ x21: .cfa -32 + ^ .ra: .cfa -40 + ^ x29: .cfa -48 + ^
STACK CFI 32a48 .cfa: sp 80 +
STACK CFI 32a58 .cfa: sp 0 +
STACK CFI 32a5c .cfa: x29 48 +
STACK CFI INIT 32a90 1f4 .cfa: sp 0 +
STACK CFI 32a94 .cfa: sp 112 +
STACK CFI 32aa4 .cfa: x29 48 + x19: .cfa -8 + ^ x20: .cfa -16 + ^ x21: .cfa -32 + ^ .ra: .cfa -40 + ^ x29: .cfa -48 + ^
STACK CFI 32bfc .cfa: sp 112 +
STACK CFI 32c0c .cfa: sp 0 +
STACK CFI 32c10 .cfa: x29 48 +
STACK CFI INIT 32c84 4f8 .cfa: sp 0 +
STACK CFI 32c88 .cfa: sp 96 +
STACK CFI 32ca0 .cfa: x29 80 + x19: .cfa -8 + ^ x20: .cfa -16 + ^ x21: .cfa -24 + ^ x22: .cfa -32 + ^ x23: .cfa -40 + ^ x24: .cfa -48 + ^ x25: .cfa -56 + ^ x28: .cfa -64 + ^ .ra: .cfa -72 + ^ x29: .cfa -80 + ^ v8: .cfa -96 + ^
STACK CFI 32fbc .cfa: sp 96 +
STACK CFI 32fd4 .cfa: sp 0 +
STACK CFI 32fd8 .cfa: x29 80 +
STACK CFI 33108 .cfa: sp 96 +
STACK CFI 33120 .cfa: sp 0 +
STACK CFI 33124 .cfa: x29 80 +
STACK CFI INIT 33524 160 .cfa: sp 0 +
STACK CFI 33528 .cfa: sp 240 +
STACK CFI 3353c .cfa: x29 64 + x19: .cfa -8 + ^ x20: .cfa -16 + ^ x21: .cfa -24 + ^ x22: .cfa -32 + ^ x23: .cfa -40 + ^ x24: .cfa -48 + ^ .ra: .cfa -56 + ^ x29: .cfa -64 + ^
STACK CFI 3363c .cfa: sp 240 +
STACK CFI 33650 .cfa: sp 0 +
STACK CFI 33654 .cfa: x29 64 +
STACK CFI INIT 36770 1dc .cfa: sp 0 +
STACK CFI 36774 .cfa: sp 80 +
STACK CFI 36784 .cfa: x29 48 + x19: .cfa -8 + ^ x20: .cfa -16 + ^ x21: .cfa -24 + ^ x22: .cfa -32 + ^ .ra: .cfa -40 + ^ x29: .cfa -48 + ^
STACK CFI 36900 .cfa: sp 80 +
STACK CFI 36910 .cfa: sp 0 +
STACK CFI 36914 .cfa: x29 48 +
STACK CFI INIT 36c08 2b8 .cfa: sp 0 +
STACK CFI 36c0c .cfa: sp 112 +
STACK CFI 36c1c .cfa: x29 48 + x19: .cfa -8 + ^ x20: .cfa -16 + ^ x21: .cfa -24 + ^ x22: .cfa -32 + ^ .ra: .cfa -40 + ^ x29: .cfa -48 + ^
STACK CFI 36e30 .cfa: sp 112 +
STACK CFI 36e40 .cfa: sp 0 +
STACK CFI 36e44 .cfa: x29 48 +
STACK CFI INIT 36ec0 630 .cfa: sp 0 +
STACK CFI 36ec4 .cfa: sp 224 +
STACK CFI 36ee0 .cfa: x29 96 + x19: .cfa -8 + ^ x20: .cfa -16 + ^ x21: .cfa -24 + ^ x22: .cfa -32 + ^ x23: .cfa -40 + ^ x24: .cfa -48 + ^ x25: .cfa -56 + ^ x26: .cfa -64 + ^ x27: .cfa -80 + ^ .ra: .cfa -88 + ^ x29: .cfa -96 + ^
STACK CFI 3700c .cfa: sp 224 +
STACK CFI 37028 .cfa: sp 0 +
STACK CFI 3702c .cfa: x29 96 +
STACK CFI 373b0 .cfa: sp 224 +
STACK CFI 373cc .cfa: sp 0 +
STACK CFI 373d0 .cfa: x29 96 +
STACK CFI INIT 37514 480 .cfa: sp 0 +
STACK CFI 37518 .cfa: sp 224 +
STACK CFI 37534 .cfa: x29 96 + x19: .cfa -8 + ^ x20: .cfa -16 + ^ x21: .cfa -24 + ^ x22: .cfa -32 + ^ x23: .cfa -40 + ^ x24: .cfa -48 + ^ x25: .cfa -56 + ^ x26: .cfa -64 + ^ x27: .cfa -80 + ^ .ra: .cfa -88 + ^ x29: .cfa -96 + ^
STACK CFI 377a0 .cfa: sp 224 +
STACK CFI 377bc .cfa: sp 0 +
STACK CFI 377c0 .cfa: x29 96 +
STACK CFI 3788c .cfa: sp 224 +
STACK CFI 378a8 .cfa: sp 0 +
STACK CFI 378ac .cfa: x29 96 +
STACK CFI INIT 379b0 344 .cfa: sp 0 +
STACK CFI 379b4 .cfa: sp 240 +
STACK CFI 379c8 .cfa: x29 64 + x19: .cfa -8 + ^ x20: .cfa -16 + ^ x21: .cfa -24 + ^ x22: .cfa -32 + ^ x23: .cfa -48 + ^ .ra: .cfa -56 + ^ x29: .cfa -64 + ^
STACK CFI 37bdc .cfa: sp 240 +
STACK CFI 37bf0 .cfa: sp 0 +
STACK CFI 37bf4 .cfa: x29 64 +
STACK CFI INIT 37e50 480 .cfa: sp 0 +
STACK CFI 37e54 .cfa: sp 224 +
STACK CFI 37e70 .cfa: x29 96 + x19: .cfa -8 + ^ x20: .cfa -16 + ^ x21: .cfa -24 + ^ x22: .cfa -32 + ^ x23: .cfa -40 + ^ x24: .cfa -48 + ^ x25: .cfa -56 + ^ x26: .cfa -64 + ^ x27: .cfa -80 + ^ .ra: .cfa -88 + ^ x29: .cfa -96 + ^
STACK CFI 380dc .cfa: sp 224 +
STACK CFI 380f8 .cfa: sp 0 +
STACK CFI 380fc .cfa: x29 96 +
STACK CFI 381c8 .cfa: sp 224 +
STACK CFI 381e4 .cfa: sp 0 +
STACK CFI 381e8 .cfa: x29 96 +
STACK CFI INIT 382ec 380 .cfa: sp 0 +
STACK CFI 382f0 .cfa: sp 240 +
STACK CFI 38304 .cfa: x29 64 + x19: .cfa -8 + ^ x20: .cfa -16 + ^ x21: .cfa -24 + ^ x22: .cfa -32 + ^ x23: .cfa -48 + ^ .ra: .cfa -56 + ^ x29: .cfa -64 + ^
STACK CFI 38548 .cfa: sp 240 +
STACK CFI 3855c .cfa: sp 0 +
STACK CFI 38560 .cfa: x29 64 +
STACK CFI INIT 38870 d8 .cfa: sp 0 +
STACK CFI 38874 .cfa: sp 32 +
STACK CFI 3887c .cfa: x29 32 + x19: .cfa -16 + ^ .ra: .cfa -24 + ^ x29: .cfa -32 + ^
STACK CFI 388b0 .cfa: sp 32 +
STACK CFI 388b8 .cfa: sp 0 +
STACK CFI 388bc .cfa: x29 32 +
STACK CFI 388c0 .cfa: sp 32 +
STACK CFI 388c8 .cfa: sp 0 +
STACK CFI 388cc .cfa: x29 32 +
STACK CFI INIT 38948 638 .cfa: sp 0 +
STACK CFI 3894c .cfa: sp 224 +
STACK CFI 38968 .cfa: x29 96 + x19: .cfa -8 + ^ x20: .cfa -16 + ^ x21: .cfa -24 + ^ x22: .cfa -32 + ^ x23: .cfa -40 + ^ x24: .cfa -48 + ^ x25: .cfa -56 + ^ x26: .cfa -64 + ^ x27: .cfa -80 + ^ .ra: .cfa -88 + ^ x29: .cfa -96 + ^
STACK CFI 38a9c .cfa: sp 224 +
STACK CFI 38ab8 .cfa: sp 0 +
STACK CFI 38abc .cfa: x29 96 +
STACK CFI 38e40 .cfa: sp 224 +
STACK CFI 38e5c .cfa: sp 0 +
STACK CFI 38e60 .cfa: x29 96 +
STACK CFI INIT 39078 3e0 .cfa: sp 0 +
STACK CFI 3907c .cfa: sp 256 +
STACK CFI 39090 .cfa: x29 64 + x19: .cfa -8 + ^ x20: .cfa -16 + ^ x21: .cfa -24 + ^ x22: .cfa -32 + ^ x23: .cfa -40 + ^ x24: .cfa -48 + ^ .ra: .cfa -56 + ^ x29: .cfa -64 + ^
STACK CFI 39320 .cfa: sp 256 +
STACK CFI 39334 .cfa: sp 0 +
STACK CFI 39338 .cfa: x29 64 +
STACK CFI INIT 398c4 634 .cfa: sp 0 +
STACK CFI 398c8 .cfa: sp 224 +
STACK CFI 398e4 .cfa: x29 96 + x19: .cfa -8 + ^ x20: .cfa -16 + ^ x21: .cfa -24 + ^ x22: .cfa -32 + ^ x23: .cfa -40 + ^ x24: .cfa -48 + ^ x25: .cfa -56 + ^ x26: .cfa -64 + ^ x27: .cfa -80 + ^ .ra: .cfa -88 + ^ x29: .cfa -96 + ^
STACK CFI 39a14 .cfa: sp 224 +
STACK CFI 39a30 .cfa: sp 0 +
STACK CFI 39a34 .cfa: x29 96 +
STACK CFI 39db8 .cfa: sp 224 +
STACK CFI 39dd4 .cfa: sp 0 +
STACK CFI 39dd8 .cfa: x29 96 +
STACK CFI INIT 39f14 380 .cfa: sp 0 +
STACK CFI 39f18 .cfa: sp 240 +
STACK CFI 39f2c .cfa: x29 64 + x19: .cfa -8 + ^ x20: .cfa -16 + ^ x21: .cfa -24 + ^ x22: .cfa -32 + ^ x23: .cfa -40 + ^ x24: .cfa -48 + ^ .ra: .cfa -56 + ^ x29: .cfa -64 + ^
STACK CFI 3a168 .cfa: sp 240 +
STACK CFI 3a17c .cfa: sp 0 +
STACK CFI 3a180 .cfa: x29 64 +
STACK CFI INIT 3a298 304 .cfa: sp 0 +
STACK CFI 3a29c .cfa: sp 128 +
STACK CFI 3a2b0 .cfa: x29 64 + x19: .cfa -8 + ^ x20: .cfa -16 + ^ x21: .cfa -24 + ^ x22: .cfa -32 + ^ x23: .cfa -48 + ^ .ra: .cfa -56 + ^ x29: .cfa -64 + ^
STACK CFI 3a4c0 .cfa: sp 128 +
STACK CFI 3a4d4 .cfa: sp 0 +
STACK CFI 3a4d8 .cfa: x29 64 +
STACK CFI 3a4f0 .cfa: sp 128 +
STACK CFI 3a504 .cfa: sp 0 +
STACK CFI 3a508 .cfa: x29 64 +
STACK CFI INIT 3a5a0 4f8 .cfa: sp 0 +
STACK CFI 3a5a4 .cfa: sp 224 +
STACK CFI 3a5c0 .cfa: x29 96 + x19: .cfa -8 + ^ x20: .cfa -16 + ^ x21: .cfa -24 + ^ x22: .cfa -32 + ^ x23: .cfa -40 + ^ x24: .cfa -48 + ^ x25: .cfa -56 + ^ x26: .cfa -64 + ^ x27: .cfa -80 + ^ .ra: .cfa -88 + ^ x29: .cfa -96 + ^
STACK CFI 3a89c .cfa: sp 224 +
STACK CFI 3a8b8 .cfa: sp 0 +
STACK CFI 3a8bc .cfa: x29 96 +
STACK CFI 3a988 .cfa: sp 224 +
STACK CFI 3a9a4 .cfa: sp 0 +
STACK CFI 3a9a8 .cfa: x29 96 +
STACK CFI INIT 3aab4 6b4 .cfa: sp 0 +
STACK CFI 3aab8 .cfa: sp 288 +
STACK CFI 3aad4 .cfa: x29 96 + x19: .cfa -8 + ^ x20: .cfa -16 + ^ x21: .cfa -24 + ^ x22: .cfa -32 + ^ x23: .cfa -40 + ^ x24: .cfa -48 + ^ x25: .cfa -56 + ^ x26: .cfa -64 + ^ x28: .cfa -80 + ^ .ra: .cfa -88 + ^ x29: .cfa -96 + ^
STACK CFI 3af74 .cfa: sp 288 +
STACK CFI 3af90 .cfa: sp 0 +
STACK CFI 3af94 .cfa: x29 96 +
STACK CFI INIT 3b16c 248 .cfa: sp 0 +
STACK CFI 3b170 .cfa: sp 144 +
STACK CFI 3b184 .cfa: x29 64 + x19: .cfa -8 + ^ x20: .cfa -16 + ^ x21: .cfa -24 + ^ x22: .cfa -32 + ^ x23: .cfa -40 + ^ x24: .cfa -48 + ^ .ra: .cfa -56 + ^ x29: .cfa -64 + ^
STACK CFI 3b338 .cfa: sp 144 +
STACK CFI 3b34c .cfa: sp 0 +
STACK CFI 3b350 .cfa: x29 64 +
STACK CFI INIT 3b650 1e0 .cfa: sp 0 +
STACK CFI 3b654 .cfa: sp 112 +
STACK CFI 3b664 .cfa: x29 48 + x19: .cfa -8 + ^ x20: .cfa -16 + ^ x21: .cfa -32 + ^ .ra: .cfa -40 + ^ x29: .cfa -48 + ^
STACK CFI 3b788 .cfa: sp 112 +
STACK CFI 3b798 .cfa: sp 0 +
STACK CFI 3b79c .cfa: x29 48 +
STACK CFI INIT 3b834 634 .cfa: sp 0 +
STACK CFI 3b838 .cfa: sp 224 +
STACK CFI 3b854 .cfa: x29 96 + x19: .cfa -8 + ^ x20: .cfa -16 + ^ x21: .cfa -24 + ^ x22: .cfa -32 + ^ x23: .cfa -40 + ^ x24: .cfa -48 + ^ x25: .cfa -56 + ^ x26: .cfa -64 + ^ x27: .cfa -80 + ^ .ra: .cfa -88 + ^ x29: .cfa -96 + ^
STACK CFI 3b984 .cfa: sp 224 +
STACK CFI 3b9a0 .cfa: sp 0 +
STACK CFI 3b9a4 .cfa: x29 96 +
STACK CFI 3bd28 .cfa: sp 224 +
STACK CFI 3bd44 .cfa: sp 0 +
STACK CFI 3bd48 .cfa: x29 96 +
STACK CFI INIT 3be84 380 .cfa: sp 0 +
STACK CFI 3be88 .cfa: sp 256 +
STACK CFI 3be9c .cfa: x29 64 + x19: .cfa -8 + ^ x20: .cfa -16 + ^ x21: .cfa -24 + ^ x22: .cfa -32 + ^ x23: .cfa -48 + ^ .ra: .cfa -56 + ^ x29: .cfa -64 + ^
STACK CFI 3c0e0 .cfa: sp 256 +
STACK CFI 3c0f4 .cfa: sp 0 +
STACK CFI 3c0f8 .cfa: x29 64 +
STACK CFI INIT 3c208 21c .cfa: sp 0 +
STACK CFI 3c20c .cfa: sp 128 +
STACK CFI 3c220 .cfa: x29 64 + x19: .cfa -8 + ^ x20: .cfa -16 + ^ x21: .cfa -24 + ^ x22: .cfa -32 + ^ x23: .cfa -40 + ^ x24: .cfa -48 + ^ .ra: .cfa -56 + ^ x29: .cfa -64 + ^
STACK CFI 3c3d8 .cfa: sp 128 +
STACK CFI 3c3ec .cfa: sp 0 +
STACK CFI 3c3f0 .cfa: x29 64 +
STACK CFI INIT 3c424 c8 .cfa: sp 0 +
STACK CFI 3c428 .cfa: sp 32 +
STACK CFI 3c430 .cfa: x29 32 + x19: .cfa -8 + ^ x20: .cfa -16 + ^ .ra: .cfa -24 + ^ x29: .cfa -32 + ^
STACK CFI 3c464 .cfa: sp 32 +
STACK CFI 3c46c .cfa: sp 0 +
STACK CFI 3c470 .cfa: x29 32 +
STACK CFI 3c474 .cfa: sp 32 +
STACK CFI 3c47c .cfa: sp 0 +
STACK CFI 3c480 .cfa: x29 32 +
STACK CFI INIT 3c4ec 298 .cfa: sp 0 +
STACK CFI 3c4f0 .cfa: sp 80 +
STACK CFI 3c500 .cfa: x29 48 + x19: .cfa -8 + ^ x20: .cfa -16 + ^ x21: .cfa -24 + ^ x22: .cfa -32 + ^ .ra: .cfa -40 + ^ x29: .cfa -48 + ^
STACK CFI 3c638 .cfa: sp 80 +
STACK CFI 3c648 .cfa: sp 0 +
STACK CFI 3c64c .cfa: x29 48 +
STACK CFI INIT 3c784 1c .cfa: sp 0 +
STACK CFI 3c788 .cfa: sp 16 +
STACK CFI 3c78c .cfa: x29 16 + .ra: .cfa -8 + ^ x29: .cfa -16 + ^
STACK CFI 3c794 .cfa: sp 16 +
STACK CFI 3c798 .cfa: sp 0 +
STACK CFI 3c79c .cfa: x29 16 +
STACK CFI INIT 3c7a0 1c .cfa: sp 0 +
STACK CFI 3c7a4 .cfa: sp 16 +
STACK CFI 3c7a8 .cfa: x29 16 + .ra: .cfa -8 + ^ x29: .cfa -16 + ^
STACK CFI 3c7b0 .cfa: sp 16 +
STACK CFI 3c7b4 .cfa: sp 0 +
STACK CFI 3c7b8 .cfa: x29 16 +
STACK CFI INIT 3c7bc 1c .cfa: sp 0 +
STACK CFI 3c7c0 .cfa: sp 16 +
STACK CFI 3c7c4 .cfa: x29 16 + .ra: .cfa -8 + ^ x29: .cfa -16 + ^
STACK CFI 3c7cc .cfa: sp 16 +
STACK CFI 3c7d0 .cfa: sp 0 +
STACK CFI 3c7d4 .cfa: x29 16 +
STACK CFI INIT 3c7d8 1c .cfa: sp 0 +
STACK CFI 3c7dc .cfa: sp 16 +
STACK CFI 3c7e0 .cfa: x29 16 + .ra: .cfa -8 + ^ x29: .cfa -16 + ^
STACK CFI 3c7e8 .cfa: sp 16 +
STACK CFI 3c7ec .cfa: sp 0 +
STACK CFI 3c7f0 .cfa: x29 16 +
STACK CFI INIT 3c9d8 144 .cfa: sp 0 +
STACK CFI 3c9dc .cfa: sp 192 +
STACK CFI 3c9f0 .cfa: x29 64 + x19: .cfa -8 + ^ x20: .cfa -16 + ^ x21: .cfa -24 + ^ x22: .cfa -32 + ^ x23: .cfa -40 + ^ x24: .cfa -48 + ^ .ra: .cfa -56 + ^ x29: .cfa -64 + ^
STACK CFI 3cac4 .cfa: sp 192 +
STACK CFI 3cad8 .cfa: sp 0 +
STACK CFI 3cadc .cfa: x29 64 +
STACK CFI INIT 3ccec 20 .cfa: sp 0 +
STACK CFI 3ccf0 .cfa: sp 16 +
STACK CFI 3ccf4 .cfa: x29 16 + .ra: .cfa -8 + ^ x29: .cfa -16 + ^
STACK CFI 3cd00 .cfa: sp 16 +
STACK CFI 3cd04 .cfa: sp 0 +
STACK CFI 3cd08 .cfa: x29 16 +
STACK CFI INIT 3cd0c 20 .cfa: sp 0 +
STACK CFI 3cd10 .cfa: sp 16 +
STACK CFI 3cd14 .cfa: x29 16 + .ra: .cfa -8 + ^ x29: .cfa -16 + ^
STACK CFI 3cd20 .cfa: sp 16 +
STACK CFI 3cd24 .cfa: sp 0 +
STACK CFI 3cd28 .cfa: x29 16 +
STACK CFI INIT 3cd2c 100 .cfa: sp 0 +
STACK CFI 3cd30 .cfa: sp 96 +
STACK CFI 3cd40 .cfa: x29 48 + x19: .cfa -8 + ^ x20: .cfa -16 + ^ x21: .cfa -24 + ^ x22: .cfa -32 + ^ .ra: .cfa -40 + ^ x29: .cfa -48 + ^
STACK CFI 3cd9c .cfa: sp 96 +
STACK CFI 3cdac .cfa: sp 0 +
STACK CFI 3cdb0 .cfa: x29 48 +
STACK CFI INIT 3ce2c 180 .cfa: sp 0 +
STACK CFI 3ce30 .cfa: sp 96 +
STACK CFI 3ce48 .cfa: x29 96 + x19: .cfa -8 + ^ x20: .cfa -16 + ^ x21: .cfa -24 + ^ x22: .cfa -32 + ^ x23: .cfa -40 + ^ x24: .cfa -48 + ^ x25: .cfa -56 + ^ x26: .cfa -64 + ^ x27: .cfa -72 + ^ x28: .cfa -80 + ^ .ra: .cfa -88 + ^ x29: .cfa -96 + ^
STACK CFI 3cf78 .cfa: sp 96 +
STACK CFI 3cf90 .cfa: sp 0 +
STACK CFI 3cf94 .cfa: x29 96 +
STACK CFI INIT 3cfac 58 .cfa: sp 0 +
STACK CFI 3cfb0 .cfa: sp 32 +
STACK CFI 3cfb8 .cfa: x29 32 + x19: .cfa -8 + ^ x20: .cfa -16 + ^ .ra: .cfa -24 + ^ x29: .cfa -32 + ^
STACK CFI 3cfe8 .cfa: sp 32 +
STACK CFI 3cff0 .cfa: sp 0 +
STACK CFI 3cff4 .cfa: sp 32 +
STACK CFI 3cffc .cfa: sp 0 +
STACK CFI 3d000 .cfa: x29 32 +
STACK CFI INIT 3d004 200 .cfa: sp 0 +
STACK CFI 3d008 .cfa: sp 128 +
STACK CFI 3d020 .cfa: x29 80 + x19: .cfa -8 + ^ x20: .cfa -16 + ^ x21: .cfa -24 + ^ x22: .cfa -32 + ^ x23: .cfa -40 + ^ x24: .cfa -48 + ^ x25: .cfa -56 + ^ x26: .cfa -64 + ^ .ra: .cfa -72 + ^ x29: .cfa -80 + ^
STACK CFI 3d194 .cfa: sp 128 +
STACK CFI 3d1ac .cfa: sp 0 +
STACK CFI 3d1b0 .cfa: x29 80 +
STACK CFI INIT 3d580 64 .cfa: sp 0 +
STACK CFI 3d584 .cfa: sp 32 +
STACK CFI 3d58c .cfa: x29 32 + x19: .cfa -8 + ^ x20: .cfa -16 + ^ .ra: .cfa -24 + ^ x29: .cfa -32 + ^
STACK CFI 3d5d4 .cfa: sp 32 +
STACK CFI 3d5dc .cfa: sp 0 +
STACK CFI 3d5e0 .cfa: x29 32 +
STACK CFI INIT 3d638 1b0 .cfa: sp 0 +
STACK CFI 3d63c .cfa: sp 112 +
STACK CFI 3d64c .cfa: x29 48 + x19: .cfa -8 + ^ x20: .cfa -16 + ^ x21: .cfa -32 + ^ .ra: .cfa -40 + ^ x29: .cfa -48 + ^
STACK CFI 3d780 .cfa: sp 112 +
STACK CFI 3d790 .cfa: sp 0 +
STACK CFI 3d794 .cfa: x29 48 +
STACK CFI INIT 3d838 634 .cfa: sp 0 +
STACK CFI 3d83c .cfa: sp 224 +
STACK CFI 3d858 .cfa: x29 96 + x19: .cfa -8 + ^ x20: .cfa -16 + ^ x21: .cfa -24 + ^ x22: .cfa -32 + ^ x23: .cfa -40 + ^ x24: .cfa -48 + ^ x25: .cfa -56 + ^ x26: .cfa -64 + ^ x27: .cfa -80 + ^ .ra: .cfa -88 + ^ x29: .cfa -96 + ^
STACK CFI 3d988 .cfa: sp 224 +
STACK CFI 3d9a4 .cfa: sp 0 +
STACK CFI 3d9a8 .cfa: x29 96 +
STACK CFI 3dd2c .cfa: sp 224 +
STACK CFI 3dd48 .cfa: sp 0 +
STACK CFI 3dd4c .cfa: x29 96 +
STACK CFI INIT 3de88 388 .cfa: sp 0 +
STACK CFI 3de8c .cfa: sp 256 +
STACK CFI 3dea0 .cfa: x29 64 + x19: .cfa -8 + ^ x20: .cfa -16 + ^ x21: .cfa -24 + ^ x22: .cfa -32 + ^ x23: .cfa -48 + ^ .ra: .cfa -56 + ^ x29: .cfa -64 + ^
STACK CFI 3e0e4 .cfa: sp 256 +
STACK CFI 3e0f8 .cfa: sp 0 +
STACK CFI 3e0fc .cfa: x29 64 +
STACK CFI INIT 3e214 2ec .cfa: sp 0 +
STACK CFI 3e218 .cfa: sp 112 +
STACK CFI 3e228 .cfa: x29 48 + x19: .cfa -8 + ^ x20: .cfa -16 + ^ x21: .cfa -32 + ^ .ra: .cfa -40 + ^ x29: .cfa -48 + ^
STACK CFI 3e434 .cfa: sp 112 +
STACK CFI 3e444 .cfa: sp 0 +
STACK CFI 3e448 .cfa: x29 48 +
STACK CFI 3e458 .cfa: sp 112 +
STACK CFI 3e468 .cfa: sp 0 +
STACK CFI 3e46c .cfa: x29 48 +
STACK CFI INIT 3e504 480 .cfa: sp 0 +
STACK CFI 3e508 .cfa: sp 224 +
STACK CFI 3e524 .cfa: x29 96 + x19: .cfa -8 + ^ x20: .cfa -16 + ^ x21: .cfa -24 + ^ x22: .cfa -32 + ^ x23: .cfa -40 + ^ x24: .cfa -48 + ^ x25: .cfa -56 + ^ x26: .cfa -64 + ^ x27: .cfa -80 + ^ .ra: .cfa -88 + ^ x29: .cfa -96 + ^
STACK CFI 3e790 .cfa: sp 224 +
STACK CFI 3e7ac .cfa: sp 0 +
STACK CFI 3e7b0 .cfa: x29 96 +
STACK CFI 3e87c .cfa: sp 224 +
STACK CFI 3e898 .cfa: sp 0 +
STACK CFI 3e89c .cfa: x29 96 +
STACK CFI INIT 3e9a0 308 .cfa: sp 0 +
STACK CFI 3e9a4 .cfa: sp 176 +
STACK CFI 3e9b8 .cfa: x29 64 + x19: .cfa -8 + ^ x20: .cfa -16 + ^ x21: .cfa -24 + ^ x22: .cfa -32 + ^ x23: .cfa -48 + ^ .ra: .cfa -56 + ^ x29: .cfa -64 + ^
STACK CFI 3eba0 .cfa: sp 176 +
STACK CFI 3ebb4 .cfa: sp 0 +
STACK CFI 3ebb8 .cfa: x29 64 +
STACK CFI INIT 3ed98 a8 .cfa: sp 0 +
STACK CFI 3ed9c .cfa: sp 32 +
STACK CFI 3eda4 .cfa: x29 32 + x19: .cfa -16 + ^ .ra: .cfa -24 + ^ x29: .cfa -32 + ^
STACK CFI 3edd8 .cfa: sp 32 +
STACK CFI 3ede0 .cfa: sp 0 +
STACK CFI 3ede4 .cfa: x29 32 +
STACK CFI 3ede8 .cfa: sp 32 +
STACK CFI 3edf0 .cfa: sp 0 +
STACK CFI 3edf4 .cfa: x29 32 +
STACK CFI INIT 3ef10 4f8 .cfa: sp 0 +
STACK CFI 3ef14 .cfa: sp 224 +
STACK CFI 3ef30 .cfa: x29 96 + x19: .cfa -8 + ^ x20: .cfa -16 + ^ x21: .cfa -24 + ^ x22: .cfa -32 + ^ x23: .cfa -40 + ^ x24: .cfa -48 + ^ x25: .cfa -56 + ^ x26: .cfa -64 + ^ x27: .cfa -80 + ^ .ra: .cfa -88 + ^ x29: .cfa -96 + ^
STACK CFI 3f20c .cfa: sp 224 +
STACK CFI 3f228 .cfa: sp 0 +
STACK CFI 3f22c .cfa: x29 96 +
STACK CFI 3f2f8 .cfa: sp 224 +
STACK CFI 3f314 .cfa: sp 0 +
STACK CFI 3f318 .cfa: x29 96 +
STACK CFI INIT 3f424 77c .cfa: sp 0 +
STACK CFI 3f428 .cfa: sp 256 +
STACK CFI 3f43c .cfa: x29 64 + x19: .cfa -8 + ^ x20: .cfa -16 + ^ x21: .cfa -24 + ^ x22: .cfa -32 + ^ x23: .cfa -40 + ^ x24: .cfa -48 + ^ .ra: .cfa -56 + ^ x29: .cfa -64 + ^
STACK CFI 3f958 .cfa: sp 256 +
STACK CFI 3f96c .cfa: sp 0 +
STACK CFI 3f970 .cfa: x29 64 +
STACK CFI INIT 3fba4 248 .cfa: sp 0 +
STACK CFI 3fba8 .cfa: sp 144 +
STACK CFI 3fbbc .cfa: x29 64 + x19: .cfa -8 + ^ x20: .cfa -16 + ^ x21: .cfa -24 + ^ x22: .cfa -32 + ^ x23: .cfa -40 + ^ x24: .cfa -48 + ^ .ra: .cfa -56 + ^ x29: .cfa -64 + ^
STACK CFI 3fd70 .cfa: sp 144 +
STACK CFI 3fd84 .cfa: sp 0 +
STACK CFI 3fd88 .cfa: x29 64 +
STACK CFI INIT 3fdec 184 .cfa: sp 0 +
STACK CFI 3fdf0 .cfa: sp 160 +
STACK CFI 3fe08 .cfa: x29 80 + x19: .cfa -8 + ^ x20: .cfa -16 + ^ x21: .cfa -24 + ^ x22: .cfa -32 + ^ x23: .cfa -40 + ^ x24: .cfa -48 + ^ x25: .cfa -56 + ^ x26: .cfa -64 + ^ .ra: .cfa -72 + ^ x29: .cfa -80 + ^
STACK CFI 3ff08 .cfa: sp 160 +
STACK CFI 3ff20 .cfa: sp 0 +
STACK CFI 3ff24 .cfa: x29 80 +
STACK CFI INIT 402dc 1e0 .cfa: sp 0 +
STACK CFI 402e0 .cfa: sp 112 +
STACK CFI 402f0 .cfa: x29 48 + x19: .cfa -8 + ^ x20: .cfa -16 + ^ x21: .cfa -32 + ^ .ra: .cfa -40 + ^ x29: .cfa -48 + ^
STACK CFI 40414 .cfa: sp 112 +
STACK CFI 40424 .cfa: sp 0 +
STACK CFI 40428 .cfa: x29 48 +
STACK CFI INIT 40584 144 .cfa: sp 0 +
STACK CFI 40588 .cfa: sp 48 +
STACK CFI 40594 .cfa: x29 48 + x19: .cfa -8 + ^ x20: .cfa -16 + ^ x21: .cfa -24 + ^ x28: .cfa -32 + ^ .ra: .cfa -40 + ^ x29: .cfa -48 + ^
STACK CFI 40674 .cfa: sp 48 +
STACK CFI 40680 .cfa: sp 0 +
STACK CFI 40684 .cfa: x29 48 +
STACK CFI INIT 406c8 e8 .cfa: sp 0 +
STACK CFI 406cc .cfa: sp 64 +
STACK CFI 406d8 .cfa: x29 32 + x19: .cfa -8 + ^ x20: .cfa -16 + ^ .ra: .cfa -24 + ^ x29: .cfa -32 + ^
STACK CFI 40768 .cfa: sp 64 +
STACK CFI 40774 .cfa: sp 0 +
STACK CFI 40778 .cfa: x29 32 +
STACK CFI INIT 407b0 284 .cfa: sp 0 +
STACK CFI 407b4 .cfa: sp 112 +
STACK CFI 407c8 .cfa: x29 64 + x19: .cfa -8 + ^ x20: .cfa -16 + ^ x21: .cfa -24 + ^ x22: .cfa -32 + ^ x23: .cfa -48 + ^ .ra: .cfa -56 + ^ x29: .cfa -64 + ^
STACK CFI 409cc .cfa: sp 112 +
STACK CFI 409e0 .cfa: sp 0 +
STACK CFI 409e4 .cfa: x29 64 +
STACK CFI INIT 40a34 190 .cfa: sp 0 +
STACK CFI 40a38 .cfa: sp 160 +
STACK CFI 40a48 .cfa: x29 48 + x19: .cfa -8 + ^ x20: .cfa -16 + ^ x21: .cfa -32 + ^ .ra: .cfa -40 + ^ x29: .cfa -48 + ^
STACK CFI 40b68 .cfa: sp 160 +
STACK CFI 40b78 .cfa: sp 0 +
STACK CFI 40b7c .cfa: x29 48 +
STACK CFI INIT 40c18 6c4 .cfa: sp 0 +
STACK CFI 40c1c .cfa: sp 112 +
STACK CFI 40c38 .cfa: x29 96 + x19: .cfa -8 + ^ x20: .cfa -16 + ^ x21: .cfa -24 + ^ x22: .cfa -32 + ^ x23: .cfa -40 + ^ x24: .cfa -48 + ^ x25: .cfa -56 + ^ x26: .cfa -64 + ^ x27: .cfa -72 + ^ x28: .cfa -80 + ^ .ra: .cfa -88 + ^ x29: .cfa -96 + ^
STACK CFI 40d7c .cfa: sp 112 +
STACK CFI 40d98 .cfa: sp 0 +
STACK CFI 40d9c .cfa: x29 96 +
STACK CFI 40da8 .cfa: sp 112 +
STACK CFI 40dc4 .cfa: sp 0 +
STACK CFI 40dc8 .cfa: x29 96 +
STACK CFI 41264 .cfa: sp 112 +
STACK CFI 41280 .cfa: sp 0 +
STACK CFI 41284 .cfa: x29 96 +
STACK CFI INIT 412dc 4c .cfa: sp 0 +
STACK CFI 412e0 .cfa: sp 32 +
STACK CFI 412e8 .cfa: x29 32 + x19: .cfa -8 + ^ x20: .cfa -16 + ^ .ra: .cfa -24 + ^ x29: .cfa -32 + ^
STACK CFI INIT 418ac 4c .cfa: sp 0 +
STACK CFI 418b0 .cfa: sp 32 +
STACK CFI 418b8 .cfa: x29 32 + x19: .cfa -8 + ^ x20: .cfa -16 + ^ .ra: .cfa -24 + ^ x29: .cfa -32 + ^
STACK CFI INIT 41a10 364 .cfa: sp 0 +
STACK CFI 41a14 .cfa: sp 144 +
STACK CFI 41a28 .cfa: x29 64 + x19: .cfa -8 + ^ x20: .cfa -16 + ^ x21: .cfa -24 + ^ x22: .cfa -32 + ^ x23: .cfa -48 + ^ .ra: .cfa -56 + ^ x29: .cfa -64 + ^
STACK CFI 41bbc .cfa: sp 144 +
STACK CFI 41bd0 .cfa: sp 0 +
STACK CFI 41bd4 .cfa: x29 64 +
STACK CFI INIT 41d74 644 .cfa: sp 0 +
STACK CFI 41d78 .cfa: sp 64 +
STACK CFI 41d88 .cfa: x29 64 + x19: .cfa -8 + ^ x20: .cfa -16 + ^ x21: .cfa -24 + ^ x22: .cfa -32 + ^ x23: .cfa -48 + ^ .ra: .cfa -56 + ^ x29: .cfa -64 + ^
STACK CFI 41df4 .cfa: sp 64 +
STACK CFI 41e04 .cfa: sp 0 +
STACK CFI 41e08 .cfa: x29 64 +
STACK CFI 41e58 .cfa: sp 64 +
STACK CFI 41e68 .cfa: sp 0 +
STACK CFI 41e6c .cfa: x29 64 +
STACK CFI 41ee8 .cfa: sp 64 +
STACK CFI 41ef8 .cfa: sp 0 +
STACK CFI 41efc .cfa: x29 64 +
STACK CFI 41fec .cfa: sp 64 +
STACK CFI 41ffc .cfa: sp 0 +
STACK CFI 42000 .cfa: x29 64 +
STACK CFI 42090 .cfa: sp 64 +
STACK CFI 420a0 .cfa: sp 0 +
STACK CFI 420a4 .cfa: x29 64 +
STACK CFI 420bc .cfa: sp 64 +
STACK CFI 420cc .cfa: sp 0 +
STACK CFI 420d0 .cfa: x29 64 +
STACK CFI 42258 .cfa: sp 64 +
STACK CFI 42268 .cfa: sp 0 +
STACK CFI 4226c .cfa: x29 64 +
STACK CFI 42280 .cfa: sp 64 +
STACK CFI 42290 .cfa: sp 0 +
STACK CFI 42294 .cfa: x29 64 +
STACK CFI 4231c .cfa: sp 64 +
STACK CFI 4232c .cfa: sp 0 +
STACK CFI 42330 .cfa: x29 64 +
STACK CFI INIT 427ac 6c .cfa: sp 0 +
STACK CFI 427b0 .cfa: sp 32 +
STACK CFI 427b8 .cfa: x29 32 + x19: .cfa -8 + ^ x20: .cfa -16 + ^ .ra: .cfa -24 + ^ x29: .cfa -32 + ^
STACK CFI 427f8 .cfa: sp 32 +
STACK CFI 42800 .cfa: sp 0 +
STACK CFI 42804 .cfa: x29 32 +
STACK CFI INIT 428cc 4c .cfa: sp 0 +
STACK CFI 428d0 .cfa: sp 32 +
STACK CFI 428d8 .cfa: x29 32 + x19: .cfa -8 + ^ x20: .cfa -16 + ^ .ra: .cfa -24 + ^ x29: .cfa -32 + ^
STACK CFI INIT 42d40 880 .cfa: sp 0 +
STACK CFI 42d44 .cfa: sp 288 +
STACK CFI 42d60 .cfa: x29 96 + x19: .cfa -8 + ^ x20: .cfa -16 + ^ x21: .cfa -24 + ^ x22: .cfa -32 + ^ x23: .cfa -40 + ^ x24: .cfa -48 + ^ x25: .cfa -56 + ^ x26: .cfa -64 + ^ x27: .cfa -72 + ^ x28: .cfa -80 + ^ .ra: .cfa -88 + ^ x29: .cfa -96 + ^
STACK CFI 4340c .cfa: sp 288 +
STACK CFI 43428 .cfa: sp 0 +
STACK CFI 4342c .cfa: x29 96 +
STACK CFI INIT 43618 4c .cfa: sp 0 +
STACK CFI 4361c .cfa: sp 32 +
STACK CFI 43624 .cfa: x29 32 + x19: .cfa -8 + ^ x20: .cfa -16 + ^ .ra: .cfa -24 + ^ x29: .cfa -32 + ^
STACK CFI INIT 43664 4c .cfa: sp 0 +
STACK CFI 43668 .cfa: sp 32 +
STACK CFI 43670 .cfa: x29 32 + x19: .cfa -8 + ^ x20: .cfa -16 + ^ .ra: .cfa -24 + ^ x29: .cfa -32 + ^
STACK CFI INIT 4394c 10f4 .cfa: sp 0 +
STACK CFI 43950 .cfa: sp 432 +
STACK CFI 4396c .cfa: x29 96 + x19: .cfa -8 + ^ x20: .cfa -16 + ^ x21: .cfa -24 + ^ x22: .cfa -32 + ^ x23: .cfa -40 + ^ x24: .cfa -48 + ^ x25: .cfa -56 + ^ x26: .cfa -64 + ^ x27: .cfa -72 + ^ x28: .cfa -80 + ^ .ra: .cfa -88 + ^ x29: .cfa -96 + ^
STACK CFI 44754 .cfa: sp 432 +
STACK CFI 44770 .cfa: sp 0 +
STACK CFI 44774 .cfa: x29 96 +
STACK CFI INIT 44a40 4c .cfa: sp 0 +
STACK CFI 44a44 .cfa: sp 32 +
STACK CFI 44a4c .cfa: x29 32 + x19: .cfa -8 + ^ x20: .cfa -16 + ^ .ra: .cfa -24 + ^ x29: .cfa -32 + ^
STACK CFI INIT 44ad4 4c .cfa: sp 0 +
STACK CFI 44ad8 .cfa: sp 32 +
STACK CFI 44ae0 .cfa: x29 32 + x19: .cfa -8 + ^ x20: .cfa -16 + ^ .ra: .cfa -24 + ^ x29: .cfa -32 + ^
STACK CFI INIT 4502c 140 .cfa: sp 0 +
STACK CFI 45030 .cfa: sp 48 +
STACK CFI 4503c .cfa: x29 48 + x19: .cfa -8 + ^ x20: .cfa -16 + ^ x21: .cfa -32 + ^ .ra: .cfa -40 + ^ x29: .cfa -48 + ^
STACK CFI 4511c .cfa: sp 48 +
STACK CFI 45128 .cfa: sp 0 +
STACK CFI 4512c .cfa: x29 48 +
STACK CFI INIT 4516c 4c .cfa: sp 0 +
STACK CFI 45170 .cfa: sp 32 +
STACK CFI 45178 .cfa: x29 32 + x19: .cfa -8 + ^ x20: .cfa -16 + ^ .ra: .cfa -24 + ^ x29: .cfa -32 + ^
STACK CFI INIT 45df8 1dc .cfa: sp 0 +
STACK CFI 45dfc .cfa: sp 128 +
STACK CFI 45e14 .cfa: x29 80 + x19: .cfa -8 + ^ x20: .cfa -16 + ^ x21: .cfa -24 + ^ x22: .cfa -32 + ^ x23: .cfa -40 + ^ x24: .cfa -48 + ^ x25: .cfa -64 + ^ .ra: .cfa -72 + ^ x29: .cfa -80 + ^
STACK CFI 45f08 .cfa: sp 128 +
STACK CFI 45f20 .cfa: sp 0 +
STACK CFI 45f24 .cfa: x29 80 +
STACK CFI INIT 461e8 c6c .cfa: sp 0 +
STACK CFI 461ec .cfa: sp 256 +
STACK CFI 46208 .cfa: x29 96 + x19: .cfa -8 + ^ x20: .cfa -16 + ^ x21: .cfa -24 + ^ x22: .cfa -32 + ^ x23: .cfa -40 + ^ x24: .cfa -48 + ^ x25: .cfa -56 + ^ x26: .cfa -64 + ^ x27: .cfa -72 + ^ x28: .cfa -80 + ^ .ra: .cfa -88 + ^ x29: .cfa -96 + ^
STACK CFI 46d90 .cfa: sp 256 +
STACK CFI 46dac .cfa: sp 0 +
STACK CFI 46db0 .cfa: x29 96 +
STACK CFI INIT 47054 1c4 .cfa: sp 0 +
STACK CFI 47058 .cfa: sp 112 +
STACK CFI 47070 .cfa: x29 80 + x19: .cfa -8 + ^ x20: .cfa -16 + ^ x21: .cfa -24 + ^ x22: .cfa -32 + ^ x23: .cfa -40 + ^ x24: .cfa -48 + ^ x25: .cfa -56 + ^ x26: .cfa -64 + ^ .ra: .cfa -72 + ^ x29: .cfa -80 + ^
STACK CFI 4719c .cfa: sp 112 +
STACK CFI 471b4 .cfa: sp 0 +
STACK CFI 471b8 .cfa: x29 80 +
STACK CFI INIT 4722c 4c .cfa: sp 0 +
STACK CFI 47230 .cfa: sp 32 +
STACK CFI 47238 .cfa: x29 32 + x19: .cfa -8 + ^ x20: .cfa -16 + ^ .ra: .cfa -24 + ^ x29: .cfa -32 + ^
STACK CFI INIT 48124 4c .cfa: sp 0 +
STACK CFI 48128 .cfa: sp 32 +
STACK CFI 48130 .cfa: x29 32 + x19: .cfa -8 + ^ x20: .cfa -16 + ^ .ra: .cfa -24 + ^ x29: .cfa -32 + ^
STACK CFI INIT 48170 2b4 .cfa: sp 0 +
STACK CFI 48174 .cfa: sp 144 +
STACK CFI 4818c .cfa: x29 80 + x19: .cfa -8 + ^ x20: .cfa -16 + ^ x21: .cfa -24 + ^ x22: .cfa -32 + ^ x23: .cfa -40 + ^ x24: .cfa -48 + ^ x25: .cfa -56 + ^ x26: .cfa -64 + ^ .ra: .cfa -72 + ^ x29: .cfa -80 + ^
STACK CFI 48390 .cfa: sp 144 +
STACK CFI 483a8 .cfa: sp 0 +
STACK CFI 483ac .cfa: x29 80 +
STACK CFI INIT 48424 4c .cfa: sp 0 +
STACK CFI 48428 .cfa: sp 32 +
STACK CFI 48430 .cfa: x29 32 + x19: .cfa -8 + ^ x20: .cfa -16 + ^ .ra: .cfa -24 + ^ x29: .cfa -32 + ^
STACK CFI INIT 48470 1b4 .cfa: sp 0 +
STACK CFI 48474 .cfa: sp 112 +
STACK CFI 4848c .cfa: x29 80 + x19: .cfa -8 + ^ x20: .cfa -16 + ^ x21: .cfa -24 + ^ x22: .cfa -32 + ^ x23: .cfa -40 + ^ x24: .cfa -48 + ^ x25: .cfa -64 + ^ .ra: .cfa -72 + ^ x29: .cfa -80 + ^
STACK CFI 485c0 .cfa: sp 112 +
STACK CFI 485d8 .cfa: sp 0 +
STACK CFI 485dc .cfa: x29 80 +
STACK CFI INIT 48624 4c .cfa: sp 0 +
STACK CFI 48628 .cfa: sp 32 +
STACK CFI 48630 .cfa: x29 32 + x19: .cfa -8 + ^ x20: .cfa -16 + ^ .ra: .cfa -24 + ^ x29: .cfa -32 + ^
STACK CFI INIT 48938 140 .cfa: sp 0 +
STACK CFI 4893c .cfa: sp 96 +
STACK CFI 48954 .cfa: x29 96 + x19: .cfa -8 + ^ x20: .cfa -16 + ^ x21: .cfa -24 + ^ x22: .cfa -32 + ^ x23: .cfa -40 + ^ x24: .cfa -48 + ^ x25: .cfa -56 + ^ x26: .cfa -64 + ^ x27: .cfa -72 + ^ x28: .cfa -80 + ^ .ra: .cfa -88 + ^ x29: .cfa -96 + ^
STACK CFI 48a10 .cfa: sp 96 +
STACK CFI 48a28 .cfa: sp 0 +
STACK CFI 48a2c .cfa: x29 96 +
STACK CFI INIT 48a78 4c .cfa: sp 0 +
STACK CFI 48a7c .cfa: sp 32 +
STACK CFI 48a84 .cfa: x29 32 + x19: .cfa -8 + ^ x20: .cfa -16 + ^ .ra: .cfa -24 + ^ x29: .cfa -32 + ^
STACK CFI INIT 48ac4 4c .cfa: sp 0 +
STACK CFI 48ac8 .cfa: sp 32 +
STACK CFI 48ad0 .cfa: x29 32 + x19: .cfa -8 + ^ x20: .cfa -16 + ^ .ra: .cfa -24 + ^ x29: .cfa -32 + ^
STACK CFI INIT 48fa0 4c .cfa: sp 0 +
STACK CFI 48fa4 .cfa: sp 32 +
STACK CFI 48fac .cfa: x29 32 + x19: .cfa -8 + ^ x20: .cfa -16 + ^ .ra: .cfa -24 + ^ x29: .cfa -32 + ^
STACK CFI INIT 499b8 134 .cfa: sp 0 +
STACK CFI 499bc .cfa: sp 80 +
STACK CFI 499cc .cfa: x29 48 + x19: .cfa -8 + ^ x20: .cfa -16 + ^ x21: .cfa -24 + ^ x22: .cfa -32 + ^ .ra: .cfa -40 + ^ x29: .cfa -48 + ^
STACK CFI 49ad0 .cfa: sp 80 +
STACK CFI 49ae0 .cfa: sp 0 +
STACK CFI 49ae4 .cfa: x29 48 +
STACK CFI INIT 49aec 118 .cfa: sp 0 +
STACK CFI 49af0 .cfa: sp 80 +
STACK CFI 49b00 .cfa: x29 48 + x19: .cfa -8 + ^ x20: .cfa -16 + ^ x21: .cfa -24 + ^ x22: .cfa -32 + ^ .ra: .cfa -40 + ^ x29: .cfa -48 + ^
STACK CFI 49be8 .cfa: sp 80 +
STACK CFI 49bf8 .cfa: sp 0 +
STACK CFI 49bfc .cfa: x29 48 +
STACK CFI INIT 49c04 188 .cfa: sp 0 +
STACK CFI 49c08 .cfa: sp 96 +
STACK CFI 49c1c .cfa: x29 64 + x19: .cfa -8 + ^ x20: .cfa -16 + ^ x21: .cfa -24 + ^ x22: .cfa -32 + ^ x23: .cfa -48 + ^ .ra: .cfa -56 + ^ x29: .cfa -64 + ^
STACK CFI 49d08 .cfa: sp 96 +
STACK CFI 49d1c .cfa: sp 0 +
STACK CFI 49d20 .cfa: x29 64 +
STACK CFI INIT 4a11c 74 .cfa: sp 0 +
STACK CFI 4a120 .cfa: sp 48 +
STACK CFI 4a12c .cfa: x29 32 + x19: .cfa -8 + ^ x20: .cfa -16 + ^ .ra: .cfa -24 + ^ x29: .cfa -32 + ^
STACK CFI 4a178 .cfa: sp 48 +
STACK CFI 4a184 .cfa: sp 0 +
STACK CFI 4a188 .cfa: x29 32 +
STACK CFI INIT 4a1c0 dc .cfa: sp 0 +
STACK CFI 4a1c4 .cfa: sp 32 +
STACK CFI 4a1cc .cfa: x29 32 + x19: .cfa -16 + ^ .ra: .cfa -24 + ^ x29: .cfa -32 + ^
STACK CFI 4a258 .cfa: sp 32 +
STACK CFI 4a260 .cfa: sp 0 +
STACK CFI 4a264 .cfa: x29 32 +
STACK CFI INIT 4a29c 310 .cfa: sp 0 +
STACK CFI 4a2a0 .cfa: sp 176 +
STACK CFI 4a2b0 .cfa: x29 48 + x19: .cfa -8 + ^ x20: .cfa -16 + ^ x21: .cfa -24 + ^ x22: .cfa -32 + ^ .ra: .cfa -40 + ^ x29: .cfa -48 + ^
STACK CFI 4a4d4 .cfa: sp 176 +
STACK CFI 4a4e4 .cfa: sp 0 +
STACK CFI 4a4e8 .cfa: x29 48 +
STACK CFI INIT 4a5ac f8 .cfa: sp 0 +
STACK CFI 4a5b0 .cfa: sp 48 +
STACK CFI 4a5bc .cfa: x29 48 + x19: .cfa -8 + ^ x20: .cfa -16 + ^ x21: .cfa -32 + ^ .ra: .cfa -40 + ^ x29: .cfa -48 + ^
STACK CFI 4a628 .cfa: sp 48 +
STACK CFI 4a634 .cfa: sp 0 +
STACK CFI 4a638 .cfa: x29 48 +
STACK CFI INIT 4a750 234 .cfa: sp 0 +
STACK CFI 4a754 .cfa: sp 112 +
STACK CFI 4a764 .cfa: x29 48 + x19: .cfa -8 + ^ x20: .cfa -16 + ^ x21: .cfa -32 + ^ .ra: .cfa -40 + ^ x29: .cfa -48 + ^
STACK CFI 4a8a4 .cfa: sp 112 +
STACK CFI 4a8b4 .cfa: sp 0 +
STACK CFI 4a8b8 .cfa: x29 48 +
STACK CFI INIT 4aa00 174 .cfa: sp 0 +
STACK CFI 4aa04 .cfa: sp 112 +
STACK CFI 4aa14 .cfa: x29 48 + x19: .cfa -8 + ^ x20: .cfa -16 + ^ x21: .cfa -32 + ^ .ra: .cfa -40 + ^ x29: .cfa -48 + ^
STACK CFI 4ab10 .cfa: sp 112 +
STACK CFI 4ab20 .cfa: sp 0 +
STACK CFI 4ab24 .cfa: x29 48 +
STACK CFI INIT 4ad14 274 .cfa: sp 0 +
STACK CFI 4ad18 .cfa: sp 112 +
STACK CFI 4ad28 .cfa: x29 48 + x19: .cfa -8 + ^ x20: .cfa -16 + ^ x21: .cfa -24 + ^ x22: .cfa -32 + ^ .ra: .cfa -40 + ^ x29: .cfa -48 + ^
STACK CFI 4aea8 .cfa: sp 112 +
STACK CFI 4aeb8 .cfa: sp 0 +
STACK CFI 4aebc .cfa: x29 48 +
STACK CFI INIT 4afb4 174 .cfa: sp 0 +
STACK CFI 4afb8 .cfa: sp 112 +
STACK CFI 4afc8 .cfa: x29 48 + x19: .cfa -8 + ^ x20: .cfa -16 + ^ x21: .cfa -32 + ^ .ra: .cfa -40 + ^ x29: .cfa -48 + ^
STACK CFI 4b0c4 .cfa: sp 112 +
STACK CFI 4b0d4 .cfa: sp 0 +
STACK CFI 4b0d8 .cfa: x29 48 +
STACK CFI INIT 4b278 12c .cfa: sp 0 +
STACK CFI 4b27c .cfa: sp 80 +
STACK CFI 4b28c .cfa: x29 48 + x19: .cfa -8 + ^ x20: .cfa -16 + ^ x21: .cfa -32 + ^ .ra: .cfa -40 + ^ x29: .cfa -48 + ^
STACK CFI 4b324 .cfa: sp 80 +
STACK CFI 4b334 .cfa: sp 0 +
STACK CFI 4b338 .cfa: x29 48 +
STACK CFI INIT 4b42c 134 .cfa: sp 0 +
STACK CFI 4b430 .cfa: sp 80 +
STACK CFI 4b43c .cfa: x29 32 + x19: .cfa -8 + ^ x20: .cfa -16 + ^ .ra: .cfa -24 + ^ x29: .cfa -32 + ^
STACK CFI 4b46c .cfa: sp 80 +
STACK CFI 4b478 .cfa: sp 0 +
STACK CFI 4b47c .cfa: x29 32 +
STACK CFI INIT 4b560 78 .cfa: sp 0 +
STACK CFI 4b564 .cfa: sp 32 +
STACK CFI 4b56c .cfa: x29 32 + x19: .cfa -8 + ^ x20: .cfa -16 + ^ .ra: .cfa -24 + ^ x29: .cfa -32 + ^
STACK CFI 4b578 .cfa: sp 32 +
STACK CFI 4b580 .cfa: sp 0 +
STACK CFI 4b584 .cfa: x29 32 +
STACK CFI INIT 4b5d8 74 .cfa: sp 0 +
STACK CFI 4b5dc .cfa: sp 48 +
STACK CFI 4b5e8 .cfa: x29 32 + x19: .cfa -8 + ^ x20: .cfa -16 + ^ .ra: .cfa -24 + ^ x29: .cfa -32 + ^
STACK CFI 4b634 .cfa: sp 48 +
STACK CFI 4b640 .cfa: sp 0 +
STACK CFI 4b644 .cfa: x29 32 +
STACK CFI INIT 4b74c 2d8 .cfa: sp 0 +
STACK CFI 4b750 .cfa: sp 128 +
STACK CFI 4b764 .cfa: x29 64 + x19: .cfa -8 + ^ x20: .cfa -16 + ^ x21: .cfa -24 + ^ x22: .cfa -32 + ^ x23: .cfa -48 + ^ .ra: .cfa -56 + ^ x29: .cfa -64 + ^
STACK CFI 4b8d0 .cfa: sp 128 +
STACK CFI 4b8e4 .cfa: sp 0 +
STACK CFI 4b8e8 .cfa: x29 64 +
STACK CFI INIT 4ba78 250 .cfa: sp 0 +
STACK CFI 4ba7c .cfa: sp 112 +
STACK CFI 4ba8c .cfa: x29 48 + x19: .cfa -8 + ^ x20: .cfa -16 + ^ x21: .cfa -32 + ^ .ra: .cfa -40 + ^ x29: .cfa -48 + ^
STACK CFI 4bb70 .cfa: sp 112 +
STACK CFI 4bb80 .cfa: sp 0 +
STACK CFI 4bb84 .cfa: x29 48 +
STACK CFI INIT 4bd70 1b8 .cfa: sp 0 +
STACK CFI 4bd74 .cfa: sp 160 +
STACK CFI 4bd90 .cfa: x29 72 + x19: .cfa -8 + ^ x20: .cfa -16 + ^ x21: .cfa -24 + ^ x22: .cfa -32 + ^ x23: .cfa -40 + ^ x24: .cfa -48 + ^ x25: .cfa -56 + ^ .ra: .cfa -64 + ^ x29: .cfa -72 + ^ v8: .cfa -80 + ^
STACK CFI 4be14 .cfa: sp 160 +
STACK CFI 4be30 .cfa: sp 0 +
STACK CFI 4be34 .cfa: x29 72 +
STACK CFI INIT 4bf28 4e4 .cfa: sp 0 +
STACK CFI 4bf2c .cfa: sp 96 +
STACK CFI 4bf44 .cfa: x29 80 + x19: .cfa -8 + ^ x20: .cfa -16 + ^ x21: .cfa -24 + ^ x22: .cfa -32 + ^ x23: .cfa -40 + ^ x24: .cfa -48 + ^ x25: .cfa -64 + ^ .ra: .cfa -72 + ^ x29: .cfa -80 + ^
STACK CFI 4c388 .cfa: sp 96 +
STACK CFI 4c3a0 .cfa: sp 0 +
STACK CFI 4c3a4 .cfa: x29 80 +
STACK CFI INIT 4c40c 1e8 .cfa: sp 0 +
STACK CFI 4c410 .cfa: sp 192 +
STACK CFI 4c434 .cfa: x29 88 + x19: .cfa -8 + ^ x20: .cfa -16 + ^ x21: .cfa -24 + ^ x22: .cfa -32 + ^ x23: .cfa -40 + ^ x24: .cfa -48 + ^ x25: .cfa -56 + ^ x26: .cfa -64 + ^ x27: .cfa -72 + ^ .ra: .cfa -80 + ^ x29: .cfa -88 + ^ v8: .cfa -96 + ^ v9: .cfa -104 + ^ v10: .cfa -112 + ^
STACK CFI 4c4d8 .cfa: sp 192 +
STACK CFI 4c4fc .cfa: sp 0 +
STACK CFI 4c500 .cfa: x29 88 +
STACK CFI INIT 4c5f4 8f8 .cfa: sp 0 +
STACK CFI 4c5f8 .cfa: sp 112 +
STACK CFI 4c610 .cfa: x29 80 + x19: .cfa -8 + ^ x20: .cfa -16 + ^ x21: .cfa -24 + ^ x22: .cfa -32 + ^ x23: .cfa -40 + ^ x24: .cfa -48 + ^ x25: .cfa -64 + ^ .ra: .cfa -72 + ^ x29: .cfa -80 + ^
STACK CFI 4ce28 .cfa: sp 112 +
STACK CFI 4ce40 .cfa: sp 0 +
STACK CFI 4ce44 .cfa: x29 80 +
STACK CFI INIT 4ceec 514 .cfa: sp 0 +
STACK CFI 4cef0 .cfa: sp 128 +
STACK CFI 4cf04 .cfa: x29 64 + x19: .cfa -8 + ^ x20: .cfa -16 + ^ x21: .cfa -24 + ^ x22: .cfa -32 + ^ x23: .cfa -40 + ^ x24: .cfa -48 + ^ .ra: .cfa -56 + ^ x29: .cfa -64 + ^
STACK CFI 4d16c .cfa: sp 128 +
STACK CFI 4d180 .cfa: sp 0 +
STACK CFI 4d184 .cfa: x29 64 +
STACK CFI INIT 4d424 814 .cfa: sp 0 +
STACK CFI 4d428 .cfa: sp 128 +
STACK CFI 4d43c .cfa: x29 64 + x19: .cfa -8 + ^ x20: .cfa -16 + ^ x21: .cfa -24 + ^ x22: .cfa -32 + ^ x23: .cfa -48 + ^ .ra: .cfa -56 + ^ x29: .cfa -64 + ^
STACK CFI 4da70 .cfa: sp 128 +
STACK CFI 4da84 .cfa: sp 0 +
STACK CFI 4da88 .cfa: x29 64 +
STACK CFI INIT 4dc38 7b0 .cfa: sp 0 +
STACK CFI 4dc3c .cfa: sp 80 +
STACK CFI 4dc50 .cfa: x29 80 + x19: .cfa -8 + ^ x20: .cfa -16 + ^ x21: .cfa -24 + ^ x22: .cfa -32 + ^ x23: .cfa -40 + ^ x24: .cfa -48 + ^ x25: .cfa -56 + ^ x26: .cfa -64 + ^ .ra: .cfa -72 + ^ x29: .cfa -80 + ^
STACK CFI 4e06c .cfa: sp 80 +
STACK CFI 4e080 .cfa: sp 0 +
STACK CFI 4e084 .cfa: x29 80 +
STACK CFI INIT 4e43c 16c .cfa: sp 0 +
STACK CFI 4e440 .cfa: sp 160 +
STACK CFI 4e458 .cfa: x29 80 + x19: .cfa -8 + ^ x20: .cfa -16 + ^ x21: .cfa -24 + ^ x22: .cfa -32 + ^ x23: .cfa -40 + ^ x24: .cfa -48 + ^ x25: .cfa -56 + ^ x26: .cfa -64 + ^ .ra: .cfa -72 + ^ x29: .cfa -80 + ^
STACK CFI 4e4c0 .cfa: sp 160 +
STACK CFI 4e4d8 .cfa: sp 0 +
STACK CFI 4e4dc .cfa: x29 80 +
STACK CFI INIT 4e5a8 4ac .cfa: sp 0 +
STACK CFI 4e5ac .cfa: sp 128 +
STACK CFI 4e5c4 .cfa: x29 80 + x19: .cfa -8 + ^ x20: .cfa -16 + ^ x21: .cfa -24 + ^ x22: .cfa -32 + ^ x23: .cfa -40 + ^ x24: .cfa -48 + ^ x25: .cfa -64 + ^ .ra: .cfa -72 + ^ x29: .cfa -80 + ^
STACK CFI 4e9d0 .cfa: sp 128 +
STACK CFI 4e9e8 .cfa: sp 0 +
STACK CFI 4e9ec .cfa: x29 80 +
STACK CFI INIT 4ea5c 17c .cfa: sp 0 +
STACK CFI 4ea60 .cfa: sp 176 +
STACK CFI 4ea7c .cfa: x29 80 + x19: .cfa -8 + ^ x20: .cfa -16 + ^ x21: .cfa -24 + ^ x22: .cfa -32 + ^ x23: .cfa -40 + ^ x24: .cfa -48 + ^ x25: .cfa -56 + ^ x26: .cfa -64 + ^ .ra: .cfa -72 + ^ x29: .cfa -80 + ^ v8: .cfa -96 + ^
STACK CFI 4eaec .cfa: sp 176 +
STACK CFI 4eb08 .cfa: sp 0 +
STACK CFI 4eb0c .cfa: x29 80 +
STACK CFI INIT 4ebd8 5ac .cfa: sp 0 +
STACK CFI 4ebdc .cfa: sp 128 +
STACK CFI 4ebf4 .cfa: x29 80 + x19: .cfa -8 + ^ x20: .cfa -16 + ^ x21: .cfa -24 + ^ x22: .cfa -32 + ^ x23: .cfa -40 + ^ x24: .cfa -48 + ^ x25: .cfa -64 + ^ .ra: .cfa -72 + ^ x29: .cfa -80 + ^
STACK CFI 4f0f0 .cfa: sp 128 +
STACK CFI 4f108 .cfa: sp 0 +
STACK CFI 4f10c .cfa: x29 80 +
STACK CFI INIT 4f18c 15c .cfa: sp 0 +
STACK CFI 4f190 .cfa: sp 144 +
STACK CFI 4f1a8 .cfa: x29 56 + x19: .cfa -8 + ^ x20: .cfa -16 + ^ x21: .cfa -24 + ^ x22: .cfa -32 + ^ x23: .cfa -40 + ^ .ra: .cfa -48 + ^ x29: .cfa -56 + ^ v8: .cfa -64 + ^
STACK CFI 4f200 .cfa: sp 144 +
STACK CFI 4f218 .cfa: sp 0 +
STACK CFI 4f21c .cfa: x29 56 +
STACK CFI INIT 4f2e8 2d4 .cfa: sp 0 +
STACK CFI 4f2ec .cfa: sp 96 +
STACK CFI 4f304 .cfa: x29 80 + x19: .cfa -8 + ^ x20: .cfa -16 + ^ x21: .cfa -24 + ^ x22: .cfa -32 + ^ x23: .cfa -40 + ^ x24: .cfa -48 + ^ x25: .cfa -64 + ^ .ra: .cfa -72 + ^ x29: .cfa -80 + ^
STACK CFI 4f558 .cfa: sp 96 +
STACK CFI 4f570 .cfa: sp 0 +
STACK CFI 4f574 .cfa: x29 80 +
STACK CFI INIT 4f5c4 14c .cfa: sp 0 +
STACK CFI 4f5c8 .cfa: sp 144 +
STACK CFI 4f5dc .cfa: x29 64 + x19: .cfa -8 + ^ x20: .cfa -16 + ^ x21: .cfa -24 + ^ x22: .cfa -32 + ^ x23: .cfa -48 + ^ .ra: .cfa -56 + ^ x29: .cfa -64 + ^
STACK CFI 4f62c .cfa: sp 144 +
STACK CFI 4f640 .cfa: sp 0 +
STACK CFI 4f644 .cfa: x29 64 +
STACK CFI INIT 4f710 108 .cfa: sp 0 +
STACK CFI 4f714 .cfa: sp 64 +
STACK CFI 4f724 .cfa: x29 48 + x19: .cfa -8 + ^ x20: .cfa -16 + ^ x21: .cfa -24 + ^ x22: .cfa -32 + ^ .ra: .cfa -40 + ^ x29: .cfa -48 + ^
STACK CFI 4f7d0 .cfa: sp 64 +
STACK CFI 4f7e0 .cfa: sp 0 +
STACK CFI 4f7e4 .cfa: x29 48 +
STACK CFI INIT 4f830 164 .cfa: sp 0 +
STACK CFI 4f834 .cfa: sp 160 +
STACK CFI 4f84c .cfa: x29 80 + x19: .cfa -8 + ^ x20: .cfa -16 + ^ x21: .cfa -24 + ^ x22: .cfa -32 + ^ x23: .cfa -40 + ^ x24: .cfa -48 + ^ x25: .cfa -64 + ^ .ra: .cfa -72 + ^ x29: .cfa -80 + ^
STACK CFI 4f8ac .cfa: sp 160 +
STACK CFI 4f8c4 .cfa: sp 0 +
STACK CFI 4f8c8 .cfa: x29 80 +
STACK CFI INIT 4f994 3d4 .cfa: sp 0 +
STACK CFI 4f998 .cfa: sp 96 +
STACK CFI 4f9b0 .cfa: x29 80 + x19: .cfa -8 + ^ x20: .cfa -16 + ^ x21: .cfa -24 + ^ x22: .cfa -32 + ^ x23: .cfa -40 + ^ x24: .cfa -48 + ^ x25: .cfa -64 + ^ .ra: .cfa -72 + ^ x29: .cfa -80 + ^
STACK CFI 4fcf4 .cfa: sp 96 +
STACK CFI 4fd0c .cfa: sp 0 +
STACK CFI 4fd10 .cfa: x29 80 +
STACK CFI INIT 4fd68 17c .cfa: sp 0 +
STACK CFI 4fd6c .cfa: sp 176 +
STACK CFI 4fd88 .cfa: x29 96 + x19: .cfa -8 + ^ x20: .cfa -16 + ^ x21: .cfa -24 + ^ x22: .cfa -32 + ^ x23: .cfa -40 + ^ x24: .cfa -48 + ^ x25: .cfa -56 + ^ x26: .cfa -64 + ^ x27: .cfa -80 + ^ .ra: .cfa -88 + ^ x29: .cfa -96 + ^
STACK CFI 4fdf8 .cfa: sp 176 +
STACK CFI 4fe14 .cfa: sp 0 +
STACK CFI 4fe18 .cfa: x29 96 +
STACK CFI INIT 4fee4 5d4 .cfa: sp 0 +
STACK CFI 4fee8 .cfa: sp 96 +
STACK CFI 4ff00 .cfa: x29 80 + x19: .cfa -8 + ^ x20: .cfa -16 + ^ x21: .cfa -24 + ^ x22: .cfa -32 + ^ x23: .cfa -40 + ^ x24: .cfa -48 + ^ x25: .cfa -64 + ^ .ra: .cfa -72 + ^ x29: .cfa -80 + ^
STACK CFI 50424 .cfa: sp 96 +
STACK CFI 5043c .cfa: sp 0 +
STACK CFI 50440 .cfa: x29 80 +
STACK CFI INIT 504b8 14c .cfa: sp 0 +
STACK CFI 504bc .cfa: sp 144 +
STACK CFI 504d0 .cfa: x29 64 + x19: .cfa -8 + ^ x20: .cfa -16 + ^ x21: .cfa -24 + ^ x22: .cfa -32 + ^ x23: .cfa -48 + ^ .ra: .cfa -56 + ^ x29: .cfa -64 + ^
STACK CFI 50520 .cfa: sp 144 +
STACK CFI 50534 .cfa: sp 0 +
STACK CFI 50538 .cfa: x29 64 +
STACK CFI INIT 50604 108 .cfa: sp 0 +
STACK CFI 50608 .cfa: sp 64 +
STACK CFI 50618 .cfa: x29 48 + x19: .cfa -8 + ^ x20: .cfa -16 + ^ x21: .cfa -24 + ^ x22: .cfa -32 + ^ .ra: .cfa -40 + ^ x29: .cfa -48 + ^
STACK CFI 506c4 .cfa: sp 64 +
STACK CFI 506d4 .cfa: sp 0 +
STACK CFI 506d8 .cfa: x29 48 +
STACK CFI INIT 5070c 304 .cfa: sp 0 +
STACK CFI 50710 .cfa: sp 128 +
STACK CFI 50724 .cfa: x29 64 + x19: .cfa -8 + ^ x20: .cfa -16 + ^ x21: .cfa -24 + ^ x22: .cfa -32 + ^ x23: .cfa -48 + ^ .ra: .cfa -56 + ^ x29: .cfa -64 + ^
STACK CFI 508bc .cfa: sp 128 +
STACK CFI 508d0 .cfa: sp 0 +
STACK CFI 508d4 .cfa: x29 64 +
STACK CFI INIT 50a64 14c .cfa: sp 0 +
STACK CFI 50a68 .cfa: sp 144 +
STACK CFI 50a7c .cfa: x29 64 + x19: .cfa -8 + ^ x20: .cfa -16 + ^ x21: .cfa -24 + ^ x22: .cfa -32 + ^ x23: .cfa -48 + ^ .ra: .cfa -56 + ^ x29: .cfa -64 + ^
STACK CFI 50acc .cfa: sp 144 +
STACK CFI 50ae0 .cfa: sp 0 +
STACK CFI 50ae4 .cfa: x29 64 +
STACK CFI INIT 50bb0 108 .cfa: sp 0 +
STACK CFI 50bb4 .cfa: sp 64 +
STACK CFI 50bc4 .cfa: x29 48 + x19: .cfa -8 + ^ x20: .cfa -16 + ^ x21: .cfa -24 + ^ x22: .cfa -32 + ^ .ra: .cfa -40 + ^ x29: .cfa -48 + ^
STACK CFI 50c70 .cfa: sp 64 +
STACK CFI 50c80 .cfa: sp 0 +
STACK CFI 50c84 .cfa: x29 48 +
STACK CFI INIT 50cbc 2bc .cfa: sp 0 +
STACK CFI 50cc0 .cfa: sp 128 +
STACK CFI 50cd4 .cfa: x29 64 + x19: .cfa -8 + ^ x20: .cfa -16 + ^ x21: .cfa -24 + ^ x22: .cfa -32 + ^ x23: .cfa -48 + ^ .ra: .cfa -56 + ^ x29: .cfa -64 + ^
STACK CFI 50e24 .cfa: sp 128 +
STACK CFI 50e38 .cfa: sp 0 +
STACK CFI 50e3c .cfa: x29 64 +
STACK CFI INIT 50f78 2bc .cfa: sp 0 +
STACK CFI 50f7c .cfa: sp 128 +
STACK CFI 50f90 .cfa: x29 64 + x19: .cfa -8 + ^ x20: .cfa -16 + ^ x21: .cfa -24 + ^ x22: .cfa -32 + ^ x23: .cfa -48 + ^ .ra: .cfa -56 + ^ x29: .cfa -64 + ^
STACK CFI 510e0 .cfa: sp 128 +
STACK CFI 510f4 .cfa: sp 0 +
STACK CFI 510f8 .cfa: x29 64 +
STACK CFI INIT 51234 278 .cfa: sp 0 +
STACK CFI 51238 .cfa: sp 128 +
STACK CFI 5124c .cfa: x29 64 + x19: .cfa -8 + ^ x20: .cfa -16 + ^ x21: .cfa -24 + ^ x22: .cfa -32 + ^ x23: .cfa -48 + ^ .ra: .cfa -56 + ^ x29: .cfa -64 + ^
STACK CFI 51358 .cfa: sp 128 +
STACK CFI 5136c .cfa: sp 0 +
STACK CFI 51370 .cfa: x29 64 +
STACK CFI INIT 514ac 2c8 .cfa: sp 0 +
STACK CFI 514b0 .cfa: sp 128 +
STACK CFI 514c4 .cfa: x29 64 + x19: .cfa -8 + ^ x20: .cfa -16 + ^ x21: .cfa -24 + ^ x22: .cfa -32 + ^ x23: .cfa -48 + ^ .ra: .cfa -56 + ^ x29: .cfa -64 + ^
STACK CFI 51620 .cfa: sp 128 +
STACK CFI 51634 .cfa: sp 0 +
STACK CFI 51638 .cfa: x29 64 +
STACK CFI INIT 51774 4cc .cfa: sp 0 +
STACK CFI 51778 .cfa: sp 128 +
STACK CFI 5178c .cfa: x29 64 + x19: .cfa -8 + ^ x20: .cfa -16 + ^ x21: .cfa -24 + ^ x22: .cfa -32 + ^ x23: .cfa -48 + ^ .ra: .cfa -56 + ^ x29: .cfa -64 + ^
STACK CFI 51a98 .cfa: sp 128 +
STACK CFI 51aac .cfa: sp 0 +
STACK CFI 51ab0 .cfa: x29 64 +
STACK CFI INIT 51c40 154 .cfa: sp 0 +
STACK CFI 51c44 .cfa: sp 384 +
STACK CFI 51c58 .cfa: x29 64 + x19: .cfa -8 + ^ x20: .cfa -16 + ^ x21: .cfa -24 + ^ x22: .cfa -32 + ^ x23: .cfa -40 + ^ x28: .cfa -48 + ^ .ra: .cfa -56 + ^ x29: .cfa -64 + ^
STACK CFI 51d3c .cfa: sp 384 +
STACK CFI 51d50 .cfa: sp 0 +
STACK CFI 51d54 .cfa: x29 64 +
STACK CFI INIT 51dac 4e0 .cfa: sp 0 +
STACK CFI 51db0 .cfa: sp 64 +
STACK CFI 51dc0 .cfa: x29 64 + x19: .cfa -8 + ^ x20: .cfa -16 + ^ x21: .cfa -24 + ^ x22: .cfa -32 + ^ x23: .cfa -40 + ^ x24: .cfa -48 + ^ .ra: .cfa -56 + ^ x29: .cfa -64 + ^
STACK CFI 52260 .cfa: sp 64 +
STACK CFI 52270 .cfa: sp 0 +
STACK CFI 52274 .cfa: x29 64 +
STACK CFI INIT 525bc 294 .cfa: sp 0 +
STACK CFI 525c0 .cfa: sp 240 +
STACK CFI 525d8 .cfa: x29 80 + x19: .cfa -8 + ^ x20: .cfa -16 + ^ x21: .cfa -24 + ^ x22: .cfa -32 + ^ x23: .cfa -40 + ^ x24: .cfa -48 + ^ x25: .cfa -64 + ^ .ra: .cfa -72 + ^ x29: .cfa -80 + ^
STACK CFI 52778 .cfa: sp 240 +
STACK CFI 52790 .cfa: sp 0 +
STACK CFI 52794 .cfa: x29 80 +
STACK CFI INIT 528cc 50 .cfa: sp 0 +
STACK CFI 528d0 .cfa: sp 32 +
STACK CFI 528d8 .cfa: x29 32 + x19: .cfa -8 + ^ x20: .cfa -16 + ^ .ra: .cfa -24 + ^ x29: .cfa -32 + ^
STACK CFI INIT 52948 7c0 .cfa: sp 0 +
STACK CFI 5294c .cfa: sp 320 +
STACK CFI 52968 .cfa: x29 96 + x19: .cfa -8 + ^ x20: .cfa -16 + ^ x21: .cfa -24 + ^ x22: .cfa -32 + ^ x23: .cfa -40 + ^ x24: .cfa -48 + ^ x25: .cfa -56 + ^ x26: .cfa -64 + ^ x27: .cfa -72 + ^ x28: .cfa -80 + ^ .ra: .cfa -88 + ^ x29: .cfa -96 + ^
STACK CFI 52fb8 .cfa: sp 320 +
STACK CFI 52fd4 .cfa: sp 0 +
STACK CFI 52fd8 .cfa: x29 96 +
STACK CFI INIT 5316c 13c .cfa: sp 0 +
STACK CFI 53170 .cfa: sp 80 +
STACK CFI 53184 .cfa: x29 80 + x19: .cfa -8 + ^ x20: .cfa -16 + ^ x21: .cfa -24 + ^ x22: .cfa -32 + ^ x23: .cfa -40 + ^ x24: .cfa -48 + ^ x28: .cfa -64 + ^ .ra: .cfa -72 + ^ x29: .cfa -80 + ^
STACK CFI 53218 .cfa: sp 80 +
STACK CFI 5322c .cfa: sp 0 +
STACK CFI 53230 .cfa: x29 80 +
STACK CFI INIT 56e60 c84 .cfa: sp 0 +
STACK CFI 56e64 .cfa: sp 96 +
STACK CFI 56e7c .cfa: x29 96 + x19: .cfa -8 + ^ x20: .cfa -16 + ^ x21: .cfa -24 + ^ x22: .cfa -32 + ^ x23: .cfa -40 + ^ x24: .cfa -48 + ^ x25: .cfa -56 + ^ x26: .cfa -64 + ^ x27: .cfa -72 + ^ x28: .cfa -80 + ^ .ra: .cfa -88 + ^ x29: .cfa -96 + ^
STACK CFI 57904 .cfa: sp 96 +
STACK CFI 5791c .cfa: sp 0 +
STACK CFI 57920 .cfa: x29 96 +
STACK CFI INIT 57c38 26c .cfa: sp 0 +
STACK CFI 57c3c .cfa: sp 128 +
STACK CFI 57c4c .cfa: x29 48 + x19: .cfa -8 + ^ x20: .cfa -16 + ^ x21: .cfa -24 + ^ x22: .cfa -32 + ^ .ra: .cfa -40 + ^ x29: .cfa -48 + ^
STACK CFI 57df0 .cfa: sp 128 +
STACK CFI 57e00 .cfa: sp 0 +
STACK CFI 57e04 .cfa: x29 48 +
STACK CFI INIT 58234 3b8 .cfa: sp 0 +
STACK CFI 58238 .cfa: sp 96 +
STACK CFI 58250 .cfa: x29 96 + x19: .cfa -8 + ^ x20: .cfa -16 + ^ x21: .cfa -24 + ^ x22: .cfa -32 + ^ x23: .cfa -40 + ^ x24: .cfa -48 + ^ x25: .cfa -56 + ^ x26: .cfa -64 + ^ x27: .cfa -72 + ^ x28: .cfa -80 + ^ .ra: .cfa -88 + ^ x29: .cfa -96 + ^
STACK CFI 5858c .cfa: sp 96 +
STACK CFI 585a4 .cfa: sp 0 +
STACK CFI 585a8 .cfa: x29 96 +
STACK CFI INIT 5868c cc0 .cfa: sp 0 +
STACK CFI 58690 .cfa: sp 96 +
STACK CFI 586a8 .cfa: x29 96 + x19: .cfa -8 + ^ x20: .cfa -16 + ^ x21: .cfa -24 + ^ x22: .cfa -32 + ^ x23: .cfa -40 + ^ x24: .cfa -48 + ^ x25: .cfa -56 + ^ x26: .cfa -64 + ^ x27: .cfa -72 + ^ x28: .cfa -80 + ^ .ra: .cfa -88 + ^ x29: .cfa -96 + ^
STACK CFI 5915c .cfa: sp 96 +
STACK CFI 59174 .cfa: sp 0 +
STACK CFI 59178 .cfa: x29 96 +
STACK CFI INIT 59634 af8 .cfa: sp 0 +
STACK CFI 59638 .cfa: sp 96 +
STACK CFI 59650 .cfa: x29 96 + x19: .cfa -8 + ^ x20: .cfa -16 + ^ x21: .cfa -24 + ^ x22: .cfa -32 + ^ x23: .cfa -40 + ^ x24: .cfa -48 + ^ x25: .cfa -56 + ^ x26: .cfa -64 + ^ x27: .cfa -72 + ^ x28: .cfa -80 + ^ .ra: .cfa -88 + ^ x29: .cfa -96 + ^
STACK CFI 5a0a0 .cfa: sp 96 +
STACK CFI 5a0b8 .cfa: sp 0 +
STACK CFI 5a0bc .cfa: x29 96 +
STACK CFI INIT 5a320 1430 .cfa: sp 0 +
STACK CFI 5a324 .cfa: sp 96 +
STACK CFI 5a33c .cfa: x29 96 + x19: .cfa -8 + ^ x20: .cfa -16 + ^ x21: .cfa -24 + ^ x22: .cfa -32 + ^ x23: .cfa -40 + ^ x24: .cfa -48 + ^ x25: .cfa -56 + ^ x26: .cfa -64 + ^ x27: .cfa -72 + ^ x28: .cfa -80 + ^ .ra: .cfa -88 + ^ x29: .cfa -96 + ^
STACK CFI 5b5d8 .cfa: sp 96 +
STACK CFI 5b5f0 .cfa: sp 0 +
STACK CFI 5b5f4 .cfa: x29 96 +
STACK CFI INIT 5b874 75c .cfa: sp 0 +
STACK CFI 5b878 .cfa: sp 368 +
STACK CFI 5b894 .cfa: x29 96 + x19: .cfa -8 + ^ x20: .cfa -16 + ^ x21: .cfa -24 + ^ x22: .cfa -32 + ^ x23: .cfa -40 + ^ x24: .cfa -48 + ^ x25: .cfa -56 + ^ x26: .cfa -64 + ^ x27: .cfa -72 + ^ x28: .cfa -80 + ^ .ra: .cfa -88 + ^ x29: .cfa -96 + ^
STACK CFI 5b948 .cfa: sp 368 +
STACK CFI 5b964 .cfa: sp 0 +
STACK CFI 5b968 .cfa: x29 96 +
STACK CFI 5b9bc .cfa: sp 368 +
STACK CFI 5b9d8 .cfa: sp 0 +
STACK CFI 5b9dc .cfa: x29 96 +
STACK CFI INIT 5c390 ee0 .cfa: sp 0 +
STACK CFI 5c394 .cfa: sp 96 +
STACK CFI 5c3ac .cfa: x29 96 + x19: .cfa -8 + ^ x20: .cfa -16 + ^ x21: .cfa -24 + ^ x22: .cfa -32 + ^ x23: .cfa -40 + ^ x24: .cfa -48 + ^ x25: .cfa -56 + ^ x26: .cfa -64 + ^ x27: .cfa -72 + ^ x28: .cfa -80 + ^ .ra: .cfa -88 + ^ x29: .cfa -96 + ^
STACK CFI 5d068 .cfa: sp 96 +
STACK CFI 5d080 .cfa: sp 0 +
STACK CFI 5d084 .cfa: x29 96 +
STACK CFI INIT 5d5e4 14b4 .cfa: sp 0 +
STACK CFI 5d5e8 .cfa: sp 112 +
STACK CFI 5d604 .cfa: x29 96 + x19: .cfa -8 + ^ x20: .cfa -16 + ^ x21: .cfa -24 + ^ x22: .cfa -32 + ^ x23: .cfa -40 + ^ x24: .cfa -48 + ^ x25: .cfa -56 + ^ x26: .cfa -64 + ^ x27: .cfa -72 + ^ x28: .cfa -80 + ^ .ra: .cfa -88 + ^ x29: .cfa -96 + ^ v8: .cfa -112 + ^
STACK CFI 5d9e4 .cfa: sp 112 +
STACK CFI 5da00 .cfa: sp 0 +
STACK CFI 5da04 .cfa: x29 96 +
STACK CFI INIT 60ea8 9a0 .cfa: sp 0 +
STACK CFI 60eac .cfa: sp 144 +
STACK CFI 60ec4 .cfa: x29 80 + x19: .cfa -8 + ^ x20: .cfa -16 + ^ x21: .cfa -24 + ^ x22: .cfa -32 + ^ x23: .cfa -40 + ^ x24: .cfa -48 + ^ x25: .cfa -64 + ^ .ra: .cfa -72 + ^ x29: .cfa -80 + ^
STACK CFI 617c4 .cfa: sp 144 +
STACK CFI 617dc .cfa: sp 0 +
STACK CFI 617e0 .cfa: x29 80 +
STACK CFI INIT 61848 57c .cfa: sp 0 +
STACK CFI 6184c .cfa: sp 96 +
STACK CFI 61864 .cfa: x29 96 + x19: .cfa -8 + ^ x20: .cfa -16 + ^ x21: .cfa -24 + ^ x22: .cfa -32 + ^ x23: .cfa -40 + ^ x24: .cfa -48 + ^ x25: .cfa -56 + ^ x26: .cfa -64 + ^ x27: .cfa -72 + ^ x28: .cfa -80 + ^ .ra: .cfa -88 + ^ x29: .cfa -96 + ^
STACK CFI 61d28 .cfa: sp 96 +
STACK CFI 61d40 .cfa: sp 0 +
STACK CFI 61d44 .cfa: x29 96 +
STACK CFI INIT 61dc4 67c .cfa: sp 0 +
STACK CFI 61dc8 .cfa: sp 96 +
STACK CFI 61de0 .cfa: x29 96 + x19: .cfa -8 + ^ x20: .cfa -16 + ^ x21: .cfa -24 + ^ x22: .cfa -32 + ^ x23: .cfa -40 + ^ x24: .cfa -48 + ^ x25: .cfa -56 + ^ x26: .cfa -64 + ^ x27: .cfa -72 + ^ x28: .cfa -80 + ^ .ra: .cfa -88 + ^ x29: .cfa -96 + ^
STACK CFI 623a4 .cfa: sp 96 +
STACK CFI 623bc .cfa: sp 0 +
STACK CFI 623c0 .cfa: x29 96 +
