MODULE Linux arm64 034D0F3B20794356ADEF2256C4DC967B0 abb2k.duration_filter.android64.so
INFO CODE_ID 3B0F4D0379205643ADEF2256C4DC967B3D7591DE
INFO GENERATOR mozilla/dump_syms 2.3.4
PUBLIC 17940 0 __on_dlclose
PUBLIC 17950 0 __emutls_unregister_key
PUBLIC 17958 0 __on_dlclose_late
PUBLIC 17960 0 __atexit_handler_wrapper
PUBLIC 17974 0 atexit
PUBLIC 17990 0 pthread_atfork
PUBLIC 179a0 0 unwind_phase2
PUBLIC 17ad4 0 _Unwind_Resume
PUBLIC 17b58 0 unwind_phase2_forced
PUBLIC m 17c4c 0 __unw_init_local
PUBLIC m 17cf4 0 __unw_get_reg
PUBLIC 17d70 0 __unw_step_stage2
PUBLIC m 17d84 0 __unw_get_proc_info
PUBLIC m 17dc4 0 __unw_resume
PUBLIC 17dec 0 libunwind::CFI_Parser<libunwind::LocalAddressSpace>::decodeFDE(libunwind::LocalAddressSpace&, unsigned long, libunwind::CFI_Parser<libunwind::LocalAddressSpace>::FDE_Info*, libunwind::CFI_Parser<libunwind::LocalAddressSpace>::CIE_Info*, bool)
PUBLIC 17f7c 0 libunwind::CFI_Parser<libunwind::LocalAddressSpace>::parseCIE(libunwind::LocalAddressSpace&, unsigned long, libunwind::CFI_Parser<libunwind::LocalAddressSpace>::CIE_Info*)
PUBLIC 18244 0 libunwind::AbstractUnwindCursor::~AbstractUnwindCursor()
PUBLIC 1824c 0 libunwind::UnwindCursor<libunwind::LocalAddressSpace, libunwind::Registers_arm64>::~UnwindCursor()
PUBLIC 18254 0 libunwind::UnwindCursor<libunwind::LocalAddressSpace, libunwind::Registers_arm64>::validReg(int)
PUBLIC 18298 0 libunwind::UnwindCursor<libunwind::LocalAddressSpace, libunwind::Registers_arm64>::getReg(int)
PUBLIC 18380 0 libunwind::UnwindCursor<libunwind::LocalAddressSpace, libunwind::Registers_arm64>::setReg(int, unsigned long)
PUBLIC 18468 0 libunwind::UnwindCursor<libunwind::LocalAddressSpace, libunwind::Registers_arm64>::validFloatReg(int)
PUBLIC 1847c 0 libunwind::UnwindCursor<libunwind::LocalAddressSpace, libunwind::Registers_arm64>::getFloatReg(int)
PUBLIC 1848c 0 libunwind::UnwindCursor<libunwind::LocalAddressSpace, libunwind::Registers_arm64>::setFloatReg(int, double)
PUBLIC 1849c 0 libunwind::UnwindCursor<libunwind::LocalAddressSpace, libunwind::Registers_arm64>::step(bool)
PUBLIC 1858c 0 libunwind::UnwindCursor<libunwind::LocalAddressSpace, libunwind::Registers_arm64>::getInfo(unw_proc_info_t*)
PUBLIC 185d0 0 libunwind::UnwindCursor<libunwind::LocalAddressSpace, libunwind::Registers_arm64>::jumpto()
PUBLIC 185dc 0 libunwind::UnwindCursor<libunwind::LocalAddressSpace, libunwind::Registers_arm64>::isSignalFrame()
PUBLIC 185e8 0 libunwind::UnwindCursor<libunwind::LocalAddressSpace, libunwind::Registers_arm64>::getFunctionName(char*, unsigned long, unsigned long*)
PUBLIC 18614 0 libunwind::UnwindCursor<libunwind::LocalAddressSpace, libunwind::Registers_arm64>::setInfoBasedOnIPRegister(bool)
PUBLIC 18894 0 libunwind::UnwindCursor<libunwind::LocalAddressSpace, libunwind::Registers_arm64>::getRegisterName(int)
PUBLIC 188a0 0 libunwind::UnwindCursor<libunwind::LocalAddressSpace, libunwind::Registers_arm64>::stepThroughSigReturn(libunwind::Registers_arm64&)
PUBLIC 189c0 0 libunwind::DwarfInstructions<libunwind::LocalAddressSpace, libunwind::Registers_arm64>::stepWithDwarf(libunwind::LocalAddressSpace&, unsigned long, unsigned long, libunwind::Registers_arm64&, bool&, bool)
PUBLIC 18e48 0 libunwind::CFI_Parser<libunwind::LocalAddressSpace>::parseFDEInstructions(libunwind::LocalAddressSpace&, libunwind::CFI_Parser<libunwind::LocalAddressSpace>::FDE_Info const&, libunwind::CFI_Parser<libunwind::LocalAddressSpace>::CIE_Info const&, unsigned long, int, libunwind::CFI_Parser<libunwind::LocalAddressSpace>::PrologInfo*)
PUBLIC 19a90 0 libunwind::DwarfInstructions<libunwind::LocalAddressSpace, libunwind::Registers_arm64>::getCFA(libunwind::LocalAddressSpace&, libunwind::CFI_Parser<libunwind::LocalAddressSpace>::PrologInfo const&, libunwind::Registers_arm64 const&)
PUBLIC 19bc4 0 libunwind::DwarfInstructions<libunwind::LocalAddressSpace, libunwind::Registers_arm64>::getSavedRegister(libunwind::LocalAddressSpace&, libunwind::Registers_arm64 const&, unsigned long, libunwind::CFI_Parser<libunwind::LocalAddressSpace>::RegisterLocation const&)
PUBLIC 19dd4 0 libunwind::LocalAddressSpace::getEncodedP(unsigned long&, unsigned long, unsigned char, unsigned long)
PUBLIC 1a160 0 libunwind::LocalAddressSpace::getULEB128(unsigned long&, unsigned long)
PUBLIC 1a328 0 libunwind::DwarfInstructions<libunwind::LocalAddressSpace, libunwind::Registers_arm64>::evaluateExpression(unsigned long, libunwind::LocalAddressSpace&, libunwind::Registers_arm64 const&, unsigned long)
PUBLIC 1ace4 0 libunwind::UnwindCursor<libunwind::LocalAddressSpace, libunwind::Registers_arm64>::getInfoFromDwarfSection(unsigned long, libunwind::UnwindInfoSections const&, unsigned int)
PUBLIC 1afb8 0 libunwind::findUnwindSectionsByPhdr(dl_phdr_info*, unsigned long, void*)
PUBLIC 1b0ec 0 libunwind::EHHeaderParser<libunwind::LocalAddressSpace>::decodeEHHdr(libunwind::LocalAddressSpace&, unsigned long, unsigned long, libunwind::EHHeaderParser<libunwind::LocalAddressSpace>::EHHeaderInfo&)
PUBLIC 1b20c 0 libunwind::CFI_Parser<libunwind::LocalAddressSpace>::findFDE(libunwind::LocalAddressSpace&, unsigned long, unsigned long, unsigned long, unsigned long, libunwind::CFI_Parser<libunwind::LocalAddressSpace>::FDE_Info*, libunwind::CFI_Parser<libunwind::LocalAddressSpace>::CIE_Info*)
PUBLIC 1b3d4 0 libunwind::EHHeaderParser<libunwind::LocalAddressSpace>::findFDE(libunwind::LocalAddressSpace&, unsigned long, unsigned long, unsigned int, libunwind::CFI_Parser<libunwind::LocalAddressSpace>::FDE_Info*, libunwind::CFI_Parser<libunwind::LocalAddressSpace>::CIE_Info*)
PUBLIC 1b53c 0 libunwind::EHHeaderParser<libunwind::LocalAddressSpace>::getTableEntrySize(unsigned char)
PUBLIC 1b638 0 libunwind::Registers_arm64::getRegisterName(int)
PUBLIC 1b668 0 __libunwind_Registers_arm64_jumpto
PUBLIC m 1b6f8 0 __unw_getcontext
PUBLIC 1b7a0 0 __aarch64_ldadd8_relax
PUBLIC 1b7d0 0 init_have_lse_atomics
PUBLIC 1b868 0 __init_cpu_features_constructor
PUBLIC 1be04 0 __init_cpu_features
PUBLIC 1be90 0 __aarch64_ldadd8_acq_rel
PUBLIC 1bec0 0 MyEditorUI::OnDuFilterButtonClicked(cocos2d::CCObject*)
PUBLIC 1beec 0 MyEditorUI::isGameObjectSelectValid(GameObject*)
PUBLIC 1c2f4 0 __cxx_global_var_init
PUBLIC 1cec8 0 geode::modifier::ModifyBase<geode::modifier::ModifyDerive<MyEditorUI, EditorUI> >::~ModifyBase()
PUBLIC 1cee0 0 __clang_call_terminate
PUBLIC 1cef0 0 geode::modifier::FieldIntermediate<MyEditorUI, EditorUI>::self()
PUBLIC 1d530 0 geode::modifier::FieldIntermediate<MyEditorUI, EditorUI>::fieldDestructor(void*)
PUBLIC 1d534 0 std::__ndk1::vector<void*, std::__ndk1::allocator<void*> >::__throw_length_error[abi:ne180000]() const
PUBLIC 1d548 0 std::__ndk1::__throw_length_error[abi:ne180000](char const*)
PUBLIC 1d598 0 std::length_error::length_error[abi:ne180000](char const*)
PUBLIC 1d5c8 0 std::__throw_bad_array_new_length([abi:ne180000], void)
PUBLIC 1d5fc 0 std::__ndk1::vector<std::__ndk1::function<void (void*)>, std::__ndk1::allocator<std::__ndk1::function<void (void*)> > >::__throw_length_error[abi:ne180000]() const
PUBLIC 1d610 0 std::__ndk1::vector<void*, std::__ndk1::allocator<void*> >::__throw_out_of_range[abi:ne180000]() const
PUBLIC 1d61c 0 std::__ndk1::__throw_out_of_range[abi:ne180000](char const*)
PUBLIC 1d66c 0 std::out_of_range::out_of_range[abi:ne180000](char const*)
PUBLIC 1d69c 0 std::__ndk1::vector<std::__ndk1::function<void (void*)>, std::__ndk1::allocator<std::__ndk1::function<void (void*)> > >::__throw_out_of_range[abi:ne180000]() const
PUBLIC 1d6a8 0 std::__ndk1::__function::__base<void (void*)>::~__base()
PUBLIC 1d6ac 0 std::__ndk1::__function::__func<void (*)(void*), std::__ndk1::allocator<void (*)(void*)>, void (void*)>::~__func()
PUBLIC 1d6b0 0 std::__ndk1::__function::__func<void (*)(void*), std::__ndk1::allocator<void (*)(void*)>, void (void*)>::__clone() const
PUBLIC 1d6e8 0 std::__ndk1::__function::__func<void (*)(void*), std::__ndk1::allocator<void (*)(void*)>, void (void*)>::__clone(std::__ndk1::__function::__base<void (void*)>*) const
PUBLIC 1d700 0 std::__ndk1::__function::__func<void (*)(void*), std::__ndk1::allocator<void (*)(void*)>, void (void*)>::destroy()
PUBLIC 1d704 0 std::__ndk1::__function::__func<void (*)(void*), std::__ndk1::allocator<void (*)(void*)>, void (void*)>::destroy_deallocate()
PUBLIC 1d708 0 std::__ndk1::__function::__func<void (*)(void*), std::__ndk1::allocator<void (*)(void*)>, void (void*)>::operator()(void*&&)
PUBLIC 1d718 0 std::__ndk1::__function::__func<void (*)(void*), std::__ndk1::allocator<void (*)(void*)>, void (void*)>::target(std::type_info const&) const
PUBLIC 1d734 0 std::__ndk1::__function::__func<void (*)(void*), std::__ndk1::allocator<void (*)(void*)>, void (void*)>::target_type() const
PUBLIC 1d740 0 std::__ndk1::basic_string<char, std::__ndk1::char_traits<char>, std::__ndk1::allocator<char> >::__throw_length_error[abi:ne180000]() const
PUBLIC 1d754 0 std::__ndk1::vector<GameObject*, std::__ndk1::allocator<GameObject*> >::__throw_length_error[abi:ne180000]() const
PUBLIC 1d768 0 geode::modifier::ModifyDerive<MyEditorUI, EditorUI>::apply()
PUBLIC 1e084 0 std::__ndk1::shared_ptr<geode::Hook>::~shared_ptr[abi:ne180000]()
PUBLIC 1e0d4 0 geode::impl::ResultData<geode::Hook*, std::__ndk1::basic_string<char, std::__ndk1::char_traits<char>, std::__ndk1::allocator<char> > >::~ResultData()
PUBLIC 1e148 0 std::__ndk1::vector<std::__ndk1::basic_string<char, std::__ndk1::char_traits<char>, std::__ndk1::allocator<char> >, std::__ndk1::allocator<std::__ndk1::basic_string<char, std::__ndk1::char_traits<char>, std::__ndk1::allocator<char> > > >::~vector[abi:ne180000]()
PUBLIC 1e1c4 0 geode::modifier::ModifyBase<geode::modifier::ModifyDerive<MyEditorUI, EditorUI> >::apply()
PUBLIC 1e1c8 0 _ZN5geode15UnwrapExceptionC2IRPNS_4HookEQsr4implE18IsStringStreamableIT_EEENS_4impl5OkTagEOS5_
PUBLIC 1e31c 0 std::__ndk1::__throw_bad_variant_access[abi:ne180000]()
PUBLIC 1e350 0 std::__ndk1::basic_stringstream<char, std::__ndk1::char_traits<char>, std::__ndk1::allocator<char> >::basic_stringstream[abi:ne180000]()
PUBLIC m 1e47c 0 std::__ndk1::basic_stringstream<char, std::__ndk1::char_traits<char>, std::__ndk1::allocator<char> >::~basic_stringstream()
PUBLIC 1e4fc 0 geode::UnwrapException::~UnwrapException()
PUBLIC 1e520 0 std::__ndk1::__put_character_sequence[abi:ne180000]<char, std::__ndk1::char_traits<char> >(std::__ndk1::basic_ostream<char, std::__ndk1::char_traits<char> >, std::__ndk1::basic_ostream const*, unsigned long)
PUBLIC 1e6c4 0 std::__ndk1::__pad_and_output[abi:ne180000]<char, std::__ndk1::char_traits<char> >(std::__ndk1::char_traits<char>, std::__ndk1::ostreambuf_iterator const*, std::__ndk1::ostreambuf_iterator const, std::__ndk1::ostreambuf_iterator const, std::__ndk1::ios_base&, std::__ndk1::ostreambuf_iterator)
PUBLIC 1e8a0 0 std::__ndk1::basic_stringbuf<char, std::__ndk1::char_traits<char>, std::__ndk1::allocator<char> >::str[abi:ne180000]() &&
PUBLIC 1ea18 0 std::__ndk1::basic_stringbuf<char, std::__ndk1::char_traits<char>, std::__ndk1::allocator<char> >::__init_buf_ptrs[abi:ne180000]()
PUBLIC 1eb60 0 std::__ndk1::basic_string<char, std::__ndk1::char_traits<char>, std::__ndk1::allocator<char> >::__init_copy_ctor_external(char const*, unsigned long)
PUBLIC 1ebe0 0 std::__ndk1::__split_buffer<std::__ndk1::basic_string<char, std::__ndk1::char_traits<char>, std::__ndk1::allocator<char> >, std::__ndk1::allocator<std::__ndk1::basic_string<char, std::__ndk1::char_traits<char>, std::__ndk1::allocator<char> > >&>::~__split_buffer()
PUBLIC 1ec48 0 std::__ndk1::vector<std::__ndk1::basic_string<char, std::__ndk1::char_traits<char>, std::__ndk1::allocator<char> >, std::__ndk1::allocator<std::__ndk1::basic_string<char, std::__ndk1::char_traits<char>, std::__ndk1::allocator<char> > > >::__throw_length_error[abi:ne180000]() const
PUBLIC 1ec5c 0 std::__ndk1::__variant_detail::__visitation::__base::__dispatcher<(unsigned long)0>::__dispatch[abi:ne180000]<std::__ndk1::__variant_detail::__dtor<std::__ndk1::__variant_detail::__traits<geode::Hook*, std::__ndk1::basic_string<char, std::__ndk1::char_traits<char>, std::__ndk1::allocator<char> > >, (std::__ndk1::__variant_detail::_Trait)1>::__destroy[abi:ne180000]()::{lambda(auto:1&)#1}, std::__ndk1::__variant_detail::__base<(std::__ndk1::__variant_detail::__traits<geode::Hook*, std::__ndk1::basic_string<char, std::__ndk1::char_traits<char>, std::__ndk1::allocator<char> > >)1, geode::Hook, std::__ndk1::allocator<char> >&>(std::__ndk1::__variant_detail::__dtor<std::__ndk1::__variant_detail::__traits<geode::Hook*, std::__ndk1::basic_string<char, std::__ndk1::char_traits<char>, std::__ndk1::allocator<char> > >, (std::__ndk1::__variant_detail::_Trait)1>, std::__ndk1::__variant_detail::__base<(std::__ndk1::__variant_detail::__traits<geode::Hook*, std::__ndk1::basic_string<char, std::__ndk1::char_traits<char>, std::__ndk1::allocator<char> > >)1, geode::Hook, std::__ndk1::allocator<char> >&)
PUBLIC 1ec60 0 std::__ndk1::__variant_detail::__visitation::__base::__dispatcher<(unsigned long)1>::__dispatch[abi:ne180000]<std::__ndk1::__variant_detail::__dtor<std::__ndk1::__variant_detail::__traits<geode::Hook*, std::__ndk1::basic_string<char, std::__ndk1::char_traits<char>, std::__ndk1::allocator<char> > >, (std::__ndk1::__variant_detail::_Trait)1>::__destroy[abi:ne180000]()::{lambda(auto:1&)#1}, std::__ndk1::__variant_detail::__base<(std::__ndk1::__variant_detail::__traits<geode::Hook*, std::__ndk1::basic_string<char, std::__ndk1::char_traits<char>, std::__ndk1::allocator<char> > >)1, geode::Hook, std::__ndk1::allocator<char> >&>(std::__ndk1::__variant_detail::__dtor<std::__ndk1::__variant_detail::__traits<geode::Hook*, std::__ndk1::basic_string<char, std::__ndk1::char_traits<char>, std::__ndk1::allocator<char> > >, (std::__ndk1::__variant_detail::_Trait)1>, std::__ndk1::__variant_detail::__base<(std::__ndk1::__variant_detail::__traits<geode::Hook*, std::__ndk1::basic_string<char, std::__ndk1::char_traits<char>, std::__ndk1::allocator<char> > >)1, geode::Hook, std::__ndk1::allocator<char> >&)
PUBLIC 1ec74 0 std::__ndk1::__tree<std::__ndk1::__value_type<std::__ndk1::basic_string<char, std::__ndk1::char_traits<char>, std::__ndk1::allocator<char> >, std::__ndk1::shared_ptr<geode::Hook> >, std::__ndk1::__map_value_compare<std::__ndk1::basic_string<char, std::__ndk1::char_traits<char>, std::__ndk1::allocator<char> >, std::__ndk1::__value_type<std::__ndk1::basic_string<char, std::__ndk1::char_traits<char>, std::__ndk1::allocator<char> >, std::__ndk1::shared_ptr<geode::Hook> >, std::__ndk1::less<std::__ndk1::basic_string<char, std::__ndk1::char_traits<char>, std::__ndk1::allocator<char> > >, true>, std::__ndk1::allocator<std::__ndk1::__value_type<std::__ndk1::basic_string<char, std::__ndk1::char_traits<char>, std::__ndk1::allocator<char> >, std::__ndk1::shared_ptr<geode::Hook> > > >::destroy(std::__ndk1::__tree_node<std::__ndk1::__value_type<std::__ndk1::basic_string<char, std::__ndk1::char_traits<char>, std::__ndk1::allocator<char> >, std::__ndk1::shared_ptr<geode::Hook> >, void*>*)
PUBLIC 1ecf8 0 geode::modifier::AsStaticFunction_init<MyEditorUI, bool (MyEditorUI::*)(LevelEditorLayer*)>::Impl<bool (MyEditorUI::*)(LevelEditorLayer*)>::function(MyEditorUI*, LevelEditorLayer*)
PUBLIC 1f064 0 geode::modifier::AsStaticFunction_selectObject<MyEditorUI, void (MyEditorUI::*)(GameObject*, bool)>::Impl<void (MyEditorUI::*)(GameObject*, bool)>::function(MyEditorUI*, GameObject*, bool)
PUBLIC 1f0b8 0 geode::modifier::AsStaticFunction_selectObjects<MyEditorUI, void (MyEditorUI::*)(cocos2d::CCArray*, bool)>::Impl<void (MyEditorUI::*)(cocos2d::CCArray*, bool)>::function(MyEditorUI*, cocos2d::CCArray*, bool)
PUBLIC 1f3a4 0 std::__ndk1::shared_ptr<tulip::hook::CallingConvention>::~shared_ptr[abi:ne180000]()
PUBLIC 1f3f4 0 tulip::hook::HandlerMetadata::~HandlerMetadata()
PUBLIC 1f458 0 std::__ndk1::__tree<std::__ndk1::__value_type<std::__ndk1::basic_string<char, std::__ndk1::char_traits<char>, std::__ndk1::allocator<char> >, std::__ndk1::shared_ptr<geode::Hook> >, std::__ndk1::__map_value_compare<std::__ndk1::basic_string<char, std::__ndk1::char_traits<char>, std::__ndk1::allocator<char> >, std::__ndk1::__value_type<std::__ndk1::basic_string<char, std::__ndk1::char_traits<char>, std::__ndk1::allocator<char> >, std::__ndk1::shared_ptr<geode::Hook> >, std::__ndk1::less<std::__ndk1::basic_string<char, std::__ndk1::char_traits<char>, std::__ndk1::allocator<char> > >, true>, std::__ndk1::allocator<std::__ndk1::__value_type<std::__ndk1::basic_string<char, std::__ndk1::char_traits<char>, std::__ndk1::allocator<char> >, std::__ndk1::shared_ptr<geode::Hook> > > >::__emplace_unique_key_args<std::__ndk1::basic_string<char, std::__ndk1::char_traits<char>, std::__ndk1::allocator<char> >, std::__ndk1::piecewise_construct_t const&, std::__ndk1::tuple<std::__ndk1::basic_string<char, std::__ndk1::char_traits<char>, std::__ndk1::allocator<char> >&&>, std::__ndk1::tuple<> >(std::__ndk1::basic_string<char, std::__ndk1::char_traits<char>, std::__ndk1::allocator<char> > const&, std::__ndk1::piecewise_construct_t const&, std::__ndk1::tuple<std::__ndk1::basic_string<char, std::__ndk1::char_traits<char>, std::__ndk1::allocator<char> >&&>, std::__ndk1::tuple<>)
PUBLIC 1f5c0 0 std::__ndk1::__tree_balance_after_insert[abi:ne180000]<std::__ndk1::__tree_node_base<void*>*>(std::__ndk1::__tree_node_base<void*>*, std::__ndk1::__tree_node_base<void*>*)
PUBLIC 1f770 0 geode::cast::traverseTypeinfoFor(void*, geode::cast::ClassTypeinfoType const*, char const*)
PUBLIC 1f868 0 DUrationFilterPopup::create(cocos2d::CCLabelBMFont*)
PUBLIC 1f9e4 0 DUrationFilterPopup::show()
PUBLIC 1fa2c 0 DUrationFilterPopup::setup(cocos2d::CCLabelBMFont*)
PUBLIC 201a4 0 DUrationFilterPopup::OnOperatorChanged(cocos2d::CCObject*)
PUBLIC 204c8 0 DUrationFilterPopup::OnToggledEnabled(cocos2d::CCObject*)
PUBLIC 204dc 0 DUrationFilterPopup::textChanged(CCTextInputNode*)
PUBLIC 20710 0 geode::impl::ResultData<float, std::__ndk1::basic_string<char, std::__ndk1::char_traits<char>, std::__ndk1::allocator<char> > >::~ResultData()
PUBLIC 20784 0 {virtual override thunk({offset(-672)}, DUrationFilterPopup::textChanged(CCTextInputNode*))}
PUBLIC 2078c 0 DUrationFilterPopup::onClose(cocos2d::CCObject*)
PUBLIC 209c4 0 geode::Popup<cocos2d::CCLabelBMFont*>::onClose(cocos2d::CCObject*)
PUBLIC 20b0c 0 cocos2d::CCCopying::copyWithZone(cocos2d::CCZone*)
PUBLIC 20b14 0 geode::Popup<cocos2d::CCLabelBMFont*>::~Popup()
PUBLIC 20b80 0 DUrationFilterPopup::~DUrationFilterPopup()
PUBLIC 20bf4 0 geode::Popup<cocos2d::CCLabelBMFont*>::registerWithTouchDispatcher()
PUBLIC 20c20 0 geode::Popup<cocos2d::CCLabelBMFont*>::keyDown(cocos2d::enumKeyCodes)
PUBLIC 20c48 0 cocos2d::CCLayerRGBA::setOpacityModifyRGB(bool)
PUBLIC 20c4c 0 cocos2d::CCLayerRGBA::isOpacityModifyRGB()
PUBLIC 20c54 0 {virtual override thunk({offset(-320)}, DUrationFilterPopup::~DUrationFilterPopup())}
PUBLIC 20cc0 0 {virtual override thunk({offset(-320)}, DUrationFilterPopup::~DUrationFilterPopup())}
PUBLIC 20d34 0 {virtual override thunk({offset(-344)}, geode::Popup<cocos2d::CCLabelBMFont*>::keyDown(cocos2d::enumKeyCodes))}
PUBLIC 20d60 0 cocos2d::CCKeyboardDelegate::keyUp(cocos2d::enumKeyCodes)
PUBLIC 20d64 0 cocos2d::CCMouseDelegate::rightKeyDown()
PUBLIC 20d68 0 cocos2d::CCMouseDelegate::rightKeyUp()
PUBLIC 20d6c 0 cocos2d::CCMouseDelegate::scrollWheel(float, float)
PUBLIC 20d70 0 {virtual override thunk({offset(-408)}, cocos2d::CCLayerRGBA::setOpacityModifyRGB(bool))}
PUBLIC 20d74 0 {virtual override thunk({offset(-408)}, cocos2d::CCLayerRGBA::isOpacityModifyRGB())}
PUBLIC 20d7c 0 geode::Popup<cocos2d::CCLabelBMFont*>::~Popup()
PUBLIC 20d80 0 {virtual override thunk({offset(-320)}, geode::Popup<cocos2d::CCLabelBMFont*>::~Popup())}
PUBLIC 20dec 0 {virtual override thunk({offset(-320)}, geode::Popup<cocos2d::CCLabelBMFont*>::~Popup())}
PUBLIC 20df0 0 std::__ndk1::__variant_detail::__visitation::__base::__dispatcher<(unsigned long)0>::__dispatch[abi:ne180000]<std::__ndk1::__variant_detail::__dtor<std::__ndk1::__variant_detail::__traits<float, std::__ndk1::basic_string<char, std::__ndk1::char_traits<char>, std::__ndk1::allocator<char> > >, (std::__ndk1::__variant_detail::_Trait)1>::__destroy[abi:ne180000]()::{lambda(auto:1&)#1}, std::__ndk1::__variant_detail::__base<(std::__ndk1::__variant_detail::__traits<float, std::__ndk1::basic_string<char, std::__ndk1::char_traits<char>, std::__ndk1::allocator<char> > >)1, float, std::__ndk1::allocator<char> >&>(std::__ndk1::__variant_detail::__dtor<std::__ndk1::__variant_detail::__traits<float, std::__ndk1::basic_string<char, std::__ndk1::char_traits<char>, std::__ndk1::allocator<char> > >, (std::__ndk1::__variant_detail::_Trait)1>, std::__ndk1::__variant_detail::__base<(std::__ndk1::__variant_detail::__traits<float, std::__ndk1::basic_string<char, std::__ndk1::char_traits<char>, std::__ndk1::allocator<char> > >)1, float, std::__ndk1::allocator<char> >&)
PUBLIC 20df4 0 std::__ndk1::__variant_detail::__visitation::__base::__dispatcher<(unsigned long)1>::__dispatch[abi:ne180000]<std::__ndk1::__variant_detail::__dtor<std::__ndk1::__variant_detail::__traits<float, std::__ndk1::basic_string<char, std::__ndk1::char_traits<char>, std::__ndk1::allocator<char> > >, (std::__ndk1::__variant_detail::_Trait)1>::__destroy[abi:ne180000]()::{lambda(auto:1&)#1}, std::__ndk1::__variant_detail::__base<(std::__ndk1::__variant_detail::__traits<float, std::__ndk1::basic_string<char, std::__ndk1::char_traits<char>, std::__ndk1::allocator<char> > >)1, float, std::__ndk1::allocator<char> >&>(std::__ndk1::__variant_detail::__dtor<std::__ndk1::__variant_detail::__traits<float, std::__ndk1::basic_string<char, std::__ndk1::char_traits<char>, std::__ndk1::allocator<char> > >, (std::__ndk1::__variant_detail::_Trait)1>, std::__ndk1::__variant_detail::__base<(std::__ndk1::__variant_detail::__traits<float, std::__ndk1::basic_string<char, std::__ndk1::char_traits<char>, std::__ndk1::allocator<char> > >)1, float, std::__ndk1::allocator<char> >&)
PUBLIC 20e08 0 geode::Popup<cocos2d::CCLabelBMFont*>::initBase(float, float, cocos2d::CCLabelBMFont*, char const*, cocos2d::CCRect, bool)
PUBLIC 2111c 0 geode::Popup<cocos2d::CCLabelBMFont*>::CloseEvent::~CloseEvent()
PUBLIC 2117c 0 geode::Popup<cocos2d::CCLabelBMFont*>::CloseEvent::~CloseEvent()
PUBLIC 211ec 0 std::__ndk1::__shared_ptr_emplace<geode::Popup<cocos2d::CCLabelBMFont*>::CloseEvent::Impl, std::__ndk1::allocator<geode::Popup<cocos2d::CCLabelBMFont*>::CloseEvent::Impl> >::~__shared_ptr_emplace()
PUBLIC 211fc 0 std::__ndk1::__shared_ptr_emplace<geode::Popup<cocos2d::CCLabelBMFont*>::CloseEvent::Impl, std::__ndk1::allocator<geode::Popup<cocos2d::CCLabelBMFont*>::CloseEvent::Impl> >::~__shared_ptr_emplace()
PUBLIC 2122c 0 std::__ndk1::__shared_ptr_emplace<geode::Popup<cocos2d::CCLabelBMFont*>::CloseEvent::Impl, std::__ndk1::allocator<geode::Popup<cocos2d::CCLabelBMFont*>::CloseEvent::Impl> >::__on_zero_shared()
PUBLIC 21230 0 std::__ndk1::__shared_ptr_emplace<geode::Popup<cocos2d::CCLabelBMFont*>::CloseEvent::Impl, std::__ndk1::allocator<geode::Popup<cocos2d::CCLabelBMFont*>::CloseEvent::Impl> >::__on_zero_shared_weak()
PUBLIC 21234 0 Saved::getDurationFiltered()
PUBLIC 212a4 0 geode::Mod::getSavedValue<float>(std::__ndk1::basic_string_view<char, std::__ndk1::char_traits<char> >, float const&)
PUBLIC 21484 0 Saved::setDurationFiltered(float)
PUBLIC 21564 0 Saved::getDurationOperator()
PUBLIC 21628 0 geode::Mod::getSavedValue<std::__ndk1::basic_string<char, std::__ndk1::char_traits<char>, std::__ndk1::allocator<char> > >(std::__ndk1::basic_string_view<char, std::__ndk1::char_traits<char> >, std::__ndk1::basic_string<char, std::__ndk1::char_traits<char>, std::__ndk1::allocator<char> > const&)
PUBLIC 218cc 0 geode::Mod::setSavedValue<std::__ndk1::basic_string<char, std::__ndk1::char_traits<char>, std::__ndk1::allocator<char> > >(std::__ndk1::basic_string_view<char, std::__ndk1::char_traits<char> >, std::__ndk1::basic_string<char, std::__ndk1::char_traits<char>, std::__ndk1::allocator<char> > const&)
PUBLIC 21a2c 0 geode::Mod::getSavedValue<bool>(std::__ndk1::basic_string_view<char, std::__ndk1::char_traits<char> >, bool const&)
PUBLIC 21c18 0 Saved::setDurationFilterEnabled(bool)
PUBLIC 21cfc 0 geode::impl::ResultData<matjson::Value&, std::__ndk1::basic_string<char, std::__ndk1::char_traits<char>, std::__ndk1::allocator<char> > >::~ResultData()
PUBLIC 21d70 0 matjson::Value::as<float>() const
PUBLIC 21e7c 0 std::__ndk1::__variant_detail::__visitation::__base::__dispatcher<(unsigned long)0>::__dispatch[abi:ne180000]<std::__ndk1::__variant_detail::__dtor<std::__ndk1::__variant_detail::__traits<double, std::__ndk1::basic_string<char, std::__ndk1::char_traits<char>, std::__ndk1::allocator<char> > >, (std::__ndk1::__variant_detail::_Trait)1>::__destroy[abi:ne180000]()::{lambda(auto:1&)#1}, std::__ndk1::__variant_detail::__base<(std::__ndk1::__variant_detail::__traits<double, std::__ndk1::basic_string<char, std::__ndk1::char_traits<char>, std::__ndk1::allocator<char> > >)1, double, std::__ndk1::allocator<char> >&>(std::__ndk1::__variant_detail::__dtor<std::__ndk1::__variant_detail::__traits<double, std::__ndk1::basic_string<char, std::__ndk1::char_traits<char>, std::__ndk1::allocator<char> > >, (std::__ndk1::__variant_detail::_Trait)1>, std::__ndk1::__variant_detail::__base<(std::__ndk1::__variant_detail::__traits<double, std::__ndk1::basic_string<char, std::__ndk1::char_traits<char>, std::__ndk1::allocator<char> > >)1, double, std::__ndk1::allocator<char> >&)
PUBLIC 21e80 0 std::__ndk1::__variant_detail::__visitation::__base::__dispatcher<(unsigned long)1>::__dispatch[abi:ne180000]<std::__ndk1::__variant_detail::__dtor<std::__ndk1::__variant_detail::__traits<double, std::__ndk1::basic_string<char, std::__ndk1::char_traits<char>, std::__ndk1::allocator<char> > >, (std::__ndk1::__variant_detail::_Trait)1>::__destroy[abi:ne180000]()::{lambda(auto:1&)#1}, std::__ndk1::__variant_detail::__base<(std::__ndk1::__variant_detail::__traits<double, std::__ndk1::basic_string<char, std::__ndk1::char_traits<char>, std::__ndk1::allocator<char> > >)1, double, std::__ndk1::allocator<char> >&>(std::__ndk1::__variant_detail::__dtor<std::__ndk1::__variant_detail::__traits<double, std::__ndk1::basic_string<char, std::__ndk1::char_traits<char>, std::__ndk1::allocator<char> > >, (std::__ndk1::__variant_detail::_Trait)1>, std::__ndk1::__variant_detail::__base<(std::__ndk1::__variant_detail::__traits<double, std::__ndk1::basic_string<char, std::__ndk1::char_traits<char>, std::__ndk1::allocator<char> > >)1, double, std::__ndk1::allocator<char> >&)
PUBLIC 21e94 0 std::__ndk1::__variant_detail::__visitation::__base::__dispatcher<(unsigned long)0>::__dispatch[abi:ne180000]<std::__ndk1::__variant_detail::__dtor<std::__ndk1::__variant_detail::__traits<std::__ndk1::reference_wrapper<matjson::Value>, std::__ndk1::basic_string<char, std::__ndk1::char_traits<char>, std::__ndk1::allocator<char> > >, (std::__ndk1::__variant_detail::_Trait)1>::__destroy[abi:ne180000]()::{lambda(auto:1&)#1}, std::__ndk1::__variant_detail::__base<(std::__ndk1::__variant_detail::__traits<std::__ndk1::reference_wrapper<matjson::Value>, std::__ndk1::basic_string<char, std::__ndk1::char_traits<char>, std::__ndk1::allocator<char> > >)1, matjson::Value, std::__ndk1::allocator<char> >&>(std::__ndk1::__variant_detail::__dtor<std::__ndk1::__variant_detail::__traits<std::__ndk1::reference_wrapper<matjson::Value>, std::__ndk1::basic_string<char, std::__ndk1::char_traits<char>, std::__ndk1::allocator<char> > >, (std::__ndk1::__variant_detail::_Trait)1>, std::__ndk1::__variant_detail::__base<(std::__ndk1::__variant_detail::__traits<std::__ndk1::reference_wrapper<matjson::Value>, std::__ndk1::basic_string<char, std::__ndk1::char_traits<char>, std::__ndk1::allocator<char> > >)1, matjson::Value, std::__ndk1::allocator<char> >&)
PUBLIC 21e98 0 std::__ndk1::__variant_detail::__visitation::__base::__dispatcher<(unsigned long)1>::__dispatch[abi:ne180000]<std::__ndk1::__variant_detail::__dtor<std::__ndk1::__variant_detail::__traits<std::__ndk1::reference_wrapper<matjson::Value>, std::__ndk1::basic_string<char, std::__ndk1::char_traits<char>, std::__ndk1::allocator<char> > >, (std::__ndk1::__variant_detail::_Trait)1>::__destroy[abi:ne180000]()::{lambda(auto:1&)#1}, std::__ndk1::__variant_detail::__base<(std::__ndk1::__variant_detail::__traits<std::__ndk1::reference_wrapper<matjson::Value>, std::__ndk1::basic_string<char, std::__ndk1::char_traits<char>, std::__ndk1::allocator<char> > >)1, matjson::Value, std::__ndk1::allocator<char> >&>(std::__ndk1::__variant_detail::__dtor<std::__ndk1::__variant_detail::__traits<std::__ndk1::reference_wrapper<matjson::Value>, std::__ndk1::basic_string<char, std::__ndk1::char_traits<char>, std::__ndk1::allocator<char> > >, (std::__ndk1::__variant_detail::_Trait)1>, std::__ndk1::__variant_detail::__base<(std::__ndk1::__variant_detail::__traits<std::__ndk1::reference_wrapper<matjson::Value>, std::__ndk1::basic_string<char, std::__ndk1::char_traits<char>, std::__ndk1::allocator<char> > >)1, matjson::Value, std::__ndk1::allocator<char> >&)
PUBLIC 21eac 0 geode::Mod::getSavedValue<float>(std::__ndk1::basic_string_view<char, std::__ndk1::char_traits<char> >)
PUBLIC 2203c 0 geode::impl::ResultData<std::__ndk1::basic_string<char, std::__ndk1::char_traits<char>, std::__ndk1::allocator<char> >, std::__ndk1::basic_string<char, std::__ndk1::char_traits<char>, std::__ndk1::allocator<char> > >::~ResultData()
PUBLIC 220b0 0 std::__ndk1::__variant_detail::__visitation::__base::__dispatcher<(unsigned long)0>::__dispatch[abi:ne180000]<std::__ndk1::__variant_detail::__dtor<std::__ndk1::__variant_detail::__traits<std::__ndk1::basic_string<char, std::__ndk1::char_traits<char>, std::__ndk1::allocator<char> >, std::__ndk1::allocator<char> >, (std::__ndk1::__variant_detail::_Trait)1>::__destroy[abi:ne180000]()::{lambda(auto:1&)#1}, std::__ndk1::__variant_detail::__base<(std::__ndk1::__variant_detail::__traits<std::__ndk1::basic_string<char, std::__ndk1::char_traits<char>, std::__ndk1::allocator<char> >, std::__ndk1::allocator<char> >)1, std::__ndk1::allocator<char>, std::__ndk1::allocator<char> >&>(std::__ndk1::__variant_detail::__dtor<std::__ndk1::__variant_detail::__traits<std::__ndk1::basic_string<char, std::__ndk1::char_traits<char>, std::__ndk1::allocator<char> >, std::__ndk1::allocator<char> >, (std::__ndk1::__variant_detail::_Trait)1>, std::__ndk1::__variant_detail::__base<(std::__ndk1::__variant_detail::__traits<std::__ndk1::basic_string<char, std::__ndk1::char_traits<char>, std::__ndk1::allocator<char> >, std::__ndk1::allocator<char> >)1, std::__ndk1::allocator<char>, std::__ndk1::allocator<char> >&)
PUBLIC 220c4 0 std::__ndk1::__variant_detail::__visitation::__base::__dispatcher<(unsigned long)1>::__dispatch[abi:ne180000]<std::__ndk1::__variant_detail::__dtor<std::__ndk1::__variant_detail::__traits<std::__ndk1::basic_string<char, std::__ndk1::char_traits<char>, std::__ndk1::allocator<char> >, std::__ndk1::allocator<char> >, (std::__ndk1::__variant_detail::_Trait)1>::__destroy[abi:ne180000]()::{lambda(auto:1&)#1}, std::__ndk1::__variant_detail::__base<(std::__ndk1::__variant_detail::__traits<std::__ndk1::basic_string<char, std::__ndk1::char_traits<char>, std::__ndk1::allocator<char> >, std::__ndk1::allocator<char> >)1, std::__ndk1::allocator<char>, std::__ndk1::allocator<char> >&>(std::__ndk1::__variant_detail::__dtor<std::__ndk1::__variant_detail::__traits<std::__ndk1::basic_string<char, std::__ndk1::char_traits<char>, std::__ndk1::allocator<char> >, std::__ndk1::allocator<char> >, (std::__ndk1::__variant_detail::_Trait)1>, std::__ndk1::__variant_detail::__base<(std::__ndk1::__variant_detail::__traits<std::__ndk1::basic_string<char, std::__ndk1::char_traits<char>, std::__ndk1::allocator<char> >, std::__ndk1::allocator<char> >)1, std::__ndk1::allocator<char>, std::__ndk1::allocator<char> >&)
PUBLIC 220d8 0 geode::Mod::getSavedValue<std::__ndk1::basic_string<char, std::__ndk1::char_traits<char>, std::__ndk1::allocator<char> > >(std::__ndk1::basic_string_view<char, std::__ndk1::char_traits<char> >)
PUBLIC 222c0 0 std::__ndk1::__variant_detail::__visitation::__base::__dispatcher<(unsigned long)0>::__dispatch[abi:ne180000]<std::__ndk1::__variant_detail::__dtor<std::__ndk1::__variant_detail::__traits<bool, std::__ndk1::basic_string<char, std::__ndk1::char_traits<char>, std::__ndk1::allocator<char> > >, (std::__ndk1::__variant_detail::_Trait)1>::__destroy[abi:ne180000]()::{lambda(auto:1&)#1}, std::__ndk1::__variant_detail::__base<(std::__ndk1::__variant_detail::__traits<bool, std::__ndk1::basic_string<char, std::__ndk1::char_traits<char>, std::__ndk1::allocator<char> > >)1, bool, std::__ndk1::allocator<char> >&>(std::__ndk1::__variant_detail::__dtor<std::__ndk1::__variant_detail::__traits<bool, std::__ndk1::basic_string<char, std::__ndk1::char_traits<char>, std::__ndk1::allocator<char> > >, (std::__ndk1::__variant_detail::_Trait)1>, std::__ndk1::__variant_detail::__base<(std::__ndk1::__variant_detail::__traits<bool, std::__ndk1::basic_string<char, std::__ndk1::char_traits<char>, std::__ndk1::allocator<char> > >)1, bool, std::__ndk1::allocator<char> >&)
PUBLIC 222c4 0 std::__ndk1::__variant_detail::__visitation::__base::__dispatcher<(unsigned long)1>::__dispatch[abi:ne180000]<std::__ndk1::__variant_detail::__dtor<std::__ndk1::__variant_detail::__traits<bool, std::__ndk1::basic_string<char, std::__ndk1::char_traits<char>, std::__ndk1::allocator<char> > >, (std::__ndk1::__variant_detail::_Trait)1>::__destroy[abi:ne180000]()::{lambda(auto:1&)#1}, std::__ndk1::__variant_detail::__base<(std::__ndk1::__variant_detail::__traits<bool, std::__ndk1::basic_string<char, std::__ndk1::char_traits<char>, std::__ndk1::allocator<char> > >)1, bool, std::__ndk1::allocator<char> >&>(std::__ndk1::__variant_detail::__dtor<std::__ndk1::__variant_detail::__traits<bool, std::__ndk1::basic_string<char, std::__ndk1::char_traits<char>, std::__ndk1::allocator<char> > >, (std::__ndk1::__variant_detail::_Trait)1>, std::__ndk1::__variant_detail::__base<(std::__ndk1::__variant_detail::__traits<bool, std::__ndk1::basic_string<char, std::__ndk1::char_traits<char>, std::__ndk1::allocator<char> > >)1, bool, std::__ndk1::allocator<char> >&)
PUBLIC 222d8 0 geode::Mod::getSavedValue<bool>(std::__ndk1::basic_string_view<char, std::__ndk1::char_traits<char> >)
PUBLIC m 22468 0 geodeImplicitEntry
PUBLIC 224a4 0 cocos2d::CCDestructor::~CCDestructor()
PUBLIC 22760 0 wrapFunction(unsigned long, tulip::hook::WrapperMetadata const&)
PUBLIC 22894 0 geode::impl::ResultData<void*, std::__ndk1::basic_string<char, std::__ndk1::char_traits<char>, std::__ndk1::allocator<char> > >::unwrapErr() &
PUBLIC 2290c 0 geode::impl::ResultData<void*, std::__ndk1::basic_string<char, std::__ndk1::char_traits<char>, std::__ndk1::allocator<char> > >::~ResultData()
PUBLIC 22980 0 tulip::hook::WrapperMetadata::~WrapperMetadata()
PUBLIC 229e4 0 cocos2d::CCNode::~CCNode()
PUBLIC 22a08 0 {virtual override thunk({offset(-320)}, cocos2d::CCLayer::~CCLayer())}
PUBLIC 22a10 0 cocos2d::CCLayer::~CCLayer()
PUBLIC 22a34 0 {virtual override thunk({offset(-320)}, cocos2d::CCLayer::~CCLayer())}
PUBLIC 22a5c 0 cocos2d::CCObject::~CCObject()
PUBLIC 22a80 0 cocos2d::CCLayerColor::CCLayerColor()
PUBLIC 230b0 0 cocos2d::CCLayerRGBA::~CCLayerRGBA()
PUBLIC 23304 0 {virtual override thunk({offset(-320)}, cocos2d::CCLayerColor::~CCLayerColor())}
PUBLIC 2330c 0 cocos2d::CCLayerColor::~CCLayerColor()
PUBLIC 23330 0 {virtual override thunk({offset(-320)}, cocos2d::CCLayerColor::~CCLayerColor())}
PUBLIC 23358 0 {virtual override thunk({offset(-320)}, cocos2d::CCLayerRGBA::~CCLayerRGBA())}
PUBLIC 23360 0 cocos2d::CCLayerRGBA::~CCLayerRGBA()
PUBLIC 23384 0 {virtual override thunk({offset(-320)}, cocos2d::CCLayerRGBA::~CCLayerRGBA())}
PUBLIC 233ac 0 {virtual override thunk({offset(-320)}, FLAlertLayer::~FLAlertLayer())}
PUBLIC 233b4 0 FLAlertLayer::~FLAlertLayer()
PUBLIC 233d8 0 {virtual override thunk({offset(-320)}, FLAlertLayer::~FLAlertLayer())}
PUBLIC 23400 0 TextInputDelegate::textInputOpened(CCTextInputNode*)
PUBLIC 23404 0 TextInputDelegate::textInputClosed(CCTextInputNode*)
PUBLIC 23408 0 TextInputDelegate::textInputShouldOffset(CCTextInputNode*, float)
PUBLIC 2340c 0 TextInputDelegate::textInputReturn(CCTextInputNode*)
PUBLIC 23410 0 TextInputDelegate::allowTextInput(CCTextInputNode*)
PUBLIC 23418 0 TextInputDelegate::enterPressed(CCTextInputNode*)
PUBLIC 2341c 0 cocos2d::CCObject::update(float)
PUBLIC 23420 0 cocos2d::CCLayer::~CCLayer()
PUBLIC 2366c 0 cocos2d::CCLayerColor::~CCLayerColor()
PUBLIC 238c8 0 FLAlertLayer::~FLAlertLayer()
PUBLIC 23b84 0 cocos2d::CCNode::~CCNode()
PUBLIC 23db0 0 cocos2d::CCObject::~CCObject()
PUBLIC 23fdc 0 _ZN5geode15UnwrapExceptionC2IRPvQsr4implE18IsStringStreamableIT_EEENS_4impl5OkTagEOS4_
PUBLIC 24130 0 _ZN5geode15UnwrapExceptionC2IRNSt6__ndk112basic_stringIcNS2_11char_traitsIcEENS2_9allocatorIcEEEEQsr4implE18IsStringStreamableIT_EEENS_4impl6ErrTagEOSA_
PUBLIC 24298 0 std::__ndk1::__variant_detail::__visitation::__base::__dispatcher<(unsigned long)0>::__dispatch[abi:ne180000]<std::__ndk1::__variant_detail::__dtor<std::__ndk1::__variant_detail::__traits<void*, std::__ndk1::basic_string<char, std::__ndk1::char_traits<char>, std::__ndk1::allocator<char> > >, (std::__ndk1::__variant_detail::_Trait)1>::__destroy[abi:ne180000]()::{lambda(auto:1&)#1}, std::__ndk1::__variant_detail::__base<(std::__ndk1::__variant_detail::__traits<void*, std::__ndk1::basic_string<char, std::__ndk1::char_traits<char>, std::__ndk1::allocator<char> > >)1, std::__ndk1::__variant_detail::__traits, std::__ndk1::allocator<char> >&>(std::__ndk1::__variant_detail::__dtor<std::__ndk1::__variant_detail::__traits<void*, std::__ndk1::basic_string<char, std::__ndk1::char_traits<char>, std::__ndk1::allocator<char> > >, (std::__ndk1::__variant_detail::_Trait)1>, std::__ndk1::__variant_detail::__base<(std::__ndk1::__variant_detail::__traits<void*, std::__ndk1::basic_string<char, std::__ndk1::char_traits<char>, std::__ndk1::allocator<char> > >)1, std::__ndk1::__variant_detail::__traits, std::__ndk1::allocator<char> >&)
PUBLIC 2429c 0 std::__ndk1::__variant_detail::__visitation::__base::__dispatcher<(unsigned long)1>::__dispatch[abi:ne180000]<std::__ndk1::__variant_detail::__dtor<std::__ndk1::__variant_detail::__traits<void*, std::__ndk1::basic_string<char, std::__ndk1::char_traits<char>, std::__ndk1::allocator<char> > >, (std::__ndk1::__variant_detail::_Trait)1>::__destroy[abi:ne180000]()::{lambda(auto:1&)#1}, std::__ndk1::__variant_detail::__base<(std::__ndk1::__variant_detail::__traits<void*, std::__ndk1::basic_string<char, std::__ndk1::char_traits<char>, std::__ndk1::allocator<char> > >)1, std::__ndk1::__variant_detail::__traits, std::__ndk1::allocator<char> >&>(std::__ndk1::__variant_detail::__dtor<std::__ndk1::__variant_detail::__traits<void*, std::__ndk1::basic_string<char, std::__ndk1::char_traits<char>, std::__ndk1::allocator<char> > >, (std::__ndk1::__variant_detail::_Trait)1>, std::__ndk1::__variant_detail::__base<(std::__ndk1::__variant_detail::__traits<void*, std::__ndk1::basic_string<char, std::__ndk1::char_traits<char>, std::__ndk1::allocator<char> > >)1, std::__ndk1::__variant_detail::__traits, std::__ndk1::allocator<char> >&)
PUBLIC 242b0 0 std::__ndk1::__hash_table<std::__ndk1::__hash_value_type<void*, bool>, std::__ndk1::__unordered_map_hasher<void*, std::__ndk1::__hash_value_type<void*, bool>, std::__ndk1::hash<void*>, std::__ndk1::equal_to<void*>, true>, std::__ndk1::__unordered_map_equal<void*, std::__ndk1::__hash_value_type<void*, bool>, std::__ndk1::equal_to<void*>, std::__ndk1::hash<void*>, true>, std::__ndk1::allocator<std::__ndk1::__hash_value_type<void*, bool> > >::__emplace_unique_key_args<void*, std::__ndk1::piecewise_construct_t const&, std::__ndk1::tuple<void* const&>, std::__ndk1::tuple<> >(void* const&, std::__ndk1::piecewise_construct_t const&, std::__ndk1::tuple<void* const&>, std::__ndk1::tuple<>)
PUBLIC 24790 0 __udivti3
PUBLIC 2479c 0 __udivmodti4
PUBLIC m 249e8 0 __eqtf2
PUBLIC 24a88 0 __unordtf2
PUBLIC 24ac0 0 fmt::v11::detail::write_loc(fmt::v11::basic_appender<char>, fmt::v11::loc_value, fmt::v11::format_specs const&, fmt::v11::detail::locale_ref)
PUBLIC 24d54 0 fmt::v11::format_facet<std::__ndk1::locale>::~format_facet()
PUBLIC 24dd0 0 fmt::v11::report_error(char const*)
PUBLIC 24e20 0 fmt::v11::format_error::runtime_error(char const*)
PUBLIC 24e4c 0 fmt::v11::format_facet<std::__ndk1::locale>::do_put(fmt::v11::basic_appender<char>, fmt::v11::loc_value, fmt::v11::format_specs const&) const
PUBLIC 2560c 0 fmt::v11::detail::loc_writer<char>::~loc_writer()
PUBLIC 25670 0 fmt::v11::detail::vformat_to<char>(fmt::v11::detail::buffer<char>&, fmt::v11::basic_string_view<char>, fmt::v11::detail::vformat_args<char>::type, fmt::v11::detail::locale_ref)
PUBLIC 25be0 0 fmt::v11::detail::is_printable(unsigned int)
PUBLIC 25e08 0 fmt::v11::detail::dragonbox::to_decimal<float>(float)
PUBLIC 260e4 0 fmt::v11::detail::dragonbox::to_decimal<double>(double)
PUBLIC 26620 0 fmt::v11::basic_memory_buffer<char, (unsigned long)500, std::__ndk1::allocator<char> >::grow(fmt::v11::detail::buffer<char>&, unsigned long)
PUBLIC 26698 0 fmt::v11::format_facet<std::__ndk1::locale>::~format_facet()
PUBLIC 26724 0 fmt::v11::format_error::~format_error()
PUBLIC 26748 0 fmt::v11::detail::copy_noinline<char, char const*, fmt::v11::basic_appender<char> >(char const*, char const*, fmt::v11::basic_appender<char>)
PUBLIC 26898 0 fmt::v11::detail::default_arg_formatter<char>::operator()<bool>(bool)
PUBLIC 26900 0 fmt::v11::detail::default_arg_formatter<char>::operator()<char>(char)
PUBLIC 26990 0 fmt::v11::detail::default_arg_formatter<char>::operator()<float>(float)
PUBLIC 26a7c 0 fmt::v11::detail::default_arg_formatter<char>::operator()<double>(double)
PUBLIC 26b68 0 fmt::v11::detail::default_arg_formatter<char>::operator()<char const*>(char const*)
PUBLIC 26bb0 0 fmt::v11::detail::default_arg_formatter<char>::operator()<void const*>(void const*)
PUBLIC 26c48 0 _ZN3fmt3v116detail5writeIcNS0_14basic_appenderIcEEiTnNSt6__ndk19enable_ifIXaaaasr11is_integralIT1_EE5valuentsr3std7is_sameIS7_bEE5valuentsr3std7is_sameIS7_T_EE5valueEiE4typeELi0EEET0_SB_S7_
PUBLIC 26ea8 0 fmt::v11::detail::copy_noinline<char, char*, fmt::v11::basic_appender<char> >(char*, char*, fmt::v11::basic_appender<char>)
PUBLIC 26ff8 0 _ZN3fmt3v116detail5writeIcNS0_14basic_appenderIcEEjTnNSt6__ndk19enable_ifIXaaaasr11is_integralIT1_EE5valuentsr3std7is_sameIS7_bEE5valuentsr3std7is_sameIS7_T_EE5valueEiE4typeELi0EEET0_SB_S7_
PUBLIC 271d8 0 _ZN3fmt3v116detail5writeIcNS0_14basic_appenderIcEExTnNSt6__ndk19enable_ifIXaaaasr11is_integralIT1_EE5valuentsr3std7is_sameIS7_bEE5valuentsr3std7is_sameIS7_T_EE5valueEiE4typeELi0EEET0_SB_S7_
PUBLIC 2745c 0 _ZN3fmt3v116detail5writeIcNS0_14basic_appenderIcEEyTnNSt6__ndk19enable_ifIXaaaasr11is_integralIT1_EE5valuentsr3std7is_sameIS7_bEE5valuentsr3std7is_sameIS7_T_EE5valueEiE4typeELi0EEET0_SB_S7_
PUBLIC 27664 0 _ZN3fmt3v116detail5writeIcNS0_14basic_appenderIcEEnTnNSt6__ndk19enable_ifIXaaaasr11is_integralIT1_EE5valuentsr3std7is_sameIS7_bEE5valuentsr3std7is_sameIS7_T_EE5valueEiE4typeELi0EEET0_SB_S7_
PUBLIC 279c4 0 _ZN3fmt3v116detail5writeIcNS0_14basic_appenderIcEEoTnNSt6__ndk19enable_ifIXaaaasr11is_integralIT1_EE5valuentsr3std7is_sameIS7_bEE5valuentsr3std7is_sameIS7_T_EE5valueEiE4typeELi0EEET0_SB_S7_
PUBLIC 27cd8 0 _ZN3fmt3v116detail5writeIcNS0_14basic_appenderIcEEbTnNSt6__ndk19enable_ifIXsr3std7is_sameIT1_bEE5valueEiE4typeELi0EEET0_SA_S7_RKNS0_12format_specsENS1_10locale_refE
PUBLIC 27f68 0 fmt::v11::detail::write_int_noinline<char, fmt::v11::basic_appender<char>, unsigned int>(fmt::v11::basic_appender<char>, fmt::v11::detail::write_int_arg<unsigned int>, fmt::v11::format_specs const&, fmt::v11::detail::locale_ref)
PUBLIC 28d44 0 fmt::v11::detail::fill<char, fmt::v11::basic_appender<char> >(fmt::v11::basic_appender<char>, unsigned long, fmt::v11::detail::fill_t const&)
PUBLIC 28f14 0 fmt::v11::detail::write_padded<char, (fmt::v11::align::type)1, fmt::v11::basic_appender<char>, fmt::v11::detail::write_char<char, fmt::v11::basic_appender<char> >(fmt::v11::basic_appender<char>, char, fmt::v11::format_specs const&)::{lambda(fmt::v11::basic_appender<char>&)#1}>(fmt::v11::basic_appender<char>, fmt::v11::format_specs const&, unsigned long, unsigned long, fmt::v11::detail::write_char<char, fmt::v11::basic_appender<char> >(fmt::v11::basic_appender<char>, char, fmt::v11::format_specs const&)::{lambda(fmt::v11::basic_appender<char>&)#1})
PUBLIC 29150 0 fmt::v11::detail::write_escaped_cp<fmt::v11::basic_appender<char>, char>(fmt::v11::basic_appender<char>, fmt::v11::detail::find_escape_result<char> const&)
PUBLIC 2945c 0 fmt::v11::detail::write_codepoint<(unsigned long)2, char, fmt::v11::basic_appender<char> >(fmt::v11::basic_appender<char>, char, unsigned int)
PUBLIC 295d4 0 fmt::v11::detail::write_codepoint<(unsigned long)8, char, fmt::v11::basic_appender<char> >(fmt::v11::basic_appender<char>, char, unsigned int)
PUBLIC 2974c 0 fmt::v11::detail::write_padded<char, (fmt::v11::align::type)1, fmt::v11::basic_appender<char>, fmt::v11::detail::write_nonfinite<char, fmt::v11::basic_appender<char> >(fmt::v11::basic_appender<char>, bool, fmt::v11::format_specs, fmt::v11::sign::type)::{lambda(fmt::v11::basic_appender<char>&)#1}>(fmt::v11::basic_appender<char>, fmt::v11::format_specs const&, unsigned long, unsigned long, fmt::v11::detail::write_nonfinite<char, fmt::v11::basic_appender<char> >(fmt::v11::basic_appender<char>, bool, fmt::v11::format_specs, fmt::v11::sign::type)::{lambda(fmt::v11::basic_appender<char>&)#1})
PUBLIC 2998c 0 fmt::v11::detail::do_write_float<char, fmt::v11::basic_appender<char>, fmt::v11::detail::dragonbox::decimal_fp<float>, fmt::v11::detail::digit_grouping<char> >(fmt::v11::basic_appender<char>, fmt::v11::detail::dragonbox::decimal_fp<float> const&, fmt::v11::format_specs const&, fmt::v11::detail::float_specs, fmt::v11::detail::locale_ref)
PUBLIC 2a600 0 fmt::v11::detail::do_write_float<char, fmt::v11::basic_appender<char>, fmt::v11::detail::dragonbox::decimal_fp<float>, fmt::v11::detail::digit_grouping<char> >(fmt::v11::basic_appender<char>, fmt::v11::detail::dragonbox::decimal_fp<float> const&, fmt::v11::format_specs const&, fmt::v11::detail::float_specs, fmt::v11::detail::locale_ref)::{lambda(fmt::v11::basic_appender<char>(fmt::v11::basic_appender<char>))#1}::operator() const
PUBLIC 2a754 0 fmt::v11::detail::digit_grouping<char>::digit_grouping(fmt::v11::detail::locale_ref, bool)
PUBLIC 2a9c0 0 fmt::v11::detail::digit_grouping<char>::~digit_grouping()
PUBLIC 2aa04 0 fmt::v11::detail::write_exponent<char, fmt::v11::basic_appender<char> >(int, fmt::v11::basic_appender<char>)
PUBLIC 2abd4 0 _ZN3fmt3v116detail17write_significandIcjTnNSt6__ndk19enable_ifIXsr3std11is_integralIT0_EE5valueEiE4typeELi0EEEPT_S9_S5_iiS8_
PUBLIC 2ad50 0 std::__ndk1::basic_string<char, std::__ndk1::char_traits<char>, std::__ndk1::allocator<char> >::__assign_no_alias<true>(char const*, unsigned long)
PUBLIC 2adfc 0 std::__ndk1::basic_string<char, std::__ndk1::char_traits<char>, std::__ndk1::allocator<char> >::__assign_no_alias<false>(char const*, unsigned long)
PUBLIC 2af0c 0 fmt::v11::detail::digit_grouping<char>::apply<fmt::v11::basic_appender<char>, char>(fmt::v11::basic_appender<char>, fmt::v11::basic_string_view<char>) const
PUBLIC 2b2c4 0 fmt::v11::basic_memory_buffer<int, (unsigned long)500, std::__ndk1::allocator<int> >::grow(fmt::v11::detail::buffer<int>&, unsigned long)
PUBLIC 2b364 0 fmt::v11::detail::do_write_float<char, fmt::v11::basic_appender<char>, fmt::v11::detail::dragonbox::decimal_fp<double>, fmt::v11::detail::digit_grouping<char> >(fmt::v11::basic_appender<char>, fmt::v11::detail::dragonbox::decimal_fp<double> const&, fmt::v11::format_specs const&, fmt::v11::detail::float_specs, fmt::v11::detail::locale_ref)
PUBLIC 2c018 0 fmt::v11::detail::do_write_float<char, fmt::v11::basic_appender<char>, fmt::v11::detail::dragonbox::decimal_fp<double>, fmt::v11::detail::digit_grouping<char> >(fmt::v11::basic_appender<char>, fmt::v11::detail::dragonbox::decimal_fp<double> const&, fmt::v11::format_specs const&, fmt::v11::detail::float_specs, fmt::v11::detail::locale_ref)::{lambda(fmt::v11::basic_appender<char>(fmt::v11::basic_appender<char>))#1}::operator() const
PUBLIC 2c170 0 _ZN3fmt3v116detail17write_significandIcmTnNSt6__ndk19enable_ifIXsr3std11is_integralIT0_EE5valueEiE4typeELi0EEEPT_S9_S5_iiS8_
PUBLIC 2c300 0 fmt::v11::detail::write_float<char, fmt::v11::basic_appender<char>, long double>(fmt::v11::basic_appender<char>, long double, fmt::v11::format_specs, fmt::v11::detail::locale_ref)
PUBLIC 2cdfc 0 fmt::v11::detail::write_padded<char, (fmt::v11::align::type)2, fmt::v11::basic_appender<char>, fmt::v11::detail::write_bytes<char, (fmt::v11::align::type)2, fmt::v11::basic_appender<char> >(fmt::v11::basic_appender<char>, fmt::v11::basic_string_view<char>, fmt::v11::format_specs const&)::{lambda(fmt::v11::basic_appender<char>&)#1}>(fmt::v11::basic_appender<char>, fmt::v11::format_specs const&, unsigned long, unsigned long, fmt::v11::detail::write_bytes<char, (fmt::v11::align::type)2, fmt::v11::basic_appender<char> >(fmt::v11::basic_appender<char>, fmt::v11::basic_string_view<char>, fmt::v11::format_specs const&)::{lambda(fmt::v11::basic_appender<char>&)#1})
PUBLIC 2cfd8 0 fmt::v11::detail::format_dragon(fmt::v11::detail::basic_fp<unsigned __int128>, unsigned int, int, fmt::v11::detail::buffer<char>&, int&)
PUBLIC 2e408 0 fmt::v11::detail::bigint::operator<<=(int)
PUBLIC 2e52c 0 fmt::v11::detail::bigint::assign_pow10(int)
PUBLIC 2ec88 0 fmt::v11::detail::bigint::divmod_assign(fmt::v11::detail::bigint const&)
PUBLIC 2efa8 0 fmt::v11::basic_memory_buffer<unsigned int, (unsigned long)32, std::__ndk1::allocator<unsigned int> >::grow(fmt::v11::detail::buffer<unsigned int>&, unsigned long)
PUBLIC 2f048 0 fmt::v11::detail::do_write_float<char, fmt::v11::basic_appender<char>, fmt::v11::detail::big_decimal_fp, fmt::v11::detail::digit_grouping<char> >(fmt::v11::basic_appender<char>, fmt::v11::detail::big_decimal_fp const&, fmt::v11::format_specs const&, fmt::v11::detail::float_specs, fmt::v11::detail::locale_ref)
PUBLIC 2fef8 0 fmt::v11::detail::do_write_float<char, fmt::v11::basic_appender<char>, fmt::v11::detail::big_decimal_fp, fmt::v11::detail::digit_grouping<char> >(fmt::v11::basic_appender<char>, fmt::v11::detail::big_decimal_fp const&, fmt::v11::format_specs const&, fmt::v11::detail::float_specs, fmt::v11::detail::locale_ref)::{lambda(fmt::v11::basic_appender<char>(fmt::v11::basic_appender<char>))#1}::operator() const
PUBLIC 30058 0 fmt::v11::detail::write_padded<char, (fmt::v11::align::type)2, fmt::v11::basic_appender<char>, fmt::v11::detail::write_ptr<char, fmt::v11::basic_appender<char>, unsigned long>(fmt::v11::basic_appender<char>, unsigned long, fmt::v11::format_specs const*)::{lambda(fmt::v11::basic_appender<char>&)#1}>(fmt::v11::basic_appender<char>, fmt::v11::format_specs const&, unsigned long, unsigned long, fmt::v11::detail::write_ptr<char, fmt::v11::basic_appender<char>, unsigned long>(fmt::v11::basic_appender<char>, unsigned long, fmt::v11::format_specs const*)::{lambda(fmt::v11::basic_appender<char>&)#1})
PUBLIC 3026c 0 fmt::v11::detail::parse_replacement_field<char, fmt::v11::detail::vformat_to<char>(fmt::v11::detail::buffer<char>&, fmt::v11::basic_string_view<char>, fmt::v11::detail::vformat_args<char>::type, fmt::v11::detail::locale_ref)::format_handler&>(char const*, char const*, fmt::v11::detail::vformat_to<char>(fmt::v11::detail::buffer<char>&, fmt::v11::basic_string_view<char>, fmt::v11::detail::vformat_args<char>::type, fmt::v11::detail::locale_ref)::format_handler&)
PUBLIC 31f08 0 fmt::v11::detail::parse_dynamic_spec<char>(char const*, char const*, int&, fmt::v11::detail::arg_ref<char>&, fmt::v11::basic_format_parse_context<char>&)
PUBLIC 32198 0 fmt::v11::basic_format_args<fmt::v11::context>::get<char>(fmt::v11::basic_string_view<char>) const
PUBLIC 322f0 0 fmt::v11::detail::write_int_noinline<char, fmt::v11::basic_appender<char>, unsigned long>(fmt::v11::basic_appender<char>, fmt::v11::detail::write_int_arg<unsigned long>, fmt::v11::format_specs const&, fmt::v11::detail::locale_ref)
PUBLIC 33144 0 fmt::v11::detail::write_int_noinline<char, fmt::v11::basic_appender<char>, unsigned __int128>(fmt::v11::basic_appender<char>, fmt::v11::detail::write_int_arg<unsigned __int128>, fmt::v11::format_specs const&, fmt::v11::detail::locale_ref)
PUBLIC 341ac 0 _ZN3fmt3v116detail15format_hexfloatIdTnNSt6__ndk19enable_ifIXntsr16is_double_doubleIT_EE5valueEiE4typeELi0EEEvS5_NS0_12format_specsERNS1_6bufferIcEE
PUBLIC 346cc 0 fmt::v11::detail::format_float<double>(double, int, fmt::v11::detail::float_specs, fmt::v11::detail::buffer<char>&)
PUBLIC 3506c 0 fmt::v11::detail::write<char, fmt::v11::basic_appender<char> >(fmt::v11::basic_appender<char>, fmt::v11::basic_string_view<char>, fmt::v11::format_specs const&)
PUBLIC 363d8 0 fmt::v11::detail::for_each_codepoint<fmt::v11::detail::compute_width(fmt::v11::basic_string_view<char>)::count_code_points>(fmt::v11::basic_string_view<char>, fmt::v11::detail::compute_width(fmt::v11::basic_string_view<char>)::count_code_points)::{lambda(char const*, char const*)#1}::operator()(char const*, char const*) const
PUBLIC 36590 0 fmt::v11::detail::write_int<fmt::v11::basic_appender<char>, unsigned long, char>(fmt::v11::basic_appender<char>, unsigned long, unsigned int, fmt::v11::format_specs const&, fmt::v11::detail::digit_grouping<char> const&)
PUBLIC 36b0c 0 fmt::v11::detail::write_int<fmt::v11::basic_appender<char>, unsigned __int128, char>(fmt::v11::basic_appender<char>, unsigned __int128, unsigned int, fmt::v11::format_specs const&, fmt::v11::detail::digit_grouping<char> const&)
PUBLIC 37190 0 <.plt ELF section in abb2k.duration_filter.android64.so>
STACK CFI INIT 17940 10 .cfa: sp 0 +
STACK CFI INIT 17950 8 .cfa: sp 0 +
STACK CFI INIT 17958 8 .cfa: sp 0 +
STACK CFI INIT 17960 14 .cfa: sp 0 +
STACK CFI INIT 17974 1c .cfa: sp 0 +
STACK CFI INIT 17990 10 .cfa: sp 0 +
STACK CFI INIT 179a0 134 .cfa: sp 0 +
STACK CFI INIT 17ad4 84 .cfa: sp 0 +
STACK CFI INIT 17b58 f4 .cfa: sp 0 +
STACK CFI INIT 17c4c a8 .cfa: sp 0 +
STACK CFI INIT 17cf4 7c .cfa: sp 0 +
STACK CFI INIT 17d70 14 .cfa: sp 0 +
STACK CFI INIT 17d84 40 .cfa: sp 0 +
STACK CFI INIT 17dc4 28 .cfa: sp 0 +
STACK CFI INIT 17dec 190 .cfa: sp 0 +
STACK CFI INIT 17f7c 2c8 .cfa: sp 0 +
STACK CFI INIT 18244 8 .cfa: sp 0 +
STACK CFI INIT 1824c 8 .cfa: sp 0 +
STACK CFI INIT 18254 44 .cfa: sp 0 +
STACK CFI INIT 18298 e8 .cfa: sp 0 +
STACK CFI INIT 18380 e8 .cfa: sp 0 +
STACK CFI INIT 18468 14 .cfa: sp 0 +
STACK CFI INIT 1847c 10 .cfa: sp 0 +
STACK CFI INIT 1848c 10 .cfa: sp 0 +
STACK CFI INIT 1849c f0 .cfa: sp 0 +
STACK CFI INIT 1858c 44 .cfa: sp 0 +
STACK CFI INIT 185d0 c .cfa: sp 0 +
STACK CFI INIT 185dc c .cfa: sp 0 +
STACK CFI INIT 185e8 2c .cfa: sp 0 +
STACK CFI INIT 18614 280 .cfa: sp 0 +
STACK CFI INIT 18894 c .cfa: sp 0 +
STACK CFI INIT 188a0 120 .cfa: sp 0 +
STACK CFI INIT 189c0 488 .cfa: sp 0 +
STACK CFI INIT 18e48 c48 .cfa: sp 0 +
STACK CFI INIT 19a90 134 .cfa: sp 0 +
STACK CFI INIT 19bc4 210 .cfa: sp 0 +
STACK CFI INIT 19dd4 38c .cfa: sp 0 +
STACK CFI INIT 1a160 1c8 .cfa: sp 0 +
STACK CFI INIT 1a328 9bc .cfa: sp 0 +
STACK CFI INIT 1ace4 2d4 .cfa: sp 0 +
STACK CFI INIT 1afb8 134 .cfa: sp 0 +
STACK CFI INIT 1b0ec 120 .cfa: sp 0 +
STACK CFI INIT 1b20c 1c8 .cfa: sp 0 +
STACK CFI INIT 1b3d4 168 .cfa: sp 0 +
STACK CFI INIT 1b53c fc .cfa: sp 0 +
STACK CFI INIT 1b638 30 .cfa: sp 0 +
STACK CFI INIT 1b7a0 30 .cfa: sp 0 +
STACK CFI INIT 1b7d0 98 .cfa: sp 0 +
STACK CFI INIT 1b868 59c .cfa: sp 0 +
STACK CFI INIT 1be04 8c .cfa: sp 0 +
STACK CFI INIT 1be90 30 .cfa: sp 0 +
STACK CFI INIT 1bec0 2c .cfa: sp 0 +
STACK CFI 1bec4 .cfa: sp 16 +
STACK CFI 1bec8 .cfa: x29 16 + .ra: .cfa -8 + ^ x29: .cfa -16 + ^
STACK CFI 1bee4 .cfa: sp 16 +
STACK CFI 1bee8 .cfa: sp 0 +
STACK CFI INIT 1beec 408 .cfa: sp 0 +
STACK CFI 1bef0 .cfa: sp 112 +
STACK CFI 1bf08 .cfa: x29 64 + x19: .cfa -8 + ^ x20: .cfa -16 + ^ x21: .cfa -24 + ^ x22: .cfa -32 + ^ x23: .cfa -40 + ^ x24: .cfa -48 + ^ .ra: .cfa -56 + ^ x29: .cfa -64 + ^ v8: .cfa -80 + ^
STACK CFI 1c2c0 .cfa: sp 112 +
STACK CFI 1c2d8 .cfa: sp 0 +
STACK CFI 1c2dc .cfa: x29 64 +
STACK CFI INIT 1cec8 18 .cfa: sp 0 +
STACK CFI INIT 1cee0 10 .cfa: sp 0 +
STACK CFI 1cee4 .cfa: sp 16 +
STACK CFI 1cee8 .cfa: x29 16 + .ra: .cfa -8 + ^ x29: .cfa -16 + ^
STACK CFI INIT 1d530 4 .cfa: sp 0 +
STACK CFI INIT 1d534 14 .cfa: sp 0 +
STACK CFI 1d538 .cfa: sp 16 +
STACK CFI 1d53c .cfa: x29 16 + .ra: .cfa -8 + ^ x29: .cfa -16 + ^
STACK CFI INIT 1d598 30 .cfa: sp 0 +
STACK CFI 1d59c .cfa: sp 32 +
STACK CFI 1d5a4 .cfa: x29 32 + x19: .cfa -16 + ^ .ra: .cfa -24 + ^ x29: .cfa -32 + ^
STACK CFI 1d5bc .cfa: sp 32 +
STACK CFI 1d5c4 .cfa: sp 0 +
STACK CFI INIT 1d5c8 34 .cfa: sp 0 +
STACK CFI 1d5cc .cfa: sp 32 +
STACK CFI 1d5d4 .cfa: x29 32 + x19: .cfa -16 + ^ .ra: .cfa -24 + ^ x29: .cfa -32 + ^
STACK CFI INIT 1d5fc 14 .cfa: sp 0 +
STACK CFI 1d600 .cfa: sp 16 +
STACK CFI 1d604 .cfa: x29 16 + .ra: .cfa -8 + ^ x29: .cfa -16 + ^
STACK CFI INIT 1d610 c .cfa: sp 0 +
STACK CFI 1d614 .cfa: sp 16 +
STACK CFI 1d618 .cfa: x29 16 + .ra: .cfa -8 + ^ x29: .cfa -16 + ^
STACK CFI INIT 1d66c 30 .cfa: sp 0 +
STACK CFI 1d670 .cfa: sp 32 +
STACK CFI 1d678 .cfa: x29 32 + x19: .cfa -16 + ^ .ra: .cfa -24 + ^ x29: .cfa -32 + ^
STACK CFI 1d690 .cfa: sp 32 +
STACK CFI 1d698 .cfa: sp 0 +
STACK CFI INIT 1d69c c .cfa: sp 0 +
STACK CFI 1d6a0 .cfa: sp 16 +
STACK CFI 1d6a4 .cfa: x29 16 + .ra: .cfa -8 + ^ x29: .cfa -16 + ^
STACK CFI INIT 1d6a8 4 .cfa: sp 0 +
STACK CFI INIT 1d6ac 4 .cfa: sp 0 +
STACK CFI INIT 1d6b0 38 .cfa: sp 0 +
STACK CFI 1d6b4 .cfa: sp 32 +
STACK CFI 1d6bc .cfa: x29 32 + x19: .cfa -16 + ^ .ra: .cfa -24 + ^ x29: .cfa -32 + ^
STACK CFI 1d6dc .cfa: sp 32 +
STACK CFI 1d6e4 .cfa: sp 0 +
STACK CFI INIT 1d6e8 18 .cfa: sp 0 +
STACK CFI INIT 1d700 4 .cfa: sp 0 +
STACK CFI INIT 1d704 4 .cfa: sp 0 +
STACK CFI INIT 1d708 10 .cfa: sp 0 +
STACK CFI INIT 1d718 1c .cfa: sp 0 +
STACK CFI INIT 1d734 c .cfa: sp 0 +
STACK CFI INIT 1d740 14 .cfa: sp 0 +
STACK CFI 1d744 .cfa: sp 16 +
STACK CFI 1d748 .cfa: x29 16 + .ra: .cfa -8 + ^ x29: .cfa -16 + ^
STACK CFI INIT 1d754 14 .cfa: sp 0 +
STACK CFI 1d758 .cfa: sp 16 +
STACK CFI 1d75c .cfa: x29 16 + .ra: .cfa -8 + ^ x29: .cfa -16 + ^
STACK CFI INIT 1e084 50 .cfa: sp 0 +
STACK CFI 1e088 .cfa: sp 32 +
STACK CFI 1e090 .cfa: x29 32 + x19: .cfa -16 + ^ .ra: .cfa -24 + ^ x29: .cfa -32 + ^
STACK CFI 1e0a8 .cfa: sp 32 +
STACK CFI 1e0b0 .cfa: sp 0 +
STACK CFI 1e0b4 .cfa: x29 32 +
STACK CFI 1e0c8 .cfa: sp 32 +
STACK CFI 1e0d0 .cfa: sp 0 +
STACK CFI INIT 1e148 7c .cfa: sp 0 +
STACK CFI 1e14c .cfa: sp 48 +
STACK CFI 1e158 .cfa: x29 48 + x19: .cfa -8 + ^ x20: .cfa -16 + ^ x21: .cfa -32 + ^ .ra: .cfa -40 + ^ x29: .cfa -48 + ^
STACK CFI 1e1a4 .cfa: sp 48 +
STACK CFI 1e1b0 .cfa: sp 0 +
STACK CFI 1e1b4 .cfa: sp 48 +
STACK CFI 1e1c0 .cfa: sp 0 +
STACK CFI INIT 1e1c4 4 .cfa: sp 0 +
STACK CFI INIT 1e31c 34 .cfa: sp 0 +
STACK CFI 1e320 .cfa: sp 16 +
STACK CFI 1e324 .cfa: x29 16 + .ra: .cfa -8 + ^ x29: .cfa -16 + ^
STACK CFI INIT 1e47c 80 .cfa: sp 0 +
STACK CFI 1e480 .cfa: sp 48 +
STACK CFI 1e48c .cfa: x29 48 + x19: .cfa -8 + ^ x20: .cfa -16 + ^ x21: .cfa -32 + ^ .ra: .cfa -40 + ^ x29: .cfa -48 + ^
STACK CFI 1e4ec .cfa: sp 48 +
STACK CFI 1e4f8 .cfa: sp 0 +
STACK CFI INIT 1e4fc 24 .cfa: sp 0 +
STACK CFI 1e500 .cfa: sp 32 +
STACK CFI 1e508 .cfa: x29 32 + x19: .cfa -16 + ^ .ra: .cfa -24 + ^ x29: .cfa -32 + ^
STACK CFI 1e514 .cfa: sp 32 +
STACK CFI 1e51c .cfa: sp 0 +
STACK CFI INIT 1ea18 148 .cfa: sp 0 +
STACK CFI 1ea1c .cfa: sp 48 +
STACK CFI 1ea28 .cfa: x29 48 + x19: .cfa -8 + ^ x20: .cfa -16 + ^ x21: .cfa -32 + ^ .ra: .cfa -40 + ^ x29: .cfa -48 + ^
STACK CFI 1eb50 .cfa: sp 48 +
STACK CFI 1eb5c .cfa: sp 0 +
STACK CFI INIT 1eb60 80 .cfa: sp 0 +
STACK CFI 1eb64 .cfa: sp 48 +
STACK CFI 1eb70 .cfa: x29 48 + x19: .cfa -8 + ^ x20: .cfa -16 + ^ x21: .cfa -24 + ^ x22: .cfa -32 + ^ .ra: .cfa -40 + ^ x29: .cfa -48 + ^
STACK CFI 1eb88 .cfa: sp 48 +
STACK CFI 1eb94 .cfa: sp 0 +
STACK CFI 1eb98 .cfa: x29 48 +
STACK CFI 1ebc8 .cfa: sp 48 +
STACK CFI 1ebd4 .cfa: sp 0 +
STACK CFI 1ebd8 .cfa: x29 48 +
STACK CFI INIT 1ebe0 68 .cfa: sp 0 +
STACK CFI 1ebe4 .cfa: sp 32 +
STACK CFI 1ebec .cfa: x29 32 + x19: .cfa -8 + ^ x20: .cfa -16 + ^ .ra: .cfa -24 + ^ x29: .cfa -32 + ^
STACK CFI 1ec04 .cfa: sp 32 +
STACK CFI 1ec0c .cfa: sp 0 +
STACK CFI 1ec10 .cfa: x29 32 +
STACK CFI 1ec3c .cfa: sp 32 +
STACK CFI 1ec44 .cfa: sp 0 +
STACK CFI INIT 1ec48 14 .cfa: sp 0 +
STACK CFI 1ec4c .cfa: sp 16 +
STACK CFI 1ec50 .cfa: x29 16 + .ra: .cfa -8 + ^ x29: .cfa -16 + ^
STACK CFI INIT 1ec5c 4 .cfa: sp 0 +
STACK CFI INIT 1ec60 14 .cfa: sp 0 +
STACK CFI INIT 1ec74 84 .cfa: sp 0 +
STACK CFI 1ec7c .cfa: sp 32 +
STACK CFI 1ec84 .cfa: x29 32 + x19: .cfa -8 + ^ x20: .cfa -16 + ^ .ra: .cfa -24 + ^ x29: .cfa -32 + ^
STACK CFI 1ecc4 .cfa: sp 32 +
STACK CFI 1eccc .cfa: sp 0 +
STACK CFI 1ecd4 .cfa: x29 32 +
STACK CFI INIT 1f064 54 .cfa: sp 0 +
STACK CFI 1f068 .cfa: sp 48 +
STACK CFI 1f074 .cfa: x29 48 + x19: .cfa -8 + ^ x20: .cfa -16 + ^ x21: .cfa -32 + ^ .ra: .cfa -40 + ^ x29: .cfa -48 + ^
STACK CFI 1f098 .cfa: sp 48 +
STACK CFI 1f0a4 .cfa: sp 0 +
STACK CFI 1f0a8 .cfa: sp 48 +
STACK CFI 1f0b4 .cfa: sp 0 +
STACK CFI INIT 1f3a4 50 .cfa: sp 0 +
STACK CFI 1f3a8 .cfa: sp 32 +
STACK CFI 1f3b0 .cfa: x29 32 + x19: .cfa -16 + ^ .ra: .cfa -24 + ^ x29: .cfa -32 + ^
STACK CFI 1f3c8 .cfa: sp 32 +
STACK CFI 1f3d0 .cfa: sp 0 +
STACK CFI 1f3d4 .cfa: x29 32 +
STACK CFI 1f3e8 .cfa: sp 32 +
STACK CFI 1f3f0 .cfa: sp 0 +
STACK CFI INIT 1f3f4 64 .cfa: sp 0 +
STACK CFI 1f3f8 .cfa: sp 32 +
STACK CFI 1f400 .cfa: x29 32 + x19: .cfa -16 + ^ .ra: .cfa -24 + ^ x29: .cfa -32 + ^
STACK CFI 1f42c .cfa: sp 32 +
STACK CFI 1f434 .cfa: sp 0 +
STACK CFI 1f438 .cfa: x29 32 +
STACK CFI 1f44c .cfa: sp 32 +
STACK CFI 1f454 .cfa: sp 0 +
STACK CFI INIT 1f458 168 .cfa: sp 0 +
STACK CFI 1f45c .cfa: sp 80 +
STACK CFI 1f470 .cfa: x29 80 + x19: .cfa -8 + ^ x20: .cfa -16 + ^ x21: .cfa -24 + ^ x22: .cfa -32 + ^ x23: .cfa -40 + ^ x24: .cfa -48 + ^ x25: .cfa -56 + ^ x26: .cfa -64 + ^ .ra: .cfa -72 + ^ x29: .cfa -80 + ^
STACK CFI 1f5a8 .cfa: sp 80 +
STACK CFI 1f5bc .cfa: sp 0 +
STACK CFI INIT 1f5c0 1b0 .cfa: sp 0 +
STACK CFI INIT 1f770 f8 .cfa: sp 0 +
STACK CFI 1f774 .cfa: sp 64 +
STACK CFI 1f784 .cfa: x29 64 + x19: .cfa -8 + ^ x20: .cfa -16 + ^ x21: .cfa -24 + ^ x22: .cfa -32 + ^ x23: .cfa -48 + ^ .ra: .cfa -56 + ^ x29: .cfa -64 + ^
STACK CFI 1f7e0 .cfa: sp 64 +
STACK CFI 1f7f0 .cfa: sp 0 +
STACK CFI 1f7f4 .cfa: x29 64 +
STACK CFI 1f810 .cfa: sp 64 +
STACK CFI 1f820 .cfa: sp 0 +
STACK CFI 1f824 .cfa: x29 64 +
STACK CFI 1f854 .cfa: sp 64 +
STACK CFI 1f864 .cfa: sp 0 +
STACK CFI INIT 1f9e4 48 .cfa: sp 0 +
STACK CFI 1f9e8 .cfa: sp 32 +
STACK CFI 1f9f0 .cfa: x29 32 + x19: .cfa -8 + ^ x20: .cfa -16 + ^ .ra: .cfa -24 + ^ x29: .cfa -32 + ^
STACK CFI 1fa20 .cfa: sp 32 +
STACK CFI 1fa28 .cfa: sp 0 +
STACK CFI INIT 204c8 14 .cfa: sp 0 +
STACK CFI INIT 20784 8 .cfa: sp 0 +
STACK CFI INIT 20b0c 8 .cfa: sp 0 +
STACK CFI INIT 20bf4 2c .cfa: sp 0 +
STACK CFI 20bf8 .cfa: sp 32 +
STACK CFI 20c00 .cfa: x29 32 + x19: .cfa -16 + ^ .ra: .cfa -24 + ^ x29: .cfa -32 + ^
STACK CFI 20c14 .cfa: sp 32 +
STACK CFI 20c1c .cfa: sp 0 +
STACK CFI INIT 20c20 28 .cfa: sp 0 +
STACK CFI INIT 20c48 4 .cfa: sp 0 +
STACK CFI INIT 20c4c 8 .cfa: sp 0 +
STACK CFI INIT 20d34 2c .cfa: sp 0 +
STACK CFI INIT 20d60 4 .cfa: sp 0 +
STACK CFI INIT 20d64 4 .cfa: sp 0 +
STACK CFI INIT 20d68 4 .cfa: sp 0 +
STACK CFI INIT 20d6c 4 .cfa: sp 0 +
STACK CFI INIT 20d70 4 .cfa: sp 0 +
STACK CFI INIT 20d74 8 .cfa: sp 0 +
STACK CFI INIT 20d7c 4 .cfa: sp 0 +
STACK CFI INIT 20dec 4 .cfa: sp 0 +
STACK CFI INIT 20df0 4 .cfa: sp 0 +
STACK CFI INIT 20df4 14 .cfa: sp 0 +
STACK CFI INIT 20e08 314 .cfa: sp 0 +
STACK CFI 20e0c .cfa: sp 128 +
STACK CFI 20e24 .cfa: x29 64 + x19: .cfa -8 + ^ x20: .cfa -16 + ^ x21: .cfa -24 + ^ x22: .cfa -32 + ^ x23: .cfa -40 + ^ x24: .cfa -48 + ^ .ra: .cfa -56 + ^ x29: .cfa -64 + ^ v8: .cfa -72 + ^ v9: .cfa -80 + ^
STACK CFI 21060 .cfa: sp 128 +
STACK CFI 21078 .cfa: sp 0 +
STACK CFI 2107c .cfa: x29 64 +
STACK CFI INIT 2111c 60 .cfa: sp 0 +
STACK CFI 21120 .cfa: sp 32 +
STACK CFI 21128 .cfa: x29 32 + x19: .cfa -8 + ^ x20: .cfa -16 + ^ .ra: .cfa -24 + ^ x29: .cfa -32 + ^
STACK CFI 21148 .cfa: sp 32 +
STACK CFI 21150 .cfa: sp 0 +
STACK CFI 21154 .cfa: x29 32 +
STACK CFI 21170 .cfa: sp 32 +
STACK CFI 21178 .cfa: sp 0 +
STACK CFI INIT 2117c 70 .cfa: sp 0 +
STACK CFI 21180 .cfa: sp 32 +
STACK CFI 21188 .cfa: x29 32 + x19: .cfa -8 + ^ x20: .cfa -16 + ^ .ra: .cfa -24 + ^ x29: .cfa -32 + ^
STACK CFI 211b0 .cfa: sp 32 +
STACK CFI 211b8 .cfa: sp 0 +
STACK CFI 211bc .cfa: x29 32 +
STACK CFI 211e0 .cfa: sp 32 +
STACK CFI 211e8 .cfa: sp 0 +
STACK CFI INIT 211ec 10 .cfa: sp 0 +
STACK CFI INIT 211fc 30 .cfa: sp 0 +
STACK CFI 21200 .cfa: sp 32 +
STACK CFI 21208 .cfa: x29 32 + x19: .cfa -16 + ^ .ra: .cfa -24 + ^ x29: .cfa -32 + ^
STACK CFI 21220 .cfa: sp 32 +
STACK CFI 21228 .cfa: sp 0 +
STACK CFI INIT 2122c 4 .cfa: sp 0 +
STACK CFI INIT 21230 4 .cfa: sp 0 +
STACK CFI INIT 21234 70 .cfa: sp 0 +
STACK CFI 21238 .cfa: sp 48 +
STACK CFI 21244 .cfa: x29 32 + x19: .cfa -8 + ^ x20: .cfa -16 + ^ .ra: .cfa -24 + ^ x29: .cfa -32 + ^
STACK CFI 21290 .cfa: sp 48 +
STACK CFI 2129c .cfa: sp 0 +
STACK CFI 212a0 .cfa: x29 32 +
STACK CFI INIT 21e7c 4 .cfa: sp 0 +
STACK CFI INIT 21e80 14 .cfa: sp 0 +
STACK CFI INIT 21e94 4 .cfa: sp 0 +
STACK CFI INIT 21e98 14 .cfa: sp 0 +
STACK CFI INIT 220b0 14 .cfa: sp 0 +
STACK CFI INIT 220c4 14 .cfa: sp 0 +
STACK CFI INIT 222c0 4 .cfa: sp 0 +
STACK CFI INIT 222c4 14 .cfa: sp 0 +
STACK CFI INIT 22468 3c .cfa: sp 0 +
STACK CFI 2246c .cfa: sp 32 +
STACK CFI 22474 .cfa: x29 32 + x19: .cfa -16 + ^ .ra: .cfa -24 + ^ x29: .cfa -32 + ^
STACK CFI 22480 .cfa: sp 32 +
STACK CFI 22488 .cfa: sp 0 +
STACK CFI 2248c .cfa: x29 32 +
STACK CFI 22498 .cfa: sp 32 +
STACK CFI 224a0 .cfa: sp 0 +
STACK CFI INIT 22980 64 .cfa: sp 0 +
STACK CFI 22984 .cfa: sp 32 +
STACK CFI 2298c .cfa: x29 32 + x19: .cfa -16 + ^ .ra: .cfa -24 + ^ x29: .cfa -32 + ^
STACK CFI 229b8 .cfa: sp 32 +
STACK CFI 229c0 .cfa: sp 0 +
STACK CFI 229c4 .cfa: x29 32 +
STACK CFI 229d8 .cfa: sp 32 +
STACK CFI 229e0 .cfa: sp 0 +
STACK CFI INIT 229e4 24 .cfa: sp 0 +
STACK CFI 229e8 .cfa: sp 32 +
STACK CFI 229f0 .cfa: x29 32 + x19: .cfa -16 + ^ .ra: .cfa -24 + ^ x29: .cfa -32 + ^
STACK CFI 229fc .cfa: sp 32 +
STACK CFI 22a04 .cfa: sp 0 +
STACK CFI INIT 22a08 8 .cfa: sp 0 +
STACK CFI INIT 22a10 24 .cfa: sp 0 +
STACK CFI 22a14 .cfa: sp 32 +
STACK CFI 22a1c .cfa: x29 32 + x19: .cfa -16 + ^ .ra: .cfa -24 + ^ x29: .cfa -32 + ^
STACK CFI 22a28 .cfa: sp 32 +
STACK CFI 22a30 .cfa: sp 0 +
STACK CFI INIT 22a34 28 .cfa: sp 0 +
STACK CFI 22a38 .cfa: sp 32 +
STACK CFI 22a40 .cfa: x29 32 + x19: .cfa -16 + ^ .ra: .cfa -24 + ^ x29: .cfa -32 + ^
STACK CFI 22a50 .cfa: sp 32 +
STACK CFI 22a58 .cfa: sp 0 +
STACK CFI INIT 22a5c 24 .cfa: sp 0 +
STACK CFI 22a60 .cfa: sp 32 +
STACK CFI 22a68 .cfa: x29 32 + x19: .cfa -16 + ^ .ra: .cfa -24 + ^ x29: .cfa -32 + ^
STACK CFI 22a74 .cfa: sp 32 +
STACK CFI 22a7c .cfa: sp 0 +
STACK CFI INIT 23304 8 .cfa: sp 0 +
STACK CFI INIT 2330c 24 .cfa: sp 0 +
STACK CFI 23310 .cfa: sp 32 +
STACK CFI 23318 .cfa: x29 32 + x19: .cfa -16 + ^ .ra: .cfa -24 + ^ x29: .cfa -32 + ^
STACK CFI 23324 .cfa: sp 32 +
STACK CFI 2332c .cfa: sp 0 +
STACK CFI INIT 23330 28 .cfa: sp 0 +
STACK CFI 23334 .cfa: sp 32 +
STACK CFI 2333c .cfa: x29 32 + x19: .cfa -16 + ^ .ra: .cfa -24 + ^ x29: .cfa -32 + ^
STACK CFI 2334c .cfa: sp 32 +
STACK CFI 23354 .cfa: sp 0 +
STACK CFI INIT 23358 8 .cfa: sp 0 +
STACK CFI INIT 23360 24 .cfa: sp 0 +
STACK CFI 23364 .cfa: sp 32 +
STACK CFI 2336c .cfa: x29 32 + x19: .cfa -16 + ^ .ra: .cfa -24 + ^ x29: .cfa -32 + ^
STACK CFI 23378 .cfa: sp 32 +
STACK CFI 23380 .cfa: sp 0 +
STACK CFI INIT 23384 28 .cfa: sp 0 +
STACK CFI 23388 .cfa: sp 32 +
STACK CFI 23390 .cfa: x29 32 + x19: .cfa -16 + ^ .ra: .cfa -24 + ^ x29: .cfa -32 + ^
STACK CFI 233a0 .cfa: sp 32 +
STACK CFI 233a8 .cfa: sp 0 +
STACK CFI INIT 233ac 8 .cfa: sp 0 +
STACK CFI INIT 233b4 24 .cfa: sp 0 +
STACK CFI 233b8 .cfa: sp 32 +
STACK CFI 233c0 .cfa: x29 32 + x19: .cfa -16 + ^ .ra: .cfa -24 + ^ x29: .cfa -32 + ^
STACK CFI 233cc .cfa: sp 32 +
STACK CFI 233d4 .cfa: sp 0 +
STACK CFI INIT 233d8 28 .cfa: sp 0 +
STACK CFI 233dc .cfa: sp 32 +
STACK CFI 233e4 .cfa: x29 32 + x19: .cfa -16 + ^ .ra: .cfa -24 + ^ x29: .cfa -32 + ^
STACK CFI 233f4 .cfa: sp 32 +
STACK CFI 233fc .cfa: sp 0 +
STACK CFI INIT 23400 4 .cfa: sp 0 +
STACK CFI INIT 23404 4 .cfa: sp 0 +
STACK CFI INIT 23408 4 .cfa: sp 0 +
STACK CFI INIT 2340c 4 .cfa: sp 0 +
STACK CFI INIT 23410 8 .cfa: sp 0 +
STACK CFI INIT 23418 4 .cfa: sp 0 +
STACK CFI INIT 2341c 4 .cfa: sp 0 +
STACK CFI INIT 24298 4 .cfa: sp 0 +
STACK CFI INIT 2429c 14 .cfa: sp 0 +
STACK CFI INIT 24790 c .cfa: sp 0 +
STACK CFI INIT 2479c 24c .cfa: sp 0 +
STACK CFI INIT 249e8 a0 .cfa: sp 0 +
STACK CFI 249f4 .cfa: sp 32 +
STACK CFI 24a4c .cfa: sp 0 +
STACK CFI 24a50 .cfa: sp 32 +
STACK CFI 24a58 .cfa: sp 0 +
STACK CFI 24a5c .cfa: sp 32 +
STACK CFI 24a70 .cfa: sp 0 +
STACK CFI 24a74 .cfa: sp 32 +
STACK CFI 24a84 .cfa: sp 0 +
STACK CFI INIT 24a88 38 .cfa: sp 0 +
STACK CFI 24a94 .cfa: sp 32 +
STACK CFI 24abc .cfa: sp 0 +
STACK CFI INIT 24d54 7c .cfa: sp 0 +
STACK CFI 24d58 .cfa: sp 32 +
STACK CFI 24d60 .cfa: x29 32 + x19: .cfa -16 + ^ .ra: .cfa -24 + ^ x29: .cfa -32 + ^
STACK CFI 24d8c .cfa: sp 32 +
STACK CFI 24d94 .cfa: sp 0 +
STACK CFI 24d98 .cfa: x29 32 +
STACK CFI 24dc4 .cfa: sp 32 +
STACK CFI 24dcc .cfa: sp 0 +
STACK CFI INIT 24e20 2c .cfa: sp 0 +
STACK CFI 24e24 .cfa: sp 32 +
STACK CFI 24e2c .cfa: x29 32 + x19: .cfa -16 + ^ .ra: .cfa -24 + ^ x29: .cfa -32 + ^
STACK CFI 24e40 .cfa: sp 32 +
STACK CFI 24e48 .cfa: sp 0 +
STACK CFI INIT 2560c 64 .cfa: sp 0 +
STACK CFI 25610 .cfa: sp 32 +
STACK CFI 25618 .cfa: x29 32 + x19: .cfa -16 + ^ .ra: .cfa -24 + ^ x29: .cfa -32 + ^
STACK CFI 25634 .cfa: sp 32 +
STACK CFI 2563c .cfa: sp 0 +
STACK CFI 25640 .cfa: x29 32 +
STACK CFI 25664 .cfa: sp 32 +
STACK CFI 2566c .cfa: sp 0 +
STACK CFI INIT 25670 570 .cfa: sp 0 +
STACK CFI 25674 .cfa: sp 176 +
STACK CFI 25688 .cfa: x29 64 + x19: .cfa -8 + ^ x20: .cfa -16 + ^ x21: .cfa -24 + ^ x22: .cfa -32 + ^ x23: .cfa -40 + ^ x24: .cfa -48 + ^ .ra: .cfa -56 + ^ x29: .cfa -64 + ^
STACK CFI 258b8 .cfa: sp 176 +
STACK CFI 258cc .cfa: sp 0 +
STACK CFI 258d0 .cfa: x29 64 +
STACK CFI 2591c .cfa: sp 176 +
STACK CFI 25930 .cfa: sp 0 +
STACK CFI 25934 .cfa: x29 64 +
STACK CFI 2596c .cfa: sp 176 +
STACK CFI 25980 .cfa: sp 0 +
STACK CFI 25984 .cfa: x29 64 +
STACK CFI 2599c .cfa: sp 176 +
STACK CFI 259b0 .cfa: sp 0 +
STACK CFI 259b4 .cfa: x29 64 +
STACK CFI 259d4 .cfa: sp 176 +
STACK CFI 259e8 .cfa: sp 0 +
STACK CFI 259ec .cfa: x29 64 +
STACK CFI 25a04 .cfa: sp 176 +
STACK CFI 25a18 .cfa: sp 0 +
STACK CFI 25a1c .cfa: x29 64 +
STACK CFI 25a30 .cfa: sp 176 +
STACK CFI 25a44 .cfa: sp 0 +
STACK CFI 25a48 .cfa: x29 64 +
STACK CFI 25a5c .cfa: sp 176 +
STACK CFI 25a70 .cfa: sp 0 +
STACK CFI 25a74 .cfa: x29 64 +
STACK CFI 25a84 .cfa: sp 176 +
STACK CFI 25a98 .cfa: sp 0 +
STACK CFI 25a9c .cfa: x29 64 +
STACK CFI 25aac .cfa: sp 176 +
STACK CFI 25ac0 .cfa: sp 0 +
STACK CFI 25ac4 .cfa: x29 64 +
STACK CFI 25adc .cfa: sp 176 +
STACK CFI 25af0 .cfa: sp 0 +
STACK CFI 25af4 .cfa: x29 64 +
STACK CFI 25b08 .cfa: sp 176 +
STACK CFI 25b1c .cfa: sp 0 +
STACK CFI 25b20 .cfa: x29 64 +
STACK CFI 25b38 .cfa: sp 176 +
STACK CFI 25b4c .cfa: sp 0 +
STACK CFI 25b50 .cfa: x29 64 +
STACK CFI 25b7c .cfa: sp 176 +
STACK CFI 25b90 .cfa: sp 0 +
STACK CFI 25b94 .cfa: x29 64 +
STACK CFI 25ba8 .cfa: sp 176 +
STACK CFI 25bbc .cfa: sp 0 +
STACK CFI 25bc0 .cfa: x29 64 +
STACK CFI INIT 25be0 228 .cfa: sp 0 +
STACK CFI INIT 25e08 2dc .cfa: sp 0 +
STACK CFI INIT 260e4 53c .cfa: sp 0 +
STACK CFI INIT 26620 78 .cfa: sp 0 +
STACK CFI 26624 .cfa: sp 48 +
STACK CFI 26630 .cfa: x29 48 + x19: .cfa -8 + ^ x20: .cfa -16 + ^ x21: .cfa -24 + ^ x22: .cfa -32 + ^ .ra: .cfa -40 + ^ x29: .cfa -48 + ^
STACK CFI 26678 .cfa: sp 48 +
STACK CFI 26684 .cfa: sp 0 +
STACK CFI 26688 .cfa: sp 48 +
STACK CFI 26694 .cfa: sp 0 +
STACK CFI INIT 26698 8c .cfa: sp 0 +
STACK CFI 2669c .cfa: sp 32 +
STACK CFI 266a4 .cfa: x29 32 + x19: .cfa -16 + ^ .ra: .cfa -24 + ^ x29: .cfa -32 + ^
STACK CFI 266d8 .cfa: sp 32 +
STACK CFI 266e0 .cfa: sp 0 +
STACK CFI 266e4 .cfa: x29 32 +
STACK CFI 26718 .cfa: sp 32 +
STACK CFI 26720 .cfa: sp 0 +
STACK CFI INIT 26724 24 .cfa: sp 0 +
STACK CFI 26728 .cfa: sp 32 +
STACK CFI 26730 .cfa: x29 32 + x19: .cfa -16 + ^ .ra: .cfa -24 + ^ x29: .cfa -32 + ^
STACK CFI 2673c .cfa: sp 32 +
STACK CFI 26744 .cfa: sp 0 +
STACK CFI INIT 26748 150 .cfa: sp 0 +
STACK CFI 2674c .cfa: sp 48 +
STACK CFI 26758 .cfa: x29 48 + x19: .cfa -8 + ^ x20: .cfa -16 + ^ x21: .cfa -24 + ^ x22: .cfa -32 + ^ .ra: .cfa -40 + ^ x29: .cfa -48 + ^
STACK CFI 26888 .cfa: sp 48 +
STACK CFI 26894 .cfa: sp 0 +
STACK CFI INIT 26898 68 .cfa: sp 0 +
STACK CFI 2689c .cfa: sp 64 +
STACK CFI 268a8 .cfa: x29 32 + x19: .cfa -16 + ^ .ra: .cfa -24 + ^ x29: .cfa -32 + ^
STACK CFI 268ec .cfa: sp 64 +
STACK CFI 268f8 .cfa: sp 0 +
STACK CFI 268fc .cfa: x29 32 +
STACK CFI INIT 26900 90 .cfa: sp 0 +
STACK CFI 26904 .cfa: sp 32 +
STACK CFI 2690c .cfa: x29 32 + x19: .cfa -8 + ^ x20: .cfa -16 + ^ .ra: .cfa -24 + ^ x29: .cfa -32 + ^
STACK CFI 26938 .cfa: sp 32 +
STACK CFI 26940 .cfa: sp 0 +
STACK CFI 26944 .cfa: x29 32 +
STACK CFI 26984 .cfa: sp 32 +
STACK CFI 2698c .cfa: sp 0 +
STACK CFI INIT 26990 ec .cfa: sp 0 +
STACK CFI 26994 .cfa: sp 112 +
STACK CFI 269a4 .cfa: x29 48 + x19: .cfa -8 + ^ x20: .cfa -16 + ^ x21: .cfa -32 + ^ .ra: .cfa -40 + ^ x29: .cfa -48 + ^
STACK CFI 26a64 .cfa: sp 112 +
STACK CFI 26a74 .cfa: sp 0 +
STACK CFI 26a78 .cfa: x29 48 +
STACK CFI INIT 26a7c ec .cfa: sp 0 +
STACK CFI 26a80 .cfa: sp 112 +
STACK CFI 26a90 .cfa: x29 48 + x19: .cfa -8 + ^ x20: .cfa -16 + ^ x21: .cfa -32 + ^ .ra: .cfa -40 + ^ x29: .cfa -48 + ^
STACK CFI 26b50 .cfa: sp 112 +
STACK CFI 26b60 .cfa: sp 0 +
STACK CFI 26b64 .cfa: x29 48 +
STACK CFI INIT 26b68 48 .cfa: sp 0 +
STACK CFI 26b6c .cfa: sp 32 +
STACK CFI 26b74 .cfa: x29 32 + x19: .cfa -8 + ^ x20: .cfa -16 + ^ .ra: .cfa -24 + ^ x29: .cfa -32 + ^
STACK CFI 26b98 .cfa: sp 32 +
STACK CFI 26ba0 .cfa: sp 0 +
STACK CFI 26ba4 .cfa: x29 32 +
STACK CFI INIT 26bb0 98 .cfa: sp 0 +
STACK CFI 26bb4 .cfa: sp 80 +
STACK CFI 26bc0 .cfa: x29 32 + x19: .cfa -16 + ^ .ra: .cfa -24 + ^ x29: .cfa -32 + ^
STACK CFI 26c34 .cfa: sp 80 +
STACK CFI 26c40 .cfa: sp 0 +
STACK CFI 26c44 .cfa: x29 32 +
STACK CFI INIT 26c48 260 .cfa: sp 0 +
STACK CFI 26c4c .cfa: sp 112 +
STACK CFI 26c64 .cfa: x29 80 + x19: .cfa -8 + ^ x20: .cfa -16 + ^ x21: .cfa -24 + ^ x22: .cfa -32 + ^ x23: .cfa -40 + ^ x24: .cfa -48 + ^ x25: .cfa -64 + ^ .ra: .cfa -72 + ^ x29: .cfa -80 + ^
STACK CFI 26e48 .cfa: sp 112 +
STACK CFI 26e60 .cfa: sp 0 +
STACK CFI 26e64 .cfa: x29 80 +
STACK CFI INIT 26ea8 150 .cfa: sp 0 +
STACK CFI 26eac .cfa: sp 48 +
STACK CFI 26eb8 .cfa: x29 48 + x19: .cfa -8 + ^ x20: .cfa -16 + ^ x21: .cfa -24 + ^ x22: .cfa -32 + ^ .ra: .cfa -40 + ^ x29: .cfa -48 + ^
STACK CFI 26fe8 .cfa: sp 48 +
STACK CFI 26ff4 .cfa: sp 0 +
STACK CFI INIT 26ff8 1e0 .cfa: sp 0 +
STACK CFI 26ffc .cfa: sp 96 +
STACK CFI 27010 .cfa: x29 64 + x19: .cfa -8 + ^ x20: .cfa -16 + ^ x21: .cfa -24 + ^ x22: .cfa -32 + ^ x23: .cfa -40 + ^ x24: .cfa -48 + ^ .ra: .cfa -56 + ^ x29: .cfa -64 + ^
STACK CFI 27190 .cfa: sp 96 +
STACK CFI 271a4 .cfa: sp 0 +
STACK CFI 271a8 .cfa: x29 64 +
STACK CFI INIT 271d8 284 .cfa: sp 0 +
STACK CFI 271dc .cfa: sp 112 +
STACK CFI 271f4 .cfa: x29 80 + x19: .cfa -8 + ^ x20: .cfa -16 + ^ x21: .cfa -24 + ^ x22: .cfa -32 + ^ x23: .cfa -40 + ^ x24: .cfa -48 + ^ x25: .cfa -64 + ^ .ra: .cfa -72 + ^ x29: .cfa -80 + ^
STACK CFI 273fc .cfa: sp 112 +
STACK CFI 27414 .cfa: sp 0 +
STACK CFI 27418 .cfa: x29 80 +
STACK CFI INIT 2745c 208 .cfa: sp 0 +
STACK CFI 27460 .cfa: sp 96 +
STACK CFI 27474 .cfa: x29 64 + x19: .cfa -8 + ^ x20: .cfa -16 + ^ x21: .cfa -24 + ^ x22: .cfa -32 + ^ x23: .cfa -40 + ^ x24: .cfa -48 + ^ .ra: .cfa -56 + ^ x29: .cfa -64 + ^
STACK CFI 2761c .cfa: sp 96 +
STACK CFI 27630 .cfa: sp 0 +
STACK CFI 27634 .cfa: x29 64 +
STACK CFI INIT 27664 360 .cfa: sp 0 +
STACK CFI 27668 .cfa: sp 160 +
STACK CFI 27684 .cfa: x29 96 + x19: .cfa -8 + ^ x20: .cfa -16 + ^ x21: .cfa -24 + ^ x22: .cfa -32 + ^ x23: .cfa -40 + ^ x24: .cfa -48 + ^ x25: .cfa -56 + ^ x26: .cfa -64 + ^ x27: .cfa -72 + ^ x28: .cfa -80 + ^ .ra: .cfa -88 + ^ x29: .cfa -96 + ^
STACK CFI 27950 .cfa: sp 160 +
STACK CFI 2796c .cfa: sp 0 +
STACK CFI 27970 .cfa: x29 96 +
STACK CFI INIT 279c4 314 .cfa: sp 0 +
STACK CFI 279c8 .cfa: sp 144 +
STACK CFI 279e4 .cfa: x29 96 + x19: .cfa -8 + ^ x20: .cfa -16 + ^ x21: .cfa -24 + ^ x22: .cfa -32 + ^ x23: .cfa -40 + ^ x24: .cfa -48 + ^ x25: .cfa -56 + ^ x26: .cfa -64 + ^ x27: .cfa -72 + ^ x28: .cfa -80 + ^ .ra: .cfa -88 + ^ x29: .cfa -96 + ^
STACK CFI 27c60 .cfa: sp 144 +
STACK CFI 27c7c .cfa: sp 0 +
STACK CFI 27c80 .cfa: x29 96 +
STACK CFI INIT 27cd8 290 .cfa: sp 0 +
STACK CFI 27cdc .cfa: sp 128 +
STACK CFI 27cf4 .cfa: x29 80 + x19: .cfa -8 + ^ x20: .cfa -16 + ^ x21: .cfa -24 + ^ x22: .cfa -32 + ^ x23: .cfa -40 + ^ x24: .cfa -48 + ^ x25: .cfa -56 + ^ x26: .cfa -64 + ^ .ra: .cfa -72 + ^ x29: .cfa -80 + ^
STACK CFI 27f48 .cfa: sp 128 +
STACK CFI 27f60 .cfa: sp 0 +
STACK CFI 27f64 .cfa: x29 80 +
STACK CFI INIT 27f68 ddc .cfa: sp 0 +
STACK CFI 27f6c .cfa: sp 144 +
STACK CFI 27f88 .cfa: x29 96 + x19: .cfa -8 + ^ x20: .cfa -16 + ^ x21: .cfa -24 + ^ x22: .cfa -32 + ^ x23: .cfa -40 + ^ x24: .cfa -48 + ^ x25: .cfa -56 + ^ x26: .cfa -64 + ^ x27: .cfa -72 + ^ x28: .cfa -80 + ^ .ra: .cfa -88 + ^ x29: .cfa -96 + ^
STACK CFI 28c1c .cfa: sp 144 +
STACK CFI 28c38 .cfa: sp 0 +
STACK CFI 28c3c .cfa: x29 96 +
STACK CFI INIT 28d44 1d0 .cfa: sp 0 +
STACK CFI 28d48 .cfa: sp 80 +
STACK CFI 28d5c .cfa: x29 80 + x19: .cfa -8 + ^ x20: .cfa -16 + ^ x21: .cfa -24 + ^ x22: .cfa -32 + ^ x23: .cfa -40 + ^ x24: .cfa -48 + ^ x25: .cfa -64 + ^ .ra: .cfa -72 + ^ x29: .cfa -80 + ^
STACK CFI 28efc .cfa: sp 80 +
STACK CFI 28f10 .cfa: sp 0 +
STACK CFI INIT 28f14 23c .cfa: sp 0 +
STACK CFI 28f18 .cfa: sp 112 +
STACK CFI 28f2c .cfa: x29 64 + x19: .cfa -8 + ^ x20: .cfa -16 + ^ x21: .cfa -24 + ^ x22: .cfa -32 + ^ x23: .cfa -40 + ^ x24: .cfa -48 + ^ .ra: .cfa -56 + ^ x29: .cfa -64 + ^
STACK CFI 29108 .cfa: sp 112 +
STACK CFI 2911c .cfa: sp 0 +
STACK CFI 29120 .cfa: x29 64 +
STACK CFI INIT 29150 30c .cfa: sp 0 +
STACK CFI 29154 .cfa: sp 80 +
STACK CFI 29168 .cfa: x29 64 + x19: .cfa -8 + ^ x20: .cfa -16 + ^ x21: .cfa -24 + ^ x22: .cfa -32 + ^ x23: .cfa -40 + ^ x24: .cfa -48 + ^ .ra: .cfa -56 + ^ x29: .cfa -64 + ^
STACK CFI 292e4 .cfa: sp 80 +
STACK CFI 292f8 .cfa: sp 0 +
STACK CFI 292fc .cfa: x29 64 +
STACK CFI INIT 2945c 178 .cfa: sp 0 +
STACK CFI 29460 .cfa: sp 80 +
STACK CFI 29474 .cfa: x29 64 + x19: .cfa -8 + ^ x20: .cfa -16 + ^ x21: .cfa -24 + ^ x22: .cfa -32 + ^ x23: .cfa -40 + ^ x24: .cfa -48 + ^ .ra: .cfa -56 + ^ x29: .cfa -64 + ^
STACK CFI 295b8 .cfa: sp 80 +
STACK CFI 295cc .cfa: sp 0 +
STACK CFI 295d0 .cfa: x29 64 +
STACK CFI INIT 295d4 178 .cfa: sp 0 +
STACK CFI 295d8 .cfa: sp 80 +
STACK CFI 295ec .cfa: x29 64 + x19: .cfa -8 + ^ x20: .cfa -16 + ^ x21: .cfa -24 + ^ x22: .cfa -32 + ^ x23: .cfa -40 + ^ x24: .cfa -48 + ^ .ra: .cfa -56 + ^ x29: .cfa -64 + ^
STACK CFI 29730 .cfa: sp 80 +
STACK CFI 29744 .cfa: sp 0 +
STACK CFI 29748 .cfa: x29 64 +
STACK CFI INIT 2974c 240 .cfa: sp 0 +
STACK CFI 29750 .cfa: sp 96 +
STACK CFI 29768 .cfa: x29 96 + x19: .cfa -8 + ^ x20: .cfa -16 + ^ x21: .cfa -24 + ^ x22: .cfa -32 + ^ x23: .cfa -40 + ^ x24: .cfa -48 + ^ x25: .cfa -56 + ^ x26: .cfa -64 + ^ x27: .cfa -72 + ^ x28: .cfa -80 + ^ .ra: .cfa -88 + ^ x29: .cfa -96 + ^
STACK CFI 29970 .cfa: sp 96 +
STACK CFI 29988 .cfa: sp 0 +
STACK CFI INIT 2a600 154 .cfa: sp 0 +
STACK CFI 2a604 .cfa: sp 96 +
STACK CFI 2a618 .cfa: x29 64 + x19: .cfa -8 + ^ x20: .cfa -16 + ^ x21: .cfa -24 + ^ x22: .cfa -32 + ^ x23: .cfa -48 + ^ .ra: .cfa -56 + ^ x29: .cfa -64 + ^
STACK CFI 2a6f8 .cfa: sp 96 +
STACK CFI 2a70c .cfa: sp 0 +
STACK CFI 2a710 .cfa: x29 64 +
STACK CFI INIT 2a9c0 44 .cfa: sp 0 +
STACK CFI 2a9c4 .cfa: sp 32 +
STACK CFI 2a9cc .cfa: x29 32 + x19: .cfa -16 + ^ .ra: .cfa -24 + ^ x29: .cfa -32 + ^
STACK CFI 2a9e8 .cfa: sp 32 +
STACK CFI 2a9f0 .cfa: sp 0 +
STACK CFI 2a9f4 .cfa: x29 32 +
STACK CFI 2a9f8 .cfa: sp 32 +
STACK CFI 2aa00 .cfa: sp 0 +
STACK CFI INIT 2aa04 1d0 .cfa: sp 0 +
STACK CFI 2aa08 .cfa: sp 64 +
STACK CFI 2aa18 .cfa: x29 64 + x19: .cfa -8 + ^ x20: .cfa -16 + ^ x21: .cfa -24 + ^ x22: .cfa -32 + ^ x23: .cfa -40 + ^ x24: .cfa -48 + ^ .ra: .cfa -56 + ^ x29: .cfa -64 + ^
STACK CFI 2aad8 .cfa: sp 64 +
STACK CFI 2aae8 .cfa: sp 0 +
STACK CFI 2aaec .cfa: x29 64 +
STACK CFI INIT 2abd4 17c .cfa: sp 0 +
STACK CFI INIT 2ad50 ac .cfa: sp 0 +
STACK CFI 2ad54 .cfa: sp 64 +
STACK CFI 2ad64 .cfa: x29 64 + x19: .cfa -8 + ^ x20: .cfa -16 + ^ x21: .cfa -24 + ^ x22: .cfa -32 + ^ x23: .cfa -48 + ^ .ra: .cfa -56 + ^ x29: .cfa -64 + ^
STACK CFI 2ade0 .cfa: sp 64 +
STACK CFI 2adf0 .cfa: sp 0 +
STACK CFI 2adf4 .cfa: x29 64 +
STACK CFI INIT 2adfc 110 .cfa: sp 0 +
STACK CFI 2ae00 .cfa: sp 64 +
STACK CFI 2ae10 .cfa: x29 64 + x19: .cfa -8 + ^ x20: .cfa -16 + ^ x21: .cfa -24 + ^ x22: .cfa -32 + ^ x23: .cfa -40 + ^ x24: .cfa -48 + ^ .ra: .cfa -56 + ^ x29: .cfa -64 + ^
STACK CFI 2aef0 .cfa: sp 64 +
STACK CFI 2af00 .cfa: sp 0 +
STACK CFI 2af04 .cfa: x29 64 +
STACK CFI INIT 2b2c4 a0 .cfa: sp 0 +
STACK CFI 2b2c8 .cfa: sp 48 +
STACK CFI 2b2d4 .cfa: x29 48 + x19: .cfa -8 + ^ x20: .cfa -16 + ^ x21: .cfa -24 + ^ x22: .cfa -32 + ^ .ra: .cfa -40 + ^ x29: .cfa -48 + ^
STACK CFI 2b340 .cfa: sp 48 +
STACK CFI 2b34c .cfa: sp 0 +
STACK CFI 2b350 .cfa: sp 48 +
STACK CFI 2b35c .cfa: sp 0 +
STACK CFI 2b360 .cfa: x29 48 +
STACK CFI INIT 2c018 158 .cfa: sp 0 +
STACK CFI 2c01c .cfa: sp 96 +
STACK CFI 2c030 .cfa: x29 64 + x19: .cfa -8 + ^ x20: .cfa -16 + ^ x21: .cfa -24 + ^ x22: .cfa -32 + ^ x23: .cfa -48 + ^ .ra: .cfa -56 + ^ x29: .cfa -64 + ^
STACK CFI 2c114 .cfa: sp 96 +
STACK CFI 2c128 .cfa: sp 0 +
STACK CFI 2c12c .cfa: x29 64 +
STACK CFI INIT 2c170 190 .cfa: sp 0 +
STACK CFI INIT 2cdfc 1dc .cfa: sp 0 +
STACK CFI 2ce00 .cfa: sp 80 +
STACK CFI 2ce14 .cfa: x29 80 + x19: .cfa -8 + ^ x20: .cfa -16 + ^ x21: .cfa -24 + ^ x22: .cfa -32 + ^ x23: .cfa -40 + ^ x24: .cfa -48 + ^ x25: .cfa -64 + ^ .ra: .cfa -72 + ^ x29: .cfa -80 + ^
STACK CFI 2cfc0 .cfa: sp 80 +
STACK CFI 2cfd4 .cfa: sp 0 +
STACK CFI INIT 2e408 124 .cfa: sp 0 +
STACK CFI 2e438 .cfa: sp 32 +
STACK CFI 2e440 .cfa: x29 32 + x19: .cfa -8 + ^ x20: .cfa -16 + ^ .ra: .cfa -24 + ^ x29: .cfa -32 + ^
STACK CFI 2e520 .cfa: sp 32 +
STACK CFI 2e528 .cfa: sp 0 +
STACK CFI INIT 2ec88 320 .cfa: sp 0 +
STACK CFI 2ec8c .cfa: sp 64 +
STACK CFI 2ec9c .cfa: x29 64 + x19: .cfa -8 + ^ x20: .cfa -16 + ^ x21: .cfa -24 + ^ x22: .cfa -32 + ^ x23: .cfa -40 + ^ x24: .cfa -48 + ^ .ra: .cfa -56 + ^ x29: .cfa -64 + ^
STACK CFI 2ed18 .cfa: sp 64 +
STACK CFI 2ed28 .cfa: sp 0 +
STACK CFI 2ed2c .cfa: x29 64 +
STACK CFI 2ef00 .cfa: sp 64 +
STACK CFI 2ef10 .cfa: sp 0 +
STACK CFI 2ef14 .cfa: x29 64 +
STACK CFI 2ef24 .cfa: sp 64 +
STACK CFI 2ef34 .cfa: sp 0 +
STACK CFI 2ef38 .cfa: x29 64 +
STACK CFI INIT 2efa8 a0 .cfa: sp 0 +
STACK CFI 2efac .cfa: sp 48 +
STACK CFI 2efb8 .cfa: x29 48 + x19: .cfa -8 + ^ x20: .cfa -16 + ^ x21: .cfa -24 + ^ x22: .cfa -32 + ^ .ra: .cfa -40 + ^ x29: .cfa -48 + ^
STACK CFI 2f024 .cfa: sp 48 +
STACK CFI 2f030 .cfa: sp 0 +
STACK CFI 2f034 .cfa: sp 48 +
STACK CFI 2f040 .cfa: sp 0 +
STACK CFI 2f044 .cfa: x29 48 +
STACK CFI INIT 2fef8 160 .cfa: sp 0 +
STACK CFI 2fefc .cfa: sp 64 +
STACK CFI 2ff0c .cfa: x29 64 + x19: .cfa -8 + ^ x20: .cfa -16 + ^ x21: .cfa -24 + ^ x22: .cfa -32 + ^ x23: .cfa -48 + ^ .ra: .cfa -56 + ^ x29: .cfa -64 + ^
STACK CFI 30004 .cfa: sp 64 +
STACK CFI 30014 .cfa: sp 0 +
STACK CFI 30018 .cfa: x29 64 +
STACK CFI INIT 30058 214 .cfa: sp 0 +
STACK CFI 3005c .cfa: sp 128 +
STACK CFI 30078 .cfa: x29 96 + x19: .cfa -8 + ^ x20: .cfa -16 + ^ x21: .cfa -24 + ^ x22: .cfa -32 + ^ x23: .cfa -40 + ^ x24: .cfa -48 + ^ x25: .cfa -56 + ^ x26: .cfa -64 + ^ x27: .cfa -80 + ^ .ra: .cfa -88 + ^ x29: .cfa -96 + ^
STACK CFI 301f4 .cfa: sp 128 +
STACK CFI 30210 .cfa: sp 0 +
STACK CFI 30214 .cfa: x29 96 +
STACK CFI INIT 31f08 290 .cfa: sp 0 +
STACK CFI 31f0c .cfa: sp 16 +
STACK CFI 31f10 .cfa: x29 16 + .ra: .cfa -8 + ^ x29: .cfa -16 + ^
STACK CFI 31f9c .cfa: sp 16 +
STACK CFI 31fa0 .cfa: sp 0 +
STACK CFI 31fa4 .cfa: x29 16 +
STACK CFI 31ff4 .cfa: sp 16 +
STACK CFI 31ff8 .cfa: sp 0 +
STACK CFI 31ffc .cfa: x29 16 +
STACK CFI 32160 .cfa: sp 16 +
STACK CFI 32164 .cfa: sp 0 +
STACK CFI 32168 .cfa: x29 16 +
STACK CFI INIT 32198 158 .cfa: sp 0 +
STACK CFI 3219c .cfa: sp 112 +
STACK CFI 321b8 .cfa: x29 96 + x19: .cfa -8 + ^ x20: .cfa -16 + ^ x21: .cfa -24 + ^ x22: .cfa -32 + ^ x23: .cfa -40 + ^ x24: .cfa -48 + ^ x25: .cfa -56 + ^ x26: .cfa -64 + ^ x27: .cfa -72 + ^ x28: .cfa -80 + ^ .ra: .cfa -88 + ^ x29: .cfa -96 + ^
STACK CFI 322a0 .cfa: sp 112 +
STACK CFI 322a4 .cfa: x29 96 +
STACK CFI 322ac .cfa: sp 112 +
STACK CFI 322c8 .cfa: sp 0 +
STACK CFI 322cc .cfa: x29 96 +
STACK CFI 322ec .cfa: sp 112 +
STACK CFI INIT 322f0 e54 .cfa: sp 0 +
STACK CFI 322f4 .cfa: sp 192 +
STACK CFI 32310 .cfa: x29 96 + x19: .cfa -8 + ^ x20: .cfa -16 + ^ x21: .cfa -24 + ^ x22: .cfa -32 + ^ x23: .cfa -40 + ^ x24: .cfa -48 + ^ x25: .cfa -56 + ^ x26: .cfa -64 + ^ x27: .cfa -72 + ^ x28: .cfa -80 + ^ .ra: .cfa -88 + ^ x29: .cfa -96 + ^
STACK CFI 3302c .cfa: sp 192 +
STACK CFI 33048 .cfa: sp 0 +
STACK CFI 3304c .cfa: x29 96 +
STACK CFI INIT 33144 1068 .cfa: sp 0 +
STACK CFI 33148 .cfa: sp 288 +
STACK CFI 33164 .cfa: x29 96 + x19: .cfa -8 + ^ x20: .cfa -16 + ^ x21: .cfa -24 + ^ x22: .cfa -32 + ^ x23: .cfa -40 + ^ x24: .cfa -48 + ^ x25: .cfa -56 + ^ x26: .cfa -64 + ^ x27: .cfa -72 + ^ x28: .cfa -80 + ^ .ra: .cfa -88 + ^ x29: .cfa -96 + ^
STACK CFI 33ef4 .cfa: sp 288 +
STACK CFI 33f10 .cfa: sp 0 +
STACK CFI 33f14 .cfa: x29 96 +
STACK CFI INIT 341ac 520 .cfa: sp 0 +
STACK CFI 341b0 .cfa: sp 144 +
STACK CFI 341cc .cfa: x29 96 + x19: .cfa -8 + ^ x20: .cfa -16 + ^ x21: .cfa -24 + ^ x22: .cfa -32 + ^ x23: .cfa -40 + ^ x24: .cfa -48 + ^ x25: .cfa -56 + ^ x26: .cfa -64 + ^ x27: .cfa -72 + ^ x28: .cfa -80 + ^ .ra: .cfa -88 + ^ x29: .cfa -96 + ^
STACK CFI 346a8 .cfa: sp 144 +
STACK CFI 346c4 .cfa: sp 0 +
STACK CFI 346c8 .cfa: x29 96 +
STACK CFI INIT 3506c 136c .cfa: sp 0 +
STACK CFI 35070 .cfa: sp 224 +
STACK CFI 3508c .cfa: x29 96 + x19: .cfa -8 + ^ x20: .cfa -16 + ^ x21: .cfa -24 + ^ x22: .cfa -32 + ^ x23: .cfa -40 + ^ x24: .cfa -48 + ^ x25: .cfa -56 + ^ x26: .cfa -64 + ^ x27: .cfa -72 + ^ x28: .cfa -80 + ^ .ra: .cfa -88 + ^ x29: .cfa -96 + ^
STACK CFI 363b4 .cfa: sp 224 +
STACK CFI 363d0 .cfa: sp 0 +
STACK CFI 363d4 .cfa: x29 96 +
STACK CFI INIT 363d8 1b8 .cfa: sp 0 +
STACK CFI INIT 1c2f4 bd4 .cfa: sp 0 +
STACK CFI 1c2f8 .cfa: sp 240 +
STACK CFI 1c314 .cfa: x29 96 + x19: .cfa -8 + ^ x20: .cfa -16 + ^ x21: .cfa -24 + ^ x22: .cfa -32 + ^ x23: .cfa -40 + ^ x24: .cfa -48 + ^ x25: .cfa -56 + ^ x26: .cfa -64 + ^ x27: .cfa -72 + ^ x28: .cfa -80 + ^ .ra: .cfa -88 + ^ x29: .cfa -96 + ^
STACK CFI 1c6f0 .cfa: sp 240 +
STACK CFI 1c70c .cfa: sp 0 +
STACK CFI 1c710 .cfa: x29 96 +
STACK CFI 1cd70 .cfa: sp 240 +
STACK CFI 1cd8c .cfa: sp 0 +
STACK CFI 1cd90 .cfa: x29 96 +
STACK CFI INIT 1cef0 640 .cfa: sp 0 +
STACK CFI 1cef4 .cfa: sp 224 +
STACK CFI 1cf10 .cfa: x29 96 + x19: .cfa -8 + ^ x20: .cfa -16 + ^ x21: .cfa -24 + ^ x22: .cfa -32 + ^ x23: .cfa -40 + ^ x24: .cfa -48 + ^ x25: .cfa -56 + ^ x26: .cfa -64 + ^ x27: .cfa -72 + ^ x28: .cfa -80 + ^ .ra: .cfa -88 + ^ x29: .cfa -96 + ^
STACK CFI 1d3c0 .cfa: sp 224 +
STACK CFI 1d3dc .cfa: sp 0 +
STACK CFI 1d3e0 .cfa: x29 96 +
STACK CFI INIT 1d548 50 .cfa: sp 0 +
STACK CFI 1d54c .cfa: sp 32 +
STACK CFI 1d554 .cfa: x29 32 + x19: .cfa -8 + ^ x20: .cfa -16 + ^ .ra: .cfa -24 + ^ x29: .cfa -32 + ^
STACK CFI INIT 1d61c 50 .cfa: sp 0 +
STACK CFI 1d620 .cfa: sp 32 +
STACK CFI 1d628 .cfa: x29 32 + x19: .cfa -8 + ^ x20: .cfa -16 + ^ .ra: .cfa -24 + ^ x29: .cfa -32 + ^
STACK CFI INIT 1d768 91c .cfa: sp 0 +
STACK CFI 1d76c .cfa: sp 288 +
STACK CFI 1d788 .cfa: x29 96 + x19: .cfa -8 + ^ x20: .cfa -16 + ^ x21: .cfa -24 + ^ x22: .cfa -32 + ^ x23: .cfa -40 + ^ x24: .cfa -48 + ^ x25: .cfa -56 + ^ x26: .cfa -64 + ^ x27: .cfa -72 + ^ x28: .cfa -80 + ^ .ra: .cfa -88 + ^ x29: .cfa -96 + ^
STACK CFI 1ddf0 .cfa: sp 288 +
STACK CFI 1de0c .cfa: sp 0 +
STACK CFI 1de10 .cfa: x29 96 +
STACK CFI INIT 1e0d4 74 .cfa: sp 0 +
STACK CFI 1e0d8 .cfa: sp 48 +
STACK CFI 1e0e4 .cfa: x29 32 + x19: .cfa -8 + ^ x20: .cfa -16 + ^ .ra: .cfa -24 + ^ x29: .cfa -32 + ^
STACK CFI 1e130 .cfa: sp 48 +
STACK CFI 1e13c .cfa: sp 0 +
STACK CFI 1e140 .cfa: x29 32 +
STACK CFI INIT 1e1c8 154 .cfa: sp 0 +
STACK CFI 1e1cc .cfa: sp 384 +
STACK CFI 1e1e0 .cfa: x29 64 + x19: .cfa -8 + ^ x20: .cfa -16 + ^ x21: .cfa -24 + ^ x22: .cfa -32 + ^ x23: .cfa -40 + ^ x28: .cfa -48 + ^ .ra: .cfa -56 + ^ x29: .cfa -64 + ^
STACK CFI 1e2c4 .cfa: sp 384 +
STACK CFI 1e2d8 .cfa: sp 0 +
STACK CFI 1e2dc .cfa: x29 64 +
STACK CFI INIT 1e350 12c .cfa: sp 0 +
STACK CFI 1e354 .cfa: sp 80 +
STACK CFI 1e368 .cfa: x29 80 + x19: .cfa -8 + ^ x20: .cfa -16 + ^ x21: .cfa -24 + ^ x22: .cfa -32 + ^ x23: .cfa -40 + ^ x24: .cfa -48 + ^ x25: .cfa -56 + ^ x26: .cfa -64 + ^ .ra: .cfa -72 + ^ x29: .cfa -80 + ^
STACK CFI 1e430 .cfa: sp 80 +
STACK CFI 1e444 .cfa: sp 0 +
STACK CFI 1e448 .cfa: x29 80 +
STACK CFI INIT 1e520 1a4 .cfa: sp 0 +
STACK CFI 1e524 .cfa: sp 112 +
STACK CFI 1e53c .cfa: x29 80 + x19: .cfa -8 + ^ x20: .cfa -16 + ^ x21: .cfa -24 + ^ x22: .cfa -32 + ^ x23: .cfa -40 + ^ x24: .cfa -48 + ^ x25: .cfa -56 + ^ x26: .cfa -64 + ^ .ra: .cfa -72 + ^ x29: .cfa -80 + ^
STACK CFI 1e62c .cfa: sp 112 +
STACK CFI 1e644 .cfa: sp 0 +
STACK CFI 1e648 .cfa: x29 80 +
STACK CFI INIT 1e6c4 1dc .cfa: sp 0 +
STACK CFI 1e6c8 .cfa: sp 128 +
STACK CFI 1e6e4 .cfa: x29 96 + x19: .cfa -8 + ^ x20: .cfa -16 + ^ x21: .cfa -24 + ^ x22: .cfa -32 + ^ x23: .cfa -40 + ^ x24: .cfa -48 + ^ x25: .cfa -56 + ^ x26: .cfa -64 + ^ x27: .cfa -80 + ^ .ra: .cfa -88 + ^ x29: .cfa -96 + ^
STACK CFI 1e850 .cfa: sp 128 +
STACK CFI 1e86c .cfa: sp 0 +
STACK CFI 1e870 .cfa: x29 96 +
STACK CFI INIT 1e8a0 178 .cfa: sp 0 +
STACK CFI 1e8a4 .cfa: sp 80 +
STACK CFI 1e8b8 .cfa: x29 80 + x19: .cfa -8 + ^ x20: .cfa -16 + ^ x21: .cfa -24 + ^ x22: .cfa -32 + ^ x23: .cfa -40 + ^ x24: .cfa -48 + ^ x25: .cfa -64 + ^ .ra: .cfa -72 + ^ x29: .cfa -80 + ^
STACK CFI 1e9e4 .cfa: sp 80 +
STACK CFI 1e9f8 .cfa: sp 0 +
STACK CFI 1e9fc .cfa: x29 80 +
STACK CFI INIT 1ecf8 36c .cfa: sp 0 +
STACK CFI 1ecfc .cfa: sp 96 +
STACK CFI 1ed14 .cfa: x29 96 + x19: .cfa -8 + ^ x20: .cfa -16 + ^ x21: .cfa -24 + ^ x22: .cfa -32 + ^ x23: .cfa -40 + ^ x24: .cfa -48 + ^ x25: .cfa -56 + ^ x26: .cfa -64 + ^ x28: .cfa -80 + ^ .ra: .cfa -88 + ^ x29: .cfa -96 + ^
STACK CFI 1efd4 .cfa: sp 96 +
STACK CFI 1efec .cfa: sp 0 +
STACK CFI 1eff0 .cfa: x29 96 +
STACK CFI INIT 1f0b8 2ec .cfa: sp 0 +
STACK CFI 1f0bc .cfa: sp 112 +
STACK CFI 1f0d8 .cfa: x29 96 + x19: .cfa -8 + ^ x20: .cfa -16 + ^ x21: .cfa -24 + ^ x22: .cfa -32 + ^ x23: .cfa -40 + ^ x24: .cfa -48 + ^ x25: .cfa -56 + ^ x26: .cfa -64 + ^ x27: .cfa -72 + ^ x28: .cfa -80 + ^ .ra: .cfa -88 + ^ x29: .cfa -96 + ^
STACK CFI 1f334 .cfa: sp 112 +
STACK CFI 1f350 .cfa: sp 0 +
STACK CFI 1f354 .cfa: sp 112 +
STACK CFI 1f370 .cfa: sp 0 +
STACK CFI 1f374 .cfa: x29 96 +
STACK CFI INIT 1f868 17c .cfa: sp 0 +
STACK CFI 1f86c .cfa: sp 80 +
STACK CFI 1f87c .cfa: x29 48 + x19: .cfa -8 + ^ x20: .cfa -16 + ^ x21: .cfa -32 + ^ .ra: .cfa -40 + ^ x29: .cfa -48 + ^
STACK CFI 1f9a8 .cfa: sp 80 +
STACK CFI 1f9b8 .cfa: sp 0 +
STACK CFI 1f9bc .cfa: x29 48 +
STACK CFI INIT 1fa2c 778 .cfa: sp 0 +
STACK CFI 1fa30 .cfa: sp 144 +
STACK CFI 1fa48 .cfa: x29 64 + x19: .cfa -8 + ^ x20: .cfa -16 + ^ x21: .cfa -24 + ^ x22: .cfa -32 + ^ x23: .cfa -40 + ^ x24: .cfa -48 + ^ .ra: .cfa -56 + ^ x29: .cfa -64 + ^ v8: .cfa -80 + ^
STACK CFI 20120 .cfa: sp 144 +
STACK CFI 20138 .cfa: sp 0 +
STACK CFI 2013c .cfa: x29 64 +
STACK CFI INIT 201a4 324 .cfa: sp 0 +
STACK CFI 201a8 .cfa: sp 192 +
STACK CFI 201bc .cfa: x29 64 + x19: .cfa -8 + ^ x20: .cfa -16 + ^ x21: .cfa -24 + ^ x22: .cfa -32 + ^ x23: .cfa -40 + ^ x24: .cfa -48 + ^ .ra: .cfa -56 + ^ x29: .cfa -64 + ^
STACK CFI 203a8 .cfa: sp 192 +
STACK CFI 203bc .cfa: sp 0 +
STACK CFI 203c0 .cfa: x29 64 +
STACK CFI INIT 204dc 234 .cfa: sp 0 +
STACK CFI 204e0 .cfa: sp 128 +
STACK CFI 204f0 .cfa: x29 48 + x19: .cfa -8 + ^ x20: .cfa -16 + ^ x21: .cfa -24 + ^ x22: .cfa -32 + ^ .ra: .cfa -40 + ^ x29: .cfa -48 + ^
STACK CFI 206a4 .cfa: sp 128 +
STACK CFI 206b4 .cfa: sp 0 +
STACK CFI 206b8 .cfa: x29 48 +
STACK CFI INIT 20710 74 .cfa: sp 0 +
STACK CFI 20714 .cfa: sp 48 +
STACK CFI 20720 .cfa: x29 32 + x19: .cfa -8 + ^ x20: .cfa -16 + ^ .ra: .cfa -24 + ^ x29: .cfa -32 + ^
STACK CFI 2076c .cfa: sp 48 +
STACK CFI 20778 .cfa: sp 0 +
STACK CFI 2077c .cfa: x29 32 +
STACK CFI INIT 2078c 238 .cfa: sp 0 +
STACK CFI 20790 .cfa: sp 96 +
STACK CFI 207a8 .cfa: x29 96 + x19: .cfa -8 + ^ x20: .cfa -16 + ^ x21: .cfa -24 + ^ x22: .cfa -32 + ^ x23: .cfa -40 + ^ x24: .cfa -48 + ^ x25: .cfa -56 + ^ x26: .cfa -64 + ^ x28: .cfa -80 + ^ .ra: .cfa -88 + ^ x29: .cfa -96 + ^
STACK CFI 20904 .cfa: sp 96 +
STACK CFI 2091c .cfa: sp 0 +
STACK CFI 20920 .cfa: x29 96 +
STACK CFI INIT 209c4 148 .cfa: sp 0 +
STACK CFI 209c8 .cfa: sp 96 +
STACK CFI 209d8 .cfa: x29 48 + x19: .cfa -8 + ^ x20: .cfa -16 + ^ x21: .cfa -32 + ^ .ra: .cfa -40 + ^ x29: .cfa -48 + ^
STACK CFI 20ac0 .cfa: sp 96 +
STACK CFI 20ad0 .cfa: sp 0 +
STACK CFI 20ad4 .cfa: x29 48 +
STACK CFI INIT 20b14 6c .cfa: sp 0 +
STACK CFI 20b18 .cfa: sp 32 +
STACK CFI 20b20 .cfa: x29 32 + x19: .cfa -16 + ^ .ra: .cfa -24 + ^ x29: .cfa -32 + ^
STACK CFI 20b70 .cfa: sp 32 +
STACK CFI 20b78 .cfa: sp 0 +
STACK CFI 20b7c .cfa: x29 32 +
STACK CFI INIT 20b80 74 .cfa: sp 0 +
STACK CFI 20b84 .cfa: sp 32 +
STACK CFI 20b8c .cfa: x29 32 + x19: .cfa -16 + ^ .ra: .cfa -24 + ^ x29: .cfa -32 + ^
STACK CFI 20be4 .cfa: sp 32 +
STACK CFI 20bec .cfa: sp 0 +
STACK CFI 20bf0 .cfa: x29 32 +
STACK CFI INIT 20c54 6c .cfa: sp 0 +
STACK CFI 20c58 .cfa: sp 32 +
STACK CFI 20c60 .cfa: x29 32 + x19: .cfa -16 + ^ .ra: .cfa -24 + ^ x29: .cfa -32 + ^
STACK CFI 20cb0 .cfa: sp 32 +
STACK CFI 20cb8 .cfa: sp 0 +
STACK CFI 20cbc .cfa: x29 32 +
STACK CFI INIT 20cc0 74 .cfa: sp 0 +
STACK CFI 20cc4 .cfa: sp 32 +
STACK CFI 20ccc .cfa: x29 32 + x19: .cfa -16 + ^ .ra: .cfa -24 + ^ x29: .cfa -32 + ^
STACK CFI 20d24 .cfa: sp 32 +
STACK CFI 20d2c .cfa: sp 0 +
STACK CFI 20d30 .cfa: x29 32 +
STACK CFI INIT 20d80 6c .cfa: sp 0 +
STACK CFI 20d84 .cfa: sp 32 +
STACK CFI 20d8c .cfa: x29 32 + x19: .cfa -16 + ^ .ra: .cfa -24 + ^ x29: .cfa -32 + ^
STACK CFI 20ddc .cfa: sp 32 +
STACK CFI 20de4 .cfa: sp 0 +
STACK CFI 20de8 .cfa: x29 32 +
STACK CFI INIT 212a4 1e0 .cfa: sp 0 +
STACK CFI 212a8 .cfa: sp 208 +
STACK CFI 212c0 .cfa: x29 64 + x19: .cfa -8 + ^ x20: .cfa -16 + ^ x21: .cfa -24 + ^ x22: .cfa -32 + ^ x23: .cfa -40 + ^ x24: .cfa -48 + ^ .ra: .cfa -56 + ^ x29: .cfa -64 + ^ v8: .cfa -80 + ^
STACK CFI 21410 .cfa: sp 208 +
STACK CFI 21428 .cfa: sp 0 +
STACK CFI 2142c .cfa: x29 64 +
STACK CFI INIT 21484 e0 .cfa: sp 0 +
STACK CFI 21488 .cfa: sp 80 +
STACK CFI 2149c .cfa: x29 48 + x19: .cfa -8 + ^ x20: .cfa -16 + ^ x21: .cfa -24 + ^ x22: .cfa -32 + ^ .ra: .cfa -40 + ^ x29: .cfa -48 + ^ v8: .cfa -64 + ^
STACK CFI 21524 .cfa: sp 80 +
STACK CFI 21538 .cfa: sp 0 +
STACK CFI 2153c .cfa: x29 48 +
STACK CFI INIT 21564 c4 .cfa: sp 0 +
STACK CFI 21568 .cfa: sp 80 +
STACK CFI 21578 .cfa: x29 48 + x19: .cfa -8 + ^ x20: .cfa -16 + ^ x21: .cfa -32 + ^ .ra: .cfa -40 + ^ x29: .cfa -48 + ^
STACK CFI 215e4 .cfa: sp 80 +
STACK CFI 215f4 .cfa: sp 0 +
STACK CFI 215f8 .cfa: x29 48 +
STACK CFI INIT 21628 2a4 .cfa: sp 0 +
STACK CFI 2162c .cfa: sp 208 +
STACK CFI 21640 .cfa: x29 64 + x19: .cfa -8 + ^ x20: .cfa -16 + ^ x21: .cfa -24 + ^ x22: .cfa -32 + ^ x23: .cfa -40 + ^ x24: .cfa -48 + ^ .ra: .cfa -56 + ^ x29: .cfa -64 + ^
STACK CFI 21830 .cfa: sp 208 +
STACK CFI 21844 .cfa: sp 0 +
STACK CFI 21848 .cfa: x29 64 +
STACK CFI INIT 218cc 160 .cfa: sp 0 +
STACK CFI 218d0 .cfa: sp 128 +
STACK CFI 218e8 .cfa: x29 80 + x19: .cfa -8 + ^ x20: .cfa -16 + ^ x21: .cfa -24 + ^ x22: .cfa -32 + ^ x23: .cfa -40 + ^ x24: .cfa -48 + ^ x25: .cfa -64 + ^ .ra: .cfa -72 + ^ x29: .cfa -80 + ^
STACK CFI 21998 .cfa: sp 128 +
STACK CFI 219b0 .cfa: sp 0 +
STACK CFI 219b4 .cfa: x29 80 +
STACK CFI INIT 21a2c 1ec .cfa: sp 0 +
STACK CFI 21a30 .cfa: sp 208 +
STACK CFI 21a48 .cfa: x29 80 + x19: .cfa -8 + ^ x20: .cfa -16 + ^ x21: .cfa -24 + ^ x22: .cfa -32 + ^ x23: .cfa -40 + ^ x24: .cfa -48 + ^ x25: .cfa -64 + ^ .ra: .cfa -72 + ^ x29: .cfa -80 + ^
STACK CFI 21ba4 .cfa: sp 208 +
STACK CFI 21bbc .cfa: sp 0 +
STACK CFI 21bc0 .cfa: x29 80 +
STACK CFI INIT 21c18 e4 .cfa: sp 0 +
STACK CFI 21c1c .cfa: sp 80 +
STACK CFI 21c30 .cfa: x29 64 + x19: .cfa -8 + ^ x20: .cfa -16 + ^ x21: .cfa -24 + ^ x22: .cfa -32 + ^ x23: .cfa -48 + ^ .ra: .cfa -56 + ^ x29: .cfa -64 + ^
STACK CFI 21cbc .cfa: sp 80 +
STACK CFI 21cd0 .cfa: sp 0 +
STACK CFI 21cd4 .cfa: x29 64 +
STACK CFI INIT 21cfc 74 .cfa: sp 0 +
STACK CFI 21d00 .cfa: sp 48 +
STACK CFI 21d0c .cfa: x29 32 + x19: .cfa -8 + ^ x20: .cfa -16 + ^ .ra: .cfa -24 + ^ x29: .cfa -32 + ^
STACK CFI 21d58 .cfa: sp 48 +
STACK CFI 21d64 .cfa: sp 0 +
STACK CFI 21d68 .cfa: x29 32 +
STACK CFI INIT 21d70 10c .cfa: sp 0 +
STACK CFI 21d74 .cfa: sp 112 +
STACK CFI 21d80 .cfa: x29 32 + x19: .cfa -8 + ^ x20: .cfa -16 + ^ .ra: .cfa -24 + ^ x29: .cfa -32 + ^
STACK CFI 21e4c .cfa: sp 112 +
STACK CFI 21e58 .cfa: sp 0 +
STACK CFI 21e5c .cfa: x29 32 +
STACK CFI INIT 21eac 190 .cfa: sp 0 +
STACK CFI 21eb0 .cfa: sp 160 +
STACK CFI 21ec4 .cfa: x29 40 + x19: .cfa -8 + ^ x20: .cfa -16 + ^ x21: .cfa -24 + ^ .ra: .cfa -32 + ^ x29: .cfa -40 + ^ v8: .cfa -48 + ^
STACK CFI 21fdc .cfa: sp 160 +
STACK CFI 21ff0 .cfa: sp 0 +
STACK CFI 21ff4 .cfa: x29 40 +
STACK CFI INIT 2203c 74 .cfa: sp 0 +
STACK CFI 22040 .cfa: sp 48 +
STACK CFI 2204c .cfa: x29 32 + x19: .cfa -8 + ^ x20: .cfa -16 + ^ .ra: .cfa -24 + ^ x29: .cfa -32 + ^
STACK CFI 22098 .cfa: sp 48 +
STACK CFI 220a4 .cfa: sp 0 +
STACK CFI 220a8 .cfa: x29 32 +
STACK CFI INIT 220d8 1e8 .cfa: sp 0 +
STACK CFI 220dc .cfa: sp 160 +
STACK CFI 220ec .cfa: x29 48 + x19: .cfa -8 + ^ x20: .cfa -16 + ^ x21: .cfa -24 + ^ x22: .cfa -32 + ^ .ra: .cfa -40 + ^ x29: .cfa -48 + ^
STACK CFI 22250 .cfa: sp 160 +
STACK CFI 22260 .cfa: sp 0 +
STACK CFI 22264 .cfa: x29 48 +
STACK CFI INIT 222d8 190 .cfa: sp 0 +
STACK CFI 222dc .cfa: sp 160 +
STACK CFI 222ec .cfa: x29 48 + x19: .cfa -8 + ^ x20: .cfa -16 + ^ x21: .cfa -32 + ^ .ra: .cfa -40 + ^ x29: .cfa -48 + ^
STACK CFI 2240c .cfa: sp 160 +
STACK CFI 2241c .cfa: sp 0 +
STACK CFI 22420 .cfa: x29 48 +
STACK CFI INIT 224a4 2bc .cfa: sp 0 +
STACK CFI 224a8 .cfa: sp 32 +
STACK CFI 224b0 .cfa: x29 32 + x19: .cfa -16 + ^ .ra: .cfa -24 + ^ x29: .cfa -32 + ^
STACK CFI 225e4 .cfa: sp 32 +
STACK CFI 225ec .cfa: sp 0 +
STACK CFI 225f0 .cfa: x29 32 +
STACK CFI 226fc .cfa: sp 32 +
STACK CFI 22704 .cfa: sp 0 +
STACK CFI 22708 .cfa: x29 32 +
STACK CFI INIT 22760 134 .cfa: sp 0 +
STACK CFI 22764 .cfa: sp 80 +
STACK CFI 22770 .cfa: x29 32 + x19: .cfa -8 + ^ x20: .cfa -16 + ^ .ra: .cfa -24 + ^ x29: .cfa -32 + ^
STACK CFI 227a0 .cfa: sp 80 +
STACK CFI 227ac .cfa: sp 0 +
STACK CFI 227b0 .cfa: x29 32 +
STACK CFI INIT 22894 78 .cfa: sp 0 +
STACK CFI 22898 .cfa: sp 32 +
STACK CFI 228a0 .cfa: x29 32 + x19: .cfa -8 + ^ x20: .cfa -16 + ^ .ra: .cfa -24 + ^ x29: .cfa -32 + ^
STACK CFI 228ac .cfa: sp 32 +
STACK CFI 228b4 .cfa: sp 0 +
STACK CFI 228b8 .cfa: x29 32 +
STACK CFI INIT 2290c 74 .cfa: sp 0 +
STACK CFI 22910 .cfa: sp 48 +
STACK CFI 2291c .cfa: x29 32 + x19: .cfa -8 + ^ x20: .cfa -16 + ^ .ra: .cfa -24 + ^ x29: .cfa -32 + ^
STACK CFI 22968 .cfa: sp 48 +
STACK CFI 22974 .cfa: sp 0 +
STACK CFI 22978 .cfa: x29 32 +
STACK CFI INIT 22a80 630 .cfa: sp 0 +
STACK CFI 22a84 .cfa: sp 112 +
STACK CFI 22a94 .cfa: x29 48 + x19: .cfa -8 + ^ x20: .cfa -16 + ^ x21: .cfa -32 + ^ .ra: .cfa -40 + ^ x29: .cfa -48 + ^
STACK CFI 22c24 .cfa: sp 112 +
STACK CFI 22c34 .cfa: sp 0 +
STACK CFI 22c38 .cfa: x29 48 +
STACK CFI INIT 230b0 254 .cfa: sp 0 +
STACK CFI 230b4 .cfa: sp 128 +
STACK CFI 230c8 .cfa: x29 64 + x19: .cfa -8 + ^ x20: .cfa -16 + ^ x21: .cfa -24 + ^ x22: .cfa -32 + ^ x23: .cfa -48 + ^ .ra: .cfa -56 + ^ x29: .cfa -64 + ^
STACK CFI 23198 .cfa: sp 128 +
STACK CFI 231ac .cfa: sp 0 +
STACK CFI 231b0 .cfa: x29 64 +
STACK CFI INIT 23420 24c .cfa: sp 0 +
STACK CFI 23424 .cfa: sp 128 +
STACK CFI 23438 .cfa: x29 64 + x19: .cfa -8 + ^ x20: .cfa -16 + ^ x21: .cfa -24 + ^ x22: .cfa -32 + ^ x23: .cfa -48 + ^ .ra: .cfa -56 + ^ x29: .cfa -64 + ^
STACK CFI 23500 .cfa: sp 128 +
STACK CFI 23514 .cfa: sp 0 +
STACK CFI 23518 .cfa: x29 64 +
STACK CFI INIT 2366c 25c .cfa: sp 0 +
STACK CFI 23670 .cfa: sp 128 +
STACK CFI 23684 .cfa: x29 64 + x19: .cfa -8 + ^ x20: .cfa -16 + ^ x21: .cfa -24 + ^ x22: .cfa -32 + ^ x23: .cfa -48 + ^ .ra: .cfa -56 + ^ x29: .cfa -64 + ^
STACK CFI 2375c .cfa: sp 128 +
STACK CFI 23770 .cfa: sp 0 +
STACK CFI 23774 .cfa: x29 64 +
STACK CFI INIT 238c8 2bc .cfa: sp 0 +
STACK CFI 238cc .cfa: sp 128 +
STACK CFI 238e0 .cfa: x29 64 + x19: .cfa -8 + ^ x20: .cfa -16 + ^ x21: .cfa -24 + ^ x22: .cfa -32 + ^ x23: .cfa -40 + ^ x24: .cfa -48 + ^ .ra: .cfa -56 + ^ x29: .cfa -64 + ^
STACK CFI 23a18 .cfa: sp 128 +
STACK CFI 23a2c .cfa: sp 0 +
STACK CFI 23a30 .cfa: x29 64 +
STACK CFI INIT 23b84 22c .cfa: sp 0 +
STACK CFI 23b88 .cfa: sp 128 +
STACK CFI 23b9c .cfa: x29 64 + x19: .cfa -8 + ^ x20: .cfa -16 + ^ x21: .cfa -24 + ^ x22: .cfa -32 + ^ x23: .cfa -48 + ^ .ra: .cfa -56 + ^ x29: .cfa -64 + ^
STACK CFI 23c44 .cfa: sp 128 +
STACK CFI 23c58 .cfa: sp 0 +
STACK CFI 23c5c .cfa: x29 64 +
STACK CFI INIT 23db0 22c .cfa: sp 0 +
STACK CFI 23db4 .cfa: sp 128 +
STACK CFI 23dc8 .cfa: x29 64 + x19: .cfa -8 + ^ x20: .cfa -16 + ^ x21: .cfa -24 + ^ x22: .cfa -32 + ^ x23: .cfa -48 + ^ .ra: .cfa -56 + ^ x29: .cfa -64 + ^
STACK CFI 23e70 .cfa: sp 128 +
STACK CFI 23e84 .cfa: sp 0 +
STACK CFI 23e88 .cfa: x29 64 +
STACK CFI INIT 23fdc 154 .cfa: sp 0 +
STACK CFI 23fe0 .cfa: sp 384 +
STACK CFI 23ff4 .cfa: x29 64 + x19: .cfa -8 + ^ x20: .cfa -16 + ^ x21: .cfa -24 + ^ x22: .cfa -32 + ^ x23: .cfa -40 + ^ x28: .cfa -48 + ^ .ra: .cfa -56 + ^ x29: .cfa -64 + ^
STACK CFI 240d8 .cfa: sp 384 +
STACK CFI 240ec .cfa: sp 0 +
STACK CFI 240f0 .cfa: x29 64 +
STACK CFI INIT 24130 168 .cfa: sp 0 +
STACK CFI 24134 .cfa: sp 384 +
STACK CFI 24148 .cfa: x29 64 + x19: .cfa -8 + ^ x20: .cfa -16 + ^ x21: .cfa -24 + ^ x22: .cfa -32 + ^ x23: .cfa -40 + ^ x28: .cfa -48 + ^ .ra: .cfa -56 + ^ x29: .cfa -64 + ^
STACK CFI 24240 .cfa: sp 384 +
STACK CFI 24254 .cfa: sp 0 +
STACK CFI 24258 .cfa: x29 64 +
STACK CFI INIT 242b0 4e0 .cfa: sp 0 +
STACK CFI 242b4 .cfa: sp 64 +
STACK CFI 242c4 .cfa: x29 64 + x19: .cfa -8 + ^ x20: .cfa -16 + ^ x21: .cfa -24 + ^ x22: .cfa -32 + ^ x23: .cfa -40 + ^ x24: .cfa -48 + ^ .ra: .cfa -56 + ^ x29: .cfa -64 + ^
STACK CFI 24764 .cfa: sp 64 +
STACK CFI 24774 .cfa: sp 0 +
STACK CFI 24778 .cfa: x29 64 +
STACK CFI INIT 24ac0 294 .cfa: sp 0 +
STACK CFI 24ac4 .cfa: sp 240 +
STACK CFI 24adc .cfa: x29 80 + x19: .cfa -8 + ^ x20: .cfa -16 + ^ x21: .cfa -24 + ^ x22: .cfa -32 + ^ x23: .cfa -40 + ^ x24: .cfa -48 + ^ x25: .cfa -64 + ^ .ra: .cfa -72 + ^ x29: .cfa -80 + ^
STACK CFI 24c7c .cfa: sp 240 +
STACK CFI 24c94 .cfa: sp 0 +
STACK CFI 24c98 .cfa: x29 80 +
STACK CFI INIT 24dd0 50 .cfa: sp 0 +
STACK CFI 24dd4 .cfa: sp 32 +
STACK CFI 24ddc .cfa: x29 32 + x19: .cfa -8 + ^ x20: .cfa -16 + ^ .ra: .cfa -24 + ^ x29: .cfa -32 + ^
STACK CFI INIT 24e4c 7c0 .cfa: sp 0 +
STACK CFI 24e50 .cfa: sp 320 +
STACK CFI 24e6c .cfa: x29 96 + x19: .cfa -8 + ^ x20: .cfa -16 + ^ x21: .cfa -24 + ^ x22: .cfa -32 + ^ x23: .cfa -40 + ^ x24: .cfa -48 + ^ x25: .cfa -56 + ^ x26: .cfa -64 + ^ x27: .cfa -72 + ^ x28: .cfa -80 + ^ .ra: .cfa -88 + ^ x29: .cfa -96 + ^
STACK CFI 254bc .cfa: sp 320 +
STACK CFI 254d8 .cfa: sp 0 +
STACK CFI 254dc .cfa: x29 96 +
STACK CFI INIT 2998c c74 .cfa: sp 0 +
STACK CFI 29990 .cfa: sp 96 +
STACK CFI 299a8 .cfa: x29 96 + x19: .cfa -8 + ^ x20: .cfa -16 + ^ x21: .cfa -24 + ^ x22: .cfa -32 + ^ x23: .cfa -40 + ^ x24: .cfa -48 + ^ x25: .cfa -56 + ^ x26: .cfa -64 + ^ x27: .cfa -72 + ^ x28: .cfa -80 + ^ .ra: .cfa -88 + ^ x29: .cfa -96 + ^
STACK CFI 2a420 .cfa: sp 96 +
STACK CFI 2a438 .cfa: sp 0 +
STACK CFI 2a43c .cfa: x29 96 +
STACK CFI INIT 2a754 26c .cfa: sp 0 +
STACK CFI 2a758 .cfa: sp 128 +
STACK CFI 2a768 .cfa: x29 48 + x19: .cfa -8 + ^ x20: .cfa -16 + ^ x21: .cfa -24 + ^ x22: .cfa -32 + ^ .ra: .cfa -40 + ^ x29: .cfa -48 + ^
STACK CFI 2a90c .cfa: sp 128 +
STACK CFI 2a91c .cfa: sp 0 +
STACK CFI 2a920 .cfa: x29 48 +
STACK CFI INIT 2af0c 3b8 .cfa: sp 0 +
STACK CFI 2af10 .cfa: sp 96 +
STACK CFI 2af28 .cfa: x29 96 + x19: .cfa -8 + ^ x20: .cfa -16 + ^ x21: .cfa -24 + ^ x22: .cfa -32 + ^ x23: .cfa -40 + ^ x24: .cfa -48 + ^ x25: .cfa -56 + ^ x26: .cfa -64 + ^ x27: .cfa -72 + ^ x28: .cfa -80 + ^ .ra: .cfa -88 + ^ x29: .cfa -96 + ^
STACK CFI 2b264 .cfa: sp 96 +
STACK CFI 2b27c .cfa: sp 0 +
STACK CFI 2b280 .cfa: x29 96 +
STACK CFI INIT 2b364 cb4 .cfa: sp 0 +
STACK CFI 2b368 .cfa: sp 96 +
STACK CFI 2b380 .cfa: x29 96 + x19: .cfa -8 + ^ x20: .cfa -16 + ^ x21: .cfa -24 + ^ x22: .cfa -32 + ^ x23: .cfa -40 + ^ x24: .cfa -48 + ^ x25: .cfa -56 + ^ x26: .cfa -64 + ^ x27: .cfa -72 + ^ x28: .cfa -80 + ^ .ra: .cfa -88 + ^ x29: .cfa -96 + ^
STACK CFI 2be28 .cfa: sp 96 +
STACK CFI 2be40 .cfa: sp 0 +
STACK CFI 2be44 .cfa: x29 96 +
STACK CFI INIT 2c300 afc .cfa: sp 0 +
STACK CFI 2c304 .cfa: sp 96 +
STACK CFI 2c31c .cfa: x29 96 + x19: .cfa -8 + ^ x20: .cfa -16 + ^ x21: .cfa -24 + ^ x22: .cfa -32 + ^ x23: .cfa -40 + ^ x24: .cfa -48 + ^ x25: .cfa -56 + ^ x26: .cfa -64 + ^ x27: .cfa -72 + ^ x28: .cfa -80 + ^ .ra: .cfa -88 + ^ x29: .cfa -96 + ^
STACK CFI 2cd70 .cfa: sp 96 +
STACK CFI 2cd88 .cfa: sp 0 +
STACK CFI 2cd8c .cfa: x29 96 +
STACK CFI INIT 2cfd8 1430 .cfa: sp 0 +
STACK CFI 2cfdc .cfa: sp 96 +
STACK CFI 2cff4 .cfa: x29 96 + x19: .cfa -8 + ^ x20: .cfa -16 + ^ x21: .cfa -24 + ^ x22: .cfa -32 + ^ x23: .cfa -40 + ^ x24: .cfa -48 + ^ x25: .cfa -56 + ^ x26: .cfa -64 + ^ x27: .cfa -72 + ^ x28: .cfa -80 + ^ .ra: .cfa -88 + ^ x29: .cfa -96 + ^
STACK CFI 2e290 .cfa: sp 96 +
STACK CFI 2e2a8 .cfa: sp 0 +
STACK CFI 2e2ac .cfa: x29 96 +
STACK CFI INIT 2e52c 75c .cfa: sp 0 +
STACK CFI 2e530 .cfa: sp 368 +
STACK CFI 2e54c .cfa: x29 96 + x19: .cfa -8 + ^ x20: .cfa -16 + ^ x21: .cfa -24 + ^ x22: .cfa -32 + ^ x23: .cfa -40 + ^ x24: .cfa -48 + ^ x25: .cfa -56 + ^ x26: .cfa -64 + ^ x27: .cfa -72 + ^ x28: .cfa -80 + ^ .ra: .cfa -88 + ^ x29: .cfa -96 + ^
STACK CFI 2e600 .cfa: sp 368 +
STACK CFI 2e61c .cfa: sp 0 +
STACK CFI 2e620 .cfa: x29 96 +
STACK CFI 2e674 .cfa: sp 368 +
STACK CFI 2e690 .cfa: sp 0 +
STACK CFI 2e694 .cfa: x29 96 +
STACK CFI INIT 2f048 eb0 .cfa: sp 0 +
STACK CFI 2f04c .cfa: sp 96 +
STACK CFI 2f064 .cfa: x29 96 + x19: .cfa -8 + ^ x20: .cfa -16 + ^ x21: .cfa -24 + ^ x22: .cfa -32 + ^ x23: .cfa -40 + ^ x24: .cfa -48 + ^ x25: .cfa -56 + ^ x26: .cfa -64 + ^ x27: .cfa -72 + ^ x28: .cfa -80 + ^ .ra: .cfa -88 + ^ x29: .cfa -96 + ^
STACK CFI 2fd0c .cfa: sp 96 +
STACK CFI 2fd24 .cfa: sp 0 +
STACK CFI 2fd28 .cfa: x29 96 +
STACK CFI INIT 3026c 1c9c .cfa: sp 0 +
STACK CFI 30270 .cfa: sp 112 +
STACK CFI 3028c .cfa: x29 96 + x19: .cfa -8 + ^ x20: .cfa -16 + ^ x21: .cfa -24 + ^ x22: .cfa -32 + ^ x23: .cfa -40 + ^ x24: .cfa -48 + ^ x25: .cfa -56 + ^ x26: .cfa -64 + ^ x27: .cfa -72 + ^ x28: .cfa -80 + ^ .ra: .cfa -88 + ^ x29: .cfa -96 + ^ v8: .cfa -112 + ^
STACK CFI 30674 .cfa: sp 112 +
STACK CFI 30690 .cfa: sp 0 +
STACK CFI 30694 .cfa: x29 96 +
STACK CFI INIT 346cc 9a0 .cfa: sp 0 +
STACK CFI 346d0 .cfa: sp 144 +
STACK CFI 346e8 .cfa: x29 80 + x19: .cfa -8 + ^ x20: .cfa -16 + ^ x21: .cfa -24 + ^ x22: .cfa -32 + ^ x23: .cfa -40 + ^ x24: .cfa -48 + ^ x25: .cfa -64 + ^ .ra: .cfa -72 + ^ x29: .cfa -80 + ^
STACK CFI 34fe8 .cfa: sp 144 +
STACK CFI 35000 .cfa: sp 0 +
STACK CFI 35004 .cfa: x29 80 +
STACK CFI INIT 36590 57c .cfa: sp 0 +
STACK CFI 36594 .cfa: sp 96 +
STACK CFI 365ac .cfa: x29 96 + x19: .cfa -8 + ^ x20: .cfa -16 + ^ x21: .cfa -24 + ^ x22: .cfa -32 + ^ x23: .cfa -40 + ^ x24: .cfa -48 + ^ x25: .cfa -56 + ^ x26: .cfa -64 + ^ x27: .cfa -72 + ^ x28: .cfa -80 + ^ .ra: .cfa -88 + ^ x29: .cfa -96 + ^
STACK CFI 36a70 .cfa: sp 96 +
STACK CFI 36a88 .cfa: sp 0 +
STACK CFI 36a8c .cfa: x29 96 +
STACK CFI INIT 36b0c 67c .cfa: sp 0 +
STACK CFI 36b10 .cfa: sp 96 +
STACK CFI 36b28 .cfa: x29 96 + x19: .cfa -8 + ^ x20: .cfa -16 + ^ x21: .cfa -24 + ^ x22: .cfa -32 + ^ x23: .cfa -40 + ^ x24: .cfa -48 + ^ x25: .cfa -56 + ^ x26: .cfa -64 + ^ x27: .cfa -72 + ^ x28: .cfa -80 + ^ .ra: .cfa -88 + ^ x29: .cfa -96 + ^
STACK CFI 370ec .cfa: sp 96 +
STACK CFI 37104 .cfa: sp 0 +
STACK CFI 37108 .cfa: x29 96 +
