MODULE Linux arm64 8B75E8E533CF77935D988E25700AD34B0 km7dev.quests_in_pause_menu.android64.so
INFO CODE_ID E5E8758BCF3393775D988E25700AD34B0860E9DC
INFO GENERATOR mozilla/dump_syms 2.3.4
PUBLIC 4ca0 0 __on_dlclose
PUBLIC 4cb0 0 __emutls_unregister_key
PUBLIC 4cb8 0 __on_dlclose_late
PUBLIC 4cc0 0 __atexit_handler_wrapper
PUBLIC 4cd4 0 atexit
PUBLIC 4cf0 0 pthread_atfork
PUBLIC 4d00 0 unwind_phase2
PUBLIC 4e34 0 _Unwind_Resume
PUBLIC 4eb8 0 unwind_phase2_forced
PUBLIC m 4fac 0 __unw_init_local
PUBLIC m 5054 0 __unw_get_reg
PUBLIC 50d0 0 __unw_step_stage2
PUBLIC m 50e4 0 __unw_get_proc_info
PUBLIC m 5124 0 __unw_resume
PUBLIC 514c 0 libunwind::CFI_Parser<libunwind::LocalAddressSpace>::decodeFDE(libunwind::LocalAddressSpace&, unsigned long, libunwind::CFI_Parser<libunwind::LocalAddressSpace>::FDE_Info*, libunwind::CFI_Parser<libunwind::LocalAddressSpace>::CIE_Info*, bool)
PUBLIC 52dc 0 libunwind::CFI_Parser<libunwind::LocalAddressSpace>::parseCIE(libunwind::LocalAddressSpace&, unsigned long, libunwind::CFI_Parser<libunwind::LocalAddressSpace>::CIE_Info*)
PUBLIC 55a4 0 libunwind::AbstractUnwindCursor::~AbstractUnwindCursor()
PUBLIC 55ac 0 libunwind::UnwindCursor<libunwind::LocalAddressSpace, libunwind::Registers_arm64>::~UnwindCursor()
PUBLIC 55b4 0 libunwind::UnwindCursor<libunwind::LocalAddressSpace, libunwind::Registers_arm64>::validReg(int)
PUBLIC 55f8 0 libunwind::UnwindCursor<libunwind::LocalAddressSpace, libunwind::Registers_arm64>::getReg(int)
PUBLIC 56e0 0 libunwind::UnwindCursor<libunwind::LocalAddressSpace, libunwind::Registers_arm64>::setReg(int, unsigned long)
PUBLIC 57c8 0 libunwind::UnwindCursor<libunwind::LocalAddressSpace, libunwind::Registers_arm64>::validFloatReg(int)
PUBLIC 57dc 0 libunwind::UnwindCursor<libunwind::LocalAddressSpace, libunwind::Registers_arm64>::getFloatReg(int)
PUBLIC 57ec 0 libunwind::UnwindCursor<libunwind::LocalAddressSpace, libunwind::Registers_arm64>::setFloatReg(int, double)
PUBLIC 57fc 0 libunwind::UnwindCursor<libunwind::LocalAddressSpace, libunwind::Registers_arm64>::step(bool)
PUBLIC 58ec 0 libunwind::UnwindCursor<libunwind::LocalAddressSpace, libunwind::Registers_arm64>::getInfo(unw_proc_info_t*)
PUBLIC 5930 0 libunwind::UnwindCursor<libunwind::LocalAddressSpace, libunwind::Registers_arm64>::jumpto()
PUBLIC 593c 0 libunwind::UnwindCursor<libunwind::LocalAddressSpace, libunwind::Registers_arm64>::isSignalFrame()
PUBLIC 5948 0 libunwind::UnwindCursor<libunwind::LocalAddressSpace, libunwind::Registers_arm64>::getFunctionName(char*, unsigned long, unsigned long*)
PUBLIC 5974 0 libunwind::UnwindCursor<libunwind::LocalAddressSpace, libunwind::Registers_arm64>::setInfoBasedOnIPRegister(bool)
PUBLIC 5bf4 0 libunwind::UnwindCursor<libunwind::LocalAddressSpace, libunwind::Registers_arm64>::getRegisterName(int)
PUBLIC 5c00 0 libunwind::UnwindCursor<libunwind::LocalAddressSpace, libunwind::Registers_arm64>::stepThroughSigReturn(libunwind::Registers_arm64&)
PUBLIC 5d20 0 libunwind::DwarfInstructions<libunwind::LocalAddressSpace, libunwind::Registers_arm64>::stepWithDwarf(libunwind::LocalAddressSpace&, unsigned long, unsigned long, libunwind::Registers_arm64&, bool&, bool)
PUBLIC 61a8 0 libunwind::CFI_Parser<libunwind::LocalAddressSpace>::parseFDEInstructions(libunwind::LocalAddressSpace&, libunwind::CFI_Parser<libunwind::LocalAddressSpace>::FDE_Info const&, libunwind::CFI_Parser<libunwind::LocalAddressSpace>::CIE_Info const&, unsigned long, int, libunwind::CFI_Parser<libunwind::LocalAddressSpace>::PrologInfo*)
PUBLIC 6df0 0 libunwind::DwarfInstructions<libunwind::LocalAddressSpace, libunwind::Registers_arm64>::getCFA(libunwind::LocalAddressSpace&, libunwind::CFI_Parser<libunwind::LocalAddressSpace>::PrologInfo const&, libunwind::Registers_arm64 const&)
PUBLIC 6f24 0 libunwind::DwarfInstructions<libunwind::LocalAddressSpace, libunwind::Registers_arm64>::getSavedRegister(libunwind::LocalAddressSpace&, libunwind::Registers_arm64 const&, unsigned long, libunwind::CFI_Parser<libunwind::LocalAddressSpace>::RegisterLocation const&)
PUBLIC 7134 0 libunwind::LocalAddressSpace::getEncodedP(unsigned long&, unsigned long, unsigned char, unsigned long)
PUBLIC 74c0 0 libunwind::LocalAddressSpace::getULEB128(unsigned long&, unsigned long)
PUBLIC 7688 0 libunwind::DwarfInstructions<libunwind::LocalAddressSpace, libunwind::Registers_arm64>::evaluateExpression(unsigned long, libunwind::LocalAddressSpace&, libunwind::Registers_arm64 const&, unsigned long)
PUBLIC 8044 0 libunwind::UnwindCursor<libunwind::LocalAddressSpace, libunwind::Registers_arm64>::getInfoFromDwarfSection(unsigned long, libunwind::UnwindInfoSections const&, unsigned int)
PUBLIC 8318 0 libunwind::findUnwindSectionsByPhdr(dl_phdr_info*, unsigned long, void*)
PUBLIC 844c 0 libunwind::EHHeaderParser<libunwind::LocalAddressSpace>::decodeEHHdr(libunwind::LocalAddressSpace&, unsigned long, unsigned long, libunwind::EHHeaderParser<libunwind::LocalAddressSpace>::EHHeaderInfo&)
PUBLIC 856c 0 libunwind::CFI_Parser<libunwind::LocalAddressSpace>::findFDE(libunwind::LocalAddressSpace&, unsigned long, unsigned long, unsigned long, unsigned long, libunwind::CFI_Parser<libunwind::LocalAddressSpace>::FDE_Info*, libunwind::CFI_Parser<libunwind::LocalAddressSpace>::CIE_Info*)
PUBLIC 8734 0 libunwind::EHHeaderParser<libunwind::LocalAddressSpace>::findFDE(libunwind::LocalAddressSpace&, unsigned long, unsigned long, unsigned int, libunwind::CFI_Parser<libunwind::LocalAddressSpace>::FDE_Info*, libunwind::CFI_Parser<libunwind::LocalAddressSpace>::CIE_Info*)
PUBLIC 889c 0 libunwind::EHHeaderParser<libunwind::LocalAddressSpace>::getTableEntrySize(unsigned char)
PUBLIC 8998 0 libunwind::Registers_arm64::getRegisterName(int)
PUBLIC 89c8 0 __libunwind_Registers_arm64_jumpto
PUBLIC m 8a58 0 __unw_getcontext
PUBLIC 8b00 0 __aarch64_ldadd8_relax
PUBLIC 8b30 0 init_have_lse_atomics
PUBLIC 8bc8 0 __init_cpu_features_constructor
PUBLIC 9164 0 __init_cpu_features
PUBLIC 91f0 0 __aarch64_ldadd8_acq_rel
PUBLIC 9220 0 __cxx_global_var_init
PUBLIC 9df4 0 geode::modifier::ModifyBase<geode::modifier::ModifyDerive<ModifiedPause, PauseLayer> >::~ModifyBase()
PUBLIC 9e0c 0 geode::modifier::ModifyDerive<ModifiedPause, PauseLayer>::apply()
PUBLIC a240 0 std::__ndk1::shared_ptr<geode::Hook>::~shared_ptr[abi:ne180000]()
PUBLIC a290 0 geode::impl::ResultData<geode::Hook*, std::__ndk1::basic_string<char, std::__ndk1::char_traits<char>, std::__ndk1::allocator<char> > >::~ResultData()
PUBLIC a304 0 std::__ndk1::vector<std::__ndk1::basic_string<char, std::__ndk1::char_traits<char>, std::__ndk1::allocator<char> >, std::__ndk1::allocator<std::__ndk1::basic_string<char, std::__ndk1::char_traits<char>, std::__ndk1::allocator<char> > > >::~vector[abi:ne180000]()
PUBLIC a380 0 geode::modifier::ModifyBase<geode::modifier::ModifyDerive<ModifiedPause, PauseLayer> >::apply()
PUBLIC a384 0 __clang_call_terminate
PUBLIC a394 0 _ZN5geode15UnwrapExceptionC2IRPNS_4HookEQsr4implE18IsStringStreamableIT_EEENS_4impl5OkTagEOS5_
PUBLIC a4e8 0 std::__ndk1::__throw_bad_variant_access[abi:ne180000]()
PUBLIC a51c 0 std::__ndk1::basic_stringstream<char, std::__ndk1::char_traits<char>, std::__ndk1::allocator<char> >::basic_stringstream[abi:ne180000]()
PUBLIC m a648 0 std::__ndk1::basic_stringstream<char, std::__ndk1::char_traits<char>, std::__ndk1::allocator<char> >::~basic_stringstream()
PUBLIC a6c8 0 geode::UnwrapException::~UnwrapException()
PUBLIC a6ec 0 std::__ndk1::__put_character_sequence[abi:ne180000]<char, std::__ndk1::char_traits<char> >(std::__ndk1::basic_ostream<char, std::__ndk1::char_traits<char> >, std::__ndk1::basic_ostream const*, unsigned long)
PUBLIC a890 0 std::__ndk1::__pad_and_output[abi:ne180000]<char, std::__ndk1::char_traits<char> >(std::__ndk1::char_traits<char>, std::__ndk1::ostreambuf_iterator const*, std::__ndk1::ostreambuf_iterator const, std::__ndk1::ostreambuf_iterator const, std::__ndk1::ios_base&, std::__ndk1::ostreambuf_iterator)
PUBLIC aa6c 0 std::__ndk1::basic_string<char, std::__ndk1::char_traits<char>, std::__ndk1::allocator<char> >::__throw_length_error[abi:ne180000]() const
PUBLIC aa80 0 std::__ndk1::__throw_length_error[abi:ne180000](char const*)
PUBLIC aad0 0 std::length_error::length_error[abi:ne180000](char const*)
PUBLIC ab00 0 std::__throw_bad_array_new_length([abi:ne180000], void)
PUBLIC ab34 0 std::__ndk1::basic_stringbuf<char, std::__ndk1::char_traits<char>, std::__ndk1::allocator<char> >::str[abi:ne180000]() &&
PUBLIC acac 0 std::__ndk1::basic_stringbuf<char, std::__ndk1::char_traits<char>, std::__ndk1::allocator<char> >::__init_buf_ptrs[abi:ne180000]()
PUBLIC adf4 0 std::__ndk1::basic_string<char, std::__ndk1::char_traits<char>, std::__ndk1::allocator<char> >::__init_copy_ctor_external(char const*, unsigned long)
PUBLIC ae74 0 std::__ndk1::__split_buffer<std::__ndk1::basic_string<char, std::__ndk1::char_traits<char>, std::__ndk1::allocator<char> >, std::__ndk1::allocator<std::__ndk1::basic_string<char, std::__ndk1::char_traits<char>, std::__ndk1::allocator<char> > >&>::~__split_buffer()
PUBLIC aedc 0 std::__ndk1::vector<std::__ndk1::basic_string<char, std::__ndk1::char_traits<char>, std::__ndk1::allocator<char> >, std::__ndk1::allocator<std::__ndk1::basic_string<char, std::__ndk1::char_traits<char>, std::__ndk1::allocator<char> > > >::__throw_length_error[abi:ne180000]() const
PUBLIC aef0 0 std::__ndk1::__variant_detail::__visitation::__base::__dispatcher<(unsigned long)0>::__dispatch[abi:ne180000]<std::__ndk1::__variant_detail::__dtor<std::__ndk1::__variant_detail::__traits<geode::Hook*, std::__ndk1::basic_string<char, std::__ndk1::char_traits<char>, std::__ndk1::allocator<char> > >, (std::__ndk1::__variant_detail::_Trait)1>::__destroy[abi:ne180000]()::{lambda(auto:1&)#1}, std::__ndk1::__variant_detail::__base<(std::__ndk1::__variant_detail::__traits<geode::Hook*, std::__ndk1::basic_string<char, std::__ndk1::char_traits<char>, std::__ndk1::allocator<char> > >)1, geode::Hook, std::__ndk1::allocator<char> >&>(std::__ndk1::__variant_detail::__dtor<std::__ndk1::__variant_detail::__traits<geode::Hook*, std::__ndk1::basic_string<char, std::__ndk1::char_traits<char>, std::__ndk1::allocator<char> > >, (std::__ndk1::__variant_detail::_Trait)1>, std::__ndk1::__variant_detail::__base<(std::__ndk1::__variant_detail::__traits<geode::Hook*, std::__ndk1::basic_string<char, std::__ndk1::char_traits<char>, std::__ndk1::allocator<char> > >)1, geode::Hook, std::__ndk1::allocator<char> >&)
PUBLIC aef4 0 std::__ndk1::__variant_detail::__visitation::__base::__dispatcher<(unsigned long)1>::__dispatch[abi:ne180000]<std::__ndk1::__variant_detail::__dtor<std::__ndk1::__variant_detail::__traits<geode::Hook*, std::__ndk1::basic_string<char, std::__ndk1::char_traits<char>, std::__ndk1::allocator<char> > >, (std::__ndk1::__variant_detail::_Trait)1>::__destroy[abi:ne180000]()::{lambda(auto:1&)#1}, std::__ndk1::__variant_detail::__base<(std::__ndk1::__variant_detail::__traits<geode::Hook*, std::__ndk1::basic_string<char, std::__ndk1::char_traits<char>, std::__ndk1::allocator<char> > >)1, geode::Hook, std::__ndk1::allocator<char> >&>(std::__ndk1::__variant_detail::__dtor<std::__ndk1::__variant_detail::__traits<geode::Hook*, std::__ndk1::basic_string<char, std::__ndk1::char_traits<char>, std::__ndk1::allocator<char> > >, (std::__ndk1::__variant_detail::_Trait)1>, std::__ndk1::__variant_detail::__base<(std::__ndk1::__variant_detail::__traits<geode::Hook*, std::__ndk1::basic_string<char, std::__ndk1::char_traits<char>, std::__ndk1::allocator<char> > >)1, geode::Hook, std::__ndk1::allocator<char> >&)
PUBLIC af08 0 std::__ndk1::__tree<std::__ndk1::__value_type<std::__ndk1::basic_string<char, std::__ndk1::char_traits<char>, std::__ndk1::allocator<char> >, std::__ndk1::shared_ptr<geode::Hook> >, std::__ndk1::__map_value_compare<std::__ndk1::basic_string<char, std::__ndk1::char_traits<char>, std::__ndk1::allocator<char> >, std::__ndk1::__value_type<std::__ndk1::basic_string<char, std::__ndk1::char_traits<char>, std::__ndk1::allocator<char> >, std::__ndk1::shared_ptr<geode::Hook> >, std::__ndk1::less<std::__ndk1::basic_string<char, std::__ndk1::char_traits<char>, std::__ndk1::allocator<char> > >, true>, std::__ndk1::allocator<std::__ndk1::__value_type<std::__ndk1::basic_string<char, std::__ndk1::char_traits<char>, std::__ndk1::allocator<char> >, std::__ndk1::shared_ptr<geode::Hook> > > >::destroy(std::__ndk1::__tree_node<std::__ndk1::__value_type<std::__ndk1::basic_string<char, std::__ndk1::char_traits<char>, std::__ndk1::allocator<char> >, std::__ndk1::shared_ptr<geode::Hook> >, void*>*)
PUBLIC af8c 0 geode::modifier::AsStaticFunction_customSetup<ModifiedPause, void (ModifiedPause::*)()>::Impl<void (ModifiedPause::*)()>::function(ModifiedPause*)
PUBLIC b514 0 geode::addresser::Addresser::addressOfVirtual<void, PauseLayer, >(void (PauseLayer::*)())
PUBLIC b5bc 0 PauseLayer::PauseLayer(geode::ZeroConstructorType)
PUBLIC b648 0 std::__ndk1::shared_ptr<tulip::hook::CallingConvention>::~shared_ptr[abi:ne180000]()
PUBLIC b698 0 tulip::hook::HandlerMetadata::~HandlerMetadata()
PUBLIC b6fc 0 geode::Mod::getSettingValue<std::__ndk1::basic_string<char, std::__ndk1::char_traits<char>, std::__ndk1::allocator<char> > >(std::__ndk1::basic_string_view<char, std::__ndk1::char_traits<char> >) const
PUBLIC b88c 0 std::__ndk1::shared_ptr<geode::StringSettingV3>::~shared_ptr[abi:ne180000]()
PUBLIC b8dc 0 geode::cast::traverseTypeinfoFor(void*, geode::cast::ClassTypeinfoType const*, char const*)
PUBLIC b9d4 0 std::__ndk1::__tree_balance_after_insert[abi:ne180000]<std::__ndk1::__tree_node_base<void*>*>(std::__ndk1::__tree_node_base<void*>*, std::__ndk1::__tree_node_base<void*>*)
PUBLIC m bb84 0 geodeImplicitEntry
PUBLIC bbc0 0 <.plt ELF section in km7dev.quests_in_pause_menu.android64.so>
STACK CFI INIT 4ca0 10 .cfa: sp 0 +
STACK CFI INIT 4cb0 8 .cfa: sp 0 +
STACK CFI INIT 4cb8 8 .cfa: sp 0 +
STACK CFI INIT 4cc0 14 .cfa: sp 0 +
STACK CFI INIT 4cd4 1c .cfa: sp 0 +
STACK CFI INIT 4cf0 10 .cfa: sp 0 +
STACK CFI INIT 4d00 134 .cfa: sp 0 +
STACK CFI INIT 4e34 84 .cfa: sp 0 +
STACK CFI INIT 4eb8 f4 .cfa: sp 0 +
STACK CFI INIT 4fac a8 .cfa: sp 0 +
STACK CFI INIT 5054 7c .cfa: sp 0 +
STACK CFI INIT 50d0 14 .cfa: sp 0 +
STACK CFI INIT 50e4 40 .cfa: sp 0 +
STACK CFI INIT 5124 28 .cfa: sp 0 +
STACK CFI INIT 514c 190 .cfa: sp 0 +
STACK CFI INIT 52dc 2c8 .cfa: sp 0 +
STACK CFI INIT 55a4 8 .cfa: sp 0 +
STACK CFI INIT 55ac 8 .cfa: sp 0 +
STACK CFI INIT 55b4 44 .cfa: sp 0 +
STACK CFI INIT 55f8 e8 .cfa: sp 0 +
STACK CFI INIT 56e0 e8 .cfa: sp 0 +
STACK CFI INIT 57c8 14 .cfa: sp 0 +
STACK CFI INIT 57dc 10 .cfa: sp 0 +
STACK CFI INIT 57ec 10 .cfa: sp 0 +
STACK CFI INIT 57fc f0 .cfa: sp 0 +
STACK CFI INIT 58ec 44 .cfa: sp 0 +
STACK CFI INIT 5930 c .cfa: sp 0 +
STACK CFI INIT 593c c .cfa: sp 0 +
STACK CFI INIT 5948 2c .cfa: sp 0 +
STACK CFI INIT 5974 280 .cfa: sp 0 +
STACK CFI INIT 5bf4 c .cfa: sp 0 +
STACK CFI INIT 5c00 120 .cfa: sp 0 +
STACK CFI INIT 5d20 488 .cfa: sp 0 +
STACK CFI INIT 61a8 c48 .cfa: sp 0 +
STACK CFI INIT 6df0 134 .cfa: sp 0 +
STACK CFI INIT 6f24 210 .cfa: sp 0 +
STACK CFI INIT 7134 38c .cfa: sp 0 +
STACK CFI INIT 74c0 1c8 .cfa: sp 0 +
STACK CFI INIT 7688 9bc .cfa: sp 0 +
STACK CFI INIT 8044 2d4 .cfa: sp 0 +
STACK CFI INIT 8318 134 .cfa: sp 0 +
STACK CFI INIT 844c 120 .cfa: sp 0 +
STACK CFI INIT 856c 1c8 .cfa: sp 0 +
STACK CFI INIT 8734 168 .cfa: sp 0 +
STACK CFI INIT 889c fc .cfa: sp 0 +
STACK CFI INIT 8998 30 .cfa: sp 0 +
STACK CFI INIT 8b00 30 .cfa: sp 0 +
STACK CFI INIT 8b30 98 .cfa: sp 0 +
STACK CFI INIT 8bc8 59c .cfa: sp 0 +
STACK CFI INIT 9164 8c .cfa: sp 0 +
STACK CFI INIT 91f0 30 .cfa: sp 0 +
STACK CFI INIT 9df4 18 .cfa: sp 0 +
STACK CFI INIT a240 50 .cfa: sp 0 +
STACK CFI a244 .cfa: sp 32 +
STACK CFI a24c .cfa: x29 32 + x19: .cfa -16 + ^ .ra: .cfa -24 + ^ x29: .cfa -32 + ^
STACK CFI a264 .cfa: sp 32 +
STACK CFI a26c .cfa: sp 0 +
STACK CFI a270 .cfa: x29 32 +
STACK CFI a284 .cfa: sp 32 +
STACK CFI a28c .cfa: sp 0 +
STACK CFI INIT a304 7c .cfa: sp 0 +
STACK CFI a308 .cfa: sp 48 +
STACK CFI a314 .cfa: x29 48 + x19: .cfa -8 + ^ x20: .cfa -16 + ^ x21: .cfa -32 + ^ .ra: .cfa -40 + ^ x29: .cfa -48 + ^
STACK CFI a360 .cfa: sp 48 +
STACK CFI a36c .cfa: sp 0 +
STACK CFI a370 .cfa: sp 48 +
STACK CFI a37c .cfa: sp 0 +
STACK CFI INIT a380 4 .cfa: sp 0 +
STACK CFI INIT a384 10 .cfa: sp 0 +
STACK CFI a388 .cfa: sp 16 +
STACK CFI a38c .cfa: x29 16 + .ra: .cfa -8 + ^ x29: .cfa -16 + ^
STACK CFI INIT a4e8 34 .cfa: sp 0 +
STACK CFI a4ec .cfa: sp 16 +
STACK CFI a4f0 .cfa: x29 16 + .ra: .cfa -8 + ^ x29: .cfa -16 + ^
STACK CFI INIT a648 80 .cfa: sp 0 +
STACK CFI a64c .cfa: sp 48 +
STACK CFI a658 .cfa: x29 48 + x19: .cfa -8 + ^ x20: .cfa -16 + ^ x21: .cfa -32 + ^ .ra: .cfa -40 + ^ x29: .cfa -48 + ^
STACK CFI a6b8 .cfa: sp 48 +
STACK CFI a6c4 .cfa: sp 0 +
STACK CFI INIT a6c8 24 .cfa: sp 0 +
STACK CFI a6cc .cfa: sp 32 +
STACK CFI a6d4 .cfa: x29 32 + x19: .cfa -16 + ^ .ra: .cfa -24 + ^ x29: .cfa -32 + ^
STACK CFI a6e0 .cfa: sp 32 +
STACK CFI a6e8 .cfa: sp 0 +
STACK CFI INIT aa6c 14 .cfa: sp 0 +
STACK CFI aa70 .cfa: sp 16 +
STACK CFI aa74 .cfa: x29 16 + .ra: .cfa -8 + ^ x29: .cfa -16 + ^
STACK CFI INIT aad0 30 .cfa: sp 0 +
STACK CFI aad4 .cfa: sp 32 +
STACK CFI aadc .cfa: x29 32 + x19: .cfa -16 + ^ .ra: .cfa -24 + ^ x29: .cfa -32 + ^
STACK CFI aaf4 .cfa: sp 32 +
STACK CFI aafc .cfa: sp 0 +
STACK CFI INIT ab00 34 .cfa: sp 0 +
STACK CFI ab04 .cfa: sp 32 +
STACK CFI ab0c .cfa: x29 32 + x19: .cfa -16 + ^ .ra: .cfa -24 + ^ x29: .cfa -32 + ^
STACK CFI INIT acac 148 .cfa: sp 0 +
STACK CFI acb0 .cfa: sp 48 +
STACK CFI acbc .cfa: x29 48 + x19: .cfa -8 + ^ x20: .cfa -16 + ^ x21: .cfa -32 + ^ .ra: .cfa -40 + ^ x29: .cfa -48 + ^
STACK CFI ade4 .cfa: sp 48 +
STACK CFI adf0 .cfa: sp 0 +
STACK CFI INIT adf4 80 .cfa: sp 0 +
STACK CFI adf8 .cfa: sp 48 +
STACK CFI ae04 .cfa: x29 48 + x19: .cfa -8 + ^ x20: .cfa -16 + ^ x21: .cfa -24 + ^ x22: .cfa -32 + ^ .ra: .cfa -40 + ^ x29: .cfa -48 + ^
STACK CFI ae1c .cfa: sp 48 +
STACK CFI ae28 .cfa: sp 0 +
STACK CFI ae2c .cfa: x29 48 +
STACK CFI ae5c .cfa: sp 48 +
STACK CFI ae68 .cfa: sp 0 +
STACK CFI ae6c .cfa: x29 48 +
STACK CFI INIT ae74 68 .cfa: sp 0 +
STACK CFI ae78 .cfa: sp 32 +
STACK CFI ae80 .cfa: x29 32 + x19: .cfa -8 + ^ x20: .cfa -16 + ^ .ra: .cfa -24 + ^ x29: .cfa -32 + ^
STACK CFI ae98 .cfa: sp 32 +
STACK CFI aea0 .cfa: sp 0 +
STACK CFI aea4 .cfa: x29 32 +
STACK CFI aed0 .cfa: sp 32 +
STACK CFI aed8 .cfa: sp 0 +
STACK CFI INIT aedc 14 .cfa: sp 0 +
STACK CFI aee0 .cfa: sp 16 +
STACK CFI aee4 .cfa: x29 16 + .ra: .cfa -8 + ^ x29: .cfa -16 + ^
STACK CFI INIT aef0 4 .cfa: sp 0 +
STACK CFI INIT aef4 14 .cfa: sp 0 +
STACK CFI INIT af08 84 .cfa: sp 0 +
STACK CFI af10 .cfa: sp 32 +
STACK CFI af18 .cfa: x29 32 + x19: .cfa -8 + ^ x20: .cfa -16 + ^ .ra: .cfa -24 + ^ x29: .cfa -32 + ^
STACK CFI af58 .cfa: sp 32 +
STACK CFI af60 .cfa: sp 0 +
STACK CFI af68 .cfa: x29 32 +
STACK CFI INIT b5bc 8c .cfa: sp 0 +
STACK CFI b5c0 .cfa: sp 32 +
STACK CFI b5c8 .cfa: x29 32 + x19: .cfa -16 + ^ .ra: .cfa -24 + ^ x29: .cfa -32 + ^
STACK CFI b63c .cfa: sp 32 +
STACK CFI b644 .cfa: sp 0 +
STACK CFI INIT b648 50 .cfa: sp 0 +
STACK CFI b64c .cfa: sp 32 +
STACK CFI b654 .cfa: x29 32 + x19: .cfa -16 + ^ .ra: .cfa -24 + ^ x29: .cfa -32 + ^
STACK CFI b66c .cfa: sp 32 +
STACK CFI b674 .cfa: sp 0 +
STACK CFI b678 .cfa: x29 32 +
STACK CFI b68c .cfa: sp 32 +
STACK CFI b694 .cfa: sp 0 +
STACK CFI INIT b698 64 .cfa: sp 0 +
STACK CFI b69c .cfa: sp 32 +
STACK CFI b6a4 .cfa: x29 32 + x19: .cfa -16 + ^ .ra: .cfa -24 + ^ x29: .cfa -32 + ^
STACK CFI b6d0 .cfa: sp 32 +
STACK CFI b6d8 .cfa: sp 0 +
STACK CFI b6dc .cfa: x29 32 +
STACK CFI b6f0 .cfa: sp 32 +
STACK CFI b6f8 .cfa: sp 0 +
STACK CFI INIT b88c 50 .cfa: sp 0 +
STACK CFI b890 .cfa: sp 32 +
STACK CFI b898 .cfa: x29 32 + x19: .cfa -16 + ^ .ra: .cfa -24 + ^ x29: .cfa -32 + ^
STACK CFI b8b0 .cfa: sp 32 +
STACK CFI b8b8 .cfa: sp 0 +
STACK CFI b8bc .cfa: x29 32 +
STACK CFI b8d0 .cfa: sp 32 +
STACK CFI b8d8 .cfa: sp 0 +
STACK CFI INIT b8dc f8 .cfa: sp 0 +
STACK CFI b8e0 .cfa: sp 64 +
STACK CFI b8f0 .cfa: x29 64 + x19: .cfa -8 + ^ x20: .cfa -16 + ^ x21: .cfa -24 + ^ x22: .cfa -32 + ^ x23: .cfa -48 + ^ .ra: .cfa -56 + ^ x29: .cfa -64 + ^
STACK CFI b94c .cfa: sp 64 +
STACK CFI b95c .cfa: sp 0 +
STACK CFI b960 .cfa: x29 64 +
STACK CFI b97c .cfa: sp 64 +
STACK CFI b98c .cfa: sp 0 +
STACK CFI b990 .cfa: x29 64 +
STACK CFI b9c0 .cfa: sp 64 +
STACK CFI b9d0 .cfa: sp 0 +
STACK CFI INIT b9d4 1b0 .cfa: sp 0 +
STACK CFI INIT bb84 3c .cfa: sp 0 +
STACK CFI bb88 .cfa: sp 32 +
STACK CFI bb90 .cfa: x29 32 + x19: .cfa -16 + ^ .ra: .cfa -24 + ^ x29: .cfa -32 + ^
STACK CFI bb9c .cfa: sp 32 +
STACK CFI bba4 .cfa: sp 0 +
STACK CFI bba8 .cfa: x29 32 +
STACK CFI bbb4 .cfa: sp 32 +
STACK CFI bbbc .cfa: sp 0 +
STACK CFI INIT 9220 bd4 .cfa: sp 0 +
STACK CFI 9224 .cfa: sp 240 +
STACK CFI 9240 .cfa: x29 96 + x19: .cfa -8 + ^ x20: .cfa -16 + ^ x21: .cfa -24 + ^ x22: .cfa -32 + ^ x23: .cfa -40 + ^ x24: .cfa -48 + ^ x25: .cfa -56 + ^ x26: .cfa -64 + ^ x27: .cfa -72 + ^ x28: .cfa -80 + ^ .ra: .cfa -88 + ^ x29: .cfa -96 + ^
STACK CFI 961c .cfa: sp 240 +
STACK CFI 9638 .cfa: sp 0 +
STACK CFI 963c .cfa: x29 96 +
STACK CFI 9c9c .cfa: sp 240 +
STACK CFI 9cb8 .cfa: sp 0 +
STACK CFI 9cbc .cfa: x29 96 +
STACK CFI INIT 9e0c 434 .cfa: sp 0 +
STACK CFI 9e10 .cfa: sp 256 +
STACK CFI 9e2c .cfa: x29 96 + x19: .cfa -8 + ^ x20: .cfa -16 + ^ x21: .cfa -24 + ^ x22: .cfa -32 + ^ x23: .cfa -40 + ^ x24: .cfa -48 + ^ x25: .cfa -56 + ^ x26: .cfa -64 + ^ x27: .cfa -72 + ^ x28: .cfa -80 + ^ .ra: .cfa -88 + ^ x29: .cfa -96 + ^
STACK CFI a11c .cfa: sp 256 +
STACK CFI a138 .cfa: sp 0 +
STACK CFI a13c .cfa: x29 96 +
STACK CFI INIT a290 74 .cfa: sp 0 +
STACK CFI a294 .cfa: sp 48 +
STACK CFI a2a0 .cfa: x29 32 + x19: .cfa -8 + ^ x20: .cfa -16 + ^ .ra: .cfa -24 + ^ x29: .cfa -32 + ^
STACK CFI a2ec .cfa: sp 48 +
STACK CFI a2f8 .cfa: sp 0 +
STACK CFI a2fc .cfa: x29 32 +
STACK CFI INIT a394 154 .cfa: sp 0 +
STACK CFI a398 .cfa: sp 384 +
STACK CFI a3ac .cfa: x29 64 + x19: .cfa -8 + ^ x20: .cfa -16 + ^ x21: .cfa -24 + ^ x22: .cfa -32 + ^ x23: .cfa -40 + ^ x28: .cfa -48 + ^ .ra: .cfa -56 + ^ x29: .cfa -64 + ^
STACK CFI a490 .cfa: sp 384 +
STACK CFI a4a4 .cfa: sp 0 +
STACK CFI a4a8 .cfa: x29 64 +
STACK CFI INIT a51c 12c .cfa: sp 0 +
STACK CFI a520 .cfa: sp 80 +
STACK CFI a534 .cfa: x29 80 + x19: .cfa -8 + ^ x20: .cfa -16 + ^ x21: .cfa -24 + ^ x22: .cfa -32 + ^ x23: .cfa -40 + ^ x24: .cfa -48 + ^ x25: .cfa -56 + ^ x26: .cfa -64 + ^ .ra: .cfa -72 + ^ x29: .cfa -80 + ^
STACK CFI a5fc .cfa: sp 80 +
STACK CFI a610 .cfa: sp 0 +
STACK CFI a614 .cfa: x29 80 +
STACK CFI INIT a6ec 1a4 .cfa: sp 0 +
STACK CFI a6f0 .cfa: sp 112 +
STACK CFI a708 .cfa: x29 80 + x19: .cfa -8 + ^ x20: .cfa -16 + ^ x21: .cfa -24 + ^ x22: .cfa -32 + ^ x23: .cfa -40 + ^ x24: .cfa -48 + ^ x25: .cfa -56 + ^ x26: .cfa -64 + ^ .ra: .cfa -72 + ^ x29: .cfa -80 + ^
STACK CFI a7f8 .cfa: sp 112 +
STACK CFI a810 .cfa: sp 0 +
STACK CFI a814 .cfa: x29 80 +
STACK CFI INIT a890 1dc .cfa: sp 0 +
STACK CFI a894 .cfa: sp 128 +
STACK CFI a8b0 .cfa: x29 96 + x19: .cfa -8 + ^ x20: .cfa -16 + ^ x21: .cfa -24 + ^ x22: .cfa -32 + ^ x23: .cfa -40 + ^ x24: .cfa -48 + ^ x25: .cfa -56 + ^ x26: .cfa -64 + ^ x27: .cfa -80 + ^ .ra: .cfa -88 + ^ x29: .cfa -96 + ^
STACK CFI aa1c .cfa: sp 128 +
STACK CFI aa38 .cfa: sp 0 +
STACK CFI aa3c .cfa: x29 96 +
STACK CFI INIT aa80 50 .cfa: sp 0 +
STACK CFI aa84 .cfa: sp 32 +
STACK CFI aa8c .cfa: x29 32 + x19: .cfa -8 + ^ x20: .cfa -16 + ^ .ra: .cfa -24 + ^ x29: .cfa -32 + ^
STACK CFI INIT ab34 178 .cfa: sp 0 +
STACK CFI ab38 .cfa: sp 80 +
STACK CFI ab4c .cfa: x29 80 + x19: .cfa -8 + ^ x20: .cfa -16 + ^ x21: .cfa -24 + ^ x22: .cfa -32 + ^ x23: .cfa -40 + ^ x24: .cfa -48 + ^ x25: .cfa -64 + ^ .ra: .cfa -72 + ^ x29: .cfa -80 + ^
STACK CFI ac78 .cfa: sp 80 +
STACK CFI ac8c .cfa: sp 0 +
STACK CFI ac90 .cfa: x29 80 +
STACK CFI INIT af8c 588 .cfa: sp 0 +
STACK CFI af90 .cfa: sp 112 +
STACK CFI afa8 .cfa: x29 80 + x19: .cfa -8 + ^ x20: .cfa -16 + ^ x21: .cfa -24 + ^ x22: .cfa -32 + ^ x23: .cfa -40 + ^ x24: .cfa -48 + ^ x25: .cfa -56 + ^ x26: .cfa -64 + ^ .ra: .cfa -72 + ^ x29: .cfa -80 + ^
STACK CFI b4c4 .cfa: sp 112 +
STACK CFI b4dc .cfa: sp 0 +
STACK CFI b4e0 .cfa: x29 80 +
STACK CFI INIT b514 a8 .cfa: sp 0 +
STACK CFI b518 .cfa: sp 32 +
STACK CFI b520 .cfa: x29 32 + x19: .cfa -16 + ^ .ra: .cfa -24 + ^ x29: .cfa -32 + ^
STACK CFI b554 .cfa: sp 32 +
STACK CFI b55c .cfa: sp 0 +
STACK CFI b560 .cfa: x29 32 +
STACK CFI b564 .cfa: sp 32 +
STACK CFI b56c .cfa: sp 0 +
STACK CFI b570 .cfa: x29 32 +
STACK CFI INIT b6fc 190 .cfa: sp 0 +
STACK CFI b700 .cfa: sp 96 +
STACK CFI b714 .cfa: x29 64 + x19: .cfa -8 + ^ x20: .cfa -16 + ^ x21: .cfa -24 + ^ x22: .cfa -32 + ^ x23: .cfa -48 + ^ .ra: .cfa -56 + ^ x29: .cfa -64 + ^
STACK CFI b80c .cfa: sp 96 +
STACK CFI b820 .cfa: sp 0 +
STACK CFI b824 .cfa: x29 64 +
