MODULE Linux arm64 97A6A41FCD36FAE49A9FC1CD352BCADA0 raydeeux.xeroxedhalloffame.android64.so
INFO CODE_ID 1FA4A69736CDE4FA9A9FC1CD352BCADA153F80F1
INFO GENERATOR mozilla/dump_syms 2.3.4
PUBLIC 5b30 0 __on_dlclose
PUBLIC 5b40 0 __emutls_unregister_key
PUBLIC 5b48 0 __on_dlclose_late
PUBLIC 5b50 0 __atexit_handler_wrapper
PUBLIC 5b64 0 atexit
PUBLIC 5b80 0 pthread_atfork
PUBLIC 5b90 0 unwind_phase2
PUBLIC 5cc4 0 _Unwind_Resume
PUBLIC 5d48 0 unwind_phase2_forced
PUBLIC m 5e3c 0 __unw_init_local
PUBLIC m 5ee4 0 __unw_get_reg
PUBLIC 5f60 0 __unw_step_stage2
PUBLIC m 5f74 0 __unw_get_proc_info
PUBLIC m 5fb4 0 __unw_resume
PUBLIC 5fdc 0 libunwind::CFI_Parser<libunwind::LocalAddressSpace>::decodeFDE(libunwind::LocalAddressSpace&, unsigned long, libunwind::CFI_Parser<libunwind::LocalAddressSpace>::FDE_Info*, libunwind::CFI_Parser<libunwind::LocalAddressSpace>::CIE_Info*, bool)
PUBLIC 616c 0 libunwind::CFI_Parser<libunwind::LocalAddressSpace>::parseCIE(libunwind::LocalAddressSpace&, unsigned long, libunwind::CFI_Parser<libunwind::LocalAddressSpace>::CIE_Info*)
PUBLIC 6434 0 libunwind::AbstractUnwindCursor::~AbstractUnwindCursor()
PUBLIC 643c 0 libunwind::UnwindCursor<libunwind::LocalAddressSpace, libunwind::Registers_arm64>::~UnwindCursor()
PUBLIC 6444 0 libunwind::UnwindCursor<libunwind::LocalAddressSpace, libunwind::Registers_arm64>::validReg(int)
PUBLIC 6488 0 libunwind::UnwindCursor<libunwind::LocalAddressSpace, libunwind::Registers_arm64>::getReg(int)
PUBLIC 6570 0 libunwind::UnwindCursor<libunwind::LocalAddressSpace, libunwind::Registers_arm64>::setReg(int, unsigned long)
PUBLIC 6658 0 libunwind::UnwindCursor<libunwind::LocalAddressSpace, libunwind::Registers_arm64>::validFloatReg(int)
PUBLIC 666c 0 libunwind::UnwindCursor<libunwind::LocalAddressSpace, libunwind::Registers_arm64>::getFloatReg(int)
PUBLIC 667c 0 libunwind::UnwindCursor<libunwind::LocalAddressSpace, libunwind::Registers_arm64>::setFloatReg(int, double)
PUBLIC 668c 0 libunwind::UnwindCursor<libunwind::LocalAddressSpace, libunwind::Registers_arm64>::step(bool)
PUBLIC 677c 0 libunwind::UnwindCursor<libunwind::LocalAddressSpace, libunwind::Registers_arm64>::getInfo(unw_proc_info_t*)
PUBLIC 67c0 0 libunwind::UnwindCursor<libunwind::LocalAddressSpace, libunwind::Registers_arm64>::jumpto()
PUBLIC 67cc 0 libunwind::UnwindCursor<libunwind::LocalAddressSpace, libunwind::Registers_arm64>::isSignalFrame()
PUBLIC 67d8 0 libunwind::UnwindCursor<libunwind::LocalAddressSpace, libunwind::Registers_arm64>::getFunctionName(char*, unsigned long, unsigned long*)
PUBLIC 6804 0 libunwind::UnwindCursor<libunwind::LocalAddressSpace, libunwind::Registers_arm64>::setInfoBasedOnIPRegister(bool)
PUBLIC 6a84 0 libunwind::UnwindCursor<libunwind::LocalAddressSpace, libunwind::Registers_arm64>::getRegisterName(int)
PUBLIC 6a90 0 libunwind::UnwindCursor<libunwind::LocalAddressSpace, libunwind::Registers_arm64>::stepThroughSigReturn(libunwind::Registers_arm64&)
PUBLIC 6bb0 0 libunwind::DwarfInstructions<libunwind::LocalAddressSpace, libunwind::Registers_arm64>::stepWithDwarf(libunwind::LocalAddressSpace&, unsigned long, unsigned long, libunwind::Registers_arm64&, bool&, bool)
PUBLIC 7038 0 libunwind::CFI_Parser<libunwind::LocalAddressSpace>::parseFDEInstructions(libunwind::LocalAddressSpace&, libunwind::CFI_Parser<libunwind::LocalAddressSpace>::FDE_Info const&, libunwind::CFI_Parser<libunwind::LocalAddressSpace>::CIE_Info const&, unsigned long, int, libunwind::CFI_Parser<libunwind::LocalAddressSpace>::PrologInfo*)
PUBLIC 7c80 0 libunwind::DwarfInstructions<libunwind::LocalAddressSpace, libunwind::Registers_arm64>::getCFA(libunwind::LocalAddressSpace&, libunwind::CFI_Parser<libunwind::LocalAddressSpace>::PrologInfo const&, libunwind::Registers_arm64 const&)
PUBLIC 7db4 0 libunwind::DwarfInstructions<libunwind::LocalAddressSpace, libunwind::Registers_arm64>::getSavedRegister(libunwind::LocalAddressSpace&, libunwind::Registers_arm64 const&, unsigned long, libunwind::CFI_Parser<libunwind::LocalAddressSpace>::RegisterLocation const&)
PUBLIC 7fc4 0 libunwind::LocalAddressSpace::getEncodedP(unsigned long&, unsigned long, unsigned char, unsigned long)
PUBLIC 8350 0 libunwind::LocalAddressSpace::getULEB128(unsigned long&, unsigned long)
PUBLIC 8518 0 libunwind::DwarfInstructions<libunwind::LocalAddressSpace, libunwind::Registers_arm64>::evaluateExpression(unsigned long, libunwind::LocalAddressSpace&, libunwind::Registers_arm64 const&, unsigned long)
PUBLIC 8ed4 0 libunwind::UnwindCursor<libunwind::LocalAddressSpace, libunwind::Registers_arm64>::getInfoFromDwarfSection(unsigned long, libunwind::UnwindInfoSections const&, unsigned int)
PUBLIC 91a8 0 libunwind::findUnwindSectionsByPhdr(dl_phdr_info*, unsigned long, void*)
PUBLIC 92dc 0 libunwind::EHHeaderParser<libunwind::LocalAddressSpace>::decodeEHHdr(libunwind::LocalAddressSpace&, unsigned long, unsigned long, libunwind::EHHeaderParser<libunwind::LocalAddressSpace>::EHHeaderInfo&)
PUBLIC 93fc 0 libunwind::CFI_Parser<libunwind::LocalAddressSpace>::findFDE(libunwind::LocalAddressSpace&, unsigned long, unsigned long, unsigned long, unsigned long, libunwind::CFI_Parser<libunwind::LocalAddressSpace>::FDE_Info*, libunwind::CFI_Parser<libunwind::LocalAddressSpace>::CIE_Info*)
PUBLIC 95c4 0 libunwind::EHHeaderParser<libunwind::LocalAddressSpace>::findFDE(libunwind::LocalAddressSpace&, unsigned long, unsigned long, unsigned int, libunwind::CFI_Parser<libunwind::LocalAddressSpace>::FDE_Info*, libunwind::CFI_Parser<libunwind::LocalAddressSpace>::CIE_Info*)
PUBLIC 972c 0 libunwind::EHHeaderParser<libunwind::LocalAddressSpace>::getTableEntrySize(unsigned char)
PUBLIC 9828 0 libunwind::Registers_arm64::getRegisterName(int)
PUBLIC 9858 0 __libunwind_Registers_arm64_jumpto
PUBLIC m 98e8 0 __unw_getcontext
PUBLIC 9990 0 __aarch64_ldadd8_relax
PUBLIC 99c0 0 init_have_lse_atomics
PUBLIC 9a58 0 __init_cpu_features_constructor
PUBLIC 9ff4 0 __init_cpu_features
PUBLIC a080 0 __aarch64_ldadd8_acq_rel
PUBLIC a0b0 0 Utils::getBool(std::__ndk1::basic_string<char, std::__ndk1::char_traits<char>, std::__ndk1::allocator<char> >)
PUBLIC a1a4 0 std::__ndk1::basic_string<char, std::__ndk1::char_traits<char>, std::__ndk1::allocator<char> >::__init_copy_ctor_external(char const*, unsigned long)
PUBLIC a224 0 std::__ndk1::basic_string<char, std::__ndk1::char_traits<char>, std::__ndk1::allocator<char> >::__throw_length_error[abi:ne180000]() const
PUBLIC a238 0 std::__ndk1::__throw_length_error[abi:ne180000](char const*)
PUBLIC a288 0 std::length_error::length_error[abi:ne180000](char const*)
PUBLIC a2b8 0 __clang_call_terminate
PUBLIC a2c8 0 geode::Mod::getSettingValue<bool>(std::__ndk1::basic_string_view<char, std::__ndk1::char_traits<char> >) const
PUBLIC a3fc 0 geode::cast::traverseTypeinfoFor(void*, geode::cast::ClassTypeinfoType const*, char const*)
PUBLIC a500 0 __cxx_global_var_init
PUBLIC a54c 0 geode::modifier::ModifyBase<geode::modifier::ModifyDerive<PageMenu, cocos2d::CCMenu> >::~ModifyBase()
PUBLIC a564 0 __cxx_global_var_init.1
PUBLIC a9e8 0 geode::modifier::ModifyBase<geode::modifier::ModifyDerive<MyLevelSearchLayer, LevelSearchLayer> >::~ModifyBase()
PUBLIC aa00 0 __cxx_global_var_init.2
PUBLIC ae84 0 geode::modifier::ModifyBase<geode::modifier::ModifyDerive<MyMenuLayer, MenuLayer> >::~ModifyBase()
PUBLIC ae9c 0 geode::modifier::ModifyDerive<PageMenu, cocos2d::CCMenu>::apply()
PUBLIC aea0 0 std::__ndk1::shared_ptr<geode::Hook>::~shared_ptr[abi:ne180000]()
PUBLIC aef0 0 geode::impl::ResultData<geode::Hook*, std::__ndk1::basic_string<char, std::__ndk1::char_traits<char>, std::__ndk1::allocator<char> > >::~ResultData()
PUBLIC af64 0 std::__ndk1::vector<std::__ndk1::basic_string<char, std::__ndk1::char_traits<char>, std::__ndk1::allocator<char> >, std::__ndk1::allocator<std::__ndk1::basic_string<char, std::__ndk1::char_traits<char>, std::__ndk1::allocator<char> > > >::~vector[abi:ne180000]()
PUBLIC afe0 0 geode::modifier::ModifyBase<geode::modifier::ModifyDerive<PageMenu, cocos2d::CCMenu> >::apply()
PUBLIC afe4 0 _ZN5geode15UnwrapExceptionC2IRPNS_4HookEQsr4implE18IsStringStreamableIT_EEENS_4impl5OkTagEOS5_
PUBLIC b138 0 std::__ndk1::__throw_bad_variant_access[abi:ne180000]()
PUBLIC b16c 0 std::__ndk1::basic_stringstream<char, std::__ndk1::char_traits<char>, std::__ndk1::allocator<char> >::basic_stringstream[abi:ne180000]()
PUBLIC m b298 0 std::__ndk1::basic_stringstream<char, std::__ndk1::char_traits<char>, std::__ndk1::allocator<char> >::~basic_stringstream()
PUBLIC b318 0 geode::UnwrapException::~UnwrapException()
PUBLIC b33c 0 std::__ndk1::__put_character_sequence[abi:ne180000]<char, std::__ndk1::char_traits<char> >(std::__ndk1::basic_ostream<char, std::__ndk1::char_traits<char> >, std::__ndk1::basic_ostream const*, unsigned long)
PUBLIC b4e0 0 std::__ndk1::__pad_and_output[abi:ne180000]<char, std::__ndk1::char_traits<char> >(std::__ndk1::char_traits<char>, std::__ndk1::ostreambuf_iterator const*, std::__ndk1::ostreambuf_iterator const, std::__ndk1::ostreambuf_iterator const, std::__ndk1::ios_base&, std::__ndk1::ostreambuf_iterator)
PUBLIC b6bc 0 std::__throw_bad_array_new_length([abi:ne180000], void)
PUBLIC b6f0 0 std::__ndk1::basic_stringbuf<char, std::__ndk1::char_traits<char>, std::__ndk1::allocator<char> >::str[abi:ne180000]() &&
PUBLIC b868 0 std::__ndk1::basic_stringbuf<char, std::__ndk1::char_traits<char>, std::__ndk1::allocator<char> >::__init_buf_ptrs[abi:ne180000]()
PUBLIC b9b0 0 std::__ndk1::vector<std::__ndk1::basic_string<char, std::__ndk1::char_traits<char>, std::__ndk1::allocator<char> >, std::__ndk1::allocator<std::__ndk1::basic_string<char, std::__ndk1::char_traits<char>, std::__ndk1::allocator<char> > > >::__push_back_slow_path<std::__ndk1::basic_string<char, std::__ndk1::char_traits<char>, std::__ndk1::allocator<char> > const&>(std::__ndk1::basic_string<char, std::__ndk1::char_traits<char>, std::__ndk1::allocator<char> > const&)
PUBLIC bbd4 0 std::__ndk1::__split_buffer<std::__ndk1::basic_string<char, std::__ndk1::char_traits<char>, std::__ndk1::allocator<char> >, std::__ndk1::allocator<std::__ndk1::basic_string<char, std::__ndk1::char_traits<char>, std::__ndk1::allocator<char> > >&>::~__split_buffer()
PUBLIC bc3c 0 std::__ndk1::vector<std::__ndk1::basic_string<char, std::__ndk1::char_traits<char>, std::__ndk1::allocator<char> >, std::__ndk1::allocator<std::__ndk1::basic_string<char, std::__ndk1::char_traits<char>, std::__ndk1::allocator<char> > > >::__throw_length_error[abi:ne180000]() const
PUBLIC bc50 0 std::__ndk1::__variant_detail::__visitation::__base::__dispatcher<(unsigned long)0>::__dispatch[abi:ne180000]<std::__ndk1::__variant_detail::__dtor<std::__ndk1::__variant_detail::__traits<geode::Hook*, std::__ndk1::basic_string<char, std::__ndk1::char_traits<char>, std::__ndk1::allocator<char> > >, (std::__ndk1::__variant_detail::_Trait)1>::__destroy[abi:ne180000]()::{lambda(auto:1&)#1}, std::__ndk1::__variant_detail::__base<(std::__ndk1::__variant_detail::__traits<geode::Hook*, std::__ndk1::basic_string<char, std::__ndk1::char_traits<char>, std::__ndk1::allocator<char> > >)1, geode::Hook, std::__ndk1::allocator<char> >&>(std::__ndk1::__variant_detail::__dtor<std::__ndk1::__variant_detail::__traits<geode::Hook*, std::__ndk1::basic_string<char, std::__ndk1::char_traits<char>, std::__ndk1::allocator<char> > >, (std::__ndk1::__variant_detail::_Trait)1>, std::__ndk1::__variant_detail::__base<(std::__ndk1::__variant_detail::__traits<geode::Hook*, std::__ndk1::basic_string<char, std::__ndk1::char_traits<char>, std::__ndk1::allocator<char> > >)1, geode::Hook, std::__ndk1::allocator<char> >&)
PUBLIC bc54 0 std::__ndk1::__variant_detail::__visitation::__base::__dispatcher<(unsigned long)1>::__dispatch[abi:ne180000]<std::__ndk1::__variant_detail::__dtor<std::__ndk1::__variant_detail::__traits<geode::Hook*, std::__ndk1::basic_string<char, std::__ndk1::char_traits<char>, std::__ndk1::allocator<char> > >, (std::__ndk1::__variant_detail::_Trait)1>::__destroy[abi:ne180000]()::{lambda(auto:1&)#1}, std::__ndk1::__variant_detail::__base<(std::__ndk1::__variant_detail::__traits<geode::Hook*, std::__ndk1::basic_string<char, std::__ndk1::char_traits<char>, std::__ndk1::allocator<char> > >)1, geode::Hook, std::__ndk1::allocator<char> >&>(std::__ndk1::__variant_detail::__dtor<std::__ndk1::__variant_detail::__traits<geode::Hook*, std::__ndk1::basic_string<char, std::__ndk1::char_traits<char>, std::__ndk1::allocator<char> > >, (std::__ndk1::__variant_detail::_Trait)1>, std::__ndk1::__variant_detail::__base<(std::__ndk1::__variant_detail::__traits<geode::Hook*, std::__ndk1::basic_string<char, std::__ndk1::char_traits<char>, std::__ndk1::allocator<char> > >)1, geode::Hook, std::__ndk1::allocator<char> >&)
PUBLIC bc68 0 std::__ndk1::__tree<std::__ndk1::__value_type<std::__ndk1::basic_string<char, std::__ndk1::char_traits<char>, std::__ndk1::allocator<char> >, std::__ndk1::shared_ptr<geode::Hook> >, std::__ndk1::__map_value_compare<std::__ndk1::basic_string<char, std::__ndk1::char_traits<char>, std::__ndk1::allocator<char> >, std::__ndk1::__value_type<std::__ndk1::basic_string<char, std::__ndk1::char_traits<char>, std::__ndk1::allocator<char> >, std::__ndk1::shared_ptr<geode::Hook> >, std::__ndk1::less<std::__ndk1::basic_string<char, std::__ndk1::char_traits<char>, std::__ndk1::allocator<char> > >, true>, std::__ndk1::allocator<std::__ndk1::__value_type<std::__ndk1::basic_string<char, std::__ndk1::char_traits<char>, std::__ndk1::allocator<char> >, std::__ndk1::shared_ptr<geode::Hook> > > >::find<std::__ndk1::basic_string<char, std::__ndk1::char_traits<char>, std::__ndk1::allocator<char> > >(std::__ndk1::basic_string<char, std::__ndk1::char_traits<char>, std::__ndk1::allocator<char> > const&)
PUBLIC bd88 0 std::__ndk1::__tree<std::__ndk1::__value_type<std::__ndk1::basic_string<char, std::__ndk1::char_traits<char>, std::__ndk1::allocator<char> >, std::__ndk1::shared_ptr<geode::Hook> >, std::__ndk1::__map_value_compare<std::__ndk1::basic_string<char, std::__ndk1::char_traits<char>, std::__ndk1::allocator<char> >, std::__ndk1::__value_type<std::__ndk1::basic_string<char, std::__ndk1::char_traits<char>, std::__ndk1::allocator<char> >, std::__ndk1::shared_ptr<geode::Hook> >, std::__ndk1::less<std::__ndk1::basic_string<char, std::__ndk1::char_traits<char>, std::__ndk1::allocator<char> > >, true>, std::__ndk1::allocator<std::__ndk1::__value_type<std::__ndk1::basic_string<char, std::__ndk1::char_traits<char>, std::__ndk1::allocator<char> >, std::__ndk1::shared_ptr<geode::Hook> > > >::erase(std::__ndk1::__tree_const_iterator<std::__ndk1::__value_type<std::__ndk1::basic_string<char, std::__ndk1::char_traits<char>, std::__ndk1::allocator<char> >, std::__ndk1::shared_ptr<geode::Hook> >, std::__ndk1::__tree_node<std::__ndk1::__value_type<std::__ndk1::basic_string<char, std::__ndk1::char_traits<char>, std::__ndk1::allocator<char> >, std::__ndk1::shared_ptr<geode::Hook> >, void*>*, long>)
PUBLIC c22c 0 std::__ndk1::__tree<std::__ndk1::__value_type<std::__ndk1::basic_string<char, std::__ndk1::char_traits<char>, std::__ndk1::allocator<char> >, std::__ndk1::shared_ptr<geode::Hook> >, std::__ndk1::__map_value_compare<std::__ndk1::basic_string<char, std::__ndk1::char_traits<char>, std::__ndk1::allocator<char> >, std::__ndk1::__value_type<std::__ndk1::basic_string<char, std::__ndk1::char_traits<char>, std::__ndk1::allocator<char> >, std::__ndk1::shared_ptr<geode::Hook> >, std::__ndk1::less<std::__ndk1::basic_string<char, std::__ndk1::char_traits<char>, std::__ndk1::allocator<char> > >, true>, std::__ndk1::allocator<std::__ndk1::__value_type<std::__ndk1::basic_string<char, std::__ndk1::char_traits<char>, std::__ndk1::allocator<char> >, std::__ndk1::shared_ptr<geode::Hook> > > >::destroy(std::__ndk1::__tree_node<std::__ndk1::__value_type<std::__ndk1::basic_string<char, std::__ndk1::char_traits<char>, std::__ndk1::allocator<char> >, std::__ndk1::shared_ptr<geode::Hook> >, void*>*)
PUBLIC c2b0 0 geode::modifier::ModifyDerive<MyLevelSearchLayer, LevelSearchLayer>::apply()
PUBLIC c5fc 0 geode::modifier::ModifyBase<geode::modifier::ModifyDerive<MyLevelSearchLayer, LevelSearchLayer> >::apply()
PUBLIC c600 0 geode::modifier::AsStaticFunction_init<MyLevelSearchLayer, bool (MyLevelSearchLayer::*)(int)>::Impl<bool (MyLevelSearchLayer::*)(int)>::function(MyLevelSearchLayer*, int)
PUBLIC ca38 0 std::__ndk1::shared_ptr<tulip::hook::CallingConvention>::~shared_ptr[abi:ne180000]()
PUBLIC ca88 0 tulip::hook::HandlerMetadata::~HandlerMetadata()
PUBLIC caec 0 MyLevelSearchLayer::onHallOfFame(cocos2d::CCObject*)
PUBLIC cbcc 0 std::__ndk1::__tree<std::__ndk1::__value_type<std::__ndk1::basic_string<char, std::__ndk1::char_traits<char>, std::__ndk1::allocator<char> >, std::__ndk1::shared_ptr<geode::Hook> >, std::__ndk1::__map_value_compare<std::__ndk1::basic_string<char, std::__ndk1::char_traits<char>, std::__ndk1::allocator<char> >, std::__ndk1::__value_type<std::__ndk1::basic_string<char, std::__ndk1::char_traits<char>, std::__ndk1::allocator<char> >, std::__ndk1::shared_ptr<geode::Hook> >, std::__ndk1::less<std::__ndk1::basic_string<char, std::__ndk1::char_traits<char>, std::__ndk1::allocator<char> > >, true>, std::__ndk1::allocator<std::__ndk1::__value_type<std::__ndk1::basic_string<char, std::__ndk1::char_traits<char>, std::__ndk1::allocator<char> >, std::__ndk1::shared_ptr<geode::Hook> > > >::__emplace_unique_key_args<std::__ndk1::basic_string<char, std::__ndk1::char_traits<char>, std::__ndk1::allocator<char> >, std::__ndk1::piecewise_construct_t const&, std::__ndk1::tuple<std::__ndk1::basic_string<char, std::__ndk1::char_traits<char>, std::__ndk1::allocator<char> >&&>, std::__ndk1::tuple<> >(std::__ndk1::basic_string<char, std::__ndk1::char_traits<char>, std::__ndk1::allocator<char> > const&, std::__ndk1::piecewise_construct_t const&, std::__ndk1::tuple<std::__ndk1::basic_string<char, std::__ndk1::char_traits<char>, std::__ndk1::allocator<char> >&&>, std::__ndk1::tuple<>)
PUBLIC cd34 0 std::__ndk1::__tree_balance_after_insert[abi:ne180000]<std::__ndk1::__tree_node_base<void*>*>(std::__ndk1::__tree_node_base<void*>*, std::__ndk1::__tree_node_base<void*>*)
PUBLIC cee4 0 geode::modifier::ModifyDerive<MyMenuLayer, MenuLayer>::apply()
PUBLIC d1d8 0 geode::modifier::ModifyBase<geode::modifier::ModifyDerive<MyMenuLayer, MenuLayer> >::apply()
PUBLIC d1dc 0 geode::modifier::AsStaticFunction_init<MyMenuLayer, bool (MyMenuLayer::*)()>::Impl<bool (MyMenuLayer::*)()>::function(MyMenuLayer*)
PUBLIC d38c 0 geode::addresser::Addresser::addressOfVirtual<bool, MenuLayer, >(bool (MenuLayer::*)())
PUBLIC d434 0 MenuLayer::MenuLayer(geode::ZeroConstructorType)
PUBLIC m d4d0 0 geodeImplicitEntry
PUBLIC d510 0 <.plt ELF section in raydeeux.xeroxedhalloffame.android64.so>
STACK CFI INIT 5b30 10 .cfa: sp 0 +
STACK CFI INIT 5b40 8 .cfa: sp 0 +
STACK CFI INIT 5b48 8 .cfa: sp 0 +
STACK CFI INIT 5b50 14 .cfa: sp 0 +
STACK CFI INIT 5b64 1c .cfa: sp 0 +
STACK CFI INIT 5b80 10 .cfa: sp 0 +
STACK CFI INIT 5b90 134 .cfa: sp 0 +
STACK CFI INIT 5cc4 84 .cfa: sp 0 +
STACK CFI INIT 5d48 f4 .cfa: sp 0 +
STACK CFI INIT 5e3c a8 .cfa: sp 0 +
STACK CFI INIT 5ee4 7c .cfa: sp 0 +
STACK CFI INIT 5f60 14 .cfa: sp 0 +
STACK CFI INIT 5f74 40 .cfa: sp 0 +
STACK CFI INIT 5fb4 28 .cfa: sp 0 +
STACK CFI INIT 5fdc 190 .cfa: sp 0 +
STACK CFI INIT 616c 2c8 .cfa: sp 0 +
STACK CFI INIT 6434 8 .cfa: sp 0 +
STACK CFI INIT 643c 8 .cfa: sp 0 +
STACK CFI INIT 6444 44 .cfa: sp 0 +
STACK CFI INIT 6488 e8 .cfa: sp 0 +
STACK CFI INIT 6570 e8 .cfa: sp 0 +
STACK CFI INIT 6658 14 .cfa: sp 0 +
STACK CFI INIT 666c 10 .cfa: sp 0 +
STACK CFI INIT 667c 10 .cfa: sp 0 +
STACK CFI INIT 668c f0 .cfa: sp 0 +
STACK CFI INIT 677c 44 .cfa: sp 0 +
STACK CFI INIT 67c0 c .cfa: sp 0 +
STACK CFI INIT 67cc c .cfa: sp 0 +
STACK CFI INIT 67d8 2c .cfa: sp 0 +
STACK CFI INIT 6804 280 .cfa: sp 0 +
STACK CFI INIT 6a84 c .cfa: sp 0 +
STACK CFI INIT 6a90 120 .cfa: sp 0 +
STACK CFI INIT 6bb0 488 .cfa: sp 0 +
STACK CFI INIT 7038 c48 .cfa: sp 0 +
STACK CFI INIT 7c80 134 .cfa: sp 0 +
STACK CFI INIT 7db4 210 .cfa: sp 0 +
STACK CFI INIT 7fc4 38c .cfa: sp 0 +
STACK CFI INIT 8350 1c8 .cfa: sp 0 +
STACK CFI INIT 8518 9bc .cfa: sp 0 +
STACK CFI INIT 8ed4 2d4 .cfa: sp 0 +
STACK CFI INIT 91a8 134 .cfa: sp 0 +
STACK CFI INIT 92dc 120 .cfa: sp 0 +
STACK CFI INIT 93fc 1c8 .cfa: sp 0 +
STACK CFI INIT 95c4 168 .cfa: sp 0 +
STACK CFI INIT 972c fc .cfa: sp 0 +
STACK CFI INIT 9828 30 .cfa: sp 0 +
STACK CFI INIT 9990 30 .cfa: sp 0 +
STACK CFI INIT 99c0 98 .cfa: sp 0 +
STACK CFI INIT 9a58 59c .cfa: sp 0 +
STACK CFI INIT 9ff4 8c .cfa: sp 0 +
STACK CFI INIT a080 30 .cfa: sp 0 +
STACK CFI INIT a1a4 80 .cfa: sp 0 +
STACK CFI a1a8 .cfa: sp 48 +
STACK CFI a1b4 .cfa: x29 48 + x19: .cfa -8 + ^ x20: .cfa -16 + ^ x21: .cfa -24 + ^ x22: .cfa -32 + ^ .ra: .cfa -40 + ^ x29: .cfa -48 + ^
STACK CFI a1cc .cfa: sp 48 +
STACK CFI a1d8 .cfa: sp 0 +
STACK CFI a1dc .cfa: x29 48 +
STACK CFI a20c .cfa: sp 48 +
STACK CFI a218 .cfa: sp 0 +
STACK CFI a21c .cfa: x29 48 +
STACK CFI INIT a224 14 .cfa: sp 0 +
STACK CFI a228 .cfa: sp 16 +
STACK CFI a22c .cfa: x29 16 + .ra: .cfa -8 + ^ x29: .cfa -16 + ^
STACK CFI INIT a288 30 .cfa: sp 0 +
STACK CFI a28c .cfa: sp 32 +
STACK CFI a294 .cfa: x29 32 + x19: .cfa -16 + ^ .ra: .cfa -24 + ^ x29: .cfa -32 + ^
STACK CFI a2ac .cfa: sp 32 +
STACK CFI a2b4 .cfa: sp 0 +
STACK CFI INIT a2b8 10 .cfa: sp 0 +
STACK CFI a2bc .cfa: sp 16 +
STACK CFI a2c0 .cfa: x29 16 + .ra: .cfa -8 + ^ x29: .cfa -16 + ^
STACK CFI INIT a3fc 104 .cfa: sp 0 +
STACK CFI a400 .cfa: sp 64 +
STACK CFI a410 .cfa: x29 64 + x19: .cfa -8 + ^ x20: .cfa -16 + ^ x21: .cfa -24 + ^ x22: .cfa -32 + ^ x23: .cfa -48 + ^ .ra: .cfa -56 + ^ x29: .cfa -64 + ^
STACK CFI a46c .cfa: sp 64 +
STACK CFI a47c .cfa: sp 0 +
STACK CFI a480 .cfa: x29 64 +
STACK CFI a49c .cfa: sp 64 +
STACK CFI a4ac .cfa: sp 0 +
STACK CFI a4b0 .cfa: x29 64 +
STACK CFI a4ec .cfa: sp 64 +
STACK CFI a4fc .cfa: sp 0 +
STACK CFI INIT a500 4c .cfa: sp 0 +
STACK CFI INIT a54c 18 .cfa: sp 0 +
STACK CFI INIT a9e8 18 .cfa: sp 0 +
STACK CFI INIT ae84 18 .cfa: sp 0 +
STACK CFI INIT ae9c 4 .cfa: sp 0 +
STACK CFI INIT aea0 50 .cfa: sp 0 +
STACK CFI aea4 .cfa: sp 32 +
STACK CFI aeac .cfa: x29 32 + x19: .cfa -16 + ^ .ra: .cfa -24 + ^ x29: .cfa -32 + ^
STACK CFI aec4 .cfa: sp 32 +
STACK CFI aecc .cfa: sp 0 +
STACK CFI aed0 .cfa: x29 32 +
STACK CFI aee4 .cfa: sp 32 +
STACK CFI aeec .cfa: sp 0 +
STACK CFI INIT af64 7c .cfa: sp 0 +
STACK CFI af68 .cfa: sp 48 +
STACK CFI af74 .cfa: x29 48 + x19: .cfa -8 + ^ x20: .cfa -16 + ^ x21: .cfa -32 + ^ .ra: .cfa -40 + ^ x29: .cfa -48 + ^
STACK CFI afc0 .cfa: sp 48 +
STACK CFI afcc .cfa: sp 0 +
STACK CFI afd0 .cfa: sp 48 +
STACK CFI afdc .cfa: sp 0 +
STACK CFI INIT afe0 4 .cfa: sp 0 +
STACK CFI INIT b138 34 .cfa: sp 0 +
STACK CFI b13c .cfa: sp 16 +
STACK CFI b140 .cfa: x29 16 + .ra: .cfa -8 + ^ x29: .cfa -16 + ^
STACK CFI INIT b298 80 .cfa: sp 0 +
STACK CFI b29c .cfa: sp 48 +
STACK CFI b2a8 .cfa: x29 48 + x19: .cfa -8 + ^ x20: .cfa -16 + ^ x21: .cfa -32 + ^ .ra: .cfa -40 + ^ x29: .cfa -48 + ^
STACK CFI b308 .cfa: sp 48 +
STACK CFI b314 .cfa: sp 0 +
STACK CFI INIT b318 24 .cfa: sp 0 +
STACK CFI b31c .cfa: sp 32 +
STACK CFI b324 .cfa: x29 32 + x19: .cfa -16 + ^ .ra: .cfa -24 + ^ x29: .cfa -32 + ^
STACK CFI b330 .cfa: sp 32 +
STACK CFI b338 .cfa: sp 0 +
STACK CFI INIT b6bc 34 .cfa: sp 0 +
STACK CFI b6c0 .cfa: sp 32 +
STACK CFI b6c8 .cfa: x29 32 + x19: .cfa -16 + ^ .ra: .cfa -24 + ^ x29: .cfa -32 + ^
STACK CFI INIT b868 148 .cfa: sp 0 +
STACK CFI b86c .cfa: sp 48 +
STACK CFI b878 .cfa: x29 48 + x19: .cfa -8 + ^ x20: .cfa -16 + ^ x21: .cfa -32 + ^ .ra: .cfa -40 + ^ x29: .cfa -48 + ^
STACK CFI b9a0 .cfa: sp 48 +
STACK CFI b9ac .cfa: sp 0 +
STACK CFI INIT bbd4 68 .cfa: sp 0 +
STACK CFI bbd8 .cfa: sp 32 +
STACK CFI bbe0 .cfa: x29 32 + x19: .cfa -8 + ^ x20: .cfa -16 + ^ .ra: .cfa -24 + ^ x29: .cfa -32 + ^
STACK CFI bbf8 .cfa: sp 32 +
STACK CFI bc00 .cfa: sp 0 +
STACK CFI bc04 .cfa: x29 32 +
STACK CFI bc30 .cfa: sp 32 +
STACK CFI bc38 .cfa: sp 0 +
STACK CFI INIT bc3c 14 .cfa: sp 0 +
STACK CFI bc40 .cfa: sp 16 +
STACK CFI bc44 .cfa: x29 16 + .ra: .cfa -8 + ^ x29: .cfa -16 + ^
STACK CFI INIT bc50 4 .cfa: sp 0 +
STACK CFI INIT bc54 14 .cfa: sp 0 +
STACK CFI INIT bc68 120 .cfa: sp 0 +
STACK CFI bc6c .cfa: sp 64 +
STACK CFI bc7c .cfa: x29 64 + x19: .cfa -8 + ^ x20: .cfa -16 + ^ x21: .cfa -24 + ^ x22: .cfa -32 + ^ x23: .cfa -40 + ^ x24: .cfa -48 + ^ .ra: .cfa -56 + ^ x29: .cfa -64 + ^
STACK CFI bd74 .cfa: sp 64 +
STACK CFI bd84 .cfa: sp 0 +
STACK CFI INIT bd88 4a4 .cfa: sp 0 +
STACK CFI bd8c .cfa: sp 32 +
STACK CFI bd94 .cfa: x29 32 + x19: .cfa -8 + ^ x20: .cfa -16 + ^ .ra: .cfa -24 + ^ x29: .cfa -32 + ^
STACK CFI c174 .cfa: sp 32 +
STACK CFI c17c .cfa: sp 0 +
STACK CFI c180 .cfa: x29 32 +
STACK CFI INIT c22c 84 .cfa: sp 0 +
STACK CFI c234 .cfa: sp 32 +
STACK CFI c23c .cfa: x29 32 + x19: .cfa -8 + ^ x20: .cfa -16 + ^ .ra: .cfa -24 + ^ x29: .cfa -32 + ^
STACK CFI c27c .cfa: sp 32 +
STACK CFI c284 .cfa: sp 0 +
STACK CFI c28c .cfa: x29 32 +
STACK CFI INIT c5fc 4 .cfa: sp 0 +
STACK CFI INIT ca38 50 .cfa: sp 0 +
STACK CFI ca3c .cfa: sp 32 +
STACK CFI ca44 .cfa: x29 32 + x19: .cfa -16 + ^ .ra: .cfa -24 + ^ x29: .cfa -32 + ^
STACK CFI ca5c .cfa: sp 32 +
STACK CFI ca64 .cfa: sp 0 +
STACK CFI ca68 .cfa: x29 32 +
STACK CFI ca7c .cfa: sp 32 +
STACK CFI ca84 .cfa: sp 0 +
STACK CFI INIT ca88 64 .cfa: sp 0 +
STACK CFI ca8c .cfa: sp 32 +
STACK CFI ca94 .cfa: x29 32 + x19: .cfa -16 + ^ .ra: .cfa -24 + ^ x29: .cfa -32 + ^
STACK CFI cac0 .cfa: sp 32 +
STACK CFI cac8 .cfa: sp 0 +
STACK CFI cacc .cfa: x29 32 +
STACK CFI cae0 .cfa: sp 32 +
STACK CFI cae8 .cfa: sp 0 +
STACK CFI INIT caec e0 .cfa: sp 0 +
STACK CFI caf0 .cfa: sp 80 +
STACK CFI cb00 .cfa: x29 48 + x19: .cfa -8 + ^ x20: .cfa -16 + ^ x21: .cfa -32 + ^ .ra: .cfa -40 + ^ x29: .cfa -48 + ^
STACK CFI cb90 .cfa: sp 80 +
STACK CFI cba0 .cfa: sp 0 +
STACK CFI cba4 .cfa: x29 48 +
STACK CFI cbb4 .cfa: sp 80 +
STACK CFI cbc4 .cfa: sp 0 +
STACK CFI cbc8 .cfa: x29 48 +
STACK CFI INIT cbcc 168 .cfa: sp 0 +
STACK CFI cbd0 .cfa: sp 80 +
STACK CFI cbe4 .cfa: x29 80 + x19: .cfa -8 + ^ x20: .cfa -16 + ^ x21: .cfa -24 + ^ x22: .cfa -32 + ^ x23: .cfa -40 + ^ x24: .cfa -48 + ^ x25: .cfa -56 + ^ x26: .cfa -64 + ^ .ra: .cfa -72 + ^ x29: .cfa -80 + ^
STACK CFI cd1c .cfa: sp 80 +
STACK CFI cd30 .cfa: sp 0 +
STACK CFI INIT cd34 1b0 .cfa: sp 0 +
STACK CFI INIT d1d8 4 .cfa: sp 0 +
STACK CFI INIT d434 9c .cfa: sp 0 +
STACK CFI INIT d4d0 3c .cfa: sp 0 +
STACK CFI d4d4 .cfa: sp 32 +
STACK CFI d4dc .cfa: x29 32 + x19: .cfa -16 + ^ .ra: .cfa -24 + ^ x29: .cfa -32 + ^
STACK CFI d4e8 .cfa: sp 32 +
STACK CFI d4f0 .cfa: sp 0 +
STACK CFI d4f4 .cfa: x29 32 +
STACK CFI d500 .cfa: sp 32 +
STACK CFI d508 .cfa: sp 0 +
STACK CFI INIT a0b0 f4 .cfa: sp 0 +
STACK CFI a0b4 .cfa: sp 64 +
STACK CFI a0c0 .cfa: x29 32 + x19: .cfa -8 + ^ x20: .cfa -16 + ^ .ra: .cfa -24 + ^ x29: .cfa -32 + ^
STACK CFI a164 .cfa: sp 64 +
STACK CFI a170 .cfa: sp 0 +
STACK CFI a174 .cfa: x29 32 +
STACK CFI INIT a238 50 .cfa: sp 0 +
STACK CFI a23c .cfa: sp 32 +
STACK CFI a244 .cfa: x29 32 + x19: .cfa -8 + ^ x20: .cfa -16 + ^ .ra: .cfa -24 + ^ x29: .cfa -32 + ^
STACK CFI INIT a2c8 134 .cfa: sp 0 +
STACK CFI a2cc .cfa: sp 80 +
STACK CFI a2dc .cfa: x29 48 + x19: .cfa -8 + ^ x20: .cfa -16 + ^ x21: .cfa -24 + ^ x22: .cfa -32 + ^ .ra: .cfa -40 + ^ x29: .cfa -48 + ^
STACK CFI a3e0 .cfa: sp 80 +
STACK CFI a3f0 .cfa: sp 0 +
STACK CFI a3f4 .cfa: x29 48 +
STACK CFI INIT a564 484 .cfa: sp 0 +
STACK CFI a568 .cfa: sp 224 +
STACK CFI a584 .cfa: x29 96 + x19: .cfa -8 + ^ x20: .cfa -16 + ^ x21: .cfa -24 + ^ x22: .cfa -32 + ^ x23: .cfa -40 + ^ x24: .cfa -48 + ^ x25: .cfa -56 + ^ x26: .cfa -64 + ^ x27: .cfa -72 + ^ x28: .cfa -80 + ^ .ra: .cfa -88 + ^ x29: .cfa -96 + ^
STACK CFI a7f4 .cfa: sp 224 +
STACK CFI a810 .cfa: sp 0 +
STACK CFI a814 .cfa: x29 96 +
STACK CFI a8e0 .cfa: sp 224 +
STACK CFI a8fc .cfa: sp 0 +
STACK CFI a900 .cfa: x29 96 +
STACK CFI INIT aa00 484 .cfa: sp 0 +
STACK CFI aa04 .cfa: sp 224 +
STACK CFI aa20 .cfa: x29 96 + x19: .cfa -8 + ^ x20: .cfa -16 + ^ x21: .cfa -24 + ^ x22: .cfa -32 + ^ x23: .cfa -40 + ^ x24: .cfa -48 + ^ x25: .cfa -56 + ^ x26: .cfa -64 + ^ x27: .cfa -72 + ^ x28: .cfa -80 + ^ .ra: .cfa -88 + ^ x29: .cfa -96 + ^
STACK CFI ac90 .cfa: sp 224 +
STACK CFI acac .cfa: sp 0 +
STACK CFI acb0 .cfa: x29 96 +
STACK CFI ad7c .cfa: sp 224 +
STACK CFI ad98 .cfa: sp 0 +
STACK CFI ad9c .cfa: x29 96 +
STACK CFI INIT aef0 74 .cfa: sp 0 +
STACK CFI aef4 .cfa: sp 48 +
STACK CFI af00 .cfa: x29 32 + x19: .cfa -8 + ^ x20: .cfa -16 + ^ .ra: .cfa -24 + ^ x29: .cfa -32 + ^
STACK CFI af4c .cfa: sp 48 +
STACK CFI af58 .cfa: sp 0 +
STACK CFI af5c .cfa: x29 32 +
STACK CFI INIT afe4 154 .cfa: sp 0 +
STACK CFI afe8 .cfa: sp 384 +
STACK CFI affc .cfa: x29 64 + x19: .cfa -8 + ^ x20: .cfa -16 + ^ x21: .cfa -24 + ^ x22: .cfa -32 + ^ x23: .cfa -40 + ^ x28: .cfa -48 + ^ .ra: .cfa -56 + ^ x29: .cfa -64 + ^
STACK CFI b0e0 .cfa: sp 384 +
STACK CFI b0f4 .cfa: sp 0 +
STACK CFI b0f8 .cfa: x29 64 +
STACK CFI INIT b16c 12c .cfa: sp 0 +
STACK CFI b170 .cfa: sp 80 +
STACK CFI b184 .cfa: x29 80 + x19: .cfa -8 + ^ x20: .cfa -16 + ^ x21: .cfa -24 + ^ x22: .cfa -32 + ^ x23: .cfa -40 + ^ x24: .cfa -48 + ^ x25: .cfa -56 + ^ x26: .cfa -64 + ^ .ra: .cfa -72 + ^ x29: .cfa -80 + ^
STACK CFI b24c .cfa: sp 80 +
STACK CFI b260 .cfa: sp 0 +
STACK CFI b264 .cfa: x29 80 +
STACK CFI INIT b33c 1a4 .cfa: sp 0 +
STACK CFI b340 .cfa: sp 112 +
STACK CFI b358 .cfa: x29 80 + x19: .cfa -8 + ^ x20: .cfa -16 + ^ x21: .cfa -24 + ^ x22: .cfa -32 + ^ x23: .cfa -40 + ^ x24: .cfa -48 + ^ x25: .cfa -56 + ^ x26: .cfa -64 + ^ .ra: .cfa -72 + ^ x29: .cfa -80 + ^
STACK CFI b448 .cfa: sp 112 +
STACK CFI b460 .cfa: sp 0 +
STACK CFI b464 .cfa: x29 80 +
STACK CFI INIT b4e0 1dc .cfa: sp 0 +
STACK CFI b4e4 .cfa: sp 128 +
STACK CFI b500 .cfa: x29 96 + x19: .cfa -8 + ^ x20: .cfa -16 + ^ x21: .cfa -24 + ^ x22: .cfa -32 + ^ x23: .cfa -40 + ^ x24: .cfa -48 + ^ x25: .cfa -56 + ^ x26: .cfa -64 + ^ x27: .cfa -80 + ^ .ra: .cfa -88 + ^ x29: .cfa -96 + ^
STACK CFI b66c .cfa: sp 128 +
STACK CFI b688 .cfa: sp 0 +
STACK CFI b68c .cfa: x29 96 +
STACK CFI INIT b6f0 178 .cfa: sp 0 +
STACK CFI b6f4 .cfa: sp 80 +
STACK CFI b708 .cfa: x29 80 + x19: .cfa -8 + ^ x20: .cfa -16 + ^ x21: .cfa -24 + ^ x22: .cfa -32 + ^ x23: .cfa -40 + ^ x24: .cfa -48 + ^ x25: .cfa -64 + ^ .ra: .cfa -72 + ^ x29: .cfa -80 + ^
STACK CFI b834 .cfa: sp 80 +
STACK CFI b848 .cfa: sp 0 +
STACK CFI b84c .cfa: x29 80 +
STACK CFI INIT b9b0 224 .cfa: sp 0 +
STACK CFI b9b4 .cfa: sp 128 +
STACK CFI b9cc .cfa: x29 80 + x19: .cfa -8 + ^ x20: .cfa -16 + ^ x21: .cfa -24 + ^ x22: .cfa -32 + ^ x23: .cfa -40 + ^ x24: .cfa -48 + ^ x25: .cfa -64 + ^ .ra: .cfa -72 + ^ x29: .cfa -80 + ^
STACK CFI bb68 .cfa: sp 128 +
STACK CFI bb80 .cfa: sp 0 +
STACK CFI bb84 .cfa: x29 80 +
STACK CFI INIT c2b0 34c .cfa: sp 0 +
STACK CFI c2b4 .cfa: sp 192 +
STACK CFI c2c8 .cfa: x29 64 + x19: .cfa -8 + ^ x20: .cfa -16 + ^ x21: .cfa -24 + ^ x22: .cfa -32 + ^ x23: .cfa -40 + ^ x24: .cfa -48 + ^ .ra: .cfa -56 + ^ x29: .cfa -64 + ^
STACK CFI c4d8 .cfa: sp 192 +
STACK CFI c4ec .cfa: sp 0 +
STACK CFI c4f0 .cfa: x29 64 +
STACK CFI INIT c600 438 .cfa: sp 0 +
STACK CFI c604 .cfa: sp 176 +
STACK CFI c61c .cfa: x29 64 + x19: .cfa -8 + ^ x20: .cfa -16 + ^ x21: .cfa -24 + ^ x22: .cfa -32 + ^ x23: .cfa -40 + ^ x24: .cfa -48 + ^ .ra: .cfa -56 + ^ x29: .cfa -64 + ^ v8: .cfa -80 + ^
STACK CFI c9e0 .cfa: sp 176 +
STACK CFI c9f8 .cfa: sp 0 +
STACK CFI c9fc .cfa: x29 64 +
STACK CFI INIT cee4 2f4 .cfa: sp 0 +
STACK CFI cee8 .cfa: sp 176 +
STACK CFI cefc .cfa: x29 64 + x19: .cfa -8 + ^ x20: .cfa -16 + ^ x21: .cfa -24 + ^ x22: .cfa -32 + ^ x23: .cfa -48 + ^ .ra: .cfa -56 + ^ x29: .cfa -64 + ^
STACK CFI d0d0 .cfa: sp 176 +
STACK CFI d0e4 .cfa: sp 0 +
STACK CFI d0e8 .cfa: x29 64 +
STACK CFI INIT d1dc 1b0 .cfa: sp 0 +
STACK CFI d1e0 .cfa: sp 112 +
STACK CFI d1f0 .cfa: x29 48 + x19: .cfa -8 + ^ x20: .cfa -16 + ^ x21: .cfa -24 + ^ x22: .cfa -32 + ^ .ra: .cfa -40 + ^ x29: .cfa -48 + ^
STACK CFI d348 .cfa: sp 112 +
STACK CFI d358 .cfa: sp 0 +
STACK CFI d35c .cfa: x29 48 +
STACK CFI INIT d38c a8 .cfa: sp 0 +
STACK CFI d390 .cfa: sp 32 +
STACK CFI d398 .cfa: x29 32 + x19: .cfa -16 + ^ .ra: .cfa -24 + ^ x29: .cfa -32 + ^
STACK CFI d3cc .cfa: sp 32 +
STACK CFI d3d4 .cfa: sp 0 +
STACK CFI d3d8 .cfa: x29 32 +
STACK CFI d3dc .cfa: sp 32 +
STACK CFI d3e4 .cfa: sp 0 +
STACK CFI d3e8 .cfa: x29 32 +
