MODULE Linux arm64 41525265F72049D5F2CB19E3523D89E60 cvolton.compact_lists.android64.so
INFO CODE_ID 6552524120F7D549F2CB19E3523D89E6022EDB83
INFO GENERATOR mozilla/dump_syms 2.3.4
PUBLIC 11ab0 0 __on_dlclose
PUBLIC 11ac0 0 __emutls_unregister_key
PUBLIC 11ac8 0 __on_dlclose_late
PUBLIC 11ad0 0 __atexit_handler_wrapper
PUBLIC 11ae4 0 atexit
PUBLIC 11b00 0 pthread_atfork
PUBLIC 11b10 0 unwind_phase2
PUBLIC 11c44 0 _Unwind_Resume
PUBLIC 11cc8 0 unwind_phase2_forced
PUBLIC m 11dbc 0 __unw_init_local
PUBLIC m 11e64 0 __unw_get_reg
PUBLIC 11ee0 0 __unw_step_stage2
PUBLIC m 11ef4 0 __unw_get_proc_info
PUBLIC m 11f34 0 __unw_resume
PUBLIC 11f5c 0 libunwind::CFI_Parser<libunwind::LocalAddressSpace>::decodeFDE(libunwind::LocalAddressSpace&, unsigned long, libunwind::CFI_Parser<libunwind::LocalAddressSpace>::FDE_Info*, libunwind::CFI_Parser<libunwind::LocalAddressSpace>::CIE_Info*, bool)
PUBLIC 120ec 0 libunwind::CFI_Parser<libunwind::LocalAddressSpace>::parseCIE(libunwind::LocalAddressSpace&, unsigned long, libunwind::CFI_Parser<libunwind::LocalAddressSpace>::CIE_Info*)
PUBLIC 123b4 0 libunwind::AbstractUnwindCursor::~AbstractUnwindCursor()
PUBLIC 123bc 0 libunwind::UnwindCursor<libunwind::LocalAddressSpace, libunwind::Registers_arm64>::~UnwindCursor()
PUBLIC 123c4 0 libunwind::UnwindCursor<libunwind::LocalAddressSpace, libunwind::Registers_arm64>::validReg(int)
PUBLIC 12408 0 libunwind::UnwindCursor<libunwind::LocalAddressSpace, libunwind::Registers_arm64>::getReg(int)
PUBLIC 124f0 0 libunwind::UnwindCursor<libunwind::LocalAddressSpace, libunwind::Registers_arm64>::setReg(int, unsigned long)
PUBLIC 125d8 0 libunwind::UnwindCursor<libunwind::LocalAddressSpace, libunwind::Registers_arm64>::validFloatReg(int)
PUBLIC 125ec 0 libunwind::UnwindCursor<libunwind::LocalAddressSpace, libunwind::Registers_arm64>::getFloatReg(int)
PUBLIC 125fc 0 libunwind::UnwindCursor<libunwind::LocalAddressSpace, libunwind::Registers_arm64>::setFloatReg(int, double)
PUBLIC 1260c 0 libunwind::UnwindCursor<libunwind::LocalAddressSpace, libunwind::Registers_arm64>::step(bool)
PUBLIC 126fc 0 libunwind::UnwindCursor<libunwind::LocalAddressSpace, libunwind::Registers_arm64>::getInfo(unw_proc_info_t*)
PUBLIC 12740 0 libunwind::UnwindCursor<libunwind::LocalAddressSpace, libunwind::Registers_arm64>::jumpto()
PUBLIC 1274c 0 libunwind::UnwindCursor<libunwind::LocalAddressSpace, libunwind::Registers_arm64>::isSignalFrame()
PUBLIC 12758 0 libunwind::UnwindCursor<libunwind::LocalAddressSpace, libunwind::Registers_arm64>::getFunctionName(char*, unsigned long, unsigned long*)
PUBLIC 12784 0 libunwind::UnwindCursor<libunwind::LocalAddressSpace, libunwind::Registers_arm64>::setInfoBasedOnIPRegister(bool)
PUBLIC 12a04 0 libunwind::UnwindCursor<libunwind::LocalAddressSpace, libunwind::Registers_arm64>::getRegisterName(int)
PUBLIC 12a10 0 libunwind::UnwindCursor<libunwind::LocalAddressSpace, libunwind::Registers_arm64>::stepThroughSigReturn(libunwind::Registers_arm64&)
PUBLIC 12b30 0 libunwind::DwarfInstructions<libunwind::LocalAddressSpace, libunwind::Registers_arm64>::stepWithDwarf(libunwind::LocalAddressSpace&, unsigned long, unsigned long, libunwind::Registers_arm64&, bool&, bool)
PUBLIC 12fb8 0 libunwind::CFI_Parser<libunwind::LocalAddressSpace>::parseFDEInstructions(libunwind::LocalAddressSpace&, libunwind::CFI_Parser<libunwind::LocalAddressSpace>::FDE_Info const&, libunwind::CFI_Parser<libunwind::LocalAddressSpace>::CIE_Info const&, unsigned long, int, libunwind::CFI_Parser<libunwind::LocalAddressSpace>::PrologInfo*)
PUBLIC 13c00 0 libunwind::DwarfInstructions<libunwind::LocalAddressSpace, libunwind::Registers_arm64>::getCFA(libunwind::LocalAddressSpace&, libunwind::CFI_Parser<libunwind::LocalAddressSpace>::PrologInfo const&, libunwind::Registers_arm64 const&)
PUBLIC 13d34 0 libunwind::DwarfInstructions<libunwind::LocalAddressSpace, libunwind::Registers_arm64>::getSavedRegister(libunwind::LocalAddressSpace&, libunwind::Registers_arm64 const&, unsigned long, libunwind::CFI_Parser<libunwind::LocalAddressSpace>::RegisterLocation const&)
PUBLIC 13f44 0 libunwind::LocalAddressSpace::getEncodedP(unsigned long&, unsigned long, unsigned char, unsigned long)
PUBLIC 142d0 0 libunwind::LocalAddressSpace::getULEB128(unsigned long&, unsigned long)
PUBLIC 14498 0 libunwind::DwarfInstructions<libunwind::LocalAddressSpace, libunwind::Registers_arm64>::evaluateExpression(unsigned long, libunwind::LocalAddressSpace&, libunwind::Registers_arm64 const&, unsigned long)
PUBLIC 14e54 0 libunwind::UnwindCursor<libunwind::LocalAddressSpace, libunwind::Registers_arm64>::getInfoFromDwarfSection(unsigned long, libunwind::UnwindInfoSections const&, unsigned int)
PUBLIC 15128 0 libunwind::findUnwindSectionsByPhdr(dl_phdr_info*, unsigned long, void*)
PUBLIC 1525c 0 libunwind::EHHeaderParser<libunwind::LocalAddressSpace>::decodeEHHdr(libunwind::LocalAddressSpace&, unsigned long, unsigned long, libunwind::EHHeaderParser<libunwind::LocalAddressSpace>::EHHeaderInfo&)
PUBLIC 1537c 0 libunwind::CFI_Parser<libunwind::LocalAddressSpace>::findFDE(libunwind::LocalAddressSpace&, unsigned long, unsigned long, unsigned long, unsigned long, libunwind::CFI_Parser<libunwind::LocalAddressSpace>::FDE_Info*, libunwind::CFI_Parser<libunwind::LocalAddressSpace>::CIE_Info*)
PUBLIC 15544 0 libunwind::EHHeaderParser<libunwind::LocalAddressSpace>::findFDE(libunwind::LocalAddressSpace&, unsigned long, unsigned long, unsigned int, libunwind::CFI_Parser<libunwind::LocalAddressSpace>::FDE_Info*, libunwind::CFI_Parser<libunwind::LocalAddressSpace>::CIE_Info*)
PUBLIC 156ac 0 libunwind::EHHeaderParser<libunwind::LocalAddressSpace>::getTableEntrySize(unsigned char)
PUBLIC 157a8 0 libunwind::Registers_arm64::getRegisterName(int)
PUBLIC 157d8 0 __libunwind_Registers_arm64_jumpto
PUBLIC m 15868 0 __unw_getcontext
PUBLIC 15910 0 __aarch64_ldadd8_relax
PUBLIC 15940 0 init_have_lse_atomics
PUBLIC 159d8 0 __init_cpu_features_constructor
PUBLIC 15f74 0 __init_cpu_features
PUBLIC 16000 0 __aarch64_ldadd8_acq_rel
PUBLIC 16030 0 __cxx_global_var_init
PUBLIC 1648c 0 __cxx_global_var_init.1
PUBLIC 16bec 0 __cxx_global_var_init.3
PUBLIC 17048 0 geode::modifier::ModifyBase<geode::modifier::ModifyDerive<hook20<(anonymous namespace)::hook20Parent>, CustomListView> >::~ModifyBase()
PUBLIC 17060 0 geode::modifier::ModifyBase<geode::modifier::ModifyDerive<hook28<(anonymous namespace)::hook28Parent>, LevelCell> >::~ModifyBase()
PUBLIC 17078 0 __cxx_global_var_init.2
PUBLIC 174fc 0 geode::modifier::ModifyBase<geode::modifier::ModifyDerive<CLLevelBrowserLayer, LevelBrowserLayer> >::~ModifyBase()
PUBLIC 17514 0 geode::modifier::ModifyBase<geode::modifier::ModifyDerive<hook199<(anonymous namespace)::hook199Parent>, LevelListLayer> >::~ModifyBase()
PUBLIC 1752c 0 geode::modifier::ModifyDerive<hook20<(anonymous namespace)::hook20Parent>, CustomListView>::apply()
PUBLIC 17918 0 std::__ndk1::shared_ptr<geode::Hook>::~shared_ptr[abi:ne180000]()
PUBLIC 17968 0 geode::impl::ResultData<geode::Hook*, std::__ndk1::basic_string<char, std::__ndk1::char_traits<char>, std::__ndk1::allocator<char> > >::~ResultData()
PUBLIC 179dc 0 std::__ndk1::vector<std::__ndk1::basic_string<char, std::__ndk1::char_traits<char>, std::__ndk1::allocator<char> >, std::__ndk1::allocator<std::__ndk1::basic_string<char, std::__ndk1::char_traits<char>, std::__ndk1::allocator<char> > > >::~vector[abi:ne180000]()
PUBLIC 17a58 0 geode::modifier::ModifyBase<geode::modifier::ModifyDerive<hook20<(anonymous namespace)::hook20Parent>, CustomListView> >::apply()
PUBLIC 17a5c 0 __clang_call_terminate
PUBLIC 17a6c 0 _ZN5geode15UnwrapExceptionC2IRPNS_4HookEQsr4implE18IsStringStreamableIT_EEENS_4impl5OkTagEOS5_
PUBLIC 17bc0 0 std::__ndk1::__throw_bad_variant_access[abi:ne180000]()
PUBLIC 17bf4 0 std::__ndk1::basic_stringstream<char, std::__ndk1::char_traits<char>, std::__ndk1::allocator<char> >::basic_stringstream[abi:ne180000]()
PUBLIC m 17d20 0 std::__ndk1::basic_stringstream<char, std::__ndk1::char_traits<char>, std::__ndk1::allocator<char> >::~basic_stringstream()
PUBLIC 17da0 0 geode::UnwrapException::~UnwrapException()
PUBLIC 17dc4 0 std::__ndk1::__put_character_sequence[abi:ne180000]<char, std::__ndk1::char_traits<char> >(std::__ndk1::basic_ostream<char, std::__ndk1::char_traits<char> >, std::__ndk1::basic_ostream const*, unsigned long)
PUBLIC 17f68 0 std::__ndk1::__pad_and_output[abi:ne180000]<char, std::__ndk1::char_traits<char> >(std::__ndk1::char_traits<char>, std::__ndk1::ostreambuf_iterator const*, std::__ndk1::ostreambuf_iterator const, std::__ndk1::ostreambuf_iterator const, std::__ndk1::ios_base&, std::__ndk1::ostreambuf_iterator)
PUBLIC 18144 0 std::__ndk1::basic_string<char, std::__ndk1::char_traits<char>, std::__ndk1::allocator<char> >::__throw_length_error[abi:ne180000]() const
PUBLIC 18158 0 std::__ndk1::__throw_length_error[abi:ne180000](char const*)
PUBLIC 181a8 0 std::length_error::length_error[abi:ne180000](char const*)
PUBLIC 181d8 0 std::__throw_bad_array_new_length([abi:ne180000], void)
PUBLIC 1820c 0 std::__ndk1::basic_stringbuf<char, std::__ndk1::char_traits<char>, std::__ndk1::allocator<char> >::str[abi:ne180000]() &&
PUBLIC 18384 0 std::__ndk1::basic_stringbuf<char, std::__ndk1::char_traits<char>, std::__ndk1::allocator<char> >::__init_buf_ptrs[abi:ne180000]()
PUBLIC 184cc 0 std::__ndk1::vector<std::__ndk1::basic_string<char, std::__ndk1::char_traits<char>, std::__ndk1::allocator<char> >, std::__ndk1::allocator<std::__ndk1::basic_string<char, std::__ndk1::char_traits<char>, std::__ndk1::allocator<char> > > >::__push_back_slow_path<std::__ndk1::basic_string<char, std::__ndk1::char_traits<char>, std::__ndk1::allocator<char> > const&>(std::__ndk1::basic_string<char, std::__ndk1::char_traits<char>, std::__ndk1::allocator<char> > const&)
PUBLIC 186f0 0 std::__ndk1::basic_string<char, std::__ndk1::char_traits<char>, std::__ndk1::allocator<char> >::__init_copy_ctor_external(char const*, unsigned long)
PUBLIC 18770 0 std::__ndk1::__split_buffer<std::__ndk1::basic_string<char, std::__ndk1::char_traits<char>, std::__ndk1::allocator<char> >, std::__ndk1::allocator<std::__ndk1::basic_string<char, std::__ndk1::char_traits<char>, std::__ndk1::allocator<char> > >&>::~__split_buffer()
PUBLIC 187d8 0 std::__ndk1::vector<std::__ndk1::basic_string<char, std::__ndk1::char_traits<char>, std::__ndk1::allocator<char> >, std::__ndk1::allocator<std::__ndk1::basic_string<char, std::__ndk1::char_traits<char>, std::__ndk1::allocator<char> > > >::__throw_length_error[abi:ne180000]() const
PUBLIC 187ec 0 std::__ndk1::__variant_detail::__visitation::__base::__dispatcher<(unsigned long)0>::__dispatch[abi:ne180000]<std::__ndk1::__variant_detail::__dtor<std::__ndk1::__variant_detail::__traits<geode::Hook*, std::__ndk1::basic_string<char, std::__ndk1::char_traits<char>, std::__ndk1::allocator<char> > >, (std::__ndk1::__variant_detail::_Trait)1>::__destroy[abi:ne180000]()::{lambda(auto:1&)#1}, std::__ndk1::__variant_detail::__base<(std::__ndk1::__variant_detail::__traits<geode::Hook*, std::__ndk1::basic_string<char, std::__ndk1::char_traits<char>, std::__ndk1::allocator<char> > >)1, geode::Hook, std::__ndk1::allocator<char> >&>(std::__ndk1::__variant_detail::__dtor<std::__ndk1::__variant_detail::__traits<geode::Hook*, std::__ndk1::basic_string<char, std::__ndk1::char_traits<char>, std::__ndk1::allocator<char> > >, (std::__ndk1::__variant_detail::_Trait)1>, std::__ndk1::__variant_detail::__base<(std::__ndk1::__variant_detail::__traits<geode::Hook*, std::__ndk1::basic_string<char, std::__ndk1::char_traits<char>, std::__ndk1::allocator<char> > >)1, geode::Hook, std::__ndk1::allocator<char> >&)
PUBLIC 187f0 0 std::__ndk1::__variant_detail::__visitation::__base::__dispatcher<(unsigned long)1>::__dispatch[abi:ne180000]<std::__ndk1::__variant_detail::__dtor<std::__ndk1::__variant_detail::__traits<geode::Hook*, std::__ndk1::basic_string<char, std::__ndk1::char_traits<char>, std::__ndk1::allocator<char> > >, (std::__ndk1::__variant_detail::_Trait)1>::__destroy[abi:ne180000]()::{lambda(auto:1&)#1}, std::__ndk1::__variant_detail::__base<(std::__ndk1::__variant_detail::__traits<geode::Hook*, std::__ndk1::basic_string<char, std::__ndk1::char_traits<char>, std::__ndk1::allocator<char> > >)1, geode::Hook, std::__ndk1::allocator<char> >&>(std::__ndk1::__variant_detail::__dtor<std::__ndk1::__variant_detail::__traits<geode::Hook*, std::__ndk1::basic_string<char, std::__ndk1::char_traits<char>, std::__ndk1::allocator<char> > >, (std::__ndk1::__variant_detail::_Trait)1>, std::__ndk1::__variant_detail::__base<(std::__ndk1::__variant_detail::__traits<geode::Hook*, std::__ndk1::basic_string<char, std::__ndk1::char_traits<char>, std::__ndk1::allocator<char> > >)1, geode::Hook, std::__ndk1::allocator<char> >&)
PUBLIC 18804 0 std::__ndk1::__tree<std::__ndk1::__value_type<std::__ndk1::basic_string<char, std::__ndk1::char_traits<char>, std::__ndk1::allocator<char> >, std::__ndk1::shared_ptr<geode::Hook> >, std::__ndk1::__map_value_compare<std::__ndk1::basic_string<char, std::__ndk1::char_traits<char>, std::__ndk1::allocator<char> >, std::__ndk1::__value_type<std::__ndk1::basic_string<char, std::__ndk1::char_traits<char>, std::__ndk1::allocator<char> >, std::__ndk1::shared_ptr<geode::Hook> >, std::__ndk1::less<std::__ndk1::basic_string<char, std::__ndk1::char_traits<char>, std::__ndk1::allocator<char> > >, true>, std::__ndk1::allocator<std::__ndk1::__value_type<std::__ndk1::basic_string<char, std::__ndk1::char_traits<char>, std::__ndk1::allocator<char> >, std::__ndk1::shared_ptr<geode::Hook> > > >::find<std::__ndk1::basic_string<char, std::__ndk1::char_traits<char>, std::__ndk1::allocator<char> > >(std::__ndk1::basic_string<char, std::__ndk1::char_traits<char>, std::__ndk1::allocator<char> > const&)
PUBLIC 18924 0 std::__ndk1::__tree<std::__ndk1::__value_type<std::__ndk1::basic_string<char, std::__ndk1::char_traits<char>, std::__ndk1::allocator<char> >, std::__ndk1::shared_ptr<geode::Hook> >, std::__ndk1::__map_value_compare<std::__ndk1::basic_string<char, std::__ndk1::char_traits<char>, std::__ndk1::allocator<char> >, std::__ndk1::__value_type<std::__ndk1::basic_string<char, std::__ndk1::char_traits<char>, std::__ndk1::allocator<char> >, std::__ndk1::shared_ptr<geode::Hook> >, std::__ndk1::less<std::__ndk1::basic_string<char, std::__ndk1::char_traits<char>, std::__ndk1::allocator<char> > >, true>, std::__ndk1::allocator<std::__ndk1::__value_type<std::__ndk1::basic_string<char, std::__ndk1::char_traits<char>, std::__ndk1::allocator<char> >, std::__ndk1::shared_ptr<geode::Hook> > > >::erase(std::__ndk1::__tree_const_iterator<std::__ndk1::__value_type<std::__ndk1::basic_string<char, std::__ndk1::char_traits<char>, std::__ndk1::allocator<char> >, std::__ndk1::shared_ptr<geode::Hook> >, std::__ndk1::__tree_node<std::__ndk1::__value_type<std::__ndk1::basic_string<char, std::__ndk1::char_traits<char>, std::__ndk1::allocator<char> >, std::__ndk1::shared_ptr<geode::Hook> >, void*>*, long>)
PUBLIC 18dc8 0 std::__ndk1::__tree<std::__ndk1::__value_type<std::__ndk1::basic_string<char, std::__ndk1::char_traits<char>, std::__ndk1::allocator<char> >, std::__ndk1::shared_ptr<geode::Hook> >, std::__ndk1::__map_value_compare<std::__ndk1::basic_string<char, std::__ndk1::char_traits<char>, std::__ndk1::allocator<char> >, std::__ndk1::__value_type<std::__ndk1::basic_string<char, std::__ndk1::char_traits<char>, std::__ndk1::allocator<char> >, std::__ndk1::shared_ptr<geode::Hook> >, std::__ndk1::less<std::__ndk1::basic_string<char, std::__ndk1::char_traits<char>, std::__ndk1::allocator<char> > >, true>, std::__ndk1::allocator<std::__ndk1::__value_type<std::__ndk1::basic_string<char, std::__ndk1::char_traits<char>, std::__ndk1::allocator<char> >, std::__ndk1::shared_ptr<geode::Hook> > > >::destroy(std::__ndk1::__tree_node<std::__ndk1::__value_type<std::__ndk1::basic_string<char, std::__ndk1::char_traits<char>, std::__ndk1::allocator<char> >, std::__ndk1::shared_ptr<geode::Hook> >, void*>*)
PUBLIC 18e4c 0 geode::modifier::AsStaticFunction_create<hook20<(anonymous namespace)::hook20Parent>, CustomListView* (*)(cocos2d::CCArray*, TableViewCellDelegate*, float, float, int, BoomListType, float)>::Impl<CustomListView* (*)(cocos2d::CCArray*, TableViewCellDelegate*, float, float, int, BoomListType, float)>::function(cocos2d::CCArray*, TableViewCellDelegate*, float, float, int, BoomListType, float)
PUBLIC 18eec 0 std::__ndk1::shared_ptr<tulip::hook::CallingConvention>::~shared_ptr[abi:ne180000]()
PUBLIC 18f3c 0 tulip::hook::HandlerMetadata::~HandlerMetadata()
PUBLIC 18fa0 0 geode::Mod::getSettingValue<bool>(std::__ndk1::basic_string_view<char, std::__ndk1::char_traits<char> >) const
PUBLIC 190d0 0 std::__ndk1::shared_ptr<geode::BoolSettingV3>::~shared_ptr[abi:ne180000]()
PUBLIC 19120 0 geode::cast::traverseTypeinfoFor(void*, geode::cast::ClassTypeinfoType const*, char const*)
PUBLIC 19218 0 std::__ndk1::__tree<std::__ndk1::__value_type<std::__ndk1::basic_string<char, std::__ndk1::char_traits<char>, std::__ndk1::allocator<char> >, std::__ndk1::shared_ptr<geode::Hook> >, std::__ndk1::__map_value_compare<std::__ndk1::basic_string<char, std::__ndk1::char_traits<char>, std::__ndk1::allocator<char> >, std::__ndk1::__value_type<std::__ndk1::basic_string<char, std::__ndk1::char_traits<char>, std::__ndk1::allocator<char> >, std::__ndk1::shared_ptr<geode::Hook> >, std::__ndk1::less<std::__ndk1::basic_string<char, std::__ndk1::char_traits<char>, std::__ndk1::allocator<char> > >, true>, std::__ndk1::allocator<std::__ndk1::__value_type<std::__ndk1::basic_string<char, std::__ndk1::char_traits<char>, std::__ndk1::allocator<char> >, std::__ndk1::shared_ptr<geode::Hook> > > >::__emplace_unique_key_args<std::__ndk1::basic_string<char, std::__ndk1::char_traits<char>, std::__ndk1::allocator<char> >, std::__ndk1::piecewise_construct_t const&, std::__ndk1::tuple<std::__ndk1::basic_string<char, std::__ndk1::char_traits<char>, std::__ndk1::allocator<char> >&&>, std::__ndk1::tuple<> >(std::__ndk1::basic_string<char, std::__ndk1::char_traits<char>, std::__ndk1::allocator<char> > const&, std::__ndk1::piecewise_construct_t const&, std::__ndk1::tuple<std::__ndk1::basic_string<char, std::__ndk1::char_traits<char>, std::__ndk1::allocator<char> >&&>, std::__ndk1::tuple<>)
PUBLIC 19380 0 std::__ndk1::unique_ptr<std::__ndk1::__tree_node<std::__ndk1::__value_type<std::__ndk1::basic_string<char, std::__ndk1::char_traits<char>, std::__ndk1::allocator<char> >, std::__ndk1::shared_ptr<geode::Hook> >, void*>, std::__ndk1::__tree_node_destructor<std::__ndk1::allocator<std::__ndk1::__tree_node<std::__ndk1::__value_type<std::__ndk1::basic_string<char, std::__ndk1::char_traits<char>, std::__ndk1::allocator<char> >, std::__ndk1::shared_ptr<geode::Hook> >, void*> > > >::~unique_ptr[abi:ne180000]()
PUBLIC 193fc 0 std::__ndk1::__tree_balance_after_insert[abi:ne180000]<std::__ndk1::__tree_node_base<void*>*>(std::__ndk1::__tree_node_base<void*>*, std::__ndk1::__tree_node_base<void*>*)
PUBLIC 195ac 0 geode::modifier::ModifyDerive<hook28<(anonymous namespace)::hook28Parent>, LevelCell>::apply()
PUBLIC 198d8 0 geode::modifier::ModifyBase<geode::modifier::ModifyDerive<hook28<(anonymous namespace)::hook28Parent>, LevelCell> >::apply()
PUBLIC 198dc 0 std::__ndk1::__variant_detail::__visitation::__base::__dispatcher<(unsigned long)0>::__dispatch[abi:ne180000]<std::__ndk1::__variant_detail::__dtor<std::__ndk1::__variant_detail::__traits<std::__ndk1::monostate, std::__ndk1::basic_string<char, std::__ndk1::char_traits<char>, std::__ndk1::allocator<char> > >, (std::__ndk1::__variant_detail::_Trait)1>::__destroy[abi:ne180000]()::{lambda(auto:1&)#1}, std::__ndk1::__variant_detail::__base<(std::__ndk1::__variant_detail::__traits<std::__ndk1::monostate, std::__ndk1::basic_string<char, std::__ndk1::char_traits<char>, std::__ndk1::allocator<char> > >)1, std::__ndk1::__variant_detail::__traits, std::__ndk1::allocator<char> >&>(std::__ndk1::__variant_detail::__dtor<std::__ndk1::__variant_detail::__traits<std::__ndk1::monostate, std::__ndk1::basic_string<char, std::__ndk1::char_traits<char>, std::__ndk1::allocator<char> > >, (std::__ndk1::__variant_detail::_Trait)1>, std::__ndk1::__variant_detail::__base<(std::__ndk1::__variant_detail::__traits<std::__ndk1::monostate, std::__ndk1::basic_string<char, std::__ndk1::char_traits<char>, std::__ndk1::allocator<char> > >)1, std::__ndk1::__variant_detail::__traits, std::__ndk1::allocator<char> >&)
PUBLIC 198e0 0 std::__ndk1::__variant_detail::__visitation::__base::__dispatcher<(unsigned long)1>::__dispatch[abi:ne180000]<std::__ndk1::__variant_detail::__dtor<std::__ndk1::__variant_detail::__traits<std::__ndk1::monostate, std::__ndk1::basic_string<char, std::__ndk1::char_traits<char>, std::__ndk1::allocator<char> > >, (std::__ndk1::__variant_detail::_Trait)1>::__destroy[abi:ne180000]()::{lambda(auto:1&)#1}, std::__ndk1::__variant_detail::__base<(std::__ndk1::__variant_detail::__traits<std::__ndk1::monostate, std::__ndk1::basic_string<char, std::__ndk1::char_traits<char>, std::__ndk1::allocator<char> > >)1, std::__ndk1::__variant_detail::__traits, std::__ndk1::allocator<char> >&>(std::__ndk1::__variant_detail::__dtor<std::__ndk1::__variant_detail::__traits<std::__ndk1::monostate, std::__ndk1::basic_string<char, std::__ndk1::char_traits<char>, std::__ndk1::allocator<char> > >, (std::__ndk1::__variant_detail::_Trait)1>, std::__ndk1::__variant_detail::__base<(std::__ndk1::__variant_detail::__traits<std::__ndk1::monostate, std::__ndk1::basic_string<char, std::__ndk1::char_traits<char>, std::__ndk1::allocator<char> > >)1, std::__ndk1::__variant_detail::__traits, std::__ndk1::allocator<char> >&)
PUBLIC 198f4 0 geode::modifier::AsStaticFunction_loadCustomLevelCell<hook28<(anonymous namespace)::hook28Parent>, void (hook28<(anonymous namespace)::hook28Parent>::*)()>::Impl<void (hook28<(anonymous namespace)::hook28Parent>::*)()>::function(hook28<(anonymous namespace)::hook28Parent>*)
PUBLIC 19c4c 0 geode::cocos::CCArrayExt<cocos2d::CCNode*, cocos2d::CCNode>::~CCArrayExt()
PUBLIC 19c68 0 geode::modifier::ModifyDerive<CLLevelBrowserLayer, LevelBrowserLayer>::apply()
PUBLIC 1a510 0 geode::modifier::ModifyBase<geode::modifier::ModifyDerive<CLLevelBrowserLayer, LevelBrowserLayer> >::apply()
PUBLIC 1a514 0 geode::modifier::AsStaticFunction_onEnter<CLLevelBrowserLayer, void (CLLevelBrowserLayer::*)()>::Impl<void (CLLevelBrowserLayer::*)()>::function(CLLevelBrowserLayer*)
PUBLIC 1a5dc 0 geode::modifier::AsStaticFunction_init<CLLevelBrowserLayer, bool (CLLevelBrowserLayer::*)(GJSearchObject*)>::Impl<bool (CLLevelBrowserLayer::*)(GJSearchObject*)>::function(CLLevelBrowserLayer*, GJSearchObject*)
PUBLIC 1a854 0 geode::modifier::AsStaticFunction_setupLevelBrowser<CLLevelBrowserLayer, void (CLLevelBrowserLayer::*)(cocos2d::CCArray*)>::Impl<void (CLLevelBrowserLayer::*)(cocos2d::CCArray*)>::function(CLLevelBrowserLayer*, cocos2d::CCArray*)
PUBLIC 1a91c 0 geode::addresser::Addresser::addressOfVirtual<void, LevelBrowserLayer, >(void (LevelBrowserLayer::*)())
PUBLIC 1a9c4 0 LevelBrowserLayer::LevelBrowserLayer(geode::ZeroConstructorType)
PUBLIC 1aa74 0 geode::modifier::FieldIntermediate<CLLevelBrowserLayer, LevelBrowserLayer>::self()
PUBLIC 1b0b0 0 geode::modifier::FieldIntermediate<CLLevelBrowserLayer, LevelBrowserLayer>::fieldDestructor(void*)
PUBLIC 1b0d0 0 std::__ndk1::vector<void*, std::__ndk1::allocator<void*> >::__throw_length_error[abi:ne180000]() const
PUBLIC 1b0e4 0 std::__ndk1::vector<std::__ndk1::function<void (void*)>, std::__ndk1::allocator<std::__ndk1::function<void (void*)> > >::__throw_length_error[abi:ne180000]() const
PUBLIC 1b0f8 0 std::__ndk1::vector<void*, std::__ndk1::allocator<void*> >::__throw_out_of_range[abi:ne180000]() const
PUBLIC 1b104 0 std::__ndk1::__throw_out_of_range[abi:ne180000](char const*)
PUBLIC 1b154 0 std::out_of_range::out_of_range[abi:ne180000](char const*)
PUBLIC 1b184 0 std::__ndk1::vector<std::__ndk1::function<void (void*)>, std::__ndk1::allocator<std::__ndk1::function<void (void*)> > >::__throw_out_of_range[abi:ne180000]() const
PUBLIC 1b190 0 std::__ndk1::__function::__base<void (void*)>::~__base()
PUBLIC 1b194 0 std::__ndk1::__function::__func<void (*)(void*), std::__ndk1::allocator<void (*)(void*)>, void (void*)>::~__func()
PUBLIC 1b198 0 std::__ndk1::__function::__func<void (*)(void*), std::__ndk1::allocator<void (*)(void*)>, void (void*)>::__clone() const
PUBLIC 1b1d0 0 std::__ndk1::__function::__func<void (*)(void*), std::__ndk1::allocator<void (*)(void*)>, void (void*)>::__clone(std::__ndk1::__function::__base<void (void*)>*) const
PUBLIC 1b1e8 0 std::__ndk1::__function::__func<void (*)(void*), std::__ndk1::allocator<void (*)(void*)>, void (void*)>::destroy()
PUBLIC 1b1ec 0 std::__ndk1::__function::__func<void (*)(void*), std::__ndk1::allocator<void (*)(void*)>, void (void*)>::destroy_deallocate()
PUBLIC 1b1f0 0 std::__ndk1::__function::__func<void (*)(void*), std::__ndk1::allocator<void (*)(void*)>, void (void*)>::operator()(void*&&)
PUBLIC 1b200 0 std::__ndk1::__function::__func<void (*)(void*), std::__ndk1::allocator<void (*)(void*)>, void (void*)>::target(std::type_info const&) const
PUBLIC 1b21c 0 std::__ndk1::__function::__func<void (*)(void*), std::__ndk1::allocator<void (*)(void*)>, void (void*)>::target_type() const
PUBLIC 1b228 0 CLLevelBrowserLayer::onCompactListToggle(cocos2d::CCObject*)
PUBLIC 1b430 0 geode::modifier::ModifyDerive<hook199<(anonymous namespace)::hook199Parent>, LevelListLayer>::apply()
PUBLIC 1b774 0 geode::modifier::ModifyBase<geode::modifier::ModifyDerive<hook199<(anonymous namespace)::hook199Parent>, LevelListLayer> >::apply()
PUBLIC 1b778 0 geode::modifier::AsStaticFunction_onBack<hook199<(anonymous namespace)::hook199Parent>, void (hook199<(anonymous namespace)::hook199Parent>::*)(cocos2d::CCObject*)>::Impl<void (hook199<(anonymous namespace)::hook199Parent>::*)(cocos2d::CCObject*)>::function(hook199<(anonymous namespace)::hook199Parent>*, cocos2d::CCObject*)
PUBLIC 1b854 0 geode::addresser::Addresser::addressOfVirtual<void, LevelListLayer, cocos2d::CCObject*>(void (LevelListLayer::*)(cocos2d::CCObject*))
PUBLIC 1b91c 0 LevelListLayer::LevelListLayer(geode::ZeroConstructorType)
PUBLIC 1ba38 0 geode::cocos::CCArrayExt<GJGameLevel*, GJGameLevel>::~CCArrayExt()
PUBLIC m 1ba54 0 geodeImplicitEntry
PUBLIC 1ba90 0 std::__ndk1::unordered_map<void*, bool, std::__ndk1::hash<void*>, std::__ndk1::equal_to<void*>, std::__ndk1::allocator<std::__ndk1::pair<void* const, bool> > >::~unordered_map[abi:ne180000]()
PUBLIC 1badc 0 wrapFunction(unsigned long, tulip::hook::WrapperMetadata const&)
PUBLIC 1bc10 0 geode::impl::ResultData<void*, std::__ndk1::basic_string<char, std::__ndk1::char_traits<char>, std::__ndk1::allocator<char> > >::unwrapErr() &
PUBLIC 1bc88 0 geode::impl::ResultData<void*, std::__ndk1::basic_string<char, std::__ndk1::char_traits<char>, std::__ndk1::allocator<char> > >::~ResultData()
PUBLIC 1bcfc 0 tulip::hook::WrapperMetadata::~WrapperMetadata()
PUBLIC 1bd60 0 cocos2d::CCObject::~CCObject()
PUBLIC 1bd84 0 cocos2d::CCNode::~CCNode()
PUBLIC 1bda8 0 {virtual override thunk({offset(-320)}, cocos2d::CCLayer::~CCLayer())}
PUBLIC 1bdb0 0 cocos2d::CCLayer::~CCLayer()
PUBLIC 1bdd4 0 {virtual override thunk({offset(-320)}, cocos2d::CCLayer::~CCLayer())}
PUBLIC 1bdfc 0 cocos2d::CCLayerRGBA::~CCLayerRGBA()
PUBLIC 1c0d4 0 {virtual override thunk({offset(-320)}, cocos2d::CCLayerRGBA::~CCLayerRGBA())}
PUBLIC 1c0dc 0 cocos2d::CCLayerRGBA::~CCLayerRGBA()
PUBLIC 1c100 0 {virtual override thunk({offset(-320)}, cocos2d::CCLayerRGBA::~CCLayerRGBA())}
PUBLIC 1c128 0 {virtual override thunk({offset(-320)}, cocos2d::CCLayerColor::~CCLayerColor())}
PUBLIC 1c130 0 cocos2d::CCLayerColor::~CCLayerColor()
PUBLIC 1c154 0 {virtual override thunk({offset(-320)}, cocos2d::CCLayerColor::~CCLayerColor())}
PUBLIC 1c17c 0 LevelManagerDelegate::loadLevelsFinished(cocos2d::CCArray*, char const*)
PUBLIC 1c180 0 LevelManagerDelegate::loadLevelsFailed(char const*)
PUBLIC 1c184 0 LevelBrowserLayer::~LevelBrowserLayer()
PUBLIC 1c4a0 0 {virtual override thunk({offset(-320)}, LevelBrowserLayer::~LevelBrowserLayer())}
PUBLIC 1c4a8 0 LevelBrowserLayer::~LevelBrowserLayer()
PUBLIC 1c4cc 0 {virtual override thunk({offset(-320)}, LevelBrowserLayer::~LevelBrowserLayer())}
PUBLIC 1c4f4 0 LevelBrowserLayer::ccTouchBegan(cocos2d::CCTouch*, cocos2d::CCEvent*)
PUBLIC 1c4fc 0 {virtual override thunk({offset(-320)}, LevelBrowserLayer::ccTouchBegan(cocos2d::CCTouch*, cocos2d::CCEvent*))}
PUBLIC 1c504 0 LevelBrowserLayer::ccTouchMoved(cocos2d::CCTouch*, cocos2d::CCEvent*)
PUBLIC 1c508 0 {virtual override thunk({offset(-320)}, LevelBrowserLayer::ccTouchMoved(cocos2d::CCTouch*, cocos2d::CCEvent*))}
PUBLIC 1c50c 0 LevelBrowserLayer::ccTouchEnded(cocos2d::CCTouch*, cocos2d::CCEvent*)
PUBLIC 1c510 0 {virtual override thunk({offset(-320)}, LevelBrowserLayer::ccTouchEnded(cocos2d::CCTouch*, cocos2d::CCEvent*))}
PUBLIC 1c514 0 LevelBrowserLayer::ccTouchCancelled(cocos2d::CCTouch*, cocos2d::CCEvent*)
PUBLIC 1c518 0 {virtual override thunk({offset(-320)}, LevelBrowserLayer::ccTouchCancelled(cocos2d::CCTouch*, cocos2d::CCEvent*))}
PUBLIC 1c51c 0 LevelBrowserLayer::setupPageInfo(gd::string, char const*)
PUBLIC 1c690 0 tulip::hook::AbstractFunction::from<void, LevelBrowserLayer*, gd::string, char const*>(void (*)(LevelBrowserLayer*, gd::string, char const*))
PUBLIC 1c79c 0 {virtual override thunk({offset(-544)}, LevelBrowserLayer::setupPageInfo(gd::string, char const*))}
PUBLIC 1c7a4 0 LevelBrowserLayer::shareCommentClosed(gd::string, ShareCommentLayer*)
PUBLIC 1c918 0 tulip::hook::AbstractFunction::from<void, LevelBrowserLayer*, gd::string, ShareCommentLayer*>(void (*)(LevelBrowserLayer*, gd::string, ShareCommentLayer*))
PUBLIC 1ca24 0 {virtual override thunk({offset(-584)}, LevelBrowserLayer::shareCommentClosed(gd::string, ShareCommentLayer*))}
PUBLIC 1ca2c 0 LevelBrowserLayer::setTextPopupClosed(SetTextPopup*, gd::string)
PUBLIC 1cba0 0 tulip::hook::AbstractFunction::from<void, LevelBrowserLayer*, SetTextPopup*, gd::string>(void (*)(LevelBrowserLayer*, SetTextPopup*, gd::string))
PUBLIC 1ccac 0 {virtual override thunk({offset(-568)}, LevelBrowserLayer::setTextPopupClosed(SetTextPopup*, gd::string))}
PUBLIC 1ccb4 0 cocos2d::CCCopying::copyWithZone(cocos2d::CCZone*)
PUBLIC 1ccbc 0 cocos2d::CCObject::update(float)
PUBLIC 1ccc0 0 cocos2d::CCKeyboardDelegate::keyUp(cocos2d::enumKeyCodes)
PUBLIC 1ccc4 0 cocos2d::CCMouseDelegate::rightKeyDown()
PUBLIC 1ccc8 0 cocos2d::CCMouseDelegate::rightKeyUp()
PUBLIC 1cccc 0 cocos2d::CCMouseDelegate::scrollWheel(float, float)
PUBLIC 1ccd0 0 cocos2d::CCLayerRGBA::setOpacityModifyRGB(bool)
PUBLIC 1ccd4 0 cocos2d::CCLayerRGBA::isOpacityModifyRGB()
PUBLIC 1ccdc 0 {virtual override thunk({offset(-408)}, cocos2d::CCLayerRGBA::setOpacityModifyRGB(bool))}
PUBLIC 1cce0 0 {virtual override thunk({offset(-408)}, cocos2d::CCLayerRGBA::isOpacityModifyRGB())}
PUBLIC 1cce8 0 cocos2d::CCLayerColor::~CCLayerColor()
PUBLIC 1cfa4 0 cocos2d::CCNode::~CCNode()
PUBLIC 1d21c 0 cocos2d::CCLayer::~CCLayer()
PUBLIC 1d4e4 0 cocos2d::CCObject::~CCObject()
PUBLIC 1d9b0 0 _ZN5geode15UnwrapExceptionC2IRPvQsr4implE18IsStringStreamableIT_EEENS_4impl5OkTagEOS4_
PUBLIC 1db04 0 _ZN5geode15UnwrapExceptionC2IRNSt6__ndk112basic_stringIcNS2_11char_traitsIcEENS2_9allocatorIcEEEEQsr4implE18IsStringStreamableIT_EEENS_4impl6ErrTagEOSA_
PUBLIC 1dc6c 0 std::__ndk1::__variant_detail::__visitation::__base::__dispatcher<(unsigned long)0>::__dispatch[abi:ne180000]<std::__ndk1::__variant_detail::__dtor<std::__ndk1::__variant_detail::__traits<void*, std::__ndk1::basic_string<char, std::__ndk1::char_traits<char>, std::__ndk1::allocator<char> > >, (std::__ndk1::__variant_detail::_Trait)1>::__destroy[abi:ne180000]()::{lambda(auto:1&)#1}, std::__ndk1::__variant_detail::__base<(std::__ndk1::__variant_detail::__traits<void*, std::__ndk1::basic_string<char, std::__ndk1::char_traits<char>, std::__ndk1::allocator<char> > >)1, std::__ndk1::__variant_detail::__traits, std::__ndk1::allocator<char> >&>(std::__ndk1::__variant_detail::__dtor<std::__ndk1::__variant_detail::__traits<void*, std::__ndk1::basic_string<char, std::__ndk1::char_traits<char>, std::__ndk1::allocator<char> > >, (std::__ndk1::__variant_detail::_Trait)1>, std::__ndk1::__variant_detail::__base<(std::__ndk1::__variant_detail::__traits<void*, std::__ndk1::basic_string<char, std::__ndk1::char_traits<char>, std::__ndk1::allocator<char> > >)1, std::__ndk1::__variant_detail::__traits, std::__ndk1::allocator<char> >&)
PUBLIC 1dc70 0 std::__ndk1::__variant_detail::__visitation::__base::__dispatcher<(unsigned long)1>::__dispatch[abi:ne180000]<std::__ndk1::__variant_detail::__dtor<std::__ndk1::__variant_detail::__traits<void*, std::__ndk1::basic_string<char, std::__ndk1::char_traits<char>, std::__ndk1::allocator<char> > >, (std::__ndk1::__variant_detail::_Trait)1>::__destroy[abi:ne180000]()::{lambda(auto:1&)#1}, std::__ndk1::__variant_detail::__base<(std::__ndk1::__variant_detail::__traits<void*, std::__ndk1::basic_string<char, std::__ndk1::char_traits<char>, std::__ndk1::allocator<char> > >)1, std::__ndk1::__variant_detail::__traits, std::__ndk1::allocator<char> >&>(std::__ndk1::__variant_detail::__dtor<std::__ndk1::__variant_detail::__traits<void*, std::__ndk1::basic_string<char, std::__ndk1::char_traits<char>, std::__ndk1::allocator<char> > >, (std::__ndk1::__variant_detail::_Trait)1>, std::__ndk1::__variant_detail::__base<(std::__ndk1::__variant_detail::__traits<void*, std::__ndk1::basic_string<char, std::__ndk1::char_traits<char>, std::__ndk1::allocator<char> > >)1, std::__ndk1::__variant_detail::__traits, std::__ndk1::allocator<char> >&)
PUBLIC 1dc84 0 std::__ndk1::__hash_table<std::__ndk1::__hash_value_type<void*, bool>, std::__ndk1::__unordered_map_hasher<void*, std::__ndk1::__hash_value_type<void*, bool>, std::__ndk1::hash<void*>, std::__ndk1::equal_to<void*>, true>, std::__ndk1::__unordered_map_equal<void*, std::__ndk1::__hash_value_type<void*, bool>, std::__ndk1::equal_to<void*>, std::__ndk1::hash<void*>, true>, std::__ndk1::allocator<std::__ndk1::__hash_value_type<void*, bool> > >::__emplace_unique_key_args<void*, std::__ndk1::piecewise_construct_t const&, std::__ndk1::tuple<void* const&>, std::__ndk1::tuple<> >(void* const&, std::__ndk1::piecewise_construct_t const&, std::__ndk1::tuple<void* const&>, std::__ndk1::tuple<>)
PUBLIC 1e170 0 <.plt ELF section in cvolton.compact_lists.android64.so>
STACK CFI INIT 11ab0 10 .cfa: sp 0 +
STACK CFI INIT 11ac0 8 .cfa: sp 0 +
STACK CFI INIT 11ac8 8 .cfa: sp 0 +
STACK CFI INIT 11ad0 14 .cfa: sp 0 +
STACK CFI INIT 11ae4 1c .cfa: sp 0 +
STACK CFI INIT 11b00 10 .cfa: sp 0 +
STACK CFI INIT 11b10 134 .cfa: sp 0 +
STACK CFI INIT 11c44 84 .cfa: sp 0 +
STACK CFI INIT 11cc8 f4 .cfa: sp 0 +
STACK CFI INIT 11dbc a8 .cfa: sp 0 +
STACK CFI INIT 11e64 7c .cfa: sp 0 +
STACK CFI INIT 11ee0 14 .cfa: sp 0 +
STACK CFI INIT 11ef4 40 .cfa: sp 0 +
STACK CFI INIT 11f34 28 .cfa: sp 0 +
STACK CFI INIT 11f5c 190 .cfa: sp 0 +
STACK CFI INIT 120ec 2c8 .cfa: sp 0 +
STACK CFI INIT 123b4 8 .cfa: sp 0 +
STACK CFI INIT 123bc 8 .cfa: sp 0 +
STACK CFI INIT 123c4 44 .cfa: sp 0 +
STACK CFI INIT 12408 e8 .cfa: sp 0 +
STACK CFI INIT 124f0 e8 .cfa: sp 0 +
STACK CFI INIT 125d8 14 .cfa: sp 0 +
STACK CFI INIT 125ec 10 .cfa: sp 0 +
STACK CFI INIT 125fc 10 .cfa: sp 0 +
STACK CFI INIT 1260c f0 .cfa: sp 0 +
STACK CFI INIT 126fc 44 .cfa: sp 0 +
STACK CFI INIT 12740 c .cfa: sp 0 +
STACK CFI INIT 1274c c .cfa: sp 0 +
STACK CFI INIT 12758 2c .cfa: sp 0 +
STACK CFI INIT 12784 280 .cfa: sp 0 +
STACK CFI INIT 12a04 c .cfa: sp 0 +
STACK CFI INIT 12a10 120 .cfa: sp 0 +
STACK CFI INIT 12b30 488 .cfa: sp 0 +
STACK CFI INIT 12fb8 c48 .cfa: sp 0 +
STACK CFI INIT 13c00 134 .cfa: sp 0 +
STACK CFI INIT 13d34 210 .cfa: sp 0 +
STACK CFI INIT 13f44 38c .cfa: sp 0 +
STACK CFI INIT 142d0 1c8 .cfa: sp 0 +
STACK CFI INIT 14498 9bc .cfa: sp 0 +
STACK CFI INIT 14e54 2d4 .cfa: sp 0 +
STACK CFI INIT 15128 134 .cfa: sp 0 +
STACK CFI INIT 1525c 120 .cfa: sp 0 +
STACK CFI INIT 1537c 1c8 .cfa: sp 0 +
STACK CFI INIT 15544 168 .cfa: sp 0 +
STACK CFI INIT 156ac fc .cfa: sp 0 +
STACK CFI INIT 157a8 30 .cfa: sp 0 +
STACK CFI INIT 15910 30 .cfa: sp 0 +
STACK CFI INIT 15940 98 .cfa: sp 0 +
STACK CFI INIT 159d8 59c .cfa: sp 0 +
STACK CFI INIT 15f74 8c .cfa: sp 0 +
STACK CFI INIT 16000 30 .cfa: sp 0 +
STACK CFI INIT 17048 18 .cfa: sp 0 +
STACK CFI INIT 17060 18 .cfa: sp 0 +
STACK CFI INIT 174fc 18 .cfa: sp 0 +
STACK CFI INIT 17514 18 .cfa: sp 0 +
STACK CFI INIT 17918 50 .cfa: sp 0 +
STACK CFI 1791c .cfa: sp 32 +
STACK CFI 17924 .cfa: x29 32 + x19: .cfa -16 + ^ .ra: .cfa -24 + ^ x29: .cfa -32 + ^
STACK CFI 1793c .cfa: sp 32 +
STACK CFI 17944 .cfa: sp 0 +
STACK CFI 17948 .cfa: x29 32 +
STACK CFI 1795c .cfa: sp 32 +
STACK CFI 17964 .cfa: sp 0 +
STACK CFI INIT 179dc 7c .cfa: sp 0 +
STACK CFI 179e0 .cfa: sp 48 +
STACK CFI 179ec .cfa: x29 48 + x19: .cfa -8 + ^ x20: .cfa -16 + ^ x21: .cfa -32 + ^ .ra: .cfa -40 + ^ x29: .cfa -48 + ^
STACK CFI 17a38 .cfa: sp 48 +
STACK CFI 17a44 .cfa: sp 0 +
STACK CFI 17a48 .cfa: sp 48 +
STACK CFI 17a54 .cfa: sp 0 +
STACK CFI INIT 17a58 4 .cfa: sp 0 +
STACK CFI INIT 17a5c 10 .cfa: sp 0 +
STACK CFI 17a60 .cfa: sp 16 +
STACK CFI 17a64 .cfa: x29 16 + .ra: .cfa -8 + ^ x29: .cfa -16 + ^
STACK CFI INIT 17bc0 34 .cfa: sp 0 +
STACK CFI 17bc4 .cfa: sp 16 +
STACK CFI 17bc8 .cfa: x29 16 + .ra: .cfa -8 + ^ x29: .cfa -16 + ^
STACK CFI INIT 17d20 80 .cfa: sp 0 +
STACK CFI 17d24 .cfa: sp 48 +
STACK CFI 17d30 .cfa: x29 48 + x19: .cfa -8 + ^ x20: .cfa -16 + ^ x21: .cfa -32 + ^ .ra: .cfa -40 + ^ x29: .cfa -48 + ^
STACK CFI 17d90 .cfa: sp 48 +
STACK CFI 17d9c .cfa: sp 0 +
STACK CFI INIT 17da0 24 .cfa: sp 0 +
STACK CFI 17da4 .cfa: sp 32 +
STACK CFI 17dac .cfa: x29 32 + x19: .cfa -16 + ^ .ra: .cfa -24 + ^ x29: .cfa -32 + ^
STACK CFI 17db8 .cfa: sp 32 +
STACK CFI 17dc0 .cfa: sp 0 +
STACK CFI INIT 18144 14 .cfa: sp 0 +
STACK CFI 18148 .cfa: sp 16 +
STACK CFI 1814c .cfa: x29 16 + .ra: .cfa -8 + ^ x29: .cfa -16 + ^
STACK CFI INIT 181a8 30 .cfa: sp 0 +
STACK CFI 181ac .cfa: sp 32 +
STACK CFI 181b4 .cfa: x29 32 + x19: .cfa -16 + ^ .ra: .cfa -24 + ^ x29: .cfa -32 + ^
STACK CFI 181cc .cfa: sp 32 +
STACK CFI 181d4 .cfa: sp 0 +
STACK CFI INIT 181d8 34 .cfa: sp 0 +
STACK CFI 181dc .cfa: sp 32 +
STACK CFI 181e4 .cfa: x29 32 + x19: .cfa -16 + ^ .ra: .cfa -24 + ^ x29: .cfa -32 + ^
STACK CFI INIT 18384 148 .cfa: sp 0 +
STACK CFI 18388 .cfa: sp 48 +
STACK CFI 18394 .cfa: x29 48 + x19: .cfa -8 + ^ x20: .cfa -16 + ^ x21: .cfa -32 + ^ .ra: .cfa -40 + ^ x29: .cfa -48 + ^
STACK CFI 184bc .cfa: sp 48 +
STACK CFI 184c8 .cfa: sp 0 +
STACK CFI INIT 186f0 80 .cfa: sp 0 +
STACK CFI 186f4 .cfa: sp 48 +
STACK CFI 18700 .cfa: x29 48 + x19: .cfa -8 + ^ x20: .cfa -16 + ^ x21: .cfa -24 + ^ x22: .cfa -32 + ^ .ra: .cfa -40 + ^ x29: .cfa -48 + ^
STACK CFI 18718 .cfa: sp 48 +
STACK CFI 18724 .cfa: sp 0 +
STACK CFI 18728 .cfa: x29 48 +
STACK CFI 18758 .cfa: sp 48 +
STACK CFI 18764 .cfa: sp 0 +
STACK CFI 18768 .cfa: x29 48 +
STACK CFI INIT 18770 68 .cfa: sp 0 +
STACK CFI 18774 .cfa: sp 32 +
STACK CFI 1877c .cfa: x29 32 + x19: .cfa -8 + ^ x20: .cfa -16 + ^ .ra: .cfa -24 + ^ x29: .cfa -32 + ^
STACK CFI 18794 .cfa: sp 32 +
STACK CFI 1879c .cfa: sp 0 +
STACK CFI 187a0 .cfa: x29 32 +
STACK CFI 187cc .cfa: sp 32 +
STACK CFI 187d4 .cfa: sp 0 +
STACK CFI INIT 187d8 14 .cfa: sp 0 +
STACK CFI 187dc .cfa: sp 16 +
STACK CFI 187e0 .cfa: x29 16 + .ra: .cfa -8 + ^ x29: .cfa -16 + ^
STACK CFI INIT 187ec 4 .cfa: sp 0 +
STACK CFI INIT 187f0 14 .cfa: sp 0 +
STACK CFI INIT 18804 120 .cfa: sp 0 +
STACK CFI 18808 .cfa: sp 64 +
STACK CFI 18818 .cfa: x29 64 + x19: .cfa -8 + ^ x20: .cfa -16 + ^ x21: .cfa -24 + ^ x22: .cfa -32 + ^ x23: .cfa -40 + ^ x24: .cfa -48 + ^ .ra: .cfa -56 + ^ x29: .cfa -64 + ^
STACK CFI 18910 .cfa: sp 64 +
STACK CFI 18920 .cfa: sp 0 +
STACK CFI INIT 18924 4a4 .cfa: sp 0 +
STACK CFI 18928 .cfa: sp 32 +
STACK CFI 18930 .cfa: x29 32 + x19: .cfa -8 + ^ x20: .cfa -16 + ^ .ra: .cfa -24 + ^ x29: .cfa -32 + ^
STACK CFI 18d10 .cfa: sp 32 +
STACK CFI 18d18 .cfa: sp 0 +
STACK CFI 18d1c .cfa: x29 32 +
STACK CFI INIT 18dc8 84 .cfa: sp 0 +
STACK CFI 18dd0 .cfa: sp 32 +
STACK CFI 18dd8 .cfa: x29 32 + x19: .cfa -8 + ^ x20: .cfa -16 + ^ .ra: .cfa -24 + ^ x29: .cfa -32 + ^
STACK CFI 18e18 .cfa: sp 32 +
STACK CFI 18e20 .cfa: sp 0 +
STACK CFI 18e28 .cfa: x29 32 +
STACK CFI INIT 18e4c a0 .cfa: sp 0 +
STACK CFI 18e58 .cfa: sp 80 +
STACK CFI 18e6c .cfa: x29 48 + x19: .cfa -8 + ^ x20: .cfa -16 + ^ x21: .cfa -24 + ^ x22: .cfa -32 + ^ .ra: .cfa -40 + ^ x29: .cfa -48 + ^ v8: .cfa -56 + ^ v9: .cfa -64 + ^ v10: .cfa -80 + ^
STACK CFI 18ed4 .cfa: sp 80 +
STACK CFI 18ee8 .cfa: sp 0 +
STACK CFI INIT 18eec 50 .cfa: sp 0 +
STACK CFI 18ef0 .cfa: sp 32 +
STACK CFI 18ef8 .cfa: x29 32 + x19: .cfa -16 + ^ .ra: .cfa -24 + ^ x29: .cfa -32 + ^
STACK CFI 18f10 .cfa: sp 32 +
STACK CFI 18f18 .cfa: sp 0 +
STACK CFI 18f1c .cfa: x29 32 +
STACK CFI 18f30 .cfa: sp 32 +
STACK CFI 18f38 .cfa: sp 0 +
STACK CFI INIT 18f3c 64 .cfa: sp 0 +
STACK CFI 18f40 .cfa: sp 32 +
STACK CFI 18f48 .cfa: x29 32 + x19: .cfa -16 + ^ .ra: .cfa -24 + ^ x29: .cfa -32 + ^
STACK CFI 18f74 .cfa: sp 32 +
STACK CFI 18f7c .cfa: sp 0 +
STACK CFI 18f80 .cfa: x29 32 +
STACK CFI 18f94 .cfa: sp 32 +
STACK CFI 18f9c .cfa: sp 0 +
STACK CFI INIT 18fa0 130 .cfa: sp 0 +
STACK CFI 18fa4 .cfa: sp 80 +
STACK CFI 18fb4 .cfa: x29 48 + x19: .cfa -8 + ^ x20: .cfa -16 + ^ x21: .cfa -24 + ^ x22: .cfa -32 + ^ .ra: .cfa -40 + ^ x29: .cfa -48 + ^
STACK CFI 190b8 .cfa: sp 80 +
STACK CFI 190c8 .cfa: sp 0 +
STACK CFI 190cc .cfa: x29 48 +
STACK CFI INIT 190d0 50 .cfa: sp 0 +
STACK CFI 190d4 .cfa: sp 32 +
STACK CFI 190dc .cfa: x29 32 + x19: .cfa -16 + ^ .ra: .cfa -24 + ^ x29: .cfa -32 + ^
STACK CFI 190f4 .cfa: sp 32 +
STACK CFI 190fc .cfa: sp 0 +
STACK CFI 19100 .cfa: x29 32 +
STACK CFI 19114 .cfa: sp 32 +
STACK CFI 1911c .cfa: sp 0 +
STACK CFI INIT 19120 f8 .cfa: sp 0 +
STACK CFI 19124 .cfa: sp 64 +
STACK CFI 19134 .cfa: x29 64 + x19: .cfa -8 + ^ x20: .cfa -16 + ^ x21: .cfa -24 + ^ x22: .cfa -32 + ^ x23: .cfa -48 + ^ .ra: .cfa -56 + ^ x29: .cfa -64 + ^
STACK CFI 19190 .cfa: sp 64 +
STACK CFI 191a0 .cfa: sp 0 +
STACK CFI 191a4 .cfa: x29 64 +
STACK CFI 191c0 .cfa: sp 64 +
STACK CFI 191d0 .cfa: sp 0 +
STACK CFI 191d4 .cfa: x29 64 +
STACK CFI 19204 .cfa: sp 64 +
STACK CFI 19214 .cfa: sp 0 +
STACK CFI INIT 19218 168 .cfa: sp 0 +
STACK CFI 1921c .cfa: sp 80 +
STACK CFI 19230 .cfa: x29 80 + x19: .cfa -8 + ^ x20: .cfa -16 + ^ x21: .cfa -24 + ^ x22: .cfa -32 + ^ x23: .cfa -40 + ^ x24: .cfa -48 + ^ x25: .cfa -56 + ^ x26: .cfa -64 + ^ .ra: .cfa -72 + ^ x29: .cfa -80 + ^
STACK CFI 19368 .cfa: sp 80 +
STACK CFI 1937c .cfa: sp 0 +
STACK CFI INIT 19380 7c .cfa: sp 0 +
STACK CFI 19384 .cfa: sp 32 +
STACK CFI 1938c .cfa: x29 32 + x19: .cfa -8 + ^ x20: .cfa -16 + ^ .ra: .cfa -24 + ^ x29: .cfa -32 + ^
STACK CFI 193e4 .cfa: sp 32 +
STACK CFI 193ec .cfa: sp 0 +
STACK CFI 193f0 .cfa: sp 32 +
STACK CFI 193f8 .cfa: sp 0 +
STACK CFI INIT 193fc 1b0 .cfa: sp 0 +
STACK CFI INIT 198d8 4 .cfa: sp 0 +
STACK CFI INIT 198dc 4 .cfa: sp 0 +
STACK CFI INIT 198e0 14 .cfa: sp 0 +
STACK CFI INIT 1a510 4 .cfa: sp 0 +
STACK CFI INIT 1a514 c8 .cfa: sp 0 +
STACK CFI 1a518 .cfa: sp 64 +
STACK CFI 1a528 .cfa: x29 48 + x19: .cfa -8 + ^ x20: .cfa -16 + ^ x21: .cfa -32 + ^ .ra: .cfa -40 + ^ x29: .cfa -48 + ^
STACK CFI 1a5c4 .cfa: sp 64 +
STACK CFI 1a5d4 .cfa: sp 0 +
STACK CFI 1a5d8 .cfa: x29 48 +
STACK CFI INIT 1a854 c8 .cfa: sp 0 +
STACK CFI 1a858 .cfa: sp 64 +
STACK CFI 1a868 .cfa: x29 48 + x19: .cfa -8 + ^ x20: .cfa -16 + ^ x21: .cfa -32 + ^ .ra: .cfa -40 + ^ x29: .cfa -48 + ^
STACK CFI 1a904 .cfa: sp 64 +
STACK CFI 1a914 .cfa: sp 0 +
STACK CFI 1a918 .cfa: x29 48 +
STACK CFI INIT 1a9c4 b0 .cfa: sp 0 +
STACK CFI 1a9c8 .cfa: sp 32 +
STACK CFI 1a9d0 .cfa: x29 32 + x19: .cfa -16 + ^ .ra: .cfa -24 + ^ x29: .cfa -32 + ^
STACK CFI 1aa68 .cfa: sp 32 +
STACK CFI 1aa70 .cfa: sp 0 +
STACK CFI INIT 1b0d0 14 .cfa: sp 0 +
STACK CFI 1b0d4 .cfa: sp 16 +
STACK CFI 1b0d8 .cfa: x29 16 + .ra: .cfa -8 + ^ x29: .cfa -16 + ^
STACK CFI INIT 1b0e4 14 .cfa: sp 0 +
STACK CFI 1b0e8 .cfa: sp 16 +
STACK CFI 1b0ec .cfa: x29 16 + .ra: .cfa -8 + ^ x29: .cfa -16 + ^
STACK CFI INIT 1b0f8 c .cfa: sp 0 +
STACK CFI 1b0fc .cfa: sp 16 +
STACK CFI 1b100 .cfa: x29 16 + .ra: .cfa -8 + ^ x29: .cfa -16 + ^
STACK CFI INIT 1b154 30 .cfa: sp 0 +
STACK CFI 1b158 .cfa: sp 32 +
STACK CFI 1b160 .cfa: x29 32 + x19: .cfa -16 + ^ .ra: .cfa -24 + ^ x29: .cfa -32 + ^
STACK CFI 1b178 .cfa: sp 32 +
STACK CFI 1b180 .cfa: sp 0 +
STACK CFI INIT 1b184 c .cfa: sp 0 +
STACK CFI 1b188 .cfa: sp 16 +
STACK CFI 1b18c .cfa: x29 16 + .ra: .cfa -8 + ^ x29: .cfa -16 + ^
STACK CFI INIT 1b190 4 .cfa: sp 0 +
STACK CFI INIT 1b194 4 .cfa: sp 0 +
STACK CFI INIT 1b198 38 .cfa: sp 0 +
STACK CFI 1b19c .cfa: sp 32 +
STACK CFI 1b1a4 .cfa: x29 32 + x19: .cfa -16 + ^ .ra: .cfa -24 + ^ x29: .cfa -32 + ^
STACK CFI 1b1c4 .cfa: sp 32 +
STACK CFI 1b1cc .cfa: sp 0 +
STACK CFI INIT 1b1d0 18 .cfa: sp 0 +
STACK CFI INIT 1b1e8 4 .cfa: sp 0 +
STACK CFI INIT 1b1ec 4 .cfa: sp 0 +
STACK CFI INIT 1b1f0 10 .cfa: sp 0 +
STACK CFI INIT 1b200 1c .cfa: sp 0 +
STACK CFI INIT 1b21c c .cfa: sp 0 +
STACK CFI INIT 1b774 4 .cfa: sp 0 +
STACK CFI INIT 1ba54 3c .cfa: sp 0 +
STACK CFI 1ba58 .cfa: sp 32 +
STACK CFI 1ba60 .cfa: x29 32 + x19: .cfa -16 + ^ .ra: .cfa -24 + ^ x29: .cfa -32 + ^
STACK CFI 1ba6c .cfa: sp 32 +
STACK CFI 1ba74 .cfa: sp 0 +
STACK CFI 1ba78 .cfa: x29 32 +
STACK CFI 1ba84 .cfa: sp 32 +
STACK CFI 1ba8c .cfa: sp 0 +
STACK CFI INIT 1ba90 4c .cfa: sp 0 +
STACK CFI 1ba94 .cfa: sp 32 +
STACK CFI 1ba9c .cfa: x29 32 + x19: .cfa -8 + ^ x20: .cfa -16 + ^ .ra: .cfa -24 + ^ x29: .cfa -32 + ^
STACK CFI 1bac4 .cfa: sp 32 +
STACK CFI 1bacc .cfa: sp 0 +
STACK CFI 1bad0 .cfa: sp 32 +
STACK CFI 1bad8 .cfa: sp 0 +
STACK CFI INIT 1bcfc 64 .cfa: sp 0 +
STACK CFI 1bd00 .cfa: sp 32 +
STACK CFI 1bd08 .cfa: x29 32 + x19: .cfa -16 + ^ .ra: .cfa -24 + ^ x29: .cfa -32 + ^
STACK CFI 1bd34 .cfa: sp 32 +
STACK CFI 1bd3c .cfa: sp 0 +
STACK CFI 1bd40 .cfa: x29 32 +
STACK CFI 1bd54 .cfa: sp 32 +
STACK CFI 1bd5c .cfa: sp 0 +
STACK CFI INIT 1bd60 24 .cfa: sp 0 +
STACK CFI 1bd64 .cfa: sp 32 +
STACK CFI 1bd6c .cfa: x29 32 + x19: .cfa -16 + ^ .ra: .cfa -24 + ^ x29: .cfa -32 + ^
STACK CFI 1bd78 .cfa: sp 32 +
STACK CFI 1bd80 .cfa: sp 0 +
STACK CFI INIT 1bd84 24 .cfa: sp 0 +
STACK CFI 1bd88 .cfa: sp 32 +
STACK CFI 1bd90 .cfa: x29 32 + x19: .cfa -16 + ^ .ra: .cfa -24 + ^ x29: .cfa -32 + ^
STACK CFI 1bd9c .cfa: sp 32 +
STACK CFI 1bda4 .cfa: sp 0 +
STACK CFI INIT 1bda8 8 .cfa: sp 0 +
STACK CFI INIT 1bdb0 24 .cfa: sp 0 +
STACK CFI 1bdb4 .cfa: sp 32 +
STACK CFI 1bdbc .cfa: x29 32 + x19: .cfa -16 + ^ .ra: .cfa -24 + ^ x29: .cfa -32 + ^
STACK CFI 1bdc8 .cfa: sp 32 +
STACK CFI 1bdd0 .cfa: sp 0 +
STACK CFI INIT 1bdd4 28 .cfa: sp 0 +
STACK CFI 1bdd8 .cfa: sp 32 +
STACK CFI 1bde0 .cfa: x29 32 + x19: .cfa -16 + ^ .ra: .cfa -24 + ^ x29: .cfa -32 + ^
STACK CFI 1bdf0 .cfa: sp 32 +
STACK CFI 1bdf8 .cfa: sp 0 +
STACK CFI INIT 1c0d4 8 .cfa: sp 0 +
STACK CFI INIT 1c0dc 24 .cfa: sp 0 +
STACK CFI 1c0e0 .cfa: sp 32 +
STACK CFI 1c0e8 .cfa: x29 32 + x19: .cfa -16 + ^ .ra: .cfa -24 + ^ x29: .cfa -32 + ^
STACK CFI 1c0f4 .cfa: sp 32 +
STACK CFI 1c0fc .cfa: sp 0 +
STACK CFI INIT 1c100 28 .cfa: sp 0 +
STACK CFI 1c104 .cfa: sp 32 +
STACK CFI 1c10c .cfa: x29 32 + x19: .cfa -16 + ^ .ra: .cfa -24 + ^ x29: .cfa -32 + ^
STACK CFI 1c11c .cfa: sp 32 +
STACK CFI 1c124 .cfa: sp 0 +
STACK CFI INIT 1c128 8 .cfa: sp 0 +
STACK CFI INIT 1c130 24 .cfa: sp 0 +
STACK CFI 1c134 .cfa: sp 32 +
STACK CFI 1c13c .cfa: x29 32 + x19: .cfa -16 + ^ .ra: .cfa -24 + ^ x29: .cfa -32 + ^
STACK CFI 1c148 .cfa: sp 32 +
STACK CFI 1c150 .cfa: sp 0 +
STACK CFI INIT 1c154 28 .cfa: sp 0 +
STACK CFI 1c158 .cfa: sp 32 +
STACK CFI 1c160 .cfa: x29 32 + x19: .cfa -16 + ^ .ra: .cfa -24 + ^ x29: .cfa -32 + ^
STACK CFI 1c170 .cfa: sp 32 +
STACK CFI 1c178 .cfa: sp 0 +
STACK CFI INIT 1c17c 4 .cfa: sp 0 +
STACK CFI INIT 1c180 4 .cfa: sp 0 +
STACK CFI INIT 1c4a0 8 .cfa: sp 0 +
STACK CFI INIT 1c4a8 24 .cfa: sp 0 +
STACK CFI 1c4ac .cfa: sp 32 +
STACK CFI 1c4b4 .cfa: x29 32 + x19: .cfa -16 + ^ .ra: .cfa -24 + ^ x29: .cfa -32 + ^
STACK CFI 1c4c0 .cfa: sp 32 +
STACK CFI 1c4c8 .cfa: sp 0 +
STACK CFI INIT 1c4cc 28 .cfa: sp 0 +
STACK CFI 1c4d0 .cfa: sp 32 +
STACK CFI 1c4d8 .cfa: x29 32 + x19: .cfa -16 + ^ .ra: .cfa -24 + ^ x29: .cfa -32 + ^
STACK CFI 1c4e8 .cfa: sp 32 +
STACK CFI 1c4f0 .cfa: sp 0 +
STACK CFI INIT 1c4f4 8 .cfa: sp 0 +
STACK CFI INIT 1c4fc 8 .cfa: sp 0 +
STACK CFI INIT 1c504 4 .cfa: sp 0 +
STACK CFI INIT 1c508 4 .cfa: sp 0 +
STACK CFI INIT 1c50c 4 .cfa: sp 0 +
STACK CFI INIT 1c510 4 .cfa: sp 0 +
STACK CFI INIT 1c514 4 .cfa: sp 0 +
STACK CFI INIT 1c518 4 .cfa: sp 0 +
STACK CFI INIT 1c79c 8 .cfa: sp 0 +
STACK CFI INIT 1ca24 8 .cfa: sp 0 +
STACK CFI INIT 1ccac 8 .cfa: sp 0 +
STACK CFI INIT 1ccb4 8 .cfa: sp 0 +
STACK CFI INIT 1ccbc 4 .cfa: sp 0 +
STACK CFI INIT 1ccc0 4 .cfa: sp 0 +
STACK CFI INIT 1ccc4 4 .cfa: sp 0 +
STACK CFI INIT 1ccc8 4 .cfa: sp 0 +
STACK CFI INIT 1cccc 4 .cfa: sp 0 +
STACK CFI INIT 1ccd0 4 .cfa: sp 0 +
STACK CFI INIT 1ccd4 8 .cfa: sp 0 +
STACK CFI INIT 1ccdc 4 .cfa: sp 0 +
STACK CFI INIT 1cce0 8 .cfa: sp 0 +
STACK CFI INIT 1dc6c 4 .cfa: sp 0 +
STACK CFI INIT 1dc70 14 .cfa: sp 0 +
STACK CFI INIT 16030 45c .cfa: sp 0 +
STACK CFI 16034 .cfa: sp 224 +
STACK CFI 16050 .cfa: x29 96 + x19: .cfa -8 + ^ x20: .cfa -16 + ^ x21: .cfa -24 + ^ x22: .cfa -32 + ^ x23: .cfa -40 + ^ x24: .cfa -48 + ^ x25: .cfa -56 + ^ x26: .cfa -64 + ^ x27: .cfa -72 + ^ x28: .cfa -80 + ^ .ra: .cfa -88 + ^ x29: .cfa -96 + ^
STACK CFI 16374 .cfa: sp 224 +
STACK CFI 16390 .cfa: sp 0 +
STACK CFI 16394 .cfa: x29 96 +
STACK CFI INIT 1648c 760 .cfa: sp 0 +
STACK CFI 16490 .cfa: sp 240 +
STACK CFI 164ac .cfa: x29 96 + x19: .cfa -8 + ^ x20: .cfa -16 + ^ x21: .cfa -24 + ^ x22: .cfa -32 + ^ x23: .cfa -40 + ^ x24: .cfa -48 + ^ x25: .cfa -56 + ^ x26: .cfa -64 + ^ x27: .cfa -72 + ^ x28: .cfa -80 + ^ .ra: .cfa -88 + ^ x29: .cfa -96 + ^
STACK CFI 16a9c .cfa: sp 240 +
STACK CFI 16ab8 .cfa: sp 0 +
STACK CFI 16abc .cfa: x29 96 +
STACK CFI INIT 17078 484 .cfa: sp 0 +
STACK CFI 1707c .cfa: sp 224 +
STACK CFI 17098 .cfa: x29 96 + x19: .cfa -8 + ^ x20: .cfa -16 + ^ x21: .cfa -24 + ^ x22: .cfa -32 + ^ x23: .cfa -40 + ^ x24: .cfa -48 + ^ x25: .cfa -56 + ^ x26: .cfa -64 + ^ x27: .cfa -72 + ^ x28: .cfa -80 + ^ .ra: .cfa -88 + ^ x29: .cfa -96 + ^
STACK CFI 17308 .cfa: sp 224 +
STACK CFI 17324 .cfa: sp 0 +
STACK CFI 17328 .cfa: x29 96 +
STACK CFI 173f4 .cfa: sp 224 +
STACK CFI 17410 .cfa: sp 0 +
STACK CFI 17414 .cfa: x29 96 +
STACK CFI INIT 16bec 45c .cfa: sp 0 +
STACK CFI 16bf0 .cfa: sp 224 +
STACK CFI 16c0c .cfa: x29 96 + x19: .cfa -8 + ^ x20: .cfa -16 + ^ x21: .cfa -24 + ^ x22: .cfa -32 + ^ x23: .cfa -40 + ^ x24: .cfa -48 + ^ x25: .cfa -56 + ^ x26: .cfa -64 + ^ x27: .cfa -72 + ^ x28: .cfa -80 + ^ .ra: .cfa -88 + ^ x29: .cfa -96 + ^
STACK CFI 16f30 .cfa: sp 224 +
STACK CFI 16f4c .cfa: sp 0 +
STACK CFI 16f50 .cfa: x29 96 +
STACK CFI INIT 1752c 3ec .cfa: sp 0 +
STACK CFI 17530 .cfa: sp 224 +
STACK CFI 17544 .cfa: x29 64 + x19: .cfa -8 + ^ x20: .cfa -16 + ^ x21: .cfa -24 + ^ x22: .cfa -32 + ^ x23: .cfa -40 + ^ x24: .cfa -48 + ^ .ra: .cfa -56 + ^ x29: .cfa -64 + ^
STACK CFI 177e4 .cfa: sp 224 +
STACK CFI 177f8 .cfa: sp 0 +
STACK CFI 177fc .cfa: x29 64 +
STACK CFI INIT 17968 74 .cfa: sp 0 +
STACK CFI 1796c .cfa: sp 48 +
STACK CFI 17978 .cfa: x29 32 + x19: .cfa -8 + ^ x20: .cfa -16 + ^ .ra: .cfa -24 + ^ x29: .cfa -32 + ^
STACK CFI 179c4 .cfa: sp 48 +
STACK CFI 179d0 .cfa: sp 0 +
STACK CFI 179d4 .cfa: x29 32 +
STACK CFI INIT 17a6c 154 .cfa: sp 0 +
STACK CFI 17a70 .cfa: sp 384 +
STACK CFI 17a84 .cfa: x29 64 + x19: .cfa -8 + ^ x20: .cfa -16 + ^ x21: .cfa -24 + ^ x22: .cfa -32 + ^ x23: .cfa -40 + ^ x28: .cfa -48 + ^ .ra: .cfa -56 + ^ x29: .cfa -64 + ^
STACK CFI 17b68 .cfa: sp 384 +
STACK CFI 17b7c .cfa: sp 0 +
STACK CFI 17b80 .cfa: x29 64 +
STACK CFI INIT 17bf4 12c .cfa: sp 0 +
STACK CFI 17bf8 .cfa: sp 80 +
STACK CFI 17c0c .cfa: x29 80 + x19: .cfa -8 + ^ x20: .cfa -16 + ^ x21: .cfa -24 + ^ x22: .cfa -32 + ^ x23: .cfa -40 + ^ x24: .cfa -48 + ^ x25: .cfa -56 + ^ x26: .cfa -64 + ^ .ra: .cfa -72 + ^ x29: .cfa -80 + ^
STACK CFI 17cd4 .cfa: sp 80 +
STACK CFI 17ce8 .cfa: sp 0 +
STACK CFI 17cec .cfa: x29 80 +
STACK CFI INIT 17dc4 1a4 .cfa: sp 0 +
STACK CFI 17dc8 .cfa: sp 112 +
STACK CFI 17de0 .cfa: x29 80 + x19: .cfa -8 + ^ x20: .cfa -16 + ^ x21: .cfa -24 + ^ x22: .cfa -32 + ^ x23: .cfa -40 + ^ x24: .cfa -48 + ^ x25: .cfa -56 + ^ x26: .cfa -64 + ^ .ra: .cfa -72 + ^ x29: .cfa -80 + ^
STACK CFI 17ed0 .cfa: sp 112 +
STACK CFI 17ee8 .cfa: sp 0 +
STACK CFI 17eec .cfa: x29 80 +
STACK CFI INIT 17f68 1dc .cfa: sp 0 +
STACK CFI 17f6c .cfa: sp 128 +
STACK CFI 17f88 .cfa: x29 96 + x19: .cfa -8 + ^ x20: .cfa -16 + ^ x21: .cfa -24 + ^ x22: .cfa -32 + ^ x23: .cfa -40 + ^ x24: .cfa -48 + ^ x25: .cfa -56 + ^ x26: .cfa -64 + ^ x27: .cfa -80 + ^ .ra: .cfa -88 + ^ x29: .cfa -96 + ^
STACK CFI 180f4 .cfa: sp 128 +
STACK CFI 18110 .cfa: sp 0 +
STACK CFI 18114 .cfa: x29 96 +
STACK CFI INIT 18158 50 .cfa: sp 0 +
STACK CFI 1815c .cfa: sp 32 +
STACK CFI 18164 .cfa: x29 32 + x19: .cfa -8 + ^ x20: .cfa -16 + ^ .ra: .cfa -24 + ^ x29: .cfa -32 + ^
STACK CFI INIT 1820c 178 .cfa: sp 0 +
STACK CFI 18210 .cfa: sp 80 +
STACK CFI 18224 .cfa: x29 80 + x19: .cfa -8 + ^ x20: .cfa -16 + ^ x21: .cfa -24 + ^ x22: .cfa -32 + ^ x23: .cfa -40 + ^ x24: .cfa -48 + ^ x25: .cfa -64 + ^ .ra: .cfa -72 + ^ x29: .cfa -80 + ^
STACK CFI 18350 .cfa: sp 80 +
STACK CFI 18364 .cfa: sp 0 +
STACK CFI 18368 .cfa: x29 80 +
STACK CFI INIT 184cc 224 .cfa: sp 0 +
STACK CFI 184d0 .cfa: sp 128 +
STACK CFI 184e8 .cfa: x29 80 + x19: .cfa -8 + ^ x20: .cfa -16 + ^ x21: .cfa -24 + ^ x22: .cfa -32 + ^ x23: .cfa -40 + ^ x24: .cfa -48 + ^ x25: .cfa -64 + ^ .ra: .cfa -72 + ^ x29: .cfa -80 + ^
STACK CFI 18684 .cfa: sp 128 +
STACK CFI 1869c .cfa: sp 0 +
STACK CFI 186a0 .cfa: x29 80 +
STACK CFI INIT 195ac 32c .cfa: sp 0 +
STACK CFI 195b0 .cfa: sp 240 +
STACK CFI 195c4 .cfa: x29 64 + x19: .cfa -8 + ^ x20: .cfa -16 + ^ x21: .cfa -24 + ^ x22: .cfa -32 + ^ x23: .cfa -48 + ^ .ra: .cfa -56 + ^ x29: .cfa -64 + ^
STACK CFI 197c0 .cfa: sp 240 +
STACK CFI 197d4 .cfa: sp 0 +
STACK CFI 197d8 .cfa: x29 64 +
STACK CFI INIT 198f4 358 .cfa: sp 0 +
STACK CFI 198f8 .cfa: sp 112 +
STACK CFI 19914 .cfa: x29 80 + x19: .cfa -8 + ^ x20: .cfa -16 + ^ x21: .cfa -24 + ^ x22: .cfa -32 + ^ x23: .cfa -40 + ^ x24: .cfa -48 + ^ x25: .cfa -56 + ^ x26: .cfa -64 + ^ .ra: .cfa -72 + ^ x29: .cfa -80 + ^ v8: .cfa -96 + ^
STACK CFI 1994c .cfa: sp 112 +
STACK CFI 19968 .cfa: sp 0 +
STACK CFI 1996c .cfa: x29 80 +
STACK CFI INIT 19c4c 1c .cfa: sp 0 +
STACK CFI 19c50 .cfa: sp 16 +
STACK CFI 19c54 .cfa: x29 16 + .ra: .cfa -8 + ^ x29: .cfa -16 + ^
STACK CFI 19c5c .cfa: sp 16 +
STACK CFI 19c60 .cfa: sp 0 +
STACK CFI 19c64 .cfa: x29 16 +
STACK CFI INIT 19c68 8a8 .cfa: sp 0 +
STACK CFI 19c6c .cfa: sp 288 +
STACK CFI 19c88 .cfa: x29 96 + x19: .cfa -8 + ^ x20: .cfa -16 + ^ x21: .cfa -24 + ^ x22: .cfa -32 + ^ x23: .cfa -40 + ^ x24: .cfa -48 + ^ x25: .cfa -56 + ^ x26: .cfa -64 + ^ x28: .cfa -80 + ^ .ra: .cfa -88 + ^ x29: .cfa -96 + ^
STACK CFI 1a2a0 .cfa: sp 288 +
STACK CFI 1a2bc .cfa: sp 0 +
STACK CFI 1a2c0 .cfa: x29 96 +
STACK CFI INIT 1a5dc 278 .cfa: sp 0 +
STACK CFI 1a5e0 .cfa: sp 112 +
STACK CFI 1a5f8 .cfa: x29 80 + x19: .cfa -8 + ^ x20: .cfa -16 + ^ x21: .cfa -24 + ^ x22: .cfa -32 + ^ x23: .cfa -40 + ^ x24: .cfa -48 + ^ x25: .cfa -64 + ^ .ra: .cfa -72 + ^ x29: .cfa -80 + ^
STACK CFI 1a808 .cfa: sp 112 +
STACK CFI 1a820 .cfa: sp 0 +
STACK CFI 1a824 .cfa: x29 80 +
STACK CFI INIT 1a91c a8 .cfa: sp 0 +
STACK CFI 1a920 .cfa: sp 32 +
STACK CFI 1a928 .cfa: x29 32 + x19: .cfa -16 + ^ .ra: .cfa -24 + ^ x29: .cfa -32 + ^
STACK CFI 1a95c .cfa: sp 32 +
STACK CFI 1a964 .cfa: sp 0 +
STACK CFI 1a968 .cfa: x29 32 +
STACK CFI 1a96c .cfa: sp 32 +
STACK CFI 1a974 .cfa: sp 0 +
STACK CFI 1a978 .cfa: x29 32 +
STACK CFI INIT 1aa74 63c .cfa: sp 0 +
STACK CFI 1aa78 .cfa: sp 224 +
STACK CFI 1aa94 .cfa: x29 96 + x19: .cfa -8 + ^ x20: .cfa -16 + ^ x21: .cfa -24 + ^ x22: .cfa -32 + ^ x23: .cfa -40 + ^ x24: .cfa -48 + ^ x25: .cfa -56 + ^ x26: .cfa -64 + ^ x27: .cfa -72 + ^ x28: .cfa -80 + ^ .ra: .cfa -88 + ^ x29: .cfa -96 + ^
STACK CFI 1af3c .cfa: sp 224 +
STACK CFI 1af58 .cfa: sp 0 +
STACK CFI 1af5c .cfa: x29 96 +
STACK CFI INIT 1b0b0 20 .cfa: sp 0 +
STACK CFI 1b0b4 .cfa: sp 16 +
STACK CFI 1b0b8 .cfa: x29 16 + .ra: .cfa -8 + ^ x29: .cfa -16 + ^
STACK CFI 1b0c4 .cfa: sp 16 +
STACK CFI 1b0c8 .cfa: sp 0 +
STACK CFI 1b0cc .cfa: x29 16 +
STACK CFI INIT 1b104 50 .cfa: sp 0 +
STACK CFI 1b108 .cfa: sp 32 +
STACK CFI 1b110 .cfa: x29 32 + x19: .cfa -8 + ^ x20: .cfa -16 + ^ .ra: .cfa -24 + ^ x29: .cfa -32 + ^
STACK CFI INIT 1b228 208 .cfa: sp 0 +
STACK CFI 1b22c .cfa: sp 112 +
STACK CFI 1b240 .cfa: x29 64 + x19: .cfa -8 + ^ x20: .cfa -16 + ^ x21: .cfa -24 + ^ x22: .cfa -32 + ^ x23: .cfa -40 + ^ x24: .cfa -48 + ^ .ra: .cfa -56 + ^ x29: .cfa -64 + ^
STACK CFI 1b3cc .cfa: sp 112 +
STACK CFI 1b3e0 .cfa: sp 0 +
STACK CFI 1b3e4 .cfa: x29 64 +
STACK CFI INIT 1b430 344 .cfa: sp 0 +
STACK CFI 1b434 .cfa: sp 208 +
STACK CFI 1b448 .cfa: x29 64 + x19: .cfa -8 + ^ x20: .cfa -16 + ^ x21: .cfa -24 + ^ x22: .cfa -32 + ^ x23: .cfa -40 + ^ x24: .cfa -48 + ^ .ra: .cfa -56 + ^ x29: .cfa -64 + ^
STACK CFI 1b658 .cfa: sp 208 +
STACK CFI 1b66c .cfa: sp 0 +
STACK CFI 1b670 .cfa: x29 64 +
STACK CFI INIT 1b778 dc .cfa: sp 0 +
STACK CFI 1b77c .cfa: sp 48 +
STACK CFI 1b788 .cfa: x29 48 + x19: .cfa -8 + ^ x20: .cfa -16 + ^ x21: .cfa -24 + ^ x22: .cfa -32 + ^ .ra: .cfa -40 + ^ x29: .cfa -48 + ^
STACK CFI 1b82c .cfa: sp 48 +
STACK CFI 1b838 .cfa: sp 0 +
STACK CFI 1b83c .cfa: x29 48 +
STACK CFI INIT 1b854 c8 .cfa: sp 0 +
STACK CFI 1b858 .cfa: sp 32 +
STACK CFI 1b860 .cfa: x29 32 + x19: .cfa -8 + ^ x20: .cfa -16 + ^ .ra: .cfa -24 + ^ x29: .cfa -32 + ^
STACK CFI 1b894 .cfa: sp 32 +
STACK CFI 1b89c .cfa: sp 0 +
STACK CFI 1b8a0 .cfa: x29 32 +
STACK CFI 1b8a4 .cfa: sp 32 +
STACK CFI 1b8ac .cfa: sp 0 +
STACK CFI 1b8b0 .cfa: x29 32 +
STACK CFI INIT 1b91c 11c .cfa: sp 0 +
STACK CFI 1b920 .cfa: sp 32 +
STACK CFI 1b928 .cfa: x29 32 + x19: .cfa -8 + ^ x20: .cfa -16 + ^ .ra: .cfa -24 + ^ x29: .cfa -32 + ^
STACK CFI 1b9fc .cfa: sp 32 +
STACK CFI 1ba04 .cfa: sp 0 +
STACK CFI 1ba08 .cfa: x29 32 +
STACK CFI INIT 1ba38 1c .cfa: sp 0 +
STACK CFI 1ba3c .cfa: sp 16 +
STACK CFI 1ba40 .cfa: x29 16 + .ra: .cfa -8 + ^ x29: .cfa -16 + ^
STACK CFI 1ba48 .cfa: sp 16 +
STACK CFI 1ba4c .cfa: sp 0 +
STACK CFI 1ba50 .cfa: x29 16 +
STACK CFI INIT 1badc 134 .cfa: sp 0 +
STACK CFI 1bae0 .cfa: sp 80 +
STACK CFI 1baec .cfa: x29 32 + x19: .cfa -8 + ^ x20: .cfa -16 + ^ .ra: .cfa -24 + ^ x29: .cfa -32 + ^
STACK CFI 1bb1c .cfa: sp 80 +
STACK CFI 1bb28 .cfa: sp 0 +
STACK CFI 1bb2c .cfa: x29 32 +
STACK CFI INIT 1bc10 78 .cfa: sp 0 +
STACK CFI 1bc14 .cfa: sp 32 +
STACK CFI 1bc1c .cfa: x29 32 + x19: .cfa -8 + ^ x20: .cfa -16 + ^ .ra: .cfa -24 + ^ x29: .cfa -32 + ^
STACK CFI 1bc28 .cfa: sp 32 +
STACK CFI 1bc30 .cfa: sp 0 +
STACK CFI 1bc34 .cfa: x29 32 +
STACK CFI INIT 1bc88 74 .cfa: sp 0 +
STACK CFI 1bc8c .cfa: sp 48 +
STACK CFI 1bc98 .cfa: x29 32 + x19: .cfa -8 + ^ x20: .cfa -16 + ^ .ra: .cfa -24 + ^ x29: .cfa -32 + ^
STACK CFI 1bce4 .cfa: sp 48 +
STACK CFI 1bcf0 .cfa: sp 0 +
STACK CFI 1bcf4 .cfa: x29 32 +
STACK CFI INIT 1bdfc 2d8 .cfa: sp 0 +
STACK CFI 1be00 .cfa: sp 128 +
STACK CFI 1be14 .cfa: x29 64 + x19: .cfa -8 + ^ x20: .cfa -16 + ^ x21: .cfa -24 + ^ x22: .cfa -32 + ^ x23: .cfa -48 + ^ .ra: .cfa -56 + ^ x29: .cfa -64 + ^
STACK CFI 1bf80 .cfa: sp 128 +
STACK CFI 1bf94 .cfa: sp 0 +
STACK CFI 1bf98 .cfa: x29 64 +
STACK CFI INIT 1c184 31c .cfa: sp 0 +
STACK CFI 1c188 .cfa: sp 128 +
STACK CFI 1c19c .cfa: x29 64 + x19: .cfa -8 + ^ x20: .cfa -16 + ^ x21: .cfa -24 + ^ x22: .cfa -32 + ^ x23: .cfa -48 + ^ .ra: .cfa -56 + ^ x29: .cfa -64 + ^
STACK CFI 1c34c .cfa: sp 128 +
STACK CFI 1c360 .cfa: sp 0 +
STACK CFI 1c364 .cfa: x29 64 +
STACK CFI INIT 1c51c 174 .cfa: sp 0 +
STACK CFI 1c520 .cfa: sp 144 +
STACK CFI 1c534 .cfa: x29 64 + x19: .cfa -8 + ^ x20: .cfa -16 + ^ x21: .cfa -24 + ^ x22: .cfa -32 + ^ x23: .cfa -48 + ^ .ra: .cfa -56 + ^ x29: .cfa -64 + ^
STACK CFI 1c598 .cfa: sp 144 +
STACK CFI 1c5ac .cfa: sp 0 +
STACK CFI 1c5b0 .cfa: x29 64 +
STACK CFI INIT 1c690 10c .cfa: sp 0 +
STACK CFI 1c694 .cfa: sp 64 +
STACK CFI 1c6a4 .cfa: x29 48 + x19: .cfa -8 + ^ x20: .cfa -16 + ^ x21: .cfa -24 + ^ x22: .cfa -32 + ^ .ra: .cfa -40 + ^ x29: .cfa -48 + ^
STACK CFI 1c754 .cfa: sp 64 +
STACK CFI 1c764 .cfa: sp 0 +
STACK CFI 1c768 .cfa: x29 48 +
STACK CFI INIT 1c7a4 174 .cfa: sp 0 +
STACK CFI 1c7a8 .cfa: sp 144 +
STACK CFI 1c7bc .cfa: x29 64 + x19: .cfa -8 + ^ x20: .cfa -16 + ^ x21: .cfa -24 + ^ x22: .cfa -32 + ^ x23: .cfa -48 + ^ .ra: .cfa -56 + ^ x29: .cfa -64 + ^
STACK CFI 1c820 .cfa: sp 144 +
STACK CFI 1c834 .cfa: sp 0 +
STACK CFI 1c838 .cfa: x29 64 +
STACK CFI INIT 1c918 10c .cfa: sp 0 +
STACK CFI 1c91c .cfa: sp 64 +
STACK CFI 1c92c .cfa: x29 48 + x19: .cfa -8 + ^ x20: .cfa -16 + ^ x21: .cfa -24 + ^ x22: .cfa -32 + ^ .ra: .cfa -40 + ^ x29: .cfa -48 + ^
STACK CFI 1c9dc .cfa: sp 64 +
STACK CFI 1c9ec .cfa: sp 0 +
STACK CFI 1c9f0 .cfa: x29 48 +
STACK CFI INIT 1ca2c 174 .cfa: sp 0 +
STACK CFI 1ca30 .cfa: sp 144 +
STACK CFI 1ca44 .cfa: x29 64 + x19: .cfa -8 + ^ x20: .cfa -16 + ^ x21: .cfa -24 + ^ x22: .cfa -32 + ^ x23: .cfa -48 + ^ .ra: .cfa -56 + ^ x29: .cfa -64 + ^
STACK CFI 1caa8 .cfa: sp 144 +
STACK CFI 1cabc .cfa: sp 0 +
STACK CFI 1cac0 .cfa: x29 64 +
STACK CFI INIT 1cba0 10c .cfa: sp 0 +
STACK CFI 1cba4 .cfa: sp 64 +
STACK CFI 1cbb4 .cfa: x29 48 + x19: .cfa -8 + ^ x20: .cfa -16 + ^ x21: .cfa -24 + ^ x22: .cfa -32 + ^ .ra: .cfa -40 + ^ x29: .cfa -48 + ^
STACK CFI 1cc64 .cfa: sp 64 +
STACK CFI 1cc74 .cfa: sp 0 +
STACK CFI 1cc78 .cfa: x29 48 +
STACK CFI INIT 1cce8 2bc .cfa: sp 0 +
STACK CFI 1ccec .cfa: sp 128 +
STACK CFI 1cd00 .cfa: x29 64 + x19: .cfa -8 + ^ x20: .cfa -16 + ^ x21: .cfa -24 + ^ x22: .cfa -32 + ^ x23: .cfa -48 + ^ .ra: .cfa -56 + ^ x29: .cfa -64 + ^
STACK CFI 1ce50 .cfa: sp 128 +
STACK CFI 1ce64 .cfa: sp 0 +
STACK CFI 1ce68 .cfa: x29 64 +
STACK CFI INIT 1cfa4 278 .cfa: sp 0 +
STACK CFI 1cfa8 .cfa: sp 128 +
STACK CFI 1cfbc .cfa: x29 64 + x19: .cfa -8 + ^ x20: .cfa -16 + ^ x21: .cfa -24 + ^ x22: .cfa -32 + ^ x23: .cfa -48 + ^ .ra: .cfa -56 + ^ x29: .cfa -64 + ^
STACK CFI 1d0c8 .cfa: sp 128 +
STACK CFI 1d0dc .cfa: sp 0 +
STACK CFI 1d0e0 .cfa: x29 64 +
STACK CFI INIT 1d21c 2c8 .cfa: sp 0 +
STACK CFI 1d220 .cfa: sp 128 +
STACK CFI 1d234 .cfa: x29 64 + x19: .cfa -8 + ^ x20: .cfa -16 + ^ x21: .cfa -24 + ^ x22: .cfa -32 + ^ x23: .cfa -48 + ^ .ra: .cfa -56 + ^ x29: .cfa -64 + ^
STACK CFI 1d390 .cfa: sp 128 +
STACK CFI 1d3a4 .cfa: sp 0 +
STACK CFI 1d3a8 .cfa: x29 64 +
STACK CFI INIT 1d4e4 4cc .cfa: sp 0 +
STACK CFI 1d4e8 .cfa: sp 128 +
STACK CFI 1d4fc .cfa: x29 64 + x19: .cfa -8 + ^ x20: .cfa -16 + ^ x21: .cfa -24 + ^ x22: .cfa -32 + ^ x23: .cfa -48 + ^ .ra: .cfa -56 + ^ x29: .cfa -64 + ^
STACK CFI 1d808 .cfa: sp 128 +
STACK CFI 1d81c .cfa: sp 0 +
STACK CFI 1d820 .cfa: x29 64 +
STACK CFI INIT 1d9b0 154 .cfa: sp 0 +
STACK CFI 1d9b4 .cfa: sp 384 +
STACK CFI 1d9c8 .cfa: x29 64 + x19: .cfa -8 + ^ x20: .cfa -16 + ^ x21: .cfa -24 + ^ x22: .cfa -32 + ^ x23: .cfa -40 + ^ x28: .cfa -48 + ^ .ra: .cfa -56 + ^ x29: .cfa -64 + ^
STACK CFI 1daac .cfa: sp 384 +
STACK CFI 1dac0 .cfa: sp 0 +
STACK CFI 1dac4 .cfa: x29 64 +
STACK CFI INIT 1db04 168 .cfa: sp 0 +
STACK CFI 1db08 .cfa: sp 384 +
STACK CFI 1db1c .cfa: x29 64 + x19: .cfa -8 + ^ x20: .cfa -16 + ^ x21: .cfa -24 + ^ x22: .cfa -32 + ^ x23: .cfa -40 + ^ x28: .cfa -48 + ^ .ra: .cfa -56 + ^ x29: .cfa -64 + ^
STACK CFI 1dc14 .cfa: sp 384 +
STACK CFI 1dc28 .cfa: sp 0 +
STACK CFI 1dc2c .cfa: x29 64 +
STACK CFI INIT 1dc84 4e0 .cfa: sp 0 +
STACK CFI 1dc88 .cfa: sp 64 +
STACK CFI 1dc98 .cfa: x29 64 + x19: .cfa -8 + ^ x20: .cfa -16 + ^ x21: .cfa -24 + ^ x22: .cfa -32 + ^ x23: .cfa -40 + ^ x24: .cfa -48 + ^ .ra: .cfa -56 + ^ x29: .cfa -64 + ^
STACK CFI 1e138 .cfa: sp 64 +
STACK CFI 1e148 .cfa: sp 0 +
STACK CFI 1e14c .cfa: x29 64 +
