MODULE Linux arm64 4FD0B0DEDC326A706A343EEA7B948A9B0 pololak.legacy-toggle-guide.android64.so
INFO CODE_ID DEB0D04F32DC706A6A343EEA7B948A9B45A55C82
INFO GENERATOR mozilla/dump_syms 2.3.4
PUBLIC 5950 0 __on_dlclose
PUBLIC 5960 0 __emutls_unregister_key
PUBLIC 5968 0 __on_dlclose_late
PUBLIC 5970 0 __atexit_handler_wrapper
PUBLIC 5984 0 atexit
PUBLIC 59a0 0 pthread_atfork
PUBLIC 59b0 0 unwind_phase2
PUBLIC 5ae4 0 _Unwind_Resume
PUBLIC 5b68 0 unwind_phase2_forced
PUBLIC m 5c5c 0 __unw_init_local
PUBLIC m 5d04 0 __unw_get_reg
PUBLIC 5d80 0 __unw_step_stage2
PUBLIC m 5d94 0 __unw_get_proc_info
PUBLIC m 5dd4 0 __unw_resume
PUBLIC 5dfc 0 libunwind::CFI_Parser<libunwind::LocalAddressSpace>::decodeFDE(libunwind::LocalAddressSpace&, unsigned long, libunwind::CFI_Parser<libunwind::LocalAddressSpace>::FDE_Info*, libunwind::CFI_Parser<libunwind::LocalAddressSpace>::CIE_Info*, bool)
PUBLIC 5f8c 0 libunwind::CFI_Parser<libunwind::LocalAddressSpace>::parseCIE(libunwind::LocalAddressSpace&, unsigned long, libunwind::CFI_Parser<libunwind::LocalAddressSpace>::CIE_Info*)
PUBLIC 6254 0 libunwind::AbstractUnwindCursor::~AbstractUnwindCursor()
PUBLIC 625c 0 libunwind::UnwindCursor<libunwind::LocalAddressSpace, libunwind::Registers_arm64>::~UnwindCursor()
PUBLIC 6264 0 libunwind::UnwindCursor<libunwind::LocalAddressSpace, libunwind::Registers_arm64>::validReg(int)
PUBLIC 62a8 0 libunwind::UnwindCursor<libunwind::LocalAddressSpace, libunwind::Registers_arm64>::getReg(int)
PUBLIC 6390 0 libunwind::UnwindCursor<libunwind::LocalAddressSpace, libunwind::Registers_arm64>::setReg(int, unsigned long)
PUBLIC 6478 0 libunwind::UnwindCursor<libunwind::LocalAddressSpace, libunwind::Registers_arm64>::validFloatReg(int)
PUBLIC 648c 0 libunwind::UnwindCursor<libunwind::LocalAddressSpace, libunwind::Registers_arm64>::getFloatReg(int)
PUBLIC 649c 0 libunwind::UnwindCursor<libunwind::LocalAddressSpace, libunwind::Registers_arm64>::setFloatReg(int, double)
PUBLIC 64ac 0 libunwind::UnwindCursor<libunwind::LocalAddressSpace, libunwind::Registers_arm64>::step(bool)
PUBLIC 659c 0 libunwind::UnwindCursor<libunwind::LocalAddressSpace, libunwind::Registers_arm64>::getInfo(unw_proc_info_t*)
PUBLIC 65e0 0 libunwind::UnwindCursor<libunwind::LocalAddressSpace, libunwind::Registers_arm64>::jumpto()
PUBLIC 65ec 0 libunwind::UnwindCursor<libunwind::LocalAddressSpace, libunwind::Registers_arm64>::isSignalFrame()
PUBLIC 65f8 0 libunwind::UnwindCursor<libunwind::LocalAddressSpace, libunwind::Registers_arm64>::getFunctionName(char*, unsigned long, unsigned long*)
PUBLIC 6624 0 libunwind::UnwindCursor<libunwind::LocalAddressSpace, libunwind::Registers_arm64>::setInfoBasedOnIPRegister(bool)
PUBLIC 68a4 0 libunwind::UnwindCursor<libunwind::LocalAddressSpace, libunwind::Registers_arm64>::getRegisterName(int)
PUBLIC 68b0 0 libunwind::UnwindCursor<libunwind::LocalAddressSpace, libunwind::Registers_arm64>::stepThroughSigReturn(libunwind::Registers_arm64&)
PUBLIC 69d0 0 libunwind::DwarfInstructions<libunwind::LocalAddressSpace, libunwind::Registers_arm64>::stepWithDwarf(libunwind::LocalAddressSpace&, unsigned long, unsigned long, libunwind::Registers_arm64&, bool&, bool)
PUBLIC 6e58 0 libunwind::CFI_Parser<libunwind::LocalAddressSpace>::parseFDEInstructions(libunwind::LocalAddressSpace&, libunwind::CFI_Parser<libunwind::LocalAddressSpace>::FDE_Info const&, libunwind::CFI_Parser<libunwind::LocalAddressSpace>::CIE_Info const&, unsigned long, int, libunwind::CFI_Parser<libunwind::LocalAddressSpace>::PrologInfo*)
PUBLIC 7aa0 0 libunwind::DwarfInstructions<libunwind::LocalAddressSpace, libunwind::Registers_arm64>::getCFA(libunwind::LocalAddressSpace&, libunwind::CFI_Parser<libunwind::LocalAddressSpace>::PrologInfo const&, libunwind::Registers_arm64 const&)
PUBLIC 7bd4 0 libunwind::DwarfInstructions<libunwind::LocalAddressSpace, libunwind::Registers_arm64>::getSavedRegister(libunwind::LocalAddressSpace&, libunwind::Registers_arm64 const&, unsigned long, libunwind::CFI_Parser<libunwind::LocalAddressSpace>::RegisterLocation const&)
PUBLIC 7de4 0 libunwind::LocalAddressSpace::getEncodedP(unsigned long&, unsigned long, unsigned char, unsigned long)
PUBLIC 8170 0 libunwind::LocalAddressSpace::getULEB128(unsigned long&, unsigned long)
PUBLIC 8338 0 libunwind::DwarfInstructions<libunwind::LocalAddressSpace, libunwind::Registers_arm64>::evaluateExpression(unsigned long, libunwind::LocalAddressSpace&, libunwind::Registers_arm64 const&, unsigned long)
PUBLIC 8cf4 0 libunwind::UnwindCursor<libunwind::LocalAddressSpace, libunwind::Registers_arm64>::getInfoFromDwarfSection(unsigned long, libunwind::UnwindInfoSections const&, unsigned int)
PUBLIC 8fc8 0 libunwind::findUnwindSectionsByPhdr(dl_phdr_info*, unsigned long, void*)
PUBLIC 90fc 0 libunwind::EHHeaderParser<libunwind::LocalAddressSpace>::decodeEHHdr(libunwind::LocalAddressSpace&, unsigned long, unsigned long, libunwind::EHHeaderParser<libunwind::LocalAddressSpace>::EHHeaderInfo&)
PUBLIC 921c 0 libunwind::CFI_Parser<libunwind::LocalAddressSpace>::findFDE(libunwind::LocalAddressSpace&, unsigned long, unsigned long, unsigned long, unsigned long, libunwind::CFI_Parser<libunwind::LocalAddressSpace>::FDE_Info*, libunwind::CFI_Parser<libunwind::LocalAddressSpace>::CIE_Info*)
PUBLIC 93e4 0 libunwind::EHHeaderParser<libunwind::LocalAddressSpace>::findFDE(libunwind::LocalAddressSpace&, unsigned long, unsigned long, unsigned int, libunwind::CFI_Parser<libunwind::LocalAddressSpace>::FDE_Info*, libunwind::CFI_Parser<libunwind::LocalAddressSpace>::CIE_Info*)
PUBLIC 954c 0 libunwind::EHHeaderParser<libunwind::LocalAddressSpace>::getTableEntrySize(unsigned char)
PUBLIC 9648 0 libunwind::Registers_arm64::getRegisterName(int)
PUBLIC 9678 0 __libunwind_Registers_arm64_jumpto
PUBLIC m 9708 0 __unw_getcontext
PUBLIC 97b0 0 __aarch64_ldadd8_relax
PUBLIC 97e0 0 init_have_lse_atomics
PUBLIC 9878 0 __init_cpu_features_constructor
PUBLIC 9e14 0 __init_cpu_features
PUBLIC 9ea0 0 __aarch64_ldadd8_acq_rel
PUBLIC 9ed0 0 __cxx_global_var_init
PUBLIC abf0 0 geode::modifier::ModifyBase<geode::modifier::ModifyDerive<PolzEditorUI, EditorUI> >::~ModifyBase()
PUBLIC ac08 0 geode::modifier::ModifyDerive<PolzEditorUI, EditorUI>::apply()
PUBLIC b1cc 0 std::__ndk1::shared_ptr<geode::Hook>::~shared_ptr[abi:ne180000]()
PUBLIC b21c 0 geode::impl::ResultData<geode::Hook*, std::__ndk1::basic_string<char, std::__ndk1::char_traits<char>, std::__ndk1::allocator<char> > >::~ResultData()
PUBLIC b290 0 std::__ndk1::vector<std::__ndk1::basic_string<char, std::__ndk1::char_traits<char>, std::__ndk1::allocator<char> >, std::__ndk1::allocator<std::__ndk1::basic_string<char, std::__ndk1::char_traits<char>, std::__ndk1::allocator<char> > > >::~vector[abi:ne180000]()
PUBLIC b30c 0 geode::modifier::ModifyBase<geode::modifier::ModifyDerive<PolzEditorUI, EditorUI> >::apply()
PUBLIC b310 0 __clang_call_terminate
PUBLIC b320 0 std::__ndk1::basic_string<char, std::__ndk1::char_traits<char>, std::__ndk1::allocator<char> >::__throw_length_error[abi:ne180000]() const
PUBLIC b334 0 std::__ndk1::__throw_length_error[abi:ne180000](char const*)
PUBLIC b384 0 std::length_error::length_error[abi:ne180000](char const*)
PUBLIC b3b4 0 std::__throw_bad_array_new_length([abi:ne180000], void)
PUBLIC b3e8 0 std::__ndk1::__tree<std::__ndk1::__value_type<std::__ndk1::basic_string<char, std::__ndk1::char_traits<char>, std::__ndk1::allocator<char> >, std::__ndk1::shared_ptr<geode::Hook> >, std::__ndk1::__map_value_compare<std::__ndk1::basic_string<char, std::__ndk1::char_traits<char>, std::__ndk1::allocator<char> >, std::__ndk1::__value_type<std::__ndk1::basic_string<char, std::__ndk1::char_traits<char>, std::__ndk1::allocator<char> >, std::__ndk1::shared_ptr<geode::Hook> >, std::__ndk1::less<std::__ndk1::basic_string<char, std::__ndk1::char_traits<char>, std::__ndk1::allocator<char> > >, true>, std::__ndk1::allocator<std::__ndk1::__value_type<std::__ndk1::basic_string<char, std::__ndk1::char_traits<char>, std::__ndk1::allocator<char> >, std::__ndk1::shared_ptr<geode::Hook> > > >::find<std::__ndk1::basic_string<char, std::__ndk1::char_traits<char>, std::__ndk1::allocator<char> > >(std::__ndk1::basic_string<char, std::__ndk1::char_traits<char>, std::__ndk1::allocator<char> > const&)
PUBLIC b50c 0 std::__ndk1::basic_string<char, std::__ndk1::char_traits<char>, std::__ndk1::allocator<char> >::__init_copy_ctor_external(char const*, unsigned long)
PUBLIC b58c 0 std::__ndk1::__tree_balance_after_insert[abi:ne180000]<std::__ndk1::__tree_node_base<void*>*>(std::__ndk1::__tree_node_base<void*>*, std::__ndk1::__tree_node_base<void*>*)
PUBLIC b73c 0 _ZN5geode15UnwrapExceptionC2IRPNS_4HookEQsr4implE18IsStringStreamableIT_EEENS_4impl5OkTagEOS5_
PUBLIC b890 0 std::__ndk1::__throw_bad_variant_access[abi:ne180000]()
PUBLIC b8c4 0 std::__ndk1::basic_stringstream<char, std::__ndk1::char_traits<char>, std::__ndk1::allocator<char> >::basic_stringstream[abi:ne180000]()
PUBLIC m b9f0 0 std::__ndk1::basic_stringstream<char, std::__ndk1::char_traits<char>, std::__ndk1::allocator<char> >::~basic_stringstream()
PUBLIC ba70 0 geode::UnwrapException::~UnwrapException()
PUBLIC ba94 0 std::__ndk1::__put_character_sequence[abi:ne180000]<char, std::__ndk1::char_traits<char> >(std::__ndk1::basic_ostream<char, std::__ndk1::char_traits<char> >, std::__ndk1::basic_ostream const*, unsigned long)
PUBLIC bc38 0 std::__ndk1::__pad_and_output[abi:ne180000]<char, std::__ndk1::char_traits<char> >(std::__ndk1::char_traits<char>, std::__ndk1::ostreambuf_iterator const*, std::__ndk1::ostreambuf_iterator const, std::__ndk1::ostreambuf_iterator const, std::__ndk1::ios_base&, std::__ndk1::ostreambuf_iterator)
PUBLIC be14 0 std::__ndk1::basic_stringbuf<char, std::__ndk1::char_traits<char>, std::__ndk1::allocator<char> >::str[abi:ne180000]() &&
PUBLIC bf8c 0 std::__ndk1::basic_stringbuf<char, std::__ndk1::char_traits<char>, std::__ndk1::allocator<char> >::__init_buf_ptrs[abi:ne180000]()
PUBLIC c0d4 0 std::__ndk1::__variant_detail::__visitation::__base::__dispatcher<(unsigned long)0>::__dispatch[abi:ne180000]<std::__ndk1::__variant_detail::__dtor<std::__ndk1::__variant_detail::__traits<std::__ndk1::monostate, std::__ndk1::basic_string<char, std::__ndk1::char_traits<char>, std::__ndk1::allocator<char> > >, (std::__ndk1::__variant_detail::_Trait)1>::__destroy[abi:ne180000]()::{lambda(auto:1&)#1}, std::__ndk1::__variant_detail::__base<(std::__ndk1::__variant_detail::__traits<std::__ndk1::monostate, std::__ndk1::basic_string<char, std::__ndk1::char_traits<char>, std::__ndk1::allocator<char> > >)1, std::__ndk1::__variant_detail::__traits, std::__ndk1::allocator<char> >&>(std::__ndk1::__variant_detail::__dtor<std::__ndk1::__variant_detail::__traits<std::__ndk1::monostate, std::__ndk1::basic_string<char, std::__ndk1::char_traits<char>, std::__ndk1::allocator<char> > >, (std::__ndk1::__variant_detail::_Trait)1>, std::__ndk1::__variant_detail::__base<(std::__ndk1::__variant_detail::__traits<std::__ndk1::monostate, std::__ndk1::basic_string<char, std::__ndk1::char_traits<char>, std::__ndk1::allocator<char> > >)1, std::__ndk1::__variant_detail::__traits, std::__ndk1::allocator<char> >&)
PUBLIC c0d8 0 std::__ndk1::__variant_detail::__visitation::__base::__dispatcher<(unsigned long)1>::__dispatch[abi:ne180000]<std::__ndk1::__variant_detail::__dtor<std::__ndk1::__variant_detail::__traits<std::__ndk1::monostate, std::__ndk1::basic_string<char, std::__ndk1::char_traits<char>, std::__ndk1::allocator<char> > >, (std::__ndk1::__variant_detail::_Trait)1>::__destroy[abi:ne180000]()::{lambda(auto:1&)#1}, std::__ndk1::__variant_detail::__base<(std::__ndk1::__variant_detail::__traits<std::__ndk1::monostate, std::__ndk1::basic_string<char, std::__ndk1::char_traits<char>, std::__ndk1::allocator<char> > >)1, std::__ndk1::__variant_detail::__traits, std::__ndk1::allocator<char> >&>(std::__ndk1::__variant_detail::__dtor<std::__ndk1::__variant_detail::__traits<std::__ndk1::monostate, std::__ndk1::basic_string<char, std::__ndk1::char_traits<char>, std::__ndk1::allocator<char> > >, (std::__ndk1::__variant_detail::_Trait)1>, std::__ndk1::__variant_detail::__base<(std::__ndk1::__variant_detail::__traits<std::__ndk1::monostate, std::__ndk1::basic_string<char, std::__ndk1::char_traits<char>, std::__ndk1::allocator<char> > >)1, std::__ndk1::__variant_detail::__traits, std::__ndk1::allocator<char> >&)
PUBLIC c0ec 0 std::__ndk1::__split_buffer<std::__ndk1::basic_string<char, std::__ndk1::char_traits<char>, std::__ndk1::allocator<char> >, std::__ndk1::allocator<std::__ndk1::basic_string<char, std::__ndk1::char_traits<char>, std::__ndk1::allocator<char> > >&>::~__split_buffer()
PUBLIC c154 0 std::__ndk1::vector<std::__ndk1::basic_string<char, std::__ndk1::char_traits<char>, std::__ndk1::allocator<char> >, std::__ndk1::allocator<std::__ndk1::basic_string<char, std::__ndk1::char_traits<char>, std::__ndk1::allocator<char> > > >::__throw_length_error[abi:ne180000]() const
PUBLIC c168 0 std::__ndk1::__variant_detail::__visitation::__base::__dispatcher<(unsigned long)0>::__dispatch[abi:ne180000]<std::__ndk1::__variant_detail::__dtor<std::__ndk1::__variant_detail::__traits<geode::Hook*, std::__ndk1::basic_string<char, std::__ndk1::char_traits<char>, std::__ndk1::allocator<char> > >, (std::__ndk1::__variant_detail::_Trait)1>::__destroy[abi:ne180000]()::{lambda(auto:1&)#1}, std::__ndk1::__variant_detail::__base<(std::__ndk1::__variant_detail::__traits<geode::Hook*, std::__ndk1::basic_string<char, std::__ndk1::char_traits<char>, std::__ndk1::allocator<char> > >)1, geode::Hook, std::__ndk1::allocator<char> >&>(std::__ndk1::__variant_detail::__dtor<std::__ndk1::__variant_detail::__traits<geode::Hook*, std::__ndk1::basic_string<char, std::__ndk1::char_traits<char>, std::__ndk1::allocator<char> > >, (std::__ndk1::__variant_detail::_Trait)1>, std::__ndk1::__variant_detail::__base<(std::__ndk1::__variant_detail::__traits<geode::Hook*, std::__ndk1::basic_string<char, std::__ndk1::char_traits<char>, std::__ndk1::allocator<char> > >)1, geode::Hook, std::__ndk1::allocator<char> >&)
PUBLIC c16c 0 std::__ndk1::__variant_detail::__visitation::__base::__dispatcher<(unsigned long)1>::__dispatch[abi:ne180000]<std::__ndk1::__variant_detail::__dtor<std::__ndk1::__variant_detail::__traits<geode::Hook*, std::__ndk1::basic_string<char, std::__ndk1::char_traits<char>, std::__ndk1::allocator<char> > >, (std::__ndk1::__variant_detail::_Trait)1>::__destroy[abi:ne180000]()::{lambda(auto:1&)#1}, std::__ndk1::__variant_detail::__base<(std::__ndk1::__variant_detail::__traits<geode::Hook*, std::__ndk1::basic_string<char, std::__ndk1::char_traits<char>, std::__ndk1::allocator<char> > >)1, geode::Hook, std::__ndk1::allocator<char> >&>(std::__ndk1::__variant_detail::__dtor<std::__ndk1::__variant_detail::__traits<geode::Hook*, std::__ndk1::basic_string<char, std::__ndk1::char_traits<char>, std::__ndk1::allocator<char> > >, (std::__ndk1::__variant_detail::_Trait)1>, std::__ndk1::__variant_detail::__base<(std::__ndk1::__variant_detail::__traits<geode::Hook*, std::__ndk1::basic_string<char, std::__ndk1::char_traits<char>, std::__ndk1::allocator<char> > >)1, geode::Hook, std::__ndk1::allocator<char> >&)
PUBLIC c180 0 std::__ndk1::__tree<std::__ndk1::__value_type<std::__ndk1::basic_string<char, std::__ndk1::char_traits<char>, std::__ndk1::allocator<char> >, std::__ndk1::shared_ptr<geode::Hook> >, std::__ndk1::__map_value_compare<std::__ndk1::basic_string<char, std::__ndk1::char_traits<char>, std::__ndk1::allocator<char> >, std::__ndk1::__value_type<std::__ndk1::basic_string<char, std::__ndk1::char_traits<char>, std::__ndk1::allocator<char> >, std::__ndk1::shared_ptr<geode::Hook> >, std::__ndk1::less<std::__ndk1::basic_string<char, std::__ndk1::char_traits<char>, std::__ndk1::allocator<char> > >, true>, std::__ndk1::allocator<std::__ndk1::__value_type<std::__ndk1::basic_string<char, std::__ndk1::char_traits<char>, std::__ndk1::allocator<char> >, std::__ndk1::shared_ptr<geode::Hook> > > >::destroy(std::__ndk1::__tree_node<std::__ndk1::__value_type<std::__ndk1::basic_string<char, std::__ndk1::char_traits<char>, std::__ndk1::allocator<char> >, std::__ndk1::shared_ptr<geode::Hook> >, void*>*)
PUBLIC c204 0 geode::modifier::AsStaticFunction_init<PolzEditorUI, bool (PolzEditorUI::*)(LevelEditorLayer*)>::Impl<bool (PolzEditorUI::*)(LevelEditorLayer*)>::function(PolzEditorUI*, LevelEditorLayer*)
PUBLIC c4f8 0 geode::modifier::AsStaticFunction_updateButtons<PolzEditorUI, void (PolzEditorUI::*)()>::Impl<void (PolzEditorUI::*)()>::function(PolzEditorUI*)
PUBLIC c5f8 0 std::__ndk1::shared_ptr<tulip::hook::CallingConvention>::~shared_ptr[abi:ne180000]()
PUBLIC c648 0 tulip::hook::HandlerMetadata::~HandlerMetadata()
PUBLIC c6ac 0 geode::modifier::FieldIntermediate<PolzEditorUI, EditorUI>::self()
PUBLIC ce1c 0 PolzEditorUI::onCustomToggleGuide(cocos2d::CCObject*)
PUBLIC cf04 0 geode::modifier::FieldIntermediate<PolzEditorUI, EditorUI>::fieldDestructor(void*)
PUBLIC cf0c 0 std::__ndk1::vector<void*, std::__ndk1::allocator<void*> >::__throw_length_error[abi:ne180000]() const
PUBLIC cf20 0 std::__ndk1::vector<std::__ndk1::function<void (void*)>, std::__ndk1::allocator<std::__ndk1::function<void (void*)> > >::__throw_length_error[abi:ne180000]() const
PUBLIC cf34 0 std::__ndk1::vector<void*, std::__ndk1::allocator<void*> >::__throw_out_of_range[abi:ne180000]() const
PUBLIC cf40 0 std::__ndk1::__throw_out_of_range[abi:ne180000](char const*)
PUBLIC cf90 0 std::out_of_range::out_of_range[abi:ne180000](char const*)
PUBLIC cfc0 0 std::__ndk1::vector<std::__ndk1::function<void (void*)>, std::__ndk1::allocator<std::__ndk1::function<void (void*)> > >::__throw_out_of_range[abi:ne180000]() const
PUBLIC cfcc 0 std::__ndk1::__tree<int, std::__ndk1::less<int>, std::__ndk1::allocator<int> >::destroy(std::__ndk1::__tree_node<int, void*>*)
PUBLIC d008 0 std::__ndk1::__function::__base<void (void*)>::~__base()
PUBLIC d00c 0 std::__ndk1::__function::__func<void (*)(void*), std::__ndk1::allocator<void (*)(void*)>, void (void*)>::~__func()
PUBLIC d010 0 std::__ndk1::__function::__func<void (*)(void*), std::__ndk1::allocator<void (*)(void*)>, void (void*)>::__clone() const
PUBLIC d048 0 std::__ndk1::__function::__func<void (*)(void*), std::__ndk1::allocator<void (*)(void*)>, void (void*)>::__clone(std::__ndk1::__function::__base<void (void*)>*) const
PUBLIC d060 0 std::__ndk1::__function::__func<void (*)(void*), std::__ndk1::allocator<void (*)(void*)>, void (void*)>::destroy()
PUBLIC d064 0 std::__ndk1::__function::__func<void (*)(void*), std::__ndk1::allocator<void (*)(void*)>, void (void*)>::destroy_deallocate()
PUBLIC d068 0 std::__ndk1::__function::__func<void (*)(void*), std::__ndk1::allocator<void (*)(void*)>, void (void*)>::operator()(void*&&)
PUBLIC d078 0 std::__ndk1::__function::__func<void (*)(void*), std::__ndk1::allocator<void (*)(void*)>, void (void*)>::target(std::type_info const&) const
PUBLIC d094 0 std::__ndk1::__function::__func<void (*)(void*), std::__ndk1::allocator<void (*)(void*)>, void (void*)>::target_type() const
PUBLIC d0a0 0 geode::cast::traverseTypeinfoFor(void*, geode::cast::ClassTypeinfoType const*, char const*)
PUBLIC d198 0 std::__ndk1::__tree<std::__ndk1::__value_type<std::__ndk1::basic_string<char, std::__ndk1::char_traits<char>, std::__ndk1::allocator<char> >, std::__ndk1::shared_ptr<geode::Hook> >, std::__ndk1::__map_value_compare<std::__ndk1::basic_string<char, std::__ndk1::char_traits<char>, std::__ndk1::allocator<char> >, std::__ndk1::__value_type<std::__ndk1::basic_string<char, std::__ndk1::char_traits<char>, std::__ndk1::allocator<char> >, std::__ndk1::shared_ptr<geode::Hook> >, std::__ndk1::less<std::__ndk1::basic_string<char, std::__ndk1::char_traits<char>, std::__ndk1::allocator<char> > >, true>, std::__ndk1::allocator<std::__ndk1::__value_type<std::__ndk1::basic_string<char, std::__ndk1::char_traits<char>, std::__ndk1::allocator<char> >, std::__ndk1::shared_ptr<geode::Hook> > > >::__emplace_unique_key_args<std::__ndk1::basic_string<char, std::__ndk1::char_traits<char>, std::__ndk1::allocator<char> >, std::__ndk1::piecewise_construct_t const&, std::__ndk1::tuple<std::__ndk1::basic_string<char, std::__ndk1::char_traits<char>, std::__ndk1::allocator<char> >&&>, std::__ndk1::tuple<> >(std::__ndk1::basic_string<char, std::__ndk1::char_traits<char>, std::__ndk1::allocator<char> > const&, std::__ndk1::piecewise_construct_t const&, std::__ndk1::tuple<std::__ndk1::basic_string<char, std::__ndk1::char_traits<char>, std::__ndk1::allocator<char> >&&>, std::__ndk1::tuple<>)
PUBLIC m d300 0 geodeImplicitEntry
PUBLIC d33c 0 CCMenuItemToggler::createWithStandardSprites(cocos2d::CCObject*, void (cocos2d::CCObject::*)(cocos2d::CCObject*), float)
PUBLIC d540 0 <.plt ELF section in pololak.legacy-toggle-guide.android64.so>
STACK CFI INIT 5950 10 .cfa: sp 0 +
STACK CFI INIT 5960 8 .cfa: sp 0 +
STACK CFI INIT 5968 8 .cfa: sp 0 +
STACK CFI INIT 5970 14 .cfa: sp 0 +
STACK CFI INIT 5984 1c .cfa: sp 0 +
STACK CFI INIT 59a0 10 .cfa: sp 0 +
STACK CFI INIT 59b0 134 .cfa: sp 0 +
STACK CFI INIT 5ae4 84 .cfa: sp 0 +
STACK CFI INIT 5b68 f4 .cfa: sp 0 +
STACK CFI INIT 5c5c a8 .cfa: sp 0 +
STACK CFI INIT 5d04 7c .cfa: sp 0 +
STACK CFI INIT 5d80 14 .cfa: sp 0 +
STACK CFI INIT 5d94 40 .cfa: sp 0 +
STACK CFI INIT 5dd4 28 .cfa: sp 0 +
STACK CFI INIT 5dfc 190 .cfa: sp 0 +
STACK CFI INIT 5f8c 2c8 .cfa: sp 0 +
STACK CFI INIT 6254 8 .cfa: sp 0 +
STACK CFI INIT 625c 8 .cfa: sp 0 +
STACK CFI INIT 6264 44 .cfa: sp 0 +
STACK CFI INIT 62a8 e8 .cfa: sp 0 +
STACK CFI INIT 6390 e8 .cfa: sp 0 +
STACK CFI INIT 6478 14 .cfa: sp 0 +
STACK CFI INIT 648c 10 .cfa: sp 0 +
STACK CFI INIT 649c 10 .cfa: sp 0 +
STACK CFI INIT 64ac f0 .cfa: sp 0 +
STACK CFI INIT 659c 44 .cfa: sp 0 +
STACK CFI INIT 65e0 c .cfa: sp 0 +
STACK CFI INIT 65ec c .cfa: sp 0 +
STACK CFI INIT 65f8 2c .cfa: sp 0 +
STACK CFI INIT 6624 280 .cfa: sp 0 +
STACK CFI INIT 68a4 c .cfa: sp 0 +
STACK CFI INIT 68b0 120 .cfa: sp 0 +
STACK CFI INIT 69d0 488 .cfa: sp 0 +
STACK CFI INIT 6e58 c48 .cfa: sp 0 +
STACK CFI INIT 7aa0 134 .cfa: sp 0 +
STACK CFI INIT 7bd4 210 .cfa: sp 0 +
STACK CFI INIT 7de4 38c .cfa: sp 0 +
STACK CFI INIT 8170 1c8 .cfa: sp 0 +
STACK CFI INIT 8338 9bc .cfa: sp 0 +
STACK CFI INIT 8cf4 2d4 .cfa: sp 0 +
STACK CFI INIT 8fc8 134 .cfa: sp 0 +
STACK CFI INIT 90fc 120 .cfa: sp 0 +
STACK CFI INIT 921c 1c8 .cfa: sp 0 +
STACK CFI INIT 93e4 168 .cfa: sp 0 +
STACK CFI INIT 954c fc .cfa: sp 0 +
STACK CFI INIT 9648 30 .cfa: sp 0 +
STACK CFI INIT 97b0 30 .cfa: sp 0 +
STACK CFI INIT 97e0 98 .cfa: sp 0 +
STACK CFI INIT 9878 59c .cfa: sp 0 +
STACK CFI INIT 9e14 8c .cfa: sp 0 +
STACK CFI INIT 9ea0 30 .cfa: sp 0 +
STACK CFI INIT abf0 18 .cfa: sp 0 +
STACK CFI INIT b1cc 50 .cfa: sp 0 +
STACK CFI b1d0 .cfa: sp 32 +
STACK CFI b1d8 .cfa: x29 32 + x19: .cfa -16 + ^ .ra: .cfa -24 + ^ x29: .cfa -32 + ^
STACK CFI b1f0 .cfa: sp 32 +
STACK CFI b1f8 .cfa: sp 0 +
STACK CFI b1fc .cfa: x29 32 +
STACK CFI b210 .cfa: sp 32 +
STACK CFI b218 .cfa: sp 0 +
STACK CFI INIT b290 7c .cfa: sp 0 +
STACK CFI b294 .cfa: sp 48 +
STACK CFI b2a0 .cfa: x29 48 + x19: .cfa -8 + ^ x20: .cfa -16 + ^ x21: .cfa -32 + ^ .ra: .cfa -40 + ^ x29: .cfa -48 + ^
STACK CFI b2ec .cfa: sp 48 +
STACK CFI b2f8 .cfa: sp 0 +
STACK CFI b2fc .cfa: sp 48 +
STACK CFI b308 .cfa: sp 0 +
STACK CFI INIT b30c 4 .cfa: sp 0 +
STACK CFI INIT b310 10 .cfa: sp 0 +
STACK CFI b314 .cfa: sp 16 +
STACK CFI b318 .cfa: x29 16 + .ra: .cfa -8 + ^ x29: .cfa -16 + ^
STACK CFI INIT b320 14 .cfa: sp 0 +
STACK CFI b324 .cfa: sp 16 +
STACK CFI b328 .cfa: x29 16 + .ra: .cfa -8 + ^ x29: .cfa -16 + ^
STACK CFI INIT b384 30 .cfa: sp 0 +
STACK CFI b388 .cfa: sp 32 +
STACK CFI b390 .cfa: x29 32 + x19: .cfa -16 + ^ .ra: .cfa -24 + ^ x29: .cfa -32 + ^
STACK CFI b3a8 .cfa: sp 32 +
STACK CFI b3b0 .cfa: sp 0 +
STACK CFI INIT b3b4 34 .cfa: sp 0 +
STACK CFI b3b8 .cfa: sp 32 +
STACK CFI b3c0 .cfa: x29 32 + x19: .cfa -16 + ^ .ra: .cfa -24 + ^ x29: .cfa -32 + ^
STACK CFI INIT b3e8 124 .cfa: sp 0 +
STACK CFI b3ec .cfa: sp 64 +
STACK CFI b3fc .cfa: x29 64 + x19: .cfa -8 + ^ x20: .cfa -16 + ^ x21: .cfa -24 + ^ x22: .cfa -32 + ^ x23: .cfa -40 + ^ x24: .cfa -48 + ^ .ra: .cfa -56 + ^ x29: .cfa -64 + ^
STACK CFI b4f8 .cfa: sp 64 +
STACK CFI b508 .cfa: sp 0 +
STACK CFI INIT b50c 80 .cfa: sp 0 +
STACK CFI b510 .cfa: sp 48 +
STACK CFI b51c .cfa: x29 48 + x19: .cfa -8 + ^ x20: .cfa -16 + ^ x21: .cfa -24 + ^ x22: .cfa -32 + ^ .ra: .cfa -40 + ^ x29: .cfa -48 + ^
STACK CFI b534 .cfa: sp 48 +
STACK CFI b540 .cfa: sp 0 +
STACK CFI b544 .cfa: x29 48 +
STACK CFI b574 .cfa: sp 48 +
STACK CFI b580 .cfa: sp 0 +
STACK CFI b584 .cfa: x29 48 +
STACK CFI INIT b58c 1b0 .cfa: sp 0 +
STACK CFI INIT b890 34 .cfa: sp 0 +
STACK CFI b894 .cfa: sp 16 +
STACK CFI b898 .cfa: x29 16 + .ra: .cfa -8 + ^ x29: .cfa -16 + ^
STACK CFI INIT b9f0 80 .cfa: sp 0 +
STACK CFI b9f4 .cfa: sp 48 +
STACK CFI ba00 .cfa: x29 48 + x19: .cfa -8 + ^ x20: .cfa -16 + ^ x21: .cfa -32 + ^ .ra: .cfa -40 + ^ x29: .cfa -48 + ^
STACK CFI ba60 .cfa: sp 48 +
STACK CFI ba6c .cfa: sp 0 +
STACK CFI INIT ba70 24 .cfa: sp 0 +
STACK CFI ba74 .cfa: sp 32 +
STACK CFI ba7c .cfa: x29 32 + x19: .cfa -16 + ^ .ra: .cfa -24 + ^ x29: .cfa -32 + ^
STACK CFI ba88 .cfa: sp 32 +
STACK CFI ba90 .cfa: sp 0 +
STACK CFI INIT bf8c 148 .cfa: sp 0 +
STACK CFI bf90 .cfa: sp 48 +
STACK CFI bf9c .cfa: x29 48 + x19: .cfa -8 + ^ x20: .cfa -16 + ^ x21: .cfa -32 + ^ .ra: .cfa -40 + ^ x29: .cfa -48 + ^
STACK CFI c0c4 .cfa: sp 48 +
STACK CFI c0d0 .cfa: sp 0 +
STACK CFI INIT c0d4 4 .cfa: sp 0 +
STACK CFI INIT c0d8 14 .cfa: sp 0 +
STACK CFI INIT c0ec 68 .cfa: sp 0 +
STACK CFI c0f0 .cfa: sp 32 +
STACK CFI c0f8 .cfa: x29 32 + x19: .cfa -8 + ^ x20: .cfa -16 + ^ .ra: .cfa -24 + ^ x29: .cfa -32 + ^
STACK CFI c110 .cfa: sp 32 +
STACK CFI c118 .cfa: sp 0 +
STACK CFI c11c .cfa: x29 32 +
STACK CFI c148 .cfa: sp 32 +
STACK CFI c150 .cfa: sp 0 +
STACK CFI INIT c154 14 .cfa: sp 0 +
STACK CFI c158 .cfa: sp 16 +
STACK CFI c15c .cfa: x29 16 + .ra: .cfa -8 + ^ x29: .cfa -16 + ^
STACK CFI INIT c168 4 .cfa: sp 0 +
STACK CFI INIT c16c 14 .cfa: sp 0 +
STACK CFI INIT c180 84 .cfa: sp 0 +
STACK CFI c188 .cfa: sp 32 +
STACK CFI c190 .cfa: x29 32 + x19: .cfa -8 + ^ x20: .cfa -16 + ^ .ra: .cfa -24 + ^ x29: .cfa -32 + ^
STACK CFI c1d0 .cfa: sp 32 +
STACK CFI c1d8 .cfa: sp 0 +
STACK CFI c1e0 .cfa: x29 32 +
STACK CFI INIT c4f8 100 .cfa: sp 0 +
STACK CFI c4fc .cfa: sp 48 +
STACK CFI c508 .cfa: x29 48 + x19: .cfa -8 + ^ x20: .cfa -16 + ^ x21: .cfa -32 + ^ .ra: .cfa -40 + ^ x29: .cfa -48 + ^
STACK CFI c59c .cfa: sp 48 +
STACK CFI c5a8 .cfa: sp 0 +
STACK CFI c5ac .cfa: x29 48 +
STACK CFI c5bc .cfa: sp 48 +
STACK CFI c5c8 .cfa: sp 0 +
STACK CFI c5cc .cfa: x29 48 +
STACK CFI c5e8 .cfa: sp 48 +
STACK CFI c5f4 .cfa: sp 0 +
STACK CFI INIT c5f8 50 .cfa: sp 0 +
STACK CFI c5fc .cfa: sp 32 +
STACK CFI c604 .cfa: x29 32 + x19: .cfa -16 + ^ .ra: .cfa -24 + ^ x29: .cfa -32 + ^
STACK CFI c61c .cfa: sp 32 +
STACK CFI c624 .cfa: sp 0 +
STACK CFI c628 .cfa: x29 32 +
STACK CFI c63c .cfa: sp 32 +
STACK CFI c644 .cfa: sp 0 +
STACK CFI INIT c648 64 .cfa: sp 0 +
STACK CFI c64c .cfa: sp 32 +
STACK CFI c654 .cfa: x29 32 + x19: .cfa -16 + ^ .ra: .cfa -24 + ^ x29: .cfa -32 + ^
STACK CFI c680 .cfa: sp 32 +
STACK CFI c688 .cfa: sp 0 +
STACK CFI c68c .cfa: x29 32 +
STACK CFI c6a0 .cfa: sp 32 +
STACK CFI c6a8 .cfa: sp 0 +
STACK CFI INIT ce1c e8 .cfa: sp 0 +
STACK CFI ce20 .cfa: sp 48 +
STACK CFI ce2c .cfa: x29 48 + x19: .cfa -8 + ^ x20: .cfa -16 + ^ x21: .cfa -32 + ^ .ra: .cfa -40 + ^ x29: .cfa -48 + ^
STACK CFI ceb4 .cfa: sp 48 +
STACK CFI cec0 .cfa: sp 0 +
STACK CFI cec4 .cfa: x29 48 +
STACK CFI cef4 .cfa: sp 48 +
STACK CFI cf00 .cfa: sp 0 +
STACK CFI INIT cf04 8 .cfa: sp 0 +
STACK CFI INIT cf0c 14 .cfa: sp 0 +
STACK CFI cf10 .cfa: sp 16 +
STACK CFI cf14 .cfa: x29 16 + .ra: .cfa -8 + ^ x29: .cfa -16 + ^
STACK CFI INIT cf20 14 .cfa: sp 0 +
STACK CFI cf24 .cfa: sp 16 +
STACK CFI cf28 .cfa: x29 16 + .ra: .cfa -8 + ^ x29: .cfa -16 + ^
STACK CFI INIT cf34 c .cfa: sp 0 +
STACK CFI cf38 .cfa: sp 16 +
STACK CFI cf3c .cfa: x29 16 + .ra: .cfa -8 + ^ x29: .cfa -16 + ^
STACK CFI INIT cf90 30 .cfa: sp 0 +
STACK CFI cf94 .cfa: sp 32 +
STACK CFI cf9c .cfa: x29 32 + x19: .cfa -16 + ^ .ra: .cfa -24 + ^ x29: .cfa -32 + ^
STACK CFI cfb4 .cfa: sp 32 +
STACK CFI cfbc .cfa: sp 0 +
STACK CFI INIT cfc0 c .cfa: sp 0 +
STACK CFI cfc4 .cfa: sp 16 +
STACK CFI cfc8 .cfa: x29 16 + .ra: .cfa -8 + ^ x29: .cfa -16 + ^
STACK CFI INIT cfcc 3c .cfa: sp 0 +
STACK CFI cfd4 .cfa: sp 32 +
STACK CFI cfdc .cfa: x29 32 + x19: .cfa -16 + ^ .ra: .cfa -24 + ^ x29: .cfa -32 + ^
STACK CFI cff8 .cfa: sp 32 +
STACK CFI d000 .cfa: sp 0 +
STACK CFI INIT d008 4 .cfa: sp 0 +
STACK CFI INIT d00c 4 .cfa: sp 0 +
STACK CFI INIT d010 38 .cfa: sp 0 +
STACK CFI d014 .cfa: sp 32 +
STACK CFI d01c .cfa: x29 32 + x19: .cfa -16 + ^ .ra: .cfa -24 + ^ x29: .cfa -32 + ^
STACK CFI d03c .cfa: sp 32 +
STACK CFI d044 .cfa: sp 0 +
STACK CFI INIT d048 18 .cfa: sp 0 +
STACK CFI INIT d060 4 .cfa: sp 0 +
STACK CFI INIT d064 4 .cfa: sp 0 +
STACK CFI INIT d068 10 .cfa: sp 0 +
STACK CFI INIT d078 1c .cfa: sp 0 +
STACK CFI INIT d094 c .cfa: sp 0 +
STACK CFI INIT d0a0 f8 .cfa: sp 0 +
STACK CFI d0a4 .cfa: sp 64 +
STACK CFI d0b4 .cfa: x29 64 + x19: .cfa -8 + ^ x20: .cfa -16 + ^ x21: .cfa -24 + ^ x22: .cfa -32 + ^ x23: .cfa -48 + ^ .ra: .cfa -56 + ^ x29: .cfa -64 + ^
STACK CFI d110 .cfa: sp 64 +
STACK CFI d120 .cfa: sp 0 +
STACK CFI d124 .cfa: x29 64 +
STACK CFI d140 .cfa: sp 64 +
STACK CFI d150 .cfa: sp 0 +
STACK CFI d154 .cfa: x29 64 +
STACK CFI d184 .cfa: sp 64 +
STACK CFI d194 .cfa: sp 0 +
STACK CFI INIT d198 168 .cfa: sp 0 +
STACK CFI d19c .cfa: sp 80 +
STACK CFI d1b0 .cfa: x29 80 + x19: .cfa -8 + ^ x20: .cfa -16 + ^ x21: .cfa -24 + ^ x22: .cfa -32 + ^ x23: .cfa -40 + ^ x24: .cfa -48 + ^ x25: .cfa -56 + ^ x26: .cfa -64 + ^ .ra: .cfa -72 + ^ x29: .cfa -80 + ^
STACK CFI d2e8 .cfa: sp 80 +
STACK CFI d2fc .cfa: sp 0 +
STACK CFI INIT d300 3c .cfa: sp 0 +
STACK CFI d304 .cfa: sp 32 +
STACK CFI d30c .cfa: x29 32 + x19: .cfa -16 + ^ .ra: .cfa -24 + ^ x29: .cfa -32 + ^
STACK CFI d318 .cfa: sp 32 +
STACK CFI d320 .cfa: sp 0 +
STACK CFI d324 .cfa: x29 32 +
STACK CFI d330 .cfa: sp 32 +
STACK CFI d338 .cfa: sp 0 +
STACK CFI INIT d33c 1f8 .cfa: sp 0 +
STACK CFI d340 .cfa: sp 112 +
STACK CFI d360 .cfa: x29 72 + x19: .cfa -8 + ^ x20: .cfa -16 + ^ x21: .cfa -24 + ^ x22: .cfa -32 + ^ x23: .cfa -40 + ^ x24: .cfa -48 + ^ x25: .cfa -56 + ^ .ra: .cfa -64 + ^ x29: .cfa -72 + ^ v8: .cfa -80 + ^ v9: .cfa -88 + ^ v10: .cfa -96 + ^
STACK CFI d50c .cfa: sp 112 +
STACK CFI d52c .cfa: sp 0 +
STACK CFI d530 .cfa: x29 72 +
STACK CFI INIT 9ed0 d20 .cfa: sp 0 +
STACK CFI 9ed4 .cfa: sp 240 +
STACK CFI 9ef0 .cfa: x29 96 + x19: .cfa -8 + ^ x20: .cfa -16 + ^ x21: .cfa -24 + ^ x22: .cfa -32 + ^ x23: .cfa -40 + ^ x24: .cfa -48 + ^ x25: .cfa -56 + ^ x26: .cfa -64 + ^ x27: .cfa -72 + ^ x28: .cfa -80 + ^ .ra: .cfa -88 + ^ x29: .cfa -96 + ^
STACK CFI a030 .cfa: sp 240 +
STACK CFI a04c .cfa: sp 0 +
STACK CFI a050 .cfa: x29 96 +
STACK CFI aa7c .cfa: sp 240 +
STACK CFI aa98 .cfa: sp 0 +
STACK CFI aa9c .cfa: x29 96 +
STACK CFI INIT ac08 5c4 .cfa: sp 0 +
STACK CFI ac0c .cfa: sp 256 +
STACK CFI ac28 .cfa: x29 96 + x19: .cfa -8 + ^ x20: .cfa -16 + ^ x21: .cfa -24 + ^ x22: .cfa -32 + ^ x23: .cfa -40 + ^ x24: .cfa -48 + ^ x25: .cfa -56 + ^ x26: .cfa -64 + ^ x27: .cfa -80 + ^ .ra: .cfa -88 + ^ x29: .cfa -96 + ^
STACK CFI affc .cfa: sp 256 +
STACK CFI b018 .cfa: sp 0 +
STACK CFI b01c .cfa: x29 96 +
STACK CFI INIT b21c 74 .cfa: sp 0 +
STACK CFI b220 .cfa: sp 48 +
STACK CFI b22c .cfa: x29 32 + x19: .cfa -8 + ^ x20: .cfa -16 + ^ .ra: .cfa -24 + ^ x29: .cfa -32 + ^
STACK CFI b278 .cfa: sp 48 +
STACK CFI b284 .cfa: sp 0 +
STACK CFI b288 .cfa: x29 32 +
STACK CFI INIT b334 50 .cfa: sp 0 +
STACK CFI b338 .cfa: sp 32 +
STACK CFI b340 .cfa: x29 32 + x19: .cfa -8 + ^ x20: .cfa -16 + ^ .ra: .cfa -24 + ^ x29: .cfa -32 + ^
STACK CFI INIT b73c 154 .cfa: sp 0 +
STACK CFI b740 .cfa: sp 384 +
STACK CFI b754 .cfa: x29 64 + x19: .cfa -8 + ^ x20: .cfa -16 + ^ x21: .cfa -24 + ^ x22: .cfa -32 + ^ x23: .cfa -40 + ^ x28: .cfa -48 + ^ .ra: .cfa -56 + ^ x29: .cfa -64 + ^
STACK CFI b838 .cfa: sp 384 +
STACK CFI b84c .cfa: sp 0 +
STACK CFI b850 .cfa: x29 64 +
STACK CFI INIT b8c4 12c .cfa: sp 0 +
STACK CFI b8c8 .cfa: sp 80 +
STACK CFI b8dc .cfa: x29 80 + x19: .cfa -8 + ^ x20: .cfa -16 + ^ x21: .cfa -24 + ^ x22: .cfa -32 + ^ x23: .cfa -40 + ^ x24: .cfa -48 + ^ x25: .cfa -56 + ^ x26: .cfa -64 + ^ .ra: .cfa -72 + ^ x29: .cfa -80 + ^
STACK CFI b9a4 .cfa: sp 80 +
STACK CFI b9b8 .cfa: sp 0 +
STACK CFI b9bc .cfa: x29 80 +
STACK CFI INIT ba94 1a4 .cfa: sp 0 +
STACK CFI ba98 .cfa: sp 112 +
STACK CFI bab0 .cfa: x29 80 + x19: .cfa -8 + ^ x20: .cfa -16 + ^ x21: .cfa -24 + ^ x22: .cfa -32 + ^ x23: .cfa -40 + ^ x24: .cfa -48 + ^ x25: .cfa -56 + ^ x26: .cfa -64 + ^ .ra: .cfa -72 + ^ x29: .cfa -80 + ^
STACK CFI bba0 .cfa: sp 112 +
STACK CFI bbb8 .cfa: sp 0 +
STACK CFI bbbc .cfa: x29 80 +
STACK CFI INIT bc38 1dc .cfa: sp 0 +
STACK CFI bc3c .cfa: sp 128 +
STACK CFI bc58 .cfa: x29 96 + x19: .cfa -8 + ^ x20: .cfa -16 + ^ x21: .cfa -24 + ^ x22: .cfa -32 + ^ x23: .cfa -40 + ^ x24: .cfa -48 + ^ x25: .cfa -56 + ^ x26: .cfa -64 + ^ x27: .cfa -80 + ^ .ra: .cfa -88 + ^ x29: .cfa -96 + ^
STACK CFI bdc4 .cfa: sp 128 +
STACK CFI bde0 .cfa: sp 0 +
STACK CFI bde4 .cfa: x29 96 +
STACK CFI INIT be14 178 .cfa: sp 0 +
STACK CFI be18 .cfa: sp 80 +
STACK CFI be2c .cfa: x29 80 + x19: .cfa -8 + ^ x20: .cfa -16 + ^ x21: .cfa -24 + ^ x22: .cfa -32 + ^ x23: .cfa -40 + ^ x24: .cfa -48 + ^ x25: .cfa -64 + ^ .ra: .cfa -72 + ^ x29: .cfa -80 + ^
STACK CFI bf58 .cfa: sp 80 +
STACK CFI bf6c .cfa: sp 0 +
STACK CFI bf70 .cfa: x29 80 +
STACK CFI INIT c204 2f4 .cfa: sp 0 +
STACK CFI c208 .cfa: sp 176 +
STACK CFI c224 .cfa: x29 80 + x19: .cfa -8 + ^ x20: .cfa -16 + ^ x21: .cfa -24 + ^ x22: .cfa -32 + ^ x23: .cfa -40 + ^ x24: .cfa -48 + ^ x25: .cfa -56 + ^ x26: .cfa -64 + ^ .ra: .cfa -72 + ^ x29: .cfa -80 + ^ v8: .cfa -96 + ^
STACK CFI c4a4 .cfa: sp 176 +
STACK CFI c4c0 .cfa: sp 0 +
STACK CFI c4c4 .cfa: x29 80 +
STACK CFI INIT c6ac 770 .cfa: sp 0 +
STACK CFI c6b0 .cfa: sp 224 +
STACK CFI c6cc .cfa: x29 96 + x19: .cfa -8 + ^ x20: .cfa -16 + ^ x21: .cfa -24 + ^ x22: .cfa -32 + ^ x23: .cfa -40 + ^ x24: .cfa -48 + ^ x25: .cfa -56 + ^ x26: .cfa -64 + ^ x27: .cfa -72 + ^ x28: .cfa -80 + ^ .ra: .cfa -88 + ^ x29: .cfa -96 + ^
STACK CFI cc9c .cfa: sp 224 +
STACK CFI ccb8 .cfa: sp 0 +
STACK CFI ccbc .cfa: x29 96 +
STACK CFI INIT cf40 50 .cfa: sp 0 +
STACK CFI cf44 .cfa: sp 32 +
STACK CFI cf4c .cfa: x29 32 + x19: .cfa -8 + ^ x20: .cfa -16 + ^ .ra: .cfa -24 + ^ x29: .cfa -32 + ^
