MODULE Linux arm64 B3D2C2277EB760208A5370C7FB680D950 hiimjustin000.more_object_info.android64.so
INFO CODE_ID 27C2D2B3B77E20608A5370C7FB680D95BA267872
INFO GENERATOR mozilla/dump_syms 2.3.4
PUBLIC fd80 0 __on_dlclose
PUBLIC fd90 0 __emutls_unregister_key
PUBLIC fd98 0 __on_dlclose_late
PUBLIC fda0 0 __atexit_handler_wrapper
PUBLIC fdb4 0 atexit
PUBLIC fdd0 0 pthread_atfork
PUBLIC fde0 0 __aarch64_ldadd8_relax
PUBLIC fe10 0 init_have_lse_atomics
PUBLIC fea8 0 __init_cpu_features_constructor
PUBLIC 10444 0 __init_cpu_features
PUBLIC 104d0 0 __aarch64_ldadd8_acq_rel
PUBLIC 10500 0 __cxx_global_var_init
PUBLIC 10d3c 0 geode::modifier::ModifyBase<geode::modifier::ModifyDerive<MOIEditorUI, EditorUI> >::~ModifyBase()
PUBLIC 10d58 0 geode::modifier::ModifyDerive<MOIEditorUI, EditorUI>::apply()
PUBLIC 114c0 0 std::__ndk1::shared_ptr<geode::Hook>::~shared_ptr[abi:ne180000]()
PUBLIC 11510 0 geode::impl::ResultData<geode::Hook*, std::__ndk1::basic_string<char, std::__ndk1::char_traits<char>, std::__ndk1::allocator<char> > >::~ResultData()
PUBLIC 11584 0 std::__ndk1::vector<std::__ndk1::basic_string<char, std::__ndk1::char_traits<char>, std::__ndk1::allocator<char> >, std::__ndk1::allocator<std::__ndk1::basic_string<char, std::__ndk1::char_traits<char>, std::__ndk1::allocator<char> > > >::~vector[abi:ne180000]()
PUBLIC 11600 0 geode::modifier::ModifyBase<geode::modifier::ModifyDerive<MOIEditorUI, EditorUI> >::apply()
PUBLIC 11604 0 __clang_call_terminate
PUBLIC 11614 0 geode::modifier::ModifyBase<geode::modifier::ModifyDerive<MOIEditorUI, EditorUI> >::getHook(std::__ndk1::basic_string_view<char, std::__ndk1::char_traits<char> >)
PUBLIC 117c4 0 std::__ndk1::basic_string<char, std::__ndk1::char_traits<char>, std::__ndk1::allocator<char> >::__throw_length_error[abi:ne180000]() const
PUBLIC 117d8 0 std::__ndk1::__throw_length_error[abi:ne180000](char const*)
PUBLIC 11828 0 std::length_error::length_error[abi:ne180000](char const*)
PUBLIC 11858 0 std::__throw_bad_array_new_length([abi:ne180000], void)
PUBLIC 1188c 0 std::__ndk1::__tree<std::__ndk1::__value_type<std::__ndk1::basic_string<char, std::__ndk1::char_traits<char>, std::__ndk1::allocator<char> >, std::__ndk1::shared_ptr<geode::Hook> >, std::__ndk1::__map_value_compare<std::__ndk1::basic_string<char, std::__ndk1::char_traits<char>, std::__ndk1::allocator<char> >, std::__ndk1::__value_type<std::__ndk1::basic_string<char, std::__ndk1::char_traits<char>, std::__ndk1::allocator<char> >, std::__ndk1::shared_ptr<geode::Hook> >, std::__ndk1::less<std::__ndk1::basic_string<char, std::__ndk1::char_traits<char>, std::__ndk1::allocator<char> > >, true>, std::__ndk1::allocator<std::__ndk1::__value_type<std::__ndk1::basic_string<char, std::__ndk1::char_traits<char>, std::__ndk1::allocator<char> >, std::__ndk1::shared_ptr<geode::Hook> > > >::find<std::__ndk1::basic_string<char, std::__ndk1::char_traits<char>, std::__ndk1::allocator<char> > >(std::__ndk1::basic_string<char, std::__ndk1::char_traits<char>, std::__ndk1::allocator<char> > const&)
PUBLIC 119ac 0 std::__ndk1::__tree<std::__ndk1::__value_type<std::__ndk1::basic_string<char, std::__ndk1::char_traits<char>, std::__ndk1::allocator<char> >, std::__ndk1::shared_ptr<geode::Hook> >, std::__ndk1::__map_value_compare<std::__ndk1::basic_string<char, std::__ndk1::char_traits<char>, std::__ndk1::allocator<char> >, std::__ndk1::__value_type<std::__ndk1::basic_string<char, std::__ndk1::char_traits<char>, std::__ndk1::allocator<char> >, std::__ndk1::shared_ptr<geode::Hook> >, std::__ndk1::less<std::__ndk1::basic_string<char, std::__ndk1::char_traits<char>, std::__ndk1::allocator<char> > >, true>, std::__ndk1::allocator<std::__ndk1::__value_type<std::__ndk1::basic_string<char, std::__ndk1::char_traits<char>, std::__ndk1::allocator<char> >, std::__ndk1::shared_ptr<geode::Hook> > > >::__emplace_unique_key_args<std::__ndk1::basic_string<char, std::__ndk1::char_traits<char>, std::__ndk1::allocator<char> >, std::__ndk1::piecewise_construct_t const&, std::__ndk1::tuple<std::__ndk1::basic_string<char, std::__ndk1::char_traits<char>, std::__ndk1::allocator<char> > const&>, std::__ndk1::tuple<> >(std::__ndk1::basic_string<char, std::__ndk1::char_traits<char>, std::__ndk1::allocator<char> > const&, std::__ndk1::piecewise_construct_t const&, std::__ndk1::tuple<std::__ndk1::basic_string<char, std::__ndk1::char_traits<char>, std::__ndk1::allocator<char> > const&>, std::__ndk1::tuple<>)
PUBLIC 11ba0 0 std::__ndk1::unique_ptr<std::__ndk1::__tree_node<std::__ndk1::__value_type<std::__ndk1::basic_string<char, std::__ndk1::char_traits<char>, std::__ndk1::allocator<char> >, std::__ndk1::shared_ptr<geode::Hook> >, void*>, std::__ndk1::__tree_node_destructor<std::__ndk1::allocator<std::__ndk1::__tree_node<std::__ndk1::__value_type<std::__ndk1::basic_string<char, std::__ndk1::char_traits<char>, std::__ndk1::allocator<char> >, std::__ndk1::shared_ptr<geode::Hook> >, void*> > > >::~unique_ptr[abi:ne180000]()
PUBLIC 11c1c 0 std::__ndk1::basic_string<char, std::__ndk1::char_traits<char>, std::__ndk1::allocator<char> >::__init_copy_ctor_external(char const*, unsigned long)
PUBLIC 11c9c 0 std::__ndk1::__tree_balance_after_insert[abi:ne180000]<std::__ndk1::__tree_node_base<void*>*>(std::__ndk1::__tree_node_base<void*>*, std::__ndk1::__tree_node_base<void*>*)
PUBLIC 11e4c 0 std::__ndk1::__throw_bad_variant_access[abi:ne180000]()
PUBLIC 11e80 0 std::__ndk1::__function::__base<void (std::__ndk1::shared_ptr<geode::SettingV3>)>::~__base()
PUBLIC 11e84 0 std::__ndk1::__function::__func<MOIEditorUI::onModify(geode::modifier::ModifyBase<geode::modifier::ModifyDerive<MOIEditorUI, EditorUI> >&)::{lambda(std::__ndk1::shared_ptr<geode::SettingV3>)#1}, std::__ndk1::allocator<MOIEditorUI::onModify(geode::modifier::ModifyBase<geode::modifier::ModifyDerive<MOIEditorUI, EditorUI> >&)::{lambda(std::__ndk1::shared_ptr<geode::SettingV3>)#1}>, void (std::__ndk1::shared_ptr<geode::SettingV3>)>::~__func()
PUBLIC 11e88 0 std::__ndk1::__function::__func<MOIEditorUI::onModify(geode::modifier::ModifyBase<geode::modifier::ModifyDerive<MOIEditorUI, EditorUI> >&)::{lambda(std::__ndk1::shared_ptr<geode::SettingV3>)#1}, std::__ndk1::allocator<MOIEditorUI::onModify(geode::modifier::ModifyBase<geode::modifier::ModifyDerive<MOIEditorUI, EditorUI> >&)::{lambda(std::__ndk1::shared_ptr<geode::SettingV3>)#1}>, void (std::__ndk1::shared_ptr<geode::SettingV3>)>::__clone() const
PUBLIC 11ec8 0 std::__ndk1::__function::__func<MOIEditorUI::onModify(geode::modifier::ModifyBase<geode::modifier::ModifyDerive<MOIEditorUI, EditorUI> >&)::{lambda(std::__ndk1::shared_ptr<geode::SettingV3>)#1}, std::__ndk1::allocator<MOIEditorUI::onModify(geode::modifier::ModifyBase<geode::modifier::ModifyDerive<MOIEditorUI, EditorUI> >&)::{lambda(std::__ndk1::shared_ptr<geode::SettingV3>)#1}>, void (std::__ndk1::shared_ptr<geode::SettingV3>)>::__clone(std::__ndk1::__function::__base<void (std::__ndk1::shared_ptr<geode::SettingV3>)>*) const
PUBLIC 11ee8 0 std::__ndk1::__function::__func<MOIEditorUI::onModify(geode::modifier::ModifyBase<geode::modifier::ModifyDerive<MOIEditorUI, EditorUI> >&)::{lambda(std::__ndk1::shared_ptr<geode::SettingV3>)#1}, std::__ndk1::allocator<MOIEditorUI::onModify(geode::modifier::ModifyBase<geode::modifier::ModifyDerive<MOIEditorUI, EditorUI> >&)::{lambda(std::__ndk1::shared_ptr<geode::SettingV3>)#1}>, void (std::__ndk1::shared_ptr<geode::SettingV3>)>::destroy()
PUBLIC 11eec 0 std::__ndk1::__function::__func<MOIEditorUI::onModify(geode::modifier::ModifyBase<geode::modifier::ModifyDerive<MOIEditorUI, EditorUI> >&)::{lambda(std::__ndk1::shared_ptr<geode::SettingV3>)#1}, std::__ndk1::allocator<MOIEditorUI::onModify(geode::modifier::ModifyBase<geode::modifier::ModifyDerive<MOIEditorUI, EditorUI> >&)::{lambda(std::__ndk1::shared_ptr<geode::SettingV3>)#1}>, void (std::__ndk1::shared_ptr<geode::SettingV3>)>::destroy_deallocate()
PUBLIC 11ef0 0 std::__ndk1::__function::__func<MOIEditorUI::onModify(geode::modifier::ModifyBase<geode::modifier::ModifyDerive<MOIEditorUI, EditorUI> >&)::{lambda(std::__ndk1::shared_ptr<geode::SettingV3>)#1}, std::__ndk1::allocator<MOIEditorUI::onModify(geode::modifier::ModifyBase<geode::modifier::ModifyDerive<MOIEditorUI, EditorUI> >&)::{lambda(std::__ndk1::shared_ptr<geode::SettingV3>)#1}>, void (std::__ndk1::shared_ptr<geode::SettingV3>)>::operator()(std::__ndk1::shared_ptr<geode::SettingV3>&&)
PUBLIC 124e4 0 std::__ndk1::__function::__func<MOIEditorUI::onModify(geode::modifier::ModifyBase<geode::modifier::ModifyDerive<MOIEditorUI, EditorUI> >&)::{lambda(std::__ndk1::shared_ptr<geode::SettingV3>)#1}, std::__ndk1::allocator<MOIEditorUI::onModify(geode::modifier::ModifyBase<geode::modifier::ModifyDerive<MOIEditorUI, EditorUI> >&)::{lambda(std::__ndk1::shared_ptr<geode::SettingV3>)#1}>, void (std::__ndk1::shared_ptr<geode::SettingV3>)>::target(std::type_info const&) const
PUBLIC 12500 0 std::__ndk1::__function::__func<MOIEditorUI::onModify(geode::modifier::ModifyBase<geode::modifier::ModifyDerive<MOIEditorUI, EditorUI> >&)::{lambda(std::__ndk1::shared_ptr<geode::SettingV3>)#1}, std::__ndk1::allocator<MOIEditorUI::onModify(geode::modifier::ModifyBase<geode::modifier::ModifyDerive<MOIEditorUI, EditorUI> >&)::{lambda(std::__ndk1::shared_ptr<geode::SettingV3>)#1}>, void (std::__ndk1::shared_ptr<geode::SettingV3>)>::target_type() const
PUBLIC 1250c 0 std::__ndk1::shared_ptr<geode::SettingV3>::~shared_ptr[abi:ne180000]()
PUBLIC 1255c 0 geode::impl::ResultData<void, std::__ndk1::basic_string<char, std::__ndk1::char_traits<char>, std::__ndk1::allocator<char> > >::~ResultData()
PUBLIC 125d0 0 geode::UnwrapException::~UnwrapException()
PUBLIC 125f4 0 std::__ndk1::__variant_detail::__visitation::__base::__dispatcher<(unsigned long)0>::__dispatch[abi:ne180000]<std::__ndk1::__variant_detail::__dtor<std::__ndk1::__variant_detail::__traits<std::__ndk1::monostate, std::__ndk1::basic_string<char, std::__ndk1::char_traits<char>, std::__ndk1::allocator<char> > >, (std::__ndk1::__variant_detail::_Trait)1>::__destroy[abi:ne180000]()::{lambda(auto:1&)#1}, std::__ndk1::__variant_detail::__base<(std::__ndk1::__variant_detail::__traits<std::__ndk1::monostate, std::__ndk1::basic_string<char, std::__ndk1::char_traits<char>, std::__ndk1::allocator<char> > >)1, std::__ndk1::__variant_detail::__traits, std::__ndk1::allocator<char> >&>(std::__ndk1::__variant_detail::__dtor<std::__ndk1::__variant_detail::__traits<std::__ndk1::monostate, std::__ndk1::basic_string<char, std::__ndk1::char_traits<char>, std::__ndk1::allocator<char> > >, (std::__ndk1::__variant_detail::_Trait)1>, std::__ndk1::__variant_detail::__base<(std::__ndk1::__variant_detail::__traits<std::__ndk1::monostate, std::__ndk1::basic_string<char, std::__ndk1::char_traits<char>, std::__ndk1::allocator<char> > >)1, std::__ndk1::__variant_detail::__traits, std::__ndk1::allocator<char> >&)
PUBLIC 125f8 0 std::__ndk1::__variant_detail::__visitation::__base::__dispatcher<(unsigned long)1>::__dispatch[abi:ne180000]<std::__ndk1::__variant_detail::__dtor<std::__ndk1::__variant_detail::__traits<std::__ndk1::monostate, std::__ndk1::basic_string<char, std::__ndk1::char_traits<char>, std::__ndk1::allocator<char> > >, (std::__ndk1::__variant_detail::_Trait)1>::__destroy[abi:ne180000]()::{lambda(auto:1&)#1}, std::__ndk1::__variant_detail::__base<(std::__ndk1::__variant_detail::__traits<std::__ndk1::monostate, std::__ndk1::basic_string<char, std::__ndk1::char_traits<char>, std::__ndk1::allocator<char> > >)1, std::__ndk1::__variant_detail::__traits, std::__ndk1::allocator<char> >&>(std::__ndk1::__variant_detail::__dtor<std::__ndk1::__variant_detail::__traits<std::__ndk1::monostate, std::__ndk1::basic_string<char, std::__ndk1::char_traits<char>, std::__ndk1::allocator<char> > >, (std::__ndk1::__variant_detail::_Trait)1>, std::__ndk1::__variant_detail::__base<(std::__ndk1::__variant_detail::__traits<std::__ndk1::monostate, std::__ndk1::basic_string<char, std::__ndk1::char_traits<char>, std::__ndk1::allocator<char> > >)1, std::__ndk1::__variant_detail::__traits, std::__ndk1::allocator<char> >&)
PUBLIC 1260c 0 _ZN5geode15UnwrapExceptionC2IRPNS_4HookEQsr4implE18IsStringStreamableIT_EEENS_4impl5OkTagEOS5_
PUBLIC 12760 0 std::__ndk1::basic_stringstream<char, std::__ndk1::char_traits<char>, std::__ndk1::allocator<char> >::basic_stringstream[abi:ne180000]()
PUBLIC m 1288c 0 std::__ndk1::basic_stringstream<char, std::__ndk1::char_traits<char>, std::__ndk1::allocator<char> >::~basic_stringstream()
PUBLIC 1290c 0 std::__ndk1::__put_character_sequence[abi:ne180000]<char, std::__ndk1::char_traits<char> >(std::__ndk1::basic_ostream<char, std::__ndk1::char_traits<char> >, std::__ndk1::basic_ostream const*, unsigned long)
PUBLIC 12ab0 0 std::__ndk1::__pad_and_output[abi:ne180000]<char, std::__ndk1::char_traits<char> >(std::__ndk1::char_traits<char>, std::__ndk1::ostreambuf_iterator const*, std::__ndk1::ostreambuf_iterator const, std::__ndk1::ostreambuf_iterator const, std::__ndk1::ios_base&, std::__ndk1::ostreambuf_iterator)
PUBLIC 12c8c 0 std::__ndk1::basic_stringbuf<char, std::__ndk1::char_traits<char>, std::__ndk1::allocator<char> >::str[abi:ne180000]() &&
PUBLIC 12e04 0 std::__ndk1::basic_stringbuf<char, std::__ndk1::char_traits<char>, std::__ndk1::allocator<char> >::__init_buf_ptrs[abi:ne180000]()
PUBLIC 12f4c 0 std::__ndk1::vector<std::__ndk1::basic_string<char, std::__ndk1::char_traits<char>, std::__ndk1::allocator<char> >, std::__ndk1::allocator<std::__ndk1::basic_string<char, std::__ndk1::char_traits<char>, std::__ndk1::allocator<char> > > >::__push_back_slow_path<std::__ndk1::basic_string<char, std::__ndk1::char_traits<char>, std::__ndk1::allocator<char> > const&>(std::__ndk1::basic_string<char, std::__ndk1::char_traits<char>, std::__ndk1::allocator<char> > const&)
PUBLIC 13174 0 std::__ndk1::__split_buffer<std::__ndk1::basic_string<char, std::__ndk1::char_traits<char>, std::__ndk1::allocator<char> >, std::__ndk1::allocator<std::__ndk1::basic_string<char, std::__ndk1::char_traits<char>, std::__ndk1::allocator<char> > >&>::~__split_buffer()
PUBLIC 131dc 0 std::__ndk1::vector<std::__ndk1::basic_string<char, std::__ndk1::char_traits<char>, std::__ndk1::allocator<char> >, std::__ndk1::allocator<std::__ndk1::basic_string<char, std::__ndk1::char_traits<char>, std::__ndk1::allocator<char> > > >::__throw_length_error[abi:ne180000]() const
PUBLIC 131f0 0 std::__ndk1::__variant_detail::__visitation::__base::__dispatcher<(unsigned long)0>::__dispatch[abi:ne180000]<std::__ndk1::__variant_detail::__dtor<std::__ndk1::__variant_detail::__traits<geode::Hook*, std::__ndk1::basic_string<char, std::__ndk1::char_traits<char>, std::__ndk1::allocator<char> > >, (std::__ndk1::__variant_detail::_Trait)1>::__destroy[abi:ne180000]()::{lambda(auto:1&)#1}, std::__ndk1::__variant_detail::__base<(std::__ndk1::__variant_detail::__traits<geode::Hook*, std::__ndk1::basic_string<char, std::__ndk1::char_traits<char>, std::__ndk1::allocator<char> > >)1, geode::Hook, std::__ndk1::allocator<char> >&>(std::__ndk1::__variant_detail::__dtor<std::__ndk1::__variant_detail::__traits<geode::Hook*, std::__ndk1::basic_string<char, std::__ndk1::char_traits<char>, std::__ndk1::allocator<char> > >, (std::__ndk1::__variant_detail::_Trait)1>, std::__ndk1::__variant_detail::__base<(std::__ndk1::__variant_detail::__traits<geode::Hook*, std::__ndk1::basic_string<char, std::__ndk1::char_traits<char>, std::__ndk1::allocator<char> > >)1, geode::Hook, std::__ndk1::allocator<char> >&)
PUBLIC 131f4 0 std::__ndk1::__variant_detail::__visitation::__base::__dispatcher<(unsigned long)1>::__dispatch[abi:ne180000]<std::__ndk1::__variant_detail::__dtor<std::__ndk1::__variant_detail::__traits<geode::Hook*, std::__ndk1::basic_string<char, std::__ndk1::char_traits<char>, std::__ndk1::allocator<char> > >, (std::__ndk1::__variant_detail::_Trait)1>::__destroy[abi:ne180000]()::{lambda(auto:1&)#1}, std::__ndk1::__variant_detail::__base<(std::__ndk1::__variant_detail::__traits<geode::Hook*, std::__ndk1::basic_string<char, std::__ndk1::char_traits<char>, std::__ndk1::allocator<char> > >)1, geode::Hook, std::__ndk1::allocator<char> >&>(std::__ndk1::__variant_detail::__dtor<std::__ndk1::__variant_detail::__traits<geode::Hook*, std::__ndk1::basic_string<char, std::__ndk1::char_traits<char>, std::__ndk1::allocator<char> > >, (std::__ndk1::__variant_detail::_Trait)1>, std::__ndk1::__variant_detail::__base<(std::__ndk1::__variant_detail::__traits<geode::Hook*, std::__ndk1::basic_string<char, std::__ndk1::char_traits<char>, std::__ndk1::allocator<char> > >)1, geode::Hook, std::__ndk1::allocator<char> >&)
PUBLIC 13208 0 std::__ndk1::__tree<std::__ndk1::__value_type<std::__ndk1::basic_string<char, std::__ndk1::char_traits<char>, std::__ndk1::allocator<char> >, std::__ndk1::shared_ptr<geode::Hook> >, std::__ndk1::__map_value_compare<std::__ndk1::basic_string<char, std::__ndk1::char_traits<char>, std::__ndk1::allocator<char> >, std::__ndk1::__value_type<std::__ndk1::basic_string<char, std::__ndk1::char_traits<char>, std::__ndk1::allocator<char> >, std::__ndk1::shared_ptr<geode::Hook> >, std::__ndk1::less<std::__ndk1::basic_string<char, std::__ndk1::char_traits<char>, std::__ndk1::allocator<char> > >, true>, std::__ndk1::allocator<std::__ndk1::__value_type<std::__ndk1::basic_string<char, std::__ndk1::char_traits<char>, std::__ndk1::allocator<char> >, std::__ndk1::shared_ptr<geode::Hook> > > >::erase(std::__ndk1::__tree_const_iterator<std::__ndk1::__value_type<std::__ndk1::basic_string<char, std::__ndk1::char_traits<char>, std::__ndk1::allocator<char> >, std::__ndk1::shared_ptr<geode::Hook> >, std::__ndk1::__tree_node<std::__ndk1::__value_type<std::__ndk1::basic_string<char, std::__ndk1::char_traits<char>, std::__ndk1::allocator<char> >, std::__ndk1::shared_ptr<geode::Hook> >, void*>*, long>)
PUBLIC 132dc 0 std::__ndk1::__tree_remove[abi:ne180000]<std::__ndk1::__tree_node_base<void*>*>(std::__ndk1::__tree_node_base<void*>*, std::__ndk1::__tree_node_base<void*>*)
PUBLIC 136a4 0 std::__ndk1::__tree<std::__ndk1::__value_type<std::__ndk1::basic_string<char, std::__ndk1::char_traits<char>, std::__ndk1::allocator<char> >, std::__ndk1::shared_ptr<geode::Hook> >, std::__ndk1::__map_value_compare<std::__ndk1::basic_string<char, std::__ndk1::char_traits<char>, std::__ndk1::allocator<char> >, std::__ndk1::__value_type<std::__ndk1::basic_string<char, std::__ndk1::char_traits<char>, std::__ndk1::allocator<char> >, std::__ndk1::shared_ptr<geode::Hook> >, std::__ndk1::less<std::__ndk1::basic_string<char, std::__ndk1::char_traits<char>, std::__ndk1::allocator<char> > >, true>, std::__ndk1::allocator<std::__ndk1::__value_type<std::__ndk1::basic_string<char, std::__ndk1::char_traits<char>, std::__ndk1::allocator<char> >, std::__ndk1::shared_ptr<geode::Hook> > > >::destroy(std::__ndk1::__tree_node<std::__ndk1::__value_type<std::__ndk1::basic_string<char, std::__ndk1::char_traits<char>, std::__ndk1::allocator<char> >, std::__ndk1::shared_ptr<geode::Hook> >, void*>*)
PUBLIC 13730 0 geode::Hook::create<void (*)(MOIEditorUI*, EditCommand)>(void*, void (*)(MOIEditorUI*, EditCommand), std::__ndk1::basic_string<char, std::__ndk1::char_traits<char>, std::__ndk1::allocator<char> > const&, tulip::hook::TulipConvention, tulip::hook::HookMetadata const&)
PUBLIC 138b4 0 geode::modifier::AsStaticFunction_moveObjectCall<MOIEditorUI, void (MOIEditorUI::*)(EditCommand)>::Impl<void (MOIEditorUI::*)(EditCommand)>::function(MOIEditorUI*, EditCommand)
PUBLIC 138d8 0 geode::modifier::AsStaticFunction_transformObjectCall<MOIEditorUI, void (MOIEditorUI::*)(EditCommand)>::Impl<void (MOIEditorUI::*)(EditCommand)>::function(MOIEditorUI*, EditCommand)
PUBLIC 138fc 0 geode::modifier::AsStaticFunction_updateObjectInfoLabel<MOIEditorUI, void (MOIEditorUI::*)()>::Impl<void (MOIEditorUI::*)()>::function(MOIEditorUI*)
PUBLIC 14e50 0 std::__ndk1::shared_ptr<tulip::hook::CallingConvention>::~shared_ptr[abi:ne180000]()
PUBLIC 14ea0 0 tulip::hook::HandlerMetadata::~HandlerMetadata()
PUBLIC 14f04 0 std::__ndk1::__tree<std::__ndk1::__value_type<std::__ndk1::basic_string<char, std::__ndk1::char_traits<char>, std::__ndk1::allocator<char> >, std::__ndk1::shared_ptr<geode::Hook> >, std::__ndk1::__map_value_compare<std::__ndk1::basic_string<char, std::__ndk1::char_traits<char>, std::__ndk1::allocator<char> >, std::__ndk1::__value_type<std::__ndk1::basic_string<char, std::__ndk1::char_traits<char>, std::__ndk1::allocator<char> >, std::__ndk1::shared_ptr<geode::Hook> >, std::__ndk1::less<std::__ndk1::basic_string<char, std::__ndk1::char_traits<char>, std::__ndk1::allocator<char> > >, true>, std::__ndk1::allocator<std::__ndk1::__value_type<std::__ndk1::basic_string<char, std::__ndk1::char_traits<char>, std::__ndk1::allocator<char> >, std::__ndk1::shared_ptr<geode::Hook> > > >::__emplace_unique_key_args<std::__ndk1::basic_string<char, std::__ndk1::char_traits<char>, std::__ndk1::allocator<char> >, std::__ndk1::piecewise_construct_t const&, std::__ndk1::tuple<std::__ndk1::basic_string<char, std::__ndk1::char_traits<char>, std::__ndk1::allocator<char> >&&>, std::__ndk1::tuple<> >(std::__ndk1::basic_string<char, std::__ndk1::char_traits<char>, std::__ndk1::allocator<char> > const&, std::__ndk1::piecewise_construct_t const&, std::__ndk1::tuple<std::__ndk1::basic_string<char, std::__ndk1::char_traits<char>, std::__ndk1::allocator<char> >&&>, std::__ndk1::tuple<>)
PUBLIC 1507c 0 __cxx_global_var_init
PUBLIC 159e4 0 geode::modifier::ModifyBase<geode::modifier::ModifyDerive<MOIGJRotationControl, GJRotationControl> >::~ModifyBase()
PUBLIC 15a00 0 geode::modifier::ModifyDerive<MOIGJRotationControl, GJRotationControl>::apply()
PUBLIC 161f4 0 geode::modifier::ModifyBase<geode::modifier::ModifyDerive<MOIGJRotationControl, GJRotationControl> >::apply()
PUBLIC 161f8 0 geode::modifier::ModifyBase<geode::modifier::ModifyDerive<MOIGJRotationControl, GJRotationControl> >::getHook(std::__ndk1::basic_string_view<char, std::__ndk1::char_traits<char> >)
PUBLIC 163a8 0 geode::EventListener<geode::SettingChangedFilterV3>::EventListener(std::__ndk1::function<void (std::__ndk1::shared_ptr<geode::SettingV3>)>, geode::SettingChangedFilterV3)
PUBLIC 1649c 0 geode::SettingChangedFilterV3::~SettingChangedFilterV3()
PUBLIC 164ec 0 _ZNSt6__ndk110__function6__funcIZN14MoreObjectInfo15settingListenerITn14TemplateStringXtlS4_ILm20EEtlA20_cLc100ELc121ELc110ELc97ELc109ELc105ELc99ELc45ELc111ELc98ELc106ELc101ELc99ELc116ELc45ELc105ELc110ELc102ELc111EEEEbZN20MOIGJRotationControl8onModifyERN5geode8modifier10ModifyBaseINS9_12ModifyDeriveIS7_17GJRotationControlEEEEEUlbE_EEPNS8_13EventListenerINS8_22SettingChangedFilterV3EEEOT1_PNS8_3ModEEUlNS_10shared_ptrINS8_9SettingV3EEEE_NS_9allocatorISS_EEFvSR_EED0Ev
PUBLIC 164f0 0 _ZNKSt6__ndk110__function6__funcIZN14MoreObjectInfo15settingListenerITn14TemplateStringXtlS4_ILm20EEtlA20_cLc100ELc121ELc110ELc97ELc109ELc105ELc99ELc45ELc111ELc98ELc106ELc101ELc99ELc116ELc45ELc105ELc110ELc102ELc111EEEEbZN20MOIGJRotationControl8onModifyERN5geode8modifier10ModifyBaseINS9_12ModifyDeriveIS7_17GJRotationControlEEEEEUlbE_EEPNS8_13EventListenerINS8_22SettingChangedFilterV3EEEOT1_PNS8_3ModEEUlNS_10shared_ptrINS8_9SettingV3EEEE_NS_9allocatorISS_EEFvSR_EE7__cloneEv
PUBLIC 16530 0 _ZNKSt6__ndk110__function6__funcIZN14MoreObjectInfo15settingListenerITn14TemplateStringXtlS4_ILm20EEtlA20_cLc100ELc121ELc110ELc97ELc109ELc105ELc99ELc45ELc111ELc98ELc106ELc101ELc99ELc116ELc45ELc105ELc110ELc102ELc111EEEEbZN20MOIGJRotationControl8onModifyERN5geode8modifier10ModifyBaseINS9_12ModifyDeriveIS7_17GJRotationControlEEEEEUlbE_EEPNS8_13EventListenerINS8_22SettingChangedFilterV3EEEOT1_PNS8_3ModEEUlNS_10shared_ptrINS8_9SettingV3EEEE_NS_9allocatorISS_EEFvSR_EE7__cloneEPNS0_6__baseISV_EE
PUBLIC 16550 0 _ZNSt6__ndk110__function6__funcIZN14MoreObjectInfo15settingListenerITn14TemplateStringXtlS4_ILm20EEtlA20_cLc100ELc121ELc110ELc97ELc109ELc105ELc99ELc45ELc111ELc98ELc106ELc101ELc99ELc116ELc45ELc105ELc110ELc102ELc111EEEEbZN20MOIGJRotationControl8onModifyERN5geode8modifier10ModifyBaseINS9_12ModifyDeriveIS7_17GJRotationControlEEEEEUlbE_EEPNS8_13EventListenerINS8_22SettingChangedFilterV3EEEOT1_PNS8_3ModEEUlNS_10shared_ptrINS8_9SettingV3EEEE_NS_9allocatorISS_EEFvSR_EE7destroyEv
PUBLIC 16554 0 _ZNSt6__ndk110__function6__funcIZN14MoreObjectInfo15settingListenerITn14TemplateStringXtlS4_ILm20EEtlA20_cLc100ELc121ELc110ELc97ELc109ELc105ELc99ELc45ELc111ELc98ELc106ELc101ELc99ELc116ELc45ELc105ELc110ELc102ELc111EEEEbZN20MOIGJRotationControl8onModifyERN5geode8modifier10ModifyBaseINS9_12ModifyDeriveIS7_17GJRotationControlEEEEEUlbE_EEPNS8_13EventListenerINS8_22SettingChangedFilterV3EEEOT1_PNS8_3ModEEUlNS_10shared_ptrINS8_9SettingV3EEEE_NS_9allocatorISS_EEFvSR_EE18destroy_deallocateEv
PUBLIC 16558 0 _ZNSt6__ndk110__function6__funcIZN14MoreObjectInfo15settingListenerITn14TemplateStringXtlS4_ILm20EEtlA20_cLc100ELc121ELc110ELc97ELc109ELc105ELc99ELc45ELc111ELc98ELc106ELc101ELc99ELc116ELc45ELc105ELc110ELc102ELc111EEEEbZN20MOIGJRotationControl8onModifyERN5geode8modifier10ModifyBaseINS9_12ModifyDeriveIS7_17GJRotationControlEEEEEUlbE_EEPNS8_13EventListenerINS8_22SettingChangedFilterV3EEEOT1_PNS8_3ModEEUlNS_10shared_ptrINS8_9SettingV3EEEE_NS_9allocatorISS_EEFvSR_EEclEOSR_
PUBLIC 16a58 0 _ZNKSt6__ndk110__function6__funcIZN14MoreObjectInfo15settingListenerITn14TemplateStringXtlS4_ILm20EEtlA20_cLc100ELc121ELc110ELc97ELc109ELc105ELc99ELc45ELc111ELc98ELc106ELc101ELc99ELc116ELc45ELc105ELc110ELc102ELc111EEEEbZN20MOIGJRotationControl8onModifyERN5geode8modifier10ModifyBaseINS9_12ModifyDeriveIS7_17GJRotationControlEEEEEUlbE_EEPNS8_13EventListenerINS8_22SettingChangedFilterV3EEEOT1_PNS8_3ModEEUlNS_10shared_ptrINS8_9SettingV3EEEE_NS_9allocatorISS_EEFvSR_EE6targetERKSt9type_info
PUBLIC 16a74 0 _ZNKSt6__ndk110__function6__funcIZN14MoreObjectInfo15settingListenerITn14TemplateStringXtlS4_ILm20EEtlA20_cLc100ELc121ELc110ELc97ELc109ELc105ELc99ELc45ELc111ELc98ELc106ELc101ELc99ELc116ELc45ELc105ELc110ELc102ELc111EEEEbZN20MOIGJRotationControl8onModifyERN5geode8modifier10ModifyBaseINS9_12ModifyDeriveIS7_17GJRotationControlEEEEEUlbE_EEPNS8_13EventListenerINS8_22SettingChangedFilterV3EEEOT1_PNS8_3ModEEUlNS_10shared_ptrINS8_9SettingV3EEEE_NS_9allocatorISS_EEFvSR_EE11target_typeEv
PUBLIC 16a80 0 std::__ndk1::shared_ptr<geode::BoolSettingV3>::~shared_ptr[abi:ne180000]()
PUBLIC 16ad0 0 geode::EventListener<geode::SettingChangedFilterV3>::getPool() const
PUBLIC 16ad4 0 geode::EventListener<geode::SettingChangedFilterV3>::handle(geode::Event*)
PUBLIC 16c48 0 geode::EventListener<geode::SettingChangedFilterV3>::~EventListener()
PUBLIC 16ce4 0 geode::EventListener<geode::SettingChangedFilterV3>::~EventListener()
PUBLIC 16d88 0 geode::cast::traverseTypeinfoFor(void*, geode::cast::ClassTypeinfoType const*, char const*)
PUBLIC 16e8c 0 geode::modifier::AsStaticFunction_ccTouchBegan<MOIGJRotationControl, bool (MOIGJRotationControl::*)(cocos2d::CCTouch*, cocos2d::CCEvent*)>::Impl<bool (MOIGJRotationControl::*)(cocos2d::CCTouch*, cocos2d::CCEvent*)>::function(MOIGJRotationControl*, cocos2d::CCTouch*, cocos2d::CCEvent*)
PUBLIC 16ed8 0 geode::Hook::create<void (*)(MOIGJRotationControl*, cocos2d::CCTouch*, cocos2d::CCEvent*)>(void*, void (*)(MOIGJRotationControl*, cocos2d::CCTouch*, cocos2d::CCEvent*), std::__ndk1::basic_string<char, std::__ndk1::char_traits<char>, std::__ndk1::allocator<char> > const&, tulip::hook::TulipConvention, tulip::hook::HookMetadata const&)
PUBLIC 1709c 0 geode::modifier::AsStaticFunction_ccTouchMoved<MOIGJRotationControl, void (MOIGJRotationControl::*)(cocos2d::CCTouch*, cocos2d::CCEvent*)>::Impl<void (MOIGJRotationControl::*)(cocos2d::CCTouch*, cocos2d::CCEvent*)>::function(MOIGJRotationControl*, cocos2d::CCTouch*, cocos2d::CCEvent*)
PUBLIC 170d4 0 geode::modifier::AsStaticFunction_ccTouchEnded<MOIGJRotationControl, void (MOIGJRotationControl::*)(cocos2d::CCTouch*, cocos2d::CCEvent*)>::Impl<void (MOIGJRotationControl::*)(cocos2d::CCTouch*, cocos2d::CCEvent*)>::function(MOIGJRotationControl*, cocos2d::CCTouch*, cocos2d::CCEvent*)
PUBLIC 1710c 0 geode::addresser::Addresser::addressOfVirtual<bool, GJRotationControl, cocos2d::CCTouch*, cocos2d::CCEvent*>(bool (GJRotationControl::*)(cocos2d::CCTouch*, cocos2d::CCEvent*))
PUBLIC 171b4 0 GJRotationControl::GJRotationControl(geode::ZeroConstructorType)
PUBLIC 17254 0 geode::addresser::Addresser::addressOfVirtual<void, GJRotationControl, cocos2d::CCTouch*, cocos2d::CCEvent*>(void (GJRotationControl::*)(cocos2d::CCTouch*, cocos2d::CCEvent*))
PUBLIC 17320 0 __cxx_global_var_init
PUBLIC 17c88 0 geode::modifier::ModifyBase<geode::modifier::ModifyDerive<MOIGJScaleControl, GJScaleControl> >::~ModifyBase()
PUBLIC 17ca4 0 geode::modifier::ModifyDerive<MOIGJScaleControl, GJScaleControl>::apply()
PUBLIC 18498 0 geode::modifier::ModifyBase<geode::modifier::ModifyDerive<MOIGJScaleControl, GJScaleControl> >::apply()
PUBLIC 1849c 0 geode::modifier::ModifyBase<geode::modifier::ModifyDerive<MOIGJScaleControl, GJScaleControl> >::getHook(std::__ndk1::basic_string_view<char, std::__ndk1::char_traits<char> >)
PUBLIC 1864c 0 _ZNSt6__ndk110__function6__funcIZN14MoreObjectInfo15settingListenerITn14TemplateStringXtlS4_ILm20EEtlA20_cLc100ELc121ELc110ELc97ELc109ELc105ELc99ELc45ELc111ELc98ELc106ELc101ELc99ELc116ELc45ELc105ELc110ELc102ELc111EEEEbZN17MOIGJScaleControl8onModifyERN5geode8modifier10ModifyBaseINS9_12ModifyDeriveIS7_14GJScaleControlEEEEEUlbE_EEPNS8_13EventListenerINS8_22SettingChangedFilterV3EEEOT1_PNS8_3ModEEUlNS_10shared_ptrINS8_9SettingV3EEEE_NS_9allocatorISS_EEFvSR_EED0Ev
PUBLIC 18650 0 _ZNKSt6__ndk110__function6__funcIZN14MoreObjectInfo15settingListenerITn14TemplateStringXtlS4_ILm20EEtlA20_cLc100ELc121ELc110ELc97ELc109ELc105ELc99ELc45ELc111ELc98ELc106ELc101ELc99ELc116ELc45ELc105ELc110ELc102ELc111EEEEbZN17MOIGJScaleControl8onModifyERN5geode8modifier10ModifyBaseINS9_12ModifyDeriveIS7_14GJScaleControlEEEEEUlbE_EEPNS8_13EventListenerINS8_22SettingChangedFilterV3EEEOT1_PNS8_3ModEEUlNS_10shared_ptrINS8_9SettingV3EEEE_NS_9allocatorISS_EEFvSR_EE7__cloneEv
PUBLIC 18690 0 _ZNKSt6__ndk110__function6__funcIZN14MoreObjectInfo15settingListenerITn14TemplateStringXtlS4_ILm20EEtlA20_cLc100ELc121ELc110ELc97ELc109ELc105ELc99ELc45ELc111ELc98ELc106ELc101ELc99ELc116ELc45ELc105ELc110ELc102ELc111EEEEbZN17MOIGJScaleControl8onModifyERN5geode8modifier10ModifyBaseINS9_12ModifyDeriveIS7_14GJScaleControlEEEEEUlbE_EEPNS8_13EventListenerINS8_22SettingChangedFilterV3EEEOT1_PNS8_3ModEEUlNS_10shared_ptrINS8_9SettingV3EEEE_NS_9allocatorISS_EEFvSR_EE7__cloneEPNS0_6__baseISV_EE
PUBLIC 186b0 0 _ZNSt6__ndk110__function6__funcIZN14MoreObjectInfo15settingListenerITn14TemplateStringXtlS4_ILm20EEtlA20_cLc100ELc121ELc110ELc97ELc109ELc105ELc99ELc45ELc111ELc98ELc106ELc101ELc99ELc116ELc45ELc105ELc110ELc102ELc111EEEEbZN17MOIGJScaleControl8onModifyERN5geode8modifier10ModifyBaseINS9_12ModifyDeriveIS7_14GJScaleControlEEEEEUlbE_EEPNS8_13EventListenerINS8_22SettingChangedFilterV3EEEOT1_PNS8_3ModEEUlNS_10shared_ptrINS8_9SettingV3EEEE_NS_9allocatorISS_EEFvSR_EE7destroyEv
PUBLIC 186b4 0 _ZNSt6__ndk110__function6__funcIZN14MoreObjectInfo15settingListenerITn14TemplateStringXtlS4_ILm20EEtlA20_cLc100ELc121ELc110ELc97ELc109ELc105ELc99ELc45ELc111ELc98ELc106ELc101ELc99ELc116ELc45ELc105ELc110ELc102ELc111EEEEbZN17MOIGJScaleControl8onModifyERN5geode8modifier10ModifyBaseINS9_12ModifyDeriveIS7_14GJScaleControlEEEEEUlbE_EEPNS8_13EventListenerINS8_22SettingChangedFilterV3EEEOT1_PNS8_3ModEEUlNS_10shared_ptrINS8_9SettingV3EEEE_NS_9allocatorISS_EEFvSR_EE18destroy_deallocateEv
PUBLIC 186b8 0 _ZNSt6__ndk110__function6__funcIZN14MoreObjectInfo15settingListenerITn14TemplateStringXtlS4_ILm20EEtlA20_cLc100ELc121ELc110ELc97ELc109ELc105ELc99ELc45ELc111ELc98ELc106ELc101ELc99ELc116ELc45ELc105ELc110ELc102ELc111EEEEbZN17MOIGJScaleControl8onModifyERN5geode8modifier10ModifyBaseINS9_12ModifyDeriveIS7_14GJScaleControlEEEEEUlbE_EEPNS8_13EventListenerINS8_22SettingChangedFilterV3EEEOT1_PNS8_3ModEEUlNS_10shared_ptrINS8_9SettingV3EEEE_NS_9allocatorISS_EEFvSR_EEclEOSR_
PUBLIC 18bb8 0 _ZNKSt6__ndk110__function6__funcIZN14MoreObjectInfo15settingListenerITn14TemplateStringXtlS4_ILm20EEtlA20_cLc100ELc121ELc110ELc97ELc109ELc105ELc99ELc45ELc111ELc98ELc106ELc101ELc99ELc116ELc45ELc105ELc110ELc102ELc111EEEEbZN17MOIGJScaleControl8onModifyERN5geode8modifier10ModifyBaseINS9_12ModifyDeriveIS7_14GJScaleControlEEEEEUlbE_EEPNS8_13EventListenerINS8_22SettingChangedFilterV3EEEOT1_PNS8_3ModEEUlNS_10shared_ptrINS8_9SettingV3EEEE_NS_9allocatorISS_EEFvSR_EE6targetERKSt9type_info
PUBLIC 18bd4 0 _ZNKSt6__ndk110__function6__funcIZN14MoreObjectInfo15settingListenerITn14TemplateStringXtlS4_ILm20EEtlA20_cLc100ELc121ELc110ELc97ELc109ELc105ELc99ELc45ELc111ELc98ELc106ELc101ELc99ELc116ELc45ELc105ELc110ELc102ELc111EEEEbZN17MOIGJScaleControl8onModifyERN5geode8modifier10ModifyBaseINS9_12ModifyDeriveIS7_14GJScaleControlEEEEEUlbE_EEPNS8_13EventListenerINS8_22SettingChangedFilterV3EEEOT1_PNS8_3ModEEUlNS_10shared_ptrINS8_9SettingV3EEEE_NS_9allocatorISS_EEFvSR_EE11target_typeEv
PUBLIC 18be0 0 geode::modifier::AsStaticFunction_ccTouchBegan<MOIGJScaleControl, bool (MOIGJScaleControl::*)(cocos2d::CCTouch*, cocos2d::CCEvent*)>::Impl<bool (MOIGJScaleControl::*)(cocos2d::CCTouch*, cocos2d::CCEvent*)>::function(MOIGJScaleControl*, cocos2d::CCTouch*, cocos2d::CCEvent*)
PUBLIC 18c2c 0 geode::Hook::create<void (*)(MOIGJScaleControl*, cocos2d::CCTouch*, cocos2d::CCEvent*)>(void*, void (*)(MOIGJScaleControl*, cocos2d::CCTouch*, cocos2d::CCEvent*), std::__ndk1::basic_string<char, std::__ndk1::char_traits<char>, std::__ndk1::allocator<char> > const&, tulip::hook::TulipConvention, tulip::hook::HookMetadata const&)
PUBLIC 18df0 0 geode::modifier::AsStaticFunction_ccTouchMoved<MOIGJScaleControl, void (MOIGJScaleControl::*)(cocos2d::CCTouch*, cocos2d::CCEvent*)>::Impl<void (MOIGJScaleControl::*)(cocos2d::CCTouch*, cocos2d::CCEvent*)>::function(MOIGJScaleControl*, cocos2d::CCTouch*, cocos2d::CCEvent*)
PUBLIC 18e28 0 geode::modifier::AsStaticFunction_ccTouchEnded<MOIGJScaleControl, void (MOIGJScaleControl::*)(cocos2d::CCTouch*, cocos2d::CCEvent*)>::Impl<void (MOIGJScaleControl::*)(cocos2d::CCTouch*, cocos2d::CCEvent*)>::function(MOIGJScaleControl*, cocos2d::CCTouch*, cocos2d::CCEvent*)
PUBLIC 18e60 0 geode::addresser::Addresser::addressOfVirtual<bool, GJScaleControl, cocos2d::CCTouch*, cocos2d::CCEvent*>(bool (GJScaleControl::*)(cocos2d::CCTouch*, cocos2d::CCEvent*))
PUBLIC 18f08 0 GJScaleControl::GJScaleControl(geode::ZeroConstructorType)
PUBLIC 18f7c 0 geode::addresser::Addresser::addressOfVirtual<void, GJScaleControl, cocos2d::CCTouch*, cocos2d::CCEvent*>(void (GJScaleControl::*)(cocos2d::CCTouch*, cocos2d::CCEvent*))
PUBLIC 19048 0 __cxx_global_var_init
PUBLIC 199b0 0 geode::modifier::ModifyBase<geode::modifier::ModifyDerive<MOIGJTransformControl, GJTransformControl> >::~ModifyBase()
PUBLIC 199cc 0 geode::modifier::ModifyDerive<MOIGJTransformControl, GJTransformControl>::apply()
PUBLIC 1a19c 0 geode::modifier::ModifyBase<geode::modifier::ModifyDerive<MOIGJTransformControl, GJTransformControl> >::apply()
PUBLIC 1a1a0 0 geode::modifier::ModifyBase<geode::modifier::ModifyDerive<MOIGJTransformControl, GJTransformControl> >::getHook(std::__ndk1::basic_string_view<char, std::__ndk1::char_traits<char> >)
PUBLIC 1a350 0 _ZNSt6__ndk110__function6__funcIZN14MoreObjectInfo15settingListenerITn14TemplateStringXtlS4_ILm20EEtlA20_cLc100ELc121ELc110ELc97ELc109ELc105ELc99ELc45ELc111ELc98ELc106ELc101ELc99ELc116ELc45ELc105ELc110ELc102ELc111EEEEbZN21MOIGJTransformControl8onModifyERN5geode8modifier10ModifyBaseINS9_12ModifyDeriveIS7_18GJTransformControlEEEEEUlbE_EEPNS8_13EventListenerINS8_22SettingChangedFilterV3EEEOT1_PNS8_3ModEEUlNS_10shared_ptrINS8_9SettingV3EEEE_NS_9allocatorISS_EEFvSR_EED0Ev
PUBLIC 1a354 0 _ZNKSt6__ndk110__function6__funcIZN14MoreObjectInfo15settingListenerITn14TemplateStringXtlS4_ILm20EEtlA20_cLc100ELc121ELc110ELc97ELc109ELc105ELc99ELc45ELc111ELc98ELc106ELc101ELc99ELc116ELc45ELc105ELc110ELc102ELc111EEEEbZN21MOIGJTransformControl8onModifyERN5geode8modifier10ModifyBaseINS9_12ModifyDeriveIS7_18GJTransformControlEEEEEUlbE_EEPNS8_13EventListenerINS8_22SettingChangedFilterV3EEEOT1_PNS8_3ModEEUlNS_10shared_ptrINS8_9SettingV3EEEE_NS_9allocatorISS_EEFvSR_EE7__cloneEv
PUBLIC 1a394 0 _ZNKSt6__ndk110__function6__funcIZN14MoreObjectInfo15settingListenerITn14TemplateStringXtlS4_ILm20EEtlA20_cLc100ELc121ELc110ELc97ELc109ELc105ELc99ELc45ELc111ELc98ELc106ELc101ELc99ELc116ELc45ELc105ELc110ELc102ELc111EEEEbZN21MOIGJTransformControl8onModifyERN5geode8modifier10ModifyBaseINS9_12ModifyDeriveIS7_18GJTransformControlEEEEEUlbE_EEPNS8_13EventListenerINS8_22SettingChangedFilterV3EEEOT1_PNS8_3ModEEUlNS_10shared_ptrINS8_9SettingV3EEEE_NS_9allocatorISS_EEFvSR_EE7__cloneEPNS0_6__baseISV_EE
PUBLIC 1a3b4 0 _ZNSt6__ndk110__function6__funcIZN14MoreObjectInfo15settingListenerITn14TemplateStringXtlS4_ILm20EEtlA20_cLc100ELc121ELc110ELc97ELc109ELc105ELc99ELc45ELc111ELc98ELc106ELc101ELc99ELc116ELc45ELc105ELc110ELc102ELc111EEEEbZN21MOIGJTransformControl8onModifyERN5geode8modifier10ModifyBaseINS9_12ModifyDeriveIS7_18GJTransformControlEEEEEUlbE_EEPNS8_13EventListenerINS8_22SettingChangedFilterV3EEEOT1_PNS8_3ModEEUlNS_10shared_ptrINS8_9SettingV3EEEE_NS_9allocatorISS_EEFvSR_EE7destroyEv
PUBLIC 1a3b8 0 _ZNSt6__ndk110__function6__funcIZN14MoreObjectInfo15settingListenerITn14TemplateStringXtlS4_ILm20EEtlA20_cLc100ELc121ELc110ELc97ELc109ELc105ELc99ELc45ELc111ELc98ELc106ELc101ELc99ELc116ELc45ELc105ELc110ELc102ELc111EEEEbZN21MOIGJTransformControl8onModifyERN5geode8modifier10ModifyBaseINS9_12ModifyDeriveIS7_18GJTransformControlEEEEEUlbE_EEPNS8_13EventListenerINS8_22SettingChangedFilterV3EEEOT1_PNS8_3ModEEUlNS_10shared_ptrINS8_9SettingV3EEEE_NS_9allocatorISS_EEFvSR_EE18destroy_deallocateEv
PUBLIC 1a3bc 0 _ZNSt6__ndk110__function6__funcIZN14MoreObjectInfo15settingListenerITn14TemplateStringXtlS4_ILm20EEtlA20_cLc100ELc121ELc110ELc97ELc109ELc105ELc99ELc45ELc111ELc98ELc106ELc101ELc99ELc116ELc45ELc105ELc110ELc102ELc111EEEEbZN21MOIGJTransformControl8onModifyERN5geode8modifier10ModifyBaseINS9_12ModifyDeriveIS7_18GJTransformControlEEEEEUlbE_EEPNS8_13EventListenerINS8_22SettingChangedFilterV3EEEOT1_PNS8_3ModEEUlNS_10shared_ptrINS8_9SettingV3EEEE_NS_9allocatorISS_EEFvSR_EEclEOSR_
PUBLIC 1a8bc 0 _ZNKSt6__ndk110__function6__funcIZN14MoreObjectInfo15settingListenerITn14TemplateStringXtlS4_ILm20EEtlA20_cLc100ELc121ELc110ELc97ELc109ELc105ELc99ELc45ELc111ELc98ELc106ELc101ELc99ELc116ELc45ELc105ELc110ELc102ELc111EEEEbZN21MOIGJTransformControl8onModifyERN5geode8modifier10ModifyBaseINS9_12ModifyDeriveIS7_18GJTransformControlEEEEEUlbE_EEPNS8_13EventListenerINS8_22SettingChangedFilterV3EEEOT1_PNS8_3ModEEUlNS_10shared_ptrINS8_9SettingV3EEEE_NS_9allocatorISS_EEFvSR_EE6targetERKSt9type_info
PUBLIC 1a8d8 0 _ZNKSt6__ndk110__function6__funcIZN14MoreObjectInfo15settingListenerITn14TemplateStringXtlS4_ILm20EEtlA20_cLc100ELc121ELc110ELc97ELc109ELc105ELc99ELc45ELc111ELc98ELc106ELc101ELc99ELc116ELc45ELc105ELc110ELc102ELc111EEEEbZN21MOIGJTransformControl8onModifyERN5geode8modifier10ModifyBaseINS9_12ModifyDeriveIS7_18GJTransformControlEEEEEUlbE_EEPNS8_13EventListenerINS8_22SettingChangedFilterV3EEEOT1_PNS8_3ModEEUlNS_10shared_ptrINS8_9SettingV3EEEE_NS_9allocatorISS_EEFvSR_EE11target_typeEv
PUBLIC 1a8e4 0 geode::modifier::AsStaticFunction_ccTouchBegan<MOIGJTransformControl, bool (MOIGJTransformControl::*)(cocos2d::CCTouch*, cocos2d::CCEvent*)>::Impl<bool (MOIGJTransformControl::*)(cocos2d::CCTouch*, cocos2d::CCEvent*)>::function(MOIGJTransformControl*, cocos2d::CCTouch*, cocos2d::CCEvent*)
PUBLIC 1a930 0 geode::Hook::create<void (*)(MOIGJTransformControl*, cocos2d::CCTouch*, cocos2d::CCEvent*)>(void*, void (*)(MOIGJTransformControl*, cocos2d::CCTouch*, cocos2d::CCEvent*), std::__ndk1::basic_string<char, std::__ndk1::char_traits<char>, std::__ndk1::allocator<char> > const&, tulip::hook::TulipConvention, tulip::hook::HookMetadata const&)
PUBLIC 1aaf4 0 geode::modifier::AsStaticFunction_ccTouchMoved<MOIGJTransformControl, void (MOIGJTransformControl::*)(cocos2d::CCTouch*, cocos2d::CCEvent*)>::Impl<void (MOIGJTransformControl::*)(cocos2d::CCTouch*, cocos2d::CCEvent*)>::function(MOIGJTransformControl*, cocos2d::CCTouch*, cocos2d::CCEvent*)
PUBLIC 1ab2c 0 geode::modifier::AsStaticFunction_ccTouchEnded<MOIGJTransformControl, void (MOIGJTransformControl::*)(cocos2d::CCTouch*, cocos2d::CCEvent*)>::Impl<void (MOIGJTransformControl::*)(cocos2d::CCTouch*, cocos2d::CCEvent*)>::function(MOIGJTransformControl*, cocos2d::CCTouch*, cocos2d::CCEvent*)
PUBLIC 1ab64 0 geode::addresser::Addresser::addressOfVirtual<bool, GJTransformControl, cocos2d::CCTouch*, cocos2d::CCEvent*>(bool (GJTransformControl::*)(cocos2d::CCTouch*, cocos2d::CCEvent*))
PUBLIC 1ac0c 0 GJTransformControl::GJTransformControl(geode::ZeroConstructorType)
PUBLIC 1ac98 0 geode::addresser::Addresser::addressOfVirtual<void, GJTransformControl, cocos2d::CCTouch*, cocos2d::CCEvent*>(void (GJTransformControl::*)(cocos2d::CCTouch*, cocos2d::CCEvent*))
PUBLIC 1ad64 0 geodeExecFunction7<(anonymous namespace)::ExecFuncUnique7>(geode::ModStateEvent*)
PUBLIC 1ad80 0 MoreObjectInfo::showObjectType(geode::Mod*)
PUBLIC 1ae60 0 MoreObjectInfo::showObjectAddress(geode::Mod*)
PUBLIC 1af40 0 MoreObjectInfo::showObjectData(geode::Mod*)
PUBLIC 1b020 0 MoreObjectInfo::showObjectInfo(geode::Mod*)
PUBLIC 1b3e8 0 geode::EventListener<geode::ModStateFilter>::getPool() const
PUBLIC 1b3ec 0 geode::EventListener<geode::ModStateFilter>::handle(geode::Event*)
PUBLIC 1b560 0 geode::EventListener<geode::ModStateFilter>::~EventListener()
PUBLIC 1b5bc 0 geode::EventListener<geode::ModStateFilter>::~EventListener()
PUBLIC 1b620 0 std::__ndk1::__function::__base<void (geode::ModStateEvent*)>::~__base()
PUBLIC 1b624 0 std::__ndk1::__function::__func<void (*)(geode::ModStateEvent*), std::__ndk1::allocator<void (*)(geode::ModStateEvent*)>, void (geode::ModStateEvent*)>::~__func()
PUBLIC 1b628 0 std::__ndk1::__function::__func<void (*)(geode::ModStateEvent*), std::__ndk1::allocator<void (*)(geode::ModStateEvent*)>, void (geode::ModStateEvent*)>::__clone() const
PUBLIC 1b65c 0 std::__ndk1::__function::__func<void (*)(geode::ModStateEvent*), std::__ndk1::allocator<void (*)(geode::ModStateEvent*)>, void (geode::ModStateEvent*)>::__clone(std::__ndk1::__function::__base<void (geode::ModStateEvent*)>*) const
PUBLIC 1b670 0 std::__ndk1::__function::__func<void (*)(geode::ModStateEvent*), std::__ndk1::allocator<void (*)(geode::ModStateEvent*)>, void (geode::ModStateEvent*)>::destroy()
PUBLIC 1b674 0 std::__ndk1::__function::__func<void (*)(geode::ModStateEvent*), std::__ndk1::allocator<void (*)(geode::ModStateEvent*)>, void (geode::ModStateEvent*)>::destroy_deallocate()
PUBLIC 1b678 0 std::__ndk1::__function::__func<void (*)(geode::ModStateEvent*), std::__ndk1::allocator<void (*)(geode::ModStateEvent*)>, void (geode::ModStateEvent*)>::operator()(geode::ModStateEvent*&&)
PUBLIC 1b688 0 std::__ndk1::__function::__func<void (*)(geode::ModStateEvent*), std::__ndk1::allocator<void (*)(geode::ModStateEvent*)>, void (geode::ModStateEvent*)>::target(std::type_info const&) const
PUBLIC 1b6a4 0 std::__ndk1::__function::__func<void (*)(geode::ModStateEvent*), std::__ndk1::allocator<void (*)(geode::ModStateEvent*)>, void (geode::ModStateEvent*)>::target_type() const
PUBLIC 1b6b0 0 _ZN14MoreObjectInfo15settingListenerITn14TemplateStringXtlS1_ILm15EEtlA15_cLc115ELc104ELc111ELc119ELc45ELc111ELc98ELc106ELc101ELc99ELc116ELc45ELc105ELc100EEEEbZNS_3getITnS1_XtlS2_tlS3_Lc115ELc104ELc111ELc119ELc45ELc111ELc98ELc106ELc101ELc99ELc116ELc45ELc105ELc100EEEEbEET0_PN5geode3ModEEUlbE_EEPNS6_13EventListenerINS6_22SettingChangedFilterV3EEEOT1_S8_
PUBLIC 1b868 0 MoreObjectInfo::getInternal<bool>(geode::Mod*, std::__ndk1::basic_string_view<char, std::__ndk1::char_traits<char> >)
PUBLIC 1b910 0 _ZNSt6__ndk110__function6__funcIZN14MoreObjectInfo15settingListenerITn14TemplateStringXtlS4_ILm15EEtlA15_cLc115ELc104ELc111ELc119ELc45ELc111ELc98ELc106ELc101ELc99ELc116ELc45ELc105ELc100EEEEbZNS2_3getITnS4_XtlS5_tlS6_Lc115ELc104ELc111ELc119ELc45ELc111ELc98ELc106ELc101ELc99ELc116ELc45ELc105ELc100EEEEbEET0_PN5geode3ModEEUlbE_EEPNS9_13EventListenerINS9_22SettingChangedFilterV3EEEOT1_SB_EUlNS_10shared_ptrINS9_9SettingV3EEEE_NS_9allocatorISM_EEFvSL_EED0Ev
PUBLIC 1b914 0 _ZNKSt6__ndk110__function6__funcIZN14MoreObjectInfo15settingListenerITn14TemplateStringXtlS4_ILm15EEtlA15_cLc115ELc104ELc111ELc119ELc45ELc111ELc98ELc106ELc101ELc99ELc116ELc45ELc105ELc100EEEEbZNS2_3getITnS4_XtlS5_tlS6_Lc115ELc104ELc111ELc119ELc45ELc111ELc98ELc106ELc101ELc99ELc116ELc45ELc105ELc100EEEEbEET0_PN5geode3ModEEUlbE_EEPNS9_13EventListenerINS9_22SettingChangedFilterV3EEEOT1_SB_EUlNS_10shared_ptrINS9_9SettingV3EEEE_NS_9allocatorISM_EEFvSL_EE7__cloneEv
PUBLIC 1b94c 0 _ZNKSt6__ndk110__function6__funcIZN14MoreObjectInfo15settingListenerITn14TemplateStringXtlS4_ILm15EEtlA15_cLc115ELc104ELc111ELc119ELc45ELc111ELc98ELc106ELc101ELc99ELc116ELc45ELc105ELc100EEEEbZNS2_3getITnS4_XtlS5_tlS6_Lc115ELc104ELc111ELc119ELc45ELc111ELc98ELc106ELc101ELc99ELc116ELc45ELc105ELc100EEEEbEET0_PN5geode3ModEEUlbE_EEPNS9_13EventListenerINS9_22SettingChangedFilterV3EEEOT1_SB_EUlNS_10shared_ptrINS9_9SettingV3EEEE_NS_9allocatorISM_EEFvSL_EE7__cloneEPNS0_6__baseISP_EE
PUBLIC 1b964 0 _ZNSt6__ndk110__function6__funcIZN14MoreObjectInfo15settingListenerITn14TemplateStringXtlS4_ILm15EEtlA15_cLc115ELc104ELc111ELc119ELc45ELc111ELc98ELc106ELc101ELc99ELc116ELc45ELc105ELc100EEEEbZNS2_3getITnS4_XtlS5_tlS6_Lc115ELc104ELc111ELc119ELc45ELc111ELc98ELc106ELc101ELc99ELc116ELc45ELc105ELc100EEEEbEET0_PN5geode3ModEEUlbE_EEPNS9_13EventListenerINS9_22SettingChangedFilterV3EEEOT1_SB_EUlNS_10shared_ptrINS9_9SettingV3EEEE_NS_9allocatorISM_EEFvSL_EE7destroyEv
PUBLIC 1b968 0 _ZNSt6__ndk110__function6__funcIZN14MoreObjectInfo15settingListenerITn14TemplateStringXtlS4_ILm15EEtlA15_cLc115ELc104ELc111ELc119ELc45ELc111ELc98ELc106ELc101ELc99ELc116ELc45ELc105ELc100EEEEbZNS2_3getITnS4_XtlS5_tlS6_Lc115ELc104ELc111ELc119ELc45ELc111ELc98ELc106ELc101ELc99ELc116ELc45ELc105ELc100EEEEbEET0_PN5geode3ModEEUlbE_EEPNS9_13EventListenerINS9_22SettingChangedFilterV3EEEOT1_SB_EUlNS_10shared_ptrINS9_9SettingV3EEEE_NS_9allocatorISM_EEFvSL_EE18destroy_deallocateEv
PUBLIC 1b96c 0 _ZNSt6__ndk110__function6__funcIZN14MoreObjectInfo15settingListenerITn14TemplateStringXtlS4_ILm15EEtlA15_cLc115ELc104ELc111ELc119ELc45ELc111ELc98ELc106ELc101ELc99ELc116ELc45ELc105ELc100EEEEbZNS2_3getITnS4_XtlS5_tlS6_Lc115ELc104ELc111ELc119ELc45ELc111ELc98ELc106ELc101ELc99ELc116ELc45ELc105ELc100EEEEbEET0_PN5geode3ModEEUlbE_EEPNS9_13EventListenerINS9_22SettingChangedFilterV3EEEOT1_SB_EUlNS_10shared_ptrINS9_9SettingV3EEEE_NS_9allocatorISM_EEFvSL_EEclEOSL_
PUBLIC 1ba30 0 _ZNKSt6__ndk110__function6__funcIZN14MoreObjectInfo15settingListenerITn14TemplateStringXtlS4_ILm15EEtlA15_cLc115ELc104ELc111ELc119ELc45ELc111ELc98ELc106ELc101ELc99ELc116ELc45ELc105ELc100EEEEbZNS2_3getITnS4_XtlS5_tlS6_Lc115ELc104ELc111ELc119ELc45ELc111ELc98ELc106ELc101ELc99ELc116ELc45ELc105ELc100EEEEbEET0_PN5geode3ModEEUlbE_EEPNS9_13EventListenerINS9_22SettingChangedFilterV3EEEOT1_SB_EUlNS_10shared_ptrINS9_9SettingV3EEEE_NS_9allocatorISM_EEFvSL_EE6targetERKSt9type_info
PUBLIC 1ba4c 0 _ZNKSt6__ndk110__function6__funcIZN14MoreObjectInfo15settingListenerITn14TemplateStringXtlS4_ILm15EEtlA15_cLc115ELc104ELc111ELc119ELc45ELc111ELc98ELc106ELc101ELc99ELc116ELc45ELc105ELc100EEEEbZNS2_3getITnS4_XtlS5_tlS6_Lc115ELc104ELc111ELc119ELc45ELc111ELc98ELc106ELc101ELc99ELc116ELc45ELc105ELc100EEEEbEET0_PN5geode3ModEEUlbE_EEPNS9_13EventListenerINS9_22SettingChangedFilterV3EEEOT1_SB_EUlNS_10shared_ptrINS9_9SettingV3EEEE_NS_9allocatorISM_EEFvSL_EE11target_typeEv
PUBLIC 1ba58 0 _ZN14MoreObjectInfo15settingListenerITn14TemplateStringXtlS1_ILm21EEtlA21_cLc115ELc104ELc111ELc119ELc45ELc111ELc98ELc106ELc101ELc99ELc116ELc45ELc112ELc111ELc115ELc105ELc116ELc105ELc111ELc110EEEEbZNS_3getITnS1_XtlS2_tlS3_Lc115ELc104ELc111ELc119ELc45ELc111ELc98ELc106ELc101ELc99ELc116ELc45ELc112ELc111ELc115ELc105ELc116ELc105ELc111ELc110EEEEbEET0_PN5geode3ModEEUlbE_EEPNS6_13EventListenerINS6_22SettingChangedFilterV3EEEOT1_S8_
PUBLIC 1bc14 0 _ZNSt6__ndk110__function6__funcIZN14MoreObjectInfo15settingListenerITn14TemplateStringXtlS4_ILm21EEtlA21_cLc115ELc104ELc111ELc119ELc45ELc111ELc98ELc106ELc101ELc99ELc116ELc45ELc112ELc111ELc115ELc105ELc116ELc105ELc111ELc110EEEEbZNS2_3getITnS4_XtlS5_tlS6_Lc115ELc104ELc111ELc119ELc45ELc111ELc98ELc106ELc101ELc99ELc116ELc45ELc112ELc111ELc115ELc105ELc116ELc105ELc111ELc110EEEEbEET0_PN5geode3ModEEUlbE_EEPNS9_13EventListenerINS9_22SettingChangedFilterV3EEEOT1_SB_EUlNS_10shared_ptrINS9_9SettingV3EEEE_NS_9allocatorISM_EEFvSL_EED0Ev
PUBLIC 1bc18 0 _ZNKSt6__ndk110__function6__funcIZN14MoreObjectInfo15settingListenerITn14TemplateStringXtlS4_ILm21EEtlA21_cLc115ELc104ELc111ELc119ELc45ELc111ELc98ELc106ELc101ELc99ELc116ELc45ELc112ELc111ELc115ELc105ELc116ELc105ELc111ELc110EEEEbZNS2_3getITnS4_XtlS5_tlS6_Lc115ELc104ELc111ELc119ELc45ELc111ELc98ELc106ELc101ELc99ELc116ELc45ELc112ELc111ELc115ELc105ELc116ELc105ELc111ELc110EEEEbEET0_PN5geode3ModEEUlbE_EEPNS9_13EventListenerINS9_22SettingChangedFilterV3EEEOT1_SB_EUlNS_10shared_ptrINS9_9SettingV3EEEE_NS_9allocatorISM_EEFvSL_EE7__cloneEv
PUBLIC 1bc50 0 _ZNKSt6__ndk110__function6__funcIZN14MoreObjectInfo15settingListenerITn14TemplateStringXtlS4_ILm21EEtlA21_cLc115ELc104ELc111ELc119ELc45ELc111ELc98ELc106ELc101ELc99ELc116ELc45ELc112ELc111ELc115ELc105ELc116ELc105ELc111ELc110EEEEbZNS2_3getITnS4_XtlS5_tlS6_Lc115ELc104ELc111ELc119ELc45ELc111ELc98ELc106ELc101ELc99ELc116ELc45ELc112ELc111ELc115ELc105ELc116ELc105ELc111ELc110EEEEbEET0_PN5geode3ModEEUlbE_EEPNS9_13EventListenerINS9_22SettingChangedFilterV3EEEOT1_SB_EUlNS_10shared_ptrINS9_9SettingV3EEEE_NS_9allocatorISM_EEFvSL_EE7__cloneEPNS0_6__baseISP_EE
PUBLIC 1bc68 0 _ZNSt6__ndk110__function6__funcIZN14MoreObjectInfo15settingListenerITn14TemplateStringXtlS4_ILm21EEtlA21_cLc115ELc104ELc111ELc119ELc45ELc111ELc98ELc106ELc101ELc99ELc116ELc45ELc112ELc111ELc115ELc105ELc116ELc105ELc111ELc110EEEEbZNS2_3getITnS4_XtlS5_tlS6_Lc115ELc104ELc111ELc119ELc45ELc111ELc98ELc106ELc101ELc99ELc116ELc45ELc112ELc111ELc115ELc105ELc116ELc105ELc111ELc110EEEEbEET0_PN5geode3ModEEUlbE_EEPNS9_13EventListenerINS9_22SettingChangedFilterV3EEEOT1_SB_EUlNS_10shared_ptrINS9_9SettingV3EEEE_NS_9allocatorISM_EEFvSL_EE7destroyEv
PUBLIC 1bc6c 0 _ZNSt6__ndk110__function6__funcIZN14MoreObjectInfo15settingListenerITn14TemplateStringXtlS4_ILm21EEtlA21_cLc115ELc104ELc111ELc119ELc45ELc111ELc98ELc106ELc101ELc99ELc116ELc45ELc112ELc111ELc115ELc105ELc116ELc105ELc111ELc110EEEEbZNS2_3getITnS4_XtlS5_tlS6_Lc115ELc104ELc111ELc119ELc45ELc111ELc98ELc106ELc101ELc99ELc116ELc45ELc112ELc111ELc115ELc105ELc116ELc105ELc111ELc110EEEEbEET0_PN5geode3ModEEUlbE_EEPNS9_13EventListenerINS9_22SettingChangedFilterV3EEEOT1_SB_EUlNS_10shared_ptrINS9_9SettingV3EEEE_NS_9allocatorISM_EEFvSL_EE18destroy_deallocateEv
PUBLIC 1bc70 0 _ZNSt6__ndk110__function6__funcIZN14MoreObjectInfo15settingListenerITn14TemplateStringXtlS4_ILm21EEtlA21_cLc115ELc104ELc111ELc119ELc45ELc111ELc98ELc106ELc101ELc99ELc116ELc45ELc112ELc111ELc115ELc105ELc116ELc105ELc111ELc110EEEEbZNS2_3getITnS4_XtlS5_tlS6_Lc115ELc104ELc111ELc119ELc45ELc111ELc98ELc106ELc101ELc99ELc116ELc45ELc112ELc111ELc115ELc105ELc116ELc105ELc111ELc110EEEEbEET0_PN5geode3ModEEUlbE_EEPNS9_13EventListenerINS9_22SettingChangedFilterV3EEEOT1_SB_EUlNS_10shared_ptrINS9_9SettingV3EEEE_NS_9allocatorISM_EEFvSL_EEclEOSL_
PUBLIC 1bd34 0 _ZNKSt6__ndk110__function6__funcIZN14MoreObjectInfo15settingListenerITn14TemplateStringXtlS4_ILm21EEtlA21_cLc115ELc104ELc111ELc119ELc45ELc111ELc98ELc106ELc101ELc99ELc116ELc45ELc112ELc111ELc115ELc105ELc116ELc105ELc111ELc110EEEEbZNS2_3getITnS4_XtlS5_tlS6_Lc115ELc104ELc111ELc119ELc45ELc111ELc98ELc106ELc101ELc99ELc116ELc45ELc112ELc111ELc115ELc105ELc116ELc105ELc111ELc110EEEEbEET0_PN5geode3ModEEUlbE_EEPNS9_13EventListenerINS9_22SettingChangedFilterV3EEEOT1_SB_EUlNS_10shared_ptrINS9_9SettingV3EEEE_NS_9allocatorISM_EEFvSL_EE6targetERKSt9type_info
PUBLIC 1bd50 0 _ZNKSt6__ndk110__function6__funcIZN14MoreObjectInfo15settingListenerITn14TemplateStringXtlS4_ILm21EEtlA21_cLc115ELc104ELc111ELc119ELc45ELc111ELc98ELc106ELc101ELc99ELc116ELc45ELc112ELc111ELc115ELc105ELc116ELc105ELc111ELc110EEEEbZNS2_3getITnS4_XtlS5_tlS6_Lc115ELc104ELc111ELc119ELc45ELc111ELc98ELc106ELc101ELc99ELc116ELc45ELc112ELc111ELc115ELc105ELc116ELc105ELc111ELc110EEEEbEET0_PN5geode3ModEEUlbE_EEPNS9_13EventListenerINS9_22SettingChangedFilterV3EEEOT1_SB_EUlNS_10shared_ptrINS9_9SettingV3EEEE_NS_9allocatorISM_EEFvSL_EE11target_typeEv
PUBLIC 1bd5c 0 _ZN14MoreObjectInfo15settingListenerITn14TemplateStringXtlS1_ILm21EEtlA21_cLc115ELc104ELc111ELc119ELc45ELc111ELc98ELc106ELc101ELc99ELc116ELc45ELc114ELc111ELc116ELc97ELc116ELc105ELc111ELc110EEEEbZNS_3getITnS1_XtlS2_tlS3_Lc115ELc104ELc111ELc119ELc45ELc111ELc98ELc106ELc101ELc99ELc116ELc45ELc114ELc111ELc116ELc97ELc116ELc105ELc111ELc110EEEEbEET0_PN5geode3ModEEUlbE_EEPNS6_13EventListenerINS6_22SettingChangedFilterV3EEEOT1_S8_
PUBLIC 1bf18 0 _ZNSt6__ndk110__function6__funcIZN14MoreObjectInfo15settingListenerITn14TemplateStringXtlS4_ILm21EEtlA21_cLc115ELc104ELc111ELc119ELc45ELc111ELc98ELc106ELc101ELc99ELc116ELc45ELc114ELc111ELc116ELc97ELc116ELc105ELc111ELc110EEEEbZNS2_3getITnS4_XtlS5_tlS6_Lc115ELc104ELc111ELc119ELc45ELc111ELc98ELc106ELc101ELc99ELc116ELc45ELc114ELc111ELc116ELc97ELc116ELc105ELc111ELc110EEEEbEET0_PN5geode3ModEEUlbE_EEPNS9_13EventListenerINS9_22SettingChangedFilterV3EEEOT1_SB_EUlNS_10shared_ptrINS9_9SettingV3EEEE_NS_9allocatorISM_EEFvSL_EED0Ev
PUBLIC 1bf1c 0 _ZNKSt6__ndk110__function6__funcIZN14MoreObjectInfo15settingListenerITn14TemplateStringXtlS4_ILm21EEtlA21_cLc115ELc104ELc111ELc119ELc45ELc111ELc98ELc106ELc101ELc99ELc116ELc45ELc114ELc111ELc116ELc97ELc116ELc105ELc111ELc110EEEEbZNS2_3getITnS4_XtlS5_tlS6_Lc115ELc104ELc111ELc119ELc45ELc111ELc98ELc106ELc101ELc99ELc116ELc45ELc114ELc111ELc116ELc97ELc116ELc105ELc111ELc110EEEEbEET0_PN5geode3ModEEUlbE_EEPNS9_13EventListenerINS9_22SettingChangedFilterV3EEEOT1_SB_EUlNS_10shared_ptrINS9_9SettingV3EEEE_NS_9allocatorISM_EEFvSL_EE7__cloneEv
PUBLIC 1bf54 0 _ZNKSt6__ndk110__function6__funcIZN14MoreObjectInfo15settingListenerITn14TemplateStringXtlS4_ILm21EEtlA21_cLc115ELc104ELc111ELc119ELc45ELc111ELc98ELc106ELc101ELc99ELc116ELc45ELc114ELc111ELc116ELc97ELc116ELc105ELc111ELc110EEEEbZNS2_3getITnS4_XtlS5_tlS6_Lc115ELc104ELc111ELc119ELc45ELc111ELc98ELc106ELc101ELc99ELc116ELc45ELc114ELc111ELc116ELc97ELc116ELc105ELc111ELc110EEEEbEET0_PN5geode3ModEEUlbE_EEPNS9_13EventListenerINS9_22SettingChangedFilterV3EEEOT1_SB_EUlNS_10shared_ptrINS9_9SettingV3EEEE_NS_9allocatorISM_EEFvSL_EE7__cloneEPNS0_6__baseISP_EE
PUBLIC 1bf6c 0 _ZNSt6__ndk110__function6__funcIZN14MoreObjectInfo15settingListenerITn14TemplateStringXtlS4_ILm21EEtlA21_cLc115ELc104ELc111ELc119ELc45ELc111ELc98ELc106ELc101ELc99ELc116ELc45ELc114ELc111ELc116ELc97ELc116ELc105ELc111ELc110EEEEbZNS2_3getITnS4_XtlS5_tlS6_Lc115ELc104ELc111ELc119ELc45ELc111ELc98ELc106ELc101ELc99ELc116ELc45ELc114ELc111ELc116ELc97ELc116ELc105ELc111ELc110EEEEbEET0_PN5geode3ModEEUlbE_EEPNS9_13EventListenerINS9_22SettingChangedFilterV3EEEOT1_SB_EUlNS_10shared_ptrINS9_9SettingV3EEEE_NS_9allocatorISM_EEFvSL_EE7destroyEv
PUBLIC 1bf70 0 _ZNSt6__ndk110__function6__funcIZN14MoreObjectInfo15settingListenerITn14TemplateStringXtlS4_ILm21EEtlA21_cLc115ELc104ELc111ELc119ELc45ELc111ELc98ELc106ELc101ELc99ELc116ELc45ELc114ELc111ELc116ELc97ELc116ELc105ELc111ELc110EEEEbZNS2_3getITnS4_XtlS5_tlS6_Lc115ELc104ELc111ELc119ELc45ELc111ELc98ELc106ELc101ELc99ELc116ELc45ELc114ELc111ELc116ELc97ELc116ELc105ELc111ELc110EEEEbEET0_PN5geode3ModEEUlbE_EEPNS9_13EventListenerINS9_22SettingChangedFilterV3EEEOT1_SB_EUlNS_10shared_ptrINS9_9SettingV3EEEE_NS_9allocatorISM_EEFvSL_EE18destroy_deallocateEv
PUBLIC 1bf74 0 _ZNSt6__ndk110__function6__funcIZN14MoreObjectInfo15settingListenerITn14TemplateStringXtlS4_ILm21EEtlA21_cLc115ELc104ELc111ELc119ELc45ELc111ELc98ELc106ELc101ELc99ELc116ELc45ELc114ELc111ELc116ELc97ELc116ELc105ELc111ELc110EEEEbZNS2_3getITnS4_XtlS5_tlS6_Lc115ELc104ELc111ELc119ELc45ELc111ELc98ELc106ELc101ELc99ELc116ELc45ELc114ELc111ELc116ELc97ELc116ELc105ELc111ELc110EEEEbEET0_PN5geode3ModEEUlbE_EEPNS9_13EventListenerINS9_22SettingChangedFilterV3EEEOT1_SB_EUlNS_10shared_ptrINS9_9SettingV3EEEE_NS_9allocatorISM_EEFvSL_EEclEOSL_
PUBLIC 1c038 0 _ZNKSt6__ndk110__function6__funcIZN14MoreObjectInfo15settingListenerITn14TemplateStringXtlS4_ILm21EEtlA21_cLc115ELc104ELc111ELc119ELc45ELc111ELc98ELc106ELc101ELc99ELc116ELc45ELc114ELc111ELc116ELc97ELc116ELc105ELc111ELc110EEEEbZNS2_3getITnS4_XtlS5_tlS6_Lc115ELc104ELc111ELc119ELc45ELc111ELc98ELc106ELc101ELc99ELc116ELc45ELc114ELc111ELc116ELc97ELc116ELc105ELc111ELc110EEEEbEET0_PN5geode3ModEEUlbE_EEPNS9_13EventListenerINS9_22SettingChangedFilterV3EEEOT1_SB_EUlNS_10shared_ptrINS9_9SettingV3EEEE_NS_9allocatorISM_EEFvSL_EE6targetERKSt9type_info
PUBLIC 1c054 0 _ZNKSt6__ndk110__function6__funcIZN14MoreObjectInfo15settingListenerITn14TemplateStringXtlS4_ILm21EEtlA21_cLc115ELc104ELc111ELc119ELc45ELc111ELc98ELc106ELc101ELc99ELc116ELc45ELc114ELc111ELc116ELc97ELc116ELc105ELc111ELc110EEEEbZNS2_3getITnS4_XtlS5_tlS6_Lc115ELc104ELc111ELc119ELc45ELc111ELc98ELc106ELc101ELc99ELc116ELc45ELc114ELc111ELc116ELc97ELc116ELc105ELc111ELc110EEEEbEET0_PN5geode3ModEEUlbE_EEPNS9_13EventListenerINS9_22SettingChangedFilterV3EEEOT1_SB_EUlNS_10shared_ptrINS9_9SettingV3EEEE_NS_9allocatorISM_EEFvSL_EE11target_typeEv
PUBLIC 1c060 0 _ZN14MoreObjectInfo15settingListenerITn14TemplateStringXtlS1_ILm18EEtlA18_cLc115ELc104ELc111ELc119ELc45ELc111ELc98ELc106ELc101ELc99ELc116ELc45ELc115ELc99ELc97ELc108ELc101EEEEbZNS_3getITnS1_XtlS2_tlS3_Lc115ELc104ELc111ELc119ELc45ELc111ELc98ELc106ELc101ELc99ELc116ELc45ELc115ELc99ELc97ELc108ELc101EEEEbEET0_PN5geode3ModEEUlbE_EEPNS6_13EventListenerINS6_22SettingChangedFilterV3EEEOT1_S8_
PUBLIC 1c214 0 _ZNSt6__ndk110__function6__funcIZN14MoreObjectInfo15settingListenerITn14TemplateStringXtlS4_ILm18EEtlA18_cLc115ELc104ELc111ELc119ELc45ELc111ELc98ELc106ELc101ELc99ELc116ELc45ELc115ELc99ELc97ELc108ELc101EEEEbZNS2_3getITnS4_XtlS5_tlS6_Lc115ELc104ELc111ELc119ELc45ELc111ELc98ELc106ELc101ELc99ELc116ELc45ELc115ELc99ELc97ELc108ELc101EEEEbEET0_PN5geode3ModEEUlbE_EEPNS9_13EventListenerINS9_22SettingChangedFilterV3EEEOT1_SB_EUlNS_10shared_ptrINS9_9SettingV3EEEE_NS_9allocatorISM_EEFvSL_EED0Ev
PUBLIC 1c218 0 _ZNKSt6__ndk110__function6__funcIZN14MoreObjectInfo15settingListenerITn14TemplateStringXtlS4_ILm18EEtlA18_cLc115ELc104ELc111ELc119ELc45ELc111ELc98ELc106ELc101ELc99ELc116ELc45ELc115ELc99ELc97ELc108ELc101EEEEbZNS2_3getITnS4_XtlS5_tlS6_Lc115ELc104ELc111ELc119ELc45ELc111ELc98ELc106ELc101ELc99ELc116ELc45ELc115ELc99ELc97ELc108ELc101EEEEbEET0_PN5geode3ModEEUlbE_EEPNS9_13EventListenerINS9_22SettingChangedFilterV3EEEOT1_SB_EUlNS_10shared_ptrINS9_9SettingV3EEEE_NS_9allocatorISM_EEFvSL_EE7__cloneEv
PUBLIC 1c250 0 _ZNKSt6__ndk110__function6__funcIZN14MoreObjectInfo15settingListenerITn14TemplateStringXtlS4_ILm18EEtlA18_cLc115ELc104ELc111ELc119ELc45ELc111ELc98ELc106ELc101ELc99ELc116ELc45ELc115ELc99ELc97ELc108ELc101EEEEbZNS2_3getITnS4_XtlS5_tlS6_Lc115ELc104ELc111ELc119ELc45ELc111ELc98ELc106ELc101ELc99ELc116ELc45ELc115ELc99ELc97ELc108ELc101EEEEbEET0_PN5geode3ModEEUlbE_EEPNS9_13EventListenerINS9_22SettingChangedFilterV3EEEOT1_SB_EUlNS_10shared_ptrINS9_9SettingV3EEEE_NS_9allocatorISM_EEFvSL_EE7__cloneEPNS0_6__baseISP_EE
PUBLIC 1c268 0 _ZNSt6__ndk110__function6__funcIZN14MoreObjectInfo15settingListenerITn14TemplateStringXtlS4_ILm18EEtlA18_cLc115ELc104ELc111ELc119ELc45ELc111ELc98ELc106ELc101ELc99ELc116ELc45ELc115ELc99ELc97ELc108ELc101EEEEbZNS2_3getITnS4_XtlS5_tlS6_Lc115ELc104ELc111ELc119ELc45ELc111ELc98ELc106ELc101ELc99ELc116ELc45ELc115ELc99ELc97ELc108ELc101EEEEbEET0_PN5geode3ModEEUlbE_EEPNS9_13EventListenerINS9_22SettingChangedFilterV3EEEOT1_SB_EUlNS_10shared_ptrINS9_9SettingV3EEEE_NS_9allocatorISM_EEFvSL_EE7destroyEv
PUBLIC 1c26c 0 _ZNSt6__ndk110__function6__funcIZN14MoreObjectInfo15settingListenerITn14TemplateStringXtlS4_ILm18EEtlA18_cLc115ELc104ELc111ELc119ELc45ELc111ELc98ELc106ELc101ELc99ELc116ELc45ELc115ELc99ELc97ELc108ELc101EEEEbZNS2_3getITnS4_XtlS5_tlS6_Lc115ELc104ELc111ELc119ELc45ELc111ELc98ELc106ELc101ELc99ELc116ELc45ELc115ELc99ELc97ELc108ELc101EEEEbEET0_PN5geode3ModEEUlbE_EEPNS9_13EventListenerINS9_22SettingChangedFilterV3EEEOT1_SB_EUlNS_10shared_ptrINS9_9SettingV3EEEE_NS_9allocatorISM_EEFvSL_EE18destroy_deallocateEv
PUBLIC 1c270 0 _ZNSt6__ndk110__function6__funcIZN14MoreObjectInfo15settingListenerITn14TemplateStringXtlS4_ILm18EEtlA18_cLc115ELc104ELc111ELc119ELc45ELc111ELc98ELc106ELc101ELc99ELc116ELc45ELc115ELc99ELc97ELc108ELc101EEEEbZNS2_3getITnS4_XtlS5_tlS6_Lc115ELc104ELc111ELc119ELc45ELc111ELc98ELc106ELc101ELc99ELc116ELc45ELc115ELc99ELc97ELc108ELc101EEEEbEET0_PN5geode3ModEEUlbE_EEPNS9_13EventListenerINS9_22SettingChangedFilterV3EEEOT1_SB_EUlNS_10shared_ptrINS9_9SettingV3EEEE_NS_9allocatorISM_EEFvSL_EEclEOSL_
PUBLIC 1c334 0 _ZNKSt6__ndk110__function6__funcIZN14MoreObjectInfo15settingListenerITn14TemplateStringXtlS4_ILm18EEtlA18_cLc115ELc104ELc111ELc119ELc45ELc111ELc98ELc106ELc101ELc99ELc116ELc45ELc115ELc99ELc97ELc108ELc101EEEEbZNS2_3getITnS4_XtlS5_tlS6_Lc115ELc104ELc111ELc119ELc45ELc111ELc98ELc106ELc101ELc99ELc116ELc45ELc115ELc99ELc97ELc108ELc101EEEEbEET0_PN5geode3ModEEUlbE_EEPNS9_13EventListenerINS9_22SettingChangedFilterV3EEEOT1_SB_EUlNS_10shared_ptrINS9_9SettingV3EEEE_NS_9allocatorISM_EEFvSL_EE6targetERKSt9type_info
PUBLIC 1c350 0 _ZNKSt6__ndk110__function6__funcIZN14MoreObjectInfo15settingListenerITn14TemplateStringXtlS4_ILm18EEtlA18_cLc115ELc104ELc111ELc119ELc45ELc111ELc98ELc106ELc101ELc99ELc116ELc45ELc115ELc99ELc97ELc108ELc101EEEEbZNS2_3getITnS4_XtlS5_tlS6_Lc115ELc104ELc111ELc119ELc45ELc111ELc98ELc106ELc101ELc99ELc116ELc45ELc115ELc99ELc97ELc108ELc101EEEEbEET0_PN5geode3ModEEUlbE_EEPNS9_13EventListenerINS9_22SettingChangedFilterV3EEEOT1_SB_EUlNS_10shared_ptrINS9_9SettingV3EEEE_NS_9allocatorISM_EEFvSL_EE11target_typeEv
PUBLIC 1c35c 0 _ZN14MoreObjectInfo15settingListenerITn14TemplateStringXtlS1_ILm23EEtlA23_cLc115ELc104ELc111ELc119ELc45ELc111ELc98ELc106ELc101ELc99ELc116ELc45ELc98ELc97ELc115ELc101ELc45ELc99ELc111ELc108ELc111ELc114EEEEbZNS_3getITnS1_XtlS2_tlS3_Lc115ELc104ELc111ELc119ELc45ELc111ELc98ELc106ELc101ELc99ELc116ELc45ELc98ELc97ELc115ELc101ELc45ELc99ELc111ELc108ELc111ELc114EEEEbEET0_PN5geode3ModEEUlbE_EEPNS6_13EventListenerINS6_22SettingChangedFilterV3EEEOT1_S8_
PUBLIC 1c51c 0 _ZNSt6__ndk110__function6__funcIZN14MoreObjectInfo15settingListenerITn14TemplateStringXtlS4_ILm23EEtlA23_cLc115ELc104ELc111ELc119ELc45ELc111ELc98ELc106ELc101ELc99ELc116ELc45ELc98ELc97ELc115ELc101ELc45ELc99ELc111ELc108ELc111ELc114EEEEbZNS2_3getITnS4_XtlS5_tlS6_Lc115ELc104ELc111ELc119ELc45ELc111ELc98ELc106ELc101ELc99ELc116ELc45ELc98ELc97ELc115ELc101ELc45ELc99ELc111ELc108ELc111ELc114EEEEbEET0_PN5geode3ModEEUlbE_EEPNS9_13EventListenerINS9_22SettingChangedFilterV3EEEOT1_SB_EUlNS_10shared_ptrINS9_9SettingV3EEEE_NS_9allocatorISM_EEFvSL_EED0Ev
PUBLIC 1c520 0 _ZNKSt6__ndk110__function6__funcIZN14MoreObjectInfo15settingListenerITn14TemplateStringXtlS4_ILm23EEtlA23_cLc115ELc104ELc111ELc119ELc45ELc111ELc98ELc106ELc101ELc99ELc116ELc45ELc98ELc97ELc115ELc101ELc45ELc99ELc111ELc108ELc111ELc114EEEEbZNS2_3getITnS4_XtlS5_tlS6_Lc115ELc104ELc111ELc119ELc45ELc111ELc98ELc106ELc101ELc99ELc116ELc45ELc98ELc97ELc115ELc101ELc45ELc99ELc111ELc108ELc111ELc114EEEEbEET0_PN5geode3ModEEUlbE_EEPNS9_13EventListenerINS9_22SettingChangedFilterV3EEEOT1_SB_EUlNS_10shared_ptrINS9_9SettingV3EEEE_NS_9allocatorISM_EEFvSL_EE7__cloneEv
PUBLIC 1c558 0 _ZNKSt6__ndk110__function6__funcIZN14MoreObjectInfo15settingListenerITn14TemplateStringXtlS4_ILm23EEtlA23_cLc115ELc104ELc111ELc119ELc45ELc111ELc98ELc106ELc101ELc99ELc116ELc45ELc98ELc97ELc115ELc101ELc45ELc99ELc111ELc108ELc111ELc114EEEEbZNS2_3getITnS4_XtlS5_tlS6_Lc115ELc104ELc111ELc119ELc45ELc111ELc98ELc106ELc101ELc99ELc116ELc45ELc98ELc97ELc115ELc101ELc45ELc99ELc111ELc108ELc111ELc114EEEEbEET0_PN5geode3ModEEUlbE_EEPNS9_13EventListenerINS9_22SettingChangedFilterV3EEEOT1_SB_EUlNS_10shared_ptrINS9_9SettingV3EEEE_NS_9allocatorISM_EEFvSL_EE7__cloneEPNS0_6__baseISP_EE
PUBLIC 1c570 0 _ZNSt6__ndk110__function6__funcIZN14MoreObjectInfo15settingListenerITn14TemplateStringXtlS4_ILm23EEtlA23_cLc115ELc104ELc111ELc119ELc45ELc111ELc98ELc106ELc101ELc99ELc116ELc45ELc98ELc97ELc115ELc101ELc45ELc99ELc111ELc108ELc111ELc114EEEEbZNS2_3getITnS4_XtlS5_tlS6_Lc115ELc104ELc111ELc119ELc45ELc111ELc98ELc106ELc101ELc99ELc116ELc45ELc98ELc97ELc115ELc101ELc45ELc99ELc111ELc108ELc111ELc114EEEEbEET0_PN5geode3ModEEUlbE_EEPNS9_13EventListenerINS9_22SettingChangedFilterV3EEEOT1_SB_EUlNS_10shared_ptrINS9_9SettingV3EEEE_NS_9allocatorISM_EEFvSL_EE7destroyEv
PUBLIC 1c574 0 _ZNSt6__ndk110__function6__funcIZN14MoreObjectInfo15settingListenerITn14TemplateStringXtlS4_ILm23EEtlA23_cLc115ELc104ELc111ELc119ELc45ELc111ELc98ELc106ELc101ELc99ELc116ELc45ELc98ELc97ELc115ELc101ELc45ELc99ELc111ELc108ELc111ELc114EEEEbZNS2_3getITnS4_XtlS5_tlS6_Lc115ELc104ELc111ELc119ELc45ELc111ELc98ELc106ELc101ELc99ELc116ELc45ELc98ELc97ELc115ELc101ELc45ELc99ELc111ELc108ELc111ELc114EEEEbEET0_PN5geode3ModEEUlbE_EEPNS9_13EventListenerINS9_22SettingChangedFilterV3EEEOT1_SB_EUlNS_10shared_ptrINS9_9SettingV3EEEE_NS_9allocatorISM_EEFvSL_EE18destroy_deallocateEv
PUBLIC 1c578 0 _ZNSt6__ndk110__function6__funcIZN14MoreObjectInfo15settingListenerITn14TemplateStringXtlS4_ILm23EEtlA23_cLc115ELc104ELc111ELc119ELc45ELc111ELc98ELc106ELc101ELc99ELc116ELc45ELc98ELc97ELc115ELc101ELc45ELc99ELc111ELc108ELc111ELc114EEEEbZNS2_3getITnS4_XtlS5_tlS6_Lc115ELc104ELc111ELc119ELc45ELc111ELc98ELc106ELc101ELc99ELc116ELc45ELc98ELc97ELc115ELc101ELc45ELc99ELc111ELc108ELc111ELc114EEEEbEET0_PN5geode3ModEEUlbE_EEPNS9_13EventListenerINS9_22SettingChangedFilterV3EEEOT1_SB_EUlNS_10shared_ptrINS9_9SettingV3EEEE_NS_9allocatorISM_EEFvSL_EEclEOSL_
PUBLIC 1c63c 0 _ZNKSt6__ndk110__function6__funcIZN14MoreObjectInfo15settingListenerITn14TemplateStringXtlS4_ILm23EEtlA23_cLc115ELc104ELc111ELc119ELc45ELc111ELc98ELc106ELc101ELc99ELc116ELc45ELc98ELc97ELc115ELc101ELc45ELc99ELc111ELc108ELc111ELc114EEEEbZNS2_3getITnS4_XtlS5_tlS6_Lc115ELc104ELc111ELc119ELc45ELc111ELc98ELc106ELc101ELc99ELc116ELc45ELc98ELc97ELc115ELc101ELc45ELc99ELc111ELc108ELc111ELc114EEEEbEET0_PN5geode3ModEEUlbE_EEPNS9_13EventListenerINS9_22SettingChangedFilterV3EEEOT1_SB_EUlNS_10shared_ptrINS9_9SettingV3EEEE_NS_9allocatorISM_EEFvSL_EE6targetERKSt9type_info
PUBLIC 1c658 0 _ZNKSt6__ndk110__function6__funcIZN14MoreObjectInfo15settingListenerITn14TemplateStringXtlS4_ILm23EEtlA23_cLc115ELc104ELc111ELc119ELc45ELc111ELc98ELc106ELc101ELc99ELc116ELc45ELc98ELc97ELc115ELc101ELc45ELc99ELc111ELc108ELc111ELc114EEEEbZNS2_3getITnS4_XtlS5_tlS6_Lc115ELc104ELc111ELc119ELc45ELc111ELc98ELc106ELc101ELc99ELc116ELc45ELc98ELc97ELc115ELc101ELc45ELc99ELc111ELc108ELc111ELc114EEEEbEET0_PN5geode3ModEEUlbE_EEPNS9_13EventListenerINS9_22SettingChangedFilterV3EEEOT1_SB_EUlNS_10shared_ptrINS9_9SettingV3EEEE_NS_9allocatorISM_EEFvSL_EE11target_typeEv
PUBLIC 1c664 0 _ZN14MoreObjectInfo15settingListenerITn14TemplateStringXtlS1_ILm25EEtlA25_cLc115ELc104ELc111ELc119ELc45ELc111ELc98ELc106ELc101ELc99ELc116ELc45ELc100ELc101ELc116ELc97ELc105ELc108ELc45ELc99ELc111ELc108ELc111ELc114EEEEbZNS_3getITnS1_XtlS2_tlS3_Lc115ELc104ELc111ELc119ELc45ELc111ELc98ELc106ELc101ELc99ELc116ELc45ELc100ELc101ELc116ELc97ELc105ELc108ELc45ELc99ELc111ELc108ELc111ELc114EEEEbEET0_PN5geode3ModEEUlbE_EEPNS6_13EventListenerINS6_22SettingChangedFilterV3EEEOT1_S8_
PUBLIC 1c838 0 _ZNSt6__ndk110__function6__funcIZN14MoreObjectInfo15settingListenerITn14TemplateStringXtlS4_ILm25EEtlA25_cLc115ELc104ELc111ELc119ELc45ELc111ELc98ELc106ELc101ELc99ELc116ELc45ELc100ELc101ELc116ELc97ELc105ELc108ELc45ELc99ELc111ELc108ELc111ELc114EEEEbZNS2_3getITnS4_XtlS5_tlS6_Lc115ELc104ELc111ELc119ELc45ELc111ELc98ELc106ELc101ELc99ELc116ELc45ELc100ELc101ELc116ELc97ELc105ELc108ELc45ELc99ELc111ELc108ELc111ELc114EEEEbEET0_PN5geode3ModEEUlbE_EEPNS9_13EventListenerINS9_22SettingChangedFilterV3EEEOT1_SB_EUlNS_10shared_ptrINS9_9SettingV3EEEE_NS_9allocatorISM_EEFvSL_EED0Ev
PUBLIC 1c83c 0 _ZNKSt6__ndk110__function6__funcIZN14MoreObjectInfo15settingListenerITn14TemplateStringXtlS4_ILm25EEtlA25_cLc115ELc104ELc111ELc119ELc45ELc111ELc98ELc106ELc101ELc99ELc116ELc45ELc100ELc101ELc116ELc97ELc105ELc108ELc45ELc99ELc111ELc108ELc111ELc114EEEEbZNS2_3getITnS4_XtlS5_tlS6_Lc115ELc104ELc111ELc119ELc45ELc111ELc98ELc106ELc101ELc99ELc116ELc45ELc100ELc101ELc116ELc97ELc105ELc108ELc45ELc99ELc111ELc108ELc111ELc114EEEEbEET0_PN5geode3ModEEUlbE_EEPNS9_13EventListenerINS9_22SettingChangedFilterV3EEEOT1_SB_EUlNS_10shared_ptrINS9_9SettingV3EEEE_NS_9allocatorISM_EEFvSL_EE7__cloneEv
PUBLIC 1c874 0 _ZNKSt6__ndk110__function6__funcIZN14MoreObjectInfo15settingListenerITn14TemplateStringXtlS4_ILm25EEtlA25_cLc115ELc104ELc111ELc119ELc45ELc111ELc98ELc106ELc101ELc99ELc116ELc45ELc100ELc101ELc116ELc97ELc105ELc108ELc45ELc99ELc111ELc108ELc111ELc114EEEEbZNS2_3getITnS4_XtlS5_tlS6_Lc115ELc104ELc111ELc119ELc45ELc111ELc98ELc106ELc101ELc99ELc116ELc45ELc100ELc101ELc116ELc97ELc105ELc108ELc45ELc99ELc111ELc108ELc111ELc114EEEEbEET0_PN5geode3ModEEUlbE_EEPNS9_13EventListenerINS9_22SettingChangedFilterV3EEEOT1_SB_EUlNS_10shared_ptrINS9_9SettingV3EEEE_NS_9allocatorISM_EEFvSL_EE7__cloneEPNS0_6__baseISP_EE
PUBLIC 1c88c 0 _ZNSt6__ndk110__function6__funcIZN14MoreObjectInfo15settingListenerITn14TemplateStringXtlS4_ILm25EEtlA25_cLc115ELc104ELc111ELc119ELc45ELc111ELc98ELc106ELc101ELc99ELc116ELc45ELc100ELc101ELc116ELc97ELc105ELc108ELc45ELc99ELc111ELc108ELc111ELc114EEEEbZNS2_3getITnS4_XtlS5_tlS6_Lc115ELc104ELc111ELc119ELc45ELc111ELc98ELc106ELc101ELc99ELc116ELc45ELc100ELc101ELc116ELc97ELc105ELc108ELc45ELc99ELc111ELc108ELc111ELc114EEEEbEET0_PN5geode3ModEEUlbE_EEPNS9_13EventListenerINS9_22SettingChangedFilterV3EEEOT1_SB_EUlNS_10shared_ptrINS9_9SettingV3EEEE_NS_9allocatorISM_EEFvSL_EE7destroyEv
PUBLIC 1c890 0 _ZNSt6__ndk110__function6__funcIZN14MoreObjectInfo15settingListenerITn14TemplateStringXtlS4_ILm25EEtlA25_cLc115ELc104ELc111ELc119ELc45ELc111ELc98ELc106ELc101ELc99ELc116ELc45ELc100ELc101ELc116ELc97ELc105ELc108ELc45ELc99ELc111ELc108ELc111ELc114EEEEbZNS2_3getITnS4_XtlS5_tlS6_Lc115ELc104ELc111ELc119ELc45ELc111ELc98ELc106ELc101ELc99ELc116ELc45ELc100ELc101ELc116ELc97ELc105ELc108ELc45ELc99ELc111ELc108ELc111ELc114EEEEbEET0_PN5geode3ModEEUlbE_EEPNS9_13EventListenerINS9_22SettingChangedFilterV3EEEOT1_SB_EUlNS_10shared_ptrINS9_9SettingV3EEEE_NS_9allocatorISM_EEFvSL_EE18destroy_deallocateEv
PUBLIC 1c894 0 _ZNSt6__ndk110__function6__funcIZN14MoreObjectInfo15settingListenerITn14TemplateStringXtlS4_ILm25EEtlA25_cLc115ELc104ELc111ELc119ELc45ELc111ELc98ELc106ELc101ELc99ELc116ELc45ELc100ELc101ELc116ELc97ELc105ELc108ELc45ELc99ELc111ELc108ELc111ELc114EEEEbZNS2_3getITnS4_XtlS5_tlS6_Lc115ELc104ELc111ELc119ELc45ELc111ELc98ELc106ELc101ELc99ELc116ELc45ELc100ELc101ELc116ELc97ELc105ELc108ELc45ELc99ELc111ELc108ELc111ELc114EEEEbEET0_PN5geode3ModEEUlbE_EEPNS9_13EventListenerINS9_22SettingChangedFilterV3EEEOT1_SB_EUlNS_10shared_ptrINS9_9SettingV3EEEE_NS_9allocatorISM_EEFvSL_EEclEOSL_
PUBLIC 1c958 0 _ZNKSt6__ndk110__function6__funcIZN14MoreObjectInfo15settingListenerITn14TemplateStringXtlS4_ILm25EEtlA25_cLc115ELc104ELc111ELc119ELc45ELc111ELc98ELc106ELc101ELc99ELc116ELc45ELc100ELc101ELc116ELc97ELc105ELc108ELc45ELc99ELc111ELc108ELc111ELc114EEEEbZNS2_3getITnS4_XtlS5_tlS6_Lc115ELc104ELc111ELc119ELc45ELc111ELc98ELc106ELc101ELc99ELc116ELc45ELc100ELc101ELc116ELc97ELc105ELc108ELc45ELc99ELc111ELc108ELc111ELc114EEEEbEET0_PN5geode3ModEEUlbE_EEPNS9_13EventListenerINS9_22SettingChangedFilterV3EEEOT1_SB_EUlNS_10shared_ptrINS9_9SettingV3EEEE_NS_9allocatorISM_EEFvSL_EE6targetERKSt9type_info
PUBLIC 1c974 0 _ZNKSt6__ndk110__function6__funcIZN14MoreObjectInfo15settingListenerITn14TemplateStringXtlS4_ILm25EEtlA25_cLc115ELc104ELc111ELc119ELc45ELc111ELc98ELc106ELc101ELc99ELc116ELc45ELc100ELc101ELc116ELc97ELc105ELc108ELc45ELc99ELc111ELc108ELc111ELc114EEEEbZNS2_3getITnS4_XtlS5_tlS6_Lc115ELc104ELc111ELc119ELc45ELc111ELc98ELc106ELc101ELc99ELc116ELc45ELc100ELc101ELc116ELc97ELc105ELc108ELc45ELc99ELc111ELc108ELc111ELc114EEEEbEET0_PN5geode3ModEEUlbE_EEPNS9_13EventListenerINS9_22SettingChangedFilterV3EEEOT1_SB_EUlNS_10shared_ptrINS9_9SettingV3EEEE_NS_9allocatorISM_EEFvSL_EE11target_typeEv
PUBLIC 1c980 0 _ZN14MoreObjectInfo15settingListenerITn14TemplateStringXtlS1_ILm17EEtlA17_cLc115ELc104ELc111ELc119ELc45ELc111ELc98ELc106ELc101ELc99ELc116ELc45ELc116ELc121ELc112ELc101EEEEbZNS_3getITnS1_XtlS2_tlS3_Lc115ELc104ELc111ELc119ELc45ELc111ELc98ELc106ELc101ELc99ELc116ELc45ELc116ELc121ELc112ELc101EEEEbEET0_PN5geode3ModEEUlbE_EEPNS6_13EventListenerINS6_22SettingChangedFilterV3EEEOT1_S8_
PUBLIC 1cb34 0 _ZNSt6__ndk110__function6__funcIZN14MoreObjectInfo15settingListenerITn14TemplateStringXtlS4_ILm17EEtlA17_cLc115ELc104ELc111ELc119ELc45ELc111ELc98ELc106ELc101ELc99ELc116ELc45ELc116ELc121ELc112ELc101EEEEbZNS2_3getITnS4_XtlS5_tlS6_Lc115ELc104ELc111ELc119ELc45ELc111ELc98ELc106ELc101ELc99ELc116ELc45ELc116ELc121ELc112ELc101EEEEbEET0_PN5geode3ModEEUlbE_EEPNS9_13EventListenerINS9_22SettingChangedFilterV3EEEOT1_SB_EUlNS_10shared_ptrINS9_9SettingV3EEEE_NS_9allocatorISM_EEFvSL_EED0Ev
PUBLIC 1cb38 0 _ZNKSt6__ndk110__function6__funcIZN14MoreObjectInfo15settingListenerITn14TemplateStringXtlS4_ILm17EEtlA17_cLc115ELc104ELc111ELc119ELc45ELc111ELc98ELc106ELc101ELc99ELc116ELc45ELc116ELc121ELc112ELc101EEEEbZNS2_3getITnS4_XtlS5_tlS6_Lc115ELc104ELc111ELc119ELc45ELc111ELc98ELc106ELc101ELc99ELc116ELc45ELc116ELc121ELc112ELc101EEEEbEET0_PN5geode3ModEEUlbE_EEPNS9_13EventListenerINS9_22SettingChangedFilterV3EEEOT1_SB_EUlNS_10shared_ptrINS9_9SettingV3EEEE_NS_9allocatorISM_EEFvSL_EE7__cloneEv
PUBLIC 1cb70 0 _ZNKSt6__ndk110__function6__funcIZN14MoreObjectInfo15settingListenerITn14TemplateStringXtlS4_ILm17EEtlA17_cLc115ELc104ELc111ELc119ELc45ELc111ELc98ELc106ELc101ELc99ELc116ELc45ELc116ELc121ELc112ELc101EEEEbZNS2_3getITnS4_XtlS5_tlS6_Lc115ELc104ELc111ELc119ELc45ELc111ELc98ELc106ELc101ELc99ELc116ELc45ELc116ELc121ELc112ELc101EEEEbEET0_PN5geode3ModEEUlbE_EEPNS9_13EventListenerINS9_22SettingChangedFilterV3EEEOT1_SB_EUlNS_10shared_ptrINS9_9SettingV3EEEE_NS_9allocatorISM_EEFvSL_EE7__cloneEPNS0_6__baseISP_EE
PUBLIC 1cb88 0 _ZNSt6__ndk110__function6__funcIZN14MoreObjectInfo15settingListenerITn14TemplateStringXtlS4_ILm17EEtlA17_cLc115ELc104ELc111ELc119ELc45ELc111ELc98ELc106ELc101ELc99ELc116ELc45ELc116ELc121ELc112ELc101EEEEbZNS2_3getITnS4_XtlS5_tlS6_Lc115ELc104ELc111ELc119ELc45ELc111ELc98ELc106ELc101ELc99ELc116ELc45ELc116ELc121ELc112ELc101EEEEbEET0_PN5geode3ModEEUlbE_EEPNS9_13EventListenerINS9_22SettingChangedFilterV3EEEOT1_SB_EUlNS_10shared_ptrINS9_9SettingV3EEEE_NS_9allocatorISM_EEFvSL_EE7destroyEv
PUBLIC 1cb8c 0 _ZNSt6__ndk110__function6__funcIZN14MoreObjectInfo15settingListenerITn14TemplateStringXtlS4_ILm17EEtlA17_cLc115ELc104ELc111ELc119ELc45ELc111ELc98ELc106ELc101ELc99ELc116ELc45ELc116ELc121ELc112ELc101EEEEbZNS2_3getITnS4_XtlS5_tlS6_Lc115ELc104ELc111ELc119ELc45ELc111ELc98ELc106ELc101ELc99ELc116ELc45ELc116ELc121ELc112ELc101EEEEbEET0_PN5geode3ModEEUlbE_EEPNS9_13EventListenerINS9_22SettingChangedFilterV3EEEOT1_SB_EUlNS_10shared_ptrINS9_9SettingV3EEEE_NS_9allocatorISM_EEFvSL_EE18destroy_deallocateEv
PUBLIC 1cb90 0 _ZNSt6__ndk110__function6__funcIZN14MoreObjectInfo15settingListenerITn14TemplateStringXtlS4_ILm17EEtlA17_cLc115ELc104ELc111ELc119ELc45ELc111ELc98ELc106ELc101ELc99ELc116ELc45ELc116ELc121ELc112ELc101EEEEbZNS2_3getITnS4_XtlS5_tlS6_Lc115ELc104ELc111ELc119ELc45ELc111ELc98ELc106ELc101ELc99ELc116ELc45ELc116ELc121ELc112ELc101EEEEbEET0_PN5geode3ModEEUlbE_EEPNS9_13EventListenerINS9_22SettingChangedFilterV3EEEOT1_SB_EUlNS_10shared_ptrINS9_9SettingV3EEEE_NS_9allocatorISM_EEFvSL_EEclEOSL_
PUBLIC 1cc54 0 _ZNKSt6__ndk110__function6__funcIZN14MoreObjectInfo15settingListenerITn14TemplateStringXtlS4_ILm17EEtlA17_cLc115ELc104ELc111ELc119ELc45ELc111ELc98ELc106ELc101ELc99ELc116ELc45ELc116ELc121ELc112ELc101EEEEbZNS2_3getITnS4_XtlS5_tlS6_Lc115ELc104ELc111ELc119ELc45ELc111ELc98ELc106ELc101ELc99ELc116ELc45ELc116ELc121ELc112ELc101EEEEbEET0_PN5geode3ModEEUlbE_EEPNS9_13EventListenerINS9_22SettingChangedFilterV3EEEOT1_SB_EUlNS_10shared_ptrINS9_9SettingV3EEEE_NS_9allocatorISM_EEFvSL_EE6targetERKSt9type_info
PUBLIC 1cc70 0 _ZNKSt6__ndk110__function6__funcIZN14MoreObjectInfo15settingListenerITn14TemplateStringXtlS4_ILm17EEtlA17_cLc115ELc104ELc111ELc119ELc45ELc111ELc98ELc106ELc101ELc99ELc116ELc45ELc116ELc121ELc112ELc101EEEEbZNS2_3getITnS4_XtlS5_tlS6_Lc115ELc104ELc111ELc119ELc45ELc111ELc98ELc106ELc101ELc99ELc116ELc45ELc116ELc121ELc112ELc101EEEEbEET0_PN5geode3ModEEUlbE_EEPNS9_13EventListenerINS9_22SettingChangedFilterV3EEEOT1_SB_EUlNS_10shared_ptrINS9_9SettingV3EEEE_NS_9allocatorISM_EEFvSL_EE11target_typeEv
PUBLIC 1cc7c 0 _ZN14MoreObjectInfo15settingListenerITn14TemplateStringXtlS1_ILm20EEtlA20_cLc115ELc104ELc111ELc119ELc45ELc111ELc98ELc106ELc101ELc99ELc116ELc45ELc97ELc100ELc100ELc114ELc101ELc115ELc115EEEEbZNS_3getITnS1_XtlS2_tlS3_Lc115ELc104ELc111ELc119ELc45ELc111ELc98ELc106ELc101ELc99ELc116ELc45ELc97ELc100ELc100ELc114ELc101ELc115ELc115EEEEbEET0_PN5geode3ModEEUlbE_EEPNS6_13EventListenerINS6_22SettingChangedFilterV3EEEOT1_S8_
PUBLIC 1ce34 0 _ZNSt6__ndk110__function6__funcIZN14MoreObjectInfo15settingListenerITn14TemplateStringXtlS4_ILm20EEtlA20_cLc115ELc104ELc111ELc119ELc45ELc111ELc98ELc106ELc101ELc99ELc116ELc45ELc97ELc100ELc100ELc114ELc101ELc115ELc115EEEEbZNS2_3getITnS4_XtlS5_tlS6_Lc115ELc104ELc111ELc119ELc45ELc111ELc98ELc106ELc101ELc99ELc116ELc45ELc97ELc100ELc100ELc114ELc101ELc115ELc115EEEEbEET0_PN5geode3ModEEUlbE_EEPNS9_13EventListenerINS9_22SettingChangedFilterV3EEEOT1_SB_EUlNS_10shared_ptrINS9_9SettingV3EEEE_NS_9allocatorISM_EEFvSL_EED0Ev
PUBLIC 1ce38 0 _ZNKSt6__ndk110__function6__funcIZN14MoreObjectInfo15settingListenerITn14TemplateStringXtlS4_ILm20EEtlA20_cLc115ELc104ELc111ELc119ELc45ELc111ELc98ELc106ELc101ELc99ELc116ELc45ELc97ELc100ELc100ELc114ELc101ELc115ELc115EEEEbZNS2_3getITnS4_XtlS5_tlS6_Lc115ELc104ELc111ELc119ELc45ELc111ELc98ELc106ELc101ELc99ELc116ELc45ELc97ELc100ELc100ELc114ELc101ELc115ELc115EEEEbEET0_PN5geode3ModEEUlbE_EEPNS9_13EventListenerINS9_22SettingChangedFilterV3EEEOT1_SB_EUlNS_10shared_ptrINS9_9SettingV3EEEE_NS_9allocatorISM_EEFvSL_EE7__cloneEv
PUBLIC 1ce70 0 _ZNKSt6__ndk110__function6__funcIZN14MoreObjectInfo15settingListenerITn14TemplateStringXtlS4_ILm20EEtlA20_cLc115ELc104ELc111ELc119ELc45ELc111ELc98ELc106ELc101ELc99ELc116ELc45ELc97ELc100ELc100ELc114ELc101ELc115ELc115EEEEbZNS2_3getITnS4_XtlS5_tlS6_Lc115ELc104ELc111ELc119ELc45ELc111ELc98ELc106ELc101ELc99ELc116ELc45ELc97ELc100ELc100ELc114ELc101ELc115ELc115EEEEbEET0_PN5geode3ModEEUlbE_EEPNS9_13EventListenerINS9_22SettingChangedFilterV3EEEOT1_SB_EUlNS_10shared_ptrINS9_9SettingV3EEEE_NS_9allocatorISM_EEFvSL_EE7__cloneEPNS0_6__baseISP_EE
PUBLIC 1ce88 0 _ZNSt6__ndk110__function6__funcIZN14MoreObjectInfo15settingListenerITn14TemplateStringXtlS4_ILm20EEtlA20_cLc115ELc104ELc111ELc119ELc45ELc111ELc98ELc106ELc101ELc99ELc116ELc45ELc97ELc100ELc100ELc114ELc101ELc115ELc115EEEEbZNS2_3getITnS4_XtlS5_tlS6_Lc115ELc104ELc111ELc119ELc45ELc111ELc98ELc106ELc101ELc99ELc116ELc45ELc97ELc100ELc100ELc114ELc101ELc115ELc115EEEEbEET0_PN5geode3ModEEUlbE_EEPNS9_13EventListenerINS9_22SettingChangedFilterV3EEEOT1_SB_EUlNS_10shared_ptrINS9_9SettingV3EEEE_NS_9allocatorISM_EEFvSL_EE7destroyEv
PUBLIC 1ce8c 0 _ZNSt6__ndk110__function6__funcIZN14MoreObjectInfo15settingListenerITn14TemplateStringXtlS4_ILm20EEtlA20_cLc115ELc104ELc111ELc119ELc45ELc111ELc98ELc106ELc101ELc99ELc116ELc45ELc97ELc100ELc100ELc114ELc101ELc115ELc115EEEEbZNS2_3getITnS4_XtlS5_tlS6_Lc115ELc104ELc111ELc119ELc45ELc111ELc98ELc106ELc101ELc99ELc116ELc45ELc97ELc100ELc100ELc114ELc101ELc115ELc115EEEEbEET0_PN5geode3ModEEUlbE_EEPNS9_13EventListenerINS9_22SettingChangedFilterV3EEEOT1_SB_EUlNS_10shared_ptrINS9_9SettingV3EEEE_NS_9allocatorISM_EEFvSL_EE18destroy_deallocateEv
PUBLIC 1ce90 0 _ZNSt6__ndk110__function6__funcIZN14MoreObjectInfo15settingListenerITn14TemplateStringXtlS4_ILm20EEtlA20_cLc115ELc104ELc111ELc119ELc45ELc111ELc98ELc106ELc101ELc99ELc116ELc45ELc97ELc100ELc100ELc114ELc101ELc115ELc115EEEEbZNS2_3getITnS4_XtlS5_tlS6_Lc115ELc104ELc111ELc119ELc45ELc111ELc98ELc106ELc101ELc99ELc116ELc45ELc97ELc100ELc100ELc114ELc101ELc115ELc115EEEEbEET0_PN5geode3ModEEUlbE_EEPNS9_13EventListenerINS9_22SettingChangedFilterV3EEEOT1_SB_EUlNS_10shared_ptrINS9_9SettingV3EEEE_NS_9allocatorISM_EEFvSL_EEclEOSL_
PUBLIC 1cf54 0 _ZNKSt6__ndk110__function6__funcIZN14MoreObjectInfo15settingListenerITn14TemplateStringXtlS4_ILm20EEtlA20_cLc115ELc104ELc111ELc119ELc45ELc111ELc98ELc106ELc101ELc99ELc116ELc45ELc97ELc100ELc100ELc114ELc101ELc115ELc115EEEEbZNS2_3getITnS4_XtlS5_tlS6_Lc115ELc104ELc111ELc119ELc45ELc111ELc98ELc106ELc101ELc99ELc116ELc45ELc97ELc100ELc100ELc114ELc101ELc115ELc115EEEEbEET0_PN5geode3ModEEUlbE_EEPNS9_13EventListenerINS9_22SettingChangedFilterV3EEEOT1_SB_EUlNS_10shared_ptrINS9_9SettingV3EEEE_NS_9allocatorISM_EEFvSL_EE6targetERKSt9type_info
PUBLIC 1cf70 0 _ZNKSt6__ndk110__function6__funcIZN14MoreObjectInfo15settingListenerITn14TemplateStringXtlS4_ILm20EEtlA20_cLc115ELc104ELc111ELc119ELc45ELc111ELc98ELc106ELc101ELc99ELc116ELc45ELc97ELc100ELc100ELc114ELc101ELc115ELc115EEEEbZNS2_3getITnS4_XtlS5_tlS6_Lc115ELc104ELc111ELc119ELc45ELc111ELc98ELc106ELc101ELc99ELc116ELc45ELc97ELc100ELc100ELc114ELc101ELc115ELc115EEEEbEET0_PN5geode3ModEEUlbE_EEPNS9_13EventListenerINS9_22SettingChangedFilterV3EEEOT1_SB_EUlNS_10shared_ptrINS9_9SettingV3EEEE_NS_9allocatorISM_EEFvSL_EE11target_typeEv
PUBLIC 1cf7c 0 _ZN14MoreObjectInfo15settingListenerITn14TemplateStringXtlS1_ILm17EEtlA17_cLc115ELc104ELc111ELc119ELc45ELc111ELc98ELc106ELc101ELc99ELc116ELc45ELc100ELc97ELc116ELc97EEEEbZNS_3getITnS1_XtlS2_tlS3_Lc115ELc104ELc111ELc119ELc45ELc111ELc98ELc106ELc101ELc99ELc116ELc45ELc100ELc97ELc116ELc97EEEEbEET0_PN5geode3ModEEUlbE_EEPNS6_13EventListenerINS6_22SettingChangedFilterV3EEEOT1_S8_
PUBLIC 1d130 0 _ZNSt6__ndk110__function6__funcIZN14MoreObjectInfo15settingListenerITn14TemplateStringXtlS4_ILm17EEtlA17_cLc115ELc104ELc111ELc119ELc45ELc111ELc98ELc106ELc101ELc99ELc116ELc45ELc100ELc97ELc116ELc97EEEEbZNS2_3getITnS4_XtlS5_tlS6_Lc115ELc104ELc111ELc119ELc45ELc111ELc98ELc106ELc101ELc99ELc116ELc45ELc100ELc97ELc116ELc97EEEEbEET0_PN5geode3ModEEUlbE_EEPNS9_13EventListenerINS9_22SettingChangedFilterV3EEEOT1_SB_EUlNS_10shared_ptrINS9_9SettingV3EEEE_NS_9allocatorISM_EEFvSL_EED0Ev
PUBLIC 1d134 0 _ZNKSt6__ndk110__function6__funcIZN14MoreObjectInfo15settingListenerITn14TemplateStringXtlS4_ILm17EEtlA17_cLc115ELc104ELc111ELc119ELc45ELc111ELc98ELc106ELc101ELc99ELc116ELc45ELc100ELc97ELc116ELc97EEEEbZNS2_3getITnS4_XtlS5_tlS6_Lc115ELc104ELc111ELc119ELc45ELc111ELc98ELc106ELc101ELc99ELc116ELc45ELc100ELc97ELc116ELc97EEEEbEET0_PN5geode3ModEEUlbE_EEPNS9_13EventListenerINS9_22SettingChangedFilterV3EEEOT1_SB_EUlNS_10shared_ptrINS9_9SettingV3EEEE_NS_9allocatorISM_EEFvSL_EE7__cloneEv
PUBLIC 1d16c 0 _ZNKSt6__ndk110__function6__funcIZN14MoreObjectInfo15settingListenerITn14TemplateStringXtlS4_ILm17EEtlA17_cLc115ELc104ELc111ELc119ELc45ELc111ELc98ELc106ELc101ELc99ELc116ELc45ELc100ELc97ELc116ELc97EEEEbZNS2_3getITnS4_XtlS5_tlS6_Lc115ELc104ELc111ELc119ELc45ELc111ELc98ELc106ELc101ELc99ELc116ELc45ELc100ELc97ELc116ELc97EEEEbEET0_PN5geode3ModEEUlbE_EEPNS9_13EventListenerINS9_22SettingChangedFilterV3EEEOT1_SB_EUlNS_10shared_ptrINS9_9SettingV3EEEE_NS_9allocatorISM_EEFvSL_EE7__cloneEPNS0_6__baseISP_EE
PUBLIC 1d184 0 _ZNSt6__ndk110__function6__funcIZN14MoreObjectInfo15settingListenerITn14TemplateStringXtlS4_ILm17EEtlA17_cLc115ELc104ELc111ELc119ELc45ELc111ELc98ELc106ELc101ELc99ELc116ELc45ELc100ELc97ELc116ELc97EEEEbZNS2_3getITnS4_XtlS5_tlS6_Lc115ELc104ELc111ELc119ELc45ELc111ELc98ELc106ELc101ELc99ELc116ELc45ELc100ELc97ELc116ELc97EEEEbEET0_PN5geode3ModEEUlbE_EEPNS9_13EventListenerINS9_22SettingChangedFilterV3EEEOT1_SB_EUlNS_10shared_ptrINS9_9SettingV3EEEE_NS_9allocatorISM_EEFvSL_EE7destroyEv
PUBLIC 1d188 0 _ZNSt6__ndk110__function6__funcIZN14MoreObjectInfo15settingListenerITn14TemplateStringXtlS4_ILm17EEtlA17_cLc115ELc104ELc111ELc119ELc45ELc111ELc98ELc106ELc101ELc99ELc116ELc45ELc100ELc97ELc116ELc97EEEEbZNS2_3getITnS4_XtlS5_tlS6_Lc115ELc104ELc111ELc119ELc45ELc111ELc98ELc106ELc101ELc99ELc116ELc45ELc100ELc97ELc116ELc97EEEEbEET0_PN5geode3ModEEUlbE_EEPNS9_13EventListenerINS9_22SettingChangedFilterV3EEEOT1_SB_EUlNS_10shared_ptrINS9_9SettingV3EEEE_NS_9allocatorISM_EEFvSL_EE18destroy_deallocateEv
PUBLIC 1d18c 0 _ZNSt6__ndk110__function6__funcIZN14MoreObjectInfo15settingListenerITn14TemplateStringXtlS4_ILm17EEtlA17_cLc115ELc104ELc111ELc119ELc45ELc111ELc98ELc106ELc101ELc99ELc116ELc45ELc100ELc97ELc116ELc97EEEEbZNS2_3getITnS4_XtlS5_tlS6_Lc115ELc104ELc111ELc119ELc45ELc111ELc98ELc106ELc101ELc99ELc116ELc45ELc100ELc97ELc116ELc97EEEEbEET0_PN5geode3ModEEUlbE_EEPNS9_13EventListenerINS9_22SettingChangedFilterV3EEEOT1_SB_EUlNS_10shared_ptrINS9_9SettingV3EEEE_NS_9allocatorISM_EEFvSL_EEclEOSL_
PUBLIC 1d250 0 _ZNKSt6__ndk110__function6__funcIZN14MoreObjectInfo15settingListenerITn14TemplateStringXtlS4_ILm17EEtlA17_cLc115ELc104ELc111ELc119ELc45ELc111ELc98ELc106ELc101ELc99ELc116ELc45ELc100ELc97ELc116ELc97EEEEbZNS2_3getITnS4_XtlS5_tlS6_Lc115ELc104ELc111ELc119ELc45ELc111ELc98ELc106ELc101ELc99ELc116ELc45ELc100ELc97ELc116ELc97EEEEbEET0_PN5geode3ModEEUlbE_EEPNS9_13EventListenerINS9_22SettingChangedFilterV3EEEOT1_SB_EUlNS_10shared_ptrINS9_9SettingV3EEEE_NS_9allocatorISM_EEFvSL_EE6targetERKSt9type_info
PUBLIC 1d26c 0 _ZNKSt6__ndk110__function6__funcIZN14MoreObjectInfo15settingListenerITn14TemplateStringXtlS4_ILm17EEtlA17_cLc115ELc104ELc111ELc119ELc45ELc111ELc98ELc106ELc101ELc99ELc116ELc45ELc100ELc97ELc116ELc97EEEEbZNS2_3getITnS4_XtlS5_tlS6_Lc115ELc104ELc111ELc119ELc45ELc111ELc98ELc106ELc101ELc99ELc116ELc45ELc100ELc97ELc116ELc97EEEEbEET0_PN5geode3ModEEUlbE_EEPNS9_13EventListenerINS9_22SettingChangedFilterV3EEEOT1_SB_EUlNS_10shared_ptrINS9_9SettingV3EEEE_NS_9allocatorISM_EEFvSL_EE11target_typeEv
PUBLIC 1d278 0 _ZN14MoreObjectInfo15settingListenerITn14TemplateStringXtlS1_ILm20EEtlA20_cLc100ELc121ELc110ELc97ELc109ELc105ELc99ELc45ELc111ELc98ELc106ELc101ELc99ELc116ELc45ELc105ELc110ELc102ELc111EEEEbZNS_3getITnS1_XtlS2_tlS3_Lc100ELc121ELc110ELc97ELc109ELc105ELc99ELc45ELc111ELc98ELc106ELc101ELc99ELc116ELc45ELc105ELc110ELc102ELc111EEEEbEET0_PN5geode3ModEEUlbE_EEPNS6_13EventListenerINS6_22SettingChangedFilterV3EEEOT1_S8_
PUBLIC 1d430 0 _ZNSt6__ndk110__function6__funcIZN14MoreObjectInfo15settingListenerITn14TemplateStringXtlS4_ILm20EEtlA20_cLc100ELc121ELc110ELc97ELc109ELc105ELc99ELc45ELc111ELc98ELc106ELc101ELc99ELc116ELc45ELc105ELc110ELc102ELc111EEEEbZNS2_3getITnS4_XtlS5_tlS6_Lc100ELc121ELc110ELc97ELc109ELc105ELc99ELc45ELc111ELc98ELc106ELc101ELc99ELc116ELc45ELc105ELc110ELc102ELc111EEEEbEET0_PN5geode3ModEEUlbE_EEPNS9_13EventListenerINS9_22SettingChangedFilterV3EEEOT1_SB_EUlNS_10shared_ptrINS9_9SettingV3EEEE_NS_9allocatorISM_EEFvSL_EED0Ev
PUBLIC 1d434 0 _ZNKSt6__ndk110__function6__funcIZN14MoreObjectInfo15settingListenerITn14TemplateStringXtlS4_ILm20EEtlA20_cLc100ELc121ELc110ELc97ELc109ELc105ELc99ELc45ELc111ELc98ELc106ELc101ELc99ELc116ELc45ELc105ELc110ELc102ELc111EEEEbZNS2_3getITnS4_XtlS5_tlS6_Lc100ELc121ELc110ELc97ELc109ELc105ELc99ELc45ELc111ELc98ELc106ELc101ELc99ELc116ELc45ELc105ELc110ELc102ELc111EEEEbEET0_PN5geode3ModEEUlbE_EEPNS9_13EventListenerINS9_22SettingChangedFilterV3EEEOT1_SB_EUlNS_10shared_ptrINS9_9SettingV3EEEE_NS_9allocatorISM_EEFvSL_EE7__cloneEv
PUBLIC 1d46c 0 _ZNKSt6__ndk110__function6__funcIZN14MoreObjectInfo15settingListenerITn14TemplateStringXtlS4_ILm20EEtlA20_cLc100ELc121ELc110ELc97ELc109ELc105ELc99ELc45ELc111ELc98ELc106ELc101ELc99ELc116ELc45ELc105ELc110ELc102ELc111EEEEbZNS2_3getITnS4_XtlS5_tlS6_Lc100ELc121ELc110ELc97ELc109ELc105ELc99ELc45ELc111ELc98ELc106ELc101ELc99ELc116ELc45ELc105ELc110ELc102ELc111EEEEbEET0_PN5geode3ModEEUlbE_EEPNS9_13EventListenerINS9_22SettingChangedFilterV3EEEOT1_SB_EUlNS_10shared_ptrINS9_9SettingV3EEEE_NS_9allocatorISM_EEFvSL_EE7__cloneEPNS0_6__baseISP_EE
PUBLIC 1d484 0 _ZNSt6__ndk110__function6__funcIZN14MoreObjectInfo15settingListenerITn14TemplateStringXtlS4_ILm20EEtlA20_cLc100ELc121ELc110ELc97ELc109ELc105ELc99ELc45ELc111ELc98ELc106ELc101ELc99ELc116ELc45ELc105ELc110ELc102ELc111EEEEbZNS2_3getITnS4_XtlS5_tlS6_Lc100ELc121ELc110ELc97ELc109ELc105ELc99ELc45ELc111ELc98ELc106ELc101ELc99ELc116ELc45ELc105ELc110ELc102ELc111EEEEbEET0_PN5geode3ModEEUlbE_EEPNS9_13EventListenerINS9_22SettingChangedFilterV3EEEOT1_SB_EUlNS_10shared_ptrINS9_9SettingV3EEEE_NS_9allocatorISM_EEFvSL_EE7destroyEv
PUBLIC 1d488 0 _ZNSt6__ndk110__function6__funcIZN14MoreObjectInfo15settingListenerITn14TemplateStringXtlS4_ILm20EEtlA20_cLc100ELc121ELc110ELc97ELc109ELc105ELc99ELc45ELc111ELc98ELc106ELc101ELc99ELc116ELc45ELc105ELc110ELc102ELc111EEEEbZNS2_3getITnS4_XtlS5_tlS6_Lc100ELc121ELc110ELc97ELc109ELc105ELc99ELc45ELc111ELc98ELc106ELc101ELc99ELc116ELc45ELc105ELc110ELc102ELc111EEEEbEET0_PN5geode3ModEEUlbE_EEPNS9_13EventListenerINS9_22SettingChangedFilterV3EEEOT1_SB_EUlNS_10shared_ptrINS9_9SettingV3EEEE_NS_9allocatorISM_EEFvSL_EE18destroy_deallocateEv
PUBLIC 1d48c 0 _ZNSt6__ndk110__function6__funcIZN14MoreObjectInfo15settingListenerITn14TemplateStringXtlS4_ILm20EEtlA20_cLc100ELc121ELc110ELc97ELc109ELc105ELc99ELc45ELc111ELc98ELc106ELc101ELc99ELc116ELc45ELc105ELc110ELc102ELc111EEEEbZNS2_3getITnS4_XtlS5_tlS6_Lc100ELc121ELc110ELc97ELc109ELc105ELc99ELc45ELc111ELc98ELc106ELc101ELc99ELc116ELc45ELc105ELc110ELc102ELc111EEEEbEET0_PN5geode3ModEEUlbE_EEPNS9_13EventListenerINS9_22SettingChangedFilterV3EEEOT1_SB_EUlNS_10shared_ptrINS9_9SettingV3EEEE_NS_9allocatorISM_EEFvSL_EEclEOSL_
PUBLIC 1d550 0 _ZNKSt6__ndk110__function6__funcIZN14MoreObjectInfo15settingListenerITn14TemplateStringXtlS4_ILm20EEtlA20_cLc100ELc121ELc110ELc97ELc109ELc105ELc99ELc45ELc111ELc98ELc106ELc101ELc99ELc116ELc45ELc105ELc110ELc102ELc111EEEEbZNS2_3getITnS4_XtlS5_tlS6_Lc100ELc121ELc110ELc97ELc109ELc105ELc99ELc45ELc111ELc98ELc106ELc101ELc99ELc116ELc45ELc105ELc110ELc102ELc111EEEEbEET0_PN5geode3ModEEUlbE_EEPNS9_13EventListenerINS9_22SettingChangedFilterV3EEEOT1_SB_EUlNS_10shared_ptrINS9_9SettingV3EEEE_NS_9allocatorISM_EEFvSL_EE6targetERKSt9type_info
PUBLIC 1d56c 0 _ZNKSt6__ndk110__function6__funcIZN14MoreObjectInfo15settingListenerITn14TemplateStringXtlS4_ILm20EEtlA20_cLc100ELc121ELc110ELc97ELc109ELc105ELc99ELc45ELc111ELc98ELc106ELc101ELc99ELc116ELc45ELc105ELc110ELc102ELc111EEEEbZNS2_3getITnS4_XtlS5_tlS6_Lc100ELc121ELc110ELc97ELc109ELc105ELc99ELc45ELc111ELc98ELc106ELc101ELc99ELc116ELc45ELc105ELc110ELc102ELc111EEEEbEET0_PN5geode3ModEEUlbE_EEPNS9_13EventListenerINS9_22SettingChangedFilterV3EEEOT1_SB_EUlNS_10shared_ptrINS9_9SettingV3EEEE_NS_9allocatorISM_EEFvSL_EE11target_typeEv
PUBLIC 1d578 0 _GLOBAL__sub_I_MoreObjectInfo.cpp
PUBLIC m 1d6a4 0 geodeImplicitEntry
PUBLIC 1d6e0 0 wrapFunction(unsigned long, tulip::hook::WrapperMetadata const&)
PUBLIC 1d814 0 geode::impl::ResultData<void*, std::__ndk1::basic_string<char, std::__ndk1::char_traits<char>, std::__ndk1::allocator<char> > >::unwrapErr() &
PUBLIC 1d88c 0 geode::impl::ResultData<void*, std::__ndk1::basic_string<char, std::__ndk1::char_traits<char>, std::__ndk1::allocator<char> > >::~ResultData()
PUBLIC 1d900 0 tulip::hook::WrapperMetadata::~WrapperMetadata()
PUBLIC 1d964 0 cocos2d::CCDictionary::valueForKey(gd::string const&)
PUBLIC 1dab4 0 tulip::hook::AbstractFunction::from<cocos2d::CCString const*, cocos2d::CCDictionary*, gd::string const&>(cocos2d::CCString const* (*)(cocos2d::CCDictionary*, gd::string const&))
PUBLIC 1db5c 0 _ZN5geode15UnwrapExceptionC2IRPvQsr4implE18IsStringStreamableIT_EEENS_4impl5OkTagEOS4_
PUBLIC 1dcb0 0 _ZN5geode15UnwrapExceptionC2IRNSt6__ndk112basic_stringIcNS2_11char_traitsIcEENS2_9allocatorIcEEEEQsr4implE18IsStringStreamableIT_EEENS_4impl6ErrTagEOSA_
PUBLIC 1de18 0 std::__ndk1::__variant_detail::__visitation::__base::__dispatcher<(unsigned long)0>::__dispatch[abi:ne180000]<std::__ndk1::__variant_detail::__dtor<std::__ndk1::__variant_detail::__traits<void*, std::__ndk1::basic_string<char, std::__ndk1::char_traits<char>, std::__ndk1::allocator<char> > >, (std::__ndk1::__variant_detail::_Trait)1>::__destroy[abi:ne180000]()::{lambda(auto:1&)#1}, std::__ndk1::__variant_detail::__base<(std::__ndk1::__variant_detail::__traits<void*, std::__ndk1::basic_string<char, std::__ndk1::char_traits<char>, std::__ndk1::allocator<char> > >)1, std::__ndk1::__variant_detail::__traits, std::__ndk1::allocator<char> >&>(std::__ndk1::__variant_detail::__dtor<std::__ndk1::__variant_detail::__traits<void*, std::__ndk1::basic_string<char, std::__ndk1::char_traits<char>, std::__ndk1::allocator<char> > >, (std::__ndk1::__variant_detail::_Trait)1>, std::__ndk1::__variant_detail::__base<(std::__ndk1::__variant_detail::__traits<void*, std::__ndk1::basic_string<char, std::__ndk1::char_traits<char>, std::__ndk1::allocator<char> > >)1, std::__ndk1::__variant_detail::__traits, std::__ndk1::allocator<char> >&)
PUBLIC 1de1c 0 std::__ndk1::__variant_detail::__visitation::__base::__dispatcher<(unsigned long)1>::__dispatch[abi:ne180000]<std::__ndk1::__variant_detail::__dtor<std::__ndk1::__variant_detail::__traits<void*, std::__ndk1::basic_string<char, std::__ndk1::char_traits<char>, std::__ndk1::allocator<char> > >, (std::__ndk1::__variant_detail::_Trait)1>::__destroy[abi:ne180000]()::{lambda(auto:1&)#1}, std::__ndk1::__variant_detail::__base<(std::__ndk1::__variant_detail::__traits<void*, std::__ndk1::basic_string<char, std::__ndk1::char_traits<char>, std::__ndk1::allocator<char> > >)1, std::__ndk1::__variant_detail::__traits, std::__ndk1::allocator<char> >&>(std::__ndk1::__variant_detail::__dtor<std::__ndk1::__variant_detail::__traits<void*, std::__ndk1::basic_string<char, std::__ndk1::char_traits<char>, std::__ndk1::allocator<char> > >, (std::__ndk1::__variant_detail::_Trait)1>, std::__ndk1::__variant_detail::__base<(std::__ndk1::__variant_detail::__traits<void*, std::__ndk1::basic_string<char, std::__ndk1::char_traits<char>, std::__ndk1::allocator<char> > >)1, std::__ndk1::__variant_detail::__traits, std::__ndk1::allocator<char> >&)
PUBLIC 1de30 0 __udivti3
PUBLIC 1de3c 0 __udivmodti4
PUBLIC m 1e088 0 __eqtf2
PUBLIC 1e128 0 __unordtf2
PUBLIC 1e160 0 fmt::v11::detail::write_loc(fmt::v11::basic_appender<char>, fmt::v11::loc_value, fmt::v11::format_specs const&, fmt::v11::detail::locale_ref)
PUBLIC 1e3f4 0 fmt::v11::format_facet<std::__ndk1::locale>::~format_facet()
PUBLIC 1e470 0 fmt::v11::report_error(char const*)
PUBLIC 1e4c0 0 fmt::v11::format_error::runtime_error(char const*)
PUBLIC 1e4ec 0 fmt::v11::format_facet<std::__ndk1::locale>::do_put(fmt::v11::basic_appender<char>, fmt::v11::loc_value, fmt::v11::format_specs const&) const
PUBLIC 1ecac 0 fmt::v11::detail::loc_writer<char>::~loc_writer()
PUBLIC 1ed10 0 fmt::v11::detail::vformat_to<char>(fmt::v11::detail::buffer<char>&, fmt::v11::basic_string_view<char>, fmt::v11::detail::vformat_args<char>::type, fmt::v11::detail::locale_ref)
PUBLIC 1f280 0 fmt::v11::detail::is_printable(unsigned int)
PUBLIC 1f4a8 0 fmt::v11::detail::dragonbox::to_decimal<float>(float)
PUBLIC 1f784 0 fmt::v11::detail::dragonbox::to_decimal<double>(double)
PUBLIC 1fcc0 0 fmt::v11::basic_memory_buffer<char, (unsigned long)500, std::__ndk1::allocator<char> >::grow(fmt::v11::detail::buffer<char>&, unsigned long)
PUBLIC 1fd38 0 fmt::v11::format_facet<std::__ndk1::locale>::~format_facet()
PUBLIC 1fdc4 0 fmt::v11::format_error::~format_error()
PUBLIC 1fde8 0 fmt::v11::detail::copy_noinline<char, char const*, fmt::v11::basic_appender<char> >(char const*, char const*, fmt::v11::basic_appender<char>)
PUBLIC 1ff38 0 fmt::v11::detail::default_arg_formatter<char>::operator()<bool>(bool)
PUBLIC 1ffa0 0 fmt::v11::detail::default_arg_formatter<char>::operator()<char>(char)
PUBLIC 20030 0 fmt::v11::detail::default_arg_formatter<char>::operator()<float>(float)
PUBLIC 2011c 0 fmt::v11::detail::default_arg_formatter<char>::operator()<double>(double)
PUBLIC 20208 0 fmt::v11::detail::default_arg_formatter<char>::operator()<char const*>(char const*)
PUBLIC 20250 0 fmt::v11::detail::default_arg_formatter<char>::operator()<void const*>(void const*)
PUBLIC 202e8 0 _ZN3fmt3v116detail5writeIcNS0_14basic_appenderIcEEiTnNSt6__ndk19enable_ifIXaaaasr11is_integralIT1_EE5valuentsr3std7is_sameIS7_bEE5valuentsr3std7is_sameIS7_T_EE5valueEiE4typeELi0EEET0_SB_S7_
PUBLIC 20548 0 fmt::v11::detail::copy_noinline<char, char*, fmt::v11::basic_appender<char> >(char*, char*, fmt::v11::basic_appender<char>)
PUBLIC 20698 0 _ZN3fmt3v116detail5writeIcNS0_14basic_appenderIcEEjTnNSt6__ndk19enable_ifIXaaaasr11is_integralIT1_EE5valuentsr3std7is_sameIS7_bEE5valuentsr3std7is_sameIS7_T_EE5valueEiE4typeELi0EEET0_SB_S7_
PUBLIC 20878 0 _ZN3fmt3v116detail5writeIcNS0_14basic_appenderIcEExTnNSt6__ndk19enable_ifIXaaaasr11is_integralIT1_EE5valuentsr3std7is_sameIS7_bEE5valuentsr3std7is_sameIS7_T_EE5valueEiE4typeELi0EEET0_SB_S7_
PUBLIC 20afc 0 _ZN3fmt3v116detail5writeIcNS0_14basic_appenderIcEEyTnNSt6__ndk19enable_ifIXaaaasr11is_integralIT1_EE5valuentsr3std7is_sameIS7_bEE5valuentsr3std7is_sameIS7_T_EE5valueEiE4typeELi0EEET0_SB_S7_
PUBLIC 20d04 0 _ZN3fmt3v116detail5writeIcNS0_14basic_appenderIcEEnTnNSt6__ndk19enable_ifIXaaaasr11is_integralIT1_EE5valuentsr3std7is_sameIS7_bEE5valuentsr3std7is_sameIS7_T_EE5valueEiE4typeELi0EEET0_SB_S7_
PUBLIC 21064 0 _ZN3fmt3v116detail5writeIcNS0_14basic_appenderIcEEoTnNSt6__ndk19enable_ifIXaaaasr11is_integralIT1_EE5valuentsr3std7is_sameIS7_bEE5valuentsr3std7is_sameIS7_T_EE5valueEiE4typeELi0EEET0_SB_S7_
PUBLIC 21378 0 _ZN3fmt3v116detail5writeIcNS0_14basic_appenderIcEEbTnNSt6__ndk19enable_ifIXsr3std7is_sameIT1_bEE5valueEiE4typeELi0EEET0_SA_S7_RKNS0_12format_specsENS1_10locale_refE
PUBLIC 21608 0 fmt::v11::detail::write_int_noinline<char, fmt::v11::basic_appender<char>, unsigned int>(fmt::v11::basic_appender<char>, fmt::v11::detail::write_int_arg<unsigned int>, fmt::v11::format_specs const&, fmt::v11::detail::locale_ref)
PUBLIC 223e4 0 fmt::v11::detail::fill<char, fmt::v11::basic_appender<char> >(fmt::v11::basic_appender<char>, unsigned long, fmt::v11::detail::fill_t const&)
PUBLIC 225b4 0 fmt::v11::detail::write_padded<char, (fmt::v11::align::type)1, fmt::v11::basic_appender<char>, fmt::v11::detail::write_char<char, fmt::v11::basic_appender<char> >(fmt::v11::basic_appender<char>, char, fmt::v11::format_specs const&)::{lambda(fmt::v11::basic_appender<char>&)#1}>(fmt::v11::basic_appender<char>, fmt::v11::format_specs const&, unsigned long, unsigned long, fmt::v11::detail::write_char<char, fmt::v11::basic_appender<char> >(fmt::v11::basic_appender<char>, char, fmt::v11::format_specs const&)::{lambda(fmt::v11::basic_appender<char>&)#1})
PUBLIC 227f0 0 fmt::v11::detail::write_escaped_cp<fmt::v11::basic_appender<char>, char>(fmt::v11::basic_appender<char>, fmt::v11::detail::find_escape_result<char> const&)
PUBLIC 22afc 0 fmt::v11::detail::write_codepoint<(unsigned long)2, char, fmt::v11::basic_appender<char> >(fmt::v11::basic_appender<char>, char, unsigned int)
PUBLIC 22c74 0 fmt::v11::detail::write_codepoint<(unsigned long)8, char, fmt::v11::basic_appender<char> >(fmt::v11::basic_appender<char>, char, unsigned int)
PUBLIC 22dec 0 fmt::v11::detail::write_padded<char, (fmt::v11::align::type)1, fmt::v11::basic_appender<char>, fmt::v11::detail::write_nonfinite<char, fmt::v11::basic_appender<char> >(fmt::v11::basic_appender<char>, bool, fmt::v11::format_specs, fmt::v11::sign::type)::{lambda(fmt::v11::basic_appender<char>&)#1}>(fmt::v11::basic_appender<char>, fmt::v11::format_specs const&, unsigned long, unsigned long, fmt::v11::detail::write_nonfinite<char, fmt::v11::basic_appender<char> >(fmt::v11::basic_appender<char>, bool, fmt::v11::format_specs, fmt::v11::sign::type)::{lambda(fmt::v11::basic_appender<char>&)#1})
PUBLIC 2302c 0 fmt::v11::detail::do_write_float<char, fmt::v11::basic_appender<char>, fmt::v11::detail::dragonbox::decimal_fp<float>, fmt::v11::detail::digit_grouping<char> >(fmt::v11::basic_appender<char>, fmt::v11::detail::dragonbox::decimal_fp<float> const&, fmt::v11::format_specs const&, fmt::v11::detail::float_specs, fmt::v11::detail::locale_ref)
PUBLIC 23ca0 0 fmt::v11::detail::do_write_float<char, fmt::v11::basic_appender<char>, fmt::v11::detail::dragonbox::decimal_fp<float>, fmt::v11::detail::digit_grouping<char> >(fmt::v11::basic_appender<char>, fmt::v11::detail::dragonbox::decimal_fp<float> const&, fmt::v11::format_specs const&, fmt::v11::detail::float_specs, fmt::v11::detail::locale_ref)::{lambda(fmt::v11::basic_appender<char>(fmt::v11::basic_appender<char>))#1}::operator() const
PUBLIC 23df4 0 fmt::v11::detail::digit_grouping<char>::digit_grouping(fmt::v11::detail::locale_ref, bool)
PUBLIC 24060 0 fmt::v11::detail::digit_grouping<char>::~digit_grouping()
PUBLIC 240a4 0 fmt::v11::detail::write_exponent<char, fmt::v11::basic_appender<char> >(int, fmt::v11::basic_appender<char>)
PUBLIC 24274 0 _ZN3fmt3v116detail17write_significandIcjTnNSt6__ndk19enable_ifIXsr3std11is_integralIT0_EE5valueEiE4typeELi0EEEPT_S9_S5_iiS8_
PUBLIC 243f0 0 std::__ndk1::basic_string<char, std::__ndk1::char_traits<char>, std::__ndk1::allocator<char> >::__assign_no_alias<true>(char const*, unsigned long)
PUBLIC 2449c 0 std::__ndk1::basic_string<char, std::__ndk1::char_traits<char>, std::__ndk1::allocator<char> >::__assign_no_alias<false>(char const*, unsigned long)
PUBLIC 245ac 0 fmt::v11::detail::digit_grouping<char>::apply<fmt::v11::basic_appender<char>, char>(fmt::v11::basic_appender<char>, fmt::v11::basic_string_view<char>) const
PUBLIC 24964 0 fmt::v11::basic_memory_buffer<int, (unsigned long)500, std::__ndk1::allocator<int> >::grow(fmt::v11::detail::buffer<int>&, unsigned long)
PUBLIC 24a04 0 fmt::v11::detail::do_write_float<char, fmt::v11::basic_appender<char>, fmt::v11::detail::dragonbox::decimal_fp<double>, fmt::v11::detail::digit_grouping<char> >(fmt::v11::basic_appender<char>, fmt::v11::detail::dragonbox::decimal_fp<double> const&, fmt::v11::format_specs const&, fmt::v11::detail::float_specs, fmt::v11::detail::locale_ref)
PUBLIC 256b8 0 fmt::v11::detail::do_write_float<char, fmt::v11::basic_appender<char>, fmt::v11::detail::dragonbox::decimal_fp<double>, fmt::v11::detail::digit_grouping<char> >(fmt::v11::basic_appender<char>, fmt::v11::detail::dragonbox::decimal_fp<double> const&, fmt::v11::format_specs const&, fmt::v11::detail::float_specs, fmt::v11::detail::locale_ref)::{lambda(fmt::v11::basic_appender<char>(fmt::v11::basic_appender<char>))#1}::operator() const
PUBLIC 25810 0 _ZN3fmt3v116detail17write_significandIcmTnNSt6__ndk19enable_ifIXsr3std11is_integralIT0_EE5valueEiE4typeELi0EEEPT_S9_S5_iiS8_
PUBLIC 259a0 0 fmt::v11::detail::write_float<char, fmt::v11::basic_appender<char>, long double>(fmt::v11::basic_appender<char>, long double, fmt::v11::format_specs, fmt::v11::detail::locale_ref)
PUBLIC 2649c 0 fmt::v11::detail::write_padded<char, (fmt::v11::align::type)2, fmt::v11::basic_appender<char>, fmt::v11::detail::write_bytes<char, (fmt::v11::align::type)2, fmt::v11::basic_appender<char> >(fmt::v11::basic_appender<char>, fmt::v11::basic_string_view<char>, fmt::v11::format_specs const&)::{lambda(fmt::v11::basic_appender<char>&)#1}>(fmt::v11::basic_appender<char>, fmt::v11::format_specs const&, unsigned long, unsigned long, fmt::v11::detail::write_bytes<char, (fmt::v11::align::type)2, fmt::v11::basic_appender<char> >(fmt::v11::basic_appender<char>, fmt::v11::basic_string_view<char>, fmt::v11::format_specs const&)::{lambda(fmt::v11::basic_appender<char>&)#1})
PUBLIC 26678 0 fmt::v11::detail::format_dragon(fmt::v11::detail::basic_fp<unsigned __int128>, unsigned int, int, fmt::v11::detail::buffer<char>&, int&)
PUBLIC 27aa8 0 fmt::v11::detail::bigint::operator<<=(int)
PUBLIC 27bcc 0 fmt::v11::detail::bigint::assign_pow10(int)
PUBLIC 28328 0 fmt::v11::detail::bigint::divmod_assign(fmt::v11::detail::bigint const&)
PUBLIC 28648 0 fmt::v11::basic_memory_buffer<unsigned int, (unsigned long)32, std::__ndk1::allocator<unsigned int> >::grow(fmt::v11::detail::buffer<unsigned int>&, unsigned long)
PUBLIC 286e8 0 fmt::v11::detail::do_write_float<char, fmt::v11::basic_appender<char>, fmt::v11::detail::big_decimal_fp, fmt::v11::detail::digit_grouping<char> >(fmt::v11::basic_appender<char>, fmt::v11::detail::big_decimal_fp const&, fmt::v11::format_specs const&, fmt::v11::detail::float_specs, fmt::v11::detail::locale_ref)
PUBLIC 29598 0 fmt::v11::detail::do_write_float<char, fmt::v11::basic_appender<char>, fmt::v11::detail::big_decimal_fp, fmt::v11::detail::digit_grouping<char> >(fmt::v11::basic_appender<char>, fmt::v11::detail::big_decimal_fp const&, fmt::v11::format_specs const&, fmt::v11::detail::float_specs, fmt::v11::detail::locale_ref)::{lambda(fmt::v11::basic_appender<char>(fmt::v11::basic_appender<char>))#1}::operator() const
PUBLIC 296f8 0 fmt::v11::detail::write_padded<char, (fmt::v11::align::type)2, fmt::v11::basic_appender<char>, fmt::v11::detail::write_ptr<char, fmt::v11::basic_appender<char>, unsigned long>(fmt::v11::basic_appender<char>, unsigned long, fmt::v11::format_specs const*)::{lambda(fmt::v11::basic_appender<char>&)#1}>(fmt::v11::basic_appender<char>, fmt::v11::format_specs const&, unsigned long, unsigned long, fmt::v11::detail::write_ptr<char, fmt::v11::basic_appender<char>, unsigned long>(fmt::v11::basic_appender<char>, unsigned long, fmt::v11::format_specs const*)::{lambda(fmt::v11::basic_appender<char>&)#1})
PUBLIC 2990c 0 fmt::v11::detail::parse_replacement_field<char, fmt::v11::detail::vformat_to<char>(fmt::v11::detail::buffer<char>&, fmt::v11::basic_string_view<char>, fmt::v11::detail::vformat_args<char>::type, fmt::v11::detail::locale_ref)::format_handler&>(char const*, char const*, fmt::v11::detail::vformat_to<char>(fmt::v11::detail::buffer<char>&, fmt::v11::basic_string_view<char>, fmt::v11::detail::vformat_args<char>::type, fmt::v11::detail::locale_ref)::format_handler&)
PUBLIC 2b5a8 0 fmt::v11::detail::parse_dynamic_spec<char>(char const*, char const*, int&, fmt::v11::detail::arg_ref<char>&, fmt::v11::basic_format_parse_context<char>&)
PUBLIC 2b838 0 fmt::v11::basic_format_args<fmt::v11::context>::get<char>(fmt::v11::basic_string_view<char>) const
PUBLIC 2b990 0 fmt::v11::detail::write_int_noinline<char, fmt::v11::basic_appender<char>, unsigned long>(fmt::v11::basic_appender<char>, fmt::v11::detail::write_int_arg<unsigned long>, fmt::v11::format_specs const&, fmt::v11::detail::locale_ref)
PUBLIC 2c7e4 0 fmt::v11::detail::write_int_noinline<char, fmt::v11::basic_appender<char>, unsigned __int128>(fmt::v11::basic_appender<char>, fmt::v11::detail::write_int_arg<unsigned __int128>, fmt::v11::format_specs const&, fmt::v11::detail::locale_ref)
PUBLIC 2d84c 0 _ZN3fmt3v116detail15format_hexfloatIdTnNSt6__ndk19enable_ifIXntsr16is_double_doubleIT_EE5valueEiE4typeELi0EEEvS5_NS0_12format_specsERNS1_6bufferIcEE
PUBLIC 2dd6c 0 fmt::v11::detail::format_float<double>(double, int, fmt::v11::detail::float_specs, fmt::v11::detail::buffer<char>&)
PUBLIC 2e70c 0 fmt::v11::detail::write<char, fmt::v11::basic_appender<char> >(fmt::v11::basic_appender<char>, fmt::v11::basic_string_view<char>, fmt::v11::format_specs const&)
PUBLIC 2fa78 0 fmt::v11::detail::for_each_codepoint<fmt::v11::detail::compute_width(fmt::v11::basic_string_view<char>)::count_code_points>(fmt::v11::basic_string_view<char>, fmt::v11::detail::compute_width(fmt::v11::basic_string_view<char>)::count_code_points)::{lambda(char const*, char const*)#1}::operator()(char const*, char const*) const
PUBLIC 2fc30 0 fmt::v11::detail::write_int<fmt::v11::basic_appender<char>, unsigned long, char>(fmt::v11::basic_appender<char>, unsigned long, unsigned int, fmt::v11::format_specs const&, fmt::v11::detail::digit_grouping<char> const&)
PUBLIC 301ac 0 fmt::v11::detail::write_int<fmt::v11::basic_appender<char>, unsigned __int128, char>(fmt::v11::basic_appender<char>, unsigned __int128, unsigned int, fmt::v11::format_specs const&, fmt::v11::detail::digit_grouping<char> const&)
PUBLIC 30830 0 <.plt ELF section in hiimjustin000.more_object_info.android64.so>
STACK CFI INIT fd80 10 .cfa: sp 0 +
STACK CFI INIT fd90 8 .cfa: sp 0 +
STACK CFI INIT fd98 8 .cfa: sp 0 +
STACK CFI INIT fda0 14 .cfa: sp 0 +
STACK CFI INIT fdb4 1c .cfa: sp 0 +
STACK CFI INIT fdd0 10 .cfa: sp 0 +
STACK CFI INIT fde0 30 .cfa: sp 0 +
STACK CFI INIT fe10 98 .cfa: sp 0 +
STACK CFI INIT fea8 59c .cfa: sp 0 +
STACK CFI INIT 10444 8c .cfa: sp 0 +
STACK CFI INIT 104d0 30 .cfa: sp 0 +
STACK CFI INIT 10d3c 1c .cfa: sp 0 +
STACK CFI INIT 114c0 50 .cfa: sp 0 +
STACK CFI 114c4 .cfa: sp 32 +
STACK CFI 114cc .cfa: x29 32 + x19: .cfa -16 + ^ .ra: .cfa -24 + ^ x29: .cfa -32 + ^
STACK CFI 114e4 .cfa: sp 32 +
STACK CFI 114ec .cfa: sp 0 +
STACK CFI 114f0 .cfa: x29 32 +
STACK CFI 11504 .cfa: sp 32 +
STACK CFI 1150c .cfa: sp 0 +
STACK CFI INIT 11584 7c .cfa: sp 0 +
STACK CFI 11588 .cfa: sp 48 +
STACK CFI 11594 .cfa: x29 48 + x19: .cfa -8 + ^ x20: .cfa -16 + ^ x21: .cfa -32 + ^ .ra: .cfa -40 + ^ x29: .cfa -48 + ^
STACK CFI 115e0 .cfa: sp 48 +
STACK CFI 115ec .cfa: sp 0 +
STACK CFI 115f0 .cfa: sp 48 +
STACK CFI 115fc .cfa: sp 0 +
STACK CFI INIT 11600 4 .cfa: sp 0 +
STACK CFI INIT 11604 10 .cfa: sp 0 +
STACK CFI 11608 .cfa: sp 16 +
STACK CFI 1160c .cfa: x29 16 + .ra: .cfa -8 + ^ x29: .cfa -16 + ^
STACK CFI INIT 117c4 14 .cfa: sp 0 +
STACK CFI 117c8 .cfa: sp 16 +
STACK CFI 117cc .cfa: x29 16 + .ra: .cfa -8 + ^ x29: .cfa -16 + ^
STACK CFI INIT 11828 30 .cfa: sp 0 +
STACK CFI 1182c .cfa: sp 32 +
STACK CFI 11834 .cfa: x29 32 + x19: .cfa -16 + ^ .ra: .cfa -24 + ^ x29: .cfa -32 + ^
STACK CFI 1184c .cfa: sp 32 +
STACK CFI 11854 .cfa: sp 0 +
STACK CFI INIT 11858 34 .cfa: sp 0 +
STACK CFI 1185c .cfa: sp 32 +
STACK CFI 11864 .cfa: x29 32 + x19: .cfa -16 + ^ .ra: .cfa -24 + ^ x29: .cfa -32 + ^
STACK CFI INIT 1188c 120 .cfa: sp 0 +
STACK CFI 11890 .cfa: sp 64 +
STACK CFI 118a0 .cfa: x29 64 + x19: .cfa -8 + ^ x20: .cfa -16 + ^ x21: .cfa -24 + ^ x22: .cfa -32 + ^ x23: .cfa -40 + ^ x24: .cfa -48 + ^ .ra: .cfa -56 + ^ x29: .cfa -64 + ^
STACK CFI 11998 .cfa: sp 64 +
STACK CFI 119a8 .cfa: sp 0 +
STACK CFI INIT 11ba0 7c .cfa: sp 0 +
STACK CFI 11ba4 .cfa: sp 32 +
STACK CFI 11bac .cfa: x29 32 + x19: .cfa -8 + ^ x20: .cfa -16 + ^ .ra: .cfa -24 + ^ x29: .cfa -32 + ^
STACK CFI 11c04 .cfa: sp 32 +
STACK CFI 11c0c .cfa: sp 0 +
STACK CFI 11c10 .cfa: sp 32 +
STACK CFI 11c18 .cfa: sp 0 +
STACK CFI INIT 11c1c 80 .cfa: sp 0 +
STACK CFI 11c20 .cfa: sp 48 +
STACK CFI 11c2c .cfa: x29 48 + x19: .cfa -8 + ^ x20: .cfa -16 + ^ x21: .cfa -24 + ^ x22: .cfa -32 + ^ .ra: .cfa -40 + ^ x29: .cfa -48 + ^
STACK CFI 11c44 .cfa: sp 48 +
STACK CFI 11c50 .cfa: sp 0 +
STACK CFI 11c54 .cfa: x29 48 +
STACK CFI 11c84 .cfa: sp 48 +
STACK CFI 11c90 .cfa: sp 0 +
STACK CFI 11c94 .cfa: x29 48 +
STACK CFI INIT 11c9c 1b0 .cfa: sp 0 +
STACK CFI INIT 11e4c 34 .cfa: sp 0 +
STACK CFI 11e50 .cfa: sp 16 +
STACK CFI 11e54 .cfa: x29 16 + .ra: .cfa -8 + ^ x29: .cfa -16 + ^
STACK CFI INIT 11e80 4 .cfa: sp 0 +
STACK CFI INIT 11e84 4 .cfa: sp 0 +
STACK CFI INIT 11e88 40 .cfa: sp 0 +
STACK CFI 11e8c .cfa: sp 32 +
STACK CFI 11e94 .cfa: x29 32 + x19: .cfa -16 + ^ .ra: .cfa -24 + ^ x29: .cfa -32 + ^
STACK CFI 11ebc .cfa: sp 32 +
STACK CFI 11ec4 .cfa: sp 0 +
STACK CFI INIT 11ec8 20 .cfa: sp 0 +
STACK CFI INIT 11ee8 4 .cfa: sp 0 +
STACK CFI INIT 11eec 4 .cfa: sp 0 +
STACK CFI INIT 124e4 1c .cfa: sp 0 +
STACK CFI INIT 12500 c .cfa: sp 0 +
STACK CFI INIT 1250c 50 .cfa: sp 0 +
STACK CFI 12510 .cfa: sp 32 +
STACK CFI 12518 .cfa: x29 32 + x19: .cfa -16 + ^ .ra: .cfa -24 + ^ x29: .cfa -32 + ^
STACK CFI 12530 .cfa: sp 32 +
STACK CFI 12538 .cfa: sp 0 +
STACK CFI 1253c .cfa: x29 32 +
STACK CFI 12550 .cfa: sp 32 +
STACK CFI 12558 .cfa: sp 0 +
STACK CFI INIT 125d0 24 .cfa: sp 0 +
STACK CFI 125d4 .cfa: sp 32 +
STACK CFI 125dc .cfa: x29 32 + x19: .cfa -16 + ^ .ra: .cfa -24 + ^ x29: .cfa -32 + ^
STACK CFI 125e8 .cfa: sp 32 +
STACK CFI 125f0 .cfa: sp 0 +
STACK CFI INIT 125f4 4 .cfa: sp 0 +
STACK CFI INIT 125f8 14 .cfa: sp 0 +
STACK CFI INIT 1288c 80 .cfa: sp 0 +
STACK CFI 12890 .cfa: sp 48 +
STACK CFI 1289c .cfa: x29 48 + x19: .cfa -8 + ^ x20: .cfa -16 + ^ x21: .cfa -32 + ^ .ra: .cfa -40 + ^ x29: .cfa -48 + ^
STACK CFI 128fc .cfa: sp 48 +
STACK CFI 12908 .cfa: sp 0 +
STACK CFI INIT 12e04 148 .cfa: sp 0 +
STACK CFI 12e08 .cfa: sp 48 +
STACK CFI 12e14 .cfa: x29 48 + x19: .cfa -8 + ^ x20: .cfa -16 + ^ x21: .cfa -32 + ^ .ra: .cfa -40 + ^ x29: .cfa -48 + ^
STACK CFI 12f3c .cfa: sp 48 +
STACK CFI 12f48 .cfa: sp 0 +
STACK CFI INIT 13174 68 .cfa: sp 0 +
STACK CFI 13178 .cfa: sp 32 +
STACK CFI 13180 .cfa: x29 32 + x19: .cfa -8 + ^ x20: .cfa -16 + ^ .ra: .cfa -24 + ^ x29: .cfa -32 + ^
STACK CFI 13198 .cfa: sp 32 +
STACK CFI 131a0 .cfa: sp 0 +
STACK CFI 131a4 .cfa: x29 32 +
STACK CFI 131d0 .cfa: sp 32 +
STACK CFI 131d8 .cfa: sp 0 +
STACK CFI INIT 131dc 14 .cfa: sp 0 +
STACK CFI 131e0 .cfa: sp 16 +
STACK CFI 131e4 .cfa: x29 16 + .ra: .cfa -8 + ^ x29: .cfa -16 + ^
STACK CFI INIT 131f0 4 .cfa: sp 0 +
STACK CFI INIT 131f4 14 .cfa: sp 0 +
STACK CFI INIT 13208 d4 .cfa: sp 0 +
STACK CFI 1320c .cfa: sp 48 +
STACK CFI 13218 .cfa: x29 48 + x19: .cfa -8 + ^ x20: .cfa -16 + ^ x21: .cfa -32 + ^ .ra: .cfa -40 + ^ x29: .cfa -48 + ^
STACK CFI 132a8 .cfa: sp 48 +
STACK CFI 132b4 .cfa: sp 0 +
STACK CFI 132b8 .cfa: x29 48 +
STACK CFI INIT 132dc 3c8 .cfa: sp 0 +
STACK CFI INIT 136a4 8c .cfa: sp 0 +
STACK CFI 136ac .cfa: sp 32 +
STACK CFI 136b4 .cfa: x29 32 + x19: .cfa -8 + ^ x20: .cfa -16 + ^ .ra: .cfa -24 + ^ x29: .cfa -32 + ^
STACK CFI 136fc .cfa: sp 32 +
STACK CFI 13704 .cfa: sp 0 +
STACK CFI 1370c .cfa: x29 32 +
STACK CFI INIT 138b4 24 .cfa: sp 0 +
STACK CFI 138b8 .cfa: sp 32 +
STACK CFI 138c0 .cfa: x29 32 + x19: .cfa -16 + ^ .ra: .cfa -24 + ^ x29: .cfa -32 + ^
STACK CFI 138cc .cfa: sp 32 +
STACK CFI 138d4 .cfa: sp 0 +
STACK CFI INIT 138d8 24 .cfa: sp 0 +
STACK CFI 138dc .cfa: sp 32 +
STACK CFI 138e4 .cfa: x29 32 + x19: .cfa -16 + ^ .ra: .cfa -24 + ^ x29: .cfa -32 + ^
STACK CFI 138f0 .cfa: sp 32 +
STACK CFI 138f8 .cfa: sp 0 +
STACK CFI INIT 14e50 50 .cfa: sp 0 +
STACK CFI 14e54 .cfa: sp 32 +
STACK CFI 14e5c .cfa: x29 32 + x19: .cfa -16 + ^ .ra: .cfa -24 + ^ x29: .cfa -32 + ^
STACK CFI 14e74 .cfa: sp 32 +
STACK CFI 14e7c .cfa: sp 0 +
STACK CFI 14e80 .cfa: x29 32 +
STACK CFI 14e94 .cfa: sp 32 +
STACK CFI 14e9c .cfa: sp 0 +
STACK CFI INIT 14ea0 64 .cfa: sp 0 +
STACK CFI 14ea4 .cfa: sp 32 +
STACK CFI 14eac .cfa: x29 32 + x19: .cfa -16 + ^ .ra: .cfa -24 + ^ x29: .cfa -32 + ^
STACK CFI 14ed8 .cfa: sp 32 +
STACK CFI 14ee0 .cfa: sp 0 +
STACK CFI 14ee4 .cfa: x29 32 +
STACK CFI 14ef8 .cfa: sp 32 +
STACK CFI 14f00 .cfa: sp 0 +
STACK CFI INIT 14f04 178 .cfa: sp 0 +
STACK CFI 14f08 .cfa: sp 80 +
STACK CFI 14f1c .cfa: x29 80 + x19: .cfa -8 + ^ x20: .cfa -16 + ^ x21: .cfa -24 + ^ x22: .cfa -32 + ^ x23: .cfa -40 + ^ x24: .cfa -48 + ^ x25: .cfa -56 + ^ x26: .cfa -64 + ^ .ra: .cfa -72 + ^ x29: .cfa -80 + ^
STACK CFI 15064 .cfa: sp 80 +
STACK CFI 15078 .cfa: sp 0 +
STACK CFI INIT 159e4 1c .cfa: sp 0 +
STACK CFI INIT 161f4 4 .cfa: sp 0 +
STACK CFI INIT 1649c 50 .cfa: sp 0 +
STACK CFI 164a0 .cfa: sp 32 +
STACK CFI 164a8 .cfa: x29 32 + x19: .cfa -16 + ^ .ra: .cfa -24 + ^ x29: .cfa -32 + ^
STACK CFI 164c0 .cfa: sp 32 +
STACK CFI 164c8 .cfa: sp 0 +
STACK CFI 164cc .cfa: x29 32 +
STACK CFI 164e0 .cfa: sp 32 +
STACK CFI 164e8 .cfa: sp 0 +
STACK CFI INIT 164ec 4 .cfa: sp 0 +
STACK CFI INIT 164f0 40 .cfa: sp 0 +
STACK CFI 164f4 .cfa: sp 32 +
STACK CFI 164fc .cfa: x29 32 + x19: .cfa -16 + ^ .ra: .cfa -24 + ^ x29: .cfa -32 + ^
STACK CFI 16524 .cfa: sp 32 +
STACK CFI 1652c .cfa: sp 0 +
STACK CFI INIT 16530 20 .cfa: sp 0 +
STACK CFI INIT 16550 4 .cfa: sp 0 +
STACK CFI INIT 16554 4 .cfa: sp 0 +
STACK CFI INIT 16a58 1c .cfa: sp 0 +
STACK CFI INIT 16a74 c .cfa: sp 0 +
STACK CFI INIT 16a80 50 .cfa: sp 0 +
STACK CFI 16a84 .cfa: sp 32 +
STACK CFI 16a8c .cfa: x29 32 + x19: .cfa -16 + ^ .ra: .cfa -24 + ^ x29: .cfa -32 + ^
STACK CFI 16aa4 .cfa: sp 32 +
STACK CFI 16aac .cfa: sp 0 +
STACK CFI 16ab0 .cfa: x29 32 +
STACK CFI 16ac4 .cfa: sp 32 +
STACK CFI 16acc .cfa: sp 0 +
STACK CFI INIT 16ad0 4 .cfa: sp 0 +
STACK CFI INIT 16c48 9c .cfa: sp 0 +
STACK CFI 16c4c .cfa: sp 32 +
STACK CFI 16c54 .cfa: x29 32 + x19: .cfa -8 + ^ x20: .cfa -16 + ^ .ra: .cfa -24 + ^ x29: .cfa -32 + ^
STACK CFI 16cd8 .cfa: sp 32 +
STACK CFI 16ce0 .cfa: sp 0 +
STACK CFI INIT 16ce4 a4 .cfa: sp 0 +
STACK CFI 16ce8 .cfa: sp 32 +
STACK CFI 16cf0 .cfa: x29 32 + x19: .cfa -8 + ^ x20: .cfa -16 + ^ .ra: .cfa -24 + ^ x29: .cfa -32 + ^
STACK CFI 16d7c .cfa: sp 32 +
STACK CFI 16d84 .cfa: sp 0 +
STACK CFI INIT 16d88 104 .cfa: sp 0 +
STACK CFI 16d8c .cfa: sp 64 +
STACK CFI 16d9c .cfa: x29 64 + x19: .cfa -8 + ^ x20: .cfa -16 + ^ x21: .cfa -24 + ^ x22: .cfa -32 + ^ x23: .cfa -48 + ^ .ra: .cfa -56 + ^ x29: .cfa -64 + ^
STACK CFI 16df8 .cfa: sp 64 +
STACK CFI 16e08 .cfa: sp 0 +
STACK CFI 16e0c .cfa: x29 64 +
STACK CFI 16e28 .cfa: sp 64 +
STACK CFI 16e38 .cfa: sp 0 +
STACK CFI 16e3c .cfa: x29 64 +
STACK CFI 16e78 .cfa: sp 64 +
STACK CFI 16e88 .cfa: sp 0 +
STACK CFI INIT 16e8c 4c .cfa: sp 0 +
STACK CFI 16e90 .cfa: sp 32 +
STACK CFI 16e98 .cfa: x29 32 + x19: .cfa -16 + ^ .ra: .cfa -24 + ^ x29: .cfa -32 + ^
STACK CFI 16ecc .cfa: sp 32 +
STACK CFI 16ed4 .cfa: sp 0 +
STACK CFI INIT 1709c 38 .cfa: sp 0 +
STACK CFI 170a0 .cfa: sp 16 +
STACK CFI 170a4 .cfa: x29 16 + .ra: .cfa -8 + ^ x29: .cfa -16 + ^
STACK CFI 170c4 .cfa: sp 16 +
STACK CFI 170c8 .cfa: sp 0 +
STACK CFI 170cc .cfa: sp 16 +
STACK CFI 170d0 .cfa: sp 0 +
STACK CFI INIT 170d4 38 .cfa: sp 0 +
STACK CFI 170d8 .cfa: sp 16 +
STACK CFI 170dc .cfa: x29 16 + .ra: .cfa -8 + ^ x29: .cfa -16 + ^
STACK CFI 170fc .cfa: sp 16 +
STACK CFI 17100 .cfa: sp 0 +
STACK CFI 17104 .cfa: sp 16 +
STACK CFI 17108 .cfa: sp 0 +
STACK CFI INIT 171b4 a0 .cfa: sp 0 +
STACK CFI INIT 17c88 1c .cfa: sp 0 +
STACK CFI INIT 18498 4 .cfa: sp 0 +
STACK CFI INIT 1864c 4 .cfa: sp 0 +
STACK CFI INIT 18650 40 .cfa: sp 0 +
STACK CFI 18654 .cfa: sp 32 +
STACK CFI 1865c .cfa: x29 32 + x19: .cfa -16 + ^ .ra: .cfa -24 + ^ x29: .cfa -32 + ^
STACK CFI 18684 .cfa: sp 32 +
STACK CFI 1868c .cfa: sp 0 +
STACK CFI INIT 18690 20 .cfa: sp 0 +
STACK CFI INIT 186b0 4 .cfa: sp 0 +
STACK CFI INIT 186b4 4 .cfa: sp 0 +
STACK CFI INIT 18bb8 1c .cfa: sp 0 +
STACK CFI INIT 18bd4 c .cfa: sp 0 +
STACK CFI INIT 18be0 4c .cfa: sp 0 +
STACK CFI 18be4 .cfa: sp 32 +
STACK CFI 18bec .cfa: x29 32 + x19: .cfa -16 + ^ .ra: .cfa -24 + ^ x29: .cfa -32 + ^
STACK CFI 18c20 .cfa: sp 32 +
STACK CFI 18c28 .cfa: sp 0 +
STACK CFI INIT 18df0 38 .cfa: sp 0 +
STACK CFI 18df4 .cfa: sp 16 +
STACK CFI 18df8 .cfa: x29 16 + .ra: .cfa -8 + ^ x29: .cfa -16 + ^
STACK CFI 18e18 .cfa: sp 16 +
STACK CFI 18e1c .cfa: sp 0 +
STACK CFI 18e20 .cfa: sp 16 +
STACK CFI 18e24 .cfa: sp 0 +
STACK CFI INIT 18e28 38 .cfa: sp 0 +
STACK CFI 18e2c .cfa: sp 16 +
STACK CFI 18e30 .cfa: x29 16 + .ra: .cfa -8 + ^ x29: .cfa -16 + ^
STACK CFI 18e50 .cfa: sp 16 +
STACK CFI 18e54 .cfa: sp 0 +
STACK CFI 18e58 .cfa: sp 16 +
STACK CFI 18e5c .cfa: sp 0 +
STACK CFI INIT 18f08 74 .cfa: sp 0 +
STACK CFI 18f0c .cfa: sp 32 +
STACK CFI 18f14 .cfa: x29 32 + x19: .cfa -16 + ^ .ra: .cfa -24 + ^ x29: .cfa -32 + ^
STACK CFI 18f70 .cfa: sp 32 +
STACK CFI 18f78 .cfa: sp 0 +
STACK CFI INIT 199b0 1c .cfa: sp 0 +
STACK CFI INIT 1a19c 4 .cfa: sp 0 +
STACK CFI INIT 1a350 4 .cfa: sp 0 +
STACK CFI INIT 1a354 40 .cfa: sp 0 +
STACK CFI 1a358 .cfa: sp 32 +
STACK CFI 1a360 .cfa: x29 32 + x19: .cfa -16 + ^ .ra: .cfa -24 + ^ x29: .cfa -32 + ^
STACK CFI 1a388 .cfa: sp 32 +
STACK CFI 1a390 .cfa: sp 0 +
STACK CFI INIT 1a394 20 .cfa: sp 0 +
STACK CFI INIT 1a3b4 4 .cfa: sp 0 +
STACK CFI INIT 1a3b8 4 .cfa: sp 0 +
STACK CFI INIT 1a8bc 1c .cfa: sp 0 +
STACK CFI INIT 1a8d8 c .cfa: sp 0 +
STACK CFI INIT 1a8e4 4c .cfa: sp 0 +
STACK CFI 1a8e8 .cfa: sp 32 +
STACK CFI 1a8f0 .cfa: x29 32 + x19: .cfa -16 + ^ .ra: .cfa -24 + ^ x29: .cfa -32 + ^
STACK CFI 1a924 .cfa: sp 32 +
STACK CFI 1a92c .cfa: sp 0 +
STACK CFI INIT 1aaf4 38 .cfa: sp 0 +
STACK CFI 1aaf8 .cfa: sp 16 +
STACK CFI 1aafc .cfa: x29 16 + .ra: .cfa -8 + ^ x29: .cfa -16 + ^
STACK CFI 1ab1c .cfa: sp 16 +
STACK CFI 1ab20 .cfa: sp 0 +
STACK CFI 1ab24 .cfa: sp 16 +
STACK CFI 1ab28 .cfa: sp 0 +
STACK CFI INIT 1ab2c 38 .cfa: sp 0 +
STACK CFI 1ab30 .cfa: sp 16 +
STACK CFI 1ab34 .cfa: x29 16 + .ra: .cfa -8 + ^ x29: .cfa -16 + ^
STACK CFI 1ab54 .cfa: sp 16 +
STACK CFI 1ab58 .cfa: sp 0 +
STACK CFI 1ab5c .cfa: sp 16 +
STACK CFI 1ab60 .cfa: sp 0 +
STACK CFI INIT 1ac0c 8c .cfa: sp 0 +
STACK CFI 1ac10 .cfa: sp 32 +
STACK CFI 1ac18 .cfa: x29 32 + x19: .cfa -16 + ^ .ra: .cfa -24 + ^ x29: .cfa -32 + ^
STACK CFI 1ac8c .cfa: sp 32 +
STACK CFI 1ac94 .cfa: sp 0 +
STACK CFI INIT 1ad64 1c .cfa: sp 0 +
STACK CFI 1ad68 .cfa: sp 16 +
STACK CFI 1ad6c .cfa: x29 16 + .ra: .cfa -8 + ^ x29: .cfa -16 + ^
STACK CFI 1ad78 .cfa: sp 16 +
STACK CFI 1ad7c .cfa: sp 0 +
STACK CFI INIT 1b3e8 4 .cfa: sp 0 +
STACK CFI INIT 1b560 5c .cfa: sp 0 +
STACK CFI 1b564 .cfa: sp 32 +
STACK CFI 1b56c .cfa: x29 32 + x19: .cfa -16 + ^ .ra: .cfa -24 + ^ x29: .cfa -32 + ^
STACK CFI 1b5b0 .cfa: sp 32 +
STACK CFI 1b5b8 .cfa: sp 0 +
STACK CFI INIT 1b5bc 64 .cfa: sp 0 +
STACK CFI 1b5c0 .cfa: sp 32 +
STACK CFI 1b5c8 .cfa: x29 32 + x19: .cfa -16 + ^ .ra: .cfa -24 + ^ x29: .cfa -32 + ^
STACK CFI 1b614 .cfa: sp 32 +
STACK CFI 1b61c .cfa: sp 0 +
STACK CFI INIT 1b620 4 .cfa: sp 0 +
STACK CFI INIT 1b624 4 .cfa: sp 0 +
STACK CFI INIT 1b628 34 .cfa: sp 0 +
STACK CFI 1b62c .cfa: sp 32 +
STACK CFI 1b634 .cfa: x29 32 + x19: .cfa -16 + ^ .ra: .cfa -24 + ^ x29: .cfa -32 + ^
STACK CFI 1b650 .cfa: sp 32 +
STACK CFI 1b658 .cfa: sp 0 +
STACK CFI INIT 1b65c 14 .cfa: sp 0 +
STACK CFI INIT 1b670 4 .cfa: sp 0 +
STACK CFI INIT 1b674 4 .cfa: sp 0 +
STACK CFI INIT 1b678 10 .cfa: sp 0 +
STACK CFI INIT 1b688 1c .cfa: sp 0 +
STACK CFI INIT 1b6a4 c .cfa: sp 0 +
STACK CFI INIT 1b868 a8 .cfa: sp 0 +
STACK CFI 1b86c .cfa: sp 80 +
STACK CFI 1b87c .cfa: x29 48 + x19: .cfa -8 + ^ x20: .cfa -16 + ^ x21: .cfa -24 + ^ x22: .cfa -32 + ^ .ra: .cfa -40 + ^ x29: .cfa -48 + ^
STACK CFI 1b8f8 .cfa: sp 80 +
STACK CFI 1b908 .cfa: sp 0 +
STACK CFI 1b90c .cfa: x29 48 +
STACK CFI INIT 1b910 4 .cfa: sp 0 +
STACK CFI INIT 1b914 38 .cfa: sp 0 +
STACK CFI 1b918 .cfa: sp 32 +
STACK CFI 1b920 .cfa: x29 32 + x19: .cfa -16 + ^ .ra: .cfa -24 + ^ x29: .cfa -32 + ^
STACK CFI 1b940 .cfa: sp 32 +
STACK CFI 1b948 .cfa: sp 0 +
STACK CFI INIT 1b94c 18 .cfa: sp 0 +
STACK CFI INIT 1b964 4 .cfa: sp 0 +
STACK CFI INIT 1b968 4 .cfa: sp 0 +
STACK CFI INIT 1b96c c4 .cfa: sp 0 +
STACK CFI 1b970 .cfa: sp 32 +
STACK CFI 1b978 .cfa: x29 32 + x19: .cfa -8 + ^ x20: .cfa -16 + ^ .ra: .cfa -24 + ^ x29: .cfa -32 + ^
STACK CFI 1b9c0 .cfa: sp 32 +
STACK CFI 1b9c8 .cfa: sp 0 +
STACK CFI 1b9cc .cfa: x29 32 +
STACK CFI 1b9dc .cfa: sp 32 +
STACK CFI 1b9e4 .cfa: sp 0 +
STACK CFI 1b9e8 .cfa: x29 32 +
STACK CFI 1ba24 .cfa: sp 32 +
STACK CFI 1ba2c .cfa: sp 0 +
STACK CFI INIT 1ba30 1c .cfa: sp 0 +
STACK CFI INIT 1ba4c c .cfa: sp 0 +
STACK CFI INIT 1bc14 4 .cfa: sp 0 +
STACK CFI INIT 1bc18 38 .cfa: sp 0 +
STACK CFI 1bc1c .cfa: sp 32 +
STACK CFI 1bc24 .cfa: x29 32 + x19: .cfa -16 + ^ .ra: .cfa -24 + ^ x29: .cfa -32 + ^
STACK CFI 1bc44 .cfa: sp 32 +
STACK CFI 1bc4c .cfa: sp 0 +
STACK CFI INIT 1bc50 18 .cfa: sp 0 +
STACK CFI INIT 1bc68 4 .cfa: sp 0 +
STACK CFI INIT 1bc6c 4 .cfa: sp 0 +
STACK CFI INIT 1bc70 c4 .cfa: sp 0 +
STACK CFI 1bc74 .cfa: sp 32 +
STACK CFI 1bc7c .cfa: x29 32 + x19: .cfa -8 + ^ x20: .cfa -16 + ^ .ra: .cfa -24 + ^ x29: .cfa -32 + ^
STACK CFI 1bcc4 .cfa: sp 32 +
STACK CFI 1bccc .cfa: sp 0 +
STACK CFI 1bcd0 .cfa: x29 32 +
STACK CFI 1bce0 .cfa: sp 32 +
STACK CFI 1bce8 .cfa: sp 0 +
STACK CFI 1bcec .cfa: x29 32 +
STACK CFI 1bd28 .cfa: sp 32 +
STACK CFI 1bd30 .cfa: sp 0 +
STACK CFI INIT 1bd34 1c .cfa: sp 0 +
STACK CFI INIT 1bd50 c .cfa: sp 0 +
STACK CFI INIT 1bf18 4 .cfa: sp 0 +
STACK CFI INIT 1bf1c 38 .cfa: sp 0 +
STACK CFI 1bf20 .cfa: sp 32 +
STACK CFI 1bf28 .cfa: x29 32 + x19: .cfa -16 + ^ .ra: .cfa -24 + ^ x29: .cfa -32 + ^
STACK CFI 1bf48 .cfa: sp 32 +
STACK CFI 1bf50 .cfa: sp 0 +
STACK CFI INIT 1bf54 18 .cfa: sp 0 +
STACK CFI INIT 1bf6c 4 .cfa: sp 0 +
STACK CFI INIT 1bf70 4 .cfa: sp 0 +
STACK CFI INIT 1bf74 c4 .cfa: sp 0 +
STACK CFI 1bf78 .cfa: sp 32 +
STACK CFI 1bf80 .cfa: x29 32 + x19: .cfa -8 + ^ x20: .cfa -16 + ^ .ra: .cfa -24 + ^ x29: .cfa -32 + ^
STACK CFI 1bfc8 .cfa: sp 32 +
STACK CFI 1bfd0 .cfa: sp 0 +
STACK CFI 1bfd4 .cfa: x29 32 +
STACK CFI 1bfe4 .cfa: sp 32 +
STACK CFI 1bfec .cfa: sp 0 +
STACK CFI 1bff0 .cfa: x29 32 +
STACK CFI 1c02c .cfa: sp 32 +
STACK CFI 1c034 .cfa: sp 0 +
STACK CFI INIT 1c038 1c .cfa: sp 0 +
STACK CFI INIT 1c054 c .cfa: sp 0 +
STACK CFI INIT 1c214 4 .cfa: sp 0 +
STACK CFI INIT 1c218 38 .cfa: sp 0 +
STACK CFI 1c21c .cfa: sp 32 +
STACK CFI 1c224 .cfa: x29 32 + x19: .cfa -16 + ^ .ra: .cfa -24 + ^ x29: .cfa -32 + ^
STACK CFI 1c244 .cfa: sp 32 +
STACK CFI 1c24c .cfa: sp 0 +
STACK CFI INIT 1c250 18 .cfa: sp 0 +
STACK CFI INIT 1c268 4 .cfa: sp 0 +
STACK CFI INIT 1c26c 4 .cfa: sp 0 +
STACK CFI INIT 1c270 c4 .cfa: sp 0 +
STACK CFI 1c274 .cfa: sp 32 +
STACK CFI 1c27c .cfa: x29 32 + x19: .cfa -8 + ^ x20: .cfa -16 + ^ .ra: .cfa -24 + ^ x29: .cfa -32 + ^
STACK CFI 1c2c4 .cfa: sp 32 +
STACK CFI 1c2cc .cfa: sp 0 +
STACK CFI 1c2d0 .cfa: x29 32 +
STACK CFI 1c2e0 .cfa: sp 32 +
STACK CFI 1c2e8 .cfa: sp 0 +
STACK CFI 1c2ec .cfa: x29 32 +
STACK CFI 1c328 .cfa: sp 32 +
STACK CFI 1c330 .cfa: sp 0 +
STACK CFI INIT 1c334 1c .cfa: sp 0 +
STACK CFI INIT 1c350 c .cfa: sp 0 +
STACK CFI INIT 1c51c 4 .cfa: sp 0 +
STACK CFI INIT 1c520 38 .cfa: sp 0 +
STACK CFI 1c524 .cfa: sp 32 +
STACK CFI 1c52c .cfa: x29 32 + x19: .cfa -16 + ^ .ra: .cfa -24 + ^ x29: .cfa -32 + ^
STACK CFI 1c54c .cfa: sp 32 +
STACK CFI 1c554 .cfa: sp 0 +
STACK CFI INIT 1c558 18 .cfa: sp 0 +
STACK CFI INIT 1c570 4 .cfa: sp 0 +
STACK CFI INIT 1c574 4 .cfa: sp 0 +
STACK CFI INIT 1c578 c4 .cfa: sp 0 +
STACK CFI 1c57c .cfa: sp 32 +
STACK CFI 1c584 .cfa: x29 32 + x19: .cfa -8 + ^ x20: .cfa -16 + ^ .ra: .cfa -24 + ^ x29: .cfa -32 + ^
STACK CFI 1c5cc .cfa: sp 32 +
STACK CFI 1c5d4 .cfa: sp 0 +
STACK CFI 1c5d8 .cfa: x29 32 +
STACK CFI 1c5e8 .cfa: sp 32 +
STACK CFI 1c5f0 .cfa: sp 0 +
STACK CFI 1c5f4 .cfa: x29 32 +
STACK CFI 1c630 .cfa: sp 32 +
STACK CFI 1c638 .cfa: sp 0 +
STACK CFI INIT 1c63c 1c .cfa: sp 0 +
STACK CFI INIT 1c658 c .cfa: sp 0 +
STACK CFI INIT 1c838 4 .cfa: sp 0 +
STACK CFI INIT 1c83c 38 .cfa: sp 0 +
STACK CFI 1c840 .cfa: sp 32 +
STACK CFI 1c848 .cfa: x29 32 + x19: .cfa -16 + ^ .ra: .cfa -24 + ^ x29: .cfa -32 + ^
STACK CFI 1c868 .cfa: sp 32 +
STACK CFI 1c870 .cfa: sp 0 +
STACK CFI INIT 1c874 18 .cfa: sp 0 +
STACK CFI INIT 1c88c 4 .cfa: sp 0 +
STACK CFI INIT 1c890 4 .cfa: sp 0 +
STACK CFI INIT 1c894 c4 .cfa: sp 0 +
STACK CFI 1c898 .cfa: sp 32 +
STACK CFI 1c8a0 .cfa: x29 32 + x19: .cfa -8 + ^ x20: .cfa -16 + ^ .ra: .cfa -24 + ^ x29: .cfa -32 + ^
STACK CFI 1c8e8 .cfa: sp 32 +
STACK CFI 1c8f0 .cfa: sp 0 +
STACK CFI 1c8f4 .cfa: x29 32 +
STACK CFI 1c904 .cfa: sp 32 +
STACK CFI 1c90c .cfa: sp 0 +
STACK CFI 1c910 .cfa: x29 32 +
STACK CFI 1c94c .cfa: sp 32 +
STACK CFI 1c954 .cfa: sp 0 +
STACK CFI INIT 1c958 1c .cfa: sp 0 +
STACK CFI INIT 1c974 c .cfa: sp 0 +
STACK CFI INIT 1cb34 4 .cfa: sp 0 +
STACK CFI INIT 1cb38 38 .cfa: sp 0 +
STACK CFI 1cb3c .cfa: sp 32 +
STACK CFI 1cb44 .cfa: x29 32 + x19: .cfa -16 + ^ .ra: .cfa -24 + ^ x29: .cfa -32 + ^
STACK CFI 1cb64 .cfa: sp 32 +
STACK CFI 1cb6c .cfa: sp 0 +
STACK CFI INIT 1cb70 18 .cfa: sp 0 +
STACK CFI INIT 1cb88 4 .cfa: sp 0 +
STACK CFI INIT 1cb8c 4 .cfa: sp 0 +
STACK CFI INIT 1cb90 c4 .cfa: sp 0 +
STACK CFI 1cb94 .cfa: sp 32 +
STACK CFI 1cb9c .cfa: x29 32 + x19: .cfa -8 + ^ x20: .cfa -16 + ^ .ra: .cfa -24 + ^ x29: .cfa -32 + ^
STACK CFI 1cbe4 .cfa: sp 32 +
STACK CFI 1cbec .cfa: sp 0 +
STACK CFI 1cbf0 .cfa: x29 32 +
STACK CFI 1cc00 .cfa: sp 32 +
STACK CFI 1cc08 .cfa: sp 0 +
STACK CFI 1cc0c .cfa: x29 32 +
STACK CFI 1cc48 .cfa: sp 32 +
STACK CFI 1cc50 .cfa: sp 0 +
STACK CFI INIT 1cc54 1c .cfa: sp 0 +
STACK CFI INIT 1cc70 c .cfa: sp 0 +
STACK CFI INIT 1ce34 4 .cfa: sp 0 +
STACK CFI INIT 1ce38 38 .cfa: sp 0 +
STACK CFI 1ce3c .cfa: sp 32 +
STACK CFI 1ce44 .cfa: x29 32 + x19: .cfa -16 + ^ .ra: .cfa -24 + ^ x29: .cfa -32 + ^
STACK CFI 1ce64 .cfa: sp 32 +
STACK CFI 1ce6c .cfa: sp 0 +
STACK CFI INIT 1ce70 18 .cfa: sp 0 +
STACK CFI INIT 1ce88 4 .cfa: sp 0 +
STACK CFI INIT 1ce8c 4 .cfa: sp 0 +
STACK CFI INIT 1ce90 c4 .cfa: sp 0 +
STACK CFI 1ce94 .cfa: sp 32 +
STACK CFI 1ce9c .cfa: x29 32 + x19: .cfa -8 + ^ x20: .cfa -16 + ^ .ra: .cfa -24 + ^ x29: .cfa -32 + ^
STACK CFI 1cee4 .cfa: sp 32 +
STACK CFI 1ceec .cfa: sp 0 +
STACK CFI 1cef0 .cfa: x29 32 +
STACK CFI 1cf00 .cfa: sp 32 +
STACK CFI 1cf08 .cfa: sp 0 +
STACK CFI 1cf0c .cfa: x29 32 +
STACK CFI 1cf48 .cfa: sp 32 +
STACK CFI 1cf50 .cfa: sp 0 +
STACK CFI INIT 1cf54 1c .cfa: sp 0 +
STACK CFI INIT 1cf70 c .cfa: sp 0 +
STACK CFI INIT 1d130 4 .cfa: sp 0 +
STACK CFI INIT 1d134 38 .cfa: sp 0 +
STACK CFI 1d138 .cfa: sp 32 +
STACK CFI 1d140 .cfa: x29 32 + x19: .cfa -16 + ^ .ra: .cfa -24 + ^ x29: .cfa -32 + ^
STACK CFI 1d160 .cfa: sp 32 +
STACK CFI 1d168 .cfa: sp 0 +
STACK CFI INIT 1d16c 18 .cfa: sp 0 +
STACK CFI INIT 1d184 4 .cfa: sp 0 +
STACK CFI INIT 1d188 4 .cfa: sp 0 +
STACK CFI INIT 1d18c c4 .cfa: sp 0 +
STACK CFI 1d190 .cfa: sp 32 +
STACK CFI 1d198 .cfa: x29 32 + x19: .cfa -8 + ^ x20: .cfa -16 + ^ .ra: .cfa -24 + ^ x29: .cfa -32 + ^
STACK CFI 1d1e0 .cfa: sp 32 +
STACK CFI 1d1e8 .cfa: sp 0 +
STACK CFI 1d1ec .cfa: x29 32 +
STACK CFI 1d1fc .cfa: sp 32 +
STACK CFI 1d204 .cfa: sp 0 +
STACK CFI 1d208 .cfa: x29 32 +
STACK CFI 1d244 .cfa: sp 32 +
STACK CFI 1d24c .cfa: sp 0 +
STACK CFI INIT 1d250 1c .cfa: sp 0 +
STACK CFI INIT 1d26c c .cfa: sp 0 +
STACK CFI INIT 1d430 4 .cfa: sp 0 +
STACK CFI INIT 1d434 38 .cfa: sp 0 +
STACK CFI 1d438 .cfa: sp 32 +
STACK CFI 1d440 .cfa: x29 32 + x19: .cfa -16 + ^ .ra: .cfa -24 + ^ x29: .cfa -32 + ^
STACK CFI 1d460 .cfa: sp 32 +
STACK CFI 1d468 .cfa: sp 0 +
STACK CFI INIT 1d46c 18 .cfa: sp 0 +
STACK CFI INIT 1d484 4 .cfa: sp 0 +
STACK CFI INIT 1d488 4 .cfa: sp 0 +
STACK CFI INIT 1d48c c4 .cfa: sp 0 +
STACK CFI 1d490 .cfa: sp 32 +
STACK CFI 1d498 .cfa: x29 32 + x19: .cfa -8 + ^ x20: .cfa -16 + ^ .ra: .cfa -24 + ^ x29: .cfa -32 + ^
STACK CFI 1d4e0 .cfa: sp 32 +
STACK CFI 1d4e8 .cfa: sp 0 +
STACK CFI 1d4ec .cfa: x29 32 +
STACK CFI 1d4fc .cfa: sp 32 +
STACK CFI 1d504 .cfa: sp 0 +
STACK CFI 1d508 .cfa: x29 32 +
STACK CFI 1d544 .cfa: sp 32 +
STACK CFI 1d54c .cfa: sp 0 +
STACK CFI INIT 1d550 1c .cfa: sp 0 +
STACK CFI INIT 1d56c c .cfa: sp 0 +
STACK CFI INIT 1d6a4 3c .cfa: sp 0 +
STACK CFI 1d6a8 .cfa: sp 32 +
STACK CFI 1d6b0 .cfa: x29 32 + x19: .cfa -16 + ^ .ra: .cfa -24 + ^ x29: .cfa -32 + ^
STACK CFI 1d6bc .cfa: sp 32 +
STACK CFI 1d6c4 .cfa: sp 0 +
STACK CFI 1d6c8 .cfa: x29 32 +
STACK CFI 1d6d4 .cfa: sp 32 +
STACK CFI 1d6dc .cfa: sp 0 +
STACK CFI INIT 1d900 64 .cfa: sp 0 +
STACK CFI 1d904 .cfa: sp 32 +
STACK CFI 1d90c .cfa: x29 32 + x19: .cfa -16 + ^ .ra: .cfa -24 + ^ x29: .cfa -32 + ^
STACK CFI 1d938 .cfa: sp 32 +
STACK CFI 1d940 .cfa: sp 0 +
STACK CFI 1d944 .cfa: x29 32 +
STACK CFI 1d958 .cfa: sp 32 +
STACK CFI 1d960 .cfa: sp 0 +
STACK CFI INIT 1de18 4 .cfa: sp 0 +
STACK CFI INIT 1de1c 14 .cfa: sp 0 +
STACK CFI INIT 1de30 c .cfa: sp 0 +
STACK CFI INIT 1de3c 24c .cfa: sp 0 +
STACK CFI INIT 1e088 a0 .cfa: sp 0 +
STACK CFI 1e094 .cfa: sp 32 +
STACK CFI 1e0ec .cfa: sp 0 +
STACK CFI 1e0f0 .cfa: sp 32 +
STACK CFI 1e0f8 .cfa: sp 0 +
STACK CFI 1e0fc .cfa: sp 32 +
STACK CFI 1e110 .cfa: sp 0 +
STACK CFI 1e114 .cfa: sp 32 +
STACK CFI 1e124 .cfa: sp 0 +
STACK CFI INIT 1e128 38 .cfa: sp 0 +
STACK CFI 1e134 .cfa: sp 32 +
STACK CFI 1e15c .cfa: sp 0 +
STACK CFI INIT 1e3f4 7c .cfa: sp 0 +
STACK CFI 1e3f8 .cfa: sp 32 +
STACK CFI 1e400 .cfa: x29 32 + x19: .cfa -16 + ^ .ra: .cfa -24 + ^ x29: .cfa -32 + ^
STACK CFI 1e42c .cfa: sp 32 +
STACK CFI 1e434 .cfa: sp 0 +
STACK CFI 1e438 .cfa: x29 32 +
STACK CFI 1e464 .cfa: sp 32 +
STACK CFI 1e46c .cfa: sp 0 +
STACK CFI INIT 1e4c0 2c .cfa: sp 0 +
STACK CFI 1e4c4 .cfa: sp 32 +
STACK CFI 1e4cc .cfa: x29 32 + x19: .cfa -16 + ^ .ra: .cfa -24 + ^ x29: .cfa -32 + ^
STACK CFI 1e4e0 .cfa: sp 32 +
STACK CFI 1e4e8 .cfa: sp 0 +
STACK CFI INIT 1ecac 64 .cfa: sp 0 +
STACK CFI 1ecb0 .cfa: sp 32 +
STACK CFI 1ecb8 .cfa: x29 32 + x19: .cfa -16 + ^ .ra: .cfa -24 + ^ x29: .cfa -32 + ^
STACK CFI 1ecd4 .cfa: sp 32 +
STACK CFI 1ecdc .cfa: sp 0 +
STACK CFI 1ece0 .cfa: x29 32 +
STACK CFI 1ed04 .cfa: sp 32 +
STACK CFI 1ed0c .cfa: sp 0 +
STACK CFI INIT 1ed10 570 .cfa: sp 0 +
STACK CFI 1ed14 .cfa: sp 176 +
STACK CFI 1ed28 .cfa: x29 64 + x19: .cfa -8 + ^ x20: .cfa -16 + ^ x21: .cfa -24 + ^ x22: .cfa -32 + ^ x23: .cfa -40 + ^ x24: .cfa -48 + ^ .ra: .cfa -56 + ^ x29: .cfa -64 + ^
STACK CFI 1ef58 .cfa: sp 176 +
STACK CFI 1ef6c .cfa: sp 0 +
STACK CFI 1ef70 .cfa: x29 64 +
STACK CFI 1efbc .cfa: sp 176 +
STACK CFI 1efd0 .cfa: sp 0 +
STACK CFI 1efd4 .cfa: x29 64 +
STACK CFI 1f00c .cfa: sp 176 +
STACK CFI 1f020 .cfa: sp 0 +
STACK CFI 1f024 .cfa: x29 64 +
STACK CFI 1f03c .cfa: sp 176 +
STACK CFI 1f050 .cfa: sp 0 +
STACK CFI 1f054 .cfa: x29 64 +
STACK CFI 1f074 .cfa: sp 176 +
STACK CFI 1f088 .cfa: sp 0 +
STACK CFI 1f08c .cfa: x29 64 +
STACK CFI 1f0a4 .cfa: sp 176 +
STACK CFI 1f0b8 .cfa: sp 0 +
STACK CFI 1f0bc .cfa: x29 64 +
STACK CFI 1f0d0 .cfa: sp 176 +
STACK CFI 1f0e4 .cfa: sp 0 +
STACK CFI 1f0e8 .cfa: x29 64 +
STACK CFI 1f0fc .cfa: sp 176 +
STACK CFI 1f110 .cfa: sp 0 +
STACK CFI 1f114 .cfa: x29 64 +
STACK CFI 1f124 .cfa: sp 176 +
STACK CFI 1f138 .cfa: sp 0 +
STACK CFI 1f13c .cfa: x29 64 +
STACK CFI 1f14c .cfa: sp 176 +
STACK CFI 1f160 .cfa: sp 0 +
STACK CFI 1f164 .cfa: x29 64 +
STACK CFI 1f17c .cfa: sp 176 +
STACK CFI 1f190 .cfa: sp 0 +
STACK CFI 1f194 .cfa: x29 64 +
STACK CFI 1f1a8 .cfa: sp 176 +
STACK CFI 1f1bc .cfa: sp 0 +
STACK CFI 1f1c0 .cfa: x29 64 +
STACK CFI 1f1d8 .cfa: sp 176 +
STACK CFI 1f1ec .cfa: sp 0 +
STACK CFI 1f1f0 .cfa: x29 64 +
STACK CFI 1f21c .cfa: sp 176 +
STACK CFI 1f230 .cfa: sp 0 +
STACK CFI 1f234 .cfa: x29 64 +
STACK CFI 1f248 .cfa: sp 176 +
STACK CFI 1f25c .cfa: sp 0 +
STACK CFI 1f260 .cfa: x29 64 +
STACK CFI INIT 1f280 228 .cfa: sp 0 +
STACK CFI INIT 1f4a8 2dc .cfa: sp 0 +
STACK CFI INIT 1f784 53c .cfa: sp 0 +
STACK CFI INIT 1fcc0 78 .cfa: sp 0 +
STACK CFI 1fcc4 .cfa: sp 48 +
STACK CFI 1fcd0 .cfa: x29 48 + x19: .cfa -8 + ^ x20: .cfa -16 + ^ x21: .cfa -24 + ^ x22: .cfa -32 + ^ .ra: .cfa -40 + ^ x29: .cfa -48 + ^
STACK CFI 1fd18 .cfa: sp 48 +
STACK CFI 1fd24 .cfa: sp 0 +
STACK CFI 1fd28 .cfa: sp 48 +
STACK CFI 1fd34 .cfa: sp 0 +
STACK CFI INIT 1fd38 8c .cfa: sp 0 +
STACK CFI 1fd3c .cfa: sp 32 +
STACK CFI 1fd44 .cfa: x29 32 + x19: .cfa -16 + ^ .ra: .cfa -24 + ^ x29: .cfa -32 + ^
STACK CFI 1fd78 .cfa: sp 32 +
STACK CFI 1fd80 .cfa: sp 0 +
STACK CFI 1fd84 .cfa: x29 32 +
STACK CFI 1fdb8 .cfa: sp 32 +
STACK CFI 1fdc0 .cfa: sp 0 +
STACK CFI INIT 1fdc4 24 .cfa: sp 0 +
STACK CFI 1fdc8 .cfa: sp 32 +
STACK CFI 1fdd0 .cfa: x29 32 + x19: .cfa -16 + ^ .ra: .cfa -24 + ^ x29: .cfa -32 + ^
STACK CFI 1fddc .cfa: sp 32 +
STACK CFI 1fde4 .cfa: sp 0 +
STACK CFI INIT 1fde8 150 .cfa: sp 0 +
STACK CFI 1fdec .cfa: sp 48 +
STACK CFI 1fdf8 .cfa: x29 48 + x19: .cfa -8 + ^ x20: .cfa -16 + ^ x21: .cfa -24 + ^ x22: .cfa -32 + ^ .ra: .cfa -40 + ^ x29: .cfa -48 + ^
STACK CFI 1ff28 .cfa: sp 48 +
STACK CFI 1ff34 .cfa: sp 0 +
STACK CFI INIT 1ff38 68 .cfa: sp 0 +
STACK CFI 1ff3c .cfa: sp 64 +
STACK CFI 1ff48 .cfa: x29 32 + x19: .cfa -16 + ^ .ra: .cfa -24 + ^ x29: .cfa -32 + ^
STACK CFI 1ff8c .cfa: sp 64 +
STACK CFI 1ff98 .cfa: sp 0 +
STACK CFI 1ff9c .cfa: x29 32 +
STACK CFI INIT 1ffa0 90 .cfa: sp 0 +
STACK CFI 1ffa4 .cfa: sp 32 +
STACK CFI 1ffac .cfa: x29 32 + x19: .cfa -8 + ^ x20: .cfa -16 + ^ .ra: .cfa -24 + ^ x29: .cfa -32 + ^
STACK CFI 1ffd8 .cfa: sp 32 +
STACK CFI 1ffe0 .cfa: sp 0 +
STACK CFI 1ffe4 .cfa: x29 32 +
STACK CFI 20024 .cfa: sp 32 +
STACK CFI 2002c .cfa: sp 0 +
STACK CFI INIT 20030 ec .cfa: sp 0 +
STACK CFI 20034 .cfa: sp 112 +
STACK CFI 20044 .cfa: x29 48 + x19: .cfa -8 + ^ x20: .cfa -16 + ^ x21: .cfa -32 + ^ .ra: .cfa -40 + ^ x29: .cfa -48 + ^
STACK CFI 20104 .cfa: sp 112 +
STACK CFI 20114 .cfa: sp 0 +
STACK CFI 20118 .cfa: x29 48 +
STACK CFI INIT 2011c ec .cfa: sp 0 +
STACK CFI 20120 .cfa: sp 112 +
STACK CFI 20130 .cfa: x29 48 + x19: .cfa -8 + ^ x20: .cfa -16 + ^ x21: .cfa -32 + ^ .ra: .cfa -40 + ^ x29: .cfa -48 + ^
STACK CFI 201f0 .cfa: sp 112 +
STACK CFI 20200 .cfa: sp 0 +
STACK CFI 20204 .cfa: x29 48 +
STACK CFI INIT 20208 48 .cfa: sp 0 +
STACK CFI 2020c .cfa: sp 32 +
STACK CFI 20214 .cfa: x29 32 + x19: .cfa -8 + ^ x20: .cfa -16 + ^ .ra: .cfa -24 + ^ x29: .cfa -32 + ^
STACK CFI 20238 .cfa: sp 32 +
STACK CFI 20240 .cfa: sp 0 +
STACK CFI 20244 .cfa: x29 32 +
STACK CFI INIT 20250 98 .cfa: sp 0 +
STACK CFI 20254 .cfa: sp 80 +
STACK CFI 20260 .cfa: x29 32 + x19: .cfa -16 + ^ .ra: .cfa -24 + ^ x29: .cfa -32 + ^
STACK CFI 202d4 .cfa: sp 80 +
STACK CFI 202e0 .cfa: sp 0 +
STACK CFI 202e4 .cfa: x29 32 +
STACK CFI INIT 202e8 260 .cfa: sp 0 +
STACK CFI 202ec .cfa: sp 112 +
STACK CFI 20304 .cfa: x29 80 + x19: .cfa -8 + ^ x20: .cfa -16 + ^ x21: .cfa -24 + ^ x22: .cfa -32 + ^ x23: .cfa -40 + ^ x24: .cfa -48 + ^ x25: .cfa -64 + ^ .ra: .cfa -72 + ^ x29: .cfa -80 + ^
STACK CFI 204e8 .cfa: sp 112 +
STACK CFI 20500 .cfa: sp 0 +
STACK CFI 20504 .cfa: x29 80 +
STACK CFI INIT 20548 150 .cfa: sp 0 +
STACK CFI 2054c .cfa: sp 48 +
STACK CFI 20558 .cfa: x29 48 + x19: .cfa -8 + ^ x20: .cfa -16 + ^ x21: .cfa -24 + ^ x22: .cfa -32 + ^ .ra: .cfa -40 + ^ x29: .cfa -48 + ^
STACK CFI 20688 .cfa: sp 48 +
STACK CFI 20694 .cfa: sp 0 +
STACK CFI INIT 20698 1e0 .cfa: sp 0 +
STACK CFI 2069c .cfa: sp 96 +
STACK CFI 206b0 .cfa: x29 64 + x19: .cfa -8 + ^ x20: .cfa -16 + ^ x21: .cfa -24 + ^ x22: .cfa -32 + ^ x23: .cfa -40 + ^ x24: .cfa -48 + ^ .ra: .cfa -56 + ^ x29: .cfa -64 + ^
STACK CFI 20830 .cfa: sp 96 +
STACK CFI 20844 .cfa: sp 0 +
STACK CFI 20848 .cfa: x29 64 +
STACK CFI INIT 20878 284 .cfa: sp 0 +
STACK CFI 2087c .cfa: sp 112 +
STACK CFI 20894 .cfa: x29 80 + x19: .cfa -8 + ^ x20: .cfa -16 + ^ x21: .cfa -24 + ^ x22: .cfa -32 + ^ x23: .cfa -40 + ^ x24: .cfa -48 + ^ x25: .cfa -64 + ^ .ra: .cfa -72 + ^ x29: .cfa -80 + ^
STACK CFI 20a9c .cfa: sp 112 +
STACK CFI 20ab4 .cfa: sp 0 +
STACK CFI 20ab8 .cfa: x29 80 +
STACK CFI INIT 20afc 208 .cfa: sp 0 +
STACK CFI 20b00 .cfa: sp 96 +
STACK CFI 20b14 .cfa: x29 64 + x19: .cfa -8 + ^ x20: .cfa -16 + ^ x21: .cfa -24 + ^ x22: .cfa -32 + ^ x23: .cfa -40 + ^ x24: .cfa -48 + ^ .ra: .cfa -56 + ^ x29: .cfa -64 + ^
STACK CFI 20cbc .cfa: sp 96 +
STACK CFI 20cd0 .cfa: sp 0 +
STACK CFI 20cd4 .cfa: x29 64 +
STACK CFI INIT 20d04 360 .cfa: sp 0 +
STACK CFI 20d08 .cfa: sp 160 +
STACK CFI 20d24 .cfa: x29 96 + x19: .cfa -8 + ^ x20: .cfa -16 + ^ x21: .cfa -24 + ^ x22: .cfa -32 + ^ x23: .cfa -40 + ^ x24: .cfa -48 + ^ x25: .cfa -56 + ^ x26: .cfa -64 + ^ x27: .cfa -72 + ^ x28: .cfa -80 + ^ .ra: .cfa -88 + ^ x29: .cfa -96 + ^
STACK CFI 20ff0 .cfa: sp 160 +
STACK CFI 2100c .cfa: sp 0 +
STACK CFI 21010 .cfa: x29 96 +
STACK CFI INIT 21064 314 .cfa: sp 0 +
STACK CFI 21068 .cfa: sp 144 +
STACK CFI 21084 .cfa: x29 96 + x19: .cfa -8 + ^ x20: .cfa -16 + ^ x21: .cfa -24 + ^ x22: .cfa -32 + ^ x23: .cfa -40 + ^ x24: .cfa -48 + ^ x25: .cfa -56 + ^ x26: .cfa -64 + ^ x27: .cfa -72 + ^ x28: .cfa -80 + ^ .ra: .cfa -88 + ^ x29: .cfa -96 + ^
STACK CFI 21300 .cfa: sp 144 +
STACK CFI 2131c .cfa: sp 0 +
STACK CFI 21320 .cfa: x29 96 +
STACK CFI INIT 21378 290 .cfa: sp 0 +
STACK CFI 2137c .cfa: sp 128 +
STACK CFI 21394 .cfa: x29 80 + x19: .cfa -8 + ^ x20: .cfa -16 + ^ x21: .cfa -24 + ^ x22: .cfa -32 + ^ x23: .cfa -40 + ^ x24: .cfa -48 + ^ x25: .cfa -56 + ^ x26: .cfa -64 + ^ .ra: .cfa -72 + ^ x29: .cfa -80 + ^
STACK CFI 215e8 .cfa: sp 128 +
STACK CFI 21600 .cfa: sp 0 +
STACK CFI 21604 .cfa: x29 80 +
STACK CFI INIT 21608 ddc .cfa: sp 0 +
STACK CFI 2160c .cfa: sp 144 +
STACK CFI 21628 .cfa: x29 96 + x19: .cfa -8 + ^ x20: .cfa -16 + ^ x21: .cfa -24 + ^ x22: .cfa -32 + ^ x23: .cfa -40 + ^ x24: .cfa -48 + ^ x25: .cfa -56 + ^ x26: .cfa -64 + ^ x27: .cfa -72 + ^ x28: .cfa -80 + ^ .ra: .cfa -88 + ^ x29: .cfa -96 + ^
STACK CFI 222bc .cfa: sp 144 +
STACK CFI 222d8 .cfa: sp 0 +
STACK CFI 222dc .cfa: x29 96 +
STACK CFI INIT 223e4 1d0 .cfa: sp 0 +
STACK CFI 223e8 .cfa: sp 80 +
STACK CFI 223fc .cfa: x29 80 + x19: .cfa -8 + ^ x20: .cfa -16 + ^ x21: .cfa -24 + ^ x22: .cfa -32 + ^ x23: .cfa -40 + ^ x24: .cfa -48 + ^ x25: .cfa -64 + ^ .ra: .cfa -72 + ^ x29: .cfa -80 + ^
STACK CFI 2259c .cfa: sp 80 +
STACK CFI 225b0 .cfa: sp 0 +
STACK CFI INIT 225b4 23c .cfa: sp 0 +
STACK CFI 225b8 .cfa: sp 112 +
STACK CFI 225cc .cfa: x29 64 + x19: .cfa -8 + ^ x20: .cfa -16 + ^ x21: .cfa -24 + ^ x22: .cfa -32 + ^ x23: .cfa -40 + ^ x24: .cfa -48 + ^ .ra: .cfa -56 + ^ x29: .cfa -64 + ^
STACK CFI 227a8 .cfa: sp 112 +
STACK CFI 227bc .cfa: sp 0 +
STACK CFI 227c0 .cfa: x29 64 +
STACK CFI INIT 227f0 30c .cfa: sp 0 +
STACK CFI 227f4 .cfa: sp 80 +
STACK CFI 22808 .cfa: x29 64 + x19: .cfa -8 + ^ x20: .cfa -16 + ^ x21: .cfa -24 + ^ x22: .cfa -32 + ^ x23: .cfa -40 + ^ x24: .cfa -48 + ^ .ra: .cfa -56 + ^ x29: .cfa -64 + ^
STACK CFI 22984 .cfa: sp 80 +
STACK CFI 22998 .cfa: sp 0 +
STACK CFI 2299c .cfa: x29 64 +
STACK CFI INIT 22afc 178 .cfa: sp 0 +
STACK CFI 22b00 .cfa: sp 80 +
STACK CFI 22b14 .cfa: x29 64 + x19: .cfa -8 + ^ x20: .cfa -16 + ^ x21: .cfa -24 + ^ x22: .cfa -32 + ^ x23: .cfa -40 + ^ x24: .cfa -48 + ^ .ra: .cfa -56 + ^ x29: .cfa -64 + ^
STACK CFI 22c58 .cfa: sp 80 +
STACK CFI 22c6c .cfa: sp 0 +
STACK CFI 22c70 .cfa: x29 64 +
STACK CFI INIT 22c74 178 .cfa: sp 0 +
STACK CFI 22c78 .cfa: sp 80 +
STACK CFI 22c8c .cfa: x29 64 + x19: .cfa -8 + ^ x20: .cfa -16 + ^ x21: .cfa -24 + ^ x22: .cfa -32 + ^ x23: .cfa -40 + ^ x24: .cfa -48 + ^ .ra: .cfa -56 + ^ x29: .cfa -64 + ^
STACK CFI 22dd0 .cfa: sp 80 +
STACK CFI 22de4 .cfa: sp 0 +
STACK CFI 22de8 .cfa: x29 64 +
STACK CFI INIT 22dec 240 .cfa: sp 0 +
STACK CFI 22df0 .cfa: sp 96 +
STACK CFI 22e08 .cfa: x29 96 + x19: .cfa -8 + ^ x20: .cfa -16 + ^ x21: .cfa -24 + ^ x22: .cfa -32 + ^ x23: .cfa -40 + ^ x24: .cfa -48 + ^ x25: .cfa -56 + ^ x26: .cfa -64 + ^ x27: .cfa -72 + ^ x28: .cfa -80 + ^ .ra: .cfa -88 + ^ x29: .cfa -96 + ^
STACK CFI 23010 .cfa: sp 96 +
STACK CFI 23028 .cfa: sp 0 +
STACK CFI INIT 23ca0 154 .cfa: sp 0 +
STACK CFI 23ca4 .cfa: sp 96 +
STACK CFI 23cb8 .cfa: x29 64 + x19: .cfa -8 + ^ x20: .cfa -16 + ^ x21: .cfa -24 + ^ x22: .cfa -32 + ^ x23: .cfa -48 + ^ .ra: .cfa -56 + ^ x29: .cfa -64 + ^
STACK CFI 23d98 .cfa: sp 96 +
STACK CFI 23dac .cfa: sp 0 +
STACK CFI 23db0 .cfa: x29 64 +
STACK CFI INIT 24060 44 .cfa: sp 0 +
STACK CFI 24064 .cfa: sp 32 +
STACK CFI 2406c .cfa: x29 32 + x19: .cfa -16 + ^ .ra: .cfa -24 + ^ x29: .cfa -32 + ^
STACK CFI 24088 .cfa: sp 32 +
STACK CFI 24090 .cfa: sp 0 +
STACK CFI 24094 .cfa: x29 32 +
STACK CFI 24098 .cfa: sp 32 +
STACK CFI 240a0 .cfa: sp 0 +
STACK CFI INIT 240a4 1d0 .cfa: sp 0 +
STACK CFI 240a8 .cfa: sp 64 +
STACK CFI 240b8 .cfa: x29 64 + x19: .cfa -8 + ^ x20: .cfa -16 + ^ x21: .cfa -24 + ^ x22: .cfa -32 + ^ x23: .cfa -40 + ^ x24: .cfa -48 + ^ .ra: .cfa -56 + ^ x29: .cfa -64 + ^
STACK CFI 24178 .cfa: sp 64 +
STACK CFI 24188 .cfa: sp 0 +
STACK CFI 2418c .cfa: x29 64 +
STACK CFI INIT 24274 17c .cfa: sp 0 +
STACK CFI INIT 243f0 ac .cfa: sp 0 +
STACK CFI 243f4 .cfa: sp 64 +
STACK CFI 24404 .cfa: x29 64 + x19: .cfa -8 + ^ x20: .cfa -16 + ^ x21: .cfa -24 + ^ x22: .cfa -32 + ^ x23: .cfa -48 + ^ .ra: .cfa -56 + ^ x29: .cfa -64 + ^
STACK CFI 24480 .cfa: sp 64 +
STACK CFI 24490 .cfa: sp 0 +
STACK CFI 24494 .cfa: x29 64 +
STACK CFI INIT 2449c 110 .cfa: sp 0 +
STACK CFI 244a0 .cfa: sp 64 +
STACK CFI 244b0 .cfa: x29 64 + x19: .cfa -8 + ^ x20: .cfa -16 + ^ x21: .cfa -24 + ^ x22: .cfa -32 + ^ x23: .cfa -40 + ^ x24: .cfa -48 + ^ .ra: .cfa -56 + ^ x29: .cfa -64 + ^
STACK CFI 24590 .cfa: sp 64 +
STACK CFI 245a0 .cfa: sp 0 +
STACK CFI 245a4 .cfa: x29 64 +
STACK CFI INIT 24964 a0 .cfa: sp 0 +
STACK CFI 24968 .cfa: sp 48 +
STACK CFI 24974 .cfa: x29 48 + x19: .cfa -8 + ^ x20: .cfa -16 + ^ x21: .cfa -24 + ^ x22: .cfa -32 + ^ .ra: .cfa -40 + ^ x29: .cfa -48 + ^
STACK CFI 249e0 .cfa: sp 48 +
STACK CFI 249ec .cfa: sp 0 +
STACK CFI 249f0 .cfa: sp 48 +
STACK CFI 249fc .cfa: sp 0 +
STACK CFI 24a00 .cfa: x29 48 +
STACK CFI INIT 256b8 158 .cfa: sp 0 +
STACK CFI 256bc .cfa: sp 96 +
STACK CFI 256d0 .cfa: x29 64 + x19: .cfa -8 + ^ x20: .cfa -16 + ^ x21: .cfa -24 + ^ x22: .cfa -32 + ^ x23: .cfa -48 + ^ .ra: .cfa -56 + ^ x29: .cfa -64 + ^
STACK CFI 257b4 .cfa: sp 96 +
STACK CFI 257c8 .cfa: sp 0 +
STACK CFI 257cc .cfa: x29 64 +
STACK CFI INIT 25810 190 .cfa: sp 0 +
STACK CFI INIT 2649c 1dc .cfa: sp 0 +
STACK CFI 264a0 .cfa: sp 80 +
STACK CFI 264b4 .cfa: x29 80 + x19: .cfa -8 + ^ x20: .cfa -16 + ^ x21: .cfa -24 + ^ x22: .cfa -32 + ^ x23: .cfa -40 + ^ x24: .cfa -48 + ^ x25: .cfa -64 + ^ .ra: .cfa -72 + ^ x29: .cfa -80 + ^
STACK CFI 26660 .cfa: sp 80 +
STACK CFI 26674 .cfa: sp 0 +
STACK CFI INIT 27aa8 124 .cfa: sp 0 +
STACK CFI 27ad8 .cfa: sp 32 +
STACK CFI 27ae0 .cfa: x29 32 + x19: .cfa -8 + ^ x20: .cfa -16 + ^ .ra: .cfa -24 + ^ x29: .cfa -32 + ^
STACK CFI 27bc0 .cfa: sp 32 +
STACK CFI 27bc8 .cfa: sp 0 +
STACK CFI INIT 28328 320 .cfa: sp 0 +
STACK CFI 2832c .cfa: sp 64 +
STACK CFI 2833c .cfa: x29 64 + x19: .cfa -8 + ^ x20: .cfa -16 + ^ x21: .cfa -24 + ^ x22: .cfa -32 + ^ x23: .cfa -40 + ^ x24: .cfa -48 + ^ .ra: .cfa -56 + ^ x29: .cfa -64 + ^
STACK CFI 283b8 .cfa: sp 64 +
STACK CFI 283c8 .cfa: sp 0 +
STACK CFI 283cc .cfa: x29 64 +
STACK CFI 285a0 .cfa: sp 64 +
STACK CFI 285b0 .cfa: sp 0 +
STACK CFI 285b4 .cfa: x29 64 +
STACK CFI 285c4 .cfa: sp 64 +
STACK CFI 285d4 .cfa: sp 0 +
STACK CFI 285d8 .cfa: x29 64 +
STACK CFI INIT 28648 a0 .cfa: sp 0 +
STACK CFI 2864c .cfa: sp 48 +
STACK CFI 28658 .cfa: x29 48 + x19: .cfa -8 + ^ x20: .cfa -16 + ^ x21: .cfa -24 + ^ x22: .cfa -32 + ^ .ra: .cfa -40 + ^ x29: .cfa -48 + ^
STACK CFI 286c4 .cfa: sp 48 +
STACK CFI 286d0 .cfa: sp 0 +
STACK CFI 286d4 .cfa: sp 48 +
STACK CFI 286e0 .cfa: sp 0 +
STACK CFI 286e4 .cfa: x29 48 +
STACK CFI INIT 29598 160 .cfa: sp 0 +
STACK CFI 2959c .cfa: sp 64 +
STACK CFI 295ac .cfa: x29 64 + x19: .cfa -8 + ^ x20: .cfa -16 + ^ x21: .cfa -24 + ^ x22: .cfa -32 + ^ x23: .cfa -48 + ^ .ra: .cfa -56 + ^ x29: .cfa -64 + ^
STACK CFI 296a4 .cfa: sp 64 +
STACK CFI 296b4 .cfa: sp 0 +
STACK CFI 296b8 .cfa: x29 64 +
STACK CFI INIT 296f8 214 .cfa: sp 0 +
STACK CFI 296fc .cfa: sp 128 +
STACK CFI 29718 .cfa: x29 96 + x19: .cfa -8 + ^ x20: .cfa -16 + ^ x21: .cfa -24 + ^ x22: .cfa -32 + ^ x23: .cfa -40 + ^ x24: .cfa -48 + ^ x25: .cfa -56 + ^ x26: .cfa -64 + ^ x27: .cfa -80 + ^ .ra: .cfa -88 + ^ x29: .cfa -96 + ^
STACK CFI 29894 .cfa: sp 128 +
STACK CFI 298b0 .cfa: sp 0 +
STACK CFI 298b4 .cfa: x29 96 +
STACK CFI INIT 2b5a8 290 .cfa: sp 0 +
STACK CFI 2b5ac .cfa: sp 16 +
STACK CFI 2b5b0 .cfa: x29 16 + .ra: .cfa -8 + ^ x29: .cfa -16 + ^
STACK CFI 2b63c .cfa: sp 16 +
STACK CFI 2b640 .cfa: sp 0 +
STACK CFI 2b644 .cfa: x29 16 +
STACK CFI 2b694 .cfa: sp 16 +
STACK CFI 2b698 .cfa: sp 0 +
STACK CFI 2b69c .cfa: x29 16 +
STACK CFI 2b800 .cfa: sp 16 +
STACK CFI 2b804 .cfa: sp 0 +
STACK CFI 2b808 .cfa: x29 16 +
STACK CFI INIT 2b838 158 .cfa: sp 0 +
STACK CFI 2b83c .cfa: sp 112 +
STACK CFI 2b858 .cfa: x29 96 + x19: .cfa -8 + ^ x20: .cfa -16 + ^ x21: .cfa -24 + ^ x22: .cfa -32 + ^ x23: .cfa -40 + ^ x24: .cfa -48 + ^ x25: .cfa -56 + ^ x26: .cfa -64 + ^ x27: .cfa -72 + ^ x28: .cfa -80 + ^ .ra: .cfa -88 + ^ x29: .cfa -96 + ^
STACK CFI 2b940 .cfa: sp 112 +
STACK CFI 2b944 .cfa: x29 96 +
STACK CFI 2b94c .cfa: sp 112 +
STACK CFI 2b968 .cfa: sp 0 +
STACK CFI 2b96c .cfa: x29 96 +
STACK CFI 2b98c .cfa: sp 112 +
STACK CFI INIT 2b990 e54 .cfa: sp 0 +
STACK CFI 2b994 .cfa: sp 192 +
STACK CFI 2b9b0 .cfa: x29 96 + x19: .cfa -8 + ^ x20: .cfa -16 + ^ x21: .cfa -24 + ^ x22: .cfa -32 + ^ x23: .cfa -40 + ^ x24: .cfa -48 + ^ x25: .cfa -56 + ^ x26: .cfa -64 + ^ x27: .cfa -72 + ^ x28: .cfa -80 + ^ .ra: .cfa -88 + ^ x29: .cfa -96 + ^
STACK CFI 2c6cc .cfa: sp 192 +
STACK CFI 2c6e8 .cfa: sp 0 +
STACK CFI 2c6ec .cfa: x29 96 +
STACK CFI INIT 2c7e4 1068 .cfa: sp 0 +
STACK CFI 2c7e8 .cfa: sp 288 +
STACK CFI 2c804 .cfa: x29 96 + x19: .cfa -8 + ^ x20: .cfa -16 + ^ x21: .cfa -24 + ^ x22: .cfa -32 + ^ x23: .cfa -40 + ^ x24: .cfa -48 + ^ x25: .cfa -56 + ^ x26: .cfa -64 + ^ x27: .cfa -72 + ^ x28: .cfa -80 + ^ .ra: .cfa -88 + ^ x29: .cfa -96 + ^
STACK CFI 2d594 .cfa: sp 288 +
STACK CFI 2d5b0 .cfa: sp 0 +
STACK CFI 2d5b4 .cfa: x29 96 +
STACK CFI INIT 2d84c 520 .cfa: sp 0 +
STACK CFI 2d850 .cfa: sp 144 +
STACK CFI 2d86c .cfa: x29 96 + x19: .cfa -8 + ^ x20: .cfa -16 + ^ x21: .cfa -24 + ^ x22: .cfa -32 + ^ x23: .cfa -40 + ^ x24: .cfa -48 + ^ x25: .cfa -56 + ^ x26: .cfa -64 + ^ x27: .cfa -72 + ^ x28: .cfa -80 + ^ .ra: .cfa -88 + ^ x29: .cfa -96 + ^
STACK CFI 2dd48 .cfa: sp 144 +
STACK CFI 2dd64 .cfa: sp 0 +
STACK CFI 2dd68 .cfa: x29 96 +
STACK CFI INIT 2e70c 136c .cfa: sp 0 +
STACK CFI 2e710 .cfa: sp 224 +
STACK CFI 2e72c .cfa: x29 96 + x19: .cfa -8 + ^ x20: .cfa -16 + ^ x21: .cfa -24 + ^ x22: .cfa -32 + ^ x23: .cfa -40 + ^ x24: .cfa -48 + ^ x25: .cfa -56 + ^ x26: .cfa -64 + ^ x27: .cfa -72 + ^ x28: .cfa -80 + ^ .ra: .cfa -88 + ^ x29: .cfa -96 + ^
STACK CFI 2fa54 .cfa: sp 224 +
STACK CFI 2fa70 .cfa: sp 0 +
STACK CFI 2fa74 .cfa: x29 96 +
STACK CFI INIT 2fa78 1b8 .cfa: sp 0 +
STACK CFI INIT 10500 83c .cfa: sp 0 +
STACK CFI 10504 .cfa: sp 256 +
STACK CFI 10520 .cfa: x29 96 + x19: .cfa -8 + ^ x20: .cfa -16 + ^ x21: .cfa -24 + ^ x22: .cfa -32 + ^ x23: .cfa -40 + ^ x24: .cfa -48 + ^ x25: .cfa -56 + ^ x26: .cfa -64 + ^ x27: .cfa -80 + ^ .ra: .cfa -88 + ^ x29: .cfa -96 + ^
STACK CFI 1077c .cfa: sp 256 +
STACK CFI 10798 .cfa: sp 0 +
STACK CFI 1079c .cfa: x29 96 +
STACK CFI 10ae4 .cfa: sp 256 +
STACK CFI 10b00 .cfa: sp 0 +
STACK CFI 10b04 .cfa: x29 96 +
STACK CFI INIT 10d58 768 .cfa: sp 0 +
STACK CFI 10d5c .cfa: sp 240 +
STACK CFI 10d70 .cfa: x29 64 + x19: .cfa -8 + ^ x20: .cfa -16 + ^ x21: .cfa -24 + ^ x22: .cfa -32 + ^ x23: .cfa -40 + ^ x24: .cfa -48 + ^ .ra: .cfa -56 + ^ x29: .cfa -64 + ^
STACK CFI 11288 .cfa: sp 240 +
STACK CFI 1129c .cfa: sp 0 +
STACK CFI 112a0 .cfa: x29 64 +
STACK CFI INIT 11510 74 .cfa: sp 0 +
STACK CFI 11514 .cfa: sp 48 +
STACK CFI 11520 .cfa: x29 32 + x19: .cfa -8 + ^ x20: .cfa -16 + ^ .ra: .cfa -24 + ^ x29: .cfa -32 + ^
STACK CFI 1156c .cfa: sp 48 +
STACK CFI 11578 .cfa: sp 0 +
STACK CFI 1157c .cfa: x29 32 +
STACK CFI INIT 11614 1b0 .cfa: sp 0 +
STACK CFI 11618 .cfa: sp 112 +
STACK CFI 1162c .cfa: x29 64 + x19: .cfa -8 + ^ x20: .cfa -16 + ^ x21: .cfa -24 + ^ x22: .cfa -32 + ^ x23: .cfa -48 + ^ .ra: .cfa -56 + ^ x29: .cfa -64 + ^
STACK CFI 11714 .cfa: sp 112 +
STACK CFI 11728 .cfa: sp 0 +
STACK CFI 1172c .cfa: x29 64 +
STACK CFI INIT 117d8 50 .cfa: sp 0 +
STACK CFI 117dc .cfa: sp 32 +
STACK CFI 117e4 .cfa: x29 32 + x19: .cfa -8 + ^ x20: .cfa -16 + ^ .ra: .cfa -24 + ^ x29: .cfa -32 + ^
STACK CFI INIT 119ac 1f4 .cfa: sp 0 +
STACK CFI 119b0 .cfa: sp 128 +
STACK CFI 119cc .cfa: x29 96 + x19: .cfa -8 + ^ x20: .cfa -16 + ^ x21: .cfa -24 + ^ x22: .cfa -32 + ^ x23: .cfa -40 + ^ x24: .cfa -48 + ^ x25: .cfa -56 + ^ x26: .cfa -64 + ^ x27: .cfa -72 + ^ x28: .cfa -80 + ^ .ra: .cfa -88 + ^ x29: .cfa -96 + ^
STACK CFI 11b58 .cfa: sp 128 +
STACK CFI 11b74 .cfa: sp 0 +
STACK CFI 11b78 .cfa: x29 96 +
STACK CFI INIT 11ef0 5f4 .cfa: sp 0 +
STACK CFI 11ef4 .cfa: sp 176 +
STACK CFI 11f04 .cfa: x29 48 + x19: .cfa -8 + ^ x20: .cfa -16 + ^ x21: .cfa -24 + ^ x22: .cfa -32 + ^ .ra: .cfa -40 + ^ x29: .cfa -48 + ^
STACK CFI 122f4 .cfa: sp 176 +
STACK CFI 12304 .cfa: sp 0 +
STACK CFI 12308 .cfa: x29 48 +
STACK CFI INIT 1255c 74 .cfa: sp 0 +
STACK CFI 12560 .cfa: sp 48 +
STACK CFI 1256c .cfa: x29 32 + x19: .cfa -8 + ^ x20: .cfa -16 + ^ .ra: .cfa -24 + ^ x29: .cfa -32 + ^
STACK CFI 125b8 .cfa: sp 48 +
STACK CFI 125c4 .cfa: sp 0 +
STACK CFI 125c8 .cfa: x29 32 +
STACK CFI INIT 1260c 154 .cfa: sp 0 +
STACK CFI 12610 .cfa: sp 384 +
STACK CFI 12624 .cfa: x29 64 + x19: .cfa -8 + ^ x20: .cfa -16 + ^ x21: .cfa -24 + ^ x22: .cfa -32 + ^ x23: .cfa -40 + ^ x28: .cfa -48 + ^ .ra: .cfa -56 + ^ x29: .cfa -64 + ^
STACK CFI 12708 .cfa: sp 384 +
STACK CFI 1271c .cfa: sp 0 +
STACK CFI 12720 .cfa: x29 64 +
STACK CFI INIT 12760 12c .cfa: sp 0 +
STACK CFI 12764 .cfa: sp 80 +
STACK CFI 12778 .cfa: x29 80 + x19: .cfa -8 + ^ x20: .cfa -16 + ^ x21: .cfa -24 + ^ x22: .cfa -32 + ^ x23: .cfa -40 + ^ x24: .cfa -48 + ^ x25: .cfa -56 + ^ x26: .cfa -64 + ^ .ra: .cfa -72 + ^ x29: .cfa -80 + ^
STACK CFI 12840 .cfa: sp 80 +
STACK CFI 12854 .cfa: sp 0 +
STACK CFI 12858 .cfa: x29 80 +
STACK CFI INIT 1290c 1a4 .cfa: sp 0 +
STACK CFI 12910 .cfa: sp 112 +
STACK CFI 12928 .cfa: x29 80 + x19: .cfa -8 + ^ x20: .cfa -16 + ^ x21: .cfa -24 + ^ x22: .cfa -32 + ^ x23: .cfa -40 + ^ x24: .cfa -48 + ^ x25: .cfa -56 + ^ x26: .cfa -64 + ^ .ra: .cfa -72 + ^ x29: .cfa -80 + ^
STACK CFI 12a18 .cfa: sp 112 +
STACK CFI 12a30 .cfa: sp 0 +
STACK CFI 12a34 .cfa: x29 80 +
STACK CFI INIT 12ab0 1dc .cfa: sp 0 +
STACK CFI 12ab4 .cfa: sp 128 +
STACK CFI 12ad0 .cfa: x29 96 + x19: .cfa -8 + ^ x20: .cfa -16 + ^ x21: .cfa -24 + ^ x22: .cfa -32 + ^ x23: .cfa -40 + ^ x24: .cfa -48 + ^ x25: .cfa -56 + ^ x26: .cfa -64 + ^ x27: .cfa -80 + ^ .ra: .cfa -88 + ^ x29: .cfa -96 + ^
STACK CFI 12c3c .cfa: sp 128 +
STACK CFI 12c58 .cfa: sp 0 +
STACK CFI 12c5c .cfa: x29 96 +
STACK CFI INIT 12c8c 178 .cfa: sp 0 +
STACK CFI 12c90 .cfa: sp 80 +
STACK CFI 12ca4 .cfa: x29 80 + x19: .cfa -8 + ^ x20: .cfa -16 + ^ x21: .cfa -24 + ^ x22: .cfa -32 + ^ x23: .cfa -40 + ^ x24: .cfa -48 + ^ x25: .cfa -64 + ^ .ra: .cfa -72 + ^ x29: .cfa -80 + ^
STACK CFI 12dd0 .cfa: sp 80 +
STACK CFI 12de4 .cfa: sp 0 +
STACK CFI 12de8 .cfa: x29 80 +
STACK CFI INIT 12f4c 228 .cfa: sp 0 +
STACK CFI 12f50 .cfa: sp 128 +
STACK CFI 12f68 .cfa: x29 80 + x19: .cfa -8 + ^ x20: .cfa -16 + ^ x21: .cfa -24 + ^ x22: .cfa -32 + ^ x23: .cfa -40 + ^ x24: .cfa -48 + ^ x25: .cfa -64 + ^ .ra: .cfa -72 + ^ x29: .cfa -80 + ^
STACK CFI 13104 .cfa: sp 128 +
STACK CFI 1311c .cfa: sp 0 +
STACK CFI 13120 .cfa: x29 80 +
STACK CFI INIT 13730 184 .cfa: sp 0 +
STACK CFI 13734 .cfa: sp 144 +
STACK CFI 1374c .cfa: x29 80 + x19: .cfa -8 + ^ x20: .cfa -16 + ^ x21: .cfa -24 + ^ x22: .cfa -32 + ^ x23: .cfa -40 + ^ x24: .cfa -48 + ^ x25: .cfa -56 + ^ x26: .cfa -64 + ^ .ra: .cfa -72 + ^ x29: .cfa -80 + ^
STACK CFI 1384c .cfa: sp 144 +
STACK CFI 13864 .cfa: sp 0 +
STACK CFI 13868 .cfa: x29 80 +
STACK CFI INIT 138fc 1554 .cfa: sp 0 +
STACK CFI 13900 .cfa: sp 112 +
STACK CFI 1391c .cfa: x29 96 + x19: .cfa -8 + ^ x20: .cfa -16 + ^ x21: .cfa -24 + ^ x22: .cfa -32 + ^ x23: .cfa -40 + ^ x24: .cfa -48 + ^ x25: .cfa -56 + ^ x26: .cfa -64 + ^ x27: .cfa -72 + ^ x28: .cfa -80 + ^ .ra: .cfa -88 + ^ x29: .cfa -96 + ^ v8: .cfa -104 + ^ v9: .cfa -112 + ^
STACK CFI 1480c .cfa: sp 112 +
STACK CFI 14828 .cfa: sp 0 +
STACK CFI 1482c .cfa: x29 96 +
STACK CFI INIT 1507c 968 .cfa: sp 0 +
STACK CFI 15080 .cfa: sp 320 +
STACK CFI 1509c .cfa: x29 96 + x19: .cfa -8 + ^ x20: .cfa -16 + ^ x21: .cfa -24 + ^ x22: .cfa -32 + ^ x23: .cfa -40 + ^ x24: .cfa -48 + ^ x25: .cfa -56 + ^ x26: .cfa -64 + ^ x27: .cfa -72 + ^ x28: .cfa -80 + ^ .ra: .cfa -88 + ^ x29: .cfa -96 + ^
STACK CFI 15394 .cfa: sp 320 +
STACK CFI 153b0 .cfa: sp 0 +
STACK CFI 153b4 .cfa: x29 96 +
STACK CFI 156fc .cfa: sp 320 +
STACK CFI 15718 .cfa: sp 0 +
STACK CFI 1571c .cfa: x29 96 +
STACK CFI INIT 15a00 7f4 .cfa: sp 0 +
STACK CFI 15a04 .cfa: sp 272 +
STACK CFI 15a1c .cfa: x29 80 + x19: .cfa -8 + ^ x20: .cfa -16 + ^ x21: .cfa -24 + ^ x22: .cfa -32 + ^ x23: .cfa -40 + ^ x24: .cfa -48 + ^ x25: .cfa -56 + ^ x28: .cfa -64 + ^ .ra: .cfa -72 + ^ x29: .cfa -80 + ^
STACK CFI 15fa4 .cfa: sp 272 +
STACK CFI 15fbc .cfa: sp 0 +
STACK CFI 15fc0 .cfa: x29 80 +
STACK CFI INIT 161f8 1b0 .cfa: sp 0 +
STACK CFI 161fc .cfa: sp 112 +
STACK CFI 16210 .cfa: x29 64 + x19: .cfa -8 + ^ x20: .cfa -16 + ^ x21: .cfa -24 + ^ x22: .cfa -32 + ^ x23: .cfa -48 + ^ .ra: .cfa -56 + ^ x29: .cfa -64 + ^
STACK CFI 162f8 .cfa: sp 112 +
STACK CFI 1630c .cfa: sp 0 +
STACK CFI 16310 .cfa: x29 64 +
STACK CFI INIT 163a8 f4 .cfa: sp 0 +
STACK CFI 163ac .cfa: sp 48 +
STACK CFI 163b8 .cfa: x29 48 + x19: .cfa -8 + ^ x20: .cfa -16 + ^ x21: .cfa -32 + ^ .ra: .cfa -40 + ^ x29: .cfa -48 + ^
STACK CFI 16424 .cfa: sp 48 +
STACK CFI 16430 .cfa: sp 0 +
STACK CFI 16434 .cfa: x29 48 +
STACK CFI INIT 16558 500 .cfa: sp 0 +
STACK CFI 1655c .cfa: sp 160 +
STACK CFI 1656c .cfa: x29 48 + x19: .cfa -8 + ^ x20: .cfa -16 + ^ x21: .cfa -24 + ^ x22: .cfa -32 + ^ .ra: .cfa -40 + ^ x29: .cfa -48 + ^
STACK CFI 1682c .cfa: sp 160 +
STACK CFI 1683c .cfa: sp 0 +
STACK CFI 16840 .cfa: x29 48 +
STACK CFI 16888 .cfa: sp 160 +
STACK CFI 16898 .cfa: sp 0 +
STACK CFI 1689c .cfa: x29 48 +
STACK CFI INIT 16ad4 174 .cfa: sp 0 +
STACK CFI 16ad8 .cfa: sp 112 +
STACK CFI 16ae8 .cfa: x29 48 + x19: .cfa -8 + ^ x20: .cfa -16 + ^ x21: .cfa -32 + ^ .ra: .cfa -40 + ^ x29: .cfa -48 + ^
STACK CFI 16be4 .cfa: sp 112 +
STACK CFI 16bf4 .cfa: sp 0 +
STACK CFI 16bf8 .cfa: x29 48 +
STACK CFI INIT 16ed8 1c4 .cfa: sp 0 +
STACK CFI 16edc .cfa: sp 160 +
STACK CFI 16ef4 .cfa: x29 80 + x19: .cfa -8 + ^ x20: .cfa -16 + ^ x21: .cfa -24 + ^ x22: .cfa -32 + ^ x23: .cfa -40 + ^ x24: .cfa -48 + ^ x25: .cfa -56 + ^ x26: .cfa -64 + ^ .ra: .cfa -72 + ^ x29: .cfa -80 + ^
STACK CFI 17028 .cfa: sp 160 +
STACK CFI 17040 .cfa: sp 0 +
STACK CFI 17044 .cfa: x29 80 +
STACK CFI INIT 1710c a8 .cfa: sp 0 +
STACK CFI 17110 .cfa: sp 32 +
STACK CFI 17118 .cfa: x29 32 + x19: .cfa -16 + ^ .ra: .cfa -24 + ^ x29: .cfa -32 + ^
STACK CFI 1714c .cfa: sp 32 +
STACK CFI 17154 .cfa: sp 0 +
STACK CFI 17158 .cfa: x29 32 +
STACK CFI 1715c .cfa: sp 32 +
STACK CFI 17164 .cfa: sp 0 +
STACK CFI 17168 .cfa: x29 32 +
STACK CFI INIT 17254 cc .cfa: sp 0 +
STACK CFI 17258 .cfa: sp 48 +
STACK CFI 17264 .cfa: x29 48 + x19: .cfa -8 + ^ x20: .cfa -16 + ^ x21: .cfa -24 + ^ x22: .cfa -32 + ^ .ra: .cfa -40 + ^ x29: .cfa -48 + ^
STACK CFI 172b0 .cfa: sp 48 +
STACK CFI 172bc .cfa: sp 0 +
STACK CFI 172c0 .cfa: x29 48 +
STACK CFI 172c4 .cfa: sp 48 +
STACK CFI 172d0 .cfa: sp 0 +
STACK CFI 172d4 .cfa: x29 48 +
STACK CFI INIT 17320 968 .cfa: sp 0 +
STACK CFI 17324 .cfa: sp 320 +
STACK CFI 17340 .cfa: x29 96 + x19: .cfa -8 + ^ x20: .cfa -16 + ^ x21: .cfa -24 + ^ x22: .cfa -32 + ^ x23: .cfa -40 + ^ x24: .cfa -48 + ^ x25: .cfa -56 + ^ x26: .cfa -64 + ^ x27: .cfa -72 + ^ x28: .cfa -80 + ^ .ra: .cfa -88 + ^ x29: .cfa -96 + ^
STACK CFI 17638 .cfa: sp 320 +
STACK CFI 17654 .cfa: sp 0 +
STACK CFI 17658 .cfa: x29 96 +
STACK CFI 179a0 .cfa: sp 320 +
STACK CFI 179bc .cfa: sp 0 +
STACK CFI 179c0 .cfa: x29 96 +
STACK CFI INIT 17ca4 7f4 .cfa: sp 0 +
STACK CFI 17ca8 .cfa: sp 272 +
STACK CFI 17cc0 .cfa: x29 80 + x19: .cfa -8 + ^ x20: .cfa -16 + ^ x21: .cfa -24 + ^ x22: .cfa -32 + ^ x23: .cfa -40 + ^ x24: .cfa -48 + ^ x25: .cfa -56 + ^ x28: .cfa -64 + ^ .ra: .cfa -72 + ^ x29: .cfa -80 + ^
STACK CFI 18248 .cfa: sp 272 +
STACK CFI 18260 .cfa: sp 0 +
STACK CFI 18264 .cfa: x29 80 +
STACK CFI INIT 1849c 1b0 .cfa: sp 0 +
STACK CFI 184a0 .cfa: sp 112 +
STACK CFI 184b4 .cfa: x29 64 + x19: .cfa -8 + ^ x20: .cfa -16 + ^ x21: .cfa -24 + ^ x22: .cfa -32 + ^ x23: .cfa -48 + ^ .ra: .cfa -56 + ^ x29: .cfa -64 + ^
STACK CFI 1859c .cfa: sp 112 +
STACK CFI 185b0 .cfa: sp 0 +
STACK CFI 185b4 .cfa: x29 64 +
STACK CFI INIT 186b8 500 .cfa: sp 0 +
STACK CFI 186bc .cfa: sp 160 +
STACK CFI 186cc .cfa: x29 48 + x19: .cfa -8 + ^ x20: .cfa -16 + ^ x21: .cfa -24 + ^ x22: .cfa -32 + ^ .ra: .cfa -40 + ^ x29: .cfa -48 + ^
STACK CFI 1898c .cfa: sp 160 +
STACK CFI 1899c .cfa: sp 0 +
STACK CFI 189a0 .cfa: x29 48 +
STACK CFI 189e8 .cfa: sp 160 +
STACK CFI 189f8 .cfa: sp 0 +
STACK CFI 189fc .cfa: x29 48 +
STACK CFI INIT 18c2c 1c4 .cfa: sp 0 +
STACK CFI 18c30 .cfa: sp 160 +
STACK CFI 18c48 .cfa: x29 80 + x19: .cfa -8 + ^ x20: .cfa -16 + ^ x21: .cfa -24 + ^ x22: .cfa -32 + ^ x23: .cfa -40 + ^ x24: .cfa -48 + ^ x25: .cfa -56 + ^ x26: .cfa -64 + ^ .ra: .cfa -72 + ^ x29: .cfa -80 + ^
STACK CFI 18d7c .cfa: sp 160 +
STACK CFI 18d94 .cfa: sp 0 +
STACK CFI 18d98 .cfa: x29 80 +
STACK CFI INIT 18e60 a8 .cfa: sp 0 +
STACK CFI 18e64 .cfa: sp 32 +
STACK CFI 18e6c .cfa: x29 32 + x19: .cfa -16 + ^ .ra: .cfa -24 + ^ x29: .cfa -32 + ^
STACK CFI 18ea0 .cfa: sp 32 +
STACK CFI 18ea8 .cfa: sp 0 +
STACK CFI 18eac .cfa: x29 32 +
STACK CFI 18eb0 .cfa: sp 32 +
STACK CFI 18eb8 .cfa: sp 0 +
STACK CFI 18ebc .cfa: x29 32 +
STACK CFI INIT 18f7c cc .cfa: sp 0 +
STACK CFI 18f80 .cfa: sp 48 +
STACK CFI 18f8c .cfa: x29 48 + x19: .cfa -8 + ^ x20: .cfa -16 + ^ x21: .cfa -24 + ^ x22: .cfa -32 + ^ .ra: .cfa -40 + ^ x29: .cfa -48 + ^
STACK CFI 18fd8 .cfa: sp 48 +
STACK CFI 18fe4 .cfa: sp 0 +
STACK CFI 18fe8 .cfa: x29 48 +
STACK CFI 18fec .cfa: sp 48 +
STACK CFI 18ff8 .cfa: sp 0 +
STACK CFI 18ffc .cfa: x29 48 +
STACK CFI INIT 19048 968 .cfa: sp 0 +
STACK CFI 1904c .cfa: sp 320 +
STACK CFI 19068 .cfa: x29 96 + x19: .cfa -8 + ^ x20: .cfa -16 + ^ x21: .cfa -24 + ^ x22: .cfa -32 + ^ x23: .cfa -40 + ^ x24: .cfa -48 + ^ x25: .cfa -56 + ^ x26: .cfa -64 + ^ x27: .cfa -72 + ^ x28: .cfa -80 + ^ .ra: .cfa -88 + ^ x29: .cfa -96 + ^
STACK CFI 19360 .cfa: sp 320 +
STACK CFI 1937c .cfa: sp 0 +
STACK CFI 19380 .cfa: x29 96 +
STACK CFI 196c8 .cfa: sp 320 +
STACK CFI 196e4 .cfa: sp 0 +
STACK CFI 196e8 .cfa: x29 96 +
STACK CFI INIT 199cc 7d0 .cfa: sp 0 +
STACK CFI 199d0 .cfa: sp 272 +
STACK CFI 199e8 .cfa: x29 80 + x19: .cfa -8 + ^ x20: .cfa -16 + ^ x21: .cfa -24 + ^ x22: .cfa -32 + ^ x23: .cfa -40 + ^ x24: .cfa -48 + ^ x25: .cfa -56 + ^ x28: .cfa -64 + ^ .ra: .cfa -72 + ^ x29: .cfa -80 + ^
STACK CFI 19f4c .cfa: sp 272 +
STACK CFI 19f64 .cfa: sp 0 +
STACK CFI 19f68 .cfa: x29 80 +
STACK CFI INIT 1a1a0 1b0 .cfa: sp 0 +
STACK CFI 1a1a4 .cfa: sp 112 +
STACK CFI 1a1b8 .cfa: x29 64 + x19: .cfa -8 + ^ x20: .cfa -16 + ^ x21: .cfa -24 + ^ x22: .cfa -32 + ^ x23: .cfa -48 + ^ .ra: .cfa -56 + ^ x29: .cfa -64 + ^
STACK CFI 1a2a0 .cfa: sp 112 +
STACK CFI 1a2b4 .cfa: sp 0 +
STACK CFI 1a2b8 .cfa: x29 64 +
STACK CFI INIT 1a3bc 500 .cfa: sp 0 +
STACK CFI 1a3c0 .cfa: sp 160 +
STACK CFI 1a3d0 .cfa: x29 48 + x19: .cfa -8 + ^ x20: .cfa -16 + ^ x21: .cfa -24 + ^ x22: .cfa -32 + ^ .ra: .cfa -40 + ^ x29: .cfa -48 + ^
STACK CFI 1a690 .cfa: sp 160 +
STACK CFI 1a6a0 .cfa: sp 0 +
STACK CFI 1a6a4 .cfa: x29 48 +
STACK CFI 1a6ec .cfa: sp 160 +
STACK CFI 1a6fc .cfa: sp 0 +
STACK CFI 1a700 .cfa: x29 48 +
STACK CFI INIT 1a930 1c4 .cfa: sp 0 +
STACK CFI 1a934 .cfa: sp 160 +
STACK CFI 1a94c .cfa: x29 80 + x19: .cfa -8 + ^ x20: .cfa -16 + ^ x21: .cfa -24 + ^ x22: .cfa -32 + ^ x23: .cfa -40 + ^ x24: .cfa -48 + ^ x25: .cfa -56 + ^ x26: .cfa -64 + ^ .ra: .cfa -72 + ^ x29: .cfa -80 + ^
STACK CFI 1aa80 .cfa: sp 160 +
STACK CFI 1aa98 .cfa: sp 0 +
STACK CFI 1aa9c .cfa: x29 80 +
STACK CFI INIT 1ab64 a8 .cfa: sp 0 +
STACK CFI 1ab68 .cfa: sp 32 +
STACK CFI 1ab70 .cfa: x29 32 + x19: .cfa -16 + ^ .ra: .cfa -24 + ^ x29: .cfa -32 + ^
STACK CFI 1aba4 .cfa: sp 32 +
STACK CFI 1abac .cfa: sp 0 +
STACK CFI 1abb0 .cfa: x29 32 +
STACK CFI 1abb4 .cfa: sp 32 +
STACK CFI 1abbc .cfa: sp 0 +
STACK CFI 1abc0 .cfa: x29 32 +
STACK CFI INIT 1ac98 cc .cfa: sp 0 +
STACK CFI 1ac9c .cfa: sp 48 +
STACK CFI 1aca8 .cfa: x29 48 + x19: .cfa -8 + ^ x20: .cfa -16 + ^ x21: .cfa -24 + ^ x22: .cfa -32 + ^ .ra: .cfa -40 + ^ x29: .cfa -48 + ^
STACK CFI 1acf4 .cfa: sp 48 +
STACK CFI 1ad00 .cfa: sp 0 +
STACK CFI 1ad04 .cfa: x29 48 +
STACK CFI 1ad08 .cfa: sp 48 +
STACK CFI 1ad14 .cfa: sp 0 +
STACK CFI 1ad18 .cfa: x29 48 +
STACK CFI INIT 1ad80 e0 .cfa: sp 0 +
STACK CFI 1ad84 .cfa: sp 64 +
STACK CFI 1ad90 .cfa: x29 32 + x19: .cfa -16 + ^ .ra: .cfa -24 + ^ x29: .cfa -32 + ^
STACK CFI 1adcc .cfa: sp 64 +
STACK CFI 1add8 .cfa: sp 0 +
STACK CFI 1addc .cfa: x29 32 +
STACK CFI INIT 1ae60 e0 .cfa: sp 0 +
STACK CFI 1ae64 .cfa: sp 64 +
STACK CFI 1ae70 .cfa: x29 32 + x19: .cfa -16 + ^ .ra: .cfa -24 + ^ x29: .cfa -32 + ^
STACK CFI 1aeac .cfa: sp 64 +
STACK CFI 1aeb8 .cfa: sp 0 +
STACK CFI 1aebc .cfa: x29 32 +
STACK CFI INIT 1af40 e0 .cfa: sp 0 +
STACK CFI 1af44 .cfa: sp 64 +
STACK CFI 1af50 .cfa: x29 32 + x19: .cfa -16 + ^ .ra: .cfa -24 + ^ x29: .cfa -32 + ^
STACK CFI 1af8c .cfa: sp 64 +
STACK CFI 1af98 .cfa: sp 0 +
STACK CFI 1af9c .cfa: x29 32 +
STACK CFI INIT 1b020 3c8 .cfa: sp 0 +
STACK CFI 1b024 .cfa: sp 64 +
STACK CFI 1b034 .cfa: x29 48 + x19: .cfa -8 + ^ x20: .cfa -16 + ^ x21: .cfa -32 + ^ .ra: .cfa -40 + ^ x29: .cfa -48 + ^
STACK CFI 1b118 .cfa: sp 64 +
STACK CFI 1b128 .cfa: sp 0 +
STACK CFI 1b12c .cfa: x29 48 +
STACK CFI INIT 1b3ec 174 .cfa: sp 0 +
STACK CFI 1b3f0 .cfa: sp 112 +
STACK CFI 1b400 .cfa: x29 48 + x19: .cfa -8 + ^ x20: .cfa -16 + ^ x21: .cfa -32 + ^ .ra: .cfa -40 + ^ x29: .cfa -48 + ^
STACK CFI 1b4fc .cfa: sp 112 +
STACK CFI 1b50c .cfa: sp 0 +
STACK CFI 1b510 .cfa: x29 48 +
STACK CFI INIT 1b6b0 1b8 .cfa: sp 0 +
STACK CFI 1b6b4 .cfa: sp 176 +
STACK CFI 1b6c4 .cfa: x29 48 + x19: .cfa -8 + ^ x20: .cfa -16 + ^ x21: .cfa -32 + ^ .ra: .cfa -40 + ^ x29: .cfa -48 + ^
STACK CFI 1b7d4 .cfa: sp 176 +
STACK CFI 1b7e4 .cfa: sp 0 +
STACK CFI 1b7e8 .cfa: x29 48 +
STACK CFI INIT 1ba58 1bc .cfa: sp 0 +
STACK CFI 1ba5c .cfa: sp 176 +
STACK CFI 1ba6c .cfa: x29 48 + x19: .cfa -8 + ^ x20: .cfa -16 + ^ x21: .cfa -32 + ^ .ra: .cfa -40 + ^ x29: .cfa -48 + ^
STACK CFI 1bb80 .cfa: sp 176 +
STACK CFI 1bb90 .cfa: sp 0 +
STACK CFI 1bb94 .cfa: x29 48 +
STACK CFI INIT 1bd5c 1bc .cfa: sp 0 +
STACK CFI 1bd60 .cfa: sp 176 +
STACK CFI 1bd70 .cfa: x29 48 + x19: .cfa -8 + ^ x20: .cfa -16 + ^ x21: .cfa -32 + ^ .ra: .cfa -40 + ^ x29: .cfa -48 + ^
STACK CFI 1be84 .cfa: sp 176 +
STACK CFI 1be94 .cfa: sp 0 +
STACK CFI 1be98 .cfa: x29 48 +
STACK CFI INIT 1c060 1b4 .cfa: sp 0 +
STACK CFI 1c064 .cfa: sp 176 +
STACK CFI 1c074 .cfa: x29 48 + x19: .cfa -8 + ^ x20: .cfa -16 + ^ x21: .cfa -32 + ^ .ra: .cfa -40 + ^ x29: .cfa -48 + ^
STACK CFI 1c180 .cfa: sp 176 +
STACK CFI 1c190 .cfa: sp 0 +
STACK CFI 1c194 .cfa: x29 48 +
STACK CFI INIT 1c35c 1c0 .cfa: sp 0 +
STACK CFI 1c360 .cfa: sp 176 +
STACK CFI 1c370 .cfa: x29 48 + x19: .cfa -8 + ^ x20: .cfa -16 + ^ x21: .cfa -32 + ^ .ra: .cfa -40 + ^ x29: .cfa -48 + ^
STACK CFI 1c488 .cfa: sp 176 +
STACK CFI 1c498 .cfa: sp 0 +
STACK CFI 1c49c .cfa: x29 48 +
STACK CFI INIT 1c664 1d4 .cfa: sp 0 +
STACK CFI 1c668 .cfa: sp 176 +
STACK CFI 1c678 .cfa: x29 48 + x19: .cfa -8 + ^ x20: .cfa -16 + ^ x21: .cfa -32 + ^ .ra: .cfa -40 + ^ x29: .cfa -48 + ^
STACK CFI 1c794 .cfa: sp 176 +
STACK CFI 1c7a4 .cfa: sp 0 +
STACK CFI 1c7a8 .cfa: x29 48 +
STACK CFI INIT 1c980 1b4 .cfa: sp 0 +
STACK CFI 1c984 .cfa: sp 176 +
STACK CFI 1c994 .cfa: x29 48 + x19: .cfa -8 + ^ x20: .cfa -16 + ^ x21: .cfa -32 + ^ .ra: .cfa -40 + ^ x29: .cfa -48 + ^
STACK CFI 1caa0 .cfa: sp 176 +
STACK CFI 1cab0 .cfa: sp 0 +
STACK CFI 1cab4 .cfa: x29 48 +
STACK CFI INIT 1cc7c 1b8 .cfa: sp 0 +
STACK CFI 1cc80 .cfa: sp 176 +
STACK CFI 1cc90 .cfa: x29 48 + x19: .cfa -8 + ^ x20: .cfa -16 + ^ x21: .cfa -32 + ^ .ra: .cfa -40 + ^ x29: .cfa -48 + ^
STACK CFI 1cda0 .cfa: sp 176 +
STACK CFI 1cdb0 .cfa: sp 0 +
STACK CFI 1cdb4 .cfa: x29 48 +
STACK CFI INIT 1cf7c 1b4 .cfa: sp 0 +
STACK CFI 1cf80 .cfa: sp 176 +
STACK CFI 1cf90 .cfa: x29 48 + x19: .cfa -8 + ^ x20: .cfa -16 + ^ x21: .cfa -32 + ^ .ra: .cfa -40 + ^ x29: .cfa -48 + ^
STACK CFI 1d09c .cfa: sp 176 +
STACK CFI 1d0ac .cfa: sp 0 +
STACK CFI 1d0b0 .cfa: x29 48 +
STACK CFI INIT 1d278 1b8 .cfa: sp 0 +
STACK CFI 1d27c .cfa: sp 176 +
STACK CFI 1d28c .cfa: x29 48 + x19: .cfa -8 + ^ x20: .cfa -16 + ^ x21: .cfa -32 + ^ .ra: .cfa -40 + ^ x29: .cfa -48 + ^
STACK CFI 1d39c .cfa: sp 176 +
STACK CFI 1d3ac .cfa: sp 0 +
STACK CFI 1d3b0 .cfa: x29 48 +
STACK CFI INIT 1d578 12c .cfa: sp 0 +
STACK CFI 1d57c .cfa: sp 80 +
STACK CFI 1d58c .cfa: x29 48 + x19: .cfa -8 + ^ x20: .cfa -16 + ^ x21: .cfa -32 + ^ .ra: .cfa -40 + ^ x29: .cfa -48 + ^
STACK CFI 1d624 .cfa: sp 80 +
STACK CFI 1d634 .cfa: sp 0 +
STACK CFI 1d638 .cfa: x29 48 +
STACK CFI INIT 1d6e0 134 .cfa: sp 0 +
STACK CFI 1d6e4 .cfa: sp 80 +
STACK CFI 1d6f0 .cfa: x29 32 + x19: .cfa -8 + ^ x20: .cfa -16 + ^ .ra: .cfa -24 + ^ x29: .cfa -32 + ^
STACK CFI 1d720 .cfa: sp 80 +
STACK CFI 1d72c .cfa: sp 0 +
STACK CFI 1d730 .cfa: x29 32 +
STACK CFI INIT 1d814 78 .cfa: sp 0 +
STACK CFI 1d818 .cfa: sp 32 +
STACK CFI 1d820 .cfa: x29 32 + x19: .cfa -8 + ^ x20: .cfa -16 + ^ .ra: .cfa -24 + ^ x29: .cfa -32 + ^
STACK CFI 1d82c .cfa: sp 32 +
STACK CFI 1d834 .cfa: sp 0 +
STACK CFI 1d838 .cfa: x29 32 +
STACK CFI INIT 1d88c 74 .cfa: sp 0 +
STACK CFI 1d890 .cfa: sp 48 +
STACK CFI 1d89c .cfa: x29 32 + x19: .cfa -8 + ^ x20: .cfa -16 + ^ .ra: .cfa -24 + ^ x29: .cfa -32 + ^
STACK CFI 1d8e8 .cfa: sp 48 +
STACK CFI 1d8f4 .cfa: sp 0 +
STACK CFI 1d8f8 .cfa: x29 32 +
STACK CFI INIT 1d964 150 .cfa: sp 0 +
STACK CFI 1d968 .cfa: sp 128 +
STACK CFI 1d978 .cfa: x29 48 + x19: .cfa -8 + ^ x20: .cfa -16 + ^ x21: .cfa -24 + ^ x22: .cfa -32 + ^ .ra: .cfa -40 + ^ x29: .cfa -48 + ^
STACK CFI 1d9c0 .cfa: sp 128 +
STACK CFI 1d9d0 .cfa: sp 0 +
STACK CFI 1d9d4 .cfa: x29 48 +
STACK CFI INIT 1dab4 a8 .cfa: sp 0 +
STACK CFI 1dab8 .cfa: sp 64 +
STACK CFI 1dac8 .cfa: x29 48 + x19: .cfa -8 + ^ x20: .cfa -16 + ^ x21: .cfa -32 + ^ .ra: .cfa -40 + ^ x29: .cfa -48 + ^
STACK CFI 1db30 .cfa: sp 64 +
STACK CFI 1db40 .cfa: sp 0 +
STACK CFI 1db44 .cfa: x29 48 +
STACK CFI INIT 1db5c 154 .cfa: sp 0 +
STACK CFI 1db60 .cfa: sp 384 +
STACK CFI 1db74 .cfa: x29 64 + x19: .cfa -8 + ^ x20: .cfa -16 + ^ x21: .cfa -24 + ^ x22: .cfa -32 + ^ x23: .cfa -40 + ^ x28: .cfa -48 + ^ .ra: .cfa -56 + ^ x29: .cfa -64 + ^
STACK CFI 1dc58 .cfa: sp 384 +
STACK CFI 1dc6c .cfa: sp 0 +
STACK CFI 1dc70 .cfa: x29 64 +
STACK CFI INIT 1dcb0 168 .cfa: sp 0 +
STACK CFI 1dcb4 .cfa: sp 384 +
STACK CFI 1dcc8 .cfa: x29 64 + x19: .cfa -8 + ^ x20: .cfa -16 + ^ x21: .cfa -24 + ^ x22: .cfa -32 + ^ x23: .cfa -40 + ^ x28: .cfa -48 + ^ .ra: .cfa -56 + ^ x29: .cfa -64 + ^
STACK CFI 1ddc0 .cfa: sp 384 +
STACK CFI 1ddd4 .cfa: sp 0 +
STACK CFI 1ddd8 .cfa: x29 64 +
STACK CFI INIT 1e160 294 .cfa: sp 0 +
STACK CFI 1e164 .cfa: sp 240 +
STACK CFI 1e17c .cfa: x29 80 + x19: .cfa -8 + ^ x20: .cfa -16 + ^ x21: .cfa -24 + ^ x22: .cfa -32 + ^ x23: .cfa -40 + ^ x24: .cfa -48 + ^ x25: .cfa -64 + ^ .ra: .cfa -72 + ^ x29: .cfa -80 + ^
STACK CFI 1e31c .cfa: sp 240 +
STACK CFI 1e334 .cfa: sp 0 +
STACK CFI 1e338 .cfa: x29 80 +
STACK CFI INIT 1e470 50 .cfa: sp 0 +
STACK CFI 1e474 .cfa: sp 32 +
STACK CFI 1e47c .cfa: x29 32 + x19: .cfa -8 + ^ x20: .cfa -16 + ^ .ra: .cfa -24 + ^ x29: .cfa -32 + ^
STACK CFI INIT 1e4ec 7c0 .cfa: sp 0 +
STACK CFI 1e4f0 .cfa: sp 320 +
STACK CFI 1e50c .cfa: x29 96 + x19: .cfa -8 + ^ x20: .cfa -16 + ^ x21: .cfa -24 + ^ x22: .cfa -32 + ^ x23: .cfa -40 + ^ x24: .cfa -48 + ^ x25: .cfa -56 + ^ x26: .cfa -64 + ^ x27: .cfa -72 + ^ x28: .cfa -80 + ^ .ra: .cfa -88 + ^ x29: .cfa -96 + ^
STACK CFI 1eb5c .cfa: sp 320 +
STACK CFI 1eb78 .cfa: sp 0 +
STACK CFI 1eb7c .cfa: x29 96 +
STACK CFI INIT 2302c c74 .cfa: sp 0 +
STACK CFI 23030 .cfa: sp 96 +
STACK CFI 23048 .cfa: x29 96 + x19: .cfa -8 + ^ x20: .cfa -16 + ^ x21: .cfa -24 + ^ x22: .cfa -32 + ^ x23: .cfa -40 + ^ x24: .cfa -48 + ^ x25: .cfa -56 + ^ x26: .cfa -64 + ^ x27: .cfa -72 + ^ x28: .cfa -80 + ^ .ra: .cfa -88 + ^ x29: .cfa -96 + ^
STACK CFI 23ac0 .cfa: sp 96 +
STACK CFI 23ad8 .cfa: sp 0 +
STACK CFI 23adc .cfa: x29 96 +
STACK CFI INIT 23df4 26c .cfa: sp 0 +
STACK CFI 23df8 .cfa: sp 128 +
STACK CFI 23e08 .cfa: x29 48 + x19: .cfa -8 + ^ x20: .cfa -16 + ^ x21: .cfa -24 + ^ x22: .cfa -32 + ^ .ra: .cfa -40 + ^ x29: .cfa -48 + ^
STACK CFI 23fac .cfa: sp 128 +
STACK CFI 23fbc .cfa: sp 0 +
STACK CFI 23fc0 .cfa: x29 48 +
STACK CFI INIT 245ac 3b8 .cfa: sp 0 +
STACK CFI 245b0 .cfa: sp 96 +
STACK CFI 245c8 .cfa: x29 96 + x19: .cfa -8 + ^ x20: .cfa -16 + ^ x21: .cfa -24 + ^ x22: .cfa -32 + ^ x23: .cfa -40 + ^ x24: .cfa -48 + ^ x25: .cfa -56 + ^ x26: .cfa -64 + ^ x27: .cfa -72 + ^ x28: .cfa -80 + ^ .ra: .cfa -88 + ^ x29: .cfa -96 + ^
STACK CFI 24904 .cfa: sp 96 +
STACK CFI 2491c .cfa: sp 0 +
STACK CFI 24920 .cfa: x29 96 +
STACK CFI INIT 24a04 cb4 .cfa: sp 0 +
STACK CFI 24a08 .cfa: sp 96 +
STACK CFI 24a20 .cfa: x29 96 + x19: .cfa -8 + ^ x20: .cfa -16 + ^ x21: .cfa -24 + ^ x22: .cfa -32 + ^ x23: .cfa -40 + ^ x24: .cfa -48 + ^ x25: .cfa -56 + ^ x26: .cfa -64 + ^ x27: .cfa -72 + ^ x28: .cfa -80 + ^ .ra: .cfa -88 + ^ x29: .cfa -96 + ^
STACK CFI 254c8 .cfa: sp 96 +
STACK CFI 254e0 .cfa: sp 0 +
STACK CFI 254e4 .cfa: x29 96 +
STACK CFI INIT 259a0 afc .cfa: sp 0 +
STACK CFI 259a4 .cfa: sp 96 +
STACK CFI 259bc .cfa: x29 96 + x19: .cfa -8 + ^ x20: .cfa -16 + ^ x21: .cfa -24 + ^ x22: .cfa -32 + ^ x23: .cfa -40 + ^ x24: .cfa -48 + ^ x25: .cfa -56 + ^ x26: .cfa -64 + ^ x27: .cfa -72 + ^ x28: .cfa -80 + ^ .ra: .cfa -88 + ^ x29: .cfa -96 + ^
STACK CFI 26410 .cfa: sp 96 +
STACK CFI 26428 .cfa: sp 0 +
STACK CFI 2642c .cfa: x29 96 +
STACK CFI INIT 26678 1430 .cfa: sp 0 +
STACK CFI 2667c .cfa: sp 96 +
STACK CFI 26694 .cfa: x29 96 + x19: .cfa -8 + ^ x20: .cfa -16 + ^ x21: .cfa -24 + ^ x22: .cfa -32 + ^ x23: .cfa -40 + ^ x24: .cfa -48 + ^ x25: .cfa -56 + ^ x26: .cfa -64 + ^ x27: .cfa -72 + ^ x28: .cfa -80 + ^ .ra: .cfa -88 + ^ x29: .cfa -96 + ^
STACK CFI 27930 .cfa: sp 96 +
STACK CFI 27948 .cfa: sp 0 +
STACK CFI 2794c .cfa: x29 96 +
STACK CFI INIT 27bcc 75c .cfa: sp 0 +
STACK CFI 27bd0 .cfa: sp 368 +
STACK CFI 27bec .cfa: x29 96 + x19: .cfa -8 + ^ x20: .cfa -16 + ^ x21: .cfa -24 + ^ x22: .cfa -32 + ^ x23: .cfa -40 + ^ x24: .cfa -48 + ^ x25: .cfa -56 + ^ x26: .cfa -64 + ^ x27: .cfa -72 + ^ x28: .cfa -80 + ^ .ra: .cfa -88 + ^ x29: .cfa -96 + ^
STACK CFI 27ca0 .cfa: sp 368 +
STACK CFI 27cbc .cfa: sp 0 +
STACK CFI 27cc0 .cfa: x29 96 +
STACK CFI 27d14 .cfa: sp 368 +
STACK CFI 27d30 .cfa: sp 0 +
STACK CFI 27d34 .cfa: x29 96 +
STACK CFI INIT 286e8 eb0 .cfa: sp 0 +
STACK CFI 286ec .cfa: sp 96 +
STACK CFI 28704 .cfa: x29 96 + x19: .cfa -8 + ^ x20: .cfa -16 + ^ x21: .cfa -24 + ^ x22: .cfa -32 + ^ x23: .cfa -40 + ^ x24: .cfa -48 + ^ x25: .cfa -56 + ^ x26: .cfa -64 + ^ x27: .cfa -72 + ^ x28: .cfa -80 + ^ .ra: .cfa -88 + ^ x29: .cfa -96 + ^
STACK CFI 293ac .cfa: sp 96 +
STACK CFI 293c4 .cfa: sp 0 +
STACK CFI 293c8 .cfa: x29 96 +
STACK CFI INIT 2990c 1c9c .cfa: sp 0 +
STACK CFI 29910 .cfa: sp 112 +
STACK CFI 2992c .cfa: x29 96 + x19: .cfa -8 + ^ x20: .cfa -16 + ^ x21: .cfa -24 + ^ x22: .cfa -32 + ^ x23: .cfa -40 + ^ x24: .cfa -48 + ^ x25: .cfa -56 + ^ x26: .cfa -64 + ^ x27: .cfa -72 + ^ x28: .cfa -80 + ^ .ra: .cfa -88 + ^ x29: .cfa -96 + ^ v8: .cfa -112 + ^
STACK CFI 29d14 .cfa: sp 112 +
STACK CFI 29d30 .cfa: sp 0 +
STACK CFI 29d34 .cfa: x29 96 +
STACK CFI INIT 2dd6c 9a0 .cfa: sp 0 +
STACK CFI 2dd70 .cfa: sp 144 +
STACK CFI 2dd88 .cfa: x29 80 + x19: .cfa -8 + ^ x20: .cfa -16 + ^ x21: .cfa -24 + ^ x22: .cfa -32 + ^ x23: .cfa -40 + ^ x24: .cfa -48 + ^ x25: .cfa -64 + ^ .ra: .cfa -72 + ^ x29: .cfa -80 + ^
STACK CFI 2e688 .cfa: sp 144 +
STACK CFI 2e6a0 .cfa: sp 0 +
STACK CFI 2e6a4 .cfa: x29 80 +
STACK CFI INIT 2fc30 57c .cfa: sp 0 +
STACK CFI 2fc34 .cfa: sp 96 +
STACK CFI 2fc4c .cfa: x29 96 + x19: .cfa -8 + ^ x20: .cfa -16 + ^ x21: .cfa -24 + ^ x22: .cfa -32 + ^ x23: .cfa -40 + ^ x24: .cfa -48 + ^ x25: .cfa -56 + ^ x26: .cfa -64 + ^ x27: .cfa -72 + ^ x28: .cfa -80 + ^ .ra: .cfa -88 + ^ x29: .cfa -96 + ^
STACK CFI 30110 .cfa: sp 96 +
STACK CFI 30128 .cfa: sp 0 +
STACK CFI 3012c .cfa: x29 96 +
STACK CFI INIT 301ac 67c .cfa: sp 0 +
STACK CFI 301b0 .cfa: sp 96 +
STACK CFI 301c8 .cfa: x29 96 + x19: .cfa -8 + ^ x20: .cfa -16 + ^ x21: .cfa -24 + ^ x22: .cfa -32 + ^ x23: .cfa -40 + ^ x24: .cfa -48 + ^ x25: .cfa -56 + ^ x26: .cfa -64 + ^ x27: .cfa -72 + ^ x28: .cfa -80 + ^ .ra: .cfa -88 + ^ x29: .cfa -96 + ^
STACK CFI 3078c .cfa: sp 96 +
STACK CFI 307a4 .cfa: sp 0 +
STACK CFI 307a8 .cfa: x29 96 +
