MODULE Linux arm64 BE87A64297C849BB90057D0C6620524D0 uproxide.textures.android64.so
INFO CODE_ID 42A687BEC897BB4990057D0C6620524D58D37A6B
INFO GENERATOR mozilla/dump_syms 2.3.4
PUBLIC 20180 0 __on_dlclose
PUBLIC 20190 0 __emutls_unregister_key
PUBLIC 20198 0 __on_dlclose_late
PUBLIC 201a0 0 __atexit_handler_wrapper
PUBLIC 201b4 0 atexit
PUBLIC 201d0 0 pthread_atfork
PUBLIC 201e0 0 unwind_phase2
PUBLIC 20314 0 _Unwind_Resume
PUBLIC 20398 0 unwind_phase2_forced
PUBLIC m 2048c 0 __unw_init_local
PUBLIC m 20534 0 __unw_get_reg
PUBLIC 205b0 0 __unw_step_stage2
PUBLIC m 205c4 0 __unw_get_proc_info
PUBLIC m 20604 0 __unw_resume
PUBLIC 2062c 0 libunwind::CFI_Parser<libunwind::LocalAddressSpace>::decodeFDE(libunwind::LocalAddressSpace&, unsigned long, libunwind::CFI_Parser<libunwind::LocalAddressSpace>::FDE_Info*, libunwind::CFI_Parser<libunwind::LocalAddressSpace>::CIE_Info*, bool)
PUBLIC 207bc 0 libunwind::CFI_Parser<libunwind::LocalAddressSpace>::parseCIE(libunwind::LocalAddressSpace&, unsigned long, libunwind::CFI_Parser<libunwind::LocalAddressSpace>::CIE_Info*)
PUBLIC 20a84 0 libunwind::AbstractUnwindCursor::~AbstractUnwindCursor()
PUBLIC 20a8c 0 libunwind::UnwindCursor<libunwind::LocalAddressSpace, libunwind::Registers_arm64>::~UnwindCursor()
PUBLIC 20a94 0 libunwind::UnwindCursor<libunwind::LocalAddressSpace, libunwind::Registers_arm64>::validReg(int)
PUBLIC 20ad8 0 libunwind::UnwindCursor<libunwind::LocalAddressSpace, libunwind::Registers_arm64>::getReg(int)
PUBLIC 20bc0 0 libunwind::UnwindCursor<libunwind::LocalAddressSpace, libunwind::Registers_arm64>::setReg(int, unsigned long)
PUBLIC 20ca8 0 libunwind::UnwindCursor<libunwind::LocalAddressSpace, libunwind::Registers_arm64>::validFloatReg(int)
PUBLIC 20cbc 0 libunwind::UnwindCursor<libunwind::LocalAddressSpace, libunwind::Registers_arm64>::getFloatReg(int)
PUBLIC 20ccc 0 libunwind::UnwindCursor<libunwind::LocalAddressSpace, libunwind::Registers_arm64>::setFloatReg(int, double)
PUBLIC 20cdc 0 libunwind::UnwindCursor<libunwind::LocalAddressSpace, libunwind::Registers_arm64>::step(bool)
PUBLIC 20dcc 0 libunwind::UnwindCursor<libunwind::LocalAddressSpace, libunwind::Registers_arm64>::getInfo(unw_proc_info_t*)
PUBLIC 20e10 0 libunwind::UnwindCursor<libunwind::LocalAddressSpace, libunwind::Registers_arm64>::jumpto()
PUBLIC 20e1c 0 libunwind::UnwindCursor<libunwind::LocalAddressSpace, libunwind::Registers_arm64>::isSignalFrame()
PUBLIC 20e28 0 libunwind::UnwindCursor<libunwind::LocalAddressSpace, libunwind::Registers_arm64>::getFunctionName(char*, unsigned long, unsigned long*)
PUBLIC 20e54 0 libunwind::UnwindCursor<libunwind::LocalAddressSpace, libunwind::Registers_arm64>::setInfoBasedOnIPRegister(bool)
PUBLIC 210d4 0 libunwind::UnwindCursor<libunwind::LocalAddressSpace, libunwind::Registers_arm64>::getRegisterName(int)
PUBLIC 210e0 0 libunwind::UnwindCursor<libunwind::LocalAddressSpace, libunwind::Registers_arm64>::stepThroughSigReturn(libunwind::Registers_arm64&)
PUBLIC 21200 0 libunwind::DwarfInstructions<libunwind::LocalAddressSpace, libunwind::Registers_arm64>::stepWithDwarf(libunwind::LocalAddressSpace&, unsigned long, unsigned long, libunwind::Registers_arm64&, bool&, bool)
PUBLIC 21688 0 libunwind::CFI_Parser<libunwind::LocalAddressSpace>::parseFDEInstructions(libunwind::LocalAddressSpace&, libunwind::CFI_Parser<libunwind::LocalAddressSpace>::FDE_Info const&, libunwind::CFI_Parser<libunwind::LocalAddressSpace>::CIE_Info const&, unsigned long, int, libunwind::CFI_Parser<libunwind::LocalAddressSpace>::PrologInfo*)
PUBLIC 222d0 0 libunwind::DwarfInstructions<libunwind::LocalAddressSpace, libunwind::Registers_arm64>::getCFA(libunwind::LocalAddressSpace&, libunwind::CFI_Parser<libunwind::LocalAddressSpace>::PrologInfo const&, libunwind::Registers_arm64 const&)
PUBLIC 22404 0 libunwind::DwarfInstructions<libunwind::LocalAddressSpace, libunwind::Registers_arm64>::getSavedRegister(libunwind::LocalAddressSpace&, libunwind::Registers_arm64 const&, unsigned long, libunwind::CFI_Parser<libunwind::LocalAddressSpace>::RegisterLocation const&)
PUBLIC 22614 0 libunwind::LocalAddressSpace::getEncodedP(unsigned long&, unsigned long, unsigned char, unsigned long)
PUBLIC 229a0 0 libunwind::LocalAddressSpace::getULEB128(unsigned long&, unsigned long)
PUBLIC 22b68 0 libunwind::DwarfInstructions<libunwind::LocalAddressSpace, libunwind::Registers_arm64>::evaluateExpression(unsigned long, libunwind::LocalAddressSpace&, libunwind::Registers_arm64 const&, unsigned long)
PUBLIC 23524 0 libunwind::UnwindCursor<libunwind::LocalAddressSpace, libunwind::Registers_arm64>::getInfoFromDwarfSection(unsigned long, libunwind::UnwindInfoSections const&, unsigned int)
PUBLIC 237f8 0 libunwind::findUnwindSectionsByPhdr(dl_phdr_info*, unsigned long, void*)
PUBLIC 2392c 0 libunwind::EHHeaderParser<libunwind::LocalAddressSpace>::decodeEHHdr(libunwind::LocalAddressSpace&, unsigned long, unsigned long, libunwind::EHHeaderParser<libunwind::LocalAddressSpace>::EHHeaderInfo&)
PUBLIC 23a4c 0 libunwind::CFI_Parser<libunwind::LocalAddressSpace>::findFDE(libunwind::LocalAddressSpace&, unsigned long, unsigned long, unsigned long, unsigned long, libunwind::CFI_Parser<libunwind::LocalAddressSpace>::FDE_Info*, libunwind::CFI_Parser<libunwind::LocalAddressSpace>::CIE_Info*)
PUBLIC 23c14 0 libunwind::EHHeaderParser<libunwind::LocalAddressSpace>::findFDE(libunwind::LocalAddressSpace&, unsigned long, unsigned long, unsigned int, libunwind::CFI_Parser<libunwind::LocalAddressSpace>::FDE_Info*, libunwind::CFI_Parser<libunwind::LocalAddressSpace>::CIE_Info*)
PUBLIC 23d7c 0 libunwind::EHHeaderParser<libunwind::LocalAddressSpace>::getTableEntrySize(unsigned char)
PUBLIC 23e78 0 libunwind::Registers_arm64::getRegisterName(int)
PUBLIC 23ea8 0 __libunwind_Registers_arm64_jumpto
PUBLIC m 23f38 0 __unw_getcontext
PUBLIC 23fe0 0 __aarch64_ldadd8_relax
PUBLIC 24010 0 init_have_lse_atomics
PUBLIC 240a8 0 __init_cpu_features_constructor
PUBLIC 24644 0 __init_cpu_features
PUBLIC 246d0 0 __aarch64_ldadd8_acq_rel
PUBLIC 24700 0 __cxx_global_var_init
PUBLIC 2478c 0 __cxx_global_var_init.1
PUBLIC 247e8 0 std::__ndk1::vector<TexturePack*, std::__ndk1::allocator<TexturePack*> >::~vector[abi:ne180000]()
PUBLIC 24800 0 __cxx_global_var_init.2
PUBLIC 253d4 0 geode::modifier::ModifyBase<geode::modifier::ModifyDerive<MyMenuLayer, MenuLayer> >::~ModifyBase()
PUBLIC 253ec 0 __clang_call_terminate
PUBLIC 253fc 0 geode::modifier::ModifyDerive<MyMenuLayer, MenuLayer>::apply()
PUBLIC 25804 0 std::__ndk1::shared_ptr<geode::Hook>::~shared_ptr[abi:ne180000]()
PUBLIC 25854 0 geode::impl::ResultData<geode::Hook*, std::__ndk1::basic_string<char, std::__ndk1::char_traits<char>, std::__ndk1::allocator<char> > >::~ResultData()
PUBLIC 258c8 0 std::__ndk1::vector<std::__ndk1::basic_string<char, std::__ndk1::char_traits<char>, std::__ndk1::allocator<char> >, std::__ndk1::allocator<std::__ndk1::basic_string<char, std::__ndk1::char_traits<char>, std::__ndk1::allocator<char> > > >::~vector[abi:ne180000]()
PUBLIC 25944 0 geode::modifier::ModifyBase<geode::modifier::ModifyDerive<MyMenuLayer, MenuLayer> >::apply()
PUBLIC 25948 0 _ZN5geode15UnwrapExceptionC2IRPNS_4HookEQsr4implE18IsStringStreamableIT_EEENS_4impl5OkTagEOS5_
PUBLIC 25a9c 0 std::__ndk1::__throw_bad_variant_access[abi:ne180000]()
PUBLIC 25ad0 0 std::__ndk1::basic_stringstream<char, std::__ndk1::char_traits<char>, std::__ndk1::allocator<char> >::basic_stringstream[abi:ne180000]()
PUBLIC m 25bfc 0 std::__ndk1::basic_stringstream<char, std::__ndk1::char_traits<char>, std::__ndk1::allocator<char> >::~basic_stringstream()
PUBLIC 25c7c 0 geode::UnwrapException::~UnwrapException()
PUBLIC 25ca0 0 std::__ndk1::__put_character_sequence[abi:ne180000]<char, std::__ndk1::char_traits<char> >(std::__ndk1::basic_ostream<char, std::__ndk1::char_traits<char> >, std::__ndk1::basic_ostream const*, unsigned long)
PUBLIC 25e44 0 std::__ndk1::__pad_and_output[abi:ne180000]<char, std::__ndk1::char_traits<char> >(std::__ndk1::char_traits<char>, std::__ndk1::ostreambuf_iterator const*, std::__ndk1::ostreambuf_iterator const, std::__ndk1::ostreambuf_iterator const, std::__ndk1::ios_base&, std::__ndk1::ostreambuf_iterator)
PUBLIC 26020 0 std::__ndk1::basic_string<char, std::__ndk1::char_traits<char>, std::__ndk1::allocator<char> >::__throw_length_error[abi:ne180000]() const
PUBLIC 26034 0 std::__ndk1::__throw_length_error[abi:ne180000](char const*)
PUBLIC 26084 0 std::length_error::length_error[abi:ne180000](char const*)
PUBLIC 260b4 0 std::__throw_bad_array_new_length([abi:ne180000], void)
PUBLIC 260e8 0 std::__ndk1::basic_stringbuf<char, std::__ndk1::char_traits<char>, std::__ndk1::allocator<char> >::str[abi:ne180000]() &&
PUBLIC 26260 0 std::__ndk1::basic_stringbuf<char, std::__ndk1::char_traits<char>, std::__ndk1::allocator<char> >::__init_buf_ptrs[abi:ne180000]()
PUBLIC 263a8 0 std::__ndk1::basic_string<char, std::__ndk1::char_traits<char>, std::__ndk1::allocator<char> >::__init_copy_ctor_external(char const*, unsigned long)
PUBLIC 26428 0 std::__ndk1::__split_buffer<std::__ndk1::basic_string<char, std::__ndk1::char_traits<char>, std::__ndk1::allocator<char> >, std::__ndk1::allocator<std::__ndk1::basic_string<char, std::__ndk1::char_traits<char>, std::__ndk1::allocator<char> > >&>::~__split_buffer()
PUBLIC 26490 0 std::__ndk1::vector<std::__ndk1::basic_string<char, std::__ndk1::char_traits<char>, std::__ndk1::allocator<char> >, std::__ndk1::allocator<std::__ndk1::basic_string<char, std::__ndk1::char_traits<char>, std::__ndk1::allocator<char> > > >::__throw_length_error[abi:ne180000]() const
PUBLIC 264a4 0 std::__ndk1::__variant_detail::__visitation::__base::__dispatcher<(unsigned long)0>::__dispatch[abi:ne180000]<std::__ndk1::__variant_detail::__dtor<std::__ndk1::__variant_detail::__traits<geode::Hook*, std::__ndk1::basic_string<char, std::__ndk1::char_traits<char>, std::__ndk1::allocator<char> > >, (std::__ndk1::__variant_detail::_Trait)1>::__destroy[abi:ne180000]()::{lambda(auto:1&)#1}, std::__ndk1::__variant_detail::__base<(std::__ndk1::__variant_detail::__traits<geode::Hook*, std::__ndk1::basic_string<char, std::__ndk1::char_traits<char>, std::__ndk1::allocator<char> > >)1, geode::Hook, std::__ndk1::allocator<char> >&>(std::__ndk1::__variant_detail::__dtor<std::__ndk1::__variant_detail::__traits<geode::Hook*, std::__ndk1::basic_string<char, std::__ndk1::char_traits<char>, std::__ndk1::allocator<char> > >, (std::__ndk1::__variant_detail::_Trait)1>, std::__ndk1::__variant_detail::__base<(std::__ndk1::__variant_detail::__traits<geode::Hook*, std::__ndk1::basic_string<char, std::__ndk1::char_traits<char>, std::__ndk1::allocator<char> > >)1, geode::Hook, std::__ndk1::allocator<char> >&)
PUBLIC 264a8 0 std::__ndk1::__variant_detail::__visitation::__base::__dispatcher<(unsigned long)1>::__dispatch[abi:ne180000]<std::__ndk1::__variant_detail::__dtor<std::__ndk1::__variant_detail::__traits<geode::Hook*, std::__ndk1::basic_string<char, std::__ndk1::char_traits<char>, std::__ndk1::allocator<char> > >, (std::__ndk1::__variant_detail::_Trait)1>::__destroy[abi:ne180000]()::{lambda(auto:1&)#1}, std::__ndk1::__variant_detail::__base<(std::__ndk1::__variant_detail::__traits<geode::Hook*, std::__ndk1::basic_string<char, std::__ndk1::char_traits<char>, std::__ndk1::allocator<char> > >)1, geode::Hook, std::__ndk1::allocator<char> >&>(std::__ndk1::__variant_detail::__dtor<std::__ndk1::__variant_detail::__traits<geode::Hook*, std::__ndk1::basic_string<char, std::__ndk1::char_traits<char>, std::__ndk1::allocator<char> > >, (std::__ndk1::__variant_detail::_Trait)1>, std::__ndk1::__variant_detail::__base<(std::__ndk1::__variant_detail::__traits<geode::Hook*, std::__ndk1::basic_string<char, std::__ndk1::char_traits<char>, std::__ndk1::allocator<char> > >)1, geode::Hook, std::__ndk1::allocator<char> >&)
PUBLIC 264bc 0 std::__ndk1::__tree<std::__ndk1::__value_type<std::__ndk1::basic_string<char, std::__ndk1::char_traits<char>, std::__ndk1::allocator<char> >, std::__ndk1::shared_ptr<geode::Hook> >, std::__ndk1::__map_value_compare<std::__ndk1::basic_string<char, std::__ndk1::char_traits<char>, std::__ndk1::allocator<char> >, std::__ndk1::__value_type<std::__ndk1::basic_string<char, std::__ndk1::char_traits<char>, std::__ndk1::allocator<char> >, std::__ndk1::shared_ptr<geode::Hook> >, std::__ndk1::less<std::__ndk1::basic_string<char, std::__ndk1::char_traits<char>, std::__ndk1::allocator<char> > >, true>, std::__ndk1::allocator<std::__ndk1::__value_type<std::__ndk1::basic_string<char, std::__ndk1::char_traits<char>, std::__ndk1::allocator<char> >, std::__ndk1::shared_ptr<geode::Hook> > > >::destroy(std::__ndk1::__tree_node<std::__ndk1::__value_type<std::__ndk1::basic_string<char, std::__ndk1::char_traits<char>, std::__ndk1::allocator<char> >, std::__ndk1::shared_ptr<geode::Hook> >, void*>*)
PUBLIC 26540 0 geode::modifier::AsStaticFunction_init<MyMenuLayer, bool (MyMenuLayer::*)()>::Impl<bool (MyMenuLayer::*)()>::function(MyMenuLayer*)
PUBLIC 266fc 0 geode::addresser::Addresser::addressOfVirtual<bool, MenuLayer, >(bool (MenuLayer::*)())
PUBLIC 267a4 0 MenuLayer::MenuLayer(geode::ZeroConstructorType)
PUBLIC 26840 0 std::__ndk1::shared_ptr<tulip::hook::CallingConvention>::~shared_ptr[abi:ne180000]()
PUBLIC 26890 0 tulip::hook::HandlerMetadata::~HandlerMetadata()
PUBLIC 268f4 0 MyMenuLayer::onMyButton(cocos2d::CCObject*)
PUBLIC 269a8 0 geode::Mod::getSavedValue<bool>(std::__ndk1::basic_string_view<char, std::__ndk1::char_traits<char> >)
PUBLIC 26b38 0 geode::impl::ResultData<matjson::Value&, std::__ndk1::basic_string<char, std::__ndk1::char_traits<char>, std::__ndk1::allocator<char> > >::~ResultData()
PUBLIC 26bac 0 std::__ndk1::__variant_detail::__visitation::__base::__dispatcher<(unsigned long)0>::__dispatch[abi:ne180000]<std::__ndk1::__variant_detail::__dtor<std::__ndk1::__variant_detail::__traits<std::__ndk1::reference_wrapper<matjson::Value>, std::__ndk1::basic_string<char, std::__ndk1::char_traits<char>, std::__ndk1::allocator<char> > >, (std::__ndk1::__variant_detail::_Trait)1>::__destroy[abi:ne180000]()::{lambda(auto:1&)#1}, std::__ndk1::__variant_detail::__base<(std::__ndk1::__variant_detail::__traits<std::__ndk1::reference_wrapper<matjson::Value>, std::__ndk1::basic_string<char, std::__ndk1::char_traits<char>, std::__ndk1::allocator<char> > >)1, matjson::Value, std::__ndk1::allocator<char> >&>(std::__ndk1::__variant_detail::__dtor<std::__ndk1::__variant_detail::__traits<std::__ndk1::reference_wrapper<matjson::Value>, std::__ndk1::basic_string<char, std::__ndk1::char_traits<char>, std::__ndk1::allocator<char> > >, (std::__ndk1::__variant_detail::_Trait)1>, std::__ndk1::__variant_detail::__base<(std::__ndk1::__variant_detail::__traits<std::__ndk1::reference_wrapper<matjson::Value>, std::__ndk1::basic_string<char, std::__ndk1::char_traits<char>, std::__ndk1::allocator<char> > >)1, matjson::Value, std::__ndk1::allocator<char> >&)
PUBLIC 26bb0 0 std::__ndk1::__variant_detail::__visitation::__base::__dispatcher<(unsigned long)1>::__dispatch[abi:ne180000]<std::__ndk1::__variant_detail::__dtor<std::__ndk1::__variant_detail::__traits<std::__ndk1::reference_wrapper<matjson::Value>, std::__ndk1::basic_string<char, std::__ndk1::char_traits<char>, std::__ndk1::allocator<char> > >, (std::__ndk1::__variant_detail::_Trait)1>::__destroy[abi:ne180000]()::{lambda(auto:1&)#1}, std::__ndk1::__variant_detail::__base<(std::__ndk1::__variant_detail::__traits<std::__ndk1::reference_wrapper<matjson::Value>, std::__ndk1::basic_string<char, std::__ndk1::char_traits<char>, std::__ndk1::allocator<char> > >)1, matjson::Value, std::__ndk1::allocator<char> >&>(std::__ndk1::__variant_detail::__dtor<std::__ndk1::__variant_detail::__traits<std::__ndk1::reference_wrapper<matjson::Value>, std::__ndk1::basic_string<char, std::__ndk1::char_traits<char>, std::__ndk1::allocator<char> > >, (std::__ndk1::__variant_detail::_Trait)1>, std::__ndk1::__variant_detail::__base<(std::__ndk1::__variant_detail::__traits<std::__ndk1::reference_wrapper<matjson::Value>, std::__ndk1::basic_string<char, std::__ndk1::char_traits<char>, std::__ndk1::allocator<char> > >)1, matjson::Value, std::__ndk1::allocator<char> >&)
PUBLIC 26bc4 0 std::__ndk1::__variant_detail::__visitation::__base::__dispatcher<(unsigned long)0>::__dispatch[abi:ne180000]<std::__ndk1::__variant_detail::__dtor<std::__ndk1::__variant_detail::__traits<bool, std::__ndk1::basic_string<char, std::__ndk1::char_traits<char>, std::__ndk1::allocator<char> > >, (std::__ndk1::__variant_detail::_Trait)1>::__destroy[abi:ne180000]()::{lambda(auto:1&)#1}, std::__ndk1::__variant_detail::__base<(std::__ndk1::__variant_detail::__traits<bool, std::__ndk1::basic_string<char, std::__ndk1::char_traits<char>, std::__ndk1::allocator<char> > >)1, bool, std::__ndk1::allocator<char> >&>(std::__ndk1::__variant_detail::__dtor<std::__ndk1::__variant_detail::__traits<bool, std::__ndk1::basic_string<char, std::__ndk1::char_traits<char>, std::__ndk1::allocator<char> > >, (std::__ndk1::__variant_detail::_Trait)1>, std::__ndk1::__variant_detail::__base<(std::__ndk1::__variant_detail::__traits<bool, std::__ndk1::basic_string<char, std::__ndk1::char_traits<char>, std::__ndk1::allocator<char> > >)1, bool, std::__ndk1::allocator<char> >&)
PUBLIC 26bc8 0 std::__ndk1::__variant_detail::__visitation::__base::__dispatcher<(unsigned long)1>::__dispatch[abi:ne180000]<std::__ndk1::__variant_detail::__dtor<std::__ndk1::__variant_detail::__traits<bool, std::__ndk1::basic_string<char, std::__ndk1::char_traits<char>, std::__ndk1::allocator<char> > >, (std::__ndk1::__variant_detail::_Trait)1>::__destroy[abi:ne180000]()::{lambda(auto:1&)#1}, std::__ndk1::__variant_detail::__base<(std::__ndk1::__variant_detail::__traits<bool, std::__ndk1::basic_string<char, std::__ndk1::char_traits<char>, std::__ndk1::allocator<char> > >)1, bool, std::__ndk1::allocator<char> >&>(std::__ndk1::__variant_detail::__dtor<std::__ndk1::__variant_detail::__traits<bool, std::__ndk1::basic_string<char, std::__ndk1::char_traits<char>, std::__ndk1::allocator<char> > >, (std::__ndk1::__variant_detail::_Trait)1>, std::__ndk1::__variant_detail::__base<(std::__ndk1::__variant_detail::__traits<bool, std::__ndk1::basic_string<char, std::__ndk1::char_traits<char>, std::__ndk1::allocator<char> > >)1, bool, std::__ndk1::allocator<char> >&)
PUBLIC 26bdc 0 std::__ndk1::__tree_balance_after_insert[abi:ne180000]<std::__ndk1::__tree_node_base<void*>*>(std::__ndk1::__tree_node_base<void*>*, std::__ndk1::__tree_node_base<void*>*)
PUBLIC 26d8c 0 TextureWorkshopLayer::TextureWorkshopLayer()
PUBLIC 26f18 0 TextureWorkshopLayer::init()
PUBLIC 27d88 0 TextureWorkshopLayer::onClose(cocos2d::CCObject*)
PUBLIC 27dc8 0 cocos2d::CCSequence::create(cocos2d::CCFiniteTimeAction*, ...)
PUBLIC 27e60 0 TextureWorkshopLayer::onDiscord(cocos2d::CCObject*)
PUBLIC 27fc4 0 TextureWorkshopLayer::onSupport(cocos2d::CCObject*)
PUBLIC 2813c 0 TextureWorkshopLayer::onCredits(cocos2d::CCObject*)
PUBLIC 28218 0 TextureWorkshopLayer::onRefresh(cocos2d::CCObject*)
PUBLIC 28298 0 TextureWorkshopLayer::onPacksFolder(cocos2d::CCObject*)
PUBLIC 283c0 0 TextureWorkshopLayer::onFilter(cocos2d::CCObject*)
PUBLIC 28720 0 TextureWorkshopLayer::getTexturePacks()
PUBLIC 289a4 0 geode::Mod::getSettingValue<bool>(std::__ndk1::basic_string_view<char, std::__ndk1::char_traits<char> >) const
PUBLIC 28ad8 0 geode::Task<geode::utils::web::WebResponse, geode::utils::web::WebProgress>::~Task()
PUBLIC 28b28 0 TextureWorkshopLayer::onGetTPsFinished()
PUBLIC 2b2e4 0 geode::impl::ResultData<std::__ndk1::basic_string<char, std::__ndk1::char_traits<char>, std::__ndk1::allocator<char> >, std::__ndk1::basic_string<char, std::__ndk1::char_traits<char>, std::__ndk1::allocator<char> > >::~ResultData()
PUBLIC 2b358 0 geode::impl::ResultData<long, std::__ndk1::basic_string<char, std::__ndk1::char_traits<char>, std::__ndk1::allocator<char> > >::~ResultData()
PUBLIC 2b3cc 0 TexturePack::create(std::__ndk1::basic_string<char, std::__ndk1::char_traits<char>, std::__ndk1::allocator<char> >, std::__ndk1::basic_string<char, std::__ndk1::char_traits<char>, std::__ndk1::allocator<char> >, std::__ndk1::basic_string<char, std::__ndk1::char_traits<char>, std::__ndk1::allocator<char> >, std::__ndk1::basic_string<char, std::__ndk1::char_traits<char>, std::__ndk1::allocator<char> >, std::__ndk1::basic_string<char, std::__ndk1::char_traits<char>, std::__ndk1::allocator<char> >, std::__ndk1::basic_string<char, std::__ndk1::char_traits<char>, std::__ndk1::allocator<char> >, std::__ndk1::basic_string<char, std::__ndk1::char_traits<char>, std::__ndk1::allocator<char> >, bool, int)
PUBLIC 2b914 0 geode::cocos::CCArrayExt<TexturePackCell*>::~CCArrayExt()
PUBLIC 2b930 0 TextureWorkshopLayer::textChanged(CCTextInputNode*)
PUBLIC 2b934 0 TextureWorkshopLayer::searchTPs()
PUBLIC 2c13c 0 {virtual override thunk({offset(-408)}, TextureWorkshopLayer::textChanged(CCTextInputNode*))}
PUBLIC 2c144 0 TextureWorkshopLayer::keyBackClicked()
PUBLIC 2c184 0 {virtual override thunk({offset(-336)}, TextureWorkshopLayer::keyBackClicked())}
PUBLIC 2c1c4 0 TextureWorkshopLayer::~TextureWorkshopLayer()
PUBLIC 2c2c4 0 geode::EventListener<geode::Task<geode::utils::web::WebResponse, geode::utils::web::WebProgress> >::~EventListener()
PUBLIC 2c360 0 {virtual override thunk({offset(-320)}, TextureWorkshopLayer::~TextureWorkshopLayer())}
PUBLIC 2c368 0 TextureWorkshopLayer::~TextureWorkshopLayer()
PUBLIC 2c38c 0 {virtual override thunk({offset(-320)}, TextureWorkshopLayer::~TextureWorkshopLayer())}
PUBLIC 2c3b4 0 cocos2d::CCCopying::copyWithZone(cocos2d::CCZone*)
PUBLIC 2c3bc 0 cocos2d::CCKeyboardDelegate::keyUp(cocos2d::enumKeyCodes)
PUBLIC 2c3c0 0 cocos2d::CCMouseDelegate::rightKeyDown()
PUBLIC 2c3c4 0 cocos2d::CCMouseDelegate::rightKeyUp()
PUBLIC 2c3c8 0 cocos2d::CCMouseDelegate::scrollWheel(float, float)
PUBLIC 2c3cc 0 geode::Task<geode::utils::web::WebResponse, geode::utils::web::WebProgress>::setListener(geode::EventListenerProtocol*)
PUBLIC 2c5e8 0 geode::EventListener<geode::Task<geode::utils::web::WebResponse, geode::utils::web::WebProgress> >::getPool() const
PUBLIC 2c5ec 0 geode::EventListener<geode::Task<geode::utils::web::WebResponse, geode::utils::web::WebProgress> >::handle(geode::Event*)
PUBLIC 2c7b8 0 geode::EventListener<geode::Task<geode::utils::web::WebResponse, geode::utils::web::WebProgress> >::~EventListener()
PUBLIC 2c85c 0 geode::Task<geode::utils::web::WebResponse, geode::utils::web::WebProgress>::setListener(geode::EventListenerProtocol*)::{lambda()#1}::~{lambda()#1}()
PUBLIC 2c8ac 0 geode::Task<geode::utils::web::WebResponse, geode::utils::web::WebProgress>::setListener(geode::EventListenerProtocol*)::{lambda()#2}::~{lambda()#2}()
PUBLIC 2c8fc 0 std::__ndk1::__function::__func<geode::Task<geode::utils::web::WebResponse, geode::utils::web::WebProgress>::setListener(geode::EventListenerProtocol*)::{lambda()#1}, std::__ndk1::allocator<geode::Task<geode::utils::web::WebResponse, geode::utils::web::WebProgress>::setListener(geode::EventListenerProtocol*)::{lambda()#1}>, void ()>::~__func()
PUBLIC 2c958 0 std::__ndk1::__function::__func<geode::Task<geode::utils::web::WebResponse, geode::utils::web::WebProgress>::setListener(geode::EventListenerProtocol*)::{lambda()#1}, std::__ndk1::allocator<geode::Task<geode::utils::web::WebResponse, geode::utils::web::WebProgress>::setListener(geode::EventListenerProtocol*)::{lambda()#1}>, void ()>::~__func()
PUBLIC 2c9c4 0 std::__ndk1::__function::__func<geode::Task<geode::utils::web::WebResponse, geode::utils::web::WebProgress>::setListener(geode::EventListenerProtocol*)::{lambda()#1}, std::__ndk1::allocator<geode::Task<geode::utils::web::WebResponse, geode::utils::web::WebProgress>::setListener(geode::EventListenerProtocol*)::{lambda()#1}>, void ()>::__clone() const
PUBLIC 2ca1c 0 std::__ndk1::__function::__func<geode::Task<geode::utils::web::WebResponse, geode::utils::web::WebProgress>::setListener(geode::EventListenerProtocol*)::{lambda()#1}, std::__ndk1::allocator<geode::Task<geode::utils::web::WebResponse, geode::utils::web::WebProgress>::setListener(geode::EventListenerProtocol*)::{lambda()#1}>, void ()>::__clone(std::__ndk1::__function::__base<void ()>*) const
PUBLIC 2ca68 0 std::__ndk1::__function::__func<geode::Task<geode::utils::web::WebResponse, geode::utils::web::WebProgress>::setListener(geode::EventListenerProtocol*)::{lambda()#1}, std::__ndk1::allocator<geode::Task<geode::utils::web::WebResponse, geode::utils::web::WebProgress>::setListener(geode::EventListenerProtocol*)::{lambda()#1}>, void ()>::destroy()
PUBLIC 2cab8 0 std::__ndk1::__function::__func<geode::Task<geode::utils::web::WebResponse, geode::utils::web::WebProgress>::setListener(geode::EventListenerProtocol*)::{lambda()#1}, std::__ndk1::allocator<geode::Task<geode::utils::web::WebResponse, geode::utils::web::WebProgress>::setListener(geode::EventListenerProtocol*)::{lambda()#1}>, void ()>::destroy_deallocate()
PUBLIC 2cb18 0 std::__ndk1::__function::__func<geode::Task<geode::utils::web::WebResponse, geode::utils::web::WebProgress>::setListener(geode::EventListenerProtocol*)::{lambda()#1}, std::__ndk1::allocator<geode::Task<geode::utils::web::WebResponse, geode::utils::web::WebProgress>::setListener(geode::EventListenerProtocol*)::{lambda()#1}>, void ()>::operator()()
PUBLIC 2cb20 0 std::__ndk1::__function::__func<geode::Task<geode::utils::web::WebResponse, geode::utils::web::WebProgress>::setListener(geode::EventListenerProtocol*)::{lambda()#1}, std::__ndk1::allocator<geode::Task<geode::utils::web::WebResponse, geode::utils::web::WebProgress>::setListener(geode::EventListenerProtocol*)::{lambda()#1}>, void ()>::target(std::type_info const&) const
PUBLIC 2cb3c 0 std::__ndk1::__function::__func<geode::Task<geode::utils::web::WebResponse, geode::utils::web::WebProgress>::setListener(geode::EventListenerProtocol*)::{lambda()#1}, std::__ndk1::allocator<geode::Task<geode::utils::web::WebResponse, geode::utils::web::WebProgress>::setListener(geode::EventListenerProtocol*)::{lambda()#1}>, void ()>::target_type() const
PUBLIC 2cb48 0 geode::Task<geode::utils::web::WebResponse, geode::utils::web::WebProgress>::setListener(geode::EventListenerProtocol*)::{lambda()#1}::operator()() const
PUBLIC 2cd18 0 geode::Task<geode::utils::web::WebResponse, geode::utils::web::WebProgress>::Event::~Event()
PUBLIC 2cd78 0 geode::Task<geode::utils::web::WebResponse, geode::utils::web::WebProgress>::Event::~Event()
PUBLIC 2cde8 0 std::__ndk1::__function::__func<geode::Task<geode::utils::web::WebResponse, geode::utils::web::WebProgress>::setListener(geode::EventListenerProtocol*)::{lambda()#2}, std::__ndk1::allocator<geode::Task<geode::utils::web::WebResponse, geode::utils::web::WebProgress>::setListener(geode::EventListenerProtocol*)::{lambda()#2}>, void ()>::~__func()
PUBLIC 2ce44 0 std::__ndk1::__function::__func<geode::Task<geode::utils::web::WebResponse, geode::utils::web::WebProgress>::setListener(geode::EventListenerProtocol*)::{lambda()#2}, std::__ndk1::allocator<geode::Task<geode::utils::web::WebResponse, geode::utils::web::WebProgress>::setListener(geode::EventListenerProtocol*)::{lambda()#2}>, void ()>::~__func()
PUBLIC 2ceb0 0 std::__ndk1::__function::__func<geode::Task<geode::utils::web::WebResponse, geode::utils::web::WebProgress>::setListener(geode::EventListenerProtocol*)::{lambda()#2}, std::__ndk1::allocator<geode::Task<geode::utils::web::WebResponse, geode::utils::web::WebProgress>::setListener(geode::EventListenerProtocol*)::{lambda()#2}>, void ()>::__clone() const
PUBLIC 2cf08 0 std::__ndk1::__function::__func<geode::Task<geode::utils::web::WebResponse, geode::utils::web::WebProgress>::setListener(geode::EventListenerProtocol*)::{lambda()#2}, std::__ndk1::allocator<geode::Task<geode::utils::web::WebResponse, geode::utils::web::WebProgress>::setListener(geode::EventListenerProtocol*)::{lambda()#2}>, void ()>::__clone(std::__ndk1::__function::__base<void ()>*) const
PUBLIC 2cf54 0 std::__ndk1::__function::__func<geode::Task<geode::utils::web::WebResponse, geode::utils::web::WebProgress>::setListener(geode::EventListenerProtocol*)::{lambda()#2}, std::__ndk1::allocator<geode::Task<geode::utils::web::WebResponse, geode::utils::web::WebProgress>::setListener(geode::EventListenerProtocol*)::{lambda()#2}>, void ()>::destroy()
PUBLIC 2cfa4 0 std::__ndk1::__function::__func<geode::Task<geode::utils::web::WebResponse, geode::utils::web::WebProgress>::setListener(geode::EventListenerProtocol*)::{lambda()#2}, std::__ndk1::allocator<geode::Task<geode::utils::web::WebResponse, geode::utils::web::WebProgress>::setListener(geode::EventListenerProtocol*)::{lambda()#2}>, void ()>::destroy_deallocate()
PUBLIC 2d004 0 std::__ndk1::__function::__func<geode::Task<geode::utils::web::WebResponse, geode::utils::web::WebProgress>::setListener(geode::EventListenerProtocol*)::{lambda()#2}, std::__ndk1::allocator<geode::Task<geode::utils::web::WebResponse, geode::utils::web::WebProgress>::setListener(geode::EventListenerProtocol*)::{lambda()#2}>, void ()>::operator()()
PUBLIC 2d00c 0 std::__ndk1::__function::__func<geode::Task<geode::utils::web::WebResponse, geode::utils::web::WebProgress>::setListener(geode::EventListenerProtocol*)::{lambda()#2}, std::__ndk1::allocator<geode::Task<geode::utils::web::WebResponse, geode::utils::web::WebProgress>::setListener(geode::EventListenerProtocol*)::{lambda()#2}>, void ()>::target(std::type_info const&) const
PUBLIC 2d028 0 std::__ndk1::__function::__func<geode::Task<geode::utils::web::WebResponse, geode::utils::web::WebProgress>::setListener(geode::EventListenerProtocol*)::{lambda()#2}, std::__ndk1::allocator<geode::Task<geode::utils::web::WebResponse, geode::utils::web::WebProgress>::setListener(geode::EventListenerProtocol*)::{lambda()#2}>, void ()>::target_type() const
PUBLIC 2d034 0 geode::Task<geode::utils::web::WebResponse, geode::utils::web::WebProgress>::setListener(geode::EventListenerProtocol*)::{lambda()#2}::operator()() const
PUBLIC 2d1f8 0 geode::cast::traverseTypeinfoFor(void*, geode::cast::ClassTypeinfoType const*, char const*)
PUBLIC 2d2fc 0 std::__ndk1::__throw_bad_function_call[abi:ne180000]()
PUBLIC 2d330 0 std::__ndk1::bad_function_call::~bad_function_call()
PUBLIC 2d354 0 geode::Popup<>::~Popup()
PUBLIC 2d3c0 0 TWSFilters::~TWSFilters()
PUBLIC 2d434 0 geode::Popup<>::registerWithTouchDispatcher()
PUBLIC 2d460 0 geode::Popup<>::keyDown(cocos2d::enumKeyCodes)
PUBLIC 2d488 0 cocos2d::CCLayerRGBA::setOpacityModifyRGB(bool)
PUBLIC 2d48c 0 cocos2d::CCLayerRGBA::isOpacityModifyRGB()
PUBLIC 2d494 0 TWSFilters::setup()
PUBLIC 2d958 0 geode::Popup<>::onClose(cocos2d::CCObject*)
PUBLIC 2daa0 0 {virtual override thunk({offset(-320)}, TWSFilters::~TWSFilters())}
PUBLIC 2db0c 0 {virtual override thunk({offset(-320)}, TWSFilters::~TWSFilters())}
PUBLIC 2db80 0 {virtual override thunk({offset(-344)}, geode::Popup<>::keyDown(cocos2d::enumKeyCodes))}
PUBLIC 2dbac 0 {virtual override thunk({offset(-408)}, cocos2d::CCLayerRGBA::setOpacityModifyRGB(bool))}
PUBLIC 2dbb0 0 {virtual override thunk({offset(-408)}, cocos2d::CCLayerRGBA::isOpacityModifyRGB())}
PUBLIC 2dbb8 0 geode::Popup<>::~Popup()
PUBLIC 2dbbc 0 {virtual override thunk({offset(-320)}, geode::Popup<>::~Popup())}
PUBLIC 2dc28 0 {virtual override thunk({offset(-320)}, geode::Popup<>::~Popup())}
PUBLIC 2dc2c 0 TWSFilters::onToggle(cocos2d::CCObject*)
PUBLIC 2dd3c 0 _ZN5geode15UnwrapExceptionC2IRNSt6__ndk112basic_stringIcNS2_11char_traitsIcEENS2_9allocatorIcEEEEQsr4implE18IsStringStreamableIT_EEENS_4impl6ErrTagEOSA_
PUBLIC 2dea4 0 geode::Popup<>::CloseEvent::~CloseEvent()
PUBLIC 2df04 0 geode::Popup<>::CloseEvent::~CloseEvent()
PUBLIC 2df74 0 std::__ndk1::__shared_ptr_emplace<geode::Popup<>::CloseEvent::Impl, std::__ndk1::allocator<geode::Popup<>::CloseEvent::Impl> >::~__shared_ptr_emplace()
PUBLIC 2df84 0 std::__ndk1::__shared_ptr_emplace<geode::Popup<>::CloseEvent::Impl, std::__ndk1::allocator<geode::Popup<>::CloseEvent::Impl> >::~__shared_ptr_emplace()
PUBLIC 2dfb4 0 std::__ndk1::__shared_ptr_emplace<geode::Popup<>::CloseEvent::Impl, std::__ndk1::allocator<geode::Popup<>::CloseEvent::Impl> >::__on_zero_shared()
PUBLIC 2dfb8 0 std::__ndk1::__shared_ptr_emplace<geode::Popup<>::CloseEvent::Impl, std::__ndk1::allocator<geode::Popup<>::CloseEvent::Impl> >::__on_zero_shared_weak()
PUBLIC 2dfbc 0 std::__ndk1::__variant_detail::__visitation::__base::__dispatcher<(unsigned long)0>::__dispatch[abi:ne180000]<std::__ndk1::__variant_detail::__dtor<std::__ndk1::__variant_detail::__traits<std::__ndk1::basic_string<char, std::__ndk1::char_traits<char>, std::__ndk1::allocator<char> >, std::__ndk1::allocator<char> >, (std::__ndk1::__variant_detail::_Trait)1>::__destroy[abi:ne180000]()::{lambda(auto:1&)#1}, std::__ndk1::__variant_detail::__base<(std::__ndk1::__variant_detail::__traits<std::__ndk1::basic_string<char, std::__ndk1::char_traits<char>, std::__ndk1::allocator<char> >, std::__ndk1::allocator<char> >)1, std::__ndk1::allocator<char>, std::__ndk1::allocator<char> >&>(std::__ndk1::__variant_detail::__dtor<std::__ndk1::__variant_detail::__traits<std::__ndk1::basic_string<char, std::__ndk1::char_traits<char>, std::__ndk1::allocator<char> >, std::__ndk1::allocator<char> >, (std::__ndk1::__variant_detail::_Trait)1>, std::__ndk1::__variant_detail::__base<(std::__ndk1::__variant_detail::__traits<std::__ndk1::basic_string<char, std::__ndk1::char_traits<char>, std::__ndk1::allocator<char> >, std::__ndk1::allocator<char> >)1, std::__ndk1::allocator<char>, std::__ndk1::allocator<char> >&)
PUBLIC 2dfd0 0 std::__ndk1::__variant_detail::__visitation::__base::__dispatcher<(unsigned long)1>::__dispatch[abi:ne180000]<std::__ndk1::__variant_detail::__dtor<std::__ndk1::__variant_detail::__traits<std::__ndk1::basic_string<char, std::__ndk1::char_traits<char>, std::__ndk1::allocator<char> >, std::__ndk1::allocator<char> >, (std::__ndk1::__variant_detail::_Trait)1>::__destroy[abi:ne180000]()::{lambda(auto:1&)#1}, std::__ndk1::__variant_detail::__base<(std::__ndk1::__variant_detail::__traits<std::__ndk1::basic_string<char, std::__ndk1::char_traits<char>, std::__ndk1::allocator<char> >, std::__ndk1::allocator<char> >)1, std::__ndk1::allocator<char>, std::__ndk1::allocator<char> >&>(std::__ndk1::__variant_detail::__dtor<std::__ndk1::__variant_detail::__traits<std::__ndk1::basic_string<char, std::__ndk1::char_traits<char>, std::__ndk1::allocator<char> >, std::__ndk1::allocator<char> >, (std::__ndk1::__variant_detail::_Trait)1>, std::__ndk1::__variant_detail::__base<(std::__ndk1::__variant_detail::__traits<std::__ndk1::basic_string<char, std::__ndk1::char_traits<char>, std::__ndk1::allocator<char> >, std::__ndk1::allocator<char> >)1, std::__ndk1::allocator<char>, std::__ndk1::allocator<char> >&)
PUBLIC 2dfe4 0 std::__ndk1::__variant_detail::__visitation::__base::__dispatcher<(unsigned long)0>::__dispatch[abi:ne180000]<std::__ndk1::__variant_detail::__dtor<std::__ndk1::__variant_detail::__traits<long, std::__ndk1::basic_string<char, std::__ndk1::char_traits<char>, std::__ndk1::allocator<char> > >, (std::__ndk1::__variant_detail::_Trait)1>::__destroy[abi:ne180000]()::{lambda(auto:1&)#1}, std::__ndk1::__variant_detail::__base<(std::__ndk1::__variant_detail::__traits<long, std::__ndk1::basic_string<char, std::__ndk1::char_traits<char>, std::__ndk1::allocator<char> > >)1, long, std::__ndk1::allocator<char> >&>(std::__ndk1::__variant_detail::__dtor<std::__ndk1::__variant_detail::__traits<long, std::__ndk1::basic_string<char, std::__ndk1::char_traits<char>, std::__ndk1::allocator<char> > >, (std::__ndk1::__variant_detail::_Trait)1>, std::__ndk1::__variant_detail::__base<(std::__ndk1::__variant_detail::__traits<long, std::__ndk1::basic_string<char, std::__ndk1::char_traits<char>, std::__ndk1::allocator<char> > >)1, long, std::__ndk1::allocator<char> >&)
PUBLIC 2dfe8 0 std::__ndk1::__variant_detail::__visitation::__base::__dispatcher<(unsigned long)1>::__dispatch[abi:ne180000]<std::__ndk1::__variant_detail::__dtor<std::__ndk1::__variant_detail::__traits<long, std::__ndk1::basic_string<char, std::__ndk1::char_traits<char>, std::__ndk1::allocator<char> > >, (std::__ndk1::__variant_detail::_Trait)1>::__destroy[abi:ne180000]()::{lambda(auto:1&)#1}, std::__ndk1::__variant_detail::__base<(std::__ndk1::__variant_detail::__traits<long, std::__ndk1::basic_string<char, std::__ndk1::char_traits<char>, std::__ndk1::allocator<char> > >)1, long, std::__ndk1::allocator<char> >&>(std::__ndk1::__variant_detail::__dtor<std::__ndk1::__variant_detail::__traits<long, std::__ndk1::basic_string<char, std::__ndk1::char_traits<char>, std::__ndk1::allocator<char> > >, (std::__ndk1::__variant_detail::_Trait)1>, std::__ndk1::__variant_detail::__base<(std::__ndk1::__variant_detail::__traits<long, std::__ndk1::basic_string<char, std::__ndk1::char_traits<char>, std::__ndk1::allocator<char> > >)1, long, std::__ndk1::allocator<char> >&)
PUBLIC 2dffc 0 std::__ndk1::basic_string<char, std::__ndk1::char_traits<char>, std::__ndk1::allocator<char> >::__assign_no_alias<true>(char const*, unsigned long)
PUBLIC 2e0a8 0 std::__ndk1::basic_string<char, std::__ndk1::char_traits<char>, std::__ndk1::allocator<char> >::__assign_no_alias<false>(char const*, unsigned long)
PUBLIC 2e1b8 0 TexturePackCell::TexturePackCell()
PUBLIC 2e34c 0 TexturePackCell::init(TexturePack*, bool)
PUBLIC 2f81c 0 TexturePackCell::~TexturePackCell()
PUBLIC 2f914 0 TexturePackCell::~TexturePackCell()
PUBLIC 2f938 0 {virtual override thunk({offset(-320)}, TexturePackCell::~TexturePackCell())}
PUBLIC 2f940 0 {virtual override thunk({offset(-320)}, TexturePackCell::~TexturePackCell())}
PUBLIC 2f968 0 geode::Mod::getSavedValue<std::__ndk1::basic_string<char, std::__ndk1::char_traits<char>, std::__ndk1::allocator<char> > >(std::__ndk1::basic_string_view<char, std::__ndk1::char_traits<char> >)
PUBLIC 2fb50 0 geode::Ref<cocos2d::CCImage>::~Ref()
PUBLIC 2fb6c 0 TexturePackCell::onCreator(cocos2d::CCObject*)
PUBLIC 2fc54 0 TexturePackCell::onDownload(cocos2d::CCObject*)
PUBLIC 2fd04 0 TexturePackCell::onView(cocos2d::CCObject*)
PUBLIC 3006c 0 TexturePackCell::onDelete(cocos2d::CCObject*)
PUBLIC 301d8 0 fmt::v11::detail::value<fmt::v11::context>::format_custom_arg<std::__ndk1::__fs::filesystem::path, fmt::v11::formatter<std::__ndk1::__fs::filesystem::path, char, void> >(void*, fmt::v11::basic_format_parse_context<char>&, fmt::v11::context&)
PUBLIC 30300 0 fmt::v11::formatter<std::__ndk1::__fs::filesystem::path, char, void>::format<fmt::v11::context>(std::__ndk1::__fs::filesystem::path const&, fmt::v11::context&) const
PUBLIC 305c0 0 fmt::v11::detail::parse_align<char>(char const*, char const*, fmt::v11::format_specs&)
PUBLIC 30798 0 fmt::v11::detail::parse_dynamic_spec<char>(char const*, char const*, int&, fmt::v11::detail::arg_ref<char>&, fmt::v11::basic_format_parse_context<char>&)
PUBLIC 3093c 0 fmt::v11::detail::do_parse_arg_id<char, fmt::v11::detail::dynamic_spec_id_handler<char>&>(char const*, char const*, fmt::v11::detail::dynamic_spec_id_handler<char>&)
PUBLIC 30ad0 0 fmt::v11::detail::handle_dynamic_spec<fmt::v11::detail::width_checker, fmt::v11::context>(int&, fmt::v11::detail::arg_ref<fmt::v11::context::char_type>, fmt::v11::context&)
PUBLIC 30be4 0 fmt::v11::detail::write<char, fmt::v11::basic_appender<char> >(fmt::v11::basic_appender<char>, fmt::v11::basic_string_view<char>, fmt::v11::format_specs const&)
PUBLIC 30e60 0 fmt::v11::detail::get_dynamic_spec<fmt::v11::detail::width_checker, fmt::v11::basic_format_arg<fmt::v11::context> >(fmt::v11::basic_format_arg<fmt::v11::context>)
PUBLIC 30ef4 0 fmt::v11::basic_format_args<fmt::v11::context>::get<char>(fmt::v11::basic_string_view<char>) const
PUBLIC 3104c 0 fmt::v11::detail::write_escaped_string<char, fmt::v11::detail::counting_iterator>(fmt::v11::detail::counting_iterator, fmt::v11::basic_string_view<char>)
PUBLIC 3156c 0 fmt::v11::detail::write_padded<char, (fmt::v11::align::type)1, fmt::v11::basic_appender<char>, fmt::v11::detail::write<char, fmt::v11::basic_appender<char> >(fmt::v11::basic_appender<char>, fmt::v11::basic_string_view<char>, fmt::v11::format_specs const&)::{lambda(fmt::v11::basic_appender<char>)#1}>(fmt::v11::basic_appender<char>, fmt::v11::format_specs const&, unsigned long, unsigned long, fmt::v11::detail::write<char, fmt::v11::basic_appender<char> >(fmt::v11::basic_appender<char>, fmt::v11::basic_string_view<char>, fmt::v11::format_specs const&)::{lambda(fmt::v11::basic_appender<char>&&)#1})
PUBLIC 31778 0 fmt::v11::detail::for_each_codepoint<fmt::v11::detail::code_point_index(fmt::v11::basic_string_view<char>, unsigned long)::{lambda(unsigned int, fmt::v11::basic_string_view<char>)#1}>(fmt::v11::basic_string_view<char>, fmt::v11::detail::code_point_index(fmt::v11::basic_string_view<char>, unsigned long)::{lambda(unsigned int, fmt::v11::basic_string_view<char>)#1})
PUBLIC 31ba0 0 fmt::v11::detail::write_escaped_cp<fmt::v11::detail::counting_iterator, char>(fmt::v11::detail::counting_iterator, fmt::v11::detail::find_escape_result<char> const&)
PUBLIC 31d34 0 fmt::v11::detail::for_each_codepoint<fmt::v11::detail::compute_width(fmt::v11::basic_string_view<char>)::count_code_points>(fmt::v11::basic_string_view<char>, fmt::v11::detail::compute_width(fmt::v11::basic_string_view<char>)::count_code_points)::{lambda(char const*, char const*)#1}::operator()(char const*, char const*) const
PUBLIC 31eec 0 fmt::v11::detail::fill<char, fmt::v11::basic_appender<char> >(fmt::v11::basic_appender<char>, unsigned long, fmt::v11::detail::fill_t const&)
PUBLIC 320bc 0 fmt::v11::detail::write_escaped_string<char, fmt::v11::basic_appender<char> >(fmt::v11::basic_appender<char>, fmt::v11::basic_string_view<char>)
PUBLIC 32738 0 fmt::v11::detail::write_escaped_cp<fmt::v11::basic_appender<char>, char>(fmt::v11::basic_appender<char>, fmt::v11::detail::find_escape_result<char> const&)
PUBLIC 3291c 0 fmt::v11::detail::write_codepoint<(unsigned long)2, char, fmt::v11::basic_appender<char> >(fmt::v11::basic_appender<char>, char, unsigned int)
PUBLIC 32a94 0 fmt::v11::detail::write_codepoint<(unsigned long)4, char, fmt::v11::basic_appender<char> >(fmt::v11::basic_appender<char>, char, unsigned int)
PUBLIC 32c0c 0 fmt::v11::detail::write_codepoint<(unsigned long)8, char, fmt::v11::basic_appender<char> >(fmt::v11::basic_appender<char>, char, unsigned int)
PUBLIC 32d84 0 fmt::v11::basic_memory_buffer<char, (unsigned long)500, std::__ndk1::allocator<char> >::grow(fmt::v11::detail::buffer<char>&, unsigned long)
PUBLIC 32dfc 0 fmt::v11::detail::write_escaped_string<char, std::__ndk1::back_insert_iterator<fmt::v11::basic_memory_buffer<char, (unsigned long)500, std::__ndk1::allocator<char> > > >(std::__ndk1::back_insert_iterator<fmt::v11::basic_memory_buffer<char, (unsigned long)500, std::__ndk1::allocator<char> > >, fmt::v11::basic_string_view<char>)
PUBLIC 33478 0 fmt::v11::detail::write_escaped_cp<std::__ndk1::back_insert_iterator<fmt::v11::basic_memory_buffer<char, (unsigned long)500, std::__ndk1::allocator<char> > >, char>(std::__ndk1::back_insert_iterator<fmt::v11::basic_memory_buffer<char, (unsigned long)500, std::__ndk1::allocator<char> > >, fmt::v11::detail::find_escape_result<char> const&)
PUBLIC 3365c 0 fmt::v11::detail::write_codepoint<(unsigned long)2, char, std::__ndk1::back_insert_iterator<fmt::v11::basic_memory_buffer<char, (unsigned long)500, std::__ndk1::allocator<char> > > >(std::__ndk1::back_insert_iterator<fmt::v11::basic_memory_buffer<char, (unsigned long)500, std::__ndk1::allocator<char> > >, char, unsigned int)
PUBLIC 337d4 0 fmt::v11::detail::write_codepoint<(unsigned long)4, char, std::__ndk1::back_insert_iterator<fmt::v11::basic_memory_buffer<char, (unsigned long)500, std::__ndk1::allocator<char> > > >(std::__ndk1::back_insert_iterator<fmt::v11::basic_memory_buffer<char, (unsigned long)500, std::__ndk1::allocator<char> > >, char, unsigned int)
PUBLIC 3394c 0 fmt::v11::detail::write_codepoint<(unsigned long)8, char, std::__ndk1::back_insert_iterator<fmt::v11::basic_memory_buffer<char, (unsigned long)500, std::__ndk1::allocator<char> > > >(std::__ndk1::back_insert_iterator<fmt::v11::basic_memory_buffer<char, (unsigned long)500, std::__ndk1::allocator<char> > >, char, unsigned int)
PUBLIC 33ac4 0 std::__ndk1::__function::__func<TexturePackCell::init(TexturePack*, bool)::{lambda(geode::Task<geode::utils::web::WebResponse, geode::utils::web::WebProgress>::Event*)#1}, std::__ndk1::allocator<TexturePackCell::init(TexturePack*, bool)::{lambda(geode::Task<geode::utils::web::WebResponse, geode::utils::web::WebProgress>::Event*)#1}>, void (geode::Task<geode::utils::web::WebResponse, geode::utils::web::WebProgress>::Event*)>::~__func()
PUBLIC 33ac8 0 std::__ndk1::__function::__func<TexturePackCell::init(TexturePack*, bool)::{lambda(geode::Task<geode::utils::web::WebResponse, geode::utils::web::WebProgress>::Event*)#1}, std::__ndk1::allocator<TexturePackCell::init(TexturePack*, bool)::{lambda(geode::Task<geode::utils::web::WebResponse, geode::utils::web::WebProgress>::Event*)#1}>, void (geode::Task<geode::utils::web::WebResponse, geode::utils::web::WebProgress>::Event*)>::__clone() const
PUBLIC 33b08 0 std::__ndk1::__function::__func<TexturePackCell::init(TexturePack*, bool)::{lambda(geode::Task<geode::utils::web::WebResponse, geode::utils::web::WebProgress>::Event*)#1}, std::__ndk1::allocator<TexturePackCell::init(TexturePack*, bool)::{lambda(geode::Task<geode::utils::web::WebResponse, geode::utils::web::WebProgress>::Event*)#1}>, void (geode::Task<geode::utils::web::WebResponse, geode::utils::web::WebProgress>::Event*)>::__clone(std::__ndk1::__function::__base<void (geode::Task<geode::utils::web::WebResponse, geode::utils::web::WebProgress>::Event*)>*) const
PUBLIC 33b28 0 std::__ndk1::__function::__func<TexturePackCell::init(TexturePack*, bool)::{lambda(geode::Task<geode::utils::web::WebResponse, geode::utils::web::WebProgress>::Event*)#1}, std::__ndk1::allocator<TexturePackCell::init(TexturePack*, bool)::{lambda(geode::Task<geode::utils::web::WebResponse, geode::utils::web::WebProgress>::Event*)#1}>, void (geode::Task<geode::utils::web::WebResponse, geode::utils::web::WebProgress>::Event*)>::destroy()
PUBLIC 33b2c 0 std::__ndk1::__function::__func<TexturePackCell::init(TexturePack*, bool)::{lambda(geode::Task<geode::utils::web::WebResponse, geode::utils::web::WebProgress>::Event*)#1}, std::__ndk1::allocator<TexturePackCell::init(TexturePack*, bool)::{lambda(geode::Task<geode::utils::web::WebResponse, geode::utils::web::WebProgress>::Event*)#1}>, void (geode::Task<geode::utils::web::WebResponse, geode::utils::web::WebProgress>::Event*)>::destroy_deallocate()
PUBLIC 33b30 0 std::__ndk1::__function::__func<TexturePackCell::init(TexturePack*, bool)::{lambda(geode::Task<geode::utils::web::WebResponse, geode::utils::web::WebProgress>::Event*)#1}, std::__ndk1::allocator<TexturePackCell::init(TexturePack*, bool)::{lambda(geode::Task<geode::utils::web::WebResponse, geode::utils::web::WebProgress>::Event*)#1}>, void (geode::Task<geode::utils::web::WebResponse, geode::utils::web::WebProgress>::Event*)>::operator()(geode::Task<geode::utils::web::WebResponse, geode::utils::web::WebProgress>::Event*&&)
PUBLIC 33dfc 0 std::__ndk1::__function::__func<TexturePackCell::init(TexturePack*, bool)::{lambda(geode::Task<geode::utils::web::WebResponse, geode::utils::web::WebProgress>::Event*)#1}, std::__ndk1::allocator<TexturePackCell::init(TexturePack*, bool)::{lambda(geode::Task<geode::utils::web::WebResponse, geode::utils::web::WebProgress>::Event*)#1}>, void (geode::Task<geode::utils::web::WebResponse, geode::utils::web::WebProgress>::Event*)>::target(std::type_info const&) const
PUBLIC 33e18 0 std::__ndk1::__function::__func<TexturePackCell::init(TexturePack*, bool)::{lambda(geode::Task<geode::utils::web::WebResponse, geode::utils::web::WebProgress>::Event*)#1}, std::__ndk1::allocator<TexturePackCell::init(TexturePack*, bool)::{lambda(geode::Task<geode::utils::web::WebResponse, geode::utils::web::WebProgress>::Event*)#1}>, void (geode::Task<geode::utils::web::WebResponse, geode::utils::web::WebProgress>::Event*)>::target_type() const
PUBLIC 33e24 0 TexturePackInfo::~TexturePackInfo()
PUBLIC 33e9c 0 TexturePackInfo::~TexturePackInfo()
PUBLIC 33f1c 0 geode::Popup<TexturePack*>::registerWithTouchDispatcher()
PUBLIC 33f48 0 geode::Popup<TexturePack*>::keyDown(cocos2d::enumKeyCodes)
PUBLIC 33f70 0 TexturePackInfo::setup(TexturePack*)
PUBLIC 34f30 0 geode::Popup<TexturePack*>::onClose(cocos2d::CCObject*)
PUBLIC 35078 0 {virtual override thunk({offset(-320)}, TexturePackInfo::~TexturePackInfo())}
PUBLIC 350f0 0 {virtual override thunk({offset(-320)}, TexturePackInfo::~TexturePackInfo())}
PUBLIC 35170 0 {virtual override thunk({offset(-344)}, geode::Popup<TexturePack*>::keyDown(cocos2d::enumKeyCodes))}
PUBLIC 3519c 0 geode::Popup<TexturePack*>::~Popup()
PUBLIC 35208 0 geode::Popup<TexturePack*>::~Popup()
PUBLIC 3520c 0 {virtual override thunk({offset(-320)}, geode::Popup<TexturePack*>::~Popup())}
PUBLIC 35278 0 {virtual override thunk({offset(-320)}, geode::Popup<TexturePack*>::~Popup())}
PUBLIC 3527c 0 TexturePackInfo::onDelete(cocos2d::CCObject*)
PUBLIC 353e8 0 std::__ndk1::basic_string<char, std::__ndk1::char_traits<char>, std::__ndk1::allocator<char> >::__assign_external(char const*, unsigned long)
PUBLIC 354e8 0 std::__ndk1::__function::__func<TexturePackInfo::onDelete(cocos2d::CCObject*)::{lambda(auto:1, bool)#1}, std::__ndk1::allocator<TexturePackInfo::onDelete(cocos2d::CCObject*)::{lambda(auto:1, bool)#1}>, void (FLAlertLayer*, bool)>::~__func()
PUBLIC 354ec 0 std::__ndk1::__function::__func<TexturePackInfo::onDelete(cocos2d::CCObject*)::{lambda(auto:1, bool)#1}, std::__ndk1::allocator<TexturePackInfo::onDelete(cocos2d::CCObject*)::{lambda(auto:1, bool)#1}>, void (FLAlertLayer*, bool)>::__clone() const
PUBLIC 35520 0 std::__ndk1::__function::__func<TexturePackInfo::onDelete(cocos2d::CCObject*)::{lambda(auto:1, bool)#1}, std::__ndk1::allocator<TexturePackInfo::onDelete(cocos2d::CCObject*)::{lambda(auto:1, bool)#1}>, void (FLAlertLayer*, bool)>::__clone(std::__ndk1::__function::__base<void (FLAlertLayer*, bool)>*) const
PUBLIC 35534 0 std::__ndk1::__function::__func<TexturePackInfo::onDelete(cocos2d::CCObject*)::{lambda(auto:1, bool)#1}, std::__ndk1::allocator<TexturePackInfo::onDelete(cocos2d::CCObject*)::{lambda(auto:1, bool)#1}>, void (FLAlertLayer*, bool)>::destroy()
PUBLIC 35538 0 std::__ndk1::__function::__func<TexturePackInfo::onDelete(cocos2d::CCObject*)::{lambda(auto:1, bool)#1}, std::__ndk1::allocator<TexturePackInfo::onDelete(cocos2d::CCObject*)::{lambda(auto:1, bool)#1}>, void (FLAlertLayer*, bool)>::destroy_deallocate()
PUBLIC 3553c 0 std::__ndk1::__function::__func<TexturePackInfo::onDelete(cocos2d::CCObject*)::{lambda(auto:1, bool)#1}, std::__ndk1::allocator<TexturePackInfo::onDelete(cocos2d::CCObject*)::{lambda(auto:1, bool)#1}>, void (FLAlertLayer*, bool)>::operator()(FLAlertLayer*&&, bool&&)
PUBLIC 35804 0 std::__ndk1::__function::__func<TexturePackInfo::onDelete(cocos2d::CCObject*)::{lambda(auto:1, bool)#1}, std::__ndk1::allocator<TexturePackInfo::onDelete(cocos2d::CCObject*)::{lambda(auto:1, bool)#1}>, void (FLAlertLayer*, bool)>::target(std::type_info const&) const
PUBLIC 35820 0 std::__ndk1::__function::__func<TexturePackInfo::onDelete(cocos2d::CCObject*)::{lambda(auto:1, bool)#1}, std::__ndk1::allocator<TexturePackInfo::onDelete(cocos2d::CCObject*)::{lambda(auto:1, bool)#1}>, void (FLAlertLayer*, bool)>::target_type() const
PUBLIC 3582c 0 _ZNSt6__ndk112basic_stringIcNS_11char_traitsIcEENS_9allocatorIcEEE6appendB8ne180000IPKcTnNS_9enable_ifIXsr31__has_forward_iterator_categoryIT_EE5valueEiE4typeELi0EEERS5_SA_SA_
PUBLIC 35b30 0 geode::Popup<TexturePack*>::CloseEvent::~CloseEvent()
PUBLIC 35b90 0 geode::Popup<TexturePack*>::CloseEvent::~CloseEvent()
PUBLIC 35c00 0 std::__ndk1::__shared_ptr_emplace<geode::Popup<TexturePack*>::CloseEvent::Impl, std::__ndk1::allocator<geode::Popup<TexturePack*>::CloseEvent::Impl> >::~__shared_ptr_emplace()
PUBLIC 35c10 0 std::__ndk1::__shared_ptr_emplace<geode::Popup<TexturePack*>::CloseEvent::Impl, std::__ndk1::allocator<geode::Popup<TexturePack*>::CloseEvent::Impl> >::~__shared_ptr_emplace()
PUBLIC 35c40 0 std::__ndk1::__shared_ptr_emplace<geode::Popup<TexturePack*>::CloseEvent::Impl, std::__ndk1::allocator<geode::Popup<TexturePack*>::CloseEvent::Impl> >::__on_zero_shared()
PUBLIC 35c44 0 std::__ndk1::__shared_ptr_emplace<geode::Popup<TexturePack*>::CloseEvent::Impl, std::__ndk1::allocator<geode::Popup<TexturePack*>::CloseEvent::Impl> >::__on_zero_shared_weak()
PUBLIC 35c48 0 std::__ndk1::__function::__func<TexturePackCell::onDelete(cocos2d::CCObject*)::{lambda(auto:1, bool)#1}, std::__ndk1::allocator<TexturePackCell::onDelete(cocos2d::CCObject*)::{lambda(auto:1, bool)#1}>, void (FLAlertLayer*, bool)>::~__func()
PUBLIC 35c4c 0 std::__ndk1::__function::__func<TexturePackCell::onDelete(cocos2d::CCObject*)::{lambda(auto:1, bool)#1}, std::__ndk1::allocator<TexturePackCell::onDelete(cocos2d::CCObject*)::{lambda(auto:1, bool)#1}>, void (FLAlertLayer*, bool)>::__clone() const
PUBLIC 35c80 0 std::__ndk1::__function::__func<TexturePackCell::onDelete(cocos2d::CCObject*)::{lambda(auto:1, bool)#1}, std::__ndk1::allocator<TexturePackCell::onDelete(cocos2d::CCObject*)::{lambda(auto:1, bool)#1}>, void (FLAlertLayer*, bool)>::__clone(std::__ndk1::__function::__base<void (FLAlertLayer*, bool)>*) const
PUBLIC 35c94 0 std::__ndk1::__function::__func<TexturePackCell::onDelete(cocos2d::CCObject*)::{lambda(auto:1, bool)#1}, std::__ndk1::allocator<TexturePackCell::onDelete(cocos2d::CCObject*)::{lambda(auto:1, bool)#1}>, void (FLAlertLayer*, bool)>::destroy()
PUBLIC 35c98 0 std::__ndk1::__function::__func<TexturePackCell::onDelete(cocos2d::CCObject*)::{lambda(auto:1, bool)#1}, std::__ndk1::allocator<TexturePackCell::onDelete(cocos2d::CCObject*)::{lambda(auto:1, bool)#1}>, void (FLAlertLayer*, bool)>::destroy_deallocate()
PUBLIC 35c9c 0 std::__ndk1::__function::__func<TexturePackCell::onDelete(cocos2d::CCObject*)::{lambda(auto:1, bool)#1}, std::__ndk1::allocator<TexturePackCell::onDelete(cocos2d::CCObject*)::{lambda(auto:1, bool)#1}>, void (FLAlertLayer*, bool)>::operator()(FLAlertLayer*&&, bool&&)
PUBLIC 35f50 0 std::__ndk1::__function::__func<TexturePackCell::onDelete(cocos2d::CCObject*)::{lambda(auto:1, bool)#1}, std::__ndk1::allocator<TexturePackCell::onDelete(cocos2d::CCObject*)::{lambda(auto:1, bool)#1}>, void (FLAlertLayer*, bool)>::target(std::type_info const&) const
PUBLIC 35f6c 0 std::__ndk1::__function::__func<TexturePackCell::onDelete(cocos2d::CCObject*)::{lambda(auto:1, bool)#1}, std::__ndk1::allocator<TexturePackCell::onDelete(cocos2d::CCObject*)::{lambda(auto:1, bool)#1}>, void (FLAlertLayer*, bool)>::target_type() const
PUBLIC 35f78 0 std::__ndk1::vector<TexturePack*, std::__ndk1::allocator<TexturePack*> >::__throw_length_error[abi:ne180000]() const
PUBLIC 35f8c 0 std::__ndk1::__throw_out_of_range[abi:ne180000](char const*)
PUBLIC 35fdc 0 std::out_of_range::out_of_range[abi:ne180000](char const*)
PUBLIC 3600c 0 std::__ndk1::basic_string<char, std::__ndk1::char_traits<char>, std::__ndk1::allocator<char> >::__throw_out_of_range[abi:ne180000]() const
PUBLIC 36018 0 std::__ndk1::__function::__value_func<void (geode::Task<geode::utils::web::WebResponse, geode::utils::web::WebProgress>::Event*)>::swap[abi:ne180000](std::__ndk1::__function::__value_func<void (geode::Task<geode::utils::web::WebResponse, geode::utils::web::WebProgress>::Event*)>&)
PUBLIC 361b0 0 std::__ndk1::__function::__func<TextureWorkshopLayer::onDiscord(cocos2d::CCObject*)::$_0, std::__ndk1::allocator<TextureWorkshopLayer::onDiscord(cocos2d::CCObject*)::$_0>, void (FLAlertLayer*, bool)>::~__func()
PUBLIC 361b4 0 std::__ndk1::__function::__func<TextureWorkshopLayer::onDiscord(cocos2d::CCObject*)::$_0, std::__ndk1::allocator<TextureWorkshopLayer::onDiscord(cocos2d::CCObject*)::$_0>, void (FLAlertLayer*, bool)>::__clone() const
PUBLIC 361d8 0 std::__ndk1::__function::__func<TextureWorkshopLayer::onDiscord(cocos2d::CCObject*)::$_0, std::__ndk1::allocator<TextureWorkshopLayer::onDiscord(cocos2d::CCObject*)::$_0>, void (FLAlertLayer*, bool)>::__clone(std::__ndk1::__function::__base<void (FLAlertLayer*, bool)>*) const
PUBLIC 361e8 0 std::__ndk1::__function::__func<TextureWorkshopLayer::onDiscord(cocos2d::CCObject*)::$_0, std::__ndk1::allocator<TextureWorkshopLayer::onDiscord(cocos2d::CCObject*)::$_0>, void (FLAlertLayer*, bool)>::destroy()
PUBLIC 361ec 0 std::__ndk1::__function::__func<TextureWorkshopLayer::onDiscord(cocos2d::CCObject*)::$_0, std::__ndk1::allocator<TextureWorkshopLayer::onDiscord(cocos2d::CCObject*)::$_0>, void (FLAlertLayer*, bool)>::destroy_deallocate()
PUBLIC 361f0 0 std::__ndk1::__function::__func<TextureWorkshopLayer::onDiscord(cocos2d::CCObject*)::$_0, std::__ndk1::allocator<TextureWorkshopLayer::onDiscord(cocos2d::CCObject*)::$_0>, void (FLAlertLayer*, bool)>::operator()(FLAlertLayer*&&, bool&&)
PUBLIC 362b0 0 std::__ndk1::__function::__func<TextureWorkshopLayer::onDiscord(cocos2d::CCObject*)::$_0, std::__ndk1::allocator<TextureWorkshopLayer::onDiscord(cocos2d::CCObject*)::$_0>, void (FLAlertLayer*, bool)>::target(std::type_info const&) const
PUBLIC 362cc 0 std::__ndk1::__function::__func<TextureWorkshopLayer::onDiscord(cocos2d::CCObject*)::$_0, std::__ndk1::allocator<TextureWorkshopLayer::onDiscord(cocos2d::CCObject*)::$_0>, void (FLAlertLayer*, bool)>::target_type() const
PUBLIC 362d8 0 std::__ndk1::__function::__base<void (FLAlertLayer*, bool)>::~__base()
PUBLIC 362dc 0 std::__ndk1::__function::__func<TextureWorkshopLayer::onSupport(cocos2d::CCObject*)::$_0, std::__ndk1::allocator<TextureWorkshopLayer::onSupport(cocos2d::CCObject*)::$_0>, void (FLAlertLayer*, bool)>::~__func()
PUBLIC 362e0 0 std::__ndk1::__function::__func<TextureWorkshopLayer::onSupport(cocos2d::CCObject*)::$_0, std::__ndk1::allocator<TextureWorkshopLayer::onSupport(cocos2d::CCObject*)::$_0>, void (FLAlertLayer*, bool)>::__clone() const
PUBLIC 36304 0 std::__ndk1::__function::__func<TextureWorkshopLayer::onSupport(cocos2d::CCObject*)::$_0, std::__ndk1::allocator<TextureWorkshopLayer::onSupport(cocos2d::CCObject*)::$_0>, void (FLAlertLayer*, bool)>::__clone(std::__ndk1::__function::__base<void (FLAlertLayer*, bool)>*) const
PUBLIC 36314 0 std::__ndk1::__function::__func<TextureWorkshopLayer::onSupport(cocos2d::CCObject*)::$_0, std::__ndk1::allocator<TextureWorkshopLayer::onSupport(cocos2d::CCObject*)::$_0>, void (FLAlertLayer*, bool)>::destroy()
PUBLIC 36318 0 std::__ndk1::__function::__func<TextureWorkshopLayer::onSupport(cocos2d::CCObject*)::$_0, std::__ndk1::allocator<TextureWorkshopLayer::onSupport(cocos2d::CCObject*)::$_0>, void (FLAlertLayer*, bool)>::destroy_deallocate()
PUBLIC 3631c 0 std::__ndk1::__function::__func<TextureWorkshopLayer::onSupport(cocos2d::CCObject*)::$_0, std::__ndk1::allocator<TextureWorkshopLayer::onSupport(cocos2d::CCObject*)::$_0>, void (FLAlertLayer*, bool)>::operator()(FLAlertLayer*&&, bool&&)
PUBLIC 363dc 0 std::__ndk1::__function::__func<TextureWorkshopLayer::onSupport(cocos2d::CCObject*)::$_0, std::__ndk1::allocator<TextureWorkshopLayer::onSupport(cocos2d::CCObject*)::$_0>, void (FLAlertLayer*, bool)>::target(std::type_info const&) const
PUBLIC 363f8 0 std::__ndk1::__function::__func<TextureWorkshopLayer::onSupport(cocos2d::CCObject*)::$_0, std::__ndk1::allocator<TextureWorkshopLayer::onSupport(cocos2d::CCObject*)::$_0>, void (FLAlertLayer*, bool)>::target_type() const
PUBLIC 36404 0 std::__ndk1::__function::__base<void (geode::Task<geode::utils::web::WebResponse, geode::utils::web::WebProgress>::Event*)>::~__base()
PUBLIC 36408 0 std::__ndk1::__function::__func<TextureWorkshopLayer::getTexturePacks()::$_0, std::__ndk1::allocator<TextureWorkshopLayer::getTexturePacks()::$_0>, void (geode::Task<geode::utils::web::WebResponse, geode::utils::web::WebProgress>::Event*)>::~__func()
PUBLIC 3640c 0 std::__ndk1::__function::__func<TextureWorkshopLayer::getTexturePacks()::$_0, std::__ndk1::allocator<TextureWorkshopLayer::getTexturePacks()::$_0>, void (geode::Task<geode::utils::web::WebResponse, geode::utils::web::WebProgress>::Event*)>::__clone() const
PUBLIC 36444 0 std::__ndk1::__function::__func<TextureWorkshopLayer::getTexturePacks()::$_0, std::__ndk1::allocator<TextureWorkshopLayer::getTexturePacks()::$_0>, void (geode::Task<geode::utils::web::WebResponse, geode::utils::web::WebProgress>::Event*)>::__clone(std::__ndk1::__function::__base<void (geode::Task<geode::utils::web::WebResponse, geode::utils::web::WebProgress>::Event*)>*) const
PUBLIC 3645c 0 std::__ndk1::__function::__func<TextureWorkshopLayer::getTexturePacks()::$_0, std::__ndk1::allocator<TextureWorkshopLayer::getTexturePacks()::$_0>, void (geode::Task<geode::utils::web::WebResponse, geode::utils::web::WebProgress>::Event*)>::destroy()
PUBLIC 36460 0 std::__ndk1::__function::__func<TextureWorkshopLayer::getTexturePacks()::$_0, std::__ndk1::allocator<TextureWorkshopLayer::getTexturePacks()::$_0>, void (geode::Task<geode::utils::web::WebResponse, geode::utils::web::WebProgress>::Event*)>::destroy_deallocate()
PUBLIC 36464 0 std::__ndk1::__function::__func<TextureWorkshopLayer::getTexturePacks()::$_0, std::__ndk1::allocator<TextureWorkshopLayer::getTexturePacks()::$_0>, void (geode::Task<geode::utils::web::WebResponse, geode::utils::web::WebProgress>::Event*)>::operator()(geode::Task<geode::utils::web::WebResponse, geode::utils::web::WebProgress>::Event*&&)
PUBLIC 367a4 0 std::__ndk1::__function::__func<TextureWorkshopLayer::getTexturePacks()::$_0, std::__ndk1::allocator<TextureWorkshopLayer::getTexturePacks()::$_0>, void (geode::Task<geode::utils::web::WebResponse, geode::utils::web::WebProgress>::Event*)>::target(std::type_info const&) const
PUBLIC 367c0 0 std::__ndk1::__function::__func<TextureWorkshopLayer::getTexturePacks()::$_0, std::__ndk1::allocator<TextureWorkshopLayer::getTexturePacks()::$_0>, void (geode::Task<geode::utils::web::WebResponse, geode::utils::web::WebProgress>::Event*)>::target_type() const
PUBLIC 367cc 0 geode::impl::ResultData<matjson::Value, std::__ndk1::basic_string<char, std::__ndk1::char_traits<char>, std::__ndk1::allocator<char> > >::~ResultData()
PUBLIC 36840 0 std::__ndk1::__variant_detail::__visitation::__base::__dispatcher<(unsigned long)0>::__dispatch[abi:ne180000]<std::__ndk1::__variant_detail::__dtor<std::__ndk1::__variant_detail::__traits<matjson::Value, std::__ndk1::basic_string<char, std::__ndk1::char_traits<char>, std::__ndk1::allocator<char> > >, (std::__ndk1::__variant_detail::_Trait)1>::__destroy[abi:ne180000]()::{lambda(auto:1&)#1}, std::__ndk1::__variant_detail::__base<(std::__ndk1::__variant_detail::__traits<matjson::Value, std::__ndk1::basic_string<char, std::__ndk1::char_traits<char>, std::__ndk1::allocator<char> > >)1, matjson, std::__ndk1::allocator<char> >&>(std::__ndk1::__variant_detail::__dtor<std::__ndk1::__variant_detail::__traits<matjson::Value, std::__ndk1::basic_string<char, std::__ndk1::char_traits<char>, std::__ndk1::allocator<char> > >, (std::__ndk1::__variant_detail::_Trait)1>, std::__ndk1::__variant_detail::__base<(std::__ndk1::__variant_detail::__traits<matjson::Value, std::__ndk1::basic_string<char, std::__ndk1::char_traits<char>, std::__ndk1::allocator<char> > >)1, matjson, std::__ndk1::allocator<char> >&)
PUBLIC 36848 0 std::__ndk1::__variant_detail::__visitation::__base::__dispatcher<(unsigned long)1>::__dispatch[abi:ne180000]<std::__ndk1::__variant_detail::__dtor<std::__ndk1::__variant_detail::__traits<matjson::Value, std::__ndk1::basic_string<char, std::__ndk1::char_traits<char>, std::__ndk1::allocator<char> > >, (std::__ndk1::__variant_detail::_Trait)1>::__destroy[abi:ne180000]()::{lambda(auto:1&)#1}, std::__ndk1::__variant_detail::__base<(std::__ndk1::__variant_detail::__traits<matjson::Value, std::__ndk1::basic_string<char, std::__ndk1::char_traits<char>, std::__ndk1::allocator<char> > >)1, matjson, std::__ndk1::allocator<char> >&>(std::__ndk1::__variant_detail::__dtor<std::__ndk1::__variant_detail::__traits<matjson::Value, std::__ndk1::basic_string<char, std::__ndk1::char_traits<char>, std::__ndk1::allocator<char> > >, (std::__ndk1::__variant_detail::_Trait)1>, std::__ndk1::__variant_detail::__base<(std::__ndk1::__variant_detail::__traits<matjson::Value, std::__ndk1::basic_string<char, std::__ndk1::char_traits<char>, std::__ndk1::allocator<char> > >)1, matjson, std::__ndk1::allocator<char> >&)
PUBLIC 3685c 0 TexturePack::downloadPack()
PUBLIC 36d78 0 std::__ndk1::__function::__func<TexturePack::downloadPack()::$_0, std::__ndk1::allocator<TexturePack::downloadPack()::$_0>, void (geode::Task<geode::utils::web::WebResponse, geode::utils::web::WebProgress>::Event*)>::~__func()
PUBLIC 36d7c 0 std::__ndk1::__function::__func<TexturePack::downloadPack()::$_0, std::__ndk1::allocator<TexturePack::downloadPack()::$_0>, void (geode::Task<geode::utils::web::WebResponse, geode::utils::web::WebProgress>::Event*)>::__clone() const
PUBLIC 36db0 0 std::__ndk1::__function::__func<TexturePack::downloadPack()::$_0, std::__ndk1::allocator<TexturePack::downloadPack()::$_0>, void (geode::Task<geode::utils::web::WebResponse, geode::utils::web::WebProgress>::Event*)>::__clone(std::__ndk1::__function::__base<void (geode::Task<geode::utils::web::WebResponse, geode::utils::web::WebProgress>::Event*)>*) const
PUBLIC 36dc4 0 std::__ndk1::__function::__func<TexturePack::downloadPack()::$_0, std::__ndk1::allocator<TexturePack::downloadPack()::$_0>, void (geode::Task<geode::utils::web::WebResponse, geode::utils::web::WebProgress>::Event*)>::destroy()
PUBLIC 36dc8 0 std::__ndk1::__function::__func<TexturePack::downloadPack()::$_0, std::__ndk1::allocator<TexturePack::downloadPack()::$_0>, void (geode::Task<geode::utils::web::WebResponse, geode::utils::web::WebProgress>::Event*)>::destroy_deallocate()
PUBLIC 36dcc 0 std::__ndk1::__function::__func<TexturePack::downloadPack()::$_0, std::__ndk1::allocator<TexturePack::downloadPack()::$_0>, void (geode::Task<geode::utils::web::WebResponse, geode::utils::web::WebProgress>::Event*)>::operator()(geode::Task<geode::utils::web::WebResponse, geode::utils::web::WebProgress>::Event*&&)
PUBLIC 375dc 0 std::__ndk1::__function::__func<TexturePack::downloadPack()::$_0, std::__ndk1::allocator<TexturePack::downloadPack()::$_0>, void (geode::Task<geode::utils::web::WebResponse, geode::utils::web::WebProgress>::Event*)>::target(std::type_info const&) const
PUBLIC 375f8 0 std::__ndk1::__function::__func<TexturePack::downloadPack()::$_0, std::__ndk1::allocator<TexturePack::downloadPack()::$_0>, void (geode::Task<geode::utils::web::WebResponse, geode::utils::web::WebProgress>::Event*)>::target_type() const
PUBLIC 37604 0 std::__ndk1::__variant_detail::__visitation::__base::__dispatcher<(unsigned long)0>::__dispatch[abi:ne180000]<std::__ndk1::__variant_detail::__dtor<std::__ndk1::__variant_detail::__traits<std::__ndk1::monostate, std::__ndk1::basic_string<char, std::__ndk1::char_traits<char>, std::__ndk1::allocator<char> > >, (std::__ndk1::__variant_detail::_Trait)1>::__destroy[abi:ne180000]()::{lambda(auto:1&)#1}, std::__ndk1::__variant_detail::__base<(std::__ndk1::__variant_detail::__traits<std::__ndk1::monostate, std::__ndk1::basic_string<char, std::__ndk1::char_traits<char>, std::__ndk1::allocator<char> > >)1, std::__ndk1::__variant_detail::__traits, std::__ndk1::allocator<char> >&>(std::__ndk1::__variant_detail::__dtor<std::__ndk1::__variant_detail::__traits<std::__ndk1::monostate, std::__ndk1::basic_string<char, std::__ndk1::char_traits<char>, std::__ndk1::allocator<char> > >, (std::__ndk1::__variant_detail::_Trait)1>, std::__ndk1::__variant_detail::__base<(std::__ndk1::__variant_detail::__traits<std::__ndk1::monostate, std::__ndk1::basic_string<char, std::__ndk1::char_traits<char>, std::__ndk1::allocator<char> > >)1, std::__ndk1::__variant_detail::__traits, std::__ndk1::allocator<char> >&)
PUBLIC 37608 0 std::__ndk1::__variant_detail::__visitation::__base::__dispatcher<(unsigned long)1>::__dispatch[abi:ne180000]<std::__ndk1::__variant_detail::__dtor<std::__ndk1::__variant_detail::__traits<std::__ndk1::monostate, std::__ndk1::basic_string<char, std::__ndk1::char_traits<char>, std::__ndk1::allocator<char> > >, (std::__ndk1::__variant_detail::_Trait)1>::__destroy[abi:ne180000]()::{lambda(auto:1&)#1}, std::__ndk1::__variant_detail::__base<(std::__ndk1::__variant_detail::__traits<std::__ndk1::monostate, std::__ndk1::basic_string<char, std::__ndk1::char_traits<char>, std::__ndk1::allocator<char> > >)1, std::__ndk1::__variant_detail::__traits, std::__ndk1::allocator<char> >&>(std::__ndk1::__variant_detail::__dtor<std::__ndk1::__variant_detail::__traits<std::__ndk1::monostate, std::__ndk1::basic_string<char, std::__ndk1::char_traits<char>, std::__ndk1::allocator<char> > >, (std::__ndk1::__variant_detail::_Trait)1>, std::__ndk1::__variant_detail::__base<(std::__ndk1::__variant_detail::__traits<std::__ndk1::monostate, std::__ndk1::basic_string<char, std::__ndk1::char_traits<char>, std::__ndk1::allocator<char> > >)1, std::__ndk1::__variant_detail::__traits, std::__ndk1::allocator<char> >&)
PUBLIC 3761c 0 TexturePackInfo::onDownload(cocos2d::CCObject*)
PUBLIC m 377f4 0 geodeImplicitEntry
PUBLIC 37830 0 cocos2d::CCDestructor::~CCDestructor()
PUBLIC 3792c 0 wrapFunction(unsigned long, tulip::hook::WrapperMetadata const&)
PUBLIC 37a60 0 geode::impl::ResultData<void*, std::__ndk1::basic_string<char, std::__ndk1::char_traits<char>, std::__ndk1::allocator<char> > >::unwrapErr() &
PUBLIC 37ad8 0 geode::impl::ResultData<void*, std::__ndk1::basic_string<char, std::__ndk1::char_traits<char>, std::__ndk1::allocator<char> > >::~ResultData()
PUBLIC 37b4c 0 tulip::hook::WrapperMetadata::~WrapperMetadata()
PUBLIC 37bb0 0 cocos2d::CCObject::CCObject()
PUBLIC 37d24 0 cocos2d::CCNode::CCNode()
PUBLIC 37eb8 0 cocos2d::CCNode::~CCNode()
PUBLIC 37edc 0 cocos2d::CCLayer::CCLayer()
PUBLIC 38074 0 {virtual override thunk({offset(-320)}, cocos2d::CCLayer::~CCLayer())}
PUBLIC 3807c 0 cocos2d::CCLayer::~CCLayer()
PUBLIC 380a0 0 {virtual override thunk({offset(-320)}, cocos2d::CCLayer::~CCLayer())}
PUBLIC 380c8 0 cocos2d::CCObject::~CCObject()
PUBLIC 380ec 0 cocos2d::CCLayerColor::CCLayerColor()
PUBLIC 38294 0 cocos2d::CCLayerRGBA::CCLayerRGBA()
PUBLIC 3842c 0 cocos2d::CCLayerRGBA::~CCLayerRGBA()
PUBLIC 38678 0 {virtual override thunk({offset(-320)}, cocos2d::CCLayerColor::~CCLayerColor())}
PUBLIC 38680 0 cocos2d::CCLayerColor::~CCLayerColor()
PUBLIC 386a4 0 {virtual override thunk({offset(-320)}, cocos2d::CCLayerColor::~CCLayerColor())}
PUBLIC 386cc 0 {virtual override thunk({offset(-320)}, cocos2d::CCLayerRGBA::~CCLayerRGBA())}
PUBLIC 386d4 0 cocos2d::CCLayerRGBA::~CCLayerRGBA()
PUBLIC 386f8 0 {virtual override thunk({offset(-320)}, cocos2d::CCLayerRGBA::~CCLayerRGBA())}
PUBLIC 38720 0 cocos2d::CCImage::CCImage()
PUBLIC 38898 0 cocos2d::CCImage::~CCImage()
PUBLIC 38abc 0 cocos2d::CCImage::~CCImage()
PUBLIC 38ae0 0 {virtual override thunk({offset(-320)}, FLAlertLayer::~FLAlertLayer())}
PUBLIC 38ae8 0 FLAlertLayer::~FLAlertLayer()
PUBLIC 38b0c 0 {virtual override thunk({offset(-320)}, FLAlertLayer::~FLAlertLayer())}
PUBLIC 38b34 0 FLAlertLayer::create(FLAlertLayerProtocol*, char const*, gd::string, char const*, char const*, float)
PUBLIC 38cec 0 tulip::hook::AbstractFunction::from<FLAlertLayer*, FLAlertLayerProtocol*, char const*, gd::string, char const*, char const*, float>(FLAlertLayer* (*)(FLAlertLayerProtocol*, char const*, gd::string, char const*, char const*, float))
PUBLIC 38e58 0 TextInputDelegate::textInputOpened(CCTextInputNode*)
PUBLIC 38e5c 0 TextInputDelegate::textInputClosed(CCTextInputNode*)
PUBLIC 38e60 0 TextInputDelegate::textInputShouldOffset(CCTextInputNode*, float)
PUBLIC 38e64 0 TextInputDelegate::textInputReturn(CCTextInputNode*)
PUBLIC 38e68 0 TextInputDelegate::allowTextInput(CCTextInputNode*)
PUBLIC 38e70 0 TextInputDelegate::enterPressed(CCTextInputNode*)
PUBLIC 38e74 0 CCMenuItemToggler::createWithStandardSprites(cocos2d::CCObject*, void (cocos2d::CCObject::*)(cocos2d::CCObject*), float)
PUBLIC 3906c 0 cocos2d::CCObject::update(float)
PUBLIC 39070 0 cocos2d::CCLayerColor::~CCLayerColor()
PUBLIC 392c4 0 FLAlertLayer::~FLAlertLayer()
PUBLIC 39578 0 cocos2d::CCNode::~CCNode()
PUBLIC 3979c 0 cocos2d::CCLayer::~CCLayer()
PUBLIC 399e0 0 cocos2d::CCObject::~CCObject()
PUBLIC 39c04 0 _ZN5geode15UnwrapExceptionC2IRPvQsr4implE18IsStringStreamableIT_EEENS_4impl5OkTagEOS4_
PUBLIC 39d58 0 std::__ndk1::__variant_detail::__visitation::__base::__dispatcher<(unsigned long)0>::__dispatch[abi:ne180000]<std::__ndk1::__variant_detail::__dtor<std::__ndk1::__variant_detail::__traits<void*, std::__ndk1::basic_string<char, std::__ndk1::char_traits<char>, std::__ndk1::allocator<char> > >, (std::__ndk1::__variant_detail::_Trait)1>::__destroy[abi:ne180000]()::{lambda(auto:1&)#1}, std::__ndk1::__variant_detail::__base<(std::__ndk1::__variant_detail::__traits<void*, std::__ndk1::basic_string<char, std::__ndk1::char_traits<char>, std::__ndk1::allocator<char> > >)1, std::__ndk1::__variant_detail::__traits, std::__ndk1::allocator<char> >&>(std::__ndk1::__variant_detail::__dtor<std::__ndk1::__variant_detail::__traits<void*, std::__ndk1::basic_string<char, std::__ndk1::char_traits<char>, std::__ndk1::allocator<char> > >, (std::__ndk1::__variant_detail::_Trait)1>, std::__ndk1::__variant_detail::__base<(std::__ndk1::__variant_detail::__traits<void*, std::__ndk1::basic_string<char, std::__ndk1::char_traits<char>, std::__ndk1::allocator<char> > >)1, std::__ndk1::__variant_detail::__traits, std::__ndk1::allocator<char> >&)
PUBLIC 39d5c 0 std::__ndk1::__variant_detail::__visitation::__base::__dispatcher<(unsigned long)1>::__dispatch[abi:ne180000]<std::__ndk1::__variant_detail::__dtor<std::__ndk1::__variant_detail::__traits<void*, std::__ndk1::basic_string<char, std::__ndk1::char_traits<char>, std::__ndk1::allocator<char> > >, (std::__ndk1::__variant_detail::_Trait)1>::__destroy[abi:ne180000]()::{lambda(auto:1&)#1}, std::__ndk1::__variant_detail::__base<(std::__ndk1::__variant_detail::__traits<void*, std::__ndk1::basic_string<char, std::__ndk1::char_traits<char>, std::__ndk1::allocator<char> > >)1, std::__ndk1::__variant_detail::__traits, std::__ndk1::allocator<char> >&>(std::__ndk1::__variant_detail::__dtor<std::__ndk1::__variant_detail::__traits<void*, std::__ndk1::basic_string<char, std::__ndk1::char_traits<char>, std::__ndk1::allocator<char> > >, (std::__ndk1::__variant_detail::_Trait)1>, std::__ndk1::__variant_detail::__base<(std::__ndk1::__variant_detail::__traits<void*, std::__ndk1::basic_string<char, std::__ndk1::char_traits<char>, std::__ndk1::allocator<char> > >)1, std::__ndk1::__variant_detail::__traits, std::__ndk1::allocator<char> >&)
PUBLIC 39d70 0 std::__ndk1::__hash_table<std::__ndk1::__hash_value_type<void*, bool>, std::__ndk1::__unordered_map_hasher<void*, std::__ndk1::__hash_value_type<void*, bool>, std::__ndk1::hash<void*>, std::__ndk1::equal_to<void*>, true>, std::__ndk1::__unordered_map_equal<void*, std::__ndk1::__hash_value_type<void*, bool>, std::__ndk1::equal_to<void*>, std::__ndk1::hash<void*>, true>, std::__ndk1::allocator<std::__ndk1::__hash_value_type<void*, bool> > >::__emplace_unique_key_args<void*, std::__ndk1::piecewise_construct_t const&, std::__ndk1::tuple<void* const&>, std::__ndk1::tuple<> >(void* const&, std::__ndk1::piecewise_construct_t const&, std::__ndk1::tuple<void* const&>, std::__ndk1::tuple<>)
PUBLIC 3a250 0 std::__ndk1::__hash_table<std::__ndk1::__hash_value_type<void*, bool>, std::__ndk1::__unordered_map_hasher<void*, std::__ndk1::__hash_value_type<void*, bool>, std::__ndk1::hash<void*>, std::__ndk1::equal_to<void*>, true>, std::__ndk1::__unordered_map_equal<void*, std::__ndk1::__hash_value_type<void*, bool>, std::__ndk1::equal_to<void*>, std::__ndk1::hash<void*>, true>, std::__ndk1::allocator<std::__ndk1::__hash_value_type<void*, bool> > >::find<void*>(void* const&)
PUBLIC 3a360 0 std::__ndk1::__hash_table<std::__ndk1::__hash_value_type<void*, bool>, std::__ndk1::__unordered_map_hasher<void*, std::__ndk1::__hash_value_type<void*, bool>, std::__ndk1::hash<void*>, std::__ndk1::equal_to<void*>, true>, std::__ndk1::__unordered_map_equal<void*, std::__ndk1::__hash_value_type<void*, bool>, std::__ndk1::equal_to<void*>, std::__ndk1::hash<void*>, true>, std::__ndk1::allocator<std::__ndk1::__hash_value_type<void*, bool> > >::remove(std::__ndk1::__hash_const_iterator<std::__ndk1::__hash_node<std::__ndk1::__hash_value_type<void*, bool>, void*>*>)
PUBLIC 3a4a0 0 <.plt ELF section in uproxide.textures.android64.so>
STACK CFI INIT 20180 10 .cfa: sp 0 +
STACK CFI INIT 20190 8 .cfa: sp 0 +
STACK CFI INIT 20198 8 .cfa: sp 0 +
STACK CFI INIT 201a0 14 .cfa: sp 0 +
STACK CFI INIT 201b4 1c .cfa: sp 0 +
STACK CFI INIT 201d0 10 .cfa: sp 0 +
STACK CFI INIT 201e0 134 .cfa: sp 0 +
STACK CFI INIT 20314 84 .cfa: sp 0 +
STACK CFI INIT 20398 f4 .cfa: sp 0 +
STACK CFI INIT 2048c a8 .cfa: sp 0 +
STACK CFI INIT 20534 7c .cfa: sp 0 +
STACK CFI INIT 205b0 14 .cfa: sp 0 +
STACK CFI INIT 205c4 40 .cfa: sp 0 +
STACK CFI INIT 20604 28 .cfa: sp 0 +
STACK CFI INIT 2062c 190 .cfa: sp 0 +
STACK CFI INIT 207bc 2c8 .cfa: sp 0 +
STACK CFI INIT 20a84 8 .cfa: sp 0 +
STACK CFI INIT 20a8c 8 .cfa: sp 0 +
STACK CFI INIT 20a94 44 .cfa: sp 0 +
STACK CFI INIT 20ad8 e8 .cfa: sp 0 +
STACK CFI INIT 20bc0 e8 .cfa: sp 0 +
STACK CFI INIT 20ca8 14 .cfa: sp 0 +
STACK CFI INIT 20cbc 10 .cfa: sp 0 +
STACK CFI INIT 20ccc 10 .cfa: sp 0 +
STACK CFI INIT 20cdc f0 .cfa: sp 0 +
STACK CFI INIT 20dcc 44 .cfa: sp 0 +
STACK CFI INIT 20e10 c .cfa: sp 0 +
STACK CFI INIT 20e1c c .cfa: sp 0 +
STACK CFI INIT 20e28 2c .cfa: sp 0 +
STACK CFI INIT 20e54 280 .cfa: sp 0 +
STACK CFI INIT 210d4 c .cfa: sp 0 +
STACK CFI INIT 210e0 120 .cfa: sp 0 +
STACK CFI INIT 21200 488 .cfa: sp 0 +
STACK CFI INIT 21688 c48 .cfa: sp 0 +
STACK CFI INIT 222d0 134 .cfa: sp 0 +
STACK CFI INIT 22404 210 .cfa: sp 0 +
STACK CFI INIT 22614 38c .cfa: sp 0 +
STACK CFI INIT 229a0 1c8 .cfa: sp 0 +
STACK CFI INIT 22b68 9bc .cfa: sp 0 +
STACK CFI INIT 23524 2d4 .cfa: sp 0 +
STACK CFI INIT 237f8 134 .cfa: sp 0 +
STACK CFI INIT 2392c 120 .cfa: sp 0 +
STACK CFI INIT 23a4c 1c8 .cfa: sp 0 +
STACK CFI INIT 23c14 168 .cfa: sp 0 +
STACK CFI INIT 23d7c fc .cfa: sp 0 +
STACK CFI INIT 23e78 30 .cfa: sp 0 +
STACK CFI INIT 23fe0 30 .cfa: sp 0 +
STACK CFI INIT 24010 98 .cfa: sp 0 +
STACK CFI INIT 240a8 59c .cfa: sp 0 +
STACK CFI INIT 24644 8c .cfa: sp 0 +
STACK CFI INIT 246d0 30 .cfa: sp 0 +
STACK CFI INIT 2478c 5c .cfa: sp 0 +
STACK CFI 24790 .cfa: sp 16 +
STACK CFI 24794 .cfa: x29 16 + .ra: .cfa -8 + ^ x29: .cfa -16 + ^
STACK CFI 247d8 .cfa: sp 16 +
STACK CFI 247dc .cfa: sp 0 +
STACK CFI 247e0 .cfa: sp 16 +
STACK CFI 247e4 .cfa: sp 0 +
STACK CFI INIT 247e8 18 .cfa: sp 0 +
STACK CFI INIT 253d4 18 .cfa: sp 0 +
STACK CFI INIT 253ec 10 .cfa: sp 0 +
STACK CFI 253f0 .cfa: sp 16 +
STACK CFI 253f4 .cfa: x29 16 + .ra: .cfa -8 + ^ x29: .cfa -16 + ^
STACK CFI INIT 25804 50 .cfa: sp 0 +
STACK CFI 25808 .cfa: sp 32 +
STACK CFI 25810 .cfa: x29 32 + x19: .cfa -16 + ^ .ra: .cfa -24 + ^ x29: .cfa -32 + ^
STACK CFI 25828 .cfa: sp 32 +
STACK CFI 25830 .cfa: sp 0 +
STACK CFI 25834 .cfa: x29 32 +
STACK CFI 25848 .cfa: sp 32 +
STACK CFI 25850 .cfa: sp 0 +
STACK CFI INIT 258c8 7c .cfa: sp 0 +
STACK CFI 258cc .cfa: sp 48 +
STACK CFI 258d8 .cfa: x29 48 + x19: .cfa -8 + ^ x20: .cfa -16 + ^ x21: .cfa -32 + ^ .ra: .cfa -40 + ^ x29: .cfa -48 + ^
STACK CFI 25924 .cfa: sp 48 +
STACK CFI 25930 .cfa: sp 0 +
STACK CFI 25934 .cfa: sp 48 +
STACK CFI 25940 .cfa: sp 0 +
STACK CFI INIT 25944 4 .cfa: sp 0 +
STACK CFI INIT 25a9c 34 .cfa: sp 0 +
STACK CFI 25aa0 .cfa: sp 16 +
STACK CFI 25aa4 .cfa: x29 16 + .ra: .cfa -8 + ^ x29: .cfa -16 + ^
STACK CFI INIT 25bfc 80 .cfa: sp 0 +
STACK CFI 25c00 .cfa: sp 48 +
STACK CFI 25c0c .cfa: x29 48 + x19: .cfa -8 + ^ x20: .cfa -16 + ^ x21: .cfa -32 + ^ .ra: .cfa -40 + ^ x29: .cfa -48 + ^
STACK CFI 25c6c .cfa: sp 48 +
STACK CFI 25c78 .cfa: sp 0 +
STACK CFI INIT 25c7c 24 .cfa: sp 0 +
STACK CFI 25c80 .cfa: sp 32 +
STACK CFI 25c88 .cfa: x29 32 + x19: .cfa -16 + ^ .ra: .cfa -24 + ^ x29: .cfa -32 + ^
STACK CFI 25c94 .cfa: sp 32 +
STACK CFI 25c9c .cfa: sp 0 +
STACK CFI INIT 26020 14 .cfa: sp 0 +
STACK CFI 26024 .cfa: sp 16 +
STACK CFI 26028 .cfa: x29 16 + .ra: .cfa -8 + ^ x29: .cfa -16 + ^
STACK CFI INIT 26084 30 .cfa: sp 0 +
STACK CFI 26088 .cfa: sp 32 +
STACK CFI 26090 .cfa: x29 32 + x19: .cfa -16 + ^ .ra: .cfa -24 + ^ x29: .cfa -32 + ^
STACK CFI 260a8 .cfa: sp 32 +
STACK CFI 260b0 .cfa: sp 0 +
STACK CFI INIT 260b4 34 .cfa: sp 0 +
STACK CFI 260b8 .cfa: sp 32 +
STACK CFI 260c0 .cfa: x29 32 + x19: .cfa -16 + ^ .ra: .cfa -24 + ^ x29: .cfa -32 + ^
STACK CFI INIT 26260 148 .cfa: sp 0 +
STACK CFI 26264 .cfa: sp 48 +
STACK CFI 26270 .cfa: x29 48 + x19: .cfa -8 + ^ x20: .cfa -16 + ^ x21: .cfa -32 + ^ .ra: .cfa -40 + ^ x29: .cfa -48 + ^
STACK CFI 26398 .cfa: sp 48 +
STACK CFI 263a4 .cfa: sp 0 +
STACK CFI INIT 263a8 80 .cfa: sp 0 +
STACK CFI 263ac .cfa: sp 48 +
STACK CFI 263b8 .cfa: x29 48 + x19: .cfa -8 + ^ x20: .cfa -16 + ^ x21: .cfa -24 + ^ x22: .cfa -32 + ^ .ra: .cfa -40 + ^ x29: .cfa -48 + ^
STACK CFI 263d0 .cfa: sp 48 +
STACK CFI 263dc .cfa: sp 0 +
STACK CFI 263e0 .cfa: x29 48 +
STACK CFI 26410 .cfa: sp 48 +
STACK CFI 2641c .cfa: sp 0 +
STACK CFI 26420 .cfa: x29 48 +
STACK CFI INIT 26428 68 .cfa: sp 0 +
STACK CFI 2642c .cfa: sp 32 +
STACK CFI 26434 .cfa: x29 32 + x19: .cfa -8 + ^ x20: .cfa -16 + ^ .ra: .cfa -24 + ^ x29: .cfa -32 + ^
STACK CFI 2644c .cfa: sp 32 +
STACK CFI 26454 .cfa: sp 0 +
STACK CFI 26458 .cfa: x29 32 +
STACK CFI 26484 .cfa: sp 32 +
STACK CFI 2648c .cfa: sp 0 +
STACK CFI INIT 26490 14 .cfa: sp 0 +
STACK CFI 26494 .cfa: sp 16 +
STACK CFI 26498 .cfa: x29 16 + .ra: .cfa -8 + ^ x29: .cfa -16 + ^
STACK CFI INIT 264a4 4 .cfa: sp 0 +
STACK CFI INIT 264a8 14 .cfa: sp 0 +
STACK CFI INIT 264bc 84 .cfa: sp 0 +
STACK CFI 264c4 .cfa: sp 32 +
STACK CFI 264cc .cfa: x29 32 + x19: .cfa -8 + ^ x20: .cfa -16 + ^ .ra: .cfa -24 + ^ x29: .cfa -32 + ^
STACK CFI 2650c .cfa: sp 32 +
STACK CFI 26514 .cfa: sp 0 +
STACK CFI 2651c .cfa: x29 32 +
STACK CFI INIT 267a4 9c .cfa: sp 0 +
STACK CFI INIT 26840 50 .cfa: sp 0 +
STACK CFI 26844 .cfa: sp 32 +
STACK CFI 2684c .cfa: x29 32 + x19: .cfa -16 + ^ .ra: .cfa -24 + ^ x29: .cfa -32 + ^
STACK CFI 26864 .cfa: sp 32 +
STACK CFI 2686c .cfa: sp 0 +
STACK CFI 26870 .cfa: x29 32 +
STACK CFI 26884 .cfa: sp 32 +
STACK CFI 2688c .cfa: sp 0 +
STACK CFI INIT 26890 64 .cfa: sp 0 +
STACK CFI 26894 .cfa: sp 32 +
STACK CFI 2689c .cfa: x29 32 + x19: .cfa -16 + ^ .ra: .cfa -24 + ^ x29: .cfa -32 + ^
STACK CFI 268c8 .cfa: sp 32 +
STACK CFI 268d0 .cfa: sp 0 +
STACK CFI 268d4 .cfa: x29 32 +
STACK CFI 268e8 .cfa: sp 32 +
STACK CFI 268f0 .cfa: sp 0 +
STACK CFI INIT 26bac 4 .cfa: sp 0 +
STACK CFI INIT 26bb0 14 .cfa: sp 0 +
STACK CFI INIT 26bc4 4 .cfa: sp 0 +
STACK CFI INIT 26bc8 14 .cfa: sp 0 +
STACK CFI INIT 26bdc 1b0 .cfa: sp 0 +
STACK CFI INIT 27d88 40 .cfa: sp 0 +
STACK CFI 27d8c .cfa: sp 32 +
STACK CFI 27d94 .cfa: x29 32 + x19: .cfa -8 + ^ x20: .cfa -16 + ^ .ra: .cfa -24 + ^ x29: .cfa -32 + ^
STACK CFI 27dbc .cfa: sp 32 +
STACK CFI 27dc4 .cfa: sp 0 +
STACK CFI INIT 27dc8 98 .cfa: sp 0 +
STACK CFI 27dcc .cfa: sp 304 +
STACK CFI 27dd8 .cfa: x29 32 + x19: .cfa -8 + ^ x28: .cfa -16 + ^ .ra: .cfa -24 + ^ x29: .cfa -32 + ^
STACK CFI 27e4c .cfa: sp 304 +
STACK CFI 27e58 .cfa: sp 0 +
STACK CFI 27e5c .cfa: x29 32 +
STACK CFI INIT 28218 80 .cfa: sp 0 +
STACK CFI 2821c .cfa: sp 32 +
STACK CFI 28224 .cfa: x29 32 + x19: .cfa -16 + ^ .ra: .cfa -24 + ^ x29: .cfa -32 + ^
STACK CFI 2828c .cfa: sp 32 +
STACK CFI 28294 .cfa: sp 0 +
STACK CFI INIT 28ad8 50 .cfa: sp 0 +
STACK CFI 28adc .cfa: sp 32 +
STACK CFI 28ae4 .cfa: x29 32 + x19: .cfa -16 + ^ .ra: .cfa -24 + ^ x29: .cfa -32 + ^
STACK CFI 28afc .cfa: sp 32 +
STACK CFI 28b04 .cfa: sp 0 +
STACK CFI 28b08 .cfa: x29 32 +
STACK CFI 28b1c .cfa: sp 32 +
STACK CFI 28b24 .cfa: sp 0 +
STACK CFI INIT 2b930 4 .cfa: sp 0 +
STACK CFI INIT 2c13c 8 .cfa: sp 0 +
STACK CFI INIT 2c144 40 .cfa: sp 0 +
STACK CFI 2c148 .cfa: sp 32 +
STACK CFI 2c150 .cfa: x29 32 + x19: .cfa -8 + ^ x20: .cfa -16 + ^ .ra: .cfa -24 + ^ x29: .cfa -32 + ^
STACK CFI 2c178 .cfa: sp 32 +
STACK CFI 2c180 .cfa: sp 0 +
STACK CFI INIT 2c184 40 .cfa: sp 0 +
STACK CFI 2c188 .cfa: sp 32 +
STACK CFI 2c190 .cfa: x29 32 + x19: .cfa -8 + ^ x20: .cfa -16 + ^ .ra: .cfa -24 + ^ x29: .cfa -32 + ^
STACK CFI 2c1b8 .cfa: sp 32 +
STACK CFI 2c1c0 .cfa: sp 0 +
STACK CFI INIT 2c1c4 100 .cfa: sp 0 +
STACK CFI 2c1c8 .cfa: sp 32 +
STACK CFI 2c1d0 .cfa: x29 32 + x19: .cfa -8 + ^ x20: .cfa -16 + ^ .ra: .cfa -24 + ^ x29: .cfa -32 + ^
STACK CFI 2c2b8 .cfa: sp 32 +
STACK CFI 2c2c0 .cfa: sp 0 +
STACK CFI INIT 2c2c4 9c .cfa: sp 0 +
STACK CFI 2c2c8 .cfa: sp 32 +
STACK CFI 2c2d0 .cfa: x29 32 + x19: .cfa -8 + ^ x20: .cfa -16 + ^ .ra: .cfa -24 + ^ x29: .cfa -32 + ^
STACK CFI 2c354 .cfa: sp 32 +
STACK CFI 2c35c .cfa: sp 0 +
STACK CFI INIT 2c360 8 .cfa: sp 0 +
STACK CFI INIT 2c368 24 .cfa: sp 0 +
STACK CFI 2c36c .cfa: sp 32 +
STACK CFI 2c374 .cfa: x29 32 + x19: .cfa -16 + ^ .ra: .cfa -24 + ^ x29: .cfa -32 + ^
STACK CFI 2c380 .cfa: sp 32 +
STACK CFI 2c388 .cfa: sp 0 +
STACK CFI INIT 2c38c 28 .cfa: sp 0 +
STACK CFI 2c390 .cfa: sp 32 +
STACK CFI 2c398 .cfa: x29 32 + x19: .cfa -16 + ^ .ra: .cfa -24 + ^ x29: .cfa -32 + ^
STACK CFI 2c3a8 .cfa: sp 32 +
STACK CFI 2c3b0 .cfa: sp 0 +
STACK CFI INIT 2c3b4 8 .cfa: sp 0 +
STACK CFI INIT 2c3bc 4 .cfa: sp 0 +
STACK CFI INIT 2c3c0 4 .cfa: sp 0 +
STACK CFI INIT 2c3c4 4 .cfa: sp 0 +
STACK CFI INIT 2c3c8 4 .cfa: sp 0 +
STACK CFI INIT 2c5e8 4 .cfa: sp 0 +
STACK CFI INIT 2c7b8 a4 .cfa: sp 0 +
STACK CFI 2c7bc .cfa: sp 32 +
STACK CFI 2c7c4 .cfa: x29 32 + x19: .cfa -8 + ^ x20: .cfa -16 + ^ .ra: .cfa -24 + ^ x29: .cfa -32 + ^
STACK CFI 2c850 .cfa: sp 32 +
STACK CFI 2c858 .cfa: sp 0 +
STACK CFI INIT 2c85c 50 .cfa: sp 0 +
STACK CFI 2c860 .cfa: sp 32 +
STACK CFI 2c868 .cfa: x29 32 + x19: .cfa -16 + ^ .ra: .cfa -24 + ^ x29: .cfa -32 + ^
STACK CFI 2c880 .cfa: sp 32 +
STACK CFI 2c888 .cfa: sp 0 +
STACK CFI 2c88c .cfa: x29 32 +
STACK CFI 2c8a0 .cfa: sp 32 +
STACK CFI 2c8a8 .cfa: sp 0 +
STACK CFI INIT 2c8ac 50 .cfa: sp 0 +
STACK CFI 2c8b0 .cfa: sp 32 +
STACK CFI 2c8b8 .cfa: x29 32 + x19: .cfa -16 + ^ .ra: .cfa -24 + ^ x29: .cfa -32 + ^
STACK CFI 2c8d0 .cfa: sp 32 +
STACK CFI 2c8d8 .cfa: sp 0 +
STACK CFI 2c8dc .cfa: x29 32 +
STACK CFI 2c8f0 .cfa: sp 32 +
STACK CFI 2c8f8 .cfa: sp 0 +
STACK CFI INIT 2c8fc 5c .cfa: sp 0 +
STACK CFI 2c900 .cfa: sp 32 +
STACK CFI 2c908 .cfa: x29 32 + x19: .cfa -16 + ^ .ra: .cfa -24 + ^ x29: .cfa -32 + ^
STACK CFI 2c92c .cfa: sp 32 +
STACK CFI 2c934 .cfa: sp 0 +
STACK CFI 2c938 .cfa: x29 32 +
STACK CFI 2c94c .cfa: sp 32 +
STACK CFI 2c954 .cfa: sp 0 +
STACK CFI INIT 2c958 6c .cfa: sp 0 +
STACK CFI 2c95c .cfa: sp 32 +
STACK CFI 2c964 .cfa: x29 32 + x19: .cfa -8 + ^ x20: .cfa -16 + ^ .ra: .cfa -24 + ^ x29: .cfa -32 + ^
STACK CFI 2c990 .cfa: sp 32 +
STACK CFI 2c998 .cfa: sp 0 +
STACK CFI 2c99c .cfa: x29 32 +
STACK CFI 2c9b8 .cfa: sp 32 +
STACK CFI 2c9c0 .cfa: sp 0 +
STACK CFI INIT 2c9c4 58 .cfa: sp 0 +
STACK CFI 2c9c8 .cfa: sp 32 +
STACK CFI 2c9d0 .cfa: x29 32 + x19: .cfa -8 + ^ x20: .cfa -16 + ^ .ra: .cfa -24 + ^ x29: .cfa -32 + ^
STACK CFI 2ca10 .cfa: sp 32 +
STACK CFI 2ca18 .cfa: sp 0 +
STACK CFI INIT 2ca1c 4c .cfa: sp 0 +
STACK CFI 2ca20 .cfa: sp 32 +
STACK CFI 2ca28 .cfa: x29 32 + x19: .cfa -8 + ^ x20: .cfa -16 + ^ .ra: .cfa -24 + ^ x29: .cfa -32 + ^
STACK CFI 2ca5c .cfa: sp 32 +
STACK CFI 2ca64 .cfa: sp 0 +
STACK CFI INIT 2ca68 50 .cfa: sp 0 +
STACK CFI 2ca6c .cfa: sp 32 +
STACK CFI 2ca74 .cfa: x29 32 + x19: .cfa -16 + ^ .ra: .cfa -24 + ^ x29: .cfa -32 + ^
STACK CFI 2ca8c .cfa: sp 32 +
STACK CFI 2ca94 .cfa: sp 0 +
STACK CFI 2ca98 .cfa: x29 32 +
STACK CFI 2caac .cfa: sp 32 +
STACK CFI 2cab4 .cfa: sp 0 +
STACK CFI INIT 2cab8 60 .cfa: sp 0 +
STACK CFI 2cabc .cfa: sp 32 +
STACK CFI 2cac4 .cfa: x29 32 + x19: .cfa -8 + ^ x20: .cfa -16 + ^ .ra: .cfa -24 + ^ x29: .cfa -32 + ^
STACK CFI 2cae4 .cfa: sp 32 +
STACK CFI 2caec .cfa: sp 0 +
STACK CFI 2caf0 .cfa: x29 32 +
STACK CFI 2cb0c .cfa: sp 32 +
STACK CFI 2cb14 .cfa: sp 0 +
STACK CFI INIT 2cb18 8 .cfa: sp 0 +
STACK CFI INIT 2cb20 1c .cfa: sp 0 +
STACK CFI INIT 2cb3c c .cfa: sp 0 +
STACK CFI INIT 2cd18 60 .cfa: sp 0 +
STACK CFI 2cd1c .cfa: sp 32 +
STACK CFI 2cd24 .cfa: x29 32 + x19: .cfa -8 + ^ x20: .cfa -16 + ^ .ra: .cfa -24 + ^ x29: .cfa -32 + ^
STACK CFI 2cd44 .cfa: sp 32 +
STACK CFI 2cd4c .cfa: sp 0 +
STACK CFI 2cd50 .cfa: x29 32 +
STACK CFI 2cd6c .cfa: sp 32 +
STACK CFI 2cd74 .cfa: sp 0 +
STACK CFI INIT 2cd78 70 .cfa: sp 0 +
STACK CFI 2cd7c .cfa: sp 32 +
STACK CFI 2cd84 .cfa: x29 32 + x19: .cfa -8 + ^ x20: .cfa -16 + ^ .ra: .cfa -24 + ^ x29: .cfa -32 + ^
STACK CFI 2cdac .cfa: sp 32 +
STACK CFI 2cdb4 .cfa: sp 0 +
STACK CFI 2cdb8 .cfa: x29 32 +
STACK CFI 2cddc .cfa: sp 32 +
STACK CFI 2cde4 .cfa: sp 0 +
STACK CFI INIT 2cde8 5c .cfa: sp 0 +
STACK CFI 2cdec .cfa: sp 32 +
STACK CFI 2cdf4 .cfa: x29 32 + x19: .cfa -16 + ^ .ra: .cfa -24 + ^ x29: .cfa -32 + ^
STACK CFI 2ce18 .cfa: sp 32 +
STACK CFI 2ce20 .cfa: sp 0 +
STACK CFI 2ce24 .cfa: x29 32 +
STACK CFI 2ce38 .cfa: sp 32 +
STACK CFI 2ce40 .cfa: sp 0 +
STACK CFI INIT 2ce44 6c .cfa: sp 0 +
STACK CFI 2ce48 .cfa: sp 32 +
STACK CFI 2ce50 .cfa: x29 32 + x19: .cfa -8 + ^ x20: .cfa -16 + ^ .ra: .cfa -24 + ^ x29: .cfa -32 + ^
STACK CFI 2ce7c .cfa: sp 32 +
STACK CFI 2ce84 .cfa: sp 0 +
STACK CFI 2ce88 .cfa: x29 32 +
STACK CFI 2cea4 .cfa: sp 32 +
STACK CFI 2ceac .cfa: sp 0 +
STACK CFI INIT 2ceb0 58 .cfa: sp 0 +
STACK CFI 2ceb4 .cfa: sp 32 +
STACK CFI 2cebc .cfa: x29 32 + x19: .cfa -8 + ^ x20: .cfa -16 + ^ .ra: .cfa -24 + ^ x29: .cfa -32 + ^
STACK CFI 2cefc .cfa: sp 32 +
STACK CFI 2cf04 .cfa: sp 0 +
STACK CFI INIT 2cf08 4c .cfa: sp 0 +
STACK CFI 2cf0c .cfa: sp 32 +
STACK CFI 2cf14 .cfa: x29 32 + x19: .cfa -8 + ^ x20: .cfa -16 + ^ .ra: .cfa -24 + ^ x29: .cfa -32 + ^
STACK CFI 2cf48 .cfa: sp 32 +
STACK CFI 2cf50 .cfa: sp 0 +
STACK CFI INIT 2cf54 50 .cfa: sp 0 +
STACK CFI 2cf58 .cfa: sp 32 +
STACK CFI 2cf60 .cfa: x29 32 + x19: .cfa -16 + ^ .ra: .cfa -24 + ^ x29: .cfa -32 + ^
STACK CFI 2cf78 .cfa: sp 32 +
STACK CFI 2cf80 .cfa: sp 0 +
STACK CFI 2cf84 .cfa: x29 32 +
STACK CFI 2cf98 .cfa: sp 32 +
STACK CFI 2cfa0 .cfa: sp 0 +
STACK CFI INIT 2cfa4 60 .cfa: sp 0 +
STACK CFI 2cfa8 .cfa: sp 32 +
STACK CFI 2cfb0 .cfa: x29 32 + x19: .cfa -8 + ^ x20: .cfa -16 + ^ .ra: .cfa -24 + ^ x29: .cfa -32 + ^
STACK CFI 2cfd0 .cfa: sp 32 +
STACK CFI 2cfd8 .cfa: sp 0 +
STACK CFI 2cfdc .cfa: x29 32 +
STACK CFI 2cff8 .cfa: sp 32 +
STACK CFI 2d000 .cfa: sp 0 +
STACK CFI INIT 2d004 8 .cfa: sp 0 +
STACK CFI INIT 2d00c 1c .cfa: sp 0 +
STACK CFI INIT 2d028 c .cfa: sp 0 +
STACK CFI INIT 2d1f8 104 .cfa: sp 0 +
STACK CFI 2d1fc .cfa: sp 64 +
STACK CFI 2d20c .cfa: x29 64 + x19: .cfa -8 + ^ x20: .cfa -16 + ^ x21: .cfa -24 + ^ x22: .cfa -32 + ^ x23: .cfa -48 + ^ .ra: .cfa -56 + ^ x29: .cfa -64 + ^
STACK CFI 2d268 .cfa: sp 64 +
STACK CFI 2d278 .cfa: sp 0 +
STACK CFI 2d27c .cfa: x29 64 +
STACK CFI 2d298 .cfa: sp 64 +
STACK CFI 2d2a8 .cfa: sp 0 +
STACK CFI 2d2ac .cfa: x29 64 +
STACK CFI 2d2e8 .cfa: sp 64 +
STACK CFI 2d2f8 .cfa: sp 0 +
STACK CFI INIT 2d2fc 34 .cfa: sp 0 +
STACK CFI 2d300 .cfa: sp 16 +
STACK CFI 2d304 .cfa: x29 16 + .ra: .cfa -8 + ^ x29: .cfa -16 + ^
STACK CFI INIT 2d330 24 .cfa: sp 0 +
STACK CFI 2d334 .cfa: sp 32 +
STACK CFI 2d33c .cfa: x29 32 + x19: .cfa -16 + ^ .ra: .cfa -24 + ^ x29: .cfa -32 + ^
STACK CFI 2d348 .cfa: sp 32 +
STACK CFI 2d350 .cfa: sp 0 +
STACK CFI INIT 2d434 2c .cfa: sp 0 +
STACK CFI 2d438 .cfa: sp 32 +
STACK CFI 2d440 .cfa: x29 32 + x19: .cfa -16 + ^ .ra: .cfa -24 + ^ x29: .cfa -32 + ^
STACK CFI 2d454 .cfa: sp 32 +
STACK CFI 2d45c .cfa: sp 0 +
STACK CFI INIT 2d460 28 .cfa: sp 0 +
STACK CFI INIT 2d488 4 .cfa: sp 0 +
STACK CFI INIT 2d48c 8 .cfa: sp 0 +
STACK CFI INIT 2db80 2c .cfa: sp 0 +
STACK CFI INIT 2dbac 4 .cfa: sp 0 +
STACK CFI INIT 2dbb0 8 .cfa: sp 0 +
STACK CFI INIT 2dbb8 4 .cfa: sp 0 +
STACK CFI INIT 2dc28 4 .cfa: sp 0 +
STACK CFI INIT 2dea4 60 .cfa: sp 0 +
STACK CFI 2dea8 .cfa: sp 32 +
STACK CFI 2deb0 .cfa: x29 32 + x19: .cfa -8 + ^ x20: .cfa -16 + ^ .ra: .cfa -24 + ^ x29: .cfa -32 + ^
STACK CFI 2ded0 .cfa: sp 32 +
STACK CFI 2ded8 .cfa: sp 0 +
STACK CFI 2dedc .cfa: x29 32 +
STACK CFI 2def8 .cfa: sp 32 +
STACK CFI 2df00 .cfa: sp 0 +
STACK CFI INIT 2df04 70 .cfa: sp 0 +
STACK CFI 2df08 .cfa: sp 32 +
STACK CFI 2df10 .cfa: x29 32 + x19: .cfa -8 + ^ x20: .cfa -16 + ^ .ra: .cfa -24 + ^ x29: .cfa -32 + ^
STACK CFI 2df38 .cfa: sp 32 +
STACK CFI 2df40 .cfa: sp 0 +
STACK CFI 2df44 .cfa: x29 32 +
STACK CFI 2df68 .cfa: sp 32 +
STACK CFI 2df70 .cfa: sp 0 +
STACK CFI INIT 2df74 10 .cfa: sp 0 +
STACK CFI INIT 2df84 30 .cfa: sp 0 +
STACK CFI 2df88 .cfa: sp 32 +
STACK CFI 2df90 .cfa: x29 32 + x19: .cfa -16 + ^ .ra: .cfa -24 + ^ x29: .cfa -32 + ^
STACK CFI 2dfa8 .cfa: sp 32 +
STACK CFI 2dfb0 .cfa: sp 0 +
STACK CFI INIT 2dfb4 4 .cfa: sp 0 +
STACK CFI INIT 2dfb8 4 .cfa: sp 0 +
STACK CFI INIT 2dfbc 14 .cfa: sp 0 +
STACK CFI INIT 2dfd0 14 .cfa: sp 0 +
STACK CFI INIT 2dfe4 4 .cfa: sp 0 +
STACK CFI INIT 2dfe8 14 .cfa: sp 0 +
STACK CFI INIT 2dffc ac .cfa: sp 0 +
STACK CFI 2e000 .cfa: sp 64 +
STACK CFI 2e010 .cfa: x29 64 + x19: .cfa -8 + ^ x20: .cfa -16 + ^ x21: .cfa -24 + ^ x22: .cfa -32 + ^ x23: .cfa -48 + ^ .ra: .cfa -56 + ^ x29: .cfa -64 + ^
STACK CFI 2e08c .cfa: sp 64 +
STACK CFI 2e09c .cfa: sp 0 +
STACK CFI 2e0a0 .cfa: x29 64 +
STACK CFI INIT 2e0a8 110 .cfa: sp 0 +
STACK CFI 2e0ac .cfa: sp 64 +
STACK CFI 2e0bc .cfa: x29 64 + x19: .cfa -8 + ^ x20: .cfa -16 + ^ x21: .cfa -24 + ^ x22: .cfa -32 + ^ x23: .cfa -40 + ^ x24: .cfa -48 + ^ .ra: .cfa -56 + ^ x29: .cfa -64 + ^
STACK CFI 2e19c .cfa: sp 64 +
STACK CFI 2e1ac .cfa: sp 0 +
STACK CFI 2e1b0 .cfa: x29 64 +
STACK CFI INIT 2f81c f8 .cfa: sp 0 +
STACK CFI 2f820 .cfa: sp 32 +
STACK CFI 2f828 .cfa: x29 32 + x19: .cfa -8 + ^ x20: .cfa -16 + ^ .ra: .cfa -24 + ^ x29: .cfa -32 + ^
STACK CFI 2f908 .cfa: sp 32 +
STACK CFI 2f910 .cfa: sp 0 +
STACK CFI INIT 2f914 24 .cfa: sp 0 +
STACK CFI 2f918 .cfa: sp 32 +
STACK CFI 2f920 .cfa: x29 32 + x19: .cfa -16 + ^ .ra: .cfa -24 + ^ x29: .cfa -32 + ^
STACK CFI 2f92c .cfa: sp 32 +
STACK CFI 2f934 .cfa: sp 0 +
STACK CFI INIT 2f938 8 .cfa: sp 0 +
STACK CFI INIT 2f940 28 .cfa: sp 0 +
STACK CFI 2f944 .cfa: sp 32 +
STACK CFI 2f94c .cfa: x29 32 + x19: .cfa -16 + ^ .ra: .cfa -24 + ^ x29: .cfa -32 + ^
STACK CFI 2f95c .cfa: sp 32 +
STACK CFI 2f964 .cfa: sp 0 +
STACK CFI INIT 2fc54 b0 .cfa: sp 0 +
STACK CFI 2fc58 .cfa: sp 32 +
STACK CFI 2fc60 .cfa: x29 32 + x19: .cfa -8 + ^ x20: .cfa -16 + ^ .ra: .cfa -24 + ^ x29: .cfa -32 + ^
STACK CFI 2fcf8 .cfa: sp 32 +
STACK CFI 2fd00 .cfa: sp 0 +
STACK CFI INIT 301d8 128 .cfa: sp 0 +
STACK CFI 301dc .cfa: sp 128 +
STACK CFI 301f0 .cfa: x29 64 + x19: .cfa -8 + ^ x20: .cfa -16 + ^ x21: .cfa -24 + ^ x22: .cfa -32 + ^ x23: .cfa -48 + ^ .ra: .cfa -56 + ^ x29: .cfa -64 + ^
STACK CFI 302e4 .cfa: sp 128 +
STACK CFI 302f8 .cfa: sp 0 +
STACK CFI 302fc .cfa: x29 64 +
STACK CFI INIT 305c0 1d8 .cfa: sp 0 +
STACK CFI 305c4 .cfa: sp 16 +
STACK CFI 305c8 .cfa: x29 16 + .ra: .cfa -8 + ^ x29: .cfa -16 + ^
STACK CFI 30708 .cfa: sp 16 +
STACK CFI 3070c .cfa: sp 0 +
STACK CFI 30710 .cfa: x29 16 +
STACK CFI INIT 30798 1a4 .cfa: sp 0 +
STACK CFI 3079c .cfa: sp 64 +
STACK CFI 307a8 .cfa: x29 32 + x19: .cfa -8 + ^ x20: .cfa -16 + ^ .ra: .cfa -24 + ^ x29: .cfa -32 + ^
STACK CFI 308d4 .cfa: sp 64 +
STACK CFI 308e0 .cfa: sp 0 +
STACK CFI 308e4 .cfa: x29 32 +
STACK CFI INIT 3093c 194 .cfa: sp 0 +
STACK CFI 30940 .cfa: sp 16 +
STACK CFI 30944 .cfa: x29 16 + .ra: .cfa -8 + ^ x29: .cfa -16 + ^
STACK CFI 309dc .cfa: sp 16 +
STACK CFI 309e0 .cfa: sp 0 +
STACK CFI 309e4 .cfa: x29 16 +
STACK CFI 30ab0 .cfa: sp 16 +
STACK CFI 30ab4 .cfa: sp 0 +
STACK CFI 30ab8 .cfa: x29 16 +
STACK CFI INIT 30ad0 114 .cfa: sp 0 +
STACK CFI 30ad4 .cfa: sp 128 +
STACK CFI 30ae4 .cfa: x29 48 + x19: .cfa -8 + ^ x20: .cfa -16 + ^ x21: .cfa -32 + ^ .ra: .cfa -40 + ^ x29: .cfa -48 + ^
STACK CFI 30bb0 .cfa: sp 128 +
STACK CFI 30bc0 .cfa: sp 0 +
STACK CFI 30bc4 .cfa: x29 48 +
STACK CFI INIT 30be4 27c .cfa: sp 0 +
STACK CFI 30be8 .cfa: sp 176 +
STACK CFI 30c04 .cfa: x29 96 + x19: .cfa -8 + ^ x20: .cfa -16 + ^ x21: .cfa -24 + ^ x22: .cfa -32 + ^ x23: .cfa -40 + ^ x24: .cfa -48 + ^ x25: .cfa -56 + ^ x26: .cfa -64 + ^ x27: .cfa -72 + ^ x28: .cfa -80 + ^ .ra: .cfa -88 + ^ x29: .cfa -96 + ^
STACK CFI 30e3c .cfa: sp 176 +
STACK CFI 30e58 .cfa: sp 0 +
STACK CFI 30e5c .cfa: x29 96 +
STACK CFI INIT 30e60 94 .cfa: sp 0 +
STACK CFI 30e64 .cfa: sp 16 +
STACK CFI 30e68 .cfa: x29 16 + .ra: .cfa -8 + ^ x29: .cfa -16 + ^
STACK CFI 30ebc .cfa: sp 16 +
STACK CFI 30ec0 .cfa: sp 0 +
STACK CFI 30ec4 .cfa: x29 16 +
STACK CFI INIT 30ef4 158 .cfa: sp 0 +
STACK CFI 30ef8 .cfa: sp 112 +
STACK CFI 30f14 .cfa: x29 96 + x19: .cfa -8 + ^ x20: .cfa -16 + ^ x21: .cfa -24 + ^ x22: .cfa -32 + ^ x23: .cfa -40 + ^ x24: .cfa -48 + ^ x25: .cfa -56 + ^ x26: .cfa -64 + ^ x27: .cfa -72 + ^ x28: .cfa -80 + ^ .ra: .cfa -88 + ^ x29: .cfa -96 + ^
STACK CFI 30ffc .cfa: sp 112 +
STACK CFI 31000 .cfa: x29 96 +
STACK CFI 31008 .cfa: sp 112 +
STACK CFI 31024 .cfa: sp 0 +
STACK CFI 31028 .cfa: x29 96 +
STACK CFI 31048 .cfa: sp 112 +
STACK CFI INIT 3104c 520 .cfa: sp 0 +
STACK CFI 31050 .cfa: sp 176 +
STACK CFI 3106c .cfa: x29 96 + x19: .cfa -8 + ^ x20: .cfa -16 + ^ x21: .cfa -24 + ^ x22: .cfa -32 + ^ x23: .cfa -40 + ^ x24: .cfa -48 + ^ x25: .cfa -56 + ^ x26: .cfa -64 + ^ x27: .cfa -72 + ^ x28: .cfa -80 + ^ .ra: .cfa -88 + ^ x29: .cfa -96 + ^
STACK CFI 31548 .cfa: sp 176 +
STACK CFI 31564 .cfa: sp 0 +
STACK CFI 31568 .cfa: x29 96 +
STACK CFI INIT 3156c 20c .cfa: sp 0 +
STACK CFI 31570 .cfa: sp 80 +
STACK CFI 31584 .cfa: x29 80 + x19: .cfa -8 + ^ x20: .cfa -16 + ^ x21: .cfa -24 + ^ x22: .cfa -32 + ^ x23: .cfa -40 + ^ x24: .cfa -48 + ^ x25: .cfa -64 + ^ .ra: .cfa -72 + ^ x29: .cfa -80 + ^
STACK CFI 31614 .cfa: sp 80 +
STACK CFI 31628 .cfa: sp 0 +
STACK CFI 3162c .cfa: x29 80 +
STACK CFI 31638 .cfa: sp 80 +
STACK CFI 3164c .cfa: sp 0 +
STACK CFI 31650 .cfa: x29 80 +
STACK CFI INIT 31778 428 .cfa: sp 0 +
STACK CFI 3177c .cfa: sp 128 +
STACK CFI 31798 .cfa: x29 96 + x19: .cfa -8 + ^ x20: .cfa -16 + ^ x21: .cfa -24 + ^ x22: .cfa -32 + ^ x23: .cfa -40 + ^ x24: .cfa -48 + ^ x25: .cfa -56 + ^ x26: .cfa -64 + ^ x27: .cfa -72 + ^ x28: .cfa -80 + ^ .ra: .cfa -88 + ^ x29: .cfa -96 + ^
STACK CFI 31b7c .cfa: sp 128 +
STACK CFI 31b98 .cfa: sp 0 +
STACK CFI 31b9c .cfa: x29 96 +
STACK CFI INIT 31ba0 194 .cfa: sp 0 +
STACK CFI 31ba4 .cfa: sp 32 +
STACK CFI 31bac .cfa: x29 16 + .ra: .cfa -8 + ^ x29: .cfa -16 + ^
STACK CFI 31bf0 .cfa: sp 32 +
STACK CFI 31bf8 .cfa: sp 0 +
STACK CFI 31bfc .cfa: x29 16 +
STACK CFI INIT 31d34 1b8 .cfa: sp 0 +
STACK CFI INIT 31eec 1d0 .cfa: sp 0 +
STACK CFI 31ef0 .cfa: sp 80 +
STACK CFI 31f04 .cfa: x29 80 + x19: .cfa -8 + ^ x20: .cfa -16 + ^ x21: .cfa -24 + ^ x22: .cfa -32 + ^ x23: .cfa -40 + ^ x24: .cfa -48 + ^ x25: .cfa -64 + ^ .ra: .cfa -72 + ^ x29: .cfa -80 + ^
STACK CFI 320a4 .cfa: sp 80 +
STACK CFI 320b8 .cfa: sp 0 +
STACK CFI INIT 320bc 67c .cfa: sp 0 +
STACK CFI 320c0 .cfa: sp 176 +
STACK CFI 320dc .cfa: x29 96 + x19: .cfa -8 + ^ x20: .cfa -16 + ^ x21: .cfa -24 + ^ x22: .cfa -32 + ^ x23: .cfa -40 + ^ x24: .cfa -48 + ^ x25: .cfa -56 + ^ x26: .cfa -64 + ^ x27: .cfa -72 + ^ x28: .cfa -80 + ^ .ra: .cfa -88 + ^ x29: .cfa -96 + ^
STACK CFI 32714 .cfa: sp 176 +
STACK CFI 32730 .cfa: sp 0 +
STACK CFI 32734 .cfa: x29 96 +
STACK CFI INIT 32738 1e4 .cfa: sp 0 +
STACK CFI 3273c .cfa: sp 32 +
STACK CFI 32744 .cfa: x29 32 + x19: .cfa -8 + ^ x20: .cfa -16 + ^ .ra: .cfa -24 + ^ x29: .cfa -32 + ^
STACK CFI 32834 .cfa: sp 32 +
STACK CFI 3283c .cfa: sp 0 +
STACK CFI 32840 .cfa: x29 32 +
STACK CFI 328b4 .cfa: sp 32 +
STACK CFI 328bc .cfa: sp 0 +
STACK CFI 328c0 .cfa: x29 32 +
STACK CFI 328d0 .cfa: sp 32 +
STACK CFI 328d8 .cfa: sp 0 +
STACK CFI 328dc .cfa: x29 32 +
STACK CFI 328ec .cfa: sp 32 +
STACK CFI 328f4 .cfa: sp 0 +
STACK CFI 328f8 .cfa: x29 32 +
STACK CFI INIT 3291c 178 .cfa: sp 0 +
STACK CFI 32920 .cfa: sp 80 +
STACK CFI 32934 .cfa: x29 64 + x19: .cfa -8 + ^ x20: .cfa -16 + ^ x21: .cfa -24 + ^ x22: .cfa -32 + ^ x23: .cfa -40 + ^ x24: .cfa -48 + ^ .ra: .cfa -56 + ^ x29: .cfa -64 + ^
STACK CFI 32a78 .cfa: sp 80 +
STACK CFI 32a8c .cfa: sp 0 +
STACK CFI 32a90 .cfa: x29 64 +
STACK CFI INIT 32a94 178 .cfa: sp 0 +
STACK CFI 32a98 .cfa: sp 80 +
STACK CFI 32aac .cfa: x29 64 + x19: .cfa -8 + ^ x20: .cfa -16 + ^ x21: .cfa -24 + ^ x22: .cfa -32 + ^ x23: .cfa -40 + ^ x24: .cfa -48 + ^ .ra: .cfa -56 + ^ x29: .cfa -64 + ^
STACK CFI 32bf0 .cfa: sp 80 +
STACK CFI 32c04 .cfa: sp 0 +
STACK CFI 32c08 .cfa: x29 64 +
STACK CFI INIT 32c0c 178 .cfa: sp 0 +
STACK CFI 32c10 .cfa: sp 80 +
STACK CFI 32c24 .cfa: x29 64 + x19: .cfa -8 + ^ x20: .cfa -16 + ^ x21: .cfa -24 + ^ x22: .cfa -32 + ^ x23: .cfa -40 + ^ x24: .cfa -48 + ^ .ra: .cfa -56 + ^ x29: .cfa -64 + ^
STACK CFI 32d68 .cfa: sp 80 +
STACK CFI 32d7c .cfa: sp 0 +
STACK CFI 32d80 .cfa: x29 64 +
STACK CFI INIT 32d84 78 .cfa: sp 0 +
STACK CFI 32d88 .cfa: sp 48 +
STACK CFI 32d94 .cfa: x29 48 + x19: .cfa -8 + ^ x20: .cfa -16 + ^ x21: .cfa -24 + ^ x22: .cfa -32 + ^ .ra: .cfa -40 + ^ x29: .cfa -48 + ^
STACK CFI 32ddc .cfa: sp 48 +
STACK CFI 32de8 .cfa: sp 0 +
STACK CFI 32dec .cfa: sp 48 +
STACK CFI 32df8 .cfa: sp 0 +
STACK CFI INIT 32dfc 67c .cfa: sp 0 +
STACK CFI 32e00 .cfa: sp 176 +
STACK CFI 32e1c .cfa: x29 96 + x19: .cfa -8 + ^ x20: .cfa -16 + ^ x21: .cfa -24 + ^ x22: .cfa -32 + ^ x23: .cfa -40 + ^ x24: .cfa -48 + ^ x25: .cfa -56 + ^ x26: .cfa -64 + ^ x27: .cfa -72 + ^ x28: .cfa -80 + ^ .ra: .cfa -88 + ^ x29: .cfa -96 + ^
STACK CFI 33454 .cfa: sp 176 +
STACK CFI 33470 .cfa: sp 0 +
STACK CFI 33474 .cfa: x29 96 +
STACK CFI INIT 33478 1e4 .cfa: sp 0 +
STACK CFI 3347c .cfa: sp 32 +
STACK CFI 33484 .cfa: x29 32 + x19: .cfa -8 + ^ x20: .cfa -16 + ^ .ra: .cfa -24 + ^ x29: .cfa -32 + ^
STACK CFI 33574 .cfa: sp 32 +
STACK CFI 3357c .cfa: sp 0 +
STACK CFI 33580 .cfa: x29 32 +
STACK CFI 335f4 .cfa: sp 32 +
STACK CFI 335fc .cfa: sp 0 +
STACK CFI 33600 .cfa: x29 32 +
STACK CFI 33610 .cfa: sp 32 +
STACK CFI 33618 .cfa: sp 0 +
STACK CFI 3361c .cfa: x29 32 +
STACK CFI 3362c .cfa: sp 32 +
STACK CFI 33634 .cfa: sp 0 +
STACK CFI 33638 .cfa: x29 32 +
STACK CFI INIT 3365c 178 .cfa: sp 0 +
STACK CFI 33660 .cfa: sp 80 +
STACK CFI 33674 .cfa: x29 64 + x19: .cfa -8 + ^ x20: .cfa -16 + ^ x21: .cfa -24 + ^ x22: .cfa -32 + ^ x23: .cfa -40 + ^ x24: .cfa -48 + ^ .ra: .cfa -56 + ^ x29: .cfa -64 + ^
STACK CFI 337b8 .cfa: sp 80 +
STACK CFI 337cc .cfa: sp 0 +
STACK CFI 337d0 .cfa: x29 64 +
STACK CFI INIT 337d4 178 .cfa: sp 0 +
STACK CFI 337d8 .cfa: sp 80 +
STACK CFI 337ec .cfa: x29 64 + x19: .cfa -8 + ^ x20: .cfa -16 + ^ x21: .cfa -24 + ^ x22: .cfa -32 + ^ x23: .cfa -40 + ^ x24: .cfa -48 + ^ .ra: .cfa -56 + ^ x29: .cfa -64 + ^
STACK CFI 33930 .cfa: sp 80 +
STACK CFI 33944 .cfa: sp 0 +
STACK CFI 33948 .cfa: x29 64 +
STACK CFI INIT 3394c 178 .cfa: sp 0 +
STACK CFI 33950 .cfa: sp 80 +
STACK CFI 33964 .cfa: x29 64 + x19: .cfa -8 + ^ x20: .cfa -16 + ^ x21: .cfa -24 + ^ x22: .cfa -32 + ^ x23: .cfa -40 + ^ x24: .cfa -48 + ^ .ra: .cfa -56 + ^ x29: .cfa -64 + ^
STACK CFI 33aa8 .cfa: sp 80 +
STACK CFI 33abc .cfa: sp 0 +
STACK CFI 33ac0 .cfa: x29 64 +
STACK CFI INIT 33ac4 4 .cfa: sp 0 +
STACK CFI INIT 33ac8 40 .cfa: sp 0 +
STACK CFI 33acc .cfa: sp 32 +
STACK CFI 33ad4 .cfa: x29 32 + x19: .cfa -16 + ^ .ra: .cfa -24 + ^ x29: .cfa -32 + ^
STACK CFI 33afc .cfa: sp 32 +
STACK CFI 33b04 .cfa: sp 0 +
STACK CFI INIT 33b08 20 .cfa: sp 0 +
STACK CFI INIT 33b28 4 .cfa: sp 0 +
STACK CFI INIT 33b2c 4 .cfa: sp 0 +
STACK CFI INIT 33dfc 1c .cfa: sp 0 +
STACK CFI INIT 33e18 c .cfa: sp 0 +
STACK CFI INIT 33f1c 2c .cfa: sp 0 +
STACK CFI 33f20 .cfa: sp 32 +
STACK CFI 33f28 .cfa: x29 32 + x19: .cfa -16 + ^ .ra: .cfa -24 + ^ x29: .cfa -32 + ^
STACK CFI 33f3c .cfa: sp 32 +
STACK CFI 33f44 .cfa: sp 0 +
STACK CFI INIT 33f48 28 .cfa: sp 0 +
STACK CFI INIT 35170 2c .cfa: sp 0 +
STACK CFI INIT 35208 4 .cfa: sp 0 +
STACK CFI INIT 35278 4 .cfa: sp 0 +
STACK CFI INIT 353e8 100 .cfa: sp 0 +
STACK CFI 353ec .cfa: sp 64 +
STACK CFI 353fc .cfa: x29 64 + x19: .cfa -8 + ^ x20: .cfa -16 + ^ x21: .cfa -24 + ^ x22: .cfa -32 + ^ x23: .cfa -40 + ^ x24: .cfa -48 + ^ .ra: .cfa -56 + ^ x29: .cfa -64 + ^
STACK CFI 354d4 .cfa: sp 64 +
STACK CFI 354e4 .cfa: sp 0 +
STACK CFI INIT 354e8 4 .cfa: sp 0 +
STACK CFI INIT 354ec 34 .cfa: sp 0 +
STACK CFI 354f0 .cfa: sp 32 +
STACK CFI 354f8 .cfa: x29 32 + x19: .cfa -16 + ^ .ra: .cfa -24 + ^ x29: .cfa -32 + ^
STACK CFI 35514 .cfa: sp 32 +
STACK CFI 3551c .cfa: sp 0 +
STACK CFI INIT 35520 14 .cfa: sp 0 +
STACK CFI INIT 35534 4 .cfa: sp 0 +
STACK CFI INIT 35538 4 .cfa: sp 0 +
STACK CFI INIT 35804 1c .cfa: sp 0 +
STACK CFI INIT 35820 c .cfa: sp 0 +
STACK CFI INIT 35b30 60 .cfa: sp 0 +
STACK CFI 35b34 .cfa: sp 32 +
STACK CFI 35b3c .cfa: x29 32 + x19: .cfa -8 + ^ x20: .cfa -16 + ^ .ra: .cfa -24 + ^ x29: .cfa -32 + ^
STACK CFI 35b5c .cfa: sp 32 +
STACK CFI 35b64 .cfa: sp 0 +
STACK CFI 35b68 .cfa: x29 32 +
STACK CFI 35b84 .cfa: sp 32 +
STACK CFI 35b8c .cfa: sp 0 +
STACK CFI INIT 35b90 70 .cfa: sp 0 +
STACK CFI 35b94 .cfa: sp 32 +
STACK CFI 35b9c .cfa: x29 32 + x19: .cfa -8 + ^ x20: .cfa -16 + ^ .ra: .cfa -24 + ^ x29: .cfa -32 + ^
STACK CFI 35bc4 .cfa: sp 32 +
STACK CFI 35bcc .cfa: sp 0 +
STACK CFI 35bd0 .cfa: x29 32 +
STACK CFI 35bf4 .cfa: sp 32 +
STACK CFI 35bfc .cfa: sp 0 +
STACK CFI INIT 35c00 10 .cfa: sp 0 +
STACK CFI INIT 35c10 30 .cfa: sp 0 +
STACK CFI 35c14 .cfa: sp 32 +
STACK CFI 35c1c .cfa: x29 32 + x19: .cfa -16 + ^ .ra: .cfa -24 + ^ x29: .cfa -32 + ^
STACK CFI 35c34 .cfa: sp 32 +
STACK CFI 35c3c .cfa: sp 0 +
STACK CFI INIT 35c40 4 .cfa: sp 0 +
STACK CFI INIT 35c44 4 .cfa: sp 0 +
STACK CFI INIT 35c48 4 .cfa: sp 0 +
STACK CFI INIT 35c4c 34 .cfa: sp 0 +
STACK CFI 35c50 .cfa: sp 32 +
STACK CFI 35c58 .cfa: x29 32 + x19: .cfa -16 + ^ .ra: .cfa -24 + ^ x29: .cfa -32 + ^
STACK CFI 35c74 .cfa: sp 32 +
STACK CFI 35c7c .cfa: sp 0 +
STACK CFI INIT 35c80 14 .cfa: sp 0 +
STACK CFI INIT 35c94 4 .cfa: sp 0 +
STACK CFI INIT 35c98 4 .cfa: sp 0 +
STACK CFI INIT 35f50 1c .cfa: sp 0 +
STACK CFI INIT 35f6c c .cfa: sp 0 +
STACK CFI INIT 35f78 14 .cfa: sp 0 +
STACK CFI 35f7c .cfa: sp 16 +
STACK CFI 35f80 .cfa: x29 16 + .ra: .cfa -8 + ^ x29: .cfa -16 + ^
STACK CFI INIT 35fdc 30 .cfa: sp 0 +
STACK CFI 35fe0 .cfa: sp 32 +
STACK CFI 35fe8 .cfa: x29 32 + x19: .cfa -16 + ^ .ra: .cfa -24 + ^ x29: .cfa -32 + ^
STACK CFI 36000 .cfa: sp 32 +
STACK CFI 36008 .cfa: sp 0 +
STACK CFI INIT 3600c c .cfa: sp 0 +
STACK CFI 36010 .cfa: sp 16 +
STACK CFI 36014 .cfa: x29 16 + .ra: .cfa -8 + ^ x29: .cfa -16 + ^
STACK CFI INIT 361b0 4 .cfa: sp 0 +
STACK CFI INIT 361b4 24 .cfa: sp 0 +
STACK CFI 361b8 .cfa: sp 16 +
STACK CFI 361bc .cfa: x29 16 + .ra: .cfa -8 + ^ x29: .cfa -16 + ^
STACK CFI 361d0 .cfa: sp 16 +
STACK CFI 361d4 .cfa: sp 0 +
STACK CFI INIT 361d8 10 .cfa: sp 0 +
STACK CFI INIT 361e8 4 .cfa: sp 0 +
STACK CFI INIT 361ec 4 .cfa: sp 0 +
STACK CFI INIT 362b0 1c .cfa: sp 0 +
STACK CFI INIT 362cc c .cfa: sp 0 +
STACK CFI INIT 362d8 4 .cfa: sp 0 +
STACK CFI INIT 362dc 4 .cfa: sp 0 +
STACK CFI INIT 362e0 24 .cfa: sp 0 +
STACK CFI 362e4 .cfa: sp 16 +
STACK CFI 362e8 .cfa: x29 16 + .ra: .cfa -8 + ^ x29: .cfa -16 + ^
STACK CFI 362fc .cfa: sp 16 +
STACK CFI 36300 .cfa: sp 0 +
STACK CFI INIT 36304 10 .cfa: sp 0 +
STACK CFI INIT 36314 4 .cfa: sp 0 +
STACK CFI INIT 36318 4 .cfa: sp 0 +
STACK CFI INIT 363dc 1c .cfa: sp 0 +
STACK CFI INIT 363f8 c .cfa: sp 0 +
STACK CFI INIT 36404 4 .cfa: sp 0 +
STACK CFI INIT 36408 4 .cfa: sp 0 +
STACK CFI INIT 3640c 38 .cfa: sp 0 +
STACK CFI 36410 .cfa: sp 32 +
STACK CFI 36418 .cfa: x29 32 + x19: .cfa -16 + ^ .ra: .cfa -24 + ^ x29: .cfa -32 + ^
STACK CFI 36438 .cfa: sp 32 +
STACK CFI 36440 .cfa: sp 0 +
STACK CFI INIT 36444 18 .cfa: sp 0 +
STACK CFI INIT 3645c 4 .cfa: sp 0 +
STACK CFI INIT 36460 4 .cfa: sp 0 +
STACK CFI INIT 367a4 1c .cfa: sp 0 +
STACK CFI INIT 367c0 c .cfa: sp 0 +
STACK CFI INIT 36840 8 .cfa: sp 0 +
STACK CFI INIT 36848 14 .cfa: sp 0 +
STACK CFI INIT 36d78 4 .cfa: sp 0 +
STACK CFI INIT 36d7c 34 .cfa: sp 0 +
STACK CFI 36d80 .cfa: sp 32 +
STACK CFI 36d88 .cfa: x29 32 + x19: .cfa -16 + ^ .ra: .cfa -24 + ^ x29: .cfa -32 + ^
STACK CFI 36da4 .cfa: sp 32 +
STACK CFI 36dac .cfa: sp 0 +
STACK CFI INIT 36db0 14 .cfa: sp 0 +
STACK CFI INIT 36dc4 4 .cfa: sp 0 +
STACK CFI INIT 36dc8 4 .cfa: sp 0 +
STACK CFI INIT 375dc 1c .cfa: sp 0 +
STACK CFI INIT 375f8 c .cfa: sp 0 +
STACK CFI INIT 37604 4 .cfa: sp 0 +
STACK CFI INIT 37608 14 .cfa: sp 0 +
STACK CFI INIT 3761c 1d8 .cfa: sp 0 +
STACK CFI 37620 .cfa: sp 64 +
STACK CFI 37630 .cfa: x29 48 + x19: .cfa -8 + ^ x20: .cfa -16 + ^ x21: .cfa -24 + ^ x22: .cfa -32 + ^ .ra: .cfa -40 + ^ x29: .cfa -48 + ^
STACK CFI 377dc .cfa: sp 64 +
STACK CFI 377ec .cfa: sp 0 +
STACK CFI 377f0 .cfa: x29 48 +
STACK CFI INIT 377f4 3c .cfa: sp 0 +
STACK CFI 377f8 .cfa: sp 32 +
STACK CFI 37800 .cfa: x29 32 + x19: .cfa -16 + ^ .ra: .cfa -24 + ^ x29: .cfa -32 + ^
STACK CFI 3780c .cfa: sp 32 +
STACK CFI 37814 .cfa: sp 0 +
STACK CFI 37818 .cfa: x29 32 +
STACK CFI 37824 .cfa: sp 32 +
STACK CFI 3782c .cfa: sp 0 +
STACK CFI INIT 37b4c 64 .cfa: sp 0 +
STACK CFI 37b50 .cfa: sp 32 +
STACK CFI 37b58 .cfa: x29 32 + x19: .cfa -16 + ^ .ra: .cfa -24 + ^ x29: .cfa -32 + ^
STACK CFI 37b84 .cfa: sp 32 +
STACK CFI 37b8c .cfa: sp 0 +
STACK CFI 37b90 .cfa: x29 32 +
STACK CFI 37ba4 .cfa: sp 32 +
STACK CFI 37bac .cfa: sp 0 +
STACK CFI INIT 37eb8 24 .cfa: sp 0 +
STACK CFI 37ebc .cfa: sp 32 +
STACK CFI 37ec4 .cfa: x29 32 + x19: .cfa -16 + ^ .ra: .cfa -24 + ^ x29: .cfa -32 + ^
STACK CFI 37ed0 .cfa: sp 32 +
STACK CFI 37ed8 .cfa: sp 0 +
STACK CFI INIT 38074 8 .cfa: sp 0 +
STACK CFI INIT 3807c 24 .cfa: sp 0 +
STACK CFI 38080 .cfa: sp 32 +
STACK CFI 38088 .cfa: x29 32 + x19: .cfa -16 + ^ .ra: .cfa -24 + ^ x29: .cfa -32 + ^
STACK CFI 38094 .cfa: sp 32 +
STACK CFI 3809c .cfa: sp 0 +
STACK CFI INIT 380a0 28 .cfa: sp 0 +
STACK CFI 380a4 .cfa: sp 32 +
STACK CFI 380ac .cfa: x29 32 + x19: .cfa -16 + ^ .ra: .cfa -24 + ^ x29: .cfa -32 + ^
STACK CFI 380bc .cfa: sp 32 +
STACK CFI 380c4 .cfa: sp 0 +
STACK CFI INIT 380c8 24 .cfa: sp 0 +
STACK CFI 380cc .cfa: sp 32 +
STACK CFI 380d4 .cfa: x29 32 + x19: .cfa -16 + ^ .ra: .cfa -24 + ^ x29: .cfa -32 + ^
STACK CFI 380e0 .cfa: sp 32 +
STACK CFI 380e8 .cfa: sp 0 +
STACK CFI INIT 38678 8 .cfa: sp 0 +
STACK CFI INIT 38680 24 .cfa: sp 0 +
STACK CFI 38684 .cfa: sp 32 +
STACK CFI 3868c .cfa: x29 32 + x19: .cfa -16 + ^ .ra: .cfa -24 + ^ x29: .cfa -32 + ^
STACK CFI 38698 .cfa: sp 32 +
STACK CFI 386a0 .cfa: sp 0 +
STACK CFI INIT 386a4 28 .cfa: sp 0 +
STACK CFI 386a8 .cfa: sp 32 +
STACK CFI 386b0 .cfa: x29 32 + x19: .cfa -16 + ^ .ra: .cfa -24 + ^ x29: .cfa -32 + ^
STACK CFI 386c0 .cfa: sp 32 +
STACK CFI 386c8 .cfa: sp 0 +
STACK CFI INIT 386cc 8 .cfa: sp 0 +
STACK CFI INIT 386d4 24 .cfa: sp 0 +
STACK CFI 386d8 .cfa: sp 32 +
STACK CFI 386e0 .cfa: x29 32 + x19: .cfa -16 + ^ .ra: .cfa -24 + ^ x29: .cfa -32 + ^
STACK CFI 386ec .cfa: sp 32 +
STACK CFI 386f4 .cfa: sp 0 +
STACK CFI INIT 386f8 28 .cfa: sp 0 +
STACK CFI 386fc .cfa: sp 32 +
STACK CFI 38704 .cfa: x29 32 + x19: .cfa -16 + ^ .ra: .cfa -24 + ^ x29: .cfa -32 + ^
STACK CFI 38714 .cfa: sp 32 +
STACK CFI 3871c .cfa: sp 0 +
STACK CFI INIT 38abc 24 .cfa: sp 0 +
STACK CFI 38ac0 .cfa: sp 32 +
STACK CFI 38ac8 .cfa: x29 32 + x19: .cfa -16 + ^ .ra: .cfa -24 + ^ x29: .cfa -32 + ^
STACK CFI 38ad4 .cfa: sp 32 +
STACK CFI 38adc .cfa: sp 0 +
STACK CFI INIT 38ae0 8 .cfa: sp 0 +
STACK CFI INIT 38ae8 24 .cfa: sp 0 +
STACK CFI 38aec .cfa: sp 32 +
STACK CFI 38af4 .cfa: x29 32 + x19: .cfa -16 + ^ .ra: .cfa -24 + ^ x29: .cfa -32 + ^
STACK CFI 38b00 .cfa: sp 32 +
STACK CFI 38b08 .cfa: sp 0 +
STACK CFI INIT 38b0c 28 .cfa: sp 0 +
STACK CFI 38b10 .cfa: sp 32 +
STACK CFI 38b18 .cfa: x29 32 + x19: .cfa -16 + ^ .ra: .cfa -24 + ^ x29: .cfa -32 + ^
STACK CFI 38b28 .cfa: sp 32 +
STACK CFI 38b30 .cfa: sp 0 +
STACK CFI INIT 38e58 4 .cfa: sp 0 +
STACK CFI INIT 38e5c 4 .cfa: sp 0 +
STACK CFI INIT 38e60 4 .cfa: sp 0 +
STACK CFI INIT 38e64 4 .cfa: sp 0 +
STACK CFI INIT 38e68 8 .cfa: sp 0 +
STACK CFI INIT 38e70 4 .cfa: sp 0 +
STACK CFI INIT 38e74 1f8 .cfa: sp 0 +
STACK CFI 38e78 .cfa: sp 112 +
STACK CFI 38e98 .cfa: x29 72 + x19: .cfa -8 + ^ x20: .cfa -16 + ^ x21: .cfa -24 + ^ x22: .cfa -32 + ^ x23: .cfa -40 + ^ x24: .cfa -48 + ^ x25: .cfa -56 + ^ .ra: .cfa -64 + ^ x29: .cfa -72 + ^ v8: .cfa -80 + ^ v9: .cfa -88 + ^ v10: .cfa -96 + ^
STACK CFI 39044 .cfa: sp 112 +
STACK CFI 39064 .cfa: sp 0 +
STACK CFI 39068 .cfa: x29 72 +
STACK CFI INIT 3906c 4 .cfa: sp 0 +
STACK CFI INIT 39d58 4 .cfa: sp 0 +
STACK CFI INIT 39d5c 14 .cfa: sp 0 +
STACK CFI INIT 3a250 110 .cfa: sp 0 +
STACK CFI INIT 3a360 134 .cfa: sp 0 +
STACK CFI INIT 24700 8c .cfa: sp 0 +
STACK CFI 24704 .cfa: sp 32 +
STACK CFI 2470c .cfa: x29 32 + x19: .cfa -16 + ^ .ra: .cfa -24 + ^ x29: .cfa -32 + ^
STACK CFI 2475c .cfa: sp 32 +
STACK CFI 24764 .cfa: sp 0 +
STACK CFI 24768 .cfa: sp 32 +
STACK CFI 24770 .cfa: sp 0 +
STACK CFI 24774 .cfa: x29 32 +
STACK CFI INIT 24800 bd4 .cfa: sp 0 +
STACK CFI 24804 .cfa: sp 240 +
STACK CFI 24820 .cfa: x29 96 + x19: .cfa -8 + ^ x20: .cfa -16 + ^ x21: .cfa -24 + ^ x22: .cfa -32 + ^ x23: .cfa -40 + ^ x24: .cfa -48 + ^ x25: .cfa -56 + ^ x26: .cfa -64 + ^ x27: .cfa -72 + ^ x28: .cfa -80 + ^ .ra: .cfa -88 + ^ x29: .cfa -96 + ^
STACK CFI 24bfc .cfa: sp 240 +
STACK CFI 24c18 .cfa: sp 0 +
STACK CFI 24c1c .cfa: x29 96 +
STACK CFI 2527c .cfa: sp 240 +
STACK CFI 25298 .cfa: sp 0 +
STACK CFI 2529c .cfa: x29 96 +
STACK CFI INIT 253fc 408 .cfa: sp 0 +
STACK CFI 25400 .cfa: sp 208 +
STACK CFI 2541c .cfa: x29 96 + x19: .cfa -8 + ^ x20: .cfa -16 + ^ x21: .cfa -24 + ^ x22: .cfa -32 + ^ x23: .cfa -40 + ^ x24: .cfa -48 + ^ x25: .cfa -56 + ^ x26: .cfa -64 + ^ x27: .cfa -80 + ^ .ra: .cfa -88 + ^ x29: .cfa -96 + ^
STACK CFI 256f0 .cfa: sp 208 +
STACK CFI 2570c .cfa: sp 0 +
STACK CFI 25710 .cfa: x29 96 +
STACK CFI INIT 25854 74 .cfa: sp 0 +
STACK CFI 25858 .cfa: sp 48 +
STACK CFI 25864 .cfa: x29 32 + x19: .cfa -8 + ^ x20: .cfa -16 + ^ .ra: .cfa -24 + ^ x29: .cfa -32 + ^
STACK CFI 258b0 .cfa: sp 48 +
STACK CFI 258bc .cfa: sp 0 +
STACK CFI 258c0 .cfa: x29 32 +
STACK CFI INIT 25948 154 .cfa: sp 0 +
STACK CFI 2594c .cfa: sp 384 +
STACK CFI 25960 .cfa: x29 64 + x19: .cfa -8 + ^ x20: .cfa -16 + ^ x21: .cfa -24 + ^ x22: .cfa -32 + ^ x23: .cfa -40 + ^ x28: .cfa -48 + ^ .ra: .cfa -56 + ^ x29: .cfa -64 + ^
STACK CFI 25a44 .cfa: sp 384 +
STACK CFI 25a58 .cfa: sp 0 +
STACK CFI 25a5c .cfa: x29 64 +
STACK CFI INIT 25ad0 12c .cfa: sp 0 +
STACK CFI 25ad4 .cfa: sp 80 +
STACK CFI 25ae8 .cfa: x29 80 + x19: .cfa -8 + ^ x20: .cfa -16 + ^ x21: .cfa -24 + ^ x22: .cfa -32 + ^ x23: .cfa -40 + ^ x24: .cfa -48 + ^ x25: .cfa -56 + ^ x26: .cfa -64 + ^ .ra: .cfa -72 + ^ x29: .cfa -80 + ^
STACK CFI 25bb0 .cfa: sp 80 +
STACK CFI 25bc4 .cfa: sp 0 +
STACK CFI 25bc8 .cfa: x29 80 +
STACK CFI INIT 25ca0 1a4 .cfa: sp 0 +
STACK CFI 25ca4 .cfa: sp 112 +
STACK CFI 25cbc .cfa: x29 80 + x19: .cfa -8 + ^ x20: .cfa -16 + ^ x21: .cfa -24 + ^ x22: .cfa -32 + ^ x23: .cfa -40 + ^ x24: .cfa -48 + ^ x25: .cfa -56 + ^ x26: .cfa -64 + ^ .ra: .cfa -72 + ^ x29: .cfa -80 + ^
STACK CFI 25dac .cfa: sp 112 +
STACK CFI 25dc4 .cfa: sp 0 +
STACK CFI 25dc8 .cfa: x29 80 +
STACK CFI INIT 25e44 1dc .cfa: sp 0 +
STACK CFI 25e48 .cfa: sp 128 +
STACK CFI 25e64 .cfa: x29 96 + x19: .cfa -8 + ^ x20: .cfa -16 + ^ x21: .cfa -24 + ^ x22: .cfa -32 + ^ x23: .cfa -40 + ^ x24: .cfa -48 + ^ x25: .cfa -56 + ^ x26: .cfa -64 + ^ x27: .cfa -80 + ^ .ra: .cfa -88 + ^ x29: .cfa -96 + ^
STACK CFI 25fd0 .cfa: sp 128 +
STACK CFI 25fec .cfa: sp 0 +
STACK CFI 25ff0 .cfa: x29 96 +
STACK CFI INIT 26034 50 .cfa: sp 0 +
STACK CFI 26038 .cfa: sp 32 +
STACK CFI 26040 .cfa: x29 32 + x19: .cfa -8 + ^ x20: .cfa -16 + ^ .ra: .cfa -24 + ^ x29: .cfa -32 + ^
STACK CFI INIT 260e8 178 .cfa: sp 0 +
STACK CFI 260ec .cfa: sp 80 +
STACK CFI 26100 .cfa: x29 80 + x19: .cfa -8 + ^ x20: .cfa -16 + ^ x21: .cfa -24 + ^ x22: .cfa -32 + ^ x23: .cfa -40 + ^ x24: .cfa -48 + ^ x25: .cfa -64 + ^ .ra: .cfa -72 + ^ x29: .cfa -80 + ^
STACK CFI 2622c .cfa: sp 80 +
STACK CFI 26240 .cfa: sp 0 +
STACK CFI 26244 .cfa: x29 80 +
STACK CFI INIT 26540 1bc .cfa: sp 0 +
STACK CFI 26544 .cfa: sp 80 +
STACK CFI 26554 .cfa: x29 48 + x19: .cfa -8 + ^ x20: .cfa -16 + ^ x21: .cfa -24 + ^ x22: .cfa -32 + ^ .ra: .cfa -40 + ^ x29: .cfa -48 + ^
STACK CFI 266b8 .cfa: sp 80 +
STACK CFI 266c8 .cfa: sp 0 +
STACK CFI 266cc .cfa: x29 48 +
STACK CFI INIT 266fc a8 .cfa: sp 0 +
STACK CFI 26700 .cfa: sp 32 +
STACK CFI 26708 .cfa: x29 32 + x19: .cfa -16 + ^ .ra: .cfa -24 + ^ x29: .cfa -32 + ^
STACK CFI 2673c .cfa: sp 32 +
STACK CFI 26744 .cfa: sp 0 +
STACK CFI 26748 .cfa: x29 32 +
STACK CFI 2674c .cfa: sp 32 +
STACK CFI 26754 .cfa: sp 0 +
STACK CFI 26758 .cfa: x29 32 +
STACK CFI INIT 268f4 b4 .cfa: sp 0 +
STACK CFI 268f8 .cfa: sp 32 +
STACK CFI 26900 .cfa: x29 32 + x19: .cfa -8 + ^ x20: .cfa -16 + ^ .ra: .cfa -24 + ^ x29: .cfa -32 + ^
STACK CFI 26988 .cfa: sp 32 +
STACK CFI 26990 .cfa: sp 0 +
STACK CFI 26994 .cfa: x29 32 +
STACK CFI INIT 269a8 190 .cfa: sp 0 +
STACK CFI 269ac .cfa: sp 160 +
STACK CFI 269bc .cfa: x29 48 + x19: .cfa -8 + ^ x20: .cfa -16 + ^ x21: .cfa -32 + ^ .ra: .cfa -40 + ^ x29: .cfa -48 + ^
STACK CFI 26adc .cfa: sp 160 +
STACK CFI 26aec .cfa: sp 0 +
STACK CFI 26af0 .cfa: x29 48 +
STACK CFI INIT 26b38 74 .cfa: sp 0 +
STACK CFI 26b3c .cfa: sp 48 +
STACK CFI 26b48 .cfa: x29 32 + x19: .cfa -8 + ^ x20: .cfa -16 + ^ .ra: .cfa -24 + ^ x29: .cfa -32 + ^
STACK CFI 26b94 .cfa: sp 48 +
STACK CFI 26ba0 .cfa: sp 0 +
STACK CFI 26ba4 .cfa: x29 32 +
STACK CFI INIT 26d8c 18c .cfa: sp 0 +
STACK CFI 26d90 .cfa: sp 80 +
STACK CFI 26da0 .cfa: x29 48 + x19: .cfa -8 + ^ x20: .cfa -16 + ^ x21: .cfa -24 + ^ x22: .cfa -32 + ^ .ra: .cfa -40 + ^ x29: .cfa -48 + ^
STACK CFI 26e50 .cfa: sp 80 +
STACK CFI 26e60 .cfa: sp 0 +
STACK CFI 26e64 .cfa: x29 48 +
STACK CFI INIT 26f18 e70 .cfa: sp 0 +
STACK CFI 26f1c .cfa: sp 192 +
STACK CFI 26f34 .cfa: x29 64 + x19: .cfa -8 + ^ x20: .cfa -16 + ^ x21: .cfa -24 + ^ x22: .cfa -32 + ^ x23: .cfa -40 + ^ x24: .cfa -48 + ^ .ra: .cfa -56 + ^ x29: .cfa -64 + ^ v8: .cfa -72 + ^ v9: .cfa -80 + ^
STACK CFI 27ce8 .cfa: sp 192 +
STACK CFI 27d00 .cfa: sp 0 +
STACK CFI 27d04 .cfa: x29 64 +
STACK CFI INIT 27e60 164 .cfa: sp 0 +
STACK CFI 27e64 .cfa: sp 128 +
STACK CFI 27e70 .cfa: x29 32 + x19: .cfa -8 + ^ x20: .cfa -16 + ^ .ra: .cfa -24 + ^ x29: .cfa -32 + ^
STACK CFI 27f3c .cfa: sp 128 +
STACK CFI 27f48 .cfa: sp 0 +
STACK CFI 27f4c .cfa: x29 32 +
STACK CFI INIT 27fc4 178 .cfa: sp 0 +
STACK CFI 27fc8 .cfa: sp 128 +
STACK CFI 27fd4 .cfa: x29 32 + x19: .cfa -8 + ^ x20: .cfa -16 + ^ .ra: .cfa -24 + ^ x29: .cfa -32 + ^
STACK CFI 280b4 .cfa: sp 128 +
STACK CFI 280c0 .cfa: sp 0 +
STACK CFI 280c4 .cfa: x29 32 +
STACK CFI INIT 2813c dc .cfa: sp 0 +
STACK CFI 28140 .cfa: sp 64 +
STACK CFI 2814c .cfa: x29 32 + x19: .cfa -8 + ^ x20: .cfa -16 + ^ .ra: .cfa -24 + ^ x29: .cfa -32 + ^
STACK CFI 281d0 .cfa: sp 64 +
STACK CFI 281dc .cfa: sp 0 +
STACK CFI 281e0 .cfa: x29 32 +
STACK CFI INIT 28298 128 .cfa: sp 0 +
STACK CFI 2829c .cfa: sp 96 +
STACK CFI 282a8 .cfa: x29 32 + x19: .cfa -8 + ^ x20: .cfa -16 + ^ .ra: .cfa -24 + ^ x29: .cfa -32 + ^
STACK CFI 28348 .cfa: sp 96 +
STACK CFI 28354 .cfa: sp 0 +
STACK CFI 28358 .cfa: x29 32 +
STACK CFI INIT 283c0 360 .cfa: sp 0 +
STACK CFI 283c4 .cfa: sp 96 +
STACK CFI 283d4 .cfa: x29 48 + x19: .cfa -8 + ^ x20: .cfa -16 + ^ x21: .cfa -32 + ^ .ra: .cfa -40 + ^ x29: .cfa -48 + ^
STACK CFI 286d4 .cfa: sp 96 +
STACK CFI 286e4 .cfa: sp 0 +
STACK CFI 286e8 .cfa: x29 48 +
STACK CFI INIT 28720 284 .cfa: sp 0 +
STACK CFI 28724 .cfa: sp 208 +
STACK CFI 28738 .cfa: x29 64 + x19: .cfa -8 + ^ x20: .cfa -16 + ^ x21: .cfa -24 + ^ x22: .cfa -32 + ^ x23: .cfa -48 + ^ .ra: .cfa -56 + ^ x29: .cfa -64 + ^
STACK CFI 287b0 .cfa: sp 208 +
STACK CFI 287c4 .cfa: sp 0 +
STACK CFI 287c8 .cfa: x29 64 +
STACK CFI 28954 .cfa: sp 208 +
STACK CFI 28968 .cfa: sp 0 +
STACK CFI 2896c .cfa: x29 64 +
STACK CFI INIT 289a4 134 .cfa: sp 0 +
STACK CFI 289a8 .cfa: sp 80 +
STACK CFI 289b8 .cfa: x29 48 + x19: .cfa -8 + ^ x20: .cfa -16 + ^ x21: .cfa -24 + ^ x22: .cfa -32 + ^ .ra: .cfa -40 + ^ x29: .cfa -48 + ^
STACK CFI 28abc .cfa: sp 80 +
STACK CFI 28acc .cfa: sp 0 +
STACK CFI 28ad0 .cfa: x29 48 +
STACK CFI INIT 28b28 27bc .cfa: sp 0 +
STACK CFI 28b2c .cfa: sp 112 +
STACK CFI 28b48 .cfa: x29 96 + x19: .cfa -8 + ^ x20: .cfa -16 + ^ x21: .cfa -24 + ^ x22: .cfa -32 + ^ x23: .cfa -40 + ^ x24: .cfa -48 + ^ x25: .cfa -56 + ^ x26: .cfa -64 + ^ x27: .cfa -72 + ^ x28: .cfa -80 + ^ .ra: .cfa -88 + ^ x29: .cfa -96 + ^ v8: .cfa -104 + ^ v9: .cfa -112 + ^
STACK CFI 2a594 .cfa: sp 112 +
STACK CFI 2a5b0 .cfa: sp 0 +
STACK CFI 2a5b4 .cfa: x29 96 +
STACK CFI INIT 2b2e4 74 .cfa: sp 0 +
STACK CFI 2b2e8 .cfa: sp 48 +
STACK CFI 2b2f4 .cfa: x29 32 + x19: .cfa -8 + ^ x20: .cfa -16 + ^ .ra: .cfa -24 + ^ x29: .cfa -32 + ^
STACK CFI 2b340 .cfa: sp 48 +
STACK CFI 2b34c .cfa: sp 0 +
STACK CFI 2b350 .cfa: x29 32 +
STACK CFI INIT 2b358 74 .cfa: sp 0 +
STACK CFI 2b35c .cfa: sp 48 +
STACK CFI 2b368 .cfa: x29 32 + x19: .cfa -8 + ^ x20: .cfa -16 + ^ .ra: .cfa -24 + ^ x29: .cfa -32 + ^
STACK CFI 2b3b4 .cfa: sp 48 +
STACK CFI 2b3c0 .cfa: sp 0 +
STACK CFI 2b3c4 .cfa: x29 32 +
STACK CFI INIT 2b3cc 548 .cfa: sp 0 +
STACK CFI 2b3d0 .cfa: sp 192 +
STACK CFI 2b3ec .cfa: x29 96 + x19: .cfa -8 + ^ x20: .cfa -16 + ^ x21: .cfa -24 + ^ x22: .cfa -32 + ^ x23: .cfa -40 + ^ x24: .cfa -48 + ^ x25: .cfa -56 + ^ x26: .cfa -64 + ^ x27: .cfa -72 + ^ x28: .cfa -80 + ^ .ra: .cfa -88 + ^ x29: .cfa -96 + ^
STACK CFI 2b7b0 .cfa: sp 192 +
STACK CFI 2b7cc .cfa: sp 0 +
STACK CFI 2b7d0 .cfa: x29 96 +
STACK CFI INIT 2b914 1c .cfa: sp 0 +
STACK CFI 2b918 .cfa: sp 16 +
STACK CFI 2b91c .cfa: x29 16 + .ra: .cfa -8 + ^ x29: .cfa -16 + ^
STACK CFI 2b924 .cfa: sp 16 +
STACK CFI 2b928 .cfa: sp 0 +
STACK CFI 2b92c .cfa: x29 16 +
STACK CFI INIT 2b934 808 .cfa: sp 0 +
STACK CFI 2b938 .cfa: sp 272 +
STACK CFI 2b958 .cfa: x29 96 + x19: .cfa -8 + ^ x20: .cfa -16 + ^ x21: .cfa -24 + ^ x22: .cfa -32 + ^ x23: .cfa -40 + ^ x24: .cfa -48 + ^ x25: .cfa -56 + ^ x26: .cfa -64 + ^ x27: .cfa -72 + ^ x28: .cfa -80 + ^ .ra: .cfa -88 + ^ x29: .cfa -96 + ^ v8: .cfa -112 + ^
STACK CFI 2bfcc .cfa: sp 272 +
STACK CFI 2bfec .cfa: sp 0 +
STACK CFI 2bff0 .cfa: x29 96 +
STACK CFI INIT 2c3cc 21c .cfa: sp 0 +
STACK CFI 2c3d0 .cfa: sp 192 +
STACK CFI 2c3e4 .cfa: x29 64 + x19: .cfa -8 + ^ x20: .cfa -16 + ^ x21: .cfa -24 + ^ x22: .cfa -32 + ^ x23: .cfa -48 + ^ .ra: .cfa -56 + ^ x29: .cfa -64 + ^
STACK CFI 2c524 .cfa: sp 192 +
STACK CFI 2c538 .cfa: sp 0 +
STACK CFI 2c53c .cfa: x29 64 +
STACK CFI INIT 2c5ec 1cc .cfa: sp 0 +
STACK CFI 2c5f0 .cfa: sp 128 +
STACK CFI 2c600 .cfa: x29 48 + x19: .cfa -8 + ^ x20: .cfa -16 + ^ x21: .cfa -32 + ^ .ra: .cfa -40 + ^ x29: .cfa -48 + ^
STACK CFI 2c73c .cfa: sp 128 +
STACK CFI 2c74c .cfa: sp 0 +
STACK CFI 2c750 .cfa: x29 48 +
STACK CFI INIT 2cb48 1d0 .cfa: sp 0 +
STACK CFI 2cb4c .cfa: sp 128 +
STACK CFI 2cb60 .cfa: x29 64 + x19: .cfa -8 + ^ x20: .cfa -16 + ^ x21: .cfa -24 + ^ x22: .cfa -32 + ^ x23: .cfa -48 + ^ .ra: .cfa -56 + ^ x29: .cfa -64 + ^
STACK CFI 2ccd8 .cfa: sp 128 +
STACK CFI 2ccec .cfa: sp 0 +
STACK CFI 2ccf0 .cfa: x29 64 +
STACK CFI INIT 2d034 1c4 .cfa: sp 0 +
STACK CFI 2d038 .cfa: sp 112 +
STACK CFI 2d048 .cfa: x29 48 + x19: .cfa -8 + ^ x20: .cfa -16 + ^ x21: .cfa -24 + ^ x22: .cfa -32 + ^ .ra: .cfa -40 + ^ x29: .cfa -48 + ^
STACK CFI 2d1bc .cfa: sp 112 +
STACK CFI 2d1cc .cfa: sp 0 +
STACK CFI 2d1d0 .cfa: x29 48 +
STACK CFI INIT 2d354 6c .cfa: sp 0 +
STACK CFI 2d358 .cfa: sp 32 +
STACK CFI 2d360 .cfa: x29 32 + x19: .cfa -16 + ^ .ra: .cfa -24 + ^ x29: .cfa -32 + ^
STACK CFI 2d3b0 .cfa: sp 32 +
STACK CFI 2d3b8 .cfa: sp 0 +
STACK CFI 2d3bc .cfa: x29 32 +
STACK CFI INIT 2d3c0 74 .cfa: sp 0 +
STACK CFI 2d3c4 .cfa: sp 32 +
STACK CFI 2d3cc .cfa: x29 32 + x19: .cfa -16 + ^ .ra: .cfa -24 + ^ x29: .cfa -32 + ^
STACK CFI 2d424 .cfa: sp 32 +
STACK CFI 2d42c .cfa: sp 0 +
STACK CFI 2d430 .cfa: x29 32 +
STACK CFI INIT 2d494 4c4 .cfa: sp 0 +
STACK CFI 2d498 .cfa: sp 128 +
STACK CFI 2d4ac .cfa: x29 48 + x19: .cfa -8 + ^ x20: .cfa -16 + ^ x21: .cfa -24 + ^ x22: .cfa -32 + ^ .ra: .cfa -40 + ^ x29: .cfa -48 + ^ v8: .cfa -64 + ^
STACK CFI 2d910 .cfa: sp 128 +
STACK CFI 2d924 .cfa: sp 0 +
STACK CFI 2d928 .cfa: x29 48 +
STACK CFI INIT 2d958 148 .cfa: sp 0 +
STACK CFI 2d95c .cfa: sp 96 +
STACK CFI 2d96c .cfa: x29 48 + x19: .cfa -8 + ^ x20: .cfa -16 + ^ x21: .cfa -32 + ^ .ra: .cfa -40 + ^ x29: .cfa -48 + ^
STACK CFI 2da54 .cfa: sp 96 +
STACK CFI 2da64 .cfa: sp 0 +
STACK CFI 2da68 .cfa: x29 48 +
STACK CFI INIT 2daa0 6c .cfa: sp 0 +
STACK CFI 2daa4 .cfa: sp 32 +
STACK CFI 2daac .cfa: x29 32 + x19: .cfa -16 + ^ .ra: .cfa -24 + ^ x29: .cfa -32 + ^
STACK CFI 2dafc .cfa: sp 32 +
STACK CFI 2db04 .cfa: sp 0 +
STACK CFI 2db08 .cfa: x29 32 +
STACK CFI INIT 2db0c 74 .cfa: sp 0 +
STACK CFI 2db10 .cfa: sp 32 +
STACK CFI 2db18 .cfa: x29 32 + x19: .cfa -16 + ^ .ra: .cfa -24 + ^ x29: .cfa -32 + ^
STACK CFI 2db70 .cfa: sp 32 +
STACK CFI 2db78 .cfa: sp 0 +
STACK CFI 2db7c .cfa: x29 32 +
STACK CFI INIT 2dbbc 6c .cfa: sp 0 +
STACK CFI 2dbc0 .cfa: sp 32 +
STACK CFI 2dbc8 .cfa: x29 32 + x19: .cfa -16 + ^ .ra: .cfa -24 + ^ x29: .cfa -32 + ^
STACK CFI 2dc18 .cfa: sp 32 +
STACK CFI 2dc20 .cfa: sp 0 +
STACK CFI 2dc24 .cfa: x29 32 +
STACK CFI INIT 2dc2c 110 .cfa: sp 0 +
STACK CFI 2dc30 .cfa: sp 80 +
STACK CFI 2dc44 .cfa: x29 64 + x19: .cfa -8 + ^ x20: .cfa -16 + ^ x21: .cfa -24 + ^ x22: .cfa -32 + ^ x23: .cfa -48 + ^ .ra: .cfa -56 + ^ x29: .cfa -64 + ^
STACK CFI 2dcfc .cfa: sp 80 +
STACK CFI 2dd10 .cfa: sp 0 +
STACK CFI 2dd14 .cfa: x29 64 +
STACK CFI INIT 2dd3c 168 .cfa: sp 0 +
STACK CFI 2dd40 .cfa: sp 384 +
STACK CFI 2dd54 .cfa: x29 64 + x19: .cfa -8 + ^ x20: .cfa -16 + ^ x21: .cfa -24 + ^ x22: .cfa -32 + ^ x23: .cfa -40 + ^ x28: .cfa -48 + ^ .ra: .cfa -56 + ^ x29: .cfa -64 + ^
STACK CFI 2de4c .cfa: sp 384 +
STACK CFI 2de60 .cfa: sp 0 +
STACK CFI 2de64 .cfa: x29 64 +
STACK CFI INIT 2e1b8 194 .cfa: sp 0 +
STACK CFI 2e1bc .cfa: sp 96 +
STACK CFI 2e1d0 .cfa: x29 64 + x19: .cfa -8 + ^ x20: .cfa -16 + ^ x21: .cfa -24 + ^ x22: .cfa -32 + ^ x23: .cfa -48 + ^ .ra: .cfa -56 + ^ x29: .cfa -64 + ^
STACK CFI 2e280 .cfa: sp 96 +
STACK CFI 2e294 .cfa: sp 0 +
STACK CFI 2e298 .cfa: x29 64 +
STACK CFI INIT 2e34c 14d0 .cfa: sp 0 +
STACK CFI 2e350 .cfa: sp 400 +
STACK CFI 2e370 .cfa: x29 96 + x19: .cfa -8 + ^ x20: .cfa -16 + ^ x21: .cfa -24 + ^ x22: .cfa -32 + ^ x23: .cfa -40 + ^ x24: .cfa -48 + ^ x25: .cfa -56 + ^ x26: .cfa -64 + ^ x27: .cfa -72 + ^ x28: .cfa -80 + ^ .ra: .cfa -88 + ^ x29: .cfa -96 + ^ v8: .cfa -104 + ^ v9: .cfa -112 + ^
STACK CFI 2f418 .cfa: sp 400 +
STACK CFI 2f438 .cfa: sp 0 +
STACK CFI 2f43c .cfa: x29 96 +
STACK CFI INIT 2f968 1e8 .cfa: sp 0 +
STACK CFI 2f96c .cfa: sp 160 +
STACK CFI 2f97c .cfa: x29 48 + x19: .cfa -8 + ^ x20: .cfa -16 + ^ x21: .cfa -24 + ^ x22: .cfa -32 + ^ .ra: .cfa -40 + ^ x29: .cfa -48 + ^
STACK CFI 2fae0 .cfa: sp 160 +
STACK CFI 2faf0 .cfa: sp 0 +
STACK CFI 2faf4 .cfa: x29 48 +
STACK CFI INIT 2fb50 1c .cfa: sp 0 +
STACK CFI 2fb54 .cfa: sp 16 +
STACK CFI 2fb58 .cfa: x29 16 + .ra: .cfa -8 + ^ x29: .cfa -16 + ^
STACK CFI 2fb60 .cfa: sp 16 +
STACK CFI 2fb64 .cfa: sp 0 +
STACK CFI 2fb68 .cfa: x29 16 +
STACK CFI INIT 2fb6c e8 .cfa: sp 0 +
STACK CFI 2fb70 .cfa: sp 112 +
STACK CFI 2fb80 .cfa: x29 48 + x19: .cfa -8 + ^ x20: .cfa -16 + ^ x21: .cfa -32 + ^ .ra: .cfa -40 + ^ x29: .cfa -48 + ^
STACK CFI 2fc10 .cfa: sp 112 +
STACK CFI 2fc20 .cfa: sp 0 +
STACK CFI 2fc24 .cfa: x29 48 +
STACK CFI INIT 2fd04 368 .cfa: sp 0 +
STACK CFI 2fd08 .cfa: sp 96 +
STACK CFI 2fd18 .cfa: x29 48 + x19: .cfa -8 + ^ x20: .cfa -16 + ^ x21: .cfa -24 + ^ x22: .cfa -32 + ^ .ra: .cfa -40 + ^ x29: .cfa -48 + ^
STACK CFI 30020 .cfa: sp 96 +
STACK CFI 30030 .cfa: sp 0 +
STACK CFI 30034 .cfa: x29 48 +
STACK CFI INIT 3006c 16c .cfa: sp 0 +
STACK CFI 30070 .cfa: sp 144 +
STACK CFI 3007c .cfa: x29 32 + x19: .cfa -8 + ^ x20: .cfa -16 + ^ .ra: .cfa -24 + ^ x29: .cfa -32 + ^
STACK CFI 30150 .cfa: sp 144 +
STACK CFI 3015c .cfa: sp 0 +
STACK CFI 30160 .cfa: x29 32 +
STACK CFI INIT 30300 2c0 .cfa: sp 0 +
STACK CFI 30304 .cfa: sp 80 +
STACK CFI 30318 .cfa: x29 80 + x19: .cfa -8 + ^ x20: .cfa -16 + ^ x21: .cfa -24 + ^ x22: .cfa -32 + ^ x23: .cfa -40 + ^ x24: .cfa -48 + ^ x28: .cfa -64 + ^ .ra: .cfa -72 + ^ x29: .cfa -80 + ^
STACK CFI 30528 .cfa: sp 80 +
STACK CFI 3053c .cfa: sp 0 +
STACK CFI 30540 .cfa: x29 80 +
STACK CFI INIT 33b30 2cc .cfa: sp 0 +
STACK CFI 33b34 .cfa: sp 128 +
STACK CFI 33b48 .cfa: x29 64 + x19: .cfa -8 + ^ x20: .cfa -16 + ^ x21: .cfa -24 + ^ x22: .cfa -32 + ^ x23: .cfa -40 + ^ x24: .cfa -48 + ^ .ra: .cfa -56 + ^ x29: .cfa -64 + ^
STACK CFI 33d54 .cfa: sp 128 +
STACK CFI 33d68 .cfa: sp 0 +
STACK CFI 33d6c .cfa: x29 64 +
STACK CFI INIT 33e24 78 .cfa: sp 0 +
STACK CFI 33e28 .cfa: sp 32 +
STACK CFI 33e30 .cfa: x29 32 + x19: .cfa -16 + ^ .ra: .cfa -24 + ^ x29: .cfa -32 + ^
STACK CFI 33e8c .cfa: sp 32 +
STACK CFI 33e94 .cfa: sp 0 +
STACK CFI 33e98 .cfa: x29 32 +
STACK CFI INIT 33e9c 80 .cfa: sp 0 +
STACK CFI 33ea0 .cfa: sp 32 +
STACK CFI 33ea8 .cfa: x29 32 + x19: .cfa -16 + ^ .ra: .cfa -24 + ^ x29: .cfa -32 + ^
STACK CFI 33f0c .cfa: sp 32 +
STACK CFI 33f14 .cfa: sp 0 +
STACK CFI 33f18 .cfa: x29 32 +
STACK CFI INIT 33f70 fc0 .cfa: sp 0 +
STACK CFI 33f74 .cfa: sp 256 +
STACK CFI 33f90 .cfa: x29 72 + x19: .cfa -8 + ^ x20: .cfa -16 + ^ x21: .cfa -24 + ^ x22: .cfa -32 + ^ x23: .cfa -40 + ^ x24: .cfa -48 + ^ x25: .cfa -56 + ^ .ra: .cfa -64 + ^ x29: .cfa -72 + ^ v8: .cfa -80 + ^
STACK CFI 34d2c .cfa: sp 256 +
STACK CFI 34d48 .cfa: sp 0 +
STACK CFI 34d4c .cfa: x29 72 +
STACK CFI INIT 34f30 148 .cfa: sp 0 +
STACK CFI 34f34 .cfa: sp 96 +
STACK CFI 34f44 .cfa: x29 48 + x19: .cfa -8 + ^ x20: .cfa -16 + ^ x21: .cfa -32 + ^ .ra: .cfa -40 + ^ x29: .cfa -48 + ^
STACK CFI 3502c .cfa: sp 96 +
STACK CFI 3503c .cfa: sp 0 +
STACK CFI 35040 .cfa: x29 48 +
STACK CFI INIT 35078 78 .cfa: sp 0 +
STACK CFI 3507c .cfa: sp 32 +
STACK CFI 35084 .cfa: x29 32 + x19: .cfa -16 + ^ .ra: .cfa -24 + ^ x29: .cfa -32 + ^
STACK CFI 350e0 .cfa: sp 32 +
STACK CFI 350e8 .cfa: sp 0 +
STACK CFI 350ec .cfa: x29 32 +
STACK CFI INIT 350f0 80 .cfa: sp 0 +
STACK CFI 350f4 .cfa: sp 32 +
STACK CFI 350fc .cfa: x29 32 + x19: .cfa -16 + ^ .ra: .cfa -24 + ^ x29: .cfa -32 + ^
STACK CFI 35160 .cfa: sp 32 +
STACK CFI 35168 .cfa: sp 0 +
STACK CFI 3516c .cfa: x29 32 +
STACK CFI INIT 3519c 6c .cfa: sp 0 +
STACK CFI 351a0 .cfa: sp 32 +
STACK CFI 351a8 .cfa: x29 32 + x19: .cfa -16 + ^ .ra: .cfa -24 + ^ x29: .cfa -32 + ^
STACK CFI 351f8 .cfa: sp 32 +
STACK CFI 35200 .cfa: sp 0 +
STACK CFI 35204 .cfa: x29 32 +
STACK CFI INIT 3520c 6c .cfa: sp 0 +
STACK CFI 35210 .cfa: sp 32 +
STACK CFI 35218 .cfa: x29 32 + x19: .cfa -16 + ^ .ra: .cfa -24 + ^ x29: .cfa -32 + ^
STACK CFI 35268 .cfa: sp 32 +
STACK CFI 35270 .cfa: sp 0 +
STACK CFI 35274 .cfa: x29 32 +
STACK CFI INIT 3527c 16c .cfa: sp 0 +
STACK CFI 35280 .cfa: sp 144 +
STACK CFI 3528c .cfa: x29 32 + x19: .cfa -8 + ^ x20: .cfa -16 + ^ .ra: .cfa -24 + ^ x29: .cfa -32 + ^
STACK CFI 35360 .cfa: sp 144 +
STACK CFI 3536c .cfa: sp 0 +
STACK CFI 35370 .cfa: x29 32 +
STACK CFI INIT 3553c 2c8 .cfa: sp 0 +
STACK CFI 35540 .cfa: sp 176 +
STACK CFI 35550 .cfa: x29 48 + x19: .cfa -8 + ^ x20: .cfa -16 + ^ x21: .cfa -32 + ^ .ra: .cfa -40 + ^ x29: .cfa -48 + ^
STACK CFI 35770 .cfa: sp 176 +
STACK CFI 35780 .cfa: sp 0 +
STACK CFI 35784 .cfa: x29 48 +
STACK CFI INIT 3582c 304 .cfa: sp 0 +
STACK CFI 35830 .cfa: sp 128 +
STACK CFI 3584c .cfa: x29 96 + x19: .cfa -8 + ^ x20: .cfa -16 + ^ x21: .cfa -24 + ^ x22: .cfa -32 + ^ x23: .cfa -40 + ^ x24: .cfa -48 + ^ x25: .cfa -56 + ^ x26: .cfa -64 + ^ x27: .cfa -72 + ^ x28: .cfa -80 + ^ .ra: .cfa -88 + ^ x29: .cfa -96 + ^
STACK CFI 35ab0 .cfa: sp 128 +
STACK CFI 35acc .cfa: sp 0 +
STACK CFI 35ad0 .cfa: x29 96 +
STACK CFI INIT 35c9c 2b4 .cfa: sp 0 +
STACK CFI 35ca0 .cfa: sp 176 +
STACK CFI 35cb0 .cfa: x29 48 + x19: .cfa -8 + ^ x20: .cfa -16 + ^ x21: .cfa -32 + ^ .ra: .cfa -40 + ^ x29: .cfa -48 + ^
STACK CFI 35ebc .cfa: sp 176 +
STACK CFI 35ecc .cfa: sp 0 +
STACK CFI 35ed0 .cfa: x29 48 +
STACK CFI INIT 35f8c 50 .cfa: sp 0 +
STACK CFI 35f90 .cfa: sp 32 +
STACK CFI 35f98 .cfa: x29 32 + x19: .cfa -8 + ^ x20: .cfa -16 + ^ .ra: .cfa -24 + ^ x29: .cfa -32 + ^
STACK CFI INIT 36018 198 .cfa: sp 0 +
STACK CFI 3601c .cfa: sp 96 +
STACK CFI 3602c .cfa: x29 48 + x19: .cfa -8 + ^ x20: .cfa -16 + ^ x21: .cfa -32 + ^ .ra: .cfa -40 + ^ x29: .cfa -48 + ^
STACK CFI 36108 .cfa: sp 96 +
STACK CFI 36118 .cfa: sp 0 +
STACK CFI 3611c .cfa: x29 48 +
STACK CFI INIT 361f0 c0 .cfa: sp 0 +
STACK CFI 361f4 .cfa: sp 64 +
STACK CFI 36200 .cfa: x29 32 + x19: .cfa -8 + ^ x20: .cfa -16 + ^ .ra: .cfa -24 + ^ x29: .cfa -32 + ^
STACK CFI 36270 .cfa: sp 64 +
STACK CFI 3627c .cfa: sp 0 +
STACK CFI 36280 .cfa: x29 32 +
STACK CFI INIT 3631c c0 .cfa: sp 0 +
STACK CFI 36320 .cfa: sp 64 +
STACK CFI 3632c .cfa: x29 32 + x19: .cfa -8 + ^ x20: .cfa -16 + ^ .ra: .cfa -24 + ^ x29: .cfa -32 + ^
STACK CFI 3639c .cfa: sp 64 +
STACK CFI 363a8 .cfa: sp 0 +
STACK CFI 363ac .cfa: x29 32 +
STACK CFI INIT 36464 340 .cfa: sp 0 +
STACK CFI 36468 .cfa: sp 144 +
STACK CFI 3647c .cfa: x29 64 + x19: .cfa -8 + ^ x20: .cfa -16 + ^ x21: .cfa -24 + ^ x22: .cfa -32 + ^ x23: .cfa -48 + ^ .ra: .cfa -56 + ^ x29: .cfa -64 + ^
STACK CFI 3671c .cfa: sp 144 +
STACK CFI 36730 .cfa: sp 0 +
STACK CFI 36734 .cfa: x29 64 +
STACK CFI INIT 367cc 74 .cfa: sp 0 +
STACK CFI 367d0 .cfa: sp 48 +
STACK CFI 367dc .cfa: x29 32 + x19: .cfa -8 + ^ x20: .cfa -16 + ^ .ra: .cfa -24 + ^ x29: .cfa -32 + ^
STACK CFI 36828 .cfa: sp 48 +
STACK CFI 36834 .cfa: sp 0 +
STACK CFI 36838 .cfa: x29 32 +
STACK CFI INIT 3685c 51c .cfa: sp 0 +
STACK CFI 36860 .cfa: sp 304 +
STACK CFI 3687c .cfa: x29 96 + x19: .cfa -8 + ^ x20: .cfa -16 + ^ x21: .cfa -24 + ^ x22: .cfa -32 + ^ x23: .cfa -40 + ^ x24: .cfa -48 + ^ x25: .cfa -56 + ^ x26: .cfa -64 + ^ x27: .cfa -72 + ^ x28: .cfa -80 + ^ .ra: .cfa -88 + ^ x29: .cfa -96 + ^
STACK CFI 36bf8 .cfa: sp 304 +
STACK CFI 36c14 .cfa: sp 0 +
STACK CFI 36c18 .cfa: x29 96 +
STACK CFI INIT 36dcc 810 .cfa: sp 0 +
STACK CFI 36dd0 .cfa: sp 288 +
STACK CFI 36de8 .cfa: x29 80 + x19: .cfa -8 + ^ x20: .cfa -16 + ^ x21: .cfa -24 + ^ x22: .cfa -32 + ^ x23: .cfa -40 + ^ x24: .cfa -48 + ^ x25: .cfa -56 + ^ x28: .cfa -64 + ^ .ra: .cfa -72 + ^ x29: .cfa -80 + ^
STACK CFI 3712c .cfa: sp 288 +
STACK CFI 37144 .cfa: sp 0 +
STACK CFI 37148 .cfa: x29 80 +
STACK CFI 37420 .cfa: sp 288 +
STACK CFI 37438 .cfa: sp 0 +
STACK CFI 3743c .cfa: x29 80 +
STACK CFI INIT 37830 fc .cfa: sp 0 +
STACK CFI 37834 .cfa: sp 96 +
STACK CFI 37844 .cfa: x29 48 + x19: .cfa -8 + ^ x20: .cfa -16 + ^ x21: .cfa -32 + ^ .ra: .cfa -40 + ^ x29: .cfa -48 + ^
STACK CFI 378bc .cfa: sp 96 +
STACK CFI 378cc .cfa: sp 0 +
STACK CFI 378d0 .cfa: x29 48 +
STACK CFI INIT 3792c 134 .cfa: sp 0 +
STACK CFI 37930 .cfa: sp 80 +
STACK CFI 3793c .cfa: x29 32 + x19: .cfa -8 + ^ x20: .cfa -16 + ^ .ra: .cfa -24 + ^ x29: .cfa -32 + ^
STACK CFI 3796c .cfa: sp 80 +
STACK CFI 37978 .cfa: sp 0 +
STACK CFI 3797c .cfa: x29 32 +
STACK CFI INIT 37a60 78 .cfa: sp 0 +
STACK CFI 37a64 .cfa: sp 32 +
STACK CFI 37a6c .cfa: x29 32 + x19: .cfa -8 + ^ x20: .cfa -16 + ^ .ra: .cfa -24 + ^ x29: .cfa -32 + ^
STACK CFI 37a78 .cfa: sp 32 +
STACK CFI 37a80 .cfa: sp 0 +
STACK CFI 37a84 .cfa: x29 32 +
STACK CFI INIT 37ad8 74 .cfa: sp 0 +
STACK CFI 37adc .cfa: sp 48 +
STACK CFI 37ae8 .cfa: x29 32 + x19: .cfa -8 + ^ x20: .cfa -16 + ^ .ra: .cfa -24 + ^ x29: .cfa -32 + ^
STACK CFI 37b34 .cfa: sp 48 +
STACK CFI 37b40 .cfa: sp 0 +
STACK CFI 37b44 .cfa: x29 32 +
STACK CFI INIT 37bb0 174 .cfa: sp 0 +
STACK CFI 37bb4 .cfa: sp 112 +
STACK CFI 37bc4 .cfa: x29 48 + x19: .cfa -8 + ^ x20: .cfa -16 + ^ x21: .cfa -32 + ^ .ra: .cfa -40 + ^ x29: .cfa -48 + ^
STACK CFI 37c10 .cfa: sp 112 +
STACK CFI 37c20 .cfa: sp 0 +
STACK CFI 37c24 .cfa: x29 48 +
STACK CFI INIT 37d24 194 .cfa: sp 0 +
STACK CFI 37d28 .cfa: sp 112 +
STACK CFI 37d38 .cfa: x29 48 + x19: .cfa -8 + ^ x20: .cfa -16 + ^ x21: .cfa -32 + ^ .ra: .cfa -40 + ^ x29: .cfa -48 + ^
STACK CFI 37da4 .cfa: sp 112 +
STACK CFI 37db4 .cfa: sp 0 +
STACK CFI 37db8 .cfa: x29 48 +
STACK CFI INIT 37edc 198 .cfa: sp 0 +
STACK CFI 37ee0 .cfa: sp 112 +
STACK CFI 37ef0 .cfa: x29 48 + x19: .cfa -8 + ^ x20: .cfa -16 + ^ x21: .cfa -32 + ^ .ra: .cfa -40 + ^ x29: .cfa -48 + ^
STACK CFI 37f60 .cfa: sp 112 +
STACK CFI 37f70 .cfa: sp 0 +
STACK CFI 37f74 .cfa: x29 48 +
STACK CFI INIT 380ec 1a8 .cfa: sp 0 +
STACK CFI 380f0 .cfa: sp 112 +
STACK CFI 38100 .cfa: x29 48 + x19: .cfa -8 + ^ x20: .cfa -16 + ^ x21: .cfa -32 + ^ .ra: .cfa -40 + ^ x29: .cfa -48 + ^
STACK CFI 38180 .cfa: sp 112 +
STACK CFI 38190 .cfa: sp 0 +
STACK CFI 38194 .cfa: x29 48 +
STACK CFI INIT 38294 198 .cfa: sp 0 +
STACK CFI 38298 .cfa: sp 112 +
STACK CFI 382a8 .cfa: x29 48 + x19: .cfa -8 + ^ x20: .cfa -16 + ^ x21: .cfa -32 + ^ .ra: .cfa -40 + ^ x29: .cfa -48 + ^
STACK CFI 38320 .cfa: sp 112 +
STACK CFI 38330 .cfa: sp 0 +
STACK CFI 38334 .cfa: x29 48 +
STACK CFI INIT 3842c 24c .cfa: sp 0 +
STACK CFI 38430 .cfa: sp 128 +
STACK CFI 38444 .cfa: x29 64 + x19: .cfa -8 + ^ x20: .cfa -16 + ^ x21: .cfa -24 + ^ x22: .cfa -32 + ^ x23: .cfa -48 + ^ .ra: .cfa -56 + ^ x29: .cfa -64 + ^
STACK CFI 38514 .cfa: sp 128 +
STACK CFI 38528 .cfa: sp 0 +
STACK CFI 3852c .cfa: x29 64 +
STACK CFI INIT 38720 178 .cfa: sp 0 +
STACK CFI 38724 .cfa: sp 112 +
STACK CFI 38734 .cfa: x29 48 + x19: .cfa -8 + ^ x20: .cfa -16 + ^ x21: .cfa -32 + ^ .ra: .cfa -40 + ^ x29: .cfa -48 + ^
STACK CFI 38784 .cfa: sp 112 +
STACK CFI 38794 .cfa: sp 0 +
STACK CFI 38798 .cfa: x29 48 +
STACK CFI INIT 38898 224 .cfa: sp 0 +
STACK CFI 3889c .cfa: sp 128 +
STACK CFI 388b0 .cfa: x29 64 + x19: .cfa -8 + ^ x20: .cfa -16 + ^ x21: .cfa -24 + ^ x22: .cfa -32 + ^ x23: .cfa -48 + ^ .ra: .cfa -56 + ^ x29: .cfa -64 + ^
STACK CFI 38958 .cfa: sp 128 +
STACK CFI 3896c .cfa: sp 0 +
STACK CFI 38970 .cfa: x29 64 +
STACK CFI INIT 38b34 1b8 .cfa: sp 0 +
STACK CFI 38b38 .cfa: sp 160 +
STACK CFI 38b54 .cfa: x29 72 + x19: .cfa -8 + ^ x20: .cfa -16 + ^ x21: .cfa -24 + ^ x22: .cfa -32 + ^ x23: .cfa -40 + ^ x24: .cfa -48 + ^ x25: .cfa -56 + ^ .ra: .cfa -64 + ^ x29: .cfa -72 + ^ v8: .cfa -80 + ^
STACK CFI 38bd8 .cfa: sp 160 +
STACK CFI 38bf4 .cfa: sp 0 +
STACK CFI 38bf8 .cfa: x29 72 +
STACK CFI INIT 38cec 16c .cfa: sp 0 +
STACK CFI 38cf0 .cfa: sp 64 +
STACK CFI 38d00 .cfa: x29 48 + x19: .cfa -8 + ^ x20: .cfa -16 + ^ x21: .cfa -24 + ^ x22: .cfa -32 + ^ .ra: .cfa -40 + ^ x29: .cfa -48 + ^
STACK CFI 38df8 .cfa: sp 64 +
STACK CFI 38e08 .cfa: sp 0 +
STACK CFI 38e0c .cfa: x29 48 +
STACK CFI INIT 39070 254 .cfa: sp 0 +
STACK CFI 39074 .cfa: sp 128 +
STACK CFI 39088 .cfa: x29 64 + x19: .cfa -8 + ^ x20: .cfa -16 + ^ x21: .cfa -24 + ^ x22: .cfa -32 + ^ x23: .cfa -48 + ^ .ra: .cfa -56 + ^ x29: .cfa -64 + ^
STACK CFI 39160 .cfa: sp 128 +
STACK CFI 39174 .cfa: sp 0 +
STACK CFI 39178 .cfa: x29 64 +
STACK CFI INIT 392c4 2b4 .cfa: sp 0 +
STACK CFI 392c8 .cfa: sp 128 +
STACK CFI 392dc .cfa: x29 64 + x19: .cfa -8 + ^ x20: .cfa -16 + ^ x21: .cfa -24 + ^ x22: .cfa -32 + ^ x23: .cfa -40 + ^ x24: .cfa -48 + ^ .ra: .cfa -56 + ^ x29: .cfa -64 + ^
STACK CFI 39414 .cfa: sp 128 +
STACK CFI 39428 .cfa: sp 0 +
STACK CFI 3942c .cfa: x29 64 +
STACK CFI INIT 39578 224 .cfa: sp 0 +
STACK CFI 3957c .cfa: sp 128 +
STACK CFI 39590 .cfa: x29 64 + x19: .cfa -8 + ^ x20: .cfa -16 + ^ x21: .cfa -24 + ^ x22: .cfa -32 + ^ x23: .cfa -48 + ^ .ra: .cfa -56 + ^ x29: .cfa -64 + ^
STACK CFI 39638 .cfa: sp 128 +
STACK CFI 3964c .cfa: sp 0 +
STACK CFI 39650 .cfa: x29 64 +
STACK CFI INIT 3979c 244 .cfa: sp 0 +
STACK CFI 397a0 .cfa: sp 128 +
STACK CFI 397b4 .cfa: x29 64 + x19: .cfa -8 + ^ x20: .cfa -16 + ^ x21: .cfa -24 + ^ x22: .cfa -32 + ^ x23: .cfa -48 + ^ .ra: .cfa -56 + ^ x29: .cfa -64 + ^
STACK CFI 3987c .cfa: sp 128 +
STACK CFI 39890 .cfa: sp 0 +
STACK CFI 39894 .cfa: x29 64 +
STACK CFI INIT 399e0 224 .cfa: sp 0 +
STACK CFI 399e4 .cfa: sp 128 +
STACK CFI 399f8 .cfa: x29 64 + x19: .cfa -8 + ^ x20: .cfa -16 + ^ x21: .cfa -24 + ^ x22: .cfa -32 + ^ x23: .cfa -48 + ^ .ra: .cfa -56 + ^ x29: .cfa -64 + ^
STACK CFI 39aa0 .cfa: sp 128 +
STACK CFI 39ab4 .cfa: sp 0 +
STACK CFI 39ab8 .cfa: x29 64 +
STACK CFI INIT 39c04 154 .cfa: sp 0 +
STACK CFI 39c08 .cfa: sp 384 +
STACK CFI 39c1c .cfa: x29 64 + x19: .cfa -8 + ^ x20: .cfa -16 + ^ x21: .cfa -24 + ^ x22: .cfa -32 + ^ x23: .cfa -40 + ^ x28: .cfa -48 + ^ .ra: .cfa -56 + ^ x29: .cfa -64 + ^
STACK CFI 39d00 .cfa: sp 384 +
STACK CFI 39d14 .cfa: sp 0 +
STACK CFI 39d18 .cfa: x29 64 +
STACK CFI INIT 39d70 4e0 .cfa: sp 0 +
STACK CFI 39d74 .cfa: sp 64 +
STACK CFI 39d84 .cfa: x29 64 + x19: .cfa -8 + ^ x20: .cfa -16 + ^ x21: .cfa -24 + ^ x22: .cfa -32 + ^ x23: .cfa -40 + ^ x24: .cfa -48 + ^ .ra: .cfa -56 + ^ x29: .cfa -64 + ^
STACK CFI 3a224 .cfa: sp 64 +
STACK CFI 3a234 .cfa: sp 0 +
STACK CFI 3a238 .cfa: x29 64 +
