MODULE Linux arm64 9244174524E47DA3E5AEB42CF171D5080 hiimjustin000.more_icons.android64.so
INFO CODE_ID 45174492E424A37DE5AEB42CF171D508246AB7E6
INFO GENERATOR mozilla/dump_syms 2.3.4
PUBLIC 357b0 0 __on_dlclose
PUBLIC 357c0 0 __emutls_unregister_key
PUBLIC 357c8 0 __on_dlclose_late
PUBLIC 357d0 0 __atexit_handler_wrapper
PUBLIC 357e4 0 atexit
PUBLIC 35800 0 pthread_atfork
PUBLIC 35810 0 unwind_phase2
PUBLIC 35944 0 _Unwind_Resume
PUBLIC 359c8 0 unwind_phase2_forced
PUBLIC m 35abc 0 __unw_init_local
PUBLIC m 35b64 0 __unw_get_reg
PUBLIC 35be0 0 __unw_step_stage2
PUBLIC m 35bf4 0 __unw_get_proc_info
PUBLIC m 35c34 0 __unw_resume
PUBLIC 35c5c 0 libunwind::CFI_Parser<libunwind::LocalAddressSpace>::decodeFDE(libunwind::LocalAddressSpace&, unsigned long, libunwind::CFI_Parser<libunwind::LocalAddressSpace>::FDE_Info*, libunwind::CFI_Parser<libunwind::LocalAddressSpace>::CIE_Info*, bool)
PUBLIC 35dec 0 libunwind::CFI_Parser<libunwind::LocalAddressSpace>::parseCIE(libunwind::LocalAddressSpace&, unsigned long, libunwind::CFI_Parser<libunwind::LocalAddressSpace>::CIE_Info*)
PUBLIC 360b4 0 libunwind::AbstractUnwindCursor::~AbstractUnwindCursor()
PUBLIC 360bc 0 libunwind::UnwindCursor<libunwind::LocalAddressSpace, libunwind::Registers_arm64>::~UnwindCursor()
PUBLIC 360c4 0 libunwind::UnwindCursor<libunwind::LocalAddressSpace, libunwind::Registers_arm64>::validReg(int)
PUBLIC 36108 0 libunwind::UnwindCursor<libunwind::LocalAddressSpace, libunwind::Registers_arm64>::getReg(int)
PUBLIC 361f0 0 libunwind::UnwindCursor<libunwind::LocalAddressSpace, libunwind::Registers_arm64>::setReg(int, unsigned long)
PUBLIC 362d8 0 libunwind::UnwindCursor<libunwind::LocalAddressSpace, libunwind::Registers_arm64>::validFloatReg(int)
PUBLIC 362ec 0 libunwind::UnwindCursor<libunwind::LocalAddressSpace, libunwind::Registers_arm64>::getFloatReg(int)
PUBLIC 362fc 0 libunwind::UnwindCursor<libunwind::LocalAddressSpace, libunwind::Registers_arm64>::setFloatReg(int, double)
PUBLIC 3630c 0 libunwind::UnwindCursor<libunwind::LocalAddressSpace, libunwind::Registers_arm64>::step(bool)
PUBLIC 363fc 0 libunwind::UnwindCursor<libunwind::LocalAddressSpace, libunwind::Registers_arm64>::getInfo(unw_proc_info_t*)
PUBLIC 36440 0 libunwind::UnwindCursor<libunwind::LocalAddressSpace, libunwind::Registers_arm64>::jumpto()
PUBLIC 3644c 0 libunwind::UnwindCursor<libunwind::LocalAddressSpace, libunwind::Registers_arm64>::isSignalFrame()
PUBLIC 36458 0 libunwind::UnwindCursor<libunwind::LocalAddressSpace, libunwind::Registers_arm64>::getFunctionName(char*, unsigned long, unsigned long*)
PUBLIC 36484 0 libunwind::UnwindCursor<libunwind::LocalAddressSpace, libunwind::Registers_arm64>::setInfoBasedOnIPRegister(bool)
PUBLIC 366c0 0 libunwind::UnwindCursor<libunwind::LocalAddressSpace, libunwind::Registers_arm64>::getRegisterName(int)
PUBLIC 366cc 0 libunwind::UnwindCursor<libunwind::LocalAddressSpace, libunwind::Registers_arm64>::stepThroughSigReturn(libunwind::Registers_arm64&)
PUBLIC 367ec 0 libunwind::DwarfInstructions<libunwind::LocalAddressSpace, libunwind::Registers_arm64>::stepWithDwarf(libunwind::LocalAddressSpace&, unsigned long, unsigned long, libunwind::Registers_arm64&, bool&, bool)
PUBLIC 36c80 0 libunwind::CFI_Parser<libunwind::LocalAddressSpace>::parseFDEInstructions(libunwind::LocalAddressSpace&, libunwind::CFI_Parser<libunwind::LocalAddressSpace>::FDE_Info const&, libunwind::CFI_Parser<libunwind::LocalAddressSpace>::CIE_Info const&, unsigned long, int, libunwind::CFI_Parser<libunwind::LocalAddressSpace>::PrologInfo*)
PUBLIC 377f8 0 libunwind::DwarfInstructions<libunwind::LocalAddressSpace, libunwind::Registers_arm64>::getCFA(libunwind::LocalAddressSpace&, libunwind::CFI_Parser<libunwind::LocalAddressSpace>::PrologInfo const&, libunwind::Registers_arm64 const&)
PUBLIC 3792c 0 libunwind::DwarfInstructions<libunwind::LocalAddressSpace, libunwind::Registers_arm64>::getSavedRegister(libunwind::LocalAddressSpace&, libunwind::Registers_arm64 const&, unsigned long, libunwind::CFI_Parser<libunwind::LocalAddressSpace>::RegisterLocation const&)
PUBLIC 37b3c 0 libunwind::LocalAddressSpace::getEncodedP(unsigned long&, unsigned long, unsigned char, unsigned long)
PUBLIC 37ec8 0 libunwind::LocalAddressSpace::getULEB128(unsigned long&, unsigned long)
PUBLIC 38090 0 libunwind::DwarfInstructions<libunwind::LocalAddressSpace, libunwind::Registers_arm64>::evaluateExpression(unsigned long, libunwind::LocalAddressSpace&, libunwind::Registers_arm64 const&, unsigned long)
PUBLIC 38a54 0 libunwind::UnwindCursor<libunwind::LocalAddressSpace, libunwind::Registers_arm64>::getInfoFromDwarfSection(unsigned long, libunwind::UnwindInfoSections const&, unsigned int)
PUBLIC 38d28 0 libunwind::findUnwindSectionsByPhdr(dl_phdr_info*, unsigned long, void*)
PUBLIC 38e58 0 libunwind::EHHeaderParser<libunwind::LocalAddressSpace>::decodeEHHdr(libunwind::LocalAddressSpace&, unsigned long, unsigned long, libunwind::EHHeaderParser<libunwind::LocalAddressSpace>::EHHeaderInfo&)
PUBLIC 38f78 0 libunwind::CFI_Parser<libunwind::LocalAddressSpace>::findFDE(libunwind::LocalAddressSpace&, unsigned long, unsigned long, unsigned long, unsigned long, libunwind::CFI_Parser<libunwind::LocalAddressSpace>::FDE_Info*, libunwind::CFI_Parser<libunwind::LocalAddressSpace>::CIE_Info*)
PUBLIC 39140 0 libunwind::EHHeaderParser<libunwind::LocalAddressSpace>::findFDE(libunwind::LocalAddressSpace&, unsigned long, unsigned long, unsigned int, libunwind::CFI_Parser<libunwind::LocalAddressSpace>::FDE_Info*, libunwind::CFI_Parser<libunwind::LocalAddressSpace>::CIE_Info*)
PUBLIC 392a8 0 libunwind::EHHeaderParser<libunwind::LocalAddressSpace>::getTableEntrySize(unsigned char)
PUBLIC 393a4 0 libunwind::Registers_arm64::getRegisterName(int)
PUBLIC 393d4 0 __libunwind_Registers_arm64_jumpto
PUBLIC m 39464 0 __unw_getcontext
PUBLIC 39500 0 __cxx_global_var_init
PUBLIC 3955c 0 std::__ndk1::vector<std::__ndk1::basic_string<char, std::__ndk1::char_traits<char>, std::__ndk1::allocator<char> >, std::__ndk1::allocator<std::__ndk1::basic_string<char, std::__ndk1::char_traits<char>, std::__ndk1::allocator<char> > > >::~vector[abi:ne190000]()
PUBLIC 395d8 0 __cxx_global_var_init.1
PUBLIC 39634 0 __cxx_global_var_init.2
PUBLIC 39690 0 __cxx_global_var_init.3
PUBLIC 396ec 0 __cxx_global_var_init.4
PUBLIC 39748 0 __cxx_global_var_init.5
PUBLIC 397a4 0 __cxx_global_var_init.6
PUBLIC 39800 0 __cxx_global_var_init.7
PUBLIC 3985c 0 __cxx_global_var_init.8
PUBLIC 398b8 0 __cxx_global_var_init.9
PUBLIC 39914 0 MoreIconsAPI::vectorForType(IconType)
PUBLIC 39a6c 0 MoreIconsAPI::savedForType(IconType, bool)
PUBLIC 39cc0 0 MoreIconsAPI::activeForType(IconType, bool)
PUBLIC 39d98 0 geode::Mod::getSavedValue<std::__ndk1::basic_string<char, std::__ndk1::char_traits<char>, std::__ndk1::allocator<char> > >(std::__ndk1::basic_string_view<char, std::__ndk1::char_traits<char> >, std::__ndk1::basic_string<char, std::__ndk1::char_traits<char>, std::__ndk1::allocator<char> > const&)
PUBLIC 3a03c 0 MoreIconsAPI::setIcon(std::__ndk1::basic_string<char, std::__ndk1::char_traits<char>, std::__ndk1::allocator<char> > const&, IconType, bool)
PUBLIC 3a0e4 0 geode::Mod::setSavedValue<std::__ndk1::basic_string<char, std::__ndk1::char_traits<char>, std::__ndk1::allocator<char> > >(std::__ndk1::basic_string_view<char, std::__ndk1::char_traits<char> >, std::__ndk1::basic_string<char, std::__ndk1::char_traits<char>, std::__ndk1::allocator<char> > const&)
PUBLIC 3a244 0 MoreIconsAPI::hasIcon(std::__ndk1::basic_string<char, std::__ndk1::char_traits<char>, std::__ndk1::allocator<char> > const&, IconType)
PUBLIC 3a340 0 MoreIconsAPI::updateSimplePlayer(SimplePlayer*, std::__ndk1::basic_string<char, std::__ndk1::char_traits<char>, std::__ndk1::allocator<char> > const&, IconType)
PUBLIC 3a9a0 0 MoreIconsAPI::setUserObject(cocos2d::CCNode*, std::__ndk1::basic_string<char, std::__ndk1::char_traits<char>, std::__ndk1::allocator<char> > const&)
PUBLIC 3ab20 0 MoreIconsAPI::updateRobotSprite(GJRobotSprite*, std::__ndk1::basic_string<char, std::__ndk1::char_traits<char>, std::__ndk1::allocator<char> > const&, IconType)
PUBLIC 3aff0 0 MoreIconsAPI::updateRobotSprite(GJRobotSprite*, std::__ndk1::basic_string<char, std::__ndk1::char_traits<char>, std::__ndk1::allocator<char> > const&)
PUBLIC 3b018 0 MoreIconsAPI::getIconType(PlayerObject*)
PUBLIC 3b098 0 MoreIconsAPI::updatePlayerObject(PlayerObject*, std::__ndk1::basic_string<char, std::__ndk1::char_traits<char>, std::__ndk1::allocator<char> > const&)
PUBLIC 3b138 0 MoreIconsAPI::updatePlayerObject(PlayerObject*, std::__ndk1::basic_string<char, std::__ndk1::char_traits<char>, std::__ndk1::allocator<char> > const&, IconType)
PUBLIC 3b7a0 0 __clang_call_terminate
PUBLIC 3b7b0 0 std::__ndk1::basic_string<char, std::__ndk1::char_traits<char>, std::__ndk1::allocator<char> >::__throw_length_error[abi:ne190000]() const
PUBLIC 3b7c4 0 std::__ndk1::__throw_length_error[abi:ne190000](char const*)
PUBLIC 3b814 0 std::length_error::length_error[abi:ne190000](char const*)
PUBLIC 3b844 0 geode::impl::ResultData<matjson::Value&, std::__ndk1::basic_string<char, std::__ndk1::char_traits<char>, std::__ndk1::allocator<char> > >::~ResultData()
PUBLIC 3b8b8 0 geode::impl::ResultData<std::__ndk1::basic_string<char, std::__ndk1::char_traits<char>, std::__ndk1::allocator<char> >, std::__ndk1::basic_string<char, std::__ndk1::char_traits<char>, std::__ndk1::allocator<char> > >::~ResultData()
PUBLIC 3b92c 0 std::__ndk1::__throw_bad_variant_access[abi:ne190000]()
PUBLIC 3b960 0 std::__ndk1::__variant_detail::__visitation::__base::__dispatcher<(unsigned long)0>::__dispatch[abi:ne190000]<std::__ndk1::__variant_detail::__dtor<std::__ndk1::__variant_detail::__traits<std::__ndk1::reference_wrapper<matjson::Value>, std::__ndk1::basic_string<char, std::__ndk1::char_traits<char>, std::__ndk1::allocator<char> > >, (std::__ndk1::__variant_detail::_Trait)1>::__destroy[abi:ne190000]()::{lambda(auto:1&)#1}, std::__ndk1::__variant_detail::__base<(std::__ndk1::__variant_detail::__traits<std::__ndk1::reference_wrapper<matjson::Value>, std::__ndk1::basic_string<char, std::__ndk1::char_traits<char>, std::__ndk1::allocator<char> > >)1, matjson::Value, std::__ndk1::allocator<char> >&>(std::__ndk1::__variant_detail::__dtor<std::__ndk1::__variant_detail::__traits<std::__ndk1::reference_wrapper<matjson::Value>, std::__ndk1::basic_string<char, std::__ndk1::char_traits<char>, std::__ndk1::allocator<char> > >, (std::__ndk1::__variant_detail::_Trait)1>, std::__ndk1::__variant_detail::__base<(std::__ndk1::__variant_detail::__traits<std::__ndk1::reference_wrapper<matjson::Value>, std::__ndk1::basic_string<char, std::__ndk1::char_traits<char>, std::__ndk1::allocator<char> > >)1, matjson::Value, std::__ndk1::allocator<char> >&)
PUBLIC 3b964 0 std::__ndk1::__variant_detail::__visitation::__base::__dispatcher<(unsigned long)1>::__dispatch[abi:ne190000]<std::__ndk1::__variant_detail::__dtor<std::__ndk1::__variant_detail::__traits<std::__ndk1::reference_wrapper<matjson::Value>, std::__ndk1::basic_string<char, std::__ndk1::char_traits<char>, std::__ndk1::allocator<char> > >, (std::__ndk1::__variant_detail::_Trait)1>::__destroy[abi:ne190000]()::{lambda(auto:1&)#1}, std::__ndk1::__variant_detail::__base<(std::__ndk1::__variant_detail::__traits<std::__ndk1::reference_wrapper<matjson::Value>, std::__ndk1::basic_string<char, std::__ndk1::char_traits<char>, std::__ndk1::allocator<char> > >)1, matjson::Value, std::__ndk1::allocator<char> >&>(std::__ndk1::__variant_detail::__dtor<std::__ndk1::__variant_detail::__traits<std::__ndk1::reference_wrapper<matjson::Value>, std::__ndk1::basic_string<char, std::__ndk1::char_traits<char>, std::__ndk1::allocator<char> > >, (std::__ndk1::__variant_detail::_Trait)1>, std::__ndk1::__variant_detail::__base<(std::__ndk1::__variant_detail::__traits<std::__ndk1::reference_wrapper<matjson::Value>, std::__ndk1::basic_string<char, std::__ndk1::char_traits<char>, std::__ndk1::allocator<char> > >)1, matjson::Value, std::__ndk1::allocator<char> >&)
PUBLIC 3b978 0 std::__ndk1::basic_string<char, std::__ndk1::char_traits<char>, std::__ndk1::allocator<char> >::__init_copy_ctor_external(char const*, unsigned long)
PUBLIC 3ba0c 0 std::__ndk1::__variant_detail::__visitation::__base::__dispatcher<(unsigned long)0>::__dispatch[abi:ne190000]<std::__ndk1::__variant_detail::__dtor<std::__ndk1::__variant_detail::__traits<std::__ndk1::basic_string<char, std::__ndk1::char_traits<char>, std::__ndk1::allocator<char> >, std::__ndk1::allocator<char> >, (std::__ndk1::__variant_detail::_Trait)1>::__destroy[abi:ne190000]()::{lambda(auto:1&)#1}, std::__ndk1::__variant_detail::__base<(std::__ndk1::__variant_detail::__traits<std::__ndk1::basic_string<char, std::__ndk1::char_traits<char>, std::__ndk1::allocator<char> >, std::__ndk1::allocator<char> >)1, std::__ndk1::allocator<char>, std::__ndk1::allocator<char> >&>(std::__ndk1::__variant_detail::__dtor<std::__ndk1::__variant_detail::__traits<std::__ndk1::basic_string<char, std::__ndk1::char_traits<char>, std::__ndk1::allocator<char> >, std::__ndk1::allocator<char> >, (std::__ndk1::__variant_detail::_Trait)1>, std::__ndk1::__variant_detail::__base<(std::__ndk1::__variant_detail::__traits<std::__ndk1::basic_string<char, std::__ndk1::char_traits<char>, std::__ndk1::allocator<char> >, std::__ndk1::allocator<char> >)1, std::__ndk1::allocator<char>, std::__ndk1::allocator<char> >&)
PUBLIC 3ba20 0 std::__ndk1::__variant_detail::__visitation::__base::__dispatcher<(unsigned long)1>::__dispatch[abi:ne190000]<std::__ndk1::__variant_detail::__dtor<std::__ndk1::__variant_detail::__traits<std::__ndk1::basic_string<char, std::__ndk1::char_traits<char>, std::__ndk1::allocator<char> >, std::__ndk1::allocator<char> >, (std::__ndk1::__variant_detail::_Trait)1>::__destroy[abi:ne190000]()::{lambda(auto:1&)#1}, std::__ndk1::__variant_detail::__base<(std::__ndk1::__variant_detail::__traits<std::__ndk1::basic_string<char, std::__ndk1::char_traits<char>, std::__ndk1::allocator<char> >, std::__ndk1::allocator<char> >)1, std::__ndk1::allocator<char>, std::__ndk1::allocator<char> >&>(std::__ndk1::__variant_detail::__dtor<std::__ndk1::__variant_detail::__traits<std::__ndk1::basic_string<char, std::__ndk1::char_traits<char>, std::__ndk1::allocator<char> >, std::__ndk1::allocator<char> >, (std::__ndk1::__variant_detail::_Trait)1>, std::__ndk1::__variant_detail::__base<(std::__ndk1::__variant_detail::__traits<std::__ndk1::basic_string<char, std::__ndk1::char_traits<char>, std::__ndk1::allocator<char> >, std::__ndk1::allocator<char> >)1, std::__ndk1::allocator<char>, std::__ndk1::allocator<char> >&)
PUBLIC 3ba34 0 geode::Mod::getSavedValue<std::__ndk1::basic_string<char, std::__ndk1::char_traits<char>, std::__ndk1::allocator<char> > >(std::__ndk1::basic_string_view<char, std::__ndk1::char_traits<char> >)
PUBLIC 3bc1c 0 ButtonHooker::create(cocos2d::CCMenuItem*, cocos2d::CCObject*, void (cocos2d::CCObject::*)(cocos2d::CCObject*))
PUBLIC 3bd64 0 cocos2d::CCCopying::copyWithZone(cocos2d::CCZone*)
PUBLIC 3bd6c 0 ButtonHooker::~ButtonHooker()
PUBLIC 3bd90 0 cocos2d::CCObject::update(float)
PUBLIC 3bd94 0 DummyNode::setBlendFunc(cocos2d::_ccBlendFunc)
PUBLIC 3bebc 0 DummyNode::recursiveBlend(cocos2d::CCNode*, cocos2d::_ccBlendFunc)
PUBLIC 3c01c 0 geode::cocos::CCArrayExt<cocos2d::CCNode*, cocos2d::CCNode>::~CCArrayExt()
PUBLIC 3c03c 0 {virtual override thunk({offset(-320)}, DummyNode::setBlendFunc(cocos2d::_ccBlendFunc))}
PUBLIC 3c044 0 DummyNode::~DummyNode()
PUBLIC 3c068 0 DummyNode::addChild(cocos2d::CCNode*, int, int)
PUBLIC 3c0f0 0 DummyNode::removeChild(cocos2d::CCNode*, bool)
PUBLIC 3c0f4 0 DummyNode::removeAllChildrenWithCleanup(bool)
PUBLIC 3c0f8 0 DummyNode::reorderChild(cocos2d::CCNode*, int)
PUBLIC 3c0fc 0 DummyNode::sortAllChildren()
PUBLIC 3c100 0 DummyNode::draw()
PUBLIC 3c104 0 DummyNode::visit()
PUBLIC 3c108 0 geode::cast::traverseTypeinfoFor(void*, geode::cast::ClassTypeinfoType const*, char const*)
PUBLIC 3c20c 0 __cxx_global_var_init.10
PUBLIC 3c278 0 std::__ndk1::unordered_map<std::__ndk1::basic_string<char, std::__ndk1::char_traits<char>, std::__ndk1::allocator<char> >, TexturePack, std::__ndk1::hash<std::__ndk1::basic_string<char, std::__ndk1::char_traits<char>, std::__ndk1::allocator<char> > >, std::__ndk1::equal_to<std::__ndk1::basic_string<char, std::__ndk1::char_traits<char>, std::__ndk1::allocator<char> > >, std::__ndk1::allocator<std::__ndk1::pair<std::__ndk1::basic_string<char, std::__ndk1::char_traits<char>, std::__ndk1::allocator<char> > const, TexturePack> > >::~unordered_map[abi:ne190000]()
PUBLIC 3c27c 0 __cxx_global_var_init.11
PUBLIC 3c2e8 0 __cxx_global_var_init.12
PUBLIC 3c354 0 __cxx_global_var_init.13
PUBLIC 3c3c0 0 __cxx_global_var_init.14
PUBLIC 3c42c 0 __cxx_global_var_init.15
PUBLIC 3c498 0 __cxx_global_var_init.16
PUBLIC 3c504 0 __cxx_global_var_init.17
PUBLIC 3c570 0 __cxx_global_var_init.18
PUBLIC 3c5dc 0 __cxx_global_var_init.19
PUBLIC 3c648 0 std::__ndk1::unordered_map<std::__ndk1::basic_string<char, std::__ndk1::char_traits<char>, std::__ndk1::allocator<char> >, TrailInfo, std::__ndk1::hash<std::__ndk1::basic_string<char, std::__ndk1::char_traits<char>, std::__ndk1::allocator<char> > >, std::__ndk1::equal_to<std::__ndk1::basic_string<char, std::__ndk1::char_traits<char>, std::__ndk1::allocator<char> > >, std::__ndk1::allocator<std::__ndk1::pair<std::__ndk1::basic_string<char, std::__ndk1::char_traits<char>, std::__ndk1::allocator<char> > const, TrailInfo> > >::~unordered_map[abi:ne190000]()
PUBLIC 3c684 0 __cxx_global_var_init.20
PUBLIC 3c6e0 0 std::__ndk1::vector<ImageData, std::__ndk1::allocator<ImageData> >::~vector[abi:ne190000]()
PUBLIC 3c748 0 __cxx_global_var_init.21
PUBLIC 3c7a4 0 __cxx_global_var_init.22
PUBLIC 3c800 0 std::__ndk1::vector<LogData, std::__ndk1::allocator<LogData> >::~vector[abi:ne190000]()
PUBLIC 3c87c 0 __cxx_global_var_init.23
PUBLIC 3c8d8 0 LogCell::create(LogData const&, int, int, bool)
PUBLIC 3c9f4 0 LogCell::init(LogData const&, int, int, bool)
PUBLIC 3ce80 0 LogCell::draw()
PUBLIC 3cf3c 0 LogCell::~LogCell()
PUBLIC 3cf60 0 {virtual override thunk({offset(-320)}, LogCell::~LogCell())}
PUBLIC 3cf68 0 {virtual override thunk({offset(-320)}, LogCell::~LogCell())}
PUBLIC 3cf90 0 cocos2d::CCKeyboardDelegate::keyUp(cocos2d::enumKeyCodes)
PUBLIC 3cf94 0 cocos2d::CCMouseDelegate::rightKeyDown()
PUBLIC 3cf98 0 cocos2d::CCMouseDelegate::rightKeyUp()
PUBLIC 3cf9c 0 cocos2d::CCMouseDelegate::scrollWheel(float, float)
PUBLIC 3cfa0 0 _ZNSt6__ndk112__destroy_atB8ne190000I9ImageDataTnNS_9enable_ifIXntsr8is_arrayIT_EE5valueEiE4typeELi0EEEvPS3_
PUBLIC 3d034 0 std::__ndk1::__hash_table<std::__ndk1::__hash_value_type<std::__ndk1::basic_string<char, std::__ndk1::char_traits<char>, std::__ndk1::allocator<char> >, TexturePack>, std::__ndk1::__unordered_map_hasher<std::__ndk1::basic_string<char, std::__ndk1::char_traits<char>, std::__ndk1::allocator<char> >, std::__ndk1::__hash_value_type<std::__ndk1::basic_string<char, std::__ndk1::char_traits<char>, std::__ndk1::allocator<char> >, TexturePack>, std::__ndk1::hash<std::__ndk1::basic_string<char, std::__ndk1::char_traits<char>, std::__ndk1::allocator<char> > >, std::__ndk1::equal_to<std::__ndk1::basic_string<char, std::__ndk1::char_traits<char>, std::__ndk1::allocator<char> > >, true>, std::__ndk1::__unordered_map_equal<std::__ndk1::basic_string<char, std::__ndk1::char_traits<char>, std::__ndk1::allocator<char> >, std::__ndk1::__hash_value_type<std::__ndk1::basic_string<char, std::__ndk1::char_traits<char>, std::__ndk1::allocator<char> >, TexturePack>, std::__ndk1::equal_to<std::__ndk1::basic_string<char, std::__ndk1::char_traits<char>, std::__ndk1::allocator<char> > >, std::__ndk1::hash<std::__ndk1::basic_string<char, std::__ndk1::char_traits<char>, std::__ndk1::allocator<char> > >, true>, std::__ndk1::allocator<std::__ndk1::__hash_value_type<std::__ndk1::basic_string<char, std::__ndk1::char_traits<char>, std::__ndk1::allocator<char> >, TexturePack> > >::~__hash_table()
PUBLIC 3d0d8 0 std::__ndk1::__hash_table<std::__ndk1::__hash_value_type<std::__ndk1::basic_string<char, std::__ndk1::char_traits<char>, std::__ndk1::allocator<char> >, TrailInfo>, std::__ndk1::__unordered_map_hasher<std::__ndk1::basic_string<char, std::__ndk1::char_traits<char>, std::__ndk1::allocator<char> >, std::__ndk1::__hash_value_type<std::__ndk1::basic_string<char, std::__ndk1::char_traits<char>, std::__ndk1::allocator<char> >, TrailInfo>, std::__ndk1::hash<std::__ndk1::basic_string<char, std::__ndk1::char_traits<char>, std::__ndk1::allocator<char> > >, std::__ndk1::equal_to<std::__ndk1::basic_string<char, std::__ndk1::char_traits<char>, std::__ndk1::allocator<char> > >, true>, std::__ndk1::__unordered_map_equal<std::__ndk1::basic_string<char, std::__ndk1::char_traits<char>, std::__ndk1::allocator<char> >, std::__ndk1::__hash_value_type<std::__ndk1::basic_string<char, std::__ndk1::char_traits<char>, std::__ndk1::allocator<char> >, TrailInfo>, std::__ndk1::equal_to<std::__ndk1::basic_string<char, std::__ndk1::char_traits<char>, std::__ndk1::allocator<char> > >, std::__ndk1::hash<std::__ndk1::basic_string<char, std::__ndk1::char_traits<char>, std::__ndk1::allocator<char> > >, true>, std::__ndk1::allocator<std::__ndk1::__hash_value_type<std::__ndk1::basic_string<char, std::__ndk1::char_traits<char>, std::__ndk1::allocator<char> >, TrailInfo> > >::__deallocate_node(std::__ndk1::__hash_node_base<std::__ndk1::__hash_node<std::__ndk1::__hash_value_type<std::__ndk1::basic_string<char, std::__ndk1::char_traits<char>, std::__ndk1::allocator<char> >, TrailInfo>, void*>*>*)
PUBLIC 3d170 0 __aarch64_ldadd8_acq_rel
PUBLIC 3d1a0 0 init_have_lse_atomics
PUBLIC 3d238 0 __init_cpu_features_constructor
PUBLIC 3d4e4 0 __init_cpu_features
PUBLIC 3d570 0 LogLayer::create()
PUBLIC 3d6a0 0 LogLayer::setup()
PUBLIC 3dd7c 0 geode::cocos::CCMenuItemExt::createSpriteExtraWithFrameName(std::__ndk1::basic_string_view<char, std::__ndk1::char_traits<char> >, float, std::__ndk1::function<void (CCMenuItemSpriteExtra*)>)
PUBLIC 3dec8 0 geode::cocos::CCMenuItemExt::createSpriteExtra(cocos2d::CCNode*, std::__ndk1::function<void (CCMenuItemSpriteExtra*)>)
PUBLIC 3e290 0 LogLayer::page(int)
PUBLIC 3e570 0 LogLayer::keyDown(cocos2d::enumKeyCodes)
PUBLIC 3e654 0 geode::Popup<>::keyDown(cocos2d::enumKeyCodes)
PUBLIC 3e67c 0 {virtual override thunk({offset(-344)}, LogLayer::keyDown(cocos2d::enumKeyCodes))}
PUBLIC 3e684 0 LogLayer::setIDPopupClosed(SetIDPopup*, int)
PUBLIC 3e6cc 0 {virtual override thunk({offset(-672)}, LogLayer::setIDPopupClosed(SetIDPopup*, int))}
PUBLIC 3e718 0 geode::Popup<>::~Popup()
PUBLIC 3e784 0 LogLayer::~LogLayer()
PUBLIC 3e7f8 0 geode::Popup<>::registerWithTouchDispatcher()
PUBLIC 3e824 0 cocos2d::CCLayerRGBA::setOpacityModifyRGB(bool)
PUBLIC 3e828 0 cocos2d::CCLayerRGBA::isOpacityModifyRGB()
PUBLIC 3e830 0 geode::Popup<>::onClose(cocos2d::CCObject*)
PUBLIC 3e964 0 {virtual override thunk({offset(-320)}, LogLayer::~LogLayer())}
PUBLIC 3e9d0 0 {virtual override thunk({offset(-320)}, LogLayer::~LogLayer())}
PUBLIC 3ea44 0 {virtual override thunk({offset(-408)}, cocos2d::CCLayerRGBA::setOpacityModifyRGB(bool))}
PUBLIC 3ea48 0 {virtual override thunk({offset(-408)}, cocos2d::CCLayerRGBA::isOpacityModifyRGB())}
PUBLIC 3ea50 0 geode::Popup<>::~Popup()
PUBLIC 3ea54 0 {virtual override thunk({offset(-320)}, geode::Popup<>::~Popup())}
PUBLIC 3eac0 0 {virtual override thunk({offset(-320)}, geode::Popup<>::~Popup())}
PUBLIC 3eac4 0 {virtual override thunk({offset(-344)}, geode::Popup<>::keyDown(cocos2d::enumKeyCodes))}
PUBLIC 3eaf0 0 geode::cocos::CCMenuItemExt::LambdaCallback<CCMenuItemSpriteExtra>::execute(cocos2d::CCNode*)
PUBLIC 3eb60 0 geode::cocos::CCMenuItemExt::LambdaCallback<CCMenuItemSpriteExtra>::~LambdaCallback()
PUBLIC 3ebbc 0 geode::cocos::CCMenuItemExt::LambdaCallback<CCMenuItemSpriteExtra>::~LambdaCallback()
PUBLIC 3ec20 0 std::__ndk1::__throw_bad_function_call[abi:ne190000]()
PUBLIC 3ec54 0 std::__ndk1::bad_function_call::~bad_function_call()
PUBLIC 3ec78 0 geode::Popup<>::initBase(float, float, char const*, cocos2d::CCRect, bool)
PUBLIC 3ef7c 0 std::__ndk1::__function::__func<LogLayer::setup()::$_0, std::__ndk1::allocator<LogLayer::setup()::$_0>, void (CCMenuItemSpriteExtra*)>::~__func()
PUBLIC 3ef80 0 std::__ndk1::__function::__func<LogLayer::setup()::$_0, std::__ndk1::allocator<LogLayer::setup()::$_0>, void (CCMenuItemSpriteExtra*)>::__clone() const
PUBLIC 3efb4 0 std::__ndk1::__function::__func<LogLayer::setup()::$_0, std::__ndk1::allocator<LogLayer::setup()::$_0>, void (CCMenuItemSpriteExtra*)>::__clone(std::__ndk1::__function::__base<void (CCMenuItemSpriteExtra*)>*) const
PUBLIC 3efc8 0 std::__ndk1::__function::__func<LogLayer::setup()::$_0, std::__ndk1::allocator<LogLayer::setup()::$_0>, void (CCMenuItemSpriteExtra*)>::destroy()
PUBLIC 3efcc 0 std::__ndk1::__function::__func<LogLayer::setup()::$_0, std::__ndk1::allocator<LogLayer::setup()::$_0>, void (CCMenuItemSpriteExtra*)>::destroy_deallocate()
PUBLIC 3efd0 0 std::__ndk1::__function::__func<LogLayer::setup()::$_0, std::__ndk1::allocator<LogLayer::setup()::$_0>, void (CCMenuItemSpriteExtra*)>::operator()(CCMenuItemSpriteExtra*&&)
PUBLIC 3efe0 0 std::__ndk1::__function::__func<LogLayer::setup()::$_0, std::__ndk1::allocator<LogLayer::setup()::$_0>, void (CCMenuItemSpriteExtra*)>::target(std::type_info const&) const
PUBLIC 3effc 0 std::__ndk1::__function::__func<LogLayer::setup()::$_0, std::__ndk1::allocator<LogLayer::setup()::$_0>, void (CCMenuItemSpriteExtra*)>::target_type() const
PUBLIC 3f008 0 std::__ndk1::__function::__func<LogLayer::setup()::$_1, std::__ndk1::allocator<LogLayer::setup()::$_1>, void (CCMenuItemSpriteExtra*)>::~__func()
PUBLIC 3f00c 0 std::__ndk1::__function::__func<LogLayer::setup()::$_1, std::__ndk1::allocator<LogLayer::setup()::$_1>, void (CCMenuItemSpriteExtra*)>::__clone() const
PUBLIC 3f040 0 std::__ndk1::__function::__func<LogLayer::setup()::$_1, std::__ndk1::allocator<LogLayer::setup()::$_1>, void (CCMenuItemSpriteExtra*)>::__clone(std::__ndk1::__function::__base<void (CCMenuItemSpriteExtra*)>*) const
PUBLIC 3f054 0 std::__ndk1::__function::__func<LogLayer::setup()::$_1, std::__ndk1::allocator<LogLayer::setup()::$_1>, void (CCMenuItemSpriteExtra*)>::destroy()
PUBLIC 3f058 0 std::__ndk1::__function::__func<LogLayer::setup()::$_1, std::__ndk1::allocator<LogLayer::setup()::$_1>, void (CCMenuItemSpriteExtra*)>::destroy_deallocate()
PUBLIC 3f05c 0 std::__ndk1::__function::__func<LogLayer::setup()::$_1, std::__ndk1::allocator<LogLayer::setup()::$_1>, void (CCMenuItemSpriteExtra*)>::operator()(CCMenuItemSpriteExtra*&&)
PUBLIC 3f06c 0 std::__ndk1::__function::__func<LogLayer::setup()::$_1, std::__ndk1::allocator<LogLayer::setup()::$_1>, void (CCMenuItemSpriteExtra*)>::target(std::type_info const&) const
PUBLIC 3f088 0 std::__ndk1::__function::__func<LogLayer::setup()::$_1, std::__ndk1::allocator<LogLayer::setup()::$_1>, void (CCMenuItemSpriteExtra*)>::target_type() const
PUBLIC 3f094 0 std::__ndk1::__function::__func<LogLayer::setup()::$_2, std::__ndk1::allocator<LogLayer::setup()::$_2>, void (CCMenuItemSpriteExtra*)>::~__func()
PUBLIC 3f098 0 std::__ndk1::__function::__func<LogLayer::setup()::$_2, std::__ndk1::allocator<LogLayer::setup()::$_2>, void (CCMenuItemSpriteExtra*)>::__clone() const
PUBLIC 3f0cc 0 std::__ndk1::__function::__func<LogLayer::setup()::$_2, std::__ndk1::allocator<LogLayer::setup()::$_2>, void (CCMenuItemSpriteExtra*)>::__clone(std::__ndk1::__function::__base<void (CCMenuItemSpriteExtra*)>*) const
PUBLIC 3f0e0 0 std::__ndk1::__function::__func<LogLayer::setup()::$_2, std::__ndk1::allocator<LogLayer::setup()::$_2>, void (CCMenuItemSpriteExtra*)>::destroy()
PUBLIC 3f0e4 0 std::__ndk1::__function::__func<LogLayer::setup()::$_2, std::__ndk1::allocator<LogLayer::setup()::$_2>, void (CCMenuItemSpriteExtra*)>::destroy_deallocate()
PUBLIC 3f0e8 0 std::__ndk1::__function::__func<LogLayer::setup()::$_2, std::__ndk1::allocator<LogLayer::setup()::$_2>, void (CCMenuItemSpriteExtra*)>::operator()(CCMenuItemSpriteExtra*&&)
PUBLIC 3f224 0 std::__ndk1::__function::__func<LogLayer::setup()::$_2, std::__ndk1::allocator<LogLayer::setup()::$_2>, void (CCMenuItemSpriteExtra*)>::target(std::type_info const&) const
PUBLIC 3f240 0 std::__ndk1::__function::__func<LogLayer::setup()::$_2, std::__ndk1::allocator<LogLayer::setup()::$_2>, void (CCMenuItemSpriteExtra*)>::target_type() const
PUBLIC 3f24c 0 std::__ndk1::__function::__func<LogLayer::setup()::$_3, std::__ndk1::allocator<LogLayer::setup()::$_3>, void (CCMenuItemSpriteExtra*)>::~__func()
PUBLIC 3f250 0 std::__ndk1::__function::__func<LogLayer::setup()::$_3, std::__ndk1::allocator<LogLayer::setup()::$_3>, void (CCMenuItemSpriteExtra*)>::__clone() const
PUBLIC 3f284 0 std::__ndk1::__function::__func<LogLayer::setup()::$_3, std::__ndk1::allocator<LogLayer::setup()::$_3>, void (CCMenuItemSpriteExtra*)>::__clone(std::__ndk1::__function::__base<void (CCMenuItemSpriteExtra*)>*) const
PUBLIC 3f298 0 std::__ndk1::__function::__func<LogLayer::setup()::$_3, std::__ndk1::allocator<LogLayer::setup()::$_3>, void (CCMenuItemSpriteExtra*)>::destroy()
PUBLIC 3f29c 0 std::__ndk1::__function::__func<LogLayer::setup()::$_3, std::__ndk1::allocator<LogLayer::setup()::$_3>, void (CCMenuItemSpriteExtra*)>::destroy_deallocate()
PUBLIC 3f2a0 0 std::__ndk1::__function::__func<LogLayer::setup()::$_3, std::__ndk1::allocator<LogLayer::setup()::$_3>, void (CCMenuItemSpriteExtra*)>::operator()(CCMenuItemSpriteExtra*&&)
PUBLIC 3f2a8 0 std::__ndk1::__function::__func<LogLayer::setup()::$_3, std::__ndk1::allocator<LogLayer::setup()::$_3>, void (CCMenuItemSpriteExtra*)>::target(std::type_info const&) const
PUBLIC 3f2c4 0 std::__ndk1::__function::__func<LogLayer::setup()::$_3, std::__ndk1::allocator<LogLayer::setup()::$_3>, void (CCMenuItemSpriteExtra*)>::target_type() const
PUBLIC 3f2d0 0 std::__ndk1::__function::__base<void (CCMenuItemSpriteExtra*)>::~__base()
PUBLIC 3f2d4 0 std::__ndk1::__function::__func<LogLayer::setup()::$_4, std::__ndk1::allocator<LogLayer::setup()::$_4>, void (CCMenuItemSpriteExtra*)>::~__func()
PUBLIC 3f2d8 0 std::__ndk1::__function::__func<LogLayer::setup()::$_4, std::__ndk1::allocator<LogLayer::setup()::$_4>, void (CCMenuItemSpriteExtra*)>::__clone() const
PUBLIC 3f30c 0 std::__ndk1::__function::__func<LogLayer::setup()::$_4, std::__ndk1::allocator<LogLayer::setup()::$_4>, void (CCMenuItemSpriteExtra*)>::__clone(std::__ndk1::__function::__base<void (CCMenuItemSpriteExtra*)>*) const
PUBLIC 3f320 0 std::__ndk1::__function::__func<LogLayer::setup()::$_4, std::__ndk1::allocator<LogLayer::setup()::$_4>, void (CCMenuItemSpriteExtra*)>::destroy()
PUBLIC 3f324 0 std::__ndk1::__function::__func<LogLayer::setup()::$_4, std::__ndk1::allocator<LogLayer::setup()::$_4>, void (CCMenuItemSpriteExtra*)>::destroy_deallocate()
PUBLIC 3f328 0 std::__ndk1::__function::__func<LogLayer::setup()::$_4, std::__ndk1::allocator<LogLayer::setup()::$_4>, void (CCMenuItemSpriteExtra*)>::operator()(CCMenuItemSpriteExtra*&&)
PUBLIC 3f3d0 0 std::__ndk1::__function::__func<LogLayer::setup()::$_4, std::__ndk1::allocator<LogLayer::setup()::$_4>, void (CCMenuItemSpriteExtra*)>::target(std::type_info const&) const
PUBLIC 3f3ec 0 std::__ndk1::__function::__func<LogLayer::setup()::$_4, std::__ndk1::allocator<LogLayer::setup()::$_4>, void (CCMenuItemSpriteExtra*)>::target_type() const
PUBLIC 3f3f8 0 geode::Popup<>::CloseEvent::~CloseEvent()
PUBLIC 3f458 0 geode::Popup<>::CloseEvent::~CloseEvent()
PUBLIC 3f4c8 0 std::__ndk1::__shared_ptr_emplace<geode::Popup<>::CloseEvent::Impl, std::__ndk1::allocator<geode::Popup<>::CloseEvent::Impl> >::~__shared_ptr_emplace()
PUBLIC 3f4d8 0 std::__ndk1::__shared_ptr_emplace<geode::Popup<>::CloseEvent::Impl, std::__ndk1::allocator<geode::Popup<>::CloseEvent::Impl> >::~__shared_ptr_emplace()
PUBLIC 3f508 0 std::__ndk1::__shared_ptr_emplace<geode::Popup<>::CloseEvent::Impl, std::__ndk1::allocator<geode::Popup<>::CloseEvent::Impl> >::__on_zero_shared()
PUBLIC 3f50c 0 std::__ndk1::__shared_ptr_emplace<geode::Popup<>::CloseEvent::Impl, std::__ndk1::allocator<geode::Popup<>::CloseEvent::Impl> >::__on_zero_shared_weak()
PUBLIC 3f510 0 __aarch64_ldadd8_relax
PUBLIC 3f540 0 __cxx_global_var_init
PUBLIC 3f9b0 0 geode::modifier::ModifyBase<geode::modifier::ModifyDerive<MIFileUtils, cocos2d::CCFileUtils> >::~ModifyBase()
PUBLIC 3f9cc 0 geode::modifier::ModifyDerive<MIFileUtils, cocos2d::CCFileUtils>::apply()
PUBLIC 3fd84 0 std::__ndk1::shared_ptr<geode::Hook>::~shared_ptr[abi:ne190000]()
PUBLIC 3fdd4 0 geode::impl::ResultData<geode::Hook*, std::__ndk1::basic_string<char, std::__ndk1::char_traits<char>, std::__ndk1::allocator<char> > >::~ResultData()
PUBLIC 3fe48 0 geode::modifier::ModifyBase<geode::modifier::ModifyDerive<MIFileUtils, cocos2d::CCFileUtils> >::apply()
PUBLIC 3fe4c 0 _ZN5geode15UnwrapExceptionC2IRPNS_4HookEQsr4implE18IsStringStreamableIT_EEENS_4impl5OkTagEOS5_
PUBLIC 3ffa0 0 std::__ndk1::basic_stringstream<char, std::__ndk1::char_traits<char>, std::__ndk1::allocator<char> >::basic_stringstream[abi:ne190000]()
PUBLIC m 400d4 0 std::__ndk1::basic_stringstream<char, std::__ndk1::char_traits<char>, std::__ndk1::allocator<char> >::~basic_stringstream()
PUBLIC 40154 0 geode::UnwrapException::~UnwrapException()
PUBLIC 40178 0 std::__ndk1::__put_character_sequence[abi:ne190000]<char, std::__ndk1::char_traits<char> >(std::__ndk1::basic_ostream<char, std::__ndk1::char_traits<char> >, std::__ndk1::basic_ostream const*, unsigned long)
PUBLIC 4031c 0 std::__ndk1::__pad_and_output[abi:ne190000]<char, std::__ndk1::char_traits<char> >(std::__ndk1::char_traits<char>, std::__ndk1::ostreambuf_iterator const*, std::__ndk1::ostreambuf_iterator const, std::__ndk1::ostreambuf_iterator const, std::__ndk1::ios_base&, std::__ndk1::ostreambuf_iterator)
PUBLIC 40508 0 std::__throw_bad_array_new_length([abi:ne190000], void)
PUBLIC 4053c 0 std::__ndk1::basic_stringbuf<char, std::__ndk1::char_traits<char>, std::__ndk1::allocator<char> >::str[abi:ne190000]() &&
PUBLIC 406ac 0 std::__ndk1::basic_stringbuf<char, std::__ndk1::char_traits<char>, std::__ndk1::allocator<char> >::__init_buf_ptrs[abi:ne190000]()
PUBLIC 407f4 0 std::__ndk1::basic_string<char, std::__ndk1::char_traits<char>, std::__ndk1::allocator<char> >::__erase_external_with_move(unsigned long, unsigned long)
PUBLIC 4087c 0 std::__ndk1::vector<std::__ndk1::basic_string<char, std::__ndk1::char_traits<char>, std::__ndk1::allocator<char> >, std::__ndk1::allocator<std::__ndk1::basic_string<char, std::__ndk1::char_traits<char>, std::__ndk1::allocator<char> > > >::__push_back_slow_path<std::__ndk1::basic_string<char, std::__ndk1::char_traits<char>, std::__ndk1::allocator<char> > const&>(std::__ndk1::basic_string<char, std::__ndk1::char_traits<char>, std::__ndk1::allocator<char> > const&)
PUBLIC 40a2c 0 std::__ndk1::__split_buffer<std::__ndk1::basic_string<char, std::__ndk1::char_traits<char>, std::__ndk1::allocator<char> >, std::__ndk1::allocator<std::__ndk1::basic_string<char, std::__ndk1::char_traits<char>, std::__ndk1::allocator<char> > >&>::~__split_buffer()
PUBLIC 40a94 0 std::__ndk1::vector<std::__ndk1::basic_string<char, std::__ndk1::char_traits<char>, std::__ndk1::allocator<char> >, std::__ndk1::allocator<std::__ndk1::basic_string<char, std::__ndk1::char_traits<char>, std::__ndk1::allocator<char> > > >::__throw_length_error[abi:ne190000]() const
PUBLIC 40aa8 0 std::__ndk1::__variant_detail::__visitation::__base::__dispatcher<(unsigned long)0>::__dispatch[abi:ne190000]<std::__ndk1::__variant_detail::__dtor<std::__ndk1::__variant_detail::__traits<geode::Hook*, std::__ndk1::basic_string<char, std::__ndk1::char_traits<char>, std::__ndk1::allocator<char> > >, (std::__ndk1::__variant_detail::_Trait)1>::__destroy[abi:ne190000]()::{lambda(auto:1&)#1}, std::__ndk1::__variant_detail::__base<(std::__ndk1::__variant_detail::__traits<geode::Hook*, std::__ndk1::basic_string<char, std::__ndk1::char_traits<char>, std::__ndk1::allocator<char> > >)1, geode::Hook, std::__ndk1::allocator<char> >&>(std::__ndk1::__variant_detail::__dtor<std::__ndk1::__variant_detail::__traits<geode::Hook*, std::__ndk1::basic_string<char, std::__ndk1::char_traits<char>, std::__ndk1::allocator<char> > >, (std::__ndk1::__variant_detail::_Trait)1>, std::__ndk1::__variant_detail::__base<(std::__ndk1::__variant_detail::__traits<geode::Hook*, std::__ndk1::basic_string<char, std::__ndk1::char_traits<char>, std::__ndk1::allocator<char> > >)1, geode::Hook, std::__ndk1::allocator<char> >&)
PUBLIC 40aac 0 std::__ndk1::__variant_detail::__visitation::__base::__dispatcher<(unsigned long)1>::__dispatch[abi:ne190000]<std::__ndk1::__variant_detail::__dtor<std::__ndk1::__variant_detail::__traits<geode::Hook*, std::__ndk1::basic_string<char, std::__ndk1::char_traits<char>, std::__ndk1::allocator<char> > >, (std::__ndk1::__variant_detail::_Trait)1>::__destroy[abi:ne190000]()::{lambda(auto:1&)#1}, std::__ndk1::__variant_detail::__base<(std::__ndk1::__variant_detail::__traits<geode::Hook*, std::__ndk1::basic_string<char, std::__ndk1::char_traits<char>, std::__ndk1::allocator<char> > >)1, geode::Hook, std::__ndk1::allocator<char> >&>(std::__ndk1::__variant_detail::__dtor<std::__ndk1::__variant_detail::__traits<geode::Hook*, std::__ndk1::basic_string<char, std::__ndk1::char_traits<char>, std::__ndk1::allocator<char> > >, (std::__ndk1::__variant_detail::_Trait)1>, std::__ndk1::__variant_detail::__base<(std::__ndk1::__variant_detail::__traits<geode::Hook*, std::__ndk1::basic_string<char, std::__ndk1::char_traits<char>, std::__ndk1::allocator<char> > >)1, geode::Hook, std::__ndk1::allocator<char> >&)
PUBLIC 40ac0 0 std::__ndk1::__tree<std::__ndk1::__value_type<std::__ndk1::basic_string<char, std::__ndk1::char_traits<char>, std::__ndk1::allocator<char> >, std::__ndk1::shared_ptr<geode::Hook> >, std::__ndk1::__map_value_compare<std::__ndk1::basic_string<char, std::__ndk1::char_traits<char>, std::__ndk1::allocator<char> >, std::__ndk1::__value_type<std::__ndk1::basic_string<char, std::__ndk1::char_traits<char>, std::__ndk1::allocator<char> >, std::__ndk1::shared_ptr<geode::Hook> >, std::__ndk1::less<std::__ndk1::basic_string<char, std::__ndk1::char_traits<char>, std::__ndk1::allocator<char> > >, true>, std::__ndk1::allocator<std::__ndk1::__value_type<std::__ndk1::basic_string<char, std::__ndk1::char_traits<char>, std::__ndk1::allocator<char> >, std::__ndk1::shared_ptr<geode::Hook> > > >::find<std::__ndk1::basic_string<char, std::__ndk1::char_traits<char>, std::__ndk1::allocator<char> > >(std::__ndk1::basic_string<char, std::__ndk1::char_traits<char>, std::__ndk1::allocator<char> > const&)
PUBLIC 40be8 0 std::__ndk1::__tree<std::__ndk1::__value_type<std::__ndk1::basic_string<char, std::__ndk1::char_traits<char>, std::__ndk1::allocator<char> >, std::__ndk1::shared_ptr<geode::Hook> >, std::__ndk1::__map_value_compare<std::__ndk1::basic_string<char, std::__ndk1::char_traits<char>, std::__ndk1::allocator<char> >, std::__ndk1::__value_type<std::__ndk1::basic_string<char, std::__ndk1::char_traits<char>, std::__ndk1::allocator<char> >, std::__ndk1::shared_ptr<geode::Hook> >, std::__ndk1::less<std::__ndk1::basic_string<char, std::__ndk1::char_traits<char>, std::__ndk1::allocator<char> > >, true>, std::__ndk1::allocator<std::__ndk1::__value_type<std::__ndk1::basic_string<char, std::__ndk1::char_traits<char>, std::__ndk1::allocator<char> >, std::__ndk1::shared_ptr<geode::Hook> > > >::erase(std::__ndk1::__tree_const_iterator<std::__ndk1::__value_type<std::__ndk1::basic_string<char, std::__ndk1::char_traits<char>, std::__ndk1::allocator<char> >, std::__ndk1::shared_ptr<geode::Hook> >, std::__ndk1::__tree_node<std::__ndk1::__value_type<std::__ndk1::basic_string<char, std::__ndk1::char_traits<char>, std::__ndk1::allocator<char> >, std::__ndk1::shared_ptr<geode::Hook> >, void*>*, long>)
PUBLIC 40cbc 0 std::__ndk1::__tree_remove[abi:ne190000]<std::__ndk1::__tree_node_base<void*>*>(std::__ndk1::__tree_node_base<void*>*, std::__ndk1::__tree_node_base<void*>*)
PUBLIC 41084 0 std::__ndk1::__tree<std::__ndk1::__value_type<std::__ndk1::basic_string<char, std::__ndk1::char_traits<char>, std::__ndk1::allocator<char> >, std::__ndk1::shared_ptr<geode::Hook> >, std::__ndk1::__map_value_compare<std::__ndk1::basic_string<char, std::__ndk1::char_traits<char>, std::__ndk1::allocator<char> >, std::__ndk1::__value_type<std::__ndk1::basic_string<char, std::__ndk1::char_traits<char>, std::__ndk1::allocator<char> >, std::__ndk1::shared_ptr<geode::Hook> >, std::__ndk1::less<std::__ndk1::basic_string<char, std::__ndk1::char_traits<char>, std::__ndk1::allocator<char> > >, true>, std::__ndk1::allocator<std::__ndk1::__value_type<std::__ndk1::basic_string<char, std::__ndk1::char_traits<char>, std::__ndk1::allocator<char> >, std::__ndk1::shared_ptr<geode::Hook> > > >::destroy(std::__ndk1::__tree_node<std::__ndk1::__value_type<std::__ndk1::basic_string<char, std::__ndk1::char_traits<char>, std::__ndk1::allocator<char> >, std::__ndk1::shared_ptr<geode::Hook> >, void*>*)
PUBLIC 41110 0 geode::modifier::AsStaticFunction_fullPathForFilename<MIFileUtils, gd::string (MIFileUtils::*)(char const*, bool)>::Impl<gd::string (MIFileUtils::*)(char const*, bool)>::function(MIFileUtils*, char const*, bool)
PUBLIC 4130c 0 geode::addresser::Addresser::addressOfVirtual<gd::string, cocos2d::CCFileUtils, char const*, bool>(gd::string (cocos2d::CCFileUtils::*)(char const*, bool))
PUBLIC 413d4 0 cocos2d::CCFileUtils::CCFileUtils(geode::ZeroConstructorType, void*)
PUBLIC 4149c 0 gd::vector<gd::string>::~vector()
PUBLIC 4150c 0 geode::stl::_rb_insert_rebalance(bool, geode::stl::_rb_tree_base*, geode::stl::_rb_tree_base*, geode::stl::_rb_tree_base&)
PUBLIC 417c4 0 std::__ndk1::__tree<std::__ndk1::__value_type<gd::string, gd::string>, std::__ndk1::__map_value_compare<gd::string, std::__ndk1::__value_type<gd::string, gd::string>, std::__ndk1::less<gd::string>, true>, std::__ndk1::allocator<std::__ndk1::__value_type<gd::string, gd::string> > >::destroy(std::__ndk1::__tree_node<std::__ndk1::__value_type<gd::string, gd::string>, void*>*)
PUBLIC 41810 0 std::__ndk1::shared_ptr<tulip::hook::CallingConvention>::~shared_ptr[abi:ne190000]()
PUBLIC 41860 0 tulip::hook::HandlerMetadata::~HandlerMetadata()
PUBLIC 418c4 0 std::__ndk1::vector<tulip::hook::AbstractType, std::__ndk1::allocator<tulip::hook::AbstractType> >::__throw_length_error[abi:ne190000]() const
PUBLIC 418d8 0 std::__ndk1::__tree<std::__ndk1::__value_type<std::__ndk1::basic_string<char, std::__ndk1::char_traits<char>, std::__ndk1::allocator<char> >, std::__ndk1::shared_ptr<geode::Hook> >, std::__ndk1::__map_value_compare<std::__ndk1::basic_string<char, std::__ndk1::char_traits<char>, std::__ndk1::allocator<char> >, std::__ndk1::__value_type<std::__ndk1::basic_string<char, std::__ndk1::char_traits<char>, std::__ndk1::allocator<char> >, std::__ndk1::shared_ptr<geode::Hook> >, std::__ndk1::less<std::__ndk1::basic_string<char, std::__ndk1::char_traits<char>, std::__ndk1::allocator<char> > >, true>, std::__ndk1::allocator<std::__ndk1::__value_type<std::__ndk1::basic_string<char, std::__ndk1::char_traits<char>, std::__ndk1::allocator<char> >, std::__ndk1::shared_ptr<geode::Hook> > > >::__emplace_unique_key_args<std::__ndk1::basic_string<char, std::__ndk1::char_traits<char>, std::__ndk1::allocator<char> >, std::__ndk1::piecewise_construct_t const&, std::__ndk1::tuple<std::__ndk1::basic_string<char, std::__ndk1::char_traits<char>, std::__ndk1::allocator<char> >&&>, std::__ndk1::tuple<> >(std::__ndk1::basic_string<char, std::__ndk1::char_traits<char>, std::__ndk1::allocator<char> > const&, std::__ndk1::piecewise_construct_t const&, std::__ndk1::tuple<std::__ndk1::basic_string<char, std::__ndk1::char_traits<char>, std::__ndk1::allocator<char> >&&>, std::__ndk1::tuple<>)
PUBLIC 41a50 0 std::__ndk1::__tree_balance_after_insert[abi:ne190000]<std::__ndk1::__tree_node_base<void*>*>(std::__ndk1::__tree_node_base<void*>*, std::__ndk1::__tree_node_base<void*>*)
PUBLIC 41bf8 0 __cxx_global_var_init.24
PUBLIC 420e0 0 geode::modifier::ModifyBase<geode::modifier::ModifyDerive<MICharacterColorPage, CharacterColorPage> >::~ModifyBase()
PUBLIC 420fc 0 geode::modifier::ModifyDerive<MICharacterColorPage, CharacterColorPage>::apply()
PUBLIC 426e4 0 geode::modifier::ModifyBase<geode::modifier::ModifyDerive<MICharacterColorPage, CharacterColorPage> >::apply()
PUBLIC 426e8 0 geode::modifier::ModifyBase<geode::modifier::ModifyDerive<MICharacterColorPage, CharacterColorPage> >::setHookPriorityBefore(std::__ndk1::basic_string_view<char, std::__ndk1::char_traits<char> >, std::__ndk1::basic_string_view<char, std::__ndk1::char_traits<char> >)
PUBLIC 42bc8 0 geode::modifier::ModifyBase<geode::modifier::ModifyDerive<MICharacterColorPage, CharacterColorPage> >::setHookPriorityBefore(std::__ndk1::basic_string_view<char, std::__ndk1::char_traits<char> >, geode::Mod*)::{lambda(geode::ModStateEvent*)#1}::operator()(geode::ModStateEvent*) const
PUBLIC 42cd8 0 std::__ndk1::__tree<std::__ndk1::__value_type<std::__ndk1::basic_string<char, std::__ndk1::char_traits<char>, std::__ndk1::allocator<char> >, std::__ndk1::shared_ptr<geode::Hook> >, std::__ndk1::__map_value_compare<std::__ndk1::basic_string<char, std::__ndk1::char_traits<char>, std::__ndk1::allocator<char> >, std::__ndk1::__value_type<std::__ndk1::basic_string<char, std::__ndk1::char_traits<char>, std::__ndk1::allocator<char> >, std::__ndk1::shared_ptr<geode::Hook> >, std::__ndk1::less<std::__ndk1::basic_string<char, std::__ndk1::char_traits<char>, std::__ndk1::allocator<char> > >, true>, std::__ndk1::allocator<std::__ndk1::__value_type<std::__ndk1::basic_string<char, std::__ndk1::char_traits<char>, std::__ndk1::allocator<char> >, std::__ndk1::shared_ptr<geode::Hook> > > >::__emplace_unique_key_args<std::__ndk1::basic_string<char, std::__ndk1::char_traits<char>, std::__ndk1::allocator<char> >, std::__ndk1::piecewise_construct_t const&, std::__ndk1::tuple<std::__ndk1::basic_string<char, std::__ndk1::char_traits<char>, std::__ndk1::allocator<char> > const&>, std::__ndk1::tuple<> >(std::__ndk1::basic_string<char, std::__ndk1::char_traits<char>, std::__ndk1::allocator<char> > const&, std::__ndk1::piecewise_construct_t const&, std::__ndk1::tuple<std::__ndk1::basic_string<char, std::__ndk1::char_traits<char>, std::__ndk1::allocator<char> > const&>, std::__ndk1::tuple<>)
PUBLIC 42ecc 0 std::__ndk1::unique_ptr<std::__ndk1::__tree_node<std::__ndk1::__value_type<std::__ndk1::basic_string<char, std::__ndk1::char_traits<char>, std::__ndk1::allocator<char> >, std::__ndk1::shared_ptr<geode::Hook> >, void*>, std::__ndk1::__tree_node_destructor<std::__ndk1::allocator<std::__ndk1::__tree_node<std::__ndk1::__value_type<std::__ndk1::basic_string<char, std::__ndk1::char_traits<char>, std::__ndk1::allocator<char> >, std::__ndk1::shared_ptr<geode::Hook> >, void*> > > >::~unique_ptr[abi:ne190000]()
PUBLIC 42f48 0 _ZN5geode15UnwrapExceptionC2IRNSt6__ndk112basic_stringIcNS2_11char_traitsIcEENS2_9allocatorIcEEEEQsr4implE18IsStringStreamableIT_EEENS_4impl6ErrTagEOSA_
PUBLIC 430b0 0 std::__ndk1::__function::__base<void (geode::ModStateEvent*)>::~__base()
PUBLIC 430b4 0 std::__ndk1::__function::__func<geode::modifier::ModifyBase<geode::modifier::ModifyDerive<MICharacterColorPage, CharacterColorPage> >::setHookPriorityBefore(std::__ndk1::basic_string_view<char, std::__ndk1::char_traits<char> >, geode::Mod*)::{lambda(geode::ModStateEvent*)#1}, std::__ndk1::allocator<geode::modifier::ModifyBase<geode::modifier::ModifyDerive<MICharacterColorPage, CharacterColorPage> >::setHookPriorityBefore(std::__ndk1::basic_string_view<char, std::__ndk1::char_traits<char> >, geode::Mod*)::{lambda(geode::ModStateEvent*)#1}>, void (geode::ModStateEvent*)>::~__func()
PUBLIC 430b8 0 std::__ndk1::__function::__func<geode::modifier::ModifyBase<geode::modifier::ModifyDerive<MICharacterColorPage, CharacterColorPage> >::setHookPriorityBefore(std::__ndk1::basic_string_view<char, std::__ndk1::char_traits<char> >, geode::Mod*)::{lambda(geode::ModStateEvent*)#1}, std::__ndk1::allocator<geode::modifier::ModifyBase<geode::modifier::ModifyDerive<MICharacterColorPage, CharacterColorPage> >::setHookPriorityBefore(std::__ndk1::basic_string_view<char, std::__ndk1::char_traits<char> >, geode::Mod*)::{lambda(geode::ModStateEvent*)#1}>, void (geode::ModStateEvent*)>::__clone() const
PUBLIC 430f0 0 std::__ndk1::__function::__func<geode::modifier::ModifyBase<geode::modifier::ModifyDerive<MICharacterColorPage, CharacterColorPage> >::setHookPriorityBefore(std::__ndk1::basic_string_view<char, std::__ndk1::char_traits<char> >, geode::Mod*)::{lambda(geode::ModStateEvent*)#1}, std::__ndk1::allocator<geode::modifier::ModifyBase<geode::modifier::ModifyDerive<MICharacterColorPage, CharacterColorPage> >::setHookPriorityBefore(std::__ndk1::basic_string_view<char, std::__ndk1::char_traits<char> >, geode::Mod*)::{lambda(geode::ModStateEvent*)#1}>, void (geode::ModStateEvent*)>::__clone(std::__ndk1::__function::__base<void (geode::ModStateEvent*)>*) const
PUBLIC 43108 0 std::__ndk1::__function::__func<geode::modifier::ModifyBase<geode::modifier::ModifyDerive<MICharacterColorPage, CharacterColorPage> >::setHookPriorityBefore(std::__ndk1::basic_string_view<char, std::__ndk1::char_traits<char> >, geode::Mod*)::{lambda(geode::ModStateEvent*)#1}, std::__ndk1::allocator<geode::modifier::ModifyBase<geode::modifier::ModifyDerive<MICharacterColorPage, CharacterColorPage> >::setHookPriorityBefore(std::__ndk1::basic_string_view<char, std::__ndk1::char_traits<char> >, geode::Mod*)::{lambda(geode::ModStateEvent*)#1}>, void (geode::ModStateEvent*)>::destroy()
PUBLIC 4310c 0 std::__ndk1::__function::__func<geode::modifier::ModifyBase<geode::modifier::ModifyDerive<MICharacterColorPage, CharacterColorPage> >::setHookPriorityBefore(std::__ndk1::basic_string_view<char, std::__ndk1::char_traits<char> >, geode::Mod*)::{lambda(geode::ModStateEvent*)#1}, std::__ndk1::allocator<geode::modifier::ModifyBase<geode::modifier::ModifyDerive<MICharacterColorPage, CharacterColorPage> >::setHookPriorityBefore(std::__ndk1::basic_string_view<char, std::__ndk1::char_traits<char> >, geode::Mod*)::{lambda(geode::ModStateEvent*)#1}>, void (geode::ModStateEvent*)>::destroy_deallocate()
PUBLIC 43110 0 std::__ndk1::__function::__func<geode::modifier::ModifyBase<geode::modifier::ModifyDerive<MICharacterColorPage, CharacterColorPage> >::setHookPriorityBefore(std::__ndk1::basic_string_view<char, std::__ndk1::char_traits<char> >, geode::Mod*)::{lambda(geode::ModStateEvent*)#1}, std::__ndk1::allocator<geode::modifier::ModifyBase<geode::modifier::ModifyDerive<MICharacterColorPage, CharacterColorPage> >::setHookPriorityBefore(std::__ndk1::basic_string_view<char, std::__ndk1::char_traits<char> >, geode::Mod*)::{lambda(geode::ModStateEvent*)#1}>, void (geode::ModStateEvent*)>::operator()(geode::ModStateEvent*&&)
PUBLIC 43118 0 std::__ndk1::__function::__func<geode::modifier::ModifyBase<geode::modifier::ModifyDerive<MICharacterColorPage, CharacterColorPage> >::setHookPriorityBefore(std::__ndk1::basic_string_view<char, std::__ndk1::char_traits<char> >, geode::Mod*)::{lambda(geode::ModStateEvent*)#1}, std::__ndk1::allocator<geode::modifier::ModifyBase<geode::modifier::ModifyDerive<MICharacterColorPage, CharacterColorPage> >::setHookPriorityBefore(std::__ndk1::basic_string_view<char, std::__ndk1::char_traits<char> >, geode::Mod*)::{lambda(geode::ModStateEvent*)#1}>, void (geode::ModStateEvent*)>::target(std::type_info const&) const
PUBLIC 43134 0 std::__ndk1::__function::__func<geode::modifier::ModifyBase<geode::modifier::ModifyDerive<MICharacterColorPage, CharacterColorPage> >::setHookPriorityBefore(std::__ndk1::basic_string_view<char, std::__ndk1::char_traits<char> >, geode::Mod*)::{lambda(geode::ModStateEvent*)#1}, std::__ndk1::allocator<geode::modifier::ModifyBase<geode::modifier::ModifyDerive<MICharacterColorPage, CharacterColorPage> >::setHookPriorityBefore(std::__ndk1::basic_string_view<char, std::__ndk1::char_traits<char> >, geode::Mod*)::{lambda(geode::ModStateEvent*)#1}>, void (geode::ModStateEvent*)>::target_type() const
PUBLIC 43140 0 geode::EventListener<geode::ModStateFilter>::getPool() const
PUBLIC 43144 0 geode::EventListener<geode::ModStateFilter>::handle(geode::Event*)
PUBLIC 432b8 0 geode::EventListener<geode::ModStateFilter>::~EventListener()
PUBLIC 43314 0 geode::EventListener<geode::ModStateFilter>::~EventListener()
PUBLIC 43378 0 std::__ndk1::__variant_detail::__visitation::__base::__dispatcher<(unsigned long)0>::__dispatch[abi:ne190000]<std::__ndk1::__variant_detail::__dtor<std::__ndk1::__variant_detail::__traits<std::__ndk1::monostate, std::__ndk1::basic_string<char, std::__ndk1::char_traits<char>, std::__ndk1::allocator<char> > >, (std::__ndk1::__variant_detail::_Trait)1>::__destroy[abi:ne190000]()::{lambda(auto:1&)#1}, std::__ndk1::__variant_detail::__base<(std::__ndk1::__variant_detail::__traits<std::__ndk1::monostate, std::__ndk1::basic_string<char, std::__ndk1::char_traits<char>, std::__ndk1::allocator<char> > >)1, std::__ndk1::__variant_detail::__traits, std::__ndk1::allocator<char> >&>(std::__ndk1::__variant_detail::__dtor<std::__ndk1::__variant_detail::__traits<std::__ndk1::monostate, std::__ndk1::basic_string<char, std::__ndk1::char_traits<char>, std::__ndk1::allocator<char> > >, (std::__ndk1::__variant_detail::_Trait)1>, std::__ndk1::__variant_detail::__base<(std::__ndk1::__variant_detail::__traits<std::__ndk1::monostate, std::__ndk1::basic_string<char, std::__ndk1::char_traits<char>, std::__ndk1::allocator<char> > >)1, std::__ndk1::__variant_detail::__traits, std::__ndk1::allocator<char> >&)
PUBLIC 4337c 0 std::__ndk1::__variant_detail::__visitation::__base::__dispatcher<(unsigned long)1>::__dispatch[abi:ne190000]<std::__ndk1::__variant_detail::__dtor<std::__ndk1::__variant_detail::__traits<std::__ndk1::monostate, std::__ndk1::basic_string<char, std::__ndk1::char_traits<char>, std::__ndk1::allocator<char> > >, (std::__ndk1::__variant_detail::_Trait)1>::__destroy[abi:ne190000]()::{lambda(auto:1&)#1}, std::__ndk1::__variant_detail::__base<(std::__ndk1::__variant_detail::__traits<std::__ndk1::monostate, std::__ndk1::basic_string<char, std::__ndk1::char_traits<char>, std::__ndk1::allocator<char> > >)1, std::__ndk1::__variant_detail::__traits, std::__ndk1::allocator<char> >&>(std::__ndk1::__variant_detail::__dtor<std::__ndk1::__variant_detail::__traits<std::__ndk1::monostate, std::__ndk1::basic_string<char, std::__ndk1::char_traits<char>, std::__ndk1::allocator<char> > >, (std::__ndk1::__variant_detail::_Trait)1>, std::__ndk1::__variant_detail::__base<(std::__ndk1::__variant_detail::__traits<std::__ndk1::monostate, std::__ndk1::basic_string<char, std::__ndk1::char_traits<char>, std::__ndk1::allocator<char> > >)1, std::__ndk1::__variant_detail::__traits, std::__ndk1::allocator<char> >&)
PUBLIC 43390 0 geode::modifier::AsStaticFunction_init<MICharacterColorPage, bool (MICharacterColorPage::*)()>::Impl<bool (MICharacterColorPage::*)()>::function(MICharacterColorPage*)
PUBLIC 43490 0 geode::modifier::AsStaticFunction_toggleShip<MICharacterColorPage, void (MICharacterColorPage::*)(cocos2d::CCObject*)>::Impl<void (MICharacterColorPage::*)(cocos2d::CCObject*)>::function(MICharacterColorPage*, cocos2d::CCObject*)
PUBLIC 43568 0 geode::addresser::Addresser::addressOfVirtual<bool, CharacterColorPage, >(bool (CharacterColorPage::*)())
PUBLIC 43610 0 CharacterColorPage::CharacterColorPage(geode::ZeroConstructorType)
PUBLIC 43694 0 __cxx_global_var_init.24
PUBLIC 43b04 0 geode::modifier::ModifyBase<geode::modifier::ModifyDerive<MIGameManager, GameManager> >::~ModifyBase()
PUBLIC 43b20 0 geode::modifier::ModifyDerive<MIGameManager, GameManager>::apply()
PUBLIC 44444 0 geode::modifier::ModifyBase<geode::modifier::ModifyDerive<MIGameManager, GameManager> >::apply()
PUBLIC 44448 0 geode::modifier::AsStaticFunction_loadIcon<MIGameManager, cocos2d::CCTexture2D* (MIGameManager::*)(int, int, int)>::Impl<cocos2d::CCTexture2D* (MIGameManager::*)(int, int, int)>::function(MIGameManager*, int, int, int)
PUBLIC 44920 0 geode::modifier::AsStaticFunction_reloadAllStep2<MIGameManager, void (MIGameManager::*)()>::Impl<void (MIGameManager::*)()>::function(MIGameManager*)
PUBLIC 44d00 0 geode::modifier::AsStaticFunction_sheetNameForIcon<MIGameManager, gd::string (MIGameManager::*)(int, int)>::Impl<gd::string (MIGameManager::*)(int, int)>::function(MIGameManager*, int, int)
PUBLIC 44e50 0 geode::cocos::CCDictionaryExt<std::__ndk1::basic_string<char, std::__ndk1::char_traits<char>, std::__ndk1::allocator<char> >, cocos2d::CCDictionary*, cocos2d::CCDictionary>::~CCDictionaryExt()
PUBLIC 44e70 0 gd::map<int, int>::insert_pair(std::__ndk1::pair<int, int> const&)
PUBLIC 45010 0 std::__ndk1::__hash_table<std::__ndk1::__hash_value_type<std::__ndk1::basic_string<char, std::__ndk1::char_traits<char>, std::__ndk1::allocator<char> >, TexturePack>, std::__ndk1::__unordered_map_hasher<std::__ndk1::basic_string<char, std::__ndk1::char_traits<char>, std::__ndk1::allocator<char> >, std::__ndk1::__hash_value_type<std::__ndk1::basic_string<char, std::__ndk1::char_traits<char>, std::__ndk1::allocator<char> >, TexturePack>, std::__ndk1::hash<std::__ndk1::basic_string<char, std::__ndk1::char_traits<char>, std::__ndk1::allocator<char> > >, std::__ndk1::equal_to<std::__ndk1::basic_string<char, std::__ndk1::char_traits<char>, std::__ndk1::allocator<char> > >, true>, std::__ndk1::__unordered_map_equal<std::__ndk1::basic_string<char, std::__ndk1::char_traits<char>, std::__ndk1::allocator<char> >, std::__ndk1::__hash_value_type<std::__ndk1::basic_string<char, std::__ndk1::char_traits<char>, std::__ndk1::allocator<char> >, TexturePack>, std::__ndk1::equal_to<std::__ndk1::basic_string<char, std::__ndk1::char_traits<char>, std::__ndk1::allocator<char> > >, std::__ndk1::hash<std::__ndk1::basic_string<char, std::__ndk1::char_traits<char>, std::__ndk1::allocator<char> > >, true>, std::__ndk1::allocator<std::__ndk1::__hash_value_type<std::__ndk1::basic_string<char, std::__ndk1::char_traits<char>, std::__ndk1::allocator<char> >, TexturePack> > >::clear()
PUBLIC 450c8 0 __cxx_global_var_init.24
PUBLIC 45538 0 geode::modifier::ModifyBase<geode::modifier::ModifyDerive<MIBaseGameLayer, GJBaseGameLayer> >::~ModifyBase()
PUBLIC 45554 0 geode::modifier::ModifyDerive<MIBaseGameLayer, GJBaseGameLayer>::apply()
PUBLIC 458d4 0 geode::modifier::ModifyBase<geode::modifier::ModifyDerive<MIBaseGameLayer, GJBaseGameLayer> >::apply()
PUBLIC 458d8 0 geode::modifier::AsStaticFunction_playExitDualEffect<MIBaseGameLayer, void (MIBaseGameLayer::*)(PlayerObject*)>::Impl<void (MIBaseGameLayer::*)(PlayerObject*)>::function(MIBaseGameLayer*, PlayerObject*)
PUBLIC 45a74 0 geode::cocos::findFirstChildRecursive<SimplePlayer>(cocos2d::CCNode*, std::__ndk1::function<bool (SimplePlayer*)>)
PUBLIC 45c74 0 std::__ndk1::__function::__base<bool (SimplePlayer*)>::~__base()
PUBLIC 45c78 0 std::__ndk1::__function::__func<MIBaseGameLayer::playExitDualEffect(PlayerObject*)::{lambda(SimplePlayer*)#1}, std::__ndk1::allocator<MIBaseGameLayer::playExitDualEffect(PlayerObject*)::{lambda(SimplePlayer*)#1}>, bool (SimplePlayer*)>::~__func()
PUBLIC 45c7c 0 std::__ndk1::__function::__func<MIBaseGameLayer::playExitDualEffect(PlayerObject*)::{lambda(SimplePlayer*)#1}, std::__ndk1::allocator<MIBaseGameLayer::playExitDualEffect(PlayerObject*)::{lambda(SimplePlayer*)#1}>, bool (SimplePlayer*)>::__clone() const
PUBLIC 45ca0 0 std::__ndk1::__function::__func<MIBaseGameLayer::playExitDualEffect(PlayerObject*)::{lambda(SimplePlayer*)#1}, std::__ndk1::allocator<MIBaseGameLayer::playExitDualEffect(PlayerObject*)::{lambda(SimplePlayer*)#1}>, bool (SimplePlayer*)>::__clone(std::__ndk1::__function::__base<bool (SimplePlayer*)>*) const
PUBLIC 45cb0 0 std::__ndk1::__function::__func<MIBaseGameLayer::playExitDualEffect(PlayerObject*)::{lambda(SimplePlayer*)#1}, std::__ndk1::allocator<MIBaseGameLayer::playExitDualEffect(PlayerObject*)::{lambda(SimplePlayer*)#1}>, bool (SimplePlayer*)>::destroy()
PUBLIC 45cb4 0 std::__ndk1::__function::__func<MIBaseGameLayer::playExitDualEffect(PlayerObject*)::{lambda(SimplePlayer*)#1}, std::__ndk1::allocator<MIBaseGameLayer::playExitDualEffect(PlayerObject*)::{lambda(SimplePlayer*)#1}>, bool (SimplePlayer*)>::destroy_deallocate()
PUBLIC 45cb8 0 std::__ndk1::__function::__func<MIBaseGameLayer::playExitDualEffect(PlayerObject*)::{lambda(SimplePlayer*)#1}, std::__ndk1::allocator<MIBaseGameLayer::playExitDualEffect(PlayerObject*)::{lambda(SimplePlayer*)#1}>, bool (SimplePlayer*)>::operator()(SimplePlayer*&&)
PUBLIC 45ce0 0 std::__ndk1::__function::__func<MIBaseGameLayer::playExitDualEffect(PlayerObject*)::{lambda(SimplePlayer*)#1}, std::__ndk1::allocator<MIBaseGameLayer::playExitDualEffect(PlayerObject*)::{lambda(SimplePlayer*)#1}>, bool (SimplePlayer*)>::target(std::type_info const&) const
PUBLIC 45cfc 0 std::__ndk1::__function::__func<MIBaseGameLayer::playExitDualEffect(PlayerObject*)::{lambda(SimplePlayer*)#1}, std::__ndk1::allocator<MIBaseGameLayer::playExitDualEffect(PlayerObject*)::{lambda(SimplePlayer*)#1}>, bool (SimplePlayer*)>::target_type() const
PUBLIC 45d08 0 __cxx_global_var_init.24
PUBLIC 46740 0 geode::modifier::ModifyBase<geode::modifier::ModifyDerive<MIGarageLayer, GJGarageLayer> >::~ModifyBase()
PUBLIC 4675c 0 TrailInfo::~TrailInfo()
PUBLIC 467c0 0 geode::modifier::ModifyDerive<MIGarageLayer, GJGarageLayer>::apply()
PUBLIC 478d4 0 geode::modifier::ModifyBase<geode::modifier::ModifyDerive<MIGarageLayer, GJGarageLayer> >::apply()
PUBLIC 478d8 0 geode::modifier::ModifyBase<geode::modifier::ModifyDerive<MIGarageLayer, GJGarageLayer> >::getHook(std::__ndk1::basic_string_view<char, std::__ndk1::char_traits<char> >)
PUBLIC 47a9c 0 geode::modifier::ModifyBase<geode::modifier::ModifyDerive<MIGarageLayer, GJGarageLayer> >::setHookPriorityBefore(std::__ndk1::basic_string_view<char, std::__ndk1::char_traits<char> >, geode::Mod*)::{lambda(geode::ModStateEvent*)#1}::operator()(geode::ModStateEvent*) const
PUBLIC 47bac 0 std::__ndk1::basic_string<char, std::__ndk1::char_traits<char>, std::__ndk1::allocator<char> >::__throw_out_of_range[abi:ne190000]() const
PUBLIC 47bc0 0 std::__ndk1::__throw_out_of_range[abi:ne190000](char const*)
PUBLIC 47c10 0 std::out_of_range::out_of_range[abi:ne190000](char const*)
PUBLIC 47c40 0 std::__ndk1::__function::__func<geode::modifier::ModifyBase<geode::modifier::ModifyDerive<MIGarageLayer, GJGarageLayer> >::setHookPriorityBefore(std::__ndk1::basic_string_view<char, std::__ndk1::char_traits<char> >, geode::Mod*)::{lambda(geode::ModStateEvent*)#1}, std::__ndk1::allocator<geode::modifier::ModifyBase<geode::modifier::ModifyDerive<MIGarageLayer, GJGarageLayer> >::setHookPriorityBefore(std::__ndk1::basic_string_view<char, std::__ndk1::char_traits<char> >, geode::Mod*)::{lambda(geode::ModStateEvent*)#1}>, void (geode::ModStateEvent*)>::~__func()
PUBLIC 47c44 0 std::__ndk1::__function::__func<geode::modifier::ModifyBase<geode::modifier::ModifyDerive<MIGarageLayer, GJGarageLayer> >::setHookPriorityBefore(std::__ndk1::basic_string_view<char, std::__ndk1::char_traits<char> >, geode::Mod*)::{lambda(geode::ModStateEvent*)#1}, std::__ndk1::allocator<geode::modifier::ModifyBase<geode::modifier::ModifyDerive<MIGarageLayer, GJGarageLayer> >::setHookPriorityBefore(std::__ndk1::basic_string_view<char, std::__ndk1::char_traits<char> >, geode::Mod*)::{lambda(geode::ModStateEvent*)#1}>, void (geode::ModStateEvent*)>::__clone() const
PUBLIC 47c7c 0 std::__ndk1::__function::__func<geode::modifier::ModifyBase<geode::modifier::ModifyDerive<MIGarageLayer, GJGarageLayer> >::setHookPriorityBefore(std::__ndk1::basic_string_view<char, std::__ndk1::char_traits<char> >, geode::Mod*)::{lambda(geode::ModStateEvent*)#1}, std::__ndk1::allocator<geode::modifier::ModifyBase<geode::modifier::ModifyDerive<MIGarageLayer, GJGarageLayer> >::setHookPriorityBefore(std::__ndk1::basic_string_view<char, std::__ndk1::char_traits<char> >, geode::Mod*)::{lambda(geode::ModStateEvent*)#1}>, void (geode::ModStateEvent*)>::__clone(std::__ndk1::__function::__base<void (geode::ModStateEvent*)>*) const
PUBLIC 47c94 0 std::__ndk1::__function::__func<geode::modifier::ModifyBase<geode::modifier::ModifyDerive<MIGarageLayer, GJGarageLayer> >::setHookPriorityBefore(std::__ndk1::basic_string_view<char, std::__ndk1::char_traits<char> >, geode::Mod*)::{lambda(geode::ModStateEvent*)#1}, std::__ndk1::allocator<geode::modifier::ModifyBase<geode::modifier::ModifyDerive<MIGarageLayer, GJGarageLayer> >::setHookPriorityBefore(std::__ndk1::basic_string_view<char, std::__ndk1::char_traits<char> >, geode::Mod*)::{lambda(geode::ModStateEvent*)#1}>, void (geode::ModStateEvent*)>::destroy()
PUBLIC 47c98 0 std::__ndk1::__function::__func<geode::modifier::ModifyBase<geode::modifier::ModifyDerive<MIGarageLayer, GJGarageLayer> >::setHookPriorityBefore(std::__ndk1::basic_string_view<char, std::__ndk1::char_traits<char> >, geode::Mod*)::{lambda(geode::ModStateEvent*)#1}, std::__ndk1::allocator<geode::modifier::ModifyBase<geode::modifier::ModifyDerive<MIGarageLayer, GJGarageLayer> >::setHookPriorityBefore(std::__ndk1::basic_string_view<char, std::__ndk1::char_traits<char> >, geode::Mod*)::{lambda(geode::ModStateEvent*)#1}>, void (geode::ModStateEvent*)>::destroy_deallocate()
PUBLIC 47c9c 0 std::__ndk1::__function::__func<geode::modifier::ModifyBase<geode::modifier::ModifyDerive<MIGarageLayer, GJGarageLayer> >::setHookPriorityBefore(std::__ndk1::basic_string_view<char, std::__ndk1::char_traits<char> >, geode::Mod*)::{lambda(geode::ModStateEvent*)#1}, std::__ndk1::allocator<geode::modifier::ModifyBase<geode::modifier::ModifyDerive<MIGarageLayer, GJGarageLayer> >::setHookPriorityBefore(std::__ndk1::basic_string_view<char, std::__ndk1::char_traits<char> >, geode::Mod*)::{lambda(geode::ModStateEvent*)#1}>, void (geode::ModStateEvent*)>::operator()(geode::ModStateEvent*&&)
PUBLIC 47ca4 0 std::__ndk1::__function::__func<geode::modifier::ModifyBase<geode::modifier::ModifyDerive<MIGarageLayer, GJGarageLayer> >::setHookPriorityBefore(std::__ndk1::basic_string_view<char, std::__ndk1::char_traits<char> >, geode::Mod*)::{lambda(geode::ModStateEvent*)#1}, std::__ndk1::allocator<geode::modifier::ModifyBase<geode::modifier::ModifyDerive<MIGarageLayer, GJGarageLayer> >::setHookPriorityBefore(std::__ndk1::basic_string_view<char, std::__ndk1::char_traits<char> >, geode::Mod*)::{lambda(geode::ModStateEvent*)#1}>, void (geode::ModStateEvent*)>::target(std::type_info const&) const
PUBLIC 47cc0 0 std::__ndk1::__function::__func<geode::modifier::ModifyBase<geode::modifier::ModifyDerive<MIGarageLayer, GJGarageLayer> >::setHookPriorityBefore(std::__ndk1::basic_string_view<char, std::__ndk1::char_traits<char> >, geode::Mod*)::{lambda(geode::ModStateEvent*)#1}, std::__ndk1::allocator<geode::modifier::ModifyBase<geode::modifier::ModifyDerive<MIGarageLayer, GJGarageLayer> >::setHookPriorityBefore(std::__ndk1::basic_string_view<char, std::__ndk1::char_traits<char> >, geode::Mod*)::{lambda(geode::ModStateEvent*)#1}>, void (geode::ModStateEvent*)>::target_type() const
PUBLIC 47ccc 0 geode::modifier::ModifyBase<geode::modifier::ModifyDerive<MIGarageLayer, GJGarageLayer> >::setHookPriorityAfter(std::__ndk1::basic_string_view<char, std::__ndk1::char_traits<char> >, geode::Mod*)::{lambda(geode::ModStateEvent*)#1}::operator()(geode::ModStateEvent*) const
PUBLIC 47ddc 0 std::__ndk1::__function::__func<geode::modifier::ModifyBase<geode::modifier::ModifyDerive<MIGarageLayer, GJGarageLayer> >::setHookPriorityAfter(std::__ndk1::basic_string_view<char, std::__ndk1::char_traits<char> >, geode::Mod*)::{lambda(geode::ModStateEvent*)#1}, std::__ndk1::allocator<geode::modifier::ModifyBase<geode::modifier::ModifyDerive<MIGarageLayer, GJGarageLayer> >::setHookPriorityAfter(std::__ndk1::basic_string_view<char, std::__ndk1::char_traits<char> >, geode::Mod*)::{lambda(geode::ModStateEvent*)#1}>, void (geode::ModStateEvent*)>::~__func()
PUBLIC 47de0 0 std::__ndk1::__function::__func<geode::modifier::ModifyBase<geode::modifier::ModifyDerive<MIGarageLayer, GJGarageLayer> >::setHookPriorityAfter(std::__ndk1::basic_string_view<char, std::__ndk1::char_traits<char> >, geode::Mod*)::{lambda(geode::ModStateEvent*)#1}, std::__ndk1::allocator<geode::modifier::ModifyBase<geode::modifier::ModifyDerive<MIGarageLayer, GJGarageLayer> >::setHookPriorityAfter(std::__ndk1::basic_string_view<char, std::__ndk1::char_traits<char> >, geode::Mod*)::{lambda(geode::ModStateEvent*)#1}>, void (geode::ModStateEvent*)>::__clone() const
PUBLIC 47e18 0 std::__ndk1::__function::__func<geode::modifier::ModifyBase<geode::modifier::ModifyDerive<MIGarageLayer, GJGarageLayer> >::setHookPriorityAfter(std::__ndk1::basic_string_view<char, std::__ndk1::char_traits<char> >, geode::Mod*)::{lambda(geode::ModStateEvent*)#1}, std::__ndk1::allocator<geode::modifier::ModifyBase<geode::modifier::ModifyDerive<MIGarageLayer, GJGarageLayer> >::setHookPriorityAfter(std::__ndk1::basic_string_view<char, std::__ndk1::char_traits<char> >, geode::Mod*)::{lambda(geode::ModStateEvent*)#1}>, void (geode::ModStateEvent*)>::__clone(std::__ndk1::__function::__base<void (geode::ModStateEvent*)>*) const
PUBLIC 47e30 0 std::__ndk1::__function::__func<geode::modifier::ModifyBase<geode::modifier::ModifyDerive<MIGarageLayer, GJGarageLayer> >::setHookPriorityAfter(std::__ndk1::basic_string_view<char, std::__ndk1::char_traits<char> >, geode::Mod*)::{lambda(geode::ModStateEvent*)#1}, std::__ndk1::allocator<geode::modifier::ModifyBase<geode::modifier::ModifyDerive<MIGarageLayer, GJGarageLayer> >::setHookPriorityAfter(std::__ndk1::basic_string_view<char, std::__ndk1::char_traits<char> >, geode::Mod*)::{lambda(geode::ModStateEvent*)#1}>, void (geode::ModStateEvent*)>::destroy()
PUBLIC 47e34 0 std::__ndk1::__function::__func<geode::modifier::ModifyBase<geode::modifier::ModifyDerive<MIGarageLayer, GJGarageLayer> >::setHookPriorityAfter(std::__ndk1::basic_string_view<char, std::__ndk1::char_traits<char> >, geode::Mod*)::{lambda(geode::ModStateEvent*)#1}, std::__ndk1::allocator<geode::modifier::ModifyBase<geode::modifier::ModifyDerive<MIGarageLayer, GJGarageLayer> >::setHookPriorityAfter(std::__ndk1::basic_string_view<char, std::__ndk1::char_traits<char> >, geode::Mod*)::{lambda(geode::ModStateEvent*)#1}>, void (geode::ModStateEvent*)>::destroy_deallocate()
PUBLIC 47e38 0 std::__ndk1::__function::__func<geode::modifier::ModifyBase<geode::modifier::ModifyDerive<MIGarageLayer, GJGarageLayer> >::setHookPriorityAfter(std::__ndk1::basic_string_view<char, std::__ndk1::char_traits<char> >, geode::Mod*)::{lambda(geode::ModStateEvent*)#1}, std::__ndk1::allocator<geode::modifier::ModifyBase<geode::modifier::ModifyDerive<MIGarageLayer, GJGarageLayer> >::setHookPriorityAfter(std::__ndk1::basic_string_view<char, std::__ndk1::char_traits<char> >, geode::Mod*)::{lambda(geode::ModStateEvent*)#1}>, void (geode::ModStateEvent*)>::operator()(geode::ModStateEvent*&&)
PUBLIC 47e40 0 std::__ndk1::__function::__func<geode::modifier::ModifyBase<geode::modifier::ModifyDerive<MIGarageLayer, GJGarageLayer> >::setHookPriorityAfter(std::__ndk1::basic_string_view<char, std::__ndk1::char_traits<char> >, geode::Mod*)::{lambda(geode::ModStateEvent*)#1}, std::__ndk1::allocator<geode::modifier::ModifyBase<geode::modifier::ModifyDerive<MIGarageLayer, GJGarageLayer> >::setHookPriorityAfter(std::__ndk1::basic_string_view<char, std::__ndk1::char_traits<char> >, geode::Mod*)::{lambda(geode::ModStateEvent*)#1}>, void (geode::ModStateEvent*)>::target(std::type_info const&) const
PUBLIC 47e5c 0 std::__ndk1::__function::__func<geode::modifier::ModifyBase<geode::modifier::ModifyDerive<MIGarageLayer, GJGarageLayer> >::setHookPriorityAfter(std::__ndk1::basic_string_view<char, std::__ndk1::char_traits<char> >, geode::Mod*)::{lambda(geode::ModStateEvent*)#1}, std::__ndk1::allocator<geode::modifier::ModifyBase<geode::modifier::ModifyDerive<MIGarageLayer, GJGarageLayer> >::setHookPriorityAfter(std::__ndk1::basic_string_view<char, std::__ndk1::char_traits<char> >, geode::Mod*)::{lambda(geode::ModStateEvent*)#1}>, void (geode::ModStateEvent*)>::target_type() const
PUBLIC 47e68 0 geode::modifier::AsStaticFunction_init<MIGarageLayer, bool (MIGarageLayer::*)()>::Impl<bool (MIGarageLayer::*)()>::function(MIGarageLayer*)
PUBLIC 48434 0 geode::Hook::create<void (*)(MIGarageLayer*, cocos2d::CCObject*)>(void*, void (*)(MIGarageLayer*, cocos2d::CCObject*), std::__ndk1::basic_string<char, std::__ndk1::char_traits<char>, std::__ndk1::allocator<char> > const&, tulip::hook::TulipConvention, tulip::hook::HookMetadata const&)
PUBLIC 485b8 0 geode::modifier::AsStaticFunction_onArrow<MIGarageLayer, void (MIGarageLayer::*)(cocos2d::CCObject*)>::Impl<void (MIGarageLayer::*)(cocos2d::CCObject*)>::function(MIGarageLayer*, cocos2d::CCObject*)
PUBLIC 48f5c 0 geode::modifier::AsStaticFunction_onNavigate<MIGarageLayer, void (MIGarageLayer::*)(cocos2d::CCObject*)>::Impl<void (MIGarageLayer::*)(cocos2d::CCObject*)>::function(MIGarageLayer*, cocos2d::CCObject*)
PUBLIC 49054 0 geode::modifier::AsStaticFunction_onSelect<MIGarageLayer, void (MIGarageLayer::*)(cocos2d::CCObject*)>::Impl<void (MIGarageLayer::*)(cocos2d::CCObject*)>::function(MIGarageLayer*, cocos2d::CCObject*)
PUBLIC 4ae50 0 geode::modifier::AsStaticFunction_selectTab<MIGarageLayer, void (MIGarageLayer::*)(IconType)>::Impl<void (MIGarageLayer::*)(IconType)>::function(MIGarageLayer*, IconType)
PUBLIC 4b028 0 geode::modifier::AsStaticFunction_setupPage<MIGarageLayer, void (MIGarageLayer::*)(int, IconType)>::Impl<void (MIGarageLayer::*)(int, IconType)>::function(MIGarageLayer*, int, IconType)
PUBLIC 4b06c 0 geode::modifier::AsStaticFunction_updatePlayerColors<MIGarageLayer, void (MIGarageLayer::*)()>::Impl<void (MIGarageLayer::*)()>::function(MIGarageLayer*)
PUBLIC 4b0d4 0 geode::addresser::Addresser::addressOfVirtual<bool, GJGarageLayer, >(bool (GJGarageLayer::*)())
PUBLIC 4b17c 0 GJGarageLayer::GJGarageLayer(geode::ZeroConstructorType)
PUBLIC 4b230 0 gd::map<IconType, int>::insert_pair(std::__ndk1::pair<IconType, int> const&)
PUBLIC 4b3d0 0 std::__ndk1::__tree<std::__ndk1::__value_type<IconType, int>, std::__ndk1::__map_value_compare<IconType, std::__ndk1::__value_type<IconType, int>, std::__ndk1::less<IconType>, true>, std::__ndk1::allocator<std::__ndk1::__value_type<IconType, int> > >::destroy(std::__ndk1::__tree_node<std::__ndk1::__value_type<IconType, int>, void*>*)
PUBLIC 4b40c 0 geode::modifier::FieldIntermediate<MIGarageLayer, GJGarageLayer>::self()
PUBLIC 4b5a8 0 geode::Mod::getSavedValue<int>(std::__ndk1::basic_string_view<char, std::__ndk1::char_traits<char> >, int const&)
PUBLIC 4b784 0 MIGarageLayer::setupCustomPage(int)
PUBLIC 4c8d0 0 MIGarageLayer::findIconPage(IconType)
PUBLIC 4cac8 0 MIGarageLayer::createNavMenu()
PUBLIC 4d394 0 MIGarageLayer::newOn2PToggle(cocos2d::CCObject*)
PUBLIC 4d544 0 MIGarageLayer::newSwap2PKit(cocos2d::CCObject*)
PUBLIC 4d84c 0 MIGarageLayer::onMoreIcons(cocos2d::CCObject*)
PUBLIC 4d884 0 geode::modifier::FieldContainer::getField(unsigned long)
PUBLIC 4dab4 0 geode::modifier::FieldContainer::setField(unsigned long, unsigned long, std::__ndk1::function<void (void*)>)
PUBLIC 4dbc8 0 geode::modifier::FieldIntermediate<MIGarageLayer, GJGarageLayer>::fieldDestructor(void*)
PUBLIC 4dbd0 0 std::__ndk1::vector<void*, std::__ndk1::allocator<void*> >::__throw_length_error[abi:ne190000]() const
PUBLIC 4dbe4 0 std::__ndk1::vector<std::__ndk1::function<void (void*)>, std::__ndk1::allocator<std::__ndk1::function<void (void*)> > >::__push_back_slow_path<std::__ndk1::function<void (void*)> >(std::__ndk1::function<void (void*)>&&)
PUBLIC 4de04 0 std::__ndk1::vector<std::__ndk1::function<void (void*)>, std::__ndk1::allocator<std::__ndk1::function<void (void*)> > >::__throw_length_error[abi:ne190000]() const
PUBLIC 4de18 0 std::__ndk1::vector<void*, std::__ndk1::allocator<void*> >::__throw_out_of_range[abi:ne190000]() const
PUBLIC 4de2c 0 std::__ndk1::vector<std::__ndk1::function<void (void*)>, std::__ndk1::allocator<std::__ndk1::function<void (void*)> > >::__throw_out_of_range[abi:ne190000]() const
PUBLIC 4de40 0 std::__ndk1::__function::__base<void (void*)>::~__base()
PUBLIC 4de44 0 std::__ndk1::__function::__func<void (*)(void*), std::__ndk1::allocator<void (*)(void*)>, void (void*)>::~__func()
PUBLIC 4de48 0 std::__ndk1::__function::__func<void (*)(void*), std::__ndk1::allocator<void (*)(void*)>, void (void*)>::__clone() const
PUBLIC 4de80 0 std::__ndk1::__function::__func<void (*)(void*), std::__ndk1::allocator<void (*)(void*)>, void (void*)>::__clone(std::__ndk1::__function::__base<void (void*)>*) const
PUBLIC 4de98 0 std::__ndk1::__function::__func<void (*)(void*), std::__ndk1::allocator<void (*)(void*)>, void (void*)>::destroy()
PUBLIC 4de9c 0 std::__ndk1::__function::__func<void (*)(void*), std::__ndk1::allocator<void (*)(void*)>, void (void*)>::destroy_deallocate()
PUBLIC 4dea0 0 std::__ndk1::__function::__func<void (*)(void*), std::__ndk1::allocator<void (*)(void*)>, void (void*)>::operator()(void*&&)
PUBLIC 4deb0 0 std::__ndk1::__function::__func<void (*)(void*), std::__ndk1::allocator<void (*)(void*)>, void (void*)>::target(std::type_info const&) const
PUBLIC 4decc 0 std::__ndk1::__function::__func<void (*)(void*), std::__ndk1::allocator<void (*)(void*)>, void (void*)>::target_type() const
PUBLIC 4ded8 0 matjson::Value::as<int>() const
PUBLIC 4dfe0 0 std::__ndk1::__variant_detail::__visitation::__base::__dispatcher<(unsigned long)0>::__dispatch[abi:ne190000]<std::__ndk1::__variant_detail::__dtor<std::__ndk1::__variant_detail::__traits<long, std::__ndk1::basic_string<char, std::__ndk1::char_traits<char>, std::__ndk1::allocator<char> > >, (std::__ndk1::__variant_detail::_Trait)1>::__destroy[abi:ne190000]()::{lambda(auto:1&)#1}, std::__ndk1::__variant_detail::__base<(std::__ndk1::__variant_detail::__traits<long, std::__ndk1::basic_string<char, std::__ndk1::char_traits<char>, std::__ndk1::allocator<char> > >)1, long, std::__ndk1::allocator<char> >&>(std::__ndk1::__variant_detail::__dtor<std::__ndk1::__variant_detail::__traits<long, std::__ndk1::basic_string<char, std::__ndk1::char_traits<char>, std::__ndk1::allocator<char> > >, (std::__ndk1::__variant_detail::_Trait)1>, std::__ndk1::__variant_detail::__base<(std::__ndk1::__variant_detail::__traits<long, std::__ndk1::basic_string<char, std::__ndk1::char_traits<char>, std::__ndk1::allocator<char> > >)1, long, std::__ndk1::allocator<char> >&)
PUBLIC 4dfe4 0 std::__ndk1::__variant_detail::__visitation::__base::__dispatcher<(unsigned long)1>::__dispatch[abi:ne190000]<std::__ndk1::__variant_detail::__dtor<std::__ndk1::__variant_detail::__traits<long, std::__ndk1::basic_string<char, std::__ndk1::char_traits<char>, std::__ndk1::allocator<char> > >, (std::__ndk1::__variant_detail::_Trait)1>::__destroy[abi:ne190000]()::{lambda(auto:1&)#1}, std::__ndk1::__variant_detail::__base<(std::__ndk1::__variant_detail::__traits<long, std::__ndk1::basic_string<char, std::__ndk1::char_traits<char>, std::__ndk1::allocator<char> > >)1, long, std::__ndk1::allocator<char> >&>(std::__ndk1::__variant_detail::__dtor<std::__ndk1::__variant_detail::__traits<long, std::__ndk1::basic_string<char, std::__ndk1::char_traits<char>, std::__ndk1::allocator<char> > >, (std::__ndk1::__variant_detail::_Trait)1>, std::__ndk1::__variant_detail::__base<(std::__ndk1::__variant_detail::__traits<long, std::__ndk1::basic_string<char, std::__ndk1::char_traits<char>, std::__ndk1::allocator<char> > >)1, long, std::__ndk1::allocator<char> >&)
PUBLIC 4dff8 0 std::__ndk1::__variant_detail::__visitation::__base::__dispatcher<(unsigned long)0>::__dispatch[abi:ne190000]<std::__ndk1::__variant_detail::__dtor<std::__ndk1::__variant_detail::__traits<int, std::__ndk1::basic_string<char, std::__ndk1::char_traits<char>, std::__ndk1::allocator<char> > >, (std::__ndk1::__variant_detail::_Trait)1>::__destroy[abi:ne190000]()::{lambda(auto:1&)#1}, std::__ndk1::__variant_detail::__base<(std::__ndk1::__variant_detail::__traits<int, std::__ndk1::basic_string<char, std::__ndk1::char_traits<char>, std::__ndk1::allocator<char> > >)1, int, std::__ndk1::allocator<char> >&>(std::__ndk1::__variant_detail::__dtor<std::__ndk1::__variant_detail::__traits<int, std::__ndk1::basic_string<char, std::__ndk1::char_traits<char>, std::__ndk1::allocator<char> > >, (std::__ndk1::__variant_detail::_Trait)1>, std::__ndk1::__variant_detail::__base<(std::__ndk1::__variant_detail::__traits<int, std::__ndk1::basic_string<char, std::__ndk1::char_traits<char>, std::__ndk1::allocator<char> > >)1, int, std::__ndk1::allocator<char> >&)
PUBLIC 4dffc 0 std::__ndk1::__variant_detail::__visitation::__base::__dispatcher<(unsigned long)1>::__dispatch[abi:ne190000]<std::__ndk1::__variant_detail::__dtor<std::__ndk1::__variant_detail::__traits<int, std::__ndk1::basic_string<char, std::__ndk1::char_traits<char>, std::__ndk1::allocator<char> > >, (std::__ndk1::__variant_detail::_Trait)1>::__destroy[abi:ne190000]()::{lambda(auto:1&)#1}, std::__ndk1::__variant_detail::__base<(std::__ndk1::__variant_detail::__traits<int, std::__ndk1::basic_string<char, std::__ndk1::char_traits<char>, std::__ndk1::allocator<char> > >)1, int, std::__ndk1::allocator<char> >&>(std::__ndk1::__variant_detail::__dtor<std::__ndk1::__variant_detail::__traits<int, std::__ndk1::basic_string<char, std::__ndk1::char_traits<char>, std::__ndk1::allocator<char> > >, (std::__ndk1::__variant_detail::_Trait)1>, std::__ndk1::__variant_detail::__base<(std::__ndk1::__variant_detail::__traits<int, std::__ndk1::basic_string<char, std::__ndk1::char_traits<char>, std::__ndk1::allocator<char> > >)1, int, std::__ndk1::allocator<char> >&)
PUBLIC 4e010 0 geode::cocos::CCArrayExt<CCMenuItemSpriteExtra*, CCMenuItemSpriteExtra>::~CCArrayExt()
PUBLIC 4e02c 0 MIGarageLayer::getPage()
PUBLIC 4e2ec 0 std::__ndk1::__hash_table<std::__ndk1::__hash_value_type<std::__ndk1::basic_string<char, std::__ndk1::char_traits<char>, std::__ndk1::allocator<char> >, TrailInfo>, std::__ndk1::__unordered_map_hasher<std::__ndk1::basic_string<char, std::__ndk1::char_traits<char>, std::__ndk1::allocator<char> >, std::__ndk1::__hash_value_type<std::__ndk1::basic_string<char, std::__ndk1::char_traits<char>, std::__ndk1::allocator<char> >, TrailInfo>, std::__ndk1::hash<std::__ndk1::basic_string<char, std::__ndk1::char_traits<char>, std::__ndk1::allocator<char> > >, std::__ndk1::equal_to<std::__ndk1::basic_string<char, std::__ndk1::char_traits<char>, std::__ndk1::allocator<char> > >, true>, std::__ndk1::__unordered_map_equal<std::__ndk1::basic_string<char, std::__ndk1::char_traits<char>, std::__ndk1::allocator<char> >, std::__ndk1::__hash_value_type<std::__ndk1::basic_string<char, std::__ndk1::char_traits<char>, std::__ndk1::allocator<char> >, TrailInfo>, std::__ndk1::equal_to<std::__ndk1::basic_string<char, std::__ndk1::char_traits<char>, std::__ndk1::allocator<char> > >, std::__ndk1::hash<std::__ndk1::basic_string<char, std::__ndk1::char_traits<char>, std::__ndk1::allocator<char> > >, true>, std::__ndk1::allocator<std::__ndk1::__hash_value_type<std::__ndk1::basic_string<char, std::__ndk1::char_traits<char>, std::__ndk1::allocator<char> >, TrailInfo> > >::__emplace_unique_key_args<std::__ndk1::basic_string<char, std::__ndk1::char_traits<char>, std::__ndk1::allocator<char> >, std::__ndk1::piecewise_construct_t const&, std::__ndk1::tuple<std::__ndk1::basic_string<char, std::__ndk1::char_traits<char>, std::__ndk1::allocator<char> > const&>, std::__ndk1::tuple<> >(std::__ndk1::basic_string<char, std::__ndk1::char_traits<char>, std::__ndk1::allocator<char> > const&, std::__ndk1::piecewise_construct_t const&, std::__ndk1::tuple<std::__ndk1::basic_string<char, std::__ndk1::char_traits<char>, std::__ndk1::allocator<char> > const&>, std::__ndk1::tuple<>)
PUBLIC 4e7e0 0 std::__ndk1::__murmur2_or_cityhash<unsigned long, (unsigned long)64>::operator()[abi:ne190000](void const*, unsigned long) const
PUBLIC 4ec2c 0 std::__ndk1::__hash_table<std::__ndk1::__hash_value_type<std::__ndk1::basic_string<char, std::__ndk1::char_traits<char>, std::__ndk1::allocator<char> >, TrailInfo>, std::__ndk1::__unordered_map_hasher<std::__ndk1::basic_string<char, std::__ndk1::char_traits<char>, std::__ndk1::allocator<char> >, std::__ndk1::__hash_value_type<std::__ndk1::basic_string<char, std::__ndk1::char_traits<char>, std::__ndk1::allocator<char> >, TrailInfo>, std::__ndk1::hash<std::__ndk1::basic_string<char, std::__ndk1::char_traits<char>, std::__ndk1::allocator<char> > >, std::__ndk1::equal_to<std::__ndk1::basic_string<char, std::__ndk1::char_traits<char>, std::__ndk1::allocator<char> > >, true>, std::__ndk1::__unordered_map_equal<std::__ndk1::basic_string<char, std::__ndk1::char_traits<char>, std::__ndk1::allocator<char> >, std::__ndk1::__hash_value_type<std::__ndk1::basic_string<char, std::__ndk1::char_traits<char>, std::__ndk1::allocator<char> >, TrailInfo>, std::__ndk1::equal_to<std::__ndk1::basic_string<char, std::__ndk1::char_traits<char>, std::__ndk1::allocator<char> > >, std::__ndk1::hash<std::__ndk1::basic_string<char, std::__ndk1::char_traits<char>, std::__ndk1::allocator<char> > >, true>, std::__ndk1::allocator<std::__ndk1::__hash_value_type<std::__ndk1::basic_string<char, std::__ndk1::char_traits<char>, std::__ndk1::allocator<char> >, TrailInfo> > >::__do_rehash<true>(unsigned long)
PUBLIC 4edd8 0 std::__ndk1::__hash_node_destructor<std::__ndk1::allocator<std::__ndk1::__hash_node<std::__ndk1::__hash_value_type<std::__ndk1::basic_string<char, std::__ndk1::char_traits<char>, std::__ndk1::allocator<char> >, TrailInfo>, void*> > >::operator()[abi:ne190000](std::__ndk1::__hash_node<std::__ndk1::__hash_value_type<std::__ndk1::basic_string<char, std::__ndk1::char_traits<char>, std::__ndk1::allocator<char> >, TrailInfo>, void*>*)
PUBLIC 4ee78 0 std::__ndk1::__exception_guard_exceptions<std::__ndk1::vector<std::__ndk1::basic_string<char, std::__ndk1::char_traits<char>, std::__ndk1::allocator<char> >, std::__ndk1::allocator<std::__ndk1::basic_string<char, std::__ndk1::char_traits<char>, std::__ndk1::allocator<char> > > >::__destroy_vector>::~__exception_guard_exceptions[abi:ne190000]()
PUBLIC 4ef04 0 std::__ndk1::__exception_guard_exceptions<std::__ndk1::_AllocatorDestroyRangeReverse<std::__ndk1::allocator<std::__ndk1::basic_string<char, std::__ndk1::char_traits<char>, std::__ndk1::allocator<char> > >, std::__ndk1::basic_string<char, std::__ndk1::char_traits<char>, std::__ndk1::allocator<char> >*> >::~__exception_guard_exceptions[abi:ne190000]()
PUBLIC 4ef64 0 MIGarageLayer::onCustomNavigate(cocos2d::CCObject*)
PUBLIC 4ef98 0 MIGarageLayer::swapDual(IconType)
PUBLIC 4f0b8 0 TrailInfo::TrailInfo(TrailInfo const&)
PUBLIC 4f1c4 0 geode::cocos::CCMenuItemExt::createTogglerWithStandardSprites(float, std::__ndk1::function<void (CCMenuItemToggler*)>)
PUBLIC 4f694 0 geode::cocos::CCMenuItemExt::LambdaCallback<CCMenuItemToggler>::execute(cocos2d::CCNode*)
PUBLIC 4f704 0 geode::cocos::CCMenuItemExt::LambdaCallback<CCMenuItemToggler>::~LambdaCallback()
PUBLIC 4f760 0 geode::cocos::CCMenuItemExt::LambdaCallback<CCMenuItemToggler>::~LambdaCallback()
PUBLIC 4f7c4 0 std::__ndk1::__function::__func<MIGarageLayer::onCustomSpecialSelect(CCMenuItemSpriteExtra*)::{lambda(CCMenuItemToggler*)#1}, std::__ndk1::allocator<MIGarageLayer::onCustomSpecialSelect(CCMenuItemSpriteExtra*)::{lambda(CCMenuItemToggler*)#1}>, void (CCMenuItemToggler*)>::~__func()
PUBLIC 4f7e4 0 std::__ndk1::__function::__func<MIGarageLayer::onCustomSpecialSelect(CCMenuItemSpriteExtra*)::{lambda(CCMenuItemToggler*)#1}, std::__ndk1::allocator<MIGarageLayer::onCustomSpecialSelect(CCMenuItemSpriteExtra*)::{lambda(CCMenuItemToggler*)#1}>, void (CCMenuItemToggler*)>::~__func()
PUBLIC 4f824 0 std::__ndk1::__function::__func<MIGarageLayer::onCustomSpecialSelect(CCMenuItemSpriteExtra*)::{lambda(CCMenuItemToggler*)#1}, std::__ndk1::allocator<MIGarageLayer::onCustomSpecialSelect(CCMenuItemSpriteExtra*)::{lambda(CCMenuItemToggler*)#1}>, void (CCMenuItemToggler*)>::__clone() const
PUBLIC 4f8a4 0 std::__ndk1::__function::__func<MIGarageLayer::onCustomSpecialSelect(CCMenuItemSpriteExtra*)::{lambda(CCMenuItemToggler*)#1}, std::__ndk1::allocator<MIGarageLayer::onCustomSpecialSelect(CCMenuItemSpriteExtra*)::{lambda(CCMenuItemToggler*)#1}>, void (CCMenuItemToggler*)>::__clone(std::__ndk1::__function::__base<void (CCMenuItemToggler*)>*) const
PUBLIC 4f8e0 0 std::__ndk1::__function::__func<MIGarageLayer::onCustomSpecialSelect(CCMenuItemSpriteExtra*)::{lambda(CCMenuItemToggler*)#1}, std::__ndk1::allocator<MIGarageLayer::onCustomSpecialSelect(CCMenuItemSpriteExtra*)::{lambda(CCMenuItemToggler*)#1}>, void (CCMenuItemToggler*)>::destroy()
PUBLIC 4f8f4 0 std::__ndk1::__function::__func<MIGarageLayer::onCustomSpecialSelect(CCMenuItemSpriteExtra*)::{lambda(CCMenuItemToggler*)#1}, std::__ndk1::allocator<MIGarageLayer::onCustomSpecialSelect(CCMenuItemSpriteExtra*)::{lambda(CCMenuItemToggler*)#1}>, void (CCMenuItemToggler*)>::destroy_deallocate()
PUBLIC 4f928 0 std::__ndk1::__function::__func<MIGarageLayer::onCustomSpecialSelect(CCMenuItemSpriteExtra*)::{lambda(CCMenuItemToggler*)#1}, std::__ndk1::allocator<MIGarageLayer::onCustomSpecialSelect(CCMenuItemSpriteExtra*)::{lambda(CCMenuItemToggler*)#1}>, void (CCMenuItemToggler*)>::operator()(CCMenuItemToggler*&&)
PUBLIC 4f9b4 0 std::__ndk1::__function::__func<MIGarageLayer::onCustomSpecialSelect(CCMenuItemSpriteExtra*)::{lambda(CCMenuItemToggler*)#1}, std::__ndk1::allocator<MIGarageLayer::onCustomSpecialSelect(CCMenuItemSpriteExtra*)::{lambda(CCMenuItemToggler*)#1}>, void (CCMenuItemToggler*)>::target(std::type_info const&) const
PUBLIC 4f9d0 0 std::__ndk1::__function::__func<MIGarageLayer::onCustomSpecialSelect(CCMenuItemSpriteExtra*)::{lambda(CCMenuItemToggler*)#1}, std::__ndk1::allocator<MIGarageLayer::onCustomSpecialSelect(CCMenuItemSpriteExtra*)::{lambda(CCMenuItemToggler*)#1}>, void (CCMenuItemToggler*)>::target_type() const
PUBLIC 4f9dc 0 std::__ndk1::__function::__func<MIGarageLayer::onCustomSpecialSelect(CCMenuItemSpriteExtra*)::{lambda(CCMenuItemToggler*)#2}, std::__ndk1::allocator<MIGarageLayer::onCustomSpecialSelect(CCMenuItemSpriteExtra*)::{lambda(CCMenuItemToggler*)#2}>, void (CCMenuItemToggler*)>::~__func()
PUBLIC 4f9fc 0 std::__ndk1::__function::__func<MIGarageLayer::onCustomSpecialSelect(CCMenuItemSpriteExtra*)::{lambda(CCMenuItemToggler*)#2}, std::__ndk1::allocator<MIGarageLayer::onCustomSpecialSelect(CCMenuItemSpriteExtra*)::{lambda(CCMenuItemToggler*)#2}>, void (CCMenuItemToggler*)>::~__func()
PUBLIC 4fa3c 0 std::__ndk1::__function::__func<MIGarageLayer::onCustomSpecialSelect(CCMenuItemSpriteExtra*)::{lambda(CCMenuItemToggler*)#2}, std::__ndk1::allocator<MIGarageLayer::onCustomSpecialSelect(CCMenuItemSpriteExtra*)::{lambda(CCMenuItemToggler*)#2}>, void (CCMenuItemToggler*)>::__clone() const
PUBLIC 4fabc 0 std::__ndk1::__function::__func<MIGarageLayer::onCustomSpecialSelect(CCMenuItemSpriteExtra*)::{lambda(CCMenuItemToggler*)#2}, std::__ndk1::allocator<MIGarageLayer::onCustomSpecialSelect(CCMenuItemSpriteExtra*)::{lambda(CCMenuItemToggler*)#2}>, void (CCMenuItemToggler*)>::__clone(std::__ndk1::__function::__base<void (CCMenuItemToggler*)>*) const
PUBLIC 4faf8 0 std::__ndk1::__function::__func<MIGarageLayer::onCustomSpecialSelect(CCMenuItemSpriteExtra*)::{lambda(CCMenuItemToggler*)#2}, std::__ndk1::allocator<MIGarageLayer::onCustomSpecialSelect(CCMenuItemSpriteExtra*)::{lambda(CCMenuItemToggler*)#2}>, void (CCMenuItemToggler*)>::destroy()
PUBLIC 4fb0c 0 std::__ndk1::__function::__func<MIGarageLayer::onCustomSpecialSelect(CCMenuItemSpriteExtra*)::{lambda(CCMenuItemToggler*)#2}, std::__ndk1::allocator<MIGarageLayer::onCustomSpecialSelect(CCMenuItemSpriteExtra*)::{lambda(CCMenuItemToggler*)#2}>, void (CCMenuItemToggler*)>::destroy_deallocate()
PUBLIC 4fb40 0 std::__ndk1::__function::__func<MIGarageLayer::onCustomSpecialSelect(CCMenuItemSpriteExtra*)::{lambda(CCMenuItemToggler*)#2}, std::__ndk1::allocator<MIGarageLayer::onCustomSpecialSelect(CCMenuItemSpriteExtra*)::{lambda(CCMenuItemToggler*)#2}>, void (CCMenuItemToggler*)>::operator()(CCMenuItemToggler*&&)
PUBLIC 4fbcc 0 std::__ndk1::__function::__func<MIGarageLayer::onCustomSpecialSelect(CCMenuItemSpriteExtra*)::{lambda(CCMenuItemToggler*)#2}, std::__ndk1::allocator<MIGarageLayer::onCustomSpecialSelect(CCMenuItemSpriteExtra*)::{lambda(CCMenuItemToggler*)#2}>, void (CCMenuItemToggler*)>::target(std::type_info const&) const
PUBLIC 4fbe8 0 std::__ndk1::__function::__func<MIGarageLayer::onCustomSpecialSelect(CCMenuItemSpriteExtra*)::{lambda(CCMenuItemToggler*)#2}, std::__ndk1::allocator<MIGarageLayer::onCustomSpecialSelect(CCMenuItemSpriteExtra*)::{lambda(CCMenuItemToggler*)#2}>, void (CCMenuItemToggler*)>::target_type() const
PUBLIC 4fbf4 0 geode::Mod::getSavedValue<int>(std::__ndk1::basic_string_view<char, std::__ndk1::char_traits<char> >)
PUBLIC 4fd64 0 MoreIcons::infoForType(IconType)
PUBLIC 4fe08 0 std::__ndk1::__hash_table<std::__ndk1::__hash_value_type<std::__ndk1::basic_string<char, std::__ndk1::char_traits<char>, std::__ndk1::allocator<char> >, TexturePack>, std::__ndk1::__unordered_map_hasher<std::__ndk1::basic_string<char, std::__ndk1::char_traits<char>, std::__ndk1::allocator<char> >, std::__ndk1::__hash_value_type<std::__ndk1::basic_string<char, std::__ndk1::char_traits<char>, std::__ndk1::allocator<char> >, TexturePack>, std::__ndk1::hash<std::__ndk1::basic_string<char, std::__ndk1::char_traits<char>, std::__ndk1::allocator<char> > >, std::__ndk1::equal_to<std::__ndk1::basic_string<char, std::__ndk1::char_traits<char>, std::__ndk1::allocator<char> > >, true>, std::__ndk1::__unordered_map_equal<std::__ndk1::basic_string<char, std::__ndk1::char_traits<char>, std::__ndk1::allocator<char> >, std::__ndk1::__hash_value_type<std::__ndk1::basic_string<char, std::__ndk1::char_traits<char>, std::__ndk1::allocator<char> >, TexturePack>, std::__ndk1::equal_to<std::__ndk1::basic_string<char, std::__ndk1::char_traits<char>, std::__ndk1::allocator<char> > >, std::__ndk1::hash<std::__ndk1::basic_string<char, std::__ndk1::char_traits<char>, std::__ndk1::allocator<char> > >, true>, std::__ndk1::allocator<std::__ndk1::__hash_value_type<std::__ndk1::basic_string<char, std::__ndk1::char_traits<char>, std::__ndk1::allocator<char> >, TexturePack> > >::__emplace_unique_key_args<std::__ndk1::basic_string<char, std::__ndk1::char_traits<char>, std::__ndk1::allocator<char> >, std::__ndk1::piecewise_construct_t const&, std::__ndk1::tuple<std::__ndk1::basic_string<char, std::__ndk1::char_traits<char>, std::__ndk1::allocator<char> > const&>, std::__ndk1::tuple<> >(std::__ndk1::basic_string<char, std::__ndk1::char_traits<char>, std::__ndk1::allocator<char> > const&, std::__ndk1::piecewise_construct_t const&, std::__ndk1::tuple<std::__ndk1::basic_string<char, std::__ndk1::char_traits<char>, std::__ndk1::allocator<char> > const&>, std::__ndk1::tuple<>)
PUBLIC 502d4 0 std::__ndk1::unique_ptr<std::__ndk1::__hash_node<std::__ndk1::__hash_value_type<std::__ndk1::basic_string<char, std::__ndk1::char_traits<char>, std::__ndk1::allocator<char> >, TexturePack>, void*>, std::__ndk1::__hash_node_destructor<std::__ndk1::allocator<std::__ndk1::__hash_node<std::__ndk1::__hash_value_type<std::__ndk1::basic_string<char, std::__ndk1::char_traits<char>, std::__ndk1::allocator<char> >, TexturePack>, void*> > > >::~unique_ptr[abi:ne190000]()
PUBLIC 50354 0 std::__ndk1::__hash_table<std::__ndk1::__hash_value_type<std::__ndk1::basic_string<char, std::__ndk1::char_traits<char>, std::__ndk1::allocator<char> >, TexturePack>, std::__ndk1::__unordered_map_hasher<std::__ndk1::basic_string<char, std::__ndk1::char_traits<char>, std::__ndk1::allocator<char> >, std::__ndk1::__hash_value_type<std::__ndk1::basic_string<char, std::__ndk1::char_traits<char>, std::__ndk1::allocator<char> >, TexturePack>, std::__ndk1::hash<std::__ndk1::basic_string<char, std::__ndk1::char_traits<char>, std::__ndk1::allocator<char> > >, std::__ndk1::equal_to<std::__ndk1::basic_string<char, std::__ndk1::char_traits<char>, std::__ndk1::allocator<char> > >, true>, std::__ndk1::__unordered_map_equal<std::__ndk1::basic_string<char, std::__ndk1::char_traits<char>, std::__ndk1::allocator<char> >, std::__ndk1::__hash_value_type<std::__ndk1::basic_string<char, std::__ndk1::char_traits<char>, std::__ndk1::allocator<char> >, TexturePack>, std::__ndk1::equal_to<std::__ndk1::basic_string<char, std::__ndk1::char_traits<char>, std::__ndk1::allocator<char> > >, std::__ndk1::hash<std::__ndk1::basic_string<char, std::__ndk1::char_traits<char>, std::__ndk1::allocator<char> > >, true>, std::__ndk1::allocator<std::__ndk1::__hash_value_type<std::__ndk1::basic_string<char, std::__ndk1::char_traits<char>, std::__ndk1::allocator<char> >, TexturePack> > >::__do_rehash<true>(unsigned long)
PUBLIC 50500 0 __cxx_global_var_init.10
PUBLIC 50970 0 geode::modifier::ModifyBase<geode::modifier::ModifyDerive<MIRobotSprite, GJRobotSprite> >::~ModifyBase()
PUBLIC 5098c 0 geode::modifier::ModifyDerive<MIRobotSprite, GJRobotSprite>::apply()
PUBLIC 50d00 0 geode::modifier::ModifyBase<geode::modifier::ModifyDerive<MIRobotSprite, GJRobotSprite> >::apply()
PUBLIC 50d04 0 geode::modifier::AsStaticFunction_updateFrame<MIRobotSprite, void (MIRobotSprite::*)(int)>::Impl<void (MIRobotSprite::*)(int)>::function(MIRobotSprite*, int)
PUBLIC 50dcc 0 __cxx_global_var_init.24
PUBLIC 51670 0 geode::modifier::ModifyBase<geode::modifier::ModifyDerive<MILoadingLayer, LoadingLayer> >::~ModifyBase()
PUBLIC 5168c 0 geode::modifier::ModifyDerive<MILoadingLayer, LoadingLayer>::apply()
PUBLIC 519b0 0 geode::modifier::ModifyBase<geode::modifier::ModifyDerive<MILoadingLayer, LoadingLayer> >::apply()
PUBLIC 519b4 0 geode::modifier::ModifyBase<geode::modifier::ModifyDerive<MILoadingLayer, LoadingLayer> >::setHookPriorityAfter(std::__ndk1::basic_string_view<char, std::__ndk1::char_traits<char> >, geode::Mod*)::{lambda(geode::ModStateEvent*)#1}::operator()(geode::ModStateEvent*) const
PUBLIC 51ac4 0 std::__ndk1::__function::__func<geode::modifier::ModifyBase<geode::modifier::ModifyDerive<MILoadingLayer, LoadingLayer> >::setHookPriorityAfter(std::__ndk1::basic_string_view<char, std::__ndk1::char_traits<char> >, geode::Mod*)::{lambda(geode::ModStateEvent*)#1}, std::__ndk1::allocator<geode::modifier::ModifyBase<geode::modifier::ModifyDerive<MILoadingLayer, LoadingLayer> >::setHookPriorityAfter(std::__ndk1::basic_string_view<char, std::__ndk1::char_traits<char> >, geode::Mod*)::{lambda(geode::ModStateEvent*)#1}>, void (geode::ModStateEvent*)>::~__func()
PUBLIC 51ac8 0 std::__ndk1::__function::__func<geode::modifier::ModifyBase<geode::modifier::ModifyDerive<MILoadingLayer, LoadingLayer> >::setHookPriorityAfter(std::__ndk1::basic_string_view<char, std::__ndk1::char_traits<char> >, geode::Mod*)::{lambda(geode::ModStateEvent*)#1}, std::__ndk1::allocator<geode::modifier::ModifyBase<geode::modifier::ModifyDerive<MILoadingLayer, LoadingLayer> >::setHookPriorityAfter(std::__ndk1::basic_string_view<char, std::__ndk1::char_traits<char> >, geode::Mod*)::{lambda(geode::ModStateEvent*)#1}>, void (geode::ModStateEvent*)>::__clone() const
PUBLIC 51b00 0 std::__ndk1::__function::__func<geode::modifier::ModifyBase<geode::modifier::ModifyDerive<MILoadingLayer, LoadingLayer> >::setHookPriorityAfter(std::__ndk1::basic_string_view<char, std::__ndk1::char_traits<char> >, geode::Mod*)::{lambda(geode::ModStateEvent*)#1}, std::__ndk1::allocator<geode::modifier::ModifyBase<geode::modifier::ModifyDerive<MILoadingLayer, LoadingLayer> >::setHookPriorityAfter(std::__ndk1::basic_string_view<char, std::__ndk1::char_traits<char> >, geode::Mod*)::{lambda(geode::ModStateEvent*)#1}>, void (geode::ModStateEvent*)>::__clone(std::__ndk1::__function::__base<void (geode::ModStateEvent*)>*) const
PUBLIC 51b18 0 std::__ndk1::__function::__func<geode::modifier::ModifyBase<geode::modifier::ModifyDerive<MILoadingLayer, LoadingLayer> >::setHookPriorityAfter(std::__ndk1::basic_string_view<char, std::__ndk1::char_traits<char> >, geode::Mod*)::{lambda(geode::ModStateEvent*)#1}, std::__ndk1::allocator<geode::modifier::ModifyBase<geode::modifier::ModifyDerive<MILoadingLayer, LoadingLayer> >::setHookPriorityAfter(std::__ndk1::basic_string_view<char, std::__ndk1::char_traits<char> >, geode::Mod*)::{lambda(geode::ModStateEvent*)#1}>, void (geode::ModStateEvent*)>::destroy()
PUBLIC 51b1c 0 std::__ndk1::__function::__func<geode::modifier::ModifyBase<geode::modifier::ModifyDerive<MILoadingLayer, LoadingLayer> >::setHookPriorityAfter(std::__ndk1::basic_string_view<char, std::__ndk1::char_traits<char> >, geode::Mod*)::{lambda(geode::ModStateEvent*)#1}, std::__ndk1::allocator<geode::modifier::ModifyBase<geode::modifier::ModifyDerive<MILoadingLayer, LoadingLayer> >::setHookPriorityAfter(std::__ndk1::basic_string_view<char, std::__ndk1::char_traits<char> >, geode::Mod*)::{lambda(geode::ModStateEvent*)#1}>, void (geode::ModStateEvent*)>::destroy_deallocate()
PUBLIC 51b20 0 std::__ndk1::__function::__func<geode::modifier::ModifyBase<geode::modifier::ModifyDerive<MILoadingLayer, LoadingLayer> >::setHookPriorityAfter(std::__ndk1::basic_string_view<char, std::__ndk1::char_traits<char> >, geode::Mod*)::{lambda(geode::ModStateEvent*)#1}, std::__ndk1::allocator<geode::modifier::ModifyBase<geode::modifier::ModifyDerive<MILoadingLayer, LoadingLayer> >::setHookPriorityAfter(std::__ndk1::basic_string_view<char, std::__ndk1::char_traits<char> >, geode::Mod*)::{lambda(geode::ModStateEvent*)#1}>, void (geode::ModStateEvent*)>::operator()(geode::ModStateEvent*&&)
PUBLIC 51b28 0 std::__ndk1::__function::__func<geode::modifier::ModifyBase<geode::modifier::ModifyDerive<MILoadingLayer, LoadingLayer> >::setHookPriorityAfter(std::__ndk1::basic_string_view<char, std::__ndk1::char_traits<char> >, geode::Mod*)::{lambda(geode::ModStateEvent*)#1}, std::__ndk1::allocator<geode::modifier::ModifyBase<geode::modifier::ModifyDerive<MILoadingLayer, LoadingLayer> >::setHookPriorityAfter(std::__ndk1::basic_string_view<char, std::__ndk1::char_traits<char> >, geode::Mod*)::{lambda(geode::ModStateEvent*)#1}>, void (geode::ModStateEvent*)>::target(std::type_info const&) const
PUBLIC 51b44 0 std::__ndk1::__function::__func<geode::modifier::ModifyBase<geode::modifier::ModifyDerive<MILoadingLayer, LoadingLayer> >::setHookPriorityAfter(std::__ndk1::basic_string_view<char, std::__ndk1::char_traits<char> >, geode::Mod*)::{lambda(geode::ModStateEvent*)#1}, std::__ndk1::allocator<geode::modifier::ModifyBase<geode::modifier::ModifyDerive<MILoadingLayer, LoadingLayer> >::setHookPriorityAfter(std::__ndk1::basic_string_view<char, std::__ndk1::char_traits<char> >, geode::Mod*)::{lambda(geode::ModStateEvent*)#1}>, void (geode::ModStateEvent*)>::target_type() const
PUBLIC 51b50 0 geode::modifier::AsStaticFunction_loadAssets<MILoadingLayer, void (MILoadingLayer::*)()>::Impl<void (MILoadingLayer::*)()>::function(MILoadingLayer*)
PUBLIC 51b54 0 MILoadingLayer::loadAssets()
PUBLIC 51f9c 0 geode::modifier::FieldIntermediate<MILoadingLayer, LoadingLayer>::self()
PUBLIC 5212c 0 geode::modifier::FieldIntermediate<MILoadingLayer, LoadingLayer>::fieldDestructor(void*)
PUBLIC 521f0 0 std::__ndk1::__function::__base<void ()>::~__base()
PUBLIC 521f4 0 std::__ndk1::__function::__func<MILoadingLayer::loadAssets()::{lambda()#1}, std::__ndk1::allocator<MILoadingLayer::loadAssets()::{lambda()#1}>, void ()>::~__func()
PUBLIC 521f8 0 std::__ndk1::__function::__func<MILoadingLayer::loadAssets()::{lambda()#1}, std::__ndk1::allocator<MILoadingLayer::loadAssets()::{lambda()#1}>, void ()>::__clone() const
PUBLIC 5222c 0 std::__ndk1::__function::__func<MILoadingLayer::loadAssets()::{lambda()#1}, std::__ndk1::allocator<MILoadingLayer::loadAssets()::{lambda()#1}>, void ()>::__clone(std::__ndk1::__function::__base<void ()>*) const
PUBLIC 52240 0 std::__ndk1::__function::__func<MILoadingLayer::loadAssets()::{lambda()#1}, std::__ndk1::allocator<MILoadingLayer::loadAssets()::{lambda()#1}>, void ()>::destroy()
PUBLIC 52244 0 std::__ndk1::__function::__func<MILoadingLayer::loadAssets()::{lambda()#1}, std::__ndk1::allocator<MILoadingLayer::loadAssets()::{lambda()#1}>, void ()>::destroy_deallocate()
PUBLIC 52248 0 std::__ndk1::__function::__func<MILoadingLayer::loadAssets()::{lambda()#1}, std::__ndk1::allocator<MILoadingLayer::loadAssets()::{lambda()#1}>, void ()>::operator()()
PUBLIC 52250 0 std::__ndk1::__function::__func<MILoadingLayer::loadAssets()::{lambda()#1}, std::__ndk1::allocator<MILoadingLayer::loadAssets()::{lambda()#1}>, void ()>::target(std::type_info const&) const
PUBLIC 5226c 0 std::__ndk1::__function::__func<MILoadingLayer::loadAssets()::{lambda()#1}, std::__ndk1::allocator<MILoadingLayer::loadAssets()::{lambda()#1}>, void ()>::target_type() const
PUBLIC 52278 0 __cxx_global_var_init.10
PUBLIC 526e8 0 geode::modifier::ModifyBase<geode::modifier::ModifyDerive<MIMenuGameLayer, MenuGameLayer> >::~ModifyBase()
PUBLIC 52704 0 geode::modifier::ModifyDerive<MIMenuGameLayer, MenuGameLayer>::apply()
PUBLIC 52a30 0 geode::modifier::ModifyBase<geode::modifier::ModifyDerive<MIMenuGameLayer, MenuGameLayer> >::apply()
PUBLIC 52a34 0 geode::modifier::AsStaticFunction_resetPlayer<MIMenuGameLayer, void (MIMenuGameLayer::*)()>::Impl<void (MIMenuGameLayer::*)()>::function(MIMenuGameLayer*)
PUBLIC 52cdc 0 __cxx_global_var_init.24
PUBLIC 5351c 0 geode::modifier::ModifyBase<geode::modifier::ModifyDerive<MIMenuLayer, MenuLayer> >::~ModifyBase()
PUBLIC 53538 0 geode::modifier::ModifyDerive<MIMenuLayer, MenuLayer>::apply()
PUBLIC 5382c 0 geode::modifier::ModifyBase<geode::modifier::ModifyDerive<MIMenuLayer, MenuLayer> >::apply()
PUBLIC 53830 0 MIMenuLayer::onModify(geode::modifier::ModifyBase<geode::modifier::ModifyDerive<MIMenuLayer, MenuLayer> >&)::{lambda(geode::ModStateEvent*)#1}::operator()(geode::ModStateEvent*) const
PUBLIC 53a34 0 geode::impl::ResultData<void, std::__ndk1::basic_string<char, std::__ndk1::char_traits<char>, std::__ndk1::allocator<char> > >::~ResultData()
PUBLIC 53aa8 0 std::__ndk1::__function::__func<MIMenuLayer::onModify(geode::modifier::ModifyBase<geode::modifier::ModifyDerive<MIMenuLayer, MenuLayer> >&)::{lambda(geode::ModStateEvent*)#1}, std::__ndk1::allocator<MIMenuLayer::onModify(geode::modifier::ModifyBase<geode::modifier::ModifyDerive<MIMenuLayer, MenuLayer> >&)::{lambda(geode::ModStateEvent*)#1}>, void (geode::ModStateEvent*)>::~__func()
PUBLIC 53aac 0 std::__ndk1::__function::__func<MIMenuLayer::onModify(geode::modifier::ModifyBase<geode::modifier::ModifyDerive<MIMenuLayer, MenuLayer> >&)::{lambda(geode::ModStateEvent*)#1}, std::__ndk1::allocator<MIMenuLayer::onModify(geode::modifier::ModifyBase<geode::modifier::ModifyDerive<MIMenuLayer, MenuLayer> >&)::{lambda(geode::ModStateEvent*)#1}>, void (geode::ModStateEvent*)>::__clone() const
PUBLIC 53ae4 0 std::__ndk1::__function::__func<MIMenuLayer::onModify(geode::modifier::ModifyBase<geode::modifier::ModifyDerive<MIMenuLayer, MenuLayer> >&)::{lambda(geode::ModStateEvent*)#1}, std::__ndk1::allocator<MIMenuLayer::onModify(geode::modifier::ModifyBase<geode::modifier::ModifyDerive<MIMenuLayer, MenuLayer> >&)::{lambda(geode::ModStateEvent*)#1}>, void (geode::ModStateEvent*)>::__clone(std::__ndk1::__function::__base<void (geode::ModStateEvent*)>*) const
PUBLIC 53afc 0 std::__ndk1::__function::__func<MIMenuLayer::onModify(geode::modifier::ModifyBase<geode::modifier::ModifyDerive<MIMenuLayer, MenuLayer> >&)::{lambda(geode::ModStateEvent*)#1}, std::__ndk1::allocator<MIMenuLayer::onModify(geode::modifier::ModifyBase<geode::modifier::ModifyDerive<MIMenuLayer, MenuLayer> >&)::{lambda(geode::ModStateEvent*)#1}>, void (geode::ModStateEvent*)>::destroy()
PUBLIC 53b00 0 std::__ndk1::__function::__func<MIMenuLayer::onModify(geode::modifier::ModifyBase<geode::modifier::ModifyDerive<MIMenuLayer, MenuLayer> >&)::{lambda(geode::ModStateEvent*)#1}, std::__ndk1::allocator<MIMenuLayer::onModify(geode::modifier::ModifyBase<geode::modifier::ModifyDerive<MIMenuLayer, MenuLayer> >&)::{lambda(geode::ModStateEvent*)#1}>, void (geode::ModStateEvent*)>::destroy_deallocate()
PUBLIC 53b04 0 std::__ndk1::__function::__func<MIMenuLayer::onModify(geode::modifier::ModifyBase<geode::modifier::ModifyDerive<MIMenuLayer, MenuLayer> >&)::{lambda(geode::ModStateEvent*)#1}, std::__ndk1::allocator<MIMenuLayer::onModify(geode::modifier::ModifyBase<geode::modifier::ModifyDerive<MIMenuLayer, MenuLayer> >&)::{lambda(geode::ModStateEvent*)#1}>, void (geode::ModStateEvent*)>::operator()(geode::ModStateEvent*&&)
PUBLIC 53b0c 0 std::__ndk1::__function::__func<MIMenuLayer::onModify(geode::modifier::ModifyBase<geode::modifier::ModifyDerive<MIMenuLayer, MenuLayer> >&)::{lambda(geode::ModStateEvent*)#1}, std::__ndk1::allocator<MIMenuLayer::onModify(geode::modifier::ModifyBase<geode::modifier::ModifyDerive<MIMenuLayer, MenuLayer> >&)::{lambda(geode::ModStateEvent*)#1}>, void (geode::ModStateEvent*)>::target(std::type_info const&) const
PUBLIC 53b28 0 std::__ndk1::__function::__func<MIMenuLayer::onModify(geode::modifier::ModifyBase<geode::modifier::ModifyDerive<MIMenuLayer, MenuLayer> >&)::{lambda(geode::ModStateEvent*)#1}, std::__ndk1::allocator<MIMenuLayer::onModify(geode::modifier::ModifyBase<geode::modifier::ModifyDerive<MIMenuLayer, MenuLayer> >&)::{lambda(geode::ModStateEvent*)#1}>, void (geode::ModStateEvent*)>::target_type() const
PUBLIC 53b34 0 geode::modifier::AsStaticFunction_init<MIMenuLayer, bool (MIMenuLayer::*)()>::Impl<bool (MIMenuLayer::*)()>::function(MIMenuLayer*)
PUBLIC 53ce0 0 geode::addresser::Addresser::addressOfVirtual<bool, MenuLayer, >(bool (MenuLayer::*)())
PUBLIC 53d88 0 MenuLayer::MenuLayer(geode::ZeroConstructorType)
PUBLIC 53e24 0 __cxx_global_var_init.24
PUBLIC 546dc 0 geode::modifier::ModifyBase<geode::modifier::ModifyDerive<MIPlayerObject, PlayerObject> >::~ModifyBase()
PUBLIC 546f8 0 geode::modifier::ModifyDerive<MIPlayerObject, PlayerObject>::apply()
PUBLIC 55f3c 0 geode::modifier::ModifyBase<geode::modifier::ModifyDerive<MIPlayerObject, PlayerObject> >::apply()
PUBLIC 55f40 0 geode::modifier::ModifyBase<geode::modifier::ModifyDerive<MIPlayerObject, PlayerObject> >::setHookPriorityBefore(std::__ndk1::basic_string_view<char, std::__ndk1::char_traits<char> >, geode::Mod*)::{lambda(geode::ModStateEvent*)#1}::operator()(geode::ModStateEvent*) const
PUBLIC 56050 0 std::__ndk1::__function::__func<geode::modifier::ModifyBase<geode::modifier::ModifyDerive<MIPlayerObject, PlayerObject> >::setHookPriorityBefore(std::__ndk1::basic_string_view<char, std::__ndk1::char_traits<char> >, geode::Mod*)::{lambda(geode::ModStateEvent*)#1}, std::__ndk1::allocator<geode::modifier::ModifyBase<geode::modifier::ModifyDerive<MIPlayerObject, PlayerObject> >::setHookPriorityBefore(std::__ndk1::basic_string_view<char, std::__ndk1::char_traits<char> >, geode::Mod*)::{lambda(geode::ModStateEvent*)#1}>, void (geode::ModStateEvent*)>::~__func()
PUBLIC 56054 0 std::__ndk1::__function::__func<geode::modifier::ModifyBase<geode::modifier::ModifyDerive<MIPlayerObject, PlayerObject> >::setHookPriorityBefore(std::__ndk1::basic_string_view<char, std::__ndk1::char_traits<char> >, geode::Mod*)::{lambda(geode::ModStateEvent*)#1}, std::__ndk1::allocator<geode::modifier::ModifyBase<geode::modifier::ModifyDerive<MIPlayerObject, PlayerObject> >::setHookPriorityBefore(std::__ndk1::basic_string_view<char, std::__ndk1::char_traits<char> >, geode::Mod*)::{lambda(geode::ModStateEvent*)#1}>, void (geode::ModStateEvent*)>::__clone() const
PUBLIC 5608c 0 std::__ndk1::__function::__func<geode::modifier::ModifyBase<geode::modifier::ModifyDerive<MIPlayerObject, PlayerObject> >::setHookPriorityBefore(std::__ndk1::basic_string_view<char, std::__ndk1::char_traits<char> >, geode::Mod*)::{lambda(geode::ModStateEvent*)#1}, std::__ndk1::allocator<geode::modifier::ModifyBase<geode::modifier::ModifyDerive<MIPlayerObject, PlayerObject> >::setHookPriorityBefore(std::__ndk1::basic_string_view<char, std::__ndk1::char_traits<char> >, geode::Mod*)::{lambda(geode::ModStateEvent*)#1}>, void (geode::ModStateEvent*)>::__clone(std::__ndk1::__function::__base<void (geode::ModStateEvent*)>*) const
PUBLIC 560a4 0 std::__ndk1::__function::__func<geode::modifier::ModifyBase<geode::modifier::ModifyDerive<MIPlayerObject, PlayerObject> >::setHookPriorityBefore(std::__ndk1::basic_string_view<char, std::__ndk1::char_traits<char> >, geode::Mod*)::{lambda(geode::ModStateEvent*)#1}, std::__ndk1::allocator<geode::modifier::ModifyBase<geode::modifier::ModifyDerive<MIPlayerObject, PlayerObject> >::setHookPriorityBefore(std::__ndk1::basic_string_view<char, std::__ndk1::char_traits<char> >, geode::Mod*)::{lambda(geode::ModStateEvent*)#1}>, void (geode::ModStateEvent*)>::destroy()
PUBLIC 560a8 0 std::__ndk1::__function::__func<geode::modifier::ModifyBase<geode::modifier::ModifyDerive<MIPlayerObject, PlayerObject> >::setHookPriorityBefore(std::__ndk1::basic_string_view<char, std::__ndk1::char_traits<char> >, geode::Mod*)::{lambda(geode::ModStateEvent*)#1}, std::__ndk1::allocator<geode::modifier::ModifyBase<geode::modifier::ModifyDerive<MIPlayerObject, PlayerObject> >::setHookPriorityBefore(std::__ndk1::basic_string_view<char, std::__ndk1::char_traits<char> >, geode::Mod*)::{lambda(geode::ModStateEvent*)#1}>, void (geode::ModStateEvent*)>::destroy_deallocate()
PUBLIC 560ac 0 std::__ndk1::__function::__func<geode::modifier::ModifyBase<geode::modifier::ModifyDerive<MIPlayerObject, PlayerObject> >::setHookPriorityBefore(std::__ndk1::basic_string_view<char, std::__ndk1::char_traits<char> >, geode::Mod*)::{lambda(geode::ModStateEvent*)#1}, std::__ndk1::allocator<geode::modifier::ModifyBase<geode::modifier::ModifyDerive<MIPlayerObject, PlayerObject> >::setHookPriorityBefore(std::__ndk1::basic_string_view<char, std::__ndk1::char_traits<char> >, geode::Mod*)::{lambda(geode::ModStateEvent*)#1}>, void (geode::ModStateEvent*)>::operator()(geode::ModStateEvent*&&)
PUBLIC 560b4 0 std::__ndk1::__function::__func<geode::modifier::ModifyBase<geode::modifier::ModifyDerive<MIPlayerObject, PlayerObject> >::setHookPriorityBefore(std::__ndk1::basic_string_view<char, std::__ndk1::char_traits<char> >, geode::Mod*)::{lambda(geode::ModStateEvent*)#1}, std::__ndk1::allocator<geode::modifier::ModifyBase<geode::modifier::ModifyDerive<MIPlayerObject, PlayerObject> >::setHookPriorityBefore(std::__ndk1::basic_string_view<char, std::__ndk1::char_traits<char> >, geode::Mod*)::{lambda(geode::ModStateEvent*)#1}>, void (geode::ModStateEvent*)>::target(std::type_info const&) const
PUBLIC 560d0 0 std::__ndk1::__function::__func<geode::modifier::ModifyBase<geode::modifier::ModifyDerive<MIPlayerObject, PlayerObject> >::setHookPriorityBefore(std::__ndk1::basic_string_view<char, std::__ndk1::char_traits<char> >, geode::Mod*)::{lambda(geode::ModStateEvent*)#1}, std::__ndk1::allocator<geode::modifier::ModifyBase<geode::modifier::ModifyDerive<MIPlayerObject, PlayerObject> >::setHookPriorityBefore(std::__ndk1::basic_string_view<char, std::__ndk1::char_traits<char> >, geode::Mod*)::{lambda(geode::ModStateEvent*)#1}>, void (geode::ModStateEvent*)>::target_type() const
PUBLIC 560dc 0 geode::Hook::create<void (*)(MIPlayerObject*, int)>(void*, void (*)(MIPlayerObject*, int), std::__ndk1::basic_string<char, std::__ndk1::char_traits<char>, std::__ndk1::allocator<char> > const&, tulip::hook::TulipConvention, tulip::hook::HookMetadata const&)
PUBLIC 56260 0 geode::modifier::AsStaticFunction_createRobot<MIPlayerObject, void (MIPlayerObject::*)(int)>::Impl<void (MIPlayerObject::*)(int)>::function(MIPlayerObject*, int)
PUBLIC 56288 0 geode::modifier::AsStaticFunction_createSpider<MIPlayerObject, void (MIPlayerObject::*)(int)>::Impl<void (MIPlayerObject::*)(int)>::function(MIPlayerObject*, int)
PUBLIC 562b0 0 geode::modifier::AsStaticFunction_init<MIPlayerObject, bool (MIPlayerObject::*)(int, int, GJBaseGameLayer*, cocos2d::CCLayer*, bool)>::Impl<bool (MIPlayerObject::*)(int, int, GJBaseGameLayer*, cocos2d::CCLayer*, bool)>::function(MIPlayerObject*, int, int, GJBaseGameLayer*, cocos2d::CCLayer*, bool)
PUBLIC 562f4 0 geode::modifier::AsStaticFunction_setupStreak<MIPlayerObject, void (MIPlayerObject::*)()>::Impl<void (MIPlayerObject::*)()>::function(MIPlayerObject*)
PUBLIC 566fc 0 geode::modifier::AsStaticFunction_updatePlayerBirdFrame<MIPlayerObject, void (MIPlayerObject::*)(int)>::Impl<void (MIPlayerObject::*)(int)>::function(MIPlayerObject*, int)
PUBLIC 56724 0 geode::modifier::AsStaticFunction_updatePlayerDartFrame<MIPlayerObject, void (MIPlayerObject::*)(int)>::Impl<void (MIPlayerObject::*)(int)>::function(MIPlayerObject*, int)
PUBLIC 5674c 0 geode::modifier::AsStaticFunction_updatePlayerFrame<MIPlayerObject, void (MIPlayerObject::*)(int)>::Impl<void (MIPlayerObject::*)(int)>::function(MIPlayerObject*, int)
PUBLIC 56850 0 geode::modifier::AsStaticFunction_updatePlayerJetpackFrame<MIPlayerObject, void (MIPlayerObject::*)(int)>::Impl<void (MIPlayerObject::*)(int)>::function(MIPlayerObject*, int)
PUBLIC 56878 0 geode::modifier::AsStaticFunction_updatePlayerRollFrame<MIPlayerObject, void (MIPlayerObject::*)(int)>::Impl<void (MIPlayerObject::*)(int)>::function(MIPlayerObject*, int)
PUBLIC 5697c 0 geode::modifier::AsStaticFunction_updatePlayerShipFrame<MIPlayerObject, void (MIPlayerObject::*)(int)>::Impl<void (MIPlayerObject::*)(int)>::function(MIPlayerObject*, int)
PUBLIC 569a4 0 geode::modifier::AsStaticFunction_updatePlayerSwingFrame<MIPlayerObject, void (MIPlayerObject::*)(int)>::Impl<void (MIPlayerObject::*)(int)>::function(MIPlayerObject*, int)
PUBLIC 569cc 0 MIPlayerObject::updateIcon(IconType)
PUBLIC 56b18 0 MIPlayerObject::resetTrail()
PUBLIC 56cf4 0 __cxx_global_var_init.24
PUBLIC 575a8 0 geode::modifier::ModifyBase<geode::modifier::ModifyDerive<MIProfilePage, ProfilePage> >::~ModifyBase()
PUBLIC 575c4 0 geode::modifier::ModifyDerive<MIProfilePage, ProfilePage>::apply()
PUBLIC 57bf0 0 geode::modifier::ModifyBase<geode::modifier::ModifyDerive<MIProfilePage, ProfilePage> >::apply()
PUBLIC 57bf4 0 geode::modifier::ModifyBase<geode::modifier::ModifyDerive<MIProfilePage, ProfilePage> >::setHookPriorityBefore(std::__ndk1::basic_string_view<char, std::__ndk1::char_traits<char> >, geode::Mod*)::{lambda(geode::ModStateEvent*)#1}::operator()(geode::ModStateEvent*) const
PUBLIC 57d04 0 std::__ndk1::__function::__func<geode::modifier::ModifyBase<geode::modifier::ModifyDerive<MIProfilePage, ProfilePage> >::setHookPriorityBefore(std::__ndk1::basic_string_view<char, std::__ndk1::char_traits<char> >, geode::Mod*)::{lambda(geode::ModStateEvent*)#1}, std::__ndk1::allocator<geode::modifier::ModifyBase<geode::modifier::ModifyDerive<MIProfilePage, ProfilePage> >::setHookPriorityBefore(std::__ndk1::basic_string_view<char, std::__ndk1::char_traits<char> >, geode::Mod*)::{lambda(geode::ModStateEvent*)#1}>, void (geode::ModStateEvent*)>::~__func()
PUBLIC 57d08 0 std::__ndk1::__function::__func<geode::modifier::ModifyBase<geode::modifier::ModifyDerive<MIProfilePage, ProfilePage> >::setHookPriorityBefore(std::__ndk1::basic_string_view<char, std::__ndk1::char_traits<char> >, geode::Mod*)::{lambda(geode::ModStateEvent*)#1}, std::__ndk1::allocator<geode::modifier::ModifyBase<geode::modifier::ModifyDerive<MIProfilePage, ProfilePage> >::setHookPriorityBefore(std::__ndk1::basic_string_view<char, std::__ndk1::char_traits<char> >, geode::Mod*)::{lambda(geode::ModStateEvent*)#1}>, void (geode::ModStateEvent*)>::__clone() const
PUBLIC 57d40 0 std::__ndk1::__function::__func<geode::modifier::ModifyBase<geode::modifier::ModifyDerive<MIProfilePage, ProfilePage> >::setHookPriorityBefore(std::__ndk1::basic_string_view<char, std::__ndk1::char_traits<char> >, geode::Mod*)::{lambda(geode::ModStateEvent*)#1}, std::__ndk1::allocator<geode::modifier::ModifyBase<geode::modifier::ModifyDerive<MIProfilePage, ProfilePage> >::setHookPriorityBefore(std::__ndk1::basic_string_view<char, std::__ndk1::char_traits<char> >, geode::Mod*)::{lambda(geode::ModStateEvent*)#1}>, void (geode::ModStateEvent*)>::__clone(std::__ndk1::__function::__base<void (geode::ModStateEvent*)>*) const
PUBLIC 57d58 0 std::__ndk1::__function::__func<geode::modifier::ModifyBase<geode::modifier::ModifyDerive<MIProfilePage, ProfilePage> >::setHookPriorityBefore(std::__ndk1::basic_string_view<char, std::__ndk1::char_traits<char> >, geode::Mod*)::{lambda(geode::ModStateEvent*)#1}, std::__ndk1::allocator<geode::modifier::ModifyBase<geode::modifier::ModifyDerive<MIProfilePage, ProfilePage> >::setHookPriorityBefore(std::__ndk1::basic_string_view<char, std::__ndk1::char_traits<char> >, geode::Mod*)::{lambda(geode::ModStateEvent*)#1}>, void (geode::ModStateEvent*)>::destroy()
PUBLIC 57d5c 0 std::__ndk1::__function::__func<geode::modifier::ModifyBase<geode::modifier::ModifyDerive<MIProfilePage, ProfilePage> >::setHookPriorityBefore(std::__ndk1::basic_string_view<char, std::__ndk1::char_traits<char> >, geode::Mod*)::{lambda(geode::ModStateEvent*)#1}, std::__ndk1::allocator<geode::modifier::ModifyBase<geode::modifier::ModifyDerive<MIProfilePage, ProfilePage> >::setHookPriorityBefore(std::__ndk1::basic_string_view<char, std::__ndk1::char_traits<char> >, geode::Mod*)::{lambda(geode::ModStateEvent*)#1}>, void (geode::ModStateEvent*)>::destroy_deallocate()
PUBLIC 57d60 0 std::__ndk1::__function::__func<geode::modifier::ModifyBase<geode::modifier::ModifyDerive<MIProfilePage, ProfilePage> >::setHookPriorityBefore(std::__ndk1::basic_string_view<char, std::__ndk1::char_traits<char> >, geode::Mod*)::{lambda(geode::ModStateEvent*)#1}, std::__ndk1::allocator<geode::modifier::ModifyBase<geode::modifier::ModifyDerive<MIProfilePage, ProfilePage> >::setHookPriorityBefore(std::__ndk1::basic_string_view<char, std::__ndk1::char_traits<char> >, geode::Mod*)::{lambda(geode::ModStateEvent*)#1}>, void (geode::ModStateEvent*)>::operator()(geode::ModStateEvent*&&)
PUBLIC 57d68 0 std::__ndk1::__function::__func<geode::modifier::ModifyBase<geode::modifier::ModifyDerive<MIProfilePage, ProfilePage> >::setHookPriorityBefore(std::__ndk1::basic_string_view<char, std::__ndk1::char_traits<char> >, geode::Mod*)::{lambda(geode::ModStateEvent*)#1}, std::__ndk1::allocator<geode::modifier::ModifyBase<geode::modifier::ModifyDerive<MIProfilePage, ProfilePage> >::setHookPriorityBefore(std::__ndk1::basic_string_view<char, std::__ndk1::char_traits<char> >, geode::Mod*)::{lambda(geode::ModStateEvent*)#1}>, void (geode::ModStateEvent*)>::target(std::type_info const&) const
PUBLIC 57d84 0 std::__ndk1::__function::__func<geode::modifier::ModifyBase<geode::modifier::ModifyDerive<MIProfilePage, ProfilePage> >::setHookPriorityBefore(std::__ndk1::basic_string_view<char, std::__ndk1::char_traits<char> >, geode::Mod*)::{lambda(geode::ModStateEvent*)#1}, std::__ndk1::allocator<geode::modifier::ModifyBase<geode::modifier::ModifyDerive<MIProfilePage, ProfilePage> >::setHookPriorityBefore(std::__ndk1::basic_string_view<char, std::__ndk1::char_traits<char> >, geode::Mod*)::{lambda(geode::ModStateEvent*)#1}>, void (geode::ModStateEvent*)>::target_type() const
PUBLIC 57d90 0 geode::modifier::AsStaticFunction_loadPageFromUserInfo<MIProfilePage, void (MIProfilePage::*)(GJUserScore*)>::Impl<void (MIProfilePage::*)(GJUserScore*)>::function(MIProfilePage*, GJUserScore*)
PUBLIC 57ebc 0 geode::modifier::AsStaticFunction_toggleShip<MIProfilePage, void (MIProfilePage::*)(cocos2d::CCObject*)>::Impl<void (MIProfilePage::*)(cocos2d::CCObject*)>::function(MIProfilePage*, cocos2d::CCObject*)
PUBLIC 58020 0 MIProfilePage::changePlayers()
PUBLIC 58724 0 MIProfilePage::newOn2PToggle(cocos2d::CCObject*)
PUBLIC 58820 0 std::__ndk1::__function::__func<MIProfilePage::findPlayer(cocos2d::CCNode*)::{lambda(auto:1)#1}, std::__ndk1::allocator<MIProfilePage::findPlayer(cocos2d::CCNode*)::{lambda(auto:1)#1}>, bool (SimplePlayer*)>::~__func()
PUBLIC 58824 0 std::__ndk1::__function::__func<MIProfilePage::findPlayer(cocos2d::CCNode*)::{lambda(auto:1)#1}, std::__ndk1::allocator<MIProfilePage::findPlayer(cocos2d::CCNode*)::{lambda(auto:1)#1}>, bool (SimplePlayer*)>::__clone() const
PUBLIC 58848 0 std::__ndk1::__function::__func<MIProfilePage::findPlayer(cocos2d::CCNode*)::{lambda(auto:1)#1}, std::__ndk1::allocator<MIProfilePage::findPlayer(cocos2d::CCNode*)::{lambda(auto:1)#1}>, bool (SimplePlayer*)>::__clone(std::__ndk1::__function::__base<bool (SimplePlayer*)>*) const
PUBLIC 58858 0 std::__ndk1::__function::__func<MIProfilePage::findPlayer(cocos2d::CCNode*)::{lambda(auto:1)#1}, std::__ndk1::allocator<MIProfilePage::findPlayer(cocos2d::CCNode*)::{lambda(auto:1)#1}>, bool (SimplePlayer*)>::destroy()
PUBLIC 5885c 0 std::__ndk1::__function::__func<MIProfilePage::findPlayer(cocos2d::CCNode*)::{lambda(auto:1)#1}, std::__ndk1::allocator<MIProfilePage::findPlayer(cocos2d::CCNode*)::{lambda(auto:1)#1}>, bool (SimplePlayer*)>::destroy_deallocate()
PUBLIC 58860 0 std::__ndk1::__function::__func<MIProfilePage::findPlayer(cocos2d::CCNode*)::{lambda(auto:1)#1}, std::__ndk1::allocator<MIProfilePage::findPlayer(cocos2d::CCNode*)::{lambda(auto:1)#1}>, bool (SimplePlayer*)>::operator()(SimplePlayer*&&)
PUBLIC 58868 0 std::__ndk1::__function::__func<MIProfilePage::findPlayer(cocos2d::CCNode*)::{lambda(auto:1)#1}, std::__ndk1::allocator<MIProfilePage::findPlayer(cocos2d::CCNode*)::{lambda(auto:1)#1}>, bool (SimplePlayer*)>::target(std::type_info const&) const
PUBLIC 58884 0 std::__ndk1::__function::__func<MIProfilePage::findPlayer(cocos2d::CCNode*)::{lambda(auto:1)#1}, std::__ndk1::allocator<MIProfilePage::findPlayer(cocos2d::CCNode*)::{lambda(auto:1)#1}>, bool (SimplePlayer*)>::target_type() const
PUBLIC 58890 0 __cxx_global_var_init.10
PUBLIC 58d00 0 geode::modifier::ModifyBase<geode::modifier::ModifyDerive<MISimplePlayer, SimplePlayer> >::~ModifyBase()
PUBLIC 58d1c 0 geode::modifier::ModifyDerive<MISimplePlayer, SimplePlayer>::apply()
PUBLIC 590d8 0 geode::modifier::ModifyBase<geode::modifier::ModifyDerive<MISimplePlayer, SimplePlayer> >::apply()
PUBLIC 590dc 0 geode::modifier::AsStaticFunction_updatePlayerFrame<MISimplePlayer, void (MISimplePlayer::*)(int, IconType)>::Impl<void (MISimplePlayer::*)(int, IconType)>::function(MISimplePlayer*, int, IconType)
PUBLIC 591a4 0 geodeExecFunction57<(anonymous namespace)::ExecFuncUnique57>(geode::ModStateEvent*)
PUBLIC 591a8 0 MoreIcons::naturalSort(std::__ndk1::vector<std::__ndk1::basic_string<char, std::__ndk1::char_traits<char>, std::__ndk1::allocator<char> >, std::__ndk1::allocator<std::__ndk1::basic_string<char, std::__ndk1::char_traits<char>, std::__ndk1::allocator<char> > > >&)
PUBLIC 59b8c 0 MoreIcons::naturalSorter(std::__ndk1::basic_string<char, std::__ndk1::char_traits<char>, std::__ndk1::allocator<char> > const&, std::__ndk1::basic_string<char, std::__ndk1::char_traits<char>, std::__ndk1::allocator<char> > const&)
PUBLIC 5a390 0 MoreIcons::getTexturePacks()
PUBLIC 5af8c 0 IconPack::~IconPack()
PUBLIC 5aff0 0 std::__ndk1::vector<geode::texture_loader::Pack, std::__ndk1::allocator<geode::texture_loader::Pack> >::~vector[abi:ne190000]()
PUBLIC 5b058 0 std::__ndk1::vector<IconPack, std::__ndk1::allocator<IconPack> >::~vector[abi:ne190000]()
PUBLIC 5b11c 0 MoreIcons::unzipVanillaAssets()
PUBLIC 5bb84 0 MoreIcons::vanillaTexturePath(std::__ndk1::basic_string<char, std::__ndk1::char_traits<char>, std::__ndk1::allocator<char> > const&, bool)
PUBLIC 5c070 0 getFrameName(std::__ndk1::basic_string<char, std::__ndk1::char_traits<char>, std::__ndk1::allocator<char> > const&, std::__ndk1::basic_string<char, std::__ndk1::char_traits<char>, std::__ndk1::allocator<char> > const&, IconType)
PUBLIC 5c82c 0 replaceEnd(std::__ndk1::basic_string<char, std::__ndk1::char_traits<char>, std::__ndk1::allocator<char> > const&, std::__ndk1::basic_string_view<char, std::__ndk1::char_traits<char> >, std::__ndk1::basic_string_view<char, std::__ndk1::char_traits<char> >)
PUBLIC 5c9b4 0 BS::thread_pool<(unsigned char)0>::~thread_pool()
PUBLIC 5cb80 0 MoreIcons::loadIcons(std::__ndk1::vector<IconPack, std::__ndk1::allocator<IconPack> > const&, std::__ndk1::basic_string_view<char, std::__ndk1::char_traits<char> >, IconType)
PUBLIC 5e4a8 0 std::__ndk1::__fs::filesystem::directory_iterator::~directory_iterator[abi:ne190000]()
PUBLIC 5e4f8 0 MoreIcons::loadIcon(std::__ndk1::__fs::filesystem::path const&, IconPack const&, IconType)
PUBLIC 5ee8c 0 IconPack::IconPack(IconPack const&)
PUBLIC 5efa0 0 MoreIcons::loadIcon(std::__ndk1::__fs::filesystem::path const&, IconPack const&, IconType)::$_0::~$_0()
PUBLIC 5f01c 0 MoreIcons::loadIcon(std::__ndk1::__fs::filesystem::path const&, IconPack const&, IconType)::$_1::~$_1()
PUBLIC 5f098 0 MoreIcons::loadVanillaIcon(std::__ndk1::__fs::filesystem::path const&, IconPack const&, IconType)::$_0::~$_0()
PUBLIC 5f114 0 MoreIcons::loadTrails(std::__ndk1::vector<IconPack, std::__ndk1::allocator<IconPack> > const&)
PUBLIC 60d68 0 MoreIcons::loadTrail(std::__ndk1::__fs::filesystem::path const&, IconPack const&)::$_0::~$_0()
PUBLIC 60de4 0 MoreIcons::loadVanillaTrail(std::__ndk1::__fs::filesystem::path const&, IconPack const&)::$_0::~$_0()
PUBLIC 60e60 0 MoreIcons::saveTrails()
PUBLIC 61294 0 matjson::makeObject(std::initializer_list<std::__ndk1::pair<std::__ndk1::basic_string<char, std::__ndk1::char_traits<char>, std::__ndk1::allocator<char> >, matjson::Value> >)
PUBLIC 61578 0 std::__ndk1::pair<std::__ndk1::basic_string<char, std::__ndk1::char_traits<char>, std::__ndk1::allocator<char> >, matjson::Value>::~pair()
PUBLIC 615b4 0 MoreIcons::dualSelected()
PUBLIC 616a4 0 geode::Mod::getSavedValue<bool>(std::__ndk1::basic_string_view<char, std::__ndk1::char_traits<char> >, bool const&)
PUBLIC 61880 0 MoreIcons::showInfoPopup(bool)
PUBLIC 61c20 0 ImageData::~ImageData()
PUBLIC 61cb4 0 TexturePack::~TexturePack()
PUBLIC 61cf8 0 std::__ndk1::__introsort<std::__ndk1::_ClassicAlgPolicy, bool (*&)(std::__ndk1::basic_string<char, std::__ndk1::char_traits<char>, std::__ndk1::allocator<char> > const&, std::__ndk1::basic_string<char, std::__ndk1::char_traits<char>, std::__ndk1::allocator<char> > const&), std::__ndk1::basic_string<char, std::__ndk1::char_traits<char>, std::__ndk1::allocator<char> >*, false>(std::__ndk1::basic_string<char, std::__ndk1::char_traits<char>, std::__ndk1::allocator<char> >*, std::__ndk1::basic_string<char, std::__ndk1::char_traits<char>, std::__ndk1::allocator<char> >*, bool (*&)(std::__ndk1::basic_string<char, std::__ndk1::char_traits<char>, std::__ndk1::allocator<char> > const&, std::__ndk1::basic_string<char, std::__ndk1::char_traits<char>, std::__ndk1::allocator<char> > const&), std::__ndk1::iterator_traits<std::__ndk1::basic_string<char, std::__ndk1::char_traits<char>, std::__ndk1::allocator<char> >*>::difference_type, bool)
PUBLIC 63024 0 std::__ndk1::__insertion_sort_incomplete[abi:ne190000]<std::__ndk1::_ClassicAlgPolicy, bool (*&)(std::__ndk1::basic_string<char, std::__ndk1::char_traits<char>, std::__ndk1::allocator<char> > const&, std::__ndk1::basic_string<char, std::__ndk1::char_traits<char>, std::__ndk1::allocator<char> > const), std::__ndk1::allocator<char>*>(std::__ndk1::allocator<char>*, std::__ndk1::allocator<char>*, bool (*&)(std::__ndk1::basic_string<char, std::__ndk1::char_traits<char>, std::__ndk1::allocator<char> > const&, std::__ndk1::basic_string<char, std::__ndk1::char_traits<char>, std::__ndk1::allocator<char> > const))
PUBLIC 63598 0 std::__ndk1::__sort4[abi:ne190000]<std::__ndk1::_ClassicAlgPolicy, bool (*&)(std::__ndk1::basic_string<char, std::__ndk1::char_traits<char>, std::__ndk1::allocator<char> > const&, std::__ndk1::basic_string<char, std::__ndk1::char_traits<char>, std::__ndk1::allocator<char> > const), std::__ndk1::allocator<char>*>(std::__ndk1::allocator<char>*, std::__ndk1::allocator<char>*, std::__ndk1::allocator<char>*, std::__ndk1::allocator<char>*, bool (*&)(std::__ndk1::basic_string<char, std::__ndk1::char_traits<char>, std::__ndk1::allocator<char> > const&, std::__ndk1::basic_string<char, std::__ndk1::char_traits<char>, std::__ndk1::allocator<char> > const))
PUBLIC 63798 0 std::__ndk1::basic_string<char, std::__ndk1::char_traits<char>, std::__ndk1::allocator<char> >::__assign_no_alias<true>(char const*, unsigned long)
PUBLIC 63844 0 std::__ndk1::basic_string<char, std::__ndk1::char_traits<char>, std::__ndk1::allocator<char> >::__assign_no_alias<false>(char const*, unsigned long)
PUBLIC 63980 0 std::__ndk1::vector<IconPack, std::__ndk1::allocator<IconPack> >::__push_back_slow_path<IconPack>(IconPack&&)
PUBLIC 63b80 0 std::__ndk1::vector<IconPack, std::__ndk1::allocator<IconPack> >::__throw_length_error[abi:ne190000]() const
PUBLIC 63b94 0 geode::DispatchEvent<std::__ndk1::vector<geode::texture_loader::Pack, std::__ndk1::allocator<geode::texture_loader::Pack> >*>::~DispatchEvent()
PUBLIC 63bd4 0 geode::DispatchEvent<std::__ndk1::vector<geode::texture_loader::Pack, std::__ndk1::allocator<geode::texture_loader::Pack> >*>::getPool() const
PUBLIC 63c6c 0 geode::DispatchEvent<std::__ndk1::vector<geode::texture_loader::Pack, std::__ndk1::allocator<geode::texture_loader::Pack> >*>::~DispatchEvent()
PUBLIC 63cb0 0 std::__ndk1::__hash_table<std::__ndk1::__hash_value_type<std::__ndk1::basic_string<char, std::__ndk1::char_traits<char>, std::__ndk1::allocator<char> >, geode::EventListenerPool*>, std::__ndk1::__unordered_map_hasher<std::__ndk1::basic_string<char, std::__ndk1::char_traits<char>, std::__ndk1::allocator<char> >, std::__ndk1::__hash_value_type<std::__ndk1::basic_string<char, std::__ndk1::char_traits<char>, std::__ndk1::allocator<char> >, geode::EventListenerPool*>, std::__ndk1::hash<std::__ndk1::basic_string<char, std::__ndk1::char_traits<char>, std::__ndk1::allocator<char> > >, std::__ndk1::equal_to<std::__ndk1::basic_string<char, std::__ndk1::char_traits<char>, std::__ndk1::allocator<char> > >, true>, std::__ndk1::__unordered_map_equal<std::__ndk1::basic_string<char, std::__ndk1::char_traits<char>, std::__ndk1::allocator<char> >, std::__ndk1::__hash_value_type<std::__ndk1::basic_string<char, std::__ndk1::char_traits<char>, std::__ndk1::allocator<char> >, geode::EventListenerPool*>, std::__ndk1::equal_to<std::__ndk1::basic_string<char, std::__ndk1::char_traits<char>, std::__ndk1::allocator<char> > >, std::__ndk1::hash<std::__ndk1::basic_string<char, std::__ndk1::char_traits<char>, std::__ndk1::allocator<char> > >, true>, std::__ndk1::allocator<std::__ndk1::__hash_value_type<std::__ndk1::basic_string<char, std::__ndk1::char_traits<char>, std::__ndk1::allocator<char> >, geode::EventListenerPool*> > >::find<std::__ndk1::basic_string<char, std::__ndk1::char_traits<char>, std::__ndk1::allocator<char> > >(std::__ndk1::basic_string<char, std::__ndk1::char_traits<char>, std::__ndk1::allocator<char> > const&) const
PUBLIC 63f04 0 std::__ndk1::__hash_table<std::__ndk1::__hash_value_type<std::__ndk1::basic_string<char, std::__ndk1::char_traits<char>, std::__ndk1::allocator<char> >, geode::EventListenerPool*>, std::__ndk1::__unordered_map_hasher<std::__ndk1::basic_string<char, std::__ndk1::char_traits<char>, std::__ndk1::allocator<char> >, std::__ndk1::__hash_value_type<std::__ndk1::basic_string<char, std::__ndk1::char_traits<char>, std::__ndk1::allocator<char> >, geode::EventListenerPool*>, std::__ndk1::hash<std::__ndk1::basic_string<char, std::__ndk1::char_traits<char>, std::__ndk1::allocator<char> > >, std::__ndk1::equal_to<std::__ndk1::basic_string<char, std::__ndk1::char_traits<char>, std::__ndk1::allocator<char> > >, true>, std::__ndk1::__unordered_map_equal<std::__ndk1::basic_string<char, std::__ndk1::char_traits<char>, std::__ndk1::allocator<char> >, std::__ndk1::__hash_value_type<std::__ndk1::basic_string<char, std::__ndk1::char_traits<char>, std::__ndk1::allocator<char> >, geode::EventListenerPool*>, std::__ndk1::equal_to<std::__ndk1::basic_string<char, std::__ndk1::char_traits<char>, std::__ndk1::allocator<char> > >, std::__ndk1::hash<std::__ndk1::basic_string<char, std::__ndk1::char_traits<char>, std::__ndk1::allocator<char> > >, true>, std::__ndk1::allocator<std::__ndk1::__hash_value_type<std::__ndk1::basic_string<char, std::__ndk1::char_traits<char>, std::__ndk1::allocator<char> >, geode::EventListenerPool*> > >::__emplace_unique_key_args<std::__ndk1::basic_string<char, std::__ndk1::char_traits<char>, std::__ndk1::allocator<char> >, std::__ndk1::piecewise_construct_t const&, std::__ndk1::tuple<std::__ndk1::basic_string<char, std::__ndk1::char_traits<char>, std::__ndk1::allocator<char> > const&>, std::__ndk1::tuple<> >(std::__ndk1::basic_string<char, std::__ndk1::char_traits<char>, std::__ndk1::allocator<char> > const&, std::__ndk1::piecewise_construct_t const&, std::__ndk1::tuple<std::__ndk1::basic_string<char, std::__ndk1::char_traits<char>, std::__ndk1::allocator<char> > const&>, std::__ndk1::tuple<>)
PUBLIC 6455c 0 std::__ndk1::unique_ptr<std::__ndk1::__hash_node<std::__ndk1::__hash_value_type<std::__ndk1::basic_string<char, std::__ndk1::char_traits<char>, std::__ndk1::allocator<char> >, geode::EventListenerPool*>, void*>, std::__ndk1::__hash_node_destructor<std::__ndk1::allocator<std::__ndk1::__hash_node<std::__ndk1::__hash_value_type<std::__ndk1::basic_string<char, std::__ndk1::char_traits<char>, std::__ndk1::allocator<char> >, geode::EventListenerPool*>, void*> > > >::~unique_ptr[abi:ne190000]()
PUBLIC 645ac 0 std::__ndk1::__fs::filesystem::path::operator/=[abi:ne190000](std::__ndk1::__fs::filesystem::path const&)
PUBLIC 64694 0 geode::texture_loader::Pack::~Pack()
PUBLIC 6476c 0 std::__ndk1::vector<matjson::Value, std::__ndk1::allocator<matjson::Value> >::~vector[abi:ne190000]()
PUBLIC 647d4 0 std::__ndk1::__split_buffer<matjson::Value, std::__ndk1::allocator<matjson::Value>&>::~__split_buffer()
PUBLIC 64828 0 std::__ndk1::vector<matjson::Value, std::__ndk1::allocator<matjson::Value> >::__throw_length_error[abi:ne190000]() const
PUBLIC 6483c 0 _ZNSt6__ndk112basic_stringIcNS_11char_traitsIcEENS_9allocatorIcEEE6appendB8ne190000IPKcTnNS_9enable_ifIXsr31__has_forward_iterator_categoryIT_EE5valueEiE4typeELi0EEERS5_SA_SA_
PUBLIC 64b80 0 geodeExecFunction14<(anonymous namespace)::ExecFuncUnique14>()::{lambda(SimplePlayer*, std::__ndk1::basic_string<char, std::__ndk1::char_traits<char>, std::__ndk1::allocator<char> > const&, IconType)#1}::__invoke(SimplePlayer*, std::__ndk1::basic_string<char, std::__ndk1::char_traits<char>, std::__ndk1::allocator<char> > const&, IconType)
PUBLIC 64b98 0 std::__ndk1::__function::__base<geode::ListenerResult(SimplePlayer*, std::__ndk1::basic_string<char, std::__ndk1::char_traits<char>, std::__ndk1::allocator<char> >, IconType)>::~__base()
PUBLIC 64b9c 0 std::__ndk1::__function::__func<geode::ListenerResult (*)(SimplePlayer*, std::__ndk1::basic_string<char, std::__ndk1::char_traits<char>, std::__ndk1::allocator<char> > const&, IconType), std::__ndk1::allocator<geode::ListenerResult (*)(SimplePlayer*, std::__ndk1::basic_string<char, std::__ndk1::char_traits<char>, std::__ndk1::allocator<char> > const&, IconType)>, geode::ListenerResult(SimplePlayer*, std::__ndk1::basic_string<char, std::__ndk1::char_traits<char>, std::__ndk1::allocator<char> >, IconType)>::~__func()
PUBLIC 64ba0 0 std::__ndk1::__function::__func<geode::ListenerResult (*)(SimplePlayer*, std::__ndk1::basic_string<char, std::__ndk1::char_traits<char>, std::__ndk1::allocator<char> > const&, IconType), std::__ndk1::allocator<geode::ListenerResult (*)(SimplePlayer*, std::__ndk1::basic_string<char, std::__ndk1::char_traits<char>, std::__ndk1::allocator<char> > const&, IconType)>, geode::ListenerResult(SimplePlayer*, std::__ndk1::basic_string<char, std::__ndk1::char_traits<char>, std::__ndk1::allocator<char> >, IconType)>::__clone() const
PUBLIC 64bd4 0 std::__ndk1::__function::__func<geode::ListenerResult (*)(SimplePlayer*, std::__ndk1::basic_string<char, std::__ndk1::char_traits<char>, std::__ndk1::allocator<char> > const&, IconType), std::__ndk1::allocator<geode::ListenerResult (*)(SimplePlayer*, std::__ndk1::basic_string<char, std::__ndk1::char_traits<char>, std::__ndk1::allocator<char> > const&, IconType)>, geode::ListenerResult(SimplePlayer*, std::__ndk1::basic_string<char, std::__ndk1::char_traits<char>, std::__ndk1::allocator<char> >, IconType)>::__clone(std::__ndk1::__function::__base<geode::ListenerResult(SimplePlayer*, std::__ndk1::basic_string<char, std::__ndk1::char_traits<char>, std::__ndk1::allocator<char> >, IconType)>*) const
PUBLIC 64be8 0 std::__ndk1::__function::__func<geode::ListenerResult (*)(SimplePlayer*, std::__ndk1::basic_string<char, std::__ndk1::char_traits<char>, std::__ndk1::allocator<char> > const&, IconType), std::__ndk1::allocator<geode::ListenerResult (*)(SimplePlayer*, std::__ndk1::basic_string<char, std::__ndk1::char_traits<char>, std::__ndk1::allocator<char> > const&, IconType)>, geode::ListenerResult(SimplePlayer*, std::__ndk1::basic_string<char, std::__ndk1::char_traits<char>, std::__ndk1::allocator<char> >, IconType)>::destroy()
PUBLIC 64bec 0 std::__ndk1::__function::__func<geode::ListenerResult (*)(SimplePlayer*, std::__ndk1::basic_string<char, std::__ndk1::char_traits<char>, std::__ndk1::allocator<char> > const&, IconType), std::__ndk1::allocator<geode::ListenerResult (*)(SimplePlayer*, std::__ndk1::basic_string<char, std::__ndk1::char_traits<char>, std::__ndk1::allocator<char> > const&, IconType)>, geode::ListenerResult(SimplePlayer*, std::__ndk1::basic_string<char, std::__ndk1::char_traits<char>, std::__ndk1::allocator<char> >, IconType)>::destroy_deallocate()
PUBLIC 64bf0 0 std::__ndk1::__function::__func<geode::ListenerResult (*)(SimplePlayer*, std::__ndk1::basic_string<char, std::__ndk1::char_traits<char>, std::__ndk1::allocator<char> > const&, IconType), std::__ndk1::allocator<geode::ListenerResult (*)(SimplePlayer*, std::__ndk1::basic_string<char, std::__ndk1::char_traits<char>, std::__ndk1::allocator<char> > const&, IconType)>, geode::ListenerResult(SimplePlayer*, std::__ndk1::basic_string<char, std::__ndk1::char_traits<char>, std::__ndk1::allocator<char> >, IconType)>::operator()(SimplePlayer*&&, std::__ndk1::basic_string<char, std::__ndk1::char_traits<char>, std::__ndk1::allocator<char> >&&, IconType&&)
PUBLIC 64c0c 0 std::__ndk1::__function::__func<geode::ListenerResult (*)(SimplePlayer*, std::__ndk1::basic_string<char, std::__ndk1::char_traits<char>, std::__ndk1::allocator<char> > const&, IconType), std::__ndk1::allocator<geode::ListenerResult (*)(SimplePlayer*, std::__ndk1::basic_string<char, std::__ndk1::char_traits<char>, std::__ndk1::allocator<char> > const&, IconType)>, geode::ListenerResult(SimplePlayer*, std::__ndk1::basic_string<char, std::__ndk1::char_traits<char>, std::__ndk1::allocator<char> >, IconType)>::target(std::type_info const&) const
PUBLIC 64c28 0 std::__ndk1::__function::__func<geode::ListenerResult (*)(SimplePlayer*, std::__ndk1::basic_string<char, std::__ndk1::char_traits<char>, std::__ndk1::allocator<char> > const&, IconType), std::__ndk1::allocator<geode::ListenerResult (*)(SimplePlayer*, std::__ndk1::basic_string<char, std::__ndk1::char_traits<char>, std::__ndk1::allocator<char> > const&, IconType)>, geode::ListenerResult(SimplePlayer*, std::__ndk1::basic_string<char, std::__ndk1::char_traits<char>, std::__ndk1::allocator<char> >, IconType)>::target_type() const
PUBLIC 64c34 0 geode::EventListener<geode::DispatchFilter<SimplePlayer*, std::__ndk1::basic_string<char, std::__ndk1::char_traits<char>, std::__ndk1::allocator<char> >, IconType> >::getPool() const
PUBLIC 64ccc 0 geode::EventListener<geode::DispatchFilter<SimplePlayer*, std::__ndk1::basic_string<char, std::__ndk1::char_traits<char>, std::__ndk1::allocator<char> >, IconType> >::handle(geode::Event*)
PUBLIC 65050 0 geode::EventListener<geode::DispatchFilter<SimplePlayer*, std::__ndk1::basic_string<char, std::__ndk1::char_traits<char>, std::__ndk1::allocator<char> >, IconType> >::~EventListener()
PUBLIC 650bc 0 geode::EventListener<geode::DispatchFilter<SimplePlayer*, std::__ndk1::basic_string<char, std::__ndk1::char_traits<char>, std::__ndk1::allocator<char> >, IconType> >::~EventListener()
PUBLIC 65130 0 geodeExecFunction14<(anonymous namespace)::ExecFuncUnique14>()::{lambda(GJRobotSprite*, std::__ndk1::basic_string<char, std::__ndk1::char_traits<char>, std::__ndk1::allocator<char> > const&)#1}::__invoke(GJRobotSprite*, std::__ndk1::basic_string<char, std::__ndk1::char_traits<char>, std::__ndk1::allocator<char> > const&)
PUBLIC 65148 0 std::__ndk1::__function::__base<geode::ListenerResult(GJRobotSprite*, std::__ndk1::basic_string<char, std::__ndk1::char_traits<char>, std::__ndk1::allocator<char> >)>::~__base()
PUBLIC 6514c 0 std::__ndk1::__function::__func<geode::ListenerResult (*)(GJRobotSprite*, std::__ndk1::basic_string<char, std::__ndk1::char_traits<char>, std::__ndk1::allocator<char> > const&), std::__ndk1::allocator<geode::ListenerResult (*)(GJRobotSprite*, std::__ndk1::basic_string<char, std::__ndk1::char_traits<char>, std::__ndk1::allocator<char> > const&)>, geode::ListenerResult(GJRobotSprite*, std::__ndk1::basic_string<char, std::__ndk1::char_traits<char>, std::__ndk1::allocator<char> >)>::~__func()
PUBLIC 65150 0 std::__ndk1::__function::__func<geode::ListenerResult (*)(GJRobotSprite*, std::__ndk1::basic_string<char, std::__ndk1::char_traits<char>, std::__ndk1::allocator<char> > const&), std::__ndk1::allocator<geode::ListenerResult (*)(GJRobotSprite*, std::__ndk1::basic_string<char, std::__ndk1::char_traits<char>, std::__ndk1::allocator<char> > const&)>, geode::ListenerResult(GJRobotSprite*, std::__ndk1::basic_string<char, std::__ndk1::char_traits<char>, std::__ndk1::allocator<char> >)>::__clone() const
PUBLIC 65184 0 std::__ndk1::__function::__func<geode::ListenerResult (*)(GJRobotSprite*, std::__ndk1::basic_string<char, std::__ndk1::char_traits<char>, std::__ndk1::allocator<char> > const&), std::__ndk1::allocator<geode::ListenerResult (*)(GJRobotSprite*, std::__ndk1::basic_string<char, std::__ndk1::char_traits<char>, std::__ndk1::allocator<char> > const&)>, geode::ListenerResult(GJRobotSprite*, std::__ndk1::basic_string<char, std::__ndk1::char_traits<char>, std::__ndk1::allocator<char> >)>::__clone(std::__ndk1::__function::__base<geode::ListenerResult(GJRobotSprite*, std::__ndk1::basic_string<char, std::__ndk1::char_traits<char>, std::__ndk1::allocator<char> >)>*) const
PUBLIC 65198 0 std::__ndk1::__function::__func<geode::ListenerResult (*)(GJRobotSprite*, std::__ndk1::basic_string<char, std::__ndk1::char_traits<char>, std::__ndk1::allocator<char> > const&), std::__ndk1::allocator<geode::ListenerResult (*)(GJRobotSprite*, std::__ndk1::basic_string<char, std::__ndk1::char_traits<char>, std::__ndk1::allocator<char> > const&)>, geode::ListenerResult(GJRobotSprite*, std::__ndk1::basic_string<char, std::__ndk1::char_traits<char>, std::__ndk1::allocator<char> >)>::destroy()
PUBLIC 6519c 0 std::__ndk1::__function::__func<geode::ListenerResult (*)(GJRobotSprite*, std::__ndk1::basic_string<char, std::__ndk1::char_traits<char>, std::__ndk1::allocator<char> > const&), std::__ndk1::allocator<geode::ListenerResult (*)(GJRobotSprite*, std::__ndk1::basic_string<char, std::__ndk1::char_traits<char>, std::__ndk1::allocator<char> > const&)>, geode::ListenerResult(GJRobotSprite*, std::__ndk1::basic_string<char, std::__ndk1::char_traits<char>, std::__ndk1::allocator<char> >)>::destroy_deallocate()
PUBLIC 651a0 0 std::__ndk1::__function::__func<geode::ListenerResult (*)(GJRobotSprite*, std::__ndk1::basic_string<char, std::__ndk1::char_traits<char>, std::__ndk1::allocator<char> > const&), std::__ndk1::allocator<geode::ListenerResult (*)(GJRobotSprite*, std::__ndk1::basic_string<char, std::__ndk1::char_traits<char>, std::__ndk1::allocator<char> > const&)>, geode::ListenerResult(GJRobotSprite*, std::__ndk1::basic_string<char, std::__ndk1::char_traits<char>, std::__ndk1::allocator<char> >)>::operator()(GJRobotSprite*&&, std::__ndk1::basic_string<char, std::__ndk1::char_traits<char>, std::__ndk1::allocator<char> >&&)
PUBLIC 651b4 0 std::__ndk1::__function::__func<geode::ListenerResult (*)(GJRobotSprite*, std::__ndk1::basic_string<char, std::__ndk1::char_traits<char>, std::__ndk1::allocator<char> > const&), std::__ndk1::allocator<geode::ListenerResult (*)(GJRobotSprite*, std::__ndk1::basic_string<char, std::__ndk1::char_traits<char>, std::__ndk1::allocator<char> > const&)>, geode::ListenerResult(GJRobotSprite*, std::__ndk1::basic_string<char, std::__ndk1::char_traits<char>, std::__ndk1::allocator<char> >)>::target(std::type_info const&) const
PUBLIC 651d0 0 std::__ndk1::__function::__func<geode::ListenerResult (*)(GJRobotSprite*, std::__ndk1::basic_string<char, std::__ndk1::char_traits<char>, std::__ndk1::allocator<char> > const&), std::__ndk1::allocator<geode::ListenerResult (*)(GJRobotSprite*, std::__ndk1::basic_string<char, std::__ndk1::char_traits<char>, std::__ndk1::allocator<char> > const&)>, geode::ListenerResult(GJRobotSprite*, std::__ndk1::basic_string<char, std::__ndk1::char_traits<char>, std::__ndk1::allocator<char> >)>::target_type() const
PUBLIC 651dc 0 geode::EventListener<geode::DispatchFilter<GJRobotSprite*, std::__ndk1::basic_string<char, std::__ndk1::char_traits<char>, std::__ndk1::allocator<char> > > >::getPool() const
PUBLIC 65274 0 geode::EventListener<geode::DispatchFilter<GJRobotSprite*, std::__ndk1::basic_string<char, std::__ndk1::char_traits<char>, std::__ndk1::allocator<char> > > >::handle(geode::Event*)
PUBLIC 655e4 0 geode::EventListener<geode::DispatchFilter<GJRobotSprite*, std::__ndk1::basic_string<char, std::__ndk1::char_traits<char>, std::__ndk1::allocator<char> > > >::~EventListener()
PUBLIC 65650 0 geode::EventListener<geode::DispatchFilter<GJRobotSprite*, std::__ndk1::basic_string<char, std::__ndk1::char_traits<char>, std::__ndk1::allocator<char> > > >::~EventListener()
PUBLIC 656c4 0 geodeExecFunction14<(anonymous namespace)::ExecFuncUnique14>()::{lambda(GJRobotSprite*, std::__ndk1::basic_string<char, std::__ndk1::char_traits<char>, std::__ndk1::allocator<char> > const&, IconType)#1}::__invoke(GJRobotSprite*, std::__ndk1::basic_string<char, std::__ndk1::char_traits<char>, std::__ndk1::allocator<char> > const&, IconType)
PUBLIC 656dc 0 std::__ndk1::__function::__base<geode::ListenerResult(GJRobotSprite*, std::__ndk1::basic_string<char, std::__ndk1::char_traits<char>, std::__ndk1::allocator<char> >, IconType)>::~__base()
PUBLIC 656e0 0 std::__ndk1::__function::__func<geode::ListenerResult (*)(GJRobotSprite*, std::__ndk1::basic_string<char, std::__ndk1::char_traits<char>, std::__ndk1::allocator<char> > const&, IconType), std::__ndk1::allocator<geode::ListenerResult (*)(GJRobotSprite*, std::__ndk1::basic_string<char, std::__ndk1::char_traits<char>, std::__ndk1::allocator<char> > const&, IconType)>, geode::ListenerResult(GJRobotSprite*, std::__ndk1::basic_string<char, std::__ndk1::char_traits<char>, std::__ndk1::allocator<char> >, IconType)>::~__func()
PUBLIC 656e4 0 std::__ndk1::__function::__func<geode::ListenerResult (*)(GJRobotSprite*, std::__ndk1::basic_string<char, std::__ndk1::char_traits<char>, std::__ndk1::allocator<char> > const&, IconType), std::__ndk1::allocator<geode::ListenerResult (*)(GJRobotSprite*, std::__ndk1::basic_string<char, std::__ndk1::char_traits<char>, std::__ndk1::allocator<char> > const&, IconType)>, geode::ListenerResult(GJRobotSprite*, std::__ndk1::basic_string<char, std::__ndk1::char_traits<char>, std::__ndk1::allocator<char> >, IconType)>::__clone() const
PUBLIC 65718 0 std::__ndk1::__function::__func<geode::ListenerResult (*)(GJRobotSprite*, std::__ndk1::basic_string<char, std::__ndk1::char_traits<char>, std::__ndk1::allocator<char> > const&, IconType), std::__ndk1::allocator<geode::ListenerResult (*)(GJRobotSprite*, std::__ndk1::basic_string<char, std::__ndk1::char_traits<char>, std::__ndk1::allocator<char> > const&, IconType)>, geode::ListenerResult(GJRobotSprite*, std::__ndk1::basic_string<char, std::__ndk1::char_traits<char>, std::__ndk1::allocator<char> >, IconType)>::__clone(std::__ndk1::__function::__base<geode::ListenerResult(GJRobotSprite*, std::__ndk1::basic_string<char, std::__ndk1::char_traits<char>, std::__ndk1::allocator<char> >, IconType)>*) const
PUBLIC 6572c 0 std::__ndk1::__function::__func<geode::ListenerResult (*)(GJRobotSprite*, std::__ndk1::basic_string<char, std::__ndk1::char_traits<char>, std::__ndk1::allocator<char> > const&, IconType), std::__ndk1::allocator<geode::ListenerResult (*)(GJRobotSprite*, std::__ndk1::basic_string<char, std::__ndk1::char_traits<char>, std::__ndk1::allocator<char> > const&, IconType)>, geode::ListenerResult(GJRobotSprite*, std::__ndk1::basic_string<char, std::__ndk1::char_traits<char>, std::__ndk1::allocator<char> >, IconType)>::destroy()
PUBLIC 65730 0 std::__ndk1::__function::__func<geode::ListenerResult (*)(GJRobotSprite*, std::__ndk1::basic_string<char, std::__ndk1::char_traits<char>, std::__ndk1::allocator<char> > const&, IconType), std::__ndk1::allocator<geode::ListenerResult (*)(GJRobotSprite*, std::__ndk1::basic_string<char, std::__ndk1::char_traits<char>, std::__ndk1::allocator<char> > const&, IconType)>, geode::ListenerResult(GJRobotSprite*, std::__ndk1::basic_string<char, std::__ndk1::char_traits<char>, std::__ndk1::allocator<char> >, IconType)>::destroy_deallocate()
PUBLIC 65734 0 std::__ndk1::__function::__func<geode::ListenerResult (*)(GJRobotSprite*, std::__ndk1::basic_string<char, std::__ndk1::char_traits<char>, std::__ndk1::allocator<char> > const&, IconType), std::__ndk1::allocator<geode::ListenerResult (*)(GJRobotSprite*, std::__ndk1::basic_string<char, std::__ndk1::char_traits<char>, std::__ndk1::allocator<char> > const&, IconType)>, geode::ListenerResult(GJRobotSprite*, std::__ndk1::basic_string<char, std::__ndk1::char_traits<char>, std::__ndk1::allocator<char> >, IconType)>::operator()(GJRobotSprite*&&, std::__ndk1::basic_string<char, std::__ndk1::char_traits<char>, std::__ndk1::allocator<char> >&&, IconType&&)
PUBLIC 65750 0 std::__ndk1::__function::__func<geode::ListenerResult (*)(GJRobotSprite*, std::__ndk1::basic_string<char, std::__ndk1::char_traits<char>, std::__ndk1::allocator<char> > const&, IconType), std::__ndk1::allocator<geode::ListenerResult (*)(GJRobotSprite*, std::__ndk1::basic_string<char, std::__ndk1::char_traits<char>, std::__ndk1::allocator<char> > const&, IconType)>, geode::ListenerResult(GJRobotSprite*, std::__ndk1::basic_string<char, std::__ndk1::char_traits<char>, std::__ndk1::allocator<char> >, IconType)>::target(std::type_info const&) const
PUBLIC 6576c 0 std::__ndk1::__function::__func<geode::ListenerResult (*)(GJRobotSprite*, std::__ndk1::basic_string<char, std::__ndk1::char_traits<char>, std::__ndk1::allocator<char> > const&, IconType), std::__ndk1::allocator<geode::ListenerResult (*)(GJRobotSprite*, std::__ndk1::basic_string<char, std::__ndk1::char_traits<char>, std::__ndk1::allocator<char> > const&, IconType)>, geode::ListenerResult(GJRobotSprite*, std::__ndk1::basic_string<char, std::__ndk1::char_traits<char>, std::__ndk1::allocator<char> >, IconType)>::target_type() const
PUBLIC 65778 0 geode::EventListener<geode::DispatchFilter<GJRobotSprite*, std::__ndk1::basic_string<char, std::__ndk1::char_traits<char>, std::__ndk1::allocator<char> >, IconType> >::getPool() const
PUBLIC 65810 0 geode::EventListener<geode::DispatchFilter<GJRobotSprite*, std::__ndk1::basic_string<char, std::__ndk1::char_traits<char>, std::__ndk1::allocator<char> >, IconType> >::handle(geode::Event*)
PUBLIC 65b94 0 geode::EventListener<geode::DispatchFilter<GJRobotSprite*, std::__ndk1::basic_string<char, std::__ndk1::char_traits<char>, std::__ndk1::allocator<char> >, IconType> >::~EventListener()
PUBLIC 65c00 0 geode::EventListener<geode::DispatchFilter<GJRobotSprite*, std::__ndk1::basic_string<char, std::__ndk1::char_traits<char>, std::__ndk1::allocator<char> >, IconType> >::~EventListener()
PUBLIC 65c74 0 geodeExecFunction14<(anonymous namespace)::ExecFuncUnique14>()::{lambda(PlayerObject*, std::__ndk1::basic_string<char, std::__ndk1::char_traits<char>, std::__ndk1::allocator<char> > const&)#1}::__invoke(PlayerObject*, std::__ndk1::basic_string<char, std::__ndk1::char_traits<char>, std::__ndk1::allocator<char> > const&)
PUBLIC 65c8c 0 std::__ndk1::__function::__base<geode::ListenerResult(PlayerObject*, std::__ndk1::basic_string<char, std::__ndk1::char_traits<char>, std::__ndk1::allocator<char> >)>::~__base()
PUBLIC 65c90 0 std::__ndk1::__function::__func<geode::ListenerResult (*)(PlayerObject*, std::__ndk1::basic_string<char, std::__ndk1::char_traits<char>, std::__ndk1::allocator<char> > const&), std::__ndk1::allocator<geode::ListenerResult (*)(PlayerObject*, std::__ndk1::basic_string<char, std::__ndk1::char_traits<char>, std::__ndk1::allocator<char> > const&)>, geode::ListenerResult(PlayerObject*, std::__ndk1::basic_string<char, std::__ndk1::char_traits<char>, std::__ndk1::allocator<char> >)>::~__func()
PUBLIC 65c94 0 std::__ndk1::__function::__func<geode::ListenerResult (*)(PlayerObject*, std::__ndk1::basic_string<char, std::__ndk1::char_traits<char>, std::__ndk1::allocator<char> > const&), std::__ndk1::allocator<geode::ListenerResult (*)(PlayerObject*, std::__ndk1::basic_string<char, std::__ndk1::char_traits<char>, std::__ndk1::allocator<char> > const&)>, geode::ListenerResult(PlayerObject*, std::__ndk1::basic_string<char, std::__ndk1::char_traits<char>, std::__ndk1::allocator<char> >)>::__clone() const
PUBLIC 65cc8 0 std::__ndk1::__function::__func<geode::ListenerResult (*)(PlayerObject*, std::__ndk1::basic_string<char, std::__ndk1::char_traits<char>, std::__ndk1::allocator<char> > const&), std::__ndk1::allocator<geode::ListenerResult (*)(PlayerObject*, std::__ndk1::basic_string<char, std::__ndk1::char_traits<char>, std::__ndk1::allocator<char> > const&)>, geode::ListenerResult(PlayerObject*, std::__ndk1::basic_string<char, std::__ndk1::char_traits<char>, std::__ndk1::allocator<char> >)>::__clone(std::__ndk1::__function::__base<geode::ListenerResult(PlayerObject*, std::__ndk1::basic_string<char, std::__ndk1::char_traits<char>, std::__ndk1::allocator<char> >)>*) const
PUBLIC 65cdc 0 std::__ndk1::__function::__func<geode::ListenerResult (*)(PlayerObject*, std::__ndk1::basic_string<char, std::__ndk1::char_traits<char>, std::__ndk1::allocator<char> > const&), std::__ndk1::allocator<geode::ListenerResult (*)(PlayerObject*, std::__ndk1::basic_string<char, std::__ndk1::char_traits<char>, std::__ndk1::allocator<char> > const&)>, geode::ListenerResult(PlayerObject*, std::__ndk1::basic_string<char, std::__ndk1::char_traits<char>, std::__ndk1::allocator<char> >)>::destroy()
PUBLIC 65ce0 0 std::__ndk1::__function::__func<geode::ListenerResult (*)(PlayerObject*, std::__ndk1::basic_string<char, std::__ndk1::char_traits<char>, std::__ndk1::allocator<char> > const&), std::__ndk1::allocator<geode::ListenerResult (*)(PlayerObject*, std::__ndk1::basic_string<char, std::__ndk1::char_traits<char>, std::__ndk1::allocator<char> > const&)>, geode::ListenerResult(PlayerObject*, std::__ndk1::basic_string<char, std::__ndk1::char_traits<char>, std::__ndk1::allocator<char> >)>::destroy_deallocate()
PUBLIC 65ce4 0 std::__ndk1::__function::__func<geode::ListenerResult (*)(PlayerObject*, std::__ndk1::basic_string<char, std::__ndk1::char_traits<char>, std::__ndk1::allocator<char> > const&), std::__ndk1::allocator<geode::ListenerResult (*)(PlayerObject*, std::__ndk1::basic_string<char, std::__ndk1::char_traits<char>, std::__ndk1::allocator<char> > const&)>, geode::ListenerResult(PlayerObject*, std::__ndk1::basic_string<char, std::__ndk1::char_traits<char>, std::__ndk1::allocator<char> >)>::operator()(PlayerObject*&&, std::__ndk1::basic_string<char, std::__ndk1::char_traits<char>, std::__ndk1::allocator<char> >&&)
PUBLIC 65cf8 0 std::__ndk1::__function::__func<geode::ListenerResult (*)(PlayerObject*, std::__ndk1::basic_string<char, std::__ndk1::char_traits<char>, std::__ndk1::allocator<char> > const&), std::__ndk1::allocator<geode::ListenerResult (*)(PlayerObject*, std::__ndk1::basic_string<char, std::__ndk1::char_traits<char>, std::__ndk1::allocator<char> > const&)>, geode::ListenerResult(PlayerObject*, std::__ndk1::basic_string<char, std::__ndk1::char_traits<char>, std::__ndk1::allocator<char> >)>::target(std::type_info const&) const
PUBLIC 65d14 0 std::__ndk1::__function::__func<geode::ListenerResult (*)(PlayerObject*, std::__ndk1::basic_string<char, std::__ndk1::char_traits<char>, std::__ndk1::allocator<char> > const&), std::__ndk1::allocator<geode::ListenerResult (*)(PlayerObject*, std::__ndk1::basic_string<char, std::__ndk1::char_traits<char>, std::__ndk1::allocator<char> > const&)>, geode::ListenerResult(PlayerObject*, std::__ndk1::basic_string<char, std::__ndk1::char_traits<char>, std::__ndk1::allocator<char> >)>::target_type() const
PUBLIC 65d20 0 geode::EventListener<geode::DispatchFilter<PlayerObject*, std::__ndk1::basic_string<char, std::__ndk1::char_traits<char>, std::__ndk1::allocator<char> > > >::getPool() const
PUBLIC 65db8 0 geode::EventListener<geode::DispatchFilter<PlayerObject*, std::__ndk1::basic_string<char, std::__ndk1::char_traits<char>, std::__ndk1::allocator<char> > > >::handle(geode::Event*)
PUBLIC 66128 0 geode::EventListener<geode::DispatchFilter<PlayerObject*, std::__ndk1::basic_string<char, std::__ndk1::char_traits<char>, std::__ndk1::allocator<char> > > >::~EventListener()
PUBLIC 66194 0 geode::EventListener<geode::DispatchFilter<PlayerObject*, std::__ndk1::basic_string<char, std::__ndk1::char_traits<char>, std::__ndk1::allocator<char> > > >::~EventListener()
PUBLIC 66208 0 geodeExecFunction14<(anonymous namespace)::ExecFuncUnique14>()::{lambda(PlayerObject*, std::__ndk1::basic_string<char, std::__ndk1::char_traits<char>, std::__ndk1::allocator<char> > const&, IconType)#1}::__invoke(PlayerObject*, std::__ndk1::basic_string<char, std::__ndk1::char_traits<char>, std::__ndk1::allocator<char> > const&, IconType)
PUBLIC 66220 0 std::__ndk1::__function::__base<geode::ListenerResult(PlayerObject*, std::__ndk1::basic_string<char, std::__ndk1::char_traits<char>, std::__ndk1::allocator<char> >, IconType)>::~__base()
PUBLIC 66224 0 std::__ndk1::__function::__func<geode::ListenerResult (*)(PlayerObject*, std::__ndk1::basic_string<char, std::__ndk1::char_traits<char>, std::__ndk1::allocator<char> > const&, IconType), std::__ndk1::allocator<geode::ListenerResult (*)(PlayerObject*, std::__ndk1::basic_string<char, std::__ndk1::char_traits<char>, std::__ndk1::allocator<char> > const&, IconType)>, geode::ListenerResult(PlayerObject*, std::__ndk1::basic_string<char, std::__ndk1::char_traits<char>, std::__ndk1::allocator<char> >, IconType)>::~__func()
PUBLIC 66228 0 std::__ndk1::__function::__func<geode::ListenerResult (*)(PlayerObject*, std::__ndk1::basic_string<char, std::__ndk1::char_traits<char>, std::__ndk1::allocator<char> > const&, IconType), std::__ndk1::allocator<geode::ListenerResult (*)(PlayerObject*, std::__ndk1::basic_string<char, std::__ndk1::char_traits<char>, std::__ndk1::allocator<char> > const&, IconType)>, geode::ListenerResult(PlayerObject*, std::__ndk1::basic_string<char, std::__ndk1::char_traits<char>, std::__ndk1::allocator<char> >, IconType)>::__clone() const
PUBLIC 6625c 0 std::__ndk1::__function::__func<geode::ListenerResult (*)(PlayerObject*, std::__ndk1::basic_string<char, std::__ndk1::char_traits<char>, std::__ndk1::allocator<char> > const&, IconType), std::__ndk1::allocator<geode::ListenerResult (*)(PlayerObject*, std::__ndk1::basic_string<char, std::__ndk1::char_traits<char>, std::__ndk1::allocator<char> > const&, IconType)>, geode::ListenerResult(PlayerObject*, std::__ndk1::basic_string<char, std::__ndk1::char_traits<char>, std::__ndk1::allocator<char> >, IconType)>::__clone(std::__ndk1::__function::__base<geode::ListenerResult(PlayerObject*, std::__ndk1::basic_string<char, std::__ndk1::char_traits<char>, std::__ndk1::allocator<char> >, IconType)>*) const
PUBLIC 66270 0 std::__ndk1::__function::__func<geode::ListenerResult (*)(PlayerObject*, std::__ndk1::basic_string<char, std::__ndk1::char_traits<char>, std::__ndk1::allocator<char> > const&, IconType), std::__ndk1::allocator<geode::ListenerResult (*)(PlayerObject*, std::__ndk1::basic_string<char, std::__ndk1::char_traits<char>, std::__ndk1::allocator<char> > const&, IconType)>, geode::ListenerResult(PlayerObject*, std::__ndk1::basic_string<char, std::__ndk1::char_traits<char>, std::__ndk1::allocator<char> >, IconType)>::destroy()
PUBLIC 66274 0 std::__ndk1::__function::__func<geode::ListenerResult (*)(PlayerObject*, std::__ndk1::basic_string<char, std::__ndk1::char_traits<char>, std::__ndk1::allocator<char> > const&, IconType), std::__ndk1::allocator<geode::ListenerResult (*)(PlayerObject*, std::__ndk1::basic_string<char, std::__ndk1::char_traits<char>, std::__ndk1::allocator<char> > const&, IconType)>, geode::ListenerResult(PlayerObject*, std::__ndk1::basic_string<char, std::__ndk1::char_traits<char>, std::__ndk1::allocator<char> >, IconType)>::destroy_deallocate()
PUBLIC 66278 0 std::__ndk1::__function::__func<geode::ListenerResult (*)(PlayerObject*, std::__ndk1::basic_string<char, std::__ndk1::char_traits<char>, std::__ndk1::allocator<char> > const&, IconType), std::__ndk1::allocator<geode::ListenerResult (*)(PlayerObject*, std::__ndk1::basic_string<char, std::__ndk1::char_traits<char>, std::__ndk1::allocator<char> > const&, IconType)>, geode::ListenerResult(PlayerObject*, std::__ndk1::basic_string<char, std::__ndk1::char_traits<char>, std::__ndk1::allocator<char> >, IconType)>::operator()(PlayerObject*&&, std::__ndk1::basic_string<char, std::__ndk1::char_traits<char>, std::__ndk1::allocator<char> >&&, IconType&&)
PUBLIC 66294 0 std::__ndk1::__function::__func<geode::ListenerResult (*)(PlayerObject*, std::__ndk1::basic_string<char, std::__ndk1::char_traits<char>, std::__ndk1::allocator<char> > const&, IconType), std::__ndk1::allocator<geode::ListenerResult (*)(PlayerObject*, std::__ndk1::basic_string<char, std::__ndk1::char_traits<char>, std::__ndk1::allocator<char> > const&, IconType)>, geode::ListenerResult(PlayerObject*, std::__ndk1::basic_string<char, std::__ndk1::char_traits<char>, std::__ndk1::allocator<char> >, IconType)>::target(std::type_info const&) const
PUBLIC 662b0 0 std::__ndk1::__function::__func<geode::ListenerResult (*)(PlayerObject*, std::__ndk1::basic_string<char, std::__ndk1::char_traits<char>, std::__ndk1::allocator<char> > const&, IconType), std::__ndk1::allocator<geode::ListenerResult (*)(PlayerObject*, std::__ndk1::basic_string<char, std::__ndk1::char_traits<char>, std::__ndk1::allocator<char> > const&, IconType)>, geode::ListenerResult(PlayerObject*, std::__ndk1::basic_string<char, std::__ndk1::char_traits<char>, std::__ndk1::allocator<char> >, IconType)>::target_type() const
PUBLIC 662bc 0 geode::EventListener<geode::DispatchFilter<PlayerObject*, std::__ndk1::basic_string<char, std::__ndk1::char_traits<char>, std::__ndk1::allocator<char> >, IconType> >::getPool() const
PUBLIC 66354 0 geode::EventListener<geode::DispatchFilter<PlayerObject*, std::__ndk1::basic_string<char, std::__ndk1::char_traits<char>, std::__ndk1::allocator<char> >, IconType> >::handle(geode::Event*)
PUBLIC 666d8 0 geode::EventListener<geode::DispatchFilter<PlayerObject*, std::__ndk1::basic_string<char, std::__ndk1::char_traits<char>, std::__ndk1::allocator<char> >, IconType> >::~EventListener()
PUBLIC 66744 0 geode::EventListener<geode::DispatchFilter<PlayerObject*, std::__ndk1::basic_string<char, std::__ndk1::char_traits<char>, std::__ndk1::allocator<char> >, IconType> >::~EventListener()
PUBLIC 667b8 0 geodeExecFunction14<(anonymous namespace)::ExecFuncUnique14>()::{lambda(std::__ndk1::vector<std::__ndk1::basic_string<char, std::__ndk1::char_traits<char>, std::__ndk1::allocator<char> >, std::__ndk1::allocator<std::__ndk1::basic_string<char, std::__ndk1::char_traits<char>, std::__ndk1::allocator<char> > > >*, IconType)#1}::__invoke(std::__ndk1::vector<std::__ndk1::basic_string<char, std::__ndk1::char_traits<char>, std::__ndk1::allocator<char> >, std::__ndk1::allocator<std::__ndk1::basic_string<char, std::__ndk1::char_traits<char>, std::__ndk1::allocator<char> > > >*, IconType)
PUBLIC 66bd4 0 geode::EventListener<geode::DispatchFilter<std::__ndk1::vector<std::__ndk1::basic_string<char, std::__ndk1::char_traits<char>, std::__ndk1::allocator<char> >, std::__ndk1::allocator<std::__ndk1::basic_string<char, std::__ndk1::char_traits<char>, std::__ndk1::allocator<char> > > >*, IconType> >::getPool() const
PUBLIC 66c6c 0 geode::EventListener<geode::DispatchFilter<std::__ndk1::vector<std::__ndk1::basic_string<char, std::__ndk1::char_traits<char>, std::__ndk1::allocator<char> >, std::__ndk1::allocator<std::__ndk1::basic_string<char, std::__ndk1::char_traits<char>, std::__ndk1::allocator<char> > > >*, IconType> >::handle(geode::Event*)
PUBLIC 66f24 0 geode::EventListener<geode::DispatchFilter<std::__ndk1::vector<std::__ndk1::basic_string<char, std::__ndk1::char_traits<char>, std::__ndk1::allocator<char> >, std::__ndk1::allocator<std::__ndk1::basic_string<char, std::__ndk1::char_traits<char>, std::__ndk1::allocator<char> > > >*, IconType> >::~EventListener()
PUBLIC 66f90 0 geode::EventListener<geode::DispatchFilter<std::__ndk1::vector<std::__ndk1::basic_string<char, std::__ndk1::char_traits<char>, std::__ndk1::allocator<char> >, std::__ndk1::allocator<std::__ndk1::basic_string<char, std::__ndk1::char_traits<char>, std::__ndk1::allocator<char> > > >*, IconType> >::~EventListener()
PUBLIC 67004 0 std::__ndk1::__function::__base<geode::ListenerResult(std::__ndk1::vector<std::__ndk1::basic_string<char, std::__ndk1::char_traits<char>, std::__ndk1::allocator<char> >, std::__ndk1::allocator<std::__ndk1::basic_string<char, std::__ndk1::char_traits<char>, std::__ndk1::allocator<char> > > >*, IconType)>::~__base()
PUBLIC 67008 0 std::__ndk1::__function::__func<geode::ListenerResult (*)(std::__ndk1::vector<std::__ndk1::basic_string<char, std::__ndk1::char_traits<char>, std::__ndk1::allocator<char> >, std::__ndk1::allocator<std::__ndk1::basic_string<char, std::__ndk1::char_traits<char>, std::__ndk1::allocator<char> > > >*, IconType), std::__ndk1::allocator<geode::ListenerResult (*)(std::__ndk1::vector<std::__ndk1::basic_string<char, std::__ndk1::char_traits<char>, std::__ndk1::allocator<char> >, std::__ndk1::allocator<std::__ndk1::basic_string<char, std::__ndk1::char_traits<char>, std::__ndk1::allocator<char> > > >*, IconType)>, geode::ListenerResult(std::__ndk1::vector<std::__ndk1::basic_string<char, std::__ndk1::char_traits<char>, std::__ndk1::allocator<char> >, std::__ndk1::allocator<std::__ndk1::basic_string<char, std::__ndk1::char_traits<char>, std::__ndk1::allocator<char> > > >*, IconType)>::~__func()
PUBLIC 6700c 0 std::__ndk1::__function::__func<geode::ListenerResult (*)(std::__ndk1::vector<std::__ndk1::basic_string<char, std::__ndk1::char_traits<char>, std::__ndk1::allocator<char> >, std::__ndk1::allocator<std::__ndk1::basic_string<char, std::__ndk1::char_traits<char>, std::__ndk1::allocator<char> > > >*, IconType), std::__ndk1::allocator<geode::ListenerResult (*)(std::__ndk1::vector<std::__ndk1::basic_string<char, std::__ndk1::char_traits<char>, std::__ndk1::allocator<char> >, std::__ndk1::allocator<std::__ndk1::basic_string<char, std::__ndk1::char_traits<char>, std::__ndk1::allocator<char> > > >*, IconType)>, geode::ListenerResult(std::__ndk1::vector<std::__ndk1::basic_string<char, std::__ndk1::char_traits<char>, std::__ndk1::allocator<char> >, std::__ndk1::allocator<std::__ndk1::basic_string<char, std::__ndk1::char_traits<char>, std::__ndk1::allocator<char> > > >*, IconType)>::__clone() const
PUBLIC 67040 0 std::__ndk1::__function::__func<geode::ListenerResult (*)(std::__ndk1::vector<std::__ndk1::basic_string<char, std::__ndk1::char_traits<char>, std::__ndk1::allocator<char> >, std::__ndk1::allocator<std::__ndk1::basic_string<char, std::__ndk1::char_traits<char>, std::__ndk1::allocator<char> > > >*, IconType), std::__ndk1::allocator<geode::ListenerResult (*)(std::__ndk1::vector<std::__ndk1::basic_string<char, std::__ndk1::char_traits<char>, std::__ndk1::allocator<char> >, std::__ndk1::allocator<std::__ndk1::basic_string<char, std::__ndk1::char_traits<char>, std::__ndk1::allocator<char> > > >*, IconType)>, geode::ListenerResult(std::__ndk1::vector<std::__ndk1::basic_string<char, std::__ndk1::char_traits<char>, std::__ndk1::allocator<char> >, std::__ndk1::allocator<std::__ndk1::basic_string<char, std::__ndk1::char_traits<char>, std::__ndk1::allocator<char> > > >*, IconType)>::__clone(std::__ndk1::__function::__base<geode::ListenerResult(std::__ndk1::vector<std::__ndk1::basic_string<char, std::__ndk1::char_traits<char>, std::__ndk1::allocator<char> >, std::__ndk1::allocator<std::__ndk1::basic_string<char, std::__ndk1::char_traits<char>, std::__ndk1::allocator<char> > > >*, IconType)>*) const
PUBLIC 67054 0 std::__ndk1::__function::__func<geode::ListenerResult (*)(std::__ndk1::vector<std::__ndk1::basic_string<char, std::__ndk1::char_traits<char>, std::__ndk1::allocator<char> >, std::__ndk1::allocator<std::__ndk1::basic_string<char, std::__ndk1::char_traits<char>, std::__ndk1::allocator<char> > > >*, IconType), std::__ndk1::allocator<geode::ListenerResult (*)(std::__ndk1::vector<std::__ndk1::basic_string<char, std::__ndk1::char_traits<char>, std::__ndk1::allocator<char> >, std::__ndk1::allocator<std::__ndk1::basic_string<char, std::__ndk1::char_traits<char>, std::__ndk1::allocator<char> > > >*, IconType)>, geode::ListenerResult(std::__ndk1::vector<std::__ndk1::basic_string<char, std::__ndk1::char_traits<char>, std::__ndk1::allocator<char> >, std::__ndk1::allocator<std::__ndk1::basic_string<char, std::__ndk1::char_traits<char>, std::__ndk1::allocator<char> > > >*, IconType)>::destroy()
PUBLIC 67058 0 std::__ndk1::__function::__func<geode::ListenerResult (*)(std::__ndk1::vector<std::__ndk1::basic_string<char, std::__ndk1::char_traits<char>, std::__ndk1::allocator<char> >, std::__ndk1::allocator<std::__ndk1::basic_string<char, std::__ndk1::char_traits<char>, std::__ndk1::allocator<char> > > >*, IconType), std::__ndk1::allocator<geode::ListenerResult (*)(std::__ndk1::vector<std::__ndk1::basic_string<char, std::__ndk1::char_traits<char>, std::__ndk1::allocator<char> >, std::__ndk1::allocator<std::__ndk1::basic_string<char, std::__ndk1::char_traits<char>, std::__ndk1::allocator<char> > > >*, IconType)>, geode::ListenerResult(std::__ndk1::vector<std::__ndk1::basic_string<char, std::__ndk1::char_traits<char>, std::__ndk1::allocator<char> >, std::__ndk1::allocator<std::__ndk1::basic_string<char, std::__ndk1::char_traits<char>, std::__ndk1::allocator<char> > > >*, IconType)>::destroy_deallocate()
PUBLIC 6705c 0 std::__ndk1::__function::__func<geode::ListenerResult (*)(std::__ndk1::vector<std::__ndk1::basic_string<char, std::__ndk1::char_traits<char>, std::__ndk1::allocator<char> >, std::__ndk1::allocator<std::__ndk1::basic_string<char, std::__ndk1::char_traits<char>, std::__ndk1::allocator<char> > > >*, IconType), std::__ndk1::allocator<geode::ListenerResult (*)(std::__ndk1::vector<std::__ndk1::basic_string<char, std::__ndk1::char_traits<char>, std::__ndk1::allocator<char> >, std::__ndk1::allocator<std::__ndk1::basic_string<char, std::__ndk1::char_traits<char>, std::__ndk1::allocator<char> > > >*, IconType)>, geode::ListenerResult(std::__ndk1::vector<std::__ndk1::basic_string<char, std::__ndk1::char_traits<char>, std::__ndk1::allocator<char> >, std::__ndk1::allocator<std::__ndk1::basic_string<char, std::__ndk1::char_traits<char>, std::__ndk1::allocator<char> > > >*, IconType)>::operator()(std::__ndk1::vector<std::__ndk1::basic_string<char, std::__ndk1::char_traits<char>, std::__ndk1::allocator<char> >, std::__ndk1::allocator<std::__ndk1::basic_string<char, std::__ndk1::char_traits<char>, std::__ndk1::allocator<char> > > >*&&, IconType&&)
PUBLIC 67070 0 std::__ndk1::__function::__func<geode::ListenerResult (*)(std::__ndk1::vector<std::__ndk1::basic_string<char, std::__ndk1::char_traits<char>, std::__ndk1::allocator<char> >, std::__ndk1::allocator<std::__ndk1::basic_string<char, std::__ndk1::char_traits<char>, std::__ndk1::allocator<char> > > >*, IconType), std::__ndk1::allocator<geode::ListenerResult (*)(std::__ndk1::vector<std::__ndk1::basic_string<char, std::__ndk1::char_traits<char>, std::__ndk1::allocator<char> >, std::__ndk1::allocator<std::__ndk1::basic_string<char, std::__ndk1::char_traits<char>, std::__ndk1::allocator<char> > > >*, IconType)>, geode::ListenerResult(std::__ndk1::vector<std::__ndk1::basic_string<char, std::__ndk1::char_traits<char>, std::__ndk1::allocator<char> >, std::__ndk1::allocator<std::__ndk1::basic_string<char, std::__ndk1::char_traits<char>, std::__ndk1::allocator<char> > > >*, IconType)>::target(std::type_info const&) const
PUBLIC 6708c 0 std::__ndk1::__function::__func<geode::ListenerResult (*)(std::__ndk1::vector<std::__ndk1::basic_string<char, std::__ndk1::char_traits<char>, std::__ndk1::allocator<char> >, std::__ndk1::allocator<std::__ndk1::basic_string<char, std::__ndk1::char_traits<char>, std::__ndk1::allocator<char> > > >*, IconType), std::__ndk1::allocator<geode::ListenerResult (*)(std::__ndk1::vector<std::__ndk1::basic_string<char, std::__ndk1::char_traits<char>, std::__ndk1::allocator<char> >, std::__ndk1::allocator<std::__ndk1::basic_string<char, std::__ndk1::char_traits<char>, std::__ndk1::allocator<char> > > >*, IconType)>, geode::ListenerResult(std::__ndk1::vector<std::__ndk1::basic_string<char, std::__ndk1::char_traits<char>, std::__ndk1::allocator<char> >, std::__ndk1::allocator<std::__ndk1::basic_string<char, std::__ndk1::char_traits<char>, std::__ndk1::allocator<char> > > >*, IconType)>::target_type() const
PUBLIC 67098 0 geodeExecFunction14<(anonymous namespace)::ExecFuncUnique14>()::{lambda(std::__ndk1::basic_string<char, std::__ndk1::char_traits<char>, std::__ndk1::allocator<char> >*, IconType, bool)#1}::__invoke(std::__ndk1::basic_string<char, std::__ndk1::char_traits<char>, std::__ndk1::allocator<char> >*, IconType, bool)
PUBLIC 67110 0 geode::EventListener<geode::DispatchFilter<std::__ndk1::basic_string<char, std::__ndk1::char_traits<char>, std::__ndk1::allocator<char> >*, IconType, bool> >::getPool() const
PUBLIC 671a8 0 geode::EventListener<geode::DispatchFilter<std::__ndk1::basic_string<char, std::__ndk1::char_traits<char>, std::__ndk1::allocator<char> >*, IconType, bool> >::handle(geode::Event*)
PUBLIC 6746c 0 geode::EventListener<geode::DispatchFilter<std::__ndk1::basic_string<char, std::__ndk1::char_traits<char>, std::__ndk1::allocator<char> >*, IconType, bool> >::~EventListener()
PUBLIC 674d8 0 geode::EventListener<geode::DispatchFilter<std::__ndk1::basic_string<char, std::__ndk1::char_traits<char>, std::__ndk1::allocator<char> >*, IconType, bool> >::~EventListener()
PUBLIC 6754c 0 std::__ndk1::__function::__base<geode::ListenerResult(std::__ndk1::basic_string<char, std::__ndk1::char_traits<char>, std::__ndk1::allocator<char> >*, IconType, bool)>::~__base()
PUBLIC 67550 0 std::__ndk1::__function::__func<geode::ListenerResult (*)(std::__ndk1::basic_string<char, std::__ndk1::char_traits<char>, std::__ndk1::allocator<char> >*, IconType, bool), std::__ndk1::allocator<geode::ListenerResult (*)(std::__ndk1::basic_string<char, std::__ndk1::char_traits<char>, std::__ndk1::allocator<char> >*, IconType, bool)>, geode::ListenerResult(std::__ndk1::basic_string<char, std::__ndk1::char_traits<char>, std::__ndk1::allocator<char> >*, IconType, bool)>::~__func()
PUBLIC 67554 0 std::__ndk1::__function::__func<geode::ListenerResult (*)(std::__ndk1::basic_string<char, std::__ndk1::char_traits<char>, std::__ndk1::allocator<char> >*, IconType, bool), std::__ndk1::allocator<geode::ListenerResult (*)(std::__ndk1::basic_string<char, std::__ndk1::char_traits<char>, std::__ndk1::allocator<char> >*, IconType, bool)>, geode::ListenerResult(std::__ndk1::basic_string<char, std::__ndk1::char_traits<char>, std::__ndk1::allocator<char> >*, IconType, bool)>::__clone() const
PUBLIC 67588 0 std::__ndk1::__function::__func<geode::ListenerResult (*)(std::__ndk1::basic_string<char, std::__ndk1::char_traits<char>, std::__ndk1::allocator<char> >*, IconType, bool), std::__ndk1::allocator<geode::ListenerResult (*)(std::__ndk1::basic_string<char, std::__ndk1::char_traits<char>, std::__ndk1::allocator<char> >*, IconType, bool)>, geode::ListenerResult(std::__ndk1::basic_string<char, std::__ndk1::char_traits<char>, std::__ndk1::allocator<char> >*, IconType, bool)>::__clone(std::__ndk1::__function::__base<geode::ListenerResult(std::__ndk1::basic_string<char, std::__ndk1::char_traits<char>, std::__ndk1::allocator<char> >*, IconType, bool)>*) const
PUBLIC 6759c 0 std::__ndk1::__function::__func<geode::ListenerResult (*)(std::__ndk1::basic_string<char, std::__ndk1::char_traits<char>, std::__ndk1::allocator<char> >*, IconType, bool), std::__ndk1::allocator<geode::ListenerResult (*)(std::__ndk1::basic_string<char, std::__ndk1::char_traits<char>, std::__ndk1::allocator<char> >*, IconType, bool)>, geode::ListenerResult(std::__ndk1::basic_string<char, std::__ndk1::char_traits<char>, std::__ndk1::allocator<char> >*, IconType, bool)>::destroy()
PUBLIC 675a0 0 std::__ndk1::__function::__func<geode::ListenerResult (*)(std::__ndk1::basic_string<char, std::__ndk1::char_traits<char>, std::__ndk1::allocator<char> >*, IconType, bool), std::__ndk1::allocator<geode::ListenerResult (*)(std::__ndk1::basic_string<char, std::__ndk1::char_traits<char>, std::__ndk1::allocator<char> >*, IconType, bool)>, geode::ListenerResult(std::__ndk1::basic_string<char, std::__ndk1::char_traits<char>, std::__ndk1::allocator<char> >*, IconType, bool)>::destroy_deallocate()
PUBLIC 675a4 0 std::__ndk1::__function::__func<geode::ListenerResult (*)(std::__ndk1::basic_string<char, std::__ndk1::char_traits<char>, std::__ndk1::allocator<char> >*, IconType, bool), std::__ndk1::allocator<geode::ListenerResult (*)(std::__ndk1::basic_string<char, std::__ndk1::char_traits<char>, std::__ndk1::allocator<char> >*, IconType, bool)>, geode::ListenerResult(std::__ndk1::basic_string<char, std::__ndk1::char_traits<char>, std::__ndk1::allocator<char> >*, IconType, bool)>::operator()(std::__ndk1::basic_string<char, std::__ndk1::char_traits<char>, std::__ndk1::allocator<char> >*&&, IconType&&, bool&&)
PUBLIC 675bc 0 std::__ndk1::__function::__func<geode::ListenerResult (*)(std::__ndk1::basic_string<char, std::__ndk1::char_traits<char>, std::__ndk1::allocator<char> >*, IconType, bool), std::__ndk1::allocator<geode::ListenerResult (*)(std::__ndk1::basic_string<char, std::__ndk1::char_traits<char>, std::__ndk1::allocator<char> >*, IconType, bool)>, geode::ListenerResult(std::__ndk1::basic_string<char, std::__ndk1::char_traits<char>, std::__ndk1::allocator<char> >*, IconType, bool)>::target(std::type_info const&) const
PUBLIC 675d8 0 std::__ndk1::__function::__func<geode::ListenerResult (*)(std::__ndk1::basic_string<char, std::__ndk1::char_traits<char>, std::__ndk1::allocator<char> >*, IconType, bool), std::__ndk1::allocator<geode::ListenerResult (*)(std::__ndk1::basic_string<char, std::__ndk1::char_traits<char>, std::__ndk1::allocator<char> >*, IconType, bool)>, geode::ListenerResult(std::__ndk1::basic_string<char, std::__ndk1::char_traits<char>, std::__ndk1::allocator<char> >*, IconType, bool)>::target_type() const
PUBLIC 675e4 0 geodeExecFunction14<(anonymous namespace)::ExecFuncUnique14>()::{lambda(std::__ndk1::basic_string<char, std::__ndk1::char_traits<char>, std::__ndk1::allocator<char> > const&, IconType, bool)#1}::__invoke(std::__ndk1::basic_string<char, std::__ndk1::char_traits<char>, std::__ndk1::allocator<char> > const&, IconType, bool)
PUBLIC 675fc 0 std::__ndk1::__function::__base<geode::ListenerResult(std::__ndk1::basic_string<char, std::__ndk1::char_traits<char>, std::__ndk1::allocator<char> >, IconType, bool)>::~__base()
PUBLIC 67600 0 std::__ndk1::__function::__func<geode::ListenerResult (*)(std::__ndk1::basic_string<char, std::__ndk1::char_traits<char>, std::__ndk1::allocator<char> > const&, IconType, bool), std::__ndk1::allocator<geode::ListenerResult (*)(std::__ndk1::basic_string<char, std::__ndk1::char_traits<char>, std::__ndk1::allocator<char> > const&, IconType, bool)>, geode::ListenerResult(std::__ndk1::basic_string<char, std::__ndk1::char_traits<char>, std::__ndk1::allocator<char> >, IconType, bool)>::~__func()
PUBLIC 67604 0 std::__ndk1::__function::__func<geode::ListenerResult (*)(std::__ndk1::basic_string<char, std::__ndk1::char_traits<char>, std::__ndk1::allocator<char> > const&, IconType, bool), std::__ndk1::allocator<geode::ListenerResult (*)(std::__ndk1::basic_string<char, std::__ndk1::char_traits<char>, std::__ndk1::allocator<char> > const&, IconType, bool)>, geode::ListenerResult(std::__ndk1::basic_string<char, std::__ndk1::char_traits<char>, std::__ndk1::allocator<char> >, IconType, bool)>::__clone() const
PUBLIC 67638 0 std::__ndk1::__function::__func<geode::ListenerResult (*)(std::__ndk1::basic_string<char, std::__ndk1::char_traits<char>, std::__ndk1::allocator<char> > const&, IconType, bool), std::__ndk1::allocator<geode::ListenerResult (*)(std::__ndk1::basic_string<char, std::__ndk1::char_traits<char>, std::__ndk1::allocator<char> > const&, IconType, bool)>, geode::ListenerResult(std::__ndk1::basic_string<char, std::__ndk1::char_traits<char>, std::__ndk1::allocator<char> >, IconType, bool)>::__clone(std::__ndk1::__function::__base<geode::ListenerResult(std::__ndk1::basic_string<char, std::__ndk1::char_traits<char>, std::__ndk1::allocator<char> >, IconType, bool)>*) const
PUBLIC 6764c 0 std::__ndk1::__function::__func<geode::ListenerResult (*)(std::__ndk1::basic_string<char, std::__ndk1::char_traits<char>, std::__ndk1::allocator<char> > const&, IconType, bool), std::__ndk1::allocator<geode::ListenerResult (*)(std::__ndk1::basic_string<char, std::__ndk1::char_traits<char>, std::__ndk1::allocator<char> > const&, IconType, bool)>, geode::ListenerResult(std::__ndk1::basic_string<char, std::__ndk1::char_traits<char>, std::__ndk1::allocator<char> >, IconType, bool)>::destroy()
PUBLIC 67650 0 std::__ndk1::__function::__func<geode::ListenerResult (*)(std::__ndk1::basic_string<char, std::__ndk1::char_traits<char>, std::__ndk1::allocator<char> > const&, IconType, bool), std::__ndk1::allocator<geode::ListenerResult (*)(std::__ndk1::basic_string<char, std::__ndk1::char_traits<char>, std::__ndk1::allocator<char> > const&, IconType, bool)>, geode::ListenerResult(std::__ndk1::basic_string<char, std::__ndk1::char_traits<char>, std::__ndk1::allocator<char> >, IconType, bool)>::destroy_deallocate()
PUBLIC 67654 0 std::__ndk1::__function::__func<geode::ListenerResult (*)(std::__ndk1::basic_string<char, std::__ndk1::char_traits<char>, std::__ndk1::allocator<char> > const&, IconType, bool), std::__ndk1::allocator<geode::ListenerResult (*)(std::__ndk1::basic_string<char, std::__ndk1::char_traits<char>, std::__ndk1::allocator<char> > const&, IconType, bool)>, geode::ListenerResult(std::__ndk1::basic_string<char, std::__ndk1::char_traits<char>, std::__ndk1::allocator<char> >, IconType, bool)>::operator()(std::__ndk1::basic_string<char, std::__ndk1::char_traits<char>, std::__ndk1::allocator<char> >&&, IconType&&, bool&&)
PUBLIC 6766c 0 std::__ndk1::__function::__func<geode::ListenerResult (*)(std::__ndk1::basic_string<char, std::__ndk1::char_traits<char>, std::__ndk1::allocator<char> > const&, IconType, bool), std::__ndk1::allocator<geode::ListenerResult (*)(std::__ndk1::basic_string<char, std::__ndk1::char_traits<char>, std::__ndk1::allocator<char> > const&, IconType, bool)>, geode::ListenerResult(std::__ndk1::basic_string<char, std::__ndk1::char_traits<char>, std::__ndk1::allocator<char> >, IconType, bool)>::target(std::type_info const&) const
PUBLIC 67688 0 std::__ndk1::__function::__func<geode::ListenerResult (*)(std::__ndk1::basic_string<char, std::__ndk1::char_traits<char>, std::__ndk1::allocator<char> > const&, IconType, bool), std::__ndk1::allocator<geode::ListenerResult (*)(std::__ndk1::basic_string<char, std::__ndk1::char_traits<char>, std::__ndk1::allocator<char> > const&, IconType, bool)>, geode::ListenerResult(std::__ndk1::basic_string<char, std::__ndk1::char_traits<char>, std::__ndk1::allocator<char> >, IconType, bool)>::target_type() const
PUBLIC 67694 0 geode::EventListener<geode::DispatchFilter<std::__ndk1::basic_string<char, std::__ndk1::char_traits<char>, std::__ndk1::allocator<char> >, IconType, bool> >::getPool() const
PUBLIC 6772c 0 geode::EventListener<geode::DispatchFilter<std::__ndk1::basic_string<char, std::__ndk1::char_traits<char>, std::__ndk1::allocator<char> >, IconType, bool> >::handle(geode::Event*)
PUBLIC 67aa8 0 geode::EventListener<geode::DispatchFilter<std::__ndk1::basic_string<char, std::__ndk1::char_traits<char>, std::__ndk1::allocator<char> >, IconType, bool> >::~EventListener()
PUBLIC 67b14 0 geode::EventListener<geode::DispatchFilter<std::__ndk1::basic_string<char, std::__ndk1::char_traits<char>, std::__ndk1::allocator<char> >, IconType, bool> >::~EventListener()
PUBLIC 67b88 0 std::__ndk1::__function::__func<void (*)(geode::ModStateEvent*), std::__ndk1::allocator<void (*)(geode::ModStateEvent*)>, void (geode::ModStateEvent*)>::~__func()
PUBLIC 67b8c 0 std::__ndk1::__function::__func<void (*)(geode::ModStateEvent*), std::__ndk1::allocator<void (*)(geode::ModStateEvent*)>, void (geode::ModStateEvent*)>::__clone() const
PUBLIC 67bc0 0 std::__ndk1::__function::__func<void (*)(geode::ModStateEvent*), std::__ndk1::allocator<void (*)(geode::ModStateEvent*)>, void (geode::ModStateEvent*)>::__clone(std::__ndk1::__function::__base<void (geode::ModStateEvent*)>*) const
PUBLIC 67bd4 0 std::__ndk1::__function::__func<void (*)(geode::ModStateEvent*), std::__ndk1::allocator<void (*)(geode::ModStateEvent*)>, void (geode::ModStateEvent*)>::destroy()
PUBLIC 67bd8 0 std::__ndk1::__function::__func<void (*)(geode::ModStateEvent*), std::__ndk1::allocator<void (*)(geode::ModStateEvent*)>, void (geode::ModStateEvent*)>::destroy_deallocate()
PUBLIC 67bdc 0 std::__ndk1::__function::__func<void (*)(geode::ModStateEvent*), std::__ndk1::allocator<void (*)(geode::ModStateEvent*)>, void (geode::ModStateEvent*)>::operator()(geode::ModStateEvent*&&)
PUBLIC 67bec 0 std::__ndk1::__function::__func<void (*)(geode::ModStateEvent*), std::__ndk1::allocator<void (*)(geode::ModStateEvent*)>, void (geode::ModStateEvent*)>::target(std::type_info const&) const
PUBLIC 67c08 0 std::__ndk1::__function::__func<void (*)(geode::ModStateEvent*), std::__ndk1::allocator<void (*)(geode::ModStateEvent*)>, void (geode::ModStateEvent*)>::target_type() const
PUBLIC 67c14 0 std::__ndk1::__tree<std::__ndk1::__value_type<std::__ndk1::basic_string<char, std::__ndk1::char_traits<char>, std::__ndk1::allocator<char> >, std::__ndk1::vector<std::__ndk1::basic_string<char, std::__ndk1::char_traits<char>, std::__ndk1::allocator<char> >, std::__ndk1::allocator<std::__ndk1::basic_string<char, std::__ndk1::char_traits<char>, std::__ndk1::allocator<char> > > > >, std::__ndk1::__map_value_compare<std::__ndk1::basic_string<char, std::__ndk1::char_traits<char>, std::__ndk1::allocator<char> >, std::__ndk1::__value_type<std::__ndk1::basic_string<char, std::__ndk1::char_traits<char>, std::__ndk1::allocator<char> >, std::__ndk1::vector<std::__ndk1::basic_string<char, std::__ndk1::char_traits<char>, std::__ndk1::allocator<char> >, std::__ndk1::allocator<std::__ndk1::basic_string<char, std::__ndk1::char_traits<char>, std::__ndk1::allocator<char> > > > >, std::__ndk1::less<std::__ndk1::basic_string<char, std::__ndk1::char_traits<char>, std::__ndk1::allocator<char> > >, true>, std::__ndk1::allocator<std::__ndk1::__value_type<std::__ndk1::basic_string<char, std::__ndk1::char_traits<char>, std::__ndk1::allocator<char> >, std::__ndk1::vector<std::__ndk1::basic_string<char, std::__ndk1::char_traits<char>, std::__ndk1::allocator<char> >, std::__ndk1::allocator<std::__ndk1::basic_string<char, std::__ndk1::char_traits<char>, std::__ndk1::allocator<char> > > > > > >::destroy(std::__ndk1::__tree_node<std::__ndk1::__value_type<std::__ndk1::basic_string<char, std::__ndk1::char_traits<char>, std::__ndk1::allocator<char> >, std::__ndk1::vector<std::__ndk1::basic_string<char, std::__ndk1::char_traits<char>, std::__ndk1::allocator<char> >, std::__ndk1::allocator<std::__ndk1::basic_string<char, std::__ndk1::char_traits<char>, std::__ndk1::allocator<char> > > > >, void*>*)
PUBLIC 67cb0 0 std::__ndk1::unique_ptr<std::__ndk1::__tree_node<std::__ndk1::__value_type<std::__ndk1::basic_string<char, std::__ndk1::char_traits<char>, std::__ndk1::allocator<char> >, std::__ndk1::vector<std::__ndk1::basic_string<char, std::__ndk1::char_traits<char>, std::__ndk1::allocator<char> >, std::__ndk1::allocator<std::__ndk1::basic_string<char, std::__ndk1::char_traits<char>, std::__ndk1::allocator<char> > > > >, void*>, std::__ndk1::__tree_node_destructor<std::__ndk1::allocator<std::__ndk1::__tree_node<std::__ndk1::__value_type<std::__ndk1::basic_string<char, std::__ndk1::char_traits<char>, std::__ndk1::allocator<char> >, std::__ndk1::vector<std::__ndk1::basic_string<char, std::__ndk1::char_traits<char>, std::__ndk1::allocator<char> >, std::__ndk1::allocator<std::__ndk1::basic_string<char, std::__ndk1::char_traits<char>, std::__ndk1::allocator<char> > > > >, void*> > > >::~unique_ptr[abi:ne190000]()
PUBLIC 67d54 0 _ZN2BS11thread_poolILh0EEC2ITkNS_11init_func_cEZNS1_C1EmEUlvE_EEmOT_
PUBLIC 68034 0 std::__ndk1::unique_ptr<std::__ndk1::thread [], std::__ndk1::default_delete<std::__ndk1::thread []> >::~unique_ptr[abi:ne190000]()
PUBLIC 68088 0 std::__ndk1::__function::__func<BS::thread_pool<(unsigned char)0>::{lambda(unsigned long)#1}, std::__ndk1::allocator<BS::thread_pool<(unsigned char)0>::{lambda(unsigned long)#1}>, void (unsigned long)>::~__func()
PUBLIC 6808c 0 std::__ndk1::__function::__func<BS::thread_pool<(unsigned char)0>::{lambda(unsigned long)#1}, std::__ndk1::allocator<BS::thread_pool<(unsigned char)0>::{lambda(unsigned long)#1}>, void (unsigned long)>::__clone() const
PUBLIC 680b0 0 std::__ndk1::__function::__func<BS::thread_pool<(unsigned char)0>::{lambda(unsigned long)#1}, std::__ndk1::allocator<BS::thread_pool<(unsigned char)0>::{lambda(unsigned long)#1}>, void (unsigned long)>::__clone(std::__ndk1::__function::__base<void (unsigned long)>*) const
PUBLIC 680c0 0 std::__ndk1::__function::__func<BS::thread_pool<(unsigned char)0>::{lambda(unsigned long)#1}, std::__ndk1::allocator<BS::thread_pool<(unsigned char)0>::{lambda(unsigned long)#1}>, void (unsigned long)>::destroy()
PUBLIC 680c4 0 std::__ndk1::__function::__func<BS::thread_pool<(unsigned char)0>::{lambda(unsigned long)#1}, std::__ndk1::allocator<BS::thread_pool<(unsigned char)0>::{lambda(unsigned long)#1}>, void (unsigned long)>::destroy_deallocate()
PUBLIC 680c8 0 std::__ndk1::__function::__func<BS::thread_pool<(unsigned char)0>::{lambda(unsigned long)#1}, std::__ndk1::allocator<BS::thread_pool<(unsigned char)0>::{lambda(unsigned long)#1}>, void (unsigned long)>::operator()(unsigned long&&)
PUBLIC 680cc 0 std::__ndk1::__function::__func<BS::thread_pool<(unsigned char)0>::{lambda(unsigned long)#1}, std::__ndk1::allocator<BS::thread_pool<(unsigned char)0>::{lambda(unsigned long)#1}>, void (unsigned long)>::target(std::type_info const&) const
PUBLIC 680e8 0 std::__ndk1::__function::__func<BS::thread_pool<(unsigned char)0>::{lambda(unsigned long)#1}, std::__ndk1::allocator<BS::thread_pool<(unsigned char)0>::{lambda(unsigned long)#1}>, void (unsigned long)>::target_type() const
PUBLIC 680f4 0 std::__ndk1::__function::__base<void (unsigned long)>::~__base()
PUBLIC 680f8 0 std::__ndk1::__function::__func<BS::thread_pool<(unsigned char)0>::create_threads<BS::thread_pool<(unsigned char)0>::thread_pool(unsigned long)::{lambda()#1}>(unsigned long, BS::thread_pool<(unsigned char)0>::thread_pool(unsigned long)::{lambda()#1}&&)::{lambda(unsigned long)#1}, std::__ndk1::allocator<BS::thread_pool<(unsigned char)0>::create_threads<BS::thread_pool<(unsigned char)0>::thread_pool(unsigned long)::{lambda()#1}>(unsigned long, BS::thread_pool<(unsigned char)0>::thread_pool(unsigned long)::{lambda()#1}&&)::{lambda(unsigned long)#1}>, void (unsigned long)>::~__func()
PUBLIC 680fc 0 std::__ndk1::__function::__func<BS::thread_pool<(unsigned char)0>::create_threads<BS::thread_pool<(unsigned char)0>::thread_pool(unsigned long)::{lambda()#1}>(unsigned long, BS::thread_pool<(unsigned char)0>::thread_pool(unsigned long)::{lambda()#1}&&)::{lambda(unsigned long)#1}, std::__ndk1::allocator<BS::thread_pool<(unsigned char)0>::create_threads<BS::thread_pool<(unsigned char)0>::thread_pool(unsigned long)::{lambda()#1}>(unsigned long, BS::thread_pool<(unsigned char)0>::thread_pool(unsigned long)::{lambda()#1}&&)::{lambda(unsigned long)#1}>, void (unsigned long)>::__clone() const
PUBLIC 68134 0 std::__ndk1::__function::__func<BS::thread_pool<(unsigned char)0>::create_threads<BS::thread_pool<(unsigned char)0>::thread_pool(unsigned long)::{lambda()#1}>(unsigned long, BS::thread_pool<(unsigned char)0>::thread_pool(unsigned long)::{lambda()#1}&&)::{lambda(unsigned long)#1}, std::__ndk1::allocator<BS::thread_pool<(unsigned char)0>::create_threads<BS::thread_pool<(unsigned char)0>::thread_pool(unsigned long)::{lambda()#1}>(unsigned long, BS::thread_pool<(unsigned char)0>::thread_pool(unsigned long)::{lambda()#1}&&)::{lambda(unsigned long)#1}>, void (unsigned long)>::__clone(std::__ndk1::__function::__base<void (unsigned long)>*) const
PUBLIC 6814c 0 std::__ndk1::__function::__func<BS::thread_pool<(unsigned char)0>::create_threads<BS::thread_pool<(unsigned char)0>::thread_pool(unsigned long)::{lambda()#1}>(unsigned long, BS::thread_pool<(unsigned char)0>::thread_pool(unsigned long)::{lambda()#1}&&)::{lambda(unsigned long)#1}, std::__ndk1::allocator<BS::thread_pool<(unsigned char)0>::create_threads<BS::thread_pool<(unsigned char)0>::thread_pool(unsigned long)::{lambda()#1}>(unsigned long, BS::thread_pool<(unsigned char)0>::thread_pool(unsigned long)::{lambda()#1}&&)::{lambda(unsigned long)#1}>, void (unsigned long)>::destroy()
PUBLIC 68150 0 std::__ndk1::__function::__func<BS::thread_pool<(unsigned char)0>::create_threads<BS::thread_pool<(unsigned char)0>::thread_pool(unsigned long)::{lambda()#1}>(unsigned long, BS::thread_pool<(unsigned char)0>::thread_pool(unsigned long)::{lambda()#1}&&)::{lambda(unsigned long)#1}, std::__ndk1::allocator<BS::thread_pool<(unsigned char)0>::create_threads<BS::thread_pool<(unsigned char)0>::thread_pool(unsigned long)::{lambda()#1}>(unsigned long, BS::thread_pool<(unsigned char)0>::thread_pool(unsigned long)::{lambda()#1}&&)::{lambda(unsigned long)#1}>, void (unsigned long)>::destroy_deallocate()
PUBLIC 68154 0 std::__ndk1::__function::__func<BS::thread_pool<(unsigned char)0>::create_threads<BS::thread_pool<(unsigned char)0>::thread_pool(unsigned long)::{lambda()#1}>(unsigned long, BS::thread_pool<(unsigned char)0>::thread_pool(unsigned long)::{lambda()#1}&&)::{lambda(unsigned long)#1}, std::__ndk1::allocator<BS::thread_pool<(unsigned char)0>::create_threads<BS::thread_pool<(unsigned char)0>::thread_pool(unsigned long)::{lambda()#1}>(unsigned long, BS::thread_pool<(unsigned char)0>::thread_pool(unsigned long)::{lambda()#1}&&)::{lambda(unsigned long)#1}>, void (unsigned long)>::operator()(unsigned long&&)
PUBLIC 68158 0 std::__ndk1::__function::__func<BS::thread_pool<(unsigned char)0>::create_threads<BS::thread_pool<(unsigned char)0>::thread_pool(unsigned long)::{lambda()#1}>(unsigned long, BS::thread_pool<(unsigned char)0>::thread_pool(unsigned long)::{lambda()#1}&&)::{lambda(unsigned long)#1}, std::__ndk1::allocator<BS::thread_pool<(unsigned char)0>::create_threads<BS::thread_pool<(unsigned char)0>::thread_pool(unsigned long)::{lambda()#1}>(unsigned long, BS::thread_pool<(unsigned char)0>::thread_pool(unsigned long)::{lambda()#1}&&)::{lambda(unsigned long)#1}>, void (unsigned long)>::target(std::type_info const&) const
PUBLIC 68174 0 std::__ndk1::__function::__func<BS::thread_pool<(unsigned char)0>::create_threads<BS::thread_pool<(unsigned char)0>::thread_pool(unsigned long)::{lambda()#1}>(unsigned long, BS::thread_pool<(unsigned char)0>::thread_pool(unsigned long)::{lambda()#1}&&)::{lambda(unsigned long)#1}, std::__ndk1::allocator<BS::thread_pool<(unsigned char)0>::create_threads<BS::thread_pool<(unsigned char)0>::thread_pool(unsigned long)::{lambda()#1}>(unsigned long, BS::thread_pool<(unsigned char)0>::thread_pool(unsigned long)::{lambda()#1}&&)::{lambda(unsigned long)#1}>, void (unsigned long)>::target_type() const
PUBLIC 68180 0 std::__ndk1::__thread_proxy[abi:ne190000]<std::__ndk1::tuple<std::__ndk1::unique_ptr<std::__ndk1::__thread_struct, std::__ndk1::default_delete<std::__ndk1::unique_ptr> >, BS::thread_pool<(unsigned char)0>::create_threads<BS::thread_pool::thread_pool(unsigned long)::{lambda()#1}>(unsigned long, BS::thread_pool::thread_pool(unsigned long)::{lambda()#1}&&)::{lambda()#1}> >(std::__ndk1::tuple<std::__ndk1::unique_ptr<std::__ndk1::__thread_struct, std::__ndk1::default_delete<std::__ndk1::unique_ptr> >, BS::thread_pool<(unsigned char)0>::create_threads<BS::thread_pool::thread_pool(unsigned long)::{lambda()#1}>(unsigned long, BS::thread_pool::thread_pool(unsigned long)::{lambda()#1}&&)::{lambda()#1}>)
PUBLIC 685c8 0 std::__ndk1::unique_ptr<std::__ndk1::tuple<std::__ndk1::unique_ptr<std::__ndk1::__thread_struct, std::__ndk1::default_delete<std::__ndk1::__thread_struct> >, BS::thread_pool<(unsigned char)0>::create_threads<BS::thread_pool<(unsigned char)0>::thread_pool(unsigned long)::{lambda()#1}>(unsigned long, BS::thread_pool<(unsigned char)0>::thread_pool(unsigned long)::{lambda()#1}&&)::{lambda()#1}>, std::__ndk1::default_delete<std::__ndk1::tuple<std::__ndk1::unique_ptr<std::__ndk1::__thread_struct, std::__ndk1::default_delete<std::__ndk1::__thread_struct> >, BS::thread_pool<(unsigned char)0>::create_threads<BS::thread_pool<(unsigned char)0>::thread_pool(unsigned long)::{lambda()#1}>(unsigned long, BS::thread_pool<(unsigned char)0>::thread_pool(unsigned long)::{lambda()#1}&&)::{lambda()#1}> > >::~unique_ptr[abi:ne190000]()
PUBLIC 68618 0 std::__ndk1::unique_ptr<std::__ndk1::__thread_struct, std::__ndk1::default_delete<std::__ndk1::__thread_struct> >::~unique_ptr[abi:ne190000]()
PUBLIC 68654 0 std::__ndk1::deque<std::__ndk1::function<void ()>, std::__ndk1::allocator<std::__ndk1::function<void ()> > >::~deque[abi:ne190000]()
PUBLIC 6881c 0 std::__ndk1::deque<std::__ndk1::function<void ()>, std::__ndk1::allocator<std::__ndk1::function<void ()> > >::__add_back_capacity()
PUBLIC 68f2c 0 std::__ndk1::__function::__func<MoreIcons::loadIcon(std::__ndk1::__fs::filesystem::path const&, IconPack const&, IconType)::$_0, std::__ndk1::allocator<MoreIcons::loadIcon(std::__ndk1::__fs::filesystem::path const&, IconPack const&, IconType)::$_0>, void ()>::~__func()
PUBLIC 68fb4 0 std::__ndk1::__function::__func<MoreIcons::loadIcon(std::__ndk1::__fs::filesystem::path const&, IconPack const&, IconType)::$_0, std::__ndk1::allocator<MoreIcons::loadIcon(std::__ndk1::__fs::filesystem::path const&, IconPack const&, IconType)::$_0>, void ()>::~__func()
PUBLIC 69048 0 std::__ndk1::__function::__func<MoreIcons::loadIcon(std::__ndk1::__fs::filesystem::path const&, IconPack const&, IconType)::$_0, std::__ndk1::allocator<MoreIcons::loadIcon(std::__ndk1::__fs::filesystem::path const&, IconPack const&, IconType)::$_0>, void ()>::__clone() const
PUBLIC 69104 0 std::__ndk1::__function::__func<MoreIcons::loadIcon(std::__ndk1::__fs::filesystem::path const&, IconPack const&, IconType)::$_0, std::__ndk1::allocator<MoreIcons::loadIcon(std::__ndk1::__fs::filesystem::path const&, IconPack const&, IconType)::$_0>, void ()>::__clone(std::__ndk1::__function::__base<void ()>*) const
PUBLIC 69198 0 std::__ndk1::__function::__func<MoreIcons::loadIcon(std::__ndk1::__fs::filesystem::path const&, IconPack const&, IconType)::$_0, std::__ndk1::allocator<MoreIcons::loadIcon(std::__ndk1::__fs::filesystem::path const&, IconPack const&, IconType)::$_0>, void ()>::destroy()
PUBLIC 69214 0 std::__ndk1::__function::__func<MoreIcons::loadIcon(std::__ndk1::__fs::filesystem::path const&, IconPack const&, IconType)::$_0, std::__ndk1::allocator<MoreIcons::loadIcon(std::__ndk1::__fs::filesystem::path const&, IconPack const&, IconType)::$_0>, void ()>::destroy_deallocate()
PUBLIC 6929c 0 std::__ndk1::__function::__func<MoreIcons::loadIcon(std::__ndk1::__fs::filesystem::path const&, IconPack const&, IconType)::$_0, std::__ndk1::allocator<MoreIcons::loadIcon(std::__ndk1::__fs::filesystem::path const&, IconPack const&, IconType)::$_0>, void ()>::operator()()
PUBLIC 6aa28 0 std::__ndk1::__function::__func<MoreIcons::loadIcon(std::__ndk1::__fs::filesystem::path const&, IconPack const&, IconType)::$_0, std::__ndk1::allocator<MoreIcons::loadIcon(std::__ndk1::__fs::filesystem::path const&, IconPack const&, IconType)::$_0>, void ()>::target(std::type_info const&) const
PUBLIC 6aa44 0 std::__ndk1::__function::__func<MoreIcons::loadIcon(std::__ndk1::__fs::filesystem::path const&, IconPack const&, IconType)::$_0, std::__ndk1::allocator<MoreIcons::loadIcon(std::__ndk1::__fs::filesystem::path const&, IconPack const&, IconType)::$_0>, void ()>::target_type() const
PUBLIC 6aa50 0 fmt::v11::detail::value<fmt::v11::context>::format_custom_arg<std::__ndk1::__fs::filesystem::path, fmt::v11::formatter<std::__ndk1::__fs::filesystem::path, char, void> >(void*, fmt::v11::basic_format_parse_context<char>&, fmt::v11::context&)
PUBLIC 6b900 0 fmt::v11::detail::parse_dynamic_spec<char>(char const*, char const*, int&, fmt::v11::detail::arg_ref<char>&, fmt::v11::basic_format_parse_context<char>&)
PUBLIC 6baa4 0 fmt::v11::detail::do_parse_arg_id<char, fmt::v11::detail::dynamic_spec_id_handler<char>&>(char const*, char const*, fmt::v11::detail::dynamic_spec_id_handler<char>&)
PUBLIC 6bc3c 0 fmt::v11::detail::handle_dynamic_spec<fmt::v11::detail::width_checker, fmt::v11::context>(int&, fmt::v11::detail::arg_ref<fmt::v11::context::char_type>, fmt::v11::context&)
PUBLIC 6bd50 0 fmt::v11::detail::write<char, fmt::v11::basic_appender<char> >(fmt::v11::basic_appender<char>, fmt::v11::basic_string_view<char>, fmt::v11::format_specs const&)
PUBLIC 6bfcc 0 fmt::v11::detail::get_dynamic_spec<fmt::v11::detail::width_checker, fmt::v11::basic_format_arg<fmt::v11::context> >(fmt::v11::basic_format_arg<fmt::v11::context>)
PUBLIC 6c060 0 fmt::v11::basic_format_args<fmt::v11::context>::get<char>(fmt::v11::basic_string_view<char>) const
PUBLIC 6c194 0 fmt::v11::detail::write_escaped_string<char, fmt::v11::detail::counting_iterator>(fmt::v11::detail::counting_iterator, fmt::v11::basic_string_view<char>)
PUBLIC 6c678 0 fmt::v11::detail::write_padded<char, (fmt::v11::align::type)1, fmt::v11::basic_appender<char>, fmt::v11::detail::write<char, fmt::v11::basic_appender<char> >(fmt::v11::basic_appender<char>, fmt::v11::basic_string_view<char>, fmt::v11::format_specs const&)::{lambda(fmt::v11::basic_appender<char>)#1}>(fmt::v11::basic_appender<char>, fmt::v11::format_specs const&, unsigned long, unsigned long, fmt::v11::detail::write<char, fmt::v11::basic_appender<char> >(fmt::v11::basic_appender<char>, fmt::v11::basic_string_view<char>, fmt::v11::format_specs const&)::{lambda(fmt::v11::basic_appender<char>&&)#1})
PUBLIC 6c884 0 fmt::v11::detail::for_each_codepoint<fmt::v11::detail::code_point_index(fmt::v11::basic_string_view<char>, unsigned long)::{lambda(unsigned int, fmt::v11::basic_string_view<char>)#1}>(fmt::v11::basic_string_view<char>, fmt::v11::detail::code_point_index(fmt::v11::basic_string_view<char>, unsigned long)::{lambda(unsigned int, fmt::v11::basic_string_view<char>)#1})
PUBLIC 6cc78 0 fmt::v11::detail::write_escaped_cp<fmt::v11::detail::counting_iterator, char>(fmt::v11::detail::counting_iterator, fmt::v11::detail::find_escape_result<char> const&)
PUBLIC 6ce0c 0 fmt::v11::detail::for_each_codepoint<fmt::v11::detail::compute_width(fmt::v11::basic_string_view<char>)::count_code_points>(fmt::v11::basic_string_view<char>, fmt::v11::detail::compute_width(fmt::v11::basic_string_view<char>)::count_code_points)::{lambda(char const*, char const*)#1}::operator()(char const*, char const*) const
PUBLIC 6cfc4 0 fmt::v11::detail::fill<char, fmt::v11::basic_appender<char> >(fmt::v11::basic_appender<char>, unsigned long, fmt::v11::detail::fill_t const&)
PUBLIC 6d194 0 fmt::v11::detail::write_escaped_string<char, fmt::v11::basic_appender<char> >(fmt::v11::basic_appender<char>, fmt::v11::basic_string_view<char>)
PUBLIC 6d7dc 0 fmt::v11::detail::write_escaped_cp<fmt::v11::basic_appender<char>, char>(fmt::v11::basic_appender<char>, fmt::v11::detail::find_escape_result<char> const&)
PUBLIC 6d9c0 0 fmt::v11::detail::write_codepoint<(unsigned long)2, char, fmt::v11::basic_appender<char> >(fmt::v11::basic_appender<char>, char, unsigned int)
PUBLIC 6db38 0 fmt::v11::detail::write_codepoint<(unsigned long)4, char, fmt::v11::basic_appender<char> >(fmt::v11::basic_appender<char>, char, unsigned int)
PUBLIC 6dcb0 0 fmt::v11::detail::write_codepoint<(unsigned long)8, char, fmt::v11::basic_appender<char> >(fmt::v11::basic_appender<char>, char, unsigned int)
PUBLIC 6de28 0 fmt::v11::basic_memory_buffer<char, (unsigned long)500, std::__ndk1::allocator<char> >::grow(fmt::v11::detail::buffer<char>&, unsigned long)
PUBLIC 6dea0 0 fmt::v11::detail::write_codepoint<(unsigned long)2, char, std::__ndk1::back_insert_iterator<fmt::v11::basic_memory_buffer<char, (unsigned long)500, std::__ndk1::allocator<char> > > >(std::__ndk1::back_insert_iterator<fmt::v11::basic_memory_buffer<char, (unsigned long)500, std::__ndk1::allocator<char> > >, char, unsigned int)
PUBLIC 6e018 0 std::__ndk1::vector<LogData, std::__ndk1::allocator<LogData> >::__push_back_slow_path<LogData>(LogData&&)
PUBLIC 6e168 0 std::__ndk1::vector<LogData, std::__ndk1::allocator<LogData> >::__throw_length_error[abi:ne190000]() const
PUBLIC 6e17c 0 std::__ndk1::vector<ImageData, std::__ndk1::allocator<ImageData> >::__push_back_slow_path<ImageData>(ImageData&&)
PUBLIC 6e3c8 0 std::__ndk1::vector<ImageData, std::__ndk1::allocator<ImageData> >::__throw_length_error[abi:ne190000]() const
PUBLIC 6e3dc 0 std::__ndk1::__function::__func<MoreIcons::loadIcon(std::__ndk1::__fs::filesystem::path const&, IconPack const&, IconType)::$_1, std::__ndk1::allocator<MoreIcons::loadIcon(std::__ndk1::__fs::filesystem::path const&, IconPack const&, IconType)::$_1>, void ()>::~__func()
PUBLIC 6e464 0 std::__ndk1::__function::__func<MoreIcons::loadIcon(std::__ndk1::__fs::filesystem::path const&, IconPack const&, IconType)::$_1, std::__ndk1::allocator<MoreIcons::loadIcon(std::__ndk1::__fs::filesystem::path const&, IconPack const&, IconType)::$_1>, void ()>::~__func()
PUBLIC 6e4f8 0 std::__ndk1::__function::__func<MoreIcons::loadIcon(std::__ndk1::__fs::filesystem::path const&, IconPack const&, IconType)::$_1, std::__ndk1::allocator<MoreIcons::loadIcon(std::__ndk1::__fs::filesystem::path const&, IconPack const&, IconType)::$_1>, void ()>::__clone() const
PUBLIC 6e5b4 0 std::__ndk1::__function::__func<MoreIcons::loadIcon(std::__ndk1::__fs::filesystem::path const&, IconPack const&, IconType)::$_1, std::__ndk1::allocator<MoreIcons::loadIcon(std::__ndk1::__fs::filesystem::path const&, IconPack const&, IconType)::$_1>, void ()>::__clone(std::__ndk1::__function::__base<void ()>*) const
PUBLIC 6e648 0 std::__ndk1::__function::__func<MoreIcons::loadIcon(std::__ndk1::__fs::filesystem::path const&, IconPack const&, IconType)::$_1, std::__ndk1::allocator<MoreIcons::loadIcon(std::__ndk1::__fs::filesystem::path const&, IconPack const&, IconType)::$_1>, void ()>::destroy()
PUBLIC 6e6c4 0 std::__ndk1::__function::__func<MoreIcons::loadIcon(std::__ndk1::__fs::filesystem::path const&, IconPack const&, IconType)::$_1, std::__ndk1::allocator<MoreIcons::loadIcon(std::__ndk1::__fs::filesystem::path const&, IconPack const&, IconType)::$_1>, void ()>::destroy_deallocate()
PUBLIC 6e74c 0 std::__ndk1::__function::__func<MoreIcons::loadIcon(std::__ndk1::__fs::filesystem::path const&, IconPack const&, IconType)::$_1, std::__ndk1::allocator<MoreIcons::loadIcon(std::__ndk1::__fs::filesystem::path const&, IconPack const&, IconType)::$_1>, void ()>::operator()()
PUBLIC 70460 0 std::__ndk1::__function::__func<MoreIcons::loadIcon(std::__ndk1::__fs::filesystem::path const&, IconPack const&, IconType)::$_1, std::__ndk1::allocator<MoreIcons::loadIcon(std::__ndk1::__fs::filesystem::path const&, IconPack const&, IconType)::$_1>, void ()>::target(std::type_info const&) const
PUBLIC 7047c 0 std::__ndk1::__function::__func<MoreIcons::loadIcon(std::__ndk1::__fs::filesystem::path const&, IconPack const&, IconType)::$_1, std::__ndk1::allocator<MoreIcons::loadIcon(std::__ndk1::__fs::filesystem::path const&, IconPack const&, IconType)::$_1>, void ()>::target_type() const
PUBLIC 70488 0 std::__ndk1::__function::__func<MoreIcons::loadVanillaIcon(std::__ndk1::__fs::filesystem::path const&, IconPack const&, IconType)::$_0, std::__ndk1::allocator<MoreIcons::loadVanillaIcon(std::__ndk1::__fs::filesystem::path const&, IconPack const&, IconType)::$_0>, void ()>::~__func()
PUBLIC 70510 0 std::__ndk1::__function::__func<MoreIcons::loadVanillaIcon(std::__ndk1::__fs::filesystem::path const&, IconPack const&, IconType)::$_0, std::__ndk1::allocator<MoreIcons::loadVanillaIcon(std::__ndk1::__fs::filesystem::path const&, IconPack const&, IconType)::$_0>, void ()>::~__func()
PUBLIC 705a4 0 std::__ndk1::__function::__func<MoreIcons::loadVanillaIcon(std::__ndk1::__fs::filesystem::path const&, IconPack const&, IconType)::$_0, std::__ndk1::allocator<MoreIcons::loadVanillaIcon(std::__ndk1::__fs::filesystem::path const&, IconPack const&, IconType)::$_0>, void ()>::__clone() const
PUBLIC 70658 0 std::__ndk1::__function::__func<MoreIcons::loadVanillaIcon(std::__ndk1::__fs::filesystem::path const&, IconPack const&, IconType)::$_0, std::__ndk1::allocator<MoreIcons::loadVanillaIcon(std::__ndk1::__fs::filesystem::path const&, IconPack const&, IconType)::$_0>, void ()>::__clone(std::__ndk1::__function::__base<void ()>*) const
PUBLIC 706f8 0 std::__ndk1::__function::__func<MoreIcons::loadVanillaIcon(std::__ndk1::__fs::filesystem::path const&, IconPack const&, IconType)::$_0, std::__ndk1::allocator<MoreIcons::loadVanillaIcon(std::__ndk1::__fs::filesystem::path const&, IconPack const&, IconType)::$_0>, void ()>::destroy()
PUBLIC 70774 0 std::__ndk1::__function::__func<MoreIcons::loadVanillaIcon(std::__ndk1::__fs::filesystem::path const&, IconPack const&, IconType)::$_0, std::__ndk1::allocator<MoreIcons::loadVanillaIcon(std::__ndk1::__fs::filesystem::path const&, IconPack const&, IconType)::$_0>, void ()>::destroy_deallocate()
PUBLIC 707fc 0 std::__ndk1::__function::__func<MoreIcons::loadVanillaIcon(std::__ndk1::__fs::filesystem::path const&, IconPack const&, IconType)::$_0, std::__ndk1::allocator<MoreIcons::loadVanillaIcon(std::__ndk1::__fs::filesystem::path const&, IconPack const&, IconType)::$_0>, void ()>::operator()()
PUBLIC 71db4 0 std::__ndk1::__function::__func<MoreIcons::loadVanillaIcon(std::__ndk1::__fs::filesystem::path const&, IconPack const&, IconType)::$_0, std::__ndk1::allocator<MoreIcons::loadVanillaIcon(std::__ndk1::__fs::filesystem::path const&, IconPack const&, IconType)::$_0>, void ()>::target(std::type_info const&) const
PUBLIC 71dd0 0 std::__ndk1::__function::__func<MoreIcons::loadVanillaIcon(std::__ndk1::__fs::filesystem::path const&, IconPack const&, IconType)::$_0, std::__ndk1::allocator<MoreIcons::loadVanillaIcon(std::__ndk1::__fs::filesystem::path const&, IconPack const&, IconType)::$_0>, void ()>::target_type() const
PUBLIC 71ddc 0 ImageData::operator=(ImageData&&)
PUBLIC 71ee8 0 std::__ndk1::__function::__func<MoreIcons::loadTrail(std::__ndk1::__fs::filesystem::path const&, IconPack const&)::$_0, std::__ndk1::allocator<MoreIcons::loadTrail(std::__ndk1::__fs::filesystem::path const&, IconPack const&)::$_0>, void ()>::~__func()
PUBLIC 71f70 0 std::__ndk1::__function::__func<MoreIcons::loadTrail(std::__ndk1::__fs::filesystem::path const&, IconPack const&)::$_0, std::__ndk1::allocator<MoreIcons::loadTrail(std::__ndk1::__fs::filesystem::path const&, IconPack const&)::$_0>, void ()>::~__func()
PUBLIC 72004 0 std::__ndk1::__function::__func<MoreIcons::loadTrail(std::__ndk1::__fs::filesystem::path const&, IconPack const&)::$_0, std::__ndk1::allocator<MoreIcons::loadTrail(std::__ndk1::__fs::filesystem::path const&, IconPack const&)::$_0>, void ()>::__clone() const
PUBLIC 720b8 0 std::__ndk1::__function::__func<MoreIcons::loadTrail(std::__ndk1::__fs::filesystem::path const&, IconPack const&)::$_0, std::__ndk1::allocator<MoreIcons::loadTrail(std::__ndk1::__fs::filesystem::path const&, IconPack const&)::$_0>, void ()>::__clone(std::__ndk1::__function::__base<void ()>*) const
PUBLIC 72144 0 std::__ndk1::__function::__func<MoreIcons::loadTrail(std::__ndk1::__fs::filesystem::path const&, IconPack const&)::$_0, std::__ndk1::allocator<MoreIcons::loadTrail(std::__ndk1::__fs::filesystem::path const&, IconPack const&)::$_0>, void ()>::destroy()
PUBLIC 721c0 0 std::__ndk1::__function::__func<MoreIcons::loadTrail(std::__ndk1::__fs::filesystem::path const&, IconPack const&)::$_0, std::__ndk1::allocator<MoreIcons::loadTrail(std::__ndk1::__fs::filesystem::path const&, IconPack const&)::$_0>, void ()>::destroy_deallocate()
PUBLIC 72248 0 std::__ndk1::__function::__func<MoreIcons::loadTrail(std::__ndk1::__fs::filesystem::path const&, IconPack const&)::$_0, std::__ndk1::allocator<MoreIcons::loadTrail(std::__ndk1::__fs::filesystem::path const&, IconPack const&)::$_0>, void ()>::operator()()
PUBLIC 7348c 0 std::__ndk1::__function::__func<MoreIcons::loadTrail(std::__ndk1::__fs::filesystem::path const&, IconPack const&)::$_0, std::__ndk1::allocator<MoreIcons::loadTrail(std::__ndk1::__fs::filesystem::path const&, IconPack const&)::$_0>, void ()>::target(std::type_info const&) const
PUBLIC 734a8 0 std::__ndk1::__function::__func<MoreIcons::loadTrail(std::__ndk1::__fs::filesystem::path const&, IconPack const&)::$_0, std::__ndk1::allocator<MoreIcons::loadTrail(std::__ndk1::__fs::filesystem::path const&, IconPack const&)::$_0>, void ()>::target_type() const
PUBLIC 734b4 0 geode::impl::ResultData<matjson::Value, std::__ndk1::basic_string<char, std::__ndk1::char_traits<char>, std::__ndk1::allocator<char> > >::~ResultData()
PUBLIC 73528 0 geode::impl::ResultData<bool, std::__ndk1::basic_string<char, std::__ndk1::char_traits<char>, std::__ndk1::allocator<char> > >::~ResultData()
PUBLIC 7359c 0 std::__ndk1::__variant_detail::__visitation::__base::__dispatcher<(unsigned long)0>::__dispatch[abi:ne190000]<std::__ndk1::__variant_detail::__dtor<std::__ndk1::__variant_detail::__traits<matjson::Value, std::__ndk1::basic_string<char, std::__ndk1::char_traits<char>, std::__ndk1::allocator<char> > >, (std::__ndk1::__variant_detail::_Trait)1>::__destroy[abi:ne190000]()::{lambda(auto:1&)#1}, std::__ndk1::__variant_detail::__base<(std::__ndk1::__variant_detail::__traits<matjson::Value, std::__ndk1::basic_string<char, std::__ndk1::char_traits<char>, std::__ndk1::allocator<char> > >)1, matjson, std::__ndk1::allocator<char> >&>(std::__ndk1::__variant_detail::__dtor<std::__ndk1::__variant_detail::__traits<matjson::Value, std::__ndk1::basic_string<char, std::__ndk1::char_traits<char>, std::__ndk1::allocator<char> > >, (std::__ndk1::__variant_detail::_Trait)1>, std::__ndk1::__variant_detail::__base<(std::__ndk1::__variant_detail::__traits<matjson::Value, std::__ndk1::basic_string<char, std::__ndk1::char_traits<char>, std::__ndk1::allocator<char> > >)1, matjson, std::__ndk1::allocator<char> >&)
PUBLIC 735a4 0 std::__ndk1::__variant_detail::__visitation::__base::__dispatcher<(unsigned long)1>::__dispatch[abi:ne190000]<std::__ndk1::__variant_detail::__dtor<std::__ndk1::__variant_detail::__traits<matjson::Value, std::__ndk1::basic_string<char, std::__ndk1::char_traits<char>, std::__ndk1::allocator<char> > >, (std::__ndk1::__variant_detail::_Trait)1>::__destroy[abi:ne190000]()::{lambda(auto:1&)#1}, std::__ndk1::__variant_detail::__base<(std::__ndk1::__variant_detail::__traits<matjson::Value, std::__ndk1::basic_string<char, std::__ndk1::char_traits<char>, std::__ndk1::allocator<char> > >)1, matjson, std::__ndk1::allocator<char> >&>(std::__ndk1::__variant_detail::__dtor<std::__ndk1::__variant_detail::__traits<matjson::Value, std::__ndk1::basic_string<char, std::__ndk1::char_traits<char>, std::__ndk1::allocator<char> > >, (std::__ndk1::__variant_detail::_Trait)1>, std::__ndk1::__variant_detail::__base<(std::__ndk1::__variant_detail::__traits<matjson::Value, std::__ndk1::basic_string<char, std::__ndk1::char_traits<char>, std::__ndk1::allocator<char> > >)1, matjson, std::__ndk1::allocator<char> >&)
PUBLIC 735b8 0 std::__ndk1::__variant_detail::__visitation::__base::__dispatcher<(unsigned long)0>::__dispatch[abi:ne190000]<std::__ndk1::__variant_detail::__dtor<std::__ndk1::__variant_detail::__traits<bool, std::__ndk1::basic_string<char, std::__ndk1::char_traits<char>, std::__ndk1::allocator<char> > >, (std::__ndk1::__variant_detail::_Trait)1>::__destroy[abi:ne190000]()::{lambda(auto:1&)#1}, std::__ndk1::__variant_detail::__base<(std::__ndk1::__variant_detail::__traits<bool, std::__ndk1::basic_string<char, std::__ndk1::char_traits<char>, std::__ndk1::allocator<char> > >)1, bool, std::__ndk1::allocator<char> >&>(std::__ndk1::__variant_detail::__dtor<std::__ndk1::__variant_detail::__traits<bool, std::__ndk1::basic_string<char, std::__ndk1::char_traits<char>, std::__ndk1::allocator<char> > >, (std::__ndk1::__variant_detail::_Trait)1>, std::__ndk1::__variant_detail::__base<(std::__ndk1::__variant_detail::__traits<bool, std::__ndk1::basic_string<char, std::__ndk1::char_traits<char>, std::__ndk1::allocator<char> > >)1, bool, std::__ndk1::allocator<char> >&)
PUBLIC 735bc 0 std::__ndk1::__variant_detail::__visitation::__base::__dispatcher<(unsigned long)1>::__dispatch[abi:ne190000]<std::__ndk1::__variant_detail::__dtor<std::__ndk1::__variant_detail::__traits<bool, std::__ndk1::basic_string<char, std::__ndk1::char_traits<char>, std::__ndk1::allocator<char> > >, (std::__ndk1::__variant_detail::_Trait)1>::__destroy[abi:ne190000]()::{lambda(auto:1&)#1}, std::__ndk1::__variant_detail::__base<(std::__ndk1::__variant_detail::__traits<bool, std::__ndk1::basic_string<char, std::__ndk1::char_traits<char>, std::__ndk1::allocator<char> > >)1, bool, std::__ndk1::allocator<char> >&>(std::__ndk1::__variant_detail::__dtor<std::__ndk1::__variant_detail::__traits<bool, std::__ndk1::basic_string<char, std::__ndk1::char_traits<char>, std::__ndk1::allocator<char> > >, (std::__ndk1::__variant_detail::_Trait)1>, std::__ndk1::__variant_detail::__base<(std::__ndk1::__variant_detail::__traits<bool, std::__ndk1::basic_string<char, std::__ndk1::char_traits<char>, std::__ndk1::allocator<char> > >)1, bool, std::__ndk1::allocator<char> >&)
PUBLIC 735d0 0 std::__ndk1::__function::__func<MoreIcons::loadVanillaTrail(std::__ndk1::__fs::filesystem::path const&, IconPack const&)::$_0, std::__ndk1::allocator<MoreIcons::loadVanillaTrail(std::__ndk1::__fs::filesystem::path const&, IconPack const&)::$_0>, void ()>::~__func()
PUBLIC 73658 0 std::__ndk1::__function::__func<MoreIcons::loadVanillaTrail(std::__ndk1::__fs::filesystem::path const&, IconPack const&)::$_0, std::__ndk1::allocator<MoreIcons::loadVanillaTrail(std::__ndk1::__fs::filesystem::path const&, IconPack const&)::$_0>, void ()>::~__func()
PUBLIC 736ec 0 std::__ndk1::__function::__func<MoreIcons::loadVanillaTrail(std::__ndk1::__fs::filesystem::path const&, IconPack const&)::$_0, std::__ndk1::allocator<MoreIcons::loadVanillaTrail(std::__ndk1::__fs::filesystem::path const&, IconPack const&)::$_0>, void ()>::__clone() const
PUBLIC 737a0 0 std::__ndk1::__function::__func<MoreIcons::loadVanillaTrail(std::__ndk1::__fs::filesystem::path const&, IconPack const&)::$_0, std::__ndk1::allocator<MoreIcons::loadVanillaTrail(std::__ndk1::__fs::filesystem::path const&, IconPack const&)::$_0>, void ()>::__clone(std::__ndk1::__function::__base<void ()>*) const
PUBLIC 7382c 0 std::__ndk1::__function::__func<MoreIcons::loadVanillaTrail(std::__ndk1::__fs::filesystem::path const&, IconPack const&)::$_0, std::__ndk1::allocator<MoreIcons::loadVanillaTrail(std::__ndk1::__fs::filesystem::path const&, IconPack const&)::$_0>, void ()>::destroy()
PUBLIC 738a8 0 std::__ndk1::__function::__func<MoreIcons::loadVanillaTrail(std::__ndk1::__fs::filesystem::path const&, IconPack const&)::$_0, std::__ndk1::allocator<MoreIcons::loadVanillaTrail(std::__ndk1::__fs::filesystem::path const&, IconPack const&)::$_0>, void ()>::destroy_deallocate()
PUBLIC 73930 0 std::__ndk1::__function::__func<MoreIcons::loadVanillaTrail(std::__ndk1::__fs::filesystem::path const&, IconPack const&)::$_0, std::__ndk1::allocator<MoreIcons::loadVanillaTrail(std::__ndk1::__fs::filesystem::path const&, IconPack const&)::$_0>, void ()>::operator()()
PUBLIC 748ac 0 std::__ndk1::__function::__func<MoreIcons::loadVanillaTrail(std::__ndk1::__fs::filesystem::path const&, IconPack const&)::$_0, std::__ndk1::allocator<MoreIcons::loadVanillaTrail(std::__ndk1::__fs::filesystem::path const&, IconPack const&)::$_0>, void ()>::target(std::type_info const&) const
PUBLIC 748c8 0 std::__ndk1::__function::__func<MoreIcons::loadVanillaTrail(std::__ndk1::__fs::filesystem::path const&, IconPack const&)::$_0, std::__ndk1::allocator<MoreIcons::loadVanillaTrail(std::__ndk1::__fs::filesystem::path const&, IconPack const&)::$_0>, void ()>::target_type() const
PUBLIC 748d4 0 std::__ndk1::__function::__base<void (FLAlertLayer*, bool)>::~__base()
PUBLIC 748d8 0 std::__ndk1::__function::__func<MoreIcons::showInfoPopup(bool)::$_0, std::__ndk1::allocator<MoreIcons::showInfoPopup(bool)::$_0>, void (FLAlertLayer*, bool)>::~__func()
PUBLIC 748dc 0 std::__ndk1::__function::__func<MoreIcons::showInfoPopup(bool)::$_0, std::__ndk1::allocator<MoreIcons::showInfoPopup(bool)::$_0>, void (FLAlertLayer*, bool)>::__clone() const
PUBLIC 74914 0 std::__ndk1::__function::__func<MoreIcons::showInfoPopup(bool)::$_0, std::__ndk1::allocator<MoreIcons::showInfoPopup(bool)::$_0>, void (FLAlertLayer*, bool)>::__clone(std::__ndk1::__function::__base<void (FLAlertLayer*, bool)>*) const
PUBLIC 7492c 0 std::__ndk1::__function::__func<MoreIcons::showInfoPopup(bool)::$_0, std::__ndk1::allocator<MoreIcons::showInfoPopup(bool)::$_0>, void (FLAlertLayer*, bool)>::destroy()
PUBLIC 74930 0 std::__ndk1::__function::__func<MoreIcons::showInfoPopup(bool)::$_0, std::__ndk1::allocator<MoreIcons::showInfoPopup(bool)::$_0>, void (FLAlertLayer*, bool)>::destroy_deallocate()
PUBLIC 74934 0 std::__ndk1::__function::__func<MoreIcons::showInfoPopup(bool)::$_0, std::__ndk1::allocator<MoreIcons::showInfoPopup(bool)::$_0>, void (FLAlertLayer*, bool)>::operator()(FLAlertLayer*&&, bool&&)
PUBLIC 749ec 0 std::__ndk1::__function::__func<MoreIcons::showInfoPopup(bool)::$_0, std::__ndk1::allocator<MoreIcons::showInfoPopup(bool)::$_0>, void (FLAlertLayer*, bool)>::target(std::type_info const&) const
PUBLIC 74a08 0 std::__ndk1::__function::__func<MoreIcons::showInfoPopup(bool)::$_0, std::__ndk1::allocator<MoreIcons::showInfoPopup(bool)::$_0>, void (FLAlertLayer*, bool)>::target_type() const
PUBLIC 74a14 0 _GLOBAL__sub_I_MoreIcons.cpp
PUBLIC 75b4c 0 geode::getMod()
PUBLIC m 75b88 0 geodeImplicitEntry
PUBLIC 75bc4 0 std::__ndk1::unordered_map<void*, bool, std::__ndk1::hash<void*>, std::__ndk1::equal_to<void*>, std::__ndk1::allocator<std::__ndk1::pair<void* const, bool> > >::~unordered_map[abi:ne190000]()
PUBLIC 75c10 0 wrapFunction(unsigned long, tulip::hook::WrapperMetadata const&)
PUBLIC 75d44 0 geode::impl::ResultData<void*, std::__ndk1::basic_string<char, std::__ndk1::char_traits<char>, std::__ndk1::allocator<char> > >::unwrapErr() &
PUBLIC 75dbc 0 geode::impl::ResultData<void*, std::__ndk1::basic_string<char, std::__ndk1::char_traits<char>, std::__ndk1::allocator<char> > >::~ResultData()
PUBLIC 75e30 0 tulip::hook::WrapperMetadata::~WrapperMetadata()
PUBLIC 75e94 0 cocos2d::CCObject::CCObject()
PUBLIC 760b8 0 cocos2d::CCObject::~CCObject()
PUBLIC 760dc 0 cocos2d::CCNode::~CCNode()
PUBLIC 76100 0 cocos2d::CCLayer::CCLayer()
PUBLIC 76384 0 {virtual override thunk({offset(-320)}, cocos2d::CCLayer::~CCLayer())}
PUBLIC 7638c 0 cocos2d::CCLayer::~CCLayer()
PUBLIC 763b0 0 {virtual override thunk({offset(-320)}, cocos2d::CCLayer::~CCLayer())}
PUBLIC 763d8 0 cocos2d::CCLayerRGBA::~CCLayerRGBA()
PUBLIC 766d8 0 {virtual override thunk({offset(-320)}, cocos2d::CCLayerRGBA::~CCLayerRGBA())}
PUBLIC 766e0 0 cocos2d::CCLayerRGBA::~CCLayerRGBA()
PUBLIC 76704 0 {virtual override thunk({offset(-320)}, cocos2d::CCLayerRGBA::~CCLayerRGBA())}
PUBLIC 7672c 0 cocos2d::CCLayerColor::CCLayerColor()
PUBLIC 76990 0 {virtual override thunk({offset(-320)}, cocos2d::CCLayerColor::~CCLayerColor())}
PUBLIC 76998 0 cocos2d::CCLayerColor::~CCLayerColor()
PUBLIC 769bc 0 {virtual override thunk({offset(-320)}, cocos2d::CCLayerColor::~CCLayerColor())}
PUBLIC 769e4 0 cocos2d::CCTexture2D::~CCTexture2D()
PUBLIC 76c54 0 cocos2d::CCTexture2D::~CCTexture2D()
PUBLIC 76c78 0 cocos2d::CCTexture2D::CCTexture2D()
PUBLIC 76ea4 0 cocos2d::CCImage::CCImage()
PUBLIC 770c8 0 cocos2d::CCImage::~CCImage()
PUBLIC 77330 0 cocos2d::CCImage::~CCImage()
PUBLIC 77354 0 cocos2d::CCSpriteBatchNode::CCSpriteBatchNode()
PUBLIC 775c0 0 cocos2d::CCSpriteBatchNode::~CCSpriteBatchNode()
PUBLIC 77878 0 cocos2d::CCSpriteBatchNode::~CCSpriteBatchNode()
PUBLIC 7789c 0 cocos2d::CCDictionary::setObject(cocos2d::CCObject*, gd::string const&)
PUBLIC 779fc 0 tulip::hook::AbstractFunction::from<void, cocos2d::CCDictionary*, cocos2d::CCObject*, gd::string const&>(void (*)(cocos2d::CCDictionary*, cocos2d::CCObject*, gd::string const&))
PUBLIC 77afc 0 cocos2d::CCDictionary::CCDictionary()
PUBLIC 77d20 0 cocos2d::CCDictionary::~CCDictionary()
PUBLIC 77f88 0 cocos2d::CCDictionary::~CCDictionary()
PUBLIC 77fac 0 cocos2d::CCDictionary::objectForKey(gd::string const&)
PUBLIC 780fc 0 tulip::hook::AbstractFunction::from<cocos2d::CCObject*, cocos2d::CCDictionary*, gd::string const&>(cocos2d::CCObject* (*)(cocos2d::CCDictionary*, gd::string const&))
PUBLIC 781a0 0 cocos2d::CCDictionary::valueForKey(gd::string const&)
PUBLIC 782f0 0 tulip::hook::AbstractFunction::from<cocos2d::CCString const*, cocos2d::CCDictionary*, gd::string const&>(cocos2d::CCString const* (*)(cocos2d::CCDictionary*, gd::string const&))
PUBLIC 78394 0 FLAlertLayer::FLAlertLayer()
PUBLIC 78430 0 {virtual override thunk({offset(-320)}, FLAlertLayer::~FLAlertLayer())}
PUBLIC 78438 0 FLAlertLayer::~FLAlertLayer()
PUBLIC 7845c 0 {virtual override thunk({offset(-320)}, FLAlertLayer::~FLAlertLayer())}
PUBLIC 78484 0 CCAnimatedSprite::runAnimation(gd::string)
PUBLIC 785fc 0 tulip::hook::AbstractFunction::from<void, CCAnimatedSprite*, gd::string>(void (*)(CCAnimatedSprite*, gd::string))
PUBLIC 7869c 0 CCMenuItemSpriteExtra::create(cocos2d::CCNode*, cocos2d::CCObject*, void (cocos2d::CCObject::*)(cocos2d::CCObject*))
PUBLIC 786b0 0 CCMenuItemSpriteExtra::updateSprite()
PUBLIC 78774 0 CCMenuItemToggler::isToggled()
PUBLIC 7877c 0 SetIDPopup::create(int, int, int, gd::string, gd::string, bool, int, float, bool, bool)
PUBLIC 7897c 0 tulip::hook::AbstractFunction::from<SetIDPopup*, int, int, int, gd::string, gd::string, bool, int, float, bool, bool>(SetIDPopup* (*)(int, int, int, gd::string, gd::string, bool, int, float, bool, bool))
PUBLIC 79048 0 GameManager::get()
PUBLIC 7904c 0 GameManager::keyForIcon(int, int)
PUBLIC 790cc 0 TextArea::create(gd::string, char const*, float, float, cocos2d::CCPoint, float, bool)
PUBLIC 79294 0 tulip::hook::AbstractFunction::from<TextArea*, gd::string, char const*, float, float, cocos2d::CCPoint, float, bool>(TextArea* (*)(gd::string, char const*, float, float, cocos2d::CCPoint, float, bool))
PUBLIC 79728 0 TextArea::setString(gd::string)
PUBLIC 798a0 0 tulip::hook::AbstractFunction::from<void, TextArea*, gd::string>(void (*)(TextArea*, gd::string))
PUBLIC 79940 0 cocos2d::CCLayerColor::~CCLayerColor()
PUBLIC 79c24 0 cocos2d::CCLayer::~CCLayer()
PUBLIC 79f14 0 cocos2d::CCNode::~CCNode()
PUBLIC 7a1b4 0 FLAlertLayer::~FLAlertLayer()
PUBLIC 7a498 0 cocos2d::CCObject::~CCObject()
PUBLIC 7a98c 0 _ZN5geode15UnwrapExceptionC2IRPvQsr4implE18IsStringStreamableIT_EEENS_4impl5OkTagEOS4_
PUBLIC 7aae0 0 std::__ndk1::__variant_detail::__visitation::__base::__dispatcher<(unsigned long)0>::__dispatch[abi:ne190000]<std::__ndk1::__variant_detail::__dtor<std::__ndk1::__variant_detail::__traits<void*, std::__ndk1::basic_string<char, std::__ndk1::char_traits<char>, std::__ndk1::allocator<char> > >, (std::__ndk1::__variant_detail::_Trait)1>::__destroy[abi:ne190000]()::{lambda(auto:1&)#1}, std::__ndk1::__variant_detail::__base<(std::__ndk1::__variant_detail::__traits<void*, std::__ndk1::basic_string<char, std::__ndk1::char_traits<char>, std::__ndk1::allocator<char> > >)1, std::__ndk1::__variant_detail::__traits, std::__ndk1::allocator<char> >&>(std::__ndk1::__variant_detail::__dtor<std::__ndk1::__variant_detail::__traits<void*, std::__ndk1::basic_string<char, std::__ndk1::char_traits<char>, std::__ndk1::allocator<char> > >, (std::__ndk1::__variant_detail::_Trait)1>, std::__ndk1::__variant_detail::__base<(std::__ndk1::__variant_detail::__traits<void*, std::__ndk1::basic_string<char, std::__ndk1::char_traits<char>, std::__ndk1::allocator<char> > >)1, std::__ndk1::__variant_detail::__traits, std::__ndk1::allocator<char> >&)
PUBLIC 7aae4 0 std::__ndk1::__variant_detail::__visitation::__base::__dispatcher<(unsigned long)1>::__dispatch[abi:ne190000]<std::__ndk1::__variant_detail::__dtor<std::__ndk1::__variant_detail::__traits<void*, std::__ndk1::basic_string<char, std::__ndk1::char_traits<char>, std::__ndk1::allocator<char> > >, (std::__ndk1::__variant_detail::_Trait)1>::__destroy[abi:ne190000]()::{lambda(auto:1&)#1}, std::__ndk1::__variant_detail::__base<(std::__ndk1::__variant_detail::__traits<void*, std::__ndk1::basic_string<char, std::__ndk1::char_traits<char>, std::__ndk1::allocator<char> > >)1, std::__ndk1::__variant_detail::__traits, std::__ndk1::allocator<char> >&>(std::__ndk1::__variant_detail::__dtor<std::__ndk1::__variant_detail::__traits<void*, std::__ndk1::basic_string<char, std::__ndk1::char_traits<char>, std::__ndk1::allocator<char> > >, (std::__ndk1::__variant_detail::_Trait)1>, std::__ndk1::__variant_detail::__base<(std::__ndk1::__variant_detail::__traits<void*, std::__ndk1::basic_string<char, std::__ndk1::char_traits<char>, std::__ndk1::allocator<char> > >)1, std::__ndk1::__variant_detail::__traits, std::__ndk1::allocator<char> >&)
PUBLIC 7aaf8 0 std::__ndk1::__hash_table<std::__ndk1::__hash_value_type<void*, bool>, std::__ndk1::__unordered_map_hasher<void*, std::__ndk1::__hash_value_type<void*, bool>, std::__ndk1::hash<void*>, std::__ndk1::equal_to<void*>, true>, std::__ndk1::__unordered_map_equal<void*, std::__ndk1::__hash_value_type<void*, bool>, std::__ndk1::equal_to<void*>, std::__ndk1::hash<void*>, true>, std::__ndk1::allocator<std::__ndk1::__hash_value_type<void*, bool> > >::__emplace_unique_key_args<void*, std::__ndk1::piecewise_construct_t const&, std::__ndk1::tuple<void* const&>, std::__ndk1::tuple<> >(void* const&, std::__ndk1::piecewise_construct_t const&, std::__ndk1::tuple<void* const&>, std::__ndk1::tuple<>)
PUBLIC 7b004 0 __udivti3
PUBLIC 7b010 0 __udivmodti4
PUBLIC m 7b25c 0 __eqtf2
PUBLIC 7b2fc 0 __unordtf2
PUBLIC 7b334 0 fmt::v11::detail::write_loc(fmt::v11::basic_appender<char>, fmt::v11::loc_value, fmt::v11::format_specs const&, fmt::v11::detail::locale_ref)
PUBLIC 7b5c8 0 fmt::v11::format_facet<std::__ndk1::locale>::~format_facet()
PUBLIC 7b644 0 fmt::v11::report_error(char const*)
PUBLIC 7b694 0 fmt::v11::format_error::runtime_error(char const*)
PUBLIC 7b6c0 0 fmt::v11::format_facet<std::__ndk1::locale>::do_put(fmt::v11::basic_appender<char>, fmt::v11::loc_value, fmt::v11::format_specs const&) const
PUBLIC 7be80 0 fmt::v11::detail::loc_writer<char>::~loc_writer()
PUBLIC 7bee4 0 fmt::v11::vformat(fmt::v11::basic_string_view<char>, fmt::v11::basic_format_args<fmt::v11::context>)
PUBLIC 7c030 0 fmt::v11::detail::vformat_to<char>(fmt::v11::detail::buffer<char>&, fmt::v11::basic_string_view<char>, fmt::v11::detail::vformat_args<char>::type, fmt::v11::detail::locale_ref)
PUBLIC 7c5a0 0 fmt::v11::detail::is_printable(unsigned int)
PUBLIC 7c7c8 0 fmt::v11::detail::dragonbox::to_decimal<float>(float)
PUBLIC 7caa4 0 fmt::v11::detail::dragonbox::to_decimal<double>(double)
PUBLIC m 7cfe0 0 fmt::v11::detail::locale_ref::locale_ref<std::__ndk1::locale>()
PUBLIC 7cfe8 0 fmt::v11::format_facet<std::__ndk1::locale>::~format_facet()
PUBLIC 7d074 0 fmt::v11::format_error::~format_error()
PUBLIC 7d098 0 fmt::v11::detail::copy_noinline<char, char const*, fmt::v11::basic_appender<char> >(char const*, char const*, fmt::v11::basic_appender<char>)
PUBLIC 7d1e8 0 fmt::v11::detail::default_arg_formatter<char>::operator()<bool>(bool)
PUBLIC 7d250 0 fmt::v11::detail::default_arg_formatter<char>::operator()<char>(char)
PUBLIC 7d2e0 0 fmt::v11::detail::default_arg_formatter<char>::operator()<float>(float)
PUBLIC 7d3cc 0 fmt::v11::detail::default_arg_formatter<char>::operator()<double>(double)
PUBLIC 7d4b8 0 fmt::v11::detail::default_arg_formatter<char>::operator()<char const*>(char const*)
PUBLIC 7d500 0 fmt::v11::detail::default_arg_formatter<char>::operator()<void const*>(void const*)
PUBLIC 7d598 0 _ZN3fmt3v116detail5writeIcNS0_14basic_appenderIcEEiTnNSt6__ndk19enable_ifIXaaaasr11is_integralIT1_EE5valuentsr3std7is_sameIS7_bEE5valuentsr3std7is_sameIS7_T_EE5valueEiE4typeELi0EEET0_SB_S7_
PUBLIC 7d7f8 0 fmt::v11::detail::copy_noinline<char, char*, fmt::v11::basic_appender<char> >(char*, char*, fmt::v11::basic_appender<char>)
PUBLIC 7d948 0 _ZN3fmt3v116detail5writeIcNS0_14basic_appenderIcEEjTnNSt6__ndk19enable_ifIXaaaasr11is_integralIT1_EE5valuentsr3std7is_sameIS7_bEE5valuentsr3std7is_sameIS7_T_EE5valueEiE4typeELi0EEET0_SB_S7_
PUBLIC 7db28 0 _ZN3fmt3v116detail5writeIcNS0_14basic_appenderIcEExTnNSt6__ndk19enable_ifIXaaaasr11is_integralIT1_EE5valuentsr3std7is_sameIS7_bEE5valuentsr3std7is_sameIS7_T_EE5valueEiE4typeELi0EEET0_SB_S7_
PUBLIC 7ddac 0 _ZN3fmt3v116detail5writeIcNS0_14basic_appenderIcEEyTnNSt6__ndk19enable_ifIXaaaasr11is_integralIT1_EE5valuentsr3std7is_sameIS7_bEE5valuentsr3std7is_sameIS7_T_EE5valueEiE4typeELi0EEET0_SB_S7_
PUBLIC 7dfb4 0 _ZN3fmt3v116detail5writeIcNS0_14basic_appenderIcEEnTnNSt6__ndk19enable_ifIXaaaasr11is_integralIT1_EE5valuentsr3std7is_sameIS7_bEE5valuentsr3std7is_sameIS7_T_EE5valueEiE4typeELi0EEET0_SB_S7_
PUBLIC 7e314 0 _ZN3fmt3v116detail5writeIcNS0_14basic_appenderIcEEoTnNSt6__ndk19enable_ifIXaaaasr11is_integralIT1_EE5valuentsr3std7is_sameIS7_bEE5valuentsr3std7is_sameIS7_T_EE5valueEiE4typeELi0EEET0_SB_S7_
PUBLIC 7e628 0 _ZN3fmt3v116detail5writeIcNS0_14basic_appenderIcEEbTnNSt6__ndk19enable_ifIXsr3std7is_sameIT1_bEE5valueEiE4typeELi0EEET0_SA_S7_RKNS0_12format_specsENS1_10locale_refE
PUBLIC 7e8dc 0 fmt::v11::detail::write_int_noinline<char, fmt::v11::basic_appender<char>, unsigned int>(fmt::v11::basic_appender<char>, fmt::v11::detail::write_int_arg<unsigned int>, fmt::v11::format_specs const&, fmt::v11::detail::locale_ref)
PUBLIC 7f6a8 0 fmt::v11::detail::write_padded<char, (fmt::v11::align::type)1, fmt::v11::basic_appender<char>, fmt::v11::detail::write_char<char, fmt::v11::basic_appender<char> >(fmt::v11::basic_appender<char>, char, fmt::v11::format_specs const&)::{lambda(fmt::v11::basic_appender<char>&)#1}>(fmt::v11::basic_appender<char>, fmt::v11::format_specs const&, unsigned long, unsigned long, fmt::v11::detail::write_char<char, fmt::v11::basic_appender<char> >(fmt::v11::basic_appender<char>, char, fmt::v11::format_specs const&)::{lambda(fmt::v11::basic_appender<char>&)#1})
PUBLIC 7f90c 0 fmt::v11::detail::write_padded<char, (fmt::v11::align::type)1, fmt::v11::basic_appender<char>, fmt::v11::detail::write_nonfinite<char, fmt::v11::basic_appender<char> >(fmt::v11::basic_appender<char>, bool, fmt::v11::format_specs, fmt::v11::sign::type)::{lambda(fmt::v11::basic_appender<char>&)#1}>(fmt::v11::basic_appender<char>, fmt::v11::format_specs const&, unsigned long, unsigned long, fmt::v11::detail::write_nonfinite<char, fmt::v11::basic_appender<char> >(fmt::v11::basic_appender<char>, bool, fmt::v11::format_specs, fmt::v11::sign::type)::{lambda(fmt::v11::basic_appender<char>&)#1})
PUBLIC 7fb64 0 fmt::v11::detail::do_write_float<char, fmt::v11::basic_appender<char>, fmt::v11::detail::dragonbox::decimal_fp<float>, fmt::v11::detail::digit_grouping<char> >(fmt::v11::basic_appender<char>, fmt::v11::detail::dragonbox::decimal_fp<float> const&, fmt::v11::format_specs const&, fmt::v11::detail::float_specs, fmt::v11::detail::locale_ref)
PUBLIC 807e8 0 fmt::v11::detail::do_write_float<char, fmt::v11::basic_appender<char>, fmt::v11::detail::dragonbox::decimal_fp<float>, fmt::v11::detail::digit_grouping<char> >(fmt::v11::basic_appender<char>, fmt::v11::detail::dragonbox::decimal_fp<float> const&, fmt::v11::format_specs const&, fmt::v11::detail::float_specs, fmt::v11::detail::locale_ref)::{lambda(fmt::v11::basic_appender<char>(fmt::v11::basic_appender<char>))#1}::operator() const
PUBLIC 8093c 0 fmt::v11::detail::digit_grouping<char>::digit_grouping(fmt::v11::detail::locale_ref, bool)
PUBLIC 80ba4 0 fmt::v11::detail::digit_grouping<char>::~digit_grouping()
PUBLIC 80be8 0 fmt::v11::detail::write_exponent<char, fmt::v11::basic_appender<char> >(int, fmt::v11::basic_appender<char>)
PUBLIC 80db8 0 _ZN3fmt3v116detail17write_significandIcjTnNSt6__ndk19enable_ifIXsr3std11is_integralIT0_EE5valueEiE4typeELi0EEEPT_S9_S5_iiS8_
PUBLIC 80f34 0 fmt::v11::detail::digit_grouping<char>::apply<fmt::v11::basic_appender<char>, char>(fmt::v11::basic_appender<char>, fmt::v11::basic_string_view<char>) const
PUBLIC 812ec 0 fmt::v11::basic_memory_buffer<int, (unsigned long)500, std::__ndk1::allocator<int> >::grow(fmt::v11::detail::buffer<int>&, unsigned long)
PUBLIC 8138c 0 fmt::v11::detail::do_write_float<char, fmt::v11::basic_appender<char>, fmt::v11::detail::dragonbox::decimal_fp<double>, fmt::v11::detail::digit_grouping<char> >(fmt::v11::basic_appender<char>, fmt::v11::detail::dragonbox::decimal_fp<double> const&, fmt::v11::format_specs const&, fmt::v11::detail::float_specs, fmt::v11::detail::locale_ref)
PUBLIC 82048 0 fmt::v11::detail::do_write_float<char, fmt::v11::basic_appender<char>, fmt::v11::detail::dragonbox::decimal_fp<double>, fmt::v11::detail::digit_grouping<char> >(fmt::v11::basic_appender<char>, fmt::v11::detail::dragonbox::decimal_fp<double> const&, fmt::v11::format_specs const&, fmt::v11::detail::float_specs, fmt::v11::detail::locale_ref)::{lambda(fmt::v11::basic_appender<char>(fmt::v11::basic_appender<char>))#1}::operator() const
PUBLIC 821a0 0 _ZN3fmt3v116detail17write_significandIcmTnNSt6__ndk19enable_ifIXsr3std11is_integralIT0_EE5valueEiE4typeELi0EEEPT_S9_S5_iiS8_
PUBLIC 82330 0 fmt::v11::detail::write_float<char, fmt::v11::basic_appender<char>, long double>(fmt::v11::basic_appender<char>, long double, fmt::v11::format_specs, fmt::v11::detail::locale_ref)
PUBLIC 82e10 0 fmt::v11::detail::write_padded<char, (fmt::v11::align::type)2, fmt::v11::basic_appender<char>, fmt::v11::detail::write_bytes<char, (fmt::v11::align::type)2, fmt::v11::basic_appender<char> >(fmt::v11::basic_appender<char>, fmt::v11::basic_string_view<char>, fmt::v11::format_specs const&)::{lambda(fmt::v11::basic_appender<char>&)#1}>(fmt::v11::basic_appender<char>, fmt::v11::format_specs const&, unsigned long, unsigned long, fmt::v11::detail::write_bytes<char, (fmt::v11::align::type)2, fmt::v11::basic_appender<char> >(fmt::v11::basic_appender<char>, fmt::v11::basic_string_view<char>, fmt::v11::format_specs const&)::{lambda(fmt::v11::basic_appender<char>&)#1})
PUBLIC 83004 0 fmt::v11::detail::format_dragon(fmt::v11::detail::basic_fp<unsigned __int128>, unsigned int, int, fmt::v11::detail::buffer<char>&, int&)
PUBLIC 84428 0 fmt::v11::detail::bigint::operator<<=(int)
PUBLIC 8454c 0 fmt::v11::detail::bigint::assign_pow10(int)
PUBLIC 84ca8 0 fmt::v11::detail::bigint::divmod_assign(fmt::v11::detail::bigint const&)
PUBLIC 84fcc 0 fmt::v11::basic_memory_buffer<unsigned int, (unsigned long)32, std::__ndk1::allocator<unsigned int> >::grow(fmt::v11::detail::buffer<unsigned int>&, unsigned long)
PUBLIC 8506c 0 fmt::v11::detail::do_write_float<char, fmt::v11::basic_appender<char>, fmt::v11::detail::big_decimal_fp, fmt::v11::detail::digit_grouping<char> >(fmt::v11::basic_appender<char>, fmt::v11::detail::big_decimal_fp const&, fmt::v11::format_specs const&, fmt::v11::detail::float_specs, fmt::v11::detail::locale_ref)
PUBLIC 85f48 0 fmt::v11::detail::do_write_float<char, fmt::v11::basic_appender<char>, fmt::v11::detail::big_decimal_fp, fmt::v11::detail::digit_grouping<char> >(fmt::v11::basic_appender<char>, fmt::v11::detail::big_decimal_fp const&, fmt::v11::format_specs const&, fmt::v11::detail::float_specs, fmt::v11::detail::locale_ref)::{lambda(fmt::v11::basic_appender<char>(fmt::v11::basic_appender<char>))#1}::operator() const
PUBLIC 860a8 0 fmt::v11::detail::write_padded<char, (fmt::v11::align::type)2, fmt::v11::basic_appender<char>, fmt::v11::detail::write_ptr<char, fmt::v11::basic_appender<char>, unsigned long>(fmt::v11::basic_appender<char>, unsigned long, fmt::v11::format_specs const*)::{lambda(fmt::v11::basic_appender<char>&)#1}>(fmt::v11::basic_appender<char>, fmt::v11::format_specs const&, unsigned long, unsigned long, fmt::v11::detail::write_ptr<char, fmt::v11::basic_appender<char>, unsigned long>(fmt::v11::basic_appender<char>, unsigned long, fmt::v11::format_specs const*)::{lambda(fmt::v11::basic_appender<char>&)#1})
PUBLIC 862bc 0 fmt::v11::detail::parse_replacement_field<char, fmt::v11::detail::vformat_to<char>(fmt::v11::detail::buffer<char>&, fmt::v11::basic_string_view<char>, fmt::v11::detail::vformat_args<char>::type, fmt::v11::detail::locale_ref)::format_handler&>(char const*, char const*, fmt::v11::detail::vformat_to<char>(fmt::v11::detail::buffer<char>&, fmt::v11::basic_string_view<char>, fmt::v11::detail::vformat_args<char>::type, fmt::v11::detail::locale_ref)::format_handler&)
PUBLIC 87df0 0 fmt::v11::detail::write_int_noinline<char, fmt::v11::basic_appender<char>, unsigned long>(fmt::v11::basic_appender<char>, fmt::v11::detail::write_int_arg<unsigned long>, fmt::v11::format_specs const&, fmt::v11::detail::locale_ref)
PUBLIC 88c48 0 fmt::v11::detail::write_int_noinline<char, fmt::v11::basic_appender<char>, unsigned __int128>(fmt::v11::basic_appender<char>, fmt::v11::detail::write_int_arg<unsigned __int128>, fmt::v11::format_specs const&, fmt::v11::detail::locale_ref)
PUBLIC 89cd8 0 _ZN3fmt3v116detail15format_hexfloatIdTnNSt6__ndk19enable_ifIXntsr16is_double_doubleIT_EE5valueEiE4typeELi0EEEvS5_NS0_12format_specsERNS1_6bufferIcEE
PUBLIC 8a1f8 0 fmt::v11::detail::format_float<double>(double, int, fmt::v11::detail::float_specs, fmt::v11::detail::buffer<char>&)
PUBLIC 8ac44 0 fmt::v11::detail::write_int<fmt::v11::basic_appender<char>, unsigned long, char>(fmt::v11::basic_appender<char>, unsigned long, unsigned int, fmt::v11::format_specs const&, fmt::v11::detail::digit_grouping<char> const&)
PUBLIC 8b1c0 0 fmt::v11::detail::write_int<fmt::v11::basic_appender<char>, unsigned __int128, char>(fmt::v11::basic_appender<char>, unsigned __int128, unsigned int, fmt::v11::format_specs const&, fmt::v11::detail::digit_grouping<char> const&)
PUBLIC 8b840 0 <.plt ELF section in hiimjustin000.more_icons.android64.so>
STACK CFI INIT 357b0 10 .cfa: sp 0 +
STACK CFI INIT 357c0 8 .cfa: sp 0 +
STACK CFI INIT 357c8 8 .cfa: sp 0 +
STACK CFI INIT 357d0 14 .cfa: sp 0 +
STACK CFI INIT 357e4 1c .cfa: sp 0 +
STACK CFI INIT 35800 10 .cfa: sp 0 +
STACK CFI INIT 35810 134 .cfa: sp 0 +
STACK CFI INIT 35944 84 .cfa: sp 0 +
STACK CFI INIT 359c8 f4 .cfa: sp 0 +
STACK CFI INIT 35abc a8 .cfa: sp 0 +
STACK CFI INIT 35b64 7c .cfa: sp 0 +
STACK CFI INIT 35be0 14 .cfa: sp 0 +
STACK CFI INIT 35bf4 40 .cfa: sp 0 +
STACK CFI INIT 35c34 28 .cfa: sp 0 +
STACK CFI INIT 35c5c 190 .cfa: sp 0 +
STACK CFI INIT 35dec 2c8 .cfa: sp 0 +
STACK CFI INIT 360b4 8 .cfa: sp 0 +
STACK CFI INIT 360bc 8 .cfa: sp 0 +
STACK CFI INIT 360c4 44 .cfa: sp 0 +
STACK CFI INIT 36108 e8 .cfa: sp 0 +
STACK CFI INIT 361f0 e8 .cfa: sp 0 +
STACK CFI INIT 362d8 14 .cfa: sp 0 +
STACK CFI INIT 362ec 10 .cfa: sp 0 +
STACK CFI INIT 362fc 10 .cfa: sp 0 +
STACK CFI INIT 3630c f0 .cfa: sp 0 +
STACK CFI INIT 363fc 44 .cfa: sp 0 +
STACK CFI INIT 36440 c .cfa: sp 0 +
STACK CFI INIT 3644c c .cfa: sp 0 +
STACK CFI INIT 36458 2c .cfa: sp 0 +
STACK CFI INIT 36484 23c .cfa: sp 0 +
STACK CFI INIT 366c0 c .cfa: sp 0 +
STACK CFI INIT 366cc 120 .cfa: sp 0 +
STACK CFI INIT 367ec 494 .cfa: sp 0 +
STACK CFI INIT 36c80 b78 .cfa: sp 0 +
STACK CFI INIT 377f8 134 .cfa: sp 0 +
STACK CFI INIT 3792c 210 .cfa: sp 0 +
STACK CFI INIT 37b3c 38c .cfa: sp 0 +
STACK CFI INIT 37ec8 1c8 .cfa: sp 0 +
STACK CFI INIT 38090 9c4 .cfa: sp 0 +
STACK CFI INIT 38a54 2d4 .cfa: sp 0 +
STACK CFI INIT 38d28 130 .cfa: sp 0 +
STACK CFI INIT 38e58 120 .cfa: sp 0 +
STACK CFI INIT 38f78 1c8 .cfa: sp 0 +
STACK CFI INIT 39140 168 .cfa: sp 0 +
STACK CFI INIT 392a8 fc .cfa: sp 0 +
STACK CFI INIT 393a4 30 .cfa: sp 0 +
STACK CFI INIT 39500 5c .cfa: sp 0 +
STACK CFI 39504 .cfa: sp 16 +
STACK CFI 39508 .cfa: x29 16 + .ra: .cfa -8 + ^ x29: .cfa -16 + ^
STACK CFI 3954c .cfa: sp 16 +
STACK CFI 39550 .cfa: sp 0 +
STACK CFI 39554 .cfa: sp 16 +
STACK CFI 39558 .cfa: sp 0 +
STACK CFI INIT 3955c 7c .cfa: sp 0 +
STACK CFI 39560 .cfa: sp 48 +
STACK CFI 3956c .cfa: x29 48 + x19: .cfa -8 + ^ x20: .cfa -16 + ^ x21: .cfa -32 + ^ .ra: .cfa -40 + ^ x29: .cfa -48 + ^
STACK CFI 395b8 .cfa: sp 48 +
STACK CFI 395c4 .cfa: sp 0 +
STACK CFI 395c8 .cfa: sp 48 +
STACK CFI 395d4 .cfa: sp 0 +
STACK CFI INIT 395d8 5c .cfa: sp 0 +
STACK CFI 395dc .cfa: sp 16 +
STACK CFI 395e0 .cfa: x29 16 + .ra: .cfa -8 + ^ x29: .cfa -16 + ^
STACK CFI 39624 .cfa: sp 16 +
STACK CFI 39628 .cfa: sp 0 +
STACK CFI 3962c .cfa: sp 16 +
STACK CFI 39630 .cfa: sp 0 +
STACK CFI INIT 39634 5c .cfa: sp 0 +
STACK CFI 39638 .cfa: sp 16 +
STACK CFI 3963c .cfa: x29 16 + .ra: .cfa -8 + ^ x29: .cfa -16 + ^
STACK CFI 39680 .cfa: sp 16 +
STACK CFI 39684 .cfa: sp 0 +
STACK CFI 39688 .cfa: sp 16 +
STACK CFI 3968c .cfa: sp 0 +
STACK CFI INIT 39690 5c .cfa: sp 0 +
STACK CFI 39694 .cfa: sp 16 +
STACK CFI 39698 .cfa: x29 16 + .ra: .cfa -8 + ^ x29: .cfa -16 + ^
STACK CFI 396dc .cfa: sp 16 +
STACK CFI 396e0 .cfa: sp 0 +
STACK CFI 396e4 .cfa: sp 16 +
STACK CFI 396e8 .cfa: sp 0 +
STACK CFI INIT 396ec 5c .cfa: sp 0 +
STACK CFI 396f0 .cfa: sp 16 +
STACK CFI 396f4 .cfa: x29 16 + .ra: .cfa -8 + ^ x29: .cfa -16 + ^
STACK CFI 39738 .cfa: sp 16 +
STACK CFI 3973c .cfa: sp 0 +
STACK CFI 39740 .cfa: sp 16 +
STACK CFI 39744 .cfa: sp 0 +
STACK CFI INIT 39748 5c .cfa: sp 0 +
STACK CFI 3974c .cfa: sp 16 +
STACK CFI 39750 .cfa: x29 16 + .ra: .cfa -8 + ^ x29: .cfa -16 + ^
STACK CFI 39794 .cfa: sp 16 +
STACK CFI 39798 .cfa: sp 0 +
STACK CFI 3979c .cfa: sp 16 +
STACK CFI 397a0 .cfa: sp 0 +
STACK CFI INIT 397a4 5c .cfa: sp 0 +
STACK CFI 397a8 .cfa: sp 16 +
STACK CFI 397ac .cfa: x29 16 + .ra: .cfa -8 + ^ x29: .cfa -16 + ^
STACK CFI 397f0 .cfa: sp 16 +
STACK CFI 397f4 .cfa: sp 0 +
STACK CFI 397f8 .cfa: sp 16 +
STACK CFI 397fc .cfa: sp 0 +
STACK CFI INIT 39800 5c .cfa: sp 0 +
STACK CFI 39804 .cfa: sp 16 +
STACK CFI 39808 .cfa: x29 16 + .ra: .cfa -8 + ^ x29: .cfa -16 + ^
STACK CFI 3984c .cfa: sp 16 +
STACK CFI 39850 .cfa: sp 0 +
STACK CFI 39854 .cfa: sp 16 +
STACK CFI 39858 .cfa: sp 0 +
STACK CFI INIT 3985c 5c .cfa: sp 0 +
STACK CFI 39860 .cfa: sp 16 +
STACK CFI 39864 .cfa: x29 16 + .ra: .cfa -8 + ^ x29: .cfa -16 + ^
STACK CFI 398a8 .cfa: sp 16 +
STACK CFI 398ac .cfa: sp 0 +
STACK CFI 398b0 .cfa: sp 16 +
STACK CFI 398b4 .cfa: sp 0 +
STACK CFI INIT 398b8 5c .cfa: sp 0 +
STACK CFI 398bc .cfa: sp 16 +
STACK CFI 398c0 .cfa: x29 16 + .ra: .cfa -8 + ^ x29: .cfa -16 + ^
STACK CFI 39904 .cfa: sp 16 +
STACK CFI 39908 .cfa: sp 0 +
STACK CFI 3990c .cfa: sp 16 +
STACK CFI 39910 .cfa: sp 0 +
STACK CFI INIT 39914 158 .cfa: sp 0 +
STACK CFI 399f4 .cfa: sp 32 +
STACK CFI 399fc .cfa: x29 32 + x19: .cfa -16 + ^ .ra: .cfa -24 + ^ x29: .cfa -32 + ^
STACK CFI 39a14 .cfa: sp 32 +
STACK CFI 39a1c .cfa: sp 0 +
STACK CFI 39a20 .cfa: x29 32 +
STACK CFI 39a60 .cfa: sp 32 +
STACK CFI 39a68 .cfa: sp 0 +
STACK CFI INIT 3a03c a8 .cfa: sp 0 +
STACK CFI 3a040 .cfa: sp 96 +
STACK CFI 3a054 .cfa: x29 64 + x19: .cfa -8 + ^ x20: .cfa -16 + ^ x21: .cfa -24 + ^ x22: .cfa -32 + ^ x23: .cfa -48 + ^ .ra: .cfa -56 + ^ x29: .cfa -64 + ^
STACK CFI 3a0c8 .cfa: sp 96 +
STACK CFI 3a0dc .cfa: sp 0 +
STACK CFI 3a0e0 .cfa: x29 64 +
STACK CFI INIT 3a244 fc .cfa: sp 0 +
STACK CFI 3a260 .cfa: sp 48 +
STACK CFI 3a26c .cfa: x29 48 + x19: .cfa -8 + ^ x20: .cfa -16 + ^ x21: .cfa -24 + ^ x22: .cfa -32 + ^ .ra: .cfa -40 + ^ x29: .cfa -48 + ^
STACK CFI 3a310 .cfa: sp 48 +
STACK CFI 3a31c .cfa: sp 0 +
STACK CFI 3a328 .cfa: x29 48 +
STACK CFI 3a330 .cfa: sp 48 +
STACK CFI 3a33c .cfa: sp 0 +
STACK CFI INIT 3aff0 28 .cfa: sp 0 +
STACK CFI INIT 3b018 80 .cfa: sp 0 +
STACK CFI INIT 3b098 a0 .cfa: sp 0 +
STACK CFI INIT 3b7a0 10 .cfa: sp 0 +
STACK CFI 3b7a4 .cfa: sp 16 +
STACK CFI 3b7a8 .cfa: x29 16 + .ra: .cfa -8 + ^ x29: .cfa -16 + ^
STACK CFI INIT 3b7b0 14 .cfa: sp 0 +
STACK CFI 3b7b4 .cfa: sp 16 +
STACK CFI 3b7b8 .cfa: x29 16 + .ra: .cfa -8 + ^ x29: .cfa -16 + ^
STACK CFI INIT 3b814 30 .cfa: sp 0 +
STACK CFI 3b818 .cfa: sp 32 +
STACK CFI 3b820 .cfa: x29 32 + x19: .cfa -16 + ^ .ra: .cfa -24 + ^ x29: .cfa -32 + ^
STACK CFI 3b838 .cfa: sp 32 +
STACK CFI 3b840 .cfa: sp 0 +
STACK CFI INIT 3b92c 34 .cfa: sp 0 +
STACK CFI 3b930 .cfa: sp 16 +
STACK CFI 3b934 .cfa: x29 16 + .ra: .cfa -8 + ^ x29: .cfa -16 + ^
STACK CFI INIT 3b960 4 .cfa: sp 0 +
STACK CFI INIT 3b964 14 .cfa: sp 0 +
STACK CFI INIT 3b978 94 .cfa: sp 0 +
STACK CFI 3b97c .cfa: sp 48 +
STACK CFI 3b988 .cfa: x29 48 + x19: .cfa -8 + ^ x20: .cfa -16 + ^ x21: .cfa -24 + ^ x22: .cfa -32 + ^ .ra: .cfa -40 + ^ x29: .cfa -48 + ^
STACK CFI 3b9a0 .cfa: sp 48 +
STACK CFI 3b9ac .cfa: sp 0 +
STACK CFI 3b9b0 .cfa: x29 48 +
STACK CFI 3b9f4 .cfa: sp 48 +
STACK CFI 3ba00 .cfa: sp 0 +
STACK CFI 3ba04 .cfa: x29 48 +
STACK CFI INIT 3ba0c 14 .cfa: sp 0 +
STACK CFI INIT 3ba20 14 .cfa: sp 0 +
STACK CFI INIT 3bd64 8 .cfa: sp 0 +
STACK CFI INIT 3bd6c 24 .cfa: sp 0 +
STACK CFI 3bd70 .cfa: sp 32 +
STACK CFI 3bd78 .cfa: x29 32 + x19: .cfa -16 + ^ .ra: .cfa -24 + ^ x29: .cfa -32 + ^
STACK CFI 3bd84 .cfa: sp 32 +
STACK CFI 3bd8c .cfa: sp 0 +
STACK CFI INIT 3bd90 4 .cfa: sp 0 +
STACK CFI INIT 3c03c 8 .cfa: sp 0 +
STACK CFI INIT 3c044 24 .cfa: sp 0 +
STACK CFI 3c048 .cfa: sp 32 +
STACK CFI 3c050 .cfa: x29 32 + x19: .cfa -16 + ^ .ra: .cfa -24 + ^ x29: .cfa -32 + ^
STACK CFI 3c05c .cfa: sp 32 +
STACK CFI 3c064 .cfa: sp 0 +
STACK CFI INIT 3c068 88 .cfa: sp 0 +
STACK CFI 3c06c .cfa: sp 48 +
STACK CFI 3c078 .cfa: x29 48 + x19: .cfa -8 + ^ x20: .cfa -16 + ^ x21: .cfa -24 + ^ x22: .cfa -32 + ^ .ra: .cfa -40 + ^ x29: .cfa -48 + ^
STACK CFI 3c0e0 .cfa: sp 48 +
STACK CFI 3c0ec .cfa: sp 0 +
STACK CFI INIT 3c0f0 4 .cfa: sp 0 +
STACK CFI INIT 3c0f4 4 .cfa: sp 0 +
STACK CFI INIT 3c0f8 4 .cfa: sp 0 +
STACK CFI INIT 3c0fc 4 .cfa: sp 0 +
STACK CFI INIT 3c100 4 .cfa: sp 0 +
STACK CFI INIT 3c104 4 .cfa: sp 0 +
STACK CFI INIT 3c108 104 .cfa: sp 0 +
STACK CFI 3c10c .cfa: sp 64 +
STACK CFI 3c11c .cfa: x29 64 + x19: .cfa -8 + ^ x20: .cfa -16 + ^ x21: .cfa -24 + ^ x22: .cfa -32 + ^ x23: .cfa -48 + ^ .ra: .cfa -56 + ^ x29: .cfa -64 + ^
STACK CFI 3c178 .cfa: sp 64 +
STACK CFI 3c188 .cfa: sp 0 +
STACK CFI 3c18c .cfa: x29 64 +
STACK CFI 3c1a8 .cfa: sp 64 +
STACK CFI 3c1b8 .cfa: sp 0 +
STACK CFI 3c1bc .cfa: x29 64 +
STACK CFI 3c1f8 .cfa: sp 64 +
STACK CFI 3c208 .cfa: sp 0 +
STACK CFI INIT 3c20c 6c .cfa: sp 0 +
STACK CFI 3c210 .cfa: sp 16 +
STACK CFI 3c214 .cfa: x29 16 + .ra: .cfa -8 + ^ x29: .cfa -16 + ^
STACK CFI 3c268 .cfa: sp 16 +
STACK CFI 3c26c .cfa: sp 0 +
STACK CFI 3c270 .cfa: sp 16 +
STACK CFI 3c274 .cfa: sp 0 +
STACK CFI INIT 3c278 4 .cfa: sp 0 +
STACK CFI INIT 3c27c 6c .cfa: sp 0 +
STACK CFI 3c280 .cfa: sp 16 +
STACK CFI 3c284 .cfa: x29 16 + .ra: .cfa -8 + ^ x29: .cfa -16 + ^
STACK CFI 3c2d8 .cfa: sp 16 +
STACK CFI 3c2dc .cfa: sp 0 +
STACK CFI 3c2e0 .cfa: sp 16 +
STACK CFI 3c2e4 .cfa: sp 0 +
STACK CFI INIT 3c2e8 6c .cfa: sp 0 +
STACK CFI 3c2ec .cfa: sp 16 +
STACK CFI 3c2f0 .cfa: x29 16 + .ra: .cfa -8 + ^ x29: .cfa -16 + ^
STACK CFI 3c344 .cfa: sp 16 +
STACK CFI 3c348 .cfa: sp 0 +
STACK CFI 3c34c .cfa: sp 16 +
STACK CFI 3c350 .cfa: sp 0 +
STACK CFI INIT 3c354 6c .cfa: sp 0 +
STACK CFI 3c358 .cfa: sp 16 +
STACK CFI 3c35c .cfa: x29 16 + .ra: .cfa -8 + ^ x29: .cfa -16 + ^
STACK CFI 3c3b0 .cfa: sp 16 +
STACK CFI 3c3b4 .cfa: sp 0 +
STACK CFI 3c3b8 .cfa: sp 16 +
STACK CFI 3c3bc .cfa: sp 0 +
STACK CFI INIT 3c3c0 6c .cfa: sp 0 +
STACK CFI 3c3c4 .cfa: sp 16 +
STACK CFI 3c3c8 .cfa: x29 16 + .ra: .cfa -8 + ^ x29: .cfa -16 + ^
STACK CFI 3c41c .cfa: sp 16 +
STACK CFI 3c420 .cfa: sp 0 +
STACK CFI 3c424 .cfa: sp 16 +
STACK CFI 3c428 .cfa: sp 0 +
STACK CFI INIT 3c42c 6c .cfa: sp 0 +
STACK CFI 3c430 .cfa: sp 16 +
STACK CFI 3c434 .cfa: x29 16 + .ra: .cfa -8 + ^ x29: .cfa -16 + ^
STACK CFI 3c488 .cfa: sp 16 +
STACK CFI 3c48c .cfa: sp 0 +
STACK CFI 3c490 .cfa: sp 16 +
STACK CFI 3c494 .cfa: sp 0 +
STACK CFI INIT 3c498 6c .cfa: sp 0 +
STACK CFI 3c49c .cfa: sp 16 +
STACK CFI 3c4a0 .cfa: x29 16 + .ra: .cfa -8 + ^ x29: .cfa -16 + ^
STACK CFI 3c4f4 .cfa: sp 16 +
STACK CFI 3c4f8 .cfa: sp 0 +
STACK CFI 3c4fc .cfa: sp 16 +
STACK CFI 3c500 .cfa: sp 0 +
STACK CFI INIT 3c504 6c .cfa: sp 0 +
STACK CFI 3c508 .cfa: sp 16 +
STACK CFI 3c50c .cfa: x29 16 + .ra: .cfa -8 + ^ x29: .cfa -16 + ^
STACK CFI 3c560 .cfa: sp 16 +
STACK CFI 3c564 .cfa: sp 0 +
STACK CFI 3c568 .cfa: sp 16 +
STACK CFI 3c56c .cfa: sp 0 +
STACK CFI INIT 3c570 6c .cfa: sp 0 +
STACK CFI 3c574 .cfa: sp 16 +
STACK CFI 3c578 .cfa: x29 16 + .ra: .cfa -8 + ^ x29: .cfa -16 + ^
STACK CFI 3c5cc .cfa: sp 16 +
STACK CFI 3c5d0 .cfa: sp 0 +
STACK CFI 3c5d4 .cfa: sp 16 +
STACK CFI 3c5d8 .cfa: sp 0 +
STACK CFI INIT 3c5dc 6c .cfa: sp 0 +
STACK CFI 3c5e0 .cfa: sp 16 +
STACK CFI 3c5e4 .cfa: x29 16 + .ra: .cfa -8 + ^ x29: .cfa -16 + ^
STACK CFI 3c638 .cfa: sp 16 +
STACK CFI 3c63c .cfa: sp 0 +
STACK CFI 3c640 .cfa: sp 16 +
STACK CFI 3c644 .cfa: sp 0 +
STACK CFI INIT 3c648 3c .cfa: sp 0 +
STACK CFI 3c64c .cfa: sp 32 +
STACK CFI 3c654 .cfa: x29 32 + x19: .cfa -16 + ^ .ra: .cfa -24 + ^ x29: .cfa -32 + ^
STACK CFI 3c66c .cfa: sp 32 +
STACK CFI 3c674 .cfa: sp 0 +
STACK CFI 3c678 .cfa: sp 32 +
STACK CFI 3c680 .cfa: sp 0 +
STACK CFI INIT 3c684 5c .cfa: sp 0 +
STACK CFI 3c688 .cfa: sp 16 +
STACK CFI 3c68c .cfa: x29 16 + .ra: .cfa -8 + ^ x29: .cfa -16 + ^
STACK CFI 3c6d0 .cfa: sp 16 +
STACK CFI 3c6d4 .cfa: sp 0 +
STACK CFI 3c6d8 .cfa: sp 16 +
STACK CFI 3c6dc .cfa: sp 0 +
STACK CFI INIT 3c6e0 68 .cfa: sp 0 +
STACK CFI 3c6e4 .cfa: sp 48 +
STACK CFI 3c6f0 .cfa: x29 48 + x19: .cfa -8 + ^ x20: .cfa -16 + ^ x21: .cfa -32 + ^ .ra: .cfa -40 + ^ x29: .cfa -48 + ^
STACK CFI 3c728 .cfa: sp 48 +
STACK CFI 3c734 .cfa: sp 0 +
STACK CFI 3c738 .cfa: sp 48 +
STACK CFI 3c744 .cfa: sp 0 +
STACK CFI INIT 3c748 5c .cfa: sp 0 +
STACK CFI 3c74c .cfa: sp 16 +
STACK CFI 3c750 .cfa: x29 16 + .ra: .cfa -8 + ^ x29: .cfa -16 + ^
STACK CFI 3c794 .cfa: sp 16 +
STACK CFI 3c798 .cfa: sp 0 +
STACK CFI 3c79c .cfa: sp 16 +
STACK CFI 3c7a0 .cfa: sp 0 +
STACK CFI INIT 3c7a4 5c .cfa: sp 0 +
STACK CFI 3c7a8 .cfa: sp 16 +
STACK CFI 3c7ac .cfa: x29 16 + .ra: .cfa -8 + ^ x29: .cfa -16 + ^
STACK CFI 3c7f0 .cfa: sp 16 +
STACK CFI 3c7f4 .cfa: sp 0 +
STACK CFI 3c7f8 .cfa: sp 16 +
STACK CFI 3c7fc .cfa: sp 0 +
STACK CFI INIT 3c800 7c .cfa: sp 0 +
STACK CFI 3c804 .cfa: sp 48 +
STACK CFI 3c810 .cfa: x29 48 + x19: .cfa -8 + ^ x20: .cfa -16 + ^ x21: .cfa -32 + ^ .ra: .cfa -40 + ^ x29: .cfa -48 + ^
STACK CFI 3c85c .cfa: sp 48 +
STACK CFI 3c868 .cfa: sp 0 +
STACK CFI 3c86c .cfa: sp 48 +
STACK CFI 3c878 .cfa: sp 0 +
STACK CFI INIT 3c87c 5c .cfa: sp 0 +
STACK CFI 3c880 .cfa: sp 16 +
STACK CFI 3c884 .cfa: x29 16 + .ra: .cfa -8 + ^ x29: .cfa -16 + ^
STACK CFI 3c8c8 .cfa: sp 16 +
STACK CFI 3c8cc .cfa: sp 0 +
STACK CFI 3c8d0 .cfa: sp 16 +
STACK CFI 3c8d4 .cfa: sp 0 +
STACK CFI INIT 3ce80 bc .cfa: sp 0 +
STACK CFI 3ce84 .cfa: sp 64 +
STACK CFI 3ce90 .cfa: x29 32 + x19: .cfa -8 + ^ x20: .cfa -16 + ^ .ra: .cfa -24 + ^ x29: .cfa -32 + ^
STACK CFI 3cf28 .cfa: sp 64 +
STACK CFI 3cf34 .cfa: sp 0 +
STACK CFI 3cf38 .cfa: x29 32 +
STACK CFI INIT 3cf3c 24 .cfa: sp 0 +
STACK CFI 3cf40 .cfa: sp 32 +
STACK CFI 3cf48 .cfa: x29 32 + x19: .cfa -16 + ^ .ra: .cfa -24 + ^ x29: .cfa -32 + ^
STACK CFI 3cf54 .cfa: sp 32 +
STACK CFI 3cf5c .cfa: sp 0 +
STACK CFI INIT 3cf60 8 .cfa: sp 0 +
STACK CFI INIT 3cf68 28 .cfa: sp 0 +
STACK CFI 3cf6c .cfa: sp 32 +
STACK CFI 3cf74 .cfa: x29 32 + x19: .cfa -16 + ^ .ra: .cfa -24 + ^ x29: .cfa -32 + ^
STACK CFI 3cf84 .cfa: sp 32 +
STACK CFI 3cf8c .cfa: sp 0 +
STACK CFI INIT 3cf90 4 .cfa: sp 0 +
STACK CFI INIT 3cf94 4 .cfa: sp 0 +
STACK CFI INIT 3cf98 4 .cfa: sp 0 +
STACK CFI INIT 3cf9c 4 .cfa: sp 0 +
STACK CFI INIT 3cfa0 94 .cfa: sp 0 +
STACK CFI 3cfa4 .cfa: sp 32 +
STACK CFI 3cfac .cfa: x29 32 + x19: .cfa -16 + ^ .ra: .cfa -24 + ^ x29: .cfa -32 + ^
STACK CFI 3cfd8 .cfa: sp 32 +
STACK CFI 3cfe0 .cfa: sp 0 +
STACK CFI 3cfe4 .cfa: x29 32 +
STACK CFI 3d028 .cfa: sp 32 +
STACK CFI 3d030 .cfa: sp 0 +
STACK CFI INIT 3d034 a4 .cfa: sp 0 +
STACK CFI 3d038 .cfa: sp 48 +
STACK CFI 3d044 .cfa: x29 48 + x19: .cfa -8 + ^ x20: .cfa -16 + ^ x21: .cfa -32 + ^ .ra: .cfa -40 + ^ x29: .cfa -48 + ^
STACK CFI 3d05c .cfa: sp 48 +
STACK CFI 3d068 .cfa: sp 0 +
STACK CFI 3d06c .cfa: x29 48 +
STACK CFI 3d0c8 .cfa: sp 48 +
STACK CFI 3d0d4 .cfa: sp 0 +
STACK CFI INIT 3d0d8 98 .cfa: sp 0 +
STACK CFI 3d0e0 .cfa: sp 32 +
STACK CFI 3d0e8 .cfa: x29 32 + x19: .cfa -8 + ^ x20: .cfa -16 + ^ .ra: .cfa -24 + ^ x29: .cfa -32 + ^
STACK CFI 3d164 .cfa: sp 32 +
STACK CFI 3d16c .cfa: sp 0 +
STACK CFI INIT 3d170 30 .cfa: sp 0 +
STACK CFI INIT 3d1a0 98 .cfa: sp 0 +
STACK CFI INIT 3d238 2ac .cfa: sp 0 +
STACK CFI INIT 3d4e4 8c .cfa: sp 0 +
STACK CFI INIT 3e570 e4 .cfa: sp 0 +
STACK CFI 3e574 .cfa: sp 32 +
STACK CFI 3e57c .cfa: x29 32 + x19: .cfa -16 + ^ .ra: .cfa -24 + ^ x29: .cfa -32 + ^
STACK CFI 3e59c .cfa: sp 32 +
STACK CFI 3e5a4 .cfa: sp 0 +
STACK CFI 3e5a8 .cfa: x29 32 +
STACK CFI 3e5ec .cfa: sp 32 +
STACK CFI 3e5f4 .cfa: sp 0 +
STACK CFI 3e5f8 .cfa: x29 32 +
STACK CFI 3e624 .cfa: sp 32 +
STACK CFI 3e62c .cfa: sp 0 +
STACK CFI 3e630 .cfa: sp 32 +
STACK CFI 3e638 .cfa: sp 0 +
STACK CFI 3e63c .cfa: x29 32 +
STACK CFI 3e648 .cfa: sp 32 +
STACK CFI 3e650 .cfa: sp 0 +
STACK CFI INIT 3e654 28 .cfa: sp 0 +
STACK CFI INIT 3e67c 8 .cfa: sp 0 +
STACK CFI INIT 3e684 48 .cfa: sp 0 +
STACK CFI INIT 3e6cc 4c .cfa: sp 0 +
STACK CFI INIT 3e7f8 2c .cfa: sp 0 +
STACK CFI 3e7fc .cfa: sp 32 +
STACK CFI 3e804 .cfa: x29 32 + x19: .cfa -16 + ^ .ra: .cfa -24 + ^ x29: .cfa -32 + ^
STACK CFI 3e818 .cfa: sp 32 +
STACK CFI 3e820 .cfa: sp 0 +
STACK CFI INIT 3e824 4 .cfa: sp 0 +
STACK CFI INIT 3e828 8 .cfa: sp 0 +
STACK CFI INIT 3ea44 4 .cfa: sp 0 +
STACK CFI INIT 3ea48 8 .cfa: sp 0 +
STACK CFI INIT 3ea50 4 .cfa: sp 0 +
STACK CFI INIT 3eac0 4 .cfa: sp 0 +
STACK CFI INIT 3eac4 2c .cfa: sp 0 +
STACK CFI INIT 3eaf0 70 .cfa: sp 0 +
STACK CFI 3eaf4 .cfa: sp 48 +
STACK CFI 3eb00 .cfa: x29 32 + x19: .cfa -16 + ^ .ra: .cfa -24 + ^ x29: .cfa -32 + ^
STACK CFI 3eb38 .cfa: sp 48 +
STACK CFI 3eb44 .cfa: sp 0 +
STACK CFI 3eb48 .cfa: x29 32 +
STACK CFI INIT 3eb60 5c .cfa: sp 0 +
STACK CFI 3eb64 .cfa: sp 32 +
STACK CFI 3eb6c .cfa: x29 32 + x19: .cfa -16 + ^ .ra: .cfa -24 + ^ x29: .cfa -32 + ^
STACK CFI 3ebb0 .cfa: sp 32 +
STACK CFI 3ebb8 .cfa: sp 0 +
STACK CFI INIT 3ebbc 64 .cfa: sp 0 +
STACK CFI 3ebc0 .cfa: sp 32 +
STACK CFI 3ebc8 .cfa: x29 32 + x19: .cfa -16 + ^ .ra: .cfa -24 + ^ x29: .cfa -32 + ^
STACK CFI 3ec14 .cfa: sp 32 +
STACK CFI 3ec1c .cfa: sp 0 +
STACK CFI INIT 3ec20 34 .cfa: sp 0 +
STACK CFI 3ec24 .cfa: sp 16 +
STACK CFI 3ec28 .cfa: x29 16 + .ra: .cfa -8 + ^ x29: .cfa -16 + ^
STACK CFI INIT 3ec54 24 .cfa: sp 0 +
STACK CFI 3ec58 .cfa: sp 32 +
STACK CFI 3ec60 .cfa: x29 32 + x19: .cfa -16 + ^ .ra: .cfa -24 + ^ x29: .cfa -32 + ^
STACK CFI 3ec6c .cfa: sp 32 +
STACK CFI 3ec74 .cfa: sp 0 +
STACK CFI INIT 3ec78 304 .cfa: sp 0 +
STACK CFI 3ec7c .cfa: sp 128 +
STACK CFI 3ec94 .cfa: x29 64 + x19: .cfa -8 + ^ x20: .cfa -16 + ^ x21: .cfa -24 + ^ x22: .cfa -32 + ^ x23: .cfa -48 + ^ .ra: .cfa -56 + ^ x29: .cfa -64 + ^ v8: .cfa -72 + ^ v9: .cfa -80 + ^
STACK CFI 3eec4 .cfa: sp 128 +
STACK CFI 3eedc .cfa: sp 0 +
STACK CFI 3eee0 .cfa: x29 64 +
STACK CFI INIT 3ef7c 4 .cfa: sp 0 +
STACK CFI INIT 3ef80 34 .cfa: sp 0 +
STACK CFI 3ef84 .cfa: sp 32 +
STACK CFI 3ef8c .cfa: x29 32 + x19: .cfa -16 + ^ .ra: .cfa -24 + ^ x29: .cfa -32 + ^
STACK CFI 3efa8 .cfa: sp 32 +
STACK CFI 3efb0 .cfa: sp 0 +
STACK CFI INIT 3efb4 14 .cfa: sp 0 +
STACK CFI INIT 3efc8 4 .cfa: sp 0 +
STACK CFI INIT 3efcc 4 .cfa: sp 0 +
STACK CFI INIT 3efd0 10 .cfa: sp 0 +
STACK CFI INIT 3efe0 1c .cfa: sp 0 +
STACK CFI INIT 3effc c .cfa: sp 0 +
STACK CFI INIT 3f008 4 .cfa: sp 0 +
STACK CFI INIT 3f00c 34 .cfa: sp 0 +
STACK CFI 3f010 .cfa: sp 32 +
STACK CFI 3f018 .cfa: x29 32 + x19: .cfa -16 + ^ .ra: .cfa -24 + ^ x29: .cfa -32 + ^
STACK CFI 3f034 .cfa: sp 32 +
STACK CFI 3f03c .cfa: sp 0 +
STACK CFI INIT 3f040 14 .cfa: sp 0 +
STACK CFI INIT 3f054 4 .cfa: sp 0 +
STACK CFI INIT 3f058 4 .cfa: sp 0 +
STACK CFI INIT 3f05c 10 .cfa: sp 0 +
STACK CFI INIT 3f06c 1c .cfa: sp 0 +
STACK CFI INIT 3f088 c .cfa: sp 0 +
STACK CFI INIT 3f094 4 .cfa: sp 0 +
STACK CFI INIT 3f098 34 .cfa: sp 0 +
STACK CFI 3f09c .cfa: sp 32 +
STACK CFI 3f0a4 .cfa: x29 32 + x19: .cfa -16 + ^ .ra: .cfa -24 + ^ x29: .cfa -32 + ^
STACK CFI 3f0c0 .cfa: sp 32 +
STACK CFI 3f0c8 .cfa: sp 0 +
STACK CFI INIT 3f0cc 14 .cfa: sp 0 +
STACK CFI INIT 3f0e0 4 .cfa: sp 0 +
STACK CFI INIT 3f0e4 4 .cfa: sp 0 +
STACK CFI INIT 3f224 1c .cfa: sp 0 +
STACK CFI INIT 3f240 c .cfa: sp 0 +
STACK CFI INIT 3f24c 4 .cfa: sp 0 +
STACK CFI INIT 3f250 34 .cfa: sp 0 +
STACK CFI 3f254 .cfa: sp 32 +
STACK CFI 3f25c .cfa: x29 32 + x19: .cfa -16 + ^ .ra: .cfa -24 + ^ x29: .cfa -32 + ^
STACK CFI 3f278 .cfa: sp 32 +
STACK CFI 3f280 .cfa: sp 0 +
STACK CFI INIT 3f284 14 .cfa: sp 0 +
STACK CFI INIT 3f298 4 .cfa: sp 0 +
STACK CFI INIT 3f29c 4 .cfa: sp 0 +
STACK CFI INIT 3f2a0 8 .cfa: sp 0 +
STACK CFI INIT 3f2a8 1c .cfa: sp 0 +
STACK CFI INIT 3f2c4 c .cfa: sp 0 +
STACK CFI INIT 3f2d0 4 .cfa: sp 0 +
STACK CFI INIT 3f2d4 4 .cfa: sp 0 +
STACK CFI INIT 3f2d8 34 .cfa: sp 0 +
STACK CFI 3f2dc .cfa: sp 32 +
STACK CFI 3f2e4 .cfa: x29 32 + x19: .cfa -16 + ^ .ra: .cfa -24 + ^ x29: .cfa -32 + ^
STACK CFI 3f300 .cfa: sp 32 +
STACK CFI 3f308 .cfa: sp 0 +
STACK CFI INIT 3f30c 14 .cfa: sp 0 +
STACK CFI INIT 3f320 4 .cfa: sp 0 +
STACK CFI INIT 3f324 4 .cfa: sp 0 +
STACK CFI INIT 3f3d0 1c .cfa: sp 0 +
STACK CFI INIT 3f3ec c .cfa: sp 0 +
STACK CFI INIT 3f3f8 60 .cfa: sp 0 +
STACK CFI 3f3fc .cfa: sp 32 +
STACK CFI 3f404 .cfa: x29 32 + x19: .cfa -8 + ^ x20: .cfa -16 + ^ .ra: .cfa -24 + ^ x29: .cfa -32 + ^
STACK CFI 3f424 .cfa: sp 32 +
STACK CFI 3f42c .cfa: sp 0 +
STACK CFI 3f430 .cfa: x29 32 +
STACK CFI 3f44c .cfa: sp 32 +
STACK CFI 3f454 .cfa: sp 0 +
STACK CFI INIT 3f458 70 .cfa: sp 0 +
STACK CFI 3f45c .cfa: sp 32 +
STACK CFI 3f464 .cfa: x29 32 + x19: .cfa -8 + ^ x20: .cfa -16 + ^ .ra: .cfa -24 + ^ x29: .cfa -32 + ^
STACK CFI 3f48c .cfa: sp 32 +
STACK CFI 3f494 .cfa: sp 0 +
STACK CFI 3f498 .cfa: x29 32 +
STACK CFI 3f4bc .cfa: sp 32 +
STACK CFI 3f4c4 .cfa: sp 0 +
STACK CFI INIT 3f4c8 10 .cfa: sp 0 +
STACK CFI INIT 3f4d8 30 .cfa: sp 0 +
STACK CFI 3f4dc .cfa: sp 32 +
STACK CFI 3f4e4 .cfa: x29 32 + x19: .cfa -16 + ^ .ra: .cfa -24 + ^ x29: .cfa -32 + ^
STACK CFI 3f4fc .cfa: sp 32 +
STACK CFI 3f504 .cfa: sp 0 +
STACK CFI INIT 3f508 4 .cfa: sp 0 +
STACK CFI INIT 3f50c 4 .cfa: sp 0 +
STACK CFI INIT 3f510 30 .cfa: sp 0 +
STACK CFI INIT 3f9b0 1c .cfa: sp 0 +
STACK CFI INIT 3fd84 50 .cfa: sp 0 +
STACK CFI 3fd88 .cfa: sp 32 +
STACK CFI 3fd90 .cfa: x29 32 + x19: .cfa -16 + ^ .ra: .cfa -24 + ^ x29: .cfa -32 + ^
STACK CFI 3fda8 .cfa: sp 32 +
STACK CFI 3fdb0 .cfa: sp 0 +
STACK CFI 3fdb4 .cfa: x29 32 +
STACK CFI 3fdc8 .cfa: sp 32 +
STACK CFI 3fdd0 .cfa: sp 0 +
STACK CFI INIT 3fe48 4 .cfa: sp 0 +
STACK CFI INIT 400d4 80 .cfa: sp 0 +
STACK CFI 400d8 .cfa: sp 48 +
STACK CFI 400e4 .cfa: x29 48 + x19: .cfa -8 + ^ x20: .cfa -16 + ^ x21: .cfa -32 + ^ .ra: .cfa -40 + ^ x29: .cfa -48 + ^
STACK CFI 40144 .cfa: sp 48 +
STACK CFI 40150 .cfa: sp 0 +
STACK CFI INIT 40154 24 .cfa: sp 0 +
STACK CFI 40158 .cfa: sp 32 +
STACK CFI 40160 .cfa: x29 32 + x19: .cfa -16 + ^ .ra: .cfa -24 + ^ x29: .cfa -32 + ^
STACK CFI 4016c .cfa: sp 32 +
STACK CFI 40174 .cfa: sp 0 +
STACK CFI INIT 40508 34 .cfa: sp 0 +
STACK CFI 4050c .cfa: sp 32 +
STACK CFI 40514 .cfa: x29 32 + x19: .cfa -16 + ^ .ra: .cfa -24 + ^ x29: .cfa -32 + ^
STACK CFI INIT 406ac 148 .cfa: sp 0 +
STACK CFI 406b0 .cfa: sp 48 +
STACK CFI 406bc .cfa: x29 48 + x19: .cfa -8 + ^ x20: .cfa -16 + ^ x21: .cfa -32 + ^ .ra: .cfa -40 + ^ x29: .cfa -48 + ^
STACK CFI 407e4 .cfa: sp 48 +
STACK CFI 407f0 .cfa: sp 0 +
STACK CFI INIT 407f4 88 .cfa: sp 0 +
STACK CFI 407fc .cfa: sp 48 +
STACK CFI 40808 .cfa: x29 48 + x19: .cfa -8 + ^ x20: .cfa -16 + ^ x21: .cfa -24 + ^ x22: .cfa -32 + ^ .ra: .cfa -40 + ^ x29: .cfa -48 + ^
STACK CFI 4086c .cfa: sp 48 +
STACK CFI 40878 .cfa: sp 0 +
STACK CFI INIT 40a2c 68 .cfa: sp 0 +
STACK CFI 40a30 .cfa: sp 32 +
STACK CFI 40a38 .cfa: x29 32 + x19: .cfa -8 + ^ x20: .cfa -16 + ^ .ra: .cfa -24 + ^ x29: .cfa -32 + ^
STACK CFI 40a50 .cfa: sp 32 +
STACK CFI 40a58 .cfa: sp 0 +
STACK CFI 40a5c .cfa: x29 32 +
STACK CFI 40a88 .cfa: sp 32 +
STACK CFI 40a90 .cfa: sp 0 +
STACK CFI INIT 40a94 14 .cfa: sp 0 +
STACK CFI 40a98 .cfa: sp 16 +
STACK CFI 40a9c .cfa: x29 16 + .ra: .cfa -8 + ^ x29: .cfa -16 + ^
STACK CFI INIT 40aa8 4 .cfa: sp 0 +
STACK CFI INIT 40aac 14 .cfa: sp 0 +
STACK CFI INIT 40ac0 128 .cfa: sp 0 +
STACK CFI 40ac4 .cfa: sp 64 +
STACK CFI 40ad4 .cfa: x29 64 + x19: .cfa -8 + ^ x20: .cfa -16 + ^ x21: .cfa -24 + ^ x22: .cfa -32 + ^ x23: .cfa -40 + ^ x24: .cfa -48 + ^ .ra: .cfa -56 + ^ x29: .cfa -64 + ^
STACK CFI 40bd4 .cfa: sp 64 +
STACK CFI 40be4 .cfa: sp 0 +
STACK CFI INIT 40be8 d4 .cfa: sp 0 +
STACK CFI 40bec .cfa: sp 48 +
STACK CFI 40bf8 .cfa: x29 48 + x19: .cfa -8 + ^ x20: .cfa -16 + ^ x21: .cfa -32 + ^ .ra: .cfa -40 + ^ x29: .cfa -48 + ^
STACK CFI 40c88 .cfa: sp 48 +
STACK CFI 40c94 .cfa: sp 0 +
STACK CFI 40c98 .cfa: x29 48 +
STACK CFI INIT 40cbc 3c8 .cfa: sp 0 +
STACK CFI INIT 41084 8c .cfa: sp 0 +
STACK CFI 4108c .cfa: sp 32 +
STACK CFI 41094 .cfa: x29 32 + x19: .cfa -8 + ^ x20: .cfa -16 + ^ .ra: .cfa -24 + ^ x29: .cfa -32 + ^
STACK CFI 410dc .cfa: sp 32 +
STACK CFI 410e4 .cfa: sp 0 +
STACK CFI 410ec .cfa: x29 32 +
STACK CFI INIT 4149c 70 .cfa: sp 0 +
STACK CFI 414a0 .cfa: sp 48 +
STACK CFI 414ac .cfa: x29 48 + x19: .cfa -8 + ^ x20: .cfa -16 + ^ x21: .cfa -32 + ^ .ra: .cfa -40 + ^ x29: .cfa -48 + ^
STACK CFI 414ec .cfa: sp 48 +
STACK CFI 414f8 .cfa: sp 0 +
STACK CFI 414fc .cfa: sp 48 +
STACK CFI 41508 .cfa: sp 0 +
STACK CFI INIT 4150c 2b8 .cfa: sp 0 +
STACK CFI INIT 417c4 4c .cfa: sp 0 +
STACK CFI 417cc .cfa: sp 32 +
STACK CFI 417d4 .cfa: x29 32 + x19: .cfa -16 + ^ .ra: .cfa -24 + ^ x29: .cfa -32 + ^
STACK CFI 41800 .cfa: sp 32 +
STACK CFI 41808 .cfa: sp 0 +
STACK CFI INIT 41810 50 .cfa: sp 0 +
STACK CFI 41814 .cfa: sp 32 +
STACK CFI 4181c .cfa: x29 32 + x19: .cfa -16 + ^ .ra: .cfa -24 + ^ x29: .cfa -32 + ^
STACK CFI 41834 .cfa: sp 32 +
STACK CFI 4183c .cfa: sp 0 +
STACK CFI 41840 .cfa: x29 32 +
STACK CFI 41854 .cfa: sp 32 +
STACK CFI 4185c .cfa: sp 0 +
STACK CFI INIT 41860 64 .cfa: sp 0 +
STACK CFI 41864 .cfa: sp 32 +
STACK CFI 4186c .cfa: x29 32 + x19: .cfa -16 + ^ .ra: .cfa -24 + ^ x29: .cfa -32 + ^
STACK CFI 41898 .cfa: sp 32 +
STACK CFI 418a0 .cfa: sp 0 +
STACK CFI 418a4 .cfa: x29 32 +
STACK CFI 418b8 .cfa: sp 32 +
STACK CFI 418c0 .cfa: sp 0 +
STACK CFI INIT 418c4 14 .cfa: sp 0 +
STACK CFI 418c8 .cfa: sp 16 +
STACK CFI 418cc .cfa: x29 16 + .ra: .cfa -8 + ^ x29: .cfa -16 + ^
STACK CFI INIT 418d8 178 .cfa: sp 0 +
STACK CFI 418dc .cfa: sp 80 +
STACK CFI 418f0 .cfa: x29 80 + x19: .cfa -8 + ^ x20: .cfa -16 + ^ x21: .cfa -24 + ^ x22: .cfa -32 + ^ x23: .cfa -40 + ^ x24: .cfa -48 + ^ x25: .cfa -56 + ^ x26: .cfa -64 + ^ .ra: .cfa -72 + ^ x29: .cfa -80 + ^
STACK CFI 41a38 .cfa: sp 80 +
STACK CFI 41a4c .cfa: sp 0 +
STACK CFI INIT 41a50 1a8 .cfa: sp 0 +
STACK CFI INIT 420e0 1c .cfa: sp 0 +
STACK CFI INIT 426e4 4 .cfa: sp 0 +
STACK CFI INIT 42ecc 7c .cfa: sp 0 +
STACK CFI 42ed0 .cfa: sp 32 +
STACK CFI 42ed8 .cfa: x29 32 + x19: .cfa -8 + ^ x20: .cfa -16 + ^ .ra: .cfa -24 + ^ x29: .cfa -32 + ^
STACK CFI 42f30 .cfa: sp 32 +
STACK CFI 42f38 .cfa: sp 0 +
STACK CFI 42f3c .cfa: sp 32 +
STACK CFI 42f44 .cfa: sp 0 +
STACK CFI INIT 430b0 4 .cfa: sp 0 +
STACK CFI INIT 430b4 4 .cfa: sp 0 +
STACK CFI INIT 430b8 38 .cfa: sp 0 +
STACK CFI 430bc .cfa: sp 32 +
STACK CFI 430c4 .cfa: x29 32 + x19: .cfa -16 + ^ .ra: .cfa -24 + ^ x29: .cfa -32 + ^
STACK CFI 430e4 .cfa: sp 32 +
STACK CFI 430ec .cfa: sp 0 +
STACK CFI INIT 430f0 18 .cfa: sp 0 +
STACK CFI INIT 43108 4 .cfa: sp 0 +
STACK CFI INIT 4310c 4 .cfa: sp 0 +
STACK CFI INIT 43110 8 .cfa: sp 0 +
STACK CFI INIT 43118 1c .cfa: sp 0 +
STACK CFI INIT 43134 c .cfa: sp 0 +
STACK CFI INIT 43140 4 .cfa: sp 0 +
STACK CFI INIT 432b8 5c .cfa: sp 0 +
STACK CFI 432bc .cfa: sp 32 +
STACK CFI 432c4 .cfa: x29 32 + x19: .cfa -16 + ^ .ra: .cfa -24 + ^ x29: .cfa -32 + ^
STACK CFI 43308 .cfa: sp 32 +
STACK CFI 43310 .cfa: sp 0 +
STACK CFI INIT 43314 64 .cfa: sp 0 +
STACK CFI 43318 .cfa: sp 32 +
STACK CFI 43320 .cfa: x29 32 + x19: .cfa -16 + ^ .ra: .cfa -24 + ^ x29: .cfa -32 + ^
STACK CFI 4336c .cfa: sp 32 +
STACK CFI 43374 .cfa: sp 0 +
STACK CFI INIT 43378 4 .cfa: sp 0 +
STACK CFI INIT 4337c 14 .cfa: sp 0 +
STACK CFI INIT 43610 84 .cfa: sp 0 +
STACK CFI 43614 .cfa: sp 32 +
STACK CFI 4361c .cfa: x29 32 + x19: .cfa -16 + ^ .ra: .cfa -24 + ^ x29: .cfa -32 + ^
STACK CFI 43688 .cfa: sp 32 +
STACK CFI 43690 .cfa: sp 0 +
STACK CFI INIT 43b04 1c .cfa: sp 0 +
STACK CFI INIT 44444 4 .cfa: sp 0 +
STACK CFI INIT 44920 3e0 .cfa: sp 0 +
STACK CFI 44924 .cfa: sp 32 +
STACK CFI 4492c .cfa: x29 32 + x19: .cfa -8 + ^ x20: .cfa -16 + ^ .ra: .cfa -24 + ^ x29: .cfa -32 + ^
STACK CFI 44cf4 .cfa: sp 32 +
STACK CFI 44cfc .cfa: sp 0 +
STACK CFI INIT 44e70 1a0 .cfa: sp 0 +
STACK CFI 44e74 .cfa: sp 64 +
STACK CFI 44e84 .cfa: x29 64 + x19: .cfa -8 + ^ x20: .cfa -16 + ^ x21: .cfa -24 + ^ x22: .cfa -32 + ^ x23: .cfa -40 + ^ x24: .cfa -48 + ^ .ra: .cfa -56 + ^ x29: .cfa -64 + ^
STACK CFI 44fe4 .cfa: sp 64 +
STACK CFI 44ff4 .cfa: sp 0 +
STACK CFI 44ff8 .cfa: x29 64 +
STACK CFI INIT 45010 b8 .cfa: sp 0 +
STACK CFI 4501c .cfa: sp 48 +
STACK CFI 45028 .cfa: x29 48 + x19: .cfa -8 + ^ x20: .cfa -16 + ^ x21: .cfa -32 + ^ .ra: .cfa -40 + ^ x29: .cfa -48 + ^
STACK CFI 4505c .cfa: sp 48 +
STACK CFI 45068 .cfa: sp 0 +
STACK CFI 4506c .cfa: x29 48 +
STACK CFI INIT 45538 1c .cfa: sp 0 +
STACK CFI INIT 458d4 4 .cfa: sp 0 +
STACK CFI INIT 45c74 4 .cfa: sp 0 +
STACK CFI INIT 45c78 4 .cfa: sp 0 +
STACK CFI INIT 45c7c 24 .cfa: sp 0 +
STACK CFI 45c80 .cfa: sp 16 +
STACK CFI 45c84 .cfa: x29 16 + .ra: .cfa -8 + ^ x29: .cfa -16 + ^
STACK CFI 45c98 .cfa: sp 16 +
STACK CFI 45c9c .cfa: sp 0 +
STACK CFI INIT 45ca0 10 .cfa: sp 0 +
STACK CFI INIT 45cb0 4 .cfa: sp 0 +
STACK CFI INIT 45cb4 4 .cfa: sp 0 +
STACK CFI INIT 45cb8 28 .cfa: sp 0 +
STACK CFI 45cbc .cfa: sp 16 +
STACK CFI 45cc0 .cfa: x29 16 + .ra: .cfa -8 + ^ x29: .cfa -16 + ^
STACK CFI 45cd8 .cfa: sp 16 +
STACK CFI 45cdc .cfa: sp 0 +
STACK CFI INIT 45ce0 1c .cfa: sp 0 +
STACK CFI INIT 45cfc c .cfa: sp 0 +
STACK CFI INIT 46740 1c .cfa: sp 0 +
STACK CFI INIT 4675c 64 .cfa: sp 0 +
STACK CFI 46760 .cfa: sp 32 +
STACK CFI 46768 .cfa: x29 32 + x19: .cfa -16 + ^ .ra: .cfa -24 + ^ x29: .cfa -32 + ^
STACK CFI 46784 .cfa: sp 32 +
STACK CFI 4678c .cfa: sp 0 +
STACK CFI 46790 .cfa: x29 32 +
STACK CFI 467b4 .cfa: sp 32 +
STACK CFI 467bc .cfa: sp 0 +
STACK CFI INIT 478d4 4 .cfa: sp 0 +
STACK CFI INIT 47bac 14 .cfa: sp 0 +
STACK CFI 47bb0 .cfa: sp 16 +
STACK CFI 47bb4 .cfa: x29 16 + .ra: .cfa -8 + ^ x29: .cfa -16 + ^
STACK CFI INIT 47c10 30 .cfa: sp 0 +
STACK CFI 47c14 .cfa: sp 32 +
STACK CFI 47c1c .cfa: x29 32 + x19: .cfa -16 + ^ .ra: .cfa -24 + ^ x29: .cfa -32 + ^
STACK CFI 47c34 .cfa: sp 32 +
STACK CFI 47c3c .cfa: sp 0 +
STACK CFI INIT 47c40 4 .cfa: sp 0 +
STACK CFI INIT 47c44 38 .cfa: sp 0 +
STACK CFI 47c48 .cfa: sp 32 +
STACK CFI 47c50 .cfa: x29 32 + x19: .cfa -16 + ^ .ra: .cfa -24 + ^ x29: .cfa -32 + ^
STACK CFI 47c70 .cfa: sp 32 +
STACK CFI 47c78 .cfa: sp 0 +
STACK CFI INIT 47c7c 18 .cfa: sp 0 +
STACK CFI INIT 47c94 4 .cfa: sp 0 +
STACK CFI INIT 47c98 4 .cfa: sp 0 +
STACK CFI INIT 47c9c 8 .cfa: sp 0 +
STACK CFI INIT 47ca4 1c .cfa: sp 0 +
STACK CFI INIT 47cc0 c .cfa: sp 0 +
STACK CFI INIT 47ddc 4 .cfa: sp 0 +
STACK CFI INIT 47de0 38 .cfa: sp 0 +
STACK CFI 47de4 .cfa: sp 32 +
STACK CFI 47dec .cfa: x29 32 + x19: .cfa -16 + ^ .ra: .cfa -24 + ^ x29: .cfa -32 + ^
STACK CFI 47e0c .cfa: sp 32 +
STACK CFI 47e14 .cfa: sp 0 +
STACK CFI INIT 47e18 18 .cfa: sp 0 +
STACK CFI INIT 47e30 4 .cfa: sp 0 +
STACK CFI INIT 47e34 4 .cfa: sp 0 +
STACK CFI INIT 47e38 8 .cfa: sp 0 +
STACK CFI INIT 47e40 1c .cfa: sp 0 +
STACK CFI INIT 47e5c c .cfa: sp 0 +
STACK CFI INIT 485b8 9a4 .cfa: sp 0 +
STACK CFI 485bc .cfa: sp 144 +
STACK CFI 485d8 .cfa: x29 96 + x19: .cfa -8 + ^ x20: .cfa -16 + ^ x21: .cfa -24 + ^ x22: .cfa -32 + ^ x23: .cfa -40 + ^ x24: .cfa -48 + ^ x25: .cfa -56 + ^ x26: .cfa -64 + ^ x27: .cfa -72 + ^ x28: .cfa -80 + ^ .ra: .cfa -88 + ^ x29: .cfa -96 + ^
STACK CFI 48d10 .cfa: sp 144 +
STACK CFI 48d2c .cfa: sp 0 +
STACK CFI 48d30 .cfa: x29 96 +
STACK CFI 48f38 .cfa: sp 144 +
STACK CFI 48f54 .cfa: sp 0 +
STACK CFI 48f58 .cfa: x29 96 +
STACK CFI INIT 48f5c f8 .cfa: sp 0 +
STACK CFI 48f60 .cfa: sp 80 +
STACK CFI 48f74 .cfa: x29 80 + x19: .cfa -8 + ^ x20: .cfa -16 + ^ x21: .cfa -24 + ^ x22: .cfa -32 + ^ x23: .cfa -40 + ^ x24: .cfa -48 + ^ x25: .cfa -64 + ^ .ra: .cfa -72 + ^ x29: .cfa -80 + ^
STACK CFI 4903c .cfa: sp 80 +
STACK CFI 49050 .cfa: sp 0 +
STACK CFI INIT 4ae50 1d8 .cfa: sp 0 +
STACK CFI 4ae54 .cfa: sp 80 +
STACK CFI 4ae68 .cfa: x29 80 + x19: .cfa -8 + ^ x20: .cfa -16 + ^ x21: .cfa -24 + ^ x22: .cfa -32 + ^ x23: .cfa -40 + ^ x24: .cfa -48 + ^ x25: .cfa -64 + ^ .ra: .cfa -72 + ^ x29: .cfa -80 + ^
STACK CFI 4af6c .cfa: sp 80 +
STACK CFI 4af80 .cfa: sp 0 +
STACK CFI 4af84 .cfa: x29 80 +
STACK CFI 4afb0 .cfa: sp 80 +
STACK CFI 4afc4 .cfa: sp 0 +
STACK CFI 4afc8 .cfa: x29 80 +
STACK CFI INIT 4b028 44 .cfa: sp 0 +
STACK CFI 4b02c .cfa: sp 32 +
STACK CFI 4b034 .cfa: x29 32 + x19: .cfa -16 + ^ .ra: .cfa -24 + ^ x29: .cfa -32 + ^
STACK CFI 4b060 .cfa: sp 32 +
STACK CFI 4b068 .cfa: sp 0 +
STACK CFI INIT 4b06c 68 .cfa: sp 0 +
STACK CFI 4b070 .cfa: sp 32 +
STACK CFI 4b078 .cfa: x29 32 + x19: .cfa -16 + ^ .ra: .cfa -24 + ^ x29: .cfa -32 + ^
STACK CFI 4b0bc .cfa: sp 32 +
STACK CFI 4b0c4 .cfa: sp 0 +
STACK CFI 4b0c8 .cfa: sp 32 +
STACK CFI 4b0d0 .cfa: sp 0 +
STACK CFI INIT 4b17c b4 .cfa: sp 0 +
STACK CFI 4b180 .cfa: sp 32 +
STACK CFI 4b188 .cfa: x29 32 + x19: .cfa -16 + ^ .ra: .cfa -24 + ^ x29: .cfa -32 + ^
STACK CFI 4b224 .cfa: sp 32 +
STACK CFI 4b22c .cfa: sp 0 +
STACK CFI INIT 4b230 1a0 .cfa: sp 0 +
STACK CFI 4b234 .cfa: sp 64 +
STACK CFI 4b244 .cfa: x29 64 + x19: .cfa -8 + ^ x20: .cfa -16 + ^ x21: .cfa -24 + ^ x22: .cfa -32 + ^ x23: .cfa -40 + ^ x24: .cfa -48 + ^ .ra: .cfa -56 + ^ x29: .cfa -64 + ^
STACK CFI 4b3a4 .cfa: sp 64 +
STACK CFI 4b3b4 .cfa: sp 0 +
STACK CFI 4b3b8 .cfa: x29 64 +
STACK CFI INIT 4b3d0 3c .cfa: sp 0 +
STACK CFI 4b3d8 .cfa: sp 32 +
STACK CFI 4b3e0 .cfa: x29 32 + x19: .cfa -16 + ^ .ra: .cfa -24 + ^ x29: .cfa -32 + ^
STACK CFI 4b3fc .cfa: sp 32 +
STACK CFI 4b404 .cfa: sp 0 +
STACK CFI INIT 4c8d0 1f8 .cfa: sp 0 +
STACK CFI 4c8d4 .cfa: sp 128 +
STACK CFI 4c8f0 .cfa: x29 96 + x19: .cfa -8 + ^ x20: .cfa -16 + ^ x21: .cfa -24 + ^ x22: .cfa -32 + ^ x23: .cfa -40 + ^ x24: .cfa -48 + ^ x25: .cfa -56 + ^ x26: .cfa -64 + ^ x27: .cfa -72 + ^ x28: .cfa -80 + ^ .ra: .cfa -88 + ^ x29: .cfa -96 + ^
STACK CFI 4ca44 .cfa: sp 128 +
STACK CFI 4ca60 .cfa: sp 0 +
STACK CFI 4ca64 .cfa: x29 96 +
STACK CFI INIT 4d84c 38 .cfa: sp 0 +
STACK CFI 4d864 .cfa: sp 16 +
STACK CFI 4d868 .cfa: x29 16 + .ra: .cfa -8 + ^ x29: .cfa -16 + ^
STACK CFI 4d874 .cfa: sp 16 +
STACK CFI 4d878 .cfa: sp 0 +
STACK CFI INIT 4dbc8 8 .cfa: sp 0 +
STACK CFI INIT 4dbd0 14 .cfa: sp 0 +
STACK CFI 4dbd4 .cfa: sp 16 +
STACK CFI 4dbd8 .cfa: x29 16 + .ra: .cfa -8 + ^ x29: .cfa -16 + ^
STACK CFI INIT 4de04 14 .cfa: sp 0 +
STACK CFI 4de08 .cfa: sp 16 +
STACK CFI 4de0c .cfa: x29 16 + .ra: .cfa -8 + ^ x29: .cfa -16 + ^
STACK CFI INIT 4de18 14 .cfa: sp 0 +
STACK CFI 4de1c .cfa: sp 16 +
STACK CFI 4de20 .cfa: x29 16 + .ra: .cfa -8 + ^ x29: .cfa -16 + ^
STACK CFI INIT 4de2c 14 .cfa: sp 0 +
STACK CFI 4de30 .cfa: sp 16 +
STACK CFI 4de34 .cfa: x29 16 + .ra: .cfa -8 + ^ x29: .cfa -16 + ^
STACK CFI INIT 4de40 4 .cfa: sp 0 +
STACK CFI INIT 4de44 4 .cfa: sp 0 +
STACK CFI INIT 4de48 38 .cfa: sp 0 +
STACK CFI 4de4c .cfa: sp 32 +
STACK CFI 4de54 .cfa: x29 32 + x19: .cfa -16 + ^ .ra: .cfa -24 + ^ x29: .cfa -32 + ^
STACK CFI 4de74 .cfa: sp 32 +
STACK CFI 4de7c .cfa: sp 0 +
STACK CFI INIT 4de80 18 .cfa: sp 0 +
STACK CFI INIT 4de98 4 .cfa: sp 0 +
STACK CFI INIT 4de9c 4 .cfa: sp 0 +
STACK CFI INIT 4dea0 10 .cfa: sp 0 +
STACK CFI INIT 4deb0 1c .cfa: sp 0 +
STACK CFI INIT 4decc c .cfa: sp 0 +
STACK CFI INIT 4dfe0 4 .cfa: sp 0 +
STACK CFI INIT 4dfe4 14 .cfa: sp 0 +
STACK CFI INIT 4dff8 4 .cfa: sp 0 +
STACK CFI INIT 4dffc 14 .cfa: sp 0 +
STACK CFI INIT 4e7e0 44c .cfa: sp 0 +
STACK CFI INIT 4ec2c 1ac .cfa: sp 0 +
STACK CFI 4ec30 .cfa: sp 32 +
STACK CFI 4ec38 .cfa: x29 32 + x19: .cfa -8 + ^ x20: .cfa -16 + ^ .ra: .cfa -24 + ^ x29: .cfa -32 + ^
STACK CFI 4ed28 .cfa: sp 32 +
STACK CFI 4ed30 .cfa: sp 0 +
STACK CFI 4ed34 .cfa: x29 32 +
STACK CFI INIT 4edd8 a0 .cfa: sp 0 +
STACK CFI 4eddc .cfa: sp 32 +
STACK CFI 4ede4 .cfa: x29 32 + x19: .cfa -16 + ^ .ra: .cfa -24 + ^ x29: .cfa -32 + ^
STACK CFI 4ee14 .cfa: sp 32 +
STACK CFI 4ee1c .cfa: sp 0 +
STACK CFI 4ee20 .cfa: x29 32 +
STACK CFI 4ee24 .cfa: sp 32 +
STACK CFI 4ee2c .cfa: sp 0 +
STACK CFI 4ee30 .cfa: x29 32 +
STACK CFI 4ee6c .cfa: sp 32 +
STACK CFI 4ee74 .cfa: sp 0 +
STACK CFI INIT 4ee78 8c .cfa: sp 0 +
STACK CFI 4ee7c .cfa: sp 48 +
STACK CFI 4ee88 .cfa: x29 48 + x19: .cfa -8 + ^ x20: .cfa -16 + ^ x21: .cfa -24 + ^ x22: .cfa -32 + ^ .ra: .cfa -40 + ^ x29: .cfa -48 + ^
STACK CFI 4ee90 .cfa: sp 48 +
STACK CFI 4ee9c .cfa: sp 0 +
STACK CFI 4eea0 .cfa: x29 48 +
STACK CFI 4eef4 .cfa: sp 48 +
STACK CFI 4ef00 .cfa: sp 0 +
STACK CFI INIT 4ef04 60 .cfa: sp 0 +
STACK CFI 4ef14 .cfa: sp 32 +
STACK CFI 4ef1c .cfa: x29 32 + x19: .cfa -8 + ^ x20: .cfa -16 + ^ .ra: .cfa -24 + ^ x29: .cfa -32 + ^
STACK CFI 4ef58 .cfa: sp 32 +
STACK CFI 4ef60 .cfa: sp 0 +
STACK CFI INIT 4ef64 34 .cfa: sp 0 +
STACK CFI 4ef68 .cfa: sp 32 +
STACK CFI 4ef70 .cfa: x29 32 + x19: .cfa -16 + ^ .ra: .cfa -24 + ^ x29: .cfa -32 + ^
STACK CFI 4ef8c .cfa: sp 32 +
STACK CFI 4ef94 .cfa: sp 0 +
STACK CFI INIT 4f694 70 .cfa: sp 0 +
STACK CFI 4f698 .cfa: sp 48 +
STACK CFI 4f6a4 .cfa: x29 32 + x19: .cfa -16 + ^ .ra: .cfa -24 + ^ x29: .cfa -32 + ^
STACK CFI 4f6dc .cfa: sp 48 +
STACK CFI 4f6e8 .cfa: sp 0 +
STACK CFI 4f6ec .cfa: x29 32 +
STACK CFI INIT 4f704 5c .cfa: sp 0 +
STACK CFI 4f708 .cfa: sp 32 +
STACK CFI 4f710 .cfa: x29 32 + x19: .cfa -16 + ^ .ra: .cfa -24 + ^ x29: .cfa -32 + ^
STACK CFI 4f754 .cfa: sp 32 +
STACK CFI 4f75c .cfa: sp 0 +
STACK CFI INIT 4f760 64 .cfa: sp 0 +
STACK CFI 4f764 .cfa: sp 32 +
STACK CFI 4f76c .cfa: x29 32 + x19: .cfa -16 + ^ .ra: .cfa -24 + ^ x29: .cfa -32 + ^
STACK CFI 4f7b8 .cfa: sp 32 +
STACK CFI 4f7c0 .cfa: sp 0 +
STACK CFI INIT 4f7c4 20 .cfa: sp 0 +
STACK CFI INIT 4f7e4 40 .cfa: sp 0 +
STACK CFI 4f7fc .cfa: sp 32 +
STACK CFI 4f804 .cfa: x29 32 + x19: .cfa -16 + ^ .ra: .cfa -24 + ^ x29: .cfa -32 + ^
STACK CFI 4f818 .cfa: sp 32 +
STACK CFI 4f820 .cfa: sp 0 +
STACK CFI INIT 4f8a4 3c .cfa: sp 0 +
STACK CFI INIT 4f8e0 14 .cfa: sp 0 +
STACK CFI INIT 4f8f4 34 .cfa: sp 0 +
STACK CFI 4f900 .cfa: sp 32 +
STACK CFI 4f908 .cfa: x29 32 + x19: .cfa -16 + ^ .ra: .cfa -24 + ^ x29: .cfa -32 + ^
STACK CFI 4f91c .cfa: sp 32 +
STACK CFI 4f924 .cfa: sp 0 +
STACK CFI INIT 4f928 8c .cfa: sp 0 +
STACK CFI 4f92c .cfa: sp 80 +
STACK CFI 4f93c .cfa: x29 48 + x19: .cfa -8 + ^ x20: .cfa -16 + ^ x21: .cfa -32 + ^ .ra: .cfa -40 + ^ x29: .cfa -48 + ^
STACK CFI 4f99c .cfa: sp 80 +
STACK CFI 4f9ac .cfa: sp 0 +
STACK CFI 4f9b0 .cfa: x29 48 +
STACK CFI INIT 4f9b4 1c .cfa: sp 0 +
STACK CFI INIT 4f9d0 c .cfa: sp 0 +
STACK CFI INIT 4f9dc 20 .cfa: sp 0 +
STACK CFI INIT 4f9fc 40 .cfa: sp 0 +
STACK CFI 4fa14 .cfa: sp 32 +
STACK CFI 4fa1c .cfa: x29 32 + x19: .cfa -16 + ^ .ra: .cfa -24 + ^ x29: .cfa -32 + ^
STACK CFI 4fa30 .cfa: sp 32 +
STACK CFI 4fa38 .cfa: sp 0 +
STACK CFI INIT 4fabc 3c .cfa: sp 0 +
STACK CFI INIT 4faf8 14 .cfa: sp 0 +
STACK CFI INIT 4fb0c 34 .cfa: sp 0 +
STACK CFI 4fb18 .cfa: sp 32 +
STACK CFI 4fb20 .cfa: x29 32 + x19: .cfa -16 + ^ .ra: .cfa -24 + ^ x29: .cfa -32 + ^
STACK CFI 4fb34 .cfa: sp 32 +
STACK CFI 4fb3c .cfa: sp 0 +
STACK CFI INIT 4fb40 8c .cfa: sp 0 +
STACK CFI 4fb44 .cfa: sp 80 +
STACK CFI 4fb54 .cfa: x29 48 + x19: .cfa -8 + ^ x20: .cfa -16 + ^ x21: .cfa -32 + ^ .ra: .cfa -40 + ^ x29: .cfa -48 + ^
STACK CFI 4fbb4 .cfa: sp 80 +
STACK CFI 4fbc4 .cfa: sp 0 +
STACK CFI 4fbc8 .cfa: x29 48 +
STACK CFI INIT 4fbcc 1c .cfa: sp 0 +
STACK CFI INIT 4fbe8 c .cfa: sp 0 +
STACK CFI INIT 4fd64 a4 .cfa: sp 0 +
STACK CFI 4fd80 .cfa: sp 32 +
STACK CFI 4fd88 .cfa: x29 32 + x19: .cfa -16 + ^ .ra: .cfa -24 + ^ x29: .cfa -32 + ^
STACK CFI 4fda0 .cfa: sp 32 +
STACK CFI 4fda8 .cfa: sp 0 +
STACK CFI 4fdac .cfa: x29 32 +
STACK CFI 4fdfc .cfa: sp 32 +
STACK CFI 4fe04 .cfa: sp 0 +
STACK CFI INIT 502d4 80 .cfa: sp 0 +
STACK CFI 502d8 .cfa: sp 32 +
STACK CFI 502e0 .cfa: x29 32 + x19: .cfa -16 + ^ .ra: .cfa -24 + ^ x29: .cfa -32 + ^
STACK CFI 50318 .cfa: sp 32 +
STACK CFI 50320 .cfa: sp 0 +
STACK CFI 50324 .cfa: sp 32 +
STACK CFI 5032c .cfa: sp 0 +
STACK CFI 50330 .cfa: x29 32 +
STACK CFI INIT 50354 1ac .cfa: sp 0 +
STACK CFI 50358 .cfa: sp 32 +
STACK CFI 50360 .cfa: x29 32 + x19: .cfa -8 + ^ x20: .cfa -16 + ^ .ra: .cfa -24 + ^ x29: .cfa -32 + ^
STACK CFI 50450 .cfa: sp 32 +
STACK CFI 50458 .cfa: sp 0 +
STACK CFI 5045c .cfa: x29 32 +
STACK CFI INIT 50970 1c .cfa: sp 0 +
STACK CFI INIT 50d00 4 .cfa: sp 0 +
STACK CFI INIT 51670 1c .cfa: sp 0 +
STACK CFI INIT 519b0 4 .cfa: sp 0 +
STACK CFI INIT 51ac4 4 .cfa: sp 0 +
STACK CFI INIT 51ac8 38 .cfa: sp 0 +
STACK CFI 51acc .cfa: sp 32 +
STACK CFI 51ad4 .cfa: x29 32 + x19: .cfa -16 + ^ .ra: .cfa -24 + ^ x29: .cfa -32 + ^
STACK CFI 51af4 .cfa: sp 32 +
STACK CFI 51afc .cfa: sp 0 +
STACK CFI INIT 51b00 18 .cfa: sp 0 +
STACK CFI INIT 51b18 4 .cfa: sp 0 +
STACK CFI INIT 51b1c 4 .cfa: sp 0 +
STACK CFI INIT 51b20 8 .cfa: sp 0 +
STACK CFI INIT 51b28 1c .cfa: sp 0 +
STACK CFI INIT 51b44 c .cfa: sp 0 +
STACK CFI INIT 51b50 4 .cfa: sp 0 +
STACK CFI INIT 5212c c4 .cfa: sp 0 +
STACK CFI 52130 .cfa: sp 48 +
STACK CFI 5213c .cfa: x29 48 + x19: .cfa -8 + ^ x20: .cfa -16 + ^ x21: .cfa -24 + ^ x22: .cfa -32 + ^ .ra: .cfa -40 + ^ x29: .cfa -48 + ^
STACK CFI 5215c .cfa: sp 48 +
STACK CFI 52168 .cfa: sp 0 +
STACK CFI 5216c .cfa: x29 48 +
STACK CFI 521d0 .cfa: sp 48 +
STACK CFI 521dc .cfa: sp 0 +
STACK CFI 521e0 .cfa: sp 48 +
STACK CFI 521ec .cfa: sp 0 +
STACK CFI INIT 521f0 4 .cfa: sp 0 +
STACK CFI INIT 521f4 4 .cfa: sp 0 +
STACK CFI INIT 521f8 34 .cfa: sp 0 +
STACK CFI 521fc .cfa: sp 32 +
STACK CFI 52204 .cfa: x29 32 + x19: .cfa -16 + ^ .ra: .cfa -24 + ^ x29: .cfa -32 + ^
STACK CFI 52220 .cfa: sp 32 +
STACK CFI 52228 .cfa: sp 0 +
STACK CFI INIT 5222c 14 .cfa: sp 0 +
STACK CFI INIT 52240 4 .cfa: sp 0 +
STACK CFI INIT 52244 4 .cfa: sp 0 +
STACK CFI INIT 52248 8 .cfa: sp 0 +
STACK CFI INIT 52250 1c .cfa: sp 0 +
STACK CFI INIT 5226c c .cfa: sp 0 +
STACK CFI INIT 526e8 1c .cfa: sp 0 +
STACK CFI INIT 52a30 4 .cfa: sp 0 +
STACK CFI INIT 52a34 2a8 .cfa: sp 0 +
STACK CFI 52a38 .cfa: sp 80 +
STACK CFI 52a4c .cfa: x29 80 + x19: .cfa -8 + ^ x20: .cfa -16 + ^ x21: .cfa -24 + ^ x22: .cfa -32 + ^ x23: .cfa -40 + ^ x24: .cfa -48 + ^ x25: .cfa -64 + ^ .ra: .cfa -72 + ^ x29: .cfa -80 + ^
STACK CFI 52b54 .cfa: sp 80 +
STACK CFI 52b68 .cfa: sp 0 +
STACK CFI 52b6c .cfa: x29 80 +
STACK CFI 52bc8 .cfa: sp 80 +
STACK CFI 52bdc .cfa: sp 0 +
STACK CFI 52be0 .cfa: x29 80 +
STACK CFI 52c00 .cfa: sp 80 +
STACK CFI 52c14 .cfa: sp 0 +
STACK CFI 52c18 .cfa: sp 80 +
STACK CFI 52c2c .cfa: sp 0 +
STACK CFI 52c30 .cfa: x29 80 +
STACK CFI 52c3c .cfa: sp 80 +
STACK CFI 52c50 .cfa: sp 0 +
STACK CFI 52c54 .cfa: x29 80 +
STACK CFI 52c60 .cfa: sp 80 +
STACK CFI 52c74 .cfa: sp 0 +
STACK CFI 52c78 .cfa: x29 80 +
STACK CFI 52c84 .cfa: sp 80 +
STACK CFI 52c98 .cfa: sp 0 +
STACK CFI 52c9c .cfa: x29 80 +
STACK CFI 52ca8 .cfa: sp 80 +
STACK CFI 52cbc .cfa: sp 0 +
STACK CFI 52cc0 .cfa: x29 80 +
STACK CFI 52cc4 .cfa: sp 80 +
STACK CFI 52cd8 .cfa: sp 0 +
STACK CFI INIT 5351c 1c .cfa: sp 0 +
STACK CFI INIT 5382c 4 .cfa: sp 0 +
STACK CFI INIT 53aa8 4 .cfa: sp 0 +
STACK CFI INIT 53aac 38 .cfa: sp 0 +
STACK CFI 53ab0 .cfa: sp 32 +
STACK CFI 53ab8 .cfa: x29 32 + x19: .cfa -16 + ^ .ra: .cfa -24 + ^ x29: .cfa -32 + ^
STACK CFI 53ad8 .cfa: sp 32 +
STACK CFI 53ae0 .cfa: sp 0 +
STACK CFI INIT 53ae4 18 .cfa: sp 0 +
STACK CFI INIT 53afc 4 .cfa: sp 0 +
STACK CFI INIT 53b00 4 .cfa: sp 0 +
STACK CFI INIT 53b04 8 .cfa: sp 0 +
STACK CFI INIT 53b0c 1c .cfa: sp 0 +
STACK CFI INIT 53b28 c .cfa: sp 0 +
STACK CFI INIT 53d88 9c .cfa: sp 0 +
STACK CFI INIT 546dc 1c .cfa: sp 0 +
STACK CFI INIT 55f3c 4 .cfa: sp 0 +
STACK CFI INIT 56050 4 .cfa: sp 0 +
STACK CFI INIT 56054 38 .cfa: sp 0 +
STACK CFI 56058 .cfa: sp 32 +
STACK CFI 56060 .cfa: x29 32 + x19: .cfa -16 + ^ .ra: .cfa -24 + ^ x29: .cfa -32 + ^
STACK CFI 56080 .cfa: sp 32 +
STACK CFI 56088 .cfa: sp 0 +
STACK CFI INIT 5608c 18 .cfa: sp 0 +
STACK CFI INIT 560a4 4 .cfa: sp 0 +
STACK CFI INIT 560a8 4 .cfa: sp 0 +
STACK CFI INIT 560ac 8 .cfa: sp 0 +
STACK CFI INIT 560b4 1c .cfa: sp 0 +
STACK CFI INIT 560d0 c .cfa: sp 0 +
STACK CFI INIT 56260 28 .cfa: sp 0 +
STACK CFI 56264 .cfa: sp 32 +
STACK CFI 5626c .cfa: x29 32 + x19: .cfa -16 + ^ .ra: .cfa -24 + ^ x29: .cfa -32 + ^
STACK CFI 5627c .cfa: sp 32 +
STACK CFI 56284 .cfa: sp 0 +
STACK CFI INIT 56288 28 .cfa: sp 0 +
STACK CFI 5628c .cfa: sp 32 +
STACK CFI 56294 .cfa: x29 32 + x19: .cfa -16 + ^ .ra: .cfa -24 + ^ x29: .cfa -32 + ^
STACK CFI 562a4 .cfa: sp 32 +
STACK CFI 562ac .cfa: sp 0 +
STACK CFI INIT 562b0 44 .cfa: sp 0 +
STACK CFI 562b4 .cfa: sp 32 +
STACK CFI 562bc .cfa: x29 32 + x19: .cfa -8 + ^ x20: .cfa -16 + ^ .ra: .cfa -24 + ^ x29: .cfa -32 + ^
STACK CFI 562e8 .cfa: sp 32 +
STACK CFI 562f0 .cfa: sp 0 +
STACK CFI INIT 566fc 28 .cfa: sp 0 +
STACK CFI 56700 .cfa: sp 32 +
STACK CFI 56708 .cfa: x29 32 + x19: .cfa -16 + ^ .ra: .cfa -24 + ^ x29: .cfa -32 + ^
STACK CFI 56718 .cfa: sp 32 +
STACK CFI 56720 .cfa: sp 0 +
STACK CFI INIT 56724 28 .cfa: sp 0 +
STACK CFI 56728 .cfa: sp 32 +
STACK CFI 56730 .cfa: x29 32 + x19: .cfa -16 + ^ .ra: .cfa -24 + ^ x29: .cfa -32 + ^
STACK CFI 56740 .cfa: sp 32 +
STACK CFI 56748 .cfa: sp 0 +
STACK CFI INIT 56850 28 .cfa: sp 0 +
STACK CFI 56854 .cfa: sp 32 +
STACK CFI 5685c .cfa: x29 32 + x19: .cfa -16 + ^ .ra: .cfa -24 + ^ x29: .cfa -32 + ^
STACK CFI 5686c .cfa: sp 32 +
STACK CFI 56874 .cfa: sp 0 +
STACK CFI INIT 5697c 28 .cfa: sp 0 +
STACK CFI 56980 .cfa: sp 32 +
STACK CFI 56988 .cfa: x29 32 + x19: .cfa -16 + ^ .ra: .cfa -24 + ^ x29: .cfa -32 + ^
STACK CFI 56998 .cfa: sp 32 +
STACK CFI 569a0 .cfa: sp 0 +
STACK CFI INIT 569a4 28 .cfa: sp 0 +
STACK CFI 569a8 .cfa: sp 32 +
STACK CFI 569b0 .cfa: x29 32 + x19: .cfa -16 + ^ .ra: .cfa -24 + ^ x29: .cfa -32 + ^
STACK CFI 569c0 .cfa: sp 32 +
STACK CFI 569c8 .cfa: sp 0 +
STACK CFI INIT 575a8 1c .cfa: sp 0 +
STACK CFI INIT 57bf0 4 .cfa: sp 0 +
STACK CFI INIT 57d04 4 .cfa: sp 0 +
STACK CFI INIT 57d08 38 .cfa: sp 0 +
STACK CFI 57d0c .cfa: sp 32 +
STACK CFI 57d14 .cfa: x29 32 + x19: .cfa -16 + ^ .ra: .cfa -24 + ^ x29: .cfa -32 + ^
STACK CFI 57d34 .cfa: sp 32 +
STACK CFI 57d3c .cfa: sp 0 +
STACK CFI INIT 57d40 18 .cfa: sp 0 +
STACK CFI INIT 57d58 4 .cfa: sp 0 +
STACK CFI INIT 57d5c 4 .cfa: sp 0 +
STACK CFI INIT 57d60 8 .cfa: sp 0 +
STACK CFI INIT 57d68 1c .cfa: sp 0 +
STACK CFI INIT 57d84 c .cfa: sp 0 +
STACK CFI INIT 58820 4 .cfa: sp 0 +
STACK CFI INIT 58824 24 .cfa: sp 0 +
STACK CFI 58828 .cfa: sp 16 +
STACK CFI 5882c .cfa: x29 16 + .ra: .cfa -8 + ^ x29: .cfa -16 + ^
STACK CFI 58840 .cfa: sp 16 +
STACK CFI 58844 .cfa: sp 0 +
STACK CFI INIT 58848 10 .cfa: sp 0 +
STACK CFI INIT 58858 4 .cfa: sp 0 +
STACK CFI INIT 5885c 4 .cfa: sp 0 +
STACK CFI INIT 58860 8 .cfa: sp 0 +
STACK CFI INIT 58868 1c .cfa: sp 0 +
STACK CFI INIT 58884 c .cfa: sp 0 +
STACK CFI INIT 58d00 1c .cfa: sp 0 +
STACK CFI INIT 590d8 4 .cfa: sp 0 +
STACK CFI INIT 591a4 4 .cfa: sp 0 +
STACK CFI INIT 5af8c 64 .cfa: sp 0 +
STACK CFI 5af90 .cfa: sp 32 +
STACK CFI 5af98 .cfa: x29 32 + x19: .cfa -16 + ^ .ra: .cfa -24 + ^ x29: .cfa -32 + ^
STACK CFI 5afb4 .cfa: sp 32 +
STACK CFI 5afbc .cfa: sp 0 +
STACK CFI 5afc0 .cfa: x29 32 +
STACK CFI 5afe4 .cfa: sp 32 +
STACK CFI 5afec .cfa: sp 0 +
STACK CFI INIT 5aff0 68 .cfa: sp 0 +
STACK CFI 5aff4 .cfa: sp 48 +
STACK CFI 5b000 .cfa: x29 48 + x19: .cfa -8 + ^ x20: .cfa -16 + ^ x21: .cfa -32 + ^ .ra: .cfa -40 + ^ x29: .cfa -48 + ^
STACK CFI 5b038 .cfa: sp 48 +
STACK CFI 5b044 .cfa: sp 0 +
STACK CFI 5b048 .cfa: sp 48 +
STACK CFI 5b054 .cfa: sp 0 +
STACK CFI INIT 5b058 c4 .cfa: sp 0 +
STACK CFI 5b05c .cfa: sp 48 +
STACK CFI 5b068 .cfa: x29 48 + x19: .cfa -8 + ^ x20: .cfa -16 + ^ x21: .cfa -24 + ^ x22: .cfa -32 + ^ .ra: .cfa -40 + ^ x29: .cfa -48 + ^
STACK CFI 5b088 .cfa: sp 48 +
STACK CFI 5b094 .cfa: sp 0 +
STACK CFI 5b098 .cfa: x29 48 +
STACK CFI 5b0fc .cfa: sp 48 +
STACK CFI 5b108 .cfa: sp 0 +
STACK CFI 5b10c .cfa: sp 48 +
STACK CFI 5b118 .cfa: sp 0 +
STACK CFI INIT 5c070 7bc .cfa: sp 0 +
STACK CFI 5c074 .cfa: sp 176 +
STACK CFI 5c090 .cfa: x29 96 + x19: .cfa -8 + ^ x20: .cfa -16 + ^ x21: .cfa -24 + ^ x22: .cfa -32 + ^ x23: .cfa -40 + ^ x24: .cfa -48 + ^ x25: .cfa -56 + ^ x26: .cfa -64 + ^ x27: .cfa -72 + ^ x28: .cfa -80 + ^ .ra: .cfa -88 + ^ x29: .cfa -96 + ^
STACK CFI 5c7e4 .cfa: sp 176 +
STACK CFI 5c800 .cfa: sp 0 +
STACK CFI 5c804 .cfa: x29 96 +
STACK CFI INIT 5e4a8 50 .cfa: sp 0 +
STACK CFI 5e4ac .cfa: sp 32 +
STACK CFI 5e4b4 .cfa: x29 32 + x19: .cfa -16 + ^ .ra: .cfa -24 + ^ x29: .cfa -32 + ^
STACK CFI 5e4cc .cfa: sp 32 +
STACK CFI 5e4d4 .cfa: sp 0 +
STACK CFI 5e4d8 .cfa: x29 32 +
STACK CFI 5e4ec .cfa: sp 32 +
STACK CFI 5e4f4 .cfa: sp 0 +
STACK CFI INIT 5efa0 7c .cfa: sp 0 +
STACK CFI 5efa4 .cfa: sp 32 +
STACK CFI 5efac .cfa: x29 32 + x19: .cfa -16 + ^ .ra: .cfa -24 + ^ x29: .cfa -32 + ^
STACK CFI 5efd0 .cfa: sp 32 +
STACK CFI 5efd8 .cfa: sp 0 +
STACK CFI 5efdc .cfa: x29 32 +
STACK CFI 5f010 .cfa: sp 32 +
STACK CFI 5f018 .cfa: sp 0 +
STACK CFI INIT 5f01c 7c .cfa: sp 0 +
STACK CFI 5f020 .cfa: sp 32 +
STACK CFI 5f028 .cfa: x29 32 + x19: .cfa -16 + ^ .ra: .cfa -24 + ^ x29: .cfa -32 + ^
STACK CFI 5f04c .cfa: sp 32 +
STACK CFI 5f054 .cfa: sp 0 +
STACK CFI 5f058 .cfa: x29 32 +
STACK CFI 5f08c .cfa: sp 32 +
STACK CFI 5f094 .cfa: sp 0 +
STACK CFI INIT 5f098 7c .cfa: sp 0 +
STACK CFI 5f09c .cfa: sp 32 +
STACK CFI 5f0a4 .cfa: x29 32 + x19: .cfa -16 + ^ .ra: .cfa -24 + ^ x29: .cfa -32 + ^
STACK CFI 5f0c8 .cfa: sp 32 +
STACK CFI 5f0d0 .cfa: sp 0 +
STACK CFI 5f0d4 .cfa: x29 32 +
STACK CFI 5f108 .cfa: sp 32 +
STACK CFI 5f110 .cfa: sp 0 +
STACK CFI INIT 60d68 7c .cfa: sp 0 +
STACK CFI 60d6c .cfa: sp 32 +
STACK CFI 60d74 .cfa: x29 32 + x19: .cfa -16 + ^ .ra: .cfa -24 + ^ x29: .cfa -32 + ^
STACK CFI 60d98 .cfa: sp 32 +
STACK CFI 60da0 .cfa: sp 0 +
STACK CFI 60da4 .cfa: x29 32 +
STACK CFI 60dd8 .cfa: sp 32 +
STACK CFI 60de0 .cfa: sp 0 +
STACK CFI INIT 60de4 7c .cfa: sp 0 +
STACK CFI 60de8 .cfa: sp 32 +
STACK CFI 60df0 .cfa: x29 32 + x19: .cfa -16 + ^ .ra: .cfa -24 + ^ x29: .cfa -32 + ^
STACK CFI 60e14 .cfa: sp 32 +
STACK CFI 60e1c .cfa: sp 0 +
STACK CFI 60e20 .cfa: x29 32 +
STACK CFI 60e54 .cfa: sp 32 +
STACK CFI 60e5c .cfa: sp 0 +
STACK CFI INIT 61578 3c .cfa: sp 0 +
STACK CFI 6157c .cfa: sp 32 +
STACK CFI 61584 .cfa: x29 32 + x19: .cfa -16 + ^ .ra: .cfa -24 + ^ x29: .cfa -32 + ^
STACK CFI 61598 .cfa: sp 32 +
STACK CFI 615a0 .cfa: sp 0 +
STACK CFI 615a4 .cfa: x29 32 +
STACK CFI 615a8 .cfa: sp 32 +
STACK CFI 615b0 .cfa: sp 0 +
STACK CFI INIT 61c20 94 .cfa: sp 0 +
STACK CFI 61c24 .cfa: sp 32 +
STACK CFI 61c2c .cfa: x29 32 + x19: .cfa -16 + ^ .ra: .cfa -24 + ^ x29: .cfa -32 + ^
STACK CFI 61c58 .cfa: sp 32 +
STACK CFI 61c60 .cfa: sp 0 +
STACK CFI 61c64 .cfa: x29 32 +
STACK CFI 61ca8 .cfa: sp 32 +
STACK CFI 61cb0 .cfa: sp 0 +
STACK CFI INIT 61cb4 44 .cfa: sp 0 +
STACK CFI 61cb8 .cfa: sp 32 +
STACK CFI 61cc0 .cfa: x29 32 + x19: .cfa -16 + ^ .ra: .cfa -24 + ^ x29: .cfa -32 + ^
STACK CFI 61cdc .cfa: sp 32 +
STACK CFI 61ce4 .cfa: sp 0 +
STACK CFI 61ce8 .cfa: x29 32 +
STACK CFI 61cec .cfa: sp 32 +
STACK CFI 61cf4 .cfa: sp 0 +
STACK CFI INIT 63598 200 .cfa: sp 0 +
STACK CFI 6359c .cfa: sp 336 +
STACK CFI 635b4 .cfa: x29 80 + x19: .cfa -8 + ^ x20: .cfa -16 + ^ x21: .cfa -24 + ^ x22: .cfa -32 + ^ x23: .cfa -40 + ^ x24: .cfa -48 + ^ x25: .cfa -56 + ^ x28: .cfa -64 + ^ .ra: .cfa -72 + ^ x29: .cfa -80 + ^
STACK CFI 63778 .cfa: sp 336 +
STACK CFI 63790 .cfa: sp 0 +
STACK CFI 63794 .cfa: x29 80 +
STACK CFI INIT 63798 ac .cfa: sp 0 +
STACK CFI 6379c .cfa: sp 64 +
STACK CFI 637ac .cfa: x29 64 + x19: .cfa -8 + ^ x20: .cfa -16 + ^ x21: .cfa -24 + ^ x22: .cfa -32 + ^ x23: .cfa -48 + ^ .ra: .cfa -56 + ^ x29: .cfa -64 + ^
STACK CFI 63828 .cfa: sp 64 +
STACK CFI 63838 .cfa: sp 0 +
STACK CFI 6383c .cfa: x29 64 +
STACK CFI INIT 63844 13c .cfa: sp 0 +
STACK CFI 63848 .cfa: sp 64 +
STACK CFI 63858 .cfa: x29 64 + x19: .cfa -8 + ^ x20: .cfa -16 + ^ x21: .cfa -24 + ^ x22: .cfa -32 + ^ x23: .cfa -40 + ^ x24: .cfa -48 + ^ .ra: .cfa -56 + ^ x29: .cfa -64 + ^
STACK CFI 63938 .cfa: sp 64 +
STACK CFI 63948 .cfa: sp 0 +
STACK CFI 6394c .cfa: x29 64 +
STACK CFI INIT 63980 200 .cfa: sp 0 +
STACK CFI 63984 .cfa: sp 64 +
STACK CFI 63994 .cfa: x29 64 + x19: .cfa -8 + ^ x20: .cfa -16 + ^ x21: .cfa -24 + ^ x22: .cfa -32 + ^ x23: .cfa -40 + ^ x24: .cfa -48 + ^ .ra: .cfa -56 + ^ x29: .cfa -64 + ^
STACK CFI 63b64 .cfa: sp 64 +
STACK CFI 63b74 .cfa: sp 0 +
STACK CFI 63b78 .cfa: x29 64 +
STACK CFI INIT 63b80 14 .cfa: sp 0 +
STACK CFI 63b84 .cfa: sp 16 +
STACK CFI 63b88 .cfa: x29 16 + .ra: .cfa -8 + ^ x29: .cfa -16 + ^
STACK CFI INIT 63b94 40 .cfa: sp 0 +
STACK CFI 63bac .cfa: sp 32 +
STACK CFI 63bb4 .cfa: x29 32 + x19: .cfa -16 + ^ .ra: .cfa -24 + ^ x29: .cfa -32 + ^
STACK CFI 63bc8 .cfa: sp 32 +
STACK CFI 63bd0 .cfa: sp 0 +
STACK CFI INIT 63bd4 98 .cfa: sp 0 +
STACK CFI 63bd8 .cfa: sp 64 +
STACK CFI 63be8 .cfa: x29 48 + x19: .cfa -8 + ^ x20: .cfa -16 + ^ x21: .cfa -32 + ^ .ra: .cfa -40 + ^ x29: .cfa -48 + ^
STACK CFI 63c54 .cfa: sp 64 +
STACK CFI 63c64 .cfa: sp 0 +
STACK CFI 63c68 .cfa: x29 48 +
STACK CFI INIT 63c6c 44 .cfa: sp 0 +
STACK CFI 63c70 .cfa: sp 32 +
STACK CFI 63c78 .cfa: x29 32 + x19: .cfa -16 + ^ .ra: .cfa -24 + ^ x29: .cfa -32 + ^
STACK CFI 63ca4 .cfa: sp 32 +
STACK CFI 63cac .cfa: sp 0 +
STACK CFI INIT 6455c 50 .cfa: sp 0 +
STACK CFI 64580 .cfa: sp 32 +
STACK CFI 64588 .cfa: x29 32 + x19: .cfa -16 + ^ .ra: .cfa -24 + ^ x29: .cfa -32 + ^
STACK CFI 6459c .cfa: sp 32 +
STACK CFI 645a4 .cfa: sp 0 +
STACK CFI INIT 645ac e8 .cfa: sp 0 +
STACK CFI 645b0 .cfa: sp 32 +
STACK CFI 645b8 .cfa: x29 32 + x19: .cfa -8 + ^ x20: .cfa -16 + ^ .ra: .cfa -24 + ^ x29: .cfa -32 + ^
STACK CFI 645f8 .cfa: sp 32 +
STACK CFI 64600 .cfa: sp 0 +
STACK CFI 64604 .cfa: x29 32 +
STACK CFI 64640 .cfa: sp 32 +
STACK CFI 64648 .cfa: sp 0 +
STACK CFI 6464c .cfa: x29 32 +
STACK CFI 6466c .cfa: sp 32 +
STACK CFI 64674 .cfa: sp 0 +
STACK CFI 64678 .cfa: x29 32 +
STACK CFI 64688 .cfa: sp 32 +
STACK CFI 64690 .cfa: sp 0 +
STACK CFI INIT 64694 d8 .cfa: sp 0 +
STACK CFI 64698 .cfa: sp 48 +
STACK CFI 646a4 .cfa: x29 48 + x19: .cfa -8 + ^ x20: .cfa -16 + ^ x21: .cfa -32 + ^ .ra: .cfa -40 + ^ x29: .cfa -48 + ^
STACK CFI 646d8 .cfa: sp 48 +
STACK CFI 646e4 .cfa: sp 0 +
STACK CFI 646e8 .cfa: x29 48 +
STACK CFI 64744 .cfa: sp 48 +
STACK CFI 64750 .cfa: sp 0 +
STACK CFI 64754 .cfa: x29 48 +
STACK CFI INIT 6476c 68 .cfa: sp 0 +
STACK CFI 64770 .cfa: sp 48 +
STACK CFI 6477c .cfa: x29 48 + x19: .cfa -8 + ^ x20: .cfa -16 + ^ x21: .cfa -32 + ^ .ra: .cfa -40 + ^ x29: .cfa -48 + ^
STACK CFI 647b4 .cfa: sp 48 +
STACK CFI 647c0 .cfa: sp 0 +
STACK CFI 647c4 .cfa: sp 48 +
STACK CFI 647d0 .cfa: sp 0 +
STACK CFI INIT 647d4 54 .cfa: sp 0 +
STACK CFI 647d8 .cfa: sp 32 +
STACK CFI 647e0 .cfa: x29 32 + x19: .cfa -8 + ^ x20: .cfa -16 + ^ .ra: .cfa -24 + ^ x29: .cfa -32 + ^
STACK CFI 64810 .cfa: sp 32 +
STACK CFI 64818 .cfa: sp 0 +
STACK CFI 6481c .cfa: sp 32 +
STACK CFI 64824 .cfa: sp 0 +
STACK CFI INIT 64828 14 .cfa: sp 0 +
STACK CFI 6482c .cfa: sp 16 +
STACK CFI 64830 .cfa: x29 16 + .ra: .cfa -8 + ^ x29: .cfa -16 + ^
STACK CFI INIT 64b80 18 .cfa: sp 0 +
STACK CFI 64b84 .cfa: sp 16 +
STACK CFI 64b88 .cfa: x29 16 + .ra: .cfa -8 + ^ x29: .cfa -16 + ^
STACK CFI 64b90 .cfa: sp 16 +
STACK CFI 64b94 .cfa: sp 0 +
STACK CFI INIT 64b98 4 .cfa: sp 0 +
STACK CFI INIT 64b9c 4 .cfa: sp 0 +
STACK CFI INIT 64ba0 34 .cfa: sp 0 +
STACK CFI 64ba4 .cfa: sp 32 +
STACK CFI 64bac .cfa: x29 32 + x19: .cfa -16 + ^ .ra: .cfa -24 + ^ x29: .cfa -32 + ^
STACK CFI 64bc8 .cfa: sp 32 +
STACK CFI 64bd0 .cfa: sp 0 +
STACK CFI INIT 64bd4 14 .cfa: sp 0 +
STACK CFI INIT 64be8 4 .cfa: sp 0 +
STACK CFI INIT 64bec 4 .cfa: sp 0 +
STACK CFI INIT 64bf0 1c .cfa: sp 0 +
STACK CFI INIT 64c0c 1c .cfa: sp 0 +
STACK CFI INIT 64c28 c .cfa: sp 0 +
STACK CFI INIT 64c34 98 .cfa: sp 0 +
STACK CFI 64c38 .cfa: sp 64 +
STACK CFI 64c48 .cfa: x29 48 + x19: .cfa -8 + ^ x20: .cfa -16 + ^ x21: .cfa -32 + ^ .ra: .cfa -40 + ^ x29: .cfa -48 + ^
STACK CFI 64cb4 .cfa: sp 64 +
STACK CFI 64cc4 .cfa: sp 0 +
STACK CFI 64cc8 .cfa: x29 48 +
STACK CFI INIT 65050 6c .cfa: sp 0 +
STACK CFI 65054 .cfa: sp 32 +
STACK CFI 6505c .cfa: x29 32 + x19: .cfa -16 + ^ .ra: .cfa -24 + ^ x29: .cfa -32 + ^
STACK CFI 650b0 .cfa: sp 32 +
STACK CFI 650b8 .cfa: sp 0 +
STACK CFI INIT 650bc 74 .cfa: sp 0 +
STACK CFI 650c0 .cfa: sp 32 +
STACK CFI 650c8 .cfa: x29 32 + x19: .cfa -16 + ^ .ra: .cfa -24 + ^ x29: .cfa -32 + ^
STACK CFI 65124 .cfa: sp 32 +
STACK CFI 6512c .cfa: sp 0 +
STACK CFI INIT 65130 18 .cfa: sp 0 +
STACK CFI 65134 .cfa: sp 16 +
STACK CFI 65138 .cfa: x29 16 + .ra: .cfa -8 + ^ x29: .cfa -16 + ^
STACK CFI 65140 .cfa: sp 16 +
STACK CFI 65144 .cfa: sp 0 +
STACK CFI INIT 65148 4 .cfa: sp 0 +
STACK CFI INIT 6514c 4 .cfa: sp 0 +
STACK CFI INIT 65150 34 .cfa: sp 0 +
STACK CFI 65154 .cfa: sp 32 +
STACK CFI 6515c .cfa: x29 32 + x19: .cfa -16 + ^ .ra: .cfa -24 + ^ x29: .cfa -32 + ^
STACK CFI 65178 .cfa: sp 32 +
STACK CFI 65180 .cfa: sp 0 +
STACK CFI INIT 65184 14 .cfa: sp 0 +
STACK CFI INIT 65198 4 .cfa: sp 0 +
STACK CFI INIT 6519c 4 .cfa: sp 0 +
STACK CFI INIT 651a0 14 .cfa: sp 0 +
STACK CFI INIT 651b4 1c .cfa: sp 0 +
STACK CFI INIT 651d0 c .cfa: sp 0 +
STACK CFI INIT 651dc 98 .cfa: sp 0 +
STACK CFI 651e0 .cfa: sp 64 +
STACK CFI 651f0 .cfa: x29 48 + x19: .cfa -8 + ^ x20: .cfa -16 + ^ x21: .cfa -32 + ^ .ra: .cfa -40 + ^ x29: .cfa -48 + ^
STACK CFI 6525c .cfa: sp 64 +
STACK CFI 6526c .cfa: sp 0 +
STACK CFI 65270 .cfa: x29 48 +
STACK CFI INIT 655e4 6c .cfa: sp 0 +
STACK CFI 655e8 .cfa: sp 32 +
STACK CFI 655f0 .cfa: x29 32 + x19: .cfa -16 + ^ .ra: .cfa -24 + ^ x29: .cfa -32 + ^
STACK CFI 65644 .cfa: sp 32 +
STACK CFI 6564c .cfa: sp 0 +
STACK CFI INIT 65650 74 .cfa: sp 0 +
STACK CFI 65654 .cfa: sp 32 +
STACK CFI 6565c .cfa: x29 32 + x19: .cfa -16 + ^ .ra: .cfa -24 + ^ x29: .cfa -32 + ^
STACK CFI 656b8 .cfa: sp 32 +
STACK CFI 656c0 .cfa: sp 0 +
STACK CFI INIT 656c4 18 .cfa: sp 0 +
STACK CFI 656c8 .cfa: sp 16 +
STACK CFI 656cc .cfa: x29 16 + .ra: .cfa -8 + ^ x29: .cfa -16 + ^
STACK CFI 656d4 .cfa: sp 16 +
STACK CFI 656d8 .cfa: sp 0 +
STACK CFI INIT 656dc 4 .cfa: sp 0 +
STACK CFI INIT 656e0 4 .cfa: sp 0 +
STACK CFI INIT 656e4 34 .cfa: sp 0 +
STACK CFI 656e8 .cfa: sp 32 +
STACK CFI 656f0 .cfa: x29 32 + x19: .cfa -16 + ^ .ra: .cfa -24 + ^ x29: .cfa -32 + ^
STACK CFI 6570c .cfa: sp 32 +
STACK CFI 65714 .cfa: sp 0 +
STACK CFI INIT 65718 14 .cfa: sp 0 +
STACK CFI INIT 6572c 4 .cfa: sp 0 +
STACK CFI INIT 65730 4 .cfa: sp 0 +
STACK CFI INIT 65734 1c .cfa: sp 0 +
STACK CFI INIT 65750 1c .cfa: sp 0 +
STACK CFI INIT 6576c c .cfa: sp 0 +
STACK CFI INIT 65778 98 .cfa: sp 0 +
STACK CFI 6577c .cfa: sp 64 +
STACK CFI 6578c .cfa: x29 48 + x19: .cfa -8 + ^ x20: .cfa -16 + ^ x21: .cfa -32 + ^ .ra: .cfa -40 + ^ x29: .cfa -48 + ^
STACK CFI 657f8 .cfa: sp 64 +
STACK CFI 65808 .cfa: sp 0 +
STACK CFI 6580c .cfa: x29 48 +
STACK CFI INIT 65b94 6c .cfa: sp 0 +
STACK CFI 65b98 .cfa: sp 32 +
STACK CFI 65ba0 .cfa: x29 32 + x19: .cfa -16 + ^ .ra: .cfa -24 + ^ x29: .cfa -32 + ^
STACK CFI 65bf4 .cfa: sp 32 +
STACK CFI 65bfc .cfa: sp 0 +
STACK CFI INIT 65c00 74 .cfa: sp 0 +
STACK CFI 65c04 .cfa: sp 32 +
STACK CFI 65c0c .cfa: x29 32 + x19: .cfa -16 + ^ .ra: .cfa -24 + ^ x29: .cfa -32 + ^
STACK CFI 65c68 .cfa: sp 32 +
STACK CFI 65c70 .cfa: sp 0 +
STACK CFI INIT 65c74 18 .cfa: sp 0 +
STACK CFI 65c78 .cfa: sp 16 +
STACK CFI 65c7c .cfa: x29 16 + .ra: .cfa -8 + ^ x29: .cfa -16 + ^
STACK CFI 65c84 .cfa: sp 16 +
STACK CFI 65c88 .cfa: sp 0 +
STACK CFI INIT 65c8c 4 .cfa: sp 0 +
STACK CFI INIT 65c90 4 .cfa: sp 0 +
STACK CFI INIT 65c94 34 .cfa: sp 0 +
STACK CFI 65c98 .cfa: sp 32 +
STACK CFI 65ca0 .cfa: x29 32 + x19: .cfa -16 + ^ .ra: .cfa -24 + ^ x29: .cfa -32 + ^
STACK CFI 65cbc .cfa: sp 32 +
STACK CFI 65cc4 .cfa: sp 0 +
STACK CFI INIT 65cc8 14 .cfa: sp 0 +
STACK CFI INIT 65cdc 4 .cfa: sp 0 +
STACK CFI INIT 65ce0 4 .cfa: sp 0 +
STACK CFI INIT 65ce4 14 .cfa: sp 0 +
STACK CFI INIT 65cf8 1c .cfa: sp 0 +
STACK CFI INIT 65d14 c .cfa: sp 0 +
STACK CFI INIT 65d20 98 .cfa: sp 0 +
STACK CFI 65d24 .cfa: sp 64 +
STACK CFI 65d34 .cfa: x29 48 + x19: .cfa -8 + ^ x20: .cfa -16 + ^ x21: .cfa -32 + ^ .ra: .cfa -40 + ^ x29: .cfa -48 + ^
STACK CFI 65da0 .cfa: sp 64 +
STACK CFI 65db0 .cfa: sp 0 +
STACK CFI 65db4 .cfa: x29 48 +
STACK CFI INIT 66128 6c .cfa: sp 0 +
STACK CFI 6612c .cfa: sp 32 +
STACK CFI 66134 .cfa: x29 32 + x19: .cfa -16 + ^ .ra: .cfa -24 + ^ x29: .cfa -32 + ^
STACK CFI 66188 .cfa: sp 32 +
STACK CFI 66190 .cfa: sp 0 +
STACK CFI INIT 66194 74 .cfa: sp 0 +
STACK CFI 66198 .cfa: sp 32 +
STACK CFI 661a0 .cfa: x29 32 + x19: .cfa -16 + ^ .ra: .cfa -24 + ^ x29: .cfa -32 + ^
STACK CFI 661fc .cfa: sp 32 +
STACK CFI 66204 .cfa: sp 0 +
STACK CFI INIT 66208 18 .cfa: sp 0 +
STACK CFI 6620c .cfa: sp 16 +
STACK CFI 66210 .cfa: x29 16 + .ra: .cfa -8 + ^ x29: .cfa -16 + ^
STACK CFI 66218 .cfa: sp 16 +
STACK CFI 6621c .cfa: sp 0 +
STACK CFI INIT 66220 4 .cfa: sp 0 +
STACK CFI INIT 66224 4 .cfa: sp 0 +
STACK CFI INIT 66228 34 .cfa: sp 0 +
STACK CFI 6622c .cfa: sp 32 +
STACK CFI 66234 .cfa: x29 32 + x19: .cfa -16 + ^ .ra: .cfa -24 + ^ x29: .cfa -32 + ^
STACK CFI 66250 .cfa: sp 32 +
STACK CFI 66258 .cfa: sp 0 +
STACK CFI INIT 6625c 14 .cfa: sp 0 +
STACK CFI INIT 66270 4 .cfa: sp 0 +
STACK CFI INIT 66274 4 .cfa: sp 0 +
STACK CFI INIT 66278 1c .cfa: sp 0 +
STACK CFI INIT 66294 1c .cfa: sp 0 +
STACK CFI INIT 662b0 c .cfa: sp 0 +
STACK CFI INIT 662bc 98 .cfa: sp 0 +
STACK CFI 662c0 .cfa: sp 64 +
STACK CFI 662d0 .cfa: x29 48 + x19: .cfa -8 + ^ x20: .cfa -16 + ^ x21: .cfa -32 + ^ .ra: .cfa -40 + ^ x29: .cfa -48 + ^
STACK CFI 6633c .cfa: sp 64 +
STACK CFI 6634c .cfa: sp 0 +
STACK CFI 66350 .cfa: x29 48 +
STACK CFI INIT 666d8 6c .cfa: sp 0 +
STACK CFI 666dc .cfa: sp 32 +
STACK CFI 666e4 .cfa: x29 32 + x19: .cfa -16 + ^ .ra: .cfa -24 + ^ x29: .cfa -32 + ^
STACK CFI 66738 .cfa: sp 32 +
STACK CFI 66740 .cfa: sp 0 +
STACK CFI INIT 66744 74 .cfa: sp 0 +
STACK CFI 66748 .cfa: sp 32 +
STACK CFI 66750 .cfa: x29 32 + x19: .cfa -16 + ^ .ra: .cfa -24 + ^ x29: .cfa -32 + ^
STACK CFI 667ac .cfa: sp 32 +
STACK CFI 667b4 .cfa: sp 0 +
STACK CFI INIT 66bd4 98 .cfa: sp 0 +
STACK CFI 66bd8 .cfa: sp 64 +
STACK CFI 66be8 .cfa: x29 48 + x19: .cfa -8 + ^ x20: .cfa -16 + ^ x21: .cfa -32 + ^ .ra: .cfa -40 + ^ x29: .cfa -48 + ^
STACK CFI 66c54 .cfa: sp 64 +
STACK CFI 66c64 .cfa: sp 0 +
STACK CFI 66c68 .cfa: x29 48 +
STACK CFI INIT 66f24 6c .cfa: sp 0 +
STACK CFI 66f28 .cfa: sp 32 +
STACK CFI 66f30 .cfa: x29 32 + x19: .cfa -16 + ^ .ra: .cfa -24 + ^ x29: .cfa -32 + ^
STACK CFI 66f84 .cfa: sp 32 +
STACK CFI 66f8c .cfa: sp 0 +
STACK CFI INIT 66f90 74 .cfa: sp 0 +
STACK CFI 66f94 .cfa: sp 32 +
STACK CFI 66f9c .cfa: x29 32 + x19: .cfa -16 + ^ .ra: .cfa -24 + ^ x29: .cfa -32 + ^
STACK CFI 66ff8 .cfa: sp 32 +
STACK CFI 67000 .cfa: sp 0 +
STACK CFI INIT 67004 4 .cfa: sp 0 +
STACK CFI INIT 67008 4 .cfa: sp 0 +
STACK CFI INIT 6700c 34 .cfa: sp 0 +
STACK CFI 67010 .cfa: sp 32 +
STACK CFI 67018 .cfa: x29 32 + x19: .cfa -16 + ^ .ra: .cfa -24 + ^ x29: .cfa -32 + ^
STACK CFI 67034 .cfa: sp 32 +
STACK CFI 6703c .cfa: sp 0 +
STACK CFI INIT 67040 14 .cfa: sp 0 +
STACK CFI INIT 67054 4 .cfa: sp 0 +
STACK CFI INIT 67058 4 .cfa: sp 0 +
STACK CFI INIT 6705c 14 .cfa: sp 0 +
STACK CFI INIT 67070 1c .cfa: sp 0 +
STACK CFI INIT 6708c c .cfa: sp 0 +
STACK CFI INIT 67098 78 .cfa: sp 0 +
STACK CFI 6709c .cfa: sp 64 +
STACK CFI 670a8 .cfa: x29 32 + x19: .cfa -8 + ^ x20: .cfa -16 + ^ .ra: .cfa -24 + ^ x29: .cfa -32 + ^
STACK CFI 670fc .cfa: sp 64 +
STACK CFI 67108 .cfa: sp 0 +
STACK CFI 6710c .cfa: x29 32 +
STACK CFI INIT 67110 98 .cfa: sp 0 +
STACK CFI 67114 .cfa: sp 64 +
STACK CFI 67124 .cfa: x29 48 + x19: .cfa -8 + ^ x20: .cfa -16 + ^ x21: .cfa -32 + ^ .ra: .cfa -40 + ^ x29: .cfa -48 + ^
STACK CFI 67190 .cfa: sp 64 +
STACK CFI 671a0 .cfa: sp 0 +
STACK CFI 671a4 .cfa: x29 48 +
STACK CFI INIT 6746c 6c .cfa: sp 0 +
STACK CFI 67470 .cfa: sp 32 +
STACK CFI 67478 .cfa: x29 32 + x19: .cfa -16 + ^ .ra: .cfa -24 + ^ x29: .cfa -32 + ^
STACK CFI 674cc .cfa: sp 32 +
STACK CFI 674d4 .cfa: sp 0 +
STACK CFI INIT 674d8 74 .cfa: sp 0 +
STACK CFI 674dc .cfa: sp 32 +
STACK CFI 674e4 .cfa: x29 32 + x19: .cfa -16 + ^ .ra: .cfa -24 + ^ x29: .cfa -32 + ^
STACK CFI 67540 .cfa: sp 32 +
STACK CFI 67548 .cfa: sp 0 +
STACK CFI INIT 6754c 4 .cfa: sp 0 +
STACK CFI INIT 67550 4 .cfa: sp 0 +
STACK CFI INIT 67554 34 .cfa: sp 0 +
STACK CFI 67558 .cfa: sp 32 +
STACK CFI 67560 .cfa: x29 32 + x19: .cfa -16 + ^ .ra: .cfa -24 + ^ x29: .cfa -32 + ^
STACK CFI 6757c .cfa: sp 32 +
STACK CFI 67584 .cfa: sp 0 +
STACK CFI INIT 67588 14 .cfa: sp 0 +
STACK CFI INIT 6759c 4 .cfa: sp 0 +
STACK CFI INIT 675a0 4 .cfa: sp 0 +
STACK CFI INIT 675a4 18 .cfa: sp 0 +
STACK CFI INIT 675bc 1c .cfa: sp 0 +
STACK CFI INIT 675d8 c .cfa: sp 0 +
STACK CFI INIT 675e4 18 .cfa: sp 0 +
STACK CFI 675e8 .cfa: sp 16 +
STACK CFI 675ec .cfa: x29 16 + .ra: .cfa -8 + ^ x29: .cfa -16 + ^
STACK CFI 675f4 .cfa: sp 16 +
STACK CFI 675f8 .cfa: sp 0 +
STACK CFI INIT 675fc 4 .cfa: sp 0 +
STACK CFI INIT 67600 4 .cfa: sp 0 +
STACK CFI INIT 67604 34 .cfa: sp 0 +
STACK CFI 67608 .cfa: sp 32 +
STACK CFI 67610 .cfa: x29 32 + x19: .cfa -16 + ^ .ra: .cfa -24 + ^ x29: .cfa -32 + ^
STACK CFI 6762c .cfa: sp 32 +
STACK CFI 67634 .cfa: sp 0 +
STACK CFI INIT 67638 14 .cfa: sp 0 +
STACK CFI INIT 6764c 4 .cfa: sp 0 +
STACK CFI INIT 67650 4 .cfa: sp 0 +
STACK CFI INIT 67654 18 .cfa: sp 0 +
STACK CFI INIT 6766c 1c .cfa: sp 0 +
STACK CFI INIT 67688 c .cfa: sp 0 +
STACK CFI INIT 67694 98 .cfa: sp 0 +
STACK CFI 67698 .cfa: sp 64 +
STACK CFI 676a8 .cfa: x29 48 + x19: .cfa -8 + ^ x20: .cfa -16 + ^ x21: .cfa -32 + ^ .ra: .cfa -40 + ^ x29: .cfa -48 + ^
STACK CFI 67714 .cfa: sp 64 +
STACK CFI 67724 .cfa: sp 0 +
STACK CFI 67728 .cfa: x29 48 +
STACK CFI INIT 67aa8 6c .cfa: sp 0 +
STACK CFI 67aac .cfa: sp 32 +
STACK CFI 67ab4 .cfa: x29 32 + x19: .cfa -16 + ^ .ra: .cfa -24 + ^ x29: .cfa -32 + ^
STACK CFI 67b08 .cfa: sp 32 +
STACK CFI 67b10 .cfa: sp 0 +
STACK CFI INIT 67b14 74 .cfa: sp 0 +
STACK CFI 67b18 .cfa: sp 32 +
STACK CFI 67b20 .cfa: x29 32 + x19: .cfa -16 + ^ .ra: .cfa -24 + ^ x29: .cfa -32 + ^
STACK CFI 67b7c .cfa: sp 32 +
STACK CFI 67b84 .cfa: sp 0 +
STACK CFI INIT 67b88 4 .cfa: sp 0 +
STACK CFI INIT 67b8c 34 .cfa: sp 0 +
STACK CFI 67b90 .cfa: sp 32 +
STACK CFI 67b98 .cfa: x29 32 + x19: .cfa -16 + ^ .ra: .cfa -24 + ^ x29: .cfa -32 + ^
STACK CFI 67bb4 .cfa: sp 32 +
STACK CFI 67bbc .cfa: sp 0 +
STACK CFI INIT 67bc0 14 .cfa: sp 0 +
STACK CFI INIT 67bd4 4 .cfa: sp 0 +
STACK CFI INIT 67bd8 4 .cfa: sp 0 +
STACK CFI INIT 67bdc 10 .cfa: sp 0 +
STACK CFI INIT 67bec 1c .cfa: sp 0 +
STACK CFI INIT 67c08 c .cfa: sp 0 +
STACK CFI INIT 67c14 9c .cfa: sp 0 +
STACK CFI 67c1c .cfa: sp 48 +
STACK CFI 67c28 .cfa: x29 48 + x19: .cfa -8 + ^ x20: .cfa -16 + ^ x21: .cfa -32 + ^ .ra: .cfa -40 + ^ x29: .cfa -48 + ^
STACK CFI 67c7c .cfa: sp 0 + x19: x19 x20: x20 x21: x21 .ra: x30 x29: x29
STACK CFI 67c80 .cfa: x29 48 + x19: .cfa -8 + ^ x20: .cfa -16 + ^ x21: .cfa -32 + ^ .ra: .cfa -40 + ^ x29: .cfa -48 + ^
STACK CFI 67ca0 .cfa: sp 48 +
STACK CFI 67cac .cfa: sp 0 +
STACK CFI INIT 67cb0 a4 .cfa: sp 0 +
STACK CFI 67cb4 .cfa: sp 48 +
STACK CFI 67cc0 .cfa: x29 48 + x19: .cfa -8 + ^ x20: .cfa -16 + ^ x21: .cfa -32 + ^ .ra: .cfa -40 + ^ x29: .cfa -48 + ^
STACK CFI 67d14 .cfa: sp 48 +
STACK CFI 67d20 .cfa: sp 0 +
STACK CFI 67d24 .cfa: x29 48 +
STACK CFI 67d44 .cfa: sp 48 +
STACK CFI 67d50 .cfa: sp 0 +
STACK CFI INIT 68034 54 .cfa: sp 0 +
STACK CFI 68038 .cfa: sp 32 +
STACK CFI 68040 .cfa: x29 32 + x19: .cfa -8 + ^ x20: .cfa -16 + ^ .ra: .cfa -24 + ^ x29: .cfa -32 + ^
STACK CFI 68070 .cfa: sp 32 +
STACK CFI 68078 .cfa: sp 0 +
STACK CFI 6807c .cfa: sp 32 +
STACK CFI 68084 .cfa: sp 0 +
STACK CFI INIT 68088 4 .cfa: sp 0 +
STACK CFI INIT 6808c 24 .cfa: sp 0 +
STACK CFI 68090 .cfa: sp 16 +
STACK CFI 68094 .cfa: x29 16 + .ra: .cfa -8 + ^ x29: .cfa -16 + ^
STACK CFI 680a8 .cfa: sp 16 +
STACK CFI 680ac .cfa: sp 0 +
STACK CFI INIT 680b0 10 .cfa: sp 0 +
STACK CFI INIT 680c0 4 .cfa: sp 0 +
STACK CFI INIT 680c4 4 .cfa: sp 0 +
STACK CFI INIT 680c8 4 .cfa: sp 0 +
STACK CFI INIT 680cc 1c .cfa: sp 0 +
STACK CFI INIT 680e8 c .cfa: sp 0 +
STACK CFI INIT 680f4 4 .cfa: sp 0 +
STACK CFI INIT 680f8 4 .cfa: sp 0 +
STACK CFI INIT 680fc 38 .cfa: sp 0 +
STACK CFI 68100 .cfa: sp 32 +
STACK CFI 68108 .cfa: x29 32 + x19: .cfa -16 + ^ .ra: .cfa -24 + ^ x29: .cfa -32 + ^
STACK CFI 68128 .cfa: sp 32 +
STACK CFI 68130 .cfa: sp 0 +
STACK CFI INIT 68134 18 .cfa: sp 0 +
STACK CFI INIT 6814c 4 .cfa: sp 0 +
STACK CFI INIT 68150 4 .cfa: sp 0 +
STACK CFI INIT 68154 4 .cfa: sp 0 +
STACK CFI INIT 68158 1c .cfa: sp 0 +
STACK CFI INIT 68174 c .cfa: sp 0 +
STACK CFI INIT 685c8 50 .cfa: sp 0 +
STACK CFI 685cc .cfa: sp 32 +
STACK CFI 685d4 .cfa: x29 32 + x19: .cfa -8 + ^ x20: .cfa -16 + ^ .ra: .cfa -24 + ^ x29: .cfa -32 + ^
STACK CFI 68600 .cfa: sp 32 +
STACK CFI 68608 .cfa: sp 0 +
STACK CFI 6860c .cfa: sp 32 +
STACK CFI 68614 .cfa: sp 0 +
STACK CFI INIT 68618 3c .cfa: sp 0 +
STACK CFI 6861c .cfa: sp 32 +
STACK CFI 68624 .cfa: x29 32 + x19: .cfa -16 + ^ .ra: .cfa -24 + ^ x29: .cfa -32 + ^
STACK CFI 6863c .cfa: sp 32 +
STACK CFI 68644 .cfa: sp 0 +
STACK CFI 68648 .cfa: sp 32 +
STACK CFI 68650 .cfa: sp 0 +
STACK CFI INIT 68654 1c8 .cfa: sp 0 +
STACK CFI 68658 .cfa: sp 80 +
STACK CFI 6866c .cfa: x29 80 + x19: .cfa -8 + ^ x20: .cfa -16 + ^ x21: .cfa -24 + ^ x22: .cfa -32 + ^ x23: .cfa -40 + ^ x24: .cfa -48 + ^ x25: .cfa -64 + ^ .ra: .cfa -72 + ^ x29: .cfa -80 + ^
STACK CFI 687ec .cfa: sp 80 +
STACK CFI 68800 .cfa: sp 0 +
STACK CFI 68804 .cfa: sp 80 +
STACK CFI 68818 .cfa: sp 0 +
STACK CFI INIT 68f2c 88 .cfa: sp 0 +
STACK CFI 68f30 .cfa: sp 32 +
STACK CFI 68f38 .cfa: x29 32 + x19: .cfa -16 + ^ .ra: .cfa -24 + ^ x29: .cfa -32 + ^
STACK CFI 68f68 .cfa: sp 32 +
STACK CFI 68f70 .cfa: sp 0 +
STACK CFI 68f74 .cfa: x29 32 +
STACK CFI 68fa8 .cfa: sp 32 +
STACK CFI 68fb0 .cfa: sp 0 +
STACK CFI INIT 68fb4 94 .cfa: sp 0 +
STACK CFI 68fb8 .cfa: sp 32 +
STACK CFI 68fc0 .cfa: x29 32 + x19: .cfa -16 + ^ .ra: .cfa -24 + ^ x29: .cfa -32 + ^
STACK CFI 68ff4 .cfa: sp 32 +
STACK CFI 68ffc .cfa: sp 0 +
STACK CFI 69000 .cfa: x29 32 +
STACK CFI 6903c .cfa: sp 32 +
STACK CFI 69044 .cfa: sp 0 +
STACK CFI INIT 69198 7c .cfa: sp 0 +
STACK CFI 6919c .cfa: sp 32 +
STACK CFI 691a4 .cfa: x29 32 + x19: .cfa -16 + ^ .ra: .cfa -24 + ^ x29: .cfa -32 + ^
STACK CFI 691c8 .cfa: sp 32 +
STACK CFI 691d0 .cfa: sp 0 +
STACK CFI 691d4 .cfa: x29 32 +
STACK CFI 69208 .cfa: sp 32 +
STACK CFI 69210 .cfa: sp 0 +
STACK CFI INIT 69214 88 .cfa: sp 0 +
STACK CFI 69218 .cfa: sp 32 +
STACK CFI 69220 .cfa: x29 32 + x19: .cfa -16 + ^ .ra: .cfa -24 + ^ x29: .cfa -32 + ^
STACK CFI 69248 .cfa: sp 32 +
STACK CFI 69250 .cfa: sp 0 +
STACK CFI 69254 .cfa: x29 32 +
STACK CFI 69290 .cfa: sp 32 +
STACK CFI 69298 .cfa: sp 0 +
STACK CFI INIT 6aa28 1c .cfa: sp 0 +
STACK CFI INIT 6aa44 c .cfa: sp 0 +
STACK CFI INIT 6b900 1a4 .cfa: sp 0 +
STACK CFI 6b904 .cfa: sp 64 +
STACK CFI 6b910 .cfa: x29 32 + x19: .cfa -8 + ^ x20: .cfa -16 + ^ .ra: .cfa -24 + ^ x29: .cfa -32 + ^
STACK CFI 6ba3c .cfa: sp 64 +
STACK CFI 6ba48 .cfa: sp 0 +
STACK CFI 6ba4c .cfa: x29 32 +
STACK CFI INIT 6baa4 198 .cfa: sp 0 +
STACK CFI 6baa8 .cfa: sp 16 +
STACK CFI 6baac .cfa: x29 16 + .ra: .cfa -8 + ^ x29: .cfa -16 + ^
STACK CFI 6bb48 .cfa: sp 16 +
STACK CFI 6bb4c .cfa: sp 0 +
STACK CFI 6bb50 .cfa: x29 16 +
STACK CFI 6bc1c .cfa: sp 16 +
STACK CFI 6bc20 .cfa: sp 0 +
STACK CFI 6bc24 .cfa: x29 16 +
STACK CFI INIT 6bc3c 114 .cfa: sp 0 +
STACK CFI 6bc40 .cfa: sp 128 +
STACK CFI 6bc50 .cfa: x29 48 + x19: .cfa -8 + ^ x20: .cfa -16 + ^ x21: .cfa -32 + ^ .ra: .cfa -40 + ^ x29: .cfa -48 + ^
STACK CFI 6bd1c .cfa: sp 128 +
STACK CFI 6bd2c .cfa: sp 0 +
STACK CFI 6bd30 .cfa: x29 48 +
STACK CFI INIT 6bd50 27c .cfa: sp 0 +
STACK CFI 6bd54 .cfa: sp 176 +
STACK CFI 6bd70 .cfa: x29 96 + x19: .cfa -8 + ^ x20: .cfa -16 + ^ x21: .cfa -24 + ^ x22: .cfa -32 + ^ x23: .cfa -40 + ^ x24: .cfa -48 + ^ x25: .cfa -56 + ^ x26: .cfa -64 + ^ x27: .cfa -72 + ^ x28: .cfa -80 + ^ .ra: .cfa -88 + ^ x29: .cfa -96 + ^
STACK CFI 6bfa8 .cfa: sp 176 +
STACK CFI 6bfc4 .cfa: sp 0 +
STACK CFI 6bfc8 .cfa: x29 96 +
STACK CFI INIT 6bfcc 94 .cfa: sp 0 +
STACK CFI 6bfd0 .cfa: sp 16 +
STACK CFI 6bfd4 .cfa: x29 16 + .ra: .cfa -8 + ^ x29: .cfa -16 + ^
STACK CFI 6c028 .cfa: sp 16 +
STACK CFI 6c02c .cfa: sp 0 +
STACK CFI 6c030 .cfa: x29 16 +
STACK CFI INIT 6c060 134 .cfa: sp 0 +
STACK CFI 6c064 .cfa: sp 96 +
STACK CFI 6c07c .cfa: x29 96 + x19: .cfa -8 + ^ x20: .cfa -16 + ^ x21: .cfa -24 + ^ x22: .cfa -32 + ^ x23: .cfa -40 + ^ x24: .cfa -48 + ^ x25: .cfa -56 + ^ x26: .cfa -64 + ^ x27: .cfa -72 + ^ x28: .cfa -80 + ^ .ra: .cfa -88 + ^ x29: .cfa -96 + ^
STACK CFI 6c14c .cfa: sp 96 +
STACK CFI 6c150 .cfa: x29 96 +
STACK CFI 6c154 .cfa: sp 96 +
STACK CFI 6c16c .cfa: sp 0 +
STACK CFI 6c170 .cfa: x29 96 +
STACK CFI 6c190 .cfa: sp 96 +
STACK CFI INIT 6c194 4e4 .cfa: sp 0 +
STACK CFI 6c198 .cfa: sp 160 +
STACK CFI 6c1b4 .cfa: x29 96 + x19: .cfa -8 + ^ x20: .cfa -16 + ^ x21: .cfa -24 + ^ x22: .cfa -32 + ^ x23: .cfa -40 + ^ x24: .cfa -48 + ^ x25: .cfa -56 + ^ x26: .cfa -64 + ^ x27: .cfa -72 + ^ x28: .cfa -80 + ^ .ra: .cfa -88 + ^ x29: .cfa -96 + ^
STACK CFI 6c654 .cfa: sp 160 +
STACK CFI 6c670 .cfa: sp 0 +
STACK CFI 6c674 .cfa: x29 96 +
STACK CFI INIT 6c678 20c .cfa: sp 0 +
STACK CFI 6c67c .cfa: sp 80 +
STACK CFI 6c690 .cfa: x29 80 + x19: .cfa -8 + ^ x20: .cfa -16 + ^ x21: .cfa -24 + ^ x22: .cfa -32 + ^ x23: .cfa -40 + ^ x24: .cfa -48 + ^ x25: .cfa -64 + ^ .ra: .cfa -72 + ^ x29: .cfa -80 + ^
STACK CFI 6c720 .cfa: sp 80 +
STACK CFI 6c734 .cfa: sp 0 +
STACK CFI 6c738 .cfa: x29 80 +
STACK CFI 6c744 .cfa: sp 80 +
STACK CFI 6c758 .cfa: sp 0 +
STACK CFI 6c75c .cfa: x29 80 +
STACK CFI INIT 6c884 3f4 .cfa: sp 0 +
STACK CFI 6c888 .cfa: sp 128 +
STACK CFI 6c8a4 .cfa: x29 96 + x19: .cfa -8 + ^ x20: .cfa -16 + ^ x21: .cfa -24 + ^ x22: .cfa -32 + ^ x23: .cfa -40 + ^ x24: .cfa -48 + ^ x25: .cfa -56 + ^ x26: .cfa -64 + ^ x27: .cfa -72 + ^ x28: .cfa -80 + ^ .ra: .cfa -88 + ^ x29: .cfa -96 + ^
STACK CFI 6cc54 .cfa: sp 128 +
STACK CFI 6cc70 .cfa: sp 0 +
STACK CFI 6cc74 .cfa: x29 96 +
STACK CFI INIT 6cc78 194 .cfa: sp 0 +
STACK CFI 6cc7c .cfa: sp 32 +
STACK CFI 6cc84 .cfa: x29 16 + .ra: .cfa -8 + ^ x29: .cfa -16 + ^
STACK CFI 6ccc8 .cfa: sp 32 +
STACK CFI 6ccd0 .cfa: sp 0 +
STACK CFI 6ccd4 .cfa: x29 16 +
STACK CFI INIT 6ce0c 1b8 .cfa: sp 0 +
STACK CFI INIT 6cfc4 1d0 .cfa: sp 0 +
STACK CFI 6cfc8 .cfa: sp 80 +
STACK CFI 6cfdc .cfa: x29 80 + x19: .cfa -8 + ^ x20: .cfa -16 + ^ x21: .cfa -24 + ^ x22: .cfa -32 + ^ x23: .cfa -40 + ^ x24: .cfa -48 + ^ x25: .cfa -64 + ^ .ra: .cfa -72 + ^ x29: .cfa -80 + ^
STACK CFI 6d17c .cfa: sp 80 +
STACK CFI 6d190 .cfa: sp 0 +
STACK CFI INIT 6d194 648 .cfa: sp 0 +
STACK CFI 6d198 .cfa: sp 160 +
STACK CFI 6d1b4 .cfa: x29 96 + x19: .cfa -8 + ^ x20: .cfa -16 + ^ x21: .cfa -24 + ^ x22: .cfa -32 + ^ x23: .cfa -40 + ^ x24: .cfa -48 + ^ x25: .cfa -56 + ^ x26: .cfa -64 + ^ x27: .cfa -72 + ^ x28: .cfa -80 + ^ .ra: .cfa -88 + ^ x29: .cfa -96 + ^
STACK CFI 6d7b8 .cfa: sp 160 +
STACK CFI 6d7d4 .cfa: sp 0 +
STACK CFI 6d7d8 .cfa: x29 96 +
STACK CFI INIT 6d7dc 1e4 .cfa: sp 0 +
STACK CFI 6d7e0 .cfa: sp 32 +
STACK CFI 6d7e8 .cfa: x29 32 + x19: .cfa -8 + ^ x20: .cfa -16 + ^ .ra: .cfa -24 + ^ x29: .cfa -32 + ^
STACK CFI 6d8d8 .cfa: sp 32 +
STACK CFI 6d8e0 .cfa: sp 0 +
STACK CFI 6d8e4 .cfa: x29 32 +
STACK CFI 6d958 .cfa: sp 32 +
STACK CFI 6d960 .cfa: sp 0 +
STACK CFI 6d964 .cfa: x29 32 +
STACK CFI 6d974 .cfa: sp 32 +
STACK CFI 6d97c .cfa: sp 0 +
STACK CFI 6d980 .cfa: x29 32 +
STACK CFI 6d990 .cfa: sp 32 +
STACK CFI 6d998 .cfa: sp 0 +
STACK CFI 6d99c .cfa: x29 32 +
STACK CFI INIT 6d9c0 178 .cfa: sp 0 +
STACK CFI 6d9c4 .cfa: sp 80 +
STACK CFI 6d9d8 .cfa: x29 64 + x19: .cfa -8 + ^ x20: .cfa -16 + ^ x21: .cfa -24 + ^ x22: .cfa -32 + ^ x23: .cfa -40 + ^ x24: .cfa -48 + ^ .ra: .cfa -56 + ^ x29: .cfa -64 + ^
STACK CFI 6db1c .cfa: sp 80 +
STACK CFI 6db30 .cfa: sp 0 +
STACK CFI 6db34 .cfa: x29 64 +
STACK CFI INIT 6db38 178 .cfa: sp 0 +
STACK CFI 6db3c .cfa: sp 80 +
STACK CFI 6db50 .cfa: x29 64 + x19: .cfa -8 + ^ x20: .cfa -16 + ^ x21: .cfa -24 + ^ x22: .cfa -32 + ^ x23: .cfa -40 + ^ x24: .cfa -48 + ^ .ra: .cfa -56 + ^ x29: .cfa -64 + ^
STACK CFI 6dc94 .cfa: sp 80 +
STACK CFI 6dca8 .cfa: sp 0 +
STACK CFI 6dcac .cfa: x29 64 +
STACK CFI INIT 6dcb0 178 .cfa: sp 0 +
STACK CFI 6dcb4 .cfa: sp 80 +
STACK CFI 6dcc8 .cfa: x29 64 + x19: .cfa -8 + ^ x20: .cfa -16 + ^ x21: .cfa -24 + ^ x22: .cfa -32 + ^ x23: .cfa -40 + ^ x24: .cfa -48 + ^ .ra: .cfa -56 + ^ x29: .cfa -64 + ^
STACK CFI 6de0c .cfa: sp 80 +
STACK CFI 6de20 .cfa: sp 0 +
STACK CFI 6de24 .cfa: x29 64 +
STACK CFI INIT 6de28 78 .cfa: sp 0 +
STACK CFI 6de2c .cfa: sp 48 +
STACK CFI 6de38 .cfa: x29 48 + x19: .cfa -8 + ^ x20: .cfa -16 + ^ x21: .cfa -24 + ^ x22: .cfa -32 + ^ .ra: .cfa -40 + ^ x29: .cfa -48 + ^
STACK CFI 6de80 .cfa: sp 48 +
STACK CFI 6de8c .cfa: sp 0 +
STACK CFI 6de90 .cfa: sp 48 +
STACK CFI 6de9c .cfa: sp 0 +
STACK CFI INIT 6dea0 178 .cfa: sp 0 +
STACK CFI 6dea4 .cfa: sp 80 +
STACK CFI 6deb8 .cfa: x29 64 + x19: .cfa -8 + ^ x20: .cfa -16 + ^ x21: .cfa -24 + ^ x22: .cfa -32 + ^ x23: .cfa -40 + ^ x24: .cfa -48 + ^ .ra: .cfa -56 + ^ x29: .cfa -64 + ^
STACK CFI 6dffc .cfa: sp 80 +
STACK CFI 6e010 .cfa: sp 0 +
STACK CFI 6e014 .cfa: x29 64 +
STACK CFI INIT 6e018 150 .cfa: sp 0 +
STACK CFI 6e01c .cfa: sp 80 +
STACK CFI 6e030 .cfa: x29 80 + x19: .cfa -8 + ^ x20: .cfa -16 + ^ x21: .cfa -24 + ^ x22: .cfa -32 + ^ x23: .cfa -40 + ^ x24: .cfa -48 + ^ x25: .cfa -64 + ^ .ra: .cfa -72 + ^ x29: .cfa -80 + ^
STACK CFI 6e148 .cfa: sp 80 +
STACK CFI 6e15c .cfa: sp 0 +
STACK CFI 6e160 .cfa: x29 80 +
STACK CFI INIT 6e168 14 .cfa: sp 0 +
STACK CFI 6e16c .cfa: sp 16 +
STACK CFI 6e170 .cfa: x29 16 + .ra: .cfa -8 + ^ x29: .cfa -16 + ^
STACK CFI INIT 6e17c 24c .cfa: sp 0 +
STACK CFI 6e180 .cfa: sp 80 +
STACK CFI 6e194 .cfa: x29 80 + x19: .cfa -8 + ^ x20: .cfa -16 + ^ x21: .cfa -24 + ^ x22: .cfa -32 + ^ x23: .cfa -40 + ^ x24: .cfa -48 + ^ x25: .cfa -64 + ^ .ra: .cfa -72 + ^ x29: .cfa -80 + ^
STACK CFI 6e3a8 .cfa: sp 80 +
STACK CFI 6e3bc .cfa: sp 0 +
STACK CFI 6e3c0 .cfa: x29 80 +
STACK CFI INIT 6e3c8 14 .cfa: sp 0 +
STACK CFI 6e3cc .cfa: sp 16 +
STACK CFI 6e3d0 .cfa: x29 16 + .ra: .cfa -8 + ^ x29: .cfa -16 + ^
STACK CFI INIT 6e3dc 88 .cfa: sp 0 +
STACK CFI 6e3e0 .cfa: sp 32 +
STACK CFI 6e3e8 .cfa: x29 32 + x19: .cfa -16 + ^ .ra: .cfa -24 + ^ x29: .cfa -32 + ^
STACK CFI 6e418 .cfa: sp 32 +
STACK CFI 6e420 .cfa: sp 0 +
STACK CFI 6e424 .cfa: x29 32 +
STACK CFI 6e458 .cfa: sp 32 +
STACK CFI 6e460 .cfa: sp 0 +
STACK CFI INIT 6e464 94 .cfa: sp 0 +
STACK CFI 6e468 .cfa: sp 32 +
STACK CFI 6e470 .cfa: x29 32 + x19: .cfa -16 + ^ .ra: .cfa -24 + ^ x29: .cfa -32 + ^
STACK CFI 6e4a4 .cfa: sp 32 +
STACK CFI 6e4ac .cfa: sp 0 +
STACK CFI 6e4b0 .cfa: x29 32 +
STACK CFI 6e4ec .cfa: sp 32 +
STACK CFI 6e4f4 .cfa: sp 0 +
STACK CFI INIT 6e648 7c .cfa: sp 0 +
STACK CFI 6e64c .cfa: sp 32 +
STACK CFI 6e654 .cfa: x29 32 + x19: .cfa -16 + ^ .ra: .cfa -24 + ^ x29: .cfa -32 + ^
STACK CFI 6e678 .cfa: sp 32 +
STACK CFI 6e680 .cfa: sp 0 +
STACK CFI 6e684 .cfa: x29 32 +
STACK CFI 6e6b8 .cfa: sp 32 +
STACK CFI 6e6c0 .cfa: sp 0 +
STACK CFI INIT 6e6c4 88 .cfa: sp 0 +
STACK CFI 6e6c8 .cfa: sp 32 +
STACK CFI 6e6d0 .cfa: x29 32 + x19: .cfa -16 + ^ .ra: .cfa -24 + ^ x29: .cfa -32 + ^
STACK CFI 6e6f8 .cfa: sp 32 +
STACK CFI 6e700 .cfa: sp 0 +
STACK CFI 6e704 .cfa: x29 32 +
STACK CFI 6e740 .cfa: sp 32 +
STACK CFI 6e748 .cfa: sp 0 +
STACK CFI INIT 70460 1c .cfa: sp 0 +
STACK CFI INIT 7047c c .cfa: sp 0 +
STACK CFI INIT 70488 88 .cfa: sp 0 +
STACK CFI 7048c .cfa: sp 32 +
STACK CFI 70494 .cfa: x29 32 + x19: .cfa -16 + ^ .ra: .cfa -24 + ^ x29: .cfa -32 + ^
STACK CFI 704c4 .cfa: sp 32 +
STACK CFI 704cc .cfa: sp 0 +
STACK CFI 704d0 .cfa: x29 32 +
STACK CFI 70504 .cfa: sp 32 +
STACK CFI 7050c .cfa: sp 0 +
STACK CFI INIT 70510 94 .cfa: sp 0 +
STACK CFI 70514 .cfa: sp 32 +
STACK CFI 7051c .cfa: x29 32 + x19: .cfa -16 + ^ .ra: .cfa -24 + ^ x29: .cfa -32 + ^
STACK CFI 70550 .cfa: sp 32 +
STACK CFI 70558 .cfa: sp 0 +
STACK CFI 7055c .cfa: x29 32 +
STACK CFI 70598 .cfa: sp 32 +
STACK CFI 705a0 .cfa: sp 0 +
STACK CFI INIT 706f8 7c .cfa: sp 0 +
STACK CFI 706fc .cfa: sp 32 +
STACK CFI 70704 .cfa: x29 32 + x19: .cfa -16 + ^ .ra: .cfa -24 + ^ x29: .cfa -32 + ^
STACK CFI 70728 .cfa: sp 32 +
STACK CFI 70730 .cfa: sp 0 +
STACK CFI 70734 .cfa: x29 32 +
STACK CFI 70768 .cfa: sp 32 +
STACK CFI 70770 .cfa: sp 0 +
STACK CFI INIT 70774 88 .cfa: sp 0 +
STACK CFI 70778 .cfa: sp 32 +
STACK CFI 70780 .cfa: x29 32 + x19: .cfa -16 + ^ .ra: .cfa -24 + ^ x29: .cfa -32 + ^
STACK CFI 707a8 .cfa: sp 32 +
STACK CFI 707b0 .cfa: sp 0 +
STACK CFI 707b4 .cfa: x29 32 +
STACK CFI 707f0 .cfa: sp 32 +
STACK CFI 707f8 .cfa: sp 0 +
STACK CFI INIT 71db4 1c .cfa: sp 0 +
STACK CFI INIT 71dd0 c .cfa: sp 0 +
STACK CFI INIT 71ddc 10c .cfa: sp 0 +
STACK CFI 71de0 .cfa: sp 48 +
STACK CFI 71dec .cfa: x29 48 + x19: .cfa -8 + ^ x20: .cfa -16 + ^ x21: .cfa -32 + ^ .ra: .cfa -40 + ^ x29: .cfa -48 + ^
STACK CFI 71ed8 .cfa: sp 48 +
STACK CFI 71ee4 .cfa: sp 0 +
STACK CFI INIT 71ee8 88 .cfa: sp 0 +
STACK CFI 71eec .cfa: sp 32 +
STACK CFI 71ef4 .cfa: x29 32 + x19: .cfa -16 + ^ .ra: .cfa -24 + ^ x29: .cfa -32 + ^
STACK CFI 71f24 .cfa: sp 32 +
STACK CFI 71f2c .cfa: sp 0 +
STACK CFI 71f30 .cfa: x29 32 +
STACK CFI 71f64 .cfa: sp 32 +
STACK CFI 71f6c .cfa: sp 0 +
STACK CFI INIT 71f70 94 .cfa: sp 0 +
STACK CFI 71f74 .cfa: sp 32 +
STACK CFI 71f7c .cfa: x29 32 + x19: .cfa -16 + ^ .ra: .cfa -24 + ^ x29: .cfa -32 + ^
STACK CFI 71fb0 .cfa: sp 32 +
STACK CFI 71fb8 .cfa: sp 0 +
STACK CFI 71fbc .cfa: x29 32 +
STACK CFI 71ff8 .cfa: sp 32 +
STACK CFI 72000 .cfa: sp 0 +
STACK CFI INIT 72144 7c .cfa: sp 0 +
STACK CFI 72148 .cfa: sp 32 +
STACK CFI 72150 .cfa: x29 32 + x19: .cfa -16 + ^ .ra: .cfa -24 + ^ x29: .cfa -32 + ^
STACK CFI 72174 .cfa: sp 32 +
STACK CFI 7217c .cfa: sp 0 +
STACK CFI 72180 .cfa: x29 32 +
STACK CFI 721b4 .cfa: sp 32 +
STACK CFI 721bc .cfa: sp 0 +
STACK CFI INIT 721c0 88 .cfa: sp 0 +
STACK CFI 721c4 .cfa: sp 32 +
STACK CFI 721cc .cfa: x29 32 + x19: .cfa -16 + ^ .ra: .cfa -24 + ^ x29: .cfa -32 + ^
STACK CFI 721f4 .cfa: sp 32 +
STACK CFI 721fc .cfa: sp 0 +
STACK CFI 72200 .cfa: x29 32 +
STACK CFI 7223c .cfa: sp 32 +
STACK CFI 72244 .cfa: sp 0 +
STACK CFI INIT 7348c 1c .cfa: sp 0 +
STACK CFI INIT 734a8 c .cfa: sp 0 +
STACK CFI INIT 7359c 8 .cfa: sp 0 +
STACK CFI INIT 735a4 14 .cfa: sp 0 +
STACK CFI INIT 735b8 4 .cfa: sp 0 +
STACK CFI INIT 735bc 14 .cfa: sp 0 +
STACK CFI INIT 735d0 88 .cfa: sp 0 +
STACK CFI 735d4 .cfa: sp 32 +
STACK CFI 735dc .cfa: x29 32 + x19: .cfa -16 + ^ .ra: .cfa -24 + ^ x29: .cfa -32 + ^
STACK CFI 7360c .cfa: sp 32 +
STACK CFI 73614 .cfa: sp 0 +
STACK CFI 73618 .cfa: x29 32 +
STACK CFI 7364c .cfa: sp 32 +
STACK CFI 73654 .cfa: sp 0 +
STACK CFI INIT 73658 94 .cfa: sp 0 +
STACK CFI 7365c .cfa: sp 32 +
STACK CFI 73664 .cfa: x29 32 + x19: .cfa -16 + ^ .ra: .cfa -24 + ^ x29: .cfa -32 + ^
STACK CFI 73698 .cfa: sp 32 +
STACK CFI 736a0 .cfa: sp 0 +
STACK CFI 736a4 .cfa: x29 32 +
STACK CFI 736e0 .cfa: sp 32 +
STACK CFI 736e8 .cfa: sp 0 +
STACK CFI INIT 7382c 7c .cfa: sp 0 +
STACK CFI 73830 .cfa: sp 32 +
STACK CFI 73838 .cfa: x29 32 + x19: .cfa -16 + ^ .ra: .cfa -24 + ^ x29: .cfa -32 + ^
STACK CFI 7385c .cfa: sp 32 +
STACK CFI 73864 .cfa: sp 0 +
STACK CFI 73868 .cfa: x29 32 +
STACK CFI 7389c .cfa: sp 32 +
STACK CFI 738a4 .cfa: sp 0 +
STACK CFI INIT 738a8 88 .cfa: sp 0 +
STACK CFI 738ac .cfa: sp 32 +
STACK CFI 738b4 .cfa: x29 32 + x19: .cfa -16 + ^ .ra: .cfa -24 + ^ x29: .cfa -32 + ^
STACK CFI 738dc .cfa: sp 32 +
STACK CFI 738e4 .cfa: sp 0 +
STACK CFI 738e8 .cfa: x29 32 +
STACK CFI 73924 .cfa: sp 32 +
STACK CFI 7392c .cfa: sp 0 +
STACK CFI INIT 748ac 1c .cfa: sp 0 +
STACK CFI INIT 748c8 c .cfa: sp 0 +
STACK CFI INIT 748d4 4 .cfa: sp 0 +
STACK CFI INIT 748d8 4 .cfa: sp 0 +
STACK CFI INIT 748dc 38 .cfa: sp 0 +
STACK CFI 748e0 .cfa: sp 32 +
STACK CFI 748e8 .cfa: x29 32 + x19: .cfa -16 + ^ .ra: .cfa -24 + ^ x29: .cfa -32 + ^
STACK CFI 74908 .cfa: sp 32 +
STACK CFI 74910 .cfa: sp 0 +
STACK CFI INIT 74914 18 .cfa: sp 0 +
STACK CFI INIT 7492c 4 .cfa: sp 0 +
STACK CFI INIT 74930 4 .cfa: sp 0 +
STACK CFI INIT 749ec 1c .cfa: sp 0 +
STACK CFI INIT 74a08 c .cfa: sp 0 +
STACK CFI INIT 75b4c 3c .cfa: sp 0 +
STACK CFI 75b50 .cfa: sp 32 +
STACK CFI 75b58 .cfa: x29 32 + x19: .cfa -16 + ^ .ra: .cfa -24 + ^ x29: .cfa -32 + ^
STACK CFI 75b64 .cfa: sp 32 +
STACK CFI 75b6c .cfa: sp 0 +
STACK CFI 75b70 .cfa: x29 32 +
STACK CFI 75b7c .cfa: sp 32 +
STACK CFI 75b84 .cfa: sp 0 +
STACK CFI INIT 75b88 3c .cfa: sp 0 +
STACK CFI 75b8c .cfa: sp 32 +
STACK CFI 75b94 .cfa: x29 32 + x19: .cfa -16 + ^ .ra: .cfa -24 + ^ x29: .cfa -32 + ^
STACK CFI 75ba0 .cfa: sp 32 +
STACK CFI 75ba8 .cfa: sp 0 +
STACK CFI 75bac .cfa: x29 32 +
STACK CFI 75bb8 .cfa: sp 32 +
STACK CFI 75bc0 .cfa: sp 0 +
STACK CFI INIT 75bc4 4c .cfa: sp 0 +
STACK CFI 75bc8 .cfa: sp 32 +
STACK CFI 75bd0 .cfa: x29 32 + x19: .cfa -8 + ^ x20: .cfa -16 + ^ .ra: .cfa -24 + ^ x29: .cfa -32 + ^
STACK CFI 75bf8 .cfa: sp 32 +
STACK CFI 75c00 .cfa: sp 0 +
STACK CFI 75c04 .cfa: sp 32 +
STACK CFI 75c0c .cfa: sp 0 +
STACK CFI INIT 75e30 64 .cfa: sp 0 +
STACK CFI 75e34 .cfa: sp 32 +
STACK CFI 75e3c .cfa: x29 32 + x19: .cfa -16 + ^ .ra: .cfa -24 + ^ x29: .cfa -32 + ^
STACK CFI 75e68 .cfa: sp 32 +
STACK CFI 75e70 .cfa: sp 0 +
STACK CFI 75e74 .cfa: x29 32 +
STACK CFI 75e88 .cfa: sp 32 +
STACK CFI 75e90 .cfa: sp 0 +
STACK CFI INIT 760b8 24 .cfa: sp 0 +
STACK CFI 760bc .cfa: sp 32 +
STACK CFI 760c4 .cfa: x29 32 + x19: .cfa -16 + ^ .ra: .cfa -24 + ^ x29: .cfa -32 + ^
STACK CFI 760d0 .cfa: sp 32 +
STACK CFI 760d8 .cfa: sp 0 +
STACK CFI INIT 760dc 24 .cfa: sp 0 +
STACK CFI 760e0 .cfa: sp 32 +
STACK CFI 760e8 .cfa: x29 32 + x19: .cfa -16 + ^ .ra: .cfa -24 + ^ x29: .cfa -32 + ^
STACK CFI 760f4 .cfa: sp 32 +
STACK CFI 760fc .cfa: sp 0 +
STACK CFI INIT 76384 8 .cfa: sp 0 +
STACK CFI INIT 7638c 24 .cfa: sp 0 +
STACK CFI 76390 .cfa: sp 32 +
STACK CFI 76398 .cfa: x29 32 + x19: .cfa -16 + ^ .ra: .cfa -24 + ^ x29: .cfa -32 + ^
STACK CFI 763a4 .cfa: sp 32 +
STACK CFI 763ac .cfa: sp 0 +
STACK CFI INIT 763b0 28 .cfa: sp 0 +
STACK CFI 763b4 .cfa: sp 32 +
STACK CFI 763bc .cfa: x29 32 + x19: .cfa -16 + ^ .ra: .cfa -24 + ^ x29: .cfa -32 + ^
STACK CFI 763cc .cfa: sp 32 +
STACK CFI 763d4 .cfa: sp 0 +
STACK CFI INIT 766d8 8 .cfa: sp 0 +
STACK CFI INIT 766e0 24 .cfa: sp 0 +
STACK CFI 766e4 .cfa: sp 32 +
STACK CFI 766ec .cfa: x29 32 + x19: .cfa -16 + ^ .ra: .cfa -24 + ^ x29: .cfa -32 + ^
STACK CFI 766f8 .cfa: sp 32 +
STACK CFI 76700 .cfa: sp 0 +
STACK CFI INIT 76704 28 .cfa: sp 0 +
STACK CFI 76708 .cfa: sp 32 +
STACK CFI 76710 .cfa: x29 32 + x19: .cfa -16 + ^ .ra: .cfa -24 + ^ x29: .cfa -32 + ^
STACK CFI 76720 .cfa: sp 32 +
STACK CFI 76728 .cfa: sp 0 +
STACK CFI INIT 76990 8 .cfa: sp 0 +
STACK CFI INIT 76998 24 .cfa: sp 0 +
STACK CFI 7699c .cfa: sp 32 +
STACK CFI 769a4 .cfa: x29 32 + x19: .cfa -16 + ^ .ra: .cfa -24 + ^ x29: .cfa -32 + ^
STACK CFI 769b0 .cfa: sp 32 +
STACK CFI 769b8 .cfa: sp 0 +
STACK CFI INIT 769bc 28 .cfa: sp 0 +
STACK CFI 769c0 .cfa: sp 32 +
STACK CFI 769c8 .cfa: x29 32 + x19: .cfa -16 + ^ .ra: .cfa -24 + ^ x29: .cfa -32 + ^
STACK CFI 769d8 .cfa: sp 32 +
STACK CFI 769e0 .cfa: sp 0 +
STACK CFI INIT 76c54 24 .cfa: sp 0 +
STACK CFI 76c58 .cfa: sp 32 +
STACK CFI 76c60 .cfa: x29 32 + x19: .cfa -16 + ^ .ra: .cfa -24 + ^ x29: .cfa -32 + ^
STACK CFI 76c6c .cfa: sp 32 +
STACK CFI 76c74 .cfa: sp 0 +
STACK CFI INIT 77330 24 .cfa: sp 0 +
STACK CFI 77334 .cfa: sp 32 +
STACK CFI 7733c .cfa: x29 32 + x19: .cfa -16 + ^ .ra: .cfa -24 + ^ x29: .cfa -32 + ^
STACK CFI 77348 .cfa: sp 32 +
STACK CFI 77350 .cfa: sp 0 +
STACK CFI INIT 77878 24 .cfa: sp 0 +
STACK CFI 7787c .cfa: sp 32 +
STACK CFI 77884 .cfa: x29 32 + x19: .cfa -16 + ^ .ra: .cfa -24 + ^ x29: .cfa -32 + ^
STACK CFI 77890 .cfa: sp 32 +
STACK CFI 77898 .cfa: sp 0 +
STACK CFI INIT 77f88 24 .cfa: sp 0 +
STACK CFI 77f8c .cfa: sp 32 +
STACK CFI 77f94 .cfa: x29 32 + x19: .cfa -16 + ^ .ra: .cfa -24 + ^ x29: .cfa -32 + ^
STACK CFI 77fa0 .cfa: sp 32 +
STACK CFI 77fa8 .cfa: sp 0 +
STACK CFI INIT 78394 9c .cfa: sp 0 +
STACK CFI 78398 .cfa: sp 32 +
STACK CFI 783a0 .cfa: x29 32 + x19: .cfa -16 + ^ .ra: .cfa -24 + ^ x29: .cfa -32 + ^
STACK CFI 78424 .cfa: sp 32 +
STACK CFI 7842c .cfa: sp 0 +
STACK CFI INIT 78430 8 .cfa: sp 0 +
STACK CFI INIT 78438 24 .cfa: sp 0 +
STACK CFI 7843c .cfa: sp 32 +
STACK CFI 78444 .cfa: x29 32 + x19: .cfa -16 + ^ .ra: .cfa -24 + ^ x29: .cfa -32 + ^
STACK CFI 78450 .cfa: sp 32 +
STACK CFI 78458 .cfa: sp 0 +
STACK CFI INIT 7845c 28 .cfa: sp 0 +
STACK CFI 78460 .cfa: sp 32 +
STACK CFI 78468 .cfa: x29 32 + x19: .cfa -16 + ^ .ra: .cfa -24 + ^ x29: .cfa -32 + ^
STACK CFI 78478 .cfa: sp 32 +
STACK CFI 78480 .cfa: sp 0 +
STACK CFI INIT 7869c 14 .cfa: sp 0 +
STACK CFI INIT 786b0 c4 .cfa: sp 0 +
STACK CFI 786b4 .cfa: sp 80 +
STACK CFI 786c8 .cfa: x29 40 + x19: .cfa -8 + ^ x20: .cfa -16 + ^ x21: .cfa -24 + ^ .ra: .cfa -32 + ^ x29: .cfa -40 + ^ v8: .cfa -48 + ^
STACK CFI 78758 .cfa: sp 80 +
STACK CFI 7876c .cfa: sp 0 +
STACK CFI 78770 .cfa: x29 40 +
STACK CFI INIT 78774 8 .cfa: sp 0 +
STACK CFI INIT 79048 4 .cfa: sp 0 +
STACK CFI INIT 7aae0 4 .cfa: sp 0 +
STACK CFI INIT 7aae4 14 .cfa: sp 0 +
STACK CFI INIT 7b004 c .cfa: sp 0 +
STACK CFI INIT 7b010 24c .cfa: sp 0 +
STACK CFI INIT 7b25c a0 .cfa: sp 0 +
STACK CFI 7b268 .cfa: sp 32 +
STACK CFI 7b2c0 .cfa: sp 0 +
STACK CFI 7b2c4 .cfa: sp 32 +
STACK CFI 7b2cc .cfa: sp 0 +
STACK CFI 7b2d0 .cfa: sp 32 +
STACK CFI 7b2e4 .cfa: sp 0 +
STACK CFI 7b2e8 .cfa: sp 32 +
STACK CFI 7b2f8 .cfa: sp 0 +
STACK CFI INIT 7b2fc 38 .cfa: sp 0 +
STACK CFI 7b308 .cfa: sp 32 +
STACK CFI 7b330 .cfa: sp 0 +
STACK CFI INIT 7b5c8 7c .cfa: sp 0 +
STACK CFI 7b5cc .cfa: sp 32 +
STACK CFI 7b5d4 .cfa: x29 32 + x19: .cfa -16 + ^ .ra: .cfa -24 + ^ x29: .cfa -32 + ^
STACK CFI 7b600 .cfa: sp 32 +
STACK CFI 7b608 .cfa: sp 0 +
STACK CFI 7b60c .cfa: x29 32 +
STACK CFI 7b638 .cfa: sp 32 +
STACK CFI 7b640 .cfa: sp 0 +
STACK CFI INIT 7b694 2c .cfa: sp 0 +
STACK CFI 7b698 .cfa: sp 32 +
STACK CFI 7b6a0 .cfa: x29 32 + x19: .cfa -16 + ^ .ra: .cfa -24 + ^ x29: .cfa -32 + ^
STACK CFI 7b6b4 .cfa: sp 32 +
STACK CFI 7b6bc .cfa: sp 0 +
STACK CFI INIT 7be80 64 .cfa: sp 0 +
STACK CFI 7be84 .cfa: sp 32 +
STACK CFI 7be8c .cfa: x29 32 + x19: .cfa -16 + ^ .ra: .cfa -24 + ^ x29: .cfa -32 + ^
STACK CFI 7bea8 .cfa: sp 32 +
STACK CFI 7beb0 .cfa: sp 0 +
STACK CFI 7beb4 .cfa: x29 32 +
STACK CFI 7bed8 .cfa: sp 32 +
STACK CFI 7bee0 .cfa: sp 0 +
STACK CFI INIT 7c030 570 .cfa: sp 0 +
STACK CFI 7c034 .cfa: sp 176 +
STACK CFI 7c048 .cfa: x29 64 + x19: .cfa -8 + ^ x20: .cfa -16 + ^ x21: .cfa -24 + ^ x22: .cfa -32 + ^ x23: .cfa -40 + ^ x24: .cfa -48 + ^ .ra: .cfa -56 + ^ x29: .cfa -64 + ^
STACK CFI 7c278 .cfa: sp 176 +
STACK CFI 7c28c .cfa: sp 0 +
STACK CFI 7c290 .cfa: x29 64 +
STACK CFI 7c2dc .cfa: sp 176 +
STACK CFI 7c2f0 .cfa: sp 0 +
STACK CFI 7c2f4 .cfa: x29 64 +
STACK CFI 7c32c .cfa: sp 176 +
STACK CFI 7c340 .cfa: sp 0 +
STACK CFI 7c344 .cfa: x29 64 +
STACK CFI 7c35c .cfa: sp 176 +
STACK CFI 7c370 .cfa: sp 0 +
STACK CFI 7c374 .cfa: x29 64 +
STACK CFI 7c394 .cfa: sp 176 +
STACK CFI 7c3a8 .cfa: sp 0 +
STACK CFI 7c3ac .cfa: x29 64 +
STACK CFI 7c3c4 .cfa: sp 176 +
STACK CFI 7c3d8 .cfa: sp 0 +
STACK CFI 7c3dc .cfa: x29 64 +
STACK CFI 7c3f0 .cfa: sp 176 +
STACK CFI 7c404 .cfa: sp 0 +
STACK CFI 7c408 .cfa: x29 64 +
STACK CFI 7c41c .cfa: sp 176 +
STACK CFI 7c430 .cfa: sp 0 +
STACK CFI 7c434 .cfa: x29 64 +
STACK CFI 7c444 .cfa: sp 176 +
STACK CFI 7c458 .cfa: sp 0 +
STACK CFI 7c45c .cfa: x29 64 +
STACK CFI 7c46c .cfa: sp 176 +
STACK CFI 7c480 .cfa: sp 0 +
STACK CFI 7c484 .cfa: x29 64 +
STACK CFI 7c49c .cfa: sp 176 +
STACK CFI 7c4b0 .cfa: sp 0 +
STACK CFI 7c4b4 .cfa: x29 64 +
STACK CFI 7c4c8 .cfa: sp 176 +
STACK CFI 7c4dc .cfa: sp 0 +
STACK CFI 7c4e0 .cfa: x29 64 +
STACK CFI 7c4f8 .cfa: sp 176 +
STACK CFI 7c50c .cfa: sp 0 +
STACK CFI 7c510 .cfa: x29 64 +
STACK CFI 7c53c .cfa: sp 176 +
STACK CFI 7c550 .cfa: sp 0 +
STACK CFI 7c554 .cfa: x29 64 +
STACK CFI 7c568 .cfa: sp 176 +
STACK CFI 7c57c .cfa: sp 0 +
STACK CFI 7c580 .cfa: x29 64 +
STACK CFI INIT 7c5a0 228 .cfa: sp 0 +
STACK CFI INIT 7c7c8 2dc .cfa: sp 0 +
STACK CFI INIT 7caa4 53c .cfa: sp 0 +
STACK CFI INIT 7cfe0 8 .cfa: sp 0 +
STACK CFI INIT 7cfe8 8c .cfa: sp 0 +
STACK CFI 7cfec .cfa: sp 32 +
STACK CFI 7cff4 .cfa: x29 32 + x19: .cfa -16 + ^ .ra: .cfa -24 + ^ x29: .cfa -32 + ^
STACK CFI 7d028 .cfa: sp 32 +
STACK CFI 7d030 .cfa: sp 0 +
STACK CFI 7d034 .cfa: x29 32 +
STACK CFI 7d068 .cfa: sp 32 +
STACK CFI 7d070 .cfa: sp 0 +
STACK CFI INIT 7d074 24 .cfa: sp 0 +
STACK CFI 7d078 .cfa: sp 32 +
STACK CFI 7d080 .cfa: x29 32 + x19: .cfa -16 + ^ .ra: .cfa -24 + ^ x29: .cfa -32 + ^
STACK CFI 7d08c .cfa: sp 32 +
STACK CFI 7d094 .cfa: sp 0 +
STACK CFI INIT 7d098 150 .cfa: sp 0 +
STACK CFI 7d09c .cfa: sp 48 +
STACK CFI 7d0a8 .cfa: x29 48 + x19: .cfa -8 + ^ x20: .cfa -16 + ^ x21: .cfa -24 + ^ x22: .cfa -32 + ^ .ra: .cfa -40 + ^ x29: .cfa -48 + ^
STACK CFI 7d1d8 .cfa: sp 48 +
STACK CFI 7d1e4 .cfa: sp 0 +
STACK CFI INIT 7d1e8 68 .cfa: sp 0 +
STACK CFI 7d1ec .cfa: sp 64 +
STACK CFI 7d1f8 .cfa: x29 32 + x19: .cfa -16 + ^ .ra: .cfa -24 + ^ x29: .cfa -32 + ^
STACK CFI 7d23c .cfa: sp 64 +
STACK CFI 7d248 .cfa: sp 0 +
STACK CFI 7d24c .cfa: x29 32 +
STACK CFI INIT 7d250 90 .cfa: sp 0 +
STACK CFI 7d254 .cfa: sp 32 +
STACK CFI 7d25c .cfa: x29 32 + x19: .cfa -8 + ^ x20: .cfa -16 + ^ .ra: .cfa -24 + ^ x29: .cfa -32 + ^
STACK CFI 7d288 .cfa: sp 32 +
STACK CFI 7d290 .cfa: sp 0 +
STACK CFI 7d294 .cfa: x29 32 +
STACK CFI 7d2d4 .cfa: sp 32 +
STACK CFI 7d2dc .cfa: sp 0 +
STACK CFI INIT 7d2e0 ec .cfa: sp 0 +
STACK CFI 7d2e4 .cfa: sp 112 +
STACK CFI 7d2f4 .cfa: x29 48 + x19: .cfa -8 + ^ x20: .cfa -16 + ^ x21: .cfa -32 + ^ .ra: .cfa -40 + ^ x29: .cfa -48 + ^
STACK CFI 7d3b4 .cfa: sp 112 +
STACK CFI 7d3c4 .cfa: sp 0 +
STACK CFI 7d3c8 .cfa: x29 48 +
STACK CFI INIT 7d3cc ec .cfa: sp 0 +
STACK CFI 7d3d0 .cfa: sp 112 +
STACK CFI 7d3e0 .cfa: x29 48 + x19: .cfa -8 + ^ x20: .cfa -16 + ^ x21: .cfa -32 + ^ .ra: .cfa -40 + ^ x29: .cfa -48 + ^
STACK CFI 7d4a0 .cfa: sp 112 +
STACK CFI 7d4b0 .cfa: sp 0 +
STACK CFI 7d4b4 .cfa: x29 48 +
STACK CFI INIT 7d4b8 48 .cfa: sp 0 +
STACK CFI 7d4bc .cfa: sp 32 +
STACK CFI 7d4c4 .cfa: x29 32 + x19: .cfa -8 + ^ x20: .cfa -16 + ^ .ra: .cfa -24 + ^ x29: .cfa -32 + ^
STACK CFI 7d4e8 .cfa: sp 32 +
STACK CFI 7d4f0 .cfa: sp 0 +
STACK CFI 7d4f4 .cfa: x29 32 +
STACK CFI INIT 7d500 98 .cfa: sp 0 +
STACK CFI 7d504 .cfa: sp 80 +
STACK CFI 7d510 .cfa: x29 32 + x19: .cfa -16 + ^ .ra: .cfa -24 + ^ x29: .cfa -32 + ^
STACK CFI 7d584 .cfa: sp 80 +
STACK CFI 7d590 .cfa: sp 0 +
STACK CFI 7d594 .cfa: x29 32 +
STACK CFI INIT 7d598 260 .cfa: sp 0 +
STACK CFI 7d59c .cfa: sp 112 +
STACK CFI 7d5b4 .cfa: x29 80 + x19: .cfa -8 + ^ x20: .cfa -16 + ^ x21: .cfa -24 + ^ x22: .cfa -32 + ^ x23: .cfa -40 + ^ x24: .cfa -48 + ^ x25: .cfa -64 + ^ .ra: .cfa -72 + ^ x29: .cfa -80 + ^
STACK CFI 7d798 .cfa: sp 112 +
STACK CFI 7d7b0 .cfa: sp 0 +
STACK CFI 7d7b4 .cfa: x29 80 +
STACK CFI INIT 7d7f8 150 .cfa: sp 0 +
STACK CFI 7d7fc .cfa: sp 48 +
STACK CFI 7d808 .cfa: x29 48 + x19: .cfa -8 + ^ x20: .cfa -16 + ^ x21: .cfa -24 + ^ x22: .cfa -32 + ^ .ra: .cfa -40 + ^ x29: .cfa -48 + ^
STACK CFI 7d938 .cfa: sp 48 +
STACK CFI 7d944 .cfa: sp 0 +
STACK CFI INIT 7d948 1e0 .cfa: sp 0 +
STACK CFI 7d94c .cfa: sp 96 +
STACK CFI 7d960 .cfa: x29 64 + x19: .cfa -8 + ^ x20: .cfa -16 + ^ x21: .cfa -24 + ^ x22: .cfa -32 + ^ x23: .cfa -40 + ^ x24: .cfa -48 + ^ .ra: .cfa -56 + ^ x29: .cfa -64 + ^
STACK CFI 7dae0 .cfa: sp 96 +
STACK CFI 7daf4 .cfa: sp 0 +
STACK CFI 7daf8 .cfa: x29 64 +
STACK CFI INIT 7db28 284 .cfa: sp 0 +
STACK CFI 7db2c .cfa: sp 112 +
STACK CFI 7db44 .cfa: x29 80 + x19: .cfa -8 + ^ x20: .cfa -16 + ^ x21: .cfa -24 + ^ x22: .cfa -32 + ^ x23: .cfa -40 + ^ x24: .cfa -48 + ^ x25: .cfa -64 + ^ .ra: .cfa -72 + ^ x29: .cfa -80 + ^
STACK CFI 7dd4c .cfa: sp 112 +
STACK CFI 7dd64 .cfa: sp 0 +
STACK CFI 7dd68 .cfa: x29 80 +
STACK CFI INIT 7ddac 208 .cfa: sp 0 +
STACK CFI 7ddb0 .cfa: sp 96 +
STACK CFI 7ddc4 .cfa: x29 64 + x19: .cfa -8 + ^ x20: .cfa -16 + ^ x21: .cfa -24 + ^ x22: .cfa -32 + ^ x23: .cfa -40 + ^ x24: .cfa -48 + ^ .ra: .cfa -56 + ^ x29: .cfa -64 + ^
STACK CFI 7df6c .cfa: sp 96 +
STACK CFI 7df80 .cfa: sp 0 +
STACK CFI 7df84 .cfa: x29 64 +
STACK CFI INIT 7dfb4 360 .cfa: sp 0 +
STACK CFI 7dfb8 .cfa: sp 160 +
STACK CFI 7dfd4 .cfa: x29 96 + x19: .cfa -8 + ^ x20: .cfa -16 + ^ x21: .cfa -24 + ^ x22: .cfa -32 + ^ x23: .cfa -40 + ^ x24: .cfa -48 + ^ x25: .cfa -56 + ^ x26: .cfa -64 + ^ x27: .cfa -72 + ^ x28: .cfa -80 + ^ .ra: .cfa -88 + ^ x29: .cfa -96 + ^
STACK CFI 7e2a0 .cfa: sp 160 +
STACK CFI 7e2bc .cfa: sp 0 +
STACK CFI 7e2c0 .cfa: x29 96 +
STACK CFI INIT 7e314 314 .cfa: sp 0 +
STACK CFI 7e318 .cfa: sp 144 +
STACK CFI 7e334 .cfa: x29 96 + x19: .cfa -8 + ^ x20: .cfa -16 + ^ x21: .cfa -24 + ^ x22: .cfa -32 + ^ x23: .cfa -40 + ^ x24: .cfa -48 + ^ x25: .cfa -56 + ^ x26: .cfa -64 + ^ x27: .cfa -72 + ^ x28: .cfa -80 + ^ .ra: .cfa -88 + ^ x29: .cfa -96 + ^
STACK CFI 7e5b0 .cfa: sp 144 +
STACK CFI 7e5cc .cfa: sp 0 +
STACK CFI 7e5d0 .cfa: x29 96 +
STACK CFI INIT 7e628 2b4 .cfa: sp 0 +
STACK CFI 7e62c .cfa: sp 128 +
STACK CFI 7e644 .cfa: x29 80 + x19: .cfa -8 + ^ x20: .cfa -16 + ^ x21: .cfa -24 + ^ x22: .cfa -32 + ^ x23: .cfa -40 + ^ x24: .cfa -48 + ^ x25: .cfa -56 + ^ x26: .cfa -64 + ^ .ra: .cfa -72 + ^ x29: .cfa -80 + ^
STACK CFI 7e838 .cfa: sp 128 +
STACK CFI 7e850 .cfa: sp 0 +
STACK CFI 7e854 .cfa: x29 80 +
STACK CFI 7e8bc .cfa: sp 128 +
STACK CFI 7e8d4 .cfa: sp 0 +
STACK CFI 7e8d8 .cfa: x29 80 +
STACK CFI INIT 7e8dc dcc .cfa: sp 0 +
STACK CFI 7e8e0 .cfa: sp 144 +
STACK CFI 7e8fc .cfa: x29 96 + x19: .cfa -8 + ^ x20: .cfa -16 + ^ x21: .cfa -24 + ^ x22: .cfa -32 + ^ x23: .cfa -40 + ^ x24: .cfa -48 + ^ x25: .cfa -56 + ^ x26: .cfa -64 + ^ x27: .cfa -72 + ^ x28: .cfa -80 + ^ .ra: .cfa -88 + ^ x29: .cfa -96 + ^
STACK CFI 7f580 .cfa: sp 144 +
STACK CFI 7f59c .cfa: sp 0 +
STACK CFI 7f5a0 .cfa: x29 96 +
STACK CFI INIT 7f6a8 264 .cfa: sp 0 +
STACK CFI 7f6ac .cfa: sp 112 +
STACK CFI 7f6c0 .cfa: x29 64 + x19: .cfa -8 + ^ x20: .cfa -16 + ^ x21: .cfa -24 + ^ x22: .cfa -32 + ^ x23: .cfa -40 + ^ x24: .cfa -48 + ^ .ra: .cfa -56 + ^ x29: .cfa -64 + ^
STACK CFI 7f83c .cfa: sp 112 +
STACK CFI 7f850 .cfa: sp 0 +
STACK CFI 7f854 .cfa: x29 64 +
STACK CFI 7f8c4 .cfa: sp 112 +
STACK CFI 7f8d8 .cfa: sp 0 +
STACK CFI 7f8dc .cfa: x29 64 +
STACK CFI INIT 7f90c 258 .cfa: sp 0 +
STACK CFI 7f910 .cfa: sp 96 +
STACK CFI 7f928 .cfa: x29 96 + x19: .cfa -8 + ^ x20: .cfa -16 + ^ x21: .cfa -24 + ^ x22: .cfa -32 + ^ x23: .cfa -40 + ^ x24: .cfa -48 + ^ x25: .cfa -56 + ^ x26: .cfa -64 + ^ x27: .cfa -72 + ^ x28: .cfa -80 + ^ .ra: .cfa -88 + ^ x29: .cfa -96 + ^
STACK CFI 7fb20 .cfa: sp 96 +
STACK CFI 7fb38 .cfa: sp 0 +
STACK CFI 7fb3c .cfa: x29 96 +
STACK CFI 7fb48 .cfa: sp 96 +
STACK CFI 7fb60 .cfa: sp 0 +
STACK CFI INIT 807e8 154 .cfa: sp 0 +
STACK CFI 807ec .cfa: sp 96 +
STACK CFI 80800 .cfa: x29 64 + x19: .cfa -8 + ^ x20: .cfa -16 + ^ x21: .cfa -24 + ^ x22: .cfa -32 + ^ x23: .cfa -48 + ^ .ra: .cfa -56 + ^ x29: .cfa -64 + ^
STACK CFI 808e0 .cfa: sp 96 +
STACK CFI 808f4 .cfa: sp 0 +
STACK CFI 808f8 .cfa: x29 64 +
STACK CFI INIT 80ba4 44 .cfa: sp 0 +
STACK CFI 80ba8 .cfa: sp 32 +
STACK CFI 80bb0 .cfa: x29 32 + x19: .cfa -16 + ^ .ra: .cfa -24 + ^ x29: .cfa -32 + ^
STACK CFI 80bcc .cfa: sp 32 +
STACK CFI 80bd4 .cfa: sp 0 +
STACK CFI 80bd8 .cfa: x29 32 +
STACK CFI 80bdc .cfa: sp 32 +
STACK CFI 80be4 .cfa: sp 0 +
STACK CFI INIT 80be8 1d0 .cfa: sp 0 +
STACK CFI 80bec .cfa: sp 64 +
STACK CFI 80bfc .cfa: x29 64 + x19: .cfa -8 + ^ x20: .cfa -16 + ^ x21: .cfa -24 + ^ x22: .cfa -32 + ^ x23: .cfa -40 + ^ x24: .cfa -48 + ^ .ra: .cfa -56 + ^ x29: .cfa -64 + ^
STACK CFI 80cbc .cfa: sp 64 +
STACK CFI 80ccc .cfa: sp 0 +
STACK CFI 80cd0 .cfa: x29 64 +
STACK CFI INIT 80db8 17c .cfa: sp 0 +
STACK CFI INIT 812ec a0 .cfa: sp 0 +
STACK CFI 812f0 .cfa: sp 48 +
STACK CFI 812fc .cfa: x29 48 + x19: .cfa -8 + ^ x20: .cfa -16 + ^ x21: .cfa -24 + ^ x22: .cfa -32 + ^ .ra: .cfa -40 + ^ x29: .cfa -48 + ^
STACK CFI 81368 .cfa: sp 48 +
STACK CFI 81374 .cfa: sp 0 +
STACK CFI 81378 .cfa: sp 48 +
STACK CFI 81384 .cfa: sp 0 +
STACK CFI 81388 .cfa: x29 48 +
STACK CFI INIT 82048 158 .cfa: sp 0 +
STACK CFI 8204c .cfa: sp 96 +
STACK CFI 82060 .cfa: x29 64 + x19: .cfa -8 + ^ x20: .cfa -16 + ^ x21: .cfa -24 + ^ x22: .cfa -32 + ^ x23: .cfa -48 + ^ .ra: .cfa -56 + ^ x29: .cfa -64 + ^
STACK CFI 82144 .cfa: sp 96 +
STACK CFI 82158 .cfa: sp 0 +
STACK CFI 8215c .cfa: x29 64 +
STACK CFI INIT 821a0 190 .cfa: sp 0 +
STACK CFI INIT 82e10 1f4 .cfa: sp 0 +
STACK CFI 82e14 .cfa: sp 80 +
STACK CFI 82e28 .cfa: x29 80 + x19: .cfa -8 + ^ x20: .cfa -16 + ^ x21: .cfa -24 + ^ x22: .cfa -32 + ^ x23: .cfa -40 + ^ x24: .cfa -48 + ^ x25: .cfa -64 + ^ .ra: .cfa -72 + ^ x29: .cfa -80 + ^
STACK CFI 82fc8 .cfa: sp 80 +
STACK CFI 82fdc .cfa: sp 0 +
STACK CFI 82fe0 .cfa: x29 80 +
STACK CFI 82fec .cfa: sp 80 +
STACK CFI 83000 .cfa: sp 0 +
STACK CFI INIT 84428 124 .cfa: sp 0 +
STACK CFI 84458 .cfa: sp 32 +
STACK CFI 84460 .cfa: x29 32 + x19: .cfa -8 + ^ x20: .cfa -16 + ^ .ra: .cfa -24 + ^ x29: .cfa -32 + ^
STACK CFI 84540 .cfa: sp 32 +
STACK CFI 84548 .cfa: sp 0 +
STACK CFI INIT 84ca8 324 .cfa: sp 0 +
STACK CFI 84cac .cfa: sp 64 +
STACK CFI 84cbc .cfa: x29 64 + x19: .cfa -8 + ^ x20: .cfa -16 + ^ x21: .cfa -24 + ^ x22: .cfa -32 + ^ x23: .cfa -40 + ^ x24: .cfa -48 + ^ .ra: .cfa -56 + ^ x29: .cfa -64 + ^
STACK CFI 84d38 .cfa: sp 64 +
STACK CFI 84d48 .cfa: sp 0 +
STACK CFI 84d4c .cfa: x29 64 +
STACK CFI 84f24 .cfa: sp 64 +
STACK CFI 84f34 .cfa: sp 0 +
STACK CFI 84f38 .cfa: x29 64 +
STACK CFI 84f48 .cfa: sp 64 +
STACK CFI 84f58 .cfa: sp 0 +
STACK CFI 84f5c .cfa: x29 64 +
STACK CFI INIT 84fcc a0 .cfa: sp 0 +
STACK CFI 84fd0 .cfa: sp 48 +
STACK CFI 84fdc .cfa: x29 48 + x19: .cfa -8 + ^ x20: .cfa -16 + ^ x21: .cfa -24 + ^ x22: .cfa -32 + ^ .ra: .cfa -40 + ^ x29: .cfa -48 + ^
STACK CFI 85048 .cfa: sp 48 +
STACK CFI 85054 .cfa: sp 0 +
STACK CFI 85058 .cfa: sp 48 +
STACK CFI 85064 .cfa: sp 0 +
STACK CFI 85068 .cfa: x29 48 +
STACK CFI INIT 85f48 160 .cfa: sp 0 +
STACK CFI 85f4c .cfa: sp 64 +
STACK CFI 85f5c .cfa: x29 64 + x19: .cfa -8 + ^ x20: .cfa -16 + ^ x21: .cfa -24 + ^ x22: .cfa -32 + ^ x23: .cfa -48 + ^ .ra: .cfa -56 + ^ x29: .cfa -64 + ^
STACK CFI 86054 .cfa: sp 64 +
STACK CFI 86064 .cfa: sp 0 +
STACK CFI 86068 .cfa: x29 64 +
STACK CFI INIT 860a8 214 .cfa: sp 0 +
STACK CFI 860ac .cfa: sp 128 +
STACK CFI 860c8 .cfa: x29 96 + x19: .cfa -8 + ^ x20: .cfa -16 + ^ x21: .cfa -24 + ^ x22: .cfa -32 + ^ x23: .cfa -40 + ^ x24: .cfa -48 + ^ x25: .cfa -56 + ^ x26: .cfa -64 + ^ x27: .cfa -80 + ^ .ra: .cfa -88 + ^ x29: .cfa -96 + ^
STACK CFI 86244 .cfa: sp 128 +
STACK CFI 86260 .cfa: sp 0 +
STACK CFI 86264 .cfa: x29 96 +
STACK CFI INIT 87df0 e58 .cfa: sp 0 +
STACK CFI 87df4 .cfa: sp 192 +
STACK CFI 87e10 .cfa: x29 96 + x19: .cfa -8 + ^ x20: .cfa -16 + ^ x21: .cfa -24 + ^ x22: .cfa -32 + ^ x23: .cfa -40 + ^ x24: .cfa -48 + ^ x25: .cfa -56 + ^ x26: .cfa -64 + ^ x27: .cfa -72 + ^ x28: .cfa -80 + ^ .ra: .cfa -88 + ^ x29: .cfa -96 + ^
STACK CFI 88b30 .cfa: sp 192 +
STACK CFI 88b4c .cfa: sp 0 +
STACK CFI 88b50 .cfa: x29 96 +
STACK CFI INIT 88c48 1090 .cfa: sp 0 +
STACK CFI 88c4c .cfa: sp 288 +
STACK CFI 88c68 .cfa: x29 96 + x19: .cfa -8 + ^ x20: .cfa -16 + ^ x21: .cfa -24 + ^ x22: .cfa -32 + ^ x23: .cfa -40 + ^ x24: .cfa -48 + ^ x25: .cfa -56 + ^ x26: .cfa -64 + ^ x27: .cfa -72 + ^ x28: .cfa -80 + ^ .ra: .cfa -88 + ^ x29: .cfa -96 + ^
STACK CFI 89a20 .cfa: sp 288 +
STACK CFI 89a3c .cfa: sp 0 +
STACK CFI 89a40 .cfa: x29 96 +
STACK CFI INIT 89cd8 520 .cfa: sp 0 +
STACK CFI 89cdc .cfa: sp 144 +
STACK CFI 89cf8 .cfa: x29 96 + x19: .cfa -8 + ^ x20: .cfa -16 + ^ x21: .cfa -24 + ^ x22: .cfa -32 + ^ x23: .cfa -40 + ^ x24: .cfa -48 + ^ x25: .cfa -56 + ^ x26: .cfa -64 + ^ x27: .cfa -72 + ^ x28: .cfa -80 + ^ .ra: .cfa -88 + ^ x29: .cfa -96 + ^
STACK CFI 8a1d4 .cfa: sp 144 +
STACK CFI 8a1f0 .cfa: sp 0 +
STACK CFI 8a1f4 .cfa: x29 96 +
STACK CFI INIT 39a6c 254 .cfa: sp 0 +
STACK CFI 39a70 .cfa: sp 80 +
STACK CFI 39a80 .cfa: x29 48 + x19: .cfa -8 + ^ x20: .cfa -16 + ^ x21: .cfa -24 + ^ x22: .cfa -32 + ^ .ra: .cfa -40 + ^ x29: .cfa -48 + ^
STACK CFI 39c7c .cfa: sp 80 +
STACK CFI 39c8c .cfa: sp 0 +
STACK CFI 39c90 .cfa: x29 48 +
STACK CFI INIT 39cc0 d8 .cfa: sp 0 +
STACK CFI 39cc4 .cfa: sp 96 +
STACK CFI 39cd8 .cfa: x29 64 + x19: .cfa -8 + ^ x20: .cfa -16 + ^ x21: .cfa -24 + ^ x22: .cfa -32 + ^ x23: .cfa -48 + ^ .ra: .cfa -56 + ^ x29: .cfa -64 + ^
STACK CFI 39d50 .cfa: sp 96 +
STACK CFI 39d64 .cfa: sp 0 +
STACK CFI 39d68 .cfa: x29 64 +
STACK CFI INIT 39d98 2a4 .cfa: sp 0 +
STACK CFI 39d9c .cfa: sp 208 +
STACK CFI 39db0 .cfa: x29 64 + x19: .cfa -8 + ^ x20: .cfa -16 + ^ x21: .cfa -24 + ^ x22: .cfa -32 + ^ x23: .cfa -40 + ^ x24: .cfa -48 + ^ .ra: .cfa -56 + ^ x29: .cfa -64 + ^
STACK CFI 39fa0 .cfa: sp 208 +
STACK CFI 39fb4 .cfa: sp 0 +
STACK CFI 39fb8 .cfa: x29 64 +
STACK CFI INIT 3a0e4 160 .cfa: sp 0 +
STACK CFI 3a0e8 .cfa: sp 128 +
STACK CFI 3a100 .cfa: x29 80 + x19: .cfa -8 + ^ x20: .cfa -16 + ^ x21: .cfa -24 + ^ x22: .cfa -32 + ^ x23: .cfa -40 + ^ x24: .cfa -48 + ^ x25: .cfa -64 + ^ .ra: .cfa -72 + ^ x29: .cfa -80 + ^
STACK CFI 3a1b0 .cfa: sp 128 +
STACK CFI 3a1c8 .cfa: sp 0 +
STACK CFI 3a1cc .cfa: x29 80 +
STACK CFI INIT 3a340 660 .cfa: sp 0 +
STACK CFI 3a344 .cfa: sp 160 +
STACK CFI 3a360 .cfa: x29 80 + x19: .cfa -8 + ^ x20: .cfa -16 + ^ x21: .cfa -24 + ^ x22: .cfa -32 + ^ x23: .cfa -40 + ^ x24: .cfa -48 + ^ x25: .cfa -56 + ^ x26: .cfa -64 + ^ .ra: .cfa -72 + ^ x29: .cfa -80 + ^ v8: .cfa -96 + ^
STACK CFI 3a49c .cfa: sp 160 +
STACK CFI 3a4a0 .cfa: x29 80 +
STACK CFI 3a554 .cfa: sp 160 +
STACK CFI 3a570 .cfa: sp 0 +
STACK CFI 3a574 .cfa: x29 80 +
STACK CFI 3a920 .cfa: sp 160 +
STACK CFI 3a93c .cfa: sp 0 +
STACK CFI 3a940 .cfa: x29 80 +
STACK CFI INIT 3a9a0 180 .cfa: sp 0 +
STACK CFI 3a9a4 .cfa: sp 144 +
STACK CFI 3a9b4 .cfa: x29 48 + x19: .cfa -8 + ^ x20: .cfa -16 + ^ x21: .cfa -24 + ^ x22: .cfa -32 + ^ .ra: .cfa -40 + ^ x29: .cfa -48 + ^
STACK CFI 3aab4 .cfa: sp 144 +
STACK CFI 3aac4 .cfa: sp 0 +
STACK CFI 3aac8 .cfa: x29 48 +
STACK CFI INIT 3ab20 4d0 .cfa: sp 0 +
STACK CFI 3ab24 .cfa: sp 192 +
STACK CFI 3ab44 .cfa: x29 96 + x19: .cfa -8 + ^ x20: .cfa -16 + ^ x21: .cfa -24 + ^ x22: .cfa -32 + ^ x23: .cfa -40 + ^ x24: .cfa -48 + ^ x25: .cfa -56 + ^ x26: .cfa -64 + ^ x27: .cfa -72 + ^ x28: .cfa -80 + ^ .ra: .cfa -88 + ^ x29: .cfa -96 + ^ v8: .cfa -112 + ^
STACK CFI 3af8c .cfa: sp 192 +
STACK CFI 3afac .cfa: sp 0 +
STACK CFI 3afb0 .cfa: x29 96 +
STACK CFI INIT 3b138 668 .cfa: sp 0 +
STACK CFI 3b13c .cfa: sp 176 +
STACK CFI 3b15c .cfa: x29 96 + x19: .cfa -8 + ^ x20: .cfa -16 + ^ x21: .cfa -24 + ^ x22: .cfa -32 + ^ x23: .cfa -40 + ^ x24: .cfa -48 + ^ x25: .cfa -56 + ^ x26: .cfa -64 + ^ x27: .cfa -72 + ^ x28: .cfa -80 + ^ .ra: .cfa -88 + ^ x29: .cfa -96 + ^ v8: .cfa -112 + ^
STACK CFI 3b6d4 .cfa: sp 176 +
STACK CFI 3b6f4 .cfa: sp 0 +
STACK CFI 3b6f8 .cfa: x29 96 +
STACK CFI 3b72c .cfa: sp 176 +
STACK CFI 3b74c .cfa: sp 0 +
STACK CFI 3b750 .cfa: x29 96 +
STACK CFI INIT 3b7c4 50 .cfa: sp 0 +
STACK CFI 3b7c8 .cfa: sp 32 +
STACK CFI 3b7d0 .cfa: x29 32 + x19: .cfa -8 + ^ x20: .cfa -16 + ^ .ra: .cfa -24 + ^ x29: .cfa -32 + ^
STACK CFI INIT 3b844 74 .cfa: sp 0 +
STACK CFI 3b848 .cfa: sp 48 +
STACK CFI 3b854 .cfa: x29 32 + x19: .cfa -8 + ^ x20: .cfa -16 + ^ .ra: .cfa -24 + ^ x29: .cfa -32 + ^
STACK CFI 3b8a0 .cfa: sp 48 +
STACK CFI 3b8ac .cfa: sp 0 +
STACK CFI 3b8b0 .cfa: x29 32 +
STACK CFI INIT 3b8b8 74 .cfa: sp 0 +
STACK CFI 3b8bc .cfa: sp 48 +
STACK CFI 3b8c8 .cfa: x29 32 + x19: .cfa -8 + ^ x20: .cfa -16 + ^ .ra: .cfa -24 + ^ x29: .cfa -32 + ^
STACK CFI 3b914 .cfa: sp 48 +
STACK CFI 3b920 .cfa: sp 0 +
STACK CFI 3b924 .cfa: x29 32 +
STACK CFI INIT 3ba34 1e8 .cfa: sp 0 +
STACK CFI 3ba38 .cfa: sp 160 +
STACK CFI 3ba48 .cfa: x29 48 + x19: .cfa -8 + ^ x20: .cfa -16 + ^ x21: .cfa -24 + ^ x22: .cfa -32 + ^ .ra: .cfa -40 + ^ x29: .cfa -48 + ^
STACK CFI 3bbac .cfa: sp 160 +
STACK CFI 3bbbc .cfa: sp 0 +
STACK CFI 3bbc0 .cfa: x29 48 +
STACK CFI INIT 3bc1c 148 .cfa: sp 0 +
STACK CFI 3bc20 .cfa: sp 96 +
STACK CFI 3bc34 .cfa: x29 64 + x19: .cfa -8 + ^ x20: .cfa -16 + ^ x21: .cfa -24 + ^ x22: .cfa -32 + ^ x23: .cfa -40 + ^ x24: .cfa -48 + ^ .ra: .cfa -56 + ^ x29: .cfa -64 + ^
STACK CFI 3bd10 .cfa: sp 96 +
STACK CFI 3bd24 .cfa: sp 0 +
STACK CFI 3bd28 .cfa: x29 64 +
STACK CFI INIT 3bd94 128 .cfa: sp 0 +
STACK CFI 3bd98 .cfa: sp 96 +
STACK CFI 3bdb0 .cfa: x29 80 + x19: .cfa -8 + ^ x20: .cfa -16 + ^ x21: .cfa -24 + ^ x22: .cfa -32 + ^ x23: .cfa -40 + ^ x24: .cfa -48 + ^ x25: .cfa -64 + ^ .ra: .cfa -72 + ^ x29: .cfa -80 + ^
STACK CFI 3be70 .cfa: sp 96 +
STACK CFI 3be88 .cfa: sp 0 +
STACK CFI 3be8c .cfa: x29 80 +
STACK CFI INIT 3bebc 160 .cfa: sp 0 +
STACK CFI 3bec0 .cfa: sp 96 +
STACK CFI 3bed8 .cfa: x29 80 + x19: .cfa -8 + ^ x20: .cfa -16 + ^ x21: .cfa -24 + ^ x22: .cfa -32 + ^ x23: .cfa -40 + ^ x24: .cfa -48 + ^ x25: .cfa -64 + ^ .ra: .cfa -72 + ^ x29: .cfa -80 + ^
STACK CFI 3bfd0 .cfa: sp 96 +
STACK CFI 3bfe8 .cfa: sp 0 +
STACK CFI 3bfec .cfa: x29 80 +
STACK CFI INIT 3c01c 20 .cfa: sp 0 +
STACK CFI 3c020 .cfa: sp 16 +
STACK CFI 3c024 .cfa: x29 16 + .ra: .cfa -8 + ^ x29: .cfa -16 + ^
STACK CFI 3c030 .cfa: sp 16 +
STACK CFI 3c034 .cfa: sp 0 +
STACK CFI 3c038 .cfa: x29 16 +
STACK CFI INIT 3c8d8 11c .cfa: sp 0 +
STACK CFI 3c8dc .cfa: sp 64 +
STACK CFI 3c8ec .cfa: x29 64 + x19: .cfa -8 + ^ x20: .cfa -16 + ^ x21: .cfa -24 + ^ x22: .cfa -32 + ^ x23: .cfa -48 + ^ .ra: .cfa -56 + ^ x29: .cfa -64 + ^
STACK CFI 3c9a0 .cfa: sp 64 +
STACK CFI 3c9b0 .cfa: sp 0 +
STACK CFI 3c9b4 .cfa: x29 64 +
STACK CFI 3c9cc .cfa: sp 64 +
STACK CFI 3c9dc .cfa: sp 0 +
STACK CFI 3c9e0 .cfa: x29 64 +
STACK CFI INIT 3c9f4 48c .cfa: sp 0 +
STACK CFI 3c9f8 .cfa: sp 160 +
STACK CFI 3ca18 .cfa: x29 96 + x19: .cfa -8 + ^ x20: .cfa -16 + ^ x21: .cfa -24 + ^ x22: .cfa -32 + ^ x23: .cfa -40 + ^ x24: .cfa -48 + ^ x25: .cfa -56 + ^ x26: .cfa -64 + ^ x27: .cfa -80 + ^ .ra: .cfa -88 + ^ x29: .cfa -96 + ^ v8: .cfa -104 + ^ v9: .cfa -112 + ^
STACK CFI 3ce34 .cfa: sp 160 +
STACK CFI 3ce54 .cfa: sp 0 +
STACK CFI 3ce58 .cfa: x29 96 +
STACK CFI INIT 3d570 130 .cfa: sp 0 +
STACK CFI 3d574 .cfa: sp 64 +
STACK CFI 3d580 .cfa: x29 32 + x19: .cfa -8 + ^ x20: .cfa -16 + ^ .ra: .cfa -24 + ^ x29: .cfa -32 + ^
STACK CFI 3d668 .cfa: sp 64 +
STACK CFI 3d674 .cfa: sp 0 +
STACK CFI 3d678 .cfa: x29 32 +
STACK CFI INIT 3d6a0 6dc .cfa: sp 0 +
STACK CFI 3d6a4 .cfa: sp 384 +
STACK CFI 3d6bc .cfa: x29 56 + x19: .cfa -8 + ^ x20: .cfa -16 + ^ x21: .cfa -24 + ^ x22: .cfa -32 + ^ x28: .cfa -40 + ^ .ra: .cfa -48 + ^ x29: .cfa -56 + ^ v8: .cfa -64 + ^
STACK CFI 3dc88 .cfa: sp 384 +
STACK CFI 3dca0 .cfa: sp 0 +
STACK CFI 3dca4 .cfa: x29 56 +
STACK CFI INIT 3dd7c 14c .cfa: sp 0 +
STACK CFI 3dd80 .cfa: sp 112 +
STACK CFI 3dd94 .cfa: x29 40 + x19: .cfa -8 + ^ x20: .cfa -16 + ^ x21: .cfa -24 + ^ .ra: .cfa -32 + ^ x29: .cfa -40 + ^ v8: .cfa -48 + ^
STACK CFI 3de5c .cfa: sp 112 +
STACK CFI 3de70 .cfa: sp 0 +
STACK CFI 3de74 .cfa: x29 40 +
STACK CFI INIT 3dec8 3c8 .cfa: sp 0 +
STACK CFI 3decc .cfa: sp 224 +
STACK CFI 3dee0 .cfa: x29 64 + x19: .cfa -8 + ^ x20: .cfa -16 + ^ x21: .cfa -24 + ^ x22: .cfa -32 + ^ x23: .cfa -48 + ^ .ra: .cfa -56 + ^ x29: .cfa -64 + ^
STACK CFI 3e19c .cfa: sp 224 +
STACK CFI 3e1b0 .cfa: sp 0 +
STACK CFI 3e1b4 .cfa: x29 64 +
STACK CFI INIT 3e290 2e0 .cfa: sp 0 +
STACK CFI 3e294 .cfa: sp 176 +
STACK CFI 3e2b0 .cfa: x29 96 + x19: .cfa -8 + ^ x20: .cfa -16 + ^ x21: .cfa -24 + ^ x22: .cfa -32 + ^ x23: .cfa -40 + ^ x24: .cfa -48 + ^ x25: .cfa -56 + ^ x26: .cfa -64 + ^ x27: .cfa -72 + ^ x28: .cfa -80 + ^ .ra: .cfa -88 + ^ x29: .cfa -96 + ^
STACK CFI 3e508 .cfa: sp 176 +
STACK CFI 3e524 .cfa: sp 0 +
STACK CFI 3e528 .cfa: x29 96 +
STACK CFI INIT 3e718 6c .cfa: sp 0 +
STACK CFI 3e71c .cfa: sp 32 +
STACK CFI 3e724 .cfa: x29 32 + x19: .cfa -16 + ^ .ra: .cfa -24 + ^ x29: .cfa -32 + ^
STACK CFI 3e774 .cfa: sp 32 +
STACK CFI 3e77c .cfa: sp 0 +
STACK CFI 3e780 .cfa: x29 32 +
STACK CFI INIT 3e784 74 .cfa: sp 0 +
STACK CFI 3e788 .cfa: sp 32 +
STACK CFI 3e790 .cfa: x29 32 + x19: .cfa -16 + ^ .ra: .cfa -24 + ^ x29: .cfa -32 + ^
STACK CFI 3e7e8 .cfa: sp 32 +
STACK CFI 3e7f0 .cfa: sp 0 +
STACK CFI 3e7f4 .cfa: x29 32 +
STACK CFI INIT 3e830 134 .cfa: sp 0 +
STACK CFI 3e834 .cfa: sp 96 +
STACK CFI 3e844 .cfa: x29 48 + x19: .cfa -8 + ^ x20: .cfa -16 + ^ x21: .cfa -32 + ^ .ra: .cfa -40 + ^ x29: .cfa -48 + ^
STACK CFI 3e918 .cfa: sp 96 +
STACK CFI 3e928 .cfa: sp 0 +
STACK CFI 3e92c .cfa: x29 48 +
STACK CFI INIT 3e964 6c .cfa: sp 0 +
STACK CFI 3e968 .cfa: sp 32 +
STACK CFI 3e970 .cfa: x29 32 + x19: .cfa -16 + ^ .ra: .cfa -24 + ^ x29: .cfa -32 + ^
STACK CFI 3e9c0 .cfa: sp 32 +
STACK CFI 3e9c8 .cfa: sp 0 +
STACK CFI 3e9cc .cfa: x29 32 +
STACK CFI INIT 3e9d0 74 .cfa: sp 0 +
STACK CFI 3e9d4 .cfa: sp 32 +
STACK CFI 3e9dc .cfa: x29 32 + x19: .cfa -16 + ^ .ra: .cfa -24 + ^ x29: .cfa -32 + ^
STACK CFI 3ea34 .cfa: sp 32 +
STACK CFI 3ea3c .cfa: sp 0 +
STACK CFI 3ea40 .cfa: x29 32 +
STACK CFI INIT 3ea54 6c .cfa: sp 0 +
STACK CFI 3ea58 .cfa: sp 32 +
STACK CFI 3ea60 .cfa: x29 32 + x19: .cfa -16 + ^ .ra: .cfa -24 + ^ x29: .cfa -32 + ^
STACK CFI 3eab0 .cfa: sp 32 +
STACK CFI 3eab8 .cfa: sp 0 +
STACK CFI 3eabc .cfa: x29 32 +
STACK CFI INIT 3f0e8 13c .cfa: sp 0 +
STACK CFI 3f0ec .cfa: sp 96 +
STACK CFI 3f100 .cfa: x29 64 + x19: .cfa -8 + ^ x20: .cfa -16 + ^ x21: .cfa -24 + ^ x22: .cfa -32 + ^ x23: .cfa -48 + ^ .ra: .cfa -56 + ^ x29: .cfa -64 + ^
STACK CFI 3f1d4 .cfa: sp 96 +
STACK CFI 3f1e8 .cfa: sp 0 +
STACK CFI 3f1ec .cfa: x29 64 +
STACK CFI INIT 3f328 a8 .cfa: sp 0 +
STACK CFI 3f32c .cfa: sp 64 +
STACK CFI 3f338 .cfa: x29 32 + x19: .cfa -8 + ^ x20: .cfa -16 + ^ .ra: .cfa -24 + ^ x29: .cfa -32 + ^
STACK CFI 3f390 .cfa: sp 64 +
STACK CFI 3f39c .cfa: sp 0 +
STACK CFI 3f3a0 .cfa: x29 32 +
STACK CFI INIT 3f540 470 .cfa: sp 0 +
STACK CFI 3f544 .cfa: sp 224 +
STACK CFI 3f560 .cfa: x29 96 + x19: .cfa -8 + ^ x20: .cfa -16 + ^ x21: .cfa -24 + ^ x22: .cfa -32 + ^ x23: .cfa -40 + ^ x24: .cfa -48 + ^ x25: .cfa -56 + ^ x26: .cfa -64 + ^ x27: .cfa -80 + ^ .ra: .cfa -88 + ^ x29: .cfa -96 + ^
STACK CFI 3f7bc .cfa: sp 224 +
STACK CFI 3f7d8 .cfa: sp 0 +
STACK CFI 3f7dc .cfa: x29 96 +
STACK CFI 3f8a8 .cfa: sp 224 +
STACK CFI 3f8c4 .cfa: sp 0 +
STACK CFI 3f8c8 .cfa: x29 96 +
STACK CFI INIT 3f9cc 3b8 .cfa: sp 0 +
STACK CFI 3f9d0 .cfa: sp 272 +
STACK CFI 3f9e4 .cfa: x29 64 + x19: .cfa -8 + ^ x20: .cfa -16 + ^ x21: .cfa -24 + ^ x22: .cfa -32 + ^ x23: .cfa -40 + ^ x28: .cfa -48 + ^ .ra: .cfa -56 + ^ x29: .cfa -64 + ^
STACK CFI 3fc54 .cfa: sp 272 +
STACK CFI 3fc68 .cfa: sp 0 +
STACK CFI 3fc6c .cfa: x29 64 +
STACK CFI INIT 3fdd4 74 .cfa: sp 0 +
STACK CFI 3fdd8 .cfa: sp 48 +
STACK CFI 3fde4 .cfa: x29 32 + x19: .cfa -8 + ^ x20: .cfa -16 + ^ .ra: .cfa -24 + ^ x29: .cfa -32 + ^
STACK CFI 3fe30 .cfa: sp 48 +
STACK CFI 3fe3c .cfa: sp 0 +
STACK CFI 3fe40 .cfa: x29 32 +
STACK CFI INIT 3fe4c 154 .cfa: sp 0 +
STACK CFI 3fe50 .cfa: sp 384 +
STACK CFI 3fe64 .cfa: x29 64 + x19: .cfa -8 + ^ x20: .cfa -16 + ^ x21: .cfa -24 + ^ x22: .cfa -32 + ^ x23: .cfa -40 + ^ x28: .cfa -48 + ^ .ra: .cfa -56 + ^ x29: .cfa -64 + ^
STACK CFI 3ff48 .cfa: sp 384 +
STACK CFI 3ff5c .cfa: sp 0 +
STACK CFI 3ff60 .cfa: x29 64 +
STACK CFI INIT 3ffa0 134 .cfa: sp 0 +
STACK CFI 3ffa4 .cfa: sp 80 +
STACK CFI 3ffb8 .cfa: x29 80 + x19: .cfa -8 + ^ x20: .cfa -16 + ^ x21: .cfa -24 + ^ x22: .cfa -32 + ^ x23: .cfa -40 + ^ x24: .cfa -48 + ^ x25: .cfa -56 + ^ x26: .cfa -64 + ^ .ra: .cfa -72 + ^ x29: .cfa -80 + ^
STACK CFI 40088 .cfa: sp 80 +
STACK CFI 4009c .cfa: sp 0 +
STACK CFI 400a0 .cfa: x29 80 +
STACK CFI INIT 40178 1a4 .cfa: sp 0 +
STACK CFI 4017c .cfa: sp 112 +
STACK CFI 40194 .cfa: x29 80 + x19: .cfa -8 + ^ x20: .cfa -16 + ^ x21: .cfa -24 + ^ x22: .cfa -32 + ^ x23: .cfa -40 + ^ x24: .cfa -48 + ^ x25: .cfa -56 + ^ x26: .cfa -64 + ^ .ra: .cfa -72 + ^ x29: .cfa -80 + ^
STACK CFI 40284 .cfa: sp 112 +
STACK CFI 4029c .cfa: sp 0 +
STACK CFI 402a0 .cfa: x29 80 +
STACK CFI INIT 4031c 1ec .cfa: sp 0 +
STACK CFI 40320 .cfa: sp 128 +
STACK CFI 4033c .cfa: x29 96 + x19: .cfa -8 + ^ x20: .cfa -16 + ^ x21: .cfa -24 + ^ x22: .cfa -32 + ^ x23: .cfa -40 + ^ x24: .cfa -48 + ^ x25: .cfa -56 + ^ x26: .cfa -64 + ^ x27: .cfa -80 + ^ .ra: .cfa -88 + ^ x29: .cfa -96 + ^
STACK CFI 404b8 .cfa: sp 128 +
STACK CFI 404d4 .cfa: sp 0 +
STACK CFI 404d8 .cfa: x29 96 +
STACK CFI INIT 4053c 170 .cfa: sp 0 +
STACK CFI 40540 .cfa: sp 48 +
STACK CFI 4054c .cfa: x29 48 + x19: .cfa -8 + ^ x20: .cfa -16 + ^ x21: .cfa -32 + ^ .ra: .cfa -40 + ^ x29: .cfa -48 + ^
STACK CFI 40680 .cfa: sp 48 +
STACK CFI 4068c .cfa: sp 0 +
STACK CFI 40690 .cfa: x29 48 +
STACK CFI INIT 4087c 1b0 .cfa: sp 0 +
STACK CFI 40880 .cfa: sp 128 +
STACK CFI 40898 .cfa: x29 80 + x19: .cfa -8 + ^ x20: .cfa -16 + ^ x21: .cfa -24 + ^ x22: .cfa -32 + ^ x23: .cfa -40 + ^ x24: .cfa -48 + ^ x25: .cfa -64 + ^ .ra: .cfa -72 + ^ x29: .cfa -80 + ^
STACK CFI 409bc .cfa: sp 128 +
STACK CFI 409d4 .cfa: sp 0 +
STACK CFI 409d8 .cfa: x29 80 +
STACK CFI INIT 41110 1fc .cfa: sp 0 +
STACK CFI 41114 .cfa: sp 96 +
STACK CFI 41128 .cfa: x29 40 + x19: .cfa -8 + ^ x20: .cfa -16 + ^ x21: .cfa -24 + ^ .ra: .cfa -32 + ^ x29: .cfa -40 + ^ v8: .cfa -48 + ^
STACK CFI 41274 .cfa: sp 96 +
STACK CFI 41288 .cfa: sp 0 +
STACK CFI 4128c .cfa: x29 40 +
STACK CFI INIT 4130c c8 .cfa: sp 0 +
STACK CFI 41310 .cfa: sp 32 +
STACK CFI 41318 .cfa: x29 32 + x19: .cfa -8 + ^ x20: .cfa -16 + ^ .ra: .cfa -24 + ^ x29: .cfa -32 + ^
STACK CFI 4134c .cfa: sp 32 +
STACK CFI 41354 .cfa: sp 0 +
STACK CFI 41358 .cfa: x29 32 +
STACK CFI 4135c .cfa: sp 32 +
STACK CFI 41364 .cfa: sp 0 +
STACK CFI 41368 .cfa: x29 32 +
STACK CFI INIT 413d4 c8 .cfa: sp 0 +
STACK CFI 413d8 .cfa: sp 80 +
STACK CFI 413e8 .cfa: x29 48 + x19: .cfa -8 + ^ x20: .cfa -16 + ^ x21: .cfa -24 + ^ x22: .cfa -32 + ^ .ra: .cfa -40 + ^ x29: .cfa -48 + ^
STACK CFI 41454 .cfa: sp 80 +
STACK CFI 41464 .cfa: sp 0 +
STACK CFI 41468 .cfa: x29 48 +
STACK CFI INIT 41bf8 4e8 .cfa: sp 0 +
STACK CFI 41bfc .cfa: sp 224 +
STACK CFI 41c18 .cfa: x29 96 + x19: .cfa -8 + ^ x20: .cfa -16 + ^ x21: .cfa -24 + ^ x22: .cfa -32 + ^ x23: .cfa -40 + ^ x24: .cfa -48 + ^ x25: .cfa -56 + ^ x26: .cfa -64 + ^ x27: .cfa -80 + ^ .ra: .cfa -88 + ^ x29: .cfa -96 + ^
STACK CFI 41ee4 .cfa: sp 224 +
STACK CFI 41f00 .cfa: sp 0 +
STACK CFI 41f04 .cfa: x29 96 +
STACK CFI 41fd0 .cfa: sp 224 +
STACK CFI 41fec .cfa: sp 0 +
STACK CFI 41ff0 .cfa: x29 96 +
STACK CFI INIT 420fc 5e8 .cfa: sp 0 +
STACK CFI 42100 .cfa: sp 288 +
STACK CFI 4211c .cfa: x29 96 + x19: .cfa -8 + ^ x20: .cfa -16 + ^ x21: .cfa -24 + ^ x22: .cfa -32 + ^ x23: .cfa -40 + ^ x24: .cfa -48 + ^ x25: .cfa -56 + ^ x26: .cfa -64 + ^ x28: .cfa -80 + ^ .ra: .cfa -88 + ^ x29: .cfa -96 + ^
STACK CFI 42518 .cfa: sp 288 +
STACK CFI 42534 .cfa: sp 0 +
STACK CFI 42538 .cfa: x29 96 +
STACK CFI INIT 426e8 4e0 .cfa: sp 0 +
STACK CFI 426ec .cfa: sp 224 +
STACK CFI 42704 .cfa: x29 80 + x19: .cfa -8 + ^ x20: .cfa -16 + ^ x21: .cfa -24 + ^ x22: .cfa -32 + ^ x23: .cfa -40 + ^ x24: .cfa -48 + ^ x25: .cfa -64 + ^ .ra: .cfa -72 + ^ x29: .cfa -80 + ^
STACK CFI 42a3c .cfa: sp 224 +
STACK CFI 42a54 .cfa: sp 0 +
STACK CFI 42a58 .cfa: x29 80 +
STACK CFI INIT 42bc8 110 .cfa: sp 0 +
STACK CFI 42bcc .cfa: sp 96 +
STACK CFI 42be0 .cfa: x29 64 + x19: .cfa -8 + ^ x20: .cfa -16 + ^ x21: .cfa -24 + ^ x22: .cfa -32 + ^ x23: .cfa -40 + ^ x24: .cfa -48 + ^ .ra: .cfa -56 + ^ x29: .cfa -64 + ^
STACK CFI 42c28 .cfa: sp 96 +
STACK CFI 42c3c .cfa: sp 0 +
STACK CFI 42c40 .cfa: x29 64 +
STACK CFI INIT 42cd8 1f4 .cfa: sp 0 +
STACK CFI 42cdc .cfa: sp 128 +
STACK CFI 42cf8 .cfa: x29 96 + x19: .cfa -8 + ^ x20: .cfa -16 + ^ x21: .cfa -24 + ^ x22: .cfa -32 + ^ x23: .cfa -40 + ^ x24: .cfa -48 + ^ x25: .cfa -56 + ^ x26: .cfa -64 + ^ x27: .cfa -72 + ^ x28: .cfa -80 + ^ .ra: .cfa -88 + ^ x29: .cfa -96 + ^
STACK CFI 42e84 .cfa: sp 128 +
STACK CFI 42ea0 .cfa: sp 0 +
STACK CFI 42ea4 .cfa: x29 96 +
STACK CFI INIT 42f48 168 .cfa: sp 0 +
STACK CFI 42f4c .cfa: sp 384 +
STACK CFI 42f60 .cfa: x29 64 + x19: .cfa -8 + ^ x20: .cfa -16 + ^ x21: .cfa -24 + ^ x22: .cfa -32 + ^ x23: .cfa -40 + ^ x28: .cfa -48 + ^ .ra: .cfa -56 + ^ x29: .cfa -64 + ^
STACK CFI 43058 .cfa: sp 384 +
STACK CFI 4306c .cfa: sp 0 +
STACK CFI 43070 .cfa: x29 64 +
STACK CFI INIT 43144 174 .cfa: sp 0 +
STACK CFI 43148 .cfa: sp 112 +
STACK CFI 43158 .cfa: x29 48 + x19: .cfa -8 + ^ x20: .cfa -16 + ^ x21: .cfa -32 + ^ .ra: .cfa -40 + ^ x29: .cfa -48 + ^
STACK CFI 43254 .cfa: sp 112 +
STACK CFI 43264 .cfa: sp 0 +
STACK CFI 43268 .cfa: x29 48 +
STACK CFI INIT 43390 100 .cfa: sp 0 +
STACK CFI 43394 .cfa: sp 96 +
STACK CFI 433a8 .cfa: x29 64 + x19: .cfa -8 + ^ x20: .cfa -16 + ^ x21: .cfa -24 + ^ x22: .cfa -32 + ^ x23: .cfa -48 + ^ .ra: .cfa -56 + ^ x29: .cfa -64 + ^
STACK CFI 43448 .cfa: sp 96 +
STACK CFI 4345c .cfa: sp 0 +
STACK CFI 43460 .cfa: x29 64 +
STACK CFI INIT 43490 d8 .cfa: sp 0 +
STACK CFI 43494 .cfa: sp 80 +
STACK CFI 434a4 .cfa: x29 48 + x19: .cfa -8 + ^ x20: .cfa -16 + ^ x21: .cfa -32 + ^ .ra: .cfa -40 + ^ x29: .cfa -48 + ^
STACK CFI 43524 .cfa: sp 80 +
STACK CFI 43534 .cfa: sp 0 +
STACK CFI 43538 .cfa: x29 48 +
STACK CFI INIT 43568 a8 .cfa: sp 0 +
STACK CFI 4356c .cfa: sp 32 +
STACK CFI 43574 .cfa: x29 32 + x19: .cfa -16 + ^ .ra: .cfa -24 + ^ x29: .cfa -32 + ^
STACK CFI 435a8 .cfa: sp 32 +
STACK CFI 435b0 .cfa: sp 0 +
STACK CFI 435b4 .cfa: x29 32 +
STACK CFI 435b8 .cfa: sp 32 +
STACK CFI 435c0 .cfa: sp 0 +
STACK CFI 435c4 .cfa: x29 32 +
STACK CFI INIT 43694 470 .cfa: sp 0 +
STACK CFI 43698 .cfa: sp 224 +
STACK CFI 436b4 .cfa: x29 96 + x19: .cfa -8 + ^ x20: .cfa -16 + ^ x21: .cfa -24 + ^ x22: .cfa -32 + ^ x23: .cfa -40 + ^ x24: .cfa -48 + ^ x25: .cfa -56 + ^ x26: .cfa -64 + ^ x27: .cfa -80 + ^ .ra: .cfa -88 + ^ x29: .cfa -96 + ^
STACK CFI 43910 .cfa: sp 224 +
STACK CFI 4392c .cfa: sp 0 +
STACK CFI 43930 .cfa: x29 96 +
STACK CFI 439fc .cfa: sp 224 +
STACK CFI 43a18 .cfa: sp 0 +
STACK CFI 43a1c .cfa: x29 96 +
STACK CFI INIT 43b20 924 .cfa: sp 0 +
STACK CFI 43b24 .cfa: sp 288 +
STACK CFI 43b40 .cfa: x29 96 + x19: .cfa -8 + ^ x20: .cfa -16 + ^ x21: .cfa -24 + ^ x22: .cfa -32 + ^ x23: .cfa -40 + ^ x24: .cfa -48 + ^ x25: .cfa -56 + ^ x26: .cfa -64 + ^ x27: .cfa -72 + ^ x28: .cfa -80 + ^ .ra: .cfa -88 + ^ x29: .cfa -96 + ^
STACK CFI 441bc .cfa: sp 288 +
STACK CFI 441d8 .cfa: sp 0 +
STACK CFI 441dc .cfa: x29 96 +
STACK CFI INIT 44448 4d8 .cfa: sp 0 +
STACK CFI 4444c .cfa: sp 176 +
STACK CFI 44468 .cfa: x29 96 + x19: .cfa -8 + ^ x20: .cfa -16 + ^ x21: .cfa -24 + ^ x22: .cfa -32 + ^ x23: .cfa -40 + ^ x24: .cfa -48 + ^ x25: .cfa -56 + ^ x26: .cfa -64 + ^ x27: .cfa -80 + ^ .ra: .cfa -88 + ^ x29: .cfa -96 + ^
STACK CFI 447b4 .cfa: sp 176 +
STACK CFI 447d0 .cfa: sp 0 +
STACK CFI 447d4 .cfa: x29 96 +
STACK CFI INIT 44d00 150 .cfa: sp 0 +
STACK CFI 44d04 .cfa: sp 96 +
STACK CFI 44d10 .cfa: x29 32 + x19: .cfa -8 + ^ x20: .cfa -16 + ^ .ra: .cfa -24 + ^ x29: .cfa -32 + ^
STACK CFI 44da4 .cfa: sp 96 +
STACK CFI 44db0 .cfa: sp 0 +
STACK CFI 44db4 .cfa: x29 32 +
STACK CFI INIT 44e50 20 .cfa: sp 0 +
STACK CFI 44e54 .cfa: sp 16 +
STACK CFI 44e58 .cfa: x29 16 + .ra: .cfa -8 + ^ x29: .cfa -16 + ^
STACK CFI 44e64 .cfa: sp 16 +
STACK CFI 44e68 .cfa: sp 0 +
STACK CFI 44e6c .cfa: x29 16 +
STACK CFI INIT 450c8 470 .cfa: sp 0 +
STACK CFI 450cc .cfa: sp 224 +
STACK CFI 450e8 .cfa: x29 96 + x19: .cfa -8 + ^ x20: .cfa -16 + ^ x21: .cfa -24 + ^ x22: .cfa -32 + ^ x23: .cfa -40 + ^ x24: .cfa -48 + ^ x25: .cfa -56 + ^ x26: .cfa -64 + ^ x27: .cfa -80 + ^ .ra: .cfa -88 + ^ x29: .cfa -96 + ^
STACK CFI 45344 .cfa: sp 224 +
STACK CFI 45360 .cfa: sp 0 +
STACK CFI 45364 .cfa: x29 96 +
STACK CFI 45430 .cfa: sp 224 +
STACK CFI 4544c .cfa: sp 0 +
STACK CFI 45450 .cfa: x29 96 +
STACK CFI INIT 45554 380 .cfa: sp 0 +
STACK CFI 45558 .cfa: sp 256 +
STACK CFI 4556c .cfa: x29 64 + x19: .cfa -8 + ^ x20: .cfa -16 + ^ x21: .cfa -24 + ^ x22: .cfa -32 + ^ x23: .cfa -48 + ^ .ra: .cfa -56 + ^ x29: .cfa -64 + ^
STACK CFI 457a8 .cfa: sp 256 +
STACK CFI 457bc .cfa: sp 0 +
STACK CFI 457c0 .cfa: x29 64 +
STACK CFI INIT 458d8 19c .cfa: sp 0 +
STACK CFI 458dc .cfa: sp 160 +
STACK CFI 458f0 .cfa: x29 64 + x19: .cfa -8 + ^ x20: .cfa -16 + ^ x21: .cfa -24 + ^ x22: .cfa -32 + ^ x23: .cfa -48 + ^ .ra: .cfa -56 + ^ x29: .cfa -64 + ^
STACK CFI 459f0 .cfa: sp 160 +
STACK CFI 45a04 .cfa: sp 0 +
STACK CFI 45a08 .cfa: x29 64 +
STACK CFI INIT 45a74 200 .cfa: sp 0 +
STACK CFI 45a78 .cfa: sp 144 +
STACK CFI 45a8c .cfa: x29 64 + x19: .cfa -8 + ^ x20: .cfa -16 + ^ x21: .cfa -24 + ^ x22: .cfa -32 + ^ x23: .cfa -40 + ^ x24: .cfa -48 + ^ .ra: .cfa -56 + ^ x29: .cfa -64 + ^
STACK CFI 45bf4 .cfa: sp 144 +
STACK CFI 45c08 .cfa: sp 0 +
STACK CFI 45c0c .cfa: x29 64 +
STACK CFI INIT 45d08 a38 .cfa: sp 0 +
STACK CFI 45d0c .cfa: sp 352 +
STACK CFI 45d28 .cfa: x29 96 + x19: .cfa -8 + ^ x20: .cfa -16 + ^ x21: .cfa -24 + ^ x22: .cfa -32 + ^ x23: .cfa -40 + ^ x24: .cfa -48 + ^ x25: .cfa -56 + ^ x26: .cfa -64 + ^ x27: .cfa -72 + ^ x28: .cfa -80 + ^ .ra: .cfa -88 + ^ x29: .cfa -96 + ^
STACK CFI 45e58 .cfa: sp 352 +
STACK CFI 45e74 .cfa: sp 0 +
STACK CFI 45e78 .cfa: x29 96 +
STACK CFI 464b0 .cfa: sp 352 +
STACK CFI 464cc .cfa: sp 0 +
STACK CFI 464d0 .cfa: x29 96 +
STACK CFI INIT 467c0 1114 .cfa: sp 0 +
STACK CFI 467c4 .cfa: sp 288 +
STACK CFI 467e0 .cfa: x29 96 + x19: .cfa -8 + ^ x20: .cfa -16 + ^ x21: .cfa -24 + ^ x22: .cfa -32 + ^ x23: .cfa -40 + ^ x24: .cfa -48 + ^ x25: .cfa -56 + ^ x26: .cfa -64 + ^ x27: .cfa -72 + ^ x28: .cfa -80 + ^ .ra: .cfa -88 + ^ x29: .cfa -96 + ^
STACK CFI 47408 .cfa: sp 288 +
STACK CFI 47424 .cfa: sp 0 +
STACK CFI 47428 .cfa: x29 96 +
STACK CFI INIT 478d8 1c4 .cfa: sp 0 +
STACK CFI 478dc .cfa: sp 112 +
STACK CFI 478f0 .cfa: x29 64 + x19: .cfa -8 + ^ x20: .cfa -16 + ^ x21: .cfa -24 + ^ x22: .cfa -32 + ^ x23: .cfa -48 + ^ .ra: .cfa -56 + ^ x29: .cfa -64 + ^
STACK CFI 479ec .cfa: sp 112 +
STACK CFI 47a00 .cfa: sp 0 +
STACK CFI 47a04 .cfa: x29 64 +
STACK CFI INIT 47a9c 110 .cfa: sp 0 +
STACK CFI 47aa0 .cfa: sp 96 +
STACK CFI 47ab4 .cfa: x29 64 + x19: .cfa -8 + ^ x20: .cfa -16 + ^ x21: .cfa -24 + ^ x22: .cfa -32 + ^ x23: .cfa -40 + ^ x24: .cfa -48 + ^ .ra: .cfa -56 + ^ x29: .cfa -64 + ^
STACK CFI 47afc .cfa: sp 96 +
STACK CFI 47b10 .cfa: sp 0 +
STACK CFI 47b14 .cfa: x29 64 +
STACK CFI INIT 47bc0 50 .cfa: sp 0 +
STACK CFI 47bc4 .cfa: sp 32 +
STACK CFI 47bcc .cfa: x29 32 + x19: .cfa -8 + ^ x20: .cfa -16 + ^ .ra: .cfa -24 + ^ x29: .cfa -32 + ^
STACK CFI INIT 47ccc 110 .cfa: sp 0 +
STACK CFI 47cd0 .cfa: sp 96 +
STACK CFI 47ce4 .cfa: x29 64 + x19: .cfa -8 + ^ x20: .cfa -16 + ^ x21: .cfa -24 + ^ x22: .cfa -32 + ^ x23: .cfa -40 + ^ x24: .cfa -48 + ^ .ra: .cfa -56 + ^ x29: .cfa -64 + ^
STACK CFI 47d2c .cfa: sp 96 +
STACK CFI 47d40 .cfa: sp 0 +
STACK CFI 47d44 .cfa: x29 64 +
STACK CFI INIT 47e68 5cc .cfa: sp 0 +
STACK CFI 47e6c .cfa: sp 144 +
STACK CFI 47e84 .cfa: x29 80 + x19: .cfa -8 + ^ x20: .cfa -16 + ^ x21: .cfa -24 + ^ x22: .cfa -32 + ^ x23: .cfa -40 + ^ x24: .cfa -48 + ^ x25: .cfa -56 + ^ x26: .cfa -64 + ^ .ra: .cfa -72 + ^ x29: .cfa -80 + ^
STACK CFI 4838c .cfa: sp 144 +
STACK CFI 483a4 .cfa: sp 0 +
STACK CFI 483a8 .cfa: x29 80 +
STACK CFI INIT 48434 184 .cfa: sp 0 +
STACK CFI 48438 .cfa: sp 160 +
STACK CFI 48450 .cfa: x29 80 + x19: .cfa -8 + ^ x20: .cfa -16 + ^ x21: .cfa -24 + ^ x22: .cfa -32 + ^ x23: .cfa -40 + ^ x24: .cfa -48 + ^ x25: .cfa -56 + ^ x26: .cfa -64 + ^ .ra: .cfa -72 + ^ x29: .cfa -80 + ^
STACK CFI 48550 .cfa: sp 160 +
STACK CFI 48568 .cfa: sp 0 +
STACK CFI 4856c .cfa: x29 80 +
STACK CFI INIT 49054 1dfc .cfa: sp 0 +
STACK CFI 49058 .cfa: sp 112 +
STACK CFI 49074 .cfa: x29 96 + x19: .cfa -8 + ^ x20: .cfa -16 + ^ x21: .cfa -24 + ^ x22: .cfa -32 + ^ x23: .cfa -40 + ^ x24: .cfa -48 + ^ x25: .cfa -56 + ^ x26: .cfa -64 + ^ x27: .cfa -72 + ^ x28: .cfa -80 + ^ .ra: .cfa -88 + ^ x29: .cfa -96 + ^ v8: .cfa -112 + ^
STACK CFI 49860 .cfa: sp 112 +
STACK CFI 4987c .cfa: sp 0 +
STACK CFI 49880 .cfa: x29 96 +
STACK CFI INIT 4b0d4 a8 .cfa: sp 0 +
STACK CFI 4b0d8 .cfa: sp 32 +
STACK CFI 4b0e0 .cfa: x29 32 + x19: .cfa -16 + ^ .ra: .cfa -24 + ^ x29: .cfa -32 + ^
STACK CFI 4b114 .cfa: sp 32 +
STACK CFI 4b11c .cfa: sp 0 +
STACK CFI 4b120 .cfa: x29 32 +
STACK CFI 4b124 .cfa: sp 32 +
STACK CFI 4b12c .cfa: sp 0 +
STACK CFI 4b130 .cfa: x29 32 +
STACK CFI INIT 4b40c 19c .cfa: sp 0 +
STACK CFI 4b410 .cfa: sp 112 +
STACK CFI 4b420 .cfa: x29 48 + x19: .cfa -8 + ^ x20: .cfa -16 + ^ x21: .cfa -32 + ^ .ra: .cfa -40 + ^ x29: .cfa -48 + ^
STACK CFI 4b500 .cfa: sp 112 +
STACK CFI 4b510 .cfa: sp 0 +
STACK CFI 4b514 .cfa: x29 48 +
STACK CFI INIT 4b5a8 1dc .cfa: sp 0 +
STACK CFI 4b5ac .cfa: sp 208 +
STACK CFI 4b5c4 .cfa: x29 80 + x19: .cfa -8 + ^ x20: .cfa -16 + ^ x21: .cfa -24 + ^ x22: .cfa -32 + ^ x23: .cfa -40 + ^ x24: .cfa -48 + ^ x25: .cfa -64 + ^ .ra: .cfa -72 + ^ x29: .cfa -80 + ^
STACK CFI 4b710 .cfa: sp 208 +
STACK CFI 4b728 .cfa: sp 0 +
STACK CFI 4b72c .cfa: x29 80 +
STACK CFI INIT 4b784 114c .cfa: sp 0 +
STACK CFI 4b788 .cfa: sp 368 +
STACK CFI 4b7a8 .cfa: x29 96 + x19: .cfa -8 + ^ x20: .cfa -16 + ^ x21: .cfa -24 + ^ x22: .cfa -32 + ^ x23: .cfa -40 + ^ x24: .cfa -48 + ^ x25: .cfa -56 + ^ x26: .cfa -64 + ^ x27: .cfa -72 + ^ x28: .cfa -80 + ^ .ra: .cfa -88 + ^ x29: .cfa -96 + ^ v8: .cfa -112 + ^
STACK CFI 4b894 .cfa: sp 368 +
STACK CFI 4b8b4 .cfa: sp 0 +
STACK CFI 4b8b8 .cfa: x29 96 +
STACK CFI 4c764 .cfa: sp 368 +
STACK CFI 4c784 .cfa: sp 0 +
STACK CFI 4c788 .cfa: x29 96 +
STACK CFI INIT 4cac8 8cc .cfa: sp 0 +
STACK CFI 4cacc .cfa: sp 176 +
STACK CFI 4cae8 .cfa: x29 96 + x19: .cfa -8 + ^ x20: .cfa -16 + ^ x21: .cfa -24 + ^ x22: .cfa -32 + ^ x23: .cfa -40 + ^ x24: .cfa -48 + ^ x25: .cfa -56 + ^ x26: .cfa -64 + ^ x27: .cfa -72 + ^ x28: .cfa -80 + ^ .ra: .cfa -88 + ^ x29: .cfa -96 + ^
STACK CFI 4d31c .cfa: sp 176 +
STACK CFI 4d338 .cfa: sp 0 +
STACK CFI 4d33c .cfa: x29 96 +
STACK CFI INIT 4d394 1b0 .cfa: sp 0 +
STACK CFI 4d398 .cfa: sp 112 +
STACK CFI 4d3b0 .cfa: x29 80 + x19: .cfa -8 + ^ x20: .cfa -16 + ^ x21: .cfa -24 + ^ x22: .cfa -32 + ^ x23: .cfa -40 + ^ x24: .cfa -48 + ^ x25: .cfa -64 + ^ .ra: .cfa -72 + ^ x29: .cfa -80 + ^
STACK CFI 4d4f8 .cfa: sp 112 +
STACK CFI 4d510 .cfa: sp 0 +
STACK CFI 4d514 .cfa: x29 80 +
STACK CFI INIT 4d544 308 .cfa: sp 0 +
STACK CFI 4d548 .cfa: sp 128 +
STACK CFI 4d560 .cfa: x29 80 + x19: .cfa -8 + ^ x20: .cfa -16 + ^ x21: .cfa -24 + ^ x22: .cfa -32 + ^ x23: .cfa -40 + ^ x24: .cfa -48 + ^ x25: .cfa -64 + ^ .ra: .cfa -72 + ^ x29: .cfa -80 + ^
STACK CFI 4d7f0 .cfa: sp 128 +
STACK CFI 4d808 .cfa: sp 0 +
STACK CFI 4d80c .cfa: x29 80 +
STACK CFI INIT 4d884 230 .cfa: sp 0 +
STACK CFI 4d888 .cfa: sp 176 +
STACK CFI 4d8a4 .cfa: x29 96 + x19: .cfa -8 + ^ x20: .cfa -16 + ^ x21: .cfa -24 + ^ x22: .cfa -32 + ^ x23: .cfa -40 + ^ x24: .cfa -48 + ^ x25: .cfa -56 + ^ x26: .cfa -64 + ^ x27: .cfa -72 + ^ x28: .cfa -80 + ^ .ra: .cfa -88 + ^ x29: .cfa -96 + ^
STACK CFI 4d8e4 .cfa: sp 176 +
STACK CFI 4d900 .cfa: sp 0 +
STACK CFI 4d904 .cfa: x29 96 +
STACK CFI INIT 4dab4 114 .cfa: sp 0 +
STACK CFI 4dab8 .cfa: sp 64 +
STACK CFI 4dac8 .cfa: x29 64 + x19: .cfa -8 + ^ x20: .cfa -16 + ^ x21: .cfa -24 + ^ x22: .cfa -32 + ^ x23: .cfa -48 + ^ .ra: .cfa -56 + ^ x29: .cfa -64 + ^
STACK CFI 4dba4 .cfa: sp 64 +
STACK CFI 4dbb4 .cfa: sp 0 +
STACK CFI 4dbb8 .cfa: x29 64 +
STACK CFI INIT 4dbe4 220 .cfa: sp 0 +
STACK CFI 4dbe8 .cfa: sp 96 +
STACK CFI 4dc00 .cfa: x29 96 + x19: .cfa -8 + ^ x20: .cfa -16 + ^ x21: .cfa -24 + ^ x22: .cfa -32 + ^ x23: .cfa -40 + ^ x24: .cfa -48 + ^ x25: .cfa -56 + ^ x26: .cfa -64 + ^ x27: .cfa -72 + ^ x28: .cfa -80 + ^ .ra: .cfa -88 + ^ x29: .cfa -96 + ^
STACK CFI 4ddd4 .cfa: sp 96 +
STACK CFI 4ddec .cfa: sp 0 +
STACK CFI 4ddf0 .cfa: x29 96 +
STACK CFI INIT 4ded8 108 .cfa: sp 0 +
STACK CFI 4dedc .cfa: sp 112 +
STACK CFI 4dee8 .cfa: x29 32 + x19: .cfa -8 + ^ x20: .cfa -16 + ^ .ra: .cfa -24 + ^ x29: .cfa -32 + ^
STACK CFI 4dfb0 .cfa: sp 112 +
STACK CFI 4dfbc .cfa: sp 0 +
STACK CFI 4dfc0 .cfa: x29 32 +
STACK CFI INIT 4e010 1c .cfa: sp 0 +
STACK CFI 4e014 .cfa: sp 16 +
STACK CFI 4e018 .cfa: x29 16 + .ra: .cfa -8 + ^ x29: .cfa -16 + ^
STACK CFI 4e020 .cfa: sp 16 +
STACK CFI 4e024 .cfa: sp 0 +
STACK CFI 4e028 .cfa: x29 16 +
STACK CFI INIT 4e02c 2c0 .cfa: sp 0 +
STACK CFI 4e030 .cfa: sp 176 +
STACK CFI 4e04c .cfa: x29 96 + x19: .cfa -8 + ^ x20: .cfa -16 + ^ x21: .cfa -24 + ^ x22: .cfa -32 + ^ x23: .cfa -40 + ^ x24: .cfa -48 + ^ x25: .cfa -56 + ^ x26: .cfa -64 + ^ x27: .cfa -80 + ^ .ra: .cfa -88 + ^ x29: .cfa -96 + ^
STACK CFI 4e25c .cfa: sp 176 +
STACK CFI 4e260 .cfa: x29 96 +
STACK CFI 4e278 .cfa: sp 176 +
STACK CFI 4e294 .cfa: sp 0 +
STACK CFI 4e298 .cfa: x29 96 +
STACK CFI INIT 4e2ec 4f4 .cfa: sp 0 +
STACK CFI 4e2f0 .cfa: sp 128 +
STACK CFI 4e30c .cfa: x29 96 + x19: .cfa -8 + ^ x20: .cfa -16 + ^ x21: .cfa -24 + ^ x22: .cfa -32 + ^ x23: .cfa -40 + ^ x24: .cfa -48 + ^ x25: .cfa -56 + ^ x26: .cfa -64 + ^ x27: .cfa -72 + ^ x28: .cfa -80 + ^ .ra: .cfa -88 + ^ x29: .cfa -96 + ^
STACK CFI 4e774 .cfa: sp 128 +
STACK CFI 4e790 .cfa: sp 0 +
STACK CFI 4e794 .cfa: x29 96 +
STACK CFI INIT 4ef98 120 .cfa: sp 0 +
STACK CFI 4ef9c .cfa: sp 96 +
STACK CFI 4efa8 .cfa: x29 32 + x19: .cfa -8 + ^ x20: .cfa -16 + ^ .ra: .cfa -24 + ^ x29: .cfa -32 + ^
STACK CFI 4f040 .cfa: sp 96 +
STACK CFI 4f04c .cfa: sp 0 +
STACK CFI 4f050 .cfa: x29 32 +
STACK CFI INIT 4f0b8 10c .cfa: sp 0 +
STACK CFI 4f0bc .cfa: sp 32 +
STACK CFI 4f0c4 .cfa: x29 32 + x19: .cfa -8 + ^ x20: .cfa -16 + ^ .ra: .cfa -24 + ^ x29: .cfa -32 + ^
STACK CFI 4f16c .cfa: sp 32 +
STACK CFI 4f174 .cfa: sp 0 +
STACK CFI 4f178 .cfa: x29 32 +
STACK CFI INIT 4f1c4 4d0 .cfa: sp 0 +
STACK CFI 4f1c8 .cfa: sp 272 +
STACK CFI 4f1dc .cfa: x29 64 + x19: .cfa -8 + ^ x20: .cfa -16 + ^ x21: .cfa -24 + ^ x22: .cfa -32 + ^ x23: .cfa -40 + ^ x28: .cfa -48 + ^ .ra: .cfa -56 + ^ x29: .cfa -64 + ^
STACK CFI 4f564 .cfa: sp 272 +
STACK CFI 4f578 .cfa: sp 0 +
STACK CFI 4f57c .cfa: x29 64 +
STACK CFI INIT 4f824 80 .cfa: sp 0 +
STACK CFI 4f828 .cfa: sp 32 +
STACK CFI 4f830 .cfa: x29 32 + x19: .cfa -8 + ^ x20: .cfa -16 + ^ .ra: .cfa -24 + ^ x29: .cfa -32 + ^
STACK CFI 4f86c .cfa: sp 32 +
STACK CFI 4f874 .cfa: sp 0 +
STACK CFI 4f878 .cfa: x29 32 +
STACK CFI 4f884 .cfa: sp 32 +
STACK CFI 4f88c .cfa: sp 0 +
STACK CFI 4f890 .cfa: x29 32 +
STACK CFI INIT 4fa3c 80 .cfa: sp 0 +
STACK CFI 4fa40 .cfa: sp 32 +
STACK CFI 4fa48 .cfa: x29 32 + x19: .cfa -8 + ^ x20: .cfa -16 + ^ .ra: .cfa -24 + ^ x29: .cfa -32 + ^
STACK CFI 4fa84 .cfa: sp 32 +
STACK CFI 4fa8c .cfa: sp 0 +
STACK CFI 4fa90 .cfa: x29 32 +
STACK CFI 4fa9c .cfa: sp 32 +
STACK CFI 4faa4 .cfa: sp 0 +
STACK CFI 4faa8 .cfa: x29 32 +
STACK CFI INIT 4fbf4 170 .cfa: sp 0 +
STACK CFI 4fbf8 .cfa: sp 160 +
STACK CFI 4fc08 .cfa: x29 48 + x19: .cfa -8 + ^ x20: .cfa -16 + ^ x21: .cfa -32 + ^ .ra: .cfa -40 + ^ x29: .cfa -48 + ^
STACK CFI 4fd08 .cfa: sp 160 +
STACK CFI 4fd18 .cfa: sp 0 +
STACK CFI 4fd1c .cfa: x29 48 +
STACK CFI INIT 4fe08 4cc .cfa: sp 0 +
STACK CFI 4fe0c .cfa: sp 128 +
STACK CFI 4fe28 .cfa: x29 96 + x19: .cfa -8 + ^ x20: .cfa -16 + ^ x21: .cfa -24 + ^ x22: .cfa -32 + ^ x23: .cfa -40 + ^ x24: .cfa -48 + ^ x25: .cfa -56 + ^ x26: .cfa -64 + ^ x27: .cfa -72 + ^ x28: .cfa -80 + ^ .ra: .cfa -88 + ^ x29: .cfa -96 + ^
STACK CFI 50284 .cfa: sp 128 +
STACK CFI 502a0 .cfa: sp 0 +
STACK CFI 502a4 .cfa: x29 96 +
STACK CFI INIT 50500 470 .cfa: sp 0 +
STACK CFI 50504 .cfa: sp 224 +
STACK CFI 50520 .cfa: x29 96 + x19: .cfa -8 + ^ x20: .cfa -16 + ^ x21: .cfa -24 + ^ x22: .cfa -32 + ^ x23: .cfa -40 + ^ x24: .cfa -48 + ^ x25: .cfa -56 + ^ x26: .cfa -64 + ^ x27: .cfa -80 + ^ .ra: .cfa -88 + ^ x29: .cfa -96 + ^
STACK CFI 5077c .cfa: sp 224 +
STACK CFI 50798 .cfa: sp 0 +
STACK CFI 5079c .cfa: x29 96 +
STACK CFI 50868 .cfa: sp 224 +
STACK CFI 50884 .cfa: sp 0 +
STACK CFI 50888 .cfa: x29 96 +
STACK CFI INIT 5098c 374 .cfa: sp 0 +
STACK CFI 50990 .cfa: sp 240 +
STACK CFI 509a4 .cfa: x29 64 + x19: .cfa -8 + ^ x20: .cfa -16 + ^ x21: .cfa -24 + ^ x22: .cfa -32 + ^ x23: .cfa -48 + ^ .ra: .cfa -56 + ^ x29: .cfa -64 + ^
STACK CFI 50bd4 .cfa: sp 240 +
STACK CFI 50be8 .cfa: sp 0 +
STACK CFI 50bec .cfa: x29 64 +
STACK CFI INIT 50d04 c8 .cfa: sp 0 +
STACK CFI 50d08 .cfa: sp 64 +
STACK CFI 50d14 .cfa: x29 32 + x19: .cfa -8 + ^ x20: .cfa -16 + ^ .ra: .cfa -24 + ^ x29: .cfa -32 + ^
STACK CFI 50d8c .cfa: sp 64 +
STACK CFI 50d98 .cfa: sp 0 +
STACK CFI 50d9c .cfa: x29 32 +
STACK CFI INIT 50dcc 8a4 .cfa: sp 0 +
STACK CFI 50dd0 .cfa: sp 272 +
STACK CFI 50dec .cfa: x29 96 + x19: .cfa -8 + ^ x20: .cfa -16 + ^ x21: .cfa -24 + ^ x22: .cfa -32 + ^ x23: .cfa -40 + ^ x24: .cfa -48 + ^ x25: .cfa -56 + ^ x26: .cfa -64 + ^ x27: .cfa -72 + ^ x28: .cfa -80 + ^ .ra: .cfa -88 + ^ x29: .cfa -96 + ^
STACK CFI 50f80 .cfa: sp 272 +
STACK CFI 50f9c .cfa: sp 0 +
STACK CFI 50fa0 .cfa: x29 96 +
STACK CFI 51418 .cfa: sp 272 +
STACK CFI 51434 .cfa: sp 0 +
STACK CFI 51438 .cfa: x29 96 +
STACK CFI INIT 5168c 324 .cfa: sp 0 +
STACK CFI 51690 .cfa: sp 224 +
STACK CFI 516a4 .cfa: x29 64 + x19: .cfa -8 + ^ x20: .cfa -16 + ^ x21: .cfa -24 + ^ x22: .cfa -32 + ^ x23: .cfa -48 + ^ .ra: .cfa -56 + ^ x29: .cfa -64 + ^
STACK CFI 51898 .cfa: sp 224 +
STACK CFI 518ac .cfa: sp 0 +
STACK CFI 518b0 .cfa: x29 64 +
STACK CFI INIT 519b4 110 .cfa: sp 0 +
STACK CFI 519b8 .cfa: sp 96 +
STACK CFI 519cc .cfa: x29 64 + x19: .cfa -8 + ^ x20: .cfa -16 + ^ x21: .cfa -24 + ^ x22: .cfa -32 + ^ x23: .cfa -40 + ^ x24: .cfa -48 + ^ .ra: .cfa -56 + ^ x29: .cfa -64 + ^
STACK CFI 51a14 .cfa: sp 96 +
STACK CFI 51a28 .cfa: sp 0 +
STACK CFI 51a2c .cfa: x29 64 +
STACK CFI INIT 51b54 448 .cfa: sp 0 +
STACK CFI 51b58 .cfa: sp 144 +
STACK CFI 51b70 .cfa: x29 80 + x19: .cfa -8 + ^ x20: .cfa -16 + ^ x21: .cfa -24 + ^ x22: .cfa -32 + ^ x23: .cfa -40 + ^ x24: .cfa -48 + ^ x25: .cfa -64 + ^ .ra: .cfa -72 + ^ x29: .cfa -80 + ^
STACK CFI 51ba0 .cfa: sp 144 +
STACK CFI 51bb8 .cfa: sp 0 +
STACK CFI 51bbc .cfa: x29 80 +
STACK CFI 51f30 .cfa: sp 144 +
STACK CFI 51f48 .cfa: sp 0 +
STACK CFI 51f4c .cfa: x29 80 +
STACK CFI INIT 51f9c 190 .cfa: sp 0 +
STACK CFI 51fa0 .cfa: sp 112 +
STACK CFI 51fb0 .cfa: x29 48 + x19: .cfa -8 + ^ x20: .cfa -16 + ^ x21: .cfa -32 + ^ .ra: .cfa -40 + ^ x29: .cfa -48 + ^
STACK CFI 52080 .cfa: sp 112 +
STACK CFI 52090 .cfa: sp 0 +
STACK CFI 52094 .cfa: x29 48 +
STACK CFI INIT 52278 470 .cfa: sp 0 +
STACK CFI 5227c .cfa: sp 224 +
STACK CFI 52298 .cfa: x29 96 + x19: .cfa -8 + ^ x20: .cfa -16 + ^ x21: .cfa -24 + ^ x22: .cfa -32 + ^ x23: .cfa -40 + ^ x24: .cfa -48 + ^ x25: .cfa -56 + ^ x26: .cfa -64 + ^ x27: .cfa -80 + ^ .ra: .cfa -88 + ^ x29: .cfa -96 + ^
STACK CFI 524f4 .cfa: sp 224 +
STACK CFI 52510 .cfa: sp 0 +
STACK CFI 52514 .cfa: x29 96 +
STACK CFI 525e0 .cfa: sp 224 +
STACK CFI 525fc .cfa: sp 0 +
STACK CFI 52600 .cfa: x29 96 +
STACK CFI INIT 52704 32c .cfa: sp 0 +
STACK CFI 52708 .cfa: sp 240 +
STACK CFI 5271c .cfa: x29 64 + x19: .cfa -8 + ^ x20: .cfa -16 + ^ x21: .cfa -24 + ^ x22: .cfa -32 + ^ x23: .cfa -48 + ^ .ra: .cfa -56 + ^ x29: .cfa -64 + ^
STACK CFI 52918 .cfa: sp 240 +
STACK CFI 5292c .cfa: sp 0 +
STACK CFI 52930 .cfa: x29 64 +
STACK CFI INIT 52cdc 840 .cfa: sp 0 +
STACK CFI 52ce0 .cfa: sp 240 +
STACK CFI 52cfc .cfa: x29 96 + x19: .cfa -8 + ^ x20: .cfa -16 + ^ x21: .cfa -24 + ^ x22: .cfa -32 + ^ x23: .cfa -40 + ^ x24: .cfa -48 + ^ x25: .cfa -56 + ^ x26: .cfa -64 + ^ x27: .cfa -80 + ^ .ra: .cfa -88 + ^ x29: .cfa -96 + ^
STACK CFI 52e38 .cfa: sp 240 +
STACK CFI 52e54 .cfa: sp 0 +
STACK CFI 52e58 .cfa: x29 96 +
STACK CFI 532c4 .cfa: sp 240 +
STACK CFI 532e0 .cfa: sp 0 +
STACK CFI 532e4 .cfa: x29 96 +
STACK CFI INIT 53538 2f4 .cfa: sp 0 +
STACK CFI 5353c .cfa: sp 176 +
STACK CFI 53550 .cfa: x29 64 + x19: .cfa -8 + ^ x20: .cfa -16 + ^ x21: .cfa -24 + ^ x22: .cfa -32 + ^ x23: .cfa -48 + ^ .ra: .cfa -56 + ^ x29: .cfa -64 + ^
STACK CFI 53724 .cfa: sp 176 +
STACK CFI 53738 .cfa: sp 0 +
STACK CFI 5373c .cfa: x29 64 +
STACK CFI INIT 53830 204 .cfa: sp 0 +
STACK CFI 53834 .cfa: sp 128 +
STACK CFI 53848 .cfa: x29 64 + x19: .cfa -8 + ^ x20: .cfa -16 + ^ x21: .cfa -24 + ^ x22: .cfa -32 + ^ x23: .cfa -48 + ^ .ra: .cfa -56 + ^ x29: .cfa -64 + ^
STACK CFI 539c4 .cfa: sp 128 +
STACK CFI 539d8 .cfa: sp 0 +
STACK CFI 539dc .cfa: x29 64 +
STACK CFI INIT 53a34 74 .cfa: sp 0 +
STACK CFI 53a38 .cfa: sp 48 +
STACK CFI 53a44 .cfa: x29 32 + x19: .cfa -8 + ^ x20: .cfa -16 + ^ .ra: .cfa -24 + ^ x29: .cfa -32 + ^
STACK CFI 53a90 .cfa: sp 48 +
STACK CFI 53a9c .cfa: sp 0 +
STACK CFI 53aa0 .cfa: x29 32 +
STACK CFI INIT 53b34 1ac .cfa: sp 0 +
STACK CFI 53b38 .cfa: sp 96 +
STACK CFI 53b4c .cfa: x29 64 + x19: .cfa -8 + ^ x20: .cfa -16 + ^ x21: .cfa -24 + ^ x22: .cfa -32 + ^ x23: .cfa -48 + ^ .ra: .cfa -56 + ^ x29: .cfa -64 + ^
STACK CFI 53c98 .cfa: sp 96 +
STACK CFI 53cac .cfa: sp 0 +
STACK CFI 53cb0 .cfa: x29 64 +
STACK CFI INIT 53ce0 a8 .cfa: sp 0 +
STACK CFI 53ce4 .cfa: sp 32 +
STACK CFI 53cec .cfa: x29 32 + x19: .cfa -16 + ^ .ra: .cfa -24 + ^ x29: .cfa -32 + ^
STACK CFI 53d20 .cfa: sp 32 +
STACK CFI 53d28 .cfa: sp 0 +
STACK CFI 53d2c .cfa: x29 32 +
STACK CFI 53d30 .cfa: sp 32 +
STACK CFI 53d38 .cfa: sp 0 +
STACK CFI 53d3c .cfa: x29 32 +
STACK CFI INIT 53e24 8b8 .cfa: sp 0 +
STACK CFI 53e28 .cfa: sp 272 +
STACK CFI 53e44 .cfa: x29 96 + x19: .cfa -8 + ^ x20: .cfa -16 + ^ x21: .cfa -24 + ^ x22: .cfa -32 + ^ x23: .cfa -40 + ^ x24: .cfa -48 + ^ x25: .cfa -56 + ^ x26: .cfa -64 + ^ x27: .cfa -72 + ^ x28: .cfa -80 + ^ .ra: .cfa -88 + ^ x29: .cfa -96 + ^
STACK CFI 53fec .cfa: sp 272 +
STACK CFI 54008 .cfa: sp 0 +
STACK CFI 5400c .cfa: x29 96 +
STACK CFI 54484 .cfa: sp 272 +
STACK CFI 544a0 .cfa: sp 0 +
STACK CFI 544a4 .cfa: x29 96 +
STACK CFI INIT 546f8 1844 .cfa: sp 0 +
STACK CFI 546fc .cfa: sp 288 +
STACK CFI 54718 .cfa: x29 96 + x19: .cfa -8 + ^ x20: .cfa -16 + ^ x21: .cfa -24 + ^ x22: .cfa -32 + ^ x23: .cfa -40 + ^ x24: .cfa -48 + ^ x25: .cfa -56 + ^ x26: .cfa -64 + ^ x27: .cfa -72 + ^ x28: .cfa -80 + ^ .ra: .cfa -88 + ^ x29: .cfa -96 + ^
STACK CFI 558d0 .cfa: sp 288 +
STACK CFI 558ec .cfa: sp 0 +
STACK CFI 558f0 .cfa: x29 96 +
STACK CFI INIT 55f40 110 .cfa: sp 0 +
STACK CFI 55f44 .cfa: sp 96 +
STACK CFI 55f58 .cfa: x29 64 + x19: .cfa -8 + ^ x20: .cfa -16 + ^ x21: .cfa -24 + ^ x22: .cfa -32 + ^ x23: .cfa -40 + ^ x24: .cfa -48 + ^ .ra: .cfa -56 + ^ x29: .cfa -64 + ^
STACK CFI 55fa0 .cfa: sp 96 +
STACK CFI 55fb4 .cfa: sp 0 +
STACK CFI 55fb8 .cfa: x29 64 +
STACK CFI INIT 560dc 184 .cfa: sp 0 +
STACK CFI 560e0 .cfa: sp 144 +
STACK CFI 560f8 .cfa: x29 80 + x19: .cfa -8 + ^ x20: .cfa -16 + ^ x21: .cfa -24 + ^ x22: .cfa -32 + ^ x23: .cfa -40 + ^ x24: .cfa -48 + ^ x25: .cfa -56 + ^ x26: .cfa -64 + ^ .ra: .cfa -72 + ^ x29: .cfa -80 + ^
STACK CFI 561f8 .cfa: sp 144 +
STACK CFI 56210 .cfa: sp 0 +
STACK CFI 56214 .cfa: x29 80 +
STACK CFI INIT 562f4 408 .cfa: sp 0 +
STACK CFI 562f8 .cfa: sp 192 +
STACK CFI 5630c .cfa: x29 48 + x19: .cfa -8 + ^ x20: .cfa -16 + ^ x21: .cfa -24 + ^ x22: .cfa -32 + ^ .ra: .cfa -40 + ^ x29: .cfa -48 + ^ v8: .cfa -56 + ^ v9: .cfa -64 + ^
STACK CFI 5635c .cfa: sp 192 +
STACK CFI 56370 .cfa: sp 0 +
STACK CFI 56374 .cfa: x29 48 +
STACK CFI 564ac .cfa: sp 192 +
STACK CFI 564c0 .cfa: sp 0 +
STACK CFI 564c4 .cfa: x29 48 +
STACK CFI INIT 5674c 104 .cfa: sp 0 +
STACK CFI 56750 .cfa: sp 80 +
STACK CFI 56760 .cfa: x29 48 + x19: .cfa -8 + ^ x20: .cfa -16 + ^ x21: .cfa -32 + ^ .ra: .cfa -40 + ^ x29: .cfa -48 + ^
STACK CFI 56794 .cfa: sp 80 +
STACK CFI 567a4 .cfa: sp 0 +
STACK CFI 567a8 .cfa: x29 48 +
STACK CFI 5680c .cfa: sp 80 +
STACK CFI 5681c .cfa: sp 0 +
STACK CFI 56820 .cfa: x29 48 +
STACK CFI INIT 56878 104 .cfa: sp 0 +
STACK CFI 5687c .cfa: sp 80 +
STACK CFI 5688c .cfa: x29 48 + x19: .cfa -8 + ^ x20: .cfa -16 + ^ x21: .cfa -32 + ^ .ra: .cfa -40 + ^ x29: .cfa -48 + ^
STACK CFI 568c0 .cfa: sp 80 +
STACK CFI 568d0 .cfa: sp 0 +
STACK CFI 568d4 .cfa: x29 48 +
STACK CFI 56938 .cfa: sp 80 +
STACK CFI 56948 .cfa: sp 0 +
STACK CFI 5694c .cfa: x29 48 +
STACK CFI INIT 569cc 14c .cfa: sp 0 +
STACK CFI 569d0 .cfa: sp 80 +
STACK CFI 569e0 .cfa: x29 48 + x19: .cfa -8 + ^ x20: .cfa -16 + ^ x21: .cfa -32 + ^ .ra: .cfa -40 + ^ x29: .cfa -48 + ^
STACK CFI 56acc .cfa: sp 80 +
STACK CFI 56adc .cfa: sp 0 +
STACK CFI 56ae0 .cfa: x29 48 +
STACK CFI INIT 56b18 1dc .cfa: sp 0 +
STACK CFI 56b1c .cfa: sp 144 +
STACK CFI 56b30 .cfa: x29 64 + x19: .cfa -8 + ^ x20: .cfa -16 + ^ x21: .cfa -24 + ^ x22: .cfa -32 + ^ x23: .cfa -48 + ^ .ra: .cfa -56 + ^ x29: .cfa -64 + ^
STACK CFI 56c58 .cfa: sp 144 +
STACK CFI 56c6c .cfa: sp 0 +
STACK CFI 56c70 .cfa: x29 64 +
STACK CFI INIT 56cf4 8b4 .cfa: sp 0 +
STACK CFI 56cf8 .cfa: sp 272 +
STACK CFI 56d14 .cfa: x29 96 + x19: .cfa -8 + ^ x20: .cfa -16 + ^ x21: .cfa -24 + ^ x22: .cfa -32 + ^ x23: .cfa -40 + ^ x24: .cfa -48 + ^ x25: .cfa -56 + ^ x26: .cfa -64 + ^ x27: .cfa -72 + ^ x28: .cfa -80 + ^ .ra: .cfa -88 + ^ x29: .cfa -96 + ^
STACK CFI 56eb8 .cfa: sp 272 +
STACK CFI 56ed4 .cfa: sp 0 +
STACK CFI 56ed8 .cfa: x29 96 +
STACK CFI 57350 .cfa: sp 272 +
STACK CFI 5736c .cfa: sp 0 +
STACK CFI 57370 .cfa: x29 96 +
STACK CFI INIT 575c4 62c .cfa: sp 0 +
STACK CFI 575c8 .cfa: sp 288 +
STACK CFI 575e4 .cfa: x29 96 + x19: .cfa -8 + ^ x20: .cfa -16 + ^ x21: .cfa -24 + ^ x22: .cfa -32 + ^ x23: .cfa -40 + ^ x24: .cfa -48 + ^ x25: .cfa -56 + ^ x26: .cfa -64 + ^ x28: .cfa -80 + ^ .ra: .cfa -88 + ^ x29: .cfa -96 + ^
STACK CFI 57a18 .cfa: sp 288 +
STACK CFI 57a34 .cfa: sp 0 +
STACK CFI 57a38 .cfa: x29 96 +
STACK CFI INIT 57bf4 110 .cfa: sp 0 +
STACK CFI 57bf8 .cfa: sp 96 +
STACK CFI 57c0c .cfa: x29 64 + x19: .cfa -8 + ^ x20: .cfa -16 + ^ x21: .cfa -24 + ^ x22: .cfa -32 + ^ x23: .cfa -40 + ^ x24: .cfa -48 + ^ .ra: .cfa -56 + ^ x29: .cfa -64 + ^
STACK CFI 57c54 .cfa: sp 96 +
STACK CFI 57c68 .cfa: sp 0 +
STACK CFI 57c6c .cfa: x29 64 +
STACK CFI INIT 57d90 12c .cfa: sp 0 +
STACK CFI 57d94 .cfa: sp 80 +
STACK CFI 57da4 .cfa: x29 48 + x19: .cfa -8 + ^ x20: .cfa -16 + ^ x21: .cfa -32 + ^ .ra: .cfa -40 + ^ x29: .cfa -48 + ^
STACK CFI 57e78 .cfa: sp 80 +
STACK CFI 57e88 .cfa: sp 0 +
STACK CFI 57e8c .cfa: x29 48 +
STACK CFI INIT 57ebc 164 .cfa: sp 0 +
STACK CFI 57ec0 .cfa: sp 112 +
STACK CFI 57ed0 .cfa: x29 48 + x19: .cfa -8 + ^ x20: .cfa -16 + ^ x21: .cfa -24 + ^ x22: .cfa -32 + ^ .ra: .cfa -40 + ^ x29: .cfa -48 + ^
STACK CFI 57fa4 .cfa: sp 112 +
STACK CFI 57fb4 .cfa: sp 0 +
STACK CFI 57fb8 .cfa: x29 48 +
STACK CFI INIT 58020 704 .cfa: sp 0 +
STACK CFI 58024 .cfa: sp 128 +
STACK CFI 58038 .cfa: x29 64 + x19: .cfa -8 + ^ x20: .cfa -16 + ^ x21: .cfa -24 + ^ x22: .cfa -32 + ^ x23: .cfa -40 + ^ x24: .cfa -48 + ^ .ra: .cfa -56 + ^ x29: .cfa -64 + ^
STACK CFI 585e8 .cfa: sp 128 +
STACK CFI 585fc .cfa: sp 0 +
STACK CFI 58600 .cfa: x29 64 +
STACK CFI INIT 58724 fc .cfa: sp 0 +
STACK CFI 58728 .cfa: sp 80 +
STACK CFI 58738 .cfa: x29 48 + x19: .cfa -8 + ^ x20: .cfa -16 + ^ x21: .cfa -24 + ^ x22: .cfa -32 + ^ .ra: .cfa -40 + ^ x29: .cfa -48 + ^
STACK CFI 587dc .cfa: sp 80 +
STACK CFI 587ec .cfa: sp 0 +
STACK CFI 587f0 .cfa: x29 48 +
STACK CFI INIT 58890 470 .cfa: sp 0 +
STACK CFI 58894 .cfa: sp 224 +
STACK CFI 588b0 .cfa: x29 96 + x19: .cfa -8 + ^ x20: .cfa -16 + ^ x21: .cfa -24 + ^ x22: .cfa -32 + ^ x23: .cfa -40 + ^ x24: .cfa -48 + ^ x25: .cfa -56 + ^ x26: .cfa -64 + ^ x27: .cfa -80 + ^ .ra: .cfa -88 + ^ x29: .cfa -96 + ^
STACK CFI 58b0c .cfa: sp 224 +
STACK CFI 58b28 .cfa: sp 0 +
STACK CFI 58b2c .cfa: x29 96 +
STACK CFI 58bf8 .cfa: sp 224 +
STACK CFI 58c14 .cfa: sp 0 +
STACK CFI 58c18 .cfa: x29 96 +
STACK CFI INIT 58d1c 3bc .cfa: sp 0 +
STACK CFI 58d20 .cfa: sp 256 +
STACK CFI 58d34 .cfa: x29 64 + x19: .cfa -8 + ^ x20: .cfa -16 + ^ x21: .cfa -24 + ^ x22: .cfa -32 + ^ x23: .cfa -48 + ^ .ra: .cfa -56 + ^ x29: .cfa -64 + ^
STACK CFI 58fa0 .cfa: sp 256 +
STACK CFI 58fb4 .cfa: sp 0 +
STACK CFI 58fb8 .cfa: x29 64 +
STACK CFI INIT 590dc c8 .cfa: sp 0 +
STACK CFI 590e0 .cfa: sp 64 +
STACK CFI 590ec .cfa: x29 32 + x19: .cfa -8 + ^ x20: .cfa -16 + ^ .ra: .cfa -24 + ^ x29: .cfa -32 + ^
STACK CFI 59164 .cfa: sp 64 +
STACK CFI 59170 .cfa: sp 0 +
STACK CFI 59174 .cfa: x29 32 +
STACK CFI INIT 591a8 9e4 .cfa: sp 0 +
STACK CFI 591ac .cfa: sp 224 +
STACK CFI 591c8 .cfa: x29 96 + x19: .cfa -8 + ^ x20: .cfa -16 + ^ x21: .cfa -24 + ^ x22: .cfa -32 + ^ x23: .cfa -40 + ^ x24: .cfa -48 + ^ x25: .cfa -56 + ^ x26: .cfa -64 + ^ x27: .cfa -72 + ^ x28: .cfa -80 + ^ .ra: .cfa -88 + ^ x29: .cfa -96 + ^
STACK CFI 59a4c .cfa: sp 224 +
STACK CFI 59a68 .cfa: sp 0 +
STACK CFI 59a6c .cfa: x29 96 +
STACK CFI INIT 59b8c 804 .cfa: sp 0 +
STACK CFI 59b90 .cfa: sp 240 +
STACK CFI 59bac .cfa: x29 96 + x19: .cfa -8 + ^ x20: .cfa -16 + ^ x21: .cfa -24 + ^ x22: .cfa -32 + ^ x23: .cfa -40 + ^ x24: .cfa -48 + ^ x25: .cfa -56 + ^ x26: .cfa -64 + ^ x27: .cfa -72 + ^ x28: .cfa -80 + ^ .ra: .cfa -88 + ^ x29: .cfa -96 + ^
STACK CFI 5a1e8 .cfa: sp 240 +
STACK CFI 5a204 .cfa: sp 0 +
STACK CFI 5a208 .cfa: x29 96 +
STACK CFI INIT 5a390 bfc .cfa: sp 0 +
STACK CFI 5a394 .cfa: sp 368 +
STACK CFI 5a3b0 .cfa: x29 96 + x19: .cfa -8 + ^ x20: .cfa -16 + ^ x21: .cfa -24 + ^ x22: .cfa -32 + ^ x23: .cfa -40 + ^ x24: .cfa -48 + ^ x25: .cfa -56 + ^ x26: .cfa -64 + ^ x27: .cfa -72 + ^ x28: .cfa -80 + ^ .ra: .cfa -88 + ^ x29: .cfa -96 + ^
STACK CFI 5ad54 .cfa: sp 368 +
STACK CFI 5ad70 .cfa: sp 0 +
STACK CFI 5ad74 .cfa: x29 96 +
STACK CFI INIT 5b11c a68 .cfa: sp 0 +
STACK CFI 5b120 .cfa: sp 304 +
STACK CFI 5b134 .cfa: x29 64 + x19: .cfa -8 + ^ x20: .cfa -16 + ^ x21: .cfa -24 + ^ x22: .cfa -32 + ^ x23: .cfa -40 + ^ x28: .cfa -48 + ^ .ra: .cfa -56 + ^ x29: .cfa -64 + ^
STACK CFI 5b904 .cfa: sp 304 +
STACK CFI 5b918 .cfa: sp 0 +
STACK CFI 5b91c .cfa: x29 64 +
STACK CFI INIT 5bb84 4ec .cfa: sp 0 +
STACK CFI 5bb88 .cfa: sp 192 +
STACK CFI 5bb98 .cfa: x29 48 + x19: .cfa -8 + ^ x20: .cfa -16 + ^ x21: .cfa -24 + ^ x22: .cfa -32 + ^ .ra: .cfa -40 + ^ x29: .cfa -48 + ^
STACK CFI 5bf20 .cfa: sp 192 +
STACK CFI 5bf30 .cfa: sp 0 +
STACK CFI 5bf34 .cfa: x29 48 +
STACK CFI INIT 5c82c 188 .cfa: sp 0 +
STACK CFI 5c830 .cfa: sp 160 +
STACK CFI 5c848 .cfa: x29 80 + x19: .cfa -8 + ^ x20: .cfa -16 + ^ x21: .cfa -24 + ^ x22: .cfa -32 + ^ x23: .cfa -40 + ^ x24: .cfa -48 + ^ x25: .cfa -56 + ^ x26: .cfa -64 + ^ .ra: .cfa -72 + ^ x29: .cfa -80 + ^
STACK CFI 5c950 .cfa: sp 160 +
STACK CFI 5c968 .cfa: sp 0 +
STACK CFI 5c96c .cfa: x29 80 +
STACK CFI INIT 5c9b4 1cc .cfa: sp 0 +
STACK CFI 5c9b8 .cfa: sp 96 +
STACK CFI 5c9cc .cfa: x29 64 + x19: .cfa -8 + ^ x20: .cfa -16 + ^ x21: .cfa -24 + ^ x22: .cfa -32 + ^ x23: .cfa -48 + ^ .ra: .cfa -56 + ^ x29: .cfa -64 + ^
STACK CFI 5cb50 .cfa: sp 96 +
STACK CFI 5cb64 .cfa: sp 0 +
STACK CFI 5cb68 .cfa: x29 64 +
STACK CFI INIT 5cb80 1928 .cfa: sp 0 +
STACK CFI 5cb84 .cfa: sp 96 +
STACK CFI 5cb9c .cfa: x29 96 + x19: .cfa -8 + ^ x20: .cfa -16 + ^ x21: .cfa -24 + ^ x22: .cfa -32 + ^ x23: .cfa -40 + ^ x24: .cfa -48 + ^ x25: .cfa -56 + ^ x26: .cfa -64 + ^ x27: .cfa -72 + ^ x28: .cfa -80 + ^ .ra: .cfa -88 + ^ x29: .cfa -96 + ^
STACK CFI 5df74 .cfa: sp 96 +
STACK CFI 5df8c .cfa: sp 0 +
STACK CFI 5df90 .cfa: x29 96 +
STACK CFI INIT 5e4f8 994 .cfa: sp 0 +
STACK CFI 5e4fc .cfa: sp 320 +
STACK CFI 5e514 .cfa: x29 80 + x19: .cfa -8 + ^ x20: .cfa -16 + ^ x21: .cfa -24 + ^ x22: .cfa -32 + ^ x23: .cfa -40 + ^ x24: .cfa -48 + ^ x25: .cfa -56 + ^ x28: .cfa -64 + ^ .ra: .cfa -72 + ^ x29: .cfa -80 + ^
STACK CFI 5eafc .cfa: sp 320 +
STACK CFI 5eb14 .cfa: sp 0 +
STACK CFI 5eb18 .cfa: x29 80 +
STACK CFI INIT 5ee8c 114 .cfa: sp 0 +
STACK CFI 5ee90 .cfa: sp 32 +
STACK CFI 5ee98 .cfa: x29 32 + x19: .cfa -8 + ^ x20: .cfa -16 + ^ .ra: .cfa -24 + ^ x29: .cfa -32 + ^
STACK CFI 5eef4 .cfa: sp 32 +
STACK CFI 5eefc .cfa: sp 0 +
STACK CFI 5ef00 .cfa: x29 32 +
STACK CFI 5ef48 .cfa: sp 32 +
STACK CFI 5ef50 .cfa: sp 0 +
STACK CFI 5ef54 .cfa: x29 32 +
STACK CFI INIT 5f114 1c54 .cfa: sp 0 +
STACK CFI 5f118 .cfa: sp 96 +
STACK CFI 5f130 .cfa: x29 96 + x19: .cfa -8 + ^ x20: .cfa -16 + ^ x21: .cfa -24 + ^ x22: .cfa -32 + ^ x23: .cfa -40 + ^ x24: .cfa -48 + ^ x25: .cfa -56 + ^ x26: .cfa -64 + ^ x27: .cfa -72 + ^ x28: .cfa -80 + ^ .ra: .cfa -88 + ^ x29: .cfa -96 + ^
STACK CFI 606e0 .cfa: sp 96 +
STACK CFI 606f8 .cfa: sp 0 +
STACK CFI 606fc .cfa: x29 96 +
STACK CFI INIT 60e60 434 .cfa: sp 0 +
STACK CFI 60e64 .cfa: sp 352 +
STACK CFI 60e80 .cfa: x29 96 + x19: .cfa -8 + ^ x20: .cfa -16 + ^ x21: .cfa -24 + ^ x22: .cfa -32 + ^ x23: .cfa -40 + ^ x24: .cfa -48 + ^ x25: .cfa -56 + ^ x26: .cfa -64 + ^ x27: .cfa -72 + ^ x28: .cfa -80 + ^ .ra: .cfa -88 + ^ x29: .cfa -96 + ^
STACK CFI 61178 .cfa: sp 352 +
STACK CFI 61194 .cfa: sp 0 +
STACK CFI 61198 .cfa: x29 96 +
STACK CFI INIT 61294 2e4 .cfa: sp 0 +
STACK CFI 61298 .cfa: sp 224 +
STACK CFI 612b4 .cfa: x29 96 + x19: .cfa -8 + ^ x20: .cfa -16 + ^ x21: .cfa -24 + ^ x22: .cfa -32 + ^ x23: .cfa -40 + ^ x24: .cfa -48 + ^ x25: .cfa -56 + ^ x26: .cfa -64 + ^ x27: .cfa -72 + ^ x28: .cfa -80 + ^ .ra: .cfa -88 + ^ x29: .cfa -96 + ^
STACK CFI 614c8 .cfa: sp 224 +
STACK CFI 614e4 .cfa: sp 0 +
STACK CFI 614e8 .cfa: x29 96 +
STACK CFI INIT 615b4 f0 .cfa: sp 0 +
STACK CFI 615b8 .cfa: sp 64 +
STACK CFI 615c4 .cfa: x29 32 + x19: .cfa -8 + ^ x20: .cfa -16 + ^ .ra: .cfa -24 + ^ x29: .cfa -32 + ^
STACK CFI 61664 .cfa: sp 64 +
STACK CFI 61670 .cfa: sp 0 +
STACK CFI 61674 .cfa: x29 32 +
STACK CFI INIT 616a4 1dc .cfa: sp 0 +
STACK CFI 616a8 .cfa: sp 208 +
STACK CFI 616c0 .cfa: x29 80 + x19: .cfa -8 + ^ x20: .cfa -16 + ^ x21: .cfa -24 + ^ x22: .cfa -32 + ^ x23: .cfa -40 + ^ x24: .cfa -48 + ^ x25: .cfa -64 + ^ .ra: .cfa -72 + ^ x29: .cfa -80 + ^
STACK CFI 6180c .cfa: sp 208 +
STACK CFI 61824 .cfa: sp 0 +
STACK CFI 61828 .cfa: x29 80 +
STACK CFI INIT 61880 3a0 .cfa: sp 0 +
STACK CFI 61884 .cfa: sp 80 +
STACK CFI 61898 .cfa: x29 80 + x19: .cfa -8 + ^ x20: .cfa -16 + ^ x21: .cfa -24 + ^ x22: .cfa -32 + ^ x23: .cfa -40 + ^ x24: .cfa -48 + ^ x25: .cfa -56 + ^ x28: .cfa -64 + ^ .ra: .cfa -72 + ^ x29: .cfa -80 + ^
STACK CFI 61b70 .cfa: sp 80 +
STACK CFI 61b84 .cfa: sp 0 +
STACK CFI 61b88 .cfa: x29 80 +
STACK CFI INIT 61cf8 132c .cfa: sp 0 +
STACK CFI 61cfc .cfa: sp 288 +
STACK CFI 61d18 .cfa: x29 96 + x19: .cfa -8 + ^ x20: .cfa -16 + ^ x21: .cfa -24 + ^ x22: .cfa -32 + ^ x23: .cfa -40 + ^ x24: .cfa -48 + ^ x25: .cfa -56 + ^ x26: .cfa -64 + ^ x27: .cfa -72 + ^ x28: .cfa -80 + ^ .ra: .cfa -88 + ^ x29: .cfa -96 + ^
STACK CFI 627b8 .cfa: sp 288 +
STACK CFI 627d4 .cfa: sp 0 +
STACK CFI 627d8 .cfa: x29 96 +
STACK CFI 62f58 .cfa: sp 288 +
STACK CFI 62f74 .cfa: sp 0 +
STACK CFI 62f78 .cfa: x29 96 +
STACK CFI INIT 63024 574 .cfa: sp 0 +
STACK CFI 63028 .cfa: sp 96 +
STACK CFI 63040 .cfa: x29 96 + x19: .cfa -8 + ^ x20: .cfa -16 + ^ x21: .cfa -24 + ^ x22: .cfa -32 + ^ x23: .cfa -40 + ^ x24: .cfa -48 + ^ x25: .cfa -56 + ^ x26: .cfa -64 + ^ x27: .cfa -72 + ^ x28: .cfa -80 + ^ .ra: .cfa -88 + ^ x29: .cfa -96 + ^
STACK CFI 63530 .cfa: sp 96 +
STACK CFI 63548 .cfa: sp 0 +
STACK CFI 6354c .cfa: x29 96 +
STACK CFI INIT 63cb0 254 .cfa: sp 0 +
STACK CFI 63cb4 .cfa: sp 96 +
STACK CFI 63ccc .cfa: x29 80 + x19: .cfa -8 + ^ x20: .cfa -16 + ^ x21: .cfa -24 + ^ x22: .cfa -32 + ^ x23: .cfa -40 + ^ x24: .cfa -48 + ^ x25: .cfa -64 + ^ .ra: .cfa -72 + ^ x29: .cfa -80 + ^
STACK CFI 63ee0 .cfa: sp 96 +
STACK CFI 63ef8 .cfa: sp 0 +
STACK CFI 63efc .cfa: x29 80 +
STACK CFI INIT 63f04 658 .cfa: sp 0 +
STACK CFI 63f08 .cfa: sp 128 +
STACK CFI 63f24 .cfa: x29 96 + x19: .cfa -8 + ^ x20: .cfa -16 + ^ x21: .cfa -24 + ^ x22: .cfa -32 + ^ x23: .cfa -40 + ^ x24: .cfa -48 + ^ x25: .cfa -56 + ^ x26: .cfa -64 + ^ x27: .cfa -72 + ^ x28: .cfa -80 + ^ .ra: .cfa -88 + ^ x29: .cfa -96 + ^
STACK CFI 644f8 .cfa: sp 128 +
STACK CFI 64514 .cfa: sp 0 +
STACK CFI 64518 .cfa: x29 96 +
STACK CFI INIT 6483c 344 .cfa: sp 0 +
STACK CFI 64840 .cfa: sp 128 +
STACK CFI 6485c .cfa: x29 96 + x19: .cfa -8 + ^ x20: .cfa -16 + ^ x21: .cfa -24 + ^ x22: .cfa -32 + ^ x23: .cfa -40 + ^ x24: .cfa -48 + ^ x25: .cfa -56 + ^ x26: .cfa -64 + ^ x27: .cfa -72 + ^ x28: .cfa -80 + ^ .ra: .cfa -88 + ^ x29: .cfa -96 + ^
STACK CFI 64ad4 .cfa: sp 128 +
STACK CFI 64af0 .cfa: sp 0 +
STACK CFI 64af4 .cfa: x29 96 +
STACK CFI INIT 64ccc 384 .cfa: sp 0 +
STACK CFI 64cd0 .cfa: sp 208 +
STACK CFI 64ce0 .cfa: x29 48 + x19: .cfa -8 + ^ x20: .cfa -16 + ^ x21: .cfa -24 + ^ x22: .cfa -32 + ^ .ra: .cfa -40 + ^ x29: .cfa -48 + ^
STACK CFI 64ebc .cfa: sp 208 +
STACK CFI 64ecc .cfa: sp 0 +
STACK CFI 64ed0 .cfa: x29 48 +
STACK CFI INIT 65274 370 .cfa: sp 0 +
STACK CFI 65278 .cfa: sp 176 +
STACK CFI 65288 .cfa: x29 48 + x19: .cfa -8 + ^ x20: .cfa -16 + ^ x21: .cfa -24 + ^ x22: .cfa -32 + ^ .ra: .cfa -40 + ^ x29: .cfa -48 + ^
STACK CFI 65464 .cfa: sp 176 +
STACK CFI 65474 .cfa: sp 0 +
STACK CFI 65478 .cfa: x29 48 +
STACK CFI INIT 65810 384 .cfa: sp 0 +
STACK CFI 65814 .cfa: sp 208 +
STACK CFI 65824 .cfa: x29 48 + x19: .cfa -8 + ^ x20: .cfa -16 + ^ x21: .cfa -24 + ^ x22: .cfa -32 + ^ .ra: .cfa -40 + ^ x29: .cfa -48 + ^
STACK CFI 65a00 .cfa: sp 208 +
STACK CFI 65a10 .cfa: sp 0 +
STACK CFI 65a14 .cfa: x29 48 +
STACK CFI INIT 65db8 370 .cfa: sp 0 +
STACK CFI 65dbc .cfa: sp 176 +
STACK CFI 65dcc .cfa: x29 48 + x19: .cfa -8 + ^ x20: .cfa -16 + ^ x21: .cfa -24 + ^ x22: .cfa -32 + ^ .ra: .cfa -40 + ^ x29: .cfa -48 + ^
STACK CFI 65fa8 .cfa: sp 176 +
STACK CFI 65fb8 .cfa: sp 0 +
STACK CFI 65fbc .cfa: x29 48 +
STACK CFI INIT 66354 384 .cfa: sp 0 +
STACK CFI 66358 .cfa: sp 208 +
STACK CFI 66368 .cfa: x29 48 + x19: .cfa -8 + ^ x20: .cfa -16 + ^ x21: .cfa -24 + ^ x22: .cfa -32 + ^ .ra: .cfa -40 + ^ x29: .cfa -48 + ^
STACK CFI 66544 .cfa: sp 208 +
STACK CFI 66554 .cfa: sp 0 +
STACK CFI 66558 .cfa: x29 48 +
STACK CFI INIT 667b8 41c .cfa: sp 0 +
STACK CFI 667bc .cfa: sp 160 +
STACK CFI 667d8 .cfa: x29 96 + x19: .cfa -8 + ^ x20: .cfa -16 + ^ x21: .cfa -24 + ^ x22: .cfa -32 + ^ x23: .cfa -40 + ^ x24: .cfa -48 + ^ x25: .cfa -56 + ^ x26: .cfa -64 + ^ x27: .cfa -80 + ^ .ra: .cfa -88 + ^ x29: .cfa -96 + ^
STACK CFI 66b38 .cfa: sp 160 +
STACK CFI 66b54 .cfa: sp 0 +
STACK CFI 66b58 .cfa: x29 96 +
STACK CFI INIT 66c6c 2b8 .cfa: sp 0 +
STACK CFI 66c70 .cfa: sp 144 +
STACK CFI 66c80 .cfa: x29 48 + x19: .cfa -8 + ^ x20: .cfa -16 + ^ x21: .cfa -24 + ^ x22: .cfa -32 + ^ .ra: .cfa -40 + ^ x29: .cfa -48 + ^
STACK CFI 66e80 .cfa: sp 144 +
STACK CFI 66e90 .cfa: sp 0 +
STACK CFI 66e94 .cfa: x29 48 +
STACK CFI INIT 671a8 2c4 .cfa: sp 0 +
STACK CFI 671ac .cfa: sp 144 +
STACK CFI 671bc .cfa: x29 48 + x19: .cfa -8 + ^ x20: .cfa -16 + ^ x21: .cfa -24 + ^ x22: .cfa -32 + ^ .ra: .cfa -40 + ^ x29: .cfa -48 + ^
STACK CFI 673c8 .cfa: sp 144 +
STACK CFI 673d8 .cfa: sp 0 +
STACK CFI 673dc .cfa: x29 48 +
STACK CFI INIT 6772c 37c .cfa: sp 0 +
STACK CFI 67730 .cfa: sp 176 +
STACK CFI 67740 .cfa: x29 48 + x19: .cfa -8 + ^ x20: .cfa -16 + ^ x21: .cfa -24 + ^ x22: .cfa -32 + ^ .ra: .cfa -40 + ^ x29: .cfa -48 + ^
STACK CFI 6791c .cfa: sp 176 +
STACK CFI 6792c .cfa: sp 0 +
STACK CFI 67930 .cfa: x29 48 +
STACK CFI INIT 67d54 2e0 .cfa: sp 0 +
STACK CFI 67d58 .cfa: sp 112 +
STACK CFI 67d70 .cfa: x29 80 + x19: .cfa -8 + ^ x20: .cfa -16 + ^ x21: .cfa -24 + ^ x22: .cfa -32 + ^ x23: .cfa -40 + ^ x24: .cfa -48 + ^ x25: .cfa -64 + ^ .ra: .cfa -72 + ^ x29: .cfa -80 + ^
STACK CFI 67f24 .cfa: sp 112 +
STACK CFI 67f3c .cfa: sp 0 +
STACK CFI 67f40 .cfa: x29 80 +
STACK CFI INIT 68180 448 .cfa: sp 0 +
STACK CFI 68184 .cfa: sp 208 +
STACK CFI 681a0 .cfa: x29 96 + x19: .cfa -8 + ^ x20: .cfa -16 + ^ x21: .cfa -24 + ^ x22: .cfa -32 + ^ x23: .cfa -40 + ^ x24: .cfa -48 + ^ x25: .cfa -56 + ^ x26: .cfa -64 + ^ x27: .cfa -72 + ^ x28: .cfa -80 + ^ .ra: .cfa -88 + ^ x29: .cfa -96 + ^
STACK CFI 684ec .cfa: sp 208 +
STACK CFI 68508 .cfa: sp 0 +
STACK CFI 6850c .cfa: x29 96 +
STACK CFI INIT 6881c 710 .cfa: sp 0 +
STACK CFI 68820 .cfa: sp 96 +
STACK CFI 68838 .cfa: x29 96 + x19: .cfa -8 + ^ x20: .cfa -16 + ^ x21: .cfa -24 + ^ x22: .cfa -32 + ^ x23: .cfa -40 + ^ x24: .cfa -48 + ^ x25: .cfa -56 + ^ x26: .cfa -64 + ^ x27: .cfa -80 + ^ .ra: .cfa -88 + ^ x29: .cfa -96 + ^
STACK CFI 68b8c .cfa: sp 96 +
STACK CFI 68ba4 .cfa: sp 0 +
STACK CFI 68ba8 .cfa: x29 96 +
STACK CFI 68dc8 .cfa: sp 96 +
STACK CFI 68de0 .cfa: sp 0 +
STACK CFI 68de4 .cfa: x29 96 +
STACK CFI INIT 69048 bc .cfa: sp 0 +
STACK CFI 6904c .cfa: sp 48 +
STACK CFI 69058 .cfa: x29 48 + x19: .cfa -8 + ^ x20: .cfa -16 + ^ x21: .cfa -32 + ^ .ra: .cfa -40 + ^ x29: .cfa -48 + ^
STACK CFI 690bc .cfa: sp 48 +
STACK CFI 690c8 .cfa: sp 0 +
STACK CFI 690cc .cfa: x29 48 +
STACK CFI INIT 69104 94 .cfa: sp 0 +
STACK CFI 69108 .cfa: sp 48 +
STACK CFI 69114 .cfa: x29 48 + x19: .cfa -8 + ^ x20: .cfa -16 + ^ x21: .cfa -32 + ^ .ra: .cfa -40 + ^ x29: .cfa -48 + ^
STACK CFI 6916c .cfa: sp 48 +
STACK CFI 69178 .cfa: sp 0 +
STACK CFI 6917c .cfa: x29 48 +
STACK CFI INIT 6929c 178c .cfa: sp 0 +
STACK CFI 692a0 .cfa: sp 96 +
STACK CFI 692b8 .cfa: x29 96 + x19: .cfa -8 + ^ x20: .cfa -16 + ^ x21: .cfa -24 + ^ x22: .cfa -32 + ^ x23: .cfa -40 + ^ x24: .cfa -48 + ^ x25: .cfa -56 + ^ x26: .cfa -64 + ^ x27: .cfa -72 + ^ x28: .cfa -80 + ^ .ra: .cfa -88 + ^ x29: .cfa -96 + ^
STACK CFI 6a5b8 .cfa: sp 96 +
STACK CFI 6a5d0 .cfa: sp 0 +
STACK CFI 6a5d4 .cfa: x29 96 +
STACK CFI INIT 6aa50 eb0 .cfa: sp 0 +
STACK CFI 6aa54 .cfa: sp 96 +
STACK CFI 6aa6c .cfa: x29 96 + x19: .cfa -8 + ^ x20: .cfa -16 + ^ x21: .cfa -24 + ^ x22: .cfa -32 + ^ x23: .cfa -40 + ^ x24: .cfa -48 + ^ x25: .cfa -56 + ^ x26: .cfa -64 + ^ x27: .cfa -72 + ^ x28: .cfa -80 + ^ .ra: .cfa -88 + ^ x29: .cfa -96 + ^
STACK CFI 6b7ac .cfa: sp 96 +
STACK CFI 6b7c4 .cfa: sp 0 +
STACK CFI 6b7c8 .cfa: x29 96 +
STACK CFI INIT 6e4f8 bc .cfa: sp 0 +
STACK CFI 6e4fc .cfa: sp 48 +
STACK CFI 6e508 .cfa: x29 48 + x19: .cfa -8 + ^ x20: .cfa -16 + ^ x21: .cfa -32 + ^ .ra: .cfa -40 + ^ x29: .cfa -48 + ^
STACK CFI 6e56c .cfa: sp 48 +
STACK CFI 6e578 .cfa: sp 0 +
STACK CFI 6e57c .cfa: x29 48 +
STACK CFI INIT 6e5b4 94 .cfa: sp 0 +
STACK CFI 6e5b8 .cfa: sp 48 +
STACK CFI 6e5c4 .cfa: x29 48 + x19: .cfa -8 + ^ x20: .cfa -16 + ^ x21: .cfa -32 + ^ .ra: .cfa -40 + ^ x29: .cfa -48 + ^
STACK CFI 6e61c .cfa: sp 48 +
STACK CFI 6e628 .cfa: sp 0 +
STACK CFI 6e62c .cfa: x29 48 +
STACK CFI INIT 6e74c 1d14 .cfa: sp 0 +
STACK CFI 6e750 .cfa: sp 96 +
STACK CFI 6e768 .cfa: x29 96 + x19: .cfa -8 + ^ x20: .cfa -16 + ^ x21: .cfa -24 + ^ x22: .cfa -32 + ^ x23: .cfa -40 + ^ x24: .cfa -48 + ^ x25: .cfa -56 + ^ x26: .cfa -64 + ^ x27: .cfa -72 + ^ x28: .cfa -80 + ^ .ra: .cfa -88 + ^ x29: .cfa -96 + ^
STACK CFI 6fe28 .cfa: sp 96 +
STACK CFI 6fe40 .cfa: sp 0 +
STACK CFI 6fe44 .cfa: x29 96 +
STACK CFI INIT 705a4 b4 .cfa: sp 0 +
STACK CFI 705a8 .cfa: sp 48 +
STACK CFI 705b4 .cfa: x29 48 + x19: .cfa -8 + ^ x20: .cfa -16 + ^ x21: .cfa -32 + ^ .ra: .cfa -40 + ^ x29: .cfa -48 + ^
STACK CFI 70618 .cfa: sp 48 +
STACK CFI 70624 .cfa: sp 0 +
STACK CFI 70628 .cfa: x29 48 +
STACK CFI INIT 70658 a0 .cfa: sp 0 +
STACK CFI 7065c .cfa: sp 48 +
STACK CFI 70668 .cfa: x29 48 + x19: .cfa -8 + ^ x20: .cfa -16 + ^ x21: .cfa -32 + ^ .ra: .cfa -40 + ^ x29: .cfa -48 + ^
STACK CFI 706b0 .cfa: sp 48 +
STACK CFI 706bc .cfa: sp 0 +
STACK CFI 706c0 .cfa: x29 48 +
STACK CFI 706d4 .cfa: sp 48 +
STACK CFI 706e0 .cfa: sp 0 +
STACK CFI 706e4 .cfa: x29 48 +
STACK CFI INIT 707fc 15b8 .cfa: sp 0 +
STACK CFI 70800 .cfa: sp 496 +
STACK CFI 7081c .cfa: x29 96 + x19: .cfa -8 + ^ x20: .cfa -16 + ^ x21: .cfa -24 + ^ x22: .cfa -32 + ^ x23: .cfa -40 + ^ x24: .cfa -48 + ^ x25: .cfa -56 + ^ x26: .cfa -64 + ^ x27: .cfa -72 + ^ x28: .cfa -80 + ^ .ra: .cfa -88 + ^ x29: .cfa -96 + ^
STACK CFI 71118 .cfa: sp 496 +
STACK CFI 71134 .cfa: sp 0 +
STACK CFI 71138 .cfa: x29 96 +
STACK CFI INIT 72004 b4 .cfa: sp 0 +
STACK CFI 72008 .cfa: sp 48 +
STACK CFI 72014 .cfa: x29 48 + x19: .cfa -8 + ^ x20: .cfa -16 + ^ x21: .cfa -32 + ^ .ra: .cfa -40 + ^ x29: .cfa -48 + ^
STACK CFI 72070 .cfa: sp 48 +
STACK CFI 7207c .cfa: sp 0 +
STACK CFI 72080 .cfa: x29 48 +
STACK CFI INIT 720b8 8c .cfa: sp 0 +
STACK CFI 720bc .cfa: sp 48 +
STACK CFI 720c8 .cfa: x29 48 + x19: .cfa -8 + ^ x20: .cfa -16 + ^ x21: .cfa -32 + ^ .ra: .cfa -40 + ^ x29: .cfa -48 + ^
STACK CFI 72118 .cfa: sp 48 +
STACK CFI 72124 .cfa: sp 0 +
STACK CFI 72128 .cfa: x29 48 +
STACK CFI INIT 72248 1244 .cfa: sp 0 +
STACK CFI 7224c .cfa: sp 464 +
STACK CFI 72268 .cfa: x29 96 + x19: .cfa -8 + ^ x20: .cfa -16 + ^ x21: .cfa -24 + ^ x22: .cfa -32 + ^ x23: .cfa -40 + ^ x24: .cfa -48 + ^ x25: .cfa -56 + ^ x26: .cfa -64 + ^ x27: .cfa -72 + ^ x28: .cfa -80 + ^ .ra: .cfa -88 + ^ x29: .cfa -96 + ^
STACK CFI 72df0 .cfa: sp 464 +
STACK CFI 72e0c .cfa: sp 0 +
STACK CFI 72e10 .cfa: x29 96 +
STACK CFI INIT 734b4 74 .cfa: sp 0 +
STACK CFI 734b8 .cfa: sp 48 +
STACK CFI 734c4 .cfa: x29 32 + x19: .cfa -8 + ^ x20: .cfa -16 + ^ .ra: .cfa -24 + ^ x29: .cfa -32 + ^
STACK CFI 73510 .cfa: sp 48 +
STACK CFI 7351c .cfa: sp 0 +
STACK CFI 73520 .cfa: x29 32 +
STACK CFI INIT 73528 74 .cfa: sp 0 +
STACK CFI 7352c .cfa: sp 48 +
STACK CFI 73538 .cfa: x29 32 + x19: .cfa -8 + ^ x20: .cfa -16 + ^ .ra: .cfa -24 + ^ x29: .cfa -32 + ^
STACK CFI 73584 .cfa: sp 48 +
STACK CFI 73590 .cfa: sp 0 +
STACK CFI 73594 .cfa: x29 32 +
STACK CFI INIT 736ec b4 .cfa: sp 0 +
STACK CFI 736f0 .cfa: sp 48 +
STACK CFI 736fc .cfa: x29 48 + x19: .cfa -8 + ^ x20: .cfa -16 + ^ x21: .cfa -32 + ^ .ra: .cfa -40 + ^ x29: .cfa -48 + ^
STACK CFI 73758 .cfa: sp 48 +
STACK CFI 73764 .cfa: sp 0 +
STACK CFI 73768 .cfa: x29 48 +
STACK CFI INIT 737a0 8c .cfa: sp 0 +
STACK CFI 737a4 .cfa: sp 48 +
STACK CFI 737b0 .cfa: x29 48 + x19: .cfa -8 + ^ x20: .cfa -16 + ^ x21: .cfa -32 + ^ .ra: .cfa -40 + ^ x29: .cfa -48 + ^
STACK CFI 73800 .cfa: sp 48 +
STACK CFI 7380c .cfa: sp 0 +
STACK CFI 73810 .cfa: x29 48 +
STACK CFI INIT 73930 f7c .cfa: sp 0 +
STACK CFI 73934 .cfa: sp 400 +
STACK CFI 73950 .cfa: x29 96 + x19: .cfa -8 + ^ x20: .cfa -16 + ^ x21: .cfa -24 + ^ x22: .cfa -32 + ^ x23: .cfa -40 + ^ x24: .cfa -48 + ^ x25: .cfa -56 + ^ x26: .cfa -64 + ^ x27: .cfa -72 + ^ x28: .cfa -80 + ^ .ra: .cfa -88 + ^ x29: .cfa -96 + ^
STACK CFI 745e4 .cfa: sp 400 +
STACK CFI 74600 .cfa: sp 0 +
STACK CFI 74604 .cfa: x29 96 +
STACK CFI INIT 74934 b8 .cfa: sp 0 +
STACK CFI 74938 .cfa: sp 64 +
STACK CFI 74944 .cfa: x29 32 + x19: .cfa -8 + ^ x20: .cfa -16 + ^ .ra: .cfa -24 + ^ x29: .cfa -32 + ^
STACK CFI 749ac .cfa: sp 64 +
STACK CFI 749b8 .cfa: sp 0 +
STACK CFI 749bc .cfa: x29 32 +
STACK CFI INIT 74a14 1138 .cfa: sp 0 +
STACK CFI 74a18 .cfa: sp 80 +
STACK CFI 74a2c .cfa: x29 80 + x19: .cfa -8 + ^ x20: .cfa -16 + ^ x21: .cfa -24 + ^ x22: .cfa -32 + ^ x23: .cfa -40 + ^ x24: .cfa -48 + ^ x28: .cfa -64 + ^ .ra: .cfa -72 + ^ x29: .cfa -80 + ^
STACK CFI 753a8 .cfa: sp 80 +
STACK CFI 753bc .cfa: sp 0 +
STACK CFI 753c0 .cfa: x29 80 +
STACK CFI INIT 75c10 134 .cfa: sp 0 +
STACK CFI 75c14 .cfa: sp 80 +
STACK CFI 75c20 .cfa: x29 32 + x19: .cfa -8 + ^ x20: .cfa -16 + ^ .ra: .cfa -24 + ^ x29: .cfa -32 + ^
STACK CFI 75c50 .cfa: sp 80 +
STACK CFI 75c5c .cfa: sp 0 +
STACK CFI 75c60 .cfa: x29 32 +
STACK CFI INIT 75d44 78 .cfa: sp 0 +
STACK CFI 75d48 .cfa: sp 32 +
STACK CFI 75d50 .cfa: x29 32 + x19: .cfa -8 + ^ x20: .cfa -16 + ^ .ra: .cfa -24 + ^ x29: .cfa -32 + ^
STACK CFI 75d5c .cfa: sp 32 +
STACK CFI 75d64 .cfa: sp 0 +
STACK CFI 75d68 .cfa: x29 32 +
STACK CFI INIT 75dbc 74 .cfa: sp 0 +
STACK CFI 75dc0 .cfa: sp 48 +
STACK CFI 75dcc .cfa: x29 32 + x19: .cfa -8 + ^ x20: .cfa -16 + ^ .ra: .cfa -24 + ^ x29: .cfa -32 + ^
STACK CFI 75e18 .cfa: sp 48 +
STACK CFI 75e24 .cfa: sp 0 +
STACK CFI 75e28 .cfa: x29 32 +
STACK CFI INIT 75e94 224 .cfa: sp 0 +
STACK CFI 75e98 .cfa: sp 128 +
STACK CFI 75ea8 .cfa: x29 48 + x19: .cfa -8 + ^ x20: .cfa -16 + ^ x21: .cfa -32 + ^ .ra: .cfa -40 + ^ x29: .cfa -48 + ^
STACK CFI 75f58 .cfa: sp 128 +
STACK CFI 75f68 .cfa: sp 0 +
STACK CFI 75f6c .cfa: x29 48 +
STACK CFI INIT 76100 284 .cfa: sp 0 +
STACK CFI 76104 .cfa: sp 128 +
STACK CFI 76114 .cfa: x29 48 + x19: .cfa -8 + ^ x20: .cfa -16 + ^ x21: .cfa -32 + ^ .ra: .cfa -40 + ^ x29: .cfa -48 + ^
STACK CFI 7622c .cfa: sp 128 +
STACK CFI 7623c .cfa: sp 0 +
STACK CFI 76240 .cfa: x29 48 +
STACK CFI INIT 763d8 300 .cfa: sp 0 +
STACK CFI 763dc .cfa: sp 144 +
STACK CFI 763f0 .cfa: x29 64 + x19: .cfa -8 + ^ x20: .cfa -16 + ^ x21: .cfa -24 + ^ x22: .cfa -32 + ^ x23: .cfa -48 + ^ .ra: .cfa -56 + ^ x29: .cfa -64 + ^
STACK CFI 76584 .cfa: sp 144 +
STACK CFI 76598 .cfa: sp 0 +
STACK CFI 7659c .cfa: x29 64 +
STACK CFI INIT 7672c 264 .cfa: sp 0 +
STACK CFI 76730 .cfa: sp 128 +
STACK CFI 76740 .cfa: x29 48 + x19: .cfa -8 + ^ x20: .cfa -16 + ^ x21: .cfa -32 + ^ .ra: .cfa -40 + ^ x29: .cfa -48 + ^
STACK CFI 76838 .cfa: sp 128 +
STACK CFI 76848 .cfa: sp 0 +
STACK CFI 7684c .cfa: x29 48 +
STACK CFI INIT 769e4 270 .cfa: sp 0 +
STACK CFI 769e8 .cfa: sp 144 +
STACK CFI 769fc .cfa: x29 64 + x19: .cfa -8 + ^ x20: .cfa -16 + ^ x21: .cfa -24 + ^ x22: .cfa -32 + ^ x23: .cfa -48 + ^ .ra: .cfa -56 + ^ x29: .cfa -64 + ^
STACK CFI 76b00 .cfa: sp 144 +
STACK CFI 76b14 .cfa: sp 0 +
STACK CFI 76b18 .cfa: x29 64 +
STACK CFI INIT 76c78 22c .cfa: sp 0 +
STACK CFI 76c7c .cfa: sp 128 +
STACK CFI 76c8c .cfa: x29 48 + x19: .cfa -8 + ^ x20: .cfa -16 + ^ x21: .cfa -32 + ^ .ra: .cfa -40 + ^ x29: .cfa -48 + ^
STACK CFI 76d44 .cfa: sp 128 +
STACK CFI 76d54 .cfa: sp 0 +
STACK CFI 76d58 .cfa: x29 48 +
STACK CFI INIT 76ea4 224 .cfa: sp 0 +
STACK CFI 76ea8 .cfa: sp 128 +
STACK CFI 76eb8 .cfa: x29 48 + x19: .cfa -8 + ^ x20: .cfa -16 + ^ x21: .cfa -32 + ^ .ra: .cfa -40 + ^ x29: .cfa -48 + ^
STACK CFI 76f68 .cfa: sp 128 +
STACK CFI 76f78 .cfa: sp 0 +
STACK CFI 76f7c .cfa: x29 48 +
STACK CFI INIT 770c8 268 .cfa: sp 0 +
STACK CFI 770cc .cfa: sp 144 +
STACK CFI 770e0 .cfa: x29 64 + x19: .cfa -8 + ^ x20: .cfa -16 + ^ x21: .cfa -24 + ^ x22: .cfa -32 + ^ x23: .cfa -48 + ^ .ra: .cfa -56 + ^ x29: .cfa -64 + ^
STACK CFI 771dc .cfa: sp 144 +
STACK CFI 771f0 .cfa: sp 0 +
STACK CFI 771f4 .cfa: x29 64 +
STACK CFI INIT 77354 26c .cfa: sp 0 +
STACK CFI 77358 .cfa: sp 128 +
STACK CFI 77368 .cfa: x29 48 + x19: .cfa -8 + ^ x20: .cfa -16 + ^ x21: .cfa -32 + ^ .ra: .cfa -40 + ^ x29: .cfa -48 + ^
STACK CFI 77460 .cfa: sp 128 +
STACK CFI 77470 .cfa: sp 0 +
STACK CFI 77474 .cfa: x29 48 +
STACK CFI INIT 775c0 2b8 .cfa: sp 0 +
STACK CFI 775c4 .cfa: sp 144 +
STACK CFI 775d8 .cfa: x29 64 + x19: .cfa -8 + ^ x20: .cfa -16 + ^ x21: .cfa -24 + ^ x22: .cfa -32 + ^ x23: .cfa -48 + ^ .ra: .cfa -56 + ^ x29: .cfa -64 + ^
STACK CFI 77724 .cfa: sp 144 +
STACK CFI 77738 .cfa: sp 0 +
STACK CFI 7773c .cfa: x29 64 +
STACK CFI INIT 7789c 160 .cfa: sp 0 +
STACK CFI 778a0 .cfa: sp 144 +
STACK CFI 778b4 .cfa: x29 64 + x19: .cfa -8 + ^ x20: .cfa -16 + ^ x21: .cfa -24 + ^ x22: .cfa -32 + ^ x23: .cfa -48 + ^ .ra: .cfa -56 + ^ x29: .cfa -64 + ^
STACK CFI 77904 .cfa: sp 144 +
STACK CFI 77918 .cfa: sp 0 +
STACK CFI 7791c .cfa: x29 64 +
STACK CFI INIT 779fc 100 .cfa: sp 0 +
STACK CFI 77a00 .cfa: sp 64 +
STACK CFI 77a10 .cfa: x29 48 + x19: .cfa -8 + ^ x20: .cfa -16 + ^ x21: .cfa -24 + ^ x22: .cfa -32 + ^ .ra: .cfa -40 + ^ x29: .cfa -48 + ^
STACK CFI 77ab4 .cfa: sp 64 +
STACK CFI 77ac4 .cfa: sp 0 +
STACK CFI 77ac8 .cfa: x29 48 +
STACK CFI INIT 77afc 224 .cfa: sp 0 +
STACK CFI 77b00 .cfa: sp 128 +
STACK CFI 77b10 .cfa: x29 48 + x19: .cfa -8 + ^ x20: .cfa -16 + ^ x21: .cfa -32 + ^ .ra: .cfa -40 + ^ x29: .cfa -48 + ^
STACK CFI 77bc0 .cfa: sp 128 +
STACK CFI 77bd0 .cfa: sp 0 +
STACK CFI 77bd4 .cfa: x29 48 +
STACK CFI INIT 77d20 268 .cfa: sp 0 +
STACK CFI 77d24 .cfa: sp 144 +
STACK CFI 77d38 .cfa: x29 64 + x19: .cfa -8 + ^ x20: .cfa -16 + ^ x21: .cfa -24 + ^ x22: .cfa -32 + ^ x23: .cfa -48 + ^ .ra: .cfa -56 + ^ x29: .cfa -64 + ^
STACK CFI 77e34 .cfa: sp 144 +
STACK CFI 77e48 .cfa: sp 0 +
STACK CFI 77e4c .cfa: x29 64 +
STACK CFI INIT 77fac 150 .cfa: sp 0 +
STACK CFI 77fb0 .cfa: sp 128 +
STACK CFI 77fc0 .cfa: x29 48 + x19: .cfa -8 + ^ x20: .cfa -16 + ^ x21: .cfa -24 + ^ x22: .cfa -32 + ^ .ra: .cfa -40 + ^ x29: .cfa -48 + ^
STACK CFI 78008 .cfa: sp 128 +
STACK CFI 78018 .cfa: sp 0 +
STACK CFI 7801c .cfa: x29 48 +
STACK CFI INIT 780fc a4 .cfa: sp 0 +
STACK CFI 78100 .cfa: sp 64 +
STACK CFI 78110 .cfa: x29 48 + x19: .cfa -8 + ^ x20: .cfa -16 + ^ x21: .cfa -32 + ^ .ra: .cfa -40 + ^ x29: .cfa -48 + ^
STACK CFI 78174 .cfa: sp 64 +
STACK CFI 78184 .cfa: sp 0 +
STACK CFI 78188 .cfa: x29 48 +
STACK CFI INIT 781a0 150 .cfa: sp 0 +
STACK CFI 781a4 .cfa: sp 128 +
STACK CFI 781b4 .cfa: x29 48 + x19: .cfa -8 + ^ x20: .cfa -16 + ^ x21: .cfa -24 + ^ x22: .cfa -32 + ^ .ra: .cfa -40 + ^ x29: .cfa -48 + ^
STACK CFI 781fc .cfa: sp 128 +
STACK CFI 7820c .cfa: sp 0 +
STACK CFI 78210 .cfa: x29 48 +
STACK CFI INIT 782f0 a4 .cfa: sp 0 +
STACK CFI 782f4 .cfa: sp 64 +
STACK CFI 78304 .cfa: x29 48 + x19: .cfa -8 + ^ x20: .cfa -16 + ^ x21: .cfa -32 + ^ .ra: .cfa -40 + ^ x29: .cfa -48 + ^
STACK CFI 78368 .cfa: sp 64 +
STACK CFI 78378 .cfa: sp 0 +
STACK CFI 7837c .cfa: x29 48 +
STACK CFI INIT 78484 178 .cfa: sp 0 +
STACK CFI 78488 .cfa: sp 128 +
STACK CFI 78498 .cfa: x29 48 + x19: .cfa -8 + ^ x20: .cfa -16 + ^ x21: .cfa -24 + ^ x22: .cfa -32 + ^ .ra: .cfa -40 + ^ x29: .cfa -48 + ^
STACK CFI 784f4 .cfa: sp 128 +
STACK CFI 78504 .cfa: sp 0 +
STACK CFI 78508 .cfa: x29 48 +
STACK CFI INIT 785fc a0 .cfa: sp 0 +
STACK CFI 78600 .cfa: sp 48 +
STACK CFI 7860c .cfa: x29 48 + x19: .cfa -8 + ^ x20: .cfa -16 + ^ x21: .cfa -32 + ^ .ra: .cfa -40 + ^ x29: .cfa -48 + ^
STACK CFI 78674 .cfa: sp 48 +
STACK CFI 78680 .cfa: sp 0 +
STACK CFI 78684 .cfa: x29 48 +
STACK CFI INIT 7877c 200 .cfa: sp 0 +
STACK CFI 78780 .cfa: sp 208 +
STACK CFI 787a0 .cfa: x29 96 + x19: .cfa -8 + ^ x20: .cfa -16 + ^ x21: .cfa -24 + ^ x22: .cfa -32 + ^ x23: .cfa -40 + ^ x24: .cfa -48 + ^ x25: .cfa -56 + ^ x26: .cfa -64 + ^ x27: .cfa -72 + ^ x28: .cfa -80 + ^ .ra: .cfa -88 + ^ x29: .cfa -96 + ^ v8: .cfa -112 + ^
STACK CFI 7885c .cfa: sp 208 +
STACK CFI 7887c .cfa: sp 0 +
STACK CFI 78880 .cfa: x29 96 +
STACK CFI INIT 7897c 6cc .cfa: sp 0 +
STACK CFI 78980 .cfa: sp 96 +
STACK CFI 78998 .cfa: x29 80 + x19: .cfa -8 + ^ x20: .cfa -16 + ^ x21: .cfa -24 + ^ x22: .cfa -32 + ^ x23: .cfa -40 + ^ x24: .cfa -48 + ^ x25: .cfa -64 + ^ .ra: .cfa -72 + ^ x29: .cfa -80 + ^
STACK CFI 78f84 .cfa: sp 96 +
STACK CFI 78f9c .cfa: sp 0 +
STACK CFI 78fa0 .cfa: x29 80 +
STACK CFI INIT 7904c 80 .cfa: sp 0 +
STACK CFI 79050 .cfa: sp 32 +
STACK CFI 79058 .cfa: x29 32 + x19: .cfa -8 + ^ x20: .cfa -16 + ^ .ra: .cfa -24 + ^ x29: .cfa -32 + ^
STACK CFI 7907c .cfa: sp 32 +
STACK CFI 79084 .cfa: sp 0 +
STACK CFI 79088 .cfa: x29 32 +
STACK CFI INIT 790cc 1c8 .cfa: sp 0 +
STACK CFI 790d0 .cfa: sp 192 +
STACK CFI 790ec .cfa: x29 64 + x19: .cfa -8 + ^ x20: .cfa -16 + ^ x21: .cfa -24 + ^ x22: .cfa -32 + ^ x23: .cfa -40 + ^ x24: .cfa -48 + ^ .ra: .cfa -56 + ^ x29: .cfa -64 + ^ v8: .cfa -72 + ^ v9: .cfa -80 + ^ v10: .cfa -96 + ^
STACK CFI 79180 .cfa: sp 192 +
STACK CFI 7919c .cfa: sp 0 +
STACK CFI 791a0 .cfa: x29 64 +
STACK CFI INIT 79294 494 .cfa: sp 0 +
STACK CFI 79298 .cfa: sp 112 +
STACK CFI 792b0 .cfa: x29 80 + x19: .cfa -8 + ^ x20: .cfa -16 + ^ x21: .cfa -24 + ^ x22: .cfa -32 + ^ x23: .cfa -40 + ^ x24: .cfa -48 + ^ x25: .cfa -64 + ^ .ra: .cfa -72 + ^ x29: .cfa -80 + ^
STACK CFI 79694 .cfa: sp 112 +
STACK CFI 796ac .cfa: sp 0 +
STACK CFI 796b0 .cfa: x29 80 +
STACK CFI INIT 79728 178 .cfa: sp 0 +
STACK CFI 7972c .cfa: sp 128 +
STACK CFI 7973c .cfa: x29 48 + x19: .cfa -8 + ^ x20: .cfa -16 + ^ x21: .cfa -24 + ^ x22: .cfa -32 + ^ .ra: .cfa -40 + ^ x29: .cfa -48 + ^
STACK CFI 79798 .cfa: sp 128 +
STACK CFI 797a8 .cfa: sp 0 +
STACK CFI 797ac .cfa: x29 48 +
STACK CFI INIT 798a0 a0 .cfa: sp 0 +
STACK CFI 798a4 .cfa: sp 48 +
STACK CFI 798b0 .cfa: x29 48 + x19: .cfa -8 + ^ x20: .cfa -16 + ^ x21: .cfa -32 + ^ .ra: .cfa -40 + ^ x29: .cfa -48 + ^
STACK CFI 79918 .cfa: sp 48 +
STACK CFI 79924 .cfa: sp 0 +
STACK CFI 79928 .cfa: x29 48 +
STACK CFI INIT 79940 2e4 .cfa: sp 0 +
STACK CFI 79944 .cfa: sp 144 +
STACK CFI 79958 .cfa: x29 64 + x19: .cfa -8 + ^ x20: .cfa -16 + ^ x21: .cfa -24 + ^ x22: .cfa -32 + ^ x23: .cfa -48 + ^ .ra: .cfa -56 + ^ x29: .cfa -64 + ^
STACK CFI 79ad0 .cfa: sp 144 +
STACK CFI 79ae4 .cfa: sp 0 +
STACK CFI 79ae8 .cfa: x29 64 +
STACK CFI INIT 79c24 2f0 .cfa: sp 0 +
STACK CFI 79c28 .cfa: sp 144 +
STACK CFI 79c3c .cfa: x29 64 + x19: .cfa -8 + ^ x20: .cfa -16 + ^ x21: .cfa -24 + ^ x22: .cfa -32 + ^ x23: .cfa -48 + ^ .ra: .cfa -56 + ^ x29: .cfa -64 + ^
STACK CFI 79dc0 .cfa: sp 144 +
STACK CFI 79dd4 .cfa: sp 0 +
STACK CFI 79dd8 .cfa: x29 64 +
STACK CFI INIT 79f14 2a0 .cfa: sp 0 +
STACK CFI 79f18 .cfa: sp 144 +
STACK CFI 79f2c .cfa: x29 64 + x19: .cfa -8 + ^ x20: .cfa -16 + ^ x21: .cfa -24 + ^ x22: .cfa -32 + ^ x23: .cfa -48 + ^ .ra: .cfa -56 + ^ x29: .cfa -64 + ^
STACK CFI 7a060 .cfa: sp 144 +
STACK CFI 7a074 .cfa: sp 0 +
STACK CFI 7a078 .cfa: x29 64 +
STACK CFI INIT 7a1b4 2e4 .cfa: sp 0 +
STACK CFI 7a1b8 .cfa: sp 144 +
STACK CFI 7a1cc .cfa: x29 64 + x19: .cfa -8 + ^ x20: .cfa -16 + ^ x21: .cfa -24 + ^ x22: .cfa -32 + ^ x23: .cfa -48 + ^ .ra: .cfa -56 + ^ x29: .cfa -64 + ^
STACK CFI 7a344 .cfa: sp 144 +
STACK CFI 7a358 .cfa: sp 0 +
STACK CFI 7a35c .cfa: x29 64 +
STACK CFI INIT 7a498 4f4 .cfa: sp 0 +
STACK CFI 7a49c .cfa: sp 144 +
STACK CFI 7a4b0 .cfa: x29 64 + x19: .cfa -8 + ^ x20: .cfa -16 + ^ x21: .cfa -24 + ^ x22: .cfa -32 + ^ x23: .cfa -48 + ^ .ra: .cfa -56 + ^ x29: .cfa -64 + ^
STACK CFI 7a7e4 .cfa: sp 144 +
STACK CFI 7a7f8 .cfa: sp 0 +
STACK CFI 7a7fc .cfa: x29 64 +
STACK CFI INIT 7a98c 154 .cfa: sp 0 +
STACK CFI 7a990 .cfa: sp 384 +
STACK CFI 7a9a4 .cfa: x29 64 + x19: .cfa -8 + ^ x20: .cfa -16 + ^ x21: .cfa -24 + ^ x22: .cfa -32 + ^ x23: .cfa -40 + ^ x28: .cfa -48 + ^ .ra: .cfa -56 + ^ x29: .cfa -64 + ^
STACK CFI 7aa88 .cfa: sp 384 +
STACK CFI 7aa9c .cfa: sp 0 +
STACK CFI 7aaa0 .cfa: x29 64 +
STACK CFI INIT 7aaf8 50c .cfa: sp 0 +
STACK CFI 7aafc .cfa: sp 64 +
STACK CFI 7ab0c .cfa: x29 64 + x19: .cfa -8 + ^ x20: .cfa -16 + ^ x21: .cfa -24 + ^ x22: .cfa -32 + ^ x23: .cfa -40 + ^ x24: .cfa -48 + ^ .ra: .cfa -56 + ^ x29: .cfa -64 + ^
STACK CFI 7ac2c .cfa: sp 64 +
STACK CFI 7ac3c .cfa: sp 0 +
STACK CFI 7ac40 .cfa: x29 64 +
STACK CFI 7afd8 .cfa: sp 64 +
STACK CFI 7afe8 .cfa: sp 0 +
STACK CFI 7afec .cfa: x29 64 +
STACK CFI INIT 7b334 294 .cfa: sp 0 +
STACK CFI 7b338 .cfa: sp 240 +
STACK CFI 7b350 .cfa: x29 80 + x19: .cfa -8 + ^ x20: .cfa -16 + ^ x21: .cfa -24 + ^ x22: .cfa -32 + ^ x23: .cfa -40 + ^ x24: .cfa -48 + ^ x25: .cfa -64 + ^ .ra: .cfa -72 + ^ x29: .cfa -80 + ^
STACK CFI 7b4f0 .cfa: sp 240 +
STACK CFI 7b508 .cfa: sp 0 +
STACK CFI 7b50c .cfa: x29 80 +
STACK CFI INIT 7b644 50 .cfa: sp 0 +
STACK CFI 7b648 .cfa: sp 32 +
STACK CFI 7b650 .cfa: x29 32 + x19: .cfa -8 + ^ x20: .cfa -16 + ^ .ra: .cfa -24 + ^ x29: .cfa -32 + ^
STACK CFI INIT 7b6c0 7c0 .cfa: sp 0 +
STACK CFI 7b6c4 .cfa: sp 320 +
STACK CFI 7b6e0 .cfa: x29 96 + x19: .cfa -8 + ^ x20: .cfa -16 + ^ x21: .cfa -24 + ^ x22: .cfa -32 + ^ x23: .cfa -40 + ^ x24: .cfa -48 + ^ x25: .cfa -56 + ^ x26: .cfa -64 + ^ x27: .cfa -72 + ^ x28: .cfa -80 + ^ .ra: .cfa -88 + ^ x29: .cfa -96 + ^
STACK CFI 7bd30 .cfa: sp 320 +
STACK CFI 7bd4c .cfa: sp 0 +
STACK CFI 7bd50 .cfa: x29 96 +
STACK CFI INIT 7bee4 14c .cfa: sp 0 +
STACK CFI 7bee8 .cfa: sp 80 +
STACK CFI 7befc .cfa: x29 80 + x19: .cfa -8 + ^ x20: .cfa -16 + ^ x21: .cfa -24 + ^ x22: .cfa -32 + ^ x23: .cfa -40 + ^ x24: .cfa -48 + ^ x28: .cfa -64 + ^ .ra: .cfa -72 + ^ x29: .cfa -80 + ^
STACK CFI 7bf90 .cfa: sp 80 +
STACK CFI 7bfa4 .cfa: sp 0 +
STACK CFI 7bfa8 .cfa: x29 80 +
STACK CFI INIT 7fb64 c84 .cfa: sp 0 +
STACK CFI 7fb68 .cfa: sp 96 +
STACK CFI 7fb80 .cfa: x29 96 + x19: .cfa -8 + ^ x20: .cfa -16 + ^ x21: .cfa -24 + ^ x22: .cfa -32 + ^ x23: .cfa -40 + ^ x24: .cfa -48 + ^ x25: .cfa -56 + ^ x26: .cfa -64 + ^ x27: .cfa -72 + ^ x28: .cfa -80 + ^ .ra: .cfa -88 + ^ x29: .cfa -96 + ^
STACK CFI 80608 .cfa: sp 96 +
STACK CFI 80620 .cfa: sp 0 +
STACK CFI 80624 .cfa: x29 96 +
STACK CFI INIT 8093c 268 .cfa: sp 0 +
STACK CFI 80940 .cfa: sp 128 +
STACK CFI 80950 .cfa: x29 48 + x19: .cfa -8 + ^ x20: .cfa -16 + ^ x21: .cfa -24 + ^ x22: .cfa -32 + ^ .ra: .cfa -40 + ^ x29: .cfa -48 + ^
STACK CFI 80af0 .cfa: sp 128 +
STACK CFI 80b00 .cfa: sp 0 +
STACK CFI 80b04 .cfa: x29 48 +
STACK CFI INIT 80f34 3b8 .cfa: sp 0 +
STACK CFI 80f38 .cfa: sp 96 +
STACK CFI 80f50 .cfa: x29 96 + x19: .cfa -8 + ^ x20: .cfa -16 + ^ x21: .cfa -24 + ^ x22: .cfa -32 + ^ x23: .cfa -40 + ^ x24: .cfa -48 + ^ x25: .cfa -56 + ^ x26: .cfa -64 + ^ x27: .cfa -72 + ^ x28: .cfa -80 + ^ .ra: .cfa -88 + ^ x29: .cfa -96 + ^
STACK CFI 8128c .cfa: sp 96 +
STACK CFI 812a4 .cfa: sp 0 +
STACK CFI 812a8 .cfa: x29 96 +
STACK CFI INIT 8138c cbc .cfa: sp 0 +
STACK CFI 81390 .cfa: sp 96 +
STACK CFI 813a8 .cfa: x29 96 + x19: .cfa -8 + ^ x20: .cfa -16 + ^ x21: .cfa -24 + ^ x22: .cfa -32 + ^ x23: .cfa -40 + ^ x24: .cfa -48 + ^ x25: .cfa -56 + ^ x26: .cfa -64 + ^ x27: .cfa -72 + ^ x28: .cfa -80 + ^ .ra: .cfa -88 + ^ x29: .cfa -96 + ^
STACK CFI 81e58 .cfa: sp 96 +
STACK CFI 81e70 .cfa: sp 0 +
STACK CFI 81e74 .cfa: x29 96 +
STACK CFI INIT 82330 ae0 .cfa: sp 0 +
STACK CFI 82334 .cfa: sp 96 +
STACK CFI 8234c .cfa: x29 96 + x19: .cfa -8 + ^ x20: .cfa -16 + ^ x21: .cfa -24 + ^ x22: .cfa -32 + ^ x23: .cfa -40 + ^ x24: .cfa -48 + ^ x25: .cfa -56 + ^ x26: .cfa -64 + ^ x27: .cfa -72 + ^ x28: .cfa -80 + ^ .ra: .cfa -88 + ^ x29: .cfa -96 + ^
STACK CFI 82d84 .cfa: sp 96 +
STACK CFI 82d9c .cfa: sp 0 +
STACK CFI 82da0 .cfa: x29 96 +
STACK CFI INIT 83004 1424 .cfa: sp 0 +
STACK CFI 83008 .cfa: sp 96 +
STACK CFI 83020 .cfa: x29 96 + x19: .cfa -8 + ^ x20: .cfa -16 + ^ x21: .cfa -24 + ^ x22: .cfa -32 + ^ x23: .cfa -40 + ^ x24: .cfa -48 + ^ x25: .cfa -56 + ^ x26: .cfa -64 + ^ x27: .cfa -72 + ^ x28: .cfa -80 + ^ .ra: .cfa -88 + ^ x29: .cfa -96 + ^
STACK CFI 842b8 .cfa: sp 96 +
STACK CFI 842d0 .cfa: sp 0 +
STACK CFI 842d4 .cfa: x29 96 +
STACK CFI INIT 8454c 75c .cfa: sp 0 +
STACK CFI 84550 .cfa: sp 368 +
STACK CFI 8456c .cfa: x29 96 + x19: .cfa -8 + ^ x20: .cfa -16 + ^ x21: .cfa -24 + ^ x22: .cfa -32 + ^ x23: .cfa -40 + ^ x24: .cfa -48 + ^ x25: .cfa -56 + ^ x26: .cfa -64 + ^ x27: .cfa -72 + ^ x28: .cfa -80 + ^ .ra: .cfa -88 + ^ x29: .cfa -96 + ^
STACK CFI 84620 .cfa: sp 368 +
STACK CFI 8463c .cfa: sp 0 +
STACK CFI 84640 .cfa: x29 96 +
STACK CFI 84694 .cfa: sp 368 +
STACK CFI 846b0 .cfa: sp 0 +
STACK CFI 846b4 .cfa: x29 96 +
STACK CFI INIT 8506c edc .cfa: sp 0 +
STACK CFI 85070 .cfa: sp 96 +
STACK CFI 85088 .cfa: x29 96 + x19: .cfa -8 + ^ x20: .cfa -16 + ^ x21: .cfa -24 + ^ x22: .cfa -32 + ^ x23: .cfa -40 + ^ x24: .cfa -48 + ^ x25: .cfa -56 + ^ x26: .cfa -64 + ^ x27: .cfa -72 + ^ x28: .cfa -80 + ^ .ra: .cfa -88 + ^ x29: .cfa -96 + ^
STACK CFI 85d40 .cfa: sp 96 +
STACK CFI 85d58 .cfa: sp 0 +
STACK CFI 85d5c .cfa: x29 96 +
STACK CFI INIT 862bc 1b34 .cfa: sp 0 +
STACK CFI 862c0 .cfa: sp 112 +
STACK CFI 862dc .cfa: x29 96 + x19: .cfa -8 + ^ x20: .cfa -16 + ^ x21: .cfa -24 + ^ x22: .cfa -32 + ^ x23: .cfa -40 + ^ x24: .cfa -48 + ^ x25: .cfa -56 + ^ x26: .cfa -64 + ^ x27: .cfa -72 + ^ x28: .cfa -80 + ^ .ra: .cfa -88 + ^ x29: .cfa -96 + ^ v8: .cfa -112 + ^
STACK CFI 866bc .cfa: sp 112 +
STACK CFI 866d8 .cfa: sp 0 +
STACK CFI 866dc .cfa: x29 96 +
STACK CFI INIT 8a1f8 a4c .cfa: sp 0 +
STACK CFI 8a1fc .cfa: sp 144 +
STACK CFI 8a214 .cfa: x29 80 + x19: .cfa -8 + ^ x20: .cfa -16 + ^ x21: .cfa -24 + ^ x22: .cfa -32 + ^ x23: .cfa -40 + ^ x24: .cfa -48 + ^ x25: .cfa -64 + ^ .ra: .cfa -72 + ^ x29: .cfa -80 + ^
STACK CFI 8ab9c .cfa: sp 144 +
STACK CFI 8abb4 .cfa: sp 0 +
STACK CFI 8abb8 .cfa: x29 80 +
STACK CFI INIT 8ac44 57c .cfa: sp 0 +
STACK CFI 8ac48 .cfa: sp 96 +
STACK CFI 8ac60 .cfa: x29 96 + x19: .cfa -8 + ^ x20: .cfa -16 + ^ x21: .cfa -24 + ^ x22: .cfa -32 + ^ x23: .cfa -40 + ^ x24: .cfa -48 + ^ x25: .cfa -56 + ^ x26: .cfa -64 + ^ x27: .cfa -72 + ^ x28: .cfa -80 + ^ .ra: .cfa -88 + ^ x29: .cfa -96 + ^
STACK CFI 8b124 .cfa: sp 96 +
STACK CFI 8b13c .cfa: sp 0 +
STACK CFI 8b140 .cfa: x29 96 +
STACK CFI INIT 8b1c0 67c .cfa: sp 0 +
STACK CFI 8b1c4 .cfa: sp 96 +
STACK CFI 8b1dc .cfa: x29 96 + x19: .cfa -8 + ^ x20: .cfa -16 + ^ x21: .cfa -24 + ^ x22: .cfa -32 + ^ x23: .cfa -40 + ^ x24: .cfa -48 + ^ x25: .cfa -56 + ^ x26: .cfa -64 + ^ x27: .cfa -72 + ^ x28: .cfa -80 + ^ .ra: .cfa -88 + ^ x29: .cfa -96 + ^
STACK CFI 8b7a0 .cfa: sp 96 +
STACK CFI 8b7b8 .cfa: sp 0 +
STACK CFI 8b7bc .cfa: x29 96 +
