MODULE Linux arm64 DF6333D798E3130F825F10F2F20624DD0 beat.click_sounds_lite.android64.so
INFO CODE_ID D73363DFE3980F13825F10F2F20624DDDFE8BA33
INFO GENERATOR mozilla/dump_syms 2.3.4
PUBLIC 6a00 0 __on_dlclose
PUBLIC 6a10 0 __emutls_unregister_key
PUBLIC 6a18 0 __on_dlclose_late
PUBLIC 6a20 0 __atexit_handler_wrapper
PUBLIC 6a34 0 atexit
PUBLIC 6a50 0 pthread_atfork
PUBLIC 6a60 0 __aarch64_ldadd8_relax
PUBLIC 6a90 0 init_have_lse_atomics
PUBLIC 6b28 0 __init_cpu_features_constructor
PUBLIC 70c4 0 __init_cpu_features
PUBLIC 7150 0 __aarch64_ldadd8_acq_rel
PUBLIC 7180 0 integrityCheck(PlayerObject*, PlayerButton)
PUBLIC 7298 0 geode::Mod::getSettingValue<bool>(std::__ndk1::basic_string_view<char, std::__ndk1::char_traits<char> >) const
PUBLIC 73c8 0 __cxx_global_var_init.3
PUBLIC 7824 0 __cxx_global_var_init.4
PUBLIC 7c80 0 _GLOBAL__sub_I_main.cpp
PUBLIC 81e8 0 geode::modifier::ModifyBase<geode::modifier::ModifyDerive<hook10<(anonymous namespace)::hook10Parent>, MenuLayer> >::~ModifyBase()
PUBLIC 8200 0 geode::modifier::ModifyBase<geode::modifier::ModifyDerive<hook96<(anonymous namespace)::hook96Parent>, PlayerObject> >::~ModifyBase()
PUBLIC 8218 0 __cxx_global_var_init.5
PUBLIC 869c 0 geode::modifier::ModifyBase<geode::modifier::ModifyDerive<CSLitePauseLayer, PauseLayer> >::~ModifyBase()
PUBLIC 86b4 0 __clang_call_terminate
PUBLIC 86c4 0 geode::modifier::ModifyDerive<hook10<(anonymous namespace)::hook10Parent>, MenuLayer>::apply()
PUBLIC 89b8 0 std::__ndk1::shared_ptr<geode::Hook>::~shared_ptr[abi:ne180000]()
PUBLIC 8a08 0 geode::impl::ResultData<geode::Hook*, std::__ndk1::basic_string<char, std::__ndk1::char_traits<char>, std::__ndk1::allocator<char> > >::~ResultData()
PUBLIC 8a7c 0 std::__ndk1::vector<std::__ndk1::basic_string<char, std::__ndk1::char_traits<char>, std::__ndk1::allocator<char> >, std::__ndk1::allocator<std::__ndk1::basic_string<char, std::__ndk1::char_traits<char>, std::__ndk1::allocator<char> > > >::~vector[abi:ne180000]()
PUBLIC 8af8 0 geode::modifier::ModifyBase<geode::modifier::ModifyDerive<hook10<(anonymous namespace)::hook10Parent>, MenuLayer> >::apply()
PUBLIC 8afc 0 _ZN5geode15UnwrapExceptionC2IRPNS_4HookEQsr4implE18IsStringStreamableIT_EEENS_4impl5OkTagEOS5_
PUBLIC 8c50 0 std::__ndk1::__throw_bad_variant_access[abi:ne180000]()
PUBLIC 8c84 0 std::__ndk1::basic_stringstream<char, std::__ndk1::char_traits<char>, std::__ndk1::allocator<char> >::basic_stringstream[abi:ne180000]()
PUBLIC m 8db0 0 std::__ndk1::basic_stringstream<char, std::__ndk1::char_traits<char>, std::__ndk1::allocator<char> >::~basic_stringstream()
PUBLIC 8e30 0 geode::UnwrapException::~UnwrapException()
PUBLIC 8e54 0 std::__ndk1::__put_character_sequence[abi:ne180000]<char, std::__ndk1::char_traits<char> >(std::__ndk1::basic_ostream<char, std::__ndk1::char_traits<char> >, std::__ndk1::basic_ostream const*, unsigned long)
PUBLIC 8ff8 0 std::__ndk1::__pad_and_output[abi:ne180000]<char, std::__ndk1::char_traits<char> >(std::__ndk1::char_traits<char>, std::__ndk1::ostreambuf_iterator const*, std::__ndk1::ostreambuf_iterator const, std::__ndk1::ostreambuf_iterator const, std::__ndk1::ios_base&, std::__ndk1::ostreambuf_iterator)
PUBLIC 91d4 0 std::__ndk1::basic_string<char, std::__ndk1::char_traits<char>, std::__ndk1::allocator<char> >::__throw_length_error[abi:ne180000]() const
PUBLIC 91e8 0 std::__ndk1::__throw_length_error[abi:ne180000](char const*)
PUBLIC 9238 0 std::length_error::length_error[abi:ne180000](char const*)
PUBLIC 9268 0 std::__throw_bad_array_new_length([abi:ne180000], void)
PUBLIC 929c 0 std::__ndk1::basic_stringbuf<char, std::__ndk1::char_traits<char>, std::__ndk1::allocator<char> >::str[abi:ne180000]() &&
PUBLIC 9414 0 std::__ndk1::basic_stringbuf<char, std::__ndk1::char_traits<char>, std::__ndk1::allocator<char> >::__init_buf_ptrs[abi:ne180000]()
PUBLIC 955c 0 std::__ndk1::vector<std::__ndk1::basic_string<char, std::__ndk1::char_traits<char>, std::__ndk1::allocator<char> >, std::__ndk1::allocator<std::__ndk1::basic_string<char, std::__ndk1::char_traits<char>, std::__ndk1::allocator<char> > > >::__push_back_slow_path<std::__ndk1::basic_string<char, std::__ndk1::char_traits<char>, std::__ndk1::allocator<char> > const&>(std::__ndk1::basic_string<char, std::__ndk1::char_traits<char>, std::__ndk1::allocator<char> > const&)
PUBLIC 9780 0 std::__ndk1::basic_string<char, std::__ndk1::char_traits<char>, std::__ndk1::allocator<char> >::__init_copy_ctor_external(char const*, unsigned long)
PUBLIC 9800 0 std::__ndk1::__split_buffer<std::__ndk1::basic_string<char, std::__ndk1::char_traits<char>, std::__ndk1::allocator<char> >, std::__ndk1::allocator<std::__ndk1::basic_string<char, std::__ndk1::char_traits<char>, std::__ndk1::allocator<char> > >&>::~__split_buffer()
PUBLIC 9868 0 std::__ndk1::vector<std::__ndk1::basic_string<char, std::__ndk1::char_traits<char>, std::__ndk1::allocator<char> >, std::__ndk1::allocator<std::__ndk1::basic_string<char, std::__ndk1::char_traits<char>, std::__ndk1::allocator<char> > > >::__throw_length_error[abi:ne180000]() const
PUBLIC 987c 0 std::__ndk1::__variant_detail::__visitation::__base::__dispatcher<(unsigned long)0>::__dispatch[abi:ne180000]<std::__ndk1::__variant_detail::__dtor<std::__ndk1::__variant_detail::__traits<geode::Hook*, std::__ndk1::basic_string<char, std::__ndk1::char_traits<char>, std::__ndk1::allocator<char> > >, (std::__ndk1::__variant_detail::_Trait)1>::__destroy[abi:ne180000]()::{lambda(auto:1&)#1}, std::__ndk1::__variant_detail::__base<(std::__ndk1::__variant_detail::__traits<geode::Hook*, std::__ndk1::basic_string<char, std::__ndk1::char_traits<char>, std::__ndk1::allocator<char> > >)1, geode::Hook, std::__ndk1::allocator<char> >&>(std::__ndk1::__variant_detail::__dtor<std::__ndk1::__variant_detail::__traits<geode::Hook*, std::__ndk1::basic_string<char, std::__ndk1::char_traits<char>, std::__ndk1::allocator<char> > >, (std::__ndk1::__variant_detail::_Trait)1>, std::__ndk1::__variant_detail::__base<(std::__ndk1::__variant_detail::__traits<geode::Hook*, std::__ndk1::basic_string<char, std::__ndk1::char_traits<char>, std::__ndk1::allocator<char> > >)1, geode::Hook, std::__ndk1::allocator<char> >&)
PUBLIC 9880 0 std::__ndk1::__variant_detail::__visitation::__base::__dispatcher<(unsigned long)1>::__dispatch[abi:ne180000]<std::__ndk1::__variant_detail::__dtor<std::__ndk1::__variant_detail::__traits<geode::Hook*, std::__ndk1::basic_string<char, std::__ndk1::char_traits<char>, std::__ndk1::allocator<char> > >, (std::__ndk1::__variant_detail::_Trait)1>::__destroy[abi:ne180000]()::{lambda(auto:1&)#1}, std::__ndk1::__variant_detail::__base<(std::__ndk1::__variant_detail::__traits<geode::Hook*, std::__ndk1::basic_string<char, std::__ndk1::char_traits<char>, std::__ndk1::allocator<char> > >)1, geode::Hook, std::__ndk1::allocator<char> >&>(std::__ndk1::__variant_detail::__dtor<std::__ndk1::__variant_detail::__traits<geode::Hook*, std::__ndk1::basic_string<char, std::__ndk1::char_traits<char>, std::__ndk1::allocator<char> > >, (std::__ndk1::__variant_detail::_Trait)1>, std::__ndk1::__variant_detail::__base<(std::__ndk1::__variant_detail::__traits<geode::Hook*, std::__ndk1::basic_string<char, std::__ndk1::char_traits<char>, std::__ndk1::allocator<char> > >)1, geode::Hook, std::__ndk1::allocator<char> >&)
PUBLIC 9894 0 std::__ndk1::__tree<std::__ndk1::__value_type<std::__ndk1::basic_string<char, std::__ndk1::char_traits<char>, std::__ndk1::allocator<char> >, std::__ndk1::shared_ptr<geode::Hook> >, std::__ndk1::__map_value_compare<std::__ndk1::basic_string<char, std::__ndk1::char_traits<char>, std::__ndk1::allocator<char> >, std::__ndk1::__value_type<std::__ndk1::basic_string<char, std::__ndk1::char_traits<char>, std::__ndk1::allocator<char> >, std::__ndk1::shared_ptr<geode::Hook> >, std::__ndk1::less<std::__ndk1::basic_string<char, std::__ndk1::char_traits<char>, std::__ndk1::allocator<char> > >, true>, std::__ndk1::allocator<std::__ndk1::__value_type<std::__ndk1::basic_string<char, std::__ndk1::char_traits<char>, std::__ndk1::allocator<char> >, std::__ndk1::shared_ptr<geode::Hook> > > >::find<std::__ndk1::basic_string<char, std::__ndk1::char_traits<char>, std::__ndk1::allocator<char> > >(std::__ndk1::basic_string<char, std::__ndk1::char_traits<char>, std::__ndk1::allocator<char> > const&)
PUBLIC 99b4 0 std::__ndk1::__tree<std::__ndk1::__value_type<std::__ndk1::basic_string<char, std::__ndk1::char_traits<char>, std::__ndk1::allocator<char> >, std::__ndk1::shared_ptr<geode::Hook> >, std::__ndk1::__map_value_compare<std::__ndk1::basic_string<char, std::__ndk1::char_traits<char>, std::__ndk1::allocator<char> >, std::__ndk1::__value_type<std::__ndk1::basic_string<char, std::__ndk1::char_traits<char>, std::__ndk1::allocator<char> >, std::__ndk1::shared_ptr<geode::Hook> >, std::__ndk1::less<std::__ndk1::basic_string<char, std::__ndk1::char_traits<char>, std::__ndk1::allocator<char> > >, true>, std::__ndk1::allocator<std::__ndk1::__value_type<std::__ndk1::basic_string<char, std::__ndk1::char_traits<char>, std::__ndk1::allocator<char> >, std::__ndk1::shared_ptr<geode::Hook> > > >::erase(std::__ndk1::__tree_const_iterator<std::__ndk1::__value_type<std::__ndk1::basic_string<char, std::__ndk1::char_traits<char>, std::__ndk1::allocator<char> >, std::__ndk1::shared_ptr<geode::Hook> >, std::__ndk1::__tree_node<std::__ndk1::__value_type<std::__ndk1::basic_string<char, std::__ndk1::char_traits<char>, std::__ndk1::allocator<char> >, std::__ndk1::shared_ptr<geode::Hook> >, void*>*, long>)
PUBLIC 9e58 0 std::__ndk1::__tree<std::__ndk1::__value_type<std::__ndk1::basic_string<char, std::__ndk1::char_traits<char>, std::__ndk1::allocator<char> >, std::__ndk1::shared_ptr<geode::Hook> >, std::__ndk1::__map_value_compare<std::__ndk1::basic_string<char, std::__ndk1::char_traits<char>, std::__ndk1::allocator<char> >, std::__ndk1::__value_type<std::__ndk1::basic_string<char, std::__ndk1::char_traits<char>, std::__ndk1::allocator<char> >, std::__ndk1::shared_ptr<geode::Hook> >, std::__ndk1::less<std::__ndk1::basic_string<char, std::__ndk1::char_traits<char>, std::__ndk1::allocator<char> > >, true>, std::__ndk1::allocator<std::__ndk1::__value_type<std::__ndk1::basic_string<char, std::__ndk1::char_traits<char>, std::__ndk1::allocator<char> >, std::__ndk1::shared_ptr<geode::Hook> > > >::destroy(std::__ndk1::__tree_node<std::__ndk1::__value_type<std::__ndk1::basic_string<char, std::__ndk1::char_traits<char>, std::__ndk1::allocator<char> >, std::__ndk1::shared_ptr<geode::Hook> >, void*>*)
PUBLIC 9edc 0 geode::modifier::AsStaticFunction_init<hook10<(anonymous namespace)::hook10Parent>, bool (hook10<(anonymous namespace)::hook10Parent>::*)()>::Impl<bool (hook10<(anonymous namespace)::hook10Parent>::*)()>::function(hook10<(anonymous namespace)::hook10Parent>*)
PUBLIC a0a4 0 geode::addresser::Addresser::addressOfVirtual<bool, MenuLayer, >(bool (MenuLayer::*)())
PUBLIC a14c 0 MenuLayer::MenuLayer(geode::ZeroConstructorType)
PUBLIC a1e8 0 std::__ndk1::shared_ptr<tulip::hook::CallingConvention>::~shared_ptr[abi:ne180000]()
PUBLIC a238 0 tulip::hook::HandlerMetadata::~HandlerMetadata()
PUBLIC a29c 0 geode::Mod::getSavedValue<bool>(std::__ndk1::basic_string_view<char, std::__ndk1::char_traits<char> >)
PUBLIC a42c 0 geode::impl::ResultData<matjson::Value&, std::__ndk1::basic_string<char, std::__ndk1::char_traits<char>, std::__ndk1::allocator<char> > >::~ResultData()
PUBLIC a4a0 0 std::__ndk1::__variant_detail::__visitation::__base::__dispatcher<(unsigned long)0>::__dispatch[abi:ne180000]<std::__ndk1::__variant_detail::__dtor<std::__ndk1::__variant_detail::__traits<std::__ndk1::reference_wrapper<matjson::Value>, std::__ndk1::basic_string<char, std::__ndk1::char_traits<char>, std::__ndk1::allocator<char> > >, (std::__ndk1::__variant_detail::_Trait)1>::__destroy[abi:ne180000]()::{lambda(auto:1&)#1}, std::__ndk1::__variant_detail::__base<(std::__ndk1::__variant_detail::__traits<std::__ndk1::reference_wrapper<matjson::Value>, std::__ndk1::basic_string<char, std::__ndk1::char_traits<char>, std::__ndk1::allocator<char> > >)1, matjson::Value, std::__ndk1::allocator<char> >&>(std::__ndk1::__variant_detail::__dtor<std::__ndk1::__variant_detail::__traits<std::__ndk1::reference_wrapper<matjson::Value>, std::__ndk1::basic_string<char, std::__ndk1::char_traits<char>, std::__ndk1::allocator<char> > >, (std::__ndk1::__variant_detail::_Trait)1>, std::__ndk1::__variant_detail::__base<(std::__ndk1::__variant_detail::__traits<std::__ndk1::reference_wrapper<matjson::Value>, std::__ndk1::basic_string<char, std::__ndk1::char_traits<char>, std::__ndk1::allocator<char> > >)1, matjson::Value, std::__ndk1::allocator<char> >&)
PUBLIC a4a4 0 std::__ndk1::__variant_detail::__visitation::__base::__dispatcher<(unsigned long)1>::__dispatch[abi:ne180000]<std::__ndk1::__variant_detail::__dtor<std::__ndk1::__variant_detail::__traits<std::__ndk1::reference_wrapper<matjson::Value>, std::__ndk1::basic_string<char, std::__ndk1::char_traits<char>, std::__ndk1::allocator<char> > >, (std::__ndk1::__variant_detail::_Trait)1>::__destroy[abi:ne180000]()::{lambda(auto:1&)#1}, std::__ndk1::__variant_detail::__base<(std::__ndk1::__variant_detail::__traits<std::__ndk1::reference_wrapper<matjson::Value>, std::__ndk1::basic_string<char, std::__ndk1::char_traits<char>, std::__ndk1::allocator<char> > >)1, matjson::Value, std::__ndk1::allocator<char> >&>(std::__ndk1::__variant_detail::__dtor<std::__ndk1::__variant_detail::__traits<std::__ndk1::reference_wrapper<matjson::Value>, std::__ndk1::basic_string<char, std::__ndk1::char_traits<char>, std::__ndk1::allocator<char> > >, (std::__ndk1::__variant_detail::_Trait)1>, std::__ndk1::__variant_detail::__base<(std::__ndk1::__variant_detail::__traits<std::__ndk1::reference_wrapper<matjson::Value>, std::__ndk1::basic_string<char, std::__ndk1::char_traits<char>, std::__ndk1::allocator<char> > >)1, matjson::Value, std::__ndk1::allocator<char> >&)
PUBLIC a4b8 0 std::__ndk1::__variant_detail::__visitation::__base::__dispatcher<(unsigned long)0>::__dispatch[abi:ne180000]<std::__ndk1::__variant_detail::__dtor<std::__ndk1::__variant_detail::__traits<bool, std::__ndk1::basic_string<char, std::__ndk1::char_traits<char>, std::__ndk1::allocator<char> > >, (std::__ndk1::__variant_detail::_Trait)1>::__destroy[abi:ne180000]()::{lambda(auto:1&)#1}, std::__ndk1::__variant_detail::__base<(std::__ndk1::__variant_detail::__traits<bool, std::__ndk1::basic_string<char, std::__ndk1::char_traits<char>, std::__ndk1::allocator<char> > >)1, bool, std::__ndk1::allocator<char> >&>(std::__ndk1::__variant_detail::__dtor<std::__ndk1::__variant_detail::__traits<bool, std::__ndk1::basic_string<char, std::__ndk1::char_traits<char>, std::__ndk1::allocator<char> > >, (std::__ndk1::__variant_detail::_Trait)1>, std::__ndk1::__variant_detail::__base<(std::__ndk1::__variant_detail::__traits<bool, std::__ndk1::basic_string<char, std::__ndk1::char_traits<char>, std::__ndk1::allocator<char> > >)1, bool, std::__ndk1::allocator<char> >&)
PUBLIC a4bc 0 std::__ndk1::__variant_detail::__visitation::__base::__dispatcher<(unsigned long)1>::__dispatch[abi:ne180000]<std::__ndk1::__variant_detail::__dtor<std::__ndk1::__variant_detail::__traits<bool, std::__ndk1::basic_string<char, std::__ndk1::char_traits<char>, std::__ndk1::allocator<char> > >, (std::__ndk1::__variant_detail::_Trait)1>::__destroy[abi:ne180000]()::{lambda(auto:1&)#1}, std::__ndk1::__variant_detail::__base<(std::__ndk1::__variant_detail::__traits<bool, std::__ndk1::basic_string<char, std::__ndk1::char_traits<char>, std::__ndk1::allocator<char> > >)1, bool, std::__ndk1::allocator<char> >&>(std::__ndk1::__variant_detail::__dtor<std::__ndk1::__variant_detail::__traits<bool, std::__ndk1::basic_string<char, std::__ndk1::char_traits<char>, std::__ndk1::allocator<char> > >, (std::__ndk1::__variant_detail::_Trait)1>, std::__ndk1::__variant_detail::__base<(std::__ndk1::__variant_detail::__traits<bool, std::__ndk1::basic_string<char, std::__ndk1::char_traits<char>, std::__ndk1::allocator<char> > >)1, bool, std::__ndk1::allocator<char> >&)
PUBLIC a4d0 0 std::__ndk1::__function::__base<void (FLAlertLayer*, bool)>::~__base()
PUBLIC a4d4 0 std::__ndk1::__function::__func<hook10<(anonymous namespace)::hook10Parent>::init()::{lambda(auto:1, bool)#1}, std::__ndk1::allocator<hook10<(anonymous namespace)::hook10Parent>::init()::{lambda(auto:1, bool)#1}>, void (FLAlertLayer*, bool)>::~__func()
PUBLIC a4d8 0 std::__ndk1::__function::__func<hook10<(anonymous namespace)::hook10Parent>::init()::{lambda(auto:1, bool)#1}, std::__ndk1::allocator<hook10<(anonymous namespace)::hook10Parent>::init()::{lambda(auto:1, bool)#1}>, void (FLAlertLayer*, bool)>::__clone() const
PUBLIC a50c 0 std::__ndk1::__function::__func<hook10<(anonymous namespace)::hook10Parent>::init()::{lambda(auto:1, bool)#1}, std::__ndk1::allocator<hook10<(anonymous namespace)::hook10Parent>::init()::{lambda(auto:1, bool)#1}>, void (FLAlertLayer*, bool)>::__clone(std::__ndk1::__function::__base<void (FLAlertLayer*, bool)>*) const
PUBLIC a520 0 std::__ndk1::__function::__func<hook10<(anonymous namespace)::hook10Parent>::init()::{lambda(auto:1, bool)#1}, std::__ndk1::allocator<hook10<(anonymous namespace)::hook10Parent>::init()::{lambda(auto:1, bool)#1}>, void (FLAlertLayer*, bool)>::destroy()
PUBLIC a524 0 std::__ndk1::__function::__func<hook10<(anonymous namespace)::hook10Parent>::init()::{lambda(auto:1, bool)#1}, std::__ndk1::allocator<hook10<(anonymous namespace)::hook10Parent>::init()::{lambda(auto:1, bool)#1}>, void (FLAlertLayer*, bool)>::destroy_deallocate()
PUBLIC a528 0 std::__ndk1::__function::__func<hook10<(anonymous namespace)::hook10Parent>::init()::{lambda(auto:1, bool)#1}, std::__ndk1::allocator<hook10<(anonymous namespace)::hook10Parent>::init()::{lambda(auto:1, bool)#1}>, void (FLAlertLayer*, bool)>::operator()(FLAlertLayer*&&, bool&&)
PUBLIC a64c 0 std::__ndk1::__function::__func<hook10<(anonymous namespace)::hook10Parent>::init()::{lambda(auto:1, bool)#1}, std::__ndk1::allocator<hook10<(anonymous namespace)::hook10Parent>::init()::{lambda(auto:1, bool)#1}>, void (FLAlertLayer*, bool)>::target(std::type_info const&) const
PUBLIC a668 0 std::__ndk1::__function::__func<hook10<(anonymous namespace)::hook10Parent>::init()::{lambda(auto:1, bool)#1}, std::__ndk1::allocator<hook10<(anonymous namespace)::hook10Parent>::init()::{lambda(auto:1, bool)#1}>, void (FLAlertLayer*, bool)>::target_type() const
PUBLIC a674 0 std::__ndk1::__tree<std::__ndk1::__value_type<std::__ndk1::basic_string<char, std::__ndk1::char_traits<char>, std::__ndk1::allocator<char> >, std::__ndk1::shared_ptr<geode::Hook> >, std::__ndk1::__map_value_compare<std::__ndk1::basic_string<char, std::__ndk1::char_traits<char>, std::__ndk1::allocator<char> >, std::__ndk1::__value_type<std::__ndk1::basic_string<char, std::__ndk1::char_traits<char>, std::__ndk1::allocator<char> >, std::__ndk1::shared_ptr<geode::Hook> >, std::__ndk1::less<std::__ndk1::basic_string<char, std::__ndk1::char_traits<char>, std::__ndk1::allocator<char> > >, true>, std::__ndk1::allocator<std::__ndk1::__value_type<std::__ndk1::basic_string<char, std::__ndk1::char_traits<char>, std::__ndk1::allocator<char> >, std::__ndk1::shared_ptr<geode::Hook> > > >::__emplace_unique_key_args<std::__ndk1::basic_string<char, std::__ndk1::char_traits<char>, std::__ndk1::allocator<char> >, std::__ndk1::piecewise_construct_t const&, std::__ndk1::tuple<std::__ndk1::basic_string<char, std::__ndk1::char_traits<char>, std::__ndk1::allocator<char> >&&>, std::__ndk1::tuple<> >(std::__ndk1::basic_string<char, std::__ndk1::char_traits<char>, std::__ndk1::allocator<char> > const&, std::__ndk1::piecewise_construct_t const&, std::__ndk1::tuple<std::__ndk1::basic_string<char, std::__ndk1::char_traits<char>, std::__ndk1::allocator<char> >&&>, std::__ndk1::tuple<>)
PUBLIC a7dc 0 std::__ndk1::__tree_balance_after_insert[abi:ne180000]<std::__ndk1::__tree_node_base<void*>*>(std::__ndk1::__tree_node_base<void*>*, std::__ndk1::__tree_node_base<void*>*)
PUBLIC a98c 0 std::__ndk1::shared_ptr<geode::SettingV3>::~shared_ptr[abi:ne180000]()
PUBLIC a9dc 0 geode::cast::traverseTypeinfoFor(void*, geode::cast::ClassTypeinfoType const*, char const*)
PUBLIC aad4 0 geode::modifier::ModifyDerive<hook96<(anonymous namespace)::hook96Parent>, PlayerObject>::apply()
PUBLIC af40 0 geode::modifier::ModifyBase<geode::modifier::ModifyDerive<hook96<(anonymous namespace)::hook96Parent>, PlayerObject> >::apply()
PUBLIC af44 0 geode::Hook::create<bool (*)(hook96<(anonymous namespace)::hook96Parent>*, PlayerButton)>(void*, bool (*)(hook96<(anonymous namespace)::hook96Parent>*, PlayerButton), std::__ndk1::basic_string<char, std::__ndk1::char_traits<char>, std::__ndk1::allocator<char> > const&, tulip::hook::TulipConvention, tulip::hook::HookMetadata const&)
PUBLIC b0c8 0 geode::modifier::AsStaticFunction_pushButton<hook96<(anonymous namespace)::hook96Parent>, bool (hook96<(anonymous namespace)::hook96Parent>::*)(PlayerButton)>::Impl<bool (hook96<(anonymous namespace)::hook96Parent>::*)(PlayerButton)>::function(hook96<(anonymous namespace)::hook96Parent>*, PlayerButton)
PUBLIC b3dc 0 geode::modifier::AsStaticFunction_releaseButton<hook96<(anonymous namespace)::hook96Parent>, bool (hook96<(anonymous namespace)::hook96Parent>::*)(PlayerButton)>::Impl<bool (hook96<(anonymous namespace)::hook96Parent>::*)(PlayerButton)>::function(hook96<(anonymous namespace)::hook96Parent>*, PlayerButton)
PUBLIC b73c 0 geode::Mod::getSettingValue<std::__ndk1::__fs::filesystem::path>(std::__ndk1::basic_string_view<char, std::__ndk1::char_traits<char> >) const
PUBLIC b8cc 0 geode::Mod::getSettingValue<long>(std::__ndk1::basic_string_view<char, std::__ndk1::char_traits<char> >) const
PUBLIC b9e0 0 SoundCache::Setsound(std::__ndk1::basic_string<char, std::__ndk1::char_traits<char>, std::__ndk1::allocator<char> >)
PUBLIC bacc 0 std::__ndk1::shared_ptr<geode::FileSettingV3>::~shared_ptr[abi:ne180000]()
PUBLIC bb1c 0 geode::modifier::FieldIntermediate<hook96<(anonymous namespace)::hook96Parent>, PlayerObject>::operator->()
PUBLIC c154 0 geode::modifier::FieldIntermediate<hook96<(anonymous namespace)::hook96Parent>, PlayerObject>::fieldDestructor(void*)
PUBLIC c158 0 std::__ndk1::vector<void*, std::__ndk1::allocator<void*> >::__throw_length_error[abi:ne180000]() const
PUBLIC c16c 0 std::__ndk1::vector<std::__ndk1::function<void (void*)>, std::__ndk1::allocator<std::__ndk1::function<void (void*)> > >::__throw_length_error[abi:ne180000]() const
PUBLIC c180 0 std::__ndk1::vector<void*, std::__ndk1::allocator<void*> >::__throw_out_of_range[abi:ne180000]() const
PUBLIC c18c 0 std::__ndk1::__throw_out_of_range[abi:ne180000](char const*)
PUBLIC c1dc 0 std::out_of_range::out_of_range[abi:ne180000](char const*)
PUBLIC c20c 0 std::__ndk1::vector<std::__ndk1::function<void (void*)>, std::__ndk1::allocator<std::__ndk1::function<void (void*)> > >::__throw_out_of_range[abi:ne180000]() const
PUBLIC c218 0 std::__ndk1::__function::__base<void (void*)>::~__base()
PUBLIC c21c 0 std::__ndk1::__function::__func<void (*)(void*), std::__ndk1::allocator<void (*)(void*)>, void (void*)>::~__func()
PUBLIC c220 0 std::__ndk1::__function::__func<void (*)(void*), std::__ndk1::allocator<void (*)(void*)>, void (void*)>::__clone() const
PUBLIC c258 0 std::__ndk1::__function::__func<void (*)(void*), std::__ndk1::allocator<void (*)(void*)>, void (void*)>::__clone(std::__ndk1::__function::__base<void (void*)>*) const
PUBLIC c270 0 std::__ndk1::__function::__func<void (*)(void*), std::__ndk1::allocator<void (*)(void*)>, void (void*)>::destroy()
PUBLIC c274 0 std::__ndk1::__function::__func<void (*)(void*), std::__ndk1::allocator<void (*)(void*)>, void (void*)>::destroy_deallocate()
PUBLIC c278 0 std::__ndk1::__function::__func<void (*)(void*), std::__ndk1::allocator<void (*)(void*)>, void (void*)>::operator()(void*&&)
PUBLIC c288 0 std::__ndk1::__function::__func<void (*)(void*), std::__ndk1::allocator<void (*)(void*)>, void (void*)>::target(std::type_info const&) const
PUBLIC c2a4 0 std::__ndk1::__function::__func<void (*)(void*), std::__ndk1::allocator<void (*)(void*)>, void (void*)>::target_type() const
PUBLIC c2b0 0 std::__ndk1::basic_string<char, std::__ndk1::char_traits<char>, std::__ndk1::allocator<char> >::__assign_no_alias<true>(char const*, unsigned long)
PUBLIC c35c 0 std::__ndk1::basic_string<char, std::__ndk1::char_traits<char>, std::__ndk1::allocator<char> >::__assign_no_alias<false>(char const*, unsigned long)
PUBLIC c46c 0 geode::modifier::ModifyDerive<CSLitePauseLayer, PauseLayer>::apply()
PUBLIC c788 0 geode::modifier::ModifyBase<geode::modifier::ModifyDerive<CSLitePauseLayer, PauseLayer> >::apply()
PUBLIC c78c 0 geode::modifier::AsStaticFunction_customSetup<CSLitePauseLayer, void (CSLitePauseLayer::*)()>::Impl<void (CSLitePauseLayer::*)()>::function(CSLitePauseLayer*)
PUBLIC ca44 0 geode::addresser::Addresser::addressOfVirtual<void, PauseLayer, >(void (PauseLayer::*)())
PUBLIC caec 0 PauseLayer::PauseLayer(geode::ZeroConstructorType)
PUBLIC cb78 0 CSLitePauseLayer::openCSLiteSettings(cocos2d::CCObject*)
PUBLIC cbb4 0 geode::EventListener<geode::SettingChangedFilterV3>::EventListener(std::__ndk1::function<void (std::__ndk1::shared_ptr<geode::SettingV3>)>, geode::SettingChangedFilterV3)
PUBLIC ccac 0 geode::SettingChangedFilterV3::~SettingChangedFilterV3()
PUBLIC ccfc 0 std::__ndk1::__function::__func<geode::listenForSettingChangesV3<std::__ndk1::__fs::filesystem::path, geodeExecFunction228<(anonymous namespace)::ExecFuncUnique228>()::{lambda(std::__ndk1::__fs::filesystem::path)#1}>(std::__ndk1::basic_string_view<char, std::__ndk1::char_traits<char> >, geodeExecFunction228<(anonymous namespace)::ExecFuncUnique228>()::{lambda(std::__ndk1::__fs::filesystem::path&&)#1}, geode::Mod*)::{lambda(std::__ndk1::shared_ptr<geode::SettingV3>)#1}, std::__ndk1::allocator<geode::listenForSettingChangesV3<std::__ndk1::__fs::filesystem::path, geodeExecFunction228<(anonymous namespace)::ExecFuncUnique228>()::{lambda(std::__ndk1::__fs::filesystem::path)#1}>(std::__ndk1::basic_string_view<char, std::__ndk1::char_traits<char> >, geodeExecFunction228<(anonymous namespace)::ExecFuncUnique228>()::{lambda(std::__ndk1::__fs::filesystem::path&&)#1}, geode::Mod*)::{lambda(std::__ndk1::shared_ptr<geode::SettingV3>)#1}>, void (std::__ndk1::shared_ptr<geode::SettingV3>)>::~__func()
PUBLIC cd00 0 std::__ndk1::__function::__func<geode::listenForSettingChangesV3<std::__ndk1::__fs::filesystem::path, geodeExecFunction228<(anonymous namespace)::ExecFuncUnique228>()::{lambda(std::__ndk1::__fs::filesystem::path)#1}>(std::__ndk1::basic_string_view<char, std::__ndk1::char_traits<char> >, geodeExecFunction228<(anonymous namespace)::ExecFuncUnique228>()::{lambda(std::__ndk1::__fs::filesystem::path&&)#1}, geode::Mod*)::{lambda(std::__ndk1::shared_ptr<geode::SettingV3>)#1}, std::__ndk1::allocator<geode::listenForSettingChangesV3<std::__ndk1::__fs::filesystem::path, geodeExecFunction228<(anonymous namespace)::ExecFuncUnique228>()::{lambda(std::__ndk1::__fs::filesystem::path)#1}>(std::__ndk1::basic_string_view<char, std::__ndk1::char_traits<char> >, geodeExecFunction228<(anonymous namespace)::ExecFuncUnique228>()::{lambda(std::__ndk1::__fs::filesystem::path&&)#1}, geode::Mod*)::{lambda(std::__ndk1::shared_ptr<geode::SettingV3>)#1}>, void (std::__ndk1::shared_ptr<geode::SettingV3>)>::__clone() const
PUBLIC cd38 0 std::__ndk1::__function::__func<geode::listenForSettingChangesV3<std::__ndk1::__fs::filesystem::path, geodeExecFunction228<(anonymous namespace)::ExecFuncUnique228>()::{lambda(std::__ndk1::__fs::filesystem::path)#1}>(std::__ndk1::basic_string_view<char, std::__ndk1::char_traits<char> >, geodeExecFunction228<(anonymous namespace)::ExecFuncUnique228>()::{lambda(std::__ndk1::__fs::filesystem::path&&)#1}, geode::Mod*)::{lambda(std::__ndk1::shared_ptr<geode::SettingV3>)#1}, std::__ndk1::allocator<geode::listenForSettingChangesV3<std::__ndk1::__fs::filesystem::path, geodeExecFunction228<(anonymous namespace)::ExecFuncUnique228>()::{lambda(std::__ndk1::__fs::filesystem::path)#1}>(std::__ndk1::basic_string_view<char, std::__ndk1::char_traits<char> >, geodeExecFunction228<(anonymous namespace)::ExecFuncUnique228>()::{lambda(std::__ndk1::__fs::filesystem::path&&)#1}, geode::Mod*)::{lambda(std::__ndk1::shared_ptr<geode::SettingV3>)#1}>, void (std::__ndk1::shared_ptr<geode::SettingV3>)>::__clone(std::__ndk1::__function::__base<void (std::__ndk1::shared_ptr<geode::SettingV3>)>*) const
PUBLIC cd50 0 std::__ndk1::__function::__func<geode::listenForSettingChangesV3<std::__ndk1::__fs::filesystem::path, geodeExecFunction228<(anonymous namespace)::ExecFuncUnique228>()::{lambda(std::__ndk1::__fs::filesystem::path)#1}>(std::__ndk1::basic_string_view<char, std::__ndk1::char_traits<char> >, geodeExecFunction228<(anonymous namespace)::ExecFuncUnique228>()::{lambda(std::__ndk1::__fs::filesystem::path&&)#1}, geode::Mod*)::{lambda(std::__ndk1::shared_ptr<geode::SettingV3>)#1}, std::__ndk1::allocator<geode::listenForSettingChangesV3<std::__ndk1::__fs::filesystem::path, geodeExecFunction228<(anonymous namespace)::ExecFuncUnique228>()::{lambda(std::__ndk1::__fs::filesystem::path)#1}>(std::__ndk1::basic_string_view<char, std::__ndk1::char_traits<char> >, geodeExecFunction228<(anonymous namespace)::ExecFuncUnique228>()::{lambda(std::__ndk1::__fs::filesystem::path&&)#1}, geode::Mod*)::{lambda(std::__ndk1::shared_ptr<geode::SettingV3>)#1}>, void (std::__ndk1::shared_ptr<geode::SettingV3>)>::destroy()
PUBLIC cd54 0 std::__ndk1::__function::__func<geode::listenForSettingChangesV3<std::__ndk1::__fs::filesystem::path, geodeExecFunction228<(anonymous namespace)::ExecFuncUnique228>()::{lambda(std::__ndk1::__fs::filesystem::path)#1}>(std::__ndk1::basic_string_view<char, std::__ndk1::char_traits<char> >, geodeExecFunction228<(anonymous namespace)::ExecFuncUnique228>()::{lambda(std::__ndk1::__fs::filesystem::path&&)#1}, geode::Mod*)::{lambda(std::__ndk1::shared_ptr<geode::SettingV3>)#1}, std::__ndk1::allocator<geode::listenForSettingChangesV3<std::__ndk1::__fs::filesystem::path, geodeExecFunction228<(anonymous namespace)::ExecFuncUnique228>()::{lambda(std::__ndk1::__fs::filesystem::path)#1}>(std::__ndk1::basic_string_view<char, std::__ndk1::char_traits<char> >, geodeExecFunction228<(anonymous namespace)::ExecFuncUnique228>()::{lambda(std::__ndk1::__fs::filesystem::path&&)#1}, geode::Mod*)::{lambda(std::__ndk1::shared_ptr<geode::SettingV3>)#1}>, void (std::__ndk1::shared_ptr<geode::SettingV3>)>::destroy_deallocate()
PUBLIC cd58 0 std::__ndk1::__function::__func<geode::listenForSettingChangesV3<std::__ndk1::__fs::filesystem::path, geodeExecFunction228<(anonymous namespace)::ExecFuncUnique228>()::{lambda(std::__ndk1::__fs::filesystem::path)#1}>(std::__ndk1::basic_string_view<char, std::__ndk1::char_traits<char> >, geodeExecFunction228<(anonymous namespace)::ExecFuncUnique228>()::{lambda(std::__ndk1::__fs::filesystem::path&&)#1}, geode::Mod*)::{lambda(std::__ndk1::shared_ptr<geode::SettingV3>)#1}, std::__ndk1::allocator<geode::listenForSettingChangesV3<std::__ndk1::__fs::filesystem::path, geodeExecFunction228<(anonymous namespace)::ExecFuncUnique228>()::{lambda(std::__ndk1::__fs::filesystem::path)#1}>(std::__ndk1::basic_string_view<char, std::__ndk1::char_traits<char> >, geodeExecFunction228<(anonymous namespace)::ExecFuncUnique228>()::{lambda(std::__ndk1::__fs::filesystem::path&&)#1}, geode::Mod*)::{lambda(std::__ndk1::shared_ptr<geode::SettingV3>)#1}>, void (std::__ndk1::shared_ptr<geode::SettingV3>)>::operator()(std::__ndk1::shared_ptr<geode::SettingV3>&&)
PUBLIC cf54 0 std::__ndk1::__function::__func<geode::listenForSettingChangesV3<std::__ndk1::__fs::filesystem::path, geodeExecFunction228<(anonymous namespace)::ExecFuncUnique228>()::{lambda(std::__ndk1::__fs::filesystem::path)#1}>(std::__ndk1::basic_string_view<char, std::__ndk1::char_traits<char> >, geodeExecFunction228<(anonymous namespace)::ExecFuncUnique228>()::{lambda(std::__ndk1::__fs::filesystem::path&&)#1}, geode::Mod*)::{lambda(std::__ndk1::shared_ptr<geode::SettingV3>)#1}, std::__ndk1::allocator<geode::listenForSettingChangesV3<std::__ndk1::__fs::filesystem::path, geodeExecFunction228<(anonymous namespace)::ExecFuncUnique228>()::{lambda(std::__ndk1::__fs::filesystem::path)#1}>(std::__ndk1::basic_string_view<char, std::__ndk1::char_traits<char> >, geodeExecFunction228<(anonymous namespace)::ExecFuncUnique228>()::{lambda(std::__ndk1::__fs::filesystem::path&&)#1}, geode::Mod*)::{lambda(std::__ndk1::shared_ptr<geode::SettingV3>)#1}>, void (std::__ndk1::shared_ptr<geode::SettingV3>)>::target(std::type_info const&) const
PUBLIC cf70 0 std::__ndk1::__function::__func<geode::listenForSettingChangesV3<std::__ndk1::__fs::filesystem::path, geodeExecFunction228<(anonymous namespace)::ExecFuncUnique228>()::{lambda(std::__ndk1::__fs::filesystem::path)#1}>(std::__ndk1::basic_string_view<char, std::__ndk1::char_traits<char> >, geodeExecFunction228<(anonymous namespace)::ExecFuncUnique228>()::{lambda(std::__ndk1::__fs::filesystem::path&&)#1}, geode::Mod*)::{lambda(std::__ndk1::shared_ptr<geode::SettingV3>)#1}, std::__ndk1::allocator<geode::listenForSettingChangesV3<std::__ndk1::__fs::filesystem::path, geodeExecFunction228<(anonymous namespace)::ExecFuncUnique228>()::{lambda(std::__ndk1::__fs::filesystem::path)#1}>(std::__ndk1::basic_string_view<char, std::__ndk1::char_traits<char> >, geodeExecFunction228<(anonymous namespace)::ExecFuncUnique228>()::{lambda(std::__ndk1::__fs::filesystem::path&&)#1}, geode::Mod*)::{lambda(std::__ndk1::shared_ptr<geode::SettingV3>)#1}>, void (std::__ndk1::shared_ptr<geode::SettingV3>)>::target_type() const
PUBLIC cf7c 0 geode::EventListener<geode::SettingChangedFilterV3>::getPool() const
PUBLIC cf80 0 geode::EventListener<geode::SettingChangedFilterV3>::handle(geode::Event*)
PUBLIC d0e4 0 geode::EventListener<geode::SettingChangedFilterV3>::~EventListener()
PUBLIC d180 0 geode::EventListener<geode::SettingChangedFilterV3>::~EventListener()
PUBLIC d224 0 std::__ndk1::__function::__base<void (std::__ndk1::shared_ptr<geode::SettingV3>)>::~__base()
PUBLIC d228 0 std::__ndk1::__function::__func<geode::listenForSettingChangesV3<std::__ndk1::__fs::filesystem::path, geodeExecFunction228<(anonymous namespace)::ExecFuncUnique228>()::{lambda(std::__ndk1::__fs::filesystem::path)#2}>(std::__ndk1::basic_string_view<char, std::__ndk1::char_traits<char> >, geodeExecFunction228<(anonymous namespace)::ExecFuncUnique228>()::{lambda(std::__ndk1::__fs::filesystem::path&&)#2}, geode::Mod*)::{lambda(std::__ndk1::shared_ptr<geode::SettingV3>)#1}, std::__ndk1::allocator<geode::listenForSettingChangesV3<std::__ndk1::__fs::filesystem::path, geodeExecFunction228<(anonymous namespace)::ExecFuncUnique228>()::{lambda(std::__ndk1::__fs::filesystem::path)#2}>(std::__ndk1::basic_string_view<char, std::__ndk1::char_traits<char> >, geodeExecFunction228<(anonymous namespace)::ExecFuncUnique228>()::{lambda(std::__ndk1::__fs::filesystem::path&&)#2}, geode::Mod*)::{lambda(std::__ndk1::shared_ptr<geode::SettingV3>)#1}>, void (std::__ndk1::shared_ptr<geode::SettingV3>)>::~__func()
PUBLIC d22c 0 std::__ndk1::__function::__func<geode::listenForSettingChangesV3<std::__ndk1::__fs::filesystem::path, geodeExecFunction228<(anonymous namespace)::ExecFuncUnique228>()::{lambda(std::__ndk1::__fs::filesystem::path)#2}>(std::__ndk1::basic_string_view<char, std::__ndk1::char_traits<char> >, geodeExecFunction228<(anonymous namespace)::ExecFuncUnique228>()::{lambda(std::__ndk1::__fs::filesystem::path&&)#2}, geode::Mod*)::{lambda(std::__ndk1::shared_ptr<geode::SettingV3>)#1}, std::__ndk1::allocator<geode::listenForSettingChangesV3<std::__ndk1::__fs::filesystem::path, geodeExecFunction228<(anonymous namespace)::ExecFuncUnique228>()::{lambda(std::__ndk1::__fs::filesystem::path)#2}>(std::__ndk1::basic_string_view<char, std::__ndk1::char_traits<char> >, geodeExecFunction228<(anonymous namespace)::ExecFuncUnique228>()::{lambda(std::__ndk1::__fs::filesystem::path&&)#2}, geode::Mod*)::{lambda(std::__ndk1::shared_ptr<geode::SettingV3>)#1}>, void (std::__ndk1::shared_ptr<geode::SettingV3>)>::__clone() const
PUBLIC d264 0 std::__ndk1::__function::__func<geode::listenForSettingChangesV3<std::__ndk1::__fs::filesystem::path, geodeExecFunction228<(anonymous namespace)::ExecFuncUnique228>()::{lambda(std::__ndk1::__fs::filesystem::path)#2}>(std::__ndk1::basic_string_view<char, std::__ndk1::char_traits<char> >, geodeExecFunction228<(anonymous namespace)::ExecFuncUnique228>()::{lambda(std::__ndk1::__fs::filesystem::path&&)#2}, geode::Mod*)::{lambda(std::__ndk1::shared_ptr<geode::SettingV3>)#1}, std::__ndk1::allocator<geode::listenForSettingChangesV3<std::__ndk1::__fs::filesystem::path, geodeExecFunction228<(anonymous namespace)::ExecFuncUnique228>()::{lambda(std::__ndk1::__fs::filesystem::path)#2}>(std::__ndk1::basic_string_view<char, std::__ndk1::char_traits<char> >, geodeExecFunction228<(anonymous namespace)::ExecFuncUnique228>()::{lambda(std::__ndk1::__fs::filesystem::path&&)#2}, geode::Mod*)::{lambda(std::__ndk1::shared_ptr<geode::SettingV3>)#1}>, void (std::__ndk1::shared_ptr<geode::SettingV3>)>::__clone(std::__ndk1::__function::__base<void (std::__ndk1::shared_ptr<geode::SettingV3>)>*) const
PUBLIC d27c 0 std::__ndk1::__function::__func<geode::listenForSettingChangesV3<std::__ndk1::__fs::filesystem::path, geodeExecFunction228<(anonymous namespace)::ExecFuncUnique228>()::{lambda(std::__ndk1::__fs::filesystem::path)#2}>(std::__ndk1::basic_string_view<char, std::__ndk1::char_traits<char> >, geodeExecFunction228<(anonymous namespace)::ExecFuncUnique228>()::{lambda(std::__ndk1::__fs::filesystem::path&&)#2}, geode::Mod*)::{lambda(std::__ndk1::shared_ptr<geode::SettingV3>)#1}, std::__ndk1::allocator<geode::listenForSettingChangesV3<std::__ndk1::__fs::filesystem::path, geodeExecFunction228<(anonymous namespace)::ExecFuncUnique228>()::{lambda(std::__ndk1::__fs::filesystem::path)#2}>(std::__ndk1::basic_string_view<char, std::__ndk1::char_traits<char> >, geodeExecFunction228<(anonymous namespace)::ExecFuncUnique228>()::{lambda(std::__ndk1::__fs::filesystem::path&&)#2}, geode::Mod*)::{lambda(std::__ndk1::shared_ptr<geode::SettingV3>)#1}>, void (std::__ndk1::shared_ptr<geode::SettingV3>)>::destroy()
PUBLIC d280 0 std::__ndk1::__function::__func<geode::listenForSettingChangesV3<std::__ndk1::__fs::filesystem::path, geodeExecFunction228<(anonymous namespace)::ExecFuncUnique228>()::{lambda(std::__ndk1::__fs::filesystem::path)#2}>(std::__ndk1::basic_string_view<char, std::__ndk1::char_traits<char> >, geodeExecFunction228<(anonymous namespace)::ExecFuncUnique228>()::{lambda(std::__ndk1::__fs::filesystem::path&&)#2}, geode::Mod*)::{lambda(std::__ndk1::shared_ptr<geode::SettingV3>)#1}, std::__ndk1::allocator<geode::listenForSettingChangesV3<std::__ndk1::__fs::filesystem::path, geodeExecFunction228<(anonymous namespace)::ExecFuncUnique228>()::{lambda(std::__ndk1::__fs::filesystem::path)#2}>(std::__ndk1::basic_string_view<char, std::__ndk1::char_traits<char> >, geodeExecFunction228<(anonymous namespace)::ExecFuncUnique228>()::{lambda(std::__ndk1::__fs::filesystem::path&&)#2}, geode::Mod*)::{lambda(std::__ndk1::shared_ptr<geode::SettingV3>)#1}>, void (std::__ndk1::shared_ptr<geode::SettingV3>)>::destroy_deallocate()
PUBLIC d284 0 std::__ndk1::__function::__func<geode::listenForSettingChangesV3<std::__ndk1::__fs::filesystem::path, geodeExecFunction228<(anonymous namespace)::ExecFuncUnique228>()::{lambda(std::__ndk1::__fs::filesystem::path)#2}>(std::__ndk1::basic_string_view<char, std::__ndk1::char_traits<char> >, geodeExecFunction228<(anonymous namespace)::ExecFuncUnique228>()::{lambda(std::__ndk1::__fs::filesystem::path&&)#2}, geode::Mod*)::{lambda(std::__ndk1::shared_ptr<geode::SettingV3>)#1}, std::__ndk1::allocator<geode::listenForSettingChangesV3<std::__ndk1::__fs::filesystem::path, geodeExecFunction228<(anonymous namespace)::ExecFuncUnique228>()::{lambda(std::__ndk1::__fs::filesystem::path)#2}>(std::__ndk1::basic_string_view<char, std::__ndk1::char_traits<char> >, geodeExecFunction228<(anonymous namespace)::ExecFuncUnique228>()::{lambda(std::__ndk1::__fs::filesystem::path&&)#2}, geode::Mod*)::{lambda(std::__ndk1::shared_ptr<geode::SettingV3>)#1}>, void (std::__ndk1::shared_ptr<geode::SettingV3>)>::operator()(std::__ndk1::shared_ptr<geode::SettingV3>&&)
PUBLIC d480 0 std::__ndk1::__function::__func<geode::listenForSettingChangesV3<std::__ndk1::__fs::filesystem::path, geodeExecFunction228<(anonymous namespace)::ExecFuncUnique228>()::{lambda(std::__ndk1::__fs::filesystem::path)#2}>(std::__ndk1::basic_string_view<char, std::__ndk1::char_traits<char> >, geodeExecFunction228<(anonymous namespace)::ExecFuncUnique228>()::{lambda(std::__ndk1::__fs::filesystem::path&&)#2}, geode::Mod*)::{lambda(std::__ndk1::shared_ptr<geode::SettingV3>)#1}, std::__ndk1::allocator<geode::listenForSettingChangesV3<std::__ndk1::__fs::filesystem::path, geodeExecFunction228<(anonymous namespace)::ExecFuncUnique228>()::{lambda(std::__ndk1::__fs::filesystem::path)#2}>(std::__ndk1::basic_string_view<char, std::__ndk1::char_traits<char> >, geodeExecFunction228<(anonymous namespace)::ExecFuncUnique228>()::{lambda(std::__ndk1::__fs::filesystem::path&&)#2}, geode::Mod*)::{lambda(std::__ndk1::shared_ptr<geode::SettingV3>)#1}>, void (std::__ndk1::shared_ptr<geode::SettingV3>)>::target(std::type_info const&) const
PUBLIC d49c 0 std::__ndk1::__function::__func<geode::listenForSettingChangesV3<std::__ndk1::__fs::filesystem::path, geodeExecFunction228<(anonymous namespace)::ExecFuncUnique228>()::{lambda(std::__ndk1::__fs::filesystem::path)#2}>(std::__ndk1::basic_string_view<char, std::__ndk1::char_traits<char> >, geodeExecFunction228<(anonymous namespace)::ExecFuncUnique228>()::{lambda(std::__ndk1::__fs::filesystem::path&&)#2}, geode::Mod*)::{lambda(std::__ndk1::shared_ptr<geode::SettingV3>)#1}, std::__ndk1::allocator<geode::listenForSettingChangesV3<std::__ndk1::__fs::filesystem::path, geodeExecFunction228<(anonymous namespace)::ExecFuncUnique228>()::{lambda(std::__ndk1::__fs::filesystem::path)#2}>(std::__ndk1::basic_string_view<char, std::__ndk1::char_traits<char> >, geodeExecFunction228<(anonymous namespace)::ExecFuncUnique228>()::{lambda(std::__ndk1::__fs::filesystem::path&&)#2}, geode::Mod*)::{lambda(std::__ndk1::shared_ptr<geode::SettingV3>)#1}>, void (std::__ndk1::shared_ptr<geode::SettingV3>)>::target_type() const
PUBLIC m d4a8 0 geodeImplicitEntry
PUBLIC d4f0 0 <.plt ELF section in beat.click_sounds_lite.android64.so>
STACK CFI INIT 6a00 10 .cfa: sp 0 +
STACK CFI INIT 6a10 8 .cfa: sp 0 +
STACK CFI INIT 6a18 8 .cfa: sp 0 +
STACK CFI INIT 6a20 14 .cfa: sp 0 +
STACK CFI INIT 6a34 1c .cfa: sp 0 +
STACK CFI INIT 6a50 10 .cfa: sp 0 +
STACK CFI INIT 6a60 30 .cfa: sp 0 +
STACK CFI INIT 6a90 98 .cfa: sp 0 +
STACK CFI INIT 6b28 59c .cfa: sp 0 +
STACK CFI INIT 70c4 8c .cfa: sp 0 +
STACK CFI INIT 7150 30 .cfa: sp 0 +
STACK CFI INIT 7180 118 .cfa: sp 0 +
STACK CFI 7184 .cfa: sp 48 +
STACK CFI 7190 .cfa: x29 48 + x19: .cfa -8 + ^ x20: .cfa -16 + ^ x21: .cfa -32 + ^ .ra: .cfa -40 + ^ x29: .cfa -48 + ^
STACK CFI 7260 .cfa: sp 48 +
STACK CFI 726c .cfa: sp 0 +
STACK CFI 7270 .cfa: x29 48 +
STACK CFI 7274 .cfa: sp 48 +
STACK CFI 7280 .cfa: sp 0 +
STACK CFI 7284 .cfa: x29 48 +
STACK CFI 7288 .cfa: sp 48 +
STACK CFI 7294 .cfa: sp 0 +
STACK CFI INIT 7298 130 .cfa: sp 0 +
STACK CFI 729c .cfa: sp 80 +
STACK CFI 72ac .cfa: x29 48 + x19: .cfa -8 + ^ x20: .cfa -16 + ^ x21: .cfa -24 + ^ x22: .cfa -32 + ^ .ra: .cfa -40 + ^ x29: .cfa -48 + ^
STACK CFI 73b0 .cfa: sp 80 +
STACK CFI 73c0 .cfa: sp 0 +
STACK CFI 73c4 .cfa: x29 48 +
STACK CFI INIT 81e8 18 .cfa: sp 0 +
STACK CFI INIT 8200 18 .cfa: sp 0 +
STACK CFI INIT 869c 18 .cfa: sp 0 +
STACK CFI INIT 86b4 10 .cfa: sp 0 +
STACK CFI 86b8 .cfa: sp 16 +
STACK CFI 86bc .cfa: x29 16 + .ra: .cfa -8 + ^ x29: .cfa -16 + ^
STACK CFI INIT 89b8 50 .cfa: sp 0 +
STACK CFI 89bc .cfa: sp 32 +
STACK CFI 89c4 .cfa: x29 32 + x19: .cfa -16 + ^ .ra: .cfa -24 + ^ x29: .cfa -32 + ^
STACK CFI 89dc .cfa: sp 32 +
STACK CFI 89e4 .cfa: sp 0 +
STACK CFI 89e8 .cfa: x29 32 +
STACK CFI 89fc .cfa: sp 32 +
STACK CFI 8a04 .cfa: sp 0 +
STACK CFI INIT 8a7c 7c .cfa: sp 0 +
STACK CFI 8a80 .cfa: sp 48 +
STACK CFI 8a8c .cfa: x29 48 + x19: .cfa -8 + ^ x20: .cfa -16 + ^ x21: .cfa -32 + ^ .ra: .cfa -40 + ^ x29: .cfa -48 + ^
STACK CFI 8ad8 .cfa: sp 48 +
STACK CFI 8ae4 .cfa: sp 0 +
STACK CFI 8ae8 .cfa: sp 48 +
STACK CFI 8af4 .cfa: sp 0 +
STACK CFI INIT 8af8 4 .cfa: sp 0 +
STACK CFI INIT 8c50 34 .cfa: sp 0 +
STACK CFI 8c54 .cfa: sp 16 +
STACK CFI 8c58 .cfa: x29 16 + .ra: .cfa -8 + ^ x29: .cfa -16 + ^
STACK CFI INIT 8db0 80 .cfa: sp 0 +
STACK CFI 8db4 .cfa: sp 48 +
STACK CFI 8dc0 .cfa: x29 48 + x19: .cfa -8 + ^ x20: .cfa -16 + ^ x21: .cfa -32 + ^ .ra: .cfa -40 + ^ x29: .cfa -48 + ^
STACK CFI 8e20 .cfa: sp 48 +
STACK CFI 8e2c .cfa: sp 0 +
STACK CFI INIT 8e30 24 .cfa: sp 0 +
STACK CFI 8e34 .cfa: sp 32 +
STACK CFI 8e3c .cfa: x29 32 + x19: .cfa -16 + ^ .ra: .cfa -24 + ^ x29: .cfa -32 + ^
STACK CFI 8e48 .cfa: sp 32 +
STACK CFI 8e50 .cfa: sp 0 +
STACK CFI INIT 91d4 14 .cfa: sp 0 +
STACK CFI 91d8 .cfa: sp 16 +
STACK CFI 91dc .cfa: x29 16 + .ra: .cfa -8 + ^ x29: .cfa -16 + ^
STACK CFI INIT 9238 30 .cfa: sp 0 +
STACK CFI 923c .cfa: sp 32 +
STACK CFI 9244 .cfa: x29 32 + x19: .cfa -16 + ^ .ra: .cfa -24 + ^ x29: .cfa -32 + ^
STACK CFI 925c .cfa: sp 32 +
STACK CFI 9264 .cfa: sp 0 +
STACK CFI INIT 9268 34 .cfa: sp 0 +
STACK CFI 926c .cfa: sp 32 +
STACK CFI 9274 .cfa: x29 32 + x19: .cfa -16 + ^ .ra: .cfa -24 + ^ x29: .cfa -32 + ^
STACK CFI INIT 9414 148 .cfa: sp 0 +
STACK CFI 9418 .cfa: sp 48 +
STACK CFI 9424 .cfa: x29 48 + x19: .cfa -8 + ^ x20: .cfa -16 + ^ x21: .cfa -32 + ^ .ra: .cfa -40 + ^ x29: .cfa -48 + ^
STACK CFI 954c .cfa: sp 48 +
STACK CFI 9558 .cfa: sp 0 +
STACK CFI INIT 9780 80 .cfa: sp 0 +
STACK CFI 9784 .cfa: sp 48 +
STACK CFI 9790 .cfa: x29 48 + x19: .cfa -8 + ^ x20: .cfa -16 + ^ x21: .cfa -24 + ^ x22: .cfa -32 + ^ .ra: .cfa -40 + ^ x29: .cfa -48 + ^
STACK CFI 97a8 .cfa: sp 48 +
STACK CFI 97b4 .cfa: sp 0 +
STACK CFI 97b8 .cfa: x29 48 +
STACK CFI 97e8 .cfa: sp 48 +
STACK CFI 97f4 .cfa: sp 0 +
STACK CFI 97f8 .cfa: x29 48 +
STACK CFI INIT 9800 68 .cfa: sp 0 +
STACK CFI 9804 .cfa: sp 32 +
STACK CFI 980c .cfa: x29 32 + x19: .cfa -8 + ^ x20: .cfa -16 + ^ .ra: .cfa -24 + ^ x29: .cfa -32 + ^
STACK CFI 9824 .cfa: sp 32 +
STACK CFI 982c .cfa: sp 0 +
STACK CFI 9830 .cfa: x29 32 +
STACK CFI 985c .cfa: sp 32 +
STACK CFI 9864 .cfa: sp 0 +
STACK CFI INIT 9868 14 .cfa: sp 0 +
STACK CFI 986c .cfa: sp 16 +
STACK CFI 9870 .cfa: x29 16 + .ra: .cfa -8 + ^ x29: .cfa -16 + ^
STACK CFI INIT 987c 4 .cfa: sp 0 +
STACK CFI INIT 9880 14 .cfa: sp 0 +
STACK CFI INIT 9894 120 .cfa: sp 0 +
STACK CFI 9898 .cfa: sp 64 +
STACK CFI 98a8 .cfa: x29 64 + x19: .cfa -8 + ^ x20: .cfa -16 + ^ x21: .cfa -24 + ^ x22: .cfa -32 + ^ x23: .cfa -40 + ^ x24: .cfa -48 + ^ .ra: .cfa -56 + ^ x29: .cfa -64 + ^
STACK CFI 99a0 .cfa: sp 64 +
STACK CFI 99b0 .cfa: sp 0 +
STACK CFI INIT 99b4 4a4 .cfa: sp 0 +
STACK CFI 99b8 .cfa: sp 32 +
STACK CFI 99c0 .cfa: x29 32 + x19: .cfa -8 + ^ x20: .cfa -16 + ^ .ra: .cfa -24 + ^ x29: .cfa -32 + ^
STACK CFI 9da0 .cfa: sp 32 +
STACK CFI 9da8 .cfa: sp 0 +
STACK CFI 9dac .cfa: x29 32 +
STACK CFI INIT 9e58 84 .cfa: sp 0 +
STACK CFI 9e60 .cfa: sp 32 +
STACK CFI 9e68 .cfa: x29 32 + x19: .cfa -8 + ^ x20: .cfa -16 + ^ .ra: .cfa -24 + ^ x29: .cfa -32 + ^
STACK CFI 9ea8 .cfa: sp 32 +
STACK CFI 9eb0 .cfa: sp 0 +
STACK CFI 9eb8 .cfa: x29 32 +
STACK CFI INIT a14c 9c .cfa: sp 0 +
STACK CFI INIT a1e8 50 .cfa: sp 0 +
STACK CFI a1ec .cfa: sp 32 +
STACK CFI a1f4 .cfa: x29 32 + x19: .cfa -16 + ^ .ra: .cfa -24 + ^ x29: .cfa -32 + ^
STACK CFI a20c .cfa: sp 32 +
STACK CFI a214 .cfa: sp 0 +
STACK CFI a218 .cfa: x29 32 +
STACK CFI a22c .cfa: sp 32 +
STACK CFI a234 .cfa: sp 0 +
STACK CFI INIT a238 64 .cfa: sp 0 +
STACK CFI a23c .cfa: sp 32 +
STACK CFI a244 .cfa: x29 32 + x19: .cfa -16 + ^ .ra: .cfa -24 + ^ x29: .cfa -32 + ^
STACK CFI a270 .cfa: sp 32 +
STACK CFI a278 .cfa: sp 0 +
STACK CFI a27c .cfa: x29 32 +
STACK CFI a290 .cfa: sp 32 +
STACK CFI a298 .cfa: sp 0 +
STACK CFI INIT a4a0 4 .cfa: sp 0 +
STACK CFI INIT a4a4 14 .cfa: sp 0 +
STACK CFI INIT a4b8 4 .cfa: sp 0 +
STACK CFI INIT a4bc 14 .cfa: sp 0 +
STACK CFI INIT a4d0 4 .cfa: sp 0 +
STACK CFI INIT a4d4 4 .cfa: sp 0 +
STACK CFI INIT a4d8 34 .cfa: sp 0 +
STACK CFI a4dc .cfa: sp 32 +
STACK CFI a4e4 .cfa: x29 32 + x19: .cfa -16 + ^ .ra: .cfa -24 + ^ x29: .cfa -32 + ^
STACK CFI a500 .cfa: sp 32 +
STACK CFI a508 .cfa: sp 0 +
STACK CFI INIT a50c 14 .cfa: sp 0 +
STACK CFI INIT a520 4 .cfa: sp 0 +
STACK CFI INIT a524 4 .cfa: sp 0 +
STACK CFI INIT a64c 1c .cfa: sp 0 +
STACK CFI INIT a668 c .cfa: sp 0 +
STACK CFI INIT a674 168 .cfa: sp 0 +
STACK CFI a678 .cfa: sp 80 +
STACK CFI a68c .cfa: x29 80 + x19: .cfa -8 + ^ x20: .cfa -16 + ^ x21: .cfa -24 + ^ x22: .cfa -32 + ^ x23: .cfa -40 + ^ x24: .cfa -48 + ^ x25: .cfa -56 + ^ x26: .cfa -64 + ^ .ra: .cfa -72 + ^ x29: .cfa -80 + ^
STACK CFI a7c4 .cfa: sp 80 +
STACK CFI a7d8 .cfa: sp 0 +
STACK CFI INIT a7dc 1b0 .cfa: sp 0 +
STACK CFI INIT a98c 50 .cfa: sp 0 +
STACK CFI a990 .cfa: sp 32 +
STACK CFI a998 .cfa: x29 32 + x19: .cfa -16 + ^ .ra: .cfa -24 + ^ x29: .cfa -32 + ^
STACK CFI a9b0 .cfa: sp 32 +
STACK CFI a9b8 .cfa: sp 0 +
STACK CFI a9bc .cfa: x29 32 +
STACK CFI a9d0 .cfa: sp 32 +
STACK CFI a9d8 .cfa: sp 0 +
STACK CFI INIT a9dc f8 .cfa: sp 0 +
STACK CFI a9e0 .cfa: sp 64 +
STACK CFI a9f0 .cfa: x29 64 + x19: .cfa -8 + ^ x20: .cfa -16 + ^ x21: .cfa -24 + ^ x22: .cfa -32 + ^ x23: .cfa -48 + ^ .ra: .cfa -56 + ^ x29: .cfa -64 + ^
STACK CFI aa4c .cfa: sp 64 +
STACK CFI aa5c .cfa: sp 0 +
STACK CFI aa60 .cfa: x29 64 +
STACK CFI aa7c .cfa: sp 64 +
STACK CFI aa8c .cfa: sp 0 +
STACK CFI aa90 .cfa: x29 64 +
STACK CFI aac0 .cfa: sp 64 +
STACK CFI aad0 .cfa: sp 0 +
STACK CFI INIT af40 4 .cfa: sp 0 +
STACK CFI INIT b8cc 114 .cfa: sp 0 +
STACK CFI b8d0 .cfa: sp 80 +
STACK CFI b8e0 .cfa: x29 48 + x19: .cfa -8 + ^ x20: .cfa -16 + ^ x21: .cfa -24 + ^ x22: .cfa -32 + ^ .ra: .cfa -40 + ^ x29: .cfa -48 + ^
STACK CFI b9c8 .cfa: sp 80 +
STACK CFI b9d8 .cfa: sp 0 +
STACK CFI b9dc .cfa: x29 48 +
STACK CFI INIT b9e0 ec .cfa: sp 0 +
STACK CFI b9e4 .cfa: sp 48 +
STACK CFI b9f0 .cfa: x29 48 + x19: .cfa -8 + ^ x20: .cfa -16 + ^ x21: .cfa -32 + ^ .ra: .cfa -40 + ^ x29: .cfa -48 + ^
STACK CFI ba38 .cfa: sp 48 +
STACK CFI ba44 .cfa: sp 0 +
STACK CFI ba48 .cfa: x29 48 +
STACK CFI ba7c .cfa: sp 48 +
STACK CFI ba88 .cfa: sp 0 +
STACK CFI ba8c .cfa: x29 48 +
STACK CFI baa4 .cfa: sp 48 +
STACK CFI bab0 .cfa: sp 0 +
STACK CFI bab4 .cfa: x29 48 +
STACK CFI babc .cfa: sp 48 +
STACK CFI bac8 .cfa: sp 0 +
STACK CFI INIT bacc 50 .cfa: sp 0 +
STACK CFI bad0 .cfa: sp 32 +
STACK CFI bad8 .cfa: x29 32 + x19: .cfa -16 + ^ .ra: .cfa -24 + ^ x29: .cfa -32 + ^
STACK CFI baf0 .cfa: sp 32 +
STACK CFI baf8 .cfa: sp 0 +
STACK CFI bafc .cfa: x29 32 +
STACK CFI bb10 .cfa: sp 32 +
STACK CFI bb18 .cfa: sp 0 +
STACK CFI INIT c154 4 .cfa: sp 0 +
STACK CFI INIT c158 14 .cfa: sp 0 +
STACK CFI c15c .cfa: sp 16 +
STACK CFI c160 .cfa: x29 16 + .ra: .cfa -8 + ^ x29: .cfa -16 + ^
STACK CFI INIT c16c 14 .cfa: sp 0 +
STACK CFI c170 .cfa: sp 16 +
STACK CFI c174 .cfa: x29 16 + .ra: .cfa -8 + ^ x29: .cfa -16 + ^
STACK CFI INIT c180 c .cfa: sp 0 +
STACK CFI c184 .cfa: sp 16 +
STACK CFI c188 .cfa: x29 16 + .ra: .cfa -8 + ^ x29: .cfa -16 + ^
STACK CFI INIT c1dc 30 .cfa: sp 0 +
STACK CFI c1e0 .cfa: sp 32 +
STACK CFI c1e8 .cfa: x29 32 + x19: .cfa -16 + ^ .ra: .cfa -24 + ^ x29: .cfa -32 + ^
STACK CFI c200 .cfa: sp 32 +
STACK CFI c208 .cfa: sp 0 +
STACK CFI INIT c20c c .cfa: sp 0 +
STACK CFI c210 .cfa: sp 16 +
STACK CFI c214 .cfa: x29 16 + .ra: .cfa -8 + ^ x29: .cfa -16 + ^
STACK CFI INIT c218 4 .cfa: sp 0 +
STACK CFI INIT c21c 4 .cfa: sp 0 +
STACK CFI INIT c220 38 .cfa: sp 0 +
STACK CFI c224 .cfa: sp 32 +
STACK CFI c22c .cfa: x29 32 + x19: .cfa -16 + ^ .ra: .cfa -24 + ^ x29: .cfa -32 + ^
STACK CFI c24c .cfa: sp 32 +
STACK CFI c254 .cfa: sp 0 +
STACK CFI INIT c258 18 .cfa: sp 0 +
STACK CFI INIT c270 4 .cfa: sp 0 +
STACK CFI INIT c274 4 .cfa: sp 0 +
STACK CFI INIT c278 10 .cfa: sp 0 +
STACK CFI INIT c288 1c .cfa: sp 0 +
STACK CFI INIT c2a4 c .cfa: sp 0 +
STACK CFI INIT c2b0 ac .cfa: sp 0 +
STACK CFI c2b4 .cfa: sp 64 +
STACK CFI c2c4 .cfa: x29 64 + x19: .cfa -8 + ^ x20: .cfa -16 + ^ x21: .cfa -24 + ^ x22: .cfa -32 + ^ x23: .cfa -48 + ^ .ra: .cfa -56 + ^ x29: .cfa -64 + ^
STACK CFI c340 .cfa: sp 64 +
STACK CFI c350 .cfa: sp 0 +
STACK CFI c354 .cfa: x29 64 +
STACK CFI INIT c35c 110 .cfa: sp 0 +
STACK CFI c360 .cfa: sp 64 +
STACK CFI c370 .cfa: x29 64 + x19: .cfa -8 + ^ x20: .cfa -16 + ^ x21: .cfa -24 + ^ x22: .cfa -32 + ^ x23: .cfa -40 + ^ x24: .cfa -48 + ^ .ra: .cfa -56 + ^ x29: .cfa -64 + ^
STACK CFI c450 .cfa: sp 64 +
STACK CFI c460 .cfa: sp 0 +
STACK CFI c464 .cfa: x29 64 +
STACK CFI INIT c788 4 .cfa: sp 0 +
STACK CFI INIT caec 8c .cfa: sp 0 +
STACK CFI caf0 .cfa: sp 32 +
STACK CFI caf8 .cfa: x29 32 + x19: .cfa -16 + ^ .ra: .cfa -24 + ^ x29: .cfa -32 + ^
STACK CFI cb6c .cfa: sp 32 +
STACK CFI cb74 .cfa: sp 0 +
STACK CFI INIT cb78 3c .cfa: sp 0 +
STACK CFI cb7c .cfa: sp 32 +
STACK CFI cb84 .cfa: x29 32 + x19: .cfa -16 + ^ .ra: .cfa -24 + ^ x29: .cfa -32 + ^
STACK CFI cb90 .cfa: sp 32 +
STACK CFI cb98 .cfa: sp 0 +
STACK CFI cb9c .cfa: x29 32 +
STACK CFI cba8 .cfa: sp 32 +
STACK CFI cbb0 .cfa: sp 0 +
STACK CFI INIT ccac 50 .cfa: sp 0 +
STACK CFI ccb0 .cfa: sp 32 +
STACK CFI ccb8 .cfa: x29 32 + x19: .cfa -16 + ^ .ra: .cfa -24 + ^ x29: .cfa -32 + ^
STACK CFI ccd0 .cfa: sp 32 +
STACK CFI ccd8 .cfa: sp 0 +
STACK CFI ccdc .cfa: x29 32 +
STACK CFI ccf0 .cfa: sp 32 +
STACK CFI ccf8 .cfa: sp 0 +
STACK CFI INIT ccfc 4 .cfa: sp 0 +
STACK CFI INIT cd00 38 .cfa: sp 0 +
STACK CFI cd04 .cfa: sp 32 +
STACK CFI cd0c .cfa: x29 32 + x19: .cfa -16 + ^ .ra: .cfa -24 + ^ x29: .cfa -32 + ^
STACK CFI cd2c .cfa: sp 32 +
STACK CFI cd34 .cfa: sp 0 +
STACK CFI INIT cd38 18 .cfa: sp 0 +
STACK CFI INIT cd50 4 .cfa: sp 0 +
STACK CFI INIT cd54 4 .cfa: sp 0 +
STACK CFI INIT cf54 1c .cfa: sp 0 +
STACK CFI INIT cf70 c .cfa: sp 0 +
STACK CFI INIT cf7c 4 .cfa: sp 0 +
STACK CFI INIT d0e4 9c .cfa: sp 0 +
STACK CFI d0e8 .cfa: sp 32 +
STACK CFI d0f0 .cfa: x29 32 + x19: .cfa -8 + ^ x20: .cfa -16 + ^ .ra: .cfa -24 + ^ x29: .cfa -32 + ^
STACK CFI d174 .cfa: sp 32 +
STACK CFI d17c .cfa: sp 0 +
STACK CFI INIT d180 a4 .cfa: sp 0 +
STACK CFI d184 .cfa: sp 32 +
STACK CFI d18c .cfa: x29 32 + x19: .cfa -8 + ^ x20: .cfa -16 + ^ .ra: .cfa -24 + ^ x29: .cfa -32 + ^
STACK CFI d218 .cfa: sp 32 +
STACK CFI d220 .cfa: sp 0 +
STACK CFI INIT d224 4 .cfa: sp 0 +
STACK CFI INIT d228 4 .cfa: sp 0 +
STACK CFI INIT d22c 38 .cfa: sp 0 +
STACK CFI d230 .cfa: sp 32 +
STACK CFI d238 .cfa: x29 32 + x19: .cfa -16 + ^ .ra: .cfa -24 + ^ x29: .cfa -32 + ^
STACK CFI d258 .cfa: sp 32 +
STACK CFI d260 .cfa: sp 0 +
STACK CFI INIT d264 18 .cfa: sp 0 +
STACK CFI INIT d27c 4 .cfa: sp 0 +
STACK CFI INIT d280 4 .cfa: sp 0 +
STACK CFI INIT d480 1c .cfa: sp 0 +
STACK CFI INIT d49c c .cfa: sp 0 +
STACK CFI INIT d4a8 3c .cfa: sp 0 +
STACK CFI d4ac .cfa: sp 32 +
STACK CFI d4b4 .cfa: x29 32 + x19: .cfa -16 + ^ .ra: .cfa -24 + ^ x29: .cfa -32 + ^
STACK CFI d4c0 .cfa: sp 32 +
STACK CFI d4c8 .cfa: sp 0 +
STACK CFI d4cc .cfa: x29 32 +
STACK CFI d4d8 .cfa: sp 32 +
STACK CFI d4e0 .cfa: sp 0 +
STACK CFI INIT 73c8 45c .cfa: sp 0 +
STACK CFI 73cc .cfa: sp 224 +
STACK CFI 73e8 .cfa: x29 96 + x19: .cfa -8 + ^ x20: .cfa -16 + ^ x21: .cfa -24 + ^ x22: .cfa -32 + ^ x23: .cfa -40 + ^ x24: .cfa -48 + ^ x25: .cfa -56 + ^ x26: .cfa -64 + ^ x27: .cfa -72 + ^ x28: .cfa -80 + ^ .ra: .cfa -88 + ^ x29: .cfa -96 + ^
STACK CFI 770c .cfa: sp 224 +
STACK CFI 7728 .cfa: sp 0 +
STACK CFI 772c .cfa: x29 96 +
STACK CFI INIT 7824 45c .cfa: sp 0 +
STACK CFI 7828 .cfa: sp 224 +
STACK CFI 7844 .cfa: x29 96 + x19: .cfa -8 + ^ x20: .cfa -16 + ^ x21: .cfa -24 + ^ x22: .cfa -32 + ^ x23: .cfa -40 + ^ x24: .cfa -48 + ^ x25: .cfa -56 + ^ x26: .cfa -64 + ^ x27: .cfa -72 + ^ x28: .cfa -80 + ^ .ra: .cfa -88 + ^ x29: .cfa -96 + ^
STACK CFI 7b68 .cfa: sp 224 +
STACK CFI 7b84 .cfa: sp 0 +
STACK CFI 7b88 .cfa: x29 96 +
STACK CFI INIT 8218 484 .cfa: sp 0 +
STACK CFI 821c .cfa: sp 224 +
STACK CFI 8238 .cfa: x29 96 + x19: .cfa -8 + ^ x20: .cfa -16 + ^ x21: .cfa -24 + ^ x22: .cfa -32 + ^ x23: .cfa -40 + ^ x24: .cfa -48 + ^ x25: .cfa -56 + ^ x26: .cfa -64 + ^ x27: .cfa -72 + ^ x28: .cfa -80 + ^ .ra: .cfa -88 + ^ x29: .cfa -96 + ^
STACK CFI 84a8 .cfa: sp 224 +
STACK CFI 84c4 .cfa: sp 0 +
STACK CFI 84c8 .cfa: x29 96 +
STACK CFI 8594 .cfa: sp 224 +
STACK CFI 85b0 .cfa: sp 0 +
STACK CFI 85b4 .cfa: x29 96 +
STACK CFI INIT 86c4 2f4 .cfa: sp 0 +
STACK CFI 86c8 .cfa: sp 176 +
STACK CFI 86dc .cfa: x29 64 + x19: .cfa -8 + ^ x20: .cfa -16 + ^ x21: .cfa -24 + ^ x22: .cfa -32 + ^ x23: .cfa -48 + ^ .ra: .cfa -56 + ^ x29: .cfa -64 + ^
STACK CFI 88b0 .cfa: sp 176 +
STACK CFI 88c4 .cfa: sp 0 +
STACK CFI 88c8 .cfa: x29 64 +
STACK CFI INIT 8a08 74 .cfa: sp 0 +
STACK CFI 8a0c .cfa: sp 48 +
STACK CFI 8a18 .cfa: x29 32 + x19: .cfa -8 + ^ x20: .cfa -16 + ^ .ra: .cfa -24 + ^ x29: .cfa -32 + ^
STACK CFI 8a64 .cfa: sp 48 +
STACK CFI 8a70 .cfa: sp 0 +
STACK CFI 8a74 .cfa: x29 32 +
STACK CFI INIT 8afc 154 .cfa: sp 0 +
STACK CFI 8b00 .cfa: sp 384 +
STACK CFI 8b14 .cfa: x29 64 + x19: .cfa -8 + ^ x20: .cfa -16 + ^ x21: .cfa -24 + ^ x22: .cfa -32 + ^ x23: .cfa -40 + ^ x28: .cfa -48 + ^ .ra: .cfa -56 + ^ x29: .cfa -64 + ^
STACK CFI 8bf8 .cfa: sp 384 +
STACK CFI 8c0c .cfa: sp 0 +
STACK CFI 8c10 .cfa: x29 64 +
STACK CFI INIT 8c84 12c .cfa: sp 0 +
STACK CFI 8c88 .cfa: sp 80 +
STACK CFI 8c9c .cfa: x29 80 + x19: .cfa -8 + ^ x20: .cfa -16 + ^ x21: .cfa -24 + ^ x22: .cfa -32 + ^ x23: .cfa -40 + ^ x24: .cfa -48 + ^ x25: .cfa -56 + ^ x26: .cfa -64 + ^ .ra: .cfa -72 + ^ x29: .cfa -80 + ^
STACK CFI 8d64 .cfa: sp 80 +
STACK CFI 8d78 .cfa: sp 0 +
STACK CFI 8d7c .cfa: x29 80 +
STACK CFI INIT 8e54 1a4 .cfa: sp 0 +
STACK CFI 8e58 .cfa: sp 112 +
STACK CFI 8e70 .cfa: x29 80 + x19: .cfa -8 + ^ x20: .cfa -16 + ^ x21: .cfa -24 + ^ x22: .cfa -32 + ^ x23: .cfa -40 + ^ x24: .cfa -48 + ^ x25: .cfa -56 + ^ x26: .cfa -64 + ^ .ra: .cfa -72 + ^ x29: .cfa -80 + ^
STACK CFI 8f60 .cfa: sp 112 +
STACK CFI 8f78 .cfa: sp 0 +
STACK CFI 8f7c .cfa: x29 80 +
STACK CFI INIT 8ff8 1dc .cfa: sp 0 +
STACK CFI 8ffc .cfa: sp 128 +
STACK CFI 9018 .cfa: x29 96 + x19: .cfa -8 + ^ x20: .cfa -16 + ^ x21: .cfa -24 + ^ x22: .cfa -32 + ^ x23: .cfa -40 + ^ x24: .cfa -48 + ^ x25: .cfa -56 + ^ x26: .cfa -64 + ^ x27: .cfa -80 + ^ .ra: .cfa -88 + ^ x29: .cfa -96 + ^
STACK CFI 9184 .cfa: sp 128 +
STACK CFI 91a0 .cfa: sp 0 +
STACK CFI 91a4 .cfa: x29 96 +
STACK CFI INIT 91e8 50 .cfa: sp 0 +
STACK CFI 91ec .cfa: sp 32 +
STACK CFI 91f4 .cfa: x29 32 + x19: .cfa -8 + ^ x20: .cfa -16 + ^ .ra: .cfa -24 + ^ x29: .cfa -32 + ^
STACK CFI INIT 929c 178 .cfa: sp 0 +
STACK CFI 92a0 .cfa: sp 80 +
STACK CFI 92b4 .cfa: x29 80 + x19: .cfa -8 + ^ x20: .cfa -16 + ^ x21: .cfa -24 + ^ x22: .cfa -32 + ^ x23: .cfa -40 + ^ x24: .cfa -48 + ^ x25: .cfa -64 + ^ .ra: .cfa -72 + ^ x29: .cfa -80 + ^
STACK CFI 93e0 .cfa: sp 80 +
STACK CFI 93f4 .cfa: sp 0 +
STACK CFI 93f8 .cfa: x29 80 +
STACK CFI INIT 955c 224 .cfa: sp 0 +
STACK CFI 9560 .cfa: sp 128 +
STACK CFI 9578 .cfa: x29 80 + x19: .cfa -8 + ^ x20: .cfa -16 + ^ x21: .cfa -24 + ^ x22: .cfa -32 + ^ x23: .cfa -40 + ^ x24: .cfa -48 + ^ x25: .cfa -64 + ^ .ra: .cfa -72 + ^ x29: .cfa -80 + ^
STACK CFI 9714 .cfa: sp 128 +
STACK CFI 972c .cfa: sp 0 +
STACK CFI 9730 .cfa: x29 80 +
STACK CFI INIT 9edc 1c8 .cfa: sp 0 +
STACK CFI 9ee0 .cfa: sp 144 +
STACK CFI 9ef0 .cfa: x29 48 + x19: .cfa -8 + ^ x20: .cfa -16 + ^ x21: .cfa -24 + ^ x22: .cfa -32 + ^ .ra: .cfa -40 + ^ x29: .cfa -48 + ^
STACK CFI a018 .cfa: sp 144 +
STACK CFI a028 .cfa: sp 0 +
STACK CFI a02c .cfa: x29 48 +
STACK CFI INIT a0a4 a8 .cfa: sp 0 +
STACK CFI a0a8 .cfa: sp 32 +
STACK CFI a0b0 .cfa: x29 32 + x19: .cfa -16 + ^ .ra: .cfa -24 + ^ x29: .cfa -32 + ^
STACK CFI a0e4 .cfa: sp 32 +
STACK CFI a0ec .cfa: sp 0 +
STACK CFI a0f0 .cfa: x29 32 +
STACK CFI a0f4 .cfa: sp 32 +
STACK CFI a0fc .cfa: sp 0 +
STACK CFI a100 .cfa: x29 32 +
STACK CFI INIT a29c 190 .cfa: sp 0 +
STACK CFI a2a0 .cfa: sp 160 +
STACK CFI a2b0 .cfa: x29 48 + x19: .cfa -8 + ^ x20: .cfa -16 + ^ x21: .cfa -32 + ^ .ra: .cfa -40 + ^ x29: .cfa -48 + ^
STACK CFI a3cc .cfa: sp 160 +
STACK CFI a3dc .cfa: sp 0 +
STACK CFI a3e0 .cfa: x29 48 +
STACK CFI INIT a42c 74 .cfa: sp 0 +
STACK CFI a430 .cfa: sp 48 +
STACK CFI a43c .cfa: x29 32 + x19: .cfa -8 + ^ x20: .cfa -16 + ^ .ra: .cfa -24 + ^ x29: .cfa -32 + ^
STACK CFI a488 .cfa: sp 48 +
STACK CFI a494 .cfa: sp 0 +
STACK CFI a498 .cfa: x29 32 +
STACK CFI INIT a528 124 .cfa: sp 0 +
STACK CFI a52c .cfa: sp 64 +
STACK CFI a53c .cfa: x29 48 + x19: .cfa -8 + ^ x20: .cfa -16 + ^ x21: .cfa -32 + ^ .ra: .cfa -40 + ^ x29: .cfa -48 + ^
STACK CFI a60c .cfa: sp 64 +
STACK CFI a61c .cfa: sp 0 +
STACK CFI a620 .cfa: x29 48 +
STACK CFI INIT aad4 46c .cfa: sp 0 +
STACK CFI aad8 .cfa: sp 176 +
STACK CFI aaec .cfa: x29 64 + x19: .cfa -8 + ^ x20: .cfa -16 + ^ x21: .cfa -24 + ^ x22: .cfa -32 + ^ x23: .cfa -40 + ^ x24: .cfa -48 + ^ .ra: .cfa -56 + ^ x29: .cfa -64 + ^
STACK CFI adec .cfa: sp 176 +
STACK CFI ae00 .cfa: sp 0 +
STACK CFI ae04 .cfa: x29 64 +
STACK CFI INIT af44 184 .cfa: sp 0 +
STACK CFI af48 .cfa: sp 144 +
STACK CFI af60 .cfa: x29 80 + x19: .cfa -8 + ^ x20: .cfa -16 + ^ x21: .cfa -24 + ^ x22: .cfa -32 + ^ x23: .cfa -40 + ^ x24: .cfa -48 + ^ x25: .cfa -56 + ^ x26: .cfa -64 + ^ .ra: .cfa -72 + ^ x29: .cfa -80 + ^
STACK CFI b060 .cfa: sp 144 +
STACK CFI b078 .cfa: sp 0 +
STACK CFI b07c .cfa: x29 80 +
STACK CFI INIT b0c8 314 .cfa: sp 0 +
STACK CFI b0cc .cfa: sp 144 +
STACK CFI b0e4 .cfa: x29 80 + x19: .cfa -8 + ^ x20: .cfa -16 + ^ x21: .cfa -24 + ^ x22: .cfa -32 + ^ x23: .cfa -40 + ^ x24: .cfa -48 + ^ x25: .cfa -64 + ^ .ra: .cfa -72 + ^ x29: .cfa -80 + ^
STACK CFI b360 .cfa: sp 144 +
STACK CFI b378 .cfa: sp 0 +
STACK CFI b37c .cfa: x29 80 +
STACK CFI INIT b3dc 360 .cfa: sp 0 +
STACK CFI b3e0 .cfa: sp 144 +
STACK CFI b3f8 .cfa: x29 80 + x19: .cfa -8 + ^ x20: .cfa -16 + ^ x21: .cfa -24 + ^ x22: .cfa -32 + ^ x23: .cfa -40 + ^ x24: .cfa -48 + ^ x25: .cfa -64 + ^ .ra: .cfa -72 + ^ x29: .cfa -80 + ^
STACK CFI b6c0 .cfa: sp 144 +
STACK CFI b6d8 .cfa: sp 0 +
STACK CFI b6dc .cfa: x29 80 +
STACK CFI INIT b73c 190 .cfa: sp 0 +
STACK CFI b740 .cfa: sp 96 +
STACK CFI b754 .cfa: x29 64 + x19: .cfa -8 + ^ x20: .cfa -16 + ^ x21: .cfa -24 + ^ x22: .cfa -32 + ^ x23: .cfa -48 + ^ .ra: .cfa -56 + ^ x29: .cfa -64 + ^
STACK CFI b84c .cfa: sp 96 +
STACK CFI b860 .cfa: sp 0 +
STACK CFI b864 .cfa: x29 64 +
STACK CFI INIT bb1c 638 .cfa: sp 0 +
STACK CFI bb20 .cfa: sp 176 +
STACK CFI bb3c .cfa: x29 96 + x19: .cfa -8 + ^ x20: .cfa -16 + ^ x21: .cfa -24 + ^ x22: .cfa -32 + ^ x23: .cfa -40 + ^ x24: .cfa -48 + ^ x25: .cfa -56 + ^ x26: .cfa -64 + ^ x27: .cfa -72 + ^ x28: .cfa -80 + ^ .ra: .cfa -88 + ^ x29: .cfa -96 + ^
STACK CFI bff0 .cfa: sp 176 +
STACK CFI c00c .cfa: sp 0 +
STACK CFI c010 .cfa: x29 96 +
STACK CFI INIT c18c 50 .cfa: sp 0 +
STACK CFI c190 .cfa: sp 32 +
STACK CFI c198 .cfa: x29 32 + x19: .cfa -8 + ^ x20: .cfa -16 + ^ .ra: .cfa -24 + ^ x29: .cfa -32 + ^
STACK CFI INIT c46c 31c .cfa: sp 0 +
STACK CFI c470 .cfa: sp 224 +
STACK CFI c484 .cfa: x29 64 + x19: .cfa -8 + ^ x20: .cfa -16 + ^ x21: .cfa -24 + ^ x22: .cfa -32 + ^ x23: .cfa -48 + ^ .ra: .cfa -56 + ^ x29: .cfa -64 + ^
STACK CFI c678 .cfa: sp 224 +
STACK CFI c68c .cfa: sp 0 +
STACK CFI c690 .cfa: x29 64 +
STACK CFI INIT c78c 2b8 .cfa: sp 0 +
STACK CFI c790 .cfa: sp 112 +
STACK CFI c7a0 .cfa: x29 48 + x19: .cfa -8 + ^ x20: .cfa -16 + ^ x21: .cfa -24 + ^ x22: .cfa -32 + ^ .ra: .cfa -40 + ^ x29: .cfa -48 + ^
STACK CFI ca00 .cfa: sp 112 +
STACK CFI ca10 .cfa: sp 0 +
STACK CFI ca14 .cfa: x29 48 +
STACK CFI INIT ca44 a8 .cfa: sp 0 +
STACK CFI ca48 .cfa: sp 32 +
STACK CFI ca50 .cfa: x29 32 + x19: .cfa -16 + ^ .ra: .cfa -24 + ^ x29: .cfa -32 + ^
STACK CFI ca84 .cfa: sp 32 +
STACK CFI ca8c .cfa: sp 0 +
STACK CFI ca90 .cfa: x29 32 +
STACK CFI ca94 .cfa: sp 32 +
STACK CFI ca9c .cfa: sp 0 +
STACK CFI caa0 .cfa: x29 32 +
STACK CFI INIT cbb4 f8 .cfa: sp 0 +
STACK CFI cbb8 .cfa: sp 48 +
STACK CFI cbc4 .cfa: x29 48 + x19: .cfa -8 + ^ x20: .cfa -16 + ^ x21: .cfa -32 + ^ .ra: .cfa -40 + ^ x29: .cfa -48 + ^
STACK CFI cc30 .cfa: sp 48 +
STACK CFI cc3c .cfa: sp 0 +
STACK CFI cc40 .cfa: x29 48 +
STACK CFI INIT cd58 1fc .cfa: sp 0 +
STACK CFI cd5c .cfa: sp 112 +
STACK CFI cd6c .cfa: x29 48 + x19: .cfa -8 + ^ x20: .cfa -16 + ^ x21: .cfa -32 + ^ .ra: .cfa -40 + ^ x29: .cfa -48 + ^
STACK CFI ce90 .cfa: sp 112 +
STACK CFI cea0 .cfa: sp 0 +
STACK CFI cea4 .cfa: x29 48 +
STACK CFI INIT cf80 164 .cfa: sp 0 +
STACK CFI cf84 .cfa: sp 112 +
STACK CFI cf94 .cfa: x29 48 + x19: .cfa -8 + ^ x20: .cfa -16 + ^ x21: .cfa -24 + ^ x22: .cfa -32 + ^ .ra: .cfa -40 + ^ x29: .cfa -48 + ^
STACK CFI d080 .cfa: sp 112 +
STACK CFI d090 .cfa: sp 0 +
STACK CFI d094 .cfa: x29 48 +
STACK CFI INIT d284 1fc .cfa: sp 0 +
STACK CFI d288 .cfa: sp 112 +
STACK CFI d298 .cfa: x29 48 + x19: .cfa -8 + ^ x20: .cfa -16 + ^ x21: .cfa -32 + ^ .ra: .cfa -40 + ^ x29: .cfa -48 + ^
STACK CFI d3bc .cfa: sp 112 +
STACK CFI d3cc .cfa: sp 0 +
STACK CFI d3d0 .cfa: x29 48 +
STACK CFI INIT 7c80 568 .cfa: sp 0 +
STACK CFI 7c84 .cfa: sp 208 +
STACK CFI 7c94 .cfa: x29 48 + x19: .cfa -8 + ^ x20: .cfa -16 + ^ x21: .cfa -24 + ^ x22: .cfa -32 + ^ .ra: .cfa -40 + ^ x29: .cfa -48 + ^
STACK CFI 808c .cfa: sp 208 +
STACK CFI 809c .cfa: sp 0 +
STACK CFI 80a0 .cfa: x29 48 +
