MODULE Linux arm 27B59B5EAAE450A8381589AD06270CBC0 thesillydoggo.animatedprofiles.android32.so
INFO CODE_ID 5E9BB527E4AAA850381589AD06270CBC0AEE09D0
INFO GENERATOR mozilla/dump_syms 2.3.4
PUBLIC 93e0 0 __on_dlclose
PUBLIC 93f0 0 __emutls_unregister_key
PUBLIC 93f4 0 __on_dlclose_late
PUBLIC 93f8 0 __atexit_handler_wrapper
PUBLIC 9404 0 atexit
PUBLIC 9424 0 pthread_atfork
FUNC 9434 2d8 0 __cxx_global_var_init
FUNC 970c 2d8 0 __cxx_global_var_init.3
FUNC 99e4 2d8 0 __cxx_global_var_init.6
FUNC 9cbc 2d8 0 __cxx_global_var_init.8
FUNC 9f94 1c 0 geode::modifier::ModifyBase<geode::modifier::ModifyDerive<hook14<(anonymous namespace)::hook14Parent>, CCAnimatedSprite> >::~ModifyBase()
FUNC 9fb0 308 0 __cxx_global_var_init.1
FUNC a2b8 1c 0 geode::modifier::ModifyBase<geode::modifier::ModifyDerive<AnimatedProfilePage, ProfilePage> >::~ModifyBase()
FUNC a2d4 308 0 __cxx_global_var_init.2
FUNC a5dc 1c 0 geode::modifier::ModifyBase<geode::modifier::ModifyDerive<AnimatedCommentCell, CommentCell> >::~ModifyBase()
FUNC a5f8 1c 0 geode::modifier::ModifyBase<geode::modifier::ModifyDerive<hook143<(anonymous namespace)::hook143Parent>, ShardsPage> >::~ModifyBase()
FUNC a614 450 0 __cxx_global_var_init.4
FUNC aa64 1c 0 geode::modifier::ModifyBase<geode::modifier::ModifyDerive<AnimatedItemInfoPopup, ItemInfoPopup> >::~ModifyBase()
FUNC aa80 308 0 __cxx_global_var_init.5
FUNC ad88 1c 0 geode::modifier::ModifyBase<geode::modifier::ModifyDerive<AnimatedCommunityCreditsPage, CommunityCreditsPage> >::~ModifyBase()
FUNC ada4 1c 0 geode::modifier::ModifyBase<geode::modifier::ModifyDerive<hook278<(anonymous namespace)::hook278Parent>, GJShopLayer> >::~ModifyBase()
FUNC adc0 308 0 __cxx_global_var_init.7
FUNC b0c8 1c 0 geode::modifier::ModifyBase<geode::modifier::ModifyDerive<AnimatedPurchaseItemPopup, PurchaseItemPopup> >::~ModifyBase()
FUNC b0e4 1c 0 geode::modifier::ModifyBase<geode::modifier::ModifyDerive<hook375<(anonymous namespace)::hook375Parent>, GJGarageLayer> >::~ModifyBase()
FUNC b100 31c 0 geode::modifier::ModifyDerive<hook14<(anonymous namespace)::hook14Parent>, CCAnimatedSprite>::apply()
FUNC b41c 3a 0 std::__ndk1::shared_ptr<geode::Hook>::~shared_ptr[abi:ne180000]()
FUNC b456 3e 0 std::__ndk1::vector<std::__ndk1::basic_string<char, std::__ndk1::char_traits<char>, std::__ndk1::allocator<char> >, std::__ndk1::allocator<std::__ndk1::basic_string<char, std::__ndk1::char_traits<char>, std::__ndk1::allocator<char> > > >::~vector[abi:ne180000]()
FUNC b494 2 0 geode::modifier::ModifyBase<geode::modifier::ModifyDerive<hook14<(anonymous namespace)::hook14Parent>, CCAnimatedSprite> >::apply()
PUBLIC b497 0 __clang_call_terminate
FUNC b4a2 46 0 std::__ndk1::basic_string<char, std::__ndk1::char_traits<char>, std::__ndk1::allocator<char> >::__init_copy_ctor_external(char const*, unsigned int)
FUNC b4e8 10 0 std::__ndk1::basic_string<char, std::__ndk1::char_traits<char>, std::__ndk1::allocator<char> >::__throw_length_error[abi:ne180000]() const
FUNC b4f8 38 0 std::__ndk1::__throw_length_error[abi:ne180000](char const*)
FUNC b530 18 0 std::length_error::length_error[abi:ne180000](char const*)
FUNC b548 28 0 std::__throw_bad_array_new_length([abi:ne180000], void)
FUNC b570 160 0 std::__ndk1::vector<std::__ndk1::basic_string<char, std::__ndk1::char_traits<char>, std::__ndk1::allocator<char> >, std::__ndk1::allocator<std::__ndk1::basic_string<char, std::__ndk1::char_traits<char>, std::__ndk1::allocator<char> > > >::__push_back_slow_path<std::__ndk1::basic_string<char, std::__ndk1::char_traits<char>, std::__ndk1::allocator<char> > const&>(std::__ndk1::basic_string<char, std::__ndk1::char_traits<char>, std::__ndk1::allocator<char> > const&)
FUNC b6d0 3c 0 std::__ndk1::__split_buffer<std::__ndk1::basic_string<char, std::__ndk1::char_traits<char>, std::__ndk1::allocator<char> >, std::__ndk1::allocator<std::__ndk1::basic_string<char, std::__ndk1::char_traits<char>, std::__ndk1::allocator<char> > >&>::~__split_buffer()
FUNC b70c 10 0 std::__ndk1::vector<std::__ndk1::basic_string<char, std::__ndk1::char_traits<char>, std::__ndk1::allocator<char> >, std::__ndk1::allocator<std::__ndk1::basic_string<char, std::__ndk1::char_traits<char>, std::__ndk1::allocator<char> > > >::__throw_length_error[abi:ne180000]() const
FUNC b71c c0 0 std::__ndk1::__tree<std::__ndk1::__value_type<std::__ndk1::basic_string<char, std::__ndk1::char_traits<char>, std::__ndk1::allocator<char> >, std::__ndk1::shared_ptr<geode::Hook> >, std::__ndk1::__map_value_compare<std::__ndk1::basic_string<char, std::__ndk1::char_traits<char>, std::__ndk1::allocator<char> >, std::__ndk1::__value_type<std::__ndk1::basic_string<char, std::__ndk1::char_traits<char>, std::__ndk1::allocator<char> >, std::__ndk1::shared_ptr<geode::Hook> >, std::__ndk1::less<std::__ndk1::basic_string<char, std::__ndk1::char_traits<char>, std::__ndk1::allocator<char> > >, true>, std::__ndk1::allocator<std::__ndk1::__value_type<std::__ndk1::basic_string<char, std::__ndk1::char_traits<char>, std::__ndk1::allocator<char> >, std::__ndk1::shared_ptr<geode::Hook> > > >::find<std::__ndk1::basic_string<char, std::__ndk1::char_traits<char>, std::__ndk1::allocator<char> > >(std::__ndk1::basic_string<char, std::__ndk1::char_traits<char>, std::__ndk1::allocator<char> > const&)
FUNC b7dc 2ba 0 std::__ndk1::__tree<std::__ndk1::__value_type<std::__ndk1::basic_string<char, std::__ndk1::char_traits<char>, std::__ndk1::allocator<char> >, std::__ndk1::shared_ptr<geode::Hook> >, std::__ndk1::__map_value_compare<std::__ndk1::basic_string<char, std::__ndk1::char_traits<char>, std::__ndk1::allocator<char> >, std::__ndk1::__value_type<std::__ndk1::basic_string<char, std::__ndk1::char_traits<char>, std::__ndk1::allocator<char> >, std::__ndk1::shared_ptr<geode::Hook> >, std::__ndk1::less<std::__ndk1::basic_string<char, std::__ndk1::char_traits<char>, std::__ndk1::allocator<char> > >, true>, std::__ndk1::allocator<std::__ndk1::__value_type<std::__ndk1::basic_string<char, std::__ndk1::char_traits<char>, std::__ndk1::allocator<char> >, std::__ndk1::shared_ptr<geode::Hook> > > >::erase(std::__ndk1::__tree_const_iterator<std::__ndk1::__value_type<std::__ndk1::basic_string<char, std::__ndk1::char_traits<char>, std::__ndk1::allocator<char> >, std::__ndk1::shared_ptr<geode::Hook> >, std::__ndk1::__tree_node<std::__ndk1::__value_type<std::__ndk1::basic_string<char, std::__ndk1::char_traits<char>, std::__ndk1::allocator<char> >, std::__ndk1::shared_ptr<geode::Hook> >, void*>*, int>)
FUNC ba96 5a 0 std::__ndk1::__tree<std::__ndk1::__value_type<std::__ndk1::basic_string<char, std::__ndk1::char_traits<char>, std::__ndk1::allocator<char> >, std::__ndk1::shared_ptr<geode::Hook> >, std::__ndk1::__map_value_compare<std::__ndk1::basic_string<char, std::__ndk1::char_traits<char>, std::__ndk1::allocator<char> >, std::__ndk1::__value_type<std::__ndk1::basic_string<char, std::__ndk1::char_traits<char>, std::__ndk1::allocator<char> >, std::__ndk1::shared_ptr<geode::Hook> >, std::__ndk1::less<std::__ndk1::basic_string<char, std::__ndk1::char_traits<char>, std::__ndk1::allocator<char> > >, true>, std::__ndk1::allocator<std::__ndk1::__value_type<std::__ndk1::basic_string<char, std::__ndk1::char_traits<char>, std::__ndk1::allocator<char> >, std::__ndk1::shared_ptr<geode::Hook> > > >::destroy(std::__ndk1::__tree_node<std::__ndk1::__value_type<std::__ndk1::basic_string<char, std::__ndk1::char_traits<char>, std::__ndk1::allocator<char> >, std::__ndk1::shared_ptr<geode::Hook> >, void*>*)
FUNC baf0 84 0 geode::addresser::getVirtual<void (CCAnimatedSprite::*)(char const*)>(void (CCAnimatedSprite::*)(char const*))
FUNC bb74 d0 0 geode::modifier::AsStaticFunction_animationFinished<hook14<(anonymous namespace)::hook14Parent>, void (hook14<(anonymous namespace)::hook14Parent>::*)(char const*)>::Impl<void (hook14<(anonymous namespace)::hook14Parent>::*)(char const*)>::function(hook14<(anonymous namespace)::hook14Parent>*, char const*)
FUNC bc44 a0 0 CCAnimatedSprite::CCAnimatedSprite(geode::ZeroConstructorType)
FUNC bce4 3a 0 std::__ndk1::shared_ptr<tulip::hook::CallingConvention>::~shared_ptr[abi:ne180000]()
FUNC bd1e 46 0 tulip::hook::HandlerMetadata::~HandlerMetadata()
FUNC bd64 ba 0 std::__ndk1::__tree<std::__ndk1::__value_type<std::__ndk1::basic_string<char, std::__ndk1::char_traits<char>, std::__ndk1::allocator<char> >, std::__ndk1::shared_ptr<geode::Hook> >, std::__ndk1::__map_value_compare<std::__ndk1::basic_string<char, std::__ndk1::char_traits<char>, std::__ndk1::allocator<char> >, std::__ndk1::__value_type<std::__ndk1::basic_string<char, std::__ndk1::char_traits<char>, std::__ndk1::allocator<char> >, std::__ndk1::shared_ptr<geode::Hook> >, std::__ndk1::less<std::__ndk1::basic_string<char, std::__ndk1::char_traits<char>, std::__ndk1::allocator<char> > >, true>, std::__ndk1::allocator<std::__ndk1::__value_type<std::__ndk1::basic_string<char, std::__ndk1::char_traits<char>, std::__ndk1::allocator<char> >, std::__ndk1::shared_ptr<geode::Hook> > > >::__find_equal<std::__ndk1::basic_string<char, std::__ndk1::char_traits<char>, std::__ndk1::allocator<char> > >(std::__ndk1::__tree_end_node<std::__ndk1::__tree_node_base<void*>*>*&, std::__ndk1::basic_string<char, std::__ndk1::char_traits<char>, std::__ndk1::allocator<char> > const&)
FUNC be1e 5c 0 std::__ndk1::unique_ptr<std::__ndk1::__tree_node<std::__ndk1::__value_type<std::__ndk1::basic_string<char, std::__ndk1::char_traits<char>, std::__ndk1::allocator<char> >, std::__ndk1::shared_ptr<geode::Hook> >, void*>, std::__ndk1::__tree_node_destructor<std::__ndk1::allocator<std::__ndk1::__tree_node<std::__ndk1::__value_type<std::__ndk1::basic_string<char, std::__ndk1::char_traits<char>, std::__ndk1::allocator<char> >, std::__ndk1::shared_ptr<geode::Hook> >, void*> > > >::~unique_ptr[abi:ne180000]()
FUNC be7a 14a 0 std::__ndk1::__tree_balance_after_insert[abi:ne180000]<std::__ndk1::__tree_node_base<void*>*>(std::__ndk1::__tree_node_base<void*>*, std::__ndk1::__tree_node_base<void*>*)
FUNC bfd0 310 0 geode::modifier::ModifyDerive<AnimatedProfilePage, ProfilePage>::apply()
FUNC c2e0 2 0 geode::modifier::ModifyBase<geode::modifier::ModifyDerive<AnimatedProfilePage, ProfilePage> >::apply()
FUNC c2e4 414 0 geode::modifier::AsStaticFunction_loadPageFromUserInfo<AnimatedProfilePage, void (AnimatedProfilePage::*)(GJUserScore*)>::Impl<void (AnimatedProfilePage::*)(GJUserScore*)>::function(AnimatedProfilePage*, GJUserScore*)
FUNC c6f8 160 0 AnimatedProfilePage::onAnimate(cocos2d::CCObject*)
FUNC c858 88 0 geode::cast::traverseTypeinfoFor(void*, geode::cast::ClassTypeinfoType const*, char const*)
FUNC c8e0 320 0 geode::modifier::ModifyDerive<AnimatedCommentCell, CommentCell>::apply()
FUNC cc00 2 0 geode::modifier::ModifyBase<geode::modifier::ModifyDerive<AnimatedCommentCell, CommentCell> >::apply()
FUNC cc04 2d0 0 geode::modifier::AsStaticFunction_loadFromComment<AnimatedCommentCell, void (AnimatedCommentCell::*)(GJComment*)>::Impl<void (AnimatedCommentCell::*)(GJComment*)>::function(AnimatedCommentCell*, GJComment*)
FUNC ced4 a8 0 AnimatedCommentCell::onAnimate(cocos2d::CCObject*)
FUNC cf7c 2bc 0 geode::modifier::ModifyDerive<hook143<(anonymous namespace)::hook143Parent>, ShardsPage>::apply()
FUNC d238 2 0 geode::modifier::ModifyBase<geode::modifier::ModifyDerive<hook143<(anonymous namespace)::hook143Parent>, ShardsPage> >::apply()
FUNC d23c 7c 0 geode::addresser::getVirtual<bool (ShardsPage::*)()>(bool (ShardsPage::*)())
FUNC d2b8 240 0 geode::modifier::AsStaticFunction_init<hook143<(anonymous namespace)::hook143Parent>, bool (hook143<(anonymous namespace)::hook143Parent>::*)()>::Impl<bool (hook143<(anonymous namespace)::hook143Parent>::*)()>::function(hook143<(anonymous namespace)::hook143Parent>*)
FUNC d4f8 70 0 ShardsPage::ShardsPage(geode::ZeroConstructorType)
FUNC d568 16 0 geode::cocos::CCArrayExt<CCMenuItemSpriteExtra*>::~CCArrayExt()
FUNC d580 350 0 geode::modifier::ModifyDerive<AnimatedItemInfoPopup, ItemInfoPopup>::apply()
FUNC d8d0 2 0 geode::modifier::ModifyBase<geode::modifier::ModifyDerive<AnimatedItemInfoPopup, ItemInfoPopup> >::apply()
FUNC d8d4 34c 0 geode::modifier::AsStaticFunction_init<AnimatedItemInfoPopup, bool (AnimatedItemInfoPopup::*)(int, UnlockType)>::Impl<bool (AnimatedItemInfoPopup::*)(int, UnlockType)>::function(AnimatedItemInfoPopup*, int, UnlockType)
FUNC dc20 160 0 AnimatedItemInfoPopup::onAnimate(cocos2d::CCObject*)
FUNC dd80 2d0 0 geode::modifier::ModifyDerive<AnimatedCommunityCreditsPage, CommunityCreditsPage>::apply()
FUNC e050 2 0 geode::modifier::ModifyBase<geode::modifier::ModifyDerive<AnimatedCommunityCreditsPage, CommunityCreditsPage> >::apply()
FUNC e054 7c 0 geode::addresser::getVirtual<bool (CommunityCreditsPage::*)()>(bool (CommunityCreditsPage::*)())
FUNC e0d0 274 0 geode::modifier::AsStaticFunction_init<AnimatedCommunityCreditsPage, bool (AnimatedCommunityCreditsPage::*)()>::Impl<bool (AnimatedCommunityCreditsPage::*)()>::function(AnimatedCommunityCreditsPage*)
FUNC e344 70 0 CommunityCreditsPage::CommunityCreditsPage(geode::ZeroConstructorType)
FUNC e3b4 16 0 geode::cocos::CCArrayExt<cocos2d::CCNode*>::~CCArrayExt()
FUNC e3d0 300 0 geode::modifier::ModifyDerive<hook278<(anonymous namespace)::hook278Parent>, GJShopLayer>::apply()
FUNC e6d0 2 0 geode::modifier::ModifyBase<geode::modifier::ModifyDerive<hook278<(anonymous namespace)::hook278Parent>, GJShopLayer> >::apply()
FUNC e6d4 37c 0 geode::modifier::AsStaticFunction_init<hook278<(anonymous namespace)::hook278Parent>, bool (hook278<(anonymous namespace)::hook278Parent>::*)(ShopType)>::Impl<bool (hook278<(anonymous namespace)::hook278Parent>::*)(ShopType)>::function(hook278<(anonymous namespace)::hook278Parent>*, ShopType)
FUNC ea50 16 0 geode::cocos::CCArrayExt<ListButtonPage*>::~CCArrayExt()
FUNC ea70 320 0 geode::modifier::ModifyDerive<AnimatedPurchaseItemPopup, PurchaseItemPopup>::apply()
FUNC ed90 2 0 geode::modifier::ModifyBase<geode::modifier::ModifyDerive<AnimatedPurchaseItemPopup, PurchaseItemPopup> >::apply()
FUNC ed94 35c 0 geode::modifier::AsStaticFunction_init<AnimatedPurchaseItemPopup, bool (AnimatedPurchaseItemPopup::*)(GJStoreItem*)>::Impl<bool (AnimatedPurchaseItemPopup::*)(GJStoreItem*)>::function(AnimatedPurchaseItemPopup*, GJStoreItem*)
FUNC f0f0 160 0 AnimatedPurchaseItemPopup::onAnimate(cocos2d::CCObject*)
FUNC f250 5a4 0 geode::modifier::ModifyDerive<hook375<(anonymous namespace)::hook375Parent>, GJGarageLayer>::apply()
FUNC f7f4 2 0 geode::modifier::ModifyBase<geode::modifier::ModifyDerive<hook375<(anonymous namespace)::hook375Parent>, GJGarageLayer> >::apply()
FUNC f7f8 378 0 geode::modifier::AsStaticFunction_setupPage<hook375<(anonymous namespace)::hook375Parent>, void (hook375<(anonymous namespace)::hook375Parent>::*)(int, IconType)>::Impl<void (hook375<(anonymous namespace)::hook375Parent>::*)(int, IconType)>::function(hook375<(anonymous namespace)::hook375Parent>*, int, IconType)
FUNC fb70 7c 0 geode::addresser::getVirtual<bool (GJGarageLayer::*)()>(bool (GJGarageLayer::*)())
FUNC fbec 1e0 0 geode::modifier::AsStaticFunction_init<hook375<(anonymous namespace)::hook375Parent>, bool (hook375<(anonymous namespace)::hook375Parent>::*)()>::Impl<bool (hook375<(anonymous namespace)::hook375Parent>::*)()>::function(hook375<(anonymous namespace)::hook375Parent>*)
FUNC fdcc a4 0 GJGarageLayer::GJGarageLayer(geode::ZeroConstructorType)
FUNC fe70 20 0 geodeImplicitEntry
FUNC fe90 b4 0 cocos2d::CCDestructor::lock(void*)
FUNC ff44 d0 0 wrapFunction(unsigned int, tulip::hook::WrapperMetadata const&)
FUNC 10014 46 0 tulip::hook::WrapperMetadata::~WrapperMetadata()
FUNC 1005a 10 0 cocos2d::CCNode::~CCNode()
FUNC 1006a 10 0 cocos2d::CCObject::~CCObject()
FUNC 1007a 10 0 cocos2d::CCNodeRGBA::~CCNodeRGBA()
FUNC 1008a 10 0 cocos2d::CCSprite::~CCSprite()
FUNC 1009c 144 0 cocos2d::CCNodeRGBA::~CCNodeRGBA()
FUNC 101e0 f8 0 CCAnimatedSprite::runAnimation(gd::string)
FUNC 102e0 70 0 tulip::hook::AbstractFunction::from<void, CCAnimatedSprite*, gd::string>(void (*)(CCAnimatedSprite*, gd::string))
FUNC 10350 164 0 cocos2d::CCSprite::~CCSprite()
FUNC 104b4 4 0 cocos2d::CCCopying::copyWithZone(cocos2d::CCZone*)
FUNC 104b8 2 0 cocos2d::CCObject::update(float)
FUNC 104ba 2 0 cocos2d::CCNodeRGBA::setOpacityModifyRGB(bool)
FUNC 104bc 4 0 cocos2d::CCNodeRGBA::isOpacityModifyRGB()
FUNC 104c0 2 0 {virtual override thunk({offset(-264)}, cocos2d::CCNodeRGBA::setOpacityModifyRGB(bool))}
FUNC 104c2 4 0 {virtual override thunk({offset(-264)}, cocos2d::CCNodeRGBA::isOpacityModifyRGB())}
FUNC 104c6 6 0 cocos2d::CCSprite::setBlendFunc(cocos2d::_ccBlendFunc)
FUNC 104cc a 0 cocos2d::CCSprite::getBlendFunc()
FUNC 104d6 6 0 cocos2d::CCSprite::isDirty()
FUNC 104dc 6 0 cocos2d::CCSprite::setDirty(bool)
FUNC 104e2 6 0 {virtual override thunk({offset(-280)}, cocos2d::CCSprite::setBlendFunc(cocos2d::_ccBlendFunc))}
FUNC 104e8 a 0 {virtual override thunk({offset(-280)}, cocos2d::CCSprite::getBlendFunc())}
FUNC 104f4 334 0 cocos2d::CCObject::~CCObject()
FUNC 10828 130 0 cocos2d::CCNode::~CCNode()
FUNC 10958 3ea 0 std::__ndk1::__hash_table<std::__ndk1::__hash_value_type<void*, bool>, std::__ndk1::__unordered_map_hasher<void*, std::__ndk1::__hash_value_type<void*, bool>, std::__ndk1::hash<void*>, std::__ndk1::equal_to<void*>, true>, std::__ndk1::__unordered_map_equal<void*, std::__ndk1::__hash_value_type<void*, bool>, std::__ndk1::equal_to<void*>, std::__ndk1::hash<void*>, true>, std::__ndk1::allocator<std::__ndk1::__hash_value_type<void*, bool> > >::__emplace_unique_key_args<void*, std::__ndk1::piecewise_construct_t const&, std::__ndk1::tuple<void* const&>, std::__ndk1::tuple<> >(void* const&, std::__ndk1::piecewise_construct_t const&, std::__ndk1::tuple<void* const&>, std::__ndk1::tuple<>)
FUNC 10d44 38 0 fmt::v10::detail::throw_format_error(char const*)
FUNC 10d7c 18 0 fmt::v10::format_error::runtime_error(char const*)
FUNC 10d94 1cc 0 fmt::v10::detail::write_loc(fmt::v10::appender, fmt::v10::loc_value, fmt::v10::format_specs<char> const&, fmt::v10::detail::locale_ref)
FUNC 10f60 44 0 fmt::v10::format_facet<std::__ndk1::locale>::~format_facet()
FUNC 10fa4 420 0 fmt::v10::format_facet<std::__ndk1::locale>::do_put(fmt::v10::appender, fmt::v10::loc_value, fmt::v10::format_specs<char> const&) const
FUNC 113c4 30 0 fmt::v10::detail::loc_writer<char>::~loc_writer()
FUNC 113f4 c4 0 fmt::v10::vformat(fmt::v10::basic_string_view<char>, fmt::v10::basic_format_args<fmt::v10::basic_format_context<fmt::v10::appender, char> >)
FUNC 114b8 1ac 0 fmt::v10::detail::dragonbox::cache_accessor<double>::get_cached_power(int)
FUNC 11664 29c 0 fmt::v10::detail::vformat_to<char>(fmt::v10::detail::buffer<char>&, fmt::v10::basic_string_view<char>, fmt::v10::detail::vformat_args<char>::type, fmt::v10::detail::locale_ref)
FUNC 11900 228 0 fmt::v10::detail::is_printable(unsigned int)
FUNC 11b28 384 0 fmt::v10::detail::dragonbox::to_decimal<float>(float)
FUNC 11eac 880 0 fmt::v10::detail::dragonbox::to_decimal<double>(double)
FUNC 1272c 10 0 fmt::v10::format_error::~format_error()
FUNC 1273c 98 0 fmt::v10::basic_memory_buffer<char, (unsigned int)500, std::__ndk1::allocator<char> >::grow(unsigned int)
FUNC 127d4 48 0 fmt::v10::format_facet<std::__ndk1::locale>::~format_facet()
FUNC 1281c 54 0 fmt::v10::detail::default_arg_formatter<char>::operator()<bool>(bool)
FUNC 12870 2c 0 fmt::v10::detail::default_arg_formatter<char>::operator()<char const*>(char const*)
FUNC 1289c 70 0 fmt::v10::detail::default_arg_formatter<char>::operator()<void const*>(void const*)
FUNC 1290c 198 0 _ZN3fmt3v106detail5writeIcNS0_8appenderEiTnNSt6__ndk19enable_ifIXaaaasr11is_integralIT1_EE5valuentsr3std7is_sameIS6_bEE5valuentsr3std7is_sameIS6_T_EE5valueEiE4typeELi0EEET0_SA_S6_
FUNC 12aa4 a6 0 fmt::v10::detail::copy_str_noinline<char, char*, fmt::v10::appender>(char*, char*, fmt::v10::appender)
FUNC 12b4c 160 0 _ZN3fmt3v106detail5writeIcNS0_8appenderEjTnNSt6__ndk19enable_ifIXaaaasr11is_integralIT1_EE5valuentsr3std7is_sameIS6_bEE5valuentsr3std7is_sameIS6_T_EE5valueEiE4typeELi0EEET0_SA_S6_
FUNC 12cac 214 0 _ZN3fmt3v106detail5writeIcNS0_8appenderExTnNSt6__ndk19enable_ifIXaaaasr11is_integralIT1_EE5valuentsr3std7is_sameIS6_bEE5valuentsr3std7is_sameIS6_T_EE5valueEiE4typeELi0EEET0_SA_S6_
FUNC 12ec0 1e0 0 _ZN3fmt3v106detail5writeIcNS0_8appenderEyTnNSt6__ndk19enable_ifIXaaaasr11is_integralIT1_EE5valuentsr3std7is_sameIS6_bEE5valuentsr3std7is_sameIS6_T_EE5valueEiE4typeELi0EEET0_SA_S6_
FUNC 130a0 174 0 _ZN3fmt3v106detail5writeIcNS0_8appenderEbTnNSt6__ndk19enable_ifIXsr3std7is_sameIT1_bEE5valueEiE4typeELi0EEET0_S9_S6_RKNS0_12format_specsIT_EENS1_10locale_refE
FUNC 13214 954 0 fmt::v10::detail::write_int_noinline<char, fmt::v10::appender, unsigned int>(fmt::v10::appender, fmt::v10::detail::write_int_arg<unsigned int>, fmt::v10::format_specs<char> const&, fmt::v10::detail::locale_ref)
FUNC 13b68 fe 0 fmt::v10::detail::fill<fmt::v10::appender, char>(fmt::v10::appender, unsigned int, fmt::v10::detail::fill_t<char> const&)
FUNC 13c68 16c 0 fmt::v10::detail::write_padded<(fmt::v10::align::type)1, fmt::v10::appender, char, fmt::v10::detail::write_char<char, fmt::v10::appender>(fmt::v10::appender, char, fmt::v10::format_specs<char> const&)::{lambda(fmt::v10::appender&)#1}>(fmt::v10::appender, fmt::v10::format_specs<char> const&, unsigned int, unsigned int, fmt::v10::detail::write_char<char, fmt::v10::appender>(fmt::v10::appender, char, fmt::v10::format_specs<char> const&)::{lambda(fmt::v10::appender&)#1})
FUNC 13dd4 224 0 fmt::v10::detail::write_escaped_cp<fmt::v10::appender, char>(fmt::v10::appender, fmt::v10::detail::find_escape_result<char> const&)
FUNC 13ff8 e8 0 fmt::v10::detail::write_codepoint<(unsigned int)2, char, fmt::v10::appender>(fmt::v10::appender, char, unsigned int)
FUNC 140e0 e4 0 fmt::v10::detail::write_codepoint<(unsigned int)8, char, fmt::v10::appender>(fmt::v10::appender, char, unsigned int)
FUNC 141d0 884 0 _ZN3fmt3v106detail5writeIcNS0_8appenderEfTnNSt6__ndk19enable_ifIXsr13is_fast_floatIT1_EE5valueEiE4typeELi0EEET0_S9_S6_
FUNC 14a54 138 0 fmt::v10::detail::write_padded<(fmt::v10::align::type)1, fmt::v10::appender, char, fmt::v10::detail::write_nonfinite<char, fmt::v10::appender>(fmt::v10::appender, bool, fmt::v10::format_specs<char>, fmt::v10::detail::float_specs const&)::{lambda(fmt::v10::appender&)#1}>(fmt::v10::appender, fmt::v10::format_specs<char> const&, unsigned int, unsigned int, fmt::v10::detail::write_nonfinite<char, fmt::v10::appender>(fmt::v10::appender, bool, fmt::v10::format_specs<char>, fmt::v10::detail::float_specs const&)::{lambda(fmt::v10::appender&)#1})
FUNC 14b8c d4 0 fmt::v10::detail::do_write_float<fmt::v10::appender, fmt::v10::detail::dragonbox::decimal_fp<float>, char, fmt::v10::detail::digit_grouping<char> >(fmt::v10::appender, fmt::v10::detail::dragonbox::decimal_fp<float> const&, fmt::v10::format_specs<char> const&, fmt::v10::detail::float_specs, fmt::v10::detail::locale_ref)::{lambda(fmt::v10::appender(fmt::v10::appender))#1}::operator() const
FUNC 14c60 194 0 fmt::v10::detail::digit_grouping<char>::digit_grouping(fmt::v10::detail::locale_ref, bool)
FUNC 14df4 22 0 fmt::v10::detail::digit_grouping<char>::~digit_grouping()
FUNC 14e18 110 0 fmt::v10::detail::write_exponent<char, fmt::v10::appender>(int, fmt::v10::appender)
FUNC 14f28 144 0 _ZN3fmt3v106detail17write_significandIcjTnNSt6__ndk19enable_ifIXsr3std11is_integralIT0_EE5valueEiE4typeELi0EEEPT_S9_S5_iiS8_
FUNC 1506c 66 0 std::__ndk1::basic_string<char, std::__ndk1::char_traits<char>, std::__ndk1::allocator<char> >::__assign_no_alias<true>(char const*, unsigned int)
FUNC 150d2 a6 0 std::__ndk1::basic_string<char, std::__ndk1::char_traits<char>, std::__ndk1::allocator<char> >::__assign_no_alias<false>(char const*, unsigned int)
FUNC 15178 22c 0 fmt::v10::detail::digit_grouping<char>::apply<fmt::v10::appender, char>(fmt::v10::appender, fmt::v10::basic_string_view<char>) const
FUNC 153a4 b8 0 fmt::v10::basic_memory_buffer<int, (unsigned int)500, std::__ndk1::allocator<int> >::grow(unsigned int)
FUNC 15460 e4 0 _ZN3fmt3v106detail5writeIcNS0_8appenderEdTnNSt6__ndk19enable_ifIXsr13is_fast_floatIT1_EE5valueEiE4typeELi0EEET0_S9_S6_
FUNC 15544 94c 0 fmt::v10::detail::do_write_float<fmt::v10::appender, fmt::v10::detail::dragonbox::decimal_fp<double>, char, fmt::v10::detail::digit_grouping<char> >(fmt::v10::appender, fmt::v10::detail::dragonbox::decimal_fp<double> const&, fmt::v10::format_specs<char> const&, fmt::v10::detail::float_specs, fmt::v10::detail::locale_ref)
FUNC 15e90 dc 0 fmt::v10::detail::do_write_float<fmt::v10::appender, fmt::v10::detail::dragonbox::decimal_fp<double>, char, fmt::v10::detail::digit_grouping<char> >(fmt::v10::appender, fmt::v10::detail::dragonbox::decimal_fp<double> const&, fmt::v10::format_specs<char> const&, fmt::v10::detail::float_specs, fmt::v10::detail::locale_ref)::{lambda(fmt::v10::appender(fmt::v10::appender))#1}::operator() const
FUNC 15f6c 19c 0 _ZN3fmt3v106detail17write_significandIcyTnNSt6__ndk19enable_ifIXsr3std11is_integralIT0_EE5valueEiE4typeELi0EEEPT_S9_S5_iiS8_
FUNC 16110 e4 0 _ZN3fmt3v106detail5writeIcNS0_8appenderEeTnNSt6__ndk19enable_ifIXsr13is_fast_floatIT1_EE5valueEiE4typeELi0EEET0_S9_S6_
FUNC 161f4 a6 0 fmt::v10::detail::copy_str_noinline<char, char const*, fmt::v10::appender>(char const*, char const*, fmt::v10::appender)
FUNC 1629c 11c 0 fmt::v10::detail::write_padded<(fmt::v10::align::type)2, fmt::v10::appender, char, fmt::v10::detail::write_ptr<char, fmt::v10::appender, unsigned int>(fmt::v10::appender, unsigned int, fmt::v10::format_specs<char> const*)::{lambda(fmt::v10::appender&)#1}>(fmt::v10::appender, fmt::v10::format_specs<char> const&, unsigned int, unsigned int, fmt::v10::detail::write_ptr<char, fmt::v10::appender, unsigned int>(fmt::v10::appender, unsigned int, fmt::v10::format_specs<char> const*)::{lambda(fmt::v10::appender&)#1})
FUNC 163b8 1724 0 fmt::v10::detail::parse_replacement_field<char, fmt::v10::detail::vformat_to<char>(fmt::v10::detail::buffer<char>&, fmt::v10::basic_string_view<char>, fmt::v10::detail::vformat_args<char>::type, fmt::v10::detail::locale_ref)::format_handler&>(char const*, char const*, fmt::v10::detail::vformat_to<char>(fmt::v10::detail::buffer<char>&, fmt::v10::basic_string_view<char>, fmt::v10::detail::vformat_args<char>::type, fmt::v10::detail::locale_ref)::format_handler&)
FUNC 17adc 1c4 0 fmt::v10::detail::parse_dynamic_spec<char>(char const*, char const*, int&, fmt::v10::detail::arg_ref<char>&, fmt::v10::basic_format_parse_context<char>&)
FUNC 17ca0 106 0 fmt::v10::basic_format_args<fmt::v10::basic_format_context<fmt::v10::appender, char> >::get<char>(fmt::v10::basic_string_view<char>) const
FUNC 17da8 a7c 0 fmt::v10::detail::write_int_noinline<char, fmt::v10::appender, unsigned long long>(fmt::v10::appender, fmt::v10::detail::write_int_arg<unsigned long long>, fmt::v10::format_specs<char> const&, fmt::v10::detail::locale_ref)
FUNC 18824 3e8 0 _ZN3fmt3v106detail15format_hexfloatIdTnNSt6__ndk19enable_ifIXntsr16is_double_doubleIT_EE5valueEiE4typeELi0EEEvS5_iNS1_11float_specsERNS1_6bufferIcEE
FUNC 18c0c ed4 0 fmt::v10::detail::format_float<double>(double, int, fmt::v10::detail::float_specs, fmt::v10::detail::buffer<char>&)
FUNC 19ae0 104 0 fmt::v10::detail::write_padded<(fmt::v10::align::type)2, fmt::v10::appender, char, fmt::v10::detail::write_bytes<(fmt::v10::align::type)2, char, fmt::v10::appender>(fmt::v10::appender, fmt::v10::basic_string_view<char>, fmt::v10::format_specs<char> const&)::{lambda(fmt::v10::appender&)#1}>(fmt::v10::appender, fmt::v10::format_specs<char> const&, unsigned int, unsigned int, fmt::v10::detail::write_bytes<(fmt::v10::align::type)2, char, fmt::v10::appender>(fmt::v10::appender, fmt::v10::basic_string_view<char>, fmt::v10::format_specs<char> const&)::{lambda(fmt::v10::appender&)#1})
FUNC 19be4 c6 0 fmt::v10::detail::bigint::operator<<=(int)
FUNC 19cac 47c 0 fmt::v10::detail::bigint::assign_pow10(int)
FUNC 1a128 280 0 fmt::v10::detail::bigint::divmod_assign(fmt::v10::detail::bigint const&)
FUNC 1a3a8 b8 0 fmt::v10::basic_memory_buffer<unsigned int, (unsigned int)32, std::__ndk1::allocator<unsigned int> >::grow(unsigned int)
FUNC 1a460 93c 0 fmt::v10::detail::do_write_float<fmt::v10::appender, fmt::v10::detail::big_decimal_fp, char, fmt::v10::detail::digit_grouping<char> >(fmt::v10::appender, fmt::v10::detail::big_decimal_fp const&, fmt::v10::format_specs<char> const&, fmt::v10::detail::float_specs, fmt::v10::detail::locale_ref)
FUNC 1ad9c d8 0 fmt::v10::detail::do_write_float<fmt::v10::appender, fmt::v10::detail::big_decimal_fp, char, fmt::v10::detail::digit_grouping<char> >(fmt::v10::appender, fmt::v10::detail::big_decimal_fp const&, fmt::v10::format_specs<char> const&, fmt::v10::detail::float_specs, fmt::v10::detail::locale_ref)::{lambda(fmt::v10::appender(fmt::v10::appender))#1}::operator() const
FUNC 1ae74 6c4 0 fmt::v10::detail::write<char, fmt::v10::appender>(fmt::v10::appender, fmt::v10::basic_string_view<char>, fmt::v10::format_specs<char> const&)
FUNC 1b538 124 0 fmt::v10::detail::for_each_codepoint<fmt::v10::detail::find_escape(char const*, char const*)::{lambda(unsigned int, fmt::v10::basic_string_view<char>)#1}>(fmt::v10::basic_string_view<char>, fmt::v10::detail::find_escape(char const*, char const*)::{lambda(unsigned int, fmt::v10::basic_string_view<char>)#1})::{lambda(char const*, char const*)#1}::operator()(char const*, char const*) const
FUNC 1b660 1e4 0 fmt::v10::detail::for_each_codepoint<fmt::v10::detail::compute_width(fmt::v10::basic_string_view<char>)::count_code_points>(fmt::v10::basic_string_view<char>, fmt::v10::detail::compute_width(fmt::v10::basic_string_view<char>)::count_code_points)::{lambda(char const*, char const*)#1}::operator()(char const*, char const*) const
FUNC 1b844 4d4 0 fmt::v10::detail::write_int<fmt::v10::appender, unsigned long long, char>(fmt::v10::appender, unsigned long long, unsigned int, fmt::v10::format_specs<char> const&, fmt::v10::detail::digit_grouping<char> const&)
PUBLIC 1bd19 0 __ThumbV7PILongThunk___cxa_atexit
PUBLIC 1bd25 0 __ThumbV7PILongThunk__ZdlPv
PUBLIC 1bd31 0 __ThumbV7PILongThunk__ZN5geode9addresser9Addresser19followThunkFunctionEi
PUBLIC 1bd3d 0 __ThumbV7PILongThunk__ZNSt6__ndk16locale5facetD2Ev
PUBLIC 1bd50 0 <.plt ELF section in thesillydoggo.animatedprofiles.android32.so>
STACK CFI INIT 9434 2d8 .cfa: sp 0 +
STACK CFI 9436 .cfa: sp 20 + .ra: .cfa -4 + ^ r7: .cfa -8 + ^ r6: .cfa -12 + ^ r5: .cfa -16 + ^ r4: .cfa -20 + ^
STACK CFI 9438 .cfa: r7 8 +
STACK CFI 943c r11: .cfa -24 + ^ r10: .cfa -28 + ^ r9: .cfa -32 + ^ r8: .cfa -36 + ^
STACK CFI INIT 9f94 1c .cfa: sp 0 +
STACK CFI 9f96 .cfa: sp 16 + .ra: .cfa -4 + ^ r7: .cfa -8 + ^ r6: .cfa -12 + ^ r4: .cfa -16 + ^
STACK CFI 9f98 .cfa: r7 8 +
STACK CFI INIT 9fb0 308 .cfa: sp 0 +
STACK CFI 9fb2 .cfa: sp 20 + .ra: .cfa -4 + ^ r7: .cfa -8 + ^ r6: .cfa -12 + ^ r5: .cfa -16 + ^ r4: .cfa -20 + ^
STACK CFI 9fb4 .cfa: r7 8 +
STACK CFI 9fb8 r11: .cfa -24 + ^ r10: .cfa -28 + ^ r9: .cfa -32 + ^ r8: .cfa -36 + ^
STACK CFI INIT a2b8 1c .cfa: sp 0 +
STACK CFI a2ba .cfa: sp 16 + .ra: .cfa -4 + ^ r7: .cfa -8 + ^ r6: .cfa -12 + ^ r4: .cfa -16 + ^
STACK CFI a2bc .cfa: r7 8 +
STACK CFI INIT a2d4 308 .cfa: sp 0 +
STACK CFI a2d6 .cfa: sp 20 + .ra: .cfa -4 + ^ r7: .cfa -8 + ^ r6: .cfa -12 + ^ r5: .cfa -16 + ^ r4: .cfa -20 + ^
STACK CFI a2d8 .cfa: r7 8 +
STACK CFI a2dc r11: .cfa -24 + ^ r10: .cfa -28 + ^ r9: .cfa -32 + ^ r8: .cfa -36 + ^
STACK CFI INIT a5dc 1c .cfa: sp 0 +
STACK CFI a5de .cfa: sp 16 + .ra: .cfa -4 + ^ r7: .cfa -8 + ^ r6: .cfa -12 + ^ r4: .cfa -16 + ^
STACK CFI a5e0 .cfa: r7 8 +
STACK CFI INIT 970c 2d8 .cfa: sp 0 +
STACK CFI 970e .cfa: sp 20 + .ra: .cfa -4 + ^ r7: .cfa -8 + ^ r6: .cfa -12 + ^ r5: .cfa -16 + ^ r4: .cfa -20 + ^
STACK CFI 9710 .cfa: r7 8 +
STACK CFI 9714 r11: .cfa -24 + ^ r10: .cfa -28 + ^ r9: .cfa -32 + ^ r8: .cfa -36 + ^
STACK CFI INIT a5f8 1c .cfa: sp 0 +
STACK CFI a5fa .cfa: sp 16 + .ra: .cfa -4 + ^ r7: .cfa -8 + ^ r6: .cfa -12 + ^ r4: .cfa -16 + ^
STACK CFI a5fc .cfa: r7 8 +
STACK CFI INIT a614 450 .cfa: sp 0 +
STACK CFI a616 .cfa: sp 20 + .ra: .cfa -4 + ^ r7: .cfa -8 + ^ r6: .cfa -12 + ^ r5: .cfa -16 + ^ r4: .cfa -20 + ^
STACK CFI a618 .cfa: r7 8 +
STACK CFI a61c r11: .cfa -24 + ^ r10: .cfa -28 + ^ r9: .cfa -32 + ^ r8: .cfa -36 + ^
STACK CFI INIT aa64 1c .cfa: sp 0 +
STACK CFI aa66 .cfa: sp 16 + .ra: .cfa -4 + ^ r7: .cfa -8 + ^ r6: .cfa -12 + ^ r4: .cfa -16 + ^
STACK CFI aa68 .cfa: r7 8 +
STACK CFI INIT aa80 308 .cfa: sp 0 +
STACK CFI aa82 .cfa: sp 20 + .ra: .cfa -4 + ^ r7: .cfa -8 + ^ r6: .cfa -12 + ^ r5: .cfa -16 + ^ r4: .cfa -20 + ^
STACK CFI aa84 .cfa: r7 8 +
STACK CFI aa88 r11: .cfa -24 + ^ r10: .cfa -28 + ^ r9: .cfa -32 + ^ r8: .cfa -36 + ^
STACK CFI INIT ad88 1c .cfa: sp 0 +
STACK CFI ad8a .cfa: sp 16 + .ra: .cfa -4 + ^ r7: .cfa -8 + ^ r6: .cfa -12 + ^ r4: .cfa -16 + ^
STACK CFI ad8c .cfa: r7 8 +
STACK CFI INIT 99e4 2d8 .cfa: sp 0 +
STACK CFI 99e6 .cfa: sp 20 + .ra: .cfa -4 + ^ r7: .cfa -8 + ^ r6: .cfa -12 + ^ r5: .cfa -16 + ^ r4: .cfa -20 + ^
STACK CFI 99e8 .cfa: r7 8 +
STACK CFI 99ec r11: .cfa -24 + ^ r10: .cfa -28 + ^ r9: .cfa -32 + ^ r8: .cfa -36 + ^
STACK CFI INIT ada4 1c .cfa: sp 0 +
STACK CFI ada6 .cfa: sp 16 + .ra: .cfa -4 + ^ r7: .cfa -8 + ^ r6: .cfa -12 + ^ r4: .cfa -16 + ^
STACK CFI ada8 .cfa: r7 8 +
STACK CFI INIT adc0 308 .cfa: sp 0 +
STACK CFI adc2 .cfa: sp 20 + .ra: .cfa -4 + ^ r7: .cfa -8 + ^ r6: .cfa -12 + ^ r5: .cfa -16 + ^ r4: .cfa -20 + ^
STACK CFI adc4 .cfa: r7 8 +
STACK CFI adc8 r11: .cfa -24 + ^ r10: .cfa -28 + ^ r9: .cfa -32 + ^ r8: .cfa -36 + ^
STACK CFI INIT b0c8 1c .cfa: sp 0 +
STACK CFI b0ca .cfa: sp 16 + .ra: .cfa -4 + ^ r7: .cfa -8 + ^ r6: .cfa -12 + ^ r4: .cfa -16 + ^
STACK CFI b0cc .cfa: r7 8 +
STACK CFI INIT 9cbc 2d8 .cfa: sp 0 +
STACK CFI 9cbe .cfa: sp 20 + .ra: .cfa -4 + ^ r7: .cfa -8 + ^ r6: .cfa -12 + ^ r5: .cfa -16 + ^ r4: .cfa -20 + ^
STACK CFI 9cc0 .cfa: r7 8 +
STACK CFI 9cc4 r11: .cfa -24 + ^ r10: .cfa -28 + ^ r9: .cfa -32 + ^ r8: .cfa -36 + ^
STACK CFI INIT b0e4 1c .cfa: sp 0 +
STACK CFI b0e6 .cfa: sp 16 + .ra: .cfa -4 + ^ r7: .cfa -8 + ^ r6: .cfa -12 + ^ r4: .cfa -16 + ^
STACK CFI b0e8 .cfa: r7 8 +
STACK CFI INIT b100 31c .cfa: sp 0 +
STACK CFI b102 .cfa: sp 20 + .ra: .cfa -4 + ^ r7: .cfa -8 + ^ r6: .cfa -12 + ^ r5: .cfa -16 + ^ r4: .cfa -20 + ^
STACK CFI b104 .cfa: r7 8 +
STACK CFI b108 r10: .cfa -24 + ^ r9: .cfa -28 + ^ r8: .cfa -32 + ^
STACK CFI INIT b41c 3a .cfa: sp 0 +
STACK CFI b41e .cfa: sp 16 + .ra: .cfa -4 + ^ r7: .cfa -8 + ^ r5: .cfa -12 + ^ r4: .cfa -16 + ^
STACK CFI b420 .cfa: r7 8 +
STACK CFI INIT b456 3e .cfa: sp 0 +
STACK CFI b458 .cfa: sp 20 + .ra: .cfa -4 + ^ r7: .cfa -8 + ^ r6: .cfa -12 + ^ r5: .cfa -16 + ^ r4: .cfa -20 + ^
STACK CFI b45a .cfa: r7 8 +
STACK CFI b45e r11: .cfa -24 + ^
STACK CFI INIT b494 2 .cfa: sp 0 +
STACK CFI INIT b496 c .cfa: sp 0 +
STACK CFI b498 .cfa: sp 8 + .ra: .cfa -4 + ^ r7: .cfa -8 + ^
STACK CFI b49a .cfa: r7 8 +
STACK CFI INIT b4a2 46 .cfa: sp 0 +
STACK CFI b4a4 .cfa: sp 20 + .ra: .cfa -4 + ^ r7: .cfa -8 + ^ r6: .cfa -12 + ^ r5: .cfa -16 + ^ r4: .cfa -20 + ^
STACK CFI b4a6 .cfa: r7 8 +
STACK CFI b4aa r8: .cfa -24 + ^
STACK CFI INIT b4e8 10 .cfa: sp 0 +
STACK CFI b4ea .cfa: sp 8 + .ra: .cfa -4 + ^ r7: .cfa -8 + ^
STACK CFI b4ec .cfa: r7 8 +
STACK CFI INIT b4f8 38 .cfa: sp 0 +
STACK CFI b4fa .cfa: sp 16 + .ra: .cfa -4 + ^ r7: .cfa -8 + ^ r5: .cfa -12 + ^ r4: .cfa -16 + ^
STACK CFI b4fc .cfa: r7 8 +
STACK CFI INIT b530 18 .cfa: sp 0 +
STACK CFI b532 .cfa: sp 8 + .ra: .cfa -4 + ^ r7: .cfa -8 + ^
STACK CFI b534 .cfa: r7 8 +
STACK CFI INIT b548 28 .cfa: sp 0 +
STACK CFI b54a .cfa: sp 8 + .ra: .cfa -4 + ^ r7: .cfa -8 + ^
STACK CFI b54c .cfa: r7 8 +
STACK CFI INIT b570 160 .cfa: sp 0 +
STACK CFI b572 .cfa: sp 20 + .ra: .cfa -4 + ^ r7: .cfa -8 + ^ r6: .cfa -12 + ^ r5: .cfa -16 + ^ r4: .cfa -20 + ^
STACK CFI b574 .cfa: r7 8 +
STACK CFI b578 r10: .cfa -24 + ^ r9: .cfa -28 + ^ r8: .cfa -32 + ^
STACK CFI INIT b6d0 3c .cfa: sp 0 +
STACK CFI b6d2 .cfa: sp 16 + .ra: .cfa -4 + ^ r7: .cfa -8 + ^ r5: .cfa -12 + ^ r4: .cfa -16 + ^
STACK CFI b6d4 .cfa: r7 8 +
STACK CFI INIT b70c 10 .cfa: sp 0 +
STACK CFI b70e .cfa: sp 8 + .ra: .cfa -4 + ^ r7: .cfa -8 + ^
STACK CFI b710 .cfa: r7 8 +
STACK CFI INIT b71c c0 .cfa: sp 0 +
STACK CFI b71e .cfa: sp 20 + .ra: .cfa -4 + ^ r7: .cfa -8 + ^ r6: .cfa -12 + ^ r5: .cfa -16 + ^ r4: .cfa -20 + ^
STACK CFI b720 .cfa: r7 8 +
STACK CFI b724 r10: .cfa -24 + ^ r9: .cfa -28 + ^ r8: .cfa -32 + ^
STACK CFI INIT b7dc 2ba .cfa: sp 0 +
STACK CFI b7de .cfa: sp 20 + .ra: .cfa -4 + ^ r7: .cfa -8 + ^ r6: .cfa -12 + ^ r5: .cfa -16 + ^ r4: .cfa -20 + ^
STACK CFI b7e0 .cfa: r7 8 +
STACK CFI b7e4 r8: .cfa -24 + ^
STACK CFI INIT ba96 5a .cfa: sp 0 +
STACK CFI ba9e .cfa: sp 16 + .ra: .cfa -4 + ^ r7: .cfa -8 + ^ r5: .cfa -12 + ^ r4: .cfa -16 + ^
STACK CFI baa0 .cfa: r7 8 +
STACK CFI INIT baf0 84 .cfa: sp 0 +
STACK CFI baf2 .cfa: sp 16 + .ra: .cfa -4 + ^ r7: .cfa -8 + ^ r5: .cfa -12 + ^ r4: .cfa -16 + ^
STACK CFI baf4 .cfa: r7 8 +
STACK CFI INIT bb74 d0 .cfa: sp 0 +
STACK CFI bb76 .cfa: sp 16 + .ra: .cfa -4 + ^ r7: .cfa -8 + ^ r5: .cfa -12 + ^ r4: .cfa -16 + ^
STACK CFI bb78 .cfa: r7 8 +
STACK CFI INIT bc44 a0 .cfa: sp 0 +
STACK CFI bc46 .cfa: sp 20 + .ra: .cfa -4 + ^ r7: .cfa -8 + ^ r6: .cfa -12 + ^ r5: .cfa -16 + ^ r4: .cfa -20 + ^
STACK CFI bc48 .cfa: r7 8 +
STACK CFI bc4c r11: .cfa -24 + ^
STACK CFI INIT bce4 3a .cfa: sp 0 +
STACK CFI bce6 .cfa: sp 16 + .ra: .cfa -4 + ^ r7: .cfa -8 + ^ r5: .cfa -12 + ^ r4: .cfa -16 + ^
STACK CFI bce8 .cfa: r7 8 +
STACK CFI INIT bd1e 46 .cfa: sp 0 +
STACK CFI bd20 .cfa: sp 16 + .ra: .cfa -4 + ^ r7: .cfa -8 + ^ r5: .cfa -12 + ^ r4: .cfa -16 + ^
STACK CFI bd22 .cfa: r7 8 +
STACK CFI INIT 0 10 .cfa: sp 0 +
STACK CFI 2 .cfa: sp 8 + .ra: .cfa -4 + ^ r7: .cfa -8 + ^
STACK CFI 4 .cfa: r7 8 +
STACK CFI INIT bd64 ba .cfa: sp 0 +
STACK CFI bd66 .cfa: sp 20 + .ra: .cfa -4 + ^ r7: .cfa -8 + ^ r6: .cfa -12 + ^ r5: .cfa -16 + ^ r4: .cfa -20 + ^
STACK CFI bd68 .cfa: r7 8 +
STACK CFI bd6c r11: .cfa -24 + ^ r10: .cfa -28 + ^ r9: .cfa -32 + ^ r8: .cfa -36 + ^
STACK CFI INIT be1e 5c .cfa: sp 0 +
STACK CFI be20 .cfa: sp 20 + .ra: .cfa -4 + ^ r7: .cfa -8 + ^ r6: .cfa -12 + ^ r5: .cfa -16 + ^ r4: .cfa -20 + ^
STACK CFI be22 .cfa: r7 8 +
STACK CFI be26 r11: .cfa -24 + ^
STACK CFI INIT be7a 14a .cfa: sp 0 +
STACK CFI be8c .cfa: sp 16 + .ra: .cfa -4 + ^ r7: .cfa -8 + ^ r6: .cfa -12 + ^ r4: .cfa -16 + ^
STACK CFI be8e .cfa: r7 8 +
STACK CFI INIT bfd0 310 .cfa: sp 0 +
STACK CFI bfd2 .cfa: sp 20 + .ra: .cfa -4 + ^ r7: .cfa -8 + ^ r6: .cfa -12 + ^ r5: .cfa -16 + ^ r4: .cfa -20 + ^
STACK CFI bfd4 .cfa: r7 8 +
STACK CFI bfd8 r11: .cfa -24 + ^ r9: .cfa -28 + ^ r8: .cfa -32 + ^
STACK CFI INIT c2e0 2 .cfa: sp 0 +
STACK CFI INIT c2e4 414 .cfa: sp 0 +
STACK CFI c2e6 .cfa: sp 20 + .ra: .cfa -4 + ^ r7: .cfa -8 + ^ r6: .cfa -12 + ^ r5: .cfa -16 + ^ r4: .cfa -20 + ^
STACK CFI c2e8 .cfa: r7 8 +
STACK CFI c2ec r11: .cfa -24 + ^ r10: .cfa -28 + ^ r9: .cfa -32 + ^ r8: .cfa -36 + ^
STACK CFI INIT c6f8 160 .cfa: sp 0 +
STACK CFI c6fa .cfa: sp 20 + .ra: .cfa -4 + ^ r7: .cfa -8 + ^ r6: .cfa -12 + ^ r5: .cfa -16 + ^ r4: .cfa -20 + ^
STACK CFI c6fc .cfa: r7 8 +
STACK CFI c700 r11: .cfa -24 + ^ r9: .cfa -28 + ^ r8: .cfa -32 + ^
STACK CFI INIT c858 88 .cfa: sp 0 +
STACK CFI c85a .cfa: sp 20 + .ra: .cfa -4 + ^ r7: .cfa -8 + ^ r6: .cfa -12 + ^ r5: .cfa -16 + ^ r4: .cfa -20 + ^
STACK CFI c85c .cfa: r7 8 +
STACK CFI c860 r11: .cfa -24 + ^ r9: .cfa -28 + ^ r8: .cfa -32 + ^
STACK CFI INIT c8e0 320 .cfa: sp 0 +
STACK CFI c8e2 .cfa: sp 20 + .ra: .cfa -4 + ^ r7: .cfa -8 + ^ r6: .cfa -12 + ^ r5: .cfa -16 + ^ r4: .cfa -20 + ^
STACK CFI c8e4 .cfa: r7 8 +
STACK CFI c8e8 r10: .cfa -24 + ^ r9: .cfa -28 + ^ r8: .cfa -32 + ^
STACK CFI INIT cc00 2 .cfa: sp 0 +
STACK CFI INIT cc04 2d0 .cfa: sp 0 +
STACK CFI cc06 .cfa: sp 20 + .ra: .cfa -4 + ^ r7: .cfa -8 + ^ r6: .cfa -12 + ^ r5: .cfa -16 + ^ r4: .cfa -20 + ^
STACK CFI cc08 .cfa: r7 8 +
STACK CFI cc0c r11: .cfa -24 + ^ r10: .cfa -28 + ^ r9: .cfa -32 + ^ r8: .cfa -36 + ^
STACK CFI INIT ced4 a8 .cfa: sp 0 +
STACK CFI ced6 .cfa: sp 20 + .ra: .cfa -4 + ^ r7: .cfa -8 + ^ r6: .cfa -12 + ^ r5: .cfa -16 + ^ r4: .cfa -20 + ^
STACK CFI ced8 .cfa: r7 8 +
STACK CFI cedc r11: .cfa -24 + ^
STACK CFI INIT cf7c 2bc .cfa: sp 0 +
STACK CFI cf7e .cfa: sp 20 + .ra: .cfa -4 + ^ r7: .cfa -8 + ^ r6: .cfa -12 + ^ r5: .cfa -16 + ^ r4: .cfa -20 + ^
STACK CFI cf80 .cfa: r7 8 +
STACK CFI cf84 r11: .cfa -24 + ^ r9: .cfa -28 + ^ r8: .cfa -32 + ^
STACK CFI INIT d238 2 .cfa: sp 0 +
STACK CFI INIT d23c 7c .cfa: sp 0 +
STACK CFI d23e .cfa: sp 16 + .ra: .cfa -4 + ^ r7: .cfa -8 + ^ r6: .cfa -12 + ^ r4: .cfa -16 + ^
STACK CFI d240 .cfa: r7 8 +
STACK CFI INIT d2b8 240 .cfa: sp 0 +
STACK CFI d2ba .cfa: sp 20 + .ra: .cfa -4 + ^ r7: .cfa -8 + ^ r6: .cfa -12 + ^ r5: .cfa -16 + ^ r4: .cfa -20 + ^
STACK CFI d2bc .cfa: r7 8 +
STACK CFI d2c0 r11: .cfa -24 + ^ r10: .cfa -28 + ^ r9: .cfa -32 + ^ r8: .cfa -36 + ^
STACK CFI INIT d4f8 70 .cfa: sp 0 +
STACK CFI d4fa .cfa: sp 16 + .ra: .cfa -4 + ^ r7: .cfa -8 + ^ r6: .cfa -12 + ^ r4: .cfa -16 + ^
STACK CFI d4fc .cfa: r7 8 +
STACK CFI INIT d568 16 .cfa: sp 0 +
STACK CFI d56a .cfa: sp 16 + .ra: .cfa -4 + ^ r7: .cfa -8 + ^ r6: .cfa -12 + ^ r4: .cfa -16 + ^
STACK CFI d56c .cfa: r7 8 +
STACK CFI INIT d580 350 .cfa: sp 0 +
STACK CFI d582 .cfa: sp 20 + .ra: .cfa -4 + ^ r7: .cfa -8 + ^ r6: .cfa -12 + ^ r5: .cfa -16 + ^ r4: .cfa -20 + ^
STACK CFI d584 .cfa: r7 8 +
STACK CFI d588 r10: .cfa -24 + ^ r9: .cfa -28 + ^ r8: .cfa -32 + ^
STACK CFI INIT d8d0 2 .cfa: sp 0 +
STACK CFI INIT d8d4 34c .cfa: sp 0 +
STACK CFI d8d6 .cfa: sp 20 + .ra: .cfa -4 + ^ r7: .cfa -8 + ^ r6: .cfa -12 + ^ r5: .cfa -16 + ^ r4: .cfa -20 + ^
STACK CFI d8d8 .cfa: r7 8 +
STACK CFI d8dc r11: .cfa -24 + ^ r10: .cfa -28 + ^ r9: .cfa -32 + ^ r8: .cfa -36 + ^
STACK CFI INIT dc20 160 .cfa: sp 0 +
STACK CFI dc22 .cfa: sp 20 + .ra: .cfa -4 + ^ r7: .cfa -8 + ^ r6: .cfa -12 + ^ r5: .cfa -16 + ^ r4: .cfa -20 + ^
STACK CFI dc24 .cfa: r7 8 +
STACK CFI dc28 r11: .cfa -24 + ^ r9: .cfa -28 + ^ r8: .cfa -32 + ^
STACK CFI INIT dd80 2d0 .cfa: sp 0 +
STACK CFI dd82 .cfa: sp 20 + .ra: .cfa -4 + ^ r7: .cfa -8 + ^ r6: .cfa -12 + ^ r5: .cfa -16 + ^ r4: .cfa -20 + ^
STACK CFI dd84 .cfa: r7 8 +
STACK CFI dd88 r11: .cfa -24 + ^ r9: .cfa -28 + ^ r8: .cfa -32 + ^
STACK CFI INIT e050 2 .cfa: sp 0 +
STACK CFI INIT e054 7c .cfa: sp 0 +
STACK CFI e056 .cfa: sp 16 + .ra: .cfa -4 + ^ r7: .cfa -8 + ^ r6: .cfa -12 + ^ r4: .cfa -16 + ^
STACK CFI e058 .cfa: r7 8 +
STACK CFI INIT e0d0 274 .cfa: sp 0 +
STACK CFI e0d2 .cfa: sp 20 + .ra: .cfa -4 + ^ r7: .cfa -8 + ^ r6: .cfa -12 + ^ r5: .cfa -16 + ^ r4: .cfa -20 + ^
STACK CFI e0d4 .cfa: r7 8 +
STACK CFI e0d8 r11: .cfa -24 + ^ r10: .cfa -28 + ^ r9: .cfa -32 + ^ r8: .cfa -36 + ^
STACK CFI INIT e344 70 .cfa: sp 0 +
STACK CFI e346 .cfa: sp 16 + .ra: .cfa -4 + ^ r7: .cfa -8 + ^ r6: .cfa -12 + ^ r4: .cfa -16 + ^
STACK CFI e348 .cfa: r7 8 +
STACK CFI INIT e3b4 16 .cfa: sp 0 +
STACK CFI e3b6 .cfa: sp 16 + .ra: .cfa -4 + ^ r7: .cfa -8 + ^ r6: .cfa -12 + ^ r4: .cfa -16 + ^
STACK CFI e3b8 .cfa: r7 8 +
STACK CFI INIT e3d0 300 .cfa: sp 0 +
STACK CFI e3d2 .cfa: sp 20 + .ra: .cfa -4 + ^ r7: .cfa -8 + ^ r6: .cfa -12 + ^ r5: .cfa -16 + ^ r4: .cfa -20 + ^
STACK CFI e3d4 .cfa: r7 8 +
STACK CFI e3d8 r11: .cfa -24 + ^ r9: .cfa -28 + ^ r8: .cfa -32 + ^
STACK CFI INIT e6d0 2 .cfa: sp 0 +
STACK CFI INIT e6d4 37c .cfa: sp 0 +
STACK CFI e6d6 .cfa: sp 20 + .ra: .cfa -4 + ^ r7: .cfa -8 + ^ r6: .cfa -12 + ^ r5: .cfa -16 + ^ r4: .cfa -20 + ^
STACK CFI e6d8 .cfa: r7 8 +
STACK CFI e6dc r11: .cfa -24 + ^ r10: .cfa -28 + ^ r9: .cfa -32 + ^ r8: .cfa -36 + ^
STACK CFI INIT ea50 16 .cfa: sp 0 +
STACK CFI ea52 .cfa: sp 16 + .ra: .cfa -4 + ^ r7: .cfa -8 + ^ r6: .cfa -12 + ^ r4: .cfa -16 + ^
STACK CFI ea54 .cfa: r7 8 +
STACK CFI INIT ea70 320 .cfa: sp 0 +
STACK CFI ea72 .cfa: sp 20 + .ra: .cfa -4 + ^ r7: .cfa -8 + ^ r6: .cfa -12 + ^ r5: .cfa -16 + ^ r4: .cfa -20 + ^
STACK CFI ea74 .cfa: r7 8 +
STACK CFI ea78 r10: .cfa -24 + ^ r9: .cfa -28 + ^ r8: .cfa -32 + ^
STACK CFI INIT ed90 2 .cfa: sp 0 +
STACK CFI INIT ed94 35c .cfa: sp 0 +
STACK CFI ed96 .cfa: sp 20 + .ra: .cfa -4 + ^ r7: .cfa -8 + ^ r6: .cfa -12 + ^ r5: .cfa -16 + ^ r4: .cfa -20 + ^
STACK CFI ed98 .cfa: r7 8 +
STACK CFI ed9c r11: .cfa -24 + ^ r10: .cfa -28 + ^ r9: .cfa -32 + ^ r8: .cfa -36 + ^
STACK CFI INIT f0f0 160 .cfa: sp 0 +
STACK CFI f0f2 .cfa: sp 20 + .ra: .cfa -4 + ^ r7: .cfa -8 + ^ r6: .cfa -12 + ^ r5: .cfa -16 + ^ r4: .cfa -20 + ^
STACK CFI f0f4 .cfa: r7 8 +
STACK CFI f0f8 r11: .cfa -24 + ^ r9: .cfa -28 + ^ r8: .cfa -32 + ^
STACK CFI INIT f250 5a4 .cfa: sp 0 +
STACK CFI f252 .cfa: sp 20 + .ra: .cfa -4 + ^ r7: .cfa -8 + ^ r6: .cfa -12 + ^ r5: .cfa -16 + ^ r4: .cfa -20 + ^
STACK CFI f254 .cfa: r7 8 +
STACK CFI f258 r11: .cfa -24 + ^ r9: .cfa -28 + ^ r8: .cfa -32 + ^
STACK CFI INIT f7f4 2 .cfa: sp 0 +
STACK CFI INIT f7f8 378 .cfa: sp 0 +
STACK CFI f7fa .cfa: sp 20 + .ra: .cfa -4 + ^ r7: .cfa -8 + ^ r6: .cfa -12 + ^ r5: .cfa -16 + ^ r4: .cfa -20 + ^
STACK CFI f7fc .cfa: r7 8 +
STACK CFI f800 r11: .cfa -24 + ^ r10: .cfa -28 + ^ r9: .cfa -32 + ^ r8: .cfa -36 + ^
STACK CFI INIT fb70 7c .cfa: sp 0 +
STACK CFI fb72 .cfa: sp 16 + .ra: .cfa -4 + ^ r7: .cfa -8 + ^ r6: .cfa -12 + ^ r4: .cfa -16 + ^
STACK CFI fb74 .cfa: r7 8 +
STACK CFI INIT fbec 1e0 .cfa: sp 0 +
STACK CFI fbee .cfa: sp 20 + .ra: .cfa -4 + ^ r7: .cfa -8 + ^ r6: .cfa -12 + ^ r5: .cfa -16 + ^ r4: .cfa -20 + ^
STACK CFI fbf0 .cfa: r7 8 +
STACK CFI fbf4 r11: .cfa -24 + ^ r9: .cfa -28 + ^ r8: .cfa -32 + ^
STACK CFI INIT fdcc a4 .cfa: sp 0 +
STACK CFI fdce .cfa: sp 20 + .ra: .cfa -4 + ^ r7: .cfa -8 + ^ r6: .cfa -12 + ^ r5: .cfa -16 + ^ r4: .cfa -20 + ^
STACK CFI fdd0 .cfa: r7 8 +
STACK CFI fdd4 r11: .cfa -24 + ^
STACK CFI INIT 0 20 .cfa: sp 0 +
STACK CFI 2 .cfa: sp 16 + .ra: .cfa -4 + ^ r7: .cfa -8 + ^ r6: .cfa -12 + ^ r4: .cfa -16 + ^
STACK CFI 4 .cfa: r7 8 +
STACK CFI INIT fe70 20 .cfa: sp 0 +
STACK CFI fe72 .cfa: sp 16 + .ra: .cfa -4 + ^ r7: .cfa -8 + ^ r6: .cfa -12 + ^ r4: .cfa -16 + ^
STACK CFI fe74 .cfa: r7 8 +
STACK CFI INIT fe90 b4 .cfa: sp 0 +
STACK CFI fe92 .cfa: sp 16 + .ra: .cfa -4 + ^ r7: .cfa -8 + ^ r6: .cfa -12 + ^ r4: .cfa -16 + ^
STACK CFI fe94 .cfa: r7 8 +
STACK CFI INIT ff44 d0 .cfa: sp 0 +
STACK CFI ff46 .cfa: sp 16 + .ra: .cfa -4 + ^ r7: .cfa -8 + ^ r5: .cfa -12 + ^ r4: .cfa -16 + ^
STACK CFI ff48 .cfa: r7 8 +
STACK CFI INIT 10014 46 .cfa: sp 0 +
STACK CFI 10016 .cfa: sp 16 + .ra: .cfa -4 + ^ r7: .cfa -8 + ^ r5: .cfa -12 + ^ r4: .cfa -16 + ^
STACK CFI 10018 .cfa: r7 8 +
STACK CFI INIT 1005a 10 .cfa: sp 0 +
STACK CFI 1005c .cfa: sp 8 + .ra: .cfa -4 + ^ r7: .cfa -8 + ^
STACK CFI 1005e .cfa: r7 8 +
STACK CFI INIT 1006a 10 .cfa: sp 0 +
STACK CFI 1006c .cfa: sp 8 + .ra: .cfa -4 + ^ r7: .cfa -8 + ^
STACK CFI 1006e .cfa: r7 8 +
STACK CFI INIT 1007a 10 .cfa: sp 0 +
STACK CFI 1007c .cfa: sp 8 + .ra: .cfa -4 + ^ r7: .cfa -8 + ^
STACK CFI 1007e .cfa: r7 8 +
STACK CFI INIT 1008a 10 .cfa: sp 0 +
STACK CFI 1008c .cfa: sp 8 + .ra: .cfa -4 + ^ r7: .cfa -8 + ^
STACK CFI 1008e .cfa: r7 8 +
STACK CFI INIT 1009c 144 .cfa: sp 0 +
STACK CFI 1009e .cfa: sp 20 + .ra: .cfa -4 + ^ r7: .cfa -8 + ^ r6: .cfa -12 + ^ r5: .cfa -16 + ^ r4: .cfa -20 + ^
STACK CFI 100a0 .cfa: r7 8 +
STACK CFI 100a4 r10: .cfa -24 + ^ r9: .cfa -28 + ^ r8: .cfa -32 + ^
STACK CFI INIT 101e0 f8 .cfa: sp 0 +
STACK CFI 101e2 .cfa: sp 20 + .ra: .cfa -4 + ^ r7: .cfa -8 + ^ r6: .cfa -12 + ^ r5: .cfa -16 + ^ r4: .cfa -20 + ^
STACK CFI 101e4 .cfa: r7 8 +
STACK CFI 101e8 r11: .cfa -24 + ^ r9: .cfa -28 + ^ r8: .cfa -32 + ^
STACK CFI INIT 102e0 70 .cfa: sp 0 +
STACK CFI 102e2 .cfa: sp 20 + .ra: .cfa -4 + ^ r7: .cfa -8 + ^ r6: .cfa -12 + ^ r5: .cfa -16 + ^ r4: .cfa -20 + ^
STACK CFI 102e4 .cfa: r7 8 +
STACK CFI 102e8 r11: .cfa -24 + ^
STACK CFI INIT 0 18 .cfa: sp 0 +
STACK CFI 2 .cfa: sp 8 + .ra: .cfa -4 + ^ r7: .cfa -8 + ^
STACK CFI 4 .cfa: r7 8 +
STACK CFI INIT 10350 164 .cfa: sp 0 +
STACK CFI 10352 .cfa: sp 20 + .ra: .cfa -4 + ^ r7: .cfa -8 + ^ r6: .cfa -12 + ^ r5: .cfa -16 + ^ r4: .cfa -20 + ^
STACK CFI 10354 .cfa: r7 8 +
STACK CFI 10358 r11: .cfa -24 + ^ r10: .cfa -28 + ^ r9: .cfa -32 + ^ r8: .cfa -36 + ^
STACK CFI INIT 104b4 4 .cfa: sp 0 +
STACK CFI INIT 104b8 2 .cfa: sp 0 +
STACK CFI INIT 104ba 2 .cfa: sp 0 +
STACK CFI INIT 104bc 4 .cfa: sp 0 +
STACK CFI INIT 104c0 2 .cfa: sp 0 +
STACK CFI INIT 104c2 4 .cfa: sp 0 +
STACK CFI INIT 104c6 6 .cfa: sp 0 +
STACK CFI INIT 104cc a .cfa: sp 0 +
STACK CFI INIT 104d6 6 .cfa: sp 0 +
STACK CFI INIT 104dc 6 .cfa: sp 0 +
STACK CFI INIT 104e2 6 .cfa: sp 0 +
STACK CFI INIT 104e8 a .cfa: sp 0 +
STACK CFI INIT 104f4 334 .cfa: sp 0 +
STACK CFI 104f6 .cfa: sp 20 + .ra: .cfa -4 + ^ r7: .cfa -8 + ^ r6: .cfa -12 + ^ r5: .cfa -16 + ^ r4: .cfa -20 + ^
STACK CFI 104f8 .cfa: r7 8 +
STACK CFI 104fc r11: .cfa -24 + ^ r10: .cfa -28 + ^ r9: .cfa -32 + ^ r8: .cfa -36 + ^
STACK CFI INIT 10828 130 .cfa: sp 0 +
STACK CFI 1082a .cfa: sp 20 + .ra: .cfa -4 + ^ r7: .cfa -8 + ^ r6: .cfa -12 + ^ r5: .cfa -16 + ^ r4: .cfa -20 + ^
STACK CFI 1082c .cfa: r7 8 +
STACK CFI 10830 r11: .cfa -24 + ^ r9: .cfa -28 + ^ r8: .cfa -32 + ^
STACK CFI INIT 10958 3ea .cfa: sp 0 +
STACK CFI 1095a .cfa: sp 20 + .ra: .cfa -4 + ^ r7: .cfa -8 + ^ r6: .cfa -12 + ^ r5: .cfa -16 + ^ r4: .cfa -20 + ^
STACK CFI 1095c .cfa: r7 8 +
STACK CFI 10960 r11: .cfa -24 + ^ r10: .cfa -28 + ^ r9: .cfa -32 + ^ r8: .cfa -36 + ^
STACK CFI INIT 10d44 38 .cfa: sp 0 +
STACK CFI 10d46 .cfa: sp 16 + .ra: .cfa -4 + ^ r7: .cfa -8 + ^ r5: .cfa -12 + ^ r4: .cfa -16 + ^
STACK CFI 10d48 .cfa: r7 8 +
STACK CFI INIT 10d7c 18 .cfa: sp 0 +
STACK CFI 10d7e .cfa: sp 8 + .ra: .cfa -4 + ^ r7: .cfa -8 + ^
STACK CFI 10d80 .cfa: r7 8 +
STACK CFI INIT 10d94 1cc .cfa: sp 0 +
STACK CFI 10d96 .cfa: sp 20 + .ra: .cfa -4 + ^ r7: .cfa -8 + ^ r6: .cfa -12 + ^ r5: .cfa -16 + ^ r4: .cfa -20 + ^
STACK CFI 10d98 .cfa: r7 8 +
STACK CFI 10d9c r11: .cfa -24 + ^ r10: .cfa -28 + ^ r9: .cfa -32 + ^ r8: .cfa -36 + ^
STACK CFI INIT 10f60 44 .cfa: sp 0 +
STACK CFI 10f62 .cfa: sp 16 + .ra: .cfa -4 + ^ r7: .cfa -8 + ^ r6: .cfa -12 + ^ r4: .cfa -16 + ^
STACK CFI 10f64 .cfa: r7 8 +
STACK CFI INIT 10fa4 420 .cfa: sp 0 +
STACK CFI 10fa6 .cfa: sp 20 + .ra: .cfa -4 + ^ r7: .cfa -8 + ^ r6: .cfa -12 + ^ r5: .cfa -16 + ^ r4: .cfa -20 + ^
STACK CFI 10fa8 .cfa: r7 8 +
STACK CFI 10fac r11: .cfa -24 + ^ r10: .cfa -28 + ^ r9: .cfa -32 + ^ r8: .cfa -36 + ^
STACK CFI INIT 113c4 30 .cfa: sp 0 +
STACK CFI 113c6 .cfa: sp 16 + .ra: .cfa -4 + ^ r7: .cfa -8 + ^ r6: .cfa -12 + ^ r4: .cfa -16 + ^
STACK CFI 113c8 .cfa: r7 8 +
STACK CFI INIT 113f4 c4 .cfa: sp 0 +
STACK CFI 113f6 .cfa: sp 20 + .ra: .cfa -4 + ^ r7: .cfa -8 + ^ r6: .cfa -12 + ^ r5: .cfa -16 + ^ r4: .cfa -20 + ^
STACK CFI 113f8 .cfa: r7 8 +
STACK CFI 113fc r11: .cfa -24 + ^ r9: .cfa -28 + ^ r8: .cfa -32 + ^
STACK CFI INIT 114b8 1ac .cfa: sp 0 +
STACK CFI 114ba .cfa: sp 20 + .ra: .cfa -4 + ^ r7: .cfa -8 + ^ r6: .cfa -12 + ^ r5: .cfa -16 + ^ r4: .cfa -20 + ^
STACK CFI 114bc .cfa: r7 8 +
STACK CFI 114c0 r11: .cfa -24 + ^ r10: .cfa -28 + ^ r9: .cfa -32 + ^ r8: .cfa -36 + ^
STACK CFI INIT 11664 29c .cfa: sp 0 +
STACK CFI 11666 .cfa: sp 20 + .ra: .cfa -4 + ^ r7: .cfa -8 + ^ r6: .cfa -12 + ^ r5: .cfa -16 + ^ r4: .cfa -20 + ^
STACK CFI 11668 .cfa: r7 8 +
STACK CFI 1166c r10: .cfa -24 + ^ r9: .cfa -28 + ^ r8: .cfa -32 + ^
STACK CFI INIT 11900 228 .cfa: sp 0 +
STACK CFI 11902 .cfa: sp 20 + .ra: .cfa -4 + ^ r7: .cfa -8 + ^ r6: .cfa -12 + ^ r5: .cfa -16 + ^ r4: .cfa -20 + ^
STACK CFI 11904 .cfa: r7 8 +
STACK CFI 11908 r11: .cfa -24 + ^
STACK CFI INIT 11b28 384 .cfa: sp 0 +
STACK CFI 11b2a .cfa: sp 20 + .ra: .cfa -4 + ^ r7: .cfa -8 + ^ r6: .cfa -12 + ^ r5: .cfa -16 + ^ r4: .cfa -20 + ^
STACK CFI 11b2c .cfa: r7 8 +
STACK CFI 11b30 r11: .cfa -24 + ^ r10: .cfa -28 + ^ r9: .cfa -32 + ^ r8: .cfa -36 + ^
STACK CFI INIT 11eac 880 .cfa: sp 0 +
STACK CFI 11eae .cfa: sp 20 + .ra: .cfa -4 + ^ r7: .cfa -8 + ^ r6: .cfa -12 + ^ r5: .cfa -16 + ^ r4: .cfa -20 + ^
STACK CFI 11eb0 .cfa: r7 8 +
STACK CFI 11eb4 r11: .cfa -24 + ^ r10: .cfa -28 + ^ r9: .cfa -32 + ^ r8: .cfa -36 + ^
STACK CFI INIT 1272c 10 .cfa: sp 0 +
STACK CFI 1272e .cfa: sp 8 + .ra: .cfa -4 + ^ r7: .cfa -8 + ^
STACK CFI 12730 .cfa: r7 8 +
STACK CFI INIT 1273c 98 .cfa: sp 0 +
STACK CFI 1273e .cfa: sp 20 + .ra: .cfa -4 + ^ r7: .cfa -8 + ^ r6: .cfa -12 + ^ r5: .cfa -16 + ^ r4: .cfa -20 + ^
STACK CFI 12740 .cfa: r7 8 +
STACK CFI 12744 r10: .cfa -24 + ^ r9: .cfa -28 + ^ r8: .cfa -32 + ^
STACK CFI INIT 127d4 48 .cfa: sp 0 +
STACK CFI 127d6 .cfa: sp 16 + .ra: .cfa -4 + ^ r7: .cfa -8 + ^ r6: .cfa -12 + ^ r4: .cfa -16 + ^
STACK CFI 127d8 .cfa: r7 8 +
STACK CFI INIT 1281c 54 .cfa: sp 0 +
STACK CFI 1281e .cfa: sp 8 + .ra: .cfa -4 + ^ r7: .cfa -8 + ^
STACK CFI 12820 .cfa: r7 8 +
STACK CFI INIT 12870 2c .cfa: sp 0 +
STACK CFI 12872 .cfa: sp 16 + .ra: .cfa -4 + ^ r7: .cfa -8 + ^ r5: .cfa -12 + ^ r4: .cfa -16 + ^
STACK CFI 12874 .cfa: r7 8 +
STACK CFI INIT 1289c 70 .cfa: sp 0 +
STACK CFI 1289e .cfa: sp 8 + .ra: .cfa -4 + ^ r7: .cfa -8 + ^
STACK CFI 128a0 .cfa: r7 8 +
STACK CFI INIT 1290c 198 .cfa: sp 0 +
STACK CFI 1290e .cfa: sp 20 + .ra: .cfa -4 + ^ r7: .cfa -8 + ^ r6: .cfa -12 + ^ r5: .cfa -16 + ^ r4: .cfa -20 + ^
STACK CFI 12910 .cfa: r7 8 +
STACK CFI 12914 r11: .cfa -24 + ^ r9: .cfa -28 + ^ r8: .cfa -32 + ^
STACK CFI INIT 12aa4 a6 .cfa: sp 0 +
STACK CFI 12aa6 .cfa: sp 20 + .ra: .cfa -4 + ^ r7: .cfa -8 + ^ r6: .cfa -12 + ^ r5: .cfa -16 + ^ r4: .cfa -20 + ^
STACK CFI 12aa8 .cfa: r7 8 +
STACK CFI 12aac r10: .cfa -24 + ^ r9: .cfa -28 + ^ r8: .cfa -32 + ^
STACK CFI INIT 12b4c 160 .cfa: sp 0 +
STACK CFI 12b4e .cfa: sp 20 + .ra: .cfa -4 + ^ r7: .cfa -8 + ^ r6: .cfa -12 + ^ r5: .cfa -16 + ^ r4: .cfa -20 + ^
STACK CFI 12b50 .cfa: r7 8 +
STACK CFI 12b54 r8: .cfa -24 + ^
STACK CFI INIT 12cac 214 .cfa: sp 0 +
STACK CFI 12cae .cfa: sp 20 + .ra: .cfa -4 + ^ r7: .cfa -8 + ^ r6: .cfa -12 + ^ r5: .cfa -16 + ^ r4: .cfa -20 + ^
STACK CFI 12cb0 .cfa: r7 8 +
STACK CFI 12cb4 r11: .cfa -24 + ^ r10: .cfa -28 + ^ r9: .cfa -32 + ^ r8: .cfa -36 + ^
STACK CFI INIT 12ec0 1e0 .cfa: sp 0 +
STACK CFI 12ec2 .cfa: sp 20 + .ra: .cfa -4 + ^ r7: .cfa -8 + ^ r6: .cfa -12 + ^ r5: .cfa -16 + ^ r4: .cfa -20 + ^
STACK CFI 12ec4 .cfa: r7 8 +
STACK CFI 12ec8 r11: .cfa -24 + ^ r10: .cfa -28 + ^ r9: .cfa -32 + ^ r8: .cfa -36 + ^
STACK CFI INIT 130a0 174 .cfa: sp 0 +
STACK CFI 130a2 .cfa: sp 20 + .ra: .cfa -4 + ^ r7: .cfa -8 + ^ r6: .cfa -12 + ^ r5: .cfa -16 + ^ r4: .cfa -20 + ^
STACK CFI 130a4 .cfa: r7 8 +
STACK CFI 130a8 r11: .cfa -24 + ^ r10: .cfa -28 + ^ r9: .cfa -32 + ^ r8: .cfa -36 + ^
STACK CFI INIT 13214 954 .cfa: sp 0 +
STACK CFI 13216 .cfa: sp 20 + .ra: .cfa -4 + ^ r7: .cfa -8 + ^ r6: .cfa -12 + ^ r5: .cfa -16 + ^ r4: .cfa -20 + ^
STACK CFI 13218 .cfa: r7 8 +
STACK CFI 1321c r11: .cfa -24 + ^ r10: .cfa -28 + ^ r9: .cfa -32 + ^ r8: .cfa -36 + ^
STACK CFI INIT 13b68 fe .cfa: sp 0 +
STACK CFI 13b6a .cfa: sp 20 + .ra: .cfa -4 + ^ r7: .cfa -8 + ^ r6: .cfa -12 + ^ r5: .cfa -16 + ^ r4: .cfa -20 + ^
STACK CFI 13b6c .cfa: r7 8 +
STACK CFI 13b70 r11: .cfa -24 + ^ r10: .cfa -28 + ^ r9: .cfa -32 + ^ r8: .cfa -36 + ^
STACK CFI INIT 13c68 16c .cfa: sp 0 +
STACK CFI 13c6a .cfa: sp 20 + .ra: .cfa -4 + ^ r7: .cfa -8 + ^ r6: .cfa -12 + ^ r5: .cfa -16 + ^ r4: .cfa -20 + ^
STACK CFI 13c6c .cfa: r7 8 +
STACK CFI 13c70 r11: .cfa -24 + ^ r9: .cfa -28 + ^ r8: .cfa -32 + ^
STACK CFI INIT 13dd4 224 .cfa: sp 0 +
STACK CFI 13dd6 .cfa: sp 20 + .ra: .cfa -4 + ^ r7: .cfa -8 + ^ r6: .cfa -12 + ^ r5: .cfa -16 + ^ r4: .cfa -20 + ^
STACK CFI 13dd8 .cfa: r7 8 +
STACK CFI 13ddc r8: .cfa -24 + ^
STACK CFI INIT 13ff8 e8 .cfa: sp 0 +
STACK CFI 13ffa .cfa: sp 20 + .ra: .cfa -4 + ^ r7: .cfa -8 + ^ r6: .cfa -12 + ^ r5: .cfa -16 + ^ r4: .cfa -20 + ^
STACK CFI 13ffc .cfa: r7 8 +
STACK CFI 14000 r8: .cfa -24 + ^
STACK CFI INIT 140e0 e4 .cfa: sp 0 +
STACK CFI 140e2 .cfa: sp 20 + .ra: .cfa -4 + ^ r7: .cfa -8 + ^ r6: .cfa -12 + ^ r5: .cfa -16 + ^ r4: .cfa -20 + ^
STACK CFI 140e4 .cfa: r7 8 +
STACK CFI 140e8 r8: .cfa -24 + ^
STACK CFI INIT 141d0 884 .cfa: sp 0 +
STACK CFI 141d2 .cfa: sp 20 + .ra: .cfa -4 + ^ r7: .cfa -8 + ^ r6: .cfa -12 + ^ r5: .cfa -16 + ^ r4: .cfa -20 + ^
STACK CFI 141d4 .cfa: r7 8 +
STACK CFI 141d8 r11: .cfa -24 + ^ r10: .cfa -28 + ^ r9: .cfa -32 + ^ r8: .cfa -36 + ^
STACK CFI INIT 14a54 138 .cfa: sp 0 +
STACK CFI 14a56 .cfa: sp 20 + .ra: .cfa -4 + ^ r7: .cfa -8 + ^ r6: .cfa -12 + ^ r5: .cfa -16 + ^ r4: .cfa -20 + ^
STACK CFI 14a58 .cfa: r7 8 +
STACK CFI 14a5c r11: .cfa -24 + ^ r10: .cfa -28 + ^ r9: .cfa -32 + ^ r8: .cfa -36 + ^
STACK CFI INIT 14b8c d4 .cfa: sp 0 +
STACK CFI 14b8e .cfa: sp 20 + .ra: .cfa -4 + ^ r7: .cfa -8 + ^ r6: .cfa -12 + ^ r5: .cfa -16 + ^ r4: .cfa -20 + ^
STACK CFI 14b90 .cfa: r7 8 +
STACK CFI 14b94 r11: .cfa -24 + ^
STACK CFI INIT 14c60 194 .cfa: sp 0 +
STACK CFI 14c62 .cfa: sp 20 + .ra: .cfa -4 + ^ r7: .cfa -8 + ^ r6: .cfa -12 + ^ r5: .cfa -16 + ^ r4: .cfa -20 + ^
STACK CFI 14c64 .cfa: r7 8 +
STACK CFI 14c68 r8: .cfa -24 + ^
STACK CFI INIT 14df4 22 .cfa: sp 0 +
STACK CFI 14df6 .cfa: sp 16 + .ra: .cfa -4 + ^ r7: .cfa -8 + ^ r6: .cfa -12 + ^ r4: .cfa -16 + ^
STACK CFI 14df8 .cfa: r7 8 +
STACK CFI INIT 14e18 110 .cfa: sp 0 +
STACK CFI 14e1a .cfa: sp 20 + .ra: .cfa -4 + ^ r7: .cfa -8 + ^ r6: .cfa -12 + ^ r5: .cfa -16 + ^ r4: .cfa -20 + ^
STACK CFI 14e1c .cfa: r7 8 +
STACK CFI 14e20 r10: .cfa -24 + ^ r9: .cfa -28 + ^ r8: .cfa -32 + ^
STACK CFI INIT 14f28 144 .cfa: sp 0 +
STACK CFI 14f2a .cfa: sp 20 + .ra: .cfa -4 + ^ r7: .cfa -8 + ^ r6: .cfa -12 + ^ r5: .cfa -16 + ^ r4: .cfa -20 + ^
STACK CFI 14f2c .cfa: r7 8 +
STACK CFI 14f30 r11: .cfa -24 + ^ r9: .cfa -28 + ^ r8: .cfa -32 + ^
STACK CFI INIT 1506c 66 .cfa: sp 0 +
STACK CFI 1506e .cfa: sp 20 + .ra: .cfa -4 + ^ r7: .cfa -8 + ^ r6: .cfa -12 + ^ r5: .cfa -16 + ^ r4: .cfa -20 + ^
STACK CFI 15070 .cfa: r7 8 +
STACK CFI 15074 r11: .cfa -24 + ^ r9: .cfa -28 + ^ r8: .cfa -32 + ^
STACK CFI INIT 150d2 a6 .cfa: sp 0 +
STACK CFI 150d4 .cfa: sp 20 + .ra: .cfa -4 + ^ r7: .cfa -8 + ^ r6: .cfa -12 + ^ r5: .cfa -16 + ^ r4: .cfa -20 + ^
STACK CFI 150d6 .cfa: r7 8 +
STACK CFI 150da r10: .cfa -24 + ^ r9: .cfa -28 + ^ r8: .cfa -32 + ^
STACK CFI INIT 15178 22c .cfa: sp 0 +
STACK CFI 1517a .cfa: sp 20 + .ra: .cfa -4 + ^ r7: .cfa -8 + ^ r6: .cfa -12 + ^ r5: .cfa -16 + ^ r4: .cfa -20 + ^
STACK CFI 1517c .cfa: r7 8 +
STACK CFI 15180 r11: .cfa -24 + ^ r10: .cfa -28 + ^ r9: .cfa -32 + ^ r8: .cfa -36 + ^
STACK CFI INIT 153a4 b8 .cfa: sp 0 +
STACK CFI 153a6 .cfa: sp 20 + .ra: .cfa -4 + ^ r7: .cfa -8 + ^ r6: .cfa -12 + ^ r5: .cfa -16 + ^ r4: .cfa -20 + ^
STACK CFI 153a8 .cfa: r7 8 +
STACK CFI 153ac r10: .cfa -24 + ^ r9: .cfa -28 + ^ r8: .cfa -32 + ^
STACK CFI INIT 15460 e4 .cfa: sp 0 +
STACK CFI 15462 .cfa: sp 20 + .ra: .cfa -4 + ^ r7: .cfa -8 + ^ r6: .cfa -12 + ^ r5: .cfa -16 + ^ r4: .cfa -20 + ^
STACK CFI 15464 .cfa: r7 8 +
STACK CFI 15468 r11: .cfa -24 + ^
STACK CFI INIT 15544 94c .cfa: sp 0 +
STACK CFI 15546 .cfa: sp 20 + .ra: .cfa -4 + ^ r7: .cfa -8 + ^ r6: .cfa -12 + ^ r5: .cfa -16 + ^ r4: .cfa -20 + ^
STACK CFI 15548 .cfa: r7 8 +
STACK CFI 1554c r11: .cfa -24 + ^ r10: .cfa -28 + ^ r9: .cfa -32 + ^ r8: .cfa -36 + ^
STACK CFI INIT 15e90 dc .cfa: sp 0 +
STACK CFI 15e92 .cfa: sp 20 + .ra: .cfa -4 + ^ r7: .cfa -8 + ^ r6: .cfa -12 + ^ r5: .cfa -16 + ^ r4: .cfa -20 + ^
STACK CFI 15e94 .cfa: r7 8 +
STACK CFI 15e98 r11: .cfa -24 + ^
STACK CFI INIT 15f6c 19c .cfa: sp 0 +
STACK CFI 15f6e .cfa: sp 20 + .ra: .cfa -4 + ^ r7: .cfa -8 + ^ r6: .cfa -12 + ^ r5: .cfa -16 + ^ r4: .cfa -20 + ^
STACK CFI 15f70 .cfa: r7 8 +
STACK CFI 15f74 r11: .cfa -24 + ^ r10: .cfa -28 + ^ r9: .cfa -32 + ^ r8: .cfa -36 + ^
STACK CFI INIT 16110 e4 .cfa: sp 0 +
STACK CFI 16112 .cfa: sp 20 + .ra: .cfa -4 + ^ r7: .cfa -8 + ^ r6: .cfa -12 + ^ r5: .cfa -16 + ^ r4: .cfa -20 + ^
STACK CFI 16114 .cfa: r7 8 +
STACK CFI 16118 r11: .cfa -24 + ^
STACK CFI INIT 161f4 a6 .cfa: sp 0 +
STACK CFI 161f6 .cfa: sp 20 + .ra: .cfa -4 + ^ r7: .cfa -8 + ^ r6: .cfa -12 + ^ r5: .cfa -16 + ^ r4: .cfa -20 + ^
STACK CFI 161f8 .cfa: r7 8 +
STACK CFI 161fc r10: .cfa -24 + ^ r9: .cfa -28 + ^ r8: .cfa -32 + ^
STACK CFI INIT 1629c 11c .cfa: sp 0 +
STACK CFI 1629e .cfa: sp 20 + .ra: .cfa -4 + ^ r7: .cfa -8 + ^ r6: .cfa -12 + ^ r5: .cfa -16 + ^ r4: .cfa -20 + ^
STACK CFI 162a0 .cfa: r7 8 +
STACK CFI 162a4 r10: .cfa -24 + ^ r9: .cfa -28 + ^ r8: .cfa -32 + ^
STACK CFI INIT 163b8 1724 .cfa: sp 0 +
STACK CFI 163ba .cfa: sp 20 + .ra: .cfa -4 + ^ r7: .cfa -8 + ^ r6: .cfa -12 + ^ r5: .cfa -16 + ^ r4: .cfa -20 + ^
STACK CFI 163bc .cfa: r7 8 +
STACK CFI 163c0 r11: .cfa -24 + ^ r10: .cfa -28 + ^ r9: .cfa -32 + ^ r8: .cfa -36 + ^
STACK CFI INIT 17adc 1c4 .cfa: sp 0 +
STACK CFI 17ade .cfa: sp 20 + .ra: .cfa -4 + ^ r7: .cfa -8 + ^ r6: .cfa -12 + ^ r5: .cfa -16 + ^ r4: .cfa -20 + ^
STACK CFI 17ae0 .cfa: r7 8 +
STACK CFI 17ae4 r8: .cfa -24 + ^
STACK CFI INIT 17ca0 106 .cfa: sp 0 +
STACK CFI 17ca2 .cfa: sp 20 + .ra: .cfa -4 + ^ r7: .cfa -8 + ^ r6: .cfa -12 + ^ r5: .cfa -16 + ^ r4: .cfa -20 + ^
STACK CFI 17ca4 .cfa: r7 8 +
STACK CFI 17ca8 r11: .cfa -24 + ^ r10: .cfa -28 + ^ r9: .cfa -32 + ^ r8: .cfa -36 + ^
STACK CFI INIT 17da8 a7c .cfa: sp 0 +
STACK CFI 17daa .cfa: sp 20 + .ra: .cfa -4 + ^ r7: .cfa -8 + ^ r6: .cfa -12 + ^ r5: .cfa -16 + ^ r4: .cfa -20 + ^
STACK CFI 17dac .cfa: r7 8 +
STACK CFI 17db0 r11: .cfa -24 + ^ r10: .cfa -28 + ^ r9: .cfa -32 + ^ r8: .cfa -36 + ^
STACK CFI INIT 18824 3e8 .cfa: sp 0 +
STACK CFI 18826 .cfa: sp 20 + .ra: .cfa -4 + ^ r7: .cfa -8 + ^ r6: .cfa -12 + ^ r5: .cfa -16 + ^ r4: .cfa -20 + ^
STACK CFI 18828 .cfa: r7 8 +
STACK CFI 1882c r11: .cfa -24 + ^ r10: .cfa -28 + ^ r9: .cfa -32 + ^ r8: .cfa -36 + ^
STACK CFI INIT 18c0c ed4 .cfa: sp 0 +
STACK CFI 18c0e .cfa: sp 20 + .ra: .cfa -4 + ^ r7: .cfa -8 + ^ r6: .cfa -12 + ^ r5: .cfa -16 + ^ r4: .cfa -20 + ^
STACK CFI 18c10 .cfa: r7 8 +
STACK CFI 18c14 r11: .cfa -24 + ^ r10: .cfa -28 + ^ r9: .cfa -32 + ^ r8: .cfa -36 + ^
STACK CFI INIT 19ae0 104 .cfa: sp 0 +
STACK CFI 19ae2 .cfa: sp 20 + .ra: .cfa -4 + ^ r7: .cfa -8 + ^ r6: .cfa -12 + ^ r5: .cfa -16 + ^ r4: .cfa -20 + ^
STACK CFI 19ae4 .cfa: r7 8 +
STACK CFI 19ae8 r11: .cfa -24 + ^ r10: .cfa -28 + ^ r9: .cfa -32 + ^ r8: .cfa -36 + ^
STACK CFI INIT 19be4 c6 .cfa: sp 0 +
STACK CFI 19c02 .cfa: sp 20 + .ra: .cfa -4 + ^ r7: .cfa -8 + ^ r6: .cfa -12 + ^ r5: .cfa -16 + ^ r4: .cfa -20 + ^
STACK CFI 19c04 .cfa: r7 8 +
STACK CFI 19c08 r8: .cfa -24 + ^
STACK CFI INIT 19cac 47c .cfa: sp 0 +
STACK CFI 19cae .cfa: sp 20 + .ra: .cfa -4 + ^ r7: .cfa -8 + ^ r6: .cfa -12 + ^ r5: .cfa -16 + ^ r4: .cfa -20 + ^
STACK CFI 19cb0 .cfa: r7 8 +
STACK CFI 19cb4 r11: .cfa -24 + ^ r10: .cfa -28 + ^ r9: .cfa -32 + ^ r8: .cfa -36 + ^
STACK CFI INIT 1a128 280 .cfa: sp 0 +
STACK CFI 1a12a .cfa: sp 20 + .ra: .cfa -4 + ^ r7: .cfa -8 + ^ r6: .cfa -12 + ^ r5: .cfa -16 + ^ r4: .cfa -20 + ^
STACK CFI 1a12c .cfa: r7 8 +
STACK CFI 1a130 r11: .cfa -24 + ^ r10: .cfa -28 + ^ r9: .cfa -32 + ^ r8: .cfa -36 + ^
STACK CFI INIT 1a3a8 b8 .cfa: sp 0 +
STACK CFI 1a3aa .cfa: sp 20 + .ra: .cfa -4 + ^ r7: .cfa -8 + ^ r6: .cfa -12 + ^ r5: .cfa -16 + ^ r4: .cfa -20 + ^
STACK CFI 1a3ac .cfa: r7 8 +
STACK CFI 1a3b0 r10: .cfa -24 + ^ r9: .cfa -28 + ^ r8: .cfa -32 + ^
STACK CFI INIT 1a460 93c .cfa: sp 0 +
STACK CFI 1a462 .cfa: sp 20 + .ra: .cfa -4 + ^ r7: .cfa -8 + ^ r6: .cfa -12 + ^ r5: .cfa -16 + ^ r4: .cfa -20 + ^
STACK CFI 1a464 .cfa: r7 8 +
STACK CFI 1a468 r11: .cfa -24 + ^ r10: .cfa -28 + ^ r9: .cfa -32 + ^ r8: .cfa -36 + ^
STACK CFI INIT 1ad9c d8 .cfa: sp 0 +
STACK CFI 1ad9e .cfa: sp 20 + .ra: .cfa -4 + ^ r7: .cfa -8 + ^ r6: .cfa -12 + ^ r5: .cfa -16 + ^ r4: .cfa -20 + ^
STACK CFI 1ada0 .cfa: r7 8 +
STACK CFI 1ada4 r10: .cfa -24 + ^ r9: .cfa -28 + ^ r8: .cfa -32 + ^
STACK CFI INIT 1ae74 6c4 .cfa: sp 0 +
STACK CFI 1ae76 .cfa: sp 20 + .ra: .cfa -4 + ^ r7: .cfa -8 + ^ r6: .cfa -12 + ^ r5: .cfa -16 + ^ r4: .cfa -20 + ^
STACK CFI 1ae78 .cfa: r7 8 +
STACK CFI 1ae7c r11: .cfa -24 + ^ r10: .cfa -28 + ^ r9: .cfa -32 + ^ r8: .cfa -36 + ^
STACK CFI INIT 1b538 124 .cfa: sp 0 +
STACK CFI 1b53a .cfa: sp 20 + .ra: .cfa -4 + ^ r7: .cfa -8 + ^ r6: .cfa -12 + ^ r5: .cfa -16 + ^ r4: .cfa -20 + ^
STACK CFI 1b53c .cfa: r7 8 +
STACK CFI 1b540 r11: .cfa -24 + ^ r10: .cfa -28 + ^ r9: .cfa -32 + ^ r8: .cfa -36 + ^
STACK CFI INIT 1b660 1e4 .cfa: sp 0 +
STACK CFI 1b662 .cfa: sp 20 + .ra: .cfa -4 + ^ r7: .cfa -8 + ^ r6: .cfa -12 + ^ r5: .cfa -16 + ^ r4: .cfa -20 + ^
STACK CFI 1b664 .cfa: r7 8 +
STACK CFI 1b668 r11: .cfa -24 + ^ r10: .cfa -28 + ^ r9: .cfa -32 + ^ r8: .cfa -36 + ^
STACK CFI INIT 1b844 4d4 .cfa: sp 0 +
STACK CFI 1b846 .cfa: sp 20 + .ra: .cfa -4 + ^ r7: .cfa -8 + ^ r6: .cfa -12 + ^ r5: .cfa -16 + ^ r4: .cfa -20 + ^
STACK CFI 1b848 .cfa: r7 8 +
STACK CFI 1b84c r11: .cfa -24 + ^ r10: .cfa -28 + ^ r9: .cfa -32 + ^ r8: .cfa -36 + ^
