MODULE Linux arm64 22406F78137B77E6EF97230834CF1CBF0 ninsam.to-do_list.android64.so
INFO CODE_ID 786F40227B13E677EF97230834CF1CBFFE38D97D
INFO GENERATOR mozilla/dump_syms 2.3.4
PUBLIC 32ed0 0 __on_dlclose
PUBLIC 32ee0 0 __emutls_unregister_key
PUBLIC 32ee8 0 __on_dlclose_late
PUBLIC 32ef0 0 __atexit_handler_wrapper
PUBLIC 32f04 0 atexit
PUBLIC 32f20 0 pthread_atfork
PUBLIC 32f30 0 unwind_phase2
PUBLIC 33064 0 _Unwind_Resume
PUBLIC 330e8 0 unwind_phase2_forced
PUBLIC m 331dc 0 __unw_init_local
PUBLIC m 33284 0 __unw_get_reg
PUBLIC 33300 0 __unw_step_stage2
PUBLIC m 33314 0 __unw_get_proc_info
PUBLIC m 33354 0 __unw_resume
PUBLIC 3337c 0 libunwind::CFI_Parser<libunwind::LocalAddressSpace>::decodeFDE(libunwind::LocalAddressSpace&, unsigned long, libunwind::CFI_Parser<libunwind::LocalAddressSpace>::FDE_Info*, libunwind::CFI_Parser<libunwind::LocalAddressSpace>::CIE_Info*, bool)
PUBLIC 3350c 0 libunwind::CFI_Parser<libunwind::LocalAddressSpace>::parseCIE(libunwind::LocalAddressSpace&, unsigned long, libunwind::CFI_Parser<libunwind::LocalAddressSpace>::CIE_Info*)
PUBLIC 337d4 0 libunwind::AbstractUnwindCursor::~AbstractUnwindCursor()
PUBLIC 337dc 0 libunwind::UnwindCursor<libunwind::LocalAddressSpace, libunwind::Registers_arm64>::~UnwindCursor()
PUBLIC 337e4 0 libunwind::UnwindCursor<libunwind::LocalAddressSpace, libunwind::Registers_arm64>::validReg(int)
PUBLIC 33828 0 libunwind::UnwindCursor<libunwind::LocalAddressSpace, libunwind::Registers_arm64>::getReg(int)
PUBLIC 33910 0 libunwind::UnwindCursor<libunwind::LocalAddressSpace, libunwind::Registers_arm64>::setReg(int, unsigned long)
PUBLIC 339f8 0 libunwind::UnwindCursor<libunwind::LocalAddressSpace, libunwind::Registers_arm64>::validFloatReg(int)
PUBLIC 33a0c 0 libunwind::UnwindCursor<libunwind::LocalAddressSpace, libunwind::Registers_arm64>::getFloatReg(int)
PUBLIC 33a1c 0 libunwind::UnwindCursor<libunwind::LocalAddressSpace, libunwind::Registers_arm64>::setFloatReg(int, double)
PUBLIC 33a2c 0 libunwind::UnwindCursor<libunwind::LocalAddressSpace, libunwind::Registers_arm64>::step(bool)
PUBLIC 33b1c 0 libunwind::UnwindCursor<libunwind::LocalAddressSpace, libunwind::Registers_arm64>::getInfo(unw_proc_info_t*)
PUBLIC 33b60 0 libunwind::UnwindCursor<libunwind::LocalAddressSpace, libunwind::Registers_arm64>::jumpto()
PUBLIC 33b6c 0 libunwind::UnwindCursor<libunwind::LocalAddressSpace, libunwind::Registers_arm64>::isSignalFrame()
PUBLIC 33b78 0 libunwind::UnwindCursor<libunwind::LocalAddressSpace, libunwind::Registers_arm64>::getFunctionName(char*, unsigned long, unsigned long*)
PUBLIC 33ba4 0 libunwind::UnwindCursor<libunwind::LocalAddressSpace, libunwind::Registers_arm64>::setInfoBasedOnIPRegister(bool)
PUBLIC 33de0 0 libunwind::UnwindCursor<libunwind::LocalAddressSpace, libunwind::Registers_arm64>::getRegisterName(int)
PUBLIC 33dec 0 libunwind::UnwindCursor<libunwind::LocalAddressSpace, libunwind::Registers_arm64>::stepThroughSigReturn(libunwind::Registers_arm64&)
PUBLIC 33f0c 0 libunwind::DwarfInstructions<libunwind::LocalAddressSpace, libunwind::Registers_arm64>::stepWithDwarf(libunwind::LocalAddressSpace&, unsigned long, unsigned long, libunwind::Registers_arm64&, bool&, bool)
PUBLIC 343a0 0 libunwind::CFI_Parser<libunwind::LocalAddressSpace>::parseFDEInstructions(libunwind::LocalAddressSpace&, libunwind::CFI_Parser<libunwind::LocalAddressSpace>::FDE_Info const&, libunwind::CFI_Parser<libunwind::LocalAddressSpace>::CIE_Info const&, unsigned long, int, libunwind::CFI_Parser<libunwind::LocalAddressSpace>::PrologInfo*)
PUBLIC 34f18 0 libunwind::DwarfInstructions<libunwind::LocalAddressSpace, libunwind::Registers_arm64>::getCFA(libunwind::LocalAddressSpace&, libunwind::CFI_Parser<libunwind::LocalAddressSpace>::PrologInfo const&, libunwind::Registers_arm64 const&)
PUBLIC 3504c 0 libunwind::DwarfInstructions<libunwind::LocalAddressSpace, libunwind::Registers_arm64>::getSavedRegister(libunwind::LocalAddressSpace&, libunwind::Registers_arm64 const&, unsigned long, libunwind::CFI_Parser<libunwind::LocalAddressSpace>::RegisterLocation const&)
PUBLIC 3525c 0 libunwind::LocalAddressSpace::getEncodedP(unsigned long&, unsigned long, unsigned char, unsigned long)
PUBLIC 355e8 0 libunwind::LocalAddressSpace::getULEB128(unsigned long&, unsigned long)
PUBLIC 357b0 0 libunwind::DwarfInstructions<libunwind::LocalAddressSpace, libunwind::Registers_arm64>::evaluateExpression(unsigned long, libunwind::LocalAddressSpace&, libunwind::Registers_arm64 const&, unsigned long)
PUBLIC 36174 0 libunwind::UnwindCursor<libunwind::LocalAddressSpace, libunwind::Registers_arm64>::getInfoFromDwarfSection(unsigned long, libunwind::UnwindInfoSections const&, unsigned int)
PUBLIC 36448 0 libunwind::findUnwindSectionsByPhdr(dl_phdr_info*, unsigned long, void*)
PUBLIC 36578 0 libunwind::EHHeaderParser<libunwind::LocalAddressSpace>::decodeEHHdr(libunwind::LocalAddressSpace&, unsigned long, unsigned long, libunwind::EHHeaderParser<libunwind::LocalAddressSpace>::EHHeaderInfo&)
PUBLIC 36698 0 libunwind::CFI_Parser<libunwind::LocalAddressSpace>::findFDE(libunwind::LocalAddressSpace&, unsigned long, unsigned long, unsigned long, unsigned long, libunwind::CFI_Parser<libunwind::LocalAddressSpace>::FDE_Info*, libunwind::CFI_Parser<libunwind::LocalAddressSpace>::CIE_Info*)
PUBLIC 36860 0 libunwind::EHHeaderParser<libunwind::LocalAddressSpace>::findFDE(libunwind::LocalAddressSpace&, unsigned long, unsigned long, unsigned int, libunwind::CFI_Parser<libunwind::LocalAddressSpace>::FDE_Info*, libunwind::CFI_Parser<libunwind::LocalAddressSpace>::CIE_Info*)
PUBLIC 369c8 0 libunwind::EHHeaderParser<libunwind::LocalAddressSpace>::getTableEntrySize(unsigned char)
PUBLIC 36ac4 0 libunwind::Registers_arm64::getRegisterName(int)
PUBLIC 36af4 0 __libunwind_Registers_arm64_jumpto
PUBLIC m 36b84 0 __unw_getcontext
PUBLIC 36c20 0 __aarch64_ldadd8_relax
PUBLIC 36c50 0 init_have_lse_atomics
PUBLIC 36ce8 0 __init_cpu_features_constructor
PUBLIC 36f94 0 __init_cpu_features
PUBLIC 37020 0 __aarch64_ldadd8_acq_rel
FUNC 37050 ac8 0 __cxx_global_var_init
FUNC 37b18 18 0 geode::modifier::ModifyBase<geode::modifier::ModifyDerive<MyNotepadLayer, EditorUI> >::~ModifyBase()
FUNC 37b30 668 0 geode::modifier::ModifyDerive<MyNotepadLayer, EditorUI>::apply()
FUNC 38198 50 0 std::__ndk1::shared_ptr<geode::Hook>::~shared_ptr[abi:ne190000]()
FUNC 381e8 74 0 geode::impl::ResultData<geode::Hook*, std::__ndk1::basic_string<char, std::__ndk1::char_traits<char>, std::__ndk1::allocator<char> > >::~ResultData()
FUNC 3825c 7c 0 std::__ndk1::vector<std::__ndk1::basic_string<char, std::__ndk1::char_traits<char>, std::__ndk1::allocator<char> >, std::__ndk1::allocator<std::__ndk1::basic_string<char, std::__ndk1::char_traits<char>, std::__ndk1::allocator<char> > > >::~vector[abi:ne190000]()
FUNC 382d8 4 0 geode::modifier::ModifyBase<geode::modifier::ModifyDerive<MyNotepadLayer, EditorUI> >::apply()
PUBLIC 382dc 0 __clang_call_terminate
FUNC 382ec 154 0 _ZN5geode15UnwrapExceptionC2IRPNS_4HookEQsr4implE18IsStringStreamableIT_EEENS_4impl5OkTagEOS5_
FUNC 38440 34 0 std::__ndk1::__throw_bad_variant_access[abi:ne190000]()
FUNC 38474 128 0 std::__ndk1::basic_stringstream<char, std::__ndk1::char_traits<char>, std::__ndk1::allocator<char> >::basic_stringstream[abi:ne190000]()
FUNC 3859c 80 0 std::__ndk1::basic_stringstream<char, std::__ndk1::char_traits<char>, std::__ndk1::allocator<char> >::~basic_stringstream()
FUNC 3861c 24 0 geode::UnwrapException::~UnwrapException()
FUNC 38640 198 0 std::__ndk1::__put_character_sequence[abi:ne190000]<char, std::__ndk1::char_traits<char> >(std::__ndk1::basic_ostream<char, std::__ndk1::char_traits<char> >, std::__ndk1::basic_ostream const*, unsigned long)
FUNC 387d8 1c4 0 std::__ndk1::__pad_and_output[abi:ne190000]<char, std::__ndk1::char_traits<char> >(std::__ndk1::char_traits<char>, std::__ndk1::ostreambuf_iterator const*, std::__ndk1::ostreambuf_iterator const, std::__ndk1::ostreambuf_iterator const, std::__ndk1::ios_base&, std::__ndk1::ostreambuf_iterator)
FUNC 3899c 14 0 std::__ndk1::basic_string<char, std::__ndk1::char_traits<char>, std::__ndk1::allocator<char> >::__throw_length_error[abi:ne190000]() const
FUNC 389b0 50 0 std::__ndk1::__throw_length_error[abi:ne190000](char const*)
FUNC 38a00 30 0 std::length_error::length_error[abi:ne190000](char const*)
FUNC 38a30 34 0 std::__throw_bad_array_new_length([abi:ne190000], void)
FUNC 38a64 15c 0 std::__ndk1::basic_stringbuf<char, std::__ndk1::char_traits<char>, std::__ndk1::allocator<char> >::str[abi:ne190000]() &&
FUNC 38bc0 148 0 std::__ndk1::basic_stringbuf<char, std::__ndk1::char_traits<char>, std::__ndk1::allocator<char> >::__init_buf_ptrs[abi:ne190000]()
FUNC 38d08 88 0 std::__ndk1::basic_string<char, std::__ndk1::char_traits<char>, std::__ndk1::allocator<char> >::__erase_external_with_move(unsigned long, unsigned long)
FUNC 38d90 50 0 std::__ndk1::__throw_out_of_range[abi:ne190000](char const*)
FUNC 38de0 30 0 std::out_of_range::out_of_range[abi:ne190000](char const*)
FUNC 38e10 84 0 std::__ndk1::basic_string<char, std::__ndk1::char_traits<char>, std::__ndk1::allocator<char> >::__init_copy_ctor_external(char const*, unsigned long)
FUNC 38e94 68 0 std::__ndk1::__split_buffer<std::__ndk1::basic_string<char, std::__ndk1::char_traits<char>, std::__ndk1::allocator<char> >, std::__ndk1::allocator<std::__ndk1::basic_string<char, std::__ndk1::char_traits<char>, std::__ndk1::allocator<char> > >&>::~__split_buffer()
FUNC 38efc 14 0 std::__ndk1::vector<std::__ndk1::basic_string<char, std::__ndk1::char_traits<char>, std::__ndk1::allocator<char> >, std::__ndk1::allocator<std::__ndk1::basic_string<char, std::__ndk1::char_traits<char>, std::__ndk1::allocator<char> > > >::__throw_length_error[abi:ne190000]() const
FUNC 38f10 4 0 std::__ndk1::__variant_detail::__visitation::__base::__dispatcher<(unsigned long)0>::__dispatch[abi:ne190000]<std::__ndk1::__variant_detail::__dtor<std::__ndk1::__variant_detail::__traits<geode::Hook*, std::__ndk1::basic_string<char, std::__ndk1::char_traits<char>, std::__ndk1::allocator<char> > >, (std::__ndk1::__variant_detail::_Trait)1>::__destroy[abi:ne190000]()::{lambda(auto:1&)#1}, std::__ndk1::__variant_detail::__base<(std::__ndk1::__variant_detail::__traits<geode::Hook*, std::__ndk1::basic_string<char, std::__ndk1::char_traits<char>, std::__ndk1::allocator<char> > >)1, geode::Hook, std::__ndk1::allocator<char> >&>(std::__ndk1::__variant_detail::__dtor<std::__ndk1::__variant_detail::__traits<geode::Hook*, std::__ndk1::basic_string<char, std::__ndk1::char_traits<char>, std::__ndk1::allocator<char> > >, (std::__ndk1::__variant_detail::_Trait)1>, std::__ndk1::__variant_detail::__base<(std::__ndk1::__variant_detail::__traits<geode::Hook*, std::__ndk1::basic_string<char, std::__ndk1::char_traits<char>, std::__ndk1::allocator<char> > >)1, geode::Hook, std::__ndk1::allocator<char> >&)
FUNC 38f14 14 0 std::__ndk1::__variant_detail::__visitation::__base::__dispatcher<(unsigned long)1>::__dispatch[abi:ne190000]<std::__ndk1::__variant_detail::__dtor<std::__ndk1::__variant_detail::__traits<geode::Hook*, std::__ndk1::basic_string<char, std::__ndk1::char_traits<char>, std::__ndk1::allocator<char> > >, (std::__ndk1::__variant_detail::_Trait)1>::__destroy[abi:ne190000]()::{lambda(auto:1&)#1}, std::__ndk1::__variant_detail::__base<(std::__ndk1::__variant_detail::__traits<geode::Hook*, std::__ndk1::basic_string<char, std::__ndk1::char_traits<char>, std::__ndk1::allocator<char> > >)1, geode::Hook, std::__ndk1::allocator<char> >&>(std::__ndk1::__variant_detail::__dtor<std::__ndk1::__variant_detail::__traits<geode::Hook*, std::__ndk1::basic_string<char, std::__ndk1::char_traits<char>, std::__ndk1::allocator<char> > >, (std::__ndk1::__variant_detail::_Trait)1>, std::__ndk1::__variant_detail::__base<(std::__ndk1::__variant_detail::__traits<geode::Hook*, std::__ndk1::basic_string<char, std::__ndk1::char_traits<char>, std::__ndk1::allocator<char> > >)1, geode::Hook, std::__ndk1::allocator<char> >&)
FUNC 38f28 84 0 std::__ndk1::__tree<std::__ndk1::__value_type<std::__ndk1::basic_string<char, std::__ndk1::char_traits<char>, std::__ndk1::allocator<char> >, std::__ndk1::shared_ptr<geode::Hook> >, std::__ndk1::__map_value_compare<std::__ndk1::basic_string<char, std::__ndk1::char_traits<char>, std::__ndk1::allocator<char> >, std::__ndk1::__value_type<std::__ndk1::basic_string<char, std::__ndk1::char_traits<char>, std::__ndk1::allocator<char> >, std::__ndk1::shared_ptr<geode::Hook> >, std::__ndk1::less<std::__ndk1::basic_string<char, std::__ndk1::char_traits<char>, std::__ndk1::allocator<char> > >, true>, std::__ndk1::allocator<std::__ndk1::__value_type<std::__ndk1::basic_string<char, std::__ndk1::char_traits<char>, std::__ndk1::allocator<char> >, std::__ndk1::shared_ptr<geode::Hook> > > >::destroy(std::__ndk1::__tree_node<std::__ndk1::__value_type<std::__ndk1::basic_string<char, std::__ndk1::char_traits<char>, std::__ndk1::allocator<char> >, std::__ndk1::shared_ptr<geode::Hook> >, void*>*)
FUNC 38fac 378 0 geode::modifier::AsStaticFunction_init<MyNotepadLayer, bool (MyNotepadLayer::*)(LevelEditorLayer*)>::Impl<bool (MyNotepadLayer::*)(LevelEditorLayer*)>::function(MyNotepadLayer*, LevelEditorLayer*)
FUNC 39324 3c 0 geode::modifier::AsStaticFunction_showUI<MyNotepadLayer, void (MyNotepadLayer::*)(bool)>::Impl<void (MyNotepadLayer::*)(bool)>::function(MyNotepadLayer*, bool)
FUNC 39360 50 0 std::__ndk1::shared_ptr<tulip::hook::CallingConvention>::~shared_ptr[abi:ne190000]()
FUNC 393b0 64 0 tulip::hook::HandlerMetadata::~HandlerMetadata()
FUNC 39414 184 0 geode::Mod::getSettingValue<std::__ndk1::basic_string<char, std::__ndk1::char_traits<char>, std::__ndk1::allocator<char> > >(std::__ndk1::basic_string_view<char, std::__ndk1::char_traits<char> >) const
FUNC 39598 1c 0 MyNotepadLayer::Onnotepadbutton(cocos2d::CCObject*)
FUNC 395b4 50 0 std::__ndk1::shared_ptr<geode::StringSettingV3>::~shared_ptr[abi:ne190000]()
FUNC 39604 e4 0 geode::cast::traverseTypeinfoFor(void*, geode::cast::ClassTypeinfoType const*, char const*)
FUNC 396e8 5a0 0 geode::modifier::FieldIntermediate<MyNotepadLayer, EditorUI>::self()
FUNC 39c88 4 0 geode::modifier::FieldIntermediate<MyNotepadLayer, EditorUI>::fieldDestructor(void*)
FUNC 39c8c 14 0 std::__ndk1::vector<void*, std::__ndk1::allocator<void*> >::__throw_length_error[abi:ne190000]() const
FUNC 39ca0 14 0 std::__ndk1::vector<std::__ndk1::function<void (void*)>, std::__ndk1::allocator<std::__ndk1::function<void (void*)> > >::__throw_length_error[abi:ne190000]() const
FUNC 39cb4 c 0 std::__ndk1::vector<void*, std::__ndk1::allocator<void*> >::__throw_out_of_range[abi:ne190000]() const
FUNC 39cc0 c 0 std::__ndk1::vector<std::__ndk1::function<void (void*)>, std::__ndk1::allocator<std::__ndk1::function<void (void*)> > >::__throw_out_of_range[abi:ne190000]() const
FUNC 39ccc 4 0 std::__ndk1::__function::__base<void (void*)>::~__base()
FUNC 39cd0 4 0 std::__ndk1::__function::__func<void (*)(void*), std::__ndk1::allocator<void (*)(void*)>, void (void*)>::~__func()
FUNC 39cd4 38 0 std::__ndk1::__function::__func<void (*)(void*), std::__ndk1::allocator<void (*)(void*)>, void (void*)>::__clone() const
FUNC 39d0c 18 0 std::__ndk1::__function::__func<void (*)(void*), std::__ndk1::allocator<void (*)(void*)>, void (void*)>::__clone(std::__ndk1::__function::__base<void (void*)>*) const
FUNC 39d24 4 0 std::__ndk1::__function::__func<void (*)(void*), std::__ndk1::allocator<void (*)(void*)>, void (void*)>::destroy()
FUNC 39d28 4 0 std::__ndk1::__function::__func<void (*)(void*), std::__ndk1::allocator<void (*)(void*)>, void (void*)>::destroy_deallocate()
FUNC 39d2c 10 0 std::__ndk1::__function::__func<void (*)(void*), std::__ndk1::allocator<void (*)(void*)>, void (void*)>::operator()(void*&&)
FUNC 39d3c 1c 0 std::__ndk1::__function::__func<void (*)(void*), std::__ndk1::allocator<void (*)(void*)>, void (void*)>::target(std::type_info const&) const
FUNC 39d58 c 0 std::__ndk1::__function::__func<void (*)(void*), std::__ndk1::allocator<void (*)(void*)>, void (void*)>::target_type() const
FUNC 39d64 104 0 std::__ndk1::__tree<std::__ndk1::__value_type<std::__ndk1::basic_string<char, std::__ndk1::char_traits<char>, std::__ndk1::allocator<char> >, std::__ndk1::shared_ptr<geode::Hook> >, std::__ndk1::__map_value_compare<std::__ndk1::basic_string<char, std::__ndk1::char_traits<char>, std::__ndk1::allocator<char> >, std::__ndk1::__value_type<std::__ndk1::basic_string<char, std::__ndk1::char_traits<char>, std::__ndk1::allocator<char> >, std::__ndk1::shared_ptr<geode::Hook> >, std::__ndk1::less<std::__ndk1::basic_string<char, std::__ndk1::char_traits<char>, std::__ndk1::allocator<char> > >, true>, std::__ndk1::allocator<std::__ndk1::__value_type<std::__ndk1::basic_string<char, std::__ndk1::char_traits<char>, std::__ndk1::allocator<char> >, std::__ndk1::shared_ptr<geode::Hook> > > >::__find_equal<std::__ndk1::basic_string<char, std::__ndk1::char_traits<char>, std::__ndk1::allocator<char> > >(std::__ndk1::__tree_end_node<std::__ndk1::__tree_node_base<void*>*>*&, std::__ndk1::basic_string<char, std::__ndk1::char_traits<char>, std::__ndk1::allocator<char> > const&)
FUNC 39e68 194 0 std::__ndk1::__tree_balance_after_insert[abi:ne190000]<std::__ndk1::__tree_node_base<void*>*>(std::__ndk1::__tree_node_base<void*>*, std::__ndk1::__tree_node_base<void*>*)
FUNC 39ffc 1ed0 0 NotepadLayer::setup()
FUNC 3becc 4 0 NotepadLayer::onTouchFix(cocos2d::CCObject*)
FUNC 3bed0 298 0 geode::Mod::getSavedValue<std::__ndk1::basic_string<char, std::__ndk1::char_traits<char>, std::__ndk1::allocator<char> > >(std::__ndk1::basic_string_view<char, std::__ndk1::char_traits<char> >, std::__ndk1::basic_string<char, std::__ndk1::char_traits<char>, std::__ndk1::allocator<char> > const&)
FUNC 3c168 c 0 NotepadLayer::Close(cocos2d::CCObject*)
FUNC 3c174 3c 0 NotepadLayer::OpenSettings(cocos2d::CCObject*)
FUNC 3c1b0 5c8 0 NotepadLayer::onPage(cocos2d::CCObject*)
FUNC 3c778 ac 0 NotepadLayer::create()
FUNC 3c824 8 0 cocos2d::CCCopying::copyWithZone(cocos2d::CCZone*)
FUNC 3c82c 24 0 NotepadLayer::~NotepadLayer()
FUNC 3c850 4 0 cocos2d::CCLayerRGBA::setOpacityModifyRGB(bool)
FUNC 3c854 8 0 cocos2d::CCLayerRGBA::isOpacityModifyRGB()
FUNC 3c85c 8 0 {virtual override thunk({offset(-320)}, NotepadLayer::~NotepadLayer())}
FUNC 3c864 28 0 {virtual override thunk({offset(-320)}, NotepadLayer::~NotepadLayer())}
FUNC 3c88c 4 0 cocos2d::CCKeyboardDelegate::keyUp(cocos2d::enumKeyCodes)
FUNC 3c890 4 0 cocos2d::CCMouseDelegate::rightKeyDown()
FUNC 3c894 4 0 cocos2d::CCMouseDelegate::rightKeyUp()
FUNC 3c898 4 0 cocos2d::CCMouseDelegate::scrollWheel(float, float)
FUNC 3c89c 4 0 {virtual override thunk({offset(-408)}, cocos2d::CCLayerRGBA::setOpacityModifyRGB(bool))}
FUNC 3c8a0 8 0 {virtual override thunk({offset(-408)}, cocos2d::CCLayerRGBA::isOpacityModifyRGB())}
FUNC 3c8a8 74 0 geode::impl::ResultData<matjson::Value&, std::__ndk1::basic_string<char, std::__ndk1::char_traits<char>, std::__ndk1::allocator<char> > >::~ResultData()
FUNC 3c91c 74 0 geode::impl::ResultData<std::__ndk1::basic_string<char, std::__ndk1::char_traits<char>, std::__ndk1::allocator<char> >, std::__ndk1::basic_string<char, std::__ndk1::char_traits<char>, std::__ndk1::allocator<char> > >::~ResultData()
FUNC 3c990 4 0 std::__ndk1::__variant_detail::__visitation::__base::__dispatcher<(unsigned long)0>::__dispatch[abi:ne190000]<std::__ndk1::__variant_detail::__dtor<std::__ndk1::__variant_detail::__traits<std::__ndk1::reference_wrapper<matjson::Value>, std::__ndk1::basic_string<char, std::__ndk1::char_traits<char>, std::__ndk1::allocator<char> > >, (std::__ndk1::__variant_detail::_Trait)1>::__destroy[abi:ne190000]()::{lambda(auto:1&)#1}, std::__ndk1::__variant_detail::__base<(std::__ndk1::__variant_detail::__traits<std::__ndk1::reference_wrapper<matjson::Value>, std::__ndk1::basic_string<char, std::__ndk1::char_traits<char>, std::__ndk1::allocator<char> > >)1, matjson::Value, std::__ndk1::allocator<char> >&>(std::__ndk1::__variant_detail::__dtor<std::__ndk1::__variant_detail::__traits<std::__ndk1::reference_wrapper<matjson::Value>, std::__ndk1::basic_string<char, std::__ndk1::char_traits<char>, std::__ndk1::allocator<char> > >, (std::__ndk1::__variant_detail::_Trait)1>, std::__ndk1::__variant_detail::__base<(std::__ndk1::__variant_detail::__traits<std::__ndk1::reference_wrapper<matjson::Value>, std::__ndk1::basic_string<char, std::__ndk1::char_traits<char>, std::__ndk1::allocator<char> > >)1, matjson::Value, std::__ndk1::allocator<char> >&)
FUNC 3c994 14 0 std::__ndk1::__variant_detail::__visitation::__base::__dispatcher<(unsigned long)1>::__dispatch[abi:ne190000]<std::__ndk1::__variant_detail::__dtor<std::__ndk1::__variant_detail::__traits<std::__ndk1::reference_wrapper<matjson::Value>, std::__ndk1::basic_string<char, std::__ndk1::char_traits<char>, std::__ndk1::allocator<char> > >, (std::__ndk1::__variant_detail::_Trait)1>::__destroy[abi:ne190000]()::{lambda(auto:1&)#1}, std::__ndk1::__variant_detail::__base<(std::__ndk1::__variant_detail::__traits<std::__ndk1::reference_wrapper<matjson::Value>, std::__ndk1::basic_string<char, std::__ndk1::char_traits<char>, std::__ndk1::allocator<char> > >)1, matjson::Value, std::__ndk1::allocator<char> >&>(std::__ndk1::__variant_detail::__dtor<std::__ndk1::__variant_detail::__traits<std::__ndk1::reference_wrapper<matjson::Value>, std::__ndk1::basic_string<char, std::__ndk1::char_traits<char>, std::__ndk1::allocator<char> > >, (std::__ndk1::__variant_detail::_Trait)1>, std::__ndk1::__variant_detail::__base<(std::__ndk1::__variant_detail::__traits<std::__ndk1::reference_wrapper<matjson::Value>, std::__ndk1::basic_string<char, std::__ndk1::char_traits<char>, std::__ndk1::allocator<char> > >)1, matjson::Value, std::__ndk1::allocator<char> >&)
FUNC 3c9a8 14 0 std::__ndk1::__variant_detail::__visitation::__base::__dispatcher<(unsigned long)0>::__dispatch[abi:ne190000]<std::__ndk1::__variant_detail::__dtor<std::__ndk1::__variant_detail::__traits<std::__ndk1::basic_string<char, std::__ndk1::char_traits<char>, std::__ndk1::allocator<char> >, std::__ndk1::allocator<char> >, (std::__ndk1::__variant_detail::_Trait)1>::__destroy[abi:ne190000]()::{lambda(auto:1&)#1}, std::__ndk1::__variant_detail::__base<(std::__ndk1::__variant_detail::__traits<std::__ndk1::basic_string<char, std::__ndk1::char_traits<char>, std::__ndk1::allocator<char> >, std::__ndk1::allocator<char> >)1, std::__ndk1::allocator<char>, std::__ndk1::allocator<char> >&>(std::__ndk1::__variant_detail::__dtor<std::__ndk1::__variant_detail::__traits<std::__ndk1::basic_string<char, std::__ndk1::char_traits<char>, std::__ndk1::allocator<char> >, std::__ndk1::allocator<char> >, (std::__ndk1::__variant_detail::_Trait)1>, std::__ndk1::__variant_detail::__base<(std::__ndk1::__variant_detail::__traits<std::__ndk1::basic_string<char, std::__ndk1::char_traits<char>, std::__ndk1::allocator<char> >, std::__ndk1::allocator<char> >)1, std::__ndk1::allocator<char>, std::__ndk1::allocator<char> >&)
FUNC 3c9bc 14 0 std::__ndk1::__variant_detail::__visitation::__base::__dispatcher<(unsigned long)1>::__dispatch[abi:ne190000]<std::__ndk1::__variant_detail::__dtor<std::__ndk1::__variant_detail::__traits<std::__ndk1::basic_string<char, std::__ndk1::char_traits<char>, std::__ndk1::allocator<char> >, std::__ndk1::allocator<char> >, (std::__ndk1::__variant_detail::_Trait)1>::__destroy[abi:ne190000]()::{lambda(auto:1&)#1}, std::__ndk1::__variant_detail::__base<(std::__ndk1::__variant_detail::__traits<std::__ndk1::basic_string<char, std::__ndk1::char_traits<char>, std::__ndk1::allocator<char> >, std::__ndk1::allocator<char> >)1, std::__ndk1::allocator<char>, std::__ndk1::allocator<char> >&>(std::__ndk1::__variant_detail::__dtor<std::__ndk1::__variant_detail::__traits<std::__ndk1::basic_string<char, std::__ndk1::char_traits<char>, std::__ndk1::allocator<char> >, std::__ndk1::allocator<char> >, (std::__ndk1::__variant_detail::_Trait)1>, std::__ndk1::__variant_detail::__base<(std::__ndk1::__variant_detail::__traits<std::__ndk1::basic_string<char, std::__ndk1::char_traits<char>, std::__ndk1::allocator<char> >, std::__ndk1::allocator<char> >)1, std::__ndk1::allocator<char>, std::__ndk1::allocator<char> >&)
FUNC 3c9d0 4 0 std::__ndk1::__function::__func<NotepadLayer::setup()::$_0, std::__ndk1::allocator<NotepadLayer::setup()::$_0>, void (std::__ndk1::basic_string<char, std::__ndk1::char_traits<char>, std::__ndk1::allocator<char> > const&)>::~__func()
FUNC 3c9d4 34 0 std::__ndk1::__function::__func<NotepadLayer::setup()::$_0, std::__ndk1::allocator<NotepadLayer::setup()::$_0>, void (std::__ndk1::basic_string<char, std::__ndk1::char_traits<char>, std::__ndk1::allocator<char> > const&)>::__clone() const
FUNC 3ca08 14 0 std::__ndk1::__function::__func<NotepadLayer::setup()::$_0, std::__ndk1::allocator<NotepadLayer::setup()::$_0>, void (std::__ndk1::basic_string<char, std::__ndk1::char_traits<char>, std::__ndk1::allocator<char> > const&)>::__clone(std::__ndk1::__function::__base<void (std::__ndk1::basic_string<char, std::__ndk1::char_traits<char>, std::__ndk1::allocator<char> > const&)>*) const
FUNC 3ca1c 4 0 std::__ndk1::__function::__func<NotepadLayer::setup()::$_0, std::__ndk1::allocator<NotepadLayer::setup()::$_0>, void (std::__ndk1::basic_string<char, std::__ndk1::char_traits<char>, std::__ndk1::allocator<char> > const&)>::destroy()
FUNC 3ca20 4 0 std::__ndk1::__function::__func<NotepadLayer::setup()::$_0, std::__ndk1::allocator<NotepadLayer::setup()::$_0>, void (std::__ndk1::basic_string<char, std::__ndk1::char_traits<char>, std::__ndk1::allocator<char> > const&)>::destroy_deallocate()
FUNC 3ca24 8c 0 std::__ndk1::__function::__func<NotepadLayer::setup()::$_0, std::__ndk1::allocator<NotepadLayer::setup()::$_0>, void (std::__ndk1::basic_string<char, std::__ndk1::char_traits<char>, std::__ndk1::allocator<char> > const&)>::operator()(std::__ndk1::basic_string<char, std::__ndk1::char_traits<char>, std::__ndk1::allocator<char> > const&)
FUNC 3cab0 1c 0 std::__ndk1::__function::__func<NotepadLayer::setup()::$_0, std::__ndk1::allocator<NotepadLayer::setup()::$_0>, void (std::__ndk1::basic_string<char, std::__ndk1::char_traits<char>, std::__ndk1::allocator<char> > const&)>::target(std::type_info const&) const
FUNC 3cacc c 0 std::__ndk1::__function::__func<NotepadLayer::setup()::$_0, std::__ndk1::allocator<NotepadLayer::setup()::$_0>, void (std::__ndk1::basic_string<char, std::__ndk1::char_traits<char>, std::__ndk1::allocator<char> > const&)>::target_type() const
FUNC 3cad8 140 0 geode::Mod::setSavedValue<std::__ndk1::basic_string<char, std::__ndk1::char_traits<char>, std::__ndk1::allocator<char> > >(std::__ndk1::basic_string_view<char, std::__ndk1::char_traits<char> >, std::__ndk1::basic_string<char, std::__ndk1::char_traits<char>, std::__ndk1::allocator<char> > const&)
FUNC 3cc18 1dc 0 geode::Mod::getSavedValue<std::__ndk1::basic_string<char, std::__ndk1::char_traits<char>, std::__ndk1::allocator<char> > >(std::__ndk1::basic_string_view<char, std::__ndk1::char_traits<char> >)
FUNC 3cdf4 4 0 std::__ndk1::__function::__func<NotepadLayer::setup()::$_1, std::__ndk1::allocator<NotepadLayer::setup()::$_1>, void (std::__ndk1::basic_string<char, std::__ndk1::char_traits<char>, std::__ndk1::allocator<char> > const&)>::~__func()
FUNC 3cdf8 34 0 std::__ndk1::__function::__func<NotepadLayer::setup()::$_1, std::__ndk1::allocator<NotepadLayer::setup()::$_1>, void (std::__ndk1::basic_string<char, std::__ndk1::char_traits<char>, std::__ndk1::allocator<char> > const&)>::__clone() const
FUNC 3ce2c 14 0 std::__ndk1::__function::__func<NotepadLayer::setup()::$_1, std::__ndk1::allocator<NotepadLayer::setup()::$_1>, void (std::__ndk1::basic_string<char, std::__ndk1::char_traits<char>, std::__ndk1::allocator<char> > const&)>::__clone(std::__ndk1::__function::__base<void (std::__ndk1::basic_string<char, std::__ndk1::char_traits<char>, std::__ndk1::allocator<char> > const&)>*) const
FUNC 3ce40 4 0 std::__ndk1::__function::__func<NotepadLayer::setup()::$_1, std::__ndk1::allocator<NotepadLayer::setup()::$_1>, void (std::__ndk1::basic_string<char, std::__ndk1::char_traits<char>, std::__ndk1::allocator<char> > const&)>::destroy()
FUNC 3ce44 4 0 std::__ndk1::__function::__func<NotepadLayer::setup()::$_1, std::__ndk1::allocator<NotepadLayer::setup()::$_1>, void (std::__ndk1::basic_string<char, std::__ndk1::char_traits<char>, std::__ndk1::allocator<char> > const&)>::destroy_deallocate()
FUNC 3ce48 8c 0 std::__ndk1::__function::__func<NotepadLayer::setup()::$_1, std::__ndk1::allocator<NotepadLayer::setup()::$_1>, void (std::__ndk1::basic_string<char, std::__ndk1::char_traits<char>, std::__ndk1::allocator<char> > const&)>::operator()(std::__ndk1::basic_string<char, std::__ndk1::char_traits<char>, std::__ndk1::allocator<char> > const&)
FUNC 3ced4 1c 0 std::__ndk1::__function::__func<NotepadLayer::setup()::$_1, std::__ndk1::allocator<NotepadLayer::setup()::$_1>, void (std::__ndk1::basic_string<char, std::__ndk1::char_traits<char>, std::__ndk1::allocator<char> > const&)>::target(std::type_info const&) const
FUNC 3cef0 c 0 std::__ndk1::__function::__func<NotepadLayer::setup()::$_1, std::__ndk1::allocator<NotepadLayer::setup()::$_1>, void (std::__ndk1::basic_string<char, std::__ndk1::char_traits<char>, std::__ndk1::allocator<char> > const&)>::target_type() const
FUNC 3cefc 4 0 std::__ndk1::__function::__func<NotepadLayer::setup()::$_2, std::__ndk1::allocator<NotepadLayer::setup()::$_2>, void (std::__ndk1::basic_string<char, std::__ndk1::char_traits<char>, std::__ndk1::allocator<char> > const&)>::~__func()
FUNC 3cf00 34 0 std::__ndk1::__function::__func<NotepadLayer::setup()::$_2, std::__ndk1::allocator<NotepadLayer::setup()::$_2>, void (std::__ndk1::basic_string<char, std::__ndk1::char_traits<char>, std::__ndk1::allocator<char> > const&)>::__clone() const
FUNC 3cf34 14 0 std::__ndk1::__function::__func<NotepadLayer::setup()::$_2, std::__ndk1::allocator<NotepadLayer::setup()::$_2>, void (std::__ndk1::basic_string<char, std::__ndk1::char_traits<char>, std::__ndk1::allocator<char> > const&)>::__clone(std::__ndk1::__function::__base<void (std::__ndk1::basic_string<char, std::__ndk1::char_traits<char>, std::__ndk1::allocator<char> > const&)>*) const
FUNC 3cf48 4 0 std::__ndk1::__function::__func<NotepadLayer::setup()::$_2, std::__ndk1::allocator<NotepadLayer::setup()::$_2>, void (std::__ndk1::basic_string<char, std::__ndk1::char_traits<char>, std::__ndk1::allocator<char> > const&)>::destroy()
FUNC 3cf4c 4 0 std::__ndk1::__function::__func<NotepadLayer::setup()::$_2, std::__ndk1::allocator<NotepadLayer::setup()::$_2>, void (std::__ndk1::basic_string<char, std::__ndk1::char_traits<char>, std::__ndk1::allocator<char> > const&)>::destroy_deallocate()
FUNC 3cf50 8c 0 std::__ndk1::__function::__func<NotepadLayer::setup()::$_2, std::__ndk1::allocator<NotepadLayer::setup()::$_2>, void (std::__ndk1::basic_string<char, std::__ndk1::char_traits<char>, std::__ndk1::allocator<char> > const&)>::operator()(std::__ndk1::basic_string<char, std::__ndk1::char_traits<char>, std::__ndk1::allocator<char> > const&)
FUNC 3cfdc 1c 0 std::__ndk1::__function::__func<NotepadLayer::setup()::$_2, std::__ndk1::allocator<NotepadLayer::setup()::$_2>, void (std::__ndk1::basic_string<char, std::__ndk1::char_traits<char>, std::__ndk1::allocator<char> > const&)>::target(std::type_info const&) const
FUNC 3cff8 c 0 std::__ndk1::__function::__func<NotepadLayer::setup()::$_2, std::__ndk1::allocator<NotepadLayer::setup()::$_2>, void (std::__ndk1::basic_string<char, std::__ndk1::char_traits<char>, std::__ndk1::allocator<char> > const&)>::target_type() const
FUNC 3d004 4 0 std::__ndk1::__function::__func<NotepadLayer::setup()::$_3, std::__ndk1::allocator<NotepadLayer::setup()::$_3>, void (std::__ndk1::basic_string<char, std::__ndk1::char_traits<char>, std::__ndk1::allocator<char> > const&)>::~__func()
FUNC 3d008 34 0 std::__ndk1::__function::__func<NotepadLayer::setup()::$_3, std::__ndk1::allocator<NotepadLayer::setup()::$_3>, void (std::__ndk1::basic_string<char, std::__ndk1::char_traits<char>, std::__ndk1::allocator<char> > const&)>::__clone() const
FUNC 3d03c 14 0 std::__ndk1::__function::__func<NotepadLayer::setup()::$_3, std::__ndk1::allocator<NotepadLayer::setup()::$_3>, void (std::__ndk1::basic_string<char, std::__ndk1::char_traits<char>, std::__ndk1::allocator<char> > const&)>::__clone(std::__ndk1::__function::__base<void (std::__ndk1::basic_string<char, std::__ndk1::char_traits<char>, std::__ndk1::allocator<char> > const&)>*) const
FUNC 3d050 4 0 std::__ndk1::__function::__func<NotepadLayer::setup()::$_3, std::__ndk1::allocator<NotepadLayer::setup()::$_3>, void (std::__ndk1::basic_string<char, std::__ndk1::char_traits<char>, std::__ndk1::allocator<char> > const&)>::destroy()
FUNC 3d054 4 0 std::__ndk1::__function::__func<NotepadLayer::setup()::$_3, std::__ndk1::allocator<NotepadLayer::setup()::$_3>, void (std::__ndk1::basic_string<char, std::__ndk1::char_traits<char>, std::__ndk1::allocator<char> > const&)>::destroy_deallocate()
FUNC 3d058 8c 0 std::__ndk1::__function::__func<NotepadLayer::setup()::$_3, std::__ndk1::allocator<NotepadLayer::setup()::$_3>, void (std::__ndk1::basic_string<char, std::__ndk1::char_traits<char>, std::__ndk1::allocator<char> > const&)>::operator()(std::__ndk1::basic_string<char, std::__ndk1::char_traits<char>, std::__ndk1::allocator<char> > const&)
FUNC 3d0e4 1c 0 std::__ndk1::__function::__func<NotepadLayer::setup()::$_3, std::__ndk1::allocator<NotepadLayer::setup()::$_3>, void (std::__ndk1::basic_string<char, std::__ndk1::char_traits<char>, std::__ndk1::allocator<char> > const&)>::target(std::type_info const&) const
FUNC 3d100 c 0 std::__ndk1::__function::__func<NotepadLayer::setup()::$_3, std::__ndk1::allocator<NotepadLayer::setup()::$_3>, void (std::__ndk1::basic_string<char, std::__ndk1::char_traits<char>, std::__ndk1::allocator<char> > const&)>::target_type() const
FUNC 3d10c 4 0 std::__ndk1::__function::__base<void (std::__ndk1::basic_string<char, std::__ndk1::char_traits<char>, std::__ndk1::allocator<char> > const&)>::~__base()
FUNC 3d110 4 0 std::__ndk1::__function::__func<NotepadLayer::setup()::$_4, std::__ndk1::allocator<NotepadLayer::setup()::$_4>, void (std::__ndk1::basic_string<char, std::__ndk1::char_traits<char>, std::__ndk1::allocator<char> > const&)>::~__func()
FUNC 3d114 34 0 std::__ndk1::__function::__func<NotepadLayer::setup()::$_4, std::__ndk1::allocator<NotepadLayer::setup()::$_4>, void (std::__ndk1::basic_string<char, std::__ndk1::char_traits<char>, std::__ndk1::allocator<char> > const&)>::__clone() const
FUNC 3d148 14 0 std::__ndk1::__function::__func<NotepadLayer::setup()::$_4, std::__ndk1::allocator<NotepadLayer::setup()::$_4>, void (std::__ndk1::basic_string<char, std::__ndk1::char_traits<char>, std::__ndk1::allocator<char> > const&)>::__clone(std::__ndk1::__function::__base<void (std::__ndk1::basic_string<char, std::__ndk1::char_traits<char>, std::__ndk1::allocator<char> > const&)>*) const
FUNC 3d15c 4 0 std::__ndk1::__function::__func<NotepadLayer::setup()::$_4, std::__ndk1::allocator<NotepadLayer::setup()::$_4>, void (std::__ndk1::basic_string<char, std::__ndk1::char_traits<char>, std::__ndk1::allocator<char> > const&)>::destroy()
FUNC 3d160 4 0 std::__ndk1::__function::__func<NotepadLayer::setup()::$_4, std::__ndk1::allocator<NotepadLayer::setup()::$_4>, void (std::__ndk1::basic_string<char, std::__ndk1::char_traits<char>, std::__ndk1::allocator<char> > const&)>::destroy_deallocate()
FUNC 3d164 8c 0 std::__ndk1::__function::__func<NotepadLayer::setup()::$_4, std::__ndk1::allocator<NotepadLayer::setup()::$_4>, void (std::__ndk1::basic_string<char, std::__ndk1::char_traits<char>, std::__ndk1::allocator<char> > const&)>::operator()(std::__ndk1::basic_string<char, std::__ndk1::char_traits<char>, std::__ndk1::allocator<char> > const&)
FUNC 3d1f0 1c 0 std::__ndk1::__function::__func<NotepadLayer::setup()::$_4, std::__ndk1::allocator<NotepadLayer::setup()::$_4>, void (std::__ndk1::basic_string<char, std::__ndk1::char_traits<char>, std::__ndk1::allocator<char> > const&)>::target(std::type_info const&) const
FUNC 3d20c c 0 std::__ndk1::__function::__func<NotepadLayer::setup()::$_4, std::__ndk1::allocator<NotepadLayer::setup()::$_4>, void (std::__ndk1::basic_string<char, std::__ndk1::char_traits<char>, std::__ndk1::allocator<char> > const&)>::target_type() const
FUNC 3d218 2e30 0 Tab1::init()
FUNC 40048 d0 0 geode::Mod::setSavedValue<bool>(std::__ndk1::basic_string_view<char, std::__ndk1::char_traits<char> >, bool const&)
FUNC 40118 b8 0 Tab1::SaveCheckbox(cocos2d::CCObject*)
FUNC 401d0 1d0 0 geode::Mod::getSavedValue<bool>(std::__ndk1::basic_string_view<char, std::__ndk1::char_traits<char> >, bool const&)
FUNC 403a0 b8 0 Tab1::SaveCheckbox2(cocos2d::CCObject*)
FUNC 40458 b8 0 Tab1::SaveCheckbox3(cocos2d::CCObject*)
FUNC 40510 b8 0 Tab1::SaveCheckbox4(cocos2d::CCObject*)
FUNC 405c8 b8 0 Tab1::SaveCheckbox5(cocos2d::CCObject*)
FUNC 40680 b8 0 Tab1::SaveCheckbox6(cocos2d::CCObject*)
FUNC 40738 b8 0 Tab1::SaveCheckbox7(cocos2d::CCObject*)
FUNC 407f0 b8 0 Tab1::SaveCheckbox8(cocos2d::CCObject*)
FUNC 408a8 b8 0 Tab1::SaveCheckbox9(cocos2d::CCObject*)
FUNC 40960 b8 0 Tab1::SaveCheckbox10(cocos2d::CCObject*)
FUNC 40a18 a4 0 Tab1::create()
FUNC 40abc 24 0 Tab1::~Tab1()
FUNC 40ae0 4 0 cocos2d::CCMenu::setOpacityModifyRGB(bool)
FUNC 40ae4 8 0 cocos2d::CCMenu::isOpacityModifyRGB()
FUNC 40aec 8 0 cocos2d::CCMenu::isEnabled()
FUNC 40af4 8 0 cocos2d::CCMenu::setEnabled(bool)
FUNC 40afc 8 0 {virtual override thunk({offset(-320)}, Tab1::~Tab1())}
FUNC 40b04 28 0 {virtual override thunk({offset(-320)}, Tab1::~Tab1())}
FUNC 40b2c 4 0 {virtual override thunk({offset(-408)}, cocos2d::CCMenu::setOpacityModifyRGB(bool))}
FUNC 40b30 8 0 {virtual override thunk({offset(-408)}, cocos2d::CCMenu::isOpacityModifyRGB())}
FUNC 40b38 17c 0 geode::Mod::getSavedValue<bool>(std::__ndk1::basic_string_view<char, std::__ndk1::char_traits<char> >)
FUNC 40cb4 4 0 std::__ndk1::__variant_detail::__visitation::__base::__dispatcher<(unsigned long)0>::__dispatch[abi:ne190000]<std::__ndk1::__variant_detail::__dtor<std::__ndk1::__variant_detail::__traits<bool, std::__ndk1::basic_string<char, std::__ndk1::char_traits<char>, std::__ndk1::allocator<char> > >, (std::__ndk1::__variant_detail::_Trait)1>::__destroy[abi:ne190000]()::{lambda(auto:1&)#1}, std::__ndk1::__variant_detail::__base<(std::__ndk1::__variant_detail::__traits<bool, std::__ndk1::basic_string<char, std::__ndk1::char_traits<char>, std::__ndk1::allocator<char> > >)1, bool, std::__ndk1::allocator<char> >&>(std::__ndk1::__variant_detail::__dtor<std::__ndk1::__variant_detail::__traits<bool, std::__ndk1::basic_string<char, std::__ndk1::char_traits<char>, std::__ndk1::allocator<char> > >, (std::__ndk1::__variant_detail::_Trait)1>, std::__ndk1::__variant_detail::__base<(std::__ndk1::__variant_detail::__traits<bool, std::__ndk1::basic_string<char, std::__ndk1::char_traits<char>, std::__ndk1::allocator<char> > >)1, bool, std::__ndk1::allocator<char> >&)
FUNC 40cb8 14 0 std::__ndk1::__variant_detail::__visitation::__base::__dispatcher<(unsigned long)1>::__dispatch[abi:ne190000]<std::__ndk1::__variant_detail::__dtor<std::__ndk1::__variant_detail::__traits<bool, std::__ndk1::basic_string<char, std::__ndk1::char_traits<char>, std::__ndk1::allocator<char> > >, (std::__ndk1::__variant_detail::_Trait)1>::__destroy[abi:ne190000]()::{lambda(auto:1&)#1}, std::__ndk1::__variant_detail::__base<(std::__ndk1::__variant_detail::__traits<bool, std::__ndk1::basic_string<char, std::__ndk1::char_traits<char>, std::__ndk1::allocator<char> > >)1, bool, std::__ndk1::allocator<char> >&>(std::__ndk1::__variant_detail::__dtor<std::__ndk1::__variant_detail::__traits<bool, std::__ndk1::basic_string<char, std::__ndk1::char_traits<char>, std::__ndk1::allocator<char> > >, (std::__ndk1::__variant_detail::_Trait)1>, std::__ndk1::__variant_detail::__base<(std::__ndk1::__variant_detail::__traits<bool, std::__ndk1::basic_string<char, std::__ndk1::char_traits<char>, std::__ndk1::allocator<char> > >)1, bool, std::__ndk1::allocator<char> >&)
FUNC 40ccc 4 0 std::__ndk1::__function::__func<Tab1::init()::$_0, std::__ndk1::allocator<Tab1::init()::$_0>, void (std::__ndk1::basic_string<char, std::__ndk1::char_traits<char>, std::__ndk1::allocator<char> > const&)>::~__func()
FUNC 40cd0 34 0 std::__ndk1::__function::__func<Tab1::init()::$_0, std::__ndk1::allocator<Tab1::init()::$_0>, void (std::__ndk1::basic_string<char, std::__ndk1::char_traits<char>, std::__ndk1::allocator<char> > const&)>::__clone() const
FUNC 40d04 14 0 std::__ndk1::__function::__func<Tab1::init()::$_0, std::__ndk1::allocator<Tab1::init()::$_0>, void (std::__ndk1::basic_string<char, std::__ndk1::char_traits<char>, std::__ndk1::allocator<char> > const&)>::__clone(std::__ndk1::__function::__base<void (std::__ndk1::basic_string<char, std::__ndk1::char_traits<char>, std::__ndk1::allocator<char> > const&)>*) const
FUNC 40d18 4 0 std::__ndk1::__function::__func<Tab1::init()::$_0, std::__ndk1::allocator<Tab1::init()::$_0>, void (std::__ndk1::basic_string<char, std::__ndk1::char_traits<char>, std::__ndk1::allocator<char> > const&)>::destroy()
FUNC 40d1c 4 0 std::__ndk1::__function::__func<Tab1::init()::$_0, std::__ndk1::allocator<Tab1::init()::$_0>, void (std::__ndk1::basic_string<char, std::__ndk1::char_traits<char>, std::__ndk1::allocator<char> > const&)>::destroy_deallocate()
FUNC 40d20 8c 0 std::__ndk1::__function::__func<Tab1::init()::$_0, std::__ndk1::allocator<Tab1::init()::$_0>, void (std::__ndk1::basic_string<char, std::__ndk1::char_traits<char>, std::__ndk1::allocator<char> > const&)>::operator()(std::__ndk1::basic_string<char, std::__ndk1::char_traits<char>, std::__ndk1::allocator<char> > const&)
FUNC 40dac 1c 0 std::__ndk1::__function::__func<Tab1::init()::$_0, std::__ndk1::allocator<Tab1::init()::$_0>, void (std::__ndk1::basic_string<char, std::__ndk1::char_traits<char>, std::__ndk1::allocator<char> > const&)>::target(std::type_info const&) const
FUNC 40dc8 c 0 std::__ndk1::__function::__func<Tab1::init()::$_0, std::__ndk1::allocator<Tab1::init()::$_0>, void (std::__ndk1::basic_string<char, std::__ndk1::char_traits<char>, std::__ndk1::allocator<char> > const&)>::target_type() const
FUNC 40dd4 4 0 std::__ndk1::__function::__func<Tab1::init()::$_1, std::__ndk1::allocator<Tab1::init()::$_1>, void (std::__ndk1::basic_string<char, std::__ndk1::char_traits<char>, std::__ndk1::allocator<char> > const&)>::~__func()
FUNC 40dd8 34 0 std::__ndk1::__function::__func<Tab1::init()::$_1, std::__ndk1::allocator<Tab1::init()::$_1>, void (std::__ndk1::basic_string<char, std::__ndk1::char_traits<char>, std::__ndk1::allocator<char> > const&)>::__clone() const
FUNC 40e0c 14 0 std::__ndk1::__function::__func<Tab1::init()::$_1, std::__ndk1::allocator<Tab1::init()::$_1>, void (std::__ndk1::basic_string<char, std::__ndk1::char_traits<char>, std::__ndk1::allocator<char> > const&)>::__clone(std::__ndk1::__function::__base<void (std::__ndk1::basic_string<char, std::__ndk1::char_traits<char>, std::__ndk1::allocator<char> > const&)>*) const
FUNC 40e20 4 0 std::__ndk1::__function::__func<Tab1::init()::$_1, std::__ndk1::allocator<Tab1::init()::$_1>, void (std::__ndk1::basic_string<char, std::__ndk1::char_traits<char>, std::__ndk1::allocator<char> > const&)>::destroy()
FUNC 40e24 4 0 std::__ndk1::__function::__func<Tab1::init()::$_1, std::__ndk1::allocator<Tab1::init()::$_1>, void (std::__ndk1::basic_string<char, std::__ndk1::char_traits<char>, std::__ndk1::allocator<char> > const&)>::destroy_deallocate()
FUNC 40e28 8c 0 std::__ndk1::__function::__func<Tab1::init()::$_1, std::__ndk1::allocator<Tab1::init()::$_1>, void (std::__ndk1::basic_string<char, std::__ndk1::char_traits<char>, std::__ndk1::allocator<char> > const&)>::operator()(std::__ndk1::basic_string<char, std::__ndk1::char_traits<char>, std::__ndk1::allocator<char> > const&)
FUNC 40eb4 1c 0 std::__ndk1::__function::__func<Tab1::init()::$_1, std::__ndk1::allocator<Tab1::init()::$_1>, void (std::__ndk1::basic_string<char, std::__ndk1::char_traits<char>, std::__ndk1::allocator<char> > const&)>::target(std::type_info const&) const
FUNC 40ed0 c 0 std::__ndk1::__function::__func<Tab1::init()::$_1, std::__ndk1::allocator<Tab1::init()::$_1>, void (std::__ndk1::basic_string<char, std::__ndk1::char_traits<char>, std::__ndk1::allocator<char> > const&)>::target_type() const
FUNC 40edc 4 0 std::__ndk1::__function::__func<Tab1::init()::$_2, std::__ndk1::allocator<Tab1::init()::$_2>, void (std::__ndk1::basic_string<char, std::__ndk1::char_traits<char>, std::__ndk1::allocator<char> > const&)>::~__func()
FUNC 40ee0 34 0 std::__ndk1::__function::__func<Tab1::init()::$_2, std::__ndk1::allocator<Tab1::init()::$_2>, void (std::__ndk1::basic_string<char, std::__ndk1::char_traits<char>, std::__ndk1::allocator<char> > const&)>::__clone() const
FUNC 40f14 14 0 std::__ndk1::__function::__func<Tab1::init()::$_2, std::__ndk1::allocator<Tab1::init()::$_2>, void (std::__ndk1::basic_string<char, std::__ndk1::char_traits<char>, std::__ndk1::allocator<char> > const&)>::__clone(std::__ndk1::__function::__base<void (std::__ndk1::basic_string<char, std::__ndk1::char_traits<char>, std::__ndk1::allocator<char> > const&)>*) const
FUNC 40f28 4 0 std::__ndk1::__function::__func<Tab1::init()::$_2, std::__ndk1::allocator<Tab1::init()::$_2>, void (std::__ndk1::basic_string<char, std::__ndk1::char_traits<char>, std::__ndk1::allocator<char> > const&)>::destroy()
FUNC 40f2c 4 0 std::__ndk1::__function::__func<Tab1::init()::$_2, std::__ndk1::allocator<Tab1::init()::$_2>, void (std::__ndk1::basic_string<char, std::__ndk1::char_traits<char>, std::__ndk1::allocator<char> > const&)>::destroy_deallocate()
FUNC 40f30 8c 0 std::__ndk1::__function::__func<Tab1::init()::$_2, std::__ndk1::allocator<Tab1::init()::$_2>, void (std::__ndk1::basic_string<char, std::__ndk1::char_traits<char>, std::__ndk1::allocator<char> > const&)>::operator()(std::__ndk1::basic_string<char, std::__ndk1::char_traits<char>, std::__ndk1::allocator<char> > const&)
FUNC 40fbc 1c 0 std::__ndk1::__function::__func<Tab1::init()::$_2, std::__ndk1::allocator<Tab1::init()::$_2>, void (std::__ndk1::basic_string<char, std::__ndk1::char_traits<char>, std::__ndk1::allocator<char> > const&)>::target(std::type_info const&) const
FUNC 40fd8 c 0 std::__ndk1::__function::__func<Tab1::init()::$_2, std::__ndk1::allocator<Tab1::init()::$_2>, void (std::__ndk1::basic_string<char, std::__ndk1::char_traits<char>, std::__ndk1::allocator<char> > const&)>::target_type() const
FUNC 40fe4 4 0 std::__ndk1::__function::__func<Tab1::init()::$_3, std::__ndk1::allocator<Tab1::init()::$_3>, void (std::__ndk1::basic_string<char, std::__ndk1::char_traits<char>, std::__ndk1::allocator<char> > const&)>::~__func()
FUNC 40fe8 34 0 std::__ndk1::__function::__func<Tab1::init()::$_3, std::__ndk1::allocator<Tab1::init()::$_3>, void (std::__ndk1::basic_string<char, std::__ndk1::char_traits<char>, std::__ndk1::allocator<char> > const&)>::__clone() const
FUNC 4101c 14 0 std::__ndk1::__function::__func<Tab1::init()::$_3, std::__ndk1::allocator<Tab1::init()::$_3>, void (std::__ndk1::basic_string<char, std::__ndk1::char_traits<char>, std::__ndk1::allocator<char> > const&)>::__clone(std::__ndk1::__function::__base<void (std::__ndk1::basic_string<char, std::__ndk1::char_traits<char>, std::__ndk1::allocator<char> > const&)>*) const
FUNC 41030 4 0 std::__ndk1::__function::__func<Tab1::init()::$_3, std::__ndk1::allocator<Tab1::init()::$_3>, void (std::__ndk1::basic_string<char, std::__ndk1::char_traits<char>, std::__ndk1::allocator<char> > const&)>::destroy()
FUNC 41034 4 0 std::__ndk1::__function::__func<Tab1::init()::$_3, std::__ndk1::allocator<Tab1::init()::$_3>, void (std::__ndk1::basic_string<char, std::__ndk1::char_traits<char>, std::__ndk1::allocator<char> > const&)>::destroy_deallocate()
FUNC 41038 8c 0 std::__ndk1::__function::__func<Tab1::init()::$_3, std::__ndk1::allocator<Tab1::init()::$_3>, void (std::__ndk1::basic_string<char, std::__ndk1::char_traits<char>, std::__ndk1::allocator<char> > const&)>::operator()(std::__ndk1::basic_string<char, std::__ndk1::char_traits<char>, std::__ndk1::allocator<char> > const&)
FUNC 410c4 1c 0 std::__ndk1::__function::__func<Tab1::init()::$_3, std::__ndk1::allocator<Tab1::init()::$_3>, void (std::__ndk1::basic_string<char, std::__ndk1::char_traits<char>, std::__ndk1::allocator<char> > const&)>::target(std::type_info const&) const
FUNC 410e0 c 0 std::__ndk1::__function::__func<Tab1::init()::$_3, std::__ndk1::allocator<Tab1::init()::$_3>, void (std::__ndk1::basic_string<char, std::__ndk1::char_traits<char>, std::__ndk1::allocator<char> > const&)>::target_type() const
FUNC 410ec 4 0 std::__ndk1::__function::__func<Tab1::init()::$_4, std::__ndk1::allocator<Tab1::init()::$_4>, void (std::__ndk1::basic_string<char, std::__ndk1::char_traits<char>, std::__ndk1::allocator<char> > const&)>::~__func()
FUNC 410f0 34 0 std::__ndk1::__function::__func<Tab1::init()::$_4, std::__ndk1::allocator<Tab1::init()::$_4>, void (std::__ndk1::basic_string<char, std::__ndk1::char_traits<char>, std::__ndk1::allocator<char> > const&)>::__clone() const
FUNC 41124 14 0 std::__ndk1::__function::__func<Tab1::init()::$_4, std::__ndk1::allocator<Tab1::init()::$_4>, void (std::__ndk1::basic_string<char, std::__ndk1::char_traits<char>, std::__ndk1::allocator<char> > const&)>::__clone(std::__ndk1::__function::__base<void (std::__ndk1::basic_string<char, std::__ndk1::char_traits<char>, std::__ndk1::allocator<char> > const&)>*) const
FUNC 41138 4 0 std::__ndk1::__function::__func<Tab1::init()::$_4, std::__ndk1::allocator<Tab1::init()::$_4>, void (std::__ndk1::basic_string<char, std::__ndk1::char_traits<char>, std::__ndk1::allocator<char> > const&)>::destroy()
FUNC 4113c 4 0 std::__ndk1::__function::__func<Tab1::init()::$_4, std::__ndk1::allocator<Tab1::init()::$_4>, void (std::__ndk1::basic_string<char, std::__ndk1::char_traits<char>, std::__ndk1::allocator<char> > const&)>::destroy_deallocate()
FUNC 41140 8c 0 std::__ndk1::__function::__func<Tab1::init()::$_4, std::__ndk1::allocator<Tab1::init()::$_4>, void (std::__ndk1::basic_string<char, std::__ndk1::char_traits<char>, std::__ndk1::allocator<char> > const&)>::operator()(std::__ndk1::basic_string<char, std::__ndk1::char_traits<char>, std::__ndk1::allocator<char> > const&)
FUNC 411cc 1c 0 std::__ndk1::__function::__func<Tab1::init()::$_4, std::__ndk1::allocator<Tab1::init()::$_4>, void (std::__ndk1::basic_string<char, std::__ndk1::char_traits<char>, std::__ndk1::allocator<char> > const&)>::target(std::type_info const&) const
FUNC 411e8 c 0 std::__ndk1::__function::__func<Tab1::init()::$_4, std::__ndk1::allocator<Tab1::init()::$_4>, void (std::__ndk1::basic_string<char, std::__ndk1::char_traits<char>, std::__ndk1::allocator<char> > const&)>::target_type() const
FUNC 411f4 4 0 std::__ndk1::__function::__func<Tab1::init()::$_5, std::__ndk1::allocator<Tab1::init()::$_5>, void (std::__ndk1::basic_string<char, std::__ndk1::char_traits<char>, std::__ndk1::allocator<char> > const&)>::~__func()
FUNC 411f8 34 0 std::__ndk1::__function::__func<Tab1::init()::$_5, std::__ndk1::allocator<Tab1::init()::$_5>, void (std::__ndk1::basic_string<char, std::__ndk1::char_traits<char>, std::__ndk1::allocator<char> > const&)>::__clone() const
FUNC 4122c 14 0 std::__ndk1::__function::__func<Tab1::init()::$_5, std::__ndk1::allocator<Tab1::init()::$_5>, void (std::__ndk1::basic_string<char, std::__ndk1::char_traits<char>, std::__ndk1::allocator<char> > const&)>::__clone(std::__ndk1::__function::__base<void (std::__ndk1::basic_string<char, std::__ndk1::char_traits<char>, std::__ndk1::allocator<char> > const&)>*) const
FUNC 41240 4 0 std::__ndk1::__function::__func<Tab1::init()::$_5, std::__ndk1::allocator<Tab1::init()::$_5>, void (std::__ndk1::basic_string<char, std::__ndk1::char_traits<char>, std::__ndk1::allocator<char> > const&)>::destroy()
FUNC 41244 4 0 std::__ndk1::__function::__func<Tab1::init()::$_5, std::__ndk1::allocator<Tab1::init()::$_5>, void (std::__ndk1::basic_string<char, std::__ndk1::char_traits<char>, std::__ndk1::allocator<char> > const&)>::destroy_deallocate()
FUNC 41248 8c 0 std::__ndk1::__function::__func<Tab1::init()::$_5, std::__ndk1::allocator<Tab1::init()::$_5>, void (std::__ndk1::basic_string<char, std::__ndk1::char_traits<char>, std::__ndk1::allocator<char> > const&)>::operator()(std::__ndk1::basic_string<char, std::__ndk1::char_traits<char>, std::__ndk1::allocator<char> > const&)
FUNC 412d4 1c 0 std::__ndk1::__function::__func<Tab1::init()::$_5, std::__ndk1::allocator<Tab1::init()::$_5>, void (std::__ndk1::basic_string<char, std::__ndk1::char_traits<char>, std::__ndk1::allocator<char> > const&)>::target(std::type_info const&) const
FUNC 412f0 c 0 std::__ndk1::__function::__func<Tab1::init()::$_5, std::__ndk1::allocator<Tab1::init()::$_5>, void (std::__ndk1::basic_string<char, std::__ndk1::char_traits<char>, std::__ndk1::allocator<char> > const&)>::target_type() const
FUNC 412fc 4 0 std::__ndk1::__function::__func<Tab1::init()::$_6, std::__ndk1::allocator<Tab1::init()::$_6>, void (std::__ndk1::basic_string<char, std::__ndk1::char_traits<char>, std::__ndk1::allocator<char> > const&)>::~__func()
FUNC 41300 34 0 std::__ndk1::__function::__func<Tab1::init()::$_6, std::__ndk1::allocator<Tab1::init()::$_6>, void (std::__ndk1::basic_string<char, std::__ndk1::char_traits<char>, std::__ndk1::allocator<char> > const&)>::__clone() const
FUNC 41334 14 0 std::__ndk1::__function::__func<Tab1::init()::$_6, std::__ndk1::allocator<Tab1::init()::$_6>, void (std::__ndk1::basic_string<char, std::__ndk1::char_traits<char>, std::__ndk1::allocator<char> > const&)>::__clone(std::__ndk1::__function::__base<void (std::__ndk1::basic_string<char, std::__ndk1::char_traits<char>, std::__ndk1::allocator<char> > const&)>*) const
FUNC 41348 4 0 std::__ndk1::__function::__func<Tab1::init()::$_6, std::__ndk1::allocator<Tab1::init()::$_6>, void (std::__ndk1::basic_string<char, std::__ndk1::char_traits<char>, std::__ndk1::allocator<char> > const&)>::destroy()
FUNC 4134c 4 0 std::__ndk1::__function::__func<Tab1::init()::$_6, std::__ndk1::allocator<Tab1::init()::$_6>, void (std::__ndk1::basic_string<char, std::__ndk1::char_traits<char>, std::__ndk1::allocator<char> > const&)>::destroy_deallocate()
FUNC 41350 8c 0 std::__ndk1::__function::__func<Tab1::init()::$_6, std::__ndk1::allocator<Tab1::init()::$_6>, void (std::__ndk1::basic_string<char, std::__ndk1::char_traits<char>, std::__ndk1::allocator<char> > const&)>::operator()(std::__ndk1::basic_string<char, std::__ndk1::char_traits<char>, std::__ndk1::allocator<char> > const&)
FUNC 413dc 1c 0 std::__ndk1::__function::__func<Tab1::init()::$_6, std::__ndk1::allocator<Tab1::init()::$_6>, void (std::__ndk1::basic_string<char, std::__ndk1::char_traits<char>, std::__ndk1::allocator<char> > const&)>::target(std::type_info const&) const
FUNC 413f8 c 0 std::__ndk1::__function::__func<Tab1::init()::$_6, std::__ndk1::allocator<Tab1::init()::$_6>, void (std::__ndk1::basic_string<char, std::__ndk1::char_traits<char>, std::__ndk1::allocator<char> > const&)>::target_type() const
FUNC 41404 4 0 std::__ndk1::__function::__func<Tab1::init()::$_7, std::__ndk1::allocator<Tab1::init()::$_7>, void (std::__ndk1::basic_string<char, std::__ndk1::char_traits<char>, std::__ndk1::allocator<char> > const&)>::~__func()
FUNC 41408 34 0 std::__ndk1::__function::__func<Tab1::init()::$_7, std::__ndk1::allocator<Tab1::init()::$_7>, void (std::__ndk1::basic_string<char, std::__ndk1::char_traits<char>, std::__ndk1::allocator<char> > const&)>::__clone() const
FUNC 4143c 14 0 std::__ndk1::__function::__func<Tab1::init()::$_7, std::__ndk1::allocator<Tab1::init()::$_7>, void (std::__ndk1::basic_string<char, std::__ndk1::char_traits<char>, std::__ndk1::allocator<char> > const&)>::__clone(std::__ndk1::__function::__base<void (std::__ndk1::basic_string<char, std::__ndk1::char_traits<char>, std::__ndk1::allocator<char> > const&)>*) const
FUNC 41450 4 0 std::__ndk1::__function::__func<Tab1::init()::$_7, std::__ndk1::allocator<Tab1::init()::$_7>, void (std::__ndk1::basic_string<char, std::__ndk1::char_traits<char>, std::__ndk1::allocator<char> > const&)>::destroy()
FUNC 41454 4 0 std::__ndk1::__function::__func<Tab1::init()::$_7, std::__ndk1::allocator<Tab1::init()::$_7>, void (std::__ndk1::basic_string<char, std::__ndk1::char_traits<char>, std::__ndk1::allocator<char> > const&)>::destroy_deallocate()
FUNC 41458 8c 0 std::__ndk1::__function::__func<Tab1::init()::$_7, std::__ndk1::allocator<Tab1::init()::$_7>, void (std::__ndk1::basic_string<char, std::__ndk1::char_traits<char>, std::__ndk1::allocator<char> > const&)>::operator()(std::__ndk1::basic_string<char, std::__ndk1::char_traits<char>, std::__ndk1::allocator<char> > const&)
FUNC 414e4 1c 0 std::__ndk1::__function::__func<Tab1::init()::$_7, std::__ndk1::allocator<Tab1::init()::$_7>, void (std::__ndk1::basic_string<char, std::__ndk1::char_traits<char>, std::__ndk1::allocator<char> > const&)>::target(std::type_info const&) const
FUNC 41500 c 0 std::__ndk1::__function::__func<Tab1::init()::$_7, std::__ndk1::allocator<Tab1::init()::$_7>, void (std::__ndk1::basic_string<char, std::__ndk1::char_traits<char>, std::__ndk1::allocator<char> > const&)>::target_type() const
FUNC 4150c 4 0 std::__ndk1::__function::__func<Tab1::init()::$_8, std::__ndk1::allocator<Tab1::init()::$_8>, void (std::__ndk1::basic_string<char, std::__ndk1::char_traits<char>, std::__ndk1::allocator<char> > const&)>::~__func()
FUNC 41510 34 0 std::__ndk1::__function::__func<Tab1::init()::$_8, std::__ndk1::allocator<Tab1::init()::$_8>, void (std::__ndk1::basic_string<char, std::__ndk1::char_traits<char>, std::__ndk1::allocator<char> > const&)>::__clone() const
FUNC 41544 14 0 std::__ndk1::__function::__func<Tab1::init()::$_8, std::__ndk1::allocator<Tab1::init()::$_8>, void (std::__ndk1::basic_string<char, std::__ndk1::char_traits<char>, std::__ndk1::allocator<char> > const&)>::__clone(std::__ndk1::__function::__base<void (std::__ndk1::basic_string<char, std::__ndk1::char_traits<char>, std::__ndk1::allocator<char> > const&)>*) const
FUNC 41558 4 0 std::__ndk1::__function::__func<Tab1::init()::$_8, std::__ndk1::allocator<Tab1::init()::$_8>, void (std::__ndk1::basic_string<char, std::__ndk1::char_traits<char>, std::__ndk1::allocator<char> > const&)>::destroy()
FUNC 4155c 4 0 std::__ndk1::__function::__func<Tab1::init()::$_8, std::__ndk1::allocator<Tab1::init()::$_8>, void (std::__ndk1::basic_string<char, std::__ndk1::char_traits<char>, std::__ndk1::allocator<char> > const&)>::destroy_deallocate()
FUNC 41560 8c 0 std::__ndk1::__function::__func<Tab1::init()::$_8, std::__ndk1::allocator<Tab1::init()::$_8>, void (std::__ndk1::basic_string<char, std::__ndk1::char_traits<char>, std::__ndk1::allocator<char> > const&)>::operator()(std::__ndk1::basic_string<char, std::__ndk1::char_traits<char>, std::__ndk1::allocator<char> > const&)
FUNC 415ec 1c 0 std::__ndk1::__function::__func<Tab1::init()::$_8, std::__ndk1::allocator<Tab1::init()::$_8>, void (std::__ndk1::basic_string<char, std::__ndk1::char_traits<char>, std::__ndk1::allocator<char> > const&)>::target(std::type_info const&) const
FUNC 41608 c 0 std::__ndk1::__function::__func<Tab1::init()::$_8, std::__ndk1::allocator<Tab1::init()::$_8>, void (std::__ndk1::basic_string<char, std::__ndk1::char_traits<char>, std::__ndk1::allocator<char> > const&)>::target_type() const
FUNC 41614 4 0 std::__ndk1::__function::__func<Tab1::init()::$_9, std::__ndk1::allocator<Tab1::init()::$_9>, void (std::__ndk1::basic_string<char, std::__ndk1::char_traits<char>, std::__ndk1::allocator<char> > const&)>::~__func()
FUNC 41618 34 0 std::__ndk1::__function::__func<Tab1::init()::$_9, std::__ndk1::allocator<Tab1::init()::$_9>, void (std::__ndk1::basic_string<char, std::__ndk1::char_traits<char>, std::__ndk1::allocator<char> > const&)>::__clone() const
FUNC 4164c 14 0 std::__ndk1::__function::__func<Tab1::init()::$_9, std::__ndk1::allocator<Tab1::init()::$_9>, void (std::__ndk1::basic_string<char, std::__ndk1::char_traits<char>, std::__ndk1::allocator<char> > const&)>::__clone(std::__ndk1::__function::__base<void (std::__ndk1::basic_string<char, std::__ndk1::char_traits<char>, std::__ndk1::allocator<char> > const&)>*) const
FUNC 41660 4 0 std::__ndk1::__function::__func<Tab1::init()::$_9, std::__ndk1::allocator<Tab1::init()::$_9>, void (std::__ndk1::basic_string<char, std::__ndk1::char_traits<char>, std::__ndk1::allocator<char> > const&)>::destroy()
FUNC 41664 4 0 std::__ndk1::__function::__func<Tab1::init()::$_9, std::__ndk1::allocator<Tab1::init()::$_9>, void (std::__ndk1::basic_string<char, std::__ndk1::char_traits<char>, std::__ndk1::allocator<char> > const&)>::destroy_deallocate()
FUNC 41668 8c 0 std::__ndk1::__function::__func<Tab1::init()::$_9, std::__ndk1::allocator<Tab1::init()::$_9>, void (std::__ndk1::basic_string<char, std::__ndk1::char_traits<char>, std::__ndk1::allocator<char> > const&)>::operator()(std::__ndk1::basic_string<char, std::__ndk1::char_traits<char>, std::__ndk1::allocator<char> > const&)
FUNC 416f4 1c 0 std::__ndk1::__function::__func<Tab1::init()::$_9, std::__ndk1::allocator<Tab1::init()::$_9>, void (std::__ndk1::basic_string<char, std::__ndk1::char_traits<char>, std::__ndk1::allocator<char> > const&)>::target(std::type_info const&) const
FUNC 41710 c 0 std::__ndk1::__function::__func<Tab1::init()::$_9, std::__ndk1::allocator<Tab1::init()::$_9>, void (std::__ndk1::basic_string<char, std::__ndk1::char_traits<char>, std::__ndk1::allocator<char> > const&)>::target_type() const
FUNC 4171c 4 0 std::__ndk1::__function::__func<Tab1::init()::$_10, std::__ndk1::allocator<Tab1::init()::$_10>, void (std::__ndk1::basic_string<char, std::__ndk1::char_traits<char>, std::__ndk1::allocator<char> > const&)>::~__func()
FUNC 41720 34 0 std::__ndk1::__function::__func<Tab1::init()::$_10, std::__ndk1::allocator<Tab1::init()::$_10>, void (std::__ndk1::basic_string<char, std::__ndk1::char_traits<char>, std::__ndk1::allocator<char> > const&)>::__clone() const
FUNC 41754 14 0 std::__ndk1::__function::__func<Tab1::init()::$_10, std::__ndk1::allocator<Tab1::init()::$_10>, void (std::__ndk1::basic_string<char, std::__ndk1::char_traits<char>, std::__ndk1::allocator<char> > const&)>::__clone(std::__ndk1::__function::__base<void (std::__ndk1::basic_string<char, std::__ndk1::char_traits<char>, std::__ndk1::allocator<char> > const&)>*) const
FUNC 41768 4 0 std::__ndk1::__function::__func<Tab1::init()::$_10, std::__ndk1::allocator<Tab1::init()::$_10>, void (std::__ndk1::basic_string<char, std::__ndk1::char_traits<char>, std::__ndk1::allocator<char> > const&)>::destroy()
FUNC 4176c 4 0 std::__ndk1::__function::__func<Tab1::init()::$_10, std::__ndk1::allocator<Tab1::init()::$_10>, void (std::__ndk1::basic_string<char, std::__ndk1::char_traits<char>, std::__ndk1::allocator<char> > const&)>::destroy_deallocate()
FUNC 41770 8c 0 std::__ndk1::__function::__func<Tab1::init()::$_10, std::__ndk1::allocator<Tab1::init()::$_10>, void (std::__ndk1::basic_string<char, std::__ndk1::char_traits<char>, std::__ndk1::allocator<char> > const&)>::operator()(std::__ndk1::basic_string<char, std::__ndk1::char_traits<char>, std::__ndk1::allocator<char> > const&)
FUNC 417fc 1c 0 std::__ndk1::__function::__func<Tab1::init()::$_10, std::__ndk1::allocator<Tab1::init()::$_10>, void (std::__ndk1::basic_string<char, std::__ndk1::char_traits<char>, std::__ndk1::allocator<char> > const&)>::target(std::type_info const&) const
FUNC 41818 c 0 std::__ndk1::__function::__func<Tab1::init()::$_10, std::__ndk1::allocator<Tab1::init()::$_10>, void (std::__ndk1::basic_string<char, std::__ndk1::char_traits<char>, std::__ndk1::allocator<char> > const&)>::target_type() const
FUNC 41824 4 0 std::__ndk1::__function::__func<Tab1::init()::$_11, std::__ndk1::allocator<Tab1::init()::$_11>, void (std::__ndk1::basic_string<char, std::__ndk1::char_traits<char>, std::__ndk1::allocator<char> > const&)>::~__func()
FUNC 41828 34 0 std::__ndk1::__function::__func<Tab1::init()::$_11, std::__ndk1::allocator<Tab1::init()::$_11>, void (std::__ndk1::basic_string<char, std::__ndk1::char_traits<char>, std::__ndk1::allocator<char> > const&)>::__clone() const
FUNC 4185c 14 0 std::__ndk1::__function::__func<Tab1::init()::$_11, std::__ndk1::allocator<Tab1::init()::$_11>, void (std::__ndk1::basic_string<char, std::__ndk1::char_traits<char>, std::__ndk1::allocator<char> > const&)>::__clone(std::__ndk1::__function::__base<void (std::__ndk1::basic_string<char, std::__ndk1::char_traits<char>, std::__ndk1::allocator<char> > const&)>*) const
FUNC 41870 4 0 std::__ndk1::__function::__func<Tab1::init()::$_11, std::__ndk1::allocator<Tab1::init()::$_11>, void (std::__ndk1::basic_string<char, std::__ndk1::char_traits<char>, std::__ndk1::allocator<char> > const&)>::destroy()
FUNC 41874 4 0 std::__ndk1::__function::__func<Tab1::init()::$_11, std::__ndk1::allocator<Tab1::init()::$_11>, void (std::__ndk1::basic_string<char, std::__ndk1::char_traits<char>, std::__ndk1::allocator<char> > const&)>::destroy_deallocate()
FUNC 41878 8c 0 std::__ndk1::__function::__func<Tab1::init()::$_11, std::__ndk1::allocator<Tab1::init()::$_11>, void (std::__ndk1::basic_string<char, std::__ndk1::char_traits<char>, std::__ndk1::allocator<char> > const&)>::operator()(std::__ndk1::basic_string<char, std::__ndk1::char_traits<char>, std::__ndk1::allocator<char> > const&)
FUNC 41904 1c 0 std::__ndk1::__function::__func<Tab1::init()::$_11, std::__ndk1::allocator<Tab1::init()::$_11>, void (std::__ndk1::basic_string<char, std::__ndk1::char_traits<char>, std::__ndk1::allocator<char> > const&)>::target(std::type_info const&) const
FUNC 41920 c 0 std::__ndk1::__function::__func<Tab1::init()::$_11, std::__ndk1::allocator<Tab1::init()::$_11>, void (std::__ndk1::basic_string<char, std::__ndk1::char_traits<char>, std::__ndk1::allocator<char> > const&)>::target_type() const
FUNC 4192c 4 0 std::__ndk1::__function::__func<Tab1::init()::$_12, std::__ndk1::allocator<Tab1::init()::$_12>, void (std::__ndk1::basic_string<char, std::__ndk1::char_traits<char>, std::__ndk1::allocator<char> > const&)>::~__func()
FUNC 41930 34 0 std::__ndk1::__function::__func<Tab1::init()::$_12, std::__ndk1::allocator<Tab1::init()::$_12>, void (std::__ndk1::basic_string<char, std::__ndk1::char_traits<char>, std::__ndk1::allocator<char> > const&)>::__clone() const
FUNC 41964 14 0 std::__ndk1::__function::__func<Tab1::init()::$_12, std::__ndk1::allocator<Tab1::init()::$_12>, void (std::__ndk1::basic_string<char, std::__ndk1::char_traits<char>, std::__ndk1::allocator<char> > const&)>::__clone(std::__ndk1::__function::__base<void (std::__ndk1::basic_string<char, std::__ndk1::char_traits<char>, std::__ndk1::allocator<char> > const&)>*) const
FUNC 41978 4 0 std::__ndk1::__function::__func<Tab1::init()::$_12, std::__ndk1::allocator<Tab1::init()::$_12>, void (std::__ndk1::basic_string<char, std::__ndk1::char_traits<char>, std::__ndk1::allocator<char> > const&)>::destroy()
FUNC 4197c 4 0 std::__ndk1::__function::__func<Tab1::init()::$_12, std::__ndk1::allocator<Tab1::init()::$_12>, void (std::__ndk1::basic_string<char, std::__ndk1::char_traits<char>, std::__ndk1::allocator<char> > const&)>::destroy_deallocate()
FUNC 41980 8c 0 std::__ndk1::__function::__func<Tab1::init()::$_12, std::__ndk1::allocator<Tab1::init()::$_12>, void (std::__ndk1::basic_string<char, std::__ndk1::char_traits<char>, std::__ndk1::allocator<char> > const&)>::operator()(std::__ndk1::basic_string<char, std::__ndk1::char_traits<char>, std::__ndk1::allocator<char> > const&)
FUNC 41a0c 1c 0 std::__ndk1::__function::__func<Tab1::init()::$_12, std::__ndk1::allocator<Tab1::init()::$_12>, void (std::__ndk1::basic_string<char, std::__ndk1::char_traits<char>, std::__ndk1::allocator<char> > const&)>::target(std::type_info const&) const
FUNC 41a28 c 0 std::__ndk1::__function::__func<Tab1::init()::$_12, std::__ndk1::allocator<Tab1::init()::$_12>, void (std::__ndk1::basic_string<char, std::__ndk1::char_traits<char>, std::__ndk1::allocator<char> > const&)>::target_type() const
FUNC 41a34 4 0 std::__ndk1::__function::__func<Tab1::init()::$_13, std::__ndk1::allocator<Tab1::init()::$_13>, void (std::__ndk1::basic_string<char, std::__ndk1::char_traits<char>, std::__ndk1::allocator<char> > const&)>::~__func()
FUNC 41a38 34 0 std::__ndk1::__function::__func<Tab1::init()::$_13, std::__ndk1::allocator<Tab1::init()::$_13>, void (std::__ndk1::basic_string<char, std::__ndk1::char_traits<char>, std::__ndk1::allocator<char> > const&)>::__clone() const
FUNC 41a6c 14 0 std::__ndk1::__function::__func<Tab1::init()::$_13, std::__ndk1::allocator<Tab1::init()::$_13>, void (std::__ndk1::basic_string<char, std::__ndk1::char_traits<char>, std::__ndk1::allocator<char> > const&)>::__clone(std::__ndk1::__function::__base<void (std::__ndk1::basic_string<char, std::__ndk1::char_traits<char>, std::__ndk1::allocator<char> > const&)>*) const
FUNC 41a80 4 0 std::__ndk1::__function::__func<Tab1::init()::$_13, std::__ndk1::allocator<Tab1::init()::$_13>, void (std::__ndk1::basic_string<char, std::__ndk1::char_traits<char>, std::__ndk1::allocator<char> > const&)>::destroy()
FUNC 41a84 4 0 std::__ndk1::__function::__func<Tab1::init()::$_13, std::__ndk1::allocator<Tab1::init()::$_13>, void (std::__ndk1::basic_string<char, std::__ndk1::char_traits<char>, std::__ndk1::allocator<char> > const&)>::destroy_deallocate()
FUNC 41a88 8c 0 std::__ndk1::__function::__func<Tab1::init()::$_13, std::__ndk1::allocator<Tab1::init()::$_13>, void (std::__ndk1::basic_string<char, std::__ndk1::char_traits<char>, std::__ndk1::allocator<char> > const&)>::operator()(std::__ndk1::basic_string<char, std::__ndk1::char_traits<char>, std::__ndk1::allocator<char> > const&)
FUNC 41b14 1c 0 std::__ndk1::__function::__func<Tab1::init()::$_13, std::__ndk1::allocator<Tab1::init()::$_13>, void (std::__ndk1::basic_string<char, std::__ndk1::char_traits<char>, std::__ndk1::allocator<char> > const&)>::target(std::type_info const&) const
FUNC 41b30 c 0 std::__ndk1::__function::__func<Tab1::init()::$_13, std::__ndk1::allocator<Tab1::init()::$_13>, void (std::__ndk1::basic_string<char, std::__ndk1::char_traits<char>, std::__ndk1::allocator<char> > const&)>::target_type() const
FUNC 41b3c 4 0 std::__ndk1::__function::__func<Tab1::init()::$_14, std::__ndk1::allocator<Tab1::init()::$_14>, void (std::__ndk1::basic_string<char, std::__ndk1::char_traits<char>, std::__ndk1::allocator<char> > const&)>::~__func()
FUNC 41b40 34 0 std::__ndk1::__function::__func<Tab1::init()::$_14, std::__ndk1::allocator<Tab1::init()::$_14>, void (std::__ndk1::basic_string<char, std::__ndk1::char_traits<char>, std::__ndk1::allocator<char> > const&)>::__clone() const
FUNC 41b74 14 0 std::__ndk1::__function::__func<Tab1::init()::$_14, std::__ndk1::allocator<Tab1::init()::$_14>, void (std::__ndk1::basic_string<char, std::__ndk1::char_traits<char>, std::__ndk1::allocator<char> > const&)>::__clone(std::__ndk1::__function::__base<void (std::__ndk1::basic_string<char, std::__ndk1::char_traits<char>, std::__ndk1::allocator<char> > const&)>*) const
FUNC 41b88 4 0 std::__ndk1::__function::__func<Tab1::init()::$_14, std::__ndk1::allocator<Tab1::init()::$_14>, void (std::__ndk1::basic_string<char, std::__ndk1::char_traits<char>, std::__ndk1::allocator<char> > const&)>::destroy()
FUNC 41b8c 4 0 std::__ndk1::__function::__func<Tab1::init()::$_14, std::__ndk1::allocator<Tab1::init()::$_14>, void (std::__ndk1::basic_string<char, std::__ndk1::char_traits<char>, std::__ndk1::allocator<char> > const&)>::destroy_deallocate()
FUNC 41b90 8c 0 std::__ndk1::__function::__func<Tab1::init()::$_14, std::__ndk1::allocator<Tab1::init()::$_14>, void (std::__ndk1::basic_string<char, std::__ndk1::char_traits<char>, std::__ndk1::allocator<char> > const&)>::operator()(std::__ndk1::basic_string<char, std::__ndk1::char_traits<char>, std::__ndk1::allocator<char> > const&)
FUNC 41c1c 1c 0 std::__ndk1::__function::__func<Tab1::init()::$_14, std::__ndk1::allocator<Tab1::init()::$_14>, void (std::__ndk1::basic_string<char, std::__ndk1::char_traits<char>, std::__ndk1::allocator<char> > const&)>::target(std::type_info const&) const
FUNC 41c38 c 0 std::__ndk1::__function::__func<Tab1::init()::$_14, std::__ndk1::allocator<Tab1::init()::$_14>, void (std::__ndk1::basic_string<char, std::__ndk1::char_traits<char>, std::__ndk1::allocator<char> > const&)>::target_type() const
FUNC 41c44 4 0 std::__ndk1::__function::__func<Tab1::init()::$_15, std::__ndk1::allocator<Tab1::init()::$_15>, void (std::__ndk1::basic_string<char, std::__ndk1::char_traits<char>, std::__ndk1::allocator<char> > const&)>::~__func()
FUNC 41c48 34 0 std::__ndk1::__function::__func<Tab1::init()::$_15, std::__ndk1::allocator<Tab1::init()::$_15>, void (std::__ndk1::basic_string<char, std::__ndk1::char_traits<char>, std::__ndk1::allocator<char> > const&)>::__clone() const
FUNC 41c7c 14 0 std::__ndk1::__function::__func<Tab1::init()::$_15, std::__ndk1::allocator<Tab1::init()::$_15>, void (std::__ndk1::basic_string<char, std::__ndk1::char_traits<char>, std::__ndk1::allocator<char> > const&)>::__clone(std::__ndk1::__function::__base<void (std::__ndk1::basic_string<char, std::__ndk1::char_traits<char>, std::__ndk1::allocator<char> > const&)>*) const
FUNC 41c90 4 0 std::__ndk1::__function::__func<Tab1::init()::$_15, std::__ndk1::allocator<Tab1::init()::$_15>, void (std::__ndk1::basic_string<char, std::__ndk1::char_traits<char>, std::__ndk1::allocator<char> > const&)>::destroy()
FUNC 41c94 4 0 std::__ndk1::__function::__func<Tab1::init()::$_15, std::__ndk1::allocator<Tab1::init()::$_15>, void (std::__ndk1::basic_string<char, std::__ndk1::char_traits<char>, std::__ndk1::allocator<char> > const&)>::destroy_deallocate()
FUNC 41c98 8c 0 std::__ndk1::__function::__func<Tab1::init()::$_15, std::__ndk1::allocator<Tab1::init()::$_15>, void (std::__ndk1::basic_string<char, std::__ndk1::char_traits<char>, std::__ndk1::allocator<char> > const&)>::operator()(std::__ndk1::basic_string<char, std::__ndk1::char_traits<char>, std::__ndk1::allocator<char> > const&)
FUNC 41d24 1c 0 std::__ndk1::__function::__func<Tab1::init()::$_15, std::__ndk1::allocator<Tab1::init()::$_15>, void (std::__ndk1::basic_string<char, std::__ndk1::char_traits<char>, std::__ndk1::allocator<char> > const&)>::target(std::type_info const&) const
FUNC 41d40 c 0 std::__ndk1::__function::__func<Tab1::init()::$_15, std::__ndk1::allocator<Tab1::init()::$_15>, void (std::__ndk1::basic_string<char, std::__ndk1::char_traits<char>, std::__ndk1::allocator<char> > const&)>::target_type() const
FUNC 41d4c 4 0 std::__ndk1::__function::__func<Tab1::init()::$_16, std::__ndk1::allocator<Tab1::init()::$_16>, void (std::__ndk1::basic_string<char, std::__ndk1::char_traits<char>, std::__ndk1::allocator<char> > const&)>::~__func()
FUNC 41d50 34 0 std::__ndk1::__function::__func<Tab1::init()::$_16, std::__ndk1::allocator<Tab1::init()::$_16>, void (std::__ndk1::basic_string<char, std::__ndk1::char_traits<char>, std::__ndk1::allocator<char> > const&)>::__clone() const
FUNC 41d84 14 0 std::__ndk1::__function::__func<Tab1::init()::$_16, std::__ndk1::allocator<Tab1::init()::$_16>, void (std::__ndk1::basic_string<char, std::__ndk1::char_traits<char>, std::__ndk1::allocator<char> > const&)>::__clone(std::__ndk1::__function::__base<void (std::__ndk1::basic_string<char, std::__ndk1::char_traits<char>, std::__ndk1::allocator<char> > const&)>*) const
FUNC 41d98 4 0 std::__ndk1::__function::__func<Tab1::init()::$_16, std::__ndk1::allocator<Tab1::init()::$_16>, void (std::__ndk1::basic_string<char, std::__ndk1::char_traits<char>, std::__ndk1::allocator<char> > const&)>::destroy()
FUNC 41d9c 4 0 std::__ndk1::__function::__func<Tab1::init()::$_16, std::__ndk1::allocator<Tab1::init()::$_16>, void (std::__ndk1::basic_string<char, std::__ndk1::char_traits<char>, std::__ndk1::allocator<char> > const&)>::destroy_deallocate()
FUNC 41da0 8c 0 std::__ndk1::__function::__func<Tab1::init()::$_16, std::__ndk1::allocator<Tab1::init()::$_16>, void (std::__ndk1::basic_string<char, std::__ndk1::char_traits<char>, std::__ndk1::allocator<char> > const&)>::operator()(std::__ndk1::basic_string<char, std::__ndk1::char_traits<char>, std::__ndk1::allocator<char> > const&)
FUNC 41e2c 1c 0 std::__ndk1::__function::__func<Tab1::init()::$_16, std::__ndk1::allocator<Tab1::init()::$_16>, void (std::__ndk1::basic_string<char, std::__ndk1::char_traits<char>, std::__ndk1::allocator<char> > const&)>::target(std::type_info const&) const
FUNC 41e48 c 0 std::__ndk1::__function::__func<Tab1::init()::$_16, std::__ndk1::allocator<Tab1::init()::$_16>, void (std::__ndk1::basic_string<char, std::__ndk1::char_traits<char>, std::__ndk1::allocator<char> > const&)>::target_type() const
FUNC 41e54 4 0 std::__ndk1::__function::__func<Tab1::init()::$_17, std::__ndk1::allocator<Tab1::init()::$_17>, void (std::__ndk1::basic_string<char, std::__ndk1::char_traits<char>, std::__ndk1::allocator<char> > const&)>::~__func()
FUNC 41e58 34 0 std::__ndk1::__function::__func<Tab1::init()::$_17, std::__ndk1::allocator<Tab1::init()::$_17>, void (std::__ndk1::basic_string<char, std::__ndk1::char_traits<char>, std::__ndk1::allocator<char> > const&)>::__clone() const
FUNC 41e8c 14 0 std::__ndk1::__function::__func<Tab1::init()::$_17, std::__ndk1::allocator<Tab1::init()::$_17>, void (std::__ndk1::basic_string<char, std::__ndk1::char_traits<char>, std::__ndk1::allocator<char> > const&)>::__clone(std::__ndk1::__function::__base<void (std::__ndk1::basic_string<char, std::__ndk1::char_traits<char>, std::__ndk1::allocator<char> > const&)>*) const
FUNC 41ea0 4 0 std::__ndk1::__function::__func<Tab1::init()::$_17, std::__ndk1::allocator<Tab1::init()::$_17>, void (std::__ndk1::basic_string<char, std::__ndk1::char_traits<char>, std::__ndk1::allocator<char> > const&)>::destroy()
FUNC 41ea4 4 0 std::__ndk1::__function::__func<Tab1::init()::$_17, std::__ndk1::allocator<Tab1::init()::$_17>, void (std::__ndk1::basic_string<char, std::__ndk1::char_traits<char>, std::__ndk1::allocator<char> > const&)>::destroy_deallocate()
FUNC 41ea8 8c 0 std::__ndk1::__function::__func<Tab1::init()::$_17, std::__ndk1::allocator<Tab1::init()::$_17>, void (std::__ndk1::basic_string<char, std::__ndk1::char_traits<char>, std::__ndk1::allocator<char> > const&)>::operator()(std::__ndk1::basic_string<char, std::__ndk1::char_traits<char>, std::__ndk1::allocator<char> > const&)
FUNC 41f34 1c 0 std::__ndk1::__function::__func<Tab1::init()::$_17, std::__ndk1::allocator<Tab1::init()::$_17>, void (std::__ndk1::basic_string<char, std::__ndk1::char_traits<char>, std::__ndk1::allocator<char> > const&)>::target(std::type_info const&) const
FUNC 41f50 c 0 std::__ndk1::__function::__func<Tab1::init()::$_17, std::__ndk1::allocator<Tab1::init()::$_17>, void (std::__ndk1::basic_string<char, std::__ndk1::char_traits<char>, std::__ndk1::allocator<char> > const&)>::target_type() const
FUNC 41f5c 4 0 std::__ndk1::__function::__func<Tab1::init()::$_18, std::__ndk1::allocator<Tab1::init()::$_18>, void (std::__ndk1::basic_string<char, std::__ndk1::char_traits<char>, std::__ndk1::allocator<char> > const&)>::~__func()
FUNC 41f60 34 0 std::__ndk1::__function::__func<Tab1::init()::$_18, std::__ndk1::allocator<Tab1::init()::$_18>, void (std::__ndk1::basic_string<char, std::__ndk1::char_traits<char>, std::__ndk1::allocator<char> > const&)>::__clone() const
FUNC 41f94 14 0 std::__ndk1::__function::__func<Tab1::init()::$_18, std::__ndk1::allocator<Tab1::init()::$_18>, void (std::__ndk1::basic_string<char, std::__ndk1::char_traits<char>, std::__ndk1::allocator<char> > const&)>::__clone(std::__ndk1::__function::__base<void (std::__ndk1::basic_string<char, std::__ndk1::char_traits<char>, std::__ndk1::allocator<char> > const&)>*) const
FUNC 41fa8 4 0 std::__ndk1::__function::__func<Tab1::init()::$_18, std::__ndk1::allocator<Tab1::init()::$_18>, void (std::__ndk1::basic_string<char, std::__ndk1::char_traits<char>, std::__ndk1::allocator<char> > const&)>::destroy()
FUNC 41fac 4 0 std::__ndk1::__function::__func<Tab1::init()::$_18, std::__ndk1::allocator<Tab1::init()::$_18>, void (std::__ndk1::basic_string<char, std::__ndk1::char_traits<char>, std::__ndk1::allocator<char> > const&)>::destroy_deallocate()
FUNC 41fb0 8c 0 std::__ndk1::__function::__func<Tab1::init()::$_18, std::__ndk1::allocator<Tab1::init()::$_18>, void (std::__ndk1::basic_string<char, std::__ndk1::char_traits<char>, std::__ndk1::allocator<char> > const&)>::operator()(std::__ndk1::basic_string<char, std::__ndk1::char_traits<char>, std::__ndk1::allocator<char> > const&)
FUNC 4203c 1c 0 std::__ndk1::__function::__func<Tab1::init()::$_18, std::__ndk1::allocator<Tab1::init()::$_18>, void (std::__ndk1::basic_string<char, std::__ndk1::char_traits<char>, std::__ndk1::allocator<char> > const&)>::target(std::type_info const&) const
FUNC 42058 c 0 std::__ndk1::__function::__func<Tab1::init()::$_18, std::__ndk1::allocator<Tab1::init()::$_18>, void (std::__ndk1::basic_string<char, std::__ndk1::char_traits<char>, std::__ndk1::allocator<char> > const&)>::target_type() const
FUNC 42064 4 0 std::__ndk1::__function::__func<Tab1::init()::$_19, std::__ndk1::allocator<Tab1::init()::$_19>, void (std::__ndk1::basic_string<char, std::__ndk1::char_traits<char>, std::__ndk1::allocator<char> > const&)>::~__func()
FUNC 42068 34 0 std::__ndk1::__function::__func<Tab1::init()::$_19, std::__ndk1::allocator<Tab1::init()::$_19>, void (std::__ndk1::basic_string<char, std::__ndk1::char_traits<char>, std::__ndk1::allocator<char> > const&)>::__clone() const
FUNC 4209c 14 0 std::__ndk1::__function::__func<Tab1::init()::$_19, std::__ndk1::allocator<Tab1::init()::$_19>, void (std::__ndk1::basic_string<char, std::__ndk1::char_traits<char>, std::__ndk1::allocator<char> > const&)>::__clone(std::__ndk1::__function::__base<void (std::__ndk1::basic_string<char, std::__ndk1::char_traits<char>, std::__ndk1::allocator<char> > const&)>*) const
FUNC 420b0 4 0 std::__ndk1::__function::__func<Tab1::init()::$_19, std::__ndk1::allocator<Tab1::init()::$_19>, void (std::__ndk1::basic_string<char, std::__ndk1::char_traits<char>, std::__ndk1::allocator<char> > const&)>::destroy()
FUNC 420b4 4 0 std::__ndk1::__function::__func<Tab1::init()::$_19, std::__ndk1::allocator<Tab1::init()::$_19>, void (std::__ndk1::basic_string<char, std::__ndk1::char_traits<char>, std::__ndk1::allocator<char> > const&)>::destroy_deallocate()
FUNC 420b8 8c 0 std::__ndk1::__function::__func<Tab1::init()::$_19, std::__ndk1::allocator<Tab1::init()::$_19>, void (std::__ndk1::basic_string<char, std::__ndk1::char_traits<char>, std::__ndk1::allocator<char> > const&)>::operator()(std::__ndk1::basic_string<char, std::__ndk1::char_traits<char>, std::__ndk1::allocator<char> > const&)
FUNC 42144 1c 0 std::__ndk1::__function::__func<Tab1::init()::$_19, std::__ndk1::allocator<Tab1::init()::$_19>, void (std::__ndk1::basic_string<char, std::__ndk1::char_traits<char>, std::__ndk1::allocator<char> > const&)>::target(std::type_info const&) const
FUNC 42160 c 0 std::__ndk1::__function::__func<Tab1::init()::$_19, std::__ndk1::allocator<Tab1::init()::$_19>, void (std::__ndk1::basic_string<char, std::__ndk1::char_traits<char>, std::__ndk1::allocator<char> > const&)>::target_type() const
FUNC 4216c 2aa4 0 Tab2::init()
FUNC 44c10 b8 0 Tab2::SaveCheckbox(cocos2d::CCObject*)
FUNC 44cc8 b8 0 Tab2::SaveCheckbox2(cocos2d::CCObject*)
FUNC 44d80 b8 0 Tab2::SaveCheckbox3(cocos2d::CCObject*)
FUNC 44e38 b8 0 Tab2::SaveCheckbox4(cocos2d::CCObject*)
FUNC 44ef0 b8 0 Tab2::SaveCheckbox5(cocos2d::CCObject*)
FUNC 44fa8 b8 0 Tab2::SaveCheckbox6(cocos2d::CCObject*)
FUNC 45060 b8 0 Tab2::SaveCheckbox7(cocos2d::CCObject*)
FUNC 45118 b8 0 Tab2::SaveCheckbox8(cocos2d::CCObject*)
FUNC 451d0 b8 0 Tab2::SaveCheckbox9(cocos2d::CCObject*)
FUNC 45288 b8 0 Tab2::SaveCheckbox10(cocos2d::CCObject*)
FUNC 45340 a4 0 Tab2::create()
FUNC 453e4 24 0 Tab2::~Tab2()
FUNC 45408 8 0 {virtual override thunk({offset(-320)}, Tab2::~Tab2())}
FUNC 45410 28 0 {virtual override thunk({offset(-320)}, Tab2::~Tab2())}
FUNC 45438 4 0 std::__ndk1::__function::__func<Tab2::init()::$_0, std::__ndk1::allocator<Tab2::init()::$_0>, void (std::__ndk1::basic_string<char, std::__ndk1::char_traits<char>, std::__ndk1::allocator<char> > const&)>::~__func()
FUNC 4543c 34 0 std::__ndk1::__function::__func<Tab2::init()::$_0, std::__ndk1::allocator<Tab2::init()::$_0>, void (std::__ndk1::basic_string<char, std::__ndk1::char_traits<char>, std::__ndk1::allocator<char> > const&)>::__clone() const
FUNC 45470 14 0 std::__ndk1::__function::__func<Tab2::init()::$_0, std::__ndk1::allocator<Tab2::init()::$_0>, void (std::__ndk1::basic_string<char, std::__ndk1::char_traits<char>, std::__ndk1::allocator<char> > const&)>::__clone(std::__ndk1::__function::__base<void (std::__ndk1::basic_string<char, std::__ndk1::char_traits<char>, std::__ndk1::allocator<char> > const&)>*) const
FUNC 45484 4 0 std::__ndk1::__function::__func<Tab2::init()::$_0, std::__ndk1::allocator<Tab2::init()::$_0>, void (std::__ndk1::basic_string<char, std::__ndk1::char_traits<char>, std::__ndk1::allocator<char> > const&)>::destroy()
FUNC 45488 4 0 std::__ndk1::__function::__func<Tab2::init()::$_0, std::__ndk1::allocator<Tab2::init()::$_0>, void (std::__ndk1::basic_string<char, std::__ndk1::char_traits<char>, std::__ndk1::allocator<char> > const&)>::destroy_deallocate()
FUNC 4548c 8c 0 std::__ndk1::__function::__func<Tab2::init()::$_0, std::__ndk1::allocator<Tab2::init()::$_0>, void (std::__ndk1::basic_string<char, std::__ndk1::char_traits<char>, std::__ndk1::allocator<char> > const&)>::operator()(std::__ndk1::basic_string<char, std::__ndk1::char_traits<char>, std::__ndk1::allocator<char> > const&)
FUNC 45518 1c 0 std::__ndk1::__function::__func<Tab2::init()::$_0, std::__ndk1::allocator<Tab2::init()::$_0>, void (std::__ndk1::basic_string<char, std::__ndk1::char_traits<char>, std::__ndk1::allocator<char> > const&)>::target(std::type_info const&) const
FUNC 45534 c 0 std::__ndk1::__function::__func<Tab2::init()::$_0, std::__ndk1::allocator<Tab2::init()::$_0>, void (std::__ndk1::basic_string<char, std::__ndk1::char_traits<char>, std::__ndk1::allocator<char> > const&)>::target_type() const
FUNC 45540 4 0 std::__ndk1::__function::__func<Tab2::init()::$_1, std::__ndk1::allocator<Tab2::init()::$_1>, void (std::__ndk1::basic_string<char, std::__ndk1::char_traits<char>, std::__ndk1::allocator<char> > const&)>::~__func()
FUNC 45544 34 0 std::__ndk1::__function::__func<Tab2::init()::$_1, std::__ndk1::allocator<Tab2::init()::$_1>, void (std::__ndk1::basic_string<char, std::__ndk1::char_traits<char>, std::__ndk1::allocator<char> > const&)>::__clone() const
FUNC 45578 14 0 std::__ndk1::__function::__func<Tab2::init()::$_1, std::__ndk1::allocator<Tab2::init()::$_1>, void (std::__ndk1::basic_string<char, std::__ndk1::char_traits<char>, std::__ndk1::allocator<char> > const&)>::__clone(std::__ndk1::__function::__base<void (std::__ndk1::basic_string<char, std::__ndk1::char_traits<char>, std::__ndk1::allocator<char> > const&)>*) const
FUNC 4558c 4 0 std::__ndk1::__function::__func<Tab2::init()::$_1, std::__ndk1::allocator<Tab2::init()::$_1>, void (std::__ndk1::basic_string<char, std::__ndk1::char_traits<char>, std::__ndk1::allocator<char> > const&)>::destroy()
FUNC 45590 4 0 std::__ndk1::__function::__func<Tab2::init()::$_1, std::__ndk1::allocator<Tab2::init()::$_1>, void (std::__ndk1::basic_string<char, std::__ndk1::char_traits<char>, std::__ndk1::allocator<char> > const&)>::destroy_deallocate()
FUNC 45594 8c 0 std::__ndk1::__function::__func<Tab2::init()::$_1, std::__ndk1::allocator<Tab2::init()::$_1>, void (std::__ndk1::basic_string<char, std::__ndk1::char_traits<char>, std::__ndk1::allocator<char> > const&)>::operator()(std::__ndk1::basic_string<char, std::__ndk1::char_traits<char>, std::__ndk1::allocator<char> > const&)
FUNC 45620 1c 0 std::__ndk1::__function::__func<Tab2::init()::$_1, std::__ndk1::allocator<Tab2::init()::$_1>, void (std::__ndk1::basic_string<char, std::__ndk1::char_traits<char>, std::__ndk1::allocator<char> > const&)>::target(std::type_info const&) const
FUNC 4563c c 0 std::__ndk1::__function::__func<Tab2::init()::$_1, std::__ndk1::allocator<Tab2::init()::$_1>, void (std::__ndk1::basic_string<char, std::__ndk1::char_traits<char>, std::__ndk1::allocator<char> > const&)>::target_type() const
FUNC 45648 4 0 std::__ndk1::__function::__func<Tab2::init()::$_2, std::__ndk1::allocator<Tab2::init()::$_2>, void (std::__ndk1::basic_string<char, std::__ndk1::char_traits<char>, std::__ndk1::allocator<char> > const&)>::~__func()
FUNC 4564c 34 0 std::__ndk1::__function::__func<Tab2::init()::$_2, std::__ndk1::allocator<Tab2::init()::$_2>, void (std::__ndk1::basic_string<char, std::__ndk1::char_traits<char>, std::__ndk1::allocator<char> > const&)>::__clone() const
FUNC 45680 14 0 std::__ndk1::__function::__func<Tab2::init()::$_2, std::__ndk1::allocator<Tab2::init()::$_2>, void (std::__ndk1::basic_string<char, std::__ndk1::char_traits<char>, std::__ndk1::allocator<char> > const&)>::__clone(std::__ndk1::__function::__base<void (std::__ndk1::basic_string<char, std::__ndk1::char_traits<char>, std::__ndk1::allocator<char> > const&)>*) const
FUNC 45694 4 0 std::__ndk1::__function::__func<Tab2::init()::$_2, std::__ndk1::allocator<Tab2::init()::$_2>, void (std::__ndk1::basic_string<char, std::__ndk1::char_traits<char>, std::__ndk1::allocator<char> > const&)>::destroy()
FUNC 45698 4 0 std::__ndk1::__function::__func<Tab2::init()::$_2, std::__ndk1::allocator<Tab2::init()::$_2>, void (std::__ndk1::basic_string<char, std::__ndk1::char_traits<char>, std::__ndk1::allocator<char> > const&)>::destroy_deallocate()
FUNC 4569c 8c 0 std::__ndk1::__function::__func<Tab2::init()::$_2, std::__ndk1::allocator<Tab2::init()::$_2>, void (std::__ndk1::basic_string<char, std::__ndk1::char_traits<char>, std::__ndk1::allocator<char> > const&)>::operator()(std::__ndk1::basic_string<char, std::__ndk1::char_traits<char>, std::__ndk1::allocator<char> > const&)
FUNC 45728 1c 0 std::__ndk1::__function::__func<Tab2::init()::$_2, std::__ndk1::allocator<Tab2::init()::$_2>, void (std::__ndk1::basic_string<char, std::__ndk1::char_traits<char>, std::__ndk1::allocator<char> > const&)>::target(std::type_info const&) const
FUNC 45744 c 0 std::__ndk1::__function::__func<Tab2::init()::$_2, std::__ndk1::allocator<Tab2::init()::$_2>, void (std::__ndk1::basic_string<char, std::__ndk1::char_traits<char>, std::__ndk1::allocator<char> > const&)>::target_type() const
FUNC 45750 4 0 std::__ndk1::__function::__func<Tab2::init()::$_3, std::__ndk1::allocator<Tab2::init()::$_3>, void (std::__ndk1::basic_string<char, std::__ndk1::char_traits<char>, std::__ndk1::allocator<char> > const&)>::~__func()
FUNC 45754 34 0 std::__ndk1::__function::__func<Tab2::init()::$_3, std::__ndk1::allocator<Tab2::init()::$_3>, void (std::__ndk1::basic_string<char, std::__ndk1::char_traits<char>, std::__ndk1::allocator<char> > const&)>::__clone() const
FUNC 45788 14 0 std::__ndk1::__function::__func<Tab2::init()::$_3, std::__ndk1::allocator<Tab2::init()::$_3>, void (std::__ndk1::basic_string<char, std::__ndk1::char_traits<char>, std::__ndk1::allocator<char> > const&)>::__clone(std::__ndk1::__function::__base<void (std::__ndk1::basic_string<char, std::__ndk1::char_traits<char>, std::__ndk1::allocator<char> > const&)>*) const
FUNC 4579c 4 0 std::__ndk1::__function::__func<Tab2::init()::$_3, std::__ndk1::allocator<Tab2::init()::$_3>, void (std::__ndk1::basic_string<char, std::__ndk1::char_traits<char>, std::__ndk1::allocator<char> > const&)>::destroy()
FUNC 457a0 4 0 std::__ndk1::__function::__func<Tab2::init()::$_3, std::__ndk1::allocator<Tab2::init()::$_3>, void (std::__ndk1::basic_string<char, std::__ndk1::char_traits<char>, std::__ndk1::allocator<char> > const&)>::destroy_deallocate()
FUNC 457a4 8c 0 std::__ndk1::__function::__func<Tab2::init()::$_3, std::__ndk1::allocator<Tab2::init()::$_3>, void (std::__ndk1::basic_string<char, std::__ndk1::char_traits<char>, std::__ndk1::allocator<char> > const&)>::operator()(std::__ndk1::basic_string<char, std::__ndk1::char_traits<char>, std::__ndk1::allocator<char> > const&)
FUNC 45830 1c 0 std::__ndk1::__function::__func<Tab2::init()::$_3, std::__ndk1::allocator<Tab2::init()::$_3>, void (std::__ndk1::basic_string<char, std::__ndk1::char_traits<char>, std::__ndk1::allocator<char> > const&)>::target(std::type_info const&) const
FUNC 4584c c 0 std::__ndk1::__function::__func<Tab2::init()::$_3, std::__ndk1::allocator<Tab2::init()::$_3>, void (std::__ndk1::basic_string<char, std::__ndk1::char_traits<char>, std::__ndk1::allocator<char> > const&)>::target_type() const
FUNC 45858 4 0 std::__ndk1::__function::__func<Tab2::init()::$_4, std::__ndk1::allocator<Tab2::init()::$_4>, void (std::__ndk1::basic_string<char, std::__ndk1::char_traits<char>, std::__ndk1::allocator<char> > const&)>::~__func()
FUNC 4585c 34 0 std::__ndk1::__function::__func<Tab2::init()::$_4, std::__ndk1::allocator<Tab2::init()::$_4>, void (std::__ndk1::basic_string<char, std::__ndk1::char_traits<char>, std::__ndk1::allocator<char> > const&)>::__clone() const
FUNC 45890 14 0 std::__ndk1::__function::__func<Tab2::init()::$_4, std::__ndk1::allocator<Tab2::init()::$_4>, void (std::__ndk1::basic_string<char, std::__ndk1::char_traits<char>, std::__ndk1::allocator<char> > const&)>::__clone(std::__ndk1::__function::__base<void (std::__ndk1::basic_string<char, std::__ndk1::char_traits<char>, std::__ndk1::allocator<char> > const&)>*) const
FUNC 458a4 4 0 std::__ndk1::__function::__func<Tab2::init()::$_4, std::__ndk1::allocator<Tab2::init()::$_4>, void (std::__ndk1::basic_string<char, std::__ndk1::char_traits<char>, std::__ndk1::allocator<char> > const&)>::destroy()
FUNC 458a8 4 0 std::__ndk1::__function::__func<Tab2::init()::$_4, std::__ndk1::allocator<Tab2::init()::$_4>, void (std::__ndk1::basic_string<char, std::__ndk1::char_traits<char>, std::__ndk1::allocator<char> > const&)>::destroy_deallocate()
FUNC 458ac 8c 0 std::__ndk1::__function::__func<Tab2::init()::$_4, std::__ndk1::allocator<Tab2::init()::$_4>, void (std::__ndk1::basic_string<char, std::__ndk1::char_traits<char>, std::__ndk1::allocator<char> > const&)>::operator()(std::__ndk1::basic_string<char, std::__ndk1::char_traits<char>, std::__ndk1::allocator<char> > const&)
FUNC 45938 1c 0 std::__ndk1::__function::__func<Tab2::init()::$_4, std::__ndk1::allocator<Tab2::init()::$_4>, void (std::__ndk1::basic_string<char, std::__ndk1::char_traits<char>, std::__ndk1::allocator<char> > const&)>::target(std::type_info const&) const
FUNC 45954 c 0 std::__ndk1::__function::__func<Tab2::init()::$_4, std::__ndk1::allocator<Tab2::init()::$_4>, void (std::__ndk1::basic_string<char, std::__ndk1::char_traits<char>, std::__ndk1::allocator<char> > const&)>::target_type() const
FUNC 45960 4 0 std::__ndk1::__function::__func<Tab2::init()::$_5, std::__ndk1::allocator<Tab2::init()::$_5>, void (std::__ndk1::basic_string<char, std::__ndk1::char_traits<char>, std::__ndk1::allocator<char> > const&)>::~__func()
FUNC 45964 34 0 std::__ndk1::__function::__func<Tab2::init()::$_5, std::__ndk1::allocator<Tab2::init()::$_5>, void (std::__ndk1::basic_string<char, std::__ndk1::char_traits<char>, std::__ndk1::allocator<char> > const&)>::__clone() const
FUNC 45998 14 0 std::__ndk1::__function::__func<Tab2::init()::$_5, std::__ndk1::allocator<Tab2::init()::$_5>, void (std::__ndk1::basic_string<char, std::__ndk1::char_traits<char>, std::__ndk1::allocator<char> > const&)>::__clone(std::__ndk1::__function::__base<void (std::__ndk1::basic_string<char, std::__ndk1::char_traits<char>, std::__ndk1::allocator<char> > const&)>*) const
FUNC 459ac 4 0 std::__ndk1::__function::__func<Tab2::init()::$_5, std::__ndk1::allocator<Tab2::init()::$_5>, void (std::__ndk1::basic_string<char, std::__ndk1::char_traits<char>, std::__ndk1::allocator<char> > const&)>::destroy()
FUNC 459b0 4 0 std::__ndk1::__function::__func<Tab2::init()::$_5, std::__ndk1::allocator<Tab2::init()::$_5>, void (std::__ndk1::basic_string<char, std::__ndk1::char_traits<char>, std::__ndk1::allocator<char> > const&)>::destroy_deallocate()
FUNC 459b4 8c 0 std::__ndk1::__function::__func<Tab2::init()::$_5, std::__ndk1::allocator<Tab2::init()::$_5>, void (std::__ndk1::basic_string<char, std::__ndk1::char_traits<char>, std::__ndk1::allocator<char> > const&)>::operator()(std::__ndk1::basic_string<char, std::__ndk1::char_traits<char>, std::__ndk1::allocator<char> > const&)
FUNC 45a40 1c 0 std::__ndk1::__function::__func<Tab2::init()::$_5, std::__ndk1::allocator<Tab2::init()::$_5>, void (std::__ndk1::basic_string<char, std::__ndk1::char_traits<char>, std::__ndk1::allocator<char> > const&)>::target(std::type_info const&) const
FUNC 45a5c c 0 std::__ndk1::__function::__func<Tab2::init()::$_5, std::__ndk1::allocator<Tab2::init()::$_5>, void (std::__ndk1::basic_string<char, std::__ndk1::char_traits<char>, std::__ndk1::allocator<char> > const&)>::target_type() const
FUNC 45a68 4 0 std::__ndk1::__function::__func<Tab2::init()::$_6, std::__ndk1::allocator<Tab2::init()::$_6>, void (std::__ndk1::basic_string<char, std::__ndk1::char_traits<char>, std::__ndk1::allocator<char> > const&)>::~__func()
FUNC 45a6c 34 0 std::__ndk1::__function::__func<Tab2::init()::$_6, std::__ndk1::allocator<Tab2::init()::$_6>, void (std::__ndk1::basic_string<char, std::__ndk1::char_traits<char>, std::__ndk1::allocator<char> > const&)>::__clone() const
FUNC 45aa0 14 0 std::__ndk1::__function::__func<Tab2::init()::$_6, std::__ndk1::allocator<Tab2::init()::$_6>, void (std::__ndk1::basic_string<char, std::__ndk1::char_traits<char>, std::__ndk1::allocator<char> > const&)>::__clone(std::__ndk1::__function::__base<void (std::__ndk1::basic_string<char, std::__ndk1::char_traits<char>, std::__ndk1::allocator<char> > const&)>*) const
FUNC 45ab4 4 0 std::__ndk1::__function::__func<Tab2::init()::$_6, std::__ndk1::allocator<Tab2::init()::$_6>, void (std::__ndk1::basic_string<char, std::__ndk1::char_traits<char>, std::__ndk1::allocator<char> > const&)>::destroy()
FUNC 45ab8 4 0 std::__ndk1::__function::__func<Tab2::init()::$_6, std::__ndk1::allocator<Tab2::init()::$_6>, void (std::__ndk1::basic_string<char, std::__ndk1::char_traits<char>, std::__ndk1::allocator<char> > const&)>::destroy_deallocate()
FUNC 45abc 8c 0 std::__ndk1::__function::__func<Tab2::init()::$_6, std::__ndk1::allocator<Tab2::init()::$_6>, void (std::__ndk1::basic_string<char, std::__ndk1::char_traits<char>, std::__ndk1::allocator<char> > const&)>::operator()(std::__ndk1::basic_string<char, std::__ndk1::char_traits<char>, std::__ndk1::allocator<char> > const&)
FUNC 45b48 1c 0 std::__ndk1::__function::__func<Tab2::init()::$_6, std::__ndk1::allocator<Tab2::init()::$_6>, void (std::__ndk1::basic_string<char, std::__ndk1::char_traits<char>, std::__ndk1::allocator<char> > const&)>::target(std::type_info const&) const
FUNC 45b64 c 0 std::__ndk1::__function::__func<Tab2::init()::$_6, std::__ndk1::allocator<Tab2::init()::$_6>, void (std::__ndk1::basic_string<char, std::__ndk1::char_traits<char>, std::__ndk1::allocator<char> > const&)>::target_type() const
FUNC 45b70 4 0 std::__ndk1::__function::__func<Tab2::init()::$_7, std::__ndk1::allocator<Tab2::init()::$_7>, void (std::__ndk1::basic_string<char, std::__ndk1::char_traits<char>, std::__ndk1::allocator<char> > const&)>::~__func()
FUNC 45b74 34 0 std::__ndk1::__function::__func<Tab2::init()::$_7, std::__ndk1::allocator<Tab2::init()::$_7>, void (std::__ndk1::basic_string<char, std::__ndk1::char_traits<char>, std::__ndk1::allocator<char> > const&)>::__clone() const
FUNC 45ba8 14 0 std::__ndk1::__function::__func<Tab2::init()::$_7, std::__ndk1::allocator<Tab2::init()::$_7>, void (std::__ndk1::basic_string<char, std::__ndk1::char_traits<char>, std::__ndk1::allocator<char> > const&)>::__clone(std::__ndk1::__function::__base<void (std::__ndk1::basic_string<char, std::__ndk1::char_traits<char>, std::__ndk1::allocator<char> > const&)>*) const
FUNC 45bbc 4 0 std::__ndk1::__function::__func<Tab2::init()::$_7, std::__ndk1::allocator<Tab2::init()::$_7>, void (std::__ndk1::basic_string<char, std::__ndk1::char_traits<char>, std::__ndk1::allocator<char> > const&)>::destroy()
FUNC 45bc0 4 0 std::__ndk1::__function::__func<Tab2::init()::$_7, std::__ndk1::allocator<Tab2::init()::$_7>, void (std::__ndk1::basic_string<char, std::__ndk1::char_traits<char>, std::__ndk1::allocator<char> > const&)>::destroy_deallocate()
FUNC 45bc4 8c 0 std::__ndk1::__function::__func<Tab2::init()::$_7, std::__ndk1::allocator<Tab2::init()::$_7>, void (std::__ndk1::basic_string<char, std::__ndk1::char_traits<char>, std::__ndk1::allocator<char> > const&)>::operator()(std::__ndk1::basic_string<char, std::__ndk1::char_traits<char>, std::__ndk1::allocator<char> > const&)
FUNC 45c50 1c 0 std::__ndk1::__function::__func<Tab2::init()::$_7, std::__ndk1::allocator<Tab2::init()::$_7>, void (std::__ndk1::basic_string<char, std::__ndk1::char_traits<char>, std::__ndk1::allocator<char> > const&)>::target(std::type_info const&) const
FUNC 45c6c c 0 std::__ndk1::__function::__func<Tab2::init()::$_7, std::__ndk1::allocator<Tab2::init()::$_7>, void (std::__ndk1::basic_string<char, std::__ndk1::char_traits<char>, std::__ndk1::allocator<char> > const&)>::target_type() const
FUNC 45c78 4 0 std::__ndk1::__function::__func<Tab2::init()::$_8, std::__ndk1::allocator<Tab2::init()::$_8>, void (std::__ndk1::basic_string<char, std::__ndk1::char_traits<char>, std::__ndk1::allocator<char> > const&)>::~__func()
FUNC 45c7c 34 0 std::__ndk1::__function::__func<Tab2::init()::$_8, std::__ndk1::allocator<Tab2::init()::$_8>, void (std::__ndk1::basic_string<char, std::__ndk1::char_traits<char>, std::__ndk1::allocator<char> > const&)>::__clone() const
FUNC 45cb0 14 0 std::__ndk1::__function::__func<Tab2::init()::$_8, std::__ndk1::allocator<Tab2::init()::$_8>, void (std::__ndk1::basic_string<char, std::__ndk1::char_traits<char>, std::__ndk1::allocator<char> > const&)>::__clone(std::__ndk1::__function::__base<void (std::__ndk1::basic_string<char, std::__ndk1::char_traits<char>, std::__ndk1::allocator<char> > const&)>*) const
FUNC 45cc4 4 0 std::__ndk1::__function::__func<Tab2::init()::$_8, std::__ndk1::allocator<Tab2::init()::$_8>, void (std::__ndk1::basic_string<char, std::__ndk1::char_traits<char>, std::__ndk1::allocator<char> > const&)>::destroy()
FUNC 45cc8 4 0 std::__ndk1::__function::__func<Tab2::init()::$_8, std::__ndk1::allocator<Tab2::init()::$_8>, void (std::__ndk1::basic_string<char, std::__ndk1::char_traits<char>, std::__ndk1::allocator<char> > const&)>::destroy_deallocate()
FUNC 45ccc 8c 0 std::__ndk1::__function::__func<Tab2::init()::$_8, std::__ndk1::allocator<Tab2::init()::$_8>, void (std::__ndk1::basic_string<char, std::__ndk1::char_traits<char>, std::__ndk1::allocator<char> > const&)>::operator()(std::__ndk1::basic_string<char, std::__ndk1::char_traits<char>, std::__ndk1::allocator<char> > const&)
FUNC 45d58 1c 0 std::__ndk1::__function::__func<Tab2::init()::$_8, std::__ndk1::allocator<Tab2::init()::$_8>, void (std::__ndk1::basic_string<char, std::__ndk1::char_traits<char>, std::__ndk1::allocator<char> > const&)>::target(std::type_info const&) const
FUNC 45d74 c 0 std::__ndk1::__function::__func<Tab2::init()::$_8, std::__ndk1::allocator<Tab2::init()::$_8>, void (std::__ndk1::basic_string<char, std::__ndk1::char_traits<char>, std::__ndk1::allocator<char> > const&)>::target_type() const
FUNC 45d80 4 0 std::__ndk1::__function::__func<Tab2::init()::$_9, std::__ndk1::allocator<Tab2::init()::$_9>, void (std::__ndk1::basic_string<char, std::__ndk1::char_traits<char>, std::__ndk1::allocator<char> > const&)>::~__func()
FUNC 45d84 34 0 std::__ndk1::__function::__func<Tab2::init()::$_9, std::__ndk1::allocator<Tab2::init()::$_9>, void (std::__ndk1::basic_string<char, std::__ndk1::char_traits<char>, std::__ndk1::allocator<char> > const&)>::__clone() const
FUNC 45db8 14 0 std::__ndk1::__function::__func<Tab2::init()::$_9, std::__ndk1::allocator<Tab2::init()::$_9>, void (std::__ndk1::basic_string<char, std::__ndk1::char_traits<char>, std::__ndk1::allocator<char> > const&)>::__clone(std::__ndk1::__function::__base<void (std::__ndk1::basic_string<char, std::__ndk1::char_traits<char>, std::__ndk1::allocator<char> > const&)>*) const
FUNC 45dcc 4 0 std::__ndk1::__function::__func<Tab2::init()::$_9, std::__ndk1::allocator<Tab2::init()::$_9>, void (std::__ndk1::basic_string<char, std::__ndk1::char_traits<char>, std::__ndk1::allocator<char> > const&)>::destroy()
FUNC 45dd0 4 0 std::__ndk1::__function::__func<Tab2::init()::$_9, std::__ndk1::allocator<Tab2::init()::$_9>, void (std::__ndk1::basic_string<char, std::__ndk1::char_traits<char>, std::__ndk1::allocator<char> > const&)>::destroy_deallocate()
FUNC 45dd4 8c 0 std::__ndk1::__function::__func<Tab2::init()::$_9, std::__ndk1::allocator<Tab2::init()::$_9>, void (std::__ndk1::basic_string<char, std::__ndk1::char_traits<char>, std::__ndk1::allocator<char> > const&)>::operator()(std::__ndk1::basic_string<char, std::__ndk1::char_traits<char>, std::__ndk1::allocator<char> > const&)
FUNC 45e60 1c 0 std::__ndk1::__function::__func<Tab2::init()::$_9, std::__ndk1::allocator<Tab2::init()::$_9>, void (std::__ndk1::basic_string<char, std::__ndk1::char_traits<char>, std::__ndk1::allocator<char> > const&)>::target(std::type_info const&) const
FUNC 45e7c c 0 std::__ndk1::__function::__func<Tab2::init()::$_9, std::__ndk1::allocator<Tab2::init()::$_9>, void (std::__ndk1::basic_string<char, std::__ndk1::char_traits<char>, std::__ndk1::allocator<char> > const&)>::target_type() const
FUNC 45e88 4 0 std::__ndk1::__function::__func<Tab2::init()::$_10, std::__ndk1::allocator<Tab2::init()::$_10>, void (std::__ndk1::basic_string<char, std::__ndk1::char_traits<char>, std::__ndk1::allocator<char> > const&)>::~__func()
FUNC 45e8c 34 0 std::__ndk1::__function::__func<Tab2::init()::$_10, std::__ndk1::allocator<Tab2::init()::$_10>, void (std::__ndk1::basic_string<char, std::__ndk1::char_traits<char>, std::__ndk1::allocator<char> > const&)>::__clone() const
FUNC 45ec0 14 0 std::__ndk1::__function::__func<Tab2::init()::$_10, std::__ndk1::allocator<Tab2::init()::$_10>, void (std::__ndk1::basic_string<char, std::__ndk1::char_traits<char>, std::__ndk1::allocator<char> > const&)>::__clone(std::__ndk1::__function::__base<void (std::__ndk1::basic_string<char, std::__ndk1::char_traits<char>, std::__ndk1::allocator<char> > const&)>*) const
FUNC 45ed4 4 0 std::__ndk1::__function::__func<Tab2::init()::$_10, std::__ndk1::allocator<Tab2::init()::$_10>, void (std::__ndk1::basic_string<char, std::__ndk1::char_traits<char>, std::__ndk1::allocator<char> > const&)>::destroy()
FUNC 45ed8 4 0 std::__ndk1::__function::__func<Tab2::init()::$_10, std::__ndk1::allocator<Tab2::init()::$_10>, void (std::__ndk1::basic_string<char, std::__ndk1::char_traits<char>, std::__ndk1::allocator<char> > const&)>::destroy_deallocate()
FUNC 45edc 8c 0 std::__ndk1::__function::__func<Tab2::init()::$_10, std::__ndk1::allocator<Tab2::init()::$_10>, void (std::__ndk1::basic_string<char, std::__ndk1::char_traits<char>, std::__ndk1::allocator<char> > const&)>::operator()(std::__ndk1::basic_string<char, std::__ndk1::char_traits<char>, std::__ndk1::allocator<char> > const&)
FUNC 45f68 1c 0 std::__ndk1::__function::__func<Tab2::init()::$_10, std::__ndk1::allocator<Tab2::init()::$_10>, void (std::__ndk1::basic_string<char, std::__ndk1::char_traits<char>, std::__ndk1::allocator<char> > const&)>::target(std::type_info const&) const
FUNC 45f84 c 0 std::__ndk1::__function::__func<Tab2::init()::$_10, std::__ndk1::allocator<Tab2::init()::$_10>, void (std::__ndk1::basic_string<char, std::__ndk1::char_traits<char>, std::__ndk1::allocator<char> > const&)>::target_type() const
FUNC 45f90 4 0 std::__ndk1::__function::__func<Tab2::init()::$_11, std::__ndk1::allocator<Tab2::init()::$_11>, void (std::__ndk1::basic_string<char, std::__ndk1::char_traits<char>, std::__ndk1::allocator<char> > const&)>::~__func()
FUNC 45f94 34 0 std::__ndk1::__function::__func<Tab2::init()::$_11, std::__ndk1::allocator<Tab2::init()::$_11>, void (std::__ndk1::basic_string<char, std::__ndk1::char_traits<char>, std::__ndk1::allocator<char> > const&)>::__clone() const
FUNC 45fc8 14 0 std::__ndk1::__function::__func<Tab2::init()::$_11, std::__ndk1::allocator<Tab2::init()::$_11>, void (std::__ndk1::basic_string<char, std::__ndk1::char_traits<char>, std::__ndk1::allocator<char> > const&)>::__clone(std::__ndk1::__function::__base<void (std::__ndk1::basic_string<char, std::__ndk1::char_traits<char>, std::__ndk1::allocator<char> > const&)>*) const
FUNC 45fdc 4 0 std::__ndk1::__function::__func<Tab2::init()::$_11, std::__ndk1::allocator<Tab2::init()::$_11>, void (std::__ndk1::basic_string<char, std::__ndk1::char_traits<char>, std::__ndk1::allocator<char> > const&)>::destroy()
FUNC 45fe0 4 0 std::__ndk1::__function::__func<Tab2::init()::$_11, std::__ndk1::allocator<Tab2::init()::$_11>, void (std::__ndk1::basic_string<char, std::__ndk1::char_traits<char>, std::__ndk1::allocator<char> > const&)>::destroy_deallocate()
FUNC 45fe4 8c 0 std::__ndk1::__function::__func<Tab2::init()::$_11, std::__ndk1::allocator<Tab2::init()::$_11>, void (std::__ndk1::basic_string<char, std::__ndk1::char_traits<char>, std::__ndk1::allocator<char> > const&)>::operator()(std::__ndk1::basic_string<char, std::__ndk1::char_traits<char>, std::__ndk1::allocator<char> > const&)
FUNC 46070 1c 0 std::__ndk1::__function::__func<Tab2::init()::$_11, std::__ndk1::allocator<Tab2::init()::$_11>, void (std::__ndk1::basic_string<char, std::__ndk1::char_traits<char>, std::__ndk1::allocator<char> > const&)>::target(std::type_info const&) const
FUNC 4608c c 0 std::__ndk1::__function::__func<Tab2::init()::$_11, std::__ndk1::allocator<Tab2::init()::$_11>, void (std::__ndk1::basic_string<char, std::__ndk1::char_traits<char>, std::__ndk1::allocator<char> > const&)>::target_type() const
FUNC 46098 4 0 std::__ndk1::__function::__func<Tab2::init()::$_12, std::__ndk1::allocator<Tab2::init()::$_12>, void (std::__ndk1::basic_string<char, std::__ndk1::char_traits<char>, std::__ndk1::allocator<char> > const&)>::~__func()
FUNC 4609c 34 0 std::__ndk1::__function::__func<Tab2::init()::$_12, std::__ndk1::allocator<Tab2::init()::$_12>, void (std::__ndk1::basic_string<char, std::__ndk1::char_traits<char>, std::__ndk1::allocator<char> > const&)>::__clone() const
FUNC 460d0 14 0 std::__ndk1::__function::__func<Tab2::init()::$_12, std::__ndk1::allocator<Tab2::init()::$_12>, void (std::__ndk1::basic_string<char, std::__ndk1::char_traits<char>, std::__ndk1::allocator<char> > const&)>::__clone(std::__ndk1::__function::__base<void (std::__ndk1::basic_string<char, std::__ndk1::char_traits<char>, std::__ndk1::allocator<char> > const&)>*) const
FUNC 460e4 4 0 std::__ndk1::__function::__func<Tab2::init()::$_12, std::__ndk1::allocator<Tab2::init()::$_12>, void (std::__ndk1::basic_string<char, std::__ndk1::char_traits<char>, std::__ndk1::allocator<char> > const&)>::destroy()
FUNC 460e8 4 0 std::__ndk1::__function::__func<Tab2::init()::$_12, std::__ndk1::allocator<Tab2::init()::$_12>, void (std::__ndk1::basic_string<char, std::__ndk1::char_traits<char>, std::__ndk1::allocator<char> > const&)>::destroy_deallocate()
FUNC 460ec 8c 0 std::__ndk1::__function::__func<Tab2::init()::$_12, std::__ndk1::allocator<Tab2::init()::$_12>, void (std::__ndk1::basic_string<char, std::__ndk1::char_traits<char>, std::__ndk1::allocator<char> > const&)>::operator()(std::__ndk1::basic_string<char, std::__ndk1::char_traits<char>, std::__ndk1::allocator<char> > const&)
FUNC 46178 1c 0 std::__ndk1::__function::__func<Tab2::init()::$_12, std::__ndk1::allocator<Tab2::init()::$_12>, void (std::__ndk1::basic_string<char, std::__ndk1::char_traits<char>, std::__ndk1::allocator<char> > const&)>::target(std::type_info const&) const
FUNC 46194 c 0 std::__ndk1::__function::__func<Tab2::init()::$_12, std::__ndk1::allocator<Tab2::init()::$_12>, void (std::__ndk1::basic_string<char, std::__ndk1::char_traits<char>, std::__ndk1::allocator<char> > const&)>::target_type() const
FUNC 461a0 4 0 std::__ndk1::__function::__func<Tab2::init()::$_13, std::__ndk1::allocator<Tab2::init()::$_13>, void (std::__ndk1::basic_string<char, std::__ndk1::char_traits<char>, std::__ndk1::allocator<char> > const&)>::~__func()
FUNC 461a4 34 0 std::__ndk1::__function::__func<Tab2::init()::$_13, std::__ndk1::allocator<Tab2::init()::$_13>, void (std::__ndk1::basic_string<char, std::__ndk1::char_traits<char>, std::__ndk1::allocator<char> > const&)>::__clone() const
FUNC 461d8 14 0 std::__ndk1::__function::__func<Tab2::init()::$_13, std::__ndk1::allocator<Tab2::init()::$_13>, void (std::__ndk1::basic_string<char, std::__ndk1::char_traits<char>, std::__ndk1::allocator<char> > const&)>::__clone(std::__ndk1::__function::__base<void (std::__ndk1::basic_string<char, std::__ndk1::char_traits<char>, std::__ndk1::allocator<char> > const&)>*) const
FUNC 461ec 4 0 std::__ndk1::__function::__func<Tab2::init()::$_13, std::__ndk1::allocator<Tab2::init()::$_13>, void (std::__ndk1::basic_string<char, std::__ndk1::char_traits<char>, std::__ndk1::allocator<char> > const&)>::destroy()
FUNC 461f0 4 0 std::__ndk1::__function::__func<Tab2::init()::$_13, std::__ndk1::allocator<Tab2::init()::$_13>, void (std::__ndk1::basic_string<char, std::__ndk1::char_traits<char>, std::__ndk1::allocator<char> > const&)>::destroy_deallocate()
FUNC 461f4 8c 0 std::__ndk1::__function::__func<Tab2::init()::$_13, std::__ndk1::allocator<Tab2::init()::$_13>, void (std::__ndk1::basic_string<char, std::__ndk1::char_traits<char>, std::__ndk1::allocator<char> > const&)>::operator()(std::__ndk1::basic_string<char, std::__ndk1::char_traits<char>, std::__ndk1::allocator<char> > const&)
FUNC 46280 1c 0 std::__ndk1::__function::__func<Tab2::init()::$_13, std::__ndk1::allocator<Tab2::init()::$_13>, void (std::__ndk1::basic_string<char, std::__ndk1::char_traits<char>, std::__ndk1::allocator<char> > const&)>::target(std::type_info const&) const
FUNC 4629c c 0 std::__ndk1::__function::__func<Tab2::init()::$_13, std::__ndk1::allocator<Tab2::init()::$_13>, void (std::__ndk1::basic_string<char, std::__ndk1::char_traits<char>, std::__ndk1::allocator<char> > const&)>::target_type() const
FUNC 462a8 4 0 std::__ndk1::__function::__func<Tab2::init()::$_14, std::__ndk1::allocator<Tab2::init()::$_14>, void (std::__ndk1::basic_string<char, std::__ndk1::char_traits<char>, std::__ndk1::allocator<char> > const&)>::~__func()
FUNC 462ac 34 0 std::__ndk1::__function::__func<Tab2::init()::$_14, std::__ndk1::allocator<Tab2::init()::$_14>, void (std::__ndk1::basic_string<char, std::__ndk1::char_traits<char>, std::__ndk1::allocator<char> > const&)>::__clone() const
FUNC 462e0 14 0 std::__ndk1::__function::__func<Tab2::init()::$_14, std::__ndk1::allocator<Tab2::init()::$_14>, void (std::__ndk1::basic_string<char, std::__ndk1::char_traits<char>, std::__ndk1::allocator<char> > const&)>::__clone(std::__ndk1::__function::__base<void (std::__ndk1::basic_string<char, std::__ndk1::char_traits<char>, std::__ndk1::allocator<char> > const&)>*) const
FUNC 462f4 4 0 std::__ndk1::__function::__func<Tab2::init()::$_14, std::__ndk1::allocator<Tab2::init()::$_14>, void (std::__ndk1::basic_string<char, std::__ndk1::char_traits<char>, std::__ndk1::allocator<char> > const&)>::destroy()
FUNC 462f8 4 0 std::__ndk1::__function::__func<Tab2::init()::$_14, std::__ndk1::allocator<Tab2::init()::$_14>, void (std::__ndk1::basic_string<char, std::__ndk1::char_traits<char>, std::__ndk1::allocator<char> > const&)>::destroy_deallocate()
FUNC 462fc 8c 0 std::__ndk1::__function::__func<Tab2::init()::$_14, std::__ndk1::allocator<Tab2::init()::$_14>, void (std::__ndk1::basic_string<char, std::__ndk1::char_traits<char>, std::__ndk1::allocator<char> > const&)>::operator()(std::__ndk1::basic_string<char, std::__ndk1::char_traits<char>, std::__ndk1::allocator<char> > const&)
FUNC 46388 1c 0 std::__ndk1::__function::__func<Tab2::init()::$_14, std::__ndk1::allocator<Tab2::init()::$_14>, void (std::__ndk1::basic_string<char, std::__ndk1::char_traits<char>, std::__ndk1::allocator<char> > const&)>::target(std::type_info const&) const
FUNC 463a4 c 0 std::__ndk1::__function::__func<Tab2::init()::$_14, std::__ndk1::allocator<Tab2::init()::$_14>, void (std::__ndk1::basic_string<char, std::__ndk1::char_traits<char>, std::__ndk1::allocator<char> > const&)>::target_type() const
FUNC 463b0 4 0 std::__ndk1::__function::__func<Tab2::init()::$_15, std::__ndk1::allocator<Tab2::init()::$_15>, void (std::__ndk1::basic_string<char, std::__ndk1::char_traits<char>, std::__ndk1::allocator<char> > const&)>::~__func()
FUNC 463b4 34 0 std::__ndk1::__function::__func<Tab2::init()::$_15, std::__ndk1::allocator<Tab2::init()::$_15>, void (std::__ndk1::basic_string<char, std::__ndk1::char_traits<char>, std::__ndk1::allocator<char> > const&)>::__clone() const
FUNC 463e8 14 0 std::__ndk1::__function::__func<Tab2::init()::$_15, std::__ndk1::allocator<Tab2::init()::$_15>, void (std::__ndk1::basic_string<char, std::__ndk1::char_traits<char>, std::__ndk1::allocator<char> > const&)>::__clone(std::__ndk1::__function::__base<void (std::__ndk1::basic_string<char, std::__ndk1::char_traits<char>, std::__ndk1::allocator<char> > const&)>*) const
FUNC 463fc 4 0 std::__ndk1::__function::__func<Tab2::init()::$_15, std::__ndk1::allocator<Tab2::init()::$_15>, void (std::__ndk1::basic_string<char, std::__ndk1::char_traits<char>, std::__ndk1::allocator<char> > const&)>::destroy()
FUNC 46400 4 0 std::__ndk1::__function::__func<Tab2::init()::$_15, std::__ndk1::allocator<Tab2::init()::$_15>, void (std::__ndk1::basic_string<char, std::__ndk1::char_traits<char>, std::__ndk1::allocator<char> > const&)>::destroy_deallocate()
FUNC 46404 8c 0 std::__ndk1::__function::__func<Tab2::init()::$_15, std::__ndk1::allocator<Tab2::init()::$_15>, void (std::__ndk1::basic_string<char, std::__ndk1::char_traits<char>, std::__ndk1::allocator<char> > const&)>::operator()(std::__ndk1::basic_string<char, std::__ndk1::char_traits<char>, std::__ndk1::allocator<char> > const&)
FUNC 46490 1c 0 std::__ndk1::__function::__func<Tab2::init()::$_15, std::__ndk1::allocator<Tab2::init()::$_15>, void (std::__ndk1::basic_string<char, std::__ndk1::char_traits<char>, std::__ndk1::allocator<char> > const&)>::target(std::type_info const&) const
FUNC 464ac c 0 std::__ndk1::__function::__func<Tab2::init()::$_15, std::__ndk1::allocator<Tab2::init()::$_15>, void (std::__ndk1::basic_string<char, std::__ndk1::char_traits<char>, std::__ndk1::allocator<char> > const&)>::target_type() const
FUNC 464b8 4 0 std::__ndk1::__function::__func<Tab2::init()::$_16, std::__ndk1::allocator<Tab2::init()::$_16>, void (std::__ndk1::basic_string<char, std::__ndk1::char_traits<char>, std::__ndk1::allocator<char> > const&)>::~__func()
FUNC 464bc 34 0 std::__ndk1::__function::__func<Tab2::init()::$_16, std::__ndk1::allocator<Tab2::init()::$_16>, void (std::__ndk1::basic_string<char, std::__ndk1::char_traits<char>, std::__ndk1::allocator<char> > const&)>::__clone() const
FUNC 464f0 14 0 std::__ndk1::__function::__func<Tab2::init()::$_16, std::__ndk1::allocator<Tab2::init()::$_16>, void (std::__ndk1::basic_string<char, std::__ndk1::char_traits<char>, std::__ndk1::allocator<char> > const&)>::__clone(std::__ndk1::__function::__base<void (std::__ndk1::basic_string<char, std::__ndk1::char_traits<char>, std::__ndk1::allocator<char> > const&)>*) const
FUNC 46504 4 0 std::__ndk1::__function::__func<Tab2::init()::$_16, std::__ndk1::allocator<Tab2::init()::$_16>, void (std::__ndk1::basic_string<char, std::__ndk1::char_traits<char>, std::__ndk1::allocator<char> > const&)>::destroy()
FUNC 46508 4 0 std::__ndk1::__function::__func<Tab2::init()::$_16, std::__ndk1::allocator<Tab2::init()::$_16>, void (std::__ndk1::basic_string<char, std::__ndk1::char_traits<char>, std::__ndk1::allocator<char> > const&)>::destroy_deallocate()
FUNC 4650c 8c 0 std::__ndk1::__function::__func<Tab2::init()::$_16, std::__ndk1::allocator<Tab2::init()::$_16>, void (std::__ndk1::basic_string<char, std::__ndk1::char_traits<char>, std::__ndk1::allocator<char> > const&)>::operator()(std::__ndk1::basic_string<char, std::__ndk1::char_traits<char>, std::__ndk1::allocator<char> > const&)
FUNC 46598 1c 0 std::__ndk1::__function::__func<Tab2::init()::$_16, std::__ndk1::allocator<Tab2::init()::$_16>, void (std::__ndk1::basic_string<char, std::__ndk1::char_traits<char>, std::__ndk1::allocator<char> > const&)>::target(std::type_info const&) const
FUNC 465b4 c 0 std::__ndk1::__function::__func<Tab2::init()::$_16, std::__ndk1::allocator<Tab2::init()::$_16>, void (std::__ndk1::basic_string<char, std::__ndk1::char_traits<char>, std::__ndk1::allocator<char> > const&)>::target_type() const
FUNC 465c0 4 0 std::__ndk1::__function::__func<Tab2::init()::$_17, std::__ndk1::allocator<Tab2::init()::$_17>, void (std::__ndk1::basic_string<char, std::__ndk1::char_traits<char>, std::__ndk1::allocator<char> > const&)>::~__func()
FUNC 465c4 34 0 std::__ndk1::__function::__func<Tab2::init()::$_17, std::__ndk1::allocator<Tab2::init()::$_17>, void (std::__ndk1::basic_string<char, std::__ndk1::char_traits<char>, std::__ndk1::allocator<char> > const&)>::__clone() const
FUNC 465f8 14 0 std::__ndk1::__function::__func<Tab2::init()::$_17, std::__ndk1::allocator<Tab2::init()::$_17>, void (std::__ndk1::basic_string<char, std::__ndk1::char_traits<char>, std::__ndk1::allocator<char> > const&)>::__clone(std::__ndk1::__function::__base<void (std::__ndk1::basic_string<char, std::__ndk1::char_traits<char>, std::__ndk1::allocator<char> > const&)>*) const
FUNC 4660c 4 0 std::__ndk1::__function::__func<Tab2::init()::$_17, std::__ndk1::allocator<Tab2::init()::$_17>, void (std::__ndk1::basic_string<char, std::__ndk1::char_traits<char>, std::__ndk1::allocator<char> > const&)>::destroy()
FUNC 46610 4 0 std::__ndk1::__function::__func<Tab2::init()::$_17, std::__ndk1::allocator<Tab2::init()::$_17>, void (std::__ndk1::basic_string<char, std::__ndk1::char_traits<char>, std::__ndk1::allocator<char> > const&)>::destroy_deallocate()
FUNC 46614 8c 0 std::__ndk1::__function::__func<Tab2::init()::$_17, std::__ndk1::allocator<Tab2::init()::$_17>, void (std::__ndk1::basic_string<char, std::__ndk1::char_traits<char>, std::__ndk1::allocator<char> > const&)>::operator()(std::__ndk1::basic_string<char, std::__ndk1::char_traits<char>, std::__ndk1::allocator<char> > const&)
FUNC 466a0 1c 0 std::__ndk1::__function::__func<Tab2::init()::$_17, std::__ndk1::allocator<Tab2::init()::$_17>, void (std::__ndk1::basic_string<char, std::__ndk1::char_traits<char>, std::__ndk1::allocator<char> > const&)>::target(std::type_info const&) const
FUNC 466bc c 0 std::__ndk1::__function::__func<Tab2::init()::$_17, std::__ndk1::allocator<Tab2::init()::$_17>, void (std::__ndk1::basic_string<char, std::__ndk1::char_traits<char>, std::__ndk1::allocator<char> > const&)>::target_type() const
FUNC 466c8 4 0 std::__ndk1::__function::__func<Tab2::init()::$_18, std::__ndk1::allocator<Tab2::init()::$_18>, void (std::__ndk1::basic_string<char, std::__ndk1::char_traits<char>, std::__ndk1::allocator<char> > const&)>::~__func()
FUNC 466cc 34 0 std::__ndk1::__function::__func<Tab2::init()::$_18, std::__ndk1::allocator<Tab2::init()::$_18>, void (std::__ndk1::basic_string<char, std::__ndk1::char_traits<char>, std::__ndk1::allocator<char> > const&)>::__clone() const
FUNC 46700 14 0 std::__ndk1::__function::__func<Tab2::init()::$_18, std::__ndk1::allocator<Tab2::init()::$_18>, void (std::__ndk1::basic_string<char, std::__ndk1::char_traits<char>, std::__ndk1::allocator<char> > const&)>::__clone(std::__ndk1::__function::__base<void (std::__ndk1::basic_string<char, std::__ndk1::char_traits<char>, std::__ndk1::allocator<char> > const&)>*) const
FUNC 46714 4 0 std::__ndk1::__function::__func<Tab2::init()::$_18, std::__ndk1::allocator<Tab2::init()::$_18>, void (std::__ndk1::basic_string<char, std::__ndk1::char_traits<char>, std::__ndk1::allocator<char> > const&)>::destroy()
FUNC 46718 4 0 std::__ndk1::__function::__func<Tab2::init()::$_18, std::__ndk1::allocator<Tab2::init()::$_18>, void (std::__ndk1::basic_string<char, std::__ndk1::char_traits<char>, std::__ndk1::allocator<char> > const&)>::destroy_deallocate()
FUNC 4671c 8c 0 std::__ndk1::__function::__func<Tab2::init()::$_18, std::__ndk1::allocator<Tab2::init()::$_18>, void (std::__ndk1::basic_string<char, std::__ndk1::char_traits<char>, std::__ndk1::allocator<char> > const&)>::operator()(std::__ndk1::basic_string<char, std::__ndk1::char_traits<char>, std::__ndk1::allocator<char> > const&)
FUNC 467a8 1c 0 std::__ndk1::__function::__func<Tab2::init()::$_18, std::__ndk1::allocator<Tab2::init()::$_18>, void (std::__ndk1::basic_string<char, std::__ndk1::char_traits<char>, std::__ndk1::allocator<char> > const&)>::target(std::type_info const&) const
FUNC 467c4 c 0 std::__ndk1::__function::__func<Tab2::init()::$_18, std::__ndk1::allocator<Tab2::init()::$_18>, void (std::__ndk1::basic_string<char, std::__ndk1::char_traits<char>, std::__ndk1::allocator<char> > const&)>::target_type() const
FUNC 467d0 4 0 std::__ndk1::__function::__func<Tab2::init()::$_19, std::__ndk1::allocator<Tab2::init()::$_19>, void (std::__ndk1::basic_string<char, std::__ndk1::char_traits<char>, std::__ndk1::allocator<char> > const&)>::~__func()
FUNC 467d4 34 0 std::__ndk1::__function::__func<Tab2::init()::$_19, std::__ndk1::allocator<Tab2::init()::$_19>, void (std::__ndk1::basic_string<char, std::__ndk1::char_traits<char>, std::__ndk1::allocator<char> > const&)>::__clone() const
FUNC 46808 14 0 std::__ndk1::__function::__func<Tab2::init()::$_19, std::__ndk1::allocator<Tab2::init()::$_19>, void (std::__ndk1::basic_string<char, std::__ndk1::char_traits<char>, std::__ndk1::allocator<char> > const&)>::__clone(std::__ndk1::__function::__base<void (std::__ndk1::basic_string<char, std::__ndk1::char_traits<char>, std::__ndk1::allocator<char> > const&)>*) const
FUNC 4681c 4 0 std::__ndk1::__function::__func<Tab2::init()::$_19, std::__ndk1::allocator<Tab2::init()::$_19>, void (std::__ndk1::basic_string<char, std::__ndk1::char_traits<char>, std::__ndk1::allocator<char> > const&)>::destroy()
FUNC 46820 4 0 std::__ndk1::__function::__func<Tab2::init()::$_19, std::__ndk1::allocator<Tab2::init()::$_19>, void (std::__ndk1::basic_string<char, std::__ndk1::char_traits<char>, std::__ndk1::allocator<char> > const&)>::destroy_deallocate()
FUNC 46824 8c 0 std::__ndk1::__function::__func<Tab2::init()::$_19, std::__ndk1::allocator<Tab2::init()::$_19>, void (std::__ndk1::basic_string<char, std::__ndk1::char_traits<char>, std::__ndk1::allocator<char> > const&)>::operator()(std::__ndk1::basic_string<char, std::__ndk1::char_traits<char>, std::__ndk1::allocator<char> > const&)
FUNC 468b0 1c 0 std::__ndk1::__function::__func<Tab2::init()::$_19, std::__ndk1::allocator<Tab2::init()::$_19>, void (std::__ndk1::basic_string<char, std::__ndk1::char_traits<char>, std::__ndk1::allocator<char> > const&)>::target(std::type_info const&) const
FUNC 468cc c 0 std::__ndk1::__function::__func<Tab2::init()::$_19, std::__ndk1::allocator<Tab2::init()::$_19>, void (std::__ndk1::basic_string<char, std::__ndk1::char_traits<char>, std::__ndk1::allocator<char> > const&)>::target_type() const
FUNC 468d8 2aa4 0 Tab3::init()
FUNC 4937c b8 0 Tab3::SaveCheckbox(cocos2d::CCObject*)
FUNC 49434 b8 0 Tab3::SaveCheckbox2(cocos2d::CCObject*)
FUNC 494ec b8 0 Tab3::SaveCheckbox3(cocos2d::CCObject*)
FUNC 495a4 b8 0 Tab3::SaveCheckbox4(cocos2d::CCObject*)
FUNC 4965c b8 0 Tab3::SaveCheckbox5(cocos2d::CCObject*)
FUNC 49714 b8 0 Tab3::SaveCheckbox6(cocos2d::CCObject*)
FUNC 497cc b8 0 Tab3::SaveCheckbox7(cocos2d::CCObject*)
FUNC 49884 b8 0 Tab3::SaveCheckbox8(cocos2d::CCObject*)
FUNC 4993c b8 0 Tab3::SaveCheckbox9(cocos2d::CCObject*)
FUNC 499f4 b8 0 Tab3::SaveCheckbox10(cocos2d::CCObject*)
FUNC 49aac a4 0 Tab3::create()
FUNC 49b50 24 0 Tab3::~Tab3()
FUNC 49b74 8 0 {virtual override thunk({offset(-320)}, Tab3::~Tab3())}
FUNC 49b7c 28 0 {virtual override thunk({offset(-320)}, Tab3::~Tab3())}
FUNC 49ba4 4 0 std::__ndk1::__function::__func<Tab3::init()::$_0, std::__ndk1::allocator<Tab3::init()::$_0>, void (std::__ndk1::basic_string<char, std::__ndk1::char_traits<char>, std::__ndk1::allocator<char> > const&)>::~__func()
FUNC 49ba8 34 0 std::__ndk1::__function::__func<Tab3::init()::$_0, std::__ndk1::allocator<Tab3::init()::$_0>, void (std::__ndk1::basic_string<char, std::__ndk1::char_traits<char>, std::__ndk1::allocator<char> > const&)>::__clone() const
FUNC 49bdc 14 0 std::__ndk1::__function::__func<Tab3::init()::$_0, std::__ndk1::allocator<Tab3::init()::$_0>, void (std::__ndk1::basic_string<char, std::__ndk1::char_traits<char>, std::__ndk1::allocator<char> > const&)>::__clone(std::__ndk1::__function::__base<void (std::__ndk1::basic_string<char, std::__ndk1::char_traits<char>, std::__ndk1::allocator<char> > const&)>*) const
FUNC 49bf0 4 0 std::__ndk1::__function::__func<Tab3::init()::$_0, std::__ndk1::allocator<Tab3::init()::$_0>, void (std::__ndk1::basic_string<char, std::__ndk1::char_traits<char>, std::__ndk1::allocator<char> > const&)>::destroy()
FUNC 49bf4 4 0 std::__ndk1::__function::__func<Tab3::init()::$_0, std::__ndk1::allocator<Tab3::init()::$_0>, void (std::__ndk1::basic_string<char, std::__ndk1::char_traits<char>, std::__ndk1::allocator<char> > const&)>::destroy_deallocate()
FUNC 49bf8 8c 0 std::__ndk1::__function::__func<Tab3::init()::$_0, std::__ndk1::allocator<Tab3::init()::$_0>, void (std::__ndk1::basic_string<char, std::__ndk1::char_traits<char>, std::__ndk1::allocator<char> > const&)>::operator()(std::__ndk1::basic_string<char, std::__ndk1::char_traits<char>, std::__ndk1::allocator<char> > const&)
FUNC 49c84 1c 0 std::__ndk1::__function::__func<Tab3::init()::$_0, std::__ndk1::allocator<Tab3::init()::$_0>, void (std::__ndk1::basic_string<char, std::__ndk1::char_traits<char>, std::__ndk1::allocator<char> > const&)>::target(std::type_info const&) const
FUNC 49ca0 c 0 std::__ndk1::__function::__func<Tab3::init()::$_0, std::__ndk1::allocator<Tab3::init()::$_0>, void (std::__ndk1::basic_string<char, std::__ndk1::char_traits<char>, std::__ndk1::allocator<char> > const&)>::target_type() const
FUNC 49cac 4 0 std::__ndk1::__function::__func<Tab3::init()::$_1, std::__ndk1::allocator<Tab3::init()::$_1>, void (std::__ndk1::basic_string<char, std::__ndk1::char_traits<char>, std::__ndk1::allocator<char> > const&)>::~__func()
FUNC 49cb0 34 0 std::__ndk1::__function::__func<Tab3::init()::$_1, std::__ndk1::allocator<Tab3::init()::$_1>, void (std::__ndk1::basic_string<char, std::__ndk1::char_traits<char>, std::__ndk1::allocator<char> > const&)>::__clone() const
FUNC 49ce4 14 0 std::__ndk1::__function::__func<Tab3::init()::$_1, std::__ndk1::allocator<Tab3::init()::$_1>, void (std::__ndk1::basic_string<char, std::__ndk1::char_traits<char>, std::__ndk1::allocator<char> > const&)>::__clone(std::__ndk1::__function::__base<void (std::__ndk1::basic_string<char, std::__ndk1::char_traits<char>, std::__ndk1::allocator<char> > const&)>*) const
FUNC 49cf8 4 0 std::__ndk1::__function::__func<Tab3::init()::$_1, std::__ndk1::allocator<Tab3::init()::$_1>, void (std::__ndk1::basic_string<char, std::__ndk1::char_traits<char>, std::__ndk1::allocator<char> > const&)>::destroy()
FUNC 49cfc 4 0 std::__ndk1::__function::__func<Tab3::init()::$_1, std::__ndk1::allocator<Tab3::init()::$_1>, void (std::__ndk1::basic_string<char, std::__ndk1::char_traits<char>, std::__ndk1::allocator<char> > const&)>::destroy_deallocate()
FUNC 49d00 8c 0 std::__ndk1::__function::__func<Tab3::init()::$_1, std::__ndk1::allocator<Tab3::init()::$_1>, void (std::__ndk1::basic_string<char, std::__ndk1::char_traits<char>, std::__ndk1::allocator<char> > const&)>::operator()(std::__ndk1::basic_string<char, std::__ndk1::char_traits<char>, std::__ndk1::allocator<char> > const&)
FUNC 49d8c 1c 0 std::__ndk1::__function::__func<Tab3::init()::$_1, std::__ndk1::allocator<Tab3::init()::$_1>, void (std::__ndk1::basic_string<char, std::__ndk1::char_traits<char>, std::__ndk1::allocator<char> > const&)>::target(std::type_info const&) const
FUNC 49da8 c 0 std::__ndk1::__function::__func<Tab3::init()::$_1, std::__ndk1::allocator<Tab3::init()::$_1>, void (std::__ndk1::basic_string<char, std::__ndk1::char_traits<char>, std::__ndk1::allocator<char> > const&)>::target_type() const
FUNC 49db4 4 0 std::__ndk1::__function::__func<Tab3::init()::$_2, std::__ndk1::allocator<Tab3::init()::$_2>, void (std::__ndk1::basic_string<char, std::__ndk1::char_traits<char>, std::__ndk1::allocator<char> > const&)>::~__func()
FUNC 49db8 34 0 std::__ndk1::__function::__func<Tab3::init()::$_2, std::__ndk1::allocator<Tab3::init()::$_2>, void (std::__ndk1::basic_string<char, std::__ndk1::char_traits<char>, std::__ndk1::allocator<char> > const&)>::__clone() const
FUNC 49dec 14 0 std::__ndk1::__function::__func<Tab3::init()::$_2, std::__ndk1::allocator<Tab3::init()::$_2>, void (std::__ndk1::basic_string<char, std::__ndk1::char_traits<char>, std::__ndk1::allocator<char> > const&)>::__clone(std::__ndk1::__function::__base<void (std::__ndk1::basic_string<char, std::__ndk1::char_traits<char>, std::__ndk1::allocator<char> > const&)>*) const
FUNC 49e00 4 0 std::__ndk1::__function::__func<Tab3::init()::$_2, std::__ndk1::allocator<Tab3::init()::$_2>, void (std::__ndk1::basic_string<char, std::__ndk1::char_traits<char>, std::__ndk1::allocator<char> > const&)>::destroy()
FUNC 49e04 4 0 std::__ndk1::__function::__func<Tab3::init()::$_2, std::__ndk1::allocator<Tab3::init()::$_2>, void (std::__ndk1::basic_string<char, std::__ndk1::char_traits<char>, std::__ndk1::allocator<char> > const&)>::destroy_deallocate()
FUNC 49e08 8c 0 std::__ndk1::__function::__func<Tab3::init()::$_2, std::__ndk1::allocator<Tab3::init()::$_2>, void (std::__ndk1::basic_string<char, std::__ndk1::char_traits<char>, std::__ndk1::allocator<char> > const&)>::operator()(std::__ndk1::basic_string<char, std::__ndk1::char_traits<char>, std::__ndk1::allocator<char> > const&)
FUNC 49e94 1c 0 std::__ndk1::__function::__func<Tab3::init()::$_2, std::__ndk1::allocator<Tab3::init()::$_2>, void (std::__ndk1::basic_string<char, std::__ndk1::char_traits<char>, std::__ndk1::allocator<char> > const&)>::target(std::type_info const&) const
FUNC 49eb0 c 0 std::__ndk1::__function::__func<Tab3::init()::$_2, std::__ndk1::allocator<Tab3::init()::$_2>, void (std::__ndk1::basic_string<char, std::__ndk1::char_traits<char>, std::__ndk1::allocator<char> > const&)>::target_type() const
FUNC 49ebc 4 0 std::__ndk1::__function::__func<Tab3::init()::$_3, std::__ndk1::allocator<Tab3::init()::$_3>, void (std::__ndk1::basic_string<char, std::__ndk1::char_traits<char>, std::__ndk1::allocator<char> > const&)>::~__func()
FUNC 49ec0 34 0 std::__ndk1::__function::__func<Tab3::init()::$_3, std::__ndk1::allocator<Tab3::init()::$_3>, void (std::__ndk1::basic_string<char, std::__ndk1::char_traits<char>, std::__ndk1::allocator<char> > const&)>::__clone() const
FUNC 49ef4 14 0 std::__ndk1::__function::__func<Tab3::init()::$_3, std::__ndk1::allocator<Tab3::init()::$_3>, void (std::__ndk1::basic_string<char, std::__ndk1::char_traits<char>, std::__ndk1::allocator<char> > const&)>::__clone(std::__ndk1::__function::__base<void (std::__ndk1::basic_string<char, std::__ndk1::char_traits<char>, std::__ndk1::allocator<char> > const&)>*) const
FUNC 49f08 4 0 std::__ndk1::__function::__func<Tab3::init()::$_3, std::__ndk1::allocator<Tab3::init()::$_3>, void (std::__ndk1::basic_string<char, std::__ndk1::char_traits<char>, std::__ndk1::allocator<char> > const&)>::destroy()
FUNC 49f0c 4 0 std::__ndk1::__function::__func<Tab3::init()::$_3, std::__ndk1::allocator<Tab3::init()::$_3>, void (std::__ndk1::basic_string<char, std::__ndk1::char_traits<char>, std::__ndk1::allocator<char> > const&)>::destroy_deallocate()
FUNC 49f10 8c 0 std::__ndk1::__function::__func<Tab3::init()::$_3, std::__ndk1::allocator<Tab3::init()::$_3>, void (std::__ndk1::basic_string<char, std::__ndk1::char_traits<char>, std::__ndk1::allocator<char> > const&)>::operator()(std::__ndk1::basic_string<char, std::__ndk1::char_traits<char>, std::__ndk1::allocator<char> > const&)
FUNC 49f9c 1c 0 std::__ndk1::__function::__func<Tab3::init()::$_3, std::__ndk1::allocator<Tab3::init()::$_3>, void (std::__ndk1::basic_string<char, std::__ndk1::char_traits<char>, std::__ndk1::allocator<char> > const&)>::target(std::type_info const&) const
FUNC 49fb8 c 0 std::__ndk1::__function::__func<Tab3::init()::$_3, std::__ndk1::allocator<Tab3::init()::$_3>, void (std::__ndk1::basic_string<char, std::__ndk1::char_traits<char>, std::__ndk1::allocator<char> > const&)>::target_type() const
FUNC 49fc4 4 0 std::__ndk1::__function::__func<Tab3::init()::$_4, std::__ndk1::allocator<Tab3::init()::$_4>, void (std::__ndk1::basic_string<char, std::__ndk1::char_traits<char>, std::__ndk1::allocator<char> > const&)>::~__func()
FUNC 49fc8 34 0 std::__ndk1::__function::__func<Tab3::init()::$_4, std::__ndk1::allocator<Tab3::init()::$_4>, void (std::__ndk1::basic_string<char, std::__ndk1::char_traits<char>, std::__ndk1::allocator<char> > const&)>::__clone() const
FUNC 49ffc 14 0 std::__ndk1::__function::__func<Tab3::init()::$_4, std::__ndk1::allocator<Tab3::init()::$_4>, void (std::__ndk1::basic_string<char, std::__ndk1::char_traits<char>, std::__ndk1::allocator<char> > const&)>::__clone(std::__ndk1::__function::__base<void (std::__ndk1::basic_string<char, std::__ndk1::char_traits<char>, std::__ndk1::allocator<char> > const&)>*) const
FUNC 4a010 4 0 std::__ndk1::__function::__func<Tab3::init()::$_4, std::__ndk1::allocator<Tab3::init()::$_4>, void (std::__ndk1::basic_string<char, std::__ndk1::char_traits<char>, std::__ndk1::allocator<char> > const&)>::destroy()
FUNC 4a014 4 0 std::__ndk1::__function::__func<Tab3::init()::$_4, std::__ndk1::allocator<Tab3::init()::$_4>, void (std::__ndk1::basic_string<char, std::__ndk1::char_traits<char>, std::__ndk1::allocator<char> > const&)>::destroy_deallocate()
FUNC 4a018 8c 0 std::__ndk1::__function::__func<Tab3::init()::$_4, std::__ndk1::allocator<Tab3::init()::$_4>, void (std::__ndk1::basic_string<char, std::__ndk1::char_traits<char>, std::__ndk1::allocator<char> > const&)>::operator()(std::__ndk1::basic_string<char, std::__ndk1::char_traits<char>, std::__ndk1::allocator<char> > const&)
FUNC 4a0a4 1c 0 std::__ndk1::__function::__func<Tab3::init()::$_4, std::__ndk1::allocator<Tab3::init()::$_4>, void (std::__ndk1::basic_string<char, std::__ndk1::char_traits<char>, std::__ndk1::allocator<char> > const&)>::target(std::type_info const&) const
FUNC 4a0c0 c 0 std::__ndk1::__function::__func<Tab3::init()::$_4, std::__ndk1::allocator<Tab3::init()::$_4>, void (std::__ndk1::basic_string<char, std::__ndk1::char_traits<char>, std::__ndk1::allocator<char> > const&)>::target_type() const
FUNC 4a0cc 4 0 std::__ndk1::__function::__func<Tab3::init()::$_5, std::__ndk1::allocator<Tab3::init()::$_5>, void (std::__ndk1::basic_string<char, std::__ndk1::char_traits<char>, std::__ndk1::allocator<char> > const&)>::~__func()
FUNC 4a0d0 34 0 std::__ndk1::__function::__func<Tab3::init()::$_5, std::__ndk1::allocator<Tab3::init()::$_5>, void (std::__ndk1::basic_string<char, std::__ndk1::char_traits<char>, std::__ndk1::allocator<char> > const&)>::__clone() const
FUNC 4a104 14 0 std::__ndk1::__function::__func<Tab3::init()::$_5, std::__ndk1::allocator<Tab3::init()::$_5>, void (std::__ndk1::basic_string<char, std::__ndk1::char_traits<char>, std::__ndk1::allocator<char> > const&)>::__clone(std::__ndk1::__function::__base<void (std::__ndk1::basic_string<char, std::__ndk1::char_traits<char>, std::__ndk1::allocator<char> > const&)>*) const
FUNC 4a118 4 0 std::__ndk1::__function::__func<Tab3::init()::$_5, std::__ndk1::allocator<Tab3::init()::$_5>, void (std::__ndk1::basic_string<char, std::__ndk1::char_traits<char>, std::__ndk1::allocator<char> > const&)>::destroy()
FUNC 4a11c 4 0 std::__ndk1::__function::__func<Tab3::init()::$_5, std::__ndk1::allocator<Tab3::init()::$_5>, void (std::__ndk1::basic_string<char, std::__ndk1::char_traits<char>, std::__ndk1::allocator<char> > const&)>::destroy_deallocate()
FUNC 4a120 8c 0 std::__ndk1::__function::__func<Tab3::init()::$_5, std::__ndk1::allocator<Tab3::init()::$_5>, void (std::__ndk1::basic_string<char, std::__ndk1::char_traits<char>, std::__ndk1::allocator<char> > const&)>::operator()(std::__ndk1::basic_string<char, std::__ndk1::char_traits<char>, std::__ndk1::allocator<char> > const&)
FUNC 4a1ac 1c 0 std::__ndk1::__function::__func<Tab3::init()::$_5, std::__ndk1::allocator<Tab3::init()::$_5>, void (std::__ndk1::basic_string<char, std::__ndk1::char_traits<char>, std::__ndk1::allocator<char> > const&)>::target(std::type_info const&) const
FUNC 4a1c8 c 0 std::__ndk1::__function::__func<Tab3::init()::$_5, std::__ndk1::allocator<Tab3::init()::$_5>, void (std::__ndk1::basic_string<char, std::__ndk1::char_traits<char>, std::__ndk1::allocator<char> > const&)>::target_type() const
FUNC 4a1d4 4 0 std::__ndk1::__function::__func<Tab3::init()::$_6, std::__ndk1::allocator<Tab3::init()::$_6>, void (std::__ndk1::basic_string<char, std::__ndk1::char_traits<char>, std::__ndk1::allocator<char> > const&)>::~__func()
FUNC 4a1d8 34 0 std::__ndk1::__function::__func<Tab3::init()::$_6, std::__ndk1::allocator<Tab3::init()::$_6>, void (std::__ndk1::basic_string<char, std::__ndk1::char_traits<char>, std::__ndk1::allocator<char> > const&)>::__clone() const
FUNC 4a20c 14 0 std::__ndk1::__function::__func<Tab3::init()::$_6, std::__ndk1::allocator<Tab3::init()::$_6>, void (std::__ndk1::basic_string<char, std::__ndk1::char_traits<char>, std::__ndk1::allocator<char> > const&)>::__clone(std::__ndk1::__function::__base<void (std::__ndk1::basic_string<char, std::__ndk1::char_traits<char>, std::__ndk1::allocator<char> > const&)>*) const
FUNC 4a220 4 0 std::__ndk1::__function::__func<Tab3::init()::$_6, std::__ndk1::allocator<Tab3::init()::$_6>, void (std::__ndk1::basic_string<char, std::__ndk1::char_traits<char>, std::__ndk1::allocator<char> > const&)>::destroy()
FUNC 4a224 4 0 std::__ndk1::__function::__func<Tab3::init()::$_6, std::__ndk1::allocator<Tab3::init()::$_6>, void (std::__ndk1::basic_string<char, std::__ndk1::char_traits<char>, std::__ndk1::allocator<char> > const&)>::destroy_deallocate()
FUNC 4a228 8c 0 std::__ndk1::__function::__func<Tab3::init()::$_6, std::__ndk1::allocator<Tab3::init()::$_6>, void (std::__ndk1::basic_string<char, std::__ndk1::char_traits<char>, std::__ndk1::allocator<char> > const&)>::operator()(std::__ndk1::basic_string<char, std::__ndk1::char_traits<char>, std::__ndk1::allocator<char> > const&)
FUNC 4a2b4 1c 0 std::__ndk1::__function::__func<Tab3::init()::$_6, std::__ndk1::allocator<Tab3::init()::$_6>, void (std::__ndk1::basic_string<char, std::__ndk1::char_traits<char>, std::__ndk1::allocator<char> > const&)>::target(std::type_info const&) const
FUNC 4a2d0 c 0 std::__ndk1::__function::__func<Tab3::init()::$_6, std::__ndk1::allocator<Tab3::init()::$_6>, void (std::__ndk1::basic_string<char, std::__ndk1::char_traits<char>, std::__ndk1::allocator<char> > const&)>::target_type() const
FUNC 4a2dc 4 0 std::__ndk1::__function::__func<Tab3::init()::$_7, std::__ndk1::allocator<Tab3::init()::$_7>, void (std::__ndk1::basic_string<char, std::__ndk1::char_traits<char>, std::__ndk1::allocator<char> > const&)>::~__func()
FUNC 4a2e0 34 0 std::__ndk1::__function::__func<Tab3::init()::$_7, std::__ndk1::allocator<Tab3::init()::$_7>, void (std::__ndk1::basic_string<char, std::__ndk1::char_traits<char>, std::__ndk1::allocator<char> > const&)>::__clone() const
FUNC 4a314 14 0 std::__ndk1::__function::__func<Tab3::init()::$_7, std::__ndk1::allocator<Tab3::init()::$_7>, void (std::__ndk1::basic_string<char, std::__ndk1::char_traits<char>, std::__ndk1::allocator<char> > const&)>::__clone(std::__ndk1::__function::__base<void (std::__ndk1::basic_string<char, std::__ndk1::char_traits<char>, std::__ndk1::allocator<char> > const&)>*) const
FUNC 4a328 4 0 std::__ndk1::__function::__func<Tab3::init()::$_7, std::__ndk1::allocator<Tab3::init()::$_7>, void (std::__ndk1::basic_string<char, std::__ndk1::char_traits<char>, std::__ndk1::allocator<char> > const&)>::destroy()
FUNC 4a32c 4 0 std::__ndk1::__function::__func<Tab3::init()::$_7, std::__ndk1::allocator<Tab3::init()::$_7>, void (std::__ndk1::basic_string<char, std::__ndk1::char_traits<char>, std::__ndk1::allocator<char> > const&)>::destroy_deallocate()
FUNC 4a330 8c 0 std::__ndk1::__function::__func<Tab3::init()::$_7, std::__ndk1::allocator<Tab3::init()::$_7>, void (std::__ndk1::basic_string<char, std::__ndk1::char_traits<char>, std::__ndk1::allocator<char> > const&)>::operator()(std::__ndk1::basic_string<char, std::__ndk1::char_traits<char>, std::__ndk1::allocator<char> > const&)
FUNC 4a3bc 1c 0 std::__ndk1::__function::__func<Tab3::init()::$_7, std::__ndk1::allocator<Tab3::init()::$_7>, void (std::__ndk1::basic_string<char, std::__ndk1::char_traits<char>, std::__ndk1::allocator<char> > const&)>::target(std::type_info const&) const
FUNC 4a3d8 c 0 std::__ndk1::__function::__func<Tab3::init()::$_7, std::__ndk1::allocator<Tab3::init()::$_7>, void (std::__ndk1::basic_string<char, std::__ndk1::char_traits<char>, std::__ndk1::allocator<char> > const&)>::target_type() const
FUNC 4a3e4 4 0 std::__ndk1::__function::__func<Tab3::init()::$_8, std::__ndk1::allocator<Tab3::init()::$_8>, void (std::__ndk1::basic_string<char, std::__ndk1::char_traits<char>, std::__ndk1::allocator<char> > const&)>::~__func()
FUNC 4a3e8 34 0 std::__ndk1::__function::__func<Tab3::init()::$_8, std::__ndk1::allocator<Tab3::init()::$_8>, void (std::__ndk1::basic_string<char, std::__ndk1::char_traits<char>, std::__ndk1::allocator<char> > const&)>::__clone() const
FUNC 4a41c 14 0 std::__ndk1::__function::__func<Tab3::init()::$_8, std::__ndk1::allocator<Tab3::init()::$_8>, void (std::__ndk1::basic_string<char, std::__ndk1::char_traits<char>, std::__ndk1::allocator<char> > const&)>::__clone(std::__ndk1::__function::__base<void (std::__ndk1::basic_string<char, std::__ndk1::char_traits<char>, std::__ndk1::allocator<char> > const&)>*) const
FUNC 4a430 4 0 std::__ndk1::__function::__func<Tab3::init()::$_8, std::__ndk1::allocator<Tab3::init()::$_8>, void (std::__ndk1::basic_string<char, std::__ndk1::char_traits<char>, std::__ndk1::allocator<char> > const&)>::destroy()
FUNC 4a434 4 0 std::__ndk1::__function::__func<Tab3::init()::$_8, std::__ndk1::allocator<Tab3::init()::$_8>, void (std::__ndk1::basic_string<char, std::__ndk1::char_traits<char>, std::__ndk1::allocator<char> > const&)>::destroy_deallocate()
FUNC 4a438 8c 0 std::__ndk1::__function::__func<Tab3::init()::$_8, std::__ndk1::allocator<Tab3::init()::$_8>, void (std::__ndk1::basic_string<char, std::__ndk1::char_traits<char>, std::__ndk1::allocator<char> > const&)>::operator()(std::__ndk1::basic_string<char, std::__ndk1::char_traits<char>, std::__ndk1::allocator<char> > const&)
FUNC 4a4c4 1c 0 std::__ndk1::__function::__func<Tab3::init()::$_8, std::__ndk1::allocator<Tab3::init()::$_8>, void (std::__ndk1::basic_string<char, std::__ndk1::char_traits<char>, std::__ndk1::allocator<char> > const&)>::target(std::type_info const&) const
FUNC 4a4e0 c 0 std::__ndk1::__function::__func<Tab3::init()::$_8, std::__ndk1::allocator<Tab3::init()::$_8>, void (std::__ndk1::basic_string<char, std::__ndk1::char_traits<char>, std::__ndk1::allocator<char> > const&)>::target_type() const
FUNC 4a4ec 4 0 std::__ndk1::__function::__func<Tab3::init()::$_9, std::__ndk1::allocator<Tab3::init()::$_9>, void (std::__ndk1::basic_string<char, std::__ndk1::char_traits<char>, std::__ndk1::allocator<char> > const&)>::~__func()
FUNC 4a4f0 34 0 std::__ndk1::__function::__func<Tab3::init()::$_9, std::__ndk1::allocator<Tab3::init()::$_9>, void (std::__ndk1::basic_string<char, std::__ndk1::char_traits<char>, std::__ndk1::allocator<char> > const&)>::__clone() const
FUNC 4a524 14 0 std::__ndk1::__function::__func<Tab3::init()::$_9, std::__ndk1::allocator<Tab3::init()::$_9>, void (std::__ndk1::basic_string<char, std::__ndk1::char_traits<char>, std::__ndk1::allocator<char> > const&)>::__clone(std::__ndk1::__function::__base<void (std::__ndk1::basic_string<char, std::__ndk1::char_traits<char>, std::__ndk1::allocator<char> > const&)>*) const
FUNC 4a538 4 0 std::__ndk1::__function::__func<Tab3::init()::$_9, std::__ndk1::allocator<Tab3::init()::$_9>, void (std::__ndk1::basic_string<char, std::__ndk1::char_traits<char>, std::__ndk1::allocator<char> > const&)>::destroy()
FUNC 4a53c 4 0 std::__ndk1::__function::__func<Tab3::init()::$_9, std::__ndk1::allocator<Tab3::init()::$_9>, void (std::__ndk1::basic_string<char, std::__ndk1::char_traits<char>, std::__ndk1::allocator<char> > const&)>::destroy_deallocate()
FUNC 4a540 8c 0 std::__ndk1::__function::__func<Tab3::init()::$_9, std::__ndk1::allocator<Tab3::init()::$_9>, void (std::__ndk1::basic_string<char, std::__ndk1::char_traits<char>, std::__ndk1::allocator<char> > const&)>::operator()(std::__ndk1::basic_string<char, std::__ndk1::char_traits<char>, std::__ndk1::allocator<char> > const&)
FUNC 4a5cc 1c 0 std::__ndk1::__function::__func<Tab3::init()::$_9, std::__ndk1::allocator<Tab3::init()::$_9>, void (std::__ndk1::basic_string<char, std::__ndk1::char_traits<char>, std::__ndk1::allocator<char> > const&)>::target(std::type_info const&) const
FUNC 4a5e8 c 0 std::__ndk1::__function::__func<Tab3::init()::$_9, std::__ndk1::allocator<Tab3::init()::$_9>, void (std::__ndk1::basic_string<char, std::__ndk1::char_traits<char>, std::__ndk1::allocator<char> > const&)>::target_type() const
FUNC 4a5f4 4 0 std::__ndk1::__function::__func<Tab3::init()::$_10, std::__ndk1::allocator<Tab3::init()::$_10>, void (std::__ndk1::basic_string<char, std::__ndk1::char_traits<char>, std::__ndk1::allocator<char> > const&)>::~__func()
FUNC 4a5f8 34 0 std::__ndk1::__function::__func<Tab3::init()::$_10, std::__ndk1::allocator<Tab3::init()::$_10>, void (std::__ndk1::basic_string<char, std::__ndk1::char_traits<char>, std::__ndk1::allocator<char> > const&)>::__clone() const
FUNC 4a62c 14 0 std::__ndk1::__function::__func<Tab3::init()::$_10, std::__ndk1::allocator<Tab3::init()::$_10>, void (std::__ndk1::basic_string<char, std::__ndk1::char_traits<char>, std::__ndk1::allocator<char> > const&)>::__clone(std::__ndk1::__function::__base<void (std::__ndk1::basic_string<char, std::__ndk1::char_traits<char>, std::__ndk1::allocator<char> > const&)>*) const
FUNC 4a640 4 0 std::__ndk1::__function::__func<Tab3::init()::$_10, std::__ndk1::allocator<Tab3::init()::$_10>, void (std::__ndk1::basic_string<char, std::__ndk1::char_traits<char>, std::__ndk1::allocator<char> > const&)>::destroy()
FUNC 4a644 4 0 std::__ndk1::__function::__func<Tab3::init()::$_10, std::__ndk1::allocator<Tab3::init()::$_10>, void (std::__ndk1::basic_string<char, std::__ndk1::char_traits<char>, std::__ndk1::allocator<char> > const&)>::destroy_deallocate()
FUNC 4a648 8c 0 std::__ndk1::__function::__func<Tab3::init()::$_10, std::__ndk1::allocator<Tab3::init()::$_10>, void (std::__ndk1::basic_string<char, std::__ndk1::char_traits<char>, std::__ndk1::allocator<char> > const&)>::operator()(std::__ndk1::basic_string<char, std::__ndk1::char_traits<char>, std::__ndk1::allocator<char> > const&)
FUNC 4a6d4 1c 0 std::__ndk1::__function::__func<Tab3::init()::$_10, std::__ndk1::allocator<Tab3::init()::$_10>, void (std::__ndk1::basic_string<char, std::__ndk1::char_traits<char>, std::__ndk1::allocator<char> > const&)>::target(std::type_info const&) const
FUNC 4a6f0 c 0 std::__ndk1::__function::__func<Tab3::init()::$_10, std::__ndk1::allocator<Tab3::init()::$_10>, void (std::__ndk1::basic_string<char, std::__ndk1::char_traits<char>, std::__ndk1::allocator<char> > const&)>::target_type() const
FUNC 4a6fc 4 0 std::__ndk1::__function::__func<Tab3::init()::$_11, std::__ndk1::allocator<Tab3::init()::$_11>, void (std::__ndk1::basic_string<char, std::__ndk1::char_traits<char>, std::__ndk1::allocator<char> > const&)>::~__func()
FUNC 4a700 34 0 std::__ndk1::__function::__func<Tab3::init()::$_11, std::__ndk1::allocator<Tab3::init()::$_11>, void (std::__ndk1::basic_string<char, std::__ndk1::char_traits<char>, std::__ndk1::allocator<char> > const&)>::__clone() const
FUNC 4a734 14 0 std::__ndk1::__function::__func<Tab3::init()::$_11, std::__ndk1::allocator<Tab3::init()::$_11>, void (std::__ndk1::basic_string<char, std::__ndk1::char_traits<char>, std::__ndk1::allocator<char> > const&)>::__clone(std::__ndk1::__function::__base<void (std::__ndk1::basic_string<char, std::__ndk1::char_traits<char>, std::__ndk1::allocator<char> > const&)>*) const
FUNC 4a748 4 0 std::__ndk1::__function::__func<Tab3::init()::$_11, std::__ndk1::allocator<Tab3::init()::$_11>, void (std::__ndk1::basic_string<char, std::__ndk1::char_traits<char>, std::__ndk1::allocator<char> > const&)>::destroy()
FUNC 4a74c 4 0 std::__ndk1::__function::__func<Tab3::init()::$_11, std::__ndk1::allocator<Tab3::init()::$_11>, void (std::__ndk1::basic_string<char, std::__ndk1::char_traits<char>, std::__ndk1::allocator<char> > const&)>::destroy_deallocate()
FUNC 4a750 8c 0 std::__ndk1::__function::__func<Tab3::init()::$_11, std::__ndk1::allocator<Tab3::init()::$_11>, void (std::__ndk1::basic_string<char, std::__ndk1::char_traits<char>, std::__ndk1::allocator<char> > const&)>::operator()(std::__ndk1::basic_string<char, std::__ndk1::char_traits<char>, std::__ndk1::allocator<char> > const&)
FUNC 4a7dc 1c 0 std::__ndk1::__function::__func<Tab3::init()::$_11, std::__ndk1::allocator<Tab3::init()::$_11>, void (std::__ndk1::basic_string<char, std::__ndk1::char_traits<char>, std::__ndk1::allocator<char> > const&)>::target(std::type_info const&) const
FUNC 4a7f8 c 0 std::__ndk1::__function::__func<Tab3::init()::$_11, std::__ndk1::allocator<Tab3::init()::$_11>, void (std::__ndk1::basic_string<char, std::__ndk1::char_traits<char>, std::__ndk1::allocator<char> > const&)>::target_type() const
FUNC 4a804 4 0 std::__ndk1::__function::__func<Tab3::init()::$_12, std::__ndk1::allocator<Tab3::init()::$_12>, void (std::__ndk1::basic_string<char, std::__ndk1::char_traits<char>, std::__ndk1::allocator<char> > const&)>::~__func()
FUNC 4a808 34 0 std::__ndk1::__function::__func<Tab3::init()::$_12, std::__ndk1::allocator<Tab3::init()::$_12>, void (std::__ndk1::basic_string<char, std::__ndk1::char_traits<char>, std::__ndk1::allocator<char> > const&)>::__clone() const
FUNC 4a83c 14 0 std::__ndk1::__function::__func<Tab3::init()::$_12, std::__ndk1::allocator<Tab3::init()::$_12>, void (std::__ndk1::basic_string<char, std::__ndk1::char_traits<char>, std::__ndk1::allocator<char> > const&)>::__clone(std::__ndk1::__function::__base<void (std::__ndk1::basic_string<char, std::__ndk1::char_traits<char>, std::__ndk1::allocator<char> > const&)>*) const
FUNC 4a850 4 0 std::__ndk1::__function::__func<Tab3::init()::$_12, std::__ndk1::allocator<Tab3::init()::$_12>, void (std::__ndk1::basic_string<char, std::__ndk1::char_traits<char>, std::__ndk1::allocator<char> > const&)>::destroy()
FUNC 4a854 4 0 std::__ndk1::__function::__func<Tab3::init()::$_12, std::__ndk1::allocator<Tab3::init()::$_12>, void (std::__ndk1::basic_string<char, std::__ndk1::char_traits<char>, std::__ndk1::allocator<char> > const&)>::destroy_deallocate()
FUNC 4a858 8c 0 std::__ndk1::__function::__func<Tab3::init()::$_12, std::__ndk1::allocator<Tab3::init()::$_12>, void (std::__ndk1::basic_string<char, std::__ndk1::char_traits<char>, std::__ndk1::allocator<char> > const&)>::operator()(std::__ndk1::basic_string<char, std::__ndk1::char_traits<char>, std::__ndk1::allocator<char> > const&)
FUNC 4a8e4 1c 0 std::__ndk1::__function::__func<Tab3::init()::$_12, std::__ndk1::allocator<Tab3::init()::$_12>, void (std::__ndk1::basic_string<char, std::__ndk1::char_traits<char>, std::__ndk1::allocator<char> > const&)>::target(std::type_info const&) const
FUNC 4a900 c 0 std::__ndk1::__function::__func<Tab3::init()::$_12, std::__ndk1::allocator<Tab3::init()::$_12>, void (std::__ndk1::basic_string<char, std::__ndk1::char_traits<char>, std::__ndk1::allocator<char> > const&)>::target_type() const
FUNC 4a90c 4 0 std::__ndk1::__function::__func<Tab3::init()::$_13, std::__ndk1::allocator<Tab3::init()::$_13>, void (std::__ndk1::basic_string<char, std::__ndk1::char_traits<char>, std::__ndk1::allocator<char> > const&)>::~__func()
FUNC 4a910 34 0 std::__ndk1::__function::__func<Tab3::init()::$_13, std::__ndk1::allocator<Tab3::init()::$_13>, void (std::__ndk1::basic_string<char, std::__ndk1::char_traits<char>, std::__ndk1::allocator<char> > const&)>::__clone() const
FUNC 4a944 14 0 std::__ndk1::__function::__func<Tab3::init()::$_13, std::__ndk1::allocator<Tab3::init()::$_13>, void (std::__ndk1::basic_string<char, std::__ndk1::char_traits<char>, std::__ndk1::allocator<char> > const&)>::__clone(std::__ndk1::__function::__base<void (std::__ndk1::basic_string<char, std::__ndk1::char_traits<char>, std::__ndk1::allocator<char> > const&)>*) const
FUNC 4a958 4 0 std::__ndk1::__function::__func<Tab3::init()::$_13, std::__ndk1::allocator<Tab3::init()::$_13>, void (std::__ndk1::basic_string<char, std::__ndk1::char_traits<char>, std::__ndk1::allocator<char> > const&)>::destroy()
FUNC 4a95c 4 0 std::__ndk1::__function::__func<Tab3::init()::$_13, std::__ndk1::allocator<Tab3::init()::$_13>, void (std::__ndk1::basic_string<char, std::__ndk1::char_traits<char>, std::__ndk1::allocator<char> > const&)>::destroy_deallocate()
FUNC 4a960 8c 0 std::__ndk1::__function::__func<Tab3::init()::$_13, std::__ndk1::allocator<Tab3::init()::$_13>, void (std::__ndk1::basic_string<char, std::__ndk1::char_traits<char>, std::__ndk1::allocator<char> > const&)>::operator()(std::__ndk1::basic_string<char, std::__ndk1::char_traits<char>, std::__ndk1::allocator<char> > const&)
FUNC 4a9ec 1c 0 std::__ndk1::__function::__func<Tab3::init()::$_13, std::__ndk1::allocator<Tab3::init()::$_13>, void (std::__ndk1::basic_string<char, std::__ndk1::char_traits<char>, std::__ndk1::allocator<char> > const&)>::target(std::type_info const&) const
FUNC 4aa08 c 0 std::__ndk1::__function::__func<Tab3::init()::$_13, std::__ndk1::allocator<Tab3::init()::$_13>, void (std::__ndk1::basic_string<char, std::__ndk1::char_traits<char>, std::__ndk1::allocator<char> > const&)>::target_type() const
FUNC 4aa14 4 0 std::__ndk1::__function::__func<Tab3::init()::$_14, std::__ndk1::allocator<Tab3::init()::$_14>, void (std::__ndk1::basic_string<char, std::__ndk1::char_traits<char>, std::__ndk1::allocator<char> > const&)>::~__func()
FUNC 4aa18 34 0 std::__ndk1::__function::__func<Tab3::init()::$_14, std::__ndk1::allocator<Tab3::init()::$_14>, void (std::__ndk1::basic_string<char, std::__ndk1::char_traits<char>, std::__ndk1::allocator<char> > const&)>::__clone() const
FUNC 4aa4c 14 0 std::__ndk1::__function::__func<Tab3::init()::$_14, std::__ndk1::allocator<Tab3::init()::$_14>, void (std::__ndk1::basic_string<char, std::__ndk1::char_traits<char>, std::__ndk1::allocator<char> > const&)>::__clone(std::__ndk1::__function::__base<void (std::__ndk1::basic_string<char, std::__ndk1::char_traits<char>, std::__ndk1::allocator<char> > const&)>*) const
FUNC 4aa60 4 0 std::__ndk1::__function::__func<Tab3::init()::$_14, std::__ndk1::allocator<Tab3::init()::$_14>, void (std::__ndk1::basic_string<char, std::__ndk1::char_traits<char>, std::__ndk1::allocator<char> > const&)>::destroy()
FUNC 4aa64 4 0 std::__ndk1::__function::__func<Tab3::init()::$_14, std::__ndk1::allocator<Tab3::init()::$_14>, void (std::__ndk1::basic_string<char, std::__ndk1::char_traits<char>, std::__ndk1::allocator<char> > const&)>::destroy_deallocate()
FUNC 4aa68 8c 0 std::__ndk1::__function::__func<Tab3::init()::$_14, std::__ndk1::allocator<Tab3::init()::$_14>, void (std::__ndk1::basic_string<char, std::__ndk1::char_traits<char>, std::__ndk1::allocator<char> > const&)>::operator()(std::__ndk1::basic_string<char, std::__ndk1::char_traits<char>, std::__ndk1::allocator<char> > const&)
FUNC 4aaf4 1c 0 std::__ndk1::__function::__func<Tab3::init()::$_14, std::__ndk1::allocator<Tab3::init()::$_14>, void (std::__ndk1::basic_string<char, std::__ndk1::char_traits<char>, std::__ndk1::allocator<char> > const&)>::target(std::type_info const&) const
FUNC 4ab10 c 0 std::__ndk1::__function::__func<Tab3::init()::$_14, std::__ndk1::allocator<Tab3::init()::$_14>, void (std::__ndk1::basic_string<char, std::__ndk1::char_traits<char>, std::__ndk1::allocator<char> > const&)>::target_type() const
FUNC 4ab1c 4 0 std::__ndk1::__function::__func<Tab3::init()::$_15, std::__ndk1::allocator<Tab3::init()::$_15>, void (std::__ndk1::basic_string<char, std::__ndk1::char_traits<char>, std::__ndk1::allocator<char> > const&)>::~__func()
FUNC 4ab20 34 0 std::__ndk1::__function::__func<Tab3::init()::$_15, std::__ndk1::allocator<Tab3::init()::$_15>, void (std::__ndk1::basic_string<char, std::__ndk1::char_traits<char>, std::__ndk1::allocator<char> > const&)>::__clone() const
FUNC 4ab54 14 0 std::__ndk1::__function::__func<Tab3::init()::$_15, std::__ndk1::allocator<Tab3::init()::$_15>, void (std::__ndk1::basic_string<char, std::__ndk1::char_traits<char>, std::__ndk1::allocator<char> > const&)>::__clone(std::__ndk1::__function::__base<void (std::__ndk1::basic_string<char, std::__ndk1::char_traits<char>, std::__ndk1::allocator<char> > const&)>*) const
FUNC 4ab68 4 0 std::__ndk1::__function::__func<Tab3::init()::$_15, std::__ndk1::allocator<Tab3::init()::$_15>, void (std::__ndk1::basic_string<char, std::__ndk1::char_traits<char>, std::__ndk1::allocator<char> > const&)>::destroy()
FUNC 4ab6c 4 0 std::__ndk1::__function::__func<Tab3::init()::$_15, std::__ndk1::allocator<Tab3::init()::$_15>, void (std::__ndk1::basic_string<char, std::__ndk1::char_traits<char>, std::__ndk1::allocator<char> > const&)>::destroy_deallocate()
FUNC 4ab70 8c 0 std::__ndk1::__function::__func<Tab3::init()::$_15, std::__ndk1::allocator<Tab3::init()::$_15>, void (std::__ndk1::basic_string<char, std::__ndk1::char_traits<char>, std::__ndk1::allocator<char> > const&)>::operator()(std::__ndk1::basic_string<char, std::__ndk1::char_traits<char>, std::__ndk1::allocator<char> > const&)
FUNC 4abfc 1c 0 std::__ndk1::__function::__func<Tab3::init()::$_15, std::__ndk1::allocator<Tab3::init()::$_15>, void (std::__ndk1::basic_string<char, std::__ndk1::char_traits<char>, std::__ndk1::allocator<char> > const&)>::target(std::type_info const&) const
FUNC 4ac18 c 0 std::__ndk1::__function::__func<Tab3::init()::$_15, std::__ndk1::allocator<Tab3::init()::$_15>, void (std::__ndk1::basic_string<char, std::__ndk1::char_traits<char>, std::__ndk1::allocator<char> > const&)>::target_type() const
FUNC 4ac24 4 0 std::__ndk1::__function::__func<Tab3::init()::$_16, std::__ndk1::allocator<Tab3::init()::$_16>, void (std::__ndk1::basic_string<char, std::__ndk1::char_traits<char>, std::__ndk1::allocator<char> > const&)>::~__func()
FUNC 4ac28 34 0 std::__ndk1::__function::__func<Tab3::init()::$_16, std::__ndk1::allocator<Tab3::init()::$_16>, void (std::__ndk1::basic_string<char, std::__ndk1::char_traits<char>, std::__ndk1::allocator<char> > const&)>::__clone() const
FUNC 4ac5c 14 0 std::__ndk1::__function::__func<Tab3::init()::$_16, std::__ndk1::allocator<Tab3::init()::$_16>, void (std::__ndk1::basic_string<char, std::__ndk1::char_traits<char>, std::__ndk1::allocator<char> > const&)>::__clone(std::__ndk1::__function::__base<void (std::__ndk1::basic_string<char, std::__ndk1::char_traits<char>, std::__ndk1::allocator<char> > const&)>*) const
FUNC 4ac70 4 0 std::__ndk1::__function::__func<Tab3::init()::$_16, std::__ndk1::allocator<Tab3::init()::$_16>, void (std::__ndk1::basic_string<char, std::__ndk1::char_traits<char>, std::__ndk1::allocator<char> > const&)>::destroy()
FUNC 4ac74 4 0 std::__ndk1::__function::__func<Tab3::init()::$_16, std::__ndk1::allocator<Tab3::init()::$_16>, void (std::__ndk1::basic_string<char, std::__ndk1::char_traits<char>, std::__ndk1::allocator<char> > const&)>::destroy_deallocate()
FUNC 4ac78 8c 0 std::__ndk1::__function::__func<Tab3::init()::$_16, std::__ndk1::allocator<Tab3::init()::$_16>, void (std::__ndk1::basic_string<char, std::__ndk1::char_traits<char>, std::__ndk1::allocator<char> > const&)>::operator()(std::__ndk1::basic_string<char, std::__ndk1::char_traits<char>, std::__ndk1::allocator<char> > const&)
FUNC 4ad04 1c 0 std::__ndk1::__function::__func<Tab3::init()::$_16, std::__ndk1::allocator<Tab3::init()::$_16>, void (std::__ndk1::basic_string<char, std::__ndk1::char_traits<char>, std::__ndk1::allocator<char> > const&)>::target(std::type_info const&) const
FUNC 4ad20 c 0 std::__ndk1::__function::__func<Tab3::init()::$_16, std::__ndk1::allocator<Tab3::init()::$_16>, void (std::__ndk1::basic_string<char, std::__ndk1::char_traits<char>, std::__ndk1::allocator<char> > const&)>::target_type() const
FUNC 4ad2c 4 0 std::__ndk1::__function::__func<Tab3::init()::$_17, std::__ndk1::allocator<Tab3::init()::$_17>, void (std::__ndk1::basic_string<char, std::__ndk1::char_traits<char>, std::__ndk1::allocator<char> > const&)>::~__func()
FUNC 4ad30 34 0 std::__ndk1::__function::__func<Tab3::init()::$_17, std::__ndk1::allocator<Tab3::init()::$_17>, void (std::__ndk1::basic_string<char, std::__ndk1::char_traits<char>, std::__ndk1::allocator<char> > const&)>::__clone() const
FUNC 4ad64 14 0 std::__ndk1::__function::__func<Tab3::init()::$_17, std::__ndk1::allocator<Tab3::init()::$_17>, void (std::__ndk1::basic_string<char, std::__ndk1::char_traits<char>, std::__ndk1::allocator<char> > const&)>::__clone(std::__ndk1::__function::__base<void (std::__ndk1::basic_string<char, std::__ndk1::char_traits<char>, std::__ndk1::allocator<char> > const&)>*) const
FUNC 4ad78 4 0 std::__ndk1::__function::__func<Tab3::init()::$_17, std::__ndk1::allocator<Tab3::init()::$_17>, void (std::__ndk1::basic_string<char, std::__ndk1::char_traits<char>, std::__ndk1::allocator<char> > const&)>::destroy()
FUNC 4ad7c 4 0 std::__ndk1::__function::__func<Tab3::init()::$_17, std::__ndk1::allocator<Tab3::init()::$_17>, void (std::__ndk1::basic_string<char, std::__ndk1::char_traits<char>, std::__ndk1::allocator<char> > const&)>::destroy_deallocate()
FUNC 4ad80 8c 0 std::__ndk1::__function::__func<Tab3::init()::$_17, std::__ndk1::allocator<Tab3::init()::$_17>, void (std::__ndk1::basic_string<char, std::__ndk1::char_traits<char>, std::__ndk1::allocator<char> > const&)>::operator()(std::__ndk1::basic_string<char, std::__ndk1::char_traits<char>, std::__ndk1::allocator<char> > const&)
FUNC 4ae0c 1c 0 std::__ndk1::__function::__func<Tab3::init()::$_17, std::__ndk1::allocator<Tab3::init()::$_17>, void (std::__ndk1::basic_string<char, std::__ndk1::char_traits<char>, std::__ndk1::allocator<char> > const&)>::target(std::type_info const&) const
FUNC 4ae28 c 0 std::__ndk1::__function::__func<Tab3::init()::$_17, std::__ndk1::allocator<Tab3::init()::$_17>, void (std::__ndk1::basic_string<char, std::__ndk1::char_traits<char>, std::__ndk1::allocator<char> > const&)>::target_type() const
FUNC 4ae34 4 0 std::__ndk1::__function::__func<Tab3::init()::$_18, std::__ndk1::allocator<Tab3::init()::$_18>, void (std::__ndk1::basic_string<char, std::__ndk1::char_traits<char>, std::__ndk1::allocator<char> > const&)>::~__func()
FUNC 4ae38 34 0 std::__ndk1::__function::__func<Tab3::init()::$_18, std::__ndk1::allocator<Tab3::init()::$_18>, void (std::__ndk1::basic_string<char, std::__ndk1::char_traits<char>, std::__ndk1::allocator<char> > const&)>::__clone() const
FUNC 4ae6c 14 0 std::__ndk1::__function::__func<Tab3::init()::$_18, std::__ndk1::allocator<Tab3::init()::$_18>, void (std::__ndk1::basic_string<char, std::__ndk1::char_traits<char>, std::__ndk1::allocator<char> > const&)>::__clone(std::__ndk1::__function::__base<void (std::__ndk1::basic_string<char, std::__ndk1::char_traits<char>, std::__ndk1::allocator<char> > const&)>*) const
FUNC 4ae80 4 0 std::__ndk1::__function::__func<Tab3::init()::$_18, std::__ndk1::allocator<Tab3::init()::$_18>, void (std::__ndk1::basic_string<char, std::__ndk1::char_traits<char>, std::__ndk1::allocator<char> > const&)>::destroy()
FUNC 4ae84 4 0 std::__ndk1::__function::__func<Tab3::init()::$_18, std::__ndk1::allocator<Tab3::init()::$_18>, void (std::__ndk1::basic_string<char, std::__ndk1::char_traits<char>, std::__ndk1::allocator<char> > const&)>::destroy_deallocate()
FUNC 4ae88 8c 0 std::__ndk1::__function::__func<Tab3::init()::$_18, std::__ndk1::allocator<Tab3::init()::$_18>, void (std::__ndk1::basic_string<char, std::__ndk1::char_traits<char>, std::__ndk1::allocator<char> > const&)>::operator()(std::__ndk1::basic_string<char, std::__ndk1::char_traits<char>, std::__ndk1::allocator<char> > const&)
FUNC 4af14 1c 0 std::__ndk1::__function::__func<Tab3::init()::$_18, std::__ndk1::allocator<Tab3::init()::$_18>, void (std::__ndk1::basic_string<char, std::__ndk1::char_traits<char>, std::__ndk1::allocator<char> > const&)>::target(std::type_info const&) const
FUNC 4af30 c 0 std::__ndk1::__function::__func<Tab3::init()::$_18, std::__ndk1::allocator<Tab3::init()::$_18>, void (std::__ndk1::basic_string<char, std::__ndk1::char_traits<char>, std::__ndk1::allocator<char> > const&)>::target_type() const
FUNC 4af3c 4 0 std::__ndk1::__function::__func<Tab3::init()::$_19, std::__ndk1::allocator<Tab3::init()::$_19>, void (std::__ndk1::basic_string<char, std::__ndk1::char_traits<char>, std::__ndk1::allocator<char> > const&)>::~__func()
FUNC 4af40 34 0 std::__ndk1::__function::__func<Tab3::init()::$_19, std::__ndk1::allocator<Tab3::init()::$_19>, void (std::__ndk1::basic_string<char, std::__ndk1::char_traits<char>, std::__ndk1::allocator<char> > const&)>::__clone() const
FUNC 4af74 14 0 std::__ndk1::__function::__func<Tab3::init()::$_19, std::__ndk1::allocator<Tab3::init()::$_19>, void (std::__ndk1::basic_string<char, std::__ndk1::char_traits<char>, std::__ndk1::allocator<char> > const&)>::__clone(std::__ndk1::__function::__base<void (std::__ndk1::basic_string<char, std::__ndk1::char_traits<char>, std::__ndk1::allocator<char> > const&)>*) const
FUNC 4af88 4 0 std::__ndk1::__function::__func<Tab3::init()::$_19, std::__ndk1::allocator<Tab3::init()::$_19>, void (std::__ndk1::basic_string<char, std::__ndk1::char_traits<char>, std::__ndk1::allocator<char> > const&)>::destroy()
FUNC 4af8c 4 0 std::__ndk1::__function::__func<Tab3::init()::$_19, std::__ndk1::allocator<Tab3::init()::$_19>, void (std::__ndk1::basic_string<char, std::__ndk1::char_traits<char>, std::__ndk1::allocator<char> > const&)>::destroy_deallocate()
FUNC 4af90 8c 0 std::__ndk1::__function::__func<Tab3::init()::$_19, std::__ndk1::allocator<Tab3::init()::$_19>, void (std::__ndk1::basic_string<char, std::__ndk1::char_traits<char>, std::__ndk1::allocator<char> > const&)>::operator()(std::__ndk1::basic_string<char, std::__ndk1::char_traits<char>, std::__ndk1::allocator<char> > const&)
FUNC 4b01c 1c 0 std::__ndk1::__function::__func<Tab3::init()::$_19, std::__ndk1::allocator<Tab3::init()::$_19>, void (std::__ndk1::basic_string<char, std::__ndk1::char_traits<char>, std::__ndk1::allocator<char> > const&)>::target(std::type_info const&) const
FUNC 4b038 c 0 std::__ndk1::__function::__func<Tab3::init()::$_19, std::__ndk1::allocator<Tab3::init()::$_19>, void (std::__ndk1::basic_string<char, std::__ndk1::char_traits<char>, std::__ndk1::allocator<char> > const&)>::target_type() const
FUNC 4b044 2aa4 0 Tab4::init()
FUNC 4dae8 b8 0 Tab4::SaveCheckbox(cocos2d::CCObject*)
FUNC 4dba0 b8 0 Tab4::SaveCheckbox2(cocos2d::CCObject*)
FUNC 4dc58 b8 0 Tab4::SaveCheckbox3(cocos2d::CCObject*)
FUNC 4dd10 b8 0 Tab4::SaveCheckbox4(cocos2d::CCObject*)
FUNC 4ddc8 b8 0 Tab4::SaveCheckbox5(cocos2d::CCObject*)
FUNC 4de80 b8 0 Tab4::SaveCheckbox6(cocos2d::CCObject*)
FUNC 4df38 b8 0 Tab4::SaveCheckbox7(cocos2d::CCObject*)
FUNC 4dff0 b8 0 Tab4::SaveCheckbox8(cocos2d::CCObject*)
FUNC 4e0a8 b8 0 Tab4::SaveCheckbox9(cocos2d::CCObject*)
FUNC 4e160 b8 0 Tab4::SaveCheckbox10(cocos2d::CCObject*)
FUNC 4e218 a4 0 Tab4::create()
FUNC 4e2bc 24 0 Tab4::~Tab4()
FUNC 4e2e0 8 0 {virtual override thunk({offset(-320)}, Tab4::~Tab4())}
FUNC 4e2e8 28 0 {virtual override thunk({offset(-320)}, Tab4::~Tab4())}
FUNC 4e310 4 0 std::__ndk1::__function::__func<Tab4::init()::$_0, std::__ndk1::allocator<Tab4::init()::$_0>, void (std::__ndk1::basic_string<char, std::__ndk1::char_traits<char>, std::__ndk1::allocator<char> > const&)>::~__func()
FUNC 4e314 34 0 std::__ndk1::__function::__func<Tab4::init()::$_0, std::__ndk1::allocator<Tab4::init()::$_0>, void (std::__ndk1::basic_string<char, std::__ndk1::char_traits<char>, std::__ndk1::allocator<char> > const&)>::__clone() const
FUNC 4e348 14 0 std::__ndk1::__function::__func<Tab4::init()::$_0, std::__ndk1::allocator<Tab4::init()::$_0>, void (std::__ndk1::basic_string<char, std::__ndk1::char_traits<char>, std::__ndk1::allocator<char> > const&)>::__clone(std::__ndk1::__function::__base<void (std::__ndk1::basic_string<char, std::__ndk1::char_traits<char>, std::__ndk1::allocator<char> > const&)>*) const
FUNC 4e35c 4 0 std::__ndk1::__function::__func<Tab4::init()::$_0, std::__ndk1::allocator<Tab4::init()::$_0>, void (std::__ndk1::basic_string<char, std::__ndk1::char_traits<char>, std::__ndk1::allocator<char> > const&)>::destroy()
FUNC 4e360 4 0 std::__ndk1::__function::__func<Tab4::init()::$_0, std::__ndk1::allocator<Tab4::init()::$_0>, void (std::__ndk1::basic_string<char, std::__ndk1::char_traits<char>, std::__ndk1::allocator<char> > const&)>::destroy_deallocate()
FUNC 4e364 8c 0 std::__ndk1::__function::__func<Tab4::init()::$_0, std::__ndk1::allocator<Tab4::init()::$_0>, void (std::__ndk1::basic_string<char, std::__ndk1::char_traits<char>, std::__ndk1::allocator<char> > const&)>::operator()(std::__ndk1::basic_string<char, std::__ndk1::char_traits<char>, std::__ndk1::allocator<char> > const&)
FUNC 4e3f0 1c 0 std::__ndk1::__function::__func<Tab4::init()::$_0, std::__ndk1::allocator<Tab4::init()::$_0>, void (std::__ndk1::basic_string<char, std::__ndk1::char_traits<char>, std::__ndk1::allocator<char> > const&)>::target(std::type_info const&) const
FUNC 4e40c c 0 std::__ndk1::__function::__func<Tab4::init()::$_0, std::__ndk1::allocator<Tab4::init()::$_0>, void (std::__ndk1::basic_string<char, std::__ndk1::char_traits<char>, std::__ndk1::allocator<char> > const&)>::target_type() const
FUNC 4e418 4 0 std::__ndk1::__function::__func<Tab4::init()::$_1, std::__ndk1::allocator<Tab4::init()::$_1>, void (std::__ndk1::basic_string<char, std::__ndk1::char_traits<char>, std::__ndk1::allocator<char> > const&)>::~__func()
FUNC 4e41c 34 0 std::__ndk1::__function::__func<Tab4::init()::$_1, std::__ndk1::allocator<Tab4::init()::$_1>, void (std::__ndk1::basic_string<char, std::__ndk1::char_traits<char>, std::__ndk1::allocator<char> > const&)>::__clone() const
FUNC 4e450 14 0 std::__ndk1::__function::__func<Tab4::init()::$_1, std::__ndk1::allocator<Tab4::init()::$_1>, void (std::__ndk1::basic_string<char, std::__ndk1::char_traits<char>, std::__ndk1::allocator<char> > const&)>::__clone(std::__ndk1::__function::__base<void (std::__ndk1::basic_string<char, std::__ndk1::char_traits<char>, std::__ndk1::allocator<char> > const&)>*) const
FUNC 4e464 4 0 std::__ndk1::__function::__func<Tab4::init()::$_1, std::__ndk1::allocator<Tab4::init()::$_1>, void (std::__ndk1::basic_string<char, std::__ndk1::char_traits<char>, std::__ndk1::allocator<char> > const&)>::destroy()
FUNC 4e468 4 0 std::__ndk1::__function::__func<Tab4::init()::$_1, std::__ndk1::allocator<Tab4::init()::$_1>, void (std::__ndk1::basic_string<char, std::__ndk1::char_traits<char>, std::__ndk1::allocator<char> > const&)>::destroy_deallocate()
FUNC 4e46c 8c 0 std::__ndk1::__function::__func<Tab4::init()::$_1, std::__ndk1::allocator<Tab4::init()::$_1>, void (std::__ndk1::basic_string<char, std::__ndk1::char_traits<char>, std::__ndk1::allocator<char> > const&)>::operator()(std::__ndk1::basic_string<char, std::__ndk1::char_traits<char>, std::__ndk1::allocator<char> > const&)
FUNC 4e4f8 1c 0 std::__ndk1::__function::__func<Tab4::init()::$_1, std::__ndk1::allocator<Tab4::init()::$_1>, void (std::__ndk1::basic_string<char, std::__ndk1::char_traits<char>, std::__ndk1::allocator<char> > const&)>::target(std::type_info const&) const
FUNC 4e514 c 0 std::__ndk1::__function::__func<Tab4::init()::$_1, std::__ndk1::allocator<Tab4::init()::$_1>, void (std::__ndk1::basic_string<char, std::__ndk1::char_traits<char>, std::__ndk1::allocator<char> > const&)>::target_type() const
FUNC 4e520 4 0 std::__ndk1::__function::__func<Tab4::init()::$_2, std::__ndk1::allocator<Tab4::init()::$_2>, void (std::__ndk1::basic_string<char, std::__ndk1::char_traits<char>, std::__ndk1::allocator<char> > const&)>::~__func()
FUNC 4e524 34 0 std::__ndk1::__function::__func<Tab4::init()::$_2, std::__ndk1::allocator<Tab4::init()::$_2>, void (std::__ndk1::basic_string<char, std::__ndk1::char_traits<char>, std::__ndk1::allocator<char> > const&)>::__clone() const
FUNC 4e558 14 0 std::__ndk1::__function::__func<Tab4::init()::$_2, std::__ndk1::allocator<Tab4::init()::$_2>, void (std::__ndk1::basic_string<char, std::__ndk1::char_traits<char>, std::__ndk1::allocator<char> > const&)>::__clone(std::__ndk1::__function::__base<void (std::__ndk1::basic_string<char, std::__ndk1::char_traits<char>, std::__ndk1::allocator<char> > const&)>*) const
FUNC 4e56c 4 0 std::__ndk1::__function::__func<Tab4::init()::$_2, std::__ndk1::allocator<Tab4::init()::$_2>, void (std::__ndk1::basic_string<char, std::__ndk1::char_traits<char>, std::__ndk1::allocator<char> > const&)>::destroy()
FUNC 4e570 4 0 std::__ndk1::__function::__func<Tab4::init()::$_2, std::__ndk1::allocator<Tab4::init()::$_2>, void (std::__ndk1::basic_string<char, std::__ndk1::char_traits<char>, std::__ndk1::allocator<char> > const&)>::destroy_deallocate()
FUNC 4e574 8c 0 std::__ndk1::__function::__func<Tab4::init()::$_2, std::__ndk1::allocator<Tab4::init()::$_2>, void (std::__ndk1::basic_string<char, std::__ndk1::char_traits<char>, std::__ndk1::allocator<char> > const&)>::operator()(std::__ndk1::basic_string<char, std::__ndk1::char_traits<char>, std::__ndk1::allocator<char> > const&)
FUNC 4e600 1c 0 std::__ndk1::__function::__func<Tab4::init()::$_2, std::__ndk1::allocator<Tab4::init()::$_2>, void (std::__ndk1::basic_string<char, std::__ndk1::char_traits<char>, std::__ndk1::allocator<char> > const&)>::target(std::type_info const&) const
FUNC 4e61c c 0 std::__ndk1::__function::__func<Tab4::init()::$_2, std::__ndk1::allocator<Tab4::init()::$_2>, void (std::__ndk1::basic_string<char, std::__ndk1::char_traits<char>, std::__ndk1::allocator<char> > const&)>::target_type() const
FUNC 4e628 4 0 std::__ndk1::__function::__func<Tab4::init()::$_3, std::__ndk1::allocator<Tab4::init()::$_3>, void (std::__ndk1::basic_string<char, std::__ndk1::char_traits<char>, std::__ndk1::allocator<char> > const&)>::~__func()
FUNC 4e62c 34 0 std::__ndk1::__function::__func<Tab4::init()::$_3, std::__ndk1::allocator<Tab4::init()::$_3>, void (std::__ndk1::basic_string<char, std::__ndk1::char_traits<char>, std::__ndk1::allocator<char> > const&)>::__clone() const
FUNC 4e660 14 0 std::__ndk1::__function::__func<Tab4::init()::$_3, std::__ndk1::allocator<Tab4::init()::$_3>, void (std::__ndk1::basic_string<char, std::__ndk1::char_traits<char>, std::__ndk1::allocator<char> > const&)>::__clone(std::__ndk1::__function::__base<void (std::__ndk1::basic_string<char, std::__ndk1::char_traits<char>, std::__ndk1::allocator<char> > const&)>*) const
FUNC 4e674 4 0 std::__ndk1::__function::__func<Tab4::init()::$_3, std::__ndk1::allocator<Tab4::init()::$_3>, void (std::__ndk1::basic_string<char, std::__ndk1::char_traits<char>, std::__ndk1::allocator<char> > const&)>::destroy()
FUNC 4e678 4 0 std::__ndk1::__function::__func<Tab4::init()::$_3, std::__ndk1::allocator<Tab4::init()::$_3>, void (std::__ndk1::basic_string<char, std::__ndk1::char_traits<char>, std::__ndk1::allocator<char> > const&)>::destroy_deallocate()
FUNC 4e67c 8c 0 std::__ndk1::__function::__func<Tab4::init()::$_3, std::__ndk1::allocator<Tab4::init()::$_3>, void (std::__ndk1::basic_string<char, std::__ndk1::char_traits<char>, std::__ndk1::allocator<char> > const&)>::operator()(std::__ndk1::basic_string<char, std::__ndk1::char_traits<char>, std::__ndk1::allocator<char> > const&)
FUNC 4e708 1c 0 std::__ndk1::__function::__func<Tab4::init()::$_3, std::__ndk1::allocator<Tab4::init()::$_3>, void (std::__ndk1::basic_string<char, std::__ndk1::char_traits<char>, std::__ndk1::allocator<char> > const&)>::target(std::type_info const&) const
FUNC 4e724 c 0 std::__ndk1::__function::__func<Tab4::init()::$_3, std::__ndk1::allocator<Tab4::init()::$_3>, void (std::__ndk1::basic_string<char, std::__ndk1::char_traits<char>, std::__ndk1::allocator<char> > const&)>::target_type() const
FUNC 4e730 4 0 std::__ndk1::__function::__func<Tab4::init()::$_4, std::__ndk1::allocator<Tab4::init()::$_4>, void (std::__ndk1::basic_string<char, std::__ndk1::char_traits<char>, std::__ndk1::allocator<char> > const&)>::~__func()
FUNC 4e734 34 0 std::__ndk1::__function::__func<Tab4::init()::$_4, std::__ndk1::allocator<Tab4::init()::$_4>, void (std::__ndk1::basic_string<char, std::__ndk1::char_traits<char>, std::__ndk1::allocator<char> > const&)>::__clone() const
FUNC 4e768 14 0 std::__ndk1::__function::__func<Tab4::init()::$_4, std::__ndk1::allocator<Tab4::init()::$_4>, void (std::__ndk1::basic_string<char, std::__ndk1::char_traits<char>, std::__ndk1::allocator<char> > const&)>::__clone(std::__ndk1::__function::__base<void (std::__ndk1::basic_string<char, std::__ndk1::char_traits<char>, std::__ndk1::allocator<char> > const&)>*) const
FUNC 4e77c 4 0 std::__ndk1::__function::__func<Tab4::init()::$_4, std::__ndk1::allocator<Tab4::init()::$_4>, void (std::__ndk1::basic_string<char, std::__ndk1::char_traits<char>, std::__ndk1::allocator<char> > const&)>::destroy()
FUNC 4e780 4 0 std::__ndk1::__function::__func<Tab4::init()::$_4, std::__ndk1::allocator<Tab4::init()::$_4>, void (std::__ndk1::basic_string<char, std::__ndk1::char_traits<char>, std::__ndk1::allocator<char> > const&)>::destroy_deallocate()
FUNC 4e784 8c 0 std::__ndk1::__function::__func<Tab4::init()::$_4, std::__ndk1::allocator<Tab4::init()::$_4>, void (std::__ndk1::basic_string<char, std::__ndk1::char_traits<char>, std::__ndk1::allocator<char> > const&)>::operator()(std::__ndk1::basic_string<char, std::__ndk1::char_traits<char>, std::__ndk1::allocator<char> > const&)
FUNC 4e810 1c 0 std::__ndk1::__function::__func<Tab4::init()::$_4, std::__ndk1::allocator<Tab4::init()::$_4>, void (std::__ndk1::basic_string<char, std::__ndk1::char_traits<char>, std::__ndk1::allocator<char> > const&)>::target(std::type_info const&) const
FUNC 4e82c c 0 std::__ndk1::__function::__func<Tab4::init()::$_4, std::__ndk1::allocator<Tab4::init()::$_4>, void (std::__ndk1::basic_string<char, std::__ndk1::char_traits<char>, std::__ndk1::allocator<char> > const&)>::target_type() const
FUNC 4e838 4 0 std::__ndk1::__function::__func<Tab4::init()::$_5, std::__ndk1::allocator<Tab4::init()::$_5>, void (std::__ndk1::basic_string<char, std::__ndk1::char_traits<char>, std::__ndk1::allocator<char> > const&)>::~__func()
FUNC 4e83c 34 0 std::__ndk1::__function::__func<Tab4::init()::$_5, std::__ndk1::allocator<Tab4::init()::$_5>, void (std::__ndk1::basic_string<char, std::__ndk1::char_traits<char>, std::__ndk1::allocator<char> > const&)>::__clone() const
FUNC 4e870 14 0 std::__ndk1::__function::__func<Tab4::init()::$_5, std::__ndk1::allocator<Tab4::init()::$_5>, void (std::__ndk1::basic_string<char, std::__ndk1::char_traits<char>, std::__ndk1::allocator<char> > const&)>::__clone(std::__ndk1::__function::__base<void (std::__ndk1::basic_string<char, std::__ndk1::char_traits<char>, std::__ndk1::allocator<char> > const&)>*) const
FUNC 4e884 4 0 std::__ndk1::__function::__func<Tab4::init()::$_5, std::__ndk1::allocator<Tab4::init()::$_5>, void (std::__ndk1::basic_string<char, std::__ndk1::char_traits<char>, std::__ndk1::allocator<char> > const&)>::destroy()
FUNC 4e888 4 0 std::__ndk1::__function::__func<Tab4::init()::$_5, std::__ndk1::allocator<Tab4::init()::$_5>, void (std::__ndk1::basic_string<char, std::__ndk1::char_traits<char>, std::__ndk1::allocator<char> > const&)>::destroy_deallocate()
FUNC 4e88c 8c 0 std::__ndk1::__function::__func<Tab4::init()::$_5, std::__ndk1::allocator<Tab4::init()::$_5>, void (std::__ndk1::basic_string<char, std::__ndk1::char_traits<char>, std::__ndk1::allocator<char> > const&)>::operator()(std::__ndk1::basic_string<char, std::__ndk1::char_traits<char>, std::__ndk1::allocator<char> > const&)
FUNC 4e918 1c 0 std::__ndk1::__function::__func<Tab4::init()::$_5, std::__ndk1::allocator<Tab4::init()::$_5>, void (std::__ndk1::basic_string<char, std::__ndk1::char_traits<char>, std::__ndk1::allocator<char> > const&)>::target(std::type_info const&) const
FUNC 4e934 c 0 std::__ndk1::__function::__func<Tab4::init()::$_5, std::__ndk1::allocator<Tab4::init()::$_5>, void (std::__ndk1::basic_string<char, std::__ndk1::char_traits<char>, std::__ndk1::allocator<char> > const&)>::target_type() const
FUNC 4e940 4 0 std::__ndk1::__function::__func<Tab4::init()::$_6, std::__ndk1::allocator<Tab4::init()::$_6>, void (std::__ndk1::basic_string<char, std::__ndk1::char_traits<char>, std::__ndk1::allocator<char> > const&)>::~__func()
FUNC 4e944 34 0 std::__ndk1::__function::__func<Tab4::init()::$_6, std::__ndk1::allocator<Tab4::init()::$_6>, void (std::__ndk1::basic_string<char, std::__ndk1::char_traits<char>, std::__ndk1::allocator<char> > const&)>::__clone() const
FUNC 4e978 14 0 std::__ndk1::__function::__func<Tab4::init()::$_6, std::__ndk1::allocator<Tab4::init()::$_6>, void (std::__ndk1::basic_string<char, std::__ndk1::char_traits<char>, std::__ndk1::allocator<char> > const&)>::__clone(std::__ndk1::__function::__base<void (std::__ndk1::basic_string<char, std::__ndk1::char_traits<char>, std::__ndk1::allocator<char> > const&)>*) const
FUNC 4e98c 4 0 std::__ndk1::__function::__func<Tab4::init()::$_6, std::__ndk1::allocator<Tab4::init()::$_6>, void (std::__ndk1::basic_string<char, std::__ndk1::char_traits<char>, std::__ndk1::allocator<char> > const&)>::destroy()
FUNC 4e990 4 0 std::__ndk1::__function::__func<Tab4::init()::$_6, std::__ndk1::allocator<Tab4::init()::$_6>, void (std::__ndk1::basic_string<char, std::__ndk1::char_traits<char>, std::__ndk1::allocator<char> > const&)>::destroy_deallocate()
FUNC 4e994 8c 0 std::__ndk1::__function::__func<Tab4::init()::$_6, std::__ndk1::allocator<Tab4::init()::$_6>, void (std::__ndk1::basic_string<char, std::__ndk1::char_traits<char>, std::__ndk1::allocator<char> > const&)>::operator()(std::__ndk1::basic_string<char, std::__ndk1::char_traits<char>, std::__ndk1::allocator<char> > const&)
FUNC 4ea20 1c 0 std::__ndk1::__function::__func<Tab4::init()::$_6, std::__ndk1::allocator<Tab4::init()::$_6>, void (std::__ndk1::basic_string<char, std::__ndk1::char_traits<char>, std::__ndk1::allocator<char> > const&)>::target(std::type_info const&) const
FUNC 4ea3c c 0 std::__ndk1::__function::__func<Tab4::init()::$_6, std::__ndk1::allocator<Tab4::init()::$_6>, void (std::__ndk1::basic_string<char, std::__ndk1::char_traits<char>, std::__ndk1::allocator<char> > const&)>::target_type() const
FUNC 4ea48 4 0 std::__ndk1::__function::__func<Tab4::init()::$_7, std::__ndk1::allocator<Tab4::init()::$_7>, void (std::__ndk1::basic_string<char, std::__ndk1::char_traits<char>, std::__ndk1::allocator<char> > const&)>::~__func()
FUNC 4ea4c 34 0 std::__ndk1::__function::__func<Tab4::init()::$_7, std::__ndk1::allocator<Tab4::init()::$_7>, void (std::__ndk1::basic_string<char, std::__ndk1::char_traits<char>, std::__ndk1::allocator<char> > const&)>::__clone() const
FUNC 4ea80 14 0 std::__ndk1::__function::__func<Tab4::init()::$_7, std::__ndk1::allocator<Tab4::init()::$_7>, void (std::__ndk1::basic_string<char, std::__ndk1::char_traits<char>, std::__ndk1::allocator<char> > const&)>::__clone(std::__ndk1::__function::__base<void (std::__ndk1::basic_string<char, std::__ndk1::char_traits<char>, std::__ndk1::allocator<char> > const&)>*) const
FUNC 4ea94 4 0 std::__ndk1::__function::__func<Tab4::init()::$_7, std::__ndk1::allocator<Tab4::init()::$_7>, void (std::__ndk1::basic_string<char, std::__ndk1::char_traits<char>, std::__ndk1::allocator<char> > const&)>::destroy()
FUNC 4ea98 4 0 std::__ndk1::__function::__func<Tab4::init()::$_7, std::__ndk1::allocator<Tab4::init()::$_7>, void (std::__ndk1::basic_string<char, std::__ndk1::char_traits<char>, std::__ndk1::allocator<char> > const&)>::destroy_deallocate()
FUNC 4ea9c 8c 0 std::__ndk1::__function::__func<Tab4::init()::$_7, std::__ndk1::allocator<Tab4::init()::$_7>, void (std::__ndk1::basic_string<char, std::__ndk1::char_traits<char>, std::__ndk1::allocator<char> > const&)>::operator()(std::__ndk1::basic_string<char, std::__ndk1::char_traits<char>, std::__ndk1::allocator<char> > const&)
FUNC 4eb28 1c 0 std::__ndk1::__function::__func<Tab4::init()::$_7, std::__ndk1::allocator<Tab4::init()::$_7>, void (std::__ndk1::basic_string<char, std::__ndk1::char_traits<char>, std::__ndk1::allocator<char> > const&)>::target(std::type_info const&) const
FUNC 4eb44 c 0 std::__ndk1::__function::__func<Tab4::init()::$_7, std::__ndk1::allocator<Tab4::init()::$_7>, void (std::__ndk1::basic_string<char, std::__ndk1::char_traits<char>, std::__ndk1::allocator<char> > const&)>::target_type() const
FUNC 4eb50 4 0 std::__ndk1::__function::__func<Tab4::init()::$_8, std::__ndk1::allocator<Tab4::init()::$_8>, void (std::__ndk1::basic_string<char, std::__ndk1::char_traits<char>, std::__ndk1::allocator<char> > const&)>::~__func()
FUNC 4eb54 34 0 std::__ndk1::__function::__func<Tab4::init()::$_8, std::__ndk1::allocator<Tab4::init()::$_8>, void (std::__ndk1::basic_string<char, std::__ndk1::char_traits<char>, std::__ndk1::allocator<char> > const&)>::__clone() const
FUNC 4eb88 14 0 std::__ndk1::__function::__func<Tab4::init()::$_8, std::__ndk1::allocator<Tab4::init()::$_8>, void (std::__ndk1::basic_string<char, std::__ndk1::char_traits<char>, std::__ndk1::allocator<char> > const&)>::__clone(std::__ndk1::__function::__base<void (std::__ndk1::basic_string<char, std::__ndk1::char_traits<char>, std::__ndk1::allocator<char> > const&)>*) const
FUNC 4eb9c 4 0 std::__ndk1::__function::__func<Tab4::init()::$_8, std::__ndk1::allocator<Tab4::init()::$_8>, void (std::__ndk1::basic_string<char, std::__ndk1::char_traits<char>, std::__ndk1::allocator<char> > const&)>::destroy()
FUNC 4eba0 4 0 std::__ndk1::__function::__func<Tab4::init()::$_8, std::__ndk1::allocator<Tab4::init()::$_8>, void (std::__ndk1::basic_string<char, std::__ndk1::char_traits<char>, std::__ndk1::allocator<char> > const&)>::destroy_deallocate()
FUNC 4eba4 8c 0 std::__ndk1::__function::__func<Tab4::init()::$_8, std::__ndk1::allocator<Tab4::init()::$_8>, void (std::__ndk1::basic_string<char, std::__ndk1::char_traits<char>, std::__ndk1::allocator<char> > const&)>::operator()(std::__ndk1::basic_string<char, std::__ndk1::char_traits<char>, std::__ndk1::allocator<char> > const&)
FUNC 4ec30 1c 0 std::__ndk1::__function::__func<Tab4::init()::$_8, std::__ndk1::allocator<Tab4::init()::$_8>, void (std::__ndk1::basic_string<char, std::__ndk1::char_traits<char>, std::__ndk1::allocator<char> > const&)>::target(std::type_info const&) const
FUNC 4ec4c c 0 std::__ndk1::__function::__func<Tab4::init()::$_8, std::__ndk1::allocator<Tab4::init()::$_8>, void (std::__ndk1::basic_string<char, std::__ndk1::char_traits<char>, std::__ndk1::allocator<char> > const&)>::target_type() const
FUNC 4ec58 4 0 std::__ndk1::__function::__func<Tab4::init()::$_9, std::__ndk1::allocator<Tab4::init()::$_9>, void (std::__ndk1::basic_string<char, std::__ndk1::char_traits<char>, std::__ndk1::allocator<char> > const&)>::~__func()
FUNC 4ec5c 34 0 std::__ndk1::__function::__func<Tab4::init()::$_9, std::__ndk1::allocator<Tab4::init()::$_9>, void (std::__ndk1::basic_string<char, std::__ndk1::char_traits<char>, std::__ndk1::allocator<char> > const&)>::__clone() const
FUNC 4ec90 14 0 std::__ndk1::__function::__func<Tab4::init()::$_9, std::__ndk1::allocator<Tab4::init()::$_9>, void (std::__ndk1::basic_string<char, std::__ndk1::char_traits<char>, std::__ndk1::allocator<char> > const&)>::__clone(std::__ndk1::__function::__base<void (std::__ndk1::basic_string<char, std::__ndk1::char_traits<char>, std::__ndk1::allocator<char> > const&)>*) const
FUNC 4eca4 4 0 std::__ndk1::__function::__func<Tab4::init()::$_9, std::__ndk1::allocator<Tab4::init()::$_9>, void (std::__ndk1::basic_string<char, std::__ndk1::char_traits<char>, std::__ndk1::allocator<char> > const&)>::destroy()
FUNC 4eca8 4 0 std::__ndk1::__function::__func<Tab4::init()::$_9, std::__ndk1::allocator<Tab4::init()::$_9>, void (std::__ndk1::basic_string<char, std::__ndk1::char_traits<char>, std::__ndk1::allocator<char> > const&)>::destroy_deallocate()
FUNC 4ecac 8c 0 std::__ndk1::__function::__func<Tab4::init()::$_9, std::__ndk1::allocator<Tab4::init()::$_9>, void (std::__ndk1::basic_string<char, std::__ndk1::char_traits<char>, std::__ndk1::allocator<char> > const&)>::operator()(std::__ndk1::basic_string<char, std::__ndk1::char_traits<char>, std::__ndk1::allocator<char> > const&)
FUNC 4ed38 1c 0 std::__ndk1::__function::__func<Tab4::init()::$_9, std::__ndk1::allocator<Tab4::init()::$_9>, void (std::__ndk1::basic_string<char, std::__ndk1::char_traits<char>, std::__ndk1::allocator<char> > const&)>::target(std::type_info const&) const
FUNC 4ed54 c 0 std::__ndk1::__function::__func<Tab4::init()::$_9, std::__ndk1::allocator<Tab4::init()::$_9>, void (std::__ndk1::basic_string<char, std::__ndk1::char_traits<char>, std::__ndk1::allocator<char> > const&)>::target_type() const
FUNC 4ed60 4 0 std::__ndk1::__function::__func<Tab4::init()::$_10, std::__ndk1::allocator<Tab4::init()::$_10>, void (std::__ndk1::basic_string<char, std::__ndk1::char_traits<char>, std::__ndk1::allocator<char> > const&)>::~__func()
FUNC 4ed64 34 0 std::__ndk1::__function::__func<Tab4::init()::$_10, std::__ndk1::allocator<Tab4::init()::$_10>, void (std::__ndk1::basic_string<char, std::__ndk1::char_traits<char>, std::__ndk1::allocator<char> > const&)>::__clone() const
FUNC 4ed98 14 0 std::__ndk1::__function::__func<Tab4::init()::$_10, std::__ndk1::allocator<Tab4::init()::$_10>, void (std::__ndk1::basic_string<char, std::__ndk1::char_traits<char>, std::__ndk1::allocator<char> > const&)>::__clone(std::__ndk1::__function::__base<void (std::__ndk1::basic_string<char, std::__ndk1::char_traits<char>, std::__ndk1::allocator<char> > const&)>*) const
FUNC 4edac 4 0 std::__ndk1::__function::__func<Tab4::init()::$_10, std::__ndk1::allocator<Tab4::init()::$_10>, void (std::__ndk1::basic_string<char, std::__ndk1::char_traits<char>, std::__ndk1::allocator<char> > const&)>::destroy()
FUNC 4edb0 4 0 std::__ndk1::__function::__func<Tab4::init()::$_10, std::__ndk1::allocator<Tab4::init()::$_10>, void (std::__ndk1::basic_string<char, std::__ndk1::char_traits<char>, std::__ndk1::allocator<char> > const&)>::destroy_deallocate()
FUNC 4edb4 8c 0 std::__ndk1::__function::__func<Tab4::init()::$_10, std::__ndk1::allocator<Tab4::init()::$_10>, void (std::__ndk1::basic_string<char, std::__ndk1::char_traits<char>, std::__ndk1::allocator<char> > const&)>::operator()(std::__ndk1::basic_string<char, std::__ndk1::char_traits<char>, std::__ndk1::allocator<char> > const&)
FUNC 4ee40 1c 0 std::__ndk1::__function::__func<Tab4::init()::$_10, std::__ndk1::allocator<Tab4::init()::$_10>, void (std::__ndk1::basic_string<char, std::__ndk1::char_traits<char>, std::__ndk1::allocator<char> > const&)>::target(std::type_info const&) const
FUNC 4ee5c c 0 std::__ndk1::__function::__func<Tab4::init()::$_10, std::__ndk1::allocator<Tab4::init()::$_10>, void (std::__ndk1::basic_string<char, std::__ndk1::char_traits<char>, std::__ndk1::allocator<char> > const&)>::target_type() const
FUNC 4ee68 4 0 std::__ndk1::__function::__func<Tab4::init()::$_11, std::__ndk1::allocator<Tab4::init()::$_11>, void (std::__ndk1::basic_string<char, std::__ndk1::char_traits<char>, std::__ndk1::allocator<char> > const&)>::~__func()
FUNC 4ee6c 34 0 std::__ndk1::__function::__func<Tab4::init()::$_11, std::__ndk1::allocator<Tab4::init()::$_11>, void (std::__ndk1::basic_string<char, std::__ndk1::char_traits<char>, std::__ndk1::allocator<char> > const&)>::__clone() const
FUNC 4eea0 14 0 std::__ndk1::__function::__func<Tab4::init()::$_11, std::__ndk1::allocator<Tab4::init()::$_11>, void (std::__ndk1::basic_string<char, std::__ndk1::char_traits<char>, std::__ndk1::allocator<char> > const&)>::__clone(std::__ndk1::__function::__base<void (std::__ndk1::basic_string<char, std::__ndk1::char_traits<char>, std::__ndk1::allocator<char> > const&)>*) const
FUNC 4eeb4 4 0 std::__ndk1::__function::__func<Tab4::init()::$_11, std::__ndk1::allocator<Tab4::init()::$_11>, void (std::__ndk1::basic_string<char, std::__ndk1::char_traits<char>, std::__ndk1::allocator<char> > const&)>::destroy()
FUNC 4eeb8 4 0 std::__ndk1::__function::__func<Tab4::init()::$_11, std::__ndk1::allocator<Tab4::init()::$_11>, void (std::__ndk1::basic_string<char, std::__ndk1::char_traits<char>, std::__ndk1::allocator<char> > const&)>::destroy_deallocate()
FUNC 4eebc 8c 0 std::__ndk1::__function::__func<Tab4::init()::$_11, std::__ndk1::allocator<Tab4::init()::$_11>, void (std::__ndk1::basic_string<char, std::__ndk1::char_traits<char>, std::__ndk1::allocator<char> > const&)>::operator()(std::__ndk1::basic_string<char, std::__ndk1::char_traits<char>, std::__ndk1::allocator<char> > const&)
FUNC 4ef48 1c 0 std::__ndk1::__function::__func<Tab4::init()::$_11, std::__ndk1::allocator<Tab4::init()::$_11>, void (std::__ndk1::basic_string<char, std::__ndk1::char_traits<char>, std::__ndk1::allocator<char> > const&)>::target(std::type_info const&) const
FUNC 4ef64 c 0 std::__ndk1::__function::__func<Tab4::init()::$_11, std::__ndk1::allocator<Tab4::init()::$_11>, void (std::__ndk1::basic_string<char, std::__ndk1::char_traits<char>, std::__ndk1::allocator<char> > const&)>::target_type() const
FUNC 4ef70 4 0 std::__ndk1::__function::__func<Tab4::init()::$_12, std::__ndk1::allocator<Tab4::init()::$_12>, void (std::__ndk1::basic_string<char, std::__ndk1::char_traits<char>, std::__ndk1::allocator<char> > const&)>::~__func()
FUNC 4ef74 34 0 std::__ndk1::__function::__func<Tab4::init()::$_12, std::__ndk1::allocator<Tab4::init()::$_12>, void (std::__ndk1::basic_string<char, std::__ndk1::char_traits<char>, std::__ndk1::allocator<char> > const&)>::__clone() const
FUNC 4efa8 14 0 std::__ndk1::__function::__func<Tab4::init()::$_12, std::__ndk1::allocator<Tab4::init()::$_12>, void (std::__ndk1::basic_string<char, std::__ndk1::char_traits<char>, std::__ndk1::allocator<char> > const&)>::__clone(std::__ndk1::__function::__base<void (std::__ndk1::basic_string<char, std::__ndk1::char_traits<char>, std::__ndk1::allocator<char> > const&)>*) const
FUNC 4efbc 4 0 std::__ndk1::__function::__func<Tab4::init()::$_12, std::__ndk1::allocator<Tab4::init()::$_12>, void (std::__ndk1::basic_string<char, std::__ndk1::char_traits<char>, std::__ndk1::allocator<char> > const&)>::destroy()
FUNC 4efc0 4 0 std::__ndk1::__function::__func<Tab4::init()::$_12, std::__ndk1::allocator<Tab4::init()::$_12>, void (std::__ndk1::basic_string<char, std::__ndk1::char_traits<char>, std::__ndk1::allocator<char> > const&)>::destroy_deallocate()
FUNC 4efc4 8c 0 std::__ndk1::__function::__func<Tab4::init()::$_12, std::__ndk1::allocator<Tab4::init()::$_12>, void (std::__ndk1::basic_string<char, std::__ndk1::char_traits<char>, std::__ndk1::allocator<char> > const&)>::operator()(std::__ndk1::basic_string<char, std::__ndk1::char_traits<char>, std::__ndk1::allocator<char> > const&)
FUNC 4f050 1c 0 std::__ndk1::__function::__func<Tab4::init()::$_12, std::__ndk1::allocator<Tab4::init()::$_12>, void (std::__ndk1::basic_string<char, std::__ndk1::char_traits<char>, std::__ndk1::allocator<char> > const&)>::target(std::type_info const&) const
FUNC 4f06c c 0 std::__ndk1::__function::__func<Tab4::init()::$_12, std::__ndk1::allocator<Tab4::init()::$_12>, void (std::__ndk1::basic_string<char, std::__ndk1::char_traits<char>, std::__ndk1::allocator<char> > const&)>::target_type() const
FUNC 4f078 4 0 std::__ndk1::__function::__func<Tab4::init()::$_13, std::__ndk1::allocator<Tab4::init()::$_13>, void (std::__ndk1::basic_string<char, std::__ndk1::char_traits<char>, std::__ndk1::allocator<char> > const&)>::~__func()
FUNC 4f07c 34 0 std::__ndk1::__function::__func<Tab4::init()::$_13, std::__ndk1::allocator<Tab4::init()::$_13>, void (std::__ndk1::basic_string<char, std::__ndk1::char_traits<char>, std::__ndk1::allocator<char> > const&)>::__clone() const
FUNC 4f0b0 14 0 std::__ndk1::__function::__func<Tab4::init()::$_13, std::__ndk1::allocator<Tab4::init()::$_13>, void (std::__ndk1::basic_string<char, std::__ndk1::char_traits<char>, std::__ndk1::allocator<char> > const&)>::__clone(std::__ndk1::__function::__base<void (std::__ndk1::basic_string<char, std::__ndk1::char_traits<char>, std::__ndk1::allocator<char> > const&)>*) const
FUNC 4f0c4 4 0 std::__ndk1::__function::__func<Tab4::init()::$_13, std::__ndk1::allocator<Tab4::init()::$_13>, void (std::__ndk1::basic_string<char, std::__ndk1::char_traits<char>, std::__ndk1::allocator<char> > const&)>::destroy()
FUNC 4f0c8 4 0 std::__ndk1::__function::__func<Tab4::init()::$_13, std::__ndk1::allocator<Tab4::init()::$_13>, void (std::__ndk1::basic_string<char, std::__ndk1::char_traits<char>, std::__ndk1::allocator<char> > const&)>::destroy_deallocate()
FUNC 4f0cc 8c 0 std::__ndk1::__function::__func<Tab4::init()::$_13, std::__ndk1::allocator<Tab4::init()::$_13>, void (std::__ndk1::basic_string<char, std::__ndk1::char_traits<char>, std::__ndk1::allocator<char> > const&)>::operator()(std::__ndk1::basic_string<char, std::__ndk1::char_traits<char>, std::__ndk1::allocator<char> > const&)
FUNC 4f158 1c 0 std::__ndk1::__function::__func<Tab4::init()::$_13, std::__ndk1::allocator<Tab4::init()::$_13>, void (std::__ndk1::basic_string<char, std::__ndk1::char_traits<char>, std::__ndk1::allocator<char> > const&)>::target(std::type_info const&) const
FUNC 4f174 c 0 std::__ndk1::__function::__func<Tab4::init()::$_13, std::__ndk1::allocator<Tab4::init()::$_13>, void (std::__ndk1::basic_string<char, std::__ndk1::char_traits<char>, std::__ndk1::allocator<char> > const&)>::target_type() const
FUNC 4f180 4 0 std::__ndk1::__function::__func<Tab4::init()::$_14, std::__ndk1::allocator<Tab4::init()::$_14>, void (std::__ndk1::basic_string<char, std::__ndk1::char_traits<char>, std::__ndk1::allocator<char> > const&)>::~__func()
FUNC 4f184 34 0 std::__ndk1::__function::__func<Tab4::init()::$_14, std::__ndk1::allocator<Tab4::init()::$_14>, void (std::__ndk1::basic_string<char, std::__ndk1::char_traits<char>, std::__ndk1::allocator<char> > const&)>::__clone() const
FUNC 4f1b8 14 0 std::__ndk1::__function::__func<Tab4::init()::$_14, std::__ndk1::allocator<Tab4::init()::$_14>, void (std::__ndk1::basic_string<char, std::__ndk1::char_traits<char>, std::__ndk1::allocator<char> > const&)>::__clone(std::__ndk1::__function::__base<void (std::__ndk1::basic_string<char, std::__ndk1::char_traits<char>, std::__ndk1::allocator<char> > const&)>*) const
FUNC 4f1cc 4 0 std::__ndk1::__function::__func<Tab4::init()::$_14, std::__ndk1::allocator<Tab4::init()::$_14>, void (std::__ndk1::basic_string<char, std::__ndk1::char_traits<char>, std::__ndk1::allocator<char> > const&)>::destroy()
FUNC 4f1d0 4 0 std::__ndk1::__function::__func<Tab4::init()::$_14, std::__ndk1::allocator<Tab4::init()::$_14>, void (std::__ndk1::basic_string<char, std::__ndk1::char_traits<char>, std::__ndk1::allocator<char> > const&)>::destroy_deallocate()
FUNC 4f1d4 8c 0 std::__ndk1::__function::__func<Tab4::init()::$_14, std::__ndk1::allocator<Tab4::init()::$_14>, void (std::__ndk1::basic_string<char, std::__ndk1::char_traits<char>, std::__ndk1::allocator<char> > const&)>::operator()(std::__ndk1::basic_string<char, std::__ndk1::char_traits<char>, std::__ndk1::allocator<char> > const&)
FUNC 4f260 1c 0 std::__ndk1::__function::__func<Tab4::init()::$_14, std::__ndk1::allocator<Tab4::init()::$_14>, void (std::__ndk1::basic_string<char, std::__ndk1::char_traits<char>, std::__ndk1::allocator<char> > const&)>::target(std::type_info const&) const
FUNC 4f27c c 0 std::__ndk1::__function::__func<Tab4::init()::$_14, std::__ndk1::allocator<Tab4::init()::$_14>, void (std::__ndk1::basic_string<char, std::__ndk1::char_traits<char>, std::__ndk1::allocator<char> > const&)>::target_type() const
FUNC 4f288 4 0 std::__ndk1::__function::__func<Tab4::init()::$_15, std::__ndk1::allocator<Tab4::init()::$_15>, void (std::__ndk1::basic_string<char, std::__ndk1::char_traits<char>, std::__ndk1::allocator<char> > const&)>::~__func()
FUNC 4f28c 34 0 std::__ndk1::__function::__func<Tab4::init()::$_15, std::__ndk1::allocator<Tab4::init()::$_15>, void (std::__ndk1::basic_string<char, std::__ndk1::char_traits<char>, std::__ndk1::allocator<char> > const&)>::__clone() const
FUNC 4f2c0 14 0 std::__ndk1::__function::__func<Tab4::init()::$_15, std::__ndk1::allocator<Tab4::init()::$_15>, void (std::__ndk1::basic_string<char, std::__ndk1::char_traits<char>, std::__ndk1::allocator<char> > const&)>::__clone(std::__ndk1::__function::__base<void (std::__ndk1::basic_string<char, std::__ndk1::char_traits<char>, std::__ndk1::allocator<char> > const&)>*) const
FUNC 4f2d4 4 0 std::__ndk1::__function::__func<Tab4::init()::$_15, std::__ndk1::allocator<Tab4::init()::$_15>, void (std::__ndk1::basic_string<char, std::__ndk1::char_traits<char>, std::__ndk1::allocator<char> > const&)>::destroy()
FUNC 4f2d8 4 0 std::__ndk1::__function::__func<Tab4::init()::$_15, std::__ndk1::allocator<Tab4::init()::$_15>, void (std::__ndk1::basic_string<char, std::__ndk1::char_traits<char>, std::__ndk1::allocator<char> > const&)>::destroy_deallocate()
FUNC 4f2dc 8c 0 std::__ndk1::__function::__func<Tab4::init()::$_15, std::__ndk1::allocator<Tab4::init()::$_15>, void (std::__ndk1::basic_string<char, std::__ndk1::char_traits<char>, std::__ndk1::allocator<char> > const&)>::operator()(std::__ndk1::basic_string<char, std::__ndk1::char_traits<char>, std::__ndk1::allocator<char> > const&)
FUNC 4f368 1c 0 std::__ndk1::__function::__func<Tab4::init()::$_15, std::__ndk1::allocator<Tab4::init()::$_15>, void (std::__ndk1::basic_string<char, std::__ndk1::char_traits<char>, std::__ndk1::allocator<char> > const&)>::target(std::type_info const&) const
FUNC 4f384 c 0 std::__ndk1::__function::__func<Tab4::init()::$_15, std::__ndk1::allocator<Tab4::init()::$_15>, void (std::__ndk1::basic_string<char, std::__ndk1::char_traits<char>, std::__ndk1::allocator<char> > const&)>::target_type() const
FUNC 4f390 4 0 std::__ndk1::__function::__func<Tab4::init()::$_16, std::__ndk1::allocator<Tab4::init()::$_16>, void (std::__ndk1::basic_string<char, std::__ndk1::char_traits<char>, std::__ndk1::allocator<char> > const&)>::~__func()
FUNC 4f394 34 0 std::__ndk1::__function::__func<Tab4::init()::$_16, std::__ndk1::allocator<Tab4::init()::$_16>, void (std::__ndk1::basic_string<char, std::__ndk1::char_traits<char>, std::__ndk1::allocator<char> > const&)>::__clone() const
FUNC 4f3c8 14 0 std::__ndk1::__function::__func<Tab4::init()::$_16, std::__ndk1::allocator<Tab4::init()::$_16>, void (std::__ndk1::basic_string<char, std::__ndk1::char_traits<char>, std::__ndk1::allocator<char> > const&)>::__clone(std::__ndk1::__function::__base<void (std::__ndk1::basic_string<char, std::__ndk1::char_traits<char>, std::__ndk1::allocator<char> > const&)>*) const
FUNC 4f3dc 4 0 std::__ndk1::__function::__func<Tab4::init()::$_16, std::__ndk1::allocator<Tab4::init()::$_16>, void (std::__ndk1::basic_string<char, std::__ndk1::char_traits<char>, std::__ndk1::allocator<char> > const&)>::destroy()
FUNC 4f3e0 4 0 std::__ndk1::__function::__func<Tab4::init()::$_16, std::__ndk1::allocator<Tab4::init()::$_16>, void (std::__ndk1::basic_string<char, std::__ndk1::char_traits<char>, std::__ndk1::allocator<char> > const&)>::destroy_deallocate()
FUNC 4f3e4 8c 0 std::__ndk1::__function::__func<Tab4::init()::$_16, std::__ndk1::allocator<Tab4::init()::$_16>, void (std::__ndk1::basic_string<char, std::__ndk1::char_traits<char>, std::__ndk1::allocator<char> > const&)>::operator()(std::__ndk1::basic_string<char, std::__ndk1::char_traits<char>, std::__ndk1::allocator<char> > const&)
FUNC 4f470 1c 0 std::__ndk1::__function::__func<Tab4::init()::$_16, std::__ndk1::allocator<Tab4::init()::$_16>, void (std::__ndk1::basic_string<char, std::__ndk1::char_traits<char>, std::__ndk1::allocator<char> > const&)>::target(std::type_info const&) const
FUNC 4f48c c 0 std::__ndk1::__function::__func<Tab4::init()::$_16, std::__ndk1::allocator<Tab4::init()::$_16>, void (std::__ndk1::basic_string<char, std::__ndk1::char_traits<char>, std::__ndk1::allocator<char> > const&)>::target_type() const
FUNC 4f498 4 0 std::__ndk1::__function::__func<Tab4::init()::$_17, std::__ndk1::allocator<Tab4::init()::$_17>, void (std::__ndk1::basic_string<char, std::__ndk1::char_traits<char>, std::__ndk1::allocator<char> > const&)>::~__func()
FUNC 4f49c 34 0 std::__ndk1::__function::__func<Tab4::init()::$_17, std::__ndk1::allocator<Tab4::init()::$_17>, void (std::__ndk1::basic_string<char, std::__ndk1::char_traits<char>, std::__ndk1::allocator<char> > const&)>::__clone() const
FUNC 4f4d0 14 0 std::__ndk1::__function::__func<Tab4::init()::$_17, std::__ndk1::allocator<Tab4::init()::$_17>, void (std::__ndk1::basic_string<char, std::__ndk1::char_traits<char>, std::__ndk1::allocator<char> > const&)>::__clone(std::__ndk1::__function::__base<void (std::__ndk1::basic_string<char, std::__ndk1::char_traits<char>, std::__ndk1::allocator<char> > const&)>*) const
FUNC 4f4e4 4 0 std::__ndk1::__function::__func<Tab4::init()::$_17, std::__ndk1::allocator<Tab4::init()::$_17>, void (std::__ndk1::basic_string<char, std::__ndk1::char_traits<char>, std::__ndk1::allocator<char> > const&)>::destroy()
FUNC 4f4e8 4 0 std::__ndk1::__function::__func<Tab4::init()::$_17, std::__ndk1::allocator<Tab4::init()::$_17>, void (std::__ndk1::basic_string<char, std::__ndk1::char_traits<char>, std::__ndk1::allocator<char> > const&)>::destroy_deallocate()
FUNC 4f4ec 8c 0 std::__ndk1::__function::__func<Tab4::init()::$_17, std::__ndk1::allocator<Tab4::init()::$_17>, void (std::__ndk1::basic_string<char, std::__ndk1::char_traits<char>, std::__ndk1::allocator<char> > const&)>::operator()(std::__ndk1::basic_string<char, std::__ndk1::char_traits<char>, std::__ndk1::allocator<char> > const&)
FUNC 4f578 1c 0 std::__ndk1::__function::__func<Tab4::init()::$_17, std::__ndk1::allocator<Tab4::init()::$_17>, void (std::__ndk1::basic_string<char, std::__ndk1::char_traits<char>, std::__ndk1::allocator<char> > const&)>::target(std::type_info const&) const
FUNC 4f594 c 0 std::__ndk1::__function::__func<Tab4::init()::$_17, std::__ndk1::allocator<Tab4::init()::$_17>, void (std::__ndk1::basic_string<char, std::__ndk1::char_traits<char>, std::__ndk1::allocator<char> > const&)>::target_type() const
FUNC 4f5a0 4 0 std::__ndk1::__function::__func<Tab4::init()::$_18, std::__ndk1::allocator<Tab4::init()::$_18>, void (std::__ndk1::basic_string<char, std::__ndk1::char_traits<char>, std::__ndk1::allocator<char> > const&)>::~__func()
FUNC 4f5a4 34 0 std::__ndk1::__function::__func<Tab4::init()::$_18, std::__ndk1::allocator<Tab4::init()::$_18>, void (std::__ndk1::basic_string<char, std::__ndk1::char_traits<char>, std::__ndk1::allocator<char> > const&)>::__clone() const
FUNC 4f5d8 14 0 std::__ndk1::__function::__func<Tab4::init()::$_18, std::__ndk1::allocator<Tab4::init()::$_18>, void (std::__ndk1::basic_string<char, std::__ndk1::char_traits<char>, std::__ndk1::allocator<char> > const&)>::__clone(std::__ndk1::__function::__base<void (std::__ndk1::basic_string<char, std::__ndk1::char_traits<char>, std::__ndk1::allocator<char> > const&)>*) const
FUNC 4f5ec 4 0 std::__ndk1::__function::__func<Tab4::init()::$_18, std::__ndk1::allocator<Tab4::init()::$_18>, void (std::__ndk1::basic_string<char, std::__ndk1::char_traits<char>, std::__ndk1::allocator<char> > const&)>::destroy()
FUNC 4f5f0 4 0 std::__ndk1::__function::__func<Tab4::init()::$_18, std::__ndk1::allocator<Tab4::init()::$_18>, void (std::__ndk1::basic_string<char, std::__ndk1::char_traits<char>, std::__ndk1::allocator<char> > const&)>::destroy_deallocate()
FUNC 4f5f4 8c 0 std::__ndk1::__function::__func<Tab4::init()::$_18, std::__ndk1::allocator<Tab4::init()::$_18>, void (std::__ndk1::basic_string<char, std::__ndk1::char_traits<char>, std::__ndk1::allocator<char> > const&)>::operator()(std::__ndk1::basic_string<char, std::__ndk1::char_traits<char>, std::__ndk1::allocator<char> > const&)
FUNC 4f680 1c 0 std::__ndk1::__function::__func<Tab4::init()::$_18, std::__ndk1::allocator<Tab4::init()::$_18>, void (std::__ndk1::basic_string<char, std::__ndk1::char_traits<char>, std::__ndk1::allocator<char> > const&)>::target(std::type_info const&) const
FUNC 4f69c c 0 std::__ndk1::__function::__func<Tab4::init()::$_18, std::__ndk1::allocator<Tab4::init()::$_18>, void (std::__ndk1::basic_string<char, std::__ndk1::char_traits<char>, std::__ndk1::allocator<char> > const&)>::target_type() const
FUNC 4f6a8 4 0 std::__ndk1::__function::__func<Tab4::init()::$_19, std::__ndk1::allocator<Tab4::init()::$_19>, void (std::__ndk1::basic_string<char, std::__ndk1::char_traits<char>, std::__ndk1::allocator<char> > const&)>::~__func()
FUNC 4f6ac 34 0 std::__ndk1::__function::__func<Tab4::init()::$_19, std::__ndk1::allocator<Tab4::init()::$_19>, void (std::__ndk1::basic_string<char, std::__ndk1::char_traits<char>, std::__ndk1::allocator<char> > const&)>::__clone() const
FUNC 4f6e0 14 0 std::__ndk1::__function::__func<Tab4::init()::$_19, std::__ndk1::allocator<Tab4::init()::$_19>, void (std::__ndk1::basic_string<char, std::__ndk1::char_traits<char>, std::__ndk1::allocator<char> > const&)>::__clone(std::__ndk1::__function::__base<void (std::__ndk1::basic_string<char, std::__ndk1::char_traits<char>, std::__ndk1::allocator<char> > const&)>*) const
FUNC 4f6f4 4 0 std::__ndk1::__function::__func<Tab4::init()::$_19, std::__ndk1::allocator<Tab4::init()::$_19>, void (std::__ndk1::basic_string<char, std::__ndk1::char_traits<char>, std::__ndk1::allocator<char> > const&)>::destroy()
FUNC 4f6f8 4 0 std::__ndk1::__function::__func<Tab4::init()::$_19, std::__ndk1::allocator<Tab4::init()::$_19>, void (std::__ndk1::basic_string<char, std::__ndk1::char_traits<char>, std::__ndk1::allocator<char> > const&)>::destroy_deallocate()
FUNC 4f6fc 8c 0 std::__ndk1::__function::__func<Tab4::init()::$_19, std::__ndk1::allocator<Tab4::init()::$_19>, void (std::__ndk1::basic_string<char, std::__ndk1::char_traits<char>, std::__ndk1::allocator<char> > const&)>::operator()(std::__ndk1::basic_string<char, std::__ndk1::char_traits<char>, std::__ndk1::allocator<char> > const&)
FUNC 4f788 1c 0 std::__ndk1::__function::__func<Tab4::init()::$_19, std::__ndk1::allocator<Tab4::init()::$_19>, void (std::__ndk1::basic_string<char, std::__ndk1::char_traits<char>, std::__ndk1::allocator<char> > const&)>::target(std::type_info const&) const
FUNC 4f7a4 c 0 std::__ndk1::__function::__func<Tab4::init()::$_19, std::__ndk1::allocator<Tab4::init()::$_19>, void (std::__ndk1::basic_string<char, std::__ndk1::char_traits<char>, std::__ndk1::allocator<char> > const&)>::target_type() const
FUNC 4f7b0 2aa4 0 Tab5::init()
FUNC 52254 b8 0 Tab5::SaveCheckbox(cocos2d::CCObject*)
FUNC 5230c b8 0 Tab5::SaveCheckbox2(cocos2d::CCObject*)
FUNC 523c4 b8 0 Tab5::SaveCheckbox3(cocos2d::CCObject*)
FUNC 5247c b8 0 Tab5::SaveCheckbox4(cocos2d::CCObject*)
FUNC 52534 b8 0 Tab5::SaveCheckbox5(cocos2d::CCObject*)
FUNC 525ec b8 0 Tab5::SaveCheckbox6(cocos2d::CCObject*)
FUNC 526a4 b8 0 Tab5::SaveCheckbox7(cocos2d::CCObject*)
FUNC 5275c b8 0 Tab5::SaveCheckbox8(cocos2d::CCObject*)
FUNC 52814 b8 0 Tab5::SaveCheckbox9(cocos2d::CCObject*)
FUNC 528cc b8 0 Tab5::SaveCheckbox10(cocos2d::CCObject*)
FUNC 52984 a4 0 Tab5::create()
FUNC 52a28 24 0 Tab5::~Tab5()
FUNC 52a4c 8 0 {virtual override thunk({offset(-320)}, Tab5::~Tab5())}
FUNC 52a54 28 0 {virtual override thunk({offset(-320)}, Tab5::~Tab5())}
FUNC 52a7c 4 0 std::__ndk1::__function::__func<Tab5::init()::$_0, std::__ndk1::allocator<Tab5::init()::$_0>, void (std::__ndk1::basic_string<char, std::__ndk1::char_traits<char>, std::__ndk1::allocator<char> > const&)>::~__func()
FUNC 52a80 34 0 std::__ndk1::__function::__func<Tab5::init()::$_0, std::__ndk1::allocator<Tab5::init()::$_0>, void (std::__ndk1::basic_string<char, std::__ndk1::char_traits<char>, std::__ndk1::allocator<char> > const&)>::__clone() const
FUNC 52ab4 14 0 std::__ndk1::__function::__func<Tab5::init()::$_0, std::__ndk1::allocator<Tab5::init()::$_0>, void (std::__ndk1::basic_string<char, std::__ndk1::char_traits<char>, std::__ndk1::allocator<char> > const&)>::__clone(std::__ndk1::__function::__base<void (std::__ndk1::basic_string<char, std::__ndk1::char_traits<char>, std::__ndk1::allocator<char> > const&)>*) const
FUNC 52ac8 4 0 std::__ndk1::__function::__func<Tab5::init()::$_0, std::__ndk1::allocator<Tab5::init()::$_0>, void (std::__ndk1::basic_string<char, std::__ndk1::char_traits<char>, std::__ndk1::allocator<char> > const&)>::destroy()
FUNC 52acc 4 0 std::__ndk1::__function::__func<Tab5::init()::$_0, std::__ndk1::allocator<Tab5::init()::$_0>, void (std::__ndk1::basic_string<char, std::__ndk1::char_traits<char>, std::__ndk1::allocator<char> > const&)>::destroy_deallocate()
FUNC 52ad0 8c 0 std::__ndk1::__function::__func<Tab5::init()::$_0, std::__ndk1::allocator<Tab5::init()::$_0>, void (std::__ndk1::basic_string<char, std::__ndk1::char_traits<char>, std::__ndk1::allocator<char> > const&)>::operator()(std::__ndk1::basic_string<char, std::__ndk1::char_traits<char>, std::__ndk1::allocator<char> > const&)
FUNC 52b5c 1c 0 std::__ndk1::__function::__func<Tab5::init()::$_0, std::__ndk1::allocator<Tab5::init()::$_0>, void (std::__ndk1::basic_string<char, std::__ndk1::char_traits<char>, std::__ndk1::allocator<char> > const&)>::target(std::type_info const&) const
FUNC 52b78 c 0 std::__ndk1::__function::__func<Tab5::init()::$_0, std::__ndk1::allocator<Tab5::init()::$_0>, void (std::__ndk1::basic_string<char, std::__ndk1::char_traits<char>, std::__ndk1::allocator<char> > const&)>::target_type() const
FUNC 52b84 4 0 std::__ndk1::__function::__func<Tab5::init()::$_1, std::__ndk1::allocator<Tab5::init()::$_1>, void (std::__ndk1::basic_string<char, std::__ndk1::char_traits<char>, std::__ndk1::allocator<char> > const&)>::~__func()
FUNC 52b88 34 0 std::__ndk1::__function::__func<Tab5::init()::$_1, std::__ndk1::allocator<Tab5::init()::$_1>, void (std::__ndk1::basic_string<char, std::__ndk1::char_traits<char>, std::__ndk1::allocator<char> > const&)>::__clone() const
FUNC 52bbc 14 0 std::__ndk1::__function::__func<Tab5::init()::$_1, std::__ndk1::allocator<Tab5::init()::$_1>, void (std::__ndk1::basic_string<char, std::__ndk1::char_traits<char>, std::__ndk1::allocator<char> > const&)>::__clone(std::__ndk1::__function::__base<void (std::__ndk1::basic_string<char, std::__ndk1::char_traits<char>, std::__ndk1::allocator<char> > const&)>*) const
FUNC 52bd0 4 0 std::__ndk1::__function::__func<Tab5::init()::$_1, std::__ndk1::allocator<Tab5::init()::$_1>, void (std::__ndk1::basic_string<char, std::__ndk1::char_traits<char>, std::__ndk1::allocator<char> > const&)>::destroy()
FUNC 52bd4 4 0 std::__ndk1::__function::__func<Tab5::init()::$_1, std::__ndk1::allocator<Tab5::init()::$_1>, void (std::__ndk1::basic_string<char, std::__ndk1::char_traits<char>, std::__ndk1::allocator<char> > const&)>::destroy_deallocate()
FUNC 52bd8 8c 0 std::__ndk1::__function::__func<Tab5::init()::$_1, std::__ndk1::allocator<Tab5::init()::$_1>, void (std::__ndk1::basic_string<char, std::__ndk1::char_traits<char>, std::__ndk1::allocator<char> > const&)>::operator()(std::__ndk1::basic_string<char, std::__ndk1::char_traits<char>, std::__ndk1::allocator<char> > const&)
FUNC 52c64 1c 0 std::__ndk1::__function::__func<Tab5::init()::$_1, std::__ndk1::allocator<Tab5::init()::$_1>, void (std::__ndk1::basic_string<char, std::__ndk1::char_traits<char>, std::__ndk1::allocator<char> > const&)>::target(std::type_info const&) const
FUNC 52c80 c 0 std::__ndk1::__function::__func<Tab5::init()::$_1, std::__ndk1::allocator<Tab5::init()::$_1>, void (std::__ndk1::basic_string<char, std::__ndk1::char_traits<char>, std::__ndk1::allocator<char> > const&)>::target_type() const
FUNC 52c8c 4 0 std::__ndk1::__function::__func<Tab5::init()::$_2, std::__ndk1::allocator<Tab5::init()::$_2>, void (std::__ndk1::basic_string<char, std::__ndk1::char_traits<char>, std::__ndk1::allocator<char> > const&)>::~__func()
FUNC 52c90 34 0 std::__ndk1::__function::__func<Tab5::init()::$_2, std::__ndk1::allocator<Tab5::init()::$_2>, void (std::__ndk1::basic_string<char, std::__ndk1::char_traits<char>, std::__ndk1::allocator<char> > const&)>::__clone() const
FUNC 52cc4 14 0 std::__ndk1::__function::__func<Tab5::init()::$_2, std::__ndk1::allocator<Tab5::init()::$_2>, void (std::__ndk1::basic_string<char, std::__ndk1::char_traits<char>, std::__ndk1::allocator<char> > const&)>::__clone(std::__ndk1::__function::__base<void (std::__ndk1::basic_string<char, std::__ndk1::char_traits<char>, std::__ndk1::allocator<char> > const&)>*) const
FUNC 52cd8 4 0 std::__ndk1::__function::__func<Tab5::init()::$_2, std::__ndk1::allocator<Tab5::init()::$_2>, void (std::__ndk1::basic_string<char, std::__ndk1::char_traits<char>, std::__ndk1::allocator<char> > const&)>::destroy()
FUNC 52cdc 4 0 std::__ndk1::__function::__func<Tab5::init()::$_2, std::__ndk1::allocator<Tab5::init()::$_2>, void (std::__ndk1::basic_string<char, std::__ndk1::char_traits<char>, std::__ndk1::allocator<char> > const&)>::destroy_deallocate()
FUNC 52ce0 8c 0 std::__ndk1::__function::__func<Tab5::init()::$_2, std::__ndk1::allocator<Tab5::init()::$_2>, void (std::__ndk1::basic_string<char, std::__ndk1::char_traits<char>, std::__ndk1::allocator<char> > const&)>::operator()(std::__ndk1::basic_string<char, std::__ndk1::char_traits<char>, std::__ndk1::allocator<char> > const&)
FUNC 52d6c 1c 0 std::__ndk1::__function::__func<Tab5::init()::$_2, std::__ndk1::allocator<Tab5::init()::$_2>, void (std::__ndk1::basic_string<char, std::__ndk1::char_traits<char>, std::__ndk1::allocator<char> > const&)>::target(std::type_info const&) const
FUNC 52d88 c 0 std::__ndk1::__function::__func<Tab5::init()::$_2, std::__ndk1::allocator<Tab5::init()::$_2>, void (std::__ndk1::basic_string<char, std::__ndk1::char_traits<char>, std::__ndk1::allocator<char> > const&)>::target_type() const
FUNC 52d94 4 0 std::__ndk1::__function::__func<Tab5::init()::$_3, std::__ndk1::allocator<Tab5::init()::$_3>, void (std::__ndk1::basic_string<char, std::__ndk1::char_traits<char>, std::__ndk1::allocator<char> > const&)>::~__func()
FUNC 52d98 34 0 std::__ndk1::__function::__func<Tab5::init()::$_3, std::__ndk1::allocator<Tab5::init()::$_3>, void (std::__ndk1::basic_string<char, std::__ndk1::char_traits<char>, std::__ndk1::allocator<char> > const&)>::__clone() const
FUNC 52dcc 14 0 std::__ndk1::__function::__func<Tab5::init()::$_3, std::__ndk1::allocator<Tab5::init()::$_3>, void (std::__ndk1::basic_string<char, std::__ndk1::char_traits<char>, std::__ndk1::allocator<char> > const&)>::__clone(std::__ndk1::__function::__base<void (std::__ndk1::basic_string<char, std::__ndk1::char_traits<char>, std::__ndk1::allocator<char> > const&)>*) const
FUNC 52de0 4 0 std::__ndk1::__function::__func<Tab5::init()::$_3, std::__ndk1::allocator<Tab5::init()::$_3>, void (std::__ndk1::basic_string<char, std::__ndk1::char_traits<char>, std::__ndk1::allocator<char> > const&)>::destroy()
FUNC 52de4 4 0 std::__ndk1::__function::__func<Tab5::init()::$_3, std::__ndk1::allocator<Tab5::init()::$_3>, void (std::__ndk1::basic_string<char, std::__ndk1::char_traits<char>, std::__ndk1::allocator<char> > const&)>::destroy_deallocate()
FUNC 52de8 8c 0 std::__ndk1::__function::__func<Tab5::init()::$_3, std::__ndk1::allocator<Tab5::init()::$_3>, void (std::__ndk1::basic_string<char, std::__ndk1::char_traits<char>, std::__ndk1::allocator<char> > const&)>::operator()(std::__ndk1::basic_string<char, std::__ndk1::char_traits<char>, std::__ndk1::allocator<char> > const&)
FUNC 52e74 1c 0 std::__ndk1::__function::__func<Tab5::init()::$_3, std::__ndk1::allocator<Tab5::init()::$_3>, void (std::__ndk1::basic_string<char, std::__ndk1::char_traits<char>, std::__ndk1::allocator<char> > const&)>::target(std::type_info const&) const
FUNC 52e90 c 0 std::__ndk1::__function::__func<Tab5::init()::$_3, std::__ndk1::allocator<Tab5::init()::$_3>, void (std::__ndk1::basic_string<char, std::__ndk1::char_traits<char>, std::__ndk1::allocator<char> > const&)>::target_type() const
FUNC 52e9c 4 0 std::__ndk1::__function::__func<Tab5::init()::$_4, std::__ndk1::allocator<Tab5::init()::$_4>, void (std::__ndk1::basic_string<char, std::__ndk1::char_traits<char>, std::__ndk1::allocator<char> > const&)>::~__func()
FUNC 52ea0 34 0 std::__ndk1::__function::__func<Tab5::init()::$_4, std::__ndk1::allocator<Tab5::init()::$_4>, void (std::__ndk1::basic_string<char, std::__ndk1::char_traits<char>, std::__ndk1::allocator<char> > const&)>::__clone() const
FUNC 52ed4 14 0 std::__ndk1::__function::__func<Tab5::init()::$_4, std::__ndk1::allocator<Tab5::init()::$_4>, void (std::__ndk1::basic_string<char, std::__ndk1::char_traits<char>, std::__ndk1::allocator<char> > const&)>::__clone(std::__ndk1::__function::__base<void (std::__ndk1::basic_string<char, std::__ndk1::char_traits<char>, std::__ndk1::allocator<char> > const&)>*) const
FUNC 52ee8 4 0 std::__ndk1::__function::__func<Tab5::init()::$_4, std::__ndk1::allocator<Tab5::init()::$_4>, void (std::__ndk1::basic_string<char, std::__ndk1::char_traits<char>, std::__ndk1::allocator<char> > const&)>::destroy()
FUNC 52eec 4 0 std::__ndk1::__function::__func<Tab5::init()::$_4, std::__ndk1::allocator<Tab5::init()::$_4>, void (std::__ndk1::basic_string<char, std::__ndk1::char_traits<char>, std::__ndk1::allocator<char> > const&)>::destroy_deallocate()
FUNC 52ef0 8c 0 std::__ndk1::__function::__func<Tab5::init()::$_4, std::__ndk1::allocator<Tab5::init()::$_4>, void (std::__ndk1::basic_string<char, std::__ndk1::char_traits<char>, std::__ndk1::allocator<char> > const&)>::operator()(std::__ndk1::basic_string<char, std::__ndk1::char_traits<char>, std::__ndk1::allocator<char> > const&)
FUNC 52f7c 1c 0 std::__ndk1::__function::__func<Tab5::init()::$_4, std::__ndk1::allocator<Tab5::init()::$_4>, void (std::__ndk1::basic_string<char, std::__ndk1::char_traits<char>, std::__ndk1::allocator<char> > const&)>::target(std::type_info const&) const
FUNC 52f98 c 0 std::__ndk1::__function::__func<Tab5::init()::$_4, std::__ndk1::allocator<Tab5::init()::$_4>, void (std::__ndk1::basic_string<char, std::__ndk1::char_traits<char>, std::__ndk1::allocator<char> > const&)>::target_type() const
FUNC 52fa4 4 0 std::__ndk1::__function::__func<Tab5::init()::$_5, std::__ndk1::allocator<Tab5::init()::$_5>, void (std::__ndk1::basic_string<char, std::__ndk1::char_traits<char>, std::__ndk1::allocator<char> > const&)>::~__func()
FUNC 52fa8 34 0 std::__ndk1::__function::__func<Tab5::init()::$_5, std::__ndk1::allocator<Tab5::init()::$_5>, void (std::__ndk1::basic_string<char, std::__ndk1::char_traits<char>, std::__ndk1::allocator<char> > const&)>::__clone() const
FUNC 52fdc 14 0 std::__ndk1::__function::__func<Tab5::init()::$_5, std::__ndk1::allocator<Tab5::init()::$_5>, void (std::__ndk1::basic_string<char, std::__ndk1::char_traits<char>, std::__ndk1::allocator<char> > const&)>::__clone(std::__ndk1::__function::__base<void (std::__ndk1::basic_string<char, std::__ndk1::char_traits<char>, std::__ndk1::allocator<char> > const&)>*) const
FUNC 52ff0 4 0 std::__ndk1::__function::__func<Tab5::init()::$_5, std::__ndk1::allocator<Tab5::init()::$_5>, void (std::__ndk1::basic_string<char, std::__ndk1::char_traits<char>, std::__ndk1::allocator<char> > const&)>::destroy()
FUNC 52ff4 4 0 std::__ndk1::__function::__func<Tab5::init()::$_5, std::__ndk1::allocator<Tab5::init()::$_5>, void (std::__ndk1::basic_string<char, std::__ndk1::char_traits<char>, std::__ndk1::allocator<char> > const&)>::destroy_deallocate()
FUNC 52ff8 8c 0 std::__ndk1::__function::__func<Tab5::init()::$_5, std::__ndk1::allocator<Tab5::init()::$_5>, void (std::__ndk1::basic_string<char, std::__ndk1::char_traits<char>, std::__ndk1::allocator<char> > const&)>::operator()(std::__ndk1::basic_string<char, std::__ndk1::char_traits<char>, std::__ndk1::allocator<char> > const&)
FUNC 53084 1c 0 std::__ndk1::__function::__func<Tab5::init()::$_5, std::__ndk1::allocator<Tab5::init()::$_5>, void (std::__ndk1::basic_string<char, std::__ndk1::char_traits<char>, std::__ndk1::allocator<char> > const&)>::target(std::type_info const&) const
FUNC 530a0 c 0 std::__ndk1::__function::__func<Tab5::init()::$_5, std::__ndk1::allocator<Tab5::init()::$_5>, void (std::__ndk1::basic_string<char, std::__ndk1::char_traits<char>, std::__ndk1::allocator<char> > const&)>::target_type() const
FUNC 530ac 4 0 std::__ndk1::__function::__func<Tab5::init()::$_6, std::__ndk1::allocator<Tab5::init()::$_6>, void (std::__ndk1::basic_string<char, std::__ndk1::char_traits<char>, std::__ndk1::allocator<char> > const&)>::~__func()
FUNC 530b0 34 0 std::__ndk1::__function::__func<Tab5::init()::$_6, std::__ndk1::allocator<Tab5::init()::$_6>, void (std::__ndk1::basic_string<char, std::__ndk1::char_traits<char>, std::__ndk1::allocator<char> > const&)>::__clone() const
FUNC 530e4 14 0 std::__ndk1::__function::__func<Tab5::init()::$_6, std::__ndk1::allocator<Tab5::init()::$_6>, void (std::__ndk1::basic_string<char, std::__ndk1::char_traits<char>, std::__ndk1::allocator<char> > const&)>::__clone(std::__ndk1::__function::__base<void (std::__ndk1::basic_string<char, std::__ndk1::char_traits<char>, std::__ndk1::allocator<char> > const&)>*) const
FUNC 530f8 4 0 std::__ndk1::__function::__func<Tab5::init()::$_6, std::__ndk1::allocator<Tab5::init()::$_6>, void (std::__ndk1::basic_string<char, std::__ndk1::char_traits<char>, std::__ndk1::allocator<char> > const&)>::destroy()
FUNC 530fc 4 0 std::__ndk1::__function::__func<Tab5::init()::$_6, std::__ndk1::allocator<Tab5::init()::$_6>, void (std::__ndk1::basic_string<char, std::__ndk1::char_traits<char>, std::__ndk1::allocator<char> > const&)>::destroy_deallocate()
FUNC 53100 8c 0 std::__ndk1::__function::__func<Tab5::init()::$_6, std::__ndk1::allocator<Tab5::init()::$_6>, void (std::__ndk1::basic_string<char, std::__ndk1::char_traits<char>, std::__ndk1::allocator<char> > const&)>::operator()(std::__ndk1::basic_string<char, std::__ndk1::char_traits<char>, std::__ndk1::allocator<char> > const&)
FUNC 5318c 1c 0 std::__ndk1::__function::__func<Tab5::init()::$_6, std::__ndk1::allocator<Tab5::init()::$_6>, void (std::__ndk1::basic_string<char, std::__ndk1::char_traits<char>, std::__ndk1::allocator<char> > const&)>::target(std::type_info const&) const
FUNC 531a8 c 0 std::__ndk1::__function::__func<Tab5::init()::$_6, std::__ndk1::allocator<Tab5::init()::$_6>, void (std::__ndk1::basic_string<char, std::__ndk1::char_traits<char>, std::__ndk1::allocator<char> > const&)>::target_type() const
FUNC 531b4 4 0 std::__ndk1::__function::__func<Tab5::init()::$_7, std::__ndk1::allocator<Tab5::init()::$_7>, void (std::__ndk1::basic_string<char, std::__ndk1::char_traits<char>, std::__ndk1::allocator<char> > const&)>::~__func()
FUNC 531b8 34 0 std::__ndk1::__function::__func<Tab5::init()::$_7, std::__ndk1::allocator<Tab5::init()::$_7>, void (std::__ndk1::basic_string<char, std::__ndk1::char_traits<char>, std::__ndk1::allocator<char> > const&)>::__clone() const
FUNC 531ec 14 0 std::__ndk1::__function::__func<Tab5::init()::$_7, std::__ndk1::allocator<Tab5::init()::$_7>, void (std::__ndk1::basic_string<char, std::__ndk1::char_traits<char>, std::__ndk1::allocator<char> > const&)>::__clone(std::__ndk1::__function::__base<void (std::__ndk1::basic_string<char, std::__ndk1::char_traits<char>, std::__ndk1::allocator<char> > const&)>*) const
FUNC 53200 4 0 std::__ndk1::__function::__func<Tab5::init()::$_7, std::__ndk1::allocator<Tab5::init()::$_7>, void (std::__ndk1::basic_string<char, std::__ndk1::char_traits<char>, std::__ndk1::allocator<char> > const&)>::destroy()
FUNC 53204 4 0 std::__ndk1::__function::__func<Tab5::init()::$_7, std::__ndk1::allocator<Tab5::init()::$_7>, void (std::__ndk1::basic_string<char, std::__ndk1::char_traits<char>, std::__ndk1::allocator<char> > const&)>::destroy_deallocate()
FUNC 53208 8c 0 std::__ndk1::__function::__func<Tab5::init()::$_7, std::__ndk1::allocator<Tab5::init()::$_7>, void (std::__ndk1::basic_string<char, std::__ndk1::char_traits<char>, std::__ndk1::allocator<char> > const&)>::operator()(std::__ndk1::basic_string<char, std::__ndk1::char_traits<char>, std::__ndk1::allocator<char> > const&)
FUNC 53294 1c 0 std::__ndk1::__function::__func<Tab5::init()::$_7, std::__ndk1::allocator<Tab5::init()::$_7>, void (std::__ndk1::basic_string<char, std::__ndk1::char_traits<char>, std::__ndk1::allocator<char> > const&)>::target(std::type_info const&) const
FUNC 532b0 c 0 std::__ndk1::__function::__func<Tab5::init()::$_7, std::__ndk1::allocator<Tab5::init()::$_7>, void (std::__ndk1::basic_string<char, std::__ndk1::char_traits<char>, std::__ndk1::allocator<char> > const&)>::target_type() const
FUNC 532bc 4 0 std::__ndk1::__function::__func<Tab5::init()::$_8, std::__ndk1::allocator<Tab5::init()::$_8>, void (std::__ndk1::basic_string<char, std::__ndk1::char_traits<char>, std::__ndk1::allocator<char> > const&)>::~__func()
FUNC 532c0 34 0 std::__ndk1::__function::__func<Tab5::init()::$_8, std::__ndk1::allocator<Tab5::init()::$_8>, void (std::__ndk1::basic_string<char, std::__ndk1::char_traits<char>, std::__ndk1::allocator<char> > const&)>::__clone() const
FUNC 532f4 14 0 std::__ndk1::__function::__func<Tab5::init()::$_8, std::__ndk1::allocator<Tab5::init()::$_8>, void (std::__ndk1::basic_string<char, std::__ndk1::char_traits<char>, std::__ndk1::allocator<char> > const&)>::__clone(std::__ndk1::__function::__base<void (std::__ndk1::basic_string<char, std::__ndk1::char_traits<char>, std::__ndk1::allocator<char> > const&)>*) const
FUNC 53308 4 0 std::__ndk1::__function::__func<Tab5::init()::$_8, std::__ndk1::allocator<Tab5::init()::$_8>, void (std::__ndk1::basic_string<char, std::__ndk1::char_traits<char>, std::__ndk1::allocator<char> > const&)>::destroy()
FUNC 5330c 4 0 std::__ndk1::__function::__func<Tab5::init()::$_8, std::__ndk1::allocator<Tab5::init()::$_8>, void (std::__ndk1::basic_string<char, std::__ndk1::char_traits<char>, std::__ndk1::allocator<char> > const&)>::destroy_deallocate()
FUNC 53310 8c 0 std::__ndk1::__function::__func<Tab5::init()::$_8, std::__ndk1::allocator<Tab5::init()::$_8>, void (std::__ndk1::basic_string<char, std::__ndk1::char_traits<char>, std::__ndk1::allocator<char> > const&)>::operator()(std::__ndk1::basic_string<char, std::__ndk1::char_traits<char>, std::__ndk1::allocator<char> > const&)
FUNC 5339c 1c 0 std::__ndk1::__function::__func<Tab5::init()::$_8, std::__ndk1::allocator<Tab5::init()::$_8>, void (std::__ndk1::basic_string<char, std::__ndk1::char_traits<char>, std::__ndk1::allocator<char> > const&)>::target(std::type_info const&) const
FUNC 533b8 c 0 std::__ndk1::__function::__func<Tab5::init()::$_8, std::__ndk1::allocator<Tab5::init()::$_8>, void (std::__ndk1::basic_string<char, std::__ndk1::char_traits<char>, std::__ndk1::allocator<char> > const&)>::target_type() const
FUNC 533c4 4 0 std::__ndk1::__function::__func<Tab5::init()::$_9, std::__ndk1::allocator<Tab5::init()::$_9>, void (std::__ndk1::basic_string<char, std::__ndk1::char_traits<char>, std::__ndk1::allocator<char> > const&)>::~__func()
FUNC 533c8 34 0 std::__ndk1::__function::__func<Tab5::init()::$_9, std::__ndk1::allocator<Tab5::init()::$_9>, void (std::__ndk1::basic_string<char, std::__ndk1::char_traits<char>, std::__ndk1::allocator<char> > const&)>::__clone() const
FUNC 533fc 14 0 std::__ndk1::__function::__func<Tab5::init()::$_9, std::__ndk1::allocator<Tab5::init()::$_9>, void (std::__ndk1::basic_string<char, std::__ndk1::char_traits<char>, std::__ndk1::allocator<char> > const&)>::__clone(std::__ndk1::__function::__base<void (std::__ndk1::basic_string<char, std::__ndk1::char_traits<char>, std::__ndk1::allocator<char> > const&)>*) const
FUNC 53410 4 0 std::__ndk1::__function::__func<Tab5::init()::$_9, std::__ndk1::allocator<Tab5::init()::$_9>, void (std::__ndk1::basic_string<char, std::__ndk1::char_traits<char>, std::__ndk1::allocator<char> > const&)>::destroy()
FUNC 53414 4 0 std::__ndk1::__function::__func<Tab5::init()::$_9, std::__ndk1::allocator<Tab5::init()::$_9>, void (std::__ndk1::basic_string<char, std::__ndk1::char_traits<char>, std::__ndk1::allocator<char> > const&)>::destroy_deallocate()
FUNC 53418 8c 0 std::__ndk1::__function::__func<Tab5::init()::$_9, std::__ndk1::allocator<Tab5::init()::$_9>, void (std::__ndk1::basic_string<char, std::__ndk1::char_traits<char>, std::__ndk1::allocator<char> > const&)>::operator()(std::__ndk1::basic_string<char, std::__ndk1::char_traits<char>, std::__ndk1::allocator<char> > const&)
FUNC 534a4 1c 0 std::__ndk1::__function::__func<Tab5::init()::$_9, std::__ndk1::allocator<Tab5::init()::$_9>, void (std::__ndk1::basic_string<char, std::__ndk1::char_traits<char>, std::__ndk1::allocator<char> > const&)>::target(std::type_info const&) const
FUNC 534c0 c 0 std::__ndk1::__function::__func<Tab5::init()::$_9, std::__ndk1::allocator<Tab5::init()::$_9>, void (std::__ndk1::basic_string<char, std::__ndk1::char_traits<char>, std::__ndk1::allocator<char> > const&)>::target_type() const
FUNC 534cc 4 0 std::__ndk1::__function::__func<Tab5::init()::$_10, std::__ndk1::allocator<Tab5::init()::$_10>, void (std::__ndk1::basic_string<char, std::__ndk1::char_traits<char>, std::__ndk1::allocator<char> > const&)>::~__func()
FUNC 534d0 34 0 std::__ndk1::__function::__func<Tab5::init()::$_10, std::__ndk1::allocator<Tab5::init()::$_10>, void (std::__ndk1::basic_string<char, std::__ndk1::char_traits<char>, std::__ndk1::allocator<char> > const&)>::__clone() const
FUNC 53504 14 0 std::__ndk1::__function::__func<Tab5::init()::$_10, std::__ndk1::allocator<Tab5::init()::$_10>, void (std::__ndk1::basic_string<char, std::__ndk1::char_traits<char>, std::__ndk1::allocator<char> > const&)>::__clone(std::__ndk1::__function::__base<void (std::__ndk1::basic_string<char, std::__ndk1::char_traits<char>, std::__ndk1::allocator<char> > const&)>*) const
FUNC 53518 4 0 std::__ndk1::__function::__func<Tab5::init()::$_10, std::__ndk1::allocator<Tab5::init()::$_10>, void (std::__ndk1::basic_string<char, std::__ndk1::char_traits<char>, std::__ndk1::allocator<char> > const&)>::destroy()
FUNC 5351c 4 0 std::__ndk1::__function::__func<Tab5::init()::$_10, std::__ndk1::allocator<Tab5::init()::$_10>, void (std::__ndk1::basic_string<char, std::__ndk1::char_traits<char>, std::__ndk1::allocator<char> > const&)>::destroy_deallocate()
FUNC 53520 8c 0 std::__ndk1::__function::__func<Tab5::init()::$_10, std::__ndk1::allocator<Tab5::init()::$_10>, void (std::__ndk1::basic_string<char, std::__ndk1::char_traits<char>, std::__ndk1::allocator<char> > const&)>::operator()(std::__ndk1::basic_string<char, std::__ndk1::char_traits<char>, std::__ndk1::allocator<char> > const&)
FUNC 535ac 1c 0 std::__ndk1::__function::__func<Tab5::init()::$_10, std::__ndk1::allocator<Tab5::init()::$_10>, void (std::__ndk1::basic_string<char, std::__ndk1::char_traits<char>, std::__ndk1::allocator<char> > const&)>::target(std::type_info const&) const
FUNC 535c8 c 0 std::__ndk1::__function::__func<Tab5::init()::$_10, std::__ndk1::allocator<Tab5::init()::$_10>, void (std::__ndk1::basic_string<char, std::__ndk1::char_traits<char>, std::__ndk1::allocator<char> > const&)>::target_type() const
FUNC 535d4 4 0 std::__ndk1::__function::__func<Tab5::init()::$_11, std::__ndk1::allocator<Tab5::init()::$_11>, void (std::__ndk1::basic_string<char, std::__ndk1::char_traits<char>, std::__ndk1::allocator<char> > const&)>::~__func()
FUNC 535d8 34 0 std::__ndk1::__function::__func<Tab5::init()::$_11, std::__ndk1::allocator<Tab5::init()::$_11>, void (std::__ndk1::basic_string<char, std::__ndk1::char_traits<char>, std::__ndk1::allocator<char> > const&)>::__clone() const
FUNC 5360c 14 0 std::__ndk1::__function::__func<Tab5::init()::$_11, std::__ndk1::allocator<Tab5::init()::$_11>, void (std::__ndk1::basic_string<char, std::__ndk1::char_traits<char>, std::__ndk1::allocator<char> > const&)>::__clone(std::__ndk1::__function::__base<void (std::__ndk1::basic_string<char, std::__ndk1::char_traits<char>, std::__ndk1::allocator<char> > const&)>*) const
FUNC 53620 4 0 std::__ndk1::__function::__func<Tab5::init()::$_11, std::__ndk1::allocator<Tab5::init()::$_11>, void (std::__ndk1::basic_string<char, std::__ndk1::char_traits<char>, std::__ndk1::allocator<char> > const&)>::destroy()
FUNC 53624 4 0 std::__ndk1::__function::__func<Tab5::init()::$_11, std::__ndk1::allocator<Tab5::init()::$_11>, void (std::__ndk1::basic_string<char, std::__ndk1::char_traits<char>, std::__ndk1::allocator<char> > const&)>::destroy_deallocate()
FUNC 53628 8c 0 std::__ndk1::__function::__func<Tab5::init()::$_11, std::__ndk1::allocator<Tab5::init()::$_11>, void (std::__ndk1::basic_string<char, std::__ndk1::char_traits<char>, std::__ndk1::allocator<char> > const&)>::operator()(std::__ndk1::basic_string<char, std::__ndk1::char_traits<char>, std::__ndk1::allocator<char> > const&)
FUNC 536b4 1c 0 std::__ndk1::__function::__func<Tab5::init()::$_11, std::__ndk1::allocator<Tab5::init()::$_11>, void (std::__ndk1::basic_string<char, std::__ndk1::char_traits<char>, std::__ndk1::allocator<char> > const&)>::target(std::type_info const&) const
FUNC 536d0 c 0 std::__ndk1::__function::__func<Tab5::init()::$_11, std::__ndk1::allocator<Tab5::init()::$_11>, void (std::__ndk1::basic_string<char, std::__ndk1::char_traits<char>, std::__ndk1::allocator<char> > const&)>::target_type() const
FUNC 536dc 4 0 std::__ndk1::__function::__func<Tab5::init()::$_12, std::__ndk1::allocator<Tab5::init()::$_12>, void (std::__ndk1::basic_string<char, std::__ndk1::char_traits<char>, std::__ndk1::allocator<char> > const&)>::~__func()
FUNC 536e0 34 0 std::__ndk1::__function::__func<Tab5::init()::$_12, std::__ndk1::allocator<Tab5::init()::$_12>, void (std::__ndk1::basic_string<char, std::__ndk1::char_traits<char>, std::__ndk1::allocator<char> > const&)>::__clone() const
FUNC 53714 14 0 std::__ndk1::__function::__func<Tab5::init()::$_12, std::__ndk1::allocator<Tab5::init()::$_12>, void (std::__ndk1::basic_string<char, std::__ndk1::char_traits<char>, std::__ndk1::allocator<char> > const&)>::__clone(std::__ndk1::__function::__base<void (std::__ndk1::basic_string<char, std::__ndk1::char_traits<char>, std::__ndk1::allocator<char> > const&)>*) const
FUNC 53728 4 0 std::__ndk1::__function::__func<Tab5::init()::$_12, std::__ndk1::allocator<Tab5::init()::$_12>, void (std::__ndk1::basic_string<char, std::__ndk1::char_traits<char>, std::__ndk1::allocator<char> > const&)>::destroy()
FUNC 5372c 4 0 std::__ndk1::__function::__func<Tab5::init()::$_12, std::__ndk1::allocator<Tab5::init()::$_12>, void (std::__ndk1::basic_string<char, std::__ndk1::char_traits<char>, std::__ndk1::allocator<char> > const&)>::destroy_deallocate()
FUNC 53730 8c 0 std::__ndk1::__function::__func<Tab5::init()::$_12, std::__ndk1::allocator<Tab5::init()::$_12>, void (std::__ndk1::basic_string<char, std::__ndk1::char_traits<char>, std::__ndk1::allocator<char> > const&)>::operator()(std::__ndk1::basic_string<char, std::__ndk1::char_traits<char>, std::__ndk1::allocator<char> > const&)
FUNC 537bc 1c 0 std::__ndk1::__function::__func<Tab5::init()::$_12, std::__ndk1::allocator<Tab5::init()::$_12>, void (std::__ndk1::basic_string<char, std::__ndk1::char_traits<char>, std::__ndk1::allocator<char> > const&)>::target(std::type_info const&) const
FUNC 537d8 c 0 std::__ndk1::__function::__func<Tab5::init()::$_12, std::__ndk1::allocator<Tab5::init()::$_12>, void (std::__ndk1::basic_string<char, std::__ndk1::char_traits<char>, std::__ndk1::allocator<char> > const&)>::target_type() const
FUNC 537e4 4 0 std::__ndk1::__function::__func<Tab5::init()::$_13, std::__ndk1::allocator<Tab5::init()::$_13>, void (std::__ndk1::basic_string<char, std::__ndk1::char_traits<char>, std::__ndk1::allocator<char> > const&)>::~__func()
FUNC 537e8 34 0 std::__ndk1::__function::__func<Tab5::init()::$_13, std::__ndk1::allocator<Tab5::init()::$_13>, void (std::__ndk1::basic_string<char, std::__ndk1::char_traits<char>, std::__ndk1::allocator<char> > const&)>::__clone() const
FUNC 5381c 14 0 std::__ndk1::__function::__func<Tab5::init()::$_13, std::__ndk1::allocator<Tab5::init()::$_13>, void (std::__ndk1::basic_string<char, std::__ndk1::char_traits<char>, std::__ndk1::allocator<char> > const&)>::__clone(std::__ndk1::__function::__base<void (std::__ndk1::basic_string<char, std::__ndk1::char_traits<char>, std::__ndk1::allocator<char> > const&)>*) const
FUNC 53830 4 0 std::__ndk1::__function::__func<Tab5::init()::$_13, std::__ndk1::allocator<Tab5::init()::$_13>, void (std::__ndk1::basic_string<char, std::__ndk1::char_traits<char>, std::__ndk1::allocator<char> > const&)>::destroy()
FUNC 53834 4 0 std::__ndk1::__function::__func<Tab5::init()::$_13, std::__ndk1::allocator<Tab5::init()::$_13>, void (std::__ndk1::basic_string<char, std::__ndk1::char_traits<char>, std::__ndk1::allocator<char> > const&)>::destroy_deallocate()
FUNC 53838 8c 0 std::__ndk1::__function::__func<Tab5::init()::$_13, std::__ndk1::allocator<Tab5::init()::$_13>, void (std::__ndk1::basic_string<char, std::__ndk1::char_traits<char>, std::__ndk1::allocator<char> > const&)>::operator()(std::__ndk1::basic_string<char, std::__ndk1::char_traits<char>, std::__ndk1::allocator<char> > const&)
FUNC 538c4 1c 0 std::__ndk1::__function::__func<Tab5::init()::$_13, std::__ndk1::allocator<Tab5::init()::$_13>, void (std::__ndk1::basic_string<char, std::__ndk1::char_traits<char>, std::__ndk1::allocator<char> > const&)>::target(std::type_info const&) const
FUNC 538e0 c 0 std::__ndk1::__function::__func<Tab5::init()::$_13, std::__ndk1::allocator<Tab5::init()::$_13>, void (std::__ndk1::basic_string<char, std::__ndk1::char_traits<char>, std::__ndk1::allocator<char> > const&)>::target_type() const
FUNC 538ec 4 0 std::__ndk1::__function::__func<Tab5::init()::$_14, std::__ndk1::allocator<Tab5::init()::$_14>, void (std::__ndk1::basic_string<char, std::__ndk1::char_traits<char>, std::__ndk1::allocator<char> > const&)>::~__func()
FUNC 538f0 34 0 std::__ndk1::__function::__func<Tab5::init()::$_14, std::__ndk1::allocator<Tab5::init()::$_14>, void (std::__ndk1::basic_string<char, std::__ndk1::char_traits<char>, std::__ndk1::allocator<char> > const&)>::__clone() const
FUNC 53924 14 0 std::__ndk1::__function::__func<Tab5::init()::$_14, std::__ndk1::allocator<Tab5::init()::$_14>, void (std::__ndk1::basic_string<char, std::__ndk1::char_traits<char>, std::__ndk1::allocator<char> > const&)>::__clone(std::__ndk1::__function::__base<void (std::__ndk1::basic_string<char, std::__ndk1::char_traits<char>, std::__ndk1::allocator<char> > const&)>*) const
FUNC 53938 4 0 std::__ndk1::__function::__func<Tab5::init()::$_14, std::__ndk1::allocator<Tab5::init()::$_14>, void (std::__ndk1::basic_string<char, std::__ndk1::char_traits<char>, std::__ndk1::allocator<char> > const&)>::destroy()
FUNC 5393c 4 0 std::__ndk1::__function::__func<Tab5::init()::$_14, std::__ndk1::allocator<Tab5::init()::$_14>, void (std::__ndk1::basic_string<char, std::__ndk1::char_traits<char>, std::__ndk1::allocator<char> > const&)>::destroy_deallocate()
FUNC 53940 8c 0 std::__ndk1::__function::__func<Tab5::init()::$_14, std::__ndk1::allocator<Tab5::init()::$_14>, void (std::__ndk1::basic_string<char, std::__ndk1::char_traits<char>, std::__ndk1::allocator<char> > const&)>::operator()(std::__ndk1::basic_string<char, std::__ndk1::char_traits<char>, std::__ndk1::allocator<char> > const&)
FUNC 539cc 1c 0 std::__ndk1::__function::__func<Tab5::init()::$_14, std::__ndk1::allocator<Tab5::init()::$_14>, void (std::__ndk1::basic_string<char, std::__ndk1::char_traits<char>, std::__ndk1::allocator<char> > const&)>::target(std::type_info const&) const
FUNC 539e8 c 0 std::__ndk1::__function::__func<Tab5::init()::$_14, std::__ndk1::allocator<Tab5::init()::$_14>, void (std::__ndk1::basic_string<char, std::__ndk1::char_traits<char>, std::__ndk1::allocator<char> > const&)>::target_type() const
FUNC 539f4 4 0 std::__ndk1::__function::__func<Tab5::init()::$_15, std::__ndk1::allocator<Tab5::init()::$_15>, void (std::__ndk1::basic_string<char, std::__ndk1::char_traits<char>, std::__ndk1::allocator<char> > const&)>::~__func()
FUNC 539f8 34 0 std::__ndk1::__function::__func<Tab5::init()::$_15, std::__ndk1::allocator<Tab5::init()::$_15>, void (std::__ndk1::basic_string<char, std::__ndk1::char_traits<char>, std::__ndk1::allocator<char> > const&)>::__clone() const
FUNC 53a2c 14 0 std::__ndk1::__function::__func<Tab5::init()::$_15, std::__ndk1::allocator<Tab5::init()::$_15>, void (std::__ndk1::basic_string<char, std::__ndk1::char_traits<char>, std::__ndk1::allocator<char> > const&)>::__clone(std::__ndk1::__function::__base<void (std::__ndk1::basic_string<char, std::__ndk1::char_traits<char>, std::__ndk1::allocator<char> > const&)>*) const
FUNC 53a40 4 0 std::__ndk1::__function::__func<Tab5::init()::$_15, std::__ndk1::allocator<Tab5::init()::$_15>, void (std::__ndk1::basic_string<char, std::__ndk1::char_traits<char>, std::__ndk1::allocator<char> > const&)>::destroy()
FUNC 53a44 4 0 std::__ndk1::__function::__func<Tab5::init()::$_15, std::__ndk1::allocator<Tab5::init()::$_15>, void (std::__ndk1::basic_string<char, std::__ndk1::char_traits<char>, std::__ndk1::allocator<char> > const&)>::destroy_deallocate()
FUNC 53a48 8c 0 std::__ndk1::__function::__func<Tab5::init()::$_15, std::__ndk1::allocator<Tab5::init()::$_15>, void (std::__ndk1::basic_string<char, std::__ndk1::char_traits<char>, std::__ndk1::allocator<char> > const&)>::operator()(std::__ndk1::basic_string<char, std::__ndk1::char_traits<char>, std::__ndk1::allocator<char> > const&)
FUNC 53ad4 1c 0 std::__ndk1::__function::__func<Tab5::init()::$_15, std::__ndk1::allocator<Tab5::init()::$_15>, void (std::__ndk1::basic_string<char, std::__ndk1::char_traits<char>, std::__ndk1::allocator<char> > const&)>::target(std::type_info const&) const
FUNC 53af0 c 0 std::__ndk1::__function::__func<Tab5::init()::$_15, std::__ndk1::allocator<Tab5::init()::$_15>, void (std::__ndk1::basic_string<char, std::__ndk1::char_traits<char>, std::__ndk1::allocator<char> > const&)>::target_type() const
FUNC 53afc 4 0 std::__ndk1::__function::__func<Tab5::init()::$_16, std::__ndk1::allocator<Tab5::init()::$_16>, void (std::__ndk1::basic_string<char, std::__ndk1::char_traits<char>, std::__ndk1::allocator<char> > const&)>::~__func()
FUNC 53b00 34 0 std::__ndk1::__function::__func<Tab5::init()::$_16, std::__ndk1::allocator<Tab5::init()::$_16>, void (std::__ndk1::basic_string<char, std::__ndk1::char_traits<char>, std::__ndk1::allocator<char> > const&)>::__clone() const
FUNC 53b34 14 0 std::__ndk1::__function::__func<Tab5::init()::$_16, std::__ndk1::allocator<Tab5::init()::$_16>, void (std::__ndk1::basic_string<char, std::__ndk1::char_traits<char>, std::__ndk1::allocator<char> > const&)>::__clone(std::__ndk1::__function::__base<void (std::__ndk1::basic_string<char, std::__ndk1::char_traits<char>, std::__ndk1::allocator<char> > const&)>*) const
FUNC 53b48 4 0 std::__ndk1::__function::__func<Tab5::init()::$_16, std::__ndk1::allocator<Tab5::init()::$_16>, void (std::__ndk1::basic_string<char, std::__ndk1::char_traits<char>, std::__ndk1::allocator<char> > const&)>::destroy()
FUNC 53b4c 4 0 std::__ndk1::__function::__func<Tab5::init()::$_16, std::__ndk1::allocator<Tab5::init()::$_16>, void (std::__ndk1::basic_string<char, std::__ndk1::char_traits<char>, std::__ndk1::allocator<char> > const&)>::destroy_deallocate()
FUNC 53b50 8c 0 std::__ndk1::__function::__func<Tab5::init()::$_16, std::__ndk1::allocator<Tab5::init()::$_16>, void (std::__ndk1::basic_string<char, std::__ndk1::char_traits<char>, std::__ndk1::allocator<char> > const&)>::operator()(std::__ndk1::basic_string<char, std::__ndk1::char_traits<char>, std::__ndk1::allocator<char> > const&)
FUNC 53bdc 1c 0 std::__ndk1::__function::__func<Tab5::init()::$_16, std::__ndk1::allocator<Tab5::init()::$_16>, void (std::__ndk1::basic_string<char, std::__ndk1::char_traits<char>, std::__ndk1::allocator<char> > const&)>::target(std::type_info const&) const
FUNC 53bf8 c 0 std::__ndk1::__function::__func<Tab5::init()::$_16, std::__ndk1::allocator<Tab5::init()::$_16>, void (std::__ndk1::basic_string<char, std::__ndk1::char_traits<char>, std::__ndk1::allocator<char> > const&)>::target_type() const
FUNC 53c04 4 0 std::__ndk1::__function::__func<Tab5::init()::$_17, std::__ndk1::allocator<Tab5::init()::$_17>, void (std::__ndk1::basic_string<char, std::__ndk1::char_traits<char>, std::__ndk1::allocator<char> > const&)>::~__func()
FUNC 53c08 34 0 std::__ndk1::__function::__func<Tab5::init()::$_17, std::__ndk1::allocator<Tab5::init()::$_17>, void (std::__ndk1::basic_string<char, std::__ndk1::char_traits<char>, std::__ndk1::allocator<char> > const&)>::__clone() const
FUNC 53c3c 14 0 std::__ndk1::__function::__func<Tab5::init()::$_17, std::__ndk1::allocator<Tab5::init()::$_17>, void (std::__ndk1::basic_string<char, std::__ndk1::char_traits<char>, std::__ndk1::allocator<char> > const&)>::__clone(std::__ndk1::__function::__base<void (std::__ndk1::basic_string<char, std::__ndk1::char_traits<char>, std::__ndk1::allocator<char> > const&)>*) const
FUNC 53c50 4 0 std::__ndk1::__function::__func<Tab5::init()::$_17, std::__ndk1::allocator<Tab5::init()::$_17>, void (std::__ndk1::basic_string<char, std::__ndk1::char_traits<char>, std::__ndk1::allocator<char> > const&)>::destroy()
FUNC 53c54 4 0 std::__ndk1::__function::__func<Tab5::init()::$_17, std::__ndk1::allocator<Tab5::init()::$_17>, void (std::__ndk1::basic_string<char, std::__ndk1::char_traits<char>, std::__ndk1::allocator<char> > const&)>::destroy_deallocate()
FUNC 53c58 8c 0 std::__ndk1::__function::__func<Tab5::init()::$_17, std::__ndk1::allocator<Tab5::init()::$_17>, void (std::__ndk1::basic_string<char, std::__ndk1::char_traits<char>, std::__ndk1::allocator<char> > const&)>::operator()(std::__ndk1::basic_string<char, std::__ndk1::char_traits<char>, std::__ndk1::allocator<char> > const&)
FUNC 53ce4 1c 0 std::__ndk1::__function::__func<Tab5::init()::$_17, std::__ndk1::allocator<Tab5::init()::$_17>, void (std::__ndk1::basic_string<char, std::__ndk1::char_traits<char>, std::__ndk1::allocator<char> > const&)>::target(std::type_info const&) const
FUNC 53d00 c 0 std::__ndk1::__function::__func<Tab5::init()::$_17, std::__ndk1::allocator<Tab5::init()::$_17>, void (std::__ndk1::basic_string<char, std::__ndk1::char_traits<char>, std::__ndk1::allocator<char> > const&)>::target_type() const
FUNC 53d0c 4 0 std::__ndk1::__function::__func<Tab5::init()::$_18, std::__ndk1::allocator<Tab5::init()::$_18>, void (std::__ndk1::basic_string<char, std::__ndk1::char_traits<char>, std::__ndk1::allocator<char> > const&)>::~__func()
FUNC 53d10 34 0 std::__ndk1::__function::__func<Tab5::init()::$_18, std::__ndk1::allocator<Tab5::init()::$_18>, void (std::__ndk1::basic_string<char, std::__ndk1::char_traits<char>, std::__ndk1::allocator<char> > const&)>::__clone() const
FUNC 53d44 14 0 std::__ndk1::__function::__func<Tab5::init()::$_18, std::__ndk1::allocator<Tab5::init()::$_18>, void (std::__ndk1::basic_string<char, std::__ndk1::char_traits<char>, std::__ndk1::allocator<char> > const&)>::__clone(std::__ndk1::__function::__base<void (std::__ndk1::basic_string<char, std::__ndk1::char_traits<char>, std::__ndk1::allocator<char> > const&)>*) const
FUNC 53d58 4 0 std::__ndk1::__function::__func<Tab5::init()::$_18, std::__ndk1::allocator<Tab5::init()::$_18>, void (std::__ndk1::basic_string<char, std::__ndk1::char_traits<char>, std::__ndk1::allocator<char> > const&)>::destroy()
FUNC 53d5c 4 0 std::__ndk1::__function::__func<Tab5::init()::$_18, std::__ndk1::allocator<Tab5::init()::$_18>, void (std::__ndk1::basic_string<char, std::__ndk1::char_traits<char>, std::__ndk1::allocator<char> > const&)>::destroy_deallocate()
FUNC 53d60 8c 0 std::__ndk1::__function::__func<Tab5::init()::$_18, std::__ndk1::allocator<Tab5::init()::$_18>, void (std::__ndk1::basic_string<char, std::__ndk1::char_traits<char>, std::__ndk1::allocator<char> > const&)>::operator()(std::__ndk1::basic_string<char, std::__ndk1::char_traits<char>, std::__ndk1::allocator<char> > const&)
FUNC 53dec 1c 0 std::__ndk1::__function::__func<Tab5::init()::$_18, std::__ndk1::allocator<Tab5::init()::$_18>, void (std::__ndk1::basic_string<char, std::__ndk1::char_traits<char>, std::__ndk1::allocator<char> > const&)>::target(std::type_info const&) const
FUNC 53e08 c 0 std::__ndk1::__function::__func<Tab5::init()::$_18, std::__ndk1::allocator<Tab5::init()::$_18>, void (std::__ndk1::basic_string<char, std::__ndk1::char_traits<char>, std::__ndk1::allocator<char> > const&)>::target_type() const
FUNC 53e14 4 0 std::__ndk1::__function::__func<Tab5::init()::$_19, std::__ndk1::allocator<Tab5::init()::$_19>, void (std::__ndk1::basic_string<char, std::__ndk1::char_traits<char>, std::__ndk1::allocator<char> > const&)>::~__func()
FUNC 53e18 34 0 std::__ndk1::__function::__func<Tab5::init()::$_19, std::__ndk1::allocator<Tab5::init()::$_19>, void (std::__ndk1::basic_string<char, std::__ndk1::char_traits<char>, std::__ndk1::allocator<char> > const&)>::__clone() const
FUNC 53e4c 14 0 std::__ndk1::__function::__func<Tab5::init()::$_19, std::__ndk1::allocator<Tab5::init()::$_19>, void (std::__ndk1::basic_string<char, std::__ndk1::char_traits<char>, std::__ndk1::allocator<char> > const&)>::__clone(std::__ndk1::__function::__base<void (std::__ndk1::basic_string<char, std::__ndk1::char_traits<char>, std::__ndk1::allocator<char> > const&)>*) const
FUNC 53e60 4 0 std::__ndk1::__function::__func<Tab5::init()::$_19, std::__ndk1::allocator<Tab5::init()::$_19>, void (std::__ndk1::basic_string<char, std::__ndk1::char_traits<char>, std::__ndk1::allocator<char> > const&)>::destroy()
FUNC 53e64 4 0 std::__ndk1::__function::__func<Tab5::init()::$_19, std::__ndk1::allocator<Tab5::init()::$_19>, void (std::__ndk1::basic_string<char, std::__ndk1::char_traits<char>, std::__ndk1::allocator<char> > const&)>::destroy_deallocate()
FUNC 53e68 8c 0 std::__ndk1::__function::__func<Tab5::init()::$_19, std::__ndk1::allocator<Tab5::init()::$_19>, void (std::__ndk1::basic_string<char, std::__ndk1::char_traits<char>, std::__ndk1::allocator<char> > const&)>::operator()(std::__ndk1::basic_string<char, std::__ndk1::char_traits<char>, std::__ndk1::allocator<char> > const&)
FUNC 53ef4 1c 0 std::__ndk1::__function::__func<Tab5::init()::$_19, std::__ndk1::allocator<Tab5::init()::$_19>, void (std::__ndk1::basic_string<char, std::__ndk1::char_traits<char>, std::__ndk1::allocator<char> > const&)>::target(std::type_info const&) const
FUNC 53f10 c 0 std::__ndk1::__function::__func<Tab5::init()::$_19, std::__ndk1::allocator<Tab5::init()::$_19>, void (std::__ndk1::basic_string<char, std::__ndk1::char_traits<char>, std::__ndk1::allocator<char> > const&)>::target_type() const
FUNC 53f1c 30 0 geode::getMod()
FUNC 53f4c 30 0 geodeImplicitEntry
FUNC 53f7c 4c 0 std::__ndk1::unordered_map<void*, bool, std::__ndk1::hash<void*>, std::__ndk1::equal_to<void*>, std::__ndk1::allocator<std::__ndk1::pair<void* const, bool> > >::~unordered_map[abi:ne190000]()
FUNC 53fc8 134 0 wrapFunction(unsigned long, tulip::hook::WrapperMetadata const&)
FUNC 540fc 78 0 geode::impl::ResultData<void*, std::__ndk1::basic_string<char, std::__ndk1::char_traits<char>, std::__ndk1::allocator<char> > >::unwrapErr() &
FUNC 54174 74 0 geode::impl::ResultData<void*, std::__ndk1::basic_string<char, std::__ndk1::char_traits<char>, std::__ndk1::allocator<char> > >::~ResultData()
FUNC 541e8 64 0 tulip::hook::WrapperMetadata::~WrapperMetadata()
FUNC 5424c 24 0 cocos2d::CCObject::~CCObject()
FUNC 54270 24 0 cocos2d::CCNode::~CCNode()
FUNC 54294 8 0 {virtual override thunk({offset(-320)}, cocos2d::CCLayer::~CCLayer())}
FUNC 5429c 24 0 cocos2d::CCLayer::~CCLayer()
FUNC 542c0 28 0 {virtual override thunk({offset(-320)}, cocos2d::CCLayer::~CCLayer())}
FUNC 542e8 288 0 cocos2d::CCLayerRGBA::CCLayerRGBA()
FUNC 54570 2f0 0 cocos2d::CCLayerRGBA::~CCLayerRGBA()
FUNC 54860 8 0 {virtual override thunk({offset(-320)}, cocos2d::CCLayerRGBA::~CCLayerRGBA())}
FUNC 54868 24 0 cocos2d::CCLayerRGBA::~CCLayerRGBA()
FUNC 5488c 28 0 {virtual override thunk({offset(-320)}, cocos2d::CCLayerRGBA::~CCLayerRGBA())}
FUNC 548b4 260 0 cocos2d::CCLayerColor::CCLayerColor()
FUNC 54b14 8 0 {virtual override thunk({offset(-320)}, cocos2d::CCLayerColor::~CCLayerColor())}
FUNC 54b1c 24 0 cocos2d::CCLayerColor::~CCLayerColor()
FUNC 54b40 28 0 {virtual override thunk({offset(-320)}, cocos2d::CCLayerColor::~CCLayerColor())}
FUNC 54b68 9c 0 FLAlertLayer::FLAlertLayer()
FUNC 54c04 8 0 {virtual override thunk({offset(-320)}, FLAlertLayer::~FLAlertLayer())}
FUNC 54c0c 24 0 FLAlertLayer::~FLAlertLayer()
FUNC 54c30 28 0 {virtual override thunk({offset(-320)}, FLAlertLayer::~FLAlertLayer())}
FUNC 54c58 14 0 CCMenuItemSpriteExtra::create(cocos2d::CCNode*, cocos2d::CCObject*, void (cocos2d::CCObject::*)(cocos2d::CCObject*))
FUNC 54c6c 1f8 0 CCMenuItemToggler::createWithStandardSprites(cocos2d::CCObject*, void (cocos2d::CCObject::*)(cocos2d::CCObject*), float)
FUNC 54e64 4 0 cocos2d::CCObject::update(float)
FUNC 54e68 2d4 0 cocos2d::CCLayerColor::~CCLayerColor()
FUNC 5513c 2e0 0 cocos2d::CCLayer::~CCLayer()
FUNC 5541c 290 0 cocos2d::CCNode::~CCNode()
FUNC 556ac 2d4 0 FLAlertLayer::~FLAlertLayer()
FUNC 55980 4ac 0 cocos2d::CCObject::~CCObject()
FUNC 55e2c 154 0 _ZN5geode15UnwrapExceptionC2IRPvQsr4implE18IsStringStreamableIT_EEENS_4impl5OkTagEOS4_
FUNC 55f80 168 0 _ZN5geode15UnwrapExceptionC2IRNSt6__ndk112basic_stringIcNS2_11char_traitsIcEENS2_9allocatorIcEEEEQsr4implE18IsStringStreamableIT_EEENS_4impl6ErrTagEOSA_
FUNC 560e8 4 0 std::__ndk1::__variant_detail::__visitation::__base::__dispatcher<(unsigned long)0>::__dispatch[abi:ne190000]<std::__ndk1::__variant_detail::__dtor<std::__ndk1::__variant_detail::__traits<void*, std::__ndk1::basic_string<char, std::__ndk1::char_traits<char>, std::__ndk1::allocator<char> > >, (std::__ndk1::__variant_detail::_Trait)1>::__destroy[abi:ne190000]()::{lambda(auto:1&)#1}, std::__ndk1::__variant_detail::__base<(std::__ndk1::__variant_detail::__traits<void*, std::__ndk1::basic_string<char, std::__ndk1::char_traits<char>, std::__ndk1::allocator<char> > >)1, std::__ndk1::__variant_detail::__traits, std::__ndk1::allocator<char> >&>(std::__ndk1::__variant_detail::__dtor<std::__ndk1::__variant_detail::__traits<void*, std::__ndk1::basic_string<char, std::__ndk1::char_traits<char>, std::__ndk1::allocator<char> > >, (std::__ndk1::__variant_detail::_Trait)1>, std::__ndk1::__variant_detail::__base<(std::__ndk1::__variant_detail::__traits<void*, std::__ndk1::basic_string<char, std::__ndk1::char_traits<char>, std::__ndk1::allocator<char> > >)1, std::__ndk1::__variant_detail::__traits, std::__ndk1::allocator<char> >&)
FUNC 560ec 14 0 std::__ndk1::__variant_detail::__visitation::__base::__dispatcher<(unsigned long)1>::__dispatch[abi:ne190000]<std::__ndk1::__variant_detail::__dtor<std::__ndk1::__variant_detail::__traits<void*, std::__ndk1::basic_string<char, std::__ndk1::char_traits<char>, std::__ndk1::allocator<char> > >, (std::__ndk1::__variant_detail::_Trait)1>::__destroy[abi:ne190000]()::{lambda(auto:1&)#1}, std::__ndk1::__variant_detail::__base<(std::__ndk1::__variant_detail::__traits<void*, std::__ndk1::basic_string<char, std::__ndk1::char_traits<char>, std::__ndk1::allocator<char> > >)1, std::__ndk1::__variant_detail::__traits, std::__ndk1::allocator<char> >&>(std::__ndk1::__variant_detail::__dtor<std::__ndk1::__variant_detail::__traits<void*, std::__ndk1::basic_string<char, std::__ndk1::char_traits<char>, std::__ndk1::allocator<char> > >, (std::__ndk1::__variant_detail::_Trait)1>, std::__ndk1::__variant_detail::__base<(std::__ndk1::__variant_detail::__traits<void*, std::__ndk1::basic_string<char, std::__ndk1::char_traits<char>, std::__ndk1::allocator<char> > >)1, std::__ndk1::__variant_detail::__traits, std::__ndk1::allocator<char> >&)
FUNC 56100 430 0 std::__ndk1::__hash_table<std::__ndk1::__hash_value_type<void*, bool>, std::__ndk1::__unordered_map_hasher<void*, std::__ndk1::__hash_value_type<void*, bool>, std::__ndk1::hash<void*>, std::__ndk1::equal_to<void*>, true>, std::__ndk1::__unordered_map_equal<void*, std::__ndk1::__hash_value_type<void*, bool>, std::__ndk1::equal_to<void*>, std::__ndk1::hash<void*>, true>, std::__ndk1::allocator<std::__ndk1::__hash_value_type<void*, bool> > >::__emplace_unique_key_args<void*, std::__ndk1::piecewise_construct_t const&, std::__ndk1::tuple<void* const&>, std::__ndk1::tuple<> >(void* const&, std::__ndk1::piecewise_construct_t const&, std::__ndk1::tuple<void* const&>, std::__ndk1::tuple<>)
PUBLIC 56530 0 __udivti3
PUBLIC 5653c 0 __udivmodti4
PUBLIC m 56788 0 __eqtf2
PUBLIC 56828 0 __unordtf2
FUNC 56860 294 0 fmt::v11::detail::write_loc(fmt::v11::basic_appender<char>, fmt::v11::loc_value, fmt::v11::format_specs const&, fmt::v11::detail::locale_ref)
FUNC 56af4 70 0 fmt::v11::format_facet<std::__ndk1::locale>::~format_facet()
FUNC 56b64 50 0 fmt::v11::report_error(char const*)
FUNC 56bb4 2c 0 fmt::v11::format_error::runtime_error(char const*)
FUNC 56be0 750 0 fmt::v11::format_facet<std::__ndk1::locale>::do_put(fmt::v11::basic_appender<char>, fmt::v11::loc_value, fmt::v11::format_specs const&) const
FUNC 57330 64 0 fmt::v11::detail::loc_writer<char>::~loc_writer()
FUNC 57394 13c 0 fmt::v11::vformat(fmt::v11::basic_string_view<char>, fmt::v11::basic_format_args<fmt::v11::context>)
FUNC 574d0 3c8 0 fmt::v11::detail::vformat_to<char>(fmt::v11::detail::buffer<char>&, fmt::v11::basic_string_view<char>, fmt::v11::detail::vformat_args<char>::type, fmt::v11::detail::locale_ref)
FUNC 57898 228 0 fmt::v11::detail::is_printable(unsigned int)
FUNC 57ac0 2b4 0 fmt::v11::detail::dragonbox::to_decimal<float>(float)
FUNC 57d74 530 0 fmt::v11::detail::dragonbox::to_decimal<double>(double)
FUNC 582a4 78 0 fmt::v11::basic_memory_buffer<char, (unsigned long)500, std::__ndk1::allocator<char> >::grow(fmt::v11::detail::buffer<char>&, unsigned long)
FUNC 5831c 78 0 fmt::v11::format_facet<std::__ndk1::locale>::~format_facet()
FUNC 58394 24 0 fmt::v11::format_error::~format_error()
FUNC 583b8 150 0 fmt::v11::detail::copy_noinline<char, char const*, fmt::v11::basic_appender<char> >(char const*, char const*, fmt::v11::basic_appender<char>)
FUNC 58508 6c 0 fmt::v11::detail::default_arg_formatter<char>::operator()<bool>(bool)
FUNC 58574 74 0 fmt::v11::detail::default_arg_formatter<char>::operator()<char>(char)
FUNC 585e8 f0 0 fmt::v11::detail::default_arg_formatter<char>::operator()<float>(float)
FUNC 586d8 f0 0 fmt::v11::detail::default_arg_formatter<char>::operator()<double>(double)
FUNC 587c8 48 0 fmt::v11::detail::default_arg_formatter<char>::operator()<char const*>(char const*)
FUNC 58810 9c 0 fmt::v11::detail::default_arg_formatter<char>::operator()<void const*>(void const*)
FUNC 588ac 220 0 _ZN3fmt3v116detail5writeIcNS0_14basic_appenderIcEEiTnNSt6__ndk19enable_ifIXaaaasr11is_integralIT1_EE5valuentsr3std7is_sameIS7_bEE5valuentsr3std7is_sameIS7_T_EE5valueEiE4typeELi0EEET0_SB_S7_
FUNC 58acc 150 0 fmt::v11::detail::copy_noinline<char, char*, fmt::v11::basic_appender<char> >(char*, char*, fmt::v11::basic_appender<char>)
FUNC 58c1c 1c4 0 _ZN3fmt3v116detail5writeIcNS0_14basic_appenderIcEEjTnNSt6__ndk19enable_ifIXaaaasr11is_integralIT1_EE5valuentsr3std7is_sameIS7_bEE5valuentsr3std7is_sameIS7_T_EE5valueEiE4typeELi0EEET0_SB_S7_
FUNC 58de0 244 0 _ZN3fmt3v116detail5writeIcNS0_14basic_appenderIcEExTnNSt6__ndk19enable_ifIXaaaasr11is_integralIT1_EE5valuentsr3std7is_sameIS7_bEE5valuentsr3std7is_sameIS7_T_EE5valueEiE4typeELi0EEET0_SB_S7_
FUNC 59024 1ec 0 _ZN3fmt3v116detail5writeIcNS0_14basic_appenderIcEEyTnNSt6__ndk19enable_ifIXaaaasr11is_integralIT1_EE5valuentsr3std7is_sameIS7_bEE5valuentsr3std7is_sameIS7_T_EE5valueEiE4typeELi0EEET0_SB_S7_
FUNC 59210 304 0 _ZN3fmt3v116detail5writeIcNS0_14basic_appenderIcEEnTnNSt6__ndk19enable_ifIXaaaasr11is_integralIT1_EE5valuentsr3std7is_sameIS7_bEE5valuentsr3std7is_sameIS7_T_EE5valueEiE4typeELi0EEET0_SB_S7_
FUNC 59514 2a4 0 _ZN3fmt3v116detail5writeIcNS0_14basic_appenderIcEEoTnNSt6__ndk19enable_ifIXaaaasr11is_integralIT1_EE5valuentsr3std7is_sameIS7_bEE5valuentsr3std7is_sameIS7_T_EE5valueEiE4typeELi0EEET0_SB_S7_
FUNC 597b8 290 0 _ZN3fmt3v116detail5writeIcNS0_14basic_appenderIcEEbTnNSt6__ndk19enable_ifIXsr3std7is_sameIT1_bEE5valueEiE4typeELi0EEET0_SA_S7_RKNS0_12format_specsENS1_10locale_refE
FUNC 59a48 dac 0 fmt::v11::detail::write_int_noinline<char, fmt::v11::basic_appender<char>, unsigned int>(fmt::v11::basic_appender<char>, fmt::v11::detail::write_int_arg<unsigned int>, fmt::v11::format_specs const&, fmt::v11::detail::locale_ref)
FUNC 5a7f4 1d0 0 fmt::v11::detail::fill<char, fmt::v11::basic_appender<char> >(fmt::v11::basic_appender<char>, unsigned long, fmt::v11::detail::fill_t const&)
FUNC 5a9c4 22c 0 fmt::v11::detail::write_padded<char, (fmt::v11::align::type)1, fmt::v11::basic_appender<char>, fmt::v11::detail::write_char<char, fmt::v11::basic_appender<char> >(fmt::v11::basic_appender<char>, char, fmt::v11::format_specs const&)::{lambda(fmt::v11::basic_appender<char>&)#1}>(fmt::v11::basic_appender<char>, fmt::v11::format_specs const&, unsigned long, unsigned long, fmt::v11::detail::write_char<char, fmt::v11::basic_appender<char> >(fmt::v11::basic_appender<char>, char, fmt::v11::format_specs const&)::{lambda(fmt::v11::basic_appender<char>&)#1})
FUNC 5abf0 30c 0 fmt::v11::detail::write_escaped_cp<fmt::v11::basic_appender<char>, char>(fmt::v11::basic_appender<char>, fmt::v11::detail::find_escape_result<char> const&)
FUNC 5aefc 178 0 fmt::v11::detail::write_codepoint<(unsigned long)2, char, fmt::v11::basic_appender<char> >(fmt::v11::basic_appender<char>, char, unsigned int)
FUNC 5b074 178 0 fmt::v11::detail::write_codepoint<(unsigned long)8, char, fmt::v11::basic_appender<char> >(fmt::v11::basic_appender<char>, char, unsigned int)
FUNC 5b1ec 240 0 fmt::v11::detail::write_padded<char, (fmt::v11::align::type)1, fmt::v11::basic_appender<char>, fmt::v11::detail::write_nonfinite<char, fmt::v11::basic_appender<char> >(fmt::v11::basic_appender<char>, bool, fmt::v11::format_specs, fmt::v11::sign::type)::{lambda(fmt::v11::basic_appender<char>&)#1}>(fmt::v11::basic_appender<char>, fmt::v11::format_specs const&, unsigned long, unsigned long, fmt::v11::detail::write_nonfinite<char, fmt::v11::basic_appender<char> >(fmt::v11::basic_appender<char>, bool, fmt::v11::format_specs, fmt::v11::sign::type)::{lambda(fmt::v11::basic_appender<char>&)#1})
FUNC 5b42c c2c 0 fmt::v11::detail::do_write_float<char, fmt::v11::basic_appender<char>, fmt::v11::detail::dragonbox::decimal_fp<float>, fmt::v11::detail::digit_grouping<char> >(fmt::v11::basic_appender<char>, fmt::v11::detail::dragonbox::decimal_fp<float> const&, fmt::v11::format_specs const&, fmt::v11::detail::float_specs, fmt::v11::detail::locale_ref)
FUNC 5c058 154 0 fmt::v11::detail::do_write_float<char, fmt::v11::basic_appender<char>, fmt::v11::detail::dragonbox::decimal_fp<float>, fmt::v11::detail::digit_grouping<char> >(fmt::v11::basic_appender<char>, fmt::v11::detail::dragonbox::decimal_fp<float> const&, fmt::v11::format_specs const&, fmt::v11::detail::float_specs, fmt::v11::detail::locale_ref)::{lambda(fmt::v11::basic_appender<char>(fmt::v11::basic_appender<char>))#1}::operator() const
FUNC 5c1ac 234 0 fmt::v11::detail::digit_grouping<char>::digit_grouping(fmt::v11::detail::locale_ref, bool)
FUNC 5c3e0 44 0 fmt::v11::detail::digit_grouping<char>::~digit_grouping()
FUNC 5c424 1a4 0 fmt::v11::detail::write_exponent<char, fmt::v11::basic_appender<char> >(int, fmt::v11::basic_appender<char>)
FUNC 5c5c8 17c 0 _ZN3fmt3v116detail17write_significandIcjTnNSt6__ndk19enable_ifIXsr3std11is_integralIT0_EE5valueEiE4typeELi0EEEPT_S9_S5_iiS8_
FUNC 5c744 ac 0 std::__ndk1::basic_string<char, std::__ndk1::char_traits<char>, std::__ndk1::allocator<char> >::__assign_no_alias<true>(char const*, unsigned long)
FUNC 5c7f0 11c 0 std::__ndk1::basic_string<char, std::__ndk1::char_traits<char>, std::__ndk1::allocator<char> >::__assign_no_alias<false>(char const*, unsigned long)
FUNC 5c90c 3a4 0 fmt::v11::detail::digit_grouping<char>::apply<fmt::v11::basic_appender<char>, char>(fmt::v11::basic_appender<char>, fmt::v11::basic_string_view<char>) const
FUNC 5ccb0 a0 0 fmt::v11::basic_memory_buffer<int, (unsigned long)500, std::__ndk1::allocator<int> >::grow(fmt::v11::detail::buffer<int>&, unsigned long)
FUNC 5cd50 c68 0 fmt::v11::detail::do_write_float<char, fmt::v11::basic_appender<char>, fmt::v11::detail::dragonbox::decimal_fp<double>, fmt::v11::detail::digit_grouping<char> >(fmt::v11::basic_appender<char>, fmt::v11::detail::dragonbox::decimal_fp<double> const&, fmt::v11::format_specs const&, fmt::v11::detail::float_specs, fmt::v11::detail::locale_ref)
FUNC 5d9b8 158 0 fmt::v11::detail::do_write_float<char, fmt::v11::basic_appender<char>, fmt::v11::detail::dragonbox::decimal_fp<double>, fmt::v11::detail::digit_grouping<char> >(fmt::v11::basic_appender<char>, fmt::v11::detail::dragonbox::decimal_fp<double> const&, fmt::v11::format_specs const&, fmt::v11::detail::float_specs, fmt::v11::detail::locale_ref)::{lambda(fmt::v11::basic_appender<char>(fmt::v11::basic_appender<char>))#1}::operator() const
FUNC 5db10 190 0 _ZN3fmt3v116detail17write_significandIcmTnNSt6__ndk19enable_ifIXsr3std11is_integralIT0_EE5valueEiE4typeELi0EEEPT_S9_S5_iiS8_
FUNC 5dca0 ab8 0 fmt::v11::detail::write_float<char, fmt::v11::basic_appender<char>, long double>(fmt::v11::basic_appender<char>, long double, fmt::v11::format_specs, fmt::v11::detail::locale_ref)
FUNC 5e758 1dc 0 fmt::v11::detail::write_padded<char, (fmt::v11::align::type)2, fmt::v11::basic_appender<char>, fmt::v11::detail::write_bytes<char, (fmt::v11::align::type)2, fmt::v11::basic_appender<char> >(fmt::v11::basic_appender<char>, fmt::v11::basic_string_view<char>, fmt::v11::format_specs const&)::{lambda(fmt::v11::basic_appender<char>&)#1}>(fmt::v11::basic_appender<char>, fmt::v11::format_specs const&, unsigned long, unsigned long, fmt::v11::detail::write_bytes<char, (fmt::v11::align::type)2, fmt::v11::basic_appender<char> >(fmt::v11::basic_appender<char>, fmt::v11::basic_string_view<char>, fmt::v11::format_specs const&)::{lambda(fmt::v11::basic_appender<char>&)#1})
FUNC 5e934 133c 0 fmt::v11::detail::format_dragon(fmt::v11::detail::basic_fp<unsigned __int128>, unsigned int, int, fmt::v11::detail::buffer<char>&, int&)
FUNC 5fc70 124 0 fmt::v11::detail::bigint::operator<<=(int)
FUNC 5fd94 744 0 fmt::v11::detail::bigint::assign_pow10(int)
FUNC 604d8 2f8 0 fmt::v11::detail::bigint::divmod_assign(fmt::v11::detail::bigint const&)
FUNC 607d0 a0 0 fmt::v11::basic_memory_buffer<unsigned int, (unsigned long)32, std::__ndk1::allocator<unsigned int> >::grow(fmt::v11::detail::buffer<unsigned int>&, unsigned long)
FUNC 60870 e80 0 fmt::v11::detail::do_write_float<char, fmt::v11::basic_appender<char>, fmt::v11::detail::big_decimal_fp, fmt::v11::detail::digit_grouping<char> >(fmt::v11::basic_appender<char>, fmt::v11::detail::big_decimal_fp const&, fmt::v11::format_specs const&, fmt::v11::detail::float_specs, fmt::v11::detail::locale_ref)
FUNC 616f0 160 0 fmt::v11::detail::do_write_float<char, fmt::v11::basic_appender<char>, fmt::v11::detail::big_decimal_fp, fmt::v11::detail::digit_grouping<char> >(fmt::v11::basic_appender<char>, fmt::v11::detail::big_decimal_fp const&, fmt::v11::format_specs const&, fmt::v11::detail::float_specs, fmt::v11::detail::locale_ref)::{lambda(fmt::v11::basic_appender<char>(fmt::v11::basic_appender<char>))#1}::operator() const
FUNC 61850 214 0 fmt::v11::detail::write_padded<char, (fmt::v11::align::type)2, fmt::v11::basic_appender<char>, fmt::v11::detail::write_ptr<char, fmt::v11::basic_appender<char>, unsigned long>(fmt::v11::basic_appender<char>, unsigned long, fmt::v11::format_specs const*)::{lambda(fmt::v11::basic_appender<char>&)#1}>(fmt::v11::basic_appender<char>, fmt::v11::format_specs const&, unsigned long, unsigned long, fmt::v11::detail::write_ptr<char, fmt::v11::basic_appender<char>, unsigned long>(fmt::v11::basic_appender<char>, unsigned long, fmt::v11::format_specs const*)::{lambda(fmt::v11::basic_appender<char>&)#1})
FUNC 61a64 1c20 0 fmt::v11::detail::parse_replacement_field<char, fmt::v11::detail::vformat_to<char>(fmt::v11::detail::buffer<char>&, fmt::v11::basic_string_view<char>, fmt::v11::detail::vformat_args<char>::type, fmt::v11::detail::locale_ref)::format_handler&>(char const*, char const*, fmt::v11::detail::vformat_to<char>(fmt::v11::detail::buffer<char>&, fmt::v11::basic_string_view<char>, fmt::v11::detail::vformat_args<char>::type, fmt::v11::detail::locale_ref)::format_handler&)
FUNC 63684 288 0 fmt::v11::detail::parse_dynamic_spec<char>(char const*, char const*, int&, fmt::v11::detail::arg_ref<char>&, fmt::v11::basic_format_parse_context<char>&)
FUNC 6390c 134 0 fmt::v11::basic_format_args<fmt::v11::context>::get<char>(fmt::v11::basic_string_view<char>) const
FUNC 63a40 e1c 0 fmt::v11::detail::write_int_noinline<char, fmt::v11::basic_appender<char>, unsigned long>(fmt::v11::basic_appender<char>, fmt::v11::detail::write_int_arg<unsigned long>, fmt::v11::format_specs const&, fmt::v11::detail::locale_ref)
FUNC 6485c fc8 0 fmt::v11::detail::write_int_noinline<char, fmt::v11::basic_appender<char>, unsigned __int128>(fmt::v11::basic_appender<char>, fmt::v11::detail::write_int_arg<unsigned __int128>, fmt::v11::format_specs const&, fmt::v11::detail::locale_ref)
FUNC 65824 510 0 _ZN3fmt3v116detail15format_hexfloatIdTnNSt6__ndk19enable_ifIXntsr16is_double_doubleIT_EE5valueEiE4typeELi0EEEvS5_NS0_12format_specsERNS1_6bufferIcEE
FUNC 65d34 a14 0 fmt::v11::detail::format_float<double>(double, int, fmt::v11::detail::float_specs, fmt::v11::detail::buffer<char>&)
FUNC 66748 cb0 0 fmt::v11::detail::write<char, fmt::v11::basic_appender<char> >(fmt::v11::basic_appender<char>, fmt::v11::basic_string_view<char>, fmt::v11::format_specs const&)
FUNC 673f8 18c 0 fmt::v11::detail::for_each_codepoint<fmt::v11::detail::find_escape(char const*, char const*)::{lambda(unsigned int, fmt::v11::basic_string_view<char>)#1}>(fmt::v11::basic_string_view<char>, fmt::v11::detail::find_escape(char const*, char const*)::{lambda(unsigned int, fmt::v11::basic_string_view<char>)#1})::{lambda(char const*, char const*)#1}::operator()(char const*, char const*) const
FUNC 67584 1b8 0 fmt::v11::detail::for_each_codepoint<fmt::v11::detail::compute_width(fmt::v11::basic_string_view<char>)::count_code_points>(fmt::v11::basic_string_view<char>, fmt::v11::detail::compute_width(fmt::v11::basic_string_view<char>)::count_code_points)::{lambda(char const*, char const*)#1}::operator()(char const*, char const*) const
FUNC 6773c 570 0 fmt::v11::detail::write_int<fmt::v11::basic_appender<char>, unsigned long, char>(fmt::v11::basic_appender<char>, unsigned long, unsigned int, fmt::v11::format_specs const&, fmt::v11::detail::digit_grouping<char> const&)
FUNC 67cac 664 0 fmt::v11::detail::write_int<fmt::v11::basic_appender<char>, unsigned __int128, char>(fmt::v11::basic_appender<char>, unsigned __int128, unsigned int, fmt::v11::format_specs const&, fmt::v11::detail::digit_grouping<char> const&)
PUBLIC 68310 0 <.plt ELF section in ninsam.to-do_list.android64.so>
STACK CFI INIT 32ed0 10 .cfa: sp 0 +
STACK CFI INIT 32ee0 8 .cfa: sp 0 +
STACK CFI INIT 32ee8 8 .cfa: sp 0 +
STACK CFI INIT 32ef0 14 .cfa: sp 0 +
STACK CFI INIT 32f04 1c .cfa: sp 0 +
STACK CFI INIT 32f20 10 .cfa: sp 0 +
STACK CFI INIT 32f30 134 .cfa: sp 0 +
STACK CFI INIT 33064 84 .cfa: sp 0 +
STACK CFI INIT 330e8 f4 .cfa: sp 0 +
STACK CFI INIT 331dc a8 .cfa: sp 0 +
STACK CFI INIT 33284 7c .cfa: sp 0 +
STACK CFI INIT 33300 14 .cfa: sp 0 +
STACK CFI INIT 33314 40 .cfa: sp 0 +
STACK CFI INIT 33354 28 .cfa: sp 0 +
STACK CFI INIT 3337c 190 .cfa: sp 0 +
STACK CFI INIT 3350c 2c8 .cfa: sp 0 +
STACK CFI INIT 337d4 8 .cfa: sp 0 +
STACK CFI INIT 337dc 8 .cfa: sp 0 +
STACK CFI INIT 337e4 44 .cfa: sp 0 +
STACK CFI INIT 33828 e8 .cfa: sp 0 +
STACK CFI INIT 33910 e8 .cfa: sp 0 +
STACK CFI INIT 339f8 14 .cfa: sp 0 +
STACK CFI INIT 33a0c 10 .cfa: sp 0 +
STACK CFI INIT 33a1c 10 .cfa: sp 0 +
STACK CFI INIT 33a2c f0 .cfa: sp 0 +
STACK CFI INIT 33b1c 44 .cfa: sp 0 +
STACK CFI INIT 33b60 c .cfa: sp 0 +
STACK CFI INIT 33b6c c .cfa: sp 0 +
STACK CFI INIT 33b78 2c .cfa: sp 0 +
STACK CFI INIT 33ba4 23c .cfa: sp 0 +
STACK CFI INIT 33de0 c .cfa: sp 0 +
STACK CFI INIT 33dec 120 .cfa: sp 0 +
STACK CFI INIT 33f0c 494 .cfa: sp 0 +
STACK CFI INIT 343a0 b78 .cfa: sp 0 +
STACK CFI INIT 34f18 134 .cfa: sp 0 +
STACK CFI INIT 3504c 210 .cfa: sp 0 +
STACK CFI INIT 3525c 38c .cfa: sp 0 +
STACK CFI INIT 355e8 1c8 .cfa: sp 0 +
STACK CFI INIT 357b0 9c4 .cfa: sp 0 +
STACK CFI INIT 36174 2d4 .cfa: sp 0 +
STACK CFI INIT 36448 130 .cfa: sp 0 +
STACK CFI INIT 36578 120 .cfa: sp 0 +
STACK CFI INIT 36698 1c8 .cfa: sp 0 +
STACK CFI INIT 36860 168 .cfa: sp 0 +
STACK CFI INIT 369c8 fc .cfa: sp 0 +
STACK CFI INIT 36ac4 30 .cfa: sp 0 +
STACK CFI INIT 36c20 30 .cfa: sp 0 +
STACK CFI INIT 36c50 98 .cfa: sp 0 +
STACK CFI INIT 36ce8 2ac .cfa: sp 0 +
STACK CFI INIT 36f94 8c .cfa: sp 0 +
STACK CFI INIT 37020 30 .cfa: sp 0 +
STACK CFI INIT 37b18 18 .cfa: sp 0 +
STACK CFI INIT 38198 50 .cfa: sp 0 +
STACK CFI 3819c .cfa: sp 32 +
STACK CFI 381a4 .cfa: x29 32 + x19: .cfa -16 + ^ .ra: .cfa -24 + ^ x29: .cfa -32 + ^
STACK CFI 381bc .cfa: sp 32 +
STACK CFI 381c4 .cfa: sp 0 +
STACK CFI 381c8 .cfa: x29 32 +
STACK CFI 381dc .cfa: sp 32 +
STACK CFI 381e4 .cfa: sp 0 +
STACK CFI INIT 3825c 7c .cfa: sp 0 +
STACK CFI 38260 .cfa: sp 48 +
STACK CFI 3826c .cfa: x29 48 + x19: .cfa -8 + ^ x20: .cfa -16 + ^ x21: .cfa -32 + ^ .ra: .cfa -40 + ^ x29: .cfa -48 + ^
STACK CFI 382b8 .cfa: sp 48 +
STACK CFI 382c4 .cfa: sp 0 +
STACK CFI 382c8 .cfa: sp 48 +
STACK CFI 382d4 .cfa: sp 0 +
STACK CFI INIT 382d8 4 .cfa: sp 0 +
STACK CFI INIT 382dc 10 .cfa: sp 0 +
STACK CFI 382e0 .cfa: sp 16 +
STACK CFI 382e4 .cfa: x29 16 + .ra: .cfa -8 + ^ x29: .cfa -16 + ^
STACK CFI INIT 38440 34 .cfa: sp 0 +
STACK CFI 38444 .cfa: sp 16 +
STACK CFI 38448 .cfa: x29 16 + .ra: .cfa -8 + ^ x29: .cfa -16 + ^
STACK CFI INIT 3859c 80 .cfa: sp 0 +
STACK CFI 385a0 .cfa: sp 48 +
STACK CFI 385ac .cfa: x29 48 + x19: .cfa -8 + ^ x20: .cfa -16 + ^ x21: .cfa -32 + ^ .ra: .cfa -40 + ^ x29: .cfa -48 + ^
STACK CFI 3860c .cfa: sp 48 +
STACK CFI 38618 .cfa: sp 0 +
STACK CFI INIT 3861c 24 .cfa: sp 0 +
STACK CFI 38620 .cfa: sp 32 +
STACK CFI 38628 .cfa: x29 32 + x19: .cfa -16 + ^ .ra: .cfa -24 + ^ x29: .cfa -32 + ^
STACK CFI 38634 .cfa: sp 32 +
STACK CFI 3863c .cfa: sp 0 +
STACK CFI INIT 3899c 14 .cfa: sp 0 +
STACK CFI 389a0 .cfa: sp 16 +
STACK CFI 389a4 .cfa: x29 16 + .ra: .cfa -8 + ^ x29: .cfa -16 + ^
STACK CFI INIT 38a00 30 .cfa: sp 0 +
STACK CFI 38a04 .cfa: sp 32 +
STACK CFI 38a0c .cfa: x29 32 + x19: .cfa -16 + ^ .ra: .cfa -24 + ^ x29: .cfa -32 + ^
STACK CFI 38a24 .cfa: sp 32 +
STACK CFI 38a2c .cfa: sp 0 +
STACK CFI INIT 38a30 34 .cfa: sp 0 +
STACK CFI 38a34 .cfa: sp 32 +
STACK CFI 38a3c .cfa: x29 32 + x19: .cfa -16 + ^ .ra: .cfa -24 + ^ x29: .cfa -32 + ^
STACK CFI INIT 38bc0 148 .cfa: sp 0 +
STACK CFI 38bc4 .cfa: sp 48 +
STACK CFI 38bd0 .cfa: x29 48 + x19: .cfa -8 + ^ x20: .cfa -16 + ^ x21: .cfa -32 + ^ .ra: .cfa -40 + ^ x29: .cfa -48 + ^
STACK CFI 38cf8 .cfa: sp 48 +
STACK CFI 38d04 .cfa: sp 0 +
STACK CFI INIT 38d08 88 .cfa: sp 0 +
STACK CFI 38d10 .cfa: sp 48 +
STACK CFI 38d1c .cfa: x29 48 + x19: .cfa -8 + ^ x20: .cfa -16 + ^ x21: .cfa -24 + ^ x22: .cfa -32 + ^ .ra: .cfa -40 + ^ x29: .cfa -48 + ^
STACK CFI 38d80 .cfa: sp 48 +
STACK CFI 38d8c .cfa: sp 0 +
STACK CFI INIT 38de0 30 .cfa: sp 0 +
STACK CFI 38de4 .cfa: sp 32 +
STACK CFI 38dec .cfa: x29 32 + x19: .cfa -16 + ^ .ra: .cfa -24 + ^ x29: .cfa -32 + ^
STACK CFI 38e04 .cfa: sp 32 +
STACK CFI 38e0c .cfa: sp 0 +
STACK CFI INIT 38e10 84 .cfa: sp 0 +
STACK CFI 38e14 .cfa: sp 48 +
STACK CFI 38e20 .cfa: x29 48 + x19: .cfa -8 + ^ x20: .cfa -16 + ^ x21: .cfa -24 + ^ x22: .cfa -32 + ^ .ra: .cfa -40 + ^ x29: .cfa -48 + ^
STACK CFI 38e7c .cfa: sp 48 +
STACK CFI 38e88 .cfa: sp 0 +
STACK CFI 38e8c .cfa: x29 48 +
STACK CFI INIT 38e94 68 .cfa: sp 0 +
STACK CFI 38e98 .cfa: sp 32 +
STACK CFI 38ea0 .cfa: x29 32 + x19: .cfa -8 + ^ x20: .cfa -16 + ^ .ra: .cfa -24 + ^ x29: .cfa -32 + ^
STACK CFI 38eb8 .cfa: sp 32 +
STACK CFI 38ec0 .cfa: sp 0 +
STACK CFI 38ec4 .cfa: x29 32 +
STACK CFI 38ef0 .cfa: sp 32 +
STACK CFI 38ef8 .cfa: sp 0 +
STACK CFI INIT 38efc 14 .cfa: sp 0 +
STACK CFI 38f00 .cfa: sp 16 +
STACK CFI 38f04 .cfa: x29 16 + .ra: .cfa -8 + ^ x29: .cfa -16 + ^
STACK CFI INIT 38f10 4 .cfa: sp 0 +
STACK CFI INIT 38f14 14 .cfa: sp 0 +
STACK CFI INIT 38f28 84 .cfa: sp 0 +
STACK CFI 38f30 .cfa: sp 32 +
STACK CFI 38f38 .cfa: x29 32 + x19: .cfa -8 + ^ x20: .cfa -16 + ^ .ra: .cfa -24 + ^ x29: .cfa -32 + ^
STACK CFI 38f78 .cfa: sp 32 +
STACK CFI 38f80 .cfa: sp 0 +
STACK CFI 38f88 .cfa: x29 32 +
STACK CFI INIT 39324 3c .cfa: sp 0 +
STACK CFI 39328 .cfa: sp 32 +
STACK CFI 39330 .cfa: x29 32 + x19: .cfa -8 + ^ x20: .cfa -16 + ^ .ra: .cfa -24 + ^ x29: .cfa -32 + ^
STACK CFI 39354 .cfa: sp 32 +
STACK CFI 3935c .cfa: sp 0 +
STACK CFI INIT 39360 50 .cfa: sp 0 +
STACK CFI 39364 .cfa: sp 32 +
STACK CFI 3936c .cfa: x29 32 + x19: .cfa -16 + ^ .ra: .cfa -24 + ^ x29: .cfa -32 + ^
STACK CFI 39384 .cfa: sp 32 +
STACK CFI 3938c .cfa: sp 0 +
STACK CFI 39390 .cfa: x29 32 +
STACK CFI 393a4 .cfa: sp 32 +
STACK CFI 393ac .cfa: sp 0 +
STACK CFI INIT 393b0 64 .cfa: sp 0 +
STACK CFI 393b4 .cfa: sp 32 +
STACK CFI 393bc .cfa: x29 32 + x19: .cfa -16 + ^ .ra: .cfa -24 + ^ x29: .cfa -32 + ^
STACK CFI 393e8 .cfa: sp 32 +
STACK CFI 393f0 .cfa: sp 0 +
STACK CFI 393f4 .cfa: x29 32 +
STACK CFI 39408 .cfa: sp 32 +
STACK CFI 39410 .cfa: sp 0 +
STACK CFI INIT 39598 1c .cfa: sp 0 +
STACK CFI 3959c .cfa: sp 16 +
STACK CFI 395a0 .cfa: x29 16 + .ra: .cfa -8 + ^ x29: .cfa -16 + ^
STACK CFI 395ac .cfa: sp 16 +
STACK CFI 395b0 .cfa: sp 0 +
STACK CFI INIT 395b4 50 .cfa: sp 0 +
STACK CFI 395b8 .cfa: sp 32 +
STACK CFI 395c0 .cfa: x29 32 + x19: .cfa -16 + ^ .ra: .cfa -24 + ^ x29: .cfa -32 + ^
STACK CFI 395d8 .cfa: sp 32 +
STACK CFI 395e0 .cfa: sp 0 +
STACK CFI 395e4 .cfa: x29 32 +
STACK CFI 395f8 .cfa: sp 32 +
STACK CFI 39600 .cfa: sp 0 +
STACK CFI INIT 39604 e4 .cfa: sp 0 +
STACK CFI 39608 .cfa: sp 64 +
STACK CFI 39618 .cfa: x29 64 + x19: .cfa -8 + ^ x20: .cfa -16 + ^ x21: .cfa -24 + ^ x22: .cfa -32 + ^ x23: .cfa -48 + ^ .ra: .cfa -56 + ^ x29: .cfa -64 + ^
STACK CFI 39690 .cfa: sp 64 +
STACK CFI 396a0 .cfa: sp 0 +
STACK CFI 396a4 .cfa: x29 64 +
STACK CFI INIT 39c88 4 .cfa: sp 0 +
STACK CFI INIT 39c8c 14 .cfa: sp 0 +
STACK CFI 39c90 .cfa: sp 16 +
STACK CFI 39c94 .cfa: x29 16 + .ra: .cfa -8 + ^ x29: .cfa -16 + ^
STACK CFI INIT 39ca0 14 .cfa: sp 0 +
STACK CFI 39ca4 .cfa: sp 16 +
STACK CFI 39ca8 .cfa: x29 16 + .ra: .cfa -8 + ^ x29: .cfa -16 + ^
STACK CFI INIT 39cb4 c .cfa: sp 0 +
STACK CFI 39cb8 .cfa: sp 16 +
STACK CFI 39cbc .cfa: x29 16 + .ra: .cfa -8 + ^ x29: .cfa -16 + ^
STACK CFI INIT 39cc0 c .cfa: sp 0 +
STACK CFI 39cc4 .cfa: sp 16 +
STACK CFI 39cc8 .cfa: x29 16 + .ra: .cfa -8 + ^ x29: .cfa -16 + ^
STACK CFI INIT 39ccc 4 .cfa: sp 0 +
STACK CFI INIT 39cd0 4 .cfa: sp 0 +
STACK CFI INIT 39cd4 38 .cfa: sp 0 +
STACK CFI 39cd8 .cfa: sp 32 +
STACK CFI 39ce0 .cfa: x29 32 + x19: .cfa -16 + ^ .ra: .cfa -24 + ^ x29: .cfa -32 + ^
STACK CFI 39d00 .cfa: sp 32 +
STACK CFI 39d08 .cfa: sp 0 +
STACK CFI INIT 39d0c 18 .cfa: sp 0 +
STACK CFI INIT 39d24 4 .cfa: sp 0 +
STACK CFI INIT 39d28 4 .cfa: sp 0 +
STACK CFI INIT 39d2c 10 .cfa: sp 0 +
STACK CFI INIT 39d3c 1c .cfa: sp 0 +
STACK CFI INIT 39d58 c .cfa: sp 0 +
STACK CFI INIT 39d64 104 .cfa: sp 0 +
STACK CFI 39d68 .cfa: sp 80 +
STACK CFI 39d7c .cfa: x29 80 + x19: .cfa -8 + ^ x20: .cfa -16 + ^ x21: .cfa -24 + ^ x22: .cfa -32 + ^ x23: .cfa -40 + ^ x24: .cfa -48 + ^ x25: .cfa -56 + ^ x26: .cfa -64 + ^ .ra: .cfa -72 + ^ x29: .cfa -80 + ^
STACK CFI 39e50 .cfa: sp 80 +
STACK CFI 39e64 .cfa: sp 0 +
STACK CFI INIT 39e68 194 .cfa: sp 0 +
STACK CFI INIT 3becc 4 .cfa: sp 0 +
STACK CFI INIT 3c168 c .cfa: sp 0 +
STACK CFI INIT 3c174 3c .cfa: sp 0 +
STACK CFI 3c178 .cfa: sp 32 +
STACK CFI 3c180 .cfa: x29 32 + x19: .cfa -16 + ^ .ra: .cfa -24 + ^ x29: .cfa -32 + ^
STACK CFI 3c1a4 .cfa: sp 32 +
STACK CFI 3c1ac .cfa: sp 0 +
STACK CFI INIT 3c1b0 5c8 .cfa: sp 0 +
STACK CFI 3c1b4 .cfa: sp 96 +
STACK CFI 3c1c8 .cfa: x29 32 + x19: .cfa -8 + ^ x20: .cfa -16 + ^ .ra: .cfa -24 + ^ x29: .cfa -32 + ^ v8: .cfa -40 + ^ v9: .cfa -48 + ^ v10: .cfa -64 + ^
STACK CFI 3c75c .cfa: sp 96 +
STACK CFI 3c770 .cfa: sp 0 +
STACK CFI 3c774 .cfa: x29 32 +
STACK CFI INIT 3c824 8 .cfa: sp 0 +
STACK CFI INIT 3c82c 24 .cfa: sp 0 +
STACK CFI 3c830 .cfa: sp 32 +
STACK CFI 3c838 .cfa: x29 32 + x19: .cfa -16 + ^ .ra: .cfa -24 + ^ x29: .cfa -32 + ^
STACK CFI 3c844 .cfa: sp 32 +
STACK CFI 3c84c .cfa: sp 0 +
STACK CFI INIT 3c850 4 .cfa: sp 0 +
STACK CFI INIT 3c854 8 .cfa: sp 0 +
STACK CFI INIT 3c85c 8 .cfa: sp 0 +
STACK CFI INIT 3c864 28 .cfa: sp 0 +
STACK CFI 3c868 .cfa: sp 32 +
STACK CFI 3c870 .cfa: x29 32 + x19: .cfa -16 + ^ .ra: .cfa -24 + ^ x29: .cfa -32 + ^
STACK CFI 3c880 .cfa: sp 32 +
STACK CFI 3c888 .cfa: sp 0 +
STACK CFI INIT 3c88c 4 .cfa: sp 0 +
STACK CFI INIT 3c890 4 .cfa: sp 0 +
STACK CFI INIT 3c894 4 .cfa: sp 0 +
STACK CFI INIT 3c898 4 .cfa: sp 0 +
STACK CFI INIT 3c89c 4 .cfa: sp 0 +
STACK CFI INIT 3c8a0 8 .cfa: sp 0 +
STACK CFI INIT 3c990 4 .cfa: sp 0 +
STACK CFI INIT 3c994 14 .cfa: sp 0 +
STACK CFI INIT 3c9a8 14 .cfa: sp 0 +
STACK CFI INIT 3c9bc 14 .cfa: sp 0 +
STACK CFI INIT 3c9d0 4 .cfa: sp 0 +
STACK CFI INIT 3c9d4 34 .cfa: sp 0 +
STACK CFI 3c9d8 .cfa: sp 32 +
STACK CFI 3c9e0 .cfa: x29 32 + x19: .cfa -16 + ^ .ra: .cfa -24 + ^ x29: .cfa -32 + ^
STACK CFI 3c9fc .cfa: sp 32 +
STACK CFI 3ca04 .cfa: sp 0 +
STACK CFI INIT 3ca08 14 .cfa: sp 0 +
STACK CFI INIT 3ca1c 4 .cfa: sp 0 +
STACK CFI INIT 3ca20 4 .cfa: sp 0 +
STACK CFI INIT 3ca24 8c .cfa: sp 0 +
STACK CFI 3ca28 .cfa: sp 80 +
STACK CFI 3ca38 .cfa: x29 48 + x19: .cfa -8 + ^ x20: .cfa -16 + ^ x21: .cfa -32 + ^ .ra: .cfa -40 + ^ x29: .cfa -48 + ^
STACK CFI 3ca98 .cfa: sp 80 +
STACK CFI 3caa8 .cfa: sp 0 +
STACK CFI 3caac .cfa: x29 48 +
STACK CFI INIT 3cab0 1c .cfa: sp 0 +
STACK CFI INIT 3cacc c .cfa: sp 0 +
STACK CFI INIT 3cdf4 4 .cfa: sp 0 +
STACK CFI INIT 3cdf8 34 .cfa: sp 0 +
STACK CFI 3cdfc .cfa: sp 32 +
STACK CFI 3ce04 .cfa: x29 32 + x19: .cfa -16 + ^ .ra: .cfa -24 + ^ x29: .cfa -32 + ^
STACK CFI 3ce20 .cfa: sp 32 +
STACK CFI 3ce28 .cfa: sp 0 +
STACK CFI INIT 3ce2c 14 .cfa: sp 0 +
STACK CFI INIT 3ce40 4 .cfa: sp 0 +
STACK CFI INIT 3ce44 4 .cfa: sp 0 +
STACK CFI INIT 3ce48 8c .cfa: sp 0 +
STACK CFI 3ce4c .cfa: sp 80 +
STACK CFI 3ce5c .cfa: x29 48 + x19: .cfa -8 + ^ x20: .cfa -16 + ^ x21: .cfa -32 + ^ .ra: .cfa -40 + ^ x29: .cfa -48 + ^
STACK CFI 3cebc .cfa: sp 80 +
STACK CFI 3cecc .cfa: sp 0 +
STACK CFI 3ced0 .cfa: x29 48 +
STACK CFI INIT 3ced4 1c .cfa: sp 0 +
STACK CFI INIT 3cef0 c .cfa: sp 0 +
STACK CFI INIT 3cefc 4 .cfa: sp 0 +
STACK CFI INIT 3cf00 34 .cfa: sp 0 +
STACK CFI 3cf04 .cfa: sp 32 +
STACK CFI 3cf0c .cfa: x29 32 + x19: .cfa -16 + ^ .ra: .cfa -24 + ^ x29: .cfa -32 + ^
STACK CFI 3cf28 .cfa: sp 32 +
STACK CFI 3cf30 .cfa: sp 0 +
STACK CFI INIT 3cf34 14 .cfa: sp 0 +
STACK CFI INIT 3cf48 4 .cfa: sp 0 +
STACK CFI INIT 3cf4c 4 .cfa: sp 0 +
STACK CFI INIT 3cf50 8c .cfa: sp 0 +
STACK CFI 3cf54 .cfa: sp 80 +
STACK CFI 3cf64 .cfa: x29 48 + x19: .cfa -8 + ^ x20: .cfa -16 + ^ x21: .cfa -32 + ^ .ra: .cfa -40 + ^ x29: .cfa -48 + ^
STACK CFI 3cfc4 .cfa: sp 80 +
STACK CFI 3cfd4 .cfa: sp 0 +
STACK CFI 3cfd8 .cfa: x29 48 +
STACK CFI INIT 3cfdc 1c .cfa: sp 0 +
STACK CFI INIT 3cff8 c .cfa: sp 0 +
STACK CFI INIT 3d004 4 .cfa: sp 0 +
STACK CFI INIT 3d008 34 .cfa: sp 0 +
STACK CFI 3d00c .cfa: sp 32 +
STACK CFI 3d014 .cfa: x29 32 + x19: .cfa -16 + ^ .ra: .cfa -24 + ^ x29: .cfa -32 + ^
STACK CFI 3d030 .cfa: sp 32 +
STACK CFI 3d038 .cfa: sp 0 +
STACK CFI INIT 3d03c 14 .cfa: sp 0 +
STACK CFI INIT 3d050 4 .cfa: sp 0 +
STACK CFI INIT 3d054 4 .cfa: sp 0 +
STACK CFI INIT 3d058 8c .cfa: sp 0 +
STACK CFI 3d05c .cfa: sp 80 +
STACK CFI 3d06c .cfa: x29 48 + x19: .cfa -8 + ^ x20: .cfa -16 + ^ x21: .cfa -32 + ^ .ra: .cfa -40 + ^ x29: .cfa -48 + ^
STACK CFI 3d0cc .cfa: sp 80 +
STACK CFI 3d0dc .cfa: sp 0 +
STACK CFI 3d0e0 .cfa: x29 48 +
STACK CFI INIT 3d0e4 1c .cfa: sp 0 +
STACK CFI INIT 3d100 c .cfa: sp 0 +
STACK CFI INIT 3d10c 4 .cfa: sp 0 +
STACK CFI INIT 3d110 4 .cfa: sp 0 +
STACK CFI INIT 3d114 34 .cfa: sp 0 +
STACK CFI 3d118 .cfa: sp 32 +
STACK CFI 3d120 .cfa: x29 32 + x19: .cfa -16 + ^ .ra: .cfa -24 + ^ x29: .cfa -32 + ^
STACK CFI 3d13c .cfa: sp 32 +
STACK CFI 3d144 .cfa: sp 0 +
STACK CFI INIT 3d148 14 .cfa: sp 0 +
STACK CFI INIT 3d15c 4 .cfa: sp 0 +
STACK CFI INIT 3d160 4 .cfa: sp 0 +
STACK CFI INIT 3d164 8c .cfa: sp 0 +
STACK CFI 3d168 .cfa: sp 80 +
STACK CFI 3d178 .cfa: x29 48 + x19: .cfa -8 + ^ x20: .cfa -16 + ^ x21: .cfa -32 + ^ .ra: .cfa -40 + ^ x29: .cfa -48 + ^
STACK CFI 3d1d8 .cfa: sp 80 +
STACK CFI 3d1e8 .cfa: sp 0 +
STACK CFI 3d1ec .cfa: x29 48 +
STACK CFI INIT 3d1f0 1c .cfa: sp 0 +
STACK CFI INIT 3d20c c .cfa: sp 0 +
STACK CFI INIT 40118 b8 .cfa: sp 0 +
STACK CFI 4011c .cfa: sp 64 +
STACK CFI 4012c .cfa: x29 48 + x19: .cfa -8 + ^ x20: .cfa -16 + ^ x21: .cfa -32 + ^ .ra: .cfa -40 + ^ x29: .cfa -48 + ^
STACK CFI 401b8 .cfa: sp 64 +
STACK CFI 401c8 .cfa: sp 0 +
STACK CFI 401cc .cfa: x29 48 +
STACK CFI INIT 403a0 b8 .cfa: sp 0 +
STACK CFI 403a4 .cfa: sp 64 +
STACK CFI 403b4 .cfa: x29 48 + x19: .cfa -8 + ^ x20: .cfa -16 + ^ x21: .cfa -32 + ^ .ra: .cfa -40 + ^ x29: .cfa -48 + ^
STACK CFI 40440 .cfa: sp 64 +
STACK CFI 40450 .cfa: sp 0 +
STACK CFI 40454 .cfa: x29 48 +
STACK CFI INIT 40458 b8 .cfa: sp 0 +
STACK CFI 4045c .cfa: sp 64 +
STACK CFI 4046c .cfa: x29 48 + x19: .cfa -8 + ^ x20: .cfa -16 + ^ x21: .cfa -32 + ^ .ra: .cfa -40 + ^ x29: .cfa -48 + ^
STACK CFI 404f8 .cfa: sp 64 +
STACK CFI 40508 .cfa: sp 0 +
STACK CFI 4050c .cfa: x29 48 +
STACK CFI INIT 40510 b8 .cfa: sp 0 +
STACK CFI 40514 .cfa: sp 64 +
STACK CFI 40524 .cfa: x29 48 + x19: .cfa -8 + ^ x20: .cfa -16 + ^ x21: .cfa -32 + ^ .ra: .cfa -40 + ^ x29: .cfa -48 + ^
STACK CFI 405b0 .cfa: sp 64 +
STACK CFI 405c0 .cfa: sp 0 +
STACK CFI 405c4 .cfa: x29 48 +
STACK CFI INIT 405c8 b8 .cfa: sp 0 +
STACK CFI 405cc .cfa: sp 64 +
STACK CFI 405dc .cfa: x29 48 + x19: .cfa -8 + ^ x20: .cfa -16 + ^ x21: .cfa -32 + ^ .ra: .cfa -40 + ^ x29: .cfa -48 + ^
STACK CFI 40668 .cfa: sp 64 +
STACK CFI 40678 .cfa: sp 0 +
STACK CFI 4067c .cfa: x29 48 +
STACK CFI INIT 40680 b8 .cfa: sp 0 +
STACK CFI 40684 .cfa: sp 64 +
STACK CFI 40694 .cfa: x29 48 + x19: .cfa -8 + ^ x20: .cfa -16 + ^ x21: .cfa -32 + ^ .ra: .cfa -40 + ^ x29: .cfa -48 + ^
STACK CFI 40720 .cfa: sp 64 +
STACK CFI 40730 .cfa: sp 0 +
STACK CFI 40734 .cfa: x29 48 +
STACK CFI INIT 40738 b8 .cfa: sp 0 +
STACK CFI 4073c .cfa: sp 64 +
STACK CFI 4074c .cfa: x29 48 + x19: .cfa -8 + ^ x20: .cfa -16 + ^ x21: .cfa -32 + ^ .ra: .cfa -40 + ^ x29: .cfa -48 + ^
STACK CFI 407d8 .cfa: sp 64 +
STACK CFI 407e8 .cfa: sp 0 +
STACK CFI 407ec .cfa: x29 48 +
STACK CFI INIT 407f0 b8 .cfa: sp 0 +
STACK CFI 407f4 .cfa: sp 64 +
STACK CFI 40804 .cfa: x29 48 + x19: .cfa -8 + ^ x20: .cfa -16 + ^ x21: .cfa -32 + ^ .ra: .cfa -40 + ^ x29: .cfa -48 + ^
STACK CFI 40890 .cfa: sp 64 +
STACK CFI 408a0 .cfa: sp 0 +
STACK CFI 408a4 .cfa: x29 48 +
STACK CFI INIT 408a8 b8 .cfa: sp 0 +
STACK CFI 408ac .cfa: sp 64 +
STACK CFI 408bc .cfa: x29 48 + x19: .cfa -8 + ^ x20: .cfa -16 + ^ x21: .cfa -32 + ^ .ra: .cfa -40 + ^ x29: .cfa -48 + ^
STACK CFI 40948 .cfa: sp 64 +
STACK CFI 40958 .cfa: sp 0 +
STACK CFI 4095c .cfa: x29 48 +
STACK CFI INIT 40960 b8 .cfa: sp 0 +
STACK CFI 40964 .cfa: sp 64 +
STACK CFI 40974 .cfa: x29 48 + x19: .cfa -8 + ^ x20: .cfa -16 + ^ x21: .cfa -32 + ^ .ra: .cfa -40 + ^ x29: .cfa -48 + ^
STACK CFI 40a00 .cfa: sp 64 +
STACK CFI 40a10 .cfa: sp 0 +
STACK CFI 40a14 .cfa: x29 48 +
STACK CFI INIT 40abc 24 .cfa: sp 0 +
STACK CFI 40ac0 .cfa: sp 32 +
STACK CFI 40ac8 .cfa: x29 32 + x19: .cfa -16 + ^ .ra: .cfa -24 + ^ x29: .cfa -32 + ^
STACK CFI 40ad4 .cfa: sp 32 +
STACK CFI 40adc .cfa: sp 0 +
STACK CFI INIT 40ae0 4 .cfa: sp 0 +
STACK CFI INIT 40ae4 8 .cfa: sp 0 +
STACK CFI INIT 40aec 8 .cfa: sp 0 +
STACK CFI INIT 40af4 8 .cfa: sp 0 +
STACK CFI INIT 40afc 8 .cfa: sp 0 +
STACK CFI INIT 40b04 28 .cfa: sp 0 +
STACK CFI 40b08 .cfa: sp 32 +
STACK CFI 40b10 .cfa: x29 32 + x19: .cfa -16 + ^ .ra: .cfa -24 + ^ x29: .cfa -32 + ^
STACK CFI 40b20 .cfa: sp 32 +
STACK CFI 40b28 .cfa: sp 0 +
STACK CFI INIT 40b2c 4 .cfa: sp 0 +
STACK CFI INIT 40b30 8 .cfa: sp 0 +
STACK CFI INIT 40cb4 4 .cfa: sp 0 +
STACK CFI INIT 40cb8 14 .cfa: sp 0 +
STACK CFI INIT 40ccc 4 .cfa: sp 0 +
STACK CFI INIT 40cd0 34 .cfa: sp 0 +
STACK CFI 40cd4 .cfa: sp 32 +
STACK CFI 40cdc .cfa: x29 32 + x19: .cfa -16 + ^ .ra: .cfa -24 + ^ x29: .cfa -32 + ^
STACK CFI 40cf8 .cfa: sp 32 +
STACK CFI 40d00 .cfa: sp 0 +
STACK CFI INIT 40d04 14 .cfa: sp 0 +
STACK CFI INIT 40d18 4 .cfa: sp 0 +
STACK CFI INIT 40d1c 4 .cfa: sp 0 +
STACK CFI INIT 40d20 8c .cfa: sp 0 +
STACK CFI 40d24 .cfa: sp 80 +
STACK CFI 40d34 .cfa: x29 48 + x19: .cfa -8 + ^ x20: .cfa -16 + ^ x21: .cfa -32 + ^ .ra: .cfa -40 + ^ x29: .cfa -48 + ^
STACK CFI 40d94 .cfa: sp 80 +
STACK CFI 40da4 .cfa: sp 0 +
STACK CFI 40da8 .cfa: x29 48 +
STACK CFI INIT 40dac 1c .cfa: sp 0 +
STACK CFI INIT 40dc8 c .cfa: sp 0 +
STACK CFI INIT 40dd4 4 .cfa: sp 0 +
STACK CFI INIT 40dd8 34 .cfa: sp 0 +
STACK CFI 40ddc .cfa: sp 32 +
STACK CFI 40de4 .cfa: x29 32 + x19: .cfa -16 + ^ .ra: .cfa -24 + ^ x29: .cfa -32 + ^
STACK CFI 40e00 .cfa: sp 32 +
STACK CFI 40e08 .cfa: sp 0 +
STACK CFI INIT 40e0c 14 .cfa: sp 0 +
STACK CFI INIT 40e20 4 .cfa: sp 0 +
STACK CFI INIT 40e24 4 .cfa: sp 0 +
STACK CFI INIT 40e28 8c .cfa: sp 0 +
STACK CFI 40e2c .cfa: sp 80 +
STACK CFI 40e3c .cfa: x29 48 + x19: .cfa -8 + ^ x20: .cfa -16 + ^ x21: .cfa -32 + ^ .ra: .cfa -40 + ^ x29: .cfa -48 + ^
STACK CFI 40e9c .cfa: sp 80 +
STACK CFI 40eac .cfa: sp 0 +
STACK CFI 40eb0 .cfa: x29 48 +
STACK CFI INIT 40eb4 1c .cfa: sp 0 +
STACK CFI INIT 40ed0 c .cfa: sp 0 +
STACK CFI INIT 40edc 4 .cfa: sp 0 +
STACK CFI INIT 40ee0 34 .cfa: sp 0 +
STACK CFI 40ee4 .cfa: sp 32 +
STACK CFI 40eec .cfa: x29 32 + x19: .cfa -16 + ^ .ra: .cfa -24 + ^ x29: .cfa -32 + ^
STACK CFI 40f08 .cfa: sp 32 +
STACK CFI 40f10 .cfa: sp 0 +
STACK CFI INIT 40f14 14 .cfa: sp 0 +
STACK CFI INIT 40f28 4 .cfa: sp 0 +
STACK CFI INIT 40f2c 4 .cfa: sp 0 +
STACK CFI INIT 40f30 8c .cfa: sp 0 +
STACK CFI 40f34 .cfa: sp 80 +
STACK CFI 40f44 .cfa: x29 48 + x19: .cfa -8 + ^ x20: .cfa -16 + ^ x21: .cfa -32 + ^ .ra: .cfa -40 + ^ x29: .cfa -48 + ^
STACK CFI 40fa4 .cfa: sp 80 +
STACK CFI 40fb4 .cfa: sp 0 +
STACK CFI 40fb8 .cfa: x29 48 +
STACK CFI INIT 40fbc 1c .cfa: sp 0 +
STACK CFI INIT 40fd8 c .cfa: sp 0 +
STACK CFI INIT 40fe4 4 .cfa: sp 0 +
STACK CFI INIT 40fe8 34 .cfa: sp 0 +
STACK CFI 40fec .cfa: sp 32 +
STACK CFI 40ff4 .cfa: x29 32 + x19: .cfa -16 + ^ .ra: .cfa -24 + ^ x29: .cfa -32 + ^
STACK CFI 41010 .cfa: sp 32 +
STACK CFI 41018 .cfa: sp 0 +
STACK CFI INIT 4101c 14 .cfa: sp 0 +
STACK CFI INIT 41030 4 .cfa: sp 0 +
STACK CFI INIT 41034 4 .cfa: sp 0 +
STACK CFI INIT 41038 8c .cfa: sp 0 +
STACK CFI 4103c .cfa: sp 80 +
STACK CFI 4104c .cfa: x29 48 + x19: .cfa -8 + ^ x20: .cfa -16 + ^ x21: .cfa -32 + ^ .ra: .cfa -40 + ^ x29: .cfa -48 + ^
STACK CFI 410ac .cfa: sp 80 +
STACK CFI 410bc .cfa: sp 0 +
STACK CFI 410c0 .cfa: x29 48 +
STACK CFI INIT 410c4 1c .cfa: sp 0 +
STACK CFI INIT 410e0 c .cfa: sp 0 +
STACK CFI INIT 410ec 4 .cfa: sp 0 +
STACK CFI INIT 410f0 34 .cfa: sp 0 +
STACK CFI 410f4 .cfa: sp 32 +
STACK CFI 410fc .cfa: x29 32 + x19: .cfa -16 + ^ .ra: .cfa -24 + ^ x29: .cfa -32 + ^
STACK CFI 41118 .cfa: sp 32 +
STACK CFI 41120 .cfa: sp 0 +
STACK CFI INIT 41124 14 .cfa: sp 0 +
STACK CFI INIT 41138 4 .cfa: sp 0 +
STACK CFI INIT 4113c 4 .cfa: sp 0 +
STACK CFI INIT 41140 8c .cfa: sp 0 +
STACK CFI 41144 .cfa: sp 80 +
STACK CFI 41154 .cfa: x29 48 + x19: .cfa -8 + ^ x20: .cfa -16 + ^ x21: .cfa -32 + ^ .ra: .cfa -40 + ^ x29: .cfa -48 + ^
STACK CFI 411b4 .cfa: sp 80 +
STACK CFI 411c4 .cfa: sp 0 +
STACK CFI 411c8 .cfa: x29 48 +
STACK CFI INIT 411cc 1c .cfa: sp 0 +
STACK CFI INIT 411e8 c .cfa: sp 0 +
STACK CFI INIT 411f4 4 .cfa: sp 0 +
STACK CFI INIT 411f8 34 .cfa: sp 0 +
STACK CFI 411fc .cfa: sp 32 +
STACK CFI 41204 .cfa: x29 32 + x19: .cfa -16 + ^ .ra: .cfa -24 + ^ x29: .cfa -32 + ^
STACK CFI 41220 .cfa: sp 32 +
STACK CFI 41228 .cfa: sp 0 +
STACK CFI INIT 4122c 14 .cfa: sp 0 +
STACK CFI INIT 41240 4 .cfa: sp 0 +
STACK CFI INIT 41244 4 .cfa: sp 0 +
STACK CFI INIT 41248 8c .cfa: sp 0 +
STACK CFI 4124c .cfa: sp 80 +
STACK CFI 4125c .cfa: x29 48 + x19: .cfa -8 + ^ x20: .cfa -16 + ^ x21: .cfa -32 + ^ .ra: .cfa -40 + ^ x29: .cfa -48 + ^
STACK CFI 412bc .cfa: sp 80 +
STACK CFI 412cc .cfa: sp 0 +
STACK CFI 412d0 .cfa: x29 48 +
STACK CFI INIT 412d4 1c .cfa: sp 0 +
STACK CFI INIT 412f0 c .cfa: sp 0 +
STACK CFI INIT 412fc 4 .cfa: sp 0 +
STACK CFI INIT 41300 34 .cfa: sp 0 +
STACK CFI 41304 .cfa: sp 32 +
STACK CFI 4130c .cfa: x29 32 + x19: .cfa -16 + ^ .ra: .cfa -24 + ^ x29: .cfa -32 + ^
STACK CFI 41328 .cfa: sp 32 +
STACK CFI 41330 .cfa: sp 0 +
STACK CFI INIT 41334 14 .cfa: sp 0 +
STACK CFI INIT 41348 4 .cfa: sp 0 +
STACK CFI INIT 4134c 4 .cfa: sp 0 +
STACK CFI INIT 41350 8c .cfa: sp 0 +
STACK CFI 41354 .cfa: sp 80 +
STACK CFI 41364 .cfa: x29 48 + x19: .cfa -8 + ^ x20: .cfa -16 + ^ x21: .cfa -32 + ^ .ra: .cfa -40 + ^ x29: .cfa -48 + ^
STACK CFI 413c4 .cfa: sp 80 +
STACK CFI 413d4 .cfa: sp 0 +
STACK CFI 413d8 .cfa: x29 48 +
STACK CFI INIT 413dc 1c .cfa: sp 0 +
STACK CFI INIT 413f8 c .cfa: sp 0 +
STACK CFI INIT 41404 4 .cfa: sp 0 +
STACK CFI INIT 41408 34 .cfa: sp 0 +
STACK CFI 4140c .cfa: sp 32 +
STACK CFI 41414 .cfa: x29 32 + x19: .cfa -16 + ^ .ra: .cfa -24 + ^ x29: .cfa -32 + ^
STACK CFI 41430 .cfa: sp 32 +
STACK CFI 41438 .cfa: sp 0 +
STACK CFI INIT 4143c 14 .cfa: sp 0 +
STACK CFI INIT 41450 4 .cfa: sp 0 +
STACK CFI INIT 41454 4 .cfa: sp 0 +
STACK CFI INIT 41458 8c .cfa: sp 0 +
STACK CFI 4145c .cfa: sp 80 +
STACK CFI 4146c .cfa: x29 48 + x19: .cfa -8 + ^ x20: .cfa -16 + ^ x21: .cfa -32 + ^ .ra: .cfa -40 + ^ x29: .cfa -48 + ^
STACK CFI 414cc .cfa: sp 80 +
STACK CFI 414dc .cfa: sp 0 +
STACK CFI 414e0 .cfa: x29 48 +
STACK CFI INIT 414e4 1c .cfa: sp 0 +
STACK CFI INIT 41500 c .cfa: sp 0 +
STACK CFI INIT 4150c 4 .cfa: sp 0 +
STACK CFI INIT 41510 34 .cfa: sp 0 +
STACK CFI 41514 .cfa: sp 32 +
STACK CFI 4151c .cfa: x29 32 + x19: .cfa -16 + ^ .ra: .cfa -24 + ^ x29: .cfa -32 + ^
STACK CFI 41538 .cfa: sp 32 +
STACK CFI 41540 .cfa: sp 0 +
STACK CFI INIT 41544 14 .cfa: sp 0 +
STACK CFI INIT 41558 4 .cfa: sp 0 +
STACK CFI INIT 4155c 4 .cfa: sp 0 +
STACK CFI INIT 41560 8c .cfa: sp 0 +
STACK CFI 41564 .cfa: sp 80 +
STACK CFI 41574 .cfa: x29 48 + x19: .cfa -8 + ^ x20: .cfa -16 + ^ x21: .cfa -32 + ^ .ra: .cfa -40 + ^ x29: .cfa -48 + ^
STACK CFI 415d4 .cfa: sp 80 +
STACK CFI 415e4 .cfa: sp 0 +
STACK CFI 415e8 .cfa: x29 48 +
STACK CFI INIT 415ec 1c .cfa: sp 0 +
STACK CFI INIT 41608 c .cfa: sp 0 +
STACK CFI INIT 41614 4 .cfa: sp 0 +
STACK CFI INIT 41618 34 .cfa: sp 0 +
STACK CFI 4161c .cfa: sp 32 +
STACK CFI 41624 .cfa: x29 32 + x19: .cfa -16 + ^ .ra: .cfa -24 + ^ x29: .cfa -32 + ^
STACK CFI 41640 .cfa: sp 32 +
STACK CFI 41648 .cfa: sp 0 +
STACK CFI INIT 4164c 14 .cfa: sp 0 +
STACK CFI INIT 41660 4 .cfa: sp 0 +
STACK CFI INIT 41664 4 .cfa: sp 0 +
STACK CFI INIT 41668 8c .cfa: sp 0 +
STACK CFI 4166c .cfa: sp 80 +
STACK CFI 4167c .cfa: x29 48 + x19: .cfa -8 + ^ x20: .cfa -16 + ^ x21: .cfa -32 + ^ .ra: .cfa -40 + ^ x29: .cfa -48 + ^
STACK CFI 416dc .cfa: sp 80 +
STACK CFI 416ec .cfa: sp 0 +
STACK CFI 416f0 .cfa: x29 48 +
STACK CFI INIT 416f4 1c .cfa: sp 0 +
STACK CFI INIT 41710 c .cfa: sp 0 +
STACK CFI INIT 4171c 4 .cfa: sp 0 +
STACK CFI INIT 41720 34 .cfa: sp 0 +
STACK CFI 41724 .cfa: sp 32 +
STACK CFI 4172c .cfa: x29 32 + x19: .cfa -16 + ^ .ra: .cfa -24 + ^ x29: .cfa -32 + ^
STACK CFI 41748 .cfa: sp 32 +
STACK CFI 41750 .cfa: sp 0 +
STACK CFI INIT 41754 14 .cfa: sp 0 +
STACK CFI INIT 41768 4 .cfa: sp 0 +
STACK CFI INIT 4176c 4 .cfa: sp 0 +
STACK CFI INIT 41770 8c .cfa: sp 0 +
STACK CFI 41774 .cfa: sp 80 +
STACK CFI 41784 .cfa: x29 48 + x19: .cfa -8 + ^ x20: .cfa -16 + ^ x21: .cfa -32 + ^ .ra: .cfa -40 + ^ x29: .cfa -48 + ^
STACK CFI 417e4 .cfa: sp 80 +
STACK CFI 417f4 .cfa: sp 0 +
STACK CFI 417f8 .cfa: x29 48 +
STACK CFI INIT 417fc 1c .cfa: sp 0 +
STACK CFI INIT 41818 c .cfa: sp 0 +
STACK CFI INIT 41824 4 .cfa: sp 0 +
STACK CFI INIT 41828 34 .cfa: sp 0 +
STACK CFI 4182c .cfa: sp 32 +
STACK CFI 41834 .cfa: x29 32 + x19: .cfa -16 + ^ .ra: .cfa -24 + ^ x29: .cfa -32 + ^
STACK CFI 41850 .cfa: sp 32 +
STACK CFI 41858 .cfa: sp 0 +
STACK CFI INIT 4185c 14 .cfa: sp 0 +
STACK CFI INIT 41870 4 .cfa: sp 0 +
STACK CFI INIT 41874 4 .cfa: sp 0 +
STACK CFI INIT 41878 8c .cfa: sp 0 +
STACK CFI 4187c .cfa: sp 80 +
STACK CFI 4188c .cfa: x29 48 + x19: .cfa -8 + ^ x20: .cfa -16 + ^ x21: .cfa -32 + ^ .ra: .cfa -40 + ^ x29: .cfa -48 + ^
STACK CFI 418ec .cfa: sp 80 +
STACK CFI 418fc .cfa: sp 0 +
STACK CFI 41900 .cfa: x29 48 +
STACK CFI INIT 41904 1c .cfa: sp 0 +
STACK CFI INIT 41920 c .cfa: sp 0 +
STACK CFI INIT 4192c 4 .cfa: sp 0 +
STACK CFI INIT 41930 34 .cfa: sp 0 +
STACK CFI 41934 .cfa: sp 32 +
STACK CFI 4193c .cfa: x29 32 + x19: .cfa -16 + ^ .ra: .cfa -24 + ^ x29: .cfa -32 + ^
STACK CFI 41958 .cfa: sp 32 +
STACK CFI 41960 .cfa: sp 0 +
STACK CFI INIT 41964 14 .cfa: sp 0 +
STACK CFI INIT 41978 4 .cfa: sp 0 +
STACK CFI INIT 4197c 4 .cfa: sp 0 +
STACK CFI INIT 41980 8c .cfa: sp 0 +
STACK CFI 41984 .cfa: sp 80 +
STACK CFI 41994 .cfa: x29 48 + x19: .cfa -8 + ^ x20: .cfa -16 + ^ x21: .cfa -32 + ^ .ra: .cfa -40 + ^ x29: .cfa -48 + ^
STACK CFI 419f4 .cfa: sp 80 +
STACK CFI 41a04 .cfa: sp 0 +
STACK CFI 41a08 .cfa: x29 48 +
STACK CFI INIT 41a0c 1c .cfa: sp 0 +
STACK CFI INIT 41a28 c .cfa: sp 0 +
STACK CFI INIT 41a34 4 .cfa: sp 0 +
STACK CFI INIT 41a38 34 .cfa: sp 0 +
STACK CFI 41a3c .cfa: sp 32 +
STACK CFI 41a44 .cfa: x29 32 + x19: .cfa -16 + ^ .ra: .cfa -24 + ^ x29: .cfa -32 + ^
STACK CFI 41a60 .cfa: sp 32 +
STACK CFI 41a68 .cfa: sp 0 +
STACK CFI INIT 41a6c 14 .cfa: sp 0 +
STACK CFI INIT 41a80 4 .cfa: sp 0 +
STACK CFI INIT 41a84 4 .cfa: sp 0 +
STACK CFI INIT 41a88 8c .cfa: sp 0 +
STACK CFI 41a8c .cfa: sp 80 +
STACK CFI 41a9c .cfa: x29 48 + x19: .cfa -8 + ^ x20: .cfa -16 + ^ x21: .cfa -32 + ^ .ra: .cfa -40 + ^ x29: .cfa -48 + ^
STACK CFI 41afc .cfa: sp 80 +
STACK CFI 41b0c .cfa: sp 0 +
STACK CFI 41b10 .cfa: x29 48 +
STACK CFI INIT 41b14 1c .cfa: sp 0 +
STACK CFI INIT 41b30 c .cfa: sp 0 +
STACK CFI INIT 41b3c 4 .cfa: sp 0 +
STACK CFI INIT 41b40 34 .cfa: sp 0 +
STACK CFI 41b44 .cfa: sp 32 +
STACK CFI 41b4c .cfa: x29 32 + x19: .cfa -16 + ^ .ra: .cfa -24 + ^ x29: .cfa -32 + ^
STACK CFI 41b68 .cfa: sp 32 +
STACK CFI 41b70 .cfa: sp 0 +
STACK CFI INIT 41b74 14 .cfa: sp 0 +
STACK CFI INIT 41b88 4 .cfa: sp 0 +
STACK CFI INIT 41b8c 4 .cfa: sp 0 +
STACK CFI INIT 41b90 8c .cfa: sp 0 +
STACK CFI 41b94 .cfa: sp 80 +
STACK CFI 41ba4 .cfa: x29 48 + x19: .cfa -8 + ^ x20: .cfa -16 + ^ x21: .cfa -32 + ^ .ra: .cfa -40 + ^ x29: .cfa -48 + ^
STACK CFI 41c04 .cfa: sp 80 +
STACK CFI 41c14 .cfa: sp 0 +
STACK CFI 41c18 .cfa: x29 48 +
STACK CFI INIT 41c1c 1c .cfa: sp 0 +
STACK CFI INIT 41c38 c .cfa: sp 0 +
STACK CFI INIT 41c44 4 .cfa: sp 0 +
STACK CFI INIT 41c48 34 .cfa: sp 0 +
STACK CFI 41c4c .cfa: sp 32 +
STACK CFI 41c54 .cfa: x29 32 + x19: .cfa -16 + ^ .ra: .cfa -24 + ^ x29: .cfa -32 + ^
STACK CFI 41c70 .cfa: sp 32 +
STACK CFI 41c78 .cfa: sp 0 +
STACK CFI INIT 41c7c 14 .cfa: sp 0 +
STACK CFI INIT 41c90 4 .cfa: sp 0 +
STACK CFI INIT 41c94 4 .cfa: sp 0 +
STACK CFI INIT 41c98 8c .cfa: sp 0 +
STACK CFI 41c9c .cfa: sp 80 +
STACK CFI 41cac .cfa: x29 48 + x19: .cfa -8 + ^ x20: .cfa -16 + ^ x21: .cfa -32 + ^ .ra: .cfa -40 + ^ x29: .cfa -48 + ^
STACK CFI 41d0c .cfa: sp 80 +
STACK CFI 41d1c .cfa: sp 0 +
STACK CFI 41d20 .cfa: x29 48 +
STACK CFI INIT 41d24 1c .cfa: sp 0 +
STACK CFI INIT 41d40 c .cfa: sp 0 +
STACK CFI INIT 41d4c 4 .cfa: sp 0 +
STACK CFI INIT 41d50 34 .cfa: sp 0 +
STACK CFI 41d54 .cfa: sp 32 +
STACK CFI 41d5c .cfa: x29 32 + x19: .cfa -16 + ^ .ra: .cfa -24 + ^ x29: .cfa -32 + ^
STACK CFI 41d78 .cfa: sp 32 +
STACK CFI 41d80 .cfa: sp 0 +
STACK CFI INIT 41d84 14 .cfa: sp 0 +
STACK CFI INIT 41d98 4 .cfa: sp 0 +
STACK CFI INIT 41d9c 4 .cfa: sp 0 +
STACK CFI INIT 41da0 8c .cfa: sp 0 +
STACK CFI 41da4 .cfa: sp 80 +
STACK CFI 41db4 .cfa: x29 48 + x19: .cfa -8 + ^ x20: .cfa -16 + ^ x21: .cfa -32 + ^ .ra: .cfa -40 + ^ x29: .cfa -48 + ^
STACK CFI 41e14 .cfa: sp 80 +
STACK CFI 41e24 .cfa: sp 0 +
STACK CFI 41e28 .cfa: x29 48 +
STACK CFI INIT 41e2c 1c .cfa: sp 0 +
STACK CFI INIT 41e48 c .cfa: sp 0 +
STACK CFI INIT 41e54 4 .cfa: sp 0 +
STACK CFI INIT 41e58 34 .cfa: sp 0 +
STACK CFI 41e5c .cfa: sp 32 +
STACK CFI 41e64 .cfa: x29 32 + x19: .cfa -16 + ^ .ra: .cfa -24 + ^ x29: .cfa -32 + ^
STACK CFI 41e80 .cfa: sp 32 +
STACK CFI 41e88 .cfa: sp 0 +
STACK CFI INIT 41e8c 14 .cfa: sp 0 +
STACK CFI INIT 41ea0 4 .cfa: sp 0 +
STACK CFI INIT 41ea4 4 .cfa: sp 0 +
STACK CFI INIT 41ea8 8c .cfa: sp 0 +
STACK CFI 41eac .cfa: sp 80 +
STACK CFI 41ebc .cfa: x29 48 + x19: .cfa -8 + ^ x20: .cfa -16 + ^ x21: .cfa -32 + ^ .ra: .cfa -40 + ^ x29: .cfa -48 + ^
STACK CFI 41f1c .cfa: sp 80 +
STACK CFI 41f2c .cfa: sp 0 +
STACK CFI 41f30 .cfa: x29 48 +
STACK CFI INIT 41f34 1c .cfa: sp 0 +
STACK CFI INIT 41f50 c .cfa: sp 0 +
STACK CFI INIT 41f5c 4 .cfa: sp 0 +
STACK CFI INIT 41f60 34 .cfa: sp 0 +
STACK CFI 41f64 .cfa: sp 32 +
STACK CFI 41f6c .cfa: x29 32 + x19: .cfa -16 + ^ .ra: .cfa -24 + ^ x29: .cfa -32 + ^
STACK CFI 41f88 .cfa: sp 32 +
STACK CFI 41f90 .cfa: sp 0 +
STACK CFI INIT 41f94 14 .cfa: sp 0 +
STACK CFI INIT 41fa8 4 .cfa: sp 0 +
STACK CFI INIT 41fac 4 .cfa: sp 0 +
STACK CFI INIT 41fb0 8c .cfa: sp 0 +
STACK CFI 41fb4 .cfa: sp 80 +
STACK CFI 41fc4 .cfa: x29 48 + x19: .cfa -8 + ^ x20: .cfa -16 + ^ x21: .cfa -32 + ^ .ra: .cfa -40 + ^ x29: .cfa -48 + ^
STACK CFI 42024 .cfa: sp 80 +
STACK CFI 42034 .cfa: sp 0 +
STACK CFI 42038 .cfa: x29 48 +
STACK CFI INIT 4203c 1c .cfa: sp 0 +
STACK CFI INIT 42058 c .cfa: sp 0 +
STACK CFI INIT 42064 4 .cfa: sp 0 +
STACK CFI INIT 42068 34 .cfa: sp 0 +
STACK CFI 4206c .cfa: sp 32 +
STACK CFI 42074 .cfa: x29 32 + x19: .cfa -16 + ^ .ra: .cfa -24 + ^ x29: .cfa -32 + ^
STACK CFI 42090 .cfa: sp 32 +
STACK CFI 42098 .cfa: sp 0 +
STACK CFI INIT 4209c 14 .cfa: sp 0 +
STACK CFI INIT 420b0 4 .cfa: sp 0 +
STACK CFI INIT 420b4 4 .cfa: sp 0 +
STACK CFI INIT 420b8 8c .cfa: sp 0 +
STACK CFI 420bc .cfa: sp 80 +
STACK CFI 420cc .cfa: x29 48 + x19: .cfa -8 + ^ x20: .cfa -16 + ^ x21: .cfa -32 + ^ .ra: .cfa -40 + ^ x29: .cfa -48 + ^
STACK CFI 4212c .cfa: sp 80 +
STACK CFI 4213c .cfa: sp 0 +
STACK CFI 42140 .cfa: x29 48 +
STACK CFI INIT 42144 1c .cfa: sp 0 +
STACK CFI INIT 42160 c .cfa: sp 0 +
STACK CFI INIT 44c10 b8 .cfa: sp 0 +
STACK CFI 44c14 .cfa: sp 64 +
STACK CFI 44c24 .cfa: x29 48 + x19: .cfa -8 + ^ x20: .cfa -16 + ^ x21: .cfa -32 + ^ .ra: .cfa -40 + ^ x29: .cfa -48 + ^
STACK CFI 44cb0 .cfa: sp 64 +
STACK CFI 44cc0 .cfa: sp 0 +
STACK CFI 44cc4 .cfa: x29 48 +
STACK CFI INIT 44cc8 b8 .cfa: sp 0 +
STACK CFI 44ccc .cfa: sp 64 +
STACK CFI 44cdc .cfa: x29 48 + x19: .cfa -8 + ^ x20: .cfa -16 + ^ x21: .cfa -32 + ^ .ra: .cfa -40 + ^ x29: .cfa -48 + ^
STACK CFI 44d68 .cfa: sp 64 +
STACK CFI 44d78 .cfa: sp 0 +
STACK CFI 44d7c .cfa: x29 48 +
STACK CFI INIT 44d80 b8 .cfa: sp 0 +
STACK CFI 44d84 .cfa: sp 64 +
STACK CFI 44d94 .cfa: x29 48 + x19: .cfa -8 + ^ x20: .cfa -16 + ^ x21: .cfa -32 + ^ .ra: .cfa -40 + ^ x29: .cfa -48 + ^
STACK CFI 44e20 .cfa: sp 64 +
STACK CFI 44e30 .cfa: sp 0 +
STACK CFI 44e34 .cfa: x29 48 +
STACK CFI INIT 44e38 b8 .cfa: sp 0 +
STACK CFI 44e3c .cfa: sp 64 +
STACK CFI 44e4c .cfa: x29 48 + x19: .cfa -8 + ^ x20: .cfa -16 + ^ x21: .cfa -32 + ^ .ra: .cfa -40 + ^ x29: .cfa -48 + ^
STACK CFI 44ed8 .cfa: sp 64 +
STACK CFI 44ee8 .cfa: sp 0 +
STACK CFI 44eec .cfa: x29 48 +
STACK CFI INIT 44ef0 b8 .cfa: sp 0 +
STACK CFI 44ef4 .cfa: sp 64 +
STACK CFI 44f04 .cfa: x29 48 + x19: .cfa -8 + ^ x20: .cfa -16 + ^ x21: .cfa -32 + ^ .ra: .cfa -40 + ^ x29: .cfa -48 + ^
STACK CFI 44f90 .cfa: sp 64 +
STACK CFI 44fa0 .cfa: sp 0 +
STACK CFI 44fa4 .cfa: x29 48 +
STACK CFI INIT 44fa8 b8 .cfa: sp 0 +
STACK CFI 44fac .cfa: sp 64 +
STACK CFI 44fbc .cfa: x29 48 + x19: .cfa -8 + ^ x20: .cfa -16 + ^ x21: .cfa -32 + ^ .ra: .cfa -40 + ^ x29: .cfa -48 + ^
STACK CFI 45048 .cfa: sp 64 +
STACK CFI 45058 .cfa: sp 0 +
STACK CFI 4505c .cfa: x29 48 +
STACK CFI INIT 45060 b8 .cfa: sp 0 +
STACK CFI 45064 .cfa: sp 64 +
STACK CFI 45074 .cfa: x29 48 + x19: .cfa -8 + ^ x20: .cfa -16 + ^ x21: .cfa -32 + ^ .ra: .cfa -40 + ^ x29: .cfa -48 + ^
STACK CFI 45100 .cfa: sp 64 +
STACK CFI 45110 .cfa: sp 0 +
STACK CFI 45114 .cfa: x29 48 +
STACK CFI INIT 45118 b8 .cfa: sp 0 +
STACK CFI 4511c .cfa: sp 64 +
STACK CFI 4512c .cfa: x29 48 + x19: .cfa -8 + ^ x20: .cfa -16 + ^ x21: .cfa -32 + ^ .ra: .cfa -40 + ^ x29: .cfa -48 + ^
STACK CFI 451b8 .cfa: sp 64 +
STACK CFI 451c8 .cfa: sp 0 +
STACK CFI 451cc .cfa: x29 48 +
STACK CFI INIT 451d0 b8 .cfa: sp 0 +
STACK CFI 451d4 .cfa: sp 64 +
STACK CFI 451e4 .cfa: x29 48 + x19: .cfa -8 + ^ x20: .cfa -16 + ^ x21: .cfa -32 + ^ .ra: .cfa -40 + ^ x29: .cfa -48 + ^
STACK CFI 45270 .cfa: sp 64 +
STACK CFI 45280 .cfa: sp 0 +
STACK CFI 45284 .cfa: x29 48 +
STACK CFI INIT 45288 b8 .cfa: sp 0 +
STACK CFI 4528c .cfa: sp 64 +
STACK CFI 4529c .cfa: x29 48 + x19: .cfa -8 + ^ x20: .cfa -16 + ^ x21: .cfa -32 + ^ .ra: .cfa -40 + ^ x29: .cfa -48 + ^
STACK CFI 45328 .cfa: sp 64 +
STACK CFI 45338 .cfa: sp 0 +
STACK CFI 4533c .cfa: x29 48 +
STACK CFI INIT 453e4 24 .cfa: sp 0 +
STACK CFI 453e8 .cfa: sp 32 +
STACK CFI 453f0 .cfa: x29 32 + x19: .cfa -16 + ^ .ra: .cfa -24 + ^ x29: .cfa -32 + ^
STACK CFI 453fc .cfa: sp 32 +
STACK CFI 45404 .cfa: sp 0 +
STACK CFI INIT 45408 8 .cfa: sp 0 +
STACK CFI INIT 45410 28 .cfa: sp 0 +
STACK CFI 45414 .cfa: sp 32 +
STACK CFI 4541c .cfa: x29 32 + x19: .cfa -16 + ^ .ra: .cfa -24 + ^ x29: .cfa -32 + ^
STACK CFI 4542c .cfa: sp 32 +
STACK CFI 45434 .cfa: sp 0 +
STACK CFI INIT 45438 4 .cfa: sp 0 +
STACK CFI INIT 4543c 34 .cfa: sp 0 +
STACK CFI 45440 .cfa: sp 32 +
STACK CFI 45448 .cfa: x29 32 + x19: .cfa -16 + ^ .ra: .cfa -24 + ^ x29: .cfa -32 + ^
STACK CFI 45464 .cfa: sp 32 +
STACK CFI 4546c .cfa: sp 0 +
STACK CFI INIT 45470 14 .cfa: sp 0 +
STACK CFI INIT 45484 4 .cfa: sp 0 +
STACK CFI INIT 45488 4 .cfa: sp 0 +
STACK CFI INIT 4548c 8c .cfa: sp 0 +
STACK CFI 45490 .cfa: sp 80 +
STACK CFI 454a0 .cfa: x29 48 + x19: .cfa -8 + ^ x20: .cfa -16 + ^ x21: .cfa -32 + ^ .ra: .cfa -40 + ^ x29: .cfa -48 + ^
STACK CFI 45500 .cfa: sp 80 +
STACK CFI 45510 .cfa: sp 0 +
STACK CFI 45514 .cfa: x29 48 +
STACK CFI INIT 45518 1c .cfa: sp 0 +
STACK CFI INIT 45534 c .cfa: sp 0 +
STACK CFI INIT 45540 4 .cfa: sp 0 +
STACK CFI INIT 45544 34 .cfa: sp 0 +
STACK CFI 45548 .cfa: sp 32 +
STACK CFI 45550 .cfa: x29 32 + x19: .cfa -16 + ^ .ra: .cfa -24 + ^ x29: .cfa -32 + ^
STACK CFI 4556c .cfa: sp 32 +
STACK CFI 45574 .cfa: sp 0 +
STACK CFI INIT 45578 14 .cfa: sp 0 +
STACK CFI INIT 4558c 4 .cfa: sp 0 +
STACK CFI INIT 45590 4 .cfa: sp 0 +
STACK CFI INIT 45594 8c .cfa: sp 0 +
STACK CFI 45598 .cfa: sp 80 +
STACK CFI 455a8 .cfa: x29 48 + x19: .cfa -8 + ^ x20: .cfa -16 + ^ x21: .cfa -32 + ^ .ra: .cfa -40 + ^ x29: .cfa -48 + ^
STACK CFI 45608 .cfa: sp 80 +
STACK CFI 45618 .cfa: sp 0 +
STACK CFI 4561c .cfa: x29 48 +
STACK CFI INIT 45620 1c .cfa: sp 0 +
STACK CFI INIT 4563c c .cfa: sp 0 +
STACK CFI INIT 45648 4 .cfa: sp 0 +
STACK CFI INIT 4564c 34 .cfa: sp 0 +
STACK CFI 45650 .cfa: sp 32 +
STACK CFI 45658 .cfa: x29 32 + x19: .cfa -16 + ^ .ra: .cfa -24 + ^ x29: .cfa -32 + ^
STACK CFI 45674 .cfa: sp 32 +
STACK CFI 4567c .cfa: sp 0 +
STACK CFI INIT 45680 14 .cfa: sp 0 +
STACK CFI INIT 45694 4 .cfa: sp 0 +
STACK CFI INIT 45698 4 .cfa: sp 0 +
STACK CFI INIT 4569c 8c .cfa: sp 0 +
STACK CFI 456a0 .cfa: sp 80 +
STACK CFI 456b0 .cfa: x29 48 + x19: .cfa -8 + ^ x20: .cfa -16 + ^ x21: .cfa -32 + ^ .ra: .cfa -40 + ^ x29: .cfa -48 + ^
STACK CFI 45710 .cfa: sp 80 +
STACK CFI 45720 .cfa: sp 0 +
STACK CFI 45724 .cfa: x29 48 +
STACK CFI INIT 45728 1c .cfa: sp 0 +
STACK CFI INIT 45744 c .cfa: sp 0 +
STACK CFI INIT 45750 4 .cfa: sp 0 +
STACK CFI INIT 45754 34 .cfa: sp 0 +
STACK CFI 45758 .cfa: sp 32 +
STACK CFI 45760 .cfa: x29 32 + x19: .cfa -16 + ^ .ra: .cfa -24 + ^ x29: .cfa -32 + ^
STACK CFI 4577c .cfa: sp 32 +
STACK CFI 45784 .cfa: sp 0 +
STACK CFI INIT 45788 14 .cfa: sp 0 +
STACK CFI INIT 4579c 4 .cfa: sp 0 +
STACK CFI INIT 457a0 4 .cfa: sp 0 +
STACK CFI INIT 457a4 8c .cfa: sp 0 +
STACK CFI 457a8 .cfa: sp 80 +
STACK CFI 457b8 .cfa: x29 48 + x19: .cfa -8 + ^ x20: .cfa -16 + ^ x21: .cfa -32 + ^ .ra: .cfa -40 + ^ x29: .cfa -48 + ^
STACK CFI 45818 .cfa: sp 80 +
STACK CFI 45828 .cfa: sp 0 +
STACK CFI 4582c .cfa: x29 48 +
STACK CFI INIT 45830 1c .cfa: sp 0 +
STACK CFI INIT 4584c c .cfa: sp 0 +
STACK CFI INIT 45858 4 .cfa: sp 0 +
STACK CFI INIT 4585c 34 .cfa: sp 0 +
STACK CFI 45860 .cfa: sp 32 +
STACK CFI 45868 .cfa: x29 32 + x19: .cfa -16 + ^ .ra: .cfa -24 + ^ x29: .cfa -32 + ^
STACK CFI 45884 .cfa: sp 32 +
STACK CFI 4588c .cfa: sp 0 +
STACK CFI INIT 45890 14 .cfa: sp 0 +
STACK CFI INIT 458a4 4 .cfa: sp 0 +
STACK CFI INIT 458a8 4 .cfa: sp 0 +
STACK CFI INIT 458ac 8c .cfa: sp 0 +
STACK CFI 458b0 .cfa: sp 80 +
STACK CFI 458c0 .cfa: x29 48 + x19: .cfa -8 + ^ x20: .cfa -16 + ^ x21: .cfa -32 + ^ .ra: .cfa -40 + ^ x29: .cfa -48 + ^
STACK CFI 45920 .cfa: sp 80 +
STACK CFI 45930 .cfa: sp 0 +
STACK CFI 45934 .cfa: x29 48 +
STACK CFI INIT 45938 1c .cfa: sp 0 +
STACK CFI INIT 45954 c .cfa: sp 0 +
STACK CFI INIT 45960 4 .cfa: sp 0 +
STACK CFI INIT 45964 34 .cfa: sp 0 +
STACK CFI 45968 .cfa: sp 32 +
STACK CFI 45970 .cfa: x29 32 + x19: .cfa -16 + ^ .ra: .cfa -24 + ^ x29: .cfa -32 + ^
STACK CFI 4598c .cfa: sp 32 +
STACK CFI 45994 .cfa: sp 0 +
STACK CFI INIT 45998 14 .cfa: sp 0 +
STACK CFI INIT 459ac 4 .cfa: sp 0 +
STACK CFI INIT 459b0 4 .cfa: sp 0 +
STACK CFI INIT 459b4 8c .cfa: sp 0 +
STACK CFI 459b8 .cfa: sp 80 +
STACK CFI 459c8 .cfa: x29 48 + x19: .cfa -8 + ^ x20: .cfa -16 + ^ x21: .cfa -32 + ^ .ra: .cfa -40 + ^ x29: .cfa -48 + ^
STACK CFI 45a28 .cfa: sp 80 +
STACK CFI 45a38 .cfa: sp 0 +
STACK CFI 45a3c .cfa: x29 48 +
STACK CFI INIT 45a40 1c .cfa: sp 0 +
STACK CFI INIT 45a5c c .cfa: sp 0 +
STACK CFI INIT 45a68 4 .cfa: sp 0 +
STACK CFI INIT 45a6c 34 .cfa: sp 0 +
STACK CFI 45a70 .cfa: sp 32 +
STACK CFI 45a78 .cfa: x29 32 + x19: .cfa -16 + ^ .ra: .cfa -24 + ^ x29: .cfa -32 + ^
STACK CFI 45a94 .cfa: sp 32 +
STACK CFI 45a9c .cfa: sp 0 +
STACK CFI INIT 45aa0 14 .cfa: sp 0 +
STACK CFI INIT 45ab4 4 .cfa: sp 0 +
STACK CFI INIT 45ab8 4 .cfa: sp 0 +
STACK CFI INIT 45abc 8c .cfa: sp 0 +
STACK CFI 45ac0 .cfa: sp 80 +
STACK CFI 45ad0 .cfa: x29 48 + x19: .cfa -8 + ^ x20: .cfa -16 + ^ x21: .cfa -32 + ^ .ra: .cfa -40 + ^ x29: .cfa -48 + ^
STACK CFI 45b30 .cfa: sp 80 +
STACK CFI 45b40 .cfa: sp 0 +
STACK CFI 45b44 .cfa: x29 48 +
STACK CFI INIT 45b48 1c .cfa: sp 0 +
STACK CFI INIT 45b64 c .cfa: sp 0 +
STACK CFI INIT 45b70 4 .cfa: sp 0 +
STACK CFI INIT 45b74 34 .cfa: sp 0 +
STACK CFI 45b78 .cfa: sp 32 +
STACK CFI 45b80 .cfa: x29 32 + x19: .cfa -16 + ^ .ra: .cfa -24 + ^ x29: .cfa -32 + ^
STACK CFI 45b9c .cfa: sp 32 +
STACK CFI 45ba4 .cfa: sp 0 +
STACK CFI INIT 45ba8 14 .cfa: sp 0 +
STACK CFI INIT 45bbc 4 .cfa: sp 0 +
STACK CFI INIT 45bc0 4 .cfa: sp 0 +
STACK CFI INIT 45bc4 8c .cfa: sp 0 +
STACK CFI 45bc8 .cfa: sp 80 +
STACK CFI 45bd8 .cfa: x29 48 + x19: .cfa -8 + ^ x20: .cfa -16 + ^ x21: .cfa -32 + ^ .ra: .cfa -40 + ^ x29: .cfa -48 + ^
STACK CFI 45c38 .cfa: sp 80 +
STACK CFI 45c48 .cfa: sp 0 +
STACK CFI 45c4c .cfa: x29 48 +
STACK CFI INIT 45c50 1c .cfa: sp 0 +
STACK CFI INIT 45c6c c .cfa: sp 0 +
STACK CFI INIT 45c78 4 .cfa: sp 0 +
STACK CFI INIT 45c7c 34 .cfa: sp 0 +
STACK CFI 45c80 .cfa: sp 32 +
STACK CFI 45c88 .cfa: x29 32 + x19: .cfa -16 + ^ .ra: .cfa -24 + ^ x29: .cfa -32 + ^
STACK CFI 45ca4 .cfa: sp 32 +
STACK CFI 45cac .cfa: sp 0 +
STACK CFI INIT 45cb0 14 .cfa: sp 0 +
STACK CFI INIT 45cc4 4 .cfa: sp 0 +
STACK CFI INIT 45cc8 4 .cfa: sp 0 +
STACK CFI INIT 45ccc 8c .cfa: sp 0 +
STACK CFI 45cd0 .cfa: sp 80 +
STACK CFI 45ce0 .cfa: x29 48 + x19: .cfa -8 + ^ x20: .cfa -16 + ^ x21: .cfa -32 + ^ .ra: .cfa -40 + ^ x29: .cfa -48 + ^
STACK CFI 45d40 .cfa: sp 80 +
STACK CFI 45d50 .cfa: sp 0 +
STACK CFI 45d54 .cfa: x29 48 +
STACK CFI INIT 45d58 1c .cfa: sp 0 +
STACK CFI INIT 45d74 c .cfa: sp 0 +
STACK CFI INIT 45d80 4 .cfa: sp 0 +
STACK CFI INIT 45d84 34 .cfa: sp 0 +
STACK CFI 45d88 .cfa: sp 32 +
STACK CFI 45d90 .cfa: x29 32 + x19: .cfa -16 + ^ .ra: .cfa -24 + ^ x29: .cfa -32 + ^
STACK CFI 45dac .cfa: sp 32 +
STACK CFI 45db4 .cfa: sp 0 +
STACK CFI INIT 45db8 14 .cfa: sp 0 +
STACK CFI INIT 45dcc 4 .cfa: sp 0 +
STACK CFI INIT 45dd0 4 .cfa: sp 0 +
STACK CFI INIT 45dd4 8c .cfa: sp 0 +
STACK CFI 45dd8 .cfa: sp 80 +
STACK CFI 45de8 .cfa: x29 48 + x19: .cfa -8 + ^ x20: .cfa -16 + ^ x21: .cfa -32 + ^ .ra: .cfa -40 + ^ x29: .cfa -48 + ^
STACK CFI 45e48 .cfa: sp 80 +
STACK CFI 45e58 .cfa: sp 0 +
STACK CFI 45e5c .cfa: x29 48 +
STACK CFI INIT 45e60 1c .cfa: sp 0 +
STACK CFI INIT 45e7c c .cfa: sp 0 +
STACK CFI INIT 45e88 4 .cfa: sp 0 +
STACK CFI INIT 45e8c 34 .cfa: sp 0 +
STACK CFI 45e90 .cfa: sp 32 +
STACK CFI 45e98 .cfa: x29 32 + x19: .cfa -16 + ^ .ra: .cfa -24 + ^ x29: .cfa -32 + ^
STACK CFI 45eb4 .cfa: sp 32 +
STACK CFI 45ebc .cfa: sp 0 +
STACK CFI INIT 45ec0 14 .cfa: sp 0 +
STACK CFI INIT 45ed4 4 .cfa: sp 0 +
STACK CFI INIT 45ed8 4 .cfa: sp 0 +
STACK CFI INIT 45edc 8c .cfa: sp 0 +
STACK CFI 45ee0 .cfa: sp 80 +
STACK CFI 45ef0 .cfa: x29 48 + x19: .cfa -8 + ^ x20: .cfa -16 + ^ x21: .cfa -32 + ^ .ra: .cfa -40 + ^ x29: .cfa -48 + ^
STACK CFI 45f50 .cfa: sp 80 +
STACK CFI 45f60 .cfa: sp 0 +
STACK CFI 45f64 .cfa: x29 48 +
STACK CFI INIT 45f68 1c .cfa: sp 0 +
STACK CFI INIT 45f84 c .cfa: sp 0 +
STACK CFI INIT 45f90 4 .cfa: sp 0 +
STACK CFI INIT 45f94 34 .cfa: sp 0 +
STACK CFI 45f98 .cfa: sp 32 +
STACK CFI 45fa0 .cfa: x29 32 + x19: .cfa -16 + ^ .ra: .cfa -24 + ^ x29: .cfa -32 + ^
STACK CFI 45fbc .cfa: sp 32 +
STACK CFI 45fc4 .cfa: sp 0 +
STACK CFI INIT 45fc8 14 .cfa: sp 0 +
STACK CFI INIT 45fdc 4 .cfa: sp 0 +
STACK CFI INIT 45fe0 4 .cfa: sp 0 +
STACK CFI INIT 45fe4 8c .cfa: sp 0 +
STACK CFI 45fe8 .cfa: sp 80 +
STACK CFI 45ff8 .cfa: x29 48 + x19: .cfa -8 + ^ x20: .cfa -16 + ^ x21: .cfa -32 + ^ .ra: .cfa -40 + ^ x29: .cfa -48 + ^
STACK CFI 46058 .cfa: sp 80 +
STACK CFI 46068 .cfa: sp 0 +
STACK CFI 4606c .cfa: x29 48 +
STACK CFI INIT 46070 1c .cfa: sp 0 +
STACK CFI INIT 4608c c .cfa: sp 0 +
STACK CFI INIT 46098 4 .cfa: sp 0 +
STACK CFI INIT 4609c 34 .cfa: sp 0 +
STACK CFI 460a0 .cfa: sp 32 +
STACK CFI 460a8 .cfa: x29 32 + x19: .cfa -16 + ^ .ra: .cfa -24 + ^ x29: .cfa -32 + ^
STACK CFI 460c4 .cfa: sp 32 +
STACK CFI 460cc .cfa: sp 0 +
STACK CFI INIT 460d0 14 .cfa: sp 0 +
STACK CFI INIT 460e4 4 .cfa: sp 0 +
STACK CFI INIT 460e8 4 .cfa: sp 0 +
STACK CFI INIT 460ec 8c .cfa: sp 0 +
STACK CFI 460f0 .cfa: sp 80 +
STACK CFI 46100 .cfa: x29 48 + x19: .cfa -8 + ^ x20: .cfa -16 + ^ x21: .cfa -32 + ^ .ra: .cfa -40 + ^ x29: .cfa -48 + ^
STACK CFI 46160 .cfa: sp 80 +
STACK CFI 46170 .cfa: sp 0 +
STACK CFI 46174 .cfa: x29 48 +
STACK CFI INIT 46178 1c .cfa: sp 0 +
STACK CFI INIT 46194 c .cfa: sp 0 +
STACK CFI INIT 461a0 4 .cfa: sp 0 +
STACK CFI INIT 461a4 34 .cfa: sp 0 +
STACK CFI 461a8 .cfa: sp 32 +
STACK CFI 461b0 .cfa: x29 32 + x19: .cfa -16 + ^ .ra: .cfa -24 + ^ x29: .cfa -32 + ^
STACK CFI 461cc .cfa: sp 32 +
STACK CFI 461d4 .cfa: sp 0 +
STACK CFI INIT 461d8 14 .cfa: sp 0 +
STACK CFI INIT 461ec 4 .cfa: sp 0 +
STACK CFI INIT 461f0 4 .cfa: sp 0 +
STACK CFI INIT 461f4 8c .cfa: sp 0 +
STACK CFI 461f8 .cfa: sp 80 +
STACK CFI 46208 .cfa: x29 48 + x19: .cfa -8 + ^ x20: .cfa -16 + ^ x21: .cfa -32 + ^ .ra: .cfa -40 + ^ x29: .cfa -48 + ^
STACK CFI 46268 .cfa: sp 80 +
STACK CFI 46278 .cfa: sp 0 +
STACK CFI 4627c .cfa: x29 48 +
STACK CFI INIT 46280 1c .cfa: sp 0 +
STACK CFI INIT 4629c c .cfa: sp 0 +
STACK CFI INIT 462a8 4 .cfa: sp 0 +
STACK CFI INIT 462ac 34 .cfa: sp 0 +
STACK CFI 462b0 .cfa: sp 32 +
STACK CFI 462b8 .cfa: x29 32 + x19: .cfa -16 + ^ .ra: .cfa -24 + ^ x29: .cfa -32 + ^
STACK CFI 462d4 .cfa: sp 32 +
STACK CFI 462dc .cfa: sp 0 +
STACK CFI INIT 462e0 14 .cfa: sp 0 +
STACK CFI INIT 462f4 4 .cfa: sp 0 +
STACK CFI INIT 462f8 4 .cfa: sp 0 +
STACK CFI INIT 462fc 8c .cfa: sp 0 +
STACK CFI 46300 .cfa: sp 80 +
STACK CFI 46310 .cfa: x29 48 + x19: .cfa -8 + ^ x20: .cfa -16 + ^ x21: .cfa -32 + ^ .ra: .cfa -40 + ^ x29: .cfa -48 + ^
STACK CFI 46370 .cfa: sp 80 +
STACK CFI 46380 .cfa: sp 0 +
STACK CFI 46384 .cfa: x29 48 +
STACK CFI INIT 46388 1c .cfa: sp 0 +
STACK CFI INIT 463a4 c .cfa: sp 0 +
STACK CFI INIT 463b0 4 .cfa: sp 0 +
STACK CFI INIT 463b4 34 .cfa: sp 0 +
STACK CFI 463b8 .cfa: sp 32 +
STACK CFI 463c0 .cfa: x29 32 + x19: .cfa -16 + ^ .ra: .cfa -24 + ^ x29: .cfa -32 + ^
STACK CFI 463dc .cfa: sp 32 +
STACK CFI 463e4 .cfa: sp 0 +
STACK CFI INIT 463e8 14 .cfa: sp 0 +
STACK CFI INIT 463fc 4 .cfa: sp 0 +
STACK CFI INIT 46400 4 .cfa: sp 0 +
STACK CFI INIT 46404 8c .cfa: sp 0 +
STACK CFI 46408 .cfa: sp 80 +
STACK CFI 46418 .cfa: x29 48 + x19: .cfa -8 + ^ x20: .cfa -16 + ^ x21: .cfa -32 + ^ .ra: .cfa -40 + ^ x29: .cfa -48 + ^
STACK CFI 46478 .cfa: sp 80 +
STACK CFI 46488 .cfa: sp 0 +
STACK CFI 4648c .cfa: x29 48 +
STACK CFI INIT 46490 1c .cfa: sp 0 +
STACK CFI INIT 464ac c .cfa: sp 0 +
STACK CFI INIT 464b8 4 .cfa: sp 0 +
STACK CFI INIT 464bc 34 .cfa: sp 0 +
STACK CFI 464c0 .cfa: sp 32 +
STACK CFI 464c8 .cfa: x29 32 + x19: .cfa -16 + ^ .ra: .cfa -24 + ^ x29: .cfa -32 + ^
STACK CFI 464e4 .cfa: sp 32 +
STACK CFI 464ec .cfa: sp 0 +
STACK CFI INIT 464f0 14 .cfa: sp 0 +
STACK CFI INIT 46504 4 .cfa: sp 0 +
STACK CFI INIT 46508 4 .cfa: sp 0 +
STACK CFI INIT 4650c 8c .cfa: sp 0 +
STACK CFI 46510 .cfa: sp 80 +
STACK CFI 46520 .cfa: x29 48 + x19: .cfa -8 + ^ x20: .cfa -16 + ^ x21: .cfa -32 + ^ .ra: .cfa -40 + ^ x29: .cfa -48 + ^
STACK CFI 46580 .cfa: sp 80 +
STACK CFI 46590 .cfa: sp 0 +
STACK CFI 46594 .cfa: x29 48 +
STACK CFI INIT 46598 1c .cfa: sp 0 +
STACK CFI INIT 465b4 c .cfa: sp 0 +
STACK CFI INIT 465c0 4 .cfa: sp 0 +
STACK CFI INIT 465c4 34 .cfa: sp 0 +
STACK CFI 465c8 .cfa: sp 32 +
STACK CFI 465d0 .cfa: x29 32 + x19: .cfa -16 + ^ .ra: .cfa -24 + ^ x29: .cfa -32 + ^
STACK CFI 465ec .cfa: sp 32 +
STACK CFI 465f4 .cfa: sp 0 +
STACK CFI INIT 465f8 14 .cfa: sp 0 +
STACK CFI INIT 4660c 4 .cfa: sp 0 +
STACK CFI INIT 46610 4 .cfa: sp 0 +
STACK CFI INIT 46614 8c .cfa: sp 0 +
STACK CFI 46618 .cfa: sp 80 +
STACK CFI 46628 .cfa: x29 48 + x19: .cfa -8 + ^ x20: .cfa -16 + ^ x21: .cfa -32 + ^ .ra: .cfa -40 + ^ x29: .cfa -48 + ^
STACK CFI 46688 .cfa: sp 80 +
STACK CFI 46698 .cfa: sp 0 +
STACK CFI 4669c .cfa: x29 48 +
STACK CFI INIT 466a0 1c .cfa: sp 0 +
STACK CFI INIT 466bc c .cfa: sp 0 +
STACK CFI INIT 466c8 4 .cfa: sp 0 +
STACK CFI INIT 466cc 34 .cfa: sp 0 +
STACK CFI 466d0 .cfa: sp 32 +
STACK CFI 466d8 .cfa: x29 32 + x19: .cfa -16 + ^ .ra: .cfa -24 + ^ x29: .cfa -32 + ^
STACK CFI 466f4 .cfa: sp 32 +
STACK CFI 466fc .cfa: sp 0 +
STACK CFI INIT 46700 14 .cfa: sp 0 +
STACK CFI INIT 46714 4 .cfa: sp 0 +
STACK CFI INIT 46718 4 .cfa: sp 0 +
STACK CFI INIT 4671c 8c .cfa: sp 0 +
STACK CFI 46720 .cfa: sp 80 +
STACK CFI 46730 .cfa: x29 48 + x19: .cfa -8 + ^ x20: .cfa -16 + ^ x21: .cfa -32 + ^ .ra: .cfa -40 + ^ x29: .cfa -48 + ^
STACK CFI 46790 .cfa: sp 80 +
STACK CFI 467a0 .cfa: sp 0 +
STACK CFI 467a4 .cfa: x29 48 +
STACK CFI INIT 467a8 1c .cfa: sp 0 +
STACK CFI INIT 467c4 c .cfa: sp 0 +
STACK CFI INIT 467d0 4 .cfa: sp 0 +
STACK CFI INIT 467d4 34 .cfa: sp 0 +
STACK CFI 467d8 .cfa: sp 32 +
STACK CFI 467e0 .cfa: x29 32 + x19: .cfa -16 + ^ .ra: .cfa -24 + ^ x29: .cfa -32 + ^
STACK CFI 467fc .cfa: sp 32 +
STACK CFI 46804 .cfa: sp 0 +
STACK CFI INIT 46808 14 .cfa: sp 0 +
STACK CFI INIT 4681c 4 .cfa: sp 0 +
STACK CFI INIT 46820 4 .cfa: sp 0 +
STACK CFI INIT 46824 8c .cfa: sp 0 +
STACK CFI 46828 .cfa: sp 80 +
STACK CFI 46838 .cfa: x29 48 + x19: .cfa -8 + ^ x20: .cfa -16 + ^ x21: .cfa -32 + ^ .ra: .cfa -40 + ^ x29: .cfa -48 + ^
STACK CFI 46898 .cfa: sp 80 +
STACK CFI 468a8 .cfa: sp 0 +
STACK CFI 468ac .cfa: x29 48 +
STACK CFI INIT 468b0 1c .cfa: sp 0 +
STACK CFI INIT 468cc c .cfa: sp 0 +
STACK CFI INIT 4937c b8 .cfa: sp 0 +
STACK CFI 49380 .cfa: sp 64 +
STACK CFI 49390 .cfa: x29 48 + x19: .cfa -8 + ^ x20: .cfa -16 + ^ x21: .cfa -32 + ^ .ra: .cfa -40 + ^ x29: .cfa -48 + ^
STACK CFI 4941c .cfa: sp 64 +
STACK CFI 4942c .cfa: sp 0 +
STACK CFI 49430 .cfa: x29 48 +
STACK CFI INIT 49434 b8 .cfa: sp 0 +
STACK CFI 49438 .cfa: sp 64 +
STACK CFI 49448 .cfa: x29 48 + x19: .cfa -8 + ^ x20: .cfa -16 + ^ x21: .cfa -32 + ^ .ra: .cfa -40 + ^ x29: .cfa -48 + ^
STACK CFI 494d4 .cfa: sp 64 +
STACK CFI 494e4 .cfa: sp 0 +
STACK CFI 494e8 .cfa: x29 48 +
STACK CFI INIT 494ec b8 .cfa: sp 0 +
STACK CFI 494f0 .cfa: sp 64 +
STACK CFI 49500 .cfa: x29 48 + x19: .cfa -8 + ^ x20: .cfa -16 + ^ x21: .cfa -32 + ^ .ra: .cfa -40 + ^ x29: .cfa -48 + ^
STACK CFI 4958c .cfa: sp 64 +
STACK CFI 4959c .cfa: sp 0 +
STACK CFI 495a0 .cfa: x29 48 +
STACK CFI INIT 495a4 b8 .cfa: sp 0 +
STACK CFI 495a8 .cfa: sp 64 +
STACK CFI 495b8 .cfa: x29 48 + x19: .cfa -8 + ^ x20: .cfa -16 + ^ x21: .cfa -32 + ^ .ra: .cfa -40 + ^ x29: .cfa -48 + ^
STACK CFI 49644 .cfa: sp 64 +
STACK CFI 49654 .cfa: sp 0 +
STACK CFI 49658 .cfa: x29 48 +
STACK CFI INIT 4965c b8 .cfa: sp 0 +
STACK CFI 49660 .cfa: sp 64 +
STACK CFI 49670 .cfa: x29 48 + x19: .cfa -8 + ^ x20: .cfa -16 + ^ x21: .cfa -32 + ^ .ra: .cfa -40 + ^ x29: .cfa -48 + ^
STACK CFI 496fc .cfa: sp 64 +
STACK CFI 4970c .cfa: sp 0 +
STACK CFI 49710 .cfa: x29 48 +
STACK CFI INIT 49714 b8 .cfa: sp 0 +
STACK CFI 49718 .cfa: sp 64 +
STACK CFI 49728 .cfa: x29 48 + x19: .cfa -8 + ^ x20: .cfa -16 + ^ x21: .cfa -32 + ^ .ra: .cfa -40 + ^ x29: .cfa -48 + ^
STACK CFI 497b4 .cfa: sp 64 +
STACK CFI 497c4 .cfa: sp 0 +
STACK CFI 497c8 .cfa: x29 48 +
STACK CFI INIT 497cc b8 .cfa: sp 0 +
STACK CFI 497d0 .cfa: sp 64 +
STACK CFI 497e0 .cfa: x29 48 + x19: .cfa -8 + ^ x20: .cfa -16 + ^ x21: .cfa -32 + ^ .ra: .cfa -40 + ^ x29: .cfa -48 + ^
STACK CFI 4986c .cfa: sp 64 +
STACK CFI 4987c .cfa: sp 0 +
STACK CFI 49880 .cfa: x29 48 +
STACK CFI INIT 49884 b8 .cfa: sp 0 +
STACK CFI 49888 .cfa: sp 64 +
STACK CFI 49898 .cfa: x29 48 + x19: .cfa -8 + ^ x20: .cfa -16 + ^ x21: .cfa -32 + ^ .ra: .cfa -40 + ^ x29: .cfa -48 + ^
STACK CFI 49924 .cfa: sp 64 +
STACK CFI 49934 .cfa: sp 0 +
STACK CFI 49938 .cfa: x29 48 +
STACK CFI INIT 4993c b8 .cfa: sp 0 +
STACK CFI 49940 .cfa: sp 64 +
STACK CFI 49950 .cfa: x29 48 + x19: .cfa -8 + ^ x20: .cfa -16 + ^ x21: .cfa -32 + ^ .ra: .cfa -40 + ^ x29: .cfa -48 + ^
STACK CFI 499dc .cfa: sp 64 +
STACK CFI 499ec .cfa: sp 0 +
STACK CFI 499f0 .cfa: x29 48 +
STACK CFI INIT 499f4 b8 .cfa: sp 0 +
STACK CFI 499f8 .cfa: sp 64 +
STACK CFI 49a08 .cfa: x29 48 + x19: .cfa -8 + ^ x20: .cfa -16 + ^ x21: .cfa -32 + ^ .ra: .cfa -40 + ^ x29: .cfa -48 + ^
STACK CFI 49a94 .cfa: sp 64 +
STACK CFI 49aa4 .cfa: sp 0 +
STACK CFI 49aa8 .cfa: x29 48 +
STACK CFI INIT 49b50 24 .cfa: sp 0 +
STACK CFI 49b54 .cfa: sp 32 +
STACK CFI 49b5c .cfa: x29 32 + x19: .cfa -16 + ^ .ra: .cfa -24 + ^ x29: .cfa -32 + ^
STACK CFI 49b68 .cfa: sp 32 +
STACK CFI 49b70 .cfa: sp 0 +
STACK CFI INIT 49b74 8 .cfa: sp 0 +
STACK CFI INIT 49b7c 28 .cfa: sp 0 +
STACK CFI 49b80 .cfa: sp 32 +
STACK CFI 49b88 .cfa: x29 32 + x19: .cfa -16 + ^ .ra: .cfa -24 + ^ x29: .cfa -32 + ^
STACK CFI 49b98 .cfa: sp 32 +
STACK CFI 49ba0 .cfa: sp 0 +
STACK CFI INIT 49ba4 4 .cfa: sp 0 +
STACK CFI INIT 49ba8 34 .cfa: sp 0 +
STACK CFI 49bac .cfa: sp 32 +
STACK CFI 49bb4 .cfa: x29 32 + x19: .cfa -16 + ^ .ra: .cfa -24 + ^ x29: .cfa -32 + ^
STACK CFI 49bd0 .cfa: sp 32 +
STACK CFI 49bd8 .cfa: sp 0 +
STACK CFI INIT 49bdc 14 .cfa: sp 0 +
STACK CFI INIT 49bf0 4 .cfa: sp 0 +
STACK CFI INIT 49bf4 4 .cfa: sp 0 +
STACK CFI INIT 49bf8 8c .cfa: sp 0 +
STACK CFI 49bfc .cfa: sp 80 +
STACK CFI 49c0c .cfa: x29 48 + x19: .cfa -8 + ^ x20: .cfa -16 + ^ x21: .cfa -32 + ^ .ra: .cfa -40 + ^ x29: .cfa -48 + ^
STACK CFI 49c6c .cfa: sp 80 +
STACK CFI 49c7c .cfa: sp 0 +
STACK CFI 49c80 .cfa: x29 48 +
STACK CFI INIT 49c84 1c .cfa: sp 0 +
STACK CFI INIT 49ca0 c .cfa: sp 0 +
STACK CFI INIT 49cac 4 .cfa: sp 0 +
STACK CFI INIT 49cb0 34 .cfa: sp 0 +
STACK CFI 49cb4 .cfa: sp 32 +
STACK CFI 49cbc .cfa: x29 32 + x19: .cfa -16 + ^ .ra: .cfa -24 + ^ x29: .cfa -32 + ^
STACK CFI 49cd8 .cfa: sp 32 +
STACK CFI 49ce0 .cfa: sp 0 +
STACK CFI INIT 49ce4 14 .cfa: sp 0 +
STACK CFI INIT 49cf8 4 .cfa: sp 0 +
STACK CFI INIT 49cfc 4 .cfa: sp 0 +
STACK CFI INIT 49d00 8c .cfa: sp 0 +
STACK CFI 49d04 .cfa: sp 80 +
STACK CFI 49d14 .cfa: x29 48 + x19: .cfa -8 + ^ x20: .cfa -16 + ^ x21: .cfa -32 + ^ .ra: .cfa -40 + ^ x29: .cfa -48 + ^
STACK CFI 49d74 .cfa: sp 80 +
STACK CFI 49d84 .cfa: sp 0 +
STACK CFI 49d88 .cfa: x29 48 +
STACK CFI INIT 49d8c 1c .cfa: sp 0 +
STACK CFI INIT 49da8 c .cfa: sp 0 +
STACK CFI INIT 49db4 4 .cfa: sp 0 +
STACK CFI INIT 49db8 34 .cfa: sp 0 +
STACK CFI 49dbc .cfa: sp 32 +
STACK CFI 49dc4 .cfa: x29 32 + x19: .cfa -16 + ^ .ra: .cfa -24 + ^ x29: .cfa -32 + ^
STACK CFI 49de0 .cfa: sp 32 +
STACK CFI 49de8 .cfa: sp 0 +
STACK CFI INIT 49dec 14 .cfa: sp 0 +
STACK CFI INIT 49e00 4 .cfa: sp 0 +
STACK CFI INIT 49e04 4 .cfa: sp 0 +
STACK CFI INIT 49e08 8c .cfa: sp 0 +
STACK CFI 49e0c .cfa: sp 80 +
STACK CFI 49e1c .cfa: x29 48 + x19: .cfa -8 + ^ x20: .cfa -16 + ^ x21: .cfa -32 + ^ .ra: .cfa -40 + ^ x29: .cfa -48 + ^
STACK CFI 49e7c .cfa: sp 80 +
STACK CFI 49e8c .cfa: sp 0 +
STACK CFI 49e90 .cfa: x29 48 +
STACK CFI INIT 49e94 1c .cfa: sp 0 +
STACK CFI INIT 49eb0 c .cfa: sp 0 +
STACK CFI INIT 49ebc 4 .cfa: sp 0 +
STACK CFI INIT 49ec0 34 .cfa: sp 0 +
STACK CFI 49ec4 .cfa: sp 32 +
STACK CFI 49ecc .cfa: x29 32 + x19: .cfa -16 + ^ .ra: .cfa -24 + ^ x29: .cfa -32 + ^
STACK CFI 49ee8 .cfa: sp 32 +
STACK CFI 49ef0 .cfa: sp 0 +
STACK CFI INIT 49ef4 14 .cfa: sp 0 +
STACK CFI INIT 49f08 4 .cfa: sp 0 +
STACK CFI INIT 49f0c 4 .cfa: sp 0 +
STACK CFI INIT 49f10 8c .cfa: sp 0 +
STACK CFI 49f14 .cfa: sp 80 +
STACK CFI 49f24 .cfa: x29 48 + x19: .cfa -8 + ^ x20: .cfa -16 + ^ x21: .cfa -32 + ^ .ra: .cfa -40 + ^ x29: .cfa -48 + ^
STACK CFI 49f84 .cfa: sp 80 +
STACK CFI 49f94 .cfa: sp 0 +
STACK CFI 49f98 .cfa: x29 48 +
STACK CFI INIT 49f9c 1c .cfa: sp 0 +
STACK CFI INIT 49fb8 c .cfa: sp 0 +
STACK CFI INIT 49fc4 4 .cfa: sp 0 +
STACK CFI INIT 49fc8 34 .cfa: sp 0 +
STACK CFI 49fcc .cfa: sp 32 +
STACK CFI 49fd4 .cfa: x29 32 + x19: .cfa -16 + ^ .ra: .cfa -24 + ^ x29: .cfa -32 + ^
STACK CFI 49ff0 .cfa: sp 32 +
STACK CFI 49ff8 .cfa: sp 0 +
STACK CFI INIT 49ffc 14 .cfa: sp 0 +
STACK CFI INIT 4a010 4 .cfa: sp 0 +
STACK CFI INIT 4a014 4 .cfa: sp 0 +
STACK CFI INIT 4a018 8c .cfa: sp 0 +
STACK CFI 4a01c .cfa: sp 80 +
STACK CFI 4a02c .cfa: x29 48 + x19: .cfa -8 + ^ x20: .cfa -16 + ^ x21: .cfa -32 + ^ .ra: .cfa -40 + ^ x29: .cfa -48 + ^
STACK CFI 4a08c .cfa: sp 80 +
STACK CFI 4a09c .cfa: sp 0 +
STACK CFI 4a0a0 .cfa: x29 48 +
STACK CFI INIT 4a0a4 1c .cfa: sp 0 +
STACK CFI INIT 4a0c0 c .cfa: sp 0 +
STACK CFI INIT 4a0cc 4 .cfa: sp 0 +
STACK CFI INIT 4a0d0 34 .cfa: sp 0 +
STACK CFI 4a0d4 .cfa: sp 32 +
STACK CFI 4a0dc .cfa: x29 32 + x19: .cfa -16 + ^ .ra: .cfa -24 + ^ x29: .cfa -32 + ^
STACK CFI 4a0f8 .cfa: sp 32 +
STACK CFI 4a100 .cfa: sp 0 +
STACK CFI INIT 4a104 14 .cfa: sp 0 +
STACK CFI INIT 4a118 4 .cfa: sp 0 +
STACK CFI INIT 4a11c 4 .cfa: sp 0 +
STACK CFI INIT 4a120 8c .cfa: sp 0 +
STACK CFI 4a124 .cfa: sp 80 +
STACK CFI 4a134 .cfa: x29 48 + x19: .cfa -8 + ^ x20: .cfa -16 + ^ x21: .cfa -32 + ^ .ra: .cfa -40 + ^ x29: .cfa -48 + ^
STACK CFI 4a194 .cfa: sp 80 +
STACK CFI 4a1a4 .cfa: sp 0 +
STACK CFI 4a1a8 .cfa: x29 48 +
STACK CFI INIT 4a1ac 1c .cfa: sp 0 +
STACK CFI INIT 4a1c8 c .cfa: sp 0 +
STACK CFI INIT 4a1d4 4 .cfa: sp 0 +
STACK CFI INIT 4a1d8 34 .cfa: sp 0 +
STACK CFI 4a1dc .cfa: sp 32 +
STACK CFI 4a1e4 .cfa: x29 32 + x19: .cfa -16 + ^ .ra: .cfa -24 + ^ x29: .cfa -32 + ^
STACK CFI 4a200 .cfa: sp 32 +
STACK CFI 4a208 .cfa: sp 0 +
STACK CFI INIT 4a20c 14 .cfa: sp 0 +
STACK CFI INIT 4a220 4 .cfa: sp 0 +
STACK CFI INIT 4a224 4 .cfa: sp 0 +
STACK CFI INIT 4a228 8c .cfa: sp 0 +
STACK CFI 4a22c .cfa: sp 80 +
STACK CFI 4a23c .cfa: x29 48 + x19: .cfa -8 + ^ x20: .cfa -16 + ^ x21: .cfa -32 + ^ .ra: .cfa -40 + ^ x29: .cfa -48 + ^
STACK CFI 4a29c .cfa: sp 80 +
STACK CFI 4a2ac .cfa: sp 0 +
STACK CFI 4a2b0 .cfa: x29 48 +
STACK CFI INIT 4a2b4 1c .cfa: sp 0 +
STACK CFI INIT 4a2d0 c .cfa: sp 0 +
STACK CFI INIT 4a2dc 4 .cfa: sp 0 +
STACK CFI INIT 4a2e0 34 .cfa: sp 0 +
STACK CFI 4a2e4 .cfa: sp 32 +
STACK CFI 4a2ec .cfa: x29 32 + x19: .cfa -16 + ^ .ra: .cfa -24 + ^ x29: .cfa -32 + ^
STACK CFI 4a308 .cfa: sp 32 +
STACK CFI 4a310 .cfa: sp 0 +
STACK CFI INIT 4a314 14 .cfa: sp 0 +
STACK CFI INIT 4a328 4 .cfa: sp 0 +
STACK CFI INIT 4a32c 4 .cfa: sp 0 +
STACK CFI INIT 4a330 8c .cfa: sp 0 +
STACK CFI 4a334 .cfa: sp 80 +
STACK CFI 4a344 .cfa: x29 48 + x19: .cfa -8 + ^ x20: .cfa -16 + ^ x21: .cfa -32 + ^ .ra: .cfa -40 + ^ x29: .cfa -48 + ^
STACK CFI 4a3a4 .cfa: sp 80 +
STACK CFI 4a3b4 .cfa: sp 0 +
STACK CFI 4a3b8 .cfa: x29 48 +
STACK CFI INIT 4a3bc 1c .cfa: sp 0 +
STACK CFI INIT 4a3d8 c .cfa: sp 0 +
STACK CFI INIT 4a3e4 4 .cfa: sp 0 +
STACK CFI INIT 4a3e8 34 .cfa: sp 0 +
STACK CFI 4a3ec .cfa: sp 32 +
STACK CFI 4a3f4 .cfa: x29 32 + x19: .cfa -16 + ^ .ra: .cfa -24 + ^ x29: .cfa -32 + ^
STACK CFI 4a410 .cfa: sp 32 +
STACK CFI 4a418 .cfa: sp 0 +
STACK CFI INIT 4a41c 14 .cfa: sp 0 +
STACK CFI INIT 4a430 4 .cfa: sp 0 +
STACK CFI INIT 4a434 4 .cfa: sp 0 +
STACK CFI INIT 4a438 8c .cfa: sp 0 +
STACK CFI 4a43c .cfa: sp 80 +
STACK CFI 4a44c .cfa: x29 48 + x19: .cfa -8 + ^ x20: .cfa -16 + ^ x21: .cfa -32 + ^ .ra: .cfa -40 + ^ x29: .cfa -48 + ^
STACK CFI 4a4ac .cfa: sp 80 +
STACK CFI 4a4bc .cfa: sp 0 +
STACK CFI 4a4c0 .cfa: x29 48 +
STACK CFI INIT 4a4c4 1c .cfa: sp 0 +
STACK CFI INIT 4a4e0 c .cfa: sp 0 +
STACK CFI INIT 4a4ec 4 .cfa: sp 0 +
STACK CFI INIT 4a4f0 34 .cfa: sp 0 +
STACK CFI 4a4f4 .cfa: sp 32 +
STACK CFI 4a4fc .cfa: x29 32 + x19: .cfa -16 + ^ .ra: .cfa -24 + ^ x29: .cfa -32 + ^
STACK CFI 4a518 .cfa: sp 32 +
STACK CFI 4a520 .cfa: sp 0 +
STACK CFI INIT 4a524 14 .cfa: sp 0 +
STACK CFI INIT 4a538 4 .cfa: sp 0 +
STACK CFI INIT 4a53c 4 .cfa: sp 0 +
STACK CFI INIT 4a540 8c .cfa: sp 0 +
STACK CFI 4a544 .cfa: sp 80 +
STACK CFI 4a554 .cfa: x29 48 + x19: .cfa -8 + ^ x20: .cfa -16 + ^ x21: .cfa -32 + ^ .ra: .cfa -40 + ^ x29: .cfa -48 + ^
STACK CFI 4a5b4 .cfa: sp 80 +
STACK CFI 4a5c4 .cfa: sp 0 +
STACK CFI 4a5c8 .cfa: x29 48 +
STACK CFI INIT 4a5cc 1c .cfa: sp 0 +
STACK CFI INIT 4a5e8 c .cfa: sp 0 +
STACK CFI INIT 4a5f4 4 .cfa: sp 0 +
STACK CFI INIT 4a5f8 34 .cfa: sp 0 +
STACK CFI 4a5fc .cfa: sp 32 +
STACK CFI 4a604 .cfa: x29 32 + x19: .cfa -16 + ^ .ra: .cfa -24 + ^ x29: .cfa -32 + ^
STACK CFI 4a620 .cfa: sp 32 +
STACK CFI 4a628 .cfa: sp 0 +
STACK CFI INIT 4a62c 14 .cfa: sp 0 +
STACK CFI INIT 4a640 4 .cfa: sp 0 +
STACK CFI INIT 4a644 4 .cfa: sp 0 +
STACK CFI INIT 4a648 8c .cfa: sp 0 +
STACK CFI 4a64c .cfa: sp 80 +
STACK CFI 4a65c .cfa: x29 48 + x19: .cfa -8 + ^ x20: .cfa -16 + ^ x21: .cfa -32 + ^ .ra: .cfa -40 + ^ x29: .cfa -48 + ^
STACK CFI 4a6bc .cfa: sp 80 +
STACK CFI 4a6cc .cfa: sp 0 +
STACK CFI 4a6d0 .cfa: x29 48 +
STACK CFI INIT 4a6d4 1c .cfa: sp 0 +
STACK CFI INIT 4a6f0 c .cfa: sp 0 +
STACK CFI INIT 4a6fc 4 .cfa: sp 0 +
STACK CFI INIT 4a700 34 .cfa: sp 0 +
STACK CFI 4a704 .cfa: sp 32 +
STACK CFI 4a70c .cfa: x29 32 + x19: .cfa -16 + ^ .ra: .cfa -24 + ^ x29: .cfa -32 + ^
STACK CFI 4a728 .cfa: sp 32 +
STACK CFI 4a730 .cfa: sp 0 +
STACK CFI INIT 4a734 14 .cfa: sp 0 +
STACK CFI INIT 4a748 4 .cfa: sp 0 +
STACK CFI INIT 4a74c 4 .cfa: sp 0 +
STACK CFI INIT 4a750 8c .cfa: sp 0 +
STACK CFI 4a754 .cfa: sp 80 +
STACK CFI 4a764 .cfa: x29 48 + x19: .cfa -8 + ^ x20: .cfa -16 + ^ x21: .cfa -32 + ^ .ra: .cfa -40 + ^ x29: .cfa -48 + ^
STACK CFI 4a7c4 .cfa: sp 80 +
STACK CFI 4a7d4 .cfa: sp 0 +
STACK CFI 4a7d8 .cfa: x29 48 +
STACK CFI INIT 4a7dc 1c .cfa: sp 0 +
STACK CFI INIT 4a7f8 c .cfa: sp 0 +
STACK CFI INIT 4a804 4 .cfa: sp 0 +
STACK CFI INIT 4a808 34 .cfa: sp 0 +
STACK CFI 4a80c .cfa: sp 32 +
STACK CFI 4a814 .cfa: x29 32 + x19: .cfa -16 + ^ .ra: .cfa -24 + ^ x29: .cfa -32 + ^
STACK CFI 4a830 .cfa: sp 32 +
STACK CFI 4a838 .cfa: sp 0 +
STACK CFI INIT 4a83c 14 .cfa: sp 0 +
STACK CFI INIT 4a850 4 .cfa: sp 0 +
STACK CFI INIT 4a854 4 .cfa: sp 0 +
STACK CFI INIT 4a858 8c .cfa: sp 0 +
STACK CFI 4a85c .cfa: sp 80 +
STACK CFI 4a86c .cfa: x29 48 + x19: .cfa -8 + ^ x20: .cfa -16 + ^ x21: .cfa -32 + ^ .ra: .cfa -40 + ^ x29: .cfa -48 + ^
STACK CFI 4a8cc .cfa: sp 80 +
STACK CFI 4a8dc .cfa: sp 0 +
STACK CFI 4a8e0 .cfa: x29 48 +
STACK CFI INIT 4a8e4 1c .cfa: sp 0 +
STACK CFI INIT 4a900 c .cfa: sp 0 +
STACK CFI INIT 4a90c 4 .cfa: sp 0 +
STACK CFI INIT 4a910 34 .cfa: sp 0 +
STACK CFI 4a914 .cfa: sp 32 +
STACK CFI 4a91c .cfa: x29 32 + x19: .cfa -16 + ^ .ra: .cfa -24 + ^ x29: .cfa -32 + ^
STACK CFI 4a938 .cfa: sp 32 +
STACK CFI 4a940 .cfa: sp 0 +
STACK CFI INIT 4a944 14 .cfa: sp 0 +
STACK CFI INIT 4a958 4 .cfa: sp 0 +
STACK CFI INIT 4a95c 4 .cfa: sp 0 +
STACK CFI INIT 4a960 8c .cfa: sp 0 +
STACK CFI 4a964 .cfa: sp 80 +
STACK CFI 4a974 .cfa: x29 48 + x19: .cfa -8 + ^ x20: .cfa -16 + ^ x21: .cfa -32 + ^ .ra: .cfa -40 + ^ x29: .cfa -48 + ^
STACK CFI 4a9d4 .cfa: sp 80 +
STACK CFI 4a9e4 .cfa: sp 0 +
STACK CFI 4a9e8 .cfa: x29 48 +
STACK CFI INIT 4a9ec 1c .cfa: sp 0 +
STACK CFI INIT 4aa08 c .cfa: sp 0 +
STACK CFI INIT 4aa14 4 .cfa: sp 0 +
STACK CFI INIT 4aa18 34 .cfa: sp 0 +
STACK CFI 4aa1c .cfa: sp 32 +
STACK CFI 4aa24 .cfa: x29 32 + x19: .cfa -16 + ^ .ra: .cfa -24 + ^ x29: .cfa -32 + ^
STACK CFI 4aa40 .cfa: sp 32 +
STACK CFI 4aa48 .cfa: sp 0 +
STACK CFI INIT 4aa4c 14 .cfa: sp 0 +
STACK CFI INIT 4aa60 4 .cfa: sp 0 +
STACK CFI INIT 4aa64 4 .cfa: sp 0 +
STACK CFI INIT 4aa68 8c .cfa: sp 0 +
STACK CFI 4aa6c .cfa: sp 80 +
STACK CFI 4aa7c .cfa: x29 48 + x19: .cfa -8 + ^ x20: .cfa -16 + ^ x21: .cfa -32 + ^ .ra: .cfa -40 + ^ x29: .cfa -48 + ^
STACK CFI 4aadc .cfa: sp 80 +
STACK CFI 4aaec .cfa: sp 0 +
STACK CFI 4aaf0 .cfa: x29 48 +
STACK CFI INIT 4aaf4 1c .cfa: sp 0 +
STACK CFI INIT 4ab10 c .cfa: sp 0 +
STACK CFI INIT 4ab1c 4 .cfa: sp 0 +
STACK CFI INIT 4ab20 34 .cfa: sp 0 +
STACK CFI 4ab24 .cfa: sp 32 +
STACK CFI 4ab2c .cfa: x29 32 + x19: .cfa -16 + ^ .ra: .cfa -24 + ^ x29: .cfa -32 + ^
STACK CFI 4ab48 .cfa: sp 32 +
STACK CFI 4ab50 .cfa: sp 0 +
STACK CFI INIT 4ab54 14 .cfa: sp 0 +
STACK CFI INIT 4ab68 4 .cfa: sp 0 +
STACK CFI INIT 4ab6c 4 .cfa: sp 0 +
STACK CFI INIT 4ab70 8c .cfa: sp 0 +
STACK CFI 4ab74 .cfa: sp 80 +
STACK CFI 4ab84 .cfa: x29 48 + x19: .cfa -8 + ^ x20: .cfa -16 + ^ x21: .cfa -32 + ^ .ra: .cfa -40 + ^ x29: .cfa -48 + ^
STACK CFI 4abe4 .cfa: sp 80 +
STACK CFI 4abf4 .cfa: sp 0 +
STACK CFI 4abf8 .cfa: x29 48 +
STACK CFI INIT 4abfc 1c .cfa: sp 0 +
STACK CFI INIT 4ac18 c .cfa: sp 0 +
STACK CFI INIT 4ac24 4 .cfa: sp 0 +
STACK CFI INIT 4ac28 34 .cfa: sp 0 +
STACK CFI 4ac2c .cfa: sp 32 +
STACK CFI 4ac34 .cfa: x29 32 + x19: .cfa -16 + ^ .ra: .cfa -24 + ^ x29: .cfa -32 + ^
STACK CFI 4ac50 .cfa: sp 32 +
STACK CFI 4ac58 .cfa: sp 0 +
STACK CFI INIT 4ac5c 14 .cfa: sp 0 +
STACK CFI INIT 4ac70 4 .cfa: sp 0 +
STACK CFI INIT 4ac74 4 .cfa: sp 0 +
STACK CFI INIT 4ac78 8c .cfa: sp 0 +
STACK CFI 4ac7c .cfa: sp 80 +
STACK CFI 4ac8c .cfa: x29 48 + x19: .cfa -8 + ^ x20: .cfa -16 + ^ x21: .cfa -32 + ^ .ra: .cfa -40 + ^ x29: .cfa -48 + ^
STACK CFI 4acec .cfa: sp 80 +
STACK CFI 4acfc .cfa: sp 0 +
STACK CFI 4ad00 .cfa: x29 48 +
STACK CFI INIT 4ad04 1c .cfa: sp 0 +
STACK CFI INIT 4ad20 c .cfa: sp 0 +
STACK CFI INIT 4ad2c 4 .cfa: sp 0 +
STACK CFI INIT 4ad30 34 .cfa: sp 0 +
STACK CFI 4ad34 .cfa: sp 32 +
STACK CFI 4ad3c .cfa: x29 32 + x19: .cfa -16 + ^ .ra: .cfa -24 + ^ x29: .cfa -32 + ^
STACK CFI 4ad58 .cfa: sp 32 +
STACK CFI 4ad60 .cfa: sp 0 +
STACK CFI INIT 4ad64 14 .cfa: sp 0 +
STACK CFI INIT 4ad78 4 .cfa: sp 0 +
STACK CFI INIT 4ad7c 4 .cfa: sp 0 +
STACK CFI INIT 4ad80 8c .cfa: sp 0 +
STACK CFI 4ad84 .cfa: sp 80 +
STACK CFI 4ad94 .cfa: x29 48 + x19: .cfa -8 + ^ x20: .cfa -16 + ^ x21: .cfa -32 + ^ .ra: .cfa -40 + ^ x29: .cfa -48 + ^
STACK CFI 4adf4 .cfa: sp 80 +
STACK CFI 4ae04 .cfa: sp 0 +
STACK CFI 4ae08 .cfa: x29 48 +
STACK CFI INIT 4ae0c 1c .cfa: sp 0 +
STACK CFI INIT 4ae28 c .cfa: sp 0 +
STACK CFI INIT 4ae34 4 .cfa: sp 0 +
STACK CFI INIT 4ae38 34 .cfa: sp 0 +
STACK CFI 4ae3c .cfa: sp 32 +
STACK CFI 4ae44 .cfa: x29 32 + x19: .cfa -16 + ^ .ra: .cfa -24 + ^ x29: .cfa -32 + ^
STACK CFI 4ae60 .cfa: sp 32 +
STACK CFI 4ae68 .cfa: sp 0 +
STACK CFI INIT 4ae6c 14 .cfa: sp 0 +
STACK CFI INIT 4ae80 4 .cfa: sp 0 +
STACK CFI INIT 4ae84 4 .cfa: sp 0 +
STACK CFI INIT 4ae88 8c .cfa: sp 0 +
STACK CFI 4ae8c .cfa: sp 80 +
STACK CFI 4ae9c .cfa: x29 48 + x19: .cfa -8 + ^ x20: .cfa -16 + ^ x21: .cfa -32 + ^ .ra: .cfa -40 + ^ x29: .cfa -48 + ^
STACK CFI 4aefc .cfa: sp 80 +
STACK CFI 4af0c .cfa: sp 0 +
STACK CFI 4af10 .cfa: x29 48 +
STACK CFI INIT 4af14 1c .cfa: sp 0 +
STACK CFI INIT 4af30 c .cfa: sp 0 +
STACK CFI INIT 4af3c 4 .cfa: sp 0 +
STACK CFI INIT 4af40 34 .cfa: sp 0 +
STACK CFI 4af44 .cfa: sp 32 +
STACK CFI 4af4c .cfa: x29 32 + x19: .cfa -16 + ^ .ra: .cfa -24 + ^ x29: .cfa -32 + ^
STACK CFI 4af68 .cfa: sp 32 +
STACK CFI 4af70 .cfa: sp 0 +
STACK CFI INIT 4af74 14 .cfa: sp 0 +
STACK CFI INIT 4af88 4 .cfa: sp 0 +
STACK CFI INIT 4af8c 4 .cfa: sp 0 +
STACK CFI INIT 4af90 8c .cfa: sp 0 +
STACK CFI 4af94 .cfa: sp 80 +
STACK CFI 4afa4 .cfa: x29 48 + x19: .cfa -8 + ^ x20: .cfa -16 + ^ x21: .cfa -32 + ^ .ra: .cfa -40 + ^ x29: .cfa -48 + ^
STACK CFI 4b004 .cfa: sp 80 +
STACK CFI 4b014 .cfa: sp 0 +
STACK CFI 4b018 .cfa: x29 48 +
STACK CFI INIT 4b01c 1c .cfa: sp 0 +
STACK CFI INIT 4b038 c .cfa: sp 0 +
STACK CFI INIT 4dae8 b8 .cfa: sp 0 +
STACK CFI 4daec .cfa: sp 64 +
STACK CFI 4dafc .cfa: x29 48 + x19: .cfa -8 + ^ x20: .cfa -16 + ^ x21: .cfa -32 + ^ .ra: .cfa -40 + ^ x29: .cfa -48 + ^
STACK CFI 4db88 .cfa: sp 64 +
STACK CFI 4db98 .cfa: sp 0 +
STACK CFI 4db9c .cfa: x29 48 +
STACK CFI INIT 4dba0 b8 .cfa: sp 0 +
STACK CFI 4dba4 .cfa: sp 64 +
STACK CFI 4dbb4 .cfa: x29 48 + x19: .cfa -8 + ^ x20: .cfa -16 + ^ x21: .cfa -32 + ^ .ra: .cfa -40 + ^ x29: .cfa -48 + ^
STACK CFI 4dc40 .cfa: sp 64 +
STACK CFI 4dc50 .cfa: sp 0 +
STACK CFI 4dc54 .cfa: x29 48 +
STACK CFI INIT 4dc58 b8 .cfa: sp 0 +
STACK CFI 4dc5c .cfa: sp 64 +
STACK CFI 4dc6c .cfa: x29 48 + x19: .cfa -8 + ^ x20: .cfa -16 + ^ x21: .cfa -32 + ^ .ra: .cfa -40 + ^ x29: .cfa -48 + ^
STACK CFI 4dcf8 .cfa: sp 64 +
STACK CFI 4dd08 .cfa: sp 0 +
STACK CFI 4dd0c .cfa: x29 48 +
STACK CFI INIT 4dd10 b8 .cfa: sp 0 +
STACK CFI 4dd14 .cfa: sp 64 +
STACK CFI 4dd24 .cfa: x29 48 + x19: .cfa -8 + ^ x20: .cfa -16 + ^ x21: .cfa -32 + ^ .ra: .cfa -40 + ^ x29: .cfa -48 + ^
STACK CFI 4ddb0 .cfa: sp 64 +
STACK CFI 4ddc0 .cfa: sp 0 +
STACK CFI 4ddc4 .cfa: x29 48 +
STACK CFI INIT 4ddc8 b8 .cfa: sp 0 +
STACK CFI 4ddcc .cfa: sp 64 +
STACK CFI 4dddc .cfa: x29 48 + x19: .cfa -8 + ^ x20: .cfa -16 + ^ x21: .cfa -32 + ^ .ra: .cfa -40 + ^ x29: .cfa -48 + ^
STACK CFI 4de68 .cfa: sp 64 +
STACK CFI 4de78 .cfa: sp 0 +
STACK CFI 4de7c .cfa: x29 48 +
STACK CFI INIT 4de80 b8 .cfa: sp 0 +
STACK CFI 4de84 .cfa: sp 64 +
STACK CFI 4de94 .cfa: x29 48 + x19: .cfa -8 + ^ x20: .cfa -16 + ^ x21: .cfa -32 + ^ .ra: .cfa -40 + ^ x29: .cfa -48 + ^
STACK CFI 4df20 .cfa: sp 64 +
STACK CFI 4df30 .cfa: sp 0 +
STACK CFI 4df34 .cfa: x29 48 +
STACK CFI INIT 4df38 b8 .cfa: sp 0 +
STACK CFI 4df3c .cfa: sp 64 +
STACK CFI 4df4c .cfa: x29 48 + x19: .cfa -8 + ^ x20: .cfa -16 + ^ x21: .cfa -32 + ^ .ra: .cfa -40 + ^ x29: .cfa -48 + ^
STACK CFI 4dfd8 .cfa: sp 64 +
STACK CFI 4dfe8 .cfa: sp 0 +
STACK CFI 4dfec .cfa: x29 48 +
STACK CFI INIT 4dff0 b8 .cfa: sp 0 +
STACK CFI 4dff4 .cfa: sp 64 +
STACK CFI 4e004 .cfa: x29 48 + x19: .cfa -8 + ^ x20: .cfa -16 + ^ x21: .cfa -32 + ^ .ra: .cfa -40 + ^ x29: .cfa -48 + ^
STACK CFI 4e090 .cfa: sp 64 +
STACK CFI 4e0a0 .cfa: sp 0 +
STACK CFI 4e0a4 .cfa: x29 48 +
STACK CFI INIT 4e0a8 b8 .cfa: sp 0 +
STACK CFI 4e0ac .cfa: sp 64 +
STACK CFI 4e0bc .cfa: x29 48 + x19: .cfa -8 + ^ x20: .cfa -16 + ^ x21: .cfa -32 + ^ .ra: .cfa -40 + ^ x29: .cfa -48 + ^
STACK CFI 4e148 .cfa: sp 64 +
STACK CFI 4e158 .cfa: sp 0 +
STACK CFI 4e15c .cfa: x29 48 +
STACK CFI INIT 4e160 b8 .cfa: sp 0 +
STACK CFI 4e164 .cfa: sp 64 +
STACK CFI 4e174 .cfa: x29 48 + x19: .cfa -8 + ^ x20: .cfa -16 + ^ x21: .cfa -32 + ^ .ra: .cfa -40 + ^ x29: .cfa -48 + ^
STACK CFI 4e200 .cfa: sp 64 +
STACK CFI 4e210 .cfa: sp 0 +
STACK CFI 4e214 .cfa: x29 48 +
STACK CFI INIT 4e2bc 24 .cfa: sp 0 +
STACK CFI 4e2c0 .cfa: sp 32 +
STACK CFI 4e2c8 .cfa: x29 32 + x19: .cfa -16 + ^ .ra: .cfa -24 + ^ x29: .cfa -32 + ^
STACK CFI 4e2d4 .cfa: sp 32 +
STACK CFI 4e2dc .cfa: sp 0 +
STACK CFI INIT 4e2e0 8 .cfa: sp 0 +
STACK CFI INIT 4e2e8 28 .cfa: sp 0 +
STACK CFI 4e2ec .cfa: sp 32 +
STACK CFI 4e2f4 .cfa: x29 32 + x19: .cfa -16 + ^ .ra: .cfa -24 + ^ x29: .cfa -32 + ^
STACK CFI 4e304 .cfa: sp 32 +
STACK CFI 4e30c .cfa: sp 0 +
STACK CFI INIT 4e310 4 .cfa: sp 0 +
STACK CFI INIT 4e314 34 .cfa: sp 0 +
STACK CFI 4e318 .cfa: sp 32 +
STACK CFI 4e320 .cfa: x29 32 + x19: .cfa -16 + ^ .ra: .cfa -24 + ^ x29: .cfa -32 + ^
STACK CFI 4e33c .cfa: sp 32 +
STACK CFI 4e344 .cfa: sp 0 +
STACK CFI INIT 4e348 14 .cfa: sp 0 +
STACK CFI INIT 4e35c 4 .cfa: sp 0 +
STACK CFI INIT 4e360 4 .cfa: sp 0 +
STACK CFI INIT 4e364 8c .cfa: sp 0 +
STACK CFI 4e368 .cfa: sp 80 +
STACK CFI 4e378 .cfa: x29 48 + x19: .cfa -8 + ^ x20: .cfa -16 + ^ x21: .cfa -32 + ^ .ra: .cfa -40 + ^ x29: .cfa -48 + ^
STACK CFI 4e3d8 .cfa: sp 80 +
STACK CFI 4e3e8 .cfa: sp 0 +
STACK CFI 4e3ec .cfa: x29 48 +
STACK CFI INIT 4e3f0 1c .cfa: sp 0 +
STACK CFI INIT 4e40c c .cfa: sp 0 +
STACK CFI INIT 4e418 4 .cfa: sp 0 +
STACK CFI INIT 4e41c 34 .cfa: sp 0 +
STACK CFI 4e420 .cfa: sp 32 +
STACK CFI 4e428 .cfa: x29 32 + x19: .cfa -16 + ^ .ra: .cfa -24 + ^ x29: .cfa -32 + ^
STACK CFI 4e444 .cfa: sp 32 +
STACK CFI 4e44c .cfa: sp 0 +
STACK CFI INIT 4e450 14 .cfa: sp 0 +
STACK CFI INIT 4e464 4 .cfa: sp 0 +
STACK CFI INIT 4e468 4 .cfa: sp 0 +
STACK CFI INIT 4e46c 8c .cfa: sp 0 +
STACK CFI 4e470 .cfa: sp 80 +
STACK CFI 4e480 .cfa: x29 48 + x19: .cfa -8 + ^ x20: .cfa -16 + ^ x21: .cfa -32 + ^ .ra: .cfa -40 + ^ x29: .cfa -48 + ^
STACK CFI 4e4e0 .cfa: sp 80 +
STACK CFI 4e4f0 .cfa: sp 0 +
STACK CFI 4e4f4 .cfa: x29 48 +
STACK CFI INIT 4e4f8 1c .cfa: sp 0 +
STACK CFI INIT 4e514 c .cfa: sp 0 +
STACK CFI INIT 4e520 4 .cfa: sp 0 +
STACK CFI INIT 4e524 34 .cfa: sp 0 +
STACK CFI 4e528 .cfa: sp 32 +
STACK CFI 4e530 .cfa: x29 32 + x19: .cfa -16 + ^ .ra: .cfa -24 + ^ x29: .cfa -32 + ^
STACK CFI 4e54c .cfa: sp 32 +
STACK CFI 4e554 .cfa: sp 0 +
STACK CFI INIT 4e558 14 .cfa: sp 0 +
STACK CFI INIT 4e56c 4 .cfa: sp 0 +
STACK CFI INIT 4e570 4 .cfa: sp 0 +
STACK CFI INIT 4e574 8c .cfa: sp 0 +
STACK CFI 4e578 .cfa: sp 80 +
STACK CFI 4e588 .cfa: x29 48 + x19: .cfa -8 + ^ x20: .cfa -16 + ^ x21: .cfa -32 + ^ .ra: .cfa -40 + ^ x29: .cfa -48 + ^
STACK CFI 4e5e8 .cfa: sp 80 +
STACK CFI 4e5f8 .cfa: sp 0 +
STACK CFI 4e5fc .cfa: x29 48 +
STACK CFI INIT 4e600 1c .cfa: sp 0 +
STACK CFI INIT 4e61c c .cfa: sp 0 +
STACK CFI INIT 4e628 4 .cfa: sp 0 +
STACK CFI INIT 4e62c 34 .cfa: sp 0 +
STACK CFI 4e630 .cfa: sp 32 +
STACK CFI 4e638 .cfa: x29 32 + x19: .cfa -16 + ^ .ra: .cfa -24 + ^ x29: .cfa -32 + ^
STACK CFI 4e654 .cfa: sp 32 +
STACK CFI 4e65c .cfa: sp 0 +
STACK CFI INIT 4e660 14 .cfa: sp 0 +
STACK CFI INIT 4e674 4 .cfa: sp 0 +
STACK CFI INIT 4e678 4 .cfa: sp 0 +
STACK CFI INIT 4e67c 8c .cfa: sp 0 +
STACK CFI 4e680 .cfa: sp 80 +
STACK CFI 4e690 .cfa: x29 48 + x19: .cfa -8 + ^ x20: .cfa -16 + ^ x21: .cfa -32 + ^ .ra: .cfa -40 + ^ x29: .cfa -48 + ^
STACK CFI 4e6f0 .cfa: sp 80 +
STACK CFI 4e700 .cfa: sp 0 +
STACK CFI 4e704 .cfa: x29 48 +
STACK CFI INIT 4e708 1c .cfa: sp 0 +
STACK CFI INIT 4e724 c .cfa: sp 0 +
STACK CFI INIT 4e730 4 .cfa: sp 0 +
STACK CFI INIT 4e734 34 .cfa: sp 0 +
STACK CFI 4e738 .cfa: sp 32 +
STACK CFI 4e740 .cfa: x29 32 + x19: .cfa -16 + ^ .ra: .cfa -24 + ^ x29: .cfa -32 + ^
STACK CFI 4e75c .cfa: sp 32 +
STACK CFI 4e764 .cfa: sp 0 +
STACK CFI INIT 4e768 14 .cfa: sp 0 +
STACK CFI INIT 4e77c 4 .cfa: sp 0 +
STACK CFI INIT 4e780 4 .cfa: sp 0 +
STACK CFI INIT 4e784 8c .cfa: sp 0 +
STACK CFI 4e788 .cfa: sp 80 +
STACK CFI 4e798 .cfa: x29 48 + x19: .cfa -8 + ^ x20: .cfa -16 + ^ x21: .cfa -32 + ^ .ra: .cfa -40 + ^ x29: .cfa -48 + ^
STACK CFI 4e7f8 .cfa: sp 80 +
STACK CFI 4e808 .cfa: sp 0 +
STACK CFI 4e80c .cfa: x29 48 +
STACK CFI INIT 4e810 1c .cfa: sp 0 +
STACK CFI INIT 4e82c c .cfa: sp 0 +
STACK CFI INIT 4e838 4 .cfa: sp 0 +
STACK CFI INIT 4e83c 34 .cfa: sp 0 +
STACK CFI 4e840 .cfa: sp 32 +
STACK CFI 4e848 .cfa: x29 32 + x19: .cfa -16 + ^ .ra: .cfa -24 + ^ x29: .cfa -32 + ^
STACK CFI 4e864 .cfa: sp 32 +
STACK CFI 4e86c .cfa: sp 0 +
STACK CFI INIT 4e870 14 .cfa: sp 0 +
STACK CFI INIT 4e884 4 .cfa: sp 0 +
STACK CFI INIT 4e888 4 .cfa: sp 0 +
STACK CFI INIT 4e88c 8c .cfa: sp 0 +
STACK CFI 4e890 .cfa: sp 80 +
STACK CFI 4e8a0 .cfa: x29 48 + x19: .cfa -8 + ^ x20: .cfa -16 + ^ x21: .cfa -32 + ^ .ra: .cfa -40 + ^ x29: .cfa -48 + ^
STACK CFI 4e900 .cfa: sp 80 +
STACK CFI 4e910 .cfa: sp 0 +
STACK CFI 4e914 .cfa: x29 48 +
STACK CFI INIT 4e918 1c .cfa: sp 0 +
STACK CFI INIT 4e934 c .cfa: sp 0 +
STACK CFI INIT 4e940 4 .cfa: sp 0 +
STACK CFI INIT 4e944 34 .cfa: sp 0 +
STACK CFI 4e948 .cfa: sp 32 +
STACK CFI 4e950 .cfa: x29 32 + x19: .cfa -16 + ^ .ra: .cfa -24 + ^ x29: .cfa -32 + ^
STACK CFI 4e96c .cfa: sp 32 +
STACK CFI 4e974 .cfa: sp 0 +
STACK CFI INIT 4e978 14 .cfa: sp 0 +
STACK CFI INIT 4e98c 4 .cfa: sp 0 +
STACK CFI INIT 4e990 4 .cfa: sp 0 +
STACK CFI INIT 4e994 8c .cfa: sp 0 +
STACK CFI 4e998 .cfa: sp 80 +
STACK CFI 4e9a8 .cfa: x29 48 + x19: .cfa -8 + ^ x20: .cfa -16 + ^ x21: .cfa -32 + ^ .ra: .cfa -40 + ^ x29: .cfa -48 + ^
STACK CFI 4ea08 .cfa: sp 80 +
STACK CFI 4ea18 .cfa: sp 0 +
STACK CFI 4ea1c .cfa: x29 48 +
STACK CFI INIT 4ea20 1c .cfa: sp 0 +
STACK CFI INIT 4ea3c c .cfa: sp 0 +
STACK CFI INIT 4ea48 4 .cfa: sp 0 +
STACK CFI INIT 4ea4c 34 .cfa: sp 0 +
STACK CFI 4ea50 .cfa: sp 32 +
STACK CFI 4ea58 .cfa: x29 32 + x19: .cfa -16 + ^ .ra: .cfa -24 + ^ x29: .cfa -32 + ^
STACK CFI 4ea74 .cfa: sp 32 +
STACK CFI 4ea7c .cfa: sp 0 +
STACK CFI INIT 4ea80 14 .cfa: sp 0 +
STACK CFI INIT 4ea94 4 .cfa: sp 0 +
STACK CFI INIT 4ea98 4 .cfa: sp 0 +
STACK CFI INIT 4ea9c 8c .cfa: sp 0 +
STACK CFI 4eaa0 .cfa: sp 80 +
STACK CFI 4eab0 .cfa: x29 48 + x19: .cfa -8 + ^ x20: .cfa -16 + ^ x21: .cfa -32 + ^ .ra: .cfa -40 + ^ x29: .cfa -48 + ^
STACK CFI 4eb10 .cfa: sp 80 +
STACK CFI 4eb20 .cfa: sp 0 +
STACK CFI 4eb24 .cfa: x29 48 +
STACK CFI INIT 4eb28 1c .cfa: sp 0 +
STACK CFI INIT 4eb44 c .cfa: sp 0 +
STACK CFI INIT 4eb50 4 .cfa: sp 0 +
STACK CFI INIT 4eb54 34 .cfa: sp 0 +
STACK CFI 4eb58 .cfa: sp 32 +
STACK CFI 4eb60 .cfa: x29 32 + x19: .cfa -16 + ^ .ra: .cfa -24 + ^ x29: .cfa -32 + ^
STACK CFI 4eb7c .cfa: sp 32 +
STACK CFI 4eb84 .cfa: sp 0 +
STACK CFI INIT 4eb88 14 .cfa: sp 0 +
STACK CFI INIT 4eb9c 4 .cfa: sp 0 +
STACK CFI INIT 4eba0 4 .cfa: sp 0 +
STACK CFI INIT 4eba4 8c .cfa: sp 0 +
STACK CFI 4eba8 .cfa: sp 80 +
STACK CFI 4ebb8 .cfa: x29 48 + x19: .cfa -8 + ^ x20: .cfa -16 + ^ x21: .cfa -32 + ^ .ra: .cfa -40 + ^ x29: .cfa -48 + ^
STACK CFI 4ec18 .cfa: sp 80 +
STACK CFI 4ec28 .cfa: sp 0 +
STACK CFI 4ec2c .cfa: x29 48 +
STACK CFI INIT 4ec30 1c .cfa: sp 0 +
STACK CFI INIT 4ec4c c .cfa: sp 0 +
STACK CFI INIT 4ec58 4 .cfa: sp 0 +
STACK CFI INIT 4ec5c 34 .cfa: sp 0 +
STACK CFI 4ec60 .cfa: sp 32 +
STACK CFI 4ec68 .cfa: x29 32 + x19: .cfa -16 + ^ .ra: .cfa -24 + ^ x29: .cfa -32 + ^
STACK CFI 4ec84 .cfa: sp 32 +
STACK CFI 4ec8c .cfa: sp 0 +
STACK CFI INIT 4ec90 14 .cfa: sp 0 +
STACK CFI INIT 4eca4 4 .cfa: sp 0 +
STACK CFI INIT 4eca8 4 .cfa: sp 0 +
STACK CFI INIT 4ecac 8c .cfa: sp 0 +
STACK CFI 4ecb0 .cfa: sp 80 +
STACK CFI 4ecc0 .cfa: x29 48 + x19: .cfa -8 + ^ x20: .cfa -16 + ^ x21: .cfa -32 + ^ .ra: .cfa -40 + ^ x29: .cfa -48 + ^
STACK CFI 4ed20 .cfa: sp 80 +
STACK CFI 4ed30 .cfa: sp 0 +
STACK CFI 4ed34 .cfa: x29 48 +
STACK CFI INIT 4ed38 1c .cfa: sp 0 +
STACK CFI INIT 4ed54 c .cfa: sp 0 +
STACK CFI INIT 4ed60 4 .cfa: sp 0 +
STACK CFI INIT 4ed64 34 .cfa: sp 0 +
STACK CFI 4ed68 .cfa: sp 32 +
STACK CFI 4ed70 .cfa: x29 32 + x19: .cfa -16 + ^ .ra: .cfa -24 + ^ x29: .cfa -32 + ^
STACK CFI 4ed8c .cfa: sp 32 +
STACK CFI 4ed94 .cfa: sp 0 +
STACK CFI INIT 4ed98 14 .cfa: sp 0 +
STACK CFI INIT 4edac 4 .cfa: sp 0 +
STACK CFI INIT 4edb0 4 .cfa: sp 0 +
STACK CFI INIT 4edb4 8c .cfa: sp 0 +
STACK CFI 4edb8 .cfa: sp 80 +
STACK CFI 4edc8 .cfa: x29 48 + x19: .cfa -8 + ^ x20: .cfa -16 + ^ x21: .cfa -32 + ^ .ra: .cfa -40 + ^ x29: .cfa -48 + ^
STACK CFI 4ee28 .cfa: sp 80 +
STACK CFI 4ee38 .cfa: sp 0 +
STACK CFI 4ee3c .cfa: x29 48 +
STACK CFI INIT 4ee40 1c .cfa: sp 0 +
STACK CFI INIT 4ee5c c .cfa: sp 0 +
STACK CFI INIT 4ee68 4 .cfa: sp 0 +
STACK CFI INIT 4ee6c 34 .cfa: sp 0 +
STACK CFI 4ee70 .cfa: sp 32 +
STACK CFI 4ee78 .cfa: x29 32 + x19: .cfa -16 + ^ .ra: .cfa -24 + ^ x29: .cfa -32 + ^
STACK CFI 4ee94 .cfa: sp 32 +
STACK CFI 4ee9c .cfa: sp 0 +
STACK CFI INIT 4eea0 14 .cfa: sp 0 +
STACK CFI INIT 4eeb4 4 .cfa: sp 0 +
STACK CFI INIT 4eeb8 4 .cfa: sp 0 +
STACK CFI INIT 4eebc 8c .cfa: sp 0 +
STACK CFI 4eec0 .cfa: sp 80 +
STACK CFI 4eed0 .cfa: x29 48 + x19: .cfa -8 + ^ x20: .cfa -16 + ^ x21: .cfa -32 + ^ .ra: .cfa -40 + ^ x29: .cfa -48 + ^
STACK CFI 4ef30 .cfa: sp 80 +
STACK CFI 4ef40 .cfa: sp 0 +
STACK CFI 4ef44 .cfa: x29 48 +
STACK CFI INIT 4ef48 1c .cfa: sp 0 +
STACK CFI INIT 4ef64 c .cfa: sp 0 +
STACK CFI INIT 4ef70 4 .cfa: sp 0 +
STACK CFI INIT 4ef74 34 .cfa: sp 0 +
STACK CFI 4ef78 .cfa: sp 32 +
STACK CFI 4ef80 .cfa: x29 32 + x19: .cfa -16 + ^ .ra: .cfa -24 + ^ x29: .cfa -32 + ^
STACK CFI 4ef9c .cfa: sp 32 +
STACK CFI 4efa4 .cfa: sp 0 +
STACK CFI INIT 4efa8 14 .cfa: sp 0 +
STACK CFI INIT 4efbc 4 .cfa: sp 0 +
STACK CFI INIT 4efc0 4 .cfa: sp 0 +
STACK CFI INIT 4efc4 8c .cfa: sp 0 +
STACK CFI 4efc8 .cfa: sp 80 +
STACK CFI 4efd8 .cfa: x29 48 + x19: .cfa -8 + ^ x20: .cfa -16 + ^ x21: .cfa -32 + ^ .ra: .cfa -40 + ^ x29: .cfa -48 + ^
STACK CFI 4f038 .cfa: sp 80 +
STACK CFI 4f048 .cfa: sp 0 +
STACK CFI 4f04c .cfa: x29 48 +
STACK CFI INIT 4f050 1c .cfa: sp 0 +
STACK CFI INIT 4f06c c .cfa: sp 0 +
STACK CFI INIT 4f078 4 .cfa: sp 0 +
STACK CFI INIT 4f07c 34 .cfa: sp 0 +
STACK CFI 4f080 .cfa: sp 32 +
STACK CFI 4f088 .cfa: x29 32 + x19: .cfa -16 + ^ .ra: .cfa -24 + ^ x29: .cfa -32 + ^
STACK CFI 4f0a4 .cfa: sp 32 +
STACK CFI 4f0ac .cfa: sp 0 +
STACK CFI INIT 4f0b0 14 .cfa: sp 0 +
STACK CFI INIT 4f0c4 4 .cfa: sp 0 +
STACK CFI INIT 4f0c8 4 .cfa: sp 0 +
STACK CFI INIT 4f0cc 8c .cfa: sp 0 +
STACK CFI 4f0d0 .cfa: sp 80 +
STACK CFI 4f0e0 .cfa: x29 48 + x19: .cfa -8 + ^ x20: .cfa -16 + ^ x21: .cfa -32 + ^ .ra: .cfa -40 + ^ x29: .cfa -48 + ^
STACK CFI 4f140 .cfa: sp 80 +
STACK CFI 4f150 .cfa: sp 0 +
STACK CFI 4f154 .cfa: x29 48 +
STACK CFI INIT 4f158 1c .cfa: sp 0 +
STACK CFI INIT 4f174 c .cfa: sp 0 +
STACK CFI INIT 4f180 4 .cfa: sp 0 +
STACK CFI INIT 4f184 34 .cfa: sp 0 +
STACK CFI 4f188 .cfa: sp 32 +
STACK CFI 4f190 .cfa: x29 32 + x19: .cfa -16 + ^ .ra: .cfa -24 + ^ x29: .cfa -32 + ^
STACK CFI 4f1ac .cfa: sp 32 +
STACK CFI 4f1b4 .cfa: sp 0 +
STACK CFI INIT 4f1b8 14 .cfa: sp 0 +
STACK CFI INIT 4f1cc 4 .cfa: sp 0 +
STACK CFI INIT 4f1d0 4 .cfa: sp 0 +
STACK CFI INIT 4f1d4 8c .cfa: sp 0 +
STACK CFI 4f1d8 .cfa: sp 80 +
STACK CFI 4f1e8 .cfa: x29 48 + x19: .cfa -8 + ^ x20: .cfa -16 + ^ x21: .cfa -32 + ^ .ra: .cfa -40 + ^ x29: .cfa -48 + ^
STACK CFI 4f248 .cfa: sp 80 +
STACK CFI 4f258 .cfa: sp 0 +
STACK CFI 4f25c .cfa: x29 48 +
STACK CFI INIT 4f260 1c .cfa: sp 0 +
STACK CFI INIT 4f27c c .cfa: sp 0 +
STACK CFI INIT 4f288 4 .cfa: sp 0 +
STACK CFI INIT 4f28c 34 .cfa: sp 0 +
STACK CFI 4f290 .cfa: sp 32 +
STACK CFI 4f298 .cfa: x29 32 + x19: .cfa -16 + ^ .ra: .cfa -24 + ^ x29: .cfa -32 + ^
STACK CFI 4f2b4 .cfa: sp 32 +
STACK CFI 4f2bc .cfa: sp 0 +
STACK CFI INIT 4f2c0 14 .cfa: sp 0 +
STACK CFI INIT 4f2d4 4 .cfa: sp 0 +
STACK CFI INIT 4f2d8 4 .cfa: sp 0 +
STACK CFI INIT 4f2dc 8c .cfa: sp 0 +
STACK CFI 4f2e0 .cfa: sp 80 +
STACK CFI 4f2f0 .cfa: x29 48 + x19: .cfa -8 + ^ x20: .cfa -16 + ^ x21: .cfa -32 + ^ .ra: .cfa -40 + ^ x29: .cfa -48 + ^
STACK CFI 4f350 .cfa: sp 80 +
STACK CFI 4f360 .cfa: sp 0 +
STACK CFI 4f364 .cfa: x29 48 +
STACK CFI INIT 4f368 1c .cfa: sp 0 +
STACK CFI INIT 4f384 c .cfa: sp 0 +
STACK CFI INIT 4f390 4 .cfa: sp 0 +
STACK CFI INIT 4f394 34 .cfa: sp 0 +
STACK CFI 4f398 .cfa: sp 32 +
STACK CFI 4f3a0 .cfa: x29 32 + x19: .cfa -16 + ^ .ra: .cfa -24 + ^ x29: .cfa -32 + ^
STACK CFI 4f3bc .cfa: sp 32 +
STACK CFI 4f3c4 .cfa: sp 0 +
STACK CFI INIT 4f3c8 14 .cfa: sp 0 +
STACK CFI INIT 4f3dc 4 .cfa: sp 0 +
STACK CFI INIT 4f3e0 4 .cfa: sp 0 +
STACK CFI INIT 4f3e4 8c .cfa: sp 0 +
STACK CFI 4f3e8 .cfa: sp 80 +
STACK CFI 4f3f8 .cfa: x29 48 + x19: .cfa -8 + ^ x20: .cfa -16 + ^ x21: .cfa -32 + ^ .ra: .cfa -40 + ^ x29: .cfa -48 + ^
STACK CFI 4f458 .cfa: sp 80 +
STACK CFI 4f468 .cfa: sp 0 +
STACK CFI 4f46c .cfa: x29 48 +
STACK CFI INIT 4f470 1c .cfa: sp 0 +
STACK CFI INIT 4f48c c .cfa: sp 0 +
STACK CFI INIT 4f498 4 .cfa: sp 0 +
STACK CFI INIT 4f49c 34 .cfa: sp 0 +
STACK CFI 4f4a0 .cfa: sp 32 +
STACK CFI 4f4a8 .cfa: x29 32 + x19: .cfa -16 + ^ .ra: .cfa -24 + ^ x29: .cfa -32 + ^
STACK CFI 4f4c4 .cfa: sp 32 +
STACK CFI 4f4cc .cfa: sp 0 +
STACK CFI INIT 4f4d0 14 .cfa: sp 0 +
STACK CFI INIT 4f4e4 4 .cfa: sp 0 +
STACK CFI INIT 4f4e8 4 .cfa: sp 0 +
STACK CFI INIT 4f4ec 8c .cfa: sp 0 +
STACK CFI 4f4f0 .cfa: sp 80 +
STACK CFI 4f500 .cfa: x29 48 + x19: .cfa -8 + ^ x20: .cfa -16 + ^ x21: .cfa -32 + ^ .ra: .cfa -40 + ^ x29: .cfa -48 + ^
STACK CFI 4f560 .cfa: sp 80 +
STACK CFI 4f570 .cfa: sp 0 +
STACK CFI 4f574 .cfa: x29 48 +
STACK CFI INIT 4f578 1c .cfa: sp 0 +
STACK CFI INIT 4f594 c .cfa: sp 0 +
STACK CFI INIT 4f5a0 4 .cfa: sp 0 +
STACK CFI INIT 4f5a4 34 .cfa: sp 0 +
STACK CFI 4f5a8 .cfa: sp 32 +
STACK CFI 4f5b0 .cfa: x29 32 + x19: .cfa -16 + ^ .ra: .cfa -24 + ^ x29: .cfa -32 + ^
STACK CFI 4f5cc .cfa: sp 32 +
STACK CFI 4f5d4 .cfa: sp 0 +
STACK CFI INIT 4f5d8 14 .cfa: sp 0 +
STACK CFI INIT 4f5ec 4 .cfa: sp 0 +
STACK CFI INIT 4f5f0 4 .cfa: sp 0 +
STACK CFI INIT 4f5f4 8c .cfa: sp 0 +
STACK CFI 4f5f8 .cfa: sp 80 +
STACK CFI 4f608 .cfa: x29 48 + x19: .cfa -8 + ^ x20: .cfa -16 + ^ x21: .cfa -32 + ^ .ra: .cfa -40 + ^ x29: .cfa -48 + ^
STACK CFI 4f668 .cfa: sp 80 +
STACK CFI 4f678 .cfa: sp 0 +
STACK CFI 4f67c .cfa: x29 48 +
STACK CFI INIT 4f680 1c .cfa: sp 0 +
STACK CFI INIT 4f69c c .cfa: sp 0 +
STACK CFI INIT 4f6a8 4 .cfa: sp 0 +
STACK CFI INIT 4f6ac 34 .cfa: sp 0 +
STACK CFI 4f6b0 .cfa: sp 32 +
STACK CFI 4f6b8 .cfa: x29 32 + x19: .cfa -16 + ^ .ra: .cfa -24 + ^ x29: .cfa -32 + ^
STACK CFI 4f6d4 .cfa: sp 32 +
STACK CFI 4f6dc .cfa: sp 0 +
STACK CFI INIT 4f6e0 14 .cfa: sp 0 +
STACK CFI INIT 4f6f4 4 .cfa: sp 0 +
STACK CFI INIT 4f6f8 4 .cfa: sp 0 +
STACK CFI INIT 4f6fc 8c .cfa: sp 0 +
STACK CFI 4f700 .cfa: sp 80 +
STACK CFI 4f710 .cfa: x29 48 + x19: .cfa -8 + ^ x20: .cfa -16 + ^ x21: .cfa -32 + ^ .ra: .cfa -40 + ^ x29: .cfa -48 + ^
STACK CFI 4f770 .cfa: sp 80 +
STACK CFI 4f780 .cfa: sp 0 +
STACK CFI 4f784 .cfa: x29 48 +
STACK CFI INIT 4f788 1c .cfa: sp 0 +
STACK CFI INIT 4f7a4 c .cfa: sp 0 +
STACK CFI INIT 52254 b8 .cfa: sp 0 +
STACK CFI 52258 .cfa: sp 64 +
STACK CFI 52268 .cfa: x29 48 + x19: .cfa -8 + ^ x20: .cfa -16 + ^ x21: .cfa -32 + ^ .ra: .cfa -40 + ^ x29: .cfa -48 + ^
STACK CFI 522f4 .cfa: sp 64 +
STACK CFI 52304 .cfa: sp 0 +
STACK CFI 52308 .cfa: x29 48 +
STACK CFI INIT 5230c b8 .cfa: sp 0 +
STACK CFI 52310 .cfa: sp 64 +
STACK CFI 52320 .cfa: x29 48 + x19: .cfa -8 + ^ x20: .cfa -16 + ^ x21: .cfa -32 + ^ .ra: .cfa -40 + ^ x29: .cfa -48 + ^
STACK CFI 523ac .cfa: sp 64 +
STACK CFI 523bc .cfa: sp 0 +
STACK CFI 523c0 .cfa: x29 48 +
STACK CFI INIT 523c4 b8 .cfa: sp 0 +
STACK CFI 523c8 .cfa: sp 64 +
STACK CFI 523d8 .cfa: x29 48 + x19: .cfa -8 + ^ x20: .cfa -16 + ^ x21: .cfa -32 + ^ .ra: .cfa -40 + ^ x29: .cfa -48 + ^
STACK CFI 52464 .cfa: sp 64 +
STACK CFI 52474 .cfa: sp 0 +
STACK CFI 52478 .cfa: x29 48 +
STACK CFI INIT 5247c b8 .cfa: sp 0 +
STACK CFI 52480 .cfa: sp 64 +
STACK CFI 52490 .cfa: x29 48 + x19: .cfa -8 + ^ x20: .cfa -16 + ^ x21: .cfa -32 + ^ .ra: .cfa -40 + ^ x29: .cfa -48 + ^
STACK CFI 5251c .cfa: sp 64 +
STACK CFI 5252c .cfa: sp 0 +
STACK CFI 52530 .cfa: x29 48 +
STACK CFI INIT 52534 b8 .cfa: sp 0 +
STACK CFI 52538 .cfa: sp 64 +
STACK CFI 52548 .cfa: x29 48 + x19: .cfa -8 + ^ x20: .cfa -16 + ^ x21: .cfa -32 + ^ .ra: .cfa -40 + ^ x29: .cfa -48 + ^
STACK CFI 525d4 .cfa: sp 64 +
STACK CFI 525e4 .cfa: sp 0 +
STACK CFI 525e8 .cfa: x29 48 +
STACK CFI INIT 525ec b8 .cfa: sp 0 +
STACK CFI 525f0 .cfa: sp 64 +
STACK CFI 52600 .cfa: x29 48 + x19: .cfa -8 + ^ x20: .cfa -16 + ^ x21: .cfa -32 + ^ .ra: .cfa -40 + ^ x29: .cfa -48 + ^
STACK CFI 5268c .cfa: sp 64 +
STACK CFI 5269c .cfa: sp 0 +
STACK CFI 526a0 .cfa: x29 48 +
STACK CFI INIT 526a4 b8 .cfa: sp 0 +
STACK CFI 526a8 .cfa: sp 64 +
STACK CFI 526b8 .cfa: x29 48 + x19: .cfa -8 + ^ x20: .cfa -16 + ^ x21: .cfa -32 + ^ .ra: .cfa -40 + ^ x29: .cfa -48 + ^
STACK CFI 52744 .cfa: sp 64 +
STACK CFI 52754 .cfa: sp 0 +
STACK CFI 52758 .cfa: x29 48 +
STACK CFI INIT 5275c b8 .cfa: sp 0 +
STACK CFI 52760 .cfa: sp 64 +
STACK CFI 52770 .cfa: x29 48 + x19: .cfa -8 + ^ x20: .cfa -16 + ^ x21: .cfa -32 + ^ .ra: .cfa -40 + ^ x29: .cfa -48 + ^
STACK CFI 527fc .cfa: sp 64 +
STACK CFI 5280c .cfa: sp 0 +
STACK CFI 52810 .cfa: x29 48 +
STACK CFI INIT 52814 b8 .cfa: sp 0 +
STACK CFI 52818 .cfa: sp 64 +
STACK CFI 52828 .cfa: x29 48 + x19: .cfa -8 + ^ x20: .cfa -16 + ^ x21: .cfa -32 + ^ .ra: .cfa -40 + ^ x29: .cfa -48 + ^
STACK CFI 528b4 .cfa: sp 64 +
STACK CFI 528c4 .cfa: sp 0 +
STACK CFI 528c8 .cfa: x29 48 +
STACK CFI INIT 528cc b8 .cfa: sp 0 +
STACK CFI 528d0 .cfa: sp 64 +
STACK CFI 528e0 .cfa: x29 48 + x19: .cfa -8 + ^ x20: .cfa -16 + ^ x21: .cfa -32 + ^ .ra: .cfa -40 + ^ x29: .cfa -48 + ^
STACK CFI 5296c .cfa: sp 64 +
STACK CFI 5297c .cfa: sp 0 +
STACK CFI 52980 .cfa: x29 48 +
STACK CFI INIT 52a28 24 .cfa: sp 0 +
STACK CFI 52a2c .cfa: sp 32 +
STACK CFI 52a34 .cfa: x29 32 + x19: .cfa -16 + ^ .ra: .cfa -24 + ^ x29: .cfa -32 + ^
STACK CFI 52a40 .cfa: sp 32 +
STACK CFI 52a48 .cfa: sp 0 +
STACK CFI INIT 52a4c 8 .cfa: sp 0 +
STACK CFI INIT 52a54 28 .cfa: sp 0 +
STACK CFI 52a58 .cfa: sp 32 +
STACK CFI 52a60 .cfa: x29 32 + x19: .cfa -16 + ^ .ra: .cfa -24 + ^ x29: .cfa -32 + ^
STACK CFI 52a70 .cfa: sp 32 +
STACK CFI 52a78 .cfa: sp 0 +
STACK CFI INIT 52a7c 4 .cfa: sp 0 +
STACK CFI INIT 52a80 34 .cfa: sp 0 +
STACK CFI 52a84 .cfa: sp 32 +
STACK CFI 52a8c .cfa: x29 32 + x19: .cfa -16 + ^ .ra: .cfa -24 + ^ x29: .cfa -32 + ^
STACK CFI 52aa8 .cfa: sp 32 +
STACK CFI 52ab0 .cfa: sp 0 +
STACK CFI INIT 52ab4 14 .cfa: sp 0 +
STACK CFI INIT 52ac8 4 .cfa: sp 0 +
STACK CFI INIT 52acc 4 .cfa: sp 0 +
STACK CFI INIT 52ad0 8c .cfa: sp 0 +
STACK CFI 52ad4 .cfa: sp 80 +
STACK CFI 52ae4 .cfa: x29 48 + x19: .cfa -8 + ^ x20: .cfa -16 + ^ x21: .cfa -32 + ^ .ra: .cfa -40 + ^ x29: .cfa -48 + ^
STACK CFI 52b44 .cfa: sp 80 +
STACK CFI 52b54 .cfa: sp 0 +
STACK CFI 52b58 .cfa: x29 48 +
STACK CFI INIT 52b5c 1c .cfa: sp 0 +
STACK CFI INIT 52b78 c .cfa: sp 0 +
STACK CFI INIT 52b84 4 .cfa: sp 0 +
STACK CFI INIT 52b88 34 .cfa: sp 0 +
STACK CFI 52b8c .cfa: sp 32 +
STACK CFI 52b94 .cfa: x29 32 + x19: .cfa -16 + ^ .ra: .cfa -24 + ^ x29: .cfa -32 + ^
STACK CFI 52bb0 .cfa: sp 32 +
STACK CFI 52bb8 .cfa: sp 0 +
STACK CFI INIT 52bbc 14 .cfa: sp 0 +
STACK CFI INIT 52bd0 4 .cfa: sp 0 +
STACK CFI INIT 52bd4 4 .cfa: sp 0 +
STACK CFI INIT 52bd8 8c .cfa: sp 0 +
STACK CFI 52bdc .cfa: sp 80 +
STACK CFI 52bec .cfa: x29 48 + x19: .cfa -8 + ^ x20: .cfa -16 + ^ x21: .cfa -32 + ^ .ra: .cfa -40 + ^ x29: .cfa -48 + ^
STACK CFI 52c4c .cfa: sp 80 +
STACK CFI 52c5c .cfa: sp 0 +
STACK CFI 52c60 .cfa: x29 48 +
STACK CFI INIT 52c64 1c .cfa: sp 0 +
STACK CFI INIT 52c80 c .cfa: sp 0 +
STACK CFI INIT 52c8c 4 .cfa: sp 0 +
STACK CFI INIT 52c90 34 .cfa: sp 0 +
STACK CFI 52c94 .cfa: sp 32 +
STACK CFI 52c9c .cfa: x29 32 + x19: .cfa -16 + ^ .ra: .cfa -24 + ^ x29: .cfa -32 + ^
STACK CFI 52cb8 .cfa: sp 32 +
STACK CFI 52cc0 .cfa: sp 0 +
STACK CFI INIT 52cc4 14 .cfa: sp 0 +
STACK CFI INIT 52cd8 4 .cfa: sp 0 +
STACK CFI INIT 52cdc 4 .cfa: sp 0 +
STACK CFI INIT 52ce0 8c .cfa: sp 0 +
STACK CFI 52ce4 .cfa: sp 80 +
STACK CFI 52cf4 .cfa: x29 48 + x19: .cfa -8 + ^ x20: .cfa -16 + ^ x21: .cfa -32 + ^ .ra: .cfa -40 + ^ x29: .cfa -48 + ^
STACK CFI 52d54 .cfa: sp 80 +
STACK CFI 52d64 .cfa: sp 0 +
STACK CFI 52d68 .cfa: x29 48 +
STACK CFI INIT 52d6c 1c .cfa: sp 0 +
STACK CFI INIT 52d88 c .cfa: sp 0 +
STACK CFI INIT 52d94 4 .cfa: sp 0 +
STACK CFI INIT 52d98 34 .cfa: sp 0 +
STACK CFI 52d9c .cfa: sp 32 +
STACK CFI 52da4 .cfa: x29 32 + x19: .cfa -16 + ^ .ra: .cfa -24 + ^ x29: .cfa -32 + ^
STACK CFI 52dc0 .cfa: sp 32 +
STACK CFI 52dc8 .cfa: sp 0 +
STACK CFI INIT 52dcc 14 .cfa: sp 0 +
STACK CFI INIT 52de0 4 .cfa: sp 0 +
STACK CFI INIT 52de4 4 .cfa: sp 0 +
STACK CFI INIT 52de8 8c .cfa: sp 0 +
STACK CFI 52dec .cfa: sp 80 +
STACK CFI 52dfc .cfa: x29 48 + x19: .cfa -8 + ^ x20: .cfa -16 + ^ x21: .cfa -32 + ^ .ra: .cfa -40 + ^ x29: .cfa -48 + ^
STACK CFI 52e5c .cfa: sp 80 +
STACK CFI 52e6c .cfa: sp 0 +
STACK CFI 52e70 .cfa: x29 48 +
STACK CFI INIT 52e74 1c .cfa: sp 0 +
STACK CFI INIT 52e90 c .cfa: sp 0 +
STACK CFI INIT 52e9c 4 .cfa: sp 0 +
STACK CFI INIT 52ea0 34 .cfa: sp 0 +
STACK CFI 52ea4 .cfa: sp 32 +
STACK CFI 52eac .cfa: x29 32 + x19: .cfa -16 + ^ .ra: .cfa -24 + ^ x29: .cfa -32 + ^
STACK CFI 52ec8 .cfa: sp 32 +
STACK CFI 52ed0 .cfa: sp 0 +
STACK CFI INIT 52ed4 14 .cfa: sp 0 +
STACK CFI INIT 52ee8 4 .cfa: sp 0 +
STACK CFI INIT 52eec 4 .cfa: sp 0 +
STACK CFI INIT 52ef0 8c .cfa: sp 0 +
STACK CFI 52ef4 .cfa: sp 80 +
STACK CFI 52f04 .cfa: x29 48 + x19: .cfa -8 + ^ x20: .cfa -16 + ^ x21: .cfa -32 + ^ .ra: .cfa -40 + ^ x29: .cfa -48 + ^
STACK CFI 52f64 .cfa: sp 80 +
STACK CFI 52f74 .cfa: sp 0 +
STACK CFI 52f78 .cfa: x29 48 +
STACK CFI INIT 52f7c 1c .cfa: sp 0 +
STACK CFI INIT 52f98 c .cfa: sp 0 +
STACK CFI INIT 52fa4 4 .cfa: sp 0 +
STACK CFI INIT 52fa8 34 .cfa: sp 0 +
STACK CFI 52fac .cfa: sp 32 +
STACK CFI 52fb4 .cfa: x29 32 + x19: .cfa -16 + ^ .ra: .cfa -24 + ^ x29: .cfa -32 + ^
STACK CFI 52fd0 .cfa: sp 32 +
STACK CFI 52fd8 .cfa: sp 0 +
STACK CFI INIT 52fdc 14 .cfa: sp 0 +
STACK CFI INIT 52ff0 4 .cfa: sp 0 +
STACK CFI INIT 52ff4 4 .cfa: sp 0 +
STACK CFI INIT 52ff8 8c .cfa: sp 0 +
STACK CFI 52ffc .cfa: sp 80 +
STACK CFI 5300c .cfa: x29 48 + x19: .cfa -8 + ^ x20: .cfa -16 + ^ x21: .cfa -32 + ^ .ra: .cfa -40 + ^ x29: .cfa -48 + ^
STACK CFI 5306c .cfa: sp 80 +
STACK CFI 5307c .cfa: sp 0 +
STACK CFI 53080 .cfa: x29 48 +
STACK CFI INIT 53084 1c .cfa: sp 0 +
STACK CFI INIT 530a0 c .cfa: sp 0 +
STACK CFI INIT 530ac 4 .cfa: sp 0 +
STACK CFI INIT 530b0 34 .cfa: sp 0 +
STACK CFI 530b4 .cfa: sp 32 +
STACK CFI 530bc .cfa: x29 32 + x19: .cfa -16 + ^ .ra: .cfa -24 + ^ x29: .cfa -32 + ^
STACK CFI 530d8 .cfa: sp 32 +
STACK CFI 530e0 .cfa: sp 0 +
STACK CFI INIT 530e4 14 .cfa: sp 0 +
STACK CFI INIT 530f8 4 .cfa: sp 0 +
STACK CFI INIT 530fc 4 .cfa: sp 0 +
STACK CFI INIT 53100 8c .cfa: sp 0 +
STACK CFI 53104 .cfa: sp 80 +
STACK CFI 53114 .cfa: x29 48 + x19: .cfa -8 + ^ x20: .cfa -16 + ^ x21: .cfa -32 + ^ .ra: .cfa -40 + ^ x29: .cfa -48 + ^
STACK CFI 53174 .cfa: sp 80 +
STACK CFI 53184 .cfa: sp 0 +
STACK CFI 53188 .cfa: x29 48 +
STACK CFI INIT 5318c 1c .cfa: sp 0 +
STACK CFI INIT 531a8 c .cfa: sp 0 +
STACK CFI INIT 531b4 4 .cfa: sp 0 +
STACK CFI INIT 531b8 34 .cfa: sp 0 +
STACK CFI 531bc .cfa: sp 32 +
STACK CFI 531c4 .cfa: x29 32 + x19: .cfa -16 + ^ .ra: .cfa -24 + ^ x29: .cfa -32 + ^
STACK CFI 531e0 .cfa: sp 32 +
STACK CFI 531e8 .cfa: sp 0 +
STACK CFI INIT 531ec 14 .cfa: sp 0 +
STACK CFI INIT 53200 4 .cfa: sp 0 +
STACK CFI INIT 53204 4 .cfa: sp 0 +
STACK CFI INIT 53208 8c .cfa: sp 0 +
STACK CFI 5320c .cfa: sp 80 +
STACK CFI 5321c .cfa: x29 48 + x19: .cfa -8 + ^ x20: .cfa -16 + ^ x21: .cfa -32 + ^ .ra: .cfa -40 + ^ x29: .cfa -48 + ^
STACK CFI 5327c .cfa: sp 80 +
STACK CFI 5328c .cfa: sp 0 +
STACK CFI 53290 .cfa: x29 48 +
STACK CFI INIT 53294 1c .cfa: sp 0 +
STACK CFI INIT 532b0 c .cfa: sp 0 +
STACK CFI INIT 532bc 4 .cfa: sp 0 +
STACK CFI INIT 532c0 34 .cfa: sp 0 +
STACK CFI 532c4 .cfa: sp 32 +
STACK CFI 532cc .cfa: x29 32 + x19: .cfa -16 + ^ .ra: .cfa -24 + ^ x29: .cfa -32 + ^
STACK CFI 532e8 .cfa: sp 32 +
STACK CFI 532f0 .cfa: sp 0 +
STACK CFI INIT 532f4 14 .cfa: sp 0 +
STACK CFI INIT 53308 4 .cfa: sp 0 +
STACK CFI INIT 5330c 4 .cfa: sp 0 +
STACK CFI INIT 53310 8c .cfa: sp 0 +
STACK CFI 53314 .cfa: sp 80 +
STACK CFI 53324 .cfa: x29 48 + x19: .cfa -8 + ^ x20: .cfa -16 + ^ x21: .cfa -32 + ^ .ra: .cfa -40 + ^ x29: .cfa -48 + ^
STACK CFI 53384 .cfa: sp 80 +
STACK CFI 53394 .cfa: sp 0 +
STACK CFI 53398 .cfa: x29 48 +
STACK CFI INIT 5339c 1c .cfa: sp 0 +
STACK CFI INIT 533b8 c .cfa: sp 0 +
STACK CFI INIT 533c4 4 .cfa: sp 0 +
STACK CFI INIT 533c8 34 .cfa: sp 0 +
STACK CFI 533cc .cfa: sp 32 +
STACK CFI 533d4 .cfa: x29 32 + x19: .cfa -16 + ^ .ra: .cfa -24 + ^ x29: .cfa -32 + ^
STACK CFI 533f0 .cfa: sp 32 +
STACK CFI 533f8 .cfa: sp 0 +
STACK CFI INIT 533fc 14 .cfa: sp 0 +
STACK CFI INIT 53410 4 .cfa: sp 0 +
STACK CFI INIT 53414 4 .cfa: sp 0 +
STACK CFI INIT 53418 8c .cfa: sp 0 +
STACK CFI 5341c .cfa: sp 80 +
STACK CFI 5342c .cfa: x29 48 + x19: .cfa -8 + ^ x20: .cfa -16 + ^ x21: .cfa -32 + ^ .ra: .cfa -40 + ^ x29: .cfa -48 + ^
STACK CFI 5348c .cfa: sp 80 +
STACK CFI 5349c .cfa: sp 0 +
STACK CFI 534a0 .cfa: x29 48 +
STACK CFI INIT 534a4 1c .cfa: sp 0 +
STACK CFI INIT 534c0 c .cfa: sp 0 +
STACK CFI INIT 534cc 4 .cfa: sp 0 +
STACK CFI INIT 534d0 34 .cfa: sp 0 +
STACK CFI 534d4 .cfa: sp 32 +
STACK CFI 534dc .cfa: x29 32 + x19: .cfa -16 + ^ .ra: .cfa -24 + ^ x29: .cfa -32 + ^
STACK CFI 534f8 .cfa: sp 32 +
STACK CFI 53500 .cfa: sp 0 +
STACK CFI INIT 53504 14 .cfa: sp 0 +
STACK CFI INIT 53518 4 .cfa: sp 0 +
STACK CFI INIT 5351c 4 .cfa: sp 0 +
STACK CFI INIT 53520 8c .cfa: sp 0 +
STACK CFI 53524 .cfa: sp 80 +
STACK CFI 53534 .cfa: x29 48 + x19: .cfa -8 + ^ x20: .cfa -16 + ^ x21: .cfa -32 + ^ .ra: .cfa -40 + ^ x29: .cfa -48 + ^
STACK CFI 53594 .cfa: sp 80 +
STACK CFI 535a4 .cfa: sp 0 +
STACK CFI 535a8 .cfa: x29 48 +
STACK CFI INIT 535ac 1c .cfa: sp 0 +
STACK CFI INIT 535c8 c .cfa: sp 0 +
STACK CFI INIT 535d4 4 .cfa: sp 0 +
STACK CFI INIT 535d8 34 .cfa: sp 0 +
STACK CFI 535dc .cfa: sp 32 +
STACK CFI 535e4 .cfa: x29 32 + x19: .cfa -16 + ^ .ra: .cfa -24 + ^ x29: .cfa -32 + ^
STACK CFI 53600 .cfa: sp 32 +
STACK CFI 53608 .cfa: sp 0 +
STACK CFI INIT 5360c 14 .cfa: sp 0 +
STACK CFI INIT 53620 4 .cfa: sp 0 +
STACK CFI INIT 53624 4 .cfa: sp 0 +
STACK CFI INIT 53628 8c .cfa: sp 0 +
STACK CFI 5362c .cfa: sp 80 +
STACK CFI 5363c .cfa: x29 48 + x19: .cfa -8 + ^ x20: .cfa -16 + ^ x21: .cfa -32 + ^ .ra: .cfa -40 + ^ x29: .cfa -48 + ^
STACK CFI 5369c .cfa: sp 80 +
STACK CFI 536ac .cfa: sp 0 +
STACK CFI 536b0 .cfa: x29 48 +
STACK CFI INIT 536b4 1c .cfa: sp 0 +
STACK CFI INIT 536d0 c .cfa: sp 0 +
STACK CFI INIT 536dc 4 .cfa: sp 0 +
STACK CFI INIT 536e0 34 .cfa: sp 0 +
STACK CFI 536e4 .cfa: sp 32 +
STACK CFI 536ec .cfa: x29 32 + x19: .cfa -16 + ^ .ra: .cfa -24 + ^ x29: .cfa -32 + ^
STACK CFI 53708 .cfa: sp 32 +
STACK CFI 53710 .cfa: sp 0 +
STACK CFI INIT 53714 14 .cfa: sp 0 +
STACK CFI INIT 53728 4 .cfa: sp 0 +
STACK CFI INIT 5372c 4 .cfa: sp 0 +
STACK CFI INIT 53730 8c .cfa: sp 0 +
STACK CFI 53734 .cfa: sp 80 +
STACK CFI 53744 .cfa: x29 48 + x19: .cfa -8 + ^ x20: .cfa -16 + ^ x21: .cfa -32 + ^ .ra: .cfa -40 + ^ x29: .cfa -48 + ^
STACK CFI 537a4 .cfa: sp 80 +
STACK CFI 537b4 .cfa: sp 0 +
STACK CFI 537b8 .cfa: x29 48 +
STACK CFI INIT 537bc 1c .cfa: sp 0 +
STACK CFI INIT 537d8 c .cfa: sp 0 +
STACK CFI INIT 537e4 4 .cfa: sp 0 +
STACK CFI INIT 537e8 34 .cfa: sp 0 +
STACK CFI 537ec .cfa: sp 32 +
STACK CFI 537f4 .cfa: x29 32 + x19: .cfa -16 + ^ .ra: .cfa -24 + ^ x29: .cfa -32 + ^
STACK CFI 53810 .cfa: sp 32 +
STACK CFI 53818 .cfa: sp 0 +
STACK CFI INIT 5381c 14 .cfa: sp 0 +
STACK CFI INIT 53830 4 .cfa: sp 0 +
STACK CFI INIT 53834 4 .cfa: sp 0 +
STACK CFI INIT 53838 8c .cfa: sp 0 +
STACK CFI 5383c .cfa: sp 80 +
STACK CFI 5384c .cfa: x29 48 + x19: .cfa -8 + ^ x20: .cfa -16 + ^ x21: .cfa -32 + ^ .ra: .cfa -40 + ^ x29: .cfa -48 + ^
STACK CFI 538ac .cfa: sp 80 +
STACK CFI 538bc .cfa: sp 0 +
STACK CFI 538c0 .cfa: x29 48 +
STACK CFI INIT 538c4 1c .cfa: sp 0 +
STACK CFI INIT 538e0 c .cfa: sp 0 +
STACK CFI INIT 538ec 4 .cfa: sp 0 +
STACK CFI INIT 538f0 34 .cfa: sp 0 +
STACK CFI 538f4 .cfa: sp 32 +
STACK CFI 538fc .cfa: x29 32 + x19: .cfa -16 + ^ .ra: .cfa -24 + ^ x29: .cfa -32 + ^
STACK CFI 53918 .cfa: sp 32 +
STACK CFI 53920 .cfa: sp 0 +
STACK CFI INIT 53924 14 .cfa: sp 0 +
STACK CFI INIT 53938 4 .cfa: sp 0 +
STACK CFI INIT 5393c 4 .cfa: sp 0 +
STACK CFI INIT 53940 8c .cfa: sp 0 +
STACK CFI 53944 .cfa: sp 80 +
STACK CFI 53954 .cfa: x29 48 + x19: .cfa -8 + ^ x20: .cfa -16 + ^ x21: .cfa -32 + ^ .ra: .cfa -40 + ^ x29: .cfa -48 + ^
STACK CFI 539b4 .cfa: sp 80 +
STACK CFI 539c4 .cfa: sp 0 +
STACK CFI 539c8 .cfa: x29 48 +
STACK CFI INIT 539cc 1c .cfa: sp 0 +
STACK CFI INIT 539e8 c .cfa: sp 0 +
STACK CFI INIT 539f4 4 .cfa: sp 0 +
STACK CFI INIT 539f8 34 .cfa: sp 0 +
STACK CFI 539fc .cfa: sp 32 +
STACK CFI 53a04 .cfa: x29 32 + x19: .cfa -16 + ^ .ra: .cfa -24 + ^ x29: .cfa -32 + ^
STACK CFI 53a20 .cfa: sp 32 +
STACK CFI 53a28 .cfa: sp 0 +
STACK CFI INIT 53a2c 14 .cfa: sp 0 +
STACK CFI INIT 53a40 4 .cfa: sp 0 +
STACK CFI INIT 53a44 4 .cfa: sp 0 +
STACK CFI INIT 53a48 8c .cfa: sp 0 +
STACK CFI 53a4c .cfa: sp 80 +
STACK CFI 53a5c .cfa: x29 48 + x19: .cfa -8 + ^ x20: .cfa -16 + ^ x21: .cfa -32 + ^ .ra: .cfa -40 + ^ x29: .cfa -48 + ^
STACK CFI 53abc .cfa: sp 80 +
STACK CFI 53acc .cfa: sp 0 +
STACK CFI 53ad0 .cfa: x29 48 +
STACK CFI INIT 53ad4 1c .cfa: sp 0 +
STACK CFI INIT 53af0 c .cfa: sp 0 +
STACK CFI INIT 53afc 4 .cfa: sp 0 +
STACK CFI INIT 53b00 34 .cfa: sp 0 +
STACK CFI 53b04 .cfa: sp 32 +
STACK CFI 53b0c .cfa: x29 32 + x19: .cfa -16 + ^ .ra: .cfa -24 + ^ x29: .cfa -32 + ^
STACK CFI 53b28 .cfa: sp 32 +
STACK CFI 53b30 .cfa: sp 0 +
STACK CFI INIT 53b34 14 .cfa: sp 0 +
STACK CFI INIT 53b48 4 .cfa: sp 0 +
STACK CFI INIT 53b4c 4 .cfa: sp 0 +
STACK CFI INIT 53b50 8c .cfa: sp 0 +
STACK CFI 53b54 .cfa: sp 80 +
STACK CFI 53b64 .cfa: x29 48 + x19: .cfa -8 + ^ x20: .cfa -16 + ^ x21: .cfa -32 + ^ .ra: .cfa -40 + ^ x29: .cfa -48 + ^
STACK CFI 53bc4 .cfa: sp 80 +
STACK CFI 53bd4 .cfa: sp 0 +
STACK CFI 53bd8 .cfa: x29 48 +
STACK CFI INIT 53bdc 1c .cfa: sp 0 +
STACK CFI INIT 53bf8 c .cfa: sp 0 +
STACK CFI INIT 53c04 4 .cfa: sp 0 +
STACK CFI INIT 53c08 34 .cfa: sp 0 +
STACK CFI 53c0c .cfa: sp 32 +
STACK CFI 53c14 .cfa: x29 32 + x19: .cfa -16 + ^ .ra: .cfa -24 + ^ x29: .cfa -32 + ^
STACK CFI 53c30 .cfa: sp 32 +
STACK CFI 53c38 .cfa: sp 0 +
STACK CFI INIT 53c3c 14 .cfa: sp 0 +
STACK CFI INIT 53c50 4 .cfa: sp 0 +
STACK CFI INIT 53c54 4 .cfa: sp 0 +
STACK CFI INIT 53c58 8c .cfa: sp 0 +
STACK CFI 53c5c .cfa: sp 80 +
STACK CFI 53c6c .cfa: x29 48 + x19: .cfa -8 + ^ x20: .cfa -16 + ^ x21: .cfa -32 + ^ .ra: .cfa -40 + ^ x29: .cfa -48 + ^
STACK CFI 53ccc .cfa: sp 80 +
STACK CFI 53cdc .cfa: sp 0 +
STACK CFI 53ce0 .cfa: x29 48 +
STACK CFI INIT 53ce4 1c .cfa: sp 0 +
STACK CFI INIT 53d00 c .cfa: sp 0 +
STACK CFI INIT 53d0c 4 .cfa: sp 0 +
STACK CFI INIT 53d10 34 .cfa: sp 0 +
STACK CFI 53d14 .cfa: sp 32 +
STACK CFI 53d1c .cfa: x29 32 + x19: .cfa -16 + ^ .ra: .cfa -24 + ^ x29: .cfa -32 + ^
STACK CFI 53d38 .cfa: sp 32 +
STACK CFI 53d40 .cfa: sp 0 +
STACK CFI INIT 53d44 14 .cfa: sp 0 +
STACK CFI INIT 53d58 4 .cfa: sp 0 +
STACK CFI INIT 53d5c 4 .cfa: sp 0 +
STACK CFI INIT 53d60 8c .cfa: sp 0 +
STACK CFI 53d64 .cfa: sp 80 +
STACK CFI 53d74 .cfa: x29 48 + x19: .cfa -8 + ^ x20: .cfa -16 + ^ x21: .cfa -32 + ^ .ra: .cfa -40 + ^ x29: .cfa -48 + ^
STACK CFI 53dd4 .cfa: sp 80 +
STACK CFI 53de4 .cfa: sp 0 +
STACK CFI 53de8 .cfa: x29 48 +
STACK CFI INIT 53dec 1c .cfa: sp 0 +
STACK CFI INIT 53e08 c .cfa: sp 0 +
STACK CFI INIT 53e14 4 .cfa: sp 0 +
STACK CFI INIT 53e18 34 .cfa: sp 0 +
STACK CFI 53e1c .cfa: sp 32 +
STACK CFI 53e24 .cfa: x29 32 + x19: .cfa -16 + ^ .ra: .cfa -24 + ^ x29: .cfa -32 + ^
STACK CFI 53e40 .cfa: sp 32 +
STACK CFI 53e48 .cfa: sp 0 +
STACK CFI INIT 53e4c 14 .cfa: sp 0 +
STACK CFI INIT 53e60 4 .cfa: sp 0 +
STACK CFI INIT 53e64 4 .cfa: sp 0 +
STACK CFI INIT 53e68 8c .cfa: sp 0 +
STACK CFI 53e6c .cfa: sp 80 +
STACK CFI 53e7c .cfa: x29 48 + x19: .cfa -8 + ^ x20: .cfa -16 + ^ x21: .cfa -32 + ^ .ra: .cfa -40 + ^ x29: .cfa -48 + ^
STACK CFI 53edc .cfa: sp 80 +
STACK CFI 53eec .cfa: sp 0 +
STACK CFI 53ef0 .cfa: x29 48 +
STACK CFI INIT 53ef4 1c .cfa: sp 0 +
STACK CFI INIT 53f10 c .cfa: sp 0 +
STACK CFI INIT 53f1c 30 .cfa: sp 0 +
STACK CFI 53f20 .cfa: sp 32 +
STACK CFI 53f28 .cfa: x29 32 + x19: .cfa -16 + ^ .ra: .cfa -24 + ^ x29: .cfa -32 + ^
STACK CFI 53f40 .cfa: sp 32 +
STACK CFI 53f48 .cfa: sp 0 +
STACK CFI INIT 53f4c 30 .cfa: sp 0 +
STACK CFI 53f50 .cfa: sp 32 +
STACK CFI 53f58 .cfa: x29 32 + x19: .cfa -16 + ^ .ra: .cfa -24 + ^ x29: .cfa -32 + ^
STACK CFI 53f70 .cfa: sp 32 +
STACK CFI 53f78 .cfa: sp 0 +
STACK CFI INIT 53f7c 4c .cfa: sp 0 +
STACK CFI 53f80 .cfa: sp 32 +
STACK CFI 53f88 .cfa: x29 32 + x19: .cfa -8 + ^ x20: .cfa -16 + ^ .ra: .cfa -24 + ^ x29: .cfa -32 + ^
STACK CFI 53fb0 .cfa: sp 32 +
STACK CFI 53fb8 .cfa: sp 0 +
STACK CFI 53fbc .cfa: sp 32 +
STACK CFI 53fc4 .cfa: sp 0 +
STACK CFI INIT 541e8 64 .cfa: sp 0 +
STACK CFI 541ec .cfa: sp 32 +
STACK CFI 541f4 .cfa: x29 32 + x19: .cfa -16 + ^ .ra: .cfa -24 + ^ x29: .cfa -32 + ^
STACK CFI 54220 .cfa: sp 32 +
STACK CFI 54228 .cfa: sp 0 +
STACK CFI 5422c .cfa: x29 32 +
STACK CFI 54240 .cfa: sp 32 +
STACK CFI 54248 .cfa: sp 0 +
STACK CFI INIT 5424c 24 .cfa: sp 0 +
STACK CFI 54250 .cfa: sp 32 +
STACK CFI 54258 .cfa: x29 32 + x19: .cfa -16 + ^ .ra: .cfa -24 + ^ x29: .cfa -32 + ^
STACK CFI 54264 .cfa: sp 32 +
STACK CFI 5426c .cfa: sp 0 +
STACK CFI INIT 54270 24 .cfa: sp 0 +
STACK CFI 54274 .cfa: sp 32 +
STACK CFI 5427c .cfa: x29 32 + x19: .cfa -16 + ^ .ra: .cfa -24 + ^ x29: .cfa -32 + ^
STACK CFI 54288 .cfa: sp 32 +
STACK CFI 54290 .cfa: sp 0 +
STACK CFI INIT 54294 8 .cfa: sp 0 +
STACK CFI INIT 5429c 24 .cfa: sp 0 +
STACK CFI 542a0 .cfa: sp 32 +
STACK CFI 542a8 .cfa: x29 32 + x19: .cfa -16 + ^ .ra: .cfa -24 + ^ x29: .cfa -32 + ^
STACK CFI 542b4 .cfa: sp 32 +
STACK CFI 542bc .cfa: sp 0 +
STACK CFI INIT 542c0 28 .cfa: sp 0 +
STACK CFI 542c4 .cfa: sp 32 +
STACK CFI 542cc .cfa: x29 32 + x19: .cfa -16 + ^ .ra: .cfa -24 + ^ x29: .cfa -32 + ^
STACK CFI 542dc .cfa: sp 32 +
STACK CFI 542e4 .cfa: sp 0 +
STACK CFI INIT 54860 8 .cfa: sp 0 +
STACK CFI INIT 54868 24 .cfa: sp 0 +
STACK CFI 5486c .cfa: sp 32 +
STACK CFI 54874 .cfa: x29 32 + x19: .cfa -16 + ^ .ra: .cfa -24 + ^ x29: .cfa -32 + ^
STACK CFI 54880 .cfa: sp 32 +
STACK CFI 54888 .cfa: sp 0 +
STACK CFI INIT 5488c 28 .cfa: sp 0 +
STACK CFI 54890 .cfa: sp 32 +
STACK CFI 54898 .cfa: x29 32 + x19: .cfa -16 + ^ .ra: .cfa -24 + ^ x29: .cfa -32 + ^
STACK CFI 548a8 .cfa: sp 32 +
STACK CFI 548b0 .cfa: sp 0 +
STACK CFI INIT 54b14 8 .cfa: sp 0 +
STACK CFI INIT 54b1c 24 .cfa: sp 0 +
STACK CFI 54b20 .cfa: sp 32 +
STACK CFI 54b28 .cfa: x29 32 + x19: .cfa -16 + ^ .ra: .cfa -24 + ^ x29: .cfa -32 + ^
STACK CFI 54b34 .cfa: sp 32 +
STACK CFI 54b3c .cfa: sp 0 +
STACK CFI INIT 54b40 28 .cfa: sp 0 +
STACK CFI 54b44 .cfa: sp 32 +
STACK CFI 54b4c .cfa: x29 32 + x19: .cfa -16 + ^ .ra: .cfa -24 + ^ x29: .cfa -32 + ^
STACK CFI 54b5c .cfa: sp 32 +
STACK CFI 54b64 .cfa: sp 0 +
STACK CFI INIT 54b68 9c .cfa: sp 0 +
STACK CFI 54b6c .cfa: sp 32 +
STACK CFI 54b74 .cfa: x29 32 + x19: .cfa -16 + ^ .ra: .cfa -24 + ^ x29: .cfa -32 + ^
STACK CFI 54bf8 .cfa: sp 32 +
STACK CFI 54c00 .cfa: sp 0 +
STACK CFI INIT 54c04 8 .cfa: sp 0 +
STACK CFI INIT 54c0c 24 .cfa: sp 0 +
STACK CFI 54c10 .cfa: sp 32 +
STACK CFI 54c18 .cfa: x29 32 + x19: .cfa -16 + ^ .ra: .cfa -24 + ^ x29: .cfa -32 + ^
STACK CFI 54c24 .cfa: sp 32 +
STACK CFI 54c2c .cfa: sp 0 +
STACK CFI INIT 54c30 28 .cfa: sp 0 +
STACK CFI 54c34 .cfa: sp 32 +
STACK CFI 54c3c .cfa: x29 32 + x19: .cfa -16 + ^ .ra: .cfa -24 + ^ x29: .cfa -32 + ^
STACK CFI 54c4c .cfa: sp 32 +
STACK CFI 54c54 .cfa: sp 0 +
STACK CFI INIT 54c58 14 .cfa: sp 0 +
STACK CFI INIT 54c6c 1f8 .cfa: sp 0 +
STACK CFI 54c70 .cfa: sp 112 +
STACK CFI 54c90 .cfa: x29 72 + x19: .cfa -8 + ^ x20: .cfa -16 + ^ x21: .cfa -24 + ^ x22: .cfa -32 + ^ x23: .cfa -40 + ^ x24: .cfa -48 + ^ x25: .cfa -56 + ^ .ra: .cfa -64 + ^ x29: .cfa -72 + ^ v8: .cfa -80 + ^ v9: .cfa -88 + ^ v10: .cfa -96 + ^
STACK CFI 54e3c .cfa: sp 112 +
STACK CFI 54e5c .cfa: sp 0 +
STACK CFI 54e60 .cfa: x29 72 +
STACK CFI INIT 54e64 4 .cfa: sp 0 +
STACK CFI INIT 560e8 4 .cfa: sp 0 +
STACK CFI INIT 560ec 14 .cfa: sp 0 +
STACK CFI INIT 56530 c .cfa: sp 0 +
STACK CFI INIT 5653c 24c .cfa: sp 0 +
STACK CFI INIT 56788 a0 .cfa: sp 0 +
STACK CFI 56794 .cfa: sp 32 +
STACK CFI 567ec .cfa: sp 0 +
STACK CFI 567f0 .cfa: sp 32 +
STACK CFI 567f8 .cfa: sp 0 +
STACK CFI 567fc .cfa: sp 32 +
STACK CFI 56810 .cfa: sp 0 +
STACK CFI 56814 .cfa: sp 32 +
STACK CFI 56824 .cfa: sp 0 +
STACK CFI INIT 56828 38 .cfa: sp 0 +
STACK CFI 56834 .cfa: sp 32 +
STACK CFI 5685c .cfa: sp 0 +
STACK CFI INIT 56af4 70 .cfa: sp 0 +
STACK CFI 56af8 .cfa: sp 32 +
STACK CFI 56b00 .cfa: x29 32 + x19: .cfa -16 + ^ .ra: .cfa -24 + ^ x29: .cfa -32 + ^
STACK CFI 56b34 .cfa: sp 32 +
STACK CFI 56b3c .cfa: sp 0 +
STACK CFI 56b40 .cfa: x29 32 +
STACK CFI INIT 56bb4 2c .cfa: sp 0 +
STACK CFI 56bb8 .cfa: sp 32 +
STACK CFI 56bc0 .cfa: x29 32 + x19: .cfa -16 + ^ .ra: .cfa -24 + ^ x29: .cfa -32 + ^
STACK CFI 56bd4 .cfa: sp 32 +
STACK CFI 56bdc .cfa: sp 0 +
STACK CFI INIT 57330 64 .cfa: sp 0 +
STACK CFI 57334 .cfa: sp 32 +
STACK CFI 5733c .cfa: x29 32 + x19: .cfa -16 + ^ .ra: .cfa -24 + ^ x29: .cfa -32 + ^
STACK CFI 57358 .cfa: sp 32 +
STACK CFI 57360 .cfa: sp 0 +
STACK CFI 57364 .cfa: x29 32 +
STACK CFI 57388 .cfa: sp 32 +
STACK CFI 57390 .cfa: sp 0 +
STACK CFI INIT 574d0 3c8 .cfa: sp 0 +
STACK CFI 574d4 .cfa: sp 208 +
STACK CFI 574e8 .cfa: x29 64 + x19: .cfa -8 + ^ x20: .cfa -16 + ^ x21: .cfa -24 + ^ x22: .cfa -32 + ^ x23: .cfa -40 + ^ x24: .cfa -48 + ^ .ra: .cfa -56 + ^ x29: .cfa -64 + ^
STACK CFI 57700 .cfa: sp 208 +
STACK CFI 57714 .cfa: sp 0 +
STACK CFI 57718 .cfa: x29 64 +
STACK CFI INIT 57898 228 .cfa: sp 0 +
STACK CFI INIT 57ac0 2b4 .cfa: sp 0 +
STACK CFI INIT 57d74 530 .cfa: sp 0 +
STACK CFI INIT 582a4 78 .cfa: sp 0 +
STACK CFI 582a8 .cfa: sp 48 +
STACK CFI 582b4 .cfa: x29 48 + x19: .cfa -8 + ^ x20: .cfa -16 + ^ x21: .cfa -24 + ^ x22: .cfa -32 + ^ .ra: .cfa -40 + ^ x29: .cfa -48 + ^
STACK CFI 582fc .cfa: sp 48 +
STACK CFI 58308 .cfa: sp 0 +
STACK CFI 5830c .cfa: sp 48 +
STACK CFI 58318 .cfa: sp 0 +
STACK CFI INIT 5831c 78 .cfa: sp 0 +
STACK CFI 58320 .cfa: sp 32 +
STACK CFI 58328 .cfa: x29 32 + x19: .cfa -16 + ^ .ra: .cfa -24 + ^ x29: .cfa -32 + ^
STACK CFI 58364 .cfa: sp 32 +
STACK CFI 5836c .cfa: sp 0 +
STACK CFI 58370 .cfa: x29 32 +
STACK CFI INIT 58394 24 .cfa: sp 0 +
STACK CFI 58398 .cfa: sp 32 +
STACK CFI 583a0 .cfa: x29 32 + x19: .cfa -16 + ^ .ra: .cfa -24 + ^ x29: .cfa -32 + ^
STACK CFI 583ac .cfa: sp 32 +
STACK CFI 583b4 .cfa: sp 0 +
STACK CFI INIT 583b8 150 .cfa: sp 0 +
STACK CFI 583bc .cfa: sp 48 +
STACK CFI 583c8 .cfa: x29 48 + x19: .cfa -8 + ^ x20: .cfa -16 + ^ x21: .cfa -24 + ^ x22: .cfa -32 + ^ .ra: .cfa -40 + ^ x29: .cfa -48 + ^
STACK CFI 584f8 .cfa: sp 48 +
STACK CFI 58504 .cfa: sp 0 +
STACK CFI INIT 58508 6c .cfa: sp 0 +
STACK CFI 5850c .cfa: sp 64 +
STACK CFI 58518 .cfa: x29 32 + x19: .cfa -16 + ^ .ra: .cfa -24 + ^ x29: .cfa -32 + ^
STACK CFI 58560 .cfa: sp 64 +
STACK CFI 5856c .cfa: sp 0 +
STACK CFI 58570 .cfa: x29 32 +
STACK CFI INIT 58574 74 .cfa: sp 0 +
STACK CFI 58578 .cfa: sp 32 +
STACK CFI 58580 .cfa: x29 32 + x19: .cfa -8 + ^ x20: .cfa -16 + ^ .ra: .cfa -24 + ^ x29: .cfa -32 + ^
STACK CFI 585dc .cfa: sp 32 +
STACK CFI 585e4 .cfa: sp 0 +
STACK CFI INIT 585e8 f0 .cfa: sp 0 +
STACK CFI 585ec .cfa: sp 112 +
STACK CFI 585fc .cfa: x29 48 + x19: .cfa -8 + ^ x20: .cfa -16 + ^ x21: .cfa -32 + ^ .ra: .cfa -40 + ^ x29: .cfa -48 + ^
STACK CFI 586c0 .cfa: sp 112 +
STACK CFI 586d0 .cfa: sp 0 +
STACK CFI 586d4 .cfa: x29 48 +
STACK CFI INIT 586d8 f0 .cfa: sp 0 +
STACK CFI 586dc .cfa: sp 112 +
STACK CFI 586ec .cfa: x29 48 + x19: .cfa -8 + ^ x20: .cfa -16 + ^ x21: .cfa -32 + ^ .ra: .cfa -40 + ^ x29: .cfa -48 + ^
STACK CFI 587b0 .cfa: sp 112 +
STACK CFI 587c0 .cfa: sp 0 +
STACK CFI 587c4 .cfa: x29 48 +
STACK CFI INIT 587c8 48 .cfa: sp 0 +
STACK CFI 587cc .cfa: sp 32 +
STACK CFI 587d4 .cfa: x29 32 + x19: .cfa -8 + ^ x20: .cfa -16 + ^ .ra: .cfa -24 + ^ x29: .cfa -32 + ^
STACK CFI 587f8 .cfa: sp 32 +
STACK CFI 58800 .cfa: sp 0 +
STACK CFI 58804 .cfa: x29 32 +
STACK CFI INIT 58810 9c .cfa: sp 0 +
STACK CFI 58814 .cfa: sp 80 +
STACK CFI 58820 .cfa: x29 32 + x19: .cfa -16 + ^ .ra: .cfa -24 + ^ x29: .cfa -32 + ^
STACK CFI 58898 .cfa: sp 80 +
STACK CFI 588a4 .cfa: sp 0 +
STACK CFI 588a8 .cfa: x29 32 +
STACK CFI INIT 588ac 220 .cfa: sp 0 +
STACK CFI 588b0 .cfa: sp 112 +
STACK CFI 588c8 .cfa: x29 80 + x19: .cfa -8 + ^ x20: .cfa -16 + ^ x21: .cfa -24 + ^ x22: .cfa -32 + ^ x23: .cfa -40 + ^ x24: .cfa -48 + ^ x25: .cfa -64 + ^ .ra: .cfa -72 + ^ x29: .cfa -80 + ^
STACK CFI 58a8c .cfa: sp 112 +
STACK CFI 58aa4 .cfa: sp 0 +
STACK CFI 58aa8 .cfa: x29 80 +
STACK CFI INIT 58acc 150 .cfa: sp 0 +
STACK CFI 58ad0 .cfa: sp 48 +
STACK CFI 58adc .cfa: x29 48 + x19: .cfa -8 + ^ x20: .cfa -16 + ^ x21: .cfa -24 + ^ x22: .cfa -32 + ^ .ra: .cfa -40 + ^ x29: .cfa -48 + ^
STACK CFI 58c0c .cfa: sp 48 +
STACK CFI 58c18 .cfa: sp 0 +
STACK CFI INIT 58c1c 1c4 .cfa: sp 0 +
STACK CFI 58c20 .cfa: sp 96 +
STACK CFI 58c34 .cfa: x29 64 + x19: .cfa -8 + ^ x20: .cfa -16 + ^ x21: .cfa -24 + ^ x22: .cfa -32 + ^ x23: .cfa -40 + ^ x24: .cfa -48 + ^ .ra: .cfa -56 + ^ x29: .cfa -64 + ^
STACK CFI 58da4 .cfa: sp 96 +
STACK CFI 58db8 .cfa: sp 0 +
STACK CFI 58dbc .cfa: x29 64 +
STACK CFI INIT 58de0 244 .cfa: sp 0 +
STACK CFI 58de4 .cfa: sp 112 +
STACK CFI 58dfc .cfa: x29 80 + x19: .cfa -8 + ^ x20: .cfa -16 + ^ x21: .cfa -24 + ^ x22: .cfa -32 + ^ x23: .cfa -40 + ^ x24: .cfa -48 + ^ x25: .cfa -64 + ^ .ra: .cfa -72 + ^ x29: .cfa -80 + ^
STACK CFI 58fe4 .cfa: sp 112 +
STACK CFI 58ffc .cfa: sp 0 +
STACK CFI 59000 .cfa: x29 80 +
STACK CFI INIT 59024 1ec .cfa: sp 0 +
STACK CFI 59028 .cfa: sp 96 +
STACK CFI 5903c .cfa: x29 64 + x19: .cfa -8 + ^ x20: .cfa -16 + ^ x21: .cfa -24 + ^ x22: .cfa -32 + ^ x23: .cfa -40 + ^ x24: .cfa -48 + ^ .ra: .cfa -56 + ^ x29: .cfa -64 + ^
STACK CFI 591d4 .cfa: sp 96 +
STACK CFI 591e8 .cfa: sp 0 +
STACK CFI 591ec .cfa: x29 64 +
STACK CFI INIT 59210 304 .cfa: sp 0 +
STACK CFI 59214 .cfa: sp 160 +
STACK CFI 59230 .cfa: x29 96 + x19: .cfa -8 + ^ x20: .cfa -16 + ^ x21: .cfa -24 + ^ x22: .cfa -32 + ^ x23: .cfa -40 + ^ x24: .cfa -48 + ^ x25: .cfa -56 + ^ x26: .cfa -64 + ^ x27: .cfa -72 + ^ x28: .cfa -80 + ^ .ra: .cfa -88 + ^ x29: .cfa -96 + ^
STACK CFI 594b8 .cfa: sp 160 +
STACK CFI 594d4 .cfa: sp 0 +
STACK CFI 594d8 .cfa: x29 96 +
STACK CFI INIT 59514 2a4 .cfa: sp 0 +
STACK CFI 59518 .cfa: sp 144 +
STACK CFI 59534 .cfa: x29 96 + x19: .cfa -8 + ^ x20: .cfa -16 + ^ x21: .cfa -24 + ^ x22: .cfa -32 + ^ x23: .cfa -40 + ^ x24: .cfa -48 + ^ x25: .cfa -56 + ^ x26: .cfa -64 + ^ x27: .cfa -72 + ^ x28: .cfa -80 + ^ .ra: .cfa -88 + ^ x29: .cfa -96 + ^
STACK CFI 5975c .cfa: sp 144 +
STACK CFI 59778 .cfa: sp 0 +
STACK CFI 5977c .cfa: x29 96 +
STACK CFI INIT 597b8 290 .cfa: sp 0 +
STACK CFI 597bc .cfa: sp 128 +
STACK CFI 597d4 .cfa: x29 80 + x19: .cfa -8 + ^ x20: .cfa -16 + ^ x21: .cfa -24 + ^ x22: .cfa -32 + ^ x23: .cfa -40 + ^ x24: .cfa -48 + ^ x25: .cfa -56 + ^ x26: .cfa -64 + ^ .ra: .cfa -72 + ^ x29: .cfa -80 + ^
STACK CFI 59a28 .cfa: sp 128 +
STACK CFI 59a40 .cfa: sp 0 +
STACK CFI 59a44 .cfa: x29 80 +
STACK CFI INIT 59a48 dac .cfa: sp 0 +
STACK CFI 59a4c .cfa: sp 144 +
STACK CFI 59a68 .cfa: x29 96 + x19: .cfa -8 + ^ x20: .cfa -16 + ^ x21: .cfa -24 + ^ x22: .cfa -32 + ^ x23: .cfa -40 + ^ x24: .cfa -48 + ^ x25: .cfa -56 + ^ x26: .cfa -64 + ^ x27: .cfa -72 + ^ x28: .cfa -80 + ^ .ra: .cfa -88 + ^ x29: .cfa -96 + ^
STACK CFI 5a7d0 .cfa: sp 144 +
STACK CFI 5a7ec .cfa: sp 0 +
STACK CFI 5a7f0 .cfa: x29 96 +
STACK CFI INIT 5a7f4 1d0 .cfa: sp 0 +
STACK CFI 5a7f8 .cfa: sp 80 +
STACK CFI 5a80c .cfa: x29 80 + x19: .cfa -8 + ^ x20: .cfa -16 + ^ x21: .cfa -24 + ^ x22: .cfa -32 + ^ x23: .cfa -40 + ^ x24: .cfa -48 + ^ x25: .cfa -56 + ^ x26: .cfa -64 + ^ .ra: .cfa -72 + ^ x29: .cfa -80 + ^
STACK CFI 5a9ac .cfa: sp 80 +
STACK CFI 5a9c0 .cfa: sp 0 +
STACK CFI INIT 5a9c4 22c .cfa: sp 0 +
STACK CFI 5a9c8 .cfa: sp 112 +
STACK CFI 5a9dc .cfa: x29 64 + x19: .cfa -8 + ^ x20: .cfa -16 + ^ x21: .cfa -24 + ^ x22: .cfa -32 + ^ x23: .cfa -40 + ^ x24: .cfa -48 + ^ .ra: .cfa -56 + ^ x29: .cfa -64 + ^
STACK CFI 5aba8 .cfa: sp 112 +
STACK CFI 5abbc .cfa: sp 0 +
STACK CFI 5abc0 .cfa: x29 64 +
STACK CFI INIT 5abf0 30c .cfa: sp 0 +
STACK CFI 5abf4 .cfa: sp 80 +
STACK CFI 5ac08 .cfa: x29 64 + x19: .cfa -8 + ^ x20: .cfa -16 + ^ x21: .cfa -24 + ^ x22: .cfa -32 + ^ x23: .cfa -40 + ^ x24: .cfa -48 + ^ .ra: .cfa -56 + ^ x29: .cfa -64 + ^
STACK CFI 5ad84 .cfa: sp 80 +
STACK CFI 5ad98 .cfa: sp 0 +
STACK CFI 5ad9c .cfa: x29 64 +
STACK CFI INIT 5aefc 178 .cfa: sp 0 +
STACK CFI 5af00 .cfa: sp 80 +
STACK CFI 5af14 .cfa: x29 64 + x19: .cfa -8 + ^ x20: .cfa -16 + ^ x21: .cfa -24 + ^ x22: .cfa -32 + ^ x23: .cfa -40 + ^ x24: .cfa -48 + ^ .ra: .cfa -56 + ^ x29: .cfa -64 + ^
STACK CFI 5b058 .cfa: sp 80 +
STACK CFI 5b06c .cfa: sp 0 +
STACK CFI 5b070 .cfa: x29 64 +
STACK CFI INIT 5b074 178 .cfa: sp 0 +
STACK CFI 5b078 .cfa: sp 80 +
STACK CFI 5b08c .cfa: x29 64 + x19: .cfa -8 + ^ x20: .cfa -16 + ^ x21: .cfa -24 + ^ x22: .cfa -32 + ^ x23: .cfa -40 + ^ x24: .cfa -48 + ^ .ra: .cfa -56 + ^ x29: .cfa -64 + ^
STACK CFI 5b1d0 .cfa: sp 80 +
STACK CFI 5b1e4 .cfa: sp 0 +
STACK CFI 5b1e8 .cfa: x29 64 +
STACK CFI INIT 5b1ec 240 .cfa: sp 0 +
STACK CFI 5b1f0 .cfa: sp 96 +
STACK CFI 5b208 .cfa: x29 96 + x19: .cfa -8 + ^ x20: .cfa -16 + ^ x21: .cfa -24 + ^ x22: .cfa -32 + ^ x23: .cfa -40 + ^ x24: .cfa -48 + ^ x25: .cfa -56 + ^ x26: .cfa -64 + ^ x27: .cfa -72 + ^ x28: .cfa -80 + ^ .ra: .cfa -88 + ^ x29: .cfa -96 + ^
STACK CFI 5b410 .cfa: sp 96 +
STACK CFI 5b428 .cfa: sp 0 +
STACK CFI INIT 5c058 154 .cfa: sp 0 +
STACK CFI 5c05c .cfa: sp 96 +
STACK CFI 5c070 .cfa: x29 64 + x19: .cfa -8 + ^ x20: .cfa -16 + ^ x21: .cfa -24 + ^ x22: .cfa -32 + ^ x23: .cfa -48 + ^ .ra: .cfa -56 + ^ x29: .cfa -64 + ^
STACK CFI 5c150 .cfa: sp 96 +
STACK CFI 5c164 .cfa: sp 0 +
STACK CFI 5c168 .cfa: x29 64 +
STACK CFI INIT 5c3e0 44 .cfa: sp 0 +
STACK CFI 5c3e4 .cfa: sp 32 +
STACK CFI 5c3ec .cfa: x29 32 + x19: .cfa -16 + ^ .ra: .cfa -24 + ^ x29: .cfa -32 + ^
STACK CFI 5c408 .cfa: sp 32 +
STACK CFI 5c410 .cfa: sp 0 +
STACK CFI 5c414 .cfa: x29 32 +
STACK CFI 5c418 .cfa: sp 32 +
STACK CFI 5c420 .cfa: sp 0 +
STACK CFI INIT 5c424 1a4 .cfa: sp 0 +
STACK CFI 5c428 .cfa: sp 64 +
STACK CFI 5c438 .cfa: x29 64 + x19: .cfa -8 + ^ x20: .cfa -16 + ^ x21: .cfa -24 + ^ x22: .cfa -32 + ^ x23: .cfa -40 + ^ x24: .cfa -48 + ^ .ra: .cfa -56 + ^ x29: .cfa -64 + ^
STACK CFI 5c5b4 .cfa: sp 64 +
STACK CFI 5c5c4 .cfa: sp 0 +
STACK CFI INIT 5c5c8 17c .cfa: sp 0 +
STACK CFI INIT 5c744 ac .cfa: sp 0 +
STACK CFI 5c748 .cfa: sp 64 +
STACK CFI 5c758 .cfa: x29 64 + x19: .cfa -8 + ^ x20: .cfa -16 + ^ x21: .cfa -24 + ^ x22: .cfa -32 + ^ x23: .cfa -48 + ^ .ra: .cfa -56 + ^ x29: .cfa -64 + ^
STACK CFI 5c7d4 .cfa: sp 64 +
STACK CFI 5c7e4 .cfa: sp 0 +
STACK CFI 5c7e8 .cfa: x29 64 +
STACK CFI INIT 5c7f0 11c .cfa: sp 0 +
STACK CFI 5c7f4 .cfa: sp 64 +
STACK CFI 5c804 .cfa: x29 64 + x19: .cfa -8 + ^ x20: .cfa -16 + ^ x21: .cfa -24 + ^ x22: .cfa -32 + ^ x23: .cfa -40 + ^ x24: .cfa -48 + ^ .ra: .cfa -56 + ^ x29: .cfa -64 + ^
STACK CFI 5c8f0 .cfa: sp 64 +
STACK CFI 5c900 .cfa: sp 0 +
STACK CFI 5c904 .cfa: x29 64 +
STACK CFI INIT 5ccb0 a0 .cfa: sp 0 +
STACK CFI 5ccb4 .cfa: sp 48 +
STACK CFI 5ccc0 .cfa: x29 48 + x19: .cfa -8 + ^ x20: .cfa -16 + ^ x21: .cfa -24 + ^ x22: .cfa -32 + ^ .ra: .cfa -40 + ^ x29: .cfa -48 + ^
STACK CFI 5cd2c .cfa: sp 48 +
STACK CFI 5cd38 .cfa: sp 0 +
STACK CFI 5cd3c .cfa: sp 48 +
STACK CFI 5cd48 .cfa: sp 0 +
STACK CFI 5cd4c .cfa: x29 48 +
STACK CFI INIT 5d9b8 158 .cfa: sp 0 +
STACK CFI 5d9bc .cfa: sp 96 +
STACK CFI 5d9d0 .cfa: x29 64 + x19: .cfa -8 + ^ x20: .cfa -16 + ^ x21: .cfa -24 + ^ x22: .cfa -32 + ^ x23: .cfa -48 + ^ .ra: .cfa -56 + ^ x29: .cfa -64 + ^
STACK CFI 5dab4 .cfa: sp 96 +
STACK CFI 5dac8 .cfa: sp 0 +
STACK CFI 5dacc .cfa: x29 64 +
STACK CFI INIT 5db10 190 .cfa: sp 0 +
STACK CFI INIT 5e758 1dc .cfa: sp 0 +
STACK CFI 5e75c .cfa: sp 80 +
STACK CFI 5e770 .cfa: x29 80 + x19: .cfa -8 + ^ x20: .cfa -16 + ^ x21: .cfa -24 + ^ x22: .cfa -32 + ^ x23: .cfa -40 + ^ x24: .cfa -48 + ^ x25: .cfa -64 + ^ .ra: .cfa -72 + ^ x29: .cfa -80 + ^
STACK CFI 5e91c .cfa: sp 80 +
STACK CFI 5e930 .cfa: sp 0 +
STACK CFI INIT 5fc70 124 .cfa: sp 0 +
STACK CFI 5fca0 .cfa: sp 32 +
STACK CFI 5fca8 .cfa: x29 32 + x19: .cfa -8 + ^ x20: .cfa -16 + ^ .ra: .cfa -24 + ^ x29: .cfa -32 + ^
STACK CFI 5fd88 .cfa: sp 32 +
STACK CFI 5fd90 .cfa: sp 0 +
STACK CFI INIT 604d8 2f8 .cfa: sp 0 +
STACK CFI 604dc .cfa: sp 64 +
STACK CFI 604ec .cfa: x29 64 + x19: .cfa -8 + ^ x20: .cfa -16 + ^ x21: .cfa -24 + ^ x22: .cfa -32 + ^ x23: .cfa -40 + ^ x24: .cfa -48 + ^ .ra: .cfa -56 + ^ x29: .cfa -64 + ^
STACK CFI 6074c .cfa: sp 64 +
STACK CFI 6075c .cfa: sp 0 +
STACK CFI 60760 .cfa: x29 64 +
STACK CFI INIT 607d0 a0 .cfa: sp 0 +
STACK CFI 607d4 .cfa: sp 48 +
STACK CFI 607e0 .cfa: x29 48 + x19: .cfa -8 + ^ x20: .cfa -16 + ^ x21: .cfa -24 + ^ x22: .cfa -32 + ^ .ra: .cfa -40 + ^ x29: .cfa -48 + ^
STACK CFI 6084c .cfa: sp 48 +
STACK CFI 60858 .cfa: sp 0 +
STACK CFI 6085c .cfa: sp 48 +
STACK CFI 60868 .cfa: sp 0 +
STACK CFI 6086c .cfa: x29 48 +
STACK CFI INIT 616f0 160 .cfa: sp 0 +
STACK CFI 616f4 .cfa: sp 64 +
STACK CFI 61704 .cfa: x29 64 + x19: .cfa -8 + ^ x20: .cfa -16 + ^ x21: .cfa -24 + ^ x22: .cfa -32 + ^ x23: .cfa -48 + ^ .ra: .cfa -56 + ^ x29: .cfa -64 + ^
STACK CFI 617fc .cfa: sp 64 +
STACK CFI 6180c .cfa: sp 0 +
STACK CFI 61810 .cfa: x29 64 +
STACK CFI INIT 61850 214 .cfa: sp 0 +
STACK CFI 61854 .cfa: sp 128 +
STACK CFI 61870 .cfa: x29 96 + x19: .cfa -8 + ^ x20: .cfa -16 + ^ x21: .cfa -24 + ^ x22: .cfa -32 + ^ x23: .cfa -40 + ^ x24: .cfa -48 + ^ x25: .cfa -56 + ^ x26: .cfa -64 + ^ x27: .cfa -80 + ^ .ra: .cfa -88 + ^ x29: .cfa -96 + ^
STACK CFI 619ec .cfa: sp 128 +
STACK CFI 61a08 .cfa: sp 0 +
STACK CFI 61a0c .cfa: x29 96 +
STACK CFI INIT 63684 288 .cfa: sp 0 +
STACK CFI 63688 .cfa: sp 16 +
STACK CFI 6368c .cfa: x29 16 + .ra: .cfa -8 + ^ x29: .cfa -16 + ^
STACK CFI 638d4 .cfa: sp 16 +
STACK CFI 638d8 .cfa: sp 0 +
STACK CFI 638dc .cfa: x29 16 +
STACK CFI INIT 6390c 134 .cfa: sp 0 +
STACK CFI 63910 .cfa: sp 96 +
STACK CFI 63928 .cfa: x29 96 + x19: .cfa -8 + ^ x20: .cfa -16 + ^ x21: .cfa -24 + ^ x22: .cfa -32 + ^ x23: .cfa -40 + ^ x24: .cfa -48 + ^ x25: .cfa -56 + ^ x26: .cfa -64 + ^ x27: .cfa -72 + ^ x28: .cfa -80 + ^ .ra: .cfa -88 + ^ x29: .cfa -96 + ^
STACK CFI 639f8 .cfa: sp 96 +
STACK CFI 639fc .cfa: x29 96 +
STACK CFI 63a00 .cfa: sp 96 +
STACK CFI 63a18 .cfa: sp 0 +
STACK CFI 63a1c .cfa: x29 96 +
STACK CFI 63a3c .cfa: sp 96 +
STACK CFI INIT 63a40 e1c .cfa: sp 0 +
STACK CFI 63a44 .cfa: sp 192 +
STACK CFI 63a60 .cfa: x29 96 + x19: .cfa -8 + ^ x20: .cfa -16 + ^ x21: .cfa -24 + ^ x22: .cfa -32 + ^ x23: .cfa -40 + ^ x24: .cfa -48 + ^ x25: .cfa -56 + ^ x26: .cfa -64 + ^ x27: .cfa -72 + ^ x28: .cfa -80 + ^ .ra: .cfa -88 + ^ x29: .cfa -96 + ^
STACK CFI 64838 .cfa: sp 192 +
STACK CFI 64854 .cfa: sp 0 +
STACK CFI 64858 .cfa: x29 96 +
STACK CFI INIT 6485c fc8 .cfa: sp 0 +
STACK CFI 64860 .cfa: sp 288 +
STACK CFI 6487c .cfa: x29 96 + x19: .cfa -8 + ^ x20: .cfa -16 + ^ x21: .cfa -24 + ^ x22: .cfa -32 + ^ x23: .cfa -40 + ^ x24: .cfa -48 + ^ x25: .cfa -56 + ^ x26: .cfa -64 + ^ x27: .cfa -72 + ^ x28: .cfa -80 + ^ .ra: .cfa -88 + ^ x29: .cfa -96 + ^
STACK CFI 65800 .cfa: sp 288 +
STACK CFI 6581c .cfa: sp 0 +
STACK CFI 65820 .cfa: x29 96 +
STACK CFI INIT 65824 510 .cfa: sp 0 +
STACK CFI 65828 .cfa: sp 144 +
STACK CFI 65844 .cfa: x29 96 + x19: .cfa -8 + ^ x20: .cfa -16 + ^ x21: .cfa -24 + ^ x22: .cfa -32 + ^ x23: .cfa -40 + ^ x24: .cfa -48 + ^ x25: .cfa -56 + ^ x26: .cfa -64 + ^ x27: .cfa -72 + ^ x28: .cfa -80 + ^ .ra: .cfa -88 + ^ x29: .cfa -96 + ^
STACK CFI 65d10 .cfa: sp 144 +
STACK CFI 65d2c .cfa: sp 0 +
STACK CFI 65d30 .cfa: x29 96 +
STACK CFI INIT 66748 cb0 .cfa: sp 0 +
STACK CFI 6674c .cfa: sp 192 +
STACK CFI 66768 .cfa: x29 96 + x19: .cfa -8 + ^ x20: .cfa -16 + ^ x21: .cfa -24 + ^ x22: .cfa -32 + ^ x23: .cfa -40 + ^ x24: .cfa -48 + ^ x25: .cfa -56 + ^ x26: .cfa -64 + ^ x27: .cfa -72 + ^ x28: .cfa -80 + ^ .ra: .cfa -88 + ^ x29: .cfa -96 + ^
STACK CFI 673d4 .cfa: sp 192 +
STACK CFI 673f0 .cfa: sp 0 +
STACK CFI 673f4 .cfa: x29 96 +
STACK CFI INIT 673f8 18c .cfa: sp 0 +
STACK CFI 673fc .cfa: sp 96 +
STACK CFI 67414 .cfa: x29 96 + x19: .cfa -8 + ^ x20: .cfa -16 + ^ x21: .cfa -24 + ^ x22: .cfa -32 + ^ x23: .cfa -40 + ^ x24: .cfa -48 + ^ x25: .cfa -56 + ^ x26: .cfa -64 + ^ x27: .cfa -80 + ^ .ra: .cfa -88 + ^ x29: .cfa -96 + ^
STACK CFI 67514 .cfa: sp 96 +
STACK CFI 6752c .cfa: sp 0 +
STACK CFI 67530 .cfa: x29 96 +
STACK CFI INIT 67584 1b8 .cfa: sp 0 +
STACK CFI INIT 37050 ac8 .cfa: sp 0 +
STACK CFI 37054 .cfa: sp 240 +
STACK CFI 37070 .cfa: x29 96 + x19: .cfa -8 + ^ x20: .cfa -16 + ^ x21: .cfa -24 + ^ x22: .cfa -32 + ^ x23: .cfa -40 + ^ x24: .cfa -48 + ^ x25: .cfa -56 + ^ x26: .cfa -64 + ^ x27: .cfa -72 + ^ x28: .cfa -80 + ^ .ra: .cfa -88 + ^ x29: .cfa -96 + ^
STACK CFI 373bc .cfa: sp 240 +
STACK CFI 373d8 .cfa: sp 0 +
STACK CFI 373dc .cfa: x29 96 +
STACK CFI 379c4 .cfa: sp 240 +
STACK CFI 379e0 .cfa: sp 0 +
STACK CFI 379e4 .cfa: x29 96 +
STACK CFI INIT 37b30 668 .cfa: sp 0 +
STACK CFI 37b34 .cfa: sp 240 +
STACK CFI 37b50 .cfa: x29 96 + x19: .cfa -8 + ^ x20: .cfa -16 + ^ x21: .cfa -24 + ^ x22: .cfa -32 + ^ x23: .cfa -40 + ^ x24: .cfa -48 + ^ x25: .cfa -56 + ^ x26: .cfa -64 + ^ x27: .cfa -80 + ^ .ra: .cfa -88 + ^ x29: .cfa -96 + ^
STACK CFI 37fe4 .cfa: sp 240 +
STACK CFI 38000 .cfa: sp 0 +
STACK CFI 38004 .cfa: x29 96 +
STACK CFI INIT 381e8 74 .cfa: sp 0 +
STACK CFI 381ec .cfa: sp 48 +
STACK CFI 381f8 .cfa: x29 32 + x19: .cfa -8 + ^ x20: .cfa -16 + ^ .ra: .cfa -24 + ^ x29: .cfa -32 + ^
STACK CFI 38244 .cfa: sp 48 +
STACK CFI 38250 .cfa: sp 0 +
STACK CFI 38254 .cfa: x29 32 +
STACK CFI INIT 382ec 154 .cfa: sp 0 +
STACK CFI 382f0 .cfa: sp 384 +
STACK CFI 38304 .cfa: x29 64 + x19: .cfa -8 + ^ x20: .cfa -16 + ^ x21: .cfa -24 + ^ x22: .cfa -32 + ^ x23: .cfa -40 + ^ x28: .cfa -48 + ^ .ra: .cfa -56 + ^ x29: .cfa -64 + ^
STACK CFI 383e8 .cfa: sp 384 +
STACK CFI 383fc .cfa: sp 0 +
STACK CFI 38400 .cfa: x29 64 +
STACK CFI INIT 38474 128 .cfa: sp 0 +
STACK CFI 38478 .cfa: sp 80 +
STACK CFI 3848c .cfa: x29 80 + x19: .cfa -8 + ^ x20: .cfa -16 + ^ x21: .cfa -24 + ^ x22: .cfa -32 + ^ x23: .cfa -40 + ^ x24: .cfa -48 + ^ x25: .cfa -56 + ^ x26: .cfa -64 + ^ .ra: .cfa -72 + ^ x29: .cfa -80 + ^
STACK CFI 3855c .cfa: sp 80 +
STACK CFI 38570 .cfa: sp 0 +
STACK CFI 38574 .cfa: x29 80 +
STACK CFI INIT 38640 198 .cfa: sp 0 +
STACK CFI 38644 .cfa: sp 112 +
STACK CFI 3865c .cfa: x29 80 + x19: .cfa -8 + ^ x20: .cfa -16 + ^ x21: .cfa -24 + ^ x22: .cfa -32 + ^ x23: .cfa -40 + ^ x24: .cfa -48 + ^ x25: .cfa -56 + ^ x26: .cfa -64 + ^ .ra: .cfa -72 + ^ x29: .cfa -80 + ^
STACK CFI 3874c .cfa: sp 112 +
STACK CFI 38764 .cfa: sp 0 +
STACK CFI 38768 .cfa: x29 80 +
STACK CFI INIT 387d8 1c4 .cfa: sp 0 +
STACK CFI 387dc .cfa: sp 128 +
STACK CFI 387f8 .cfa: x29 96 + x19: .cfa -8 + ^ x20: .cfa -16 + ^ x21: .cfa -24 + ^ x22: .cfa -32 + ^ x23: .cfa -40 + ^ x24: .cfa -48 + ^ x25: .cfa -56 + ^ x26: .cfa -64 + ^ x27: .cfa -80 + ^ .ra: .cfa -88 + ^ x29: .cfa -96 + ^
STACK CFI 3894c .cfa: sp 128 +
STACK CFI 38968 .cfa: sp 0 +
STACK CFI 3896c .cfa: x29 96 +
STACK CFI INIT 389b0 50 .cfa: sp 0 +
STACK CFI 389b4 .cfa: sp 32 +
STACK CFI 389bc .cfa: x29 32 + x19: .cfa -8 + ^ x20: .cfa -16 + ^ .ra: .cfa -24 + ^ x29: .cfa -32 + ^
STACK CFI INIT 38a64 15c .cfa: sp 0 +
STACK CFI 38a68 .cfa: sp 48 +
STACK CFI 38a74 .cfa: x29 48 + x19: .cfa -8 + ^ x20: .cfa -16 + ^ x21: .cfa -32 + ^ .ra: .cfa -40 + ^ x29: .cfa -48 + ^
STACK CFI 38b94 .cfa: sp 48 +
STACK CFI 38ba0 .cfa: sp 0 +
STACK CFI 38ba4 .cfa: x29 48 +
STACK CFI INIT 38d90 50 .cfa: sp 0 +
STACK CFI 38d94 .cfa: sp 32 +
STACK CFI 38d9c .cfa: x29 32 + x19: .cfa -8 + ^ x20: .cfa -16 + ^ .ra: .cfa -24 + ^ x29: .cfa -32 + ^
STACK CFI INIT 38fac 378 .cfa: sp 0 +
STACK CFI 38fb0 .cfa: sp 128 +
STACK CFI 38fc4 .cfa: x29 64 + x19: .cfa -8 + ^ x20: .cfa -16 + ^ x21: .cfa -24 + ^ x22: .cfa -32 + ^ x23: .cfa -48 + ^ .ra: .cfa -56 + ^ x29: .cfa -64 + ^
STACK CFI 392bc .cfa: sp 128 +
STACK CFI 392d0 .cfa: sp 0 +
STACK CFI 392d4 .cfa: x29 64 +
STACK CFI INIT 39414 184 .cfa: sp 0 +
STACK CFI 39418 .cfa: sp 96 +
STACK CFI 39428 .cfa: x29 48 + x19: .cfa -8 + ^ x20: .cfa -16 + ^ x21: .cfa -24 + ^ x22: .cfa -32 + ^ .ra: .cfa -40 + ^ x29: .cfa -48 + ^
STACK CFI 39514 .cfa: sp 96 +
STACK CFI 39524 .cfa: sp 0 +
STACK CFI 39528 .cfa: x29 48 +
STACK CFI INIT 396e8 5a0 .cfa: sp 0 +
STACK CFI 396ec .cfa: sp 224 +
STACK CFI 39708 .cfa: x29 96 + x19: .cfa -8 + ^ x20: .cfa -16 + ^ x21: .cfa -24 + ^ x22: .cfa -32 + ^ x23: .cfa -40 + ^ x24: .cfa -48 + ^ x25: .cfa -56 + ^ x26: .cfa -64 + ^ x27: .cfa -72 + ^ x28: .cfa -80 + ^ .ra: .cfa -88 + ^ x29: .cfa -96 + ^
STACK CFI 39b1c .cfa: sp 224 +
STACK CFI 39b38 .cfa: sp 0 +
STACK CFI 39b3c .cfa: x29 96 +
STACK CFI INIT 39ffc 1ed0 .cfa: sp 0 +
STACK CFI 3a000 .cfa: sp 112 +
STACK CFI 3a01c .cfa: x29 96 + x19: .cfa -8 + ^ x20: .cfa -16 + ^ x21: .cfa -24 + ^ x22: .cfa -32 + ^ x23: .cfa -40 + ^ x24: .cfa -48 + ^ x25: .cfa -56 + ^ x26: .cfa -64 + ^ x27: .cfa -72 + ^ x28: .cfa -80 + ^ .ra: .cfa -88 + ^ x29: .cfa -96 + ^ v8: .cfa -112 + ^
STACK CFI 3bbbc .cfa: sp 112 +
STACK CFI 3bbd8 .cfa: sp 0 +
STACK CFI 3bbdc .cfa: x29 96 +
STACK CFI INIT 3bed0 298 .cfa: sp 0 +
STACK CFI 3bed4 .cfa: sp 208 +
STACK CFI 3bee8 .cfa: x29 64 + x19: .cfa -8 + ^ x20: .cfa -16 + ^ x21: .cfa -24 + ^ x22: .cfa -32 + ^ x23: .cfa -40 + ^ x24: .cfa -48 + ^ .ra: .cfa -56 + ^ x29: .cfa -64 + ^
STACK CFI 3c0cc .cfa: sp 208 +
STACK CFI 3c0e0 .cfa: sp 0 +
STACK CFI 3c0e4 .cfa: x29 64 +
STACK CFI INIT 3c778 ac .cfa: sp 0 +
STACK CFI 3c77c .cfa: sp 32 +
STACK CFI 3c784 .cfa: x29 32 + x19: .cfa -8 + ^ x20: .cfa -16 + ^ .ra: .cfa -24 + ^ x29: .cfa -32 + ^
STACK CFI 3c804 .cfa: sp 32 +
STACK CFI 3c80c .cfa: sp 0 +
STACK CFI 3c810 .cfa: x29 32 +
STACK CFI INIT 3c8a8 74 .cfa: sp 0 +
STACK CFI 3c8ac .cfa: sp 48 +
STACK CFI 3c8b8 .cfa: x29 32 + x19: .cfa -8 + ^ x20: .cfa -16 + ^ .ra: .cfa -24 + ^ x29: .cfa -32 + ^
STACK CFI 3c904 .cfa: sp 48 +
STACK CFI 3c910 .cfa: sp 0 +
STACK CFI 3c914 .cfa: x29 32 +
STACK CFI INIT 3c91c 74 .cfa: sp 0 +
STACK CFI 3c920 .cfa: sp 48 +
STACK CFI 3c92c .cfa: x29 32 + x19: .cfa -8 + ^ x20: .cfa -16 + ^ .ra: .cfa -24 + ^ x29: .cfa -32 + ^
STACK CFI 3c978 .cfa: sp 48 +
STACK CFI 3c984 .cfa: sp 0 +
STACK CFI 3c988 .cfa: x29 32 +
STACK CFI INIT 3cad8 140 .cfa: sp 0 +
STACK CFI 3cadc .cfa: sp 128 +
STACK CFI 3caf4 .cfa: x29 80 + x19: .cfa -8 + ^ x20: .cfa -16 + ^ x21: .cfa -24 + ^ x22: .cfa -32 + ^ x23: .cfa -40 + ^ x24: .cfa -48 + ^ x25: .cfa -64 + ^ .ra: .cfa -72 + ^ x29: .cfa -80 + ^
STACK CFI 3cba4 .cfa: sp 128 +
STACK CFI 3cbbc .cfa: sp 0 +
STACK CFI 3cbc0 .cfa: x29 80 +
STACK CFI INIT 3cc18 1dc .cfa: sp 0 +
STACK CFI 3cc1c .cfa: sp 160 +
STACK CFI 3cc2c .cfa: x29 48 + x19: .cfa -8 + ^ x20: .cfa -16 + ^ x21: .cfa -24 + ^ x22: .cfa -32 + ^ .ra: .cfa -40 + ^ x29: .cfa -48 + ^
STACK CFI 3cd84 .cfa: sp 160 +
STACK CFI 3cd94 .cfa: sp 0 +
STACK CFI 3cd98 .cfa: x29 48 +
STACK CFI INIT 3d218 2e30 .cfa: sp 0 +
STACK CFI 3d21c .cfa: sp 96 +
STACK CFI 3d234 .cfa: x29 96 + x19: .cfa -8 + ^ x20: .cfa -16 + ^ x21: .cfa -24 + ^ x22: .cfa -32 + ^ x23: .cfa -40 + ^ x24: .cfa -48 + ^ x25: .cfa -56 + ^ x26: .cfa -64 + ^ x28: .cfa -80 + ^ .ra: .cfa -88 + ^ x29: .cfa -96 + ^
STACK CFI 3fa1c .cfa: sp 96 +
STACK CFI 3fa34 .cfa: sp 0 +
STACK CFI 3fa38 .cfa: x29 96 +
STACK CFI INIT 40048 d0 .cfa: sp 0 +
STACK CFI 4004c .cfa: sp 80 +
STACK CFI 40060 .cfa: x29 64 + x19: .cfa -8 + ^ x20: .cfa -16 + ^ x21: .cfa -24 + ^ x22: .cfa -32 + ^ x23: .cfa -40 + ^ x24: .cfa -48 + ^ .ra: .cfa -56 + ^ x29: .cfa -64 + ^
STACK CFI 400d8 .cfa: sp 80 +
STACK CFI 400ec .cfa: sp 0 +
STACK CFI 400f0 .cfa: x29 64 +
STACK CFI INIT 401d0 1d0 .cfa: sp 0 +
STACK CFI 401d4 .cfa: sp 208 +
STACK CFI 401ec .cfa: x29 80 + x19: .cfa -8 + ^ x20: .cfa -16 + ^ x21: .cfa -24 + ^ x22: .cfa -32 + ^ x23: .cfa -40 + ^ x24: .cfa -48 + ^ x25: .cfa -64 + ^ .ra: .cfa -72 + ^ x29: .cfa -80 + ^
STACK CFI 4032c .cfa: sp 208 +
STACK CFI 40344 .cfa: sp 0 +
STACK CFI 40348 .cfa: x29 80 +
STACK CFI INIT 40a18 a4 .cfa: sp 0 +
STACK CFI 40a1c .cfa: sp 32 +
STACK CFI 40a24 .cfa: x29 32 + x19: .cfa -8 + ^ x20: .cfa -16 + ^ .ra: .cfa -24 + ^ x29: .cfa -32 + ^
STACK CFI 40a9c .cfa: sp 32 +
STACK CFI 40aa4 .cfa: sp 0 +
STACK CFI 40aa8 .cfa: x29 32 +
STACK CFI INIT 40b38 17c .cfa: sp 0 +
STACK CFI 40b3c .cfa: sp 160 +
STACK CFI 40b4c .cfa: x29 48 + x19: .cfa -8 + ^ x20: .cfa -16 + ^ x21: .cfa -32 + ^ .ra: .cfa -40 + ^ x29: .cfa -48 + ^
STACK CFI 40c58 .cfa: sp 160 +
STACK CFI 40c68 .cfa: sp 0 +
STACK CFI 40c6c .cfa: x29 48 +
STACK CFI INIT 4216c 2aa4 .cfa: sp 0 +
STACK CFI 42170 .cfa: sp 96 +
STACK CFI 42188 .cfa: x29 96 + x19: .cfa -8 + ^ x20: .cfa -16 + ^ x21: .cfa -24 + ^ x22: .cfa -32 + ^ x23: .cfa -40 + ^ x24: .cfa -48 + ^ x25: .cfa -56 + ^ x26: .cfa -64 + ^ x28: .cfa -80 + ^ .ra: .cfa -88 + ^ x29: .cfa -96 + ^
STACK CFI 447d0 .cfa: sp 96 +
STACK CFI 447e8 .cfa: sp 0 +
STACK CFI 447ec .cfa: x29 96 +
STACK CFI INIT 45340 a4 .cfa: sp 0 +
STACK CFI 45344 .cfa: sp 32 +
STACK CFI 4534c .cfa: x29 32 + x19: .cfa -8 + ^ x20: .cfa -16 + ^ .ra: .cfa -24 + ^ x29: .cfa -32 + ^
STACK CFI 453c4 .cfa: sp 32 +
STACK CFI 453cc .cfa: sp 0 +
STACK CFI 453d0 .cfa: x29 32 +
STACK CFI INIT 468d8 2aa4 .cfa: sp 0 +
STACK CFI 468dc .cfa: sp 96 +
STACK CFI 468f4 .cfa: x29 96 + x19: .cfa -8 + ^ x20: .cfa -16 + ^ x21: .cfa -24 + ^ x22: .cfa -32 + ^ x23: .cfa -40 + ^ x24: .cfa -48 + ^ x25: .cfa -56 + ^ x26: .cfa -64 + ^ x28: .cfa -80 + ^ .ra: .cfa -88 + ^ x29: .cfa -96 + ^
STACK CFI 48f3c .cfa: sp 96 +
STACK CFI 48f54 .cfa: sp 0 +
STACK CFI 48f58 .cfa: x29 96 +
STACK CFI INIT 49aac a4 .cfa: sp 0 +
STACK CFI 49ab0 .cfa: sp 32 +
STACK CFI 49ab8 .cfa: x29 32 + x19: .cfa -8 + ^ x20: .cfa -16 + ^ .ra: .cfa -24 + ^ x29: .cfa -32 + ^
STACK CFI 49b30 .cfa: sp 32 +
STACK CFI 49b38 .cfa: sp 0 +
STACK CFI 49b3c .cfa: x29 32 +
STACK CFI INIT 4b044 2aa4 .cfa: sp 0 +
STACK CFI 4b048 .cfa: sp 96 +
STACK CFI 4b060 .cfa: x29 96 + x19: .cfa -8 + ^ x20: .cfa -16 + ^ x21: .cfa -24 + ^ x22: .cfa -32 + ^ x23: .cfa -40 + ^ x24: .cfa -48 + ^ x25: .cfa -56 + ^ x26: .cfa -64 + ^ x28: .cfa -80 + ^ .ra: .cfa -88 + ^ x29: .cfa -96 + ^
STACK CFI 4d6a8 .cfa: sp 96 +
STACK CFI 4d6c0 .cfa: sp 0 +
STACK CFI 4d6c4 .cfa: x29 96 +
STACK CFI INIT 4e218 a4 .cfa: sp 0 +
STACK CFI 4e21c .cfa: sp 32 +
STACK CFI 4e224 .cfa: x29 32 + x19: .cfa -8 + ^ x20: .cfa -16 + ^ .ra: .cfa -24 + ^ x29: .cfa -32 + ^
STACK CFI 4e29c .cfa: sp 32 +
STACK CFI 4e2a4 .cfa: sp 0 +
STACK CFI 4e2a8 .cfa: x29 32 +
STACK CFI INIT 4f7b0 2aa4 .cfa: sp 0 +
STACK CFI 4f7b4 .cfa: sp 96 +
STACK CFI 4f7cc .cfa: x29 96 + x19: .cfa -8 + ^ x20: .cfa -16 + ^ x21: .cfa -24 + ^ x22: .cfa -32 + ^ x23: .cfa -40 + ^ x24: .cfa -48 + ^ x25: .cfa -56 + ^ x26: .cfa -64 + ^ x28: .cfa -80 + ^ .ra: .cfa -88 + ^ x29: .cfa -96 + ^
STACK CFI 51e14 .cfa: sp 96 +
STACK CFI 51e2c .cfa: sp 0 +
STACK CFI 51e30 .cfa: x29 96 +
STACK CFI INIT 52984 a4 .cfa: sp 0 +
STACK CFI 52988 .cfa: sp 32 +
STACK CFI 52990 .cfa: x29 32 + x19: .cfa -8 + ^ x20: .cfa -16 + ^ .ra: .cfa -24 + ^ x29: .cfa -32 + ^
STACK CFI 52a08 .cfa: sp 32 +
STACK CFI 52a10 .cfa: sp 0 +
STACK CFI 52a14 .cfa: x29 32 +
STACK CFI INIT 53fc8 134 .cfa: sp 0 +
STACK CFI 53fcc .cfa: sp 80 +
STACK CFI 53fd8 .cfa: x29 32 + x19: .cfa -8 + ^ x20: .cfa -16 + ^ .ra: .cfa -24 + ^ x29: .cfa -32 + ^
STACK CFI 54008 .cfa: sp 80 +
STACK CFI 54014 .cfa: sp 0 +
STACK CFI 54018 .cfa: x29 32 +
STACK CFI INIT 540fc 78 .cfa: sp 0 +
STACK CFI 54100 .cfa: sp 32 +
STACK CFI 54108 .cfa: x29 32 + x19: .cfa -8 + ^ x20: .cfa -16 + ^ .ra: .cfa -24 + ^ x29: .cfa -32 + ^
STACK CFI 54114 .cfa: sp 32 +
STACK CFI 5411c .cfa: sp 0 +
STACK CFI 54120 .cfa: x29 32 +
STACK CFI INIT 54174 74 .cfa: sp 0 +
STACK CFI 54178 .cfa: sp 48 +
STACK CFI 54184 .cfa: x29 32 + x19: .cfa -8 + ^ x20: .cfa -16 + ^ .ra: .cfa -24 + ^ x29: .cfa -32 + ^
STACK CFI 541d0 .cfa: sp 48 +
STACK CFI 541dc .cfa: sp 0 +
STACK CFI 541e0 .cfa: x29 32 +
STACK CFI INIT 542e8 288 .cfa: sp 0 +
STACK CFI 542ec .cfa: sp 128 +
STACK CFI 542fc .cfa: x29 48 + x19: .cfa -8 + ^ x20: .cfa -16 + ^ x21: .cfa -32 + ^ .ra: .cfa -40 + ^ x29: .cfa -48 + ^
STACK CFI 54410 .cfa: sp 128 +
STACK CFI 54420 .cfa: sp 0 +
STACK CFI 54424 .cfa: x29 48 +
STACK CFI INIT 54570 2f0 .cfa: sp 0 +
STACK CFI 54574 .cfa: sp 144 +
STACK CFI 54588 .cfa: x29 64 + x19: .cfa -8 + ^ x20: .cfa -16 + ^ x21: .cfa -24 + ^ x22: .cfa -32 + ^ x23: .cfa -48 + ^ .ra: .cfa -56 + ^ x29: .cfa -64 + ^
STACK CFI 54704 .cfa: sp 144 +
STACK CFI 54718 .cfa: sp 0 +
STACK CFI 5471c .cfa: x29 64 +
STACK CFI INIT 548b4 260 .cfa: sp 0 +
STACK CFI 548b8 .cfa: sp 128 +
STACK CFI 548c8 .cfa: x29 48 + x19: .cfa -8 + ^ x20: .cfa -16 + ^ x21: .cfa -32 + ^ .ra: .cfa -40 + ^ x29: .cfa -48 + ^
STACK CFI 549b4 .cfa: sp 128 +
STACK CFI 549c4 .cfa: sp 0 +
STACK CFI 549c8 .cfa: x29 48 +
STACK CFI INIT 54e68 2d4 .cfa: sp 0 +
STACK CFI 54e6c .cfa: sp 144 +
STACK CFI 54e80 .cfa: x29 64 + x19: .cfa -8 + ^ x20: .cfa -16 + ^ x21: .cfa -24 + ^ x22: .cfa -32 + ^ x23: .cfa -48 + ^ .ra: .cfa -56 + ^ x29: .cfa -64 + ^
STACK CFI 54fe0 .cfa: sp 144 +
STACK CFI 54ff4 .cfa: sp 0 +
STACK CFI 54ff8 .cfa: x29 64 +
STACK CFI INIT 5513c 2e0 .cfa: sp 0 +
STACK CFI 55140 .cfa: sp 144 +
STACK CFI 55154 .cfa: x29 64 + x19: .cfa -8 + ^ x20: .cfa -16 + ^ x21: .cfa -24 + ^ x22: .cfa -32 + ^ x23: .cfa -48 + ^ .ra: .cfa -56 + ^ x29: .cfa -64 + ^
STACK CFI 552c0 .cfa: sp 144 +
STACK CFI 552d4 .cfa: sp 0 +
STACK CFI 552d8 .cfa: x29 64 +
STACK CFI INIT 5541c 290 .cfa: sp 0 +
STACK CFI 55420 .cfa: sp 144 +
STACK CFI 55434 .cfa: x29 64 + x19: .cfa -8 + ^ x20: .cfa -16 + ^ x21: .cfa -24 + ^ x22: .cfa -32 + ^ x23: .cfa -48 + ^ .ra: .cfa -56 + ^ x29: .cfa -64 + ^
STACK CFI 55550 .cfa: sp 144 +
STACK CFI 55564 .cfa: sp 0 +
STACK CFI 55568 .cfa: x29 64 +
STACK CFI INIT 556ac 2d4 .cfa: sp 0 +
STACK CFI 556b0 .cfa: sp 144 +
STACK CFI 556c4 .cfa: x29 64 + x19: .cfa -8 + ^ x20: .cfa -16 + ^ x21: .cfa -24 + ^ x22: .cfa -32 + ^ x23: .cfa -48 + ^ .ra: .cfa -56 + ^ x29: .cfa -64 + ^
STACK CFI 55824 .cfa: sp 144 +
STACK CFI 55838 .cfa: sp 0 +
STACK CFI 5583c .cfa: x29 64 +
STACK CFI INIT 55980 4ac .cfa: sp 0 +
STACK CFI 55984 .cfa: sp 144 +
STACK CFI 55998 .cfa: x29 64 + x19: .cfa -8 + ^ x20: .cfa -16 + ^ x21: .cfa -24 + ^ x22: .cfa -32 + ^ x23: .cfa -48 + ^ .ra: .cfa -56 + ^ x29: .cfa -64 + ^
STACK CFI 55c7c .cfa: sp 144 +
STACK CFI 55c90 .cfa: sp 0 +
STACK CFI 55c94 .cfa: x29 64 +
STACK CFI INIT 55e2c 154 .cfa: sp 0 +
STACK CFI 55e30 .cfa: sp 384 +
STACK CFI 55e44 .cfa: x29 64 + x19: .cfa -8 + ^ x20: .cfa -16 + ^ x21: .cfa -24 + ^ x22: .cfa -32 + ^ x23: .cfa -40 + ^ x28: .cfa -48 + ^ .ra: .cfa -56 + ^ x29: .cfa -64 + ^
STACK CFI 55f28 .cfa: sp 384 +
STACK CFI 55f3c .cfa: sp 0 +
STACK CFI 55f40 .cfa: x29 64 +
STACK CFI INIT 55f80 168 .cfa: sp 0 +
STACK CFI 55f84 .cfa: sp 384 +
STACK CFI 55f98 .cfa: x29 64 + x19: .cfa -8 + ^ x20: .cfa -16 + ^ x21: .cfa -24 + ^ x22: .cfa -32 + ^ x23: .cfa -40 + ^ x28: .cfa -48 + ^ .ra: .cfa -56 + ^ x29: .cfa -64 + ^
STACK CFI 56090 .cfa: sp 384 +
STACK CFI 560a4 .cfa: sp 0 +
STACK CFI 560a8 .cfa: x29 64 +
STACK CFI INIT 56100 430 .cfa: sp 0 +
STACK CFI 56104 .cfa: sp 64 +
STACK CFI 56114 .cfa: x29 64 + x19: .cfa -8 + ^ x20: .cfa -16 + ^ x21: .cfa -24 + ^ x22: .cfa -32 + ^ x23: .cfa -40 + ^ x24: .cfa -48 + ^ .ra: .cfa -56 + ^ x29: .cfa -64 + ^
STACK CFI 564c8 .cfa: sp 64 +
STACK CFI 564d8 .cfa: sp 0 +
STACK CFI 564dc .cfa: x29 64 +
STACK CFI INIT 56860 294 .cfa: sp 0 +
STACK CFI 56864 .cfa: sp 240 +
STACK CFI 5687c .cfa: x29 80 + x19: .cfa -8 + ^ x20: .cfa -16 + ^ x21: .cfa -24 + ^ x22: .cfa -32 + ^ x23: .cfa -40 + ^ x24: .cfa -48 + ^ x25: .cfa -64 + ^ .ra: .cfa -72 + ^ x29: .cfa -80 + ^
STACK CFI 56a1c .cfa: sp 240 +
STACK CFI 56a34 .cfa: sp 0 +
STACK CFI 56a38 .cfa: x29 80 +
STACK CFI INIT 56b64 50 .cfa: sp 0 +
STACK CFI 56b68 .cfa: sp 32 +
STACK CFI 56b70 .cfa: x29 32 + x19: .cfa -8 + ^ x20: .cfa -16 + ^ .ra: .cfa -24 + ^ x29: .cfa -32 + ^
STACK CFI INIT 56be0 750 .cfa: sp 0 +
STACK CFI 56be4 .cfa: sp 320 +
STACK CFI 56c00 .cfa: x29 96 + x19: .cfa -8 + ^ x20: .cfa -16 + ^ x21: .cfa -24 + ^ x22: .cfa -32 + ^ x23: .cfa -40 + ^ x24: .cfa -48 + ^ x25: .cfa -56 + ^ x26: .cfa -64 + ^ x27: .cfa -72 + ^ x28: .cfa -80 + ^ .ra: .cfa -88 + ^ x29: .cfa -96 + ^
STACK CFI 571ec .cfa: sp 320 +
STACK CFI 57208 .cfa: sp 0 +
STACK CFI 5720c .cfa: x29 96 +
STACK CFI INIT 57394 13c .cfa: sp 0 +
STACK CFI 57398 .cfa: sp 80 +
STACK CFI 573ac .cfa: x29 80 + x19: .cfa -8 + ^ x20: .cfa -16 + ^ x21: .cfa -24 + ^ x22: .cfa -32 + ^ x23: .cfa -40 + ^ x24: .cfa -48 + ^ x28: .cfa -64 + ^ .ra: .cfa -72 + ^ x29: .cfa -80 + ^
STACK CFI 57484 .cfa: sp 80 +
STACK CFI 57498 .cfa: sp 0 +
STACK CFI 5749c .cfa: x29 80 +
STACK CFI INIT 5b42c c2c .cfa: sp 0 +
STACK CFI 5b430 .cfa: sp 96 +
STACK CFI 5b448 .cfa: x29 96 + x19: .cfa -8 + ^ x20: .cfa -16 + ^ x21: .cfa -24 + ^ x22: .cfa -32 + ^ x23: .cfa -40 + ^ x24: .cfa -48 + ^ x25: .cfa -56 + ^ x26: .cfa -64 + ^ x27: .cfa -72 + ^ x28: .cfa -80 + ^ .ra: .cfa -88 + ^ x29: .cfa -96 + ^
STACK CFI 5bf18 .cfa: sp 96 +
STACK CFI 5bf30 .cfa: sp 0 +
STACK CFI 5bf34 .cfa: x29 96 +
STACK CFI INIT 5c1ac 234 .cfa: sp 0 +
STACK CFI 5c1b0 .cfa: sp 128 +
STACK CFI 5c1c0 .cfa: x29 48 + x19: .cfa -8 + ^ x20: .cfa -16 + ^ x21: .cfa -24 + ^ x22: .cfa -32 + ^ .ra: .cfa -40 + ^ x29: .cfa -48 + ^
STACK CFI 5c344 .cfa: sp 128 +
STACK CFI 5c354 .cfa: sp 0 +
STACK CFI 5c358 .cfa: x29 48 +
STACK CFI INIT 5c90c 3a4 .cfa: sp 0 +
STACK CFI 5c910 .cfa: sp 96 +
STACK CFI 5c928 .cfa: x29 96 + x19: .cfa -8 + ^ x20: .cfa -16 + ^ x21: .cfa -24 + ^ x22: .cfa -32 + ^ x23: .cfa -40 + ^ x24: .cfa -48 + ^ x25: .cfa -56 + ^ x26: .cfa -64 + ^ x27: .cfa -72 + ^ x28: .cfa -80 + ^ .ra: .cfa -88 + ^ x29: .cfa -96 + ^
STACK CFI 5cc50 .cfa: sp 96 +
STACK CFI 5cc68 .cfa: sp 0 +
STACK CFI 5cc6c .cfa: x29 96 +
STACK CFI INIT 5cd50 c68 .cfa: sp 0 +
STACK CFI 5cd54 .cfa: sp 96 +
STACK CFI 5cd6c .cfa: x29 96 + x19: .cfa -8 + ^ x20: .cfa -16 + ^ x21: .cfa -24 + ^ x22: .cfa -32 + ^ x23: .cfa -40 + ^ x24: .cfa -48 + ^ x25: .cfa -56 + ^ x26: .cfa -64 + ^ x27: .cfa -72 + ^ x28: .cfa -80 + ^ .ra: .cfa -88 + ^ x29: .cfa -96 + ^
STACK CFI 5d86c .cfa: sp 96 +
STACK CFI 5d884 .cfa: sp 0 +
STACK CFI 5d888 .cfa: x29 96 +
STACK CFI INIT 5dca0 ab8 .cfa: sp 0 +
STACK CFI 5dca4 .cfa: sp 96 +
STACK CFI 5dcbc .cfa: x29 96 + x19: .cfa -8 + ^ x20: .cfa -16 + ^ x21: .cfa -24 + ^ x22: .cfa -32 + ^ x23: .cfa -40 + ^ x24: .cfa -48 + ^ x25: .cfa -56 + ^ x26: .cfa -64 + ^ x27: .cfa -72 + ^ x28: .cfa -80 + ^ .ra: .cfa -88 + ^ x29: .cfa -96 + ^
STACK CFI 5e6cc .cfa: sp 96 +
STACK CFI 5e6e4 .cfa: sp 0 +
STACK CFI 5e6e8 .cfa: x29 96 +
STACK CFI INIT 5e934 133c .cfa: sp 0 +
STACK CFI 5e938 .cfa: sp 96 +
STACK CFI 5e950 .cfa: x29 96 + x19: .cfa -8 + ^ x20: .cfa -16 + ^ x21: .cfa -24 + ^ x22: .cfa -32 + ^ x23: .cfa -40 + ^ x24: .cfa -48 + ^ x25: .cfa -56 + ^ x26: .cfa -64 + ^ x27: .cfa -72 + ^ x28: .cfa -80 + ^ .ra: .cfa -88 + ^ x29: .cfa -96 + ^
STACK CFI 5fb44 .cfa: sp 96 +
STACK CFI 5fb5c .cfa: sp 0 +
STACK CFI 5fb60 .cfa: x29 96 +
STACK CFI INIT 5fd94 744 .cfa: sp 0 +
STACK CFI 5fd98 .cfa: sp 368 +
STACK CFI 5fdb4 .cfa: x29 96 + x19: .cfa -8 + ^ x20: .cfa -16 + ^ x21: .cfa -24 + ^ x22: .cfa -32 + ^ x23: .cfa -40 + ^ x24: .cfa -48 + ^ x25: .cfa -56 + ^ x26: .cfa -64 + ^ x27: .cfa -72 + ^ x28: .cfa -80 + ^ .ra: .cfa -88 + ^ x29: .cfa -96 + ^
STACK CFI 5fe50 .cfa: sp 368 +
STACK CFI 5fe6c .cfa: sp 0 +
STACK CFI 5fe70 .cfa: x29 96 +
STACK CFI 5fec4 .cfa: sp 368 +
STACK CFI 5fee0 .cfa: sp 0 +
STACK CFI 5fee4 .cfa: x29 96 +
STACK CFI INIT 60870 e80 .cfa: sp 0 +
STACK CFI 60874 .cfa: sp 96 +
STACK CFI 6088c .cfa: x29 96 + x19: .cfa -8 + ^ x20: .cfa -16 + ^ x21: .cfa -24 + ^ x22: .cfa -32 + ^ x23: .cfa -40 + ^ x24: .cfa -48 + ^ x25: .cfa -56 + ^ x26: .cfa -64 + ^ x27: .cfa -72 + ^ x28: .cfa -80 + ^ .ra: .cfa -88 + ^ x29: .cfa -96 + ^
STACK CFI 61504 .cfa: sp 96 +
STACK CFI 6151c .cfa: sp 0 +
STACK CFI 61520 .cfa: x29 96 +
STACK CFI INIT 61a64 1c20 .cfa: sp 0 +
STACK CFI 61a68 .cfa: sp 112 +
STACK CFI 61a84 .cfa: x29 96 + x19: .cfa -8 + ^ x20: .cfa -16 + ^ x21: .cfa -24 + ^ x22: .cfa -32 + ^ x23: .cfa -40 + ^ x24: .cfa -48 + ^ x25: .cfa -56 + ^ x26: .cfa -64 + ^ x27: .cfa -72 + ^ x28: .cfa -80 + ^ .ra: .cfa -88 + ^ x29: .cfa -96 + ^ v8: .cfa -112 + ^
STACK CFI 61e7c .cfa: sp 112 +
STACK CFI 61e98 .cfa: sp 0 +
STACK CFI 61e9c .cfa: x29 96 +
STACK CFI INIT 65d34 a14 .cfa: sp 0 +
STACK CFI 65d38 .cfa: sp 144 +
STACK CFI 65d50 .cfa: x29 80 + x19: .cfa -8 + ^ x20: .cfa -16 + ^ x21: .cfa -24 + ^ x22: .cfa -32 + ^ x23: .cfa -40 + ^ x24: .cfa -48 + ^ x25: .cfa -64 + ^ .ra: .cfa -72 + ^ x29: .cfa -80 + ^
STACK CFI 666b0 .cfa: sp 144 +
STACK CFI 666c8 .cfa: sp 0 +
STACK CFI 666cc .cfa: x29 80 +
STACK CFI INIT 6773c 570 .cfa: sp 0 +
STACK CFI 67740 .cfa: sp 96 +
STACK CFI 67758 .cfa: x29 96 + x19: .cfa -8 + ^ x20: .cfa -16 + ^ x21: .cfa -24 + ^ x22: .cfa -32 + ^ x23: .cfa -40 + ^ x24: .cfa -48 + ^ x25: .cfa -56 + ^ x26: .cfa -64 + ^ x27: .cfa -72 + ^ x28: .cfa -80 + ^ .ra: .cfa -88 + ^ x29: .cfa -96 + ^
STACK CFI 67c10 .cfa: sp 96 +
STACK CFI 67c28 .cfa: sp 0 +
STACK CFI 67c2c .cfa: x29 96 +
STACK CFI INIT 67cac 664 .cfa: sp 0 +
STACK CFI 67cb0 .cfa: sp 96 +
STACK CFI 67cc8 .cfa: x29 96 + x19: .cfa -8 + ^ x20: .cfa -16 + ^ x21: .cfa -24 + ^ x22: .cfa -32 + ^ x23: .cfa -40 + ^ x24: .cfa -48 + ^ x25: .cfa -56 + ^ x26: .cfa -64 + ^ x27: .cfa -72 + ^ x28: .cfa -80 + ^ .ra: .cfa -88 + ^ x29: .cfa -96 + ^
STACK CFI 68274 .cfa: sp 96 +
STACK CFI 6828c .cfa: sp 0 +
STACK CFI 68290 .cfa: x29 96 +
