MODULE Linux arm64 5E3CDDDA645E7080C39288C915218A570 pololak.legacy-obj-dl.android64.so
INFO CODE_ID DADD3C5E5E648070C39288C915218A5754B25AD2
INFO GENERATOR mozilla/dump_syms 2.3.4
PUBLIC 33b0 0 __on_dlclose
PUBLIC 33c0 0 __emutls_unregister_key
PUBLIC 33c8 0 __on_dlclose_late
PUBLIC 33d0 0 __atexit_handler_wrapper
PUBLIC 33e4 0 atexit
PUBLIC 3400 0 pthread_atfork
PUBLIC 3410 0 __aarch64_ldadd8_relax
PUBLIC 3440 0 init_have_lse_atomics
PUBLIC 34d8 0 __init_cpu_features_constructor
PUBLIC 3a74 0 __init_cpu_features
PUBLIC 3b00 0 __aarch64_ldadd8_acq_rel
PUBLIC 3b30 0 __cxx_global_var_init
PUBLIC 4704 0 geode::modifier::ModifyBase<geode::modifier::ModifyDerive<IDKLEVELSETTINGSLAYER, LevelSettingsLayer> >::~ModifyBase()
PUBLIC 471c 0 geode::modifier::ModifyDerive<IDKLEVELSETTINGSLAYER, LevelSettingsLayer>::apply()
PUBLIC 4d4c 0 std::__ndk1::shared_ptr<geode::Hook>::~shared_ptr[abi:ne180000]()
PUBLIC 4d9c 0 geode::impl::ResultData<geode::Hook*, std::__ndk1::basic_string<char, std::__ndk1::char_traits<char>, std::__ndk1::allocator<char> > >::~ResultData()
PUBLIC 4e10 0 std::__ndk1::vector<std::__ndk1::basic_string<char, std::__ndk1::char_traits<char>, std::__ndk1::allocator<char> >, std::__ndk1::allocator<std::__ndk1::basic_string<char, std::__ndk1::char_traits<char>, std::__ndk1::allocator<char> > > >::~vector[abi:ne180000]()
PUBLIC 4e8c 0 geode::modifier::ModifyBase<geode::modifier::ModifyDerive<IDKLEVELSETTINGSLAYER, LevelSettingsLayer> >::apply()
PUBLIC 4e90 0 __clang_call_terminate
PUBLIC 4ea0 0 _ZN5geode15UnwrapExceptionC2IRPNS_4HookEQsr4implE18IsStringStreamableIT_EEENS_4impl5OkTagEOS5_
PUBLIC 4ff4 0 std::__ndk1::__throw_bad_variant_access[abi:ne180000]()
PUBLIC 5028 0 std::__ndk1::basic_stringstream<char, std::__ndk1::char_traits<char>, std::__ndk1::allocator<char> >::basic_stringstream[abi:ne180000]()
PUBLIC m 5154 0 std::__ndk1::basic_stringstream<char, std::__ndk1::char_traits<char>, std::__ndk1::allocator<char> >::~basic_stringstream()
PUBLIC 51d4 0 geode::UnwrapException::~UnwrapException()
PUBLIC 51f8 0 std::__ndk1::__put_character_sequence[abi:ne180000]<char, std::__ndk1::char_traits<char> >(std::__ndk1::basic_ostream<char, std::__ndk1::char_traits<char> >, std::__ndk1::basic_ostream const*, unsigned long)
PUBLIC 539c 0 std::__ndk1::__pad_and_output[abi:ne180000]<char, std::__ndk1::char_traits<char> >(std::__ndk1::char_traits<char>, std::__ndk1::ostreambuf_iterator const*, std::__ndk1::ostreambuf_iterator const, std::__ndk1::ostreambuf_iterator const, std::__ndk1::ios_base&, std::__ndk1::ostreambuf_iterator)
PUBLIC 5578 0 std::__ndk1::basic_string<char, std::__ndk1::char_traits<char>, std::__ndk1::allocator<char> >::__throw_length_error[abi:ne180000]() const
PUBLIC 558c 0 std::__ndk1::__throw_length_error[abi:ne180000](char const*)
PUBLIC 55dc 0 std::length_error::length_error[abi:ne180000](char const*)
PUBLIC 560c 0 std::__throw_bad_array_new_length([abi:ne180000], void)
PUBLIC 5640 0 std::__ndk1::basic_stringbuf<char, std::__ndk1::char_traits<char>, std::__ndk1::allocator<char> >::str[abi:ne180000]() &&
PUBLIC 57b8 0 std::__ndk1::basic_stringbuf<char, std::__ndk1::char_traits<char>, std::__ndk1::allocator<char> >::__init_buf_ptrs[abi:ne180000]()
PUBLIC 5900 0 std::__ndk1::basic_string<char, std::__ndk1::char_traits<char>, std::__ndk1::allocator<char> >::__init_copy_ctor_external(char const*, unsigned long)
PUBLIC 5980 0 std::__ndk1::__split_buffer<std::__ndk1::basic_string<char, std::__ndk1::char_traits<char>, std::__ndk1::allocator<char> >, std::__ndk1::allocator<std::__ndk1::basic_string<char, std::__ndk1::char_traits<char>, std::__ndk1::allocator<char> > >&>::~__split_buffer()
PUBLIC 59e8 0 std::__ndk1::vector<std::__ndk1::basic_string<char, std::__ndk1::char_traits<char>, std::__ndk1::allocator<char> >, std::__ndk1::allocator<std::__ndk1::basic_string<char, std::__ndk1::char_traits<char>, std::__ndk1::allocator<char> > > >::__throw_length_error[abi:ne180000]() const
PUBLIC 59fc 0 std::__ndk1::__variant_detail::__visitation::__base::__dispatcher<(unsigned long)0>::__dispatch[abi:ne180000]<std::__ndk1::__variant_detail::__dtor<std::__ndk1::__variant_detail::__traits<geode::Hook*, std::__ndk1::basic_string<char, std::__ndk1::char_traits<char>, std::__ndk1::allocator<char> > >, (std::__ndk1::__variant_detail::_Trait)1>::__destroy[abi:ne180000]()::{lambda(auto:1&)#1}, std::__ndk1::__variant_detail::__base<(std::__ndk1::__variant_detail::__traits<geode::Hook*, std::__ndk1::basic_string<char, std::__ndk1::char_traits<char>, std::__ndk1::allocator<char> > >)1, geode::Hook, std::__ndk1::allocator<char> >&>(std::__ndk1::__variant_detail::__dtor<std::__ndk1::__variant_detail::__traits<geode::Hook*, std::__ndk1::basic_string<char, std::__ndk1::char_traits<char>, std::__ndk1::allocator<char> > >, (std::__ndk1::__variant_detail::_Trait)1>, std::__ndk1::__variant_detail::__base<(std::__ndk1::__variant_detail::__traits<geode::Hook*, std::__ndk1::basic_string<char, std::__ndk1::char_traits<char>, std::__ndk1::allocator<char> > >)1, geode::Hook, std::__ndk1::allocator<char> >&)
PUBLIC 5a00 0 std::__ndk1::__variant_detail::__visitation::__base::__dispatcher<(unsigned long)1>::__dispatch[abi:ne180000]<std::__ndk1::__variant_detail::__dtor<std::__ndk1::__variant_detail::__traits<geode::Hook*, std::__ndk1::basic_string<char, std::__ndk1::char_traits<char>, std::__ndk1::allocator<char> > >, (std::__ndk1::__variant_detail::_Trait)1>::__destroy[abi:ne180000]()::{lambda(auto:1&)#1}, std::__ndk1::__variant_detail::__base<(std::__ndk1::__variant_detail::__traits<geode::Hook*, std::__ndk1::basic_string<char, std::__ndk1::char_traits<char>, std::__ndk1::allocator<char> > >)1, geode::Hook, std::__ndk1::allocator<char> >&>(std::__ndk1::__variant_detail::__dtor<std::__ndk1::__variant_detail::__traits<geode::Hook*, std::__ndk1::basic_string<char, std::__ndk1::char_traits<char>, std::__ndk1::allocator<char> > >, (std::__ndk1::__variant_detail::_Trait)1>, std::__ndk1::__variant_detail::__base<(std::__ndk1::__variant_detail::__traits<geode::Hook*, std::__ndk1::basic_string<char, std::__ndk1::char_traits<char>, std::__ndk1::allocator<char> > >)1, geode::Hook, std::__ndk1::allocator<char> >&)
PUBLIC 5a14 0 std::__ndk1::__tree<std::__ndk1::__value_type<std::__ndk1::basic_string<char, std::__ndk1::char_traits<char>, std::__ndk1::allocator<char> >, std::__ndk1::shared_ptr<geode::Hook> >, std::__ndk1::__map_value_compare<std::__ndk1::basic_string<char, std::__ndk1::char_traits<char>, std::__ndk1::allocator<char> >, std::__ndk1::__value_type<std::__ndk1::basic_string<char, std::__ndk1::char_traits<char>, std::__ndk1::allocator<char> >, std::__ndk1::shared_ptr<geode::Hook> >, std::__ndk1::less<std::__ndk1::basic_string<char, std::__ndk1::char_traits<char>, std::__ndk1::allocator<char> > >, true>, std::__ndk1::allocator<std::__ndk1::__value_type<std::__ndk1::basic_string<char, std::__ndk1::char_traits<char>, std::__ndk1::allocator<char> >, std::__ndk1::shared_ptr<geode::Hook> > > >::destroy(std::__ndk1::__tree_node<std::__ndk1::__value_type<std::__ndk1::basic_string<char, std::__ndk1::char_traits<char>, std::__ndk1::allocator<char> >, std::__ndk1::shared_ptr<geode::Hook> >, void*>*)
PUBLIC 5a98 0 geode::modifier::AsStaticFunction_init<IDKLEVELSETTINGSLAYER, bool (IDKLEVELSETTINGSLAYER::*)(LevelSettingsObject*, LevelEditorLayer*)>::Impl<bool (IDKLEVELSETTINGSLAYER::*)(LevelSettingsObject*, LevelEditorLayer*)>::function(IDKLEVELSETTINGSLAYER*, LevelSettingsObject*, LevelEditorLayer*)
PUBLIC 6038 0 geode::modifier::AsStaticFunction_updateColorSprites<IDKLEVELSETTINGSLAYER, void (IDKLEVELSETTINGSLAYER::*)()>::Impl<void (IDKLEVELSETTINGSLAYER::*)()>::function(IDKLEVELSETTINGSLAYER*)
PUBLIC 61a8 0 std::__ndk1::shared_ptr<tulip::hook::CallingConvention>::~shared_ptr[abi:ne180000]()
PUBLIC 61f8 0 tulip::hook::HandlerMetadata::~HandlerMetadata()
PUBLIC 625c 0 std::__ndk1::__tree<std::__ndk1::__value_type<std::__ndk1::basic_string<char, std::__ndk1::char_traits<char>, std::__ndk1::allocator<char> >, std::__ndk1::shared_ptr<geode::Hook> >, std::__ndk1::__map_value_compare<std::__ndk1::basic_string<char, std::__ndk1::char_traits<char>, std::__ndk1::allocator<char> >, std::__ndk1::__value_type<std::__ndk1::basic_string<char, std::__ndk1::char_traits<char>, std::__ndk1::allocator<char> >, std::__ndk1::shared_ptr<geode::Hook> >, std::__ndk1::less<std::__ndk1::basic_string<char, std::__ndk1::char_traits<char>, std::__ndk1::allocator<char> > >, true>, std::__ndk1::allocator<std::__ndk1::__value_type<std::__ndk1::basic_string<char, std::__ndk1::char_traits<char>, std::__ndk1::allocator<char> >, std::__ndk1::shared_ptr<geode::Hook> > > >::__emplace_unique_key_args<std::__ndk1::basic_string<char, std::__ndk1::char_traits<char>, std::__ndk1::allocator<char> >, std::__ndk1::piecewise_construct_t const&, std::__ndk1::tuple<std::__ndk1::basic_string<char, std::__ndk1::char_traits<char>, std::__ndk1::allocator<char> >&&>, std::__ndk1::tuple<> >(std::__ndk1::basic_string<char, std::__ndk1::char_traits<char>, std::__ndk1::allocator<char> > const&, std::__ndk1::piecewise_construct_t const&, std::__ndk1::tuple<std::__ndk1::basic_string<char, std::__ndk1::char_traits<char>, std::__ndk1::allocator<char> >&&>, std::__ndk1::tuple<>)
PUBLIC 63c4 0 std::__ndk1::__tree_balance_after_insert[abi:ne180000]<std::__ndk1::__tree_node_base<void*>*>(std::__ndk1::__tree_node_base<void*>*, std::__ndk1::__tree_node_base<void*>*)
PUBLIC m 6574 0 geodeImplicitEntry
PUBLIC 65b0 0 <.plt ELF section in pololak.legacy-obj-dl.android64.so>
STACK CFI INIT 33b0 10 .cfa: sp 0 +
STACK CFI INIT 33c0 8 .cfa: sp 0 +
STACK CFI INIT 33c8 8 .cfa: sp 0 +
STACK CFI INIT 33d0 14 .cfa: sp 0 +
STACK CFI INIT 33e4 1c .cfa: sp 0 +
STACK CFI INIT 3400 10 .cfa: sp 0 +
STACK CFI INIT 3410 30 .cfa: sp 0 +
STACK CFI INIT 3440 98 .cfa: sp 0 +
STACK CFI INIT 34d8 59c .cfa: sp 0 +
STACK CFI INIT 3a74 8c .cfa: sp 0 +
STACK CFI INIT 3b00 30 .cfa: sp 0 +
STACK CFI INIT 4704 18 .cfa: sp 0 +
STACK CFI INIT 4d4c 50 .cfa: sp 0 +
STACK CFI 4d50 .cfa: sp 32 +
STACK CFI 4d58 .cfa: x29 32 + x19: .cfa -16 + ^ .ra: .cfa -24 + ^ x29: .cfa -32 + ^
STACK CFI 4d70 .cfa: sp 32 +
STACK CFI 4d78 .cfa: sp 0 +
STACK CFI 4d7c .cfa: x29 32 +
STACK CFI 4d90 .cfa: sp 32 +
STACK CFI 4d98 .cfa: sp 0 +
STACK CFI INIT 4e10 7c .cfa: sp 0 +
STACK CFI 4e14 .cfa: sp 48 +
STACK CFI 4e20 .cfa: x29 48 + x19: .cfa -8 + ^ x20: .cfa -16 + ^ x21: .cfa -32 + ^ .ra: .cfa -40 + ^ x29: .cfa -48 + ^
STACK CFI 4e6c .cfa: sp 48 +
STACK CFI 4e78 .cfa: sp 0 +
STACK CFI 4e7c .cfa: sp 48 +
STACK CFI 4e88 .cfa: sp 0 +
STACK CFI INIT 4e8c 4 .cfa: sp 0 +
STACK CFI INIT 4e90 10 .cfa: sp 0 +
STACK CFI 4e94 .cfa: sp 16 +
STACK CFI 4e98 .cfa: x29 16 + .ra: .cfa -8 + ^ x29: .cfa -16 + ^
STACK CFI INIT 4ff4 34 .cfa: sp 0 +
STACK CFI 4ff8 .cfa: sp 16 +
STACK CFI 4ffc .cfa: x29 16 + .ra: .cfa -8 + ^ x29: .cfa -16 + ^
STACK CFI INIT 5154 80 .cfa: sp 0 +
STACK CFI 5158 .cfa: sp 48 +
STACK CFI 5164 .cfa: x29 48 + x19: .cfa -8 + ^ x20: .cfa -16 + ^ x21: .cfa -32 + ^ .ra: .cfa -40 + ^ x29: .cfa -48 + ^
STACK CFI 51c4 .cfa: sp 48 +
STACK CFI 51d0 .cfa: sp 0 +
STACK CFI INIT 51d4 24 .cfa: sp 0 +
STACK CFI 51d8 .cfa: sp 32 +
STACK CFI 51e0 .cfa: x29 32 + x19: .cfa -16 + ^ .ra: .cfa -24 + ^ x29: .cfa -32 + ^
STACK CFI 51ec .cfa: sp 32 +
STACK CFI 51f4 .cfa: sp 0 +
STACK CFI INIT 5578 14 .cfa: sp 0 +
STACK CFI 557c .cfa: sp 16 +
STACK CFI 5580 .cfa: x29 16 + .ra: .cfa -8 + ^ x29: .cfa -16 + ^
STACK CFI INIT 55dc 30 .cfa: sp 0 +
STACK CFI 55e0 .cfa: sp 32 +
STACK CFI 55e8 .cfa: x29 32 + x19: .cfa -16 + ^ .ra: .cfa -24 + ^ x29: .cfa -32 + ^
STACK CFI 5600 .cfa: sp 32 +
STACK CFI 5608 .cfa: sp 0 +
STACK CFI INIT 560c 34 .cfa: sp 0 +
STACK CFI 5610 .cfa: sp 32 +
STACK CFI 5618 .cfa: x29 32 + x19: .cfa -16 + ^ .ra: .cfa -24 + ^ x29: .cfa -32 + ^
STACK CFI INIT 57b8 148 .cfa: sp 0 +
STACK CFI 57bc .cfa: sp 48 +
STACK CFI 57c8 .cfa: x29 48 + x19: .cfa -8 + ^ x20: .cfa -16 + ^ x21: .cfa -32 + ^ .ra: .cfa -40 + ^ x29: .cfa -48 + ^
STACK CFI 58f0 .cfa: sp 48 +
STACK CFI 58fc .cfa: sp 0 +
STACK CFI INIT 5900 80 .cfa: sp 0 +
STACK CFI 5904 .cfa: sp 48 +
STACK CFI 5910 .cfa: x29 48 + x19: .cfa -8 + ^ x20: .cfa -16 + ^ x21: .cfa -24 + ^ x22: .cfa -32 + ^ .ra: .cfa -40 + ^ x29: .cfa -48 + ^
STACK CFI 5928 .cfa: sp 48 +
STACK CFI 5934 .cfa: sp 0 +
STACK CFI 5938 .cfa: x29 48 +
STACK CFI 5968 .cfa: sp 48 +
STACK CFI 5974 .cfa: sp 0 +
STACK CFI 5978 .cfa: x29 48 +
STACK CFI INIT 5980 68 .cfa: sp 0 +
STACK CFI 5984 .cfa: sp 32 +
STACK CFI 598c .cfa: x29 32 + x19: .cfa -8 + ^ x20: .cfa -16 + ^ .ra: .cfa -24 + ^ x29: .cfa -32 + ^
STACK CFI 59a4 .cfa: sp 32 +
STACK CFI 59ac .cfa: sp 0 +
STACK CFI 59b0 .cfa: x29 32 +
STACK CFI 59dc .cfa: sp 32 +
STACK CFI 59e4 .cfa: sp 0 +
STACK CFI INIT 59e8 14 .cfa: sp 0 +
STACK CFI 59ec .cfa: sp 16 +
STACK CFI 59f0 .cfa: x29 16 + .ra: .cfa -8 + ^ x29: .cfa -16 + ^
STACK CFI INIT 59fc 4 .cfa: sp 0 +
STACK CFI INIT 5a00 14 .cfa: sp 0 +
STACK CFI INIT 5a14 84 .cfa: sp 0 +
STACK CFI 5a1c .cfa: sp 32 +
STACK CFI 5a24 .cfa: x29 32 + x19: .cfa -8 + ^ x20: .cfa -16 + ^ .ra: .cfa -24 + ^ x29: .cfa -32 + ^
STACK CFI 5a64 .cfa: sp 32 +
STACK CFI 5a6c .cfa: sp 0 +
STACK CFI 5a74 .cfa: x29 32 +
STACK CFI INIT 61a8 50 .cfa: sp 0 +
STACK CFI 61ac .cfa: sp 32 +
STACK CFI 61b4 .cfa: x29 32 + x19: .cfa -16 + ^ .ra: .cfa -24 + ^ x29: .cfa -32 + ^
STACK CFI 61cc .cfa: sp 32 +
STACK CFI 61d4 .cfa: sp 0 +
STACK CFI 61d8 .cfa: x29 32 +
STACK CFI 61ec .cfa: sp 32 +
STACK CFI 61f4 .cfa: sp 0 +
STACK CFI INIT 61f8 64 .cfa: sp 0 +
STACK CFI 61fc .cfa: sp 32 +
STACK CFI 6204 .cfa: x29 32 + x19: .cfa -16 + ^ .ra: .cfa -24 + ^ x29: .cfa -32 + ^
STACK CFI 6230 .cfa: sp 32 +
STACK CFI 6238 .cfa: sp 0 +
STACK CFI 623c .cfa: x29 32 +
STACK CFI 6250 .cfa: sp 32 +
STACK CFI 6258 .cfa: sp 0 +
STACK CFI INIT 625c 168 .cfa: sp 0 +
STACK CFI 6260 .cfa: sp 80 +
STACK CFI 6274 .cfa: x29 80 + x19: .cfa -8 + ^ x20: .cfa -16 + ^ x21: .cfa -24 + ^ x22: .cfa -32 + ^ x23: .cfa -40 + ^ x24: .cfa -48 + ^ x25: .cfa -56 + ^ x26: .cfa -64 + ^ .ra: .cfa -72 + ^ x29: .cfa -80 + ^
STACK CFI 63ac .cfa: sp 80 +
STACK CFI 63c0 .cfa: sp 0 +
STACK CFI INIT 63c4 1b0 .cfa: sp 0 +
STACK CFI INIT 6574 3c .cfa: sp 0 +
STACK CFI 6578 .cfa: sp 32 +
STACK CFI 6580 .cfa: x29 32 + x19: .cfa -16 + ^ .ra: .cfa -24 + ^ x29: .cfa -32 + ^
STACK CFI 658c .cfa: sp 32 +
STACK CFI 6594 .cfa: sp 0 +
STACK CFI 6598 .cfa: x29 32 +
STACK CFI 65a4 .cfa: sp 32 +
STACK CFI 65ac .cfa: sp 0 +
STACK CFI INIT 3b30 bd4 .cfa: sp 0 +
STACK CFI 3b34 .cfa: sp 240 +
STACK CFI 3b50 .cfa: x29 96 + x19: .cfa -8 + ^ x20: .cfa -16 + ^ x21: .cfa -24 + ^ x22: .cfa -32 + ^ x23: .cfa -40 + ^ x24: .cfa -48 + ^ x25: .cfa -56 + ^ x26: .cfa -64 + ^ x27: .cfa -72 + ^ x28: .cfa -80 + ^ .ra: .cfa -88 + ^ x29: .cfa -96 + ^
STACK CFI 3f2c .cfa: sp 240 +
STACK CFI 3f48 .cfa: sp 0 +
STACK CFI 3f4c .cfa: x29 96 +
STACK CFI 45ac .cfa: sp 240 +
STACK CFI 45c8 .cfa: sp 0 +
STACK CFI 45cc .cfa: x29 96 +
STACK CFI INIT 471c 630 .cfa: sp 0 +
STACK CFI 4720 .cfa: sp 256 +
STACK CFI 4738 .cfa: x29 80 + x19: .cfa -8 + ^ x20: .cfa -16 + ^ x21: .cfa -24 + ^ x22: .cfa -32 + ^ x23: .cfa -40 + ^ x24: .cfa -48 + ^ x25: .cfa -56 + ^ x26: .cfa -64 + ^ .ra: .cfa -72 + ^ x29: .cfa -80 + ^
STACK CFI 4b70 .cfa: sp 256 +
STACK CFI 4b88 .cfa: sp 0 +
STACK CFI 4b8c .cfa: x29 80 +
STACK CFI INIT 4d9c 74 .cfa: sp 0 +
STACK CFI 4da0 .cfa: sp 48 +
STACK CFI 4dac .cfa: x29 32 + x19: .cfa -8 + ^ x20: .cfa -16 + ^ .ra: .cfa -24 + ^ x29: .cfa -32 + ^
STACK CFI 4df8 .cfa: sp 48 +
STACK CFI 4e04 .cfa: sp 0 +
STACK CFI 4e08 .cfa: x29 32 +
STACK CFI INIT 4ea0 154 .cfa: sp 0 +
STACK CFI 4ea4 .cfa: sp 384 +
STACK CFI 4eb8 .cfa: x29 64 + x19: .cfa -8 + ^ x20: .cfa -16 + ^ x21: .cfa -24 + ^ x22: .cfa -32 + ^ x23: .cfa -40 + ^ x28: .cfa -48 + ^ .ra: .cfa -56 + ^ x29: .cfa -64 + ^
STACK CFI 4f9c .cfa: sp 384 +
STACK CFI 4fb0 .cfa: sp 0 +
STACK CFI 4fb4 .cfa: x29 64 +
STACK CFI INIT 5028 12c .cfa: sp 0 +
STACK CFI 502c .cfa: sp 80 +
STACK CFI 5040 .cfa: x29 80 + x19: .cfa -8 + ^ x20: .cfa -16 + ^ x21: .cfa -24 + ^ x22: .cfa -32 + ^ x23: .cfa -40 + ^ x24: .cfa -48 + ^ x25: .cfa -56 + ^ x26: .cfa -64 + ^ .ra: .cfa -72 + ^ x29: .cfa -80 + ^
STACK CFI 5108 .cfa: sp 80 +
STACK CFI 511c .cfa: sp 0 +
STACK CFI 5120 .cfa: x29 80 +
STACK CFI INIT 51f8 1a4 .cfa: sp 0 +
STACK CFI 51fc .cfa: sp 112 +
STACK CFI 5214 .cfa: x29 80 + x19: .cfa -8 + ^ x20: .cfa -16 + ^ x21: .cfa -24 + ^ x22: .cfa -32 + ^ x23: .cfa -40 + ^ x24: .cfa -48 + ^ x25: .cfa -56 + ^ x26: .cfa -64 + ^ .ra: .cfa -72 + ^ x29: .cfa -80 + ^
STACK CFI 5304 .cfa: sp 112 +
STACK CFI 531c .cfa: sp 0 +
STACK CFI 5320 .cfa: x29 80 +
STACK CFI INIT 539c 1dc .cfa: sp 0 +
STACK CFI 53a0 .cfa: sp 128 +
STACK CFI 53bc .cfa: x29 96 + x19: .cfa -8 + ^ x20: .cfa -16 + ^ x21: .cfa -24 + ^ x22: .cfa -32 + ^ x23: .cfa -40 + ^ x24: .cfa -48 + ^ x25: .cfa -56 + ^ x26: .cfa -64 + ^ x27: .cfa -80 + ^ .ra: .cfa -88 + ^ x29: .cfa -96 + ^
STACK CFI 5528 .cfa: sp 128 +
STACK CFI 5544 .cfa: sp 0 +
STACK CFI 5548 .cfa: x29 96 +
STACK CFI INIT 558c 50 .cfa: sp 0 +
STACK CFI 5590 .cfa: sp 32 +
STACK CFI 5598 .cfa: x29 32 + x19: .cfa -8 + ^ x20: .cfa -16 + ^ .ra: .cfa -24 + ^ x29: .cfa -32 + ^
STACK CFI INIT 5640 178 .cfa: sp 0 +
STACK CFI 5644 .cfa: sp 80 +
STACK CFI 5658 .cfa: x29 80 + x19: .cfa -8 + ^ x20: .cfa -16 + ^ x21: .cfa -24 + ^ x22: .cfa -32 + ^ x23: .cfa -40 + ^ x24: .cfa -48 + ^ x25: .cfa -64 + ^ .ra: .cfa -72 + ^ x29: .cfa -80 + ^
STACK CFI 5784 .cfa: sp 80 +
STACK CFI 5798 .cfa: sp 0 +
STACK CFI 579c .cfa: x29 80 +
STACK CFI INIT 5a98 5a0 .cfa: sp 0 +
STACK CFI 5a9c .cfa: sp 160 +
STACK CFI 5abc .cfa: x29 80 + x19: .cfa -8 + ^ x20: .cfa -16 + ^ x21: .cfa -24 + ^ x22: .cfa -32 + ^ x23: .cfa -40 + ^ x24: .cfa -48 + ^ x25: .cfa -56 + ^ x26: .cfa -64 + ^ .ra: .cfa -72 + ^ x29: .cfa -80 + ^ v8: .cfa -88 + ^ v9: .cfa -96 + ^ v10: .cfa -112 + ^
STACK CFI 5fe0 .cfa: sp 160 +
STACK CFI 6000 .cfa: sp 0 +
STACK CFI 6004 .cfa: x29 80 +
STACK CFI INIT 6038 170 .cfa: sp 0 +
STACK CFI 603c .cfa: sp 96 +
STACK CFI 6054 .cfa: x29 96 + x19: .cfa -8 + ^ x20: .cfa -16 + ^ x21: .cfa -24 + ^ x22: .cfa -32 + ^ x23: .cfa -40 + ^ x24: .cfa -48 + ^ x25: .cfa -56 + ^ x26: .cfa -64 + ^ x27: .cfa -80 + ^ .ra: .cfa -88 + ^ x29: .cfa -96 + ^
STACK CFI 6168 .cfa: sp 96 +
STACK CFI 6180 .cfa: sp 0 +
STACK CFI 6184 .cfa: x29 96 +
