MODULE Linux arm64 03CB125803A3C464E2BA83683DB318B90 terma.ambienticons.android64.so
INFO CODE_ID 5812CB03A30364C4E2BA83683DB318B9B6DB45BF
INFO GENERATOR mozilla/dump_syms 2.3.4
PUBLIC 112f0 0 __on_dlclose
PUBLIC 11300 0 __emutls_unregister_key
PUBLIC 11308 0 __on_dlclose_late
PUBLIC 11310 0 __atexit_handler_wrapper
PUBLIC 11324 0 atexit
PUBLIC 11340 0 pthread_atfork
PUBLIC 11350 0 unwind_phase2
PUBLIC 11484 0 _Unwind_Resume
PUBLIC 11508 0 unwind_phase2_forced
PUBLIC m 115fc 0 __unw_init_local
PUBLIC m 116a4 0 __unw_get_reg
PUBLIC 11720 0 __unw_step_stage2
PUBLIC m 11734 0 __unw_get_proc_info
PUBLIC m 11774 0 __unw_resume
PUBLIC 1179c 0 libunwind::CFI_Parser<libunwind::LocalAddressSpace>::decodeFDE(libunwind::LocalAddressSpace&, unsigned long, libunwind::CFI_Parser<libunwind::LocalAddressSpace>::FDE_Info*, libunwind::CFI_Parser<libunwind::LocalAddressSpace>::CIE_Info*, bool)
PUBLIC 1192c 0 libunwind::CFI_Parser<libunwind::LocalAddressSpace>::parseCIE(libunwind::LocalAddressSpace&, unsigned long, libunwind::CFI_Parser<libunwind::LocalAddressSpace>::CIE_Info*)
PUBLIC 11bf4 0 libunwind::AbstractUnwindCursor::~AbstractUnwindCursor()
PUBLIC 11bfc 0 libunwind::UnwindCursor<libunwind::LocalAddressSpace, libunwind::Registers_arm64>::~UnwindCursor()
PUBLIC 11c04 0 libunwind::UnwindCursor<libunwind::LocalAddressSpace, libunwind::Registers_arm64>::validReg(int)
PUBLIC 11c48 0 libunwind::UnwindCursor<libunwind::LocalAddressSpace, libunwind::Registers_arm64>::getReg(int)
PUBLIC 11d30 0 libunwind::UnwindCursor<libunwind::LocalAddressSpace, libunwind::Registers_arm64>::setReg(int, unsigned long)
PUBLIC 11e18 0 libunwind::UnwindCursor<libunwind::LocalAddressSpace, libunwind::Registers_arm64>::validFloatReg(int)
PUBLIC 11e2c 0 libunwind::UnwindCursor<libunwind::LocalAddressSpace, libunwind::Registers_arm64>::getFloatReg(int)
PUBLIC 11e3c 0 libunwind::UnwindCursor<libunwind::LocalAddressSpace, libunwind::Registers_arm64>::setFloatReg(int, double)
PUBLIC 11e4c 0 libunwind::UnwindCursor<libunwind::LocalAddressSpace, libunwind::Registers_arm64>::step(bool)
PUBLIC 11f3c 0 libunwind::UnwindCursor<libunwind::LocalAddressSpace, libunwind::Registers_arm64>::getInfo(unw_proc_info_t*)
PUBLIC 11f80 0 libunwind::UnwindCursor<libunwind::LocalAddressSpace, libunwind::Registers_arm64>::jumpto()
PUBLIC 11f8c 0 libunwind::UnwindCursor<libunwind::LocalAddressSpace, libunwind::Registers_arm64>::isSignalFrame()
PUBLIC 11f98 0 libunwind::UnwindCursor<libunwind::LocalAddressSpace, libunwind::Registers_arm64>::getFunctionName(char*, unsigned long, unsigned long*)
PUBLIC 11fc4 0 libunwind::UnwindCursor<libunwind::LocalAddressSpace, libunwind::Registers_arm64>::setInfoBasedOnIPRegister(bool)
PUBLIC 12200 0 libunwind::UnwindCursor<libunwind::LocalAddressSpace, libunwind::Registers_arm64>::getRegisterName(int)
PUBLIC 1220c 0 libunwind::UnwindCursor<libunwind::LocalAddressSpace, libunwind::Registers_arm64>::stepThroughSigReturn(libunwind::Registers_arm64&)
PUBLIC 1232c 0 libunwind::DwarfInstructions<libunwind::LocalAddressSpace, libunwind::Registers_arm64>::stepWithDwarf(libunwind::LocalAddressSpace&, unsigned long, unsigned long, libunwind::Registers_arm64&, bool&, bool)
PUBLIC 127c0 0 libunwind::CFI_Parser<libunwind::LocalAddressSpace>::parseFDEInstructions(libunwind::LocalAddressSpace&, libunwind::CFI_Parser<libunwind::LocalAddressSpace>::FDE_Info const&, libunwind::CFI_Parser<libunwind::LocalAddressSpace>::CIE_Info const&, unsigned long, int, libunwind::CFI_Parser<libunwind::LocalAddressSpace>::PrologInfo*)
PUBLIC 13338 0 libunwind::DwarfInstructions<libunwind::LocalAddressSpace, libunwind::Registers_arm64>::getCFA(libunwind::LocalAddressSpace&, libunwind::CFI_Parser<libunwind::LocalAddressSpace>::PrologInfo const&, libunwind::Registers_arm64 const&)
PUBLIC 1346c 0 libunwind::DwarfInstructions<libunwind::LocalAddressSpace, libunwind::Registers_arm64>::getSavedRegister(libunwind::LocalAddressSpace&, libunwind::Registers_arm64 const&, unsigned long, libunwind::CFI_Parser<libunwind::LocalAddressSpace>::RegisterLocation const&)
PUBLIC 1367c 0 libunwind::LocalAddressSpace::getEncodedP(unsigned long&, unsigned long, unsigned char, unsigned long)
PUBLIC 13a08 0 libunwind::LocalAddressSpace::getULEB128(unsigned long&, unsigned long)
PUBLIC 13bd0 0 libunwind::DwarfInstructions<libunwind::LocalAddressSpace, libunwind::Registers_arm64>::evaluateExpression(unsigned long, libunwind::LocalAddressSpace&, libunwind::Registers_arm64 const&, unsigned long)
PUBLIC 14594 0 libunwind::UnwindCursor<libunwind::LocalAddressSpace, libunwind::Registers_arm64>::getInfoFromDwarfSection(unsigned long, libunwind::UnwindInfoSections const&, unsigned int)
PUBLIC 14868 0 libunwind::findUnwindSectionsByPhdr(dl_phdr_info*, unsigned long, void*)
PUBLIC 14998 0 libunwind::EHHeaderParser<libunwind::LocalAddressSpace>::decodeEHHdr(libunwind::LocalAddressSpace&, unsigned long, unsigned long, libunwind::EHHeaderParser<libunwind::LocalAddressSpace>::EHHeaderInfo&)
PUBLIC 14ab8 0 libunwind::CFI_Parser<libunwind::LocalAddressSpace>::findFDE(libunwind::LocalAddressSpace&, unsigned long, unsigned long, unsigned long, unsigned long, libunwind::CFI_Parser<libunwind::LocalAddressSpace>::FDE_Info*, libunwind::CFI_Parser<libunwind::LocalAddressSpace>::CIE_Info*)
PUBLIC 14c80 0 libunwind::EHHeaderParser<libunwind::LocalAddressSpace>::findFDE(libunwind::LocalAddressSpace&, unsigned long, unsigned long, unsigned int, libunwind::CFI_Parser<libunwind::LocalAddressSpace>::FDE_Info*, libunwind::CFI_Parser<libunwind::LocalAddressSpace>::CIE_Info*)
PUBLIC 14de8 0 libunwind::EHHeaderParser<libunwind::LocalAddressSpace>::getTableEntrySize(unsigned char)
PUBLIC 14ee4 0 libunwind::Registers_arm64::getRegisterName(int)
PUBLIC 14f14 0 __libunwind_Registers_arm64_jumpto
PUBLIC m 14fa4 0 __unw_getcontext
PUBLIC 15040 0 __aarch64_ldadd8_relax
PUBLIC 15070 0 init_have_lse_atomics
PUBLIC 15108 0 __init_cpu_features_constructor
PUBLIC 153b4 0 __init_cpu_features
PUBLIC 15440 0 __aarch64_ldadd8_acq_rel
PUBLIC 15470 0 __cxx_global_var_init
PUBLIC 15d48 0 geode::modifier::ModifyBase<geode::modifier::ModifyDerive<AmbientGJBGL, GJBaseGameLayer> >::~ModifyBase()
PUBLIC 15d60 0 geode::modifier::ModifyDerive<AmbientGJBGL, GJBaseGameLayer>::apply()
PUBLIC 1615c 0 std::__ndk1::shared_ptr<geode::Hook>::~shared_ptr[abi:ne190000]()
PUBLIC m 161ac 0 geode::impl::ResultData<geode::Hook*, std::__ndk1::basic_string<char, std::__ndk1::char_traits<char>, std::__ndk1::allocator<char> > >::~ResultData()
PUBLIC 16220 0 std::__ndk1::vector<std::__ndk1::basic_string<char, std::__ndk1::char_traits<char>, std::__ndk1::allocator<char> >, std::__ndk1::allocator<std::__ndk1::basic_string<char, std::__ndk1::char_traits<char>, std::__ndk1::allocator<char> > > >::~vector[abi:ne190000]()
PUBLIC 1629c 0 geode::modifier::ModifyBase<geode::modifier::ModifyDerive<AmbientGJBGL, GJBaseGameLayer> >::apply()
PUBLIC 162a0 0 __clang_call_terminate
PUBLIC m 162b0 0 _ZN5geode15UnwrapExceptionC2IRPNS_4HookEQsr4implE18IsStringStreamableIT_EEENS_4impl5OkTagEOS5_
PUBLIC 16404 0 std::__ndk1::__throw_bad_variant_access[abi:ne190000]()
PUBLIC 16438 0 std::__ndk1::basic_stringstream<char, std::__ndk1::char_traits<char>, std::__ndk1::allocator<char> >::basic_stringstream[abi:ne190000]()
PUBLIC m 1656c 0 std::__ndk1::basic_stringstream<char, std::__ndk1::char_traits<char>, std::__ndk1::allocator<char> >::~basic_stringstream()
PUBLIC 165ec 0 geode::UnwrapException::~UnwrapException()
PUBLIC 16610 0 std::__ndk1::__put_character_sequence[abi:ne190000]<char, std::__ndk1::char_traits<char> >(std::__ndk1::basic_ostream<char, std::__ndk1::char_traits<char> >, std::__ndk1::basic_ostream const*, unsigned long)
PUBLIC 167b4 0 std::__ndk1::__pad_and_output[abi:ne190000]<char, std::__ndk1::char_traits<char> >(std::__ndk1::char_traits<char>, std::__ndk1::ostreambuf_iterator const*, std::__ndk1::ostreambuf_iterator const, std::__ndk1::ostreambuf_iterator const, std::__ndk1::ios_base&, std::__ndk1::ostreambuf_iterator)
PUBLIC 169a0 0 std::__ndk1::basic_string<char, std::__ndk1::char_traits<char>, std::__ndk1::allocator<char> >::__throw_length_error[abi:ne190000]() const
PUBLIC 169b4 0 std::__ndk1::__throw_length_error[abi:ne190000](char const*)
PUBLIC 16a04 0 std::length_error::length_error[abi:ne190000](char const*)
PUBLIC 16a34 0 std::__throw_bad_array_new_length([abi:ne190000], void)
PUBLIC 16a68 0 std::__ndk1::basic_stringbuf<char, std::__ndk1::char_traits<char>, std::__ndk1::allocator<char> >::str[abi:ne190000]() &&
PUBLIC 16bd8 0 std::__ndk1::basic_stringbuf<char, std::__ndk1::char_traits<char>, std::__ndk1::allocator<char> >::__init_buf_ptrs[abi:ne190000]()
PUBLIC 16d20 0 std::__ndk1::basic_string<char, std::__ndk1::char_traits<char>, std::__ndk1::allocator<char> >::__erase_external_with_move(unsigned long, unsigned long)
PUBLIC 16da8 0 std::__ndk1::__throw_out_of_range[abi:ne190000](char const*)
PUBLIC 16df8 0 std::out_of_range::out_of_range[abi:ne190000](char const*)
PUBLIC m 16e28 0 std::__ndk1::vector<std::__ndk1::basic_string<char, std::__ndk1::char_traits<char>, std::__ndk1::allocator<char> >, std::__ndk1::allocator<std::__ndk1::basic_string<char, std::__ndk1::char_traits<char>, std::__ndk1::allocator<char> > > >::__push_back_slow_path<std::__ndk1::basic_string<char, std::__ndk1::char_traits<char>, std::__ndk1::allocator<char> > const&>(std::__ndk1::basic_string<char, std::__ndk1::char_traits<char>, std::__ndk1::allocator<char> > const&)
PUBLIC m 16fd4 0 std::__ndk1::basic_string<char, std::__ndk1::char_traits<char>, std::__ndk1::allocator<char> >::__init_copy_ctor_external(char const*, unsigned long)
PUBLIC 17068 0 std::__ndk1::__split_buffer<std::__ndk1::basic_string<char, std::__ndk1::char_traits<char>, std::__ndk1::allocator<char> >, std::__ndk1::allocator<std::__ndk1::basic_string<char, std::__ndk1::char_traits<char>, std::__ndk1::allocator<char> > >&>::~__split_buffer()
PUBLIC 170d0 0 std::__ndk1::vector<std::__ndk1::basic_string<char, std::__ndk1::char_traits<char>, std::__ndk1::allocator<char> >, std::__ndk1::allocator<std::__ndk1::basic_string<char, std::__ndk1::char_traits<char>, std::__ndk1::allocator<char> > > >::__throw_length_error[abi:ne190000]() const
PUBLIC 170e4 0 std::__ndk1::__variant_detail::__visitation::__base::__dispatcher<(unsigned long)0>::__dispatch[abi:ne190000]<std::__ndk1::__variant_detail::__dtor<std::__ndk1::__variant_detail::__traits<geode::Hook*, std::__ndk1::basic_string<char, std::__ndk1::char_traits<char>, std::__ndk1::allocator<char> > >, (std::__ndk1::__variant_detail::_Trait)1>::__destroy[abi:ne190000]()::{lambda(auto:1&)#1}, std::__ndk1::__variant_detail::__base<(std::__ndk1::__variant_detail::__traits<geode::Hook*, std::__ndk1::basic_string<char, std::__ndk1::char_traits<char>, std::__ndk1::allocator<char> > >)1, geode::Hook, std::__ndk1::allocator<char> >&>(std::__ndk1::__variant_detail::__dtor<std::__ndk1::__variant_detail::__traits<geode::Hook*, std::__ndk1::basic_string<char, std::__ndk1::char_traits<char>, std::__ndk1::allocator<char> > >, (std::__ndk1::__variant_detail::_Trait)1>, std::__ndk1::__variant_detail::__base<(std::__ndk1::__variant_detail::__traits<geode::Hook*, std::__ndk1::basic_string<char, std::__ndk1::char_traits<char>, std::__ndk1::allocator<char> > >)1, geode::Hook, std::__ndk1::allocator<char> >&)
PUBLIC 170e8 0 std::__ndk1::__variant_detail::__visitation::__base::__dispatcher<(unsigned long)1>::__dispatch[abi:ne190000]<std::__ndk1::__variant_detail::__dtor<std::__ndk1::__variant_detail::__traits<geode::Hook*, std::__ndk1::basic_string<char, std::__ndk1::char_traits<char>, std::__ndk1::allocator<char> > >, (std::__ndk1::__variant_detail::_Trait)1>::__destroy[abi:ne190000]()::{lambda(auto:1&)#1}, std::__ndk1::__variant_detail::__base<(std::__ndk1::__variant_detail::__traits<geode::Hook*, std::__ndk1::basic_string<char, std::__ndk1::char_traits<char>, std::__ndk1::allocator<char> > >)1, geode::Hook, std::__ndk1::allocator<char> >&>(std::__ndk1::__variant_detail::__dtor<std::__ndk1::__variant_detail::__traits<geode::Hook*, std::__ndk1::basic_string<char, std::__ndk1::char_traits<char>, std::__ndk1::allocator<char> > >, (std::__ndk1::__variant_detail::_Trait)1>, std::__ndk1::__variant_detail::__base<(std::__ndk1::__variant_detail::__traits<geode::Hook*, std::__ndk1::basic_string<char, std::__ndk1::char_traits<char>, std::__ndk1::allocator<char> > >)1, geode::Hook, std::__ndk1::allocator<char> >&)
PUBLIC m 170fc 0 std::__ndk1::__tree<std::__ndk1::__value_type<std::__ndk1::basic_string<char, std::__ndk1::char_traits<char>, std::__ndk1::allocator<char> >, std::__ndk1::shared_ptr<geode::Hook> >, std::__ndk1::__map_value_compare<std::__ndk1::basic_string<char, std::__ndk1::char_traits<char>, std::__ndk1::allocator<char> >, std::__ndk1::__value_type<std::__ndk1::basic_string<char, std::__ndk1::char_traits<char>, std::__ndk1::allocator<char> >, std::__ndk1::shared_ptr<geode::Hook> >, std::__ndk1::less<std::__ndk1::basic_string<char, std::__ndk1::char_traits<char>, std::__ndk1::allocator<char> > >, true>, std::__ndk1::allocator<std::__ndk1::__value_type<std::__ndk1::basic_string<char, std::__ndk1::char_traits<char>, std::__ndk1::allocator<char> >, std::__ndk1::shared_ptr<geode::Hook> > > >::find<std::__ndk1::basic_string<char, std::__ndk1::char_traits<char>, std::__ndk1::allocator<char> > >(std::__ndk1::basic_string<char, std::__ndk1::char_traits<char>, std::__ndk1::allocator<char> > const&)
PUBLIC 17224 0 std::__ndk1::__tree<std::__ndk1::__value_type<std::__ndk1::basic_string<char, std::__ndk1::char_traits<char>, std::__ndk1::allocator<char> >, std::__ndk1::shared_ptr<geode::Hook> >, std::__ndk1::__map_value_compare<std::__ndk1::basic_string<char, std::__ndk1::char_traits<char>, std::__ndk1::allocator<char> >, std::__ndk1::__value_type<std::__ndk1::basic_string<char, std::__ndk1::char_traits<char>, std::__ndk1::allocator<char> >, std::__ndk1::shared_ptr<geode::Hook> >, std::__ndk1::less<std::__ndk1::basic_string<char, std::__ndk1::char_traits<char>, std::__ndk1::allocator<char> > >, true>, std::__ndk1::allocator<std::__ndk1::__value_type<std::__ndk1::basic_string<char, std::__ndk1::char_traits<char>, std::__ndk1::allocator<char> >, std::__ndk1::shared_ptr<geode::Hook> > > >::destroy(std::__ndk1::__tree_node<std::__ndk1::__value_type<std::__ndk1::basic_string<char, std::__ndk1::char_traits<char>, std::__ndk1::allocator<char> >, std::__ndk1::shared_ptr<geode::Hook> >, void*>*)
PUBLIC m 172a8 0 geode::modifier::AsStaticFunction_init<AmbientGJBGL, bool (AmbientGJBGL::*)()>::Impl<bool (AmbientGJBGL::*)()>::function(AmbientGJBGL*)
PUBLIC 17a5c 0 geode::addresser::Addresser::addressOfVirtual<bool, GJBaseGameLayer, >(bool (GJBaseGameLayer::*)())
PUBLIC 17b28 0 GJBaseGameLayer::GJBaseGameLayer(geode::ZeroConstructorType)
PUBLIC 182b4 0 GJGameState::GJGameState()
PUBLIC 18818 0 geode::stl::unordered_map<int, int, geode::stl::hash<int>, geode::stl::equal_to<int>, std::__ndk1::allocator<std::__ndk1::pair<int const, int> > >::~unordered_map()
PUBLIC 18890 0 geode::stl::unordered_set<int, geode::stl::hash<int>, geode::stl::equal_to<int>, std::__ndk1::allocator<int> >::~unordered_set()
PUBLIC 18908 0 geode::stl::unordered_map<int, gd::string, geode::stl::hash<int>, geode::stl::equal_to<int>, std::__ndk1::allocator<std::__ndk1::pair<int const, gd::string> > >::~unordered_map()
PUBLIC 1898c 0 gd::map<std::__ndk1::pair<int, int>, int>::~map()
PUBLIC 189a8 0 geode::stl::unordered_map<int, gd::vector<LabelGameObject*>, geode::stl::hash<int>, geode::stl::equal_to<int>, std::__ndk1::allocator<std::__ndk1::pair<int const, gd::vector<LabelGameObject*> > > >::~unordered_map()
PUBLIC 18a34 0 geode::stl::unordered_map<int, std::__ndk1::pair<int, int>, geode::stl::hash<int>, geode::stl::equal_to<int>, std::__ndk1::allocator<std::__ndk1::pair<int const, std::__ndk1::pair<int, int> > > >::~unordered_map()
PUBLIC 18aac 0 geode::stl::unordered_map<int, gd::vector<GameObject*>, geode::stl::hash<int>, geode::stl::equal_to<int>, std::__ndk1::allocator<std::__ndk1::pair<int const, gd::vector<GameObject*> > > >::~unordered_map()
PUBLIC 18b38 0 geode::stl::unordered_map<int, cocos2d::CCPoint, geode::stl::hash<int>, geode::stl::equal_to<int>, std::__ndk1::allocator<std::__ndk1::pair<int const, cocos2d::CCPoint> > >::~unordered_map()
PUBLIC 18bb0 0 gd::vector<geode::stl::unordered_map<int, int, geode::stl::hash<int>, geode::stl::equal_to<int>, std::__ndk1::allocator<std::__ndk1::pair<int const, int> > > >::~vector()
PUBLIC 18cb4 0 GJGameState::~GJGameState()
PUBLIC 190ac 0 cocos2d::CCCopying::copyWithZone(cocos2d::CCZone*)
PUBLIC 190b4 0 cocos2d::CCKeyboardDelegate::keyUp(cocos2d::enumKeyCodes)
PUBLIC 190b8 0 cocos2d::CCMouseDelegate::rightKeyDown()
PUBLIC 190bc 0 cocos2d::CCMouseDelegate::rightKeyUp()
PUBLIC 190c0 0 cocos2d::CCMouseDelegate::scrollWheel(float, float)
PUBLIC 190c4 0 geode::stl::unordered_map<int, SongChannelState, geode::stl::hash<int>, geode::stl::equal_to<int>, std::__ndk1::allocator<std::__ndk1::pair<int const, SongChannelState> > >::~unordered_map()
PUBLIC 1913c 0 gd::map<std::__ndk1::pair<int, int>, SFXTriggerInstance>::~map()
PUBLIC 19158 0 geode::stl::unordered_map<int, std::__ndk1::vector<int, std::__ndk1::allocator<int> >, geode::stl::hash<int>, geode::stl::equal_to<int>, std::__ndk1::allocator<std::__ndk1::pair<int const, std::__ndk1::vector<int, std::__ndk1::allocator<int> > > > >::~unordered_map()
PUBLIC 191e8 0 gd::vector<EnterEffectInstance>::~vector()
PUBLIC 19280 0 geode::stl::unordered_map<int, std::__ndk1::vector<EnterEffectInstance, std::__ndk1::allocator<EnterEffectInstance> >, geode::stl::hash<int>, geode::stl::equal_to<int>, std::__ndk1::allocator<std::__ndk1::pair<int const, std::__ndk1::vector<EnterEffectInstance, std::__ndk1::allocator<EnterEffectInstance> > > > >::~unordered_map()
PUBLIC 192bc 0 gd::map<std::__ndk1::pair<GJGameEvent, int>, int>::~map()
PUBLIC 192d8 0 gd::map<std::__ndk1::pair<GJGameEvent, int>, gd::vector<EventTriggerInstance> >::~map()
PUBLIC 192f4 0 geode::stl::unordered_map<int, EnhancedGameObject*, geode::stl::hash<int>, geode::stl::equal_to<int>, std::__ndk1::allocator<std::__ndk1::pair<int const, EnhancedGameObject*> > >::~unordered_map()
PUBLIC 1936c 0 geode::stl::unordered_map<int, GameObjectPhysics, geode::stl::hash<int>, geode::stl::equal_to<int>, std::__ndk1::allocator<std::__ndk1::pair<int const, GameObjectPhysics> > >::~unordered_map()
PUBLIC 193e4 0 geode::stl::unordered_map<int, GJValueTween, geode::stl::hash<int>, geode::stl::equal_to<int>, std::__ndk1::allocator<std::__ndk1::pair<int const, GJValueTween> > >::~unordered_map()
PUBLIC 1945c 0 geode::stl::unordered_map<int, bool, geode::stl::hash<int>, geode::stl::equal_to<int>, std::__ndk1::allocator<std::__ndk1::pair<int const, bool> > >::~unordered_map()
PUBLIC 194d4 0 gd::map<std::__ndk1::pair<GJGameEvent, int>, gd::vector<EventTriggerInstance> >::map(std::__ndk1::map<std::__ndk1::pair<GJGameEvent, int>, gd::vector<EventTriggerInstance>, std::__ndk1::less<std::__ndk1::pair<GJGameEvent, int> >, std::__ndk1::allocator<std::__ndk1::pair<std::__ndk1::pair<GJGameEvent, int> const, gd::vector<EventTriggerInstance> > > >)
PUBLIC 196a0 0 gd::map<std::__ndk1::pair<GJGameEvent, int>, gd::vector<EventTriggerInstance> >::insert_pair(std::__ndk1::pair<std::__ndk1::pair<GJGameEvent, int>, gd::vector<EventTriggerInstance> > const&)
PUBLIC 19940 0 std::__ndk1::pair<std::__ndk1::pair<GJGameEvent, int>, gd::vector<EventTriggerInstance> >::~pair()
PUBLIC 199c0 0 std::__ndk1::pair<std::__ndk1::pair<GJGameEvent, int> const, gd::vector<EventTriggerInstance> >::~pair()
PUBLIC 19a40 0 gd::vector<EventTriggerInstance>::vector(gd::vector<EventTriggerInstance> const&)
PUBLIC 19be0 0 geode::stl::_rb_insert_rebalance(bool, geode::stl::_rb_tree_base*, geode::stl::_rb_tree_base*, geode::stl::_rb_tree_base&)
PUBLIC 19e98 0 gd::vector<EventTriggerInstance>::operator=(gd::vector<EventTriggerInstance> const&)
PUBLIC 1a054 0 gd::vector<EventTriggerInstance>::~vector()
PUBLIC 1a0d4 0 std::__ndk1::__tree<std::__ndk1::__value_type<std::__ndk1::pair<GJGameEvent, int>, gd::vector<EventTriggerInstance> >, std::__ndk1::__map_value_compare<std::__ndk1::pair<GJGameEvent, int>, std::__ndk1::__value_type<std::__ndk1::pair<GJGameEvent, int>, gd::vector<EventTriggerInstance> >, std::__ndk1::less<std::__ndk1::pair<GJGameEvent, int> >, true>, std::__ndk1::allocator<std::__ndk1::__value_type<std::__ndk1::pair<GJGameEvent, int>, gd::vector<EventTriggerInstance> > > >::destroy(std::__ndk1::__tree_node<std::__ndk1::__value_type<std::__ndk1::pair<GJGameEvent, int>, gd::vector<EventTriggerInstance> >, void*>*)
PUBLIC 1a16c 0 gd::map<std::__ndk1::pair<int, int>, SFXTriggerInstance>::erase(geode::stl::_rb_tree_node<std::__ndk1::pair<std::__ndk1::pair<int, int>, SFXTriggerInstance> >*)
PUBLIC 1a1c0 0 gd::map<int, EnterEffectAnimValue>::erase(geode::stl::_rb_tree_node<std::__ndk1::pair<int, EnterEffectAnimValue> >*)
PUBLIC 1a214 0 geode::stl::_Hashtable<int, std::__ndk1::pair<int const, std::__ndk1::vector<EnterEffectInstance, std::__ndk1::allocator<EnterEffectInstance> > >, std::__ndk1::allocator<std::__ndk1::pair<int const, std::__ndk1::vector<EnterEffectInstance, std::__ndk1::allocator<EnterEffectInstance> > > >, geode::stl::__detail::_Select1st, geode::stl::equal_to<int>, geode::stl::hash<int>, geode::stl::__detail::_Mod_range_hashing, geode::stl::__detail::_Default_ranged_hash, geode::stl::__detail::_Prime_rehash_policy, geode::stl::__detail::_Hashtable_traits<false, false, true> >::clear()
PUBLIC 1a2bc 0 gd::map<std::__ndk1::pair<GJGameEvent, int>, int>::erase(geode::stl::_rb_tree_node<std::__ndk1::pair<std::__ndk1::pair<GJGameEvent, int>, int> >*)
PUBLIC 1a310 0 gd::map<std::__ndk1::pair<GJGameEvent, int>, gd::vector<EventTriggerInstance> >::erase(geode::stl::_rb_tree_node<std::__ndk1::pair<std::__ndk1::pair<GJGameEvent, int>, gd::vector<EventTriggerInstance> > >*)
PUBLIC 1a3b8 0 gd::map<std::__ndk1::pair<int, int>, int>::erase(geode::stl::_rb_tree_node<std::__ndk1::pair<std::__ndk1::pair<int, int>, int> >*)
PUBLIC 1a40c 0 std::__ndk1::shared_ptr<tulip::hook::CallingConvention>::~shared_ptr[abi:ne190000]()
PUBLIC m 1a45c 0 tulip::hook::HandlerMetadata::~HandlerMetadata()
PUBLIC m 1a4c0 0 geode::Mod::getSettingValue<bool>(std::__ndk1::basic_string_view<char, std::__ndk1::char_traits<char> >) const
PUBLIC 1a5ec 0 Settings::updateSettings()::{lambda(std::__ndk1::basic_string<char, std::__ndk1::char_traits<char>, std::__ndk1::allocator<char> > const&)#1}::operator()(std::__ndk1::basic_string<char, std::__ndk1::char_traits<char>, std::__ndk1::allocator<char> > const&) const
PUBLIC 1a730 0 Settings::updateSettings()::{lambda(std::__ndk1::basic_string<char, std::__ndk1::char_traits<char>, std::__ndk1::allocator<char> > const&)#2}::operator()(std::__ndk1::basic_string<char, std::__ndk1::char_traits<char>, std::__ndk1::allocator<char> > const&) const
PUBLIC m 1a860 0 geode::Mod::getSettingValue<std::__ndk1::basic_string<char, std::__ndk1::char_traits<char>, std::__ndk1::allocator<char> > >(std::__ndk1::basic_string_view<char, std::__ndk1::char_traits<char> >) const
PUBLIC 1a9e8 0 geode::Mod::getSettingValue<double>(std::__ndk1::basic_string_view<char, std::__ndk1::char_traits<char> >) const
PUBLIC m 1ab18 0 geode::cast::traverseTypeinfoFor(void*, geode::cast::ClassTypeinfoType const*, char const*)
PUBLIC 1ac1c 0 std::__ndk1::shared_ptr<geode::StringSettingV3>::~shared_ptr[abi:ne190000]()
PUBLIC 1ac6c 0 AmbientColor::~AmbientColor()
PUBLIC 1acf8 0 AmbientColor::~AmbientColor()
PUBLIC m 1ad94 0 geode::modifier::FieldContainer::getField(unsigned long)
PUBLIC m 1afc0 0 geode::modifier::FieldContainer::setField(unsigned long, unsigned long, std::__ndk1::function<void (void*)>)
PUBLIC m 1b0cc 0 geode::modifier::FieldIntermediate<AmbientGJBGL, GJBaseGameLayer>::fieldDestructor(void*)
PUBLIC 1b0ec 0 std::__ndk1::vector<void*, std::__ndk1::allocator<void*> >::__throw_length_error[abi:ne190000]() const
PUBLIC m 1b100 0 std::__ndk1::vector<std::__ndk1::function<void (void*)>, std::__ndk1::allocator<std::__ndk1::function<void (void*)> > >::__push_back_slow_path<std::__ndk1::function<void (void*)> >(std::__ndk1::function<void (void*)>&&)
PUBLIC 1b31c 0 std::__ndk1::vector<std::__ndk1::function<void (void*)>, std::__ndk1::allocator<std::__ndk1::function<void (void*)> > >::__throw_length_error[abi:ne190000]() const
PUBLIC 1b330 0 std::__ndk1::vector<void*, std::__ndk1::allocator<void*> >::__throw_out_of_range[abi:ne190000]() const
PUBLIC 1b33c 0 std::__ndk1::vector<std::__ndk1::function<void (void*)>, std::__ndk1::allocator<std::__ndk1::function<void (void*)> > >::__throw_out_of_range[abi:ne190000]() const
PUBLIC 1b348 0 std::__ndk1::__function::__base<void (void*)>::~__base()
PUBLIC m 1b34c 0 std::__ndk1::__function::__func<void (*)(void*), std::__ndk1::allocator<void (*)(void*)>, void (void*)>::~__func()
PUBLIC 1b350 0 std::__ndk1::__function::__func<void (*)(void*), std::__ndk1::allocator<void (*)(void*)>, void (void*)>::__clone() const
PUBLIC 1b388 0 std::__ndk1::__function::__func<void (*)(void*), std::__ndk1::allocator<void (*)(void*)>, void (void*)>::__clone(std::__ndk1::__function::__base<void (void*)>*) const
PUBLIC 1b3a0 0 std::__ndk1::__function::__func<void (*)(void*), std::__ndk1::allocator<void (*)(void*)>, void (void*)>::destroy()
PUBLIC 1b3a4 0 std::__ndk1::__function::__func<void (*)(void*), std::__ndk1::allocator<void (*)(void*)>, void (void*)>::destroy_deallocate()
PUBLIC 1b3a8 0 std::__ndk1::__function::__func<void (*)(void*), std::__ndk1::allocator<void (*)(void*)>, void (void*)>::operator()(void*&&)
PUBLIC 1b3b8 0 std::__ndk1::__function::__func<void (*)(void*), std::__ndk1::allocator<void (*)(void*)>, void (void*)>::target(std::type_info const&) const
PUBLIC 1b3d4 0 std::__ndk1::__function::__func<void (*)(void*), std::__ndk1::allocator<void (*)(void*)>, void (void*)>::target_type() const
PUBLIC 1b3e0 0 std::__ndk1::__tree_balance_after_insert[abi:ne190000]<std::__ndk1::__tree_node_base<void*>*>(std::__ndk1::__tree_node_base<void*>*, std::__ndk1::__tree_node_base<void*>*)
PUBLIC m 1b588 0 AmbientColor::onChange(float)
PUBLIC m 1b618 0 AmbientColor::getScreenColor(GJBaseGameLayer*)
PUBLIC m 1b8dc 0 AmbientColor::setIconColor(cocos2d::_ccColor3B, PlayerObject*, bool)
PUBLIC 1ba04 0 geode::Ref<GJBaseGameLayer>::~Ref()
PUBLIC m 1ba20 0 AmbientColor::getRenderColor(GJBaseGameLayer*, cocos2d::CCSprite*, Settings::ColorPicker)
PUBLIC m 1baf4 0 AmbientColor::getPickSprite(GJBaseGameLayer*)
PUBLIC m 1bc08 0 geode::getMod()
PUBLIC m 1bc44 0 geodeImplicitEntry
PUBLIC 1bc80 0 std::__ndk1::unordered_map<void*, bool, std::__ndk1::hash<void*>, std::__ndk1::equal_to<void*>, std::__ndk1::allocator<std::__ndk1::pair<void* const, bool> > >::~unordered_map[abi:ne190000]()
PUBLIC 1bccc 0 wrapFunction(unsigned long, tulip::hook::WrapperMetadata const&)
PUBLIC 1be00 0 geode::impl::ResultData<void*, std::__ndk1::basic_string<char, std::__ndk1::char_traits<char>, std::__ndk1::allocator<char> > >::unwrapErr() &
PUBLIC 1be78 0 geode::impl::ResultData<void*, std::__ndk1::basic_string<char, std::__ndk1::char_traits<char>, std::__ndk1::allocator<char> > >::~ResultData()
PUBLIC 1beec 0 tulip::hook::WrapperMetadata::~WrapperMetadata()
PUBLIC 1bf50 0 cocos2d::CCObject::~CCObject()
PUBLIC 1bf74 0 cocos2d::CCNode::CCNode()
PUBLIC 1c1d0 0 cocos2d::CCNode::~CCNode()
PUBLIC 1c1f4 0 {virtual override thunk({offset(-320)}, cocos2d::CCLayer::~CCLayer())}
PUBLIC 1c1fc 0 cocos2d::CCLayer::~CCLayer()
PUBLIC 1c220 0 {virtual override thunk({offset(-320)}, cocos2d::CCLayer::~CCLayer())}
PUBLIC m 1c248 0 GJBaseGameLayer::~GJBaseGameLayer()
PUBLIC 1d1e0 0 {virtual override thunk({offset(-320)}, GJBaseGameLayer::~GJBaseGameLayer())}
PUBLIC 1d1e8 0 GJBaseGameLayer::~GJBaseGameLayer()
PUBLIC 1d20c 0 {virtual override thunk({offset(-320)}, GJBaseGameLayer::~GJBaseGameLayer())}
PUBLIC 1d234 0 GJBaseGameLayer::toggleGroupTriggered(int, bool, gd::vector<int> const&, int, int)
PUBLIC 1d3b4 0 tulip::hook::AbstractFunction::from<void, GJBaseGameLayer*, int, bool, gd::vector<int> const&, int, int>(void (*)(GJBaseGameLayer*, int, bool, gd::vector<int> const&, int, int))
PUBLIC 1d520 0 {virtual override thunk({offset(-408)}, GJBaseGameLayer::toggleGroupTriggered(int, bool, gd::vector<int> const&, int, int))}
PUBLIC 1d528 0 GJBaseGameLayer::spawnGroup(int, bool, double, gd::vector<int> const&, int, int)
PUBLIC 1d6b8 0 tulip::hook::AbstractFunction::from<void, GJBaseGameLayer*, int, bool, double, gd::vector<int> const&, int, int>(void (*)(GJBaseGameLayer*, int, bool, double, gd::vector<int> const&, int, int))
PUBLIC 1d828 0 {virtual override thunk({offset(-408)}, GJBaseGameLayer::spawnGroup(int, bool, double, gd::vector<int> const&, int, int))}
PUBLIC 1d830 0 GJBaseGameLayer::spawnObject(GameObject*, double, gd::vector<int> const&)
PUBLIC 1d9a0 0 tulip::hook::AbstractFunction::from<void, GJBaseGameLayer*, GameObject*, double, gd::vector<int> const&>(void (*)(GJBaseGameLayer*, GameObject*, double, gd::vector<int> const&))
PUBLIC 1daa8 0 {virtual override thunk({offset(-408)}, GJBaseGameLayer::spawnObject(GameObject*, double, gd::vector<int> const&))}
PUBLIC 1dab0 0 GJBaseGameLayer::activatePlatformerEndTrigger(EndTriggerGameObject*, gd::vector<int> const&)
PUBLIC 1dbfc 0 tulip::hook::AbstractFunction::from<void, GJBaseGameLayer*, EndTriggerGameObject*, gd::vector<int> const&>(void (*)(GJBaseGameLayer*, EndTriggerGameObject*, gd::vector<int> const&))
PUBLIC 1dcf8 0 GJBaseGameLayer::toggleGlitter(bool)
PUBLIC 1dcfc 0 GJBaseGameLayer::timeForPos(cocos2d::CCPoint, int, int, bool, int)
PUBLIC 1dd04 0 GJBaseGameLayer::posForTime(float)
PUBLIC 1dd0c 0 GJBaseGameLayer::resetSPTriggered()
PUBLIC 1dd10 0 GJBaseGameLayer::createCustomParticle(gd::string const&, cocos2d::ParticleStruct const&, int, bool)
PUBLIC 1de74 0 tulip::hook::AbstractFunction::from<TodoReturnPlaceholder, GJBaseGameLayer*, gd::string const&, cocos2d::ParticleStruct const&, int, bool>(TodoReturnPlaceholder (*)(GJBaseGameLayer*, gd::string const&, cocos2d::ParticleStruct const&, int, bool))
PUBLIC 1dfd0 0 GJBaseGameLayer::claimCustomParticle(gd::string const&, cocos2d::ParticleStruct const&, int, int, int, bool)
PUBLIC 1e14c 0 tulip::hook::AbstractFunction::from<TodoReturnPlaceholder, GJBaseGameLayer*, gd::string const&, cocos2d::ParticleStruct const&, int, int, int, bool>(TodoReturnPlaceholder (*)(GJBaseGameLayer*, gd::string const&, cocos2d::ParticleStruct const&, int, int, int, bool))
PUBLIC 1e2bc 0 GJBaseGameLayer::unclaimCustomParticle(gd::string const&, cocos2d::CCParticleSystemQuad*)
PUBLIC 1e408 0 tulip::hook::AbstractFunction::from<TodoReturnPlaceholder, GJBaseGameLayer*, gd::string const&, cocos2d::CCParticleSystemQuad*>(TodoReturnPlaceholder (*)(GJBaseGameLayer*, gd::string const&, cocos2d::CCParticleSystemQuad*))
PUBLIC 1e504 0 cocos2d::CCObject::update(float)
PUBLIC 1e508 0 cocos2d::CCLayer::~CCLayer()
PUBLIC 1e7f8 0 cocos2d::CCNode::~CCNode()
PUBLIC 1ea98 0 cocos2d::CCObject::~CCObject()
PUBLIC 1ef8c 0 _ZN5geode15UnwrapExceptionC2IRPvQsr4implE18IsStringStreamableIT_EEENS_4impl5OkTagEOS4_
PUBLIC 1f0e0 0 _ZN5geode15UnwrapExceptionC2IRNSt6__ndk112basic_stringIcNS2_11char_traitsIcEENS2_9allocatorIcEEEEQsr4implE18IsStringStreamableIT_EEENS_4impl6ErrTagEOSA_
PUBLIC 1f248 0 std::__ndk1::__variant_detail::__visitation::__base::__dispatcher<(unsigned long)0>::__dispatch[abi:ne190000]<std::__ndk1::__variant_detail::__dtor<std::__ndk1::__variant_detail::__traits<void*, std::__ndk1::basic_string<char, std::__ndk1::char_traits<char>, std::__ndk1::allocator<char> > >, (std::__ndk1::__variant_detail::_Trait)1>::__destroy[abi:ne190000]()::{lambda(auto:1&)#1}, std::__ndk1::__variant_detail::__base<(std::__ndk1::__variant_detail::__traits<void*, std::__ndk1::basic_string<char, std::__ndk1::char_traits<char>, std::__ndk1::allocator<char> > >)1, std::__ndk1::__variant_detail::__traits, std::__ndk1::allocator<char> >&>(std::__ndk1::__variant_detail::__dtor<std::__ndk1::__variant_detail::__traits<void*, std::__ndk1::basic_string<char, std::__ndk1::char_traits<char>, std::__ndk1::allocator<char> > >, (std::__ndk1::__variant_detail::_Trait)1>, std::__ndk1::__variant_detail::__base<(std::__ndk1::__variant_detail::__traits<void*, std::__ndk1::basic_string<char, std::__ndk1::char_traits<char>, std::__ndk1::allocator<char> > >)1, std::__ndk1::__variant_detail::__traits, std::__ndk1::allocator<char> >&)
PUBLIC 1f24c 0 std::__ndk1::__variant_detail::__visitation::__base::__dispatcher<(unsigned long)1>::__dispatch[abi:ne190000]<std::__ndk1::__variant_detail::__dtor<std::__ndk1::__variant_detail::__traits<void*, std::__ndk1::basic_string<char, std::__ndk1::char_traits<char>, std::__ndk1::allocator<char> > >, (std::__ndk1::__variant_detail::_Trait)1>::__destroy[abi:ne190000]()::{lambda(auto:1&)#1}, std::__ndk1::__variant_detail::__base<(std::__ndk1::__variant_detail::__traits<void*, std::__ndk1::basic_string<char, std::__ndk1::char_traits<char>, std::__ndk1::allocator<char> > >)1, std::__ndk1::__variant_detail::__traits, std::__ndk1::allocator<char> >&>(std::__ndk1::__variant_detail::__dtor<std::__ndk1::__variant_detail::__traits<void*, std::__ndk1::basic_string<char, std::__ndk1::char_traits<char>, std::__ndk1::allocator<char> > >, (std::__ndk1::__variant_detail::_Trait)1>, std::__ndk1::__variant_detail::__base<(std::__ndk1::__variant_detail::__traits<void*, std::__ndk1::basic_string<char, std::__ndk1::char_traits<char>, std::__ndk1::allocator<char> > >)1, std::__ndk1::__variant_detail::__traits, std::__ndk1::allocator<char> >&)
PUBLIC 1f260 0 std::__ndk1::__hash_table<std::__ndk1::__hash_value_type<void*, bool>, std::__ndk1::__unordered_map_hasher<void*, std::__ndk1::__hash_value_type<void*, bool>, std::__ndk1::hash<void*>, std::__ndk1::equal_to<void*>, true>, std::__ndk1::__unordered_map_equal<void*, std::__ndk1::__hash_value_type<void*, bool>, std::__ndk1::equal_to<void*>, std::__ndk1::hash<void*>, true>, std::__ndk1::allocator<std::__ndk1::__hash_value_type<void*, bool> > >::__emplace_unique_key_args<void*, std::__ndk1::piecewise_construct_t const&, std::__ndk1::tuple<void* const&>, std::__ndk1::tuple<> >(void* const&, std::__ndk1::piecewise_construct_t const&, std::__ndk1::tuple<void* const&>, std::__ndk1::tuple<>)
PUBLIC 1f770 0 <.plt ELF section in terma.ambienticons.android64.so>
STACK CFI INIT 112f0 10 .cfa: sp 0 +
STACK CFI INIT 11300 8 .cfa: sp 0 +
STACK CFI INIT 11308 8 .cfa: sp 0 +
STACK CFI INIT 11310 14 .cfa: sp 0 +
STACK CFI INIT 11324 1c .cfa: sp 0 +
STACK CFI INIT 11340 10 .cfa: sp 0 +
STACK CFI INIT 11350 134 .cfa: sp 0 +
STACK CFI INIT 11484 84 .cfa: sp 0 +
STACK CFI INIT 11508 f4 .cfa: sp 0 +
STACK CFI INIT 115fc a8 .cfa: sp 0 +
STACK CFI INIT 116a4 7c .cfa: sp 0 +
STACK CFI INIT 11720 14 .cfa: sp 0 +
STACK CFI INIT 11734 40 .cfa: sp 0 +
STACK CFI INIT 11774 28 .cfa: sp 0 +
STACK CFI INIT 1179c 190 .cfa: sp 0 +
STACK CFI INIT 1192c 2c8 .cfa: sp 0 +
STACK CFI INIT 11bf4 8 .cfa: sp 0 +
STACK CFI INIT 11bfc 8 .cfa: sp 0 +
STACK CFI INIT 11c04 44 .cfa: sp 0 +
STACK CFI INIT 11c48 e8 .cfa: sp 0 +
STACK CFI INIT 11d30 e8 .cfa: sp 0 +
STACK CFI INIT 11e18 14 .cfa: sp 0 +
STACK CFI INIT 11e2c 10 .cfa: sp 0 +
STACK CFI INIT 11e3c 10 .cfa: sp 0 +
STACK CFI INIT 11e4c f0 .cfa: sp 0 +
STACK CFI INIT 11f3c 44 .cfa: sp 0 +
STACK CFI INIT 11f80 c .cfa: sp 0 +
STACK CFI INIT 11f8c c .cfa: sp 0 +
STACK CFI INIT 11f98 2c .cfa: sp 0 +
STACK CFI INIT 11fc4 23c .cfa: sp 0 +
STACK CFI INIT 12200 c .cfa: sp 0 +
STACK CFI INIT 1220c 120 .cfa: sp 0 +
STACK CFI INIT 1232c 494 .cfa: sp 0 +
STACK CFI INIT 127c0 b78 .cfa: sp 0 +
STACK CFI INIT 13338 134 .cfa: sp 0 +
STACK CFI INIT 1346c 210 .cfa: sp 0 +
STACK CFI INIT 1367c 38c .cfa: sp 0 +
STACK CFI INIT 13a08 1c8 .cfa: sp 0 +
STACK CFI INIT 13bd0 9c4 .cfa: sp 0 +
STACK CFI INIT 14594 2d4 .cfa: sp 0 +
STACK CFI INIT 14868 130 .cfa: sp 0 +
STACK CFI INIT 14998 120 .cfa: sp 0 +
STACK CFI INIT 14ab8 1c8 .cfa: sp 0 +
STACK CFI INIT 14c80 168 .cfa: sp 0 +
STACK CFI INIT 14de8 fc .cfa: sp 0 +
STACK CFI INIT 14ee4 30 .cfa: sp 0 +
STACK CFI INIT 15040 30 .cfa: sp 0 +
STACK CFI INIT 15070 98 .cfa: sp 0 +
STACK CFI INIT 15108 2ac .cfa: sp 0 +
STACK CFI INIT 153b4 8c .cfa: sp 0 +
STACK CFI INIT 15440 30 .cfa: sp 0 +
STACK CFI INIT 15d48 18 .cfa: sp 0 +
STACK CFI INIT 1615c 50 .cfa: sp 0 +
STACK CFI 16160 .cfa: sp 32 +
STACK CFI 16168 .cfa: x29 32 + x19: .cfa -16 + ^ .ra: .cfa -24 + ^ x29: .cfa -32 + ^
STACK CFI 16180 .cfa: sp 32 +
STACK CFI 16188 .cfa: sp 0 +
STACK CFI 1618c .cfa: x29 32 +
STACK CFI 161a0 .cfa: sp 32 +
STACK CFI 161a8 .cfa: sp 0 +
STACK CFI INIT 16220 7c .cfa: sp 0 +
STACK CFI 16224 .cfa: sp 48 +
STACK CFI 16230 .cfa: x29 48 + x19: .cfa -8 + ^ x20: .cfa -16 + ^ x21: .cfa -32 + ^ .ra: .cfa -40 + ^ x29: .cfa -48 + ^
STACK CFI 1627c .cfa: sp 48 +
STACK CFI 16288 .cfa: sp 0 +
STACK CFI 1628c .cfa: sp 48 +
STACK CFI 16298 .cfa: sp 0 +
STACK CFI INIT 1629c 4 .cfa: sp 0 +
STACK CFI INIT 162a0 10 .cfa: sp 0 +
STACK CFI 162a4 .cfa: sp 16 +
STACK CFI 162a8 .cfa: x29 16 + .ra: .cfa -8 + ^ x29: .cfa -16 + ^
STACK CFI INIT 16404 34 .cfa: sp 0 +
STACK CFI 16408 .cfa: sp 16 +
STACK CFI 1640c .cfa: x29 16 + .ra: .cfa -8 + ^ x29: .cfa -16 + ^
STACK CFI INIT 1656c 80 .cfa: sp 0 +
STACK CFI 16570 .cfa: sp 48 +
STACK CFI 1657c .cfa: x29 48 + x19: .cfa -8 + ^ x20: .cfa -16 + ^ x21: .cfa -32 + ^ .ra: .cfa -40 + ^ x29: .cfa -48 + ^
STACK CFI 165dc .cfa: sp 48 +
STACK CFI 165e8 .cfa: sp 0 +
STACK CFI INIT 165ec 24 .cfa: sp 0 +
STACK CFI 165f0 .cfa: sp 32 +
STACK CFI 165f8 .cfa: x29 32 + x19: .cfa -16 + ^ .ra: .cfa -24 + ^ x29: .cfa -32 + ^
STACK CFI 16604 .cfa: sp 32 +
STACK CFI 1660c .cfa: sp 0 +
STACK CFI INIT 169a0 14 .cfa: sp 0 +
STACK CFI 169a4 .cfa: sp 16 +
STACK CFI 169a8 .cfa: x29 16 + .ra: .cfa -8 + ^ x29: .cfa -16 + ^
STACK CFI INIT 16a04 30 .cfa: sp 0 +
STACK CFI 16a08 .cfa: sp 32 +
STACK CFI 16a10 .cfa: x29 32 + x19: .cfa -16 + ^ .ra: .cfa -24 + ^ x29: .cfa -32 + ^
STACK CFI 16a28 .cfa: sp 32 +
STACK CFI 16a30 .cfa: sp 0 +
STACK CFI INIT 16a34 34 .cfa: sp 0 +
STACK CFI 16a38 .cfa: sp 32 +
STACK CFI 16a40 .cfa: x29 32 + x19: .cfa -16 + ^ .ra: .cfa -24 + ^ x29: .cfa -32 + ^
STACK CFI INIT 16bd8 148 .cfa: sp 0 +
STACK CFI 16bdc .cfa: sp 48 +
STACK CFI 16be8 .cfa: x29 48 + x19: .cfa -8 + ^ x20: .cfa -16 + ^ x21: .cfa -32 + ^ .ra: .cfa -40 + ^ x29: .cfa -48 + ^
STACK CFI 16d10 .cfa: sp 48 +
STACK CFI 16d1c .cfa: sp 0 +
STACK CFI INIT 16d20 88 .cfa: sp 0 +
STACK CFI 16d28 .cfa: sp 48 +
STACK CFI 16d34 .cfa: x29 48 + x19: .cfa -8 + ^ x20: .cfa -16 + ^ x21: .cfa -24 + ^ x22: .cfa -32 + ^ .ra: .cfa -40 + ^ x29: .cfa -48 + ^
STACK CFI 16d98 .cfa: sp 48 +
STACK CFI 16da4 .cfa: sp 0 +
STACK CFI INIT 16df8 30 .cfa: sp 0 +
STACK CFI 16dfc .cfa: sp 32 +
STACK CFI 16e04 .cfa: x29 32 + x19: .cfa -16 + ^ .ra: .cfa -24 + ^ x29: .cfa -32 + ^
STACK CFI 16e1c .cfa: sp 32 +
STACK CFI 16e24 .cfa: sp 0 +
STACK CFI INIT 16fd4 94 .cfa: sp 0 +
STACK CFI 16fd8 .cfa: sp 48 +
STACK CFI 16fe4 .cfa: x29 48 + x19: .cfa -8 + ^ x20: .cfa -16 + ^ x21: .cfa -24 + ^ x22: .cfa -32 + ^ .ra: .cfa -40 + ^ x29: .cfa -48 + ^
STACK CFI 16ffc .cfa: sp 48 +
STACK CFI 17008 .cfa: sp 0 +
STACK CFI 1700c .cfa: x29 48 +
STACK CFI 17050 .cfa: sp 48 +
STACK CFI 1705c .cfa: sp 0 +
STACK CFI 17060 .cfa: x29 48 +
STACK CFI INIT 17068 68 .cfa: sp 0 +
STACK CFI 1706c .cfa: sp 32 +
STACK CFI 17074 .cfa: x29 32 + x19: .cfa -8 + ^ x20: .cfa -16 + ^ .ra: .cfa -24 + ^ x29: .cfa -32 + ^
STACK CFI 1708c .cfa: sp 32 +
STACK CFI 17094 .cfa: sp 0 +
STACK CFI 17098 .cfa: x29 32 +
STACK CFI 170c4 .cfa: sp 32 +
STACK CFI 170cc .cfa: sp 0 +
STACK CFI INIT 170d0 14 .cfa: sp 0 +
STACK CFI 170d4 .cfa: sp 16 +
STACK CFI 170d8 .cfa: x29 16 + .ra: .cfa -8 + ^ x29: .cfa -16 + ^
STACK CFI INIT 170e4 4 .cfa: sp 0 +
STACK CFI INIT 170e8 14 .cfa: sp 0 +
STACK CFI INIT 170fc 128 .cfa: sp 0 +
STACK CFI 17100 .cfa: sp 64 +
STACK CFI 17110 .cfa: x29 64 + x19: .cfa -8 + ^ x20: .cfa -16 + ^ x21: .cfa -24 + ^ x22: .cfa -32 + ^ x23: .cfa -40 + ^ x24: .cfa -48 + ^ .ra: .cfa -56 + ^ x29: .cfa -64 + ^
STACK CFI 17210 .cfa: sp 64 +
STACK CFI 17220 .cfa: sp 0 +
STACK CFI INIT 17224 84 .cfa: sp 0 +
STACK CFI 1722c .cfa: sp 32 +
STACK CFI 17234 .cfa: x29 32 + x19: .cfa -8 + ^ x20: .cfa -16 + ^ .ra: .cfa -24 + ^ x29: .cfa -32 + ^
STACK CFI 17274 .cfa: sp 32 +
STACK CFI 1727c .cfa: sp 0 +
STACK CFI 17284 .cfa: x29 32 +
STACK CFI INIT 18818 78 .cfa: sp 0 +
STACK CFI 1881c .cfa: sp 48 +
STACK CFI 18828 .cfa: x29 48 + x19: .cfa -8 + ^ x20: .cfa -16 + ^ x21: .cfa -32 + ^ .ra: .cfa -40 + ^ x29: .cfa -48 + ^
STACK CFI 18870 .cfa: sp 48 +
STACK CFI 1887c .cfa: sp 0 +
STACK CFI 18880 .cfa: sp 48 +
STACK CFI 1888c .cfa: sp 0 +
STACK CFI INIT 18890 78 .cfa: sp 0 +
STACK CFI 18894 .cfa: sp 48 +
STACK CFI 188a0 .cfa: x29 48 + x19: .cfa -8 + ^ x20: .cfa -16 + ^ x21: .cfa -32 + ^ .ra: .cfa -40 + ^ x29: .cfa -48 + ^
STACK CFI 188e8 .cfa: sp 48 +
STACK CFI 188f4 .cfa: sp 0 +
STACK CFI 188f8 .cfa: sp 48 +
STACK CFI 18904 .cfa: sp 0 +
STACK CFI INIT 18908 84 .cfa: sp 0 +
STACK CFI 1890c .cfa: sp 48 +
STACK CFI 18918 .cfa: x29 48 + x19: .cfa -8 + ^ x20: .cfa -16 + ^ x21: .cfa -24 + ^ x22: .cfa -32 + ^ .ra: .cfa -40 + ^ x29: .cfa -48 + ^
STACK CFI 1896c .cfa: sp 48 +
STACK CFI 18978 .cfa: sp 0 +
STACK CFI 1897c .cfa: sp 48 +
STACK CFI 18988 .cfa: sp 0 +
STACK CFI INIT 189a8 8c .cfa: sp 0 +
STACK CFI 189ac .cfa: sp 48 +
STACK CFI 189b8 .cfa: x29 48 + x19: .cfa -8 + ^ x20: .cfa -16 + ^ x21: .cfa -24 + ^ x22: .cfa -32 + ^ .ra: .cfa -40 + ^ x29: .cfa -48 + ^
STACK CFI 189f0 .cfa: sp 48 +
STACK CFI 189fc .cfa: sp 0 +
STACK CFI 18a00 .cfa: x29 48 +
STACK CFI 18a24 .cfa: sp 48 +
STACK CFI 18a30 .cfa: sp 0 +
STACK CFI INIT 18a34 78 .cfa: sp 0 +
STACK CFI 18a38 .cfa: sp 48 +
STACK CFI 18a44 .cfa: x29 48 + x19: .cfa -8 + ^ x20: .cfa -16 + ^ x21: .cfa -32 + ^ .ra: .cfa -40 + ^ x29: .cfa -48 + ^
STACK CFI 18a8c .cfa: sp 48 +
STACK CFI 18a98 .cfa: sp 0 +
STACK CFI 18a9c .cfa: sp 48 +
STACK CFI 18aa8 .cfa: sp 0 +
STACK CFI INIT 18aac 8c .cfa: sp 0 +
STACK CFI 18ab0 .cfa: sp 48 +
STACK CFI 18abc .cfa: x29 48 + x19: .cfa -8 + ^ x20: .cfa -16 + ^ x21: .cfa -24 + ^ x22: .cfa -32 + ^ .ra: .cfa -40 + ^ x29: .cfa -48 + ^
STACK CFI 18af4 .cfa: sp 48 +
STACK CFI 18b00 .cfa: sp 0 +
STACK CFI 18b04 .cfa: x29 48 +
STACK CFI 18b28 .cfa: sp 48 +
STACK CFI 18b34 .cfa: sp 0 +
STACK CFI INIT 18b38 78 .cfa: sp 0 +
STACK CFI 18b3c .cfa: sp 48 +
STACK CFI 18b48 .cfa: x29 48 + x19: .cfa -8 + ^ x20: .cfa -16 + ^ x21: .cfa -32 + ^ .ra: .cfa -40 + ^ x29: .cfa -48 + ^
STACK CFI 18b90 .cfa: sp 48 +
STACK CFI 18b9c .cfa: sp 0 +
STACK CFI 18ba0 .cfa: sp 48 +
STACK CFI 18bac .cfa: sp 0 +
STACK CFI INIT 18bb0 104 .cfa: sp 0 +
STACK CFI 18bb4 .cfa: sp 64 +
STACK CFI 18bc4 .cfa: x29 64 + x19: .cfa -8 + ^ x20: .cfa -16 + ^ x21: .cfa -24 + ^ x22: .cfa -32 + ^ x23: .cfa -48 + ^ .ra: .cfa -56 + ^ x29: .cfa -64 + ^
STACK CFI 18c8c .cfa: sp 64 +
STACK CFI 18c9c .cfa: sp 0 +
STACK CFI 18ca0 .cfa: sp 64 +
STACK CFI 18cb0 .cfa: sp 0 +
STACK CFI INIT 190ac 8 .cfa: sp 0 +
STACK CFI INIT 190b4 4 .cfa: sp 0 +
STACK CFI INIT 190b8 4 .cfa: sp 0 +
STACK CFI INIT 190bc 4 .cfa: sp 0 +
STACK CFI INIT 190c0 4 .cfa: sp 0 +
STACK CFI INIT 190c4 78 .cfa: sp 0 +
STACK CFI 190c8 .cfa: sp 48 +
STACK CFI 190d4 .cfa: x29 48 + x19: .cfa -8 + ^ x20: .cfa -16 + ^ x21: .cfa -32 + ^ .ra: .cfa -40 + ^ x29: .cfa -48 + ^
STACK CFI 1911c .cfa: sp 48 +
STACK CFI 19128 .cfa: sp 0 +
STACK CFI 1912c .cfa: sp 48 +
STACK CFI 19138 .cfa: sp 0 +
STACK CFI INIT 19158 90 .cfa: sp 0 +
STACK CFI 1915c .cfa: sp 48 +
STACK CFI 19168 .cfa: x29 48 + x19: .cfa -8 + ^ x20: .cfa -16 + ^ x21: .cfa -24 + ^ x22: .cfa -32 + ^ .ra: .cfa -40 + ^ x29: .cfa -48 + ^
STACK CFI 191a0 .cfa: sp 48 +
STACK CFI 191ac .cfa: sp 0 +
STACK CFI 191b0 .cfa: x29 48 +
STACK CFI 191d8 .cfa: sp 48 +
STACK CFI 191e4 .cfa: sp 0 +
STACK CFI INIT 19280 3c .cfa: sp 0 +
STACK CFI 19284 .cfa: sp 32 +
STACK CFI 1928c .cfa: x29 32 + x19: .cfa -16 + ^ .ra: .cfa -24 + ^ x29: .cfa -32 + ^
STACK CFI 192a4 .cfa: sp 32 +
STACK CFI 192ac .cfa: sp 0 +
STACK CFI 192b0 .cfa: sp 32 +
STACK CFI 192b8 .cfa: sp 0 +
STACK CFI INIT 192f4 78 .cfa: sp 0 +
STACK CFI 192f8 .cfa: sp 48 +
STACK CFI 19304 .cfa: x29 48 + x19: .cfa -8 + ^ x20: .cfa -16 + ^ x21: .cfa -32 + ^ .ra: .cfa -40 + ^ x29: .cfa -48 + ^
STACK CFI 1934c .cfa: sp 48 +
STACK CFI 19358 .cfa: sp 0 +
STACK CFI 1935c .cfa: sp 48 +
STACK CFI 19368 .cfa: sp 0 +
STACK CFI INIT 1936c 78 .cfa: sp 0 +
STACK CFI 19370 .cfa: sp 48 +
STACK CFI 1937c .cfa: x29 48 + x19: .cfa -8 + ^ x20: .cfa -16 + ^ x21: .cfa -32 + ^ .ra: .cfa -40 + ^ x29: .cfa -48 + ^
STACK CFI 193c4 .cfa: sp 48 +
STACK CFI 193d0 .cfa: sp 0 +
STACK CFI 193d4 .cfa: sp 48 +
STACK CFI 193e0 .cfa: sp 0 +
STACK CFI INIT 193e4 78 .cfa: sp 0 +
STACK CFI 193e8 .cfa: sp 48 +
STACK CFI 193f4 .cfa: x29 48 + x19: .cfa -8 + ^ x20: .cfa -16 + ^ x21: .cfa -32 + ^ .ra: .cfa -40 + ^ x29: .cfa -48 + ^
STACK CFI 1943c .cfa: sp 48 +
STACK CFI 19448 .cfa: sp 0 +
STACK CFI 1944c .cfa: sp 48 +
STACK CFI 19458 .cfa: sp 0 +
STACK CFI INIT 1945c 78 .cfa: sp 0 +
STACK CFI 19460 .cfa: sp 48 +
STACK CFI 1946c .cfa: x29 48 + x19: .cfa -8 + ^ x20: .cfa -16 + ^ x21: .cfa -32 + ^ .ra: .cfa -40 + ^ x29: .cfa -48 + ^
STACK CFI 194b4 .cfa: sp 48 +
STACK CFI 194c0 .cfa: sp 0 +
STACK CFI 194c4 .cfa: sp 48 +
STACK CFI 194d0 .cfa: sp 0 +
STACK CFI INIT 196a0 2a0 .cfa: sp 0 +
STACK CFI 196a4 .cfa: sp 80 +
STACK CFI 196b8 .cfa: x29 80 + x19: .cfa -8 + ^ x20: .cfa -16 + ^ x21: .cfa -24 + ^ x22: .cfa -32 + ^ x23: .cfa -40 + ^ x24: .cfa -48 + ^ x25: .cfa -64 + ^ .ra: .cfa -72 + ^ x29: .cfa -80 + ^
STACK CFI 1984c .cfa: sp 80 +
STACK CFI 19860 .cfa: sp 0 +
STACK CFI 19864 .cfa: x29 80 +
STACK CFI 19928 .cfa: sp 80 +
STACK CFI 1993c .cfa: sp 0 +
STACK CFI INIT 19940 80 .cfa: sp 0 +
STACK CFI 19944 .cfa: sp 48 +
STACK CFI 19950 .cfa: x29 48 + x19: .cfa -8 + ^ x20: .cfa -16 + ^ x21: .cfa -32 + ^ .ra: .cfa -40 + ^ x29: .cfa -48 + ^
STACK CFI 199a0 .cfa: sp 48 +
STACK CFI 199ac .cfa: sp 0 +
STACK CFI 199b0 .cfa: sp 48 +
STACK CFI 199bc .cfa: sp 0 +
STACK CFI INIT 199c0 80 .cfa: sp 0 +
STACK CFI 199c4 .cfa: sp 48 +
STACK CFI 199d0 .cfa: x29 48 + x19: .cfa -8 + ^ x20: .cfa -16 + ^ x21: .cfa -32 + ^ .ra: .cfa -40 + ^ x29: .cfa -48 + ^
STACK CFI 19a20 .cfa: sp 48 +
STACK CFI 19a2c .cfa: sp 0 +
STACK CFI 19a30 .cfa: sp 48 +
STACK CFI 19a3c .cfa: sp 0 +
STACK CFI INIT 19be0 2b8 .cfa: sp 0 +
STACK CFI INIT 19e98 1bc .cfa: sp 0 +
STACK CFI 19e9c .cfa: sp 64 +
STACK CFI 19eac .cfa: x29 64 + x19: .cfa -8 + ^ x20: .cfa -16 + ^ x21: .cfa -24 + ^ x22: .cfa -32 + ^ x23: .cfa -48 + ^ .ra: .cfa -56 + ^ x29: .cfa -64 + ^
STACK CFI 19f9c .cfa: sp 64 +
STACK CFI 19fac .cfa: sp 0 +
STACK CFI 19fb0 .cfa: x29 64 +
STACK CFI INIT 1a054 80 .cfa: sp 0 +
STACK CFI 1a058 .cfa: sp 48 +
STACK CFI 1a064 .cfa: x29 48 + x19: .cfa -8 + ^ x20: .cfa -16 + ^ x21: .cfa -32 + ^ .ra: .cfa -40 + ^ x29: .cfa -48 + ^
STACK CFI 1a0b4 .cfa: sp 48 +
STACK CFI 1a0c0 .cfa: sp 0 +
STACK CFI 1a0c4 .cfa: sp 48 +
STACK CFI 1a0d0 .cfa: sp 0 +
STACK CFI INIT 1a0d4 98 .cfa: sp 0 +
STACK CFI 1a0dc .cfa: sp 48 +
STACK CFI 1a0e8 .cfa: x29 48 + x19: .cfa -8 + ^ x20: .cfa -16 + ^ x21: .cfa -32 + ^ .ra: .cfa -40 + ^ x29: .cfa -48 + ^
STACK CFI 1a138 .cfa: sp 0 + x19: x19 x20: x20 x21: x21 .ra: x30 x29: x29
STACK CFI 1a13c .cfa: x29 48 + x19: .cfa -8 + ^ x20: .cfa -16 + ^ x21: .cfa -32 + ^ .ra: .cfa -40 + ^ x29: .cfa -48 + ^
STACK CFI 1a15c .cfa: sp 48 +
STACK CFI 1a168 .cfa: sp 0 +
STACK CFI INIT 1a16c 54 .cfa: sp 0 +
STACK CFI 1a174 .cfa: sp 32 +
STACK CFI 1a17c .cfa: x29 32 + x19: .cfa -8 + ^ x20: .cfa -16 + ^ .ra: .cfa -24 + ^ x29: .cfa -32 + ^
STACK CFI 1a1b4 .cfa: sp 32 +
STACK CFI 1a1bc .cfa: sp 0 +
STACK CFI INIT 1a1c0 54 .cfa: sp 0 +
STACK CFI 1a1c8 .cfa: sp 32 +
STACK CFI 1a1d0 .cfa: x29 32 + x19: .cfa -8 + ^ x20: .cfa -16 + ^ .ra: .cfa -24 + ^ x29: .cfa -32 + ^
STACK CFI 1a208 .cfa: sp 32 +
STACK CFI 1a210 .cfa: sp 0 +
STACK CFI INIT 1a2bc 54 .cfa: sp 0 +
STACK CFI 1a2c4 .cfa: sp 32 +
STACK CFI 1a2cc .cfa: x29 32 + x19: .cfa -8 + ^ x20: .cfa -16 + ^ .ra: .cfa -24 + ^ x29: .cfa -32 + ^
STACK CFI 1a304 .cfa: sp 32 +
STACK CFI 1a30c .cfa: sp 0 +
STACK CFI INIT 1a310 a8 .cfa: sp 0 +
STACK CFI 1a318 .cfa: sp 48 +
STACK CFI 1a324 .cfa: x29 48 + x19: .cfa -8 + ^ x20: .cfa -16 + ^ x21: .cfa -24 + ^ x22: .cfa -32 + ^ .ra: .cfa -40 + ^ x29: .cfa -48 + ^
STACK CFI 1a3a8 .cfa: sp 48 +
STACK CFI 1a3b4 .cfa: sp 0 +
STACK CFI INIT 1a3b8 54 .cfa: sp 0 +
STACK CFI 1a3c0 .cfa: sp 32 +
STACK CFI 1a3c8 .cfa: x29 32 + x19: .cfa -8 + ^ x20: .cfa -16 + ^ .ra: .cfa -24 + ^ x29: .cfa -32 + ^
STACK CFI 1a400 .cfa: sp 32 +
STACK CFI 1a408 .cfa: sp 0 +
STACK CFI INIT 1a40c 50 .cfa: sp 0 +
STACK CFI 1a410 .cfa: sp 32 +
STACK CFI 1a418 .cfa: x29 32 + x19: .cfa -16 + ^ .ra: .cfa -24 + ^ x29: .cfa -32 + ^
STACK CFI 1a430 .cfa: sp 32 +
STACK CFI 1a438 .cfa: sp 0 +
STACK CFI 1a43c .cfa: x29 32 +
STACK CFI 1a450 .cfa: sp 32 +
STACK CFI 1a458 .cfa: sp 0 +
STACK CFI INIT 1a45c 64 .cfa: sp 0 +
STACK CFI 1a460 .cfa: sp 32 +
STACK CFI 1a468 .cfa: x29 32 + x19: .cfa -16 + ^ .ra: .cfa -24 + ^ x29: .cfa -32 + ^
STACK CFI 1a494 .cfa: sp 32 +
STACK CFI 1a49c .cfa: sp 0 +
STACK CFI 1a4a0 .cfa: x29 32 +
STACK CFI 1a4b4 .cfa: sp 32 +
STACK CFI 1a4bc .cfa: sp 0 +
STACK CFI INIT 1a5ec 144 .cfa: sp 0 +
STACK CFI 1a5f0 .cfa: sp 80 +
STACK CFI 1a600 .cfa: x29 48 + x19: .cfa -8 + ^ x20: .cfa -16 + ^ x21: .cfa -32 + ^ .ra: .cfa -40 + ^ x29: .cfa -48 + ^
STACK CFI 1a6dc .cfa: sp 80 +
STACK CFI 1a6ec .cfa: sp 0 +
STACK CFI 1a6f0 .cfa: x29 48 +
STACK CFI INIT 1a730 130 .cfa: sp 0 +
STACK CFI 1a734 .cfa: sp 80 +
STACK CFI 1a744 .cfa: x29 48 + x19: .cfa -8 + ^ x20: .cfa -16 + ^ x21: .cfa -32 + ^ .ra: .cfa -40 + ^ x29: .cfa -48 + ^
STACK CFI 1a83c .cfa: sp 80 +
STACK CFI 1a84c .cfa: sp 0 +
STACK CFI 1a850 .cfa: x29 48 +
STACK CFI INIT 1ab18 104 .cfa: sp 0 +
STACK CFI 1ab1c .cfa: sp 64 +
STACK CFI 1ab2c .cfa: x29 64 + x19: .cfa -8 + ^ x20: .cfa -16 + ^ x21: .cfa -24 + ^ x22: .cfa -32 + ^ x23: .cfa -48 + ^ .ra: .cfa -56 + ^ x29: .cfa -64 + ^
STACK CFI 1ab88 .cfa: sp 64 +
STACK CFI 1ab98 .cfa: sp 0 +
STACK CFI 1ab9c .cfa: x29 64 +
STACK CFI 1abb8 .cfa: sp 64 +
STACK CFI 1abc8 .cfa: sp 0 +
STACK CFI 1abcc .cfa: x29 64 +
STACK CFI 1ac08 .cfa: sp 64 +
STACK CFI 1ac18 .cfa: sp 0 +
STACK CFI INIT 1ac1c 50 .cfa: sp 0 +
STACK CFI 1ac20 .cfa: sp 32 +
STACK CFI 1ac28 .cfa: x29 32 + x19: .cfa -16 + ^ .ra: .cfa -24 + ^ x29: .cfa -32 + ^
STACK CFI 1ac40 .cfa: sp 32 +
STACK CFI 1ac48 .cfa: sp 0 +
STACK CFI 1ac4c .cfa: x29 32 +
STACK CFI 1ac60 .cfa: sp 32 +
STACK CFI 1ac68 .cfa: sp 0 +
STACK CFI INIT 1b0ec 14 .cfa: sp 0 +
STACK CFI 1b0f0 .cfa: sp 16 +
STACK CFI 1b0f4 .cfa: x29 16 + .ra: .cfa -8 + ^ x29: .cfa -16 + ^
STACK CFI INIT 1b31c 14 .cfa: sp 0 +
STACK CFI 1b320 .cfa: sp 16 +
STACK CFI 1b324 .cfa: x29 16 + .ra: .cfa -8 + ^ x29: .cfa -16 + ^
STACK CFI INIT 1b330 c .cfa: sp 0 +
STACK CFI 1b334 .cfa: sp 16 +
STACK CFI 1b338 .cfa: x29 16 + .ra: .cfa -8 + ^ x29: .cfa -16 + ^
STACK CFI INIT 1b33c c .cfa: sp 0 +
STACK CFI 1b340 .cfa: sp 16 +
STACK CFI 1b344 .cfa: x29 16 + .ra: .cfa -8 + ^ x29: .cfa -16 + ^
STACK CFI INIT 1b348 4 .cfa: sp 0 +
STACK CFI INIT 1b34c 4 .cfa: sp 0 +
STACK CFI INIT 1b350 38 .cfa: sp 0 +
STACK CFI 1b354 .cfa: sp 32 +
STACK CFI 1b35c .cfa: x29 32 + x19: .cfa -16 + ^ .ra: .cfa -24 + ^ x29: .cfa -32 + ^
STACK CFI 1b37c .cfa: sp 32 +
STACK CFI 1b384 .cfa: sp 0 +
STACK CFI INIT 1b388 18 .cfa: sp 0 +
STACK CFI INIT 1b3a0 4 .cfa: sp 0 +
STACK CFI INIT 1b3a4 4 .cfa: sp 0 +
STACK CFI INIT 1b3a8 10 .cfa: sp 0 +
STACK CFI INIT 1b3b8 1c .cfa: sp 0 +
STACK CFI INIT 1b3d4 c .cfa: sp 0 +
STACK CFI INIT 1b3e0 1a8 .cfa: sp 0 +
STACK CFI INIT 1b8dc 128 .cfa: sp 0 +
STACK CFI 1b8e0 .cfa: sp 64 +
STACK CFI 1b8f0 .cfa: x29 48 + x19: .cfa -8 + ^ x20: .cfa -16 + ^ x21: .cfa -32 + ^ .ra: .cfa -40 + ^ x29: .cfa -48 + ^
STACK CFI 1b9ec .cfa: sp 64 +
STACK CFI 1b9fc .cfa: sp 0 +
STACK CFI 1ba00 .cfa: x29 48 +
STACK CFI INIT 1ba20 d4 .cfa: sp 0 +
STACK CFI 1ba24 .cfa: sp 64 +
STACK CFI 1ba34 .cfa: x29 64 + x19: .cfa -8 + ^ x20: .cfa -16 + ^ x21: .cfa -24 + ^ x22: .cfa -32 + ^ x23: .cfa -48 + ^ .ra: .cfa -56 + ^ x29: .cfa -64 + ^
STACK CFI 1bae0 .cfa: sp 64 +
STACK CFI 1baf0 .cfa: sp 0 +
STACK CFI INIT 1baf4 114 .cfa: sp 0 +
STACK CFI 1baf8 .cfa: sp 48 +
STACK CFI 1bb04 .cfa: x29 48 + x19: .cfa -8 + ^ x20: .cfa -16 + ^ x21: .cfa -32 + ^ .ra: .cfa -40 + ^ x29: .cfa -48 + ^
STACK CFI 1bb40 .cfa: sp 48 +
STACK CFI 1bb4c .cfa: sp 0 +
STACK CFI 1bb50 .cfa: x29 48 +
STACK CFI 1bbe4 .cfa: sp 48 +
STACK CFI 1bbf0 .cfa: sp 0 +
STACK CFI 1bbf4 .cfa: x29 48 +
STACK CFI 1bbf8 .cfa: sp 48 +
STACK CFI 1bc04 .cfa: sp 0 +
STACK CFI INIT 1bc08 3c .cfa: sp 0 +
STACK CFI 1bc0c .cfa: sp 32 +
STACK CFI 1bc14 .cfa: x29 32 + x19: .cfa -16 + ^ .ra: .cfa -24 + ^ x29: .cfa -32 + ^
STACK CFI 1bc20 .cfa: sp 32 +
STACK CFI 1bc28 .cfa: sp 0 +
STACK CFI 1bc2c .cfa: x29 32 +
STACK CFI 1bc38 .cfa: sp 32 +
STACK CFI 1bc40 .cfa: sp 0 +
STACK CFI INIT 1bc44 3c .cfa: sp 0 +
STACK CFI 1bc48 .cfa: sp 32 +
STACK CFI 1bc50 .cfa: x29 32 + x19: .cfa -16 + ^ .ra: .cfa -24 + ^ x29: .cfa -32 + ^
STACK CFI 1bc5c .cfa: sp 32 +
STACK CFI 1bc64 .cfa: sp 0 +
STACK CFI 1bc68 .cfa: x29 32 +
STACK CFI 1bc74 .cfa: sp 32 +
STACK CFI 1bc7c .cfa: sp 0 +
STACK CFI INIT 1bc80 4c .cfa: sp 0 +
STACK CFI 1bc84 .cfa: sp 32 +
STACK CFI 1bc8c .cfa: x29 32 + x19: .cfa -8 + ^ x20: .cfa -16 + ^ .ra: .cfa -24 + ^ x29: .cfa -32 + ^
STACK CFI 1bcb4 .cfa: sp 32 +
STACK CFI 1bcbc .cfa: sp 0 +
STACK CFI 1bcc0 .cfa: sp 32 +
STACK CFI 1bcc8 .cfa: sp 0 +
STACK CFI INIT 1beec 64 .cfa: sp 0 +
STACK CFI 1bef0 .cfa: sp 32 +
STACK CFI 1bef8 .cfa: x29 32 + x19: .cfa -16 + ^ .ra: .cfa -24 + ^ x29: .cfa -32 + ^
STACK CFI 1bf24 .cfa: sp 32 +
STACK CFI 1bf2c .cfa: sp 0 +
STACK CFI 1bf30 .cfa: x29 32 +
STACK CFI 1bf44 .cfa: sp 32 +
STACK CFI 1bf4c .cfa: sp 0 +
STACK CFI INIT 1bf50 24 .cfa: sp 0 +
STACK CFI 1bf54 .cfa: sp 32 +
STACK CFI 1bf5c .cfa: x29 32 + x19: .cfa -16 + ^ .ra: .cfa -24 + ^ x29: .cfa -32 + ^
STACK CFI 1bf68 .cfa: sp 32 +
STACK CFI 1bf70 .cfa: sp 0 +
STACK CFI INIT 1c1d0 24 .cfa: sp 0 +
STACK CFI 1c1d4 .cfa: sp 32 +
STACK CFI 1c1dc .cfa: x29 32 + x19: .cfa -16 + ^ .ra: .cfa -24 + ^ x29: .cfa -32 + ^
STACK CFI 1c1e8 .cfa: sp 32 +
STACK CFI 1c1f0 .cfa: sp 0 +
STACK CFI INIT 1c1f4 8 .cfa: sp 0 +
STACK CFI INIT 1c1fc 24 .cfa: sp 0 +
STACK CFI 1c200 .cfa: sp 32 +
STACK CFI 1c208 .cfa: x29 32 + x19: .cfa -16 + ^ .ra: .cfa -24 + ^ x29: .cfa -32 + ^
STACK CFI 1c214 .cfa: sp 32 +
STACK CFI 1c21c .cfa: sp 0 +
STACK CFI INIT 1c220 28 .cfa: sp 0 +
STACK CFI 1c224 .cfa: sp 32 +
STACK CFI 1c22c .cfa: x29 32 + x19: .cfa -16 + ^ .ra: .cfa -24 + ^ x29: .cfa -32 + ^
STACK CFI 1c23c .cfa: sp 32 +
STACK CFI 1c244 .cfa: sp 0 +
STACK CFI INIT 1d1e0 8 .cfa: sp 0 +
STACK CFI INIT 1d1e8 24 .cfa: sp 0 +
STACK CFI 1d1ec .cfa: sp 32 +
STACK CFI 1d1f4 .cfa: x29 32 + x19: .cfa -16 + ^ .ra: .cfa -24 + ^ x29: .cfa -32 + ^
STACK CFI 1d200 .cfa: sp 32 +
STACK CFI 1d208 .cfa: sp 0 +
STACK CFI INIT 1d20c 28 .cfa: sp 0 +
STACK CFI 1d210 .cfa: sp 32 +
STACK CFI 1d218 .cfa: x29 32 + x19: .cfa -16 + ^ .ra: .cfa -24 + ^ x29: .cfa -32 + ^
STACK CFI 1d228 .cfa: sp 32 +
STACK CFI 1d230 .cfa: sp 0 +
STACK CFI INIT 1d520 8 .cfa: sp 0 +
STACK CFI INIT 1d828 8 .cfa: sp 0 +
STACK CFI INIT 1daa8 8 .cfa: sp 0 +
STACK CFI INIT 1dcf8 4 .cfa: sp 0 +
STACK CFI INIT 1dcfc 8 .cfa: sp 0 +
STACK CFI INIT 1dd04 8 .cfa: sp 0 +
STACK CFI INIT 1dd0c 4 .cfa: sp 0 +
STACK CFI INIT 1e504 4 .cfa: sp 0 +
STACK CFI INIT 1f248 4 .cfa: sp 0 +
STACK CFI INIT 1f24c 14 .cfa: sp 0 +
STACK CFI INIT 15470 8d8 .cfa: sp 0 +
STACK CFI 15474 .cfa: sp 224 +
STACK CFI 15490 .cfa: x29 96 + x19: .cfa -8 + ^ x20: .cfa -16 + ^ x21: .cfa -24 + ^ x22: .cfa -32 + ^ x23: .cfa -40 + ^ x24: .cfa -48 + ^ x25: .cfa -56 + ^ x26: .cfa -64 + ^ x27: .cfa -72 + ^ x28: .cfa -80 + ^ .ra: .cfa -88 + ^ x29: .cfa -96 + ^
STACK CFI 156e8 .cfa: sp 224 +
STACK CFI 15704 .cfa: sp 0 +
STACK CFI 15708 .cfa: x29 96 +
STACK CFI 15c44 .cfa: sp 224 +
STACK CFI 15c60 .cfa: sp 0 +
STACK CFI 15c64 .cfa: x29 96 +
STACK CFI INIT 15d60 3fc .cfa: sp 0 +
STACK CFI 15d64 .cfa: sp 224 +
STACK CFI 15d80 .cfa: x29 96 + x19: .cfa -8 + ^ x20: .cfa -16 + ^ x21: .cfa -24 + ^ x22: .cfa -32 + ^ x23: .cfa -40 + ^ x24: .cfa -48 + ^ x25: .cfa -56 + ^ x26: .cfa -64 + ^ x27: .cfa -80 + ^ .ra: .cfa -88 + ^ x29: .cfa -96 + ^
STACK CFI 1604c .cfa: sp 224 +
STACK CFI 16068 .cfa: sp 0 +
STACK CFI 1606c .cfa: x29 96 +
STACK CFI INIT 161ac 74 .cfa: sp 0 +
STACK CFI 161b0 .cfa: sp 48 +
STACK CFI 161bc .cfa: x29 32 + x19: .cfa -8 + ^ x20: .cfa -16 + ^ .ra: .cfa -24 + ^ x29: .cfa -32 + ^
STACK CFI 16208 .cfa: sp 48 +
STACK CFI 16214 .cfa: sp 0 +
STACK CFI 16218 .cfa: x29 32 +
STACK CFI INIT 162b0 154 .cfa: sp 0 +
STACK CFI 162b4 .cfa: sp 384 +
STACK CFI 162c8 .cfa: x29 64 + x19: .cfa -8 + ^ x20: .cfa -16 + ^ x21: .cfa -24 + ^ x22: .cfa -32 + ^ x23: .cfa -40 + ^ x28: .cfa -48 + ^ .ra: .cfa -56 + ^ x29: .cfa -64 + ^
STACK CFI 163ac .cfa: sp 384 +
STACK CFI 163c0 .cfa: sp 0 +
STACK CFI 163c4 .cfa: x29 64 +
STACK CFI INIT 16438 134 .cfa: sp 0 +
STACK CFI 1643c .cfa: sp 80 +
STACK CFI 16450 .cfa: x29 80 + x19: .cfa -8 + ^ x20: .cfa -16 + ^ x21: .cfa -24 + ^ x22: .cfa -32 + ^ x23: .cfa -40 + ^ x24: .cfa -48 + ^ x25: .cfa -56 + ^ x26: .cfa -64 + ^ .ra: .cfa -72 + ^ x29: .cfa -80 + ^
STACK CFI 16520 .cfa: sp 80 +
STACK CFI 16534 .cfa: sp 0 +
STACK CFI 16538 .cfa: x29 80 +
STACK CFI INIT 16610 1a4 .cfa: sp 0 +
STACK CFI 16614 .cfa: sp 112 +
STACK CFI 1662c .cfa: x29 80 + x19: .cfa -8 + ^ x20: .cfa -16 + ^ x21: .cfa -24 + ^ x22: .cfa -32 + ^ x23: .cfa -40 + ^ x24: .cfa -48 + ^ x25: .cfa -56 + ^ x26: .cfa -64 + ^ .ra: .cfa -72 + ^ x29: .cfa -80 + ^
STACK CFI 1671c .cfa: sp 112 +
STACK CFI 16734 .cfa: sp 0 +
STACK CFI 16738 .cfa: x29 80 +
STACK CFI INIT 167b4 1ec .cfa: sp 0 +
STACK CFI 167b8 .cfa: sp 128 +
STACK CFI 167d4 .cfa: x29 96 + x19: .cfa -8 + ^ x20: .cfa -16 + ^ x21: .cfa -24 + ^ x22: .cfa -32 + ^ x23: .cfa -40 + ^ x24: .cfa -48 + ^ x25: .cfa -56 + ^ x26: .cfa -64 + ^ x27: .cfa -80 + ^ .ra: .cfa -88 + ^ x29: .cfa -96 + ^
STACK CFI 16950 .cfa: sp 128 +
STACK CFI 1696c .cfa: sp 0 +
STACK CFI 16970 .cfa: x29 96 +
STACK CFI INIT 169b4 50 .cfa: sp 0 +
STACK CFI 169b8 .cfa: sp 32 +
STACK CFI 169c0 .cfa: x29 32 + x19: .cfa -8 + ^ x20: .cfa -16 + ^ .ra: .cfa -24 + ^ x29: .cfa -32 + ^
STACK CFI INIT 16a68 170 .cfa: sp 0 +
STACK CFI 16a6c .cfa: sp 48 +
STACK CFI 16a78 .cfa: x29 48 + x19: .cfa -8 + ^ x20: .cfa -16 + ^ x21: .cfa -32 + ^ .ra: .cfa -40 + ^ x29: .cfa -48 + ^
STACK CFI 16bac .cfa: sp 48 +
STACK CFI 16bb8 .cfa: sp 0 +
STACK CFI 16bbc .cfa: x29 48 +
STACK CFI INIT 16da8 50 .cfa: sp 0 +
STACK CFI 16dac .cfa: sp 32 +
STACK CFI 16db4 .cfa: x29 32 + x19: .cfa -8 + ^ x20: .cfa -16 + ^ .ra: .cfa -24 + ^ x29: .cfa -32 + ^
STACK CFI INIT 16e28 1ac .cfa: sp 0 +
STACK CFI 16e2c .cfa: sp 128 +
STACK CFI 16e44 .cfa: x29 80 + x19: .cfa -8 + ^ x20: .cfa -16 + ^ x21: .cfa -24 + ^ x22: .cfa -32 + ^ x23: .cfa -40 + ^ x24: .cfa -48 + ^ x25: .cfa -64 + ^ .ra: .cfa -72 + ^ x29: .cfa -80 + ^
STACK CFI 16f68 .cfa: sp 128 +
STACK CFI 16f80 .cfa: sp 0 +
STACK CFI 16f84 .cfa: x29 80 +
STACK CFI INIT 172a8 7b4 .cfa: sp 0 +
STACK CFI 172ac .cfa: sp 176 +
STACK CFI 172cc .cfa: x29 88 + x19: .cfa -8 + ^ x20: .cfa -16 + ^ x21: .cfa -24 + ^ x22: .cfa -32 + ^ x23: .cfa -40 + ^ x24: .cfa -48 + ^ x25: .cfa -56 + ^ x26: .cfa -64 + ^ x27: .cfa -72 + ^ .ra: .cfa -80 + ^ x29: .cfa -88 + ^ v8: .cfa -96 + ^
STACK CFI 17964 .cfa: sp 176 +
STACK CFI 17984 .cfa: sp 0 +
STACK CFI 17988 .cfa: x29 88 +
STACK CFI INIT 17a5c cc .cfa: sp 0 +
STACK CFI 17a60 .cfa: sp 32 +
STACK CFI 17a68 .cfa: x29 32 + x19: .cfa -8 + ^ x20: .cfa -16 + ^ .ra: .cfa -24 + ^ x29: .cfa -32 + ^
STACK CFI 17aa0 .cfa: sp 32 +
STACK CFI 17aa8 .cfa: sp 0 +
STACK CFI 17aac .cfa: x29 32 +
STACK CFI 17ab0 .cfa: sp 32 +
STACK CFI 17ab8 .cfa: sp 0 +
STACK CFI 17abc .cfa: x29 32 +
STACK CFI INIT 17b28 78c .cfa: sp 0 +
STACK CFI 17b2c .cfa: sp 80 +
STACK CFI 17b40 .cfa: x29 80 + x19: .cfa -8 + ^ x20: .cfa -16 + ^ x21: .cfa -24 + ^ x22: .cfa -32 + ^ x23: .cfa -40 + ^ x24: .cfa -48 + ^ x25: .cfa -56 + ^ x26: .cfa -64 + ^ .ra: .cfa -72 + ^ x29: .cfa -80 + ^
STACK CFI 17f38 .cfa: sp 80 +
STACK CFI 17f4c .cfa: sp 0 +
STACK CFI 17f50 .cfa: x29 80 +
STACK CFI INIT 182b4 564 .cfa: sp 0 +
STACK CFI 182b8 .cfa: sp 80 +
STACK CFI 182c8 .cfa: x29 48 + x19: .cfa -8 + ^ x20: .cfa -16 + ^ x21: .cfa -24 + ^ x22: .cfa -32 + ^ .ra: .cfa -40 + ^ x29: .cfa -48 + ^
STACK CFI 1865c .cfa: sp 80 +
STACK CFI 1866c .cfa: sp 0 +
STACK CFI 18670 .cfa: x29 48 +
STACK CFI INIT 1898c 1c .cfa: sp 0 +
STACK CFI 18990 .cfa: sp 16 +
STACK CFI 18994 .cfa: x29 16 + .ra: .cfa -8 + ^ x29: .cfa -16 + ^
STACK CFI 1899c .cfa: sp 16 +
STACK CFI 189a0 .cfa: sp 0 +
STACK CFI 189a4 .cfa: x29 16 +
STACK CFI INIT 18cb4 3f8 .cfa: sp 0 +
STACK CFI 18cb8 .cfa: sp 48 +
STACK CFI 18cc4 .cfa: x29 48 + x19: .cfa -8 + ^ x20: .cfa -16 + ^ x21: .cfa -24 + ^ x22: .cfa -32 + ^ .ra: .cfa -40 + ^ x29: .cfa -48 + ^
STACK CFI 1902c .cfa: sp 48 +
STACK CFI 19038 .cfa: sp 0 +
STACK CFI 1903c .cfa: x29 48 +
STACK CFI 1908c .cfa: sp 48 +
STACK CFI 19098 .cfa: sp 0 +
STACK CFI 1909c .cfa: x29 48 +
STACK CFI INIT 1913c 1c .cfa: sp 0 +
STACK CFI 19140 .cfa: sp 16 +
STACK CFI 19144 .cfa: x29 16 + .ra: .cfa -8 + ^ x29: .cfa -16 + ^
STACK CFI 1914c .cfa: sp 16 +
STACK CFI 19150 .cfa: sp 0 +
STACK CFI 19154 .cfa: x29 16 +
STACK CFI INIT 191e8 98 .cfa: sp 0 +
STACK CFI 191ec .cfa: sp 48 +
STACK CFI 191f8 .cfa: x29 48 + x19: .cfa -8 + ^ x20: .cfa -16 + ^ x21: .cfa -32 + ^ .ra: .cfa -40 + ^ x29: .cfa -48 + ^
STACK CFI 19258 .cfa: sp 48 +
STACK CFI 19264 .cfa: sp 0 +
STACK CFI 19268 .cfa: sp 48 +
STACK CFI 19274 .cfa: sp 0 +
STACK CFI 19278 .cfa: x29 48 +
STACK CFI INIT 192bc 1c .cfa: sp 0 +
STACK CFI 192c0 .cfa: sp 16 +
STACK CFI 192c4 .cfa: x29 16 + .ra: .cfa -8 + ^ x29: .cfa -16 + ^
STACK CFI 192cc .cfa: sp 16 +
STACK CFI 192d0 .cfa: sp 0 +
STACK CFI 192d4 .cfa: x29 16 +
STACK CFI INIT 192d8 1c .cfa: sp 0 +
STACK CFI 192dc .cfa: sp 16 +
STACK CFI 192e0 .cfa: x29 16 + .ra: .cfa -8 + ^ x29: .cfa -16 + ^
STACK CFI 192e8 .cfa: sp 16 +
STACK CFI 192ec .cfa: sp 0 +
STACK CFI 192f0 .cfa: x29 16 +
STACK CFI INIT 194d4 1cc .cfa: sp 0 +
STACK CFI 194d8 .cfa: sp 160 +
STACK CFI 194f0 .cfa: x29 80 + x19: .cfa -8 + ^ x20: .cfa -16 + ^ x21: .cfa -24 + ^ x22: .cfa -32 + ^ x23: .cfa -40 + ^ x24: .cfa -48 + ^ x25: .cfa -56 + ^ x26: .cfa -64 + ^ .ra: .cfa -72 + ^ x29: .cfa -80 + ^
STACK CFI 1964c .cfa: sp 160 +
STACK CFI 19664 .cfa: sp 0 +
STACK CFI 19668 .cfa: x29 80 +
STACK CFI INIT 19a40 1a0 .cfa: sp 0 +
STACK CFI 19a44 .cfa: sp 64 +
STACK CFI 19a54 .cfa: x29 64 + x19: .cfa -8 + ^ x20: .cfa -16 + ^ x21: .cfa -24 + ^ x22: .cfa -32 + ^ x23: .cfa -48 + ^ .ra: .cfa -56 + ^ x29: .cfa -64 + ^
STACK CFI 19b04 .cfa: sp 64 +
STACK CFI 19b14 .cfa: sp 0 +
STACK CFI 19b18 .cfa: x29 64 +
STACK CFI INIT 1a214 a8 .cfa: sp 0 +
STACK CFI 1a218 .cfa: sp 64 +
STACK CFI 1a228 .cfa: x29 64 + x19: .cfa -8 + ^ x20: .cfa -16 + ^ x21: .cfa -24 + ^ x22: .cfa -32 + ^ x23: .cfa -40 + ^ x24: .cfa -48 + ^ .ra: .cfa -56 + ^ x29: .cfa -64 + ^
STACK CFI 1a24c .cfa: sp 64 +
STACK CFI 1a25c .cfa: sp 0 +
STACK CFI 1a260 .cfa: x29 64 +
STACK CFI INIT 1a4c0 12c .cfa: sp 0 +
STACK CFI 1a4c4 .cfa: sp 80 +
STACK CFI 1a4d4 .cfa: x29 48 + x19: .cfa -8 + ^ x20: .cfa -16 + ^ x21: .cfa -24 + ^ x22: .cfa -32 + ^ .ra: .cfa -40 + ^ x29: .cfa -48 + ^
STACK CFI 1a5d0 .cfa: sp 80 +
STACK CFI 1a5e0 .cfa: sp 0 +
STACK CFI 1a5e4 .cfa: x29 48 +
STACK CFI INIT 1a860 188 .cfa: sp 0 +
STACK CFI 1a864 .cfa: sp 96 +
STACK CFI 1a878 .cfa: x29 64 + x19: .cfa -8 + ^ x20: .cfa -16 + ^ x21: .cfa -24 + ^ x22: .cfa -32 + ^ x23: .cfa -48 + ^ .ra: .cfa -56 + ^ x29: .cfa -64 + ^
STACK CFI 1a964 .cfa: sp 96 +
STACK CFI 1a978 .cfa: sp 0 +
STACK CFI 1a97c .cfa: x29 64 +
STACK CFI INIT 1a9e8 130 .cfa: sp 0 +
STACK CFI 1a9ec .cfa: sp 96 +
STACK CFI 1aa00 .cfa: x29 48 + x19: .cfa -8 + ^ x20: .cfa -16 + ^ x21: .cfa -24 + ^ x22: .cfa -32 + ^ .ra: .cfa -40 + ^ x29: .cfa -48 + ^ v8: .cfa -64 + ^
STACK CFI 1aaf8 .cfa: sp 96 +
STACK CFI 1ab0c .cfa: sp 0 +
STACK CFI 1ab10 .cfa: x29 48 +
STACK CFI INIT 1ac6c 8c .cfa: sp 0 +
STACK CFI 1ac70 .cfa: sp 32 +
STACK CFI 1ac78 .cfa: x29 32 + x19: .cfa -8 + ^ x20: .cfa -16 + ^ .ra: .cfa -24 + ^ x29: .cfa -32 + ^
STACK CFI 1acbc .cfa: sp 32 +
STACK CFI 1acc4 .cfa: sp 0 +
STACK CFI 1acc8 .cfa: x29 32 +
STACK CFI 1ace4 .cfa: sp 32 +
STACK CFI 1acec .cfa: sp 0 +
STACK CFI 1acf0 .cfa: x29 32 +
STACK CFI INIT 1acf8 9c .cfa: sp 0 +
STACK CFI 1acfc .cfa: sp 32 +
STACK CFI 1ad04 .cfa: x29 32 + x19: .cfa -8 + ^ x20: .cfa -16 + ^ .ra: .cfa -24 + ^ x29: .cfa -32 + ^
STACK CFI 1ad50 .cfa: sp 32 +
STACK CFI 1ad58 .cfa: sp 0 +
STACK CFI 1ad5c .cfa: x29 32 +
STACK CFI 1ad80 .cfa: sp 32 +
STACK CFI 1ad88 .cfa: sp 0 +
STACK CFI 1ad8c .cfa: x29 32 +
STACK CFI INIT 1ad94 22c .cfa: sp 0 +
STACK CFI 1ad98 .cfa: sp 176 +
STACK CFI 1adb4 .cfa: x29 96 + x19: .cfa -8 + ^ x20: .cfa -16 + ^ x21: .cfa -24 + ^ x22: .cfa -32 + ^ x23: .cfa -40 + ^ x24: .cfa -48 + ^ x25: .cfa -56 + ^ x26: .cfa -64 + ^ x27: .cfa -72 + ^ x28: .cfa -80 + ^ .ra: .cfa -88 + ^ x29: .cfa -96 + ^
STACK CFI 1adf4 .cfa: sp 176 +
STACK CFI 1ae10 .cfa: sp 0 +
STACK CFI 1ae14 .cfa: x29 96 +
STACK CFI INIT 1afc0 10c .cfa: sp 0 +
STACK CFI 1afc4 .cfa: sp 64 +
STACK CFI 1afd4 .cfa: x29 64 + x19: .cfa -8 + ^ x20: .cfa -16 + ^ x21: .cfa -24 + ^ x22: .cfa -32 + ^ x23: .cfa -48 + ^ .ra: .cfa -56 + ^ x29: .cfa -64 + ^
STACK CFI 1b0ac .cfa: sp 64 +
STACK CFI 1b0bc .cfa: sp 0 +
STACK CFI 1b0c0 .cfa: x29 64 +
STACK CFI INIT 1b0cc 20 .cfa: sp 0 +
STACK CFI 1b0d0 .cfa: sp 16 +
STACK CFI 1b0d4 .cfa: x29 16 + .ra: .cfa -8 + ^ x29: .cfa -16 + ^
STACK CFI 1b0e0 .cfa: sp 16 +
STACK CFI 1b0e4 .cfa: sp 0 +
STACK CFI 1b0e8 .cfa: x29 16 +
STACK CFI INIT 1b100 21c .cfa: sp 0 +
STACK CFI 1b104 .cfa: sp 96 +
STACK CFI 1b11c .cfa: x29 96 + x19: .cfa -8 + ^ x20: .cfa -16 + ^ x21: .cfa -24 + ^ x22: .cfa -32 + ^ x23: .cfa -40 + ^ x24: .cfa -48 + ^ x25: .cfa -56 + ^ x26: .cfa -64 + ^ x27: .cfa -72 + ^ x28: .cfa -80 + ^ .ra: .cfa -88 + ^ x29: .cfa -96 + ^
STACK CFI 1b2f0 .cfa: sp 96 +
STACK CFI 1b308 .cfa: sp 0 +
STACK CFI 1b30c .cfa: x29 96 +
STACK CFI INIT 1b588 90 .cfa: sp 0 +
STACK CFI 1b58c .cfa: sp 32 +
STACK CFI 1b594 .cfa: x29 32 + x19: .cfa -8 + ^ x20: .cfa -16 + ^ .ra: .cfa -24 + ^ x29: .cfa -32 + ^
STACK CFI 1b5f4 .cfa: sp 32 +
STACK CFI 1b5fc .cfa: sp 0 +
STACK CFI 1b600 .cfa: x29 32 +
STACK CFI INIT 1b618 2c4 .cfa: sp 0 +
STACK CFI 1b61c .cfa: sp 160 +
STACK CFI 1b634 .cfa: x29 80 + x19: .cfa -8 + ^ x20: .cfa -16 + ^ x21: .cfa -24 + ^ x22: .cfa -32 + ^ x23: .cfa -40 + ^ x24: .cfa -48 + ^ x25: .cfa -64 + ^ .ra: .cfa -72 + ^ x29: .cfa -80 + ^
STACK CFI 1b890 .cfa: sp 160 +
STACK CFI 1b8a8 .cfa: sp 0 +
STACK CFI 1b8ac .cfa: x29 80 +
STACK CFI INIT 1ba04 1c .cfa: sp 0 +
STACK CFI 1ba08 .cfa: sp 16 +
STACK CFI 1ba0c .cfa: x29 16 + .ra: .cfa -8 + ^ x29: .cfa -16 + ^
STACK CFI 1ba14 .cfa: sp 16 +
STACK CFI 1ba18 .cfa: sp 0 +
STACK CFI 1ba1c .cfa: x29 16 +
STACK CFI INIT 1bccc 134 .cfa: sp 0 +
STACK CFI 1bcd0 .cfa: sp 80 +
STACK CFI 1bcdc .cfa: x29 32 + x19: .cfa -8 + ^ x20: .cfa -16 + ^ .ra: .cfa -24 + ^ x29: .cfa -32 + ^
STACK CFI 1bd0c .cfa: sp 80 +
STACK CFI 1bd18 .cfa: sp 0 +
STACK CFI 1bd1c .cfa: x29 32 +
STACK CFI INIT 1be00 78 .cfa: sp 0 +
STACK CFI 1be04 .cfa: sp 32 +
STACK CFI 1be0c .cfa: x29 32 + x19: .cfa -8 + ^ x20: .cfa -16 + ^ .ra: .cfa -24 + ^ x29: .cfa -32 + ^
STACK CFI 1be18 .cfa: sp 32 +
STACK CFI 1be20 .cfa: sp 0 +
STACK CFI 1be24 .cfa: x29 32 +
STACK CFI INIT 1be78 74 .cfa: sp 0 +
STACK CFI 1be7c .cfa: sp 48 +
STACK CFI 1be88 .cfa: x29 32 + x19: .cfa -8 + ^ x20: .cfa -16 + ^ .ra: .cfa -24 + ^ x29: .cfa -32 + ^
STACK CFI 1bed4 .cfa: sp 48 +
STACK CFI 1bee0 .cfa: sp 0 +
STACK CFI 1bee4 .cfa: x29 32 +
STACK CFI INIT 1bf74 25c .cfa: sp 0 +
STACK CFI 1bf78 .cfa: sp 128 +
STACK CFI 1bf88 .cfa: x29 48 + x19: .cfa -8 + ^ x20: .cfa -16 + ^ x21: .cfa -32 + ^ .ra: .cfa -40 + ^ x29: .cfa -48 + ^
STACK CFI 1c070 .cfa: sp 128 +
STACK CFI 1c080 .cfa: sp 0 +
STACK CFI 1c084 .cfa: x29 48 +
STACK CFI INIT 1c248 f98 .cfa: sp 0 +
STACK CFI 1c24c .cfa: sp 176 +
STACK CFI 1c268 .cfa: x29 96 + x19: .cfa -8 + ^ x20: .cfa -16 + ^ x21: .cfa -24 + ^ x22: .cfa -32 + ^ x23: .cfa -40 + ^ x24: .cfa -48 + ^ x25: .cfa -56 + ^ x26: .cfa -64 + ^ x27: .cfa -72 + ^ x28: .cfa -80 + ^ .ra: .cfa -88 + ^ x29: .cfa -96 + ^
STACK CFI 1ccb0 .cfa: sp 176 +
STACK CFI 1cccc .cfa: sp 0 +
STACK CFI 1ccd0 .cfa: x29 96 +
STACK CFI INIT 1d234 180 .cfa: sp 0 +
STACK CFI 1d238 .cfa: sp 160 +
STACK CFI 1d250 .cfa: x29 80 + x19: .cfa -8 + ^ x20: .cfa -16 + ^ x21: .cfa -24 + ^ x22: .cfa -32 + ^ x23: .cfa -40 + ^ x24: .cfa -48 + ^ x25: .cfa -56 + ^ x26: .cfa -64 + ^ .ra: .cfa -72 + ^ x29: .cfa -80 + ^
STACK CFI 1d2b8 .cfa: sp 160 +
STACK CFI 1d2d0 .cfa: sp 0 +
STACK CFI 1d2d4 .cfa: x29 80 +
STACK CFI INIT 1d3b4 16c .cfa: sp 0 +
STACK CFI 1d3b8 .cfa: sp 96 +
STACK CFI 1d3c8 .cfa: x29 48 + x19: .cfa -8 + ^ x20: .cfa -16 + ^ x21: .cfa -24 + ^ x22: .cfa -32 + ^ .ra: .cfa -40 + ^ x29: .cfa -48 + ^
STACK CFI 1d4c0 .cfa: sp 96 +
STACK CFI 1d4d0 .cfa: sp 0 +
STACK CFI 1d4d4 .cfa: x29 48 +
STACK CFI INIT 1d528 190 .cfa: sp 0 +
STACK CFI 1d52c .cfa: sp 176 +
STACK CFI 1d548 .cfa: x29 80 + x19: .cfa -8 + ^ x20: .cfa -16 + ^ x21: .cfa -24 + ^ x22: .cfa -32 + ^ x23: .cfa -40 + ^ x24: .cfa -48 + ^ x25: .cfa -56 + ^ x26: .cfa -64 + ^ .ra: .cfa -72 + ^ x29: .cfa -80 + ^ v8: .cfa -96 + ^
STACK CFI 1d5b8 .cfa: sp 176 +
STACK CFI 1d5d4 .cfa: sp 0 +
STACK CFI 1d5d8 .cfa: x29 80 +
STACK CFI INIT 1d6b8 170 .cfa: sp 0 +
STACK CFI 1d6bc .cfa: sp 96 +
STACK CFI 1d6cc .cfa: x29 48 + x19: .cfa -8 + ^ x20: .cfa -16 + ^ x21: .cfa -24 + ^ x22: .cfa -32 + ^ .ra: .cfa -40 + ^ x29: .cfa -48 + ^
STACK CFI 1d7c8 .cfa: sp 96 +
STACK CFI 1d7d8 .cfa: sp 0 +
STACK CFI 1d7dc .cfa: x29 48 +
STACK CFI INIT 1d830 170 .cfa: sp 0 +
STACK CFI 1d834 .cfa: sp 144 +
STACK CFI 1d84c .cfa: x29 56 + x19: .cfa -8 + ^ x20: .cfa -16 + ^ x21: .cfa -24 + ^ x22: .cfa -32 + ^ x23: .cfa -40 + ^ .ra: .cfa -48 + ^ x29: .cfa -56 + ^ v8: .cfa -64 + ^
STACK CFI 1d8a4 .cfa: sp 144 +
STACK CFI 1d8bc .cfa: sp 0 +
STACK CFI 1d8c0 .cfa: x29 56 +
STACK CFI INIT 1d9a0 108 .cfa: sp 0 +
STACK CFI 1d9a4 .cfa: sp 64 +
STACK CFI 1d9b4 .cfa: x29 48 + x19: .cfa -8 + ^ x20: .cfa -16 + ^ x21: .cfa -24 + ^ x22: .cfa -32 + ^ .ra: .cfa -40 + ^ x29: .cfa -48 + ^
STACK CFI 1da60 .cfa: sp 64 +
STACK CFI 1da70 .cfa: sp 0 +
STACK CFI 1da74 .cfa: x29 48 +
STACK CFI INIT 1dab0 14c .cfa: sp 0 +
STACK CFI 1dab4 .cfa: sp 144 +
STACK CFI 1dac8 .cfa: x29 64 + x19: .cfa -8 + ^ x20: .cfa -16 + ^ x21: .cfa -24 + ^ x22: .cfa -32 + ^ x23: .cfa -48 + ^ .ra: .cfa -56 + ^ x29: .cfa -64 + ^
STACK CFI 1db18 .cfa: sp 144 +
STACK CFI 1db2c .cfa: sp 0 +
STACK CFI 1db30 .cfa: x29 64 +
STACK CFI INIT 1dbfc fc .cfa: sp 0 +
STACK CFI 1dc00 .cfa: sp 64 +
STACK CFI 1dc10 .cfa: x29 48 + x19: .cfa -8 + ^ x20: .cfa -16 + ^ x21: .cfa -24 + ^ x22: .cfa -32 + ^ .ra: .cfa -40 + ^ x29: .cfa -48 + ^
STACK CFI 1dcb0 .cfa: sp 64 +
STACK CFI 1dcc0 .cfa: sp 0 +
STACK CFI 1dcc4 .cfa: x29 48 +
STACK CFI INIT 1dd10 164 .cfa: sp 0 +
STACK CFI 1dd14 .cfa: sp 160 +
STACK CFI 1dd2c .cfa: x29 80 + x19: .cfa -8 + ^ x20: .cfa -16 + ^ x21: .cfa -24 + ^ x22: .cfa -32 + ^ x23: .cfa -40 + ^ x24: .cfa -48 + ^ x25: .cfa -64 + ^ .ra: .cfa -72 + ^ x29: .cfa -80 + ^
STACK CFI 1dd8c .cfa: sp 160 +
STACK CFI 1dda4 .cfa: sp 0 +
STACK CFI 1dda8 .cfa: x29 80 +
STACK CFI INIT 1de74 15c .cfa: sp 0 +
STACK CFI 1de78 .cfa: sp 64 +
STACK CFI 1de88 .cfa: x29 48 + x19: .cfa -8 + ^ x20: .cfa -16 + ^ x21: .cfa -24 + ^ x22: .cfa -32 + ^ .ra: .cfa -40 + ^ x29: .cfa -48 + ^
STACK CFI 1df70 .cfa: sp 64 +
STACK CFI 1df80 .cfa: sp 0 +
STACK CFI 1df84 .cfa: x29 48 +
STACK CFI INIT 1dfd0 17c .cfa: sp 0 +
STACK CFI 1dfd4 .cfa: sp 176 +
STACK CFI 1dff0 .cfa: x29 96 + x19: .cfa -8 + ^ x20: .cfa -16 + ^ x21: .cfa -24 + ^ x22: .cfa -32 + ^ x23: .cfa -40 + ^ x24: .cfa -48 + ^ x25: .cfa -56 + ^ x26: .cfa -64 + ^ x27: .cfa -80 + ^ .ra: .cfa -88 + ^ x29: .cfa -96 + ^
STACK CFI 1e060 .cfa: sp 176 +
STACK CFI 1e07c .cfa: sp 0 +
STACK CFI 1e080 .cfa: x29 96 +
STACK CFI INIT 1e14c 170 .cfa: sp 0 +
STACK CFI 1e150 .cfa: sp 64 +
STACK CFI 1e160 .cfa: x29 48 + x19: .cfa -8 + ^ x20: .cfa -16 + ^ x21: .cfa -24 + ^ x22: .cfa -32 + ^ .ra: .cfa -40 + ^ x29: .cfa -48 + ^
STACK CFI 1e25c .cfa: sp 64 +
STACK CFI 1e26c .cfa: sp 0 +
STACK CFI 1e270 .cfa: x29 48 +
STACK CFI INIT 1e2bc 14c .cfa: sp 0 +
STACK CFI 1e2c0 .cfa: sp 144 +
STACK CFI 1e2d4 .cfa: x29 64 + x19: .cfa -8 + ^ x20: .cfa -16 + ^ x21: .cfa -24 + ^ x22: .cfa -32 + ^ x23: .cfa -48 + ^ .ra: .cfa -56 + ^ x29: .cfa -64 + ^
STACK CFI 1e324 .cfa: sp 144 +
STACK CFI 1e338 .cfa: sp 0 +
STACK CFI 1e33c .cfa: x29 64 +
STACK CFI INIT 1e408 fc .cfa: sp 0 +
STACK CFI 1e40c .cfa: sp 64 +
STACK CFI 1e41c .cfa: x29 48 + x19: .cfa -8 + ^ x20: .cfa -16 + ^ x21: .cfa -24 + ^ x22: .cfa -32 + ^ .ra: .cfa -40 + ^ x29: .cfa -48 + ^
STACK CFI 1e4bc .cfa: sp 64 +
STACK CFI 1e4cc .cfa: sp 0 +
STACK CFI 1e4d0 .cfa: x29 48 +
STACK CFI INIT 1e508 2f0 .cfa: sp 0 +
STACK CFI 1e50c .cfa: sp 144 +
STACK CFI 1e520 .cfa: x29 64 + x19: .cfa -8 + ^ x20: .cfa -16 + ^ x21: .cfa -24 + ^ x22: .cfa -32 + ^ x23: .cfa -48 + ^ .ra: .cfa -56 + ^ x29: .cfa -64 + ^
STACK CFI 1e6a4 .cfa: sp 144 +
STACK CFI 1e6b8 .cfa: sp 0 +
STACK CFI 1e6bc .cfa: x29 64 +
STACK CFI INIT 1e7f8 2a0 .cfa: sp 0 +
STACK CFI 1e7fc .cfa: sp 144 +
STACK CFI 1e810 .cfa: x29 64 + x19: .cfa -8 + ^ x20: .cfa -16 + ^ x21: .cfa -24 + ^ x22: .cfa -32 + ^ x23: .cfa -48 + ^ .ra: .cfa -56 + ^ x29: .cfa -64 + ^
STACK CFI 1e944 .cfa: sp 144 +
STACK CFI 1e958 .cfa: sp 0 +
STACK CFI 1e95c .cfa: x29 64 +
STACK CFI INIT 1ea98 4f4 .cfa: sp 0 +
STACK CFI 1ea9c .cfa: sp 144 +
STACK CFI 1eab0 .cfa: x29 64 + x19: .cfa -8 + ^ x20: .cfa -16 + ^ x21: .cfa -24 + ^ x22: .cfa -32 + ^ x23: .cfa -48 + ^ .ra: .cfa -56 + ^ x29: .cfa -64 + ^
STACK CFI 1ede4 .cfa: sp 144 +
STACK CFI 1edf8 .cfa: sp 0 +
STACK CFI 1edfc .cfa: x29 64 +
STACK CFI INIT 1ef8c 154 .cfa: sp 0 +
STACK CFI 1ef90 .cfa: sp 384 +
STACK CFI 1efa4 .cfa: x29 64 + x19: .cfa -8 + ^ x20: .cfa -16 + ^ x21: .cfa -24 + ^ x22: .cfa -32 + ^ x23: .cfa -40 + ^ x28: .cfa -48 + ^ .ra: .cfa -56 + ^ x29: .cfa -64 + ^
STACK CFI 1f088 .cfa: sp 384 +
STACK CFI 1f09c .cfa: sp 0 +
STACK CFI 1f0a0 .cfa: x29 64 +
STACK CFI INIT 1f0e0 168 .cfa: sp 0 +
STACK CFI 1f0e4 .cfa: sp 384 +
STACK CFI 1f0f8 .cfa: x29 64 + x19: .cfa -8 + ^ x20: .cfa -16 + ^ x21: .cfa -24 + ^ x22: .cfa -32 + ^ x23: .cfa -40 + ^ x28: .cfa -48 + ^ .ra: .cfa -56 + ^ x29: .cfa -64 + ^
STACK CFI 1f1f0 .cfa: sp 384 +
STACK CFI 1f204 .cfa: sp 0 +
STACK CFI 1f208 .cfa: x29 64 +
STACK CFI INIT 1f260 50c .cfa: sp 0 +
STACK CFI 1f264 .cfa: sp 64 +
STACK CFI 1f274 .cfa: x29 64 + x19: .cfa -8 + ^ x20: .cfa -16 + ^ x21: .cfa -24 + ^ x22: .cfa -32 + ^ x23: .cfa -40 + ^ x24: .cfa -48 + ^ .ra: .cfa -56 + ^ x29: .cfa -64 + ^
STACK CFI 1f394 .cfa: sp 64 +
STACK CFI 1f3a4 .cfa: sp 0 +
STACK CFI 1f3a8 .cfa: x29 64 +
STACK CFI 1f740 .cfa: sp 64 +
STACK CFI 1f750 .cfa: sp 0 +
STACK CFI 1f754 .cfa: x29 64 +
