MODULE Linux arm 1FE702476209D24AF5D9B5264A5EFEDC0 hiimjustin000.more_object_info.android32.so
INFO CODE_ID 4702E71F09624AD2F5D9B5264A5EFEDC9F414A7B
INFO GENERATOR mozilla/dump_syms 2.3.4
PUBLIC a420 0 __on_dlclose
PUBLIC a430 0 __emutls_unregister_key
PUBLIC a434 0 __on_dlclose_late
PUBLIC a438 0 __atexit_handler_wrapper
PUBLIC a444 0 atexit
PUBLIC a464 0 pthread_atfork
PUBLIC a475 0 __cxx_global_var_init
PUBLIC aa6d 0 geode::modifier::ModifyBase<geode::modifier::ModifyDerive<MOIEditorUI, EditorUI> >::~ModifyBase()
PUBLIC aa8d 0 geode::modifier::ModifyDerive<MOIEditorUI, EditorUI>::apply()
PUBLIC b089 0 std::__ndk1::shared_ptr<geode::Hook>::~shared_ptr[abi:ne180000]()
PUBLIC b0c5 0 geode::impl::ResultData<geode::Hook*, std::__ndk1::basic_string<char, std::__ndk1::char_traits<char>, std::__ndk1::allocator<char> > >::~ResultData()
PUBLIC b125 0 std::__ndk1::vector<std::__ndk1::basic_string<char, std::__ndk1::char_traits<char>, std::__ndk1::allocator<char> >, std::__ndk1::allocator<std::__ndk1::basic_string<char, std::__ndk1::char_traits<char>, std::__ndk1::allocator<char> > > >::~vector[abi:ne180000]()
PUBLIC b163 0 geode::modifier::ModifyBase<geode::modifier::ModifyDerive<MOIEditorUI, EditorUI> >::apply()
PUBLIC b165 0 __clang_call_terminate
PUBLIC b171 0 geode::modifier::ModifyBase<geode::modifier::ModifyDerive<MOIEditorUI, EditorUI> >::getHook(std::__ndk1::basic_string_view<char, std::__ndk1::char_traits<char> >)
PUBLIC b28d 0 std::__ndk1::basic_string<char, std::__ndk1::char_traits<char>, std::__ndk1::allocator<char> >::__throw_length_error[abi:ne180000]() const
PUBLIC b29d 0 std::__ndk1::__throw_length_error[abi:ne180000](char const*)
PUBLIC b2d5 0 std::length_error::length_error[abi:ne180000](char const*)
PUBLIC b2ed 0 std::__throw_bad_array_new_length([abi:ne180000], void)
PUBLIC b315 0 std::__ndk1::__tree<std::__ndk1::__value_type<std::__ndk1::basic_string<char, std::__ndk1::char_traits<char>, std::__ndk1::allocator<char> >, std::__ndk1::shared_ptr<geode::Hook> >, std::__ndk1::__map_value_compare<std::__ndk1::basic_string<char, std::__ndk1::char_traits<char>, std::__ndk1::allocator<char> >, std::__ndk1::__value_type<std::__ndk1::basic_string<char, std::__ndk1::char_traits<char>, std::__ndk1::allocator<char> >, std::__ndk1::shared_ptr<geode::Hook> >, std::__ndk1::less<std::__ndk1::basic_string<char, std::__ndk1::char_traits<char>, std::__ndk1::allocator<char> > >, true>, std::__ndk1::allocator<std::__ndk1::__value_type<std::__ndk1::basic_string<char, std::__ndk1::char_traits<char>, std::__ndk1::allocator<char> >, std::__ndk1::shared_ptr<geode::Hook> > > >::find<std::__ndk1::basic_string<char, std::__ndk1::char_traits<char>, std::__ndk1::allocator<char> > >(std::__ndk1::basic_string<char, std::__ndk1::char_traits<char>, std::__ndk1::allocator<char> > const&)
PUBLIC b3d5 0 std::__ndk1::__tree<std::__ndk1::__value_type<std::__ndk1::basic_string<char, std::__ndk1::char_traits<char>, std::__ndk1::allocator<char> >, std::__ndk1::shared_ptr<geode::Hook> >, std::__ndk1::__map_value_compare<std::__ndk1::basic_string<char, std::__ndk1::char_traits<char>, std::__ndk1::allocator<char> >, std::__ndk1::__value_type<std::__ndk1::basic_string<char, std::__ndk1::char_traits<char>, std::__ndk1::allocator<char> >, std::__ndk1::shared_ptr<geode::Hook> >, std::__ndk1::less<std::__ndk1::basic_string<char, std::__ndk1::char_traits<char>, std::__ndk1::allocator<char> > >, true>, std::__ndk1::allocator<std::__ndk1::__value_type<std::__ndk1::basic_string<char, std::__ndk1::char_traits<char>, std::__ndk1::allocator<char> >, std::__ndk1::shared_ptr<geode::Hook> > > >::__emplace_unique_key_args<std::__ndk1::basic_string<char, std::__ndk1::char_traits<char>, std::__ndk1::allocator<char> >, std::__ndk1::piecewise_construct_t const&, std::__ndk1::tuple<std::__ndk1::basic_string<char, std::__ndk1::char_traits<char>, std::__ndk1::allocator<char> > const&>, std::__ndk1::tuple<> >(std::__ndk1::basic_string<char, std::__ndk1::char_traits<char>, std::__ndk1::allocator<char> > const&, std::__ndk1::piecewise_construct_t const&, std::__ndk1::tuple<std::__ndk1::basic_string<char, std::__ndk1::char_traits<char>, std::__ndk1::allocator<char> > const&>, std::__ndk1::tuple<>)
PUBLIC b539 0 std::__ndk1::unique_ptr<std::__ndk1::__tree_node<std::__ndk1::__value_type<std::__ndk1::basic_string<char, std::__ndk1::char_traits<char>, std::__ndk1::allocator<char> >, std::__ndk1::shared_ptr<geode::Hook> >, void*>, std::__ndk1::__tree_node_destructor<std::__ndk1::allocator<std::__ndk1::__tree_node<std::__ndk1::__value_type<std::__ndk1::basic_string<char, std::__ndk1::char_traits<char>, std::__ndk1::allocator<char> >, std::__ndk1::shared_ptr<geode::Hook> >, void*> > > >::~unique_ptr[abi:ne180000]()
PUBLIC b595 0 std::__ndk1::basic_string<char, std::__ndk1::char_traits<char>, std::__ndk1::allocator<char> >::__init_copy_ctor_external(char const*, unsigned int)
PUBLIC b5e5 0 std::__ndk1::__tree_balance_after_insert[abi:ne180000]<std::__ndk1::__tree_node_base<void*>*>(std::__ndk1::__tree_node_base<void*>*, std::__ndk1::__tree_node_base<void*>*)
PUBLIC b731 0 std::__ndk1::__throw_bad_variant_access[abi:ne180000]()
PUBLIC b765 0 std::__ndk1::__function::__base<void (std::__ndk1::shared_ptr<geode::SettingV3>)>::~__base()
PUBLIC b767 0 std::__ndk1::__function::__func<MOIEditorUI::onModify(geode::modifier::ModifyBase<geode::modifier::ModifyDerive<MOIEditorUI, EditorUI> >&)::{lambda(std::__ndk1::shared_ptr<geode::SettingV3>)#1}, std::__ndk1::allocator<MOIEditorUI::onModify(geode::modifier::ModifyBase<geode::modifier::ModifyDerive<MOIEditorUI, EditorUI> >&)::{lambda(std::__ndk1::shared_ptr<geode::SettingV3>)#1}>, void (std::__ndk1::shared_ptr<geode::SettingV3>)>::~__func()
PUBLIC b76d 0 std::__ndk1::__function::__func<MOIEditorUI::onModify(geode::modifier::ModifyBase<geode::modifier::ModifyDerive<MOIEditorUI, EditorUI> >&)::{lambda(std::__ndk1::shared_ptr<geode::SettingV3>)#1}, std::__ndk1::allocator<MOIEditorUI::onModify(geode::modifier::ModifyBase<geode::modifier::ModifyDerive<MOIEditorUI, EditorUI> >&)::{lambda(std::__ndk1::shared_ptr<geode::SettingV3>)#1}>, void (std::__ndk1::shared_ptr<geode::SettingV3>)>::__clone() const
PUBLIC b795 0 std::__ndk1::__function::__func<MOIEditorUI::onModify(geode::modifier::ModifyBase<geode::modifier::ModifyDerive<MOIEditorUI, EditorUI> >&)::{lambda(std::__ndk1::shared_ptr<geode::SettingV3>)#1}, std::__ndk1::allocator<MOIEditorUI::onModify(geode::modifier::ModifyBase<geode::modifier::ModifyDerive<MOIEditorUI, EditorUI> >&)::{lambda(std::__ndk1::shared_ptr<geode::SettingV3>)#1}>, void (std::__ndk1::shared_ptr<geode::SettingV3>)>::__clone(std::__ndk1::__function::__base<void (std::__ndk1::shared_ptr<geode::SettingV3>)>*) const
PUBLIC b7b1 0 std::__ndk1::__function::__func<MOIEditorUI::onModify(geode::modifier::ModifyBase<geode::modifier::ModifyDerive<MOIEditorUI, EditorUI> >&)::{lambda(std::__ndk1::shared_ptr<geode::SettingV3>)#1}, std::__ndk1::allocator<MOIEditorUI::onModify(geode::modifier::ModifyBase<geode::modifier::ModifyDerive<MOIEditorUI, EditorUI> >&)::{lambda(std::__ndk1::shared_ptr<geode::SettingV3>)#1}>, void (std::__ndk1::shared_ptr<geode::SettingV3>)>::destroy()
PUBLIC b7b3 0 std::__ndk1::__function::__func<MOIEditorUI::onModify(geode::modifier::ModifyBase<geode::modifier::ModifyDerive<MOIEditorUI, EditorUI> >&)::{lambda(std::__ndk1::shared_ptr<geode::SettingV3>)#1}, std::__ndk1::allocator<MOIEditorUI::onModify(geode::modifier::ModifyBase<geode::modifier::ModifyDerive<MOIEditorUI, EditorUI> >&)::{lambda(std::__ndk1::shared_ptr<geode::SettingV3>)#1}>, void (std::__ndk1::shared_ptr<geode::SettingV3>)>::destroy_deallocate()
PUBLIC b7b9 0 std::__ndk1::__function::__func<MOIEditorUI::onModify(geode::modifier::ModifyBase<geode::modifier::ModifyDerive<MOIEditorUI, EditorUI> >&)::{lambda(std::__ndk1::shared_ptr<geode::SettingV3>)#1}, std::__ndk1::allocator<MOIEditorUI::onModify(geode::modifier::ModifyBase<geode::modifier::ModifyDerive<MOIEditorUI, EditorUI> >&)::{lambda(std::__ndk1::shared_ptr<geode::SettingV3>)#1}>, void (std::__ndk1::shared_ptr<geode::SettingV3>)>::operator()(std::__ndk1::shared_ptr<geode::SettingV3>&&)
PUBLIC bc39 0 std::__ndk1::__function::__func<MOIEditorUI::onModify(geode::modifier::ModifyBase<geode::modifier::ModifyDerive<MOIEditorUI, EditorUI> >&)::{lambda(std::__ndk1::shared_ptr<geode::SettingV3>)#1}, std::__ndk1::allocator<MOIEditorUI::onModify(geode::modifier::ModifyBase<geode::modifier::ModifyDerive<MOIEditorUI, EditorUI> >&)::{lambda(std::__ndk1::shared_ptr<geode::SettingV3>)#1}>, void (std::__ndk1::shared_ptr<geode::SettingV3>)>::target(std::type_info const&) const
PUBLIC bc51 0 std::__ndk1::__function::__func<MOIEditorUI::onModify(geode::modifier::ModifyBase<geode::modifier::ModifyDerive<MOIEditorUI, EditorUI> >&)::{lambda(std::__ndk1::shared_ptr<geode::SettingV3>)#1}, std::__ndk1::allocator<MOIEditorUI::onModify(geode::modifier::ModifyBase<geode::modifier::ModifyDerive<MOIEditorUI, EditorUI> >&)::{lambda(std::__ndk1::shared_ptr<geode::SettingV3>)#1}>, void (std::__ndk1::shared_ptr<geode::SettingV3>)>::target_type() const
PUBLIC bc5d 0 std::__ndk1::shared_ptr<geode::SettingV3>::~shared_ptr[abi:ne180000]()
PUBLIC bc99 0 geode::impl::ResultData<void, std::__ndk1::basic_string<char, std::__ndk1::char_traits<char>, std::__ndk1::allocator<char> > >::~ResultData()
PUBLIC bcf9 0 geode::UnwrapException::~UnwrapException()
PUBLIC bd09 0 std::__ndk1::__variant_detail::__visitation::__base::__dispatcher<(unsigned int)0>::__dispatch[abi:ne180000]<std::__ndk1::__variant_detail::__dtor<std::__ndk1::__variant_detail::__traits<std::__ndk1::monostate, std::__ndk1::basic_string<char, std::__ndk1::char_traits<char>, std::__ndk1::allocator<char> > >, (std::__ndk1::__variant_detail::_Trait)1>::__destroy[abi:ne180000]()::{lambda(auto:1&)#1}, std::__ndk1::__variant_detail::__base<(std::__ndk1::__variant_detail::__traits<std::__ndk1::monostate, std::__ndk1::basic_string<char, std::__ndk1::char_traits<char>, std::__ndk1::allocator<char> > >)1, std::__ndk1::__variant_detail::__traits, std::__ndk1::allocator<char> >&>(std::__ndk1::__variant_detail::__dtor<std::__ndk1::__variant_detail::__traits<std::__ndk1::monostate, std::__ndk1::basic_string<char, std::__ndk1::char_traits<char>, std::__ndk1::allocator<char> > >, (std::__ndk1::__variant_detail::_Trait)1>, std::__ndk1::__variant_detail::__base<(std::__ndk1::__variant_detail::__traits<std::__ndk1::monostate, std::__ndk1::basic_string<char, std::__ndk1::char_traits<char>, std::__ndk1::allocator<char> > >)1, std::__ndk1::__variant_detail::__traits, std::__ndk1::allocator<char> >&)
PUBLIC bd0b 0 std::__ndk1::__variant_detail::__visitation::__base::__dispatcher<(unsigned int)1>::__dispatch[abi:ne180000]<std::__ndk1::__variant_detail::__dtor<std::__ndk1::__variant_detail::__traits<std::__ndk1::monostate, std::__ndk1::basic_string<char, std::__ndk1::char_traits<char>, std::__ndk1::allocator<char> > >, (std::__ndk1::__variant_detail::_Trait)1>::__destroy[abi:ne180000]()::{lambda(auto:1&)#1}, std::__ndk1::__variant_detail::__base<(std::__ndk1::__variant_detail::__traits<std::__ndk1::monostate, std::__ndk1::basic_string<char, std::__ndk1::char_traits<char>, std::__ndk1::allocator<char> > >)1, std::__ndk1::__variant_detail::__traits, std::__ndk1::allocator<char> >&>(std::__ndk1::__variant_detail::__dtor<std::__ndk1::__variant_detail::__traits<std::__ndk1::monostate, std::__ndk1::basic_string<char, std::__ndk1::char_traits<char>, std::__ndk1::allocator<char> > >, (std::__ndk1::__variant_detail::_Trait)1>, std::__ndk1::__variant_detail::__base<(std::__ndk1::__variant_detail::__traits<std::__ndk1::monostate, std::__ndk1::basic_string<char, std::__ndk1::char_traits<char>, std::__ndk1::allocator<char> > >)1, std::__ndk1::__variant_detail::__traits, std::__ndk1::allocator<char> >&)
PUBLIC bd19 0 _ZN5geode15UnwrapExceptionC2IRPNS_4HookEQsr4implE18IsStringStreamableIT_EEENS_4impl5OkTagEOS5_
PUBLIC be19 0 std::__ndk1::basic_stringstream<char, std::__ndk1::char_traits<char>, std::__ndk1::allocator<char> >::basic_stringstream[abi:ne180000]()
PUBLIC m bef9 0 std::__ndk1::basic_stringstream<char, std::__ndk1::char_traits<char>, std::__ndk1::allocator<char> >::~basic_stringstream()
PUBLIC bf61 0 std::__ndk1::__put_character_sequence[abi:ne180000]<char, std::__ndk1::char_traits<char> >(std::__ndk1::basic_ostream<char, std::__ndk1::char_traits<char> >, std::__ndk1::basic_ostream const*, unsigned int)
PUBLIC c069 0 std::__ndk1::__pad_and_output[abi:ne180000]<char, std::__ndk1::char_traits<char> >(std::__ndk1::char_traits<char>, std::__ndk1::ostreambuf_iterator const*, std::__ndk1::ostreambuf_iterator const, std::__ndk1::ostreambuf_iterator const, std::__ndk1::ios_base&, std::__ndk1::ostreambuf_iterator)
PUBLIC c179 0 std::__ndk1::basic_stringbuf<char, std::__ndk1::char_traits<char>, std::__ndk1::allocator<char> >::str[abi:ne180000]() &&
PUBLIC c24d 0 std::__ndk1::basic_stringbuf<char, std::__ndk1::char_traits<char>, std::__ndk1::allocator<char> >::__init_buf_ptrs[abi:ne180000]()
PUBLIC c32d 0 std::__ndk1::vector<std::__ndk1::basic_string<char, std::__ndk1::char_traits<char>, std::__ndk1::allocator<char> >, std::__ndk1::allocator<std::__ndk1::basic_string<char, std::__ndk1::char_traits<char>, std::__ndk1::allocator<char> > > >::__push_back_slow_path<std::__ndk1::basic_string<char, std::__ndk1::char_traits<char>, std::__ndk1::allocator<char> > const&>(std::__ndk1::basic_string<char, std::__ndk1::char_traits<char>, std::__ndk1::allocator<char> > const&)
PUBLIC c495 0 std::__ndk1::__split_buffer<std::__ndk1::basic_string<char, std::__ndk1::char_traits<char>, std::__ndk1::allocator<char> >, std::__ndk1::allocator<std::__ndk1::basic_string<char, std::__ndk1::char_traits<char>, std::__ndk1::allocator<char> > >&>::~__split_buffer()
PUBLIC c4d1 0 std::__ndk1::vector<std::__ndk1::basic_string<char, std::__ndk1::char_traits<char>, std::__ndk1::allocator<char> >, std::__ndk1::allocator<std::__ndk1::basic_string<char, std::__ndk1::char_traits<char>, std::__ndk1::allocator<char> > > >::__throw_length_error[abi:ne180000]() const
PUBLIC c4e1 0 std::__ndk1::__variant_detail::__visitation::__base::__dispatcher<(unsigned int)0>::__dispatch[abi:ne180000]<std::__ndk1::__variant_detail::__dtor<std::__ndk1::__variant_detail::__traits<geode::Hook*, std::__ndk1::basic_string<char, std::__ndk1::char_traits<char>, std::__ndk1::allocator<char> > >, (std::__ndk1::__variant_detail::_Trait)1>::__destroy[abi:ne180000]()::{lambda(auto:1&)#1}, std::__ndk1::__variant_detail::__base<(std::__ndk1::__variant_detail::__traits<geode::Hook*, std::__ndk1::basic_string<char, std::__ndk1::char_traits<char>, std::__ndk1::allocator<char> > >)1, geode::Hook, std::__ndk1::allocator<char> >&>(std::__ndk1::__variant_detail::__dtor<std::__ndk1::__variant_detail::__traits<geode::Hook*, std::__ndk1::basic_string<char, std::__ndk1::char_traits<char>, std::__ndk1::allocator<char> > >, (std::__ndk1::__variant_detail::_Trait)1>, std::__ndk1::__variant_detail::__base<(std::__ndk1::__variant_detail::__traits<geode::Hook*, std::__ndk1::basic_string<char, std::__ndk1::char_traits<char>, std::__ndk1::allocator<char> > >)1, geode::Hook, std::__ndk1::allocator<char> >&)
PUBLIC c4e3 0 std::__ndk1::__variant_detail::__visitation::__base::__dispatcher<(unsigned int)1>::__dispatch[abi:ne180000]<std::__ndk1::__variant_detail::__dtor<std::__ndk1::__variant_detail::__traits<geode::Hook*, std::__ndk1::basic_string<char, std::__ndk1::char_traits<char>, std::__ndk1::allocator<char> > >, (std::__ndk1::__variant_detail::_Trait)1>::__destroy[abi:ne180000]()::{lambda(auto:1&)#1}, std::__ndk1::__variant_detail::__base<(std::__ndk1::__variant_detail::__traits<geode::Hook*, std::__ndk1::basic_string<char, std::__ndk1::char_traits<char>, std::__ndk1::allocator<char> > >)1, geode::Hook, std::__ndk1::allocator<char> >&>(std::__ndk1::__variant_detail::__dtor<std::__ndk1::__variant_detail::__traits<geode::Hook*, std::__ndk1::basic_string<char, std::__ndk1::char_traits<char>, std::__ndk1::allocator<char> > >, (std::__ndk1::__variant_detail::_Trait)1>, std::__ndk1::__variant_detail::__base<(std::__ndk1::__variant_detail::__traits<geode::Hook*, std::__ndk1::basic_string<char, std::__ndk1::char_traits<char>, std::__ndk1::allocator<char> > >)1, geode::Hook, std::__ndk1::allocator<char> >&)
PUBLIC c4f1 0 std::__ndk1::__tree<std::__ndk1::__value_type<std::__ndk1::basic_string<char, std::__ndk1::char_traits<char>, std::__ndk1::allocator<char> >, std::__ndk1::shared_ptr<geode::Hook> >, std::__ndk1::__map_value_compare<std::__ndk1::basic_string<char, std::__ndk1::char_traits<char>, std::__ndk1::allocator<char> >, std::__ndk1::__value_type<std::__ndk1::basic_string<char, std::__ndk1::char_traits<char>, std::__ndk1::allocator<char> >, std::__ndk1::shared_ptr<geode::Hook> >, std::__ndk1::less<std::__ndk1::basic_string<char, std::__ndk1::char_traits<char>, std::__ndk1::allocator<char> > >, true>, std::__ndk1::allocator<std::__ndk1::__value_type<std::__ndk1::basic_string<char, std::__ndk1::char_traits<char>, std::__ndk1::allocator<char> >, std::__ndk1::shared_ptr<geode::Hook> > > >::erase(std::__ndk1::__tree_const_iterator<std::__ndk1::__value_type<std::__ndk1::basic_string<char, std::__ndk1::char_traits<char>, std::__ndk1::allocator<char> >, std::__ndk1::shared_ptr<geode::Hook> >, std::__ndk1::__tree_node<std::__ndk1::__value_type<std::__ndk1::basic_string<char, std::__ndk1::char_traits<char>, std::__ndk1::allocator<char> >, std::__ndk1::shared_ptr<geode::Hook> >, void*>*, int>)
PUBLIC c573 0 std::__ndk1::__tree_remove[abi:ne180000]<std::__ndk1::__tree_node_base<void*>*>(std::__ndk1::__tree_node_base<void*>*, std::__ndk1::__tree_node_base<void*>*)
PUBLIC c81b 0 std::__ndk1::__tree<std::__ndk1::__value_type<std::__ndk1::basic_string<char, std::__ndk1::char_traits<char>, std::__ndk1::allocator<char> >, std::__ndk1::shared_ptr<geode::Hook> >, std::__ndk1::__map_value_compare<std::__ndk1::basic_string<char, std::__ndk1::char_traits<char>, std::__ndk1::allocator<char> >, std::__ndk1::__value_type<std::__ndk1::basic_string<char, std::__ndk1::char_traits<char>, std::__ndk1::allocator<char> >, std::__ndk1::shared_ptr<geode::Hook> >, std::__ndk1::less<std::__ndk1::basic_string<char, std::__ndk1::char_traits<char>, std::__ndk1::allocator<char> > >, true>, std::__ndk1::allocator<std::__ndk1::__value_type<std::__ndk1::basic_string<char, std::__ndk1::char_traits<char>, std::__ndk1::allocator<char> >, std::__ndk1::shared_ptr<geode::Hook> > > >::destroy(std::__ndk1::__tree_node<std::__ndk1::__value_type<std::__ndk1::basic_string<char, std::__ndk1::char_traits<char>, std::__ndk1::allocator<char> >, std::__ndk1::shared_ptr<geode::Hook> >, void*>*)
PUBLIC c881 0 geode::Hook::create<void (*)(MOIEditorUI*, EditCommand)>(void*, void (*)(MOIEditorUI*, EditCommand), std::__ndk1::basic_string<char, std::__ndk1::char_traits<char>, std::__ndk1::allocator<char> > const&, tulip::hook::TulipConvention, tulip::hook::HookMetadata const&)
PUBLIC c999 0 geode::modifier::AsStaticFunction_moveObjectCall<MOIEditorUI, void (MOIEditorUI::*)(EditCommand)>::Impl<void (MOIEditorUI::*)(EditCommand)>::function(MOIEditorUI*, EditCommand)
PUBLIC c9ad 0 geode::modifier::AsStaticFunction_transformObjectCall<MOIEditorUI, void (MOIEditorUI::*)(EditCommand)>::Impl<void (MOIEditorUI::*)(EditCommand)>::function(MOIEditorUI*, EditCommand)
PUBLIC c9c1 0 geode::modifier::AsStaticFunction_updateObjectInfoLabel<MOIEditorUI, void (MOIEditorUI::*)()>::Impl<void (MOIEditorUI::*)()>::function(MOIEditorUI*)
PUBLIC db81 0 std::__ndk1::shared_ptr<tulip::hook::CallingConvention>::~shared_ptr[abi:ne180000]()
PUBLIC dbbb 0 tulip::hook::HandlerMetadata::~HandlerMetadata()
PUBLIC dc01 0 std::__ndk1::__tree<std::__ndk1::__value_type<std::__ndk1::basic_string<char, std::__ndk1::char_traits<char>, std::__ndk1::allocator<char> >, std::__ndk1::shared_ptr<geode::Hook> >, std::__ndk1::__map_value_compare<std::__ndk1::basic_string<char, std::__ndk1::char_traits<char>, std::__ndk1::allocator<char> >, std::__ndk1::__value_type<std::__ndk1::basic_string<char, std::__ndk1::char_traits<char>, std::__ndk1::allocator<char> >, std::__ndk1::shared_ptr<geode::Hook> >, std::__ndk1::less<std::__ndk1::basic_string<char, std::__ndk1::char_traits<char>, std::__ndk1::allocator<char> > >, true>, std::__ndk1::allocator<std::__ndk1::__value_type<std::__ndk1::basic_string<char, std::__ndk1::char_traits<char>, std::__ndk1::allocator<char> >, std::__ndk1::shared_ptr<geode::Hook> > > >::__emplace_unique_key_args<std::__ndk1::basic_string<char, std::__ndk1::char_traits<char>, std::__ndk1::allocator<char> >, std::__ndk1::piecewise_construct_t const&, std::__ndk1::tuple<std::__ndk1::basic_string<char, std::__ndk1::char_traits<char>, std::__ndk1::allocator<char> >&&>, std::__ndk1::tuple<> >(std::__ndk1::basic_string<char, std::__ndk1::char_traits<char>, std::__ndk1::allocator<char> > const&, std::__ndk1::piecewise_construct_t const&, std::__ndk1::tuple<std::__ndk1::basic_string<char, std::__ndk1::char_traits<char>, std::__ndk1::allocator<char> >&&>, std::__ndk1::tuple<>)
PUBLIC dd19 0 __cxx_global_var_init
PUBLIC e43d 0 geode::modifier::ModifyBase<geode::modifier::ModifyDerive<MOIGJRotationControl, GJRotationControl> >::~ModifyBase()
PUBLIC e461 0 geode::modifier::ModifyDerive<MOIGJRotationControl, GJRotationControl>::apply()
PUBLIC eac9 0 geode::modifier::ModifyBase<geode::modifier::ModifyDerive<MOIGJRotationControl, GJRotationControl> >::apply()
PUBLIC eacd 0 geode::modifier::ModifyBase<geode::modifier::ModifyDerive<MOIGJRotationControl, GJRotationControl> >::getHook(std::__ndk1::basic_string_view<char, std::__ndk1::char_traits<char> >)
PUBLIC ebe9 0 geode::EventListener<geode::SettingChangedFilterV3>::EventListener(std::__ndk1::function<void (std::__ndk1::shared_ptr<geode::SettingV3>)>, geode::SettingChangedFilterV3)
PUBLIC ec81 0 geode::SettingChangedFilterV3::~SettingChangedFilterV3()
PUBLIC ecbb 0 _ZNSt6__ndk110__function6__funcIZN14MoreObjectInfo15settingListenerITn14TemplateStringXtlS4_ILj20EEtlA20_cLc100ELc121ELc110ELc97ELc109ELc105ELc99ELc45ELc111ELc98ELc106ELc101ELc99ELc116ELc45ELc105ELc110ELc102ELc111EEEEbZN20MOIGJRotationControl8onModifyERN5geode8modifier10ModifyBaseINS9_12ModifyDeriveIS7_17GJRotationControlEEEEEUlbE_EEPNS8_13EventListenerINS8_22SettingChangedFilterV3EEEOT1_PNS8_3ModEEUlNS_10shared_ptrINS8_9SettingV3EEEE_NS_9allocatorISS_EEFvSR_EED0Ev
PUBLIC ecc1 0 _ZNKSt6__ndk110__function6__funcIZN14MoreObjectInfo15settingListenerITn14TemplateStringXtlS4_ILj20EEtlA20_cLc100ELc121ELc110ELc97ELc109ELc105ELc99ELc45ELc111ELc98ELc106ELc101ELc99ELc116ELc45ELc105ELc110ELc102ELc111EEEEbZN20MOIGJRotationControl8onModifyERN5geode8modifier10ModifyBaseINS9_12ModifyDeriveIS7_17GJRotationControlEEEEEUlbE_EEPNS8_13EventListenerINS8_22SettingChangedFilterV3EEEOT1_PNS8_3ModEEUlNS_10shared_ptrINS8_9SettingV3EEEE_NS_9allocatorISS_EEFvSR_EE7__cloneEv
PUBLIC ece9 0 _ZNKSt6__ndk110__function6__funcIZN14MoreObjectInfo15settingListenerITn14TemplateStringXtlS4_ILj20EEtlA20_cLc100ELc121ELc110ELc97ELc109ELc105ELc99ELc45ELc111ELc98ELc106ELc101ELc99ELc116ELc45ELc105ELc110ELc102ELc111EEEEbZN20MOIGJRotationControl8onModifyERN5geode8modifier10ModifyBaseINS9_12ModifyDeriveIS7_17GJRotationControlEEEEEUlbE_EEPNS8_13EventListenerINS8_22SettingChangedFilterV3EEEOT1_PNS8_3ModEEUlNS_10shared_ptrINS8_9SettingV3EEEE_NS_9allocatorISS_EEFvSR_EE7__cloneEPNS0_6__baseISV_EE
PUBLIC ed05 0 _ZNSt6__ndk110__function6__funcIZN14MoreObjectInfo15settingListenerITn14TemplateStringXtlS4_ILj20EEtlA20_cLc100ELc121ELc110ELc97ELc109ELc105ELc99ELc45ELc111ELc98ELc106ELc101ELc99ELc116ELc45ELc105ELc110ELc102ELc111EEEEbZN20MOIGJRotationControl8onModifyERN5geode8modifier10ModifyBaseINS9_12ModifyDeriveIS7_17GJRotationControlEEEEEUlbE_EEPNS8_13EventListenerINS8_22SettingChangedFilterV3EEEOT1_PNS8_3ModEEUlNS_10shared_ptrINS8_9SettingV3EEEE_NS_9allocatorISS_EEFvSR_EE7destroyEv
PUBLIC ed07 0 _ZNSt6__ndk110__function6__funcIZN14MoreObjectInfo15settingListenerITn14TemplateStringXtlS4_ILj20EEtlA20_cLc100ELc121ELc110ELc97ELc109ELc105ELc99ELc45ELc111ELc98ELc106ELc101ELc99ELc116ELc45ELc105ELc110ELc102ELc111EEEEbZN20MOIGJRotationControl8onModifyERN5geode8modifier10ModifyBaseINS9_12ModifyDeriveIS7_17GJRotationControlEEEEEUlbE_EEPNS8_13EventListenerINS8_22SettingChangedFilterV3EEEOT1_PNS8_3ModEEUlNS_10shared_ptrINS8_9SettingV3EEEE_NS_9allocatorISS_EEFvSR_EE18destroy_deallocateEv
PUBLIC ed0d 0 _ZNSt6__ndk110__function6__funcIZN14MoreObjectInfo15settingListenerITn14TemplateStringXtlS4_ILj20EEtlA20_cLc100ELc121ELc110ELc97ELc109ELc105ELc99ELc45ELc111ELc98ELc106ELc101ELc99ELc116ELc45ELc105ELc110ELc102ELc111EEEEbZN20MOIGJRotationControl8onModifyERN5geode8modifier10ModifyBaseINS9_12ModifyDeriveIS7_17GJRotationControlEEEEEUlbE_EEPNS8_13EventListenerINS8_22SettingChangedFilterV3EEEOT1_PNS8_3ModEEUlNS_10shared_ptrINS8_9SettingV3EEEE_NS_9allocatorISS_EEFvSR_EEclEOSR_
PUBLIC f101 0 _ZNKSt6__ndk110__function6__funcIZN14MoreObjectInfo15settingListenerITn14TemplateStringXtlS4_ILj20EEtlA20_cLc100ELc121ELc110ELc97ELc109ELc105ELc99ELc45ELc111ELc98ELc106ELc101ELc99ELc116ELc45ELc105ELc110ELc102ELc111EEEEbZN20MOIGJRotationControl8onModifyERN5geode8modifier10ModifyBaseINS9_12ModifyDeriveIS7_17GJRotationControlEEEEEUlbE_EEPNS8_13EventListenerINS8_22SettingChangedFilterV3EEEOT1_PNS8_3ModEEUlNS_10shared_ptrINS8_9SettingV3EEEE_NS_9allocatorISS_EEFvSR_EE6targetERKSt9type_info
PUBLIC f119 0 _ZNKSt6__ndk110__function6__funcIZN14MoreObjectInfo15settingListenerITn14TemplateStringXtlS4_ILj20EEtlA20_cLc100ELc121ELc110ELc97ELc109ELc105ELc99ELc45ELc111ELc98ELc106ELc101ELc99ELc116ELc45ELc105ELc110ELc102ELc111EEEEbZN20MOIGJRotationControl8onModifyERN5geode8modifier10ModifyBaseINS9_12ModifyDeriveIS7_17GJRotationControlEEEEEUlbE_EEPNS8_13EventListenerINS8_22SettingChangedFilterV3EEEOT1_PNS8_3ModEEUlNS_10shared_ptrINS8_9SettingV3EEEE_NS_9allocatorISS_EEFvSR_EE11target_typeEv
PUBLIC f125 0 std::__ndk1::shared_ptr<geode::BoolSettingV3>::~shared_ptr[abi:ne180000]()
PUBLIC f15f 0 geode::EventListener<geode::SettingChangedFilterV3>::getPool() const
PUBLIC f165 0 geode::EventListener<geode::SettingChangedFilterV3>::handle(geode::Event*)
PUBLIC f249 0 geode::EventListener<geode::SettingChangedFilterV3>::~EventListener()
PUBLIC f2b9 0 geode::EventListener<geode::SettingChangedFilterV3>::~EventListener()
PUBLIC f32d 0 geode::cast::traverseTypeinfoFor(void*, geode::cast::ClassTypeinfoType const*, char const*)
PUBLIC f3b9 0 geode::modifier::AsStaticFunction_ccTouchBegan<MOIGJRotationControl, bool (MOIGJRotationControl::*)(cocos2d::CCTouch*, cocos2d::CCEvent*)>::Impl<bool (MOIGJRotationControl::*)(cocos2d::CCTouch*, cocos2d::CCEvent*)>::function(MOIGJRotationControl*, cocos2d::CCTouch*, cocos2d::CCEvent*)
PUBLIC f3f1 0 geode::Hook::create<void (*)(MOIGJRotationControl*, cocos2d::CCTouch*, cocos2d::CCEvent*)>(void*, void (*)(MOIGJRotationControl*, cocos2d::CCTouch*, cocos2d::CCEvent*), std::__ndk1::basic_string<char, std::__ndk1::char_traits<char>, std::__ndk1::allocator<char> > const&, tulip::hook::TulipConvention, tulip::hook::HookMetadata const&)
PUBLIC f529 0 geode::modifier::AsStaticFunction_ccTouchMoved<MOIGJRotationControl, void (MOIGJRotationControl::*)(cocos2d::CCTouch*, cocos2d::CCEvent*)>::Impl<void (MOIGJRotationControl::*)(cocos2d::CCTouch*, cocos2d::CCEvent*)>::function(MOIGJRotationControl*, cocos2d::CCTouch*, cocos2d::CCEvent*)
PUBLIC f55d 0 geode::modifier::AsStaticFunction_ccTouchEnded<MOIGJRotationControl, void (MOIGJRotationControl::*)(cocos2d::CCTouch*, cocos2d::CCEvent*)>::Impl<void (MOIGJRotationControl::*)(cocos2d::CCTouch*, cocos2d::CCEvent*)>::function(MOIGJRotationControl*, cocos2d::CCTouch*, cocos2d::CCEvent*)
PUBLIC f591 0 geode::addresser::Addresser::addressOfVirtual<bool, GJRotationControl, cocos2d::CCTouch*, cocos2d::CCEvent*>(bool (GJRotationControl::*)(cocos2d::CCTouch*, cocos2d::CCEvent*))
PUBLIC f5f5 0 GJRotationControl::GJRotationControl(geode::ZeroConstructorType)
PUBLIC f65d 0 geode::addresser::Addresser::addressOfVirtual<void, GJRotationControl, cocos2d::CCTouch*, cocos2d::CCEvent*>(void (GJRotationControl::*)(cocos2d::CCTouch*, cocos2d::CCEvent*))
PUBLIC f6e1 0 __cxx_global_var_init
PUBLIC fdfd 0 geode::modifier::ModifyBase<geode::modifier::ModifyDerive<MOIGJScaleControl, GJScaleControl> >::~ModifyBase()
PUBLIC fe21 0 geode::modifier::ModifyDerive<MOIGJScaleControl, GJScaleControl>::apply()
PUBLIC 10489 0 geode::modifier::ModifyBase<geode::modifier::ModifyDerive<MOIGJScaleControl, GJScaleControl> >::apply()
PUBLIC 1048d 0 geode::modifier::ModifyBase<geode::modifier::ModifyDerive<MOIGJScaleControl, GJScaleControl> >::getHook(std::__ndk1::basic_string_view<char, std::__ndk1::char_traits<char> >)
PUBLIC 105a9 0 _ZNSt6__ndk110__function6__funcIZN14MoreObjectInfo15settingListenerITn14TemplateStringXtlS4_ILj20EEtlA20_cLc100ELc121ELc110ELc97ELc109ELc105ELc99ELc45ELc111ELc98ELc106ELc101ELc99ELc116ELc45ELc105ELc110ELc102ELc111EEEEbZN17MOIGJScaleControl8onModifyERN5geode8modifier10ModifyBaseINS9_12ModifyDeriveIS7_14GJScaleControlEEEEEUlbE_EEPNS8_13EventListenerINS8_22SettingChangedFilterV3EEEOT1_PNS8_3ModEEUlNS_10shared_ptrINS8_9SettingV3EEEE_NS_9allocatorISS_EEFvSR_EED0Ev
PUBLIC 105ad 0 _ZNKSt6__ndk110__function6__funcIZN14MoreObjectInfo15settingListenerITn14TemplateStringXtlS4_ILj20EEtlA20_cLc100ELc121ELc110ELc97ELc109ELc105ELc99ELc45ELc111ELc98ELc106ELc101ELc99ELc116ELc45ELc105ELc110ELc102ELc111EEEEbZN17MOIGJScaleControl8onModifyERN5geode8modifier10ModifyBaseINS9_12ModifyDeriveIS7_14GJScaleControlEEEEEUlbE_EEPNS8_13EventListenerINS8_22SettingChangedFilterV3EEEOT1_PNS8_3ModEEUlNS_10shared_ptrINS8_9SettingV3EEEE_NS_9allocatorISS_EEFvSR_EE7__cloneEv
PUBLIC 105d5 0 _ZNKSt6__ndk110__function6__funcIZN14MoreObjectInfo15settingListenerITn14TemplateStringXtlS4_ILj20EEtlA20_cLc100ELc121ELc110ELc97ELc109ELc105ELc99ELc45ELc111ELc98ELc106ELc101ELc99ELc116ELc45ELc105ELc110ELc102ELc111EEEEbZN17MOIGJScaleControl8onModifyERN5geode8modifier10ModifyBaseINS9_12ModifyDeriveIS7_14GJScaleControlEEEEEUlbE_EEPNS8_13EventListenerINS8_22SettingChangedFilterV3EEEOT1_PNS8_3ModEEUlNS_10shared_ptrINS8_9SettingV3EEEE_NS_9allocatorISS_EEFvSR_EE7__cloneEPNS0_6__baseISV_EE
PUBLIC 105f1 0 _ZNSt6__ndk110__function6__funcIZN14MoreObjectInfo15settingListenerITn14TemplateStringXtlS4_ILj20EEtlA20_cLc100ELc121ELc110ELc97ELc109ELc105ELc99ELc45ELc111ELc98ELc106ELc101ELc99ELc116ELc45ELc105ELc110ELc102ELc111EEEEbZN17MOIGJScaleControl8onModifyERN5geode8modifier10ModifyBaseINS9_12ModifyDeriveIS7_14GJScaleControlEEEEEUlbE_EEPNS8_13EventListenerINS8_22SettingChangedFilterV3EEEOT1_PNS8_3ModEEUlNS_10shared_ptrINS8_9SettingV3EEEE_NS_9allocatorISS_EEFvSR_EE7destroyEv
PUBLIC 105f3 0 _ZNSt6__ndk110__function6__funcIZN14MoreObjectInfo15settingListenerITn14TemplateStringXtlS4_ILj20EEtlA20_cLc100ELc121ELc110ELc97ELc109ELc105ELc99ELc45ELc111ELc98ELc106ELc101ELc99ELc116ELc45ELc105ELc110ELc102ELc111EEEEbZN17MOIGJScaleControl8onModifyERN5geode8modifier10ModifyBaseINS9_12ModifyDeriveIS7_14GJScaleControlEEEEEUlbE_EEPNS8_13EventListenerINS8_22SettingChangedFilterV3EEEOT1_PNS8_3ModEEUlNS_10shared_ptrINS8_9SettingV3EEEE_NS_9allocatorISS_EEFvSR_EE18destroy_deallocateEv
PUBLIC 105f9 0 _ZNSt6__ndk110__function6__funcIZN14MoreObjectInfo15settingListenerITn14TemplateStringXtlS4_ILj20EEtlA20_cLc100ELc121ELc110ELc97ELc109ELc105ELc99ELc45ELc111ELc98ELc106ELc101ELc99ELc116ELc45ELc105ELc110ELc102ELc111EEEEbZN17MOIGJScaleControl8onModifyERN5geode8modifier10ModifyBaseINS9_12ModifyDeriveIS7_14GJScaleControlEEEEEUlbE_EEPNS8_13EventListenerINS8_22SettingChangedFilterV3EEEOT1_PNS8_3ModEEUlNS_10shared_ptrINS8_9SettingV3EEEE_NS_9allocatorISS_EEFvSR_EEclEOSR_
PUBLIC 109ed 0 _ZNKSt6__ndk110__function6__funcIZN14MoreObjectInfo15settingListenerITn14TemplateStringXtlS4_ILj20EEtlA20_cLc100ELc121ELc110ELc97ELc109ELc105ELc99ELc45ELc111ELc98ELc106ELc101ELc99ELc116ELc45ELc105ELc110ELc102ELc111EEEEbZN17MOIGJScaleControl8onModifyERN5geode8modifier10ModifyBaseINS9_12ModifyDeriveIS7_14GJScaleControlEEEEEUlbE_EEPNS8_13EventListenerINS8_22SettingChangedFilterV3EEEOT1_PNS8_3ModEEUlNS_10shared_ptrINS8_9SettingV3EEEE_NS_9allocatorISS_EEFvSR_EE6targetERKSt9type_info
PUBLIC 10a05 0 _ZNKSt6__ndk110__function6__funcIZN14MoreObjectInfo15settingListenerITn14TemplateStringXtlS4_ILj20EEtlA20_cLc100ELc121ELc110ELc97ELc109ELc105ELc99ELc45ELc111ELc98ELc106ELc101ELc99ELc116ELc45ELc105ELc110ELc102ELc111EEEEbZN17MOIGJScaleControl8onModifyERN5geode8modifier10ModifyBaseINS9_12ModifyDeriveIS7_14GJScaleControlEEEEEUlbE_EEPNS8_13EventListenerINS8_22SettingChangedFilterV3EEEOT1_PNS8_3ModEEUlNS_10shared_ptrINS8_9SettingV3EEEE_NS_9allocatorISS_EEFvSR_EE11target_typeEv
PUBLIC 10a11 0 geode::modifier::AsStaticFunction_ccTouchBegan<MOIGJScaleControl, bool (MOIGJScaleControl::*)(cocos2d::CCTouch*, cocos2d::CCEvent*)>::Impl<bool (MOIGJScaleControl::*)(cocos2d::CCTouch*, cocos2d::CCEvent*)>::function(MOIGJScaleControl*, cocos2d::CCTouch*, cocos2d::CCEvent*)
PUBLIC 10a51 0 geode::Hook::create<void (*)(MOIGJScaleControl*, cocos2d::CCTouch*, cocos2d::CCEvent*)>(void*, void (*)(MOIGJScaleControl*, cocos2d::CCTouch*, cocos2d::CCEvent*), std::__ndk1::basic_string<char, std::__ndk1::char_traits<char>, std::__ndk1::allocator<char> > const&, tulip::hook::TulipConvention, tulip::hook::HookMetadata const&)
PUBLIC 10b89 0 geode::modifier::AsStaticFunction_ccTouchMoved<MOIGJScaleControl, void (MOIGJScaleControl::*)(cocos2d::CCTouch*, cocos2d::CCEvent*)>::Impl<void (MOIGJScaleControl::*)(cocos2d::CCTouch*, cocos2d::CCEvent*)>::function(MOIGJScaleControl*, cocos2d::CCTouch*, cocos2d::CCEvent*)
PUBLIC 10bbd 0 geode::modifier::AsStaticFunction_ccTouchEnded<MOIGJScaleControl, void (MOIGJScaleControl::*)(cocos2d::CCTouch*, cocos2d::CCEvent*)>::Impl<void (MOIGJScaleControl::*)(cocos2d::CCTouch*, cocos2d::CCEvent*)>::function(MOIGJScaleControl*, cocos2d::CCTouch*, cocos2d::CCEvent*)
PUBLIC 10bf1 0 geode::addresser::Addresser::addressOfVirtual<bool, GJScaleControl, cocos2d::CCTouch*, cocos2d::CCEvent*>(bool (GJScaleControl::*)(cocos2d::CCTouch*, cocos2d::CCEvent*))
PUBLIC 10c55 0 GJScaleControl::GJScaleControl(geode::ZeroConstructorType)
PUBLIC 10cb5 0 geode::addresser::Addresser::addressOfVirtual<void, GJScaleControl, cocos2d::CCTouch*, cocos2d::CCEvent*>(void (GJScaleControl::*)(cocos2d::CCTouch*, cocos2d::CCEvent*))
PUBLIC 10d39 0 __cxx_global_var_init
PUBLIC 11455 0 geode::modifier::ModifyBase<geode::modifier::ModifyDerive<MOIGJTransformControl, GJTransformControl> >::~ModifyBase()
PUBLIC 11481 0 geode::modifier::ModifyDerive<MOIGJTransformControl, GJTransformControl>::apply()
PUBLIC 11acd 0 geode::modifier::ModifyBase<geode::modifier::ModifyDerive<MOIGJTransformControl, GJTransformControl> >::apply()
PUBLIC 11ad1 0 geode::modifier::ModifyBase<geode::modifier::ModifyDerive<MOIGJTransformControl, GJTransformControl> >::getHook(std::__ndk1::basic_string_view<char, std::__ndk1::char_traits<char> >)
PUBLIC 11bed 0 _ZNSt6__ndk110__function6__funcIZN14MoreObjectInfo15settingListenerITn14TemplateStringXtlS4_ILj20EEtlA20_cLc100ELc121ELc110ELc97ELc109ELc105ELc99ELc45ELc111ELc98ELc106ELc101ELc99ELc116ELc45ELc105ELc110ELc102ELc111EEEEbZN21MOIGJTransformControl8onModifyERN5geode8modifier10ModifyBaseINS9_12ModifyDeriveIS7_18GJTransformControlEEEEEUlbE_EEPNS8_13EventListenerINS8_22SettingChangedFilterV3EEEOT1_PNS8_3ModEEUlNS_10shared_ptrINS8_9SettingV3EEEE_NS_9allocatorISS_EEFvSR_EED0Ev
PUBLIC 11bf1 0 _ZNKSt6__ndk110__function6__funcIZN14MoreObjectInfo15settingListenerITn14TemplateStringXtlS4_ILj20EEtlA20_cLc100ELc121ELc110ELc97ELc109ELc105ELc99ELc45ELc111ELc98ELc106ELc101ELc99ELc116ELc45ELc105ELc110ELc102ELc111EEEEbZN21MOIGJTransformControl8onModifyERN5geode8modifier10ModifyBaseINS9_12ModifyDeriveIS7_18GJTransformControlEEEEEUlbE_EEPNS8_13EventListenerINS8_22SettingChangedFilterV3EEEOT1_PNS8_3ModEEUlNS_10shared_ptrINS8_9SettingV3EEEE_NS_9allocatorISS_EEFvSR_EE7__cloneEv
PUBLIC 11c19 0 _ZNKSt6__ndk110__function6__funcIZN14MoreObjectInfo15settingListenerITn14TemplateStringXtlS4_ILj20EEtlA20_cLc100ELc121ELc110ELc97ELc109ELc105ELc99ELc45ELc111ELc98ELc106ELc101ELc99ELc116ELc45ELc105ELc110ELc102ELc111EEEEbZN21MOIGJTransformControl8onModifyERN5geode8modifier10ModifyBaseINS9_12ModifyDeriveIS7_18GJTransformControlEEEEEUlbE_EEPNS8_13EventListenerINS8_22SettingChangedFilterV3EEEOT1_PNS8_3ModEEUlNS_10shared_ptrINS8_9SettingV3EEEE_NS_9allocatorISS_EEFvSR_EE7__cloneEPNS0_6__baseISV_EE
PUBLIC 11c35 0 _ZNSt6__ndk110__function6__funcIZN14MoreObjectInfo15settingListenerITn14TemplateStringXtlS4_ILj20EEtlA20_cLc100ELc121ELc110ELc97ELc109ELc105ELc99ELc45ELc111ELc98ELc106ELc101ELc99ELc116ELc45ELc105ELc110ELc102ELc111EEEEbZN21MOIGJTransformControl8onModifyERN5geode8modifier10ModifyBaseINS9_12ModifyDeriveIS7_18GJTransformControlEEEEEUlbE_EEPNS8_13EventListenerINS8_22SettingChangedFilterV3EEEOT1_PNS8_3ModEEUlNS_10shared_ptrINS8_9SettingV3EEEE_NS_9allocatorISS_EEFvSR_EE7destroyEv
PUBLIC 11c37 0 _ZNSt6__ndk110__function6__funcIZN14MoreObjectInfo15settingListenerITn14TemplateStringXtlS4_ILj20EEtlA20_cLc100ELc121ELc110ELc97ELc109ELc105ELc99ELc45ELc111ELc98ELc106ELc101ELc99ELc116ELc45ELc105ELc110ELc102ELc111EEEEbZN21MOIGJTransformControl8onModifyERN5geode8modifier10ModifyBaseINS9_12ModifyDeriveIS7_18GJTransformControlEEEEEUlbE_EEPNS8_13EventListenerINS8_22SettingChangedFilterV3EEEOT1_PNS8_3ModEEUlNS_10shared_ptrINS8_9SettingV3EEEE_NS_9allocatorISS_EEFvSR_EE18destroy_deallocateEv
PUBLIC 11c3d 0 _ZNSt6__ndk110__function6__funcIZN14MoreObjectInfo15settingListenerITn14TemplateStringXtlS4_ILj20EEtlA20_cLc100ELc121ELc110ELc97ELc109ELc105ELc99ELc45ELc111ELc98ELc106ELc101ELc99ELc116ELc45ELc105ELc110ELc102ELc111EEEEbZN21MOIGJTransformControl8onModifyERN5geode8modifier10ModifyBaseINS9_12ModifyDeriveIS7_18GJTransformControlEEEEEUlbE_EEPNS8_13EventListenerINS8_22SettingChangedFilterV3EEEOT1_PNS8_3ModEEUlNS_10shared_ptrINS8_9SettingV3EEEE_NS_9allocatorISS_EEFvSR_EEclEOSR_
PUBLIC 12031 0 _ZNKSt6__ndk110__function6__funcIZN14MoreObjectInfo15settingListenerITn14TemplateStringXtlS4_ILj20EEtlA20_cLc100ELc121ELc110ELc97ELc109ELc105ELc99ELc45ELc111ELc98ELc106ELc101ELc99ELc116ELc45ELc105ELc110ELc102ELc111EEEEbZN21MOIGJTransformControl8onModifyERN5geode8modifier10ModifyBaseINS9_12ModifyDeriveIS7_18GJTransformControlEEEEEUlbE_EEPNS8_13EventListenerINS8_22SettingChangedFilterV3EEEOT1_PNS8_3ModEEUlNS_10shared_ptrINS8_9SettingV3EEEE_NS_9allocatorISS_EEFvSR_EE6targetERKSt9type_info
PUBLIC 12049 0 _ZNKSt6__ndk110__function6__funcIZN14MoreObjectInfo15settingListenerITn14TemplateStringXtlS4_ILj20EEtlA20_cLc100ELc121ELc110ELc97ELc109ELc105ELc99ELc45ELc111ELc98ELc106ELc101ELc99ELc116ELc45ELc105ELc110ELc102ELc111EEEEbZN21MOIGJTransformControl8onModifyERN5geode8modifier10ModifyBaseINS9_12ModifyDeriveIS7_18GJTransformControlEEEEEUlbE_EEPNS8_13EventListenerINS8_22SettingChangedFilterV3EEEOT1_PNS8_3ModEEUlNS_10shared_ptrINS8_9SettingV3EEEE_NS_9allocatorISS_EEFvSR_EE11target_typeEv
PUBLIC 12055 0 geode::modifier::AsStaticFunction_ccTouchBegan<MOIGJTransformControl, bool (MOIGJTransformControl::*)(cocos2d::CCTouch*, cocos2d::CCEvent*)>::Impl<bool (MOIGJTransformControl::*)(cocos2d::CCTouch*, cocos2d::CCEvent*)>::function(MOIGJTransformControl*, cocos2d::CCTouch*, cocos2d::CCEvent*)
PUBLIC 12091 0 geode::Hook::create<void (*)(MOIGJTransformControl*, cocos2d::CCTouch*, cocos2d::CCEvent*)>(void*, void (*)(MOIGJTransformControl*, cocos2d::CCTouch*, cocos2d::CCEvent*), std::__ndk1::basic_string<char, std::__ndk1::char_traits<char>, std::__ndk1::allocator<char> > const&, tulip::hook::TulipConvention, tulip::hook::HookMetadata const&)
PUBLIC 121c9 0 geode::modifier::AsStaticFunction_ccTouchMoved<MOIGJTransformControl, void (MOIGJTransformControl::*)(cocos2d::CCTouch*, cocos2d::CCEvent*)>::Impl<void (MOIGJTransformControl::*)(cocos2d::CCTouch*, cocos2d::CCEvent*)>::function(MOIGJTransformControl*, cocos2d::CCTouch*, cocos2d::CCEvent*)
PUBLIC 121fd 0 geode::modifier::AsStaticFunction_ccTouchEnded<MOIGJTransformControl, void (MOIGJTransformControl::*)(cocos2d::CCTouch*, cocos2d::CCEvent*)>::Impl<void (MOIGJTransformControl::*)(cocos2d::CCTouch*, cocos2d::CCEvent*)>::function(MOIGJTransformControl*, cocos2d::CCTouch*, cocos2d::CCEvent*)
PUBLIC 12231 0 geode::addresser::Addresser::addressOfVirtual<bool, GJTransformControl, cocos2d::CCTouch*, cocos2d::CCEvent*>(bool (GJTransformControl::*)(cocos2d::CCTouch*, cocos2d::CCEvent*))
PUBLIC 12295 0 GJTransformControl::GJTransformControl(geode::ZeroConstructorType)
PUBLIC 1230d 0 geode::addresser::Addresser::addressOfVirtual<void, GJTransformControl, cocos2d::CCTouch*, cocos2d::CCEvent*>(void (GJTransformControl::*)(cocos2d::CCTouch*, cocos2d::CCEvent*))
PUBLIC 12391 0 geodeExecFunction7<(anonymous namespace)::ExecFuncUnique7>(geode::ModStateEvent*)
PUBLIC 123a5 0 MoreObjectInfo::showObjectType(geode::Mod*)
PUBLIC 12441 0 MoreObjectInfo::showObjectAddress(geode::Mod*)
PUBLIC 124dd 0 MoreObjectInfo::showObjectData(geode::Mod*)
PUBLIC 12579 0 MoreObjectInfo::showObjectInfo(geode::Mod*)
PUBLIC 12895 0 geode::EventListener<geode::ModStateFilter>::getPool() const
PUBLIC 12899 0 geode::EventListener<geode::ModStateFilter>::handle(geode::Event*)
PUBLIC 1297d 0 geode::EventListener<geode::ModStateFilter>::~EventListener()
PUBLIC 129b5 0 geode::EventListener<geode::ModStateFilter>::~EventListener()
PUBLIC 129f1 0 std::__ndk1::__function::__base<void (geode::ModStateEvent*)>::~__base()
PUBLIC 129f3 0 std::__ndk1::__function::__func<void (*)(geode::ModStateEvent*), std::__ndk1::allocator<void (*)(geode::ModStateEvent*)>, void (geode::ModStateEvent*)>::~__func()
PUBLIC 129f9 0 std::__ndk1::__function::__func<void (*)(geode::ModStateEvent*), std::__ndk1::allocator<void (*)(geode::ModStateEvent*)>, void (geode::ModStateEvent*)>::__clone() const
PUBLIC 12a19 0 std::__ndk1::__function::__func<void (*)(geode::ModStateEvent*), std::__ndk1::allocator<void (*)(geode::ModStateEvent*)>, void (geode::ModStateEvent*)>::__clone(std::__ndk1::__function::__base<void (geode::ModStateEvent*)>*) const
PUBLIC 12a2d 0 std::__ndk1::__function::__func<void (*)(geode::ModStateEvent*), std::__ndk1::allocator<void (*)(geode::ModStateEvent*)>, void (geode::ModStateEvent*)>::destroy()
PUBLIC 12a2f 0 std::__ndk1::__function::__func<void (*)(geode::ModStateEvent*), std::__ndk1::allocator<void (*)(geode::ModStateEvent*)>, void (geode::ModStateEvent*)>::destroy_deallocate()
PUBLIC 12a33 0 std::__ndk1::__function::__func<void (*)(geode::ModStateEvent*), std::__ndk1::allocator<void (*)(geode::ModStateEvent*)>, void (geode::ModStateEvent*)>::operator()(geode::ModStateEvent*&&)
PUBLIC 12a3d 0 std::__ndk1::__function::__func<void (*)(geode::ModStateEvent*), std::__ndk1::allocator<void (*)(geode::ModStateEvent*)>, void (geode::ModStateEvent*)>::target(std::type_info const&) const
PUBLIC 12a55 0 std::__ndk1::__function::__func<void (*)(geode::ModStateEvent*), std::__ndk1::allocator<void (*)(geode::ModStateEvent*)>, void (geode::ModStateEvent*)>::target_type() const
PUBLIC 12a61 0 _ZN14MoreObjectInfo15settingListenerITn14TemplateStringXtlS1_ILj15EEtlA15_cLc115ELc104ELc111ELc119ELc45ELc111ELc98ELc106ELc101ELc99ELc116ELc45ELc105ELc100EEEEbZNS_3getITnS1_XtlS2_tlS3_Lc115ELc104ELc111ELc119ELc45ELc111ELc98ELc106ELc101ELc99ELc116ELc45ELc105ELc100EEEEbEET0_PN5geode3ModEEUlbE_EEPNS6_13EventListenerINS6_22SettingChangedFilterV3EEEOT1_S8_
PUBLIC 12ba9 0 MoreObjectInfo::getInternal<bool>(geode::Mod*, std::__ndk1::basic_string_view<char, std::__ndk1::char_traits<char> >)
PUBLIC 12c35 0 _ZNSt6__ndk110__function6__funcIZN14MoreObjectInfo15settingListenerITn14TemplateStringXtlS4_ILj15EEtlA15_cLc115ELc104ELc111ELc119ELc45ELc111ELc98ELc106ELc101ELc99ELc116ELc45ELc105ELc100EEEEbZNS2_3getITnS4_XtlS5_tlS6_Lc115ELc104ELc111ELc119ELc45ELc111ELc98ELc106ELc101ELc99ELc116ELc45ELc105ELc100EEEEbEET0_PN5geode3ModEEUlbE_EEPNS9_13EventListenerINS9_22SettingChangedFilterV3EEEOT1_SB_EUlNS_10shared_ptrINS9_9SettingV3EEEE_NS_9allocatorISM_EEFvSL_EED0Ev
PUBLIC 12c39 0 _ZNKSt6__ndk110__function6__funcIZN14MoreObjectInfo15settingListenerITn14TemplateStringXtlS4_ILj15EEtlA15_cLc115ELc104ELc111ELc119ELc45ELc111ELc98ELc106ELc101ELc99ELc116ELc45ELc105ELc100EEEEbZNS2_3getITnS4_XtlS5_tlS6_Lc115ELc104ELc111ELc119ELc45ELc111ELc98ELc106ELc101ELc99ELc116ELc45ELc105ELc100EEEEbEET0_PN5geode3ModEEUlbE_EEPNS9_13EventListenerINS9_22SettingChangedFilterV3EEEOT1_SB_EUlNS_10shared_ptrINS9_9SettingV3EEEE_NS_9allocatorISM_EEFvSL_EE7__cloneEv
PUBLIC 12c59 0 _ZNKSt6__ndk110__function6__funcIZN14MoreObjectInfo15settingListenerITn14TemplateStringXtlS4_ILj15EEtlA15_cLc115ELc104ELc111ELc119ELc45ELc111ELc98ELc106ELc101ELc99ELc116ELc45ELc105ELc100EEEEbZNS2_3getITnS4_XtlS5_tlS6_Lc115ELc104ELc111ELc119ELc45ELc111ELc98ELc106ELc101ELc99ELc116ELc45ELc105ELc100EEEEbEET0_PN5geode3ModEEUlbE_EEPNS9_13EventListenerINS9_22SettingChangedFilterV3EEEOT1_SB_EUlNS_10shared_ptrINS9_9SettingV3EEEE_NS_9allocatorISM_EEFvSL_EE7__cloneEPNS0_6__baseISP_EE
PUBLIC 12c6d 0 _ZNSt6__ndk110__function6__funcIZN14MoreObjectInfo15settingListenerITn14TemplateStringXtlS4_ILj15EEtlA15_cLc115ELc104ELc111ELc119ELc45ELc111ELc98ELc106ELc101ELc99ELc116ELc45ELc105ELc100EEEEbZNS2_3getITnS4_XtlS5_tlS6_Lc115ELc104ELc111ELc119ELc45ELc111ELc98ELc106ELc101ELc99ELc116ELc45ELc105ELc100EEEEbEET0_PN5geode3ModEEUlbE_EEPNS9_13EventListenerINS9_22SettingChangedFilterV3EEEOT1_SB_EUlNS_10shared_ptrINS9_9SettingV3EEEE_NS_9allocatorISM_EEFvSL_EE7destroyEv
PUBLIC 12c6f 0 _ZNSt6__ndk110__function6__funcIZN14MoreObjectInfo15settingListenerITn14TemplateStringXtlS4_ILj15EEtlA15_cLc115ELc104ELc111ELc119ELc45ELc111ELc98ELc106ELc101ELc99ELc116ELc45ELc105ELc100EEEEbZNS2_3getITnS4_XtlS5_tlS6_Lc115ELc104ELc111ELc119ELc45ELc111ELc98ELc106ELc101ELc99ELc116ELc45ELc105ELc100EEEEbEET0_PN5geode3ModEEUlbE_EEPNS9_13EventListenerINS9_22SettingChangedFilterV3EEEOT1_SB_EUlNS_10shared_ptrINS9_9SettingV3EEEE_NS_9allocatorISM_EEFvSL_EE18destroy_deallocateEv
PUBLIC 12c75 0 _ZNSt6__ndk110__function6__funcIZN14MoreObjectInfo15settingListenerITn14TemplateStringXtlS4_ILj15EEtlA15_cLc115ELc104ELc111ELc119ELc45ELc111ELc98ELc106ELc101ELc99ELc116ELc45ELc105ELc100EEEEbZNS2_3getITnS4_XtlS5_tlS6_Lc115ELc104ELc111ELc119ELc45ELc111ELc98ELc106ELc101ELc99ELc116ELc45ELc105ELc100EEEEbEET0_PN5geode3ModEEUlbE_EEPNS9_13EventListenerINS9_22SettingChangedFilterV3EEEOT1_SB_EUlNS_10shared_ptrINS9_9SettingV3EEEE_NS_9allocatorISM_EEFvSL_EEclEOSL_
PUBLIC 12d09 0 _ZNKSt6__ndk110__function6__funcIZN14MoreObjectInfo15settingListenerITn14TemplateStringXtlS4_ILj15EEtlA15_cLc115ELc104ELc111ELc119ELc45ELc111ELc98ELc106ELc101ELc99ELc116ELc45ELc105ELc100EEEEbZNS2_3getITnS4_XtlS5_tlS6_Lc115ELc104ELc111ELc119ELc45ELc111ELc98ELc106ELc101ELc99ELc116ELc45ELc105ELc100EEEEbEET0_PN5geode3ModEEUlbE_EEPNS9_13EventListenerINS9_22SettingChangedFilterV3EEEOT1_SB_EUlNS_10shared_ptrINS9_9SettingV3EEEE_NS_9allocatorISM_EEFvSL_EE6targetERKSt9type_info
PUBLIC 12d21 0 _ZNKSt6__ndk110__function6__funcIZN14MoreObjectInfo15settingListenerITn14TemplateStringXtlS4_ILj15EEtlA15_cLc115ELc104ELc111ELc119ELc45ELc111ELc98ELc106ELc101ELc99ELc116ELc45ELc105ELc100EEEEbZNS2_3getITnS4_XtlS5_tlS6_Lc115ELc104ELc111ELc119ELc45ELc111ELc98ELc106ELc101ELc99ELc116ELc45ELc105ELc100EEEEbEET0_PN5geode3ModEEUlbE_EEPNS9_13EventListenerINS9_22SettingChangedFilterV3EEEOT1_SB_EUlNS_10shared_ptrINS9_9SettingV3EEEE_NS_9allocatorISM_EEFvSL_EE11target_typeEv
PUBLIC 12d2d 0 _ZN14MoreObjectInfo15settingListenerITn14TemplateStringXtlS1_ILj21EEtlA21_cLc115ELc104ELc111ELc119ELc45ELc111ELc98ELc106ELc101ELc99ELc116ELc45ELc112ELc111ELc115ELc105ELc116ELc105ELc111ELc110EEEEbZNS_3getITnS1_XtlS2_tlS3_Lc115ELc104ELc111ELc119ELc45ELc111ELc98ELc106ELc101ELc99ELc116ELc45ELc112ELc111ELc115ELc105ELc116ELc105ELc111ELc110EEEEbEET0_PN5geode3ModEEUlbE_EEPNS6_13EventListenerINS6_22SettingChangedFilterV3EEEOT1_S8_
PUBLIC 12e75 0 _ZNSt6__ndk110__function6__funcIZN14MoreObjectInfo15settingListenerITn14TemplateStringXtlS4_ILj21EEtlA21_cLc115ELc104ELc111ELc119ELc45ELc111ELc98ELc106ELc101ELc99ELc116ELc45ELc112ELc111ELc115ELc105ELc116ELc105ELc111ELc110EEEEbZNS2_3getITnS4_XtlS5_tlS6_Lc115ELc104ELc111ELc119ELc45ELc111ELc98ELc106ELc101ELc99ELc116ELc45ELc112ELc111ELc115ELc105ELc116ELc105ELc111ELc110EEEEbEET0_PN5geode3ModEEUlbE_EEPNS9_13EventListenerINS9_22SettingChangedFilterV3EEEOT1_SB_EUlNS_10shared_ptrINS9_9SettingV3EEEE_NS_9allocatorISM_EEFvSL_EED0Ev
PUBLIC 12e79 0 _ZNKSt6__ndk110__function6__funcIZN14MoreObjectInfo15settingListenerITn14TemplateStringXtlS4_ILj21EEtlA21_cLc115ELc104ELc111ELc119ELc45ELc111ELc98ELc106ELc101ELc99ELc116ELc45ELc112ELc111ELc115ELc105ELc116ELc105ELc111ELc110EEEEbZNS2_3getITnS4_XtlS5_tlS6_Lc115ELc104ELc111ELc119ELc45ELc111ELc98ELc106ELc101ELc99ELc116ELc45ELc112ELc111ELc115ELc105ELc116ELc105ELc111ELc110EEEEbEET0_PN5geode3ModEEUlbE_EEPNS9_13EventListenerINS9_22SettingChangedFilterV3EEEOT1_SB_EUlNS_10shared_ptrINS9_9SettingV3EEEE_NS_9allocatorISM_EEFvSL_EE7__cloneEv
PUBLIC 12e99 0 _ZNKSt6__ndk110__function6__funcIZN14MoreObjectInfo15settingListenerITn14TemplateStringXtlS4_ILj21EEtlA21_cLc115ELc104ELc111ELc119ELc45ELc111ELc98ELc106ELc101ELc99ELc116ELc45ELc112ELc111ELc115ELc105ELc116ELc105ELc111ELc110EEEEbZNS2_3getITnS4_XtlS5_tlS6_Lc115ELc104ELc111ELc119ELc45ELc111ELc98ELc106ELc101ELc99ELc116ELc45ELc112ELc111ELc115ELc105ELc116ELc105ELc111ELc110EEEEbEET0_PN5geode3ModEEUlbE_EEPNS9_13EventListenerINS9_22SettingChangedFilterV3EEEOT1_SB_EUlNS_10shared_ptrINS9_9SettingV3EEEE_NS_9allocatorISM_EEFvSL_EE7__cloneEPNS0_6__baseISP_EE
PUBLIC 12ead 0 _ZNSt6__ndk110__function6__funcIZN14MoreObjectInfo15settingListenerITn14TemplateStringXtlS4_ILj21EEtlA21_cLc115ELc104ELc111ELc119ELc45ELc111ELc98ELc106ELc101ELc99ELc116ELc45ELc112ELc111ELc115ELc105ELc116ELc105ELc111ELc110EEEEbZNS2_3getITnS4_XtlS5_tlS6_Lc115ELc104ELc111ELc119ELc45ELc111ELc98ELc106ELc101ELc99ELc116ELc45ELc112ELc111ELc115ELc105ELc116ELc105ELc111ELc110EEEEbEET0_PN5geode3ModEEUlbE_EEPNS9_13EventListenerINS9_22SettingChangedFilterV3EEEOT1_SB_EUlNS_10shared_ptrINS9_9SettingV3EEEE_NS_9allocatorISM_EEFvSL_EE7destroyEv
PUBLIC 12eaf 0 _ZNSt6__ndk110__function6__funcIZN14MoreObjectInfo15settingListenerITn14TemplateStringXtlS4_ILj21EEtlA21_cLc115ELc104ELc111ELc119ELc45ELc111ELc98ELc106ELc101ELc99ELc116ELc45ELc112ELc111ELc115ELc105ELc116ELc105ELc111ELc110EEEEbZNS2_3getITnS4_XtlS5_tlS6_Lc115ELc104ELc111ELc119ELc45ELc111ELc98ELc106ELc101ELc99ELc116ELc45ELc112ELc111ELc115ELc105ELc116ELc105ELc111ELc110EEEEbEET0_PN5geode3ModEEUlbE_EEPNS9_13EventListenerINS9_22SettingChangedFilterV3EEEOT1_SB_EUlNS_10shared_ptrINS9_9SettingV3EEEE_NS_9allocatorISM_EEFvSL_EE18destroy_deallocateEv
PUBLIC 12eb5 0 _ZNSt6__ndk110__function6__funcIZN14MoreObjectInfo15settingListenerITn14TemplateStringXtlS4_ILj21EEtlA21_cLc115ELc104ELc111ELc119ELc45ELc111ELc98ELc106ELc101ELc99ELc116ELc45ELc112ELc111ELc115ELc105ELc116ELc105ELc111ELc110EEEEbZNS2_3getITnS4_XtlS5_tlS6_Lc115ELc104ELc111ELc119ELc45ELc111ELc98ELc106ELc101ELc99ELc116ELc45ELc112ELc111ELc115ELc105ELc116ELc105ELc111ELc110EEEEbEET0_PN5geode3ModEEUlbE_EEPNS9_13EventListenerINS9_22SettingChangedFilterV3EEEOT1_SB_EUlNS_10shared_ptrINS9_9SettingV3EEEE_NS_9allocatorISM_EEFvSL_EEclEOSL_
PUBLIC 12f49 0 _ZNKSt6__ndk110__function6__funcIZN14MoreObjectInfo15settingListenerITn14TemplateStringXtlS4_ILj21EEtlA21_cLc115ELc104ELc111ELc119ELc45ELc111ELc98ELc106ELc101ELc99ELc116ELc45ELc112ELc111ELc115ELc105ELc116ELc105ELc111ELc110EEEEbZNS2_3getITnS4_XtlS5_tlS6_Lc115ELc104ELc111ELc119ELc45ELc111ELc98ELc106ELc101ELc99ELc116ELc45ELc112ELc111ELc115ELc105ELc116ELc105ELc111ELc110EEEEbEET0_PN5geode3ModEEUlbE_EEPNS9_13EventListenerINS9_22SettingChangedFilterV3EEEOT1_SB_EUlNS_10shared_ptrINS9_9SettingV3EEEE_NS_9allocatorISM_EEFvSL_EE6targetERKSt9type_info
PUBLIC 12f61 0 _ZNKSt6__ndk110__function6__funcIZN14MoreObjectInfo15settingListenerITn14TemplateStringXtlS4_ILj21EEtlA21_cLc115ELc104ELc111ELc119ELc45ELc111ELc98ELc106ELc101ELc99ELc116ELc45ELc112ELc111ELc115ELc105ELc116ELc105ELc111ELc110EEEEbZNS2_3getITnS4_XtlS5_tlS6_Lc115ELc104ELc111ELc119ELc45ELc111ELc98ELc106ELc101ELc99ELc116ELc45ELc112ELc111ELc115ELc105ELc116ELc105ELc111ELc110EEEEbEET0_PN5geode3ModEEUlbE_EEPNS9_13EventListenerINS9_22SettingChangedFilterV3EEEOT1_SB_EUlNS_10shared_ptrINS9_9SettingV3EEEE_NS_9allocatorISM_EEFvSL_EE11target_typeEv
PUBLIC 12f6d 0 _ZN14MoreObjectInfo15settingListenerITn14TemplateStringXtlS1_ILj21EEtlA21_cLc115ELc104ELc111ELc119ELc45ELc111ELc98ELc106ELc101ELc99ELc116ELc45ELc114ELc111ELc116ELc97ELc116ELc105ELc111ELc110EEEEbZNS_3getITnS1_XtlS2_tlS3_Lc115ELc104ELc111ELc119ELc45ELc111ELc98ELc106ELc101ELc99ELc116ELc45ELc114ELc111ELc116ELc97ELc116ELc105ELc111ELc110EEEEbEET0_PN5geode3ModEEUlbE_EEPNS6_13EventListenerINS6_22SettingChangedFilterV3EEEOT1_S8_
PUBLIC 130b5 0 _ZNSt6__ndk110__function6__funcIZN14MoreObjectInfo15settingListenerITn14TemplateStringXtlS4_ILj21EEtlA21_cLc115ELc104ELc111ELc119ELc45ELc111ELc98ELc106ELc101ELc99ELc116ELc45ELc114ELc111ELc116ELc97ELc116ELc105ELc111ELc110EEEEbZNS2_3getITnS4_XtlS5_tlS6_Lc115ELc104ELc111ELc119ELc45ELc111ELc98ELc106ELc101ELc99ELc116ELc45ELc114ELc111ELc116ELc97ELc116ELc105ELc111ELc110EEEEbEET0_PN5geode3ModEEUlbE_EEPNS9_13EventListenerINS9_22SettingChangedFilterV3EEEOT1_SB_EUlNS_10shared_ptrINS9_9SettingV3EEEE_NS_9allocatorISM_EEFvSL_EED0Ev
PUBLIC 130b9 0 _ZNKSt6__ndk110__function6__funcIZN14MoreObjectInfo15settingListenerITn14TemplateStringXtlS4_ILj21EEtlA21_cLc115ELc104ELc111ELc119ELc45ELc111ELc98ELc106ELc101ELc99ELc116ELc45ELc114ELc111ELc116ELc97ELc116ELc105ELc111ELc110EEEEbZNS2_3getITnS4_XtlS5_tlS6_Lc115ELc104ELc111ELc119ELc45ELc111ELc98ELc106ELc101ELc99ELc116ELc45ELc114ELc111ELc116ELc97ELc116ELc105ELc111ELc110EEEEbEET0_PN5geode3ModEEUlbE_EEPNS9_13EventListenerINS9_22SettingChangedFilterV3EEEOT1_SB_EUlNS_10shared_ptrINS9_9SettingV3EEEE_NS_9allocatorISM_EEFvSL_EE7__cloneEv
PUBLIC 130d9 0 _ZNKSt6__ndk110__function6__funcIZN14MoreObjectInfo15settingListenerITn14TemplateStringXtlS4_ILj21EEtlA21_cLc115ELc104ELc111ELc119ELc45ELc111ELc98ELc106ELc101ELc99ELc116ELc45ELc114ELc111ELc116ELc97ELc116ELc105ELc111ELc110EEEEbZNS2_3getITnS4_XtlS5_tlS6_Lc115ELc104ELc111ELc119ELc45ELc111ELc98ELc106ELc101ELc99ELc116ELc45ELc114ELc111ELc116ELc97ELc116ELc105ELc111ELc110EEEEbEET0_PN5geode3ModEEUlbE_EEPNS9_13EventListenerINS9_22SettingChangedFilterV3EEEOT1_SB_EUlNS_10shared_ptrINS9_9SettingV3EEEE_NS_9allocatorISM_EEFvSL_EE7__cloneEPNS0_6__baseISP_EE
PUBLIC 130ed 0 _ZNSt6__ndk110__function6__funcIZN14MoreObjectInfo15settingListenerITn14TemplateStringXtlS4_ILj21EEtlA21_cLc115ELc104ELc111ELc119ELc45ELc111ELc98ELc106ELc101ELc99ELc116ELc45ELc114ELc111ELc116ELc97ELc116ELc105ELc111ELc110EEEEbZNS2_3getITnS4_XtlS5_tlS6_Lc115ELc104ELc111ELc119ELc45ELc111ELc98ELc106ELc101ELc99ELc116ELc45ELc114ELc111ELc116ELc97ELc116ELc105ELc111ELc110EEEEbEET0_PN5geode3ModEEUlbE_EEPNS9_13EventListenerINS9_22SettingChangedFilterV3EEEOT1_SB_EUlNS_10shared_ptrINS9_9SettingV3EEEE_NS_9allocatorISM_EEFvSL_EE7destroyEv
PUBLIC 130ef 0 _ZNSt6__ndk110__function6__funcIZN14MoreObjectInfo15settingListenerITn14TemplateStringXtlS4_ILj21EEtlA21_cLc115ELc104ELc111ELc119ELc45ELc111ELc98ELc106ELc101ELc99ELc116ELc45ELc114ELc111ELc116ELc97ELc116ELc105ELc111ELc110EEEEbZNS2_3getITnS4_XtlS5_tlS6_Lc115ELc104ELc111ELc119ELc45ELc111ELc98ELc106ELc101ELc99ELc116ELc45ELc114ELc111ELc116ELc97ELc116ELc105ELc111ELc110EEEEbEET0_PN5geode3ModEEUlbE_EEPNS9_13EventListenerINS9_22SettingChangedFilterV3EEEOT1_SB_EUlNS_10shared_ptrINS9_9SettingV3EEEE_NS_9allocatorISM_EEFvSL_EE18destroy_deallocateEv
PUBLIC 130f5 0 _ZNSt6__ndk110__function6__funcIZN14MoreObjectInfo15settingListenerITn14TemplateStringXtlS4_ILj21EEtlA21_cLc115ELc104ELc111ELc119ELc45ELc111ELc98ELc106ELc101ELc99ELc116ELc45ELc114ELc111ELc116ELc97ELc116ELc105ELc111ELc110EEEEbZNS2_3getITnS4_XtlS5_tlS6_Lc115ELc104ELc111ELc119ELc45ELc111ELc98ELc106ELc101ELc99ELc116ELc45ELc114ELc111ELc116ELc97ELc116ELc105ELc111ELc110EEEEbEET0_PN5geode3ModEEUlbE_EEPNS9_13EventListenerINS9_22SettingChangedFilterV3EEEOT1_SB_EUlNS_10shared_ptrINS9_9SettingV3EEEE_NS_9allocatorISM_EEFvSL_EEclEOSL_
PUBLIC 13189 0 _ZNKSt6__ndk110__function6__funcIZN14MoreObjectInfo15settingListenerITn14TemplateStringXtlS4_ILj21EEtlA21_cLc115ELc104ELc111ELc119ELc45ELc111ELc98ELc106ELc101ELc99ELc116ELc45ELc114ELc111ELc116ELc97ELc116ELc105ELc111ELc110EEEEbZNS2_3getITnS4_XtlS5_tlS6_Lc115ELc104ELc111ELc119ELc45ELc111ELc98ELc106ELc101ELc99ELc116ELc45ELc114ELc111ELc116ELc97ELc116ELc105ELc111ELc110EEEEbEET0_PN5geode3ModEEUlbE_EEPNS9_13EventListenerINS9_22SettingChangedFilterV3EEEOT1_SB_EUlNS_10shared_ptrINS9_9SettingV3EEEE_NS_9allocatorISM_EEFvSL_EE6targetERKSt9type_info
PUBLIC 131a1 0 _ZNKSt6__ndk110__function6__funcIZN14MoreObjectInfo15settingListenerITn14TemplateStringXtlS4_ILj21EEtlA21_cLc115ELc104ELc111ELc119ELc45ELc111ELc98ELc106ELc101ELc99ELc116ELc45ELc114ELc111ELc116ELc97ELc116ELc105ELc111ELc110EEEEbZNS2_3getITnS4_XtlS5_tlS6_Lc115ELc104ELc111ELc119ELc45ELc111ELc98ELc106ELc101ELc99ELc116ELc45ELc114ELc111ELc116ELc97ELc116ELc105ELc111ELc110EEEEbEET0_PN5geode3ModEEUlbE_EEPNS9_13EventListenerINS9_22SettingChangedFilterV3EEEOT1_SB_EUlNS_10shared_ptrINS9_9SettingV3EEEE_NS_9allocatorISM_EEFvSL_EE11target_typeEv
PUBLIC 131ad 0 _ZN14MoreObjectInfo15settingListenerITn14TemplateStringXtlS1_ILj18EEtlA18_cLc115ELc104ELc111ELc119ELc45ELc111ELc98ELc106ELc101ELc99ELc116ELc45ELc115ELc99ELc97ELc108ELc101EEEEbZNS_3getITnS1_XtlS2_tlS3_Lc115ELc104ELc111ELc119ELc45ELc111ELc98ELc106ELc101ELc99ELc116ELc45ELc115ELc99ELc97ELc108ELc101EEEEbEET0_PN5geode3ModEEUlbE_EEPNS6_13EventListenerINS6_22SettingChangedFilterV3EEEOT1_S8_
PUBLIC 132ed 0 _ZNSt6__ndk110__function6__funcIZN14MoreObjectInfo15settingListenerITn14TemplateStringXtlS4_ILj18EEtlA18_cLc115ELc104ELc111ELc119ELc45ELc111ELc98ELc106ELc101ELc99ELc116ELc45ELc115ELc99ELc97ELc108ELc101EEEEbZNS2_3getITnS4_XtlS5_tlS6_Lc115ELc104ELc111ELc119ELc45ELc111ELc98ELc106ELc101ELc99ELc116ELc45ELc115ELc99ELc97ELc108ELc101EEEEbEET0_PN5geode3ModEEUlbE_EEPNS9_13EventListenerINS9_22SettingChangedFilterV3EEEOT1_SB_EUlNS_10shared_ptrINS9_9SettingV3EEEE_NS_9allocatorISM_EEFvSL_EED0Ev
PUBLIC 132f1 0 _ZNKSt6__ndk110__function6__funcIZN14MoreObjectInfo15settingListenerITn14TemplateStringXtlS4_ILj18EEtlA18_cLc115ELc104ELc111ELc119ELc45ELc111ELc98ELc106ELc101ELc99ELc116ELc45ELc115ELc99ELc97ELc108ELc101EEEEbZNS2_3getITnS4_XtlS5_tlS6_Lc115ELc104ELc111ELc119ELc45ELc111ELc98ELc106ELc101ELc99ELc116ELc45ELc115ELc99ELc97ELc108ELc101EEEEbEET0_PN5geode3ModEEUlbE_EEPNS9_13EventListenerINS9_22SettingChangedFilterV3EEEOT1_SB_EUlNS_10shared_ptrINS9_9SettingV3EEEE_NS_9allocatorISM_EEFvSL_EE7__cloneEv
PUBLIC 13311 0 _ZNKSt6__ndk110__function6__funcIZN14MoreObjectInfo15settingListenerITn14TemplateStringXtlS4_ILj18EEtlA18_cLc115ELc104ELc111ELc119ELc45ELc111ELc98ELc106ELc101ELc99ELc116ELc45ELc115ELc99ELc97ELc108ELc101EEEEbZNS2_3getITnS4_XtlS5_tlS6_Lc115ELc104ELc111ELc119ELc45ELc111ELc98ELc106ELc101ELc99ELc116ELc45ELc115ELc99ELc97ELc108ELc101EEEEbEET0_PN5geode3ModEEUlbE_EEPNS9_13EventListenerINS9_22SettingChangedFilterV3EEEOT1_SB_EUlNS_10shared_ptrINS9_9SettingV3EEEE_NS_9allocatorISM_EEFvSL_EE7__cloneEPNS0_6__baseISP_EE
PUBLIC 13325 0 _ZNSt6__ndk110__function6__funcIZN14MoreObjectInfo15settingListenerITn14TemplateStringXtlS4_ILj18EEtlA18_cLc115ELc104ELc111ELc119ELc45ELc111ELc98ELc106ELc101ELc99ELc116ELc45ELc115ELc99ELc97ELc108ELc101EEEEbZNS2_3getITnS4_XtlS5_tlS6_Lc115ELc104ELc111ELc119ELc45ELc111ELc98ELc106ELc101ELc99ELc116ELc45ELc115ELc99ELc97ELc108ELc101EEEEbEET0_PN5geode3ModEEUlbE_EEPNS9_13EventListenerINS9_22SettingChangedFilterV3EEEOT1_SB_EUlNS_10shared_ptrINS9_9SettingV3EEEE_NS_9allocatorISM_EEFvSL_EE7destroyEv
PUBLIC 13327 0 _ZNSt6__ndk110__function6__funcIZN14MoreObjectInfo15settingListenerITn14TemplateStringXtlS4_ILj18EEtlA18_cLc115ELc104ELc111ELc119ELc45ELc111ELc98ELc106ELc101ELc99ELc116ELc45ELc115ELc99ELc97ELc108ELc101EEEEbZNS2_3getITnS4_XtlS5_tlS6_Lc115ELc104ELc111ELc119ELc45ELc111ELc98ELc106ELc101ELc99ELc116ELc45ELc115ELc99ELc97ELc108ELc101EEEEbEET0_PN5geode3ModEEUlbE_EEPNS9_13EventListenerINS9_22SettingChangedFilterV3EEEOT1_SB_EUlNS_10shared_ptrINS9_9SettingV3EEEE_NS_9allocatorISM_EEFvSL_EE18destroy_deallocateEv
PUBLIC 1332d 0 _ZNSt6__ndk110__function6__funcIZN14MoreObjectInfo15settingListenerITn14TemplateStringXtlS4_ILj18EEtlA18_cLc115ELc104ELc111ELc119ELc45ELc111ELc98ELc106ELc101ELc99ELc116ELc45ELc115ELc99ELc97ELc108ELc101EEEEbZNS2_3getITnS4_XtlS5_tlS6_Lc115ELc104ELc111ELc119ELc45ELc111ELc98ELc106ELc101ELc99ELc116ELc45ELc115ELc99ELc97ELc108ELc101EEEEbEET0_PN5geode3ModEEUlbE_EEPNS9_13EventListenerINS9_22SettingChangedFilterV3EEEOT1_SB_EUlNS_10shared_ptrINS9_9SettingV3EEEE_NS_9allocatorISM_EEFvSL_EEclEOSL_
PUBLIC 133c1 0 _ZNKSt6__ndk110__function6__funcIZN14MoreObjectInfo15settingListenerITn14TemplateStringXtlS4_ILj18EEtlA18_cLc115ELc104ELc111ELc119ELc45ELc111ELc98ELc106ELc101ELc99ELc116ELc45ELc115ELc99ELc97ELc108ELc101EEEEbZNS2_3getITnS4_XtlS5_tlS6_Lc115ELc104ELc111ELc119ELc45ELc111ELc98ELc106ELc101ELc99ELc116ELc45ELc115ELc99ELc97ELc108ELc101EEEEbEET0_PN5geode3ModEEUlbE_EEPNS9_13EventListenerINS9_22SettingChangedFilterV3EEEOT1_SB_EUlNS_10shared_ptrINS9_9SettingV3EEEE_NS_9allocatorISM_EEFvSL_EE6targetERKSt9type_info
PUBLIC 133d9 0 _ZNKSt6__ndk110__function6__funcIZN14MoreObjectInfo15settingListenerITn14TemplateStringXtlS4_ILj18EEtlA18_cLc115ELc104ELc111ELc119ELc45ELc111ELc98ELc106ELc101ELc99ELc116ELc45ELc115ELc99ELc97ELc108ELc101EEEEbZNS2_3getITnS4_XtlS5_tlS6_Lc115ELc104ELc111ELc119ELc45ELc111ELc98ELc106ELc101ELc99ELc116ELc45ELc115ELc99ELc97ELc108ELc101EEEEbEET0_PN5geode3ModEEUlbE_EEPNS9_13EventListenerINS9_22SettingChangedFilterV3EEEOT1_SB_EUlNS_10shared_ptrINS9_9SettingV3EEEE_NS_9allocatorISM_EEFvSL_EE11target_typeEv
PUBLIC 133e5 0 _ZN14MoreObjectInfo15settingListenerITn14TemplateStringXtlS1_ILj23EEtlA23_cLc115ELc104ELc111ELc119ELc45ELc111ELc98ELc106ELc101ELc99ELc116ELc45ELc98ELc97ELc115ELc101ELc45ELc99ELc111ELc108ELc111ELc114EEEEbZNS_3getITnS1_XtlS2_tlS3_Lc115ELc104ELc111ELc119ELc45ELc111ELc98ELc106ELc101ELc99ELc116ELc45ELc98ELc97ELc115ELc101ELc45ELc99ELc111ELc108ELc111ELc114EEEEbEET0_PN5geode3ModEEUlbE_EEPNS6_13EventListenerINS6_22SettingChangedFilterV3EEEOT1_S8_
PUBLIC 1352d 0 _ZNSt6__ndk110__function6__funcIZN14MoreObjectInfo15settingListenerITn14TemplateStringXtlS4_ILj23EEtlA23_cLc115ELc104ELc111ELc119ELc45ELc111ELc98ELc106ELc101ELc99ELc116ELc45ELc98ELc97ELc115ELc101ELc45ELc99ELc111ELc108ELc111ELc114EEEEbZNS2_3getITnS4_XtlS5_tlS6_Lc115ELc104ELc111ELc119ELc45ELc111ELc98ELc106ELc101ELc99ELc116ELc45ELc98ELc97ELc115ELc101ELc45ELc99ELc111ELc108ELc111ELc114EEEEbEET0_PN5geode3ModEEUlbE_EEPNS9_13EventListenerINS9_22SettingChangedFilterV3EEEOT1_SB_EUlNS_10shared_ptrINS9_9SettingV3EEEE_NS_9allocatorISM_EEFvSL_EED0Ev
PUBLIC 13531 0 _ZNKSt6__ndk110__function6__funcIZN14MoreObjectInfo15settingListenerITn14TemplateStringXtlS4_ILj23EEtlA23_cLc115ELc104ELc111ELc119ELc45ELc111ELc98ELc106ELc101ELc99ELc116ELc45ELc98ELc97ELc115ELc101ELc45ELc99ELc111ELc108ELc111ELc114EEEEbZNS2_3getITnS4_XtlS5_tlS6_Lc115ELc104ELc111ELc119ELc45ELc111ELc98ELc106ELc101ELc99ELc116ELc45ELc98ELc97ELc115ELc101ELc45ELc99ELc111ELc108ELc111ELc114EEEEbEET0_PN5geode3ModEEUlbE_EEPNS9_13EventListenerINS9_22SettingChangedFilterV3EEEOT1_SB_EUlNS_10shared_ptrINS9_9SettingV3EEEE_NS_9allocatorISM_EEFvSL_EE7__cloneEv
PUBLIC 13551 0 _ZNKSt6__ndk110__function6__funcIZN14MoreObjectInfo15settingListenerITn14TemplateStringXtlS4_ILj23EEtlA23_cLc115ELc104ELc111ELc119ELc45ELc111ELc98ELc106ELc101ELc99ELc116ELc45ELc98ELc97ELc115ELc101ELc45ELc99ELc111ELc108ELc111ELc114EEEEbZNS2_3getITnS4_XtlS5_tlS6_Lc115ELc104ELc111ELc119ELc45ELc111ELc98ELc106ELc101ELc99ELc116ELc45ELc98ELc97ELc115ELc101ELc45ELc99ELc111ELc108ELc111ELc114EEEEbEET0_PN5geode3ModEEUlbE_EEPNS9_13EventListenerINS9_22SettingChangedFilterV3EEEOT1_SB_EUlNS_10shared_ptrINS9_9SettingV3EEEE_NS_9allocatorISM_EEFvSL_EE7__cloneEPNS0_6__baseISP_EE
PUBLIC 13565 0 _ZNSt6__ndk110__function6__funcIZN14MoreObjectInfo15settingListenerITn14TemplateStringXtlS4_ILj23EEtlA23_cLc115ELc104ELc111ELc119ELc45ELc111ELc98ELc106ELc101ELc99ELc116ELc45ELc98ELc97ELc115ELc101ELc45ELc99ELc111ELc108ELc111ELc114EEEEbZNS2_3getITnS4_XtlS5_tlS6_Lc115ELc104ELc111ELc119ELc45ELc111ELc98ELc106ELc101ELc99ELc116ELc45ELc98ELc97ELc115ELc101ELc45ELc99ELc111ELc108ELc111ELc114EEEEbEET0_PN5geode3ModEEUlbE_EEPNS9_13EventListenerINS9_22SettingChangedFilterV3EEEOT1_SB_EUlNS_10shared_ptrINS9_9SettingV3EEEE_NS_9allocatorISM_EEFvSL_EE7destroyEv
PUBLIC 13567 0 _ZNSt6__ndk110__function6__funcIZN14MoreObjectInfo15settingListenerITn14TemplateStringXtlS4_ILj23EEtlA23_cLc115ELc104ELc111ELc119ELc45ELc111ELc98ELc106ELc101ELc99ELc116ELc45ELc98ELc97ELc115ELc101ELc45ELc99ELc111ELc108ELc111ELc114EEEEbZNS2_3getITnS4_XtlS5_tlS6_Lc115ELc104ELc111ELc119ELc45ELc111ELc98ELc106ELc101ELc99ELc116ELc45ELc98ELc97ELc115ELc101ELc45ELc99ELc111ELc108ELc111ELc114EEEEbEET0_PN5geode3ModEEUlbE_EEPNS9_13EventListenerINS9_22SettingChangedFilterV3EEEOT1_SB_EUlNS_10shared_ptrINS9_9SettingV3EEEE_NS_9allocatorISM_EEFvSL_EE18destroy_deallocateEv
PUBLIC 1356d 0 _ZNSt6__ndk110__function6__funcIZN14MoreObjectInfo15settingListenerITn14TemplateStringXtlS4_ILj23EEtlA23_cLc115ELc104ELc111ELc119ELc45ELc111ELc98ELc106ELc101ELc99ELc116ELc45ELc98ELc97ELc115ELc101ELc45ELc99ELc111ELc108ELc111ELc114EEEEbZNS2_3getITnS4_XtlS5_tlS6_Lc115ELc104ELc111ELc119ELc45ELc111ELc98ELc106ELc101ELc99ELc116ELc45ELc98ELc97ELc115ELc101ELc45ELc99ELc111ELc108ELc111ELc114EEEEbEET0_PN5geode3ModEEUlbE_EEPNS9_13EventListenerINS9_22SettingChangedFilterV3EEEOT1_SB_EUlNS_10shared_ptrINS9_9SettingV3EEEE_NS_9allocatorISM_EEFvSL_EEclEOSL_
PUBLIC 13601 0 _ZNKSt6__ndk110__function6__funcIZN14MoreObjectInfo15settingListenerITn14TemplateStringXtlS4_ILj23EEtlA23_cLc115ELc104ELc111ELc119ELc45ELc111ELc98ELc106ELc101ELc99ELc116ELc45ELc98ELc97ELc115ELc101ELc45ELc99ELc111ELc108ELc111ELc114EEEEbZNS2_3getITnS4_XtlS5_tlS6_Lc115ELc104ELc111ELc119ELc45ELc111ELc98ELc106ELc101ELc99ELc116ELc45ELc98ELc97ELc115ELc101ELc45ELc99ELc111ELc108ELc111ELc114EEEEbEET0_PN5geode3ModEEUlbE_EEPNS9_13EventListenerINS9_22SettingChangedFilterV3EEEOT1_SB_EUlNS_10shared_ptrINS9_9SettingV3EEEE_NS_9allocatorISM_EEFvSL_EE6targetERKSt9type_info
PUBLIC 13619 0 _ZNKSt6__ndk110__function6__funcIZN14MoreObjectInfo15settingListenerITn14TemplateStringXtlS4_ILj23EEtlA23_cLc115ELc104ELc111ELc119ELc45ELc111ELc98ELc106ELc101ELc99ELc116ELc45ELc98ELc97ELc115ELc101ELc45ELc99ELc111ELc108ELc111ELc114EEEEbZNS2_3getITnS4_XtlS5_tlS6_Lc115ELc104ELc111ELc119ELc45ELc111ELc98ELc106ELc101ELc99ELc116ELc45ELc98ELc97ELc115ELc101ELc45ELc99ELc111ELc108ELc111ELc114EEEEbEET0_PN5geode3ModEEUlbE_EEPNS9_13EventListenerINS9_22SettingChangedFilterV3EEEOT1_SB_EUlNS_10shared_ptrINS9_9SettingV3EEEE_NS_9allocatorISM_EEFvSL_EE11target_typeEv
PUBLIC 13625 0 _ZN14MoreObjectInfo15settingListenerITn14TemplateStringXtlS1_ILj25EEtlA25_cLc115ELc104ELc111ELc119ELc45ELc111ELc98ELc106ELc101ELc99ELc116ELc45ELc100ELc101ELc116ELc97ELc105ELc108ELc45ELc99ELc111ELc108ELc111ELc114EEEEbZNS_3getITnS1_XtlS2_tlS3_Lc115ELc104ELc111ELc119ELc45ELc111ELc98ELc106ELc101ELc99ELc116ELc45ELc100ELc101ELc116ELc97ELc105ELc108ELc45ELc99ELc111ELc108ELc111ELc114EEEEbEET0_PN5geode3ModEEUlbE_EEPNS6_13EventListenerINS6_22SettingChangedFilterV3EEEOT1_S8_
PUBLIC 13769 0 _ZNSt6__ndk110__function6__funcIZN14MoreObjectInfo15settingListenerITn14TemplateStringXtlS4_ILj25EEtlA25_cLc115ELc104ELc111ELc119ELc45ELc111ELc98ELc106ELc101ELc99ELc116ELc45ELc100ELc101ELc116ELc97ELc105ELc108ELc45ELc99ELc111ELc108ELc111ELc114EEEEbZNS2_3getITnS4_XtlS5_tlS6_Lc115ELc104ELc111ELc119ELc45ELc111ELc98ELc106ELc101ELc99ELc116ELc45ELc100ELc101ELc116ELc97ELc105ELc108ELc45ELc99ELc111ELc108ELc111ELc114EEEEbEET0_PN5geode3ModEEUlbE_EEPNS9_13EventListenerINS9_22SettingChangedFilterV3EEEOT1_SB_EUlNS_10shared_ptrINS9_9SettingV3EEEE_NS_9allocatorISM_EEFvSL_EED0Ev
PUBLIC 1376d 0 _ZNKSt6__ndk110__function6__funcIZN14MoreObjectInfo15settingListenerITn14TemplateStringXtlS4_ILj25EEtlA25_cLc115ELc104ELc111ELc119ELc45ELc111ELc98ELc106ELc101ELc99ELc116ELc45ELc100ELc101ELc116ELc97ELc105ELc108ELc45ELc99ELc111ELc108ELc111ELc114EEEEbZNS2_3getITnS4_XtlS5_tlS6_Lc115ELc104ELc111ELc119ELc45ELc111ELc98ELc106ELc101ELc99ELc116ELc45ELc100ELc101ELc116ELc97ELc105ELc108ELc45ELc99ELc111ELc108ELc111ELc114EEEEbEET0_PN5geode3ModEEUlbE_EEPNS9_13EventListenerINS9_22SettingChangedFilterV3EEEOT1_SB_EUlNS_10shared_ptrINS9_9SettingV3EEEE_NS_9allocatorISM_EEFvSL_EE7__cloneEv
PUBLIC 1378d 0 _ZNKSt6__ndk110__function6__funcIZN14MoreObjectInfo15settingListenerITn14TemplateStringXtlS4_ILj25EEtlA25_cLc115ELc104ELc111ELc119ELc45ELc111ELc98ELc106ELc101ELc99ELc116ELc45ELc100ELc101ELc116ELc97ELc105ELc108ELc45ELc99ELc111ELc108ELc111ELc114EEEEbZNS2_3getITnS4_XtlS5_tlS6_Lc115ELc104ELc111ELc119ELc45ELc111ELc98ELc106ELc101ELc99ELc116ELc45ELc100ELc101ELc116ELc97ELc105ELc108ELc45ELc99ELc111ELc108ELc111ELc114EEEEbEET0_PN5geode3ModEEUlbE_EEPNS9_13EventListenerINS9_22SettingChangedFilterV3EEEOT1_SB_EUlNS_10shared_ptrINS9_9SettingV3EEEE_NS_9allocatorISM_EEFvSL_EE7__cloneEPNS0_6__baseISP_EE
PUBLIC 137a1 0 _ZNSt6__ndk110__function6__funcIZN14MoreObjectInfo15settingListenerITn14TemplateStringXtlS4_ILj25EEtlA25_cLc115ELc104ELc111ELc119ELc45ELc111ELc98ELc106ELc101ELc99ELc116ELc45ELc100ELc101ELc116ELc97ELc105ELc108ELc45ELc99ELc111ELc108ELc111ELc114EEEEbZNS2_3getITnS4_XtlS5_tlS6_Lc115ELc104ELc111ELc119ELc45ELc111ELc98ELc106ELc101ELc99ELc116ELc45ELc100ELc101ELc116ELc97ELc105ELc108ELc45ELc99ELc111ELc108ELc111ELc114EEEEbEET0_PN5geode3ModEEUlbE_EEPNS9_13EventListenerINS9_22SettingChangedFilterV3EEEOT1_SB_EUlNS_10shared_ptrINS9_9SettingV3EEEE_NS_9allocatorISM_EEFvSL_EE7destroyEv
PUBLIC 137a3 0 _ZNSt6__ndk110__function6__funcIZN14MoreObjectInfo15settingListenerITn14TemplateStringXtlS4_ILj25EEtlA25_cLc115ELc104ELc111ELc119ELc45ELc111ELc98ELc106ELc101ELc99ELc116ELc45ELc100ELc101ELc116ELc97ELc105ELc108ELc45ELc99ELc111ELc108ELc111ELc114EEEEbZNS2_3getITnS4_XtlS5_tlS6_Lc115ELc104ELc111ELc119ELc45ELc111ELc98ELc106ELc101ELc99ELc116ELc45ELc100ELc101ELc116ELc97ELc105ELc108ELc45ELc99ELc111ELc108ELc111ELc114EEEEbEET0_PN5geode3ModEEUlbE_EEPNS9_13EventListenerINS9_22SettingChangedFilterV3EEEOT1_SB_EUlNS_10shared_ptrINS9_9SettingV3EEEE_NS_9allocatorISM_EEFvSL_EE18destroy_deallocateEv
PUBLIC 137a9 0 _ZNSt6__ndk110__function6__funcIZN14MoreObjectInfo15settingListenerITn14TemplateStringXtlS4_ILj25EEtlA25_cLc115ELc104ELc111ELc119ELc45ELc111ELc98ELc106ELc101ELc99ELc116ELc45ELc100ELc101ELc116ELc97ELc105ELc108ELc45ELc99ELc111ELc108ELc111ELc114EEEEbZNS2_3getITnS4_XtlS5_tlS6_Lc115ELc104ELc111ELc119ELc45ELc111ELc98ELc106ELc101ELc99ELc116ELc45ELc100ELc101ELc116ELc97ELc105ELc108ELc45ELc99ELc111ELc108ELc111ELc114EEEEbEET0_PN5geode3ModEEUlbE_EEPNS9_13EventListenerINS9_22SettingChangedFilterV3EEEOT1_SB_EUlNS_10shared_ptrINS9_9SettingV3EEEE_NS_9allocatorISM_EEFvSL_EEclEOSL_
PUBLIC 1383d 0 _ZNKSt6__ndk110__function6__funcIZN14MoreObjectInfo15settingListenerITn14TemplateStringXtlS4_ILj25EEtlA25_cLc115ELc104ELc111ELc119ELc45ELc111ELc98ELc106ELc101ELc99ELc116ELc45ELc100ELc101ELc116ELc97ELc105ELc108ELc45ELc99ELc111ELc108ELc111ELc114EEEEbZNS2_3getITnS4_XtlS5_tlS6_Lc115ELc104ELc111ELc119ELc45ELc111ELc98ELc106ELc101ELc99ELc116ELc45ELc100ELc101ELc116ELc97ELc105ELc108ELc45ELc99ELc111ELc108ELc111ELc114EEEEbEET0_PN5geode3ModEEUlbE_EEPNS9_13EventListenerINS9_22SettingChangedFilterV3EEEOT1_SB_EUlNS_10shared_ptrINS9_9SettingV3EEEE_NS_9allocatorISM_EEFvSL_EE6targetERKSt9type_info
PUBLIC 13855 0 _ZNKSt6__ndk110__function6__funcIZN14MoreObjectInfo15settingListenerITn14TemplateStringXtlS4_ILj25EEtlA25_cLc115ELc104ELc111ELc119ELc45ELc111ELc98ELc106ELc101ELc99ELc116ELc45ELc100ELc101ELc116ELc97ELc105ELc108ELc45ELc99ELc111ELc108ELc111ELc114EEEEbZNS2_3getITnS4_XtlS5_tlS6_Lc115ELc104ELc111ELc119ELc45ELc111ELc98ELc106ELc101ELc99ELc116ELc45ELc100ELc101ELc116ELc97ELc105ELc108ELc45ELc99ELc111ELc108ELc111ELc114EEEEbEET0_PN5geode3ModEEUlbE_EEPNS9_13EventListenerINS9_22SettingChangedFilterV3EEEOT1_SB_EUlNS_10shared_ptrINS9_9SettingV3EEEE_NS_9allocatorISM_EEFvSL_EE11target_typeEv
PUBLIC 13861 0 _ZN14MoreObjectInfo15settingListenerITn14TemplateStringXtlS1_ILj17EEtlA17_cLc115ELc104ELc111ELc119ELc45ELc111ELc98ELc106ELc101ELc99ELc116ELc45ELc116ELc121ELc112ELc101EEEEbZNS_3getITnS1_XtlS2_tlS3_Lc115ELc104ELc111ELc119ELc45ELc111ELc98ELc106ELc101ELc99ELc116ELc45ELc116ELc121ELc112ELc101EEEEbEET0_PN5geode3ModEEUlbE_EEPNS6_13EventListenerINS6_22SettingChangedFilterV3EEEOT1_S8_
PUBLIC 1399d 0 _ZNSt6__ndk110__function6__funcIZN14MoreObjectInfo15settingListenerITn14TemplateStringXtlS4_ILj17EEtlA17_cLc115ELc104ELc111ELc119ELc45ELc111ELc98ELc106ELc101ELc99ELc116ELc45ELc116ELc121ELc112ELc101EEEEbZNS2_3getITnS4_XtlS5_tlS6_Lc115ELc104ELc111ELc119ELc45ELc111ELc98ELc106ELc101ELc99ELc116ELc45ELc116ELc121ELc112ELc101EEEEbEET0_PN5geode3ModEEUlbE_EEPNS9_13EventListenerINS9_22SettingChangedFilterV3EEEOT1_SB_EUlNS_10shared_ptrINS9_9SettingV3EEEE_NS_9allocatorISM_EEFvSL_EED0Ev
PUBLIC 139a1 0 _ZNKSt6__ndk110__function6__funcIZN14MoreObjectInfo15settingListenerITn14TemplateStringXtlS4_ILj17EEtlA17_cLc115ELc104ELc111ELc119ELc45ELc111ELc98ELc106ELc101ELc99ELc116ELc45ELc116ELc121ELc112ELc101EEEEbZNS2_3getITnS4_XtlS5_tlS6_Lc115ELc104ELc111ELc119ELc45ELc111ELc98ELc106ELc101ELc99ELc116ELc45ELc116ELc121ELc112ELc101EEEEbEET0_PN5geode3ModEEUlbE_EEPNS9_13EventListenerINS9_22SettingChangedFilterV3EEEOT1_SB_EUlNS_10shared_ptrINS9_9SettingV3EEEE_NS_9allocatorISM_EEFvSL_EE7__cloneEv
PUBLIC 139c1 0 _ZNKSt6__ndk110__function6__funcIZN14MoreObjectInfo15settingListenerITn14TemplateStringXtlS4_ILj17EEtlA17_cLc115ELc104ELc111ELc119ELc45ELc111ELc98ELc106ELc101ELc99ELc116ELc45ELc116ELc121ELc112ELc101EEEEbZNS2_3getITnS4_XtlS5_tlS6_Lc115ELc104ELc111ELc119ELc45ELc111ELc98ELc106ELc101ELc99ELc116ELc45ELc116ELc121ELc112ELc101EEEEbEET0_PN5geode3ModEEUlbE_EEPNS9_13EventListenerINS9_22SettingChangedFilterV3EEEOT1_SB_EUlNS_10shared_ptrINS9_9SettingV3EEEE_NS_9allocatorISM_EEFvSL_EE7__cloneEPNS0_6__baseISP_EE
PUBLIC 139d5 0 _ZNSt6__ndk110__function6__funcIZN14MoreObjectInfo15settingListenerITn14TemplateStringXtlS4_ILj17EEtlA17_cLc115ELc104ELc111ELc119ELc45ELc111ELc98ELc106ELc101ELc99ELc116ELc45ELc116ELc121ELc112ELc101EEEEbZNS2_3getITnS4_XtlS5_tlS6_Lc115ELc104ELc111ELc119ELc45ELc111ELc98ELc106ELc101ELc99ELc116ELc45ELc116ELc121ELc112ELc101EEEEbEET0_PN5geode3ModEEUlbE_EEPNS9_13EventListenerINS9_22SettingChangedFilterV3EEEOT1_SB_EUlNS_10shared_ptrINS9_9SettingV3EEEE_NS_9allocatorISM_EEFvSL_EE7destroyEv
PUBLIC 139d7 0 _ZNSt6__ndk110__function6__funcIZN14MoreObjectInfo15settingListenerITn14TemplateStringXtlS4_ILj17EEtlA17_cLc115ELc104ELc111ELc119ELc45ELc111ELc98ELc106ELc101ELc99ELc116ELc45ELc116ELc121ELc112ELc101EEEEbZNS2_3getITnS4_XtlS5_tlS6_Lc115ELc104ELc111ELc119ELc45ELc111ELc98ELc106ELc101ELc99ELc116ELc45ELc116ELc121ELc112ELc101EEEEbEET0_PN5geode3ModEEUlbE_EEPNS9_13EventListenerINS9_22SettingChangedFilterV3EEEOT1_SB_EUlNS_10shared_ptrINS9_9SettingV3EEEE_NS_9allocatorISM_EEFvSL_EE18destroy_deallocateEv
PUBLIC 139dd 0 _ZNSt6__ndk110__function6__funcIZN14MoreObjectInfo15settingListenerITn14TemplateStringXtlS4_ILj17EEtlA17_cLc115ELc104ELc111ELc119ELc45ELc111ELc98ELc106ELc101ELc99ELc116ELc45ELc116ELc121ELc112ELc101EEEEbZNS2_3getITnS4_XtlS5_tlS6_Lc115ELc104ELc111ELc119ELc45ELc111ELc98ELc106ELc101ELc99ELc116ELc45ELc116ELc121ELc112ELc101EEEEbEET0_PN5geode3ModEEUlbE_EEPNS9_13EventListenerINS9_22SettingChangedFilterV3EEEOT1_SB_EUlNS_10shared_ptrINS9_9SettingV3EEEE_NS_9allocatorISM_EEFvSL_EEclEOSL_
PUBLIC 13a71 0 _ZNKSt6__ndk110__function6__funcIZN14MoreObjectInfo15settingListenerITn14TemplateStringXtlS4_ILj17EEtlA17_cLc115ELc104ELc111ELc119ELc45ELc111ELc98ELc106ELc101ELc99ELc116ELc45ELc116ELc121ELc112ELc101EEEEbZNS2_3getITnS4_XtlS5_tlS6_Lc115ELc104ELc111ELc119ELc45ELc111ELc98ELc106ELc101ELc99ELc116ELc45ELc116ELc121ELc112ELc101EEEEbEET0_PN5geode3ModEEUlbE_EEPNS9_13EventListenerINS9_22SettingChangedFilterV3EEEOT1_SB_EUlNS_10shared_ptrINS9_9SettingV3EEEE_NS_9allocatorISM_EEFvSL_EE6targetERKSt9type_info
PUBLIC 13a89 0 _ZNKSt6__ndk110__function6__funcIZN14MoreObjectInfo15settingListenerITn14TemplateStringXtlS4_ILj17EEtlA17_cLc115ELc104ELc111ELc119ELc45ELc111ELc98ELc106ELc101ELc99ELc116ELc45ELc116ELc121ELc112ELc101EEEEbZNS2_3getITnS4_XtlS5_tlS6_Lc115ELc104ELc111ELc119ELc45ELc111ELc98ELc106ELc101ELc99ELc116ELc45ELc116ELc121ELc112ELc101EEEEbEET0_PN5geode3ModEEUlbE_EEPNS9_13EventListenerINS9_22SettingChangedFilterV3EEEOT1_SB_EUlNS_10shared_ptrINS9_9SettingV3EEEE_NS_9allocatorISM_EEFvSL_EE11target_typeEv
PUBLIC 13a95 0 _ZN14MoreObjectInfo15settingListenerITn14TemplateStringXtlS1_ILj20EEtlA20_cLc115ELc104ELc111ELc119ELc45ELc111ELc98ELc106ELc101ELc99ELc116ELc45ELc97ELc100ELc100ELc114ELc101ELc115ELc115EEEEbZNS_3getITnS1_XtlS2_tlS3_Lc115ELc104ELc111ELc119ELc45ELc111ELc98ELc106ELc101ELc99ELc116ELc45ELc97ELc100ELc100ELc114ELc101ELc115ELc115EEEEbEET0_PN5geode3ModEEUlbE_EEPNS6_13EventListenerINS6_22SettingChangedFilterV3EEEOT1_S8_
PUBLIC 13bdd 0 _ZNSt6__ndk110__function6__funcIZN14MoreObjectInfo15settingListenerITn14TemplateStringXtlS4_ILj20EEtlA20_cLc115ELc104ELc111ELc119ELc45ELc111ELc98ELc106ELc101ELc99ELc116ELc45ELc97ELc100ELc100ELc114ELc101ELc115ELc115EEEEbZNS2_3getITnS4_XtlS5_tlS6_Lc115ELc104ELc111ELc119ELc45ELc111ELc98ELc106ELc101ELc99ELc116ELc45ELc97ELc100ELc100ELc114ELc101ELc115ELc115EEEEbEET0_PN5geode3ModEEUlbE_EEPNS9_13EventListenerINS9_22SettingChangedFilterV3EEEOT1_SB_EUlNS_10shared_ptrINS9_9SettingV3EEEE_NS_9allocatorISM_EEFvSL_EED0Ev
PUBLIC 13be1 0 _ZNKSt6__ndk110__function6__funcIZN14MoreObjectInfo15settingListenerITn14TemplateStringXtlS4_ILj20EEtlA20_cLc115ELc104ELc111ELc119ELc45ELc111ELc98ELc106ELc101ELc99ELc116ELc45ELc97ELc100ELc100ELc114ELc101ELc115ELc115EEEEbZNS2_3getITnS4_XtlS5_tlS6_Lc115ELc104ELc111ELc119ELc45ELc111ELc98ELc106ELc101ELc99ELc116ELc45ELc97ELc100ELc100ELc114ELc101ELc115ELc115EEEEbEET0_PN5geode3ModEEUlbE_EEPNS9_13EventListenerINS9_22SettingChangedFilterV3EEEOT1_SB_EUlNS_10shared_ptrINS9_9SettingV3EEEE_NS_9allocatorISM_EEFvSL_EE7__cloneEv
PUBLIC 13c01 0 _ZNKSt6__ndk110__function6__funcIZN14MoreObjectInfo15settingListenerITn14TemplateStringXtlS4_ILj20EEtlA20_cLc115ELc104ELc111ELc119ELc45ELc111ELc98ELc106ELc101ELc99ELc116ELc45ELc97ELc100ELc100ELc114ELc101ELc115ELc115EEEEbZNS2_3getITnS4_XtlS5_tlS6_Lc115ELc104ELc111ELc119ELc45ELc111ELc98ELc106ELc101ELc99ELc116ELc45ELc97ELc100ELc100ELc114ELc101ELc115ELc115EEEEbEET0_PN5geode3ModEEUlbE_EEPNS9_13EventListenerINS9_22SettingChangedFilterV3EEEOT1_SB_EUlNS_10shared_ptrINS9_9SettingV3EEEE_NS_9allocatorISM_EEFvSL_EE7__cloneEPNS0_6__baseISP_EE
PUBLIC 13c15 0 _ZNSt6__ndk110__function6__funcIZN14MoreObjectInfo15settingListenerITn14TemplateStringXtlS4_ILj20EEtlA20_cLc115ELc104ELc111ELc119ELc45ELc111ELc98ELc106ELc101ELc99ELc116ELc45ELc97ELc100ELc100ELc114ELc101ELc115ELc115EEEEbZNS2_3getITnS4_XtlS5_tlS6_Lc115ELc104ELc111ELc119ELc45ELc111ELc98ELc106ELc101ELc99ELc116ELc45ELc97ELc100ELc100ELc114ELc101ELc115ELc115EEEEbEET0_PN5geode3ModEEUlbE_EEPNS9_13EventListenerINS9_22SettingChangedFilterV3EEEOT1_SB_EUlNS_10shared_ptrINS9_9SettingV3EEEE_NS_9allocatorISM_EEFvSL_EE7destroyEv
PUBLIC 13c17 0 _ZNSt6__ndk110__function6__funcIZN14MoreObjectInfo15settingListenerITn14TemplateStringXtlS4_ILj20EEtlA20_cLc115ELc104ELc111ELc119ELc45ELc111ELc98ELc106ELc101ELc99ELc116ELc45ELc97ELc100ELc100ELc114ELc101ELc115ELc115EEEEbZNS2_3getITnS4_XtlS5_tlS6_Lc115ELc104ELc111ELc119ELc45ELc111ELc98ELc106ELc101ELc99ELc116ELc45ELc97ELc100ELc100ELc114ELc101ELc115ELc115EEEEbEET0_PN5geode3ModEEUlbE_EEPNS9_13EventListenerINS9_22SettingChangedFilterV3EEEOT1_SB_EUlNS_10shared_ptrINS9_9SettingV3EEEE_NS_9allocatorISM_EEFvSL_EE18destroy_deallocateEv
PUBLIC 13c1d 0 _ZNSt6__ndk110__function6__funcIZN14MoreObjectInfo15settingListenerITn14TemplateStringXtlS4_ILj20EEtlA20_cLc115ELc104ELc111ELc119ELc45ELc111ELc98ELc106ELc101ELc99ELc116ELc45ELc97ELc100ELc100ELc114ELc101ELc115ELc115EEEEbZNS2_3getITnS4_XtlS5_tlS6_Lc115ELc104ELc111ELc119ELc45ELc111ELc98ELc106ELc101ELc99ELc116ELc45ELc97ELc100ELc100ELc114ELc101ELc115ELc115EEEEbEET0_PN5geode3ModEEUlbE_EEPNS9_13EventListenerINS9_22SettingChangedFilterV3EEEOT1_SB_EUlNS_10shared_ptrINS9_9SettingV3EEEE_NS_9allocatorISM_EEFvSL_EEclEOSL_
PUBLIC 13cb1 0 _ZNKSt6__ndk110__function6__funcIZN14MoreObjectInfo15settingListenerITn14TemplateStringXtlS4_ILj20EEtlA20_cLc115ELc104ELc111ELc119ELc45ELc111ELc98ELc106ELc101ELc99ELc116ELc45ELc97ELc100ELc100ELc114ELc101ELc115ELc115EEEEbZNS2_3getITnS4_XtlS5_tlS6_Lc115ELc104ELc111ELc119ELc45ELc111ELc98ELc106ELc101ELc99ELc116ELc45ELc97ELc100ELc100ELc114ELc101ELc115ELc115EEEEbEET0_PN5geode3ModEEUlbE_EEPNS9_13EventListenerINS9_22SettingChangedFilterV3EEEOT1_SB_EUlNS_10shared_ptrINS9_9SettingV3EEEE_NS_9allocatorISM_EEFvSL_EE6targetERKSt9type_info
PUBLIC 13cc9 0 _ZNKSt6__ndk110__function6__funcIZN14MoreObjectInfo15settingListenerITn14TemplateStringXtlS4_ILj20EEtlA20_cLc115ELc104ELc111ELc119ELc45ELc111ELc98ELc106ELc101ELc99ELc116ELc45ELc97ELc100ELc100ELc114ELc101ELc115ELc115EEEEbZNS2_3getITnS4_XtlS5_tlS6_Lc115ELc104ELc111ELc119ELc45ELc111ELc98ELc106ELc101ELc99ELc116ELc45ELc97ELc100ELc100ELc114ELc101ELc115ELc115EEEEbEET0_PN5geode3ModEEUlbE_EEPNS9_13EventListenerINS9_22SettingChangedFilterV3EEEOT1_SB_EUlNS_10shared_ptrINS9_9SettingV3EEEE_NS_9allocatorISM_EEFvSL_EE11target_typeEv
PUBLIC 13cd5 0 _ZN14MoreObjectInfo15settingListenerITn14TemplateStringXtlS1_ILj17EEtlA17_cLc115ELc104ELc111ELc119ELc45ELc111ELc98ELc106ELc101ELc99ELc116ELc45ELc100ELc97ELc116ELc97EEEEbZNS_3getITnS1_XtlS2_tlS3_Lc115ELc104ELc111ELc119ELc45ELc111ELc98ELc106ELc101ELc99ELc116ELc45ELc100ELc97ELc116ELc97EEEEbEET0_PN5geode3ModEEUlbE_EEPNS6_13EventListenerINS6_22SettingChangedFilterV3EEEOT1_S8_
PUBLIC 13e11 0 _ZNSt6__ndk110__function6__funcIZN14MoreObjectInfo15settingListenerITn14TemplateStringXtlS4_ILj17EEtlA17_cLc115ELc104ELc111ELc119ELc45ELc111ELc98ELc106ELc101ELc99ELc116ELc45ELc100ELc97ELc116ELc97EEEEbZNS2_3getITnS4_XtlS5_tlS6_Lc115ELc104ELc111ELc119ELc45ELc111ELc98ELc106ELc101ELc99ELc116ELc45ELc100ELc97ELc116ELc97EEEEbEET0_PN5geode3ModEEUlbE_EEPNS9_13EventListenerINS9_22SettingChangedFilterV3EEEOT1_SB_EUlNS_10shared_ptrINS9_9SettingV3EEEE_NS_9allocatorISM_EEFvSL_EED0Ev
PUBLIC 13e15 0 _ZNKSt6__ndk110__function6__funcIZN14MoreObjectInfo15settingListenerITn14TemplateStringXtlS4_ILj17EEtlA17_cLc115ELc104ELc111ELc119ELc45ELc111ELc98ELc106ELc101ELc99ELc116ELc45ELc100ELc97ELc116ELc97EEEEbZNS2_3getITnS4_XtlS5_tlS6_Lc115ELc104ELc111ELc119ELc45ELc111ELc98ELc106ELc101ELc99ELc116ELc45ELc100ELc97ELc116ELc97EEEEbEET0_PN5geode3ModEEUlbE_EEPNS9_13EventListenerINS9_22SettingChangedFilterV3EEEOT1_SB_EUlNS_10shared_ptrINS9_9SettingV3EEEE_NS_9allocatorISM_EEFvSL_EE7__cloneEv
PUBLIC 13e35 0 _ZNKSt6__ndk110__function6__funcIZN14MoreObjectInfo15settingListenerITn14TemplateStringXtlS4_ILj17EEtlA17_cLc115ELc104ELc111ELc119ELc45ELc111ELc98ELc106ELc101ELc99ELc116ELc45ELc100ELc97ELc116ELc97EEEEbZNS2_3getITnS4_XtlS5_tlS6_Lc115ELc104ELc111ELc119ELc45ELc111ELc98ELc106ELc101ELc99ELc116ELc45ELc100ELc97ELc116ELc97EEEEbEET0_PN5geode3ModEEUlbE_EEPNS9_13EventListenerINS9_22SettingChangedFilterV3EEEOT1_SB_EUlNS_10shared_ptrINS9_9SettingV3EEEE_NS_9allocatorISM_EEFvSL_EE7__cloneEPNS0_6__baseISP_EE
PUBLIC 13e49 0 _ZNSt6__ndk110__function6__funcIZN14MoreObjectInfo15settingListenerITn14TemplateStringXtlS4_ILj17EEtlA17_cLc115ELc104ELc111ELc119ELc45ELc111ELc98ELc106ELc101ELc99ELc116ELc45ELc100ELc97ELc116ELc97EEEEbZNS2_3getITnS4_XtlS5_tlS6_Lc115ELc104ELc111ELc119ELc45ELc111ELc98ELc106ELc101ELc99ELc116ELc45ELc100ELc97ELc116ELc97EEEEbEET0_PN5geode3ModEEUlbE_EEPNS9_13EventListenerINS9_22SettingChangedFilterV3EEEOT1_SB_EUlNS_10shared_ptrINS9_9SettingV3EEEE_NS_9allocatorISM_EEFvSL_EE7destroyEv
PUBLIC 13e4b 0 _ZNSt6__ndk110__function6__funcIZN14MoreObjectInfo15settingListenerITn14TemplateStringXtlS4_ILj17EEtlA17_cLc115ELc104ELc111ELc119ELc45ELc111ELc98ELc106ELc101ELc99ELc116ELc45ELc100ELc97ELc116ELc97EEEEbZNS2_3getITnS4_XtlS5_tlS6_Lc115ELc104ELc111ELc119ELc45ELc111ELc98ELc106ELc101ELc99ELc116ELc45ELc100ELc97ELc116ELc97EEEEbEET0_PN5geode3ModEEUlbE_EEPNS9_13EventListenerINS9_22SettingChangedFilterV3EEEOT1_SB_EUlNS_10shared_ptrINS9_9SettingV3EEEE_NS_9allocatorISM_EEFvSL_EE18destroy_deallocateEv
PUBLIC 13e51 0 _ZNSt6__ndk110__function6__funcIZN14MoreObjectInfo15settingListenerITn14TemplateStringXtlS4_ILj17EEtlA17_cLc115ELc104ELc111ELc119ELc45ELc111ELc98ELc106ELc101ELc99ELc116ELc45ELc100ELc97ELc116ELc97EEEEbZNS2_3getITnS4_XtlS5_tlS6_Lc115ELc104ELc111ELc119ELc45ELc111ELc98ELc106ELc101ELc99ELc116ELc45ELc100ELc97ELc116ELc97EEEEbEET0_PN5geode3ModEEUlbE_EEPNS9_13EventListenerINS9_22SettingChangedFilterV3EEEOT1_SB_EUlNS_10shared_ptrINS9_9SettingV3EEEE_NS_9allocatorISM_EEFvSL_EEclEOSL_
PUBLIC 13ee5 0 _ZNKSt6__ndk110__function6__funcIZN14MoreObjectInfo15settingListenerITn14TemplateStringXtlS4_ILj17EEtlA17_cLc115ELc104ELc111ELc119ELc45ELc111ELc98ELc106ELc101ELc99ELc116ELc45ELc100ELc97ELc116ELc97EEEEbZNS2_3getITnS4_XtlS5_tlS6_Lc115ELc104ELc111ELc119ELc45ELc111ELc98ELc106ELc101ELc99ELc116ELc45ELc100ELc97ELc116ELc97EEEEbEET0_PN5geode3ModEEUlbE_EEPNS9_13EventListenerINS9_22SettingChangedFilterV3EEEOT1_SB_EUlNS_10shared_ptrINS9_9SettingV3EEEE_NS_9allocatorISM_EEFvSL_EE6targetERKSt9type_info
PUBLIC 13efd 0 _ZNKSt6__ndk110__function6__funcIZN14MoreObjectInfo15settingListenerITn14TemplateStringXtlS4_ILj17EEtlA17_cLc115ELc104ELc111ELc119ELc45ELc111ELc98ELc106ELc101ELc99ELc116ELc45ELc100ELc97ELc116ELc97EEEEbZNS2_3getITnS4_XtlS5_tlS6_Lc115ELc104ELc111ELc119ELc45ELc111ELc98ELc106ELc101ELc99ELc116ELc45ELc100ELc97ELc116ELc97EEEEbEET0_PN5geode3ModEEUlbE_EEPNS9_13EventListenerINS9_22SettingChangedFilterV3EEEOT1_SB_EUlNS_10shared_ptrINS9_9SettingV3EEEE_NS_9allocatorISM_EEFvSL_EE11target_typeEv
PUBLIC 13f09 0 _ZN14MoreObjectInfo15settingListenerITn14TemplateStringXtlS1_ILj20EEtlA20_cLc100ELc121ELc110ELc97ELc109ELc105ELc99ELc45ELc111ELc98ELc106ELc101ELc99ELc116ELc45ELc105ELc110ELc102ELc111EEEEbZNS_3getITnS1_XtlS2_tlS3_Lc100ELc121ELc110ELc97ELc109ELc105ELc99ELc45ELc111ELc98ELc106ELc101ELc99ELc116ELc45ELc105ELc110ELc102ELc111EEEEbEET0_PN5geode3ModEEUlbE_EEPNS6_13EventListenerINS6_22SettingChangedFilterV3EEEOT1_S8_
PUBLIC 1404d 0 _ZNSt6__ndk110__function6__funcIZN14MoreObjectInfo15settingListenerITn14TemplateStringXtlS4_ILj20EEtlA20_cLc100ELc121ELc110ELc97ELc109ELc105ELc99ELc45ELc111ELc98ELc106ELc101ELc99ELc116ELc45ELc105ELc110ELc102ELc111EEEEbZNS2_3getITnS4_XtlS5_tlS6_Lc100ELc121ELc110ELc97ELc109ELc105ELc99ELc45ELc111ELc98ELc106ELc101ELc99ELc116ELc45ELc105ELc110ELc102ELc111EEEEbEET0_PN5geode3ModEEUlbE_EEPNS9_13EventListenerINS9_22SettingChangedFilterV3EEEOT1_SB_EUlNS_10shared_ptrINS9_9SettingV3EEEE_NS_9allocatorISM_EEFvSL_EED0Ev
PUBLIC 14051 0 _ZNKSt6__ndk110__function6__funcIZN14MoreObjectInfo15settingListenerITn14TemplateStringXtlS4_ILj20EEtlA20_cLc100ELc121ELc110ELc97ELc109ELc105ELc99ELc45ELc111ELc98ELc106ELc101ELc99ELc116ELc45ELc105ELc110ELc102ELc111EEEEbZNS2_3getITnS4_XtlS5_tlS6_Lc100ELc121ELc110ELc97ELc109ELc105ELc99ELc45ELc111ELc98ELc106ELc101ELc99ELc116ELc45ELc105ELc110ELc102ELc111EEEEbEET0_PN5geode3ModEEUlbE_EEPNS9_13EventListenerINS9_22SettingChangedFilterV3EEEOT1_SB_EUlNS_10shared_ptrINS9_9SettingV3EEEE_NS_9allocatorISM_EEFvSL_EE7__cloneEv
PUBLIC 14071 0 _ZNKSt6__ndk110__function6__funcIZN14MoreObjectInfo15settingListenerITn14TemplateStringXtlS4_ILj20EEtlA20_cLc100ELc121ELc110ELc97ELc109ELc105ELc99ELc45ELc111ELc98ELc106ELc101ELc99ELc116ELc45ELc105ELc110ELc102ELc111EEEEbZNS2_3getITnS4_XtlS5_tlS6_Lc100ELc121ELc110ELc97ELc109ELc105ELc99ELc45ELc111ELc98ELc106ELc101ELc99ELc116ELc45ELc105ELc110ELc102ELc111EEEEbEET0_PN5geode3ModEEUlbE_EEPNS9_13EventListenerINS9_22SettingChangedFilterV3EEEOT1_SB_EUlNS_10shared_ptrINS9_9SettingV3EEEE_NS_9allocatorISM_EEFvSL_EE7__cloneEPNS0_6__baseISP_EE
PUBLIC 14085 0 _ZNSt6__ndk110__function6__funcIZN14MoreObjectInfo15settingListenerITn14TemplateStringXtlS4_ILj20EEtlA20_cLc100ELc121ELc110ELc97ELc109ELc105ELc99ELc45ELc111ELc98ELc106ELc101ELc99ELc116ELc45ELc105ELc110ELc102ELc111EEEEbZNS2_3getITnS4_XtlS5_tlS6_Lc100ELc121ELc110ELc97ELc109ELc105ELc99ELc45ELc111ELc98ELc106ELc101ELc99ELc116ELc45ELc105ELc110ELc102ELc111EEEEbEET0_PN5geode3ModEEUlbE_EEPNS9_13EventListenerINS9_22SettingChangedFilterV3EEEOT1_SB_EUlNS_10shared_ptrINS9_9SettingV3EEEE_NS_9allocatorISM_EEFvSL_EE7destroyEv
PUBLIC 14087 0 _ZNSt6__ndk110__function6__funcIZN14MoreObjectInfo15settingListenerITn14TemplateStringXtlS4_ILj20EEtlA20_cLc100ELc121ELc110ELc97ELc109ELc105ELc99ELc45ELc111ELc98ELc106ELc101ELc99ELc116ELc45ELc105ELc110ELc102ELc111EEEEbZNS2_3getITnS4_XtlS5_tlS6_Lc100ELc121ELc110ELc97ELc109ELc105ELc99ELc45ELc111ELc98ELc106ELc101ELc99ELc116ELc45ELc105ELc110ELc102ELc111EEEEbEET0_PN5geode3ModEEUlbE_EEPNS9_13EventListenerINS9_22SettingChangedFilterV3EEEOT1_SB_EUlNS_10shared_ptrINS9_9SettingV3EEEE_NS_9allocatorISM_EEFvSL_EE18destroy_deallocateEv
PUBLIC 1408d 0 _ZNSt6__ndk110__function6__funcIZN14MoreObjectInfo15settingListenerITn14TemplateStringXtlS4_ILj20EEtlA20_cLc100ELc121ELc110ELc97ELc109ELc105ELc99ELc45ELc111ELc98ELc106ELc101ELc99ELc116ELc45ELc105ELc110ELc102ELc111EEEEbZNS2_3getITnS4_XtlS5_tlS6_Lc100ELc121ELc110ELc97ELc109ELc105ELc99ELc45ELc111ELc98ELc106ELc101ELc99ELc116ELc45ELc105ELc110ELc102ELc111EEEEbEET0_PN5geode3ModEEUlbE_EEPNS9_13EventListenerINS9_22SettingChangedFilterV3EEEOT1_SB_EUlNS_10shared_ptrINS9_9SettingV3EEEE_NS_9allocatorISM_EEFvSL_EEclEOSL_
PUBLIC 14121 0 _ZNKSt6__ndk110__function6__funcIZN14MoreObjectInfo15settingListenerITn14TemplateStringXtlS4_ILj20EEtlA20_cLc100ELc121ELc110ELc97ELc109ELc105ELc99ELc45ELc111ELc98ELc106ELc101ELc99ELc116ELc45ELc105ELc110ELc102ELc111EEEEbZNS2_3getITnS4_XtlS5_tlS6_Lc100ELc121ELc110ELc97ELc109ELc105ELc99ELc45ELc111ELc98ELc106ELc101ELc99ELc116ELc45ELc105ELc110ELc102ELc111EEEEbEET0_PN5geode3ModEEUlbE_EEPNS9_13EventListenerINS9_22SettingChangedFilterV3EEEOT1_SB_EUlNS_10shared_ptrINS9_9SettingV3EEEE_NS_9allocatorISM_EEFvSL_EE6targetERKSt9type_info
PUBLIC 14139 0 _ZNKSt6__ndk110__function6__funcIZN14MoreObjectInfo15settingListenerITn14TemplateStringXtlS4_ILj20EEtlA20_cLc100ELc121ELc110ELc97ELc109ELc105ELc99ELc45ELc111ELc98ELc106ELc101ELc99ELc116ELc45ELc105ELc110ELc102ELc111EEEEbZNS2_3getITnS4_XtlS5_tlS6_Lc100ELc121ELc110ELc97ELc109ELc105ELc99ELc45ELc111ELc98ELc106ELc101ELc99ELc116ELc45ELc105ELc110ELc102ELc111EEEEbEET0_PN5geode3ModEEUlbE_EEPNS9_13EventListenerINS9_22SettingChangedFilterV3EEEOT1_SB_EUlNS_10shared_ptrINS9_9SettingV3EEEE_NS_9allocatorISM_EEFvSL_EE11target_typeEv
PUBLIC 14145 0 _GLOBAL__sub_I_MoreObjectInfo.cpp
PUBLIC m 14219 0 geodeImplicitEntry
PUBLIC 14239 0 wrapFunction(unsigned int, tulip::hook::WrapperMetadata const&)
PUBLIC 1430d 0 geode::impl::ResultData<void*, std::__ndk1::basic_string<char, std::__ndk1::char_traits<char>, std::__ndk1::allocator<char> > >::unwrapErr() &
PUBLIC 14355 0 geode::impl::ResultData<void*, std::__ndk1::basic_string<char, std::__ndk1::char_traits<char>, std::__ndk1::allocator<char> > >::~ResultData()
PUBLIC 143b5 0 tulip::hook::WrapperMetadata::~WrapperMetadata()
PUBLIC 143fd 0 cocos2d::CCDictionary::valueForKey(gd::string const&)
PUBLIC 144e1 0 tulip::hook::AbstractFunction::from<cocos2d::CCString const*, cocos2d::CCDictionary*, gd::string const&>(cocos2d::CCString const* (*)(cocos2d::CCDictionary*, gd::string const&))
PUBLIC 14551 0 _ZN5geode15UnwrapExceptionC2IRPvQsr4implE18IsStringStreamableIT_EEENS_4impl5OkTagEOS4_
PUBLIC 14651 0 _ZN5geode15UnwrapExceptionC2IRNSt6__ndk112basic_stringIcNS2_11char_traitsIcEENS2_9allocatorIcEEEEQsr4implE18IsStringStreamableIT_EEENS_4impl6ErrTagEOSA_
PUBLIC 1475d 0 std::__ndk1::__variant_detail::__visitation::__base::__dispatcher<(unsigned int)0>::__dispatch[abi:ne180000]<std::__ndk1::__variant_detail::__dtor<std::__ndk1::__variant_detail::__traits<void*, std::__ndk1::basic_string<char, std::__ndk1::char_traits<char>, std::__ndk1::allocator<char> > >, (std::__ndk1::__variant_detail::_Trait)1>::__destroy[abi:ne180000]()::{lambda(auto:1&)#1}, std::__ndk1::__variant_detail::__base<(std::__ndk1::__variant_detail::__traits<void*, std::__ndk1::basic_string<char, std::__ndk1::char_traits<char>, std::__ndk1::allocator<char> > >)1, std::__ndk1::__variant_detail::__traits, std::__ndk1::allocator<char> >&>(std::__ndk1::__variant_detail::__dtor<std::__ndk1::__variant_detail::__traits<void*, std::__ndk1::basic_string<char, std::__ndk1::char_traits<char>, std::__ndk1::allocator<char> > >, (std::__ndk1::__variant_detail::_Trait)1>, std::__ndk1::__variant_detail::__base<(std::__ndk1::__variant_detail::__traits<void*, std::__ndk1::basic_string<char, std::__ndk1::char_traits<char>, std::__ndk1::allocator<char> > >)1, std::__ndk1::__variant_detail::__traits, std::__ndk1::allocator<char> >&)
PUBLIC 1475f 0 std::__ndk1::__variant_detail::__visitation::__base::__dispatcher<(unsigned int)1>::__dispatch[abi:ne180000]<std::__ndk1::__variant_detail::__dtor<std::__ndk1::__variant_detail::__traits<void*, std::__ndk1::basic_string<char, std::__ndk1::char_traits<char>, std::__ndk1::allocator<char> > >, (std::__ndk1::__variant_detail::_Trait)1>::__destroy[abi:ne180000]()::{lambda(auto:1&)#1}, std::__ndk1::__variant_detail::__base<(std::__ndk1::__variant_detail::__traits<void*, std::__ndk1::basic_string<char, std::__ndk1::char_traits<char>, std::__ndk1::allocator<char> > >)1, std::__ndk1::__variant_detail::__traits, std::__ndk1::allocator<char> >&>(std::__ndk1::__variant_detail::__dtor<std::__ndk1::__variant_detail::__traits<void*, std::__ndk1::basic_string<char, std::__ndk1::char_traits<char>, std::__ndk1::allocator<char> > >, (std::__ndk1::__variant_detail::_Trait)1>, std::__ndk1::__variant_detail::__base<(std::__ndk1::__variant_detail::__traits<void*, std::__ndk1::basic_string<char, std::__ndk1::char_traits<char>, std::__ndk1::allocator<char> > >)1, std::__ndk1::__variant_detail::__traits, std::__ndk1::allocator<char> >&)
PUBLIC 1476d 0 fmt::v11::detail::write_loc(fmt::v11::basic_appender<char>, fmt::v11::loc_value, fmt::v11::format_specs const&, fmt::v11::detail::locale_ref)
PUBLIC 14949 0 fmt::v11::format_facet<std::__ndk1::locale>::~format_facet()
PUBLIC 1498d 0 fmt::v11::report_error(char const*)
PUBLIC 149c5 0 fmt::v11::format_error::runtime_error(char const*)
PUBLIC 149dd 0 fmt::v11::format_facet<std::__ndk1::locale>::do_put(fmt::v11::basic_appender<char>, fmt::v11::loc_value, fmt::v11::format_specs const&) const
PUBLIC 14e15 0 fmt::v11::detail::loc_writer<char>::~loc_writer()
PUBLIC 14e45 0 fmt::v11::detail::dragonbox::cache_accessor<double>::get_cached_power(int)
PUBLIC 14ff5 0 fmt::v11::detail::vformat_to<char>(fmt::v11::detail::buffer<char>&, fmt::v11::basic_string_view<char>, fmt::v11::detail::vformat_args<char>::type, fmt::v11::detail::locale_ref)
PUBLIC 153b1 0 fmt::v11::detail::is_printable(unsigned int)
PUBLIC 155f9 0 fmt::v11::detail::dragonbox::to_decimal<float>(float)
PUBLIC 15995 0 fmt::v11::detail::dragonbox::to_decimal<double>(double)
PUBLIC 16215 0 fmt::v11::basic_memory_buffer<char, (unsigned int)500, std::__ndk1::allocator<char> >::grow(fmt::v11::detail::buffer<char>&, unsigned int)
PUBLIC 16261 0 fmt::v11::format_facet<std::__ndk1::locale>::~format_facet()
PUBLIC 162a9 0 fmt::v11::format_error::~format_error()
PUBLIC 162b9 0 fmt::v11::detail::copy_noinline<char, char const*, fmt::v11::basic_appender<char> >(char const*, char const*, fmt::v11::basic_appender<char>)
PUBLIC 16355 0 fmt::v11::detail::default_arg_formatter<char>::operator()<bool>(bool)
PUBLIC 163a9 0 fmt::v11::detail::default_arg_formatter<char>::operator()<char>(char)
PUBLIC 163e1 0 fmt::v11::detail::default_arg_formatter<char>::operator()<float>(float)
PUBLIC 164d1 0 fmt::v11::detail::default_arg_formatter<char>::operator()<double>(double)
PUBLIC 165c1 0 fmt::v11::detail::default_arg_formatter<char>::operator()<long double>(long double)
PUBLIC 166a5 0 fmt::v11::detail::default_arg_formatter<char>::operator()<char const*>(char const*)
PUBLIC 166d1 0 fmt::v11::detail::default_arg_formatter<char>::operator()<void const*>(void const*)
PUBLIC 16741 0 _ZN3fmt3v116detail5writeIcNS0_14basic_appenderIcEEiTnNSt6__ndk19enable_ifIXaaaasr11is_integralIT1_EE5valuentsr3std7is_sameIS7_bEE5valuentsr3std7is_sameIS7_T_EE5valueEiE4typeELi0EEET0_SB_S7_
PUBLIC 168f1 0 fmt::v11::detail::copy_noinline<char, char*, fmt::v11::basic_appender<char> >(char*, char*, fmt::v11::basic_appender<char>)
PUBLIC 1698d 0 _ZN3fmt3v116detail5writeIcNS0_14basic_appenderIcEEjTnNSt6__ndk19enable_ifIXaaaasr11is_integralIT1_EE5valuentsr3std7is_sameIS7_bEE5valuentsr3std7is_sameIS7_T_EE5valueEiE4typeELi0EEET0_SB_S7_
PUBLIC 16b01 0 _ZN3fmt3v116detail5writeIcNS0_14basic_appenderIcEExTnNSt6__ndk19enable_ifIXaaaasr11is_integralIT1_EE5valuentsr3std7is_sameIS7_bEE5valuentsr3std7is_sameIS7_T_EE5valueEiE4typeELi0EEET0_SB_S7_
PUBLIC 16d21 0 _ZN3fmt3v116detail5writeIcNS0_14basic_appenderIcEEyTnNSt6__ndk19enable_ifIXaaaasr11is_integralIT1_EE5valuentsr3std7is_sameIS7_bEE5valuentsr3std7is_sameIS7_T_EE5valueEiE4typeELi0EEET0_SB_S7_
PUBLIC 16f09 0 _ZN3fmt3v116detail5writeIcNS0_14basic_appenderIcEEbTnNSt6__ndk19enable_ifIXsr3std7is_sameIT1_bEE5valueEiE4typeELi0EEET0_SA_S7_RKNS0_12format_specsENS1_10locale_refE
PUBLIC 17091 0 fmt::v11::detail::write_int_noinline<char, fmt::v11::basic_appender<char>, unsigned int>(fmt::v11::basic_appender<char>, fmt::v11::detail::write_int_arg<unsigned int>, fmt::v11::format_specs const&, fmt::v11::detail::locale_ref)
PUBLIC 17a89 0 fmt::v11::detail::fill<char, fmt::v11::basic_appender<char> >(fmt::v11::basic_appender<char>, unsigned int, fmt::v11::detail::fill_t const&)
PUBLIC 17b75 0 fmt::v11::detail::write_padded<char, (fmt::v11::align::type)1, fmt::v11::basic_appender<char>, fmt::v11::detail::write_char<char, fmt::v11::basic_appender<char> >(fmt::v11::basic_appender<char>, char, fmt::v11::format_specs const&)::{lambda(fmt::v11::basic_appender<char>&)#1}>(fmt::v11::basic_appender<char>, fmt::v11::format_specs const&, unsigned int, unsigned int, fmt::v11::detail::write_char<char, fmt::v11::basic_appender<char> >(fmt::v11::basic_appender<char>, char, fmt::v11::format_specs const&)::{lambda(fmt::v11::basic_appender<char>&)#1})
PUBLIC 17d05 0 fmt::v11::detail::write_escaped_cp<fmt::v11::basic_appender<char>, char>(fmt::v11::basic_appender<char>, fmt::v11::detail::find_escape_result<char> const&)
PUBLIC 17f19 0 fmt::v11::detail::write_codepoint<(unsigned int)2, char, fmt::v11::basic_appender<char> >(fmt::v11::basic_appender<char>, char, unsigned int)
PUBLIC 17ff9 0 fmt::v11::detail::write_codepoint<(unsigned int)8, char, fmt::v11::basic_appender<char> >(fmt::v11::basic_appender<char>, char, unsigned int)
PUBLIC 180d9 0 fmt::v11::detail::write_padded<char, (fmt::v11::align::type)1, fmt::v11::basic_appender<char>, fmt::v11::detail::write_nonfinite<char, fmt::v11::basic_appender<char> >(fmt::v11::basic_appender<char>, bool, fmt::v11::format_specs, fmt::v11::sign::type)::{lambda(fmt::v11::basic_appender<char>&)#1}>(fmt::v11::basic_appender<char>, fmt::v11::format_specs const&, unsigned int, unsigned int, fmt::v11::detail::write_nonfinite<char, fmt::v11::basic_appender<char> >(fmt::v11::basic_appender<char>, bool, fmt::v11::format_specs, fmt::v11::sign::type)::{lambda(fmt::v11::basic_appender<char>&)#1})
PUBLIC 18219 0 fmt::v11::detail::do_write_float<char, fmt::v11::basic_appender<char>, fmt::v11::detail::dragonbox::decimal_fp<float>, fmt::v11::detail::digit_grouping<char> >(fmt::v11::basic_appender<char>, fmt::v11::detail::dragonbox::decimal_fp<float> const&, fmt::v11::format_specs const&, fmt::v11::detail::float_specs, fmt::v11::detail::locale_ref)
PUBLIC 18b59 0 fmt::v11::detail::do_write_float<char, fmt::v11::basic_appender<char>, fmt::v11::detail::dragonbox::decimal_fp<float>, fmt::v11::detail::digit_grouping<char> >(fmt::v11::basic_appender<char>, fmt::v11::detail::dragonbox::decimal_fp<float> const&, fmt::v11::format_specs const&, fmt::v11::detail::float_specs, fmt::v11::detail::locale_ref)::{lambda(fmt::v11::basic_appender<char>(fmt::v11::basic_appender<char>))#1}::operator() const
PUBLIC 18c39 0 fmt::v11::detail::digit_grouping<char>::digit_grouping(fmt::v11::detail::locale_ref, bool)
PUBLIC 18dd1 0 fmt::v11::detail::digit_grouping<char>::~digit_grouping()
PUBLIC 18df5 0 fmt::v11::detail::write_exponent<char, fmt::v11::basic_appender<char> >(int, fmt::v11::basic_appender<char>)
PUBLIC 18ef9 0 _ZN3fmt3v116detail17write_significandIcjTnNSt6__ndk19enable_ifIXsr3std11is_integralIT0_EE5valueEiE4typeELi0EEEPT_S9_S5_iiS8_
PUBLIC 19041 0 std::__ndk1::basic_string<char, std::__ndk1::char_traits<char>, std::__ndk1::allocator<char> >::__assign_no_alias<true>(char const*, unsigned int)
PUBLIC 190a7 0 std::__ndk1::basic_string<char, std::__ndk1::char_traits<char>, std::__ndk1::allocator<char> >::__assign_no_alias<false>(char const*, unsigned int)
PUBLIC 1914d 0 fmt::v11::detail::digit_grouping<char>::apply<fmt::v11::basic_appender<char>, char>(fmt::v11::basic_appender<char>, fmt::v11::basic_string_view<char>) const
PUBLIC 19369 0 fmt::v11::basic_memory_buffer<int, (unsigned int)500, std::__ndk1::allocator<int> >::grow(fmt::v11::detail::buffer<int>&, unsigned int)
PUBLIC 193d9 0 fmt::v11::detail::do_write_float<char, fmt::v11::basic_appender<char>, fmt::v11::detail::dragonbox::decimal_fp<double>, fmt::v11::detail::digit_grouping<char> >(fmt::v11::basic_appender<char>, fmt::v11::detail::dragonbox::decimal_fp<double> const&, fmt::v11::format_specs const&, fmt::v11::detail::float_specs, fmt::v11::detail::locale_ref)
PUBLIC 19dd1 0 fmt::v11::detail::do_write_float<char, fmt::v11::basic_appender<char>, fmt::v11::detail::dragonbox::decimal_fp<double>, fmt::v11::detail::digit_grouping<char> >(fmt::v11::basic_appender<char>, fmt::v11::detail::dragonbox::decimal_fp<double> const&, fmt::v11::format_specs const&, fmt::v11::detail::float_specs, fmt::v11::detail::locale_ref)::{lambda(fmt::v11::basic_appender<char>(fmt::v11::basic_appender<char>))#1}::operator() const
PUBLIC 19eb9 0 _ZN3fmt3v116detail17write_significandIcyTnNSt6__ndk19enable_ifIXsr3std11is_integralIT0_EE5valueEiE4typeELi0EEEPT_S9_S5_iiS8_
PUBLIC 1a079 0 fmt::v11::detail::write_padded<char, (fmt::v11::align::type)2, fmt::v11::basic_appender<char>, fmt::v11::detail::write_ptr<char, fmt::v11::basic_appender<char>, unsigned int>(fmt::v11::basic_appender<char>, unsigned int, fmt::v11::format_specs const*)::{lambda(fmt::v11::basic_appender<char>&)#1}>(fmt::v11::basic_appender<char>, fmt::v11::format_specs const&, unsigned int, unsigned int, fmt::v11::detail::write_ptr<char, fmt::v11::basic_appender<char>, unsigned int>(fmt::v11::basic_appender<char>, unsigned int, fmt::v11::format_specs const*)::{lambda(fmt::v11::basic_appender<char>&)#1})
PUBLIC 1a1d1 0 fmt::v11::detail::parse_replacement_field<char, fmt::v11::detail::vformat_to<char>(fmt::v11::detail::buffer<char>&, fmt::v11::basic_string_view<char>, fmt::v11::detail::vformat_args<char>::type, fmt::v11::detail::locale_ref)::format_handler&>(char const*, char const*, fmt::v11::detail::vformat_to<char>(fmt::v11::detail::buffer<char>&, fmt::v11::basic_string_view<char>, fmt::v11::detail::vformat_args<char>::type, fmt::v11::detail::locale_ref)::format_handler&)
PUBLIC 1b94d 0 fmt::v11::detail::parse_dynamic_spec<char>(char const*, char const*, int&, fmt::v11::detail::arg_ref<char>&, fmt::v11::basic_format_parse_context<char>&)
PUBLIC 1bb25 0 fmt::v11::basic_format_args<fmt::v11::context>::get<char>(fmt::v11::basic_string_view<char>) const
PUBLIC 1bc39 0 fmt::v11::detail::write_int_noinline<char, fmt::v11::basic_appender<char>, unsigned long long>(fmt::v11::basic_appender<char>, fmt::v11::detail::write_int_arg<unsigned long long>, fmt::v11::format_specs const&, fmt::v11::detail::locale_ref)
PUBLIC 1c7c5 0 _ZN3fmt3v116detail15format_hexfloatIdTnNSt6__ndk19enable_ifIXntsr16is_double_doubleIT_EE5valueEiE4typeELi0EEEvS5_NS0_12format_specsERNS1_6bufferIcEE
PUBLIC 1cb6d 0 fmt::v11::detail::format_float<double>(double, int, fmt::v11::detail::float_specs, fmt::v11::detail::buffer<char>&)
PUBLIC 1da51 0 fmt::v11::detail::write_padded<char, (fmt::v11::align::type)2, fmt::v11::basic_appender<char>, fmt::v11::detail::write_bytes<char, (fmt::v11::align::type)2, fmt::v11::basic_appender<char> >(fmt::v11::basic_appender<char>, fmt::v11::basic_string_view<char>, fmt::v11::format_specs const&)::{lambda(fmt::v11::basic_appender<char>&)#1}>(fmt::v11::basic_appender<char>, fmt::v11::format_specs const&, unsigned int, unsigned int, fmt::v11::detail::write_bytes<char, (fmt::v11::align::type)2, fmt::v11::basic_appender<char> >(fmt::v11::basic_appender<char>, fmt::v11::basic_string_view<char>, fmt::v11::format_specs const&)::{lambda(fmt::v11::basic_appender<char>&)#1})
PUBLIC 1db5d 0 fmt::v11::detail::bigint::operator<<=(int)
PUBLIC 1dc21 0 fmt::v11::detail::bigint::assign_pow10(int)
PUBLIC 1e035 0 fmt::v11::detail::bigint::divmod_assign(fmt::v11::detail::bigint const&)
PUBLIC 1e2bf 0 fmt::v11::basic_memory_buffer<unsigned int, (unsigned int)32, std::__ndk1::allocator<unsigned int> >::grow(fmt::v11::detail::buffer<unsigned int>&, unsigned int)
PUBLIC 1e32d 0 fmt::v11::detail::do_write_float<char, fmt::v11::basic_appender<char>, fmt::v11::detail::big_decimal_fp, fmt::v11::detail::digit_grouping<char> >(fmt::v11::basic_appender<char>, fmt::v11::detail::big_decimal_fp const&, fmt::v11::format_specs const&, fmt::v11::detail::float_specs, fmt::v11::detail::locale_ref)
PUBLIC 1ed0d 0 fmt::v11::detail::do_write_float<char, fmt::v11::basic_appender<char>, fmt::v11::detail::big_decimal_fp, fmt::v11::detail::digit_grouping<char> >(fmt::v11::basic_appender<char>, fmt::v11::detail::big_decimal_fp const&, fmt::v11::format_specs const&, fmt::v11::detail::float_specs, fmt::v11::detail::locale_ref)::{lambda(fmt::v11::basic_appender<char>(fmt::v11::basic_appender<char>))#1}::operator() const
PUBLIC 1eded 0 fmt::v11::detail::write<char, fmt::v11::basic_appender<char> >(fmt::v11::basic_appender<char>, fmt::v11::basic_string_view<char>, fmt::v11::format_specs const&)
PUBLIC 1f9f1 0 fmt::v11::detail::for_each_codepoint<fmt::v11::detail::compute_width(fmt::v11::basic_string_view<char>)::count_code_points>(fmt::v11::basic_string_view<char>, fmt::v11::detail::compute_width(fmt::v11::basic_string_view<char>)::count_code_points)::{lambda(char const*, char const*)#1}::operator()(char const*, char const*) const
PUBLIC 1fbd5 0 fmt::v11::detail::write_int<fmt::v11::basic_appender<char>, unsigned long long, char>(fmt::v11::basic_appender<char>, unsigned long long, unsigned int, fmt::v11::format_specs const&, fmt::v11::detail::digit_grouping<char> const&)
PUBLIC 20121 0 __ThumbV7PILongThunk___cxa_atexit
PUBLIC 2012d 0 __ThumbV7PILongThunk__ZdlPv
PUBLIC 20139 0 __ThumbV7PILongThunk__ZN8EditorUI21updateObjectInfoLabelEv
PUBLIC 20145 0 __ThumbV7PILongThunk__ZNSt6__ndk119__shared_weak_count14__release_weakEv
PUBLIC 20151 0 __ThumbV7PILongThunk__ZN5geode24DefaultEventListenerPool3getEv
PUBLIC 2015d 0 __ThumbV7PILongThunk__ZN5geode21EventListenerProtocolD2Ev
PUBLIC 20169 0 __ThumbV7PILongThunk__ZN5geode9addresser9Addresser19followThunkFunctionEi
PUBLIC 20175 0 __ThumbV7PILongThunk__ZNSt6__ndk16locale5facetD2Ev
PUBLIC 20180 0 <.plt ELF section in hiimjustin000.more_object_info.android32.so>
