MODULE Linux arm64 0633D3727A531269077207BF9E759EF10 abb2k.custom_icon_size.android64.so
INFO CODE_ID 72D33306537A6912077207BF9E759EF10EAC135C
INFO GENERATOR mozilla/dump_syms 2.3.4
PUBLIC 6810 0 __on_dlclose
PUBLIC 6820 0 __emutls_unregister_key
PUBLIC 6828 0 __on_dlclose_late
PUBLIC 6830 0 __atexit_handler_wrapper
PUBLIC 6844 0 atexit
PUBLIC 6860 0 pthread_atfork
PUBLIC 6870 0 __aarch64_ldadd8_relax
PUBLIC 68a0 0 init_have_lse_atomics
PUBLIC 6938 0 __init_cpu_features_constructor
PUBLIC 6ed4 0 __init_cpu_features
PUBLIC 6f60 0 __aarch64_ldadd8_acq_rel
PUBLIC 6f90 0 BISPlayLayer::myUpdate(float)
PUBLIC 7204 0 __cxx_global_var_init
PUBLIC 7dd8 0 geode::modifier::ModifyBase<geode::modifier::ModifyDerive<BISPlayLayer, PlayLayer> >::~ModifyBase()
PUBLIC 7df0 0 geode::modifier::FieldIntermediate<BISPlayLayer, PlayLayer>::self()
PUBLIC 8434 0 geode::modifier::FieldIntermediate<BISPlayLayer, PlayLayer>::fieldDestructor(void*)
PUBLIC 8438 0 std::__ndk1::vector<void*, std::__ndk1::allocator<void*> >::__throw_length_error[abi:ne180000]() const
PUBLIC 844c 0 __clang_call_terminate
PUBLIC 845c 0 std::__ndk1::__throw_length_error[abi:ne180000](char const*)
PUBLIC 84ac 0 std::length_error::length_error[abi:ne180000](char const*)
PUBLIC 84dc 0 std::__throw_bad_array_new_length([abi:ne180000], void)
PUBLIC 8510 0 std::__ndk1::vector<std::__ndk1::function<void (void*)>, std::__ndk1::allocator<std::__ndk1::function<void (void*)> > >::__throw_length_error[abi:ne180000]() const
PUBLIC 8524 0 std::__ndk1::vector<void*, std::__ndk1::allocator<void*> >::__throw_out_of_range[abi:ne180000]() const
PUBLIC 8530 0 std::__ndk1::__throw_out_of_range[abi:ne180000](char const*)
PUBLIC 8578 0 std::out_of_range::out_of_range[abi:ne180000](char const*)
PUBLIC 85b0 0 std::__ndk1::vector<std::__ndk1::function<void (void*)>, std::__ndk1::allocator<std::__ndk1::function<void (void*)> > >::__throw_out_of_range[abi:ne180000]() const
PUBLIC 85bc 0 std::__ndk1::__function::__base<void (void*)>::~__base()
PUBLIC 85c0 0 std::__ndk1::__function::__func<void (*)(void*), std::__ndk1::allocator<void (*)(void*)>, void (void*)>::~__func()
PUBLIC 85c4 0 std::__ndk1::__function::__func<void (*)(void*), std::__ndk1::allocator<void (*)(void*)>, void (void*)>::__clone() const
PUBLIC 85fc 0 std::__ndk1::__function::__func<void (*)(void*), std::__ndk1::allocator<void (*)(void*)>, void (void*)>::__clone(std::__ndk1::__function::__base<void (void*)>*) const
PUBLIC 8614 0 std::__ndk1::__function::__func<void (*)(void*), std::__ndk1::allocator<void (*)(void*)>, void (void*)>::destroy()
PUBLIC 8618 0 std::__ndk1::__function::__func<void (*)(void*), std::__ndk1::allocator<void (*)(void*)>, void (void*)>::destroy_deallocate()
PUBLIC 861c 0 std::__ndk1::__function::__func<void (*)(void*), std::__ndk1::allocator<void (*)(void*)>, void (void*)>::operator()(void*&&)
PUBLIC 862c 0 std::__ndk1::__function::__func<void (*)(void*), std::__ndk1::allocator<void (*)(void*)>, void (void*)>::target(std::type_info const&) const
PUBLIC 8648 0 std::__ndk1::__function::__func<void (*)(void*), std::__ndk1::allocator<void (*)(void*)>, void (void*)>::target_type() const
PUBLIC 8654 0 geode::modifier::ModifyDerive<BISPlayLayer, PlayLayer>::apply()
PUBLIC 8c9c 0 std::__ndk1::shared_ptr<geode::Hook>::~shared_ptr[abi:ne180000]()
PUBLIC 8cec 0 geode::impl::ResultData<geode::Hook*, std::__ndk1::basic_string<char, std::__ndk1::char_traits<char>, std::__ndk1::allocator<char> > >::~ResultData()
PUBLIC 8d60 0 std::__ndk1::vector<std::__ndk1::basic_string<char, std::__ndk1::char_traits<char>, std::__ndk1::allocator<char> >, std::__ndk1::allocator<std::__ndk1::basic_string<char, std::__ndk1::char_traits<char>, std::__ndk1::allocator<char> > > >::~vector[abi:ne180000]()
PUBLIC 8ddc 0 geode::modifier::ModifyBase<geode::modifier::ModifyDerive<BISPlayLayer, PlayLayer> >::apply()
PUBLIC 8de0 0 _ZN5geode15UnwrapExceptionC2IRPNS_4HookEQsr4implE18IsStringStreamableIT_EEENS_4impl5OkTagEOS5_
PUBLIC 94dc 0 std::__ndk1::__throw_bad_variant_access[abi:ne180000]()
PUBLIC m 9510 0 std::__ndk1::basic_stringstream<char, std::__ndk1::char_traits<char>, std::__ndk1::allocator<char> >::~basic_stringstream()
PUBLIC 9590 0 geode::UnwrapException::~UnwrapException()
PUBLIC 95b4 0 std::__ndk1::basic_string<char, std::__ndk1::char_traits<char>, std::__ndk1::allocator<char> >::__throw_length_error[abi:ne180000]() const
PUBLIC 95c8 0 std::__ndk1::basic_string<char, std::__ndk1::char_traits<char>, std::__ndk1::allocator<char> >::__init_copy_ctor_external(char const*, unsigned long)
PUBLIC 9648 0 std::__ndk1::__split_buffer<std::__ndk1::basic_string<char, std::__ndk1::char_traits<char>, std::__ndk1::allocator<char> >, std::__ndk1::allocator<std::__ndk1::basic_string<char, std::__ndk1::char_traits<char>, std::__ndk1::allocator<char> > >&>::~__split_buffer()
PUBLIC 96b0 0 std::__ndk1::vector<std::__ndk1::basic_string<char, std::__ndk1::char_traits<char>, std::__ndk1::allocator<char> >, std::__ndk1::allocator<std::__ndk1::basic_string<char, std::__ndk1::char_traits<char>, std::__ndk1::allocator<char> > > >::__throw_length_error[abi:ne180000]() const
PUBLIC 96c4 0 std::__ndk1::__variant_detail::__visitation::__base::__dispatcher<(unsigned long)0>::__dispatch[abi:ne180000]<std::__ndk1::__variant_detail::__dtor<std::__ndk1::__variant_detail::__traits<geode::Hook*, std::__ndk1::basic_string<char, std::__ndk1::char_traits<char>, std::__ndk1::allocator<char> > >, (std::__ndk1::__variant_detail::_Trait)1>::__destroy[abi:ne180000]()::{lambda(auto:1&)#1}, std::__ndk1::__variant_detail::__base<(std::__ndk1::__variant_detail::__traits<geode::Hook*, std::__ndk1::basic_string<char, std::__ndk1::char_traits<char>, std::__ndk1::allocator<char> > >)1, geode::Hook, std::__ndk1::allocator<char> >&>(std::__ndk1::__variant_detail::__dtor<std::__ndk1::__variant_detail::__traits<geode::Hook*, std::__ndk1::basic_string<char, std::__ndk1::char_traits<char>, std::__ndk1::allocator<char> > >, (std::__ndk1::__variant_detail::_Trait)1>, std::__ndk1::__variant_detail::__base<(std::__ndk1::__variant_detail::__traits<geode::Hook*, std::__ndk1::basic_string<char, std::__ndk1::char_traits<char>, std::__ndk1::allocator<char> > >)1, geode::Hook, std::__ndk1::allocator<char> >&)
PUBLIC 96c8 0 std::__ndk1::__variant_detail::__visitation::__base::__dispatcher<(unsigned long)1>::__dispatch[abi:ne180000]<std::__ndk1::__variant_detail::__dtor<std::__ndk1::__variant_detail::__traits<geode::Hook*, std::__ndk1::basic_string<char, std::__ndk1::char_traits<char>, std::__ndk1::allocator<char> > >, (std::__ndk1::__variant_detail::_Trait)1>::__destroy[abi:ne180000]()::{lambda(auto:1&)#1}, std::__ndk1::__variant_detail::__base<(std::__ndk1::__variant_detail::__traits<geode::Hook*, std::__ndk1::basic_string<char, std::__ndk1::char_traits<char>, std::__ndk1::allocator<char> > >)1, geode::Hook, std::__ndk1::allocator<char> >&>(std::__ndk1::__variant_detail::__dtor<std::__ndk1::__variant_detail::__traits<geode::Hook*, std::__ndk1::basic_string<char, std::__ndk1::char_traits<char>, std::__ndk1::allocator<char> > >, (std::__ndk1::__variant_detail::_Trait)1>, std::__ndk1::__variant_detail::__base<(std::__ndk1::__variant_detail::__traits<geode::Hook*, std::__ndk1::basic_string<char, std::__ndk1::char_traits<char>, std::__ndk1::allocator<char> > >)1, geode::Hook, std::__ndk1::allocator<char> >&)
PUBLIC 96dc 0 std::__ndk1::__tree<std::__ndk1::__value_type<std::__ndk1::basic_string<char, std::__ndk1::char_traits<char>, std::__ndk1::allocator<char> >, std::__ndk1::shared_ptr<geode::Hook> >, std::__ndk1::__map_value_compare<std::__ndk1::basic_string<char, std::__ndk1::char_traits<char>, std::__ndk1::allocator<char> >, std::__ndk1::__value_type<std::__ndk1::basic_string<char, std::__ndk1::char_traits<char>, std::__ndk1::allocator<char> >, std::__ndk1::shared_ptr<geode::Hook> >, std::__ndk1::less<std::__ndk1::basic_string<char, std::__ndk1::char_traits<char>, std::__ndk1::allocator<char> > >, true>, std::__ndk1::allocator<std::__ndk1::__value_type<std::__ndk1::basic_string<char, std::__ndk1::char_traits<char>, std::__ndk1::allocator<char> >, std::__ndk1::shared_ptr<geode::Hook> > > >::destroy(std::__ndk1::__tree_node<std::__ndk1::__value_type<std::__ndk1::basic_string<char, std::__ndk1::char_traits<char>, std::__ndk1::allocator<char> >, std::__ndk1::shared_ptr<geode::Hook> >, void*>*)
PUBLIC 9760 0 geode::modifier::AsStaticFunction_init<BISPlayLayer, bool (BISPlayLayer::*)(GJGameLevel*, bool, bool)>::Impl<bool (BISPlayLayer::*)(GJGameLevel*, bool, bool)>::function(BISPlayLayer*, GJGameLevel*, bool, bool)
PUBLIC 97ec 0 std::__ndk1::shared_ptr<tulip::hook::CallingConvention>::~shared_ptr[abi:ne180000]()
PUBLIC 983c 0 tulip::hook::HandlerMetadata::~HandlerMetadata()
PUBLIC 98a0 0 geode::Mod::getSettingValue<bool>(std::__ndk1::basic_string_view<char, std::__ndk1::char_traits<char> >) const
PUBLIC 99d4 0 Settings::getIconScale(IconType)
PUBLIC 9d60 0 geode::Mod::getSettingValue<double>(std::__ndk1::basic_string_view<char, std::__ndk1::char_traits<char> >) const
PUBLIC 9e90 0 Settings::getIconExtraEnabled(IconType)
PUBLIC a214 0 Settings::getIconScaleX(IconType)
PUBLIC a5a0 0 Settings::getIconScaleY(IconType)
PUBLIC a92c 0 geode::cast::traverseTypeinfoFor(void*, geode::cast::ClassTypeinfoType const*, char const*)
PUBLIC m aa30 0 geodeImplicitEntry
PUBLIC aa6c 0 __udivti3
PUBLIC aa78 0 __udivmodti4
PUBLIC m acc4 0 __eqtf2
PUBLIC ad64 0 __unordtf2
PUBLIC ad9c 0 fmt::v11::detail::write_loc(fmt::v11::basic_appender<char>, fmt::v11::loc_value, fmt::v11::format_specs const&, fmt::v11::detail::locale_ref)
PUBLIC b030 0 fmt::v11::format_facet<std::__ndk1::locale>::~format_facet()
PUBLIC b0ac 0 fmt::v11::report_error(char const*)
PUBLIC b0fc 0 fmt::v11::format_error::runtime_error(char const*)
PUBLIC b128 0 fmt::v11::format_facet<std::__ndk1::locale>::do_put(fmt::v11::basic_appender<char>, fmt::v11::loc_value, fmt::v11::format_specs const&) const
PUBLIC b8e8 0 fmt::v11::detail::loc_writer<char>::~loc_writer()
PUBLIC b94c 0 fmt::v11::detail::vformat_to<char>(fmt::v11::detail::buffer<char>&, fmt::v11::basic_string_view<char>, fmt::v11::detail::vformat_args<char>::type, fmt::v11::detail::locale_ref)
PUBLIC bebc 0 fmt::v11::detail::is_printable(unsigned int)
PUBLIC c0e4 0 fmt::v11::detail::dragonbox::to_decimal<float>(float)
PUBLIC c3c0 0 fmt::v11::detail::dragonbox::to_decimal<double>(double)
PUBLIC c8fc 0 fmt::v11::basic_memory_buffer<char, (unsigned long)500, std::__ndk1::allocator<char> >::grow(fmt::v11::detail::buffer<char>&, unsigned long)
PUBLIC c974 0 fmt::v11::format_facet<std::__ndk1::locale>::~format_facet()
PUBLIC ca00 0 fmt::v11::format_error::~format_error()
PUBLIC ca24 0 fmt::v11::detail::copy_noinline<char, char const*, fmt::v11::basic_appender<char> >(char const*, char const*, fmt::v11::basic_appender<char>)
PUBLIC cb74 0 fmt::v11::detail::default_arg_formatter<char>::operator()<bool>(bool)
PUBLIC cbdc 0 fmt::v11::detail::default_arg_formatter<char>::operator()<char>(char)
PUBLIC cc6c 0 fmt::v11::detail::default_arg_formatter<char>::operator()<float>(float)
PUBLIC cd58 0 fmt::v11::detail::default_arg_formatter<char>::operator()<double>(double)
PUBLIC ce44 0 fmt::v11::detail::default_arg_formatter<char>::operator()<char const*>(char const*)
PUBLIC ce8c 0 fmt::v11::detail::default_arg_formatter<char>::operator()<void const*>(void const*)
PUBLIC cf24 0 _ZN3fmt3v116detail5writeIcNS0_14basic_appenderIcEEiTnNSt6__ndk19enable_ifIXaaaasr11is_integralIT1_EE5valuentsr3std7is_sameIS7_bEE5valuentsr3std7is_sameIS7_T_EE5valueEiE4typeELi0EEET0_SB_S7_
PUBLIC d184 0 fmt::v11::detail::copy_noinline<char, char*, fmt::v11::basic_appender<char> >(char*, char*, fmt::v11::basic_appender<char>)
PUBLIC d2d4 0 _ZN3fmt3v116detail5writeIcNS0_14basic_appenderIcEEjTnNSt6__ndk19enable_ifIXaaaasr11is_integralIT1_EE5valuentsr3std7is_sameIS7_bEE5valuentsr3std7is_sameIS7_T_EE5valueEiE4typeELi0EEET0_SB_S7_
PUBLIC d4b4 0 _ZN3fmt3v116detail5writeIcNS0_14basic_appenderIcEExTnNSt6__ndk19enable_ifIXaaaasr11is_integralIT1_EE5valuentsr3std7is_sameIS7_bEE5valuentsr3std7is_sameIS7_T_EE5valueEiE4typeELi0EEET0_SB_S7_
PUBLIC d738 0 _ZN3fmt3v116detail5writeIcNS0_14basic_appenderIcEEyTnNSt6__ndk19enable_ifIXaaaasr11is_integralIT1_EE5valuentsr3std7is_sameIS7_bEE5valuentsr3std7is_sameIS7_T_EE5valueEiE4typeELi0EEET0_SB_S7_
PUBLIC d940 0 _ZN3fmt3v116detail5writeIcNS0_14basic_appenderIcEEnTnNSt6__ndk19enable_ifIXaaaasr11is_integralIT1_EE5valuentsr3std7is_sameIS7_bEE5valuentsr3std7is_sameIS7_T_EE5valueEiE4typeELi0EEET0_SB_S7_
PUBLIC dca0 0 _ZN3fmt3v116detail5writeIcNS0_14basic_appenderIcEEoTnNSt6__ndk19enable_ifIXaaaasr11is_integralIT1_EE5valuentsr3std7is_sameIS7_bEE5valuentsr3std7is_sameIS7_T_EE5valueEiE4typeELi0EEET0_SB_S7_
PUBLIC dfb4 0 _ZN3fmt3v116detail5writeIcNS0_14basic_appenderIcEEbTnNSt6__ndk19enable_ifIXsr3std7is_sameIT1_bEE5valueEiE4typeELi0EEET0_SA_S7_RKNS0_12format_specsENS1_10locale_refE
PUBLIC e244 0 fmt::v11::detail::write_int_noinline<char, fmt::v11::basic_appender<char>, unsigned int>(fmt::v11::basic_appender<char>, fmt::v11::detail::write_int_arg<unsigned int>, fmt::v11::format_specs const&, fmt::v11::detail::locale_ref)
PUBLIC f020 0 fmt::v11::detail::fill<char, fmt::v11::basic_appender<char> >(fmt::v11::basic_appender<char>, unsigned long, fmt::v11::detail::fill_t const&)
PUBLIC f1f0 0 fmt::v11::detail::write_padded<char, (fmt::v11::align::type)1, fmt::v11::basic_appender<char>, fmt::v11::detail::write_char<char, fmt::v11::basic_appender<char> >(fmt::v11::basic_appender<char>, char, fmt::v11::format_specs const&)::{lambda(fmt::v11::basic_appender<char>&)#1}>(fmt::v11::basic_appender<char>, fmt::v11::format_specs const&, unsigned long, unsigned long, fmt::v11::detail::write_char<char, fmt::v11::basic_appender<char> >(fmt::v11::basic_appender<char>, char, fmt::v11::format_specs const&)::{lambda(fmt::v11::basic_appender<char>&)#1})
PUBLIC f42c 0 fmt::v11::detail::write_escaped_cp<fmt::v11::basic_appender<char>, char>(fmt::v11::basic_appender<char>, fmt::v11::detail::find_escape_result<char> const&)
PUBLIC f738 0 fmt::v11::detail::write_codepoint<(unsigned long)2, char, fmt::v11::basic_appender<char> >(fmt::v11::basic_appender<char>, char, unsigned int)
PUBLIC f8b0 0 fmt::v11::detail::write_codepoint<(unsigned long)8, char, fmt::v11::basic_appender<char> >(fmt::v11::basic_appender<char>, char, unsigned int)
PUBLIC fa28 0 fmt::v11::detail::write_padded<char, (fmt::v11::align::type)1, fmt::v11::basic_appender<char>, fmt::v11::detail::write_nonfinite<char, fmt::v11::basic_appender<char> >(fmt::v11::basic_appender<char>, bool, fmt::v11::format_specs, fmt::v11::sign::type)::{lambda(fmt::v11::basic_appender<char>&)#1}>(fmt::v11::basic_appender<char>, fmt::v11::format_specs const&, unsigned long, unsigned long, fmt::v11::detail::write_nonfinite<char, fmt::v11::basic_appender<char> >(fmt::v11::basic_appender<char>, bool, fmt::v11::format_specs, fmt::v11::sign::type)::{lambda(fmt::v11::basic_appender<char>&)#1})
PUBLIC fc68 0 fmt::v11::detail::do_write_float<char, fmt::v11::basic_appender<char>, fmt::v11::detail::dragonbox::decimal_fp<float>, fmt::v11::detail::digit_grouping<char> >(fmt::v11::basic_appender<char>, fmt::v11::detail::dragonbox::decimal_fp<float> const&, fmt::v11::format_specs const&, fmt::v11::detail::float_specs, fmt::v11::detail::locale_ref)
PUBLIC 108dc 0 fmt::v11::detail::do_write_float<char, fmt::v11::basic_appender<char>, fmt::v11::detail::dragonbox::decimal_fp<float>, fmt::v11::detail::digit_grouping<char> >(fmt::v11::basic_appender<char>, fmt::v11::detail::dragonbox::decimal_fp<float> const&, fmt::v11::format_specs const&, fmt::v11::detail::float_specs, fmt::v11::detail::locale_ref)::{lambda(fmt::v11::basic_appender<char>(fmt::v11::basic_appender<char>))#1}::operator() const
PUBLIC 10a30 0 fmt::v11::detail::digit_grouping<char>::digit_grouping(fmt::v11::detail::locale_ref, bool)
PUBLIC 10c9c 0 fmt::v11::detail::digit_grouping<char>::~digit_grouping()
PUBLIC 10ce0 0 fmt::v11::detail::write_exponent<char, fmt::v11::basic_appender<char> >(int, fmt::v11::basic_appender<char>)
PUBLIC 10eb0 0 _ZN3fmt3v116detail17write_significandIcjTnNSt6__ndk19enable_ifIXsr3std11is_integralIT0_EE5valueEiE4typeELi0EEEPT_S9_S5_iiS8_
PUBLIC 1102c 0 std::__ndk1::basic_string<char, std::__ndk1::char_traits<char>, std::__ndk1::allocator<char> >::__assign_no_alias<true>(char const*, unsigned long)
PUBLIC 110d8 0 std::__ndk1::basic_string<char, std::__ndk1::char_traits<char>, std::__ndk1::allocator<char> >::__assign_no_alias<false>(char const*, unsigned long)
PUBLIC 111e8 0 fmt::v11::detail::digit_grouping<char>::apply<fmt::v11::basic_appender<char>, char>(fmt::v11::basic_appender<char>, fmt::v11::basic_string_view<char>) const
PUBLIC 115a0 0 fmt::v11::basic_memory_buffer<int, (unsigned long)500, std::__ndk1::allocator<int> >::grow(fmt::v11::detail::buffer<int>&, unsigned long)
PUBLIC 11640 0 fmt::v11::detail::do_write_float<char, fmt::v11::basic_appender<char>, fmt::v11::detail::dragonbox::decimal_fp<double>, fmt::v11::detail::digit_grouping<char> >(fmt::v11::basic_appender<char>, fmt::v11::detail::dragonbox::decimal_fp<double> const&, fmt::v11::format_specs const&, fmt::v11::detail::float_specs, fmt::v11::detail::locale_ref)
PUBLIC 122f4 0 fmt::v11::detail::do_write_float<char, fmt::v11::basic_appender<char>, fmt::v11::detail::dragonbox::decimal_fp<double>, fmt::v11::detail::digit_grouping<char> >(fmt::v11::basic_appender<char>, fmt::v11::detail::dragonbox::decimal_fp<double> const&, fmt::v11::format_specs const&, fmt::v11::detail::float_specs, fmt::v11::detail::locale_ref)::{lambda(fmt::v11::basic_appender<char>(fmt::v11::basic_appender<char>))#1}::operator() const
PUBLIC 1244c 0 _ZN3fmt3v116detail17write_significandIcmTnNSt6__ndk19enable_ifIXsr3std11is_integralIT0_EE5valueEiE4typeELi0EEEPT_S9_S5_iiS8_
PUBLIC 125dc 0 fmt::v11::detail::write_float<char, fmt::v11::basic_appender<char>, long double>(fmt::v11::basic_appender<char>, long double, fmt::v11::format_specs, fmt::v11::detail::locale_ref)
PUBLIC 130d8 0 fmt::v11::detail::write_padded<char, (fmt::v11::align::type)2, fmt::v11::basic_appender<char>, fmt::v11::detail::write_bytes<char, (fmt::v11::align::type)2, fmt::v11::basic_appender<char> >(fmt::v11::basic_appender<char>, fmt::v11::basic_string_view<char>, fmt::v11::format_specs const&)::{lambda(fmt::v11::basic_appender<char>&)#1}>(fmt::v11::basic_appender<char>, fmt::v11::format_specs const&, unsigned long, unsigned long, fmt::v11::detail::write_bytes<char, (fmt::v11::align::type)2, fmt::v11::basic_appender<char> >(fmt::v11::basic_appender<char>, fmt::v11::basic_string_view<char>, fmt::v11::format_specs const&)::{lambda(fmt::v11::basic_appender<char>&)#1})
PUBLIC 132b4 0 fmt::v11::detail::format_dragon(fmt::v11::detail::basic_fp<unsigned __int128>, unsigned int, int, fmt::v11::detail::buffer<char>&, int&)
PUBLIC 146e4 0 fmt::v11::detail::bigint::operator<<=(int)
PUBLIC 14808 0 fmt::v11::detail::bigint::assign_pow10(int)
PUBLIC 14f64 0 fmt::v11::detail::bigint::divmod_assign(fmt::v11::detail::bigint const&)
PUBLIC 15284 0 fmt::v11::basic_memory_buffer<unsigned int, (unsigned long)32, std::__ndk1::allocator<unsigned int> >::grow(fmt::v11::detail::buffer<unsigned int>&, unsigned long)
PUBLIC 15324 0 fmt::v11::detail::do_write_float<char, fmt::v11::basic_appender<char>, fmt::v11::detail::big_decimal_fp, fmt::v11::detail::digit_grouping<char> >(fmt::v11::basic_appender<char>, fmt::v11::detail::big_decimal_fp const&, fmt::v11::format_specs const&, fmt::v11::detail::float_specs, fmt::v11::detail::locale_ref)
PUBLIC 161d4 0 fmt::v11::detail::do_write_float<char, fmt::v11::basic_appender<char>, fmt::v11::detail::big_decimal_fp, fmt::v11::detail::digit_grouping<char> >(fmt::v11::basic_appender<char>, fmt::v11::detail::big_decimal_fp const&, fmt::v11::format_specs const&, fmt::v11::detail::float_specs, fmt::v11::detail::locale_ref)::{lambda(fmt::v11::basic_appender<char>(fmt::v11::basic_appender<char>))#1}::operator() const
PUBLIC 16334 0 fmt::v11::detail::write_padded<char, (fmt::v11::align::type)2, fmt::v11::basic_appender<char>, fmt::v11::detail::write_ptr<char, fmt::v11::basic_appender<char>, unsigned long>(fmt::v11::basic_appender<char>, unsigned long, fmt::v11::format_specs const*)::{lambda(fmt::v11::basic_appender<char>&)#1}>(fmt::v11::basic_appender<char>, fmt::v11::format_specs const&, unsigned long, unsigned long, fmt::v11::detail::write_ptr<char, fmt::v11::basic_appender<char>, unsigned long>(fmt::v11::basic_appender<char>, unsigned long, fmt::v11::format_specs const*)::{lambda(fmt::v11::basic_appender<char>&)#1})
PUBLIC 16548 0 fmt::v11::detail::parse_replacement_field<char, fmt::v11::detail::vformat_to<char>(fmt::v11::detail::buffer<char>&, fmt::v11::basic_string_view<char>, fmt::v11::detail::vformat_args<char>::type, fmt::v11::detail::locale_ref)::format_handler&>(char const*, char const*, fmt::v11::detail::vformat_to<char>(fmt::v11::detail::buffer<char>&, fmt::v11::basic_string_view<char>, fmt::v11::detail::vformat_args<char>::type, fmt::v11::detail::locale_ref)::format_handler&)
PUBLIC 181e4 0 fmt::v11::detail::parse_dynamic_spec<char>(char const*, char const*, int&, fmt::v11::detail::arg_ref<char>&, fmt::v11::basic_format_parse_context<char>&)
PUBLIC 18474 0 fmt::v11::basic_format_args<fmt::v11::context>::get<char>(fmt::v11::basic_string_view<char>) const
PUBLIC 185cc 0 fmt::v11::detail::write_int_noinline<char, fmt::v11::basic_appender<char>, unsigned long>(fmt::v11::basic_appender<char>, fmt::v11::detail::write_int_arg<unsigned long>, fmt::v11::format_specs const&, fmt::v11::detail::locale_ref)
PUBLIC 19420 0 fmt::v11::detail::write_int_noinline<char, fmt::v11::basic_appender<char>, unsigned __int128>(fmt::v11::basic_appender<char>, fmt::v11::detail::write_int_arg<unsigned __int128>, fmt::v11::format_specs const&, fmt::v11::detail::locale_ref)
PUBLIC 1a488 0 _ZN3fmt3v116detail15format_hexfloatIdTnNSt6__ndk19enable_ifIXntsr16is_double_doubleIT_EE5valueEiE4typeELi0EEEvS5_NS0_12format_specsERNS1_6bufferIcEE
PUBLIC 1a9a8 0 fmt::v11::detail::format_float<double>(double, int, fmt::v11::detail::float_specs, fmt::v11::detail::buffer<char>&)
PUBLIC 1b348 0 fmt::v11::detail::write<char, fmt::v11::basic_appender<char> >(fmt::v11::basic_appender<char>, fmt::v11::basic_string_view<char>, fmt::v11::format_specs const&)
PUBLIC 1c6b4 0 fmt::v11::detail::for_each_codepoint<fmt::v11::detail::compute_width(fmt::v11::basic_string_view<char>)::count_code_points>(fmt::v11::basic_string_view<char>, fmt::v11::detail::compute_width(fmt::v11::basic_string_view<char>)::count_code_points)::{lambda(char const*, char const*)#1}::operator()(char const*, char const*) const
PUBLIC 1c86c 0 fmt::v11::detail::write_int<fmt::v11::basic_appender<char>, unsigned long, char>(fmt::v11::basic_appender<char>, unsigned long, unsigned int, fmt::v11::format_specs const&, fmt::v11::detail::digit_grouping<char> const&)
PUBLIC 1cde8 0 fmt::v11::detail::write_int<fmt::v11::basic_appender<char>, unsigned __int128, char>(fmt::v11::basic_appender<char>, unsigned __int128, unsigned int, fmt::v11::format_specs const&, fmt::v11::detail::digit_grouping<char> const&)
PUBLIC 1d470 0 <.plt ELF section in abb2k.custom_icon_size.android64.so>
STACK CFI INIT 6810 10 .cfa: sp 0 +
STACK CFI INIT 6820 8 .cfa: sp 0 +
STACK CFI INIT 6828 8 .cfa: sp 0 +
STACK CFI INIT 6830 14 .cfa: sp 0 +
STACK CFI INIT 6844 1c .cfa: sp 0 +
STACK CFI INIT 6860 10 .cfa: sp 0 +
STACK CFI INIT 6870 30 .cfa: sp 0 +
STACK CFI INIT 68a0 98 .cfa: sp 0 +
STACK CFI INIT 6938 59c .cfa: sp 0 +
STACK CFI INIT 6ed4 8c .cfa: sp 0 +
STACK CFI INIT 6f60 30 .cfa: sp 0 +
STACK CFI INIT 6f90 274 .cfa: sp 0 +
STACK CFI 6f94 .cfa: sp 64 +
STACK CFI 6fa4 .cfa: x29 64 + x19: .cfa -8 + ^ x20: .cfa -16 + ^ x21: .cfa -24 + ^ x22: .cfa -32 + ^ x23: .cfa -48 + ^ .ra: .cfa -56 + ^ x29: .cfa -64 + ^
STACK CFI 718c .cfa: sp 64 +
STACK CFI 719c .cfa: sp 0 +
STACK CFI 71a0 .cfa: x29 64 +
STACK CFI 71f0 .cfa: sp 64 +
STACK CFI 7200 .cfa: sp 0 +
STACK CFI INIT 7dd8 18 .cfa: sp 0 +
STACK CFI INIT 8434 4 .cfa: sp 0 +
STACK CFI INIT 8438 14 .cfa: sp 0 +
STACK CFI 843c .cfa: sp 16 +
STACK CFI 8440 .cfa: x29 16 + .ra: .cfa -8 + ^ x29: .cfa -16 + ^
STACK CFI INIT 844c 10 .cfa: sp 0 +
STACK CFI 8450 .cfa: sp 16 +
STACK CFI 8454 .cfa: x29 16 + .ra: .cfa -8 + ^ x29: .cfa -16 + ^
STACK CFI INIT 84ac 30 .cfa: sp 0 +
STACK CFI 84b0 .cfa: sp 32 +
STACK CFI 84b8 .cfa: x29 32 + x19: .cfa -16 + ^ .ra: .cfa -24 + ^ x29: .cfa -32 + ^
STACK CFI 84d0 .cfa: sp 32 +
STACK CFI 84d8 .cfa: sp 0 +
STACK CFI INIT 84dc 34 .cfa: sp 0 +
STACK CFI 84e0 .cfa: sp 32 +
STACK CFI 84e8 .cfa: x29 32 + x19: .cfa -16 + ^ .ra: .cfa -24 + ^ x29: .cfa -32 + ^
STACK CFI INIT 8510 14 .cfa: sp 0 +
STACK CFI 8514 .cfa: sp 16 +
STACK CFI 8518 .cfa: x29 16 + .ra: .cfa -8 + ^ x29: .cfa -16 + ^
STACK CFI INIT 8524 c .cfa: sp 0 +
STACK CFI 8528 .cfa: sp 16 +
STACK CFI 852c .cfa: x29 16 + .ra: .cfa -8 + ^ x29: .cfa -16 + ^
STACK CFI INIT 8578 38 .cfa: sp 0 +
STACK CFI 857c .cfa: sp 32 +
STACK CFI 8584 .cfa: x29 32 + x19: .cfa -16 + ^ .ra: .cfa -24 + ^ x29: .cfa -32 + ^
STACK CFI 85a4 .cfa: sp 32 +
STACK CFI 85ac .cfa: sp 0 +
STACK CFI INIT 85b0 c .cfa: sp 0 +
STACK CFI 85b4 .cfa: sp 16 +
STACK CFI 85b8 .cfa: x29 16 + .ra: .cfa -8 + ^ x29: .cfa -16 + ^
STACK CFI INIT 85bc 4 .cfa: sp 0 +
STACK CFI INIT 85c0 4 .cfa: sp 0 +
STACK CFI INIT 85c4 38 .cfa: sp 0 +
STACK CFI 85c8 .cfa: sp 32 +
STACK CFI 85d0 .cfa: x29 32 + x19: .cfa -16 + ^ .ra: .cfa -24 + ^ x29: .cfa -32 + ^
STACK CFI 85f0 .cfa: sp 32 +
STACK CFI 85f8 .cfa: sp 0 +
STACK CFI INIT 85fc 18 .cfa: sp 0 +
STACK CFI INIT 8614 4 .cfa: sp 0 +
STACK CFI INIT 8618 4 .cfa: sp 0 +
STACK CFI INIT 861c 10 .cfa: sp 0 +
STACK CFI INIT 862c 1c .cfa: sp 0 +
STACK CFI INIT 8648 c .cfa: sp 0 +
STACK CFI INIT 8c9c 50 .cfa: sp 0 +
STACK CFI 8ca0 .cfa: sp 32 +
STACK CFI 8ca8 .cfa: x29 32 + x19: .cfa -16 + ^ .ra: .cfa -24 + ^ x29: .cfa -32 + ^
STACK CFI 8cc0 .cfa: sp 32 +
STACK CFI 8cc8 .cfa: sp 0 +
STACK CFI 8ccc .cfa: x29 32 +
STACK CFI 8ce0 .cfa: sp 32 +
STACK CFI 8ce8 .cfa: sp 0 +
STACK CFI INIT 8d60 7c .cfa: sp 0 +
STACK CFI 8d64 .cfa: sp 48 +
STACK CFI 8d70 .cfa: x29 48 + x19: .cfa -8 + ^ x20: .cfa -16 + ^ x21: .cfa -32 + ^ .ra: .cfa -40 + ^ x29: .cfa -48 + ^
STACK CFI 8dbc .cfa: sp 48 +
STACK CFI 8dc8 .cfa: sp 0 +
STACK CFI 8dcc .cfa: sp 48 +
STACK CFI 8dd8 .cfa: sp 0 +
STACK CFI INIT 8ddc 4 .cfa: sp 0 +
STACK CFI INIT 94dc 34 .cfa: sp 0 +
STACK CFI 94e0 .cfa: sp 16 +
STACK CFI 94e4 .cfa: x29 16 + .ra: .cfa -8 + ^ x29: .cfa -16 + ^
STACK CFI INIT 9510 80 .cfa: sp 0 +
STACK CFI 9514 .cfa: sp 48 +
STACK CFI 9520 .cfa: x29 48 + x19: .cfa -8 + ^ x20: .cfa -16 + ^ x21: .cfa -32 + ^ .ra: .cfa -40 + ^ x29: .cfa -48 + ^
STACK CFI 9580 .cfa: sp 48 +
STACK CFI 958c .cfa: sp 0 +
STACK CFI INIT 9590 24 .cfa: sp 0 +
STACK CFI 9594 .cfa: sp 32 +
STACK CFI 959c .cfa: x29 32 + x19: .cfa -16 + ^ .ra: .cfa -24 + ^ x29: .cfa -32 + ^
STACK CFI 95a8 .cfa: sp 32 +
STACK CFI 95b0 .cfa: sp 0 +
STACK CFI INIT 95b4 14 .cfa: sp 0 +
STACK CFI 95b8 .cfa: sp 16 +
STACK CFI 95bc .cfa: x29 16 + .ra: .cfa -8 + ^ x29: .cfa -16 + ^
STACK CFI INIT 95c8 80 .cfa: sp 0 +
STACK CFI 95cc .cfa: sp 48 +
STACK CFI 95d8 .cfa: x29 48 + x19: .cfa -8 + ^ x20: .cfa -16 + ^ x21: .cfa -24 + ^ x22: .cfa -32 + ^ .ra: .cfa -40 + ^ x29: .cfa -48 + ^
STACK CFI 95f0 .cfa: sp 48 +
STACK CFI 95fc .cfa: sp 0 +
STACK CFI 9600 .cfa: x29 48 +
STACK CFI 9630 .cfa: sp 48 +
STACK CFI 963c .cfa: sp 0 +
STACK CFI 9640 .cfa: x29 48 +
STACK CFI INIT 9648 68 .cfa: sp 0 +
STACK CFI 964c .cfa: sp 32 +
STACK CFI 9654 .cfa: x29 32 + x19: .cfa -8 + ^ x20: .cfa -16 + ^ .ra: .cfa -24 + ^ x29: .cfa -32 + ^
STACK CFI 966c .cfa: sp 32 +
STACK CFI 9674 .cfa: sp 0 +
STACK CFI 9678 .cfa: x29 32 +
STACK CFI 96a4 .cfa: sp 32 +
STACK CFI 96ac .cfa: sp 0 +
STACK CFI INIT 96b0 14 .cfa: sp 0 +
STACK CFI 96b4 .cfa: sp 16 +
STACK CFI 96b8 .cfa: x29 16 + .ra: .cfa -8 + ^ x29: .cfa -16 + ^
STACK CFI INIT 96c4 4 .cfa: sp 0 +
STACK CFI INIT 96c8 14 .cfa: sp 0 +
STACK CFI INIT 96dc 84 .cfa: sp 0 +
STACK CFI 96e4 .cfa: sp 32 +
STACK CFI 96ec .cfa: x29 32 + x19: .cfa -8 + ^ x20: .cfa -16 + ^ .ra: .cfa -24 + ^ x29: .cfa -32 + ^
STACK CFI 972c .cfa: sp 32 +
STACK CFI 9734 .cfa: sp 0 +
STACK CFI 973c .cfa: x29 32 +
STACK CFI INIT 9760 8c .cfa: sp 0 +
STACK CFI 9764 .cfa: sp 48 +
STACK CFI 9770 .cfa: x29 48 + x19: .cfa -8 + ^ x20: .cfa -16 + ^ x21: .cfa -32 + ^ .ra: .cfa -40 + ^ x29: .cfa -48 + ^
STACK CFI 97b8 .cfa: sp 48 +
STACK CFI 97c4 .cfa: sp 0 +
STACK CFI 97c8 .cfa: x29 48 +
STACK CFI INIT 97ec 50 .cfa: sp 0 +
STACK CFI 97f0 .cfa: sp 32 +
STACK CFI 97f8 .cfa: x29 32 + x19: .cfa -16 + ^ .ra: .cfa -24 + ^ x29: .cfa -32 + ^
STACK CFI 9810 .cfa: sp 32 +
STACK CFI 9818 .cfa: sp 0 +
STACK CFI 981c .cfa: x29 32 +
STACK CFI 9830 .cfa: sp 32 +
STACK CFI 9838 .cfa: sp 0 +
STACK CFI INIT 983c 64 .cfa: sp 0 +
STACK CFI 9840 .cfa: sp 32 +
STACK CFI 9848 .cfa: x29 32 + x19: .cfa -16 + ^ .ra: .cfa -24 + ^ x29: .cfa -32 + ^
STACK CFI 9874 .cfa: sp 32 +
STACK CFI 987c .cfa: sp 0 +
STACK CFI 9880 .cfa: x29 32 +
STACK CFI 9894 .cfa: sp 32 +
STACK CFI 989c .cfa: sp 0 +
STACK CFI INIT a92c 104 .cfa: sp 0 +
STACK CFI a930 .cfa: sp 64 +
STACK CFI a940 .cfa: x29 64 + x19: .cfa -8 + ^ x20: .cfa -16 + ^ x21: .cfa -24 + ^ x22: .cfa -32 + ^ x23: .cfa -48 + ^ .ra: .cfa -56 + ^ x29: .cfa -64 + ^
STACK CFI a99c .cfa: sp 64 +
STACK CFI a9ac .cfa: sp 0 +
STACK CFI a9b0 .cfa: x29 64 +
STACK CFI a9cc .cfa: sp 64 +
STACK CFI a9dc .cfa: sp 0 +
STACK CFI a9e0 .cfa: x29 64 +
STACK CFI aa1c .cfa: sp 64 +
STACK CFI aa2c .cfa: sp 0 +
STACK CFI INIT aa30 3c .cfa: sp 0 +
STACK CFI aa34 .cfa: sp 32 +
STACK CFI aa3c .cfa: x29 32 + x19: .cfa -16 + ^ .ra: .cfa -24 + ^ x29: .cfa -32 + ^
STACK CFI aa48 .cfa: sp 32 +
STACK CFI aa50 .cfa: sp 0 +
STACK CFI aa54 .cfa: x29 32 +
STACK CFI aa60 .cfa: sp 32 +
STACK CFI aa68 .cfa: sp 0 +
STACK CFI INIT aa6c c .cfa: sp 0 +
STACK CFI INIT aa78 24c .cfa: sp 0 +
STACK CFI INIT acc4 a0 .cfa: sp 0 +
STACK CFI acd0 .cfa: sp 32 +
STACK CFI ad28 .cfa: sp 0 +
STACK CFI ad2c .cfa: sp 32 +
STACK CFI ad34 .cfa: sp 0 +
STACK CFI ad38 .cfa: sp 32 +
STACK CFI ad4c .cfa: sp 0 +
STACK CFI ad50 .cfa: sp 32 +
STACK CFI ad60 .cfa: sp 0 +
STACK CFI INIT ad64 38 .cfa: sp 0 +
STACK CFI ad70 .cfa: sp 32 +
STACK CFI ad98 .cfa: sp 0 +
STACK CFI INIT b030 7c .cfa: sp 0 +
STACK CFI b034 .cfa: sp 32 +
STACK CFI b03c .cfa: x29 32 + x19: .cfa -16 + ^ .ra: .cfa -24 + ^ x29: .cfa -32 + ^
STACK CFI b068 .cfa: sp 32 +
STACK CFI b070 .cfa: sp 0 +
STACK CFI b074 .cfa: x29 32 +
STACK CFI b0a0 .cfa: sp 32 +
STACK CFI b0a8 .cfa: sp 0 +
STACK CFI INIT b0fc 2c .cfa: sp 0 +
STACK CFI b100 .cfa: sp 32 +
STACK CFI b108 .cfa: x29 32 + x19: .cfa -16 + ^ .ra: .cfa -24 + ^ x29: .cfa -32 + ^
STACK CFI b11c .cfa: sp 32 +
STACK CFI b124 .cfa: sp 0 +
STACK CFI INIT b8e8 64 .cfa: sp 0 +
STACK CFI b8ec .cfa: sp 32 +
STACK CFI b8f4 .cfa: x29 32 + x19: .cfa -16 + ^ .ra: .cfa -24 + ^ x29: .cfa -32 + ^
STACK CFI b910 .cfa: sp 32 +
STACK CFI b918 .cfa: sp 0 +
STACK CFI b91c .cfa: x29 32 +
STACK CFI b940 .cfa: sp 32 +
STACK CFI b948 .cfa: sp 0 +
STACK CFI INIT b94c 570 .cfa: sp 0 +
STACK CFI b950 .cfa: sp 176 +
STACK CFI b964 .cfa: x29 64 + x19: .cfa -8 + ^ x20: .cfa -16 + ^ x21: .cfa -24 + ^ x22: .cfa -32 + ^ x23: .cfa -40 + ^ x24: .cfa -48 + ^ .ra: .cfa -56 + ^ x29: .cfa -64 + ^
STACK CFI bb94 .cfa: sp 176 +
STACK CFI bba8 .cfa: sp 0 +
STACK CFI bbac .cfa: x29 64 +
STACK CFI bbf8 .cfa: sp 176 +
STACK CFI bc0c .cfa: sp 0 +
STACK CFI bc10 .cfa: x29 64 +
STACK CFI bc48 .cfa: sp 176 +
STACK CFI bc5c .cfa: sp 0 +
STACK CFI bc60 .cfa: x29 64 +
STACK CFI bc78 .cfa: sp 176 +
STACK CFI bc8c .cfa: sp 0 +
STACK CFI bc90 .cfa: x29 64 +
STACK CFI bcb0 .cfa: sp 176 +
STACK CFI bcc4 .cfa: sp 0 +
STACK CFI bcc8 .cfa: x29 64 +
STACK CFI bce0 .cfa: sp 176 +
STACK CFI bcf4 .cfa: sp 0 +
STACK CFI bcf8 .cfa: x29 64 +
STACK CFI bd0c .cfa: sp 176 +
STACK CFI bd20 .cfa: sp 0 +
STACK CFI bd24 .cfa: x29 64 +
STACK CFI bd38 .cfa: sp 176 +
STACK CFI bd4c .cfa: sp 0 +
STACK CFI bd50 .cfa: x29 64 +
STACK CFI bd60 .cfa: sp 176 +
STACK CFI bd74 .cfa: sp 0 +
STACK CFI bd78 .cfa: x29 64 +
STACK CFI bd88 .cfa: sp 176 +
STACK CFI bd9c .cfa: sp 0 +
STACK CFI bda0 .cfa: x29 64 +
STACK CFI bdb8 .cfa: sp 176 +
STACK CFI bdcc .cfa: sp 0 +
STACK CFI bdd0 .cfa: x29 64 +
STACK CFI bde4 .cfa: sp 176 +
STACK CFI bdf8 .cfa: sp 0 +
STACK CFI bdfc .cfa: x29 64 +
STACK CFI be14 .cfa: sp 176 +
STACK CFI be28 .cfa: sp 0 +
STACK CFI be2c .cfa: x29 64 +
STACK CFI be58 .cfa: sp 176 +
STACK CFI be6c .cfa: sp 0 +
STACK CFI be70 .cfa: x29 64 +
STACK CFI be84 .cfa: sp 176 +
STACK CFI be98 .cfa: sp 0 +
STACK CFI be9c .cfa: x29 64 +
STACK CFI INIT bebc 228 .cfa: sp 0 +
STACK CFI INIT c0e4 2dc .cfa: sp 0 +
STACK CFI INIT c3c0 53c .cfa: sp 0 +
STACK CFI INIT c8fc 78 .cfa: sp 0 +
STACK CFI c900 .cfa: sp 48 +
STACK CFI c90c .cfa: x29 48 + x19: .cfa -8 + ^ x20: .cfa -16 + ^ x21: .cfa -24 + ^ x22: .cfa -32 + ^ .ra: .cfa -40 + ^ x29: .cfa -48 + ^
STACK CFI c954 .cfa: sp 48 +
STACK CFI c960 .cfa: sp 0 +
STACK CFI c964 .cfa: sp 48 +
STACK CFI c970 .cfa: sp 0 +
STACK CFI INIT c974 8c .cfa: sp 0 +
STACK CFI c978 .cfa: sp 32 +
STACK CFI c980 .cfa: x29 32 + x19: .cfa -16 + ^ .ra: .cfa -24 + ^ x29: .cfa -32 + ^
STACK CFI c9b4 .cfa: sp 32 +
STACK CFI c9bc .cfa: sp 0 +
STACK CFI c9c0 .cfa: x29 32 +
STACK CFI c9f4 .cfa: sp 32 +
STACK CFI c9fc .cfa: sp 0 +
STACK CFI INIT ca00 24 .cfa: sp 0 +
STACK CFI ca04 .cfa: sp 32 +
STACK CFI ca0c .cfa: x29 32 + x19: .cfa -16 + ^ .ra: .cfa -24 + ^ x29: .cfa -32 + ^
STACK CFI ca18 .cfa: sp 32 +
STACK CFI ca20 .cfa: sp 0 +
STACK CFI INIT ca24 150 .cfa: sp 0 +
STACK CFI ca28 .cfa: sp 48 +
STACK CFI ca34 .cfa: x29 48 + x19: .cfa -8 + ^ x20: .cfa -16 + ^ x21: .cfa -24 + ^ x22: .cfa -32 + ^ .ra: .cfa -40 + ^ x29: .cfa -48 + ^
STACK CFI cb64 .cfa: sp 48 +
STACK CFI cb70 .cfa: sp 0 +
STACK CFI INIT cb74 68 .cfa: sp 0 +
STACK CFI cb78 .cfa: sp 64 +
STACK CFI cb84 .cfa: x29 32 + x19: .cfa -16 + ^ .ra: .cfa -24 + ^ x29: .cfa -32 + ^
STACK CFI cbc8 .cfa: sp 64 +
STACK CFI cbd4 .cfa: sp 0 +
STACK CFI cbd8 .cfa: x29 32 +
STACK CFI INIT cbdc 90 .cfa: sp 0 +
STACK CFI cbe0 .cfa: sp 32 +
STACK CFI cbe8 .cfa: x29 32 + x19: .cfa -8 + ^ x20: .cfa -16 + ^ .ra: .cfa -24 + ^ x29: .cfa -32 + ^
STACK CFI cc14 .cfa: sp 32 +
STACK CFI cc1c .cfa: sp 0 +
STACK CFI cc20 .cfa: x29 32 +
STACK CFI cc60 .cfa: sp 32 +
STACK CFI cc68 .cfa: sp 0 +
STACK CFI INIT cc6c ec .cfa: sp 0 +
STACK CFI cc70 .cfa: sp 112 +
STACK CFI cc80 .cfa: x29 48 + x19: .cfa -8 + ^ x20: .cfa -16 + ^ x21: .cfa -32 + ^ .ra: .cfa -40 + ^ x29: .cfa -48 + ^
STACK CFI cd40 .cfa: sp 112 +
STACK CFI cd50 .cfa: sp 0 +
STACK CFI cd54 .cfa: x29 48 +
STACK CFI INIT cd58 ec .cfa: sp 0 +
STACK CFI cd5c .cfa: sp 112 +
STACK CFI cd6c .cfa: x29 48 + x19: .cfa -8 + ^ x20: .cfa -16 + ^ x21: .cfa -32 + ^ .ra: .cfa -40 + ^ x29: .cfa -48 + ^
STACK CFI ce2c .cfa: sp 112 +
STACK CFI ce3c .cfa: sp 0 +
STACK CFI ce40 .cfa: x29 48 +
STACK CFI INIT ce44 48 .cfa: sp 0 +
STACK CFI ce48 .cfa: sp 32 +
STACK CFI ce50 .cfa: x29 32 + x19: .cfa -8 + ^ x20: .cfa -16 + ^ .ra: .cfa -24 + ^ x29: .cfa -32 + ^
STACK CFI ce74 .cfa: sp 32 +
STACK CFI ce7c .cfa: sp 0 +
STACK CFI ce80 .cfa: x29 32 +
STACK CFI INIT ce8c 98 .cfa: sp 0 +
STACK CFI ce90 .cfa: sp 80 +
STACK CFI ce9c .cfa: x29 32 + x19: .cfa -16 + ^ .ra: .cfa -24 + ^ x29: .cfa -32 + ^
STACK CFI cf10 .cfa: sp 80 +
STACK CFI cf1c .cfa: sp 0 +
STACK CFI cf20 .cfa: x29 32 +
STACK CFI INIT cf24 260 .cfa: sp 0 +
STACK CFI cf28 .cfa: sp 112 +
STACK CFI cf40 .cfa: x29 80 + x19: .cfa -8 + ^ x20: .cfa -16 + ^ x21: .cfa -24 + ^ x22: .cfa -32 + ^ x23: .cfa -40 + ^ x24: .cfa -48 + ^ x25: .cfa -64 + ^ .ra: .cfa -72 + ^ x29: .cfa -80 + ^
STACK CFI d124 .cfa: sp 112 +
STACK CFI d13c .cfa: sp 0 +
STACK CFI d140 .cfa: x29 80 +
STACK CFI INIT d184 150 .cfa: sp 0 +
STACK CFI d188 .cfa: sp 48 +
STACK CFI d194 .cfa: x29 48 + x19: .cfa -8 + ^ x20: .cfa -16 + ^ x21: .cfa -24 + ^ x22: .cfa -32 + ^ .ra: .cfa -40 + ^ x29: .cfa -48 + ^
STACK CFI d2c4 .cfa: sp 48 +
STACK CFI d2d0 .cfa: sp 0 +
STACK CFI INIT d2d4 1e0 .cfa: sp 0 +
STACK CFI d2d8 .cfa: sp 96 +
STACK CFI d2ec .cfa: x29 64 + x19: .cfa -8 + ^ x20: .cfa -16 + ^ x21: .cfa -24 + ^ x22: .cfa -32 + ^ x23: .cfa -40 + ^ x24: .cfa -48 + ^ .ra: .cfa -56 + ^ x29: .cfa -64 + ^
STACK CFI d46c .cfa: sp 96 +
STACK CFI d480 .cfa: sp 0 +
STACK CFI d484 .cfa: x29 64 +
STACK CFI INIT d4b4 284 .cfa: sp 0 +
STACK CFI d4b8 .cfa: sp 112 +
STACK CFI d4d0 .cfa: x29 80 + x19: .cfa -8 + ^ x20: .cfa -16 + ^ x21: .cfa -24 + ^ x22: .cfa -32 + ^ x23: .cfa -40 + ^ x24: .cfa -48 + ^ x25: .cfa -64 + ^ .ra: .cfa -72 + ^ x29: .cfa -80 + ^
STACK CFI d6d8 .cfa: sp 112 +
STACK CFI d6f0 .cfa: sp 0 +
STACK CFI d6f4 .cfa: x29 80 +
STACK CFI INIT d738 208 .cfa: sp 0 +
STACK CFI d73c .cfa: sp 96 +
STACK CFI d750 .cfa: x29 64 + x19: .cfa -8 + ^ x20: .cfa -16 + ^ x21: .cfa -24 + ^ x22: .cfa -32 + ^ x23: .cfa -40 + ^ x24: .cfa -48 + ^ .ra: .cfa -56 + ^ x29: .cfa -64 + ^
STACK CFI d8f8 .cfa: sp 96 +
STACK CFI d90c .cfa: sp 0 +
STACK CFI d910 .cfa: x29 64 +
STACK CFI INIT d940 360 .cfa: sp 0 +
STACK CFI d944 .cfa: sp 160 +
STACK CFI d960 .cfa: x29 96 + x19: .cfa -8 + ^ x20: .cfa -16 + ^ x21: .cfa -24 + ^ x22: .cfa -32 + ^ x23: .cfa -40 + ^ x24: .cfa -48 + ^ x25: .cfa -56 + ^ x26: .cfa -64 + ^ x27: .cfa -72 + ^ x28: .cfa -80 + ^ .ra: .cfa -88 + ^ x29: .cfa -96 + ^
STACK CFI dc2c .cfa: sp 160 +
STACK CFI dc48 .cfa: sp 0 +
STACK CFI dc4c .cfa: x29 96 +
STACK CFI INIT dca0 314 .cfa: sp 0 +
STACK CFI dca4 .cfa: sp 144 +
STACK CFI dcc0 .cfa: x29 96 + x19: .cfa -8 + ^ x20: .cfa -16 + ^ x21: .cfa -24 + ^ x22: .cfa -32 + ^ x23: .cfa -40 + ^ x24: .cfa -48 + ^ x25: .cfa -56 + ^ x26: .cfa -64 + ^ x27: .cfa -72 + ^ x28: .cfa -80 + ^ .ra: .cfa -88 + ^ x29: .cfa -96 + ^
STACK CFI df3c .cfa: sp 144 +
STACK CFI df58 .cfa: sp 0 +
STACK CFI df5c .cfa: x29 96 +
STACK CFI INIT dfb4 290 .cfa: sp 0 +
STACK CFI dfb8 .cfa: sp 128 +
STACK CFI dfd0 .cfa: x29 80 + x19: .cfa -8 + ^ x20: .cfa -16 + ^ x21: .cfa -24 + ^ x22: .cfa -32 + ^ x23: .cfa -40 + ^ x24: .cfa -48 + ^ x25: .cfa -56 + ^ x26: .cfa -64 + ^ .ra: .cfa -72 + ^ x29: .cfa -80 + ^
STACK CFI e224 .cfa: sp 128 +
STACK CFI e23c .cfa: sp 0 +
STACK CFI e240 .cfa: x29 80 +
STACK CFI INIT e244 ddc .cfa: sp 0 +
STACK CFI e248 .cfa: sp 144 +
STACK CFI e264 .cfa: x29 96 + x19: .cfa -8 + ^ x20: .cfa -16 + ^ x21: .cfa -24 + ^ x22: .cfa -32 + ^ x23: .cfa -40 + ^ x24: .cfa -48 + ^ x25: .cfa -56 + ^ x26: .cfa -64 + ^ x27: .cfa -72 + ^ x28: .cfa -80 + ^ .ra: .cfa -88 + ^ x29: .cfa -96 + ^
STACK CFI eef8 .cfa: sp 144 +
STACK CFI ef14 .cfa: sp 0 +
STACK CFI ef18 .cfa: x29 96 +
STACK CFI INIT f020 1d0 .cfa: sp 0 +
STACK CFI f024 .cfa: sp 80 +
STACK CFI f038 .cfa: x29 80 + x19: .cfa -8 + ^ x20: .cfa -16 + ^ x21: .cfa -24 + ^ x22: .cfa -32 + ^ x23: .cfa -40 + ^ x24: .cfa -48 + ^ x25: .cfa -64 + ^ .ra: .cfa -72 + ^ x29: .cfa -80 + ^
STACK CFI f1d8 .cfa: sp 80 +
STACK CFI f1ec .cfa: sp 0 +
STACK CFI INIT f1f0 23c .cfa: sp 0 +
STACK CFI f1f4 .cfa: sp 112 +
STACK CFI f208 .cfa: x29 64 + x19: .cfa -8 + ^ x20: .cfa -16 + ^ x21: .cfa -24 + ^ x22: .cfa -32 + ^ x23: .cfa -40 + ^ x24: .cfa -48 + ^ .ra: .cfa -56 + ^ x29: .cfa -64 + ^
STACK CFI f3e4 .cfa: sp 112 +
STACK CFI f3f8 .cfa: sp 0 +
STACK CFI f3fc .cfa: x29 64 +
STACK CFI INIT f42c 30c .cfa: sp 0 +
STACK CFI f430 .cfa: sp 80 +
STACK CFI f444 .cfa: x29 64 + x19: .cfa -8 + ^ x20: .cfa -16 + ^ x21: .cfa -24 + ^ x22: .cfa -32 + ^ x23: .cfa -40 + ^ x24: .cfa -48 + ^ .ra: .cfa -56 + ^ x29: .cfa -64 + ^
STACK CFI f5c0 .cfa: sp 80 +
STACK CFI f5d4 .cfa: sp 0 +
STACK CFI f5d8 .cfa: x29 64 +
STACK CFI INIT f738 178 .cfa: sp 0 +
STACK CFI f73c .cfa: sp 80 +
STACK CFI f750 .cfa: x29 64 + x19: .cfa -8 + ^ x20: .cfa -16 + ^ x21: .cfa -24 + ^ x22: .cfa -32 + ^ x23: .cfa -40 + ^ x24: .cfa -48 + ^ .ra: .cfa -56 + ^ x29: .cfa -64 + ^
STACK CFI f894 .cfa: sp 80 +
STACK CFI f8a8 .cfa: sp 0 +
STACK CFI f8ac .cfa: x29 64 +
STACK CFI INIT f8b0 178 .cfa: sp 0 +
STACK CFI f8b4 .cfa: sp 80 +
STACK CFI f8c8 .cfa: x29 64 + x19: .cfa -8 + ^ x20: .cfa -16 + ^ x21: .cfa -24 + ^ x22: .cfa -32 + ^ x23: .cfa -40 + ^ x24: .cfa -48 + ^ .ra: .cfa -56 + ^ x29: .cfa -64 + ^
STACK CFI fa0c .cfa: sp 80 +
STACK CFI fa20 .cfa: sp 0 +
STACK CFI fa24 .cfa: x29 64 +
STACK CFI INIT fa28 240 .cfa: sp 0 +
STACK CFI fa2c .cfa: sp 96 +
STACK CFI fa44 .cfa: x29 96 + x19: .cfa -8 + ^ x20: .cfa -16 + ^ x21: .cfa -24 + ^ x22: .cfa -32 + ^ x23: .cfa -40 + ^ x24: .cfa -48 + ^ x25: .cfa -56 + ^ x26: .cfa -64 + ^ x27: .cfa -72 + ^ x28: .cfa -80 + ^ .ra: .cfa -88 + ^ x29: .cfa -96 + ^
STACK CFI fc4c .cfa: sp 96 +
STACK CFI fc64 .cfa: sp 0 +
STACK CFI INIT 108dc 154 .cfa: sp 0 +
STACK CFI 108e0 .cfa: sp 96 +
STACK CFI 108f4 .cfa: x29 64 + x19: .cfa -8 + ^ x20: .cfa -16 + ^ x21: .cfa -24 + ^ x22: .cfa -32 + ^ x23: .cfa -48 + ^ .ra: .cfa -56 + ^ x29: .cfa -64 + ^
STACK CFI 109d4 .cfa: sp 96 +
STACK CFI 109e8 .cfa: sp 0 +
STACK CFI 109ec .cfa: x29 64 +
STACK CFI INIT 10c9c 44 .cfa: sp 0 +
STACK CFI 10ca0 .cfa: sp 32 +
STACK CFI 10ca8 .cfa: x29 32 + x19: .cfa -16 + ^ .ra: .cfa -24 + ^ x29: .cfa -32 + ^
STACK CFI 10cc4 .cfa: sp 32 +
STACK CFI 10ccc .cfa: sp 0 +
STACK CFI 10cd0 .cfa: x29 32 +
STACK CFI 10cd4 .cfa: sp 32 +
STACK CFI 10cdc .cfa: sp 0 +
STACK CFI INIT 10ce0 1d0 .cfa: sp 0 +
STACK CFI 10ce4 .cfa: sp 64 +
STACK CFI 10cf4 .cfa: x29 64 + x19: .cfa -8 + ^ x20: .cfa -16 + ^ x21: .cfa -24 + ^ x22: .cfa -32 + ^ x23: .cfa -40 + ^ x24: .cfa -48 + ^ .ra: .cfa -56 + ^ x29: .cfa -64 + ^
STACK CFI 10db4 .cfa: sp 64 +
STACK CFI 10dc4 .cfa: sp 0 +
STACK CFI 10dc8 .cfa: x29 64 +
STACK CFI INIT 10eb0 17c .cfa: sp 0 +
STACK CFI INIT 1102c ac .cfa: sp 0 +
STACK CFI 11030 .cfa: sp 64 +
STACK CFI 11040 .cfa: x29 64 + x19: .cfa -8 + ^ x20: .cfa -16 + ^ x21: .cfa -24 + ^ x22: .cfa -32 + ^ x23: .cfa -48 + ^ .ra: .cfa -56 + ^ x29: .cfa -64 + ^
STACK CFI 110bc .cfa: sp 64 +
STACK CFI 110cc .cfa: sp 0 +
STACK CFI 110d0 .cfa: x29 64 +
STACK CFI INIT 110d8 110 .cfa: sp 0 +
STACK CFI 110dc .cfa: sp 64 +
STACK CFI 110ec .cfa: x29 64 + x19: .cfa -8 + ^ x20: .cfa -16 + ^ x21: .cfa -24 + ^ x22: .cfa -32 + ^ x23: .cfa -40 + ^ x24: .cfa -48 + ^ .ra: .cfa -56 + ^ x29: .cfa -64 + ^
STACK CFI 111cc .cfa: sp 64 +
STACK CFI 111dc .cfa: sp 0 +
STACK CFI 111e0 .cfa: x29 64 +
STACK CFI INIT 115a0 a0 .cfa: sp 0 +
STACK CFI 115a4 .cfa: sp 48 +
STACK CFI 115b0 .cfa: x29 48 + x19: .cfa -8 + ^ x20: .cfa -16 + ^ x21: .cfa -24 + ^ x22: .cfa -32 + ^ .ra: .cfa -40 + ^ x29: .cfa -48 + ^
STACK CFI 1161c .cfa: sp 48 +
STACK CFI 11628 .cfa: sp 0 +
STACK CFI 1162c .cfa: sp 48 +
STACK CFI 11638 .cfa: sp 0 +
STACK CFI 1163c .cfa: x29 48 +
STACK CFI INIT 122f4 158 .cfa: sp 0 +
STACK CFI 122f8 .cfa: sp 96 +
STACK CFI 1230c .cfa: x29 64 + x19: .cfa -8 + ^ x20: .cfa -16 + ^ x21: .cfa -24 + ^ x22: .cfa -32 + ^ x23: .cfa -48 + ^ .ra: .cfa -56 + ^ x29: .cfa -64 + ^
STACK CFI 123f0 .cfa: sp 96 +
STACK CFI 12404 .cfa: sp 0 +
STACK CFI 12408 .cfa: x29 64 +
STACK CFI INIT 1244c 190 .cfa: sp 0 +
STACK CFI INIT 130d8 1dc .cfa: sp 0 +
STACK CFI 130dc .cfa: sp 80 +
STACK CFI 130f0 .cfa: x29 80 + x19: .cfa -8 + ^ x20: .cfa -16 + ^ x21: .cfa -24 + ^ x22: .cfa -32 + ^ x23: .cfa -40 + ^ x24: .cfa -48 + ^ x25: .cfa -64 + ^ .ra: .cfa -72 + ^ x29: .cfa -80 + ^
STACK CFI 1329c .cfa: sp 80 +
STACK CFI 132b0 .cfa: sp 0 +
STACK CFI INIT 146e4 124 .cfa: sp 0 +
STACK CFI 14714 .cfa: sp 32 +
STACK CFI 1471c .cfa: x29 32 + x19: .cfa -8 + ^ x20: .cfa -16 + ^ .ra: .cfa -24 + ^ x29: .cfa -32 + ^
STACK CFI 147fc .cfa: sp 32 +
STACK CFI 14804 .cfa: sp 0 +
STACK CFI INIT 14f64 320 .cfa: sp 0 +
STACK CFI 14f68 .cfa: sp 64 +
STACK CFI 14f78 .cfa: x29 64 + x19: .cfa -8 + ^ x20: .cfa -16 + ^ x21: .cfa -24 + ^ x22: .cfa -32 + ^ x23: .cfa -40 + ^ x24: .cfa -48 + ^ .ra: .cfa -56 + ^ x29: .cfa -64 + ^
STACK CFI 14ff4 .cfa: sp 64 +
STACK CFI 15004 .cfa: sp 0 +
STACK CFI 15008 .cfa: x29 64 +
STACK CFI 151dc .cfa: sp 64 +
STACK CFI 151ec .cfa: sp 0 +
STACK CFI 151f0 .cfa: x29 64 +
STACK CFI 15200 .cfa: sp 64 +
STACK CFI 15210 .cfa: sp 0 +
STACK CFI 15214 .cfa: x29 64 +
STACK CFI INIT 15284 a0 .cfa: sp 0 +
STACK CFI 15288 .cfa: sp 48 +
STACK CFI 15294 .cfa: x29 48 + x19: .cfa -8 + ^ x20: .cfa -16 + ^ x21: .cfa -24 + ^ x22: .cfa -32 + ^ .ra: .cfa -40 + ^ x29: .cfa -48 + ^
STACK CFI 15300 .cfa: sp 48 +
STACK CFI 1530c .cfa: sp 0 +
STACK CFI 15310 .cfa: sp 48 +
STACK CFI 1531c .cfa: sp 0 +
STACK CFI 15320 .cfa: x29 48 +
STACK CFI INIT 161d4 160 .cfa: sp 0 +
STACK CFI 161d8 .cfa: sp 64 +
STACK CFI 161e8 .cfa: x29 64 + x19: .cfa -8 + ^ x20: .cfa -16 + ^ x21: .cfa -24 + ^ x22: .cfa -32 + ^ x23: .cfa -48 + ^ .ra: .cfa -56 + ^ x29: .cfa -64 + ^
STACK CFI 162e0 .cfa: sp 64 +
STACK CFI 162f0 .cfa: sp 0 +
STACK CFI 162f4 .cfa: x29 64 +
STACK CFI INIT 16334 214 .cfa: sp 0 +
STACK CFI 16338 .cfa: sp 128 +
STACK CFI 16354 .cfa: x29 96 + x19: .cfa -8 + ^ x20: .cfa -16 + ^ x21: .cfa -24 + ^ x22: .cfa -32 + ^ x23: .cfa -40 + ^ x24: .cfa -48 + ^ x25: .cfa -56 + ^ x26: .cfa -64 + ^ x27: .cfa -80 + ^ .ra: .cfa -88 + ^ x29: .cfa -96 + ^
STACK CFI 164d0 .cfa: sp 128 +
STACK CFI 164ec .cfa: sp 0 +
STACK CFI 164f0 .cfa: x29 96 +
STACK CFI INIT 181e4 290 .cfa: sp 0 +
STACK CFI 181e8 .cfa: sp 16 +
STACK CFI 181ec .cfa: x29 16 + .ra: .cfa -8 + ^ x29: .cfa -16 + ^
STACK CFI 18278 .cfa: sp 16 +
STACK CFI 1827c .cfa: sp 0 +
STACK CFI 18280 .cfa: x29 16 +
STACK CFI 182d0 .cfa: sp 16 +
STACK CFI 182d4 .cfa: sp 0 +
STACK CFI 182d8 .cfa: x29 16 +
STACK CFI 1843c .cfa: sp 16 +
STACK CFI 18440 .cfa: sp 0 +
STACK CFI 18444 .cfa: x29 16 +
STACK CFI INIT 18474 158 .cfa: sp 0 +
STACK CFI 18478 .cfa: sp 112 +
STACK CFI 18494 .cfa: x29 96 + x19: .cfa -8 + ^ x20: .cfa -16 + ^ x21: .cfa -24 + ^ x22: .cfa -32 + ^ x23: .cfa -40 + ^ x24: .cfa -48 + ^ x25: .cfa -56 + ^ x26: .cfa -64 + ^ x27: .cfa -72 + ^ x28: .cfa -80 + ^ .ra: .cfa -88 + ^ x29: .cfa -96 + ^
STACK CFI 1857c .cfa: sp 112 +
STACK CFI 18580 .cfa: x29 96 +
STACK CFI 18588 .cfa: sp 112 +
STACK CFI 185a4 .cfa: sp 0 +
STACK CFI 185a8 .cfa: x29 96 +
STACK CFI 185c8 .cfa: sp 112 +
STACK CFI INIT 185cc e54 .cfa: sp 0 +
STACK CFI 185d0 .cfa: sp 192 +
STACK CFI 185ec .cfa: x29 96 + x19: .cfa -8 + ^ x20: .cfa -16 + ^ x21: .cfa -24 + ^ x22: .cfa -32 + ^ x23: .cfa -40 + ^ x24: .cfa -48 + ^ x25: .cfa -56 + ^ x26: .cfa -64 + ^ x27: .cfa -72 + ^ x28: .cfa -80 + ^ .ra: .cfa -88 + ^ x29: .cfa -96 + ^
STACK CFI 19308 .cfa: sp 192 +
STACK CFI 19324 .cfa: sp 0 +
STACK CFI 19328 .cfa: x29 96 +
STACK CFI INIT 19420 1068 .cfa: sp 0 +
STACK CFI 19424 .cfa: sp 288 +
STACK CFI 19440 .cfa: x29 96 + x19: .cfa -8 + ^ x20: .cfa -16 + ^ x21: .cfa -24 + ^ x22: .cfa -32 + ^ x23: .cfa -40 + ^ x24: .cfa -48 + ^ x25: .cfa -56 + ^ x26: .cfa -64 + ^ x27: .cfa -72 + ^ x28: .cfa -80 + ^ .ra: .cfa -88 + ^ x29: .cfa -96 + ^
STACK CFI 1a1d0 .cfa: sp 288 +
STACK CFI 1a1ec .cfa: sp 0 +
STACK CFI 1a1f0 .cfa: x29 96 +
STACK CFI INIT 1a488 520 .cfa: sp 0 +
STACK CFI 1a48c .cfa: sp 144 +
STACK CFI 1a4a8 .cfa: x29 96 + x19: .cfa -8 + ^ x20: .cfa -16 + ^ x21: .cfa -24 + ^ x22: .cfa -32 + ^ x23: .cfa -40 + ^ x24: .cfa -48 + ^ x25: .cfa -56 + ^ x26: .cfa -64 + ^ x27: .cfa -72 + ^ x28: .cfa -80 + ^ .ra: .cfa -88 + ^ x29: .cfa -96 + ^
STACK CFI 1a984 .cfa: sp 144 +
STACK CFI 1a9a0 .cfa: sp 0 +
STACK CFI 1a9a4 .cfa: x29 96 +
STACK CFI INIT 1b348 136c .cfa: sp 0 +
STACK CFI 1b34c .cfa: sp 224 +
STACK CFI 1b368 .cfa: x29 96 + x19: .cfa -8 + ^ x20: .cfa -16 + ^ x21: .cfa -24 + ^ x22: .cfa -32 + ^ x23: .cfa -40 + ^ x24: .cfa -48 + ^ x25: .cfa -56 + ^ x26: .cfa -64 + ^ x27: .cfa -72 + ^ x28: .cfa -80 + ^ .ra: .cfa -88 + ^ x29: .cfa -96 + ^
STACK CFI 1c690 .cfa: sp 224 +
STACK CFI 1c6ac .cfa: sp 0 +
STACK CFI 1c6b0 .cfa: x29 96 +
STACK CFI INIT 1c6b4 1b8 .cfa: sp 0 +
STACK CFI INIT 7204 bd4 .cfa: sp 0 +
STACK CFI 7208 .cfa: sp 240 +
STACK CFI 7224 .cfa: x29 96 + x19: .cfa -8 + ^ x20: .cfa -16 + ^ x21: .cfa -24 + ^ x22: .cfa -32 + ^ x23: .cfa -40 + ^ x24: .cfa -48 + ^ x25: .cfa -56 + ^ x26: .cfa -64 + ^ x27: .cfa -72 + ^ x28: .cfa -80 + ^ .ra: .cfa -88 + ^ x29: .cfa -96 + ^
STACK CFI 7600 .cfa: sp 240 +
STACK CFI 761c .cfa: sp 0 +
STACK CFI 7620 .cfa: x29 96 +
STACK CFI 7c80 .cfa: sp 240 +
STACK CFI 7c9c .cfa: sp 0 +
STACK CFI 7ca0 .cfa: x29 96 +
STACK CFI INIT 7df0 644 .cfa: sp 0 +
STACK CFI 7df4 .cfa: sp 224 +
STACK CFI 7e10 .cfa: x29 96 + x19: .cfa -8 + ^ x20: .cfa -16 + ^ x21: .cfa -24 + ^ x22: .cfa -32 + ^ x23: .cfa -40 + ^ x24: .cfa -48 + ^ x25: .cfa -56 + ^ x26: .cfa -64 + ^ x27: .cfa -72 + ^ x28: .cfa -80 + ^ .ra: .cfa -88 + ^ x29: .cfa -96 + ^
STACK CFI 82c4 .cfa: sp 224 +
STACK CFI 82e0 .cfa: sp 0 +
STACK CFI 82e4 .cfa: x29 96 +
STACK CFI INIT 845c 50 .cfa: sp 0 +
STACK CFI 8460 .cfa: sp 32 +
STACK CFI 8468 .cfa: x29 32 + x19: .cfa -8 + ^ x20: .cfa -16 + ^ .ra: .cfa -24 + ^ x29: .cfa -32 + ^
STACK CFI INIT 8530 48 .cfa: sp 0 +
STACK CFI 8534 .cfa: sp 32 +
STACK CFI 853c .cfa: x29 32 + x19: .cfa -8 + ^ x20: .cfa -16 + ^ .ra: .cfa -24 + ^ x29: .cfa -32 + ^
STACK CFI INIT 8654 648 .cfa: sp 0 +
STACK CFI 8658 .cfa: sp 240 +
STACK CFI 8674 .cfa: x29 96 + x19: .cfa -8 + ^ x20: .cfa -16 + ^ x21: .cfa -24 + ^ x22: .cfa -32 + ^ x23: .cfa -40 + ^ x24: .cfa -48 + ^ x25: .cfa -56 + ^ x26: .cfa -64 + ^ x27: .cfa -72 + ^ x28: .cfa -80 + ^ .ra: .cfa -88 + ^ x29: .cfa -96 + ^
STACK CFI 8b74 .cfa: sp 240 +
STACK CFI 8b90 .cfa: sp 0 +
STACK CFI 8b94 .cfa: x29 96 +
STACK CFI INIT 8cec 74 .cfa: sp 0 +
STACK CFI 8cf0 .cfa: sp 48 +
STACK CFI 8cfc .cfa: x29 32 + x19: .cfa -8 + ^ x20: .cfa -16 + ^ .ra: .cfa -24 + ^ x29: .cfa -32 + ^
STACK CFI 8d48 .cfa: sp 48 +
STACK CFI 8d54 .cfa: sp 0 +
STACK CFI 8d58 .cfa: x29 32 +
STACK CFI INIT 8de0 6fc .cfa: sp 0 +
STACK CFI 8de4 .cfa: sp 496 +
STACK CFI 8e00 .cfa: x29 96 + x19: .cfa -8 + ^ x20: .cfa -16 + ^ x21: .cfa -24 + ^ x22: .cfa -32 + ^ x23: .cfa -40 + ^ x24: .cfa -48 + ^ x25: .cfa -56 + ^ x26: .cfa -64 + ^ x27: .cfa -72 + ^ x28: .cfa -80 + ^ .ra: .cfa -88 + ^ x29: .cfa -96 + ^
STACK CFI 93b0 .cfa: sp 496 +
STACK CFI 93cc .cfa: sp 0 +
STACK CFI 93d0 .cfa: x29 96 +
STACK CFI INIT 98a0 134 .cfa: sp 0 +
STACK CFI 98a4 .cfa: sp 80 +
STACK CFI 98b4 .cfa: x29 48 + x19: .cfa -8 + ^ x20: .cfa -16 + ^ x21: .cfa -24 + ^ x22: .cfa -32 + ^ .ra: .cfa -40 + ^ x29: .cfa -48 + ^
STACK CFI 99b8 .cfa: sp 80 +
STACK CFI 99c8 .cfa: sp 0 +
STACK CFI 99cc .cfa: x29 48 +
STACK CFI INIT 99d4 38c .cfa: sp 0 +
STACK CFI 99d8 .cfa: sp 96 +
STACK CFI 99f0 .cfa: x29 80 + x19: .cfa -8 + ^ x20: .cfa -16 + ^ x21: .cfa -24 + ^ x22: .cfa -32 + ^ x23: .cfa -40 + ^ x24: .cfa -48 + ^ x25: .cfa -56 + ^ x28: .cfa -64 + ^ .ra: .cfa -72 + ^ x29: .cfa -80 + ^ v8: .cfa -96 + ^
STACK CFI 9cec .cfa: sp 96 +
STACK CFI 9d04 .cfa: sp 0 +
STACK CFI 9d08 .cfa: x29 80 +
STACK CFI INIT 9d60 130 .cfa: sp 0 +
STACK CFI 9d64 .cfa: sp 96 +
STACK CFI 9d78 .cfa: x29 48 + x19: .cfa -8 + ^ x20: .cfa -16 + ^ x21: .cfa -24 + ^ x22: .cfa -32 + ^ .ra: .cfa -40 + ^ x29: .cfa -48 + ^ v8: .cfa -64 + ^
STACK CFI 9e70 .cfa: sp 96 +
STACK CFI 9e84 .cfa: sp 0 +
STACK CFI 9e88 .cfa: x29 48 +
STACK CFI INIT 9e90 384 .cfa: sp 0 +
STACK CFI 9e94 .cfa: sp 80 +
STACK CFI 9ea8 .cfa: x29 80 + x19: .cfa -8 + ^ x20: .cfa -16 + ^ x21: .cfa -24 + ^ x22: .cfa -32 + ^ x23: .cfa -40 + ^ x24: .cfa -48 + ^ x25: .cfa -56 + ^ x28: .cfa -64 + ^ .ra: .cfa -72 + ^ x29: .cfa -80 + ^
STACK CFI a1a4 .cfa: sp 80 +
STACK CFI a1b8 .cfa: sp 0 +
STACK CFI a1bc .cfa: x29 80 +
STACK CFI INIT a214 38c .cfa: sp 0 +
STACK CFI a218 .cfa: sp 96 +
STACK CFI a230 .cfa: x29 80 + x19: .cfa -8 + ^ x20: .cfa -16 + ^ x21: .cfa -24 + ^ x22: .cfa -32 + ^ x23: .cfa -40 + ^ x24: .cfa -48 + ^ x25: .cfa -56 + ^ x28: .cfa -64 + ^ .ra: .cfa -72 + ^ x29: .cfa -80 + ^ v8: .cfa -96 + ^
STACK CFI a52c .cfa: sp 96 +
STACK CFI a544 .cfa: sp 0 +
STACK CFI a548 .cfa: x29 80 +
STACK CFI INIT a5a0 38c .cfa: sp 0 +
STACK CFI a5a4 .cfa: sp 96 +
STACK CFI a5bc .cfa: x29 80 + x19: .cfa -8 + ^ x20: .cfa -16 + ^ x21: .cfa -24 + ^ x22: .cfa -32 + ^ x23: .cfa -40 + ^ x24: .cfa -48 + ^ x25: .cfa -56 + ^ x28: .cfa -64 + ^ .ra: .cfa -72 + ^ x29: .cfa -80 + ^ v8: .cfa -96 + ^
STACK CFI a8b8 .cfa: sp 96 +
STACK CFI a8d0 .cfa: sp 0 +
STACK CFI a8d4 .cfa: x29 80 +
STACK CFI INIT ad9c 294 .cfa: sp 0 +
STACK CFI ada0 .cfa: sp 240 +
STACK CFI adb8 .cfa: x29 80 + x19: .cfa -8 + ^ x20: .cfa -16 + ^ x21: .cfa -24 + ^ x22: .cfa -32 + ^ x23: .cfa -40 + ^ x24: .cfa -48 + ^ x25: .cfa -64 + ^ .ra: .cfa -72 + ^ x29: .cfa -80 + ^
STACK CFI af58 .cfa: sp 240 +
STACK CFI af70 .cfa: sp 0 +
STACK CFI af74 .cfa: x29 80 +
STACK CFI INIT b0ac 50 .cfa: sp 0 +
STACK CFI b0b0 .cfa: sp 32 +
STACK CFI b0b8 .cfa: x29 32 + x19: .cfa -8 + ^ x20: .cfa -16 + ^ .ra: .cfa -24 + ^ x29: .cfa -32 + ^
STACK CFI INIT b128 7c0 .cfa: sp 0 +
STACK CFI b12c .cfa: sp 320 +
STACK CFI b148 .cfa: x29 96 + x19: .cfa -8 + ^ x20: .cfa -16 + ^ x21: .cfa -24 + ^ x22: .cfa -32 + ^ x23: .cfa -40 + ^ x24: .cfa -48 + ^ x25: .cfa -56 + ^ x26: .cfa -64 + ^ x27: .cfa -72 + ^ x28: .cfa -80 + ^ .ra: .cfa -88 + ^ x29: .cfa -96 + ^
STACK CFI b798 .cfa: sp 320 +
STACK CFI b7b4 .cfa: sp 0 +
STACK CFI b7b8 .cfa: x29 96 +
STACK CFI INIT fc68 c74 .cfa: sp 0 +
STACK CFI fc6c .cfa: sp 96 +
STACK CFI fc84 .cfa: x29 96 + x19: .cfa -8 + ^ x20: .cfa -16 + ^ x21: .cfa -24 + ^ x22: .cfa -32 + ^ x23: .cfa -40 + ^ x24: .cfa -48 + ^ x25: .cfa -56 + ^ x26: .cfa -64 + ^ x27: .cfa -72 + ^ x28: .cfa -80 + ^ .ra: .cfa -88 + ^ x29: .cfa -96 + ^
STACK CFI 106fc .cfa: sp 96 +
STACK CFI 10714 .cfa: sp 0 +
STACK CFI 10718 .cfa: x29 96 +
STACK CFI INIT 10a30 26c .cfa: sp 0 +
STACK CFI 10a34 .cfa: sp 128 +
STACK CFI 10a44 .cfa: x29 48 + x19: .cfa -8 + ^ x20: .cfa -16 + ^ x21: .cfa -24 + ^ x22: .cfa -32 + ^ .ra: .cfa -40 + ^ x29: .cfa -48 + ^
STACK CFI 10be8 .cfa: sp 128 +
STACK CFI 10bf8 .cfa: sp 0 +
STACK CFI 10bfc .cfa: x29 48 +
STACK CFI INIT 111e8 3b8 .cfa: sp 0 +
STACK CFI 111ec .cfa: sp 96 +
STACK CFI 11204 .cfa: x29 96 + x19: .cfa -8 + ^ x20: .cfa -16 + ^ x21: .cfa -24 + ^ x22: .cfa -32 + ^ x23: .cfa -40 + ^ x24: .cfa -48 + ^ x25: .cfa -56 + ^ x26: .cfa -64 + ^ x27: .cfa -72 + ^ x28: .cfa -80 + ^ .ra: .cfa -88 + ^ x29: .cfa -96 + ^
STACK CFI 11540 .cfa: sp 96 +
STACK CFI 11558 .cfa: sp 0 +
STACK CFI 1155c .cfa: x29 96 +
STACK CFI INIT 11640 cb4 .cfa: sp 0 +
STACK CFI 11644 .cfa: sp 96 +
STACK CFI 1165c .cfa: x29 96 + x19: .cfa -8 + ^ x20: .cfa -16 + ^ x21: .cfa -24 + ^ x22: .cfa -32 + ^ x23: .cfa -40 + ^ x24: .cfa -48 + ^ x25: .cfa -56 + ^ x26: .cfa -64 + ^ x27: .cfa -72 + ^ x28: .cfa -80 + ^ .ra: .cfa -88 + ^ x29: .cfa -96 + ^
STACK CFI 12104 .cfa: sp 96 +
STACK CFI 1211c .cfa: sp 0 +
STACK CFI 12120 .cfa: x29 96 +
STACK CFI INIT 125dc afc .cfa: sp 0 +
STACK CFI 125e0 .cfa: sp 96 +
STACK CFI 125f8 .cfa: x29 96 + x19: .cfa -8 + ^ x20: .cfa -16 + ^ x21: .cfa -24 + ^ x22: .cfa -32 + ^ x23: .cfa -40 + ^ x24: .cfa -48 + ^ x25: .cfa -56 + ^ x26: .cfa -64 + ^ x27: .cfa -72 + ^ x28: .cfa -80 + ^ .ra: .cfa -88 + ^ x29: .cfa -96 + ^
STACK CFI 1304c .cfa: sp 96 +
STACK CFI 13064 .cfa: sp 0 +
STACK CFI 13068 .cfa: x29 96 +
STACK CFI INIT 132b4 1430 .cfa: sp 0 +
STACK CFI 132b8 .cfa: sp 96 +
STACK CFI 132d0 .cfa: x29 96 + x19: .cfa -8 + ^ x20: .cfa -16 + ^ x21: .cfa -24 + ^ x22: .cfa -32 + ^ x23: .cfa -40 + ^ x24: .cfa -48 + ^ x25: .cfa -56 + ^ x26: .cfa -64 + ^ x27: .cfa -72 + ^ x28: .cfa -80 + ^ .ra: .cfa -88 + ^ x29: .cfa -96 + ^
STACK CFI 1456c .cfa: sp 96 +
STACK CFI 14584 .cfa: sp 0 +
STACK CFI 14588 .cfa: x29 96 +
STACK CFI INIT 14808 75c .cfa: sp 0 +
STACK CFI 1480c .cfa: sp 368 +
STACK CFI 14828 .cfa: x29 96 + x19: .cfa -8 + ^ x20: .cfa -16 + ^ x21: .cfa -24 + ^ x22: .cfa -32 + ^ x23: .cfa -40 + ^ x24: .cfa -48 + ^ x25: .cfa -56 + ^ x26: .cfa -64 + ^ x27: .cfa -72 + ^ x28: .cfa -80 + ^ .ra: .cfa -88 + ^ x29: .cfa -96 + ^
STACK CFI 148dc .cfa: sp 368 +
STACK CFI 148f8 .cfa: sp 0 +
STACK CFI 148fc .cfa: x29 96 +
STACK CFI 14950 .cfa: sp 368 +
STACK CFI 1496c .cfa: sp 0 +
STACK CFI 14970 .cfa: x29 96 +
STACK CFI INIT 15324 eb0 .cfa: sp 0 +
STACK CFI 15328 .cfa: sp 96 +
STACK CFI 15340 .cfa: x29 96 + x19: .cfa -8 + ^ x20: .cfa -16 + ^ x21: .cfa -24 + ^ x22: .cfa -32 + ^ x23: .cfa -40 + ^ x24: .cfa -48 + ^ x25: .cfa -56 + ^ x26: .cfa -64 + ^ x27: .cfa -72 + ^ x28: .cfa -80 + ^ .ra: .cfa -88 + ^ x29: .cfa -96 + ^
STACK CFI 15fe8 .cfa: sp 96 +
STACK CFI 16000 .cfa: sp 0 +
STACK CFI 16004 .cfa: x29 96 +
STACK CFI INIT 16548 1c9c .cfa: sp 0 +
STACK CFI 1654c .cfa: sp 112 +
STACK CFI 16568 .cfa: x29 96 + x19: .cfa -8 + ^ x20: .cfa -16 + ^ x21: .cfa -24 + ^ x22: .cfa -32 + ^ x23: .cfa -40 + ^ x24: .cfa -48 + ^ x25: .cfa -56 + ^ x26: .cfa -64 + ^ x27: .cfa -72 + ^ x28: .cfa -80 + ^ .ra: .cfa -88 + ^ x29: .cfa -96 + ^ v8: .cfa -112 + ^
STACK CFI 16950 .cfa: sp 112 +
STACK CFI 1696c .cfa: sp 0 +
STACK CFI 16970 .cfa: x29 96 +
STACK CFI INIT 1a9a8 9a0 .cfa: sp 0 +
STACK CFI 1a9ac .cfa: sp 144 +
STACK CFI 1a9c4 .cfa: x29 80 + x19: .cfa -8 + ^ x20: .cfa -16 + ^ x21: .cfa -24 + ^ x22: .cfa -32 + ^ x23: .cfa -40 + ^ x24: .cfa -48 + ^ x25: .cfa -64 + ^ .ra: .cfa -72 + ^ x29: .cfa -80 + ^
STACK CFI 1b2c4 .cfa: sp 144 +
STACK CFI 1b2dc .cfa: sp 0 +
STACK CFI 1b2e0 .cfa: x29 80 +
STACK CFI INIT 1c86c 57c .cfa: sp 0 +
STACK CFI 1c870 .cfa: sp 96 +
STACK CFI 1c888 .cfa: x29 96 + x19: .cfa -8 + ^ x20: .cfa -16 + ^ x21: .cfa -24 + ^ x22: .cfa -32 + ^ x23: .cfa -40 + ^ x24: .cfa -48 + ^ x25: .cfa -56 + ^ x26: .cfa -64 + ^ x27: .cfa -72 + ^ x28: .cfa -80 + ^ .ra: .cfa -88 + ^ x29: .cfa -96 + ^
STACK CFI 1cd4c .cfa: sp 96 +
STACK CFI 1cd64 .cfa: sp 0 +
STACK CFI 1cd68 .cfa: x29 96 +
STACK CFI INIT 1cde8 67c .cfa: sp 0 +
STACK CFI 1cdec .cfa: sp 96 +
STACK CFI 1ce04 .cfa: x29 96 + x19: .cfa -8 + ^ x20: .cfa -16 + ^ x21: .cfa -24 + ^ x22: .cfa -32 + ^ x23: .cfa -40 + ^ x24: .cfa -48 + ^ x25: .cfa -56 + ^ x26: .cfa -64 + ^ x27: .cfa -72 + ^ x28: .cfa -80 + ^ .ra: .cfa -88 + ^ x29: .cfa -96 + ^
STACK CFI 1d3c8 .cfa: sp 96 +
STACK CFI 1d3e0 .cfa: sp 0 +
STACK CFI 1d3e4 .cfa: x29 96 +
