MODULE Linux arm64 C2B2C74C5BA136E7C99E610A62ABFDEE0 elohmrow.death_tracker.android64.so
INFO CODE_ID 4CC7B2C2A15BE736C99E610A62ABFDEE5B82B617
INFO GENERATOR mozilla/dump_syms 2.3.4
PUBLIC 5a6d0 0 __on_dlclose
PUBLIC 5a6e0 0 __emutls_unregister_key
PUBLIC 5a6e8 0 __on_dlclose_late
PUBLIC 5a6f0 0 __atexit_handler_wrapper
PUBLIC 5a704 0 atexit
PUBLIC 5a720 0 pthread_atfork
PUBLIC 5a730 0 unwind_phase2
PUBLIC 5a864 0 _Unwind_Resume
PUBLIC 5a8e8 0 unwind_phase2_forced
PUBLIC m 5a9dc 0 __unw_init_local
PUBLIC m 5aa84 0 __unw_get_reg
PUBLIC 5ab00 0 __unw_step_stage2
PUBLIC m 5ab14 0 __unw_get_proc_info
PUBLIC m 5ab54 0 __unw_resume
PUBLIC 5ab7c 0 libunwind::CFI_Parser<libunwind::LocalAddressSpace>::decodeFDE(libunwind::LocalAddressSpace&, unsigned long, libunwind::CFI_Parser<libunwind::LocalAddressSpace>::FDE_Info*, libunwind::CFI_Parser<libunwind::LocalAddressSpace>::CIE_Info*, bool)
PUBLIC 5ad0c 0 libunwind::CFI_Parser<libunwind::LocalAddressSpace>::parseCIE(libunwind::LocalAddressSpace&, unsigned long, libunwind::CFI_Parser<libunwind::LocalAddressSpace>::CIE_Info*)
PUBLIC 5afd4 0 libunwind::AbstractUnwindCursor::~AbstractUnwindCursor()
PUBLIC 5afdc 0 libunwind::UnwindCursor<libunwind::LocalAddressSpace, libunwind::Registers_arm64>::~UnwindCursor()
PUBLIC 5afe4 0 libunwind::UnwindCursor<libunwind::LocalAddressSpace, libunwind::Registers_arm64>::validReg(int)
PUBLIC 5b028 0 libunwind::UnwindCursor<libunwind::LocalAddressSpace, libunwind::Registers_arm64>::getReg(int)
PUBLIC 5b110 0 libunwind::UnwindCursor<libunwind::LocalAddressSpace, libunwind::Registers_arm64>::setReg(int, unsigned long)
PUBLIC 5b1f8 0 libunwind::UnwindCursor<libunwind::LocalAddressSpace, libunwind::Registers_arm64>::validFloatReg(int)
PUBLIC 5b20c 0 libunwind::UnwindCursor<libunwind::LocalAddressSpace, libunwind::Registers_arm64>::getFloatReg(int)
PUBLIC 5b21c 0 libunwind::UnwindCursor<libunwind::LocalAddressSpace, libunwind::Registers_arm64>::setFloatReg(int, double)
PUBLIC 5b22c 0 libunwind::UnwindCursor<libunwind::LocalAddressSpace, libunwind::Registers_arm64>::step(bool)
PUBLIC 5b31c 0 libunwind::UnwindCursor<libunwind::LocalAddressSpace, libunwind::Registers_arm64>::getInfo(unw_proc_info_t*)
PUBLIC 5b360 0 libunwind::UnwindCursor<libunwind::LocalAddressSpace, libunwind::Registers_arm64>::jumpto()
PUBLIC 5b36c 0 libunwind::UnwindCursor<libunwind::LocalAddressSpace, libunwind::Registers_arm64>::isSignalFrame()
PUBLIC 5b378 0 libunwind::UnwindCursor<libunwind::LocalAddressSpace, libunwind::Registers_arm64>::getFunctionName(char*, unsigned long, unsigned long*)
PUBLIC 5b3a4 0 libunwind::UnwindCursor<libunwind::LocalAddressSpace, libunwind::Registers_arm64>::setInfoBasedOnIPRegister(bool)
PUBLIC 5b624 0 libunwind::UnwindCursor<libunwind::LocalAddressSpace, libunwind::Registers_arm64>::getRegisterName(int)
PUBLIC 5b630 0 libunwind::UnwindCursor<libunwind::LocalAddressSpace, libunwind::Registers_arm64>::stepThroughSigReturn(libunwind::Registers_arm64&)
PUBLIC 5b750 0 libunwind::DwarfInstructions<libunwind::LocalAddressSpace, libunwind::Registers_arm64>::stepWithDwarf(libunwind::LocalAddressSpace&, unsigned long, unsigned long, libunwind::Registers_arm64&, bool&, bool)
PUBLIC 5bbd8 0 libunwind::CFI_Parser<libunwind::LocalAddressSpace>::parseFDEInstructions(libunwind::LocalAddressSpace&, libunwind::CFI_Parser<libunwind::LocalAddressSpace>::FDE_Info const&, libunwind::CFI_Parser<libunwind::LocalAddressSpace>::CIE_Info const&, unsigned long, int, libunwind::CFI_Parser<libunwind::LocalAddressSpace>::PrologInfo*)
PUBLIC 5c820 0 libunwind::DwarfInstructions<libunwind::LocalAddressSpace, libunwind::Registers_arm64>::getCFA(libunwind::LocalAddressSpace&, libunwind::CFI_Parser<libunwind::LocalAddressSpace>::PrologInfo const&, libunwind::Registers_arm64 const&)
PUBLIC 5c954 0 libunwind::DwarfInstructions<libunwind::LocalAddressSpace, libunwind::Registers_arm64>::getSavedRegister(libunwind::LocalAddressSpace&, libunwind::Registers_arm64 const&, unsigned long, libunwind::CFI_Parser<libunwind::LocalAddressSpace>::RegisterLocation const&)
PUBLIC 5cb64 0 libunwind::LocalAddressSpace::getEncodedP(unsigned long&, unsigned long, unsigned char, unsigned long)
PUBLIC 5cef0 0 libunwind::LocalAddressSpace::getULEB128(unsigned long&, unsigned long)
PUBLIC 5d0b8 0 libunwind::DwarfInstructions<libunwind::LocalAddressSpace, libunwind::Registers_arm64>::evaluateExpression(unsigned long, libunwind::LocalAddressSpace&, libunwind::Registers_arm64 const&, unsigned long)
PUBLIC 5da74 0 libunwind::UnwindCursor<libunwind::LocalAddressSpace, libunwind::Registers_arm64>::getInfoFromDwarfSection(unsigned long, libunwind::UnwindInfoSections const&, unsigned int)
PUBLIC 5dd48 0 libunwind::findUnwindSectionsByPhdr(dl_phdr_info*, unsigned long, void*)
PUBLIC 5de7c 0 libunwind::EHHeaderParser<libunwind::LocalAddressSpace>::decodeEHHdr(libunwind::LocalAddressSpace&, unsigned long, unsigned long, libunwind::EHHeaderParser<libunwind::LocalAddressSpace>::EHHeaderInfo&)
PUBLIC 5df9c 0 libunwind::CFI_Parser<libunwind::LocalAddressSpace>::findFDE(libunwind::LocalAddressSpace&, unsigned long, unsigned long, unsigned long, unsigned long, libunwind::CFI_Parser<libunwind::LocalAddressSpace>::FDE_Info*, libunwind::CFI_Parser<libunwind::LocalAddressSpace>::CIE_Info*)
PUBLIC 5e164 0 libunwind::EHHeaderParser<libunwind::LocalAddressSpace>::findFDE(libunwind::LocalAddressSpace&, unsigned long, unsigned long, unsigned int, libunwind::CFI_Parser<libunwind::LocalAddressSpace>::FDE_Info*, libunwind::CFI_Parser<libunwind::LocalAddressSpace>::CIE_Info*)
PUBLIC 5e2cc 0 libunwind::EHHeaderParser<libunwind::LocalAddressSpace>::getTableEntrySize(unsigned char)
PUBLIC 5e3c8 0 libunwind::Registers_arm64::getRegisterName(int)
PUBLIC 5e3f8 0 __libunwind_Registers_arm64_jumpto
PUBLIC m 5e488 0 __unw_getcontext
PUBLIC 5e530 0 __aarch64_ldadd8_relax
PUBLIC 5e560 0 init_have_lse_atomics
PUBLIC 5e5f8 0 __init_cpu_features_constructor
PUBLIC 5eb94 0 __init_cpu_features
PUBLIC 5ec20 0 __aarch64_ldadd8_acq_rel
FUNC 5ec50 98 0 DTCCTextInputNode::onTextFieldInsertText(cocos2d::CCTextFieldTTF*, char const*, int, cocos2d::enumKeyCodes)
FUNC 5ece8 8 0 cocos2d::CCCopying::copyWithZone(cocos2d::CCZone*)
FUNC 5ecf0 4 0 cocos2d::CCKeyboardDelegate::keyUp(cocos2d::enumKeyCodes)
FUNC 5ecf4 4 0 cocos2d::CCMouseDelegate::rightKeyDown()
FUNC 5ecf8 4 0 cocos2d::CCMouseDelegate::rightKeyUp()
FUNC 5ecfc 4 0 cocos2d::CCMouseDelegate::scrollWheel(float, float)
FUNC 5ed00 8 0 cocos2d::CCIMEDelegate::canAttachWithIME()
FUNC 5ed08 4 0 cocos2d::CCIMEDelegate::didAttachWithIME()
FUNC 5ed0c 8 0 cocos2d::CCIMEDelegate::canDetachWithIME()
FUNC 5ed14 4 0 cocos2d::CCIMEDelegate::didDetachWithIME()
FUNC 5ed18 4 0 cocos2d::CCIMEDelegate::insertText(char const*, int, cocos2d::enumKeyCodes)
FUNC 5ed1c 4 0 cocos2d::CCIMEDelegate::deleteBackward()
FUNC 5ed20 8 0 cocos2d::CCIMEDelegate::getContentText()
FUNC 5ed28 4 0 cocos2d::CCIMEDelegate::keyboardDidShow(cocos2d::CCIMEKeyboardNotificationInfo&)
FUNC 5ed2c 4 0 cocos2d::CCIMEDelegate::keyboardDidHide(cocos2d::CCIMEKeyboardNotificationInfo&)
FUNC 5ed30 60 0 __cxx_global_var_init
FUNC 5ed90 1c 0 geode::modifier::ModifyBase<geode::modifier::ModifyDerive<DTCCTextInputNode, CCTextInputNode> >::~ModifyBase()
FUNC 5edac 18c 0 geode::modifier::FieldIntermediate<DTCCTextInputNode, CCTextInputNode>::self()
FUNC 5ef38 290 0 geode::modifier::FieldContainer::getField(unsigned long)
FUNC 5f1c8 114 0 geode::modifier::FieldContainer::setField(unsigned long, unsigned long, std::__ndk1::function<void (void*)>)
FUNC 5f2dc 4 0 geode::modifier::FieldIntermediate<DTCCTextInputNode, CCTextInputNode>::fieldDestructor(void*)
FUNC 5f2e0 14 0 std::__ndk1::vector<void*, std::__ndk1::allocator<void*> >::__throw_length_error[abi:ne180000]() const
PUBLIC 5f2f4 0 __clang_call_terminate
FUNC 5f304 50 0 std::__ndk1::__throw_length_error[abi:ne180000](char const*)
FUNC 5f354 30 0 std::length_error::length_error[abi:ne180000](char const*)
FUNC 5f384 34 0 std::__throw_bad_array_new_length([abi:ne180000], void)
FUNC 5f3b8 200 0 std::__ndk1::vector<std::__ndk1::function<void (void*)>, std::__ndk1::allocator<std::__ndk1::function<void (void*)> > >::__push_back_slow_path<std::__ndk1::function<void (void*)> >(std::__ndk1::function<void (void*)>&&)
FUNC 5f5b8 14 0 std::__ndk1::vector<std::__ndk1::function<void (void*)>, std::__ndk1::allocator<std::__ndk1::function<void (void*)> > >::__throw_length_error[abi:ne180000]() const
FUNC 5f5cc 14 0 std::__ndk1::vector<void*, std::__ndk1::allocator<void*> >::__throw_out_of_range[abi:ne180000]() const
FUNC 5f5e0 50 0 std::__ndk1::__throw_out_of_range[abi:ne180000](char const*)
FUNC 5f630 30 0 std::out_of_range::out_of_range[abi:ne180000](char const*)
FUNC 5f660 14 0 std::__ndk1::vector<std::__ndk1::function<void (void*)>, std::__ndk1::allocator<std::__ndk1::function<void (void*)> > >::__throw_out_of_range[abi:ne180000]() const
FUNC 5f674 4 0 std::__ndk1::__function::__base<void (void*)>::~__base()
FUNC 5f678 4 0 std::__ndk1::__function::__func<void (*)(void*), std::__ndk1::allocator<void (*)(void*)>, void (void*)>::~__func()
FUNC 5f67c 38 0 std::__ndk1::__function::__func<void (*)(void*), std::__ndk1::allocator<void (*)(void*)>, void (void*)>::__clone() const
FUNC 5f6b4 18 0 std::__ndk1::__function::__func<void (*)(void*), std::__ndk1::allocator<void (*)(void*)>, void (void*)>::__clone(std::__ndk1::__function::__base<void (void*)>*) const
FUNC 5f6cc 4 0 std::__ndk1::__function::__func<void (*)(void*), std::__ndk1::allocator<void (*)(void*)>, void (void*)>::destroy()
FUNC 5f6d0 4 0 std::__ndk1::__function::__func<void (*)(void*), std::__ndk1::allocator<void (*)(void*)>, void (void*)>::destroy_deallocate()
FUNC 5f6d4 10 0 std::__ndk1::__function::__func<void (*)(void*), std::__ndk1::allocator<void (*)(void*)>, void (void*)>::operator()(void*&&)
FUNC 5f6e4 1c 0 std::__ndk1::__function::__func<void (*)(void*), std::__ndk1::allocator<void (*)(void*)>, void (void*)>::target(std::type_info const&) const
FUNC 5f700 c 0 std::__ndk1::__function::__func<void (*)(void*), std::__ndk1::allocator<void (*)(void*)>, void (void*)>::target_type() const
FUNC 5f70c 3c0 0 geode::modifier::ModifyBase<geode::modifier::ModifyDerive<DTCCTextInputNode, CCTextInputNode> >::ModifyBase()
FUNC 5facc 2f0 0 geode::modifier::ModifyDerive<DTCCTextInputNode, CCTextInputNode>::apply()
FUNC 5fdbc 50 0 std::__ndk1::shared_ptr<geode::Hook>::~shared_ptr[abi:ne180000]()
FUNC 5fe0c 74 0 geode::impl::ResultData<geode::Hook*, std::__ndk1::basic_string<char, std::__ndk1::char_traits<char>, std::__ndk1::allocator<char> > >::~ResultData()
FUNC 5fe80 7c 0 std::__ndk1::vector<std::__ndk1::basic_string<char, std::__ndk1::char_traits<char>, std::__ndk1::allocator<char> >, std::__ndk1::allocator<std::__ndk1::basic_string<char, std::__ndk1::char_traits<char>, std::__ndk1::allocator<char> > > >::~vector[abi:ne180000]()
FUNC 5fefc 4 0 geode::modifier::ModifyBase<geode::modifier::ModifyDerive<DTCCTextInputNode, CCTextInputNode> >::apply()
FUNC 5ff00 154 0 _ZN5geode15UnwrapExceptionC2IRPNS_4HookEQsr4implE18IsStringStreamableIT_EEENS_4impl5OkTagEOS5_
FUNC 60054 34 0 std::__ndk1::__throw_bad_variant_access[abi:ne180000]()
FUNC 60088 124 0 std::__ndk1::basic_stringstream<char, std::__ndk1::char_traits<char>, std::__ndk1::allocator<char> >::basic_stringstream[abi:ne180000]()
FUNC 601ac 80 0 std::__ndk1::basic_stringstream<char, std::__ndk1::char_traits<char>, std::__ndk1::allocator<char> >::~basic_stringstream()
FUNC 6022c 24 0 geode::UnwrapException::~UnwrapException()
FUNC 60250 198 0 std::__ndk1::__put_character_sequence[abi:ne180000]<char, std::__ndk1::char_traits<char> >(std::__ndk1::basic_ostream<char, std::__ndk1::char_traits<char> >, std::__ndk1::basic_ostream const*, unsigned long)
FUNC 603e8 1b4 0 std::__ndk1::__pad_and_output[abi:ne180000]<char, std::__ndk1::char_traits<char> >(std::__ndk1::char_traits<char>, std::__ndk1::ostreambuf_iterator const*, std::__ndk1::ostreambuf_iterator const, std::__ndk1::ostreambuf_iterator const, std::__ndk1::ios_base&, std::__ndk1::ostreambuf_iterator)
FUNC 6059c 14 0 std::__ndk1::basic_string<char, std::__ndk1::char_traits<char>, std::__ndk1::allocator<char> >::__throw_length_error[abi:ne180000]() const
FUNC 605b0 15c 0 std::__ndk1::basic_stringbuf<char, std::__ndk1::char_traits<char>, std::__ndk1::allocator<char> >::str[abi:ne180000]() &&
FUNC 6070c 148 0 std::__ndk1::basic_stringbuf<char, std::__ndk1::char_traits<char>, std::__ndk1::allocator<char> >::__init_buf_ptrs[abi:ne180000]()
FUNC 60854 21c 0 std::__ndk1::vector<std::__ndk1::basic_string<char, std::__ndk1::char_traits<char>, std::__ndk1::allocator<char> >, std::__ndk1::allocator<std::__ndk1::basic_string<char, std::__ndk1::char_traits<char>, std::__ndk1::allocator<char> > > >::__push_back_slow_path<std::__ndk1::basic_string<char, std::__ndk1::char_traits<char>, std::__ndk1::allocator<char> > const&>(std::__ndk1::basic_string<char, std::__ndk1::char_traits<char>, std::__ndk1::allocator<char> > const&)
FUNC 60a70 70 0 std::__ndk1::basic_string<char, std::__ndk1::char_traits<char>, std::__ndk1::allocator<char> >::__init_copy_ctor_external(char const*, unsigned long)
FUNC 60ae0 68 0 std::__ndk1::__split_buffer<std::__ndk1::basic_string<char, std::__ndk1::char_traits<char>, std::__ndk1::allocator<char> >, std::__ndk1::allocator<std::__ndk1::basic_string<char, std::__ndk1::char_traits<char>, std::__ndk1::allocator<char> > >&>::~__split_buffer()
FUNC 60b48 14 0 std::__ndk1::vector<std::__ndk1::basic_string<char, std::__ndk1::char_traits<char>, std::__ndk1::allocator<char> >, std::__ndk1::allocator<std::__ndk1::basic_string<char, std::__ndk1::char_traits<char>, std::__ndk1::allocator<char> > > >::__throw_length_error[abi:ne180000]() const
FUNC 60b5c 4 0 std::__ndk1::__variant_detail::__visitation::__base::__dispatcher<(unsigned long)0>::__dispatch[abi:ne180000]<std::__ndk1::__variant_detail::__dtor<std::__ndk1::__variant_detail::__traits<geode::Hook*, std::__ndk1::basic_string<char, std::__ndk1::char_traits<char>, std::__ndk1::allocator<char> > >, (std::__ndk1::__variant_detail::_Trait)1>::__destroy[abi:ne180000]()::{lambda(auto:1&)#1}, std::__ndk1::__variant_detail::__base<(std::__ndk1::__variant_detail::__traits<geode::Hook*, std::__ndk1::basic_string<char, std::__ndk1::char_traits<char>, std::__ndk1::allocator<char> > >)1, geode::Hook, std::__ndk1::allocator<char> >&>(std::__ndk1::__variant_detail::__dtor<std::__ndk1::__variant_detail::__traits<geode::Hook*, std::__ndk1::basic_string<char, std::__ndk1::char_traits<char>, std::__ndk1::allocator<char> > >, (std::__ndk1::__variant_detail::_Trait)1>, std::__ndk1::__variant_detail::__base<(std::__ndk1::__variant_detail::__traits<geode::Hook*, std::__ndk1::basic_string<char, std::__ndk1::char_traits<char>, std::__ndk1::allocator<char> > >)1, geode::Hook, std::__ndk1::allocator<char> >&)
FUNC 60b60 14 0 std::__ndk1::__variant_detail::__visitation::__base::__dispatcher<(unsigned long)1>::__dispatch[abi:ne180000]<std::__ndk1::__variant_detail::__dtor<std::__ndk1::__variant_detail::__traits<geode::Hook*, std::__ndk1::basic_string<char, std::__ndk1::char_traits<char>, std::__ndk1::allocator<char> > >, (std::__ndk1::__variant_detail::_Trait)1>::__destroy[abi:ne180000]()::{lambda(auto:1&)#1}, std::__ndk1::__variant_detail::__base<(std::__ndk1::__variant_detail::__traits<geode::Hook*, std::__ndk1::basic_string<char, std::__ndk1::char_traits<char>, std::__ndk1::allocator<char> > >)1, geode::Hook, std::__ndk1::allocator<char> >&>(std::__ndk1::__variant_detail::__dtor<std::__ndk1::__variant_detail::__traits<geode::Hook*, std::__ndk1::basic_string<char, std::__ndk1::char_traits<char>, std::__ndk1::allocator<char> > >, (std::__ndk1::__variant_detail::_Trait)1>, std::__ndk1::__variant_detail::__base<(std::__ndk1::__variant_detail::__traits<geode::Hook*, std::__ndk1::basic_string<char, std::__ndk1::char_traits<char>, std::__ndk1::allocator<char> > >)1, geode::Hook, std::__ndk1::allocator<char> >&)
FUNC 60b74 fc 0 std::__ndk1::__tree<std::__ndk1::__value_type<std::__ndk1::basic_string<char, std::__ndk1::char_traits<char>, std::__ndk1::allocator<char> >, std::__ndk1::shared_ptr<geode::Hook> >, std::__ndk1::__map_value_compare<std::__ndk1::basic_string<char, std::__ndk1::char_traits<char>, std::__ndk1::allocator<char> >, std::__ndk1::__value_type<std::__ndk1::basic_string<char, std::__ndk1::char_traits<char>, std::__ndk1::allocator<char> >, std::__ndk1::shared_ptr<geode::Hook> >, std::__ndk1::less<std::__ndk1::basic_string<char, std::__ndk1::char_traits<char>, std::__ndk1::allocator<char> > >, true>, std::__ndk1::allocator<std::__ndk1::__value_type<std::__ndk1::basic_string<char, std::__ndk1::char_traits<char>, std::__ndk1::allocator<char> >, std::__ndk1::shared_ptr<geode::Hook> > > >::find<std::__ndk1::basic_string<char, std::__ndk1::char_traits<char>, std::__ndk1::allocator<char> > >(std::__ndk1::basic_string<char, std::__ndk1::char_traits<char>, std::__ndk1::allocator<char> > const&)
FUNC 60c70 d4 0 std::__ndk1::__tree<std::__ndk1::__value_type<std::__ndk1::basic_string<char, std::__ndk1::char_traits<char>, std::__ndk1::allocator<char> >, std::__ndk1::shared_ptr<geode::Hook> >, std::__ndk1::__map_value_compare<std::__ndk1::basic_string<char, std::__ndk1::char_traits<char>, std::__ndk1::allocator<char> >, std::__ndk1::__value_type<std::__ndk1::basic_string<char, std::__ndk1::char_traits<char>, std::__ndk1::allocator<char> >, std::__ndk1::shared_ptr<geode::Hook> >, std::__ndk1::less<std::__ndk1::basic_string<char, std::__ndk1::char_traits<char>, std::__ndk1::allocator<char> > >, true>, std::__ndk1::allocator<std::__ndk1::__value_type<std::__ndk1::basic_string<char, std::__ndk1::char_traits<char>, std::__ndk1::allocator<char> >, std::__ndk1::shared_ptr<geode::Hook> > > >::erase(std::__ndk1::__tree_const_iterator<std::__ndk1::__value_type<std::__ndk1::basic_string<char, std::__ndk1::char_traits<char>, std::__ndk1::allocator<char> >, std::__ndk1::shared_ptr<geode::Hook> >, std::__ndk1::__tree_node<std::__ndk1::__value_type<std::__ndk1::basic_string<char, std::__ndk1::char_traits<char>, std::__ndk1::allocator<char> >, std::__ndk1::shared_ptr<geode::Hook> >, void*>*, long>)
FUNC 60d44 388 0 std::__ndk1::__tree_remove[abi:ne180000]<std::__ndk1::__tree_node_base<void*>*>(std::__ndk1::__tree_node_base<void*>*, std::__ndk1::__tree_node_base<void*>*)
FUNC 610cc 8c 0 std::__ndk1::__tree<std::__ndk1::__value_type<std::__ndk1::basic_string<char, std::__ndk1::char_traits<char>, std::__ndk1::allocator<char> >, std::__ndk1::shared_ptr<geode::Hook> >, std::__ndk1::__map_value_compare<std::__ndk1::basic_string<char, std::__ndk1::char_traits<char>, std::__ndk1::allocator<char> >, std::__ndk1::__value_type<std::__ndk1::basic_string<char, std::__ndk1::char_traits<char>, std::__ndk1::allocator<char> >, std::__ndk1::shared_ptr<geode::Hook> >, std::__ndk1::less<std::__ndk1::basic_string<char, std::__ndk1::char_traits<char>, std::__ndk1::allocator<char> > >, true>, std::__ndk1::allocator<std::__ndk1::__value_type<std::__ndk1::basic_string<char, std::__ndk1::char_traits<char>, std::__ndk1::allocator<char> >, std::__ndk1::shared_ptr<geode::Hook> > > >::destroy(std::__ndk1::__tree_node<std::__ndk1::__value_type<std::__ndk1::basic_string<char, std::__ndk1::char_traits<char>, std::__ndk1::allocator<char> >, std::__ndk1::shared_ptr<geode::Hook> >, void*>*)
FUNC 61158 6c 0 geode::addresser::getVirtual<bool (CCTextInputNode::*)(cocos2d::CCTextFieldTTF*, char const*, int, cocos2d::enumKeyCodes)>(bool (CCTextInputNode::*)(cocos2d::CCTextFieldTTF*, char const*, int, cocos2d::enumKeyCodes))
FUNC 611c4 118 0 geode::Hook::create<bool (*)(DTCCTextInputNode*, cocos2d::CCTextFieldTTF*, char const*, int, cocos2d::enumKeyCodes)>(void*, bool (*)(DTCCTextInputNode*, cocos2d::CCTextFieldTTF*, char const*, int, cocos2d::enumKeyCodes), std::__ndk1::basic_string<char, std::__ndk1::char_traits<char>, std::__ndk1::allocator<char> > const&, tulip::hook::TulipConvention, tulip::hook::HookMetadata const&)
FUNC 612dc 4 0 geode::modifier::AsStaticFunction_onTextFieldInsertText<DTCCTextInputNode, bool (DTCCTextInputNode::*)(cocos2d::CCTextFieldTTF*, char const*, int, cocos2d::enumKeyCodes)>::Impl<bool (DTCCTextInputNode::*)(cocos2d::CCTextFieldTTF*, char const*, int, cocos2d::enumKeyCodes)>::function(DTCCTextInputNode*, cocos2d::CCTextFieldTTF*, char const*, int, cocos2d::enumKeyCodes)
FUNC 612e0 8c 0 _ZN5geode9addresser9Addresser14cachedInstanceI15CCTextInputNodeEEPT_vQ18HasZeroConstructorIS4_E
FUNC 6136c f8 0 CCTextInputNode::CCTextInputNode(geode::ZeroConstructorType)
FUNC 61464 38c 0 tulip::hook::AbstractFunction::from<bool, DTCCTextInputNode*, cocos2d::CCTextFieldTTF*, char const*, int, cocos2d::enumKeyCodes>(bool (*)(DTCCTextInputNode*, cocos2d::CCTextFieldTTF*, char const*, int, cocos2d::enumKeyCodes))
FUNC 617f0 50 0 std::__ndk1::shared_ptr<tulip::hook::CallingConvention>::~shared_ptr[abi:ne180000]()
FUNC 61840 64 0 tulip::hook::HandlerMetadata::~HandlerMetadata()
FUNC 618a4 14 0 std::__ndk1::vector<tulip::hook::AbstractType, std::__ndk1::allocator<tulip::hook::AbstractType> >::__throw_length_error[abi:ne180000]() const
FUNC 618b8 104 0 std::__ndk1::__tree<std::__ndk1::__value_type<std::__ndk1::basic_string<char, std::__ndk1::char_traits<char>, std::__ndk1::allocator<char> >, std::__ndk1::shared_ptr<geode::Hook> >, std::__ndk1::__map_value_compare<std::__ndk1::basic_string<char, std::__ndk1::char_traits<char>, std::__ndk1::allocator<char> >, std::__ndk1::__value_type<std::__ndk1::basic_string<char, std::__ndk1::char_traits<char>, std::__ndk1::allocator<char> >, std::__ndk1::shared_ptr<geode::Hook> >, std::__ndk1::less<std::__ndk1::basic_string<char, std::__ndk1::char_traits<char>, std::__ndk1::allocator<char> > >, true>, std::__ndk1::allocator<std::__ndk1::__value_type<std::__ndk1::basic_string<char, std::__ndk1::char_traits<char>, std::__ndk1::allocator<char> >, std::__ndk1::shared_ptr<geode::Hook> > > >::__find_equal<std::__ndk1::basic_string<char, std::__ndk1::char_traits<char>, std::__ndk1::allocator<char> > >(std::__ndk1::__tree_end_node<std::__ndk1::__tree_node_base<void*>*>*&, std::__ndk1::basic_string<char, std::__ndk1::char_traits<char>, std::__ndk1::allocator<char> > const&)
FUNC 619bc 19c 0 std::__ndk1::__tree_balance_after_insert[abi:ne180000]<std::__ndk1::__tree_node_base<void*>*>(std::__ndk1::__tree_node_base<void*>*, std::__ndk1::__tree_node_base<void*>*)
FUNC 61b58 68 0 DTColorSelectPopup::colorValueChanged(cocos2d::_ccColor3B)
FUNC 61bc0 4 0 cocos2d::CCLayerRGBA::setOpacityModifyRGB(bool)
FUNC 61bc4 8 0 cocos2d::CCLayerRGBA::isOpacityModifyRGB()
FUNC 61bcc 4 0 {virtual override thunk({offset(-408)}, cocos2d::CCLayerRGBA::setOpacityModifyRGB(bool))}
FUNC 61bd0 8 0 {virtual override thunk({offset(-408)}, cocos2d::CCLayerRGBA::isOpacityModifyRGB())}
FUNC 61bd8 60 0 __cxx_global_var_init
FUNC 61c38 1c 0 geode::modifier::ModifyBase<geode::modifier::ModifyDerive<DTColorSelectPopup, ColorSelectPopup> >::~ModifyBase()
FUNC 61c54 18c 0 geode::modifier::FieldIntermediate<DTColorSelectPopup, ColorSelectPopup>::self()
FUNC 61de0 4 0 geode::modifier::FieldIntermediate<DTColorSelectPopup, ColorSelectPopup>::fieldDestructor(void*)
FUNC 61de4 3c0 0 geode::modifier::ModifyBase<geode::modifier::ModifyDerive<DTColorSelectPopup, ColorSelectPopup> >::ModifyBase()
FUNC 621a4 2fc 0 geode::modifier::ModifyDerive<DTColorSelectPopup, ColorSelectPopup>::apply()
FUNC 624a0 4 0 geode::modifier::ModifyBase<geode::modifier::ModifyDerive<DTColorSelectPopup, ColorSelectPopup> >::apply()
FUNC 624a4 6c 0 geode::addresser::getVirtual<void (ColorSelectPopup::*)(cocos2d::_ccColor3B)>(void (ColorSelectPopup::*)(cocos2d::_ccColor3B))
FUNC 62510 184 0 geode::Hook::create<void (*)(DTColorSelectPopup*, cocos2d::_ccColor3B)>(void*, void (*)(DTColorSelectPopup*, cocos2d::_ccColor3B), std::__ndk1::basic_string<char, std::__ndk1::char_traits<char>, std::__ndk1::allocator<char> > const&, tulip::hook::TulipConvention, tulip::hook::HookMetadata const&)
FUNC 62694 8 0 geode::modifier::AsStaticFunction_colorValueChanged<DTColorSelectPopup, void (DTColorSelectPopup::*)(cocos2d::_ccColor3B)>::Impl<void (DTColorSelectPopup::*)(cocos2d::_ccColor3B)>::function(DTColorSelectPopup*, cocos2d::_ccColor3B)
FUNC 6269c 8c 0 _ZN5geode9addresser9Addresser14cachedInstanceI16ColorSelectPopupEEPT_vQ18HasZeroConstructorIS4_E
FUNC 62728 c0 0 ColorSelectPopup::ColorSelectPopup(geode::ZeroConstructorType)
FUNC 627e8 34 0 DTEditLevelLayer::openDTLayer(cocos2d::CCObject*)
FUNC 6281c 10c 0 LevelStats_s::~LevelStats_s()
FUNC 62928 444 0 __cxx_global_var_init
FUNC 62d6c 1c 0 geode::modifier::ModifyBase<geode::modifier::ModifyDerive<DTEditLevelLayer, EditLevelLayer> >::~ModifyBase()
FUNC 62d88 128 0 std::__ndk1::basic_string<char, std::__ndk1::char_traits<char>, std::__ndk1::allocator<char> >::__assign_external(char const*, unsigned long)
FUNC 62eb0 44 0 std::__ndk1::__tree<int, std::__ndk1::less<int>, std::__ndk1::allocator<int> >::destroy(std::__ndk1::__tree_node<int, void*>*)
FUNC 62ef4 50 0 std::__ndk1::__tree<std::__ndk1::__value_type<std::__ndk1::basic_string<char, std::__ndk1::char_traits<char>, std::__ndk1::allocator<char> >, int>, std::__ndk1::__map_value_compare<std::__ndk1::basic_string<char, std::__ndk1::char_traits<char>, std::__ndk1::allocator<char> >, std::__ndk1::__value_type<std::__ndk1::basic_string<char, std::__ndk1::char_traits<char>, std::__ndk1::allocator<char> >, int>, std::__ndk1::less<std::__ndk1::basic_string<char, std::__ndk1::char_traits<char>, std::__ndk1::allocator<char> > >, true>, std::__ndk1::allocator<std::__ndk1::__value_type<std::__ndk1::basic_string<char, std::__ndk1::char_traits<char>, std::__ndk1::allocator<char> >, int> > >::destroy(std::__ndk1::__tree_node<std::__ndk1::__value_type<std::__ndk1::basic_string<char, std::__ndk1::char_traits<char>, std::__ndk1::allocator<char> >, int>, void*>*)
FUNC 62f44 3c0 0 geode::modifier::ModifyDerive<DTEditLevelLayer, EditLevelLayer>::apply()
FUNC 63304 4 0 geode::modifier::ModifyBase<geode::modifier::ModifyDerive<DTEditLevelLayer, EditLevelLayer> >::apply()
FUNC 63308 420 0 geode::modifier::AsStaticFunction_init<DTEditLevelLayer, bool (DTEditLevelLayer::*)(GJGameLevel*)>::Impl<bool (DTEditLevelLayer::*)(GJGameLevel*)>::function(DTEditLevelLayer*, GJGameLevel*)
FUNC 63728 444 0 __cxx_global_var_init
FUNC 63b6c 1c 0 geode::modifier::ModifyBase<geode::modifier::ModifyDerive<DTGJBaseGameLayer, GJBaseGameLayer> >::~ModifyBase()
FUNC 63b88 60 0 __cxx_global_var_init.1
FUNC 63be8 1c 0 geode::modifier::ModifyBase<geode::modifier::ModifyDerive<DTPlayLayer, PlayLayer> >::~ModifyBase()
FUNC 63c04 194 0 geode::modifier::FieldIntermediate<DTPlayLayer, PlayLayer>::self()
FUNC 63d98 44 0 geode::modifier::FieldIntermediate<DTPlayLayer, PlayLayer>::fieldDestructor(void*)
FUNC 63ddc 3e0 0 geode::modifier::ModifyDerive<DTGJBaseGameLayer, GJBaseGameLayer>::apply()
FUNC 641bc 4 0 geode::modifier::ModifyBase<geode::modifier::ModifyDerive<DTGJBaseGameLayer, GJBaseGameLayer> >::apply()
FUNC 641c0 b8 0 geode::addresser::getVirtual<void (GJBaseGameLayer::*)(CheckpointGameObject*)>(void (GJBaseGameLayer::*)(CheckpointGameObject*))
FUNC 64278 50 0 geode::modifier::AsStaticFunction_checkpointActivated<DTGJBaseGameLayer, void (DTGJBaseGameLayer::*)(CheckpointGameObject*)>::Impl<void (DTGJBaseGameLayer::*)(CheckpointGameObject*)>::function(DTGJBaseGameLayer*, CheckpointGameObject*)
FUNC 642c8 71c 0 GJBaseGameLayer::GJBaseGameLayer(geode::ZeroConstructorType)
FUNC 649e4 550 0 GJGameState::GJGameState()
FUNC 64f34 78 0 geode::stl::unordered_map<int, int, geode::stl::hash<int>, geode::stl::equal_to<int>, std::__ndk1::allocator<std::__ndk1::pair<int const, int> > >::~unordered_map()
FUNC 64fac 78 0 geode::stl::unordered_set<int, geode::stl::hash<int>, geode::stl::equal_to<int>, std::__ndk1::allocator<int> >::~unordered_set()
FUNC 65024 84 0 geode::stl::unordered_map<int, gd::string, geode::stl::hash<int>, geode::stl::equal_to<int>, std::__ndk1::allocator<std::__ndk1::pair<int const, gd::string> > >::~unordered_map()
FUNC 650a8 1c 0 gd::map<std::__ndk1::pair<int, int>, int>::~map()
FUNC 650c4 8c 0 geode::stl::unordered_map<int, gd::vector<LabelGameObject*>, geode::stl::hash<int>, geode::stl::equal_to<int>, std::__ndk1::allocator<std::__ndk1::pair<int const, gd::vector<LabelGameObject*> > > >::~unordered_map()
FUNC 65150 78 0 geode::stl::unordered_map<int, std::__ndk1::pair<int, int>, geode::stl::hash<int>, geode::stl::equal_to<int>, std::__ndk1::allocator<std::__ndk1::pair<int const, std::__ndk1::pair<int, int> > > >::~unordered_map()
FUNC 651c8 8c 0 geode::stl::unordered_map<int, gd::vector<GameObject*>, geode::stl::hash<int>, geode::stl::equal_to<int>, std::__ndk1::allocator<std::__ndk1::pair<int const, gd::vector<GameObject*> > > >::~unordered_map()
FUNC 65254 78 0 geode::stl::unordered_map<int, cocos2d::CCPoint, geode::stl::hash<int>, geode::stl::equal_to<int>, std::__ndk1::allocator<std::__ndk1::pair<int const, cocos2d::CCPoint> > >::~unordered_map()
FUNC 652cc 104 0 gd::vector<geode::stl::unordered_map<int, int, geode::stl::hash<int>, geode::stl::equal_to<int>, std::__ndk1::allocator<std::__ndk1::pair<int const, int> > > >::~vector()
FUNC 653d0 440 0 GJGameState::~GJGameState()
FUNC 65810 78 0 geode::stl::unordered_map<int, SongChannelState, geode::stl::hash<int>, geode::stl::equal_to<int>, std::__ndk1::allocator<std::__ndk1::pair<int const, SongChannelState> > >::~unordered_map()
FUNC 65888 1c 0 gd::map<std::__ndk1::pair<int, int>, SFXTriggerInstance>::~map()
FUNC 658a4 90 0 geode::stl::unordered_map<int, std::__ndk1::vector<int, std::__ndk1::allocator<int> >, geode::stl::hash<int>, geode::stl::equal_to<int>, std::__ndk1::allocator<std::__ndk1::pair<int const, std::__ndk1::vector<int, std::__ndk1::allocator<int> > > > >::~unordered_map()
FUNC 65934 98 0 gd::vector<EnterEffectInstance>::~vector()
FUNC 659cc 60 0 geode::stl::unordered_map<int, std::__ndk1::vector<EnterEffectInstance, std::__ndk1::allocator<EnterEffectInstance> >, geode::stl::hash<int>, geode::stl::equal_to<int>, std::__ndk1::allocator<std::__ndk1::pair<int const, std::__ndk1::vector<EnterEffectInstance, std::__ndk1::allocator<EnterEffectInstance> > > > >::~unordered_map()
FUNC 65a2c 1c 0 gd::map<std::__ndk1::pair<GJGameEvent, int>, int>::~map()
FUNC 65a48 1c 0 gd::map<std::__ndk1::pair<GJGameEvent, int>, gd::vector<EventTriggerInstance> >::~map()
FUNC 65a64 78 0 geode::stl::unordered_map<int, EnhancedGameObject*, geode::stl::hash<int>, geode::stl::equal_to<int>, std::__ndk1::allocator<std::__ndk1::pair<int const, EnhancedGameObject*> > >::~unordered_map()
FUNC 65adc 78 0 geode::stl::unordered_map<int, GameObjectPhysics, geode::stl::hash<int>, geode::stl::equal_to<int>, std::__ndk1::allocator<std::__ndk1::pair<int const, GameObjectPhysics> > >::~unordered_map()
FUNC 65b54 78 0 geode::stl::unordered_map<int, GJValueTween, geode::stl::hash<int>, geode::stl::equal_to<int>, std::__ndk1::allocator<std::__ndk1::pair<int const, GJValueTween> > >::~unordered_map()
FUNC 65bcc 78 0 geode::stl::unordered_map<int, bool, geode::stl::hash<int>, geode::stl::equal_to<int>, std::__ndk1::allocator<std::__ndk1::pair<int const, bool> > >::~unordered_map()
FUNC 65c44 1cc 0 gd::map<std::__ndk1::pair<GJGameEvent, int>, gd::vector<EventTriggerInstance> >::map(std::__ndk1::map<std::__ndk1::pair<GJGameEvent, int>, gd::vector<EventTriggerInstance>, std::__ndk1::less<std::__ndk1::pair<GJGameEvent, int> >, std::__ndk1::allocator<std::__ndk1::pair<std::__ndk1::pair<GJGameEvent, int> const, gd::vector<EventTriggerInstance> > > >)
FUNC 65e10 250 0 gd::map<std::__ndk1::pair<GJGameEvent, int>, gd::vector<EventTriggerInstance> >::insert_pair(std::__ndk1::pair<std::__ndk1::pair<GJGameEvent, int>, gd::vector<EventTriggerInstance> > const&)
FUNC 66060 80 0 std::__ndk1::pair<std::__ndk1::pair<GJGameEvent, int>, gd::vector<EventTriggerInstance> >::~pair()
FUNC 660e0 80 0 std::__ndk1::pair<std::__ndk1::pair<GJGameEvent, int> const, gd::vector<EventTriggerInstance> >::~pair()
FUNC 66160 194 0 gd::vector<EventTriggerInstance>::vector(gd::vector<EventTriggerInstance> const&)
FUNC 662f4 250 0 geode::stl::_rb_insert_rebalance(bool, geode::stl::_rb_tree_base*, geode::stl::_rb_tree_base*, geode::stl::_rb_tree_base&)
FUNC 66544 1c8 0 gd::vector<EventTriggerInstance>::operator=(gd::vector<EventTriggerInstance> const&)
FUNC 6670c 80 0 gd::vector<EventTriggerInstance>::~vector()
FUNC 6678c 98 0 std::__ndk1::__tree<std::__ndk1::__value_type<std::__ndk1::pair<GJGameEvent, int>, gd::vector<EventTriggerInstance> >, std::__ndk1::__map_value_compare<std::__ndk1::pair<GJGameEvent, int>, std::__ndk1::__value_type<std::__ndk1::pair<GJGameEvent, int>, gd::vector<EventTriggerInstance> >, std::__ndk1::less<std::__ndk1::pair<GJGameEvent, int> >, true>, std::__ndk1::allocator<std::__ndk1::__value_type<std::__ndk1::pair<GJGameEvent, int>, gd::vector<EventTriggerInstance> > > >::destroy(std::__ndk1::__tree_node<std::__ndk1::__value_type<std::__ndk1::pair<GJGameEvent, int>, gd::vector<EventTriggerInstance> >, void*>*)
FUNC 66824 4c 0 gd::map<std::__ndk1::pair<int, int>, SFXTriggerInstance>::erase(geode::stl::_rb_tree_node<std::__ndk1::pair<std::__ndk1::pair<int, int>, SFXTriggerInstance> >*)
FUNC 66870 4c 0 gd::map<int, EnterEffectAnimValue>::erase(geode::stl::_rb_tree_node<std::__ndk1::pair<int, EnterEffectAnimValue> >*)
FUNC 668bc 88 0 geode::stl::__detail::_Hashtable_alloc<std::__ndk1::allocator<geode::stl::__detail::_Hash_node<std::__ndk1::pair<int const, std::__ndk1::vector<EnterEffectInstance, std::__ndk1::allocator<EnterEffectInstance> > >, false> > >::_M_deallocate_nodes(geode::stl::__detail::_Hash_node<std::__ndk1::pair<int const, std::__ndk1::vector<EnterEffectInstance, std::__ndk1::allocator<EnterEffectInstance> > >, false>*)
FUNC 66944 4c 0 gd::map<std::__ndk1::pair<GJGameEvent, int>, int>::erase(geode::stl::_rb_tree_node<std::__ndk1::pair<std::__ndk1::pair<GJGameEvent, int>, int> >*)
FUNC 66990 a8 0 gd::map<std::__ndk1::pair<GJGameEvent, int>, gd::vector<EventTriggerInstance> >::erase(geode::stl::_rb_tree_node<std::__ndk1::pair<std::__ndk1::pair<GJGameEvent, int>, gd::vector<EventTriggerInstance> > >*)
FUNC 66a38 4c 0 gd::map<std::__ndk1::pair<int, int>, int>::erase(geode::stl::_rb_tree_node<std::__ndk1::pair<std::__ndk1::pair<int, int>, int> >*)
FUNC 66a84 3c0 0 geode::modifier::ModifyBase<geode::modifier::ModifyDerive<DTPlayLayer, PlayLayer> >::ModifyBase()
FUNC 66e44 e1c 0 geode::modifier::ModifyDerive<DTPlayLayer, PlayLayer>::apply()
FUNC 67c60 4 0 geode::modifier::ModifyBase<geode::modifier::ModifyDerive<DTPlayLayer, PlayLayer> >::apply()
FUNC 67c64 6c 0 geode::addresser::getVirtual<void (PlayLayer::*)(PlayerObject*, GameObject*)>(void (PlayLayer::*)(PlayerObject*, GameObject*))
FUNC 67cd0 118 0 geode::Hook::create<void (*)(DTPlayLayer*, PlayerObject*, GameObject*)>(void*, void (*)(DTPlayLayer*, PlayerObject*, GameObject*), std::__ndk1::basic_string<char, std::__ndk1::char_traits<char>, std::__ndk1::allocator<char> > const&, tulip::hook::TulipConvention, tulip::hook::HookMetadata const&)
FUNC 67de8 4 0 geode::modifier::AsStaticFunction_destroyPlayer<DTPlayLayer, void (DTPlayLayer::*)(PlayerObject*, GameObject*)>::Impl<void (DTPlayLayer::*)(PlayerObject*, GameObject*)>::function(DTPlayLayer*, PlayerObject*, GameObject*)
FUNC 67dec 6c 0 geode::addresser::getVirtual<void (PlayLayer::*)()>(void (PlayLayer::*)())
FUNC 67e58 134 0 geode::Hook::create<void (*)(DTPlayLayer*)>(void*, void (*)(DTPlayLayer*), std::__ndk1::basic_string<char, std::__ndk1::char_traits<char>, std::__ndk1::allocator<char> > const&, tulip::hook::TulipConvention, tulip::hook::HookMetadata const&)
FUNC 67f8c 30 0 geode::modifier::AsStaticFunction_removeAllCheckpoints<DTPlayLayer, void (DTPlayLayer::*)()>::Impl<void (DTPlayLayer::*)()>::function(DTPlayLayer*)
FUNC 67fbc 118 0 geode::Hook::create<bool (*)(DTPlayLayer*, GJGameLevel*, bool, bool)>(void*, bool (*)(DTPlayLayer*, GJGameLevel*, bool, bool), std::__ndk1::basic_string<char, std::__ndk1::char_traits<char>, std::__ndk1::allocator<char> > const&, tulip::hook::TulipConvention, tulip::hook::HookMetadata const&)
FUNC 680d4 4 0 geode::modifier::AsStaticFunction_init<DTPlayLayer, bool (DTPlayLayer::*)(GJGameLevel*, bool, bool)>::Impl<bool (DTPlayLayer::*)(GJGameLevel*, bool, bool)>::function(DTPlayLayer*, GJGameLevel*, bool, bool)
FUNC 680d8 4 0 geode::modifier::AsStaticFunction_levelComplete<DTPlayLayer, void (DTPlayLayer::*)()>::Impl<void (DTPlayLayer::*)()>::function(DTPlayLayer*)
FUNC 680dc 4 0 geode::modifier::AsStaticFunction_onQuit<DTPlayLayer, void (DTPlayLayer::*)()>::Impl<void (DTPlayLayer::*)()>::function(DTPlayLayer*)
FUNC 680e0 74 0 geode::modifier::AsStaticFunction_resetLevel<DTPlayLayer, void (DTPlayLayer::*)()>::Impl<void (DTPlayLayer::*)()>::function(DTPlayLayer*)
FUNC 68154 8c 0 _ZN5geode9addresser9Addresser14cachedInstanceI9PlayLayerEEPT_vQ18HasZeroConstructorIS4_E
FUNC 681e0 94 0 PlayLayer::PlayLayer(geode::ZeroConstructorType)
FUNC 68274 718 0 GJBaseGameLayer::GJBaseGameLayer(geode::ZeroConstructorType, unsigned long)
FUNC 6898c f8 0 tulip::hook::AbstractFunction::from<void, DTPlayLayer*, PlayerObject*, GameObject*>(void (*)(DTPlayLayer*, PlayerObject*, GameObject*))
FUNC 68a84 2a0 0 tulip::hook::AbstractFunction::from<bool, DTPlayLayer*, GJGameLevel*, bool, bool>(bool (*)(DTPlayLayer*, GJGameLevel*, bool, bool))
FUNC 68d24 34 0 DTLevelInfoLayer::openDTLayer(cocos2d::CCObject*)
FUNC 68d58 144 0 DTLevelInfoLayer::checkIfPlayVisible(float)
FUNC 68e9c 444 0 __cxx_global_var_init
FUNC 692e0 1c 0 geode::modifier::ModifyBase<geode::modifier::ModifyDerive<DTLevelInfoLayer, LevelInfoLayer> >::~ModifyBase()
FUNC 692fc 188 0 geode::modifier::FieldIntermediate<DTLevelInfoLayer, LevelInfoLayer>::self()
FUNC 69484 4 0 geode::modifier::FieldIntermediate<DTLevelInfoLayer, LevelInfoLayer>::fieldDestructor(void*)
FUNC 69488 404 0 geode::modifier::ModifyDerive<DTLevelInfoLayer, LevelInfoLayer>::apply()
FUNC 6988c 4 0 geode::modifier::ModifyBase<geode::modifier::ModifyDerive<DTLevelInfoLayer, LevelInfoLayer> >::apply()
FUNC 69890 4e4 0 geode::modifier::AsStaticFunction_init<DTLevelInfoLayer, bool (DTLevelInfoLayer::*)(GJGameLevel*, bool)>::Impl<bool (DTLevelInfoLayer::*)(GJGameLevel*, bool)>::function(DTLevelInfoLayer*, GJGameLevel*, bool)
FUNC 69d74 6c 0 DTPauseLayer::onDTMiniMenuOpened(cocos2d::CCObject*)
FUNC 69de0 444 0 __cxx_global_var_init.4
FUNC 6a224 1c 0 geode::modifier::ModifyBase<geode::modifier::ModifyDerive<DTPauseLayer, PauseLayer> >::~ModifyBase()
FUNC 6a240 384 0 geode::modifier::ModifyDerive<DTPauseLayer, PauseLayer>::apply()
FUNC 6a5c4 4 0 geode::modifier::ModifyBase<geode::modifier::ModifyDerive<DTPauseLayer, PauseLayer> >::apply()
FUNC 6a5c8 a8 0 geode::addresser::getVirtual<void (PauseLayer::*)()>(void (PauseLayer::*)())
FUNC 6a670 1c0 0 geode::modifier::AsStaticFunction_customSetup<DTPauseLayer, void (DTPauseLayer::*)()>::Impl<void (DTPauseLayer::*)()>::function(DTPauseLayer*)
FUNC 6a830 8c 0 PauseLayer::PauseLayer(geode::ZeroConstructorType)
FUNC 6a8bc 434 0 DTPlayLayer::init(GJGameLevel*, bool, bool)
FUNC 6acf0 74 0 geode::impl::ResultData<std::__ndk1::basic_string<char, std::__ndk1::char_traits<char>, std::__ndk1::allocator<char> >, std::__ndk1::basic_string<char, std::__ndk1::char_traits<char>, std::__ndk1::allocator<char> > >::~ResultData()
FUNC 6ad64 47c 0 DTPlayLayer::destroyPlayer(PlayerObject*, GameObject*)
FUNC 6b1e0 170 0 std::__ndk1::vector<int, std::__ndk1::allocator<int> >::push_back[abi:ne180000](int const&)
FUNC 6b350 410 0 DTPlayLayer::levelComplete()
FUNC 6b760 fc 0 DTPlayLayer::onQuit()
FUNC 6b85c 14 0 std::__ndk1::__variant_detail::__visitation::__base::__dispatcher<(unsigned long)0>::__dispatch[abi:ne180000]<std::__ndk1::__variant_detail::__dtor<std::__ndk1::__variant_detail::__traits<std::__ndk1::basic_string<char, std::__ndk1::char_traits<char>, std::__ndk1::allocator<char> >, std::__ndk1::allocator<char> >, (std::__ndk1::__variant_detail::_Trait)1>::__destroy[abi:ne180000]()::{lambda(auto:1&)#1}, std::__ndk1::__variant_detail::__base<(std::__ndk1::__variant_detail::__traits<std::__ndk1::basic_string<char, std::__ndk1::char_traits<char>, std::__ndk1::allocator<char> >, std::__ndk1::allocator<char> >)1, std::__ndk1::allocator<char>, std::__ndk1::allocator<char> >&>(std::__ndk1::__variant_detail::__dtor<std::__ndk1::__variant_detail::__traits<std::__ndk1::basic_string<char, std::__ndk1::char_traits<char>, std::__ndk1::allocator<char> >, std::__ndk1::allocator<char> >, (std::__ndk1::__variant_detail::_Trait)1>, std::__ndk1::__variant_detail::__base<(std::__ndk1::__variant_detail::__traits<std::__ndk1::basic_string<char, std::__ndk1::char_traits<char>, std::__ndk1::allocator<char> >, std::__ndk1::allocator<char> >)1, std::__ndk1::allocator<char>, std::__ndk1::allocator<char> >&)
FUNC 6b870 14 0 std::__ndk1::__variant_detail::__visitation::__base::__dispatcher<(unsigned long)1>::__dispatch[abi:ne180000]<std::__ndk1::__variant_detail::__dtor<std::__ndk1::__variant_detail::__traits<std::__ndk1::basic_string<char, std::__ndk1::char_traits<char>, std::__ndk1::allocator<char> >, std::__ndk1::allocator<char> >, (std::__ndk1::__variant_detail::_Trait)1>::__destroy[abi:ne180000]()::{lambda(auto:1&)#1}, std::__ndk1::__variant_detail::__base<(std::__ndk1::__variant_detail::__traits<std::__ndk1::basic_string<char, std::__ndk1::char_traits<char>, std::__ndk1::allocator<char> >, std::__ndk1::allocator<char> >)1, std::__ndk1::allocator<char>, std::__ndk1::allocator<char> >&>(std::__ndk1::__variant_detail::__dtor<std::__ndk1::__variant_detail::__traits<std::__ndk1::basic_string<char, std::__ndk1::char_traits<char>, std::__ndk1::allocator<char> >, std::__ndk1::allocator<char> >, (std::__ndk1::__variant_detail::_Trait)1>, std::__ndk1::__variant_detail::__base<(std::__ndk1::__variant_detail::__traits<std::__ndk1::basic_string<char, std::__ndk1::char_traits<char>, std::__ndk1::allocator<char> >, std::__ndk1::allocator<char> >)1, std::__ndk1::allocator<char>, std::__ndk1::allocator<char> >&)
FUNC 6b884 14 0 std::__ndk1::vector<int, std::__ndk1::allocator<int> >::__throw_length_error[abi:ne180000]() const
FUNC 6b898 14 0 std::__ndk1::vector<Run_s, std::__ndk1::allocator<Run_s> >::__throw_length_error[abi:ne180000]() const
FUNC 6b8ac 280 0 ChooseRunCell::init(int const&, std::__ndk1::function<void (int const&)> const&)
FUNC 6bb2c 20 0 ChooseRunCell::ChooseMe(cocos2d::CCObject*)
FUNC 6bb4c 5c 0 ChooseRunCell::~ChooseRunCell()
FUNC 6bba8 64 0 ChooseRunCell::~ChooseRunCell()
FUNC 6bc0c 168 0 std::__ndk1::__function::__value_func<void (int const&)>::swap[abi:ne180000](std::__ndk1::__function::__value_func<void (int const&)>&)
FUNC 6bd74 f0 0 DTExportImportLayer::create(DTLayer* const&)
FUNC 6be64 184 0 DTExportImportLayer::DTExportImportLayer()
FUNC 6bfe8 858 0 DTExportImportLayer::setup(DTLayer* const&)
FUNC 6c840 50 0 DTExportImportLayer::onExportWithLabelsClicked(cocos2d::CCObject*)
FUNC 6c890 848 0 DTExportImportLayer::onExportClicked(cocos2d::CCObject*)
FUNC 6d0d8 1a4 0 DTExportImportLayer::onOpenExportsFolderClicked(cocos2d::CCObject*)
FUNC 6d27c 650 0 DTExportImportLayer::onImportClicked(cocos2d::CCObject*)
FUNC 6d8cc 100 0 DTExportImportLayer::onExportInfo(cocos2d::CCObject*)
FUNC 6d9cc 100 0 DTExportImportLayer::onImportInfo(cocos2d::CCObject*)
FUNC 6dacc bc 0 std::__ndk1::optional<std::__ndk1::__fs::filesystem::path>::operator=[abi:ne180000]<std::__ndk1::__fs::filesystem::path&, void>(std::__ndk1::__fs::filesystem::path&)
FUNC 6db88 80 0 geode::utils::file::FilePickOptions::Filter::~Filter()
FUNC 6dc08 50 0 geode::Task<geode::Result<std::__ndk1::__fs::filesystem::path, std::__ndk1::basic_string<char, std::__ndk1::char_traits<char>, std::__ndk1::allocator<char> > >, std::__ndk1::monostate>::~Task()
FUNC 6dc58 30 0 std::__ndk1::vector<geode::utils::file::FilePickOptions::Filter, std::__ndk1::allocator<geode::utils::file::FilePickOptions::Filter> >::~vector[abi:ne180000]()
FUNC 6dc88 58 0 geode::utils::file::FilePickOptions::~FilePickOptions()
FUNC 6dce0 74 0 geode::impl::ResultData<void, std::__ndk1::basic_string<char, std::__ndk1::char_traits<char>, std::__ndk1::allocator<char> > >::~ResultData()
FUNC 6dd54 1c4 0 geode::utils::numFromString<int>(std::__ndk1::basic_string_view<char, std::__ndk1::char_traits<char> >, int)
FUNC 6df18 74 0 geode::impl::ResultData<int, std::__ndk1::basic_string<char, std::__ndk1::char_traits<char>, std::__ndk1::allocator<char> > >::~ResultData()
FUNC 6df8c 11c 0 DTExportImportLayer::~DTExportImportLayer()
FUNC 6e0a8 24 0 DTExportImportLayer::~DTExportImportLayer()
FUNC 6e0cc 2c 0 geode::Popup<DTLayer* const&>::registerWithTouchDispatcher()
FUNC 6e0f8 28 0 geode::Popup<DTLayer* const&>::keyDown(cocos2d::enumKeyCodes)
FUNC 6e120 148 0 geode::Popup<DTLayer* const&>::onClose(cocos2d::CCObject*)
FUNC 6e268 8 0 {virtual override thunk({offset(-320)}, DTExportImportLayer::~DTExportImportLayer())}
FUNC 6e270 28 0 {virtual override thunk({offset(-320)}, DTExportImportLayer::~DTExportImportLayer())}
FUNC 6e298 2c 0 {virtual override thunk({offset(-344)}, geode::Popup<DTLayer* const&>::keyDown(cocos2d::enumKeyCodes))}
FUNC 6e2c4 6c 0 geode::Popup<DTLayer* const&>::~Popup()
FUNC 6e330 4 0 geode::Popup<DTLayer* const&>::~Popup()
FUNC 6e334 6c 0 {virtual override thunk({offset(-320)}, geode::Popup<DTLayer* const&>::~Popup())}
FUNC 6e3a0 4 0 {virtual override thunk({offset(-320)}, geode::Popup<DTLayer* const&>::~Popup())}
FUNC 6e3a4 21c 0 geode::Task<geode::Result<std::__ndk1::__fs::filesystem::path, std::__ndk1::basic_string<char, std::__ndk1::char_traits<char>, std::__ndk1::allocator<char> > >, std::__ndk1::monostate>::setListener(geode::EventListenerProtocol*)
FUNC 6e5c0 4 0 geode::EventListener<geode::Task<geode::Result<std::__ndk1::__fs::filesystem::path, std::__ndk1::basic_string<char, std::__ndk1::char_traits<char>, std::__ndk1::allocator<char> > >, std::__ndk1::monostate> >::getPool() const
FUNC 6e5c4 1ac 0 geode::EventListener<geode::Task<geode::Result<std::__ndk1::__fs::filesystem::path, std::__ndk1::basic_string<char, std::__ndk1::char_traits<char>, std::__ndk1::allocator<char> > >, std::__ndk1::monostate> >::handle(geode::Event*)
FUNC 6e770 8c 0 geode::EventListener<geode::Task<geode::Result<std::__ndk1::__fs::filesystem::path, std::__ndk1::basic_string<char, std::__ndk1::char_traits<char>, std::__ndk1::allocator<char> > >, std::__ndk1::monostate> >::~EventListener()
FUNC 6e7fc 94 0 geode::EventListener<geode::Task<geode::Result<std::__ndk1::__fs::filesystem::path, std::__ndk1::basic_string<char, std::__ndk1::char_traits<char>, std::__ndk1::allocator<char> > >, std::__ndk1::monostate> >::~EventListener()
FUNC 6e890 50 0 geode::Task<geode::Result<std::__ndk1::__fs::filesystem::path, std::__ndk1::basic_string<char, std::__ndk1::char_traits<char>, std::__ndk1::allocator<char> > >, std::__ndk1::monostate>::setListener(geode::EventListenerProtocol*)::{lambda()#1}::~{lambda()#1}()
FUNC 6e8e0 50 0 geode::Task<geode::Result<std::__ndk1::__fs::filesystem::path, std::__ndk1::basic_string<char, std::__ndk1::char_traits<char>, std::__ndk1::allocator<char> > >, std::__ndk1::monostate>::setListener(geode::EventListenerProtocol*)::{lambda()#2}::~{lambda()#2}()
FUNC 6e930 5c 0 std::__ndk1::__function::__func<geode::Task<geode::Result<std::__ndk1::__fs::filesystem::path, std::__ndk1::basic_string<char, std::__ndk1::char_traits<char>, std::__ndk1::allocator<char> > >, std::__ndk1::monostate>::setListener(geode::EventListenerProtocol*)::{lambda()#1}, std::__ndk1::allocator<geode::Task<geode::Result<std::__ndk1::__fs::filesystem::path, std::__ndk1::basic_string<char, std::__ndk1::char_traits<char>, std::__ndk1::allocator<char> > >, std::__ndk1::monostate>::setListener(geode::EventListenerProtocol*)::{lambda()#1}>, void ()>::~__func()
FUNC 6e98c 5c 0 std::__ndk1::__function::__func<geode::Task<geode::Result<std::__ndk1::__fs::filesystem::path, std::__ndk1::basic_string<char, std::__ndk1::char_traits<char>, std::__ndk1::allocator<char> > >, std::__ndk1::monostate>::setListener(geode::EventListenerProtocol*)::{lambda()#1}, std::__ndk1::allocator<geode::Task<geode::Result<std::__ndk1::__fs::filesystem::path, std::__ndk1::basic_string<char, std::__ndk1::char_traits<char>, std::__ndk1::allocator<char> > >, std::__ndk1::monostate>::setListener(geode::EventListenerProtocol*)::{lambda()#1}>, void ()>::~__func()
FUNC 6e9e8 58 0 std::__ndk1::__function::__func<geode::Task<geode::Result<std::__ndk1::__fs::filesystem::path, std::__ndk1::basic_string<char, std::__ndk1::char_traits<char>, std::__ndk1::allocator<char> > >, std::__ndk1::monostate>::setListener(geode::EventListenerProtocol*)::{lambda()#1}, std::__ndk1::allocator<geode::Task<geode::Result<std::__ndk1::__fs::filesystem::path, std::__ndk1::basic_string<char, std::__ndk1::char_traits<char>, std::__ndk1::allocator<char> > >, std::__ndk1::monostate>::setListener(geode::EventListenerProtocol*)::{lambda()#1}>, void ()>::__clone() const
FUNC 6ea40 4c 0 std::__ndk1::__function::__func<geode::Task<geode::Result<std::__ndk1::__fs::filesystem::path, std::__ndk1::basic_string<char, std::__ndk1::char_traits<char>, std::__ndk1::allocator<char> > >, std::__ndk1::monostate>::setListener(geode::EventListenerProtocol*)::{lambda()#1}, std::__ndk1::allocator<geode::Task<geode::Result<std::__ndk1::__fs::filesystem::path, std::__ndk1::basic_string<char, std::__ndk1::char_traits<char>, std::__ndk1::allocator<char> > >, std::__ndk1::monostate>::setListener(geode::EventListenerProtocol*)::{lambda()#1}>, void ()>::__clone(std::__ndk1::__function::__base<void ()>*) const
FUNC 6ea8c 50 0 std::__ndk1::__function::__func<geode::Task<geode::Result<std::__ndk1::__fs::filesystem::path, std::__ndk1::basic_string<char, std::__ndk1::char_traits<char>, std::__ndk1::allocator<char> > >, std::__ndk1::monostate>::setListener(geode::EventListenerProtocol*)::{lambda()#1}, std::__ndk1::allocator<geode::Task<geode::Result<std::__ndk1::__fs::filesystem::path, std::__ndk1::basic_string<char, std::__ndk1::char_traits<char>, std::__ndk1::allocator<char> > >, std::__ndk1::monostate>::setListener(geode::EventListenerProtocol*)::{lambda()#1}>, void ()>::destroy()
FUNC 6eadc 50 0 std::__ndk1::__function::__func<geode::Task<geode::Result<std::__ndk1::__fs::filesystem::path, std::__ndk1::basic_string<char, std::__ndk1::char_traits<char>, std::__ndk1::allocator<char> > >, std::__ndk1::monostate>::setListener(geode::EventListenerProtocol*)::{lambda()#1}, std::__ndk1::allocator<geode::Task<geode::Result<std::__ndk1::__fs::filesystem::path, std::__ndk1::basic_string<char, std::__ndk1::char_traits<char>, std::__ndk1::allocator<char> > >, std::__ndk1::monostate>::setListener(geode::EventListenerProtocol*)::{lambda()#1}>, void ()>::destroy_deallocate()
FUNC 6eb2c 198 0 std::__ndk1::__function::__func<geode::Task<geode::Result<std::__ndk1::__fs::filesystem::path, std::__ndk1::basic_string<char, std::__ndk1::char_traits<char>, std::__ndk1::allocator<char> > >, std::__ndk1::monostate>::setListener(geode::EventListenerProtocol*)::{lambda()#1}, std::__ndk1::allocator<geode::Task<geode::Result<std::__ndk1::__fs::filesystem::path, std::__ndk1::basic_string<char, std::__ndk1::char_traits<char>, std::__ndk1::allocator<char> > >, std::__ndk1::monostate>::setListener(geode::EventListenerProtocol*)::{lambda()#1}>, void ()>::operator()()
FUNC 6ecc4 1c 0 std::__ndk1::__function::__func<geode::Task<geode::Result<std::__ndk1::__fs::filesystem::path, std::__ndk1::basic_string<char, std::__ndk1::char_traits<char>, std::__ndk1::allocator<char> > >, std::__ndk1::monostate>::setListener(geode::EventListenerProtocol*)::{lambda()#1}, std::__ndk1::allocator<geode::Task<geode::Result<std::__ndk1::__fs::filesystem::path, std::__ndk1::basic_string<char, std::__ndk1::char_traits<char>, std::__ndk1::allocator<char> > >, std::__ndk1::monostate>::setListener(geode::EventListenerProtocol*)::{lambda()#1}>, void ()>::target(std::type_info const&) const
FUNC 6ece0 c 0 std::__ndk1::__function::__func<geode::Task<geode::Result<std::__ndk1::__fs::filesystem::path, std::__ndk1::basic_string<char, std::__ndk1::char_traits<char>, std::__ndk1::allocator<char> > >, std::__ndk1::monostate>::setListener(geode::EventListenerProtocol*)::{lambda()#1}, std::__ndk1::allocator<geode::Task<geode::Result<std::__ndk1::__fs::filesystem::path, std::__ndk1::basic_string<char, std::__ndk1::char_traits<char>, std::__ndk1::allocator<char> > >, std::__ndk1::monostate>::setListener(geode::EventListenerProtocol*)::{lambda()#1}>, void ()>::target_type() const
FUNC 6ecec 50 0 geode::Task<geode::Result<std::__ndk1::__fs::filesystem::path, std::__ndk1::basic_string<char, std::__ndk1::char_traits<char>, std::__ndk1::allocator<char> > >, std::__ndk1::monostate>::Event::~Event()
FUNC 6ed3c 58 0 geode::Task<geode::Result<std::__ndk1::__fs::filesystem::path, std::__ndk1::basic_string<char, std::__ndk1::char_traits<char>, std::__ndk1::allocator<char> > >, std::__ndk1::monostate>::Event::~Event()
FUNC 6ed94 5c 0 std::__ndk1::__function::__func<geode::Task<geode::Result<std::__ndk1::__fs::filesystem::path, std::__ndk1::basic_string<char, std::__ndk1::char_traits<char>, std::__ndk1::allocator<char> > >, std::__ndk1::monostate>::setListener(geode::EventListenerProtocol*)::{lambda()#2}, std::__ndk1::allocator<geode::Task<geode::Result<std::__ndk1::__fs::filesystem::path, std::__ndk1::basic_string<char, std::__ndk1::char_traits<char>, std::__ndk1::allocator<char> > >, std::__ndk1::monostate>::setListener(geode::EventListenerProtocol*)::{lambda()#2}>, void ()>::~__func()
FUNC 6edf0 5c 0 std::__ndk1::__function::__func<geode::Task<geode::Result<std::__ndk1::__fs::filesystem::path, std::__ndk1::basic_string<char, std::__ndk1::char_traits<char>, std::__ndk1::allocator<char> > >, std::__ndk1::monostate>::setListener(geode::EventListenerProtocol*)::{lambda()#2}, std::__ndk1::allocator<geode::Task<geode::Result<std::__ndk1::__fs::filesystem::path, std::__ndk1::basic_string<char, std::__ndk1::char_traits<char>, std::__ndk1::allocator<char> > >, std::__ndk1::monostate>::setListener(geode::EventListenerProtocol*)::{lambda()#2}>, void ()>::~__func()
FUNC 6ee4c 58 0 std::__ndk1::__function::__func<geode::Task<geode::Result<std::__ndk1::__fs::filesystem::path, std::__ndk1::basic_string<char, std::__ndk1::char_traits<char>, std::__ndk1::allocator<char> > >, std::__ndk1::monostate>::setListener(geode::EventListenerProtocol*)::{lambda()#2}, std::__ndk1::allocator<geode::Task<geode::Result<std::__ndk1::__fs::filesystem::path, std::__ndk1::basic_string<char, std::__ndk1::char_traits<char>, std::__ndk1::allocator<char> > >, std::__ndk1::monostate>::setListener(geode::EventListenerProtocol*)::{lambda()#2}>, void ()>::__clone() const
FUNC 6eea4 4c 0 std::__ndk1::__function::__func<geode::Task<geode::Result<std::__ndk1::__fs::filesystem::path, std::__ndk1::basic_string<char, std::__ndk1::char_traits<char>, std::__ndk1::allocator<char> > >, std::__ndk1::monostate>::setListener(geode::EventListenerProtocol*)::{lambda()#2}, std::__ndk1::allocator<geode::Task<geode::Result<std::__ndk1::__fs::filesystem::path, std::__ndk1::basic_string<char, std::__ndk1::char_traits<char>, std::__ndk1::allocator<char> > >, std::__ndk1::monostate>::setListener(geode::EventListenerProtocol*)::{lambda()#2}>, void ()>::__clone(std::__ndk1::__function::__base<void ()>*) const
FUNC 6eef0 50 0 std::__ndk1::__function::__func<geode::Task<geode::Result<std::__ndk1::__fs::filesystem::path, std::__ndk1::basic_string<char, std::__ndk1::char_traits<char>, std::__ndk1::allocator<char> > >, std::__ndk1::monostate>::setListener(geode::EventListenerProtocol*)::{lambda()#2}, std::__ndk1::allocator<geode::Task<geode::Result<std::__ndk1::__fs::filesystem::path, std::__ndk1::basic_string<char, std::__ndk1::char_traits<char>, std::__ndk1::allocator<char> > >, std::__ndk1::monostate>::setListener(geode::EventListenerProtocol*)::{lambda()#2}>, void ()>::destroy()
FUNC 6ef40 50 0 std::__ndk1::__function::__func<geode::Task<geode::Result<std::__ndk1::__fs::filesystem::path, std::__ndk1::basic_string<char, std::__ndk1::char_traits<char>, std::__ndk1::allocator<char> > >, std::__ndk1::monostate>::setListener(geode::EventListenerProtocol*)::{lambda()#2}, std::__ndk1::allocator<geode::Task<geode::Result<std::__ndk1::__fs::filesystem::path, std::__ndk1::basic_string<char, std::__ndk1::char_traits<char>, std::__ndk1::allocator<char> > >, std::__ndk1::monostate>::setListener(geode::EventListenerProtocol*)::{lambda()#2}>, void ()>::destroy_deallocate()
FUNC 6ef90 188 0 std::__ndk1::__function::__func<geode::Task<geode::Result<std::__ndk1::__fs::filesystem::path, std::__ndk1::basic_string<char, std::__ndk1::char_traits<char>, std::__ndk1::allocator<char> > >, std::__ndk1::monostate>::setListener(geode::EventListenerProtocol*)::{lambda()#2}, std::__ndk1::allocator<geode::Task<geode::Result<std::__ndk1::__fs::filesystem::path, std::__ndk1::basic_string<char, std::__ndk1::char_traits<char>, std::__ndk1::allocator<char> > >, std::__ndk1::monostate>::setListener(geode::EventListenerProtocol*)::{lambda()#2}>, void ()>::operator()()
FUNC 6f118 1c 0 std::__ndk1::__function::__func<geode::Task<geode::Result<std::__ndk1::__fs::filesystem::path, std::__ndk1::basic_string<char, std::__ndk1::char_traits<char>, std::__ndk1::allocator<char> > >, std::__ndk1::monostate>::setListener(geode::EventListenerProtocol*)::{lambda()#2}, std::__ndk1::allocator<geode::Task<geode::Result<std::__ndk1::__fs::filesystem::path, std::__ndk1::basic_string<char, std::__ndk1::char_traits<char>, std::__ndk1::allocator<char> > >, std::__ndk1::monostate>::setListener(geode::EventListenerProtocol*)::{lambda()#2}>, void ()>::target(std::type_info const&) const
FUNC 6f134 c 0 std::__ndk1::__function::__func<geode::Task<geode::Result<std::__ndk1::__fs::filesystem::path, std::__ndk1::basic_string<char, std::__ndk1::char_traits<char>, std::__ndk1::allocator<char> > >, std::__ndk1::monostate>::setListener(geode::EventListenerProtocol*)::{lambda()#2}, std::__ndk1::allocator<geode::Task<geode::Result<std::__ndk1::__fs::filesystem::path, std::__ndk1::basic_string<char, std::__ndk1::char_traits<char>, std::__ndk1::allocator<char> > >, std::__ndk1::monostate>::setListener(geode::EventListenerProtocol*)::{lambda()#2}>, void ()>::target_type() const
FUNC 6f140 e4 0 geode::cast::traverseTypeinfoFor(void*, geode::cast::ClassTypeinfoType const*, char const*)
FUNC 6f224 34 0 std::__ndk1::__throw_bad_function_call[abi:ne180000]()
FUNC 6f258 24 0 std::__ndk1::bad_function_call::~bad_function_call()
FUNC 6f27c c4 0 std::__ndk1::__fs::filesystem::path::operator/=[abi:ne180000](std::__ndk1::__fs::filesystem::path const&)
FUNC 6f340 ac 0 std::__ndk1::basic_string<char, std::__ndk1::char_traits<char>, std::__ndk1::allocator<char> >::__assign_no_alias<true>(char const*, unsigned long)
FUNC 6f3ec 100 0 std::__ndk1::basic_string<char, std::__ndk1::char_traits<char>, std::__ndk1::allocator<char> >::__assign_no_alias<false>(char const*, unsigned long)
FUNC 6f4ec 4c8 0 std::__ndk1::unordered_set<std::__ndk1::basic_string<char, std::__ndk1::char_traits<char>, std::__ndk1::allocator<char> >, std::__ndk1::hash<std::__ndk1::basic_string<char, std::__ndk1::char_traits<char>, std::__ndk1::allocator<char> > >, std::__ndk1::equal_to<std::__ndk1::basic_string<char, std::__ndk1::char_traits<char>, std::__ndk1::allocator<char> > >, std::__ndk1::allocator<std::__ndk1::basic_string<char, std::__ndk1::char_traits<char>, std::__ndk1::allocator<char> > > >::unordered_set(std::__ndk1::unordered_set<std::__ndk1::basic_string<char, std::__ndk1::char_traits<char>, std::__ndk1::allocator<char> >, std::__ndk1::hash<std::__ndk1::basic_string<char, std::__ndk1::char_traits<char>, std::__ndk1::allocator<char> > >, std::__ndk1::equal_to<std::__ndk1::basic_string<char, std::__ndk1::char_traits<char>, std::__ndk1::allocator<char> > >, std::__ndk1::allocator<std::__ndk1::basic_string<char, std::__ndk1::char_traits<char>, std::__ndk1::allocator<char> > > > const&)
FUNC 6f9b4 70 0 std::__ndk1::__hash_table<std::__ndk1::basic_string<char, std::__ndk1::char_traits<char>, std::__ndk1::allocator<char> >, std::__ndk1::hash<std::__ndk1::basic_string<char, std::__ndk1::char_traits<char>, std::__ndk1::allocator<char> > >, std::__ndk1::equal_to<std::__ndk1::basic_string<char, std::__ndk1::char_traits<char>, std::__ndk1::allocator<char> > >, std::__ndk1::allocator<std::__ndk1::basic_string<char, std::__ndk1::char_traits<char>, std::__ndk1::allocator<char> > > >::~__hash_table()
FUNC 6fa24 15c 0 std::__ndk1::__hash_table<std::__ndk1::basic_string<char, std::__ndk1::char_traits<char>, std::__ndk1::allocator<char> >, std::__ndk1::hash<std::__ndk1::basic_string<char, std::__ndk1::char_traits<char>, std::__ndk1::allocator<char> > >, std::__ndk1::equal_to<std::__ndk1::basic_string<char, std::__ndk1::char_traits<char>, std::__ndk1::allocator<char> > >, std::__ndk1::allocator<std::__ndk1::basic_string<char, std::__ndk1::char_traits<char>, std::__ndk1::allocator<char> > > >::__do_rehash<true>(unsigned long)
FUNC 6fb80 50 0 std::__ndk1::unique_ptr<std::__ndk1::__hash_node<std::__ndk1::basic_string<char, std::__ndk1::char_traits<char>, std::__ndk1::allocator<char> >, void*>, std::__ndk1::__hash_node_destructor<std::__ndk1::allocator<std::__ndk1::__hash_node<std::__ndk1::basic_string<char, std::__ndk1::char_traits<char>, std::__ndk1::allocator<char> >, void*> > > >::~unique_ptr[abi:ne180000]()
FUNC 6fbd0 444 0 std::__ndk1::__murmur2_or_cityhash<unsigned long, (unsigned long)64>::operator()[abi:ne180000](void const*, unsigned long) const
FUNC 70014 48 0 std::__ndk1::__hash_table<std::__ndk1::basic_string<char, std::__ndk1::char_traits<char>, std::__ndk1::allocator<char> >, std::__ndk1::hash<std::__ndk1::basic_string<char, std::__ndk1::char_traits<char>, std::__ndk1::allocator<char> > >, std::__ndk1::equal_to<std::__ndk1::basic_string<char, std::__ndk1::char_traits<char>, std::__ndk1::allocator<char> > >, std::__ndk1::allocator<std::__ndk1::basic_string<char, std::__ndk1::char_traits<char>, std::__ndk1::allocator<char> > > >::__deallocate_node(std::__ndk1::__hash_node_base<std::__ndk1::__hash_node<std::__ndk1::basic_string<char, std::__ndk1::char_traits<char>, std::__ndk1::allocator<char> >, void*>*>*)
FUNC 7005c 44 0 std::__ndk1::__exception_guard_exceptions<std::__ndk1::vector<geode::utils::file::FilePickOptions::Filter, std::__ndk1::allocator<geode::utils::file::FilePickOptions::Filter> >::__destroy_vector>::~__exception_guard_exceptions[abi:ne180000]()
FUNC 700a0 14 0 std::__ndk1::vector<geode::utils::file::FilePickOptions::Filter, std::__ndk1::allocator<geode::utils::file::FilePickOptions::Filter> >::__throw_length_error[abi:ne180000]() const
FUNC 700b4 100 0 std::__ndk1::__uninitialized_allocator_copy_impl[abi:ne180000]<std::__ndk1::allocator<geode::utils::file::FilePickOptions::Filter>, geode::utils::file::FilePickOptions const*, geode::utils::file::FilePickOptions const, geode::utils::file::FilePickOptions*>(std::__ndk1::allocator<geode::utils::file::FilePickOptions::Filter>&, geode::utils::file::FilePickOptions const*, geode::utils::file::FilePickOptions const, geode::utils::file::FilePickOptions*)
FUNC 701b4 a4 0 std::__ndk1::__exception_guard_exceptions<std::__ndk1::_AllocatorDestroyRangeReverse<std::__ndk1::allocator<geode::utils::file::FilePickOptions::Filter>, geode::utils::file::FilePickOptions::Filter*> >::~__exception_guard_exceptions[abi:ne180000]()
FUNC 70258 a4 0 std::__ndk1::vector<geode::utils::file::FilePickOptions::Filter, std::__ndk1::allocator<geode::utils::file::FilePickOptions::Filter> >::__base_destruct_at_end[abi:ne180000](geode::utils::file::FilePickOptions::Filter*)
FUNC 702fc 14c 0 std::__ndk1::vector<geode::utils::file::FilePickOptions::Filter, std::__ndk1::allocator<geode::utils::file::FilePickOptions::Filter> >::__assign_with_size[abi:ne180000]<geode::utils::file::FilePickOptions::Filter*, std::__ndk1::vector<geode::utils::file::FilePickOptions::Filter, std::__ndk1::allocator<geode::utils::file::FilePickOptions::Filter> >::__assign_with_size[abi:ne180000]>(geode::utils::file::FilePickOptions::Filter*, std::__ndk1::vector<geode::utils::file::FilePickOptions::Filter, std::__ndk1::allocator<geode::utils::file::FilePickOptions::Filter> >::__assign_with_size[abi:ne180000], long)
FUNC 70448 100 0 std::__ndk1::__uninitialized_allocator_copy_impl[abi:ne180000]<std::__ndk1::allocator<geode::utils::file::FilePickOptions::Filter>, geode::utils::file::FilePickOptions*, std::__ndk1::allocator<geode::utils::file::FilePickOptions::Filter>, std::__ndk1::allocator<geode::utils::file::FilePickOptions::Filter> >(std::__ndk1::allocator<geode::utils::file::FilePickOptions::Filter>&, geode::utils::file::FilePickOptions*, std::__ndk1::allocator<geode::utils::file::FilePickOptions::Filter>, geode::utils::file::FilePickOptions*)
FUNC 70548 2a4 0 _ZNSt6__ndk121__unwrap_and_dispatchB8ne180000INS_10__overloadINS_11__copy_loopINS_17_ClassicAlgPolicyEEENS_14__copy_trivialEEEPN5geode5utils4file15FilePickOptions6FilterESC_SC_TnNS_9enable_ifIXsr12__can_rewrapIT0_T1_T2_EE5valueEiE4typeELi0EEENS_4pairISE_SG_EESE_SF_SG_
FUNC 707ec 5c4 0 std::__ndk1::__hash_table<std::__ndk1::basic_string<char, std::__ndk1::char_traits<char>, std::__ndk1::allocator<char> >, std::__ndk1::hash<std::__ndk1::basic_string<char, std::__ndk1::char_traits<char>, std::__ndk1::allocator<char> > >, std::__ndk1::equal_to<std::__ndk1::basic_string<char, std::__ndk1::char_traits<char>, std::__ndk1::allocator<char> > >, std::__ndk1::allocator<std::__ndk1::basic_string<char, std::__ndk1::char_traits<char>, std::__ndk1::allocator<char> > > >::__node_insert_multi(std::__ndk1::__hash_node<std::__ndk1::basic_string<char, std::__ndk1::char_traits<char>, std::__ndk1::allocator<char> >, void*>*)
FUNC 70db0 4 0 std::__ndk1::__variant_detail::__visitation::__base::__dispatcher<(unsigned long)0>::__dispatch[abi:ne180000]<std::__ndk1::__variant_detail::__dtor<std::__ndk1::__variant_detail::__traits<std::__ndk1::monostate, std::__ndk1::basic_string<char, std::__ndk1::char_traits<char>, std::__ndk1::allocator<char> > >, (std::__ndk1::__variant_detail::_Trait)1>::__destroy[abi:ne180000]()::{lambda(auto:1&)#1}, std::__ndk1::__variant_detail::__base<(std::__ndk1::__variant_detail::__traits<std::__ndk1::monostate, std::__ndk1::basic_string<char, std::__ndk1::char_traits<char>, std::__ndk1::allocator<char> > >)1, std::__ndk1::__variant_detail::__traits, std::__ndk1::allocator<char> >&>(std::__ndk1::__variant_detail::__dtor<std::__ndk1::__variant_detail::__traits<std::__ndk1::monostate, std::__ndk1::basic_string<char, std::__ndk1::char_traits<char>, std::__ndk1::allocator<char> > >, (std::__ndk1::__variant_detail::_Trait)1>, std::__ndk1::__variant_detail::__base<(std::__ndk1::__variant_detail::__traits<std::__ndk1::monostate, std::__ndk1::basic_string<char, std::__ndk1::char_traits<char>, std::__ndk1::allocator<char> > >)1, std::__ndk1::__variant_detail::__traits, std::__ndk1::allocator<char> >&)
FUNC 70db4 14 0 std::__ndk1::__variant_detail::__visitation::__base::__dispatcher<(unsigned long)1>::__dispatch[abi:ne180000]<std::__ndk1::__variant_detail::__dtor<std::__ndk1::__variant_detail::__traits<std::__ndk1::monostate, std::__ndk1::basic_string<char, std::__ndk1::char_traits<char>, std::__ndk1::allocator<char> > >, (std::__ndk1::__variant_detail::_Trait)1>::__destroy[abi:ne180000]()::{lambda(auto:1&)#1}, std::__ndk1::__variant_detail::__base<(std::__ndk1::__variant_detail::__traits<std::__ndk1::monostate, std::__ndk1::basic_string<char, std::__ndk1::char_traits<char>, std::__ndk1::allocator<char> > >)1, std::__ndk1::__variant_detail::__traits, std::__ndk1::allocator<char> >&>(std::__ndk1::__variant_detail::__dtor<std::__ndk1::__variant_detail::__traits<std::__ndk1::monostate, std::__ndk1::basic_string<char, std::__ndk1::char_traits<char>, std::__ndk1::allocator<char> > >, (std::__ndk1::__variant_detail::_Trait)1>, std::__ndk1::__variant_detail::__base<(std::__ndk1::__variant_detail::__traits<std::__ndk1::monostate, std::__ndk1::basic_string<char, std::__ndk1::char_traits<char>, std::__ndk1::allocator<char> > >)1, std::__ndk1::__variant_detail::__traits, std::__ndk1::allocator<char> >&)
FUNC 70dc8 4 0 std::__ndk1::__variant_detail::__visitation::__base::__dispatcher<(unsigned long)0>::__dispatch[abi:ne180000]<std::__ndk1::__variant_detail::__dtor<std::__ndk1::__variant_detail::__traits<int, std::__ndk1::basic_string<char, std::__ndk1::char_traits<char>, std::__ndk1::allocator<char> > >, (std::__ndk1::__variant_detail::_Trait)1>::__destroy[abi:ne180000]()::{lambda(auto:1&)#1}, std::__ndk1::__variant_detail::__base<(std::__ndk1::__variant_detail::__traits<int, std::__ndk1::basic_string<char, std::__ndk1::char_traits<char>, std::__ndk1::allocator<char> > >)1, int, std::__ndk1::allocator<char> >&>(std::__ndk1::__variant_detail::__dtor<std::__ndk1::__variant_detail::__traits<int, std::__ndk1::basic_string<char, std::__ndk1::char_traits<char>, std::__ndk1::allocator<char> > >, (std::__ndk1::__variant_detail::_Trait)1>, std::__ndk1::__variant_detail::__base<(std::__ndk1::__variant_detail::__traits<int, std::__ndk1::basic_string<char, std::__ndk1::char_traits<char>, std::__ndk1::allocator<char> > >)1, int, std::__ndk1::allocator<char> >&)
FUNC 70dcc 14 0 std::__ndk1::__variant_detail::__visitation::__base::__dispatcher<(unsigned long)1>::__dispatch[abi:ne180000]<std::__ndk1::__variant_detail::__dtor<std::__ndk1::__variant_detail::__traits<int, std::__ndk1::basic_string<char, std::__ndk1::char_traits<char>, std::__ndk1::allocator<char> > >, (std::__ndk1::__variant_detail::_Trait)1>::__destroy[abi:ne180000]()::{lambda(auto:1&)#1}, std::__ndk1::__variant_detail::__base<(std::__ndk1::__variant_detail::__traits<int, std::__ndk1::basic_string<char, std::__ndk1::char_traits<char>, std::__ndk1::allocator<char> > >)1, int, std::__ndk1::allocator<char> >&>(std::__ndk1::__variant_detail::__dtor<std::__ndk1::__variant_detail::__traits<int, std::__ndk1::basic_string<char, std::__ndk1::char_traits<char>, std::__ndk1::allocator<char> > >, (std::__ndk1::__variant_detail::_Trait)1>, std::__ndk1::__variant_detail::__base<(std::__ndk1::__variant_detail::__traits<int, std::__ndk1::basic_string<char, std::__ndk1::char_traits<char>, std::__ndk1::allocator<char> > >)1, int, std::__ndk1::allocator<char> >&)
FUNC 70de0 12c 0 std::__ndk1::__tree<std::__ndk1::__value_type<std::__ndk1::basic_string<char, std::__ndk1::char_traits<char>, std::__ndk1::allocator<char> >, int>, std::__ndk1::__map_value_compare<std::__ndk1::basic_string<char, std::__ndk1::char_traits<char>, std::__ndk1::allocator<char> >, std::__ndk1::__value_type<std::__ndk1::basic_string<char, std::__ndk1::char_traits<char>, std::__ndk1::allocator<char> >, int>, std::__ndk1::less<std::__ndk1::basic_string<char, std::__ndk1::char_traits<char>, std::__ndk1::allocator<char> > >, true>, std::__ndk1::allocator<std::__ndk1::__value_type<std::__ndk1::basic_string<char, std::__ndk1::char_traits<char>, std::__ndk1::allocator<char> >, int> > >::__emplace_hint_unique_key_args<std::__ndk1::basic_string<char, std::__ndk1::char_traits<char>, std::__ndk1::allocator<char> >, std::__ndk1::pair<std::__ndk1::basic_string<char, std::__ndk1::char_traits<char>, std::__ndk1::allocator<char> > const, int> const&>(std::__ndk1::__tree_const_iterator<std::__ndk1::__value_type<std::__ndk1::basic_string<char, std::__ndk1::char_traits<char>, std::__ndk1::allocator<char> >, int>, std::__ndk1::__tree_node<std::__ndk1::__value_type<std::__ndk1::basic_string<char, std::__ndk1::char_traits<char>, std::__ndk1::allocator<char> >, int>, void*>*, long>, std::__ndk1::basic_string<char, std::__ndk1::char_traits<char>, std::__ndk1::allocator<char> > const&, std::__ndk1::pair<std::__ndk1::basic_string<char, std::__ndk1::char_traits<char>, std::__ndk1::allocator<char> > const, int> const&)
FUNC 70f0c 29c 0 std::__ndk1::__tree<std::__ndk1::__value_type<std::__ndk1::basic_string<char, std::__ndk1::char_traits<char>, std::__ndk1::allocator<char> >, int>, std::__ndk1::__map_value_compare<std::__ndk1::basic_string<char, std::__ndk1::char_traits<char>, std::__ndk1::allocator<char> >, std::__ndk1::__value_type<std::__ndk1::basic_string<char, std::__ndk1::char_traits<char>, std::__ndk1::allocator<char> >, int>, std::__ndk1::less<std::__ndk1::basic_string<char, std::__ndk1::char_traits<char>, std::__ndk1::allocator<char> > >, true>, std::__ndk1::allocator<std::__ndk1::__value_type<std::__ndk1::basic_string<char, std::__ndk1::char_traits<char>, std::__ndk1::allocator<char> >, int> > >::__find_equal<std::__ndk1::basic_string<char, std::__ndk1::char_traits<char>, std::__ndk1::allocator<char> > >(std::__ndk1::__tree_const_iterator<std::__ndk1::__value_type<std::__ndk1::basic_string<char, std::__ndk1::char_traits<char>, std::__ndk1::allocator<char> >, int>, std::__ndk1::__tree_node<std::__ndk1::__value_type<std::__ndk1::basic_string<char, std::__ndk1::char_traits<char>, std::__ndk1::allocator<char> >, int>, void*>*, long>, std::__ndk1::__tree_end_node<std::__ndk1::__tree_node_base<void*>*>*&, std::__ndk1::__tree_node_base<void*>*&, std::__ndk1::basic_string<char, std::__ndk1::char_traits<char>, std::__ndk1::allocator<char> > const&)
FUNC 711a8 50 0 std::__ndk1::unique_ptr<std::__ndk1::__tree_node<std::__ndk1::__value_type<std::__ndk1::basic_string<char, std::__ndk1::char_traits<char>, std::__ndk1::allocator<char> >, int>, void*>, std::__ndk1::__tree_node_destructor<std::__ndk1::allocator<std::__ndk1::__tree_node<std::__ndk1::__value_type<std::__ndk1::basic_string<char, std::__ndk1::char_traits<char>, std::__ndk1::allocator<char> >, int>, void*> > > >::~unique_ptr[abi:ne180000]()
FUNC 711f8 104 0 std::__ndk1::__tree<std::__ndk1::__value_type<std::__ndk1::basic_string<char, std::__ndk1::char_traits<char>, std::__ndk1::allocator<char> >, int>, std::__ndk1::__map_value_compare<std::__ndk1::basic_string<char, std::__ndk1::char_traits<char>, std::__ndk1::allocator<char> >, std::__ndk1::__value_type<std::__ndk1::basic_string<char, std::__ndk1::char_traits<char>, std::__ndk1::allocator<char> >, int>, std::__ndk1::less<std::__ndk1::basic_string<char, std::__ndk1::char_traits<char>, std::__ndk1::allocator<char> > >, true>, std::__ndk1::allocator<std::__ndk1::__value_type<std::__ndk1::basic_string<char, std::__ndk1::char_traits<char>, std::__ndk1::allocator<char> >, int> > >::__find_equal<std::__ndk1::basic_string<char, std::__ndk1::char_traits<char>, std::__ndk1::allocator<char> > >(std::__ndk1::__tree_end_node<std::__ndk1::__tree_node_base<void*>*>*&, std::__ndk1::basic_string<char, std::__ndk1::char_traits<char>, std::__ndk1::allocator<char> > const&)
FUNC 712fc 2f4 0 geode::Popup<DTLayer* const&>::initBase(float, float, DTLayer* const&, char const*, cocos2d::CCRect, bool)
FUNC 715f0 2ec 0 _ZNSt6__ndk112basic_stringIcNS_11char_traitsIcEENS_9allocatorIcEEE6appendB8ne180000IPKcTnNS_9enable_ifIXsr31__has_forward_iterator_categoryIT_EE5valueEiE4typeELi0EEERS5_SA_SA_
FUNC 718dc 4 0 std::__ndk1::__function::__func<geode::Task<geode::Result<std::__ndk1::__fs::filesystem::path, std::__ndk1::basic_string<char, std::__ndk1::char_traits<char>, std::__ndk1::allocator<char> > >, std::__ndk1::monostate>::listen<DTExportImportLayer::onExportClicked(cocos2d::CCObject*)::$_0, DTExportImportLayer::onExportClicked(cocos2d::CCObject*)::$_1, DTExportImportLayer::onExportClicked(cocos2d::CCObject*)::$_2>(DTExportImportLayer::onExportClicked(cocos2d::CCObject*)::$_0&&, DTExportImportLayer::onExportClicked(cocos2d::CCObject*)::$_1&&, DTExportImportLayer::onExportClicked(cocos2d::CCObject*)::$_2&&) const::{lambda(geode::Task<geode::Result<std::__ndk1::__fs::filesystem::path, std::__ndk1::basic_string<char, std::__ndk1::char_traits<char>, std::__ndk1::allocator<char> > >, std::__ndk1::monostate>::Event*)#1}, std::__ndk1::allocator<geode::Task<geode::Result<std::__ndk1::__fs::filesystem::path, std::__ndk1::basic_string<char, std::__ndk1::char_traits<char>, std::__ndk1::allocator<char> > >, std::__ndk1::monostate>::listen<DTExportImportLayer::onExportClicked(cocos2d::CCObject*)::$_0, DTExportImportLayer::onExportClicked(cocos2d::CCObject*)::$_1, DTExportImportLayer::onExportClicked(cocos2d::CCObject*)::$_2>(DTExportImportLayer::onExportClicked(cocos2d::CCObject*)::$_0&&, DTExportImportLayer::onExportClicked(cocos2d::CCObject*)::$_1&&, DTExportImportLayer::onExportClicked(cocos2d::CCObject*)::$_2&&) const::{lambda(geode::Task<geode::Result<std::__ndk1::__fs::filesystem::path, std::__ndk1::basic_string<char, std::__ndk1::char_traits<char>, std::__ndk1::allocator<char> > >, std::__ndk1::monostate>::Event*)#1}>, void (geode::Task<geode::Result<std::__ndk1::__fs::filesystem::path, std::__ndk1::basic_string<char, std::__ndk1::char_traits<char>, std::__ndk1::allocator<char> > >, std::__ndk1::monostate>::Event*)>::~__func()
FUNC 718e0 40 0 std::__ndk1::__function::__func<geode::Task<geode::Result<std::__ndk1::__fs::filesystem::path, std::__ndk1::basic_string<char, std::__ndk1::char_traits<char>, std::__ndk1::allocator<char> > >, std::__ndk1::monostate>::listen<DTExportImportLayer::onExportClicked(cocos2d::CCObject*)::$_0, DTExportImportLayer::onExportClicked(cocos2d::CCObject*)::$_1, DTExportImportLayer::onExportClicked(cocos2d::CCObject*)::$_2>(DTExportImportLayer::onExportClicked(cocos2d::CCObject*)::$_0&&, DTExportImportLayer::onExportClicked(cocos2d::CCObject*)::$_1&&, DTExportImportLayer::onExportClicked(cocos2d::CCObject*)::$_2&&) const::{lambda(geode::Task<geode::Result<std::__ndk1::__fs::filesystem::path, std::__ndk1::basic_string<char, std::__ndk1::char_traits<char>, std::__ndk1::allocator<char> > >, std::__ndk1::monostate>::Event*)#1}, std::__ndk1::allocator<geode::Task<geode::Result<std::__ndk1::__fs::filesystem::path, std::__ndk1::basic_string<char, std::__ndk1::char_traits<char>, std::__ndk1::allocator<char> > >, std::__ndk1::monostate>::listen<DTExportImportLayer::onExportClicked(cocos2d::CCObject*)::$_0, DTExportImportLayer::onExportClicked(cocos2d::CCObject*)::$_1, DTExportImportLayer::onExportClicked(cocos2d::CCObject*)::$_2>(DTExportImportLayer::onExportClicked(cocos2d::CCObject*)::$_0&&, DTExportImportLayer::onExportClicked(cocos2d::CCObject*)::$_1&&, DTExportImportLayer::onExportClicked(cocos2d::CCObject*)::$_2&&) const::{lambda(geode::Task<geode::Result<std::__ndk1::__fs::filesystem::path, std::__ndk1::basic_string<char, std::__ndk1::char_traits<char>, std::__ndk1::allocator<char> > >, std::__ndk1::monostate>::Event*)#1}>, void (geode::Task<geode::Result<std::__ndk1::__fs::filesystem::path, std::__ndk1::basic_string<char, std::__ndk1::char_traits<char>, std::__ndk1::allocator<char> > >, std::__ndk1::monostate>::Event*)>::__clone() const
FUNC 71920 20 0 std::__ndk1::__function::__func<geode::Task<geode::Result<std::__ndk1::__fs::filesystem::path, std::__ndk1::basic_string<char, std::__ndk1::char_traits<char>, std::__ndk1::allocator<char> > >, std::__ndk1::monostate>::listen<DTExportImportLayer::onExportClicked(cocos2d::CCObject*)::$_0, DTExportImportLayer::onExportClicked(cocos2d::CCObject*)::$_1, DTExportImportLayer::onExportClicked(cocos2d::CCObject*)::$_2>(DTExportImportLayer::onExportClicked(cocos2d::CCObject*)::$_0&&, DTExportImportLayer::onExportClicked(cocos2d::CCObject*)::$_1&&, DTExportImportLayer::onExportClicked(cocos2d::CCObject*)::$_2&&) const::{lambda(geode::Task<geode::Result<std::__ndk1::__fs::filesystem::path, std::__ndk1::basic_string<char, std::__ndk1::char_traits<char>, std::__ndk1::allocator<char> > >, std::__ndk1::monostate>::Event*)#1}, std::__ndk1::allocator<geode::Task<geode::Result<std::__ndk1::__fs::filesystem::path, std::__ndk1::basic_string<char, std::__ndk1::char_traits<char>, std::__ndk1::allocator<char> > >, std::__ndk1::monostate>::listen<DTExportImportLayer::onExportClicked(cocos2d::CCObject*)::$_0, DTExportImportLayer::onExportClicked(cocos2d::CCObject*)::$_1, DTExportImportLayer::onExportClicked(cocos2d::CCObject*)::$_2>(DTExportImportLayer::onExportClicked(cocos2d::CCObject*)::$_0&&, DTExportImportLayer::onExportClicked(cocos2d::CCObject*)::$_1&&, DTExportImportLayer::onExportClicked(cocos2d::CCObject*)::$_2&&) const::{lambda(geode::Task<geode::Result<std::__ndk1::__fs::filesystem::path, std::__ndk1::basic_string<char, std::__ndk1::char_traits<char>, std::__ndk1::allocator<char> > >, std::__ndk1::monostate>::Event*)#1}>, void (geode::Task<geode::Result<std::__ndk1::__fs::filesystem::path, std::__ndk1::basic_string<char, std::__ndk1::char_traits<char>, std::__ndk1::allocator<char> > >, std::__ndk1::monostate>::Event*)>::__clone(std::__ndk1::__function::__base<void (geode::Task<geode::Result<std::__ndk1::__fs::filesystem::path, std::__ndk1::basic_string<char, std::__ndk1::char_traits<char>, std::__ndk1::allocator<char> > >, std::__ndk1::monostate>::Event*)>*) const
FUNC 71940 4 0 std::__ndk1::__function::__func<geode::Task<geode::Result<std::__ndk1::__fs::filesystem::path, std::__ndk1::basic_string<char, std::__ndk1::char_traits<char>, std::__ndk1::allocator<char> > >, std::__ndk1::monostate>::listen<DTExportImportLayer::onExportClicked(cocos2d::CCObject*)::$_0, DTExportImportLayer::onExportClicked(cocos2d::CCObject*)::$_1, DTExportImportLayer::onExportClicked(cocos2d::CCObject*)::$_2>(DTExportImportLayer::onExportClicked(cocos2d::CCObject*)::$_0&&, DTExportImportLayer::onExportClicked(cocos2d::CCObject*)::$_1&&, DTExportImportLayer::onExportClicked(cocos2d::CCObject*)::$_2&&) const::{lambda(geode::Task<geode::Result<std::__ndk1::__fs::filesystem::path, std::__ndk1::basic_string<char, std::__ndk1::char_traits<char>, std::__ndk1::allocator<char> > >, std::__ndk1::monostate>::Event*)#1}, std::__ndk1::allocator<geode::Task<geode::Result<std::__ndk1::__fs::filesystem::path, std::__ndk1::basic_string<char, std::__ndk1::char_traits<char>, std::__ndk1::allocator<char> > >, std::__ndk1::monostate>::listen<DTExportImportLayer::onExportClicked(cocos2d::CCObject*)::$_0, DTExportImportLayer::onExportClicked(cocos2d::CCObject*)::$_1, DTExportImportLayer::onExportClicked(cocos2d::CCObject*)::$_2>(DTExportImportLayer::onExportClicked(cocos2d::CCObject*)::$_0&&, DTExportImportLayer::onExportClicked(cocos2d::CCObject*)::$_1&&, DTExportImportLayer::onExportClicked(cocos2d::CCObject*)::$_2&&) const::{lambda(geode::Task<geode::Result<std::__ndk1::__fs::filesystem::path, std::__ndk1::basic_string<char, std::__ndk1::char_traits<char>, std::__ndk1::allocator<char> > >, std::__ndk1::monostate>::Event*)#1}>, void (geode::Task<geode::Result<std::__ndk1::__fs::filesystem::path, std::__ndk1::basic_string<char, std::__ndk1::char_traits<char>, std::__ndk1::allocator<char> > >, std::__ndk1::monostate>::Event*)>::destroy()
FUNC 71944 4 0 std::__ndk1::__function::__func<geode::Task<geode::Result<std::__ndk1::__fs::filesystem::path, std::__ndk1::basic_string<char, std::__ndk1::char_traits<char>, std::__ndk1::allocator<char> > >, std::__ndk1::monostate>::listen<DTExportImportLayer::onExportClicked(cocos2d::CCObject*)::$_0, DTExportImportLayer::onExportClicked(cocos2d::CCObject*)::$_1, DTExportImportLayer::onExportClicked(cocos2d::CCObject*)::$_2>(DTExportImportLayer::onExportClicked(cocos2d::CCObject*)::$_0&&, DTExportImportLayer::onExportClicked(cocos2d::CCObject*)::$_1&&, DTExportImportLayer::onExportClicked(cocos2d::CCObject*)::$_2&&) const::{lambda(geode::Task<geode::Result<std::__ndk1::__fs::filesystem::path, std::__ndk1::basic_string<char, std::__ndk1::char_traits<char>, std::__ndk1::allocator<char> > >, std::__ndk1::monostate>::Event*)#1}, std::__ndk1::allocator<geode::Task<geode::Result<std::__ndk1::__fs::filesystem::path, std::__ndk1::basic_string<char, std::__ndk1::char_traits<char>, std::__ndk1::allocator<char> > >, std::__ndk1::monostate>::listen<DTExportImportLayer::onExportClicked(cocos2d::CCObject*)::$_0, DTExportImportLayer::onExportClicked(cocos2d::CCObject*)::$_1, DTExportImportLayer::onExportClicked(cocos2d::CCObject*)::$_2>(DTExportImportLayer::onExportClicked(cocos2d::CCObject*)::$_0&&, DTExportImportLayer::onExportClicked(cocos2d::CCObject*)::$_1&&, DTExportImportLayer::onExportClicked(cocos2d::CCObject*)::$_2&&) const::{lambda(geode::Task<geode::Result<std::__ndk1::__fs::filesystem::path, std::__ndk1::basic_string<char, std::__ndk1::char_traits<char>, std::__ndk1::allocator<char> > >, std::__ndk1::monostate>::Event*)#1}>, void (geode::Task<geode::Result<std::__ndk1::__fs::filesystem::path, std::__ndk1::basic_string<char, std::__ndk1::char_traits<char>, std::__ndk1::allocator<char> > >, std::__ndk1::monostate>::Event*)>::destroy_deallocate()
FUNC 71948 109c 0 std::__ndk1::__function::__func<geode::Task<geode::Result<std::__ndk1::__fs::filesystem::path, std::__ndk1::basic_string<char, std::__ndk1::char_traits<char>, std::__ndk1::allocator<char> > >, std::__ndk1::monostate>::listen<DTExportImportLayer::onExportClicked(cocos2d::CCObject*)::$_0, DTExportImportLayer::onExportClicked(cocos2d::CCObject*)::$_1, DTExportImportLayer::onExportClicked(cocos2d::CCObject*)::$_2>(DTExportImportLayer::onExportClicked(cocos2d::CCObject*)::$_0&&, DTExportImportLayer::onExportClicked(cocos2d::CCObject*)::$_1&&, DTExportImportLayer::onExportClicked(cocos2d::CCObject*)::$_2&&) const::{lambda(geode::Task<geode::Result<std::__ndk1::__fs::filesystem::path, std::__ndk1::basic_string<char, std::__ndk1::char_traits<char>, std::__ndk1::allocator<char> > >, std::__ndk1::monostate>::Event*)#1}, std::__ndk1::allocator<geode::Task<geode::Result<std::__ndk1::__fs::filesystem::path, std::__ndk1::basic_string<char, std::__ndk1::char_traits<char>, std::__ndk1::allocator<char> > >, std::__ndk1::monostate>::listen<DTExportImportLayer::onExportClicked(cocos2d::CCObject*)::$_0, DTExportImportLayer::onExportClicked(cocos2d::CCObject*)::$_1, DTExportImportLayer::onExportClicked(cocos2d::CCObject*)::$_2>(DTExportImportLayer::onExportClicked(cocos2d::CCObject*)::$_0&&, DTExportImportLayer::onExportClicked(cocos2d::CCObject*)::$_1&&, DTExportImportLayer::onExportClicked(cocos2d::CCObject*)::$_2&&) const::{lambda(geode::Task<geode::Result<std::__ndk1::__fs::filesystem::path, std::__ndk1::basic_string<char, std::__ndk1::char_traits<char>, std::__ndk1::allocator<char> > >, std::__ndk1::monostate>::Event*)#1}>, void (geode::Task<geode::Result<std::__ndk1::__fs::filesystem::path, std::__ndk1::basic_string<char, std::__ndk1::char_traits<char>, std::__ndk1::allocator<char> > >, std::__ndk1::monostate>::Event*)>::operator()(geode::Task<geode::Result<std::__ndk1::__fs::filesystem::path, std::__ndk1::basic_string<char, std::__ndk1::char_traits<char>, std::__ndk1::allocator<char> > >, std::__ndk1::monostate>::Event*&&)
FUNC 729e4 1c 0 std::__ndk1::__function::__func<geode::Task<geode::Result<std::__ndk1::__fs::filesystem::path, std::__ndk1::basic_string<char, std::__ndk1::char_traits<char>, std::__ndk1::allocator<char> > >, std::__ndk1::monostate>::listen<DTExportImportLayer::onExportClicked(cocos2d::CCObject*)::$_0, DTExportImportLayer::onExportClicked(cocos2d::CCObject*)::$_1, DTExportImportLayer::onExportClicked(cocos2d::CCObject*)::$_2>(DTExportImportLayer::onExportClicked(cocos2d::CCObject*)::$_0&&, DTExportImportLayer::onExportClicked(cocos2d::CCObject*)::$_1&&, DTExportImportLayer::onExportClicked(cocos2d::CCObject*)::$_2&&) const::{lambda(geode::Task<geode::Result<std::__ndk1::__fs::filesystem::path, std::__ndk1::basic_string<char, std::__ndk1::char_traits<char>, std::__ndk1::allocator<char> > >, std::__ndk1::monostate>::Event*)#1}, std::__ndk1::allocator<geode::Task<geode::Result<std::__ndk1::__fs::filesystem::path, std::__ndk1::basic_string<char, std::__ndk1::char_traits<char>, std::__ndk1::allocator<char> > >, std::__ndk1::monostate>::listen<DTExportImportLayer::onExportClicked(cocos2d::CCObject*)::$_0, DTExportImportLayer::onExportClicked(cocos2d::CCObject*)::$_1, DTExportImportLayer::onExportClicked(cocos2d::CCObject*)::$_2>(DTExportImportLayer::onExportClicked(cocos2d::CCObject*)::$_0&&, DTExportImportLayer::onExportClicked(cocos2d::CCObject*)::$_1&&, DTExportImportLayer::onExportClicked(cocos2d::CCObject*)::$_2&&) const::{lambda(geode::Task<geode::Result<std::__ndk1::__fs::filesystem::path, std::__ndk1::basic_string<char, std::__ndk1::char_traits<char>, std::__ndk1::allocator<char> > >, std::__ndk1::monostate>::Event*)#1}>, void (geode::Task<geode::Result<std::__ndk1::__fs::filesystem::path, std::__ndk1::basic_string<char, std::__ndk1::char_traits<char>, std::__ndk1::allocator<char> > >, std::__ndk1::monostate>::Event*)>::target(std::type_info const&) const
FUNC 72a00 c 0 std::__ndk1::__function::__func<geode::Task<geode::Result<std::__ndk1::__fs::filesystem::path, std::__ndk1::basic_string<char, std::__ndk1::char_traits<char>, std::__ndk1::allocator<char> > >, std::__ndk1::monostate>::listen<DTExportImportLayer::onExportClicked(cocos2d::CCObject*)::$_0, DTExportImportLayer::onExportClicked(cocos2d::CCObject*)::$_1, DTExportImportLayer::onExportClicked(cocos2d::CCObject*)::$_2>(DTExportImportLayer::onExportClicked(cocos2d::CCObject*)::$_0&&, DTExportImportLayer::onExportClicked(cocos2d::CCObject*)::$_1&&, DTExportImportLayer::onExportClicked(cocos2d::CCObject*)::$_2&&) const::{lambda(geode::Task<geode::Result<std::__ndk1::__fs::filesystem::path, std::__ndk1::basic_string<char, std::__ndk1::char_traits<char>, std::__ndk1::allocator<char> > >, std::__ndk1::monostate>::Event*)#1}, std::__ndk1::allocator<geode::Task<geode::Result<std::__ndk1::__fs::filesystem::path, std::__ndk1::basic_string<char, std::__ndk1::char_traits<char>, std::__ndk1::allocator<char> > >, std::__ndk1::monostate>::listen<DTExportImportLayer::onExportClicked(cocos2d::CCObject*)::$_0, DTExportImportLayer::onExportClicked(cocos2d::CCObject*)::$_1, DTExportImportLayer::onExportClicked(cocos2d::CCObject*)::$_2>(DTExportImportLayer::onExportClicked(cocos2d::CCObject*)::$_0&&, DTExportImportLayer::onExportClicked(cocos2d::CCObject*)::$_1&&, DTExportImportLayer::onExportClicked(cocos2d::CCObject*)::$_2&&) const::{lambda(geode::Task<geode::Result<std::__ndk1::__fs::filesystem::path, std::__ndk1::basic_string<char, std::__ndk1::char_traits<char>, std::__ndk1::allocator<char> > >, std::__ndk1::monostate>::Event*)#1}>, void (geode::Task<geode::Result<std::__ndk1::__fs::filesystem::path, std::__ndk1::basic_string<char, std::__ndk1::char_traits<char>, std::__ndk1::allocator<char> > >, std::__ndk1::monostate>::Event*)>::target_type() const
FUNC 72a0c 88 0 std::__ndk1::vector<LabelLayout, std::__ndk1::allocator<LabelLayout> >::~vector[abi:ne180000]()
FUNC 72a94 14 0 std::__ndk1::basic_string<char, std::__ndk1::char_traits<char>, std::__ndk1::allocator<char> >::__throw_out_of_range[abi:ne180000]() const
FUNC 72aa8 88 0 std::__ndk1::basic_string<char, std::__ndk1::char_traits<char>, std::__ndk1::allocator<char> >::__erase_external_with_move(unsigned long, unsigned long)
FUNC 72b30 48 0 std::__ndk1::__tree<std::__ndk1::__value_type<int, std::__ndk1::basic_string<char, std::__ndk1::char_traits<char>, std::__ndk1::allocator<char> > >, std::__ndk1::__map_value_compare<int, std::__ndk1::__value_type<int, std::__ndk1::basic_string<char, std::__ndk1::char_traits<char>, std::__ndk1::allocator<char> > >, std::__ndk1::less<int>, true>, std::__ndk1::allocator<std::__ndk1::__value_type<int, std::__ndk1::basic_string<char, std::__ndk1::char_traits<char>, std::__ndk1::allocator<char> > > > >::destroy(std::__ndk1::__tree_node<std::__ndk1::__value_type<int, std::__ndk1::basic_string<char, std::__ndk1::char_traits<char>, std::__ndk1::allocator<char> > >, void*>*)
FUNC 72b78 4 0 std::__ndk1::__function::__base<void ()>::~__base()
FUNC 72b7c 4 0 std::__ndk1::__function::__func<geode::Task<geode::Result<std::__ndk1::__fs::filesystem::path, std::__ndk1::basic_string<char, std::__ndk1::char_traits<char>, std::__ndk1::allocator<char> > >, std::__ndk1::monostate>::listen<DTExportImportLayer::onExportClicked(cocos2d::CCObject*)::$_0, DTExportImportLayer::onExportClicked(cocos2d::CCObject*)::$_1, DTExportImportLayer::onExportClicked(cocos2d::CCObject*)::$_2>(DTExportImportLayer::onExportClicked(cocos2d::CCObject*)::$_0&&, DTExportImportLayer::onExportClicked(cocos2d::CCObject*)::$_1&&, DTExportImportLayer::onExportClicked(cocos2d::CCObject*)::$_2&&) const::{lambda(geode::Task<geode::Result<std::__ndk1::__fs::filesystem::path, std::__ndk1::basic_string<char, std::__ndk1::char_traits<char>, std::__ndk1::allocator<char> > >, std::__ndk1::monostate>::Event*)#1}::operator()(geode::Task<geode::Result<std::__ndk1::__fs::filesystem::path, std::__ndk1::basic_string<char, std::__ndk1::char_traits<char>, std::__ndk1::allocator<char> > >, std::__ndk1::monostate>::Event*)::{lambda()#1}, std::__ndk1::allocator<geode::Task<geode::Result<std::__ndk1::__fs::filesystem::path, std::__ndk1::basic_string<char, std::__ndk1::char_traits<char>, std::__ndk1::allocator<char> > >, std::__ndk1::monostate>::listen<DTExportImportLayer::onExportClicked(cocos2d::CCObject*)::$_0, DTExportImportLayer::onExportClicked(cocos2d::CCObject*)::$_1, DTExportImportLayer::onExportClicked(cocos2d::CCObject*)::$_2>(DTExportImportLayer::onExportClicked(cocos2d::CCObject*)::$_0&&, DTExportImportLayer::onExportClicked(cocos2d::CCObject*)::$_1&&, DTExportImportLayer::onExportClicked(cocos2d::CCObject*)::$_2&&) const::{lambda(geode::Task<geode::Result<std::__ndk1::__fs::filesystem::path, std::__ndk1::basic_string<char, std::__ndk1::char_traits<char>, std::__ndk1::allocator<char> > >, std::__ndk1::monostate>::Event*)#1}::operator()(geode::Task<geode::Result<std::__ndk1::__fs::filesystem::path, std::__ndk1::basic_string<char, std::__ndk1::char_traits<char>, std::__ndk1::allocator<char> > >, std::__ndk1::monostate>::Event*)::{lambda()#1}>, void ()>::~__func()
FUNC 72b80 34 0 std::__ndk1::__function::__func<geode::Task<geode::Result<std::__ndk1::__fs::filesystem::path, std::__ndk1::basic_string<char, std::__ndk1::char_traits<char>, std::__ndk1::allocator<char> > >, std::__ndk1::monostate>::listen<DTExportImportLayer::onExportClicked(cocos2d::CCObject*)::$_0, DTExportImportLayer::onExportClicked(cocos2d::CCObject*)::$_1, DTExportImportLayer::onExportClicked(cocos2d::CCObject*)::$_2>(DTExportImportLayer::onExportClicked(cocos2d::CCObject*)::$_0&&, DTExportImportLayer::onExportClicked(cocos2d::CCObject*)::$_1&&, DTExportImportLayer::onExportClicked(cocos2d::CCObject*)::$_2&&) const::{lambda(geode::Task<geode::Result<std::__ndk1::__fs::filesystem::path, std::__ndk1::basic_string<char, std::__ndk1::char_traits<char>, std::__ndk1::allocator<char> > >, std::__ndk1::monostate>::Event*)#1}::operator()(geode::Task<geode::Result<std::__ndk1::__fs::filesystem::path, std::__ndk1::basic_string<char, std::__ndk1::char_traits<char>, std::__ndk1::allocator<char> > >, std::__ndk1::monostate>::Event*)::{lambda()#1}, std::__ndk1::allocator<geode::Task<geode::Result<std::__ndk1::__fs::filesystem::path, std::__ndk1::basic_string<char, std::__ndk1::char_traits<char>, std::__ndk1::allocator<char> > >, std::__ndk1::monostate>::listen<DTExportImportLayer::onExportClicked(cocos2d::CCObject*)::$_0, DTExportImportLayer::onExportClicked(cocos2d::CCObject*)::$_1, DTExportImportLayer::onExportClicked(cocos2d::CCObject*)::$_2>(DTExportImportLayer::onExportClicked(cocos2d::CCObject*)::$_0&&, DTExportImportLayer::onExportClicked(cocos2d::CCObject*)::$_1&&, DTExportImportLayer::onExportClicked(cocos2d::CCObject*)::$_2&&) const::{lambda(geode::Task<geode::Result<std::__ndk1::__fs::filesystem::path, std::__ndk1::basic_string<char, std::__ndk1::char_traits<char>, std::__ndk1::allocator<char> > >, std::__ndk1::monostate>::Event*)#1}::operator()(geode::Task<geode::Result<std::__ndk1::__fs::filesystem::path, std::__ndk1::basic_string<char, std::__ndk1::char_traits<char>, std::__ndk1::allocator<char> > >, std::__ndk1::monostate>::Event*)::{lambda()#1}>, void ()>::__clone() const
FUNC 72bb4 14 0 std::__ndk1::__function::__func<geode::Task<geode::Result<std::__ndk1::__fs::filesystem::path, std::__ndk1::basic_string<char, std::__ndk1::char_traits<char>, std::__ndk1::allocator<char> > >, std::__ndk1::monostate>::listen<DTExportImportLayer::onExportClicked(cocos2d::CCObject*)::$_0, DTExportImportLayer::onExportClicked(cocos2d::CCObject*)::$_1, DTExportImportLayer::onExportClicked(cocos2d::CCObject*)::$_2>(DTExportImportLayer::onExportClicked(cocos2d::CCObject*)::$_0&&, DTExportImportLayer::onExportClicked(cocos2d::CCObject*)::$_1&&, DTExportImportLayer::onExportClicked(cocos2d::CCObject*)::$_2&&) const::{lambda(geode::Task<geode::Result<std::__ndk1::__fs::filesystem::path, std::__ndk1::basic_string<char, std::__ndk1::char_traits<char>, std::__ndk1::allocator<char> > >, std::__ndk1::monostate>::Event*)#1}::operator()(geode::Task<geode::Result<std::__ndk1::__fs::filesystem::path, std::__ndk1::basic_string<char, std::__ndk1::char_traits<char>, std::__ndk1::allocator<char> > >, std::__ndk1::monostate>::Event*)::{lambda()#1}, std::__ndk1::allocator<geode::Task<geode::Result<std::__ndk1::__fs::filesystem::path, std::__ndk1::basic_string<char, std::__ndk1::char_traits<char>, std::__ndk1::allocator<char> > >, std::__ndk1::monostate>::listen<DTExportImportLayer::onExportClicked(cocos2d::CCObject*)::$_0, DTExportImportLayer::onExportClicked(cocos2d::CCObject*)::$_1, DTExportImportLayer::onExportClicked(cocos2d::CCObject*)::$_2>(DTExportImportLayer::onExportClicked(cocos2d::CCObject*)::$_0&&, DTExportImportLayer::onExportClicked(cocos2d::CCObject*)::$_1&&, DTExportImportLayer::onExportClicked(cocos2d::CCObject*)::$_2&&) const::{lambda(geode::Task<geode::Result<std::__ndk1::__fs::filesystem::path, std::__ndk1::basic_string<char, std::__ndk1::char_traits<char>, std::__ndk1::allocator<char> > >, std::__ndk1::monostate>::Event*)#1}::operator()(geode::Task<geode::Result<std::__ndk1::__fs::filesystem::path, std::__ndk1::basic_string<char, std::__ndk1::char_traits<char>, std::__ndk1::allocator<char> > >, std::__ndk1::monostate>::Event*)::{lambda()#1}>, void ()>::__clone(std::__ndk1::__function::__base<void ()>*) const
FUNC 72bc8 4 0 std::__ndk1::__function::__func<geode::Task<geode::Result<std::__ndk1::__fs::filesystem::path, std::__ndk1::basic_string<char, std::__ndk1::char_traits<char>, std::__ndk1::allocator<char> > >, std::__ndk1::monostate>::listen<DTExportImportLayer::onExportClicked(cocos2d::CCObject*)::$_0, DTExportImportLayer::onExportClicked(cocos2d::CCObject*)::$_1, DTExportImportLayer::onExportClicked(cocos2d::CCObject*)::$_2>(DTExportImportLayer::onExportClicked(cocos2d::CCObject*)::$_0&&, DTExportImportLayer::onExportClicked(cocos2d::CCObject*)::$_1&&, DTExportImportLayer::onExportClicked(cocos2d::CCObject*)::$_2&&) const::{lambda(geode::Task<geode::Result<std::__ndk1::__fs::filesystem::path, std::__ndk1::basic_string<char, std::__ndk1::char_traits<char>, std::__ndk1::allocator<char> > >, std::__ndk1::monostate>::Event*)#1}::operator()(geode::Task<geode::Result<std::__ndk1::__fs::filesystem::path, std::__ndk1::basic_string<char, std::__ndk1::char_traits<char>, std::__ndk1::allocator<char> > >, std::__ndk1::monostate>::Event*)::{lambda()#1}, std::__ndk1::allocator<geode::Task<geode::Result<std::__ndk1::__fs::filesystem::path, std::__ndk1::basic_string<char, std::__ndk1::char_traits<char>, std::__ndk1::allocator<char> > >, std::__ndk1::monostate>::listen<DTExportImportLayer::onExportClicked(cocos2d::CCObject*)::$_0, DTExportImportLayer::onExportClicked(cocos2d::CCObject*)::$_1, DTExportImportLayer::onExportClicked(cocos2d::CCObject*)::$_2>(DTExportImportLayer::onExportClicked(cocos2d::CCObject*)::$_0&&, DTExportImportLayer::onExportClicked(cocos2d::CCObject*)::$_1&&, DTExportImportLayer::onExportClicked(cocos2d::CCObject*)::$_2&&) const::{lambda(geode::Task<geode::Result<std::__ndk1::__fs::filesystem::path, std::__ndk1::basic_string<char, std::__ndk1::char_traits<char>, std::__ndk1::allocator<char> > >, std::__ndk1::monostate>::Event*)#1}::operator()(geode::Task<geode::Result<std::__ndk1::__fs::filesystem::path, std::__ndk1::basic_string<char, std::__ndk1::char_traits<char>, std::__ndk1::allocator<char> > >, std::__ndk1::monostate>::Event*)::{lambda()#1}>, void ()>::destroy()
FUNC 72bcc 4 0 std::__ndk1::__function::__func<geode::Task<geode::Result<std::__ndk1::__fs::filesystem::path, std::__ndk1::basic_string<char, std::__ndk1::char_traits<char>, std::__ndk1::allocator<char> > >, std::__ndk1::monostate>::listen<DTExportImportLayer::onExportClicked(cocos2d::CCObject*)::$_0, DTExportImportLayer::onExportClicked(cocos2d::CCObject*)::$_1, DTExportImportLayer::onExportClicked(cocos2d::CCObject*)::$_2>(DTExportImportLayer::onExportClicked(cocos2d::CCObject*)::$_0&&, DTExportImportLayer::onExportClicked(cocos2d::CCObject*)::$_1&&, DTExportImportLayer::onExportClicked(cocos2d::CCObject*)::$_2&&) const::{lambda(geode::Task<geode::Result<std::__ndk1::__fs::filesystem::path, std::__ndk1::basic_string<char, std::__ndk1::char_traits<char>, std::__ndk1::allocator<char> > >, std::__ndk1::monostate>::Event*)#1}::operator()(geode::Task<geode::Result<std::__ndk1::__fs::filesystem::path, std::__ndk1::basic_string<char, std::__ndk1::char_traits<char>, std::__ndk1::allocator<char> > >, std::__ndk1::monostate>::Event*)::{lambda()#1}, std::__ndk1::allocator<geode::Task<geode::Result<std::__ndk1::__fs::filesystem::path, std::__ndk1::basic_string<char, std::__ndk1::char_traits<char>, std::__ndk1::allocator<char> > >, std::__ndk1::monostate>::listen<DTExportImportLayer::onExportClicked(cocos2d::CCObject*)::$_0, DTExportImportLayer::onExportClicked(cocos2d::CCObject*)::$_1, DTExportImportLayer::onExportClicked(cocos2d::CCObject*)::$_2>(DTExportImportLayer::onExportClicked(cocos2d::CCObject*)::$_0&&, DTExportImportLayer::onExportClicked(cocos2d::CCObject*)::$_1&&, DTExportImportLayer::onExportClicked(cocos2d::CCObject*)::$_2&&) const::{lambda(geode::Task<geode::Result<std::__ndk1::__fs::filesystem::path, std::__ndk1::basic_string<char, std::__ndk1::char_traits<char>, std::__ndk1::allocator<char> > >, std::__ndk1::monostate>::Event*)#1}::operator()(geode::Task<geode::Result<std::__ndk1::__fs::filesystem::path, std::__ndk1::basic_string<char, std::__ndk1::char_traits<char>, std::__ndk1::allocator<char> > >, std::__ndk1::monostate>::Event*)::{lambda()#1}>, void ()>::destroy_deallocate()
FUNC 72bd0 18 0 std::__ndk1::__function::__func<geode::Task<geode::Result<std::__ndk1::__fs::filesystem::path, std::__ndk1::basic_string<char, std::__ndk1::char_traits<char>, std::__ndk1::allocator<char> > >, std::__ndk1::monostate>::listen<DTExportImportLayer::onExportClicked(cocos2d::CCObject*)::$_0, DTExportImportLayer::onExportClicked(cocos2d::CCObject*)::$_1, DTExportImportLayer::onExportClicked(cocos2d::CCObject*)::$_2>(DTExportImportLayer::onExportClicked(cocos2d::CCObject*)::$_0&&, DTExportImportLayer::onExportClicked(cocos2d::CCObject*)::$_1&&, DTExportImportLayer::onExportClicked(cocos2d::CCObject*)::$_2&&) const::{lambda(geode::Task<geode::Result<std::__ndk1::__fs::filesystem::path, std::__ndk1::basic_string<char, std::__ndk1::char_traits<char>, std::__ndk1::allocator<char> > >, std::__ndk1::monostate>::Event*)#1}::operator()(geode::Task<geode::Result<std::__ndk1::__fs::filesystem::path, std::__ndk1::basic_string<char, std::__ndk1::char_traits<char>, std::__ndk1::allocator<char> > >, std::__ndk1::monostate>::Event*)::{lambda()#1}, std::__ndk1::allocator<geode::Task<geode::Result<std::__ndk1::__fs::filesystem::path, std::__ndk1::basic_string<char, std::__ndk1::char_traits<char>, std::__ndk1::allocator<char> > >, std::__ndk1::monostate>::listen<DTExportImportLayer::onExportClicked(cocos2d::CCObject*)::$_0, DTExportImportLayer::onExportClicked(cocos2d::CCObject*)::$_1, DTExportImportLayer::onExportClicked(cocos2d::CCObject*)::$_2>(DTExportImportLayer::onExportClicked(cocos2d::CCObject*)::$_0&&, DTExportImportLayer::onExportClicked(cocos2d::CCObject*)::$_1&&, DTExportImportLayer::onExportClicked(cocos2d::CCObject*)::$_2&&) const::{lambda(geode::Task<geode::Result<std::__ndk1::__fs::filesystem::path, std::__ndk1::basic_string<char, std::__ndk1::char_traits<char>, std::__ndk1::allocator<char> > >, std::__ndk1::monostate>::Event*)#1}::operator()(geode::Task<geode::Result<std::__ndk1::__fs::filesystem::path, std::__ndk1::basic_string<char, std::__ndk1::char_traits<char>, std::__ndk1::allocator<char> > >, std::__ndk1::monostate>::Event*)::{lambda()#1}>, void ()>::operator()()
FUNC 72be8 1c 0 std::__ndk1::__function::__func<geode::Task<geode::Result<std::__ndk1::__fs::filesystem::path, std::__ndk1::basic_string<char, std::__ndk1::char_traits<char>, std::__ndk1::allocator<char> > >, std::__ndk1::monostate>::listen<DTExportImportLayer::onExportClicked(cocos2d::CCObject*)::$_0, DTExportImportLayer::onExportClicked(cocos2d::CCObject*)::$_1, DTExportImportLayer::onExportClicked(cocos2d::CCObject*)::$_2>(DTExportImportLayer::onExportClicked(cocos2d::CCObject*)::$_0&&, DTExportImportLayer::onExportClicked(cocos2d::CCObject*)::$_1&&, DTExportImportLayer::onExportClicked(cocos2d::CCObject*)::$_2&&) const::{lambda(geode::Task<geode::Result<std::__ndk1::__fs::filesystem::path, std::__ndk1::basic_string<char, std::__ndk1::char_traits<char>, std::__ndk1::allocator<char> > >, std::__ndk1::monostate>::Event*)#1}::operator()(geode::Task<geode::Result<std::__ndk1::__fs::filesystem::path, std::__ndk1::basic_string<char, std::__ndk1::char_traits<char>, std::__ndk1::allocator<char> > >, std::__ndk1::monostate>::Event*)::{lambda()#1}, std::__ndk1::allocator<geode::Task<geode::Result<std::__ndk1::__fs::filesystem::path, std::__ndk1::basic_string<char, std::__ndk1::char_traits<char>, std::__ndk1::allocator<char> > >, std::__ndk1::monostate>::listen<DTExportImportLayer::onExportClicked(cocos2d::CCObject*)::$_0, DTExportImportLayer::onExportClicked(cocos2d::CCObject*)::$_1, DTExportImportLayer::onExportClicked(cocos2d::CCObject*)::$_2>(DTExportImportLayer::onExportClicked(cocos2d::CCObject*)::$_0&&, DTExportImportLayer::onExportClicked(cocos2d::CCObject*)::$_1&&, DTExportImportLayer::onExportClicked(cocos2d::CCObject*)::$_2&&) const::{lambda(geode::Task<geode::Result<std::__ndk1::__fs::filesystem::path, std::__ndk1::basic_string<char, std::__ndk1::char_traits<char>, std::__ndk1::allocator<char> > >, std::__ndk1::monostate>::Event*)#1}::operator()(geode::Task<geode::Result<std::__ndk1::__fs::filesystem::path, std::__ndk1::basic_string<char, std::__ndk1::char_traits<char>, std::__ndk1::allocator<char> > >, std::__ndk1::monostate>::Event*)::{lambda()#1}>, void ()>::target(std::type_info const&) const
FUNC 72c04 c 0 std::__ndk1::__function::__func<geode::Task<geode::Result<std::__ndk1::__fs::filesystem::path, std::__ndk1::basic_string<char, std::__ndk1::char_traits<char>, std::__ndk1::allocator<char> > >, std::__ndk1::monostate>::listen<DTExportImportLayer::onExportClicked(cocos2d::CCObject*)::$_0, DTExportImportLayer::onExportClicked(cocos2d::CCObject*)::$_1, DTExportImportLayer::onExportClicked(cocos2d::CCObject*)::$_2>(DTExportImportLayer::onExportClicked(cocos2d::CCObject*)::$_0&&, DTExportImportLayer::onExportClicked(cocos2d::CCObject*)::$_1&&, DTExportImportLayer::onExportClicked(cocos2d::CCObject*)::$_2&&) const::{lambda(geode::Task<geode::Result<std::__ndk1::__fs::filesystem::path, std::__ndk1::basic_string<char, std::__ndk1::char_traits<char>, std::__ndk1::allocator<char> > >, std::__ndk1::monostate>::Event*)#1}::operator()(geode::Task<geode::Result<std::__ndk1::__fs::filesystem::path, std::__ndk1::basic_string<char, std::__ndk1::char_traits<char>, std::__ndk1::allocator<char> > >, std::__ndk1::monostate>::Event*)::{lambda()#1}, std::__ndk1::allocator<geode::Task<geode::Result<std::__ndk1::__fs::filesystem::path, std::__ndk1::basic_string<char, std::__ndk1::char_traits<char>, std::__ndk1::allocator<char> > >, std::__ndk1::monostate>::listen<DTExportImportLayer::onExportClicked(cocos2d::CCObject*)::$_0, DTExportImportLayer::onExportClicked(cocos2d::CCObject*)::$_1, DTExportImportLayer::onExportClicked(cocos2d::CCObject*)::$_2>(DTExportImportLayer::onExportClicked(cocos2d::CCObject*)::$_0&&, DTExportImportLayer::onExportClicked(cocos2d::CCObject*)::$_1&&, DTExportImportLayer::onExportClicked(cocos2d::CCObject*)::$_2&&) const::{lambda(geode::Task<geode::Result<std::__ndk1::__fs::filesystem::path, std::__ndk1::basic_string<char, std::__ndk1::char_traits<char>, std::__ndk1::allocator<char> > >, std::__ndk1::monostate>::Event*)#1}::operator()(geode::Task<geode::Result<std::__ndk1::__fs::filesystem::path, std::__ndk1::basic_string<char, std::__ndk1::char_traits<char>, std::__ndk1::allocator<char> > >, std::__ndk1::monostate>::Event*)::{lambda()#1}>, void ()>::target_type() const
FUNC 72c10 168 0 std::__ndk1::__function::__value_func<void (geode::Task<geode::Result<std::__ndk1::__fs::filesystem::path, std::__ndk1::basic_string<char, std::__ndk1::char_traits<char>, std::__ndk1::allocator<char> > >, std::__ndk1::monostate>::Event*)>::swap[abi:ne180000](std::__ndk1::__function::__value_func<void (geode::Task<geode::Result<std::__ndk1::__fs::filesystem::path, std::__ndk1::basic_string<char, std::__ndk1::char_traits<char>, std::__ndk1::allocator<char> > >, std::__ndk1::monostate>::Event*)>&)
FUNC 72d78 4 0 std::__ndk1::__function::__base<void (geode::Task<geode::Result<std::__ndk1::__fs::filesystem::path, std::__ndk1::basic_string<char, std::__ndk1::char_traits<char>, std::__ndk1::allocator<char> > >, std::__ndk1::monostate>::Event*)>::~__base()
FUNC 72d7c 4 0 std::__ndk1::__function::__func<DTExportImportLayer::onImportClicked(cocos2d::CCObject*)::$_0, std::__ndk1::allocator<DTExportImportLayer::onImportClicked(cocos2d::CCObject*)::$_0>, void (geode::Task<geode::Result<std::__ndk1::__fs::filesystem::path, std::__ndk1::basic_string<char, std::__ndk1::char_traits<char>, std::__ndk1::allocator<char> > >, std::__ndk1::monostate>::Event*)>::~__func()
FUNC 72d80 34 0 std::__ndk1::__function::__func<DTExportImportLayer::onImportClicked(cocos2d::CCObject*)::$_0, std::__ndk1::allocator<DTExportImportLayer::onImportClicked(cocos2d::CCObject*)::$_0>, void (geode::Task<geode::Result<std::__ndk1::__fs::filesystem::path, std::__ndk1::basic_string<char, std::__ndk1::char_traits<char>, std::__ndk1::allocator<char> > >, std::__ndk1::monostate>::Event*)>::__clone() const
FUNC 72db4 14 0 std::__ndk1::__function::__func<DTExportImportLayer::onImportClicked(cocos2d::CCObject*)::$_0, std::__ndk1::allocator<DTExportImportLayer::onImportClicked(cocos2d::CCObject*)::$_0>, void (geode::Task<geode::Result<std::__ndk1::__fs::filesystem::path, std::__ndk1::basic_string<char, std::__ndk1::char_traits<char>, std::__ndk1::allocator<char> > >, std::__ndk1::monostate>::Event*)>::__clone(std::__ndk1::__function::__base<void (geode::Task<geode::Result<std::__ndk1::__fs::filesystem::path, std::__ndk1::basic_string<char, std::__ndk1::char_traits<char>, std::__ndk1::allocator<char> > >, std::__ndk1::monostate>::Event*)>*) const
FUNC 72dc8 4 0 std::__ndk1::__function::__func<DTExportImportLayer::onImportClicked(cocos2d::CCObject*)::$_0, std::__ndk1::allocator<DTExportImportLayer::onImportClicked(cocos2d::CCObject*)::$_0>, void (geode::Task<geode::Result<std::__ndk1::__fs::filesystem::path, std::__ndk1::basic_string<char, std::__ndk1::char_traits<char>, std::__ndk1::allocator<char> > >, std::__ndk1::monostate>::Event*)>::destroy()
FUNC 72dcc 4 0 std::__ndk1::__function::__func<DTExportImportLayer::onImportClicked(cocos2d::CCObject*)::$_0, std::__ndk1::allocator<DTExportImportLayer::onImportClicked(cocos2d::CCObject*)::$_0>, void (geode::Task<geode::Result<std::__ndk1::__fs::filesystem::path, std::__ndk1::basic_string<char, std::__ndk1::char_traits<char>, std::__ndk1::allocator<char> > >, std::__ndk1::monostate>::Event*)>::destroy_deallocate()
FUNC 72dd0 bdc 0 std::__ndk1::__function::__func<DTExportImportLayer::onImportClicked(cocos2d::CCObject*)::$_0, std::__ndk1::allocator<DTExportImportLayer::onImportClicked(cocos2d::CCObject*)::$_0>, void (geode::Task<geode::Result<std::__ndk1::__fs::filesystem::path, std::__ndk1::basic_string<char, std::__ndk1::char_traits<char>, std::__ndk1::allocator<char> > >, std::__ndk1::monostate>::Event*)>::operator()(geode::Task<geode::Result<std::__ndk1::__fs::filesystem::path, std::__ndk1::basic_string<char, std::__ndk1::char_traits<char>, std::__ndk1::allocator<char> > >, std::__ndk1::monostate>::Event*&&)
FUNC 739ac 1c 0 std::__ndk1::__function::__func<DTExportImportLayer::onImportClicked(cocos2d::CCObject*)::$_0, std::__ndk1::allocator<DTExportImportLayer::onImportClicked(cocos2d::CCObject*)::$_0>, void (geode::Task<geode::Result<std::__ndk1::__fs::filesystem::path, std::__ndk1::basic_string<char, std::__ndk1::char_traits<char>, std::__ndk1::allocator<char> > >, std::__ndk1::monostate>::Event*)>::target(std::type_info const&) const
FUNC 739c8 c 0 std::__ndk1::__function::__func<DTExportImportLayer::onImportClicked(cocos2d::CCObject*)::$_0, std::__ndk1::allocator<DTExportImportLayer::onImportClicked(cocos2d::CCObject*)::$_0>, void (geode::Task<geode::Result<std::__ndk1::__fs::filesystem::path, std::__ndk1::basic_string<char, std::__ndk1::char_traits<char>, std::__ndk1::allocator<char> > >, std::__ndk1::monostate>::Event*)>::target_type() const
FUNC 739d4 12c 0 std::__ndk1::__tree<std::__ndk1::__value_type<std::__ndk1::basic_string<char, std::__ndk1::char_traits<char>, std::__ndk1::allocator<char> >, int>, std::__ndk1::__map_value_compare<std::__ndk1::basic_string<char, std::__ndk1::char_traits<char>, std::__ndk1::allocator<char> >, std::__ndk1::__value_type<std::__ndk1::basic_string<char, std::__ndk1::char_traits<char>, std::__ndk1::allocator<char> >, int>, std::__ndk1::less<std::__ndk1::basic_string<char, std::__ndk1::char_traits<char>, std::__ndk1::allocator<char> > >, true>, std::__ndk1::allocator<std::__ndk1::__value_type<std::__ndk1::basic_string<char, std::__ndk1::char_traits<char>, std::__ndk1::allocator<char> >, int> > >::__emplace_unique_key_args<std::__ndk1::basic_string<char, std::__ndk1::char_traits<char>, std::__ndk1::allocator<char> >, std::__ndk1::piecewise_construct_t const&, std::__ndk1::tuple<std::__ndk1::basic_string<char, std::__ndk1::char_traits<char>, std::__ndk1::allocator<char> > const&>, std::__ndk1::tuple<> >(std::__ndk1::basic_string<char, std::__ndk1::char_traits<char>, std::__ndk1::allocator<char> > const&, std::__ndk1::piecewise_construct_t const&, std::__ndk1::tuple<std::__ndk1::basic_string<char, std::__ndk1::char_traits<char>, std::__ndk1::allocator<char> > const&>, std::__ndk1::tuple<>)
FUNC 73b00 270 0 _ZNSt6__ndk121__from_chars_integralB8ne180000IjTnNS_9enable_ifIXsr11is_unsignedIT_EE5valueEiE4typeELi0EEENS_17from_chars_resultEPKcS7_RS2_i
FUNC 73d70 1a0 0 _ZNSt6__ndk124__subject_seq_combinatorB8ne180000IPKcjZNS_21__from_chars_integralB8ne180000IjTnNS_9enable_ifIXsr11is_unsignedIT_EE5valueEiE4typeELi0EEENS_17from_chars_resultES2_S2_RS5_iEUlS2_S2_RjiE_JiEEES8_S5_S5_RT0_T1_DpT2_
FUNC 73f10 208 0 _ZZNSt6__ndk121__from_chars_integralB8ne180000IjTnNS_9enable_ifIXsr11is_unsignedIT_EE5valueEiE4typeELi0EEENS_17from_chars_resultEPKcS7_RS2_iENKUlS7_S7_RjiE_clES7_S7_S9_i
FUNC 74118 50 0 geode::Popup<DTLayer* const&>::CloseEvent::~CloseEvent()
FUNC 74168 58 0 geode::Popup<DTLayer* const&>::CloseEvent::~CloseEvent()
FUNC 741c0 10 0 std::__ndk1::__shared_ptr_emplace<geode::Popup<DTLayer* const&>::CloseEvent::Impl, std::__ndk1::allocator<geode::Popup<DTLayer* const&>::CloseEvent::Impl> >::~__shared_ptr_emplace()
FUNC 741d0 30 0 std::__ndk1::__shared_ptr_emplace<geode::Popup<DTLayer* const&>::CloseEvent::Impl, std::__ndk1::allocator<geode::Popup<DTLayer* const&>::CloseEvent::Impl> >::~__shared_ptr_emplace()
FUNC 74200 4 0 std::__ndk1::__shared_ptr_emplace<geode::Popup<DTLayer* const&>::CloseEvent::Impl, std::__ndk1::allocator<geode::Popup<DTLayer* const&>::CloseEvent::Impl> >::__on_zero_shared()
FUNC 74204 4 0 std::__ndk1::__shared_ptr_emplace<geode::Popup<DTLayer* const&>::CloseEvent::Impl, std::__ndk1::allocator<geode::Popup<DTLayer* const&>::CloseEvent::Impl> >::__on_zero_shared_weak()
FUNC 74208 194 0 DTGraphLayer::create(DTLayer* const&)
FUNC 7439c 1504 0 DTGraphLayer::setup(DTLayer* const&)
FUNC 758a0 100 0 DTGraphLayer::onOverallInfo(cocos2d::CCObject*)
FUNC 759a0 c44 0 DTGraphLayer::refreshGraph()
FUNC 765e4 1fc 0 DTGraphLayer::switchedSessionRight(cocos2d::CCObject*)
FUNC 767e0 1fc 0 DTGraphLayer::switchedSessionLeft(cocos2d::CCObject*)
FUNC 769dc 6c 0 DTGraphLayer::onViewModeButton(cocos2d::CCObject*)
FUNC 76a48 6c 0 DTGraphLayer::onRunViewModeButton(cocos2d::CCObject*)
FUNC 76ab4 78 0 DTGraphLayer::onTypeViewModeButton(cocos2d::CCObject*)
FUNC 76b2c c4 0 DTGraphLayer::RunChosen(int const&)
FUNC 76bf0 22ac 0 DTGraphLayer::CreateGraph(std::__ndk1::vector<DeathInfo_s, std::__ndk1::allocator<DeathInfo_s> > const&, int const&, cocos2d::_ccColor3B const&, cocos2d::CCPoint const&, cocos2d::_ccColor4B const&, cocos2d::_ccColor4B const&, float const&, cocos2d::_ccColor4B const&, cocos2d::_ccColor4B const&, int const&, cocos2d::_ccColor4B const&, int const&, DTGraphLayer::GraphType const&)
FUNC 78e9c 374 0 std::__ndk1::vector<std::__ndk1::pair<int, int>, std::__ndk1::allocator<std::__ndk1::pair<int, int> > >::insert(std::__ndk1::__wrap_iter<std::__ndk1::pair<int, int> const*>, std::__ndk1::pair<int, int>&&)
FUNC 79210 194 0 DTGraphLayer::OnPointSelected(cocos2d::CCNode*)
FUNC 793a4 8 0 {virtual override thunk({offset(-680)}, DTGraphLayer::OnPointSelected(cocos2d::CCNode*))}
FUNC 793ac 54 0 DTGraphLayer::OnPointDeselected(cocos2d::CCNode*)
FUNC 79400 54 0 {virtual override thunk({offset(-680)}, DTGraphLayer::OnPointDeselected(cocos2d::CCNode*))}
FUNC 79454 350 0 DTGraphLayer::textChanged(CCTextInputNode*)
FUNC 797a4 8 0 {virtual override thunk({offset(-672)}, DTGraphLayer::textChanged(CCTextInputNode*))}
FUNC 797ac 10c 0 DTGraphLayer::textInputOpened(CCTextInputNode*)
FUNC 798b8 8 0 {virtual override thunk({offset(-672)}, DTGraphLayer::textInputOpened(CCTextInputNode*))}
FUNC 798c0 10c 0 DTGraphLayer::textInputClosed(CCTextInputNode*)
FUNC 799cc 8 0 {virtual override thunk({offset(-672)}, DTGraphLayer::textInputClosed(CCTextInputNode*))}
FUNC 799d4 68 0 DTGraphLayer::onClose(cocos2d::CCObject*)
FUNC 79a3c 74 0 DTGraphLayer::~DTGraphLayer()
FUNC 79ab0 6c 0 {virtual override thunk({offset(-320)}, DTGraphLayer::~DTGraphLayer())}
FUNC 79b1c 74 0 {virtual override thunk({offset(-320)}, DTGraphLayer::~DTGraphLayer())}
FUNC 79b90 1c68 0 std::__ndk1::__introsort<std::__ndk1::_RangeAlgPolicy, DTGraphLayer::setup(DTLayer* const&)::$_0&, Session*, false>(Session*, Session*, DTGraphLayer::setup(DTLayer* const&)::$_0&, std::__ndk1::iterator_traits<Session*>::difference_type, bool)
FUNC 7b7f8 194 0 Session::Session(Session const&)
FUNC 7b98c 3c 0 Session::~Session()
FUNC 7b9c8 2f0 0 _ZNSt6__ndk124__sort5_maybe_branchlessB8ne180000INS_15_RangeAlgPolicyERZN12DTGraphLayer5setupERKP7DTLayerE3$_0P7SessionTnNS_9enable_ifIXntsr21__use_branchless_sortIT0_T1_EE5valueEiE4typeELi0EEEvSD_SD_SD_SD_SD_SC_
FUNC 7bcb8 364 0 std::__ndk1::__sort3[abi:ne180000]<std::__ndk1::_RangeAlgPolicy, DTGraphLayer::setup(DTLayer* const&)::$_0&, Session*>(Session*, Session*, Session*, DTGraphLayer::setup(DTLayer* const&)::$_0&)
FUNC 7c01c 72c 0 std::__ndk1::__partition_with_equals_on_left[abi:ne180000]<std::__ndk1::_RangeAlgPolicy, Session*, DTGraphLayer::setup(DTLayer* const&)::$_0&>(DTGraphLayer::setup(DTLayer* const&)::$_0&, DTGraphLayer::setup(DTLayer* const&)::$_0&, DTGraphLayer::setup(DTLayer* const&)::$_0&)
FUNC 7c748 6c0 0 std::__ndk1::__partition_with_equals_on_right[abi:ne180000]<std::__ndk1::_RangeAlgPolicy, Session*, DTGraphLayer::setup(DTLayer* const&)::$_0&>(std::__ndk1::pair, std::__ndk1::pair, DTGraphLayer::setup(DTLayer* const&)::$_0&)
FUNC 7ce08 624 0 std::__ndk1::__insertion_sort_incomplete[abi:ne180000]<std::__ndk1::_RangeAlgPolicy, DTGraphLayer::setup(DTLayer* const&)::$_0&, Session*>(Session*, Session*, DTGraphLayer::setup(DTLayer* const&)::$_0&)
FUNC 7d42c 124 0 std::__ndk1::set<int, std::__ndk1::less<int>, std::__ndk1::allocator<int> >::insert[abi:ne180000]<std::__ndk1::__tree_const_iterator<int, std::__ndk1::__tree_node<int, void*>*, long> >(std::__ndk1::__tree_const_iterator<int, std::__ndk1::__tree_node<int, void*>*, long>, std::__ndk1::__tree_const_iterator<int, std::__ndk1::__tree_node<int, void*>*, long>)
FUNC 7d550 1a8 0 std::__ndk1::__tree<int, std::__ndk1::less<int>, std::__ndk1::allocator<int> >::__find_equal<int>(std::__ndk1::__tree_const_iterator<int, std::__ndk1::__tree_node<int, void*>*, long>, std::__ndk1::__tree_end_node<std::__ndk1::__tree_node_base<void*>*>*&, std::__ndk1::__tree_node_base<void*>*&, int const&)
FUNC 7d6f8 16c 0 _ZNKSt6__ndk16ranges6__swap4__fnclB8ne180000ITkNS1_14__exchangeableE7SessionEEvRT_S6_
FUNC 7d864 1c8 0 std::__ndk1::exchange[abi:ne180000]<Session, std::__ndk1::exchange[abi:ne180000]>(Session&, std::__ndk1::exchange[abi:ne180000]&&)
FUNC 7da2c 254 0 std::__ndk1::__sort4[abi:ne180000]<std::__ndk1::_RangeAlgPolicy, DTGraphLayer::setup(DTLayer* const&)::$_0&, Session*>(Session*, Session*, Session*, Session*, DTGraphLayer::setup(DTLayer* const&)::$_0&)
FUNC 7dc80 14 0 std::__ndk1::vector<cocos2d::CCSprite*, std::__ndk1::allocator<cocos2d::CCSprite*> >::__throw_length_error[abi:ne180000]() const
FUNC 7dc94 14 0 std::__ndk1::vector<DeathInfo_s, std::__ndk1::allocator<DeathInfo_s> >::__throw_length_error[abi:ne180000]() const
FUNC 7dca8 14 0 std::__ndk1::vector<cocos2d::CCPoint, std::__ndk1::allocator<cocos2d::CCPoint> >::__throw_length_error[abi:ne180000]() const
FUNC 7dcbc 14 0 std::__ndk1::vector<std::__ndk1::pair<int, int>, std::__ndk1::allocator<std::__ndk1::pair<int, int> > >::__throw_length_error[abi:ne180000]() const
FUNC 7dcd0 4 0 std::__ndk1::__function::__base<void (int const&)>::~__base()
FUNC 7dcd4 4 0 std::__ndk1::__function::__func<std::__ndk1::__bind<void (DTGraphLayer::*)(int const&), DTGraphLayer*, std::__ndk1::placeholders::__ph<1> const&>, std::__ndk1::allocator<std::__ndk1::__bind<void (DTGraphLayer::*)(int const&), DTGraphLayer*, std::__ndk1::placeholders::__ph<1> const&> >, void (int const&)>::~__func()
FUNC 7dcd8 40 0 std::__ndk1::__function::__func<std::__ndk1::__bind<void (DTGraphLayer::*)(int const&), DTGraphLayer*, std::__ndk1::placeholders::__ph<1> const&>, std::__ndk1::allocator<std::__ndk1::__bind<void (DTGraphLayer::*)(int const&), DTGraphLayer*, std::__ndk1::placeholders::__ph<1> const&> >, void (int const&)>::__clone() const
FUNC 7dd18 20 0 std::__ndk1::__function::__func<std::__ndk1::__bind<void (DTGraphLayer::*)(int const&), DTGraphLayer*, std::__ndk1::placeholders::__ph<1> const&>, std::__ndk1::allocator<std::__ndk1::__bind<void (DTGraphLayer::*)(int const&), DTGraphLayer*, std::__ndk1::placeholders::__ph<1> const&> >, void (int const&)>::__clone(std::__ndk1::__function::__base<void (int const&)>*) const
FUNC 7dd38 4 0 std::__ndk1::__function::__func<std::__ndk1::__bind<void (DTGraphLayer::*)(int const&), DTGraphLayer*, std::__ndk1::placeholders::__ph<1> const&>, std::__ndk1::allocator<std::__ndk1::__bind<void (DTGraphLayer::*)(int const&), DTGraphLayer*, std::__ndk1::placeholders::__ph<1> const&> >, void (int const&)>::destroy()
FUNC 7dd3c 4 0 std::__ndk1::__function::__func<std::__ndk1::__bind<void (DTGraphLayer::*)(int const&), DTGraphLayer*, std::__ndk1::placeholders::__ph<1> const&>, std::__ndk1::allocator<std::__ndk1::__bind<void (DTGraphLayer::*)(int const&), DTGraphLayer*, std::__ndk1::placeholders::__ph<1> const&> >, void (int const&)>::destroy_deallocate()
FUNC 7dd40 1c 0 std::__ndk1::__function::__func<std::__ndk1::__bind<void (DTGraphLayer::*)(int const&), DTGraphLayer*, std::__ndk1::placeholders::__ph<1> const&>, std::__ndk1::allocator<std::__ndk1::__bind<void (DTGraphLayer::*)(int const&), DTGraphLayer*, std::__ndk1::placeholders::__ph<1> const&> >, void (int const&)>::operator()(int const&)
FUNC 7dd5c 1c 0 std::__ndk1::__function::__func<std::__ndk1::__bind<void (DTGraphLayer::*)(int const&), DTGraphLayer*, std::__ndk1::placeholders::__ph<1> const&>, std::__ndk1::allocator<std::__ndk1::__bind<void (DTGraphLayer::*)(int const&), DTGraphLayer*, std::__ndk1::placeholders::__ph<1> const&> >, void (int const&)>::target(std::type_info const&) const
FUNC 7dd78 c 0 std::__ndk1::__function::__func<std::__ndk1::__bind<void (DTGraphLayer::*)(int const&), DTGraphLayer*, std::__ndk1::placeholders::__ph<1> const&>, std::__ndk1::allocator<std::__ndk1::__bind<void (DTGraphLayer::*)(int const&), DTGraphLayer*, std::__ndk1::placeholders::__ph<1> const&> >, void (int const&)>::target_type() const
FUNC 7dd84 f0 0 DTLayer::create(GJGameLevel* const&)
FUNC 7de74 464 0 DTLayer::DTLayer()
FUNC 7e2d8 197c 0 DTLayer::setup(GJGameLevel* const&)
FUNC 7fc54 1338 0 DTLayer::UpdateSharedStats()
FUNC 80f8c 50 0 DTLayer::onEditLayout(cocos2d::CCObject*)
FUNC 80fdc 80 0 DTLayer::OnLinkButtonClicked(cocos2d::CCObject*)
FUNC 8105c 30 0 DTLayer::onSettings(cocos2d::CCObject*)
FUNC 8108c 5c4 0 DTLayer::onSpecificSettings(cocos2d::CCObject*)
FUNC 81650 4d4 0 DTLayer::onEditLayoutApply(cocos2d::CCObject*)
FUNC 81b24 3c8 0 DTLayer::addBox(cocos2d::CCObject*)
FUNC 81eec dc 0 DTLayer::onLayoutInfo(cocos2d::CCObject*)
FUNC 81fc8 108 0 DTLayer::onResetLayout(cocos2d::CCObject*)
FUNC 820d0 c8 0 DTLayer::editnbcColor(cocos2d::CCObject*)
FUNC 82198 c4 0 DTLayer::editsbcColor(cocos2d::CCObject*)
FUNC 8225c 140 0 DTLayer::SwitchSessionRight(cocos2d::CCObject*)
FUNC 8239c 144 0 DTLayer::SwitchSessionLeft(cocos2d::CCObject*)
FUNC 824e0 80 0 DTLayer::openGraphMenu(cocos2d::CCObject*)
FUNC 82560 184 0 DTLayer::copyText(cocos2d::CCObject*)
FUNC 826e4 dc 0 DTLayer::onCopyInfo(cocos2d::CCObject*)
FUNC 827c0 514 0 DTLayer::createLayoutBlocks()
FUNC 82cd4 860 0 DTLayer::refreshAll(bool)
FUNC 83534 7c 0 DTLayer::update(float)
FUNC 835b0 2fc 0 DTLayer::EditLayoutEnabled(bool const&)
FUNC 838ac 1e0 0 DTLayer::textChanged(CCTextInputNode*)
FUNC 83a8c 520 0 DTLayer::refreshSession(bool)
FUNC 83fac 8 0 {virtual override thunk({offset(-672)}, DTLayer::textChanged(CCTextInputNode*))}
FUNC 83fb4 104 0 DTLayer::textInputOpened(CCTextInputNode*)
FUNC 840b8 8 0 {virtual override thunk({offset(-672)}, DTLayer::textInputOpened(CCTextInputNode*))}
FUNC 840c0 e8 0 DTLayer::textInputClosed(CCTextInputNode*)
FUNC 841a8 8 0 {virtual override thunk({offset(-672)}, DTLayer::textInputClosed(CCTextInputNode*))}
FUNC 841b0 6d4 0 DTLayer::updateSessionString(int const&)
FUNC 84884 1a4 0 geode::Task<geode::Result<void, std::__ndk1::basic_string<char, std::__ndk1::char_traits<char>, std::__ndk1::allocator<char> > >, std::__ndk1::monostate>::immediate(geode::Result<void, std::__ndk1::basic_string<char, std::__ndk1::char_traits<char>, std::__ndk1::allocator<char> > >, std::__ndk1::basic_string_view<char, std::__ndk1::char_traits<char> >)
FUNC 84a28 2c4 0 DTLayer::CreateDeathsInfo(std::__ndk1::map<std::__ndk1::basic_string<char, std::__ndk1::char_traits<char>, std::__ndk1::allocator<char> >, int, std::__ndk1::less<std::__ndk1::basic_string<char, std::__ndk1::char_traits<char>, std::__ndk1::allocator<char> > >, std::__ndk1::allocator<std::__ndk1::pair<std::__ndk1::basic_string<char, std::__ndk1::char_traits<char>, std::__ndk1::allocator<char> > const, int> > > const&, std::__ndk1::set<int, std::__ndk1::less<int>, std::__ndk1::allocator<int> > const&)
FUNC 84cec 3c 0 DTLayer::updateSessionString(int const&)::$_0::~$_0()
FUNC 84d28 50 0 geode::Task<geode::Result<std::__ndk1::vector<DeathInfo_s, std::__ndk1::allocator<DeathInfo_s> >, std::__ndk1::basic_string<char, std::__ndk1::char_traits<char>, std::__ndk1::allocator<char> > >, std::__ndk1::monostate>::~Task()
FUNC 84d78 50 0 geode::Task<geode::Result<void, std::__ndk1::basic_string<char, std::__ndk1::char_traits<char>, std::__ndk1::allocator<char> > >, std::__ndk1::monostate>::~Task()
FUNC 84dc8 94 0 DTLayer::ccTouchBegan(cocos2d::CCTouch*, cocos2d::CCEvent*)
FUNC 84e5c 94 0 {virtual override thunk({offset(-320)}, DTLayer::ccTouchBegan(cocos2d::CCTouch*, cocos2d::CCEvent*))}
FUNC 84ef0 88 0 DTLayer::ccTouchMoved(cocos2d::CCTouch*, cocos2d::CCEvent*)
FUNC 84f78 88 0 {virtual override thunk({offset(-320)}, DTLayer::ccTouchMoved(cocos2d::CCTouch*, cocos2d::CCEvent*))}
FUNC 85000 8 0 DTLayer::ccTouchEnded(cocos2d::CCTouch*, cocos2d::CCEvent*)
FUNC 85008 8 0 {virtual override thunk({offset(-320)}, DTLayer::ccTouchEnded(cocos2d::CCTouch*, cocos2d::CCEvent*))}
FUNC 85010 8 0 DTLayer::ccTouchCancelled(cocos2d::CCTouch*, cocos2d::CCEvent*)
FUNC 85018 8 0 {virtual override thunk({offset(-320)}, DTLayer::ccTouchCancelled(cocos2d::CCTouch*, cocos2d::CCEvent*))}
FUNC 85020 480 0 DTLayer::changeScrollSizeByBoxes(bool const&)
FUNC 854a0 14c8 0 DTLayer::RefreshText(bool)
FUNC 86968 f28 0 DTLayer::modifyString(std::__ndk1::basic_string<char, std::__ndk1::char_traits<char>, std::__ndk1::allocator<char> >)
FUNC 87890 320 0 geode::Task<geode::Result<std::__ndk1::vector<DeathInfo_s, std::__ndk1::allocator<DeathInfo_s> >, std::__ndk1::basic_string<char, std::__ndk1::char_traits<char>, std::__ndk1::allocator<char> > >, std::__ndk1::monostate>::run(std::__ndk1::function<geode::Task<geode::Result<std::__ndk1::vector<DeathInfo_s, std::__ndk1::allocator<DeathInfo_s> >, std::__ndk1::basic_string<char, std::__ndk1::char_traits<char>, std::__ndk1::allocator<char> > >, std::__ndk1::monostate>::Result(std::__ndk1::function<void (std::__ndk1::monostate)>, std::__ndk1::function<bool ()>)>&&, std::__ndk1::basic_string_view<char, std::__ndk1::char_traits<char> >)
FUNC 87bb0 30 0 DTLayer::CreateDeathsInfo(std::__ndk1::map<std::__ndk1::basic_string<char, std::__ndk1::char_traits<char>, std::__ndk1::allocator<char> >, int, std::__ndk1::less<std::__ndk1::basic_string<char, std::__ndk1::char_traits<char>, std::__ndk1::allocator<char> > >, std::__ndk1::allocator<std::__ndk1::pair<std::__ndk1::basic_string<char, std::__ndk1::char_traits<char>, std::__ndk1::allocator<char> > const, int> > > const&, std::__ndk1::set<int, std::__ndk1::less<int>, std::__ndk1::allocator<int> > const&)::$_0::~$_0()
FUNC 87be0 240 0 DTLayer::CreateRunsInfo(std::__ndk1::map<std::__ndk1::basic_string<char, std::__ndk1::char_traits<char>, std::__ndk1::allocator<char> >, int, std::__ndk1::less<std::__ndk1::basic_string<char, std::__ndk1::char_traits<char>, std::__ndk1::allocator<char> > >, std::__ndk1::allocator<std::__ndk1::pair<std::__ndk1::basic_string<char, std::__ndk1::char_traits<char>, std::__ndk1::allocator<char> > const, int> > >)
FUNC 87e20 18c 0 std::__ndk1::basic_stringstream<char, std::__ndk1::char_traits<char>, std::__ndk1::allocator<char> >::basic_stringstream[abi:ne180000](std::__ndk1::basic_string<char, std::__ndk1::char_traits<char>, std::__ndk1::allocator<char> > const&, unsigned int)
FUNC 87fac 1b4 0 std::__ndk1::getline[abi:ne180000]<char, std::__ndk1::char_traits<char>, std::__ndk1::allocator<char> >(std::__ndk1::basic_istream<char, std::__ndk1::char_traits<char> >, std::__ndk1::basic_string<std::__ndk1::basic_istream, char, std::__ndk1::allocator<char> >&, std::__ndk1::basic_istream)
FUNC 88160 8c 0 geode::log::error<char const*>(fmt::v11::basic_format_string<char, fmt::v11::type_identity<std::__ndk1::conditional<IsWrappedCocos<char const*>, decltype ((wrapCocosObj<char const*>)((std::declval<char const*>)())), char const*>::type>::type>, char const*&&)
FUNC 881ec 9b8 0 DTLayer::updatePlaytime(std::__ndk1::vector<DeathInfo_s, std::__ndk1::allocator<DeathInfo_s> >, bool)
FUNC 88ba4 44 0 LabelLayout::~LabelLayout()
FUNC 88be8 678 0 DTLayer::FLAlert_Clicked(FLAlertLayer*, bool)
FUNC 89260 8 0 {virtual override thunk({offset(-680)}, DTLayer::FLAlert_Clicked(FLAlertLayer*, bool))}
FUNC 89268 f0 0 DTLayer::onClose(cocos2d::CCObject*)
FUNC 89358 114 0 LevelStats_s::operator=(LevelStats_s const&)
FUNC 8946c 238 0 _ZNO5geode4impl10ResultDataI12LevelStats_sNSt6__ndk112basic_stringIcNS3_11char_traitsIcEENS3_9allocatorIcEEEEE15unwrapOrDefaultEvQsr3stdE21default_initializableIT_E
FUNC 896a4 74 0 geode::impl::ResultData<LevelStats_s, std::__ndk1::basic_string<char, std::__ndk1::char_traits<char>, std::__ndk1::allocator<char> > >::~ResultData()
FUNC 89718 1e4 0 std::__ndk1::vector<Session, std::__ndk1::allocator<Session> >::reserve(unsigned long)
FUNC 898fc 3c0 0 DTLayer::clickedWindow(cocos2d::CCNode*)
FUNC 89cbc 98 0 cocos2d::CCSequence::create(cocos2d::CCFiniteTimeAction*, ...)
FUNC 89d54 e0 0 DTLayer::onMoveTransitionEnded(cocos2d::CCObject*)
FUNC 89e34 78 0 DTLayer::updateColor(cocos2d::_ccColor4B const&)
FUNC 89eac 78 0 {virtual override thunk({offset(-688)}, DTLayer::updateColor(cocos2d::_ccColor4B const&))}
FUNC 89f24 14 0 DTLayer::onRefreshFinished(geode::Task<geode::Result<void, std::__ndk1::basic_string<char, std::__ndk1::char_traits<char>, std::__ndk1::allocator<char> > >, std::__ndk1::monostate>::Event*)
FUNC 89f38 1fc 0 DTLayer::~DTLayer()
FUNC 8a134 24 0 DTLayer::~DTLayer()
FUNC 8a158 2c 0 geode::Popup<GJGameLevel* const&>::registerWithTouchDispatcher()
FUNC 8a184 28 0 geode::Popup<GJGameLevel* const&>::keyDown(cocos2d::enumKeyCodes)
FUNC 8a1ac 8 0 {virtual override thunk({offset(-320)}, DTLayer::~DTLayer())}
FUNC 8a1b4 28 0 {virtual override thunk({offset(-320)}, DTLayer::~DTLayer())}
FUNC 8a1dc 2c 0 {virtual override thunk({offset(-344)}, geode::Popup<GJGameLevel* const&>::keyDown(cocos2d::enumKeyCodes))}
FUNC 8a208 6c 0 geode::Popup<GJGameLevel* const&>::~Popup()
FUNC 8a274 4 0 geode::Popup<GJGameLevel* const&>::~Popup()
FUNC 8a278 148 0 geode::Popup<GJGameLevel* const&>::onClose(cocos2d::CCObject*)
FUNC 8a3c0 6c 0 {virtual override thunk({offset(-320)}, geode::Popup<GJGameLevel* const&>::~Popup())}
FUNC 8a42c 4 0 {virtual override thunk({offset(-320)}, geode::Popup<GJGameLevel* const&>::~Popup())}
FUNC 8a430 50 0 geode::Popup<GJGameLevel* const&>::CloseEvent::~CloseEvent()
FUNC 8a480 58 0 geode::Popup<GJGameLevel* const&>::CloseEvent::~CloseEvent()
FUNC 8a4d8 10 0 std::__ndk1::__shared_ptr_emplace<geode::Popup<GJGameLevel* const&>::CloseEvent::Impl, std::__ndk1::allocator<geode::Popup<GJGameLevel* const&>::CloseEvent::Impl> >::~__shared_ptr_emplace()
FUNC 8a4e8 30 0 std::__ndk1::__shared_ptr_emplace<geode::Popup<GJGameLevel* const&>::CloseEvent::Impl, std::__ndk1::allocator<geode::Popup<GJGameLevel* const&>::CloseEvent::Impl> >::~__shared_ptr_emplace()
FUNC 8a518 4 0 std::__ndk1::__shared_ptr_emplace<geode::Popup<GJGameLevel* const&>::CloseEvent::Impl, std::__ndk1::allocator<geode::Popup<GJGameLevel* const&>::CloseEvent::Impl> >::__on_zero_shared()
FUNC 8a51c 4 0 std::__ndk1::__shared_ptr_emplace<geode::Popup<GJGameLevel* const&>::CloseEvent::Impl, std::__ndk1::allocator<geode::Popup<GJGameLevel* const&>::CloseEvent::Impl> >::__on_zero_shared_weak()
FUNC 8a520 8c 0 std::__ndk1::vector<Session, std::__ndk1::allocator<Session> >::~vector[abi:ne180000]()
FUNC 8a5ac 21c 0 geode::Task<geode::Result<void, std::__ndk1::basic_string<char, std::__ndk1::char_traits<char>, std::__ndk1::allocator<char> > >, std::__ndk1::monostate>::setListener(geode::EventListenerProtocol*)
FUNC 8a7c8 4 0 geode::EventListener<geode::Task<geode::Result<void, std::__ndk1::basic_string<char, std::__ndk1::char_traits<char>, std::__ndk1::allocator<char> > >, std::__ndk1::monostate> >::getPool() const
FUNC 8a7cc 1ac 0 geode::EventListener<geode::Task<geode::Result<void, std::__ndk1::basic_string<char, std::__ndk1::char_traits<char>, std::__ndk1::allocator<char> > >, std::__ndk1::monostate> >::handle(geode::Event*)
FUNC 8a978 8c 0 geode::EventListener<geode::Task<geode::Result<void, std::__ndk1::basic_string<char, std::__ndk1::char_traits<char>, std::__ndk1::allocator<char> > >, std::__ndk1::monostate> >::~EventListener()
FUNC 8aa04 94 0 geode::EventListener<geode::Task<geode::Result<void, std::__ndk1::basic_string<char, std::__ndk1::char_traits<char>, std::__ndk1::allocator<char> > >, std::__ndk1::monostate> >::~EventListener()
FUNC 8aa98 50 0 geode::Task<geode::Result<void, std::__ndk1::basic_string<char, std::__ndk1::char_traits<char>, std::__ndk1::allocator<char> > >, std::__ndk1::monostate>::setListener(geode::EventListenerProtocol*)::{lambda()#1}::~{lambda()#1}()
FUNC 8aae8 50 0 geode::Task<geode::Result<void, std::__ndk1::basic_string<char, std::__ndk1::char_traits<char>, std::__ndk1::allocator<char> > >, std::__ndk1::monostate>::setListener(geode::EventListenerProtocol*)::{lambda()#2}::~{lambda()#2}()
FUNC 8ab38 5c 0 std::__ndk1::__function::__func<geode::Task<geode::Result<void, std::__ndk1::basic_string<char, std::__ndk1::char_traits<char>, std::__ndk1::allocator<char> > >, std::__ndk1::monostate>::setListener(geode::EventListenerProtocol*)::{lambda()#1}, std::__ndk1::allocator<geode::Task<geode::Result<void, std::__ndk1::basic_string<char, std::__ndk1::char_traits<char>, std::__ndk1::allocator<char> > >, std::__ndk1::monostate>::setListener(geode::EventListenerProtocol*)::{lambda()#1}>, void ()>::~__func()
FUNC 8ab94 5c 0 std::__ndk1::__function::__func<geode::Task<geode::Result<void, std::__ndk1::basic_string<char, std::__ndk1::char_traits<char>, std::__ndk1::allocator<char> > >, std::__ndk1::monostate>::setListener(geode::EventListenerProtocol*)::{lambda()#1}, std::__ndk1::allocator<geode::Task<geode::Result<void, std::__ndk1::basic_string<char, std::__ndk1::char_traits<char>, std::__ndk1::allocator<char> > >, std::__ndk1::monostate>::setListener(geode::EventListenerProtocol*)::{lambda()#1}>, void ()>::~__func()
FUNC 8abf0 58 0 std::__ndk1::__function::__func<geode::Task<geode::Result<void, std::__ndk1::basic_string<char, std::__ndk1::char_traits<char>, std::__ndk1::allocator<char> > >, std::__ndk1::monostate>::setListener(geode::EventListenerProtocol*)::{lambda()#1}, std::__ndk1::allocator<geode::Task<geode::Result<void, std::__ndk1::basic_string<char, std::__ndk1::char_traits<char>, std::__ndk1::allocator<char> > >, std::__ndk1::monostate>::setListener(geode::EventListenerProtocol*)::{lambda()#1}>, void ()>::__clone() const
FUNC 8ac48 4c 0 std::__ndk1::__function::__func<geode::Task<geode::Result<void, std::__ndk1::basic_string<char, std::__ndk1::char_traits<char>, std::__ndk1::allocator<char> > >, std::__ndk1::monostate>::setListener(geode::EventListenerProtocol*)::{lambda()#1}, std::__ndk1::allocator<geode::Task<geode::Result<void, std::__ndk1::basic_string<char, std::__ndk1::char_traits<char>, std::__ndk1::allocator<char> > >, std::__ndk1::monostate>::setListener(geode::EventListenerProtocol*)::{lambda()#1}>, void ()>::__clone(std::__ndk1::__function::__base<void ()>*) const
FUNC 8ac94 50 0 std::__ndk1::__function::__func<geode::Task<geode::Result<void, std::__ndk1::basic_string<char, std::__ndk1::char_traits<char>, std::__ndk1::allocator<char> > >, std::__ndk1::monostate>::setListener(geode::EventListenerProtocol*)::{lambda()#1}, std::__ndk1::allocator<geode::Task<geode::Result<void, std::__ndk1::basic_string<char, std::__ndk1::char_traits<char>, std::__ndk1::allocator<char> > >, std::__ndk1::monostate>::setListener(geode::EventListenerProtocol*)::{lambda()#1}>, void ()>::destroy()
FUNC 8ace4 50 0 std::__ndk1::__function::__func<geode::Task<geode::Result<void, std::__ndk1::basic_string<char, std::__ndk1::char_traits<char>, std::__ndk1::allocator<char> > >, std::__ndk1::monostate>::setListener(geode::EventListenerProtocol*)::{lambda()#1}, std::__ndk1::allocator<geode::Task<geode::Result<void, std::__ndk1::basic_string<char, std::__ndk1::char_traits<char>, std::__ndk1::allocator<char> > >, std::__ndk1::monostate>::setListener(geode::EventListenerProtocol*)::{lambda()#1}>, void ()>::destroy_deallocate()
FUNC 8ad34 198 0 std::__ndk1::__function::__func<geode::Task<geode::Result<void, std::__ndk1::basic_string<char, std::__ndk1::char_traits<char>, std::__ndk1::allocator<char> > >, std::__ndk1::monostate>::setListener(geode::EventListenerProtocol*)::{lambda()#1}, std::__ndk1::allocator<geode::Task<geode::Result<void, std::__ndk1::basic_string<char, std::__ndk1::char_traits<char>, std::__ndk1::allocator<char> > >, std::__ndk1::monostate>::setListener(geode::EventListenerProtocol*)::{lambda()#1}>, void ()>::operator()()
FUNC 8aecc 1c 0 std::__ndk1::__function::__func<geode::Task<geode::Result<void, std::__ndk1::basic_string<char, std::__ndk1::char_traits<char>, std::__ndk1::allocator<char> > >, std::__ndk1::monostate>::setListener(geode::EventListenerProtocol*)::{lambda()#1}, std::__ndk1::allocator<geode::Task<geode::Result<void, std::__ndk1::basic_string<char, std::__ndk1::char_traits<char>, std::__ndk1::allocator<char> > >, std::__ndk1::monostate>::setListener(geode::EventListenerProtocol*)::{lambda()#1}>, void ()>::target(std::type_info const&) const
FUNC 8aee8 c 0 std::__ndk1::__function::__func<geode::Task<geode::Result<void, std::__ndk1::basic_string<char, std::__ndk1::char_traits<char>, std::__ndk1::allocator<char> > >, std::__ndk1::monostate>::setListener(geode::EventListenerProtocol*)::{lambda()#1}, std::__ndk1::allocator<geode::Task<geode::Result<void, std::__ndk1::basic_string<char, std::__ndk1::char_traits<char>, std::__ndk1::allocator<char> > >, std::__ndk1::monostate>::setListener(geode::EventListenerProtocol*)::{lambda()#1}>, void ()>::target_type() const
FUNC 8aef4 50 0 std::__ndk1::shared_ptr<geode::Task<geode::Result<void, std::__ndk1::basic_string<char, std::__ndk1::char_traits<char>, std::__ndk1::allocator<char> > >, std::__ndk1::monostate>::Handle>::~shared_ptr[abi:ne180000]()
FUNC 8af44 50 0 geode::Task<geode::Result<void, std::__ndk1::basic_string<char, std::__ndk1::char_traits<char>, std::__ndk1::allocator<char> > >, std::__ndk1::monostate>::Event::~Event()
FUNC 8af94 58 0 geode::Task<geode::Result<void, std::__ndk1::basic_string<char, std::__ndk1::char_traits<char>, std::__ndk1::allocator<char> > >, std::__ndk1::monostate>::Event::~Event()
FUNC 8afec 5c 0 std::__ndk1::__function::__func<geode::Task<geode::Result<void, std::__ndk1::basic_string<char, std::__ndk1::char_traits<char>, std::__ndk1::allocator<char> > >, std::__ndk1::monostate>::setListener(geode::EventListenerProtocol*)::{lambda()#2}, std::__ndk1::allocator<geode::Task<geode::Result<void, std::__ndk1::basic_string<char, std::__ndk1::char_traits<char>, std::__ndk1::allocator<char> > >, std::__ndk1::monostate>::setListener(geode::EventListenerProtocol*)::{lambda()#2}>, void ()>::~__func()
FUNC 8b048 5c 0 std::__ndk1::__function::__func<geode::Task<geode::Result<void, std::__ndk1::basic_string<char, std::__ndk1::char_traits<char>, std::__ndk1::allocator<char> > >, std::__ndk1::monostate>::setListener(geode::EventListenerProtocol*)::{lambda()#2}, std::__ndk1::allocator<geode::Task<geode::Result<void, std::__ndk1::basic_string<char, std::__ndk1::char_traits<char>, std::__ndk1::allocator<char> > >, std::__ndk1::monostate>::setListener(geode::EventListenerProtocol*)::{lambda()#2}>, void ()>::~__func()
FUNC 8b0a4 58 0 std::__ndk1::__function::__func<geode::Task<geode::Result<void, std::__ndk1::basic_string<char, std::__ndk1::char_traits<char>, std::__ndk1::allocator<char> > >, std::__ndk1::monostate>::setListener(geode::EventListenerProtocol*)::{lambda()#2}, std::__ndk1::allocator<geode::Task<geode::Result<void, std::__ndk1::basic_string<char, std::__ndk1::char_traits<char>, std::__ndk1::allocator<char> > >, std::__ndk1::monostate>::setListener(geode::EventListenerProtocol*)::{lambda()#2}>, void ()>::__clone() const
FUNC 8b0fc 4c 0 std::__ndk1::__function::__func<geode::Task<geode::Result<void, std::__ndk1::basic_string<char, std::__ndk1::char_traits<char>, std::__ndk1::allocator<char> > >, std::__ndk1::monostate>::setListener(geode::EventListenerProtocol*)::{lambda()#2}, std::__ndk1::allocator<geode::Task<geode::Result<void, std::__ndk1::basic_string<char, std::__ndk1::char_traits<char>, std::__ndk1::allocator<char> > >, std::__ndk1::monostate>::setListener(geode::EventListenerProtocol*)::{lambda()#2}>, void ()>::__clone(std::__ndk1::__function::__base<void ()>*) const
FUNC 8b148 50 0 std::__ndk1::__function::__func<geode::Task<geode::Result<void, std::__ndk1::basic_string<char, std::__ndk1::char_traits<char>, std::__ndk1::allocator<char> > >, std::__ndk1::monostate>::setListener(geode::EventListenerProtocol*)::{lambda()#2}, std::__ndk1::allocator<geode::Task<geode::Result<void, std::__ndk1::basic_string<char, std::__ndk1::char_traits<char>, std::__ndk1::allocator<char> > >, std::__ndk1::monostate>::setListener(geode::EventListenerProtocol*)::{lambda()#2}>, void ()>::destroy()
FUNC 8b198 50 0 std::__ndk1::__function::__func<geode::Task<geode::Result<void, std::__ndk1::basic_string<char, std::__ndk1::char_traits<char>, std::__ndk1::allocator<char> > >, std::__ndk1::monostate>::setListener(geode::EventListenerProtocol*)::{lambda()#2}, std::__ndk1::allocator<geode::Task<geode::Result<void, std::__ndk1::basic_string<char, std::__ndk1::char_traits<char>, std::__ndk1::allocator<char> > >, std::__ndk1::monostate>::setListener(geode::EventListenerProtocol*)::{lambda()#2}>, void ()>::destroy_deallocate()
FUNC 8b1e8 188 0 std::__ndk1::__function::__func<geode::Task<geode::Result<void, std::__ndk1::basic_string<char, std::__ndk1::char_traits<char>, std::__ndk1::allocator<char> > >, std::__ndk1::monostate>::setListener(geode::EventListenerProtocol*)::{lambda()#2}, std::__ndk1::allocator<geode::Task<geode::Result<void, std::__ndk1::basic_string<char, std::__ndk1::char_traits<char>, std::__ndk1::allocator<char> > >, std::__ndk1::monostate>::setListener(geode::EventListenerProtocol*)::{lambda()#2}>, void ()>::operator()()
FUNC 8b370 1c 0 std::__ndk1::__function::__func<geode::Task<geode::Result<void, std::__ndk1::basic_string<char, std::__ndk1::char_traits<char>, std::__ndk1::allocator<char> > >, std::__ndk1::monostate>::setListener(geode::EventListenerProtocol*)::{lambda()#2}, std::__ndk1::allocator<geode::Task<geode::Result<void, std::__ndk1::basic_string<char, std::__ndk1::char_traits<char>, std::__ndk1::allocator<char> > >, std::__ndk1::monostate>::setListener(geode::EventListenerProtocol*)::{lambda()#2}>, void ()>::target(std::type_info const&) const
FUNC 8b38c c 0 std::__ndk1::__function::__func<geode::Task<geode::Result<void, std::__ndk1::basic_string<char, std::__ndk1::char_traits<char>, std::__ndk1::allocator<char> > >, std::__ndk1::monostate>::setListener(geode::EventListenerProtocol*)::{lambda()#2}, std::__ndk1::allocator<geode::Task<geode::Result<void, std::__ndk1::basic_string<char, std::__ndk1::char_traits<char>, std::__ndk1::allocator<char> > >, std::__ndk1::monostate>::setListener(geode::EventListenerProtocol*)::{lambda()#2}>, void ()>::target_type() const
FUNC 8b398 50 0 std::__ndk1::shared_ptr<geode::Task<geode::Result<std::__ndk1::vector<DeathInfo_s, std::__ndk1::allocator<DeathInfo_s> >, std::__ndk1::basic_string<char, std::__ndk1::char_traits<char>, std::__ndk1::allocator<char> > >, std::__ndk1::monostate>::Handle>::~shared_ptr[abi:ne180000]()
FUNC 8b3e8 7c 0 std::__ndk1::__split_buffer<LabelLayout, std::__ndk1::allocator<LabelLayout>&>::~__split_buffer()
FUNC 8b464 14 0 std::__ndk1::vector<LabelLayout, std::__ndk1::allocator<LabelLayout> >::__throw_length_error[abi:ne180000]() const
FUNC 8b478 14 0 std::__ndk1::vector<LabelLayoutWindow*, std::__ndk1::allocator<LabelLayoutWindow*> >::__throw_length_error[abi:ne180000]() const
FUNC 8b48c 9b4 0 std::__ndk1::__introsort<std::__ndk1::_RangeAlgPolicy, DTLayer::changeScrollSizeByBoxes(bool const&)::$_0&, LabelLayoutWindow**, false>(LabelLayoutWindow**, LabelLayoutWindow**, DTLayer::changeScrollSizeByBoxes(bool const&)::$_0&, std::__ndk1::iterator_traits<LabelLayoutWindow**>::difference_type, bool)
FUNC 8be40 174 0 _ZNSt6__ndk124__sort5_maybe_branchlessB8ne180000INS_15_RangeAlgPolicyERZN7DTLayer23changeScrollSizeByBoxesERKbE3$_0PP17LabelLayoutWindowTnNS_9enable_ifIXntsr21__use_branchless_sortIT0_T1_EE5valueEiE4typeELi0EEEvSC_SC_SC_SC_SC_SB_
FUNC 8bfb4 2f8 0 std::__ndk1::__insertion_sort_incomplete[abi:ne180000]<std::__ndk1::_RangeAlgPolicy, DTLayer::changeScrollSizeByBoxes(bool const&)::$_0&, LabelLayoutWindow**>(LabelLayoutWindow**, LabelLayoutWindow**, DTLayer::changeScrollSizeByBoxes(bool const&)::$_0&)
FUNC 8c2ac 14 0 std::__ndk1::vector<cocos2d::CCNode*, std::__ndk1::allocator<cocos2d::CCNode*> >::__throw_length_error[abi:ne180000]() const
FUNC 8c2c0 14 0 std::__ndk1::vector<std::__ndk1::tuple<geode::SimpleTextArea*, int, int>, std::__ndk1::allocator<std::__ndk1::tuple<geode::SimpleTextArea*, int, int> > >::__throw_length_error[abi:ne180000]() const
FUNC 8c2d4 34 0 std::__ndk1::basic_string<char, std::__ndk1::char_traits<char>, std::__ndk1::allocator<char> >::__assign_external(char const*)
FUNC 8c308 3c 0 std::__ndk1::__tree<std::__ndk1::__value_type<int, bool>, std::__ndk1::__map_value_compare<int, std::__ndk1::__value_type<int, bool>, std::__ndk1::less<int>, true>, std::__ndk1::allocator<std::__ndk1::__value_type<int, bool> > >::destroy(std::__ndk1::__tree_node<std::__ndk1::__value_type<int, bool>, void*>*)
FUNC 8c344 4 0 std::__ndk1::__variant_detail::__visitation::__base::__dispatcher<(unsigned long)0>::__dispatch[abi:ne180000]<std::__ndk1::__variant_detail::__dtor<std::__ndk1::__variant_detail::__traits<float, std::__ndk1::basic_string<char, std::__ndk1::char_traits<char>, std::__ndk1::allocator<char> > >, (std::__ndk1::__variant_detail::_Trait)1>::__destroy[abi:ne180000]()::{lambda(auto:1&)#1}, std::__ndk1::__variant_detail::__base<(std::__ndk1::__variant_detail::__traits<float, std::__ndk1::basic_string<char, std::__ndk1::char_traits<char>, std::__ndk1::allocator<char> > >)1, float, std::__ndk1::allocator<char> >&>(std::__ndk1::__variant_detail::__dtor<std::__ndk1::__variant_detail::__traits<float, std::__ndk1::basic_string<char, std::__ndk1::char_traits<char>, std::__ndk1::allocator<char> > >, (std::__ndk1::__variant_detail::_Trait)1>, std::__ndk1::__variant_detail::__base<(std::__ndk1::__variant_detail::__traits<float, std::__ndk1::basic_string<char, std::__ndk1::char_traits<char>, std::__ndk1::allocator<char> > >)1, float, std::__ndk1::allocator<char> >&)
FUNC 8c348 14 0 std::__ndk1::__variant_detail::__visitation::__base::__dispatcher<(unsigned long)1>::__dispatch[abi:ne180000]<std::__ndk1::__variant_detail::__dtor<std::__ndk1::__variant_detail::__traits<float, std::__ndk1::basic_string<char, std::__ndk1::char_traits<char>, std::__ndk1::allocator<char> > >, (std::__ndk1::__variant_detail::_Trait)1>::__destroy[abi:ne180000]()::{lambda(auto:1&)#1}, std::__ndk1::__variant_detail::__base<(std::__ndk1::__variant_detail::__traits<float, std::__ndk1::basic_string<char, std::__ndk1::char_traits<char>, std::__ndk1::allocator<char> > >)1, float, std::__ndk1::allocator<char> >&>(std::__ndk1::__variant_detail::__dtor<std::__ndk1::__variant_detail::__traits<float, std::__ndk1::basic_string<char, std::__ndk1::char_traits<char>, std::__ndk1::allocator<char> > >, (std::__ndk1::__variant_detail::_Trait)1>, std::__ndk1::__variant_detail::__base<(std::__ndk1::__variant_detail::__traits<float, std::__ndk1::basic_string<char, std::__ndk1::char_traits<char>, std::__ndk1::allocator<char> > >)1, float, std::__ndk1::allocator<char> >&)
FUNC 8c35c 98 0 std::__ndk1::__exception_guard_exceptions<std::__ndk1::vector<LabelLayout, std::__ndk1::allocator<LabelLayout> >::__destroy_vector>::~__exception_guard_exceptions[abi:ne180000]()
FUNC 8c3f4 134 0 std::__ndk1::__uninitialized_allocator_copy_impl[abi:ne180000]<std::__ndk1::allocator<LabelLayout>, std::__ndk1::allocator const*, std::__ndk1::allocator const, std::__ndk1::allocator*>(std::__ndk1::allocator<LabelLayout>&, std::__ndk1::allocator const*, std::__ndk1::allocator const, std::__ndk1::allocator*)
FUNC 8c528 64 0 std::__ndk1::__exception_guard_exceptions<std::__ndk1::_AllocatorDestroyRangeReverse<std::__ndk1::allocator<LabelLayout>, LabelLayout*> >::~__exception_guard_exceptions[abi:ne180000]()
FUNC 8c58c 2d4 0 std::__ndk1::__tree<std::__ndk1::__value_type<std::__ndk1::basic_string<char, std::__ndk1::char_traits<char>, std::__ndk1::allocator<char> >, int>, std::__ndk1::__map_value_compare<std::__ndk1::basic_string<char, std::__ndk1::char_traits<char>, std::__ndk1::allocator<char> >, std::__ndk1::__value_type<std::__ndk1::basic_string<char, std::__ndk1::char_traits<char>, std::__ndk1::allocator<char> >, int>, std::__ndk1::less<std::__ndk1::basic_string<char, std::__ndk1::char_traits<char>, std::__ndk1::allocator<char> > >, true>, std::__ndk1::allocator<std::__ndk1::__value_type<std::__ndk1::basic_string<char, std::__ndk1::char_traits<char>, std::__ndk1::allocator<char> >, int> > >::__assign_multi<std::__ndk1::__tree_const_iterator<std::__ndk1::__value_type<std::__ndk1::basic_string<char, std::__ndk1::char_traits<char>, std::__ndk1::allocator<char> >, int>, std::__ndk1::__tree_node<std::__ndk1::__value_type<std::__ndk1::basic_string<char, std::__ndk1::char_traits<char>, std::__ndk1::allocator<char> >, int>, void*>*, long> >(std::__ndk1::__tree_const_iterator<std::__ndk1::__value_type<std::__ndk1::basic_string<char, std::__ndk1::char_traits<char>, std::__ndk1::allocator<char> >, int>, std::__ndk1::__tree_node<std::__ndk1::__value_type<std::__ndk1::basic_string<char, std::__ndk1::char_traits<char>, std::__ndk1::allocator<char> >, int>, void*>*, long>, std::__ndk1::__tree_const_iterator<std::__ndk1::__value_type<std::__ndk1::basic_string<char, std::__ndk1::char_traits<char>, std::__ndk1::allocator<char> >, int>, std::__ndk1::__tree_node<std::__ndk1::__value_type<std::__ndk1::basic_string<char, std::__ndk1::char_traits<char>, std::__ndk1::allocator<char> >, int>, void*>*, long>)
FUNC 8c860 108 0 std::__ndk1::__tree<std::__ndk1::__value_type<std::__ndk1::basic_string<char, std::__ndk1::char_traits<char>, std::__ndk1::allocator<char> >, int>, std::__ndk1::__map_value_compare<std::__ndk1::basic_string<char, std::__ndk1::char_traits<char>, std::__ndk1::allocator<char> >, std::__ndk1::__value_type<std::__ndk1::basic_string<char, std::__ndk1::char_traits<char>, std::__ndk1::allocator<char> >, int>, std::__ndk1::less<std::__ndk1::basic_string<char, std::__ndk1::char_traits<char>, std::__ndk1::allocator<char> > >, true>, std::__ndk1::allocator<std::__ndk1::__value_type<std::__ndk1::basic_string<char, std::__ndk1::char_traits<char>, std::__ndk1::allocator<char> >, int> > >::__node_insert_multi(std::__ndk1::__tree_node<std::__ndk1::__value_type<std::__ndk1::basic_string<char, std::__ndk1::char_traits<char>, std::__ndk1::allocator<char> >, int>, void*>*)
FUNC 8c968 58 0 std::__ndk1::__tree<std::__ndk1::__value_type<std::__ndk1::basic_string<char, std::__ndk1::char_traits<char>, std::__ndk1::allocator<char> >, int>, std::__ndk1::__map_value_compare<std::__ndk1::basic_string<char, std::__ndk1::char_traits<char>, std::__ndk1::allocator<char> >, std::__ndk1::__value_type<std::__ndk1::basic_string<char, std::__ndk1::char_traits<char>, std::__ndk1::allocator<char> >, int>, std::__ndk1::less<std::__ndk1::basic_string<char, std::__ndk1::char_traits<char>, std::__ndk1::allocator<char> > >, true>, std::__ndk1::allocator<std::__ndk1::__value_type<std::__ndk1::basic_string<char, std::__ndk1::char_traits<char>, std::__ndk1::allocator<char> >, int> > >::_DetachedTreeCache::~_DetachedTreeCache[abi:ne180000]()
FUNC 8c9c0 19c 0 std::__ndk1::__tree<std::__ndk1::__value_type<std::__ndk1::basic_string<char, std::__ndk1::char_traits<char>, std::__ndk1::allocator<char> >, int>, std::__ndk1::__map_value_compare<std::__ndk1::basic_string<char, std::__ndk1::char_traits<char>, std::__ndk1::allocator<char> >, std::__ndk1::__value_type<std::__ndk1::basic_string<char, std::__ndk1::char_traits<char>, std::__ndk1::allocator<char> >, int>, std::__ndk1::less<std::__ndk1::basic_string<char, std::__ndk1::char_traits<char>, std::__ndk1::allocator<char> > >, true>, std::__ndk1::allocator<std::__ndk1::__value_type<std::__ndk1::basic_string<char, std::__ndk1::char_traits<char>, std::__ndk1::allocator<char> >, int> > >::__emplace_multi<std::__ndk1::pair<std::__ndk1::basic_string<char, std::__ndk1::char_traits<char>, std::__ndk1::allocator<char> > const, int> const&>(std::__ndk1::pair<std::__ndk1::basic_string<char, std::__ndk1::char_traits<char>, std::__ndk1::allocator<char> > const, int> const&)
FUNC 8cb5c 2fc 0 std::__ndk1::__tree<int, std::__ndk1::less<int>, std::__ndk1::allocator<int> >::__assign_multi<std::__ndk1::__tree_const_iterator<int, std::__ndk1::__tree_node<int, void*>*, long> >(std::__ndk1::__tree_const_iterator<int, std::__ndk1::__tree_node<int, void*>*, long>, std::__ndk1::__tree_const_iterator<int, std::__ndk1::__tree_node<int, void*>*, long>)
FUNC 8ce58 3b8 0 std::__ndk1::vector<Session, std::__ndk1::allocator<Session> >::__assign_with_size[abi:ne180000]<Session*, std::__ndk1::vector<Session, std::__ndk1::allocator<Session> >::__assign_with_size[abi:ne180000]>(Session*, std::__ndk1::vector<Session, std::__ndk1::allocator<Session> >::__assign_with_size[abi:ne180000], long)
FUNC 8d210 70 0 std::__ndk1::__exception_guard_exceptions<std::__ndk1::_AllocatorDestroyRangeReverse<std::__ndk1::allocator<Session>, Session*> >::~__exception_guard_exceptions[abi:ne180000]()
FUNC 8d280 14 0 std::__ndk1::vector<Session, std::__ndk1::allocator<Session> >::__throw_length_error[abi:ne180000]() const
FUNC 8d294 130 0 std::__ndk1::vector<int, std::__ndk1::allocator<int> >::__assign_with_size[abi:ne180000]<int*, std::__ndk1::vector<int, std::__ndk1::allocator<int> >::__assign_with_size[abi:ne180000]>(int*, std::__ndk1::vector<int, std::__ndk1::allocator<int> >::__assign_with_size[abi:ne180000], long)
FUNC 8d3c4 3d8 0 std::__ndk1::vector<std::__ndk1::basic_string<char, std::__ndk1::char_traits<char>, std::__ndk1::allocator<char> >, std::__ndk1::allocator<std::__ndk1::basic_string<char, std::__ndk1::char_traits<char>, std::__ndk1::allocator<char> > > >::__assign_with_size[abi:ne180000]<std::__ndk1::basic_string<char, std::__ndk1::char_traits<char>, std::__ndk1::allocator<char> >*, std::__ndk1::vector<std::__ndk1::basic_string<char, std::__ndk1::char_traits<char>, std::__ndk1::allocator<char> >, std::__ndk1::allocator<std::__ndk1::basic_string<char, std::__ndk1::char_traits<char>, std::__ndk1::allocator<char> > > >::__assign_with_size[abi:ne180000]>(std::__ndk1::basic_string<char, std::__ndk1::char_traits<char>, std::__ndk1::allocator<char> >*, std::__ndk1::vector<std::__ndk1::basic_string<char, std::__ndk1::char_traits<char>, std::__ndk1::allocator<char> >, std::__ndk1::allocator<std::__ndk1::basic_string<char, std::__ndk1::char_traits<char>, std::__ndk1::allocator<char> > > >::__assign_with_size[abi:ne180000], long)
FUNC 8d79c 60 0 std::__ndk1::__exception_guard_exceptions<std::__ndk1::_AllocatorDestroyRangeReverse<std::__ndk1::allocator<std::__ndk1::basic_string<char, std::__ndk1::char_traits<char>, std::__ndk1::allocator<char> > >, std::__ndk1::basic_string<char, std::__ndk1::char_traits<char>, std::__ndk1::allocator<char> >*> >::~__exception_guard_exceptions[abi:ne180000]()
FUNC 8d7fc 8 0 std::__ndk1::__variant_detail::__visitation::__base::__dispatcher<(unsigned long)0>::__dispatch[abi:ne180000]<std::__ndk1::__variant_detail::__dtor<std::__ndk1::__variant_detail::__traits<LevelStats_s, std::__ndk1::basic_string<char, std::__ndk1::char_traits<char>, std::__ndk1::allocator<char> > >, (std::__ndk1::__variant_detail::_Trait)1>::__destroy[abi:ne180000]()::{lambda(auto:1&)#1}, std::__ndk1::__variant_detail::__base<(std::__ndk1::__variant_detail::__traits<LevelStats_s, std::__ndk1::basic_string<char, std::__ndk1::char_traits<char>, std::__ndk1::allocator<char> > >)1, std::__ndk1::__variant_detail::__traits, std::__ndk1::allocator<char> >&>(std::__ndk1::__variant_detail::__dtor<std::__ndk1::__variant_detail::__traits<LevelStats_s, std::__ndk1::basic_string<char, std::__ndk1::char_traits<char>, std::__ndk1::allocator<char> > >, (std::__ndk1::__variant_detail::_Trait)1>, std::__ndk1::__variant_detail::__base<(std::__ndk1::__variant_detail::__traits<LevelStats_s, std::__ndk1::basic_string<char, std::__ndk1::char_traits<char>, std::__ndk1::allocator<char> > >)1, std::__ndk1::__variant_detail::__traits, std::__ndk1::allocator<char> >&)
FUNC 8d804 14 0 std::__ndk1::__variant_detail::__visitation::__base::__dispatcher<(unsigned long)1>::__dispatch[abi:ne180000]<std::__ndk1::__variant_detail::__dtor<std::__ndk1::__variant_detail::__traits<LevelStats_s, std::__ndk1::basic_string<char, std::__ndk1::char_traits<char>, std::__ndk1::allocator<char> > >, (std::__ndk1::__variant_detail::_Trait)1>::__destroy[abi:ne180000]()::{lambda(auto:1&)#1}, std::__ndk1::__variant_detail::__base<(std::__ndk1::__variant_detail::__traits<LevelStats_s, std::__ndk1::basic_string<char, std::__ndk1::char_traits<char>, std::__ndk1::allocator<char> > >)1, std::__ndk1::__variant_detail::__traits, std::__ndk1::allocator<char> >&>(std::__ndk1::__variant_detail::__dtor<std::__ndk1::__variant_detail::__traits<LevelStats_s, std::__ndk1::basic_string<char, std::__ndk1::char_traits<char>, std::__ndk1::allocator<char> > >, (std::__ndk1::__variant_detail::_Trait)1>, std::__ndk1::__variant_detail::__base<(std::__ndk1::__variant_detail::__traits<LevelStats_s, std::__ndk1::basic_string<char, std::__ndk1::char_traits<char>, std::__ndk1::allocator<char> > >)1, std::__ndk1::__variant_detail::__traits, std::__ndk1::allocator<char> >&)
FUNC 8d818 80 0 std::__ndk1::__split_buffer<Session, std::__ndk1::allocator<Session>&>::~__split_buffer()
FUNC 8d898 99c 0 std::__ndk1::__introsort<std::__ndk1::_RangeAlgPolicy, DTLayer::UpdateSharedStats()::$_0&, int*, false>(int*, int*, DTLayer::UpdateSharedStats()::$_0&, std::__ndk1::iterator_traits<int*>::difference_type, bool)
FUNC 8e234 3b8 0 std::__ndk1::__insertion_sort_incomplete[abi:ne180000]<std::__ndk1::_RangeAlgPolicy, DTLayer::UpdateSharedStats()::$_0&, int*>(int*, int*, DTLayer::UpdateSharedStats()::$_0&)
FUNC 8e5ec 99c 0 std::__ndk1::__introsort<std::__ndk1::_RangeAlgPolicy, DTLayer::UpdateSharedStats()::$_1&, int*, false>(int*, int*, DTLayer::UpdateSharedStats()::$_1&, std::__ndk1::iterator_traits<int*>::difference_type, bool)
FUNC 8ef88 3b8 0 std::__ndk1::__insertion_sort_incomplete[abi:ne180000]<std::__ndk1::_RangeAlgPolicy, DTLayer::UpdateSharedStats()::$_1&, int*>(int*, int*, DTLayer::UpdateSharedStats()::$_1&)
FUNC 8f340 1c68 0 std::__ndk1::__introsort<std::__ndk1::_RangeAlgPolicy, DTLayer::UpdateSharedStats()::$_2&, Session*, false>(Session*, Session*, DTLayer::UpdateSharedStats()::$_2&, std::__ndk1::iterator_traits<Session*>::difference_type, bool)
FUNC 90fa8 2f0 0 _ZNSt6__ndk124__sort5_maybe_branchlessB8ne180000INS_15_RangeAlgPolicyERZN7DTLayer17UpdateSharedStatsEvE3$_2P7SessionTnNS_9enable_ifIXntsr21__use_branchless_sortIT0_T1_EE5valueEiE4typeELi0EEEvS9_S9_S9_S9_S9_S8_
FUNC 91298 364 0 std::__ndk1::__sort3[abi:ne180000]<std::__ndk1::_RangeAlgPolicy, DTLayer::UpdateSharedStats()::$_2&, Session*>(Session*, Session*, Session*, DTLayer::UpdateSharedStats()::$_2&)
FUNC 915fc 72c 0 std::__ndk1::__partition_with_equals_on_left[abi:ne180000]<std::__ndk1::_RangeAlgPolicy, Session*, DTLayer::UpdateSharedStats()::$_2&>(DTLayer::UpdateSharedStats()::$_2&, DTLayer::UpdateSharedStats()::$_2&, DTLayer::UpdateSharedStats()::$_2&)
FUNC 91d28 6c0 0 std::__ndk1::__partition_with_equals_on_right[abi:ne180000]<std::__ndk1::_RangeAlgPolicy, Session*, DTLayer::UpdateSharedStats()::$_2&>(std::__ndk1::pair, std::__ndk1::pair, DTLayer::UpdateSharedStats()::$_2&)
FUNC 923e8 624 0 std::__ndk1::__insertion_sort_incomplete[abi:ne180000]<std::__ndk1::_RangeAlgPolicy, DTLayer::UpdateSharedStats()::$_2&, Session*>(Session*, Session*, DTLayer::UpdateSharedStats()::$_2&)
FUNC 92a0c 254 0 std::__ndk1::__sort4[abi:ne180000]<std::__ndk1::_RangeAlgPolicy, DTLayer::UpdateSharedStats()::$_2&, Session*>(Session*, Session*, Session*, Session*, DTLayer::UpdateSharedStats()::$_2&)
FUNC 92c60 2f4 0 geode::Popup<GJGameLevel* const&>::initBase(float, float, GJGameLevel* const&, char const*, cocos2d::CCRect, bool)
FUNC 92f54 1d4 0 geode::Task<geode::Result<void, std::__ndk1::basic_string<char, std::__ndk1::char_traits<char>, std::__ndk1::allocator<char> > >, std::__ndk1::monostate>::finish(std::__ndk1::shared_ptr<geode::Task<geode::Result<void, std::__ndk1::basic_string<char, std::__ndk1::char_traits<char>, std::__ndk1::allocator<char> > >, std::__ndk1::monostate>::Handle>, geode::Result<void, std::__ndk1::basic_string<char, std::__ndk1::char_traits<char>, std::__ndk1::allocator<char> > >&&)
FUNC 93128 10 0 std::__ndk1::__shared_ptr_emplace<geode::Task<geode::Result<void, std::__ndk1::basic_string<char, std::__ndk1::char_traits<char>, std::__ndk1::allocator<char> > >, std::__ndk1::monostate>::Handle, std::__ndk1::allocator<geode::Task<geode::Result<void, std::__ndk1::basic_string<char, std::__ndk1::char_traits<char>, std::__ndk1::allocator<char> > >, std::__ndk1::monostate>::Handle> >::~__shared_ptr_emplace()
FUNC 93138 30 0 std::__ndk1::__shared_ptr_emplace<geode::Task<geode::Result<void, std::__ndk1::basic_string<char, std::__ndk1::char_traits<char>, std::__ndk1::allocator<char> > >, std::__ndk1::monostate>::Handle, std::__ndk1::allocator<geode::Task<geode::Result<void, std::__ndk1::basic_string<char, std::__ndk1::char_traits<char>, std::__ndk1::allocator<char> > >, std::__ndk1::monostate>::Handle> >::~__shared_ptr_emplace()
FUNC 93168 e8 0 std::__ndk1::__shared_ptr_emplace<geode::Task<geode::Result<void, std::__ndk1::basic_string<char, std::__ndk1::char_traits<char>, std::__ndk1::allocator<char> > >, std::__ndk1::monostate>::Handle, std::__ndk1::allocator<geode::Task<geode::Result<void, std::__ndk1::basic_string<char, std::__ndk1::char_traits<char>, std::__ndk1::allocator<char> > >, std::__ndk1::monostate>::Handle> >::__on_zero_shared()
FUNC 93250 4 0 std::__ndk1::__shared_ptr_emplace<geode::Task<geode::Result<void, std::__ndk1::basic_string<char, std::__ndk1::char_traits<char>, std::__ndk1::allocator<char> > >, std::__ndk1::monostate>::Handle, std::__ndk1::allocator<geode::Task<geode::Result<void, std::__ndk1::basic_string<char, std::__ndk1::char_traits<char>, std::__ndk1::allocator<char> > >, std::__ndk1::monostate>::Handle> >::__on_zero_shared_weak()
FUNC 93254 cc 0 geode::Task<geode::Result<void, std::__ndk1::basic_string<char, std::__ndk1::char_traits<char>, std::__ndk1::allocator<char> > >, std::__ndk1::monostate>::Handle::Handle(geode::Task<geode::Result<void, std::__ndk1::basic_string<char, std::__ndk1::char_traits<char>, std::__ndk1::allocator<char> > >, std::__ndk1::monostate>::Handle::PrivateMarker, std::__ndk1::basic_string_view<char, std::__ndk1::char_traits<char> >)
FUNC 93320 7c 0 std::__ndk1::__optional_destruct_base<geode::Result<void, std::__ndk1::basic_string<char, std::__ndk1::char_traits<char>, std::__ndk1::allocator<char> > >, false>::~__optional_destruct_base[abi:ne180000]()
FUNC 9339c 50 0 geode::Task<geode::Result<void, std::__ndk1::basic_string<char, std::__ndk1::char_traits<char>, std::__ndk1::allocator<char> > >, std::__ndk1::monostate>::finish(std::__ndk1::shared_ptr<geode::Task<geode::Result<void, std::__ndk1::basic_string<char, std::__ndk1::char_traits<char>, std::__ndk1::allocator<char> > >, std::__ndk1::monostate>::Handle>, geode::Result<void, std::__ndk1::basic_string<char, std::__ndk1::char_traits<char>, std::__ndk1::allocator<char> > >&&)::{lambda()#1}::~{lambda()#1}()
FUNC 933ec 4 0 std::__ndk1::__variant_detail::__visitation::__base::__dispatcher<(unsigned long)0, (unsigned long)0>::__dispatch[abi:ne180000]<std::__ndk1::__variant_detail::__ctor<std::__ndk1::__variant_detail::__traits<std::__ndk1::monostate, std::__ndk1::basic_string<char, std::__ndk1::char_traits<char>, std::__ndk1::allocator<char> > > >::__generic_construct[abi:ne180000]<std::__ndk1::__variant_detail::__move_constructor<std::__ndk1::basic_string<char, std::__ndk1::char_traits<char>, std::__ndk1::allocator<char> >, (std::__ndk1::__variant_detail::_Trait)1> >(std::__ndk1::__variant_detail::__traits<std::__ndk1::monostate, std::__ndk1::basic_string<char, std::__ndk1::char_traits<char>, std::__ndk1::allocator<char> > >&, std::__ndk1::__variant_detail::__move_constructor<std::__ndk1::basic_string<char, std::__ndk1::char_traits<char>, std::__ndk1::allocator<char> >, (std::__ndk1::__variant_detail::_Trait)1>&&)::{lambda(std::__ndk1::__variant_detail::__move_constructor<std::__ndk1::basic_string<char, std::__ndk1::char_traits<char>, std::__ndk1::allocator<char> >, (std::__ndk1::__variant_detail::_Trait)1>&, auto:2&&)#1}, std::__ndk1::__variant_detail::__base<(std::__ndk1::__variant_detail::__ctor<std::__ndk1::__variant_detail::__traits<std::__ndk1::monostate, std::__ndk1::basic_string<char, std::__ndk1::char_traits<char>, std::__ndk1::allocator<char> > > >::__generic_construct[abi:ne180000])1, std::__ndk1::__variant_detail::__traits, std::__ndk1::allocator<char> >&, std::__ndk1::__variant_detail::__ctor<std::__ndk1::__variant_detail::__traits<std::__ndk1::monostate, std::__ndk1::basic_string<char, std::__ndk1::char_traits<char>, std::__ndk1::allocator<char> > > >::__generic_construct[abi:ne180000]<std::__ndk1::__variant_detail::__move_constructor<std::__ndk1::basic_string<char, std::__ndk1::char_traits<char>, std::__ndk1::allocator<char> >, (std::__ndk1::__variant_detail::_Trait)1> >(std::__ndk1::__variant_detail::__traits<std::__ndk1::monostate, std::__ndk1::basic_string<char, std::__ndk1::char_traits<char>, std::__ndk1::allocator<char> > >&, std::__ndk1::__variant_detail::__move_constructor<std::__ndk1::basic_string<char, std::__ndk1::char_traits<char>, std::__ndk1::allocator<char> >, (std::__ndk1::__variant_detail::_Trait)1>&&)::{lambda(std::__ndk1::__variant_detail::__move_constructor<std::__ndk1::basic_string<char, std::__ndk1::char_traits<char>, std::__ndk1::allocator<char> >, (std::__ndk1::__variant_detail::_Trait)1>&, auto:2&&)#1}>(std::__ndk1::__variant_detail::__move_constructor<std::__ndk1::basic_string<char, std::__ndk1::char_traits<char>, std::__ndk1::allocator<char> >, (std::__ndk1::__variant_detail::_Trait)1>, std::__ndk1::__variant_detail::__base<(std::__ndk1::__variant_detail::__ctor<std::__ndk1::__variant_detail::__traits<std::__ndk1::monostate, std::__ndk1::basic_string<char, std::__ndk1::char_traits<char>, std::__ndk1::allocator<char> > > >::__generic_construct[abi:ne180000])1, std::__ndk1::__variant_detail::__traits, std::__ndk1::allocator<char> >&, std::__ndk1::__variant_detail::__ctor<std::__ndk1::__variant_detail::__traits<std::__ndk1::monostate, std::__ndk1::basic_string<char, std::__ndk1::char_traits<char>, std::__ndk1::allocator<char> > > >::__generic_construct[abi:ne180000]<std::__ndk1::__variant_detail::__move_constructor<std::__ndk1::basic_string<char, std::__ndk1::char_traits<char>, std::__ndk1::allocator<char> >, (std::__ndk1::__variant_detail::_Trait)1> >(std::__ndk1::__variant_detail::__traits<std::__ndk1::monostate, std::__ndk1::basic_string<char, std::__ndk1::char_traits<char>, std::__ndk1::allocator<char> > >&, std::__ndk1::__variant_detail::__move_constructor<std::__ndk1::basic_string<char, std::__ndk1::char_traits<char>, std::__ndk1::allocator<char> >, (std::__ndk1::__variant_detail::_Trait)1>&&)::{lambda(std::__ndk1::__variant_detail::__move_constructor<std::__ndk1::basic_string<char, std::__ndk1::char_traits<char>, std::__ndk1::allocator<char> >, (std::__ndk1::__variant_detail::_Trait)1>&, auto:2&&)#1})
FUNC 933f0 1c 0 std::__ndk1::__variant_detail::__visitation::__base::__dispatcher<(unsigned long)1, (unsigned long)1>::__dispatch[abi:ne180000]<std::__ndk1::__variant_detail::__ctor<std::__ndk1::__variant_detail::__traits<std::__ndk1::monostate, std::__ndk1::basic_string<char, std::__ndk1::char_traits<char>, std::__ndk1::allocator<char> > > >::__generic_construct[abi:ne180000]<std::__ndk1::__variant_detail::__move_constructor<std::__ndk1::basic_string<char, std::__ndk1::char_traits<char>, std::__ndk1::allocator<char> >, (std::__ndk1::__variant_detail::_Trait)1> >(std::__ndk1::__variant_detail::__traits<std::__ndk1::monostate, std::__ndk1::basic_string<char, std::__ndk1::char_traits<char>, std::__ndk1::allocator<char> > >&, std::__ndk1::__variant_detail::__move_constructor<std::__ndk1::basic_string<char, std::__ndk1::char_traits<char>, std::__ndk1::allocator<char> >, (std::__ndk1::__variant_detail::_Trait)1>&&)::{lambda(std::__ndk1::__variant_detail::__move_constructor<std::__ndk1::basic_string<char, std::__ndk1::char_traits<char>, std::__ndk1::allocator<char> >, (std::__ndk1::__variant_detail::_Trait)1>&, auto:2&&)#1}, std::__ndk1::__variant_detail::__base<(std::__ndk1::__variant_detail::__ctor<std::__ndk1::__variant_detail::__traits<std::__ndk1::monostate, std::__ndk1::basic_string<char, std::__ndk1::char_traits<char>, std::__ndk1::allocator<char> > > >::__generic_construct[abi:ne180000])1, std::__ndk1::__variant_detail::__traits, std::__ndk1::allocator<char> >&, std::__ndk1::__variant_detail::__ctor<std::__ndk1::__variant_detail::__traits<std::__ndk1::monostate, std::__ndk1::basic_string<char, std::__ndk1::char_traits<char>, std::__ndk1::allocator<char> > > >::__generic_construct[abi:ne180000]<std::__ndk1::__variant_detail::__move_constructor<std::__ndk1::basic_string<char, std::__ndk1::char_traits<char>, std::__ndk1::allocator<char> >, (std::__ndk1::__variant_detail::_Trait)1> >(std::__ndk1::__variant_detail::__traits<std::__ndk1::monostate, std::__ndk1::basic_string<char, std::__ndk1::char_traits<char>, std::__ndk1::allocator<char> > >&, std::__ndk1::__variant_detail::__move_constructor<std::__ndk1::basic_string<char, std::__ndk1::char_traits<char>, std::__ndk1::allocator<char> >, (std::__ndk1::__variant_detail::_Trait)1>&&)::{lambda(std::__ndk1::__variant_detail::__move_constructor<std::__ndk1::basic_string<char, std::__ndk1::char_traits<char>, std::__ndk1::allocator<char> >, (std::__ndk1::__variant_detail::_Trait)1>&, auto:2&&)#1}>(std::__ndk1::__variant_detail::__move_constructor<std::__ndk1::basic_string<char, std::__ndk1::char_traits<char>, std::__ndk1::allocator<char> >, (std::__ndk1::__variant_detail::_Trait)1>, std::__ndk1::__variant_detail::__base<(std::__ndk1::__variant_detail::__ctor<std::__ndk1::__variant_detail::__traits<std::__ndk1::monostate, std::__ndk1::basic_string<char, std::__ndk1::char_traits<char>, std::__ndk1::allocator<char> > > >::__generic_construct[abi:ne180000])1, std::__ndk1::__variant_detail::__traits, std::__ndk1::allocator<char> >&, std::__ndk1::__variant_detail::__ctor<std::__ndk1::__variant_detail::__traits<std::__ndk1::monostate, std::__ndk1::basic_string<char, std::__ndk1::char_traits<char>, std::__ndk1::allocator<char> > > >::__generic_construct[abi:ne180000]<std::__ndk1::__variant_detail::__move_constructor<std::__ndk1::basic_string<char, std::__ndk1::char_traits<char>, std::__ndk1::allocator<char> >, (std::__ndk1::__variant_detail::_Trait)1> >(std::__ndk1::__variant_detail::__traits<std::__ndk1::monostate, std::__ndk1::basic_string<char, std::__ndk1::char_traits<char>, std::__ndk1::allocator<char> > >&, std::__ndk1::__variant_detail::__move_constructor<std::__ndk1::basic_string<char, std::__ndk1::char_traits<char>, std::__ndk1::allocator<char> >, (std::__ndk1::__variant_detail::_Trait)1>&&)::{lambda(std::__ndk1::__variant_detail::__move_constructor<std::__ndk1::basic_string<char, std::__ndk1::char_traits<char>, std::__ndk1::allocator<char> >, (std::__ndk1::__variant_detail::_Trait)1>&, auto:2&&)#1})
FUNC 9340c 5c 0 std::__ndk1::__function::__func<geode::Task<geode::Result<void, std::__ndk1::basic_string<char, std::__ndk1::char_traits<char>, std::__ndk1::allocator<char> > >, std::__ndk1::monostate>::finish(std::__ndk1::shared_ptr<geode::Task<geode::Result<void, std::__ndk1::basic_string<char, std::__ndk1::char_traits<char>, std::__ndk1::allocator<char> > >, std::__ndk1::monostate>::Handle>, geode::Result<void, std::__ndk1::basic_string<char, std::__ndk1::char_traits<char>, std::__ndk1::allocator<char> > >&&)::{lambda()#1}, std::__ndk1::allocator<geode::Task<geode::Result<void, std::__ndk1::basic_string<char, std::__ndk1::char_traits<char>, std::__ndk1::allocator<char> > >, std::__ndk1::monostate>::finish(std::__ndk1::shared_ptr<geode::Task<geode::Result<void, std::__ndk1::basic_string<char, std::__ndk1::char_traits<char>, std::__ndk1::allocator<char> > >, std::__ndk1::monostate>::Handle>, geode::Result<void, std::__ndk1::basic_string<char, std::__ndk1::char_traits<char>, std::__ndk1::allocator<char> > >&&)::{lambda()#1}>, void ()>::~__func()
FUNC 93468 5c 0 std::__ndk1::__function::__func<geode::Task<geode::Result<void, std::__ndk1::basic_string<char, std::__ndk1::char_traits<char>, std::__ndk1::allocator<char> > >, std::__ndk1::monostate>::finish(std::__ndk1::shared_ptr<geode::Task<geode::Result<void, std::__ndk1::basic_string<char, std::__ndk1::char_traits<char>, std::__ndk1::allocator<char> > >, std::__ndk1::monostate>::Handle>, geode::Result<void, std::__ndk1::basic_string<char, std::__ndk1::char_traits<char>, std::__ndk1::allocator<char> > >&&)::{lambda()#1}, std::__ndk1::allocator<geode::Task<geode::Result<void, std::__ndk1::basic_string<char, std::__ndk1::char_traits<char>, std::__ndk1::allocator<char> > >, std::__ndk1::monostate>::finish(std::__ndk1::shared_ptr<geode::Task<geode::Result<void, std::__ndk1::basic_string<char, std::__ndk1::char_traits<char>, std::__ndk1::allocator<char> > >, std::__ndk1::monostate>::Handle>, geode::Result<void, std::__ndk1::basic_string<char, std::__ndk1::char_traits<char>, std::__ndk1::allocator<char> > >&&)::{lambda()#1}>, void ()>::~__func()
FUNC 934c4 58 0 std::__ndk1::__function::__func<geode::Task<geode::Result<void, std::__ndk1::basic_string<char, std::__ndk1::char_traits<char>, std::__ndk1::allocator<char> > >, std::__ndk1::monostate>::finish(std::__ndk1::shared_ptr<geode::Task<geode::Result<void, std::__ndk1::basic_string<char, std::__ndk1::char_traits<char>, std::__ndk1::allocator<char> > >, std::__ndk1::monostate>::Handle>, geode::Result<void, std::__ndk1::basic_string<char, std::__ndk1::char_traits<char>, std::__ndk1::allocator<char> > >&&)::{lambda()#1}, std::__ndk1::allocator<geode::Task<geode::Result<void, std::__ndk1::basic_string<char, std::__ndk1::char_traits<char>, std::__ndk1::allocator<char> > >, std::__ndk1::monostate>::finish(std::__ndk1::shared_ptr<geode::Task<geode::Result<void, std::__ndk1::basic_string<char, std::__ndk1::char_traits<char>, std::__ndk1::allocator<char> > >, std::__ndk1::monostate>::Handle>, geode::Result<void, std::__ndk1::basic_string<char, std::__ndk1::char_traits<char>, std::__ndk1::allocator<char> > >&&)::{lambda()#1}>, void ()>::__clone() const
FUNC 9351c 4c 0 std::__ndk1::__function::__func<geode::Task<geode::Result<void, std::__ndk1::basic_string<char, std::__ndk1::char_traits<char>, std::__ndk1::allocator<char> > >, std::__ndk1::monostate>::finish(std::__ndk1::shared_ptr<geode::Task<geode::Result<void, std::__ndk1::basic_string<char, std::__ndk1::char_traits<char>, std::__ndk1::allocator<char> > >, std::__ndk1::monostate>::Handle>, geode::Result<void, std::__ndk1::basic_string<char, std::__ndk1::char_traits<char>, std::__ndk1::allocator<char> > >&&)::{lambda()#1}, std::__ndk1::allocator<geode::Task<geode::Result<void, std::__ndk1::basic_string<char, std::__ndk1::char_traits<char>, std::__ndk1::allocator<char> > >, std::__ndk1::monostate>::finish(std::__ndk1::shared_ptr<geode::Task<geode::Result<void, std::__ndk1::basic_string<char, std::__ndk1::char_traits<char>, std::__ndk1::allocator<char> > >, std::__ndk1::monostate>::Handle>, geode::Result<void, std::__ndk1::basic_string<char, std::__ndk1::char_traits<char>, std::__ndk1::allocator<char> > >&&)::{lambda()#1}>, void ()>::__clone(std::__ndk1::__function::__base<void ()>*) const
FUNC 93568 50 0 std::__ndk1::__function::__func<geode::Task<geode::Result<void, std::__ndk1::basic_string<char, std::__ndk1::char_traits<char>, std::__ndk1::allocator<char> > >, std::__ndk1::monostate>::finish(std::__ndk1::shared_ptr<geode::Task<geode::Result<void, std::__ndk1::basic_string<char, std::__ndk1::char_traits<char>, std::__ndk1::allocator<char> > >, std::__ndk1::monostate>::Handle>, geode::Result<void, std::__ndk1::basic_string<char, std::__ndk1::char_traits<char>, std::__ndk1::allocator<char> > >&&)::{lambda()#1}, std::__ndk1::allocator<geode::Task<geode::Result<void, std::__ndk1::basic_string<char, std::__ndk1::char_traits<char>, std::__ndk1::allocator<char> > >, std::__ndk1::monostate>::finish(std::__ndk1::shared_ptr<geode::Task<geode::Result<void, std::__ndk1::basic_string<char, std::__ndk1::char_traits<char>, std::__ndk1::allocator<char> > >, std::__ndk1::monostate>::Handle>, geode::Result<void, std::__ndk1::basic_string<char, std::__ndk1::char_traits<char>, std::__ndk1::allocator<char> > >&&)::{lambda()#1}>, void ()>::destroy()
FUNC 935b8 50 0 std::__ndk1::__function::__func<geode::Task<geode::Result<void, std::__ndk1::basic_string<char, std::__ndk1::char_traits<char>, std::__ndk1::allocator<char> > >, std::__ndk1::monostate>::finish(std::__ndk1::shared_ptr<geode::Task<geode::Result<void, std::__ndk1::basic_string<char, std::__ndk1::char_traits<char>, std::__ndk1::allocator<char> > >, std::__ndk1::monostate>::Handle>, geode::Result<void, std::__ndk1::basic_string<char, std::__ndk1::char_traits<char>, std::__ndk1::allocator<char> > >&&)::{lambda()#1}, std::__ndk1::allocator<geode::Task<geode::Result<void, std::__ndk1::basic_string<char, std::__ndk1::char_traits<char>, std::__ndk1::allocator<char> > >, std::__ndk1::monostate>::finish(std::__ndk1::shared_ptr<geode::Task<geode::Result<void, std::__ndk1::basic_string<char, std::__ndk1::char_traits<char>, std::__ndk1::allocator<char> > >, std::__ndk1::monostate>::Handle>, geode::Result<void, std::__ndk1::basic_string<char, std::__ndk1::char_traits<char>, std::__ndk1::allocator<char> > >&&)::{lambda()#1}>, void ()>::destroy_deallocate()
FUNC 93608 1c8 0 std::__ndk1::__function::__func<geode::Task<geode::Result<void, std::__ndk1::basic_string<char, std::__ndk1::char_traits<char>, std::__ndk1::allocator<char> > >, std::__ndk1::monostate>::finish(std::__ndk1::shared_ptr<geode::Task<geode::Result<void, std::__ndk1::basic_string<char, std::__ndk1::char_traits<char>, std::__ndk1::allocator<char> > >, std::__ndk1::monostate>::Handle>, geode::Result<void, std::__ndk1::basic_string<char, std::__ndk1::char_traits<char>, std::__ndk1::allocator<char> > >&&)::{lambda()#1}, std::__ndk1::allocator<geode::Task<geode::Result<void, std::__ndk1::basic_string<char, std::__ndk1::char_traits<char>, std::__ndk1::allocator<char> > >, std::__ndk1::monostate>::finish(std::__ndk1::shared_ptr<geode::Task<geode::Result<void, std::__ndk1::basic_string<char, std::__ndk1::char_traits<char>, std::__ndk1::allocator<char> > >, std::__ndk1::monostate>::Handle>, geode::Result<void, std::__ndk1::basic_string<char, std::__ndk1::char_traits<char>, std::__ndk1::allocator<char> > >&&)::{lambda()#1}>, void ()>::operator()()
FUNC 937d0 1c 0 std::__ndk1::__function::__func<geode::Task<geode::Result<void, std::__ndk1::basic_string<char, std::__ndk1::char_traits<char>, std::__ndk1::allocator<char> > >, std::__ndk1::monostate>::finish(std::__ndk1::shared_ptr<geode::Task<geode::Result<void, std::__ndk1::basic_string<char, std::__ndk1::char_traits<char>, std::__ndk1::allocator<char> > >, std::__ndk1::monostate>::Handle>, geode::Result<void, std::__ndk1::basic_string<char, std::__ndk1::char_traits<char>, std::__ndk1::allocator<char> > >&&)::{lambda()#1}, std::__ndk1::allocator<geode::Task<geode::Result<void, std::__ndk1::basic_string<char, std::__ndk1::char_traits<char>, std::__ndk1::allocator<char> > >, std::__ndk1::monostate>::finish(std::__ndk1::shared_ptr<geode::Task<geode::Result<void, std::__ndk1::basic_string<char, std::__ndk1::char_traits<char>, std::__ndk1::allocator<char> > >, std::__ndk1::monostate>::Handle>, geode::Result<void, std::__ndk1::basic_string<char, std::__ndk1::char_traits<char>, std::__ndk1::allocator<char> > >&&)::{lambda()#1}>, void ()>::target(std::type_info const&) const
FUNC 937ec c 0 std::__ndk1::__function::__func<geode::Task<geode::Result<void, std::__ndk1::basic_string<char, std::__ndk1::char_traits<char>, std::__ndk1::allocator<char> > >, std::__ndk1::monostate>::finish(std::__ndk1::shared_ptr<geode::Task<geode::Result<void, std::__ndk1::basic_string<char, std::__ndk1::char_traits<char>, std::__ndk1::allocator<char> > >, std::__ndk1::monostate>::Handle>, geode::Result<void, std::__ndk1::basic_string<char, std::__ndk1::char_traits<char>, std::__ndk1::allocator<char> > >&&)::{lambda()#1}, std::__ndk1::allocator<geode::Task<geode::Result<void, std::__ndk1::basic_string<char, std::__ndk1::char_traits<char>, std::__ndk1::allocator<char> > >, std::__ndk1::monostate>::finish(std::__ndk1::shared_ptr<geode::Task<geode::Result<void, std::__ndk1::basic_string<char, std::__ndk1::char_traits<char>, std::__ndk1::allocator<char> > >, std::__ndk1::monostate>::Handle>, geode::Result<void, std::__ndk1::basic_string<char, std::__ndk1::char_traits<char>, std::__ndk1::allocator<char> > >&&)::{lambda()#1}>, void ()>::target_type() const
FUNC 937f8 190 0 geode::Task<geode::Result<void, std::__ndk1::basic_string<char, std::__ndk1::char_traits<char>, std::__ndk1::allocator<char> > >, std::__ndk1::monostate>::cancelled(std::__ndk1::basic_string_view<char, std::__ndk1::char_traits<char> >)
FUNC 93988 908 0 DTLayer::updateSessionString(int const&)::$_0::operator()(geode::Result<std::__ndk1::vector<DeathInfo_s, std::__ndk1::allocator<DeathInfo_s> >, std::__ndk1::basic_string<char, std::__ndk1::char_traits<char>, std::__ndk1::allocator<char> > >*) const
FUNC 94290 2f4 0 geode::EventListener<geode::Task<geode::Result<std::__ndk1::vector<DeathInfo_s, std::__ndk1::allocator<DeathInfo_s> >, std::__ndk1::basic_string<char, std::__ndk1::char_traits<char>, std::__ndk1::allocator<char> > >, std::__ndk1::monostate> >::EventListener(std::__ndk1::function<void (geode::Task<geode::Result<std::__ndk1::vector<DeathInfo_s, std::__ndk1::allocator<DeathInfo_s> >, std::__ndk1::basic_string<char, std::__ndk1::char_traits<char>, std::__ndk1::allocator<char> > >, std::__ndk1::monostate>*::Event)>, geode::Task<geode::Result<std::__ndk1::vector<DeathInfo_s, std::__ndk1::allocator<DeathInfo_s> >, std::__ndk1::basic_string<char, std::__ndk1::char_traits<char>, std::__ndk1::allocator<char> > >, std::__ndk1::monostate>)
FUNC 94584 54 0 _ZZNK5geode4TaskINS_6ResultINSt6__ndk16vectorI11DeathInfo_sNS2_9allocatorIS4_EEEENS2_12basic_stringIcNS2_11char_traitsIcEENS5_IcEEEEEENS2_9monostateEE5chainITkNS2_9invocableIPT_EEZN7DTLayer19updateSessionStringERKiE3$_0EEDTclfL0p_clL_ZNS2_7declvalB8ne180000IPSD_EEDTclsr3stdE9__declvalISI_ELi0EEEvEEEESI_NS2_17basic_string_viewIcSA_EEENUlPNSF_5EventEE_D2Ev
FUNC 945d8 168 0 geode::Task<geode::Result<void, std::__ndk1::basic_string<char, std::__ndk1::char_traits<char>, std::__ndk1::allocator<char> > >, std::__ndk1::monostate>::cancel(std::__ndk1::shared_ptr<geode::Task<geode::Result<void, std::__ndk1::basic_string<char, std::__ndk1::char_traits<char>, std::__ndk1::allocator<char> > >, std::__ndk1::monostate>::Handle>, bool)
FUNC 94740 50 0 geode::Task<geode::Result<void, std::__ndk1::basic_string<char, std::__ndk1::char_traits<char>, std::__ndk1::allocator<char> > >, std::__ndk1::monostate>::cancel(std::__ndk1::shared_ptr<geode::Task<geode::Result<void, std::__ndk1::basic_string<char, std::__ndk1::char_traits<char>, std::__ndk1::allocator<char> > >, std::__ndk1::monostate>::Handle>, bool)::{lambda()#1}::~{lambda()#1}()
FUNC 94790 5c 0 std::__ndk1::__function::__func<geode::Task<geode::Result<void, std::__ndk1::basic_string<char, std::__ndk1::char_traits<char>, std::__ndk1::allocator<char> > >, std::__ndk1::monostate>::cancel(std::__ndk1::shared_ptr<geode::Task<geode::Result<void, std::__ndk1::basic_string<char, std::__ndk1::char_traits<char>, std::__ndk1::allocator<char> > >, std::__ndk1::monostate>::Handle>, bool)::{lambda()#1}, std::__ndk1::allocator<geode::Task<geode::Result<void, std::__ndk1::basic_string<char, std::__ndk1::char_traits<char>, std::__ndk1::allocator<char> > >, std::__ndk1::monostate>::cancel(std::__ndk1::shared_ptr<geode::Task<geode::Result<void, std::__ndk1::basic_string<char, std::__ndk1::char_traits<char>, std::__ndk1::allocator<char> > >, std::__ndk1::monostate>::Handle>, bool)::{lambda()#1}>, void ()>::~__func()
FUNC 947ec 5c 0 std::__ndk1::__function::__func<geode::Task<geode::Result<void, std::__ndk1::basic_string<char, std::__ndk1::char_traits<char>, std::__ndk1::allocator<char> > >, std::__ndk1::monostate>::cancel(std::__ndk1::shared_ptr<geode::Task<geode::Result<void, std::__ndk1::basic_string<char, std::__ndk1::char_traits<char>, std::__ndk1::allocator<char> > >, std::__ndk1::monostate>::Handle>, bool)::{lambda()#1}, std::__ndk1::allocator<geode::Task<geode::Result<void, std::__ndk1::basic_string<char, std::__ndk1::char_traits<char>, std::__ndk1::allocator<char> > >, std::__ndk1::monostate>::cancel(std::__ndk1::shared_ptr<geode::Task<geode::Result<void, std::__ndk1::basic_string<char, std::__ndk1::char_traits<char>, std::__ndk1::allocator<char> > >, std::__ndk1::monostate>::Handle>, bool)::{lambda()#1}>, void ()>::~__func()
FUNC 94848 50 0 std::__ndk1::__function::__func<geode::Task<geode::Result<void, std::__ndk1::basic_string<char, std::__ndk1::char_traits<char>, std::__ndk1::allocator<char> > >, std::__ndk1::monostate>::cancel(std::__ndk1::shared_ptr<geode::Task<geode::Result<void, std::__ndk1::basic_string<char, std::__ndk1::char_traits<char>, std::__ndk1::allocator<char> > >, std::__ndk1::monostate>::Handle>, bool)::{lambda()#1}, std::__ndk1::allocator<geode::Task<geode::Result<void, std::__ndk1::basic_string<char, std::__ndk1::char_traits<char>, std::__ndk1::allocator<char> > >, std::__ndk1::monostate>::cancel(std::__ndk1::shared_ptr<geode::Task<geode::Result<void, std::__ndk1::basic_string<char, std::__ndk1::char_traits<char>, std::__ndk1::allocator<char> > >, std::__ndk1::monostate>::Handle>, bool)::{lambda()#1}>, void ()>::__clone() const
FUNC 94898 34 0 std::__ndk1::__function::__func<geode::Task<geode::Result<void, std::__ndk1::basic_string<char, std::__ndk1::char_traits<char>, std::__ndk1::allocator<char> > >, std::__ndk1::monostate>::cancel(std::__ndk1::shared_ptr<geode::Task<geode::Result<void, std::__ndk1::basic_string<char, std::__ndk1::char_traits<char>, std::__ndk1::allocator<char> > >, std::__ndk1::monostate>::Handle>, bool)::{lambda()#1}, std::__ndk1::allocator<geode::Task<geode::Result<void, std::__ndk1::basic_string<char, std::__ndk1::char_traits<char>, std::__ndk1::allocator<char> > >, std::__ndk1::monostate>::cancel(std::__ndk1::shared_ptr<geode::Task<geode::Result<void, std::__ndk1::basic_string<char, std::__ndk1::char_traits<char>, std::__ndk1::allocator<char> > >, std::__ndk1::monostate>::Handle>, bool)::{lambda()#1}>, void ()>::__clone(std::__ndk1::__function::__base<void ()>*) const
FUNC 948cc 50 0 std::__ndk1::__function::__func<geode::Task<geode::Result<void, std::__ndk1::basic_string<char, std::__ndk1::char_traits<char>, std::__ndk1::allocator<char> > >, std::__ndk1::monostate>::cancel(std::__ndk1::shared_ptr<geode::Task<geode::Result<void, std::__ndk1::basic_string<char, std::__ndk1::char_traits<char>, std::__ndk1::allocator<char> > >, std::__ndk1::monostate>::Handle>, bool)::{lambda()#1}, std::__ndk1::allocator<geode::Task<geode::Result<void, std::__ndk1::basic_string<char, std::__ndk1::char_traits<char>, std::__ndk1::allocator<char> > >, std::__ndk1::monostate>::cancel(std::__ndk1::shared_ptr<geode::Task<geode::Result<void, std::__ndk1::basic_string<char, std::__ndk1::char_traits<char>, std::__ndk1::allocator<char> > >, std::__ndk1::monostate>::Handle>, bool)::{lambda()#1}>, void ()>::destroy()
FUNC 9491c 50 0 std::__ndk1::__function::__func<geode::Task<geode::Result<void, std::__ndk1::basic_string<char, std::__ndk1::char_traits<char>, std::__ndk1::allocator<char> > >, std::__ndk1::monostate>::cancel(std::__ndk1::shared_ptr<geode::Task<geode::Result<void, std::__ndk1::basic_string<char, std::__ndk1::char_traits<char>, std::__ndk1::allocator<char> > >, std::__ndk1::monostate>::Handle>, bool)::{lambda()#1}, std::__ndk1::allocator<geode::Task<geode::Result<void, std::__ndk1::basic_string<char, std::__ndk1::char_traits<char>, std::__ndk1::allocator<char> > >, std::__ndk1::monostate>::cancel(std::__ndk1::shared_ptr<geode::Task<geode::Result<void, std::__ndk1::basic_string<char, std::__ndk1::char_traits<char>, std::__ndk1::allocator<char> > >, std::__ndk1::monostate>::Handle>, bool)::{lambda()#1}>, void ()>::destroy_deallocate()
FUNC 9496c 1b8 0 std::__ndk1::__function::__func<geode::Task<geode::Result<void, std::__ndk1::basic_string<char, std::__ndk1::char_traits<char>, std::__ndk1::allocator<char> > >, std::__ndk1::monostate>::cancel(std::__ndk1::shared_ptr<geode::Task<geode::Result<void, std::__ndk1::basic_string<char, std::__ndk1::char_traits<char>, std::__ndk1::allocator<char> > >, std::__ndk1::monostate>::Handle>, bool)::{lambda()#1}, std::__ndk1::allocator<geode::Task<geode::Result<void, std::__ndk1::basic_string<char, std::__ndk1::char_traits<char>, std::__ndk1::allocator<char> > >, std::__ndk1::monostate>::cancel(std::__ndk1::shared_ptr<geode::Task<geode::Result<void, std::__ndk1::basic_string<char, std::__ndk1::char_traits<char>, std::__ndk1::allocator<char> > >, std::__ndk1::monostate>::Handle>, bool)::{lambda()#1}>, void ()>::operator()()
FUNC 94b24 1c 0 std::__ndk1::__function::__func<geode::Task<geode::Result<void, std::__ndk1::basic_string<char, std::__ndk1::char_traits<char>, std::__ndk1::allocator<char> > >, std::__ndk1::monostate>::cancel(std::__ndk1::shared_ptr<geode::Task<geode::Result<void, std::__ndk1::basic_string<char, std::__ndk1::char_traits<char>, std::__ndk1::allocator<char> > >, std::__ndk1::monostate>::Handle>, bool)::{lambda()#1}, std::__ndk1::allocator<geode::Task<geode::Result<void, std::__ndk1::basic_string<char, std::__ndk1::char_traits<char>, std::__ndk1::allocator<char> > >, std::__ndk1::monostate>::cancel(std::__ndk1::shared_ptr<geode::Task<geode::Result<void, std::__ndk1::basic_string<char, std::__ndk1::char_traits<char>, std::__ndk1::allocator<char> > >, std::__ndk1::monostate>::Handle>, bool)::{lambda()#1}>, void ()>::target(std::type_info const&) const
FUNC 94b40 c 0 std::__ndk1::__function::__func<geode::Task<geode::Result<void, std::__ndk1::basic_string<char, std::__ndk1::char_traits<char>, std::__ndk1::allocator<char> > >, std::__ndk1::monostate>::cancel(std::__ndk1::shared_ptr<geode::Task<geode::Result<void, std::__ndk1::basic_string<char, std::__ndk1::char_traits<char>, std::__ndk1::allocator<char> > >, std::__ndk1::monostate>::Handle>, bool)::{lambda()#1}, std::__ndk1::allocator<geode::Task<geode::Result<void, std::__ndk1::basic_string<char, std::__ndk1::char_traits<char>, std::__ndk1::allocator<char> > >, std::__ndk1::monostate>::cancel(std::__ndk1::shared_ptr<geode::Task<geode::Result<void, std::__ndk1::basic_string<char, std::__ndk1::char_traits<char>, std::__ndk1::allocator<char> > >, std::__ndk1::monostate>::Handle>, bool)::{lambda()#1}>, void ()>::target_type() const
FUNC 94b4c 168 0 _ZN5geode15UnwrapExceptionC2IRNSt6__ndk112basic_stringIcNS2_11char_traitsIcEENS2_9allocatorIcEEEEQsr4implE18IsStringStreamableIT_EEENS_4impl6ErrTagEOSA_
FUNC 94cb4 164 0 std::__ndk1::vector<DeathInfo_s, std::__ndk1::allocator<DeathInfo_s> >::__assign_with_size[abi:ne180000]<DeathInfo_s*, std::__ndk1::vector<DeathInfo_s, std::__ndk1::allocator<DeathInfo_s> >::__assign_with_size[abi:ne180000]>(DeathInfo_s*, std::__ndk1::vector<DeathInfo_s, std::__ndk1::allocator<DeathInfo_s> >::__assign_with_size[abi:ne180000], long)
FUNC 94e18 4e4 0 DTLayer::updateSessionString(int const&)::$_0::operator()(geode::Result<std::__ndk1::vector<DeathInfo_s, std::__ndk1::allocator<DeathInfo_s> >, std::__ndk1::basic_string<char, std::__ndk1::char_traits<char>, std::__ndk1::allocator<char> > >*) const::{lambda(geode::Result<std::__ndk1::vector<DeathInfo_s, std::__ndk1::allocator<DeathInfo_s> >, std::__ndk1::basic_string<char, std::__ndk1::char_traits<char>, std::__ndk1::allocator<char> > >*)#1}::operator()(geode::Result<std::__ndk1::vector<DeathInfo_s, std::__ndk1::allocator<DeathInfo_s> >, std::__ndk1::basic_string<char, std::__ndk1::char_traits<char>, std::__ndk1::allocator<char> > >*) const
FUNC 952fc 20 0 _ZNSt6__ndk110__function6__funcIZNK5geode4TaskINS2_6ResultINS_6vectorI11DeathInfo_sNS_9allocatorIS6_EEEENS_12basic_stringIcNS_11char_traitsIcEENS7_IcEEEEEENS_9monostateEE5chainITkNS_9invocableIPT_EEZZN7DTLayer19updateSessionStringERKiENK3$_0clEPSF_EUlSQ_E_EEDTclfL0p_clL_ZNS_7declvalB8ne180000ISQ_EEDTclsr3stdE9__declvalISK_ELi0EEEvEEEESK_NS_17basic_string_viewIcSC_EEEUlPNSH_5EventEE_NS7_ISZ_EEFvSY_EED2Ev
FUNC 9531c 3c 0 _ZNSt6__ndk110__function6__funcIZNK5geode4TaskINS2_6ResultINS_6vectorI11DeathInfo_sNS_9allocatorIS6_EEEENS_12basic_stringIcNS_11char_traitsIcEENS7_IcEEEEEENS_9monostateEE5chainITkNS_9invocableIPT_EEZZN7DTLayer19updateSessionStringERKiENK3$_0clEPSF_EUlSQ_E_EEDTclfL0p_clL_ZNS_7declvalB8ne180000ISQ_EEDTclsr3stdE9__declvalISK_ELi0EEEvEEEESK_NS_17basic_string_viewIcSC_EEEUlPNSH_5EventEE_NS7_ISZ_EEFvSY_EED0Ev
FUNC 95358 58 0 _ZNKSt6__ndk110__function6__funcIZNK5geode4TaskINS2_6ResultINS_6vectorI11DeathInfo_sNS_9allocatorIS6_EEEENS_12basic_stringIcNS_11char_traitsIcEENS7_IcEEEEEENS_9monostateEE5chainITkNS_9invocableIPT_EEZZN7DTLayer19updateSessionStringERKiENK3$_0clEPSF_EUlSQ_E_EEDTclfL0p_clL_ZNS_7declvalB8ne180000ISQ_EEDTclsr3stdE9__declvalISK_ELi0EEEvEEEESK_NS_17basic_string_viewIcSC_EEEUlPNSH_5EventEE_NS7_ISZ_EEFvSY_EE7__cloneEv
FUNC 953b0 4c 0 _ZNKSt6__ndk110__function6__funcIZNK5geode4TaskINS2_6ResultINS_6vectorI11DeathInfo_sNS_9allocatorIS6_EEEENS_12basic_stringIcNS_11char_traitsIcEENS7_IcEEEEEENS_9monostateEE5chainITkNS_9invocableIPT_EEZZN7DTLayer19updateSessionStringERKiENK3$_0clEPSF_EUlSQ_E_EEDTclfL0p_clL_ZNS_7declvalB8ne180000ISQ_EEDTclsr3stdE9__declvalISK_ELi0EEEvEEEESK_NS_17basic_string_viewIcSC_EEEUlPNSH_5EventEE_NS7_ISZ_EEFvSY_EE7__cloneEPNS0_6__baseIS11_EE
FUNC 953fc 10 0 _ZNSt6__ndk110__function6__funcIZNK5geode4TaskINS2_6ResultINS_6vectorI11DeathInfo_sNS_9allocatorIS6_EEEENS_12basic_stringIcNS_11char_traitsIcEENS7_IcEEEEEENS_9monostateEE5chainITkNS_9invocableIPT_EEZZN7DTLayer19updateSessionStringERKiENK3$_0clEPSF_EUlSQ_E_EEDTclfL0p_clL_ZNS_7declvalB8ne180000ISQ_EEDTclsr3stdE9__declvalISK_ELi0EEEvEEEESK_NS_17basic_string_viewIcSC_EEEUlPNSH_5EventEE_NS7_ISZ_EEFvSY_EE7destroyEv
FUNC 9540c 30 0 _ZNSt6__ndk110__function6__funcIZNK5geode4TaskINS2_6ResultINS_6vectorI11DeathInfo_sNS_9allocatorIS6_EEEENS_12basic_stringIcNS_11char_traitsIcEENS7_IcEEEEEENS_9monostateEE5chainITkNS_9invocableIPT_EEZZN7DTLayer19updateSessionStringERKiENK3$_0clEPSF_EUlSQ_E_EEDTclfL0p_clL_ZNS_7declvalB8ne180000ISQ_EEDTclsr3stdE9__declvalISK_ELi0EEEvEEEESK_NS_17basic_string_viewIcSC_EEEUlPNSH_5EventEE_NS7_ISZ_EEFvSY_EE18destroy_deallocateEv
FUNC 9543c 300 0 _ZNSt6__ndk110__function6__funcIZNK5geode4TaskINS2_6ResultINS_6vectorI11DeathInfo_sNS_9allocatorIS6_EEEENS_12basic_stringIcNS_11char_traitsIcEENS7_IcEEEEEENS_9monostateEE5chainITkNS_9invocableIPT_EEZZN7DTLayer19updateSessionStringERKiENK3$_0clEPSF_EUlSQ_E_EEDTclfL0p_clL_ZNS_7declvalB8ne180000ISQ_EEDTclsr3stdE9__declvalISK_ELi0EEEvEEEESK_NS_17basic_string_viewIcSC_EEEUlPNSH_5EventEE_NS7_ISZ_EEFvSY_EEclEOSY_
FUNC 9573c 1c 0 _ZNKSt6__ndk110__function6__funcIZNK5geode4TaskINS2_6ResultINS_6vectorI11DeathInfo_sNS_9allocatorIS6_EEEENS_12basic_stringIcNS_11char_traitsIcEENS7_IcEEEEEENS_9monostateEE5chainITkNS_9invocableIPT_EEZZN7DTLayer19updateSessionStringERKiENK3$_0clEPSF_EUlSQ_E_EEDTclfL0p_clL_ZNS_7declvalB8ne180000ISQ_EEDTclsr3stdE9__declvalISK_ELi0EEEvEEEESK_NS_17basic_string_viewIcSC_EEEUlPNSH_5EventEE_NS7_ISZ_EEFvSY_EE6targetERKSt9type_info
FUNC 95758 c 0 _ZNKSt6__ndk110__function6__funcIZNK5geode4TaskINS2_6ResultINS_6vectorI11DeathInfo_sNS_9allocatorIS6_EEEENS_12basic_stringIcNS_11char_traitsIcEENS7_IcEEEEEENS_9monostateEE5chainITkNS_9invocableIPT_EEZZN7DTLayer19updateSessionStringERKiENK3$_0clEPSF_EUlSQ_E_EEDTclfL0p_clL_ZNS_7declvalB8ne180000ISQ_EEDTclsr3stdE9__declvalISK_ELi0EEEvEEEESK_NS_17basic_string_viewIcSC_EEEUlPNSH_5EventEE_NS7_ISZ_EEFvSY_EE11target_typeEv
FUNC 95764 fc 0 geode::EventListener<geode::Task<geode::Result<void, std::__ndk1::basic_string<char, std::__ndk1::char_traits<char>, std::__ndk1::allocator<char> > >, std::__ndk1::monostate> >::EventListener(std::__ndk1::function<void (geode::Task<geode::Result<void, std::__ndk1::basic_string<char, std::__ndk1::char_traits<char>, std::__ndk1::allocator<char> > >, std::__ndk1::monostate>*::Event)>, geode::Task<geode::Result<void, std::__ndk1::basic_string<char, std::__ndk1::char_traits<char>, std::__ndk1::allocator<char> > >, std::__ndk1::monostate>)
FUNC 95860 20 0 _ZNSt6__ndk110__function6__funcIZZNK5geode4TaskINS2_6ResultINS_6vectorI11DeathInfo_sNS_9allocatorIS6_EEEENS_12basic_stringIcNS_11char_traitsIcEENS7_IcEEEEEENS_9monostateEE5chainITkNS_9invocableIPT_EEZZN7DTLayer19updateSessionStringERKiENK3$_0clEPSF_EUlSQ_E_EEDTclfL1p_clL_ZNS_7declvalB8ne180000ISQ_EEDTclsr3stdE9__declvalISK_ELi0EEEvEEEESK_NS_17basic_string_viewIcSC_EEENUlPNSH_5EventEE_clESY_EUlPNS3_INS4_IvSE_EESG_E5EventEE_NS7_IS14_EEFvS13_EED2Ev
FUNC 95880 3c 0 _ZNSt6__ndk110__function6__funcIZZNK5geode4TaskINS2_6ResultINS_6vectorI11DeathInfo_sNS_9allocatorIS6_EEEENS_12basic_stringIcNS_11char_traitsIcEENS7_IcEEEEEENS_9monostateEE5chainITkNS_9invocableIPT_EEZZN7DTLayer19updateSessionStringERKiENK3$_0clEPSF_EUlSQ_E_EEDTclfL1p_clL_ZNS_7declvalB8ne180000ISQ_EEDTclsr3stdE9__declvalISK_ELi0EEEvEEEESK_NS_17basic_string_viewIcSC_EEENUlPNSH_5EventEE_clESY_EUlPNS3_INS4_IvSE_EESG_E5EventEE_NS7_IS14_EEFvS13_EED0Ev
FUNC 958bc 50 0 _ZNKSt6__ndk110__function6__funcIZZNK5geode4TaskINS2_6ResultINS_6vectorI11DeathInfo_sNS_9allocatorIS6_EEEENS_12basic_stringIcNS_11char_traitsIcEENS7_IcEEEEEENS_9monostateEE5chainITkNS_9invocableIPT_EEZZN7DTLayer19updateSessionStringERKiENK3$_0clEPSF_EUlSQ_E_EEDTclfL1p_clL_ZNS_7declvalB8ne180000ISQ_EEDTclsr3stdE9__declvalISK_ELi0EEEvEEEESK_NS_17basic_string_viewIcSC_EEENUlPNSH_5EventEE_clESY_EUlPNS3_INS4_IvSE_EESG_E5EventEE_NS7_IS14_EEFvS13_EE7__cloneEv
FUNC 9590c 34 0 _ZNKSt6__ndk110__function6__funcIZZNK5geode4TaskINS2_6ResultINS_6vectorI11DeathInfo_sNS_9allocatorIS6_EEEENS_12basic_stringIcNS_11char_traitsIcEENS7_IcEEEEEENS_9monostateEE5chainITkNS_9invocableIPT_EEZZN7DTLayer19updateSessionStringERKiENK3$_0clEPSF_EUlSQ_E_EEDTclfL1p_clL_ZNS_7declvalB8ne180000ISQ_EEDTclsr3stdE9__declvalISK_ELi0EEEvEEEESK_NS_17basic_string_viewIcSC_EEENUlPNSH_5EventEE_clESY_EUlPNS3_INS4_IvSE_EESG_E5EventEE_NS7_IS14_EEFvS13_EE7__cloneEPNS0_6__baseIS16_EE
FUNC 95940 10 0 _ZNSt6__ndk110__function6__funcIZZNK5geode4TaskINS2_6ResultINS_6vectorI11DeathInfo_sNS_9allocatorIS6_EEEENS_12basic_stringIcNS_11char_traitsIcEENS7_IcEEEEEENS_9monostateEE5chainITkNS_9invocableIPT_EEZZN7DTLayer19updateSessionStringERKiENK3$_0clEPSF_EUlSQ_E_EEDTclfL1p_clL_ZNS_7declvalB8ne180000ISQ_EEDTclsr3stdE9__declvalISK_ELi0EEEvEEEESK_NS_17basic_string_viewIcSC_EEENUlPNSH_5EventEE_clESY_EUlPNS3_INS4_IvSE_EESG_E5EventEE_NS7_IS14_EEFvS13_EE7destroyEv
FUNC 95950 30 0 _ZNSt6__ndk110__function6__funcIZZNK5geode4TaskINS2_6ResultINS_6vectorI11DeathInfo_sNS_9allocatorIS6_EEEENS_12basic_stringIcNS_11char_traitsIcEENS7_IcEEEEEENS_9monostateEE5chainITkNS_9invocableIPT_EEZZN7DTLayer19updateSessionStringERKiENK3$_0clEPSF_EUlSQ_E_EEDTclfL1p_clL_ZNS_7declvalB8ne180000ISQ_EEDTclsr3stdE9__declvalISK_ELi0EEEvEEEESK_NS_17basic_string_viewIcSC_EEENUlPNSH_5EventEE_clESY_EUlPNS3_INS4_IvSE_EESG_E5EventEE_NS7_IS14_EEFvS13_EE18destroy_deallocateEv
FUNC 95980 194 0 _ZNSt6__ndk110__function6__funcIZZNK5geode4TaskINS2_6ResultINS_6vectorI11DeathInfo_sNS_9allocatorIS6_EEEENS_12basic_stringIcNS_11char_traitsIcEENS7_IcEEEEEENS_9monostateEE5chainITkNS_9invocableIPT_EEZZN7DTLayer19updateSessionStringERKiENK3$_0clEPSF_EUlSQ_E_EEDTclfL1p_clL_ZNS_7declvalB8ne180000ISQ_EEDTclsr3stdE9__declvalISK_ELi0EEEvEEEESK_NS_17basic_string_viewIcSC_EEENUlPNSH_5EventEE_clESY_EUlPNS3_INS4_IvSE_EESG_E5EventEE_NS7_IS14_EEFvS13_EEclEOS13_
FUNC 95b14 1c 0 _ZNKSt6__ndk110__function6__funcIZZNK5geode4TaskINS2_6ResultINS_6vectorI11DeathInfo_sNS_9allocatorIS6_EEEENS_12basic_stringIcNS_11char_traitsIcEENS7_IcEEEEEENS_9monostateEE5chainITkNS_9invocableIPT_EEZZN7DTLayer19updateSessionStringERKiENK3$_0clEPSF_EUlSQ_E_EEDTclfL1p_clL_ZNS_7declvalB8ne180000ISQ_EEDTclsr3stdE9__declvalISK_ELi0EEEvEEEESK_NS_17basic_string_viewIcSC_EEENUlPNSH_5EventEE_clESY_EUlPNS3_INS4_IvSE_EESG_E5EventEE_NS7_IS14_EEFvS13_EE6targetERKSt9type_info
FUNC 95b30 c 0 _ZNKSt6__ndk110__function6__funcIZZNK5geode4TaskINS2_6ResultINS_6vectorI11DeathInfo_sNS_9allocatorIS6_EEEENS_12basic_stringIcNS_11char_traitsIcEENS7_IcEEEEEENS_9monostateEE5chainITkNS_9invocableIPT_EEZZN7DTLayer19updateSessionStringERKiENK3$_0clEPSF_EUlSQ_E_EEDTclfL1p_clL_ZNS_7declvalB8ne180000ISQ_EEDTclsr3stdE9__declvalISK_ELi0EEEvEEEESK_NS_17basic_string_viewIcSC_EEENUlPNSH_5EventEE_clESY_EUlPNS3_INS4_IvSE_EESG_E5EventEE_NS7_IS14_EEFvS13_EE11target_typeEv
FUNC 95b3c 140 0 geode::Task<geode::Result<void, std::__ndk1::basic_string<char, std::__ndk1::char_traits<char>, std::__ndk1::allocator<char> > >, std::__ndk1::monostate>::progress(std::__ndk1::shared_ptr<geode::Task<geode::Result<void, std::__ndk1::basic_string<char, std::__ndk1::char_traits<char>, std::__ndk1::allocator<char> > >, std::__ndk1::monostate>::Handle>, std::__ndk1::monostate&&)
FUNC 95c7c 50 0 geode::Task<geode::Result<void, std::__ndk1::basic_string<char, std::__ndk1::char_traits<char>, std::__ndk1::allocator<char> > >, std::__ndk1::monostate>::progress(std::__ndk1::shared_ptr<geode::Task<geode::Result<void, std::__ndk1::basic_string<char, std::__ndk1::char_traits<char>, std::__ndk1::allocator<char> > >, std::__ndk1::monostate>::Handle>, std::__ndk1::monostate&&)::{lambda()#1}::~{lambda()#1}()
FUNC 95ccc 5c 0 std::__ndk1::__function::__func<geode::Task<geode::Result<void, std::__ndk1::basic_string<char, std::__ndk1::char_traits<char>, std::__ndk1::allocator<char> > >, std::__ndk1::monostate>::progress(std::__ndk1::shared_ptr<geode::Task<geode::Result<void, std::__ndk1::basic_string<char, std::__ndk1::char_traits<char>, std::__ndk1::allocator<char> > >, std::__ndk1::monostate>::Handle>, std::__ndk1::monostate&&)::{lambda()#1}, std::__ndk1::allocator<geode::Task<geode::Result<void, std::__ndk1::basic_string<char, std::__ndk1::char_traits<char>, std::__ndk1::allocator<char> > >, std::__ndk1::monostate>::progress(std::__ndk1::shared_ptr<geode::Task<geode::Result<void, std::__ndk1::basic_string<char, std::__ndk1::char_traits<char>, std::__ndk1::allocator<char> > >, std::__ndk1::monostate>::Handle>, std::__ndk1::monostate&&)::{lambda()#1}>, void ()>::~__func()
FUNC 95d28 5c 0 std::__ndk1::__function::__func<geode::Task<geode::Result<void, std::__ndk1::basic_string<char, std::__ndk1::char_traits<char>, std::__ndk1::allocator<char> > >, std::__ndk1::monostate>::progress(std::__ndk1::shared_ptr<geode::Task<geode::Result<void, std::__ndk1::basic_string<char, std::__ndk1::char_traits<char>, std::__ndk1::allocator<char> > >, std::__ndk1::monostate>::Handle>, std::__ndk1::monostate&&)::{lambda()#1}, std::__ndk1::allocator<geode::Task<geode::Result<void, std::__ndk1::basic_string<char, std::__ndk1::char_traits<char>, std::__ndk1::allocator<char> > >, std::__ndk1::monostate>::progress(std::__ndk1::shared_ptr<geode::Task<geode::Result<void, std::__ndk1::basic_string<char, std::__ndk1::char_traits<char>, std::__ndk1::allocator<char> > >, std::__ndk1::monostate>::Handle>, std::__ndk1::monostate&&)::{lambda()#1}>, void ()>::~__func()
FUNC 95d84 50 0 std::__ndk1::__function::__func<geode::Task<geode::Result<void, std::__ndk1::basic_string<char, std::__ndk1::char_traits<char>, std::__ndk1::allocator<char> > >, std::__ndk1::monostate>::progress(std::__ndk1::shared_ptr<geode::Task<geode::Result<void, std::__ndk1::basic_string<char, std::__ndk1::char_traits<char>, std::__ndk1::allocator<char> > >, std::__ndk1::monostate>::Handle>, std::__ndk1::monostate&&)::{lambda()#1}, std::__ndk1::allocator<geode::Task<geode::Result<void, std::__ndk1::basic_string<char, std::__ndk1::char_traits<char>, std::__ndk1::allocator<char> > >, std::__ndk1::monostate>::progress(std::__ndk1::shared_ptr<geode::Task<geode::Result<void, std::__ndk1::basic_string<char, std::__ndk1::char_traits<char>, std::__ndk1::allocator<char> > >, std::__ndk1::monostate>::Handle>, std::__ndk1::monostate&&)::{lambda()#1}>, void ()>::__clone() const
FUNC 95dd4 34 0 std::__ndk1::__function::__func<geode::Task<geode::Result<void, std::__ndk1::basic_string<char, std::__ndk1::char_traits<char>, std::__ndk1::allocator<char> > >, std::__ndk1::monostate>::progress(std::__ndk1::shared_ptr<geode::Task<geode::Result<void, std::__ndk1::basic_string<char, std::__ndk1::char_traits<char>, std::__ndk1::allocator<char> > >, std::__ndk1::monostate>::Handle>, std::__ndk1::monostate&&)::{lambda()#1}, std::__ndk1::allocator<geode::Task<geode::Result<void, std::__ndk1::basic_string<char, std::__ndk1::char_traits<char>, std::__ndk1::allocator<char> > >, std::__ndk1::monostate>::progress(std::__ndk1::shared_ptr<geode::Task<geode::Result<void, std::__ndk1::basic_string<char, std::__ndk1::char_traits<char>, std::__ndk1::allocator<char> > >, std::__ndk1::monostate>::Handle>, std::__ndk1::monostate&&)::{lambda()#1}>, void ()>::__clone(std::__ndk1::__function::__base<void ()>*) const
FUNC 95e08 50 0 std::__ndk1::__function::__func<geode::Task<geode::Result<void, std::__ndk1::basic_string<char, std::__ndk1::char_traits<char>, std::__ndk1::allocator<char> > >, std::__ndk1::monostate>::progress(std::__ndk1::shared_ptr<geode::Task<geode::Result<void, std::__ndk1::basic_string<char, std::__ndk1::char_traits<char>, std::__ndk1::allocator<char> > >, std::__ndk1::monostate>::Handle>, std::__ndk1::monostate&&)::{lambda()#1}, std::__ndk1::allocator<geode::Task<geode::Result<void, std::__ndk1::basic_string<char, std::__ndk1::char_traits<char>, std::__ndk1::allocator<char> > >, std::__ndk1::monostate>::progress(std::__ndk1::shared_ptr<geode::Task<geode::Result<void, std::__ndk1::basic_string<char, std::__ndk1::char_traits<char>, std::__ndk1::allocator<char> > >, std::__ndk1::monostate>::Handle>, std::__ndk1::monostate&&)::{lambda()#1}>, void ()>::destroy()
FUNC 95e58 50 0 std::__ndk1::__function::__func<geode::Task<geode::Result<void, std::__ndk1::basic_string<char, std::__ndk1::char_traits<char>, std::__ndk1::allocator<char> > >, std::__ndk1::monostate>::progress(std::__ndk1::shared_ptr<geode::Task<geode::Result<void, std::__ndk1::basic_string<char, std::__ndk1::char_traits<char>, std::__ndk1::allocator<char> > >, std::__ndk1::monostate>::Handle>, std::__ndk1::monostate&&)::{lambda()#1}, std::__ndk1::allocator<geode::Task<geode::Result<void, std::__ndk1::basic_string<char, std::__ndk1::char_traits<char>, std::__ndk1::allocator<char> > >, std::__ndk1::monostate>::progress(std::__ndk1::shared_ptr<geode::Task<geode::Result<void, std::__ndk1::basic_string<char, std::__ndk1::char_traits<char>, std::__ndk1::allocator<char> > >, std::__ndk1::monostate>::Handle>, std::__ndk1::monostate&&)::{lambda()#1}>, void ()>::destroy_deallocate()
FUNC 95ea8 1b0 0 std::__ndk1::__function::__func<geode::Task<geode::Result<void, std::__ndk1::basic_string<char, std::__ndk1::char_traits<char>, std::__ndk1::allocator<char> > >, std::__ndk1::monostate>::progress(std::__ndk1::shared_ptr<geode::Task<geode::Result<void, std::__ndk1::basic_string<char, std::__ndk1::char_traits<char>, std::__ndk1::allocator<char> > >, std::__ndk1::monostate>::Handle>, std::__ndk1::monostate&&)::{lambda()#1}, std::__ndk1::allocator<geode::Task<geode::Result<void, std::__ndk1::basic_string<char, std::__ndk1::char_traits<char>, std::__ndk1::allocator<char> > >, std::__ndk1::monostate>::progress(std::__ndk1::shared_ptr<geode::Task<geode::Result<void, std::__ndk1::basic_string<char, std::__ndk1::char_traits<char>, std::__ndk1::allocator<char> > >, std::__ndk1::monostate>::Handle>, std::__ndk1::monostate&&)::{lambda()#1}>, void ()>::operator()()
FUNC 96058 1c 0 std::__ndk1::__function::__func<geode::Task<geode::Result<void, std::__ndk1::basic_string<char, std::__ndk1::char_traits<char>, std::__ndk1::allocator<char> > >, std::__ndk1::monostate>::progress(std::__ndk1::shared_ptr<geode::Task<geode::Result<void, std::__ndk1::basic_string<char, std::__ndk1::char_traits<char>, std::__ndk1::allocator<char> > >, std::__ndk1::monostate>::Handle>, std::__ndk1::monostate&&)::{lambda()#1}, std::__ndk1::allocator<geode::Task<geode::Result<void, std::__ndk1::basic_string<char, std::__ndk1::char_traits<char>, std::__ndk1::allocator<char> > >, std::__ndk1::monostate>::progress(std::__ndk1::shared_ptr<geode::Task<geode::Result<void, std::__ndk1::basic_string<char, std::__ndk1::char_traits<char>, std::__ndk1::allocator<char> > >, std::__ndk1::monostate>::Handle>, std::__ndk1::monostate&&)::{lambda()#1}>, void ()>::target(std::type_info const&) const
FUNC 96074 c 0 std::__ndk1::__function::__func<geode::Task<geode::Result<void, std::__ndk1::basic_string<char, std::__ndk1::char_traits<char>, std::__ndk1::allocator<char> > >, std::__ndk1::monostate>::progress(std::__ndk1::shared_ptr<geode::Task<geode::Result<void, std::__ndk1::basic_string<char, std::__ndk1::char_traits<char>, std::__ndk1::allocator<char> > >, std::__ndk1::monostate>::Handle>, std::__ndk1::monostate&&)::{lambda()#1}, std::__ndk1::allocator<geode::Task<geode::Result<void, std::__ndk1::basic_string<char, std::__ndk1::char_traits<char>, std::__ndk1::allocator<char> > >, std::__ndk1::monostate>::progress(std::__ndk1::shared_ptr<geode::Task<geode::Result<void, std::__ndk1::basic_string<char, std::__ndk1::char_traits<char>, std::__ndk1::allocator<char> > >, std::__ndk1::monostate>::Handle>, std::__ndk1::monostate&&)::{lambda()#1}>, void ()>::target_type() const
FUNC 96080 14 0 _ZZZNK5geode4TaskINS_6ResultINSt6__ndk16vectorI11DeathInfo_sNS2_9allocatorIS4_EEEENS2_12basic_stringIcNS2_11char_traitsIcEENS5_IcEEEEEENS2_9monostateEE5chainITkNS2_9invocableIPT_EEZZN7DTLayer19updateSessionStringERKiENK3$_0clEPSD_EUlSO_E_EEDTclfL1p_clL_ZNS2_7declvalB8ne180000ISO_EEDTclsr3stdE9__declvalISI_ELi0EEEvEEEESI_NS2_17basic_string_viewIcSA_EEENUlPNSF_5EventEE_clESW_ENUlPvE_8__invokeESY_
FUNC 96094 cc 0 _ZZZNK5geode4TaskINS_6ResultINSt6__ndk16vectorI11DeathInfo_sNS2_9allocatorIS4_EEEENS2_12basic_stringIcNS2_11char_traitsIcEENS5_IcEEEEEENS2_9monostateEE5chainITkNS2_9invocableIPT_EEZZN7DTLayer19updateSessionStringERKiENK3$_0clEPSD_EUlSO_E_EEDTclfL1p_clL_ZNS2_7declvalB8ne180000ISO_EEDTclsr3stdE9__declvalISI_ELi0EEEvEEEESI_NS2_17basic_string_viewIcSA_EEENUlPNSF_5EventEE_clESW_ENUlPvE0_8__invokeESY_
FUNC 96160 14 0 _ZZNK5geode4TaskINS_6ResultINSt6__ndk16vectorI11DeathInfo_sNS2_9allocatorIS4_EEEENS2_12basic_stringIcNS2_11char_traitsIcEENS5_IcEEEEEENS2_9monostateEE5chainITkNS2_9invocableIPT_EEZZN7DTLayer19updateSessionStringERKiENK3$_0clEPSD_EUlSO_E_EEDTclfL0p_clL_ZNS2_7declvalB8ne180000ISO_EEDTclsr3stdE9__declvalISI_ELi0EEEvEEEESI_NS2_17basic_string_viewIcSA_EEENUlPvE_8__invokeESV_
FUNC 96174 cc 0 _ZZNK5geode4TaskINS_6ResultINSt6__ndk16vectorI11DeathInfo_sNS2_9allocatorIS4_EEEENS2_12basic_stringIcNS2_11char_traitsIcEENS5_IcEEEEEENS2_9monostateEE5chainITkNS2_9invocableIPT_EEZZN7DTLayer19updateSessionStringERKiENK3$_0clEPSD_EUlSO_E_EEDTclfL0p_clL_ZNS2_7declvalB8ne180000ISO_EEDTclsr3stdE9__declvalISI_ELi0EEEvEEEESI_NS2_17basic_string_viewIcSA_EEENUlPvE0_8__invokeESV_
FUNC 96240 168 0 geode::Task<geode::Result<std::__ndk1::vector<DeathInfo_s, std::__ndk1::allocator<DeathInfo_s> >, std::__ndk1::basic_string<char, std::__ndk1::char_traits<char>, std::__ndk1::allocator<char> > >, std::__ndk1::monostate>::cancel(std::__ndk1::shared_ptr<geode::Task<geode::Result<std::__ndk1::vector<DeathInfo_s, std::__ndk1::allocator<DeathInfo_s> >, std::__ndk1::basic_string<char, std::__ndk1::char_traits<char>, std::__ndk1::allocator<char> > >, std::__ndk1::monostate>::Handle>, bool)
FUNC 963a8 50 0 geode::Task<geode::Result<std::__ndk1::vector<DeathInfo_s, std::__ndk1::allocator<DeathInfo_s> >, std::__ndk1::basic_string<char, std::__ndk1::char_traits<char>, std::__ndk1::allocator<char> > >, std::__ndk1::monostate>::cancel(std::__ndk1::shared_ptr<geode::Task<geode::Result<std::__ndk1::vector<DeathInfo_s, std::__ndk1::allocator<DeathInfo_s> >, std::__ndk1::basic_string<char, std::__ndk1::char_traits<char>, std::__ndk1::allocator<char> > >, std::__ndk1::monostate>::Handle>, bool)::{lambda()#1}::~{lambda()#1}()
FUNC 963f8 5c 0 std::__ndk1::__function::__func<geode::Task<geode::Result<std::__ndk1::vector<DeathInfo_s, std::__ndk1::allocator<DeathInfo_s> >, std::__ndk1::basic_string<char, std::__ndk1::char_traits<char>, std::__ndk1::allocator<char> > >, std::__ndk1::monostate>::cancel(std::__ndk1::shared_ptr<geode::Task<geode::Result<std::__ndk1::vector<DeathInfo_s, std::__ndk1::allocator<DeathInfo_s> >, std::__ndk1::basic_string<char, std::__ndk1::char_traits<char>, std::__ndk1::allocator<char> > >, std::__ndk1::monostate>::Handle>, bool)::{lambda()#1}, std::__ndk1::allocator<geode::Task<geode::Result<std::__ndk1::vector<DeathInfo_s, std::__ndk1::allocator<DeathInfo_s> >, std::__ndk1::basic_string<char, std::__ndk1::char_traits<char>, std::__ndk1::allocator<char> > >, std::__ndk1::monostate>::cancel(std::__ndk1::shared_ptr<geode::Task<geode::Result<std::__ndk1::vector<DeathInfo_s, std::__ndk1::allocator<DeathInfo_s> >, std::__ndk1::basic_string<char, std::__ndk1::char_traits<char>, std::__ndk1::allocator<char> > >, std::__ndk1::monostate>::Handle>, bool)::{lambda()#1}>, void ()>::~__func()
FUNC 96454 5c 0 std::__ndk1::__function::__func<geode::Task<geode::Result<std::__ndk1::vector<DeathInfo_s, std::__ndk1::allocator<DeathInfo_s> >, std::__ndk1::basic_string<char, std::__ndk1::char_traits<char>, std::__ndk1::allocator<char> > >, std::__ndk1::monostate>::cancel(std::__ndk1::shared_ptr<geode::Task<geode::Result<std::__ndk1::vector<DeathInfo_s, std::__ndk1::allocator<DeathInfo_s> >, std::__ndk1::basic_string<char, std::__ndk1::char_traits<char>, std::__ndk1::allocator<char> > >, std::__ndk1::monostate>::Handle>, bool)::{lambda()#1}, std::__ndk1::allocator<geode::Task<geode::Result<std::__ndk1::vector<DeathInfo_s, std::__ndk1::allocator<DeathInfo_s> >, std::__ndk1::basic_string<char, std::__ndk1::char_traits<char>, std::__ndk1::allocator<char> > >, std::__ndk1::monostate>::cancel(std::__ndk1::shared_ptr<geode::Task<geode::Result<std::__ndk1::vector<DeathInfo_s, std::__ndk1::allocator<DeathInfo_s> >, std::__ndk1::basic_string<char, std::__ndk1::char_traits<char>, std::__ndk1::allocator<char> > >, std::__ndk1::monostate>::Handle>, bool)::{lambda()#1}>, void ()>::~__func()
FUNC 964b0 50 0 std::__ndk1::__function::__func<geode::Task<geode::Result<std::__ndk1::vector<DeathInfo_s, std::__ndk1::allocator<DeathInfo_s> >, std::__ndk1::basic_string<char, std::__ndk1::char_traits<char>, std::__ndk1::allocator<char> > >, std::__ndk1::monostate>::cancel(std::__ndk1::shared_ptr<geode::Task<geode::Result<std::__ndk1::vector<DeathInfo_s, std::__ndk1::allocator<DeathInfo_s> >, std::__ndk1::basic_string<char, std::__ndk1::char_traits<char>, std::__ndk1::allocator<char> > >, std::__ndk1::monostate>::Handle>, bool)::{lambda()#1}, std::__ndk1::allocator<geode::Task<geode::Result<std::__ndk1::vector<DeathInfo_s, std::__ndk1::allocator<DeathInfo_s> >, std::__ndk1::basic_string<char, std::__ndk1::char_traits<char>, std::__ndk1::allocator<char> > >, std::__ndk1::monostate>::cancel(std::__ndk1::shared_ptr<geode::Task<geode::Result<std::__ndk1::vector<DeathInfo_s, std::__ndk1::allocator<DeathInfo_s> >, std::__ndk1::basic_string<char, std::__ndk1::char_traits<char>, std::__ndk1::allocator<char> > >, std::__ndk1::monostate>::Handle>, bool)::{lambda()#1}>, void ()>::__clone() const
FUNC 96500 34 0 std::__ndk1::__function::__func<geode::Task<geode::Result<std::__ndk1::vector<DeathInfo_s, std::__ndk1::allocator<DeathInfo_s> >, std::__ndk1::basic_string<char, std::__ndk1::char_traits<char>, std::__ndk1::allocator<char> > >, std::__ndk1::monostate>::cancel(std::__ndk1::shared_ptr<geode::Task<geode::Result<std::__ndk1::vector<DeathInfo_s, std::__ndk1::allocator<DeathInfo_s> >, std::__ndk1::basic_string<char, std::__ndk1::char_traits<char>, std::__ndk1::allocator<char> > >, std::__ndk1::monostate>::Handle>, bool)::{lambda()#1}, std::__ndk1::allocator<geode::Task<geode::Result<std::__ndk1::vector<DeathInfo_s, std::__ndk1::allocator<DeathInfo_s> >, std::__ndk1::basic_string<char, std::__ndk1::char_traits<char>, std::__ndk1::allocator<char> > >, std::__ndk1::monostate>::cancel(std::__ndk1::shared_ptr<geode::Task<geode::Result<std::__ndk1::vector<DeathInfo_s, std::__ndk1::allocator<DeathInfo_s> >, std::__ndk1::basic_string<char, std::__ndk1::char_traits<char>, std::__ndk1::allocator<char> > >, std::__ndk1::monostate>::Handle>, bool)::{lambda()#1}>, void ()>::__clone(std::__ndk1::__function::__base<void ()>*) const
FUNC 96534 50 0 std::__ndk1::__function::__func<geode::Task<geode::Result<std::__ndk1::vector<DeathInfo_s, std::__ndk1::allocator<DeathInfo_s> >, std::__ndk1::basic_string<char, std::__ndk1::char_traits<char>, std::__ndk1::allocator<char> > >, std::__ndk1::monostate>::cancel(std::__ndk1::shared_ptr<geode::Task<geode::Result<std::__ndk1::vector<DeathInfo_s, std::__ndk1::allocator<DeathInfo_s> >, std::__ndk1::basic_string<char, std::__ndk1::char_traits<char>, std::__ndk1::allocator<char> > >, std::__ndk1::monostate>::Handle>, bool)::{lambda()#1}, std::__ndk1::allocator<geode::Task<geode::Result<std::__ndk1::vector<DeathInfo_s, std::__ndk1::allocator<DeathInfo_s> >, std::__ndk1::basic_string<char, std::__ndk1::char_traits<char>, std::__ndk1::allocator<char> > >, std::__ndk1::monostate>::cancel(std::__ndk1::shared_ptr<geode::Task<geode::Result<std::__ndk1::vector<DeathInfo_s, std::__ndk1::allocator<DeathInfo_s> >, std::__ndk1::basic_string<char, std::__ndk1::char_traits<char>, std::__ndk1::allocator<char> > >, std::__ndk1::monostate>::Handle>, bool)::{lambda()#1}>, void ()>::destroy()
FUNC 96584 50 0 std::__ndk1::__function::__func<geode::Task<geode::Result<std::__ndk1::vector<DeathInfo_s, std::__ndk1::allocator<DeathInfo_s> >, std::__ndk1::basic_string<char, std::__ndk1::char_traits<char>, std::__ndk1::allocator<char> > >, std::__ndk1::monostate>::cancel(std::__ndk1::shared_ptr<geode::Task<geode::Result<std::__ndk1::vector<DeathInfo_s, std::__ndk1::allocator<DeathInfo_s> >, std::__ndk1::basic_string<char, std::__ndk1::char_traits<char>, std::__ndk1::allocator<char> > >, std::__ndk1::monostate>::Handle>, bool)::{lambda()#1}, std::__ndk1::allocator<geode::Task<geode::Result<std::__ndk1::vector<DeathInfo_s, std::__ndk1::allocator<DeathInfo_s> >, std::__ndk1::basic_string<char, std::__ndk1::char_traits<char>, std::__ndk1::allocator<char> > >, std::__ndk1::monostate>::cancel(std::__ndk1::shared_ptr<geode::Task<geode::Result<std::__ndk1::vector<DeathInfo_s, std::__ndk1::allocator<DeathInfo_s> >, std::__ndk1::basic_string<char, std::__ndk1::char_traits<char>, std::__ndk1::allocator<char> > >, std::__ndk1::monostate>::Handle>, bool)::{lambda()#1}>, void ()>::destroy_deallocate()
FUNC 965d4 1b8 0 std::__ndk1::__function::__func<geode::Task<geode::Result<std::__ndk1::vector<DeathInfo_s, std::__ndk1::allocator<DeathInfo_s> >, std::__ndk1::basic_string<char, std::__ndk1::char_traits<char>, std::__ndk1::allocator<char> > >, std::__ndk1::monostate>::cancel(std::__ndk1::shared_ptr<geode::Task<geode::Result<std::__ndk1::vector<DeathInfo_s, std::__ndk1::allocator<DeathInfo_s> >, std::__ndk1::basic_string<char, std::__ndk1::char_traits<char>, std::__ndk1::allocator<char> > >, std::__ndk1::monostate>::Handle>, bool)::{lambda()#1}, std::__ndk1::allocator<geode::Task<geode::Result<std::__ndk1::vector<DeathInfo_s, std::__ndk1::allocator<DeathInfo_s> >, std::__ndk1::basic_string<char, std::__ndk1::char_traits<char>, std::__ndk1::allocator<char> > >, std::__ndk1::monostate>::cancel(std::__ndk1::shared_ptr<geode::Task<geode::Result<std::__ndk1::vector<DeathInfo_s, std::__ndk1::allocator<DeathInfo_s> >, std::__ndk1::basic_string<char, std::__ndk1::char_traits<char>, std::__ndk1::allocator<char> > >, std::__ndk1::monostate>::Handle>, bool)::{lambda()#1}>, void ()>::operator()()
FUNC 9678c 1c 0 std::__ndk1::__function::__func<geode::Task<geode::Result<std::__ndk1::vector<DeathInfo_s, std::__ndk1::allocator<DeathInfo_s> >, std::__ndk1::basic_string<char, std::__ndk1::char_traits<char>, std::__ndk1::allocator<char> > >, std::__ndk1::monostate>::cancel(std::__ndk1::shared_ptr<geode::Task<geode::Result<std::__ndk1::vector<DeathInfo_s, std::__ndk1::allocator<DeathInfo_s> >, std::__ndk1::basic_string<char, std::__ndk1::char_traits<char>, std::__ndk1::allocator<char> > >, std::__ndk1::monostate>::Handle>, bool)::{lambda()#1}, std::__ndk1::allocator<geode::Task<geode::Result<std::__ndk1::vector<DeathInfo_s, std::__ndk1::allocator<DeathInfo_s> >, std::__ndk1::basic_string<char, std::__ndk1::char_traits<char>, std::__ndk1::allocator<char> > >, std::__ndk1::monostate>::cancel(std::__ndk1::shared_ptr<geode::Task<geode::Result<std::__ndk1::vector<DeathInfo_s, std::__ndk1::allocator<DeathInfo_s> >, std::__ndk1::basic_string<char, std::__ndk1::char_traits<char>, std::__ndk1::allocator<char> > >, std::__ndk1::monostate>::Handle>, bool)::{lambda()#1}>, void ()>::target(std::type_info const&) const
FUNC 967a8 c 0 std::__ndk1::__function::__func<geode::Task<geode::Result<std::__ndk1::vector<DeathInfo_s, std::__ndk1::allocator<DeathInfo_s> >, std::__ndk1::basic_string<char, std::__ndk1::char_traits<char>, std::__ndk1::allocator<char> > >, std::__ndk1::monostate>::cancel(std::__ndk1::shared_ptr<geode::Task<geode::Result<std::__ndk1::vector<DeathInfo_s, std::__ndk1::allocator<DeathInfo_s> >, std::__ndk1::basic_string<char, std::__ndk1::char_traits<char>, std::__ndk1::allocator<char> > >, std::__ndk1::monostate>::Handle>, bool)::{lambda()#1}, std::__ndk1::allocator<geode::Task<geode::Result<std::__ndk1::vector<DeathInfo_s, std::__ndk1::allocator<DeathInfo_s> >, std::__ndk1::basic_string<char, std::__ndk1::char_traits<char>, std::__ndk1::allocator<char> > >, std::__ndk1::monostate>::cancel(std::__ndk1::shared_ptr<geode::Task<geode::Result<std::__ndk1::vector<DeathInfo_s, std::__ndk1::allocator<DeathInfo_s> >, std::__ndk1::basic_string<char, std::__ndk1::char_traits<char>, std::__ndk1::allocator<char> > >, std::__ndk1::monostate>::Handle>, bool)::{lambda()#1}>, void ()>::target_type() const
FUNC 967b4 50 0 geode::Task<geode::Result<std::__ndk1::vector<DeathInfo_s, std::__ndk1::allocator<DeathInfo_s> >, std::__ndk1::basic_string<char, std::__ndk1::char_traits<char>, std::__ndk1::allocator<char> > >, std::__ndk1::monostate>::Event::~Event()
FUNC 96804 58 0 geode::Task<geode::Result<std::__ndk1::vector<DeathInfo_s, std::__ndk1::allocator<DeathInfo_s> >, std::__ndk1::basic_string<char, std::__ndk1::char_traits<char>, std::__ndk1::allocator<char> > >, std::__ndk1::monostate>::Event::~Event()
FUNC 9685c 5c 0 _ZNSt6__ndk110__function6__funcIZNK5geode4TaskINS2_6ResultINS_6vectorI11DeathInfo_sNS_9allocatorIS6_EEEENS_12basic_stringIcNS_11char_traitsIcEENS7_IcEEEEEENS_9monostateEE5chainITkNS_9invocableIPT_EEZN7DTLayer19updateSessionStringERKiE3$_0EEDTclfL0p_clL_ZNS_7declvalB8ne180000IPSF_EEDTclsr3stdE9__declvalISK_ELi0EEEvEEEESK_NS_17basic_string_viewIcSC_EEEUlPNSH_5EventEE_NS7_ISY_EEFvSX_EED2Ev
FUNC 968b8 58 0 _ZNSt6__ndk110__function6__funcIZNK5geode4TaskINS2_6ResultINS_6vectorI11DeathInfo_sNS_9allocatorIS6_EEEENS_12basic_stringIcNS_11char_traitsIcEENS7_IcEEEEEENS_9monostateEE5chainITkNS_9invocableIPT_EEZN7DTLayer19updateSessionStringERKiE3$_0EEDTclfL0p_clL_ZNS_7declvalB8ne180000IPSF_EEDTclsr3stdE9__declvalISK_ELi0EEEvEEEESK_NS_17basic_string_viewIcSC_EEEUlPNSH_5EventEE_NS7_ISY_EEFvSX_EED0Ev
FUNC 96910 88 0 _ZNKSt6__ndk110__function6__funcIZNK5geode4TaskINS2_6ResultINS_6vectorI11DeathInfo_sNS_9allocatorIS6_EEEENS_12basic_stringIcNS_11char_traitsIcEENS7_IcEEEEEENS_9monostateEE5chainITkNS_9invocableIPT_EEZN7DTLayer19updateSessionStringERKiE3$_0EEDTclfL0p_clL_ZNS_7declvalB8ne180000IPSF_EEDTclsr3stdE9__declvalISK_ELi0EEEvEEEESK_NS_17basic_string_viewIcSC_EEEUlPNSH_5EventEE_NS7_ISY_EEFvSX_EE7__cloneEv
FUNC 96998 74 0 _ZNKSt6__ndk110__function6__funcIZNK5geode4TaskINS2_6ResultINS_6vectorI11DeathInfo_sNS_9allocatorIS6_EEEENS_12basic_stringIcNS_11char_traitsIcEENS7_IcEEEEEENS_9monostateEE5chainITkNS_9invocableIPT_EEZN7DTLayer19updateSessionStringERKiE3$_0EEDTclfL0p_clL_ZNS_7declvalB8ne180000IPSF_EEDTclsr3stdE9__declvalISK_ELi0EEEvEEEESK_NS_17basic_string_viewIcSC_EEEUlPNSH_5EventEE_NS7_ISY_EEFvSX_EE7__cloneEPNS0_6__baseIS10_EE
FUNC 96a0c 54 0 _ZNSt6__ndk110__function6__funcIZNK5geode4TaskINS2_6ResultINS_6vectorI11DeathInfo_sNS_9allocatorIS6_EEEENS_12basic_stringIcNS_11char_traitsIcEENS7_IcEEEEEENS_9monostateEE5chainITkNS_9invocableIPT_EEZN7DTLayer19updateSessionStringERKiE3$_0EEDTclfL0p_clL_ZNS_7declvalB8ne180000IPSF_EEDTclsr3stdE9__declvalISK_ELi0EEEvEEEESK_NS_17basic_string_viewIcSC_EEEUlPNSH_5EventEE_NS7_ISY_EEFvSX_EE7destroyEv
FUNC 96a60 50 0 _ZNSt6__ndk110__function6__funcIZNK5geode4TaskINS2_6ResultINS_6vectorI11DeathInfo_sNS_9allocatorIS6_EEEENS_12basic_stringIcNS_11char_traitsIcEENS7_IcEEEEEENS_9monostateEE5chainITkNS_9invocableIPT_EEZN7DTLayer19updateSessionStringERKiE3$_0EEDTclfL0p_clL_ZNS_7declvalB8ne180000IPSF_EEDTclsr3stdE9__declvalISK_ELi0EEEvEEEESK_NS_17basic_string_viewIcSC_EEEUlPNSH_5EventEE_NS7_ISY_EEFvSX_EE18destroy_deallocateEv
FUNC 96ab0 300 0 _ZNSt6__ndk110__function6__funcIZNK5geode4TaskINS2_6ResultINS_6vectorI11DeathInfo_sNS_9allocatorIS6_EEEENS_12basic_stringIcNS_11char_traitsIcEENS7_IcEEEEEENS_9monostateEE5chainITkNS_9invocableIPT_EEZN7DTLayer19updateSessionStringERKiE3$_0EEDTclfL0p_clL_ZNS_7declvalB8ne180000IPSF_EEDTclsr3stdE9__declvalISK_ELi0EEEvEEEESK_NS_17basic_string_viewIcSC_EEEUlPNSH_5EventEE_NS7_ISY_EEFvSX_EEclEOSX_
FUNC 96db0 1c 0 _ZNKSt6__ndk110__function6__funcIZNK5geode4TaskINS2_6ResultINS_6vectorI11DeathInfo_sNS_9allocatorIS6_EEEENS_12basic_stringIcNS_11char_traitsIcEENS7_IcEEEEEENS_9monostateEE5chainITkNS_9invocableIPT_EEZN7DTLayer19updateSessionStringERKiE3$_0EEDTclfL0p_clL_ZNS_7declvalB8ne180000IPSF_EEDTclsr3stdE9__declvalISK_ELi0EEEvEEEESK_NS_17basic_string_viewIcSC_EEEUlPNSH_5EventEE_NS7_ISY_EEFvSX_EE6targetERKSt9type_info
FUNC 96dcc c 0 _ZNKSt6__ndk110__function6__funcIZNK5geode4TaskINS2_6ResultINS_6vectorI11DeathInfo_sNS_9allocatorIS6_EEEENS_12basic_stringIcNS_11char_traitsIcEENS7_IcEEEEEENS_9monostateEE5chainITkNS_9invocableIPT_EEZN7DTLayer19updateSessionStringERKiE3$_0EEDTclfL0p_clL_ZNS_7declvalB8ne180000IPSF_EEDTclsr3stdE9__declvalISK_ELi0EEEvEEEESK_NS_17basic_string_viewIcSC_EEEUlPNSH_5EventEE_NS7_ISY_EEFvSX_EE11target_typeEv
FUNC 96dd8 20 0 _ZNSt6__ndk110__function6__funcIZZNK5geode4TaskINS2_6ResultINS_6vectorI11DeathInfo_sNS_9allocatorIS6_EEEENS_12basic_stringIcNS_11char_traitsIcEENS7_IcEEEEEENS_9monostateEE5chainITkNS_9invocableIPT_EEZN7DTLayer19updateSessionStringERKiE3$_0EEDTclfL1p_clL_ZNS_7declvalB8ne180000IPSF_EEDTclsr3stdE9__declvalISK_ELi0EEEvEEEESK_NS_17basic_string_viewIcSC_EEENUlPNSH_5EventEE_clESX_EUlPNS3_INS4_IvSE_EESG_E5EventEE_NS7_IS13_EEFvS12_EED2Ev
FUNC 96df8 3c 0 _ZNSt6__ndk110__function6__funcIZZNK5geode4TaskINS2_6ResultINS_6vectorI11DeathInfo_sNS_9allocatorIS6_EEEENS_12basic_stringIcNS_11char_traitsIcEENS7_IcEEEEEENS_9monostateEE5chainITkNS_9invocableIPT_EEZN7DTLayer19updateSessionStringERKiE3$_0EEDTclfL1p_clL_ZNS_7declvalB8ne180000IPSF_EEDTclsr3stdE9__declvalISK_ELi0EEEvEEEESK_NS_17basic_string_viewIcSC_EEENUlPNSH_5EventEE_clESX_EUlPNS3_INS4_IvSE_EESG_E5EventEE_NS7_IS13_EEFvS12_EED0Ev
FUNC 96e34 50 0 _ZNKSt6__ndk110__function6__funcIZZNK5geode4TaskINS2_6ResultINS_6vectorI11DeathInfo_sNS_9allocatorIS6_EEEENS_12basic_stringIcNS_11char_traitsIcEENS7_IcEEEEEENS_9monostateEE5chainITkNS_9invocableIPT_EEZN7DTLayer19updateSessionStringERKiE3$_0EEDTclfL1p_clL_ZNS_7declvalB8ne180000IPSF_EEDTclsr3stdE9__declvalISK_ELi0EEEvEEEESK_NS_17basic_string_viewIcSC_EEENUlPNSH_5EventEE_clESX_EUlPNS3_INS4_IvSE_EESG_E5EventEE_NS7_IS13_EEFvS12_EE7__cloneEv
FUNC 96e84 34 0 _ZNKSt6__ndk110__function6__funcIZZNK5geode4TaskINS2_6ResultINS_6vectorI11DeathInfo_sNS_9allocatorIS6_EEEENS_12basic_stringIcNS_11char_traitsIcEENS7_IcEEEEEENS_9monostateEE5chainITkNS_9invocableIPT_EEZN7DTLayer19updateSessionStringERKiE3$_0EEDTclfL1p_clL_ZNS_7declvalB8ne180000IPSF_EEDTclsr3stdE9__declvalISK_ELi0EEEvEEEESK_NS_17basic_string_viewIcSC_EEENUlPNSH_5EventEE_clESX_EUlPNS3_INS4_IvSE_EESG_E5EventEE_NS7_IS13_EEFvS12_EE7__cloneEPNS0_6__baseIS15_EE
FUNC 96eb8 10 0 _ZNSt6__ndk110__function6__funcIZZNK5geode4TaskINS2_6ResultINS_6vectorI11DeathInfo_sNS_9allocatorIS6_EEEENS_12basic_stringIcNS_11char_traitsIcEENS7_IcEEEEEENS_9monostateEE5chainITkNS_9invocableIPT_EEZN7DTLayer19updateSessionStringERKiE3$_0EEDTclfL1p_clL_ZNS_7declvalB8ne180000IPSF_EEDTclsr3stdE9__declvalISK_ELi0EEEvEEEESK_NS_17basic_string_viewIcSC_EEENUlPNSH_5EventEE_clESX_EUlPNS3_INS4_IvSE_EESG_E5EventEE_NS7_IS13_EEFvS12_EE7destroyEv
FUNC 96ec8 30 0 _ZNSt6__ndk110__function6__funcIZZNK5geode4TaskINS2_6ResultINS_6vectorI11DeathInfo_sNS_9allocatorIS6_EEEENS_12basic_stringIcNS_11char_traitsIcEENS7_IcEEEEEENS_9monostateEE5chainITkNS_9invocableIPT_EEZN7DTLayer19updateSessionStringERKiE3$_0EEDTclfL1p_clL_ZNS_7declvalB8ne180000IPSF_EEDTclsr3stdE9__declvalISK_ELi0EEEvEEEESK_NS_17basic_string_viewIcSC_EEENUlPNSH_5EventEE_clESX_EUlPNS3_INS4_IvSE_EESG_E5EventEE_NS7_IS13_EEFvS12_EE18destroy_deallocateEv
FUNC 96ef8 194 0 _ZNSt6__ndk110__function6__funcIZZNK5geode4TaskINS2_6ResultINS_6vectorI11DeathInfo_sNS_9allocatorIS6_EEEENS_12basic_stringIcNS_11char_traitsIcEENS7_IcEEEEEENS_9monostateEE5chainITkNS_9invocableIPT_EEZN7DTLayer19updateSessionStringERKiE3$_0EEDTclfL1p_clL_ZNS_7declvalB8ne180000IPSF_EEDTclsr3stdE9__declvalISK_ELi0EEEvEEEESK_NS_17basic_string_viewIcSC_EEENUlPNSH_5EventEE_clESX_EUlPNS3_INS4_IvSE_EESG_E5EventEE_NS7_IS13_EEFvS12_EEclEOS12_
FUNC 9708c 1c 0 _ZNKSt6__ndk110__function6__funcIZZNK5geode4TaskINS2_6ResultINS_6vectorI11DeathInfo_sNS_9allocatorIS6_EEEENS_12basic_stringIcNS_11char_traitsIcEENS7_IcEEEEEENS_9monostateEE5chainITkNS_9invocableIPT_EEZN7DTLayer19updateSessionStringERKiE3$_0EEDTclfL1p_clL_ZNS_7declvalB8ne180000IPSF_EEDTclsr3stdE9__declvalISK_ELi0EEEvEEEESK_NS_17basic_string_viewIcSC_EEENUlPNSH_5EventEE_clESX_EUlPNS3_INS4_IvSE_EESG_E5EventEE_NS7_IS13_EEFvS12_EE6targetERKSt9type_info
FUNC 970a8 c 0 _ZNKSt6__ndk110__function6__funcIZZNK5geode4TaskINS2_6ResultINS_6vectorI11DeathInfo_sNS_9allocatorIS6_EEEENS_12basic_stringIcNS_11char_traitsIcEENS7_IcEEEEEENS_9monostateEE5chainITkNS_9invocableIPT_EEZN7DTLayer19updateSessionStringERKiE3$_0EEDTclfL1p_clL_ZNS_7declvalB8ne180000IPSF_EEDTclsr3stdE9__declvalISK_ELi0EEEvEEEESK_NS_17basic_string_viewIcSC_EEENUlPNSH_5EventEE_clESX_EUlPNS3_INS4_IvSE_EESG_E5EventEE_NS7_IS13_EEFvS12_EE11target_typeEv
FUNC 970b4 14 0 _ZZZNK5geode4TaskINS_6ResultINSt6__ndk16vectorI11DeathInfo_sNS2_9allocatorIS4_EEEENS2_12basic_stringIcNS2_11char_traitsIcEENS5_IcEEEEEENS2_9monostateEE5chainITkNS2_9invocableIPT_EEZN7DTLayer19updateSessionStringERKiE3$_0EEDTclfL1p_clL_ZNS2_7declvalB8ne180000IPSD_EEDTclsr3stdE9__declvalISI_ELi0EEEvEEEESI_NS2_17basic_string_viewIcSA_EEENUlPNSF_5EventEE_clESV_ENUlPvE_8__invokeESX_
FUNC 970c8 cc 0 _ZZZNK5geode4TaskINS_6ResultINSt6__ndk16vectorI11DeathInfo_sNS2_9allocatorIS4_EEEENS2_12basic_stringIcNS2_11char_traitsIcEENS5_IcEEEEEENS2_9monostateEE5chainITkNS2_9invocableIPT_EEZN7DTLayer19updateSessionStringERKiE3$_0EEDTclfL1p_clL_ZNS2_7declvalB8ne180000IPSD_EEDTclsr3stdE9__declvalISI_ELi0EEEvEEEESI_NS2_17basic_string_viewIcSA_EEENUlPNSF_5EventEE_clESV_ENUlPvE0_8__invokeESX_
FUNC 97194 4 0 geode::EventListener<geode::Task<geode::Result<std::__ndk1::vector<DeathInfo_s, std::__ndk1::allocator<DeathInfo_s> >, std::__ndk1::basic_string<char, std::__ndk1::char_traits<char>, std::__ndk1::allocator<char> > >, std::__ndk1::monostate> >::getPool() const
FUNC 97198 1ac 0 geode::EventListener<geode::Task<geode::Result<std::__ndk1::vector<DeathInfo_s, std::__ndk1::allocator<DeathInfo_s> >, std::__ndk1::basic_string<char, std::__ndk1::char_traits<char>, std::__ndk1::allocator<char> > >, std::__ndk1::monostate> >::handle(geode::Event*)
FUNC 97344 8c 0 geode::EventListener<geode::Task<geode::Result<std::__ndk1::vector<DeathInfo_s, std::__ndk1::allocator<DeathInfo_s> >, std::__ndk1::basic_string<char, std::__ndk1::char_traits<char>, std::__ndk1::allocator<char> > >, std::__ndk1::monostate> >::~EventListener()
FUNC 973d0 94 0 geode::EventListener<geode::Task<geode::Result<std::__ndk1::vector<DeathInfo_s, std::__ndk1::allocator<DeathInfo_s> >, std::__ndk1::basic_string<char, std::__ndk1::char_traits<char>, std::__ndk1::allocator<char> > >, std::__ndk1::monostate> >::~EventListener()
FUNC 97464 50 0 geode::Task<geode::Result<std::__ndk1::vector<DeathInfo_s, std::__ndk1::allocator<DeathInfo_s> >, std::__ndk1::basic_string<char, std::__ndk1::char_traits<char>, std::__ndk1::allocator<char> > >, std::__ndk1::monostate>::setListener(geode::EventListenerProtocol*)::{lambda()#1}::~{lambda()#1}()
FUNC 974b4 50 0 geode::Task<geode::Result<std::__ndk1::vector<DeathInfo_s, std::__ndk1::allocator<DeathInfo_s> >, std::__ndk1::basic_string<char, std::__ndk1::char_traits<char>, std::__ndk1::allocator<char> > >, std::__ndk1::monostate>::setListener(geode::EventListenerProtocol*)::{lambda()#2}::~{lambda()#2}()
FUNC 97504 5c 0 std::__ndk1::__function::__func<geode::Task<geode::Result<std::__ndk1::vector<DeathInfo_s, std::__ndk1::allocator<DeathInfo_s> >, std::__ndk1::basic_string<char, std::__ndk1::char_traits<char>, std::__ndk1::allocator<char> > >, std::__ndk1::monostate>::setListener(geode::EventListenerProtocol*)::{lambda()#1}, std::__ndk1::allocator<geode::Task<geode::Result<std::__ndk1::vector<DeathInfo_s, std::__ndk1::allocator<DeathInfo_s> >, std::__ndk1::basic_string<char, std::__ndk1::char_traits<char>, std::__ndk1::allocator<char> > >, std::__ndk1::monostate>::setListener(geode::EventListenerProtocol*)::{lambda()#1}>, void ()>::~__func()
FUNC 97560 5c 0 std::__ndk1::__function::__func<geode::Task<geode::Result<std::__ndk1::vector<DeathInfo_s, std::__ndk1::allocator<DeathInfo_s> >, std::__ndk1::basic_string<char, std::__ndk1::char_traits<char>, std::__ndk1::allocator<char> > >, std::__ndk1::monostate>::setListener(geode::EventListenerProtocol*)::{lambda()#1}, std::__ndk1::allocator<geode::Task<geode::Result<std::__ndk1::vector<DeathInfo_s, std::__ndk1::allocator<DeathInfo_s> >, std::__ndk1::basic_string<char, std::__ndk1::char_traits<char>, std::__ndk1::allocator<char> > >, std::__ndk1::monostate>::setListener(geode::EventListenerProtocol*)::{lambda()#1}>, void ()>::~__func()
FUNC 975bc 58 0 std::__ndk1::__function::__func<geode::Task<geode::Result<std::__ndk1::vector<DeathInfo_s, std::__ndk1::allocator<DeathInfo_s> >, std::__ndk1::basic_string<char, std::__ndk1::char_traits<char>, std::__ndk1::allocator<char> > >, std::__ndk1::monostate>::setListener(geode::EventListenerProtocol*)::{lambda()#1}, std::__ndk1::allocator<geode::Task<geode::Result<std::__ndk1::vector<DeathInfo_s, std::__ndk1::allocator<DeathInfo_s> >, std::__ndk1::basic_string<char, std::__ndk1::char_traits<char>, std::__ndk1::allocator<char> > >, std::__ndk1::monostate>::setListener(geode::EventListenerProtocol*)::{lambda()#1}>, void ()>::__clone() const
FUNC 97614 4c 0 std::__ndk1::__function::__func<geode::Task<geode::Result<std::__ndk1::vector<DeathInfo_s, std::__ndk1::allocator<DeathInfo_s> >, std::__ndk1::basic_string<char, std::__ndk1::char_traits<char>, std::__ndk1::allocator<char> > >, std::__ndk1::monostate>::setListener(geode::EventListenerProtocol*)::{lambda()#1}, std::__ndk1::allocator<geode::Task<geode::Result<std::__ndk1::vector<DeathInfo_s, std::__ndk1::allocator<DeathInfo_s> >, std::__ndk1::basic_string<char, std::__ndk1::char_traits<char>, std::__ndk1::allocator<char> > >, std::__ndk1::monostate>::setListener(geode::EventListenerProtocol*)::{lambda()#1}>, void ()>::__clone(std::__ndk1::__function::__base<void ()>*) const
FUNC 97660 50 0 std::__ndk1::__function::__func<geode::Task<geode::Result<std::__ndk1::vector<DeathInfo_s, std::__ndk1::allocator<DeathInfo_s> >, std::__ndk1::basic_string<char, std::__ndk1::char_traits<char>, std::__ndk1::allocator<char> > >, std::__ndk1::monostate>::setListener(geode::EventListenerProtocol*)::{lambda()#1}, std::__ndk1::allocator<geode::Task<geode::Result<std::__ndk1::vector<DeathInfo_s, std::__ndk1::allocator<DeathInfo_s> >, std::__ndk1::basic_string<char, std::__ndk1::char_traits<char>, std::__ndk1::allocator<char> > >, std::__ndk1::monostate>::setListener(geode::EventListenerProtocol*)::{lambda()#1}>, void ()>::destroy()
FUNC 976b0 50 0 std::__ndk1::__function::__func<geode::Task<geode::Result<std::__ndk1::vector<DeathInfo_s, std::__ndk1::allocator<DeathInfo_s> >, std::__ndk1::basic_string<char, std::__ndk1::char_traits<char>, std::__ndk1::allocator<char> > >, std::__ndk1::monostate>::setListener(geode::EventListenerProtocol*)::{lambda()#1}, std::__ndk1::allocator<geode::Task<geode::Result<std::__ndk1::vector<DeathInfo_s, std::__ndk1::allocator<DeathInfo_s> >, std::__ndk1::basic_string<char, std::__ndk1::char_traits<char>, std::__ndk1::allocator<char> > >, std::__ndk1::monostate>::setListener(geode::EventListenerProtocol*)::{lambda()#1}>, void ()>::destroy_deallocate()
FUNC 97700 198 0 std::__ndk1::__function::__func<geode::Task<geode::Result<std::__ndk1::vector<DeathInfo_s, std::__ndk1::allocator<DeathInfo_s> >, std::__ndk1::basic_string<char, std::__ndk1::char_traits<char>, std::__ndk1::allocator<char> > >, std::__ndk1::monostate>::setListener(geode::EventListenerProtocol*)::{lambda()#1}, std::__ndk1::allocator<geode::Task<geode::Result<std::__ndk1::vector<DeathInfo_s, std::__ndk1::allocator<DeathInfo_s> >, std::__ndk1::basic_string<char, std::__ndk1::char_traits<char>, std::__ndk1::allocator<char> > >, std::__ndk1::monostate>::setListener(geode::EventListenerProtocol*)::{lambda()#1}>, void ()>::operator()()
FUNC 97898 1c 0 std::__ndk1::__function::__func<geode::Task<geode::Result<std::__ndk1::vector<DeathInfo_s, std::__ndk1::allocator<DeathInfo_s> >, std::__ndk1::basic_string<char, std::__ndk1::char_traits<char>, std::__ndk1::allocator<char> > >, std::__ndk1::monostate>::setListener(geode::EventListenerProtocol*)::{lambda()#1}, std::__ndk1::allocator<geode::Task<geode::Result<std::__ndk1::vector<DeathInfo_s, std::__ndk1::allocator<DeathInfo_s> >, std::__ndk1::basic_string<char, std::__ndk1::char_traits<char>, std::__ndk1::allocator<char> > >, std::__ndk1::monostate>::setListener(geode::EventListenerProtocol*)::{lambda()#1}>, void ()>::target(std::type_info const&) const
FUNC 978b4 c 0 std::__ndk1::__function::__func<geode::Task<geode::Result<std::__ndk1::vector<DeathInfo_s, std::__ndk1::allocator<DeathInfo_s> >, std::__ndk1::basic_string<char, std::__ndk1::char_traits<char>, std::__ndk1::allocator<char> > >, std::__ndk1::monostate>::setListener(geode::EventListenerProtocol*)::{lambda()#1}, std::__ndk1::allocator<geode::Task<geode::Result<std::__ndk1::vector<DeathInfo_s, std::__ndk1::allocator<DeathInfo_s> >, std::__ndk1::basic_string<char, std::__ndk1::char_traits<char>, std::__ndk1::allocator<char> > >, std::__ndk1::monostate>::setListener(geode::EventListenerProtocol*)::{lambda()#1}>, void ()>::target_type() const
FUNC 978c0 5c 0 std::__ndk1::__function::__func<geode::Task<geode::Result<std::__ndk1::vector<DeathInfo_s, std::__ndk1::allocator<DeathInfo_s> >, std::__ndk1::basic_string<char, std::__ndk1::char_traits<char>, std::__ndk1::allocator<char> > >, std::__ndk1::monostate>::setListener(geode::EventListenerProtocol*)::{lambda()#2}, std::__ndk1::allocator<geode::Task<geode::Result<std::__ndk1::vector<DeathInfo_s, std::__ndk1::allocator<DeathInfo_s> >, std::__ndk1::basic_string<char, std::__ndk1::char_traits<char>, std::__ndk1::allocator<char> > >, std::__ndk1::monostate>::setListener(geode::EventListenerProtocol*)::{lambda()#2}>, void ()>::~__func()
FUNC 9791c 5c 0 std::__ndk1::__function::__func<geode::Task<geode::Result<std::__ndk1::vector<DeathInfo_s, std::__ndk1::allocator<DeathInfo_s> >, std::__ndk1::basic_string<char, std::__ndk1::char_traits<char>, std::__ndk1::allocator<char> > >, std::__ndk1::monostate>::setListener(geode::EventListenerProtocol*)::{lambda()#2}, std::__ndk1::allocator<geode::Task<geode::Result<std::__ndk1::vector<DeathInfo_s, std::__ndk1::allocator<DeathInfo_s> >, std::__ndk1::basic_string<char, std::__ndk1::char_traits<char>, std::__ndk1::allocator<char> > >, std::__ndk1::monostate>::setListener(geode::EventListenerProtocol*)::{lambda()#2}>, void ()>::~__func()
FUNC 97978 58 0 std::__ndk1::__function::__func<geode::Task<geode::Result<std::__ndk1::vector<DeathInfo_s, std::__ndk1::allocator<DeathInfo_s> >, std::__ndk1::basic_string<char, std::__ndk1::char_traits<char>, std::__ndk1::allocator<char> > >, std::__ndk1::monostate>::setListener(geode::EventListenerProtocol*)::{lambda()#2}, std::__ndk1::allocator<geode::Task<geode::Result<std::__ndk1::vector<DeathInfo_s, std::__ndk1::allocator<DeathInfo_s> >, std::__ndk1::basic_string<char, std::__ndk1::char_traits<char>, std::__ndk1::allocator<char> > >, std::__ndk1::monostate>::setListener(geode::EventListenerProtocol*)::{lambda()#2}>, void ()>::__clone() const
FUNC 979d0 4c 0 std::__ndk1::__function::__func<geode::Task<geode::Result<std::__ndk1::vector<DeathInfo_s, std::__ndk1::allocator<DeathInfo_s> >, std::__ndk1::basic_string<char, std::__ndk1::char_traits<char>, std::__ndk1::allocator<char> > >, std::__ndk1::monostate>::setListener(geode::EventListenerProtocol*)::{lambda()#2}, std::__ndk1::allocator<geode::Task<geode::Result<std::__ndk1::vector<DeathInfo_s, std::__ndk1::allocator<DeathInfo_s> >, std::__ndk1::basic_string<char, std::__ndk1::char_traits<char>, std::__ndk1::allocator<char> > >, std::__ndk1::monostate>::setListener(geode::EventListenerProtocol*)::{lambda()#2}>, void ()>::__clone(std::__ndk1::__function::__base<void ()>*) const
FUNC 97a1c 50 0 std::__ndk1::__function::__func<geode::Task<geode::Result<std::__ndk1::vector<DeathInfo_s, std::__ndk1::allocator<DeathInfo_s> >, std::__ndk1::basic_string<char, std::__ndk1::char_traits<char>, std::__ndk1::allocator<char> > >, std::__ndk1::monostate>::setListener(geode::EventListenerProtocol*)::{lambda()#2}, std::__ndk1::allocator<geode::Task<geode::Result<std::__ndk1::vector<DeathInfo_s, std::__ndk1::allocator<DeathInfo_s> >, std::__ndk1::basic_string<char, std::__ndk1::char_traits<char>, std::__ndk1::allocator<char> > >, std::__ndk1::monostate>::setListener(geode::EventListenerProtocol*)::{lambda()#2}>, void ()>::destroy()
FUNC 97a6c 50 0 std::__ndk1::__function::__func<geode::Task<geode::Result<std::__ndk1::vector<DeathInfo_s, std::__ndk1::allocator<DeathInfo_s> >, std::__ndk1::basic_string<char, std::__ndk1::char_traits<char>, std::__ndk1::allocator<char> > >, std::__ndk1::monostate>::setListener(geode::EventListenerProtocol*)::{lambda()#2}, std::__ndk1::allocator<geode::Task<geode::Result<std::__ndk1::vector<DeathInfo_s, std::__ndk1::allocator<DeathInfo_s> >, std::__ndk1::basic_string<char, std::__ndk1::char_traits<char>, std::__ndk1::allocator<char> > >, std::__ndk1::monostate>::setListener(geode::EventListenerProtocol*)::{lambda()#2}>, void ()>::destroy_deallocate()
FUNC 97abc 188 0 std::__ndk1::__function::__func<geode::Task<geode::Result<std::__ndk1::vector<DeathInfo_s, std::__ndk1::allocator<DeathInfo_s> >, std::__ndk1::basic_string<char, std::__ndk1::char_traits<char>, std::__ndk1::allocator<char> > >, std::__ndk1::monostate>::setListener(geode::EventListenerProtocol*)::{lambda()#2}, std::__ndk1::allocator<geode::Task<geode::Result<std::__ndk1::vector<DeathInfo_s, std::__ndk1::allocator<DeathInfo_s> >, std::__ndk1::basic_string<char, std::__ndk1::char_traits<char>, std::__ndk1::allocator<char> > >, std::__ndk1::monostate>::setListener(geode::EventListenerProtocol*)::{lambda()#2}>, void ()>::operator()()
FUNC 97c44 1c 0 std::__ndk1::__function::__func<geode::Task<geode::Result<std::__ndk1::vector<DeathInfo_s, std::__ndk1::allocator<DeathInfo_s> >, std::__ndk1::basic_string<char, std::__ndk1::char_traits<char>, std::__ndk1::allocator<char> > >, std::__ndk1::monostate>::setListener(geode::EventListenerProtocol*)::{lambda()#2}, std::__ndk1::allocator<geode::Task<geode::Result<std::__ndk1::vector<DeathInfo_s, std::__ndk1::allocator<DeathInfo_s> >, std::__ndk1::basic_string<char, std::__ndk1::char_traits<char>, std::__ndk1::allocator<char> > >, std::__ndk1::monostate>::setListener(geode::EventListenerProtocol*)::{lambda()#2}>, void ()>::target(std::type_info const&) const
FUNC 97c60 c 0 std::__ndk1::__function::__func<geode::Task<geode::Result<std::__ndk1::vector<DeathInfo_s, std::__ndk1::allocator<DeathInfo_s> >, std::__ndk1::basic_string<char, std::__ndk1::char_traits<char>, std::__ndk1::allocator<char> > >, std::__ndk1::monostate>::setListener(geode::EventListenerProtocol*)::{lambda()#2}, std::__ndk1::allocator<geode::Task<geode::Result<std::__ndk1::vector<DeathInfo_s, std::__ndk1::allocator<DeathInfo_s> >, std::__ndk1::basic_string<char, std::__ndk1::char_traits<char>, std::__ndk1::allocator<char> > >, std::__ndk1::monostate>::setListener(geode::EventListenerProtocol*)::{lambda()#2}>, void ()>::target_type() const
FUNC 97c6c 14 0 _ZZNK5geode4TaskINS_6ResultINSt6__ndk16vectorI11DeathInfo_sNS2_9allocatorIS4_EEEENS2_12basic_stringIcNS2_11char_traitsIcEENS5_IcEEEEEENS2_9monostateEE5chainITkNS2_9invocableIPT_EEZN7DTLayer19updateSessionStringERKiE3$_0EEDTclfL0p_clL_ZNS2_7declvalB8ne180000IPSD_EEDTclsr3stdE9__declvalISI_ELi0EEEvEEEESI_NS2_17basic_string_viewIcSA_EEENUlPvE_8__invokeESU_
FUNC 97c80 cc 0 _ZZNK5geode4TaskINS_6ResultINSt6__ndk16vectorI11DeathInfo_sNS2_9allocatorIS4_EEEENS2_12basic_stringIcNS2_11char_traitsIcEENS5_IcEEEEEENS2_9monostateEE5chainITkNS2_9invocableIPT_EEZN7DTLayer19updateSessionStringERKiE3$_0EEDTclfL0p_clL_ZNS2_7declvalB8ne180000IPSD_EEDTclsr3stdE9__declvalISI_ELi0EEEvEEEESI_NS2_17basic_string_viewIcSA_EEENUlPvE0_8__invokeESU_
FUNC 97d4c 3c 0 std::__ndk1::__tree<std::__ndk1::__value_type<int, float>, std::__ndk1::__map_value_compare<int, std::__ndk1::__value_type<int, float>, std::__ndk1::less<int>, true>, std::__ndk1::allocator<std::__ndk1::__value_type<int, float> > >::destroy(std::__ndk1::__tree_node<std::__ndk1::__value_type<int, float>, void*>*)
FUNC 97d88 9dc 0 DTLayer::refreshStrings()::$_0::operator()(geode::Result<std::__ndk1::vector<DeathInfo_s, std::__ndk1::allocator<DeathInfo_s> >, std::__ndk1::basic_string<char, std::__ndk1::char_traits<char>, std::__ndk1::allocator<char> > >*) const
FUNC 98764 574 0 DTLayer::refreshStrings()::$_0::operator()(geode::Result<std::__ndk1::vector<DeathInfo_s, std::__ndk1::allocator<DeathInfo_s> >, std::__ndk1::basic_string<char, std::__ndk1::char_traits<char>, std::__ndk1::allocator<char> > >*) const::{lambda(geode::Result<std::__ndk1::vector<DeathInfo_s, std::__ndk1::allocator<DeathInfo_s> >, std::__ndk1::basic_string<char, std::__ndk1::char_traits<char>, std::__ndk1::allocator<char> > >*)#1}::operator()(geode::Result<std::__ndk1::vector<DeathInfo_s, std::__ndk1::allocator<DeathInfo_s> >, std::__ndk1::basic_string<char, std::__ndk1::char_traits<char>, std::__ndk1::allocator<char> > >*) const
FUNC 98cd8 20 0 _ZNSt6__ndk110__function6__funcIZNK5geode4TaskINS2_6ResultINS_6vectorI11DeathInfo_sNS_9allocatorIS6_EEEENS_12basic_stringIcNS_11char_traitsIcEENS7_IcEEEEEENS_9monostateEE5chainITkNS_9invocableIPT_EEZZN7DTLayer14refreshStringsEvENK3$_0clEPSF_EUlSO_E_EEDTclfL0p_clL_ZNS_7declvalB8ne180000ISO_EEDTclsr3stdE9__declvalISK_ELi0EEEvEEEESK_NS_17basic_string_viewIcSC_EEEUlPNSH_5EventEE_NS7_ISX_EEFvSW_EED2Ev
FUNC 98cf8 3c 0 _ZNSt6__ndk110__function6__funcIZNK5geode4TaskINS2_6ResultINS_6vectorI11DeathInfo_sNS_9allocatorIS6_EEEENS_12basic_stringIcNS_11char_traitsIcEENS7_IcEEEEEENS_9monostateEE5chainITkNS_9invocableIPT_EEZZN7DTLayer14refreshStringsEvENK3$_0clEPSF_EUlSO_E_EEDTclfL0p_clL_ZNS_7declvalB8ne180000ISO_EEDTclsr3stdE9__declvalISK_ELi0EEEvEEEESK_NS_17basic_string_viewIcSC_EEEUlPNSH_5EventEE_NS7_ISX_EEFvSW_EED0Ev
FUNC 98d34 58 0 _ZNKSt6__ndk110__function6__funcIZNK5geode4TaskINS2_6ResultINS_6vectorI11DeathInfo_sNS_9allocatorIS6_EEEENS_12basic_stringIcNS_11char_traitsIcEENS7_IcEEEEEENS_9monostateEE5chainITkNS_9invocableIPT_EEZZN7DTLayer14refreshStringsEvENK3$_0clEPSF_EUlSO_E_EEDTclfL0p_clL_ZNS_7declvalB8ne180000ISO_EEDTclsr3stdE9__declvalISK_ELi0EEEvEEEESK_NS_17basic_string_viewIcSC_EEEUlPNSH_5EventEE_NS7_ISX_EEFvSW_EE7__cloneEv
FUNC 98d8c 4c 0 _ZNKSt6__ndk110__function6__funcIZNK5geode4TaskINS2_6ResultINS_6vectorI11DeathInfo_sNS_9allocatorIS6_EEEENS_12basic_stringIcNS_11char_traitsIcEENS7_IcEEEEEENS_9monostateEE5chainITkNS_9invocableIPT_EEZZN7DTLayer14refreshStringsEvENK3$_0clEPSF_EUlSO_E_EEDTclfL0p_clL_ZNS_7declvalB8ne180000ISO_EEDTclsr3stdE9__declvalISK_ELi0EEEvEEEESK_NS_17basic_string_viewIcSC_EEEUlPNSH_5EventEE_NS7_ISX_EEFvSW_EE7__cloneEPNS0_6__baseISZ_EE
FUNC 98dd8 10 0 _ZNSt6__ndk110__function6__funcIZNK5geode4TaskINS2_6ResultINS_6vectorI11DeathInfo_sNS_9allocatorIS6_EEEENS_12basic_stringIcNS_11char_traitsIcEENS7_IcEEEEEENS_9monostateEE5chainITkNS_9invocableIPT_EEZZN7DTLayer14refreshStringsEvENK3$_0clEPSF_EUlSO_E_EEDTclfL0p_clL_ZNS_7declvalB8ne180000ISO_EEDTclsr3stdE9__declvalISK_ELi0EEEvEEEESK_NS_17basic_string_viewIcSC_EEEUlPNSH_5EventEE_NS7_ISX_EEFvSW_EE7destroyEv
FUNC 98de8 30 0 _ZNSt6__ndk110__function6__funcIZNK5geode4TaskINS2_6ResultINS_6vectorI11DeathInfo_sNS_9allocatorIS6_EEEENS_12basic_stringIcNS_11char_traitsIcEENS7_IcEEEEEENS_9monostateEE5chainITkNS_9invocableIPT_EEZZN7DTLayer14refreshStringsEvENK3$_0clEPSF_EUlSO_E_EEDTclfL0p_clL_ZNS_7declvalB8ne180000ISO_EEDTclsr3stdE9__declvalISK_ELi0EEEvEEEESK_NS_17basic_string_viewIcSC_EEEUlPNSH_5EventEE_NS7_ISX_EEFvSW_EE18destroy_deallocateEv
FUNC 98e18 300 0 _ZNSt6__ndk110__function6__funcIZNK5geode4TaskINS2_6ResultINS_6vectorI11DeathInfo_sNS_9allocatorIS6_EEEENS_12basic_stringIcNS_11char_traitsIcEENS7_IcEEEEEENS_9monostateEE5chainITkNS_9invocableIPT_EEZZN7DTLayer14refreshStringsEvENK3$_0clEPSF_EUlSO_E_EEDTclfL0p_clL_ZNS_7declvalB8ne180000ISO_EEDTclsr3stdE9__declvalISK_ELi0EEEvEEEESK_NS_17basic_string_viewIcSC_EEEUlPNSH_5EventEE_NS7_ISX_EEFvSW_EEclEOSW_
FUNC 99118 1c 0 _ZNKSt6__ndk110__function6__funcIZNK5geode4TaskINS2_6ResultINS_6vectorI11DeathInfo_sNS_9allocatorIS6_EEEENS_12basic_stringIcNS_11char_traitsIcEENS7_IcEEEEEENS_9monostateEE5chainITkNS_9invocableIPT_EEZZN7DTLayer14refreshStringsEvENK3$_0clEPSF_EUlSO_E_EEDTclfL0p_clL_ZNS_7declvalB8ne180000ISO_EEDTclsr3stdE9__declvalISK_ELi0EEEvEEEESK_NS_17basic_string_viewIcSC_EEEUlPNSH_5EventEE_NS7_ISX_EEFvSW_EE6targetERKSt9type_info
FUNC 99134 c 0 _ZNKSt6__ndk110__function6__funcIZNK5geode4TaskINS2_6ResultINS_6vectorI11DeathInfo_sNS_9allocatorIS6_EEEENS_12basic_stringIcNS_11char_traitsIcEENS7_IcEEEEEENS_9monostateEE5chainITkNS_9invocableIPT_EEZZN7DTLayer14refreshStringsEvENK3$_0clEPSF_EUlSO_E_EEDTclfL0p_clL_ZNS_7declvalB8ne180000ISO_EEDTclsr3stdE9__declvalISK_ELi0EEEvEEEESK_NS_17basic_string_viewIcSC_EEEUlPNSH_5EventEE_NS7_ISX_EEFvSW_EE11target_typeEv
FUNC 99140 20 0 _ZNSt6__ndk110__function6__funcIZZNK5geode4TaskINS2_6ResultINS_6vectorI11DeathInfo_sNS_9allocatorIS6_EEEENS_12basic_stringIcNS_11char_traitsIcEENS7_IcEEEEEENS_9monostateEE5chainITkNS_9invocableIPT_EEZZN7DTLayer14refreshStringsEvENK3$_0clEPSF_EUlSO_E_EEDTclfL1p_clL_ZNS_7declvalB8ne180000ISO_EEDTclsr3stdE9__declvalISK_ELi0EEEvEEEESK_NS_17basic_string_viewIcSC_EEENUlPNSH_5EventEE_clESW_EUlPNS3_INS4_IvSE_EESG_E5EventEE_NS7_IS12_EEFvS11_EED2Ev
FUNC 99160 3c 0 _ZNSt6__ndk110__function6__funcIZZNK5geode4TaskINS2_6ResultINS_6vectorI11DeathInfo_sNS_9allocatorIS6_EEEENS_12basic_stringIcNS_11char_traitsIcEENS7_IcEEEEEENS_9monostateEE5chainITkNS_9invocableIPT_EEZZN7DTLayer14refreshStringsEvENK3$_0clEPSF_EUlSO_E_EEDTclfL1p_clL_ZNS_7declvalB8ne180000ISO_EEDTclsr3stdE9__declvalISK_ELi0EEEvEEEESK_NS_17basic_string_viewIcSC_EEENUlPNSH_5EventEE_clESW_EUlPNS3_INS4_IvSE_EESG_E5EventEE_NS7_IS12_EEFvS11_EED0Ev
FUNC 9919c 50 0 _ZNKSt6__ndk110__function6__funcIZZNK5geode4TaskINS2_6ResultINS_6vectorI11DeathInfo_sNS_9allocatorIS6_EEEENS_12basic_stringIcNS_11char_traitsIcEENS7_IcEEEEEENS_9monostateEE5chainITkNS_9invocableIPT_EEZZN7DTLayer14refreshStringsEvENK3$_0clEPSF_EUlSO_E_EEDTclfL1p_clL_ZNS_7declvalB8ne180000ISO_EEDTclsr3stdE9__declvalISK_ELi0EEEvEEEESK_NS_17basic_string_viewIcSC_EEENUlPNSH_5EventEE_clESW_EUlPNS3_INS4_IvSE_EESG_E5EventEE_NS7_IS12_EEFvS11_EE7__cloneEv
FUNC 991ec 34 0 _ZNKSt6__ndk110__function6__funcIZZNK5geode4TaskINS2_6ResultINS_6vectorI11DeathInfo_sNS_9allocatorIS6_EEEENS_12basic_stringIcNS_11char_traitsIcEENS7_IcEEEEEENS_9monostateEE5chainITkNS_9invocableIPT_EEZZN7DTLayer14refreshStringsEvENK3$_0clEPSF_EUlSO_E_EEDTclfL1p_clL_ZNS_7declvalB8ne180000ISO_EEDTclsr3stdE9__declvalISK_ELi0EEEvEEEESK_NS_17basic_string_viewIcSC_EEENUlPNSH_5EventEE_clESW_EUlPNS3_INS4_IvSE_EESG_E5EventEE_NS7_IS12_EEFvS11_EE7__cloneEPNS0_6__baseIS14_EE
FUNC 99220 10 0 _ZNSt6__ndk110__function6__funcIZZNK5geode4TaskINS2_6ResultINS_6vectorI11DeathInfo_sNS_9allocatorIS6_EEEENS_12basic_stringIcNS_11char_traitsIcEENS7_IcEEEEEENS_9monostateEE5chainITkNS_9invocableIPT_EEZZN7DTLayer14refreshStringsEvENK3$_0clEPSF_EUlSO_E_EEDTclfL1p_clL_ZNS_7declvalB8ne180000ISO_EEDTclsr3stdE9__declvalISK_ELi0EEEvEEEESK_NS_17basic_string_viewIcSC_EEENUlPNSH_5EventEE_clESW_EUlPNS3_INS4_IvSE_EESG_E5EventEE_NS7_IS12_EEFvS11_EE7destroyEv
FUNC 99230 30 0 _ZNSt6__ndk110__function6__funcIZZNK5geode4TaskINS2_6ResultINS_6vectorI11DeathInfo_sNS_9allocatorIS6_EEEENS_12basic_stringIcNS_11char_traitsIcEENS7_IcEEEEEENS_9monostateEE5chainITkNS_9invocableIPT_EEZZN7DTLayer14refreshStringsEvENK3$_0clEPSF_EUlSO_E_EEDTclfL1p_clL_ZNS_7declvalB8ne180000ISO_EEDTclsr3stdE9__declvalISK_ELi0EEEvEEEESK_NS_17basic_string_viewIcSC_EEENUlPNSH_5EventEE_clESW_EUlPNS3_INS4_IvSE_EESG_E5EventEE_NS7_IS12_EEFvS11_EE18destroy_deallocateEv
FUNC 99260 194 0 _ZNSt6__ndk110__function6__funcIZZNK5geode4TaskINS2_6ResultINS_6vectorI11DeathInfo_sNS_9allocatorIS6_EEEENS_12basic_stringIcNS_11char_traitsIcEENS7_IcEEEEEENS_9monostateEE5chainITkNS_9invocableIPT_EEZZN7DTLayer14refreshStringsEvENK3$_0clEPSF_EUlSO_E_EEDTclfL1p_clL_ZNS_7declvalB8ne180000ISO_EEDTclsr3stdE9__declvalISK_ELi0EEEvEEEESK_NS_17basic_string_viewIcSC_EEENUlPNSH_5EventEE_clESW_EUlPNS3_INS4_IvSE_EESG_E5EventEE_NS7_IS12_EEFvS11_EEclEOS11_
FUNC 993f4 1c 0 _ZNKSt6__ndk110__function6__funcIZZNK5geode4TaskINS2_6ResultINS_6vectorI11DeathInfo_sNS_9allocatorIS6_EEEENS_12basic_stringIcNS_11char_traitsIcEENS7_IcEEEEEENS_9monostateEE5chainITkNS_9invocableIPT_EEZZN7DTLayer14refreshStringsEvENK3$_0clEPSF_EUlSO_E_EEDTclfL1p_clL_ZNS_7declvalB8ne180000ISO_EEDTclsr3stdE9__declvalISK_ELi0EEEvEEEESK_NS_17basic_string_viewIcSC_EEENUlPNSH_5EventEE_clESW_EUlPNS3_INS4_IvSE_EESG_E5EventEE_NS7_IS12_EEFvS11_EE6targetERKSt9type_info
FUNC 99410 c 0 _ZNKSt6__ndk110__function6__funcIZZNK5geode4TaskINS2_6ResultINS_6vectorI11DeathInfo_sNS_9allocatorIS6_EEEENS_12basic_stringIcNS_11char_traitsIcEENS7_IcEEEEEENS_9monostateEE5chainITkNS_9invocableIPT_EEZZN7DTLayer14refreshStringsEvENK3$_0clEPSF_EUlSO_E_EEDTclfL1p_clL_ZNS_7declvalB8ne180000ISO_EEDTclsr3stdE9__declvalISK_ELi0EEEvEEEESK_NS_17basic_string_viewIcSC_EEENUlPNSH_5EventEE_clESW_EUlPNS3_INS4_IvSE_EESG_E5EventEE_NS7_IS12_EEFvS11_EE11target_typeEv
FUNC 9941c 14 0 _ZZZNK5geode4TaskINS_6ResultINSt6__ndk16vectorI11DeathInfo_sNS2_9allocatorIS4_EEEENS2_12basic_stringIcNS2_11char_traitsIcEENS5_IcEEEEEENS2_9monostateEE5chainITkNS2_9invocableIPT_EEZZN7DTLayer14refreshStringsEvENK3$_0clEPSD_EUlSM_E_EEDTclfL1p_clL_ZNS2_7declvalB8ne180000ISM_EEDTclsr3stdE9__declvalISI_ELi0EEEvEEEESI_NS2_17basic_string_viewIcSA_EEENUlPNSF_5EventEE_clESU_ENUlPvE_8__invokeESW_
FUNC 99430 cc 0 _ZZZNK5geode4TaskINS_6ResultINSt6__ndk16vectorI11DeathInfo_sNS2_9allocatorIS4_EEEENS2_12basic_stringIcNS2_11char_traitsIcEENS5_IcEEEEEENS2_9monostateEE5chainITkNS2_9invocableIPT_EEZZN7DTLayer14refreshStringsEvENK3$_0clEPSD_EUlSM_E_EEDTclfL1p_clL_ZNS2_7declvalB8ne180000ISM_EEDTclsr3stdE9__declvalISI_ELi0EEEvEEEESI_NS2_17basic_string_viewIcSA_EEENUlPNSF_5EventEE_clESU_ENUlPvE0_8__invokeESW_
FUNC 994fc 14 0 _ZZNK5geode4TaskINS_6ResultINSt6__ndk16vectorI11DeathInfo_sNS2_9allocatorIS4_EEEENS2_12basic_stringIcNS2_11char_traitsIcEENS5_IcEEEEEENS2_9monostateEE5chainITkNS2_9invocableIPT_EEZZN7DTLayer14refreshStringsEvENK3$_0clEPSD_EUlSM_E_EEDTclfL0p_clL_ZNS2_7declvalB8ne180000ISM_EEDTclsr3stdE9__declvalISI_ELi0EEEvEEEESI_NS2_17basic_string_viewIcSA_EEENUlPvE_8__invokeEST_
FUNC 99510 cc 0 _ZZNK5geode4TaskINS_6ResultINSt6__ndk16vectorI11DeathInfo_sNS2_9allocatorIS4_EEEENS2_12basic_stringIcNS2_11char_traitsIcEENS5_IcEEEEEENS2_9monostateEE5chainITkNS2_9invocableIPT_EEZZN7DTLayer14refreshStringsEvENK3$_0clEPSD_EUlSM_E_EEDTclfL0p_clL_ZNS2_7declvalB8ne180000ISM_EEDTclsr3stdE9__declvalISI_ELi0EEEvEEEESI_NS2_17basic_string_viewIcSA_EEENUlPvE0_8__invokeEST_
FUNC 995dc 20 0 _ZNSt6__ndk110__function6__funcIZNK5geode4TaskINS2_6ResultINS_6vectorI11DeathInfo_sNS_9allocatorIS6_EEEENS_12basic_stringIcNS_11char_traitsIcEENS7_IcEEEEEENS_9monostateEE5chainITkNS_9invocableIPT_EEZN7DTLayer14refreshStringsEvE3$_0EEDTclfL0p_clL_ZNS_7declvalB8ne180000IPSF_EEDTclsr3stdE9__declvalISK_ELi0EEEvEEEESK_NS_17basic_string_viewIcSC_EEEUlPNSH_5EventEE_NS7_ISW_EEFvSV_EED2Ev
FUNC 995fc 3c 0 _ZNSt6__ndk110__function6__funcIZNK5geode4TaskINS2_6ResultINS_6vectorI11DeathInfo_sNS_9allocatorIS6_EEEENS_12basic_stringIcNS_11char_traitsIcEENS7_IcEEEEEENS_9monostateEE5chainITkNS_9invocableIPT_EEZN7DTLayer14refreshStringsEvE3$_0EEDTclfL0p_clL_ZNS_7declvalB8ne180000IPSF_EEDTclsr3stdE9__declvalISK_ELi0EEEvEEEESK_NS_17basic_string_viewIcSC_EEEUlPNSH_5EventEE_NS7_ISW_EEFvSV_EED0Ev
FUNC 99638 58 0 _ZNKSt6__ndk110__function6__funcIZNK5geode4TaskINS2_6ResultINS_6vectorI11DeathInfo_sNS_9allocatorIS6_EEEENS_12basic_stringIcNS_11char_traitsIcEENS7_IcEEEEEENS_9monostateEE5chainITkNS_9invocableIPT_EEZN7DTLayer14refreshStringsEvE3$_0EEDTclfL0p_clL_ZNS_7declvalB8ne180000IPSF_EEDTclsr3stdE9__declvalISK_ELi0EEEvEEEESK_NS_17basic_string_viewIcSC_EEEUlPNSH_5EventEE_NS7_ISW_EEFvSV_EE7__cloneEv
FUNC 99690 4c 0 _ZNKSt6__ndk110__function6__funcIZNK5geode4TaskINS2_6ResultINS_6vectorI11DeathInfo_sNS_9allocatorIS6_EEEENS_12basic_stringIcNS_11char_traitsIcEENS7_IcEEEEEENS_9monostateEE5chainITkNS_9invocableIPT_EEZN7DTLayer14refreshStringsEvE3$_0EEDTclfL0p_clL_ZNS_7declvalB8ne180000IPSF_EEDTclsr3stdE9__declvalISK_ELi0EEEvEEEESK_NS_17basic_string_viewIcSC_EEEUlPNSH_5EventEE_NS7_ISW_EEFvSV_EE7__cloneEPNS0_6__baseISY_EE
FUNC 996dc 10 0 _ZNSt6__ndk110__function6__funcIZNK5geode4TaskINS2_6ResultINS_6vectorI11DeathInfo_sNS_9allocatorIS6_EEEENS_12basic_stringIcNS_11char_traitsIcEENS7_IcEEEEEENS_9monostateEE5chainITkNS_9invocableIPT_EEZN7DTLayer14refreshStringsEvE3$_0EEDTclfL0p_clL_ZNS_7declvalB8ne180000IPSF_EEDTclsr3stdE9__declvalISK_ELi0EEEvEEEESK_NS_17basic_string_viewIcSC_EEEUlPNSH_5EventEE_NS7_ISW_EEFvSV_EE7destroyEv
FUNC 996ec 30 0 _ZNSt6__ndk110__function6__funcIZNK5geode4TaskINS2_6ResultINS_6vectorI11DeathInfo_sNS_9allocatorIS6_EEEENS_12basic_stringIcNS_11char_traitsIcEENS7_IcEEEEEENS_9monostateEE5chainITkNS_9invocableIPT_EEZN7DTLayer14refreshStringsEvE3$_0EEDTclfL0p_clL_ZNS_7declvalB8ne180000IPSF_EEDTclsr3stdE9__declvalISK_ELi0EEEvEEEESK_NS_17basic_string_viewIcSC_EEEUlPNSH_5EventEE_NS7_ISW_EEFvSV_EE18destroy_deallocateEv
FUNC 9971c 300 0 _ZNSt6__ndk110__function6__funcIZNK5geode4TaskINS2_6ResultINS_6vectorI11DeathInfo_sNS_9allocatorIS6_EEEENS_12basic_stringIcNS_11char_traitsIcEENS7_IcEEEEEENS_9monostateEE5chainITkNS_9invocableIPT_EEZN7DTLayer14refreshStringsEvE3$_0EEDTclfL0p_clL_ZNS_7declvalB8ne180000IPSF_EEDTclsr3stdE9__declvalISK_ELi0EEEvEEEESK_NS_17basic_string_viewIcSC_EEEUlPNSH_5EventEE_NS7_ISW_EEFvSV_EEclEOSV_
FUNC 99a1c 1c 0 _ZNKSt6__ndk110__function6__funcIZNK5geode4TaskINS2_6ResultINS_6vectorI11DeathInfo_sNS_9allocatorIS6_EEEENS_12basic_stringIcNS_11char_traitsIcEENS7_IcEEEEEENS_9monostateEE5chainITkNS_9invocableIPT_EEZN7DTLayer14refreshStringsEvE3$_0EEDTclfL0p_clL_ZNS_7declvalB8ne180000IPSF_EEDTclsr3stdE9__declvalISK_ELi0EEEvEEEESK_NS_17basic_string_viewIcSC_EEEUlPNSH_5EventEE_NS7_ISW_EEFvSV_EE6targetERKSt9type_info
FUNC 99a38 c 0 _ZNKSt6__ndk110__function6__funcIZNK5geode4TaskINS2_6ResultINS_6vectorI11DeathInfo_sNS_9allocatorIS6_EEEENS_12basic_stringIcNS_11char_traitsIcEENS7_IcEEEEEENS_9monostateEE5chainITkNS_9invocableIPT_EEZN7DTLayer14refreshStringsEvE3$_0EEDTclfL0p_clL_ZNS_7declvalB8ne180000IPSF_EEDTclsr3stdE9__declvalISK_ELi0EEEvEEEESK_NS_17basic_string_viewIcSC_EEEUlPNSH_5EventEE_NS7_ISW_EEFvSV_EE11target_typeEv
FUNC 99a44 20 0 _ZNSt6__ndk110__function6__funcIZZNK5geode4TaskINS2_6ResultINS_6vectorI11DeathInfo_sNS_9allocatorIS6_EEEENS_12basic_stringIcNS_11char_traitsIcEENS7_IcEEEEEENS_9monostateEE5chainITkNS_9invocableIPT_EEZN7DTLayer14refreshStringsEvE3$_0EEDTclfL1p_clL_ZNS_7declvalB8ne180000IPSF_EEDTclsr3stdE9__declvalISK_ELi0EEEvEEEESK_NS_17basic_string_viewIcSC_EEENUlPNSH_5EventEE_clESV_EUlPNS3_INS4_IvSE_EESG_E5EventEE_NS7_IS11_EEFvS10_EED2Ev
FUNC 99a64 3c 0 _ZNSt6__ndk110__function6__funcIZZNK5geode4TaskINS2_6ResultINS_6vectorI11DeathInfo_sNS_9allocatorIS6_EEEENS_12basic_stringIcNS_11char_traitsIcEENS7_IcEEEEEENS_9monostateEE5chainITkNS_9invocableIPT_EEZN7DTLayer14refreshStringsEvE3$_0EEDTclfL1p_clL_ZNS_7declvalB8ne180000IPSF_EEDTclsr3stdE9__declvalISK_ELi0EEEvEEEESK_NS_17basic_string_viewIcSC_EEENUlPNSH_5EventEE_clESV_EUlPNS3_INS4_IvSE_EESG_E5EventEE_NS7_IS11_EEFvS10_EED0Ev
FUNC 99aa0 50 0 _ZNKSt6__ndk110__function6__funcIZZNK5geode4TaskINS2_6ResultINS_6vectorI11DeathInfo_sNS_9allocatorIS6_EEEENS_12basic_stringIcNS_11char_traitsIcEENS7_IcEEEEEENS_9monostateEE5chainITkNS_9invocableIPT_EEZN7DTLayer14refreshStringsEvE3$_0EEDTclfL1p_clL_ZNS_7declvalB8ne180000IPSF_EEDTclsr3stdE9__declvalISK_ELi0EEEvEEEESK_NS_17basic_string_viewIcSC_EEENUlPNSH_5EventEE_clESV_EUlPNS3_INS4_IvSE_EESG_E5EventEE_NS7_IS11_EEFvS10_EE7__cloneEv
FUNC 99af0 34 0 _ZNKSt6__ndk110__function6__funcIZZNK5geode4TaskINS2_6ResultINS_6vectorI11DeathInfo_sNS_9allocatorIS6_EEEENS_12basic_stringIcNS_11char_traitsIcEENS7_IcEEEEEENS_9monostateEE5chainITkNS_9invocableIPT_EEZN7DTLayer14refreshStringsEvE3$_0EEDTclfL1p_clL_ZNS_7declvalB8ne180000IPSF_EEDTclsr3stdE9__declvalISK_ELi0EEEvEEEESK_NS_17basic_string_viewIcSC_EEENUlPNSH_5EventEE_clESV_EUlPNS3_INS4_IvSE_EESG_E5EventEE_NS7_IS11_EEFvS10_EE7__cloneEPNS0_6__baseIS13_EE
FUNC 99b24 10 0 _ZNSt6__ndk110__function6__funcIZZNK5geode4TaskINS2_6ResultINS_6vectorI11DeathInfo_sNS_9allocatorIS6_EEEENS_12basic_stringIcNS_11char_traitsIcEENS7_IcEEEEEENS_9monostateEE5chainITkNS_9invocableIPT_EEZN7DTLayer14refreshStringsEvE3$_0EEDTclfL1p_clL_ZNS_7declvalB8ne180000IPSF_EEDTclsr3stdE9__declvalISK_ELi0EEEvEEEESK_NS_17basic_string_viewIcSC_EEENUlPNSH_5EventEE_clESV_EUlPNS3_INS4_IvSE_EESG_E5EventEE_NS7_IS11_EEFvS10_EE7destroyEv
FUNC 99b34 30 0 _ZNSt6__ndk110__function6__funcIZZNK5geode4TaskINS2_6ResultINS_6vectorI11DeathInfo_sNS_9allocatorIS6_EEEENS_12basic_stringIcNS_11char_traitsIcEENS7_IcEEEEEENS_9monostateEE5chainITkNS_9invocableIPT_EEZN7DTLayer14refreshStringsEvE3$_0EEDTclfL1p_clL_ZNS_7declvalB8ne180000IPSF_EEDTclsr3stdE9__declvalISK_ELi0EEEvEEEESK_NS_17basic_string_viewIcSC_EEENUlPNSH_5EventEE_clESV_EUlPNS3_INS4_IvSE_EESG_E5EventEE_NS7_IS11_EEFvS10_EE18destroy_deallocateEv
FUNC 99b64 194 0 _ZNSt6__ndk110__function6__funcIZZNK5geode4TaskINS2_6ResultINS_6vectorI11DeathInfo_sNS_9allocatorIS6_EEEENS_12basic_stringIcNS_11char_traitsIcEENS7_IcEEEEEENS_9monostateEE5chainITkNS_9invocableIPT_EEZN7DTLayer14refreshStringsEvE3$_0EEDTclfL1p_clL_ZNS_7declvalB8ne180000IPSF_EEDTclsr3stdE9__declvalISK_ELi0EEEvEEEESK_NS_17basic_string_viewIcSC_EEENUlPNSH_5EventEE_clESV_EUlPNS3_INS4_IvSE_EESG_E5EventEE_NS7_IS11_EEFvS10_EEclEOS10_
FUNC 99cf8 1c 0 _ZNKSt6__ndk110__function6__funcIZZNK5geode4TaskINS2_6ResultINS_6vectorI11DeathInfo_sNS_9allocatorIS6_EEEENS_12basic_stringIcNS_11char_traitsIcEENS7_IcEEEEEENS_9monostateEE5chainITkNS_9invocableIPT_EEZN7DTLayer14refreshStringsEvE3$_0EEDTclfL1p_clL_ZNS_7declvalB8ne180000IPSF_EEDTclsr3stdE9__declvalISK_ELi0EEEvEEEESK_NS_17basic_string_viewIcSC_EEENUlPNSH_5EventEE_clESV_EUlPNS3_INS4_IvSE_EESG_E5EventEE_NS7_IS11_EEFvS10_EE6targetERKSt9type_info
FUNC 99d14 c 0 _ZNKSt6__ndk110__function6__funcIZZNK5geode4TaskINS2_6ResultINS_6vectorI11DeathInfo_sNS_9allocatorIS6_EEEENS_12basic_stringIcNS_11char_traitsIcEENS7_IcEEEEEENS_9monostateEE5chainITkNS_9invocableIPT_EEZN7DTLayer14refreshStringsEvE3$_0EEDTclfL1p_clL_ZNS_7declvalB8ne180000IPSF_EEDTclsr3stdE9__declvalISK_ELi0EEEvEEEESK_NS_17basic_string_viewIcSC_EEENUlPNSH_5EventEE_clESV_EUlPNS3_INS4_IvSE_EESG_E5EventEE_NS7_IS11_EEFvS10_EE11target_typeEv
FUNC 99d20 14 0 _ZZZNK5geode4TaskINS_6ResultINSt6__ndk16vectorI11DeathInfo_sNS2_9allocatorIS4_EEEENS2_12basic_stringIcNS2_11char_traitsIcEENS5_IcEEEEEENS2_9monostateEE5chainITkNS2_9invocableIPT_EEZN7DTLayer14refreshStringsEvE3$_0EEDTclfL1p_clL_ZNS2_7declvalB8ne180000IPSD_EEDTclsr3stdE9__declvalISI_ELi0EEEvEEEESI_NS2_17basic_string_viewIcSA_EEENUlPNSF_5EventEE_clEST_ENUlPvE_8__invokeESV_
FUNC 99d34 cc 0 _ZZZNK5geode4TaskINS_6ResultINSt6__ndk16vectorI11DeathInfo_sNS2_9allocatorIS4_EEEENS2_12basic_stringIcNS2_11char_traitsIcEENS5_IcEEEEEENS2_9monostateEE5chainITkNS2_9invocableIPT_EEZN7DTLayer14refreshStringsEvE3$_0EEDTclfL1p_clL_ZNS2_7declvalB8ne180000IPSD_EEDTclsr3stdE9__declvalISI_ELi0EEEvEEEESI_NS2_17basic_string_viewIcSA_EEENUlPNSF_5EventEE_clEST_ENUlPvE0_8__invokeESV_
FUNC 99e00 14 0 _ZZNK5geode4TaskINS_6ResultINSt6__ndk16vectorI11DeathInfo_sNS2_9allocatorIS4_EEEENS2_12basic_stringIcNS2_11char_traitsIcEENS5_IcEEEEEENS2_9monostateEE5chainITkNS2_9invocableIPT_EEZN7DTLayer14refreshStringsEvE3$_0EEDTclfL0p_clL_ZNS2_7declvalB8ne180000IPSD_EEDTclsr3stdE9__declvalISI_ELi0EEEvEEEESI_NS2_17basic_string_viewIcSA_EEENUlPvE_8__invokeESS_
FUNC 99e14 cc 0 _ZZNK5geode4TaskINS_6ResultINSt6__ndk16vectorI11DeathInfo_sNS2_9allocatorIS4_EEEENS2_12basic_stringIcNS2_11char_traitsIcEENS5_IcEEEEEENS2_9monostateEE5chainITkNS2_9invocableIPT_EEZN7DTLayer14refreshStringsEvE3$_0EEDTclfL0p_clL_ZNS2_7declvalB8ne180000IPSD_EEDTclsr3stdE9__declvalISI_ELi0EEEvEEEESI_NS2_17basic_string_viewIcSA_EEENUlPvE0_8__invokeESS_
FUNC 99ee0 70 0 geode::Task<geode::Result<std::__ndk1::vector<DeathInfo_s, std::__ndk1::allocator<DeathInfo_s> >, std::__ndk1::basic_string<char, std::__ndk1::char_traits<char>, std::__ndk1::allocator<char> > >, std::__ndk1::monostate>::run(std::__ndk1::function<geode::Task<geode::Result<std::__ndk1::vector<DeathInfo_s, std::__ndk1::allocator<DeathInfo_s> >, std::__ndk1::basic_string<char, std::__ndk1::char_traits<char>, std::__ndk1::allocator<char> > >, std::__ndk1::monostate>::Result(std::__ndk1::function<void (std::__ndk1::monostate)>, std::__ndk1::function<bool ()>)>&&, std::__ndk1::basic_string_view<char, std::__ndk1::char_traits<char> >)::{lambda()#1}::~{lambda()#1}()
FUNC 99f50 10 0 std::__ndk1::__shared_ptr_emplace<geode::Task<geode::Result<std::__ndk1::vector<DeathInfo_s, std::__ndk1::allocator<DeathInfo_s> >, std::__ndk1::basic_string<char, std::__ndk1::char_traits<char>, std::__ndk1::allocator<char> > >, std::__ndk1::monostate>::Handle, std::__ndk1::allocator<geode::Task<geode::Result<std::__ndk1::vector<DeathInfo_s, std::__ndk1::allocator<DeathInfo_s> >, std::__ndk1::basic_string<char, std::__ndk1::char_traits<char>, std::__ndk1::allocator<char> > >, std::__ndk1::monostate>::Handle> >::~__shared_ptr_emplace()
FUNC 99f60 30 0 std::__ndk1::__shared_ptr_emplace<geode::Task<geode::Result<std::__ndk1::vector<DeathInfo_s, std::__ndk1::allocator<DeathInfo_s> >, std::__ndk1::basic_string<char, std::__ndk1::char_traits<char>, std::__ndk1::allocator<char> > >, std::__ndk1::monostate>::Handle, std::__ndk1::allocator<geode::Task<geode::Result<std::__ndk1::vector<DeathInfo_s, std::__ndk1::allocator<DeathInfo_s> >, std::__ndk1::basic_string<char, std::__ndk1::char_traits<char>, std::__ndk1::allocator<char> > >, std::__ndk1::monostate>::Handle> >::~__shared_ptr_emplace()
FUNC 99f90 e8 0 std::__ndk1::__shared_ptr_emplace<geode::Task<geode::Result<std::__ndk1::vector<DeathInfo_s, std::__ndk1::allocator<DeathInfo_s> >, std::__ndk1::basic_string<char, std::__ndk1::char_traits<char>, std::__ndk1::allocator<char> > >, std::__ndk1::monostate>::Handle, std::__ndk1::allocator<geode::Task<geode::Result<std::__ndk1::vector<DeathInfo_s, std::__ndk1::allocator<DeathInfo_s> >, std::__ndk1::basic_string<char, std::__ndk1::char_traits<char>, std::__ndk1::allocator<char> > >, std::__ndk1::monostate>::Handle> >::__on_zero_shared()
FUNC 9a078 4 0 std::__ndk1::__shared_ptr_emplace<geode::Task<geode::Result<std::__ndk1::vector<DeathInfo_s, std::__ndk1::allocator<DeathInfo_s> >, std::__ndk1::basic_string<char, std::__ndk1::char_traits<char>, std::__ndk1::allocator<char> > >, std::__ndk1::monostate>::Handle, std::__ndk1::allocator<geode::Task<geode::Result<std::__ndk1::vector<DeathInfo_s, std::__ndk1::allocator<DeathInfo_s> >, std::__ndk1::basic_string<char, std::__ndk1::char_traits<char>, std::__ndk1::allocator<char> > >, std::__ndk1::monostate>::Handle> >::__on_zero_shared_weak()
FUNC 9a07c 7c 0 std::__ndk1::__optional_destruct_base<geode::Result<std::__ndk1::vector<DeathInfo_s, std::__ndk1::allocator<DeathInfo_s> >, std::__ndk1::basic_string<char, std::__ndk1::char_traits<char>, std::__ndk1::allocator<char> > >, false>::~__optional_destruct_base[abi:ne180000]()
FUNC 9a0f8 14 0 std::__ndk1::__variant_detail::__visitation::__base::__dispatcher<(unsigned long)0>::__dispatch[abi:ne180000]<std::__ndk1::__variant_detail::__dtor<std::__ndk1::__variant_detail::__traits<std::__ndk1::vector<DeathInfo_s, std::__ndk1::allocator<std::__ndk1::vector> >, std::__ndk1::basic_string<char, std::__ndk1::char_traits<char>, DeathInfo_s<char> > >, (std::__ndk1::__variant_detail::_Trait)1>::__destroy[abi:ne180000]()::{lambda(auto:1&)#1}, std::__ndk1::__variant_detail::__base<(std::__ndk1::__variant_detail::__traits<std::__ndk1::vector<DeathInfo_s, std::__ndk1::allocator<std::__ndk1::vector> >, std::__ndk1::basic_string<char, std::__ndk1::char_traits<char>, DeathInfo_s<char> > >)1, std::__ndk1::allocator<std::__ndk1::vector>, DeathInfo_s<char> >&>(std::__ndk1::__variant_detail::__dtor<std::__ndk1::__variant_detail::__traits<std::__ndk1::vector<DeathInfo_s, std::__ndk1::allocator<std::__ndk1::vector> >, std::__ndk1::basic_string<char, std::__ndk1::char_traits<char>, DeathInfo_s<char> > >, (std::__ndk1::__variant_detail::_Trait)1>, std::__ndk1::__variant_detail::__base<(std::__ndk1::__variant_detail::__traits<std::__ndk1::vector<DeathInfo_s, std::__ndk1::allocator<std::__ndk1::vector> >, std::__ndk1::basic_string<char, std::__ndk1::char_traits<char>, DeathInfo_s<char> > >)1, std::__ndk1::allocator<std::__ndk1::vector>, DeathInfo_s<char> >&)
FUNC 9a10c 14 0 std::__ndk1::__variant_detail::__visitation::__base::__dispatcher<(unsigned long)1>::__dispatch[abi:ne180000]<std::__ndk1::__variant_detail::__dtor<std::__ndk1::__variant_detail::__traits<std::__ndk1::vector<DeathInfo_s, std::__ndk1::allocator<std::__ndk1::vector> >, std::__ndk1::basic_string<char, std::__ndk1::char_traits<char>, DeathInfo_s<char> > >, (std::__ndk1::__variant_detail::_Trait)1>::__destroy[abi:ne180000]()::{lambda(auto:1&)#1}, std::__ndk1::__variant_detail::__base<(std::__ndk1::__variant_detail::__traits<std::__ndk1::vector<DeathInfo_s, std::__ndk1::allocator<std::__ndk1::vector> >, std::__ndk1::basic_string<char, std::__ndk1::char_traits<char>, DeathInfo_s<char> > >)1, std::__ndk1::allocator<std::__ndk1::vector>, DeathInfo_s<char> >&>(std::__ndk1::__variant_detail::__dtor<std::__ndk1::__variant_detail::__traits<std::__ndk1::vector<DeathInfo_s, std::__ndk1::allocator<std::__ndk1::vector> >, std::__ndk1::basic_string<char, std::__ndk1::char_traits<char>, DeathInfo_s<char> > >, (std::__ndk1::__variant_detail::_Trait)1>, std::__ndk1::__variant_detail::__base<(std::__ndk1::__variant_detail::__traits<std::__ndk1::vector<DeathInfo_s, std::__ndk1::allocator<std::__ndk1::vector> >, std::__ndk1::basic_string<char, std::__ndk1::char_traits<char>, DeathInfo_s<char> > >)1, std::__ndk1::allocator<std::__ndk1::vector>, DeathInfo_s<char> >&)
FUNC 9a120 574 0 std::__ndk1::__thread_proxy[abi:ne180000]<std::__ndk1::tuple<std::__ndk1::unique_ptr<std::__ndk1::__thread_struct, std::__ndk1::default_delete<std::__ndk1::unique_ptr> >, geode::Task<std::__ndk1::unique_ptr<std::__ndk1::__thread_struct, std::__ndk1::default_delete<std::__ndk1::unique_ptr> >::Result<std::__ndk1::vector<DeathInfo_s, std::__ndk1::allocator<std::__ndk1::vector> >, std::__ndk1::basic_string<char, std::__ndk1::char_traits<char>, DeathInfo_s<char> > >, std::__ndk1::monostate>::run(std::__ndk1::function<std::__ndk1::monostate(geode::Task<std::__ndk1::unique_ptr<std::__ndk1::__thread_struct, std::__ndk1::default_delete<std::__ndk1::unique_ptr> >::Result<std::__ndk1::vector<DeathInfo_s, std::__ndk1::allocator<std::__ndk1::vector> >, std::__ndk1::basic_string<char, std::__ndk1::char_traits<char>, DeathInfo_s<char> > >, std::__ndk1::monostate><void (std::__ndk1::unique_ptr<std::__ndk1::__thread_struct, std::__ndk1::default_delete<std::__ndk1::unique_ptr> >::Result<std::__ndk1::vector<DeathInfo_s, std::__ndk1::allocator<std::__ndk1::vector> >, std::__ndk1::basic_string<char, std::__ndk1::char_traits<char>, DeathInfo_s<char> > >)>, geode::Task<std::__ndk1::unique_ptr<std::__ndk1::__thread_struct, std::__ndk1::default_delete<std::__ndk1::unique_ptr> >::Result<std::__ndk1::vector<DeathInfo_s, std::__ndk1::allocator<std::__ndk1::vector> >, std::__ndk1::basic_string<char, std::__ndk1::char_traits<char>, DeathInfo_s<char> > >, std::__ndk1::monostate><bool ()>)::Result>&&, std::__ndk1::basic_string_view<char, std::__ndk1::char_traits>)::{lambda()#1}> >(std::__ndk1::tuple<std::__ndk1::unique_ptr<std::__ndk1::__thread_struct, std::__ndk1::default_delete<std::__ndk1::unique_ptr> >, geode::Task<std::__ndk1::unique_ptr<std::__ndk1::__thread_struct, std::__ndk1::default_delete<std::__ndk1::unique_ptr> >::Result<std::__ndk1::vector<DeathInfo_s, std::__ndk1::allocator<std::__ndk1::vector> >, std::__ndk1::basic_string<char, std::__ndk1::char_traits<char>, DeathInfo_s<char> > >, std::__ndk1::monostate>::run(std::__ndk1::function<std::__ndk1::monostate(geode::Task<std::__ndk1::unique_ptr<std::__ndk1::__thread_struct, std::__ndk1::default_delete<std::__ndk1::unique_ptr> >::Result<std::__ndk1::vector<DeathInfo_s, std::__ndk1::allocator<std::__ndk1::vector> >, std::__ndk1::basic_string<char, std::__ndk1::char_traits<char>, DeathInfo_s<char> > >, std::__ndk1::monostate><void (std::__ndk1::unique_ptr<std::__ndk1::__thread_struct, std::__ndk1::default_delete<std::__ndk1::unique_ptr> >::Result<std::__ndk1::vector<DeathInfo_s, std::__ndk1::allocator<std::__ndk1::vector> >, std::__ndk1::basic_string<char, std::__ndk1::char_traits<char>, DeathInfo_s<char> > >)>, geode::Task<std::__ndk1::unique_ptr<std::__ndk1::__thread_struct, std::__ndk1::default_delete<std::__ndk1::unique_ptr> >::Result<std::__ndk1::vector<DeathInfo_s, std::__ndk1::allocator<std::__ndk1::vector> >, std::__ndk1::basic_string<char, std::__ndk1::char_traits<char>, DeathInfo_s<char> > >, std::__ndk1::monostate><bool ()>)::Result>&&, std::__ndk1::basic_string_view<char, std::__ndk1::char_traits>)::{lambda()#1}>)
FUNC 9a694 3c 0 std::__ndk1::unique_ptr<std::__ndk1::__thread_struct, std::__ndk1::default_delete<std::__ndk1::__thread_struct> >::~unique_ptr[abi:ne180000]()
FUNC 9a6d0 74 0 geode::Task<geode::Result<std::__ndk1::vector<DeathInfo_s, std::__ndk1::allocator<DeathInfo_s> >, std::__ndk1::basic_string<char, std::__ndk1::char_traits<char>, std::__ndk1::allocator<char> > >, std::__ndk1::monostate>::Result::~Result()
FUNC 9a744 20 0 std::__ndk1::__function::__func<geode::Task<geode::Result<std::__ndk1::vector<DeathInfo_s, std::__ndk1::allocator<DeathInfo_s> >, std::__ndk1::basic_string<char, std::__ndk1::char_traits<char>, std::__ndk1::allocator<char> > >, std::__ndk1::monostate>::run(std::__ndk1::function<geode::Task<geode::Result<std::__ndk1::vector<DeathInfo_s, std::__ndk1::allocator<DeathInfo_s> >, std::__ndk1::basic_string<char, std::__ndk1::char_traits<char>, std::__ndk1::allocator<char> > >, std::__ndk1::monostate>::Result(std::__ndk1::function<void (std::__ndk1::monostate)>, std::__ndk1::function<bool ()>)>&&, std::__ndk1::basic_string_view<char, std::__ndk1::char_traits<char> >)::{lambda()#1}::operator()() const::{lambda(std::__ndk1::monostate)#1}, std::__ndk1::allocator<geode::Task<geode::Result<std::__ndk1::vector<DeathInfo_s, std::__ndk1::allocator<DeathInfo_s> >, std::__ndk1::basic_string<char, std::__ndk1::char_traits<char>, std::__ndk1::allocator<char> > >, std::__ndk1::monostate>::run(std::__ndk1::function<geode::Task<geode::Result<std::__ndk1::vector<DeathInfo_s, std::__ndk1::allocator<DeathInfo_s> >, std::__ndk1::basic_string<char, std::__ndk1::char_traits<char>, std::__ndk1::allocator<char> > >, std::__ndk1::monostate>::Result(std::__ndk1::function<void (std::__ndk1::monostate)>, std::__ndk1::function<bool ()>)>&&, std::__ndk1::basic_string_view<char, std::__ndk1::char_traits<char> >)::{lambda()#1}::operator()() const::{lambda(std::__ndk1::monostate)#1}>, void (std::__ndk1::monostate)>::~__func()
FUNC 9a764 3c 0 std::__ndk1::__function::__func<geode::Task<geode::Result<std::__ndk1::vector<DeathInfo_s, std::__ndk1::allocator<DeathInfo_s> >, std::__ndk1::basic_string<char, std::__ndk1::char_traits<char>, std::__ndk1::allocator<char> > >, std::__ndk1::monostate>::run(std::__ndk1::function<geode::Task<geode::Result<std::__ndk1::vector<DeathInfo_s, std::__ndk1::allocator<DeathInfo_s> >, std::__ndk1::basic_string<char, std::__ndk1::char_traits<char>, std::__ndk1::allocator<char> > >, std::__ndk1::monostate>::Result(std::__ndk1::function<void (std::__ndk1::monostate)>, std::__ndk1::function<bool ()>)>&&, std::__ndk1::basic_string_view<char, std::__ndk1::char_traits<char> >)::{lambda()#1}::operator()() const::{lambda(std::__ndk1::monostate)#1}, std::__ndk1::allocator<geode::Task<geode::Result<std::__ndk1::vector<DeathInfo_s, std::__ndk1::allocator<DeathInfo_s> >, std::__ndk1::basic_string<char, std::__ndk1::char_traits<char>, std::__ndk1::allocator<char> > >, std::__ndk1::monostate>::run(std::__ndk1::function<geode::Task<geode::Result<std::__ndk1::vector<DeathInfo_s, std::__ndk1::allocator<DeathInfo_s> >, std::__ndk1::basic_string<char, std::__ndk1::char_traits<char>, std::__ndk1::allocator<char> > >, std::__ndk1::monostate>::Result(std::__ndk1::function<void (std::__ndk1::monostate)>, std::__ndk1::function<bool ()>)>&&, std::__ndk1::basic_string_view<char, std::__ndk1::char_traits<char> >)::{lambda()#1}::operator()() const::{lambda(std::__ndk1::monostate)#1}>, void (std::__ndk1::monostate)>::~__func()
FUNC 9a7a0 50 0 std::__ndk1::__function::__func<geode::Task<geode::Result<std::__ndk1::vector<DeathInfo_s, std::__ndk1::allocator<DeathInfo_s> >, std::__ndk1::basic_string<char, std::__ndk1::char_traits<char>, std::__ndk1::allocator<char> > >, std::__ndk1::monostate>::run(std::__ndk1::function<geode::Task<geode::Result<std::__ndk1::vector<DeathInfo_s, std::__ndk1::allocator<DeathInfo_s> >, std::__ndk1::basic_string<char, std::__ndk1::char_traits<char>, std::__ndk1::allocator<char> > >, std::__ndk1::monostate>::Result(std::__ndk1::function<void (std::__ndk1::monostate)>, std::__ndk1::function<bool ()>)>&&, std::__ndk1::basic_string_view<char, std::__ndk1::char_traits<char> >)::{lambda()#1}::operator()() const::{lambda(std::__ndk1::monostate)#1}, std::__ndk1::allocator<geode::Task<geode::Result<std::__ndk1::vector<DeathInfo_s, std::__ndk1::allocator<DeathInfo_s> >, std::__ndk1::basic_string<char, std::__ndk1::char_traits<char>, std::__ndk1::allocator<char> > >, std::__ndk1::monostate>::run(std::__ndk1::function<geode::Task<geode::Result<std::__ndk1::vector<DeathInfo_s, std::__ndk1::allocator<DeathInfo_s> >, std::__ndk1::basic_string<char, std::__ndk1::char_traits<char>, std::__ndk1::allocator<char> > >, std::__ndk1::monostate>::Result(std::__ndk1::function<void (std::__ndk1::monostate)>, std::__ndk1::function<bool ()>)>&&, std::__ndk1::basic_string_view<char, std::__ndk1::char_traits<char> >)::{lambda()#1}::operator()() const::{lambda(std::__ndk1::monostate)#1}>, void (std::__ndk1::monostate)>::__clone() const
FUNC 9a7f0 34 0 std::__ndk1::__function::__func<geode::Task<geode::Result<std::__ndk1::vector<DeathInfo_s, std::__ndk1::allocator<DeathInfo_s> >, std::__ndk1::basic_string<char, std::__ndk1::char_traits<char>, std::__ndk1::allocator<char> > >, std::__ndk1::monostate>::run(std::__ndk1::function<geode::Task<geode::Result<std::__ndk1::vector<DeathInfo_s, std::__ndk1::allocator<DeathInfo_s> >, std::__ndk1::basic_string<char, std::__ndk1::char_traits<char>, std::__ndk1::allocator<char> > >, std::__ndk1::monostate>::Result(std::__ndk1::function<void (std::__ndk1::monostate)>, std::__ndk1::function<bool ()>)>&&, std::__ndk1::basic_string_view<char, std::__ndk1::char_traits<char> >)::{lambda()#1}::operator()() const::{lambda(std::__ndk1::monostate)#1}, std::__ndk1::allocator<geode::Task<geode::Result<std::__ndk1::vector<DeathInfo_s, std::__ndk1::allocator<DeathInfo_s> >, std::__ndk1::basic_string<char, std::__ndk1::char_traits<char>, std::__ndk1::allocator<char> > >, std::__ndk1::monostate>::run(std::__ndk1::function<geode::Task<geode::Result<std::__ndk1::vector<DeathInfo_s, std::__ndk1::allocator<DeathInfo_s> >, std::__ndk1::basic_string<char, std::__ndk1::char_traits<char>, std::__ndk1::allocator<char> > >, std::__ndk1::monostate>::Result(std::__ndk1::function<void (std::__ndk1::monostate)>, std::__ndk1::function<bool ()>)>&&, std::__ndk1::basic_string_view<char, std::__ndk1::char_traits<char> >)::{lambda()#1}::operator()() const::{lambda(std::__ndk1::monostate)#1}>, void (std::__ndk1::monostate)>::__clone(std::__ndk1::__function::__base<void (std::__ndk1::monostate)>*) const
FUNC 9a824 10 0 std::__ndk1::__function::__func<geode::Task<geode::Result<std::__ndk1::vector<DeathInfo_s, std::__ndk1::allocator<DeathInfo_s> >, std::__ndk1::basic_string<char, std::__ndk1::char_traits<char>, std::__ndk1::allocator<char> > >, std::__ndk1::monostate>::run(std::__ndk1::function<geode::Task<geode::Result<std::__ndk1::vector<DeathInfo_s, std::__ndk1::allocator<DeathInfo_s> >, std::__ndk1::basic_string<char, std::__ndk1::char_traits<char>, std::__ndk1::allocator<char> > >, std::__ndk1::monostate>::Result(std::__ndk1::function<void (std::__ndk1::monostate)>, std::__ndk1::function<bool ()>)>&&, std::__ndk1::basic_string_view<char, std::__ndk1::char_traits<char> >)::{lambda()#1}::operator()() const::{lambda(std::__ndk1::monostate)#1}, std::__ndk1::allocator<geode::Task<geode::Result<std::__ndk1::vector<DeathInfo_s, std::__ndk1::allocator<DeathInfo_s> >, std::__ndk1::basic_string<char, std::__ndk1::char_traits<char>, std::__ndk1::allocator<char> > >, std::__ndk1::monostate>::run(std::__ndk1::function<geode::Task<geode::Result<std::__ndk1::vector<DeathInfo_s, std::__ndk1::allocator<DeathInfo_s> >, std::__ndk1::basic_string<char, std::__ndk1::char_traits<char>, std::__ndk1::allocator<char> > >, std::__ndk1::monostate>::Result(std::__ndk1::function<void (std::__ndk1::monostate)>, std::__ndk1::function<bool ()>)>&&, std::__ndk1::basic_string_view<char, std::__ndk1::char_traits<char> >)::{lambda()#1}::operator()() const::{lambda(std::__ndk1::monostate)#1}>, void (std::__ndk1::monostate)>::destroy()
FUNC 9a834 30 0 std::__ndk1::__function::__func<geode::Task<geode::Result<std::__ndk1::vector<DeathInfo_s, std::__ndk1::allocator<DeathInfo_s> >, std::__ndk1::basic_string<char, std::__ndk1::char_traits<char>, std::__ndk1::allocator<char> > >, std::__ndk1::monostate>::run(std::__ndk1::function<geode::Task<geode::Result<std::__ndk1::vector<DeathInfo_s, std::__ndk1::allocator<DeathInfo_s> >, std::__ndk1::basic_string<char, std::__ndk1::char_traits<char>, std::__ndk1::allocator<char> > >, std::__ndk1::monostate>::Result(std::__ndk1::function<void (std::__ndk1::monostate)>, std::__ndk1::function<bool ()>)>&&, std::__ndk1::basic_string_view<char, std::__ndk1::char_traits<char> >)::{lambda()#1}::operator()() const::{lambda(std::__ndk1::monostate)#1}, std::__ndk1::allocator<geode::Task<geode::Result<std::__ndk1::vector<DeathInfo_s, std::__ndk1::allocator<DeathInfo_s> >, std::__ndk1::basic_string<char, std::__ndk1::char_traits<char>, std::__ndk1::allocator<char> > >, std::__ndk1::monostate>::run(std::__ndk1::function<geode::Task<geode::Result<std::__ndk1::vector<DeathInfo_s, std::__ndk1::allocator<DeathInfo_s> >, std::__ndk1::basic_string<char, std::__ndk1::char_traits<char>, std::__ndk1::allocator<char> > >, std::__ndk1::monostate>::Result(std::__ndk1::function<void (std::__ndk1::monostate)>, std::__ndk1::function<bool ()>)>&&, std::__ndk1::basic_string_view<char, std::__ndk1::char_traits<char> >)::{lambda()#1}::operator()() const::{lambda(std::__ndk1::monostate)#1}>, void (std::__ndk1::monostate)>::destroy_deallocate()
FUNC 9a864 188 0 std::__ndk1::__function::__func<geode::Task<geode::Result<std::__ndk1::vector<DeathInfo_s, std::__ndk1::allocator<DeathInfo_s> >, std::__ndk1::basic_string<char, std::__ndk1::char_traits<char>, std::__ndk1::allocator<char> > >, std::__ndk1::monostate>::run(std::__ndk1::function<geode::Task<geode::Result<std::__ndk1::vector<DeathInfo_s, std::__ndk1::allocator<DeathInfo_s> >, std::__ndk1::basic_string<char, std::__ndk1::char_traits<char>, std::__ndk1::allocator<char> > >, std::__ndk1::monostate>::Result(std::__ndk1::function<void (std::__ndk1::monostate)>, std::__ndk1::function<bool ()>)>&&, std::__ndk1::basic_string_view<char, std::__ndk1::char_traits<char> >)::{lambda()#1}::operator()() const::{lambda(std::__ndk1::monostate)#1}, std::__ndk1::allocator<geode::Task<geode::Result<std::__ndk1::vector<DeathInfo_s, std::__ndk1::allocator<DeathInfo_s> >, std::__ndk1::basic_string<char, std::__ndk1::char_traits<char>, std::__ndk1::allocator<char> > >, std::__ndk1::monostate>::run(std::__ndk1::function<geode::Task<geode::Result<std::__ndk1::vector<DeathInfo_s, std::__ndk1::allocator<DeathInfo_s> >, std::__ndk1::basic_string<char, std::__ndk1::char_traits<char>, std::__ndk1::allocator<char> > >, std::__ndk1::monostate>::Result(std::__ndk1::function<void (std::__ndk1::monostate)>, std::__ndk1::function<bool ()>)>&&, std::__ndk1::basic_string_view<char, std::__ndk1::char_traits<char> >)::{lambda()#1}::operator()() const::{lambda(std::__ndk1::monostate)#1}>, void (std::__ndk1::monostate)>::operator()(std::__ndk1::monostate&&)
FUNC 9a9ec 1c 0 std::__ndk1::__function::__func<geode::Task<geode::Result<std::__ndk1::vector<DeathInfo_s, std::__ndk1::allocator<DeathInfo_s> >, std::__ndk1::basic_string<char, std::__ndk1::char_traits<char>, std::__ndk1::allocator<char> > >, std::__ndk1::monostate>::run(std::__ndk1::function<geode::Task<geode::Result<std::__ndk1::vector<DeathInfo_s, std::__ndk1::allocator<DeathInfo_s> >, std::__ndk1::basic_string<char, std::__ndk1::char_traits<char>, std::__ndk1::allocator<char> > >, std::__ndk1::monostate>::Result(std::__ndk1::function<void (std::__ndk1::monostate)>, std::__ndk1::function<bool ()>)>&&, std::__ndk1::basic_string_view<char, std::__ndk1::char_traits<char> >)::{lambda()#1}::operator()() const::{lambda(std::__ndk1::monostate)#1}, std::__ndk1::allocator<geode::Task<geode::Result<std::__ndk1::vector<DeathInfo_s, std::__ndk1::allocator<DeathInfo_s> >, std::__ndk1::basic_string<char, std::__ndk1::char_traits<char>, std::__ndk1::allocator<char> > >, std::__ndk1::monostate>::run(std::__ndk1::function<geode::Task<geode::Result<std::__ndk1::vector<DeathInfo_s, std::__ndk1::allocator<DeathInfo_s> >, std::__ndk1::basic_string<char, std::__ndk1::char_traits<char>, std::__ndk1::allocator<char> > >, std::__ndk1::monostate>::Result(std::__ndk1::function<void (std::__ndk1::monostate)>, std::__ndk1::function<bool ()>)>&&, std::__ndk1::basic_string_view<char, std::__ndk1::char_traits<char> >)::{lambda()#1}::operator()() const::{lambda(std::__ndk1::monostate)#1}>, void (std::__ndk1::monostate)>::target(std::type_info const&) const
FUNC 9aa08 c 0 std::__ndk1::__function::__func<geode::Task<geode::Result<std::__ndk1::vector<DeathInfo_s, std::__ndk1::allocator<DeathInfo_s> >, std::__ndk1::basic_string<char, std::__ndk1::char_traits<char>, std::__ndk1::allocator<char> > >, std::__ndk1::monostate>::run(std::__ndk1::function<geode::Task<geode::Result<std::__ndk1::vector<DeathInfo_s, std::__ndk1::allocator<DeathInfo_s> >, std::__ndk1::basic_string<char, std::__ndk1::char_traits<char>, std::__ndk1::allocator<char> > >, std::__ndk1::monostate>::Result(std::__ndk1::function<void (std::__ndk1::monostate)>, std::__ndk1::function<bool ()>)>&&, std::__ndk1::basic_string_view<char, std::__ndk1::char_traits<char> >)::{lambda()#1}::operator()() const::{lambda(std::__ndk1::monostate)#1}, std::__ndk1::allocator<geode::Task<geode::Result<std::__ndk1::vector<DeathInfo_s, std::__ndk1::allocator<DeathInfo_s> >, std::__ndk1::basic_string<char, std::__ndk1::char_traits<char>, std::__ndk1::allocator<char> > >, std::__ndk1::monostate>::run(std::__ndk1::function<geode::Task<geode::Result<std::__ndk1::vector<DeathInfo_s, std::__ndk1::allocator<DeathInfo_s> >, std::__ndk1::basic_string<char, std::__ndk1::char_traits<char>, std::__ndk1::allocator<char> > >, std::__ndk1::monostate>::Result(std::__ndk1::function<void (std::__ndk1::monostate)>, std::__ndk1::function<bool ()>)>&&, std::__ndk1::basic_string_view<char, std::__ndk1::char_traits<char> >)::{lambda()#1}::operator()() const::{lambda(std::__ndk1::monostate)#1}>, void (std::__ndk1::monostate)>::target_type() const
FUNC 9aa14 50 0 geode::Task<geode::Result<std::__ndk1::vector<DeathInfo_s, std::__ndk1::allocator<DeathInfo_s> >, std::__ndk1::basic_string<char, std::__ndk1::char_traits<char>, std::__ndk1::allocator<char> > >, std::__ndk1::monostate>::progress(std::__ndk1::shared_ptr<geode::Task<geode::Result<std::__ndk1::vector<DeathInfo_s, std::__ndk1::allocator<DeathInfo_s> >, std::__ndk1::basic_string<char, std::__ndk1::char_traits<char>, std::__ndk1::allocator<char> > >, std::__ndk1::monostate>::Handle>, std::__ndk1::monostate&&)::{lambda()#1}::~{lambda()#1}()
FUNC 9aa64 5c 0 std::__ndk1::__function::__func<geode::Task<geode::Result<std::__ndk1::vector<DeathInfo_s, std::__ndk1::allocator<DeathInfo_s> >, std::__ndk1::basic_string<char, std::__ndk1::char_traits<char>, std::__ndk1::allocator<char> > >, std::__ndk1::monostate>::progress(std::__ndk1::shared_ptr<geode::Task<geode::Result<std::__ndk1::vector<DeathInfo_s, std::__ndk1::allocator<DeathInfo_s> >, std::__ndk1::basic_string<char, std::__ndk1::char_traits<char>, std::__ndk1::allocator<char> > >, std::__ndk1::monostate>::Handle>, std::__ndk1::monostate&&)::{lambda()#1}, std::__ndk1::allocator<geode::Task<geode::Result<std::__ndk1::vector<DeathInfo_s, std::__ndk1::allocator<DeathInfo_s> >, std::__ndk1::basic_string<char, std::__ndk1::char_traits<char>, std::__ndk1::allocator<char> > >, std::__ndk1::monostate>::progress(std::__ndk1::shared_ptr<geode::Task<geode::Result<std::__ndk1::vector<DeathInfo_s, std::__ndk1::allocator<DeathInfo_s> >, std::__ndk1::basic_string<char, std::__ndk1::char_traits<char>, std::__ndk1::allocator<char> > >, std::__ndk1::monostate>::Handle>, std::__ndk1::monostate&&)::{lambda()#1}>, void ()>::~__func()
FUNC 9aac0 5c 0 std::__ndk1::__function::__func<geode::Task<geode::Result<std::__ndk1::vector<DeathInfo_s, std::__ndk1::allocator<DeathInfo_s> >, std::__ndk1::basic_string<char, std::__ndk1::char_traits<char>, std::__ndk1::allocator<char> > >, std::__ndk1::monostate>::progress(std::__ndk1::shared_ptr<geode::Task<geode::Result<std::__ndk1::vector<DeathInfo_s, std::__ndk1::allocator<DeathInfo_s> >, std::__ndk1::basic_string<char, std::__ndk1::char_traits<char>, std::__ndk1::allocator<char> > >, std::__ndk1::monostate>::Handle>, std::__ndk1::monostate&&)::{lambda()#1}, std::__ndk1::allocator<geode::Task<geode::Result<std::__ndk1::vector<DeathInfo_s, std::__ndk1::allocator<DeathInfo_s> >, std::__ndk1::basic_string<char, std::__ndk1::char_traits<char>, std::__ndk1::allocator<char> > >, std::__ndk1::monostate>::progress(std::__ndk1::shared_ptr<geode::Task<geode::Result<std::__ndk1::vector<DeathInfo_s, std::__ndk1::allocator<DeathInfo_s> >, std::__ndk1::basic_string<char, std::__ndk1::char_traits<char>, std::__ndk1::allocator<char> > >, std::__ndk1::monostate>::Handle>, std::__ndk1::monostate&&)::{lambda()#1}>, void ()>::~__func()
FUNC 9ab1c 50 0 std::__ndk1::__function::__func<geode::Task<geode::Result<std::__ndk1::vector<DeathInfo_s, std::__ndk1::allocator<DeathInfo_s> >, std::__ndk1::basic_string<char, std::__ndk1::char_traits<char>, std::__ndk1::allocator<char> > >, std::__ndk1::monostate>::progress(std::__ndk1::shared_ptr<geode::Task<geode::Result<std::__ndk1::vector<DeathInfo_s, std::__ndk1::allocator<DeathInfo_s> >, std::__ndk1::basic_string<char, std::__ndk1::char_traits<char>, std::__ndk1::allocator<char> > >, std::__ndk1::monostate>::Handle>, std::__ndk1::monostate&&)::{lambda()#1}, std::__ndk1::allocator<geode::Task<geode::Result<std::__ndk1::vector<DeathInfo_s, std::__ndk1::allocator<DeathInfo_s> >, std::__ndk1::basic_string<char, std::__ndk1::char_traits<char>, std::__ndk1::allocator<char> > >, std::__ndk1::monostate>::progress(std::__ndk1::shared_ptr<geode::Task<geode::Result<std::__ndk1::vector<DeathInfo_s, std::__ndk1::allocator<DeathInfo_s> >, std::__ndk1::basic_string<char, std::__ndk1::char_traits<char>, std::__ndk1::allocator<char> > >, std::__ndk1::monostate>::Handle>, std::__ndk1::monostate&&)::{lambda()#1}>, void ()>::__clone() const
FUNC 9ab6c 34 0 std::__ndk1::__function::__func<geode::Task<geode::Result<std::__ndk1::vector<DeathInfo_s, std::__ndk1::allocator<DeathInfo_s> >, std::__ndk1::basic_string<char, std::__ndk1::char_traits<char>, std::__ndk1::allocator<char> > >, std::__ndk1::monostate>::progress(std::__ndk1::shared_ptr<geode::Task<geode::Result<std::__ndk1::vector<DeathInfo_s, std::__ndk1::allocator<DeathInfo_s> >, std::__ndk1::basic_string<char, std::__ndk1::char_traits<char>, std::__ndk1::allocator<char> > >, std::__ndk1::monostate>::Handle>, std::__ndk1::monostate&&)::{lambda()#1}, std::__ndk1::allocator<geode::Task<geode::Result<std::__ndk1::vector<DeathInfo_s, std::__ndk1::allocator<DeathInfo_s> >, std::__ndk1::basic_string<char, std::__ndk1::char_traits<char>, std::__ndk1::allocator<char> > >, std::__ndk1::monostate>::progress(std::__ndk1::shared_ptr<geode::Task<geode::Result<std::__ndk1::vector<DeathInfo_s, std::__ndk1::allocator<DeathInfo_s> >, std::__ndk1::basic_string<char, std::__ndk1::char_traits<char>, std::__ndk1::allocator<char> > >, std::__ndk1::monostate>::Handle>, std::__ndk1::monostate&&)::{lambda()#1}>, void ()>::__clone(std::__ndk1::__function::__base<void ()>*) const
FUNC 9aba0 50 0 std::__ndk1::__function::__func<geode::Task<geode::Result<std::__ndk1::vector<DeathInfo_s, std::__ndk1::allocator<DeathInfo_s> >, std::__ndk1::basic_string<char, std::__ndk1::char_traits<char>, std::__ndk1::allocator<char> > >, std::__ndk1::monostate>::progress(std::__ndk1::shared_ptr<geode::Task<geode::Result<std::__ndk1::vector<DeathInfo_s, std::__ndk1::allocator<DeathInfo_s> >, std::__ndk1::basic_string<char, std::__ndk1::char_traits<char>, std::__ndk1::allocator<char> > >, std::__ndk1::monostate>::Handle>, std::__ndk1::monostate&&)::{lambda()#1}, std::__ndk1::allocator<geode::Task<geode::Result<std::__ndk1::vector<DeathInfo_s, std::__ndk1::allocator<DeathInfo_s> >, std::__ndk1::basic_string<char, std::__ndk1::char_traits<char>, std::__ndk1::allocator<char> > >, std::__ndk1::monostate>::progress(std::__ndk1::shared_ptr<geode::Task<geode::Result<std::__ndk1::vector<DeathInfo_s, std::__ndk1::allocator<DeathInfo_s> >, std::__ndk1::basic_string<char, std::__ndk1::char_traits<char>, std::__ndk1::allocator<char> > >, std::__ndk1::monostate>::Handle>, std::__ndk1::monostate&&)::{lambda()#1}>, void ()>::destroy()
FUNC 9abf0 50 0 std::__ndk1::__function::__func<geode::Task<geode::Result<std::__ndk1::vector<DeathInfo_s, std::__ndk1::allocator<DeathInfo_s> >, std::__ndk1::basic_string<char, std::__ndk1::char_traits<char>, std::__ndk1::allocator<char> > >, std::__ndk1::monostate>::progress(std::__ndk1::shared_ptr<geode::Task<geode::Result<std::__ndk1::vector<DeathInfo_s, std::__ndk1::allocator<DeathInfo_s> >, std::__ndk1::basic_string<char, std::__ndk1::char_traits<char>, std::__ndk1::allocator<char> > >, std::__ndk1::monostate>::Handle>, std::__ndk1::monostate&&)::{lambda()#1}, std::__ndk1::allocator<geode::Task<geode::Result<std::__ndk1::vector<DeathInfo_s, std::__ndk1::allocator<DeathInfo_s> >, std::__ndk1::basic_string<char, std::__ndk1::char_traits<char>, std::__ndk1::allocator<char> > >, std::__ndk1::monostate>::progress(std::__ndk1::shared_ptr<geode::Task<geode::Result<std::__ndk1::vector<DeathInfo_s, std::__ndk1::allocator<DeathInfo_s> >, std::__ndk1::basic_string<char, std::__ndk1::char_traits<char>, std::__ndk1::allocator<char> > >, std::__ndk1::monostate>::Handle>, std::__ndk1::monostate&&)::{lambda()#1}>, void ()>::destroy_deallocate()
FUNC 9ac40 1b0 0 std::__ndk1::__function::__func<geode::Task<geode::Result<std::__ndk1::vector<DeathInfo_s, std::__ndk1::allocator<DeathInfo_s> >, std::__ndk1::basic_string<char, std::__ndk1::char_traits<char>, std::__ndk1::allocator<char> > >, std::__ndk1::monostate>::progress(std::__ndk1::shared_ptr<geode::Task<geode::Result<std::__ndk1::vector<DeathInfo_s, std::__ndk1::allocator<DeathInfo_s> >, std::__ndk1::basic_string<char, std::__ndk1::char_traits<char>, std::__ndk1::allocator<char> > >, std::__ndk1::monostate>::Handle>, std::__ndk1::monostate&&)::{lambda()#1}, std::__ndk1::allocator<geode::Task<geode::Result<std::__ndk1::vector<DeathInfo_s, std::__ndk1::allocator<DeathInfo_s> >, std::__ndk1::basic_string<char, std::__ndk1::char_traits<char>, std::__ndk1::allocator<char> > >, std::__ndk1::monostate>::progress(std::__ndk1::shared_ptr<geode::Task<geode::Result<std::__ndk1::vector<DeathInfo_s, std::__ndk1::allocator<DeathInfo_s> >, std::__ndk1::basic_string<char, std::__ndk1::char_traits<char>, std::__ndk1::allocator<char> > >, std::__ndk1::monostate>::Handle>, std::__ndk1::monostate&&)::{lambda()#1}>, void ()>::operator()()
FUNC 9adf0 1c 0 std::__ndk1::__function::__func<geode::Task<geode::Result<std::__ndk1::vector<DeathInfo_s, std::__ndk1::allocator<DeathInfo_s> >, std::__ndk1::basic_string<char, std::__ndk1::char_traits<char>, std::__ndk1::allocator<char> > >, std::__ndk1::monostate>::progress(std::__ndk1::shared_ptr<geode::Task<geode::Result<std::__ndk1::vector<DeathInfo_s, std::__ndk1::allocator<DeathInfo_s> >, std::__ndk1::basic_string<char, std::__ndk1::char_traits<char>, std::__ndk1::allocator<char> > >, std::__ndk1::monostate>::Handle>, std::__ndk1::monostate&&)::{lambda()#1}, std::__ndk1::allocator<geode::Task<geode::Result<std::__ndk1::vector<DeathInfo_s, std::__ndk1::allocator<DeathInfo_s> >, std::__ndk1::basic_string<char, std::__ndk1::char_traits<char>, std::__ndk1::allocator<char> > >, std::__ndk1::monostate>::progress(std::__ndk1::shared_ptr<geode::Task<geode::Result<std::__ndk1::vector<DeathInfo_s, std::__ndk1::allocator<DeathInfo_s> >, std::__ndk1::basic_string<char, std::__ndk1::char_traits<char>, std::__ndk1::allocator<char> > >, std::__ndk1::monostate>::Handle>, std::__ndk1::monostate&&)::{lambda()#1}>, void ()>::target(std::type_info const&) const
FUNC 9ae0c c 0 std::__ndk1::__function::__func<geode::Task<geode::Result<std::__ndk1::vector<DeathInfo_s, std::__ndk1::allocator<DeathInfo_s> >, std::__ndk1::basic_string<char, std::__ndk1::char_traits<char>, std::__ndk1::allocator<char> > >, std::__ndk1::monostate>::progress(std::__ndk1::shared_ptr<geode::Task<geode::Result<std::__ndk1::vector<DeathInfo_s, std::__ndk1::allocator<DeathInfo_s> >, std::__ndk1::basic_string<char, std::__ndk1::char_traits<char>, std::__ndk1::allocator<char> > >, std::__ndk1::monostate>::Handle>, std::__ndk1::monostate&&)::{lambda()#1}, std::__ndk1::allocator<geode::Task<geode::Result<std::__ndk1::vector<DeathInfo_s, std::__ndk1::allocator<DeathInfo_s> >, std::__ndk1::basic_string<char, std::__ndk1::char_traits<char>, std::__ndk1::allocator<char> > >, std::__ndk1::monostate>::progress(std::__ndk1::shared_ptr<geode::Task<geode::Result<std::__ndk1::vector<DeathInfo_s, std::__ndk1::allocator<DeathInfo_s> >, std::__ndk1::basic_string<char, std::__ndk1::char_traits<char>, std::__ndk1::allocator<char> > >, std::__ndk1::monostate>::Handle>, std::__ndk1::monostate&&)::{lambda()#1}>, void ()>::target_type() const
FUNC 9ae18 20 0 std::__ndk1::__function::__func<geode::Task<geode::Result<std::__ndk1::vector<DeathInfo_s, std::__ndk1::allocator<DeathInfo_s> >, std::__ndk1::basic_string<char, std::__ndk1::char_traits<char>, std::__ndk1::allocator<char> > >, std::__ndk1::monostate>::run(std::__ndk1::function<geode::Task<geode::Result<std::__ndk1::vector<DeathInfo_s, std::__ndk1::allocator<DeathInfo_s> >, std::__ndk1::basic_string<char, std::__ndk1::char_traits<char>, std::__ndk1::allocator<char> > >, std::__ndk1::monostate>::Result(std::__ndk1::function<void (std::__ndk1::monostate)>, std::__ndk1::function<bool ()>)>&&, std::__ndk1::basic_string_view<char, std::__ndk1::char_traits<char> >)::{lambda()#1}::operator()() const::{lambda()#1}, std::__ndk1::allocator<geode::Task<geode::Result<std::__ndk1::vector<DeathInfo_s, std::__ndk1::allocator<DeathInfo_s> >, std::__ndk1::basic_string<char, std::__ndk1::char_traits<char>, std::__ndk1::allocator<char> > >, std::__ndk1::monostate>::run(std::__ndk1::function<geode::Task<geode::Result<std::__ndk1::vector<DeathInfo_s, std::__ndk1::allocator<DeathInfo_s> >, std::__ndk1::basic_string<char, std::__ndk1::char_traits<char>, std::__ndk1::allocator<char> > >, std::__ndk1::monostate>::Result(std::__ndk1::function<void (std::__ndk1::monostate)>, std::__ndk1::function<bool ()>)>&&, std::__ndk1::basic_string_view<char, std::__ndk1::char_traits<char> >)::{lambda()#1}::operator()() const::{lambda()#1}>, bool ()>::~__func()
FUNC 9ae38 3c 0 std::__ndk1::__function::__func<geode::Task<geode::Result<std::__ndk1::vector<DeathInfo_s, std::__ndk1::allocator<DeathInfo_s> >, std::__ndk1::basic_string<char, std::__ndk1::char_traits<char>, std::__ndk1::allocator<char> > >, std::__ndk1::monostate>::run(std::__ndk1::function<geode::Task<geode::Result<std::__ndk1::vector<DeathInfo_s, std::__ndk1::allocator<DeathInfo_s> >, std::__ndk1::basic_string<char, std::__ndk1::char_traits<char>, std::__ndk1::allocator<char> > >, std::__ndk1::monostate>::Result(std::__ndk1::function<void (std::__ndk1::monostate)>, std::__ndk1::function<bool ()>)>&&, std::__ndk1::basic_string_view<char, std::__ndk1::char_traits<char> >)::{lambda()#1}::operator()() const::{lambda()#1}, std::__ndk1::allocator<geode::Task<geode::Result<std::__ndk1::vector<DeathInfo_s, std::__ndk1::allocator<DeathInfo_s> >, std::__ndk1::basic_string<char, std::__ndk1::char_traits<char>, std::__ndk1::allocator<char> > >, std::__ndk1::monostate>::run(std::__ndk1::function<geode::Task<geode::Result<std::__ndk1::vector<DeathInfo_s, std::__ndk1::allocator<DeathInfo_s> >, std::__ndk1::basic_string<char, std::__ndk1::char_traits<char>, std::__ndk1::allocator<char> > >, std::__ndk1::monostate>::Result(std::__ndk1::function<void (std::__ndk1::monostate)>, std::__ndk1::function<bool ()>)>&&, std::__ndk1::basic_string_view<char, std::__ndk1::char_traits<char> >)::{lambda()#1}::operator()() const::{lambda()#1}>, bool ()>::~__func()
FUNC 9ae74 50 0 std::__ndk1::__function::__func<geode::Task<geode::Result<std::__ndk1::vector<DeathInfo_s, std::__ndk1::allocator<DeathInfo_s> >, std::__ndk1::basic_string<char, std::__ndk1::char_traits<char>, std::__ndk1::allocator<char> > >, std::__ndk1::monostate>::run(std::__ndk1::function<geode::Task<geode::Result<std::__ndk1::vector<DeathInfo_s, std::__ndk1::allocator<DeathInfo_s> >, std::__ndk1::basic_string<char, std::__ndk1::char_traits<char>, std::__ndk1::allocator<char> > >, std::__ndk1::monostate>::Result(std::__ndk1::function<void (std::__ndk1::monostate)>, std::__ndk1::function<bool ()>)>&&, std::__ndk1::basic_string_view<char, std::__ndk1::char_traits<char> >)::{lambda()#1}::operator()() const::{lambda()#1}, std::__ndk1::allocator<geode::Task<geode::Result<std::__ndk1::vector<DeathInfo_s, std::__ndk1::allocator<DeathInfo_s> >, std::__ndk1::basic_string<char, std::__ndk1::char_traits<char>, std::__ndk1::allocator<char> > >, std::__ndk1::monostate>::run(std::__ndk1::function<geode::Task<geode::Result<std::__ndk1::vector<DeathInfo_s, std::__ndk1::allocator<DeathInfo_s> >, std::__ndk1::basic_string<char, std::__ndk1::char_traits<char>, std::__ndk1::allocator<char> > >, std::__ndk1::monostate>::Result(std::__ndk1::function<void (std::__ndk1::monostate)>, std::__ndk1::function<bool ()>)>&&, std::__ndk1::basic_string_view<char, std::__ndk1::char_traits<char> >)::{lambda()#1}::operator()() const::{lambda()#1}>, bool ()>::__clone() const
FUNC 9aec4 34 0 std::__ndk1::__function::__func<geode::Task<geode::Result<std::__ndk1::vector<DeathInfo_s, std::__ndk1::allocator<DeathInfo_s> >, std::__ndk1::basic_string<char, std::__ndk1::char_traits<char>, std::__ndk1::allocator<char> > >, std::__ndk1::monostate>::run(std::__ndk1::function<geode::Task<geode::Result<std::__ndk1::vector<DeathInfo_s, std::__ndk1::allocator<DeathInfo_s> >, std::__ndk1::basic_string<char, std::__ndk1::char_traits<char>, std::__ndk1::allocator<char> > >, std::__ndk1::monostate>::Result(std::__ndk1::function<void (std::__ndk1::monostate)>, std::__ndk1::function<bool ()>)>&&, std::__ndk1::basic_string_view<char, std::__ndk1::char_traits<char> >)::{lambda()#1}::operator()() const::{lambda()#1}, std::__ndk1::allocator<geode::Task<geode::Result<std::__ndk1::vector<DeathInfo_s, std::__ndk1::allocator<DeathInfo_s> >, std::__ndk1::basic_string<char, std::__ndk1::char_traits<char>, std::__ndk1::allocator<char> > >, std::__ndk1::monostate>::run(std::__ndk1::function<geode::Task<geode::Result<std::__ndk1::vector<DeathInfo_s, std::__ndk1::allocator<DeathInfo_s> >, std::__ndk1::basic_string<char, std::__ndk1::char_traits<char>, std::__ndk1::allocator<char> > >, std::__ndk1::monostate>::Result(std::__ndk1::function<void (std::__ndk1::monostate)>, std::__ndk1::function<bool ()>)>&&, std::__ndk1::basic_string_view<char, std::__ndk1::char_traits<char> >)::{lambda()#1}::operator()() const::{lambda()#1}>, bool ()>::__clone(std::__ndk1::__function::__base<bool ()>*) const
FUNC 9aef8 10 0 std::__ndk1::__function::__func<geode::Task<geode::Result<std::__ndk1::vector<DeathInfo_s, std::__ndk1::allocator<DeathInfo_s> >, std::__ndk1::basic_string<char, std::__ndk1::char_traits<char>, std::__ndk1::allocator<char> > >, std::__ndk1::monostate>::run(std::__ndk1::function<geode::Task<geode::Result<std::__ndk1::vector<DeathInfo_s, std::__ndk1::allocator<DeathInfo_s> >, std::__ndk1::basic_string<char, std::__ndk1::char_traits<char>, std::__ndk1::allocator<char> > >, std::__ndk1::monostate>::Result(std::__ndk1::function<void (std::__ndk1::monostate)>, std::__ndk1::function<bool ()>)>&&, std::__ndk1::basic_string_view<char, std::__ndk1::char_traits<char> >)::{lambda()#1}::operator()() const::{lambda()#1}, std::__ndk1::allocator<geode::Task<geode::Result<std::__ndk1::vector<DeathInfo_s, std::__ndk1::allocator<DeathInfo_s> >, std::__ndk1::basic_string<char, std::__ndk1::char_traits<char>, std::__ndk1::allocator<char> > >, std::__ndk1::monostate>::run(std::__ndk1::function<geode::Task<geode::Result<std::__ndk1::vector<DeathInfo_s, std::__ndk1::allocator<DeathInfo_s> >, std::__ndk1::basic_string<char, std::__ndk1::char_traits<char>, std::__ndk1::allocator<char> > >, std::__ndk1::monostate>::Result(std::__ndk1::function<void (std::__ndk1::monostate)>, std::__ndk1::function<bool ()>)>&&, std::__ndk1::basic_string_view<char, std::__ndk1::char_traits<char> >)::{lambda()#1}::operator()() const::{lambda()#1}>, bool ()>::destroy()
FUNC 9af08 30 0 std::__ndk1::__function::__func<geode::Task<geode::Result<std::__ndk1::vector<DeathInfo_s, std::__ndk1::allocator<DeathInfo_s> >, std::__ndk1::basic_string<char, std::__ndk1::char_traits<char>, std::__ndk1::allocator<char> > >, std::__ndk1::monostate>::run(std::__ndk1::function<geode::Task<geode::Result<std::__ndk1::vector<DeathInfo_s, std::__ndk1::allocator<DeathInfo_s> >, std::__ndk1::basic_string<char, std::__ndk1::char_traits<char>, std::__ndk1::allocator<char> > >, std::__ndk1::monostate>::Result(std::__ndk1::function<void (std::__ndk1::monostate)>, std::__ndk1::function<bool ()>)>&&, std::__ndk1::basic_string_view<char, std::__ndk1::char_traits<char> >)::{lambda()#1}::operator()() const::{lambda()#1}, std::__ndk1::allocator<geode::Task<geode::Result<std::__ndk1::vector<DeathInfo_s, std::__ndk1::allocator<DeathInfo_s> >, std::__ndk1::basic_string<char, std::__ndk1::char_traits<char>, std::__ndk1::allocator<char> > >, std::__ndk1::monostate>::run(std::__ndk1::function<geode::Task<geode::Result<std::__ndk1::vector<DeathInfo_s, std::__ndk1::allocator<DeathInfo_s> >, std::__ndk1::basic_string<char, std::__ndk1::char_traits<char>, std::__ndk1::allocator<char> > >, std::__ndk1::monostate>::Result(std::__ndk1::function<void (std::__ndk1::monostate)>, std::__ndk1::function<bool ()>)>&&, std::__ndk1::basic_string_view<char, std::__ndk1::char_traits<char> >)::{lambda()#1}::operator()() const::{lambda()#1}>, bool ()>::destroy_deallocate()
FUNC 9af38 ec 0 std::__ndk1::__function::__func<geode::Task<geode::Result<std::__ndk1::vector<DeathInfo_s, std::__ndk1::allocator<DeathInfo_s> >, std::__ndk1::basic_string<char, std::__ndk1::char_traits<char>, std::__ndk1::allocator<char> > >, std::__ndk1::monostate>::run(std::__ndk1::function<geode::Task<geode::Result<std::__ndk1::vector<DeathInfo_s, std::__ndk1::allocator<DeathInfo_s> >, std::__ndk1::basic_string<char, std::__ndk1::char_traits<char>, std::__ndk1::allocator<char> > >, std::__ndk1::monostate>::Result(std::__ndk1::function<void (std::__ndk1::monostate)>, std::__ndk1::function<bool ()>)>&&, std::__ndk1::basic_string_view<char, std::__ndk1::char_traits<char> >)::{lambda()#1}::operator()() const::{lambda()#1}, std::__ndk1::allocator<geode::Task<geode::Result<std::__ndk1::vector<DeathInfo_s, std::__ndk1::allocator<DeathInfo_s> >, std::__ndk1::basic_string<char, std::__ndk1::char_traits<char>, std::__ndk1::allocator<char> > >, std::__ndk1::monostate>::run(std::__ndk1::function<geode::Task<geode::Result<std::__ndk1::vector<DeathInfo_s, std::__ndk1::allocator<DeathInfo_s> >, std::__ndk1::basic_string<char, std::__ndk1::char_traits<char>, std::__ndk1::allocator<char> > >, std::__ndk1::monostate>::Result(std::__ndk1::function<void (std::__ndk1::monostate)>, std::__ndk1::function<bool ()>)>&&, std::__ndk1::basic_string_view<char, std::__ndk1::char_traits<char> >)::{lambda()#1}::operator()() const::{lambda()#1}>, bool ()>::operator()()
FUNC 9b024 1c 0 std::__ndk1::__function::__func<geode::Task<geode::Result<std::__ndk1::vector<DeathInfo_s, std::__ndk1::allocator<DeathInfo_s> >, std::__ndk1::basic_string<char, std::__ndk1::char_traits<char>, std::__ndk1::allocator<char> > >, std::__ndk1::monostate>::run(std::__ndk1::function<geode::Task<geode::Result<std::__ndk1::vector<DeathInfo_s, std::__ndk1::allocator<DeathInfo_s> >, std::__ndk1::basic_string<char, std::__ndk1::char_traits<char>, std::__ndk1::allocator<char> > >, std::__ndk1::monostate>::Result(std::__ndk1::function<void (std::__ndk1::monostate)>, std::__ndk1::function<bool ()>)>&&, std::__ndk1::basic_string_view<char, std::__ndk1::char_traits<char> >)::{lambda()#1}::operator()() const::{lambda()#1}, std::__ndk1::allocator<geode::Task<geode::Result<std::__ndk1::vector<DeathInfo_s, std::__ndk1::allocator<DeathInfo_s> >, std::__ndk1::basic_string<char, std::__ndk1::char_traits<char>, std::__ndk1::allocator<char> > >, std::__ndk1::monostate>::run(std::__ndk1::function<geode::Task<geode::Result<std::__ndk1::vector<DeathInfo_s, std::__ndk1::allocator<DeathInfo_s> >, std::__ndk1::basic_string<char, std::__ndk1::char_traits<char>, std::__ndk1::allocator<char> > >, std::__ndk1::monostate>::Result(std::__ndk1::function<void (std::__ndk1::monostate)>, std::__ndk1::function<bool ()>)>&&, std::__ndk1::basic_string_view<char, std::__ndk1::char_traits<char> >)::{lambda()#1}::operator()() const::{lambda()#1}>, bool ()>::target(std::type_info const&) const
FUNC 9b040 c 0 std::__ndk1::__function::__func<geode::Task<geode::Result<std::__ndk1::vector<DeathInfo_s, std::__ndk1::allocator<DeathInfo_s> >, std::__ndk1::basic_string<char, std::__ndk1::char_traits<char>, std::__ndk1::allocator<char> > >, std::__ndk1::monostate>::run(std::__ndk1::function<geode::Task<geode::Result<std::__ndk1::vector<DeathInfo_s, std::__ndk1::allocator<DeathInfo_s> >, std::__ndk1::basic_string<char, std::__ndk1::char_traits<char>, std::__ndk1::allocator<char> > >, std::__ndk1::monostate>::Result(std::__ndk1::function<void (std::__ndk1::monostate)>, std::__ndk1::function<bool ()>)>&&, std::__ndk1::basic_string_view<char, std::__ndk1::char_traits<char> >)::{lambda()#1}::operator()() const::{lambda()#1}, std::__ndk1::allocator<geode::Task<geode::Result<std::__ndk1::vector<DeathInfo_s, std::__ndk1::allocator<DeathInfo_s> >, std::__ndk1::basic_string<char, std::__ndk1::char_traits<char>, std::__ndk1::allocator<char> > >, std::__ndk1::monostate>::run(std::__ndk1::function<geode::Task<geode::Result<std::__ndk1::vector<DeathInfo_s, std::__ndk1::allocator<DeathInfo_s> >, std::__ndk1::basic_string<char, std::__ndk1::char_traits<char>, std::__ndk1::allocator<char> > >, std::__ndk1::monostate>::Result(std::__ndk1::function<void (std::__ndk1::monostate)>, std::__ndk1::function<bool ()>)>&&, std::__ndk1::basic_string_view<char, std::__ndk1::char_traits<char> >)::{lambda()#1}::operator()() const::{lambda()#1}>, bool ()>::target_type() const
FUNC 9b04c 50 0 geode::Task<geode::Result<std::__ndk1::vector<DeathInfo_s, std::__ndk1::allocator<DeathInfo_s> >, std::__ndk1::basic_string<char, std::__ndk1::char_traits<char>, std::__ndk1::allocator<char> > >, std::__ndk1::monostate>::finish(std::__ndk1::shared_ptr<geode::Task<geode::Result<std::__ndk1::vector<DeathInfo_s, std::__ndk1::allocator<DeathInfo_s> >, std::__ndk1::basic_string<char, std::__ndk1::char_traits<char>, std::__ndk1::allocator<char> > >, std::__ndk1::monostate>::Handle>, geode::Result<std::__ndk1::vector<DeathInfo_s, std::__ndk1::allocator<DeathInfo_s> >, std::__ndk1::basic_string<char, std::__ndk1::char_traits<char>, std::__ndk1::allocator<char> > >&&)::{lambda()#1}::~{lambda()#1}()
FUNC 9b09c 24 0 _ZNSt6__ndk116__variant_detail12__visitation6__base12__dispatcherIJLm0ELm0EEE10__dispatchB8ne180000IOZNS0_6__ctorINS0_8__traitsIJNS_6vectorI11DeathInfo_sNS_9allocatorIS9_EEEENS_12basic_stringIcNS_11char_traitsIcEENSA_IcEEEEEEEE19__generic_constructB8ne180000INS0_18__move_constructorISI_LNS0_6_TraitE1EEEEEvRSJ_OT_EUlRSP_OT0_E_JRNS0_6__baseILSM_1EJSC_SH_EEEOSX_EEEDcSP_DpT0_
FUNC 9b0c0 1c 0 _ZNSt6__ndk116__variant_detail12__visitation6__base12__dispatcherIJLm1ELm1EEE10__dispatchB8ne180000IOZNS0_6__ctorINS0_8__traitsIJNS_6vectorI11DeathInfo_sNS_9allocatorIS9_EEEENS_12basic_stringIcNS_11char_traitsIcEENSA_IcEEEEEEEE19__generic_constructB8ne180000INS0_18__move_constructorISI_LNS0_6_TraitE1EEEEEvRSJ_OT_EUlRSP_OT0_E_JRNS0_6__baseILSM_1EJSC_SH_EEEOSX_EEEDcSP_DpT0_
FUNC 9b0dc 5c 0 std::__ndk1::__function::__func<geode::Task<geode::Result<std::__ndk1::vector<DeathInfo_s, std::__ndk1::allocator<DeathInfo_s> >, std::__ndk1::basic_string<char, std::__ndk1::char_traits<char>, std::__ndk1::allocator<char> > >, std::__ndk1::monostate>::finish(std::__ndk1::shared_ptr<geode::Task<geode::Result<std::__ndk1::vector<DeathInfo_s, std::__ndk1::allocator<DeathInfo_s> >, std::__ndk1::basic_string<char, std::__ndk1::char_traits<char>, std::__ndk1::allocator<char> > >, std::__ndk1::monostate>::Handle>, geode::Result<std::__ndk1::vector<DeathInfo_s, std::__ndk1::allocator<DeathInfo_s> >, std::__ndk1::basic_string<char, std::__ndk1::char_traits<char>, std::__ndk1::allocator<char> > >&&)::{lambda()#1}, std::__ndk1::allocator<geode::Task<geode::Result<std::__ndk1::vector<DeathInfo_s, std::__ndk1::allocator<DeathInfo_s> >, std::__ndk1::basic_string<char, std::__ndk1::char_traits<char>, std::__ndk1::allocator<char> > >, std::__ndk1::monostate>::finish(std::__ndk1::shared_ptr<geode::Task<geode::Result<std::__ndk1::vector<DeathInfo_s, std::__ndk1::allocator<DeathInfo_s> >, std::__ndk1::basic_string<char, std::__ndk1::char_traits<char>, std::__ndk1::allocator<char> > >, std::__ndk1::monostate>::Handle>, geode::Result<std::__ndk1::vector<DeathInfo_s, std::__ndk1::allocator<DeathInfo_s> >, std::__ndk1::basic_string<char, std::__ndk1::char_traits<char>, std::__ndk1::allocator<char> > >&&)::{lambda()#1}>, void ()>::~__func()
FUNC 9b138 5c 0 std::__ndk1::__function::__func<geode::Task<geode::Result<std::__ndk1::vector<DeathInfo_s, std::__ndk1::allocator<DeathInfo_s> >, std::__ndk1::basic_string<char, std::__ndk1::char_traits<char>, std::__ndk1::allocator<char> > >, std::__ndk1::monostate>::finish(std::__ndk1::shared_ptr<geode::Task<geode::Result<std::__ndk1::vector<DeathInfo_s, std::__ndk1::allocator<DeathInfo_s> >, std::__ndk1::basic_string<char, std::__ndk1::char_traits<char>, std::__ndk1::allocator<char> > >, std::__ndk1::monostate>::Handle>, geode::Result<std::__ndk1::vector<DeathInfo_s, std::__ndk1::allocator<DeathInfo_s> >, std::__ndk1::basic_string<char, std::__ndk1::char_traits<char>, std::__ndk1::allocator<char> > >&&)::{lambda()#1}, std::__ndk1::allocator<geode::Task<geode::Result<std::__ndk1::vector<DeathInfo_s, std::__ndk1::allocator<DeathInfo_s> >, std::__ndk1::basic_string<char, std::__ndk1::char_traits<char>, std::__ndk1::allocator<char> > >, std::__ndk1::monostate>::finish(std::__ndk1::shared_ptr<geode::Task<geode::Result<std::__ndk1::vector<DeathInfo_s, std::__ndk1::allocator<DeathInfo_s> >, std::__ndk1::basic_string<char, std::__ndk1::char_traits<char>, std::__ndk1::allocator<char> > >, std::__ndk1::monostate>::Handle>, geode::Result<std::__ndk1::vector<DeathInfo_s, std::__ndk1::allocator<DeathInfo_s> >, std::__ndk1::basic_string<char, std::__ndk1::char_traits<char>, std::__ndk1::allocator<char> > >&&)::{lambda()#1}>, void ()>::~__func()
FUNC 9b194 58 0 std::__ndk1::__function::__func<geode::Task<geode::Result<std::__ndk1::vector<DeathInfo_s, std::__ndk1::allocator<DeathInfo_s> >, std::__ndk1::basic_string<char, std::__ndk1::char_traits<char>, std::__ndk1::allocator<char> > >, std::__ndk1::monostate>::finish(std::__ndk1::shared_ptr<geode::Task<geode::Result<std::__ndk1::vector<DeathInfo_s, std::__ndk1::allocator<DeathInfo_s> >, std::__ndk1::basic_string<char, std::__ndk1::char_traits<char>, std::__ndk1::allocator<char> > >, std::__ndk1::monostate>::Handle>, geode::Result<std::__ndk1::vector<DeathInfo_s, std::__ndk1::allocator<DeathInfo_s> >, std::__ndk1::basic_string<char, std::__ndk1::char_traits<char>, std::__ndk1::allocator<char> > >&&)::{lambda()#1}, std::__ndk1::allocator<geode::Task<geode::Result<std::__ndk1::vector<DeathInfo_s, std::__ndk1::allocator<DeathInfo_s> >, std::__ndk1::basic_string<char, std::__ndk1::char_traits<char>, std::__ndk1::allocator<char> > >, std::__ndk1::monostate>::finish(std::__ndk1::shared_ptr<geode::Task<geode::Result<std::__ndk1::vector<DeathInfo_s, std::__ndk1::allocator<DeathInfo_s> >, std::__ndk1::basic_string<char, std::__ndk1::char_traits<char>, std::__ndk1::allocator<char> > >, std::__ndk1::monostate>::Handle>, geode::Result<std::__ndk1::vector<DeathInfo_s, std::__ndk1::allocator<DeathInfo_s> >, std::__ndk1::basic_string<char, std::__ndk1::char_traits<char>, std::__ndk1::allocator<char> > >&&)::{lambda()#1}>, void ()>::__clone() const
FUNC 9b1ec 4c 0 std::__ndk1::__function::__func<geode::Task<geode::Result<std::__ndk1::vector<DeathInfo_s, std::__ndk1::allocator<DeathInfo_s> >, std::__ndk1::basic_string<char, std::__ndk1::char_traits<char>, std::__ndk1::allocator<char> > >, std::__ndk1::monostate>::finish(std::__ndk1::shared_ptr<geode::Task<geode::Result<std::__ndk1::vector<DeathInfo_s, std::__ndk1::allocator<DeathInfo_s> >, std::__ndk1::basic_string<char, std::__ndk1::char_traits<char>, std::__ndk1::allocator<char> > >, std::__ndk1::monostate>::Handle>, geode::Result<std::__ndk1::vector<DeathInfo_s, std::__ndk1::allocator<DeathInfo_s> >, std::__ndk1::basic_string<char, std::__ndk1::char_traits<char>, std::__ndk1::allocator<char> > >&&)::{lambda()#1}, std::__ndk1::allocator<geode::Task<geode::Result<std::__ndk1::vector<DeathInfo_s, std::__ndk1::allocator<DeathInfo_s> >, std::__ndk1::basic_string<char, std::__ndk1::char_traits<char>, std::__ndk1::allocator<char> > >, std::__ndk1::monostate>::finish(std::__ndk1::shared_ptr<geode::Task<geode::Result<std::__ndk1::vector<DeathInfo_s, std::__ndk1::allocator<DeathInfo_s> >, std::__ndk1::basic_string<char, std::__ndk1::char_traits<char>, std::__ndk1::allocator<char> > >, std::__ndk1::monostate>::Handle>, geode::Result<std::__ndk1::vector<DeathInfo_s, std::__ndk1::allocator<DeathInfo_s> >, std::__ndk1::basic_string<char, std::__ndk1::char_traits<char>, std::__ndk1::allocator<char> > >&&)::{lambda()#1}>, void ()>::__clone(std::__ndk1::__function::__base<void ()>*) const
FUNC 9b238 50 0 std::__ndk1::__function::__func<geode::Task<geode::Result<std::__ndk1::vector<DeathInfo_s, std::__ndk1::allocator<DeathInfo_s> >, std::__ndk1::basic_string<char, std::__ndk1::char_traits<char>, std::__ndk1::allocator<char> > >, std::__ndk1::monostate>::finish(std::__ndk1::shared_ptr<geode::Task<geode::Result<std::__ndk1::vector<DeathInfo_s, std::__ndk1::allocator<DeathInfo_s> >, std::__ndk1::basic_string<char, std::__ndk1::char_traits<char>, std::__ndk1::allocator<char> > >, std::__ndk1::monostate>::Handle>, geode::Result<std::__ndk1::vector<DeathInfo_s, std::__ndk1::allocator<DeathInfo_s> >, std::__ndk1::basic_string<char, std::__ndk1::char_traits<char>, std::__ndk1::allocator<char> > >&&)::{lambda()#1}, std::__ndk1::allocator<geode::Task<geode::Result<std::__ndk1::vector<DeathInfo_s, std::__ndk1::allocator<DeathInfo_s> >, std::__ndk1::basic_string<char, std::__ndk1::char_traits<char>, std::__ndk1::allocator<char> > >, std::__ndk1::monostate>::finish(std::__ndk1::shared_ptr<geode::Task<geode::Result<std::__ndk1::vector<DeathInfo_s, std::__ndk1::allocator<DeathInfo_s> >, std::__ndk1::basic_string<char, std::__ndk1::char_traits<char>, std::__ndk1::allocator<char> > >, std::__ndk1::monostate>::Handle>, geode::Result<std::__ndk1::vector<DeathInfo_s, std::__ndk1::allocator<DeathInfo_s> >, std::__ndk1::basic_string<char, std::__ndk1::char_traits<char>, std::__ndk1::allocator<char> > >&&)::{lambda()#1}>, void ()>::destroy()
FUNC 9b288 50 0 std::__ndk1::__function::__func<geode::Task<geode::Result<std::__ndk1::vector<DeathInfo_s, std::__ndk1::allocator<DeathInfo_s> >, std::__ndk1::basic_string<char, std::__ndk1::char_traits<char>, std::__ndk1::allocator<char> > >, std::__ndk1::monostate>::finish(std::__ndk1::shared_ptr<geode::Task<geode::Result<std::__ndk1::vector<DeathInfo_s, std::__ndk1::allocator<DeathInfo_s> >, std::__ndk1::basic_string<char, std::__ndk1::char_traits<char>, std::__ndk1::allocator<char> > >, std::__ndk1::monostate>::Handle>, geode::Result<std::__ndk1::vector<DeathInfo_s, std::__ndk1::allocator<DeathInfo_s> >, std::__ndk1::basic_string<char, std::__ndk1::char_traits<char>, std::__ndk1::allocator<char> > >&&)::{lambda()#1}, std::__ndk1::allocator<geode::Task<geode::Result<std::__ndk1::vector<DeathInfo_s, std::__ndk1::allocator<DeathInfo_s> >, std::__ndk1::basic_string<char, std::__ndk1::char_traits<char>, std::__ndk1::allocator<char> > >, std::__ndk1::monostate>::finish(std::__ndk1::shared_ptr<geode::Task<geode::Result<std::__ndk1::vector<DeathInfo_s, std::__ndk1::allocator<DeathInfo_s> >, std::__ndk1::basic_string<char, std::__ndk1::char_traits<char>, std::__ndk1::allocator<char> > >, std::__ndk1::monostate>::Handle>, geode::Result<std::__ndk1::vector<DeathInfo_s, std::__ndk1::allocator<DeathInfo_s> >, std::__ndk1::basic_string<char, std::__ndk1::char_traits<char>, std::__ndk1::allocator<char> > >&&)::{lambda()#1}>, void ()>::destroy_deallocate()
FUNC 9b2d8 1c8 0 std::__ndk1::__function::__func<geode::Task<geode::Result<std::__ndk1::vector<DeathInfo_s, std::__ndk1::allocator<DeathInfo_s> >, std::__ndk1::basic_string<char, std::__ndk1::char_traits<char>, std::__ndk1::allocator<char> > >, std::__ndk1::monostate>::finish(std::__ndk1::shared_ptr<geode::Task<geode::Result<std::__ndk1::vector<DeathInfo_s, std::__ndk1::allocator<DeathInfo_s> >, std::__ndk1::basic_string<char, std::__ndk1::char_traits<char>, std::__ndk1::allocator<char> > >, std::__ndk1::monostate>::Handle>, geode::Result<std::__ndk1::vector<DeathInfo_s, std::__ndk1::allocator<DeathInfo_s> >, std::__ndk1::basic_string<char, std::__ndk1::char_traits<char>, std::__ndk1::allocator<char> > >&&)::{lambda()#1}, std::__ndk1::allocator<geode::Task<geode::Result<std::__ndk1::vector<DeathInfo_s, std::__ndk1::allocator<DeathInfo_s> >, std::__ndk1::basic_string<char, std::__ndk1::char_traits<char>, std::__ndk1::allocator<char> > >, std::__ndk1::monostate>::finish(std::__ndk1::shared_ptr<geode::Task<geode::Result<std::__ndk1::vector<DeathInfo_s, std::__ndk1::allocator<DeathInfo_s> >, std::__ndk1::basic_string<char, std::__ndk1::char_traits<char>, std::__ndk1::allocator<char> > >, std::__ndk1::monostate>::Handle>, geode::Result<std::__ndk1::vector<DeathInfo_s, std::__ndk1::allocator<DeathInfo_s> >, std::__ndk1::basic_string<char, std::__ndk1::char_traits<char>, std::__ndk1::allocator<char> > >&&)::{lambda()#1}>, void ()>::operator()()
FUNC 9b4a0 1c 0 std::__ndk1::__function::__func<geode::Task<geode::Result<std::__ndk1::vector<DeathInfo_s, std::__ndk1::allocator<DeathInfo_s> >, std::__ndk1::basic_string<char, std::__ndk1::char_traits<char>, std::__ndk1::allocator<char> > >, std::__ndk1::monostate>::finish(std::__ndk1::shared_ptr<geode::Task<geode::Result<std::__ndk1::vector<DeathInfo_s, std::__ndk1::allocator<DeathInfo_s> >, std::__ndk1::basic_string<char, std::__ndk1::char_traits<char>, std::__ndk1::allocator<char> > >, std::__ndk1::monostate>::Handle>, geode::Result<std::__ndk1::vector<DeathInfo_s, std::__ndk1::allocator<DeathInfo_s> >, std::__ndk1::basic_string<char, std::__ndk1::char_traits<char>, std::__ndk1::allocator<char> > >&&)::{lambda()#1}, std::__ndk1::allocator<geode::Task<geode::Result<std::__ndk1::vector<DeathInfo_s, std::__ndk1::allocator<DeathInfo_s> >, std::__ndk1::basic_string<char, std::__ndk1::char_traits<char>, std::__ndk1::allocator<char> > >, std::__ndk1::monostate>::finish(std::__ndk1::shared_ptr<geode::Task<geode::Result<std::__ndk1::vector<DeathInfo_s, std::__ndk1::allocator<DeathInfo_s> >, std::__ndk1::basic_string<char, std::__ndk1::char_traits<char>, std::__ndk1::allocator<char> > >, std::__ndk1::monostate>::Handle>, geode::Result<std::__ndk1::vector<DeathInfo_s, std::__ndk1::allocator<DeathInfo_s> >, std::__ndk1::basic_string<char, std::__ndk1::char_traits<char>, std::__ndk1::allocator<char> > >&&)::{lambda()#1}>, void ()>::target(std::type_info const&) const
FUNC 9b4bc c 0 std::__ndk1::__function::__func<geode::Task<geode::Result<std::__ndk1::vector<DeathInfo_s, std::__ndk1::allocator<DeathInfo_s> >, std::__ndk1::basic_string<char, std::__ndk1::char_traits<char>, std::__ndk1::allocator<char> > >, std::__ndk1::monostate>::finish(std::__ndk1::shared_ptr<geode::Task<geode::Result<std::__ndk1::vector<DeathInfo_s, std::__ndk1::allocator<DeathInfo_s> >, std::__ndk1::basic_string<char, std::__ndk1::char_traits<char>, std::__ndk1::allocator<char> > >, std::__ndk1::monostate>::Handle>, geode::Result<std::__ndk1::vector<DeathInfo_s, std::__ndk1::allocator<DeathInfo_s> >, std::__ndk1::basic_string<char, std::__ndk1::char_traits<char>, std::__ndk1::allocator<char> > >&&)::{lambda()#1}, std::__ndk1::allocator<geode::Task<geode::Result<std::__ndk1::vector<DeathInfo_s, std::__ndk1::allocator<DeathInfo_s> >, std::__ndk1::basic_string<char, std::__ndk1::char_traits<char>, std::__ndk1::allocator<char> > >, std::__ndk1::monostate>::finish(std::__ndk1::shared_ptr<geode::Task<geode::Result<std::__ndk1::vector<DeathInfo_s, std::__ndk1::allocator<DeathInfo_s> >, std::__ndk1::basic_string<char, std::__ndk1::char_traits<char>, std::__ndk1::allocator<char> > >, std::__ndk1::monostate>::Handle>, geode::Result<std::__ndk1::vector<DeathInfo_s, std::__ndk1::allocator<DeathInfo_s> >, std::__ndk1::basic_string<char, std::__ndk1::char_traits<char>, std::__ndk1::allocator<char> > >&&)::{lambda()#1}>, void ()>::target_type() const
FUNC 9b4c8 74 0 std::__ndk1::__variant_detail::__visitation::__base::__dispatcher<(unsigned long)0>::__dispatch[abi:ne180000]<std::__ndk1::__variant_detail::__dtor<std::__ndk1::__variant_detail::__traits<geode::Result<std::__ndk1::vector<DeathInfo_s, std::__ndk1::allocator<std::__ndk1::vector> >, std::__ndk1::basic_string<char, std::__ndk1::char_traits<char>, DeathInfo_s<char> > >, std::__ndk1::__variant_detail::__traits::Task<std::__ndk1::basic_string<char, std::__ndk1::char_traits<char>, DeathInfo_s<char> >, std::__ndk1::monostate>::Cancel>, (std::__ndk1::__variant_detail::_Trait)1>::__destroy[abi:ne180000]()::{lambda(auto:1&)#1}, std::__ndk1::__variant_detail::__base<(std::__ndk1::__variant_detail::__traits<geode::Result<std::__ndk1::vector<DeathInfo_s, std::__ndk1::allocator<std::__ndk1::vector> >, std::__ndk1::basic_string<char, std::__ndk1::char_traits<char>, DeathInfo_s<char> > >, std::__ndk1::__variant_detail::__traits::Task<std::__ndk1::basic_string<char, std::__ndk1::char_traits<char>, DeathInfo_s<char> >, std::__ndk1::monostate>::Cancel>)1, std::__ndk1::basic_string<char, std::__ndk1::char_traits<char>, DeathInfo_s<char> >, std::__ndk1::__variant_detail::__traits::Task<std::__ndk1::basic_string<char, std::__ndk1::char_traits<char>, DeathInfo_s<char> >, std::__ndk1::monostate> >&>(std::__ndk1::__variant_detail::__dtor<std::__ndk1::__variant_detail::__traits<geode::Result<std::__ndk1::vector<DeathInfo_s, std::__ndk1::allocator<std::__ndk1::vector> >, std::__ndk1::basic_string<char, std::__ndk1::char_traits<char>, DeathInfo_s<char> > >, std::__ndk1::__variant_detail::__traits::Task<std::__ndk1::basic_string<char, std::__ndk1::char_traits<char>, DeathInfo_s<char> >, std::__ndk1::monostate>::Cancel>, (std::__ndk1::__variant_detail::_Trait)1>, std::__ndk1::__variant_detail::__base<(std::__ndk1::__variant_detail::__traits<geode::Result<std::__ndk1::vector<DeathInfo_s, std::__ndk1::allocator<std::__ndk1::vector> >, std::__ndk1::basic_string<char, std::__ndk1::char_traits<char>, DeathInfo_s<char> > >, std::__ndk1::__variant_detail::__traits::Task<std::__ndk1::basic_string<char, std::__ndk1::char_traits<char>, DeathInfo_s<char> >, std::__ndk1::monostate>::Cancel>)1, std::__ndk1::basic_string<char, std::__ndk1::char_traits<char>, DeathInfo_s<char> >, std::__ndk1::__variant_detail::__traits::Task<std::__ndk1::basic_string<char, std::__ndk1::char_traits<char>, DeathInfo_s<char> >, std::__ndk1::monostate> >&)
FUNC 9b53c 4 0 std::__ndk1::__variant_detail::__visitation::__base::__dispatcher<(unsigned long)1>::__dispatch[abi:ne180000]<std::__ndk1::__variant_detail::__dtor<std::__ndk1::__variant_detail::__traits<geode::Result<std::__ndk1::vector<DeathInfo_s, std::__ndk1::allocator<std::__ndk1::vector> >, std::__ndk1::basic_string<char, std::__ndk1::char_traits<char>, DeathInfo_s<char> > >, std::__ndk1::__variant_detail::__traits::Task<std::__ndk1::basic_string<char, std::__ndk1::char_traits<char>, DeathInfo_s<char> >, std::__ndk1::monostate>::Cancel>, (std::__ndk1::__variant_detail::_Trait)1>::__destroy[abi:ne180000]()::{lambda(auto:1&)#1}, std::__ndk1::__variant_detail::__base<(std::__ndk1::__variant_detail::__traits<geode::Result<std::__ndk1::vector<DeathInfo_s, std::__ndk1::allocator<std::__ndk1::vector> >, std::__ndk1::basic_string<char, std::__ndk1::char_traits<char>, DeathInfo_s<char> > >, std::__ndk1::__variant_detail::__traits::Task<std::__ndk1::basic_string<char, std::__ndk1::char_traits<char>, DeathInfo_s<char> >, std::__ndk1::monostate>::Cancel>)1, std::__ndk1::basic_string<char, std::__ndk1::char_traits<char>, DeathInfo_s<char> >, std::__ndk1::__variant_detail::__traits::Task<std::__ndk1::basic_string<char, std::__ndk1::char_traits<char>, DeathInfo_s<char> >, std::__ndk1::monostate> >&>(std::__ndk1::__variant_detail::__dtor<std::__ndk1::__variant_detail::__traits<geode::Result<std::__ndk1::vector<DeathInfo_s, std::__ndk1::allocator<std::__ndk1::vector> >, std::__ndk1::basic_string<char, std::__ndk1::char_traits<char>, DeathInfo_s<char> > >, std::__ndk1::__variant_detail::__traits::Task<std::__ndk1::basic_string<char, std::__ndk1::char_traits<char>, DeathInfo_s<char> >, std::__ndk1::monostate>::Cancel>, (std::__ndk1::__variant_detail::_Trait)1>, std::__ndk1::__variant_detail::__base<(std::__ndk1::__variant_detail::__traits<geode::Result<std::__ndk1::vector<DeathInfo_s, std::__ndk1::allocator<std::__ndk1::vector> >, std::__ndk1::basic_string<char, std::__ndk1::char_traits<char>, DeathInfo_s<char> > >, std::__ndk1::__variant_detail::__traits::Task<std::__ndk1::basic_string<char, std::__ndk1::char_traits<char>, DeathInfo_s<char> >, std::__ndk1::monostate>::Cancel>)1, std::__ndk1::basic_string<char, std::__ndk1::char_traits<char>, DeathInfo_s<char> >, std::__ndk1::__variant_detail::__traits::Task<std::__ndk1::basic_string<char, std::__ndk1::char_traits<char>, DeathInfo_s<char> >, std::__ndk1::monostate> >&)
FUNC 9b540 90 0 std::__ndk1::default_delete<std::__ndk1::tuple<std::__ndk1::unique_ptr<std::__ndk1::__thread_struct, std::__ndk1::default_delete<std::__ndk1::__thread_struct> >, geode::Task<geode::Result<std::__ndk1::vector<DeathInfo_s, std::__ndk1::allocator<DeathInfo_s> >, std::__ndk1::basic_string<char, std::__ndk1::char_traits<char>, std::__ndk1::allocator<char> > >, std::__ndk1::monostate>::run(std::__ndk1::function<geode::Task<geode::Result<std::__ndk1::vector<DeathInfo_s, std::__ndk1::allocator<DeathInfo_s> >, std::__ndk1::basic_string<char, std::__ndk1::char_traits<char>, std::__ndk1::allocator<char> > >, std::__ndk1::monostate>::Result(std::__ndk1::function<void (std::__ndk1::monostate)>, std::__ndk1::function<bool ()>)>&&, std::__ndk1::basic_string_view<char, std::__ndk1::char_traits<char> >)::{lambda()#1}> >::operator()[abi:ne180000](std::__ndk1::tuple<std::__ndk1::unique_ptr<std::__ndk1::__thread_struct, std::__ndk1::default_delete<std::__ndk1::__thread_struct> >, geode::Task<geode::Result<std::__ndk1::vector<DeathInfo_s, std::__ndk1::allocator<DeathInfo_s> >, std::__ndk1::basic_string<char, std::__ndk1::char_traits<char>, std::__ndk1::allocator<char> > >, std::__ndk1::monostate>::run(std::__ndk1::function<geode::Task<geode::Result<std::__ndk1::vector<DeathInfo_s, std::__ndk1::allocator<DeathInfo_s> >, std::__ndk1::basic_string<char, std::__ndk1::char_traits<char>, std::__ndk1::allocator<char> > >, std::__ndk1::monostate>::Result(std::__ndk1::function<void (std::__ndk1::monostate)>, std::__ndk1::function<bool ()>)>&&, std::__ndk1::basic_string_view<char, std::__ndk1::char_traits<char> >)::{lambda()#1}>*) const
FUNC 9b5d0 38 0 std::__ndk1::__function::__func<DTLayer::CreateDeathsInfo(std::__ndk1::map<std::__ndk1::basic_string<char, std::__ndk1::char_traits<char>, std::__ndk1::allocator<char> >, int, std::__ndk1::less<std::__ndk1::basic_string<char, std::__ndk1::char_traits<char>, std::__ndk1::allocator<char> > >, std::__ndk1::allocator<std::__ndk1::pair<std::__ndk1::basic_string<char, std::__ndk1::char_traits<char>, std::__ndk1::allocator<char> > const, int> > > const&, std::__ndk1::set<int, std::__ndk1::less<int>, std::__ndk1::allocator<int> > const&)::$_0, std::__ndk1::allocator<DTLayer::CreateDeathsInfo(std::__ndk1::map<std::__ndk1::basic_string<char, std::__ndk1::char_traits<char>, std::__ndk1::allocator<char> >, int, std::__ndk1::less<std::__ndk1::basic_string<char, std::__ndk1::char_traits<char>, std::__ndk1::allocator<char> > >, std::__ndk1::allocator<std::__ndk1::pair<std::__ndk1::basic_string<char, std::__ndk1::char_traits<char>, std::__ndk1::allocator<char> > const, int> > > const&, std::__ndk1::set<int, std::__ndk1::less<int>, std::__ndk1::allocator<int> > const&)::$_0>, geode::Task<geode::Result<std::__ndk1::vector<DeathInfo_s, std::__ndk1::allocator<DeathInfo_s> >, std::__ndk1::basic_string<char, std::__ndk1::char_traits<char>, std::__ndk1::allocator<char> > >, std::__ndk1::monostate>::Result(std::__ndk1::function<void (std::__ndk1::monostate)>, std::__ndk1::function<bool ()>)>::~__func()
FUNC 9b608 40 0 std::__ndk1::__function::__func<DTLayer::CreateDeathsInfo(std::__ndk1::map<std::__ndk1::basic_string<char, std::__ndk1::char_traits<char>, std::__ndk1::allocator<char> >, int, std::__ndk1::less<std::__ndk1::basic_string<char, std::__ndk1::char_traits<char>, std::__ndk1::allocator<char> > >, std::__ndk1::allocator<std::__ndk1::pair<std::__ndk1::basic_string<char, std::__ndk1::char_traits<char>, std::__ndk1::allocator<char> > const, int> > > const&, std::__ndk1::set<int, std::__ndk1::less<int>, std::__ndk1::allocator<int> > const&)::$_0, std::__ndk1::allocator<DTLayer::CreateDeathsInfo(std::__ndk1::map<std::__ndk1::basic_string<char, std::__ndk1::char_traits<char>, std::__ndk1::allocator<char> >, int, std::__ndk1::less<std::__ndk1::basic_string<char, std::__ndk1::char_traits<char>, std::__ndk1::allocator<char> > >, std::__ndk1::allocator<std::__ndk1::pair<std::__ndk1::basic_string<char, std::__ndk1::char_traits<char>, std::__ndk1::allocator<char> > const, int> > > const&, std::__ndk1::set<int, std::__ndk1::less<int>, std::__ndk1::allocator<int> > const&)::$_0>, geode::Task<geode::Result<std::__ndk1::vector<DeathInfo_s, std::__ndk1::allocator<DeathInfo_s> >, std::__ndk1::basic_string<char, std::__ndk1::char_traits<char>, std::__ndk1::allocator<char> > >, std::__ndk1::monostate>::Result(std::__ndk1::function<void (std::__ndk1::monostate)>, std::__ndk1::function<bool ()>)>::~__func()
FUNC 9b648 54 0 std::__ndk1::__function::__func<DTLayer::CreateDeathsInfo(std::__ndk1::map<std::__ndk1::basic_string<char, std::__ndk1::char_traits<char>, std::__ndk1::allocator<char> >, int, std::__ndk1::less<std::__ndk1::basic_string<char, std::__ndk1::char_traits<char>, std::__ndk1::allocator<char> > >, std::__ndk1::allocator<std::__ndk1::pair<std::__ndk1::basic_string<char, std::__ndk1::char_traits<char>, std::__ndk1::allocator<char> > const, int> > > const&, std::__ndk1::set<int, std::__ndk1::less<int>, std::__ndk1::allocator<int> > const&)::$_0, std::__ndk1::allocator<DTLayer::CreateDeathsInfo(std::__ndk1::map<std::__ndk1::basic_string<char, std::__ndk1::char_traits<char>, std::__ndk1::allocator<char> >, int, std::__ndk1::less<std::__ndk1::basic_string<char, std::__ndk1::char_traits<char>, std::__ndk1::allocator<char> > >, std::__ndk1::allocator<std::__ndk1::pair<std::__ndk1::basic_string<char, std::__ndk1::char_traits<char>, std::__ndk1::allocator<char> > const, int> > > const&, std::__ndk1::set<int, std::__ndk1::less<int>, std::__ndk1::allocator<int> > const&)::$_0>, geode::Task<geode::Result<std::__ndk1::vector<DeathInfo_s, std::__ndk1::allocator<DeathInfo_s> >, std::__ndk1::basic_string<char, std::__ndk1::char_traits<char>, std::__ndk1::allocator<char> > >, std::__ndk1::monostate>::Result(std::__ndk1::function<void (std::__ndk1::monostate)>, std::__ndk1::function<bool ()>)>::__clone() const
FUNC 9b69c 1c 0 std::__ndk1::__function::__func<DTLayer::CreateDeathsInfo(std::__ndk1::map<std::__ndk1::basic_string<char, std::__ndk1::char_traits<char>, std::__ndk1::allocator<char> >, int, std::__ndk1::less<std::__ndk1::basic_string<char, std::__ndk1::char_traits<char>, std::__ndk1::allocator<char> > >, std::__ndk1::allocator<std::__ndk1::pair<std::__ndk1::basic_string<char, std::__ndk1::char_traits<char>, std::__ndk1::allocator<char> > const, int> > > const&, std::__ndk1::set<int, std::__ndk1::less<int>, std::__ndk1::allocator<int> > const&)::$_0, std::__ndk1::allocator<DTLayer::CreateDeathsInfo(std::__ndk1::map<std::__ndk1::basic_string<char, std::__ndk1::char_traits<char>, std::__ndk1::allocator<char> >, int, std::__ndk1::less<std::__ndk1::basic_string<char, std::__ndk1::char_traits<char>, std::__ndk1::allocator<char> > >, std::__ndk1::allocator<std::__ndk1::pair<std::__ndk1::basic_string<char, std::__ndk1::char_traits<char>, std::__ndk1::allocator<char> > const, int> > > const&, std::__ndk1::set<int, std::__ndk1::less<int>, std::__ndk1::allocator<int> > const&)::$_0>, geode::Task<geode::Result<std::__ndk1::vector<DeathInfo_s, std::__ndk1::allocator<DeathInfo_s> >, std::__ndk1::basic_string<char, std::__ndk1::char_traits<char>, std::__ndk1::allocator<char> > >, std::__ndk1::monostate>::Result(std::__ndk1::function<void (std::__ndk1::monostate)>, std::__ndk1::function<bool ()>)>::__clone(std::__ndk1::__function::__base<geode::Task<geode::Result<std::__ndk1::vector<DeathInfo_s, std::__ndk1::allocator<DeathInfo_s> >, std::__ndk1::basic_string<char, std::__ndk1::char_traits<char>, std::__ndk1::allocator<char> > >, std::__ndk1::monostate>::Result(std::__ndk1::function<void (std::__ndk1::monostate)>, std::__ndk1::function<bool ()>)>*) const
FUNC 9b6b8 30 0 std::__ndk1::__function::__func<DTLayer::CreateDeathsInfo(std::__ndk1::map<std::__ndk1::basic_string<char, std::__ndk1::char_traits<char>, std::__ndk1::allocator<char> >, int, std::__ndk1::less<std::__ndk1::basic_string<char, std::__ndk1::char_traits<char>, std::__ndk1::allocator<char> > >, std::__ndk1::allocator<std::__ndk1::pair<std::__ndk1::basic_string<char, std::__ndk1::char_traits<char>, std::__ndk1::allocator<char> > const, int> > > const&, std::__ndk1::set<int, std::__ndk1::less<int>, std::__ndk1::allocator<int> > const&)::$_0, std::__ndk1::allocator<DTLayer::CreateDeathsInfo(std::__ndk1::map<std::__ndk1::basic_string<char, std::__ndk1::char_traits<char>, std::__ndk1::allocator<char> >, int, std::__ndk1::less<std::__ndk1::basic_string<char, std::__ndk1::char_traits<char>, std::__ndk1::allocator<char> > >, std::__ndk1::allocator<std::__ndk1::pair<std::__ndk1::basic_string<char, std::__ndk1::char_traits<char>, std::__ndk1::allocator<char> > const, int> > > const&, std::__ndk1::set<int, std::__ndk1::less<int>, std::__ndk1::allocator<int> > const&)::$_0>, geode::Task<geode::Result<std::__ndk1::vector<DeathInfo_s, std::__ndk1::allocator<DeathInfo_s> >, std::__ndk1::basic_string<char, std::__ndk1::char_traits<char>, std::__ndk1::allocator<char> > >, std::__ndk1::monostate>::Result(std::__ndk1::function<void (std::__ndk1::monostate)>, std::__ndk1::function<bool ()>)>::destroy()
FUNC 9b6e8 38 0 std::__ndk1::__function::__func<DTLayer::CreateDeathsInfo(std::__ndk1::map<std::__ndk1::basic_string<char, std::__ndk1::char_traits<char>, std::__ndk1::allocator<char> >, int, std::__ndk1::less<std::__ndk1::basic_string<char, std::__ndk1::char_traits<char>, std::__ndk1::allocator<char> > >, std::__ndk1::allocator<std::__ndk1::pair<std::__ndk1::basic_string<char, std::__ndk1::char_traits<char>, std::__ndk1::allocator<char> > const, int> > > const&, std::__ndk1::set<int, std::__ndk1::less<int>, std::__ndk1::allocator<int> > const&)::$_0, std::__ndk1::allocator<DTLayer::CreateDeathsInfo(std::__ndk1::map<std::__ndk1::basic_string<char, std::__ndk1::char_traits<char>, std::__ndk1::allocator<char> >, int, std::__ndk1::less<std::__ndk1::basic_string<char, std::__ndk1::char_traits<char>, std::__ndk1::allocator<char> > >, std::__ndk1::allocator<std::__ndk1::pair<std::__ndk1::basic_string<char, std::__ndk1::char_traits<char>, std::__ndk1::allocator<char> > const, int> > > const&, std::__ndk1::set<int, std::__ndk1::less<int>, std::__ndk1::allocator<int> > const&)::$_0>, geode::Task<geode::Result<std::__ndk1::vector<DeathInfo_s, std::__ndk1::allocator<DeathInfo_s> >, std::__ndk1::basic_string<char, std::__ndk1::char_traits<char>, std::__ndk1::allocator<char> > >, std::__ndk1::monostate>::Result(std::__ndk1::function<void (std::__ndk1::monostate)>, std::__ndk1::function<bool ()>)>::destroy_deallocate()
FUNC 9b720 8d4 0 std::__ndk1::__function::__func<DTLayer::CreateDeathsInfo(std::__ndk1::map<std::__ndk1::basic_string<char, std::__ndk1::char_traits<char>, std::__ndk1::allocator<char> >, int, std::__ndk1::less<std::__ndk1::basic_string<char, std::__ndk1::char_traits<char>, std::__ndk1::allocator<char> > >, std::__ndk1::allocator<std::__ndk1::pair<std::__ndk1::basic_string<char, std::__ndk1::char_traits<char>, std::__ndk1::allocator<char> > const, int> > > const&, std::__ndk1::set<int, std::__ndk1::less<int>, std::__ndk1::allocator<int> > const&)::$_0, std::__ndk1::allocator<DTLayer::CreateDeathsInfo(std::__ndk1::map<std::__ndk1::basic_string<char, std::__ndk1::char_traits<char>, std::__ndk1::allocator<char> >, int, std::__ndk1::less<std::__ndk1::basic_string<char, std::__ndk1::char_traits<char>, std::__ndk1::allocator<char> > >, std::__ndk1::allocator<std::__ndk1::pair<std::__ndk1::basic_string<char, std::__ndk1::char_traits<char>, std::__ndk1::allocator<char> > const, int> > > const&, std::__ndk1::set<int, std::__ndk1::less<int>, std::__ndk1::allocator<int> > const&)::$_0>, geode::Task<geode::Result<std::__ndk1::vector<DeathInfo_s, std::__ndk1::allocator<DeathInfo_s> >, std::__ndk1::basic_string<char, std::__ndk1::char_traits<char>, std::__ndk1::allocator<char> > >, std::__ndk1::monostate>::Result(std::__ndk1::function<void (std::__ndk1::monostate)>, std::__ndk1::function<bool ()>)>::operator()(std::__ndk1::function<void (std::__ndk1::monostate)>&&, std::__ndk1::function<bool ()>&&)
FUNC 9bff4 1c 0 std::__ndk1::__function::__func<DTLayer::CreateDeathsInfo(std::__ndk1::map<std::__ndk1::basic_string<char, std::__ndk1::char_traits<char>, std::__ndk1::allocator<char> >, int, std::__ndk1::less<std::__ndk1::basic_string<char, std::__ndk1::char_traits<char>, std::__ndk1::allocator<char> > >, std::__ndk1::allocator<std::__ndk1::pair<std::__ndk1::basic_string<char, std::__ndk1::char_traits<char>, std::__ndk1::allocator<char> > const, int> > > const&, std::__ndk1::set<int, std::__ndk1::less<int>, std::__ndk1::allocator<int> > const&)::$_0, std::__ndk1::allocator<DTLayer::CreateDeathsInfo(std::__ndk1::map<std::__ndk1::basic_string<char, std::__ndk1::char_traits<char>, std::__ndk1::allocator<char> >, int, std::__ndk1::less<std::__ndk1::basic_string<char, std::__ndk1::char_traits<char>, std::__ndk1::allocator<char> > >, std::__ndk1::allocator<std::__ndk1::pair<std::__ndk1::basic_string<char, std::__ndk1::char_traits<char>, std::__ndk1::allocator<char> > const, int> > > const&, std::__ndk1::set<int, std::__ndk1::less<int>, std::__ndk1::allocator<int> > const&)::$_0>, geode::Task<geode::Result<std::__ndk1::vector<DeathInfo_s, std::__ndk1::allocator<DeathInfo_s> >, std::__ndk1::basic_string<char, std::__ndk1::char_traits<char>, std::__ndk1::allocator<char> > >, std::__ndk1::monostate>::Result(std::__ndk1::function<void (std::__ndk1::monostate)>, std::__ndk1::function<bool ()>)>::target(std::type_info const&) const
FUNC 9c010 c 0 std::__ndk1::__function::__func<DTLayer::CreateDeathsInfo(std::__ndk1::map<std::__ndk1::basic_string<char, std::__ndk1::char_traits<char>, std::__ndk1::allocator<char> >, int, std::__ndk1::less<std::__ndk1::basic_string<char, std::__ndk1::char_traits<char>, std::__ndk1::allocator<char> > >, std::__ndk1::allocator<std::__ndk1::pair<std::__ndk1::basic_string<char, std::__ndk1::char_traits<char>, std::__ndk1::allocator<char> > const, int> > > const&, std::__ndk1::set<int, std::__ndk1::less<int>, std::__ndk1::allocator<int> > const&)::$_0, std::__ndk1::allocator<DTLayer::CreateDeathsInfo(std::__ndk1::map<std::__ndk1::basic_string<char, std::__ndk1::char_traits<char>, std::__ndk1::allocator<char> >, int, std::__ndk1::less<std::__ndk1::basic_string<char, std::__ndk1::char_traits<char>, std::__ndk1::allocator<char> > >, std::__ndk1::allocator<std::__ndk1::pair<std::__ndk1::basic_string<char, std::__ndk1::char_traits<char>, std::__ndk1::allocator<char> > const, int> > > const&, std::__ndk1::set<int, std::__ndk1::less<int>, std::__ndk1::allocator<int> > const&)::$_0>, geode::Task<geode::Result<std::__ndk1::vector<DeathInfo_s, std::__ndk1::allocator<DeathInfo_s> >, std::__ndk1::basic_string<char, std::__ndk1::char_traits<char>, std::__ndk1::allocator<char> > >, std::__ndk1::monostate>::Result(std::__ndk1::function<void (std::__ndk1::monostate)>, std::__ndk1::function<bool ()>)>::target_type() const
FUNC 9c01c f8 0 std::__ndk1::__compressed_pair_elem<DTLayer::CreateDeathsInfo(std::__ndk1::map<std::__ndk1::basic_string<char, std::__ndk1::char_traits<char>, std::__ndk1::allocator<char> >, int, std::__ndk1::less<std::__ndk1::basic_string<char, std::__ndk1::char_traits<char>, std::__ndk1::allocator<char> > >, std::__ndk1::allocator<std::__ndk1::pair<std::__ndk1::basic_string<char, std::__ndk1::char_traits<char>, std::__ndk1::allocator<char> > const, int> > > const&, std::__ndk1::set<int, std::__ndk1::less<int>, std::__ndk1::allocator<int> > const&)::$_0, 0, false>::__compressed_pair_elem[abi:ne180000]<DTLayer::CreateDeathsInfo(std::__ndk1::map<std::__ndk1::basic_string<char, std::__ndk1::char_traits<char>, std::__ndk1::allocator<char> >, int, std::__ndk1::less<std::__ndk1::basic_string<char, std::__ndk1::char_traits<char>, std::__ndk1::allocator<char> > >, std::__ndk1::allocator<std::__ndk1::pair<std::__ndk1::basic_string<char, std::__ndk1::char_traits<char>, std::__ndk1::allocator<char> > const, int> > > const&, std::__ndk1::set<int, std::__ndk1::less<int>, std::__ndk1::allocator<int> > const&)::$_0 const&, (unsigned long)0>(std::__ndk1::tuple<DTLayer::CreateDeathsInfo(std::__ndk1::map<std::__ndk1::basic_string<char, std::__ndk1::char_traits<char>, std::__ndk1::allocator<char> >, int, std::__ndk1::less<std::__ndk1::basic_string<char, std::__ndk1::char_traits<char>, std::__ndk1::allocator<char> > >, std::__ndk1::allocator<std::__ndk1::pair<std::__ndk1::basic_string<char, std::__ndk1::char_traits<char>, std::__ndk1::allocator<char> > const, int> > > const&, std::__ndk1::set<int, std::__ndk1::less<int>, std::__ndk1::allocator<int> > const&)::$_0 const&>, std::__ndk1::__tuple_indices<((unsigned long)0)...>)
FUNC 9c114 fbc 0 std::__ndk1::__introsort<std::__ndk1::_RangeAlgPolicy, DTLayer::CreateDeathsInfo(std::__ndk1::map<std::__ndk1::basic_string<char, std::__ndk1::char_traits<char>, std::__ndk1::allocator<char> >, int, std::__ndk1::less<std::__ndk1::basic_string<char, std::__ndk1::char_traits<char>, std::__ndk1::allocator<char> > >, std::__ndk1::allocator<std::__ndk1::pair<std::__ndk1::basic_string<char, std::__ndk1::char_traits<char>, std::__ndk1::allocator<char> > const, int> > > const&, std::__ndk1::set<int, std::__ndk1::less<int>, std::__ndk1::allocator<int> > const&)::$_0::operator()<std::__ndk1::function<void (std::__ndk1::monostate)>, std::__ndk1::function<bool ()> >(std::__ndk1::function<void (std::__ndk1::monostate)>, std::__ndk1::function<bool ()>) const::{lambda(DeathInfo_s, DeathInfo_s)#1}&, DeathInfo_s*, false>(DeathInfo_s*, DeathInfo_s*, DTLayer::CreateDeathsInfo(std::__ndk1::map<std::__ndk1::basic_string<char, std::__ndk1::char_traits<char>, std::__ndk1::allocator<char> >, int, std::__ndk1::less<std::__ndk1::basic_string<char, std::__ndk1::char_traits<char>, std::__ndk1::allocator<char> > >, std::__ndk1::allocator<std::__ndk1::pair<std::__ndk1::basic_string<char, std::__ndk1::char_traits<char>, std::__ndk1::allocator<char> > const, int> > > const&, std::__ndk1::set<int, std::__ndk1::less<int>, std::__ndk1::allocator<int> > const&)::$_0::operator()<std::__ndk1::function<void (std::__ndk1::monostate)>, std::__ndk1::function<bool ()> >(std::__ndk1::function<void (std::__ndk1::monostate)>, std::__ndk1::function<bool ()>) const::{lambda(DeathInfo_s, DeathInfo_s)#1}&, std::__ndk1::iterator_traits<DeathInfo_s*>::difference_type, bool)
FUNC 9d0d0 450 0 std::__ndk1::__insertion_sort_incomplete[abi:ne180000]<std::__ndk1::_RangeAlgPolicy, DTLayer::CreateDeathsInfo(std::__ndk1::map<std::__ndk1::basic_string<char, std::__ndk1::char_traits<char>, std::__ndk1::allocator<char> >, int, std::__ndk1::less<std::__ndk1::allocator<char> >, std::__ndk1::char_traits<char><std::__ndk1::pair<std::__ndk1::allocator<char> const, int> > > const&, std::__ndk1::set<int, std::__ndk1::basic_string<char, std::__ndk1::char_traits<char>, std::__ndk1::allocator<char> ><int>, std::__ndk1::char_traits<char><int> > const&)::$_0::operator()<std::__ndk1::function<void (std::__ndk1::monostate)>, $_0::operator()<bool ()> >(std::__ndk1::function<void (std::__ndk1::monostate)>, $_0::operator()<bool ()>) const::{lambda(std::__ndk1::vector, std::__ndk1::vector)#1}&, std::__ndk1::vector*>(std::__ndk1::vector*, std::__ndk1::vector*, std::__ndk1::_RangeAlgPolicy)
FUNC 9d520 1b4 0 std::__ndk1::__sort4[abi:ne180000]<std::__ndk1::_RangeAlgPolicy, DTLayer::CreateDeathsInfo(std::__ndk1::map<std::__ndk1::basic_string<char, std::__ndk1::char_traits<char>, std::__ndk1::allocator<char> >, int, std::__ndk1::less<std::__ndk1::allocator<char> >, std::__ndk1::char_traits<char><std::__ndk1::pair<std::__ndk1::allocator<char> const, int> > > const&, std::__ndk1::set<int, std::__ndk1::basic_string<char, std::__ndk1::char_traits<char>, std::__ndk1::allocator<char> ><int>, std::__ndk1::char_traits<char><int> > const&)::$_0::operator()<std::__ndk1::function<void (std::__ndk1::monostate)>, $_0::operator()<bool ()> >(std::__ndk1::function<void (std::__ndk1::monostate)>, $_0::operator()<bool ()>) const::{lambda(std::__ndk1::vector, std::__ndk1::vector)#1}&, std::__ndk1::vector*>(std::__ndk1::vector*, std::__ndk1::vector*, std::__ndk1::vector*, std::__ndk1::vector*, std::__ndk1::_RangeAlgPolicy)
FUNC 9d6d4 44 0 std::__ndk1::__tree<std::__ndk1::__value_type<int, int>, std::__ndk1::__map_value_compare<int, std::__ndk1::__value_type<int, int>, std::__ndk1::less<int>, true>, std::__ndk1::allocator<std::__ndk1::__value_type<int, int> > >::destroy(std::__ndk1::__tree_node<std::__ndk1::__value_type<int, int>, void*>*)
FUNC 9d718 1c 0 std::__ndk1::__function::__func<DTLayer::CreateRunsInfo(std::__ndk1::map<std::__ndk1::basic_string<char, std::__ndk1::char_traits<char>, std::__ndk1::allocator<char> >, int, std::__ndk1::less<std::__ndk1::basic_string<char, std::__ndk1::char_traits<char>, std::__ndk1::allocator<char> > >, std::__ndk1::allocator<std::__ndk1::pair<std::__ndk1::basic_string<char, std::__ndk1::char_traits<char>, std::__ndk1::allocator<char> > const, int> > >)::$_0, std::__ndk1::allocator<DTLayer::CreateRunsInfo(std::__ndk1::map<std::__ndk1::basic_string<char, std::__ndk1::char_traits<char>, std::__ndk1::allocator<char> >, int, std::__ndk1::less<std::__ndk1::basic_string<char, std::__ndk1::char_traits<char>, std::__ndk1::allocator<char> > >, std::__ndk1::allocator<std::__ndk1::pair<std::__ndk1::basic_string<char, std::__ndk1::char_traits<char>, std::__ndk1::allocator<char> > const, int> > >)::$_0>, geode::Task<geode::Result<std::__ndk1::vector<DeathInfo_s, std::__ndk1::allocator<DeathInfo_s> >, std::__ndk1::basic_string<char, std::__ndk1::char_traits<char>, std::__ndk1::allocator<char> > >, std::__ndk1::monostate>::Result(std::__ndk1::function<void (std::__ndk1::monostate)>, std::__ndk1::function<bool ()>)>::~__func()
FUNC 9d734 34 0 std::__ndk1::__function::__func<DTLayer::CreateRunsInfo(std::__ndk1::map<std::__ndk1::basic_string<char, std::__ndk1::char_traits<char>, std::__ndk1::allocator<char> >, int, std::__ndk1::less<std::__ndk1::basic_string<char, std::__ndk1::char_traits<char>, std::__ndk1::allocator<char> > >, std::__ndk1::allocator<std::__ndk1::pair<std::__ndk1::basic_string<char, std::__ndk1::char_traits<char>, std::__ndk1::allocator<char> > const, int> > >)::$_0, std::__ndk1::allocator<DTLayer::CreateRunsInfo(std::__ndk1::map<std::__ndk1::basic_string<char, std::__ndk1::char_traits<char>, std::__ndk1::allocator<char> >, int, std::__ndk1::less<std::__ndk1::basic_string<char, std::__ndk1::char_traits<char>, std::__ndk1::allocator<char> > >, std::__ndk1::allocator<std::__ndk1::pair<std::__ndk1::basic_string<char, std::__ndk1::char_traits<char>, std::__ndk1::allocator<char> > const, int> > >)::$_0>, geode::Task<geode::Result<std::__ndk1::vector<DeathInfo_s, std::__ndk1::allocator<DeathInfo_s> >, std::__ndk1::basic_string<char, std::__ndk1::char_traits<char>, std::__ndk1::allocator<char> > >, std::__ndk1::monostate>::Result(std::__ndk1::function<void (std::__ndk1::monostate)>, std::__ndk1::function<bool ()>)>::~__func()
FUNC 9d768 e4 0 std::__ndk1::__function::__func<DTLayer::CreateRunsInfo(std::__ndk1::map<std::__ndk1::basic_string<char, std::__ndk1::char_traits<char>, std::__ndk1::allocator<char> >, int, std::__ndk1::less<std::__ndk1::basic_string<char, std::__ndk1::char_traits<char>, std::__ndk1::allocator<char> > >, std::__ndk1::allocator<std::__ndk1::pair<std::__ndk1::basic_string<char, std::__ndk1::char_traits<char>, std::__ndk1::allocator<char> > const, int> > >)::$_0, std::__ndk1::allocator<DTLayer::CreateRunsInfo(std::__ndk1::map<std::__ndk1::basic_string<char, std::__ndk1::char_traits<char>, std::__ndk1::allocator<char> >, int, std::__ndk1::less<std::__ndk1::basic_string<char, std::__ndk1::char_traits<char>, std::__ndk1::allocator<char> > >, std::__ndk1::allocator<std::__ndk1::pair<std::__ndk1::basic_string<char, std::__ndk1::char_traits<char>, std::__ndk1::allocator<char> > const, int> > >)::$_0>, geode::Task<geode::Result<std::__ndk1::vector<DeathInfo_s, std::__ndk1::allocator<DeathInfo_s> >, std::__ndk1::basic_string<char, std::__ndk1::char_traits<char>, std::__ndk1::allocator<char> > >, std::__ndk1::monostate>::Result(std::__ndk1::function<void (std::__ndk1::monostate)>, std::__ndk1::function<bool ()>)>::__clone() const
FUNC 9d84c d0 0 std::__ndk1::__function::__func<DTLayer::CreateRunsInfo(std::__ndk1::map<std::__ndk1::basic_string<char, std::__ndk1::char_traits<char>, std::__ndk1::allocator<char> >, int, std::__ndk1::less<std::__ndk1::basic_string<char, std::__ndk1::char_traits<char>, std::__ndk1::allocator<char> > >, std::__ndk1::allocator<std::__ndk1::pair<std::__ndk1::basic_string<char, std::__ndk1::char_traits<char>, std::__ndk1::allocator<char> > const, int> > >)::$_0, std::__ndk1::allocator<DTLayer::CreateRunsInfo(std::__ndk1::map<std::__ndk1::basic_string<char, std::__ndk1::char_traits<char>, std::__ndk1::allocator<char> >, int, std::__ndk1::less<std::__ndk1::basic_string<char, std::__ndk1::char_traits<char>, std::__ndk1::allocator<char> > >, std::__ndk1::allocator<std::__ndk1::pair<std::__ndk1::basic_string<char, std::__ndk1::char_traits<char>, std::__ndk1::allocator<char> > const, int> > >)::$_0>, geode::Task<geode::Result<std::__ndk1::vector<DeathInfo_s, std::__ndk1::allocator<DeathInfo_s> >, std::__ndk1::basic_string<char, std::__ndk1::char_traits<char>, std::__ndk1::allocator<char> > >, std::__ndk1::monostate>::Result(std::__ndk1::function<void (std::__ndk1::monostate)>, std::__ndk1::function<bool ()>)>::__clone(std::__ndk1::__function::__base<geode::Task<geode::Result<std::__ndk1::vector<DeathInfo_s, std::__ndk1::allocator<DeathInfo_s> >, std::__ndk1::basic_string<char, std::__ndk1::char_traits<char>, std::__ndk1::allocator<char> > >, std::__ndk1::monostate>::Result(std::__ndk1::function<void (std::__ndk1::monostate)>, std::__ndk1::function<bool ()>)>*) const
FUNC 9d91c c 0 std::__ndk1::__function::__func<DTLayer::CreateRunsInfo(std::__ndk1::map<std::__ndk1::basic_string<char, std::__ndk1::char_traits<char>, std::__ndk1::allocator<char> >, int, std::__ndk1::less<std::__ndk1::basic_string<char, std::__ndk1::char_traits<char>, std::__ndk1::allocator<char> > >, std::__ndk1::allocator<std::__ndk1::pair<std::__ndk1::basic_string<char, std::__ndk1::char_traits<char>, std::__ndk1::allocator<char> > const, int> > >)::$_0, std::__ndk1::allocator<DTLayer::CreateRunsInfo(std::__ndk1::map<std::__ndk1::basic_string<char, std::__ndk1::char_traits<char>, std::__ndk1::allocator<char> >, int, std::__ndk1::less<std::__ndk1::basic_string<char, std::__ndk1::char_traits<char>, std::__ndk1::allocator<char> > >, std::__ndk1::allocator<std::__ndk1::pair<std::__ndk1::basic_string<char, std::__ndk1::char_traits<char>, std::__ndk1::allocator<char> > const, int> > >)::$_0>, geode::Task<geode::Result<std::__ndk1::vector<DeathInfo_s, std::__ndk1::allocator<DeathInfo_s> >, std::__ndk1::basic_string<char, std::__ndk1::char_traits<char>, std::__ndk1::allocator<char> > >, std::__ndk1::monostate>::Result(std::__ndk1::function<void (std::__ndk1::monostate)>, std::__ndk1::function<bool ()>)>::destroy()
FUNC 9d928 2c 0 std::__ndk1::__function::__func<DTLayer::CreateRunsInfo(std::__ndk1::map<std::__ndk1::basic_string<char, std::__ndk1::char_traits<char>, std::__ndk1::allocator<char> >, int, std::__ndk1::less<std::__ndk1::basic_string<char, std::__ndk1::char_traits<char>, std::__ndk1::allocator<char> > >, std::__ndk1::allocator<std::__ndk1::pair<std::__ndk1::basic_string<char, std::__ndk1::char_traits<char>, std::__ndk1::allocator<char> > const, int> > >)::$_0, std::__ndk1::allocator<DTLayer::CreateRunsInfo(std::__ndk1::map<std::__ndk1::basic_string<char, std::__ndk1::char_traits<char>, std::__ndk1::allocator<char> >, int, std::__ndk1::less<std::__ndk1::basic_string<char, std::__ndk1::char_traits<char>, std::__ndk1::allocator<char> > >, std::__ndk1::allocator<std::__ndk1::pair<std::__ndk1::basic_string<char, std::__ndk1::char_traits<char>, std::__ndk1::allocator<char> > const, int> > >)::$_0>, geode::Task<geode::Result<std::__ndk1::vector<DeathInfo_s, std::__ndk1::allocator<DeathInfo_s> >, std::__ndk1::basic_string<char, std::__ndk1::char_traits<char>, std::__ndk1::allocator<char> > >, std::__ndk1::monostate>::Result(std::__ndk1::function<void (std::__ndk1::monostate)>, std::__ndk1::function<bool ()>)>::destroy_deallocate()
FUNC 9d954 a58 0 std::__ndk1::__function::__func<DTLayer::CreateRunsInfo(std::__ndk1::map<std::__ndk1::basic_string<char, std::__ndk1::char_traits<char>, std::__ndk1::allocator<char> >, int, std::__ndk1::less<std::__ndk1::basic_string<char, std::__ndk1::char_traits<char>, std::__ndk1::allocator<char> > >, std::__ndk1::allocator<std::__ndk1::pair<std::__ndk1::basic_string<char, std::__ndk1::char_traits<char>, std::__ndk1::allocator<char> > const, int> > >)::$_0, std::__ndk1::allocator<DTLayer::CreateRunsInfo(std::__ndk1::map<std::__ndk1::basic_string<char, std::__ndk1::char_traits<char>, std::__ndk1::allocator<char> >, int, std::__ndk1::less<std::__ndk1::basic_string<char, std::__ndk1::char_traits<char>, std::__ndk1::allocator<char> > >, std::__ndk1::allocator<std::__ndk1::pair<std::__ndk1::basic_string<char, std::__ndk1::char_traits<char>, std::__ndk1::allocator<char> > const, int> > >)::$_0>, geode::Task<geode::Result<std::__ndk1::vector<DeathInfo_s, std::__ndk1::allocator<DeathInfo_s> >, std::__ndk1::basic_string<char, std::__ndk1::char_traits<char>, std::__ndk1::allocator<char> > >, std::__ndk1::monostate>::Result(std::__ndk1::function<void (std::__ndk1::monostate)>, std::__ndk1::function<bool ()>)>::operator()(std::__ndk1::function<void (std::__ndk1::monostate)>&&, std::__ndk1::function<bool ()>&&)
FUNC 9e3ac 1c 0 std::__ndk1::__function::__func<DTLayer::CreateRunsInfo(std::__ndk1::map<std::__ndk1::basic_string<char, std::__ndk1::char_traits<char>, std::__ndk1::allocator<char> >, int, std::__ndk1::less<std::__ndk1::basic_string<char, std::__ndk1::char_traits<char>, std::__ndk1::allocator<char> > >, std::__ndk1::allocator<std::__ndk1::pair<std::__ndk1::basic_string<char, std::__ndk1::char_traits<char>, std::__ndk1::allocator<char> > const, int> > >)::$_0, std::__ndk1::allocator<DTLayer::CreateRunsInfo(std::__ndk1::map<std::__ndk1::basic_string<char, std::__ndk1::char_traits<char>, std::__ndk1::allocator<char> >, int, std::__ndk1::less<std::__ndk1::basic_string<char, std::__ndk1::char_traits<char>, std::__ndk1::allocator<char> > >, std::__ndk1::allocator<std::__ndk1::pair<std::__ndk1::basic_string<char, std::__ndk1::char_traits<char>, std::__ndk1::allocator<char> > const, int> > >)::$_0>, geode::Task<geode::Result<std::__ndk1::vector<DeathInfo_s, std::__ndk1::allocator<DeathInfo_s> >, std::__ndk1::basic_string<char, std::__ndk1::char_traits<char>, std::__ndk1::allocator<char> > >, std::__ndk1::monostate>::Result(std::__ndk1::function<void (std::__ndk1::monostate)>, std::__ndk1::function<bool ()>)>::target(std::type_info const&) const
FUNC 9e3c8 c 0 std::__ndk1::__function::__func<DTLayer::CreateRunsInfo(std::__ndk1::map<std::__ndk1::basic_string<char, std::__ndk1::char_traits<char>, std::__ndk1::allocator<char> >, int, std::__ndk1::less<std::__ndk1::basic_string<char, std::__ndk1::char_traits<char>, std::__ndk1::allocator<char> > >, std::__ndk1::allocator<std::__ndk1::pair<std::__ndk1::basic_string<char, std::__ndk1::char_traits<char>, std::__ndk1::allocator<char> > const, int> > >)::$_0, std::__ndk1::allocator<DTLayer::CreateRunsInfo(std::__ndk1::map<std::__ndk1::basic_string<char, std::__ndk1::char_traits<char>, std::__ndk1::allocator<char> >, int, std::__ndk1::less<std::__ndk1::basic_string<char, std::__ndk1::char_traits<char>, std::__ndk1::allocator<char> > >, std::__ndk1::allocator<std::__ndk1::pair<std::__ndk1::basic_string<char, std::__ndk1::char_traits<char>, std::__ndk1::allocator<char> > const, int> > >)::$_0>, geode::Task<geode::Result<std::__ndk1::vector<DeathInfo_s, std::__ndk1::allocator<DeathInfo_s> >, std::__ndk1::basic_string<char, std::__ndk1::char_traits<char>, std::__ndk1::allocator<char> > >, std::__ndk1::monostate>::Result(std::__ndk1::function<void (std::__ndk1::monostate)>, std::__ndk1::function<bool ()>)>::target_type() const
FUNC 9e3d4 7c 0 std::__ndk1::vector<std::__ndk1::tuple<std::__ndk1::basic_string<char, std::__ndk1::char_traits<char>, std::__ndk1::allocator<char> >, int>, std::__ndk1::allocator<std::__ndk1::tuple<std::__ndk1::basic_string<char, std::__ndk1::char_traits<char>, std::__ndk1::allocator<char> >, int> > >::~vector[abi:ne180000]()
FUNC 9e450 14 0 std::__ndk1::vector<std::__ndk1::tuple<std::__ndk1::basic_string<char, std::__ndk1::char_traits<char>, std::__ndk1::allocator<char> >, int>, std::__ndk1::allocator<std::__ndk1::tuple<std::__ndk1::basic_string<char, std::__ndk1::char_traits<char>, std::__ndk1::allocator<char> >, int> > >::__throw_length_error[abi:ne180000]() const
FUNC 9e464 2364 0 std::__ndk1::__introsort<std::__ndk1::_RangeAlgPolicy, DTLayer::CreateRunsInfo(std::__ndk1::map<std::__ndk1::basic_string<char, std::__ndk1::char_traits<char>, std::__ndk1::allocator<char> >, int, std::__ndk1::less<std::__ndk1::basic_string<char, std::__ndk1::char_traits<char>, std::__ndk1::allocator<char> > >, std::__ndk1::allocator<std::__ndk1::pair<std::__ndk1::basic_string<char, std::__ndk1::char_traits<char>, std::__ndk1::allocator<char> > const, int> > >)::$_0::operator()<std::__ndk1::function<void (std::__ndk1::monostate)>, std::__ndk1::function<bool ()> >(std::__ndk1::function<void (std::__ndk1::monostate)>, std::__ndk1::function<bool ()>) const::{lambda(std::__ndk1::tuple<std::__ndk1::basic_string<char, std::__ndk1::char_traits<char>, std::__ndk1::allocator<char> >, int>&, std::__ndk1::tuple<std::__ndk1::basic_string<char, std::__ndk1::char_traits<char>, std::__ndk1::allocator<char> >, int>)#1}, std::__ndk1::tuple<std::__ndk1::basic_string<char, std::__ndk1::char_traits<char>, std::__ndk1::allocator<char> >, int>*, false>(std::__ndk1::tuple<std::__ndk1::basic_string<char, std::__ndk1::char_traits<char>, std::__ndk1::allocator<char> >, int>*, std::__ndk1::tuple<std::__ndk1::basic_string<char, std::__ndk1::char_traits<char>, std::__ndk1::allocator<char> >, int>*, DTLayer::CreateRunsInfo(std::__ndk1::map<std::__ndk1::basic_string<char, std::__ndk1::char_traits<char>, std::__ndk1::allocator<char> >, int, std::__ndk1::less<std::__ndk1::basic_string<char, std::__ndk1::char_traits<char>, std::__ndk1::allocator<char> > >, std::__ndk1::allocator<std::__ndk1::pair<std::__ndk1::basic_string<char, std::__ndk1::char_traits<char>, std::__ndk1::allocator<char> > const, int> > >)::$_0::operator()<std::__ndk1::function<void (std::__ndk1::monostate)>, std::__ndk1::function<bool ()> >(std::__ndk1::function<void (std::__ndk1::monostate)>, std::__ndk1::function<bool ()>) const::{lambda(std::__ndk1::tuple<std::__ndk1::basic_string<char, std::__ndk1::char_traits<char>, std::__ndk1::allocator<char> >, int>&, std::__ndk1::tuple<std::__ndk1::basic_string<char, std::__ndk1::char_traits<char>, std::__ndk1::allocator<char> >, int>)#1}, std::__ndk1::iterator_traits<std::__ndk1::tuple<std::__ndk1::basic_string<char, std::__ndk1::char_traits<char>, std::__ndk1::allocator<char> >, int>*>::difference_type, bool)
FUNC a07c8 50c 0 _ZNSt6__ndk124__sort5_maybe_branchlessB8ne180000INS_15_RangeAlgPolicyERZZN7DTLayer14CreateRunsInfoENS_3mapINS_12basic_stringIcNS_11char_traitsIcEENS_9allocatorIcEEEEiNS_4lessIS9_EENS7_INS_4pairIKS9_iEEEEEEENK3$_0clINS_8functionIFvNS_9monostateEEEENSJ_IFbvEEEEEN5geode4TaskINSP_6ResultINS_6vectorI11DeathInfo_sNS7_IST_EEEES9_EESK_E6ResultET_T0_EUlNS_5tupleIJS9_iEEES12_E_PS12_TnNS_9enable_ifIXntsr21__use_branchless_sortIS10_T1_EE5valueEiE4typeELi0EEEvS17_S17_S17_S17_S17_S10_
FUNC a0cd4 614 0 std::__ndk1::__sort3[abi:ne180000]<std::__ndk1::_RangeAlgPolicy, DTLayer::CreateRunsInfo(std::__ndk1::map<std::__ndk1::basic_string<char, std::__ndk1::char_traits<char>, std::__ndk1::allocator<char> >, int, std::__ndk1::less<std::__ndk1::allocator<char> >, std::__ndk1::char_traits<char><std::__ndk1::pair<std::__ndk1::allocator<char> const, int> > >)::$_0::operator()<std::__ndk1::function<void (std::__ndk1::monostate)>, $_0::operator()<bool ()> >(std::__ndk1::function<void (std::__ndk1::monostate)>, $_0::operator()<bool ()>) const::{lambda(std::__ndk1::tuple<std::__ndk1::allocator<char>, int>&, std::__ndk1::tuple)#1}, std::__ndk1::tuple*>(std::__ndk1::tuple*, std::__ndk1::tuple*, std::__ndk1::tuple*, std::__ndk1::_RangeAlgPolicy)
FUNC a12e8 5a8 0 std::__ndk1::__insertion_sort_incomplete[abi:ne180000]<std::__ndk1::_RangeAlgPolicy, DTLayer::CreateRunsInfo(std::__ndk1::map<std::__ndk1::basic_string<char, std::__ndk1::char_traits<char>, std::__ndk1::allocator<char> >, int, std::__ndk1::less<std::__ndk1::allocator<char> >, std::__ndk1::char_traits<char><std::__ndk1::pair<std::__ndk1::allocator<char> const, int> > >)::$_0::operator()<std::__ndk1::function<void (std::__ndk1::monostate)>, $_0::operator()<bool ()> >(std::__ndk1::function<void (std::__ndk1::monostate)>, $_0::operator()<bool ()>) const::{lambda(std::__ndk1::tuple<std::__ndk1::allocator<char>, int>&, std::__ndk1::tuple)#1}, std::__ndk1::tuple*>(std::__ndk1::tuple*, std::__ndk1::tuple*, std::__ndk1::_RangeAlgPolicy)
FUNC a1890 3e8 0 std::__ndk1::__sort4[abi:ne180000]<std::__ndk1::_RangeAlgPolicy, DTLayer::CreateRunsInfo(std::__ndk1::map<std::__ndk1::basic_string<char, std::__ndk1::char_traits<char>, std::__ndk1::allocator<char> >, int, std::__ndk1::less<std::__ndk1::allocator<char> >, std::__ndk1::char_traits<char><std::__ndk1::pair<std::__ndk1::allocator<char> const, int> > >)::$_0::operator()<std::__ndk1::function<void (std::__ndk1::monostate)>, $_0::operator()<bool ()> >(std::__ndk1::function<void (std::__ndk1::monostate)>, $_0::operator()<bool ()>) const::{lambda(std::__ndk1::tuple<std::__ndk1::allocator<char>, int>&, std::__ndk1::tuple)#1}, std::__ndk1::tuple*>(std::__ndk1::tuple*, std::__ndk1::tuple*, std::__ndk1::tuple*, std::__ndk1::tuple*, std::__ndk1::_RangeAlgPolicy)
FUNC a1c78 1a8 0 DTLayer::refreshAll(bool)::$_0::operator()(geode::Result<void, std::__ndk1::basic_string<char, std::__ndk1::char_traits<char>, std::__ndk1::allocator<char> > >*) const
FUNC a1e20 20 0 _ZNSt6__ndk110__function6__funcIZNK5geode4TaskINS2_6ResultIvNS_12basic_stringIcNS_11char_traitsIcEENS_9allocatorIcEEEEEENS_9monostateEE5chainITkNS_9invocableIPT_EEZN7DTLayer10refreshAllEbE3$_0EEDTclfL0p_clL_ZNS_7declvalB8ne180000IPSB_EEDTclsr3stdE9__declvalISG_ELi0EEEvEEEESG_NS_17basic_string_viewIcS7_EEEUlPNSD_5EventEE_NS8_ISS_EEFvSR_EED2Ev
FUNC a1e40 3c 0 _ZNSt6__ndk110__function6__funcIZNK5geode4TaskINS2_6ResultIvNS_12basic_stringIcNS_11char_traitsIcEENS_9allocatorIcEEEEEENS_9monostateEE5chainITkNS_9invocableIPT_EEZN7DTLayer10refreshAllEbE3$_0EEDTclfL0p_clL_ZNS_7declvalB8ne180000IPSB_EEDTclsr3stdE9__declvalISG_ELi0EEEvEEEESG_NS_17basic_string_viewIcS7_EEEUlPNSD_5EventEE_NS8_ISS_EEFvSR_EED0Ev
FUNC a1e7c 58 0 _ZNKSt6__ndk110__function6__funcIZNK5geode4TaskINS2_6ResultIvNS_12basic_stringIcNS_11char_traitsIcEENS_9allocatorIcEEEEEENS_9monostateEE5chainITkNS_9invocableIPT_EEZN7DTLayer10refreshAllEbE3$_0EEDTclfL0p_clL_ZNS_7declvalB8ne180000IPSB_EEDTclsr3stdE9__declvalISG_ELi0EEEvEEEESG_NS_17basic_string_viewIcS7_EEEUlPNSD_5EventEE_NS8_ISS_EEFvSR_EE7__cloneEv
FUNC a1ed4 4c 0 _ZNKSt6__ndk110__function6__funcIZNK5geode4TaskINS2_6ResultIvNS_12basic_stringIcNS_11char_traitsIcEENS_9allocatorIcEEEEEENS_9monostateEE5chainITkNS_9invocableIPT_EEZN7DTLayer10refreshAllEbE3$_0EEDTclfL0p_clL_ZNS_7declvalB8ne180000IPSB_EEDTclsr3stdE9__declvalISG_ELi0EEEvEEEESG_NS_17basic_string_viewIcS7_EEEUlPNSD_5EventEE_NS8_ISS_EEFvSR_EE7__cloneEPNS0_6__baseISU_EE
FUNC a1f20 10 0 _ZNSt6__ndk110__function6__funcIZNK5geode4TaskINS2_6ResultIvNS_12basic_stringIcNS_11char_traitsIcEENS_9allocatorIcEEEEEENS_9monostateEE5chainITkNS_9invocableIPT_EEZN7DTLayer10refreshAllEbE3$_0EEDTclfL0p_clL_ZNS_7declvalB8ne180000IPSB_EEDTclsr3stdE9__declvalISG_ELi0EEEvEEEESG_NS_17basic_string_viewIcS7_EEEUlPNSD_5EventEE_NS8_ISS_EEFvSR_EE7destroyEv
FUNC a1f30 30 0 _ZNSt6__ndk110__function6__funcIZNK5geode4TaskINS2_6ResultIvNS_12basic_stringIcNS_11char_traitsIcEENS_9allocatorIcEEEEEENS_9monostateEE5chainITkNS_9invocableIPT_EEZN7DTLayer10refreshAllEbE3$_0EEDTclfL0p_clL_ZNS_7declvalB8ne180000IPSB_EEDTclsr3stdE9__declvalISG_ELi0EEEvEEEESG_NS_17basic_string_viewIcS7_EEEUlPNSD_5EventEE_NS8_ISS_EEFvSR_EE18destroy_deallocateEv
FUNC a1f60 300 0 _ZNSt6__ndk110__function6__funcIZNK5geode4TaskINS2_6ResultIvNS_12basic_stringIcNS_11char_traitsIcEENS_9allocatorIcEEEEEENS_9monostateEE5chainITkNS_9invocableIPT_EEZN7DTLayer10refreshAllEbE3$_0EEDTclfL0p_clL_ZNS_7declvalB8ne180000IPSB_EEDTclsr3stdE9__declvalISG_ELi0EEEvEEEESG_NS_17basic_string_viewIcS7_EEEUlPNSD_5EventEE_NS8_ISS_EEFvSR_EEclEOSR_
FUNC a2260 1c 0 _ZNKSt6__ndk110__function6__funcIZNK5geode4TaskINS2_6ResultIvNS_12basic_stringIcNS_11char_traitsIcEENS_9allocatorIcEEEEEENS_9monostateEE5chainITkNS_9invocableIPT_EEZN7DTLayer10refreshAllEbE3$_0EEDTclfL0p_clL_ZNS_7declvalB8ne180000IPSB_EEDTclsr3stdE9__declvalISG_ELi0EEEvEEEESG_NS_17basic_string_viewIcS7_EEEUlPNSD_5EventEE_NS8_ISS_EEFvSR_EE6targetERKSt9type_info
FUNC a227c c 0 _ZNKSt6__ndk110__function6__funcIZNK5geode4TaskINS2_6ResultIvNS_12basic_stringIcNS_11char_traitsIcEENS_9allocatorIcEEEEEENS_9monostateEE5chainITkNS_9invocableIPT_EEZN7DTLayer10refreshAllEbE3$_0EEDTclfL0p_clL_ZNS_7declvalB8ne180000IPSB_EEDTclsr3stdE9__declvalISG_ELi0EEEvEEEESG_NS_17basic_string_viewIcS7_EEEUlPNSD_5EventEE_NS8_ISS_EEFvSR_EE11target_typeEv
FUNC a2288 20 0 _ZNSt6__ndk110__function6__funcIZZNK5geode4TaskINS2_6ResultIvNS_12basic_stringIcNS_11char_traitsIcEENS_9allocatorIcEEEEEENS_9monostateEE5chainITkNS_9invocableIPT_EEZN7DTLayer10refreshAllEbE3$_0EEDTclfL1p_clL_ZNS_7declvalB8ne180000IPSB_EEDTclsr3stdE9__declvalISG_ELi0EEEvEEEESG_NS_17basic_string_viewIcS7_EEENUlPNSD_5EventEE_clESR_EUlSR_E_NS8_IST_EEFvSR_EED2Ev
FUNC a22a8 3c 0 _ZNSt6__ndk110__function6__funcIZZNK5geode4TaskINS2_6ResultIvNS_12basic_stringIcNS_11char_traitsIcEENS_9allocatorIcEEEEEENS_9monostateEE5chainITkNS_9invocableIPT_EEZN7DTLayer10refreshAllEbE3$_0EEDTclfL1p_clL_ZNS_7declvalB8ne180000IPSB_EEDTclsr3stdE9__declvalISG_ELi0EEEvEEEESG_NS_17basic_string_viewIcS7_EEENUlPNSD_5EventEE_clESR_EUlSR_E_NS8_IST_EEFvSR_EED0Ev
FUNC a22e4 50 0 _ZNKSt6__ndk110__function6__funcIZZNK5geode4TaskINS2_6ResultIvNS_12basic_stringIcNS_11char_traitsIcEENS_9allocatorIcEEEEEENS_9monostateEE5chainITkNS_9invocableIPT_EEZN7DTLayer10refreshAllEbE3$_0EEDTclfL1p_clL_ZNS_7declvalB8ne180000IPSB_EEDTclsr3stdE9__declvalISG_ELi0EEEvEEEESG_NS_17basic_string_viewIcS7_EEENUlPNSD_5EventEE_clESR_EUlSR_E_NS8_IST_EEFvSR_EE7__cloneEv
FUNC a2334 34 0 _ZNKSt6__ndk110__function6__funcIZZNK5geode4TaskINS2_6ResultIvNS_12basic_stringIcNS_11char_traitsIcEENS_9allocatorIcEEEEEENS_9monostateEE5chainITkNS_9invocableIPT_EEZN7DTLayer10refreshAllEbE3$_0EEDTclfL1p_clL_ZNS_7declvalB8ne180000IPSB_EEDTclsr3stdE9__declvalISG_ELi0EEEvEEEESG_NS_17basic_string_viewIcS7_EEENUlPNSD_5EventEE_clESR_EUlSR_E_NS8_IST_EEFvSR_EE7__cloneEPNS0_6__baseISV_EE
FUNC a2368 10 0 _ZNSt6__ndk110__function6__funcIZZNK5geode4TaskINS2_6ResultIvNS_12basic_stringIcNS_11char_traitsIcEENS_9allocatorIcEEEEEENS_9monostateEE5chainITkNS_9invocableIPT_EEZN7DTLayer10refreshAllEbE3$_0EEDTclfL1p_clL_ZNS_7declvalB8ne180000IPSB_EEDTclsr3stdE9__declvalISG_ELi0EEEvEEEESG_NS_17basic_string_viewIcS7_EEENUlPNSD_5EventEE_clESR_EUlSR_E_NS8_IST_EEFvSR_EE7destroyEv
FUNC a2378 30 0 _ZNSt6__ndk110__function6__funcIZZNK5geode4TaskINS2_6ResultIvNS_12basic_stringIcNS_11char_traitsIcEENS_9allocatorIcEEEEEENS_9monostateEE5chainITkNS_9invocableIPT_EEZN7DTLayer10refreshAllEbE3$_0EEDTclfL1p_clL_ZNS_7declvalB8ne180000IPSB_EEDTclsr3stdE9__declvalISG_ELi0EEEvEEEESG_NS_17basic_string_viewIcS7_EEENUlPNSD_5EventEE_clESR_EUlSR_E_NS8_IST_EEFvSR_EE18destroy_deallocateEv
FUNC a23a8 194 0 _ZNSt6__ndk110__function6__funcIZZNK5geode4TaskINS2_6ResultIvNS_12basic_stringIcNS_11char_traitsIcEENS_9allocatorIcEEEEEENS_9monostateEE5chainITkNS_9invocableIPT_EEZN7DTLayer10refreshAllEbE3$_0EEDTclfL1p_clL_ZNS_7declvalB8ne180000IPSB_EEDTclsr3stdE9__declvalISG_ELi0EEEvEEEESG_NS_17basic_string_viewIcS7_EEENUlPNSD_5EventEE_clESR_EUlSR_E_NS8_IST_EEFvSR_EEclEOSR_
FUNC a253c 1c 0 _ZNKSt6__ndk110__function6__funcIZZNK5geode4TaskINS2_6ResultIvNS_12basic_stringIcNS_11char_traitsIcEENS_9allocatorIcEEEEEENS_9monostateEE5chainITkNS_9invocableIPT_EEZN7DTLayer10refreshAllEbE3$_0EEDTclfL1p_clL_ZNS_7declvalB8ne180000IPSB_EEDTclsr3stdE9__declvalISG_ELi0EEEvEEEESG_NS_17basic_string_viewIcS7_EEENUlPNSD_5EventEE_clESR_EUlSR_E_NS8_IST_EEFvSR_EE6targetERKSt9type_info
FUNC a2558 c 0 _ZNKSt6__ndk110__function6__funcIZZNK5geode4TaskINS2_6ResultIvNS_12basic_stringIcNS_11char_traitsIcEENS_9allocatorIcEEEEEENS_9monostateEE5chainITkNS_9invocableIPT_EEZN7DTLayer10refreshAllEbE3$_0EEDTclfL1p_clL_ZNS_7declvalB8ne180000IPSB_EEDTclsr3stdE9__declvalISG_ELi0EEEvEEEESG_NS_17basic_string_viewIcS7_EEENUlPNSD_5EventEE_clESR_EUlSR_E_NS8_IST_EEFvSR_EE11target_typeEv
FUNC a2564 14 0 _ZZZNK5geode4TaskINS_6ResultIvNSt6__ndk112basic_stringIcNS2_11char_traitsIcEENS2_9allocatorIcEEEEEENS2_9monostateEE5chainITkNS2_9invocableIPT_EEZN7DTLayer10refreshAllEbE3$_0EEDTclfL1p_clL_ZNS2_7declvalB8ne180000IPS9_EEDTclsr3stdE9__declvalISE_ELi0EEEvEEEESE_NS2_17basic_string_viewIcS5_EEENUlPNSB_5EventEE_clESP_ENUlPvE_8__invokeESR_
FUNC a2578 cc 0 _ZZZNK5geode4TaskINS_6ResultIvNSt6__ndk112basic_stringIcNS2_11char_traitsIcEENS2_9allocatorIcEEEEEENS2_9monostateEE5chainITkNS2_9invocableIPT_EEZN7DTLayer10refreshAllEbE3$_0EEDTclfL1p_clL_ZNS2_7declvalB8ne180000IPS9_EEDTclsr3stdE9__declvalISE_ELi0EEEvEEEESE_NS2_17basic_string_viewIcS5_EEENUlPNSB_5EventEE_clESP_ENUlPvE0_8__invokeESR_
FUNC a2644 14 0 _ZZNK5geode4TaskINS_6ResultIvNSt6__ndk112basic_stringIcNS2_11char_traitsIcEENS2_9allocatorIcEEEEEENS2_9monostateEE5chainITkNS2_9invocableIPT_EEZN7DTLayer10refreshAllEbE3$_0EEDTclfL0p_clL_ZNS2_7declvalB8ne180000IPS9_EEDTclsr3stdE9__declvalISE_ELi0EEEvEEEESE_NS2_17basic_string_viewIcS5_EEENUlPvE_8__invokeESO_
FUNC a2658 cc 0 _ZZNK5geode4TaskINS_6ResultIvNSt6__ndk112basic_stringIcNS2_11char_traitsIcEENS2_9allocatorIcEEEEEENS2_9monostateEE5chainITkNS2_9invocableIPT_EEZN7DTLayer10refreshAllEbE3$_0EEDTclfL0p_clL_ZNS2_7declvalB8ne180000IPS9_EEDTclsr3stdE9__declvalISE_ELi0EEEvEEEESE_NS2_17basic_string_viewIcS5_EEENUlPvE0_8__invokeESO_
FUNC a2724 4 0 std::__ndk1::__function::__base<void (geode::Task<geode::Result<void, std::__ndk1::basic_string<char, std::__ndk1::char_traits<char>, std::__ndk1::allocator<char> > >, std::__ndk1::monostate>::Event*)>::~__base()
FUNC a2728 4 0 std::__ndk1::__function::__func<std::__ndk1::__bind<void (DTLayer::*&)(geode::Task<geode::Result<void, std::__ndk1::basic_string<char, std::__ndk1::char_traits<char>, std::__ndk1::allocator<char> > >, std::__ndk1::monostate>::Event*), DTLayer*&, std::__ndk1::placeholders::__ph<1> const&>, std::__ndk1::allocator<std::__ndk1::__bind<void (DTLayer::*&)(geode::Task<geode::Result<void, std::__ndk1::basic_string<char, std::__ndk1::char_traits<char>, std::__ndk1::allocator<char> > >, std::__ndk1::monostate>::Event*), DTLayer*&, std::__ndk1::placeholders::__ph<1> const&> >, void (geode::Task<geode::Result<void, std::__ndk1::basic_string<char, std::__ndk1::char_traits<char>, std::__ndk1::allocator<char> > >, std::__ndk1::monostate>::Event*)>::~__func()
FUNC a272c 40 0 std::__ndk1::__function::__func<std::__ndk1::__bind<void (DTLayer::*&)(geode::Task<geode::Result<void, std::__ndk1::basic_string<char, std::__ndk1::char_traits<char>, std::__ndk1::allocator<char> > >, std::__ndk1::monostate>::Event*), DTLayer*&, std::__ndk1::placeholders::__ph<1> const&>, std::__ndk1::allocator<std::__ndk1::__bind<void (DTLayer::*&)(geode::Task<geode::Result<void, std::__ndk1::basic_string<char, std::__ndk1::char_traits<char>, std::__ndk1::allocator<char> > >, std::__ndk1::monostate>::Event*), DTLayer*&, std::__ndk1::placeholders::__ph<1> const&> >, void (geode::Task<geode::Result<void, std::__ndk1::basic_string<char, std::__ndk1::char_traits<char>, std::__ndk1::allocator<char> > >, std::__ndk1::monostate>::Event*)>::__clone() const
FUNC a276c 20 0 std::__ndk1::__function::__func<std::__ndk1::__bind<void (DTLayer::*&)(geode::Task<geode::Result<void, std::__ndk1::basic_string<char, std::__ndk1::char_traits<char>, std::__ndk1::allocator<char> > >, std::__ndk1::monostate>::Event*), DTLayer*&, std::__ndk1::placeholders::__ph<1> const&>, std::__ndk1::allocator<std::__ndk1::__bind<void (DTLayer::*&)(geode::Task<geode::Result<void, std::__ndk1::basic_string<char, std::__ndk1::char_traits<char>, std::__ndk1::allocator<char> > >, std::__ndk1::monostate>::Event*), DTLayer*&, std::__ndk1::placeholders::__ph<1> const&> >, void (geode::Task<geode::Result<void, std::__ndk1::basic_string<char, std::__ndk1::char_traits<char>, std::__ndk1::allocator<char> > >, std::__ndk1::monostate>::Event*)>::__clone(std::__ndk1::__function::__base<void (geode::Task<geode::Result<void, std::__ndk1::basic_string<char, std::__ndk1::char_traits<char>, std::__ndk1::allocator<char> > >, std::__ndk1::monostate>::Event*)>*) const
FUNC a278c 4 0 std::__ndk1::__function::__func<std::__ndk1::__bind<void (DTLayer::*&)(geode::Task<geode::Result<void, std::__ndk1::basic_string<char, std::__ndk1::char_traits<char>, std::__ndk1::allocator<char> > >, std::__ndk1::monostate>::Event*), DTLayer*&, std::__ndk1::placeholders::__ph<1> const&>, std::__ndk1::allocator<std::__ndk1::__bind<void (DTLayer::*&)(geode::Task<geode::Result<void, std::__ndk1::basic_string<char, std::__ndk1::char_traits<char>, std::__ndk1::allocator<char> > >, std::__ndk1::monostate>::Event*), DTLayer*&, std::__ndk1::placeholders::__ph<1> const&> >, void (geode::Task<geode::Result<void, std::__ndk1::basic_string<char, std::__ndk1::char_traits<char>, std::__ndk1::allocator<char> > >, std::__ndk1::monostate>::Event*)>::destroy()
FUNC a2790 4 0 std::__ndk1::__function::__func<std::__ndk1::__bind<void (DTLayer::*&)(geode::Task<geode::Result<void, std::__ndk1::basic_string<char, std::__ndk1::char_traits<char>, std::__ndk1::allocator<char> > >, std::__ndk1::monostate>::Event*), DTLayer*&, std::__ndk1::placeholders::__ph<1> const&>, std::__ndk1::allocator<std::__ndk1::__bind<void (DTLayer::*&)(geode::Task<geode::Result<void, std::__ndk1::basic_string<char, std::__ndk1::char_traits<char>, std::__ndk1::allocator<char> > >, std::__ndk1::monostate>::Event*), DTLayer*&, std::__ndk1::placeholders::__ph<1> const&> >, void (geode::Task<geode::Result<void, std::__ndk1::basic_string<char, std::__ndk1::char_traits<char>, std::__ndk1::allocator<char> > >, std::__ndk1::monostate>::Event*)>::destroy_deallocate()
FUNC a2794 20 0 std::__ndk1::__function::__func<std::__ndk1::__bind<void (DTLayer::*&)(geode::Task<geode::Result<void, std::__ndk1::basic_string<char, std::__ndk1::char_traits<char>, std::__ndk1::allocator<char> > >, std::__ndk1::monostate>::Event*), DTLayer*&, std::__ndk1::placeholders::__ph<1> const&>, std::__ndk1::allocator<std::__ndk1::__bind<void (DTLayer::*&)(geode::Task<geode::Result<void, std::__ndk1::basic_string<char, std::__ndk1::char_traits<char>, std::__ndk1::allocator<char> > >, std::__ndk1::monostate>::Event*), DTLayer*&, std::__ndk1::placeholders::__ph<1> const&> >, void (geode::Task<geode::Result<void, std::__ndk1::basic_string<char, std::__ndk1::char_traits<char>, std::__ndk1::allocator<char> > >, std::__ndk1::monostate>::Event*)>::operator()(geode::Task<geode::Result<void, std::__ndk1::basic_string<char, std::__ndk1::char_traits<char>, std::__ndk1::allocator<char> > >, std::__ndk1::monostate>::Event*&&)
FUNC a27b4 1c 0 std::__ndk1::__function::__func<std::__ndk1::__bind<void (DTLayer::*&)(geode::Task<geode::Result<void, std::__ndk1::basic_string<char, std::__ndk1::char_traits<char>, std::__ndk1::allocator<char> > >, std::__ndk1::monostate>::Event*), DTLayer*&, std::__ndk1::placeholders::__ph<1> const&>, std::__ndk1::allocator<std::__ndk1::__bind<void (DTLayer::*&)(geode::Task<geode::Result<void, std::__ndk1::basic_string<char, std::__ndk1::char_traits<char>, std::__ndk1::allocator<char> > >, std::__ndk1::monostate>::Event*), DTLayer*&, std::__ndk1::placeholders::__ph<1> const&> >, void (geode::Task<geode::Result<void, std::__ndk1::basic_string<char, std::__ndk1::char_traits<char>, std::__ndk1::allocator<char> > >, std::__ndk1::monostate>::Event*)>::target(std::type_info const&) const
FUNC a27d0 c 0 std::__ndk1::__function::__func<std::__ndk1::__bind<void (DTLayer::*&)(geode::Task<geode::Result<void, std::__ndk1::basic_string<char, std::__ndk1::char_traits<char>, std::__ndk1::allocator<char> > >, std::__ndk1::monostate>::Event*), DTLayer*&, std::__ndk1::placeholders::__ph<1> const&>, std::__ndk1::allocator<std::__ndk1::__bind<void (DTLayer::*&)(geode::Task<geode::Result<void, std::__ndk1::basic_string<char, std::__ndk1::char_traits<char>, std::__ndk1::allocator<char> > >, std::__ndk1::monostate>::Event*), DTLayer*&, std::__ndk1::placeholders::__ph<1> const&> >, void (geode::Task<geode::Result<void, std::__ndk1::basic_string<char, std::__ndk1::char_traits<char>, std::__ndk1::allocator<char> > >, std::__ndk1::monostate>::Event*)>::target_type() const
FUNC a27dc 168 0 std::__ndk1::__function::__value_func<void (geode::Task<geode::Result<void, std::__ndk1::basic_string<char, std::__ndk1::char_traits<char>, std::__ndk1::allocator<char> > >, std::__ndk1::monostate>::Event*)>::swap[abi:ne180000](std::__ndk1::__function::__value_func<void (geode::Task<geode::Result<void, std::__ndk1::basic_string<char, std::__ndk1::char_traits<char>, std::__ndk1::allocator<char> > >, std::__ndk1::monostate>::Event*)>&)
FUNC a2944 1a8 0 DTLayer::refreshSession(bool)::$_0::operator()(geode::Result<void, std::__ndk1::basic_string<char, std::__ndk1::char_traits<char>, std::__ndk1::allocator<char> > >*) const
FUNC a2aec 20 0 _ZNSt6__ndk110__function6__funcIZNK5geode4TaskINS2_6ResultIvNS_12basic_stringIcNS_11char_traitsIcEENS_9allocatorIcEEEEEENS_9monostateEE5chainITkNS_9invocableIPT_EEZN7DTLayer14refreshSessionEbE3$_0EEDTclfL0p_clL_ZNS_7declvalB8ne180000IPSB_EEDTclsr3stdE9__declvalISG_ELi0EEEvEEEESG_NS_17basic_string_viewIcS7_EEEUlPNSD_5EventEE_NS8_ISS_EEFvSR_EED2Ev
FUNC a2b0c 3c 0 _ZNSt6__ndk110__function6__funcIZNK5geode4TaskINS2_6ResultIvNS_12basic_stringIcNS_11char_traitsIcEENS_9allocatorIcEEEEEENS_9monostateEE5chainITkNS_9invocableIPT_EEZN7DTLayer14refreshSessionEbE3$_0EEDTclfL0p_clL_ZNS_7declvalB8ne180000IPSB_EEDTclsr3stdE9__declvalISG_ELi0EEEvEEEESG_NS_17basic_string_viewIcS7_EEEUlPNSD_5EventEE_NS8_ISS_EEFvSR_EED0Ev
FUNC a2b48 58 0 _ZNKSt6__ndk110__function6__funcIZNK5geode4TaskINS2_6ResultIvNS_12basic_stringIcNS_11char_traitsIcEENS_9allocatorIcEEEEEENS_9monostateEE5chainITkNS_9invocableIPT_EEZN7DTLayer14refreshSessionEbE3$_0EEDTclfL0p_clL_ZNS_7declvalB8ne180000IPSB_EEDTclsr3stdE9__declvalISG_ELi0EEEvEEEESG_NS_17basic_string_viewIcS7_EEEUlPNSD_5EventEE_NS8_ISS_EEFvSR_EE7__cloneEv
FUNC a2ba0 4c 0 _ZNKSt6__ndk110__function6__funcIZNK5geode4TaskINS2_6ResultIvNS_12basic_stringIcNS_11char_traitsIcEENS_9allocatorIcEEEEEENS_9monostateEE5chainITkNS_9invocableIPT_EEZN7DTLayer14refreshSessionEbE3$_0EEDTclfL0p_clL_ZNS_7declvalB8ne180000IPSB_EEDTclsr3stdE9__declvalISG_ELi0EEEvEEEESG_NS_17basic_string_viewIcS7_EEEUlPNSD_5EventEE_NS8_ISS_EEFvSR_EE7__cloneEPNS0_6__baseISU_EE
FUNC a2bec 10 0 _ZNSt6__ndk110__function6__funcIZNK5geode4TaskINS2_6ResultIvNS_12basic_stringIcNS_11char_traitsIcEENS_9allocatorIcEEEEEENS_9monostateEE5chainITkNS_9invocableIPT_EEZN7DTLayer14refreshSessionEbE3$_0EEDTclfL0p_clL_ZNS_7declvalB8ne180000IPSB_EEDTclsr3stdE9__declvalISG_ELi0EEEvEEEESG_NS_17basic_string_viewIcS7_EEEUlPNSD_5EventEE_NS8_ISS_EEFvSR_EE7destroyEv
FUNC a2bfc 30 0 _ZNSt6__ndk110__function6__funcIZNK5geode4TaskINS2_6ResultIvNS_12basic_stringIcNS_11char_traitsIcEENS_9allocatorIcEEEEEENS_9monostateEE5chainITkNS_9invocableIPT_EEZN7DTLayer14refreshSessionEbE3$_0EEDTclfL0p_clL_ZNS_7declvalB8ne180000IPSB_EEDTclsr3stdE9__declvalISG_ELi0EEEvEEEESG_NS_17basic_string_viewIcS7_EEEUlPNSD_5EventEE_NS8_ISS_EEFvSR_EE18destroy_deallocateEv
FUNC a2c2c 300 0 _ZNSt6__ndk110__function6__funcIZNK5geode4TaskINS2_6ResultIvNS_12basic_stringIcNS_11char_traitsIcEENS_9allocatorIcEEEEEENS_9monostateEE5chainITkNS_9invocableIPT_EEZN7DTLayer14refreshSessionEbE3$_0EEDTclfL0p_clL_ZNS_7declvalB8ne180000IPSB_EEDTclsr3stdE9__declvalISG_ELi0EEEvEEEESG_NS_17basic_string_viewIcS7_EEEUlPNSD_5EventEE_NS8_ISS_EEFvSR_EEclEOSR_
FUNC a2f2c 1c 0 _ZNKSt6__ndk110__function6__funcIZNK5geode4TaskINS2_6ResultIvNS_12basic_stringIcNS_11char_traitsIcEENS_9allocatorIcEEEEEENS_9monostateEE5chainITkNS_9invocableIPT_EEZN7DTLayer14refreshSessionEbE3$_0EEDTclfL0p_clL_ZNS_7declvalB8ne180000IPSB_EEDTclsr3stdE9__declvalISG_ELi0EEEvEEEESG_NS_17basic_string_viewIcS7_EEEUlPNSD_5EventEE_NS8_ISS_EEFvSR_EE6targetERKSt9type_info
FUNC a2f48 c 0 _ZNKSt6__ndk110__function6__funcIZNK5geode4TaskINS2_6ResultIvNS_12basic_stringIcNS_11char_traitsIcEENS_9allocatorIcEEEEEENS_9monostateEE5chainITkNS_9invocableIPT_EEZN7DTLayer14refreshSessionEbE3$_0EEDTclfL0p_clL_ZNS_7declvalB8ne180000IPSB_EEDTclsr3stdE9__declvalISG_ELi0EEEvEEEESG_NS_17basic_string_viewIcS7_EEEUlPNSD_5EventEE_NS8_ISS_EEFvSR_EE11target_typeEv
FUNC a2f54 20 0 _ZNSt6__ndk110__function6__funcIZZNK5geode4TaskINS2_6ResultIvNS_12basic_stringIcNS_11char_traitsIcEENS_9allocatorIcEEEEEENS_9monostateEE5chainITkNS_9invocableIPT_EEZN7DTLayer14refreshSessionEbE3$_0EEDTclfL1p_clL_ZNS_7declvalB8ne180000IPSB_EEDTclsr3stdE9__declvalISG_ELi0EEEvEEEESG_NS_17basic_string_viewIcS7_EEENUlPNSD_5EventEE_clESR_EUlSR_E_NS8_IST_EEFvSR_EED2Ev
FUNC a2f74 3c 0 _ZNSt6__ndk110__function6__funcIZZNK5geode4TaskINS2_6ResultIvNS_12basic_stringIcNS_11char_traitsIcEENS_9allocatorIcEEEEEENS_9monostateEE5chainITkNS_9invocableIPT_EEZN7DTLayer14refreshSessionEbE3$_0EEDTclfL1p_clL_ZNS_7declvalB8ne180000IPSB_EEDTclsr3stdE9__declvalISG_ELi0EEEvEEEESG_NS_17basic_string_viewIcS7_EEENUlPNSD_5EventEE_clESR_EUlSR_E_NS8_IST_EEFvSR_EED0Ev
FUNC a2fb0 50 0 _ZNKSt6__ndk110__function6__funcIZZNK5geode4TaskINS2_6ResultIvNS_12basic_stringIcNS_11char_traitsIcEENS_9allocatorIcEEEEEENS_9monostateEE5chainITkNS_9invocableIPT_EEZN7DTLayer14refreshSessionEbE3$_0EEDTclfL1p_clL_ZNS_7declvalB8ne180000IPSB_EEDTclsr3stdE9__declvalISG_ELi0EEEvEEEESG_NS_17basic_string_viewIcS7_EEENUlPNSD_5EventEE_clESR_EUlSR_E_NS8_IST_EEFvSR_EE7__cloneEv
FUNC a3000 34 0 _ZNKSt6__ndk110__function6__funcIZZNK5geode4TaskINS2_6ResultIvNS_12basic_stringIcNS_11char_traitsIcEENS_9allocatorIcEEEEEENS_9monostateEE5chainITkNS_9invocableIPT_EEZN7DTLayer14refreshSessionEbE3$_0EEDTclfL1p_clL_ZNS_7declvalB8ne180000IPSB_EEDTclsr3stdE9__declvalISG_ELi0EEEvEEEESG_NS_17basic_string_viewIcS7_EEENUlPNSD_5EventEE_clESR_EUlSR_E_NS8_IST_EEFvSR_EE7__cloneEPNS0_6__baseISV_EE
FUNC a3034 10 0 _ZNSt6__ndk110__function6__funcIZZNK5geode4TaskINS2_6ResultIvNS_12basic_stringIcNS_11char_traitsIcEENS_9allocatorIcEEEEEENS_9monostateEE5chainITkNS_9invocableIPT_EEZN7DTLayer14refreshSessionEbE3$_0EEDTclfL1p_clL_ZNS_7declvalB8ne180000IPSB_EEDTclsr3stdE9__declvalISG_ELi0EEEvEEEESG_NS_17basic_string_viewIcS7_EEENUlPNSD_5EventEE_clESR_EUlSR_E_NS8_IST_EEFvSR_EE7destroyEv
FUNC a3044 30 0 _ZNSt6__ndk110__function6__funcIZZNK5geode4TaskINS2_6ResultIvNS_12basic_stringIcNS_11char_traitsIcEENS_9allocatorIcEEEEEENS_9monostateEE5chainITkNS_9invocableIPT_EEZN7DTLayer14refreshSessionEbE3$_0EEDTclfL1p_clL_ZNS_7declvalB8ne180000IPSB_EEDTclsr3stdE9__declvalISG_ELi0EEEvEEEESG_NS_17basic_string_viewIcS7_EEENUlPNSD_5EventEE_clESR_EUlSR_E_NS8_IST_EEFvSR_EE18destroy_deallocateEv
FUNC a3074 194 0 _ZNSt6__ndk110__function6__funcIZZNK5geode4TaskINS2_6ResultIvNS_12basic_stringIcNS_11char_traitsIcEENS_9allocatorIcEEEEEENS_9monostateEE5chainITkNS_9invocableIPT_EEZN7DTLayer14refreshSessionEbE3$_0EEDTclfL1p_clL_ZNS_7declvalB8ne180000IPSB_EEDTclsr3stdE9__declvalISG_ELi0EEEvEEEESG_NS_17basic_string_viewIcS7_EEENUlPNSD_5EventEE_clESR_EUlSR_E_NS8_IST_EEFvSR_EEclEOSR_
FUNC a3208 1c 0 _ZNKSt6__ndk110__function6__funcIZZNK5geode4TaskINS2_6ResultIvNS_12basic_stringIcNS_11char_traitsIcEENS_9allocatorIcEEEEEENS_9monostateEE5chainITkNS_9invocableIPT_EEZN7DTLayer14refreshSessionEbE3$_0EEDTclfL1p_clL_ZNS_7declvalB8ne180000IPSB_EEDTclsr3stdE9__declvalISG_ELi0EEEvEEEESG_NS_17basic_string_viewIcS7_EEENUlPNSD_5EventEE_clESR_EUlSR_E_NS8_IST_EEFvSR_EE6targetERKSt9type_info
FUNC a3224 c 0 _ZNKSt6__ndk110__function6__funcIZZNK5geode4TaskINS2_6ResultIvNS_12basic_stringIcNS_11char_traitsIcEENS_9allocatorIcEEEEEENS_9monostateEE5chainITkNS_9invocableIPT_EEZN7DTLayer14refreshSessionEbE3$_0EEDTclfL1p_clL_ZNS_7declvalB8ne180000IPSB_EEDTclsr3stdE9__declvalISG_ELi0EEEvEEEESG_NS_17basic_string_viewIcS7_EEENUlPNSD_5EventEE_clESR_EUlSR_E_NS8_IST_EEFvSR_EE11target_typeEv
FUNC a3230 14 0 _ZZZNK5geode4TaskINS_6ResultIvNSt6__ndk112basic_stringIcNS2_11char_traitsIcEENS2_9allocatorIcEEEEEENS2_9monostateEE5chainITkNS2_9invocableIPT_EEZN7DTLayer14refreshSessionEbE3$_0EEDTclfL1p_clL_ZNS2_7declvalB8ne180000IPS9_EEDTclsr3stdE9__declvalISE_ELi0EEEvEEEESE_NS2_17basic_string_viewIcS5_EEENUlPNSB_5EventEE_clESP_ENUlPvE_8__invokeESR_
FUNC a3244 cc 0 _ZZZNK5geode4TaskINS_6ResultIvNSt6__ndk112basic_stringIcNS2_11char_traitsIcEENS2_9allocatorIcEEEEEENS2_9monostateEE5chainITkNS2_9invocableIPT_EEZN7DTLayer14refreshSessionEbE3$_0EEDTclfL1p_clL_ZNS2_7declvalB8ne180000IPS9_EEDTclsr3stdE9__declvalISE_ELi0EEEvEEEESE_NS2_17basic_string_viewIcS5_EEENUlPNSB_5EventEE_clESP_ENUlPvE0_8__invokeESR_
FUNC a3310 14 0 _ZZNK5geode4TaskINS_6ResultIvNSt6__ndk112basic_stringIcNS2_11char_traitsIcEENS2_9allocatorIcEEEEEENS2_9monostateEE5chainITkNS2_9invocableIPT_EEZN7DTLayer14refreshSessionEbE3$_0EEDTclfL0p_clL_ZNS2_7declvalB8ne180000IPS9_EEDTclsr3stdE9__declvalISE_ELi0EEEvEEEESE_NS2_17basic_string_viewIcS5_EEENUlPvE_8__invokeESO_
FUNC a3324 cc 0 _ZZNK5geode4TaskINS_6ResultIvNSt6__ndk112basic_stringIcNS2_11char_traitsIcEENS2_9allocatorIcEEEEEENS2_9monostateEE5chainITkNS2_9invocableIPT_EEZN7DTLayer14refreshSessionEbE3$_0EEDTclfL0p_clL_ZNS2_7declvalB8ne180000IPS9_EEDTclsr3stdE9__declvalISE_ELi0EEEvEEEESE_NS2_17basic_string_viewIcS5_EEENUlPvE0_8__invokeESO_
FUNC a33f0 20e4 0 DTLevelSpecificSettingsLayer::init(cocos2d::CCSize const&, DTLayer* const&)
FUNC a54d4 b24 0 DTLevelSpecificSettingsLayer::addRunAllowed(cocos2d::CCObject*)
FUNC a5ff8 568 0 DTLevelSpecificSettingsLayer::removeRunAllowed(int const&, cocos2d::CCNode*)
FUNC a6560 13c 0 DTLevelSpecificSettingsLayer::onRunsAInfo(cocos2d::CCObject*)
FUNC a669c 78c 0 DTLevelSpecificSettingsLayer::OnToggleAllRuns(cocos2d::CCObject*)
FUNC a6e28 f0 0 DTLevelSpecificSettingsLayer::deleteUnused(cocos2d::CCObject*)
FUNC a6f18 140 0 DTLevelSpecificSettingsLayer::onSaveManagementInfo(cocos2d::CCObject*)
FUNC a7058 54 0 DTLevelSpecificSettingsLayer::onExportClicked(cocos2d::CCObject*)
FUNC a70ac f0 0 DTLevelSpecificSettingsLayer::onCurrentDeleteClicked(cocos2d::CCObject*)
FUNC a719c f0 0 DTLevelSpecificSettingsLayer::onRevertClicked(cocos2d::CCObject*)
FUNC a728c 140 0 DTLevelSpecificSettingsLayer::onModRunsInfo(cocos2d::CCObject*)
FUNC a73cc 2b0 0 DTLevelSpecificSettingsLayer::onAddedFZRun(cocos2d::CCObject*)
FUNC a767c c14 0 DTLevelSpecificSettingsLayer::onRemovedFZRun(cocos2d::CCObject*)
FUNC a8290 1d8 0 DTLevelSpecificSettingsLayer::addRunStartInputKeyDown()
FUNC a8468 30c 0 DTLevelSpecificSettingsLayer::onAddedRun(cocos2d::CCObject*)
FUNC a8774 6bc 0 DTLevelSpecificSettingsLayer::onRemovedRun(cocos2d::CCObject*)
FUNC a8e30 2bc 0 LevelStats_s::LevelStats_s(LevelStats_s const&)
FUNC a90ec ba4 0 DTLevelSpecificSettingsLayer::FLAlert_Clicked(FLAlertLayer*, bool)
FUNC a9c90 8 0 {virtual override thunk({offset(-320)}, DTLevelSpecificSettingsLayer::FLAlert_Clicked(FLAlertLayer*, bool))}
FUNC a9c98 224 0 DTLevelSpecificSettingsLayer::EnableTouch(bool)
FUNC a9ebc ab8 0 DTLevelSpecificSettingsLayer::textChanged(CCTextInputNode*)
FUNC aa974 8 0 {virtual override thunk({offset(-328)}, DTLevelSpecificSettingsLayer::textChanged(CCTextInputNode*))}
FUNC aa97c 4c 0 DTLevelSpecificSettingsLayer::~DTLevelSpecificSettingsLayer()
FUNC aa9c8 50 0 DTLevelSpecificSettingsLayer::~DTLevelSpecificSettingsLayer()
FUNC aaa18 14 0 std::__ndk1::vector<cocos2d::CCMenu*, std::__ndk1::allocator<cocos2d::CCMenu*> >::__throw_length_error[abi:ne180000]() const
FUNC aaa2c 99c 0 std::__ndk1::__introsort<std::__ndk1::_RangeAlgPolicy, DTLevelSpecificSettingsLayer::addRunAllowed(cocos2d::CCObject*)::$_0&, int*, false>(int*, int*, DTLevelSpecificSettingsLayer::addRunAllowed(cocos2d::CCObject*)::$_0&, std::__ndk1::iterator_traits<int*>::difference_type, bool)
FUNC ab3c8 3b8 0 std::__ndk1::__insertion_sort_incomplete[abi:ne180000]<std::__ndk1::_RangeAlgPolicy, DTLevelSpecificSettingsLayer::addRunAllowed(cocos2d::CCObject*)::$_0&, int*>(int*, int*, DTLevelSpecificSettingsLayer::addRunAllowed(cocos2d::CCObject*)::$_0&)
FUNC ab780 99c 0 std::__ndk1::__introsort<std::__ndk1::_RangeAlgPolicy, DTLevelSpecificSettingsLayer::addRunAllowed(cocos2d::CCObject*)::$_1&, int*, false>(int*, int*, DTLevelSpecificSettingsLayer::addRunAllowed(cocos2d::CCObject*)::$_1&, std::__ndk1::iterator_traits<int*>::difference_type, bool)
FUNC ac11c 3b8 0 std::__ndk1::__insertion_sort_incomplete[abi:ne180000]<std::__ndk1::_RangeAlgPolicy, DTLevelSpecificSettingsLayer::addRunAllowed(cocos2d::CCObject*)::$_1&, int*>(int*, int*, DTLevelSpecificSettingsLayer::addRunAllowed(cocos2d::CCObject*)::$_1&)
FUNC ac4d4 144 0 std::__ndk1::vector<Session, std::__ndk1::allocator<Session> >::__init_with_size[abi:ne180000]<Session*, std::__ndk1::vector<Session, std::__ndk1::allocator<Session> >::__init_with_size[abi:ne180000]>(Session*, std::__ndk1::vector<Session, std::__ndk1::allocator<Session> >::__init_with_size[abi:ne180000], unsigned long)
FUNC ac618 a0 0 std::__ndk1::__exception_guard_exceptions<std::__ndk1::vector<Session, std::__ndk1::allocator<Session> >::__destroy_vector>::~__exception_guard_exceptions[abi:ne180000]()
FUNC ac6b8 160 0 std::__ndk1::vector<std::__ndk1::basic_string<char, std::__ndk1::char_traits<char>, std::__ndk1::allocator<char> >, std::__ndk1::allocator<std::__ndk1::basic_string<char, std::__ndk1::char_traits<char>, std::__ndk1::allocator<char> > > >::__init_with_size[abi:ne180000]<std::__ndk1::basic_string<char, std::__ndk1::char_traits<char>, std::__ndk1::allocator<char> >*, std::__ndk1::vector<std::__ndk1::basic_string<char, std::__ndk1::char_traits<char>, std::__ndk1::allocator<char> >, std::__ndk1::allocator<std::__ndk1::basic_string<char, std::__ndk1::char_traits<char>, std::__ndk1::allocator<char> > > >::__init_with_size[abi:ne180000]>(std::__ndk1::basic_string<char, std::__ndk1::char_traits<char>, std::__ndk1::allocator<char> >*, std::__ndk1::vector<std::__ndk1::basic_string<char, std::__ndk1::char_traits<char>, std::__ndk1::allocator<char> >, std::__ndk1::allocator<std::__ndk1::basic_string<char, std::__ndk1::char_traits<char>, std::__ndk1::allocator<char> > > >::__init_with_size[abi:ne180000], unsigned long)
FUNC ac818 8c 0 std::__ndk1::__exception_guard_exceptions<std::__ndk1::vector<std::__ndk1::basic_string<char, std::__ndk1::char_traits<char>, std::__ndk1::allocator<char> >, std::__ndk1::allocator<std::__ndk1::basic_string<char, std::__ndk1::char_traits<char>, std::__ndk1::allocator<char> > > >::__destroy_vector>::~__exception_guard_exceptions[abi:ne180000]()
FUNC ac8a4 99c 0 std::__ndk1::__introsort<std::__ndk1::_RangeAlgPolicy, DTLevelSpecificSettingsLayer::removeRunAllowed(int const&, cocos2d::CCNode*)::$_0&, int*, false>(int*, int*, DTLevelSpecificSettingsLayer::removeRunAllowed(int const&, cocos2d::CCNode*)::$_0&, std::__ndk1::iterator_traits<int*>::difference_type, bool)
FUNC ad240 3b8 0 std::__ndk1::__insertion_sort_incomplete[abi:ne180000]<std::__ndk1::_RangeAlgPolicy, DTLevelSpecificSettingsLayer::removeRunAllowed(int const&, cocos2d::CCNode*)::$_0&, int*>(int*, int*, DTLevelSpecificSettingsLayer::removeRunAllowed(int const&, cocos2d::CCNode*)::$_0&)
FUNC ad5f8 14 0 std::__ndk1::__variant_detail::__visitation::__base::__dispatcher<(unsigned long)0>::__dispatch[abi:ne180000]<std::__ndk1::__variant_detail::__dtor<std::__ndk1::__variant_detail::__traits<std::__ndk1::__fs::filesystem::path, std::__ndk1::basic_string<char, std::__ndk1::char_traits<char>, std::__ndk1::allocator<char> > >, (std::__ndk1::__variant_detail::_Trait)1>::__destroy[abi:ne180000]()::{lambda(auto:1&)#1}, std::__ndk1::__variant_detail::__base<(std::__ndk1::__variant_detail::__traits<std::__ndk1::__fs::filesystem::path, std::__ndk1::basic_string<char, std::__ndk1::char_traits<char>, std::__ndk1::allocator<char> > >)1, std::__ndk1::__fs::filesystem, std::__ndk1::allocator<char> >&>(std::__ndk1::__variant_detail::__dtor<std::__ndk1::__variant_detail::__traits<std::__ndk1::__fs::filesystem::path, std::__ndk1::basic_string<char, std::__ndk1::char_traits<char>, std::__ndk1::allocator<char> > >, (std::__ndk1::__variant_detail::_Trait)1>, std::__ndk1::__variant_detail::__base<(std::__ndk1::__variant_detail::__traits<std::__ndk1::__fs::filesystem::path, std::__ndk1::basic_string<char, std::__ndk1::char_traits<char>, std::__ndk1::allocator<char> > >)1, std::__ndk1::__fs::filesystem, std::__ndk1::allocator<char> >&)
FUNC ad60c 14 0 std::__ndk1::__variant_detail::__visitation::__base::__dispatcher<(unsigned long)1>::__dispatch[abi:ne180000]<std::__ndk1::__variant_detail::__dtor<std::__ndk1::__variant_detail::__traits<std::__ndk1::__fs::filesystem::path, std::__ndk1::basic_string<char, std::__ndk1::char_traits<char>, std::__ndk1::allocator<char> > >, (std::__ndk1::__variant_detail::_Trait)1>::__destroy[abi:ne180000]()::{lambda(auto:1&)#1}, std::__ndk1::__variant_detail::__base<(std::__ndk1::__variant_detail::__traits<std::__ndk1::__fs::filesystem::path, std::__ndk1::basic_string<char, std::__ndk1::char_traits<char>, std::__ndk1::allocator<char> > >)1, std::__ndk1::__fs::filesystem, std::__ndk1::allocator<char> >&>(std::__ndk1::__variant_detail::__dtor<std::__ndk1::__variant_detail::__traits<std::__ndk1::__fs::filesystem::path, std::__ndk1::basic_string<char, std::__ndk1::char_traits<char>, std::__ndk1::allocator<char> > >, (std::__ndk1::__variant_detail::_Trait)1>, std::__ndk1::__variant_detail::__base<(std::__ndk1::__variant_detail::__traits<std::__ndk1::__fs::filesystem::path, std::__ndk1::basic_string<char, std::__ndk1::char_traits<char>, std::__ndk1::allocator<char> > >)1, std::__ndk1::__fs::filesystem, std::__ndk1::allocator<char> >&)
FUNC ad620 2bc 0 std::__ndk1::vector<Session, std::__ndk1::allocator<Session> >::__push_back_slow_path<Session const&>(Session const&)
FUNC ad8dc 4 0 std::__ndk1::__function::__base<void (int const&, cocos2d::CCNode*)>::~__base()
FUNC ad8e0 4 0 std::__ndk1::__function::__func<std::__ndk1::__bind<void (DTLevelSpecificSettingsLayer::*)(int const&, cocos2d::CCNode*), DTLevelSpecificSettingsLayer*, std::__ndk1::placeholders::__ph<1> const&, std::__ndk1::placeholders::__ph<2> const&>, std::__ndk1::allocator<std::__ndk1::__bind<void (DTLevelSpecificSettingsLayer::*)(int const&, cocos2d::CCNode*), DTLevelSpecificSettingsLayer*, std::__ndk1::placeholders::__ph<1> const&, std::__ndk1::placeholders::__ph<2> const&> >, void (int const&, cocos2d::CCNode*)>::~__func()
FUNC ad8e4 40 0 std::__ndk1::__function::__func<std::__ndk1::__bind<void (DTLevelSpecificSettingsLayer::*)(int const&, cocos2d::CCNode*), DTLevelSpecificSettingsLayer*, std::__ndk1::placeholders::__ph<1> const&, std::__ndk1::placeholders::__ph<2> const&>, std::__ndk1::allocator<std::__ndk1::__bind<void (DTLevelSpecificSettingsLayer::*)(int const&, cocos2d::CCNode*), DTLevelSpecificSettingsLayer*, std::__ndk1::placeholders::__ph<1> const&, std::__ndk1::placeholders::__ph<2> const&> >, void (int const&, cocos2d::CCNode*)>::__clone() const
FUNC ad924 20 0 std::__ndk1::__function::__func<std::__ndk1::__bind<void (DTLevelSpecificSettingsLayer::*)(int const&, cocos2d::CCNode*), DTLevelSpecificSettingsLayer*, std::__ndk1::placeholders::__ph<1> const&, std::__ndk1::placeholders::__ph<2> const&>, std::__ndk1::allocator<std::__ndk1::__bind<void (DTLevelSpecificSettingsLayer::*)(int const&, cocos2d::CCNode*), DTLevelSpecificSettingsLayer*, std::__ndk1::placeholders::__ph<1> const&, std::__ndk1::placeholders::__ph<2> const&> >, void (int const&, cocos2d::CCNode*)>::__clone(std::__ndk1::__function::__base<void (int const&, cocos2d::CCNode*)>*) const
FUNC ad944 4 0 std::__ndk1::__function::__func<std::__ndk1::__bind<void (DTLevelSpecificSettingsLayer::*)(int const&, cocos2d::CCNode*), DTLevelSpecificSettingsLayer*, std::__ndk1::placeholders::__ph<1> const&, std::__ndk1::placeholders::__ph<2> const&>, std::__ndk1::allocator<std::__ndk1::__bind<void (DTLevelSpecificSettingsLayer::*)(int const&, cocos2d::CCNode*), DTLevelSpecificSettingsLayer*, std::__ndk1::placeholders::__ph<1> const&, std::__ndk1::placeholders::__ph<2> const&> >, void (int const&, cocos2d::CCNode*)>::destroy()
FUNC ad948 4 0 std::__ndk1::__function::__func<std::__ndk1::__bind<void (DTLevelSpecificSettingsLayer::*)(int const&, cocos2d::CCNode*), DTLevelSpecificSettingsLayer*, std::__ndk1::placeholders::__ph<1> const&, std::__ndk1::placeholders::__ph<2> const&>, std::__ndk1::allocator<std::__ndk1::__bind<void (DTLevelSpecificSettingsLayer::*)(int const&, cocos2d::CCNode*), DTLevelSpecificSettingsLayer*, std::__ndk1::placeholders::__ph<1> const&, std::__ndk1::placeholders::__ph<2> const&> >, void (int const&, cocos2d::CCNode*)>::destroy_deallocate()
FUNC ad94c 20 0 std::__ndk1::__function::__func<std::__ndk1::__bind<void (DTLevelSpecificSettingsLayer::*)(int const&, cocos2d::CCNode*), DTLevelSpecificSettingsLayer*, std::__ndk1::placeholders::__ph<1> const&, std::__ndk1::placeholders::__ph<2> const&>, std::__ndk1::allocator<std::__ndk1::__bind<void (DTLevelSpecificSettingsLayer::*)(int const&, cocos2d::CCNode*), DTLevelSpecificSettingsLayer*, std::__ndk1::placeholders::__ph<1> const&, std::__ndk1::placeholders::__ph<2> const&> >, void (int const&, cocos2d::CCNode*)>::operator()(int const&, cocos2d::CCNode*&&)
FUNC ad96c 1c 0 std::__ndk1::__function::__func<std::__ndk1::__bind<void (DTLevelSpecificSettingsLayer::*)(int const&, cocos2d::CCNode*), DTLevelSpecificSettingsLayer*, std::__ndk1::placeholders::__ph<1> const&, std::__ndk1::placeholders::__ph<2> const&>, std::__ndk1::allocator<std::__ndk1::__bind<void (DTLevelSpecificSettingsLayer::*)(int const&, cocos2d::CCNode*), DTLevelSpecificSettingsLayer*, std::__ndk1::placeholders::__ph<1> const&, std::__ndk1::placeholders::__ph<2> const&> >, void (int const&, cocos2d::CCNode*)>::target(std::type_info const&) const
FUNC ad988 c 0 std::__ndk1::__function::__func<std::__ndk1::__bind<void (DTLevelSpecificSettingsLayer::*)(int const&, cocos2d::CCNode*), DTLevelSpecificSettingsLayer*, std::__ndk1::placeholders::__ph<1> const&, std::__ndk1::placeholders::__ph<2> const&>, std::__ndk1::allocator<std::__ndk1::__bind<void (DTLevelSpecificSettingsLayer::*)(int const&, cocos2d::CCNode*), DTLevelSpecificSettingsLayer*, std::__ndk1::placeholders::__ph<1> const&, std::__ndk1::placeholders::__ph<2> const&> >, void (int const&, cocos2d::CCNode*)>::target_type() const
FUNC ad994 fc 0 std::__ndk1::__tree<std::__ndk1::__value_type<std::__ndk1::basic_string<char, std::__ndk1::char_traits<char>, std::__ndk1::allocator<char> >, int>, std::__ndk1::__map_value_compare<std::__ndk1::basic_string<char, std::__ndk1::char_traits<char>, std::__ndk1::allocator<char> >, std::__ndk1::__value_type<std::__ndk1::basic_string<char, std::__ndk1::char_traits<char>, std::__ndk1::allocator<char> >, int>, std::__ndk1::less<std::__ndk1::basic_string<char, std::__ndk1::char_traits<char>, std::__ndk1::allocator<char> > >, true>, std::__ndk1::allocator<std::__ndk1::__value_type<std::__ndk1::basic_string<char, std::__ndk1::char_traits<char>, std::__ndk1::allocator<char> >, int> > >::find<std::__ndk1::basic_string<char, std::__ndk1::char_traits<char>, std::__ndk1::allocator<char> > >(std::__ndk1::basic_string<char, std::__ndk1::char_traits<char>, std::__ndk1::allocator<char> > const&) const
FUNC ada90 190 0 std::__ndk1::__tree<std::__ndk1::__value_type<std::__ndk1::basic_string<char, std::__ndk1::char_traits<char>, std::__ndk1::allocator<char> >, int>, std::__ndk1::__map_value_compare<std::__ndk1::basic_string<char, std::__ndk1::char_traits<char>, std::__ndk1::allocator<char> >, std::__ndk1::__value_type<std::__ndk1::basic_string<char, std::__ndk1::char_traits<char>, std::__ndk1::allocator<char> >, int>, std::__ndk1::less<std::__ndk1::basic_string<char, std::__ndk1::char_traits<char>, std::__ndk1::allocator<char> > >, true>, std::__ndk1::allocator<std::__ndk1::__value_type<std::__ndk1::basic_string<char, std::__ndk1::char_traits<char>, std::__ndk1::allocator<char> >, int> > >::__erase_unique<std::__ndk1::basic_string<char, std::__ndk1::char_traits<char>, std::__ndk1::allocator<char> > >(std::__ndk1::basic_string<char, std::__ndk1::char_traits<char>, std::__ndk1::allocator<char> > const&)
FUNC adc20 1b0 0 DTLinkLayer::create(DTLayer* const&)
FUNC addd0 464 0 DTLinkLayer::setup(DTLayer* const&)
FUNC ae234 100 0 DTLinkLayer::onOverallInfo(cocos2d::CCObject*)
FUNC ae334 10 0 DTLinkLayer::levelsListMoveRight(cocos2d::CCObject*)
FUNC ae344 10 0 DTLinkLayer::levelsListMoveLeft(cocos2d::CCObject*)
FUNC ae354 f9c 0 DTLinkLayer::refreshLists()
FUNC af2f0 4b0 0 DTLinkLayer::SpacialEditList(GJListLayer* const&, cocos2d::CCPoint const&, float const&)
FUNC af7a0 688 0 DTLinkLayer::ChangeLevelLinked(std::__ndk1::basic_string<char, std::__ndk1::char_traits<char>, std::__ndk1::allocator<char> >, LevelStats_s, bool const&)
FUNC afe28 84 0 std::__ndk1::vector<std::__ndk1::pair<std::__ndk1::basic_string<char, std::__ndk1::char_traits<char>, std::__ndk1::allocator<char> >, LevelStats_s>, std::__ndk1::allocator<std::__ndk1::pair<std::__ndk1::basic_string<char, std::__ndk1::char_traits<char>, std::__ndk1::allocator<char> >, LevelStats_s> > >::~vector[abi:ne180000]()
FUNC afeac 234 0 DTLinkLayer::update(float)
FUNC b00e0 188 0 DTLinkLayer::textChanged(CCTextInputNode*)
FUNC b0268 8 0 {virtual override thunk({offset(-672)}, DTLinkLayer::textChanged(CCTextInputNode*))}
FUNC b0270 70 0 DTLinkLayer::onClose(cocos2d::CCObject*)
FUNC b02e0 11c 0 DTLinkLayer::~DTLinkLayer()
FUNC b03fc 24 0 DTLinkLayer::~DTLinkLayer()
FUNC b0420 8 0 {virtual override thunk({offset(-320)}, DTLinkLayer::~DTLinkLayer())}
FUNC b0428 28 0 {virtual override thunk({offset(-320)}, DTLinkLayer::~DTLinkLayer())}
FUNC b0450 100 0 std::__ndk1::__uninitialized_allocator_copy_impl[abi:ne180000]<std::__ndk1::allocator<std::__ndk1::pair<std::__ndk1::basic_string<char, std::__ndk1::char_traits<char>, std::__ndk1::__uninitialized_allocator_copy_impl[abi:ne180000]<char> >, LevelStats_s> >, LevelStats_s*, std::__ndk1::allocator<std::__ndk1::pair<std::__ndk1::basic_string<char, std::__ndk1::char_traits<char>, std::__ndk1::__uninitialized_allocator_copy_impl[abi:ne180000]<char> >, LevelStats_s> >, std::__ndk1::allocator<std::__ndk1::pair<std::__ndk1::basic_string<char, std::__ndk1::char_traits<char>, std::__ndk1::__uninitialized_allocator_copy_impl[abi:ne180000]<char> >, LevelStats_s> > >(std::__ndk1::allocator<std::__ndk1::pair<std::__ndk1::basic_string<char, std::__ndk1::char_traits<char>, std::__ndk1::__uninitialized_allocator_copy_impl[abi:ne180000]<char> >, LevelStats_s> >&, LevelStats_s*, std::__ndk1::allocator<std::__ndk1::pair<std::__ndk1::basic_string<char, std::__ndk1::char_traits<char>, std::__ndk1::__uninitialized_allocator_copy_impl[abi:ne180000]<char> >, LevelStats_s> >, LevelStats_s*)
FUNC b0550 70 0 std::__ndk1::__exception_guard_exceptions<std::__ndk1::_AllocatorDestroyRangeReverse<std::__ndk1::allocator<std::__ndk1::pair<std::__ndk1::basic_string<char, std::__ndk1::char_traits<char>, std::__ndk1::allocator<char> >, LevelStats_s> >, std::__ndk1::pair<std::__ndk1::basic_string<char, std::__ndk1::char_traits<char>, std::__ndk1::allocator<char> >, LevelStats_s>*> >::~__exception_guard_exceptions[abi:ne180000]()
FUNC b05c0 14 0 std::__ndk1::vector<std::__ndk1::pair<std::__ndk1::basic_string<char, std::__ndk1::char_traits<char>, std::__ndk1::allocator<char> >, LevelStats_s>, std::__ndk1::allocator<std::__ndk1::pair<std::__ndk1::basic_string<char, std::__ndk1::char_traits<char>, std::__ndk1::allocator<char> >, LevelStats_s> > >::__throw_length_error[abi:ne180000]() const
FUNC b05d4 74 0 std::__ndk1::__split_buffer<std::__ndk1::pair<std::__ndk1::basic_string<char, std::__ndk1::char_traits<char>, std::__ndk1::allocator<char> >, LevelStats_s>, std::__ndk1::allocator<std::__ndk1::pair<std::__ndk1::basic_string<char, std::__ndk1::char_traits<char>, std::__ndk1::allocator<char> >, LevelStats_s> >&>::~__split_buffer()
FUNC b0648 14c 0 std::__ndk1::pair<std::__ndk1::basic_string<char, std::__ndk1::char_traits<char>, std::__ndk1::allocator<char> >, LevelStats_s>::pair[abi:ne180000](std::__ndk1::pair<std::__ndk1::basic_string<char, std::__ndk1::char_traits<char>, std::__ndk1::allocator<char> >, LevelStats_s>&&)
FUNC b0794 a4 0 std::__ndk1::__exception_guard_exceptions<std::__ndk1::vector<std::__ndk1::pair<std::__ndk1::basic_string<char, std::__ndk1::char_traits<char>, std::__ndk1::allocator<char> >, LevelStats_s>, std::__ndk1::allocator<std::__ndk1::pair<std::__ndk1::basic_string<char, std::__ndk1::char_traits<char>, std::__ndk1::allocator<char> >, LevelStats_s> > >::__destroy_vector>::~__exception_guard_exceptions[abi:ne180000]()
FUNC b0838 468 0 std::__ndk1::__thread_proxy[abi:ne180000]<std::__ndk1::tuple<std::__ndk1::unique_ptr<std::__ndk1::__thread_struct, std::__ndk1::default_delete<std::__ndk1::unique_ptr> >, DTLinkLayer::setup(DTLayer* const&)::$_0> >(std::__ndk1::tuple<std::__ndk1::unique_ptr<std::__ndk1::__thread_struct, std::__ndk1::default_delete<std::__ndk1::unique_ptr> >, DTLinkLayer::setup(DTLayer* const&)::$_0>)
FUNC b0ca0 50 0 std::__ndk1::unique_ptr<std::__ndk1::tuple<std::__ndk1::unique_ptr<std::__ndk1::__thread_struct, std::__ndk1::default_delete<std::__ndk1::__thread_struct> >, DTLinkLayer::setup(DTLayer* const&)::$_0>, std::__ndk1::default_delete<std::__ndk1::tuple<std::__ndk1::unique_ptr<std::__ndk1::__thread_struct, std::__ndk1::default_delete<std::__ndk1::__thread_struct> >, DTLinkLayer::setup(DTLayer* const&)::$_0> > >::~unique_ptr[abi:ne180000]()
FUNC b0cf0 84 0 DTLinkLayer::setup(DTLayer* const&)::$_0::operator()() const::{lambda()#1}::~{lambda()#1}()
FUNC b0d74 74 0 geode::impl::ResultData<std::__ndk1::vector<std::__ndk1::pair<std::__ndk1::basic_string<char, std::__ndk1::char_traits<char>, std::__ndk1::allocator<char> >, LevelStats_s>, std::__ndk1::allocator<std::__ndk1::pair<std::__ndk1::basic_string<char, std::__ndk1::char_traits<char>, std::__ndk1::allocator<char> >, LevelStats_s> > >, std::__ndk1::basic_string<char, std::__ndk1::char_traits<char>, std::__ndk1::allocator<char> > >::~ResultData()
FUNC b0de8 90 0 std::__ndk1::__function::__func<DTLinkLayer::setup(DTLayer* const&)::$_0::operator()() const::{lambda()#1}, std::__ndk1::allocator<DTLinkLayer::setup(DTLayer* const&)::$_0::operator()() const::{lambda()#1}>, void ()>::~__func()
FUNC b0e78 88 0 std::__ndk1::__function::__func<DTLinkLayer::setup(DTLayer* const&)::$_0::operator()() const::{lambda()#1}, std::__ndk1::allocator<DTLinkLayer::setup(DTLayer* const&)::$_0::operator()() const::{lambda()#1}>, void ()>::~__func()
FUNC b0f00 150 0 std::__ndk1::__function::__func<DTLinkLayer::setup(DTLayer* const&)::$_0::operator()() const::{lambda()#1}, std::__ndk1::allocator<DTLinkLayer::setup(DTLayer* const&)::$_0::operator()() const::{lambda()#1}>, void ()>::__clone() const
FUNC b1050 140 0 std::__ndk1::__function::__func<DTLinkLayer::setup(DTLayer* const&)::$_0::operator()() const::{lambda()#1}, std::__ndk1::allocator<DTLinkLayer::setup(DTLayer* const&)::$_0::operator()() const::{lambda()#1}>, void ()>::__clone(std::__ndk1::__function::__base<void ()>*) const
FUNC b1190 84 0 std::__ndk1::__function::__func<DTLinkLayer::setup(DTLayer* const&)::$_0::operator()() const::{lambda()#1}, std::__ndk1::allocator<DTLinkLayer::setup(DTLayer* const&)::$_0::operator()() const::{lambda()#1}>, void ()>::destroy()
FUNC b1214 7c 0 std::__ndk1::__function::__func<DTLinkLayer::setup(DTLayer* const&)::$_0::operator()() const::{lambda()#1}, std::__ndk1::allocator<DTLinkLayer::setup(DTLayer* const&)::$_0::operator()() const::{lambda()#1}>, void ()>::destroy_deallocate()
FUNC b1290 3a0 0 std::__ndk1::__function::__func<DTLinkLayer::setup(DTLayer* const&)::$_0::operator()() const::{lambda()#1}, std::__ndk1::allocator<DTLinkLayer::setup(DTLayer* const&)::$_0::operator()() const::{lambda()#1}>, void ()>::operator()()
FUNC b1630 1c 0 std::__ndk1::__function::__func<DTLinkLayer::setup(DTLayer* const&)::$_0::operator()() const::{lambda()#1}, std::__ndk1::allocator<DTLinkLayer::setup(DTLayer* const&)::$_0::operator()() const::{lambda()#1}>, void ()>::target(std::type_info const&) const
FUNC b164c c 0 std::__ndk1::__function::__func<DTLinkLayer::setup(DTLayer* const&)::$_0::operator()() const::{lambda()#1}, std::__ndk1::allocator<DTLinkLayer::setup(DTLayer* const&)::$_0::operator()() const::{lambda()#1}>, void ()>::target_type() const
FUNC b1658 84 0 std::__ndk1::__variant_detail::__visitation::__base::__dispatcher<(unsigned long)0>::__dispatch[abi:ne180000]<std::__ndk1::__variant_detail::__dtor<std::__ndk1::__variant_detail::__traits<std::__ndk1::vector<std::__ndk1::pair<std::__ndk1::basic_string<char, std::__ndk1::char_traits<char>, std::__ndk1::allocator<char> >, LevelStats_s>, std::__ndk1::char_traits<char><LevelStats_s> >, std::__ndk1::allocator<char> >, (std::__ndk1::__variant_detail::_Trait)1>::__destroy[abi:ne180000]()::{lambda(auto:1&)#1}, std::__ndk1::__variant_detail::__base<(std::__ndk1::__variant_detail::__traits<std::__ndk1::vector<std::__ndk1::pair<std::__ndk1::basic_string<char, std::__ndk1::char_traits<char>, std::__ndk1::allocator<char> >, LevelStats_s>, std::__ndk1::char_traits<char><LevelStats_s> >, std::__ndk1::allocator<char> >)1, std::__ndk1::char_traits<char><LevelStats_s>, std::__ndk1::allocator<char> >&>(std::__ndk1::__variant_detail::__dtor<std::__ndk1::__variant_detail::__traits<std::__ndk1::vector<std::__ndk1::pair<std::__ndk1::basic_string<char, std::__ndk1::char_traits<char>, std::__ndk1::allocator<char> >, LevelStats_s>, std::__ndk1::char_traits<char><LevelStats_s> >, std::__ndk1::allocator<char> >, (std::__ndk1::__variant_detail::_Trait)1>, std::__ndk1::__variant_detail::__base<(std::__ndk1::__variant_detail::__traits<std::__ndk1::vector<std::__ndk1::pair<std::__ndk1::basic_string<char, std::__ndk1::char_traits<char>, std::__ndk1::allocator<char> >, LevelStats_s>, std::__ndk1::char_traits<char><LevelStats_s> >, std::__ndk1::allocator<char> >)1, std::__ndk1::char_traits<char><LevelStats_s>, std::__ndk1::allocator<char> >&)
FUNC b16dc 14 0 std::__ndk1::__variant_detail::__visitation::__base::__dispatcher<(unsigned long)1>::__dispatch[abi:ne180000]<std::__ndk1::__variant_detail::__dtor<std::__ndk1::__variant_detail::__traits<std::__ndk1::vector<std::__ndk1::pair<std::__ndk1::basic_string<char, std::__ndk1::char_traits<char>, std::__ndk1::allocator<char> >, LevelStats_s>, std::__ndk1::char_traits<char><LevelStats_s> >, std::__ndk1::allocator<char> >, (std::__ndk1::__variant_detail::_Trait)1>::__destroy[abi:ne180000]()::{lambda(auto:1&)#1}, std::__ndk1::__variant_detail::__base<(std::__ndk1::__variant_detail::__traits<std::__ndk1::vector<std::__ndk1::pair<std::__ndk1::basic_string<char, std::__ndk1::char_traits<char>, std::__ndk1::allocator<char> >, LevelStats_s>, std::__ndk1::char_traits<char><LevelStats_s> >, std::__ndk1::allocator<char> >)1, std::__ndk1::char_traits<char><LevelStats_s>, std::__ndk1::allocator<char> >&>(std::__ndk1::__variant_detail::__dtor<std::__ndk1::__variant_detail::__traits<std::__ndk1::vector<std::__ndk1::pair<std::__ndk1::basic_string<char, std::__ndk1::char_traits<char>, std::__ndk1::allocator<char> >, LevelStats_s>, std::__ndk1::char_traits<char><LevelStats_s> >, std::__ndk1::allocator<char> >, (std::__ndk1::__variant_detail::_Trait)1>, std::__ndk1::__variant_detail::__base<(std::__ndk1::__variant_detail::__traits<std::__ndk1::vector<std::__ndk1::pair<std::__ndk1::basic_string<char, std::__ndk1::char_traits<char>, std::__ndk1::allocator<char> >, LevelStats_s>, std::__ndk1::char_traits<char><LevelStats_s> >, std::__ndk1::allocator<char> >)1, std::__ndk1::char_traits<char><LevelStats_s>, std::__ndk1::allocator<char> >&)
FUNC b16f0 4 0 std::__ndk1::__function::__base<void (std::__ndk1::basic_string<char, std::__ndk1::char_traits<char>, std::__ndk1::allocator<char> >, LevelStats_s, bool const&)>::~__base()
FUNC b16f4 4 0 std::__ndk1::__function::__func<std::__ndk1::__bind<void (DTLinkLayer::*)(std::__ndk1::basic_string<char, std::__ndk1::char_traits<char>, std::__ndk1::allocator<char> >, LevelStats_s, bool const&), DTLinkLayer*, std::__ndk1::placeholders::__ph<1> const&, std::__ndk1::placeholders::__ph<2> const&, std::__ndk1::placeholders::__ph<3> const&>, std::__ndk1::allocator<std::__ndk1::__bind<void (DTLinkLayer::*)(std::__ndk1::basic_string<char, std::__ndk1::char_traits<char>, std::__ndk1::allocator<char> >, LevelStats_s, bool const&), DTLinkLayer*, std::__ndk1::placeholders::__ph<1> const&, std::__ndk1::placeholders::__ph<2> const&, std::__ndk1::placeholders::__ph<3> const&> >, void (std::__ndk1::basic_string<char, std::__ndk1::char_traits<char>, std::__ndk1::allocator<char> >, LevelStats_s, bool const&)>::~__func()
FUNC b16f8 40 0 std::__ndk1::__function::__func<std::__ndk1::__bind<void (DTLinkLayer::*)(std::__ndk1::basic_string<char, std::__ndk1::char_traits<char>, std::__ndk1::allocator<char> >, LevelStats_s, bool const&), DTLinkLayer*, std::__ndk1::placeholders::__ph<1> const&, std::__ndk1::placeholders::__ph<2> const&, std::__ndk1::placeholders::__ph<3> const&>, std::__ndk1::allocator<std::__ndk1::__bind<void (DTLinkLayer::*)(std::__ndk1::basic_string<char, std::__ndk1::char_traits<char>, std::__ndk1::allocator<char> >, LevelStats_s, bool const&), DTLinkLayer*, std::__ndk1::placeholders::__ph<1> const&, std::__ndk1::placeholders::__ph<2> const&, std::__ndk1::placeholders::__ph<3> const&> >, void (std::__ndk1::basic_string<char, std::__ndk1::char_traits<char>, std::__ndk1::allocator<char> >, LevelStats_s, bool const&)>::__clone() const
FUNC b1738 20 0 std::__ndk1::__function::__func<std::__ndk1::__bind<void (DTLinkLayer::*)(std::__ndk1::basic_string<char, std::__ndk1::char_traits<char>, std::__ndk1::allocator<char> >, LevelStats_s, bool const&), DTLinkLayer*, std::__ndk1::placeholders::__ph<1> const&, std::__ndk1::placeholders::__ph<2> const&, std::__ndk1::placeholders::__ph<3> const&>, std::__ndk1::allocator<std::__ndk1::__bind<void (DTLinkLayer::*)(std::__ndk1::basic_string<char, std::__ndk1::char_traits<char>, std::__ndk1::allocator<char> >, LevelStats_s, bool const&), DTLinkLayer*, std::__ndk1::placeholders::__ph<1> const&, std::__ndk1::placeholders::__ph<2> const&, std::__ndk1::placeholders::__ph<3> const&> >, void (std::__ndk1::basic_string<char, std::__ndk1::char_traits<char>, std::__ndk1::allocator<char> >, LevelStats_s, bool const&)>::__clone(std::__ndk1::__function::__base<void (std::__ndk1::basic_string<char, std::__ndk1::char_traits<char>, std::__ndk1::allocator<char> >, LevelStats_s, bool const&)>*) const
FUNC b1758 4 0 std::__ndk1::__function::__func<std::__ndk1::__bind<void (DTLinkLayer::*)(std::__ndk1::basic_string<char, std::__ndk1::char_traits<char>, std::__ndk1::allocator<char> >, LevelStats_s, bool const&), DTLinkLayer*, std::__ndk1::placeholders::__ph<1> const&, std::__ndk1::placeholders::__ph<2> const&, std::__ndk1::placeholders::__ph<3> const&>, std::__ndk1::allocator<std::__ndk1::__bind<void (DTLinkLayer::*)(std::__ndk1::basic_string<char, std::__ndk1::char_traits<char>, std::__ndk1::allocator<char> >, LevelStats_s, bool const&), DTLinkLayer*, std::__ndk1::placeholders::__ph<1> const&, std::__ndk1::placeholders::__ph<2> const&, std::__ndk1::placeholders::__ph<3> const&> >, void (std::__ndk1::basic_string<char, std::__ndk1::char_traits<char>, std::__ndk1::allocator<char> >, LevelStats_s, bool const&)>::destroy()
FUNC b175c 4 0 std::__ndk1::__function::__func<std::__ndk1::__bind<void (DTLinkLayer::*)(std::__ndk1::basic_string<char, std::__ndk1::char_traits<char>, std::__ndk1::allocator<char> >, LevelStats_s, bool const&), DTLinkLayer*, std::__ndk1::placeholders::__ph<1> const&, std::__ndk1::placeholders::__ph<2> const&, std::__ndk1::placeholders::__ph<3> const&>, std::__ndk1::allocator<std::__ndk1::__bind<void (DTLinkLayer::*)(std::__ndk1::basic_string<char, std::__ndk1::char_traits<char>, std::__ndk1::allocator<char> >, LevelStats_s, bool const&), DTLinkLayer*, std::__ndk1::placeholders::__ph<1> const&, std::__ndk1::placeholders::__ph<2> const&, std::__ndk1::placeholders::__ph<3> const&> >, void (std::__ndk1::basic_string<char, std::__ndk1::char_traits<char>, std::__ndk1::allocator<char> >, LevelStats_s, bool const&)>::destroy_deallocate()
FUNC b1760 1d8 0 std::__ndk1::__function::__func<std::__ndk1::__bind<void (DTLinkLayer::*)(std::__ndk1::basic_string<char, std::__ndk1::char_traits<char>, std::__ndk1::allocator<char> >, LevelStats_s, bool const&), DTLinkLayer*, std::__ndk1::placeholders::__ph<1> const&, std::__ndk1::placeholders::__ph<2> const&, std::__ndk1::placeholders::__ph<3> const&>, std::__ndk1::allocator<std::__ndk1::__bind<void (DTLinkLayer::*)(std::__ndk1::basic_string<char, std::__ndk1::char_traits<char>, std::__ndk1::allocator<char> >, LevelStats_s, bool const&), DTLinkLayer*, std::__ndk1::placeholders::__ph<1> const&, std::__ndk1::placeholders::__ph<2> const&, std::__ndk1::placeholders::__ph<3> const&> >, void (std::__ndk1::basic_string<char, std::__ndk1::char_traits<char>, std::__ndk1::allocator<char> >, LevelStats_s, bool const&)>::operator()(std::__ndk1::basic_string<char, std::__ndk1::char_traits<char>, std::__ndk1::allocator<char> >&&, LevelStats_s&&, bool const&)
FUNC b1938 1c 0 std::__ndk1::__function::__func<std::__ndk1::__bind<void (DTLinkLayer::*)(std::__ndk1::basic_string<char, std::__ndk1::char_traits<char>, std::__ndk1::allocator<char> >, LevelStats_s, bool const&), DTLinkLayer*, std::__ndk1::placeholders::__ph<1> const&, std::__ndk1::placeholders::__ph<2> const&, std::__ndk1::placeholders::__ph<3> const&>, std::__ndk1::allocator<std::__ndk1::__bind<void (DTLinkLayer::*)(std::__ndk1::basic_string<char, std::__ndk1::char_traits<char>, std::__ndk1::allocator<char> >, LevelStats_s, bool const&), DTLinkLayer*, std::__ndk1::placeholders::__ph<1> const&, std::__ndk1::placeholders::__ph<2> const&, std::__ndk1::placeholders::__ph<3> const&> >, void (std::__ndk1::basic_string<char, std::__ndk1::char_traits<char>, std::__ndk1::allocator<char> >, LevelStats_s, bool const&)>::target(std::type_info const&) const
FUNC b1954 c 0 std::__ndk1::__function::__func<std::__ndk1::__bind<void (DTLinkLayer::*)(std::__ndk1::basic_string<char, std::__ndk1::char_traits<char>, std::__ndk1::allocator<char> >, LevelStats_s, bool const&), DTLinkLayer*, std::__ndk1::placeholders::__ph<1> const&, std::__ndk1::placeholders::__ph<2> const&, std::__ndk1::placeholders::__ph<3> const&>, std::__ndk1::allocator<std::__ndk1::__bind<void (DTLinkLayer::*)(std::__ndk1::basic_string<char, std::__ndk1::char_traits<char>, std::__ndk1::allocator<char> >, LevelStats_s, bool const&), DTLinkLayer*, std::__ndk1::placeholders::__ph<1> const&, std::__ndk1::placeholders::__ph<2> const&, std::__ndk1::placeholders::__ph<3> const&> >, void (std::__ndk1::basic_string<char, std::__ndk1::char_traits<char>, std::__ndk1::allocator<char> >, LevelStats_s, bool const&)>::target_type() const
FUNC b1960 184 0 GraphPoint::init(std::__ndk1::basic_string<char, std::__ndk1::char_traits<char>, std::__ndk1::allocator<char> > const&, float const&, cocos2d::_ccColor3B const&)
FUNC b1ae4 88 0 GraphPoint::update(float)
FUNC b1b6c 48 0 GraphPoint::~GraphPoint()
FUNC b1bb4 4c 0 GraphPoint::~GraphPoint()
FUNC b1c00 4 0 cocos2d::CCNodeRGBA::setOpacityModifyRGB(bool)
FUNC b1c04 8 0 cocos2d::CCNodeRGBA::isOpacityModifyRGB()
FUNC b1c0c 4 0 {virtual override thunk({offset(-320)}, cocos2d::CCNodeRGBA::setOpacityModifyRGB(bool))}
FUNC b1c10 8 0 {virtual override thunk({offset(-320)}, cocos2d::CCNodeRGBA::isOpacityModifyRGB())}
FUNC b1c18 22c 0 LabelFontCell::init(int const&, std::__ndk1::basic_string<char, std::__ndk1::char_traits<char>, std::__ndk1::allocator<char> > const&, std::__ndk1::basic_string<char, std::__ndk1::char_traits<char>, std::__ndk1::allocator<char> > const&, std::__ndk1::function<void (int const&)> const&)
FUNC b1e44 20 0 LabelFontCell::Use(cocos2d::CCObject*)
FUNC b1e64 5c 0 LabelFontCell::~LabelFontCell()
FUNC b1ec0 64 0 LabelFontCell::~LabelFontCell()
FUNC b1f24 368 0 LabelLayoutWindow::init(LabelLayout const&, DTLayer* const&)
FUNC b228c e0 0 LabelLayout::operator=(LabelLayout const&)
FUNC b236c 4ec 0 LabelLayoutWindow::myUpdate(float)
FUNC b2858 ec 0 LabelLayoutWindow::mousePosToNode(cocos2d::CCNode* const&)
FUNC b2944 170 0 LabelLayoutWindow::isMouseTouching(cocos2d::CCNode* const&)
FUNC b2ab4 84 0 LabelLayoutWindow::updateLine(int const&)
FUNC b2b38 400 0 LabelLayoutWindow::setPositionBasedOnLayout(LabelLayout const&, int)
FUNC b2f38 88 0 LabelLayoutWindow::~LabelLayoutWindow()
FUNC b2fc0 90 0 LabelLayoutWindow::~LabelLayoutWindow()
FUNC b3050 190 0 LabelSettingsLayer::create(LabelLayoutWindow* const&, DTLayer* const&)
FUNC b31e0 2244 0 LabelSettingsLayer::setup(LabelLayoutWindow* const&, DTLayer* const&)
FUNC b5424 f0 0 LabelSettingsLayer::ConfirmDeletLabel(cocos2d::CCObject*)
FUNC b5514 16c 0 LabelSettingsLayer::OnInfo(cocos2d::CCObject*)
FUNC b5680 104 0 LabelSettingsLayer::updatePreviewText()
FUNC b5784 d4 0 LabelSettingsLayer::updatePreviewTextPosition()
FUNC b5858 1fc 0 LabelSettingsLayer::updateInputFields(std::__ndk1::basic_string<char, std::__ndk1::char_traits<char>, std::__ndk1::allocator<char> > const&)
FUNC b5a54 1c4 0 LabelSettingsLayer::onAlign(cocos2d::CCObject*)
FUNC b5c18 120 0 LabelSettingsLayer::OnFontSizeSliderChanged(cocos2d::CCObject*)
FUNC b5d38 4c 0 LabelSettingsLayer::OnColorClicked(cocos2d::CCObject*)
FUNC b5d84 44 0 std::__ndk1::pair<std::__ndk1::basic_string<char, std::__ndk1::char_traits<char>, std::__ndk1::allocator<char> > const, std::__ndk1::basic_string<char, std::__ndk1::char_traits<char>, std::__ndk1::allocator<char> > >::~pair()
FUNC b5dc8 1f8 0 LabelSettingsLayer::useSTK(std::__ndk1::basic_string<char, std::__ndk1::char_traits<char>, std::__ndk1::allocator<char> > const&)
FUNC b5fc0 298 0 LabelSettingsLayer::setFont(int const&)
FUNC b6258 3e4 0 LabelSettingsLayer::removeTextBestColoring()
FUNC b663c 88 0 LabelSettingsLayer::OnTransitionEnded(cocos2d::CCObject*)
FUNC b66c4 c4 0 LabelSettingsLayer::onClose(cocos2d::CCObject*)
FUNC b6788 20c 0 LabelSettingsLayer::playClosingAnimation(cocos2d::CCPoint const&)
FUNC b6994 148 0 geode::Popup<LabelLayoutWindow* const&, DTLayer* const&>::onClose(cocos2d::CCObject*)
FUNC b6adc ec 0 LabelSettingsLayer::updateColor(cocos2d::_ccColor4B const&)
FUNC b6bc8 f0 0 {virtual override thunk({offset(-672)}, LabelSettingsLayer::updateColor(cocos2d::_ccColor4B const&))}
FUNC b6cb8 14 0 LabelSettingsLayer::update(float)
FUNC b6ccc 18 0 LabelSettingsLayer::FLAlert_Clicked(FLAlertLayer*, bool)
FUNC b6ce4 1c8 0 LabelSettingsLayer::deleteLabel()
FUNC b6eac 1c 0 {virtual override thunk({offset(-680)}, LabelSettingsLayer::FLAlert_Clicked(FLAlertLayer*, bool))}
FUNC b6ec8 6c 0 geode::Popup<LabelLayoutWindow* const&, DTLayer* const&>::~Popup()
FUNC b6f34 74 0 LabelSettingsLayer::~LabelSettingsLayer()
FUNC b6fa8 2c 0 geode::Popup<LabelLayoutWindow* const&, DTLayer* const&>::registerWithTouchDispatcher()
FUNC b6fd4 28 0 geode::Popup<LabelLayoutWindow* const&, DTLayer* const&>::keyDown(cocos2d::enumKeyCodes)
FUNC b6ffc 6c 0 {virtual override thunk({offset(-320)}, LabelSettingsLayer::~LabelSettingsLayer())}
FUNC b7068 74 0 {virtual override thunk({offset(-320)}, LabelSettingsLayer::~LabelSettingsLayer())}
FUNC b70dc 2c 0 {virtual override thunk({offset(-344)}, geode::Popup<LabelLayoutWindow* const&, DTLayer* const&>::keyDown(cocos2d::enumKeyCodes))}
FUNC b7108 4 0 geode::Popup<LabelLayoutWindow* const&, DTLayer* const&>::~Popup()
FUNC b710c 6c 0 {virtual override thunk({offset(-320)}, geode::Popup<LabelLayoutWindow* const&, DTLayer* const&>::~Popup())}
FUNC b7178 4 0 {virtual override thunk({offset(-320)}, geode::Popup<LabelLayoutWindow* const&, DTLayer* const&>::~Popup())}
FUNC b717c 24 0 cocos2d::CCBool::~CCBool()
FUNC b71a0 18 0 cocos2d::CCBool::acceptVisitor(cocos2d::CCDataVisitor&)
FUNC b71b8 4 0 cocos2d::CCObject::update(float)
FUNC b71bc 304 0 geode::Popup<LabelLayoutWindow* const&, DTLayer* const&>::initBase(float, float, LabelLayoutWindow* const&, DTLayer* const&, char const*, cocos2d::CCRect, bool)
FUNC b74c0 4 0 std::__ndk1::__function::__func<LabelSettingsLayer::setup(LabelLayoutWindow* const&, DTLayer* const&)::$_0, std::__ndk1::allocator<LabelSettingsLayer::setup(LabelLayoutWindow* const&, DTLayer* const&)::$_0>, void (std::__ndk1::basic_string<char, std::__ndk1::char_traits<char>, std::__ndk1::allocator<char> > const&)>::~__func()
FUNC b74c4 34 0 std::__ndk1::__function::__func<LabelSettingsLayer::setup(LabelLayoutWindow* const&, DTLayer* const&)::$_0, std::__ndk1::allocator<LabelSettingsLayer::setup(LabelLayoutWindow* const&, DTLayer* const&)::$_0>, void (std::__ndk1::basic_string<char, std::__ndk1::char_traits<char>, std::__ndk1::allocator<char> > const&)>::__clone() const
FUNC b74f8 14 0 std::__ndk1::__function::__func<LabelSettingsLayer::setup(LabelLayoutWindow* const&, DTLayer* const&)::$_0, std::__ndk1::allocator<LabelSettingsLayer::setup(LabelLayoutWindow* const&, DTLayer* const&)::$_0>, void (std::__ndk1::basic_string<char, std::__ndk1::char_traits<char>, std::__ndk1::allocator<char> > const&)>::__clone(std::__ndk1::__function::__base<void (std::__ndk1::basic_string<char, std::__ndk1::char_traits<char>, std::__ndk1::allocator<char> > const&)>*) const
FUNC b750c 4 0 std::__ndk1::__function::__func<LabelSettingsLayer::setup(LabelLayoutWindow* const&, DTLayer* const&)::$_0, std::__ndk1::allocator<LabelSettingsLayer::setup(LabelLayoutWindow* const&, DTLayer* const&)::$_0>, void (std::__ndk1::basic_string<char, std::__ndk1::char_traits<char>, std::__ndk1::allocator<char> > const&)>::destroy()
FUNC b7510 4 0 std::__ndk1::__function::__func<LabelSettingsLayer::setup(LabelLayoutWindow* const&, DTLayer* const&)::$_0, std::__ndk1::allocator<LabelSettingsLayer::setup(LabelLayoutWindow* const&, DTLayer* const&)::$_0>, void (std::__ndk1::basic_string<char, std::__ndk1::char_traits<char>, std::__ndk1::allocator<char> > const&)>::destroy_deallocate()
FUNC b7514 7c 0 std::__ndk1::__function::__func<LabelSettingsLayer::setup(LabelLayoutWindow* const&, DTLayer* const&)::$_0, std::__ndk1::allocator<LabelSettingsLayer::setup(LabelLayoutWindow* const&, DTLayer* const&)::$_0>, void (std::__ndk1::basic_string<char, std::__ndk1::char_traits<char>, std::__ndk1::allocator<char> > const&)>::operator()(std::__ndk1::basic_string<char, std::__ndk1::char_traits<char>, std::__ndk1::allocator<char> > const&)
FUNC b7590 1c 0 std::__ndk1::__function::__func<LabelSettingsLayer::setup(LabelLayoutWindow* const&, DTLayer* const&)::$_0, std::__ndk1::allocator<LabelSettingsLayer::setup(LabelLayoutWindow* const&, DTLayer* const&)::$_0>, void (std::__ndk1::basic_string<char, std::__ndk1::char_traits<char>, std::__ndk1::allocator<char> > const&)>::target(std::type_info const&) const
FUNC b75ac c 0 std::__ndk1::__function::__func<LabelSettingsLayer::setup(LabelLayoutWindow* const&, DTLayer* const&)::$_0, std::__ndk1::allocator<LabelSettingsLayer::setup(LabelLayoutWindow* const&, DTLayer* const&)::$_0>, void (std::__ndk1::basic_string<char, std::__ndk1::char_traits<char>, std::__ndk1::allocator<char> > const&)>::target_type() const
FUNC b75b8 4 0 std::__ndk1::__function::__func<LabelSettingsLayer::setup(LabelLayoutWindow* const&, DTLayer* const&)::$_1, std::__ndk1::allocator<LabelSettingsLayer::setup(LabelLayoutWindow* const&, DTLayer* const&)::$_1>, void (std::__ndk1::basic_string<char, std::__ndk1::char_traits<char>, std::__ndk1::allocator<char> > const&)>::~__func()
FUNC b75bc 34 0 std::__ndk1::__function::__func<LabelSettingsLayer::setup(LabelLayoutWindow* const&, DTLayer* const&)::$_1, std::__ndk1::allocator<LabelSettingsLayer::setup(LabelLayoutWindow* const&, DTLayer* const&)::$_1>, void (std::__ndk1::basic_string<char, std::__ndk1::char_traits<char>, std::__ndk1::allocator<char> > const&)>::__clone() const
FUNC b75f0 14 0 std::__ndk1::__function::__func<LabelSettingsLayer::setup(LabelLayoutWindow* const&, DTLayer* const&)::$_1, std::__ndk1::allocator<LabelSettingsLayer::setup(LabelLayoutWindow* const&, DTLayer* const&)::$_1>, void (std::__ndk1::basic_string<char, std::__ndk1::char_traits<char>, std::__ndk1::allocator<char> > const&)>::__clone(std::__ndk1::__function::__base<void (std::__ndk1::basic_string<char, std::__ndk1::char_traits<char>, std::__ndk1::allocator<char> > const&)>*) const
FUNC b7604 4 0 std::__ndk1::__function::__func<LabelSettingsLayer::setup(LabelLayoutWindow* const&, DTLayer* const&)::$_1, std::__ndk1::allocator<LabelSettingsLayer::setup(LabelLayoutWindow* const&, DTLayer* const&)::$_1>, void (std::__ndk1::basic_string<char, std::__ndk1::char_traits<char>, std::__ndk1::allocator<char> > const&)>::destroy()
FUNC b7608 4 0 std::__ndk1::__function::__func<LabelSettingsLayer::setup(LabelLayoutWindow* const&, DTLayer* const&)::$_1, std::__ndk1::allocator<LabelSettingsLayer::setup(LabelLayoutWindow* const&, DTLayer* const&)::$_1>, void (std::__ndk1::basic_string<char, std::__ndk1::char_traits<char>, std::__ndk1::allocator<char> > const&)>::destroy_deallocate()
FUNC b760c 30c 0 std::__ndk1::__function::__func<LabelSettingsLayer::setup(LabelLayoutWindow* const&, DTLayer* const&)::$_1, std::__ndk1::allocator<LabelSettingsLayer::setup(LabelLayoutWindow* const&, DTLayer* const&)::$_1>, void (std::__ndk1::basic_string<char, std::__ndk1::char_traits<char>, std::__ndk1::allocator<char> > const&)>::operator()(std::__ndk1::basic_string<char, std::__ndk1::char_traits<char>, std::__ndk1::allocator<char> > const&)
FUNC b7918 1c 0 std::__ndk1::__function::__func<LabelSettingsLayer::setup(LabelLayoutWindow* const&, DTLayer* const&)::$_1, std::__ndk1::allocator<LabelSettingsLayer::setup(LabelLayoutWindow* const&, DTLayer* const&)::$_1>, void (std::__ndk1::basic_string<char, std::__ndk1::char_traits<char>, std::__ndk1::allocator<char> > const&)>::target(std::type_info const&) const
FUNC b7934 c 0 std::__ndk1::__function::__func<LabelSettingsLayer::setup(LabelLayoutWindow* const&, DTLayer* const&)::$_1, std::__ndk1::allocator<LabelSettingsLayer::setup(LabelLayoutWindow* const&, DTLayer* const&)::$_1>, void (std::__ndk1::basic_string<char, std::__ndk1::char_traits<char>, std::__ndk1::allocator<char> > const&)>::target_type() const
FUNC b7940 5c 0 std::__ndk1::unique_ptr<std::__ndk1::__tree_node<std::__ndk1::__value_type<std::__ndk1::basic_string<char, std::__ndk1::char_traits<char>, std::__ndk1::allocator<char> >, std::__ndk1::basic_string<char, std::__ndk1::char_traits<char>, std::__ndk1::allocator<char> > >, void*>, std::__ndk1::__tree_node_destructor<std::__ndk1::allocator<std::__ndk1::__tree_node<std::__ndk1::__value_type<std::__ndk1::basic_string<char, std::__ndk1::char_traits<char>, std::__ndk1::allocator<char> >, std::__ndk1::basic_string<char, std::__ndk1::char_traits<char>, std::__ndk1::allocator<char> > >, void*> > > >::~unique_ptr[abi:ne180000]()
FUNC b799c 58 0 std::__ndk1::__tree<std::__ndk1::__value_type<std::__ndk1::basic_string<char, std::__ndk1::char_traits<char>, std::__ndk1::allocator<char> >, std::__ndk1::basic_string<char, std::__ndk1::char_traits<char>, std::__ndk1::allocator<char> > >, std::__ndk1::__map_value_compare<std::__ndk1::basic_string<char, std::__ndk1::char_traits<char>, std::__ndk1::allocator<char> >, std::__ndk1::__value_type<std::__ndk1::basic_string<char, std::__ndk1::char_traits<char>, std::__ndk1::allocator<char> >, std::__ndk1::basic_string<char, std::__ndk1::char_traits<char>, std::__ndk1::allocator<char> > >, std::__ndk1::less<std::__ndk1::basic_string<char, std::__ndk1::char_traits<char>, std::__ndk1::allocator<char> > >, true>, std::__ndk1::allocator<std::__ndk1::__value_type<std::__ndk1::basic_string<char, std::__ndk1::char_traits<char>, std::__ndk1::allocator<char> >, std::__ndk1::basic_string<char, std::__ndk1::char_traits<char>, std::__ndk1::allocator<char> > > > >::destroy(std::__ndk1::__tree_node<std::__ndk1::__value_type<std::__ndk1::basic_string<char, std::__ndk1::char_traits<char>, std::__ndk1::allocator<char> >, std::__ndk1::basic_string<char, std::__ndk1::char_traits<char>, std::__ndk1::allocator<char> > >, void*>*)
FUNC b79f4 4 0 std::__ndk1::__function::__func<std::__ndk1::__bind<void (LabelSettingsLayer::*)(std::__ndk1::basic_string<char, std::__ndk1::char_traits<char>, std::__ndk1::allocator<char> > const&), LabelSettingsLayer*, std::__ndk1::placeholders::__ph<1> const&>, std::__ndk1::allocator<std::__ndk1::__bind<void (LabelSettingsLayer::*)(std::__ndk1::basic_string<char, std::__ndk1::char_traits<char>, std::__ndk1::allocator<char> > const&), LabelSettingsLayer*, std::__ndk1::placeholders::__ph<1> const&> >, void (std::__ndk1::basic_string<char, std::__ndk1::char_traits<char>, std::__ndk1::allocator<char> > const&)>::~__func()
FUNC b79f8 40 0 std::__ndk1::__function::__func<std::__ndk1::__bind<void (LabelSettingsLayer::*)(std::__ndk1::basic_string<char, std::__ndk1::char_traits<char>, std::__ndk1::allocator<char> > const&), LabelSettingsLayer*, std::__ndk1::placeholders::__ph<1> const&>, std::__ndk1::allocator<std::__ndk1::__bind<void (LabelSettingsLayer::*)(std::__ndk1::basic_string<char, std::__ndk1::char_traits<char>, std::__ndk1::allocator<char> > const&), LabelSettingsLayer*, std::__ndk1::placeholders::__ph<1> const&> >, void (std::__ndk1::basic_string<char, std::__ndk1::char_traits<char>, std::__ndk1::allocator<char> > const&)>::__clone() const
FUNC b7a38 20 0 std::__ndk1::__function::__func<std::__ndk1::__bind<void (LabelSettingsLayer::*)(std::__ndk1::basic_string<char, std::__ndk1::char_traits<char>, std::__ndk1::allocator<char> > const&), LabelSettingsLayer*, std::__ndk1::placeholders::__ph<1> const&>, std::__ndk1::allocator<std::__ndk1::__bind<void (LabelSettingsLayer::*)(std::__ndk1::basic_string<char, std::__ndk1::char_traits<char>, std::__ndk1::allocator<char> > const&), LabelSettingsLayer*, std::__ndk1::placeholders::__ph<1> const&> >, void (std::__ndk1::basic_string<char, std::__ndk1::char_traits<char>, std::__ndk1::allocator<char> > const&)>::__clone(std::__ndk1::__function::__base<void (std::__ndk1::basic_string<char, std::__ndk1::char_traits<char>, std::__ndk1::allocator<char> > const&)>*) const
FUNC b7a58 4 0 std::__ndk1::__function::__func<std::__ndk1::__bind<void (LabelSettingsLayer::*)(std::__ndk1::basic_string<char, std::__ndk1::char_traits<char>, std::__ndk1::allocator<char> > const&), LabelSettingsLayer*, std::__ndk1::placeholders::__ph<1> const&>, std::__ndk1::allocator<std::__ndk1::__bind<void (LabelSettingsLayer::*)(std::__ndk1::basic_string<char, std::__ndk1::char_traits<char>, std::__ndk1::allocator<char> > const&), LabelSettingsLayer*, std::__ndk1::placeholders::__ph<1> const&> >, void (std::__ndk1::basic_string<char, std::__ndk1::char_traits<char>, std::__ndk1::allocator<char> > const&)>::destroy()
FUNC b7a5c 4 0 std::__ndk1::__function::__func<std::__ndk1::__bind<void (LabelSettingsLayer::*)(std::__ndk1::basic_string<char, std::__ndk1::char_traits<char>, std::__ndk1::allocator<char> > const&), LabelSettingsLayer*, std::__ndk1::placeholders::__ph<1> const&>, std::__ndk1::allocator<std::__ndk1::__bind<void (LabelSettingsLayer::*)(std::__ndk1::basic_string<char, std::__ndk1::char_traits<char>, std::__ndk1::allocator<char> > const&), LabelSettingsLayer*, std::__ndk1::placeholders::__ph<1> const&> >, void (std::__ndk1::basic_string<char, std::__ndk1::char_traits<char>, std::__ndk1::allocator<char> > const&)>::destroy_deallocate()
FUNC b7a60 1c 0 std::__ndk1::__function::__func<std::__ndk1::__bind<void (LabelSettingsLayer::*)(std::__ndk1::basic_string<char, std::__ndk1::char_traits<char>, std::__ndk1::allocator<char> > const&), LabelSettingsLayer*, std::__ndk1::placeholders::__ph<1> const&>, std::__ndk1::allocator<std::__ndk1::__bind<void (LabelSettingsLayer::*)(std::__ndk1::basic_string<char, std::__ndk1::char_traits<char>, std::__ndk1::allocator<char> > const&), LabelSettingsLayer*, std::__ndk1::placeholders::__ph<1> const&> >, void (std::__ndk1::basic_string<char, std::__ndk1::char_traits<char>, std::__ndk1::allocator<char> > const&)>::operator()(std::__ndk1::basic_string<char, std::__ndk1::char_traits<char>, std::__ndk1::allocator<char> > const&)
FUNC b7a7c 1c 0 std::__ndk1::__function::__func<std::__ndk1::__bind<void (LabelSettingsLayer::*)(std::__ndk1::basic_string<char, std::__ndk1::char_traits<char>, std::__ndk1::allocator<char> > const&), LabelSettingsLayer*, std::__ndk1::placeholders::__ph<1> const&>, std::__ndk1::allocator<std::__ndk1::__bind<void (LabelSettingsLayer::*)(std::__ndk1::basic_string<char, std::__ndk1::char_traits<char>, std::__ndk1::allocator<char> > const&), LabelSettingsLayer*, std::__ndk1::placeholders::__ph<1> const&> >, void (std::__ndk1::basic_string<char, std::__ndk1::char_traits<char>, std::__ndk1::allocator<char> > const&)>::target(std::type_info const&) const
FUNC b7a98 c 0 std::__ndk1::__function::__func<std::__ndk1::__bind<void (LabelSettingsLayer::*)(std::__ndk1::basic_string<char, std::__ndk1::char_traits<char>, std::__ndk1::allocator<char> > const&), LabelSettingsLayer*, std::__ndk1::placeholders::__ph<1> const&>, std::__ndk1::allocator<std::__ndk1::__bind<void (LabelSettingsLayer::*)(std::__ndk1::basic_string<char, std::__ndk1::char_traits<char>, std::__ndk1::allocator<char> > const&), LabelSettingsLayer*, std::__ndk1::placeholders::__ph<1> const&> >, void (std::__ndk1::basic_string<char, std::__ndk1::char_traits<char>, std::__ndk1::allocator<char> > const&)>::target_type() const
FUNC b7aa4 4 0 std::__ndk1::__function::__func<std::__ndk1::__bind<void (LabelSettingsLayer::*)(int const&), LabelSettingsLayer*, std::__ndk1::placeholders::__ph<1> const&>, std::__ndk1::allocator<std::__ndk1::__bind<void (LabelSettingsLayer::*)(int const&), LabelSettingsLayer*, std::__ndk1::placeholders::__ph<1> const&> >, void (int const&)>::~__func()
FUNC b7aa8 40 0 std::__ndk1::__function::__func<std::__ndk1::__bind<void (LabelSettingsLayer::*)(int const&), LabelSettingsLayer*, std::__ndk1::placeholders::__ph<1> const&>, std::__ndk1::allocator<std::__ndk1::__bind<void (LabelSettingsLayer::*)(int const&), LabelSettingsLayer*, std::__ndk1::placeholders::__ph<1> const&> >, void (int const&)>::__clone() const
FUNC b7ae8 20 0 std::__ndk1::__function::__func<std::__ndk1::__bind<void (LabelSettingsLayer::*)(int const&), LabelSettingsLayer*, std::__ndk1::placeholders::__ph<1> const&>, std::__ndk1::allocator<std::__ndk1::__bind<void (LabelSettingsLayer::*)(int const&), LabelSettingsLayer*, std::__ndk1::placeholders::__ph<1> const&> >, void (int const&)>::__clone(std::__ndk1::__function::__base<void (int const&)>*) const
FUNC b7b08 4 0 std::__ndk1::__function::__func<std::__ndk1::__bind<void (LabelSettingsLayer::*)(int const&), LabelSettingsLayer*, std::__ndk1::placeholders::__ph<1> const&>, std::__ndk1::allocator<std::__ndk1::__bind<void (LabelSettingsLayer::*)(int const&), LabelSettingsLayer*, std::__ndk1::placeholders::__ph<1> const&> >, void (int const&)>::destroy()
FUNC b7b0c 4 0 std::__ndk1::__function::__func<std::__ndk1::__bind<void (LabelSettingsLayer::*)(int const&), LabelSettingsLayer*, std::__ndk1::placeholders::__ph<1> const&>, std::__ndk1::allocator<std::__ndk1::__bind<void (LabelSettingsLayer::*)(int const&), LabelSettingsLayer*, std::__ndk1::placeholders::__ph<1> const&> >, void (int const&)>::destroy_deallocate()
FUNC b7b10 1c 0 std::__ndk1::__function::__func<std::__ndk1::__bind<void (LabelSettingsLayer::*)(int const&), LabelSettingsLayer*, std::__ndk1::placeholders::__ph<1> const&>, std::__ndk1::allocator<std::__ndk1::__bind<void (LabelSettingsLayer::*)(int const&), LabelSettingsLayer*, std::__ndk1::placeholders::__ph<1> const&> >, void (int const&)>::operator()(int const&)
FUNC b7b2c 1c 0 std::__ndk1::__function::__func<std::__ndk1::__bind<void (LabelSettingsLayer::*)(int const&), LabelSettingsLayer*, std::__ndk1::placeholders::__ph<1> const&>, std::__ndk1::allocator<std::__ndk1::__bind<void (LabelSettingsLayer::*)(int const&), LabelSettingsLayer*, std::__ndk1::placeholders::__ph<1> const&> >, void (int const&)>::target(std::type_info const&) const
FUNC b7b48 c 0 std::__ndk1::__function::__func<std::__ndk1::__bind<void (LabelSettingsLayer::*)(int const&), LabelSettingsLayer*, std::__ndk1::placeholders::__ph<1> const&>, std::__ndk1::allocator<std::__ndk1::__bind<void (LabelSettingsLayer::*)(int const&), LabelSettingsLayer*, std::__ndk1::placeholders::__ph<1> const&> >, void (int const&)>::target_type() const
FUNC b7b54 50 0 geode::Popup<LabelLayoutWindow* const&, DTLayer* const&>::CloseEvent::~CloseEvent()
FUNC b7ba4 58 0 geode::Popup<LabelLayoutWindow* const&, DTLayer* const&>::CloseEvent::~CloseEvent()
FUNC b7bfc 10 0 std::__ndk1::__shared_ptr_emplace<geode::Popup<LabelLayoutWindow* const&, DTLayer* const&>::CloseEvent::Impl, std::__ndk1::allocator<geode::Popup<LabelLayoutWindow* const&, DTLayer* const&>::CloseEvent::Impl> >::~__shared_ptr_emplace()
FUNC b7c0c 30 0 std::__ndk1::__shared_ptr_emplace<geode::Popup<LabelLayoutWindow* const&, DTLayer* const&>::CloseEvent::Impl, std::__ndk1::allocator<geode::Popup<LabelLayoutWindow* const&, DTLayer* const&>::CloseEvent::Impl> >::~__shared_ptr_emplace()
FUNC b7c3c 4 0 std::__ndk1::__shared_ptr_emplace<geode::Popup<LabelLayoutWindow* const&, DTLayer* const&>::CloseEvent::Impl, std::__ndk1::allocator<geode::Popup<LabelLayoutWindow* const&, DTLayer* const&>::CloseEvent::Impl> >::__on_zero_shared()
FUNC b7c40 4 0 std::__ndk1::__shared_ptr_emplace<geode::Popup<LabelLayoutWindow* const&, DTLayer* const&>::CloseEvent::Impl, std::__ndk1::allocator<geode::Popup<LabelLayoutWindow* const&, DTLayer* const&>::CloseEvent::Impl> >::__on_zero_shared_weak()
FUNC b7c44 4 0 std::__ndk1::__function::__base<void (std::__ndk1::basic_string<char, std::__ndk1::char_traits<char>, std::__ndk1::allocator<char> > const&)>::~__base()
FUNC b7c48 4 0 std::__ndk1::__function::__func<LabelSettingsLayer::updateInputFields(std::__ndk1::basic_string<char, std::__ndk1::char_traits<char>, std::__ndk1::allocator<char> > const&)::$_0, std::__ndk1::allocator<LabelSettingsLayer::updateInputFields(std::__ndk1::basic_string<char, std::__ndk1::char_traits<char>, std::__ndk1::allocator<char> > const&)::$_0>, void (std::__ndk1::basic_string<char, std::__ndk1::char_traits<char>, std::__ndk1::allocator<char> > const&)>::~__func()
FUNC b7c4c 34 0 std::__ndk1::__function::__func<LabelSettingsLayer::updateInputFields(std::__ndk1::basic_string<char, std::__ndk1::char_traits<char>, std::__ndk1::allocator<char> > const&)::$_0, std::__ndk1::allocator<LabelSettingsLayer::updateInputFields(std::__ndk1::basic_string<char, std::__ndk1::char_traits<char>, std::__ndk1::allocator<char> > const&)::$_0>, void (std::__ndk1::basic_string<char, std::__ndk1::char_traits<char>, std::__ndk1::allocator<char> > const&)>::__clone() const
FUNC b7c80 14 0 std::__ndk1::__function::__func<LabelSettingsLayer::updateInputFields(std::__ndk1::basic_string<char, std::__ndk1::char_traits<char>, std::__ndk1::allocator<char> > const&)::$_0, std::__ndk1::allocator<LabelSettingsLayer::updateInputFields(std::__ndk1::basic_string<char, std::__ndk1::char_traits<char>, std::__ndk1::allocator<char> > const&)::$_0>, void (std::__ndk1::basic_string<char, std::__ndk1::char_traits<char>, std::__ndk1::allocator<char> > const&)>::__clone(std::__ndk1::__function::__base<void (std::__ndk1::basic_string<char, std::__ndk1::char_traits<char>, std::__ndk1::allocator<char> > const&)>*) const
FUNC b7c94 4 0 std::__ndk1::__function::__func<LabelSettingsLayer::updateInputFields(std::__ndk1::basic_string<char, std::__ndk1::char_traits<char>, std::__ndk1::allocator<char> > const&)::$_0, std::__ndk1::allocator<LabelSettingsLayer::updateInputFields(std::__ndk1::basic_string<char, std::__ndk1::char_traits<char>, std::__ndk1::allocator<char> > const&)::$_0>, void (std::__ndk1::basic_string<char, std::__ndk1::char_traits<char>, std::__ndk1::allocator<char> > const&)>::destroy()
FUNC b7c98 4 0 std::__ndk1::__function::__func<LabelSettingsLayer::updateInputFields(std::__ndk1::basic_string<char, std::__ndk1::char_traits<char>, std::__ndk1::allocator<char> > const&)::$_0, std::__ndk1::allocator<LabelSettingsLayer::updateInputFields(std::__ndk1::basic_string<char, std::__ndk1::char_traits<char>, std::__ndk1::allocator<char> > const&)::$_0>, void (std::__ndk1::basic_string<char, std::__ndk1::char_traits<char>, std::__ndk1::allocator<char> > const&)>::destroy_deallocate()
FUNC b7c9c 90 0 std::__ndk1::__function::__func<LabelSettingsLayer::updateInputFields(std::__ndk1::basic_string<char, std::__ndk1::char_traits<char>, std::__ndk1::allocator<char> > const&)::$_0, std::__ndk1::allocator<LabelSettingsLayer::updateInputFields(std::__ndk1::basic_string<char, std::__ndk1::char_traits<char>, std::__ndk1::allocator<char> > const&)::$_0>, void (std::__ndk1::basic_string<char, std::__ndk1::char_traits<char>, std::__ndk1::allocator<char> > const&)>::operator()(std::__ndk1::basic_string<char, std::__ndk1::char_traits<char>, std::__ndk1::allocator<char> > const&)
FUNC b7d2c 1c 0 std::__ndk1::__function::__func<LabelSettingsLayer::updateInputFields(std::__ndk1::basic_string<char, std::__ndk1::char_traits<char>, std::__ndk1::allocator<char> > const&)::$_0, std::__ndk1::allocator<LabelSettingsLayer::updateInputFields(std::__ndk1::basic_string<char, std::__ndk1::char_traits<char>, std::__ndk1::allocator<char> > const&)::$_0>, void (std::__ndk1::basic_string<char, std::__ndk1::char_traits<char>, std::__ndk1::allocator<char> > const&)>::target(std::type_info const&) const
FUNC b7d48 c 0 std::__ndk1::__function::__func<LabelSettingsLayer::updateInputFields(std::__ndk1::basic_string<char, std::__ndk1::char_traits<char>, std::__ndk1::allocator<char> > const&)::$_0, std::__ndk1::allocator<LabelSettingsLayer::updateInputFields(std::__ndk1::basic_string<char, std::__ndk1::char_traits<char>, std::__ndk1::allocator<char> > const&)::$_0>, void (std::__ndk1::basic_string<char, std::__ndk1::char_traits<char>, std::__ndk1::allocator<char> > const&)>::target_type() const
FUNC b7d54 118 0 LinkLevelCell::LinkLevelCell()
FUNC b7e6c a00 0 LinkLevelCell::init(float const&, std::__ndk1::basic_string<char, std::__ndk1::char_traits<char>, std::__ndk1::allocator<char> > const&, LevelStats_s const&, bool const&, std::__ndk1::function<void (std::__ndk1::basic_string<char, std::__ndk1::char_traits<char>, std::__ndk1::allocator<char> >, LevelStats_s, bool const&)> const&)
FUNC b886c 108 0 LinkLevelCell::MoveMe(cocos2d::CCObject*)
FUNC b8974 44 0 std::__ndk1::pair<std::__ndk1::basic_string<char, std::__ndk1::char_traits<char>, std::__ndk1::allocator<char> >, std::__ndk1::basic_string<char, std::__ndk1::char_traits<char>, std::__ndk1::allocator<char> > >::~pair()
FUNC b89b8 74 0 LinkLevelCell::~LinkLevelCell()
FUNC b8a2c 7c 0 LinkLevelCell::~LinkLevelCell()
FUNC b8aa8 338 0 RunAllowedCell::init(int const&, float const&, std::__ndk1::function<void (int const&, cocos2d::CCNode*)> const&)
FUNC b8de0 6c 0 RunAllowedCell::DeleteMe(cocos2d::CCObject*)
FUNC b8e4c 88 0 RunAllowedCell::~RunAllowedCell()
FUNC b8ed4 90 0 RunAllowedCell::~RunAllowedCell()
FUNC b8f64 44 0 std::__ndk1::__function::__func<std::__ndk1::function<void (int const&, cocos2d::CCNode*)>, std::__ndk1::allocator<std::__ndk1::function<void (int const&, cocos2d::CCNode*)> >, void (int, cocos2d::CCNode*)>::~__func()
FUNC b8fa8 5c 0 std::__ndk1::__function::__func<std::__ndk1::function<void (int const&, cocos2d::CCNode*)>, std::__ndk1::allocator<std::__ndk1::function<void (int const&, cocos2d::CCNode*)> >, void (int, cocos2d::CCNode*)>::~__func()
FUNC b9004 88 0 std::__ndk1::__function::__func<std::__ndk1::function<void (int const&, cocos2d::CCNode*)>, std::__ndk1::allocator<std::__ndk1::function<void (int const&, cocos2d::CCNode*)> >, void (int, cocos2d::CCNode*)>::__clone() const
FUNC b908c 74 0 std::__ndk1::__function::__func<std::__ndk1::function<void (int const&, cocos2d::CCNode*)>, std::__ndk1::allocator<std::__ndk1::function<void (int const&, cocos2d::CCNode*)> >, void (int, cocos2d::CCNode*)>::__clone(std::__ndk1::__function::__base<void (int, cocos2d::CCNode*)>*) const
FUNC b9100 38 0 std::__ndk1::__function::__func<std::__ndk1::function<void (int const&, cocos2d::CCNode*)>, std::__ndk1::allocator<std::__ndk1::function<void (int const&, cocos2d::CCNode*)> >, void (int, cocos2d::CCNode*)>::destroy()
FUNC b9138 50 0 std::__ndk1::__function::__func<std::__ndk1::function<void (int const&, cocos2d::CCNode*)>, std::__ndk1::allocator<std::__ndk1::function<void (int const&, cocos2d::CCNode*)> >, void (int, cocos2d::CCNode*)>::destroy_deallocate()
FUNC b9188 74 0 std::__ndk1::__function::__func<std::__ndk1::function<void (int const&, cocos2d::CCNode*)>, std::__ndk1::allocator<std::__ndk1::function<void (int const&, cocos2d::CCNode*)> >, void (int, cocos2d::CCNode*)>::operator()(int&&, cocos2d::CCNode*&&)
FUNC b91fc 1c 0 std::__ndk1::__function::__func<std::__ndk1::function<void (int const&, cocos2d::CCNode*)>, std::__ndk1::allocator<std::__ndk1::function<void (int const&, cocos2d::CCNode*)> >, void (int, cocos2d::CCNode*)>::target(std::type_info const&) const
FUNC b9218 c 0 std::__ndk1::__function::__func<std::__ndk1::function<void (int const&, cocos2d::CCNode*)>, std::__ndk1::allocator<std::__ndk1::function<void (int const&, cocos2d::CCNode*)> >, void (int, cocos2d::CCNode*)>::target_type() const
FUNC b9224 458 0 SpecialTextKeyCell::init(std::__ndk1::basic_string<char, std::__ndk1::char_traits<char>, std::__ndk1::allocator<char> > const&, std::__ndk1::basic_string<char, std::__ndk1::char_traits<char>, std::__ndk1::allocator<char> > const&, std::__ndk1::function<void (std::__ndk1::basic_string<char, std::__ndk1::char_traits<char>, std::__ndk1::allocator<char> > const&)> const&)
FUNC b967c 20 0 SpecialTextKeyCell::Add(cocos2d::CCObject*)
FUNC b969c f0 0 SpecialTextKeyCell::onInfo(cocos2d::CCObject*)
FUNC b978c 7c 0 SpecialTextKeyCell::~SpecialTextKeyCell()
FUNC b9808 84 0 SpecialTextKeyCell::~SpecialTextKeyCell()
FUNC b988c 1ac 0 confirmImportLayer::create(DTLayer* const&, std::__ndk1::map<std::__ndk1::basic_string<char, std::__ndk1::char_traits<char>, std::__ndk1::allocator<char> >, int, std::__ndk1::less<std::__ndk1::basic_string<char, std::__ndk1::char_traits<char>, std::__ndk1::allocator<char> > >, std::__ndk1::allocator<std::__ndk1::pair<std::__ndk1::basic_string<char, std::__ndk1::char_traits<char>, std::__ndk1::allocator<char> > const, int> > > const&, std::__ndk1::map<std::__ndk1::basic_string<char, std::__ndk1::char_traits<char>, std::__ndk1::allocator<char> >, int, std::__ndk1::less<std::__ndk1::basic_string<char, std::__ndk1::char_traits<char>, std::__ndk1::allocator<char> > >, std::__ndk1::allocator<std::__ndk1::pair<std::__ndk1::basic_string<char, std::__ndk1::char_traits<char>, std::__ndk1::allocator<char> > const, int> > > const&)
FUNC b9a38 ef4 0 confirmImportLayer::setup(DTLayer* const&, std::__ndk1::map<std::__ndk1::basic_string<char, std::__ndk1::char_traits<char>, std::__ndk1::allocator<char> >, int, std::__ndk1::less<std::__ndk1::basic_string<char, std::__ndk1::char_traits<char>, std::__ndk1::allocator<char> > >, std::__ndk1::allocator<std::__ndk1::pair<std::__ndk1::basic_string<char, std::__ndk1::char_traits<char>, std::__ndk1::allocator<char> > const, int> > > const&, std::__ndk1::map<std::__ndk1::basic_string<char, std::__ndk1::char_traits<char>, std::__ndk1::allocator<char> >, int, std::__ndk1::less<std::__ndk1::basic_string<char, std::__ndk1::char_traits<char>, std::__ndk1::allocator<char> > >, std::__ndk1::allocator<std::__ndk1::pair<std::__ndk1::basic_string<char, std::__ndk1::char_traits<char>, std::__ndk1::allocator<char> > const, int> > > const&)
FUNC ba92c 1d4 0 confirmImportLayer::yesClicked(cocos2d::CCObject*)
FUNC bab00 14 0 confirmImportLayer::update(float)
FUNC bab14 c0 0 confirmImportLayer::~confirmImportLayer()
FUNC babd4 c8 0 confirmImportLayer::~confirmImportLayer()
FUNC bac9c 2c 0 geode::Popup<DTLayer* const&, std::__ndk1::map<std::__ndk1::basic_string<char, std::__ndk1::char_traits<char>, std::__ndk1::allocator<char> >, int, std::__ndk1::less<std::__ndk1::basic_string<char, std::__ndk1::char_traits<char>, std::__ndk1::allocator<char> > >, std::__ndk1::allocator<std::__ndk1::pair<std::__ndk1::basic_string<char, std::__ndk1::char_traits<char>, std::__ndk1::allocator<char> > const, int> > > const&, std::__ndk1::map<std::__ndk1::basic_string<char, std::__ndk1::char_traits<char>, std::__ndk1::allocator<char> >, int, std::__ndk1::less<std::__ndk1::basic_string<char, std::__ndk1::char_traits<char>, std::__ndk1::allocator<char> > >, std::__ndk1::allocator<std::__ndk1::pair<std::__ndk1::basic_string<char, std::__ndk1::char_traits<char>, std::__ndk1::allocator<char> > const, int> > > const&>::registerWithTouchDispatcher()
FUNC bacc8 28 0 geode::Popup<DTLayer* const&, std::__ndk1::map<std::__ndk1::basic_string<char, std::__ndk1::char_traits<char>, std::__ndk1::allocator<char> >, int, std::__ndk1::less<std::__ndk1::basic_string<char, std::__ndk1::char_traits<char>, std::__ndk1::allocator<char> > >, std::__ndk1::allocator<std::__ndk1::pair<std::__ndk1::basic_string<char, std::__ndk1::char_traits<char>, std::__ndk1::allocator<char> > const, int> > > const&, std::__ndk1::map<std::__ndk1::basic_string<char, std::__ndk1::char_traits<char>, std::__ndk1::allocator<char> >, int, std::__ndk1::less<std::__ndk1::basic_string<char, std::__ndk1::char_traits<char>, std::__ndk1::allocator<char> > >, std::__ndk1::allocator<std::__ndk1::pair<std::__ndk1::basic_string<char, std::__ndk1::char_traits<char>, std::__ndk1::allocator<char> > const, int> > > const&>::keyDown(cocos2d::enumKeyCodes)
FUNC bacf0 148 0 geode::Popup<DTLayer* const&, std::__ndk1::map<std::__ndk1::basic_string<char, std::__ndk1::char_traits<char>, std::__ndk1::allocator<char> >, int, std::__ndk1::less<std::__ndk1::basic_string<char, std::__ndk1::char_traits<char>, std::__ndk1::allocator<char> > >, std::__ndk1::allocator<std::__ndk1::pair<std::__ndk1::basic_string<char, std::__ndk1::char_traits<char>, std::__ndk1::allocator<char> > const, int> > > const&, std::__ndk1::map<std::__ndk1::basic_string<char, std::__ndk1::char_traits<char>, std::__ndk1::allocator<char> >, int, std::__ndk1::less<std::__ndk1::basic_string<char, std::__ndk1::char_traits<char>, std::__ndk1::allocator<char> > >, std::__ndk1::allocator<std::__ndk1::pair<std::__ndk1::basic_string<char, std::__ndk1::char_traits<char>, std::__ndk1::allocator<char> > const, int> > > const&>::onClose(cocos2d::CCObject*)
FUNC bae38 c4 0 {virtual override thunk({offset(-320)}, confirmImportLayer::~confirmImportLayer())}
FUNC baefc cc 0 {virtual override thunk({offset(-320)}, confirmImportLayer::~confirmImportLayer())}
FUNC bafc8 2c 0 {virtual override thunk({offset(-344)}, geode::Popup<DTLayer* const&, std::__ndk1::map<std::__ndk1::basic_string<char, std::__ndk1::char_traits<char>, std::__ndk1::allocator<char> >, int, std::__ndk1::less<std::__ndk1::basic_string<char, std::__ndk1::char_traits<char>, std::__ndk1::allocator<char> > >, std::__ndk1::allocator<std::__ndk1::pair<std::__ndk1::basic_string<char, std::__ndk1::char_traits<char>, std::__ndk1::allocator<char> > const, int> > > const&, std::__ndk1::map<std::__ndk1::basic_string<char, std::__ndk1::char_traits<char>, std::__ndk1::allocator<char> >, int, std::__ndk1::less<std::__ndk1::basic_string<char, std::__ndk1::char_traits<char>, std::__ndk1::allocator<char> > >, std::__ndk1::allocator<std::__ndk1::pair<std::__ndk1::basic_string<char, std::__ndk1::char_traits<char>, std::__ndk1::allocator<char> > const, int> > > const&>::keyDown(cocos2d::enumKeyCodes))}
FUNC baff4 6c 0 geode::Popup<DTLayer* const&, std::__ndk1::map<std::__ndk1::basic_string<char, std::__ndk1::char_traits<char>, std::__ndk1::allocator<char> >, int, std::__ndk1::less<std::__ndk1::basic_string<char, std::__ndk1::char_traits<char>, std::__ndk1::allocator<char> > >, std::__ndk1::allocator<std::__ndk1::pair<std::__ndk1::basic_string<char, std::__ndk1::char_traits<char>, std::__ndk1::allocator<char> > const, int> > > const&, std::__ndk1::map<std::__ndk1::basic_string<char, std::__ndk1::char_traits<char>, std::__ndk1::allocator<char> >, int, std::__ndk1::less<std::__ndk1::basic_string<char, std::__ndk1::char_traits<char>, std::__ndk1::allocator<char> > >, std::__ndk1::allocator<std::__ndk1::pair<std::__ndk1::basic_string<char, std::__ndk1::char_traits<char>, std::__ndk1::allocator<char> > const, int> > > const&>::~Popup()
FUNC bb060 4 0 geode::Popup<DTLayer* const&, std::__ndk1::map<std::__ndk1::basic_string<char, std::__ndk1::char_traits<char>, std::__ndk1::allocator<char> >, int, std::__ndk1::less<std::__ndk1::basic_string<char, std::__ndk1::char_traits<char>, std::__ndk1::allocator<char> > >, std::__ndk1::allocator<std::__ndk1::pair<std::__ndk1::basic_string<char, std::__ndk1::char_traits<char>, std::__ndk1::allocator<char> > const, int> > > const&, std::__ndk1::map<std::__ndk1::basic_string<char, std::__ndk1::char_traits<char>, std::__ndk1::allocator<char> >, int, std::__ndk1::less<std::__ndk1::basic_string<char, std::__ndk1::char_traits<char>, std::__ndk1::allocator<char> > >, std::__ndk1::allocator<std::__ndk1::pair<std::__ndk1::basic_string<char, std::__ndk1::char_traits<char>, std::__ndk1::allocator<char> > const, int> > > const&>::~Popup()
FUNC bb064 6c 0 {virtual override thunk({offset(-320)}, geode::Popup<DTLayer* const&, std::__ndk1::map<std::__ndk1::basic_string<char, std::__ndk1::char_traits<char>, std::__ndk1::allocator<char> >, int, std::__ndk1::less<std::__ndk1::basic_string<char, std::__ndk1::char_traits<char>, std::__ndk1::allocator<char> > >, std::__ndk1::allocator<std::__ndk1::pair<std::__ndk1::basic_string<char, std::__ndk1::char_traits<char>, std::__ndk1::allocator<char> > const, int> > > const&, std::__ndk1::map<std::__ndk1::basic_string<char, std::__ndk1::char_traits<char>, std::__ndk1::allocator<char> >, int, std::__ndk1::less<std::__ndk1::basic_string<char, std::__ndk1::char_traits<char>, std::__ndk1::allocator<char> > >, std::__ndk1::allocator<std::__ndk1::pair<std::__ndk1::basic_string<char, std::__ndk1::char_traits<char>, std::__ndk1::allocator<char> > const, int> > > const&>::~Popup())}
FUNC bb0d0 4 0 {virtual override thunk({offset(-320)}, geode::Popup<DTLayer* const&, std::__ndk1::map<std::__ndk1::basic_string<char, std::__ndk1::char_traits<char>, std::__ndk1::allocator<char> >, int, std::__ndk1::less<std::__ndk1::basic_string<char, std::__ndk1::char_traits<char>, std::__ndk1::allocator<char> > >, std::__ndk1::allocator<std::__ndk1::pair<std::__ndk1::basic_string<char, std::__ndk1::char_traits<char>, std::__ndk1::allocator<char> > const, int> > > const&, std::__ndk1::map<std::__ndk1::basic_string<char, std::__ndk1::char_traits<char>, std::__ndk1::allocator<char> >, int, std::__ndk1::less<std::__ndk1::basic_string<char, std::__ndk1::char_traits<char>, std::__ndk1::allocator<char> > >, std::__ndk1::allocator<std::__ndk1::pair<std::__ndk1::basic_string<char, std::__ndk1::char_traits<char>, std::__ndk1::allocator<char> > const, int> > > const&>::~Popup())}
FUNC bb0d4 30c 0 geode::Popup<DTLayer* const&, std::__ndk1::map<std::__ndk1::basic_string<char, std::__ndk1::char_traits<char>, std::__ndk1::allocator<char> >, int, std::__ndk1::less<std::__ndk1::basic_string<char, std::__ndk1::char_traits<char>, std::__ndk1::allocator<char> > >, std::__ndk1::allocator<std::__ndk1::pair<std::__ndk1::basic_string<char, std::__ndk1::char_traits<char>, std::__ndk1::allocator<char> > const, int> > > const&, std::__ndk1::map<std::__ndk1::basic_string<char, std::__ndk1::char_traits<char>, std::__ndk1::allocator<char> >, int, std::__ndk1::less<std::__ndk1::basic_string<char, std::__ndk1::char_traits<char>, std::__ndk1::allocator<char> > >, std::__ndk1::allocator<std::__ndk1::pair<std::__ndk1::basic_string<char, std::__ndk1::char_traits<char>, std::__ndk1::allocator<char> > const, int> > > const&>::initBase(float, float, DTLayer* const&, std::__ndk1::map<std::__ndk1::basic_string<char, std::__ndk1::char_traits<char>, std::__ndk1::allocator<char> >, int, std::__ndk1::less<std::__ndk1::basic_string<char, std::__ndk1::char_traits<char>, std::__ndk1::allocator<char> > >, std::__ndk1::allocator<std::__ndk1::pair<std::__ndk1::basic_string<char, std::__ndk1::char_traits<char>, std::__ndk1::allocator<char> > const, int> > > const&, std::__ndk1::map<std::__ndk1::basic_string<char, std::__ndk1::char_traits<char>, std::__ndk1::allocator<char> >, int, std::__ndk1::less<std::__ndk1::basic_string<char, std::__ndk1::char_traits<char>, std::__ndk1::allocator<char> > >, std::__ndk1::allocator<std::__ndk1::pair<std::__ndk1::basic_string<char, std::__ndk1::char_traits<char>, std::__ndk1::allocator<char> > const, int> > > const&, char const*, cocos2d::CCRect, bool)
FUNC bb3e0 50 0 geode::Popup<DTLayer* const&, std::__ndk1::map<std::__ndk1::basic_string<char, std::__ndk1::char_traits<char>, std::__ndk1::allocator<char> >, int, std::__ndk1::less<std::__ndk1::basic_string<char, std::__ndk1::char_traits<char>, std::__ndk1::allocator<char> > >, std::__ndk1::allocator<std::__ndk1::pair<std::__ndk1::basic_string<char, std::__ndk1::char_traits<char>, std::__ndk1::allocator<char> > const, int> > > const&, std::__ndk1::map<std::__ndk1::basic_string<char, std::__ndk1::char_traits<char>, std::__ndk1::allocator<char> >, int, std::__ndk1::less<std::__ndk1::basic_string<char, std::__ndk1::char_traits<char>, std::__ndk1::allocator<char> > >, std::__ndk1::allocator<std::__ndk1::pair<std::__ndk1::basic_string<char, std::__ndk1::char_traits<char>, std::__ndk1::allocator<char> > const, int> > > const&>::CloseEvent::~CloseEvent()
FUNC bb430 58 0 geode::Popup<DTLayer* const&, std::__ndk1::map<std::__ndk1::basic_string<char, std::__ndk1::char_traits<char>, std::__ndk1::allocator<char> >, int, std::__ndk1::less<std::__ndk1::basic_string<char, std::__ndk1::char_traits<char>, std::__ndk1::allocator<char> > >, std::__ndk1::allocator<std::__ndk1::pair<std::__ndk1::basic_string<char, std::__ndk1::char_traits<char>, std::__ndk1::allocator<char> > const, int> > > const&, std::__ndk1::map<std::__ndk1::basic_string<char, std::__ndk1::char_traits<char>, std::__ndk1::allocator<char> >, int, std::__ndk1::less<std::__ndk1::basic_string<char, std::__ndk1::char_traits<char>, std::__ndk1::allocator<char> > >, std::__ndk1::allocator<std::__ndk1::pair<std::__ndk1::basic_string<char, std::__ndk1::char_traits<char>, std::__ndk1::allocator<char> > const, int> > > const&>::CloseEvent::~CloseEvent()
FUNC bb488 10 0 std::__ndk1::__shared_ptr_emplace<geode::Popup<DTLayer* const&, std::__ndk1::map<std::__ndk1::basic_string<char, std::__ndk1::char_traits<char>, std::__ndk1::allocator<char> >, int, std::__ndk1::less<std::__ndk1::basic_string<char, std::__ndk1::char_traits<char>, std::__ndk1::allocator<char> > >, std::__ndk1::allocator<std::__ndk1::pair<std::__ndk1::basic_string<char, std::__ndk1::char_traits<char>, std::__ndk1::allocator<char> > const, int> > > const&, std::__ndk1::map<std::__ndk1::basic_string<char, std::__ndk1::char_traits<char>, std::__ndk1::allocator<char> >, int, std::__ndk1::less<std::__ndk1::basic_string<char, std::__ndk1::char_traits<char>, std::__ndk1::allocator<char> > >, std::__ndk1::allocator<std::__ndk1::pair<std::__ndk1::basic_string<char, std::__ndk1::char_traits<char>, std::__ndk1::allocator<char> > const, int> > > const&>::CloseEvent::Impl, std::__ndk1::allocator<geode::Popup<DTLayer* const&, std::__ndk1::map<std::__ndk1::basic_string<char, std::__ndk1::char_traits<char>, std::__ndk1::allocator<char> >, int, std::__ndk1::less<std::__ndk1::basic_string<char, std::__ndk1::char_traits<char>, std::__ndk1::allocator<char> > >, std::__ndk1::allocator<std::__ndk1::pair<std::__ndk1::basic_string<char, std::__ndk1::char_traits<char>, std::__ndk1::allocator<char> > const, int> > > const&, std::__ndk1::map<std::__ndk1::basic_string<char, std::__ndk1::char_traits<char>, std::__ndk1::allocator<char> >, int, std::__ndk1::less<std::__ndk1::basic_string<char, std::__ndk1::char_traits<char>, std::__ndk1::allocator<char> > >, std::__ndk1::allocator<std::__ndk1::pair<std::__ndk1::basic_string<char, std::__ndk1::char_traits<char>, std::__ndk1::allocator<char> > const, int> > > const&>::CloseEvent::Impl> >::~__shared_ptr_emplace()
FUNC bb498 30 0 std::__ndk1::__shared_ptr_emplace<geode::Popup<DTLayer* const&, std::__ndk1::map<std::__ndk1::basic_string<char, std::__ndk1::char_traits<char>, std::__ndk1::allocator<char> >, int, std::__ndk1::less<std::__ndk1::basic_string<char, std::__ndk1::char_traits<char>, std::__ndk1::allocator<char> > >, std::__ndk1::allocator<std::__ndk1::pair<std::__ndk1::basic_string<char, std::__ndk1::char_traits<char>, std::__ndk1::allocator<char> > const, int> > > const&, std::__ndk1::map<std::__ndk1::basic_string<char, std::__ndk1::char_traits<char>, std::__ndk1::allocator<char> >, int, std::__ndk1::less<std::__ndk1::basic_string<char, std::__ndk1::char_traits<char>, std::__ndk1::allocator<char> > >, std::__ndk1::allocator<std::__ndk1::pair<std::__ndk1::basic_string<char, std::__ndk1::char_traits<char>, std::__ndk1::allocator<char> > const, int> > > const&>::CloseEvent::Impl, std::__ndk1::allocator<geode::Popup<DTLayer* const&, std::__ndk1::map<std::__ndk1::basic_string<char, std::__ndk1::char_traits<char>, std::__ndk1::allocator<char> >, int, std::__ndk1::less<std::__ndk1::basic_string<char, std::__ndk1::char_traits<char>, std::__ndk1::allocator<char> > >, std::__ndk1::allocator<std::__ndk1::pair<std::__ndk1::basic_string<char, std::__ndk1::char_traits<char>, std::__ndk1::allocator<char> > const, int> > > const&, std::__ndk1::map<std::__ndk1::basic_string<char, std::__ndk1::char_traits<char>, std::__ndk1::allocator<char> >, int, std::__ndk1::less<std::__ndk1::basic_string<char, std::__ndk1::char_traits<char>, std::__ndk1::allocator<char> > >, std::__ndk1::allocator<std::__ndk1::pair<std::__ndk1::basic_string<char, std::__ndk1::char_traits<char>, std::__ndk1::allocator<char> > const, int> > > const&>::CloseEvent::Impl> >::~__shared_ptr_emplace()
FUNC bb4c8 4 0 std::__ndk1::__shared_ptr_emplace<geode::Popup<DTLayer* const&, std::__ndk1::map<std::__ndk1::basic_string<char, std::__ndk1::char_traits<char>, std::__ndk1::allocator<char> >, int, std::__ndk1::less<std::__ndk1::basic_string<char, std::__ndk1::char_traits<char>, std::__ndk1::allocator<char> > >, std::__ndk1::allocator<std::__ndk1::pair<std::__ndk1::basic_string<char, std::__ndk1::char_traits<char>, std::__ndk1::allocator<char> > const, int> > > const&, std::__ndk1::map<std::__ndk1::basic_string<char, std::__ndk1::char_traits<char>, std::__ndk1::allocator<char> >, int, std::__ndk1::less<std::__ndk1::basic_string<char, std::__ndk1::char_traits<char>, std::__ndk1::allocator<char> > >, std::__ndk1::allocator<std::__ndk1::pair<std::__ndk1::basic_string<char, std::__ndk1::char_traits<char>, std::__ndk1::allocator<char> > const, int> > > const&>::CloseEvent::Impl, std::__ndk1::allocator<geode::Popup<DTLayer* const&, std::__ndk1::map<std::__ndk1::basic_string<char, std::__ndk1::char_traits<char>, std::__ndk1::allocator<char> >, int, std::__ndk1::less<std::__ndk1::basic_string<char, std::__ndk1::char_traits<char>, std::__ndk1::allocator<char> > >, std::__ndk1::allocator<std::__ndk1::pair<std::__ndk1::basic_string<char, std::__ndk1::char_traits<char>, std::__ndk1::allocator<char> > const, int> > > const&, std::__ndk1::map<std::__ndk1::basic_string<char, std::__ndk1::char_traits<char>, std::__ndk1::allocator<char> >, int, std::__ndk1::less<std::__ndk1::basic_string<char, std::__ndk1::char_traits<char>, std::__ndk1::allocator<char> > >, std::__ndk1::allocator<std::__ndk1::pair<std::__ndk1::basic_string<char, std::__ndk1::char_traits<char>, std::__ndk1::allocator<char> > const, int> > > const&>::CloseEvent::Impl> >::__on_zero_shared()
FUNC bb4cc 4 0 std::__ndk1::__shared_ptr_emplace<geode::Popup<DTLayer* const&, std::__ndk1::map<std::__ndk1::basic_string<char, std::__ndk1::char_traits<char>, std::__ndk1::allocator<char> >, int, std::__ndk1::less<std::__ndk1::basic_string<char, std::__ndk1::char_traits<char>, std::__ndk1::allocator<char> > >, std::__ndk1::allocator<std::__ndk1::pair<std::__ndk1::basic_string<char, std::__ndk1::char_traits<char>, std::__ndk1::allocator<char> > const, int> > > const&, std::__ndk1::map<std::__ndk1::basic_string<char, std::__ndk1::char_traits<char>, std::__ndk1::allocator<char> >, int, std::__ndk1::less<std::__ndk1::basic_string<char, std::__ndk1::char_traits<char>, std::__ndk1::allocator<char> > >, std::__ndk1::allocator<std::__ndk1::pair<std::__ndk1::basic_string<char, std::__ndk1::char_traits<char>, std::__ndk1::allocator<char> > const, int> > > const&>::CloseEvent::Impl, std::__ndk1::allocator<geode::Popup<DTLayer* const&, std::__ndk1::map<std::__ndk1::basic_string<char, std::__ndk1::char_traits<char>, std::__ndk1::allocator<char> >, int, std::__ndk1::less<std::__ndk1::basic_string<char, std::__ndk1::char_traits<char>, std::__ndk1::allocator<char> > >, std::__ndk1::allocator<std::__ndk1::pair<std::__ndk1::basic_string<char, std::__ndk1::char_traits<char>, std::__ndk1::allocator<char> > const, int> > > const&, std::__ndk1::map<std::__ndk1::basic_string<char, std::__ndk1::char_traits<char>, std::__ndk1::allocator<char> >, int, std::__ndk1::less<std::__ndk1::basic_string<char, std::__ndk1::char_traits<char>, std::__ndk1::allocator<char> > >, std::__ndk1::allocator<std::__ndk1::pair<std::__ndk1::basic_string<char, std::__ndk1::char_traits<char>, std::__ndk1::allocator<char> > const, int> > > const&>::CloseEvent::Impl> >::__on_zero_shared_weak()
FUNC bb4d0 1a0 0 geodeExecFunction95<(anonymous namespace)::ExecFuncUnique95>(geode::ModStateEvent*)
FUNC bb670 4 0 geode::EventListener<geode::ModStateFilter>::getPool() const
FUNC bb674 174 0 geode::EventListener<geode::ModStateFilter>::handle(geode::Event*)
FUNC bb7e8 5c 0 geode::EventListener<geode::ModStateFilter>::~EventListener()
FUNC bb844 64 0 geode::EventListener<geode::ModStateFilter>::~EventListener()
FUNC bb8a8 4 0 std::__ndk1::__function::__base<void (geode::ModStateEvent*)>::~__base()
FUNC bb8ac 4 0 std::__ndk1::__function::__func<void (*)(geode::ModStateEvent*), std::__ndk1::allocator<void (*)(geode::ModStateEvent*)>, void (geode::ModStateEvent*)>::~__func()
FUNC bb8b0 34 0 std::__ndk1::__function::__func<void (*)(geode::ModStateEvent*), std::__ndk1::allocator<void (*)(geode::ModStateEvent*)>, void (geode::ModStateEvent*)>::__clone() const
FUNC bb8e4 14 0 std::__ndk1::__function::__func<void (*)(geode::ModStateEvent*), std::__ndk1::allocator<void (*)(geode::ModStateEvent*)>, void (geode::ModStateEvent*)>::__clone(std::__ndk1::__function::__base<void (geode::ModStateEvent*)>*) const
FUNC bb8f8 4 0 std::__ndk1::__function::__func<void (*)(geode::ModStateEvent*), std::__ndk1::allocator<void (*)(geode::ModStateEvent*)>, void (geode::ModStateEvent*)>::destroy()
FUNC bb8fc 4 0 std::__ndk1::__function::__func<void (*)(geode::ModStateEvent*), std::__ndk1::allocator<void (*)(geode::ModStateEvent*)>, void (geode::ModStateEvent*)>::destroy_deallocate()
FUNC bb900 10 0 std::__ndk1::__function::__func<void (*)(geode::ModStateEvent*), std::__ndk1::allocator<void (*)(geode::ModStateEvent*)>, void (geode::ModStateEvent*)>::operator()(geode::ModStateEvent*&&)
FUNC bb910 1c 0 std::__ndk1::__function::__func<void (*)(geode::ModStateEvent*), std::__ndk1::allocator<void (*)(geode::ModStateEvent*)>, void (geode::ModStateEvent*)>::target(std::type_info const&) const
FUNC bb92c c 0 std::__ndk1::__function::__func<void (*)(geode::ModStateEvent*), std::__ndk1::allocator<void (*)(geode::ModStateEvent*)>, void (geode::ModStateEvent*)>::target_type() const
FUNC bb938 958 0 _GLOBAL__sub_I_main.cpp
FUNC bc290 3e4 0 StatsManager::splitStr(std::__ndk1::basic_string<char, std::__ndk1::char_traits<char>, std::__ndk1::allocator<char> > const&, std::__ndk1::basic_string<char, std::__ndk1::char_traits<char>, std::__ndk1::allocator<char> > const&)
FUNC bc674 8 0 std::__ndk1::set<std::__ndk1::basic_string<char, std::__ndk1::char_traits<char>, std::__ndk1::allocator<char> >, std::__ndk1::less<std::__ndk1::basic_string<char, std::__ndk1::char_traits<char>, std::__ndk1::allocator<char> > >, std::__ndk1::allocator<std::__ndk1::basic_string<char, std::__ndk1::char_traits<char>, std::__ndk1::allocator<char> > > >::~set[abi:ne180000]()
FUNC bc67c 14 0 std::__ndk1::__fs::filesystem::path::~path[abi:ne180000]()
FUNC bc690 44 0 std::__ndk1::array<std::__ndk1::basic_string<char, std::__ndk1::char_traits<char>, std::__ndk1::allocator<char> >, (unsigned long)62>::~array()
FUNC bc6d4 104 0 StatsManager::loadLevelStats(GJGameLevel* const&)
FUNC bc7d8 1cbc 0 StatsManager::loadData(GJGameLevel* const&)
FUNC be494 74 0 geode::impl::ResultData<matjson::Value, std::__ndk1::basic_string<char, std::__ndk1::char_traits<char>, std::__ndk1::allocator<char> > >::~ResultData()
FUNC be508 3e4 0 StatsManager::getLevelStats(std::__ndk1::basic_string<char, std::__ndk1::char_traits<char>, std::__ndk1::allocator<char> > const&)
FUNC be8ec 5a4 0 StatsManager::getBackupStats(GJGameLevel* const&)
FUNC bee90 254 0 StatsManager::getLevelKey(GJGameLevel* const&)
FUNC bf0e4 78 0 geode::impl::ResultData<std::__ndk1::basic_string<char, std::__ndk1::char_traits<char>, std::__ndk1::allocator<char> >, std::__ndk1::basic_string<char, std::__ndk1::char_traits<char>, std::__ndk1::allocator<char> > >::unwrapErr() &&
FUNC bf15c 78 0 geode::impl::ResultData<std::__ndk1::basic_string<char, std::__ndk1::char_traits<char>, std::__ndk1::allocator<char> >, std::__ndk1::basic_string<char, std::__ndk1::char_traits<char>, std::__ndk1::allocator<char> > >::unwrap() &&
FUNC bf1d4 294 0 StatsManager::logDeath(int const&)
FUNC bf468 3bc 0 StatsManager::getSession()
FUNC bf824 384 0 StatsManager::saveData()
FUNC bfba8 2d8 0 StatsManager::logDeaths(std::__ndk1::vector<int, std::__ndk1::allocator<int> > const&)
FUNC bfe80 198 0 StatsManager::logRun(Run_s const&)
FUNC c0018 1f0 0 StatsManager::logRuns(std::__ndk1::vector<Run_s, std::__ndk1::allocator<Run_s> > const&)
FUNC c0208 10c 0 StatsManager::splitRunKey(std::__ndk1::basic_string<char, std::__ndk1::char_traits<char>, std::__ndk1::allocator<char> > const&)
FUNC c0314 170 0 StatsManager::hasPlayedLevel()
FUNC c0484 398 0 StatsManager::getLevelSaveFilePath(GJGameLevel* const&)
FUNC c081c 74 0 geode::impl::ResultData<std::__ndk1::__fs::filesystem::path, std::__ndk1::basic_string<char, std::__ndk1::char_traits<char>, std::__ndk1::allocator<char> > >::~ResultData()
FUNC c0890 50 0 std::__ndk1::basic_ofstream<char, std::__ndk1::char_traits<char> >::~basic_ofstream()
FUNC c08e0 3a8 0 StatsManager::saveData(LevelStats_s const&, GJGameLevel* const&)
FUNC c0c88 424 0 StatsManager::saveBackup(LevelStats_s const&, GJGameLevel* const&)
FUNC c10ac 478 0 StatsManager::saveData(LevelStats_s const&, std::__ndk1::basic_string<char, std::__ndk1::char_traits<char>, std::__ndk1::allocator<char> > const&)
FUNC c1524 208 0 geode::Mod::getSavedValue<std::__ndk1::vector<int, std::__ndk1::allocator<int> > >(std::__ndk1::basic_string_view<char, std::__ndk1::char_traits<char> >)
FUNC c172c 464 0 geode::Mod::getSavedValue<std::__ndk1::vector<bool, std::__ndk1::allocator<bool> > >(std::__ndk1::basic_string_view<char, std::__ndk1::char_traits<char> >)
FUNC c1b90 74 0 geode::impl::ResultData<std::__ndk1::tuple<std::__ndk1::set<int, std::__ndk1::less<int>, std::__ndk1::allocator<int> >, int>, std::__ndk1::basic_string<char, std::__ndk1::char_traits<char>, std::__ndk1::allocator<char> > >::~ResultData()
FUNC c1c04 14d0 0 StatsManager::getAllLevels()
FUNC c30d4 3c 0 std::__ndk1::pair<std::__ndk1::basic_string<char, std::__ndk1::char_traits<char>, std::__ndk1::allocator<char> >, LevelStats_s>::~pair()
FUNC c3110 7c 0 std::__ndk1::vector<std::__ndk1::__fs::filesystem::path, std::__ndk1::allocator<std::__ndk1::__fs::filesystem::path> >::~vector[abi:ne180000]()
FUNC c318c 74 0 geode::impl::ResultData<std::__ndk1::vector<std::__ndk1::__fs::filesystem::path, std::__ndk1::allocator<std::__ndk1::__fs::filesystem::path> >, std::__ndk1::basic_string<char, std::__ndk1::char_traits<char>, std::__ndk1::allocator<char> > >::~ResultData()
FUNC c3200 1d8 0 StatsManager::splitLevelKey(std::__ndk1::basic_string<char, std::__ndk1::char_traits<char>, std::__ndk1::allocator<char> > const&)
FUNC c33d8 444 0 StatsManager::KMPSearch(std::__ndk1::basic_string<char, std::__ndk1::char_traits<char>, std::__ndk1::allocator<char> > const&, std::__ndk1::basic_string<char, std::__ndk1::char_traits<char>, std::__ndk1::allocator<char> > const&)
FUNC c381c 334 0 StatsManager::getCursorPosition(cocos2d::CCLabelBMFont* const&, cocos2d::CCLabelBMFont* const&)
FUNC c3b50 1f0 0 StatsManager::isKeyInIndex(std::__ndk1::basic_string<char, std::__ndk1::char_traits<char>, std::__ndk1::allocator<char> > const&, int const&, std::__ndk1::basic_string<char, std::__ndk1::char_traits<char>, std::__ndk1::allocator<char> > const&)
FUNC c3d40 334 0 StatsManager::workingTime(long long)
FUNC c4074 7c 0 std::__ndk1::basic_ostringstream<char, std::__ndk1::char_traits<char>, std::__ndk1::allocator<char> >::~basic_ostringstream()
FUNC c40f0 168 0 std::__ndk1::vector<std::__ndk1::basic_string<char, std::__ndk1::char_traits<char>, std::__ndk1::allocator<char> >, std::__ndk1::allocator<std::__ndk1::basic_string<char, std::__ndk1::char_traits<char>, std::__ndk1::allocator<char> > > >::__push_back_slow_path<std::__ndk1::basic_string<char, std::__ndk1::char_traits<char>, std::__ndk1::allocator<char> > >(std::__ndk1::basic_string<char, std::__ndk1::char_traits<char>, std::__ndk1::allocator<char> >&&)
FUNC c4258 1dcc 0 matjson::Serialize<LevelStats_s>::fromJson(matjson::Value const&)
FUNC c6024 78 0 geode::impl::ResultData<long, std::__ndk1::basic_string<char, std::__ndk1::char_traits<char>, std::__ndk1::allocator<char> > >::unwrapErr() &&
FUNC c609c 78 0 geode::impl::ResultData<long, std::__ndk1::basic_string<char, std::__ndk1::char_traits<char>, std::__ndk1::allocator<char> > >::unwrap() &&
FUNC c6114 74 0 geode::impl::ResultData<std::__ndk1::vector<int, std::__ndk1::allocator<int> >, std::__ndk1::basic_string<char, std::__ndk1::char_traits<char>, std::__ndk1::allocator<char> > >::unwrapErr() &&
FUNC c6188 78 0 geode::impl::ResultData<std::__ndk1::vector<int, std::__ndk1::allocator<int> >, std::__ndk1::basic_string<char, std::__ndk1::char_traits<char>, std::__ndk1::allocator<char> > >::unwrap() &&
FUNC c6200 74 0 geode::impl::ResultData<std::__ndk1::vector<int, std::__ndk1::allocator<int> >, std::__ndk1::basic_string<char, std::__ndk1::char_traits<char>, std::__ndk1::allocator<char> > >::~ResultData()
FUNC c6274 74 0 geode::impl::ResultData<std::__ndk1::vector<std::__ndk1::basic_string<char, std::__ndk1::char_traits<char>, std::__ndk1::allocator<char> >, std::__ndk1::allocator<std::__ndk1::basic_string<char, std::__ndk1::char_traits<char>, std::__ndk1::allocator<char> > > >, std::__ndk1::basic_string<char, std::__ndk1::char_traits<char>, std::__ndk1::allocator<char> > >::unwrapErr() &&
FUNC c62e8 78 0 geode::impl::ResultData<std::__ndk1::vector<std::__ndk1::basic_string<char, std::__ndk1::char_traits<char>, std::__ndk1::allocator<char> >, std::__ndk1::allocator<std::__ndk1::basic_string<char, std::__ndk1::char_traits<char>, std::__ndk1::allocator<char> > > >, std::__ndk1::basic_string<char, std::__ndk1::char_traits<char>, std::__ndk1::allocator<char> > >::unwrap() &&
FUNC c6360 98 0 std::__ndk1::vector<std::__ndk1::basic_string<char, std::__ndk1::char_traits<char>, std::__ndk1::allocator<char> >, std::__ndk1::allocator<std::__ndk1::basic_string<char, std::__ndk1::char_traits<char>, std::__ndk1::allocator<char> > > >::operator=[abi:ne180000](std::__ndk1::vector<std::__ndk1::basic_string<char, std::__ndk1::char_traits<char>, std::__ndk1::allocator<char> >, std::__ndk1::allocator<std::__ndk1::basic_string<char, std::__ndk1::char_traits<char>, std::__ndk1::allocator<char> > > >&&)
FUNC c63f8 74 0 geode::impl::ResultData<std::__ndk1::vector<std::__ndk1::basic_string<char, std::__ndk1::char_traits<char>, std::__ndk1::allocator<char> >, std::__ndk1::allocator<std::__ndk1::basic_string<char, std::__ndk1::char_traits<char>, std::__ndk1::allocator<char> > > >, std::__ndk1::basic_string<char, std::__ndk1::char_traits<char>, std::__ndk1::allocator<char> > >::~ResultData()
FUNC c646c 74 0 geode::impl::ResultData<long, std::__ndk1::basic_string<char, std::__ndk1::char_traits<char>, std::__ndk1::allocator<char> > >::~ResultData()
FUNC c64e0 74 0 geode::impl::ResultData<std::__ndk1::vector<Session, std::__ndk1::allocator<Session> >, std::__ndk1::basic_string<char, std::__ndk1::char_traits<char>, std::__ndk1::allocator<char> > >::~ResultData()
FUNC c6554 74 0 geode::impl::ResultData<std::__ndk1::set<int, std::__ndk1::less<int>, std::__ndk1::allocator<int> >, std::__ndk1::basic_string<char, std::__ndk1::char_traits<char>, std::__ndk1::allocator<char> > >::~ResultData()
FUNC c65c8 74 0 geode::impl::ResultData<std::__ndk1::map<std::__ndk1::basic_string<char, std::__ndk1::char_traits<char>, std::__ndk1::allocator<char> >, int, std::__ndk1::less<std::__ndk1::basic_string<char, std::__ndk1::char_traits<char>, std::__ndk1::allocator<char> > >, std::__ndk1::allocator<std::__ndk1::pair<std::__ndk1::basic_string<char, std::__ndk1::char_traits<char>, std::__ndk1::allocator<char> > const, int> > >, std::__ndk1::basic_string<char, std::__ndk1::char_traits<char>, std::__ndk1::allocator<char> > >::~ResultData()
FUNC c663c 55c 0 _ZN7matjson9SerializeINSt6__ndk13mapINS1_12basic_stringIcNS1_11char_traitsIcEENS1_9allocatorIcEEEEiNS1_4lessIS8_EENS6_INS1_4pairIKS8_iEEEEEEE8fromJsonERKNS_5ValueEQrQSJ__Xcldtfp_2asIu7__decayIT_EEEE
FUNC c6b98 104 0 matjson::Value::as<int>() const
FUNC c6c9c 318 0 _ZN7matjson9SerializeINSt6__ndk13setIiNS1_4lessIiEENS1_9allocatorIiEEEEE8fromJsonERKNS_5ValueEQrQSB__Xcldtfp_2asIu7__decayIT_EEEE
FUNC c6fb4 154 0 _ZN5geode15UnwrapExceptionC2IRlQsr4implE18IsStringStreamableIT_EEENS_4impl5OkTagEOS3_
FUNC c7108 74 0 geode::impl::ResultData<Session, std::__ndk1::basic_string<char, std::__ndk1::char_traits<char>, std::__ndk1::allocator<char> > >::~ResultData()
FUNC c717c 104 0 matjson::Value::as<long long>() const
FUNC c7280 74 0 geode::impl::ResultData<long long, std::__ndk1::basic_string<char, std::__ndk1::char_traits<char>, std::__ndk1::allocator<char> > >::~ResultData()
FUNC c72f4 4 0 std::__ndk1::__variant_detail::__visitation::__base::__dispatcher<(unsigned long)0>::__dispatch[abi:ne180000]<std::__ndk1::__variant_detail::__dtor<std::__ndk1::__variant_detail::__traits<long long, std::__ndk1::basic_string<char, std::__ndk1::char_traits<char>, std::__ndk1::allocator<char> > >, (std::__ndk1::__variant_detail::_Trait)1>::__destroy[abi:ne180000]()::{lambda(auto:1&)#1}, std::__ndk1::__variant_detail::__base<(std::__ndk1::__variant_detail::__traits<long long, std::__ndk1::basic_string<char, std::__ndk1::char_traits<char>, std::__ndk1::allocator<char> > >)1, long long, std::__ndk1::allocator<char> >&>(std::__ndk1::__variant_detail::__dtor<std::__ndk1::__variant_detail::__traits<long long, std::__ndk1::basic_string<char, std::__ndk1::char_traits<char>, std::__ndk1::allocator<char> > >, (std::__ndk1::__variant_detail::_Trait)1>, std::__ndk1::__variant_detail::__base<(std::__ndk1::__variant_detail::__traits<long long, std::__ndk1::basic_string<char, std::__ndk1::char_traits<char>, std::__ndk1::allocator<char> > >)1, long long, std::__ndk1::allocator<char> >&)
FUNC c72f8 14 0 std::__ndk1::__variant_detail::__visitation::__base::__dispatcher<(unsigned long)1>::__dispatch[abi:ne180000]<std::__ndk1::__variant_detail::__dtor<std::__ndk1::__variant_detail::__traits<long long, std::__ndk1::basic_string<char, std::__ndk1::char_traits<char>, std::__ndk1::allocator<char> > >, (std::__ndk1::__variant_detail::_Trait)1>::__destroy[abi:ne180000]()::{lambda(auto:1&)#1}, std::__ndk1::__variant_detail::__base<(std::__ndk1::__variant_detail::__traits<long long, std::__ndk1::basic_string<char, std::__ndk1::char_traits<char>, std::__ndk1::allocator<char> > >)1, long long, std::__ndk1::allocator<char> >&>(std::__ndk1::__variant_detail::__dtor<std::__ndk1::__variant_detail::__traits<long long, std::__ndk1::basic_string<char, std::__ndk1::char_traits<char>, std::__ndk1::allocator<char> > >, (std::__ndk1::__variant_detail::_Trait)1>, std::__ndk1::__variant_detail::__base<(std::__ndk1::__variant_detail::__traits<long long, std::__ndk1::basic_string<char, std::__ndk1::char_traits<char>, std::__ndk1::allocator<char> > >)1, long long, std::__ndk1::allocator<char> >&)
FUNC c730c 3c 0 std::__ndk1::__variant_detail::__visitation::__base::__dispatcher<(unsigned long)0>::__dispatch[abi:ne180000]<std::__ndk1::__variant_detail::__dtor<std::__ndk1::__variant_detail::__traits<Session, std::__ndk1::basic_string<char, std::__ndk1::char_traits<char>, std::__ndk1::allocator<char> > >, (std::__ndk1::__variant_detail::_Trait)1>::__destroy[abi:ne180000]()::{lambda(auto:1&)#1}, std::__ndk1::__variant_detail::__base<(std::__ndk1::__variant_detail::__traits<Session, std::__ndk1::basic_string<char, std::__ndk1::char_traits<char>, std::__ndk1::allocator<char> > >)1, std::__ndk1::__variant_detail::__traits, std::__ndk1::allocator<char> >&>(std::__ndk1::__variant_detail::__dtor<std::__ndk1::__variant_detail::__traits<Session, std::__ndk1::basic_string<char, std::__ndk1::char_traits<char>, std::__ndk1::allocator<char> > >, (std::__ndk1::__variant_detail::_Trait)1>, std::__ndk1::__variant_detail::__base<(std::__ndk1::__variant_detail::__traits<Session, std::__ndk1::basic_string<char, std::__ndk1::char_traits<char>, std::__ndk1::allocator<char> > >)1, std::__ndk1::__variant_detail::__traits, std::__ndk1::allocator<char> >&)
