MODULE Linux arm64 C2110861BED0E0C6DDA97D6A272BA2A40 weebify.separate_dual_icons.android64.so
INFO CODE_ID 610811C2D0BEC6E0DDA97D6A272BA2A4AF877E09
INFO GENERATOR mozilla/dump_syms 2.3.4
PUBLIC 17810 0 __on_dlclose
PUBLIC 17820 0 __emutls_unregister_key
PUBLIC 17828 0 __on_dlclose_late
PUBLIC 17830 0 __atexit_handler_wrapper
PUBLIC 17844 0 atexit
PUBLIC 17860 0 pthread_atfork
PUBLIC 17870 0 unwind_phase2
PUBLIC 179a4 0 _Unwind_Resume
PUBLIC 17a28 0 unwind_phase2_forced
PUBLIC m 17b1c 0 __unw_init_local
PUBLIC m 17bc4 0 __unw_get_reg
PUBLIC 17c40 0 __unw_step_stage2
PUBLIC m 17c54 0 __unw_get_proc_info
PUBLIC m 17c94 0 __unw_resume
PUBLIC 17cbc 0 libunwind::CFI_Parser<libunwind::LocalAddressSpace>::decodeFDE(libunwind::LocalAddressSpace&, unsigned long, libunwind::CFI_Parser<libunwind::LocalAddressSpace>::FDE_Info*, libunwind::CFI_Parser<libunwind::LocalAddressSpace>::CIE_Info*, bool)
PUBLIC 17e4c 0 libunwind::CFI_Parser<libunwind::LocalAddressSpace>::parseCIE(libunwind::LocalAddressSpace&, unsigned long, libunwind::CFI_Parser<libunwind::LocalAddressSpace>::CIE_Info*)
PUBLIC 18114 0 libunwind::AbstractUnwindCursor::~AbstractUnwindCursor()
PUBLIC 1811c 0 libunwind::UnwindCursor<libunwind::LocalAddressSpace, libunwind::Registers_arm64>::~UnwindCursor()
PUBLIC 18124 0 libunwind::UnwindCursor<libunwind::LocalAddressSpace, libunwind::Registers_arm64>::validReg(int)
PUBLIC 18168 0 libunwind::UnwindCursor<libunwind::LocalAddressSpace, libunwind::Registers_arm64>::getReg(int)
PUBLIC 18250 0 libunwind::UnwindCursor<libunwind::LocalAddressSpace, libunwind::Registers_arm64>::setReg(int, unsigned long)
PUBLIC 18338 0 libunwind::UnwindCursor<libunwind::LocalAddressSpace, libunwind::Registers_arm64>::validFloatReg(int)
PUBLIC 1834c 0 libunwind::UnwindCursor<libunwind::LocalAddressSpace, libunwind::Registers_arm64>::getFloatReg(int)
PUBLIC 1835c 0 libunwind::UnwindCursor<libunwind::LocalAddressSpace, libunwind::Registers_arm64>::setFloatReg(int, double)
PUBLIC 1836c 0 libunwind::UnwindCursor<libunwind::LocalAddressSpace, libunwind::Registers_arm64>::step(bool)
PUBLIC 1845c 0 libunwind::UnwindCursor<libunwind::LocalAddressSpace, libunwind::Registers_arm64>::getInfo(unw_proc_info_t*)
PUBLIC 184a0 0 libunwind::UnwindCursor<libunwind::LocalAddressSpace, libunwind::Registers_arm64>::jumpto()
PUBLIC 184ac 0 libunwind::UnwindCursor<libunwind::LocalAddressSpace, libunwind::Registers_arm64>::isSignalFrame()
PUBLIC 184b8 0 libunwind::UnwindCursor<libunwind::LocalAddressSpace, libunwind::Registers_arm64>::getFunctionName(char*, unsigned long, unsigned long*)
PUBLIC 184e4 0 libunwind::UnwindCursor<libunwind::LocalAddressSpace, libunwind::Registers_arm64>::setInfoBasedOnIPRegister(bool)
PUBLIC 18764 0 libunwind::UnwindCursor<libunwind::LocalAddressSpace, libunwind::Registers_arm64>::getRegisterName(int)
PUBLIC 18770 0 libunwind::UnwindCursor<libunwind::LocalAddressSpace, libunwind::Registers_arm64>::stepThroughSigReturn(libunwind::Registers_arm64&)
PUBLIC 18890 0 libunwind::DwarfInstructions<libunwind::LocalAddressSpace, libunwind::Registers_arm64>::stepWithDwarf(libunwind::LocalAddressSpace&, unsigned long, unsigned long, libunwind::Registers_arm64&, bool&, bool)
PUBLIC 18d18 0 libunwind::CFI_Parser<libunwind::LocalAddressSpace>::parseFDEInstructions(libunwind::LocalAddressSpace&, libunwind::CFI_Parser<libunwind::LocalAddressSpace>::FDE_Info const&, libunwind::CFI_Parser<libunwind::LocalAddressSpace>::CIE_Info const&, unsigned long, int, libunwind::CFI_Parser<libunwind::LocalAddressSpace>::PrologInfo*)
PUBLIC 19960 0 libunwind::DwarfInstructions<libunwind::LocalAddressSpace, libunwind::Registers_arm64>::getCFA(libunwind::LocalAddressSpace&, libunwind::CFI_Parser<libunwind::LocalAddressSpace>::PrologInfo const&, libunwind::Registers_arm64 const&)
PUBLIC 19a94 0 libunwind::DwarfInstructions<libunwind::LocalAddressSpace, libunwind::Registers_arm64>::getSavedRegister(libunwind::LocalAddressSpace&, libunwind::Registers_arm64 const&, unsigned long, libunwind::CFI_Parser<libunwind::LocalAddressSpace>::RegisterLocation const&)
PUBLIC 19ca4 0 libunwind::LocalAddressSpace::getEncodedP(unsigned long&, unsigned long, unsigned char, unsigned long)
PUBLIC 1a030 0 libunwind::LocalAddressSpace::getULEB128(unsigned long&, unsigned long)
PUBLIC 1a1f8 0 libunwind::DwarfInstructions<libunwind::LocalAddressSpace, libunwind::Registers_arm64>::evaluateExpression(unsigned long, libunwind::LocalAddressSpace&, libunwind::Registers_arm64 const&, unsigned long)
PUBLIC 1abb4 0 libunwind::UnwindCursor<libunwind::LocalAddressSpace, libunwind::Registers_arm64>::getInfoFromDwarfSection(unsigned long, libunwind::UnwindInfoSections const&, unsigned int)
PUBLIC 1ae88 0 libunwind::findUnwindSectionsByPhdr(dl_phdr_info*, unsigned long, void*)
PUBLIC 1afbc 0 libunwind::EHHeaderParser<libunwind::LocalAddressSpace>::decodeEHHdr(libunwind::LocalAddressSpace&, unsigned long, unsigned long, libunwind::EHHeaderParser<libunwind::LocalAddressSpace>::EHHeaderInfo&)
PUBLIC 1b0dc 0 libunwind::CFI_Parser<libunwind::LocalAddressSpace>::findFDE(libunwind::LocalAddressSpace&, unsigned long, unsigned long, unsigned long, unsigned long, libunwind::CFI_Parser<libunwind::LocalAddressSpace>::FDE_Info*, libunwind::CFI_Parser<libunwind::LocalAddressSpace>::CIE_Info*)
PUBLIC 1b2a4 0 libunwind::EHHeaderParser<libunwind::LocalAddressSpace>::findFDE(libunwind::LocalAddressSpace&, unsigned long, unsigned long, unsigned int, libunwind::CFI_Parser<libunwind::LocalAddressSpace>::FDE_Info*, libunwind::CFI_Parser<libunwind::LocalAddressSpace>::CIE_Info*)
PUBLIC 1b40c 0 libunwind::EHHeaderParser<libunwind::LocalAddressSpace>::getTableEntrySize(unsigned char)
PUBLIC 1b508 0 libunwind::Registers_arm64::getRegisterName(int)
PUBLIC 1b538 0 __libunwind_Registers_arm64_jumpto
PUBLIC m 1b5c8 0 __unw_getcontext
PUBLIC 1b670 0 __aarch64_ldadd8_relax
PUBLIC 1b6a0 0 init_have_lse_atomics
PUBLIC 1b738 0 __init_cpu_features_constructor
PUBLIC 1bcd4 0 __init_cpu_features
PUBLIC 1bd60 0 __aarch64_ldadd8_acq_rel
FUNC 1bd90 400 0 __cxx_global_var_init
FUNC 1c190 1c 0 geode::modifier::ModifyBase<geode::modifier::ModifyDerive<hook6<(anonymous namespace)::hook6Parent>, CharacterColorPage> >::~ModifyBase()
FUNC 1c1ac d0c 0 geode::modifier::ModifyDerive<hook6<(anonymous namespace)::hook6Parent>, CharacterColorPage>::apply()
FUNC 1ceb8 30 0 geode::Mod::get<void>()
FUNC 1cee8 50 0 std::__ndk1::shared_ptr<geode::Hook>::~shared_ptr[abi:ne180000]()
FUNC 1cf38 74 0 geode::impl::ResultData<geode::Hook*, std::__ndk1::basic_string<char, std::__ndk1::char_traits<char>, std::__ndk1::allocator<char> > >::~ResultData()
FUNC 1cfac 7c 0 std::__ndk1::vector<std::__ndk1::basic_string<char, std::__ndk1::char_traits<char>, std::__ndk1::allocator<char> >, std::__ndk1::allocator<std::__ndk1::basic_string<char, std::__ndk1::char_traits<char>, std::__ndk1::allocator<char> > > >::~vector[abi:ne180000]()
FUNC 1d028 4 0 geode::modifier::ModifyBase<geode::modifier::ModifyDerive<hook6<(anonymous namespace)::hook6Parent>, CharacterColorPage> >::apply()
PUBLIC 1d02c 0 __clang_call_terminate
FUNC 1d03c 154 0 _ZN5geode15UnwrapExceptionC2IRPNS_4HookEQsr4implE18IsStringStreamableIT_EEENS_4impl5OkTagEOS5_
FUNC 1d190 34 0 std::__ndk1::__throw_bad_variant_access[abi:ne180000]()
FUNC 1d1c4 124 0 std::__ndk1::basic_stringstream<char, std::__ndk1::char_traits<char>, std::__ndk1::allocator<char> >::basic_stringstream[abi:ne180000]()
FUNC 1d2e8 80 0 std::__ndk1::basic_stringstream<char, std::__ndk1::char_traits<char>, std::__ndk1::allocator<char> >::~basic_stringstream()
FUNC 1d368 24 0 geode::UnwrapException::~UnwrapException()
FUNC 1d38c 198 0 std::__ndk1::__put_character_sequence[abi:ne180000]<char, std::__ndk1::char_traits<char> >(std::__ndk1::basic_ostream<char, std::__ndk1::char_traits<char> >, std::__ndk1::basic_ostream const*, unsigned long)
FUNC 1d524 1b4 0 std::__ndk1::__pad_and_output[abi:ne180000]<char, std::__ndk1::char_traits<char> >(std::__ndk1::char_traits<char>, std::__ndk1::ostreambuf_iterator const*, std::__ndk1::ostreambuf_iterator const, std::__ndk1::ostreambuf_iterator const, std::__ndk1::ios_base&, std::__ndk1::ostreambuf_iterator)
FUNC 1d6d8 14 0 std::__ndk1::basic_string<char, std::__ndk1::char_traits<char>, std::__ndk1::allocator<char> >::__throw_length_error[abi:ne180000]() const
FUNC 1d6ec 50 0 std::__ndk1::__throw_length_error[abi:ne180000](char const*)
FUNC 1d73c 30 0 std::length_error::length_error[abi:ne180000](char const*)
FUNC 1d76c 34 0 std::__throw_bad_array_new_length([abi:ne180000], void)
FUNC 1d7a0 15c 0 std::__ndk1::basic_stringbuf<char, std::__ndk1::char_traits<char>, std::__ndk1::allocator<char> >::str[abi:ne180000]() &&
FUNC 1d8fc 148 0 std::__ndk1::basic_stringbuf<char, std::__ndk1::char_traits<char>, std::__ndk1::allocator<char> >::__init_buf_ptrs[abi:ne180000]()
FUNC 1da44 21c 0 std::__ndk1::vector<std::__ndk1::basic_string<char, std::__ndk1::char_traits<char>, std::__ndk1::allocator<char> >, std::__ndk1::allocator<std::__ndk1::basic_string<char, std::__ndk1::char_traits<char>, std::__ndk1::allocator<char> > > >::__push_back_slow_path<std::__ndk1::basic_string<char, std::__ndk1::char_traits<char>, std::__ndk1::allocator<char> > const&>(std::__ndk1::basic_string<char, std::__ndk1::char_traits<char>, std::__ndk1::allocator<char> > const&)
FUNC 1dc60 70 0 std::__ndk1::basic_string<char, std::__ndk1::char_traits<char>, std::__ndk1::allocator<char> >::__init_copy_ctor_external(char const*, unsigned long)
FUNC 1dcd0 68 0 std::__ndk1::__split_buffer<std::__ndk1::basic_string<char, std::__ndk1::char_traits<char>, std::__ndk1::allocator<char> >, std::__ndk1::allocator<std::__ndk1::basic_string<char, std::__ndk1::char_traits<char>, std::__ndk1::allocator<char> > >&>::~__split_buffer()
FUNC 1dd38 14 0 std::__ndk1::vector<std::__ndk1::basic_string<char, std::__ndk1::char_traits<char>, std::__ndk1::allocator<char> >, std::__ndk1::allocator<std::__ndk1::basic_string<char, std::__ndk1::char_traits<char>, std::__ndk1::allocator<char> > > >::__throw_length_error[abi:ne180000]() const
FUNC 1dd4c 4 0 std::__ndk1::__variant_detail::__visitation::__base::__dispatcher<(unsigned long)0>::__dispatch[abi:ne180000]<std::__ndk1::__variant_detail::__dtor<std::__ndk1::__variant_detail::__traits<geode::Hook*, std::__ndk1::basic_string<char, std::__ndk1::char_traits<char>, std::__ndk1::allocator<char> > >, (std::__ndk1::__variant_detail::_Trait)1>::__destroy[abi:ne180000]()::{lambda(auto:1&)#1}, std::__ndk1::__variant_detail::__base<(std::__ndk1::__variant_detail::__traits<geode::Hook*, std::__ndk1::basic_string<char, std::__ndk1::char_traits<char>, std::__ndk1::allocator<char> > >)1, geode::Hook, std::__ndk1::allocator<char> >&>(std::__ndk1::__variant_detail::__dtor<std::__ndk1::__variant_detail::__traits<geode::Hook*, std::__ndk1::basic_string<char, std::__ndk1::char_traits<char>, std::__ndk1::allocator<char> > >, (std::__ndk1::__variant_detail::_Trait)1>, std::__ndk1::__variant_detail::__base<(std::__ndk1::__variant_detail::__traits<geode::Hook*, std::__ndk1::basic_string<char, std::__ndk1::char_traits<char>, std::__ndk1::allocator<char> > >)1, geode::Hook, std::__ndk1::allocator<char> >&)
FUNC 1dd50 14 0 std::__ndk1::__variant_detail::__visitation::__base::__dispatcher<(unsigned long)1>::__dispatch[abi:ne180000]<std::__ndk1::__variant_detail::__dtor<std::__ndk1::__variant_detail::__traits<geode::Hook*, std::__ndk1::basic_string<char, std::__ndk1::char_traits<char>, std::__ndk1::allocator<char> > >, (std::__ndk1::__variant_detail::_Trait)1>::__destroy[abi:ne180000]()::{lambda(auto:1&)#1}, std::__ndk1::__variant_detail::__base<(std::__ndk1::__variant_detail::__traits<geode::Hook*, std::__ndk1::basic_string<char, std::__ndk1::char_traits<char>, std::__ndk1::allocator<char> > >)1, geode::Hook, std::__ndk1::allocator<char> >&>(std::__ndk1::__variant_detail::__dtor<std::__ndk1::__variant_detail::__traits<geode::Hook*, std::__ndk1::basic_string<char, std::__ndk1::char_traits<char>, std::__ndk1::allocator<char> > >, (std::__ndk1::__variant_detail::_Trait)1>, std::__ndk1::__variant_detail::__base<(std::__ndk1::__variant_detail::__traits<geode::Hook*, std::__ndk1::basic_string<char, std::__ndk1::char_traits<char>, std::__ndk1::allocator<char> > >)1, geode::Hook, std::__ndk1::allocator<char> >&)
FUNC 1dd64 fc 0 std::__ndk1::__tree<std::__ndk1::__value_type<std::__ndk1::basic_string<char, std::__ndk1::char_traits<char>, std::__ndk1::allocator<char> >, std::__ndk1::shared_ptr<geode::Hook> >, std::__ndk1::__map_value_compare<std::__ndk1::basic_string<char, std::__ndk1::char_traits<char>, std::__ndk1::allocator<char> >, std::__ndk1::__value_type<std::__ndk1::basic_string<char, std::__ndk1::char_traits<char>, std::__ndk1::allocator<char> >, std::__ndk1::shared_ptr<geode::Hook> >, std::__ndk1::less<std::__ndk1::basic_string<char, std::__ndk1::char_traits<char>, std::__ndk1::allocator<char> > >, true>, std::__ndk1::allocator<std::__ndk1::__value_type<std::__ndk1::basic_string<char, std::__ndk1::char_traits<char>, std::__ndk1::allocator<char> >, std::__ndk1::shared_ptr<geode::Hook> > > >::find<std::__ndk1::basic_string<char, std::__ndk1::char_traits<char>, std::__ndk1::allocator<char> > >(std::__ndk1::basic_string<char, std::__ndk1::char_traits<char>, std::__ndk1::allocator<char> > const&)
FUNC 1de60 d4 0 std::__ndk1::__tree<std::__ndk1::__value_type<std::__ndk1::basic_string<char, std::__ndk1::char_traits<char>, std::__ndk1::allocator<char> >, std::__ndk1::shared_ptr<geode::Hook> >, std::__ndk1::__map_value_compare<std::__ndk1::basic_string<char, std::__ndk1::char_traits<char>, std::__ndk1::allocator<char> >, std::__ndk1::__value_type<std::__ndk1::basic_string<char, std::__ndk1::char_traits<char>, std::__ndk1::allocator<char> >, std::__ndk1::shared_ptr<geode::Hook> >, std::__ndk1::less<std::__ndk1::basic_string<char, std::__ndk1::char_traits<char>, std::__ndk1::allocator<char> > >, true>, std::__ndk1::allocator<std::__ndk1::__value_type<std::__ndk1::basic_string<char, std::__ndk1::char_traits<char>, std::__ndk1::allocator<char> >, std::__ndk1::shared_ptr<geode::Hook> > > >::erase(std::__ndk1::__tree_const_iterator<std::__ndk1::__value_type<std::__ndk1::basic_string<char, std::__ndk1::char_traits<char>, std::__ndk1::allocator<char> >, std::__ndk1::shared_ptr<geode::Hook> >, std::__ndk1::__tree_node<std::__ndk1::__value_type<std::__ndk1::basic_string<char, std::__ndk1::char_traits<char>, std::__ndk1::allocator<char> >, std::__ndk1::shared_ptr<geode::Hook> >, void*>*, long>)
FUNC 1df34 388 0 std::__ndk1::__tree_remove[abi:ne180000]<std::__ndk1::__tree_node_base<void*>*>(std::__ndk1::__tree_node_base<void*>*, std::__ndk1::__tree_node_base<void*>*)
FUNC 1e2bc 8c 0 std::__ndk1::__tree<std::__ndk1::__value_type<std::__ndk1::basic_string<char, std::__ndk1::char_traits<char>, std::__ndk1::allocator<char> >, std::__ndk1::shared_ptr<geode::Hook> >, std::__ndk1::__map_value_compare<std::__ndk1::basic_string<char, std::__ndk1::char_traits<char>, std::__ndk1::allocator<char> >, std::__ndk1::__value_type<std::__ndk1::basic_string<char, std::__ndk1::char_traits<char>, std::__ndk1::allocator<char> >, std::__ndk1::shared_ptr<geode::Hook> >, std::__ndk1::less<std::__ndk1::basic_string<char, std::__ndk1::char_traits<char>, std::__ndk1::allocator<char> > >, true>, std::__ndk1::allocator<std::__ndk1::__value_type<std::__ndk1::basic_string<char, std::__ndk1::char_traits<char>, std::__ndk1::allocator<char> >, std::__ndk1::shared_ptr<geode::Hook> > > >::destroy(std::__ndk1::__tree_node<std::__ndk1::__value_type<std::__ndk1::basic_string<char, std::__ndk1::char_traits<char>, std::__ndk1::allocator<char> >, std::__ndk1::shared_ptr<geode::Hook> >, void*>*)
FUNC 1e348 a8 0 geode::addresser::getVirtual<bool (CharacterColorPage::*)()>(bool (CharacterColorPage::*)())
FUNC 1e3f0 1538 0 geode::modifier::AsStaticFunction_init<hook6<(anonymous namespace)::hook6Parent>, bool (hook6<(anonymous namespace)::hook6Parent>::*)()>::Impl<bool (hook6<(anonymous namespace)::hook6Parent>::*)()>::function(hook6<(anonymous namespace)::hook6Parent>*)
FUNC 1f928 184 0 geode::Hook::create<void (*)(hook6<(anonymous namespace)::hook6Parent>*, cocos2d::CCObject*)>(void*, void (*)(hook6<(anonymous namespace)::hook6Parent>*, cocos2d::CCObject*), std::__ndk1::basic_string<char, std::__ndk1::char_traits<char>, std::__ndk1::allocator<char> > const&, tulip::hook::TulipConvention, tulip::hook::HookMetadata const&)
FUNC 1faac 5b0 0 geode::modifier::AsStaticFunction_onMode<hook6<(anonymous namespace)::hook6Parent>, void (hook6<(anonymous namespace)::hook6Parent>::*)(cocos2d::CCObject*)>::Impl<void (hook6<(anonymous namespace)::hook6Parent>::*)(cocos2d::CCObject*)>::function(hook6<(anonymous namespace)::hook6Parent>*, cocos2d::CCObject*)
FUNC 2005c 16d4 0 geode::modifier::AsStaticFunction_onPlayerColor<hook6<(anonymous namespace)::hook6Parent>, void (hook6<(anonymous namespace)::hook6Parent>::*)(cocos2d::CCObject*)>::Impl<void (hook6<(anonymous namespace)::hook6Parent>::*)(cocos2d::CCObject*)>::function(hook6<(anonymous namespace)::hook6Parent>*, cocos2d::CCObject*)
FUNC 21730 b20 0 geode::modifier::AsStaticFunction_toggleGlow<hook6<(anonymous namespace)::hook6Parent>, void (hook6<(anonymous namespace)::hook6Parent>::*)(cocos2d::CCObject*)>::Impl<void (hook6<(anonymous namespace)::hook6Parent>::*)(cocos2d::CCObject*)>::function(hook6<(anonymous namespace)::hook6Parent>*, cocos2d::CCObject*)
FUNC 22250 1d0 0 geode::modifier::AsStaticFunction_toggleShip<hook6<(anonymous namespace)::hook6Parent>, void (hook6<(anonymous namespace)::hook6Parent>::*)(cocos2d::CCObject*)>::Impl<void (hook6<(anonymous namespace)::hook6Parent>::*)(cocos2d::CCObject*)>::function(hook6<(anonymous namespace)::hook6Parent>*, cocos2d::CCObject*)
FUNC 22420 84 0 CharacterColorPage::CharacterColorPage(geode::ZeroConstructorType)
FUNC 224a4 50 0 std::__ndk1::shared_ptr<tulip::hook::CallingConvention>::~shared_ptr[abi:ne180000]()
FUNC 224f4 64 0 tulip::hook::HandlerMetadata::~HandlerMetadata()
FUNC 22558 1e0 0 geode::Mod::getSavedValue<bool>(std::__ndk1::basic_string_view<char, std::__ndk1::char_traits<char> >, bool const&)
FUNC 22738 1d0 0 geode::Mod::getSavedValue<long>(std::__ndk1::basic_string_view<char, std::__ndk1::char_traits<char> >, long const&)
FUNC 22908 154 0 cocos2d::CCNode::getChildByType<SimplePlayer, SimplePlayer>(int)
FUNC 22a5c 74 0 geode::impl::ResultData<matjson::Value&, std::__ndk1::basic_string<char, std::__ndk1::char_traits<char>, std::__ndk1::allocator<char> > >::~ResultData()
FUNC 22ad0 4 0 std::__ndk1::__variant_detail::__visitation::__base::__dispatcher<(unsigned long)0>::__dispatch[abi:ne180000]<std::__ndk1::__variant_detail::__dtor<std::__ndk1::__variant_detail::__traits<std::__ndk1::reference_wrapper<matjson::Value>, std::__ndk1::basic_string<char, std::__ndk1::char_traits<char>, std::__ndk1::allocator<char> > >, (std::__ndk1::__variant_detail::_Trait)1>::__destroy[abi:ne180000]()::{lambda(auto:1&)#1}, std::__ndk1::__variant_detail::__base<(std::__ndk1::__variant_detail::__traits<std::__ndk1::reference_wrapper<matjson::Value>, std::__ndk1::basic_string<char, std::__ndk1::char_traits<char>, std::__ndk1::allocator<char> > >)1, matjson::Value, std::__ndk1::allocator<char> >&>(std::__ndk1::__variant_detail::__dtor<std::__ndk1::__variant_detail::__traits<std::__ndk1::reference_wrapper<matjson::Value>, std::__ndk1::basic_string<char, std::__ndk1::char_traits<char>, std::__ndk1::allocator<char> > >, (std::__ndk1::__variant_detail::_Trait)1>, std::__ndk1::__variant_detail::__base<(std::__ndk1::__variant_detail::__traits<std::__ndk1::reference_wrapper<matjson::Value>, std::__ndk1::basic_string<char, std::__ndk1::char_traits<char>, std::__ndk1::allocator<char> > >)1, matjson::Value, std::__ndk1::allocator<char> >&)
FUNC 22ad4 14 0 std::__ndk1::__variant_detail::__visitation::__base::__dispatcher<(unsigned long)1>::__dispatch[abi:ne180000]<std::__ndk1::__variant_detail::__dtor<std::__ndk1::__variant_detail::__traits<std::__ndk1::reference_wrapper<matjson::Value>, std::__ndk1::basic_string<char, std::__ndk1::char_traits<char>, std::__ndk1::allocator<char> > >, (std::__ndk1::__variant_detail::_Trait)1>::__destroy[abi:ne180000]()::{lambda(auto:1&)#1}, std::__ndk1::__variant_detail::__base<(std::__ndk1::__variant_detail::__traits<std::__ndk1::reference_wrapper<matjson::Value>, std::__ndk1::basic_string<char, std::__ndk1::char_traits<char>, std::__ndk1::allocator<char> > >)1, matjson::Value, std::__ndk1::allocator<char> >&>(std::__ndk1::__variant_detail::__dtor<std::__ndk1::__variant_detail::__traits<std::__ndk1::reference_wrapper<matjson::Value>, std::__ndk1::basic_string<char, std::__ndk1::char_traits<char>, std::__ndk1::allocator<char> > >, (std::__ndk1::__variant_detail::_Trait)1>, std::__ndk1::__variant_detail::__base<(std::__ndk1::__variant_detail::__traits<std::__ndk1::reference_wrapper<matjson::Value>, std::__ndk1::basic_string<char, std::__ndk1::char_traits<char>, std::__ndk1::allocator<char> > >)1, matjson::Value, std::__ndk1::allocator<char> >&)
FUNC 22ae8 4 0 std::__ndk1::__variant_detail::__visitation::__base::__dispatcher<(unsigned long)0>::__dispatch[abi:ne180000]<std::__ndk1::__variant_detail::__dtor<std::__ndk1::__variant_detail::__traits<bool, std::__ndk1::basic_string<char, std::__ndk1::char_traits<char>, std::__ndk1::allocator<char> > >, (std::__ndk1::__variant_detail::_Trait)1>::__destroy[abi:ne180000]()::{lambda(auto:1&)#1}, std::__ndk1::__variant_detail::__base<(std::__ndk1::__variant_detail::__traits<bool, std::__ndk1::basic_string<char, std::__ndk1::char_traits<char>, std::__ndk1::allocator<char> > >)1, bool, std::__ndk1::allocator<char> >&>(std::__ndk1::__variant_detail::__dtor<std::__ndk1::__variant_detail::__traits<bool, std::__ndk1::basic_string<char, std::__ndk1::char_traits<char>, std::__ndk1::allocator<char> > >, (std::__ndk1::__variant_detail::_Trait)1>, std::__ndk1::__variant_detail::__base<(std::__ndk1::__variant_detail::__traits<bool, std::__ndk1::basic_string<char, std::__ndk1::char_traits<char>, std::__ndk1::allocator<char> > >)1, bool, std::__ndk1::allocator<char> >&)
FUNC 22aec 14 0 std::__ndk1::__variant_detail::__visitation::__base::__dispatcher<(unsigned long)1>::__dispatch[abi:ne180000]<std::__ndk1::__variant_detail::__dtor<std::__ndk1::__variant_detail::__traits<bool, std::__ndk1::basic_string<char, std::__ndk1::char_traits<char>, std::__ndk1::allocator<char> > >, (std::__ndk1::__variant_detail::_Trait)1>::__destroy[abi:ne180000]()::{lambda(auto:1&)#1}, std::__ndk1::__variant_detail::__base<(std::__ndk1::__variant_detail::__traits<bool, std::__ndk1::basic_string<char, std::__ndk1::char_traits<char>, std::__ndk1::allocator<char> > >)1, bool, std::__ndk1::allocator<char> >&>(std::__ndk1::__variant_detail::__dtor<std::__ndk1::__variant_detail::__traits<bool, std::__ndk1::basic_string<char, std::__ndk1::char_traits<char>, std::__ndk1::allocator<char> > >, (std::__ndk1::__variant_detail::_Trait)1>, std::__ndk1::__variant_detail::__base<(std::__ndk1::__variant_detail::__traits<bool, std::__ndk1::basic_string<char, std::__ndk1::char_traits<char>, std::__ndk1::allocator<char> > >)1, bool, std::__ndk1::allocator<char> >&)
FUNC 22b00 104 0 matjson::Value::as<long>() const
FUNC 22c04 4 0 std::__ndk1::__variant_detail::__visitation::__base::__dispatcher<(unsigned long)0>::__dispatch[abi:ne180000]<std::__ndk1::__variant_detail::__dtor<std::__ndk1::__variant_detail::__traits<long, std::__ndk1::basic_string<char, std::__ndk1::char_traits<char>, std::__ndk1::allocator<char> > >, (std::__ndk1::__variant_detail::_Trait)1>::__destroy[abi:ne180000]()::{lambda(auto:1&)#1}, std::__ndk1::__variant_detail::__base<(std::__ndk1::__variant_detail::__traits<long, std::__ndk1::basic_string<char, std::__ndk1::char_traits<char>, std::__ndk1::allocator<char> > >)1, long, std::__ndk1::allocator<char> >&>(std::__ndk1::__variant_detail::__dtor<std::__ndk1::__variant_detail::__traits<long, std::__ndk1::basic_string<char, std::__ndk1::char_traits<char>, std::__ndk1::allocator<char> > >, (std::__ndk1::__variant_detail::_Trait)1>, std::__ndk1::__variant_detail::__base<(std::__ndk1::__variant_detail::__traits<long, std::__ndk1::basic_string<char, std::__ndk1::char_traits<char>, std::__ndk1::allocator<char> > >)1, long, std::__ndk1::allocator<char> >&)
FUNC 22c08 14 0 std::__ndk1::__variant_detail::__visitation::__base::__dispatcher<(unsigned long)1>::__dispatch[abi:ne180000]<std::__ndk1::__variant_detail::__dtor<std::__ndk1::__variant_detail::__traits<long, std::__ndk1::basic_string<char, std::__ndk1::char_traits<char>, std::__ndk1::allocator<char> > >, (std::__ndk1::__variant_detail::_Trait)1>::__destroy[abi:ne180000]()::{lambda(auto:1&)#1}, std::__ndk1::__variant_detail::__base<(std::__ndk1::__variant_detail::__traits<long, std::__ndk1::basic_string<char, std::__ndk1::char_traits<char>, std::__ndk1::allocator<char> > >)1, long, std::__ndk1::allocator<char> >&>(std::__ndk1::__variant_detail::__dtor<std::__ndk1::__variant_detail::__traits<long, std::__ndk1::basic_string<char, std::__ndk1::char_traits<char>, std::__ndk1::allocator<char> > >, (std::__ndk1::__variant_detail::_Trait)1>, std::__ndk1::__variant_detail::__base<(std::__ndk1::__variant_detail::__traits<long, std::__ndk1::basic_string<char, std::__ndk1::char_traits<char>, std::__ndk1::allocator<char> > >)1, long, std::__ndk1::allocator<char> >&)
FUNC 22c1c e4 0 geode::cast::traverseTypeinfoFor(void*, geode::cast::ClassTypeinfoType const*, char const*)
FUNC 22d00 104 0 std::__ndk1::__tree<std::__ndk1::__value_type<std::__ndk1::basic_string<char, std::__ndk1::char_traits<char>, std::__ndk1::allocator<char> >, std::__ndk1::shared_ptr<geode::Hook> >, std::__ndk1::__map_value_compare<std::__ndk1::basic_string<char, std::__ndk1::char_traits<char>, std::__ndk1::allocator<char> >, std::__ndk1::__value_type<std::__ndk1::basic_string<char, std::__ndk1::char_traits<char>, std::__ndk1::allocator<char> >, std::__ndk1::shared_ptr<geode::Hook> >, std::__ndk1::less<std::__ndk1::basic_string<char, std::__ndk1::char_traits<char>, std::__ndk1::allocator<char> > >, true>, std::__ndk1::allocator<std::__ndk1::__value_type<std::__ndk1::basic_string<char, std::__ndk1::char_traits<char>, std::__ndk1::allocator<char> >, std::__ndk1::shared_ptr<geode::Hook> > > >::__find_equal<std::__ndk1::basic_string<char, std::__ndk1::char_traits<char>, std::__ndk1::allocator<char> > >(std::__ndk1::__tree_end_node<std::__ndk1::__tree_node_base<void*>*>*&, std::__ndk1::basic_string<char, std::__ndk1::char_traits<char>, std::__ndk1::allocator<char> > const&)
FUNC 22e04 19c 0 std::__ndk1::__tree_balance_after_insert[abi:ne180000]<std::__ndk1::__tree_node_base<void*>*>(std::__ndk1::__tree_node_base<void*>*, std::__ndk1::__tree_node_base<void*>*)
FUNC 22fa0 18c 0 geode::modifier::FieldIntermediate<hook6<(anonymous namespace)::hook6Parent>, CharacterColorPage>::operator->()
FUNC 2312c 290 0 geode::modifier::FieldContainer::getField(unsigned long)
FUNC 233bc 114 0 geode::modifier::FieldContainer::setField(unsigned long, unsigned long, std::__ndk1::function<void (void*)>)
FUNC 234d0 4 0 geode::modifier::FieldIntermediate<hook6<(anonymous namespace)::hook6Parent>, CharacterColorPage>::fieldDestructor(void*)
FUNC 234d4 14 0 std::__ndk1::vector<void*, std::__ndk1::allocator<void*> >::__throw_length_error[abi:ne180000]() const
FUNC 234e8 200 0 std::__ndk1::vector<std::__ndk1::function<void (void*)>, std::__ndk1::allocator<std::__ndk1::function<void (void*)> > >::__push_back_slow_path<std::__ndk1::function<void (void*)> >(std::__ndk1::function<void (void*)>&&)
FUNC 236e8 14 0 std::__ndk1::vector<std::__ndk1::function<void (void*)>, std::__ndk1::allocator<std::__ndk1::function<void (void*)> > >::__throw_length_error[abi:ne180000]() const
FUNC 236fc 14 0 std::__ndk1::vector<void*, std::__ndk1::allocator<void*> >::__throw_out_of_range[abi:ne180000]() const
FUNC 23710 50 0 std::__ndk1::__throw_out_of_range[abi:ne180000](char const*)
FUNC 23760 30 0 std::out_of_range::out_of_range[abi:ne180000](char const*)
FUNC 23790 14 0 std::__ndk1::vector<std::__ndk1::function<void (void*)>, std::__ndk1::allocator<std::__ndk1::function<void (void*)> > >::__throw_out_of_range[abi:ne180000]() const
FUNC 237a4 4 0 std::__ndk1::__function::__base<void (void*)>::~__base()
FUNC 237a8 4 0 std::__ndk1::__function::__func<void (*)(void*), std::__ndk1::allocator<void (*)(void*)>, void (void*)>::~__func()
FUNC 237ac 38 0 std::__ndk1::__function::__func<void (*)(void*), std::__ndk1::allocator<void (*)(void*)>, void (void*)>::__clone() const
FUNC 237e4 18 0 std::__ndk1::__function::__func<void (*)(void*), std::__ndk1::allocator<void (*)(void*)>, void (void*)>::__clone(std::__ndk1::__function::__base<void (void*)>*) const
FUNC 237fc 4 0 std::__ndk1::__function::__func<void (*)(void*), std::__ndk1::allocator<void (*)(void*)>, void (void*)>::destroy()
FUNC 23800 4 0 std::__ndk1::__function::__func<void (*)(void*), std::__ndk1::allocator<void (*)(void*)>, void (void*)>::destroy_deallocate()
FUNC 23804 10 0 std::__ndk1::__function::__func<void (*)(void*), std::__ndk1::allocator<void (*)(void*)>, void (void*)>::operator()(void*&&)
FUNC 23814 1c 0 std::__ndk1::__function::__func<void (*)(void*), std::__ndk1::allocator<void (*)(void*)>, void (void*)>::target(std::type_info const&) const
FUNC 23830 c 0 std::__ndk1::__function::__func<void (*)(void*), std::__ndk1::allocator<void (*)(void*)>, void (void*)>::target_type() const
FUNC 2383c d0 0 geode::Mod::setSavedValue<long>(std::__ndk1::basic_string_view<char, std::__ndk1::char_traits<char> >, long const&)
FUNC 2390c 14 0 std::__ndk1::vector<SimplePlayer*, std::__ndk1::allocator<SimplePlayer*> >::__throw_length_error[abi:ne180000]() const
FUNC 23920 178 0 geode::Mod::getSavedValue<long>(std::__ndk1::basic_string_view<char, std::__ndk1::char_traits<char> >)
FUNC 23a98 d0 0 geode::Mod::setSavedValue<bool>(std::__ndk1::basic_string_view<char, std::__ndk1::char_traits<char> >, bool const&)
FUNC 23b68 184 0 geode::Mod::getSavedValue<bool>(std::__ndk1::basic_string_view<char, std::__ndk1::char_traits<char> >)
FUNC 23cec 444 0 __cxx_global_var_init
FUNC 24130 1c 0 geode::modifier::ModifyBase<geode::modifier::ModifyDerive<MyGarageLayer, GJGarageLayer> >::~ModifyBase()
FUNC 2414c 9fc 0 geode::modifier::ModifyDerive<MyGarageLayer, GJGarageLayer>::apply()
FUNC 24b48 4 0 geode::modifier::ModifyBase<geode::modifier::ModifyDerive<MyGarageLayer, GJGarageLayer> >::apply()
FUNC 24b4c a8 0 geode::addresser::getVirtual<bool (GJGarageLayer::*)()>(bool (GJGarageLayer::*)())
FUNC 24bf4 cc0 0 geode::modifier::AsStaticFunction_init<MyGarageLayer, bool (MyGarageLayer::*)()>::Impl<bool (MyGarageLayer::*)()>::function(MyGarageLayer*)
FUNC 258b4 f44 0 geode::modifier::AsStaticFunction_onSelect<MyGarageLayer, void (MyGarageLayer::*)(cocos2d::CCObject*)>::Impl<void (MyGarageLayer::*)(cocos2d::CCObject*)>::function(MyGarageLayer*, cocos2d::CCObject*)
FUNC 267f8 10c8 0 geode::modifier::AsStaticFunction_setupPage<MyGarageLayer, void (MyGarageLayer::*)(int, IconType)>::Impl<void (MyGarageLayer::*)(int, IconType)>::function(MyGarageLayer*, int, IconType)
FUNC 278c0 b4 0 GJGarageLayer::GJGarageLayer(geode::ZeroConstructorType)
FUNC 27974 14 0 std::__ndk1::vector<tulip::hook::AbstractType, std::__ndk1::allocator<tulip::hook::AbstractType> >::__throw_length_error[abi:ne180000]() const
FUNC 27988 150c 0 MyGarageLayer::on2PToggle(cocos2d::CCObject*)
FUNC 28e94 1438 0 MyGarageLayer::swap2PKit(cocos2d::CCObject*)
FUNC 2a2cc 188 0 geode::modifier::FieldIntermediate<MyGarageLayer, GJGarageLayer>::self()
FUNC 2a454 4 0 geode::modifier::FieldIntermediate<MyGarageLayer, GJGarageLayer>::fieldDestructor(void*)
FUNC 2a458 20 0 geode::cocos::CCArrayExt<CCMenuItemSpriteExtra*, CCMenuItemSpriteExtra>::~CCArrayExt()
FUNC 2a478 4 0 std::__ndk1::__variant_detail::__visitation::__base::__dispatcher<(unsigned long)0>::__dispatch[abi:ne180000]<std::__ndk1::__variant_detail::__dtor<std::__ndk1::__variant_detail::__traits<int, std::__ndk1::basic_string<char, std::__ndk1::char_traits<char>, std::__ndk1::allocator<char> > >, (std::__ndk1::__variant_detail::_Trait)1>::__destroy[abi:ne180000]()::{lambda(auto:1&)#1}, std::__ndk1::__variant_detail::__base<(std::__ndk1::__variant_detail::__traits<int, std::__ndk1::basic_string<char, std::__ndk1::char_traits<char>, std::__ndk1::allocator<char> > >)1, int, std::__ndk1::allocator<char> >&>(std::__ndk1::__variant_detail::__dtor<std::__ndk1::__variant_detail::__traits<int, std::__ndk1::basic_string<char, std::__ndk1::char_traits<char>, std::__ndk1::allocator<char> > >, (std::__ndk1::__variant_detail::_Trait)1>, std::__ndk1::__variant_detail::__base<(std::__ndk1::__variant_detail::__traits<int, std::__ndk1::basic_string<char, std::__ndk1::char_traits<char>, std::__ndk1::allocator<char> > >)1, int, std::__ndk1::allocator<char> >&)
FUNC 2a47c 14 0 std::__ndk1::__variant_detail::__visitation::__base::__dispatcher<(unsigned long)1>::__dispatch[abi:ne180000]<std::__ndk1::__variant_detail::__dtor<std::__ndk1::__variant_detail::__traits<int, std::__ndk1::basic_string<char, std::__ndk1::char_traits<char>, std::__ndk1::allocator<char> > >, (std::__ndk1::__variant_detail::_Trait)1>::__destroy[abi:ne180000]()::{lambda(auto:1&)#1}, std::__ndk1::__variant_detail::__base<(std::__ndk1::__variant_detail::__traits<int, std::__ndk1::basic_string<char, std::__ndk1::char_traits<char>, std::__ndk1::allocator<char> > >)1, int, std::__ndk1::allocator<char> >&>(std::__ndk1::__variant_detail::__dtor<std::__ndk1::__variant_detail::__traits<int, std::__ndk1::basic_string<char, std::__ndk1::char_traits<char>, std::__ndk1::allocator<char> > >, (std::__ndk1::__variant_detail::_Trait)1>, std::__ndk1::__variant_detail::__base<(std::__ndk1::__variant_detail::__traits<int, std::__ndk1::basic_string<char, std::__ndk1::char_traits<char>, std::__ndk1::allocator<char> > >)1, int, std::__ndk1::allocator<char> >&)
FUNC 2a490 c8 0 MyGarageLayer::onSpecialRep(cocos2d::CCObject*)
FUNC 2a558 400 0 __cxx_global_var_init
FUNC 2a958 1c 0 geode::modifier::ModifyBase<geode::modifier::ModifyDerive<hook6<(anonymous namespace)::hook6Parent>, LevelEditorLayer> >::~ModifyBase()
FUNC 2a974 6c8 0 geode::modifier::ModifyDerive<hook6<(anonymous namespace)::hook6Parent>, LevelEditorLayer>::apply()
FUNC 2b03c 4 0 geode::modifier::ModifyBase<geode::modifier::ModifyDerive<hook6<(anonymous namespace)::hook6Parent>, LevelEditorLayer> >::apply()
FUNC 2b040 b8 0 geode::addresser::getVirtual<void (LevelEditorLayer::*)(float)>(void (LevelEditorLayer::*)(float))
FUNC 2b0f8 3d0 0 geode::modifier::AsStaticFunction_postUpdate<hook6<(anonymous namespace)::hook6Parent>, void (hook6<(anonymous namespace)::hook6Parent>::*)(float)>::Impl<void (hook6<(anonymous namespace)::hook6Parent>::*)(float)>::function(hook6<(anonymous namespace)::hook6Parent>*, float)
FUNC 2b4c8 4d4 0 geode::modifier::AsStaticFunction_onPlaytest<hook6<(anonymous namespace)::hook6Parent>, void (hook6<(anonymous namespace)::hook6Parent>::*)()>::Impl<void (hook6<(anonymous namespace)::hook6Parent>::*)()>::function(hook6<(anonymous namespace)::hook6Parent>*)
FUNC 2b99c 770 0 LevelEditorLayer::LevelEditorLayer(geode::ZeroConstructorType)
FUNC 2c10c 550 0 GJGameState::GJGameState()
FUNC 2c65c 78 0 geode::stl::unordered_map<int, int, geode::stl::hash<int>, geode::stl::equal_to<int>, std::__ndk1::allocator<std::__ndk1::pair<int const, int> > >::~unordered_map()
FUNC 2c6d4 78 0 geode::stl::unordered_set<int, geode::stl::hash<int>, geode::stl::equal_to<int>, std::__ndk1::allocator<int> >::~unordered_set()
FUNC 2c74c 84 0 geode::stl::unordered_map<int, gd::string, geode::stl::hash<int>, geode::stl::equal_to<int>, std::__ndk1::allocator<std::__ndk1::pair<int const, gd::string> > >::~unordered_map()
FUNC 2c7d0 1c 0 gd::map<std::__ndk1::pair<int, int>, int>::~map()
FUNC 2c7ec 8c 0 geode::stl::unordered_map<int, gd::vector<LabelGameObject*>, geode::stl::hash<int>, geode::stl::equal_to<int>, std::__ndk1::allocator<std::__ndk1::pair<int const, gd::vector<LabelGameObject*> > > >::~unordered_map()
FUNC 2c878 78 0 geode::stl::unordered_map<int, std::__ndk1::pair<int, int>, geode::stl::hash<int>, geode::stl::equal_to<int>, std::__ndk1::allocator<std::__ndk1::pair<int const, std::__ndk1::pair<int, int> > > >::~unordered_map()
FUNC 2c8f0 8c 0 geode::stl::unordered_map<int, gd::vector<GameObject*>, geode::stl::hash<int>, geode::stl::equal_to<int>, std::__ndk1::allocator<std::__ndk1::pair<int const, gd::vector<GameObject*> > > >::~unordered_map()
FUNC 2c97c 78 0 geode::stl::unordered_map<int, cocos2d::CCPoint, geode::stl::hash<int>, geode::stl::equal_to<int>, std::__ndk1::allocator<std::__ndk1::pair<int const, cocos2d::CCPoint> > >::~unordered_map()
FUNC 2c9f4 104 0 gd::vector<geode::stl::unordered_map<int, int, geode::stl::hash<int>, geode::stl::equal_to<int>, std::__ndk1::allocator<std::__ndk1::pair<int const, int> > > >::~vector()
FUNC 2caf8 440 0 GJGameState::~GJGameState()
FUNC 2cf38 78 0 geode::stl::unordered_map<int, SongChannelState, geode::stl::hash<int>, geode::stl::equal_to<int>, std::__ndk1::allocator<std::__ndk1::pair<int const, SongChannelState> > >::~unordered_map()
FUNC 2cfb0 1c 0 gd::map<std::__ndk1::pair<int, int>, SFXTriggerInstance>::~map()
FUNC 2cfcc 90 0 geode::stl::unordered_map<int, std::__ndk1::vector<int, std::__ndk1::allocator<int> >, geode::stl::hash<int>, geode::stl::equal_to<int>, std::__ndk1::allocator<std::__ndk1::pair<int const, std::__ndk1::vector<int, std::__ndk1::allocator<int> > > > >::~unordered_map()
FUNC 2d05c 98 0 gd::vector<EnterEffectInstance>::~vector()
FUNC 2d0f4 60 0 geode::stl::unordered_map<int, std::__ndk1::vector<EnterEffectInstance, std::__ndk1::allocator<EnterEffectInstance> >, geode::stl::hash<int>, geode::stl::equal_to<int>, std::__ndk1::allocator<std::__ndk1::pair<int const, std::__ndk1::vector<EnterEffectInstance, std::__ndk1::allocator<EnterEffectInstance> > > > >::~unordered_map()
FUNC 2d154 1c 0 gd::map<std::__ndk1::pair<GJGameEvent, int>, int>::~map()
FUNC 2d170 1c 0 gd::map<std::__ndk1::pair<GJGameEvent, int>, gd::vector<EventTriggerInstance> >::~map()
FUNC 2d18c 78 0 geode::stl::unordered_map<int, EnhancedGameObject*, geode::stl::hash<int>, geode::stl::equal_to<int>, std::__ndk1::allocator<std::__ndk1::pair<int const, EnhancedGameObject*> > >::~unordered_map()
FUNC 2d204 78 0 geode::stl::unordered_map<int, GameObjectPhysics, geode::stl::hash<int>, geode::stl::equal_to<int>, std::__ndk1::allocator<std::__ndk1::pair<int const, GameObjectPhysics> > >::~unordered_map()
FUNC 2d27c 78 0 geode::stl::unordered_map<int, GJValueTween, geode::stl::hash<int>, geode::stl::equal_to<int>, std::__ndk1::allocator<std::__ndk1::pair<int const, GJValueTween> > >::~unordered_map()
FUNC 2d2f4 78 0 geode::stl::unordered_map<int, bool, geode::stl::hash<int>, geode::stl::equal_to<int>, std::__ndk1::allocator<std::__ndk1::pair<int const, bool> > >::~unordered_map()
FUNC 2d36c 1cc 0 gd::map<std::__ndk1::pair<GJGameEvent, int>, gd::vector<EventTriggerInstance> >::map(std::__ndk1::map<std::__ndk1::pair<GJGameEvent, int>, gd::vector<EventTriggerInstance>, std::__ndk1::less<std::__ndk1::pair<GJGameEvent, int> >, std::__ndk1::allocator<std::__ndk1::pair<std::__ndk1::pair<GJGameEvent, int> const, gd::vector<EventTriggerInstance> > > >)
FUNC 2d538 250 0 gd::map<std::__ndk1::pair<GJGameEvent, int>, gd::vector<EventTriggerInstance> >::insert_pair(std::__ndk1::pair<std::__ndk1::pair<GJGameEvent, int>, gd::vector<EventTriggerInstance> > const&)
FUNC 2d788 80 0 std::__ndk1::pair<std::__ndk1::pair<GJGameEvent, int>, gd::vector<EventTriggerInstance> >::~pair()
FUNC 2d808 80 0 std::__ndk1::pair<std::__ndk1::pair<GJGameEvent, int> const, gd::vector<EventTriggerInstance> >::~pair()
FUNC 2d888 194 0 gd::vector<EventTriggerInstance>::vector(gd::vector<EventTriggerInstance> const&)
FUNC 2da1c 250 0 geode::stl::_rb_insert_rebalance(bool, geode::stl::_rb_tree_base*, geode::stl::_rb_tree_base*, geode::stl::_rb_tree_base&)
FUNC 2dc6c 1c8 0 gd::vector<EventTriggerInstance>::operator=(gd::vector<EventTriggerInstance> const&)
FUNC 2de34 80 0 gd::vector<EventTriggerInstance>::~vector()
FUNC 2deb4 98 0 std::__ndk1::__tree<std::__ndk1::__value_type<std::__ndk1::pair<GJGameEvent, int>, gd::vector<EventTriggerInstance> >, std::__ndk1::__map_value_compare<std::__ndk1::pair<GJGameEvent, int>, std::__ndk1::__value_type<std::__ndk1::pair<GJGameEvent, int>, gd::vector<EventTriggerInstance> >, std::__ndk1::less<std::__ndk1::pair<GJGameEvent, int> >, true>, std::__ndk1::allocator<std::__ndk1::__value_type<std::__ndk1::pair<GJGameEvent, int>, gd::vector<EventTriggerInstance> > > >::destroy(std::__ndk1::__tree_node<std::__ndk1::__value_type<std::__ndk1::pair<GJGameEvent, int>, gd::vector<EventTriggerInstance> >, void*>*)
FUNC 2df4c 4c 0 gd::map<std::__ndk1::pair<int, int>, SFXTriggerInstance>::erase(geode::stl::_rb_tree_node<std::__ndk1::pair<std::__ndk1::pair<int, int>, SFXTriggerInstance> >*)
FUNC 2df98 4c 0 gd::map<int, EnterEffectAnimValue>::erase(geode::stl::_rb_tree_node<std::__ndk1::pair<int, EnterEffectAnimValue> >*)
FUNC 2dfe4 88 0 geode::stl::__detail::_Hashtable_alloc<std::__ndk1::allocator<geode::stl::__detail::_Hash_node<std::__ndk1::pair<int const, std::__ndk1::vector<EnterEffectInstance, std::__ndk1::allocator<EnterEffectInstance> > >, false> > >::_M_deallocate_nodes(geode::stl::__detail::_Hash_node<std::__ndk1::pair<int const, std::__ndk1::vector<EnterEffectInstance, std::__ndk1::allocator<EnterEffectInstance> > >, false>*)
FUNC 2e06c 4c 0 gd::map<std::__ndk1::pair<GJGameEvent, int>, int>::erase(geode::stl::_rb_tree_node<std::__ndk1::pair<std::__ndk1::pair<GJGameEvent, int>, int> >*)
FUNC 2e0b8 a8 0 gd::map<std::__ndk1::pair<GJGameEvent, int>, gd::vector<EventTriggerInstance> >::erase(geode::stl::_rb_tree_node<std::__ndk1::pair<std::__ndk1::pair<GJGameEvent, int>, gd::vector<EventTriggerInstance> > >*)
FUNC 2e160 4c 0 gd::map<std::__ndk1::pair<int, int>, int>::erase(geode::stl::_rb_tree_node<std::__ndk1::pair<std::__ndk1::pair<int, int>, int> >*)
FUNC 2e1ac 18c 0 geode::modifier::FieldIntermediate<hook6<(anonymous namespace)::hook6Parent>, LevelEditorLayer>::operator->()
FUNC 2e338 4 0 geode::modifier::FieldIntermediate<hook6<(anonymous namespace)::hook6Parent>, LevelEditorLayer>::fieldDestructor(void*)
FUNC 2e33c 400 0 __cxx_global_var_init
FUNC 2e73c 1c 0 geode::modifier::ModifyBase<geode::modifier::ModifyDerive<hook6<(anonymous namespace)::hook6Parent>, PlayLayer> >::~ModifyBase()
FUNC 2e758 400 0 geode::modifier::ModifyDerive<hook6<(anonymous namespace)::hook6Parent>, PlayLayer>::apply()
FUNC 2eb58 4 0 geode::modifier::ModifyBase<geode::modifier::ModifyDerive<hook6<(anonymous namespace)::hook6Parent>, PlayLayer> >::apply()
FUNC 2eb5c 4ac 0 geode::modifier::AsStaticFunction_init<hook6<(anonymous namespace)::hook6Parent>, bool (hook6<(anonymous namespace)::hook6Parent>::*)(GJGameLevel*, bool, bool)>::Impl<bool (hook6<(anonymous namespace)::hook6Parent>::*)(GJGameLevel*, bool, bool)>::function(hook6<(anonymous namespace)::hook6Parent>*, GJGameLevel*, bool, bool)
FUNC 2f008 400 0 __cxx_global_var_init
FUNC 2f408 1c 0 geode::modifier::ModifyBase<geode::modifier::ModifyDerive<hook6<(anonymous namespace)::hook6Parent>, PlayerObject> >::~ModifyBase()
FUNC 2f424 1e10 0 geode::modifier::ModifyDerive<hook6<(anonymous namespace)::hook6Parent>, PlayerObject>::apply()
FUNC 31234 4 0 geode::modifier::ModifyBase<geode::modifier::ModifyDerive<hook6<(anonymous namespace)::hook6Parent>, PlayerObject> >::apply()
FUNC 31238 b8 0 geode::addresser::getVirtual<void (PlayerObject::*)(cocos2d::_ccColor3B const&)>(void (PlayerObject::*)(cocos2d::_ccColor3B const&))
FUNC 312f0 184 0 geode::Hook::create<void (*)(hook6<(anonymous namespace)::hook6Parent>*, cocos2d::_ccColor3B const&)>(void*, void (*)(hook6<(anonymous namespace)::hook6Parent>*, cocos2d::_ccColor3B const&), std::__ndk1::basic_string<char, std::__ndk1::char_traits<char>, std::__ndk1::allocator<char> > const&, tulip::hook::TulipConvention, tulip::hook::HookMetadata const&)
FUNC 31474 e4 0 geode::modifier::AsStaticFunction_setColor<hook6<(anonymous namespace)::hook6Parent>, void (hook6<(anonymous namespace)::hook6Parent>::*)(cocos2d::_ccColor3B const&)>::Impl<void (hook6<(anonymous namespace)::hook6Parent>::*)(cocos2d::_ccColor3B const&)>::function(hook6<(anonymous namespace)::hook6Parent>*, cocos2d::_ccColor3B const&)
FUNC 31558 134 0 geode::Hook::create<void (*)(hook6<(anonymous namespace)::hook6Parent>*)>(void*, void (*)(hook6<(anonymous namespace)::hook6Parent>*), std::__ndk1::basic_string<char, std::__ndk1::char_traits<char>, std::__ndk1::allocator<char> > const&, tulip::hook::TulipConvention, tulip::hook::HookMetadata const&)
FUNC 3168c 164 0 geode::modifier::AsStaticFunction_playDeathEffect<hook6<(anonymous namespace)::hook6Parent>, void (hook6<(anonymous namespace)::hook6Parent>::*)()>::Impl<void (hook6<(anonymous namespace)::hook6Parent>::*)()>::function(hook6<(anonymous namespace)::hook6Parent>*)
FUNC 317f0 e4 0 geode::modifier::AsStaticFunction_setSecondColor<hook6<(anonymous namespace)::hook6Parent>, void (hook6<(anonymous namespace)::hook6Parent>::*)(cocos2d::_ccColor3B const&)>::Impl<void (hook6<(anonymous namespace)::hook6Parent>::*)(cocos2d::_ccColor3B const&)>::function(hook6<(anonymous namespace)::hook6Parent>*, cocos2d::_ccColor3B const&)
FUNC 318d4 188 0 geode::modifier::AsStaticFunction_setupStreak<hook6<(anonymous namespace)::hook6Parent>, void (hook6<(anonymous namespace)::hook6Parent>::*)()>::Impl<void (hook6<(anonymous namespace)::hook6Parent>::*)()>::function(hook6<(anonymous namespace)::hook6Parent>*)
FUNC 31a5c 2e8 0 geode::modifier::AsStaticFunction_togglePlayerScale<hook6<(anonymous namespace)::hook6Parent>, void (hook6<(anonymous namespace)::hook6Parent>::*)(bool, bool)>::Impl<void (hook6<(anonymous namespace)::hook6Parent>::*)(bool, bool)>::function(hook6<(anonymous namespace)::hook6Parent>*, bool, bool)
FUNC 31d44 184 0 geode::Hook::create<void (*)(hook6<(anonymous namespace)::hook6Parent>*, int)>(void*, void (*)(hook6<(anonymous namespace)::hook6Parent>*, int), std::__ndk1::basic_string<char, std::__ndk1::char_traits<char>, std::__ndk1::allocator<char> > const&, tulip::hook::TulipConvention, tulip::hook::HookMetadata const&)
FUNC 31ec8 c4 0 geode::modifier::AsStaticFunction_updatePlayerBirdFrame<hook6<(anonymous namespace)::hook6Parent>, void (hook6<(anonymous namespace)::hook6Parent>::*)(int)>::Impl<void (hook6<(anonymous namespace)::hook6Parent>::*)(int)>::function(hook6<(anonymous namespace)::hook6Parent>*, int)
FUNC 31f8c c4 0 geode::modifier::AsStaticFunction_updatePlayerDartFrame<hook6<(anonymous namespace)::hook6Parent>, void (hook6<(anonymous namespace)::hook6Parent>::*)(int)>::Impl<void (hook6<(anonymous namespace)::hook6Parent>::*)(int)>::function(hook6<(anonymous namespace)::hook6Parent>*, int)
FUNC 32050 108 0 geode::modifier::AsStaticFunction_updatePlayerFrame<hook6<(anonymous namespace)::hook6Parent>, void (hook6<(anonymous namespace)::hook6Parent>::*)(int)>::Impl<void (hook6<(anonymous namespace)::hook6Parent>::*)(int)>::function(hook6<(anonymous namespace)::hook6Parent>*, int)
FUNC 32158 c4 0 geode::modifier::AsStaticFunction_updatePlayerJetpackFrame<hook6<(anonymous namespace)::hook6Parent>, void (hook6<(anonymous namespace)::hook6Parent>::*)(int)>::Impl<void (hook6<(anonymous namespace)::hook6Parent>::*)(int)>::function(hook6<(anonymous namespace)::hook6Parent>*, int)
FUNC 3221c 108 0 geode::modifier::AsStaticFunction_updatePlayerRollFrame<hook6<(anonymous namespace)::hook6Parent>, void (hook6<(anonymous namespace)::hook6Parent>::*)(int)>::Impl<void (hook6<(anonymous namespace)::hook6Parent>::*)(int)>::function(hook6<(anonymous namespace)::hook6Parent>*, int)
FUNC 32324 c4 0 geode::modifier::AsStaticFunction_updatePlayerShipFrame<hook6<(anonymous namespace)::hook6Parent>, void (hook6<(anonymous namespace)::hook6Parent>::*)(int)>::Impl<void (hook6<(anonymous namespace)::hook6Parent>::*)(int)>::function(hook6<(anonymous namespace)::hook6Parent>*, int)
FUNC 323e8 c4 0 geode::modifier::AsStaticFunction_updatePlayerSwingFrame<hook6<(anonymous namespace)::hook6Parent>, void (hook6<(anonymous namespace)::hook6Parent>::*)(int)>::Impl<void (hook6<(anonymous namespace)::hook6Parent>::*)(int)>::function(hook6<(anonymous namespace)::hook6Parent>*, int)
FUNC 324ac 2b0 0 PlayerObject::PlayerObject(geode::ZeroConstructorType)
FUNC 3275c 1c 0 gd::map<int, bool>::~map()
FUNC 32778 78 0 geode::stl::unordered_map<int, GameObject*, geode::stl::hash<int>, geode::stl::equal_to<int>, std::__ndk1::allocator<std::__ndk1::pair<int const, GameObject*> > >::~unordered_map()
FUNC 327f0 78 0 geode::stl::unordered_map<int, GJPointDouble, geode::stl::hash<int>, geode::stl::equal_to<int>, std::__ndk1::allocator<std::__ndk1::pair<int const, GJPointDouble> > >::~unordered_map()
FUNC 32868 48 0 GameObject::~GameObject()
FUNC 328b0 4c 0 gd::map<int, bool>::erase(geode::stl::_rb_tree_node<std::__ndk1::pair<int, bool> >*)
FUNC 328fc 188 0 geode::modifier::FieldIntermediate<hook6<(anonymous namespace)::hook6Parent>, PlayerObject>::operator->()
FUNC 32a84 4 0 geode::modifier::FieldIntermediate<hook6<(anonymous namespace)::hook6Parent>, PlayerObject>::fieldDestructor(void*)
FUNC 32a88 670 0 __cxx_global_var_init
FUNC 330f8 1c 0 geode::modifier::ModifyBase<geode::modifier::ModifyDerive<MyProfilePage, ProfilePage> >::~ModifyBase()
FUNC 33114 700 0 geode::modifier::ModifyDerive<MyProfilePage, ProfilePage>::apply()
FUNC 33814 4 0 geode::modifier::ModifyBase<geode::modifier::ModifyDerive<MyProfilePage, ProfilePage> >::apply()
FUNC 33818 7c 0 std::__ndk1::unique_ptr<std::__ndk1::__tree_node<std::__ndk1::__value_type<std::__ndk1::basic_string<char, std::__ndk1::char_traits<char>, std::__ndk1::allocator<char> >, std::__ndk1::shared_ptr<geode::Hook> >, void*>, std::__ndk1::__tree_node_destructor<std::__ndk1::allocator<std::__ndk1::__tree_node<std::__ndk1::__value_type<std::__ndk1::basic_string<char, std::__ndk1::char_traits<char>, std::__ndk1::allocator<char> >, std::__ndk1::shared_ptr<geode::Hook> >, void*> > > >::~unique_ptr[abi:ne180000]()
FUNC 33894 168 0 _ZN5geode15UnwrapExceptionC2IRNSt6__ndk112basic_stringIcNS2_11char_traitsIcEENS2_9allocatorIcEEEEQsr4implE18IsStringStreamableIT_EEENS_4impl6ErrTagEOSA_
FUNC 339fc 4 0 std::__ndk1::__variant_detail::__visitation::__base::__dispatcher<(unsigned long)0>::__dispatch[abi:ne180000]<std::__ndk1::__variant_detail::__dtor<std::__ndk1::__variant_detail::__traits<std::__ndk1::monostate, std::__ndk1::basic_string<char, std::__ndk1::char_traits<char>, std::__ndk1::allocator<char> > >, (std::__ndk1::__variant_detail::_Trait)1>::__destroy[abi:ne180000]()::{lambda(auto:1&)#1}, std::__ndk1::__variant_detail::__base<(std::__ndk1::__variant_detail::__traits<std::__ndk1::monostate, std::__ndk1::basic_string<char, std::__ndk1::char_traits<char>, std::__ndk1::allocator<char> > >)1, std::__ndk1::__variant_detail::__traits, std::__ndk1::allocator<char> >&>(std::__ndk1::__variant_detail::__dtor<std::__ndk1::__variant_detail::__traits<std::__ndk1::monostate, std::__ndk1::basic_string<char, std::__ndk1::char_traits<char>, std::__ndk1::allocator<char> > >, (std::__ndk1::__variant_detail::_Trait)1>, std::__ndk1::__variant_detail::__base<(std::__ndk1::__variant_detail::__traits<std::__ndk1::monostate, std::__ndk1::basic_string<char, std::__ndk1::char_traits<char>, std::__ndk1::allocator<char> > >)1, std::__ndk1::__variant_detail::__traits, std::__ndk1::allocator<char> >&)
FUNC 33a00 14 0 std::__ndk1::__variant_detail::__visitation::__base::__dispatcher<(unsigned long)1>::__dispatch[abi:ne180000]<std::__ndk1::__variant_detail::__dtor<std::__ndk1::__variant_detail::__traits<std::__ndk1::monostate, std::__ndk1::basic_string<char, std::__ndk1::char_traits<char>, std::__ndk1::allocator<char> > >, (std::__ndk1::__variant_detail::_Trait)1>::__destroy[abi:ne180000]()::{lambda(auto:1&)#1}, std::__ndk1::__variant_detail::__base<(std::__ndk1::__variant_detail::__traits<std::__ndk1::monostate, std::__ndk1::basic_string<char, std::__ndk1::char_traits<char>, std::__ndk1::allocator<char> > >)1, std::__ndk1::__variant_detail::__traits, std::__ndk1::allocator<char> >&>(std::__ndk1::__variant_detail::__dtor<std::__ndk1::__variant_detail::__traits<std::__ndk1::monostate, std::__ndk1::basic_string<char, std::__ndk1::char_traits<char>, std::__ndk1::allocator<char> > >, (std::__ndk1::__variant_detail::_Trait)1>, std::__ndk1::__variant_detail::__base<(std::__ndk1::__variant_detail::__traits<std::__ndk1::monostate, std::__ndk1::basic_string<char, std::__ndk1::char_traits<char>, std::__ndk1::allocator<char> > >)1, std::__ndk1::__variant_detail::__traits, std::__ndk1::allocator<char> >&)
FUNC 33a14 bac 0 geode::modifier::AsStaticFunction_loadPageFromUserInfo<MyProfilePage, void (MyProfilePage::*)(GJUserScore*)>::Impl<void (MyProfilePage::*)(GJUserScore*)>::function(MyProfilePage*, GJUserScore*)
FUNC 345c0 18c 0 geode::modifier::AsStaticFunction_toggleShip<MyProfilePage, void (MyProfilePage::*)(cocos2d::CCObject*)>::Impl<void (MyProfilePage::*)(cocos2d::CCObject*)>::function(MyProfilePage*, cocos2d::CCObject*)
FUNC 3474c 1c78 0 MyProfilePage::on2PToggle(cocos2d::CCObject*)
FUNC 363c4 188 0 geode::modifier::FieldIntermediate<MyProfilePage, ProfilePage>::self()
FUNC 3654c 4 0 geode::modifier::FieldIntermediate<MyProfilePage, ProfilePage>::fieldDestructor(void*)
FUNC 36550 30 0 geodeImplicitEntry
FUNC 36580 4c 0 std::__ndk1::unordered_map<void*, bool, std::__ndk1::hash<void*>, std::__ndk1::equal_to<void*>, std::__ndk1::allocator<std::__ndk1::pair<void* const, bool> > >::~unordered_map[abi:ne180000]()
FUNC 365cc 134 0 wrapFunction(unsigned long, tulip::hook::WrapperMetadata const&)
FUNC 36700 78 0 geode::impl::ResultData<void*, std::__ndk1::basic_string<char, std::__ndk1::char_traits<char>, std::__ndk1::allocator<char> > >::unwrapErr() &
FUNC 36778 74 0 geode::impl::ResultData<void*, std::__ndk1::basic_string<char, std::__ndk1::char_traits<char>, std::__ndk1::allocator<char> > >::~ResultData()
FUNC 367ec 64 0 tulip::hook::WrapperMetadata::~WrapperMetadata()
FUNC 36850 24 0 cocos2d::CCObject::~CCObject()
FUNC 36874 24 0 cocos2d::CCNode::~CCNode()
FUNC 36898 24 0 cocos2d::CCNodeRGBA::~CCNodeRGBA()
FUNC 368bc 8 0 {virtual override thunk({offset(-320)}, cocos2d::CCLayer::~CCLayer())}
FUNC 368c4 24 0 cocos2d::CCLayer::~CCLayer()
FUNC 368e8 28 0 {virtual override thunk({offset(-320)}, cocos2d::CCLayer::~CCLayer())}
FUNC 36910 24 0 cocos2d::CCSprite::~CCSprite()
FUNC 36934 2a8 0 cocos2d::CCNodeRGBA::~CCNodeRGBA()
FUNC 36bdc 2b0 0 cocos2d::CCSprite::~CCSprite()
FUNC 36e8c f10 0 GJBaseGameLayer::~GJBaseGameLayer()
FUNC 37d9c 8 0 {virtual override thunk({offset(-320)}, GJBaseGameLayer::~GJBaseGameLayer())}
FUNC 37da4 24 0 GJBaseGameLayer::~GJBaseGameLayer()
FUNC 37dc8 28 0 {virtual override thunk({offset(-320)}, GJBaseGameLayer::~GJBaseGameLayer())}
FUNC 37df0 17c 0 GJBaseGameLayer::toggleGroupTriggered(int, bool, gd::vector<int> const&, int, int)
FUNC 37f6c 460 0 tulip::hook::AbstractFunction::from<void, GJBaseGameLayer*, int, bool, gd::vector<int> const&, int, int>(void (*)(GJBaseGameLayer*, int, bool, gd::vector<int> const&, int, int))
FUNC 383cc 8 0 {virtual override thunk({offset(-408)}, GJBaseGameLayer::toggleGroupTriggered(int, bool, gd::vector<int> const&, int, int))}
FUNC 383d4 18c 0 GJBaseGameLayer::spawnGroup(int, bool, double, gd::vector<int> const&, int, int)
FUNC 38560 544 0 tulip::hook::AbstractFunction::from<void, GJBaseGameLayer*, int, bool, double, gd::vector<int> const&, int, int>(void (*)(GJBaseGameLayer*, int, bool, double, gd::vector<int> const&, int, int))
FUNC 38aa4 8 0 {virtual override thunk({offset(-408)}, GJBaseGameLayer::spawnGroup(int, bool, double, gd::vector<int> const&, int, int))}
FUNC 38aac 16c 0 GJBaseGameLayer::spawnObject(GameObject*, double, gd::vector<int> const&)
FUNC 38c18 2a4 0 tulip::hook::AbstractFunction::from<void, GJBaseGameLayer*, GameObject*, double, gd::vector<int> const&>(void (*)(GJBaseGameLayer*, GameObject*, double, gd::vector<int> const&))
FUNC 38ebc 8 0 {virtual override thunk({offset(-408)}, GJBaseGameLayer::spawnObject(GameObject*, double, gd::vector<int> const&))}
FUNC 38ec4 15c 0 GJBaseGameLayer::activatePlatformerEndTrigger(EndTriggerGameObject*, gd::vector<int> const&)
FUNC 39020 f8 0 tulip::hook::AbstractFunction::from<void, GJBaseGameLayer*, EndTriggerGameObject*, gd::vector<int> const&>(void (*)(GJBaseGameLayer*, EndTriggerGameObject*, gd::vector<int> const&))
FUNC 39118 4 0 GJBaseGameLayer::toggleGlitter(bool)
FUNC 3911c 8 0 GJBaseGameLayer::timeForPos(cocos2d::CCPoint, int, int, bool, int)
FUNC 39124 8 0 GJBaseGameLayer::posForTime(float)
FUNC 3912c 4 0 GJBaseGameLayer::resetSPTriggered()
FUNC 39130 174 0 GJBaseGameLayer::createCustomParticle(gd::string const&, cocos2d::ParticleStruct const&, int, bool)
FUNC 392a4 38c 0 tulip::hook::AbstractFunction::from<TodoReturnPlaceholder, GJBaseGameLayer*, gd::string const&, cocos2d::ParticleStruct const&, int, bool>(TodoReturnPlaceholder (*)(GJBaseGameLayer*, gd::string const&, cocos2d::ParticleStruct const&, int, bool))
FUNC 39630 18c 0 GJBaseGameLayer::claimCustomParticle(gd::string const&, cocos2d::ParticleStruct const&, int, int, int, bool)
FUNC 397bc 554 0 tulip::hook::AbstractFunction::from<TodoReturnPlaceholder, GJBaseGameLayer*, gd::string const&, cocos2d::ParticleStruct const&, int, int, int, bool>(TodoReturnPlaceholder (*)(GJBaseGameLayer*, gd::string const&, cocos2d::ParticleStruct const&, int, int, int, bool))
FUNC 39d10 15c 0 GJBaseGameLayer::unclaimCustomParticle(gd::string const&, cocos2d::CCParticleSystemQuad*)
FUNC 39e6c f8 0 tulip::hook::AbstractFunction::from<TodoReturnPlaceholder, GJBaseGameLayer*, gd::string const&, cocos2d::CCParticleSystemQuad*>(TodoReturnPlaceholder (*)(GJBaseGameLayer*, gd::string const&, cocos2d::CCParticleSystemQuad*))
FUNC 39f64 8 0 cocos2d::CCCopying::copyWithZone(cocos2d::CCZone*)
FUNC 39f6c 4 0 cocos2d::CCObject::update(float)
FUNC 39f70 4 0 cocos2d::CCNodeRGBA::setOpacityModifyRGB(bool)
FUNC 39f74 8 0 cocos2d::CCNodeRGBA::isOpacityModifyRGB()
FUNC 39f7c 4 0 {virtual override thunk({offset(-320)}, cocos2d::CCNodeRGBA::setOpacityModifyRGB(bool))}
FUNC 39f80 8 0 {virtual override thunk({offset(-320)}, cocos2d::CCNodeRGBA::isOpacityModifyRGB())}
FUNC 39f88 c 0 cocos2d::CCSprite::setBlendFunc(cocos2d::_ccBlendFunc)
FUNC 39f94 c 0 cocos2d::CCSprite::getBlendFunc()
FUNC 39fa0 8 0 cocos2d::CCSprite::isDirty()
FUNC 39fa8 8 0 cocos2d::CCSprite::setDirty(bool)
FUNC 39fb0 8 0 {virtual override thunk({offset(-344)}, cocos2d::CCSprite::setBlendFunc(cocos2d::_ccBlendFunc))}
FUNC 39fb8 8 0 {virtual override thunk({offset(-344)}, cocos2d::CCSprite::getBlendFunc())}
FUNC 39fc0 4 0 cocos2d::CCKeyboardDelegate::keyUp(cocos2d::enumKeyCodes)
FUNC 39fc4 4 0 cocos2d::CCMouseDelegate::rightKeyDown()
FUNC 39fc8 4 0 cocos2d::CCMouseDelegate::rightKeyUp()
FUNC 39fcc 4 0 cocos2d::CCMouseDelegate::scrollWheel(float, float)
FUNC 39fd0 290 0 cocos2d::CCNode::~CCNode()
FUNC 3a260 2e0 0 cocos2d::CCLayer::~CCLayer()
FUNC 3a540 4ac 0 cocos2d::CCObject::~CCObject()
FUNC 3a9ec 154 0 _ZN5geode15UnwrapExceptionC2IRPvQsr4implE18IsStringStreamableIT_EEENS_4impl5OkTagEOS4_
FUNC 3ab40 4 0 std::__ndk1::__variant_detail::__visitation::__base::__dispatcher<(unsigned long)0>::__dispatch[abi:ne180000]<std::__ndk1::__variant_detail::__dtor<std::__ndk1::__variant_detail::__traits<void*, std::__ndk1::basic_string<char, std::__ndk1::char_traits<char>, std::__ndk1::allocator<char> > >, (std::__ndk1::__variant_detail::_Trait)1>::__destroy[abi:ne180000]()::{lambda(auto:1&)#1}, std::__ndk1::__variant_detail::__base<(std::__ndk1::__variant_detail::__traits<void*, std::__ndk1::basic_string<char, std::__ndk1::char_traits<char>, std::__ndk1::allocator<char> > >)1, std::__ndk1::__variant_detail::__traits, std::__ndk1::allocator<char> >&>(std::__ndk1::__variant_detail::__dtor<std::__ndk1::__variant_detail::__traits<void*, std::__ndk1::basic_string<char, std::__ndk1::char_traits<char>, std::__ndk1::allocator<char> > >, (std::__ndk1::__variant_detail::_Trait)1>, std::__ndk1::__variant_detail::__base<(std::__ndk1::__variant_detail::__traits<void*, std::__ndk1::basic_string<char, std::__ndk1::char_traits<char>, std::__ndk1::allocator<char> > >)1, std::__ndk1::__variant_detail::__traits, std::__ndk1::allocator<char> >&)
FUNC 3ab44 14 0 std::__ndk1::__variant_detail::__visitation::__base::__dispatcher<(unsigned long)1>::__dispatch[abi:ne180000]<std::__ndk1::__variant_detail::__dtor<std::__ndk1::__variant_detail::__traits<void*, std::__ndk1::basic_string<char, std::__ndk1::char_traits<char>, std::__ndk1::allocator<char> > >, (std::__ndk1::__variant_detail::_Trait)1>::__destroy[abi:ne180000]()::{lambda(auto:1&)#1}, std::__ndk1::__variant_detail::__base<(std::__ndk1::__variant_detail::__traits<void*, std::__ndk1::basic_string<char, std::__ndk1::char_traits<char>, std::__ndk1::allocator<char> > >)1, std::__ndk1::__variant_detail::__traits, std::__ndk1::allocator<char> >&>(std::__ndk1::__variant_detail::__dtor<std::__ndk1::__variant_detail::__traits<void*, std::__ndk1::basic_string<char, std::__ndk1::char_traits<char>, std::__ndk1::allocator<char> > >, (std::__ndk1::__variant_detail::_Trait)1>, std::__ndk1::__variant_detail::__base<(std::__ndk1::__variant_detail::__traits<void*, std::__ndk1::basic_string<char, std::__ndk1::char_traits<char>, std::__ndk1::allocator<char> > >)1, std::__ndk1::__variant_detail::__traits, std::__ndk1::allocator<char> >&)
FUNC 3ab58 430 0 std::__ndk1::__hash_table<std::__ndk1::__hash_value_type<void*, bool>, std::__ndk1::__unordered_map_hasher<void*, std::__ndk1::__hash_value_type<void*, bool>, std::__ndk1::hash<void*>, std::__ndk1::equal_to<void*>, true>, std::__ndk1::__unordered_map_equal<void*, std::__ndk1::__hash_value_type<void*, bool>, std::__ndk1::equal_to<void*>, std::__ndk1::hash<void*>, true>, std::__ndk1::allocator<std::__ndk1::__hash_value_type<void*, bool> > >::__emplace_unique_key_args<void*, std::__ndk1::piecewise_construct_t const&, std::__ndk1::tuple<void* const&>, std::__ndk1::tuple<> >(void* const&, std::__ndk1::piecewise_construct_t const&, std::__ndk1::tuple<void* const&>, std::__ndk1::tuple<>)
PUBLIC 3af90 0 <.plt ELF section in weebify.separate_dual_icons.android64.so>
STACK CFI INIT 17810 10 .cfa: sp 0 +
STACK CFI INIT 17820 8 .cfa: sp 0 +
STACK CFI INIT 17828 8 .cfa: sp 0 +
STACK CFI INIT 17830 14 .cfa: sp 0 +
STACK CFI INIT 17844 1c .cfa: sp 0 +
STACK CFI INIT 17860 10 .cfa: sp 0 +
STACK CFI INIT 17870 134 .cfa: sp 0 +
STACK CFI INIT 179a4 84 .cfa: sp 0 +
STACK CFI INIT 17a28 f4 .cfa: sp 0 +
STACK CFI INIT 17b1c a8 .cfa: sp 0 +
STACK CFI INIT 17bc4 7c .cfa: sp 0 +
STACK CFI INIT 17c40 14 .cfa: sp 0 +
STACK CFI INIT 17c54 40 .cfa: sp 0 +
STACK CFI INIT 17c94 28 .cfa: sp 0 +
STACK CFI INIT 17cbc 190 .cfa: sp 0 +
STACK CFI INIT 17e4c 2c8 .cfa: sp 0 +
STACK CFI INIT 18114 8 .cfa: sp 0 +
STACK CFI INIT 1811c 8 .cfa: sp 0 +
STACK CFI INIT 18124 44 .cfa: sp 0 +
STACK CFI INIT 18168 e8 .cfa: sp 0 +
STACK CFI INIT 18250 e8 .cfa: sp 0 +
STACK CFI INIT 18338 14 .cfa: sp 0 +
STACK CFI INIT 1834c 10 .cfa: sp 0 +
STACK CFI INIT 1835c 10 .cfa: sp 0 +
STACK CFI INIT 1836c f0 .cfa: sp 0 +
STACK CFI INIT 1845c 44 .cfa: sp 0 +
STACK CFI INIT 184a0 c .cfa: sp 0 +
STACK CFI INIT 184ac c .cfa: sp 0 +
STACK CFI INIT 184b8 2c .cfa: sp 0 +
STACK CFI INIT 184e4 280 .cfa: sp 0 +
STACK CFI INIT 18764 c .cfa: sp 0 +
STACK CFI INIT 18770 120 .cfa: sp 0 +
STACK CFI INIT 18890 488 .cfa: sp 0 +
STACK CFI INIT 18d18 c48 .cfa: sp 0 +
STACK CFI INIT 19960 134 .cfa: sp 0 +
STACK CFI INIT 19a94 210 .cfa: sp 0 +
STACK CFI INIT 19ca4 38c .cfa: sp 0 +
STACK CFI INIT 1a030 1c8 .cfa: sp 0 +
STACK CFI INIT 1a1f8 9bc .cfa: sp 0 +
STACK CFI INIT 1abb4 2d4 .cfa: sp 0 +
STACK CFI INIT 1ae88 134 .cfa: sp 0 +
STACK CFI INIT 1afbc 120 .cfa: sp 0 +
STACK CFI INIT 1b0dc 1c8 .cfa: sp 0 +
STACK CFI INIT 1b2a4 168 .cfa: sp 0 +
STACK CFI INIT 1b40c fc .cfa: sp 0 +
STACK CFI INIT 1b508 30 .cfa: sp 0 +
STACK CFI INIT 1b670 30 .cfa: sp 0 +
STACK CFI INIT 1b6a0 98 .cfa: sp 0 +
STACK CFI INIT 1b738 59c .cfa: sp 0 +
STACK CFI INIT 1bcd4 8c .cfa: sp 0 +
STACK CFI INIT 1bd60 30 .cfa: sp 0 +
STACK CFI INIT 1c190 1c .cfa: sp 0 +
STACK CFI INIT 1ceb8 30 .cfa: sp 0 +
STACK CFI 1cebc .cfa: sp 32 +
STACK CFI 1cec4 .cfa: x29 32 + x19: .cfa -16 + ^ .ra: .cfa -24 + ^ x29: .cfa -32 + ^
STACK CFI 1cedc .cfa: sp 32 +
STACK CFI 1cee4 .cfa: sp 0 +
STACK CFI INIT 1cee8 50 .cfa: sp 0 +
STACK CFI 1ceec .cfa: sp 32 +
STACK CFI 1cef4 .cfa: x29 32 + x19: .cfa -16 + ^ .ra: .cfa -24 + ^ x29: .cfa -32 + ^
STACK CFI 1cf0c .cfa: sp 32 +
STACK CFI 1cf14 .cfa: sp 0 +
STACK CFI 1cf18 .cfa: x29 32 +
STACK CFI 1cf2c .cfa: sp 32 +
STACK CFI 1cf34 .cfa: sp 0 +
STACK CFI INIT 1cfac 7c .cfa: sp 0 +
STACK CFI 1cfb0 .cfa: sp 48 +
STACK CFI 1cfbc .cfa: x29 48 + x19: .cfa -8 + ^ x20: .cfa -16 + ^ x21: .cfa -32 + ^ .ra: .cfa -40 + ^ x29: .cfa -48 + ^
STACK CFI 1d008 .cfa: sp 48 +
STACK CFI 1d014 .cfa: sp 0 +
STACK CFI 1d018 .cfa: sp 48 +
STACK CFI 1d024 .cfa: sp 0 +
STACK CFI INIT 1d028 4 .cfa: sp 0 +
STACK CFI INIT 1d02c 10 .cfa: sp 0 +
STACK CFI 1d030 .cfa: sp 16 +
STACK CFI 1d034 .cfa: x29 16 + .ra: .cfa -8 + ^ x29: .cfa -16 + ^
STACK CFI INIT 1d190 34 .cfa: sp 0 +
STACK CFI 1d194 .cfa: sp 16 +
STACK CFI 1d198 .cfa: x29 16 + .ra: .cfa -8 + ^ x29: .cfa -16 + ^
STACK CFI INIT 1d2e8 80 .cfa: sp 0 +
STACK CFI 1d2ec .cfa: sp 48 +
STACK CFI 1d2f8 .cfa: x29 48 + x19: .cfa -8 + ^ x20: .cfa -16 + ^ x21: .cfa -32 + ^ .ra: .cfa -40 + ^ x29: .cfa -48 + ^
STACK CFI 1d358 .cfa: sp 48 +
STACK CFI 1d364 .cfa: sp 0 +
STACK CFI INIT 1d368 24 .cfa: sp 0 +
STACK CFI 1d36c .cfa: sp 32 +
STACK CFI 1d374 .cfa: x29 32 + x19: .cfa -16 + ^ .ra: .cfa -24 + ^ x29: .cfa -32 + ^
STACK CFI 1d380 .cfa: sp 32 +
STACK CFI 1d388 .cfa: sp 0 +
STACK CFI INIT 1d6d8 14 .cfa: sp 0 +
STACK CFI 1d6dc .cfa: sp 16 +
STACK CFI 1d6e0 .cfa: x29 16 + .ra: .cfa -8 + ^ x29: .cfa -16 + ^
STACK CFI INIT 1d73c 30 .cfa: sp 0 +
STACK CFI 1d740 .cfa: sp 32 +
STACK CFI 1d748 .cfa: x29 32 + x19: .cfa -16 + ^ .ra: .cfa -24 + ^ x29: .cfa -32 + ^
STACK CFI 1d760 .cfa: sp 32 +
STACK CFI 1d768 .cfa: sp 0 +
STACK CFI INIT 1d76c 34 .cfa: sp 0 +
STACK CFI 1d770 .cfa: sp 32 +
STACK CFI 1d778 .cfa: x29 32 + x19: .cfa -16 + ^ .ra: .cfa -24 + ^ x29: .cfa -32 + ^
STACK CFI INIT 1d8fc 148 .cfa: sp 0 +
STACK CFI 1d900 .cfa: sp 48 +
STACK CFI 1d90c .cfa: x29 48 + x19: .cfa -8 + ^ x20: .cfa -16 + ^ x21: .cfa -32 + ^ .ra: .cfa -40 + ^ x29: .cfa -48 + ^
STACK CFI 1da34 .cfa: sp 48 +
STACK CFI 1da40 .cfa: sp 0 +
STACK CFI INIT 1dc60 70 .cfa: sp 0 +
STACK CFI 1dc64 .cfa: sp 48 +
STACK CFI 1dc70 .cfa: x29 48 + x19: .cfa -8 + ^ x20: .cfa -16 + ^ x21: .cfa -24 + ^ x22: .cfa -32 + ^ .ra: .cfa -40 + ^ x29: .cfa -48 + ^
STACK CFI 1dcb8 .cfa: sp 48 +
STACK CFI 1dcc4 .cfa: sp 0 +
STACK CFI 1dcc8 .cfa: x29 48 +
STACK CFI INIT 1dcd0 68 .cfa: sp 0 +
STACK CFI 1dcd4 .cfa: sp 32 +
STACK CFI 1dcdc .cfa: x29 32 + x19: .cfa -8 + ^ x20: .cfa -16 + ^ .ra: .cfa -24 + ^ x29: .cfa -32 + ^
STACK CFI 1dcf4 .cfa: sp 32 +
STACK CFI 1dcfc .cfa: sp 0 +
STACK CFI 1dd00 .cfa: x29 32 +
STACK CFI 1dd2c .cfa: sp 32 +
STACK CFI 1dd34 .cfa: sp 0 +
STACK CFI INIT 1dd38 14 .cfa: sp 0 +
STACK CFI 1dd3c .cfa: sp 16 +
STACK CFI 1dd40 .cfa: x29 16 + .ra: .cfa -8 + ^ x29: .cfa -16 + ^
STACK CFI INIT 1dd4c 4 .cfa: sp 0 +
STACK CFI INIT 1dd50 14 .cfa: sp 0 +
STACK CFI INIT 1dd64 fc .cfa: sp 0 +
STACK CFI 1dd68 .cfa: sp 64 +
STACK CFI 1dd78 .cfa: x29 64 + x19: .cfa -8 + ^ x20: .cfa -16 + ^ x21: .cfa -24 + ^ x22: .cfa -32 + ^ x23: .cfa -40 + ^ x24: .cfa -48 + ^ .ra: .cfa -56 + ^ x29: .cfa -64 + ^
STACK CFI 1de4c .cfa: sp 64 +
STACK CFI 1de5c .cfa: sp 0 +
STACK CFI INIT 1de60 d4 .cfa: sp 0 +
STACK CFI 1de64 .cfa: sp 48 +
STACK CFI 1de70 .cfa: x29 48 + x19: .cfa -8 + ^ x20: .cfa -16 + ^ x21: .cfa -32 + ^ .ra: .cfa -40 + ^ x29: .cfa -48 + ^
STACK CFI 1df00 .cfa: sp 48 +
STACK CFI 1df0c .cfa: sp 0 +
STACK CFI 1df10 .cfa: x29 48 +
STACK CFI INIT 1df34 388 .cfa: sp 0 +
STACK CFI INIT 1e2bc 8c .cfa: sp 0 +
STACK CFI 1e2c4 .cfa: sp 32 +
STACK CFI 1e2cc .cfa: x29 32 + x19: .cfa -8 + ^ x20: .cfa -16 + ^ .ra: .cfa -24 + ^ x29: .cfa -32 + ^
STACK CFI 1e314 .cfa: sp 32 +
STACK CFI 1e31c .cfa: sp 0 +
STACK CFI 1e324 .cfa: x29 32 +
STACK CFI INIT 22250 1d0 .cfa: sp 0 +
STACK CFI 22254 .cfa: sp 80 +
STACK CFI 22264 .cfa: x29 48 + x19: .cfa -8 + ^ x20: .cfa -16 + ^ x21: .cfa -24 + ^ x22: .cfa -32 + ^ .ra: .cfa -40 + ^ x29: .cfa -48 + ^
STACK CFI 22408 .cfa: sp 80 +
STACK CFI 22418 .cfa: sp 0 +
STACK CFI 2241c .cfa: x29 48 +
STACK CFI INIT 22420 84 .cfa: sp 0 +
STACK CFI 22424 .cfa: sp 32 +
STACK CFI 2242c .cfa: x29 32 + x19: .cfa -16 + ^ .ra: .cfa -24 + ^ x29: .cfa -32 + ^
STACK CFI 22498 .cfa: sp 32 +
STACK CFI 224a0 .cfa: sp 0 +
STACK CFI INIT 224a4 50 .cfa: sp 0 +
STACK CFI 224a8 .cfa: sp 32 +
STACK CFI 224b0 .cfa: x29 32 + x19: .cfa -16 + ^ .ra: .cfa -24 + ^ x29: .cfa -32 + ^
STACK CFI 224c8 .cfa: sp 32 +
STACK CFI 224d0 .cfa: sp 0 +
STACK CFI 224d4 .cfa: x29 32 +
STACK CFI 224e8 .cfa: sp 32 +
STACK CFI 224f0 .cfa: sp 0 +
STACK CFI INIT 224f4 64 .cfa: sp 0 +
STACK CFI 224f8 .cfa: sp 32 +
STACK CFI 22500 .cfa: x29 32 + x19: .cfa -16 + ^ .ra: .cfa -24 + ^ x29: .cfa -32 + ^
STACK CFI 2252c .cfa: sp 32 +
STACK CFI 22534 .cfa: sp 0 +
STACK CFI 22538 .cfa: x29 32 +
STACK CFI 2254c .cfa: sp 32 +
STACK CFI 22554 .cfa: sp 0 +
STACK CFI INIT 22908 154 .cfa: sp 0 +
STACK CFI 2290c .cfa: sp 64 +
STACK CFI 2291c .cfa: x29 64 + x19: .cfa -8 + ^ x20: .cfa -16 + ^ x21: .cfa -24 + ^ x22: .cfa -32 + ^ x23: .cfa -48 + ^ .ra: .cfa -56 + ^ x29: .cfa -64 + ^
STACK CFI 22a48 .cfa: sp 64 +
STACK CFI 22a58 .cfa: sp 0 +
STACK CFI INIT 22ad0 4 .cfa: sp 0 +
STACK CFI INIT 22ad4 14 .cfa: sp 0 +
STACK CFI INIT 22ae8 4 .cfa: sp 0 +
STACK CFI INIT 22aec 14 .cfa: sp 0 +
STACK CFI INIT 22c04 4 .cfa: sp 0 +
STACK CFI INIT 22c08 14 .cfa: sp 0 +
STACK CFI INIT 22c1c e4 .cfa: sp 0 +
STACK CFI 22c20 .cfa: sp 64 +
STACK CFI 22c30 .cfa: x29 64 + x19: .cfa -8 + ^ x20: .cfa -16 + ^ x21: .cfa -24 + ^ x22: .cfa -32 + ^ x23: .cfa -48 + ^ .ra: .cfa -56 + ^ x29: .cfa -64 + ^
STACK CFI 22ca8 .cfa: sp 64 +
STACK CFI 22cb8 .cfa: sp 0 +
STACK CFI 22cbc .cfa: x29 64 +
STACK CFI INIT 22d00 104 .cfa: sp 0 +
STACK CFI 22d04 .cfa: sp 80 +
STACK CFI 22d18 .cfa: x29 80 + x19: .cfa -8 + ^ x20: .cfa -16 + ^ x21: .cfa -24 + ^ x22: .cfa -32 + ^ x23: .cfa -40 + ^ x24: .cfa -48 + ^ x25: .cfa -56 + ^ x26: .cfa -64 + ^ .ra: .cfa -72 + ^ x29: .cfa -80 + ^
STACK CFI 22dec .cfa: sp 80 +
STACK CFI 22e00 .cfa: sp 0 +
STACK CFI INIT 22e04 19c .cfa: sp 0 +
STACK CFI INIT 234d0 4 .cfa: sp 0 +
STACK CFI INIT 234d4 14 .cfa: sp 0 +
STACK CFI 234d8 .cfa: sp 16 +
STACK CFI 234dc .cfa: x29 16 + .ra: .cfa -8 + ^ x29: .cfa -16 + ^
STACK CFI INIT 236e8 14 .cfa: sp 0 +
STACK CFI 236ec .cfa: sp 16 +
STACK CFI 236f0 .cfa: x29 16 + .ra: .cfa -8 + ^ x29: .cfa -16 + ^
STACK CFI INIT 236fc 14 .cfa: sp 0 +
STACK CFI 23700 .cfa: sp 16 +
STACK CFI 23704 .cfa: x29 16 + .ra: .cfa -8 + ^ x29: .cfa -16 + ^
STACK CFI INIT 23760 30 .cfa: sp 0 +
STACK CFI 23764 .cfa: sp 32 +
STACK CFI 2376c .cfa: x29 32 + x19: .cfa -16 + ^ .ra: .cfa -24 + ^ x29: .cfa -32 + ^
STACK CFI 23784 .cfa: sp 32 +
STACK CFI 2378c .cfa: sp 0 +
STACK CFI INIT 23790 14 .cfa: sp 0 +
STACK CFI 23794 .cfa: sp 16 +
STACK CFI 23798 .cfa: x29 16 + .ra: .cfa -8 + ^ x29: .cfa -16 + ^
STACK CFI INIT 237a4 4 .cfa: sp 0 +
STACK CFI INIT 237a8 4 .cfa: sp 0 +
STACK CFI INIT 237ac 38 .cfa: sp 0 +
STACK CFI 237b0 .cfa: sp 32 +
STACK CFI 237b8 .cfa: x29 32 + x19: .cfa -16 + ^ .ra: .cfa -24 + ^ x29: .cfa -32 + ^
STACK CFI 237d8 .cfa: sp 32 +
STACK CFI 237e0 .cfa: sp 0 +
STACK CFI INIT 237e4 18 .cfa: sp 0 +
STACK CFI INIT 237fc 4 .cfa: sp 0 +
STACK CFI INIT 23800 4 .cfa: sp 0 +
STACK CFI INIT 23804 10 .cfa: sp 0 +
STACK CFI INIT 23814 1c .cfa: sp 0 +
STACK CFI INIT 23830 c .cfa: sp 0 +
STACK CFI INIT 2390c 14 .cfa: sp 0 +
STACK CFI 23910 .cfa: sp 16 +
STACK CFI 23914 .cfa: x29 16 + .ra: .cfa -8 + ^ x29: .cfa -16 + ^
STACK CFI INIT 24130 1c .cfa: sp 0 +
STACK CFI INIT 24b48 4 .cfa: sp 0 +
STACK CFI INIT 258b4 f44 .cfa: sp 0 +
STACK CFI 258b8 .cfa: sp 144 +
STACK CFI 258d4 .cfa: x29 80 + x19: .cfa -8 + ^ x20: .cfa -16 + ^ x21: .cfa -24 + ^ x22: .cfa -32 + ^ x23: .cfa -40 + ^ x24: .cfa -48 + ^ x25: .cfa -64 + ^ .ra: .cfa -72 + ^ x29: .cfa -80 + ^ v8: .cfa -88 + ^ v9: .cfa -96 + ^
STACK CFI 26750 .cfa: sp 144 +
STACK CFI 2676c .cfa: sp 0 +
STACK CFI 26770 .cfa: x29 80 +
STACK CFI INIT 278c0 b4 .cfa: sp 0 +
STACK CFI 278c4 .cfa: sp 32 +
STACK CFI 278cc .cfa: x29 32 + x19: .cfa -16 + ^ .ra: .cfa -24 + ^ x29: .cfa -32 + ^
STACK CFI 27968 .cfa: sp 32 +
STACK CFI 27970 .cfa: sp 0 +
STACK CFI INIT 27974 14 .cfa: sp 0 +
STACK CFI 27978 .cfa: sp 16 +
STACK CFI 2797c .cfa: x29 16 + .ra: .cfa -8 + ^ x29: .cfa -16 + ^
STACK CFI INIT 2a454 4 .cfa: sp 0 +
STACK CFI INIT 2a478 4 .cfa: sp 0 +
STACK CFI INIT 2a47c 14 .cfa: sp 0 +
STACK CFI INIT 2a490 c8 .cfa: sp 0 +
STACK CFI 2a494 .cfa: sp 64 +
STACK CFI 2a4a4 .cfa: x29 48 + x19: .cfa -8 + ^ x20: .cfa -16 + ^ x21: .cfa -32 + ^ .ra: .cfa -40 + ^ x29: .cfa -48 + ^
STACK CFI 2a540 .cfa: sp 64 +
STACK CFI 2a550 .cfa: sp 0 +
STACK CFI 2a554 .cfa: x29 48 +
STACK CFI INIT 2a958 1c .cfa: sp 0 +
STACK CFI INIT 2b03c 4 .cfa: sp 0 +
STACK CFI INIT 2b0f8 3d0 .cfa: sp 0 +
STACK CFI 2b0fc .cfa: sp 80 +
STACK CFI 2b110 .cfa: x29 64 + x19: .cfa -8 + ^ x20: .cfa -16 + ^ x21: .cfa -24 + ^ x22: .cfa -32 + ^ x23: .cfa -48 + ^ .ra: .cfa -56 + ^ x29: .cfa -64 + ^
STACK CFI 2b4ac .cfa: sp 80 +
STACK CFI 2b4c0 .cfa: sp 0 +
STACK CFI 2b4c4 .cfa: x29 64 +
STACK CFI INIT 2b4c8 4d4 .cfa: sp 0 +
STACK CFI 2b4cc .cfa: sp 96 +
STACK CFI 2b4e0 .cfa: x29 64 + x19: .cfa -8 + ^ x20: .cfa -16 + ^ x21: .cfa -24 + ^ x22: .cfa -32 + ^ x23: .cfa -40 + ^ x24: .cfa -48 + ^ .ra: .cfa -56 + ^ x29: .cfa -64 + ^
STACK CFI 2b818 .cfa: sp 96 +
STACK CFI 2b82c .cfa: sp 0 +
STACK CFI 2b830 .cfa: x29 64 +
STACK CFI INIT 2c65c 78 .cfa: sp 0 +
STACK CFI 2c660 .cfa: sp 48 +
STACK CFI 2c66c .cfa: x29 48 + x19: .cfa -8 + ^ x20: .cfa -16 + ^ x21: .cfa -32 + ^ .ra: .cfa -40 + ^ x29: .cfa -48 + ^
STACK CFI 2c6b4 .cfa: sp 48 +
STACK CFI 2c6c0 .cfa: sp 0 +
STACK CFI 2c6c4 .cfa: sp 48 +
STACK CFI 2c6d0 .cfa: sp 0 +
STACK CFI INIT 2c6d4 78 .cfa: sp 0 +
STACK CFI 2c6d8 .cfa: sp 48 +
STACK CFI 2c6e4 .cfa: x29 48 + x19: .cfa -8 + ^ x20: .cfa -16 + ^ x21: .cfa -32 + ^ .ra: .cfa -40 + ^ x29: .cfa -48 + ^
STACK CFI 2c72c .cfa: sp 48 +
STACK CFI 2c738 .cfa: sp 0 +
STACK CFI 2c73c .cfa: sp 48 +
STACK CFI 2c748 .cfa: sp 0 +
STACK CFI INIT 2c74c 84 .cfa: sp 0 +
STACK CFI 2c750 .cfa: sp 48 +
STACK CFI 2c75c .cfa: x29 48 + x19: .cfa -8 + ^ x20: .cfa -16 + ^ x21: .cfa -24 + ^ x22: .cfa -32 + ^ .ra: .cfa -40 + ^ x29: .cfa -48 + ^
STACK CFI 2c7b0 .cfa: sp 48 +
STACK CFI 2c7bc .cfa: sp 0 +
STACK CFI 2c7c0 .cfa: sp 48 +
STACK CFI 2c7cc .cfa: sp 0 +
STACK CFI INIT 2c7ec 8c .cfa: sp 0 +
STACK CFI 2c7f0 .cfa: sp 48 +
STACK CFI 2c7fc .cfa: x29 48 + x19: .cfa -8 + ^ x20: .cfa -16 + ^ x21: .cfa -24 + ^ x22: .cfa -32 + ^ .ra: .cfa -40 + ^ x29: .cfa -48 + ^
STACK CFI 2c834 .cfa: sp 48 +
STACK CFI 2c840 .cfa: sp 0 +
STACK CFI 2c844 .cfa: x29 48 +
STACK CFI 2c868 .cfa: sp 48 +
STACK CFI 2c874 .cfa: sp 0 +
STACK CFI INIT 2c878 78 .cfa: sp 0 +
STACK CFI 2c87c .cfa: sp 48 +
STACK CFI 2c888 .cfa: x29 48 + x19: .cfa -8 + ^ x20: .cfa -16 + ^ x21: .cfa -32 + ^ .ra: .cfa -40 + ^ x29: .cfa -48 + ^
STACK CFI 2c8d0 .cfa: sp 48 +
STACK CFI 2c8dc .cfa: sp 0 +
STACK CFI 2c8e0 .cfa: sp 48 +
STACK CFI 2c8ec .cfa: sp 0 +
STACK CFI INIT 2c8f0 8c .cfa: sp 0 +
STACK CFI 2c8f4 .cfa: sp 48 +
STACK CFI 2c900 .cfa: x29 48 + x19: .cfa -8 + ^ x20: .cfa -16 + ^ x21: .cfa -24 + ^ x22: .cfa -32 + ^ .ra: .cfa -40 + ^ x29: .cfa -48 + ^
STACK CFI 2c938 .cfa: sp 48 +
STACK CFI 2c944 .cfa: sp 0 +
STACK CFI 2c948 .cfa: x29 48 +
STACK CFI 2c96c .cfa: sp 48 +
STACK CFI 2c978 .cfa: sp 0 +
STACK CFI INIT 2c97c 78 .cfa: sp 0 +
STACK CFI 2c980 .cfa: sp 48 +
STACK CFI 2c98c .cfa: x29 48 + x19: .cfa -8 + ^ x20: .cfa -16 + ^ x21: .cfa -32 + ^ .ra: .cfa -40 + ^ x29: .cfa -48 + ^
STACK CFI 2c9d4 .cfa: sp 48 +
STACK CFI 2c9e0 .cfa: sp 0 +
STACK CFI 2c9e4 .cfa: sp 48 +
STACK CFI 2c9f0 .cfa: sp 0 +
STACK CFI INIT 2c9f4 104 .cfa: sp 0 +
STACK CFI 2c9f8 .cfa: sp 64 +
STACK CFI 2ca08 .cfa: x29 64 + x19: .cfa -8 + ^ x20: .cfa -16 + ^ x21: .cfa -24 + ^ x22: .cfa -32 + ^ x23: .cfa -48 + ^ .ra: .cfa -56 + ^ x29: .cfa -64 + ^
STACK CFI 2cad0 .cfa: sp 64 +
STACK CFI 2cae0 .cfa: sp 0 +
STACK CFI 2cae4 .cfa: sp 64 +
STACK CFI 2caf4 .cfa: sp 0 +
STACK CFI INIT 2cf38 78 .cfa: sp 0 +
STACK CFI 2cf3c .cfa: sp 48 +
STACK CFI 2cf48 .cfa: x29 48 + x19: .cfa -8 + ^ x20: .cfa -16 + ^ x21: .cfa -32 + ^ .ra: .cfa -40 + ^ x29: .cfa -48 + ^
STACK CFI 2cf90 .cfa: sp 48 +
STACK CFI 2cf9c .cfa: sp 0 +
STACK CFI 2cfa0 .cfa: sp 48 +
STACK CFI 2cfac .cfa: sp 0 +
STACK CFI INIT 2cfcc 90 .cfa: sp 0 +
STACK CFI 2cfd0 .cfa: sp 48 +
STACK CFI 2cfdc .cfa: x29 48 + x19: .cfa -8 + ^ x20: .cfa -16 + ^ x21: .cfa -24 + ^ x22: .cfa -32 + ^ .ra: .cfa -40 + ^ x29: .cfa -48 + ^
STACK CFI 2d014 .cfa: sp 48 +
STACK CFI 2d020 .cfa: sp 0 +
STACK CFI 2d024 .cfa: x29 48 +
STACK CFI 2d04c .cfa: sp 48 +
STACK CFI 2d058 .cfa: sp 0 +
STACK CFI INIT 2d18c 78 .cfa: sp 0 +
STACK CFI 2d190 .cfa: sp 48 +
STACK CFI 2d19c .cfa: x29 48 + x19: .cfa -8 + ^ x20: .cfa -16 + ^ x21: .cfa -32 + ^ .ra: .cfa -40 + ^ x29: .cfa -48 + ^
STACK CFI 2d1e4 .cfa: sp 48 +
STACK CFI 2d1f0 .cfa: sp 0 +
STACK CFI 2d1f4 .cfa: sp 48 +
STACK CFI 2d200 .cfa: sp 0 +
STACK CFI INIT 2d204 78 .cfa: sp 0 +
STACK CFI 2d208 .cfa: sp 48 +
STACK CFI 2d214 .cfa: x29 48 + x19: .cfa -8 + ^ x20: .cfa -16 + ^ x21: .cfa -32 + ^ .ra: .cfa -40 + ^ x29: .cfa -48 + ^
STACK CFI 2d25c .cfa: sp 48 +
STACK CFI 2d268 .cfa: sp 0 +
STACK CFI 2d26c .cfa: sp 48 +
STACK CFI 2d278 .cfa: sp 0 +
STACK CFI INIT 2d27c 78 .cfa: sp 0 +
STACK CFI 2d280 .cfa: sp 48 +
STACK CFI 2d28c .cfa: x29 48 + x19: .cfa -8 + ^ x20: .cfa -16 + ^ x21: .cfa -32 + ^ .ra: .cfa -40 + ^ x29: .cfa -48 + ^
STACK CFI 2d2d4 .cfa: sp 48 +
STACK CFI 2d2e0 .cfa: sp 0 +
STACK CFI 2d2e4 .cfa: sp 48 +
STACK CFI 2d2f0 .cfa: sp 0 +
STACK CFI INIT 2d2f4 78 .cfa: sp 0 +
STACK CFI 2d2f8 .cfa: sp 48 +
STACK CFI 2d304 .cfa: x29 48 + x19: .cfa -8 + ^ x20: .cfa -16 + ^ x21: .cfa -32 + ^ .ra: .cfa -40 + ^ x29: .cfa -48 + ^
STACK CFI 2d34c .cfa: sp 48 +
STACK CFI 2d358 .cfa: sp 0 +
STACK CFI 2d35c .cfa: sp 48 +
STACK CFI 2d368 .cfa: sp 0 +
STACK CFI INIT 2d538 250 .cfa: sp 0 +
STACK CFI 2d53c .cfa: sp 80 +
STACK CFI 2d550 .cfa: x29 80 + x19: .cfa -8 + ^ x20: .cfa -16 + ^ x21: .cfa -24 + ^ x22: .cfa -32 + ^ x23: .cfa -40 + ^ x24: .cfa -48 + ^ x25: .cfa -64 + ^ .ra: .cfa -72 + ^ x29: .cfa -80 + ^
STACK CFI 2d768 .cfa: sp 80 +
STACK CFI 2d77c .cfa: sp 0 +
STACK CFI 2d780 .cfa: x29 80 +
STACK CFI INIT 2d788 80 .cfa: sp 0 +
STACK CFI 2d78c .cfa: sp 48 +
STACK CFI 2d798 .cfa: x29 48 + x19: .cfa -8 + ^ x20: .cfa -16 + ^ x21: .cfa -32 + ^ .ra: .cfa -40 + ^ x29: .cfa -48 + ^
STACK CFI 2d7e8 .cfa: sp 48 +
STACK CFI 2d7f4 .cfa: sp 0 +
STACK CFI 2d7f8 .cfa: sp 48 +
STACK CFI 2d804 .cfa: sp 0 +
STACK CFI INIT 2d808 80 .cfa: sp 0 +
STACK CFI 2d80c .cfa: sp 48 +
STACK CFI 2d818 .cfa: x29 48 + x19: .cfa -8 + ^ x20: .cfa -16 + ^ x21: .cfa -32 + ^ .ra: .cfa -40 + ^ x29: .cfa -48 + ^
STACK CFI 2d868 .cfa: sp 48 +
STACK CFI 2d874 .cfa: sp 0 +
STACK CFI 2d878 .cfa: sp 48 +
STACK CFI 2d884 .cfa: sp 0 +
STACK CFI INIT 2da1c 250 .cfa: sp 0 +
STACK CFI INIT 2dc6c 1c8 .cfa: sp 0 +
STACK CFI 2dc70 .cfa: sp 64 +
STACK CFI 2dc80 .cfa: x29 64 + x19: .cfa -8 + ^ x20: .cfa -16 + ^ x21: .cfa -24 + ^ x22: .cfa -32 + ^ x23: .cfa -48 + ^ .ra: .cfa -56 + ^ x29: .cfa -64 + ^
STACK CFI 2dd88 .cfa: sp 64 +
STACK CFI 2dd98 .cfa: sp 0 +
STACK CFI 2dd9c .cfa: x29 64 +
STACK CFI INIT 2de34 80 .cfa: sp 0 +
STACK CFI 2de38 .cfa: sp 48 +
STACK CFI 2de44 .cfa: x29 48 + x19: .cfa -8 + ^ x20: .cfa -16 + ^ x21: .cfa -32 + ^ .ra: .cfa -40 + ^ x29: .cfa -48 + ^
STACK CFI 2de94 .cfa: sp 48 +
STACK CFI 2dea0 .cfa: sp 0 +
STACK CFI 2dea4 .cfa: sp 48 +
STACK CFI 2deb0 .cfa: sp 0 +
STACK CFI INIT 2deb4 98 .cfa: sp 0 +
STACK CFI 2debc .cfa: sp 48 +
STACK CFI 2dec8 .cfa: x29 48 + x19: .cfa -8 + ^ x20: .cfa -16 + ^ x21: .cfa -32 + ^ .ra: .cfa -40 + ^ x29: .cfa -48 + ^
STACK CFI 2df18 .cfa: sp 0 + x19: x19 x20: x20 x21: x21 .ra: x30 x29: x29
STACK CFI 2df1c .cfa: x29 48 + x19: .cfa -8 + ^ x20: .cfa -16 + ^ x21: .cfa -32 + ^ .ra: .cfa -40 + ^ x29: .cfa -48 + ^
STACK CFI 2df3c .cfa: sp 48 +
STACK CFI 2df48 .cfa: sp 0 +
STACK CFI INIT 2df4c 4c .cfa: sp 0 +
STACK CFI 2df54 .cfa: sp 32 +
STACK CFI 2df5c .cfa: x29 32 + x19: .cfa -8 + ^ x20: .cfa -16 + ^ .ra: .cfa -24 + ^ x29: .cfa -32 + ^
STACK CFI 2df8c .cfa: sp 32 +
STACK CFI 2df94 .cfa: sp 0 +
STACK CFI INIT 2df98 4c .cfa: sp 0 +
STACK CFI 2dfa0 .cfa: sp 32 +
STACK CFI 2dfa8 .cfa: x29 32 + x19: .cfa -8 + ^ x20: .cfa -16 + ^ .ra: .cfa -24 + ^ x29: .cfa -32 + ^
STACK CFI 2dfd8 .cfa: sp 32 +
STACK CFI 2dfe0 .cfa: sp 0 +
STACK CFI INIT 2e06c 4c .cfa: sp 0 +
STACK CFI 2e074 .cfa: sp 32 +
STACK CFI 2e07c .cfa: x29 32 + x19: .cfa -8 + ^ x20: .cfa -16 + ^ .ra: .cfa -24 + ^ x29: .cfa -32 + ^
STACK CFI 2e0ac .cfa: sp 32 +
STACK CFI 2e0b4 .cfa: sp 0 +
STACK CFI INIT 2e0b8 a8 .cfa: sp 0 +
STACK CFI 2e0c0 .cfa: sp 48 +
STACK CFI 2e0cc .cfa: x29 48 + x19: .cfa -8 + ^ x20: .cfa -16 + ^ x21: .cfa -24 + ^ x22: .cfa -32 + ^ .ra: .cfa -40 + ^ x29: .cfa -48 + ^
STACK CFI 2e150 .cfa: sp 48 +
STACK CFI 2e15c .cfa: sp 0 +
STACK CFI INIT 2e160 4c .cfa: sp 0 +
STACK CFI 2e168 .cfa: sp 32 +
STACK CFI 2e170 .cfa: x29 32 + x19: .cfa -8 + ^ x20: .cfa -16 + ^ .ra: .cfa -24 + ^ x29: .cfa -32 + ^
STACK CFI 2e1a0 .cfa: sp 32 +
STACK CFI 2e1a8 .cfa: sp 0 +
STACK CFI INIT 2e338 4 .cfa: sp 0 +
STACK CFI INIT 2e73c 1c .cfa: sp 0 +
STACK CFI INIT 2eb58 4 .cfa: sp 0 +
STACK CFI INIT 2eb5c 4ac .cfa: sp 0 +
STACK CFI 2eb60 .cfa: sp 96 +
STACK CFI 2eb74 .cfa: x29 64 + x19: .cfa -8 + ^ x20: .cfa -16 + ^ x21: .cfa -24 + ^ x22: .cfa -32 + ^ x23: .cfa -48 + ^ .ra: .cfa -56 + ^ x29: .cfa -64 + ^
STACK CFI 2ef7c .cfa: sp 96 +
STACK CFI 2ef90 .cfa: sp 0 +
STACK CFI 2ef94 .cfa: x29 64 +
STACK CFI INIT 2f408 1c .cfa: sp 0 +
STACK CFI INIT 31234 4 .cfa: sp 0 +
STACK CFI INIT 31474 e4 .cfa: sp 0 +
STACK CFI 31478 .cfa: sp 80 +
STACK CFI 31488 .cfa: x29 48 + x19: .cfa -8 + ^ x20: .cfa -16 + ^ x21: .cfa -24 + ^ x22: .cfa -32 + ^ .ra: .cfa -40 + ^ x29: .cfa -48 + ^
STACK CFI 31540 .cfa: sp 80 +
STACK CFI 31550 .cfa: sp 0 +
STACK CFI 31554 .cfa: x29 48 +
STACK CFI INIT 3168c 164 .cfa: sp 0 +
STACK CFI 31690 .cfa: sp 80 +
STACK CFI 316a4 .cfa: x29 64 + x19: .cfa -8 + ^ x20: .cfa -16 + ^ x21: .cfa -24 + ^ x22: .cfa -32 + ^ x23: .cfa -40 + ^ x24: .cfa -48 + ^ .ra: .cfa -56 + ^ x29: .cfa -64 + ^
STACK CFI 317d4 .cfa: sp 80 +
STACK CFI 317e8 .cfa: sp 0 +
STACK CFI 317ec .cfa: x29 64 +
STACK CFI INIT 317f0 e4 .cfa: sp 0 +
STACK CFI 317f4 .cfa: sp 80 +
STACK CFI 31804 .cfa: x29 48 + x19: .cfa -8 + ^ x20: .cfa -16 + ^ x21: .cfa -24 + ^ x22: .cfa -32 + ^ .ra: .cfa -40 + ^ x29: .cfa -48 + ^
STACK CFI 318bc .cfa: sp 80 +
STACK CFI 318cc .cfa: sp 0 +
STACK CFI 318d0 .cfa: x29 48 +
STACK CFI INIT 318d4 188 .cfa: sp 0 +
STACK CFI 318d8 .cfa: sp 96 +
STACK CFI 318f0 .cfa: x29 80 + x19: .cfa -8 + ^ x20: .cfa -16 + ^ x21: .cfa -24 + ^ x22: .cfa -32 + ^ x23: .cfa -40 + ^ x24: .cfa -48 + ^ x25: .cfa -64 + ^ .ra: .cfa -72 + ^ x29: .cfa -80 + ^
STACK CFI 31a3c .cfa: sp 96 +
STACK CFI 31a54 .cfa: sp 0 +
STACK CFI 31a58 .cfa: x29 80 +
STACK CFI INIT 31a5c 2e8 .cfa: sp 0 +
STACK CFI 31a60 .cfa: sp 64 +
STACK CFI 31a70 .cfa: x29 48 + x19: .cfa -8 + ^ x20: .cfa -16 + ^ x21: .cfa -24 + ^ x22: .cfa -32 + ^ .ra: .cfa -40 + ^ x29: .cfa -48 + ^
STACK CFI 31b98 .cfa: sp 64 +
STACK CFI 31ba8 .cfa: sp 0 +
STACK CFI 31bac .cfa: x29 48 +
STACK CFI 31ca8 .cfa: sp 64 +
STACK CFI 31cb8 .cfa: sp 0 +
STACK CFI 31cbc .cfa: x29 48 +
STACK CFI 31d2c .cfa: sp 64 +
STACK CFI 31d3c .cfa: sp 0 +
STACK CFI 31d40 .cfa: x29 48 +
STACK CFI INIT 31ec8 c4 .cfa: sp 0 +
STACK CFI 31ecc .cfa: sp 64 +
STACK CFI 31edc .cfa: x29 48 + x19: .cfa -8 + ^ x20: .cfa -16 + ^ x21: .cfa -32 + ^ .ra: .cfa -40 + ^ x29: .cfa -48 + ^
STACK CFI 31f74 .cfa: sp 64 +
STACK CFI 31f84 .cfa: sp 0 +
STACK CFI 31f88 .cfa: x29 48 +
STACK CFI INIT 31f8c c4 .cfa: sp 0 +
STACK CFI 31f90 .cfa: sp 64 +
STACK CFI 31fa0 .cfa: x29 48 + x19: .cfa -8 + ^ x20: .cfa -16 + ^ x21: .cfa -32 + ^ .ra: .cfa -40 + ^ x29: .cfa -48 + ^
STACK CFI 32038 .cfa: sp 64 +
STACK CFI 32048 .cfa: sp 0 +
STACK CFI 3204c .cfa: x29 48 +
STACK CFI INIT 32050 108 .cfa: sp 0 +
STACK CFI 32054 .cfa: sp 64 +
STACK CFI 32064 .cfa: x29 48 + x19: .cfa -8 + ^ x20: .cfa -16 + ^ x21: .cfa -32 + ^ .ra: .cfa -40 + ^ x29: .cfa -48 + ^
STACK CFI 320dc .cfa: sp 64 +
STACK CFI 320ec .cfa: sp 0 +
STACK CFI 320f0 .cfa: x29 48 +
STACK CFI 32140 .cfa: sp 64 +
STACK CFI 32150 .cfa: sp 0 +
STACK CFI 32154 .cfa: x29 48 +
STACK CFI INIT 32158 c4 .cfa: sp 0 +
STACK CFI 3215c .cfa: sp 64 +
STACK CFI 3216c .cfa: x29 48 + x19: .cfa -8 + ^ x20: .cfa -16 + ^ x21: .cfa -32 + ^ .ra: .cfa -40 + ^ x29: .cfa -48 + ^
STACK CFI 32204 .cfa: sp 64 +
STACK CFI 32214 .cfa: sp 0 +
STACK CFI 32218 .cfa: x29 48 +
STACK CFI INIT 3221c 108 .cfa: sp 0 +
STACK CFI 32220 .cfa: sp 64 +
STACK CFI 32230 .cfa: x29 48 + x19: .cfa -8 + ^ x20: .cfa -16 + ^ x21: .cfa -32 + ^ .ra: .cfa -40 + ^ x29: .cfa -48 + ^
STACK CFI 322a8 .cfa: sp 64 +
STACK CFI 322b8 .cfa: sp 0 +
STACK CFI 322bc .cfa: x29 48 +
STACK CFI 3230c .cfa: sp 64 +
STACK CFI 3231c .cfa: sp 0 +
STACK CFI 32320 .cfa: x29 48 +
STACK CFI INIT 32324 c4 .cfa: sp 0 +
STACK CFI 32328 .cfa: sp 64 +
STACK CFI 32338 .cfa: x29 48 + x19: .cfa -8 + ^ x20: .cfa -16 + ^ x21: .cfa -32 + ^ .ra: .cfa -40 + ^ x29: .cfa -48 + ^
STACK CFI 323d0 .cfa: sp 64 +
STACK CFI 323e0 .cfa: sp 0 +
STACK CFI 323e4 .cfa: x29 48 +
STACK CFI INIT 323e8 c4 .cfa: sp 0 +
STACK CFI 323ec .cfa: sp 64 +
STACK CFI 323fc .cfa: x29 48 + x19: .cfa -8 + ^ x20: .cfa -16 + ^ x21: .cfa -32 + ^ .ra: .cfa -40 + ^ x29: .cfa -48 + ^
STACK CFI 32494 .cfa: sp 64 +
STACK CFI 324a4 .cfa: sp 0 +
STACK CFI 324a8 .cfa: x29 48 +
STACK CFI INIT 32778 78 .cfa: sp 0 +
STACK CFI 3277c .cfa: sp 48 +
STACK CFI 32788 .cfa: x29 48 + x19: .cfa -8 + ^ x20: .cfa -16 + ^ x21: .cfa -32 + ^ .ra: .cfa -40 + ^ x29: .cfa -48 + ^
STACK CFI 327d0 .cfa: sp 48 +
STACK CFI 327dc .cfa: sp 0 +
STACK CFI 327e0 .cfa: sp 48 +
STACK CFI 327ec .cfa: sp 0 +
STACK CFI INIT 327f0 78 .cfa: sp 0 +
STACK CFI 327f4 .cfa: sp 48 +
STACK CFI 32800 .cfa: x29 48 + x19: .cfa -8 + ^ x20: .cfa -16 + ^ x21: .cfa -32 + ^ .ra: .cfa -40 + ^ x29: .cfa -48 + ^
STACK CFI 32848 .cfa: sp 48 +
STACK CFI 32854 .cfa: sp 0 +
STACK CFI 32858 .cfa: sp 48 +
STACK CFI 32864 .cfa: sp 0 +
STACK CFI INIT 32868 48 .cfa: sp 0 +
STACK CFI 3286c .cfa: sp 32 +
STACK CFI 32874 .cfa: x29 32 + x19: .cfa -16 + ^ .ra: .cfa -24 + ^ x29: .cfa -32 + ^
STACK CFI 328a4 .cfa: sp 32 +
STACK CFI 328ac .cfa: sp 0 +
STACK CFI INIT 328b0 4c .cfa: sp 0 +
STACK CFI 328b8 .cfa: sp 32 +
STACK CFI 328c0 .cfa: x29 32 + x19: .cfa -8 + ^ x20: .cfa -16 + ^ .ra: .cfa -24 + ^ x29: .cfa -32 + ^
STACK CFI 328f0 .cfa: sp 32 +
STACK CFI 328f8 .cfa: sp 0 +
STACK CFI INIT 32a84 4 .cfa: sp 0 +
STACK CFI INIT 330f8 1c .cfa: sp 0 +
STACK CFI INIT 33814 4 .cfa: sp 0 +
STACK CFI INIT 33818 7c .cfa: sp 0 +
STACK CFI 3381c .cfa: sp 32 +
STACK CFI 33824 .cfa: x29 32 + x19: .cfa -8 + ^ x20: .cfa -16 + ^ .ra: .cfa -24 + ^ x29: .cfa -32 + ^
STACK CFI 3387c .cfa: sp 32 +
STACK CFI 33884 .cfa: sp 0 +
STACK CFI 33888 .cfa: sp 32 +
STACK CFI 33890 .cfa: sp 0 +
STACK CFI INIT 339fc 4 .cfa: sp 0 +
STACK CFI INIT 33a00 14 .cfa: sp 0 +
STACK CFI INIT 345c0 18c .cfa: sp 0 +
STACK CFI 345c4 .cfa: sp 80 +
STACK CFI 345d8 .cfa: x29 64 + x19: .cfa -8 + ^ x20: .cfa -16 + ^ x21: .cfa -24 + ^ x22: .cfa -32 + ^ x23: .cfa -40 + ^ x24: .cfa -48 + ^ .ra: .cfa -56 + ^ x29: .cfa -64 + ^
STACK CFI 34730 .cfa: sp 80 +
STACK CFI 34744 .cfa: sp 0 +
STACK CFI 34748 .cfa: x29 64 +
STACK CFI INIT 3654c 4 .cfa: sp 0 +
STACK CFI INIT 36550 30 .cfa: sp 0 +
STACK CFI 36554 .cfa: sp 32 +
STACK CFI 3655c .cfa: x29 32 + x19: .cfa -16 + ^ .ra: .cfa -24 + ^ x29: .cfa -32 + ^
STACK CFI 36574 .cfa: sp 32 +
STACK CFI 3657c .cfa: sp 0 +
STACK CFI INIT 36580 4c .cfa: sp 0 +
STACK CFI 36584 .cfa: sp 32 +
STACK CFI 3658c .cfa: x29 32 + x19: .cfa -8 + ^ x20: .cfa -16 + ^ .ra: .cfa -24 + ^ x29: .cfa -32 + ^
STACK CFI 365b4 .cfa: sp 32 +
STACK CFI 365bc .cfa: sp 0 +
STACK CFI 365c0 .cfa: sp 32 +
STACK CFI 365c8 .cfa: sp 0 +
STACK CFI INIT 367ec 64 .cfa: sp 0 +
STACK CFI 367f0 .cfa: sp 32 +
STACK CFI 367f8 .cfa: x29 32 + x19: .cfa -16 + ^ .ra: .cfa -24 + ^ x29: .cfa -32 + ^
STACK CFI 36824 .cfa: sp 32 +
STACK CFI 3682c .cfa: sp 0 +
STACK CFI 36830 .cfa: x29 32 +
STACK CFI 36844 .cfa: sp 32 +
STACK CFI 3684c .cfa: sp 0 +
STACK CFI INIT 36850 24 .cfa: sp 0 +
STACK CFI 36854 .cfa: sp 32 +
STACK CFI 3685c .cfa: x29 32 + x19: .cfa -16 + ^ .ra: .cfa -24 + ^ x29: .cfa -32 + ^
STACK CFI 36868 .cfa: sp 32 +
STACK CFI 36870 .cfa: sp 0 +
STACK CFI INIT 36874 24 .cfa: sp 0 +
STACK CFI 36878 .cfa: sp 32 +
STACK CFI 36880 .cfa: x29 32 + x19: .cfa -16 + ^ .ra: .cfa -24 + ^ x29: .cfa -32 + ^
STACK CFI 3688c .cfa: sp 32 +
STACK CFI 36894 .cfa: sp 0 +
STACK CFI INIT 36898 24 .cfa: sp 0 +
STACK CFI 3689c .cfa: sp 32 +
STACK CFI 368a4 .cfa: x29 32 + x19: .cfa -16 + ^ .ra: .cfa -24 + ^ x29: .cfa -32 + ^
STACK CFI 368b0 .cfa: sp 32 +
STACK CFI 368b8 .cfa: sp 0 +
STACK CFI INIT 368bc 8 .cfa: sp 0 +
STACK CFI INIT 368c4 24 .cfa: sp 0 +
STACK CFI 368c8 .cfa: sp 32 +
STACK CFI 368d0 .cfa: x29 32 + x19: .cfa -16 + ^ .ra: .cfa -24 + ^ x29: .cfa -32 + ^
STACK CFI 368dc .cfa: sp 32 +
STACK CFI 368e4 .cfa: sp 0 +
STACK CFI INIT 368e8 28 .cfa: sp 0 +
STACK CFI 368ec .cfa: sp 32 +
STACK CFI 368f4 .cfa: x29 32 + x19: .cfa -16 + ^ .ra: .cfa -24 + ^ x29: .cfa -32 + ^
STACK CFI 36904 .cfa: sp 32 +
STACK CFI 3690c .cfa: sp 0 +
STACK CFI INIT 36910 24 .cfa: sp 0 +
STACK CFI 36914 .cfa: sp 32 +
STACK CFI 3691c .cfa: x29 32 + x19: .cfa -16 + ^ .ra: .cfa -24 + ^ x29: .cfa -32 + ^
STACK CFI 36928 .cfa: sp 32 +
STACK CFI 36930 .cfa: sp 0 +
STACK CFI INIT 37d9c 8 .cfa: sp 0 +
STACK CFI INIT 37da4 24 .cfa: sp 0 +
STACK CFI 37da8 .cfa: sp 32 +
STACK CFI 37db0 .cfa: x29 32 + x19: .cfa -16 + ^ .ra: .cfa -24 + ^ x29: .cfa -32 + ^
STACK CFI 37dbc .cfa: sp 32 +
STACK CFI 37dc4 .cfa: sp 0 +
STACK CFI INIT 37dc8 28 .cfa: sp 0 +
STACK CFI 37dcc .cfa: sp 32 +
STACK CFI 37dd4 .cfa: x29 32 + x19: .cfa -16 + ^ .ra: .cfa -24 + ^ x29: .cfa -32 + ^
STACK CFI 37de4 .cfa: sp 32 +
STACK CFI 37dec .cfa: sp 0 +
STACK CFI INIT 383cc 8 .cfa: sp 0 +
STACK CFI INIT 38aa4 8 .cfa: sp 0 +
STACK CFI INIT 38ebc 8 .cfa: sp 0 +
STACK CFI INIT 39118 4 .cfa: sp 0 +
STACK CFI INIT 3911c 8 .cfa: sp 0 +
STACK CFI INIT 39124 8 .cfa: sp 0 +
STACK CFI INIT 3912c 4 .cfa: sp 0 +
STACK CFI INIT 39f64 8 .cfa: sp 0 +
STACK CFI INIT 39f6c 4 .cfa: sp 0 +
STACK CFI INIT 39f70 4 .cfa: sp 0 +
STACK CFI INIT 39f74 8 .cfa: sp 0 +
STACK CFI INIT 39f7c 4 .cfa: sp 0 +
STACK CFI INIT 39f80 8 .cfa: sp 0 +
STACK CFI INIT 39f88 c .cfa: sp 0 +
STACK CFI INIT 39f94 c .cfa: sp 0 +
STACK CFI INIT 39fa0 8 .cfa: sp 0 +
STACK CFI INIT 39fa8 8 .cfa: sp 0 +
STACK CFI INIT 39fb0 8 .cfa: sp 0 +
STACK CFI INIT 39fb8 8 .cfa: sp 0 +
STACK CFI INIT 39fc0 4 .cfa: sp 0 +
STACK CFI INIT 39fc4 4 .cfa: sp 0 +
STACK CFI INIT 39fc8 4 .cfa: sp 0 +
STACK CFI INIT 39fcc 4 .cfa: sp 0 +
STACK CFI INIT 3ab40 4 .cfa: sp 0 +
STACK CFI INIT 3ab44 14 .cfa: sp 0 +
STACK CFI INIT 1bd90 400 .cfa: sp 0 +
STACK CFI 1bd94 .cfa: sp 224 +
STACK CFI 1bdb0 .cfa: x29 96 + x19: .cfa -8 + ^ x20: .cfa -16 + ^ x21: .cfa -24 + ^ x22: .cfa -32 + ^ x23: .cfa -40 + ^ x24: .cfa -48 + ^ x25: .cfa -56 + ^ x26: .cfa -64 + ^ x27: .cfa -72 + ^ x28: .cfa -80 + ^ .ra: .cfa -88 + ^ x29: .cfa -96 + ^
STACK CFI 1c088 .cfa: sp 224 +
STACK CFI 1c0a4 .cfa: sp 0 +
STACK CFI 1c0a8 .cfa: x29 96 +
STACK CFI INIT 1c1ac d0c .cfa: sp 0 +
STACK CFI 1c1b0 .cfa: sp 256 +
STACK CFI 1c1c8 .cfa: x29 80 + x19: .cfa -8 + ^ x20: .cfa -16 + ^ x21: .cfa -24 + ^ x22: .cfa -32 + ^ x23: .cfa -40 + ^ x24: .cfa -48 + ^ x25: .cfa -64 + ^ .ra: .cfa -72 + ^ x29: .cfa -80 + ^
STACK CFI 1cb98 .cfa: sp 256 +
STACK CFI 1cbb0 .cfa: sp 0 +
STACK CFI 1cbb4 .cfa: x29 80 +
STACK CFI INIT 1cf38 74 .cfa: sp 0 +
STACK CFI 1cf3c .cfa: sp 48 +
STACK CFI 1cf48 .cfa: x29 32 + x19: .cfa -8 + ^ x20: .cfa -16 + ^ .ra: .cfa -24 + ^ x29: .cfa -32 + ^
STACK CFI 1cf94 .cfa: sp 48 +
STACK CFI 1cfa0 .cfa: sp 0 +
STACK CFI 1cfa4 .cfa: x29 32 +
STACK CFI INIT 1d03c 154 .cfa: sp 0 +
STACK CFI 1d040 .cfa: sp 384 +
STACK CFI 1d054 .cfa: x29 64 + x19: .cfa -8 + ^ x20: .cfa -16 + ^ x21: .cfa -24 + ^ x22: .cfa -32 + ^ x23: .cfa -40 + ^ x28: .cfa -48 + ^ .ra: .cfa -56 + ^ x29: .cfa -64 + ^
STACK CFI 1d138 .cfa: sp 384 +
STACK CFI 1d14c .cfa: sp 0 +
STACK CFI 1d150 .cfa: x29 64 +
STACK CFI INIT 1d1c4 124 .cfa: sp 0 +
STACK CFI 1d1c8 .cfa: sp 80 +
STACK CFI 1d1dc .cfa: x29 80 + x19: .cfa -8 + ^ x20: .cfa -16 + ^ x21: .cfa -24 + ^ x22: .cfa -32 + ^ x23: .cfa -40 + ^ x24: .cfa -48 + ^ x25: .cfa -56 + ^ x26: .cfa -64 + ^ .ra: .cfa -72 + ^ x29: .cfa -80 + ^
STACK CFI 1d2a8 .cfa: sp 80 +
STACK CFI 1d2bc .cfa: sp 0 +
STACK CFI 1d2c0 .cfa: x29 80 +
STACK CFI INIT 1d38c 198 .cfa: sp 0 +
STACK CFI 1d390 .cfa: sp 112 +
STACK CFI 1d3a8 .cfa: x29 80 + x19: .cfa -8 + ^ x20: .cfa -16 + ^ x21: .cfa -24 + ^ x22: .cfa -32 + ^ x23: .cfa -40 + ^ x24: .cfa -48 + ^ x25: .cfa -56 + ^ x26: .cfa -64 + ^ .ra: .cfa -72 + ^ x29: .cfa -80 + ^
STACK CFI 1d498 .cfa: sp 112 +
STACK CFI 1d4b0 .cfa: sp 0 +
STACK CFI 1d4b4 .cfa: x29 80 +
STACK CFI INIT 1d524 1b4 .cfa: sp 0 +
STACK CFI 1d528 .cfa: sp 128 +
STACK CFI 1d544 .cfa: x29 96 + x19: .cfa -8 + ^ x20: .cfa -16 + ^ x21: .cfa -24 + ^ x22: .cfa -32 + ^ x23: .cfa -40 + ^ x24: .cfa -48 + ^ x25: .cfa -56 + ^ x26: .cfa -64 + ^ x27: .cfa -80 + ^ .ra: .cfa -88 + ^ x29: .cfa -96 + ^
STACK CFI 1d688 .cfa: sp 128 +
STACK CFI 1d6a4 .cfa: sp 0 +
STACK CFI 1d6a8 .cfa: x29 96 +
STACK CFI INIT 1d6ec 50 .cfa: sp 0 +
STACK CFI 1d6f0 .cfa: sp 32 +
STACK CFI 1d6f8 .cfa: x29 32 + x19: .cfa -8 + ^ x20: .cfa -16 + ^ .ra: .cfa -24 + ^ x29: .cfa -32 + ^
STACK CFI INIT 1d7a0 15c .cfa: sp 0 +
STACK CFI 1d7a4 .cfa: sp 80 +
STACK CFI 1d7b8 .cfa: x29 80 + x19: .cfa -8 + ^ x20: .cfa -16 + ^ x21: .cfa -24 + ^ x22: .cfa -32 + ^ x23: .cfa -40 + ^ x24: .cfa -48 + ^ x25: .cfa -64 + ^ .ra: .cfa -72 + ^ x29: .cfa -80 + ^
STACK CFI 1d8c8 .cfa: sp 80 +
STACK CFI 1d8dc .cfa: sp 0 +
STACK CFI 1d8e0 .cfa: x29 80 +
STACK CFI INIT 1da44 21c .cfa: sp 0 +
STACK CFI 1da48 .cfa: sp 128 +
STACK CFI 1da60 .cfa: x29 80 + x19: .cfa -8 + ^ x20: .cfa -16 + ^ x21: .cfa -24 + ^ x22: .cfa -32 + ^ x23: .cfa -40 + ^ x24: .cfa -48 + ^ x25: .cfa -64 + ^ .ra: .cfa -72 + ^ x29: .cfa -80 + ^
STACK CFI 1dbf0 .cfa: sp 128 +
STACK CFI 1dc08 .cfa: sp 0 +
STACK CFI 1dc0c .cfa: x29 80 +
STACK CFI INIT 1e348 a8 .cfa: sp 0 +
STACK CFI 1e34c .cfa: sp 32 +
STACK CFI 1e354 .cfa: x29 32 + x19: .cfa -8 + ^ x20: .cfa -16 + ^ .ra: .cfa -24 + ^ x29: .cfa -32 + ^
STACK CFI 1e388 .cfa: sp 32 +
STACK CFI 1e390 .cfa: sp 0 +
STACK CFI 1e394 .cfa: x29 32 +
STACK CFI 1e398 .cfa: sp 32 +
STACK CFI 1e3a0 .cfa: sp 0 +
STACK CFI 1e3a4 .cfa: x29 32 +
STACK CFI INIT 1e3f0 1538 .cfa: sp 0 +
STACK CFI 1e3f4 .cfa: sp 208 +
STACK CFI 1e414 .cfa: x29 80 + x19: .cfa -8 + ^ x20: .cfa -16 + ^ x21: .cfa -24 + ^ x22: .cfa -32 + ^ x23: .cfa -40 + ^ x24: .cfa -48 + ^ x25: .cfa -56 + ^ x26: .cfa -64 + ^ .ra: .cfa -72 + ^ x29: .cfa -80 + ^ v8: .cfa -88 + ^ v9: .cfa -96 + ^ v10: .cfa -112 + ^
STACK CFI 1f814 .cfa: sp 208 +
STACK CFI 1f834 .cfa: sp 0 +
STACK CFI 1f838 .cfa: x29 80 +
STACK CFI INIT 1f928 184 .cfa: sp 0 +
STACK CFI 1f92c .cfa: sp 160 +
STACK CFI 1f944 .cfa: x29 80 + x19: .cfa -8 + ^ x20: .cfa -16 + ^ x21: .cfa -24 + ^ x22: .cfa -32 + ^ x23: .cfa -40 + ^ x24: .cfa -48 + ^ x25: .cfa -56 + ^ x26: .cfa -64 + ^ .ra: .cfa -72 + ^ x29: .cfa -80 + ^
STACK CFI 1fa44 .cfa: sp 160 +
STACK CFI 1fa5c .cfa: sp 0 +
STACK CFI 1fa60 .cfa: x29 80 +
STACK CFI INIT 1faac 5b0 .cfa: sp 0 +
STACK CFI 1fab0 .cfa: sp 192 +
STACK CFI 1fad4 .cfa: x29 88 + x19: .cfa -8 + ^ x20: .cfa -16 + ^ x21: .cfa -24 + ^ x22: .cfa -32 + ^ x23: .cfa -40 + ^ x24: .cfa -48 + ^ x25: .cfa -56 + ^ x26: .cfa -64 + ^ x27: .cfa -72 + ^ .ra: .cfa -80 + ^ x29: .cfa -88 + ^ v8: .cfa -96 + ^ v9: .cfa -104 + ^ v10: .cfa -112 + ^
STACK CFI 1ff44 .cfa: sp 192 +
STACK CFI 1ff68 .cfa: sp 0 +
STACK CFI 1ff6c .cfa: x29 88 +
STACK CFI INIT 2005c 16d4 .cfa: sp 0 +
STACK CFI 20060 .cfa: sp 224 +
STACK CFI 20084 .cfa: x29 96 + x19: .cfa -8 + ^ x20: .cfa -16 + ^ x21: .cfa -24 + ^ x22: .cfa -32 + ^ x23: .cfa -40 + ^ x24: .cfa -48 + ^ x25: .cfa -56 + ^ x26: .cfa -64 + ^ x27: .cfa -72 + ^ x28: .cfa -80 + ^ .ra: .cfa -88 + ^ x29: .cfa -96 + ^ v8: .cfa -104 + ^ v9: .cfa -112 + ^ v10: .cfa -128 + ^
STACK CFI 201fc .cfa: sp 224 +
STACK CFI 20220 .cfa: sp 0 +
STACK CFI 20224 .cfa: x29 96 +
STACK CFI INIT 21730 b20 .cfa: sp 0 +
STACK CFI 21734 .cfa: sp 144 +
STACK CFI 21750 .cfa: x29 96 + x19: .cfa -8 + ^ x20: .cfa -16 + ^ x21: .cfa -24 + ^ x22: .cfa -32 + ^ x23: .cfa -40 + ^ x24: .cfa -48 + ^ x25: .cfa -56 + ^ x26: .cfa -64 + ^ x27: .cfa -72 + ^ x28: .cfa -80 + ^ .ra: .cfa -88 + ^ x29: .cfa -96 + ^
STACK CFI 21fa4 .cfa: sp 144 +
STACK CFI 21fc0 .cfa: sp 0 +
STACK CFI 21fc4 .cfa: x29 96 +
STACK CFI INIT 22558 1e0 .cfa: sp 0 +
STACK CFI 2255c .cfa: sp 208 +
STACK CFI 22574 .cfa: x29 80 + x19: .cfa -8 + ^ x20: .cfa -16 + ^ x21: .cfa -24 + ^ x22: .cfa -32 + ^ x23: .cfa -40 + ^ x24: .cfa -48 + ^ x25: .cfa -64 + ^ .ra: .cfa -72 + ^ x29: .cfa -80 + ^
STACK CFI 226c4 .cfa: sp 208 +
STACK CFI 226dc .cfa: sp 0 +
STACK CFI 226e0 .cfa: x29 80 +
STACK CFI INIT 22738 1d0 .cfa: sp 0 +
STACK CFI 2273c .cfa: sp 208 +
STACK CFI 22754 .cfa: x29 80 + x19: .cfa -8 + ^ x20: .cfa -16 + ^ x21: .cfa -24 + ^ x22: .cfa -32 + ^ x23: .cfa -40 + ^ x24: .cfa -48 + ^ x25: .cfa -64 + ^ .ra: .cfa -72 + ^ x29: .cfa -80 + ^
STACK CFI 22894 .cfa: sp 208 +
STACK CFI 228ac .cfa: sp 0 +
STACK CFI 228b0 .cfa: x29 80 +
STACK CFI INIT 22a5c 74 .cfa: sp 0 +
STACK CFI 22a60 .cfa: sp 48 +
STACK CFI 22a6c .cfa: x29 32 + x19: .cfa -8 + ^ x20: .cfa -16 + ^ .ra: .cfa -24 + ^ x29: .cfa -32 + ^
STACK CFI 22ab8 .cfa: sp 48 +
STACK CFI 22ac4 .cfa: sp 0 +
STACK CFI 22ac8 .cfa: x29 32 +
STACK CFI INIT 22b00 104 .cfa: sp 0 +
STACK CFI 22b04 .cfa: sp 112 +
STACK CFI 22b10 .cfa: x29 32 + x19: .cfa -8 + ^ x20: .cfa -16 + ^ .ra: .cfa -24 + ^ x29: .cfa -32 + ^
STACK CFI 22bd4 .cfa: sp 112 +
STACK CFI 22be0 .cfa: sp 0 +
STACK CFI 22be4 .cfa: x29 32 +
STACK CFI INIT 22fa0 18c .cfa: sp 0 +
STACK CFI 22fa4 .cfa: sp 112 +
STACK CFI 22fb4 .cfa: x29 48 + x19: .cfa -8 + ^ x20: .cfa -16 + ^ x21: .cfa -24 + ^ x22: .cfa -32 + ^ .ra: .cfa -40 + ^ x29: .cfa -48 + ^
STACK CFI 23088 .cfa: sp 112 +
STACK CFI 23098 .cfa: sp 0 +
STACK CFI 2309c .cfa: x29 48 +
STACK CFI INIT 2312c 290 .cfa: sp 0 +
STACK CFI 23130 .cfa: sp 160 +
STACK CFI 2314c .cfa: x29 96 + x19: .cfa -8 + ^ x20: .cfa -16 + ^ x21: .cfa -24 + ^ x22: .cfa -32 + ^ x23: .cfa -40 + ^ x24: .cfa -48 + ^ x25: .cfa -56 + ^ x26: .cfa -64 + ^ x27: .cfa -72 + ^ x28: .cfa -80 + ^ .ra: .cfa -88 + ^ x29: .cfa -96 + ^
STACK CFI 23184 .cfa: sp 160 +
STACK CFI 231a0 .cfa: sp 0 +
STACK CFI 231a4 .cfa: x29 96 +
STACK CFI INIT 233bc 114 .cfa: sp 0 +
STACK CFI 233c0 .cfa: sp 64 +
STACK CFI 233d0 .cfa: x29 64 + x19: .cfa -8 + ^ x20: .cfa -16 + ^ x21: .cfa -24 + ^ x22: .cfa -32 + ^ x23: .cfa -48 + ^ .ra: .cfa -56 + ^ x29: .cfa -64 + ^
STACK CFI 234ac .cfa: sp 64 +
STACK CFI 234bc .cfa: sp 0 +
STACK CFI 234c0 .cfa: x29 64 +
STACK CFI INIT 234e8 200 .cfa: sp 0 +
STACK CFI 234ec .cfa: sp 96 +
STACK CFI 23504 .cfa: x29 96 + x19: .cfa -8 + ^ x20: .cfa -16 + ^ x21: .cfa -24 + ^ x22: .cfa -32 + ^ x23: .cfa -40 + ^ x24: .cfa -48 + ^ x25: .cfa -56 + ^ x26: .cfa -64 + ^ x27: .cfa -80 + ^ .ra: .cfa -88 + ^ x29: .cfa -96 + ^
STACK CFI 2367c .cfa: sp 96 +
STACK CFI 23694 .cfa: sp 0 +
STACK CFI 23698 .cfa: x29 96 +
STACK CFI INIT 23710 50 .cfa: sp 0 +
STACK CFI 23714 .cfa: sp 32 +
STACK CFI 2371c .cfa: x29 32 + x19: .cfa -8 + ^ x20: .cfa -16 + ^ .ra: .cfa -24 + ^ x29: .cfa -32 + ^
STACK CFI INIT 2383c d0 .cfa: sp 0 +
STACK CFI 23840 .cfa: sp 80 +
STACK CFI 23854 .cfa: x29 64 + x19: .cfa -8 + ^ x20: .cfa -16 + ^ x21: .cfa -24 + ^ x22: .cfa -32 + ^ x23: .cfa -40 + ^ x24: .cfa -48 + ^ .ra: .cfa -56 + ^ x29: .cfa -64 + ^
STACK CFI 238cc .cfa: sp 80 +
STACK CFI 238e0 .cfa: sp 0 +
STACK CFI 238e4 .cfa: x29 64 +
STACK CFI INIT 23920 178 .cfa: sp 0 +
STACK CFI 23924 .cfa: sp 160 +
STACK CFI 23934 .cfa: x29 48 + x19: .cfa -8 + ^ x20: .cfa -16 + ^ x21: .cfa -32 + ^ .ra: .cfa -40 + ^ x29: .cfa -48 + ^
STACK CFI 23a3c .cfa: sp 160 +
STACK CFI 23a4c .cfa: sp 0 +
STACK CFI 23a50 .cfa: x29 48 +
STACK CFI INIT 23a98 d0 .cfa: sp 0 +
STACK CFI 23a9c .cfa: sp 80 +
STACK CFI 23ab0 .cfa: x29 64 + x19: .cfa -8 + ^ x20: .cfa -16 + ^ x21: .cfa -24 + ^ x22: .cfa -32 + ^ x23: .cfa -40 + ^ x24: .cfa -48 + ^ .ra: .cfa -56 + ^ x29: .cfa -64 + ^
STACK CFI 23b28 .cfa: sp 80 +
STACK CFI 23b3c .cfa: sp 0 +
STACK CFI 23b40 .cfa: x29 64 +
STACK CFI INIT 23b68 184 .cfa: sp 0 +
STACK CFI 23b6c .cfa: sp 160 +
STACK CFI 23b7c .cfa: x29 48 + x19: .cfa -8 + ^ x20: .cfa -16 + ^ x21: .cfa -32 + ^ .ra: .cfa -40 + ^ x29: .cfa -48 + ^
STACK CFI 23c90 .cfa: sp 160 +
STACK CFI 23ca0 .cfa: sp 0 +
STACK CFI 23ca4 .cfa: x29 48 +
STACK CFI INIT 23cec 444 .cfa: sp 0 +
STACK CFI 23cf0 .cfa: sp 224 +
STACK CFI 23d0c .cfa: x29 96 + x19: .cfa -8 + ^ x20: .cfa -16 + ^ x21: .cfa -24 + ^ x22: .cfa -32 + ^ x23: .cfa -40 + ^ x24: .cfa -48 + ^ x25: .cfa -56 + ^ x26: .cfa -64 + ^ x27: .cfa -80 + ^ .ra: .cfa -88 + ^ x29: .cfa -96 + ^
STACK CFI 23f3c .cfa: sp 224 +
STACK CFI 23f58 .cfa: sp 0 +
STACK CFI 23f5c .cfa: x29 96 +
STACK CFI 24028 .cfa: sp 224 +
STACK CFI 24044 .cfa: sp 0 +
STACK CFI 24048 .cfa: x29 96 +
STACK CFI INIT 2414c 9fc .cfa: sp 0 +
STACK CFI 24150 .cfa: sp 256 +
STACK CFI 24168 .cfa: x29 80 + x19: .cfa -8 + ^ x20: .cfa -16 + ^ x21: .cfa -24 + ^ x22: .cfa -32 + ^ x23: .cfa -40 + ^ x24: .cfa -48 + ^ x25: .cfa -56 + ^ x26: .cfa -64 + ^ .ra: .cfa -72 + ^ x29: .cfa -80 + ^
STACK CFI 248cc .cfa: sp 256 +
STACK CFI 248e4 .cfa: sp 0 +
STACK CFI 248e8 .cfa: x29 80 +
STACK CFI INIT 24b4c a8 .cfa: sp 0 +
STACK CFI 24b50 .cfa: sp 32 +
STACK CFI 24b58 .cfa: x29 32 + x19: .cfa -8 + ^ x20: .cfa -16 + ^ .ra: .cfa -24 + ^ x29: .cfa -32 + ^
STACK CFI 24b8c .cfa: sp 32 +
STACK CFI 24b94 .cfa: sp 0 +
STACK CFI 24b98 .cfa: x29 32 +
STACK CFI 24b9c .cfa: sp 32 +
STACK CFI 24ba4 .cfa: sp 0 +
STACK CFI 24ba8 .cfa: x29 32 +
STACK CFI INIT 24bf4 cc0 .cfa: sp 0 +
STACK CFI 24bf8 .cfa: sp 160 +
STACK CFI 24c18 .cfa: x29 96 + x19: .cfa -8 + ^ x20: .cfa -16 + ^ x21: .cfa -24 + ^ x22: .cfa -32 + ^ x23: .cfa -40 + ^ x24: .cfa -48 + ^ x25: .cfa -56 + ^ x26: .cfa -64 + ^ x27: .cfa -80 + ^ .ra: .cfa -88 + ^ x29: .cfa -96 + ^ v8: .cfa -104 + ^ v9: .cfa -112 + ^
STACK CFI 25848 .cfa: sp 160 +
STACK CFI 25868 .cfa: sp 0 +
STACK CFI 2586c .cfa: x29 96 +
STACK CFI INIT 267f8 10c8 .cfa: sp 0 +
STACK CFI 267fc .cfa: sp 192 +
STACK CFI 26820 .cfa: x29 96 + x19: .cfa -8 + ^ x20: .cfa -16 + ^ x21: .cfa -24 + ^ x22: .cfa -32 + ^ x23: .cfa -40 + ^ x24: .cfa -48 + ^ x25: .cfa -56 + ^ x26: .cfa -64 + ^ x27: .cfa -72 + ^ x28: .cfa -80 + ^ .ra: .cfa -88 + ^ x29: .cfa -96 + ^ v8: .cfa -104 + ^ v9: .cfa -112 + ^ v10: .cfa -128 + ^
STACK CFI 2772c .cfa: sp 192 +
STACK CFI 27750 .cfa: sp 0 +
STACK CFI 27754 .cfa: x29 96 +
STACK CFI INIT 27988 150c .cfa: sp 0 +
STACK CFI 2798c .cfa: sp 192 +
STACK CFI 279b0 .cfa: x29 96 + x19: .cfa -8 + ^ x20: .cfa -16 + ^ x21: .cfa -24 + ^ x22: .cfa -32 + ^ x23: .cfa -40 + ^ x24: .cfa -48 + ^ x25: .cfa -56 + ^ x26: .cfa -64 + ^ x27: .cfa -72 + ^ x28: .cfa -80 + ^ .ra: .cfa -88 + ^ x29: .cfa -96 + ^ v8: .cfa -104 + ^ v9: .cfa -112 + ^ v10: .cfa -128 + ^
STACK CFI 28c00 .cfa: sp 192 +
STACK CFI 28c24 .cfa: sp 0 +
STACK CFI 28c28 .cfa: x29 96 +
STACK CFI INIT 28e94 1438 .cfa: sp 0 +
STACK CFI 28e98 .cfa: sp 352 +
STACK CFI 28eb4 .cfa: x29 96 + x19: .cfa -8 + ^ x20: .cfa -16 + ^ x21: .cfa -24 + ^ x22: .cfa -32 + ^ x23: .cfa -40 + ^ x24: .cfa -48 + ^ x25: .cfa -56 + ^ x26: .cfa -64 + ^ x27: .cfa -72 + ^ x28: .cfa -80 + ^ .ra: .cfa -88 + ^ x29: .cfa -96 + ^
STACK CFI 29fbc .cfa: sp 352 +
STACK CFI 29fd8 .cfa: sp 0 +
STACK CFI 29fdc .cfa: x29 96 +
STACK CFI INIT 2a2cc 188 .cfa: sp 0 +
STACK CFI 2a2d0 .cfa: sp 112 +
STACK CFI 2a2e0 .cfa: x29 48 + x19: .cfa -8 + ^ x20: .cfa -16 + ^ x21: .cfa -24 + ^ x22: .cfa -32 + ^ .ra: .cfa -40 + ^ x29: .cfa -48 + ^
STACK CFI 2a3b0 .cfa: sp 112 +
STACK CFI 2a3c0 .cfa: sp 0 +
STACK CFI 2a3c4 .cfa: x29 48 +
STACK CFI INIT 2a458 20 .cfa: sp 0 +
STACK CFI 2a45c .cfa: sp 16 +
STACK CFI 2a460 .cfa: x29 16 + .ra: .cfa -8 + ^ x29: .cfa -16 + ^
STACK CFI 2a46c .cfa: sp 16 +
STACK CFI 2a470 .cfa: sp 0 +
STACK CFI 2a474 .cfa: x29 16 +
STACK CFI INIT 2a558 400 .cfa: sp 0 +
STACK CFI 2a55c .cfa: sp 224 +
STACK CFI 2a578 .cfa: x29 96 + x19: .cfa -8 + ^ x20: .cfa -16 + ^ x21: .cfa -24 + ^ x22: .cfa -32 + ^ x23: .cfa -40 + ^ x24: .cfa -48 + ^ x25: .cfa -56 + ^ x26: .cfa -64 + ^ x27: .cfa -72 + ^ x28: .cfa -80 + ^ .ra: .cfa -88 + ^ x29: .cfa -96 + ^
STACK CFI 2a850 .cfa: sp 224 +
STACK CFI 2a86c .cfa: sp 0 +
STACK CFI 2a870 .cfa: x29 96 +
STACK CFI INIT 2a974 6c8 .cfa: sp 0 +
STACK CFI 2a978 .cfa: sp 272 +
STACK CFI 2a994 .cfa: x29 96 + x19: .cfa -8 + ^ x20: .cfa -16 + ^ x21: .cfa -24 + ^ x22: .cfa -32 + ^ x23: .cfa -40 + ^ x24: .cfa -48 + ^ x25: .cfa -56 + ^ x26: .cfa -64 + ^ x27: .cfa -72 + ^ x28: .cfa -80 + ^ .ra: .cfa -88 + ^ x29: .cfa -96 + ^
STACK CFI 2ae74 .cfa: sp 272 +
STACK CFI 2ae90 .cfa: sp 0 +
STACK CFI 2ae94 .cfa: x29 96 +
STACK CFI INIT 2b040 b8 .cfa: sp 0 +
STACK CFI 2b044 .cfa: sp 32 +
STACK CFI 2b04c .cfa: x29 32 + x19: .cfa -8 + ^ x20: .cfa -16 + ^ .ra: .cfa -24 + ^ x29: .cfa -32 + ^
STACK CFI 2b080 .cfa: sp 32 +
STACK CFI 2b088 .cfa: sp 0 +
STACK CFI 2b08c .cfa: x29 32 +
STACK CFI 2b090 .cfa: sp 32 +
STACK CFI 2b098 .cfa: sp 0 +
STACK CFI 2b09c .cfa: x29 32 +
STACK CFI INIT 2b99c 770 .cfa: sp 0 +
STACK CFI 2b9a0 .cfa: sp 80 +
STACK CFI 2b9b4 .cfa: x29 80 + x19: .cfa -8 + ^ x20: .cfa -16 + ^ x21: .cfa -24 + ^ x22: .cfa -32 + ^ x23: .cfa -40 + ^ x24: .cfa -48 + ^ x25: .cfa -56 + ^ x26: .cfa -64 + ^ .ra: .cfa -72 + ^ x29: .cfa -80 + ^
STACK CFI 2be24 .cfa: sp 80 +
STACK CFI 2be38 .cfa: sp 0 +
STACK CFI 2be3c .cfa: x29 80 +
STACK CFI INIT 2c10c 550 .cfa: sp 0 +
STACK CFI 2c110 .cfa: sp 96 +
STACK CFI 2c124 .cfa: x29 64 + x19: .cfa -8 + ^ x20: .cfa -16 + ^ x21: .cfa -24 + ^ x22: .cfa -32 + ^ x23: .cfa -48 + ^ .ra: .cfa -56 + ^ x29: .cfa -64 + ^
STACK CFI 2c4c4 .cfa: sp 96 +
STACK CFI 2c4d8 .cfa: sp 0 +
STACK CFI 2c4dc .cfa: x29 64 +
STACK CFI INIT 2c7d0 1c .cfa: sp 0 +
STACK CFI 2c7d4 .cfa: sp 16 +
STACK CFI 2c7d8 .cfa: x29 16 + .ra: .cfa -8 + ^ x29: .cfa -16 + ^
STACK CFI 2c7e0 .cfa: sp 16 +
STACK CFI 2c7e4 .cfa: sp 0 +
STACK CFI 2c7e8 .cfa: x29 16 +
STACK CFI INIT 2caf8 440 .cfa: sp 0 +
STACK CFI 2cafc .cfa: sp 48 +
STACK CFI 2cb08 .cfa: x29 48 + x19: .cfa -8 + ^ x20: .cfa -16 + ^ x21: .cfa -24 + ^ x22: .cfa -32 + ^ .ra: .cfa -40 + ^ x29: .cfa -48 + ^
STACK CFI 2ceb0 .cfa: sp 48 +
STACK CFI 2cebc .cfa: sp 0 +
STACK CFI 2cec0 .cfa: x29 48 +
STACK CFI 2cf10 .cfa: sp 48 +
STACK CFI 2cf1c .cfa: sp 0 +
STACK CFI 2cf20 .cfa: x29 48 +
STACK CFI INIT 2cfb0 1c .cfa: sp 0 +
STACK CFI 2cfb4 .cfa: sp 16 +
STACK CFI 2cfb8 .cfa: x29 16 + .ra: .cfa -8 + ^ x29: .cfa -16 + ^
STACK CFI 2cfc0 .cfa: sp 16 +
STACK CFI 2cfc4 .cfa: sp 0 +
STACK CFI 2cfc8 .cfa: x29 16 +
STACK CFI INIT 2d05c 98 .cfa: sp 0 +
STACK CFI 2d060 .cfa: sp 48 +
STACK CFI 2d06c .cfa: x29 48 + x19: .cfa -8 + ^ x20: .cfa -16 + ^ x21: .cfa -32 + ^ .ra: .cfa -40 + ^ x29: .cfa -48 + ^
STACK CFI 2d0cc .cfa: sp 48 +
STACK CFI 2d0d8 .cfa: sp 0 +
STACK CFI 2d0dc .cfa: sp 48 +
STACK CFI 2d0e8 .cfa: sp 0 +
STACK CFI 2d0ec .cfa: x29 48 +
STACK CFI INIT 2d0f4 60 .cfa: sp 0 +
STACK CFI 2d0f8 .cfa: sp 32 +
STACK CFI 2d100 .cfa: x29 32 + x19: .cfa -8 + ^ x20: .cfa -16 + ^ .ra: .cfa -24 + ^ x29: .cfa -32 + ^
STACK CFI 2d138 .cfa: sp 32 +
STACK CFI 2d140 .cfa: sp 0 +
STACK CFI 2d144 .cfa: sp 32 +
STACK CFI 2d14c .cfa: sp 0 +
STACK CFI 2d150 .cfa: x29 32 +
STACK CFI INIT 2d154 1c .cfa: sp 0 +
STACK CFI 2d158 .cfa: sp 16 +
STACK CFI 2d15c .cfa: x29 16 + .ra: .cfa -8 + ^ x29: .cfa -16 + ^
STACK CFI 2d164 .cfa: sp 16 +
STACK CFI 2d168 .cfa: sp 0 +
STACK CFI 2d16c .cfa: x29 16 +
STACK CFI INIT 2d170 1c .cfa: sp 0 +
STACK CFI 2d174 .cfa: sp 16 +
STACK CFI 2d178 .cfa: x29 16 + .ra: .cfa -8 + ^ x29: .cfa -16 + ^
STACK CFI 2d180 .cfa: sp 16 +
STACK CFI 2d184 .cfa: sp 0 +
STACK CFI 2d188 .cfa: x29 16 +
STACK CFI INIT 2d36c 1cc .cfa: sp 0 +
STACK CFI 2d370 .cfa: sp 160 +
STACK CFI 2d388 .cfa: x29 80 + x19: .cfa -8 + ^ x20: .cfa -16 + ^ x21: .cfa -24 + ^ x22: .cfa -32 + ^ x23: .cfa -40 + ^ x24: .cfa -48 + ^ x25: .cfa -56 + ^ x26: .cfa -64 + ^ .ra: .cfa -72 + ^ x29: .cfa -80 + ^
STACK CFI 2d4e4 .cfa: sp 160 +
STACK CFI 2d4fc .cfa: sp 0 +
STACK CFI 2d500 .cfa: x29 80 +
STACK CFI INIT 2d888 194 .cfa: sp 0 +
STACK CFI 2d88c .cfa: sp 64 +
STACK CFI 2d89c .cfa: x29 64 + x19: .cfa -8 + ^ x20: .cfa -16 + ^ x21: .cfa -24 + ^ x22: .cfa -32 + ^ x23: .cfa -48 + ^ .ra: .cfa -56 + ^ x29: .cfa -64 + ^
STACK CFI 2d960 .cfa: sp 64 +
STACK CFI 2d970 .cfa: sp 0 +
STACK CFI 2d974 .cfa: x29 64 +
STACK CFI INIT 2dfe4 88 .cfa: sp 0 +
STACK CFI 2dfe8 .cfa: sp 48 +
STACK CFI 2dff4 .cfa: x29 48 + x19: .cfa -8 + ^ x20: .cfa -16 + ^ x21: .cfa -24 + ^ x22: .cfa -32 + ^ .ra: .cfa -40 + ^ x29: .cfa -48 + ^
STACK CFI 2e058 .cfa: sp 48 +
STACK CFI 2e064 .cfa: sp 0 +
STACK CFI 2e068 .cfa: x29 48 +
STACK CFI INIT 2e1ac 18c .cfa: sp 0 +
STACK CFI 2e1b0 .cfa: sp 112 +
STACK CFI 2e1c0 .cfa: x29 48 + x19: .cfa -8 + ^ x20: .cfa -16 + ^ x21: .cfa -24 + ^ x22: .cfa -32 + ^ .ra: .cfa -40 + ^ x29: .cfa -48 + ^
STACK CFI 2e294 .cfa: sp 112 +
STACK CFI 2e2a4 .cfa: sp 0 +
STACK CFI 2e2a8 .cfa: x29 48 +
STACK CFI INIT 2e33c 400 .cfa: sp 0 +
STACK CFI 2e340 .cfa: sp 224 +
STACK CFI 2e35c .cfa: x29 96 + x19: .cfa -8 + ^ x20: .cfa -16 + ^ x21: .cfa -24 + ^ x22: .cfa -32 + ^ x23: .cfa -40 + ^ x24: .cfa -48 + ^ x25: .cfa -56 + ^ x26: .cfa -64 + ^ x27: .cfa -72 + ^ x28: .cfa -80 + ^ .ra: .cfa -88 + ^ x29: .cfa -96 + ^
STACK CFI 2e634 .cfa: sp 224 +
STACK CFI 2e650 .cfa: sp 0 +
STACK CFI 2e654 .cfa: x29 96 +
STACK CFI INIT 2e758 400 .cfa: sp 0 +
STACK CFI 2e75c .cfa: sp 224 +
STACK CFI 2e774 .cfa: x29 80 + x19: .cfa -8 + ^ x20: .cfa -16 + ^ x21: .cfa -24 + ^ x22: .cfa -32 + ^ x23: .cfa -40 + ^ x24: .cfa -48 + ^ x25: .cfa -56 + ^ x26: .cfa -64 + ^ .ra: .cfa -72 + ^ x29: .cfa -80 + ^
STACK CFI 2ea28 .cfa: sp 224 +
STACK CFI 2ea40 .cfa: sp 0 +
STACK CFI 2ea44 .cfa: x29 80 +
STACK CFI INIT 2f008 400 .cfa: sp 0 +
STACK CFI 2f00c .cfa: sp 224 +
STACK CFI 2f028 .cfa: x29 96 + x19: .cfa -8 + ^ x20: .cfa -16 + ^ x21: .cfa -24 + ^ x22: .cfa -32 + ^ x23: .cfa -40 + ^ x24: .cfa -48 + ^ x25: .cfa -56 + ^ x26: .cfa -64 + ^ x27: .cfa -72 + ^ x28: .cfa -80 + ^ .ra: .cfa -88 + ^ x29: .cfa -96 + ^
STACK CFI 2f300 .cfa: sp 224 +
STACK CFI 2f31c .cfa: sp 0 +
STACK CFI 2f320 .cfa: x29 96 +
STACK CFI INIT 2f424 1e10 .cfa: sp 0 +
STACK CFI 2f428 .cfa: sp 288 +
STACK CFI 2f444 .cfa: x29 96 + x19: .cfa -8 + ^ x20: .cfa -16 + ^ x21: .cfa -24 + ^ x22: .cfa -32 + ^ x23: .cfa -40 + ^ x24: .cfa -48 + ^ x25: .cfa -56 + ^ x26: .cfa -64 + ^ x28: .cfa -80 + ^ .ra: .cfa -88 + ^ x29: .cfa -96 + ^
STACK CFI 30bb0 .cfa: sp 288 +
STACK CFI 30bcc .cfa: sp 0 +
STACK CFI 30bd0 .cfa: x29 96 +
STACK CFI INIT 31238 b8 .cfa: sp 0 +
STACK CFI 3123c .cfa: sp 32 +
STACK CFI 31244 .cfa: x29 32 + x19: .cfa -8 + ^ x20: .cfa -16 + ^ .ra: .cfa -24 + ^ x29: .cfa -32 + ^
STACK CFI 31278 .cfa: sp 32 +
STACK CFI 31280 .cfa: sp 0 +
STACK CFI 31284 .cfa: x29 32 +
STACK CFI 31288 .cfa: sp 32 +
STACK CFI 31290 .cfa: sp 0 +
STACK CFI 31294 .cfa: x29 32 +
STACK CFI INIT 312f0 184 .cfa: sp 0 +
STACK CFI 312f4 .cfa: sp 160 +
STACK CFI 3130c .cfa: x29 80 + x19: .cfa -8 + ^ x20: .cfa -16 + ^ x21: .cfa -24 + ^ x22: .cfa -32 + ^ x23: .cfa -40 + ^ x24: .cfa -48 + ^ x25: .cfa -56 + ^ x26: .cfa -64 + ^ .ra: .cfa -72 + ^ x29: .cfa -80 + ^
STACK CFI 3140c .cfa: sp 160 +
STACK CFI 31424 .cfa: sp 0 +
STACK CFI 31428 .cfa: x29 80 +
STACK CFI INIT 31558 134 .cfa: sp 0 +
STACK CFI 3155c .cfa: sp 128 +
STACK CFI 31570 .cfa: x29 64 + x19: .cfa -8 + ^ x20: .cfa -16 + ^ x21: .cfa -24 + ^ x22: .cfa -32 + ^ x23: .cfa -40 + ^ x24: .cfa -48 + ^ .ra: .cfa -56 + ^ x29: .cfa -64 + ^
STACK CFI 3163c .cfa: sp 128 +
STACK CFI 31650 .cfa: sp 0 +
STACK CFI 31654 .cfa: x29 64 +
STACK CFI INIT 31d44 184 .cfa: sp 0 +
STACK CFI 31d48 .cfa: sp 144 +
STACK CFI 31d60 .cfa: x29 80 + x19: .cfa -8 + ^ x20: .cfa -16 + ^ x21: .cfa -24 + ^ x22: .cfa -32 + ^ x23: .cfa -40 + ^ x24: .cfa -48 + ^ x25: .cfa -56 + ^ x26: .cfa -64 + ^ .ra: .cfa -72 + ^ x29: .cfa -80 + ^
STACK CFI 31e60 .cfa: sp 144 +
STACK CFI 31e78 .cfa: sp 0 +
STACK CFI 31e7c .cfa: x29 80 +
STACK CFI INIT 324ac 2b0 .cfa: sp 0 +
STACK CFI 324b0 .cfa: sp 48 +
STACK CFI 324bc .cfa: x29 32 + x19: .cfa -8 + ^ x20: .cfa -16 + ^ .ra: .cfa -24 + ^ x29: .cfa -32 + ^ v8: .cfa -48 + ^
STACK CFI 326c8 .cfa: sp 48 +
STACK CFI 326d4 .cfa: sp 0 +
STACK CFI 326d8 .cfa: x29 32 +
STACK CFI INIT 3275c 1c .cfa: sp 0 +
STACK CFI 32760 .cfa: sp 16 +
STACK CFI 32764 .cfa: x29 16 + .ra: .cfa -8 + ^ x29: .cfa -16 + ^
STACK CFI 3276c .cfa: sp 16 +
STACK CFI 32770 .cfa: sp 0 +
STACK CFI 32774 .cfa: x29 16 +
STACK CFI INIT 328fc 188 .cfa: sp 0 +
STACK CFI 32900 .cfa: sp 112 +
STACK CFI 32910 .cfa: x29 48 + x19: .cfa -8 + ^ x20: .cfa -16 + ^ x21: .cfa -24 + ^ x22: .cfa -32 + ^ .ra: .cfa -40 + ^ x29: .cfa -48 + ^
STACK CFI 329e0 .cfa: sp 112 +
STACK CFI 329f0 .cfa: sp 0 +
STACK CFI 329f4 .cfa: x29 48 +
STACK CFI INIT 32a88 670 .cfa: sp 0 +
STACK CFI 32a8c .cfa: sp 208 +
STACK CFI 32aa8 .cfa: x29 96 + x19: .cfa -8 + ^ x20: .cfa -16 + ^ x21: .cfa -24 + ^ x22: .cfa -32 + ^ x23: .cfa -40 + ^ x24: .cfa -48 + ^ x25: .cfa -56 + ^ x26: .cfa -64 + ^ x27: .cfa -80 + ^ .ra: .cfa -88 + ^ x29: .cfa -96 + ^
STACK CFI 32ba8 .cfa: sp 208 +
STACK CFI 32bc4 .cfa: sp 0 +
STACK CFI 32bc8 .cfa: x29 96 +
STACK CFI 32fa8 .cfa: sp 208 +
STACK CFI 32fc4 .cfa: sp 0 +
STACK CFI 32fc8 .cfa: x29 96 +
STACK CFI INIT 33114 700 .cfa: sp 0 +
STACK CFI 33118 .cfa: sp 288 +
STACK CFI 33134 .cfa: x29 96 + x19: .cfa -8 + ^ x20: .cfa -16 + ^ x21: .cfa -24 + ^ x22: .cfa -32 + ^ x23: .cfa -40 + ^ x24: .cfa -48 + ^ x25: .cfa -56 + ^ x26: .cfa -64 + ^ x28: .cfa -80 + ^ .ra: .cfa -88 + ^ x29: .cfa -96 + ^
STACK CFI 33640 .cfa: sp 288 +
STACK CFI 3365c .cfa: sp 0 +
STACK CFI 33660 .cfa: x29 96 +
STACK CFI INIT 33894 168 .cfa: sp 0 +
STACK CFI 33898 .cfa: sp 384 +
STACK CFI 338ac .cfa: x29 64 + x19: .cfa -8 + ^ x20: .cfa -16 + ^ x21: .cfa -24 + ^ x22: .cfa -32 + ^ x23: .cfa -40 + ^ x28: .cfa -48 + ^ .ra: .cfa -56 + ^ x29: .cfa -64 + ^
STACK CFI 339a4 .cfa: sp 384 +
STACK CFI 339b8 .cfa: sp 0 +
STACK CFI 339bc .cfa: x29 64 +
STACK CFI INIT 33a14 bac .cfa: sp 0 +
STACK CFI 33a18 .cfa: sp 128 +
STACK CFI 33a30 .cfa: x29 64 + x19: .cfa -8 + ^ x20: .cfa -16 + ^ x21: .cfa -24 + ^ x22: .cfa -32 + ^ x23: .cfa -40 + ^ x24: .cfa -48 + ^ .ra: .cfa -56 + ^ x29: .cfa -64 + ^ v8: .cfa -80 + ^
STACK CFI 34574 .cfa: sp 128 +
STACK CFI 3458c .cfa: sp 0 +
STACK CFI 34590 .cfa: x29 64 +
STACK CFI INIT 3474c 1c78 .cfa: sp 0 +
STACK CFI 34750 .cfa: sp 176 +
STACK CFI 3476c .cfa: x29 96 + x19: .cfa -8 + ^ x20: .cfa -16 + ^ x21: .cfa -24 + ^ x22: .cfa -32 + ^ x23: .cfa -40 + ^ x24: .cfa -48 + ^ x25: .cfa -56 + ^ x26: .cfa -64 + ^ x27: .cfa -72 + ^ x28: .cfa -80 + ^ .ra: .cfa -88 + ^ x29: .cfa -96 + ^
STACK CFI 36324 .cfa: sp 176 +
STACK CFI 36340 .cfa: sp 0 +
STACK CFI 36344 .cfa: x29 96 +
STACK CFI INIT 363c4 188 .cfa: sp 0 +
STACK CFI 363c8 .cfa: sp 112 +
STACK CFI 363d8 .cfa: x29 48 + x19: .cfa -8 + ^ x20: .cfa -16 + ^ x21: .cfa -24 + ^ x22: .cfa -32 + ^ .ra: .cfa -40 + ^ x29: .cfa -48 + ^
STACK CFI 364a8 .cfa: sp 112 +
STACK CFI 364b8 .cfa: sp 0 +
STACK CFI 364bc .cfa: x29 48 +
STACK CFI INIT 365cc 134 .cfa: sp 0 +
STACK CFI 365d0 .cfa: sp 80 +
STACK CFI 365dc .cfa: x29 32 + x19: .cfa -8 + ^ x20: .cfa -16 + ^ .ra: .cfa -24 + ^ x29: .cfa -32 + ^
STACK CFI 3660c .cfa: sp 80 +
STACK CFI 36618 .cfa: sp 0 +
STACK CFI 3661c .cfa: x29 32 +
STACK CFI INIT 36700 78 .cfa: sp 0 +
STACK CFI 36704 .cfa: sp 32 +
STACK CFI 3670c .cfa: x29 32 + x19: .cfa -8 + ^ x20: .cfa -16 + ^ .ra: .cfa -24 + ^ x29: .cfa -32 + ^
STACK CFI 36718 .cfa: sp 32 +
STACK CFI 36720 .cfa: sp 0 +
STACK CFI 36724 .cfa: x29 32 +
STACK CFI INIT 36778 74 .cfa: sp 0 +
STACK CFI 3677c .cfa: sp 48 +
STACK CFI 36788 .cfa: x29 32 + x19: .cfa -8 + ^ x20: .cfa -16 + ^ .ra: .cfa -24 + ^ x29: .cfa -32 + ^
STACK CFI 367d4 .cfa: sp 48 +
STACK CFI 367e0 .cfa: sp 0 +
STACK CFI 367e4 .cfa: x29 32 +
STACK CFI INIT 36934 2a8 .cfa: sp 0 +
STACK CFI 36938 .cfa: sp 144 +
STACK CFI 3694c .cfa: x29 64 + x19: .cfa -8 + ^ x20: .cfa -16 + ^ x21: .cfa -24 + ^ x22: .cfa -32 + ^ x23: .cfa -48 + ^ .ra: .cfa -56 + ^ x29: .cfa -64 + ^
STACK CFI 36a80 .cfa: sp 144 +
STACK CFI 36a94 .cfa: sp 0 +
STACK CFI 36a98 .cfa: x29 64 +
STACK CFI INIT 36bdc 2b0 .cfa: sp 0 +
STACK CFI 36be0 .cfa: sp 144 +
STACK CFI 36bf4 .cfa: x29 64 + x19: .cfa -8 + ^ x20: .cfa -16 + ^ x21: .cfa -24 + ^ x22: .cfa -32 + ^ x23: .cfa -48 + ^ .ra: .cfa -56 + ^ x29: .cfa -64 + ^
STACK CFI 36d30 .cfa: sp 144 +
STACK CFI 36d44 .cfa: sp 0 +
STACK CFI 36d48 .cfa: x29 64 +
STACK CFI INIT 36e8c f10 .cfa: sp 0 +
STACK CFI 36e90 .cfa: sp 176 +
STACK CFI 36eac .cfa: x29 96 + x19: .cfa -8 + ^ x20: .cfa -16 + ^ x21: .cfa -24 + ^ x22: .cfa -32 + ^ x23: .cfa -40 + ^ x24: .cfa -48 + ^ x25: .cfa -56 + ^ x26: .cfa -64 + ^ x27: .cfa -72 + ^ x28: .cfa -80 + ^ .ra: .cfa -88 + ^ x29: .cfa -96 + ^
STACK CFI 37900 .cfa: sp 176 +
STACK CFI 3791c .cfa: sp 0 +
STACK CFI 37920 .cfa: x29 96 +
STACK CFI INIT 37df0 17c .cfa: sp 0 +
STACK CFI 37df4 .cfa: sp 160 +
STACK CFI 37e0c .cfa: x29 80 + x19: .cfa -8 + ^ x20: .cfa -16 + ^ x21: .cfa -24 + ^ x22: .cfa -32 + ^ x23: .cfa -40 + ^ x24: .cfa -48 + ^ x25: .cfa -56 + ^ x26: .cfa -64 + ^ .ra: .cfa -72 + ^ x29: .cfa -80 + ^
STACK CFI 37e74 .cfa: sp 160 +
STACK CFI 37e8c .cfa: sp 0 +
STACK CFI 37e90 .cfa: x29 80 +
STACK CFI INIT 37f6c 460 .cfa: sp 0 +
STACK CFI 37f70 .cfa: sp 128 +
STACK CFI 37f88 .cfa: x29 80 + x19: .cfa -8 + ^ x20: .cfa -16 + ^ x21: .cfa -24 + ^ x22: .cfa -32 + ^ x23: .cfa -40 + ^ x24: .cfa -48 + ^ x25: .cfa -64 + ^ .ra: .cfa -72 + ^ x29: .cfa -80 + ^
STACK CFI 38348 .cfa: sp 128 +
STACK CFI 38360 .cfa: sp 0 +
STACK CFI 38364 .cfa: x29 80 +
STACK CFI INIT 383d4 18c .cfa: sp 0 +
STACK CFI 383d8 .cfa: sp 176 +
STACK CFI 383f4 .cfa: x29 80 + x19: .cfa -8 + ^ x20: .cfa -16 + ^ x21: .cfa -24 + ^ x22: .cfa -32 + ^ x23: .cfa -40 + ^ x24: .cfa -48 + ^ x25: .cfa -56 + ^ x26: .cfa -64 + ^ .ra: .cfa -72 + ^ x29: .cfa -80 + ^ v8: .cfa -96 + ^
STACK CFI 38464 .cfa: sp 176 +
STACK CFI 38480 .cfa: sp 0 +
STACK CFI 38484 .cfa: x29 80 +
STACK CFI INIT 38560 544 .cfa: sp 0 +
STACK CFI 38564 .cfa: sp 128 +
STACK CFI 3857c .cfa: x29 80 + x19: .cfa -8 + ^ x20: .cfa -16 + ^ x21: .cfa -24 + ^ x22: .cfa -32 + ^ x23: .cfa -40 + ^ x24: .cfa -48 + ^ x25: .cfa -64 + ^ .ra: .cfa -72 + ^ x29: .cfa -80 + ^
STACK CFI 38a10 .cfa: sp 128 +
STACK CFI 38a28 .cfa: sp 0 +
STACK CFI 38a2c .cfa: x29 80 +
STACK CFI INIT 38aac 16c .cfa: sp 0 +
STACK CFI 38ab0 .cfa: sp 144 +
STACK CFI 38ac8 .cfa: x29 56 + x19: .cfa -8 + ^ x20: .cfa -16 + ^ x21: .cfa -24 + ^ x22: .cfa -32 + ^ x23: .cfa -40 + ^ .ra: .cfa -48 + ^ x29: .cfa -56 + ^ v8: .cfa -64 + ^
STACK CFI 38b20 .cfa: sp 144 +
STACK CFI 38b38 .cfa: sp 0 +
STACK CFI 38b3c .cfa: x29 56 +
STACK CFI INIT 38c18 2a4 .cfa: sp 0 +
STACK CFI 38c1c .cfa: sp 96 +
STACK CFI 38c34 .cfa: x29 80 + x19: .cfa -8 + ^ x20: .cfa -16 + ^ x21: .cfa -24 + ^ x22: .cfa -32 + ^ x23: .cfa -40 + ^ x24: .cfa -48 + ^ x25: .cfa -64 + ^ .ra: .cfa -72 + ^ x29: .cfa -80 + ^
STACK CFI 38e58 .cfa: sp 96 +
STACK CFI 38e70 .cfa: sp 0 +
STACK CFI 38e74 .cfa: x29 80 +
STACK CFI INIT 38ec4 15c .cfa: sp 0 +
STACK CFI 38ec8 .cfa: sp 144 +
STACK CFI 38edc .cfa: x29 64 + x19: .cfa -8 + ^ x20: .cfa -16 + ^ x21: .cfa -24 + ^ x22: .cfa -32 + ^ x23: .cfa -48 + ^ .ra: .cfa -56 + ^ x29: .cfa -64 + ^
STACK CFI 38f2c .cfa: sp 144 +
STACK CFI 38f40 .cfa: sp 0 +
STACK CFI 38f44 .cfa: x29 64 +
STACK CFI INIT 39020 f8 .cfa: sp 0 +
STACK CFI 39024 .cfa: sp 64 +
STACK CFI 39034 .cfa: x29 48 + x19: .cfa -8 + ^ x20: .cfa -16 + ^ x21: .cfa -24 + ^ x22: .cfa -32 + ^ .ra: .cfa -40 + ^ x29: .cfa -48 + ^
STACK CFI 390e0 .cfa: sp 64 +
STACK CFI 390f0 .cfa: sp 0 +
STACK CFI 390f4 .cfa: x29 48 +
STACK CFI INIT 39130 174 .cfa: sp 0 +
STACK CFI 39134 .cfa: sp 160 +
STACK CFI 3914c .cfa: x29 80 + x19: .cfa -8 + ^ x20: .cfa -16 + ^ x21: .cfa -24 + ^ x22: .cfa -32 + ^ x23: .cfa -40 + ^ x24: .cfa -48 + ^ x25: .cfa -64 + ^ .ra: .cfa -72 + ^ x29: .cfa -80 + ^
STACK CFI 391ac .cfa: sp 160 +
STACK CFI 391c4 .cfa: sp 0 +
STACK CFI 391c8 .cfa: x29 80 +
STACK CFI INIT 392a4 38c .cfa: sp 0 +
STACK CFI 392a8 .cfa: sp 96 +
STACK CFI 392c0 .cfa: x29 80 + x19: .cfa -8 + ^ x20: .cfa -16 + ^ x21: .cfa -24 + ^ x22: .cfa -32 + ^ x23: .cfa -40 + ^ x24: .cfa -48 + ^ x25: .cfa -64 + ^ .ra: .cfa -72 + ^ x29: .cfa -80 + ^
STACK CFI 395bc .cfa: sp 96 +
STACK CFI 395d4 .cfa: sp 0 +
STACK CFI 395d8 .cfa: x29 80 +
STACK CFI INIT 39630 18c .cfa: sp 0 +
STACK CFI 39634 .cfa: sp 176 +
STACK CFI 39650 .cfa: x29 96 + x19: .cfa -8 + ^ x20: .cfa -16 + ^ x21: .cfa -24 + ^ x22: .cfa -32 + ^ x23: .cfa -40 + ^ x24: .cfa -48 + ^ x25: .cfa -56 + ^ x26: .cfa -64 + ^ x27: .cfa -80 + ^ .ra: .cfa -88 + ^ x29: .cfa -96 + ^
STACK CFI 396c0 .cfa: sp 176 +
STACK CFI 396dc .cfa: sp 0 +
STACK CFI 396e0 .cfa: x29 96 +
STACK CFI INIT 397bc 554 .cfa: sp 0 +
STACK CFI 397c0 .cfa: sp 96 +
STACK CFI 397d8 .cfa: x29 80 + x19: .cfa -8 + ^ x20: .cfa -16 + ^ x21: .cfa -24 + ^ x22: .cfa -32 + ^ x23: .cfa -40 + ^ x24: .cfa -48 + ^ x25: .cfa -64 + ^ .ra: .cfa -72 + ^ x29: .cfa -80 + ^
STACK CFI 39c7c .cfa: sp 96 +
STACK CFI 39c94 .cfa: sp 0 +
STACK CFI 39c98 .cfa: x29 80 +
STACK CFI INIT 39d10 15c .cfa: sp 0 +
STACK CFI 39d14 .cfa: sp 144 +
STACK CFI 39d28 .cfa: x29 64 + x19: .cfa -8 + ^ x20: .cfa -16 + ^ x21: .cfa -24 + ^ x22: .cfa -32 + ^ x23: .cfa -48 + ^ .ra: .cfa -56 + ^ x29: .cfa -64 + ^
STACK CFI 39d78 .cfa: sp 144 +
STACK CFI 39d8c .cfa: sp 0 +
STACK CFI 39d90 .cfa: x29 64 +
STACK CFI INIT 39e6c f8 .cfa: sp 0 +
STACK CFI 39e70 .cfa: sp 64 +
STACK CFI 39e80 .cfa: x29 48 + x19: .cfa -8 + ^ x20: .cfa -16 + ^ x21: .cfa -24 + ^ x22: .cfa -32 + ^ .ra: .cfa -40 + ^ x29: .cfa -48 + ^
STACK CFI 39f2c .cfa: sp 64 +
STACK CFI 39f3c .cfa: sp 0 +
STACK CFI 39f40 .cfa: x29 48 +
STACK CFI INIT 39fd0 290 .cfa: sp 0 +
STACK CFI 39fd4 .cfa: sp 144 +
STACK CFI 39fe8 .cfa: x29 64 + x19: .cfa -8 + ^ x20: .cfa -16 + ^ x21: .cfa -24 + ^ x22: .cfa -32 + ^ x23: .cfa -48 + ^ .ra: .cfa -56 + ^ x29: .cfa -64 + ^
STACK CFI 3a104 .cfa: sp 144 +
STACK CFI 3a118 .cfa: sp 0 +
STACK CFI 3a11c .cfa: x29 64 +
STACK CFI INIT 3a260 2e0 .cfa: sp 0 +
STACK CFI 3a264 .cfa: sp 144 +
STACK CFI 3a278 .cfa: x29 64 + x19: .cfa -8 + ^ x20: .cfa -16 + ^ x21: .cfa -24 + ^ x22: .cfa -32 + ^ x23: .cfa -48 + ^ .ra: .cfa -56 + ^ x29: .cfa -64 + ^
STACK CFI 3a3e4 .cfa: sp 144 +
STACK CFI 3a3f8 .cfa: sp 0 +
STACK CFI 3a3fc .cfa: x29 64 +
STACK CFI INIT 3a540 4ac .cfa: sp 0 +
STACK CFI 3a544 .cfa: sp 144 +
STACK CFI 3a558 .cfa: x29 64 + x19: .cfa -8 + ^ x20: .cfa -16 + ^ x21: .cfa -24 + ^ x22: .cfa -32 + ^ x23: .cfa -48 + ^ .ra: .cfa -56 + ^ x29: .cfa -64 + ^
STACK CFI 3a83c .cfa: sp 144 +
STACK CFI 3a850 .cfa: sp 0 +
STACK CFI 3a854 .cfa: x29 64 +
STACK CFI INIT 3a9ec 154 .cfa: sp 0 +
STACK CFI 3a9f0 .cfa: sp 384 +
STACK CFI 3aa04 .cfa: x29 64 + x19: .cfa -8 + ^ x20: .cfa -16 + ^ x21: .cfa -24 + ^ x22: .cfa -32 + ^ x23: .cfa -40 + ^ x28: .cfa -48 + ^ .ra: .cfa -56 + ^ x29: .cfa -64 + ^
STACK CFI 3aae8 .cfa: sp 384 +
STACK CFI 3aafc .cfa: sp 0 +
STACK CFI 3ab00 .cfa: x29 64 +
STACK CFI INIT 3ab58 430 .cfa: sp 0 +
STACK CFI 3ab5c .cfa: sp 64 +
STACK CFI 3ab6c .cfa: x29 64 + x19: .cfa -8 + ^ x20: .cfa -16 + ^ x21: .cfa -24 + ^ x22: .cfa -32 + ^ x23: .cfa -40 + ^ x24: .cfa -48 + ^ .ra: .cfa -56 + ^ x29: .cfa -64 + ^
STACK CFI 3af20 .cfa: sp 64 +
STACK CFI 3af30 .cfa: sp 0 +
STACK CFI 3af34 .cfa: x29 64 +
