MODULE Linux arm64 EAC1BDE470AC81CD736BFE2BF5209B510 user95401.scrollbar_everywhere.android64.so
INFO CODE_ID E4BDC1EAAC70CD81736BFE2BF5209B51B9E74447
INFO GENERATOR mozilla/dump_syms 2.3.4
PUBLIC 48e0 0 __on_dlclose
PUBLIC 48f0 0 __emutls_unregister_key
PUBLIC 48f8 0 __on_dlclose_late
PUBLIC 4900 0 __atexit_handler_wrapper
PUBLIC 4914 0 atexit
PUBLIC 4930 0 pthread_atfork
PUBLIC 4940 0 unwind_phase2
PUBLIC 4a74 0 _Unwind_Resume
PUBLIC 4af8 0 unwind_phase2_forced
PUBLIC m 4bec 0 __unw_init_local
PUBLIC m 4c94 0 __unw_get_reg
PUBLIC 4d10 0 __unw_step_stage2
PUBLIC m 4d24 0 __unw_get_proc_info
PUBLIC m 4d64 0 __unw_resume
PUBLIC 4d8c 0 libunwind::CFI_Parser<libunwind::LocalAddressSpace>::decodeFDE(libunwind::LocalAddressSpace&, unsigned long, libunwind::CFI_Parser<libunwind::LocalAddressSpace>::FDE_Info*, libunwind::CFI_Parser<libunwind::LocalAddressSpace>::CIE_Info*, bool)
PUBLIC 4f1c 0 libunwind::CFI_Parser<libunwind::LocalAddressSpace>::parseCIE(libunwind::LocalAddressSpace&, unsigned long, libunwind::CFI_Parser<libunwind::LocalAddressSpace>::CIE_Info*)
PUBLIC 51e4 0 libunwind::AbstractUnwindCursor::~AbstractUnwindCursor()
PUBLIC 51ec 0 libunwind::UnwindCursor<libunwind::LocalAddressSpace, libunwind::Registers_arm64>::~UnwindCursor()
PUBLIC 51f4 0 libunwind::UnwindCursor<libunwind::LocalAddressSpace, libunwind::Registers_arm64>::validReg(int)
PUBLIC 5238 0 libunwind::UnwindCursor<libunwind::LocalAddressSpace, libunwind::Registers_arm64>::getReg(int)
PUBLIC 5320 0 libunwind::UnwindCursor<libunwind::LocalAddressSpace, libunwind::Registers_arm64>::setReg(int, unsigned long)
PUBLIC 5408 0 libunwind::UnwindCursor<libunwind::LocalAddressSpace, libunwind::Registers_arm64>::validFloatReg(int)
PUBLIC 541c 0 libunwind::UnwindCursor<libunwind::LocalAddressSpace, libunwind::Registers_arm64>::getFloatReg(int)
PUBLIC 542c 0 libunwind::UnwindCursor<libunwind::LocalAddressSpace, libunwind::Registers_arm64>::setFloatReg(int, double)
PUBLIC 543c 0 libunwind::UnwindCursor<libunwind::LocalAddressSpace, libunwind::Registers_arm64>::step(bool)
PUBLIC 552c 0 libunwind::UnwindCursor<libunwind::LocalAddressSpace, libunwind::Registers_arm64>::getInfo(unw_proc_info_t*)
PUBLIC 5570 0 libunwind::UnwindCursor<libunwind::LocalAddressSpace, libunwind::Registers_arm64>::jumpto()
PUBLIC 557c 0 libunwind::UnwindCursor<libunwind::LocalAddressSpace, libunwind::Registers_arm64>::isSignalFrame()
PUBLIC 5588 0 libunwind::UnwindCursor<libunwind::LocalAddressSpace, libunwind::Registers_arm64>::getFunctionName(char*, unsigned long, unsigned long*)
PUBLIC 55b4 0 libunwind::UnwindCursor<libunwind::LocalAddressSpace, libunwind::Registers_arm64>::setInfoBasedOnIPRegister(bool)
PUBLIC 57f0 0 libunwind::UnwindCursor<libunwind::LocalAddressSpace, libunwind::Registers_arm64>::getRegisterName(int)
PUBLIC 57fc 0 libunwind::UnwindCursor<libunwind::LocalAddressSpace, libunwind::Registers_arm64>::stepThroughSigReturn(libunwind::Registers_arm64&)
PUBLIC 591c 0 libunwind::DwarfInstructions<libunwind::LocalAddressSpace, libunwind::Registers_arm64>::stepWithDwarf(libunwind::LocalAddressSpace&, unsigned long, unsigned long, libunwind::Registers_arm64&, bool&, bool)
PUBLIC 5db0 0 libunwind::CFI_Parser<libunwind::LocalAddressSpace>::parseFDEInstructions(libunwind::LocalAddressSpace&, libunwind::CFI_Parser<libunwind::LocalAddressSpace>::FDE_Info const&, libunwind::CFI_Parser<libunwind::LocalAddressSpace>::CIE_Info const&, unsigned long, int, libunwind::CFI_Parser<libunwind::LocalAddressSpace>::PrologInfo*)
PUBLIC 6928 0 libunwind::DwarfInstructions<libunwind::LocalAddressSpace, libunwind::Registers_arm64>::getCFA(libunwind::LocalAddressSpace&, libunwind::CFI_Parser<libunwind::LocalAddressSpace>::PrologInfo const&, libunwind::Registers_arm64 const&)
PUBLIC 6a5c 0 libunwind::DwarfInstructions<libunwind::LocalAddressSpace, libunwind::Registers_arm64>::getSavedRegister(libunwind::LocalAddressSpace&, libunwind::Registers_arm64 const&, unsigned long, libunwind::CFI_Parser<libunwind::LocalAddressSpace>::RegisterLocation const&)
PUBLIC 6c6c 0 libunwind::LocalAddressSpace::getEncodedP(unsigned long&, unsigned long, unsigned char, unsigned long)
PUBLIC 6ff8 0 libunwind::LocalAddressSpace::getULEB128(unsigned long&, unsigned long)
PUBLIC 71c0 0 libunwind::DwarfInstructions<libunwind::LocalAddressSpace, libunwind::Registers_arm64>::evaluateExpression(unsigned long, libunwind::LocalAddressSpace&, libunwind::Registers_arm64 const&, unsigned long)
PUBLIC 7b84 0 libunwind::UnwindCursor<libunwind::LocalAddressSpace, libunwind::Registers_arm64>::getInfoFromDwarfSection(unsigned long, libunwind::UnwindInfoSections const&, unsigned int)
PUBLIC 7e58 0 libunwind::findUnwindSectionsByPhdr(dl_phdr_info*, unsigned long, void*)
PUBLIC 7f88 0 libunwind::EHHeaderParser<libunwind::LocalAddressSpace>::decodeEHHdr(libunwind::LocalAddressSpace&, unsigned long, unsigned long, libunwind::EHHeaderParser<libunwind::LocalAddressSpace>::EHHeaderInfo&)
PUBLIC 80a8 0 libunwind::CFI_Parser<libunwind::LocalAddressSpace>::findFDE(libunwind::LocalAddressSpace&, unsigned long, unsigned long, unsigned long, unsigned long, libunwind::CFI_Parser<libunwind::LocalAddressSpace>::FDE_Info*, libunwind::CFI_Parser<libunwind::LocalAddressSpace>::CIE_Info*)
PUBLIC 8270 0 libunwind::EHHeaderParser<libunwind::LocalAddressSpace>::findFDE(libunwind::LocalAddressSpace&, unsigned long, unsigned long, unsigned int, libunwind::CFI_Parser<libunwind::LocalAddressSpace>::FDE_Info*, libunwind::CFI_Parser<libunwind::LocalAddressSpace>::CIE_Info*)
PUBLIC 83d8 0 libunwind::EHHeaderParser<libunwind::LocalAddressSpace>::getTableEntrySize(unsigned char)
PUBLIC 84d4 0 libunwind::Registers_arm64::getRegisterName(int)
PUBLIC 8504 0 __libunwind_Registers_arm64_jumpto
PUBLIC m 8594 0 __unw_getcontext
PUBLIC 8630 0 addScrollBarToNode(cocos2d::CCNode*, float, cocos2d::CCNode*)
PUBLIC 89e0 0 geode::Ref<cocos2d::CCNode>::~Ref()
PUBLIC 89fc 0 addScrollbar(cocos2d::CCNode*, float, cocos2d::CCNode*)::$_0::~$_0()
PUBLIC 8a38 0 __cxx_global_var_init
PUBLIC 8bb0 0 __cxx_global_var_init.1
PUBLIC 8d2c 0 __cxx_global_var_init.3
PUBLIC 8e94 0 __clang_call_terminate
PUBLIC 8ea4 0 geode::cast::traverseTypeinfoFor(void*, geode::cast::ClassTypeinfoType const*, char const*)
PUBLIC 8f9c 0 std::__ndk1::__function::__func<addScrollbar(cocos2d::CCNode*, float, cocos2d::CCNode*)::$_0, std::__ndk1::allocator<addScrollbar(cocos2d::CCNode*, float, cocos2d::CCNode*)::$_0>, void ()>::~__func()
PUBLIC 8fe4 0 std::__ndk1::__function::__func<addScrollbar(cocos2d::CCNode*, float, cocos2d::CCNode*)::$_0, std::__ndk1::allocator<addScrollbar(cocos2d::CCNode*, float, cocos2d::CCNode*)::$_0>, void ()>::~__func()
PUBLIC 9030 0 std::__ndk1::__function::__func<addScrollbar(cocos2d::CCNode*, float, cocos2d::CCNode*)::$_0, std::__ndk1::allocator<addScrollbar(cocos2d::CCNode*, float, cocos2d::CCNode*)::$_0>, void ()>::__clone() const
PUBLIC 90c8 0 std::__ndk1::__function::__func<addScrollbar(cocos2d::CCNode*, float, cocos2d::CCNode*)::$_0, std::__ndk1::allocator<addScrollbar(cocos2d::CCNode*, float, cocos2d::CCNode*)::$_0>, void ()>::__clone(std::__ndk1::__function::__base<void ()>*) const
PUBLIC 9130 0 std::__ndk1::__function::__func<addScrollbar(cocos2d::CCNode*, float, cocos2d::CCNode*)::$_0, std::__ndk1::allocator<addScrollbar(cocos2d::CCNode*, float, cocos2d::CCNode*)::$_0>, void ()>::destroy()
PUBLIC 916c 0 std::__ndk1::__function::__func<addScrollbar(cocos2d::CCNode*, float, cocos2d::CCNode*)::$_0, std::__ndk1::allocator<addScrollbar(cocos2d::CCNode*, float, cocos2d::CCNode*)::$_0>, void ()>::destroy_deallocate()
PUBLIC 91ac 0 std::__ndk1::__function::__func<addScrollbar(cocos2d::CCNode*, float, cocos2d::CCNode*)::$_0, std::__ndk1::allocator<addScrollbar(cocos2d::CCNode*, float, cocos2d::CCNode*)::$_0>, void ()>::operator()()
PUBLIC 91c0 0 std::__ndk1::__function::__func<addScrollbar(cocos2d::CCNode*, float, cocos2d::CCNode*)::$_0, std::__ndk1::allocator<addScrollbar(cocos2d::CCNode*, float, cocos2d::CCNode*)::$_0>, void ()>::target(std::type_info const&) const
PUBLIC 91dc 0 std::__ndk1::__function::__func<addScrollbar(cocos2d::CCNode*, float, cocos2d::CCNode*)::$_0, std::__ndk1::allocator<addScrollbar(cocos2d::CCNode*, float, cocos2d::CCNode*)::$_0>, void ()>::target_type() const
PUBLIC 91e8 0 std::__ndk1::__function::__func<AlphaUtils::ModifyLoad<MyScrollBar>::ModifyLoad(std::__ndk1::basic_string<char, std::__ndk1::char_traits<char>, std::__ndk1::allocator<char> >)::{lambda(cocos2d::CCNode*)#1}, std::__ndk1::allocator<AlphaUtils::ModifyLoad<MyScrollBar>::ModifyLoad(std::__ndk1::basic_string<char, std::__ndk1::char_traits<char>, std::__ndk1::allocator<char> >)::{lambda(cocos2d::CCNode*)#1}>, void (cocos2d::CCNode*)>::~__func()
PUBLIC 91ec 0 std::__ndk1::__function::__func<AlphaUtils::ModifyLoad<MyScrollBar>::ModifyLoad(std::__ndk1::basic_string<char, std::__ndk1::char_traits<char>, std::__ndk1::allocator<char> >)::{lambda(cocos2d::CCNode*)#1}, std::__ndk1::allocator<AlphaUtils::ModifyLoad<MyScrollBar>::ModifyLoad(std::__ndk1::basic_string<char, std::__ndk1::char_traits<char>, std::__ndk1::allocator<char> >)::{lambda(cocos2d::CCNode*)#1}>, void (cocos2d::CCNode*)>::__clone() const
PUBLIC 9210 0 std::__ndk1::__function::__func<AlphaUtils::ModifyLoad<MyScrollBar>::ModifyLoad(std::__ndk1::basic_string<char, std::__ndk1::char_traits<char>, std::__ndk1::allocator<char> >)::{lambda(cocos2d::CCNode*)#1}, std::__ndk1::allocator<AlphaUtils::ModifyLoad<MyScrollBar>::ModifyLoad(std::__ndk1::basic_string<char, std::__ndk1::char_traits<char>, std::__ndk1::allocator<char> >)::{lambda(cocos2d::CCNode*)#1}>, void (cocos2d::CCNode*)>::__clone(std::__ndk1::__function::__base<void (cocos2d::CCNode*)>*) const
PUBLIC 9220 0 std::__ndk1::__function::__func<AlphaUtils::ModifyLoad<MyScrollBar>::ModifyLoad(std::__ndk1::basic_string<char, std::__ndk1::char_traits<char>, std::__ndk1::allocator<char> >)::{lambda(cocos2d::CCNode*)#1}, std::__ndk1::allocator<AlphaUtils::ModifyLoad<MyScrollBar>::ModifyLoad(std::__ndk1::basic_string<char, std::__ndk1::char_traits<char>, std::__ndk1::allocator<char> >)::{lambda(cocos2d::CCNode*)#1}>, void (cocos2d::CCNode*)>::destroy()
PUBLIC 9224 0 std::__ndk1::__function::__func<AlphaUtils::ModifyLoad<MyScrollBar>::ModifyLoad(std::__ndk1::basic_string<char, std::__ndk1::char_traits<char>, std::__ndk1::allocator<char> >)::{lambda(cocos2d::CCNode*)#1}, std::__ndk1::allocator<AlphaUtils::ModifyLoad<MyScrollBar>::ModifyLoad(std::__ndk1::basic_string<char, std::__ndk1::char_traits<char>, std::__ndk1::allocator<char> >)::{lambda(cocos2d::CCNode*)#1}>, void (cocos2d::CCNode*)>::destroy_deallocate()
PUBLIC 9228 0 std::__ndk1::__function::__func<AlphaUtils::ModifyLoad<MyScrollBar>::ModifyLoad(std::__ndk1::basic_string<char, std::__ndk1::char_traits<char>, std::__ndk1::allocator<char> >)::{lambda(cocos2d::CCNode*)#1}, std::__ndk1::allocator<AlphaUtils::ModifyLoad<MyScrollBar>::ModifyLoad(std::__ndk1::basic_string<char, std::__ndk1::char_traits<char>, std::__ndk1::allocator<char> >)::{lambda(cocos2d::CCNode*)#1}>, void (cocos2d::CCNode*)>::operator()(cocos2d::CCNode*&&)
PUBLIC 92f8 0 std::__ndk1::__function::__func<AlphaUtils::ModifyLoad<MyScrollBar>::ModifyLoad(std::__ndk1::basic_string<char, std::__ndk1::char_traits<char>, std::__ndk1::allocator<char> >)::{lambda(cocos2d::CCNode*)#1}, std::__ndk1::allocator<AlphaUtils::ModifyLoad<MyScrollBar>::ModifyLoad(std::__ndk1::basic_string<char, std::__ndk1::char_traits<char>, std::__ndk1::allocator<char> >)::{lambda(cocos2d::CCNode*)#1}>, void (cocos2d::CCNode*)>::target(std::type_info const&) const
PUBLIC 9314 0 std::__ndk1::__function::__func<AlphaUtils::ModifyLoad<MyScrollBar>::ModifyLoad(std::__ndk1::basic_string<char, std::__ndk1::char_traits<char>, std::__ndk1::allocator<char> >)::{lambda(cocos2d::CCNode*)#1}, std::__ndk1::allocator<AlphaUtils::ModifyLoad<MyScrollBar>::ModifyLoad(std::__ndk1::basic_string<char, std::__ndk1::char_traits<char>, std::__ndk1::allocator<char> >)::{lambda(cocos2d::CCNode*)#1}>, void (cocos2d::CCNode*)>::target_type() const
PUBLIC 9320 0 std::__ndk1::__function::__func<AlphaUtils::ModifyLoad<MyScrollLayer>::ModifyLoad(std::__ndk1::basic_string<char, std::__ndk1::char_traits<char>, std::__ndk1::allocator<char> >)::{lambda(cocos2d::CCNode*)#1}, std::__ndk1::allocator<AlphaUtils::ModifyLoad<MyScrollLayer>::ModifyLoad(std::__ndk1::basic_string<char, std::__ndk1::char_traits<char>, std::__ndk1::allocator<char> >)::{lambda(cocos2d::CCNode*)#1}>, void (cocos2d::CCNode*)>::~__func()
PUBLIC 9324 0 std::__ndk1::__function::__func<AlphaUtils::ModifyLoad<MyScrollLayer>::ModifyLoad(std::__ndk1::basic_string<char, std::__ndk1::char_traits<char>, std::__ndk1::allocator<char> >)::{lambda(cocos2d::CCNode*)#1}, std::__ndk1::allocator<AlphaUtils::ModifyLoad<MyScrollLayer>::ModifyLoad(std::__ndk1::basic_string<char, std::__ndk1::char_traits<char>, std::__ndk1::allocator<char> >)::{lambda(cocos2d::CCNode*)#1}>, void (cocos2d::CCNode*)>::__clone() const
PUBLIC 9348 0 std::__ndk1::__function::__func<AlphaUtils::ModifyLoad<MyScrollLayer>::ModifyLoad(std::__ndk1::basic_string<char, std::__ndk1::char_traits<char>, std::__ndk1::allocator<char> >)::{lambda(cocos2d::CCNode*)#1}, std::__ndk1::allocator<AlphaUtils::ModifyLoad<MyScrollLayer>::ModifyLoad(std::__ndk1::basic_string<char, std::__ndk1::char_traits<char>, std::__ndk1::allocator<char> >)::{lambda(cocos2d::CCNode*)#1}>, void (cocos2d::CCNode*)>::__clone(std::__ndk1::__function::__base<void (cocos2d::CCNode*)>*) const
PUBLIC 9358 0 std::__ndk1::__function::__func<AlphaUtils::ModifyLoad<MyScrollLayer>::ModifyLoad(std::__ndk1::basic_string<char, std::__ndk1::char_traits<char>, std::__ndk1::allocator<char> >)::{lambda(cocos2d::CCNode*)#1}, std::__ndk1::allocator<AlphaUtils::ModifyLoad<MyScrollLayer>::ModifyLoad(std::__ndk1::basic_string<char, std::__ndk1::char_traits<char>, std::__ndk1::allocator<char> >)::{lambda(cocos2d::CCNode*)#1}>, void (cocos2d::CCNode*)>::destroy()
PUBLIC 935c 0 std::__ndk1::__function::__func<AlphaUtils::ModifyLoad<MyScrollLayer>::ModifyLoad(std::__ndk1::basic_string<char, std::__ndk1::char_traits<char>, std::__ndk1::allocator<char> >)::{lambda(cocos2d::CCNode*)#1}, std::__ndk1::allocator<AlphaUtils::ModifyLoad<MyScrollLayer>::ModifyLoad(std::__ndk1::basic_string<char, std::__ndk1::char_traits<char>, std::__ndk1::allocator<char> >)::{lambda(cocos2d::CCNode*)#1}>, void (cocos2d::CCNode*)>::destroy_deallocate()
PUBLIC 9360 0 std::__ndk1::__function::__func<AlphaUtils::ModifyLoad<MyScrollLayer>::ModifyLoad(std::__ndk1::basic_string<char, std::__ndk1::char_traits<char>, std::__ndk1::allocator<char> >)::{lambda(cocos2d::CCNode*)#1}, std::__ndk1::allocator<AlphaUtils::ModifyLoad<MyScrollLayer>::ModifyLoad(std::__ndk1::basic_string<char, std::__ndk1::char_traits<char>, std::__ndk1::allocator<char> >)::{lambda(cocos2d::CCNode*)#1}>, void (cocos2d::CCNode*)>::operator()(cocos2d::CCNode*&&)
PUBLIC 9490 0 std::__ndk1::__function::__func<AlphaUtils::ModifyLoad<MyScrollLayer>::ModifyLoad(std::__ndk1::basic_string<char, std::__ndk1::char_traits<char>, std::__ndk1::allocator<char> >)::{lambda(cocos2d::CCNode*)#1}, std::__ndk1::allocator<AlphaUtils::ModifyLoad<MyScrollLayer>::ModifyLoad(std::__ndk1::basic_string<char, std::__ndk1::char_traits<char>, std::__ndk1::allocator<char> >)::{lambda(cocos2d::CCNode*)#1}>, void (cocos2d::CCNode*)>::target(std::type_info const&) const
PUBLIC 94ac 0 std::__ndk1::__function::__func<AlphaUtils::ModifyLoad<MyScrollLayer>::ModifyLoad(std::__ndk1::basic_string<char, std::__ndk1::char_traits<char>, std::__ndk1::allocator<char> >)::{lambda(cocos2d::CCNode*)#1}, std::__ndk1::allocator<AlphaUtils::ModifyLoad<MyScrollLayer>::ModifyLoad(std::__ndk1::basic_string<char, std::__ndk1::char_traits<char>, std::__ndk1::allocator<char> >)::{lambda(cocos2d::CCNode*)#1}>, void (cocos2d::CCNode*)>::target_type() const
PUBLIC 94b8 0 std::__ndk1::__function::__base<void (cocos2d::CCNode*)>::~__base()
PUBLIC 94bc 0 std::__ndk1::__function::__func<AlphaUtils::ModifyLoad<MyTableView>::ModifyLoad(std::__ndk1::basic_string<char, std::__ndk1::char_traits<char>, std::__ndk1::allocator<char> >)::{lambda(cocos2d::CCNode*)#1}, std::__ndk1::allocator<AlphaUtils::ModifyLoad<MyTableView>::ModifyLoad(std::__ndk1::basic_string<char, std::__ndk1::char_traits<char>, std::__ndk1::allocator<char> >)::{lambda(cocos2d::CCNode*)#1}>, void (cocos2d::CCNode*)>::~__func()
PUBLIC 94c0 0 std::__ndk1::__function::__func<AlphaUtils::ModifyLoad<MyTableView>::ModifyLoad(std::__ndk1::basic_string<char, std::__ndk1::char_traits<char>, std::__ndk1::allocator<char> >)::{lambda(cocos2d::CCNode*)#1}, std::__ndk1::allocator<AlphaUtils::ModifyLoad<MyTableView>::ModifyLoad(std::__ndk1::basic_string<char, std::__ndk1::char_traits<char>, std::__ndk1::allocator<char> >)::{lambda(cocos2d::CCNode*)#1}>, void (cocos2d::CCNode*)>::__clone() const
PUBLIC 94e4 0 std::__ndk1::__function::__func<AlphaUtils::ModifyLoad<MyTableView>::ModifyLoad(std::__ndk1::basic_string<char, std::__ndk1::char_traits<char>, std::__ndk1::allocator<char> >)::{lambda(cocos2d::CCNode*)#1}, std::__ndk1::allocator<AlphaUtils::ModifyLoad<MyTableView>::ModifyLoad(std::__ndk1::basic_string<char, std::__ndk1::char_traits<char>, std::__ndk1::allocator<char> >)::{lambda(cocos2d::CCNode*)#1}>, void (cocos2d::CCNode*)>::__clone(std::__ndk1::__function::__base<void (cocos2d::CCNode*)>*) const
PUBLIC 94f4 0 std::__ndk1::__function::__func<AlphaUtils::ModifyLoad<MyTableView>::ModifyLoad(std::__ndk1::basic_string<char, std::__ndk1::char_traits<char>, std::__ndk1::allocator<char> >)::{lambda(cocos2d::CCNode*)#1}, std::__ndk1::allocator<AlphaUtils::ModifyLoad<MyTableView>::ModifyLoad(std::__ndk1::basic_string<char, std::__ndk1::char_traits<char>, std::__ndk1::allocator<char> >)::{lambda(cocos2d::CCNode*)#1}>, void (cocos2d::CCNode*)>::destroy()
PUBLIC 94f8 0 std::__ndk1::__function::__func<AlphaUtils::ModifyLoad<MyTableView>::ModifyLoad(std::__ndk1::basic_string<char, std::__ndk1::char_traits<char>, std::__ndk1::allocator<char> >)::{lambda(cocos2d::CCNode*)#1}, std::__ndk1::allocator<AlphaUtils::ModifyLoad<MyTableView>::ModifyLoad(std::__ndk1::basic_string<char, std::__ndk1::char_traits<char>, std::__ndk1::allocator<char> >)::{lambda(cocos2d::CCNode*)#1}>, void (cocos2d::CCNode*)>::destroy_deallocate()
PUBLIC 94fc 0 std::__ndk1::__function::__func<AlphaUtils::ModifyLoad<MyTableView>::ModifyLoad(std::__ndk1::basic_string<char, std::__ndk1::char_traits<char>, std::__ndk1::allocator<char> >)::{lambda(cocos2d::CCNode*)#1}, std::__ndk1::allocator<AlphaUtils::ModifyLoad<MyTableView>::ModifyLoad(std::__ndk1::basic_string<char, std::__ndk1::char_traits<char>, std::__ndk1::allocator<char> >)::{lambda(cocos2d::CCNode*)#1}>, void (cocos2d::CCNode*)>::operator()(cocos2d::CCNode*&&)
PUBLIC 960c 0 std::__ndk1::__function::__func<AlphaUtils::ModifyLoad<MyTableView>::ModifyLoad(std::__ndk1::basic_string<char, std::__ndk1::char_traits<char>, std::__ndk1::allocator<char> >)::{lambda(cocos2d::CCNode*)#1}, std::__ndk1::allocator<AlphaUtils::ModifyLoad<MyTableView>::ModifyLoad(std::__ndk1::basic_string<char, std::__ndk1::char_traits<char>, std::__ndk1::allocator<char> >)::{lambda(cocos2d::CCNode*)#1}>, void (cocos2d::CCNode*)>::target(std::type_info const&) const
PUBLIC 9628 0 std::__ndk1::__function::__func<AlphaUtils::ModifyLoad<MyTableView>::ModifyLoad(std::__ndk1::basic_string<char, std::__ndk1::char_traits<char>, std::__ndk1::allocator<char> >)::{lambda(cocos2d::CCNode*)#1}, std::__ndk1::allocator<AlphaUtils::ModifyLoad<MyTableView>::ModifyLoad(std::__ndk1::basic_string<char, std::__ndk1::char_traits<char>, std::__ndk1::allocator<char> >)::{lambda(cocos2d::CCNode*)#1}>, void (cocos2d::CCNode*)>::target_type() const
PUBLIC 9634 0 MyTableView::modify()::{lambda()#1}::~{lambda()#1}()
PUBLIC 9650 0 std::__ndk1::__function::__func<MyTableView::modify()::{lambda()#1}, std::__ndk1::allocator<MyTableView::modify()::{lambda()#1}>, void ()>::~__func()
PUBLIC 9680 0 std::__ndk1::__function::__func<MyTableView::modify()::{lambda()#1}, std::__ndk1::allocator<MyTableView::modify()::{lambda()#1}>, void ()>::~__func()
PUBLIC 96bc 0 std::__ndk1::__function::__func<MyTableView::modify()::{lambda()#1}, std::__ndk1::allocator<MyTableView::modify()::{lambda()#1}>, void ()>::__clone() const
PUBLIC 9714 0 std::__ndk1::__function::__func<MyTableView::modify()::{lambda()#1}, std::__ndk1::allocator<MyTableView::modify()::{lambda()#1}>, void ()>::__clone(std::__ndk1::__function::__base<void ()>*) const
PUBLIC 9730 0 std::__ndk1::__function::__func<MyTableView::modify()::{lambda()#1}, std::__ndk1::allocator<MyTableView::modify()::{lambda()#1}>, void ()>::destroy()
PUBLIC 9750 0 std::__ndk1::__function::__func<MyTableView::modify()::{lambda()#1}, std::__ndk1::allocator<MyTableView::modify()::{lambda()#1}>, void ()>::destroy_deallocate()
PUBLIC 9780 0 std::__ndk1::__function::__func<MyTableView::modify()::{lambda()#1}, std::__ndk1::allocator<MyTableView::modify()::{lambda()#1}>, void ()>::operator()()
PUBLIC 97d8 0 std::__ndk1::__function::__func<MyTableView::modify()::{lambda()#1}, std::__ndk1::allocator<MyTableView::modify()::{lambda()#1}>, void ()>::target(std::type_info const&) const
PUBLIC 97f4 0 std::__ndk1::__function::__func<MyTableView::modify()::{lambda()#1}, std::__ndk1::allocator<MyTableView::modify()::{lambda()#1}>, void ()>::target_type() const
PUBLIC m 9800 0 geodeImplicitEntry
PUBLIC 9840 0 <.plt ELF section in user95401.scrollbar_everywhere.android64.so>
STACK CFI INIT 48e0 10 .cfa: sp 0 +
STACK CFI INIT 48f0 8 .cfa: sp 0 +
STACK CFI INIT 48f8 8 .cfa: sp 0 +
STACK CFI INIT 4900 14 .cfa: sp 0 +
STACK CFI INIT 4914 1c .cfa: sp 0 +
STACK CFI INIT 4930 10 .cfa: sp 0 +
STACK CFI INIT 4940 134 .cfa: sp 0 +
STACK CFI INIT 4a74 84 .cfa: sp 0 +
STACK CFI INIT 4af8 f4 .cfa: sp 0 +
STACK CFI INIT 4bec a8 .cfa: sp 0 +
STACK CFI INIT 4c94 7c .cfa: sp 0 +
STACK CFI INIT 4d10 14 .cfa: sp 0 +
STACK CFI INIT 4d24 40 .cfa: sp 0 +
STACK CFI INIT 4d64 28 .cfa: sp 0 +
STACK CFI INIT 4d8c 190 .cfa: sp 0 +
STACK CFI INIT 4f1c 2c8 .cfa: sp 0 +
STACK CFI INIT 51e4 8 .cfa: sp 0 +
STACK CFI INIT 51ec 8 .cfa: sp 0 +
STACK CFI INIT 51f4 44 .cfa: sp 0 +
STACK CFI INIT 5238 e8 .cfa: sp 0 +
STACK CFI INIT 5320 e8 .cfa: sp 0 +
STACK CFI INIT 5408 14 .cfa: sp 0 +
STACK CFI INIT 541c 10 .cfa: sp 0 +
STACK CFI INIT 542c 10 .cfa: sp 0 +
STACK CFI INIT 543c f0 .cfa: sp 0 +
STACK CFI INIT 552c 44 .cfa: sp 0 +
STACK CFI INIT 5570 c .cfa: sp 0 +
STACK CFI INIT 557c c .cfa: sp 0 +
STACK CFI INIT 5588 2c .cfa: sp 0 +
STACK CFI INIT 55b4 23c .cfa: sp 0 +
STACK CFI INIT 57f0 c .cfa: sp 0 +
STACK CFI INIT 57fc 120 .cfa: sp 0 +
STACK CFI INIT 591c 494 .cfa: sp 0 +
STACK CFI INIT 5db0 b78 .cfa: sp 0 +
STACK CFI INIT 6928 134 .cfa: sp 0 +
STACK CFI INIT 6a5c 210 .cfa: sp 0 +
STACK CFI INIT 6c6c 38c .cfa: sp 0 +
STACK CFI INIT 6ff8 1c8 .cfa: sp 0 +
STACK CFI INIT 71c0 9c4 .cfa: sp 0 +
STACK CFI INIT 7b84 2d4 .cfa: sp 0 +
STACK CFI INIT 7e58 130 .cfa: sp 0 +
STACK CFI INIT 7f88 120 .cfa: sp 0 +
STACK CFI INIT 80a8 1c8 .cfa: sp 0 +
STACK CFI INIT 8270 168 .cfa: sp 0 +
STACK CFI INIT 83d8 fc .cfa: sp 0 +
STACK CFI INIT 84d4 30 .cfa: sp 0 +
STACK CFI INIT 8e94 10 .cfa: sp 0 +
STACK CFI 8e98 .cfa: sp 16 +
STACK CFI 8e9c .cfa: x29 16 + .ra: .cfa -8 + ^ x29: .cfa -16 + ^
STACK CFI INIT 8ea4 f8 .cfa: sp 0 +
STACK CFI 8ea8 .cfa: sp 64 +
STACK CFI 8eb8 .cfa: x29 64 + x19: .cfa -8 + ^ x20: .cfa -16 + ^ x21: .cfa -24 + ^ x22: .cfa -32 + ^ x23: .cfa -48 + ^ .ra: .cfa -56 + ^ x29: .cfa -64 + ^
STACK CFI 8f14 .cfa: sp 64 +
STACK CFI 8f24 .cfa: sp 0 +
STACK CFI 8f28 .cfa: x29 64 +
STACK CFI 8f44 .cfa: sp 64 +
STACK CFI 8f54 .cfa: sp 0 +
STACK CFI 8f58 .cfa: x29 64 +
STACK CFI 8f88 .cfa: sp 64 +
STACK CFI 8f98 .cfa: sp 0 +
STACK CFI INIT 91ac 14 .cfa: sp 0 +
STACK CFI INIT 91c0 1c .cfa: sp 0 +
STACK CFI INIT 91dc c .cfa: sp 0 +
STACK CFI INIT 91e8 4 .cfa: sp 0 +
STACK CFI INIT 91ec 24 .cfa: sp 0 +
STACK CFI 91f0 .cfa: sp 16 +
STACK CFI 91f4 .cfa: x29 16 + .ra: .cfa -8 + ^ x29: .cfa -16 + ^
STACK CFI 9208 .cfa: sp 16 +
STACK CFI 920c .cfa: sp 0 +
STACK CFI INIT 9210 10 .cfa: sp 0 +
STACK CFI INIT 9220 4 .cfa: sp 0 +
STACK CFI INIT 9224 4 .cfa: sp 0 +
STACK CFI INIT 92f8 1c .cfa: sp 0 +
STACK CFI INIT 9314 c .cfa: sp 0 +
STACK CFI INIT 9320 4 .cfa: sp 0 +
STACK CFI INIT 9324 24 .cfa: sp 0 +
STACK CFI 9328 .cfa: sp 16 +
STACK CFI 932c .cfa: x29 16 + .ra: .cfa -8 + ^ x29: .cfa -16 + ^
STACK CFI 9340 .cfa: sp 16 +
STACK CFI 9344 .cfa: sp 0 +
STACK CFI INIT 9348 10 .cfa: sp 0 +
STACK CFI INIT 9358 4 .cfa: sp 0 +
STACK CFI INIT 935c 4 .cfa: sp 0 +
STACK CFI INIT 9490 1c .cfa: sp 0 +
STACK CFI INIT 94ac c .cfa: sp 0 +
STACK CFI INIT 94b8 4 .cfa: sp 0 +
STACK CFI INIT 94bc 4 .cfa: sp 0 +
STACK CFI INIT 94c0 24 .cfa: sp 0 +
STACK CFI 94c4 .cfa: sp 16 +
STACK CFI 94c8 .cfa: x29 16 + .ra: .cfa -8 + ^ x29: .cfa -16 + ^
STACK CFI 94dc .cfa: sp 16 +
STACK CFI 94e0 .cfa: sp 0 +
STACK CFI INIT 94e4 10 .cfa: sp 0 +
STACK CFI INIT 94f4 4 .cfa: sp 0 +
STACK CFI INIT 94f8 4 .cfa: sp 0 +
STACK CFI INIT 960c 1c .cfa: sp 0 +
STACK CFI INIT 9628 c .cfa: sp 0 +
STACK CFI INIT 9714 1c .cfa: sp 0 +
STACK CFI INIT 9780 58 .cfa: sp 0 +
STACK CFI 9784 .cfa: sp 32 +
STACK CFI 978c .cfa: x29 32 + x19: .cfa -16 + ^ .ra: .cfa -24 + ^ x29: .cfa -32 + ^
STACK CFI 97c0 .cfa: sp 32 +
STACK CFI 97c8 .cfa: sp 0 +
STACK CFI 97cc .cfa: sp 32 +
STACK CFI 97d4 .cfa: sp 0 +
STACK CFI INIT 97d8 1c .cfa: sp 0 +
STACK CFI INIT 97f4 c .cfa: sp 0 +
STACK CFI INIT 9800 3c .cfa: sp 0 +
STACK CFI 9804 .cfa: sp 32 +
STACK CFI 980c .cfa: x29 32 + x19: .cfa -16 + ^ .ra: .cfa -24 + ^ x29: .cfa -32 + ^
STACK CFI 9818 .cfa: sp 32 +
STACK CFI 9820 .cfa: sp 0 +
STACK CFI 9824 .cfa: x29 32 +
STACK CFI 9830 .cfa: sp 32 +
STACK CFI 9838 .cfa: sp 0 +
STACK CFI INIT 8630 3b0 .cfa: sp 0 +
STACK CFI 8634 .cfa: sp 176 +
STACK CFI 864c .cfa: x29 64 + x19: .cfa -8 + ^ x20: .cfa -16 + ^ x21: .cfa -24 + ^ x22: .cfa -32 + ^ x23: .cfa -40 + ^ x24: .cfa -48 + ^ .ra: .cfa -56 + ^ x29: .cfa -64 + ^ v8: .cfa -80 + ^
STACK CFI 86d4 .cfa: sp 176 +
STACK CFI 86ec .cfa: sp 0 +
STACK CFI 86f0 .cfa: x29 64 +
STACK CFI INIT 89e0 1c .cfa: sp 0 +
STACK CFI 89e4 .cfa: sp 16 +
STACK CFI 89e8 .cfa: x29 16 + .ra: .cfa -8 + ^ x29: .cfa -16 + ^
STACK CFI 89f0 .cfa: sp 16 +
STACK CFI 89f4 .cfa: sp 0 +
STACK CFI 89f8 .cfa: x29 16 +
STACK CFI INIT 89fc 3c .cfa: sp 0 +
STACK CFI 8a00 .cfa: sp 32 +
STACK CFI 8a08 .cfa: x29 32 + x19: .cfa -16 + ^ .ra: .cfa -24 + ^ x29: .cfa -32 + ^
STACK CFI 8a24 .cfa: sp 32 +
STACK CFI 8a2c .cfa: sp 0 +
STACK CFI 8a30 .cfa: x29 32 +
STACK CFI INIT 8a38 178 .cfa: sp 0 +
STACK CFI 8a3c .cfa: sp 128 +
STACK CFI 8a48 .cfa: x29 32 + x19: .cfa -8 + ^ x20: .cfa -16 + ^ .ra: .cfa -24 + ^ x29: .cfa -32 + ^
STACK CFI 8b2c .cfa: sp 128 +
STACK CFI 8b38 .cfa: sp 0 +
STACK CFI 8b3c .cfa: x29 32 +
STACK CFI INIT 8bb0 17c .cfa: sp 0 +
STACK CFI 8bb4 .cfa: sp 128 +
STACK CFI 8bc0 .cfa: x29 32 + x19: .cfa -8 + ^ x20: .cfa -16 + ^ .ra: .cfa -24 + ^ x29: .cfa -32 + ^
STACK CFI 8ca8 .cfa: sp 128 +
STACK CFI 8cb4 .cfa: sp 0 +
STACK CFI 8cb8 .cfa: x29 32 +
STACK CFI INIT 8d2c 168 .cfa: sp 0 +
STACK CFI 8d30 .cfa: sp 128 +
STACK CFI 8d3c .cfa: x29 32 + x19: .cfa -8 + ^ x20: .cfa -16 + ^ .ra: .cfa -24 + ^ x29: .cfa -32 + ^
STACK CFI 8e10 .cfa: sp 128 +
STACK CFI 8e1c .cfa: sp 0 +
STACK CFI 8e20 .cfa: x29 32 +
STACK CFI INIT 8f9c 48 .cfa: sp 0 +
STACK CFI 8fa0 .cfa: sp 32 +
STACK CFI 8fa8 .cfa: x29 32 + x19: .cfa -16 + ^ .ra: .cfa -24 + ^ x29: .cfa -32 + ^
STACK CFI 8fd0 .cfa: sp 32 +
STACK CFI 8fd8 .cfa: sp 0 +
STACK CFI 8fdc .cfa: x29 32 +
STACK CFI INIT 8fe4 4c .cfa: sp 0 +
STACK CFI 8fe8 .cfa: sp 32 +
STACK CFI 8ff0 .cfa: x29 32 + x19: .cfa -16 + ^ .ra: .cfa -24 + ^ x29: .cfa -32 + ^
STACK CFI 901c .cfa: sp 32 +
STACK CFI 9024 .cfa: sp 0 +
STACK CFI 9028 .cfa: x29 32 +
STACK CFI INIT 9030 98 .cfa: sp 0 +
STACK CFI 9034 .cfa: sp 48 +
STACK CFI 9040 .cfa: x29 48 + x19: .cfa -8 + ^ x20: .cfa -16 + ^ x21: .cfa -32 + ^ .ra: .cfa -40 + ^ x29: .cfa -48 + ^
STACK CFI 9088 .cfa: sp 48 +
STACK CFI 9094 .cfa: sp 0 +
STACK CFI 9098 .cfa: x29 48 +
STACK CFI INIT 90c8 68 .cfa: sp 0 +
STACK CFI 90cc .cfa: sp 32 +
STACK CFI 90d4 .cfa: x29 32 + x19: .cfa -8 + ^ x20: .cfa -16 + ^ .ra: .cfa -24 + ^ x29: .cfa -32 + ^
STACK CFI 910c .cfa: sp 32 +
STACK CFI 9114 .cfa: sp 0 +
STACK CFI 9118 .cfa: x29 32 +
STACK CFI INIT 9130 3c .cfa: sp 0 +
STACK CFI 9134 .cfa: sp 32 +
STACK CFI 913c .cfa: x29 32 + x19: .cfa -16 + ^ .ra: .cfa -24 + ^ x29: .cfa -32 + ^
STACK CFI 9158 .cfa: sp 32 +
STACK CFI 9160 .cfa: sp 0 +
STACK CFI 9164 .cfa: x29 32 +
STACK CFI INIT 916c 40 .cfa: sp 0 +
STACK CFI 9170 .cfa: sp 32 +
STACK CFI 9178 .cfa: x29 32 + x19: .cfa -16 + ^ .ra: .cfa -24 + ^ x29: .cfa -32 + ^
STACK CFI 9198 .cfa: sp 32 +
STACK CFI 91a0 .cfa: sp 0 +
STACK CFI 91a4 .cfa: x29 32 +
STACK CFI INIT 9228 d0 .cfa: sp 0 +
STACK CFI 922c .cfa: sp 80 +
STACK CFI 923c .cfa: x29 48 + x19: .cfa -8 + ^ x20: .cfa -16 + ^ x21: .cfa -32 + ^ .ra: .cfa -40 + ^ x29: .cfa -48 + ^
STACK CFI 92b4 .cfa: sp 80 +
STACK CFI 92c4 .cfa: sp 0 +
STACK CFI 92c8 .cfa: x29 48 +
STACK CFI INIT 9360 130 .cfa: sp 0 +
STACK CFI 9364 .cfa: sp 144 +
STACK CFI 9374 .cfa: x29 48 + x19: .cfa -8 + ^ x20: .cfa -16 + ^ x21: .cfa -32 + ^ .ra: .cfa -40 + ^ x29: .cfa -48 + ^
STACK CFI 9418 .cfa: sp 144 +
STACK CFI 9428 .cfa: sp 0 +
STACK CFI 942c .cfa: x29 48 +
STACK CFI INIT 94fc 110 .cfa: sp 0 +
STACK CFI 9500 .cfa: sp 112 +
STACK CFI 9510 .cfa: x29 48 + x19: .cfa -8 + ^ x20: .cfa -16 + ^ x21: .cfa -32 + ^ .ra: .cfa -40 + ^ x29: .cfa -48 + ^
STACK CFI 9590 .cfa: sp 112 +
STACK CFI 95a0 .cfa: sp 0 +
STACK CFI 95a4 .cfa: x29 48 +
STACK CFI INIT 9634 1c .cfa: sp 0 +
STACK CFI 9638 .cfa: sp 16 +
STACK CFI 963c .cfa: x29 16 + .ra: .cfa -8 + ^ x29: .cfa -16 + ^
STACK CFI 9644 .cfa: sp 16 +
STACK CFI 9648 .cfa: sp 0 +
STACK CFI 964c .cfa: x29 16 +
STACK CFI INIT 9650 30 .cfa: sp 0 +
STACK CFI 9654 .cfa: sp 16 +
STACK CFI 9658 .cfa: x29 16 + .ra: .cfa -8 + ^ x29: .cfa -16 + ^
STACK CFI 9674 .cfa: sp 16 +
STACK CFI 9678 .cfa: sp 0 +
STACK CFI 967c .cfa: x29 16 +
STACK CFI INIT 9680 3c .cfa: sp 0 +
STACK CFI 9684 .cfa: sp 32 +
STACK CFI 968c .cfa: x29 32 + x19: .cfa -16 + ^ .ra: .cfa -24 + ^ x29: .cfa -32 + ^
STACK CFI 96ac .cfa: sp 32 +
STACK CFI 96b4 .cfa: sp 0 +
STACK CFI 96b8 .cfa: x29 32 +
STACK CFI INIT 96bc 58 .cfa: sp 0 +
STACK CFI 96c0 .cfa: sp 32 +
STACK CFI 96c8 .cfa: x29 32 + x19: .cfa -8 + ^ x20: .cfa -16 + ^ .ra: .cfa -24 + ^ x29: .cfa -32 + ^
STACK CFI 96f4 .cfa: sp 32 +
STACK CFI 96fc .cfa: sp 0 +
STACK CFI 9700 .cfa: x29 32 +
STACK CFI INIT 9730 20 .cfa: sp 0 +
STACK CFI 9734 .cfa: sp 16 +
STACK CFI 9738 .cfa: x29 16 + .ra: .cfa -8 + ^ x29: .cfa -16 + ^
STACK CFI 9744 .cfa: sp 16 +
STACK CFI 9748 .cfa: sp 0 +
STACK CFI 974c .cfa: x29 16 +
STACK CFI INIT 9750 30 .cfa: sp 0 +
STACK CFI 9754 .cfa: sp 32 +
STACK CFI 975c .cfa: x29 32 + x19: .cfa -16 + ^ .ra: .cfa -24 + ^ x29: .cfa -32 + ^
STACK CFI 9770 .cfa: sp 32 +
STACK CFI 9778 .cfa: sp 0 +
STACK CFI 977c .cfa: x29 32 +
