MODULE Linux arm64 32C2681E63AA219B063DAAF40B85E6F70 the_bearodactyl.gay-wave-trail.android64.so
INFO CODE_ID 1E68C232AA639B21063DAAF40B85E6F784071636
INFO GENERATOR mozilla/dump_syms 2.3.4
PUBLIC 2ace0 0 __on_dlclose
PUBLIC 2acf0 0 __emutls_unregister_key
PUBLIC 2acf8 0 __on_dlclose_late
PUBLIC 2ad00 0 __atexit_handler_wrapper
PUBLIC 2ad14 0 atexit
PUBLIC 2ad30 0 pthread_atfork
PUBLIC 2ad40 0 __clang_call_terminate
PUBLIC 2ad50 0 std::__ndk1::__function::__base<geode::Result<std::__ndk1::shared_ptr<geode::SettingV3>, std::__ndk1::basic_string<char, std::__ndk1::char_traits<char>, std::__ndk1::allocator<char> > >(std::__ndk1::basic_string<char, std::__ndk1::char_traits<char>, std::__ndk1::allocator<char> > const&, std::__ndk1::basic_string<char, std::__ndk1::char_traits<char>, std::__ndk1::allocator<char> > const&, matjson::Value const&)>::~__base()
PUBLIC 2ad54 0 std::__ndk1::__function::__func<geode::Result<std::__ndk1::shared_ptr<geode::SettingV3>, std::__ndk1::basic_string<char, std::__ndk1::char_traits<char>, std::__ndk1::allocator<char> > > (*)(std::__ndk1::basic_string<char, std::__ndk1::char_traits<char>, std::__ndk1::allocator<char> > const&, std::__ndk1::basic_string<char, std::__ndk1::char_traits<char>, std::__ndk1::allocator<char> > const&, matjson::Value const&), std::__ndk1::allocator<geode::Result<std::__ndk1::shared_ptr<geode::SettingV3>, std::__ndk1::basic_string<char, std::__ndk1::char_traits<char>, std::__ndk1::allocator<char> > > (*)(std::__ndk1::basic_string<char, std::__ndk1::char_traits<char>, std::__ndk1::allocator<char> > const&, std::__ndk1::basic_string<char, std::__ndk1::char_traits<char>, std::__ndk1::allocator<char> > const&, matjson::Value const&)>, geode::Result<std::__ndk1::shared_ptr<geode::SettingV3>, std::__ndk1::basic_string<char, std::__ndk1::char_traits<char>, std::__ndk1::allocator<char> > >(std::__ndk1::basic_string<char, std::__ndk1::char_traits<char>, std::__ndk1::allocator<char> > const&, std::__ndk1::basic_string<char, std::__ndk1::char_traits<char>, std::__ndk1::allocator<char> > const&, matjson::Value const&)>::~__func()
PUBLIC 2ad58 0 std::__ndk1::__function::__func<geode::Result<std::__ndk1::shared_ptr<geode::SettingV3>, std::__ndk1::basic_string<char, std::__ndk1::char_traits<char>, std::__ndk1::allocator<char> > > (*)(std::__ndk1::basic_string<char, std::__ndk1::char_traits<char>, std::__ndk1::allocator<char> > const&, std::__ndk1::basic_string<char, std::__ndk1::char_traits<char>, std::__ndk1::allocator<char> > const&, matjson::Value const&), std::__ndk1::allocator<geode::Result<std::__ndk1::shared_ptr<geode::SettingV3>, std::__ndk1::basic_string<char, std::__ndk1::char_traits<char>, std::__ndk1::allocator<char> > > (*)(std::__ndk1::basic_string<char, std::__ndk1::char_traits<char>, std::__ndk1::allocator<char> > const&, std::__ndk1::basic_string<char, std::__ndk1::char_traits<char>, std::__ndk1::allocator<char> > const&, matjson::Value const&)>, geode::Result<std::__ndk1::shared_ptr<geode::SettingV3>, std::__ndk1::basic_string<char, std::__ndk1::char_traits<char>, std::__ndk1::allocator<char> > >(std::__ndk1::basic_string<char, std::__ndk1::char_traits<char>, std::__ndk1::allocator<char> > const&, std::__ndk1::basic_string<char, std::__ndk1::char_traits<char>, std::__ndk1::allocator<char> > const&, matjson::Value const&)>::__clone() const
PUBLIC 2ad8c 0 std::__ndk1::__function::__func<geode::Result<std::__ndk1::shared_ptr<geode::SettingV3>, std::__ndk1::basic_string<char, std::__ndk1::char_traits<char>, std::__ndk1::allocator<char> > > (*)(std::__ndk1::basic_string<char, std::__ndk1::char_traits<char>, std::__ndk1::allocator<char> > const&, std::__ndk1::basic_string<char, std::__ndk1::char_traits<char>, std::__ndk1::allocator<char> > const&, matjson::Value const&), std::__ndk1::allocator<geode::Result<std::__ndk1::shared_ptr<geode::SettingV3>, std::__ndk1::basic_string<char, std::__ndk1::char_traits<char>, std::__ndk1::allocator<char> > > (*)(std::__ndk1::basic_string<char, std::__ndk1::char_traits<char>, std::__ndk1::allocator<char> > const&, std::__ndk1::basic_string<char, std::__ndk1::char_traits<char>, std::__ndk1::allocator<char> > const&, matjson::Value const&)>, geode::Result<std::__ndk1::shared_ptr<geode::SettingV3>, std::__ndk1::basic_string<char, std::__ndk1::char_traits<char>, std::__ndk1::allocator<char> > >(std::__ndk1::basic_string<char, std::__ndk1::char_traits<char>, std::__ndk1::allocator<char> > const&, std::__ndk1::basic_string<char, std::__ndk1::char_traits<char>, std::__ndk1::allocator<char> > const&, matjson::Value const&)>::__clone(std::__ndk1::__function::__base<geode::Result<std::__ndk1::shared_ptr<geode::SettingV3>, std::__ndk1::basic_string<char, std::__ndk1::char_traits<char>, std::__ndk1::allocator<char> > >(std::__ndk1::basic_string<char, std::__ndk1::char_traits<char>, std::__ndk1::allocator<char> > const&, std::__ndk1::basic_string<char, std::__ndk1::char_traits<char>, std::__ndk1::allocator<char> > const&, matjson::Value const&)>*) const
PUBLIC 2ada0 0 std::__ndk1::__function::__func<geode::Result<std::__ndk1::shared_ptr<geode::SettingV3>, std::__ndk1::basic_string<char, std::__ndk1::char_traits<char>, std::__ndk1::allocator<char> > > (*)(std::__ndk1::basic_string<char, std::__ndk1::char_traits<char>, std::__ndk1::allocator<char> > const&, std::__ndk1::basic_string<char, std::__ndk1::char_traits<char>, std::__ndk1::allocator<char> > const&, matjson::Value const&), std::__ndk1::allocator<geode::Result<std::__ndk1::shared_ptr<geode::SettingV3>, std::__ndk1::basic_string<char, std::__ndk1::char_traits<char>, std::__ndk1::allocator<char> > > (*)(std::__ndk1::basic_string<char, std::__ndk1::char_traits<char>, std::__ndk1::allocator<char> > const&, std::__ndk1::basic_string<char, std::__ndk1::char_traits<char>, std::__ndk1::allocator<char> > const&, matjson::Value const&)>, geode::Result<std::__ndk1::shared_ptr<geode::SettingV3>, std::__ndk1::basic_string<char, std::__ndk1::char_traits<char>, std::__ndk1::allocator<char> > >(std::__ndk1::basic_string<char, std::__ndk1::char_traits<char>, std::__ndk1::allocator<char> > const&, std::__ndk1::basic_string<char, std::__ndk1::char_traits<char>, std::__ndk1::allocator<char> > const&, matjson::Value const&)>::destroy()
PUBLIC 2ada4 0 std::__ndk1::__function::__func<geode::Result<std::__ndk1::shared_ptr<geode::SettingV3>, std::__ndk1::basic_string<char, std::__ndk1::char_traits<char>, std::__ndk1::allocator<char> > > (*)(std::__ndk1::basic_string<char, std::__ndk1::char_traits<char>, std::__ndk1::allocator<char> > const&, std::__ndk1::basic_string<char, std::__ndk1::char_traits<char>, std::__ndk1::allocator<char> > const&, matjson::Value const&), std::__ndk1::allocator<geode::Result<std::__ndk1::shared_ptr<geode::SettingV3>, std::__ndk1::basic_string<char, std::__ndk1::char_traits<char>, std::__ndk1::allocator<char> > > (*)(std::__ndk1::basic_string<char, std::__ndk1::char_traits<char>, std::__ndk1::allocator<char> > const&, std::__ndk1::basic_string<char, std::__ndk1::char_traits<char>, std::__ndk1::allocator<char> > const&, matjson::Value const&)>, geode::Result<std::__ndk1::shared_ptr<geode::SettingV3>, std::__ndk1::basic_string<char, std::__ndk1::char_traits<char>, std::__ndk1::allocator<char> > >(std::__ndk1::basic_string<char, std::__ndk1::char_traits<char>, std::__ndk1::allocator<char> > const&, std::__ndk1::basic_string<char, std::__ndk1::char_traits<char>, std::__ndk1::allocator<char> > const&, matjson::Value const&)>::destroy_deallocate()
PUBLIC 2ada8 0 std::__ndk1::__function::__func<geode::Result<std::__ndk1::shared_ptr<geode::SettingV3>, std::__ndk1::basic_string<char, std::__ndk1::char_traits<char>, std::__ndk1::allocator<char> > > (*)(std::__ndk1::basic_string<char, std::__ndk1::char_traits<char>, std::__ndk1::allocator<char> > const&, std::__ndk1::basic_string<char, std::__ndk1::char_traits<char>, std::__ndk1::allocator<char> > const&, matjson::Value const&), std::__ndk1::allocator<geode::Result<std::__ndk1::shared_ptr<geode::SettingV3>, std::__ndk1::basic_string<char, std::__ndk1::char_traits<char>, std::__ndk1::allocator<char> > > (*)(std::__ndk1::basic_string<char, std::__ndk1::char_traits<char>, std::__ndk1::allocator<char> > const&, std::__ndk1::basic_string<char, std::__ndk1::char_traits<char>, std::__ndk1::allocator<char> > const&, matjson::Value const&)>, geode::Result<std::__ndk1::shared_ptr<geode::SettingV3>, std::__ndk1::basic_string<char, std::__ndk1::char_traits<char>, std::__ndk1::allocator<char> > >(std::__ndk1::basic_string<char, std::__ndk1::char_traits<char>, std::__ndk1::allocator<char> > const&, std::__ndk1::basic_string<char, std::__ndk1::char_traits<char>, std::__ndk1::allocator<char> > const&, matjson::Value const&)>::operator()(std::__ndk1::basic_string<char, std::__ndk1::char_traits<char>, std::__ndk1::allocator<char> > const&, std::__ndk1::basic_string<char, std::__ndk1::char_traits<char>, std::__ndk1::allocator<char> > const&, matjson::Value const&)
PUBLIC 2adbc 0 std::__ndk1::__function::__func<geode::Result<std::__ndk1::shared_ptr<geode::SettingV3>, std::__ndk1::basic_string<char, std::__ndk1::char_traits<char>, std::__ndk1::allocator<char> > > (*)(std::__ndk1::basic_string<char, std::__ndk1::char_traits<char>, std::__ndk1::allocator<char> > const&, std::__ndk1::basic_string<char, std::__ndk1::char_traits<char>, std::__ndk1::allocator<char> > const&, matjson::Value const&), std::__ndk1::allocator<geode::Result<std::__ndk1::shared_ptr<geode::SettingV3>, std::__ndk1::basic_string<char, std::__ndk1::char_traits<char>, std::__ndk1::allocator<char> > > (*)(std::__ndk1::basic_string<char, std::__ndk1::char_traits<char>, std::__ndk1::allocator<char> > const&, std::__ndk1::basic_string<char, std::__ndk1::char_traits<char>, std::__ndk1::allocator<char> > const&, matjson::Value const&)>, geode::Result<std::__ndk1::shared_ptr<geode::SettingV3>, std::__ndk1::basic_string<char, std::__ndk1::char_traits<char>, std::__ndk1::allocator<char> > >(std::__ndk1::basic_string<char, std::__ndk1::char_traits<char>, std::__ndk1::allocator<char> > const&, std::__ndk1::basic_string<char, std::__ndk1::char_traits<char>, std::__ndk1::allocator<char> > const&, matjson::Value const&)>::target(std::type_info const&) const
PUBLIC 2add8 0 std::__ndk1::__function::__func<geode::Result<std::__ndk1::shared_ptr<geode::SettingV3>, std::__ndk1::basic_string<char, std::__ndk1::char_traits<char>, std::__ndk1::allocator<char> > > (*)(std::__ndk1::basic_string<char, std::__ndk1::char_traits<char>, std::__ndk1::allocator<char> > const&, std::__ndk1::basic_string<char, std::__ndk1::char_traits<char>, std::__ndk1::allocator<char> > const&, matjson::Value const&), std::__ndk1::allocator<geode::Result<std::__ndk1::shared_ptr<geode::SettingV3>, std::__ndk1::basic_string<char, std::__ndk1::char_traits<char>, std::__ndk1::allocator<char> > > (*)(std::__ndk1::basic_string<char, std::__ndk1::char_traits<char>, std::__ndk1::allocator<char> > const&, std::__ndk1::basic_string<char, std::__ndk1::char_traits<char>, std::__ndk1::allocator<char> > const&, matjson::Value const&)>, geode::Result<std::__ndk1::shared_ptr<geode::SettingV3>, std::__ndk1::basic_string<char, std::__ndk1::char_traits<char>, std::__ndk1::allocator<char> > >(std::__ndk1::basic_string<char, std::__ndk1::char_traits<char>, std::__ndk1::allocator<char> > const&, std::__ndk1::basic_string<char, std::__ndk1::char_traits<char>, std::__ndk1::allocator<char> > const&, matjson::Value const&)>::target_type() const
PUBLIC 2ade4 0 std::__ndk1::__variant_detail::__visitation::__base::__dispatcher<(unsigned long)0>::__dispatch[abi:ne180000]<std::__ndk1::__variant_detail::__dtor<std::__ndk1::__variant_detail::__traits<std::__ndk1::monostate, std::__ndk1::basic_string<char, std::__ndk1::char_traits<char>, std::__ndk1::allocator<char> > >, (std::__ndk1::__variant_detail::_Trait)1>::__destroy[abi:ne180000]()::{lambda(auto:1&)#1}, std::__ndk1::__variant_detail::__base<(std::__ndk1::__variant_detail::__traits<std::__ndk1::monostate, std::__ndk1::basic_string<char, std::__ndk1::char_traits<char>, std::__ndk1::allocator<char> > >)1, std::__ndk1::__variant_detail::__traits, std::__ndk1::allocator<char> >&>(std::__ndk1::__variant_detail::__dtor<std::__ndk1::__variant_detail::__traits<std::__ndk1::monostate, std::__ndk1::basic_string<char, std::__ndk1::char_traits<char>, std::__ndk1::allocator<char> > >, (std::__ndk1::__variant_detail::_Trait)1>, std::__ndk1::__variant_detail::__base<(std::__ndk1::__variant_detail::__traits<std::__ndk1::monostate, std::__ndk1::basic_string<char, std::__ndk1::char_traits<char>, std::__ndk1::allocator<char> > >)1, std::__ndk1::__variant_detail::__traits, std::__ndk1::allocator<char> >&)
PUBLIC 2ade8 0 std::__ndk1::__variant_detail::__visitation::__base::__dispatcher<(unsigned long)1>::__dispatch[abi:ne180000]<std::__ndk1::__variant_detail::__dtor<std::__ndk1::__variant_detail::__traits<std::__ndk1::monostate, std::__ndk1::basic_string<char, std::__ndk1::char_traits<char>, std::__ndk1::allocator<char> > >, (std::__ndk1::__variant_detail::_Trait)1>::__destroy[abi:ne180000]()::{lambda(auto:1&)#1}, std::__ndk1::__variant_detail::__base<(std::__ndk1::__variant_detail::__traits<std::__ndk1::monostate, std::__ndk1::basic_string<char, std::__ndk1::char_traits<char>, std::__ndk1::allocator<char> > >)1, std::__ndk1::__variant_detail::__traits, std::__ndk1::allocator<char> >&>(std::__ndk1::__variant_detail::__dtor<std::__ndk1::__variant_detail::__traits<std::__ndk1::monostate, std::__ndk1::basic_string<char, std::__ndk1::char_traits<char>, std::__ndk1::allocator<char> > >, (std::__ndk1::__variant_detail::_Trait)1>, std::__ndk1::__variant_detail::__base<(std::__ndk1::__variant_detail::__traits<std::__ndk1::monostate, std::__ndk1::basic_string<char, std::__ndk1::char_traits<char>, std::__ndk1::allocator<char> > >)1, std::__ndk1::__variant_detail::__traits, std::__ndk1::allocator<char> >&)
PUBLIC 2adfc 0 _GLOBAL__sub_I_main.cpp
PUBLIC 2af40 0 __aarch64_ldadd8_relax
PUBLIC 2af70 0 init_have_lse_atomics
PUBLIC 2b008 0 __init_cpu_features_constructor
PUBLIC 2b5a4 0 __init_cpu_features
PUBLIC 2b630 0 __aarch64_ldadd8_acq_rel
PUBLIC 2b660 0 ColorListSetting::parse(std::__ndk1::basic_string<char, std::__ndk1::char_traits<char>, std::__ndk1::allocator<char> > const&, std::__ndk1::basic_string<char, std::__ndk1::char_traits<char>, std::__ndk1::allocator<char> > const&, matjson::Value const&)
PUBLIC 2bca0 0 std::__ndk1::shared_ptr<ColorListSetting>::~shared_ptr[abi:ne180000]()
PUBLIC 2bcf0 0 ColorListSettingNode::onView(cocos2d::CCObject*)
PUBLIC 2bf14 0 std::__ndk1::vector<ColorEntry, std::__ndk1::allocator<ColorEntry> >::~vector[abi:ne180000]()
PUBLIC 2bf90 0 ColorList::~ColorList()
PUBLIC 2c00c 0 ColorListSetting::createNode(float)
PUBLIC 2c4d8 0 std::__ndk1::shared_ptr<geode::SettingV3>::~shared_ptr[abi:ne180000]()
PUBLIC 2c528 0 ColorListSetting::~ColorListSetting()
PUBLIC 2c5a4 0 geode::SettingBaseValueV3<ColorList, ColorList>::load(matjson::Value const&)
PUBLIC 2c700 0 geode::SettingBaseValueV3<ColorList, ColorList>::save(matjson::Value&) const
PUBLIC 2ce74 0 geode::SettingBaseValueV3<ColorList, ColorList>::isDefaultValue() const
PUBLIC 2cf7c 0 geode::SettingBaseValueV3<ColorList, ColorList>::reset()
PUBLIC 2d064 0 geode::SettingBaseValueV3<ColorList, ColorList>::isValid(ColorList) const
PUBLIC 2d06c 0 _ZN5geode15UnwrapExceptionC2IRNSt6__ndk112basic_stringIcNS2_11char_traitsIcEENS2_9allocatorIcEEEEQsr4implE18IsStringStreamableIT_EEENS_4impl6ErrTagEOSA_
PUBLIC 2d1d4 0 std::__ndk1::__throw_bad_variant_access[abi:ne180000]()
PUBLIC 2d208 0 std::__ndk1::basic_stringstream<char, std::__ndk1::char_traits<char>, std::__ndk1::allocator<char> >::basic_stringstream[abi:ne180000]()
PUBLIC m 2d334 0 std::__ndk1::basic_stringstream<char, std::__ndk1::char_traits<char>, std::__ndk1::allocator<char> >::~basic_stringstream()
PUBLIC 2d3b4 0 geode::UnwrapException::~UnwrapException()
PUBLIC 2d3d8 0 std::__ndk1::__put_character_sequence[abi:ne180000]<char, std::__ndk1::char_traits<char> >(std::__ndk1::basic_ostream<char, std::__ndk1::char_traits<char> >, std::__ndk1::basic_ostream const*, unsigned long)
PUBLIC 2d57c 0 std::__ndk1::__pad_and_output[abi:ne180000]<char, std::__ndk1::char_traits<char> >(std::__ndk1::char_traits<char>, std::__ndk1::ostreambuf_iterator const*, std::__ndk1::ostreambuf_iterator const, std::__ndk1::ostreambuf_iterator const, std::__ndk1::ios_base&, std::__ndk1::ostreambuf_iterator)
PUBLIC 2d758 0 std::__ndk1::basic_string<char, std::__ndk1::char_traits<char>, std::__ndk1::allocator<char> >::__throw_length_error[abi:ne180000]() const
PUBLIC 2d76c 0 std::__ndk1::__throw_length_error[abi:ne180000](char const*)
PUBLIC 2d7bc 0 std::length_error::length_error[abi:ne180000](char const*)
PUBLIC 2d7ec 0 std::__throw_bad_array_new_length([abi:ne180000], void)
PUBLIC 2d820 0 std::__ndk1::basic_stringbuf<char, std::__ndk1::char_traits<char>, std::__ndk1::allocator<char> >::str[abi:ne180000]() &&
PUBLIC 2d998 0 std::__ndk1::basic_stringbuf<char, std::__ndk1::char_traits<char>, std::__ndk1::allocator<char> >::__init_buf_ptrs[abi:ne180000]()
PUBLIC 2dae0 0 std::__ndk1::basic_string<char, std::__ndk1::char_traits<char>, std::__ndk1::allocator<char> >::__init_copy_ctor_external(char const*, unsigned long)
PUBLIC 2db60 0 std::__ndk1::__variant_detail::__visitation::__base::__dispatcher<(unsigned long)0>::__dispatch[abi:ne180000]<std::__ndk1::__variant_detail::__dtor<std::__ndk1::__variant_detail::__traits<std::__ndk1::shared_ptr<ColorListSetting>, std::__ndk1::basic_string<char, std::__ndk1::char_traits<char>, std::__ndk1::allocator<char> > >, (std::__ndk1::__variant_detail::_Trait)1>::__destroy[abi:ne180000]()::{lambda(auto:1&)#1}, std::__ndk1::__variant_detail::__base<(std::__ndk1::__variant_detail::__traits<std::__ndk1::shared_ptr<ColorListSetting>, std::__ndk1::basic_string<char, std::__ndk1::char_traits<char>, std::__ndk1::allocator<char> > >)1, ColorListSetting, std::__ndk1::allocator<char> >&>(std::__ndk1::__variant_detail::__dtor<std::__ndk1::__variant_detail::__traits<std::__ndk1::shared_ptr<ColorListSetting>, std::__ndk1::basic_string<char, std::__ndk1::char_traits<char>, std::__ndk1::allocator<char> > >, (std::__ndk1::__variant_detail::_Trait)1>, std::__ndk1::__variant_detail::__base<(std::__ndk1::__variant_detail::__traits<std::__ndk1::shared_ptr<ColorListSetting>, std::__ndk1::basic_string<char, std::__ndk1::char_traits<char>, std::__ndk1::allocator<char> > >)1, ColorListSetting, std::__ndk1::allocator<char> >&)
PUBLIC 2dbb0 0 std::__ndk1::__variant_detail::__visitation::__base::__dispatcher<(unsigned long)1>::__dispatch[abi:ne180000]<std::__ndk1::__variant_detail::__dtor<std::__ndk1::__variant_detail::__traits<std::__ndk1::shared_ptr<ColorListSetting>, std::__ndk1::basic_string<char, std::__ndk1::char_traits<char>, std::__ndk1::allocator<char> > >, (std::__ndk1::__variant_detail::_Trait)1>::__destroy[abi:ne180000]()::{lambda(auto:1&)#1}, std::__ndk1::__variant_detail::__base<(std::__ndk1::__variant_detail::__traits<std::__ndk1::shared_ptr<ColorListSetting>, std::__ndk1::basic_string<char, std::__ndk1::char_traits<char>, std::__ndk1::allocator<char> > >)1, ColorListSetting, std::__ndk1::allocator<char> >&>(std::__ndk1::__variant_detail::__dtor<std::__ndk1::__variant_detail::__traits<std::__ndk1::shared_ptr<ColorListSetting>, std::__ndk1::basic_string<char, std::__ndk1::char_traits<char>, std::__ndk1::allocator<char> > >, (std::__ndk1::__variant_detail::_Trait)1>, std::__ndk1::__variant_detail::__base<(std::__ndk1::__variant_detail::__traits<std::__ndk1::shared_ptr<ColorListSetting>, std::__ndk1::basic_string<char, std::__ndk1::char_traits<char>, std::__ndk1::allocator<char> > >)1, ColorListSetting, std::__ndk1::allocator<char> >&)
PUBLIC 2dbc4 0 cocos2d::CCCopying::copyWithZone(cocos2d::CCZone*)
PUBLIC 2dbcc 0 geode::SettingValueNodeV3<ColorListSetting>::~SettingValueNodeV3()
PUBLIC 2dc78 0 ColorListSettingNode::~ColorListSettingNode()
PUBLIC 2dd34 0 geode::SettingValueNodeV3<ColorListSetting>::updateState(cocos2d::CCNode*)
PUBLIC 2dfc8 0 geode::SettingValueNodeV3<ColorListSetting>::onCommit()
PUBLIC 2e1f0 0 geode::SettingValueNodeV3<ColorListSetting>::onResetToDefault()
PUBLIC 2e344 0 geode::SettingValueNodeV3<ColorListSetting>::hasUncommittedChanges() const
PUBLIC 2e548 0 geode::SettingValueNodeV3<ColorListSetting>::hasNonDefaultValue() const
PUBLIC 2e74c 0 geode::SettingValueNodeV3<ColorListSetting>::~SettingValueNodeV3()
PUBLIC 2e808 0 geode::impl::ResultData<void, std::__ndk1::basic_string<char, std::__ndk1::char_traits<char>, std::__ndk1::allocator<char> > >::~ResultData()
PUBLIC 2e87c 0 std::__ndk1::vector<ColorEntry, std::__ndk1::allocator<ColorEntry> >::__init_with_size[abi:ne180000]<ColorEntry*, std::__ndk1::vector<ColorEntry, std::__ndk1::allocator<ColorEntry> >::__init_with_size[abi:ne180000]>(ColorEntry*, std::__ndk1::vector<ColorEntry, std::__ndk1::allocator<ColorEntry> >::__init_with_size[abi:ne180000], unsigned long)
PUBLIC 2e9d8 0 std::__ndk1::__exception_guard_exceptions<std::__ndk1::vector<ColorEntry, std::__ndk1::allocator<ColorEntry> >::__destroy_vector>::~__exception_guard_exceptions[abi:ne180000]()
PUBLIC 2ea64 0 std::__ndk1::vector<ColorEntry, std::__ndk1::allocator<ColorEntry> >::__throw_length_error[abi:ne180000]() const
PUBLIC 2ea78 0 std::__ndk1::__exception_guard_exceptions<std::__ndk1::_AllocatorDestroyRangeReverse<std::__ndk1::allocator<ColorEntry>, ColorEntry*> >::~__exception_guard_exceptions[abi:ne180000]()
PUBLIC 2ead8 0 geode::SettingBaseValueV3<ColorList, ColorList>::setValue(ColorList)
PUBLIC 2ec44 0 std::__ndk1::vector<ColorEntry, std::__ndk1::allocator<ColorEntry> >::__assign_with_size[abi:ne180000]<ColorEntry*, std::__ndk1::vector<ColorEntry, std::__ndk1::allocator<ColorEntry> >::__assign_with_size[abi:ne180000]>(ColorEntry*, std::__ndk1::vector<ColorEntry, std::__ndk1::allocator<ColorEntry> >::__assign_with_size[abi:ne180000], long)
PUBLIC 2f03c 0 std::__ndk1::basic_string<char, std::__ndk1::char_traits<char>, std::__ndk1::allocator<char> >::__assign_no_alias<true>(char const*, unsigned long)
PUBLIC 2f0e8 0 std::__ndk1::basic_string<char, std::__ndk1::char_traits<char>, std::__ndk1::allocator<char> >::__assign_no_alias<false>(char const*, unsigned long)
PUBLIC 2f1f8 0 geode::SettingBaseValueV3<ColorList, ColorList>::~SettingBaseValueV3()
PUBLIC 2f264 0 geode::SettingBaseValueV3<ColorList, ColorList>::~SettingBaseValueV3()
PUBLIC 2f268 0 std::__ndk1::__shared_ptr_emplace<ColorListSetting, std::__ndk1::allocator<ColorListSetting> >::~__shared_ptr_emplace()
PUBLIC 2f278 0 std::__ndk1::__shared_ptr_emplace<ColorListSetting, std::__ndk1::allocator<ColorListSetting> >::~__shared_ptr_emplace()
PUBLIC 2f2a8 0 std::__ndk1::__shared_ptr_emplace<ColorListSetting, std::__ndk1::allocator<ColorListSetting> >::__on_zero_shared()
PUBLIC 2f2b4 0 std::__ndk1::__shared_ptr_emplace<ColorListSetting, std::__ndk1::allocator<ColorListSetting> >::__on_zero_shared_weak()
PUBLIC 2f2b8 0 std::__ndk1::__shared_ptr_emplace<geode::SettingBaseValueV3<ColorList, ColorList>::Impl, std::__ndk1::allocator<geode::SettingBaseValueV3<ColorList, ColorList>::Impl> >::~__shared_ptr_emplace()
PUBLIC 2f2c8 0 std::__ndk1::__shared_ptr_emplace<geode::SettingBaseValueV3<ColorList, ColorList>::Impl, std::__ndk1::allocator<geode::SettingBaseValueV3<ColorList, ColorList>::Impl> >::~__shared_ptr_emplace()
PUBLIC 2f2f8 0 std::__ndk1::__shared_ptr_emplace<geode::SettingBaseValueV3<ColorList, ColorList>::Impl, std::__ndk1::allocator<geode::SettingBaseValueV3<ColorList, ColorList>::Impl> >::__on_zero_shared()
PUBLIC 2f3c0 0 std::__ndk1::__shared_ptr_emplace<geode::SettingBaseValueV3<ColorList, ColorList>::Impl, std::__ndk1::allocator<geode::SettingBaseValueV3<ColorList, ColorList>::Impl> >::__on_zero_shared_weak()
PUBLIC 2f3c4 0 geode::JsonExpectedValue::tryGet<ColorList>()
PUBLIC 2f620 0 geode::impl::ResultData<ColorList, std::__ndk1::basic_string<char, std::__ndk1::char_traits<char>, std::__ndk1::allocator<char> > >::~ResultData()
PUBLIC 2f694 0 matjson::Serialize<ColorList>::fromJson(matjson::Value const&)
PUBLIC 30064 0 geode::impl::ResultData<ColorEntry, std::__ndk1::basic_string<char, std::__ndk1::char_traits<char>, std::__ndk1::allocator<char> > >::~ResultData()
PUBLIC 300d8 0 geode::impl::ResultData<bool, std::__ndk1::basic_string<char, std::__ndk1::char_traits<char>, std::__ndk1::allocator<char> > >::~ResultData()
PUBLIC 3014c 0 geode::impl::ResultData<std::__ndk1::basic_string<char, std::__ndk1::char_traits<char>, std::__ndk1::allocator<char> >, std::__ndk1::basic_string<char, std::__ndk1::char_traits<char>, std::__ndk1::allocator<char> > >::~ResultData()
PUBLIC 301c0 0 std::__ndk1::__variant_detail::__visitation::__base::__dispatcher<(unsigned long)0>::__dispatch[abi:ne180000]<std::__ndk1::__variant_detail::__dtor<std::__ndk1::__variant_detail::__traits<bool, std::__ndk1::basic_string<char, std::__ndk1::char_traits<char>, std::__ndk1::allocator<char> > >, (std::__ndk1::__variant_detail::_Trait)1>::__destroy[abi:ne180000]()::{lambda(auto:1&)#1}, std::__ndk1::__variant_detail::__base<(std::__ndk1::__variant_detail::__traits<bool, std::__ndk1::basic_string<char, std::__ndk1::char_traits<char>, std::__ndk1::allocator<char> > >)1, bool, std::__ndk1::allocator<char> >&>(std::__ndk1::__variant_detail::__dtor<std::__ndk1::__variant_detail::__traits<bool, std::__ndk1::basic_string<char, std::__ndk1::char_traits<char>, std::__ndk1::allocator<char> > >, (std::__ndk1::__variant_detail::_Trait)1>, std::__ndk1::__variant_detail::__base<(std::__ndk1::__variant_detail::__traits<bool, std::__ndk1::basic_string<char, std::__ndk1::char_traits<char>, std::__ndk1::allocator<char> > >)1, bool, std::__ndk1::allocator<char> >&)
PUBLIC 301c4 0 std::__ndk1::__variant_detail::__visitation::__base::__dispatcher<(unsigned long)1>::__dispatch[abi:ne180000]<std::__ndk1::__variant_detail::__dtor<std::__ndk1::__variant_detail::__traits<bool, std::__ndk1::basic_string<char, std::__ndk1::char_traits<char>, std::__ndk1::allocator<char> > >, (std::__ndk1::__variant_detail::_Trait)1>::__destroy[abi:ne180000]()::{lambda(auto:1&)#1}, std::__ndk1::__variant_detail::__base<(std::__ndk1::__variant_detail::__traits<bool, std::__ndk1::basic_string<char, std::__ndk1::char_traits<char>, std::__ndk1::allocator<char> > >)1, bool, std::__ndk1::allocator<char> >&>(std::__ndk1::__variant_detail::__dtor<std::__ndk1::__variant_detail::__traits<bool, std::__ndk1::basic_string<char, std::__ndk1::char_traits<char>, std::__ndk1::allocator<char> > >, (std::__ndk1::__variant_detail::_Trait)1>, std::__ndk1::__variant_detail::__base<(std::__ndk1::__variant_detail::__traits<bool, std::__ndk1::basic_string<char, std::__ndk1::char_traits<char>, std::__ndk1::allocator<char> > >)1, bool, std::__ndk1::allocator<char> >&)
PUBLIC 301d8 0 std::__ndk1::__variant_detail::__visitation::__base::__dispatcher<(unsigned long)0>::__dispatch[abi:ne180000]<std::__ndk1::__variant_detail::__dtor<std::__ndk1::__variant_detail::__traits<std::__ndk1::basic_string<char, std::__ndk1::char_traits<char>, std::__ndk1::allocator<char> >, std::__ndk1::allocator<char> >, (std::__ndk1::__variant_detail::_Trait)1>::__destroy[abi:ne180000]()::{lambda(auto:1&)#1}, std::__ndk1::__variant_detail::__base<(std::__ndk1::__variant_detail::__traits<std::__ndk1::basic_string<char, std::__ndk1::char_traits<char>, std::__ndk1::allocator<char> >, std::__ndk1::allocator<char> >)1, std::__ndk1::allocator<char>, std::__ndk1::allocator<char> >&>(std::__ndk1::__variant_detail::__dtor<std::__ndk1::__variant_detail::__traits<std::__ndk1::basic_string<char, std::__ndk1::char_traits<char>, std::__ndk1::allocator<char> >, std::__ndk1::allocator<char> >, (std::__ndk1::__variant_detail::_Trait)1>, std::__ndk1::__variant_detail::__base<(std::__ndk1::__variant_detail::__traits<std::__ndk1::basic_string<char, std::__ndk1::char_traits<char>, std::__ndk1::allocator<char> >, std::__ndk1::allocator<char> >)1, std::__ndk1::allocator<char>, std::__ndk1::allocator<char> >&)
PUBLIC 301ec 0 std::__ndk1::__variant_detail::__visitation::__base::__dispatcher<(unsigned long)1>::__dispatch[abi:ne180000]<std::__ndk1::__variant_detail::__dtor<std::__ndk1::__variant_detail::__traits<std::__ndk1::basic_string<char, std::__ndk1::char_traits<char>, std::__ndk1::allocator<char> >, std::__ndk1::allocator<char> >, (std::__ndk1::__variant_detail::_Trait)1>::__destroy[abi:ne180000]()::{lambda(auto:1&)#1}, std::__ndk1::__variant_detail::__base<(std::__ndk1::__variant_detail::__traits<std::__ndk1::basic_string<char, std::__ndk1::char_traits<char>, std::__ndk1::allocator<char> >, std::__ndk1::allocator<char> >)1, std::__ndk1::allocator<char>, std::__ndk1::allocator<char> >&>(std::__ndk1::__variant_detail::__dtor<std::__ndk1::__variant_detail::__traits<std::__ndk1::basic_string<char, std::__ndk1::char_traits<char>, std::__ndk1::allocator<char> >, std::__ndk1::allocator<char> >, (std::__ndk1::__variant_detail::_Trait)1>, std::__ndk1::__variant_detail::__base<(std::__ndk1::__variant_detail::__traits<std::__ndk1::basic_string<char, std::__ndk1::char_traits<char>, std::__ndk1::allocator<char> >, std::__ndk1::allocator<char> >)1, std::__ndk1::allocator<char>, std::__ndk1::allocator<char> >&)
PUBLIC 30200 0 std::__ndk1::__split_buffer<ColorEntry, std::__ndk1::allocator<ColorEntry>&>::~__split_buffer()
PUBLIC 30268 0 std::__ndk1::__exception_guard_exceptions<std::__ndk1::_AllocatorDestroyRangeReverse<std::__ndk1::allocator<ColorEntry>, std::__ndk1::reverse_iterator<ColorEntry*> > >::~__exception_guard_exceptions[abi:ne180000]()
PUBLIC 302bc 0 std::__ndk1::__variant_detail::__visitation::__base::__dispatcher<(unsigned long)0>::__dispatch[abi:ne180000]<std::__ndk1::__variant_detail::__dtor<std::__ndk1::__variant_detail::__traits<ColorEntry, std::__ndk1::basic_string<char, std::__ndk1::char_traits<char>, std::__ndk1::allocator<char> > >, (std::__ndk1::__variant_detail::_Trait)1>::__destroy[abi:ne180000]()::{lambda(auto:1&)#1}, std::__ndk1::__variant_detail::__base<(std::__ndk1::__variant_detail::__traits<ColorEntry, std::__ndk1::basic_string<char, std::__ndk1::char_traits<char>, std::__ndk1::allocator<char> > >)1, std::__ndk1::__variant_detail::__traits, std::__ndk1::allocator<char> >&>(std::__ndk1::__variant_detail::__dtor<std::__ndk1::__variant_detail::__traits<ColorEntry, std::__ndk1::basic_string<char, std::__ndk1::char_traits<char>, std::__ndk1::allocator<char> > >, (std::__ndk1::__variant_detail::_Trait)1>, std::__ndk1::__variant_detail::__base<(std::__ndk1::__variant_detail::__traits<ColorEntry, std::__ndk1::basic_string<char, std::__ndk1::char_traits<char>, std::__ndk1::allocator<char> > >)1, std::__ndk1::__variant_detail::__traits, std::__ndk1::allocator<char> >&)
PUBLIC 302d0 0 std::__ndk1::__variant_detail::__visitation::__base::__dispatcher<(unsigned long)1>::__dispatch[abi:ne180000]<std::__ndk1::__variant_detail::__dtor<std::__ndk1::__variant_detail::__traits<ColorEntry, std::__ndk1::basic_string<char, std::__ndk1::char_traits<char>, std::__ndk1::allocator<char> > >, (std::__ndk1::__variant_detail::_Trait)1>::__destroy[abi:ne180000]()::{lambda(auto:1&)#1}, std::__ndk1::__variant_detail::__base<(std::__ndk1::__variant_detail::__traits<ColorEntry, std::__ndk1::basic_string<char, std::__ndk1::char_traits<char>, std::__ndk1::allocator<char> > >)1, std::__ndk1::__variant_detail::__traits, std::__ndk1::allocator<char> >&>(std::__ndk1::__variant_detail::__dtor<std::__ndk1::__variant_detail::__traits<ColorEntry, std::__ndk1::basic_string<char, std::__ndk1::char_traits<char>, std::__ndk1::allocator<char> > >, (std::__ndk1::__variant_detail::_Trait)1>, std::__ndk1::__variant_detail::__base<(std::__ndk1::__variant_detail::__traits<ColorEntry, std::__ndk1::basic_string<char, std::__ndk1::char_traits<char>, std::__ndk1::allocator<char> > >)1, std::__ndk1::__variant_detail::__traits, std::__ndk1::allocator<char> >&)
PUBLIC 302e4 0 std::__ndk1::__variant_detail::__visitation::__base::__dispatcher<(unsigned long)0>::__dispatch[abi:ne180000]<std::__ndk1::__variant_detail::__dtor<std::__ndk1::__variant_detail::__traits<ColorList, std::__ndk1::basic_string<char, std::__ndk1::char_traits<char>, std::__ndk1::allocator<char> > >, (std::__ndk1::__variant_detail::_Trait)1>::__destroy[abi:ne180000]()::{lambda(auto:1&)#1}, std::__ndk1::__variant_detail::__base<(std::__ndk1::__variant_detail::__traits<ColorList, std::__ndk1::basic_string<char, std::__ndk1::char_traits<char>, std::__ndk1::allocator<char> > >)1, std::__ndk1::__variant_detail::__traits, std::__ndk1::allocator<char> >&>(std::__ndk1::__variant_detail::__dtor<std::__ndk1::__variant_detail::__traits<ColorList, std::__ndk1::basic_string<char, std::__ndk1::char_traits<char>, std::__ndk1::allocator<char> > >, (std::__ndk1::__variant_detail::_Trait)1>, std::__ndk1::__variant_detail::__base<(std::__ndk1::__variant_detail::__traits<ColorList, std::__ndk1::basic_string<char, std::__ndk1::char_traits<char>, std::__ndk1::allocator<char> > >)1, std::__ndk1::__variant_detail::__traits, std::__ndk1::allocator<char> >&)
PUBLIC 30360 0 std::__ndk1::__variant_detail::__visitation::__base::__dispatcher<(unsigned long)1>::__dispatch[abi:ne180000]<std::__ndk1::__variant_detail::__dtor<std::__ndk1::__variant_detail::__traits<ColorList, std::__ndk1::basic_string<char, std::__ndk1::char_traits<char>, std::__ndk1::allocator<char> > >, (std::__ndk1::__variant_detail::_Trait)1>::__destroy[abi:ne180000]()::{lambda(auto:1&)#1}, std::__ndk1::__variant_detail::__base<(std::__ndk1::__variant_detail::__traits<ColorList, std::__ndk1::basic_string<char, std::__ndk1::char_traits<char>, std::__ndk1::allocator<char> > >)1, std::__ndk1::__variant_detail::__traits, std::__ndk1::allocator<char> >&>(std::__ndk1::__variant_detail::__dtor<std::__ndk1::__variant_detail::__traits<ColorList, std::__ndk1::basic_string<char, std::__ndk1::char_traits<char>, std::__ndk1::allocator<char> > >, (std::__ndk1::__variant_detail::_Trait)1>, std::__ndk1::__variant_detail::__base<(std::__ndk1::__variant_detail::__traits<ColorList, std::__ndk1::basic_string<char, std::__ndk1::char_traits<char>, std::__ndk1::allocator<char> > >)1, std::__ndk1::__variant_detail::__traits, std::__ndk1::allocator<char> >&)
PUBLIC 30374 0 std::__ndk1::__shared_ptr_emplace<geode::SettingValueNodeV3<ColorListSetting>::Impl, std::__ndk1::allocator<geode::SettingValueNodeV3<ColorListSetting>::Impl> >::~__shared_ptr_emplace()
PUBLIC 30384 0 std::__ndk1::__shared_ptr_emplace<geode::SettingValueNodeV3<ColorListSetting>::Impl, std::__ndk1::allocator<geode::SettingValueNodeV3<ColorListSetting>::Impl> >::~__shared_ptr_emplace()
PUBLIC 303b4 0 std::__ndk1::__shared_ptr_emplace<geode::SettingValueNodeV3<ColorListSetting>::Impl, std::__ndk1::allocator<geode::SettingValueNodeV3<ColorListSetting>::Impl> >::__on_zero_shared()
PUBLIC 30430 0 std::__ndk1::__shared_ptr_emplace<geode::SettingValueNodeV3<ColorListSetting>::Impl, std::__ndk1::allocator<geode::SettingValueNodeV3<ColorListSetting>::Impl> >::__on_zero_shared_weak()
PUBLIC 30434 0 std::__ndk1::__function::__base<void (std::__ndk1::vector<ColorEntry, std::__ndk1::allocator<ColorEntry> >)>::~__base()
PUBLIC 30438 0 std::__ndk1::__function::__func<ColorListSettingNode::onView(cocos2d::CCObject*)::$_0, std::__ndk1::allocator<ColorListSettingNode::onView(cocos2d::CCObject*)::$_0>, void (std::__ndk1::vector<ColorEntry, std::__ndk1::allocator<ColorEntry> >)>::~__func()
PUBLIC 3043c 0 std::__ndk1::__function::__func<ColorListSettingNode::onView(cocos2d::CCObject*)::$_0, std::__ndk1::allocator<ColorListSettingNode::onView(cocos2d::CCObject*)::$_0>, void (std::__ndk1::vector<ColorEntry, std::__ndk1::allocator<ColorEntry> >)>::__clone() const
PUBLIC 30470 0 std::__ndk1::__function::__func<ColorListSettingNode::onView(cocos2d::CCObject*)::$_0, std::__ndk1::allocator<ColorListSettingNode::onView(cocos2d::CCObject*)::$_0>, void (std::__ndk1::vector<ColorEntry, std::__ndk1::allocator<ColorEntry> >)>::__clone(std::__ndk1::__function::__base<void (std::__ndk1::vector<ColorEntry, std::__ndk1::allocator<ColorEntry> >)>*) const
PUBLIC 30484 0 std::__ndk1::__function::__func<ColorListSettingNode::onView(cocos2d::CCObject*)::$_0, std::__ndk1::allocator<ColorListSettingNode::onView(cocos2d::CCObject*)::$_0>, void (std::__ndk1::vector<ColorEntry, std::__ndk1::allocator<ColorEntry> >)>::destroy()
PUBLIC 30488 0 std::__ndk1::__function::__func<ColorListSettingNode::onView(cocos2d::CCObject*)::$_0, std::__ndk1::allocator<ColorListSettingNode::onView(cocos2d::CCObject*)::$_0>, void (std::__ndk1::vector<ColorEntry, std::__ndk1::allocator<ColorEntry> >)>::destroy_deallocate()
PUBLIC 3048c 0 std::__ndk1::__function::__func<ColorListSettingNode::onView(cocos2d::CCObject*)::$_0, std::__ndk1::allocator<ColorListSettingNode::onView(cocos2d::CCObject*)::$_0>, void (std::__ndk1::vector<ColorEntry, std::__ndk1::allocator<ColorEntry> >)>::operator()(std::__ndk1::vector<ColorEntry, std::__ndk1::allocator<ColorEntry> >&&)
PUBLIC 3059c 0 std::__ndk1::__function::__func<ColorListSettingNode::onView(cocos2d::CCObject*)::$_0, std::__ndk1::allocator<ColorListSettingNode::onView(cocos2d::CCObject*)::$_0>, void (std::__ndk1::vector<ColorEntry, std::__ndk1::allocator<ColorEntry> >)>::target(std::type_info const&) const
PUBLIC 305b8 0 std::__ndk1::__function::__func<ColorListSettingNode::onView(cocos2d::CCObject*)::$_0, std::__ndk1::allocator<ColorListSettingNode::onView(cocos2d::CCObject*)::$_0>, void (std::__ndk1::vector<ColorEntry, std::__ndk1::allocator<ColorEntry> >)>::target_type() const
PUBLIC 305c4 0 std::__ndk1::__throw_bad_weak_ptr[abi:ne180000]()
PUBLIC 305f8 0 std::__ndk1::pair<std::__ndk1::basic_string<char, std::__ndk1::char_traits<char>, std::__ndk1::allocator<char> >, matjson::Value>::~pair()
PUBLIC 30634 0 std::__ndk1::vector<matjson::Value, std::__ndk1::allocator<matjson::Value> >::~vector[abi:ne180000]()
PUBLIC 3069c 0 std::__ndk1::__split_buffer<matjson::Value, std::__ndk1::allocator<matjson::Value>&>::~__split_buffer()
PUBLIC 306f0 0 std::__ndk1::vector<matjson::Value, std::__ndk1::allocator<matjson::Value> >::__throw_length_error[abi:ne180000]() const
PUBLIC 30704 0 __cxx_global_var_init
PUBLIC 30b40 0 __cxx_global_var_init.1
PUBLIC 30f7c 0 geode::modifier::ModifyBase<geode::modifier::ModifyDerive<hook8<(anonymous namespace)::hook8Parent>, HardStreak> >::~ModifyBase()
PUBLIC 30f98 0 geode::modifier::ModifyBase<geode::modifier::ModifyDerive<hook21<(anonymous namespace)::hook21Parent>, PlayLayer> >::~ModifyBase()
PUBLIC 30fb4 0 geode::modifier::ModifyDerive<hook8<(anonymous namespace)::hook8Parent>, HardStreak>::apply()
PUBLIC 31334 0 std::__ndk1::shared_ptr<geode::Hook>::~shared_ptr[abi:ne180000]()
PUBLIC 31384 0 geode::impl::ResultData<geode::Hook*, std::__ndk1::basic_string<char, std::__ndk1::char_traits<char>, std::__ndk1::allocator<char> > >::~ResultData()
PUBLIC 313f8 0 std::__ndk1::vector<std::__ndk1::basic_string<char, std::__ndk1::char_traits<char>, std::__ndk1::allocator<char> >, std::__ndk1::allocator<std::__ndk1::basic_string<char, std::__ndk1::char_traits<char>, std::__ndk1::allocator<char> > > >::~vector[abi:ne180000]()
PUBLIC 31474 0 geode::modifier::ModifyBase<geode::modifier::ModifyDerive<hook8<(anonymous namespace)::hook8Parent>, HardStreak> >::apply()
PUBLIC 31478 0 _ZN5geode15UnwrapExceptionC2IRPNS_4HookEQsr4implE18IsStringStreamableIT_EEENS_4impl5OkTagEOS5_
PUBLIC 315cc 0 std::__ndk1::vector<std::__ndk1::basic_string<char, std::__ndk1::char_traits<char>, std::__ndk1::allocator<char> >, std::__ndk1::allocator<std::__ndk1::basic_string<char, std::__ndk1::char_traits<char>, std::__ndk1::allocator<char> > > >::__push_back_slow_path<std::__ndk1::basic_string<char, std::__ndk1::char_traits<char>, std::__ndk1::allocator<char> > const&>(std::__ndk1::basic_string<char, std::__ndk1::char_traits<char>, std::__ndk1::allocator<char> > const&)
PUBLIC 317f4 0 std::__ndk1::__split_buffer<std::__ndk1::basic_string<char, std::__ndk1::char_traits<char>, std::__ndk1::allocator<char> >, std::__ndk1::allocator<std::__ndk1::basic_string<char, std::__ndk1::char_traits<char>, std::__ndk1::allocator<char> > >&>::~__split_buffer()
PUBLIC 3185c 0 std::__ndk1::vector<std::__ndk1::basic_string<char, std::__ndk1::char_traits<char>, std::__ndk1::allocator<char> >, std::__ndk1::allocator<std::__ndk1::basic_string<char, std::__ndk1::char_traits<char>, std::__ndk1::allocator<char> > > >::__throw_length_error[abi:ne180000]() const
PUBLIC 31870 0 std::__ndk1::__variant_detail::__visitation::__base::__dispatcher<(unsigned long)0>::__dispatch[abi:ne180000]<std::__ndk1::__variant_detail::__dtor<std::__ndk1::__variant_detail::__traits<geode::Hook*, std::__ndk1::basic_string<char, std::__ndk1::char_traits<char>, std::__ndk1::allocator<char> > >, (std::__ndk1::__variant_detail::_Trait)1>::__destroy[abi:ne180000]()::{lambda(auto:1&)#1}, std::__ndk1::__variant_detail::__base<(std::__ndk1::__variant_detail::__traits<geode::Hook*, std::__ndk1::basic_string<char, std::__ndk1::char_traits<char>, std::__ndk1::allocator<char> > >)1, geode::Hook, std::__ndk1::allocator<char> >&>(std::__ndk1::__variant_detail::__dtor<std::__ndk1::__variant_detail::__traits<geode::Hook*, std::__ndk1::basic_string<char, std::__ndk1::char_traits<char>, std::__ndk1::allocator<char> > >, (std::__ndk1::__variant_detail::_Trait)1>, std::__ndk1::__variant_detail::__base<(std::__ndk1::__variant_detail::__traits<geode::Hook*, std::__ndk1::basic_string<char, std::__ndk1::char_traits<char>, std::__ndk1::allocator<char> > >)1, geode::Hook, std::__ndk1::allocator<char> >&)
PUBLIC 31874 0 std::__ndk1::__variant_detail::__visitation::__base::__dispatcher<(unsigned long)1>::__dispatch[abi:ne180000]<std::__ndk1::__variant_detail::__dtor<std::__ndk1::__variant_detail::__traits<geode::Hook*, std::__ndk1::basic_string<char, std::__ndk1::char_traits<char>, std::__ndk1::allocator<char> > >, (std::__ndk1::__variant_detail::_Trait)1>::__destroy[abi:ne180000]()::{lambda(auto:1&)#1}, std::__ndk1::__variant_detail::__base<(std::__ndk1::__variant_detail::__traits<geode::Hook*, std::__ndk1::basic_string<char, std::__ndk1::char_traits<char>, std::__ndk1::allocator<char> > >)1, geode::Hook, std::__ndk1::allocator<char> >&>(std::__ndk1::__variant_detail::__dtor<std::__ndk1::__variant_detail::__traits<geode::Hook*, std::__ndk1::basic_string<char, std::__ndk1::char_traits<char>, std::__ndk1::allocator<char> > >, (std::__ndk1::__variant_detail::_Trait)1>, std::__ndk1::__variant_detail::__base<(std::__ndk1::__variant_detail::__traits<geode::Hook*, std::__ndk1::basic_string<char, std::__ndk1::char_traits<char>, std::__ndk1::allocator<char> > >)1, geode::Hook, std::__ndk1::allocator<char> >&)
PUBLIC 31888 0 std::__ndk1::__tree<std::__ndk1::__value_type<std::__ndk1::basic_string<char, std::__ndk1::char_traits<char>, std::__ndk1::allocator<char> >, std::__ndk1::shared_ptr<geode::Hook> >, std::__ndk1::__map_value_compare<std::__ndk1::basic_string<char, std::__ndk1::char_traits<char>, std::__ndk1::allocator<char> >, std::__ndk1::__value_type<std::__ndk1::basic_string<char, std::__ndk1::char_traits<char>, std::__ndk1::allocator<char> >, std::__ndk1::shared_ptr<geode::Hook> >, std::__ndk1::less<std::__ndk1::basic_string<char, std::__ndk1::char_traits<char>, std::__ndk1::allocator<char> > >, true>, std::__ndk1::allocator<std::__ndk1::__value_type<std::__ndk1::basic_string<char, std::__ndk1::char_traits<char>, std::__ndk1::allocator<char> >, std::__ndk1::shared_ptr<geode::Hook> > > >::find<std::__ndk1::basic_string<char, std::__ndk1::char_traits<char>, std::__ndk1::allocator<char> > >(std::__ndk1::basic_string<char, std::__ndk1::char_traits<char>, std::__ndk1::allocator<char> > const&)
PUBLIC 319a8 0 std::__ndk1::__tree<std::__ndk1::__value_type<std::__ndk1::basic_string<char, std::__ndk1::char_traits<char>, std::__ndk1::allocator<char> >, std::__ndk1::shared_ptr<geode::Hook> >, std::__ndk1::__map_value_compare<std::__ndk1::basic_string<char, std::__ndk1::char_traits<char>, std::__ndk1::allocator<char> >, std::__ndk1::__value_type<std::__ndk1::basic_string<char, std::__ndk1::char_traits<char>, std::__ndk1::allocator<char> >, std::__ndk1::shared_ptr<geode::Hook> >, std::__ndk1::less<std::__ndk1::basic_string<char, std::__ndk1::char_traits<char>, std::__ndk1::allocator<char> > >, true>, std::__ndk1::allocator<std::__ndk1::__value_type<std::__ndk1::basic_string<char, std::__ndk1::char_traits<char>, std::__ndk1::allocator<char> >, std::__ndk1::shared_ptr<geode::Hook> > > >::erase(std::__ndk1::__tree_const_iterator<std::__ndk1::__value_type<std::__ndk1::basic_string<char, std::__ndk1::char_traits<char>, std::__ndk1::allocator<char> >, std::__ndk1::shared_ptr<geode::Hook> >, std::__ndk1::__tree_node<std::__ndk1::__value_type<std::__ndk1::basic_string<char, std::__ndk1::char_traits<char>, std::__ndk1::allocator<char> >, std::__ndk1::shared_ptr<geode::Hook> >, void*>*, long>)
PUBLIC 31a7c 0 std::__ndk1::__tree_remove[abi:ne180000]<std::__ndk1::__tree_node_base<void*>*>(std::__ndk1::__tree_node_base<void*>*, std::__ndk1::__tree_node_base<void*>*)
PUBLIC 31e44 0 std::__ndk1::__tree<std::__ndk1::__value_type<std::__ndk1::basic_string<char, std::__ndk1::char_traits<char>, std::__ndk1::allocator<char> >, std::__ndk1::shared_ptr<geode::Hook> >, std::__ndk1::__map_value_compare<std::__ndk1::basic_string<char, std::__ndk1::char_traits<char>, std::__ndk1::allocator<char> >, std::__ndk1::__value_type<std::__ndk1::basic_string<char, std::__ndk1::char_traits<char>, std::__ndk1::allocator<char> >, std::__ndk1::shared_ptr<geode::Hook> >, std::__ndk1::less<std::__ndk1::basic_string<char, std::__ndk1::char_traits<char>, std::__ndk1::allocator<char> > >, true>, std::__ndk1::allocator<std::__ndk1::__value_type<std::__ndk1::basic_string<char, std::__ndk1::char_traits<char>, std::__ndk1::allocator<char> >, std::__ndk1::shared_ptr<geode::Hook> > > >::destroy(std::__ndk1::__tree_node<std::__ndk1::__value_type<std::__ndk1::basic_string<char, std::__ndk1::char_traits<char>, std::__ndk1::allocator<char> >, std::__ndk1::shared_ptr<geode::Hook> >, void*>*)
PUBLIC 31ed0 0 geode::modifier::AsStaticFunction_updateStroke<hook8<(anonymous namespace)::hook8Parent>, void (hook8<(anonymous namespace)::hook8Parent>::*)(float)>::Impl<void (hook8<(anonymous namespace)::hook8Parent>::*)(float)>::function(hook8<(anonymous namespace)::hook8Parent>*, float)
PUBLIC 3213c 0 std::__ndk1::shared_ptr<tulip::hook::CallingConvention>::~shared_ptr[abi:ne180000]()
PUBLIC 3218c 0 tulip::hook::HandlerMetadata::~HandlerMetadata()
PUBLIC 321f0 0 geode::Mod::getSettingValue<bool>(std::__ndk1::basic_string_view<char, std::__ndk1::char_traits<char> >) const
PUBLIC 32324 0 geode::cast::traverseTypeinfoFor(void*, geode::cast::ClassTypeinfoType const*, char const*)
PUBLIC 32428 0 geode::Mod::getSettingValue<double>(std::__ndk1::basic_string_view<char, std::__ndk1::char_traits<char> >) const
PUBLIC 32558 0 std::__ndk1::__tree<std::__ndk1::__value_type<std::__ndk1::basic_string<char, std::__ndk1::char_traits<char>, std::__ndk1::allocator<char> >, std::__ndk1::shared_ptr<geode::Hook> >, std::__ndk1::__map_value_compare<std::__ndk1::basic_string<char, std::__ndk1::char_traits<char>, std::__ndk1::allocator<char> >, std::__ndk1::__value_type<std::__ndk1::basic_string<char, std::__ndk1::char_traits<char>, std::__ndk1::allocator<char> >, std::__ndk1::shared_ptr<geode::Hook> >, std::__ndk1::less<std::__ndk1::basic_string<char, std::__ndk1::char_traits<char>, std::__ndk1::allocator<char> > >, true>, std::__ndk1::allocator<std::__ndk1::__value_type<std::__ndk1::basic_string<char, std::__ndk1::char_traits<char>, std::__ndk1::allocator<char> >, std::__ndk1::shared_ptr<geode::Hook> > > >::__emplace_unique_key_args<std::__ndk1::basic_string<char, std::__ndk1::char_traits<char>, std::__ndk1::allocator<char> >, std::__ndk1::piecewise_construct_t const&, std::__ndk1::tuple<std::__ndk1::basic_string<char, std::__ndk1::char_traits<char>, std::__ndk1::allocator<char> >&&>, std::__ndk1::tuple<> >(std::__ndk1::basic_string<char, std::__ndk1::char_traits<char>, std::__ndk1::allocator<char> > const&, std::__ndk1::piecewise_construct_t const&, std::__ndk1::tuple<std::__ndk1::basic_string<char, std::__ndk1::char_traits<char>, std::__ndk1::allocator<char> >&&>, std::__ndk1::tuple<>)
PUBLIC 326d0 0 std::__ndk1::__tree_balance_after_insert[abi:ne180000]<std::__ndk1::__tree_node_base<void*>*>(std::__ndk1::__tree_node_base<void*>*, std::__ndk1::__tree_node_base<void*>*)
PUBLIC 32880 0 geode::modifier::ModifyDerive<hook21<(anonymous namespace)::hook21Parent>, PlayLayer>::apply()
PUBLIC 32be0 0 geode::modifier::ModifyBase<geode::modifier::ModifyDerive<hook21<(anonymous namespace)::hook21Parent>, PlayLayer> >::apply()
PUBLIC 32be4 0 geode::modifier::AsStaticFunction_postUpdate<hook21<(anonymous namespace)::hook21Parent>, void (hook21<(anonymous namespace)::hook21Parent>::*)(float)>::Impl<void (hook21<(anonymous namespace)::hook21Parent>::*)(float)>::function(hook21<(anonymous namespace)::hook21Parent>*, float)
PUBLIC 32d6c 0 geode::addresser::Addresser::addressOfVirtual<void, PlayLayer, float>(void (PlayLayer::*)(float))
PUBLIC 32e58 0 PlayLayer::PlayLayer(geode::ZeroConstructorType)
PUBLIC 32efc 0 GJBaseGameLayer::GJBaseGameLayer(geode::ZeroConstructorType, unsigned long)
PUBLIC 336a8 0 GJGameState::GJGameState()
PUBLIC 33c20 0 geode::stl::unordered_map<int, int, geode::stl::hash<int>, geode::stl::equal_to<int>, std::__ndk1::allocator<std::__ndk1::pair<int const, int> > >::~unordered_map()
PUBLIC 33c98 0 geode::stl::unordered_set<int, geode::stl::hash<int>, geode::stl::equal_to<int>, std::__ndk1::allocator<int> >::~unordered_set()
PUBLIC 33d10 0 geode::stl::unordered_map<int, gd::string, geode::stl::hash<int>, geode::stl::equal_to<int>, std::__ndk1::allocator<std::__ndk1::pair<int const, gd::string> > >::~unordered_map()
PUBLIC 33d94 0 gd::map<std::__ndk1::pair<int, int>, int>::~map()
PUBLIC 33db0 0 geode::stl::unordered_map<int, gd::vector<LabelGameObject*>, geode::stl::hash<int>, geode::stl::equal_to<int>, std::__ndk1::allocator<std::__ndk1::pair<int const, gd::vector<LabelGameObject*> > > >::~unordered_map()
PUBLIC 33e3c 0 geode::stl::unordered_map<int, std::__ndk1::pair<int, int>, geode::stl::hash<int>, geode::stl::equal_to<int>, std::__ndk1::allocator<std::__ndk1::pair<int const, std::__ndk1::pair<int, int> > > >::~unordered_map()
PUBLIC 33eb4 0 geode::stl::unordered_map<int, gd::vector<GameObject*>, geode::stl::hash<int>, geode::stl::equal_to<int>, std::__ndk1::allocator<std::__ndk1::pair<int const, gd::vector<GameObject*> > > >::~unordered_map()
PUBLIC 33f40 0 geode::stl::unordered_map<int, cocos2d::CCPoint, geode::stl::hash<int>, geode::stl::equal_to<int>, std::__ndk1::allocator<std::__ndk1::pair<int const, cocos2d::CCPoint> > >::~unordered_map()
PUBLIC 33fb8 0 gd::vector<geode::stl::unordered_map<int, int, geode::stl::hash<int>, geode::stl::equal_to<int>, std::__ndk1::allocator<std::__ndk1::pair<int const, int> > > >::~vector()
PUBLIC 340bc 0 GJGameState::~GJGameState()
PUBLIC 344b4 0 geode::stl::unordered_map<int, SongChannelState, geode::stl::hash<int>, geode::stl::equal_to<int>, std::__ndk1::allocator<std::__ndk1::pair<int const, SongChannelState> > >::~unordered_map()
PUBLIC 3452c 0 gd::map<std::__ndk1::pair<int, int>, SFXTriggerInstance>::~map()
PUBLIC 34548 0 geode::stl::unordered_map<int, std::__ndk1::vector<int, std::__ndk1::allocator<int> >, geode::stl::hash<int>, geode::stl::equal_to<int>, std::__ndk1::allocator<std::__ndk1::pair<int const, std::__ndk1::vector<int, std::__ndk1::allocator<int> > > > >::~unordered_map()
PUBLIC 345d8 0 gd::vector<EnterEffectInstance>::~vector()
PUBLIC 34670 0 geode::stl::unordered_map<int, std::__ndk1::vector<EnterEffectInstance, std::__ndk1::allocator<EnterEffectInstance> >, geode::stl::hash<int>, geode::stl::equal_to<int>, std::__ndk1::allocator<std::__ndk1::pair<int const, std::__ndk1::vector<EnterEffectInstance, std::__ndk1::allocator<EnterEffectInstance> > > > >::~unordered_map()
PUBLIC 346ac 0 gd::map<std::__ndk1::pair<GJGameEvent, int>, int>::~map()
PUBLIC 346c8 0 gd::map<std::__ndk1::pair<GJGameEvent, int>, gd::vector<EventTriggerInstance> >::~map()
PUBLIC 346e4 0 geode::stl::unordered_map<int, EnhancedGameObject*, geode::stl::hash<int>, geode::stl::equal_to<int>, std::__ndk1::allocator<std::__ndk1::pair<int const, EnhancedGameObject*> > >::~unordered_map()
PUBLIC 3475c 0 geode::stl::unordered_map<int, GameObjectPhysics, geode::stl::hash<int>, geode::stl::equal_to<int>, std::__ndk1::allocator<std::__ndk1::pair<int const, GameObjectPhysics> > >::~unordered_map()
PUBLIC 347d4 0 geode::stl::unordered_map<int, GJValueTween, geode::stl::hash<int>, geode::stl::equal_to<int>, std::__ndk1::allocator<std::__ndk1::pair<int const, GJValueTween> > >::~unordered_map()
PUBLIC 3484c 0 geode::stl::unordered_map<int, bool, geode::stl::hash<int>, geode::stl::equal_to<int>, std::__ndk1::allocator<std::__ndk1::pair<int const, bool> > >::~unordered_map()
PUBLIC 348c4 0 gd::map<std::__ndk1::pair<GJGameEvent, int>, gd::vector<EventTriggerInstance> >::map(std::__ndk1::map<std::__ndk1::pair<GJGameEvent, int>, gd::vector<EventTriggerInstance>, std::__ndk1::less<std::__ndk1::pair<GJGameEvent, int> >, std::__ndk1::allocator<std::__ndk1::pair<std::__ndk1::pair<GJGameEvent, int> const, gd::vector<EventTriggerInstance> > > >)
PUBLIC 34a90 0 gd::map<std::__ndk1::pair<GJGameEvent, int>, gd::vector<EventTriggerInstance> >::insert_pair(std::__ndk1::pair<std::__ndk1::pair<GJGameEvent, int>, gd::vector<EventTriggerInstance> > const&)
PUBLIC 34d48 0 std::__ndk1::pair<std::__ndk1::pair<GJGameEvent, int>, gd::vector<EventTriggerInstance> >::~pair()
PUBLIC 34dc8 0 std::__ndk1::pair<std::__ndk1::pair<GJGameEvent, int> const, gd::vector<EventTriggerInstance> >::~pair()
PUBLIC 34e48 0 gd::vector<EventTriggerInstance>::vector(gd::vector<EventTriggerInstance> const&)
PUBLIC 34fe8 0 geode::stl::_rb_insert_rebalance(bool, geode::stl::_rb_tree_base*, geode::stl::_rb_tree_base*, geode::stl::_rb_tree_base&)
PUBLIC 352a0 0 gd::vector<EventTriggerInstance>::operator=(gd::vector<EventTriggerInstance> const&)
PUBLIC 3545c 0 gd::vector<EventTriggerInstance>::~vector()
PUBLIC 354dc 0 std::__ndk1::__tree<std::__ndk1::__value_type<std::__ndk1::pair<GJGameEvent, int>, gd::vector<EventTriggerInstance> >, std::__ndk1::__map_value_compare<std::__ndk1::pair<GJGameEvent, int>, std::__ndk1::__value_type<std::__ndk1::pair<GJGameEvent, int>, gd::vector<EventTriggerInstance> >, std::__ndk1::less<std::__ndk1::pair<GJGameEvent, int> >, true>, std::__ndk1::allocator<std::__ndk1::__value_type<std::__ndk1::pair<GJGameEvent, int>, gd::vector<EventTriggerInstance> > > >::destroy(std::__ndk1::__tree_node<std::__ndk1::__value_type<std::__ndk1::pair<GJGameEvent, int>, gd::vector<EventTriggerInstance> >, void*>*)
PUBLIC 35574 0 gd::map<std::__ndk1::pair<int, int>, SFXTriggerInstance>::erase(geode::stl::_rb_tree_node<std::__ndk1::pair<std::__ndk1::pair<int, int>, SFXTriggerInstance> >*)
PUBLIC 355c8 0 gd::map<int, EnterEffectAnimValue>::erase(geode::stl::_rb_tree_node<std::__ndk1::pair<int, EnterEffectAnimValue> >*)
PUBLIC 3561c 0 geode::stl::_Hashtable<int, std::__ndk1::pair<int const, std::__ndk1::vector<EnterEffectInstance, std::__ndk1::allocator<EnterEffectInstance> > >, std::__ndk1::allocator<std::__ndk1::pair<int const, std::__ndk1::vector<EnterEffectInstance, std::__ndk1::allocator<EnterEffectInstance> > > >, geode::stl::__detail::_Select1st, geode::stl::equal_to<int>, geode::stl::hash<int>, geode::stl::__detail::_Mod_range_hashing, geode::stl::__detail::_Default_ranged_hash, geode::stl::__detail::_Prime_rehash_policy, geode::stl::__detail::_Hashtable_traits<false, false, true> >::clear()
PUBLIC 356c4 0 gd::map<std::__ndk1::pair<GJGameEvent, int>, int>::erase(geode::stl::_rb_tree_node<std::__ndk1::pair<std::__ndk1::pair<GJGameEvent, int>, int> >*)
PUBLIC 35718 0 gd::map<std::__ndk1::pair<GJGameEvent, int>, gd::vector<EventTriggerInstance> >::erase(geode::stl::_rb_tree_node<std::__ndk1::pair<std::__ndk1::pair<GJGameEvent, int>, gd::vector<EventTriggerInstance> > >*)
PUBLIC 357c0 0 gd::map<std::__ndk1::pair<int, int>, int>::erase(geode::stl::_rb_tree_node<std::__ndk1::pair<std::__ndk1::pair<int, int>, int> >*)
PUBLIC 35814 0 __cxx_global_var_init
PUBLIC 35c50 0 __cxx_global_var_init.1
PUBLIC 3608c 0 geode::modifier::ModifyBase<geode::modifier::ModifyDerive<hook8<(anonymous namespace)::hook8Parent>, HardStreak> >::~ModifyBase()
PUBLIC 360a8 0 geode::modifier::ModifyBase<geode::modifier::ModifyDerive<hook18<(anonymous namespace)::hook18Parent>, PlayerObject> >::~ModifyBase()
PUBLIC 360c4 0 geode::modifier::ModifyDerive<hook8<(anonymous namespace)::hook8Parent>, HardStreak>::apply()
PUBLIC 36444 0 geode::modifier::ModifyBase<geode::modifier::ModifyDerive<hook8<(anonymous namespace)::hook8Parent>, HardStreak> >::apply()
PUBLIC 36448 0 geode::modifier::AsStaticFunction_updateStroke<hook8<(anonymous namespace)::hook8Parent>, void (hook8<(anonymous namespace)::hook8Parent>::*)(float)>::Impl<void (hook8<(anonymous namespace)::hook8Parent>::*)(float)>::function(hook8<(anonymous namespace)::hook8Parent>*, float)
PUBLIC 36554 0 geode::modifier::ModifyDerive<hook18<(anonymous namespace)::hook18Parent>, PlayerObject>::apply()
PUBLIC 36b4c 0 geode::modifier::ModifyBase<geode::modifier::ModifyDerive<hook18<(anonymous namespace)::hook18Parent>, PlayerObject> >::apply()
PUBLIC 36b50 0 geode::modifier::AsStaticFunction_update<hook18<(anonymous namespace)::hook18Parent>, void (hook18<(anonymous namespace)::hook18Parent>::*)(float)>::Impl<void (hook18<(anonymous namespace)::hook18Parent>::*)(float)>::function(hook18<(anonymous namespace)::hook18Parent>*, float)
PUBLIC 36c5c 0 geode::modifier::AsStaticFunction_placeStreakPoint<hook18<(anonymous namespace)::hook18Parent>, void (hook18<(anonymous namespace)::hook18Parent>::*)()>::Impl<void (hook18<(anonymous namespace)::hook18Parent>::*)()>::function(hook18<(anonymous namespace)::hook18Parent>*)
PUBLIC 36d88 0 geode::addresser::Addresser::addressOfVirtual<void, PlayerObject, float>(void (PlayerObject::*)(float))
PUBLIC 36e50 0 PlayerObject::PlayerObject(geode::ZeroConstructorType)
PUBLIC 37108 0 gd::map<int, bool>::~map()
PUBLIC 37124 0 geode::stl::unordered_map<int, GameObject*, geode::stl::hash<int>, geode::stl::equal_to<int>, std::__ndk1::allocator<std::__ndk1::pair<int const, GameObject*> > >::~unordered_map()
PUBLIC 3719c 0 geode::stl::unordered_map<int, GJPointDouble, geode::stl::hash<int>, geode::stl::equal_to<int>, std::__ndk1::allocator<std::__ndk1::pair<int const, GJPointDouble> > >::~unordered_map()
PUBLIC 37214 0 GameObject::~GameObject()
PUBLIC 37258 0 gd::map<int, bool>::erase(geode::stl::_rb_tree_node<std::__ndk1::pair<int, bool> >*)
PUBLIC 372ac 0 __cxx_global_var_init
PUBLIC 376e8 0 __cxx_global_var_init.1
PUBLIC 37b24 0 geode::modifier::ModifyBase<geode::modifier::ModifyDerive<hook9<(anonymous namespace)::hook9Parent>, PlayerObject> >::~ModifyBase()
PUBLIC 37b40 0 geode::modifier::ModifyBase<geode::modifier::ModifyDerive<hook23<(anonymous namespace)::hook23Parent>, HardStreak> >::~ModifyBase()
PUBLIC 37b5c 0 geode::modifier::ModifyDerive<hook9<(anonymous namespace)::hook9Parent>, PlayerObject>::apply()
PUBLIC 38174 0 geode::modifier::ModifyBase<geode::modifier::ModifyDerive<hook9<(anonymous namespace)::hook9Parent>, PlayerObject> >::apply()
PUBLIC 38178 0 geode::modifier::AsStaticFunction_createFadeOutDartStreak<hook9<(anonymous namespace)::hook9Parent>, void (hook9<(anonymous namespace)::hook9Parent>::*)()>::Impl<void (hook9<(anonymous namespace)::hook9Parent>::*)()>::function(hook9<(anonymous namespace)::hook9Parent>*)
PUBLIC 38274 0 geode::modifier::AsStaticFunction_fadeOutStreak2<hook9<(anonymous namespace)::hook9Parent>, void (hook9<(anonymous namespace)::hook9Parent>::*)(float)>::Impl<void (hook9<(anonymous namespace)::hook9Parent>::*)(float)>::function(hook9<(anonymous namespace)::hook9Parent>*, float)
PUBLIC 38380 0 geode::modifier::ModifyDerive<hook23<(anonymous namespace)::hook23Parent>, HardStreak>::apply()
PUBLIC 3896c 0 geode::modifier::ModifyBase<geode::modifier::ModifyDerive<hook23<(anonymous namespace)::hook23Parent>, HardStreak> >::apply()
PUBLIC 38970 0 geode::modifier::AsStaticFunction_stopStroke<hook23<(anonymous namespace)::hook23Parent>, void (hook23<(anonymous namespace)::hook23Parent>::*)()>::Impl<void (hook23<(anonymous namespace)::hook23Parent>::*)()>::function(hook23<(anonymous namespace)::hook23Parent>*)
PUBLIC 38a6c 0 geode::modifier::AsStaticFunction_updateStroke<hook23<(anonymous namespace)::hook23Parent>, void (hook23<(anonymous namespace)::hook23Parent>::*)(float)>::Impl<void (hook23<(anonymous namespace)::hook23Parent>::*)(float)>::function(hook23<(anonymous namespace)::hook23Parent>*, float)
PUBLIC 38b6c 0 RainbowTrail::get_gradient(float, float, bool, ColorList const&)
PUBLIC 38d90 0 __cxx_global_var_init
PUBLIC 391cc 0 geode::modifier::ModifyBase<geode::modifier::ModifyDerive<hook66<(anonymous namespace)::hook66Parent>, PlayLayer> >::~ModifyBase()
PUBLIC 391e8 0 geode::modifier::ModifyDerive<hook66<(anonymous namespace)::hook66Parent>, PlayLayer>::apply()
PUBLIC 39548 0 geode::modifier::ModifyBase<geode::modifier::ModifyDerive<hook66<(anonymous namespace)::hook66Parent>, PlayLayer> >::apply()
PUBLIC 3954c 0 geode::modifier::AsStaticFunction_postUpdate<hook66<(anonymous namespace)::hook66Parent>, void (hook66<(anonymous namespace)::hook66Parent>::*)(float)>::Impl<void (hook66<(anonymous namespace)::hook66Parent>::*)(float)>::function(hook66<(anonymous namespace)::hook66Parent>*, float)
PUBLIC 39ee8 0 __cxx_global_var_init
PUBLIC 3a324 0 __cxx_global_var_init.1
PUBLIC 3a760 0 geode::modifier::ModifyBase<geode::modifier::ModifyDerive<hook10<(anonymous namespace)::hook10Parent>, cocos2d::CCDrawNode> >::~ModifyBase()
PUBLIC 3a77c 0 geode::modifier::ModifyBase<geode::modifier::ModifyDerive<hook29<(anonymous namespace)::hook29Parent>, HardStreak> >::~ModifyBase()
PUBLIC 3a798 0 geode::modifier::ModifyDerive<hook10<(anonymous namespace)::hook10Parent>, cocos2d::CCDrawNode>::apply()
PUBLIC 3abac 0 geode::modifier::ModifyBase<geode::modifier::ModifyDerive<hook10<(anonymous namespace)::hook10Parent>, cocos2d::CCDrawNode> >::apply()
PUBLIC 3abb0 0 geode::modifier::AsStaticFunction_drawPolygon<hook10<(anonymous namespace)::hook10Parent>, bool (hook10<(anonymous namespace)::hook10Parent>::*)(cocos2d::CCPoint*, unsigned int, cocos2d::_ccColor4F const&, float, cocos2d::_ccColor4F const&)>::Impl<bool (hook10<(anonymous namespace)::hook10Parent>::*)(cocos2d::CCPoint*, unsigned int, cocos2d::_ccColor4F const&, float, cocos2d::_ccColor4F const&)>::function(hook10<(anonymous namespace)::hook10Parent>*, cocos2d::CCPoint*, unsigned int, cocos2d::_ccColor4F const&, float, cocos2d::_ccColor4F const&)
PUBLIC 3add0 0 geode::modifier::ModifyDerive<hook29<(anonymous namespace)::hook29Parent>, HardStreak>::apply()
PUBLIC 3b150 0 geode::modifier::ModifyBase<geode::modifier::ModifyDerive<hook29<(anonymous namespace)::hook29Parent>, HardStreak> >::apply()
PUBLIC 3b154 0 geode::modifier::AsStaticFunction_updateStroke<hook29<(anonymous namespace)::hook29Parent>, void (hook29<(anonymous namespace)::hook29Parent>::*)(float)>::Impl<void (hook29<(anonymous namespace)::hook29Parent>::*)(float)>::function(hook29<(anonymous namespace)::hook29Parent>*, float)
PUBLIC 3b238 0 __cxx_global_var_init
PUBLIC 3b674 0 geode::modifier::ModifyBase<geode::modifier::ModifyDerive<hook8<(anonymous namespace)::hook8Parent>, PlayLayer> >::~ModifyBase()
PUBLIC 3b690 0 geode::modifier::ModifyDerive<hook8<(anonymous namespace)::hook8Parent>, PlayLayer>::apply()
PUBLIC 3b9f0 0 geode::modifier::ModifyBase<geode::modifier::ModifyDerive<hook8<(anonymous namespace)::hook8Parent>, PlayLayer> >::apply()
PUBLIC 3b9f4 0 geode::modifier::AsStaticFunction_postUpdate<hook8<(anonymous namespace)::hook8Parent>, void (hook8<(anonymous namespace)::hook8Parent>::*)(float)>::Impl<void (hook8<(anonymous namespace)::hook8Parent>::*)(float)>::function(hook8<(anonymous namespace)::hook8Parent>*, float)
PUBLIC 3bc1c 0 geode::Mod::getSettingValue<float>(std::__ndk1::basic_string_view<char, std::__ndk1::char_traits<char> >) const
PUBLIC 3bd50 0 __cxx_global_var_init
PUBLIC 3c18c 0 geode::modifier::ModifyBase<geode::modifier::ModifyDerive<hook6<(anonymous namespace)::hook6Parent>, HardStreak> >::~ModifyBase()
PUBLIC 3c1a8 0 geode::modifier::ModifyDerive<hook6<(anonymous namespace)::hook6Parent>, HardStreak>::apply()
PUBLIC 3c514 0 geode::modifier::ModifyBase<geode::modifier::ModifyDerive<hook6<(anonymous namespace)::hook6Parent>, HardStreak> >::apply()
PUBLIC 3c518 0 geode::modifier::AsStaticFunction_addPoint<hook6<(anonymous namespace)::hook6Parent>, void (hook6<(anonymous namespace)::hook6Parent>::*)(cocos2d::CCPoint)>::Impl<void (hook6<(anonymous namespace)::hook6Parent>::*)(cocos2d::CCPoint)>::function(hook6<(anonymous namespace)::hook6Parent>*, cocos2d::CCPoint)
PUBLIC 3c7bc 0 ColorCell::init(ColorListPopup*, ColorEntry*, std::__ndk1::function<void ()>, cocos2d::CCSize const&)
PUBLIC 3ce6c 0 ColorCell::on_toggle(cocos2d::CCObject*)
PUBLIC 3ceb0 0 ColorCell::on_delete(cocos2d::CCObject*)
PUBLIC 3ced0 0 ColorCell::create(ColorListPopup*, ColorEntry*, std::__ndk1::function<void ()>, cocos2d::CCSize const&)
PUBLIC 3d098 0 ColorCell::~ColorCell()
PUBLIC 3d0f4 0 ColorCell::~ColorCell()
PUBLIC 3d158 0 std::__ndk1::__function::__base<void (std::__ndk1::basic_string<char, std::__ndk1::char_traits<char>, std::__ndk1::allocator<char> > const&)>::~__base()
PUBLIC 3d15c 0 std::__ndk1::__function::__func<ColorCell::init(ColorListPopup*, ColorEntry*, std::__ndk1::function<void ()>, cocos2d::CCSize const&)::$_0, std::__ndk1::allocator<ColorCell::init(ColorListPopup*, ColorEntry*, std::__ndk1::function<void ()>, cocos2d::CCSize const&)::$_0>, void (std::__ndk1::basic_string<char, std::__ndk1::char_traits<char>, std::__ndk1::allocator<char> > const&)>::~__func()
PUBLIC 3d160 0 std::__ndk1::__function::__func<ColorCell::init(ColorListPopup*, ColorEntry*, std::__ndk1::function<void ()>, cocos2d::CCSize const&)::$_0, std::__ndk1::allocator<ColorCell::init(ColorListPopup*, ColorEntry*, std::__ndk1::function<void ()>, cocos2d::CCSize const&)::$_0>, void (std::__ndk1::basic_string<char, std::__ndk1::char_traits<char>, std::__ndk1::allocator<char> > const&)>::__clone() const
PUBLIC 3d194 0 std::__ndk1::__function::__func<ColorCell::init(ColorListPopup*, ColorEntry*, std::__ndk1::function<void ()>, cocos2d::CCSize const&)::$_0, std::__ndk1::allocator<ColorCell::init(ColorListPopup*, ColorEntry*, std::__ndk1::function<void ()>, cocos2d::CCSize const&)::$_0>, void (std::__ndk1::basic_string<char, std::__ndk1::char_traits<char>, std::__ndk1::allocator<char> > const&)>::__clone(std::__ndk1::__function::__base<void (std::__ndk1::basic_string<char, std::__ndk1::char_traits<char>, std::__ndk1::allocator<char> > const&)>*) const
PUBLIC 3d1a8 0 std::__ndk1::__function::__func<ColorCell::init(ColorListPopup*, ColorEntry*, std::__ndk1::function<void ()>, cocos2d::CCSize const&)::$_0, std::__ndk1::allocator<ColorCell::init(ColorListPopup*, ColorEntry*, std::__ndk1::function<void ()>, cocos2d::CCSize const&)::$_0>, void (std::__ndk1::basic_string<char, std::__ndk1::char_traits<char>, std::__ndk1::allocator<char> > const&)>::destroy()
PUBLIC 3d1ac 0 std::__ndk1::__function::__func<ColorCell::init(ColorListPopup*, ColorEntry*, std::__ndk1::function<void ()>, cocos2d::CCSize const&)::$_0, std::__ndk1::allocator<ColorCell::init(ColorListPopup*, ColorEntry*, std::__ndk1::function<void ()>, cocos2d::CCSize const&)::$_0>, void (std::__ndk1::basic_string<char, std::__ndk1::char_traits<char>, std::__ndk1::allocator<char> > const&)>::destroy_deallocate()
PUBLIC 3d1b0 0 std::__ndk1::__function::__func<ColorCell::init(ColorListPopup*, ColorEntry*, std::__ndk1::function<void ()>, cocos2d::CCSize const&)::$_0, std::__ndk1::allocator<ColorCell::init(ColorListPopup*, ColorEntry*, std::__ndk1::function<void ()>, cocos2d::CCSize const&)::$_0>, void (std::__ndk1::basic_string<char, std::__ndk1::char_traits<char>, std::__ndk1::allocator<char> > const&)>::operator()(std::__ndk1::basic_string<char, std::__ndk1::char_traits<char>, std::__ndk1::allocator<char> > const&)
PUBLIC 3d208 0 std::__ndk1::__function::__func<ColorCell::init(ColorListPopup*, ColorEntry*, std::__ndk1::function<void ()>, cocos2d::CCSize const&)::$_0, std::__ndk1::allocator<ColorCell::init(ColorListPopup*, ColorEntry*, std::__ndk1::function<void ()>, cocos2d::CCSize const&)::$_0>, void (std::__ndk1::basic_string<char, std::__ndk1::char_traits<char>, std::__ndk1::allocator<char> > const&)>::target(std::type_info const&) const
PUBLIC 3d224 0 std::__ndk1::__function::__func<ColorCell::init(ColorListPopup*, ColorEntry*, std::__ndk1::function<void ()>, cocos2d::CCSize const&)::$_0, std::__ndk1::allocator<ColorCell::init(ColorListPopup*, ColorEntry*, std::__ndk1::function<void ()>, cocos2d::CCSize const&)::$_0>, void (std::__ndk1::basic_string<char, std::__ndk1::char_traits<char>, std::__ndk1::allocator<char> > const&)>::target_type() const
PUBLIC 3d230 0 std::__ndk1::__throw_bad_function_call[abi:ne180000]()
PUBLIC 3d264 0 std::__ndk1::bad_function_call::~bad_function_call()
PUBLIC 3d288 0 ColorListPopup::setup(std::__ndk1::vector<ColorEntry, std::__ndk1::allocator<ColorEntry> >, std::__ndk1::function<void (std::__ndk1::vector<ColorEntry, std::__ndk1::allocator<ColorEntry> >)>)
PUBLIC 3d5b4 0 ColorListPopup::create_list()
PUBLIC 3d860 0 ColorListPopup::onAdd(cocos2d::CCObject*)
PUBLIC 3dab8 0 ColorListPopup::onClose(cocos2d::CCObject*)
PUBLIC 3dbc8 0 geode::Popup<std::__ndk1::vector<ColorEntry, std::__ndk1::allocator<ColorEntry> >, std::__ndk1::function<void (std::__ndk1::vector<ColorEntry, std::__ndk1::allocator<ColorEntry> >)> >::onClose(cocos2d::CCObject*)
PUBLIC 3dd10 0 ColorListPopup::create(std::__ndk1::vector<ColorEntry, std::__ndk1::allocator<ColorEntry> >, std::__ndk1::function<void (std::__ndk1::vector<ColorEntry, std::__ndk1::allocator<ColorEntry> >)> const&)
PUBLIC 3e3f4 0 ColorListPopup::~ColorListPopup()
PUBLIC 3e528 0 ColorListPopup::~ColorListPopup()
PUBLIC 3e54c 0 geode::Popup<std::__ndk1::vector<ColorEntry, std::__ndk1::allocator<ColorEntry> >, std::__ndk1::function<void (std::__ndk1::vector<ColorEntry, std::__ndk1::allocator<ColorEntry> >)> >::registerWithTouchDispatcher()
PUBLIC 3e578 0 geode::Popup<std::__ndk1::vector<ColorEntry, std::__ndk1::allocator<ColorEntry> >, std::__ndk1::function<void (std::__ndk1::vector<ColorEntry, std::__ndk1::allocator<ColorEntry> >)> >::keyDown(cocos2d::enumKeyCodes)
PUBLIC 3e5a0 0 cocos2d::CCLayerRGBA::setOpacityModifyRGB(bool)
PUBLIC 3e5a4 0 cocos2d::CCLayerRGBA::isOpacityModifyRGB()
PUBLIC 3e5ac 0 {virtual override thunk({offset(-320)}, ColorListPopup::~ColorListPopup())}
PUBLIC 3e5b4 0 {virtual override thunk({offset(-320)}, ColorListPopup::~ColorListPopup())}
PUBLIC 3e5dc 0 {virtual override thunk({offset(-344)}, geode::Popup<std::__ndk1::vector<ColorEntry, std::__ndk1::allocator<ColorEntry> >, std::__ndk1::function<void (std::__ndk1::vector<ColorEntry, std::__ndk1::allocator<ColorEntry> >)> >::keyDown(cocos2d::enumKeyCodes))}
PUBLIC 3e608 0 cocos2d::CCKeyboardDelegate::keyUp(cocos2d::enumKeyCodes)
PUBLIC 3e60c 0 cocos2d::CCMouseDelegate::rightKeyDown()
PUBLIC 3e610 0 cocos2d::CCMouseDelegate::rightKeyUp()
PUBLIC 3e614 0 cocos2d::CCMouseDelegate::scrollWheel(float, float)
PUBLIC 3e618 0 {virtual override thunk({offset(-408)}, cocos2d::CCLayerRGBA::setOpacityModifyRGB(bool))}
PUBLIC 3e61c 0 {virtual override thunk({offset(-408)}, cocos2d::CCLayerRGBA::isOpacityModifyRGB())}
PUBLIC 3e624 0 geode::ColorPickPopupDelegate::updateColor(cocos2d::_ccColor4B const&)
PUBLIC 3e628 0 geode::Popup<std::__ndk1::vector<ColorEntry, std::__ndk1::allocator<ColorEntry> >, std::__ndk1::function<void (std::__ndk1::vector<ColorEntry, std::__ndk1::allocator<ColorEntry> >)> >::~Popup()
PUBLIC 3e694 0 geode::Popup<std::__ndk1::vector<ColorEntry, std::__ndk1::allocator<ColorEntry> >, std::__ndk1::function<void (std::__ndk1::vector<ColorEntry, std::__ndk1::allocator<ColorEntry> >)> >::~Popup()
PUBLIC 3e698 0 {virtual override thunk({offset(-320)}, geode::Popup<std::__ndk1::vector<ColorEntry, std::__ndk1::allocator<ColorEntry> >, std::__ndk1::function<void (std::__ndk1::vector<ColorEntry, std::__ndk1::allocator<ColorEntry> >)> >::~Popup())}
PUBLIC 3e704 0 {virtual override thunk({offset(-320)}, geode::Popup<std::__ndk1::vector<ColorEntry, std::__ndk1::allocator<ColorEntry> >, std::__ndk1::function<void (std::__ndk1::vector<ColorEntry, std::__ndk1::allocator<ColorEntry> >)> >::~Popup())}
PUBLIC 3e708 0 std::__ndk1::__function::__base<void ()>::~__base()
PUBLIC 3e70c 0 std::__ndk1::__function::__func<ColorListPopup::create_list()::$_0, std::__ndk1::allocator<ColorListPopup::create_list()::$_0>, void ()>::~__func()
PUBLIC 3e710 0 std::__ndk1::__function::__func<ColorListPopup::create_list()::$_0, std::__ndk1::allocator<ColorListPopup::create_list()::$_0>, void ()>::__clone() const
PUBLIC 3e748 0 std::__ndk1::__function::__func<ColorListPopup::create_list()::$_0, std::__ndk1::allocator<ColorListPopup::create_list()::$_0>, void ()>::__clone(std::__ndk1::__function::__base<void ()>*) const
PUBLIC 3e760 0 std::__ndk1::__function::__func<ColorListPopup::create_list()::$_0, std::__ndk1::allocator<ColorListPopup::create_list()::$_0>, void ()>::destroy()
PUBLIC 3e764 0 std::__ndk1::__function::__func<ColorListPopup::create_list()::$_0, std::__ndk1::allocator<ColorListPopup::create_list()::$_0>, void ()>::destroy_deallocate()
PUBLIC 3e768 0 std::__ndk1::__function::__func<ColorListPopup::create_list()::$_0, std::__ndk1::allocator<ColorListPopup::create_list()::$_0>, void ()>::operator()()
PUBLIC 3e878 0 std::__ndk1::__function::__func<ColorListPopup::create_list()::$_0, std::__ndk1::allocator<ColorListPopup::create_list()::$_0>, void ()>::target(std::type_info const&) const
PUBLIC 3e894 0 std::__ndk1::__function::__func<ColorListPopup::create_list()::$_0, std::__ndk1::allocator<ColorListPopup::create_list()::$_0>, void ()>::target_type() const
PUBLIC 3e8a0 0 geode::Popup<std::__ndk1::vector<ColorEntry, std::__ndk1::allocator<ColorEntry> >, std::__ndk1::function<void (std::__ndk1::vector<ColorEntry, std::__ndk1::allocator<ColorEntry> >)> >::CloseEvent::~CloseEvent()
PUBLIC 3e900 0 geode::Popup<std::__ndk1::vector<ColorEntry, std::__ndk1::allocator<ColorEntry> >, std::__ndk1::function<void (std::__ndk1::vector<ColorEntry, std::__ndk1::allocator<ColorEntry> >)> >::CloseEvent::~CloseEvent()
PUBLIC 3e970 0 std::__ndk1::__shared_ptr_emplace<geode::Popup<std::__ndk1::vector<ColorEntry, std::__ndk1::allocator<ColorEntry> >, std::__ndk1::function<void (std::__ndk1::vector<ColorEntry, std::__ndk1::allocator<ColorEntry> >)> >::CloseEvent::Impl, std::__ndk1::allocator<geode::Popup<std::__ndk1::vector<ColorEntry, std::__ndk1::allocator<ColorEntry> >, std::__ndk1::function<void (std::__ndk1::vector<ColorEntry, std::__ndk1::allocator<ColorEntry> >)> >::CloseEvent::Impl> >::~__shared_ptr_emplace()
PUBLIC 3e980 0 std::__ndk1::__shared_ptr_emplace<geode::Popup<std::__ndk1::vector<ColorEntry, std::__ndk1::allocator<ColorEntry> >, std::__ndk1::function<void (std::__ndk1::vector<ColorEntry, std::__ndk1::allocator<ColorEntry> >)> >::CloseEvent::Impl, std::__ndk1::allocator<geode::Popup<std::__ndk1::vector<ColorEntry, std::__ndk1::allocator<ColorEntry> >, std::__ndk1::function<void (std::__ndk1::vector<ColorEntry, std::__ndk1::allocator<ColorEntry> >)> >::CloseEvent::Impl> >::~__shared_ptr_emplace()
PUBLIC 3e9b0 0 std::__ndk1::__shared_ptr_emplace<geode::Popup<std::__ndk1::vector<ColorEntry, std::__ndk1::allocator<ColorEntry> >, std::__ndk1::function<void (std::__ndk1::vector<ColorEntry, std::__ndk1::allocator<ColorEntry> >)> >::CloseEvent::Impl, std::__ndk1::allocator<geode::Popup<std::__ndk1::vector<ColorEntry, std::__ndk1::allocator<ColorEntry> >, std::__ndk1::function<void (std::__ndk1::vector<ColorEntry, std::__ndk1::allocator<ColorEntry> >)> >::CloseEvent::Impl> >::__on_zero_shared()
PUBLIC 3e9b4 0 std::__ndk1::__shared_ptr_emplace<geode::Popup<std::__ndk1::vector<ColorEntry, std::__ndk1::allocator<ColorEntry> >, std::__ndk1::function<void (std::__ndk1::vector<ColorEntry, std::__ndk1::allocator<ColorEntry> >)> >::CloseEvent::Impl, std::__ndk1::allocator<geode::Popup<std::__ndk1::vector<ColorEntry, std::__ndk1::allocator<ColorEntry> >, std::__ndk1::function<void (std::__ndk1::vector<ColorEntry, std::__ndk1::allocator<ColorEntry> >)> >::CloseEvent::Impl> >::__on_zero_shared_weak()
PUBLIC 3e9b8 0 __cxx_global_var_init
PUBLIC 3ee38 0 geode::modifier::ModifyBase<geode::modifier::ModifyDerive<GayPauseLayer, PauseLayer> >::~ModifyBase()
PUBLIC 3ee54 0 geode::modifier::ModifyDerive<GayPauseLayer, PauseLayer>::apply()
PUBLIC 3f184 0 geode::modifier::ModifyBase<geode::modifier::ModifyDerive<GayPauseLayer, PauseLayer> >::apply()
PUBLIC 3f188 0 geode::modifier::AsStaticFunction_customSetup<GayPauseLayer, void (GayPauseLayer::*)()>::Impl<void (GayPauseLayer::*)()>::function(GayPauseLayer*)
PUBLIC 3f450 0 geode::addresser::Addresser::addressOfVirtual<void, PauseLayer, >(void (PauseLayer::*)())
PUBLIC 3f4f8 0 PauseLayer::PauseLayer(geode::ZeroConstructorType)
PUBLIC 3f584 0 GayPauseLayer::onGaySettings(cocos2d::CCObject*)
PUBLIC 3f5c8 0 gay::utils::hex_code::HexUtils::hex_to_rgb(std::__ndk1::basic_string<char, std::__ndk1::char_traits<char>, std::__ndk1::allocator<char> > const&)
PUBLIC 3fc88 0 std::__ndk1::basic_string<char, std::__ndk1::char_traits<char>, std::__ndk1::allocator<char> >::__throw_out_of_range[abi:ne180000]() const
PUBLIC 3fc94 0 std::__ndk1::__throw_out_of_range[abi:ne180000](char const*)
PUBLIC 3fce4 0 std::out_of_range::out_of_range[abi:ne180000](char const*)
PUBLIC 3fd14 0 std::__ndk1::__variant_detail::__visitation::__base::__dispatcher<(unsigned long)0>::__dispatch[abi:ne180000]<std::__ndk1::__variant_detail::__dtor<std::__ndk1::__variant_detail::__traits<int, std::__ndk1::basic_string<char, std::__ndk1::char_traits<char>, std::__ndk1::allocator<char> > >, (std::__ndk1::__variant_detail::_Trait)1>::__destroy[abi:ne180000]()::{lambda(auto:1&)#1}, std::__ndk1::__variant_detail::__base<(std::__ndk1::__variant_detail::__traits<int, std::__ndk1::basic_string<char, std::__ndk1::char_traits<char>, std::__ndk1::allocator<char> > >)1, int, std::__ndk1::allocator<char> >&>(std::__ndk1::__variant_detail::__dtor<std::__ndk1::__variant_detail::__traits<int, std::__ndk1::basic_string<char, std::__ndk1::char_traits<char>, std::__ndk1::allocator<char> > >, (std::__ndk1::__variant_detail::_Trait)1>, std::__ndk1::__variant_detail::__base<(std::__ndk1::__variant_detail::__traits<int, std::__ndk1::basic_string<char, std::__ndk1::char_traits<char>, std::__ndk1::allocator<char> > >)1, int, std::__ndk1::allocator<char> >&)
PUBLIC 3fd18 0 std::__ndk1::__variant_detail::__visitation::__base::__dispatcher<(unsigned long)1>::__dispatch[abi:ne180000]<std::__ndk1::__variant_detail::__dtor<std::__ndk1::__variant_detail::__traits<int, std::__ndk1::basic_string<char, std::__ndk1::char_traits<char>, std::__ndk1::allocator<char> > >, (std::__ndk1::__variant_detail::_Trait)1>::__destroy[abi:ne180000]()::{lambda(auto:1&)#1}, std::__ndk1::__variant_detail::__base<(std::__ndk1::__variant_detail::__traits<int, std::__ndk1::basic_string<char, std::__ndk1::char_traits<char>, std::__ndk1::allocator<char> > >)1, int, std::__ndk1::allocator<char> >&>(std::__ndk1::__variant_detail::__dtor<std::__ndk1::__variant_detail::__traits<int, std::__ndk1::basic_string<char, std::__ndk1::char_traits<char>, std::__ndk1::allocator<char> > >, (std::__ndk1::__variant_detail::_Trait)1>, std::__ndk1::__variant_detail::__base<(std::__ndk1::__variant_detail::__traits<int, std::__ndk1::basic_string<char, std::__ndk1::char_traits<char>, std::__ndk1::allocator<char> > >)1, int, std::__ndk1::allocator<char> >&)
PUBLIC m 3fd2c 0 geodeImplicitEntry
PUBLIC 3fd68 0 std::__ndk1::unordered_map<void*, bool, std::__ndk1::hash<void*>, std::__ndk1::equal_to<void*>, std::__ndk1::allocator<std::__ndk1::pair<void* const, bool> > >::~unordered_map[abi:ne180000]()
PUBLIC 3fdb4 0 wrapFunction(unsigned long, tulip::hook::WrapperMetadata const&)
PUBLIC 3fee8 0 geode::impl::ResultData<void*, std::__ndk1::basic_string<char, std::__ndk1::char_traits<char>, std::__ndk1::allocator<char> > >::unwrapErr() &
PUBLIC 3ff60 0 geode::impl::ResultData<void*, std::__ndk1::basic_string<char, std::__ndk1::char_traits<char>, std::__ndk1::allocator<char> > >::~ResultData()
PUBLIC 3ffd4 0 tulip::hook::WrapperMetadata::~WrapperMetadata()
PUBLIC 40038 0 cocos2d::CCObject::~CCObject()
PUBLIC 4005c 0 cocos2d::CCNode::CCNode()
PUBLIC 402b8 0 cocos2d::CCNode::~CCNode()
PUBLIC 402dc 0 cocos2d::CCNodeRGBA::~CCNodeRGBA()
PUBLIC 40300 0 {virtual override thunk({offset(-320)}, cocos2d::CCLayer::~CCLayer())}
PUBLIC 40308 0 cocos2d::CCLayer::~CCLayer()
PUBLIC 4032c 0 {virtual override thunk({offset(-320)}, cocos2d::CCLayer::~CCLayer())}
PUBLIC 40354 0 cocos2d::CCLayerRGBA::~CCLayerRGBA()
PUBLIC 40654 0 {virtual override thunk({offset(-320)}, cocos2d::CCLayerRGBA::~CCLayerRGBA())}
PUBLIC 4065c 0 cocos2d::CCLayerRGBA::~CCLayerRGBA()
PUBLIC 40680 0 {virtual override thunk({offset(-320)}, cocos2d::CCLayerRGBA::~CCLayerRGBA())}
PUBLIC 406a8 0 cocos2d::CCLayerColor::CCLayerColor()
PUBLIC 4090c 0 {virtual override thunk({offset(-320)}, cocos2d::CCLayerColor::~CCLayerColor())}
PUBLIC 40914 0 cocos2d::CCLayerColor::~CCLayerColor()
PUBLIC 40938 0 {virtual override thunk({offset(-320)}, cocos2d::CCLayerColor::~CCLayerColor())}
PUBLIC 40960 0 cocos2d::CCSprite::~CCSprite()
PUBLIC 40984 0 {virtual override thunk({offset(-320)}, FLAlertLayer::~FLAlertLayer())}
PUBLIC 4098c 0 FLAlertLayer::~FLAlertLayer()
PUBLIC 409b0 0 {virtual override thunk({offset(-320)}, FLAlertLayer::~FLAlertLayer())}
PUBLIC 409d8 0 cocos2d::CCNodeRGBA::~CCNodeRGBA()
PUBLIC 40c90 0 GameObject::update(float)
PUBLIC 40c94 0 GameObject::firstSetup()
PUBLIC 40c98 0 GameObject::setupCustomSprites(gd::string)
PUBLIC 40dfc 0 tulip::hook::AbstractFunction::from<void, GameObject*, gd::string>(void (*)(GameObject*, gd::string))
PUBLIC 40ea0 0 GameObject::triggerObject(GJBaseGameLayer*, int, gd::vector<int> const*)
PUBLIC 40ea4 0 GameObject::customObjectSetup(gd::vector<gd::string>&, gd::vector<void*>&)
PUBLIC 40ea8 0 GameObject::particleWasActivated()
PUBLIC 40eac 0 GameObject::triggerActivated(float)
PUBLIC 40eb0 0 GameObject::animationTriggered()
PUBLIC 40eb4 0 GameObject::activatedByPlayer(PlayerObject*)
PUBLIC 40eb8 0 GameObject::hasBeenActivatedByPlayer(PlayerObject*)
PUBLIC 40ec0 0 GameObject::hasBeenActivated()
PUBLIC 40ec8 0 GameObject::canAllowMultiActivate()
PUBLIC 40ed0 0 GameObject::blendModeChanged()
PUBLIC 40ed4 0 GameObject::updateMainParticleOpacity(unsigned char)
PUBLIC 40ed8 0 GameObject::updateSecondaryParticleOpacity(unsigned char)
PUBLIC 40edc 0 GameObject::canReverse()
PUBLIC 40ee4 0 GameObject::isSpecialSpawnObject()
PUBLIC 40eec 0 GameObject::canBeOrdered()
PUBLIC 40ef4 0 GameObject::getObjectLabel()
PUBLIC 40efc 0 GameObject::setObjectLabel(cocos2d::CCLabelBMFont*)
PUBLIC 40f00 0 GameObject::shouldDrawEditorHitbox()
PUBLIC 40f08 0 GameObject::getHasSyncedAnimation()
PUBLIC 40f10 0 GameObject::getHasRotateAction()
PUBLIC 40f18 0 GameObject::canMultiActivate(bool)
PUBLIC 40f20 0 GameObject::updateTextKerning(int)
PUBLIC 40f24 0 GameObject::getTextKerning()
PUBLIC 40f2c 0 CCMenuItemToggler::createWithStandardSprites(cocos2d::CCObject*, void (cocos2d::CCObject::*)(cocos2d::CCObject*), float)
PUBLIC 41124 0 cocos2d::CCSprite::~CCSprite()
PUBLIC 413e4 0 GJBaseGameLayer::~GJBaseGameLayer()
PUBLIC 41c20 0 GJBaseGameLayer::GJBaseGameLayer(geode::CutoffConstructorType, unsigned long)
PUBLIC 423d0 0 {virtual override thunk({offset(-320)}, GJBaseGameLayer::~GJBaseGameLayer())}
PUBLIC 423d8 0 GJBaseGameLayer::~GJBaseGameLayer()
PUBLIC 423fc 0 {virtual override thunk({offset(-320)}, GJBaseGameLayer::~GJBaseGameLayer())}
PUBLIC 42424 0 GJBaseGameLayer::toggleGroupTriggered(int, bool, gd::vector<int> const&, int, int)
PUBLIC 42590 0 tulip::hook::AbstractFunction::from<void, GJBaseGameLayer*, int, bool, gd::vector<int> const&, int, int>(void (*)(GJBaseGameLayer*, int, bool, gd::vector<int> const&, int, int))
PUBLIC 42704 0 {virtual override thunk({offset(-408)}, GJBaseGameLayer::toggleGroupTriggered(int, bool, gd::vector<int> const&, int, int))}
PUBLIC 4270c 0 GJBaseGameLayer::spawnGroup(int, bool, double, gd::vector<int> const&, int, int)
PUBLIC 42888 0 tulip::hook::AbstractFunction::from<void, GJBaseGameLayer*, int, bool, double, gd::vector<int> const&, int, int>(void (*)(GJBaseGameLayer*, int, bool, double, gd::vector<int> const&, int, int))
PUBLIC 42a00 0 {virtual override thunk({offset(-408)}, GJBaseGameLayer::spawnGroup(int, bool, double, gd::vector<int> const&, int, int))}
PUBLIC 42a08 0 GJBaseGameLayer::spawnObject(GameObject*, double, gd::vector<int> const&)
PUBLIC 42b64 0 tulip::hook::AbstractFunction::from<void, GJBaseGameLayer*, GameObject*, double, gd::vector<int> const&>(void (*)(GJBaseGameLayer*, GameObject*, double, gd::vector<int> const&))
PUBLIC 42c70 0 {virtual override thunk({offset(-408)}, GJBaseGameLayer::spawnObject(GameObject*, double, gd::vector<int> const&))}
PUBLIC 42c78 0 GJBaseGameLayer::activatePlatformerEndTrigger(EndTriggerGameObject*, gd::vector<int> const&)
PUBLIC 42dc4 0 tulip::hook::AbstractFunction::from<void, GJBaseGameLayer*, EndTriggerGameObject*, gd::vector<int> const&>(void (*)(GJBaseGameLayer*, EndTriggerGameObject*, gd::vector<int> const&))
PUBLIC 42ec4 0 GJBaseGameLayer::toggleGlitter(bool)
PUBLIC 42ec8 0 GJBaseGameLayer::timeForPos(cocos2d::CCPoint, int, int, bool, int)
PUBLIC 42ed0 0 GJBaseGameLayer::posForTime(float)
PUBLIC 42ed8 0 GJBaseGameLayer::resetSPTriggered()
PUBLIC 42edc 0 GJBaseGameLayer::createCustomParticle(gd::string const&, cocos2d::ParticleStruct const&, int, bool)
PUBLIC 43040 0 tulip::hook::AbstractFunction::from<TodoReturnPlaceholder, GJBaseGameLayer*, gd::string const&, cocos2d::ParticleStruct const&, int, bool>(TodoReturnPlaceholder (*)(GJBaseGameLayer*, gd::string const&, cocos2d::ParticleStruct const&, int, bool))
PUBLIC 431a4 0 GJBaseGameLayer::claimCustomParticle(gd::string const&, cocos2d::ParticleStruct const&, int, int, int, bool)
PUBLIC 43320 0 tulip::hook::AbstractFunction::from<TodoReturnPlaceholder, GJBaseGameLayer*, gd::string const&, cocos2d::ParticleStruct const&, int, int, int, bool>(TodoReturnPlaceholder (*)(GJBaseGameLayer*, gd::string const&, cocos2d::ParticleStruct const&, int, int, int, bool))
PUBLIC 43498 0 GJBaseGameLayer::unclaimCustomParticle(gd::string const&, cocos2d::CCParticleSystemQuad*)
PUBLIC 435e4 0 tulip::hook::AbstractFunction::from<TodoReturnPlaceholder, GJBaseGameLayer*, gd::string const&, cocos2d::CCParticleSystemQuad*>(TodoReturnPlaceholder (*)(GJBaseGameLayer*, gd::string const&, cocos2d::CCParticleSystemQuad*))
PUBLIC 436e4 0 PlayLayer::~PlayLayer()
PUBLIC 43a60 0 {virtual override thunk({offset(-320)}, PlayLayer::~PlayLayer())}
PUBLIC 43a68 0 PlayLayer::~PlayLayer()
PUBLIC 43a8c 0 {virtual override thunk({offset(-320)}, PlayLayer::~PlayLayer())}
PUBLIC 43ab4 0 PlayLayer::activatePlatformerEndTrigger(EndTriggerGameObject*, gd::vector<int> const&)
PUBLIC 43c00 0 tulip::hook::AbstractFunction::from<void, PlayLayer*, EndTriggerGameObject*, gd::vector<int> const&>(void (*)(PlayLayer*, EndTriggerGameObject*, gd::vector<int> const&))
PUBLIC 43d00 0 cocos2d::CCObject::update(float)
PUBLIC 43d04 0 cocos2d::CCNodeRGBA::setOpacityModifyRGB(bool)
PUBLIC 43d08 0 cocos2d::CCNodeRGBA::isOpacityModifyRGB()
PUBLIC 43d10 0 {virtual override thunk({offset(-320)}, cocos2d::CCNodeRGBA::setOpacityModifyRGB(bool))}
PUBLIC 43d14 0 {virtual override thunk({offset(-320)}, cocos2d::CCNodeRGBA::isOpacityModifyRGB())}
PUBLIC 43d1c 0 cocos2d::CCSprite::setBlendFunc(cocos2d::_ccBlendFunc)
PUBLIC 43d28 0 cocos2d::CCSprite::getBlendFunc()
PUBLIC 43d34 0 cocos2d::CCSprite::isDirty()
PUBLIC 43d3c 0 cocos2d::CCSprite::setDirty(bool)
PUBLIC 43d44 0 {virtual override thunk({offset(-344)}, cocos2d::CCSprite::setBlendFunc(cocos2d::_ccBlendFunc))}
PUBLIC 43d4c 0 {virtual override thunk({offset(-344)}, cocos2d::CCSprite::getBlendFunc())}
PUBLIC 43d54 0 GameObject::~GameObject()
PUBLIC 43da0 0 cocos2d::CCLayerColor::~CCLayerColor()
PUBLIC 44084 0 FLAlertLayer::~FLAlertLayer()
PUBLIC 44368 0 cocos2d::CCNode::~CCNode()
PUBLIC 44608 0 cocos2d::CCLayer::~CCLayer()
PUBLIC 448f8 0 cocos2d::CCObject::~CCObject()
PUBLIC 44dec 0 _ZN5geode15UnwrapExceptionC2IRPvQsr4implE18IsStringStreamableIT_EEENS_4impl5OkTagEOS4_
PUBLIC 44f40 0 std::__ndk1::__variant_detail::__visitation::__base::__dispatcher<(unsigned long)0>::__dispatch[abi:ne180000]<std::__ndk1::__variant_detail::__dtor<std::__ndk1::__variant_detail::__traits<void*, std::__ndk1::basic_string<char, std::__ndk1::char_traits<char>, std::__ndk1::allocator<char> > >, (std::__ndk1::__variant_detail::_Trait)1>::__destroy[abi:ne180000]()::{lambda(auto:1&)#1}, std::__ndk1::__variant_detail::__base<(std::__ndk1::__variant_detail::__traits<void*, std::__ndk1::basic_string<char, std::__ndk1::char_traits<char>, std::__ndk1::allocator<char> > >)1, std::__ndk1::__variant_detail::__traits, std::__ndk1::allocator<char> >&>(std::__ndk1::__variant_detail::__dtor<std::__ndk1::__variant_detail::__traits<void*, std::__ndk1::basic_string<char, std::__ndk1::char_traits<char>, std::__ndk1::allocator<char> > >, (std::__ndk1::__variant_detail::_Trait)1>, std::__ndk1::__variant_detail::__base<(std::__ndk1::__variant_detail::__traits<void*, std::__ndk1::basic_string<char, std::__ndk1::char_traits<char>, std::__ndk1::allocator<char> > >)1, std::__ndk1::__variant_detail::__traits, std::__ndk1::allocator<char> >&)
PUBLIC 44f44 0 std::__ndk1::__variant_detail::__visitation::__base::__dispatcher<(unsigned long)1>::__dispatch[abi:ne180000]<std::__ndk1::__variant_detail::__dtor<std::__ndk1::__variant_detail::__traits<void*, std::__ndk1::basic_string<char, std::__ndk1::char_traits<char>, std::__ndk1::allocator<char> > >, (std::__ndk1::__variant_detail::_Trait)1>::__destroy[abi:ne180000]()::{lambda(auto:1&)#1}, std::__ndk1::__variant_detail::__base<(std::__ndk1::__variant_detail::__traits<void*, std::__ndk1::basic_string<char, std::__ndk1::char_traits<char>, std::__ndk1::allocator<char> > >)1, std::__ndk1::__variant_detail::__traits, std::__ndk1::allocator<char> >&>(std::__ndk1::__variant_detail::__dtor<std::__ndk1::__variant_detail::__traits<void*, std::__ndk1::basic_string<char, std::__ndk1::char_traits<char>, std::__ndk1::allocator<char> > >, (std::__ndk1::__variant_detail::_Trait)1>, std::__ndk1::__variant_detail::__base<(std::__ndk1::__variant_detail::__traits<void*, std::__ndk1::basic_string<char, std::__ndk1::char_traits<char>, std::__ndk1::allocator<char> > >)1, std::__ndk1::__variant_detail::__traits, std::__ndk1::allocator<char> >&)
PUBLIC 44f58 0 std::__ndk1::__hash_table<std::__ndk1::__hash_value_type<void*, bool>, std::__ndk1::__unordered_map_hasher<void*, std::__ndk1::__hash_value_type<void*, bool>, std::__ndk1::hash<void*>, std::__ndk1::equal_to<void*>, true>, std::__ndk1::__unordered_map_equal<void*, std::__ndk1::__hash_value_type<void*, bool>, std::__ndk1::equal_to<void*>, std::__ndk1::hash<void*>, true>, std::__ndk1::allocator<std::__ndk1::__hash_value_type<void*, bool> > >::__emplace_unique_key_args<void*, std::__ndk1::piecewise_construct_t const&, std::__ndk1::tuple<void* const&>, std::__ndk1::tuple<> >(void* const&, std::__ndk1::piecewise_construct_t const&, std::__ndk1::tuple<void* const&>, std::__ndk1::tuple<>)
PUBLIC 45464 0 __udivti3
PUBLIC 45470 0 __udivmodti4
PUBLIC m 456bc 0 __eqtf2
PUBLIC 4575c 0 __unordtf2
PUBLIC 45794 0 fmt::v11::detail::write_loc(fmt::v11::basic_appender<char>, fmt::v11::loc_value, fmt::v11::format_specs const&, fmt::v11::detail::locale_ref)
PUBLIC 45a28 0 fmt::v11::format_facet<std::__ndk1::locale>::~format_facet()
PUBLIC 45aa4 0 fmt::v11::report_error(char const*)
PUBLIC 45af4 0 fmt::v11::format_error::runtime_error(char const*)
PUBLIC 45b20 0 fmt::v11::format_facet<std::__ndk1::locale>::do_put(fmt::v11::basic_appender<char>, fmt::v11::loc_value, fmt::v11::format_specs const&) const
PUBLIC 462e0 0 fmt::v11::detail::loc_writer<char>::~loc_writer()
PUBLIC 46344 0 fmt::v11::detail::vformat_to<char>(fmt::v11::detail::buffer<char>&, fmt::v11::basic_string_view<char>, fmt::v11::detail::vformat_args<char>::type, fmt::v11::detail::locale_ref)
PUBLIC 468b4 0 fmt::v11::detail::is_printable(unsigned int)
PUBLIC 46adc 0 fmt::v11::detail::dragonbox::to_decimal<float>(float)
PUBLIC 46db8 0 fmt::v11::detail::dragonbox::to_decimal<double>(double)
PUBLIC 472f4 0 fmt::v11::basic_memory_buffer<char, (unsigned long)500, std::__ndk1::allocator<char> >::grow(fmt::v11::detail::buffer<char>&, unsigned long)
PUBLIC 4736c 0 fmt::v11::format_facet<std::__ndk1::locale>::~format_facet()
PUBLIC 473f8 0 fmt::v11::format_error::~format_error()
PUBLIC 4741c 0 fmt::v11::detail::copy_noinline<char, char const*, fmt::v11::basic_appender<char> >(char const*, char const*, fmt::v11::basic_appender<char>)
PUBLIC 4756c 0 fmt::v11::detail::default_arg_formatter<char>::operator()<bool>(bool)
PUBLIC 475d4 0 fmt::v11::detail::default_arg_formatter<char>::operator()<char>(char)
PUBLIC 47664 0 fmt::v11::detail::default_arg_formatter<char>::operator()<float>(float)
PUBLIC 47750 0 fmt::v11::detail::default_arg_formatter<char>::operator()<double>(double)
PUBLIC 4783c 0 fmt::v11::detail::default_arg_formatter<char>::operator()<char const*>(char const*)
PUBLIC 47884 0 fmt::v11::detail::default_arg_formatter<char>::operator()<void const*>(void const*)
PUBLIC 4791c 0 _ZN3fmt3v116detail5writeIcNS0_14basic_appenderIcEEiTnNSt6__ndk19enable_ifIXaaaasr11is_integralIT1_EE5valuentsr3std7is_sameIS7_bEE5valuentsr3std7is_sameIS7_T_EE5valueEiE4typeELi0EEET0_SB_S7_
PUBLIC 47b7c 0 fmt::v11::detail::copy_noinline<char, char*, fmt::v11::basic_appender<char> >(char*, char*, fmt::v11::basic_appender<char>)
PUBLIC 47ccc 0 _ZN3fmt3v116detail5writeIcNS0_14basic_appenderIcEEjTnNSt6__ndk19enable_ifIXaaaasr11is_integralIT1_EE5valuentsr3std7is_sameIS7_bEE5valuentsr3std7is_sameIS7_T_EE5valueEiE4typeELi0EEET0_SB_S7_
PUBLIC 47eac 0 _ZN3fmt3v116detail5writeIcNS0_14basic_appenderIcEExTnNSt6__ndk19enable_ifIXaaaasr11is_integralIT1_EE5valuentsr3std7is_sameIS7_bEE5valuentsr3std7is_sameIS7_T_EE5valueEiE4typeELi0EEET0_SB_S7_
PUBLIC 48130 0 _ZN3fmt3v116detail5writeIcNS0_14basic_appenderIcEEyTnNSt6__ndk19enable_ifIXaaaasr11is_integralIT1_EE5valuentsr3std7is_sameIS7_bEE5valuentsr3std7is_sameIS7_T_EE5valueEiE4typeELi0EEET0_SB_S7_
PUBLIC 48338 0 _ZN3fmt3v116detail5writeIcNS0_14basic_appenderIcEEnTnNSt6__ndk19enable_ifIXaaaasr11is_integralIT1_EE5valuentsr3std7is_sameIS7_bEE5valuentsr3std7is_sameIS7_T_EE5valueEiE4typeELi0EEET0_SB_S7_
PUBLIC 48698 0 _ZN3fmt3v116detail5writeIcNS0_14basic_appenderIcEEoTnNSt6__ndk19enable_ifIXaaaasr11is_integralIT1_EE5valuentsr3std7is_sameIS7_bEE5valuentsr3std7is_sameIS7_T_EE5valueEiE4typeELi0EEET0_SB_S7_
PUBLIC 489ac 0 _ZN3fmt3v116detail5writeIcNS0_14basic_appenderIcEEbTnNSt6__ndk19enable_ifIXsr3std7is_sameIT1_bEE5valueEiE4typeELi0EEET0_SA_S7_RKNS0_12format_specsENS1_10locale_refE
PUBLIC 48c3c 0 fmt::v11::detail::write_int_noinline<char, fmt::v11::basic_appender<char>, unsigned int>(fmt::v11::basic_appender<char>, fmt::v11::detail::write_int_arg<unsigned int>, fmt::v11::format_specs const&, fmt::v11::detail::locale_ref)
PUBLIC 49a18 0 fmt::v11::detail::fill<char, fmt::v11::basic_appender<char> >(fmt::v11::basic_appender<char>, unsigned long, fmt::v11::detail::fill_t const&)
PUBLIC 49be8 0 fmt::v11::detail::write_padded<char, (fmt::v11::align::type)1, fmt::v11::basic_appender<char>, fmt::v11::detail::write_char<char, fmt::v11::basic_appender<char> >(fmt::v11::basic_appender<char>, char, fmt::v11::format_specs const&)::{lambda(fmt::v11::basic_appender<char>&)#1}>(fmt::v11::basic_appender<char>, fmt::v11::format_specs const&, unsigned long, unsigned long, fmt::v11::detail::write_char<char, fmt::v11::basic_appender<char> >(fmt::v11::basic_appender<char>, char, fmt::v11::format_specs const&)::{lambda(fmt::v11::basic_appender<char>&)#1})
PUBLIC 49e24 0 fmt::v11::detail::write_escaped_cp<fmt::v11::basic_appender<char>, char>(fmt::v11::basic_appender<char>, fmt::v11::detail::find_escape_result<char> const&)
PUBLIC 4a130 0 fmt::v11::detail::write_codepoint<(unsigned long)2, char, fmt::v11::basic_appender<char> >(fmt::v11::basic_appender<char>, char, unsigned int)
PUBLIC 4a2a8 0 fmt::v11::detail::write_codepoint<(unsigned long)8, char, fmt::v11::basic_appender<char> >(fmt::v11::basic_appender<char>, char, unsigned int)
PUBLIC 4a420 0 fmt::v11::detail::write_padded<char, (fmt::v11::align::type)1, fmt::v11::basic_appender<char>, fmt::v11::detail::write_nonfinite<char, fmt::v11::basic_appender<char> >(fmt::v11::basic_appender<char>, bool, fmt::v11::format_specs, fmt::v11::sign::type)::{lambda(fmt::v11::basic_appender<char>&)#1}>(fmt::v11::basic_appender<char>, fmt::v11::format_specs const&, unsigned long, unsigned long, fmt::v11::detail::write_nonfinite<char, fmt::v11::basic_appender<char> >(fmt::v11::basic_appender<char>, bool, fmt::v11::format_specs, fmt::v11::sign::type)::{lambda(fmt::v11::basic_appender<char>&)#1})
PUBLIC 4a660 0 fmt::v11::detail::do_write_float<char, fmt::v11::basic_appender<char>, fmt::v11::detail::dragonbox::decimal_fp<float>, fmt::v11::detail::digit_grouping<char> >(fmt::v11::basic_appender<char>, fmt::v11::detail::dragonbox::decimal_fp<float> const&, fmt::v11::format_specs const&, fmt::v11::detail::float_specs, fmt::v11::detail::locale_ref)
PUBLIC 4b2d4 0 fmt::v11::detail::do_write_float<char, fmt::v11::basic_appender<char>, fmt::v11::detail::dragonbox::decimal_fp<float>, fmt::v11::detail::digit_grouping<char> >(fmt::v11::basic_appender<char>, fmt::v11::detail::dragonbox::decimal_fp<float> const&, fmt::v11::format_specs const&, fmt::v11::detail::float_specs, fmt::v11::detail::locale_ref)::{lambda(fmt::v11::basic_appender<char>(fmt::v11::basic_appender<char>))#1}::operator() const
PUBLIC 4b428 0 fmt::v11::detail::digit_grouping<char>::digit_grouping(fmt::v11::detail::locale_ref, bool)
PUBLIC 4b694 0 fmt::v11::detail::digit_grouping<char>::~digit_grouping()
PUBLIC 4b6d8 0 fmt::v11::detail::write_exponent<char, fmt::v11::basic_appender<char> >(int, fmt::v11::basic_appender<char>)
PUBLIC 4b8a8 0 _ZN3fmt3v116detail17write_significandIcjTnNSt6__ndk19enable_ifIXsr3std11is_integralIT0_EE5valueEiE4typeELi0EEEPT_S9_S5_iiS8_
PUBLIC 4ba24 0 fmt::v11::detail::digit_grouping<char>::apply<fmt::v11::basic_appender<char>, char>(fmt::v11::basic_appender<char>, fmt::v11::basic_string_view<char>) const
PUBLIC 4bddc 0 fmt::v11::basic_memory_buffer<int, (unsigned long)500, std::__ndk1::allocator<int> >::grow(fmt::v11::detail::buffer<int>&, unsigned long)
PUBLIC 4be7c 0 fmt::v11::detail::do_write_float<char, fmt::v11::basic_appender<char>, fmt::v11::detail::dragonbox::decimal_fp<double>, fmt::v11::detail::digit_grouping<char> >(fmt::v11::basic_appender<char>, fmt::v11::detail::dragonbox::decimal_fp<double> const&, fmt::v11::format_specs const&, fmt::v11::detail::float_specs, fmt::v11::detail::locale_ref)
PUBLIC 4cb30 0 fmt::v11::detail::do_write_float<char, fmt::v11::basic_appender<char>, fmt::v11::detail::dragonbox::decimal_fp<double>, fmt::v11::detail::digit_grouping<char> >(fmt::v11::basic_appender<char>, fmt::v11::detail::dragonbox::decimal_fp<double> const&, fmt::v11::format_specs const&, fmt::v11::detail::float_specs, fmt::v11::detail::locale_ref)::{lambda(fmt::v11::basic_appender<char>(fmt::v11::basic_appender<char>))#1}::operator() const
PUBLIC 4cc88 0 _ZN3fmt3v116detail17write_significandIcmTnNSt6__ndk19enable_ifIXsr3std11is_integralIT0_EE5valueEiE4typeELi0EEEPT_S9_S5_iiS8_
PUBLIC 4ce18 0 fmt::v11::detail::write_float<char, fmt::v11::basic_appender<char>, long double>(fmt::v11::basic_appender<char>, long double, fmt::v11::format_specs, fmt::v11::detail::locale_ref)
PUBLIC 4d914 0 fmt::v11::detail::write_padded<char, (fmt::v11::align::type)2, fmt::v11::basic_appender<char>, fmt::v11::detail::write_bytes<char, (fmt::v11::align::type)2, fmt::v11::basic_appender<char> >(fmt::v11::basic_appender<char>, fmt::v11::basic_string_view<char>, fmt::v11::format_specs const&)::{lambda(fmt::v11::basic_appender<char>&)#1}>(fmt::v11::basic_appender<char>, fmt::v11::format_specs const&, unsigned long, unsigned long, fmt::v11::detail::write_bytes<char, (fmt::v11::align::type)2, fmt::v11::basic_appender<char> >(fmt::v11::basic_appender<char>, fmt::v11::basic_string_view<char>, fmt::v11::format_specs const&)::{lambda(fmt::v11::basic_appender<char>&)#1})
PUBLIC 4daf0 0 fmt::v11::detail::format_dragon(fmt::v11::detail::basic_fp<unsigned __int128>, unsigned int, int, fmt::v11::detail::buffer<char>&, int&)
PUBLIC 4ef20 0 fmt::v11::detail::bigint::operator<<=(int)
PUBLIC 4f044 0 fmt::v11::detail::bigint::assign_pow10(int)
PUBLIC 4f7a0 0 fmt::v11::detail::bigint::divmod_assign(fmt::v11::detail::bigint const&)
PUBLIC 4fac0 0 fmt::v11::basic_memory_buffer<unsigned int, (unsigned long)32, std::__ndk1::allocator<unsigned int> >::grow(fmt::v11::detail::buffer<unsigned int>&, unsigned long)
PUBLIC 4fb60 0 fmt::v11::detail::do_write_float<char, fmt::v11::basic_appender<char>, fmt::v11::detail::big_decimal_fp, fmt::v11::detail::digit_grouping<char> >(fmt::v11::basic_appender<char>, fmt::v11::detail::big_decimal_fp const&, fmt::v11::format_specs const&, fmt::v11::detail::float_specs, fmt::v11::detail::locale_ref)
PUBLIC 50a10 0 fmt::v11::detail::do_write_float<char, fmt::v11::basic_appender<char>, fmt::v11::detail::big_decimal_fp, fmt::v11::detail::digit_grouping<char> >(fmt::v11::basic_appender<char>, fmt::v11::detail::big_decimal_fp const&, fmt::v11::format_specs const&, fmt::v11::detail::float_specs, fmt::v11::detail::locale_ref)::{lambda(fmt::v11::basic_appender<char>(fmt::v11::basic_appender<char>))#1}::operator() const
PUBLIC 50b70 0 fmt::v11::detail::write_padded<char, (fmt::v11::align::type)2, fmt::v11::basic_appender<char>, fmt::v11::detail::write_ptr<char, fmt::v11::basic_appender<char>, unsigned long>(fmt::v11::basic_appender<char>, unsigned long, fmt::v11::format_specs const*)::{lambda(fmt::v11::basic_appender<char>&)#1}>(fmt::v11::basic_appender<char>, fmt::v11::format_specs const&, unsigned long, unsigned long, fmt::v11::detail::write_ptr<char, fmt::v11::basic_appender<char>, unsigned long>(fmt::v11::basic_appender<char>, unsigned long, fmt::v11::format_specs const*)::{lambda(fmt::v11::basic_appender<char>&)#1})
PUBLIC 50d84 0 fmt::v11::detail::parse_replacement_field<char, fmt::v11::detail::vformat_to<char>(fmt::v11::detail::buffer<char>&, fmt::v11::basic_string_view<char>, fmt::v11::detail::vformat_args<char>::type, fmt::v11::detail::locale_ref)::format_handler&>(char const*, char const*, fmt::v11::detail::vformat_to<char>(fmt::v11::detail::buffer<char>&, fmt::v11::basic_string_view<char>, fmt::v11::detail::vformat_args<char>::type, fmt::v11::detail::locale_ref)::format_handler&)
PUBLIC 52a20 0 fmt::v11::detail::parse_dynamic_spec<char>(char const*, char const*, int&, fmt::v11::detail::arg_ref<char>&, fmt::v11::basic_format_parse_context<char>&)
PUBLIC 52cb0 0 fmt::v11::basic_format_args<fmt::v11::context>::get<char>(fmt::v11::basic_string_view<char>) const
PUBLIC 52e08 0 fmt::v11::detail::write_int_noinline<char, fmt::v11::basic_appender<char>, unsigned long>(fmt::v11::basic_appender<char>, fmt::v11::detail::write_int_arg<unsigned long>, fmt::v11::format_specs const&, fmt::v11::detail::locale_ref)
PUBLIC 53c5c 0 fmt::v11::detail::write_int_noinline<char, fmt::v11::basic_appender<char>, unsigned __int128>(fmt::v11::basic_appender<char>, fmt::v11::detail::write_int_arg<unsigned __int128>, fmt::v11::format_specs const&, fmt::v11::detail::locale_ref)
PUBLIC 54cc4 0 _ZN3fmt3v116detail15format_hexfloatIdTnNSt6__ndk19enable_ifIXntsr16is_double_doubleIT_EE5valueEiE4typeELi0EEEvS5_NS0_12format_specsERNS1_6bufferIcEE
PUBLIC 551e4 0 fmt::v11::detail::format_float<double>(double, int, fmt::v11::detail::float_specs, fmt::v11::detail::buffer<char>&)
PUBLIC 55b84 0 fmt::v11::detail::write<char, fmt::v11::basic_appender<char> >(fmt::v11::basic_appender<char>, fmt::v11::basic_string_view<char>, fmt::v11::format_specs const&)
PUBLIC 56ef8 0 fmt::v11::detail::for_each_codepoint<fmt::v11::detail::compute_width(fmt::v11::basic_string_view<char>)::count_code_points>(fmt::v11::basic_string_view<char>, fmt::v11::detail::compute_width(fmt::v11::basic_string_view<char>)::count_code_points)::{lambda(char const*, char const*)#1}::operator()(char const*, char const*) const
PUBLIC 570b0 0 fmt::v11::detail::write_int<fmt::v11::basic_appender<char>, unsigned long, char>(fmt::v11::basic_appender<char>, unsigned long, unsigned int, fmt::v11::format_specs const&, fmt::v11::detail::digit_grouping<char> const&)
PUBLIC 5762c 0 fmt::v11::detail::write_int<fmt::v11::basic_appender<char>, unsigned __int128, char>(fmt::v11::basic_appender<char>, unsigned __int128, unsigned int, fmt::v11::format_specs const&, fmt::v11::detail::digit_grouping<char> const&)
PUBLIC 57cb0 0 <.plt ELF section in the_bearodactyl.gay-wave-trail.android64.so>
STACK CFI INIT 2ace0 10 .cfa: sp 0 +
STACK CFI INIT 2acf0 8 .cfa: sp 0 +
STACK CFI INIT 2acf8 8 .cfa: sp 0 +
STACK CFI INIT 2ad00 14 .cfa: sp 0 +
STACK CFI INIT 2ad14 1c .cfa: sp 0 +
STACK CFI INIT 2ad30 10 .cfa: sp 0 +
STACK CFI INIT 2ad40 10 .cfa: sp 0 +
STACK CFI 2ad44 .cfa: sp 16 +
STACK CFI 2ad48 .cfa: x29 16 + .ra: .cfa -8 + ^ x29: .cfa -16 + ^
STACK CFI INIT 2ad50 4 .cfa: sp 0 +
STACK CFI INIT 2ad54 4 .cfa: sp 0 +
STACK CFI INIT 2ad58 34 .cfa: sp 0 +
STACK CFI 2ad5c .cfa: sp 32 +
STACK CFI 2ad64 .cfa: x29 32 + x19: .cfa -16 + ^ .ra: .cfa -24 + ^ x29: .cfa -32 + ^
STACK CFI 2ad80 .cfa: sp 32 +
STACK CFI 2ad88 .cfa: sp 0 +
STACK CFI INIT 2ad8c 14 .cfa: sp 0 +
STACK CFI INIT 2ada0 4 .cfa: sp 0 +
STACK CFI INIT 2ada4 4 .cfa: sp 0 +
STACK CFI INIT 2ada8 14 .cfa: sp 0 +
STACK CFI INIT 2adbc 1c .cfa: sp 0 +
STACK CFI INIT 2add8 c .cfa: sp 0 +
STACK CFI INIT 2ade4 4 .cfa: sp 0 +
STACK CFI INIT 2ade8 14 .cfa: sp 0 +
STACK CFI INIT 2af40 30 .cfa: sp 0 +
STACK CFI INIT 2af70 98 .cfa: sp 0 +
STACK CFI INIT 2b008 59c .cfa: sp 0 +
STACK CFI INIT 2b5a4 8c .cfa: sp 0 +
STACK CFI INIT 2b630 30 .cfa: sp 0 +
STACK CFI INIT 2bca0 50 .cfa: sp 0 +
STACK CFI 2bca4 .cfa: sp 32 +
STACK CFI 2bcac .cfa: x29 32 + x19: .cfa -16 + ^ .ra: .cfa -24 + ^ x29: .cfa -32 + ^
STACK CFI 2bcc4 .cfa: sp 32 +
STACK CFI 2bccc .cfa: sp 0 +
STACK CFI 2bcd0 .cfa: x29 32 +
STACK CFI 2bce4 .cfa: sp 32 +
STACK CFI 2bcec .cfa: sp 0 +
STACK CFI INIT 2bf14 7c .cfa: sp 0 +
STACK CFI 2bf18 .cfa: sp 48 +
STACK CFI 2bf24 .cfa: x29 48 + x19: .cfa -8 + ^ x20: .cfa -16 + ^ x21: .cfa -32 + ^ .ra: .cfa -40 + ^ x29: .cfa -48 + ^
STACK CFI 2bf70 .cfa: sp 48 +
STACK CFI 2bf7c .cfa: sp 0 +
STACK CFI 2bf80 .cfa: sp 48 +
STACK CFI 2bf8c .cfa: sp 0 +
STACK CFI INIT 2bf90 7c .cfa: sp 0 +
STACK CFI 2bf94 .cfa: sp 48 +
STACK CFI 2bfa0 .cfa: x29 48 + x19: .cfa -8 + ^ x20: .cfa -16 + ^ x21: .cfa -32 + ^ .ra: .cfa -40 + ^ x29: .cfa -48 + ^
STACK CFI 2bfec .cfa: sp 48 +
STACK CFI 2bff8 .cfa: sp 0 +
STACK CFI 2bffc .cfa: sp 48 +
STACK CFI 2c008 .cfa: sp 0 +
STACK CFI INIT 2c4d8 50 .cfa: sp 0 +
STACK CFI 2c4dc .cfa: sp 32 +
STACK CFI 2c4e4 .cfa: x29 32 + x19: .cfa -16 + ^ .ra: .cfa -24 + ^ x29: .cfa -32 + ^
STACK CFI 2c4fc .cfa: sp 32 +
STACK CFI 2c504 .cfa: sp 0 +
STACK CFI 2c508 .cfa: x29 32 +
STACK CFI 2c51c .cfa: sp 32 +
STACK CFI 2c524 .cfa: sp 0 +
STACK CFI INIT 2c528 7c .cfa: sp 0 +
STACK CFI 2c52c .cfa: sp 32 +
STACK CFI 2c534 .cfa: x29 32 + x19: .cfa -8 + ^ x20: .cfa -16 + ^ .ra: .cfa -24 + ^ x29: .cfa -32 + ^
STACK CFI 2c568 .cfa: sp 32 +
STACK CFI 2c570 .cfa: sp 0 +
STACK CFI 2c574 .cfa: x29 32 +
STACK CFI 2c598 .cfa: sp 32 +
STACK CFI 2c5a0 .cfa: sp 0 +
STACK CFI INIT 2ce74 108 .cfa: sp 0 +
STACK CFI 2ce78 .cfa: sp 48 +
STACK CFI 2ce84 .cfa: x29 48 + x19: .cfa -8 + ^ x20: .cfa -16 + ^ x21: .cfa -32 + ^ .ra: .cfa -40 + ^ x29: .cfa -48 + ^
STACK CFI 2cf58 .cfa: sp 48 +
STACK CFI 2cf64 .cfa: sp 0 +
STACK CFI 2cf68 .cfa: x29 48 +
STACK CFI 2cf6c .cfa: sp 48 +
STACK CFI 2cf78 .cfa: sp 0 +
STACK CFI INIT 2d064 8 .cfa: sp 0 +
STACK CFI INIT 2d1d4 34 .cfa: sp 0 +
STACK CFI 2d1d8 .cfa: sp 16 +
STACK CFI 2d1dc .cfa: x29 16 + .ra: .cfa -8 + ^ x29: .cfa -16 + ^
STACK CFI INIT 2d334 80 .cfa: sp 0 +
STACK CFI 2d338 .cfa: sp 48 +
STACK CFI 2d344 .cfa: x29 48 + x19: .cfa -8 + ^ x20: .cfa -16 + ^ x21: .cfa -32 + ^ .ra: .cfa -40 + ^ x29: .cfa -48 + ^
STACK CFI 2d3a4 .cfa: sp 48 +
STACK CFI 2d3b0 .cfa: sp 0 +
STACK CFI INIT 2d3b4 24 .cfa: sp 0 +
STACK CFI 2d3b8 .cfa: sp 32 +
STACK CFI 2d3c0 .cfa: x29 32 + x19: .cfa -16 + ^ .ra: .cfa -24 + ^ x29: .cfa -32 + ^
STACK CFI 2d3cc .cfa: sp 32 +
STACK CFI 2d3d4 .cfa: sp 0 +
STACK CFI INIT 2d758 14 .cfa: sp 0 +
STACK CFI 2d75c .cfa: sp 16 +
STACK CFI 2d760 .cfa: x29 16 + .ra: .cfa -8 + ^ x29: .cfa -16 + ^
STACK CFI INIT 2d7bc 30 .cfa: sp 0 +
STACK CFI 2d7c0 .cfa: sp 32 +
STACK CFI 2d7c8 .cfa: x29 32 + x19: .cfa -16 + ^ .ra: .cfa -24 + ^ x29: .cfa -32 + ^
STACK CFI 2d7e0 .cfa: sp 32 +
STACK CFI 2d7e8 .cfa: sp 0 +
STACK CFI INIT 2d7ec 34 .cfa: sp 0 +
STACK CFI 2d7f0 .cfa: sp 32 +
STACK CFI 2d7f8 .cfa: x29 32 + x19: .cfa -16 + ^ .ra: .cfa -24 + ^ x29: .cfa -32 + ^
STACK CFI INIT 2d998 148 .cfa: sp 0 +
STACK CFI 2d99c .cfa: sp 48 +
STACK CFI 2d9a8 .cfa: x29 48 + x19: .cfa -8 + ^ x20: .cfa -16 + ^ x21: .cfa -32 + ^ .ra: .cfa -40 + ^ x29: .cfa -48 + ^
STACK CFI 2dad0 .cfa: sp 48 +
STACK CFI 2dadc .cfa: sp 0 +
STACK CFI INIT 2dae0 80 .cfa: sp 0 +
STACK CFI 2dae4 .cfa: sp 48 +
STACK CFI 2daf0 .cfa: x29 48 + x19: .cfa -8 + ^ x20: .cfa -16 + ^ x21: .cfa -24 + ^ x22: .cfa -32 + ^ .ra: .cfa -40 + ^ x29: .cfa -48 + ^
STACK CFI 2db08 .cfa: sp 48 +
STACK CFI 2db14 .cfa: sp 0 +
STACK CFI 2db18 .cfa: x29 48 +
STACK CFI 2db48 .cfa: sp 48 +
STACK CFI 2db54 .cfa: sp 0 +
STACK CFI 2db58 .cfa: x29 48 +
STACK CFI INIT 2db60 50 .cfa: sp 0 +
STACK CFI 2db64 .cfa: sp 32 +
STACK CFI 2db6c .cfa: x29 32 + x19: .cfa -16 + ^ .ra: .cfa -24 + ^ x29: .cfa -32 + ^
STACK CFI 2db84 .cfa: sp 32 +
STACK CFI 2db8c .cfa: sp 0 +
STACK CFI 2db90 .cfa: x29 32 +
STACK CFI 2dba4 .cfa: sp 32 +
STACK CFI 2dbac .cfa: sp 0 +
STACK CFI INIT 2dbb0 14 .cfa: sp 0 +
STACK CFI INIT 2dbc4 8 .cfa: sp 0 +
STACK CFI INIT 2dbcc ac .cfa: sp 0 +
STACK CFI 2dbd0 .cfa: sp 32 +
STACK CFI 2dbd8 .cfa: x29 32 + x19: .cfa -8 + ^ x20: .cfa -16 + ^ .ra: .cfa -24 + ^ x29: .cfa -32 + ^
STACK CFI 2dc44 .cfa: sp 32 +
STACK CFI 2dc4c .cfa: sp 0 +
STACK CFI 2dc50 .cfa: x29 32 +
STACK CFI 2dc6c .cfa: sp 32 +
STACK CFI 2dc74 .cfa: sp 0 +
STACK CFI INIT 2dc78 bc .cfa: sp 0 +
STACK CFI 2dc7c .cfa: sp 32 +
STACK CFI 2dc84 .cfa: x29 32 + x19: .cfa -8 + ^ x20: .cfa -16 + ^ .ra: .cfa -24 + ^ x29: .cfa -32 + ^
STACK CFI 2dcf8 .cfa: sp 32 +
STACK CFI 2dd00 .cfa: sp 0 +
STACK CFI 2dd04 .cfa: x29 32 +
STACK CFI 2dd28 .cfa: sp 32 +
STACK CFI 2dd30 .cfa: sp 0 +
STACK CFI INIT 2e74c bc .cfa: sp 0 +
STACK CFI 2e750 .cfa: sp 32 +
STACK CFI 2e758 .cfa: x29 32 + x19: .cfa -8 + ^ x20: .cfa -16 + ^ .ra: .cfa -24 + ^ x29: .cfa -32 + ^
STACK CFI 2e7cc .cfa: sp 32 +
STACK CFI 2e7d4 .cfa: sp 0 +
STACK CFI 2e7d8 .cfa: x29 32 +
STACK CFI 2e7fc .cfa: sp 32 +
STACK CFI 2e804 .cfa: sp 0 +
STACK CFI INIT 2e9d8 8c .cfa: sp 0 +
STACK CFI 2e9dc .cfa: sp 48 +
STACK CFI 2e9e8 .cfa: x29 48 + x19: .cfa -8 + ^ x20: .cfa -16 + ^ x21: .cfa -24 + ^ x22: .cfa -32 + ^ .ra: .cfa -40 + ^ x29: .cfa -48 + ^
STACK CFI 2e9f0 .cfa: sp 48 +
STACK CFI 2e9fc .cfa: sp 0 +
STACK CFI 2ea00 .cfa: x29 48 +
STACK CFI 2ea54 .cfa: sp 48 +
STACK CFI 2ea60 .cfa: sp 0 +
STACK CFI INIT 2ea64 14 .cfa: sp 0 +
STACK CFI 2ea68 .cfa: sp 16 +
STACK CFI 2ea6c .cfa: x29 16 + .ra: .cfa -8 + ^ x29: .cfa -16 + ^
STACK CFI INIT 2ea78 60 .cfa: sp 0 +
STACK CFI 2ea88 .cfa: sp 32 +
STACK CFI 2ea90 .cfa: x29 32 + x19: .cfa -8 + ^ x20: .cfa -16 + ^ .ra: .cfa -24 + ^ x29: .cfa -32 + ^
STACK CFI 2eacc .cfa: sp 32 +
STACK CFI 2ead4 .cfa: sp 0 +
STACK CFI INIT 2f03c ac .cfa: sp 0 +
STACK CFI 2f040 .cfa: sp 64 +
STACK CFI 2f050 .cfa: x29 64 + x19: .cfa -8 + ^ x20: .cfa -16 + ^ x21: .cfa -24 + ^ x22: .cfa -32 + ^ x23: .cfa -48 + ^ .ra: .cfa -56 + ^ x29: .cfa -64 + ^
STACK CFI 2f0cc .cfa: sp 64 +
STACK CFI 2f0dc .cfa: sp 0 +
STACK CFI 2f0e0 .cfa: x29 64 +
STACK CFI INIT 2f0e8 110 .cfa: sp 0 +
STACK CFI 2f0ec .cfa: sp 64 +
STACK CFI 2f0fc .cfa: x29 64 + x19: .cfa -8 + ^ x20: .cfa -16 + ^ x21: .cfa -24 + ^ x22: .cfa -32 + ^ x23: .cfa -40 + ^ x24: .cfa -48 + ^ .ra: .cfa -56 + ^ x29: .cfa -64 + ^
STACK CFI 2f1dc .cfa: sp 64 +
STACK CFI 2f1ec .cfa: sp 0 +
STACK CFI 2f1f0 .cfa: x29 64 +
STACK CFI INIT 2f1f8 6c .cfa: sp 0 +
STACK CFI 2f1fc .cfa: sp 32 +
STACK CFI 2f204 .cfa: x29 32 + x19: .cfa -8 + ^ x20: .cfa -16 + ^ .ra: .cfa -24 + ^ x29: .cfa -32 + ^
STACK CFI 2f230 .cfa: sp 32 +
STACK CFI 2f238 .cfa: sp 0 +
STACK CFI 2f23c .cfa: x29 32 +
STACK CFI 2f258 .cfa: sp 32 +
STACK CFI 2f260 .cfa: sp 0 +
STACK CFI INIT 2f264 4 .cfa: sp 0 +
STACK CFI INIT 2f268 10 .cfa: sp 0 +
STACK CFI INIT 2f278 30 .cfa: sp 0 +
STACK CFI 2f27c .cfa: sp 32 +
STACK CFI 2f284 .cfa: x29 32 + x19: .cfa -16 + ^ .ra: .cfa -24 + ^ x29: .cfa -32 + ^
STACK CFI 2f29c .cfa: sp 32 +
STACK CFI 2f2a4 .cfa: sp 0 +
STACK CFI INIT 2f2a8 c .cfa: sp 0 +
STACK CFI INIT 2f2b4 4 .cfa: sp 0 +
STACK CFI INIT 2f2b8 10 .cfa: sp 0 +
STACK CFI INIT 2f2c8 30 .cfa: sp 0 +
STACK CFI 2f2cc .cfa: sp 32 +
STACK CFI 2f2d4 .cfa: x29 32 + x19: .cfa -16 + ^ .ra: .cfa -24 + ^ x29: .cfa -32 + ^
STACK CFI 2f2ec .cfa: sp 32 +
STACK CFI 2f2f4 .cfa: sp 0 +
STACK CFI INIT 2f2f8 c8 .cfa: sp 0 +
STACK CFI 2f2fc .cfa: sp 48 +
STACK CFI 2f308 .cfa: x29 48 + x19: .cfa -8 + ^ x20: .cfa -16 + ^ x21: .cfa -32 + ^ .ra: .cfa -40 + ^ x29: .cfa -48 + ^
STACK CFI 2f3a0 .cfa: sp 48 +
STACK CFI 2f3ac .cfa: sp 0 +
STACK CFI 2f3b0 .cfa: sp 48 +
STACK CFI 2f3bc .cfa: sp 0 +
STACK CFI INIT 2f3c0 4 .cfa: sp 0 +
STACK CFI INIT 301c0 4 .cfa: sp 0 +
STACK CFI INIT 301c4 14 .cfa: sp 0 +
STACK CFI INIT 301d8 14 .cfa: sp 0 +
STACK CFI INIT 301ec 14 .cfa: sp 0 +
STACK CFI INIT 30200 68 .cfa: sp 0 +
STACK CFI 30204 .cfa: sp 32 +
STACK CFI 3020c .cfa: x29 32 + x19: .cfa -8 + ^ x20: .cfa -16 + ^ .ra: .cfa -24 + ^ x29: .cfa -32 + ^
STACK CFI 30224 .cfa: sp 32 +
STACK CFI 3022c .cfa: sp 0 +
STACK CFI 30230 .cfa: x29 32 +
STACK CFI 3025c .cfa: sp 32 +
STACK CFI 30264 .cfa: sp 0 +
STACK CFI INIT 30268 54 .cfa: sp 0 +
STACK CFI 30278 .cfa: sp 32 +
STACK CFI 30280 .cfa: x29 32 + x19: .cfa -8 + ^ x20: .cfa -16 + ^ .ra: .cfa -24 + ^ x29: .cfa -32 + ^
STACK CFI 302b0 .cfa: sp 32 +
STACK CFI 302b8 .cfa: sp 0 +
STACK CFI INIT 302bc 14 .cfa: sp 0 +
STACK CFI INIT 302d0 14 .cfa: sp 0 +
STACK CFI INIT 302e4 7c .cfa: sp 0 +
STACK CFI 302e8 .cfa: sp 48 +
STACK CFI 302f4 .cfa: x29 48 + x19: .cfa -8 + ^ x20: .cfa -16 + ^ x21: .cfa -32 + ^ .ra: .cfa -40 + ^ x29: .cfa -48 + ^
STACK CFI 30340 .cfa: sp 48 +
STACK CFI 3034c .cfa: sp 0 +
STACK CFI 30350 .cfa: sp 48 +
STACK CFI 3035c .cfa: sp 0 +
STACK CFI INIT 30360 14 .cfa: sp 0 +
STACK CFI INIT 30374 10 .cfa: sp 0 +
STACK CFI INIT 30384 30 .cfa: sp 0 +
STACK CFI 30388 .cfa: sp 32 +
STACK CFI 30390 .cfa: x29 32 + x19: .cfa -16 + ^ .ra: .cfa -24 + ^ x29: .cfa -32 + ^
STACK CFI 303a8 .cfa: sp 32 +
STACK CFI 303b0 .cfa: sp 0 +
STACK CFI INIT 303b4 7c .cfa: sp 0 +
STACK CFI 303b8 .cfa: sp 48 +
STACK CFI 303c4 .cfa: x29 48 + x19: .cfa -8 + ^ x20: .cfa -16 + ^ x21: .cfa -32 + ^ .ra: .cfa -40 + ^ x29: .cfa -48 + ^
STACK CFI 30410 .cfa: sp 48 +
STACK CFI 3041c .cfa: sp 0 +
STACK CFI 30420 .cfa: sp 48 +
STACK CFI 3042c .cfa: sp 0 +
STACK CFI INIT 30430 4 .cfa: sp 0 +
STACK CFI INIT 30434 4 .cfa: sp 0 +
STACK CFI INIT 30438 4 .cfa: sp 0 +
STACK CFI INIT 3043c 34 .cfa: sp 0 +
STACK CFI 30440 .cfa: sp 32 +
STACK CFI 30448 .cfa: x29 32 + x19: .cfa -16 + ^ .ra: .cfa -24 + ^ x29: .cfa -32 + ^
STACK CFI 30464 .cfa: sp 32 +
STACK CFI 3046c .cfa: sp 0 +
STACK CFI INIT 30470 14 .cfa: sp 0 +
STACK CFI INIT 30484 4 .cfa: sp 0 +
STACK CFI INIT 30488 4 .cfa: sp 0 +
STACK CFI INIT 3059c 1c .cfa: sp 0 +
STACK CFI INIT 305b8 c .cfa: sp 0 +
STACK CFI INIT 305c4 34 .cfa: sp 0 +
STACK CFI 305c8 .cfa: sp 16 +
STACK CFI 305cc .cfa: x29 16 + .ra: .cfa -8 + ^ x29: .cfa -16 + ^
STACK CFI INIT 305f8 3c .cfa: sp 0 +
STACK CFI 305fc .cfa: sp 32 +
STACK CFI 30604 .cfa: x29 32 + x19: .cfa -16 + ^ .ra: .cfa -24 + ^ x29: .cfa -32 + ^
STACK CFI 30618 .cfa: sp 32 +
STACK CFI 30620 .cfa: sp 0 +
STACK CFI 30624 .cfa: x29 32 +
STACK CFI 30628 .cfa: sp 32 +
STACK CFI 30630 .cfa: sp 0 +
STACK CFI INIT 30634 68 .cfa: sp 0 +
STACK CFI 30638 .cfa: sp 48 +
STACK CFI 30644 .cfa: x29 48 + x19: .cfa -8 + ^ x20: .cfa -16 + ^ x21: .cfa -32 + ^ .ra: .cfa -40 + ^ x29: .cfa -48 + ^
STACK CFI 3067c .cfa: sp 48 +
STACK CFI 30688 .cfa: sp 0 +
STACK CFI 3068c .cfa: sp 48 +
STACK CFI 30698 .cfa: sp 0 +
STACK CFI INIT 3069c 54 .cfa: sp 0 +
STACK CFI 306a0 .cfa: sp 32 +
STACK CFI 306a8 .cfa: x29 32 + x19: .cfa -8 + ^ x20: .cfa -16 + ^ .ra: .cfa -24 + ^ x29: .cfa -32 + ^
STACK CFI 306d8 .cfa: sp 32 +
STACK CFI 306e0 .cfa: sp 0 +
STACK CFI 306e4 .cfa: sp 32 +
STACK CFI 306ec .cfa: sp 0 +
STACK CFI INIT 306f0 14 .cfa: sp 0 +
STACK CFI 306f4 .cfa: sp 16 +
STACK CFI 306f8 .cfa: x29 16 + .ra: .cfa -8 + ^ x29: .cfa -16 + ^
STACK CFI INIT 30f7c 1c .cfa: sp 0 +
STACK CFI INIT 30f98 1c .cfa: sp 0 +
STACK CFI INIT 31334 50 .cfa: sp 0 +
STACK CFI 31338 .cfa: sp 32 +
STACK CFI 31340 .cfa: x29 32 + x19: .cfa -16 + ^ .ra: .cfa -24 + ^ x29: .cfa -32 + ^
STACK CFI 31358 .cfa: sp 32 +
STACK CFI 31360 .cfa: sp 0 +
STACK CFI 31364 .cfa: x29 32 +
STACK CFI 31378 .cfa: sp 32 +
STACK CFI 31380 .cfa: sp 0 +
STACK CFI INIT 313f8 7c .cfa: sp 0 +
STACK CFI 313fc .cfa: sp 48 +
STACK CFI 31408 .cfa: x29 48 + x19: .cfa -8 + ^ x20: .cfa -16 + ^ x21: .cfa -32 + ^ .ra: .cfa -40 + ^ x29: .cfa -48 + ^
STACK CFI 31454 .cfa: sp 48 +
STACK CFI 31460 .cfa: sp 0 +
STACK CFI 31464 .cfa: sp 48 +
STACK CFI 31470 .cfa: sp 0 +
STACK CFI INIT 31474 4 .cfa: sp 0 +
STACK CFI INIT 317f4 68 .cfa: sp 0 +
STACK CFI 317f8 .cfa: sp 32 +
STACK CFI 31800 .cfa: x29 32 + x19: .cfa -8 + ^ x20: .cfa -16 + ^ .ra: .cfa -24 + ^ x29: .cfa -32 + ^
STACK CFI 31818 .cfa: sp 32 +
STACK CFI 31820 .cfa: sp 0 +
STACK CFI 31824 .cfa: x29 32 +
STACK CFI 31850 .cfa: sp 32 +
STACK CFI 31858 .cfa: sp 0 +
STACK CFI INIT 3185c 14 .cfa: sp 0 +
STACK CFI 31860 .cfa: sp 16 +
STACK CFI 31864 .cfa: x29 16 + .ra: .cfa -8 + ^ x29: .cfa -16 + ^
STACK CFI INIT 31870 4 .cfa: sp 0 +
STACK CFI INIT 31874 14 .cfa: sp 0 +
STACK CFI INIT 31888 120 .cfa: sp 0 +
STACK CFI 3188c .cfa: sp 64 +
STACK CFI 3189c .cfa: x29 64 + x19: .cfa -8 + ^ x20: .cfa -16 + ^ x21: .cfa -24 + ^ x22: .cfa -32 + ^ x23: .cfa -40 + ^ x24: .cfa -48 + ^ .ra: .cfa -56 + ^ x29: .cfa -64 + ^
STACK CFI 31994 .cfa: sp 64 +
STACK CFI 319a4 .cfa: sp 0 +
STACK CFI INIT 319a8 d4 .cfa: sp 0 +
STACK CFI 319ac .cfa: sp 48 +
STACK CFI 319b8 .cfa: x29 48 + x19: .cfa -8 + ^ x20: .cfa -16 + ^ x21: .cfa -32 + ^ .ra: .cfa -40 + ^ x29: .cfa -48 + ^
STACK CFI 31a48 .cfa: sp 48 +
STACK CFI 31a54 .cfa: sp 0 +
STACK CFI 31a58 .cfa: x29 48 +
STACK CFI INIT 31a7c 3c8 .cfa: sp 0 +
STACK CFI INIT 31e44 8c .cfa: sp 0 +
STACK CFI 31e4c .cfa: sp 32 +
STACK CFI 31e54 .cfa: x29 32 + x19: .cfa -8 + ^ x20: .cfa -16 + ^ .ra: .cfa -24 + ^ x29: .cfa -32 + ^
STACK CFI 31e9c .cfa: sp 32 +
STACK CFI 31ea4 .cfa: sp 0 +
STACK CFI 31eac .cfa: x29 32 +
STACK CFI INIT 3213c 50 .cfa: sp 0 +
STACK CFI 32140 .cfa: sp 32 +
STACK CFI 32148 .cfa: x29 32 + x19: .cfa -16 + ^ .ra: .cfa -24 + ^ x29: .cfa -32 + ^
STACK CFI 32160 .cfa: sp 32 +
STACK CFI 32168 .cfa: sp 0 +
STACK CFI 3216c .cfa: x29 32 +
STACK CFI 32180 .cfa: sp 32 +
STACK CFI 32188 .cfa: sp 0 +
STACK CFI INIT 3218c 64 .cfa: sp 0 +
STACK CFI 32190 .cfa: sp 32 +
STACK CFI 32198 .cfa: x29 32 + x19: .cfa -16 + ^ .ra: .cfa -24 + ^ x29: .cfa -32 + ^
STACK CFI 321c4 .cfa: sp 32 +
STACK CFI 321cc .cfa: sp 0 +
STACK CFI 321d0 .cfa: x29 32 +
STACK CFI 321e4 .cfa: sp 32 +
STACK CFI 321ec .cfa: sp 0 +
STACK CFI INIT 32324 104 .cfa: sp 0 +
STACK CFI 32328 .cfa: sp 64 +
STACK CFI 32338 .cfa: x29 64 + x19: .cfa -8 + ^ x20: .cfa -16 + ^ x21: .cfa -24 + ^ x22: .cfa -32 + ^ x23: .cfa -48 + ^ .ra: .cfa -56 + ^ x29: .cfa -64 + ^
STACK CFI 32394 .cfa: sp 64 +
STACK CFI 323a4 .cfa: sp 0 +
STACK CFI 323a8 .cfa: x29 64 +
STACK CFI 323c4 .cfa: sp 64 +
STACK CFI 323d4 .cfa: sp 0 +
STACK CFI 323d8 .cfa: x29 64 +
STACK CFI 32414 .cfa: sp 64 +
STACK CFI 32424 .cfa: sp 0 +
STACK CFI INIT 32558 178 .cfa: sp 0 +
STACK CFI 3255c .cfa: sp 80 +
STACK CFI 32570 .cfa: x29 80 + x19: .cfa -8 + ^ x20: .cfa -16 + ^ x21: .cfa -24 + ^ x22: .cfa -32 + ^ x23: .cfa -40 + ^ x24: .cfa -48 + ^ x25: .cfa -56 + ^ x26: .cfa -64 + ^ .ra: .cfa -72 + ^ x29: .cfa -80 + ^
STACK CFI 326b8 .cfa: sp 80 +
STACK CFI 326cc .cfa: sp 0 +
STACK CFI INIT 326d0 1b0 .cfa: sp 0 +
STACK CFI INIT 32be0 4 .cfa: sp 0 +
STACK CFI INIT 32e58 a4 .cfa: sp 0 +
STACK CFI 32e5c .cfa: sp 32 +
STACK CFI 32e64 .cfa: x29 32 + x19: .cfa -16 + ^ .ra: .cfa -24 + ^ x29: .cfa -32 + ^
STACK CFI 32ef0 .cfa: sp 32 +
STACK CFI 32ef8 .cfa: sp 0 +
STACK CFI INIT 33c20 78 .cfa: sp 0 +
STACK CFI 33c24 .cfa: sp 48 +
STACK CFI 33c30 .cfa: x29 48 + x19: .cfa -8 + ^ x20: .cfa -16 + ^ x21: .cfa -32 + ^ .ra: .cfa -40 + ^ x29: .cfa -48 + ^
STACK CFI 33c78 .cfa: sp 48 +
STACK CFI 33c84 .cfa: sp 0 +
STACK CFI 33c88 .cfa: sp 48 +
STACK CFI 33c94 .cfa: sp 0 +
STACK CFI INIT 33c98 78 .cfa: sp 0 +
STACK CFI 33c9c .cfa: sp 48 +
STACK CFI 33ca8 .cfa: x29 48 + x19: .cfa -8 + ^ x20: .cfa -16 + ^ x21: .cfa -32 + ^ .ra: .cfa -40 + ^ x29: .cfa -48 + ^
STACK CFI 33cf0 .cfa: sp 48 +
STACK CFI 33cfc .cfa: sp 0 +
STACK CFI 33d00 .cfa: sp 48 +
STACK CFI 33d0c .cfa: sp 0 +
STACK CFI INIT 33d10 84 .cfa: sp 0 +
STACK CFI 33d14 .cfa: sp 48 +
STACK CFI 33d20 .cfa: x29 48 + x19: .cfa -8 + ^ x20: .cfa -16 + ^ x21: .cfa -24 + ^ x22: .cfa -32 + ^ .ra: .cfa -40 + ^ x29: .cfa -48 + ^
STACK CFI 33d74 .cfa: sp 48 +
STACK CFI 33d80 .cfa: sp 0 +
STACK CFI 33d84 .cfa: sp 48 +
STACK CFI 33d90 .cfa: sp 0 +
STACK CFI INIT 33db0 8c .cfa: sp 0 +
STACK CFI 33db4 .cfa: sp 48 +
STACK CFI 33dc0 .cfa: x29 48 + x19: .cfa -8 + ^ x20: .cfa -16 + ^ x21: .cfa -24 + ^ x22: .cfa -32 + ^ .ra: .cfa -40 + ^ x29: .cfa -48 + ^
STACK CFI 33df8 .cfa: sp 48 +
STACK CFI 33e04 .cfa: sp 0 +
STACK CFI 33e08 .cfa: x29 48 +
STACK CFI 33e2c .cfa: sp 48 +
STACK CFI 33e38 .cfa: sp 0 +
STACK CFI INIT 33e3c 78 .cfa: sp 0 +
STACK CFI 33e40 .cfa: sp 48 +
STACK CFI 33e4c .cfa: x29 48 + x19: .cfa -8 + ^ x20: .cfa -16 + ^ x21: .cfa -32 + ^ .ra: .cfa -40 + ^ x29: .cfa -48 + ^
STACK CFI 33e94 .cfa: sp 48 +
STACK CFI 33ea0 .cfa: sp 0 +
STACK CFI 33ea4 .cfa: sp 48 +
STACK CFI 33eb0 .cfa: sp 0 +
STACK CFI INIT 33eb4 8c .cfa: sp 0 +
STACK CFI 33eb8 .cfa: sp 48 +
STACK CFI 33ec4 .cfa: x29 48 + x19: .cfa -8 + ^ x20: .cfa -16 + ^ x21: .cfa -24 + ^ x22: .cfa -32 + ^ .ra: .cfa -40 + ^ x29: .cfa -48 + ^
STACK CFI 33efc .cfa: sp 48 +
STACK CFI 33f08 .cfa: sp 0 +
STACK CFI 33f0c .cfa: x29 48 +
STACK CFI 33f30 .cfa: sp 48 +
STACK CFI 33f3c .cfa: sp 0 +
STACK CFI INIT 33f40 78 .cfa: sp 0 +
STACK CFI 33f44 .cfa: sp 48 +
STACK CFI 33f50 .cfa: x29 48 + x19: .cfa -8 + ^ x20: .cfa -16 + ^ x21: .cfa -32 + ^ .ra: .cfa -40 + ^ x29: .cfa -48 + ^
STACK CFI 33f98 .cfa: sp 48 +
STACK CFI 33fa4 .cfa: sp 0 +
STACK CFI 33fa8 .cfa: sp 48 +
STACK CFI 33fb4 .cfa: sp 0 +
STACK CFI INIT 33fb8 104 .cfa: sp 0 +
STACK CFI 33fbc .cfa: sp 64 +
STACK CFI 33fcc .cfa: x29 64 + x19: .cfa -8 + ^ x20: .cfa -16 + ^ x21: .cfa -24 + ^ x22: .cfa -32 + ^ x23: .cfa -48 + ^ .ra: .cfa -56 + ^ x29: .cfa -64 + ^
STACK CFI 34094 .cfa: sp 64 +
STACK CFI 340a4 .cfa: sp 0 +
STACK CFI 340a8 .cfa: sp 64 +
STACK CFI 340b8 .cfa: sp 0 +
STACK CFI INIT 344b4 78 .cfa: sp 0 +
STACK CFI 344b8 .cfa: sp 48 +
STACK CFI 344c4 .cfa: x29 48 + x19: .cfa -8 + ^ x20: .cfa -16 + ^ x21: .cfa -32 + ^ .ra: .cfa -40 + ^ x29: .cfa -48 + ^
STACK CFI 3450c .cfa: sp 48 +
STACK CFI 34518 .cfa: sp 0 +
STACK CFI 3451c .cfa: sp 48 +
STACK CFI 34528 .cfa: sp 0 +
STACK CFI INIT 34548 90 .cfa: sp 0 +
STACK CFI 3454c .cfa: sp 48 +
STACK CFI 34558 .cfa: x29 48 + x19: .cfa -8 + ^ x20: .cfa -16 + ^ x21: .cfa -24 + ^ x22: .cfa -32 + ^ .ra: .cfa -40 + ^ x29: .cfa -48 + ^
STACK CFI 34590 .cfa: sp 48 +
STACK CFI 3459c .cfa: sp 0 +
STACK CFI 345a0 .cfa: x29 48 +
STACK CFI 345c8 .cfa: sp 48 +
STACK CFI 345d4 .cfa: sp 0 +
STACK CFI INIT 34670 3c .cfa: sp 0 +
STACK CFI 34674 .cfa: sp 32 +
STACK CFI 3467c .cfa: x29 32 + x19: .cfa -16 + ^ .ra: .cfa -24 + ^ x29: .cfa -32 + ^
STACK CFI 34694 .cfa: sp 32 +
STACK CFI 3469c .cfa: sp 0 +
STACK CFI 346a0 .cfa: sp 32 +
STACK CFI 346a8 .cfa: sp 0 +
STACK CFI INIT 346e4 78 .cfa: sp 0 +
STACK CFI 346e8 .cfa: sp 48 +
STACK CFI 346f4 .cfa: x29 48 + x19: .cfa -8 + ^ x20: .cfa -16 + ^ x21: .cfa -32 + ^ .ra: .cfa -40 + ^ x29: .cfa -48 + ^
STACK CFI 3473c .cfa: sp 48 +
STACK CFI 34748 .cfa: sp 0 +
STACK CFI 3474c .cfa: sp 48 +
STACK CFI 34758 .cfa: sp 0 +
STACK CFI INIT 3475c 78 .cfa: sp 0 +
STACK CFI 34760 .cfa: sp 48 +
STACK CFI 3476c .cfa: x29 48 + x19: .cfa -8 + ^ x20: .cfa -16 + ^ x21: .cfa -32 + ^ .ra: .cfa -40 + ^ x29: .cfa -48 + ^
STACK CFI 347b4 .cfa: sp 48 +
STACK CFI 347c0 .cfa: sp 0 +
STACK CFI 347c4 .cfa: sp 48 +
STACK CFI 347d0 .cfa: sp 0 +
STACK CFI INIT 347d4 78 .cfa: sp 0 +
STACK CFI 347d8 .cfa: sp 48 +
STACK CFI 347e4 .cfa: x29 48 + x19: .cfa -8 + ^ x20: .cfa -16 + ^ x21: .cfa -32 + ^ .ra: .cfa -40 + ^ x29: .cfa -48 + ^
STACK CFI 3482c .cfa: sp 48 +
STACK CFI 34838 .cfa: sp 0 +
STACK CFI 3483c .cfa: sp 48 +
STACK CFI 34848 .cfa: sp 0 +
STACK CFI INIT 3484c 78 .cfa: sp 0 +
STACK CFI 34850 .cfa: sp 48 +
STACK CFI 3485c .cfa: x29 48 + x19: .cfa -8 + ^ x20: .cfa -16 + ^ x21: .cfa -32 + ^ .ra: .cfa -40 + ^ x29: .cfa -48 + ^
STACK CFI 348a4 .cfa: sp 48 +
STACK CFI 348b0 .cfa: sp 0 +
STACK CFI 348b4 .cfa: sp 48 +
STACK CFI 348c0 .cfa: sp 0 +
STACK CFI INIT 34a90 2b8 .cfa: sp 0 +
STACK CFI 34a94 .cfa: sp 80 +
STACK CFI 34aa8 .cfa: x29 80 + x19: .cfa -8 + ^ x20: .cfa -16 + ^ x21: .cfa -24 + ^ x22: .cfa -32 + ^ x23: .cfa -40 + ^ x24: .cfa -48 + ^ x25: .cfa -64 + ^ .ra: .cfa -72 + ^ x29: .cfa -80 + ^
STACK CFI 34c54 .cfa: sp 80 +
STACK CFI 34c68 .cfa: sp 0 +
STACK CFI 34c6c .cfa: x29 80 +
STACK CFI 34d30 .cfa: sp 80 +
STACK CFI 34d44 .cfa: sp 0 +
STACK CFI INIT 34d48 80 .cfa: sp 0 +
STACK CFI 34d4c .cfa: sp 48 +
STACK CFI 34d58 .cfa: x29 48 + x19: .cfa -8 + ^ x20: .cfa -16 + ^ x21: .cfa -32 + ^ .ra: .cfa -40 + ^ x29: .cfa -48 + ^
STACK CFI 34da8 .cfa: sp 48 +
STACK CFI 34db4 .cfa: sp 0 +
STACK CFI 34db8 .cfa: sp 48 +
STACK CFI 34dc4 .cfa: sp 0 +
STACK CFI INIT 34dc8 80 .cfa: sp 0 +
STACK CFI 34dcc .cfa: sp 48 +
STACK CFI 34dd8 .cfa: x29 48 + x19: .cfa -8 + ^ x20: .cfa -16 + ^ x21: .cfa -32 + ^ .ra: .cfa -40 + ^ x29: .cfa -48 + ^
STACK CFI 34e28 .cfa: sp 48 +
STACK CFI 34e34 .cfa: sp 0 +
STACK CFI 34e38 .cfa: sp 48 +
STACK CFI 34e44 .cfa: sp 0 +
STACK CFI INIT 34fe8 2b8 .cfa: sp 0 +
STACK CFI INIT 352a0 1bc .cfa: sp 0 +
STACK CFI 352a4 .cfa: sp 64 +
STACK CFI 352b4 .cfa: x29 64 + x19: .cfa -8 + ^ x20: .cfa -16 + ^ x21: .cfa -24 + ^ x22: .cfa -32 + ^ x23: .cfa -48 + ^ .ra: .cfa -56 + ^ x29: .cfa -64 + ^
STACK CFI 353a4 .cfa: sp 64 +
STACK CFI 353b4 .cfa: sp 0 +
STACK CFI 353b8 .cfa: x29 64 +
STACK CFI INIT 3545c 80 .cfa: sp 0 +
STACK CFI 35460 .cfa: sp 48 +
STACK CFI 3546c .cfa: x29 48 + x19: .cfa -8 + ^ x20: .cfa -16 + ^ x21: .cfa -32 + ^ .ra: .cfa -40 + ^ x29: .cfa -48 + ^
STACK CFI 354bc .cfa: sp 48 +
STACK CFI 354c8 .cfa: sp 0 +
STACK CFI 354cc .cfa: sp 48 +
STACK CFI 354d8 .cfa: sp 0 +
STACK CFI INIT 354dc 98 .cfa: sp 0 +
STACK CFI 354e4 .cfa: sp 48 +
STACK CFI 354f0 .cfa: x29 48 + x19: .cfa -8 + ^ x20: .cfa -16 + ^ x21: .cfa -32 + ^ .ra: .cfa -40 + ^ x29: .cfa -48 + ^
STACK CFI 35540 .cfa: sp 0 + x19: x19 x20: x20 x21: x21 .ra: x30 x29: x29
STACK CFI 35544 .cfa: x29 48 + x19: .cfa -8 + ^ x20: .cfa -16 + ^ x21: .cfa -32 + ^ .ra: .cfa -40 + ^ x29: .cfa -48 + ^
STACK CFI 35564 .cfa: sp 48 +
STACK CFI 35570 .cfa: sp 0 +
STACK CFI INIT 35574 54 .cfa: sp 0 +
STACK CFI 3557c .cfa: sp 32 +
STACK CFI 35584 .cfa: x29 32 + x19: .cfa -8 + ^ x20: .cfa -16 + ^ .ra: .cfa -24 + ^ x29: .cfa -32 + ^
STACK CFI 355bc .cfa: sp 32 +
STACK CFI 355c4 .cfa: sp 0 +
STACK CFI INIT 355c8 54 .cfa: sp 0 +
STACK CFI 355d0 .cfa: sp 32 +
STACK CFI 355d8 .cfa: x29 32 + x19: .cfa -8 + ^ x20: .cfa -16 + ^ .ra: .cfa -24 + ^ x29: .cfa -32 + ^
STACK CFI 35610 .cfa: sp 32 +
STACK CFI 35618 .cfa: sp 0 +
STACK CFI INIT 356c4 54 .cfa: sp 0 +
STACK CFI 356cc .cfa: sp 32 +
STACK CFI 356d4 .cfa: x29 32 + x19: .cfa -8 + ^ x20: .cfa -16 + ^ .ra: .cfa -24 + ^ x29: .cfa -32 + ^
STACK CFI 3570c .cfa: sp 32 +
STACK CFI 35714 .cfa: sp 0 +
STACK CFI INIT 35718 a8 .cfa: sp 0 +
STACK CFI 35720 .cfa: sp 48 +
STACK CFI 3572c .cfa: x29 48 + x19: .cfa -8 + ^ x20: .cfa -16 + ^ x21: .cfa -24 + ^ x22: .cfa -32 + ^ .ra: .cfa -40 + ^ x29: .cfa -48 + ^
STACK CFI 357b0 .cfa: sp 48 +
STACK CFI 357bc .cfa: sp 0 +
STACK CFI INIT 357c0 54 .cfa: sp 0 +
STACK CFI 357c8 .cfa: sp 32 +
STACK CFI 357d0 .cfa: x29 32 + x19: .cfa -8 + ^ x20: .cfa -16 + ^ .ra: .cfa -24 + ^ x29: .cfa -32 + ^
STACK CFI 35808 .cfa: sp 32 +
STACK CFI 35810 .cfa: sp 0 +
STACK CFI INIT 3608c 1c .cfa: sp 0 +
STACK CFI INIT 360a8 1c .cfa: sp 0 +
STACK CFI INIT 36444 4 .cfa: sp 0 +
STACK CFI INIT 36b4c 4 .cfa: sp 0 +
STACK CFI INIT 37124 78 .cfa: sp 0 +
STACK CFI 37128 .cfa: sp 48 +
STACK CFI 37134 .cfa: x29 48 + x19: .cfa -8 + ^ x20: .cfa -16 + ^ x21: .cfa -32 + ^ .ra: .cfa -40 + ^ x29: .cfa -48 + ^
STACK CFI 3717c .cfa: sp 48 +
STACK CFI 37188 .cfa: sp 0 +
STACK CFI 3718c .cfa: sp 48 +
STACK CFI 37198 .cfa: sp 0 +
STACK CFI INIT 3719c 78 .cfa: sp 0 +
STACK CFI 371a0 .cfa: sp 48 +
STACK CFI 371ac .cfa: x29 48 + x19: .cfa -8 + ^ x20: .cfa -16 + ^ x21: .cfa -32 + ^ .ra: .cfa -40 + ^ x29: .cfa -48 + ^
STACK CFI 371f4 .cfa: sp 48 +
STACK CFI 37200 .cfa: sp 0 +
STACK CFI 37204 .cfa: sp 48 +
STACK CFI 37210 .cfa: sp 0 +
STACK CFI INIT 37214 44 .cfa: sp 0 +
STACK CFI 37218 .cfa: sp 32 +
STACK CFI 37220 .cfa: x29 32 + x19: .cfa -16 + ^ .ra: .cfa -24 + ^ x29: .cfa -32 + ^
STACK CFI 3724c .cfa: sp 32 +
STACK CFI 37254 .cfa: sp 0 +
STACK CFI INIT 37258 54 .cfa: sp 0 +
STACK CFI 37260 .cfa: sp 32 +
STACK CFI 37268 .cfa: x29 32 + x19: .cfa -8 + ^ x20: .cfa -16 + ^ .ra: .cfa -24 + ^ x29: .cfa -32 + ^
STACK CFI 372a0 .cfa: sp 32 +
STACK CFI 372a8 .cfa: sp 0 +
STACK CFI INIT 37b24 1c .cfa: sp 0 +
STACK CFI INIT 37b40 1c .cfa: sp 0 +
STACK CFI INIT 38174 4 .cfa: sp 0 +
STACK CFI INIT 3896c 4 .cfa: sp 0 +
STACK CFI INIT 38b6c 224 .cfa: sp 0 +
STACK CFI 38b70 .cfa: sp 80 +
STACK CFI 38b84 .cfa: x29 64 + x19: .cfa -8 + ^ x20: .cfa -16 + ^ x21: .cfa -24 + ^ x22: .cfa -32 + ^ x23: .cfa -48 + ^ .ra: .cfa -56 + ^ x29: .cfa -64 + ^ v8: .cfa -72 + ^ v9: .cfa -80 + ^
STACK CFI 38d78 .cfa: sp 80 +
STACK CFI 38d8c .cfa: sp 0 +
STACK CFI INIT 391cc 1c .cfa: sp 0 +
STACK CFI INIT 39548 4 .cfa: sp 0 +
STACK CFI INIT 3a760 1c .cfa: sp 0 +
STACK CFI INIT 3a77c 1c .cfa: sp 0 +
STACK CFI INIT 3abac 4 .cfa: sp 0 +
STACK CFI INIT 3b150 4 .cfa: sp 0 +
STACK CFI INIT 3b674 1c .cfa: sp 0 +
STACK CFI INIT 3b9f0 4 .cfa: sp 0 +
STACK CFI INIT 3c18c 1c .cfa: sp 0 +
STACK CFI INIT 3c514 4 .cfa: sp 0 +
STACK CFI INIT 3ce6c 44 .cfa: sp 0 +
STACK CFI 3ce70 .cfa: sp 32 +
STACK CFI 3ce78 .cfa: x29 32 + x19: .cfa -16 + ^ .ra: .cfa -24 + ^ x29: .cfa -32 + ^
STACK CFI 3cea4 .cfa: sp 32 +
STACK CFI 3ceac .cfa: sp 0 +
STACK CFI INIT 3ceb0 20 .cfa: sp 0 +
STACK CFI 3cec8 .cfa: sp 16 +
STACK CFI 3cecc .cfa: x29 16 + .ra: .cfa -8 + ^ x29: .cfa -16 + ^
STACK CFI INIT 3d098 5c .cfa: sp 0 +
STACK CFI 3d09c .cfa: sp 32 +
STACK CFI 3d0a4 .cfa: x29 32 + x19: .cfa -16 + ^ .ra: .cfa -24 + ^ x29: .cfa -32 + ^
STACK CFI 3d0e8 .cfa: sp 32 +
STACK CFI 3d0f0 .cfa: sp 0 +
STACK CFI INIT 3d0f4 64 .cfa: sp 0 +
STACK CFI 3d0f8 .cfa: sp 32 +
STACK CFI 3d100 .cfa: x29 32 + x19: .cfa -16 + ^ .ra: .cfa -24 + ^ x29: .cfa -32 + ^
STACK CFI 3d14c .cfa: sp 32 +
STACK CFI 3d154 .cfa: sp 0 +
STACK CFI INIT 3d158 4 .cfa: sp 0 +
STACK CFI INIT 3d15c 4 .cfa: sp 0 +
STACK CFI INIT 3d160 34 .cfa: sp 0 +
STACK CFI 3d164 .cfa: sp 32 +
STACK CFI 3d16c .cfa: x29 32 + x19: .cfa -16 + ^ .ra: .cfa -24 + ^ x29: .cfa -32 + ^
STACK CFI 3d188 .cfa: sp 32 +
STACK CFI 3d190 .cfa: sp 0 +
STACK CFI INIT 3d194 14 .cfa: sp 0 +
STACK CFI INIT 3d1a8 4 .cfa: sp 0 +
STACK CFI INIT 3d1ac 4 .cfa: sp 0 +
STACK CFI INIT 3d1b0 58 .cfa: sp 0 +
STACK CFI INIT 3d208 1c .cfa: sp 0 +
STACK CFI INIT 3d224 c .cfa: sp 0 +
STACK CFI INIT 3d230 34 .cfa: sp 0 +
STACK CFI 3d234 .cfa: sp 16 +
STACK CFI 3d238 .cfa: x29 16 + .ra: .cfa -8 + ^ x29: .cfa -16 + ^
STACK CFI INIT 3d264 24 .cfa: sp 0 +
STACK CFI 3d268 .cfa: sp 32 +
STACK CFI 3d270 .cfa: x29 32 + x19: .cfa -16 + ^ .ra: .cfa -24 + ^ x29: .cfa -32 + ^
STACK CFI 3d27c .cfa: sp 32 +
STACK CFI 3d284 .cfa: sp 0 +
STACK CFI INIT 3e528 24 .cfa: sp 0 +
STACK CFI 3e52c .cfa: sp 32 +
STACK CFI 3e534 .cfa: x29 32 + x19: .cfa -16 + ^ .ra: .cfa -24 + ^ x29: .cfa -32 + ^
STACK CFI 3e540 .cfa: sp 32 +
STACK CFI 3e548 .cfa: sp 0 +
STACK CFI INIT 3e54c 2c .cfa: sp 0 +
STACK CFI 3e550 .cfa: sp 32 +
STACK CFI 3e558 .cfa: x29 32 + x19: .cfa -16 + ^ .ra: .cfa -24 + ^ x29: .cfa -32 + ^
STACK CFI 3e56c .cfa: sp 32 +
STACK CFI 3e574 .cfa: sp 0 +
STACK CFI INIT 3e578 28 .cfa: sp 0 +
STACK CFI INIT 3e5a0 4 .cfa: sp 0 +
STACK CFI INIT 3e5a4 8 .cfa: sp 0 +
STACK CFI INIT 3e5ac 8 .cfa: sp 0 +
STACK CFI INIT 3e5b4 28 .cfa: sp 0 +
STACK CFI 3e5b8 .cfa: sp 32 +
STACK CFI 3e5c0 .cfa: x29 32 + x19: .cfa -16 + ^ .ra: .cfa -24 + ^ x29: .cfa -32 + ^
STACK CFI 3e5d0 .cfa: sp 32 +
STACK CFI 3e5d8 .cfa: sp 0 +
STACK CFI INIT 3e5dc 2c .cfa: sp 0 +
STACK CFI INIT 3e608 4 .cfa: sp 0 +
STACK CFI INIT 3e60c 4 .cfa: sp 0 +
STACK CFI INIT 3e610 4 .cfa: sp 0 +
STACK CFI INIT 3e614 4 .cfa: sp 0 +
STACK CFI INIT 3e618 4 .cfa: sp 0 +
STACK CFI INIT 3e61c 8 .cfa: sp 0 +
STACK CFI INIT 3e624 4 .cfa: sp 0 +
STACK CFI INIT 3e694 4 .cfa: sp 0 +
STACK CFI INIT 3e704 4 .cfa: sp 0 +
STACK CFI INIT 3e708 4 .cfa: sp 0 +
STACK CFI INIT 3e70c 4 .cfa: sp 0 +
STACK CFI INIT 3e710 38 .cfa: sp 0 +
STACK CFI 3e714 .cfa: sp 32 +
STACK CFI 3e71c .cfa: x29 32 + x19: .cfa -16 + ^ .ra: .cfa -24 + ^ x29: .cfa -32 + ^
STACK CFI 3e73c .cfa: sp 32 +
STACK CFI 3e744 .cfa: sp 0 +
STACK CFI INIT 3e748 18 .cfa: sp 0 +
STACK CFI INIT 3e760 4 .cfa: sp 0 +
STACK CFI INIT 3e764 4 .cfa: sp 0 +
STACK CFI INIT 3e768 110 .cfa: sp 0 +
STACK CFI 3e76c .cfa: sp 64 +
STACK CFI 3e77c .cfa: x29 64 + x19: .cfa -8 + ^ x20: .cfa -16 + ^ x21: .cfa -24 + ^ x22: .cfa -32 + ^ x23: .cfa -48 + ^ .ra: .cfa -56 + ^ x29: .cfa -64 + ^
STACK CFI 3e864 .cfa: sp 64 +
STACK CFI 3e874 .cfa: sp 0 +
STACK CFI INIT 3e878 1c .cfa: sp 0 +
STACK CFI INIT 3e894 c .cfa: sp 0 +
STACK CFI INIT 3e8a0 60 .cfa: sp 0 +
STACK CFI 3e8a4 .cfa: sp 32 +
STACK CFI 3e8ac .cfa: x29 32 + x19: .cfa -8 + ^ x20: .cfa -16 + ^ .ra: .cfa -24 + ^ x29: .cfa -32 + ^
STACK CFI 3e8cc .cfa: sp 32 +
STACK CFI 3e8d4 .cfa: sp 0 +
STACK CFI 3e8d8 .cfa: x29 32 +
STACK CFI 3e8f4 .cfa: sp 32 +
STACK CFI 3e8fc .cfa: sp 0 +
STACK CFI INIT 3e900 70 .cfa: sp 0 +
STACK CFI 3e904 .cfa: sp 32 +
STACK CFI 3e90c .cfa: x29 32 + x19: .cfa -8 + ^ x20: .cfa -16 + ^ .ra: .cfa -24 + ^ x29: .cfa -32 + ^
STACK CFI 3e934 .cfa: sp 32 +
STACK CFI 3e93c .cfa: sp 0 +
STACK CFI 3e940 .cfa: x29 32 +
STACK CFI 3e964 .cfa: sp 32 +
STACK CFI 3e96c .cfa: sp 0 +
STACK CFI INIT 3e970 10 .cfa: sp 0 +
STACK CFI INIT 3e980 30 .cfa: sp 0 +
STACK CFI 3e984 .cfa: sp 32 +
STACK CFI 3e98c .cfa: x29 32 + x19: .cfa -16 + ^ .ra: .cfa -24 + ^ x29: .cfa -32 + ^
STACK CFI 3e9a4 .cfa: sp 32 +
STACK CFI 3e9ac .cfa: sp 0 +
STACK CFI INIT 3e9b0 4 .cfa: sp 0 +
STACK CFI INIT 3e9b4 4 .cfa: sp 0 +
STACK CFI INIT 3ee38 1c .cfa: sp 0 +
STACK CFI INIT 3f184 4 .cfa: sp 0 +
STACK CFI INIT 3f4f8 8c .cfa: sp 0 +
STACK CFI 3f4fc .cfa: sp 32 +
STACK CFI 3f504 .cfa: x29 32 + x19: .cfa -16 + ^ .ra: .cfa -24 + ^ x29: .cfa -32 + ^
STACK CFI 3f578 .cfa: sp 32 +
STACK CFI 3f580 .cfa: sp 0 +
STACK CFI INIT 3f584 44 .cfa: sp 0 +
STACK CFI 3f588 .cfa: sp 32 +
STACK CFI 3f590 .cfa: x29 32 + x19: .cfa -16 + ^ .ra: .cfa -24 + ^ x29: .cfa -32 + ^
STACK CFI 3f5a0 .cfa: sp 32 +
STACK CFI 3f5a8 .cfa: sp 0 +
STACK CFI 3f5ac .cfa: x29 32 +
STACK CFI 3f5bc .cfa: sp 32 +
STACK CFI 3f5c4 .cfa: sp 0 +
STACK CFI INIT 3fc88 c .cfa: sp 0 +
STACK CFI 3fc8c .cfa: sp 16 +
STACK CFI 3fc90 .cfa: x29 16 + .ra: .cfa -8 + ^ x29: .cfa -16 + ^
STACK CFI INIT 3fce4 30 .cfa: sp 0 +
STACK CFI 3fce8 .cfa: sp 32 +
STACK CFI 3fcf0 .cfa: x29 32 + x19: .cfa -16 + ^ .ra: .cfa -24 + ^ x29: .cfa -32 + ^
STACK CFI 3fd08 .cfa: sp 32 +
STACK CFI 3fd10 .cfa: sp 0 +
STACK CFI INIT 3fd14 4 .cfa: sp 0 +
STACK CFI INIT 3fd18 14 .cfa: sp 0 +
STACK CFI INIT 3fd2c 3c .cfa: sp 0 +
STACK CFI 3fd30 .cfa: sp 32 +
STACK CFI 3fd38 .cfa: x29 32 + x19: .cfa -16 + ^ .ra: .cfa -24 + ^ x29: .cfa -32 + ^
STACK CFI 3fd44 .cfa: sp 32 +
STACK CFI 3fd4c .cfa: sp 0 +
STACK CFI 3fd50 .cfa: x29 32 +
STACK CFI 3fd5c .cfa: sp 32 +
STACK CFI 3fd64 .cfa: sp 0 +
STACK CFI INIT 3fd68 4c .cfa: sp 0 +
STACK CFI 3fd6c .cfa: sp 32 +
STACK CFI 3fd74 .cfa: x29 32 + x19: .cfa -8 + ^ x20: .cfa -16 + ^ .ra: .cfa -24 + ^ x29: .cfa -32 + ^
STACK CFI 3fd9c .cfa: sp 32 +
STACK CFI 3fda4 .cfa: sp 0 +
STACK CFI 3fda8 .cfa: sp 32 +
STACK CFI 3fdb0 .cfa: sp 0 +
STACK CFI INIT 3ffd4 64 .cfa: sp 0 +
STACK CFI 3ffd8 .cfa: sp 32 +
STACK CFI 3ffe0 .cfa: x29 32 + x19: .cfa -16 + ^ .ra: .cfa -24 + ^ x29: .cfa -32 + ^
STACK CFI 4000c .cfa: sp 32 +
STACK CFI 40014 .cfa: sp 0 +
STACK CFI 40018 .cfa: x29 32 +
STACK CFI 4002c .cfa: sp 32 +
STACK CFI 40034 .cfa: sp 0 +
STACK CFI INIT 40038 24 .cfa: sp 0 +
STACK CFI 4003c .cfa: sp 32 +
STACK CFI 40044 .cfa: x29 32 + x19: .cfa -16 + ^ .ra: .cfa -24 + ^ x29: .cfa -32 + ^
STACK CFI 40050 .cfa: sp 32 +
STACK CFI 40058 .cfa: sp 0 +
STACK CFI INIT 402b8 24 .cfa: sp 0 +
STACK CFI 402bc .cfa: sp 32 +
STACK CFI 402c4 .cfa: x29 32 + x19: .cfa -16 + ^ .ra: .cfa -24 + ^ x29: .cfa -32 + ^
STACK CFI 402d0 .cfa: sp 32 +
STACK CFI 402d8 .cfa: sp 0 +
STACK CFI INIT 402dc 24 .cfa: sp 0 +
STACK CFI 402e0 .cfa: sp 32 +
STACK CFI 402e8 .cfa: x29 32 + x19: .cfa -16 + ^ .ra: .cfa -24 + ^ x29: .cfa -32 + ^
STACK CFI 402f4 .cfa: sp 32 +
STACK CFI 402fc .cfa: sp 0 +
STACK CFI INIT 40300 8 .cfa: sp 0 +
STACK CFI INIT 40308 24 .cfa: sp 0 +
STACK CFI 4030c .cfa: sp 32 +
STACK CFI 40314 .cfa: x29 32 + x19: .cfa -16 + ^ .ra: .cfa -24 + ^ x29: .cfa -32 + ^
STACK CFI 40320 .cfa: sp 32 +
STACK CFI 40328 .cfa: sp 0 +
STACK CFI INIT 4032c 28 .cfa: sp 0 +
STACK CFI 40330 .cfa: sp 32 +
STACK CFI 40338 .cfa: x29 32 + x19: .cfa -16 + ^ .ra: .cfa -24 + ^ x29: .cfa -32 + ^
STACK CFI 40348 .cfa: sp 32 +
STACK CFI 40350 .cfa: sp 0 +
STACK CFI INIT 40654 8 .cfa: sp 0 +
STACK CFI INIT 4065c 24 .cfa: sp 0 +
STACK CFI 40660 .cfa: sp 32 +
STACK CFI 40668 .cfa: x29 32 + x19: .cfa -16 + ^ .ra: .cfa -24 + ^ x29: .cfa -32 + ^
STACK CFI 40674 .cfa: sp 32 +
STACK CFI 4067c .cfa: sp 0 +
STACK CFI INIT 40680 28 .cfa: sp 0 +
STACK CFI 40684 .cfa: sp 32 +
STACK CFI 4068c .cfa: x29 32 + x19: .cfa -16 + ^ .ra: .cfa -24 + ^ x29: .cfa -32 + ^
STACK CFI 4069c .cfa: sp 32 +
STACK CFI 406a4 .cfa: sp 0 +
STACK CFI INIT 4090c 8 .cfa: sp 0 +
STACK CFI INIT 40914 24 .cfa: sp 0 +
STACK CFI 40918 .cfa: sp 32 +
STACK CFI 40920 .cfa: x29 32 + x19: .cfa -16 + ^ .ra: .cfa -24 + ^ x29: .cfa -32 + ^
STACK CFI 4092c .cfa: sp 32 +
STACK CFI 40934 .cfa: sp 0 +
STACK CFI INIT 40938 28 .cfa: sp 0 +
STACK CFI 4093c .cfa: sp 32 +
STACK CFI 40944 .cfa: x29 32 + x19: .cfa -16 + ^ .ra: .cfa -24 + ^ x29: .cfa -32 + ^
STACK CFI 40954 .cfa: sp 32 +
STACK CFI 4095c .cfa: sp 0 +
STACK CFI INIT 40960 24 .cfa: sp 0 +
STACK CFI 40964 .cfa: sp 32 +
STACK CFI 4096c .cfa: x29 32 + x19: .cfa -16 + ^ .ra: .cfa -24 + ^ x29: .cfa -32 + ^
STACK CFI 40978 .cfa: sp 32 +
STACK CFI 40980 .cfa: sp 0 +
STACK CFI INIT 40984 8 .cfa: sp 0 +
STACK CFI INIT 4098c 24 .cfa: sp 0 +
STACK CFI 40990 .cfa: sp 32 +
STACK CFI 40998 .cfa: x29 32 + x19: .cfa -16 + ^ .ra: .cfa -24 + ^ x29: .cfa -32 + ^
STACK CFI 409a4 .cfa: sp 32 +
STACK CFI 409ac .cfa: sp 0 +
STACK CFI INIT 409b0 28 .cfa: sp 0 +
STACK CFI 409b4 .cfa: sp 32 +
STACK CFI 409bc .cfa: x29 32 + x19: .cfa -16 + ^ .ra: .cfa -24 + ^ x29: .cfa -32 + ^
STACK CFI 409cc .cfa: sp 32 +
STACK CFI 409d4 .cfa: sp 0 +
STACK CFI INIT 40c90 4 .cfa: sp 0 +
STACK CFI INIT 40c94 4 .cfa: sp 0 +
STACK CFI INIT 40ea0 4 .cfa: sp 0 +
STACK CFI INIT 40ea4 4 .cfa: sp 0 +
STACK CFI INIT 40ea8 4 .cfa: sp 0 +
STACK CFI INIT 40eac 4 .cfa: sp 0 +
STACK CFI INIT 40eb0 4 .cfa: sp 0 +
STACK CFI INIT 40eb4 4 .cfa: sp 0 +
STACK CFI INIT 40eb8 8 .cfa: sp 0 +
STACK CFI INIT 40ec0 8 .cfa: sp 0 +
STACK CFI INIT 40ec8 8 .cfa: sp 0 +
STACK CFI INIT 40ed0 4 .cfa: sp 0 +
STACK CFI INIT 40ed4 4 .cfa: sp 0 +
STACK CFI INIT 40ed8 4 .cfa: sp 0 +
STACK CFI INIT 40edc 8 .cfa: sp 0 +
STACK CFI INIT 40ee4 8 .cfa: sp 0 +
STACK CFI INIT 40eec 8 .cfa: sp 0 +
STACK CFI INIT 40ef4 8 .cfa: sp 0 +
STACK CFI INIT 40efc 4 .cfa: sp 0 +
STACK CFI INIT 40f00 8 .cfa: sp 0 +
STACK CFI INIT 40f08 8 .cfa: sp 0 +
STACK CFI INIT 40f10 8 .cfa: sp 0 +
STACK CFI INIT 40f18 8 .cfa: sp 0 +
STACK CFI INIT 40f20 4 .cfa: sp 0 +
STACK CFI INIT 40f24 8 .cfa: sp 0 +
STACK CFI INIT 40f2c 1f8 .cfa: sp 0 +
STACK CFI 40f30 .cfa: sp 112 +
STACK CFI 40f50 .cfa: x29 72 + x19: .cfa -8 + ^ x20: .cfa -16 + ^ x21: .cfa -24 + ^ x22: .cfa -32 + ^ x23: .cfa -40 + ^ x24: .cfa -48 + ^ x25: .cfa -56 + ^ .ra: .cfa -64 + ^ x29: .cfa -72 + ^ v8: .cfa -80 + ^ v9: .cfa -88 + ^ v10: .cfa -96 + ^
STACK CFI 410fc .cfa: sp 112 +
STACK CFI 4111c .cfa: sp 0 +
STACK CFI 41120 .cfa: x29 72 +
STACK CFI INIT 423d0 8 .cfa: sp 0 +
STACK CFI INIT 423d8 24 .cfa: sp 0 +
STACK CFI 423dc .cfa: sp 32 +
STACK CFI 423e4 .cfa: x29 32 + x19: .cfa -16 + ^ .ra: .cfa -24 + ^ x29: .cfa -32 + ^
STACK CFI 423f0 .cfa: sp 32 +
STACK CFI 423f8 .cfa: sp 0 +
STACK CFI INIT 423fc 28 .cfa: sp 0 +
STACK CFI 42400 .cfa: sp 32 +
STACK CFI 42408 .cfa: x29 32 + x19: .cfa -16 + ^ .ra: .cfa -24 + ^ x29: .cfa -32 + ^
STACK CFI 42418 .cfa: sp 32 +
STACK CFI 42420 .cfa: sp 0 +
STACK CFI INIT 42704 8 .cfa: sp 0 +
STACK CFI INIT 42a00 8 .cfa: sp 0 +
STACK CFI INIT 42c70 8 .cfa: sp 0 +
STACK CFI INIT 42ec4 4 .cfa: sp 0 +
STACK CFI INIT 42ec8 8 .cfa: sp 0 +
STACK CFI INIT 42ed0 8 .cfa: sp 0 +
STACK CFI INIT 42ed8 4 .cfa: sp 0 +
STACK CFI INIT 43a60 8 .cfa: sp 0 +
STACK CFI INIT 43a68 24 .cfa: sp 0 +
STACK CFI 43a6c .cfa: sp 32 +
STACK CFI 43a74 .cfa: x29 32 + x19: .cfa -16 + ^ .ra: .cfa -24 + ^ x29: .cfa -32 + ^
STACK CFI 43a80 .cfa: sp 32 +
STACK CFI 43a88 .cfa: sp 0 +
STACK CFI INIT 43a8c 28 .cfa: sp 0 +
STACK CFI 43a90 .cfa: sp 32 +
STACK CFI 43a98 .cfa: x29 32 + x19: .cfa -16 + ^ .ra: .cfa -24 + ^ x29: .cfa -32 + ^
STACK CFI 43aa8 .cfa: sp 32 +
STACK CFI 43ab0 .cfa: sp 0 +
STACK CFI INIT 43d00 4 .cfa: sp 0 +
STACK CFI INIT 43d04 4 .cfa: sp 0 +
STACK CFI INIT 43d08 8 .cfa: sp 0 +
STACK CFI INIT 43d10 4 .cfa: sp 0 +
STACK CFI INIT 43d14 8 .cfa: sp 0 +
STACK CFI INIT 43d1c c .cfa: sp 0 +
STACK CFI INIT 43d28 c .cfa: sp 0 +
STACK CFI INIT 43d34 8 .cfa: sp 0 +
STACK CFI INIT 43d3c 8 .cfa: sp 0 +
STACK CFI INIT 43d44 8 .cfa: sp 0 +
STACK CFI INIT 43d4c 8 .cfa: sp 0 +
STACK CFI INIT 43d54 4c .cfa: sp 0 +
STACK CFI 43d58 .cfa: sp 32 +
STACK CFI 43d60 .cfa: x29 32 + x19: .cfa -16 + ^ .ra: .cfa -24 + ^ x29: .cfa -32 + ^
STACK CFI 43d94 .cfa: sp 32 +
STACK CFI 43d9c .cfa: sp 0 +
STACK CFI INIT 44f40 4 .cfa: sp 0 +
STACK CFI INIT 44f44 14 .cfa: sp 0 +
STACK CFI INIT 45464 c .cfa: sp 0 +
STACK CFI INIT 45470 24c .cfa: sp 0 +
STACK CFI INIT 456bc a0 .cfa: sp 0 +
STACK CFI 456c8 .cfa: sp 32 +
STACK CFI 45720 .cfa: sp 0 +
STACK CFI 45724 .cfa: sp 32 +
STACK CFI 4572c .cfa: sp 0 +
STACK CFI 45730 .cfa: sp 32 +
STACK CFI 45744 .cfa: sp 0 +
STACK CFI 45748 .cfa: sp 32 +
STACK CFI 45758 .cfa: sp 0 +
STACK CFI INIT 4575c 38 .cfa: sp 0 +
STACK CFI 45768 .cfa: sp 32 +
STACK CFI 45790 .cfa: sp 0 +
STACK CFI INIT 45a28 7c .cfa: sp 0 +
STACK CFI 45a2c .cfa: sp 32 +
STACK CFI 45a34 .cfa: x29 32 + x19: .cfa -16 + ^ .ra: .cfa -24 + ^ x29: .cfa -32 + ^
STACK CFI 45a60 .cfa: sp 32 +
STACK CFI 45a68 .cfa: sp 0 +
STACK CFI 45a6c .cfa: x29 32 +
STACK CFI 45a98 .cfa: sp 32 +
STACK CFI 45aa0 .cfa: sp 0 +
STACK CFI INIT 45af4 2c .cfa: sp 0 +
STACK CFI 45af8 .cfa: sp 32 +
STACK CFI 45b00 .cfa: x29 32 + x19: .cfa -16 + ^ .ra: .cfa -24 + ^ x29: .cfa -32 + ^
STACK CFI 45b14 .cfa: sp 32 +
STACK CFI 45b1c .cfa: sp 0 +
STACK CFI INIT 462e0 64 .cfa: sp 0 +
STACK CFI 462e4 .cfa: sp 32 +
STACK CFI 462ec .cfa: x29 32 + x19: .cfa -16 + ^ .ra: .cfa -24 + ^ x29: .cfa -32 + ^
STACK CFI 46308 .cfa: sp 32 +
STACK CFI 46310 .cfa: sp 0 +
STACK CFI 46314 .cfa: x29 32 +
STACK CFI 46338 .cfa: sp 32 +
STACK CFI 46340 .cfa: sp 0 +
STACK CFI INIT 46344 570 .cfa: sp 0 +
STACK CFI 46348 .cfa: sp 176 +
STACK CFI 4635c .cfa: x29 64 + x19: .cfa -8 + ^ x20: .cfa -16 + ^ x21: .cfa -24 + ^ x22: .cfa -32 + ^ x23: .cfa -40 + ^ x24: .cfa -48 + ^ .ra: .cfa -56 + ^ x29: .cfa -64 + ^
STACK CFI 4658c .cfa: sp 176 +
STACK CFI 465a0 .cfa: sp 0 +
STACK CFI 465a4 .cfa: x29 64 +
STACK CFI 465f0 .cfa: sp 176 +
STACK CFI 46604 .cfa: sp 0 +
STACK CFI 46608 .cfa: x29 64 +
STACK CFI 46640 .cfa: sp 176 +
STACK CFI 46654 .cfa: sp 0 +
STACK CFI 46658 .cfa: x29 64 +
STACK CFI 46670 .cfa: sp 176 +
STACK CFI 46684 .cfa: sp 0 +
STACK CFI 46688 .cfa: x29 64 +
STACK CFI 466a8 .cfa: sp 176 +
STACK CFI 466bc .cfa: sp 0 +
STACK CFI 466c0 .cfa: x29 64 +
STACK CFI 466d8 .cfa: sp 176 +
STACK CFI 466ec .cfa: sp 0 +
STACK CFI 466f0 .cfa: x29 64 +
STACK CFI 46704 .cfa: sp 176 +
STACK CFI 46718 .cfa: sp 0 +
STACK CFI 4671c .cfa: x29 64 +
STACK CFI 46730 .cfa: sp 176 +
STACK CFI 46744 .cfa: sp 0 +
STACK CFI 46748 .cfa: x29 64 +
STACK CFI 46758 .cfa: sp 176 +
STACK CFI 4676c .cfa: sp 0 +
STACK CFI 46770 .cfa: x29 64 +
STACK CFI 46780 .cfa: sp 176 +
STACK CFI 46794 .cfa: sp 0 +
STACK CFI 46798 .cfa: x29 64 +
STACK CFI 467b0 .cfa: sp 176 +
STACK CFI 467c4 .cfa: sp 0 +
STACK CFI 467c8 .cfa: x29 64 +
STACK CFI 467dc .cfa: sp 176 +
STACK CFI 467f0 .cfa: sp 0 +
STACK CFI 467f4 .cfa: x29 64 +
STACK CFI 4680c .cfa: sp 176 +
STACK CFI 46820 .cfa: sp 0 +
STACK CFI 46824 .cfa: x29 64 +
STACK CFI 46850 .cfa: sp 176 +
STACK CFI 46864 .cfa: sp 0 +
STACK CFI 46868 .cfa: x29 64 +
STACK CFI 4687c .cfa: sp 176 +
STACK CFI 46890 .cfa: sp 0 +
STACK CFI 46894 .cfa: x29 64 +
STACK CFI INIT 468b4 228 .cfa: sp 0 +
STACK CFI INIT 46adc 2dc .cfa: sp 0 +
STACK CFI INIT 46db8 53c .cfa: sp 0 +
STACK CFI INIT 472f4 78 .cfa: sp 0 +
STACK CFI 472f8 .cfa: sp 48 +
STACK CFI 47304 .cfa: x29 48 + x19: .cfa -8 + ^ x20: .cfa -16 + ^ x21: .cfa -24 + ^ x22: .cfa -32 + ^ .ra: .cfa -40 + ^ x29: .cfa -48 + ^
STACK CFI 4734c .cfa: sp 48 +
STACK CFI 47358 .cfa: sp 0 +
STACK CFI 4735c .cfa: sp 48 +
STACK CFI 47368 .cfa: sp 0 +
STACK CFI INIT 4736c 8c .cfa: sp 0 +
STACK CFI 47370 .cfa: sp 32 +
STACK CFI 47378 .cfa: x29 32 + x19: .cfa -16 + ^ .ra: .cfa -24 + ^ x29: .cfa -32 + ^
STACK CFI 473ac .cfa: sp 32 +
STACK CFI 473b4 .cfa: sp 0 +
STACK CFI 473b8 .cfa: x29 32 +
STACK CFI 473ec .cfa: sp 32 +
STACK CFI 473f4 .cfa: sp 0 +
STACK CFI INIT 473f8 24 .cfa: sp 0 +
STACK CFI 473fc .cfa: sp 32 +
STACK CFI 47404 .cfa: x29 32 + x19: .cfa -16 + ^ .ra: .cfa -24 + ^ x29: .cfa -32 + ^
STACK CFI 47410 .cfa: sp 32 +
STACK CFI 47418 .cfa: sp 0 +
STACK CFI INIT 4741c 150 .cfa: sp 0 +
STACK CFI 47420 .cfa: sp 48 +
STACK CFI 4742c .cfa: x29 48 + x19: .cfa -8 + ^ x20: .cfa -16 + ^ x21: .cfa -24 + ^ x22: .cfa -32 + ^ .ra: .cfa -40 + ^ x29: .cfa -48 + ^
STACK CFI 4755c .cfa: sp 48 +
STACK CFI 47568 .cfa: sp 0 +
STACK CFI INIT 4756c 68 .cfa: sp 0 +
STACK CFI 47570 .cfa: sp 64 +
STACK CFI 4757c .cfa: x29 32 + x19: .cfa -16 + ^ .ra: .cfa -24 + ^ x29: .cfa -32 + ^
STACK CFI 475c0 .cfa: sp 64 +
STACK CFI 475cc .cfa: sp 0 +
STACK CFI 475d0 .cfa: x29 32 +
STACK CFI INIT 475d4 90 .cfa: sp 0 +
STACK CFI 475d8 .cfa: sp 32 +
STACK CFI 475e0 .cfa: x29 32 + x19: .cfa -8 + ^ x20: .cfa -16 + ^ .ra: .cfa -24 + ^ x29: .cfa -32 + ^
STACK CFI 4760c .cfa: sp 32 +
STACK CFI 47614 .cfa: sp 0 +
STACK CFI 47618 .cfa: x29 32 +
STACK CFI 47658 .cfa: sp 32 +
STACK CFI 47660 .cfa: sp 0 +
STACK CFI INIT 47664 ec .cfa: sp 0 +
STACK CFI 47668 .cfa: sp 112 +
STACK CFI 47678 .cfa: x29 48 + x19: .cfa -8 + ^ x20: .cfa -16 + ^ x21: .cfa -32 + ^ .ra: .cfa -40 + ^ x29: .cfa -48 + ^
STACK CFI 47738 .cfa: sp 112 +
STACK CFI 47748 .cfa: sp 0 +
STACK CFI 4774c .cfa: x29 48 +
STACK CFI INIT 47750 ec .cfa: sp 0 +
STACK CFI 47754 .cfa: sp 112 +
STACK CFI 47764 .cfa: x29 48 + x19: .cfa -8 + ^ x20: .cfa -16 + ^ x21: .cfa -32 + ^ .ra: .cfa -40 + ^ x29: .cfa -48 + ^
STACK CFI 47824 .cfa: sp 112 +
STACK CFI 47834 .cfa: sp 0 +
STACK CFI 47838 .cfa: x29 48 +
STACK CFI INIT 4783c 48 .cfa: sp 0 +
STACK CFI 47840 .cfa: sp 32 +
STACK CFI 47848 .cfa: x29 32 + x19: .cfa -8 + ^ x20: .cfa -16 + ^ .ra: .cfa -24 + ^ x29: .cfa -32 + ^
STACK CFI 4786c .cfa: sp 32 +
STACK CFI 47874 .cfa: sp 0 +
STACK CFI 47878 .cfa: x29 32 +
STACK CFI INIT 47884 98 .cfa: sp 0 +
STACK CFI 47888 .cfa: sp 80 +
STACK CFI 47894 .cfa: x29 32 + x19: .cfa -16 + ^ .ra: .cfa -24 + ^ x29: .cfa -32 + ^
STACK CFI 47908 .cfa: sp 80 +
STACK CFI 47914 .cfa: sp 0 +
STACK CFI 47918 .cfa: x29 32 +
STACK CFI INIT 4791c 260 .cfa: sp 0 +
STACK CFI 47920 .cfa: sp 112 +
STACK CFI 47938 .cfa: x29 80 + x19: .cfa -8 + ^ x20: .cfa -16 + ^ x21: .cfa -24 + ^ x22: .cfa -32 + ^ x23: .cfa -40 + ^ x24: .cfa -48 + ^ x25: .cfa -64 + ^ .ra: .cfa -72 + ^ x29: .cfa -80 + ^
STACK CFI 47b1c .cfa: sp 112 +
STACK CFI 47b34 .cfa: sp 0 +
STACK CFI 47b38 .cfa: x29 80 +
STACK CFI INIT 47b7c 150 .cfa: sp 0 +
STACK CFI 47b80 .cfa: sp 48 +
STACK CFI 47b8c .cfa: x29 48 + x19: .cfa -8 + ^ x20: .cfa -16 + ^ x21: .cfa -24 + ^ x22: .cfa -32 + ^ .ra: .cfa -40 + ^ x29: .cfa -48 + ^
STACK CFI 47cbc .cfa: sp 48 +
STACK CFI 47cc8 .cfa: sp 0 +
STACK CFI INIT 47ccc 1e0 .cfa: sp 0 +
STACK CFI 47cd0 .cfa: sp 96 +
STACK CFI 47ce4 .cfa: x29 64 + x19: .cfa -8 + ^ x20: .cfa -16 + ^ x21: .cfa -24 + ^ x22: .cfa -32 + ^ x23: .cfa -40 + ^ x24: .cfa -48 + ^ .ra: .cfa -56 + ^ x29: .cfa -64 + ^
STACK CFI 47e64 .cfa: sp 96 +
STACK CFI 47e78 .cfa: sp 0 +
STACK CFI 47e7c .cfa: x29 64 +
STACK CFI INIT 47eac 284 .cfa: sp 0 +
STACK CFI 47eb0 .cfa: sp 112 +
STACK CFI 47ec8 .cfa: x29 80 + x19: .cfa -8 + ^ x20: .cfa -16 + ^ x21: .cfa -24 + ^ x22: .cfa -32 + ^ x23: .cfa -40 + ^ x24: .cfa -48 + ^ x25: .cfa -64 + ^ .ra: .cfa -72 + ^ x29: .cfa -80 + ^
STACK CFI 480d0 .cfa: sp 112 +
STACK CFI 480e8 .cfa: sp 0 +
STACK CFI 480ec .cfa: x29 80 +
STACK CFI INIT 48130 208 .cfa: sp 0 +
STACK CFI 48134 .cfa: sp 96 +
STACK CFI 48148 .cfa: x29 64 + x19: .cfa -8 + ^ x20: .cfa -16 + ^ x21: .cfa -24 + ^ x22: .cfa -32 + ^ x23: .cfa -40 + ^ x24: .cfa -48 + ^ .ra: .cfa -56 + ^ x29: .cfa -64 + ^
STACK CFI 482f0 .cfa: sp 96 +
STACK CFI 48304 .cfa: sp 0 +
STACK CFI 48308 .cfa: x29 64 +
STACK CFI INIT 48338 360 .cfa: sp 0 +
STACK CFI 4833c .cfa: sp 160 +
STACK CFI 48358 .cfa: x29 96 + x19: .cfa -8 + ^ x20: .cfa -16 + ^ x21: .cfa -24 + ^ x22: .cfa -32 + ^ x23: .cfa -40 + ^ x24: .cfa -48 + ^ x25: .cfa -56 + ^ x26: .cfa -64 + ^ x27: .cfa -72 + ^ x28: .cfa -80 + ^ .ra: .cfa -88 + ^ x29: .cfa -96 + ^
STACK CFI 48624 .cfa: sp 160 +
STACK CFI 48640 .cfa: sp 0 +
STACK CFI 48644 .cfa: x29 96 +
STACK CFI INIT 48698 314 .cfa: sp 0 +
STACK CFI 4869c .cfa: sp 144 +
STACK CFI 486b8 .cfa: x29 96 + x19: .cfa -8 + ^ x20: .cfa -16 + ^ x21: .cfa -24 + ^ x22: .cfa -32 + ^ x23: .cfa -40 + ^ x24: .cfa -48 + ^ x25: .cfa -56 + ^ x26: .cfa -64 + ^ x27: .cfa -72 + ^ x28: .cfa -80 + ^ .ra: .cfa -88 + ^ x29: .cfa -96 + ^
STACK CFI 48934 .cfa: sp 144 +
STACK CFI 48950 .cfa: sp 0 +
STACK CFI 48954 .cfa: x29 96 +
STACK CFI INIT 489ac 290 .cfa: sp 0 +
STACK CFI 489b0 .cfa: sp 128 +
STACK CFI 489c8 .cfa: x29 80 + x19: .cfa -8 + ^ x20: .cfa -16 + ^ x21: .cfa -24 + ^ x22: .cfa -32 + ^ x23: .cfa -40 + ^ x24: .cfa -48 + ^ x25: .cfa -56 + ^ x26: .cfa -64 + ^ .ra: .cfa -72 + ^ x29: .cfa -80 + ^
STACK CFI 48c1c .cfa: sp 128 +
STACK CFI 48c34 .cfa: sp 0 +
STACK CFI 48c38 .cfa: x29 80 +
STACK CFI INIT 48c3c ddc .cfa: sp 0 +
STACK CFI 48c40 .cfa: sp 144 +
STACK CFI 48c5c .cfa: x29 96 + x19: .cfa -8 + ^ x20: .cfa -16 + ^ x21: .cfa -24 + ^ x22: .cfa -32 + ^ x23: .cfa -40 + ^ x24: .cfa -48 + ^ x25: .cfa -56 + ^ x26: .cfa -64 + ^ x27: .cfa -72 + ^ x28: .cfa -80 + ^ .ra: .cfa -88 + ^ x29: .cfa -96 + ^
STACK CFI 498f0 .cfa: sp 144 +
STACK CFI 4990c .cfa: sp 0 +
STACK CFI 49910 .cfa: x29 96 +
STACK CFI INIT 49a18 1d0 .cfa: sp 0 +
STACK CFI 49a1c .cfa: sp 80 +
STACK CFI 49a30 .cfa: x29 80 + x19: .cfa -8 + ^ x20: .cfa -16 + ^ x21: .cfa -24 + ^ x22: .cfa -32 + ^ x23: .cfa -40 + ^ x24: .cfa -48 + ^ x25: .cfa -64 + ^ .ra: .cfa -72 + ^ x29: .cfa -80 + ^
STACK CFI 49bd0 .cfa: sp 80 +
STACK CFI 49be4 .cfa: sp 0 +
STACK CFI INIT 49be8 23c .cfa: sp 0 +
STACK CFI 49bec .cfa: sp 112 +
STACK CFI 49c00 .cfa: x29 64 + x19: .cfa -8 + ^ x20: .cfa -16 + ^ x21: .cfa -24 + ^ x22: .cfa -32 + ^ x23: .cfa -40 + ^ x24: .cfa -48 + ^ .ra: .cfa -56 + ^ x29: .cfa -64 + ^
STACK CFI 49ddc .cfa: sp 112 +
STACK CFI 49df0 .cfa: sp 0 +
STACK CFI 49df4 .cfa: x29 64 +
STACK CFI INIT 49e24 30c .cfa: sp 0 +
STACK CFI 49e28 .cfa: sp 80 +
STACK CFI 49e3c .cfa: x29 64 + x19: .cfa -8 + ^ x20: .cfa -16 + ^ x21: .cfa -24 + ^ x22: .cfa -32 + ^ x23: .cfa -40 + ^ x24: .cfa -48 + ^ .ra: .cfa -56 + ^ x29: .cfa -64 + ^
STACK CFI 49fb8 .cfa: sp 80 +
STACK CFI 49fcc .cfa: sp 0 +
STACK CFI 49fd0 .cfa: x29 64 +
STACK CFI INIT 4a130 178 .cfa: sp 0 +
STACK CFI 4a134 .cfa: sp 80 +
STACK CFI 4a148 .cfa: x29 64 + x19: .cfa -8 + ^ x20: .cfa -16 + ^ x21: .cfa -24 + ^ x22: .cfa -32 + ^ x23: .cfa -40 + ^ x24: .cfa -48 + ^ .ra: .cfa -56 + ^ x29: .cfa -64 + ^
STACK CFI 4a28c .cfa: sp 80 +
STACK CFI 4a2a0 .cfa: sp 0 +
STACK CFI 4a2a4 .cfa: x29 64 +
STACK CFI INIT 4a2a8 178 .cfa: sp 0 +
STACK CFI 4a2ac .cfa: sp 80 +
STACK CFI 4a2c0 .cfa: x29 64 + x19: .cfa -8 + ^ x20: .cfa -16 + ^ x21: .cfa -24 + ^ x22: .cfa -32 + ^ x23: .cfa -40 + ^ x24: .cfa -48 + ^ .ra: .cfa -56 + ^ x29: .cfa -64 + ^
STACK CFI 4a404 .cfa: sp 80 +
STACK CFI 4a418 .cfa: sp 0 +
STACK CFI 4a41c .cfa: x29 64 +
STACK CFI INIT 4a420 240 .cfa: sp 0 +
STACK CFI 4a424 .cfa: sp 96 +
STACK CFI 4a43c .cfa: x29 96 + x19: .cfa -8 + ^ x20: .cfa -16 + ^ x21: .cfa -24 + ^ x22: .cfa -32 + ^ x23: .cfa -40 + ^ x24: .cfa -48 + ^ x25: .cfa -56 + ^ x26: .cfa -64 + ^ x27: .cfa -72 + ^ x28: .cfa -80 + ^ .ra: .cfa -88 + ^ x29: .cfa -96 + ^
STACK CFI 4a644 .cfa: sp 96 +
STACK CFI 4a65c .cfa: sp 0 +
STACK CFI INIT 4b2d4 154 .cfa: sp 0 +
STACK CFI 4b2d8 .cfa: sp 96 +
STACK CFI 4b2ec .cfa: x29 64 + x19: .cfa -8 + ^ x20: .cfa -16 + ^ x21: .cfa -24 + ^ x22: .cfa -32 + ^ x23: .cfa -48 + ^ .ra: .cfa -56 + ^ x29: .cfa -64 + ^
STACK CFI 4b3cc .cfa: sp 96 +
STACK CFI 4b3e0 .cfa: sp 0 +
STACK CFI 4b3e4 .cfa: x29 64 +
STACK CFI INIT 4b694 44 .cfa: sp 0 +
STACK CFI 4b698 .cfa: sp 32 +
STACK CFI 4b6a0 .cfa: x29 32 + x19: .cfa -16 + ^ .ra: .cfa -24 + ^ x29: .cfa -32 + ^
STACK CFI 4b6bc .cfa: sp 32 +
STACK CFI 4b6c4 .cfa: sp 0 +
STACK CFI 4b6c8 .cfa: x29 32 +
STACK CFI 4b6cc .cfa: sp 32 +
STACK CFI 4b6d4 .cfa: sp 0 +
STACK CFI INIT 4b6d8 1d0 .cfa: sp 0 +
STACK CFI 4b6dc .cfa: sp 64 +
STACK CFI 4b6ec .cfa: x29 64 + x19: .cfa -8 + ^ x20: .cfa -16 + ^ x21: .cfa -24 + ^ x22: .cfa -32 + ^ x23: .cfa -40 + ^ x24: .cfa -48 + ^ .ra: .cfa -56 + ^ x29: .cfa -64 + ^
STACK CFI 4b7ac .cfa: sp 64 +
STACK CFI 4b7bc .cfa: sp 0 +
STACK CFI 4b7c0 .cfa: x29 64 +
STACK CFI INIT 4b8a8 17c .cfa: sp 0 +
STACK CFI INIT 4bddc a0 .cfa: sp 0 +
STACK CFI 4bde0 .cfa: sp 48 +
STACK CFI 4bdec .cfa: x29 48 + x19: .cfa -8 + ^ x20: .cfa -16 + ^ x21: .cfa -24 + ^ x22: .cfa -32 + ^ .ra: .cfa -40 + ^ x29: .cfa -48 + ^
STACK CFI 4be58 .cfa: sp 48 +
STACK CFI 4be64 .cfa: sp 0 +
STACK CFI 4be68 .cfa: sp 48 +
STACK CFI 4be74 .cfa: sp 0 +
STACK CFI 4be78 .cfa: x29 48 +
STACK CFI INIT 4cb30 158 .cfa: sp 0 +
STACK CFI 4cb34 .cfa: sp 96 +
STACK CFI 4cb48 .cfa: x29 64 + x19: .cfa -8 + ^ x20: .cfa -16 + ^ x21: .cfa -24 + ^ x22: .cfa -32 + ^ x23: .cfa -48 + ^ .ra: .cfa -56 + ^ x29: .cfa -64 + ^
STACK CFI 4cc2c .cfa: sp 96 +
STACK CFI 4cc40 .cfa: sp 0 +
STACK CFI 4cc44 .cfa: x29 64 +
STACK CFI INIT 4cc88 190 .cfa: sp 0 +
STACK CFI INIT 4d914 1dc .cfa: sp 0 +
STACK CFI 4d918 .cfa: sp 80 +
STACK CFI 4d92c .cfa: x29 80 + x19: .cfa -8 + ^ x20: .cfa -16 + ^ x21: .cfa -24 + ^ x22: .cfa -32 + ^ x23: .cfa -40 + ^ x24: .cfa -48 + ^ x25: .cfa -64 + ^ .ra: .cfa -72 + ^ x29: .cfa -80 + ^
STACK CFI 4dad8 .cfa: sp 80 +
STACK CFI 4daec .cfa: sp 0 +
STACK CFI INIT 4ef20 124 .cfa: sp 0 +
STACK CFI 4ef50 .cfa: sp 32 +
STACK CFI 4ef58 .cfa: x29 32 + x19: .cfa -8 + ^ x20: .cfa -16 + ^ .ra: .cfa -24 + ^ x29: .cfa -32 + ^
STACK CFI 4f038 .cfa: sp 32 +
STACK CFI 4f040 .cfa: sp 0 +
STACK CFI INIT 4f7a0 320 .cfa: sp 0 +
STACK CFI 4f7a4 .cfa: sp 64 +
STACK CFI 4f7b4 .cfa: x29 64 + x19: .cfa -8 + ^ x20: .cfa -16 + ^ x21: .cfa -24 + ^ x22: .cfa -32 + ^ x23: .cfa -40 + ^ x24: .cfa -48 + ^ .ra: .cfa -56 + ^ x29: .cfa -64 + ^
STACK CFI 4f830 .cfa: sp 64 +
STACK CFI 4f840 .cfa: sp 0 +
STACK CFI 4f844 .cfa: x29 64 +
STACK CFI 4fa18 .cfa: sp 64 +
STACK CFI 4fa28 .cfa: sp 0 +
STACK CFI 4fa2c .cfa: x29 64 +
STACK CFI 4fa3c .cfa: sp 64 +
STACK CFI 4fa4c .cfa: sp 0 +
STACK CFI 4fa50 .cfa: x29 64 +
STACK CFI INIT 4fac0 a0 .cfa: sp 0 +
STACK CFI 4fac4 .cfa: sp 48 +
STACK CFI 4fad0 .cfa: x29 48 + x19: .cfa -8 + ^ x20: .cfa -16 + ^ x21: .cfa -24 + ^ x22: .cfa -32 + ^ .ra: .cfa -40 + ^ x29: .cfa -48 + ^
STACK CFI 4fb3c .cfa: sp 48 +
STACK CFI 4fb48 .cfa: sp 0 +
STACK CFI 4fb4c .cfa: sp 48 +
STACK CFI 4fb58 .cfa: sp 0 +
STACK CFI 4fb5c .cfa: x29 48 +
STACK CFI INIT 50a10 160 .cfa: sp 0 +
STACK CFI 50a14 .cfa: sp 64 +
STACK CFI 50a24 .cfa: x29 64 + x19: .cfa -8 + ^ x20: .cfa -16 + ^ x21: .cfa -24 + ^ x22: .cfa -32 + ^ x23: .cfa -48 + ^ .ra: .cfa -56 + ^ x29: .cfa -64 + ^
STACK CFI 50b1c .cfa: sp 64 +
STACK CFI 50b2c .cfa: sp 0 +
STACK CFI 50b30 .cfa: x29 64 +
STACK CFI INIT 50b70 214 .cfa: sp 0 +
STACK CFI 50b74 .cfa: sp 128 +
STACK CFI 50b90 .cfa: x29 96 + x19: .cfa -8 + ^ x20: .cfa -16 + ^ x21: .cfa -24 + ^ x22: .cfa -32 + ^ x23: .cfa -40 + ^ x24: .cfa -48 + ^ x25: .cfa -56 + ^ x26: .cfa -64 + ^ x27: .cfa -80 + ^ .ra: .cfa -88 + ^ x29: .cfa -96 + ^
STACK CFI 50d0c .cfa: sp 128 +
STACK CFI 50d28 .cfa: sp 0 +
STACK CFI 50d2c .cfa: x29 96 +
STACK CFI INIT 52a20 290 .cfa: sp 0 +
STACK CFI 52a24 .cfa: sp 16 +
STACK CFI 52a28 .cfa: x29 16 + .ra: .cfa -8 + ^ x29: .cfa -16 + ^
STACK CFI 52ab4 .cfa: sp 16 +
STACK CFI 52ab8 .cfa: sp 0 +
STACK CFI 52abc .cfa: x29 16 +
STACK CFI 52b0c .cfa: sp 16 +
STACK CFI 52b10 .cfa: sp 0 +
STACK CFI 52b14 .cfa: x29 16 +
STACK CFI 52c78 .cfa: sp 16 +
STACK CFI 52c7c .cfa: sp 0 +
STACK CFI 52c80 .cfa: x29 16 +
STACK CFI INIT 52cb0 158 .cfa: sp 0 +
STACK CFI 52cb4 .cfa: sp 112 +
STACK CFI 52cd0 .cfa: x29 96 + x19: .cfa -8 + ^ x20: .cfa -16 + ^ x21: .cfa -24 + ^ x22: .cfa -32 + ^ x23: .cfa -40 + ^ x24: .cfa -48 + ^ x25: .cfa -56 + ^ x26: .cfa -64 + ^ x27: .cfa -72 + ^ x28: .cfa -80 + ^ .ra: .cfa -88 + ^ x29: .cfa -96 + ^
STACK CFI 52db8 .cfa: sp 112 +
STACK CFI 52dbc .cfa: x29 96 +
STACK CFI 52dc4 .cfa: sp 112 +
STACK CFI 52de0 .cfa: sp 0 +
STACK CFI 52de4 .cfa: x29 96 +
STACK CFI 52e04 .cfa: sp 112 +
STACK CFI INIT 52e08 e54 .cfa: sp 0 +
STACK CFI 52e0c .cfa: sp 192 +
STACK CFI 52e28 .cfa: x29 96 + x19: .cfa -8 + ^ x20: .cfa -16 + ^ x21: .cfa -24 + ^ x22: .cfa -32 + ^ x23: .cfa -40 + ^ x24: .cfa -48 + ^ x25: .cfa -56 + ^ x26: .cfa -64 + ^ x27: .cfa -72 + ^ x28: .cfa -80 + ^ .ra: .cfa -88 + ^ x29: .cfa -96 + ^
STACK CFI 53b44 .cfa: sp 192 +
STACK CFI 53b60 .cfa: sp 0 +
STACK CFI 53b64 .cfa: x29 96 +
STACK CFI INIT 53c5c 1068 .cfa: sp 0 +
STACK CFI 53c60 .cfa: sp 288 +
STACK CFI 53c7c .cfa: x29 96 + x19: .cfa -8 + ^ x20: .cfa -16 + ^ x21: .cfa -24 + ^ x22: .cfa -32 + ^ x23: .cfa -40 + ^ x24: .cfa -48 + ^ x25: .cfa -56 + ^ x26: .cfa -64 + ^ x27: .cfa -72 + ^ x28: .cfa -80 + ^ .ra: .cfa -88 + ^ x29: .cfa -96 + ^
STACK CFI 54a0c .cfa: sp 288 +
STACK CFI 54a28 .cfa: sp 0 +
STACK CFI 54a2c .cfa: x29 96 +
STACK CFI INIT 54cc4 520 .cfa: sp 0 +
STACK CFI 54cc8 .cfa: sp 144 +
STACK CFI 54ce4 .cfa: x29 96 + x19: .cfa -8 + ^ x20: .cfa -16 + ^ x21: .cfa -24 + ^ x22: .cfa -32 + ^ x23: .cfa -40 + ^ x24: .cfa -48 + ^ x25: .cfa -56 + ^ x26: .cfa -64 + ^ x27: .cfa -72 + ^ x28: .cfa -80 + ^ .ra: .cfa -88 + ^ x29: .cfa -96 + ^
STACK CFI 551c0 .cfa: sp 144 +
STACK CFI 551dc .cfa: sp 0 +
STACK CFI 551e0 .cfa: x29 96 +
STACK CFI INIT 55b84 1374 .cfa: sp 0 +
STACK CFI 55b88 .cfa: sp 224 +
STACK CFI 55ba4 .cfa: x29 96 + x19: .cfa -8 + ^ x20: .cfa -16 + ^ x21: .cfa -24 + ^ x22: .cfa -32 + ^ x23: .cfa -40 + ^ x24: .cfa -48 + ^ x25: .cfa -56 + ^ x26: .cfa -64 + ^ x27: .cfa -72 + ^ x28: .cfa -80 + ^ .ra: .cfa -88 + ^ x29: .cfa -96 + ^
STACK CFI 56ed4 .cfa: sp 224 +
STACK CFI 56ef0 .cfa: sp 0 +
STACK CFI 56ef4 .cfa: x29 96 +
STACK CFI INIT 56ef8 1b8 .cfa: sp 0 +
STACK CFI INIT 2adfc 138 .cfa: sp 0 +
STACK CFI 2ae00 .cfa: sp 144 +
STACK CFI 2ae0c .cfa: x29 32 + x19: .cfa -8 + ^ x20: .cfa -16 + ^ .ra: .cfa -24 + ^ x29: .cfa -32 + ^
STACK CFI 2aed0 .cfa: sp 144 +
STACK CFI 2aedc .cfa: sp 0 +
STACK CFI 2aee0 .cfa: x29 32 +
STACK CFI INIT 2b660 640 .cfa: sp 0 +
STACK CFI 2b664 .cfa: sp 240 +
STACK CFI 2b680 .cfa: x29 96 + x19: .cfa -8 + ^ x20: .cfa -16 + ^ x21: .cfa -24 + ^ x22: .cfa -32 + ^ x23: .cfa -40 + ^ x24: .cfa -48 + ^ x25: .cfa -56 + ^ x26: .cfa -64 + ^ x27: .cfa -80 + ^ .ra: .cfa -88 + ^ x29: .cfa -96 + ^
STACK CFI 2bb08 .cfa: sp 240 +
STACK CFI 2bb24 .cfa: sp 0 +
STACK CFI 2bb28 .cfa: x29 96 +
STACK CFI INIT 2bcf0 224 .cfa: sp 0 +
STACK CFI 2bcf4 .cfa: sp 192 +
STACK CFI 2bd04 .cfa: x29 48 + x19: .cfa -8 + ^ x20: .cfa -16 + ^ x21: .cfa -24 + ^ x22: .cfa -32 + ^ .ra: .cfa -40 + ^ x29: .cfa -48 + ^
STACK CFI 2be8c .cfa: sp 192 +
STACK CFI 2be9c .cfa: sp 0 +
STACK CFI 2bea0 .cfa: x29 48 +
STACK CFI INIT 2c00c 4cc .cfa: sp 0 +
STACK CFI 2c010 .cfa: sp 176 +
STACK CFI 2c028 .cfa: x29 64 + x19: .cfa -8 + ^ x20: .cfa -16 + ^ x21: .cfa -24 + ^ x22: .cfa -32 + ^ x23: .cfa -40 + ^ x24: .cfa -48 + ^ .ra: .cfa -56 + ^ x29: .cfa -64 + ^ v8: .cfa -80 + ^
STACK CFI 2c41c .cfa: sp 176 +
STACK CFI 2c434 .cfa: sp 0 +
STACK CFI 2c438 .cfa: x29 64 +
STACK CFI INIT 2c5a4 15c .cfa: sp 0 +
STACK CFI 2c5a8 .cfa: sp 96 +
STACK CFI 2c5b8 .cfa: x29 48 + x19: .cfa -8 + ^ x20: .cfa -16 + ^ x21: .cfa -32 + ^ .ra: .cfa -40 + ^ x29: .cfa -48 + ^
STACK CFI 2c650 .cfa: sp 96 +
STACK CFI 2c660 .cfa: sp 0 +
STACK CFI 2c664 .cfa: x29 48 +
STACK CFI INIT 2c700 774 .cfa: sp 0 +
STACK CFI 2c704 .cfa: sp 352 +
STACK CFI 2c720 .cfa: x29 96 + x19: .cfa -8 + ^ x20: .cfa -16 + ^ x21: .cfa -24 + ^ x22: .cfa -32 + ^ x23: .cfa -40 + ^ x24: .cfa -48 + ^ x25: .cfa -56 + ^ x26: .cfa -64 + ^ x27: .cfa -72 + ^ x28: .cfa -80 + ^ .ra: .cfa -88 + ^ x29: .cfa -96 + ^
STACK CFI 2ccfc .cfa: sp 352 +
STACK CFI 2cd18 .cfa: sp 0 +
STACK CFI 2cd1c .cfa: x29 96 +
STACK CFI INIT 2cf7c e8 .cfa: sp 0 +
STACK CFI 2cf80 .cfa: sp 80 +
STACK CFI 2cf90 .cfa: x29 48 + x19: .cfa -8 + ^ x20: .cfa -16 + ^ x21: .cfa -32 + ^ .ra: .cfa -40 + ^ x29: .cfa -48 + ^
STACK CFI 2d028 .cfa: sp 80 +
STACK CFI 2d038 .cfa: sp 0 +
STACK CFI 2d03c .cfa: x29 48 +
STACK CFI INIT 2d06c 168 .cfa: sp 0 +
STACK CFI 2d070 .cfa: sp 384 +
STACK CFI 2d084 .cfa: x29 64 + x19: .cfa -8 + ^ x20: .cfa -16 + ^ x21: .cfa -24 + ^ x22: .cfa -32 + ^ x23: .cfa -40 + ^ x28: .cfa -48 + ^ .ra: .cfa -56 + ^ x29: .cfa -64 + ^
STACK CFI 2d17c .cfa: sp 384 +
STACK CFI 2d190 .cfa: sp 0 +
STACK CFI 2d194 .cfa: x29 64 +
STACK CFI INIT 2d208 12c .cfa: sp 0 +
STACK CFI 2d20c .cfa: sp 80 +
STACK CFI 2d220 .cfa: x29 80 + x19: .cfa -8 + ^ x20: .cfa -16 + ^ x21: .cfa -24 + ^ x22: .cfa -32 + ^ x23: .cfa -40 + ^ x24: .cfa -48 + ^ x25: .cfa -56 + ^ x26: .cfa -64 + ^ .ra: .cfa -72 + ^ x29: .cfa -80 + ^
STACK CFI 2d2e8 .cfa: sp 80 +
STACK CFI 2d2fc .cfa: sp 0 +
STACK CFI 2d300 .cfa: x29 80 +
STACK CFI INIT 2d3d8 1a4 .cfa: sp 0 +
STACK CFI 2d3dc .cfa: sp 112 +
STACK CFI 2d3f4 .cfa: x29 80 + x19: .cfa -8 + ^ x20: .cfa -16 + ^ x21: .cfa -24 + ^ x22: .cfa -32 + ^ x23: .cfa -40 + ^ x24: .cfa -48 + ^ x25: .cfa -56 + ^ x26: .cfa -64 + ^ .ra: .cfa -72 + ^ x29: .cfa -80 + ^
STACK CFI 2d4e4 .cfa: sp 112 +
STACK CFI 2d4fc .cfa: sp 0 +
STACK CFI 2d500 .cfa: x29 80 +
STACK CFI INIT 2d57c 1dc .cfa: sp 0 +
STACK CFI 2d580 .cfa: sp 128 +
STACK CFI 2d59c .cfa: x29 96 + x19: .cfa -8 + ^ x20: .cfa -16 + ^ x21: .cfa -24 + ^ x22: .cfa -32 + ^ x23: .cfa -40 + ^ x24: .cfa -48 + ^ x25: .cfa -56 + ^ x26: .cfa -64 + ^ x27: .cfa -80 + ^ .ra: .cfa -88 + ^ x29: .cfa -96 + ^
STACK CFI 2d708 .cfa: sp 128 +
STACK CFI 2d724 .cfa: sp 0 +
STACK CFI 2d728 .cfa: x29 96 +
STACK CFI INIT 2d76c 50 .cfa: sp 0 +
STACK CFI 2d770 .cfa: sp 32 +
STACK CFI 2d778 .cfa: x29 32 + x19: .cfa -8 + ^ x20: .cfa -16 + ^ .ra: .cfa -24 + ^ x29: .cfa -32 + ^
STACK CFI INIT 2d820 178 .cfa: sp 0 +
STACK CFI 2d824 .cfa: sp 80 +
STACK CFI 2d838 .cfa: x29 80 + x19: .cfa -8 + ^ x20: .cfa -16 + ^ x21: .cfa -24 + ^ x22: .cfa -32 + ^ x23: .cfa -40 + ^ x24: .cfa -48 + ^ x25: .cfa -64 + ^ .ra: .cfa -72 + ^ x29: .cfa -80 + ^
STACK CFI 2d964 .cfa: sp 80 +
STACK CFI 2d978 .cfa: sp 0 +
STACK CFI 2d97c .cfa: x29 80 +
STACK CFI INIT 2dd34 294 .cfa: sp 0 +
STACK CFI 2dd38 .cfa: sp 160 +
STACK CFI 2dd4c .cfa: x29 64 + x19: .cfa -8 + ^ x20: .cfa -16 + ^ x21: .cfa -24 + ^ x22: .cfa -32 + ^ x23: .cfa -48 + ^ .ra: .cfa -56 + ^ x29: .cfa -64 + ^
STACK CFI 2dec0 .cfa: sp 160 +
STACK CFI 2ded4 .cfa: sp 0 +
STACK CFI 2ded8 .cfa: x29 64 +
STACK CFI INIT 2dfc8 228 .cfa: sp 0 +
STACK CFI 2dfcc .cfa: sp 160 +
STACK CFI 2dfe0 .cfa: x29 64 + x19: .cfa -8 + ^ x20: .cfa -16 + ^ x21: .cfa -24 + ^ x22: .cfa -32 + ^ x23: .cfa -48 + ^ .ra: .cfa -56 + ^ x29: .cfa -64 + ^
STACK CFI 2e18c .cfa: sp 160 +
STACK CFI 2e1a0 .cfa: sp 0 +
STACK CFI 2e1a4 .cfa: x29 64 +
STACK CFI INIT 2e1f0 154 .cfa: sp 0 +
STACK CFI 2e1f4 .cfa: sp 112 +
STACK CFI 2e204 .cfa: x29 48 + x19: .cfa -8 + ^ x20: .cfa -16 + ^ x21: .cfa -24 + ^ x22: .cfa -32 + ^ .ra: .cfa -40 + ^ x29: .cfa -48 + ^
STACK CFI 2e2f8 .cfa: sp 112 +
STACK CFI 2e308 .cfa: sp 0 +
STACK CFI 2e30c .cfa: x29 48 +
STACK CFI INIT 2e344 204 .cfa: sp 0 +
STACK CFI 2e348 .cfa: sp 144 +
STACK CFI 2e360 .cfa: x29 80 + x19: .cfa -8 + ^ x20: .cfa -16 + ^ x21: .cfa -24 + ^ x22: .cfa -32 + ^ x23: .cfa -40 + ^ x24: .cfa -48 + ^ x25: .cfa -64 + ^ .ra: .cfa -72 + ^ x29: .cfa -80 + ^
STACK CFI 2e504 .cfa: sp 144 +
STACK CFI 2e51c .cfa: sp 0 +
STACK CFI 2e520 .cfa: x29 80 +
STACK CFI INIT 2e548 204 .cfa: sp 0 +
STACK CFI 2e54c .cfa: sp 144 +
STACK CFI 2e564 .cfa: x29 80 + x19: .cfa -8 + ^ x20: .cfa -16 + ^ x21: .cfa -24 + ^ x22: .cfa -32 + ^ x23: .cfa -40 + ^ x24: .cfa -48 + ^ x25: .cfa -64 + ^ .ra: .cfa -72 + ^ x29: .cfa -80 + ^
STACK CFI 2e708 .cfa: sp 144 +
STACK CFI 2e720 .cfa: sp 0 +
STACK CFI 2e724 .cfa: x29 80 +
STACK CFI INIT 2e808 74 .cfa: sp 0 +
STACK CFI 2e80c .cfa: sp 48 +
STACK CFI 2e818 .cfa: x29 32 + x19: .cfa -8 + ^ x20: .cfa -16 + ^ .ra: .cfa -24 + ^ x29: .cfa -32 + ^
STACK CFI 2e864 .cfa: sp 48 +
STACK CFI 2e870 .cfa: sp 0 +
STACK CFI 2e874 .cfa: x29 32 +
STACK CFI INIT 2e87c 15c .cfa: sp 0 +
STACK CFI 2e880 .cfa: sp 144 +
STACK CFI 2e894 .cfa: x29 64 + x19: .cfa -8 + ^ x20: .cfa -16 + ^ x21: .cfa -24 + ^ x22: .cfa -32 + ^ x23: .cfa -40 + ^ x24: .cfa -48 + ^ .ra: .cfa -56 + ^ x29: .cfa -64 + ^
STACK CFI 2e96c .cfa: sp 144 +
STACK CFI 2e980 .cfa: sp 0 +
STACK CFI 2e984 .cfa: x29 64 +
STACK CFI INIT 2ead8 16c .cfa: sp 0 +
STACK CFI 2eadc .cfa: sp 128 +
STACK CFI 2eaec .cfa: x29 48 + x19: .cfa -8 + ^ x20: .cfa -16 + ^ x21: .cfa -24 + ^ x22: .cfa -32 + ^ .ra: .cfa -40 + ^ x29: .cfa -48 + ^
STACK CFI 2ebf4 .cfa: sp 128 +
STACK CFI 2ec04 .cfa: sp 0 +
STACK CFI 2ec08 .cfa: x29 48 +
STACK CFI INIT 2ec44 3f8 .cfa: sp 0 +
STACK CFI 2ec48 .cfa: sp 160 +
STACK CFI 2ec64 .cfa: x29 96 + x19: .cfa -8 + ^ x20: .cfa -16 + ^ x21: .cfa -24 + ^ x22: .cfa -32 + ^ x23: .cfa -40 + ^ x24: .cfa -48 + ^ x25: .cfa -56 + ^ x26: .cfa -64 + ^ x27: .cfa -72 + ^ x28: .cfa -80 + ^ .ra: .cfa -88 + ^ x29: .cfa -96 + ^
STACK CFI 2efc4 .cfa: sp 160 +
STACK CFI 2efe0 .cfa: sp 0 +
STACK CFI 2efe4 .cfa: x29 96 +
STACK CFI INIT 2f3c4 25c .cfa: sp 0 +
STACK CFI 2f3c8 .cfa: sp 96 +
STACK CFI 2f3e0 .cfa: x29 96 + x19: .cfa -8 + ^ x20: .cfa -16 + ^ x21: .cfa -24 + ^ x22: .cfa -32 + ^ x23: .cfa -40 + ^ x24: .cfa -48 + ^ x25: .cfa -56 + ^ x26: .cfa -64 + ^ x27: .cfa -72 + ^ x28: .cfa -80 + ^ .ra: .cfa -88 + ^ x29: .cfa -96 + ^
STACK CFI 2f55c .cfa: sp 96 +
STACK CFI 2f574 .cfa: sp 0 +
STACK CFI 2f578 .cfa: x29 96 +
STACK CFI INIT 2f620 74 .cfa: sp 0 +
STACK CFI 2f624 .cfa: sp 48 +
STACK CFI 2f630 .cfa: x29 32 + x19: .cfa -8 + ^ x20: .cfa -16 + ^ .ra: .cfa -24 + ^ x29: .cfa -32 + ^
STACK CFI 2f67c .cfa: sp 48 +
STACK CFI 2f688 .cfa: sp 0 +
STACK CFI 2f68c .cfa: x29 32 +
STACK CFI INIT 2f694 9d0 .cfa: sp 0 +
STACK CFI 2f698 .cfa: sp 400 +
STACK CFI 2f6b4 .cfa: x29 96 + x19: .cfa -8 + ^ x20: .cfa -16 + ^ x21: .cfa -24 + ^ x22: .cfa -32 + ^ x23: .cfa -40 + ^ x24: .cfa -48 + ^ x25: .cfa -56 + ^ x26: .cfa -64 + ^ x27: .cfa -72 + ^ x28: .cfa -80 + ^ .ra: .cfa -88 + ^ x29: .cfa -96 + ^
STACK CFI 2fd0c .cfa: sp 400 +
STACK CFI 2fd28 .cfa: sp 0 +
STACK CFI 2fd2c .cfa: x29 96 +
STACK CFI INIT 30064 74 .cfa: sp 0 +
STACK CFI 30068 .cfa: sp 48 +
STACK CFI 30074 .cfa: x29 32 + x19: .cfa -8 + ^ x20: .cfa -16 + ^ .ra: .cfa -24 + ^ x29: .cfa -32 + ^
STACK CFI 300c0 .cfa: sp 48 +
STACK CFI 300cc .cfa: sp 0 +
STACK CFI 300d0 .cfa: x29 32 +
STACK CFI INIT 300d8 74 .cfa: sp 0 +
STACK CFI 300dc .cfa: sp 48 +
STACK CFI 300e8 .cfa: x29 32 + x19: .cfa -8 + ^ x20: .cfa -16 + ^ .ra: .cfa -24 + ^ x29: .cfa -32 + ^
STACK CFI 30134 .cfa: sp 48 +
STACK CFI 30140 .cfa: sp 0 +
STACK CFI 30144 .cfa: x29 32 +
STACK CFI INIT 3014c 74 .cfa: sp 0 +
STACK CFI 30150 .cfa: sp 48 +
STACK CFI 3015c .cfa: x29 32 + x19: .cfa -8 + ^ x20: .cfa -16 + ^ .ra: .cfa -24 + ^ x29: .cfa -32 + ^
STACK CFI 301a8 .cfa: sp 48 +
STACK CFI 301b4 .cfa: sp 0 +
STACK CFI 301b8 .cfa: x29 32 +
STACK CFI INIT 3048c 110 .cfa: sp 0 +
STACK CFI 30490 .cfa: sp 112 +
STACK CFI 304a0 .cfa: x29 48 + x19: .cfa -8 + ^ x20: .cfa -16 + ^ x21: .cfa -32 + ^ .ra: .cfa -40 + ^ x29: .cfa -48 + ^
STACK CFI 30558 .cfa: sp 112 +
STACK CFI 30568 .cfa: sp 0 +
STACK CFI 3056c .cfa: x29 48 +
STACK CFI INIT 30704 43c .cfa: sp 0 +
STACK CFI 30708 .cfa: sp 224 +
STACK CFI 30724 .cfa: x29 96 + x19: .cfa -8 + ^ x20: .cfa -16 + ^ x21: .cfa -24 + ^ x22: .cfa -32 + ^ x23: .cfa -40 + ^ x24: .cfa -48 + ^ x25: .cfa -56 + ^ x26: .cfa -64 + ^ x27: .cfa -72 + ^ x28: .cfa -80 + ^ .ra: .cfa -88 + ^ x29: .cfa -96 + ^
STACK CFI 30a38 .cfa: sp 224 +
STACK CFI 30a54 .cfa: sp 0 +
STACK CFI 30a58 .cfa: x29 96 +
STACK CFI INIT 30b40 43c .cfa: sp 0 +
STACK CFI 30b44 .cfa: sp 224 +
STACK CFI 30b60 .cfa: x29 96 + x19: .cfa -8 + ^ x20: .cfa -16 + ^ x21: .cfa -24 + ^ x22: .cfa -32 + ^ x23: .cfa -40 + ^ x24: .cfa -48 + ^ x25: .cfa -56 + ^ x26: .cfa -64 + ^ x27: .cfa -72 + ^ x28: .cfa -80 + ^ .ra: .cfa -88 + ^ x29: .cfa -96 + ^
STACK CFI 30e74 .cfa: sp 224 +
STACK CFI 30e90 .cfa: sp 0 +
STACK CFI 30e94 .cfa: x29 96 +
STACK CFI INIT 30fb4 380 .cfa: sp 0 +
STACK CFI 30fb8 .cfa: sp 224 +
STACK CFI 30fcc .cfa: x29 64 + x19: .cfa -8 + ^ x20: .cfa -16 + ^ x21: .cfa -24 + ^ x22: .cfa -32 + ^ x23: .cfa -40 + ^ x24: .cfa -48 + ^ .ra: .cfa -56 + ^ x29: .cfa -64 + ^
STACK CFI 31208 .cfa: sp 224 +
STACK CFI 3121c .cfa: sp 0 +
STACK CFI 31220 .cfa: x29 64 +
STACK CFI INIT 31384 74 .cfa: sp 0 +
STACK CFI 31388 .cfa: sp 48 +
STACK CFI 31394 .cfa: x29 32 + x19: .cfa -8 + ^ x20: .cfa -16 + ^ .ra: .cfa -24 + ^ x29: .cfa -32 + ^
STACK CFI 313e0 .cfa: sp 48 +
STACK CFI 313ec .cfa: sp 0 +
STACK CFI 313f0 .cfa: x29 32 +
STACK CFI INIT 31478 154 .cfa: sp 0 +
STACK CFI 3147c .cfa: sp 384 +
STACK CFI 31490 .cfa: x29 64 + x19: .cfa -8 + ^ x20: .cfa -16 + ^ x21: .cfa -24 + ^ x22: .cfa -32 + ^ x23: .cfa -40 + ^ x28: .cfa -48 + ^ .ra: .cfa -56 + ^ x29: .cfa -64 + ^
STACK CFI 31574 .cfa: sp 384 +
STACK CFI 31588 .cfa: sp 0 +
STACK CFI 3158c .cfa: x29 64 +
STACK CFI INIT 315cc 228 .cfa: sp 0 +
STACK CFI 315d0 .cfa: sp 128 +
STACK CFI 315e8 .cfa: x29 80 + x19: .cfa -8 + ^ x20: .cfa -16 + ^ x21: .cfa -24 + ^ x22: .cfa -32 + ^ x23: .cfa -40 + ^ x24: .cfa -48 + ^ x25: .cfa -64 + ^ .ra: .cfa -72 + ^ x29: .cfa -80 + ^
STACK CFI 31784 .cfa: sp 128 +
STACK CFI 3179c .cfa: sp 0 +
STACK CFI 317a0 .cfa: x29 80 +
STACK CFI INIT 31ed0 26c .cfa: sp 0 +
STACK CFI 31ed4 .cfa: sp 96 +
STACK CFI 31ee8 .cfa: x29 48 + x19: .cfa -8 + ^ x20: .cfa -16 + ^ x21: .cfa -24 + ^ x22: .cfa -32 + ^ .ra: .cfa -40 + ^ x29: .cfa -48 + ^ v8: .cfa -64 + ^
STACK CFI 320e8 .cfa: sp 96 +
STACK CFI 320fc .cfa: sp 0 +
STACK CFI 32100 .cfa: x29 48 +
STACK CFI INIT 321f0 134 .cfa: sp 0 +
STACK CFI 321f4 .cfa: sp 80 +
STACK CFI 32204 .cfa: x29 48 + x19: .cfa -8 + ^ x20: .cfa -16 + ^ x21: .cfa -24 + ^ x22: .cfa -32 + ^ .ra: .cfa -40 + ^ x29: .cfa -48 + ^
STACK CFI 32308 .cfa: sp 80 +
STACK CFI 32318 .cfa: sp 0 +
STACK CFI 3231c .cfa: x29 48 +
STACK CFI INIT 32428 130 .cfa: sp 0 +
STACK CFI 3242c .cfa: sp 96 +
STACK CFI 32440 .cfa: x29 48 + x19: .cfa -8 + ^ x20: .cfa -16 + ^ x21: .cfa -24 + ^ x22: .cfa -32 + ^ .ra: .cfa -40 + ^ x29: .cfa -48 + ^ v8: .cfa -64 + ^
STACK CFI 32538 .cfa: sp 96 +
STACK CFI 3254c .cfa: sp 0 +
STACK CFI 32550 .cfa: x29 48 +
STACK CFI INIT 32880 360 .cfa: sp 0 +
STACK CFI 32884 .cfa: sp 192 +
STACK CFI 32898 .cfa: x29 64 + x19: .cfa -8 + ^ x20: .cfa -16 + ^ x21: .cfa -24 + ^ x22: .cfa -32 + ^ x23: .cfa -40 + ^ x24: .cfa -48 + ^ .ra: .cfa -56 + ^ x29: .cfa -64 + ^
STACK CFI 32abc .cfa: sp 192 +
STACK CFI 32ad0 .cfa: sp 0 +
STACK CFI 32ad4 .cfa: x29 64 +
STACK CFI INIT 32be4 188 .cfa: sp 0 +
STACK CFI 32be8 .cfa: sp 96 +
STACK CFI 32bfc .cfa: x29 48 + x19: .cfa -8 + ^ x20: .cfa -16 + ^ x21: .cfa -24 + ^ x22: .cfa -32 + ^ .ra: .cfa -40 + ^ x29: .cfa -48 + ^ v8: .cfa -64 + ^
STACK CFI 32d20 .cfa: sp 96 +
STACK CFI 32d34 .cfa: sp 0 +
STACK CFI 32d38 .cfa: x29 48 +
STACK CFI INIT 32d6c ec .cfa: sp 0 +
STACK CFI 32d70 .cfa: sp 48 +
STACK CFI 32d7c .cfa: x29 48 + x19: .cfa -8 + ^ x20: .cfa -16 + ^ x21: .cfa -24 + ^ x22: .cfa -32 + ^ .ra: .cfa -40 + ^ x29: .cfa -48 + ^
STACK CFI 32dc8 .cfa: sp 48 +
STACK CFI 32dd4 .cfa: sp 0 +
STACK CFI 32dd8 .cfa: x29 48 +
STACK CFI 32ddc .cfa: sp 48 +
STACK CFI 32de8 .cfa: sp 0 +
STACK CFI 32dec .cfa: x29 48 +
STACK CFI INIT 32efc 7ac .cfa: sp 0 +
STACK CFI 32f00 .cfa: sp 80 +
STACK CFI 32f14 .cfa: x29 80 + x19: .cfa -8 + ^ x20: .cfa -16 + ^ x21: .cfa -24 + ^ x22: .cfa -32 + ^ x23: .cfa -40 + ^ x24: .cfa -48 + ^ x25: .cfa -56 + ^ x26: .cfa -64 + ^ .ra: .cfa -72 + ^ x29: .cfa -80 + ^
STACK CFI 3332c .cfa: sp 80 +
STACK CFI 33340 .cfa: sp 0 +
STACK CFI 33344 .cfa: x29 80 +
STACK CFI INIT 336a8 578 .cfa: sp 0 +
STACK CFI 336ac .cfa: sp 96 +
STACK CFI 336c0 .cfa: x29 64 + x19: .cfa -8 + ^ x20: .cfa -16 + ^ x21: .cfa -24 + ^ x22: .cfa -32 + ^ x23: .cfa -48 + ^ .ra: .cfa -56 + ^ x29: .cfa -64 + ^
STACK CFI 33a60 .cfa: sp 96 +
STACK CFI 33a74 .cfa: sp 0 +
STACK CFI 33a78 .cfa: x29 64 +
STACK CFI INIT 33d94 1c .cfa: sp 0 +
STACK CFI 33d98 .cfa: sp 16 +
STACK CFI 33d9c .cfa: x29 16 + .ra: .cfa -8 + ^ x29: .cfa -16 + ^
STACK CFI 33da4 .cfa: sp 16 +
STACK CFI 33da8 .cfa: sp 0 +
STACK CFI 33dac .cfa: x29 16 +
STACK CFI INIT 340bc 3f8 .cfa: sp 0 +
STACK CFI 340c0 .cfa: sp 48 +
STACK CFI 340cc .cfa: x29 48 + x19: .cfa -8 + ^ x20: .cfa -16 + ^ x21: .cfa -24 + ^ x22: .cfa -32 + ^ .ra: .cfa -40 + ^ x29: .cfa -48 + ^
STACK CFI 34434 .cfa: sp 48 +
STACK CFI 34440 .cfa: sp 0 +
STACK CFI 34444 .cfa: x29 48 +
STACK CFI 34494 .cfa: sp 48 +
STACK CFI 344a0 .cfa: sp 0 +
STACK CFI 344a4 .cfa: x29 48 +
STACK CFI INIT 3452c 1c .cfa: sp 0 +
STACK CFI 34530 .cfa: sp 16 +
STACK CFI 34534 .cfa: x29 16 + .ra: .cfa -8 + ^ x29: .cfa -16 + ^
STACK CFI 3453c .cfa: sp 16 +
STACK CFI 34540 .cfa: sp 0 +
STACK CFI 34544 .cfa: x29 16 +
STACK CFI INIT 345d8 98 .cfa: sp 0 +
STACK CFI 345dc .cfa: sp 48 +
STACK CFI 345e8 .cfa: x29 48 + x19: .cfa -8 + ^ x20: .cfa -16 + ^ x21: .cfa -32 + ^ .ra: .cfa -40 + ^ x29: .cfa -48 + ^
STACK CFI 34648 .cfa: sp 48 +
STACK CFI 34654 .cfa: sp 0 +
STACK CFI 34658 .cfa: sp 48 +
STACK CFI 34664 .cfa: sp 0 +
STACK CFI 34668 .cfa: x29 48 +
STACK CFI INIT 346ac 1c .cfa: sp 0 +
STACK CFI 346b0 .cfa: sp 16 +
STACK CFI 346b4 .cfa: x29 16 + .ra: .cfa -8 + ^ x29: .cfa -16 + ^
STACK CFI 346bc .cfa: sp 16 +
STACK CFI 346c0 .cfa: sp 0 +
STACK CFI 346c4 .cfa: x29 16 +
STACK CFI INIT 346c8 1c .cfa: sp 0 +
STACK CFI 346cc .cfa: sp 16 +
STACK CFI 346d0 .cfa: x29 16 + .ra: .cfa -8 + ^ x29: .cfa -16 + ^
STACK CFI 346d8 .cfa: sp 16 +
STACK CFI 346dc .cfa: sp 0 +
STACK CFI 346e0 .cfa: x29 16 +
STACK CFI INIT 348c4 1cc .cfa: sp 0 +
STACK CFI 348c8 .cfa: sp 160 +
STACK CFI 348e0 .cfa: x29 80 + x19: .cfa -8 + ^ x20: .cfa -16 + ^ x21: .cfa -24 + ^ x22: .cfa -32 + ^ x23: .cfa -40 + ^ x24: .cfa -48 + ^ x25: .cfa -56 + ^ x26: .cfa -64 + ^ .ra: .cfa -72 + ^ x29: .cfa -80 + ^
STACK CFI 34a3c .cfa: sp 160 +
STACK CFI 34a54 .cfa: sp 0 +
STACK CFI 34a58 .cfa: x29 80 +
STACK CFI INIT 34e48 1a0 .cfa: sp 0 +
STACK CFI 34e4c .cfa: sp 64 +
STACK CFI 34e5c .cfa: x29 64 + x19: .cfa -8 + ^ x20: .cfa -16 + ^ x21: .cfa -24 + ^ x22: .cfa -32 + ^ x23: .cfa -48 + ^ .ra: .cfa -56 + ^ x29: .cfa -64 + ^
STACK CFI 34f0c .cfa: sp 64 +
STACK CFI 34f1c .cfa: sp 0 +
STACK CFI 34f20 .cfa: x29 64 +
STACK CFI INIT 3561c a8 .cfa: sp 0 +
STACK CFI 35620 .cfa: sp 64 +
STACK CFI 35630 .cfa: x29 64 + x19: .cfa -8 + ^ x20: .cfa -16 + ^ x21: .cfa -24 + ^ x22: .cfa -32 + ^ x23: .cfa -40 + ^ x24: .cfa -48 + ^ .ra: .cfa -56 + ^ x29: .cfa -64 + ^
STACK CFI 35654 .cfa: sp 64 +
STACK CFI 35664 .cfa: sp 0 +
STACK CFI 35668 .cfa: x29 64 +
STACK CFI INIT 35814 43c .cfa: sp 0 +
STACK CFI 35818 .cfa: sp 224 +
STACK CFI 35834 .cfa: x29 96 + x19: .cfa -8 + ^ x20: .cfa -16 + ^ x21: .cfa -24 + ^ x22: .cfa -32 + ^ x23: .cfa -40 + ^ x24: .cfa -48 + ^ x25: .cfa -56 + ^ x26: .cfa -64 + ^ x27: .cfa -72 + ^ x28: .cfa -80 + ^ .ra: .cfa -88 + ^ x29: .cfa -96 + ^
STACK CFI 35b48 .cfa: sp 224 +
STACK CFI 35b64 .cfa: sp 0 +
STACK CFI 35b68 .cfa: x29 96 +
STACK CFI INIT 35c50 43c .cfa: sp 0 +
STACK CFI 35c54 .cfa: sp 224 +
STACK CFI 35c70 .cfa: x29 96 + x19: .cfa -8 + ^ x20: .cfa -16 + ^ x21: .cfa -24 + ^ x22: .cfa -32 + ^ x23: .cfa -40 + ^ x24: .cfa -48 + ^ x25: .cfa -56 + ^ x26: .cfa -64 + ^ x27: .cfa -72 + ^ x28: .cfa -80 + ^ .ra: .cfa -88 + ^ x29: .cfa -96 + ^
STACK CFI 35f84 .cfa: sp 224 +
STACK CFI 35fa0 .cfa: sp 0 +
STACK CFI 35fa4 .cfa: x29 96 +
STACK CFI INIT 360c4 380 .cfa: sp 0 +
STACK CFI 360c8 .cfa: sp 224 +
STACK CFI 360dc .cfa: x29 64 + x19: .cfa -8 + ^ x20: .cfa -16 + ^ x21: .cfa -24 + ^ x22: .cfa -32 + ^ x23: .cfa -40 + ^ x24: .cfa -48 + ^ .ra: .cfa -56 + ^ x29: .cfa -64 + ^
STACK CFI 36318 .cfa: sp 224 +
STACK CFI 3632c .cfa: sp 0 +
STACK CFI 36330 .cfa: x29 64 +
STACK CFI INIT 36448 10c .cfa: sp 0 +
STACK CFI 3644c .cfa: sp 80 +
STACK CFI 36460 .cfa: x29 40 + x19: .cfa -8 + ^ x20: .cfa -16 + ^ x21: .cfa -24 + ^ .ra: .cfa -32 + ^ x29: .cfa -40 + ^ v8: .cfa -48 + ^
STACK CFI 3650c .cfa: sp 80 +
STACK CFI 36520 .cfa: sp 0 +
STACK CFI 36524 .cfa: x29 40 +
STACK CFI INIT 36554 5f8 .cfa: sp 0 +
STACK CFI 36558 .cfa: sp 256 +
STACK CFI 36570 .cfa: x29 80 + x19: .cfa -8 + ^ x20: .cfa -16 + ^ x21: .cfa -24 + ^ x22: .cfa -32 + ^ x23: .cfa -40 + ^ x24: .cfa -48 + ^ x25: .cfa -56 + ^ x26: .cfa -64 + ^ .ra: .cfa -72 + ^ x29: .cfa -80 + ^
STACK CFI 36988 .cfa: sp 256 +
STACK CFI 369a0 .cfa: sp 0 +
STACK CFI 369a4 .cfa: x29 80 +
STACK CFI INIT 36b50 10c .cfa: sp 0 +
STACK CFI 36b54 .cfa: sp 80 +
STACK CFI 36b64 .cfa: x29 48 + x19: .cfa -8 + ^ x20: .cfa -16 + ^ x21: .cfa -32 + ^ .ra: .cfa -40 + ^ x29: .cfa -48 + ^
STACK CFI 36c18 .cfa: sp 80 +
STACK CFI 36c28 .cfa: sp 0 +
STACK CFI 36c2c .cfa: x29 48 +
STACK CFI INIT 36c5c 12c .cfa: sp 0 +
STACK CFI 36c60 .cfa: sp 80 +
STACK CFI 36c70 .cfa: x29 48 + x19: .cfa -8 + ^ x20: .cfa -16 + ^ x21: .cfa -32 + ^ .ra: .cfa -40 + ^ x29: .cfa -48 + ^
STACK CFI 36d44 .cfa: sp 80 +
STACK CFI 36d54 .cfa: sp 0 +
STACK CFI 36d58 .cfa: x29 48 +
STACK CFI INIT 36d88 c8 .cfa: sp 0 +
STACK CFI 36d8c .cfa: sp 32 +
STACK CFI 36d94 .cfa: x29 32 + x19: .cfa -8 + ^ x20: .cfa -16 + ^ .ra: .cfa -24 + ^ x29: .cfa -32 + ^
STACK CFI 36dc8 .cfa: sp 32 +
STACK CFI 36dd0 .cfa: sp 0 +
STACK CFI 36dd4 .cfa: x29 32 +
STACK CFI 36dd8 .cfa: sp 32 +
STACK CFI 36de0 .cfa: sp 0 +
STACK CFI 36de4 .cfa: x29 32 +
STACK CFI INIT 36e50 2b8 .cfa: sp 0 +
STACK CFI 36e54 .cfa: sp 48 +
STACK CFI 36e60 .cfa: x29 32 + x19: .cfa -8 + ^ x20: .cfa -16 + ^ .ra: .cfa -24 + ^ x29: .cfa -32 + ^ v8: .cfa -48 + ^
STACK CFI 37068 .cfa: sp 48 +
STACK CFI 37074 .cfa: sp 0 +
STACK CFI 37078 .cfa: x29 32 +
STACK CFI INIT 37108 1c .cfa: sp 0 +
STACK CFI 3710c .cfa: sp 16 +
STACK CFI 37110 .cfa: x29 16 + .ra: .cfa -8 + ^ x29: .cfa -16 + ^
STACK CFI 37118 .cfa: sp 16 +
STACK CFI 3711c .cfa: sp 0 +
STACK CFI 37120 .cfa: x29 16 +
STACK CFI INIT 372ac 43c .cfa: sp 0 +
STACK CFI 372b0 .cfa: sp 224 +
STACK CFI 372cc .cfa: x29 96 + x19: .cfa -8 + ^ x20: .cfa -16 + ^ x21: .cfa -24 + ^ x22: .cfa -32 + ^ x23: .cfa -40 + ^ x24: .cfa -48 + ^ x25: .cfa -56 + ^ x26: .cfa -64 + ^ x27: .cfa -72 + ^ x28: .cfa -80 + ^ .ra: .cfa -88 + ^ x29: .cfa -96 + ^
STACK CFI 375e0 .cfa: sp 224 +
STACK CFI 375fc .cfa: sp 0 +
STACK CFI 37600 .cfa: x29 96 +
STACK CFI INIT 376e8 43c .cfa: sp 0 +
STACK CFI 376ec .cfa: sp 224 +
STACK CFI 37708 .cfa: x29 96 + x19: .cfa -8 + ^ x20: .cfa -16 + ^ x21: .cfa -24 + ^ x22: .cfa -32 + ^ x23: .cfa -40 + ^ x24: .cfa -48 + ^ x25: .cfa -56 + ^ x26: .cfa -64 + ^ x27: .cfa -72 + ^ x28: .cfa -80 + ^ .ra: .cfa -88 + ^ x29: .cfa -96 + ^
STACK CFI 37a1c .cfa: sp 224 +
STACK CFI 37a38 .cfa: sp 0 +
STACK CFI 37a3c .cfa: x29 96 +
STACK CFI INIT 37b5c 618 .cfa: sp 0 +
STACK CFI 37b60 .cfa: sp 256 +
STACK CFI 37b78 .cfa: x29 80 + x19: .cfa -8 + ^ x20: .cfa -16 + ^ x21: .cfa -24 + ^ x22: .cfa -32 + ^ x23: .cfa -40 + ^ x24: .cfa -48 + ^ x25: .cfa -56 + ^ x26: .cfa -64 + ^ .ra: .cfa -72 + ^ x29: .cfa -80 + ^
STACK CFI 37fa4 .cfa: sp 256 +
STACK CFI 37fbc .cfa: sp 0 +
STACK CFI 37fc0 .cfa: x29 80 +
STACK CFI INIT 38178 fc .cfa: sp 0 +
STACK CFI 3817c .cfa: sp 80 +
STACK CFI 3818c .cfa: x29 48 + x19: .cfa -8 + ^ x20: .cfa -16 + ^ x21: .cfa -32 + ^ .ra: .cfa -40 + ^ x29: .cfa -48 + ^
STACK CFI 38230 .cfa: sp 80 +
STACK CFI 38240 .cfa: sp 0 +
STACK CFI 38244 .cfa: x29 48 +
STACK CFI INIT 38274 10c .cfa: sp 0 +
STACK CFI 38278 .cfa: sp 80 +
STACK CFI 3828c .cfa: x29 40 + x19: .cfa -8 + ^ x20: .cfa -16 + ^ x21: .cfa -24 + ^ .ra: .cfa -32 + ^ x29: .cfa -40 + ^ v8: .cfa -48 + ^
STACK CFI 38338 .cfa: sp 80 +
STACK CFI 3834c .cfa: sp 0 +
STACK CFI 38350 .cfa: x29 40 +
STACK CFI INIT 38380 5ec .cfa: sp 0 +
STACK CFI 38384 .cfa: sp 240 +
STACK CFI 3839c .cfa: x29 80 + x19: .cfa -8 + ^ x20: .cfa -16 + ^ x21: .cfa -24 + ^ x22: .cfa -32 + ^ x23: .cfa -40 + ^ x24: .cfa -48 + ^ x25: .cfa -56 + ^ x26: .cfa -64 + ^ .ra: .cfa -72 + ^ x29: .cfa -80 + ^
STACK CFI 387a0 .cfa: sp 240 +
STACK CFI 387b8 .cfa: sp 0 +
STACK CFI 387bc .cfa: x29 80 +
STACK CFI INIT 38970 fc .cfa: sp 0 +
STACK CFI 38974 .cfa: sp 80 +
STACK CFI 38984 .cfa: x29 48 + x19: .cfa -8 + ^ x20: .cfa -16 + ^ x21: .cfa -32 + ^ .ra: .cfa -40 + ^ x29: .cfa -48 + ^
STACK CFI 38a28 .cfa: sp 80 +
STACK CFI 38a38 .cfa: sp 0 +
STACK CFI 38a3c .cfa: x29 48 +
STACK CFI INIT 38a6c 100 .cfa: sp 0 +
STACK CFI 38a70 .cfa: sp 80 +
STACK CFI 38a80 .cfa: x29 48 + x19: .cfa -8 + ^ x20: .cfa -16 + ^ x21: .cfa -32 + ^ .ra: .cfa -40 + ^ x29: .cfa -48 + ^
STACK CFI 38b28 .cfa: sp 80 +
STACK CFI 38b38 .cfa: sp 0 +
STACK CFI 38b3c .cfa: x29 48 +
STACK CFI INIT 38d90 43c .cfa: sp 0 +
STACK CFI 38d94 .cfa: sp 224 +
STACK CFI 38db0 .cfa: x29 96 + x19: .cfa -8 + ^ x20: .cfa -16 + ^ x21: .cfa -24 + ^ x22: .cfa -32 + ^ x23: .cfa -40 + ^ x24: .cfa -48 + ^ x25: .cfa -56 + ^ x26: .cfa -64 + ^ x27: .cfa -72 + ^ x28: .cfa -80 + ^ .ra: .cfa -88 + ^ x29: .cfa -96 + ^
STACK CFI 390c4 .cfa: sp 224 +
STACK CFI 390e0 .cfa: sp 0 +
STACK CFI 390e4 .cfa: x29 96 +
STACK CFI INIT 391e8 360 .cfa: sp 0 +
STACK CFI 391ec .cfa: sp 192 +
STACK CFI 39200 .cfa: x29 64 + x19: .cfa -8 + ^ x20: .cfa -16 + ^ x21: .cfa -24 + ^ x22: .cfa -32 + ^ x23: .cfa -40 + ^ x24: .cfa -48 + ^ .ra: .cfa -56 + ^ x29: .cfa -64 + ^
STACK CFI 39424 .cfa: sp 192 +
STACK CFI 39438 .cfa: sp 0 +
STACK CFI 3943c .cfa: x29 64 +
STACK CFI INIT 3954c 99c .cfa: sp 0 +
STACK CFI 39550 .cfa: sp 192 +
STACK CFI 3956c .cfa: x29 64 + x19: .cfa -8 + ^ x20: .cfa -16 + ^ x21: .cfa -24 + ^ x22: .cfa -32 + ^ x23: .cfa -40 + ^ x24: .cfa -48 + ^ .ra: .cfa -56 + ^ x29: .cfa -64 + ^ v8: .cfa -72 + ^ v9: .cfa -80 + ^ v10: .cfa -88 + ^ v11: .cfa -96 + ^
STACK CFI 39e44 .cfa: sp 192 +
STACK CFI 39e60 .cfa: sp 0 +
STACK CFI 39e64 .cfa: x29 64 +
STACK CFI INIT 39ee8 43c .cfa: sp 0 +
STACK CFI 39eec .cfa: sp 224 +
STACK CFI 39f08 .cfa: x29 96 + x19: .cfa -8 + ^ x20: .cfa -16 + ^ x21: .cfa -24 + ^ x22: .cfa -32 + ^ x23: .cfa -40 + ^ x24: .cfa -48 + ^ x25: .cfa -56 + ^ x26: .cfa -64 + ^ x27: .cfa -72 + ^ x28: .cfa -80 + ^ .ra: .cfa -88 + ^ x29: .cfa -96 + ^
STACK CFI 3a21c .cfa: sp 224 +
STACK CFI 3a238 .cfa: sp 0 +
STACK CFI 3a23c .cfa: x29 96 +
STACK CFI INIT 3a324 43c .cfa: sp 0 +
STACK CFI 3a328 .cfa: sp 224 +
STACK CFI 3a344 .cfa: x29 96 + x19: .cfa -8 + ^ x20: .cfa -16 + ^ x21: .cfa -24 + ^ x22: .cfa -32 + ^ x23: .cfa -40 + ^ x24: .cfa -48 + ^ x25: .cfa -56 + ^ x26: .cfa -64 + ^ x27: .cfa -72 + ^ x28: .cfa -80 + ^ .ra: .cfa -88 + ^ x29: .cfa -96 + ^
STACK CFI 3a658 .cfa: sp 224 +
STACK CFI 3a674 .cfa: sp 0 +
STACK CFI 3a678 .cfa: x29 96 +
STACK CFI INIT 3a798 414 .cfa: sp 0 +
STACK CFI 3a79c .cfa: sp 256 +
STACK CFI 3a7b0 .cfa: x29 64 + x19: .cfa -8 + ^ x20: .cfa -16 + ^ x21: .cfa -24 + ^ x22: .cfa -32 + ^ x23: .cfa -48 + ^ .ra: .cfa -56 + ^ x29: .cfa -64 + ^
STACK CFI 3aa70 .cfa: sp 256 +
STACK CFI 3aa84 .cfa: sp 0 +
STACK CFI 3aa88 .cfa: x29 64 +
STACK CFI INIT 3abb0 220 .cfa: sp 0 +
STACK CFI 3abb4 .cfa: sp 112 +
STACK CFI 3abd0 .cfa: x29 72 + x19: .cfa -8 + ^ x20: .cfa -16 + ^ x21: .cfa -24 + ^ x22: .cfa -32 + ^ x23: .cfa -40 + ^ x24: .cfa -48 + ^ x25: .cfa -56 + ^ .ra: .cfa -64 + ^ x29: .cfa -72 + ^ v8: .cfa -80 + ^
STACK CFI 3ad80 .cfa: sp 112 +
STACK CFI 3ad9c .cfa: sp 0 +
STACK CFI 3ada0 .cfa: x29 72 +
STACK CFI INIT 3add0 380 .cfa: sp 0 +
STACK CFI 3add4 .cfa: sp 224 +
STACK CFI 3ade8 .cfa: x29 64 + x19: .cfa -8 + ^ x20: .cfa -16 + ^ x21: .cfa -24 + ^ x22: .cfa -32 + ^ x23: .cfa -40 + ^ x24: .cfa -48 + ^ .ra: .cfa -56 + ^ x29: .cfa -64 + ^
STACK CFI 3b024 .cfa: sp 224 +
STACK CFI 3b038 .cfa: sp 0 +
STACK CFI 3b03c .cfa: x29 64 +
STACK CFI INIT 3b154 e4 .cfa: sp 0 +
STACK CFI 3b158 .cfa: sp 80 +
STACK CFI 3b168 .cfa: x29 48 + x19: .cfa -8 + ^ x20: .cfa -16 + ^ x21: .cfa -32 + ^ .ra: .cfa -40 + ^ x29: .cfa -48 + ^
STACK CFI 3b1f4 .cfa: sp 80 +
STACK CFI 3b204 .cfa: sp 0 +
STACK CFI 3b208 .cfa: x29 48 +
STACK CFI INIT 3b238 43c .cfa: sp 0 +
STACK CFI 3b23c .cfa: sp 224 +
STACK CFI 3b258 .cfa: x29 96 + x19: .cfa -8 + ^ x20: .cfa -16 + ^ x21: .cfa -24 + ^ x22: .cfa -32 + ^ x23: .cfa -40 + ^ x24: .cfa -48 + ^ x25: .cfa -56 + ^ x26: .cfa -64 + ^ x27: .cfa -72 + ^ x28: .cfa -80 + ^ .ra: .cfa -88 + ^ x29: .cfa -96 + ^
STACK CFI 3b56c .cfa: sp 224 +
STACK CFI 3b588 .cfa: sp 0 +
STACK CFI 3b58c .cfa: x29 96 +
STACK CFI INIT 3b690 360 .cfa: sp 0 +
STACK CFI 3b694 .cfa: sp 192 +
STACK CFI 3b6a8 .cfa: x29 64 + x19: .cfa -8 + ^ x20: .cfa -16 + ^ x21: .cfa -24 + ^ x22: .cfa -32 + ^ x23: .cfa -40 + ^ x24: .cfa -48 + ^ .ra: .cfa -56 + ^ x29: .cfa -64 + ^
STACK CFI 3b8cc .cfa: sp 192 +
STACK CFI 3b8e0 .cfa: sp 0 +
STACK CFI 3b8e4 .cfa: x29 64 +
STACK CFI INIT 3b9f4 228 .cfa: sp 0 +
STACK CFI 3b9f8 .cfa: sp 96 +
STACK CFI 3ba0c .cfa: x29 64 + x19: .cfa -8 + ^ x20: .cfa -16 + ^ x21: .cfa -24 + ^ x22: .cfa -32 + ^ x23: .cfa -48 + ^ .ra: .cfa -56 + ^ x29: .cfa -64 + ^
STACK CFI 3bbc8 .cfa: sp 96 +
STACK CFI 3bbdc .cfa: sp 0 +
STACK CFI 3bbe0 .cfa: x29 64 +
STACK CFI INIT 3bc1c 134 .cfa: sp 0 +
STACK CFI 3bc20 .cfa: sp 96 +
STACK CFI 3bc34 .cfa: x29 48 + x19: .cfa -8 + ^ x20: .cfa -16 + ^ x21: .cfa -24 + ^ x22: .cfa -32 + ^ .ra: .cfa -40 + ^ x29: .cfa -48 + ^ v8: .cfa -64 + ^
STACK CFI 3bd30 .cfa: sp 96 +
STACK CFI 3bd44 .cfa: sp 0 +
STACK CFI 3bd48 .cfa: x29 48 +
STACK CFI INIT 3bd50 43c .cfa: sp 0 +
STACK CFI 3bd54 .cfa: sp 224 +
STACK CFI 3bd70 .cfa: x29 96 + x19: .cfa -8 + ^ x20: .cfa -16 + ^ x21: .cfa -24 + ^ x22: .cfa -32 + ^ x23: .cfa -40 + ^ x24: .cfa -48 + ^ x25: .cfa -56 + ^ x26: .cfa -64 + ^ x27: .cfa -72 + ^ x28: .cfa -80 + ^ .ra: .cfa -88 + ^ x29: .cfa -96 + ^
STACK CFI 3c084 .cfa: sp 224 +
STACK CFI 3c0a0 .cfa: sp 0 +
STACK CFI 3c0a4 .cfa: x29 96 +
STACK CFI INIT 3c1a8 36c .cfa: sp 0 +
STACK CFI 3c1ac .cfa: sp 192 +
STACK CFI 3c1c0 .cfa: x29 64 + x19: .cfa -8 + ^ x20: .cfa -16 + ^ x21: .cfa -24 + ^ x22: .cfa -32 + ^ x23: .cfa -48 + ^ .ra: .cfa -56 + ^ x29: .cfa -64 + ^
STACK CFI 3c3f0 .cfa: sp 192 +
STACK CFI 3c404 .cfa: sp 0 +
STACK CFI 3c408 .cfa: x29 64 +
STACK CFI INIT 3c518 2a4 .cfa: sp 0 +
STACK CFI 3c51c .cfa: sp 144 +
STACK CFI 3c534 .cfa: x29 48 + x19: .cfa -8 + ^ x20: .cfa -16 + ^ x21: .cfa -24 + ^ x22: .cfa -32 + ^ .ra: .cfa -40 + ^ x29: .cfa -48 + ^ v8: .cfa -56 + ^ v9: .cfa -64 + ^ v10: .cfa -80 + ^
STACK CFI 3c740 .cfa: sp 144 +
STACK CFI 3c758 .cfa: sp 0 +
STACK CFI 3c75c .cfa: x29 48 +
STACK CFI INIT 3c7bc 6b0 .cfa: sp 0 +
STACK CFI 3c7c0 .cfa: sp 208 +
STACK CFI 3c7dc .cfa: x29 80 + x19: .cfa -8 + ^ x20: .cfa -16 + ^ x21: .cfa -24 + ^ x22: .cfa -32 + ^ x23: .cfa -40 + ^ x24: .cfa -48 + ^ x25: .cfa -56 + ^ x26: .cfa -64 + ^ .ra: .cfa -72 + ^ x29: .cfa -80 + ^ v8: .cfa -88 + ^ v9: .cfa -96 + ^
STACK CFI 3cdb0 .cfa: sp 208 +
STACK CFI 3cdcc .cfa: sp 0 +
STACK CFI 3cdd0 .cfa: x29 80 +
STACK CFI INIT 3ced0 1c8 .cfa: sp 0 +
STACK CFI 3ced4 .cfa: sp 128 +
STACK CFI 3cee8 .cfa: x29 64 + x19: .cfa -8 + ^ x20: .cfa -16 + ^ x21: .cfa -24 + ^ x22: .cfa -32 + ^ x23: .cfa -40 + ^ x24: .cfa -48 + ^ .ra: .cfa -56 + ^ x29: .cfa -64 + ^
STACK CFI 3d01c .cfa: sp 128 +
STACK CFI 3d030 .cfa: sp 0 +
STACK CFI 3d034 .cfa: x29 64 +
STACK CFI INIT 3d288 32c .cfa: sp 0 +
STACK CFI 3d28c .cfa: sp 176 +
STACK CFI 3d2a4 .cfa: x29 64 + x19: .cfa -8 + ^ x20: .cfa -16 + ^ x21: .cfa -24 + ^ x22: .cfa -32 + ^ x23: .cfa -48 + ^ .ra: .cfa -56 + ^ x29: .cfa -64 + ^ v8: .cfa -72 + ^ v9: .cfa -80 + ^
STACK CFI 3d590 .cfa: sp 176 +
STACK CFI 3d5a8 .cfa: sp 0 +
STACK CFI 3d5ac .cfa: x29 64 +
STACK CFI INIT 3d5b4 2ac .cfa: sp 0 +
STACK CFI 3d5b8 .cfa: sp 176 +
STACK CFI 3d5d4 .cfa: x29 80 + x19: .cfa -8 + ^ x20: .cfa -16 + ^ x21: .cfa -24 + ^ x22: .cfa -32 + ^ x23: .cfa -40 + ^ x24: .cfa -48 + ^ x25: .cfa -64 + ^ .ra: .cfa -72 + ^ x29: .cfa -80 + ^ v8: .cfa -88 + ^ v9: .cfa -96 + ^
STACK CFI 3d7ec .cfa: sp 176 +
STACK CFI 3d808 .cfa: sp 0 +
STACK CFI 3d80c .cfa: x29 80 +
STACK CFI INIT 3d860 258 .cfa: sp 0 +
STACK CFI 3d864 .cfa: sp 224 +
STACK CFI 3d87c .cfa: x29 80 + x19: .cfa -8 + ^ x20: .cfa -16 + ^ x21: .cfa -24 + ^ x22: .cfa -32 + ^ x23: .cfa -40 + ^ x24: .cfa -48 + ^ x25: .cfa -56 + ^ x26: .cfa -64 + ^ .ra: .cfa -72 + ^ x29: .cfa -80 + ^
STACK CFI 3da40 .cfa: sp 224 +
STACK CFI 3da58 .cfa: sp 0 +
STACK CFI 3da5c .cfa: x29 80 +
STACK CFI INIT 3dab8 110 .cfa: sp 0 +
STACK CFI 3dabc .cfa: sp 80 +
STACK CFI 3dacc .cfa: x29 48 + x19: .cfa -8 + ^ x20: .cfa -16 + ^ x21: .cfa -24 + ^ x22: .cfa -32 + ^ .ra: .cfa -40 + ^ x29: .cfa -48 + ^
STACK CFI 3db78 .cfa: sp 80 +
STACK CFI 3db88 .cfa: sp 0 +
STACK CFI 3db8c .cfa: x29 48 +
STACK CFI INIT 3dbc8 148 .cfa: sp 0 +
STACK CFI 3dbcc .cfa: sp 96 +
STACK CFI 3dbdc .cfa: x29 48 + x19: .cfa -8 + ^ x20: .cfa -16 + ^ x21: .cfa -32 + ^ .ra: .cfa -40 + ^ x29: .cfa -48 + ^
STACK CFI 3dcc4 .cfa: sp 96 +
STACK CFI 3dcd4 .cfa: sp 0 +
STACK CFI 3dcd8 .cfa: x29 48 +
STACK CFI INIT 3dd10 6e4 .cfa: sp 0 +
STACK CFI 3dd14 .cfa: sp 352 +
STACK CFI 3dd2c .cfa: x29 80 + x19: .cfa -8 + ^ x20: .cfa -16 + ^ x21: .cfa -24 + ^ x22: .cfa -32 + ^ x23: .cfa -40 + ^ x24: .cfa -48 + ^ x25: .cfa -56 + ^ x28: .cfa -64 + ^ .ra: .cfa -72 + ^ x29: .cfa -80 + ^
STACK CFI 3e2e8 .cfa: sp 352 +
STACK CFI 3e300 .cfa: sp 0 +
STACK CFI 3e304 .cfa: x29 80 +
STACK CFI INIT 3e3f4 134 .cfa: sp 0 +
STACK CFI 3e3f8 .cfa: sp 48 +
STACK CFI 3e404 .cfa: x29 48 + x19: .cfa -8 + ^ x20: .cfa -16 + ^ x21: .cfa -32 + ^ .ra: .cfa -40 + ^ x29: .cfa -48 + ^
STACK CFI 3e514 .cfa: sp 48 +
STACK CFI 3e520 .cfa: sp 0 +
STACK CFI 3e524 .cfa: x29 48 +
STACK CFI INIT 3e628 6c .cfa: sp 0 +
STACK CFI 3e62c .cfa: sp 32 +
STACK CFI 3e634 .cfa: x29 32 + x19: .cfa -16 + ^ .ra: .cfa -24 + ^ x29: .cfa -32 + ^
STACK CFI 3e684 .cfa: sp 32 +
STACK CFI 3e68c .cfa: sp 0 +
STACK CFI 3e690 .cfa: x29 32 +
STACK CFI INIT 3e698 6c .cfa: sp 0 +
STACK CFI 3e69c .cfa: sp 32 +
STACK CFI 3e6a4 .cfa: x29 32 + x19: .cfa -16 + ^ .ra: .cfa -24 + ^ x29: .cfa -32 + ^
STACK CFI 3e6f4 .cfa: sp 32 +
STACK CFI 3e6fc .cfa: sp 0 +
STACK CFI 3e700 .cfa: x29 32 +
STACK CFI INIT 3e9b8 480 .cfa: sp 0 +
STACK CFI 3e9bc .cfa: sp 224 +
STACK CFI 3e9d8 .cfa: x29 96 + x19: .cfa -8 + ^ x20: .cfa -16 + ^ x21: .cfa -24 + ^ x22: .cfa -32 + ^ x23: .cfa -40 + ^ x24: .cfa -48 + ^ x25: .cfa -56 + ^ x26: .cfa -64 + ^ x27: .cfa -80 + ^ .ra: .cfa -88 + ^ x29: .cfa -96 + ^
STACK CFI 3ec44 .cfa: sp 224 +
STACK CFI 3ec60 .cfa: sp 0 +
STACK CFI 3ec64 .cfa: x29 96 +
STACK CFI 3ed30 .cfa: sp 224 +
STACK CFI 3ed4c .cfa: sp 0 +
STACK CFI 3ed50 .cfa: x29 96 +
STACK CFI INIT 3ee54 330 .cfa: sp 0 +
STACK CFI 3ee58 .cfa: sp 224 +
STACK CFI 3ee6c .cfa: x29 64 + x19: .cfa -8 + ^ x20: .cfa -16 + ^ x21: .cfa -24 + ^ x22: .cfa -32 + ^ x23: .cfa -48 + ^ .ra: .cfa -56 + ^ x29: .cfa -64 + ^
STACK CFI 3f074 .cfa: sp 224 +
STACK CFI 3f088 .cfa: sp 0 +
STACK CFI 3f08c .cfa: x29 64 +
STACK CFI INIT 3f188 2c8 .cfa: sp 0 +
STACK CFI 3f18c .cfa: sp 96 +
STACK CFI 3f1a0 .cfa: x29 64 + x19: .cfa -8 + ^ x20: .cfa -16 + ^ x21: .cfa -24 + ^ x22: .cfa -32 + ^ x23: .cfa -40 + ^ x24: .cfa -48 + ^ .ra: .cfa -56 + ^ x29: .cfa -64 + ^
STACK CFI 3f3e0 .cfa: sp 96 +
STACK CFI 3f3f4 .cfa: sp 0 +
STACK CFI 3f3f8 .cfa: x29 64 +
STACK CFI INIT 3f450 a8 .cfa: sp 0 +
STACK CFI 3f454 .cfa: sp 32 +
STACK CFI 3f45c .cfa: x29 32 + x19: .cfa -16 + ^ .ra: .cfa -24 + ^ x29: .cfa -32 + ^
STACK CFI 3f490 .cfa: sp 32 +
STACK CFI 3f498 .cfa: sp 0 +
STACK CFI 3f49c .cfa: x29 32 +
STACK CFI 3f4a0 .cfa: sp 32 +
STACK CFI 3f4a8 .cfa: sp 0 +
STACK CFI 3f4ac .cfa: x29 32 +
STACK CFI INIT 3f5c8 6c0 .cfa: sp 0 +
STACK CFI 3f5cc .cfa: sp 144 +
STACK CFI 3f5e0 .cfa: x29 64 + x19: .cfa -8 + ^ x20: .cfa -16 + ^ x21: .cfa -24 + ^ x22: .cfa -32 + ^ x23: .cfa -48 + ^ .ra: .cfa -56 + ^ x29: .cfa -64 + ^
STACK CFI 3fbec .cfa: sp 144 +
STACK CFI 3fc00 .cfa: sp 0 +
STACK CFI 3fc04 .cfa: x29 64 +
STACK CFI INIT 3fc94 50 .cfa: sp 0 +
STACK CFI 3fc98 .cfa: sp 32 +
STACK CFI 3fca0 .cfa: x29 32 + x19: .cfa -8 + ^ x20: .cfa -16 + ^ .ra: .cfa -24 + ^ x29: .cfa -32 + ^
STACK CFI INIT 3fdb4 134 .cfa: sp 0 +
STACK CFI 3fdb8 .cfa: sp 80 +
STACK CFI 3fdc4 .cfa: x29 32 + x19: .cfa -8 + ^ x20: .cfa -16 + ^ .ra: .cfa -24 + ^ x29: .cfa -32 + ^
STACK CFI 3fdf4 .cfa: sp 80 +
STACK CFI 3fe00 .cfa: sp 0 +
STACK CFI 3fe04 .cfa: x29 32 +
STACK CFI INIT 3fee8 78 .cfa: sp 0 +
STACK CFI 3feec .cfa: sp 32 +
STACK CFI 3fef4 .cfa: x29 32 + x19: .cfa -8 + ^ x20: .cfa -16 + ^ .ra: .cfa -24 + ^ x29: .cfa -32 + ^
STACK CFI 3ff00 .cfa: sp 32 +
STACK CFI 3ff08 .cfa: sp 0 +
STACK CFI 3ff0c .cfa: x29 32 +
STACK CFI INIT 3ff60 74 .cfa: sp 0 +
STACK CFI 3ff64 .cfa: sp 48 +
STACK CFI 3ff70 .cfa: x29 32 + x19: .cfa -8 + ^ x20: .cfa -16 + ^ .ra: .cfa -24 + ^ x29: .cfa -32 + ^
STACK CFI 3ffbc .cfa: sp 48 +
STACK CFI 3ffc8 .cfa: sp 0 +
STACK CFI 3ffcc .cfa: x29 32 +
STACK CFI INIT 4005c 25c .cfa: sp 0 +
STACK CFI 40060 .cfa: sp 128 +
STACK CFI 40070 .cfa: x29 48 + x19: .cfa -8 + ^ x20: .cfa -16 + ^ x21: .cfa -32 + ^ .ra: .cfa -40 + ^ x29: .cfa -48 + ^
STACK CFI 40158 .cfa: sp 128 +
STACK CFI 40168 .cfa: sp 0 +
STACK CFI 4016c .cfa: x29 48 +
STACK CFI INIT 40354 300 .cfa: sp 0 +
STACK CFI 40358 .cfa: sp 144 +
STACK CFI 4036c .cfa: x29 64 + x19: .cfa -8 + ^ x20: .cfa -16 + ^ x21: .cfa -24 + ^ x22: .cfa -32 + ^ x23: .cfa -48 + ^ .ra: .cfa -56 + ^ x29: .cfa -64 + ^
STACK CFI 40500 .cfa: sp 144 +
STACK CFI 40514 .cfa: sp 0 +
STACK CFI 40518 .cfa: x29 64 +
STACK CFI INIT 406a8 264 .cfa: sp 0 +
STACK CFI 406ac .cfa: sp 128 +
STACK CFI 406bc .cfa: x29 48 + x19: .cfa -8 + ^ x20: .cfa -16 + ^ x21: .cfa -32 + ^ .ra: .cfa -40 + ^ x29: .cfa -48 + ^
STACK CFI 407b4 .cfa: sp 128 +
STACK CFI 407c4 .cfa: sp 0 +
STACK CFI 407c8 .cfa: x29 48 +
STACK CFI INIT 409d8 2b8 .cfa: sp 0 +
STACK CFI 409dc .cfa: sp 144 +
STACK CFI 409f0 .cfa: x29 64 + x19: .cfa -8 + ^ x20: .cfa -16 + ^ x21: .cfa -24 + ^ x22: .cfa -32 + ^ x23: .cfa -48 + ^ .ra: .cfa -56 + ^ x29: .cfa -64 + ^
STACK CFI 40b3c .cfa: sp 144 +
STACK CFI 40b50 .cfa: sp 0 +
STACK CFI 40b54 .cfa: x29 64 +
STACK CFI INIT 40c98 164 .cfa: sp 0 +
STACK CFI 40c9c .cfa: sp 128 +
STACK CFI 40cac .cfa: x29 48 + x19: .cfa -8 + ^ x20: .cfa -16 + ^ x21: .cfa -24 + ^ x22: .cfa -32 + ^ .ra: .cfa -40 + ^ x29: .cfa -48 + ^
STACK CFI 40d08 .cfa: sp 128 +
STACK CFI 40d18 .cfa: sp 0 +
STACK CFI 40d1c .cfa: x29 48 +
STACK CFI INIT 40dfc a4 .cfa: sp 0 +
STACK CFI 40e00 .cfa: sp 48 +
STACK CFI 40e0c .cfa: x29 48 + x19: .cfa -8 + ^ x20: .cfa -16 + ^ x21: .cfa -32 + ^ .ra: .cfa -40 + ^ x29: .cfa -48 + ^
STACK CFI 40e78 .cfa: sp 48 +
STACK CFI 40e84 .cfa: sp 0 +
STACK CFI 40e88 .cfa: x29 48 +
STACK CFI INIT 41124 2c0 .cfa: sp 0 +
STACK CFI 41128 .cfa: sp 144 +
STACK CFI 4113c .cfa: x29 64 + x19: .cfa -8 + ^ x20: .cfa -16 + ^ x21: .cfa -24 + ^ x22: .cfa -32 + ^ x23: .cfa -48 + ^ .ra: .cfa -56 + ^ x29: .cfa -64 + ^
STACK CFI 41290 .cfa: sp 144 +
STACK CFI 412a4 .cfa: sp 0 +
STACK CFI 412a8 .cfa: x29 64 +
STACK CFI INIT 413e4 83c .cfa: sp 0 +
STACK CFI 413e8 .cfa: sp 144 +
STACK CFI 413fc .cfa: x29 64 + x19: .cfa -8 + ^ x20: .cfa -16 + ^ x21: .cfa -24 + ^ x22: .cfa -32 + ^ x23: .cfa -48 + ^ .ra: .cfa -56 + ^ x29: .cfa -64 + ^
STACK CFI 41a58 .cfa: sp 144 +
STACK CFI 41a6c .cfa: sp 0 +
STACK CFI 41a70 .cfa: x29 64 +
STACK CFI INIT 41c20 7b0 .cfa: sp 0 +
STACK CFI 41c24 .cfa: sp 80 +
STACK CFI 41c38 .cfa: x29 80 + x19: .cfa -8 + ^ x20: .cfa -16 + ^ x21: .cfa -24 + ^ x22: .cfa -32 + ^ x23: .cfa -40 + ^ x24: .cfa -48 + ^ x25: .cfa -56 + ^ x26: .cfa -64 + ^ .ra: .cfa -72 + ^ x29: .cfa -80 + ^
STACK CFI 42054 .cfa: sp 80 +
STACK CFI 42068 .cfa: sp 0 +
STACK CFI 4206c .cfa: x29 80 +
STACK CFI INIT 42424 16c .cfa: sp 0 +
STACK CFI 42428 .cfa: sp 160 +
STACK CFI 42440 .cfa: x29 80 + x19: .cfa -8 + ^ x20: .cfa -16 + ^ x21: .cfa -24 + ^ x22: .cfa -32 + ^ x23: .cfa -40 + ^ x24: .cfa -48 + ^ x25: .cfa -56 + ^ x26: .cfa -64 + ^ .ra: .cfa -72 + ^ x29: .cfa -80 + ^
STACK CFI 424a8 .cfa: sp 160 +
STACK CFI 424c0 .cfa: sp 0 +
STACK CFI 424c4 .cfa: x29 80 +
STACK CFI INIT 42590 174 .cfa: sp 0 +
STACK CFI 42594 .cfa: sp 96 +
STACK CFI 425a4 .cfa: x29 48 + x19: .cfa -8 + ^ x20: .cfa -16 + ^ x21: .cfa -24 + ^ x22: .cfa -32 + ^ .ra: .cfa -40 + ^ x29: .cfa -48 + ^
STACK CFI 426a4 .cfa: sp 96 +
STACK CFI 426b4 .cfa: sp 0 +
STACK CFI 426b8 .cfa: x29 48 +
STACK CFI INIT 4270c 17c .cfa: sp 0 +
STACK CFI 42710 .cfa: sp 176 +
STACK CFI 4272c .cfa: x29 80 + x19: .cfa -8 + ^ x20: .cfa -16 + ^ x21: .cfa -24 + ^ x22: .cfa -32 + ^ x23: .cfa -40 + ^ x24: .cfa -48 + ^ x25: .cfa -56 + ^ x26: .cfa -64 + ^ .ra: .cfa -72 + ^ x29: .cfa -80 + ^ v8: .cfa -96 + ^
STACK CFI 4279c .cfa: sp 176 +
STACK CFI 427b8 .cfa: sp 0 +
STACK CFI 427bc .cfa: x29 80 +
STACK CFI INIT 42888 178 .cfa: sp 0 +
STACK CFI 4288c .cfa: sp 96 +
STACK CFI 4289c .cfa: x29 48 + x19: .cfa -8 + ^ x20: .cfa -16 + ^ x21: .cfa -24 + ^ x22: .cfa -32 + ^ .ra: .cfa -40 + ^ x29: .cfa -48 + ^
STACK CFI 429a0 .cfa: sp 96 +
STACK CFI 429b0 .cfa: sp 0 +
STACK CFI 429b4 .cfa: x29 48 +
STACK CFI INIT 42a08 15c .cfa: sp 0 +
STACK CFI 42a0c .cfa: sp 144 +
STACK CFI 42a24 .cfa: x29 56 + x19: .cfa -8 + ^ x20: .cfa -16 + ^ x21: .cfa -24 + ^ x22: .cfa -32 + ^ x23: .cfa -40 + ^ .ra: .cfa -48 + ^ x29: .cfa -56 + ^ v8: .cfa -64 + ^
STACK CFI 42a7c .cfa: sp 144 +
STACK CFI 42a94 .cfa: sp 0 +
STACK CFI 42a98 .cfa: x29 56 +
STACK CFI INIT 42b64 10c .cfa: sp 0 +
STACK CFI 42b68 .cfa: sp 64 +
STACK CFI 42b78 .cfa: x29 48 + x19: .cfa -8 + ^ x20: .cfa -16 + ^ x21: .cfa -24 + ^ x22: .cfa -32 + ^ .ra: .cfa -40 + ^ x29: .cfa -48 + ^
STACK CFI 42c28 .cfa: sp 64 +
STACK CFI 42c38 .cfa: sp 0 +
STACK CFI 42c3c .cfa: x29 48 +
STACK CFI INIT 42c78 14c .cfa: sp 0 +
STACK CFI 42c7c .cfa: sp 144 +
STACK CFI 42c90 .cfa: x29 64 + x19: .cfa -8 + ^ x20: .cfa -16 + ^ x21: .cfa -24 + ^ x22: .cfa -32 + ^ x23: .cfa -48 + ^ .ra: .cfa -56 + ^ x29: .cfa -64 + ^
STACK CFI 42ce0 .cfa: sp 144 +
STACK CFI 42cf4 .cfa: sp 0 +
STACK CFI 42cf8 .cfa: x29 64 +
STACK CFI INIT 42dc4 100 .cfa: sp 0 +
STACK CFI 42dc8 .cfa: sp 64 +
STACK CFI 42dd8 .cfa: x29 48 + x19: .cfa -8 + ^ x20: .cfa -16 + ^ x21: .cfa -24 + ^ x22: .cfa -32 + ^ .ra: .cfa -40 + ^ x29: .cfa -48 + ^
STACK CFI 42e7c .cfa: sp 64 +
STACK CFI 42e8c .cfa: sp 0 +
STACK CFI 42e90 .cfa: x29 48 +
STACK CFI INIT 42edc 164 .cfa: sp 0 +
STACK CFI 42ee0 .cfa: sp 160 +
STACK CFI 42ef8 .cfa: x29 80 + x19: .cfa -8 + ^ x20: .cfa -16 + ^ x21: .cfa -24 + ^ x22: .cfa -32 + ^ x23: .cfa -40 + ^ x24: .cfa -48 + ^ x25: .cfa -64 + ^ .ra: .cfa -72 + ^ x29: .cfa -80 + ^
STACK CFI 42f58 .cfa: sp 160 +
STACK CFI 42f70 .cfa: sp 0 +
STACK CFI 42f74 .cfa: x29 80 +
STACK CFI INIT 43040 164 .cfa: sp 0 +
STACK CFI 43044 .cfa: sp 64 +
STACK CFI 43054 .cfa: x29 48 + x19: .cfa -8 + ^ x20: .cfa -16 + ^ x21: .cfa -24 + ^ x22: .cfa -32 + ^ .ra: .cfa -40 + ^ x29: .cfa -48 + ^
STACK CFI 43144 .cfa: sp 64 +
STACK CFI 43154 .cfa: sp 0 +
STACK CFI 43158 .cfa: x29 48 +
STACK CFI INIT 431a4 17c .cfa: sp 0 +
STACK CFI 431a8 .cfa: sp 176 +
STACK CFI 431c4 .cfa: x29 96 + x19: .cfa -8 + ^ x20: .cfa -16 + ^ x21: .cfa -24 + ^ x22: .cfa -32 + ^ x23: .cfa -40 + ^ x24: .cfa -48 + ^ x25: .cfa -56 + ^ x26: .cfa -64 + ^ x27: .cfa -80 + ^ .ra: .cfa -88 + ^ x29: .cfa -96 + ^
STACK CFI 43234 .cfa: sp 176 +
STACK CFI 43250 .cfa: sp 0 +
STACK CFI 43254 .cfa: x29 96 +
STACK CFI INIT 43320 178 .cfa: sp 0 +
STACK CFI 43324 .cfa: sp 64 +
STACK CFI 43334 .cfa: x29 48 + x19: .cfa -8 + ^ x20: .cfa -16 + ^ x21: .cfa -24 + ^ x22: .cfa -32 + ^ .ra: .cfa -40 + ^ x29: .cfa -48 + ^
STACK CFI 43438 .cfa: sp 64 +
STACK CFI 43448 .cfa: sp 0 +
STACK CFI 4344c .cfa: x29 48 +
STACK CFI INIT 43498 14c .cfa: sp 0 +
STACK CFI 4349c .cfa: sp 144 +
STACK CFI 434b0 .cfa: x29 64 + x19: .cfa -8 + ^ x20: .cfa -16 + ^ x21: .cfa -24 + ^ x22: .cfa -32 + ^ x23: .cfa -48 + ^ .ra: .cfa -56 + ^ x29: .cfa -64 + ^
STACK CFI 43500 .cfa: sp 144 +
STACK CFI 43514 .cfa: sp 0 +
STACK CFI 43518 .cfa: x29 64 +
STACK CFI INIT 435e4 100 .cfa: sp 0 +
STACK CFI 435e8 .cfa: sp 64 +
STACK CFI 435f8 .cfa: x29 48 + x19: .cfa -8 + ^ x20: .cfa -16 + ^ x21: .cfa -24 + ^ x22: .cfa -32 + ^ .ra: .cfa -40 + ^ x29: .cfa -48 + ^
STACK CFI 4369c .cfa: sp 64 +
STACK CFI 436ac .cfa: sp 0 +
STACK CFI 436b0 .cfa: x29 48 +
STACK CFI INIT 436e4 37c .cfa: sp 0 +
STACK CFI 436e8 .cfa: sp 144 +
STACK CFI 436fc .cfa: x29 64 + x19: .cfa -8 + ^ x20: .cfa -16 + ^ x21: .cfa -24 + ^ x22: .cfa -32 + ^ x23: .cfa -48 + ^ .ra: .cfa -56 + ^ x29: .cfa -64 + ^
STACK CFI 4390c .cfa: sp 144 +
STACK CFI 43920 .cfa: sp 0 +
STACK CFI 43924 .cfa: x29 64 +
STACK CFI INIT 43ab4 14c .cfa: sp 0 +
STACK CFI 43ab8 .cfa: sp 144 +
STACK CFI 43acc .cfa: x29 64 + x19: .cfa -8 + ^ x20: .cfa -16 + ^ x21: .cfa -24 + ^ x22: .cfa -32 + ^ x23: .cfa -48 + ^ .ra: .cfa -56 + ^ x29: .cfa -64 + ^
STACK CFI 43b1c .cfa: sp 144 +
STACK CFI 43b30 .cfa: sp 0 +
STACK CFI 43b34 .cfa: x29 64 +
STACK CFI INIT 43c00 100 .cfa: sp 0 +
STACK CFI 43c04 .cfa: sp 64 +
STACK CFI 43c14 .cfa: x29 48 + x19: .cfa -8 + ^ x20: .cfa -16 + ^ x21: .cfa -24 + ^ x22: .cfa -32 + ^ .ra: .cfa -40 + ^ x29: .cfa -48 + ^
STACK CFI 43cb8 .cfa: sp 64 +
STACK CFI 43cc8 .cfa: sp 0 +
STACK CFI 43ccc .cfa: x29 48 +
STACK CFI INIT 43da0 2e4 .cfa: sp 0 +
STACK CFI 43da4 .cfa: sp 144 +
STACK CFI 43db8 .cfa: x29 64 + x19: .cfa -8 + ^ x20: .cfa -16 + ^ x21: .cfa -24 + ^ x22: .cfa -32 + ^ x23: .cfa -48 + ^ .ra: .cfa -56 + ^ x29: .cfa -64 + ^
STACK CFI 43f30 .cfa: sp 144 +
STACK CFI 43f44 .cfa: sp 0 +
STACK CFI 43f48 .cfa: x29 64 +
STACK CFI INIT 44084 2e4 .cfa: sp 0 +
STACK CFI 44088 .cfa: sp 144 +
STACK CFI 4409c .cfa: x29 64 + x19: .cfa -8 + ^ x20: .cfa -16 + ^ x21: .cfa -24 + ^ x22: .cfa -32 + ^ x23: .cfa -48 + ^ .ra: .cfa -56 + ^ x29: .cfa -64 + ^
STACK CFI 44214 .cfa: sp 144 +
STACK CFI 44228 .cfa: sp 0 +
STACK CFI 4422c .cfa: x29 64 +
STACK CFI INIT 44368 2a0 .cfa: sp 0 +
STACK CFI 4436c .cfa: sp 144 +
STACK CFI 44380 .cfa: x29 64 + x19: .cfa -8 + ^ x20: .cfa -16 + ^ x21: .cfa -24 + ^ x22: .cfa -32 + ^ x23: .cfa -48 + ^ .ra: .cfa -56 + ^ x29: .cfa -64 + ^
STACK CFI 444b4 .cfa: sp 144 +
STACK CFI 444c8 .cfa: sp 0 +
STACK CFI 444cc .cfa: x29 64 +
STACK CFI INIT 44608 2f0 .cfa: sp 0 +
STACK CFI 4460c .cfa: sp 144 +
STACK CFI 44620 .cfa: x29 64 + x19: .cfa -8 + ^ x20: .cfa -16 + ^ x21: .cfa -24 + ^ x22: .cfa -32 + ^ x23: .cfa -48 + ^ .ra: .cfa -56 + ^ x29: .cfa -64 + ^
STACK CFI 447a4 .cfa: sp 144 +
STACK CFI 447b8 .cfa: sp 0 +
STACK CFI 447bc .cfa: x29 64 +
STACK CFI INIT 448f8 4f4 .cfa: sp 0 +
STACK CFI 448fc .cfa: sp 144 +
STACK CFI 44910 .cfa: x29 64 + x19: .cfa -8 + ^ x20: .cfa -16 + ^ x21: .cfa -24 + ^ x22: .cfa -32 + ^ x23: .cfa -48 + ^ .ra: .cfa -56 + ^ x29: .cfa -64 + ^
STACK CFI 44c44 .cfa: sp 144 +
STACK CFI 44c58 .cfa: sp 0 +
STACK CFI 44c5c .cfa: x29 64 +
STACK CFI INIT 44dec 154 .cfa: sp 0 +
STACK CFI 44df0 .cfa: sp 384 +
STACK CFI 44e04 .cfa: x29 64 + x19: .cfa -8 + ^ x20: .cfa -16 + ^ x21: .cfa -24 + ^ x22: .cfa -32 + ^ x23: .cfa -40 + ^ x28: .cfa -48 + ^ .ra: .cfa -56 + ^ x29: .cfa -64 + ^
STACK CFI 44ee8 .cfa: sp 384 +
STACK CFI 44efc .cfa: sp 0 +
STACK CFI 44f00 .cfa: x29 64 +
STACK CFI INIT 44f58 50c .cfa: sp 0 +
STACK CFI 44f5c .cfa: sp 64 +
STACK CFI 44f6c .cfa: x29 64 + x19: .cfa -8 + ^ x20: .cfa -16 + ^ x21: .cfa -24 + ^ x22: .cfa -32 + ^ x23: .cfa -40 + ^ x24: .cfa -48 + ^ .ra: .cfa -56 + ^ x29: .cfa -64 + ^
STACK CFI 4508c .cfa: sp 64 +
STACK CFI 4509c .cfa: sp 0 +
STACK CFI 450a0 .cfa: x29 64 +
STACK CFI 45438 .cfa: sp 64 +
STACK CFI 45448 .cfa: sp 0 +
STACK CFI 4544c .cfa: x29 64 +
STACK CFI INIT 45794 294 .cfa: sp 0 +
STACK CFI 45798 .cfa: sp 240 +
STACK CFI 457b0 .cfa: x29 80 + x19: .cfa -8 + ^ x20: .cfa -16 + ^ x21: .cfa -24 + ^ x22: .cfa -32 + ^ x23: .cfa -40 + ^ x24: .cfa -48 + ^ x25: .cfa -64 + ^ .ra: .cfa -72 + ^ x29: .cfa -80 + ^
STACK CFI 45950 .cfa: sp 240 +
STACK CFI 45968 .cfa: sp 0 +
STACK CFI 4596c .cfa: x29 80 +
STACK CFI INIT 45aa4 50 .cfa: sp 0 +
STACK CFI 45aa8 .cfa: sp 32 +
STACK CFI 45ab0 .cfa: x29 32 + x19: .cfa -8 + ^ x20: .cfa -16 + ^ .ra: .cfa -24 + ^ x29: .cfa -32 + ^
STACK CFI INIT 45b20 7c0 .cfa: sp 0 +
STACK CFI 45b24 .cfa: sp 320 +
STACK CFI 45b40 .cfa: x29 96 + x19: .cfa -8 + ^ x20: .cfa -16 + ^ x21: .cfa -24 + ^ x22: .cfa -32 + ^ x23: .cfa -40 + ^ x24: .cfa -48 + ^ x25: .cfa -56 + ^ x26: .cfa -64 + ^ x27: .cfa -72 + ^ x28: .cfa -80 + ^ .ra: .cfa -88 + ^ x29: .cfa -96 + ^
STACK CFI 46190 .cfa: sp 320 +
STACK CFI 461ac .cfa: sp 0 +
STACK CFI 461b0 .cfa: x29 96 +
STACK CFI INIT 4a660 c74 .cfa: sp 0 +
STACK CFI 4a664 .cfa: sp 96 +
STACK CFI 4a67c .cfa: x29 96 + x19: .cfa -8 + ^ x20: .cfa -16 + ^ x21: .cfa -24 + ^ x22: .cfa -32 + ^ x23: .cfa -40 + ^ x24: .cfa -48 + ^ x25: .cfa -56 + ^ x26: .cfa -64 + ^ x27: .cfa -72 + ^ x28: .cfa -80 + ^ .ra: .cfa -88 + ^ x29: .cfa -96 + ^
STACK CFI 4b0f4 .cfa: sp 96 +
STACK CFI 4b10c .cfa: sp 0 +
STACK CFI 4b110 .cfa: x29 96 +
STACK CFI INIT 4b428 26c .cfa: sp 0 +
STACK CFI 4b42c .cfa: sp 128 +
STACK CFI 4b43c .cfa: x29 48 + x19: .cfa -8 + ^ x20: .cfa -16 + ^ x21: .cfa -24 + ^ x22: .cfa -32 + ^ .ra: .cfa -40 + ^ x29: .cfa -48 + ^
STACK CFI 4b5e0 .cfa: sp 128 +
STACK CFI 4b5f0 .cfa: sp 0 +
STACK CFI 4b5f4 .cfa: x29 48 +
STACK CFI INIT 4ba24 3b8 .cfa: sp 0 +
STACK CFI 4ba28 .cfa: sp 96 +
STACK CFI 4ba40 .cfa: x29 96 + x19: .cfa -8 + ^ x20: .cfa -16 + ^ x21: .cfa -24 + ^ x22: .cfa -32 + ^ x23: .cfa -40 + ^ x24: .cfa -48 + ^ x25: .cfa -56 + ^ x26: .cfa -64 + ^ x27: .cfa -72 + ^ x28: .cfa -80 + ^ .ra: .cfa -88 + ^ x29: .cfa -96 + ^
STACK CFI 4bd7c .cfa: sp 96 +
STACK CFI 4bd94 .cfa: sp 0 +
STACK CFI 4bd98 .cfa: x29 96 +
STACK CFI INIT 4be7c cb4 .cfa: sp 0 +
STACK CFI 4be80 .cfa: sp 96 +
STACK CFI 4be98 .cfa: x29 96 + x19: .cfa -8 + ^ x20: .cfa -16 + ^ x21: .cfa -24 + ^ x22: .cfa -32 + ^ x23: .cfa -40 + ^ x24: .cfa -48 + ^ x25: .cfa -56 + ^ x26: .cfa -64 + ^ x27: .cfa -72 + ^ x28: .cfa -80 + ^ .ra: .cfa -88 + ^ x29: .cfa -96 + ^
STACK CFI 4c940 .cfa: sp 96 +
STACK CFI 4c958 .cfa: sp 0 +
STACK CFI 4c95c .cfa: x29 96 +
STACK CFI INIT 4ce18 afc .cfa: sp 0 +
STACK CFI 4ce1c .cfa: sp 96 +
STACK CFI 4ce34 .cfa: x29 96 + x19: .cfa -8 + ^ x20: .cfa -16 + ^ x21: .cfa -24 + ^ x22: .cfa -32 + ^ x23: .cfa -40 + ^ x24: .cfa -48 + ^ x25: .cfa -56 + ^ x26: .cfa -64 + ^ x27: .cfa -72 + ^ x28: .cfa -80 + ^ .ra: .cfa -88 + ^ x29: .cfa -96 + ^
STACK CFI 4d888 .cfa: sp 96 +
STACK CFI 4d8a0 .cfa: sp 0 +
STACK CFI 4d8a4 .cfa: x29 96 +
STACK CFI INIT 4daf0 1430 .cfa: sp 0 +
STACK CFI 4daf4 .cfa: sp 96 +
STACK CFI 4db0c .cfa: x29 96 + x19: .cfa -8 + ^ x20: .cfa -16 + ^ x21: .cfa -24 + ^ x22: .cfa -32 + ^ x23: .cfa -40 + ^ x24: .cfa -48 + ^ x25: .cfa -56 + ^ x26: .cfa -64 + ^ x27: .cfa -72 + ^ x28: .cfa -80 + ^ .ra: .cfa -88 + ^ x29: .cfa -96 + ^
STACK CFI 4eda8 .cfa: sp 96 +
STACK CFI 4edc0 .cfa: sp 0 +
STACK CFI 4edc4 .cfa: x29 96 +
STACK CFI INIT 4f044 75c .cfa: sp 0 +
STACK CFI 4f048 .cfa: sp 368 +
STACK CFI 4f064 .cfa: x29 96 + x19: .cfa -8 + ^ x20: .cfa -16 + ^ x21: .cfa -24 + ^ x22: .cfa -32 + ^ x23: .cfa -40 + ^ x24: .cfa -48 + ^ x25: .cfa -56 + ^ x26: .cfa -64 + ^ x27: .cfa -72 + ^ x28: .cfa -80 + ^ .ra: .cfa -88 + ^ x29: .cfa -96 + ^
STACK CFI 4f118 .cfa: sp 368 +
STACK CFI 4f134 .cfa: sp 0 +
STACK CFI 4f138 .cfa: x29 96 +
STACK CFI 4f18c .cfa: sp 368 +
STACK CFI 4f1a8 .cfa: sp 0 +
STACK CFI 4f1ac .cfa: x29 96 +
STACK CFI INIT 4fb60 eb0 .cfa: sp 0 +
STACK CFI 4fb64 .cfa: sp 96 +
STACK CFI 4fb7c .cfa: x29 96 + x19: .cfa -8 + ^ x20: .cfa -16 + ^ x21: .cfa -24 + ^ x22: .cfa -32 + ^ x23: .cfa -40 + ^ x24: .cfa -48 + ^ x25: .cfa -56 + ^ x26: .cfa -64 + ^ x27: .cfa -72 + ^ x28: .cfa -80 + ^ .ra: .cfa -88 + ^ x29: .cfa -96 + ^
STACK CFI 50824 .cfa: sp 96 +
STACK CFI 5083c .cfa: sp 0 +
STACK CFI 50840 .cfa: x29 96 +
STACK CFI INIT 50d84 1c9c .cfa: sp 0 +
STACK CFI 50d88 .cfa: sp 112 +
STACK CFI 50da4 .cfa: x29 96 + x19: .cfa -8 + ^ x20: .cfa -16 + ^ x21: .cfa -24 + ^ x22: .cfa -32 + ^ x23: .cfa -40 + ^ x24: .cfa -48 + ^ x25: .cfa -56 + ^ x26: .cfa -64 + ^ x27: .cfa -72 + ^ x28: .cfa -80 + ^ .ra: .cfa -88 + ^ x29: .cfa -96 + ^ v8: .cfa -112 + ^
STACK CFI 5118c .cfa: sp 112 +
STACK CFI 511a8 .cfa: sp 0 +
STACK CFI 511ac .cfa: x29 96 +
STACK CFI INIT 551e4 9a0 .cfa: sp 0 +
STACK CFI 551e8 .cfa: sp 144 +
STACK CFI 55200 .cfa: x29 80 + x19: .cfa -8 + ^ x20: .cfa -16 + ^ x21: .cfa -24 + ^ x22: .cfa -32 + ^ x23: .cfa -40 + ^ x24: .cfa -48 + ^ x25: .cfa -64 + ^ .ra: .cfa -72 + ^ x29: .cfa -80 + ^
STACK CFI 55b00 .cfa: sp 144 +
STACK CFI 55b18 .cfa: sp 0 +
STACK CFI 55b1c .cfa: x29 80 +
STACK CFI INIT 570b0 57c .cfa: sp 0 +
STACK CFI 570b4 .cfa: sp 96 +
STACK CFI 570cc .cfa: x29 96 + x19: .cfa -8 + ^ x20: .cfa -16 + ^ x21: .cfa -24 + ^ x22: .cfa -32 + ^ x23: .cfa -40 + ^ x24: .cfa -48 + ^ x25: .cfa -56 + ^ x26: .cfa -64 + ^ x27: .cfa -72 + ^ x28: .cfa -80 + ^ .ra: .cfa -88 + ^ x29: .cfa -96 + ^
STACK CFI 57590 .cfa: sp 96 +
STACK CFI 575a8 .cfa: sp 0 +
STACK CFI 575ac .cfa: x29 96 +
STACK CFI INIT 5762c 67c .cfa: sp 0 +
STACK CFI 57630 .cfa: sp 96 +
STACK CFI 57648 .cfa: x29 96 + x19: .cfa -8 + ^ x20: .cfa -16 + ^ x21: .cfa -24 + ^ x22: .cfa -32 + ^ x23: .cfa -40 + ^ x24: .cfa -48 + ^ x25: .cfa -56 + ^ x26: .cfa -64 + ^ x27: .cfa -72 + ^ x28: .cfa -80 + ^ .ra: .cfa -88 + ^ x29: .cfa -96 + ^
STACK CFI 57c0c .cfa: sp 96 +
STACK CFI 57c24 .cfa: sp 0 +
STACK CFI 57c28 .cfa: x29 96 +
