MODULE Linux arm64 EDFEBA2A522140845CF5839CA4A49D550 dogotrigger.triggersearch.android64.so
INFO CODE_ID 2ABAFEED215284405CF5839CA4A49D55DDFDC477
INFO GENERATOR mozilla/dump_syms 2.3.4
PUBLIC 10e90 0 __on_dlclose
PUBLIC 10ea0 0 __emutls_unregister_key
PUBLIC 10ea8 0 __on_dlclose_late
PUBLIC 10eb0 0 __atexit_handler_wrapper
PUBLIC 10ec4 0 atexit
PUBLIC 10ee0 0 pthread_atfork
PUBLIC 10ef0 0 unwind_phase2
PUBLIC 11024 0 _Unwind_Resume
PUBLIC 110a8 0 unwind_phase2_forced
PUBLIC m 1119c 0 __unw_init_local
PUBLIC m 11244 0 __unw_get_reg
PUBLIC 112c0 0 __unw_step_stage2
PUBLIC m 112d4 0 __unw_get_proc_info
PUBLIC m 11314 0 __unw_resume
PUBLIC 1133c 0 libunwind::CFI_Parser<libunwind::LocalAddressSpace>::decodeFDE(libunwind::LocalAddressSpace&, unsigned long, libunwind::CFI_Parser<libunwind::LocalAddressSpace>::FDE_Info*, libunwind::CFI_Parser<libunwind::LocalAddressSpace>::CIE_Info*, bool)
PUBLIC 114cc 0 libunwind::CFI_Parser<libunwind::LocalAddressSpace>::parseCIE(libunwind::LocalAddressSpace&, unsigned long, libunwind::CFI_Parser<libunwind::LocalAddressSpace>::CIE_Info*)
PUBLIC 11794 0 libunwind::AbstractUnwindCursor::~AbstractUnwindCursor()
PUBLIC 1179c 0 libunwind::UnwindCursor<libunwind::LocalAddressSpace, libunwind::Registers_arm64>::~UnwindCursor()
PUBLIC 117a4 0 libunwind::UnwindCursor<libunwind::LocalAddressSpace, libunwind::Registers_arm64>::validReg(int)
PUBLIC 117e8 0 libunwind::UnwindCursor<libunwind::LocalAddressSpace, libunwind::Registers_arm64>::getReg(int)
PUBLIC 118d0 0 libunwind::UnwindCursor<libunwind::LocalAddressSpace, libunwind::Registers_arm64>::setReg(int, unsigned long)
PUBLIC 119b8 0 libunwind::UnwindCursor<libunwind::LocalAddressSpace, libunwind::Registers_arm64>::validFloatReg(int)
PUBLIC 119cc 0 libunwind::UnwindCursor<libunwind::LocalAddressSpace, libunwind::Registers_arm64>::getFloatReg(int)
PUBLIC 119dc 0 libunwind::UnwindCursor<libunwind::LocalAddressSpace, libunwind::Registers_arm64>::setFloatReg(int, double)
PUBLIC 119ec 0 libunwind::UnwindCursor<libunwind::LocalAddressSpace, libunwind::Registers_arm64>::step(bool)
PUBLIC 11adc 0 libunwind::UnwindCursor<libunwind::LocalAddressSpace, libunwind::Registers_arm64>::getInfo(unw_proc_info_t*)
PUBLIC 11b20 0 libunwind::UnwindCursor<libunwind::LocalAddressSpace, libunwind::Registers_arm64>::jumpto()
PUBLIC 11b2c 0 libunwind::UnwindCursor<libunwind::LocalAddressSpace, libunwind::Registers_arm64>::isSignalFrame()
PUBLIC 11b38 0 libunwind::UnwindCursor<libunwind::LocalAddressSpace, libunwind::Registers_arm64>::getFunctionName(char*, unsigned long, unsigned long*)
PUBLIC 11b64 0 libunwind::UnwindCursor<libunwind::LocalAddressSpace, libunwind::Registers_arm64>::setInfoBasedOnIPRegister(bool)
PUBLIC 11de4 0 libunwind::UnwindCursor<libunwind::LocalAddressSpace, libunwind::Registers_arm64>::getRegisterName(int)
PUBLIC 11df0 0 libunwind::UnwindCursor<libunwind::LocalAddressSpace, libunwind::Registers_arm64>::stepThroughSigReturn(libunwind::Registers_arm64&)
PUBLIC 11f10 0 libunwind::DwarfInstructions<libunwind::LocalAddressSpace, libunwind::Registers_arm64>::stepWithDwarf(libunwind::LocalAddressSpace&, unsigned long, unsigned long, libunwind::Registers_arm64&, bool&, bool)
PUBLIC 12398 0 libunwind::CFI_Parser<libunwind::LocalAddressSpace>::parseFDEInstructions(libunwind::LocalAddressSpace&, libunwind::CFI_Parser<libunwind::LocalAddressSpace>::FDE_Info const&, libunwind::CFI_Parser<libunwind::LocalAddressSpace>::CIE_Info const&, unsigned long, int, libunwind::CFI_Parser<libunwind::LocalAddressSpace>::PrologInfo*)
PUBLIC 12fe0 0 libunwind::DwarfInstructions<libunwind::LocalAddressSpace, libunwind::Registers_arm64>::getCFA(libunwind::LocalAddressSpace&, libunwind::CFI_Parser<libunwind::LocalAddressSpace>::PrologInfo const&, libunwind::Registers_arm64 const&)
PUBLIC 13114 0 libunwind::DwarfInstructions<libunwind::LocalAddressSpace, libunwind::Registers_arm64>::getSavedRegister(libunwind::LocalAddressSpace&, libunwind::Registers_arm64 const&, unsigned long, libunwind::CFI_Parser<libunwind::LocalAddressSpace>::RegisterLocation const&)
PUBLIC 13324 0 libunwind::LocalAddressSpace::getEncodedP(unsigned long&, unsigned long, unsigned char, unsigned long)
PUBLIC 136b0 0 libunwind::LocalAddressSpace::getULEB128(unsigned long&, unsigned long)
PUBLIC 13878 0 libunwind::DwarfInstructions<libunwind::LocalAddressSpace, libunwind::Registers_arm64>::evaluateExpression(unsigned long, libunwind::LocalAddressSpace&, libunwind::Registers_arm64 const&, unsigned long)
PUBLIC 14234 0 libunwind::UnwindCursor<libunwind::LocalAddressSpace, libunwind::Registers_arm64>::getInfoFromDwarfSection(unsigned long, libunwind::UnwindInfoSections const&, unsigned int)
PUBLIC 14508 0 libunwind::findUnwindSectionsByPhdr(dl_phdr_info*, unsigned long, void*)
PUBLIC 1463c 0 libunwind::EHHeaderParser<libunwind::LocalAddressSpace>::decodeEHHdr(libunwind::LocalAddressSpace&, unsigned long, unsigned long, libunwind::EHHeaderParser<libunwind::LocalAddressSpace>::EHHeaderInfo&)
PUBLIC 1475c 0 libunwind::CFI_Parser<libunwind::LocalAddressSpace>::findFDE(libunwind::LocalAddressSpace&, unsigned long, unsigned long, unsigned long, unsigned long, libunwind::CFI_Parser<libunwind::LocalAddressSpace>::FDE_Info*, libunwind::CFI_Parser<libunwind::LocalAddressSpace>::CIE_Info*)
PUBLIC 14924 0 libunwind::EHHeaderParser<libunwind::LocalAddressSpace>::findFDE(libunwind::LocalAddressSpace&, unsigned long, unsigned long, unsigned int, libunwind::CFI_Parser<libunwind::LocalAddressSpace>::FDE_Info*, libunwind::CFI_Parser<libunwind::LocalAddressSpace>::CIE_Info*)
PUBLIC 14a8c 0 libunwind::EHHeaderParser<libunwind::LocalAddressSpace>::getTableEntrySize(unsigned char)
PUBLIC 14b88 0 libunwind::Registers_arm64::getRegisterName(int)
PUBLIC 14bb8 0 __libunwind_Registers_arm64_jumpto
PUBLIC m 14c48 0 __unw_getcontext
PUBLIC 14cf0 0 __aarch64_ldadd8_relax
PUBLIC 14d20 0 init_have_lse_atomics
PUBLIC 14db8 0 __init_cpu_features_constructor
PUBLIC 15354 0 __init_cpu_features
PUBLIC 153e0 0 __aarch64_ldadd8_acq_rel
FUNC 15410 13c1c 0 __cxx_global_var_init
FUNC 2902c 4 0 _GLOBAL__sub_I_main.cpp
FUNC 29030 14c 0 std::__ndk1::vector<std::__ndk1::basic_string<char, std::__ndk1::char_traits<char>, std::__ndk1::allocator<char> >, std::__ndk1::allocator<std::__ndk1::basic_string<char, std::__ndk1::char_traits<char>, std::__ndk1::allocator<char> > > >::vector[abi:ne180000](std::initializer_list<std::__ndk1::basic_string<char, std::__ndk1::char_traits<char>, std::__ndk1::allocator<char> > >)
FUNC 2917c 9c 0 std::__ndk1::pair<int const, SObject>::~pair()
FUNC 29218 9c 0 SObject::~SObject()
FUNC 292b4 7c 0 std::__ndk1::vector<std::__ndk1::basic_string<char, std::__ndk1::char_traits<char>, std::__ndk1::allocator<char> >, std::__ndk1::allocator<std::__ndk1::basic_string<char, std::__ndk1::char_traits<char>, std::__ndk1::allocator<char> > > >::~vector[abi:ne180000]()
FUNC 29330 8 0 std::__ndk1::map<int, SObject, std::__ndk1::less<int>, std::__ndk1::allocator<std::__ndk1::pair<int const, SObject> > >::~map[abi:ne180000]()
FUNC 29338 b30 0 __cxx_global_var_init.261
FUNC 29e68 18 0 geode::modifier::ModifyBase<geode::modifier::ModifyDerive<MyEditorUI, EditorUI> >::~ModifyBase()
FUNC 29e80 14 0 std::__ndk1::basic_string<char, std::__ndk1::char_traits<char>, std::__ndk1::allocator<char> >::__throw_length_error[abi:ne180000]() const
FUNC 29e94 50 0 std::__ndk1::__throw_length_error[abi:ne180000](char const*)
FUNC 29ee4 30 0 std::length_error::length_error[abi:ne180000](char const*)
FUNC 29f14 34 0 std::__throw_bad_array_new_length([abi:ne180000], void)
PUBLIC 29f48 0 __clang_call_terminate
FUNC 29f58 8c 0 std::__ndk1::__exception_guard_exceptions<std::__ndk1::vector<std::__ndk1::basic_string<char, std::__ndk1::char_traits<char>, std::__ndk1::allocator<char> >, std::__ndk1::allocator<std::__ndk1::basic_string<char, std::__ndk1::char_traits<char>, std::__ndk1::allocator<char> > > >::__destroy_vector>::~__exception_guard_exceptions[abi:ne180000]()
FUNC 29fe4 14 0 std::__ndk1::vector<std::__ndk1::basic_string<char, std::__ndk1::char_traits<char>, std::__ndk1::allocator<char> >, std::__ndk1::allocator<std::__ndk1::basic_string<char, std::__ndk1::char_traits<char>, std::__ndk1::allocator<char> > > >::__throw_length_error[abi:ne180000]() const
FUNC 29ff8 60 0 std::__ndk1::__exception_guard_exceptions<std::__ndk1::_AllocatorDestroyRangeReverse<std::__ndk1::allocator<std::__ndk1::basic_string<char, std::__ndk1::char_traits<char>, std::__ndk1::allocator<char> > >, std::__ndk1::basic_string<char, std::__ndk1::char_traits<char>, std::__ndk1::allocator<char> >*> >::~__exception_guard_exceptions[abi:ne180000]()
FUNC 2a058 70 0 std::__ndk1::basic_string<char, std::__ndk1::char_traits<char>, std::__ndk1::allocator<char> >::__init_copy_ctor_external(char const*, unsigned long)
FUNC 2a0c8 26c 0 TriggerCategory::setCategory(std::__ndk1::basic_string<char, std::__ndk1::char_traits<char>, std::__ndk1::allocator<char> > const&)
FUNC 2a334 74 0 std::__ndk1::operator==[abi:ne180000]<char, std::__ndk1::char_traits<char>, std::__ndk1::allocator<char> >(std::__ndk1::basic_string<char, std::__ndk1::char_traits<char>, std::__ndk1::allocator<char> > const&, std::__ndk1::basic_string const*)
FUNC 2a3a8 14 0 std::__ndk1::vector<TriggerCategory, std::__ndk1::allocator<TriggerCategory> >::__throw_length_error[abi:ne180000]() const
FUNC 2a3bc 240 0 SObject::SObject(SObject const&)
FUNC 2a5fc 44 0 std::__ndk1::unique_ptr<std::__ndk1::__tree_node<std::__ndk1::__value_type<int, SObject>, void*>, std::__ndk1::__tree_node_destructor<std::__ndk1::allocator<std::__ndk1::__tree_node<std::__ndk1::__value_type<int, SObject>, void*> > > >::~unique_ptr[abi:ne180000]()
FUNC 2a640 19c 0 std::__ndk1::__tree_balance_after_insert[abi:ne180000]<std::__ndk1::__tree_node_base<void*>*>(std::__ndk1::__tree_node_base<void*>*, std::__ndk1::__tree_node_base<void*>*)
FUNC 2a7dc 9c 0 _ZNSt6__ndk112__destroy_atB8ne180000INS_4pairIKi7SObjectEETnNS_9enable_ifIXntsr8is_arrayIT_EE5valueEiE4typeELi0EEEvPS6_
FUNC 2a878 44 0 std::__ndk1::__tree<std::__ndk1::__value_type<int, SObject>, std::__ndk1::__map_value_compare<int, std::__ndk1::__value_type<int, SObject>, std::__ndk1::less<int>, true>, std::__ndk1::allocator<std::__ndk1::__value_type<int, SObject> > >::destroy(std::__ndk1::__tree_node<std::__ndk1::__value_type<int, SObject>, void*>*)
FUNC 2a8bc 450 0 geode::modifier::ModifyDerive<MyEditorUI, EditorUI>::apply()
FUNC 2ad0c 50 0 std::__ndk1::shared_ptr<geode::Hook>::~shared_ptr[abi:ne180000]()
FUNC 2ad5c 74 0 geode::impl::ResultData<geode::Hook*, std::__ndk1::basic_string<char, std::__ndk1::char_traits<char>, std::__ndk1::allocator<char> > >::~ResultData()
FUNC 2add0 4 0 geode::modifier::ModifyBase<geode::modifier::ModifyDerive<MyEditorUI, EditorUI> >::apply()
FUNC 2add4 154 0 _ZN5geode15UnwrapExceptionC2IRPNS_4HookEQsr4implE18IsStringStreamableIT_EEENS_4impl5OkTagEOS5_
FUNC 2af28 34 0 std::__ndk1::__throw_bad_variant_access[abi:ne180000]()
FUNC 2af5c 124 0 std::__ndk1::basic_stringstream<char, std::__ndk1::char_traits<char>, std::__ndk1::allocator<char> >::basic_stringstream[abi:ne180000]()
FUNC 2b080 80 0 std::__ndk1::basic_stringstream<char, std::__ndk1::char_traits<char>, std::__ndk1::allocator<char> >::~basic_stringstream()
FUNC 2b100 24 0 geode::UnwrapException::~UnwrapException()
FUNC 2b124 198 0 std::__ndk1::__put_character_sequence[abi:ne180000]<char, std::__ndk1::char_traits<char> >(std::__ndk1::basic_ostream<char, std::__ndk1::char_traits<char> >, std::__ndk1::basic_ostream const*, unsigned long)
FUNC 2b2bc 1b4 0 std::__ndk1::__pad_and_output[abi:ne180000]<char, std::__ndk1::char_traits<char> >(std::__ndk1::char_traits<char>, std::__ndk1::ostreambuf_iterator const*, std::__ndk1::ostreambuf_iterator const, std::__ndk1::ostreambuf_iterator const, std::__ndk1::ios_base&, std::__ndk1::ostreambuf_iterator)
FUNC 2b470 15c 0 std::__ndk1::basic_stringbuf<char, std::__ndk1::char_traits<char>, std::__ndk1::allocator<char> >::str[abi:ne180000]() &&
FUNC 2b5cc 148 0 std::__ndk1::basic_stringbuf<char, std::__ndk1::char_traits<char>, std::__ndk1::allocator<char> >::__init_buf_ptrs[abi:ne180000]()
FUNC 2b714 68 0 std::__ndk1::__split_buffer<std::__ndk1::basic_string<char, std::__ndk1::char_traits<char>, std::__ndk1::allocator<char> >, std::__ndk1::allocator<std::__ndk1::basic_string<char, std::__ndk1::char_traits<char>, std::__ndk1::allocator<char> > >&>::~__split_buffer()
FUNC 2b77c 4 0 std::__ndk1::__variant_detail::__visitation::__base::__dispatcher<(unsigned long)0>::__dispatch[abi:ne180000]<std::__ndk1::__variant_detail::__dtor<std::__ndk1::__variant_detail::__traits<geode::Hook*, std::__ndk1::basic_string<char, std::__ndk1::char_traits<char>, std::__ndk1::allocator<char> > >, (std::__ndk1::__variant_detail::_Trait)1>::__destroy[abi:ne180000]()::{lambda(auto:1&)#1}, std::__ndk1::__variant_detail::__base<(std::__ndk1::__variant_detail::__traits<geode::Hook*, std::__ndk1::basic_string<char, std::__ndk1::char_traits<char>, std::__ndk1::allocator<char> > >)1, geode::Hook, std::__ndk1::allocator<char> >&>(std::__ndk1::__variant_detail::__dtor<std::__ndk1::__variant_detail::__traits<geode::Hook*, std::__ndk1::basic_string<char, std::__ndk1::char_traits<char>, std::__ndk1::allocator<char> > >, (std::__ndk1::__variant_detail::_Trait)1>, std::__ndk1::__variant_detail::__base<(std::__ndk1::__variant_detail::__traits<geode::Hook*, std::__ndk1::basic_string<char, std::__ndk1::char_traits<char>, std::__ndk1::allocator<char> > >)1, geode::Hook, std::__ndk1::allocator<char> >&)
FUNC 2b780 14 0 std::__ndk1::__variant_detail::__visitation::__base::__dispatcher<(unsigned long)1>::__dispatch[abi:ne180000]<std::__ndk1::__variant_detail::__dtor<std::__ndk1::__variant_detail::__traits<geode::Hook*, std::__ndk1::basic_string<char, std::__ndk1::char_traits<char>, std::__ndk1::allocator<char> > >, (std::__ndk1::__variant_detail::_Trait)1>::__destroy[abi:ne180000]()::{lambda(auto:1&)#1}, std::__ndk1::__variant_detail::__base<(std::__ndk1::__variant_detail::__traits<geode::Hook*, std::__ndk1::basic_string<char, std::__ndk1::char_traits<char>, std::__ndk1::allocator<char> > >)1, geode::Hook, std::__ndk1::allocator<char> >&>(std::__ndk1::__variant_detail::__dtor<std::__ndk1::__variant_detail::__traits<geode::Hook*, std::__ndk1::basic_string<char, std::__ndk1::char_traits<char>, std::__ndk1::allocator<char> > >, (std::__ndk1::__variant_detail::_Trait)1>, std::__ndk1::__variant_detail::__base<(std::__ndk1::__variant_detail::__traits<geode::Hook*, std::__ndk1::basic_string<char, std::__ndk1::char_traits<char>, std::__ndk1::allocator<char> > >)1, geode::Hook, std::__ndk1::allocator<char> >&)
FUNC 2b794 84 0 std::__ndk1::__tree<std::__ndk1::__value_type<std::__ndk1::basic_string<char, std::__ndk1::char_traits<char>, std::__ndk1::allocator<char> >, std::__ndk1::shared_ptr<geode::Hook> >, std::__ndk1::__map_value_compare<std::__ndk1::basic_string<char, std::__ndk1::char_traits<char>, std::__ndk1::allocator<char> >, std::__ndk1::__value_type<std::__ndk1::basic_string<char, std::__ndk1::char_traits<char>, std::__ndk1::allocator<char> >, std::__ndk1::shared_ptr<geode::Hook> >, std::__ndk1::less<std::__ndk1::basic_string<char, std::__ndk1::char_traits<char>, std::__ndk1::allocator<char> > >, true>, std::__ndk1::allocator<std::__ndk1::__value_type<std::__ndk1::basic_string<char, std::__ndk1::char_traits<char>, std::__ndk1::allocator<char> >, std::__ndk1::shared_ptr<geode::Hook> > > >::destroy(std::__ndk1::__tree_node<std::__ndk1::__value_type<std::__ndk1::basic_string<char, std::__ndk1::char_traits<char>, std::__ndk1::allocator<char> >, std::__ndk1::shared_ptr<geode::Hook> >, void*>*)
FUNC 2b818 6d8 0 geode::modifier::AsStaticFunction_init<MyEditorUI, bool (MyEditorUI::*)(LevelEditorLayer*)>::Impl<bool (MyEditorUI::*)(LevelEditorLayer*)>::function(MyEditorUI*, LevelEditorLayer*)
FUNC 2bef0 50 0 std::__ndk1::shared_ptr<tulip::hook::CallingConvention>::~shared_ptr[abi:ne180000]()
FUNC 2bf40 64 0 tulip::hook::HandlerMetadata::~HandlerMetadata()
FUNC 2bfa4 180 0 MyEditorUI::loadSearchTab(EditorUI*, CCMenuItemToggler*)
FUNC 2c124 62c 0 geode::modifier::FieldIntermediate<MyEditorUI, EditorUI>::self()
FUNC 2c750 14 0 geode::modifier::FieldIntermediate<MyEditorUI, EditorUI>::fieldDestructor(void*)
FUNC 2c764 14 0 std::__ndk1::vector<void*, std::__ndk1::allocator<void*> >::__throw_length_error[abi:ne180000]() const
FUNC 2c778 14 0 std::__ndk1::vector<std::__ndk1::function<void (void*)>, std::__ndk1::allocator<std::__ndk1::function<void (void*)> > >::__throw_length_error[abi:ne180000]() const
FUNC 2c78c c 0 std::__ndk1::vector<void*, std::__ndk1::allocator<void*> >::__throw_out_of_range[abi:ne180000]() const
FUNC 2c798 50 0 std::__ndk1::__throw_out_of_range[abi:ne180000](char const*)
FUNC 2c7e8 30 0 std::out_of_range::out_of_range[abi:ne180000](char const*)
FUNC 2c818 c 0 std::__ndk1::vector<std::__ndk1::function<void (void*)>, std::__ndk1::allocator<std::__ndk1::function<void (void*)> > >::__throw_out_of_range[abi:ne180000]() const
FUNC 2c824 4 0 std::__ndk1::__function::__base<void (void*)>::~__base()
FUNC 2c828 4 0 std::__ndk1::__function::__func<void (*)(void*), std::__ndk1::allocator<void (*)(void*)>, void (void*)>::~__func()
FUNC 2c82c 38 0 std::__ndk1::__function::__func<void (*)(void*), std::__ndk1::allocator<void (*)(void*)>, void (void*)>::__clone() const
FUNC 2c864 18 0 std::__ndk1::__function::__func<void (*)(void*), std::__ndk1::allocator<void (*)(void*)>, void (void*)>::__clone(std::__ndk1::__function::__base<void (void*)>*) const
FUNC 2c87c 4 0 std::__ndk1::__function::__func<void (*)(void*), std::__ndk1::allocator<void (*)(void*)>, void (void*)>::destroy()
FUNC 2c880 4 0 std::__ndk1::__function::__func<void (*)(void*), std::__ndk1::allocator<void (*)(void*)>, void (void*)>::destroy_deallocate()
FUNC 2c884 10 0 std::__ndk1::__function::__func<void (*)(void*), std::__ndk1::allocator<void (*)(void*)>, void (void*)>::operator()(void*&&)
FUNC 2c894 1c 0 std::__ndk1::__function::__func<void (*)(void*), std::__ndk1::allocator<void (*)(void*)>, void (void*)>::target(std::type_info const&) const
FUNC 2c8b0 c 0 std::__ndk1::__function::__func<void (*)(void*), std::__ndk1::allocator<void (*)(void*)>, void (void*)>::target_type() const
FUNC 2c8bc 8 0 cocos2d::CCCopying::copyWithZone(cocos2d::CCZone*)
FUNC 2c8c4 24 0 SObjectList::~SObjectList()
FUNC 2c8e8 23c 0 SObjectList::init()
FUNC 2cb24 4 0 std::__ndk1::__function::__base<void (std::__ndk1::basic_string<char, std::__ndk1::char_traits<char>, std::__ndk1::allocator<char> > const&)>::~__base()
FUNC 2cb28 4 0 std::__ndk1::__function::__func<MyEditorUI::init(LevelEditorLayer*)::{lambda(auto:1)#1}, std::__ndk1::allocator<MyEditorUI::init(LevelEditorLayer*)::{lambda(auto:1)#1}>, void (std::__ndk1::basic_string<char, std::__ndk1::char_traits<char>, std::__ndk1::allocator<char> > const&)>::~__func()
FUNC 2cb2c 40 0 std::__ndk1::__function::__func<MyEditorUI::init(LevelEditorLayer*)::{lambda(auto:1)#1}, std::__ndk1::allocator<MyEditorUI::init(LevelEditorLayer*)::{lambda(auto:1)#1}>, void (std::__ndk1::basic_string<char, std::__ndk1::char_traits<char>, std::__ndk1::allocator<char> > const&)>::__clone() const
FUNC 2cb6c 20 0 std::__ndk1::__function::__func<MyEditorUI::init(LevelEditorLayer*)::{lambda(auto:1)#1}, std::__ndk1::allocator<MyEditorUI::init(LevelEditorLayer*)::{lambda(auto:1)#1}>, void (std::__ndk1::basic_string<char, std::__ndk1::char_traits<char>, std::__ndk1::allocator<char> > const&)>::__clone(std::__ndk1::__function::__base<void (std::__ndk1::basic_string<char, std::__ndk1::char_traits<char>, std::__ndk1::allocator<char> > const&)>*) const
FUNC 2cb8c 4 0 std::__ndk1::__function::__func<MyEditorUI::init(LevelEditorLayer*)::{lambda(auto:1)#1}, std::__ndk1::allocator<MyEditorUI::init(LevelEditorLayer*)::{lambda(auto:1)#1}>, void (std::__ndk1::basic_string<char, std::__ndk1::char_traits<char>, std::__ndk1::allocator<char> > const&)>::destroy()
FUNC 2cb90 4 0 std::__ndk1::__function::__func<MyEditorUI::init(LevelEditorLayer*)::{lambda(auto:1)#1}, std::__ndk1::allocator<MyEditorUI::init(LevelEditorLayer*)::{lambda(auto:1)#1}>, void (std::__ndk1::basic_string<char, std::__ndk1::char_traits<char>, std::__ndk1::allocator<char> > const&)>::destroy_deallocate()
FUNC 2cb94 1e98 0 std::__ndk1::__function::__func<MyEditorUI::init(LevelEditorLayer*)::{lambda(auto:1)#1}, std::__ndk1::allocator<MyEditorUI::init(LevelEditorLayer*)::{lambda(auto:1)#1}>, void (std::__ndk1::basic_string<char, std::__ndk1::char_traits<char>, std::__ndk1::allocator<char> > const&)>::operator()(std::__ndk1::basic_string<char, std::__ndk1::char_traits<char>, std::__ndk1::allocator<char> > const&)
FUNC 2ea2c 1c 0 std::__ndk1::__function::__func<MyEditorUI::init(LevelEditorLayer*)::{lambda(auto:1)#1}, std::__ndk1::allocator<MyEditorUI::init(LevelEditorLayer*)::{lambda(auto:1)#1}>, void (std::__ndk1::basic_string<char, std::__ndk1::char_traits<char>, std::__ndk1::allocator<char> > const&)>::target(std::type_info const&) const
FUNC 2ea48 c 0 std::__ndk1::__function::__func<MyEditorUI::init(LevelEditorLayer*)::{lambda(auto:1)#1}, std::__ndk1::allocator<MyEditorUI::init(LevelEditorLayer*)::{lambda(auto:1)#1}>, void (std::__ndk1::basic_string<char, std::__ndk1::char_traits<char>, std::__ndk1::allocator<char> > const&)>::target_type() const
FUNC 2ea54 ac 0 std::__ndk1::basic_string<char, std::__ndk1::char_traits<char>, std::__ndk1::allocator<char> >::__assign_no_alias<true>(char const*, unsigned long)
FUNC 2eb00 100 0 std::__ndk1::basic_string<char, std::__ndk1::char_traits<char>, std::__ndk1::allocator<char> >::__assign_no_alias<false>(char const*, unsigned long)
FUNC 2ec00 d0 0 SObjectCell::~SObjectCell()
FUNC 2ecd0 24 0 SObjectCell::~SObjectCell()
FUNC 2ecf4 cc 0 SObjectCell::update(float)
FUNC 2edc0 124 0 SObjectCell::onCopy(cocos2d::CCObject*)
FUNC 2eee4 d8 0 geode::cast::traverseTypeinfoFor(void*, geode::cast::ClassTypeinfoType const*, char const*)
FUNC 2efbc 14 0 std::__ndk1::vector<cocos2d::CCSprite*, std::__ndk1::allocator<cocos2d::CCSprite*> >::__throw_length_error[abi:ne180000]() const
FUNC 2efd0 14 0 std::__ndk1::vector<cocos2d::_ccColor3B, std::__ndk1::allocator<cocos2d::_ccColor3B> >::__throw_length_error[abi:ne180000]() const
FUNC 2efe4 14 0 std::__ndk1::vector<TextGradient::GradStep, std::__ndk1::allocator<TextGradient::GradStep> >::__throw_length_error[abi:ne180000]() const
FUNC 2eff8 414 0 SObjectCell::setupTriggerSprite(float)
FUNC 2f40c 20 0 geode::cocos::CCArrayExt<cocos2d::CCNode*>::~CCArrayExt()
FUNC 2f42c 4 0 std::__ndk1::__function::__base<cocos2d::CCNode* (EditorUI*, CCMenuItemToggler*)>::~__base()
FUNC 2f430 4 0 std::__ndk1::__function::__func<std::__ndk1::__bind<cocos2d::CCNode* (MyEditorUI::*)(EditorUI*, CCMenuItemToggler*), MyEditorUI*, std::__ndk1::placeholders::__ph<1> const&, std::__ndk1::placeholders::__ph<2> const&>, std::__ndk1::allocator<std::__ndk1::__bind<cocos2d::CCNode* (MyEditorUI::*)(EditorUI*, CCMenuItemToggler*), MyEditorUI*, std::__ndk1::placeholders::__ph<1> const&, std::__ndk1::placeholders::__ph<2> const&> >, cocos2d::CCNode* (EditorUI*, CCMenuItemToggler*)>::~__func()
FUNC 2f434 40 0 std::__ndk1::__function::__func<std::__ndk1::__bind<cocos2d::CCNode* (MyEditorUI::*)(EditorUI*, CCMenuItemToggler*), MyEditorUI*, std::__ndk1::placeholders::__ph<1> const&, std::__ndk1::placeholders::__ph<2> const&>, std::__ndk1::allocator<std::__ndk1::__bind<cocos2d::CCNode* (MyEditorUI::*)(EditorUI*, CCMenuItemToggler*), MyEditorUI*, std::__ndk1::placeholders::__ph<1> const&, std::__ndk1::placeholders::__ph<2> const&> >, cocos2d::CCNode* (EditorUI*, CCMenuItemToggler*)>::__clone() const
FUNC 2f474 20 0 std::__ndk1::__function::__func<std::__ndk1::__bind<cocos2d::CCNode* (MyEditorUI::*)(EditorUI*, CCMenuItemToggler*), MyEditorUI*, std::__ndk1::placeholders::__ph<1> const&, std::__ndk1::placeholders::__ph<2> const&>, std::__ndk1::allocator<std::__ndk1::__bind<cocos2d::CCNode* (MyEditorUI::*)(EditorUI*, CCMenuItemToggler*), MyEditorUI*, std::__ndk1::placeholders::__ph<1> const&, std::__ndk1::placeholders::__ph<2> const&> >, cocos2d::CCNode* (EditorUI*, CCMenuItemToggler*)>::__clone(std::__ndk1::__function::__base<cocos2d::CCNode* (EditorUI*, CCMenuItemToggler*)>*) const
FUNC 2f494 4 0 std::__ndk1::__function::__func<std::__ndk1::__bind<cocos2d::CCNode* (MyEditorUI::*)(EditorUI*, CCMenuItemToggler*), MyEditorUI*, std::__ndk1::placeholders::__ph<1> const&, std::__ndk1::placeholders::__ph<2> const&>, std::__ndk1::allocator<std::__ndk1::__bind<cocos2d::CCNode* (MyEditorUI::*)(EditorUI*, CCMenuItemToggler*), MyEditorUI*, std::__ndk1::placeholders::__ph<1> const&, std::__ndk1::placeholders::__ph<2> const&> >, cocos2d::CCNode* (EditorUI*, CCMenuItemToggler*)>::destroy()
FUNC 2f498 4 0 std::__ndk1::__function::__func<std::__ndk1::__bind<cocos2d::CCNode* (MyEditorUI::*)(EditorUI*, CCMenuItemToggler*), MyEditorUI*, std::__ndk1::placeholders::__ph<1> const&, std::__ndk1::placeholders::__ph<2> const&>, std::__ndk1::allocator<std::__ndk1::__bind<cocos2d::CCNode* (MyEditorUI::*)(EditorUI*, CCMenuItemToggler*), MyEditorUI*, std::__ndk1::placeholders::__ph<1> const&, std::__ndk1::placeholders::__ph<2> const&> >, cocos2d::CCNode* (EditorUI*, CCMenuItemToggler*)>::destroy_deallocate()
FUNC 2f49c 24 0 std::__ndk1::__function::__func<std::__ndk1::__bind<cocos2d::CCNode* (MyEditorUI::*)(EditorUI*, CCMenuItemToggler*), MyEditorUI*, std::__ndk1::placeholders::__ph<1> const&, std::__ndk1::placeholders::__ph<2> const&>, std::__ndk1::allocator<std::__ndk1::__bind<cocos2d::CCNode* (MyEditorUI::*)(EditorUI*, CCMenuItemToggler*), MyEditorUI*, std::__ndk1::placeholders::__ph<1> const&, std::__ndk1::placeholders::__ph<2> const&> >, cocos2d::CCNode* (EditorUI*, CCMenuItemToggler*)>::operator()(EditorUI*&&, CCMenuItemToggler*&&)
FUNC 2f4c0 1c 0 std::__ndk1::__function::__func<std::__ndk1::__bind<cocos2d::CCNode* (MyEditorUI::*)(EditorUI*, CCMenuItemToggler*), MyEditorUI*, std::__ndk1::placeholders::__ph<1> const&, std::__ndk1::placeholders::__ph<2> const&>, std::__ndk1::allocator<std::__ndk1::__bind<cocos2d::CCNode* (MyEditorUI::*)(EditorUI*, CCMenuItemToggler*), MyEditorUI*, std::__ndk1::placeholders::__ph<1> const&, std::__ndk1::placeholders::__ph<2> const&> >, cocos2d::CCNode* (EditorUI*, CCMenuItemToggler*)>::target(std::type_info const&) const
FUNC 2f4dc c 0 std::__ndk1::__function::__func<std::__ndk1::__bind<cocos2d::CCNode* (MyEditorUI::*)(EditorUI*, CCMenuItemToggler*), MyEditorUI*, std::__ndk1::placeholders::__ph<1> const&, std::__ndk1::placeholders::__ph<2> const&>, std::__ndk1::allocator<std::__ndk1::__bind<cocos2d::CCNode* (MyEditorUI::*)(EditorUI*, CCMenuItemToggler*), MyEditorUI*, std::__ndk1::placeholders::__ph<1> const&, std::__ndk1::placeholders::__ph<2> const&> >, cocos2d::CCNode* (EditorUI*, CCMenuItemToggler*)>::target_type() const
FUNC 2f4e8 30 0 geodeImplicitEntry
FUNC 2f518 4c 0 std::__ndk1::unordered_map<void*, bool, std::__ndk1::hash<void*>, std::__ndk1::equal_to<void*>, std::__ndk1::allocator<std::__ndk1::pair<void* const, bool> > >::~unordered_map[abi:ne180000]()
FUNC 2f564 134 0 wrapFunction(unsigned long, tulip::hook::WrapperMetadata const&)
FUNC 2f698 78 0 geode::impl::ResultData<void*, std::__ndk1::basic_string<char, std::__ndk1::char_traits<char>, std::__ndk1::allocator<char> > >::unwrapErr() &
FUNC 2f710 74 0 geode::impl::ResultData<void*, std::__ndk1::basic_string<char, std::__ndk1::char_traits<char>, std::__ndk1::allocator<char> > >::~ResultData()
FUNC 2f784 64 0 tulip::hook::WrapperMetadata::~WrapperMetadata()
FUNC 2f7e8 24 0 cocos2d::CCObject::~CCObject()
FUNC 2f80c 25c 0 cocos2d::CCNode::CCNode()
FUNC 2fa68 24 0 cocos2d::CCNode::~CCNode()
FUNC 2fa8c 4 0 cocos2d::CCObject::update(float)
FUNC 2fa90 2a8 0 cocos2d::CCNode::~CCNode()
FUNC 2fd38 4c4 0 cocos2d::CCObject::~CCObject()
FUNC 301fc 154 0 _ZN5geode15UnwrapExceptionC2IRPvQsr4implE18IsStringStreamableIT_EEENS_4impl5OkTagEOS4_
FUNC 30350 168 0 _ZN5geode15UnwrapExceptionC2IRNSt6__ndk112basic_stringIcNS2_11char_traitsIcEENS2_9allocatorIcEEEEQsr4implE18IsStringStreamableIT_EEENS_4impl6ErrTagEOSA_
FUNC 304b8 4 0 std::__ndk1::__variant_detail::__visitation::__base::__dispatcher<(unsigned long)0>::__dispatch[abi:ne180000]<std::__ndk1::__variant_detail::__dtor<std::__ndk1::__variant_detail::__traits<void*, std::__ndk1::basic_string<char, std::__ndk1::char_traits<char>, std::__ndk1::allocator<char> > >, (std::__ndk1::__variant_detail::_Trait)1>::__destroy[abi:ne180000]()::{lambda(auto:1&)#1}, std::__ndk1::__variant_detail::__base<(std::__ndk1::__variant_detail::__traits<void*, std::__ndk1::basic_string<char, std::__ndk1::char_traits<char>, std::__ndk1::allocator<char> > >)1, std::__ndk1::__variant_detail::__traits, std::__ndk1::allocator<char> >&>(std::__ndk1::__variant_detail::__dtor<std::__ndk1::__variant_detail::__traits<void*, std::__ndk1::basic_string<char, std::__ndk1::char_traits<char>, std::__ndk1::allocator<char> > >, (std::__ndk1::__variant_detail::_Trait)1>, std::__ndk1::__variant_detail::__base<(std::__ndk1::__variant_detail::__traits<void*, std::__ndk1::basic_string<char, std::__ndk1::char_traits<char>, std::__ndk1::allocator<char> > >)1, std::__ndk1::__variant_detail::__traits, std::__ndk1::allocator<char> >&)
FUNC 304bc 14 0 std::__ndk1::__variant_detail::__visitation::__base::__dispatcher<(unsigned long)1>::__dispatch[abi:ne180000]<std::__ndk1::__variant_detail::__dtor<std::__ndk1::__variant_detail::__traits<void*, std::__ndk1::basic_string<char, std::__ndk1::char_traits<char>, std::__ndk1::allocator<char> > >, (std::__ndk1::__variant_detail::_Trait)1>::__destroy[abi:ne180000]()::{lambda(auto:1&)#1}, std::__ndk1::__variant_detail::__base<(std::__ndk1::__variant_detail::__traits<void*, std::__ndk1::basic_string<char, std::__ndk1::char_traits<char>, std::__ndk1::allocator<char> > >)1, std::__ndk1::__variant_detail::__traits, std::__ndk1::allocator<char> >&>(std::__ndk1::__variant_detail::__dtor<std::__ndk1::__variant_detail::__traits<void*, std::__ndk1::basic_string<char, std::__ndk1::char_traits<char>, std::__ndk1::allocator<char> > >, (std::__ndk1::__variant_detail::_Trait)1>, std::__ndk1::__variant_detail::__base<(std::__ndk1::__variant_detail::__traits<void*, std::__ndk1::basic_string<char, std::__ndk1::char_traits<char>, std::__ndk1::allocator<char> > >)1, std::__ndk1::__variant_detail::__traits, std::__ndk1::allocator<char> >&)
FUNC 304d0 43c 0 std::__ndk1::__hash_table<std::__ndk1::__hash_value_type<void*, bool>, std::__ndk1::__unordered_map_hasher<void*, std::__ndk1::__hash_value_type<void*, bool>, std::__ndk1::hash<void*>, std::__ndk1::equal_to<void*>, true>, std::__ndk1::__unordered_map_equal<void*, std::__ndk1::__hash_value_type<void*, bool>, std::__ndk1::equal_to<void*>, std::__ndk1::hash<void*>, true>, std::__ndk1::allocator<std::__ndk1::__hash_value_type<void*, bool> > >::__emplace_unique_key_args<void*, std::__ndk1::piecewise_construct_t const&, std::__ndk1::tuple<void* const&>, std::__ndk1::tuple<> >(void* const&, std::__ndk1::piecewise_construct_t const&, std::__ndk1::tuple<void* const&>, std::__ndk1::tuple<>)
PUBLIC 3090c 0 __udivti3
PUBLIC 30918 0 __udivmodti4
PUBLIC m 30b64 0 __eqtf2
PUBLIC 30c04 0 __unordtf2
FUNC 30c3c 294 0 fmt::v11::detail::write_loc(fmt::v11::basic_appender<char>, fmt::v11::loc_value, fmt::v11::format_specs const&, fmt::v11::detail::locale_ref)
FUNC 30ed0 70 0 fmt::v11::format_facet<std::__ndk1::locale>::~format_facet()
FUNC 30f40 50 0 fmt::v11::report_error(char const*)
FUNC 30f90 2c 0 fmt::v11::format_error::runtime_error(char const*)
FUNC 30fbc 750 0 fmt::v11::format_facet<std::__ndk1::locale>::do_put(fmt::v11::basic_appender<char>, fmt::v11::loc_value, fmt::v11::format_specs const&) const
FUNC 3170c 64 0 fmt::v11::detail::loc_writer<char>::~loc_writer()
FUNC 31770 12c 0 fmt::v11::vformat(fmt::v11::basic_string_view<char>, fmt::v11::basic_format_args<fmt::v11::context>)
FUNC 3189c 3c8 0 fmt::v11::detail::vformat_to<char>(fmt::v11::detail::buffer<char>&, fmt::v11::basic_string_view<char>, fmt::v11::detail::vformat_args<char>::type, fmt::v11::detail::locale_ref)
FUNC 31c64 228 0 fmt::v11::detail::is_printable(unsigned int)
FUNC 31e8c 2b4 0 fmt::v11::detail::dragonbox::to_decimal<float>(float)
FUNC 32140 530 0 fmt::v11::detail::dragonbox::to_decimal<double>(double)
FUNC 32670 78 0 fmt::v11::basic_memory_buffer<char, (unsigned long)500, std::__ndk1::allocator<char> >::grow(fmt::v11::detail::buffer<char>&, unsigned long)
FUNC 326e8 78 0 fmt::v11::format_facet<std::__ndk1::locale>::~format_facet()
FUNC 32760 24 0 fmt::v11::format_error::~format_error()
FUNC 32784 150 0 fmt::v11::detail::copy_noinline<char, char const*, fmt::v11::basic_appender<char> >(char const*, char const*, fmt::v11::basic_appender<char>)
FUNC 328d4 6c 0 fmt::v11::detail::default_arg_formatter<char>::operator()<bool>(bool)
FUNC 32940 74 0 fmt::v11::detail::default_arg_formatter<char>::operator()<char>(char)
FUNC 329b4 f0 0 fmt::v11::detail::default_arg_formatter<char>::operator()<float>(float)
FUNC 32aa4 f0 0 fmt::v11::detail::default_arg_formatter<char>::operator()<double>(double)
FUNC 32b94 48 0 fmt::v11::detail::default_arg_formatter<char>::operator()<char const*>(char const*)
FUNC 32bdc 9c 0 fmt::v11::detail::default_arg_formatter<char>::operator()<void const*>(void const*)
FUNC 32c78 220 0 _ZN3fmt3v116detail5writeIcNS0_14basic_appenderIcEEiTnNSt6__ndk19enable_ifIXaaaasr11is_integralIT1_EE5valuentsr3std7is_sameIS7_bEE5valuentsr3std7is_sameIS7_T_EE5valueEiE4typeELi0EEET0_SB_S7_
FUNC 32e98 150 0 fmt::v11::detail::copy_noinline<char, char*, fmt::v11::basic_appender<char> >(char*, char*, fmt::v11::basic_appender<char>)
FUNC 32fe8 1c4 0 _ZN3fmt3v116detail5writeIcNS0_14basic_appenderIcEEjTnNSt6__ndk19enable_ifIXaaaasr11is_integralIT1_EE5valuentsr3std7is_sameIS7_bEE5valuentsr3std7is_sameIS7_T_EE5valueEiE4typeELi0EEET0_SB_S7_
FUNC 331ac 244 0 _ZN3fmt3v116detail5writeIcNS0_14basic_appenderIcEExTnNSt6__ndk19enable_ifIXaaaasr11is_integralIT1_EE5valuentsr3std7is_sameIS7_bEE5valuentsr3std7is_sameIS7_T_EE5valueEiE4typeELi0EEET0_SB_S7_
FUNC 333f0 1ec 0 _ZN3fmt3v116detail5writeIcNS0_14basic_appenderIcEEyTnNSt6__ndk19enable_ifIXaaaasr11is_integralIT1_EE5valuentsr3std7is_sameIS7_bEE5valuentsr3std7is_sameIS7_T_EE5valueEiE4typeELi0EEET0_SB_S7_
FUNC 335dc 304 0 _ZN3fmt3v116detail5writeIcNS0_14basic_appenderIcEEnTnNSt6__ndk19enable_ifIXaaaasr11is_integralIT1_EE5valuentsr3std7is_sameIS7_bEE5valuentsr3std7is_sameIS7_T_EE5valueEiE4typeELi0EEET0_SB_S7_
FUNC 338e0 2a4 0 _ZN3fmt3v116detail5writeIcNS0_14basic_appenderIcEEoTnNSt6__ndk19enable_ifIXaaaasr11is_integralIT1_EE5valuentsr3std7is_sameIS7_bEE5valuentsr3std7is_sameIS7_T_EE5valueEiE4typeELi0EEET0_SB_S7_
FUNC 33b84 290 0 _ZN3fmt3v116detail5writeIcNS0_14basic_appenderIcEEbTnNSt6__ndk19enable_ifIXsr3std7is_sameIT1_bEE5valueEiE4typeELi0EEET0_SA_S7_RKNS0_12format_specsENS1_10locale_refE
FUNC 33e14 dc0 0 fmt::v11::detail::write_int_noinline<char, fmt::v11::basic_appender<char>, unsigned int>(fmt::v11::basic_appender<char>, fmt::v11::detail::write_int_arg<unsigned int>, fmt::v11::format_specs const&, fmt::v11::detail::locale_ref)
FUNC 34bd4 1d0 0 fmt::v11::detail::fill<char, fmt::v11::basic_appender<char> >(fmt::v11::basic_appender<char>, unsigned long, fmt::v11::detail::fill_t const&)
FUNC 34da4 22c 0 fmt::v11::detail::write_padded<char, (fmt::v11::align::type)1, fmt::v11::basic_appender<char>, fmt::v11::detail::write_char<char, fmt::v11::basic_appender<char> >(fmt::v11::basic_appender<char>, char, fmt::v11::format_specs const&)::{lambda(fmt::v11::basic_appender<char>&)#1}>(fmt::v11::basic_appender<char>, fmt::v11::format_specs const&, unsigned long, unsigned long, fmt::v11::detail::write_char<char, fmt::v11::basic_appender<char> >(fmt::v11::basic_appender<char>, char, fmt::v11::format_specs const&)::{lambda(fmt::v11::basic_appender<char>&)#1})
FUNC 34fd0 30c 0 fmt::v11::detail::write_escaped_cp<fmt::v11::basic_appender<char>, char>(fmt::v11::basic_appender<char>, fmt::v11::detail::find_escape_result<char> const&)
FUNC 352dc 178 0 fmt::v11::detail::write_codepoint<(unsigned long)2, char, fmt::v11::basic_appender<char> >(fmt::v11::basic_appender<char>, char, unsigned int)
FUNC 35454 178 0 fmt::v11::detail::write_codepoint<(unsigned long)8, char, fmt::v11::basic_appender<char> >(fmt::v11::basic_appender<char>, char, unsigned int)
FUNC 355cc 240 0 fmt::v11::detail::write_padded<char, (fmt::v11::align::type)1, fmt::v11::basic_appender<char>, fmt::v11::detail::write_nonfinite<char, fmt::v11::basic_appender<char> >(fmt::v11::basic_appender<char>, bool, fmt::v11::format_specs, fmt::v11::sign::type)::{lambda(fmt::v11::basic_appender<char>&)#1}>(fmt::v11::basic_appender<char>, fmt::v11::format_specs const&, unsigned long, unsigned long, fmt::v11::detail::write_nonfinite<char, fmt::v11::basic_appender<char> >(fmt::v11::basic_appender<char>, bool, fmt::v11::format_specs, fmt::v11::sign::type)::{lambda(fmt::v11::basic_appender<char>&)#1})
FUNC 3580c c2c 0 fmt::v11::detail::do_write_float<char, fmt::v11::basic_appender<char>, fmt::v11::detail::dragonbox::decimal_fp<float>, fmt::v11::detail::digit_grouping<char> >(fmt::v11::basic_appender<char>, fmt::v11::detail::dragonbox::decimal_fp<float> const&, fmt::v11::format_specs const&, fmt::v11::detail::float_specs, fmt::v11::detail::locale_ref)
FUNC 36438 154 0 fmt::v11::detail::do_write_float<char, fmt::v11::basic_appender<char>, fmt::v11::detail::dragonbox::decimal_fp<float>, fmt::v11::detail::digit_grouping<char> >(fmt::v11::basic_appender<char>, fmt::v11::detail::dragonbox::decimal_fp<float> const&, fmt::v11::format_specs const&, fmt::v11::detail::float_specs, fmt::v11::detail::locale_ref)::{lambda(fmt::v11::basic_appender<char>(fmt::v11::basic_appender<char>))#1}::operator() const
FUNC 3658c 238 0 fmt::v11::detail::digit_grouping<char>::digit_grouping(fmt::v11::detail::locale_ref, bool)
FUNC 367c4 44 0 fmt::v11::detail::digit_grouping<char>::~digit_grouping()
FUNC 36808 1a4 0 fmt::v11::detail::write_exponent<char, fmt::v11::basic_appender<char> >(int, fmt::v11::basic_appender<char>)
FUNC 369ac 17c 0 _ZN3fmt3v116detail17write_significandIcjTnNSt6__ndk19enable_ifIXsr3std11is_integralIT0_EE5valueEiE4typeELi0EEEPT_S9_S5_iiS8_
FUNC 36b28 3a4 0 fmt::v11::detail::digit_grouping<char>::apply<fmt::v11::basic_appender<char>, char>(fmt::v11::basic_appender<char>, fmt::v11::basic_string_view<char>) const
FUNC 36ecc a0 0 fmt::v11::basic_memory_buffer<int, (unsigned long)500, std::__ndk1::allocator<int> >::grow(fmt::v11::detail::buffer<int>&, unsigned long)
FUNC 36f6c c6c 0 fmt::v11::detail::do_write_float<char, fmt::v11::basic_appender<char>, fmt::v11::detail::dragonbox::decimal_fp<double>, fmt::v11::detail::digit_grouping<char> >(fmt::v11::basic_appender<char>, fmt::v11::detail::dragonbox::decimal_fp<double> const&, fmt::v11::format_specs const&, fmt::v11::detail::float_specs, fmt::v11::detail::locale_ref)
FUNC 37bd8 158 0 fmt::v11::detail::do_write_float<char, fmt::v11::basic_appender<char>, fmt::v11::detail::dragonbox::decimal_fp<double>, fmt::v11::detail::digit_grouping<char> >(fmt::v11::basic_appender<char>, fmt::v11::detail::dragonbox::decimal_fp<double> const&, fmt::v11::format_specs const&, fmt::v11::detail::float_specs, fmt::v11::detail::locale_ref)::{lambda(fmt::v11::basic_appender<char>(fmt::v11::basic_appender<char>))#1}::operator() const
FUNC 37d30 190 0 _ZN3fmt3v116detail17write_significandIcmTnNSt6__ndk19enable_ifIXsr3std11is_integralIT0_EE5valueEiE4typeELi0EEEPT_S9_S5_iiS8_
FUNC 37ec0 ad4 0 fmt::v11::detail::write_float<char, fmt::v11::basic_appender<char>, long double>(fmt::v11::basic_appender<char>, long double, fmt::v11::format_specs, fmt::v11::detail::locale_ref)
FUNC 38994 1dc 0 fmt::v11::detail::write_padded<char, (fmt::v11::align::type)2, fmt::v11::basic_appender<char>, fmt::v11::detail::write_bytes<char, (fmt::v11::align::type)2, fmt::v11::basic_appender<char> >(fmt::v11::basic_appender<char>, fmt::v11::basic_string_view<char>, fmt::v11::format_specs const&)::{lambda(fmt::v11::basic_appender<char>&)#1}>(fmt::v11::basic_appender<char>, fmt::v11::format_specs const&, unsigned long, unsigned long, fmt::v11::detail::write_bytes<char, (fmt::v11::align::type)2, fmt::v11::basic_appender<char> >(fmt::v11::basic_appender<char>, fmt::v11::basic_string_view<char>, fmt::v11::format_specs const&)::{lambda(fmt::v11::basic_appender<char>&)#1})
FUNC 38b70 1350 0 fmt::v11::detail::format_dragon(fmt::v11::detail::basic_fp<unsigned __int128>, unsigned int, int, fmt::v11::detail::buffer<char>&, int&)
FUNC 39ec0 124 0 fmt::v11::detail::bigint::operator<<=(int)
FUNC 39fe4 744 0 fmt::v11::detail::bigint::assign_pow10(int)
FUNC 3a728 2f4 0 fmt::v11::detail::bigint::divmod_assign(fmt::v11::detail::bigint const&)
FUNC 3aa1c a0 0 fmt::v11::basic_memory_buffer<unsigned int, (unsigned long)32, std::__ndk1::allocator<unsigned int> >::grow(fmt::v11::detail::buffer<unsigned int>&, unsigned long)
FUNC 3aabc e84 0 fmt::v11::detail::do_write_float<char, fmt::v11::basic_appender<char>, fmt::v11::detail::big_decimal_fp, fmt::v11::detail::digit_grouping<char> >(fmt::v11::basic_appender<char>, fmt::v11::detail::big_decimal_fp const&, fmt::v11::format_specs const&, fmt::v11::detail::float_specs, fmt::v11::detail::locale_ref)
FUNC 3b940 160 0 fmt::v11::detail::do_write_float<char, fmt::v11::basic_appender<char>, fmt::v11::detail::big_decimal_fp, fmt::v11::detail::digit_grouping<char> >(fmt::v11::basic_appender<char>, fmt::v11::detail::big_decimal_fp const&, fmt::v11::format_specs const&, fmt::v11::detail::float_specs, fmt::v11::detail::locale_ref)::{lambda(fmt::v11::basic_appender<char>(fmt::v11::basic_appender<char>))#1}::operator() const
FUNC 3baa0 214 0 fmt::v11::detail::write_padded<char, (fmt::v11::align::type)2, fmt::v11::basic_appender<char>, fmt::v11::detail::write_ptr<char, fmt::v11::basic_appender<char>, unsigned long>(fmt::v11::basic_appender<char>, unsigned long, fmt::v11::format_specs const*)::{lambda(fmt::v11::basic_appender<char>&)#1}>(fmt::v11::basic_appender<char>, fmt::v11::format_specs const&, unsigned long, unsigned long, fmt::v11::detail::write_ptr<char, fmt::v11::basic_appender<char>, unsigned long>(fmt::v11::basic_appender<char>, unsigned long, fmt::v11::format_specs const*)::{lambda(fmt::v11::basic_appender<char>&)#1})
FUNC 3bcb4 1c3c 0 fmt::v11::detail::parse_replacement_field<char, fmt::v11::detail::vformat_to<char>(fmt::v11::detail::buffer<char>&, fmt::v11::basic_string_view<char>, fmt::v11::detail::vformat_args<char>::type, fmt::v11::detail::locale_ref)::format_handler&>(char const*, char const*, fmt::v11::detail::vformat_to<char>(fmt::v11::detail::buffer<char>&, fmt::v11::basic_string_view<char>, fmt::v11::detail::vformat_args<char>::type, fmt::v11::detail::locale_ref)::format_handler&)
FUNC 3d8f0 288 0 fmt::v11::detail::parse_dynamic_spec<char>(char const*, char const*, int&, fmt::v11::detail::arg_ref<char>&, fmt::v11::basic_format_parse_context<char>&)
FUNC 3db78 158 0 fmt::v11::basic_format_args<fmt::v11::context>::get<char>(fmt::v11::basic_string_view<char>) const
FUNC 3dcd0 e24 0 fmt::v11::detail::write_int_noinline<char, fmt::v11::basic_appender<char>, unsigned long>(fmt::v11::basic_appender<char>, fmt::v11::detail::write_int_arg<unsigned long>, fmt::v11::format_specs const&, fmt::v11::detail::locale_ref)
FUNC 3eaf4 fc8 0 fmt::v11::detail::write_int_noinline<char, fmt::v11::basic_appender<char>, unsigned __int128>(fmt::v11::basic_appender<char>, fmt::v11::detail::write_int_arg<unsigned __int128>, fmt::v11::format_specs const&, fmt::v11::detail::locale_ref)
FUNC 3fabc 510 0 _ZN3fmt3v116detail15format_hexfloatIdTnNSt6__ndk19enable_ifIXntsr16is_double_doubleIT_EE5valueEiE4typeELi0EEEvS5_NS0_12format_specsERNS1_6bufferIcEE
FUNC 3ffcc 98c 0 fmt::v11::detail::format_float<double>(double, int, fmt::v11::detail::float_specs, fmt::v11::detail::buffer<char>&)
FUNC 40958 cb8 0 fmt::v11::detail::write<char, fmt::v11::basic_appender<char> >(fmt::v11::basic_appender<char>, fmt::v11::basic_string_view<char>, fmt::v11::format_specs const&)
FUNC 41610 17c 0 fmt::v11::detail::for_each_codepoint<fmt::v11::detail::find_escape(char const*, char const*)::{lambda(unsigned int, fmt::v11::basic_string_view<char>)#1}>(fmt::v11::basic_string_view<char>, fmt::v11::detail::find_escape(char const*, char const*)::{lambda(unsigned int, fmt::v11::basic_string_view<char>)#1})::{lambda(char const*, char const*)#1}::operator()(char const*, char const*) const
FUNC 4178c 1b8 0 fmt::v11::detail::for_each_codepoint<fmt::v11::detail::compute_width(fmt::v11::basic_string_view<char>)::count_code_points>(fmt::v11::basic_string_view<char>, fmt::v11::detail::compute_width(fmt::v11::basic_string_view<char>)::count_code_points)::{lambda(char const*, char const*)#1}::operator()(char const*, char const*) const
FUNC 41944 570 0 fmt::v11::detail::write_int<fmt::v11::basic_appender<char>, unsigned long, char>(fmt::v11::basic_appender<char>, unsigned long, unsigned int, fmt::v11::format_specs const&, fmt::v11::detail::digit_grouping<char> const&)
FUNC 41eb4 664 0 fmt::v11::detail::write_int<fmt::v11::basic_appender<char>, unsigned __int128, char>(fmt::v11::basic_appender<char>, unsigned __int128, unsigned int, fmt::v11::format_specs const&, fmt::v11::detail::digit_grouping<char> const&)
PUBLIC 42520 0 <.plt ELF section in dogotrigger.triggersearch.android64.so>
STACK CFI INIT 10e90 10 .cfa: sp 0 +
STACK CFI INIT 10ea0 8 .cfa: sp 0 +
STACK CFI INIT 10ea8 8 .cfa: sp 0 +
STACK CFI INIT 10eb0 14 .cfa: sp 0 +
STACK CFI INIT 10ec4 1c .cfa: sp 0 +
STACK CFI INIT 10ee0 10 .cfa: sp 0 +
STACK CFI INIT 10ef0 134 .cfa: sp 0 +
STACK CFI INIT 11024 84 .cfa: sp 0 +
STACK CFI INIT 110a8 f4 .cfa: sp 0 +
STACK CFI INIT 1119c a8 .cfa: sp 0 +
STACK CFI INIT 11244 7c .cfa: sp 0 +
STACK CFI INIT 112c0 14 .cfa: sp 0 +
STACK CFI INIT 112d4 40 .cfa: sp 0 +
STACK CFI INIT 11314 28 .cfa: sp 0 +
STACK CFI INIT 1133c 190 .cfa: sp 0 +
STACK CFI INIT 114cc 2c8 .cfa: sp 0 +
STACK CFI INIT 11794 8 .cfa: sp 0 +
STACK CFI INIT 1179c 8 .cfa: sp 0 +
STACK CFI INIT 117a4 44 .cfa: sp 0 +
STACK CFI INIT 117e8 e8 .cfa: sp 0 +
STACK CFI INIT 118d0 e8 .cfa: sp 0 +
STACK CFI INIT 119b8 14 .cfa: sp 0 +
STACK CFI INIT 119cc 10 .cfa: sp 0 +
STACK CFI INIT 119dc 10 .cfa: sp 0 +
STACK CFI INIT 119ec f0 .cfa: sp 0 +
STACK CFI INIT 11adc 44 .cfa: sp 0 +
STACK CFI INIT 11b20 c .cfa: sp 0 +
STACK CFI INIT 11b2c c .cfa: sp 0 +
STACK CFI INIT 11b38 2c .cfa: sp 0 +
STACK CFI INIT 11b64 280 .cfa: sp 0 +
STACK CFI INIT 11de4 c .cfa: sp 0 +
STACK CFI INIT 11df0 120 .cfa: sp 0 +
STACK CFI INIT 11f10 488 .cfa: sp 0 +
STACK CFI INIT 12398 c48 .cfa: sp 0 +
STACK CFI INIT 12fe0 134 .cfa: sp 0 +
STACK CFI INIT 13114 210 .cfa: sp 0 +
STACK CFI INIT 13324 38c .cfa: sp 0 +
STACK CFI INIT 136b0 1c8 .cfa: sp 0 +
STACK CFI INIT 13878 9bc .cfa: sp 0 +
STACK CFI INIT 14234 2d4 .cfa: sp 0 +
STACK CFI INIT 14508 134 .cfa: sp 0 +
STACK CFI INIT 1463c 120 .cfa: sp 0 +
STACK CFI INIT 1475c 1c8 .cfa: sp 0 +
STACK CFI INIT 14924 168 .cfa: sp 0 +
STACK CFI INIT 14a8c fc .cfa: sp 0 +
STACK CFI INIT 14b88 30 .cfa: sp 0 +
STACK CFI INIT 14cf0 30 .cfa: sp 0 +
STACK CFI INIT 14d20 98 .cfa: sp 0 +
STACK CFI INIT 14db8 59c .cfa: sp 0 +
STACK CFI INIT 15354 8c .cfa: sp 0 +
STACK CFI INIT 153e0 30 .cfa: sp 0 +
STACK CFI INIT 2917c 9c .cfa: sp 0 +
STACK CFI 29180 .cfa: sp 48 +
STACK CFI 2918c .cfa: x29 48 + x19: .cfa -8 + ^ x20: .cfa -16 + ^ x21: .cfa -32 + ^ .ra: .cfa -40 + ^ x29: .cfa -48 + ^
STACK CFI 291f4 .cfa: sp 48 +
STACK CFI 29200 .cfa: sp 0 +
STACK CFI 29204 .cfa: x29 48 +
STACK CFI 29208 .cfa: sp 48 +
STACK CFI 29214 .cfa: sp 0 +
STACK CFI INIT 29218 9c .cfa: sp 0 +
STACK CFI 2921c .cfa: sp 48 +
STACK CFI 29228 .cfa: x29 48 + x19: .cfa -8 + ^ x20: .cfa -16 + ^ x21: .cfa -32 + ^ .ra: .cfa -40 + ^ x29: .cfa -48 + ^
STACK CFI 29290 .cfa: sp 48 +
STACK CFI 2929c .cfa: sp 0 +
STACK CFI 292a0 .cfa: x29 48 +
STACK CFI 292a4 .cfa: sp 48 +
STACK CFI 292b0 .cfa: sp 0 +
STACK CFI INIT 292b4 7c .cfa: sp 0 +
STACK CFI 292b8 .cfa: sp 48 +
STACK CFI 292c4 .cfa: x29 48 + x19: .cfa -8 + ^ x20: .cfa -16 + ^ x21: .cfa -32 + ^ .ra: .cfa -40 + ^ x29: .cfa -48 + ^
STACK CFI 29310 .cfa: sp 48 +
STACK CFI 2931c .cfa: sp 0 +
STACK CFI 29320 .cfa: sp 48 +
STACK CFI 2932c .cfa: sp 0 +
STACK CFI INIT 29330 8 .cfa: sp 0 +
STACK CFI INIT 29e68 18 .cfa: sp 0 +
STACK CFI INIT 29e80 14 .cfa: sp 0 +
STACK CFI 29e84 .cfa: sp 16 +
STACK CFI 29e88 .cfa: x29 16 + .ra: .cfa -8 + ^ x29: .cfa -16 + ^
STACK CFI INIT 29ee4 30 .cfa: sp 0 +
STACK CFI 29ee8 .cfa: sp 32 +
STACK CFI 29ef0 .cfa: x29 32 + x19: .cfa -16 + ^ .ra: .cfa -24 + ^ x29: .cfa -32 + ^
STACK CFI 29f08 .cfa: sp 32 +
STACK CFI 29f10 .cfa: sp 0 +
STACK CFI INIT 29f14 34 .cfa: sp 0 +
STACK CFI 29f18 .cfa: sp 32 +
STACK CFI 29f20 .cfa: x29 32 + x19: .cfa -16 + ^ .ra: .cfa -24 + ^ x29: .cfa -32 + ^
STACK CFI INIT 29f48 10 .cfa: sp 0 +
STACK CFI 29f4c .cfa: sp 16 +
STACK CFI 29f50 .cfa: x29 16 + .ra: .cfa -8 + ^ x29: .cfa -16 + ^
STACK CFI INIT 29f58 8c .cfa: sp 0 +
STACK CFI 29f5c .cfa: sp 48 +
STACK CFI 29f68 .cfa: x29 48 + x19: .cfa -8 + ^ x20: .cfa -16 + ^ x21: .cfa -24 + ^ x22: .cfa -32 + ^ .ra: .cfa -40 + ^ x29: .cfa -48 + ^
STACK CFI 29f70 .cfa: sp 48 +
STACK CFI 29f7c .cfa: sp 0 +
STACK CFI 29f80 .cfa: x29 48 +
STACK CFI 29fd4 .cfa: sp 48 +
STACK CFI 29fe0 .cfa: sp 0 +
STACK CFI INIT 29fe4 14 .cfa: sp 0 +
STACK CFI 29fe8 .cfa: sp 16 +
STACK CFI 29fec .cfa: x29 16 + .ra: .cfa -8 + ^ x29: .cfa -16 + ^
STACK CFI INIT 29ff8 60 .cfa: sp 0 +
STACK CFI 2a008 .cfa: sp 32 +
STACK CFI 2a010 .cfa: x29 32 + x19: .cfa -8 + ^ x20: .cfa -16 + ^ .ra: .cfa -24 + ^ x29: .cfa -32 + ^
STACK CFI 2a04c .cfa: sp 32 +
STACK CFI 2a054 .cfa: sp 0 +
STACK CFI INIT 2a058 70 .cfa: sp 0 +
STACK CFI 2a05c .cfa: sp 48 +
STACK CFI 2a068 .cfa: x29 48 + x19: .cfa -8 + ^ x20: .cfa -16 + ^ x21: .cfa -24 + ^ x22: .cfa -32 + ^ .ra: .cfa -40 + ^ x29: .cfa -48 + ^
STACK CFI 2a0b0 .cfa: sp 48 +
STACK CFI 2a0bc .cfa: sp 0 +
STACK CFI 2a0c0 .cfa: x29 48 +
STACK CFI INIT 2a0c8 26c .cfa: sp 0 +
STACK CFI 2a0cc .cfa: sp 32 +
STACK CFI 2a0d4 .cfa: x29 32 + x19: .cfa -8 + ^ x20: .cfa -16 + ^ .ra: .cfa -24 + ^ x29: .cfa -32 + ^
STACK CFI 2a328 .cfa: sp 32 +
STACK CFI 2a330 .cfa: sp 0 +
STACK CFI INIT 2a334 74 .cfa: sp 0 +
STACK CFI 2a338 .cfa: sp 48 +
STACK CFI 2a344 .cfa: x29 48 + x19: .cfa -8 + ^ x20: .cfa -16 + ^ x21: .cfa -24 + ^ x22: .cfa -32 + ^ .ra: .cfa -40 + ^ x29: .cfa -48 + ^
STACK CFI 2a398 .cfa: sp 48 +
STACK CFI 2a3a4 .cfa: sp 0 +
STACK CFI INIT 2a3a8 14 .cfa: sp 0 +
STACK CFI 2a3ac .cfa: sp 16 +
STACK CFI 2a3b0 .cfa: x29 16 + .ra: .cfa -8 + ^ x29: .cfa -16 + ^
STACK CFI INIT 2a5fc 44 .cfa: sp 0 +
STACK CFI 2a600 .cfa: sp 32 +
STACK CFI 2a608 .cfa: x29 32 + x19: .cfa -16 + ^ .ra: .cfa -24 + ^ x29: .cfa -32 + ^
STACK CFI 2a628 .cfa: sp 32 +
STACK CFI 2a630 .cfa: sp 0 +
STACK CFI 2a634 .cfa: sp 32 +
STACK CFI 2a63c .cfa: sp 0 +
STACK CFI INIT 2a640 19c .cfa: sp 0 +
STACK CFI INIT 2a7dc 9c .cfa: sp 0 +
STACK CFI 2a7e0 .cfa: sp 48 +
STACK CFI 2a7ec .cfa: x29 48 + x19: .cfa -8 + ^ x20: .cfa -16 + ^ x21: .cfa -32 + ^ .ra: .cfa -40 + ^ x29: .cfa -48 + ^
STACK CFI 2a854 .cfa: sp 48 +
STACK CFI 2a860 .cfa: sp 0 +
STACK CFI 2a864 .cfa: x29 48 +
STACK CFI 2a868 .cfa: sp 48 +
STACK CFI 2a874 .cfa: sp 0 +
STACK CFI INIT 2a878 44 .cfa: sp 0 +
STACK CFI 2a880 .cfa: sp 32 +
STACK CFI 2a888 .cfa: x29 32 + x19: .cfa -16 + ^ .ra: .cfa -24 + ^ x29: .cfa -32 + ^
STACK CFI 2a8ac .cfa: sp 32 +
STACK CFI 2a8b4 .cfa: sp 0 +
STACK CFI INIT 2ad0c 50 .cfa: sp 0 +
STACK CFI 2ad10 .cfa: sp 32 +
STACK CFI 2ad18 .cfa: x29 32 + x19: .cfa -16 + ^ .ra: .cfa -24 + ^ x29: .cfa -32 + ^
STACK CFI 2ad30 .cfa: sp 32 +
STACK CFI 2ad38 .cfa: sp 0 +
STACK CFI 2ad3c .cfa: x29 32 +
STACK CFI 2ad50 .cfa: sp 32 +
STACK CFI 2ad58 .cfa: sp 0 +
STACK CFI INIT 2add0 4 .cfa: sp 0 +
STACK CFI INIT 2af28 34 .cfa: sp 0 +
STACK CFI 2af2c .cfa: sp 16 +
STACK CFI 2af30 .cfa: x29 16 + .ra: .cfa -8 + ^ x29: .cfa -16 + ^
STACK CFI INIT 2b080 80 .cfa: sp 0 +
STACK CFI 2b084 .cfa: sp 48 +
STACK CFI 2b090 .cfa: x29 48 + x19: .cfa -8 + ^ x20: .cfa -16 + ^ x21: .cfa -32 + ^ .ra: .cfa -40 + ^ x29: .cfa -48 + ^
STACK CFI 2b0f0 .cfa: sp 48 +
STACK CFI 2b0fc .cfa: sp 0 +
STACK CFI INIT 2b100 24 .cfa: sp 0 +
STACK CFI 2b104 .cfa: sp 32 +
STACK CFI 2b10c .cfa: x29 32 + x19: .cfa -16 + ^ .ra: .cfa -24 + ^ x29: .cfa -32 + ^
STACK CFI 2b118 .cfa: sp 32 +
STACK CFI 2b120 .cfa: sp 0 +
STACK CFI INIT 2b5cc 148 .cfa: sp 0 +
STACK CFI 2b5d0 .cfa: sp 48 +
STACK CFI 2b5dc .cfa: x29 48 + x19: .cfa -8 + ^ x20: .cfa -16 + ^ x21: .cfa -32 + ^ .ra: .cfa -40 + ^ x29: .cfa -48 + ^
STACK CFI 2b704 .cfa: sp 48 +
STACK CFI 2b710 .cfa: sp 0 +
STACK CFI INIT 2b714 68 .cfa: sp 0 +
STACK CFI 2b718 .cfa: sp 32 +
STACK CFI 2b720 .cfa: x29 32 + x19: .cfa -8 + ^ x20: .cfa -16 + ^ .ra: .cfa -24 + ^ x29: .cfa -32 + ^
STACK CFI 2b738 .cfa: sp 32 +
STACK CFI 2b740 .cfa: sp 0 +
STACK CFI 2b744 .cfa: x29 32 +
STACK CFI 2b770 .cfa: sp 32 +
STACK CFI 2b778 .cfa: sp 0 +
STACK CFI INIT 2b77c 4 .cfa: sp 0 +
STACK CFI INIT 2b780 14 .cfa: sp 0 +
STACK CFI INIT 2b794 84 .cfa: sp 0 +
STACK CFI 2b79c .cfa: sp 32 +
STACK CFI 2b7a4 .cfa: x29 32 + x19: .cfa -8 + ^ x20: .cfa -16 + ^ .ra: .cfa -24 + ^ x29: .cfa -32 + ^
STACK CFI 2b7e4 .cfa: sp 32 +
STACK CFI 2b7ec .cfa: sp 0 +
STACK CFI 2b7f4 .cfa: x29 32 +
STACK CFI INIT 2bef0 50 .cfa: sp 0 +
STACK CFI 2bef4 .cfa: sp 32 +
STACK CFI 2befc .cfa: x29 32 + x19: .cfa -16 + ^ .ra: .cfa -24 + ^ x29: .cfa -32 + ^
STACK CFI 2bf14 .cfa: sp 32 +
STACK CFI 2bf1c .cfa: sp 0 +
STACK CFI 2bf20 .cfa: x29 32 +
STACK CFI 2bf34 .cfa: sp 32 +
STACK CFI 2bf3c .cfa: sp 0 +
STACK CFI INIT 2bf40 64 .cfa: sp 0 +
STACK CFI 2bf44 .cfa: sp 32 +
STACK CFI 2bf4c .cfa: x29 32 + x19: .cfa -16 + ^ .ra: .cfa -24 + ^ x29: .cfa -32 + ^
STACK CFI 2bf78 .cfa: sp 32 +
STACK CFI 2bf80 .cfa: sp 0 +
STACK CFI 2bf84 .cfa: x29 32 +
STACK CFI 2bf98 .cfa: sp 32 +
STACK CFI 2bfa0 .cfa: sp 0 +
STACK CFI INIT 2bfa4 180 .cfa: sp 0 +
STACK CFI 2bfa8 .cfa: sp 80 +
STACK CFI 2bfc0 .cfa: x29 56 + x19: .cfa -8 + ^ x20: .cfa -16 + ^ x21: .cfa -24 + ^ x22: .cfa -32 + ^ x23: .cfa -40 + ^ .ra: .cfa -48 + ^ x29: .cfa -56 + ^ v8: .cfa -64 + ^
STACK CFI 2c104 .cfa: sp 80 +
STACK CFI 2c11c .cfa: sp 0 +
STACK CFI 2c120 .cfa: x29 56 +
STACK CFI INIT 2c750 14 .cfa: sp 0 +
STACK CFI INIT 2c764 14 .cfa: sp 0 +
STACK CFI 2c768 .cfa: sp 16 +
STACK CFI 2c76c .cfa: x29 16 + .ra: .cfa -8 + ^ x29: .cfa -16 + ^
STACK CFI INIT 2c778 14 .cfa: sp 0 +
STACK CFI 2c77c .cfa: sp 16 +
STACK CFI 2c780 .cfa: x29 16 + .ra: .cfa -8 + ^ x29: .cfa -16 + ^
STACK CFI INIT 2c78c c .cfa: sp 0 +
STACK CFI 2c790 .cfa: sp 16 +
STACK CFI 2c794 .cfa: x29 16 + .ra: .cfa -8 + ^ x29: .cfa -16 + ^
STACK CFI INIT 2c7e8 30 .cfa: sp 0 +
STACK CFI 2c7ec .cfa: sp 32 +
STACK CFI 2c7f4 .cfa: x29 32 + x19: .cfa -16 + ^ .ra: .cfa -24 + ^ x29: .cfa -32 + ^
STACK CFI 2c80c .cfa: sp 32 +
STACK CFI 2c814 .cfa: sp 0 +
STACK CFI INIT 2c818 c .cfa: sp 0 +
STACK CFI 2c81c .cfa: sp 16 +
STACK CFI 2c820 .cfa: x29 16 + .ra: .cfa -8 + ^ x29: .cfa -16 + ^
STACK CFI INIT 2c824 4 .cfa: sp 0 +
STACK CFI INIT 2c828 4 .cfa: sp 0 +
STACK CFI INIT 2c82c 38 .cfa: sp 0 +
STACK CFI 2c830 .cfa: sp 32 +
STACK CFI 2c838 .cfa: x29 32 + x19: .cfa -16 + ^ .ra: .cfa -24 + ^ x29: .cfa -32 + ^
STACK CFI 2c858 .cfa: sp 32 +
STACK CFI 2c860 .cfa: sp 0 +
STACK CFI INIT 2c864 18 .cfa: sp 0 +
STACK CFI INIT 2c87c 4 .cfa: sp 0 +
STACK CFI INIT 2c880 4 .cfa: sp 0 +
STACK CFI INIT 2c884 10 .cfa: sp 0 +
STACK CFI INIT 2c894 1c .cfa: sp 0 +
STACK CFI INIT 2c8b0 c .cfa: sp 0 +
STACK CFI INIT 2c8bc 8 .cfa: sp 0 +
STACK CFI INIT 2c8c4 24 .cfa: sp 0 +
STACK CFI 2c8c8 .cfa: sp 32 +
STACK CFI 2c8d0 .cfa: x29 32 + x19: .cfa -16 + ^ .ra: .cfa -24 + ^ x29: .cfa -32 + ^
STACK CFI 2c8dc .cfa: sp 32 +
STACK CFI 2c8e4 .cfa: sp 0 +
STACK CFI INIT 2cb24 4 .cfa: sp 0 +
STACK CFI INIT 2cb28 4 .cfa: sp 0 +
STACK CFI INIT 2cb2c 40 .cfa: sp 0 +
STACK CFI 2cb30 .cfa: sp 32 +
STACK CFI 2cb38 .cfa: x29 32 + x19: .cfa -16 + ^ .ra: .cfa -24 + ^ x29: .cfa -32 + ^
STACK CFI 2cb60 .cfa: sp 32 +
STACK CFI 2cb68 .cfa: sp 0 +
STACK CFI INIT 2cb6c 20 .cfa: sp 0 +
STACK CFI INIT 2cb8c 4 .cfa: sp 0 +
STACK CFI INIT 2cb90 4 .cfa: sp 0 +
STACK CFI INIT 2ea2c 1c .cfa: sp 0 +
STACK CFI INIT 2ea48 c .cfa: sp 0 +
STACK CFI INIT 2ea54 ac .cfa: sp 0 +
STACK CFI 2ea58 .cfa: sp 64 +
STACK CFI 2ea68 .cfa: x29 64 + x19: .cfa -8 + ^ x20: .cfa -16 + ^ x21: .cfa -24 + ^ x22: .cfa -32 + ^ x23: .cfa -48 + ^ .ra: .cfa -56 + ^ x29: .cfa -64 + ^
STACK CFI 2eae4 .cfa: sp 64 +
STACK CFI 2eaf4 .cfa: sp 0 +
STACK CFI 2eaf8 .cfa: x29 64 +
STACK CFI INIT 2eb00 100 .cfa: sp 0 +
STACK CFI 2eb04 .cfa: sp 64 +
STACK CFI 2eb14 .cfa: x29 64 + x19: .cfa -8 + ^ x20: .cfa -16 + ^ x21: .cfa -24 + ^ x22: .cfa -32 + ^ x23: .cfa -40 + ^ x24: .cfa -48 + ^ .ra: .cfa -56 + ^ x29: .cfa -64 + ^
STACK CFI 2ebe4 .cfa: sp 64 +
STACK CFI 2ebf4 .cfa: sp 0 +
STACK CFI 2ebf8 .cfa: x29 64 +
STACK CFI INIT 2ec00 d0 .cfa: sp 0 +
STACK CFI 2ec04 .cfa: sp 48 +
STACK CFI 2ec10 .cfa: x29 48 + x19: .cfa -8 + ^ x20: .cfa -16 + ^ x21: .cfa -32 + ^ .ra: .cfa -40 + ^ x29: .cfa -48 + ^
STACK CFI 2ecc0 .cfa: sp 48 +
STACK CFI 2eccc .cfa: sp 0 +
STACK CFI INIT 2ecd0 24 .cfa: sp 0 +
STACK CFI 2ecd4 .cfa: sp 32 +
STACK CFI 2ecdc .cfa: x29 32 + x19: .cfa -16 + ^ .ra: .cfa -24 + ^ x29: .cfa -32 + ^
STACK CFI 2ece8 .cfa: sp 32 +
STACK CFI 2ecf0 .cfa: sp 0 +
STACK CFI INIT 2ecf4 cc .cfa: sp 0 +
STACK CFI 2ecf8 .cfa: sp 48 +
STACK CFI 2ed04 .cfa: x29 32 + x19: .cfa -8 + ^ x20: .cfa -16 + ^ .ra: .cfa -24 + ^ x29: .cfa -32 + ^
STACK CFI 2edac .cfa: sp 48 +
STACK CFI 2edb8 .cfa: sp 0 +
STACK CFI 2edbc .cfa: x29 32 +
STACK CFI INIT 2eee4 d8 .cfa: sp 0 +
STACK CFI 2eee8 .cfa: sp 64 +
STACK CFI 2eef8 .cfa: x29 64 + x19: .cfa -8 + ^ x20: .cfa -16 + ^ x21: .cfa -24 + ^ x22: .cfa -32 + ^ x23: .cfa -48 + ^ .ra: .cfa -56 + ^ x29: .cfa -64 + ^
STACK CFI 2ef70 .cfa: sp 64 +
STACK CFI 2ef80 .cfa: sp 0 +
STACK CFI 2ef84 .cfa: x29 64 +
STACK CFI INIT 2efbc 14 .cfa: sp 0 +
STACK CFI 2efc0 .cfa: sp 16 +
STACK CFI 2efc4 .cfa: x29 16 + .ra: .cfa -8 + ^ x29: .cfa -16 + ^
STACK CFI INIT 2efd0 14 .cfa: sp 0 +
STACK CFI 2efd4 .cfa: sp 16 +
STACK CFI 2efd8 .cfa: x29 16 + .ra: .cfa -8 + ^ x29: .cfa -16 + ^
STACK CFI INIT 2efe4 14 .cfa: sp 0 +
STACK CFI 2efe8 .cfa: sp 16 +
STACK CFI 2efec .cfa: x29 16 + .ra: .cfa -8 + ^ x29: .cfa -16 + ^
STACK CFI INIT 2f42c 4 .cfa: sp 0 +
STACK CFI INIT 2f430 4 .cfa: sp 0 +
STACK CFI INIT 2f434 40 .cfa: sp 0 +
STACK CFI 2f438 .cfa: sp 32 +
STACK CFI 2f440 .cfa: x29 32 + x19: .cfa -16 + ^ .ra: .cfa -24 + ^ x29: .cfa -32 + ^
STACK CFI 2f468 .cfa: sp 32 +
STACK CFI 2f470 .cfa: sp 0 +
STACK CFI INIT 2f474 20 .cfa: sp 0 +
STACK CFI INIT 2f494 4 .cfa: sp 0 +
STACK CFI INIT 2f498 4 .cfa: sp 0 +
STACK CFI INIT 2f49c 24 .cfa: sp 0 +
STACK CFI INIT 2f4c0 1c .cfa: sp 0 +
STACK CFI INIT 2f4dc c .cfa: sp 0 +
STACK CFI INIT 2902c 4 .cfa: sp 0 +
STACK CFI INIT 2f4e8 30 .cfa: sp 0 +
STACK CFI 2f4ec .cfa: sp 32 +
STACK CFI 2f4f4 .cfa: x29 32 + x19: .cfa -16 + ^ .ra: .cfa -24 + ^ x29: .cfa -32 + ^
STACK CFI 2f50c .cfa: sp 32 +
STACK CFI 2f514 .cfa: sp 0 +
STACK CFI INIT 2f518 4c .cfa: sp 0 +
STACK CFI 2f51c .cfa: sp 32 +
STACK CFI 2f524 .cfa: x29 32 + x19: .cfa -8 + ^ x20: .cfa -16 + ^ .ra: .cfa -24 + ^ x29: .cfa -32 + ^
STACK CFI 2f54c .cfa: sp 32 +
STACK CFI 2f554 .cfa: sp 0 +
STACK CFI 2f558 .cfa: sp 32 +
STACK CFI 2f560 .cfa: sp 0 +
STACK CFI INIT 2f784 64 .cfa: sp 0 +
STACK CFI 2f788 .cfa: sp 32 +
STACK CFI 2f790 .cfa: x29 32 + x19: .cfa -16 + ^ .ra: .cfa -24 + ^ x29: .cfa -32 + ^
STACK CFI 2f7bc .cfa: sp 32 +
STACK CFI 2f7c4 .cfa: sp 0 +
STACK CFI 2f7c8 .cfa: x29 32 +
STACK CFI 2f7dc .cfa: sp 32 +
STACK CFI 2f7e4 .cfa: sp 0 +
STACK CFI INIT 2f7e8 24 .cfa: sp 0 +
STACK CFI 2f7ec .cfa: sp 32 +
STACK CFI 2f7f4 .cfa: x29 32 + x19: .cfa -16 + ^ .ra: .cfa -24 + ^ x29: .cfa -32 + ^
STACK CFI 2f800 .cfa: sp 32 +
STACK CFI 2f808 .cfa: sp 0 +
STACK CFI INIT 2fa68 24 .cfa: sp 0 +
STACK CFI 2fa6c .cfa: sp 32 +
STACK CFI 2fa74 .cfa: x29 32 + x19: .cfa -16 + ^ .ra: .cfa -24 + ^ x29: .cfa -32 + ^
STACK CFI 2fa80 .cfa: sp 32 +
STACK CFI 2fa88 .cfa: sp 0 +
STACK CFI INIT 2fa8c 4 .cfa: sp 0 +
STACK CFI INIT 304b8 4 .cfa: sp 0 +
STACK CFI INIT 304bc 14 .cfa: sp 0 +
STACK CFI INIT 3090c c .cfa: sp 0 +
STACK CFI INIT 30918 24c .cfa: sp 0 +
STACK CFI INIT 30b64 a0 .cfa: sp 0 +
STACK CFI 30b70 .cfa: sp 32 +
STACK CFI 30bc8 .cfa: sp 0 +
STACK CFI 30bcc .cfa: sp 32 +
STACK CFI 30bd4 .cfa: sp 0 +
STACK CFI 30bd8 .cfa: sp 32 +
STACK CFI 30bec .cfa: sp 0 +
STACK CFI 30bf0 .cfa: sp 32 +
STACK CFI 30c00 .cfa: sp 0 +
STACK CFI INIT 30c04 38 .cfa: sp 0 +
STACK CFI 30c10 .cfa: sp 32 +
STACK CFI 30c38 .cfa: sp 0 +
STACK CFI INIT 30ed0 70 .cfa: sp 0 +
STACK CFI 30ed4 .cfa: sp 32 +
STACK CFI 30edc .cfa: x29 32 + x19: .cfa -16 + ^ .ra: .cfa -24 + ^ x29: .cfa -32 + ^
STACK CFI 30f10 .cfa: sp 32 +
STACK CFI 30f18 .cfa: sp 0 +
STACK CFI 30f1c .cfa: x29 32 +
STACK CFI INIT 30f90 2c .cfa: sp 0 +
STACK CFI 30f94 .cfa: sp 32 +
STACK CFI 30f9c .cfa: x29 32 + x19: .cfa -16 + ^ .ra: .cfa -24 + ^ x29: .cfa -32 + ^
STACK CFI 30fb0 .cfa: sp 32 +
STACK CFI 30fb8 .cfa: sp 0 +
STACK CFI INIT 3170c 64 .cfa: sp 0 +
STACK CFI 31710 .cfa: sp 32 +
STACK CFI 31718 .cfa: x29 32 + x19: .cfa -16 + ^ .ra: .cfa -24 + ^ x29: .cfa -32 + ^
STACK CFI 31734 .cfa: sp 32 +
STACK CFI 3173c .cfa: sp 0 +
STACK CFI 31740 .cfa: x29 32 +
STACK CFI 31764 .cfa: sp 32 +
STACK CFI 3176c .cfa: sp 0 +
STACK CFI INIT 3189c 3c8 .cfa: sp 0 +
STACK CFI 318a0 .cfa: sp 208 +
STACK CFI 318b4 .cfa: x29 64 + x19: .cfa -8 + ^ x20: .cfa -16 + ^ x21: .cfa -24 + ^ x22: .cfa -32 + ^ x23: .cfa -40 + ^ x24: .cfa -48 + ^ .ra: .cfa -56 + ^ x29: .cfa -64 + ^
STACK CFI 31acc .cfa: sp 208 +
STACK CFI 31ae0 .cfa: sp 0 +
STACK CFI 31ae4 .cfa: x29 64 +
STACK CFI INIT 31c64 228 .cfa: sp 0 +
STACK CFI INIT 31e8c 2b4 .cfa: sp 0 +
STACK CFI INIT 32140 530 .cfa: sp 0 +
STACK CFI INIT 32670 78 .cfa: sp 0 +
STACK CFI 32674 .cfa: sp 48 +
STACK CFI 32680 .cfa: x29 48 + x19: .cfa -8 + ^ x20: .cfa -16 + ^ x21: .cfa -24 + ^ x22: .cfa -32 + ^ .ra: .cfa -40 + ^ x29: .cfa -48 + ^
STACK CFI 326c8 .cfa: sp 48 +
STACK CFI 326d4 .cfa: sp 0 +
STACK CFI 326d8 .cfa: sp 48 +
STACK CFI 326e4 .cfa: sp 0 +
STACK CFI INIT 326e8 78 .cfa: sp 0 +
STACK CFI 326ec .cfa: sp 32 +
STACK CFI 326f4 .cfa: x29 32 + x19: .cfa -16 + ^ .ra: .cfa -24 + ^ x29: .cfa -32 + ^
STACK CFI 32730 .cfa: sp 32 +
STACK CFI 32738 .cfa: sp 0 +
STACK CFI 3273c .cfa: x29 32 +
STACK CFI INIT 32760 24 .cfa: sp 0 +
STACK CFI 32764 .cfa: sp 32 +
STACK CFI 3276c .cfa: x29 32 + x19: .cfa -16 + ^ .ra: .cfa -24 + ^ x29: .cfa -32 + ^
STACK CFI 32778 .cfa: sp 32 +
STACK CFI 32780 .cfa: sp 0 +
STACK CFI INIT 32784 150 .cfa: sp 0 +
STACK CFI 32788 .cfa: sp 48 +
STACK CFI 32794 .cfa: x29 48 + x19: .cfa -8 + ^ x20: .cfa -16 + ^ x21: .cfa -24 + ^ x22: .cfa -32 + ^ .ra: .cfa -40 + ^ x29: .cfa -48 + ^
STACK CFI 328c4 .cfa: sp 48 +
STACK CFI 328d0 .cfa: sp 0 +
STACK CFI INIT 328d4 6c .cfa: sp 0 +
STACK CFI 328d8 .cfa: sp 64 +
STACK CFI 328e4 .cfa: x29 32 + x19: .cfa -16 + ^ .ra: .cfa -24 + ^ x29: .cfa -32 + ^
STACK CFI 3292c .cfa: sp 64 +
STACK CFI 32938 .cfa: sp 0 +
STACK CFI 3293c .cfa: x29 32 +
STACK CFI INIT 32940 74 .cfa: sp 0 +
STACK CFI 32944 .cfa: sp 32 +
STACK CFI 3294c .cfa: x29 32 + x19: .cfa -8 + ^ x20: .cfa -16 + ^ .ra: .cfa -24 + ^ x29: .cfa -32 + ^
STACK CFI 329a8 .cfa: sp 32 +
STACK CFI 329b0 .cfa: sp 0 +
STACK CFI INIT 329b4 f0 .cfa: sp 0 +
STACK CFI 329b8 .cfa: sp 112 +
STACK CFI 329c8 .cfa: x29 48 + x19: .cfa -8 + ^ x20: .cfa -16 + ^ x21: .cfa -32 + ^ .ra: .cfa -40 + ^ x29: .cfa -48 + ^
STACK CFI 32a8c .cfa: sp 112 +
STACK CFI 32a9c .cfa: sp 0 +
STACK CFI 32aa0 .cfa: x29 48 +
STACK CFI INIT 32aa4 f0 .cfa: sp 0 +
STACK CFI 32aa8 .cfa: sp 112 +
STACK CFI 32ab8 .cfa: x29 48 + x19: .cfa -8 + ^ x20: .cfa -16 + ^ x21: .cfa -32 + ^ .ra: .cfa -40 + ^ x29: .cfa -48 + ^
STACK CFI 32b7c .cfa: sp 112 +
STACK CFI 32b8c .cfa: sp 0 +
STACK CFI 32b90 .cfa: x29 48 +
STACK CFI INIT 32b94 48 .cfa: sp 0 +
STACK CFI 32b98 .cfa: sp 32 +
STACK CFI 32ba0 .cfa: x29 32 + x19: .cfa -8 + ^ x20: .cfa -16 + ^ .ra: .cfa -24 + ^ x29: .cfa -32 + ^
STACK CFI 32bc4 .cfa: sp 32 +
STACK CFI 32bcc .cfa: sp 0 +
STACK CFI 32bd0 .cfa: x29 32 +
STACK CFI INIT 32bdc 9c .cfa: sp 0 +
STACK CFI 32be0 .cfa: sp 80 +
STACK CFI 32bec .cfa: x29 32 + x19: .cfa -16 + ^ .ra: .cfa -24 + ^ x29: .cfa -32 + ^
STACK CFI 32c64 .cfa: sp 80 +
STACK CFI 32c70 .cfa: sp 0 +
STACK CFI 32c74 .cfa: x29 32 +
STACK CFI INIT 32c78 220 .cfa: sp 0 +
STACK CFI 32c7c .cfa: sp 112 +
STACK CFI 32c94 .cfa: x29 80 + x19: .cfa -8 + ^ x20: .cfa -16 + ^ x21: .cfa -24 + ^ x22: .cfa -32 + ^ x23: .cfa -40 + ^ x24: .cfa -48 + ^ x25: .cfa -64 + ^ .ra: .cfa -72 + ^ x29: .cfa -80 + ^
STACK CFI 32e58 .cfa: sp 112 +
STACK CFI 32e70 .cfa: sp 0 +
STACK CFI 32e74 .cfa: x29 80 +
STACK CFI INIT 32e98 150 .cfa: sp 0 +
STACK CFI 32e9c .cfa: sp 48 +
STACK CFI 32ea8 .cfa: x29 48 + x19: .cfa -8 + ^ x20: .cfa -16 + ^ x21: .cfa -24 + ^ x22: .cfa -32 + ^ .ra: .cfa -40 + ^ x29: .cfa -48 + ^
STACK CFI 32fd8 .cfa: sp 48 +
STACK CFI 32fe4 .cfa: sp 0 +
STACK CFI INIT 32fe8 1c4 .cfa: sp 0 +
STACK CFI 32fec .cfa: sp 96 +
STACK CFI 33000 .cfa: x29 64 + x19: .cfa -8 + ^ x20: .cfa -16 + ^ x21: .cfa -24 + ^ x22: .cfa -32 + ^ x23: .cfa -40 + ^ x24: .cfa -48 + ^ .ra: .cfa -56 + ^ x29: .cfa -64 + ^
STACK CFI 33170 .cfa: sp 96 +
STACK CFI 33184 .cfa: sp 0 +
STACK CFI 33188 .cfa: x29 64 +
STACK CFI INIT 331ac 244 .cfa: sp 0 +
STACK CFI 331b0 .cfa: sp 112 +
STACK CFI 331c8 .cfa: x29 80 + x19: .cfa -8 + ^ x20: .cfa -16 + ^ x21: .cfa -24 + ^ x22: .cfa -32 + ^ x23: .cfa -40 + ^ x24: .cfa -48 + ^ x25: .cfa -64 + ^ .ra: .cfa -72 + ^ x29: .cfa -80 + ^
STACK CFI 333b0 .cfa: sp 112 +
STACK CFI 333c8 .cfa: sp 0 +
STACK CFI 333cc .cfa: x29 80 +
STACK CFI INIT 333f0 1ec .cfa: sp 0 +
STACK CFI 333f4 .cfa: sp 96 +
STACK CFI 33408 .cfa: x29 64 + x19: .cfa -8 + ^ x20: .cfa -16 + ^ x21: .cfa -24 + ^ x22: .cfa -32 + ^ x23: .cfa -40 + ^ x24: .cfa -48 + ^ .ra: .cfa -56 + ^ x29: .cfa -64 + ^
STACK CFI 335a0 .cfa: sp 96 +
STACK CFI 335b4 .cfa: sp 0 +
STACK CFI 335b8 .cfa: x29 64 +
STACK CFI INIT 335dc 304 .cfa: sp 0 +
STACK CFI 335e0 .cfa: sp 160 +
STACK CFI 335fc .cfa: x29 96 + x19: .cfa -8 + ^ x20: .cfa -16 + ^ x21: .cfa -24 + ^ x22: .cfa -32 + ^ x23: .cfa -40 + ^ x24: .cfa -48 + ^ x25: .cfa -56 + ^ x26: .cfa -64 + ^ x27: .cfa -72 + ^ x28: .cfa -80 + ^ .ra: .cfa -88 + ^ x29: .cfa -96 + ^
STACK CFI 33884 .cfa: sp 160 +
STACK CFI 338a0 .cfa: sp 0 +
STACK CFI 338a4 .cfa: x29 96 +
STACK CFI INIT 338e0 2a4 .cfa: sp 0 +
STACK CFI 338e4 .cfa: sp 144 +
STACK CFI 33900 .cfa: x29 96 + x19: .cfa -8 + ^ x20: .cfa -16 + ^ x21: .cfa -24 + ^ x22: .cfa -32 + ^ x23: .cfa -40 + ^ x24: .cfa -48 + ^ x25: .cfa -56 + ^ x26: .cfa -64 + ^ x27: .cfa -72 + ^ x28: .cfa -80 + ^ .ra: .cfa -88 + ^ x29: .cfa -96 + ^
STACK CFI 33b28 .cfa: sp 144 +
STACK CFI 33b44 .cfa: sp 0 +
STACK CFI 33b48 .cfa: x29 96 +
STACK CFI INIT 33b84 290 .cfa: sp 0 +
STACK CFI 33b88 .cfa: sp 128 +
STACK CFI 33ba0 .cfa: x29 80 + x19: .cfa -8 + ^ x20: .cfa -16 + ^ x21: .cfa -24 + ^ x22: .cfa -32 + ^ x23: .cfa -40 + ^ x24: .cfa -48 + ^ x25: .cfa -56 + ^ x26: .cfa -64 + ^ .ra: .cfa -72 + ^ x29: .cfa -80 + ^
STACK CFI 33df4 .cfa: sp 128 +
STACK CFI 33e0c .cfa: sp 0 +
STACK CFI 33e10 .cfa: x29 80 +
STACK CFI INIT 33e14 dc0 .cfa: sp 0 +
STACK CFI 33e18 .cfa: sp 144 +
STACK CFI 33e34 .cfa: x29 96 + x19: .cfa -8 + ^ x20: .cfa -16 + ^ x21: .cfa -24 + ^ x22: .cfa -32 + ^ x23: .cfa -40 + ^ x24: .cfa -48 + ^ x25: .cfa -56 + ^ x26: .cfa -64 + ^ x27: .cfa -72 + ^ x28: .cfa -80 + ^ .ra: .cfa -88 + ^ x29: .cfa -96 + ^
STACK CFI 34bb0 .cfa: sp 144 +
STACK CFI 34bcc .cfa: sp 0 +
STACK CFI 34bd0 .cfa: x29 96 +
STACK CFI INIT 34bd4 1d0 .cfa: sp 0 +
STACK CFI 34bd8 .cfa: sp 80 +
STACK CFI 34bec .cfa: x29 80 + x19: .cfa -8 + ^ x20: .cfa -16 + ^ x21: .cfa -24 + ^ x22: .cfa -32 + ^ x23: .cfa -40 + ^ x24: .cfa -48 + ^ x25: .cfa -56 + ^ x26: .cfa -64 + ^ .ra: .cfa -72 + ^ x29: .cfa -80 + ^
STACK CFI 34d8c .cfa: sp 80 +
STACK CFI 34da0 .cfa: sp 0 +
STACK CFI INIT 34da4 22c .cfa: sp 0 +
STACK CFI 34da8 .cfa: sp 112 +
STACK CFI 34dbc .cfa: x29 64 + x19: .cfa -8 + ^ x20: .cfa -16 + ^ x21: .cfa -24 + ^ x22: .cfa -32 + ^ x23: .cfa -40 + ^ x24: .cfa -48 + ^ .ra: .cfa -56 + ^ x29: .cfa -64 + ^
STACK CFI 34f88 .cfa: sp 112 +
STACK CFI 34f9c .cfa: sp 0 +
STACK CFI 34fa0 .cfa: x29 64 +
STACK CFI INIT 34fd0 30c .cfa: sp 0 +
STACK CFI 34fd4 .cfa: sp 80 +
STACK CFI 34fe8 .cfa: x29 64 + x19: .cfa -8 + ^ x20: .cfa -16 + ^ x21: .cfa -24 + ^ x22: .cfa -32 + ^ x23: .cfa -40 + ^ x24: .cfa -48 + ^ .ra: .cfa -56 + ^ x29: .cfa -64 + ^
STACK CFI 35164 .cfa: sp 80 +
STACK CFI 35178 .cfa: sp 0 +
STACK CFI 3517c .cfa: x29 64 +
STACK CFI INIT 352dc 178 .cfa: sp 0 +
STACK CFI 352e0 .cfa: sp 80 +
STACK CFI 352f4 .cfa: x29 64 + x19: .cfa -8 + ^ x20: .cfa -16 + ^ x21: .cfa -24 + ^ x22: .cfa -32 + ^ x23: .cfa -40 + ^ x24: .cfa -48 + ^ .ra: .cfa -56 + ^ x29: .cfa -64 + ^
STACK CFI 35438 .cfa: sp 80 +
STACK CFI 3544c .cfa: sp 0 +
STACK CFI 35450 .cfa: x29 64 +
STACK CFI INIT 35454 178 .cfa: sp 0 +
STACK CFI 35458 .cfa: sp 80 +
STACK CFI 3546c .cfa: x29 64 + x19: .cfa -8 + ^ x20: .cfa -16 + ^ x21: .cfa -24 + ^ x22: .cfa -32 + ^ x23: .cfa -40 + ^ x24: .cfa -48 + ^ .ra: .cfa -56 + ^ x29: .cfa -64 + ^
STACK CFI 355b0 .cfa: sp 80 +
STACK CFI 355c4 .cfa: sp 0 +
STACK CFI 355c8 .cfa: x29 64 +
STACK CFI INIT 355cc 240 .cfa: sp 0 +
STACK CFI 355d0 .cfa: sp 96 +
STACK CFI 355e8 .cfa: x29 96 + x19: .cfa -8 + ^ x20: .cfa -16 + ^ x21: .cfa -24 + ^ x22: .cfa -32 + ^ x23: .cfa -40 + ^ x24: .cfa -48 + ^ x25: .cfa -56 + ^ x26: .cfa -64 + ^ x27: .cfa -72 + ^ x28: .cfa -80 + ^ .ra: .cfa -88 + ^ x29: .cfa -96 + ^
STACK CFI 357f0 .cfa: sp 96 +
STACK CFI 35808 .cfa: sp 0 +
STACK CFI INIT 36438 154 .cfa: sp 0 +
STACK CFI 3643c .cfa: sp 96 +
STACK CFI 36450 .cfa: x29 64 + x19: .cfa -8 + ^ x20: .cfa -16 + ^ x21: .cfa -24 + ^ x22: .cfa -32 + ^ x23: .cfa -48 + ^ .ra: .cfa -56 + ^ x29: .cfa -64 + ^
STACK CFI 36530 .cfa: sp 96 +
STACK CFI 36544 .cfa: sp 0 +
STACK CFI 36548 .cfa: x29 64 +
STACK CFI INIT 367c4 44 .cfa: sp 0 +
STACK CFI 367c8 .cfa: sp 32 +
STACK CFI 367d0 .cfa: x29 32 + x19: .cfa -16 + ^ .ra: .cfa -24 + ^ x29: .cfa -32 + ^
STACK CFI 367ec .cfa: sp 32 +
STACK CFI 367f4 .cfa: sp 0 +
STACK CFI 367f8 .cfa: x29 32 +
STACK CFI 367fc .cfa: sp 32 +
STACK CFI 36804 .cfa: sp 0 +
STACK CFI INIT 36808 1a4 .cfa: sp 0 +
STACK CFI 3680c .cfa: sp 64 +
STACK CFI 3681c .cfa: x29 64 + x19: .cfa -8 + ^ x20: .cfa -16 + ^ x21: .cfa -24 + ^ x22: .cfa -32 + ^ x23: .cfa -40 + ^ x24: .cfa -48 + ^ .ra: .cfa -56 + ^ x29: .cfa -64 + ^
STACK CFI 36998 .cfa: sp 64 +
STACK CFI 369a8 .cfa: sp 0 +
STACK CFI INIT 369ac 17c .cfa: sp 0 +
STACK CFI INIT 36ecc a0 .cfa: sp 0 +
STACK CFI 36ed0 .cfa: sp 48 +
STACK CFI 36edc .cfa: x29 48 + x19: .cfa -8 + ^ x20: .cfa -16 + ^ x21: .cfa -24 + ^ x22: .cfa -32 + ^ .ra: .cfa -40 + ^ x29: .cfa -48 + ^
STACK CFI 36f48 .cfa: sp 48 +
STACK CFI 36f54 .cfa: sp 0 +
STACK CFI 36f58 .cfa: sp 48 +
STACK CFI 36f64 .cfa: sp 0 +
STACK CFI 36f68 .cfa: x29 48 +
STACK CFI INIT 37bd8 158 .cfa: sp 0 +
STACK CFI 37bdc .cfa: sp 96 +
STACK CFI 37bf0 .cfa: x29 64 + x19: .cfa -8 + ^ x20: .cfa -16 + ^ x21: .cfa -24 + ^ x22: .cfa -32 + ^ x23: .cfa -48 + ^ .ra: .cfa -56 + ^ x29: .cfa -64 + ^
STACK CFI 37cd4 .cfa: sp 96 +
STACK CFI 37ce8 .cfa: sp 0 +
STACK CFI 37cec .cfa: x29 64 +
STACK CFI INIT 37d30 190 .cfa: sp 0 +
STACK CFI INIT 38994 1dc .cfa: sp 0 +
STACK CFI 38998 .cfa: sp 80 +
STACK CFI 389ac .cfa: x29 80 + x19: .cfa -8 + ^ x20: .cfa -16 + ^ x21: .cfa -24 + ^ x22: .cfa -32 + ^ x23: .cfa -40 + ^ x24: .cfa -48 + ^ x25: .cfa -64 + ^ .ra: .cfa -72 + ^ x29: .cfa -80 + ^
STACK CFI 38b58 .cfa: sp 80 +
STACK CFI 38b6c .cfa: sp 0 +
STACK CFI INIT 39ec0 124 .cfa: sp 0 +
STACK CFI 39ef0 .cfa: sp 32 +
STACK CFI 39ef8 .cfa: x29 32 + x19: .cfa -8 + ^ x20: .cfa -16 + ^ .ra: .cfa -24 + ^ x29: .cfa -32 + ^
STACK CFI 39fd8 .cfa: sp 32 +
STACK CFI 39fe0 .cfa: sp 0 +
STACK CFI INIT 3a728 2f4 .cfa: sp 0 +
STACK CFI 3a72c .cfa: sp 64 +
STACK CFI 3a73c .cfa: x29 64 + x19: .cfa -8 + ^ x20: .cfa -16 + ^ x21: .cfa -24 + ^ x22: .cfa -32 + ^ x23: .cfa -40 + ^ x24: .cfa -48 + ^ .ra: .cfa -56 + ^ x29: .cfa -64 + ^
STACK CFI 3a998 .cfa: sp 64 +
STACK CFI 3a9a8 .cfa: sp 0 +
STACK CFI 3a9ac .cfa: x29 64 +
STACK CFI INIT 3aa1c a0 .cfa: sp 0 +
STACK CFI 3aa20 .cfa: sp 48 +
STACK CFI 3aa2c .cfa: x29 48 + x19: .cfa -8 + ^ x20: .cfa -16 + ^ x21: .cfa -24 + ^ x22: .cfa -32 + ^ .ra: .cfa -40 + ^ x29: .cfa -48 + ^
STACK CFI 3aa98 .cfa: sp 48 +
STACK CFI 3aaa4 .cfa: sp 0 +
STACK CFI 3aaa8 .cfa: sp 48 +
STACK CFI 3aab4 .cfa: sp 0 +
STACK CFI 3aab8 .cfa: x29 48 +
STACK CFI INIT 3b940 160 .cfa: sp 0 +
STACK CFI 3b944 .cfa: sp 64 +
STACK CFI 3b954 .cfa: x29 64 + x19: .cfa -8 + ^ x20: .cfa -16 + ^ x21: .cfa -24 + ^ x22: .cfa -32 + ^ x23: .cfa -48 + ^ .ra: .cfa -56 + ^ x29: .cfa -64 + ^
STACK CFI 3ba4c .cfa: sp 64 +
STACK CFI 3ba5c .cfa: sp 0 +
STACK CFI 3ba60 .cfa: x29 64 +
STACK CFI INIT 3baa0 214 .cfa: sp 0 +
STACK CFI 3baa4 .cfa: sp 128 +
STACK CFI 3bac0 .cfa: x29 96 + x19: .cfa -8 + ^ x20: .cfa -16 + ^ x21: .cfa -24 + ^ x22: .cfa -32 + ^ x23: .cfa -40 + ^ x24: .cfa -48 + ^ x25: .cfa -56 + ^ x26: .cfa -64 + ^ x27: .cfa -80 + ^ .ra: .cfa -88 + ^ x29: .cfa -96 + ^
STACK CFI 3bc3c .cfa: sp 128 +
STACK CFI 3bc58 .cfa: sp 0 +
STACK CFI 3bc5c .cfa: x29 96 +
STACK CFI INIT 3d8f0 288 .cfa: sp 0 +
STACK CFI 3d8f4 .cfa: sp 16 +
STACK CFI 3d8f8 .cfa: x29 16 + .ra: .cfa -8 + ^ x29: .cfa -16 + ^
STACK CFI 3db40 .cfa: sp 16 +
STACK CFI 3db44 .cfa: sp 0 +
STACK CFI 3db48 .cfa: x29 16 +
STACK CFI INIT 3db78 158 .cfa: sp 0 +
STACK CFI 3db7c .cfa: sp 112 +
STACK CFI 3db98 .cfa: x29 96 + x19: .cfa -8 + ^ x20: .cfa -16 + ^ x21: .cfa -24 + ^ x22: .cfa -32 + ^ x23: .cfa -40 + ^ x24: .cfa -48 + ^ x25: .cfa -56 + ^ x26: .cfa -64 + ^ x27: .cfa -72 + ^ x28: .cfa -80 + ^ .ra: .cfa -88 + ^ x29: .cfa -96 + ^
STACK CFI 3dc80 .cfa: sp 112 +
STACK CFI 3dc84 .cfa: x29 96 +
STACK CFI 3dc8c .cfa: sp 112 +
STACK CFI 3dca8 .cfa: sp 0 +
STACK CFI 3dcac .cfa: x29 96 +
STACK CFI 3dccc .cfa: sp 112 +
STACK CFI INIT 3dcd0 e24 .cfa: sp 0 +
STACK CFI 3dcd4 .cfa: sp 192 +
STACK CFI 3dcf0 .cfa: x29 96 + x19: .cfa -8 + ^ x20: .cfa -16 + ^ x21: .cfa -24 + ^ x22: .cfa -32 + ^ x23: .cfa -40 + ^ x24: .cfa -48 + ^ x25: .cfa -56 + ^ x26: .cfa -64 + ^ x27: .cfa -72 + ^ x28: .cfa -80 + ^ .ra: .cfa -88 + ^ x29: .cfa -96 + ^
STACK CFI 3ead0 .cfa: sp 192 +
STACK CFI 3eaec .cfa: sp 0 +
STACK CFI 3eaf0 .cfa: x29 96 +
STACK CFI INIT 3eaf4 fc8 .cfa: sp 0 +
STACK CFI 3eaf8 .cfa: sp 288 +
STACK CFI 3eb14 .cfa: x29 96 + x19: .cfa -8 + ^ x20: .cfa -16 + ^ x21: .cfa -24 + ^ x22: .cfa -32 + ^ x23: .cfa -40 + ^ x24: .cfa -48 + ^ x25: .cfa -56 + ^ x26: .cfa -64 + ^ x27: .cfa -72 + ^ x28: .cfa -80 + ^ .ra: .cfa -88 + ^ x29: .cfa -96 + ^
STACK CFI 3fa98 .cfa: sp 288 +
STACK CFI 3fab4 .cfa: sp 0 +
STACK CFI 3fab8 .cfa: x29 96 +
STACK CFI INIT 3fabc 510 .cfa: sp 0 +
STACK CFI 3fac0 .cfa: sp 144 +
STACK CFI 3fadc .cfa: x29 96 + x19: .cfa -8 + ^ x20: .cfa -16 + ^ x21: .cfa -24 + ^ x22: .cfa -32 + ^ x23: .cfa -40 + ^ x24: .cfa -48 + ^ x25: .cfa -56 + ^ x26: .cfa -64 + ^ x27: .cfa -72 + ^ x28: .cfa -80 + ^ .ra: .cfa -88 + ^ x29: .cfa -96 + ^
STACK CFI 3ffa8 .cfa: sp 144 +
STACK CFI 3ffc4 .cfa: sp 0 +
STACK CFI 3ffc8 .cfa: x29 96 +
STACK CFI INIT 40958 cb8 .cfa: sp 0 +
STACK CFI 4095c .cfa: sp 192 +
STACK CFI 40978 .cfa: x29 96 + x19: .cfa -8 + ^ x20: .cfa -16 + ^ x21: .cfa -24 + ^ x22: .cfa -32 + ^ x23: .cfa -40 + ^ x24: .cfa -48 + ^ x25: .cfa -56 + ^ x26: .cfa -64 + ^ x27: .cfa -72 + ^ x28: .cfa -80 + ^ .ra: .cfa -88 + ^ x29: .cfa -96 + ^
STACK CFI 415ec .cfa: sp 192 +
STACK CFI 41608 .cfa: sp 0 +
STACK CFI 4160c .cfa: x29 96 +
STACK CFI INIT 41610 17c .cfa: sp 0 +
STACK CFI 41614 .cfa: sp 80 +
STACK CFI 41628 .cfa: x29 80 + x19: .cfa -8 + ^ x20: .cfa -16 + ^ x21: .cfa -24 + ^ x22: .cfa -32 + ^ x23: .cfa -40 + ^ x24: .cfa -48 + ^ x25: .cfa -64 + ^ .ra: .cfa -72 + ^ x29: .cfa -80 + ^
STACK CFI 41730 .cfa: sp 80 +
STACK CFI 41744 .cfa: sp 0 +
STACK CFI 41748 .cfa: x29 80 +
STACK CFI INIT 4178c 1b8 .cfa: sp 0 +
STACK CFI INIT 15410 13c1c .cfa: sp 0 +
STACK CFI 15414 .cfa: sp 96 +
STACK CFI 1542c .cfa: x29 96 + x19: .cfa -8 + ^ x20: .cfa -16 + ^ x21: .cfa -24 + ^ x22: .cfa -32 + ^ x23: .cfa -40 + ^ x24: .cfa -48 + ^ x25: .cfa -56 + ^ x26: .cfa -64 + ^ x27: .cfa -72 + ^ x28: .cfa -80 + ^ .ra: .cfa -88 + ^ x29: .cfa -96 + ^
STACK CFI 2346c .cfa: sp 96 +
STACK CFI 23484 .cfa: sp 0 +
STACK CFI 23488 .cfa: x29 96 +
STACK CFI INIT 29030 14c .cfa: sp 0 +
STACK CFI 29034 .cfa: sp 144 +
STACK CFI 29048 .cfa: x29 64 + x19: .cfa -8 + ^ x20: .cfa -16 + ^ x21: .cfa -24 + ^ x22: .cfa -32 + ^ x23: .cfa -40 + ^ x24: .cfa -48 + ^ .ra: .cfa -56 + ^ x29: .cfa -64 + ^
STACK CFI 29114 .cfa: sp 144 +
STACK CFI 29128 .cfa: sp 0 +
STACK CFI 2912c .cfa: x29 64 +
STACK CFI INIT 29338 b30 .cfa: sp 0 +
STACK CFI 2933c .cfa: sp 240 +
STACK CFI 29358 .cfa: x29 96 + x19: .cfa -8 + ^ x20: .cfa -16 + ^ x21: .cfa -24 + ^ x22: .cfa -32 + ^ x23: .cfa -40 + ^ x24: .cfa -48 + ^ x25: .cfa -56 + ^ x26: .cfa -64 + ^ x27: .cfa -72 + ^ x28: .cfa -80 + ^ .ra: .cfa -88 + ^ x29: .cfa -96 + ^
STACK CFI 29714 .cfa: sp 240 +
STACK CFI 29730 .cfa: sp 0 +
STACK CFI 29734 .cfa: x29 96 +
STACK CFI 29d14 .cfa: sp 240 +
STACK CFI 29d30 .cfa: sp 0 +
STACK CFI 29d34 .cfa: x29 96 +
STACK CFI INIT 29e94 50 .cfa: sp 0 +
STACK CFI 29e98 .cfa: sp 32 +
STACK CFI 29ea0 .cfa: x29 32 + x19: .cfa -8 + ^ x20: .cfa -16 + ^ .ra: .cfa -24 + ^ x29: .cfa -32 + ^
STACK CFI INIT 2a3bc 240 .cfa: sp 0 +
STACK CFI 2a3c0 .cfa: sp 160 +
STACK CFI 2a3d8 .cfa: x29 80 + x19: .cfa -8 + ^ x20: .cfa -16 + ^ x21: .cfa -24 + ^ x22: .cfa -32 + ^ x23: .cfa -40 + ^ x24: .cfa -48 + ^ x25: .cfa -56 + ^ x26: .cfa -64 + ^ .ra: .cfa -72 + ^ x29: .cfa -80 + ^
STACK CFI 2a548 .cfa: sp 160 +
STACK CFI 2a560 .cfa: sp 0 +
STACK CFI 2a564 .cfa: x29 80 +
STACK CFI INIT 2a8bc 450 .cfa: sp 0 +
STACK CFI 2a8c0 .cfa: sp 224 +
STACK CFI 2a8dc .cfa: x29 96 + x19: .cfa -8 + ^ x20: .cfa -16 + ^ x21: .cfa -24 + ^ x22: .cfa -32 + ^ x23: .cfa -40 + ^ x24: .cfa -48 + ^ x25: .cfa -56 + ^ x26: .cfa -64 + ^ x27: .cfa -80 + ^ .ra: .cfa -88 + ^ x29: .cfa -96 + ^
STACK CFI 2abe4 .cfa: sp 224 +
STACK CFI 2ac00 .cfa: sp 0 +
STACK CFI 2ac04 .cfa: x29 96 +
STACK CFI INIT 2ad5c 74 .cfa: sp 0 +
STACK CFI 2ad60 .cfa: sp 48 +
STACK CFI 2ad6c .cfa: x29 32 + x19: .cfa -8 + ^ x20: .cfa -16 + ^ .ra: .cfa -24 + ^ x29: .cfa -32 + ^
STACK CFI 2adb8 .cfa: sp 48 +
STACK CFI 2adc4 .cfa: sp 0 +
STACK CFI 2adc8 .cfa: x29 32 +
STACK CFI INIT 2add4 154 .cfa: sp 0 +
STACK CFI 2add8 .cfa: sp 384 +
STACK CFI 2adec .cfa: x29 64 + x19: .cfa -8 + ^ x20: .cfa -16 + ^ x21: .cfa -24 + ^ x22: .cfa -32 + ^ x23: .cfa -40 + ^ x28: .cfa -48 + ^ .ra: .cfa -56 + ^ x29: .cfa -64 + ^
STACK CFI 2aed0 .cfa: sp 384 +
STACK CFI 2aee4 .cfa: sp 0 +
STACK CFI 2aee8 .cfa: x29 64 +
STACK CFI INIT 2af5c 124 .cfa: sp 0 +
STACK CFI 2af60 .cfa: sp 80 +
STACK CFI 2af74 .cfa: x29 80 + x19: .cfa -8 + ^ x20: .cfa -16 + ^ x21: .cfa -24 + ^ x22: .cfa -32 + ^ x23: .cfa -40 + ^ x24: .cfa -48 + ^ x25: .cfa -56 + ^ x26: .cfa -64 + ^ .ra: .cfa -72 + ^ x29: .cfa -80 + ^
STACK CFI 2b040 .cfa: sp 80 +
STACK CFI 2b054 .cfa: sp 0 +
STACK CFI 2b058 .cfa: x29 80 +
STACK CFI INIT 2b124 198 .cfa: sp 0 +
STACK CFI 2b128 .cfa: sp 112 +
STACK CFI 2b140 .cfa: x29 80 + x19: .cfa -8 + ^ x20: .cfa -16 + ^ x21: .cfa -24 + ^ x22: .cfa -32 + ^ x23: .cfa -40 + ^ x24: .cfa -48 + ^ x25: .cfa -56 + ^ x26: .cfa -64 + ^ .ra: .cfa -72 + ^ x29: .cfa -80 + ^
STACK CFI 2b230 .cfa: sp 112 +
STACK CFI 2b248 .cfa: sp 0 +
STACK CFI 2b24c .cfa: x29 80 +
STACK CFI INIT 2b2bc 1b4 .cfa: sp 0 +
STACK CFI 2b2c0 .cfa: sp 128 +
STACK CFI 2b2dc .cfa: x29 96 + x19: .cfa -8 + ^ x20: .cfa -16 + ^ x21: .cfa -24 + ^ x22: .cfa -32 + ^ x23: .cfa -40 + ^ x24: .cfa -48 + ^ x25: .cfa -56 + ^ x26: .cfa -64 + ^ x27: .cfa -80 + ^ .ra: .cfa -88 + ^ x29: .cfa -96 + ^
STACK CFI 2b420 .cfa: sp 128 +
STACK CFI 2b43c .cfa: sp 0 +
STACK CFI 2b440 .cfa: x29 96 +
STACK CFI INIT 2b470 15c .cfa: sp 0 +
STACK CFI 2b474 .cfa: sp 80 +
STACK CFI 2b488 .cfa: x29 80 + x19: .cfa -8 + ^ x20: .cfa -16 + ^ x21: .cfa -24 + ^ x22: .cfa -32 + ^ x23: .cfa -40 + ^ x24: .cfa -48 + ^ x25: .cfa -64 + ^ .ra: .cfa -72 + ^ x29: .cfa -80 + ^
STACK CFI 2b598 .cfa: sp 80 +
STACK CFI 2b5ac .cfa: sp 0 +
STACK CFI 2b5b0 .cfa: x29 80 +
STACK CFI INIT 2b818 6d8 .cfa: sp 0 +
STACK CFI 2b81c .cfa: sp 304 +
STACK CFI 2b838 .cfa: x29 80 + x19: .cfa -8 + ^ x20: .cfa -16 + ^ x21: .cfa -24 + ^ x22: .cfa -32 + ^ x23: .cfa -40 + ^ x24: .cfa -48 + ^ x25: .cfa -56 + ^ x28: .cfa -64 + ^ .ra: .cfa -72 + ^ x29: .cfa -80 + ^ v8: .cfa -96 + ^
STACK CFI 2bdc4 .cfa: sp 304 +
STACK CFI 2bde0 .cfa: sp 0 +
STACK CFI 2bde4 .cfa: x29 80 +
STACK CFI INIT 2c124 62c .cfa: sp 0 +
STACK CFI 2c128 .cfa: sp 224 +
STACK CFI 2c144 .cfa: x29 96 + x19: .cfa -8 + ^ x20: .cfa -16 + ^ x21: .cfa -24 + ^ x22: .cfa -32 + ^ x23: .cfa -40 + ^ x24: .cfa -48 + ^ x25: .cfa -56 + ^ x26: .cfa -64 + ^ x27: .cfa -72 + ^ x28: .cfa -80 + ^ .ra: .cfa -88 + ^ x29: .cfa -96 + ^
STACK CFI 2c5e4 .cfa: sp 224 +
STACK CFI 2c600 .cfa: sp 0 +
STACK CFI 2c604 .cfa: x29 96 +
STACK CFI INIT 2c798 50 .cfa: sp 0 +
STACK CFI 2c79c .cfa: sp 32 +
STACK CFI 2c7a4 .cfa: x29 32 + x19: .cfa -8 + ^ x20: .cfa -16 + ^ .ra: .cfa -24 + ^ x29: .cfa -32 + ^
STACK CFI INIT 2c8e8 23c .cfa: sp 0 +
STACK CFI 2c8ec .cfa: sp 96 +
STACK CFI 2c904 .cfa: x29 56 + x19: .cfa -8 + ^ x20: .cfa -16 + ^ x21: .cfa -24 + ^ x22: .cfa -32 + ^ x23: .cfa -40 + ^ .ra: .cfa -48 + ^ x29: .cfa -56 + ^ v8: .cfa -64 + ^
STACK CFI 2cad8 .cfa: sp 96 +
STACK CFI 2caf0 .cfa: sp 0 +
STACK CFI 2caf4 .cfa: x29 56 +
STACK CFI INIT 2cb94 1e98 .cfa: sp 0 +
STACK CFI 2cb98 .cfa: sp 496 +
STACK CFI 2cbc4 .cfa: x29 96 + x19: .cfa -8 + ^ x20: .cfa -16 + ^ x21: .cfa -24 + ^ x22: .cfa -32 + ^ x23: .cfa -40 + ^ x24: .cfa -48 + ^ x25: .cfa -56 + ^ x26: .cfa -64 + ^ x27: .cfa -72 + ^ x28: .cfa -80 + ^ .ra: .cfa -88 + ^ x29: .cfa -96 + ^ v8: .cfa -104 + ^ v9: .cfa -112 + ^ v10: .cfa -120 + ^ v11: .cfa -128 + ^ v12: .cfa -136 + ^ v13: .cfa -144 + ^ v14: .cfa -152 + ^ v15: .cfa -160 + ^
STACK CFI 2e6c0 .cfa: sp 496 +
STACK CFI 2e6ec .cfa: sp 0 +
STACK CFI 2e6f0 .cfa: x29 96 +
STACK CFI INIT 2edc0 124 .cfa: sp 0 +
STACK CFI 2edc4 .cfa: sp 80 +
STACK CFI 2edd4 .cfa: x29 48 + x19: .cfa -8 + ^ x20: .cfa -16 + ^ x21: .cfa -32 + ^ .ra: .cfa -40 + ^ x29: .cfa -48 + ^
STACK CFI 2eea0 .cfa: sp 80 +
STACK CFI 2eeb0 .cfa: sp 0 +
STACK CFI 2eeb4 .cfa: x29 48 +
STACK CFI INIT 2eff8 414 .cfa: sp 0 +
STACK CFI 2effc .cfa: sp 160 +
STACK CFI 2f01c .cfa: x29 96 + x19: .cfa -8 + ^ x20: .cfa -16 + ^ x21: .cfa -24 + ^ x22: .cfa -32 + ^ x23: .cfa -40 + ^ x24: .cfa -48 + ^ x25: .cfa -56 + ^ x26: .cfa -64 + ^ x27: .cfa -72 + ^ x28: .cfa -80 + ^ .ra: .cfa -88 + ^ x29: .cfa -96 + ^ v8: .cfa -104 + ^ v9: .cfa -112 + ^
STACK CFI 2f3a8 .cfa: sp 160 +
STACK CFI 2f3c8 .cfa: sp 0 +
STACK CFI 2f3cc .cfa: x29 96 +
STACK CFI INIT 2f40c 20 .cfa: sp 0 +
STACK CFI 2f410 .cfa: sp 16 +
STACK CFI 2f414 .cfa: x29 16 + .ra: .cfa -8 + ^ x29: .cfa -16 + ^
STACK CFI 2f420 .cfa: sp 16 +
STACK CFI 2f424 .cfa: sp 0 +
STACK CFI 2f428 .cfa: x29 16 +
STACK CFI INIT 2f564 134 .cfa: sp 0 +
STACK CFI 2f568 .cfa: sp 80 +
STACK CFI 2f574 .cfa: x29 32 + x19: .cfa -8 + ^ x20: .cfa -16 + ^ .ra: .cfa -24 + ^ x29: .cfa -32 + ^
STACK CFI 2f5a4 .cfa: sp 80 +
STACK CFI 2f5b0 .cfa: sp 0 +
STACK CFI 2f5b4 .cfa: x29 32 +
STACK CFI INIT 2f698 78 .cfa: sp 0 +
STACK CFI 2f69c .cfa: sp 32 +
STACK CFI 2f6a4 .cfa: x29 32 + x19: .cfa -8 + ^ x20: .cfa -16 + ^ .ra: .cfa -24 + ^ x29: .cfa -32 + ^
STACK CFI 2f6b0 .cfa: sp 32 +
STACK CFI 2f6b8 .cfa: sp 0 +
STACK CFI 2f6bc .cfa: x29 32 +
STACK CFI INIT 2f710 74 .cfa: sp 0 +
STACK CFI 2f714 .cfa: sp 48 +
STACK CFI 2f720 .cfa: x29 32 + x19: .cfa -8 + ^ x20: .cfa -16 + ^ .ra: .cfa -24 + ^ x29: .cfa -32 + ^
STACK CFI 2f76c .cfa: sp 48 +
STACK CFI 2f778 .cfa: sp 0 +
STACK CFI 2f77c .cfa: x29 32 +
STACK CFI INIT 2f80c 25c .cfa: sp 0 +
STACK CFI 2f810 .cfa: sp 128 +
STACK CFI 2f820 .cfa: x29 48 + x19: .cfa -8 + ^ x20: .cfa -16 + ^ x21: .cfa -32 + ^ .ra: .cfa -40 + ^ x29: .cfa -48 + ^
STACK CFI 2f908 .cfa: sp 128 +
STACK CFI 2f918 .cfa: sp 0 +
STACK CFI 2f91c .cfa: x29 48 +
STACK CFI INIT 2fa90 2a8 .cfa: sp 0 +
STACK CFI 2fa94 .cfa: sp 144 +
STACK CFI 2faa8 .cfa: x29 64 + x19: .cfa -8 + ^ x20: .cfa -16 + ^ x21: .cfa -24 + ^ x22: .cfa -32 + ^ x23: .cfa -48 + ^ .ra: .cfa -56 + ^ x29: .cfa -64 + ^
STACK CFI 2fbdc .cfa: sp 144 +
STACK CFI 2fbf0 .cfa: sp 0 +
STACK CFI 2fbf4 .cfa: x29 64 +
STACK CFI INIT 2fd38 4c4 .cfa: sp 0 +
STACK CFI 2fd3c .cfa: sp 144 +
STACK CFI 2fd50 .cfa: x29 64 + x19: .cfa -8 + ^ x20: .cfa -16 + ^ x21: .cfa -24 + ^ x22: .cfa -32 + ^ x23: .cfa -48 + ^ .ra: .cfa -56 + ^ x29: .cfa -64 + ^
STACK CFI 3004c .cfa: sp 144 +
STACK CFI 30060 .cfa: sp 0 +
STACK CFI 30064 .cfa: x29 64 +
STACK CFI INIT 301fc 154 .cfa: sp 0 +
STACK CFI 30200 .cfa: sp 384 +
STACK CFI 30214 .cfa: x29 64 + x19: .cfa -8 + ^ x20: .cfa -16 + ^ x21: .cfa -24 + ^ x22: .cfa -32 + ^ x23: .cfa -40 + ^ x28: .cfa -48 + ^ .ra: .cfa -56 + ^ x29: .cfa -64 + ^
STACK CFI 302f8 .cfa: sp 384 +
STACK CFI 3030c .cfa: sp 0 +
STACK CFI 30310 .cfa: x29 64 +
STACK CFI INIT 30350 168 .cfa: sp 0 +
STACK CFI 30354 .cfa: sp 384 +
STACK CFI 30368 .cfa: x29 64 + x19: .cfa -8 + ^ x20: .cfa -16 + ^ x21: .cfa -24 + ^ x22: .cfa -32 + ^ x23: .cfa -40 + ^ x28: .cfa -48 + ^ .ra: .cfa -56 + ^ x29: .cfa -64 + ^
STACK CFI 30460 .cfa: sp 384 +
STACK CFI 30474 .cfa: sp 0 +
STACK CFI 30478 .cfa: x29 64 +
STACK CFI INIT 304d0 43c .cfa: sp 0 +
STACK CFI 304d4 .cfa: sp 64 +
STACK CFI 304e4 .cfa: x29 64 + x19: .cfa -8 + ^ x20: .cfa -16 + ^ x21: .cfa -24 + ^ x22: .cfa -32 + ^ x23: .cfa -40 + ^ x24: .cfa -48 + ^ .ra: .cfa -56 + ^ x29: .cfa -64 + ^
STACK CFI 3089c .cfa: sp 64 +
STACK CFI 308ac .cfa: sp 0 +
STACK CFI 308b0 .cfa: x29 64 +
STACK CFI INIT 30c3c 294 .cfa: sp 0 +
STACK CFI 30c40 .cfa: sp 240 +
STACK CFI 30c58 .cfa: x29 80 + x19: .cfa -8 + ^ x20: .cfa -16 + ^ x21: .cfa -24 + ^ x22: .cfa -32 + ^ x23: .cfa -40 + ^ x24: .cfa -48 + ^ x25: .cfa -64 + ^ .ra: .cfa -72 + ^ x29: .cfa -80 + ^
STACK CFI 30df8 .cfa: sp 240 +
STACK CFI 30e10 .cfa: sp 0 +
STACK CFI 30e14 .cfa: x29 80 +
STACK CFI INIT 30f40 50 .cfa: sp 0 +
STACK CFI 30f44 .cfa: sp 32 +
STACK CFI 30f4c .cfa: x29 32 + x19: .cfa -8 + ^ x20: .cfa -16 + ^ .ra: .cfa -24 + ^ x29: .cfa -32 + ^
STACK CFI INIT 30fbc 750 .cfa: sp 0 +
STACK CFI 30fc0 .cfa: sp 320 +
STACK CFI 30fdc .cfa: x29 96 + x19: .cfa -8 + ^ x20: .cfa -16 + ^ x21: .cfa -24 + ^ x22: .cfa -32 + ^ x23: .cfa -40 + ^ x24: .cfa -48 + ^ x25: .cfa -56 + ^ x26: .cfa -64 + ^ x27: .cfa -72 + ^ x28: .cfa -80 + ^ .ra: .cfa -88 + ^ x29: .cfa -96 + ^
STACK CFI 315c8 .cfa: sp 320 +
STACK CFI 315e4 .cfa: sp 0 +
STACK CFI 315e8 .cfa: x29 96 +
STACK CFI INIT 31770 12c .cfa: sp 0 +
STACK CFI 31774 .cfa: sp 80 +
STACK CFI 31788 .cfa: x29 80 + x19: .cfa -8 + ^ x20: .cfa -16 + ^ x21: .cfa -24 + ^ x22: .cfa -32 + ^ x23: .cfa -40 + ^ x24: .cfa -48 + ^ x28: .cfa -64 + ^ .ra: .cfa -72 + ^ x29: .cfa -80 + ^
STACK CFI 31850 .cfa: sp 80 +
STACK CFI 31864 .cfa: sp 0 +
STACK CFI 31868 .cfa: x29 80 +
STACK CFI INIT 3580c c2c .cfa: sp 0 +
STACK CFI 35810 .cfa: sp 96 +
STACK CFI 35828 .cfa: x29 96 + x19: .cfa -8 + ^ x20: .cfa -16 + ^ x21: .cfa -24 + ^ x22: .cfa -32 + ^ x23: .cfa -40 + ^ x24: .cfa -48 + ^ x25: .cfa -56 + ^ x26: .cfa -64 + ^ x27: .cfa -72 + ^ x28: .cfa -80 + ^ .ra: .cfa -88 + ^ x29: .cfa -96 + ^
STACK CFI 362fc .cfa: sp 96 +
STACK CFI 36314 .cfa: sp 0 +
STACK CFI 36318 .cfa: x29 96 +
STACK CFI INIT 3658c 238 .cfa: sp 0 +
STACK CFI 36590 .cfa: sp 128 +
STACK CFI 365a0 .cfa: x29 48 + x19: .cfa -8 + ^ x20: .cfa -16 + ^ x21: .cfa -24 + ^ x22: .cfa -32 + ^ .ra: .cfa -40 + ^ x29: .cfa -48 + ^
STACK CFI 36728 .cfa: sp 128 +
STACK CFI 36738 .cfa: sp 0 +
STACK CFI 3673c .cfa: x29 48 +
STACK CFI INIT 36b28 3a4 .cfa: sp 0 +
STACK CFI 36b2c .cfa: sp 96 +
STACK CFI 36b44 .cfa: x29 96 + x19: .cfa -8 + ^ x20: .cfa -16 + ^ x21: .cfa -24 + ^ x22: .cfa -32 + ^ x23: .cfa -40 + ^ x24: .cfa -48 + ^ x25: .cfa -56 + ^ x26: .cfa -64 + ^ x27: .cfa -72 + ^ x28: .cfa -80 + ^ .ra: .cfa -88 + ^ x29: .cfa -96 + ^
STACK CFI 36e6c .cfa: sp 96 +
STACK CFI 36e84 .cfa: sp 0 +
STACK CFI 36e88 .cfa: x29 96 +
STACK CFI INIT 36f6c c6c .cfa: sp 0 +
STACK CFI 36f70 .cfa: sp 96 +
STACK CFI 36f88 .cfa: x29 96 + x19: .cfa -8 + ^ x20: .cfa -16 + ^ x21: .cfa -24 + ^ x22: .cfa -32 + ^ x23: .cfa -40 + ^ x24: .cfa -48 + ^ x25: .cfa -56 + ^ x26: .cfa -64 + ^ x27: .cfa -72 + ^ x28: .cfa -80 + ^ .ra: .cfa -88 + ^ x29: .cfa -96 + ^
STACK CFI 37a8c .cfa: sp 96 +
STACK CFI 37aa4 .cfa: sp 0 +
STACK CFI 37aa8 .cfa: x29 96 +
STACK CFI INIT 37ec0 ad4 .cfa: sp 0 +
STACK CFI 37ec4 .cfa: sp 96 +
STACK CFI 37edc .cfa: x29 96 + x19: .cfa -8 + ^ x20: .cfa -16 + ^ x21: .cfa -24 + ^ x22: .cfa -32 + ^ x23: .cfa -40 + ^ x24: .cfa -48 + ^ x25: .cfa -56 + ^ x26: .cfa -64 + ^ x27: .cfa -72 + ^ x28: .cfa -80 + ^ .ra: .cfa -88 + ^ x29: .cfa -96 + ^
STACK CFI 38908 .cfa: sp 96 +
STACK CFI 38920 .cfa: sp 0 +
STACK CFI 38924 .cfa: x29 96 +
STACK CFI INIT 38b70 1350 .cfa: sp 0 +
STACK CFI 38b74 .cfa: sp 96 +
STACK CFI 38b8c .cfa: x29 96 + x19: .cfa -8 + ^ x20: .cfa -16 + ^ x21: .cfa -24 + ^ x22: .cfa -32 + ^ x23: .cfa -40 + ^ x24: .cfa -48 + ^ x25: .cfa -56 + ^ x26: .cfa -64 + ^ x27: .cfa -72 + ^ x28: .cfa -80 + ^ .ra: .cfa -88 + ^ x29: .cfa -96 + ^
STACK CFI 39d8c .cfa: sp 96 +
STACK CFI 39da4 .cfa: sp 0 +
STACK CFI 39da8 .cfa: x29 96 +
STACK CFI INIT 39fe4 744 .cfa: sp 0 +
STACK CFI 39fe8 .cfa: sp 368 +
STACK CFI 3a004 .cfa: x29 96 + x19: .cfa -8 + ^ x20: .cfa -16 + ^ x21: .cfa -24 + ^ x22: .cfa -32 + ^ x23: .cfa -40 + ^ x24: .cfa -48 + ^ x25: .cfa -56 + ^ x26: .cfa -64 + ^ x27: .cfa -72 + ^ x28: .cfa -80 + ^ .ra: .cfa -88 + ^ x29: .cfa -96 + ^
STACK CFI 3a0a0 .cfa: sp 368 +
STACK CFI 3a0bc .cfa: sp 0 +
STACK CFI 3a0c0 .cfa: x29 96 +
STACK CFI 3a114 .cfa: sp 368 +
STACK CFI 3a130 .cfa: sp 0 +
STACK CFI 3a134 .cfa: x29 96 +
STACK CFI INIT 3aabc e84 .cfa: sp 0 +
STACK CFI 3aac0 .cfa: sp 96 +
STACK CFI 3aad8 .cfa: x29 96 + x19: .cfa -8 + ^ x20: .cfa -16 + ^ x21: .cfa -24 + ^ x22: .cfa -32 + ^ x23: .cfa -40 + ^ x24: .cfa -48 + ^ x25: .cfa -56 + ^ x26: .cfa -64 + ^ x27: .cfa -72 + ^ x28: .cfa -80 + ^ .ra: .cfa -88 + ^ x29: .cfa -96 + ^
STACK CFI 3b754 .cfa: sp 96 +
STACK CFI 3b76c .cfa: sp 0 +
STACK CFI 3b770 .cfa: x29 96 +
STACK CFI INIT 3bcb4 1c3c .cfa: sp 0 +
STACK CFI 3bcb8 .cfa: sp 112 +
STACK CFI 3bcd4 .cfa: x29 96 + x19: .cfa -8 + ^ x20: .cfa -16 + ^ x21: .cfa -24 + ^ x22: .cfa -32 + ^ x23: .cfa -40 + ^ x24: .cfa -48 + ^ x25: .cfa -56 + ^ x26: .cfa -64 + ^ x27: .cfa -72 + ^ x28: .cfa -80 + ^ .ra: .cfa -88 + ^ x29: .cfa -96 + ^ v8: .cfa -112 + ^
STACK CFI 3d610 .cfa: sp 112 +
STACK CFI 3d62c .cfa: sp 0 +
STACK CFI 3d630 .cfa: x29 96 +
STACK CFI INIT 3ffcc 98c .cfa: sp 0 +
STACK CFI 3ffd0 .cfa: sp 144 +
STACK CFI 3ffe8 .cfa: x29 80 + x19: .cfa -8 + ^ x20: .cfa -16 + ^ x21: .cfa -24 + ^ x22: .cfa -32 + ^ x23: .cfa -40 + ^ x24: .cfa -48 + ^ x25: .cfa -64 + ^ .ra: .cfa -72 + ^ x29: .cfa -80 + ^
STACK CFI 408d4 .cfa: sp 144 +
STACK CFI 408ec .cfa: sp 0 +
STACK CFI 408f0 .cfa: x29 80 +
STACK CFI INIT 41944 570 .cfa: sp 0 +
STACK CFI 41948 .cfa: sp 96 +
STACK CFI 41960 .cfa: x29 96 + x19: .cfa -8 + ^ x20: .cfa -16 + ^ x21: .cfa -24 + ^ x22: .cfa -32 + ^ x23: .cfa -40 + ^ x24: .cfa -48 + ^ x25: .cfa -56 + ^ x26: .cfa -64 + ^ x27: .cfa -72 + ^ x28: .cfa -80 + ^ .ra: .cfa -88 + ^ x29: .cfa -96 + ^
STACK CFI 41e18 .cfa: sp 96 +
STACK CFI 41e30 .cfa: sp 0 +
STACK CFI 41e34 .cfa: x29 96 +
STACK CFI INIT 41eb4 664 .cfa: sp 0 +
STACK CFI 41eb8 .cfa: sp 96 +
STACK CFI 41ed0 .cfa: x29 96 + x19: .cfa -8 + ^ x20: .cfa -16 + ^ x21: .cfa -24 + ^ x22: .cfa -32 + ^ x23: .cfa -40 + ^ x24: .cfa -48 + ^ x25: .cfa -56 + ^ x26: .cfa -64 + ^ x27: .cfa -72 + ^ x28: .cfa -80 + ^ .ra: .cfa -88 + ^ x29: .cfa -96 + ^
STACK CFI 4247c .cfa: sp 96 +
STACK CFI 42494 .cfa: sp 0 +
STACK CFI 42498 .cfa: x29 96 +
