MODULE Linux arm64 B422BCDF3183B00A7F6569E259F43B940 adyagd.ingamelistmod.android64.so
INFO CODE_ID DFBC22B483310AB07F6569E259F43B946AFA0DA7
INFO GENERATOR mozilla/dump_syms 2.3.4
PUBLIC 8a40 0 __on_dlclose
PUBLIC 8a50 0 __emutls_unregister_key
PUBLIC 8a58 0 __on_dlclose_late
PUBLIC 8a60 0 __atexit_handler_wrapper
PUBLIC 8a74 0 atexit
PUBLIC 8a90 0 pthread_atfork
PUBLIC 8aa0 0 __aarch64_ldadd8_acq_rel
PUBLIC 8ad0 0 init_have_lse_atomics
PUBLIC 8b68 0 __init_cpu_features_constructor
PUBLIC 9104 0 __init_cpu_features
PUBLIC 9190 0 __aarch64_ldadd8_relax
PUBLIC 91c0 0 std::__ndk1::unordered_map<int, int, std::__ndk1::hash<int>, std::__ndk1::equal_to<int>, std::__ndk1::allocator<std::__ndk1::pair<int const, int> > >::~unordered_map[abi:ne180000]()
PUBLIC 920c 0 geode::Task<geode::utils::web::WebResponse, geode::utils::web::WebProgress>::~Task()
PUBLIC 925c 0 geode::EventListener<geode::Task<geode::utils::web::WebResponse, geode::utils::web::WebProgress> >::~EventListener()
PUBLIC 92f8 0 DemonClass::openLink(cocos2d::CCObject*)
PUBLIC 95f8 0 DemonClass::infobox(cocos2d::CCObject*)
PUBLIC 96d4 0 DemonClass::internetFail(cocos2d::CCObject*)
PUBLIC 97b0 0 __cxx_global_var_init.23
PUBLIC 9c0c 0 __cxx_global_var_init.24
PUBLIC a068 0 _GLOBAL__sub_I_main.cpp
PUBLIC a14c 0 geode::modifier::ModifyBase<geode::modifier::ModifyDerive<hook185<(anonymous namespace)::hook185Parent>, LevelInfoLayer> >::~ModifyBase()
PUBLIC a164 0 geode::modifier::ModifyBase<geode::modifier::ModifyDerive<hook242<(anonymous namespace)::hook242Parent>, MenuLayer> >::~ModifyBase()
PUBLIC a17c 0 geode::EventListener<geode::Task<geode::utils::web::WebResponse, geode::utils::web::WebProgress> >::getPool() const
PUBLIC a180 0 geode::EventListener<geode::Task<geode::utils::web::WebResponse, geode::utils::web::WebProgress> >::handle(geode::Event*)
PUBLIC a32c 0 geode::EventListener<geode::Task<geode::utils::web::WebResponse, geode::utils::web::WebProgress> >::~EventListener()
PUBLIC a3d0 0 geode::cast::traverseTypeinfoFor(void*, geode::cast::ClassTypeinfoType const*, char const*)
PUBLIC a4c8 0 std::__ndk1::__throw_bad_function_call[abi:ne180000]()
PUBLIC a4fc 0 std::__ndk1::bad_function_call::~bad_function_call()
PUBLIC a520 0 std::__ndk1::basic_string<char, std::__ndk1::char_traits<char>, std::__ndk1::allocator<char> >::__throw_length_error[abi:ne180000]() const
PUBLIC a534 0 std::__ndk1::__throw_length_error[abi:ne180000](char const*)
PUBLIC a584 0 std::length_error::length_error[abi:ne180000](char const*)
PUBLIC a5b4 0 std::__throw_bad_array_new_length([abi:ne180000], void)
PUBLIC a5e8 0 __clang_call_terminate
PUBLIC a5f8 0 std::__ndk1::basic_string<char, std::__ndk1::char_traits<char>, std::__ndk1::allocator<char> >::__assign_external(char const*, unsigned long)
PUBLIC a6f8 0 std::__ndk1::basic_string<char, std::__ndk1::char_traits<char>, std::__ndk1::allocator<char> >::__init_copy_ctor_external(char const*, unsigned long)
PUBLIC a778 0 geode::Task<geode::utils::web::WebResponse, geode::utils::web::WebProgress>::setListener(geode::EventListenerProtocol*)
PUBLIC a994 0 geode::Task<geode::utils::web::WebResponse, geode::utils::web::WebProgress>::setListener(geode::EventListenerProtocol*)::{lambda()#1}::~{lambda()#1}()
PUBLIC a9e4 0 geode::Task<geode::utils::web::WebResponse, geode::utils::web::WebProgress>::setListener(geode::EventListenerProtocol*)::{lambda()#2}::~{lambda()#2}()
PUBLIC aa34 0 std::__ndk1::__function::__func<geode::Task<geode::utils::web::WebResponse, geode::utils::web::WebProgress>::setListener(geode::EventListenerProtocol*)::{lambda()#1}, std::__ndk1::allocator<geode::Task<geode::utils::web::WebResponse, geode::utils::web::WebProgress>::setListener(geode::EventListenerProtocol*)::{lambda()#1}>, void ()>::~__func()
PUBLIC aa90 0 std::__ndk1::__function::__func<geode::Task<geode::utils::web::WebResponse, geode::utils::web::WebProgress>::setListener(geode::EventListenerProtocol*)::{lambda()#1}, std::__ndk1::allocator<geode::Task<geode::utils::web::WebResponse, geode::utils::web::WebProgress>::setListener(geode::EventListenerProtocol*)::{lambda()#1}>, void ()>::~__func()
PUBLIC aafc 0 std::__ndk1::__function::__func<geode::Task<geode::utils::web::WebResponse, geode::utils::web::WebProgress>::setListener(geode::EventListenerProtocol*)::{lambda()#1}, std::__ndk1::allocator<geode::Task<geode::utils::web::WebResponse, geode::utils::web::WebProgress>::setListener(geode::EventListenerProtocol*)::{lambda()#1}>, void ()>::__clone() const
PUBLIC ab54 0 std::__ndk1::__function::__func<geode::Task<geode::utils::web::WebResponse, geode::utils::web::WebProgress>::setListener(geode::EventListenerProtocol*)::{lambda()#1}, std::__ndk1::allocator<geode::Task<geode::utils::web::WebResponse, geode::utils::web::WebProgress>::setListener(geode::EventListenerProtocol*)::{lambda()#1}>, void ()>::__clone(std::__ndk1::__function::__base<void ()>*) const
PUBLIC aba0 0 std::__ndk1::__function::__func<geode::Task<geode::utils::web::WebResponse, geode::utils::web::WebProgress>::setListener(geode::EventListenerProtocol*)::{lambda()#1}, std::__ndk1::allocator<geode::Task<geode::utils::web::WebResponse, geode::utils::web::WebProgress>::setListener(geode::EventListenerProtocol*)::{lambda()#1}>, void ()>::destroy()
PUBLIC abf0 0 std::__ndk1::__function::__func<geode::Task<geode::utils::web::WebResponse, geode::utils::web::WebProgress>::setListener(geode::EventListenerProtocol*)::{lambda()#1}, std::__ndk1::allocator<geode::Task<geode::utils::web::WebResponse, geode::utils::web::WebProgress>::setListener(geode::EventListenerProtocol*)::{lambda()#1}>, void ()>::destroy_deallocate()
PUBLIC ac50 0 std::__ndk1::__function::__func<geode::Task<geode::utils::web::WebResponse, geode::utils::web::WebProgress>::setListener(geode::EventListenerProtocol*)::{lambda()#1}, std::__ndk1::allocator<geode::Task<geode::utils::web::WebResponse, geode::utils::web::WebProgress>::setListener(geode::EventListenerProtocol*)::{lambda()#1}>, void ()>::operator()()
PUBLIC ae20 0 std::__ndk1::__function::__func<geode::Task<geode::utils::web::WebResponse, geode::utils::web::WebProgress>::setListener(geode::EventListenerProtocol*)::{lambda()#1}, std::__ndk1::allocator<geode::Task<geode::utils::web::WebResponse, geode::utils::web::WebProgress>::setListener(geode::EventListenerProtocol*)::{lambda()#1}>, void ()>::target(std::type_info const&) const
PUBLIC ae3c 0 std::__ndk1::__function::__func<geode::Task<geode::utils::web::WebResponse, geode::utils::web::WebProgress>::setListener(geode::EventListenerProtocol*)::{lambda()#1}, std::__ndk1::allocator<geode::Task<geode::utils::web::WebResponse, geode::utils::web::WebProgress>::setListener(geode::EventListenerProtocol*)::{lambda()#1}>, void ()>::target_type() const
PUBLIC ae48 0 geode::Task<geode::utils::web::WebResponse, geode::utils::web::WebProgress>::Event::~Event()
PUBLIC aea8 0 geode::Task<geode::utils::web::WebResponse, geode::utils::web::WebProgress>::Event::~Event()
PUBLIC af18 0 std::__ndk1::__function::__func<geode::Task<geode::utils::web::WebResponse, geode::utils::web::WebProgress>::setListener(geode::EventListenerProtocol*)::{lambda()#2}, std::__ndk1::allocator<geode::Task<geode::utils::web::WebResponse, geode::utils::web::WebProgress>::setListener(geode::EventListenerProtocol*)::{lambda()#2}>, void ()>::~__func()
PUBLIC af74 0 std::__ndk1::__function::__func<geode::Task<geode::utils::web::WebResponse, geode::utils::web::WebProgress>::setListener(geode::EventListenerProtocol*)::{lambda()#2}, std::__ndk1::allocator<geode::Task<geode::utils::web::WebResponse, geode::utils::web::WebProgress>::setListener(geode::EventListenerProtocol*)::{lambda()#2}>, void ()>::~__func()
PUBLIC afe0 0 std::__ndk1::__function::__func<geode::Task<geode::utils::web::WebResponse, geode::utils::web::WebProgress>::setListener(geode::EventListenerProtocol*)::{lambda()#2}, std::__ndk1::allocator<geode::Task<geode::utils::web::WebResponse, geode::utils::web::WebProgress>::setListener(geode::EventListenerProtocol*)::{lambda()#2}>, void ()>::__clone() const
PUBLIC b038 0 std::__ndk1::__function::__func<geode::Task<geode::utils::web::WebResponse, geode::utils::web::WebProgress>::setListener(geode::EventListenerProtocol*)::{lambda()#2}, std::__ndk1::allocator<geode::Task<geode::utils::web::WebResponse, geode::utils::web::WebProgress>::setListener(geode::EventListenerProtocol*)::{lambda()#2}>, void ()>::__clone(std::__ndk1::__function::__base<void ()>*) const
PUBLIC b084 0 std::__ndk1::__function::__func<geode::Task<geode::utils::web::WebResponse, geode::utils::web::WebProgress>::setListener(geode::EventListenerProtocol*)::{lambda()#2}, std::__ndk1::allocator<geode::Task<geode::utils::web::WebResponse, geode::utils::web::WebProgress>::setListener(geode::EventListenerProtocol*)::{lambda()#2}>, void ()>::destroy()
PUBLIC b0d4 0 std::__ndk1::__function::__func<geode::Task<geode::utils::web::WebResponse, geode::utils::web::WebProgress>::setListener(geode::EventListenerProtocol*)::{lambda()#2}, std::__ndk1::allocator<geode::Task<geode::utils::web::WebResponse, geode::utils::web::WebProgress>::setListener(geode::EventListenerProtocol*)::{lambda()#2}>, void ()>::destroy_deallocate()
PUBLIC b134 0 std::__ndk1::__function::__func<geode::Task<geode::utils::web::WebResponse, geode::utils::web::WebProgress>::setListener(geode::EventListenerProtocol*)::{lambda()#2}, std::__ndk1::allocator<geode::Task<geode::utils::web::WebResponse, geode::utils::web::WebProgress>::setListener(geode::EventListenerProtocol*)::{lambda()#2}>, void ()>::operator()()
PUBLIC b2f8 0 std::__ndk1::__function::__func<geode::Task<geode::utils::web::WebResponse, geode::utils::web::WebProgress>::setListener(geode::EventListenerProtocol*)::{lambda()#2}, std::__ndk1::allocator<geode::Task<geode::utils::web::WebResponse, geode::utils::web::WebProgress>::setListener(geode::EventListenerProtocol*)::{lambda()#2}>, void ()>::target(std::type_info const&) const
PUBLIC b314 0 std::__ndk1::__function::__func<geode::Task<geode::utils::web::WebResponse, geode::utils::web::WebProgress>::setListener(geode::EventListenerProtocol*)::{lambda()#2}, std::__ndk1::allocator<geode::Task<geode::utils::web::WebResponse, geode::utils::web::WebProgress>::setListener(geode::EventListenerProtocol*)::{lambda()#2}>, void ()>::target_type() const
PUBLIC b320 0 std::__ndk1::__function::__func<getRequest(cocos2d::CCLayer*, GJGameLevel*, cocos2d::CCLabelBMFont*, bool, bool)::$_0, std::__ndk1::allocator<getRequest(cocos2d::CCLayer*, GJGameLevel*, cocos2d::CCLabelBMFont*, bool, bool)::$_0>, void (geode::Task<geode::utils::web::WebResponse, geode::utils::web::WebProgress>::Event*)>::~__func()
PUBLIC b340 0 std::__ndk1::__function::__func<getRequest(cocos2d::CCLayer*, GJGameLevel*, cocos2d::CCLabelBMFont*, bool, bool)::$_0, std::__ndk1::allocator<getRequest(cocos2d::CCLayer*, GJGameLevel*, cocos2d::CCLabelBMFont*, bool, bool)::$_0>, void (geode::Task<geode::utils::web::WebResponse, geode::utils::web::WebProgress>::Event*)>::~__func()
PUBLIC b380 0 std::__ndk1::__function::__func<getRequest(cocos2d::CCLayer*, GJGameLevel*, cocos2d::CCLabelBMFont*, bool, bool)::$_0, std::__ndk1::allocator<getRequest(cocos2d::CCLayer*, GJGameLevel*, cocos2d::CCLabelBMFont*, bool, bool)::$_0>, void (geode::Task<geode::utils::web::WebResponse, geode::utils::web::WebProgress>::Event*)>::__clone() const
PUBLIC b42c 0 std::__ndk1::__function::__func<getRequest(cocos2d::CCLayer*, GJGameLevel*, cocos2d::CCLabelBMFont*, bool, bool)::$_0, std::__ndk1::allocator<getRequest(cocos2d::CCLayer*, GJGameLevel*, cocos2d::CCLabelBMFont*, bool, bool)::$_0>, void (geode::Task<geode::utils::web::WebResponse, geode::utils::web::WebProgress>::Event*)>::__clone(std::__ndk1::__function::__base<void (geode::Task<geode::utils::web::WebResponse, geode::utils::web::WebProgress>::Event*)>*) const
PUBLIC b4b4 0 std::__ndk1::__function::__func<getRequest(cocos2d::CCLayer*, GJGameLevel*, cocos2d::CCLabelBMFont*, bool, bool)::$_0, std::__ndk1::allocator<getRequest(cocos2d::CCLayer*, GJGameLevel*, cocos2d::CCLabelBMFont*, bool, bool)::$_0>, void (geode::Task<geode::utils::web::WebResponse, geode::utils::web::WebProgress>::Event*)>::destroy()
PUBLIC b4c8 0 std::__ndk1::__function::__func<getRequest(cocos2d::CCLayer*, GJGameLevel*, cocos2d::CCLabelBMFont*, bool, bool)::$_0, std::__ndk1::allocator<getRequest(cocos2d::CCLayer*, GJGameLevel*, cocos2d::CCLabelBMFont*, bool, bool)::$_0>, void (geode::Task<geode::utils::web::WebResponse, geode::utils::web::WebProgress>::Event*)>::destroy_deallocate()
PUBLIC b4fc 0 std::__ndk1::__function::__func<getRequest(cocos2d::CCLayer*, GJGameLevel*, cocos2d::CCLabelBMFont*, bool, bool)::$_0, std::__ndk1::allocator<getRequest(cocos2d::CCLayer*, GJGameLevel*, cocos2d::CCLabelBMFont*, bool, bool)::$_0>, void (geode::Task<geode::utils::web::WebResponse, geode::utils::web::WebProgress>::Event*)>::operator()(geode::Task<geode::utils::web::WebResponse, geode::utils::web::WebProgress>::Event*&&)
PUBLIC c440 0 std::__ndk1::__function::__func<getRequest(cocos2d::CCLayer*, GJGameLevel*, cocos2d::CCLabelBMFont*, bool, bool)::$_0, std::__ndk1::allocator<getRequest(cocos2d::CCLayer*, GJGameLevel*, cocos2d::CCLabelBMFont*, bool, bool)::$_0>, void (geode::Task<geode::utils::web::WebResponse, geode::utils::web::WebProgress>::Event*)>::target(std::type_info const&) const
PUBLIC c45c 0 std::__ndk1::__function::__func<getRequest(cocos2d::CCLayer*, GJGameLevel*, cocos2d::CCLabelBMFont*, bool, bool)::$_0, std::__ndk1::allocator<getRequest(cocos2d::CCLayer*, GJGameLevel*, cocos2d::CCLabelBMFont*, bool, bool)::$_0>, void (geode::Task<geode::utils::web::WebResponse, geode::utils::web::WebProgress>::Event*)>::target_type() const
PUBLIC c468 0 geode::impl::ResultData<std::__ndk1::basic_string<char, std::__ndk1::char_traits<char>, std::__ndk1::allocator<char> >, std::__ndk1::basic_string<char, std::__ndk1::char_traits<char>, std::__ndk1::allocator<char> > >::~ResultData()
PUBLIC c4dc 0 geode::impl::ResultData<long, std::__ndk1::basic_string<char, std::__ndk1::char_traits<char>, std::__ndk1::allocator<char> > >::~ResultData()
PUBLIC c550 0 geode::impl::ResultData<matjson::Value, matjson::ParseError>::~ResultData()
PUBLIC c5c4 0 std::__ndk1::__throw_bad_variant_access[abi:ne180000]()
PUBLIC c5f8 0 _ZN5geode15UnwrapExceptionC2IRNSt6__ndk112basic_stringIcNS2_11char_traitsIcEENS2_9allocatorIcEEEEQsr4implE18IsStringStreamableIT_EEENS_4impl6ErrTagEOSA_
PUBLIC c760 0 std::__ndk1::basic_stringstream<char, std::__ndk1::char_traits<char>, std::__ndk1::allocator<char> >::basic_stringstream[abi:ne180000]()
PUBLIC m c88c 0 std::__ndk1::basic_stringstream<char, std::__ndk1::char_traits<char>, std::__ndk1::allocator<char> >::~basic_stringstream()
PUBLIC c90c 0 geode::UnwrapException::~UnwrapException()
PUBLIC c930 0 std::__ndk1::__put_character_sequence[abi:ne180000]<char, std::__ndk1::char_traits<char> >(std::__ndk1::basic_ostream<char, std::__ndk1::char_traits<char> >, std::__ndk1::basic_ostream const*, unsigned long)
PUBLIC cad4 0 std::__ndk1::__pad_and_output[abi:ne180000]<char, std::__ndk1::char_traits<char> >(std::__ndk1::char_traits<char>, std::__ndk1::ostreambuf_iterator const*, std::__ndk1::ostreambuf_iterator const, std::__ndk1::ostreambuf_iterator const, std::__ndk1::ios_base&, std::__ndk1::ostreambuf_iterator)
PUBLIC ccb0 0 std::__ndk1::basic_stringbuf<char, std::__ndk1::char_traits<char>, std::__ndk1::allocator<char> >::str[abi:ne180000]() &&
PUBLIC ce28 0 std::__ndk1::basic_stringbuf<char, std::__ndk1::char_traits<char>, std::__ndk1::allocator<char> >::__init_buf_ptrs[abi:ne180000]()
PUBLIC cf70 0 std::__ndk1::__variant_detail::__visitation::__base::__dispatcher<(unsigned long)0>::__dispatch[abi:ne180000]<std::__ndk1::__variant_detail::__dtor<std::__ndk1::__variant_detail::__traits<std::__ndk1::basic_string<char, std::__ndk1::char_traits<char>, std::__ndk1::allocator<char> >, std::__ndk1::allocator<char> >, (std::__ndk1::__variant_detail::_Trait)1>::__destroy[abi:ne180000]()::{lambda(auto:1&)#1}, std::__ndk1::__variant_detail::__base<(std::__ndk1::__variant_detail::__traits<std::__ndk1::basic_string<char, std::__ndk1::char_traits<char>, std::__ndk1::allocator<char> >, std::__ndk1::allocator<char> >)1, std::__ndk1::allocator<char>, std::__ndk1::allocator<char> >&>(std::__ndk1::__variant_detail::__dtor<std::__ndk1::__variant_detail::__traits<std::__ndk1::basic_string<char, std::__ndk1::char_traits<char>, std::__ndk1::allocator<char> >, std::__ndk1::allocator<char> >, (std::__ndk1::__variant_detail::_Trait)1>, std::__ndk1::__variant_detail::__base<(std::__ndk1::__variant_detail::__traits<std::__ndk1::basic_string<char, std::__ndk1::char_traits<char>, std::__ndk1::allocator<char> >, std::__ndk1::allocator<char> >)1, std::__ndk1::allocator<char>, std::__ndk1::allocator<char> >&)
PUBLIC cf84 0 std::__ndk1::__variant_detail::__visitation::__base::__dispatcher<(unsigned long)1>::__dispatch[abi:ne180000]<std::__ndk1::__variant_detail::__dtor<std::__ndk1::__variant_detail::__traits<std::__ndk1::basic_string<char, std::__ndk1::char_traits<char>, std::__ndk1::allocator<char> >, std::__ndk1::allocator<char> >, (std::__ndk1::__variant_detail::_Trait)1>::__destroy[abi:ne180000]()::{lambda(auto:1&)#1}, std::__ndk1::__variant_detail::__base<(std::__ndk1::__variant_detail::__traits<std::__ndk1::basic_string<char, std::__ndk1::char_traits<char>, std::__ndk1::allocator<char> >, std::__ndk1::allocator<char> >)1, std::__ndk1::allocator<char>, std::__ndk1::allocator<char> >&>(std::__ndk1::__variant_detail::__dtor<std::__ndk1::__variant_detail::__traits<std::__ndk1::basic_string<char, std::__ndk1::char_traits<char>, std::__ndk1::allocator<char> >, std::__ndk1::allocator<char> >, (std::__ndk1::__variant_detail::_Trait)1>, std::__ndk1::__variant_detail::__base<(std::__ndk1::__variant_detail::__traits<std::__ndk1::basic_string<char, std::__ndk1::char_traits<char>, std::__ndk1::allocator<char> >, std::__ndk1::allocator<char> >)1, std::__ndk1::allocator<char>, std::__ndk1::allocator<char> >&)
PUBLIC cf98 0 std::__ndk1::basic_string<char, std::__ndk1::char_traits<char>, std::__ndk1::allocator<char> >::__assign_no_alias<true>(char const*, unsigned long)
PUBLIC d044 0 fmt::v11::detail::value<fmt::v11::context>::format_custom_arg<matjson::ParseError, fmt::v11::formatter<matjson::ParseError, char, void> >(void*, fmt::v11::basic_format_parse_context<char>&, fmt::v11::context&)
PUBLIC d4e8 0 fmt::v11::detail::parse_format_specs<char>(char const*, char const*, fmt::v11::detail::dynamic_format_specs<char>&, fmt::v11::basic_format_parse_context<char>&, fmt::v11::detail::type)
PUBLIC d99c 0 fmt::v11::detail::parse_dynamic_spec<char>(char const*, char const*, int&, fmt::v11::detail::arg_ref<char>&, fmt::v11::basic_format_parse_context<char>&)
PUBLIC db40 0 fmt::v11::detail::do_parse_arg_id<char, fmt::v11::detail::dynamic_spec_id_handler<char>&>(char const*, char const*, fmt::v11::detail::dynamic_spec_id_handler<char>&)
PUBLIC dcd4 0 fmt::v11::detail::handle_dynamic_spec<fmt::v11::detail::width_checker, fmt::v11::context>(int&, fmt::v11::detail::arg_ref<fmt::v11::context::char_type>, fmt::v11::context&)
PUBLIC dde8 0 fmt::v11::detail::handle_dynamic_spec<fmt::v11::detail::precision_checker, fmt::v11::context>(int&, fmt::v11::detail::arg_ref<fmt::v11::context::char_type>, fmt::v11::context&)
PUBLIC defc 0 fmt::v11::detail::write<char, fmt::v11::basic_appender<char> >(fmt::v11::basic_appender<char>, fmt::v11::basic_string_view<char>, fmt::v11::format_specs const&)
PUBLIC e178 0 fmt::v11::detail::write_escaped_string<char, fmt::v11::detail::counting_iterator>(fmt::v11::detail::counting_iterator, fmt::v11::basic_string_view<char>)
PUBLIC e698 0 fmt::v11::detail::write_padded<char, (fmt::v11::align::type)1, fmt::v11::basic_appender<char>, fmt::v11::detail::write<char, fmt::v11::basic_appender<char> >(fmt::v11::basic_appender<char>, fmt::v11::basic_string_view<char>, fmt::v11::format_specs const&)::{lambda(fmt::v11::basic_appender<char>)#1}>(fmt::v11::basic_appender<char>, fmt::v11::format_specs const&, unsigned long, unsigned long, fmt::v11::detail::write<char, fmt::v11::basic_appender<char> >(fmt::v11::basic_appender<char>, fmt::v11::basic_string_view<char>, fmt::v11::format_specs const&)::{lambda(fmt::v11::basic_appender<char>&&)#1})
PUBLIC e8a4 0 fmt::v11::detail::for_each_codepoint<fmt::v11::detail::code_point_index(fmt::v11::basic_string_view<char>, unsigned long)::{lambda(unsigned int, fmt::v11::basic_string_view<char>)#1}>(fmt::v11::basic_string_view<char>, fmt::v11::detail::code_point_index(fmt::v11::basic_string_view<char>, unsigned long)::{lambda(unsigned int, fmt::v11::basic_string_view<char>)#1})
PUBLIC eccc 0 fmt::v11::detail::write_escaped_cp<fmt::v11::detail::counting_iterator, char>(fmt::v11::detail::counting_iterator, fmt::v11::detail::find_escape_result<char> const&)
PUBLIC ee60 0 fmt::v11::detail::for_each_codepoint<fmt::v11::detail::compute_width(fmt::v11::basic_string_view<char>)::count_code_points>(fmt::v11::basic_string_view<char>, fmt::v11::detail::compute_width(fmt::v11::basic_string_view<char>)::count_code_points)::{lambda(char const*, char const*)#1}::operator()(char const*, char const*) const
PUBLIC f018 0 fmt::v11::detail::fill<char, fmt::v11::basic_appender<char> >(fmt::v11::basic_appender<char>, unsigned long, fmt::v11::detail::fill_t const&)
PUBLIC f1e8 0 fmt::v11::detail::write_escaped_string<char, fmt::v11::basic_appender<char> >(fmt::v11::basic_appender<char>, fmt::v11::basic_string_view<char>)
PUBLIC f864 0 fmt::v11::detail::write_escaped_cp<fmt::v11::basic_appender<char>, char>(fmt::v11::basic_appender<char>, fmt::v11::detail::find_escape_result<char> const&)
PUBLIC fa48 0 fmt::v11::detail::write_codepoint<(unsigned long)2, char, fmt::v11::basic_appender<char> >(fmt::v11::basic_appender<char>, char, unsigned int)
PUBLIC fbc0 0 fmt::v11::detail::write_codepoint<(unsigned long)4, char, fmt::v11::basic_appender<char> >(fmt::v11::basic_appender<char>, char, unsigned int)
PUBLIC fd38 0 fmt::v11::detail::write_codepoint<(unsigned long)8, char, fmt::v11::basic_appender<char> >(fmt::v11::basic_appender<char>, char, unsigned int)
PUBLIC feb0 0 fmt::v11::detail::get_dynamic_spec<fmt::v11::detail::width_checker, fmt::v11::basic_format_arg<fmt::v11::context> >(fmt::v11::basic_format_arg<fmt::v11::context>)
PUBLIC ff44 0 fmt::v11::basic_format_args<fmt::v11::context>::get<char>(fmt::v11::basic_string_view<char>) const
PUBLIC 1009c 0 fmt::v11::detail::get_dynamic_spec<fmt::v11::detail::precision_checker, fmt::v11::basic_format_arg<fmt::v11::context> >(fmt::v11::basic_format_arg<fmt::v11::context>)
PUBLIC 10130 0 std::__ndk1::__hash_table<std::__ndk1::__hash_value_type<int, int>, std::__ndk1::__unordered_map_hasher<int, std::__ndk1::__hash_value_type<int, int>, std::__ndk1::hash<int>, std::__ndk1::equal_to<int>, true>, std::__ndk1::__unordered_map_equal<int, std::__ndk1::__hash_value_type<int, int>, std::__ndk1::equal_to<int>, std::__ndk1::hash<int>, true>, std::__ndk1::allocator<std::__ndk1::__hash_value_type<int, int> > >::__emplace_unique_key_args<int, std::__ndk1::pair<int const, int> >(int const&, std::__ndk1::pair<int const, int>&&)
PUBLIC 10430 0 std::__ndk1::__hash_table<std::__ndk1::__hash_value_type<int, int>, std::__ndk1::__unordered_map_hasher<int, std::__ndk1::__hash_value_type<int, int>, std::__ndk1::hash<int>, std::__ndk1::equal_to<int>, true>, std::__ndk1::__unordered_map_equal<int, std::__ndk1::__hash_value_type<int, int>, std::__ndk1::equal_to<int>, std::__ndk1::hash<int>, true>, std::__ndk1::allocator<std::__ndk1::__hash_value_type<int, int> > >::__do_rehash<true>(unsigned long)
PUBLIC 105f8 0 cocos2d::CCCopying::copyWithZone(cocos2d::CCZone*)
PUBLIC 10600 0 cocos2d::CCInteger::~CCInteger()
PUBLIC 10624 0 cocos2d::CCInteger::acceptVisitor(cocos2d::CCDataVisitor&)
PUBLIC 1063c 0 cocos2d::CCObject::update(float)
PUBLIC 10640 0 cocos2d::CCBool::~CCBool()
PUBLIC 10664 0 cocos2d::CCBool::acceptVisitor(cocos2d::CCDataVisitor&)
PUBLIC 1067c 0 std::__ndk1::__variant_detail::__visitation::__base::__dispatcher<(unsigned long)0>::__dispatch[abi:ne180000]<std::__ndk1::__variant_detail::__dtor<std::__ndk1::__variant_detail::__traits<long, std::__ndk1::basic_string<char, std::__ndk1::char_traits<char>, std::__ndk1::allocator<char> > >, (std::__ndk1::__variant_detail::_Trait)1>::__destroy[abi:ne180000]()::{lambda(auto:1&)#1}, std::__ndk1::__variant_detail::__base<(std::__ndk1::__variant_detail::__traits<long, std::__ndk1::basic_string<char, std::__ndk1::char_traits<char>, std::__ndk1::allocator<char> > >)1, long, std::__ndk1::allocator<char> >&>(std::__ndk1::__variant_detail::__dtor<std::__ndk1::__variant_detail::__traits<long, std::__ndk1::basic_string<char, std::__ndk1::char_traits<char>, std::__ndk1::allocator<char> > >, (std::__ndk1::__variant_detail::_Trait)1>, std::__ndk1::__variant_detail::__base<(std::__ndk1::__variant_detail::__traits<long, std::__ndk1::basic_string<char, std::__ndk1::char_traits<char>, std::__ndk1::allocator<char> > >)1, long, std::__ndk1::allocator<char> >&)
PUBLIC 10680 0 std::__ndk1::__variant_detail::__visitation::__base::__dispatcher<(unsigned long)1>::__dispatch[abi:ne180000]<std::__ndk1::__variant_detail::__dtor<std::__ndk1::__variant_detail::__traits<long, std::__ndk1::basic_string<char, std::__ndk1::char_traits<char>, std::__ndk1::allocator<char> > >, (std::__ndk1::__variant_detail::_Trait)1>::__destroy[abi:ne180000]()::{lambda(auto:1&)#1}, std::__ndk1::__variant_detail::__base<(std::__ndk1::__variant_detail::__traits<long, std::__ndk1::basic_string<char, std::__ndk1::char_traits<char>, std::__ndk1::allocator<char> > >)1, long, std::__ndk1::allocator<char> >&>(std::__ndk1::__variant_detail::__dtor<std::__ndk1::__variant_detail::__traits<long, std::__ndk1::basic_string<char, std::__ndk1::char_traits<char>, std::__ndk1::allocator<char> > >, (std::__ndk1::__variant_detail::_Trait)1>, std::__ndk1::__variant_detail::__base<(std::__ndk1::__variant_detail::__traits<long, std::__ndk1::basic_string<char, std::__ndk1::char_traits<char>, std::__ndk1::allocator<char> > >)1, long, std::__ndk1::allocator<char> >&)
PUBLIC 10694 0 std::__ndk1::__variant_detail::__visitation::__base::__dispatcher<(unsigned long)0>::__dispatch[abi:ne180000]<std::__ndk1::__variant_detail::__dtor<std::__ndk1::__variant_detail::__traits<matjson::Value, std::__ndk1::__variant_detail::__traits::ParseError>, (std::__ndk1::__variant_detail::_Trait)1>::__destroy[abi:ne180000]()::{lambda(auto:1&)#1}, std::__ndk1::__variant_detail::__base<(std::__ndk1::__variant_detail::__traits<matjson::Value, std::__ndk1::__variant_detail::__traits::ParseError>)1, matjson, matjson::Value>&>(std::__ndk1::__variant_detail::__dtor<std::__ndk1::__variant_detail::__traits<matjson::Value, std::__ndk1::__variant_detail::__traits::ParseError>, (std::__ndk1::__variant_detail::_Trait)1>, std::__ndk1::__variant_detail::__base<(std::__ndk1::__variant_detail::__traits<matjson::Value, std::__ndk1::__variant_detail::__traits::ParseError>)1, matjson, matjson::Value>&)
PUBLIC 1069c 0 std::__ndk1::__variant_detail::__visitation::__base::__dispatcher<(unsigned long)1>::__dispatch[abi:ne180000]<std::__ndk1::__variant_detail::__dtor<std::__ndk1::__variant_detail::__traits<matjson::Value, std::__ndk1::__variant_detail::__traits::ParseError>, (std::__ndk1::__variant_detail::_Trait)1>::__destroy[abi:ne180000]()::{lambda(auto:1&)#1}, std::__ndk1::__variant_detail::__base<(std::__ndk1::__variant_detail::__traits<matjson::Value, std::__ndk1::__variant_detail::__traits::ParseError>)1, matjson, matjson::Value>&>(std::__ndk1::__variant_detail::__dtor<std::__ndk1::__variant_detail::__traits<matjson::Value, std::__ndk1::__variant_detail::__traits::ParseError>, (std::__ndk1::__variant_detail::_Trait)1>, std::__ndk1::__variant_detail::__base<(std::__ndk1::__variant_detail::__traits<matjson::Value, std::__ndk1::__variant_detail::__traits::ParseError>)1, matjson, matjson::Value>&)
PUBLIC 106b0 0 geode::modifier::ModifyDerive<hook185<(anonymous namespace)::hook185Parent>, LevelInfoLayer>::apply()
PUBLIC 10a4c 0 std::__ndk1::shared_ptr<geode::Hook>::~shared_ptr[abi:ne180000]()
PUBLIC 10a9c 0 geode::impl::ResultData<geode::Hook*, std::__ndk1::basic_string<char, std::__ndk1::char_traits<char>, std::__ndk1::allocator<char> > >::~ResultData()
PUBLIC 10b10 0 std::__ndk1::vector<std::__ndk1::basic_string<char, std::__ndk1::char_traits<char>, std::__ndk1::allocator<char> >, std::__ndk1::allocator<std::__ndk1::basic_string<char, std::__ndk1::char_traits<char>, std::__ndk1::allocator<char> > > >::~vector[abi:ne180000]()
PUBLIC 10b8c 0 geode::modifier::ModifyBase<geode::modifier::ModifyDerive<hook185<(anonymous namespace)::hook185Parent>, LevelInfoLayer> >::apply()
PUBLIC 10b90 0 _ZN5geode15UnwrapExceptionC2IRPNS_4HookEQsr4implE18IsStringStreamableIT_EEENS_4impl5OkTagEOS5_
PUBLIC 10ce4 0 std::__ndk1::vector<std::__ndk1::basic_string<char, std::__ndk1::char_traits<char>, std::__ndk1::allocator<char> >, std::__ndk1::allocator<std::__ndk1::basic_string<char, std::__ndk1::char_traits<char>, std::__ndk1::allocator<char> > > >::__push_back_slow_path<std::__ndk1::basic_string<char, std::__ndk1::char_traits<char>, std::__ndk1::allocator<char> > const&>(std::__ndk1::basic_string<char, std::__ndk1::char_traits<char>, std::__ndk1::allocator<char> > const&)
PUBLIC 10f08 0 std::__ndk1::__split_buffer<std::__ndk1::basic_string<char, std::__ndk1::char_traits<char>, std::__ndk1::allocator<char> >, std::__ndk1::allocator<std::__ndk1::basic_string<char, std::__ndk1::char_traits<char>, std::__ndk1::allocator<char> > >&>::~__split_buffer()
PUBLIC 10f70 0 std::__ndk1::vector<std::__ndk1::basic_string<char, std::__ndk1::char_traits<char>, std::__ndk1::allocator<char> >, std::__ndk1::allocator<std::__ndk1::basic_string<char, std::__ndk1::char_traits<char>, std::__ndk1::allocator<char> > > >::__throw_length_error[abi:ne180000]() const
PUBLIC 10f84 0 std::__ndk1::__variant_detail::__visitation::__base::__dispatcher<(unsigned long)0>::__dispatch[abi:ne180000]<std::__ndk1::__variant_detail::__dtor<std::__ndk1::__variant_detail::__traits<geode::Hook*, std::__ndk1::basic_string<char, std::__ndk1::char_traits<char>, std::__ndk1::allocator<char> > >, (std::__ndk1::__variant_detail::_Trait)1>::__destroy[abi:ne180000]()::{lambda(auto:1&)#1}, std::__ndk1::__variant_detail::__base<(std::__ndk1::__variant_detail::__traits<geode::Hook*, std::__ndk1::basic_string<char, std::__ndk1::char_traits<char>, std::__ndk1::allocator<char> > >)1, geode::Hook, std::__ndk1::allocator<char> >&>(std::__ndk1::__variant_detail::__dtor<std::__ndk1::__variant_detail::__traits<geode::Hook*, std::__ndk1::basic_string<char, std::__ndk1::char_traits<char>, std::__ndk1::allocator<char> > >, (std::__ndk1::__variant_detail::_Trait)1>, std::__ndk1::__variant_detail::__base<(std::__ndk1::__variant_detail::__traits<geode::Hook*, std::__ndk1::basic_string<char, std::__ndk1::char_traits<char>, std::__ndk1::allocator<char> > >)1, geode::Hook, std::__ndk1::allocator<char> >&)
PUBLIC 10f88 0 std::__ndk1::__variant_detail::__visitation::__base::__dispatcher<(unsigned long)1>::__dispatch[abi:ne180000]<std::__ndk1::__variant_detail::__dtor<std::__ndk1::__variant_detail::__traits<geode::Hook*, std::__ndk1::basic_string<char, std::__ndk1::char_traits<char>, std::__ndk1::allocator<char> > >, (std::__ndk1::__variant_detail::_Trait)1>::__destroy[abi:ne180000]()::{lambda(auto:1&)#1}, std::__ndk1::__variant_detail::__base<(std::__ndk1::__variant_detail::__traits<geode::Hook*, std::__ndk1::basic_string<char, std::__ndk1::char_traits<char>, std::__ndk1::allocator<char> > >)1, geode::Hook, std::__ndk1::allocator<char> >&>(std::__ndk1::__variant_detail::__dtor<std::__ndk1::__variant_detail::__traits<geode::Hook*, std::__ndk1::basic_string<char, std::__ndk1::char_traits<char>, std::__ndk1::allocator<char> > >, (std::__ndk1::__variant_detail::_Trait)1>, std::__ndk1::__variant_detail::__base<(std::__ndk1::__variant_detail::__traits<geode::Hook*, std::__ndk1::basic_string<char, std::__ndk1::char_traits<char>, std::__ndk1::allocator<char> > >)1, geode::Hook, std::__ndk1::allocator<char> >&)
PUBLIC 10f9c 0 std::__ndk1::__tree<std::__ndk1::__value_type<std::__ndk1::basic_string<char, std::__ndk1::char_traits<char>, std::__ndk1::allocator<char> >, std::__ndk1::shared_ptr<geode::Hook> >, std::__ndk1::__map_value_compare<std::__ndk1::basic_string<char, std::__ndk1::char_traits<char>, std::__ndk1::allocator<char> >, std::__ndk1::__value_type<std::__ndk1::basic_string<char, std::__ndk1::char_traits<char>, std::__ndk1::allocator<char> >, std::__ndk1::shared_ptr<geode::Hook> >, std::__ndk1::less<std::__ndk1::basic_string<char, std::__ndk1::char_traits<char>, std::__ndk1::allocator<char> > >, true>, std::__ndk1::allocator<std::__ndk1::__value_type<std::__ndk1::basic_string<char, std::__ndk1::char_traits<char>, std::__ndk1::allocator<char> >, std::__ndk1::shared_ptr<geode::Hook> > > >::find<std::__ndk1::basic_string<char, std::__ndk1::char_traits<char>, std::__ndk1::allocator<char> > >(std::__ndk1::basic_string<char, std::__ndk1::char_traits<char>, std::__ndk1::allocator<char> > const&)
PUBLIC 110bc 0 std::__ndk1::__tree<std::__ndk1::__value_type<std::__ndk1::basic_string<char, std::__ndk1::char_traits<char>, std::__ndk1::allocator<char> >, std::__ndk1::shared_ptr<geode::Hook> >, std::__ndk1::__map_value_compare<std::__ndk1::basic_string<char, std::__ndk1::char_traits<char>, std::__ndk1::allocator<char> >, std::__ndk1::__value_type<std::__ndk1::basic_string<char, std::__ndk1::char_traits<char>, std::__ndk1::allocator<char> >, std::__ndk1::shared_ptr<geode::Hook> >, std::__ndk1::less<std::__ndk1::basic_string<char, std::__ndk1::char_traits<char>, std::__ndk1::allocator<char> > >, true>, std::__ndk1::allocator<std::__ndk1::__value_type<std::__ndk1::basic_string<char, std::__ndk1::char_traits<char>, std::__ndk1::allocator<char> >, std::__ndk1::shared_ptr<geode::Hook> > > >::erase(std::__ndk1::__tree_const_iterator<std::__ndk1::__value_type<std::__ndk1::basic_string<char, std::__ndk1::char_traits<char>, std::__ndk1::allocator<char> >, std::__ndk1::shared_ptr<geode::Hook> >, std::__ndk1::__tree_node<std::__ndk1::__value_type<std::__ndk1::basic_string<char, std::__ndk1::char_traits<char>, std::__ndk1::allocator<char> >, std::__ndk1::shared_ptr<geode::Hook> >, void*>*, long>)
PUBLIC 11560 0 std::__ndk1::__tree<std::__ndk1::__value_type<std::__ndk1::basic_string<char, std::__ndk1::char_traits<char>, std::__ndk1::allocator<char> >, std::__ndk1::shared_ptr<geode::Hook> >, std::__ndk1::__map_value_compare<std::__ndk1::basic_string<char, std::__ndk1::char_traits<char>, std::__ndk1::allocator<char> >, std::__ndk1::__value_type<std::__ndk1::basic_string<char, std::__ndk1::char_traits<char>, std::__ndk1::allocator<char> >, std::__ndk1::shared_ptr<geode::Hook> >, std::__ndk1::less<std::__ndk1::basic_string<char, std::__ndk1::char_traits<char>, std::__ndk1::allocator<char> > >, true>, std::__ndk1::allocator<std::__ndk1::__value_type<std::__ndk1::basic_string<char, std::__ndk1::char_traits<char>, std::__ndk1::allocator<char> >, std::__ndk1::shared_ptr<geode::Hook> > > >::destroy(std::__ndk1::__tree_node<std::__ndk1::__value_type<std::__ndk1::basic_string<char, std::__ndk1::char_traits<char>, std::__ndk1::allocator<char> >, std::__ndk1::shared_ptr<geode::Hook> >, void*>*)
PUBLIC 115e4 0 geode::modifier::AsStaticFunction_init<hook185<(anonymous namespace)::hook185Parent>, bool (hook185<(anonymous namespace)::hook185Parent>::*)(GJGameLevel*, bool)>::Impl<bool (hook185<(anonymous namespace)::hook185Parent>::*)(GJGameLevel*, bool)>::function(hook185<(anonymous namespace)::hook185Parent>*, GJGameLevel*, bool)
PUBLIC 12544 0 std::__ndk1::shared_ptr<tulip::hook::CallingConvention>::~shared_ptr[abi:ne180000]()
PUBLIC 12594 0 tulip::hook::HandlerMetadata::~HandlerMetadata()
PUBLIC 125f8 0 std::__ndk1::__hash_table<std::__ndk1::__hash_value_type<int, int>, std::__ndk1::__unordered_map_hasher<int, std::__ndk1::__hash_value_type<int, int>, std::__ndk1::hash<int>, std::__ndk1::equal_to<int>, true>, std::__ndk1::__unordered_map_equal<int, std::__ndk1::__hash_value_type<int, int>, std::__ndk1::equal_to<int>, std::__ndk1::hash<int>, true>, std::__ndk1::allocator<std::__ndk1::__hash_value_type<int, int> > >::__emplace_unique_key_args<int, std::__ndk1::piecewise_construct_t const&, std::__ndk1::tuple<int&&>, std::__ndk1::tuple<> >(int const&, std::__ndk1::piecewise_construct_t const&, std::__ndk1::tuple<int&&>, std::__ndk1::tuple<>)
PUBLIC 12900 0 std::__ndk1::__tree<std::__ndk1::__value_type<std::__ndk1::basic_string<char, std::__ndk1::char_traits<char>, std::__ndk1::allocator<char> >, std::__ndk1::shared_ptr<geode::Hook> >, std::__ndk1::__map_value_compare<std::__ndk1::basic_string<char, std::__ndk1::char_traits<char>, std::__ndk1::allocator<char> >, std::__ndk1::__value_type<std::__ndk1::basic_string<char, std::__ndk1::char_traits<char>, std::__ndk1::allocator<char> >, std::__ndk1::shared_ptr<geode::Hook> >, std::__ndk1::less<std::__ndk1::basic_string<char, std::__ndk1::char_traits<char>, std::__ndk1::allocator<char> > >, true>, std::__ndk1::allocator<std::__ndk1::__value_type<std::__ndk1::basic_string<char, std::__ndk1::char_traits<char>, std::__ndk1::allocator<char> >, std::__ndk1::shared_ptr<geode::Hook> > > >::__emplace_unique_key_args<std::__ndk1::basic_string<char, std::__ndk1::char_traits<char>, std::__ndk1::allocator<char> >, std::__ndk1::piecewise_construct_t const&, std::__ndk1::tuple<std::__ndk1::basic_string<char, std::__ndk1::char_traits<char>, std::__ndk1::allocator<char> >&&>, std::__ndk1::tuple<> >(std::__ndk1::basic_string<char, std::__ndk1::char_traits<char>, std::__ndk1::allocator<char> > const&, std::__ndk1::piecewise_construct_t const&, std::__ndk1::tuple<std::__ndk1::basic_string<char, std::__ndk1::char_traits<char>, std::__ndk1::allocator<char> >&&>, std::__ndk1::tuple<>)
PUBLIC 12a68 0 std::__ndk1::__tree_balance_after_insert[abi:ne180000]<std::__ndk1::__tree_node_base<void*>*>(std::__ndk1::__tree_node_base<void*>*, std::__ndk1::__tree_node_base<void*>*)
PUBLIC 12c18 0 geode::modifier::ModifyDerive<hook242<(anonymous namespace)::hook242Parent>, MenuLayer>::apply()
PUBLIC 12f0c 0 geode::modifier::ModifyBase<geode::modifier::ModifyDerive<hook242<(anonymous namespace)::hook242Parent>, MenuLayer> >::apply()
PUBLIC 12f10 0 geode::modifier::AsStaticFunction_init<hook242<(anonymous namespace)::hook242Parent>, bool (hook242<(anonymous namespace)::hook242Parent>::*)()>::Impl<bool (hook242<(anonymous namespace)::hook242Parent>::*)()>::function(hook242<(anonymous namespace)::hook242Parent>*)
PUBLIC 131bc 0 geode::addresser::Addresser::addressOfVirtual<bool, MenuLayer, >(bool (MenuLayer::*)())
PUBLIC 13264 0 MenuLayer::MenuLayer(geode::ZeroConstructorType)
PUBLIC 13300 0 std::__ndk1::shared_ptr<geode::BoolSettingV3>::~shared_ptr[abi:ne180000]()
PUBLIC 13350 0 std::__ndk1::__variant_detail::__visitation::__base::__dispatcher<(unsigned long)0>::__dispatch[abi:ne180000]<std::__ndk1::__variant_detail::__dtor<std::__ndk1::__variant_detail::__traits<std::__ndk1::monostate, std::__ndk1::basic_string<char, std::__ndk1::char_traits<char>, std::__ndk1::allocator<char> > >, (std::__ndk1::__variant_detail::_Trait)1>::__destroy[abi:ne180000]()::{lambda(auto:1&)#1}, std::__ndk1::__variant_detail::__base<(std::__ndk1::__variant_detail::__traits<std::__ndk1::monostate, std::__ndk1::basic_string<char, std::__ndk1::char_traits<char>, std::__ndk1::allocator<char> > >)1, std::__ndk1::__variant_detail::__traits, std::__ndk1::allocator<char> >&>(std::__ndk1::__variant_detail::__dtor<std::__ndk1::__variant_detail::__traits<std::__ndk1::monostate, std::__ndk1::basic_string<char, std::__ndk1::char_traits<char>, std::__ndk1::allocator<char> > >, (std::__ndk1::__variant_detail::_Trait)1>, std::__ndk1::__variant_detail::__base<(std::__ndk1::__variant_detail::__traits<std::__ndk1::monostate, std::__ndk1::basic_string<char, std::__ndk1::char_traits<char>, std::__ndk1::allocator<char> > >)1, std::__ndk1::__variant_detail::__traits, std::__ndk1::allocator<char> >&)
PUBLIC 13354 0 std::__ndk1::__variant_detail::__visitation::__base::__dispatcher<(unsigned long)1>::__dispatch[abi:ne180000]<std::__ndk1::__variant_detail::__dtor<std::__ndk1::__variant_detail::__traits<std::__ndk1::monostate, std::__ndk1::basic_string<char, std::__ndk1::char_traits<char>, std::__ndk1::allocator<char> > >, (std::__ndk1::__variant_detail::_Trait)1>::__destroy[abi:ne180000]()::{lambda(auto:1&)#1}, std::__ndk1::__variant_detail::__base<(std::__ndk1::__variant_detail::__traits<std::__ndk1::monostate, std::__ndk1::basic_string<char, std::__ndk1::char_traits<char>, std::__ndk1::allocator<char> > >)1, std::__ndk1::__variant_detail::__traits, std::__ndk1::allocator<char> >&>(std::__ndk1::__variant_detail::__dtor<std::__ndk1::__variant_detail::__traits<std::__ndk1::monostate, std::__ndk1::basic_string<char, std::__ndk1::char_traits<char>, std::__ndk1::allocator<char> > >, (std::__ndk1::__variant_detail::_Trait)1>, std::__ndk1::__variant_detail::__base<(std::__ndk1::__variant_detail::__traits<std::__ndk1::monostate, std::__ndk1::basic_string<char, std::__ndk1::char_traits<char>, std::__ndk1::allocator<char> > >)1, std::__ndk1::__variant_detail::__traits, std::__ndk1::allocator<char> >&)
PUBLIC 13368 0 geode::getMod()
PUBLIC m 133a4 0 geodeImplicitEntry
PUBLIC 133e0 0 std::__ndk1::unordered_map<void*, bool, std::__ndk1::hash<void*>, std::__ndk1::equal_to<void*>, std::__ndk1::allocator<std::__ndk1::pair<void* const, bool> > >::~unordered_map[abi:ne180000]()
PUBLIC 1342c 0 wrapFunction(unsigned long, tulip::hook::WrapperMetadata const&)
PUBLIC 13560 0 geode::impl::ResultData<void*, std::__ndk1::basic_string<char, std::__ndk1::char_traits<char>, std::__ndk1::allocator<char> > >::unwrapErr() &
PUBLIC 135d8 0 geode::impl::ResultData<void*, std::__ndk1::basic_string<char, std::__ndk1::char_traits<char>, std::__ndk1::allocator<char> > >::~ResultData()
PUBLIC 1364c 0 tulip::hook::WrapperMetadata::~WrapperMetadata()
PUBLIC 136b0 0 cocos2d::CCObject::CCObject()
PUBLIC 138d4 0 cocos2d::CCObject::~CCObject()
PUBLIC 138f8 0 cocos2d::CCDictionary::setObject(cocos2d::CCObject*, gd::string const&)
PUBLIC 13a58 0 tulip::hook::AbstractFunction::from<void, cocos2d::CCDictionary*, cocos2d::CCObject*, gd::string const&>(void (*)(cocos2d::CCDictionary*, cocos2d::CCObject*, gd::string const&))
PUBLIC 13b58 0 cocos2d::CCDictionary::objectForKey(gd::string const&)
PUBLIC 13ca8 0 tulip::hook::AbstractFunction::from<cocos2d::CCObject*, cocos2d::CCDictionary*, gd::string const&>(cocos2d::CCObject* (*)(cocos2d::CCDictionary*, gd::string const&))
PUBLIC 13d50 0 FLAlertLayer::create(FLAlertLayerProtocol*, char const*, gd::string, char const*, char const*, float)
PUBLIC 13f08 0 tulip::hook::AbstractFunction::from<FLAlertLayer*, FLAlertLayerProtocol*, char const*, gd::string, char const*, char const*, float>(FLAlertLayer* (*)(FLAlertLayerProtocol*, char const*, gd::string, char const*, char const*, float))
PUBLIC 14074 0 cocos2d::CCObject::~CCObject()
PUBLIC 14568 0 _ZN5geode15UnwrapExceptionC2IRPvQsr4implE18IsStringStreamableIT_EEENS_4impl5OkTagEOS4_
PUBLIC 146bc 0 std::__ndk1::__variant_detail::__visitation::__base::__dispatcher<(unsigned long)0>::__dispatch[abi:ne180000]<std::__ndk1::__variant_detail::__dtor<std::__ndk1::__variant_detail::__traits<void*, std::__ndk1::basic_string<char, std::__ndk1::char_traits<char>, std::__ndk1::allocator<char> > >, (std::__ndk1::__variant_detail::_Trait)1>::__destroy[abi:ne180000]()::{lambda(auto:1&)#1}, std::__ndk1::__variant_detail::__base<(std::__ndk1::__variant_detail::__traits<void*, std::__ndk1::basic_string<char, std::__ndk1::char_traits<char>, std::__ndk1::allocator<char> > >)1, std::__ndk1::__variant_detail::__traits, std::__ndk1::allocator<char> >&>(std::__ndk1::__variant_detail::__dtor<std::__ndk1::__variant_detail::__traits<void*, std::__ndk1::basic_string<char, std::__ndk1::char_traits<char>, std::__ndk1::allocator<char> > >, (std::__ndk1::__variant_detail::_Trait)1>, std::__ndk1::__variant_detail::__base<(std::__ndk1::__variant_detail::__traits<void*, std::__ndk1::basic_string<char, std::__ndk1::char_traits<char>, std::__ndk1::allocator<char> > >)1, std::__ndk1::__variant_detail::__traits, std::__ndk1::allocator<char> >&)
PUBLIC 146c0 0 std::__ndk1::__variant_detail::__visitation::__base::__dispatcher<(unsigned long)1>::__dispatch[abi:ne180000]<std::__ndk1::__variant_detail::__dtor<std::__ndk1::__variant_detail::__traits<void*, std::__ndk1::basic_string<char, std::__ndk1::char_traits<char>, std::__ndk1::allocator<char> > >, (std::__ndk1::__variant_detail::_Trait)1>::__destroy[abi:ne180000]()::{lambda(auto:1&)#1}, std::__ndk1::__variant_detail::__base<(std::__ndk1::__variant_detail::__traits<void*, std::__ndk1::basic_string<char, std::__ndk1::char_traits<char>, std::__ndk1::allocator<char> > >)1, std::__ndk1::__variant_detail::__traits, std::__ndk1::allocator<char> >&>(std::__ndk1::__variant_detail::__dtor<std::__ndk1::__variant_detail::__traits<void*, std::__ndk1::basic_string<char, std::__ndk1::char_traits<char>, std::__ndk1::allocator<char> > >, (std::__ndk1::__variant_detail::_Trait)1>, std::__ndk1::__variant_detail::__base<(std::__ndk1::__variant_detail::__traits<void*, std::__ndk1::basic_string<char, std::__ndk1::char_traits<char>, std::__ndk1::allocator<char> > >)1, std::__ndk1::__variant_detail::__traits, std::__ndk1::allocator<char> >&)
PUBLIC 146d4 0 std::__ndk1::__hash_table<std::__ndk1::__hash_value_type<void*, bool>, std::__ndk1::__unordered_map_hasher<void*, std::__ndk1::__hash_value_type<void*, bool>, std::__ndk1::hash<void*>, std::__ndk1::equal_to<void*>, true>, std::__ndk1::__unordered_map_equal<void*, std::__ndk1::__hash_value_type<void*, bool>, std::__ndk1::equal_to<void*>, std::__ndk1::hash<void*>, true>, std::__ndk1::allocator<std::__ndk1::__hash_value_type<void*, bool> > >::__emplace_unique_key_args<void*, std::__ndk1::piecewise_construct_t const&, std::__ndk1::tuple<void* const&>, std::__ndk1::tuple<> >(void* const&, std::__ndk1::piecewise_construct_t const&, std::__ndk1::tuple<void* const&>, std::__ndk1::tuple<>)
PUBLIC 14be0 0 fmt::v11::report_error(char const*)
PUBLIC 14c30 0 fmt::v11::format_error::runtime_error(char const*)
PUBLIC 14c5c 0 fmt::v11::detail::is_printable(unsigned int)
PUBLIC 14e84 0 fmt::v11::format_error::~format_error()
PUBLIC 14eb0 0 <.plt ELF section in adyagd.ingamelistmod.android64.so>
STACK CFI INIT 8a40 10 .cfa: sp 0 +
STACK CFI INIT 8a50 8 .cfa: sp 0 +
STACK CFI INIT 8a58 8 .cfa: sp 0 +
STACK CFI INIT 8a60 14 .cfa: sp 0 +
STACK CFI INIT 8a74 1c .cfa: sp 0 +
STACK CFI INIT 8a90 10 .cfa: sp 0 +
STACK CFI INIT 8aa0 30 .cfa: sp 0 +
STACK CFI INIT 8ad0 98 .cfa: sp 0 +
STACK CFI INIT 8b68 59c .cfa: sp 0 +
STACK CFI INIT 9104 8c .cfa: sp 0 +
STACK CFI INIT 9190 30 .cfa: sp 0 +
STACK CFI INIT 91c0 4c .cfa: sp 0 +
STACK CFI 91c4 .cfa: sp 32 +
STACK CFI 91cc .cfa: x29 32 + x19: .cfa -8 + ^ x20: .cfa -16 + ^ .ra: .cfa -24 + ^ x29: .cfa -32 + ^
STACK CFI 91f4 .cfa: sp 32 +
STACK CFI 91fc .cfa: sp 0 +
STACK CFI 9200 .cfa: sp 32 +
STACK CFI 9208 .cfa: sp 0 +
STACK CFI INIT 920c 50 .cfa: sp 0 +
STACK CFI 9210 .cfa: sp 32 +
STACK CFI 9218 .cfa: x29 32 + x19: .cfa -16 + ^ .ra: .cfa -24 + ^ x29: .cfa -32 + ^
STACK CFI 9230 .cfa: sp 32 +
STACK CFI 9238 .cfa: sp 0 +
STACK CFI 923c .cfa: x29 32 +
STACK CFI 9250 .cfa: sp 32 +
STACK CFI 9258 .cfa: sp 0 +
STACK CFI INIT 925c 9c .cfa: sp 0 +
STACK CFI 9260 .cfa: sp 32 +
STACK CFI 9268 .cfa: x29 32 + x19: .cfa -8 + ^ x20: .cfa -16 + ^ .ra: .cfa -24 + ^ x29: .cfa -32 + ^
STACK CFI 92ec .cfa: sp 32 +
STACK CFI 92f4 .cfa: sp 0 +
STACK CFI INIT a14c 18 .cfa: sp 0 +
STACK CFI INIT a164 18 .cfa: sp 0 +
STACK CFI INIT a17c 4 .cfa: sp 0 +
STACK CFI INIT a32c a4 .cfa: sp 0 +
STACK CFI a330 .cfa: sp 32 +
STACK CFI a338 .cfa: x29 32 + x19: .cfa -8 + ^ x20: .cfa -16 + ^ .ra: .cfa -24 + ^ x29: .cfa -32 + ^
STACK CFI a3c4 .cfa: sp 32 +
STACK CFI a3cc .cfa: sp 0 +
STACK CFI INIT a3d0 f8 .cfa: sp 0 +
STACK CFI a3d4 .cfa: sp 64 +
STACK CFI a3e4 .cfa: x29 64 + x19: .cfa -8 + ^ x20: .cfa -16 + ^ x21: .cfa -24 + ^ x22: .cfa -32 + ^ x23: .cfa -48 + ^ .ra: .cfa -56 + ^ x29: .cfa -64 + ^
STACK CFI a440 .cfa: sp 64 +
STACK CFI a450 .cfa: sp 0 +
STACK CFI a454 .cfa: x29 64 +
STACK CFI a470 .cfa: sp 64 +
STACK CFI a480 .cfa: sp 0 +
STACK CFI a484 .cfa: x29 64 +
STACK CFI a4b4 .cfa: sp 64 +
STACK CFI a4c4 .cfa: sp 0 +
STACK CFI INIT a4c8 34 .cfa: sp 0 +
STACK CFI a4cc .cfa: sp 16 +
STACK CFI a4d0 .cfa: x29 16 + .ra: .cfa -8 + ^ x29: .cfa -16 + ^
STACK CFI INIT a4fc 24 .cfa: sp 0 +
STACK CFI a500 .cfa: sp 32 +
STACK CFI a508 .cfa: x29 32 + x19: .cfa -16 + ^ .ra: .cfa -24 + ^ x29: .cfa -32 + ^
STACK CFI a514 .cfa: sp 32 +
STACK CFI a51c .cfa: sp 0 +
STACK CFI INIT a520 14 .cfa: sp 0 +
STACK CFI a524 .cfa: sp 16 +
STACK CFI a528 .cfa: x29 16 + .ra: .cfa -8 + ^ x29: .cfa -16 + ^
STACK CFI INIT a584 30 .cfa: sp 0 +
STACK CFI a588 .cfa: sp 32 +
STACK CFI a590 .cfa: x29 32 + x19: .cfa -16 + ^ .ra: .cfa -24 + ^ x29: .cfa -32 + ^
STACK CFI a5a8 .cfa: sp 32 +
STACK CFI a5b0 .cfa: sp 0 +
STACK CFI INIT a5b4 34 .cfa: sp 0 +
STACK CFI a5b8 .cfa: sp 32 +
STACK CFI a5c0 .cfa: x29 32 + x19: .cfa -16 + ^ .ra: .cfa -24 + ^ x29: .cfa -32 + ^
STACK CFI INIT a5e8 10 .cfa: sp 0 +
STACK CFI a5ec .cfa: sp 16 +
STACK CFI a5f0 .cfa: x29 16 + .ra: .cfa -8 + ^ x29: .cfa -16 + ^
STACK CFI INIT a5f8 100 .cfa: sp 0 +
STACK CFI a5fc .cfa: sp 64 +
STACK CFI a60c .cfa: x29 64 + x19: .cfa -8 + ^ x20: .cfa -16 + ^ x21: .cfa -24 + ^ x22: .cfa -32 + ^ x23: .cfa -40 + ^ x24: .cfa -48 + ^ .ra: .cfa -56 + ^ x29: .cfa -64 + ^
STACK CFI a6e4 .cfa: sp 64 +
STACK CFI a6f4 .cfa: sp 0 +
STACK CFI INIT a6f8 80 .cfa: sp 0 +
STACK CFI a6fc .cfa: sp 48 +
STACK CFI a708 .cfa: x29 48 + x19: .cfa -8 + ^ x20: .cfa -16 + ^ x21: .cfa -24 + ^ x22: .cfa -32 + ^ .ra: .cfa -40 + ^ x29: .cfa -48 + ^
STACK CFI a720 .cfa: sp 48 +
STACK CFI a72c .cfa: sp 0 +
STACK CFI a730 .cfa: x29 48 +
STACK CFI a760 .cfa: sp 48 +
STACK CFI a76c .cfa: sp 0 +
STACK CFI a770 .cfa: x29 48 +
STACK CFI INIT a994 50 .cfa: sp 0 +
STACK CFI a998 .cfa: sp 32 +
STACK CFI a9a0 .cfa: x29 32 + x19: .cfa -16 + ^ .ra: .cfa -24 + ^ x29: .cfa -32 + ^
STACK CFI a9b8 .cfa: sp 32 +
STACK CFI a9c0 .cfa: sp 0 +
STACK CFI a9c4 .cfa: x29 32 +
STACK CFI a9d8 .cfa: sp 32 +
STACK CFI a9e0 .cfa: sp 0 +
STACK CFI INIT a9e4 50 .cfa: sp 0 +
STACK CFI a9e8 .cfa: sp 32 +
STACK CFI a9f0 .cfa: x29 32 + x19: .cfa -16 + ^ .ra: .cfa -24 + ^ x29: .cfa -32 + ^
STACK CFI aa08 .cfa: sp 32 +
STACK CFI aa10 .cfa: sp 0 +
STACK CFI aa14 .cfa: x29 32 +
STACK CFI aa28 .cfa: sp 32 +
STACK CFI aa30 .cfa: sp 0 +
STACK CFI INIT aa34 5c .cfa: sp 0 +
STACK CFI aa38 .cfa: sp 32 +
STACK CFI aa40 .cfa: x29 32 + x19: .cfa -16 + ^ .ra: .cfa -24 + ^ x29: .cfa -32 + ^
STACK CFI aa64 .cfa: sp 32 +
STACK CFI aa6c .cfa: sp 0 +
STACK CFI aa70 .cfa: x29 32 +
STACK CFI aa84 .cfa: sp 32 +
STACK CFI aa8c .cfa: sp 0 +
STACK CFI INIT aa90 6c .cfa: sp 0 +
STACK CFI aa94 .cfa: sp 32 +
STACK CFI aa9c .cfa: x29 32 + x19: .cfa -8 + ^ x20: .cfa -16 + ^ .ra: .cfa -24 + ^ x29: .cfa -32 + ^
STACK CFI aac8 .cfa: sp 32 +
STACK CFI aad0 .cfa: sp 0 +
STACK CFI aad4 .cfa: x29 32 +
STACK CFI aaf0 .cfa: sp 32 +
STACK CFI aaf8 .cfa: sp 0 +
STACK CFI INIT aafc 58 .cfa: sp 0 +
STACK CFI ab00 .cfa: sp 32 +
STACK CFI ab08 .cfa: x29 32 + x19: .cfa -8 + ^ x20: .cfa -16 + ^ .ra: .cfa -24 + ^ x29: .cfa -32 + ^
STACK CFI ab48 .cfa: sp 32 +
STACK CFI ab50 .cfa: sp 0 +
STACK CFI INIT ab54 4c .cfa: sp 0 +
STACK CFI ab58 .cfa: sp 32 +
STACK CFI ab60 .cfa: x29 32 + x19: .cfa -8 + ^ x20: .cfa -16 + ^ .ra: .cfa -24 + ^ x29: .cfa -32 + ^
STACK CFI ab94 .cfa: sp 32 +
STACK CFI ab9c .cfa: sp 0 +
STACK CFI INIT aba0 50 .cfa: sp 0 +
STACK CFI aba4 .cfa: sp 32 +
STACK CFI abac .cfa: x29 32 + x19: .cfa -16 + ^ .ra: .cfa -24 + ^ x29: .cfa -32 + ^
STACK CFI abc4 .cfa: sp 32 +
STACK CFI abcc .cfa: sp 0 +
STACK CFI abd0 .cfa: x29 32 +
STACK CFI abe4 .cfa: sp 32 +
STACK CFI abec .cfa: sp 0 +
STACK CFI INIT abf0 60 .cfa: sp 0 +
STACK CFI abf4 .cfa: sp 32 +
STACK CFI abfc .cfa: x29 32 + x19: .cfa -8 + ^ x20: .cfa -16 + ^ .ra: .cfa -24 + ^ x29: .cfa -32 + ^
STACK CFI ac1c .cfa: sp 32 +
STACK CFI ac24 .cfa: sp 0 +
STACK CFI ac28 .cfa: x29 32 +
STACK CFI ac44 .cfa: sp 32 +
STACK CFI ac4c .cfa: sp 0 +
STACK CFI INIT ae20 1c .cfa: sp 0 +
STACK CFI INIT ae3c c .cfa: sp 0 +
STACK CFI INIT ae48 60 .cfa: sp 0 +
STACK CFI ae4c .cfa: sp 32 +
STACK CFI ae54 .cfa: x29 32 + x19: .cfa -8 + ^ x20: .cfa -16 + ^ .ra: .cfa -24 + ^ x29: .cfa -32 + ^
STACK CFI ae74 .cfa: sp 32 +
STACK CFI ae7c .cfa: sp 0 +
STACK CFI ae80 .cfa: x29 32 +
STACK CFI ae9c .cfa: sp 32 +
STACK CFI aea4 .cfa: sp 0 +
STACK CFI INIT aea8 70 .cfa: sp 0 +
STACK CFI aeac .cfa: sp 32 +
STACK CFI aeb4 .cfa: x29 32 + x19: .cfa -8 + ^ x20: .cfa -16 + ^ .ra: .cfa -24 + ^ x29: .cfa -32 + ^
STACK CFI aedc .cfa: sp 32 +
STACK CFI aee4 .cfa: sp 0 +
STACK CFI aee8 .cfa: x29 32 +
STACK CFI af0c .cfa: sp 32 +
STACK CFI af14 .cfa: sp 0 +
STACK CFI INIT af18 5c .cfa: sp 0 +
STACK CFI af1c .cfa: sp 32 +
STACK CFI af24 .cfa: x29 32 + x19: .cfa -16 + ^ .ra: .cfa -24 + ^ x29: .cfa -32 + ^
STACK CFI af48 .cfa: sp 32 +
STACK CFI af50 .cfa: sp 0 +
STACK CFI af54 .cfa: x29 32 +
STACK CFI af68 .cfa: sp 32 +
STACK CFI af70 .cfa: sp 0 +
STACK CFI INIT af74 6c .cfa: sp 0 +
STACK CFI af78 .cfa: sp 32 +
STACK CFI af80 .cfa: x29 32 + x19: .cfa -8 + ^ x20: .cfa -16 + ^ .ra: .cfa -24 + ^ x29: .cfa -32 + ^
STACK CFI afac .cfa: sp 32 +
STACK CFI afb4 .cfa: sp 0 +
STACK CFI afb8 .cfa: x29 32 +
STACK CFI afd4 .cfa: sp 32 +
STACK CFI afdc .cfa: sp 0 +
STACK CFI INIT afe0 58 .cfa: sp 0 +
STACK CFI afe4 .cfa: sp 32 +
STACK CFI afec .cfa: x29 32 + x19: .cfa -8 + ^ x20: .cfa -16 + ^ .ra: .cfa -24 + ^ x29: .cfa -32 + ^
STACK CFI b02c .cfa: sp 32 +
STACK CFI b034 .cfa: sp 0 +
STACK CFI INIT b038 4c .cfa: sp 0 +
STACK CFI b03c .cfa: sp 32 +
STACK CFI b044 .cfa: x29 32 + x19: .cfa -8 + ^ x20: .cfa -16 + ^ .ra: .cfa -24 + ^ x29: .cfa -32 + ^
STACK CFI b078 .cfa: sp 32 +
STACK CFI b080 .cfa: sp 0 +
STACK CFI INIT b084 50 .cfa: sp 0 +
STACK CFI b088 .cfa: sp 32 +
STACK CFI b090 .cfa: x29 32 + x19: .cfa -16 + ^ .ra: .cfa -24 + ^ x29: .cfa -32 + ^
STACK CFI b0a8 .cfa: sp 32 +
STACK CFI b0b0 .cfa: sp 0 +
STACK CFI b0b4 .cfa: x29 32 +
STACK CFI b0c8 .cfa: sp 32 +
STACK CFI b0d0 .cfa: sp 0 +
STACK CFI INIT b0d4 60 .cfa: sp 0 +
STACK CFI b0d8 .cfa: sp 32 +
STACK CFI b0e0 .cfa: x29 32 + x19: .cfa -8 + ^ x20: .cfa -16 + ^ .ra: .cfa -24 + ^ x29: .cfa -32 + ^
STACK CFI b100 .cfa: sp 32 +
STACK CFI b108 .cfa: sp 0 +
STACK CFI b10c .cfa: x29 32 +
STACK CFI b128 .cfa: sp 32 +
STACK CFI b130 .cfa: sp 0 +
STACK CFI INIT b2f8 1c .cfa: sp 0 +
STACK CFI INIT b314 c .cfa: sp 0 +
STACK CFI INIT b320 20 .cfa: sp 0 +
STACK CFI INIT b340 40 .cfa: sp 0 +
STACK CFI b358 .cfa: sp 32 +
STACK CFI b360 .cfa: x29 32 + x19: .cfa -16 + ^ .ra: .cfa -24 + ^ x29: .cfa -32 + ^
STACK CFI b374 .cfa: sp 32 +
STACK CFI b37c .cfa: sp 0 +
STACK CFI INIT b42c 88 .cfa: sp 0 +
STACK CFI b430 .cfa: sp 32 +
STACK CFI b438 .cfa: x29 32 + x19: .cfa -8 + ^ x20: .cfa -16 + ^ .ra: .cfa -24 + ^ x29: .cfa -32 + ^
STACK CFI b488 .cfa: sp 32 +
STACK CFI b490 .cfa: sp 0 +
STACK CFI b494 .cfa: x29 32 +
STACK CFI b4a8 .cfa: sp 32 +
STACK CFI b4b0 .cfa: sp 0 +
STACK CFI INIT b4b4 14 .cfa: sp 0 +
STACK CFI INIT b4c8 34 .cfa: sp 0 +
STACK CFI b4d4 .cfa: sp 32 +
STACK CFI b4dc .cfa: x29 32 + x19: .cfa -16 + ^ .ra: .cfa -24 + ^ x29: .cfa -32 + ^
STACK CFI b4f0 .cfa: sp 32 +
STACK CFI b4f8 .cfa: sp 0 +
STACK CFI INIT c440 1c .cfa: sp 0 +
STACK CFI INIT c45c c .cfa: sp 0 +
STACK CFI INIT c5c4 34 .cfa: sp 0 +
STACK CFI c5c8 .cfa: sp 16 +
STACK CFI c5cc .cfa: x29 16 + .ra: .cfa -8 + ^ x29: .cfa -16 + ^
STACK CFI INIT c88c 80 .cfa: sp 0 +
STACK CFI c890 .cfa: sp 48 +
STACK CFI c89c .cfa: x29 48 + x19: .cfa -8 + ^ x20: .cfa -16 + ^ x21: .cfa -32 + ^ .ra: .cfa -40 + ^ x29: .cfa -48 + ^
STACK CFI c8fc .cfa: sp 48 +
STACK CFI c908 .cfa: sp 0 +
STACK CFI INIT c90c 24 .cfa: sp 0 +
STACK CFI c910 .cfa: sp 32 +
STACK CFI c918 .cfa: x29 32 + x19: .cfa -16 + ^ .ra: .cfa -24 + ^ x29: .cfa -32 + ^
STACK CFI c924 .cfa: sp 32 +
STACK CFI c92c .cfa: sp 0 +
STACK CFI INIT ce28 148 .cfa: sp 0 +
STACK CFI ce2c .cfa: sp 48 +
STACK CFI ce38 .cfa: x29 48 + x19: .cfa -8 + ^ x20: .cfa -16 + ^ x21: .cfa -32 + ^ .ra: .cfa -40 + ^ x29: .cfa -48 + ^
STACK CFI cf60 .cfa: sp 48 +
STACK CFI cf6c .cfa: sp 0 +
STACK CFI INIT cf70 14 .cfa: sp 0 +
STACK CFI INIT cf84 14 .cfa: sp 0 +
STACK CFI INIT cf98 ac .cfa: sp 0 +
STACK CFI cf9c .cfa: sp 64 +
STACK CFI cfac .cfa: x29 64 + x19: .cfa -8 + ^ x20: .cfa -16 + ^ x21: .cfa -24 + ^ x22: .cfa -32 + ^ x23: .cfa -48 + ^ .ra: .cfa -56 + ^ x29: .cfa -64 + ^
STACK CFI d028 .cfa: sp 64 +
STACK CFI d038 .cfa: sp 0 +
STACK CFI d03c .cfa: x29 64 +
STACK CFI INIT d4e8 4b4 .cfa: sp 0 +
STACK CFI d4ec .cfa: sp 96 +
STACK CFI d504 .cfa: x29 96 + x19: .cfa -8 + ^ x20: .cfa -16 + ^ x21: .cfa -24 + ^ x22: .cfa -32 + ^ x23: .cfa -40 + ^ x24: .cfa -48 + ^ x25: .cfa -56 + ^ x26: .cfa -64 + ^ x27: .cfa -72 + ^ x28: .cfa -80 + ^ .ra: .cfa -88 + ^ x29: .cfa -96 + ^
STACK CFI d94c .cfa: sp 96 +
STACK CFI d964 .cfa: sp 0 +
STACK CFI d968 .cfa: x29 96 +
STACK CFI INIT d99c 1a4 .cfa: sp 0 +
STACK CFI d9a0 .cfa: sp 64 +
STACK CFI d9ac .cfa: x29 32 + x19: .cfa -8 + ^ x20: .cfa -16 + ^ .ra: .cfa -24 + ^ x29: .cfa -32 + ^
STACK CFI dad8 .cfa: sp 64 +
STACK CFI dae4 .cfa: sp 0 +
STACK CFI dae8 .cfa: x29 32 +
STACK CFI INIT db40 194 .cfa: sp 0 +
STACK CFI db44 .cfa: sp 16 +
STACK CFI db48 .cfa: x29 16 + .ra: .cfa -8 + ^ x29: .cfa -16 + ^
STACK CFI dbe0 .cfa: sp 16 +
STACK CFI dbe4 .cfa: sp 0 +
STACK CFI dbe8 .cfa: x29 16 +
STACK CFI dcb4 .cfa: sp 16 +
STACK CFI dcb8 .cfa: sp 0 +
STACK CFI dcbc .cfa: x29 16 +
STACK CFI INIT dcd4 114 .cfa: sp 0 +
STACK CFI dcd8 .cfa: sp 128 +
STACK CFI dce8 .cfa: x29 48 + x19: .cfa -8 + ^ x20: .cfa -16 + ^ x21: .cfa -32 + ^ .ra: .cfa -40 + ^ x29: .cfa -48 + ^
STACK CFI ddb4 .cfa: sp 128 +
STACK CFI ddc4 .cfa: sp 0 +
STACK CFI ddc8 .cfa: x29 48 +
STACK CFI INIT dde8 114 .cfa: sp 0 +
STACK CFI ddec .cfa: sp 128 +
STACK CFI ddfc .cfa: x29 48 + x19: .cfa -8 + ^ x20: .cfa -16 + ^ x21: .cfa -32 + ^ .ra: .cfa -40 + ^ x29: .cfa -48 + ^
STACK CFI dec8 .cfa: sp 128 +
STACK CFI ded8 .cfa: sp 0 +
STACK CFI dedc .cfa: x29 48 +
STACK CFI INIT defc 27c .cfa: sp 0 +
STACK CFI df00 .cfa: sp 176 +
STACK CFI df1c .cfa: x29 96 + x19: .cfa -8 + ^ x20: .cfa -16 + ^ x21: .cfa -24 + ^ x22: .cfa -32 + ^ x23: .cfa -40 + ^ x24: .cfa -48 + ^ x25: .cfa -56 + ^ x26: .cfa -64 + ^ x27: .cfa -72 + ^ x28: .cfa -80 + ^ .ra: .cfa -88 + ^ x29: .cfa -96 + ^
STACK CFI e154 .cfa: sp 176 +
STACK CFI e170 .cfa: sp 0 +
STACK CFI e174 .cfa: x29 96 +
STACK CFI INIT e178 520 .cfa: sp 0 +
STACK CFI e17c .cfa: sp 176 +
STACK CFI e198 .cfa: x29 96 + x19: .cfa -8 + ^ x20: .cfa -16 + ^ x21: .cfa -24 + ^ x22: .cfa -32 + ^ x23: .cfa -40 + ^ x24: .cfa -48 + ^ x25: .cfa -56 + ^ x26: .cfa -64 + ^ x27: .cfa -72 + ^ x28: .cfa -80 + ^ .ra: .cfa -88 + ^ x29: .cfa -96 + ^
STACK CFI e674 .cfa: sp 176 +
STACK CFI e690 .cfa: sp 0 +
STACK CFI e694 .cfa: x29 96 +
STACK CFI INIT e698 20c .cfa: sp 0 +
STACK CFI e69c .cfa: sp 80 +
STACK CFI e6b0 .cfa: x29 80 + x19: .cfa -8 + ^ x20: .cfa -16 + ^ x21: .cfa -24 + ^ x22: .cfa -32 + ^ x23: .cfa -40 + ^ x24: .cfa -48 + ^ x25: .cfa -64 + ^ .ra: .cfa -72 + ^ x29: .cfa -80 + ^
STACK CFI e740 .cfa: sp 80 +
STACK CFI e754 .cfa: sp 0 +
STACK CFI e758 .cfa: x29 80 +
STACK CFI e764 .cfa: sp 80 +
STACK CFI e778 .cfa: sp 0 +
STACK CFI e77c .cfa: x29 80 +
STACK CFI INIT e8a4 428 .cfa: sp 0 +
STACK CFI e8a8 .cfa: sp 128 +
STACK CFI e8c4 .cfa: x29 96 + x19: .cfa -8 + ^ x20: .cfa -16 + ^ x21: .cfa -24 + ^ x22: .cfa -32 + ^ x23: .cfa -40 + ^ x24: .cfa -48 + ^ x25: .cfa -56 + ^ x26: .cfa -64 + ^ x27: .cfa -72 + ^ x28: .cfa -80 + ^ .ra: .cfa -88 + ^ x29: .cfa -96 + ^
STACK CFI eca8 .cfa: sp 128 +
STACK CFI ecc4 .cfa: sp 0 +
STACK CFI ecc8 .cfa: x29 96 +
STACK CFI INIT eccc 194 .cfa: sp 0 +
STACK CFI ecd0 .cfa: sp 32 +
STACK CFI ecd8 .cfa: x29 16 + .ra: .cfa -8 + ^ x29: .cfa -16 + ^
STACK CFI ed1c .cfa: sp 32 +
STACK CFI ed24 .cfa: sp 0 +
STACK CFI ed28 .cfa: x29 16 +
STACK CFI INIT ee60 1b8 .cfa: sp 0 +
STACK CFI INIT f018 1d0 .cfa: sp 0 +
STACK CFI f01c .cfa: sp 80 +
STACK CFI f030 .cfa: x29 80 + x19: .cfa -8 + ^ x20: .cfa -16 + ^ x21: .cfa -24 + ^ x22: .cfa -32 + ^ x23: .cfa -40 + ^ x24: .cfa -48 + ^ x25: .cfa -64 + ^ .ra: .cfa -72 + ^ x29: .cfa -80 + ^
STACK CFI f1d0 .cfa: sp 80 +
STACK CFI f1e4 .cfa: sp 0 +
STACK CFI INIT f1e8 67c .cfa: sp 0 +
STACK CFI f1ec .cfa: sp 176 +
STACK CFI f208 .cfa: x29 96 + x19: .cfa -8 + ^ x20: .cfa -16 + ^ x21: .cfa -24 + ^ x22: .cfa -32 + ^ x23: .cfa -40 + ^ x24: .cfa -48 + ^ x25: .cfa -56 + ^ x26: .cfa -64 + ^ x27: .cfa -72 + ^ x28: .cfa -80 + ^ .ra: .cfa -88 + ^ x29: .cfa -96 + ^
STACK CFI f840 .cfa: sp 176 +
STACK CFI f85c .cfa: sp 0 +
STACK CFI f860 .cfa: x29 96 +
STACK CFI INIT f864 1e4 .cfa: sp 0 +
STACK CFI f868 .cfa: sp 32 +
STACK CFI f870 .cfa: x29 32 + x19: .cfa -8 + ^ x20: .cfa -16 + ^ .ra: .cfa -24 + ^ x29: .cfa -32 + ^
STACK CFI f960 .cfa: sp 32 +
STACK CFI f968 .cfa: sp 0 +
STACK CFI f96c .cfa: x29 32 +
STACK CFI f9e0 .cfa: sp 32 +
STACK CFI f9e8 .cfa: sp 0 +
STACK CFI f9ec .cfa: x29 32 +
STACK CFI f9fc .cfa: sp 32 +
STACK CFI fa04 .cfa: sp 0 +
STACK CFI fa08 .cfa: x29 32 +
STACK CFI fa18 .cfa: sp 32 +
STACK CFI fa20 .cfa: sp 0 +
STACK CFI fa24 .cfa: x29 32 +
STACK CFI INIT fa48 178 .cfa: sp 0 +
STACK CFI fa4c .cfa: sp 80 +
STACK CFI fa60 .cfa: x29 64 + x19: .cfa -8 + ^ x20: .cfa -16 + ^ x21: .cfa -24 + ^ x22: .cfa -32 + ^ x23: .cfa -40 + ^ x24: .cfa -48 + ^ .ra: .cfa -56 + ^ x29: .cfa -64 + ^
STACK CFI fba4 .cfa: sp 80 +
STACK CFI fbb8 .cfa: sp 0 +
STACK CFI fbbc .cfa: x29 64 +
STACK CFI INIT fbc0 178 .cfa: sp 0 +
STACK CFI fbc4 .cfa: sp 80 +
STACK CFI fbd8 .cfa: x29 64 + x19: .cfa -8 + ^ x20: .cfa -16 + ^ x21: .cfa -24 + ^ x22: .cfa -32 + ^ x23: .cfa -40 + ^ x24: .cfa -48 + ^ .ra: .cfa -56 + ^ x29: .cfa -64 + ^
STACK CFI fd1c .cfa: sp 80 +
STACK CFI fd30 .cfa: sp 0 +
STACK CFI fd34 .cfa: x29 64 +
STACK CFI INIT fd38 178 .cfa: sp 0 +
STACK CFI fd3c .cfa: sp 80 +
STACK CFI fd50 .cfa: x29 64 + x19: .cfa -8 + ^ x20: .cfa -16 + ^ x21: .cfa -24 + ^ x22: .cfa -32 + ^ x23: .cfa -40 + ^ x24: .cfa -48 + ^ .ra: .cfa -56 + ^ x29: .cfa -64 + ^
STACK CFI fe94 .cfa: sp 80 +
STACK CFI fea8 .cfa: sp 0 +
STACK CFI feac .cfa: x29 64 +
STACK CFI INIT feb0 94 .cfa: sp 0 +
STACK CFI feb4 .cfa: sp 16 +
STACK CFI feb8 .cfa: x29 16 + .ra: .cfa -8 + ^ x29: .cfa -16 + ^
STACK CFI ff0c .cfa: sp 16 +
STACK CFI ff10 .cfa: sp 0 +
STACK CFI ff14 .cfa: x29 16 +
STACK CFI INIT ff44 158 .cfa: sp 0 +
STACK CFI ff48 .cfa: sp 112 +
STACK CFI ff64 .cfa: x29 96 + x19: .cfa -8 + ^ x20: .cfa -16 + ^ x21: .cfa -24 + ^ x22: .cfa -32 + ^ x23: .cfa -40 + ^ x24: .cfa -48 + ^ x25: .cfa -56 + ^ x26: .cfa -64 + ^ x27: .cfa -72 + ^ x28: .cfa -80 + ^ .ra: .cfa -88 + ^ x29: .cfa -96 + ^
STACK CFI 1004c .cfa: sp 112 +
STACK CFI 10050 .cfa: x29 96 +
STACK CFI 10058 .cfa: sp 112 +
STACK CFI 10074 .cfa: sp 0 +
STACK CFI 10078 .cfa: x29 96 +
STACK CFI 10098 .cfa: sp 112 +
STACK CFI INIT 1009c 94 .cfa: sp 0 +
STACK CFI 100a0 .cfa: sp 16 +
STACK CFI 100a4 .cfa: x29 16 + .ra: .cfa -8 + ^ x29: .cfa -16 + ^
STACK CFI 100f8 .cfa: sp 16 +
STACK CFI 100fc .cfa: sp 0 +
STACK CFI 10100 .cfa: x29 16 +
STACK CFI INIT 10430 1c8 .cfa: sp 0 +
STACK CFI 10434 .cfa: sp 32 +
STACK CFI 1043c .cfa: x29 32 + x19: .cfa -8 + ^ x20: .cfa -16 + ^ .ra: .cfa -24 + ^ x29: .cfa -32 + ^
STACK CFI 10540 .cfa: sp 32 +
STACK CFI 10548 .cfa: sp 0 +
STACK CFI 1054c .cfa: x29 32 +
STACK CFI INIT 105f8 8 .cfa: sp 0 +
STACK CFI INIT 10600 24 .cfa: sp 0 +
STACK CFI 10604 .cfa: sp 32 +
STACK CFI 1060c .cfa: x29 32 + x19: .cfa -16 + ^ .ra: .cfa -24 + ^ x29: .cfa -32 + ^
STACK CFI 10618 .cfa: sp 32 +
STACK CFI 10620 .cfa: sp 0 +
STACK CFI INIT 10624 18 .cfa: sp 0 +
STACK CFI INIT 1063c 4 .cfa: sp 0 +
STACK CFI INIT 10640 24 .cfa: sp 0 +
STACK CFI 10644 .cfa: sp 32 +
STACK CFI 1064c .cfa: x29 32 + x19: .cfa -16 + ^ .ra: .cfa -24 + ^ x29: .cfa -32 + ^
STACK CFI 10658 .cfa: sp 32 +
STACK CFI 10660 .cfa: sp 0 +
STACK CFI INIT 10664 18 .cfa: sp 0 +
STACK CFI INIT 1067c 4 .cfa: sp 0 +
STACK CFI INIT 10680 14 .cfa: sp 0 +
STACK CFI INIT 10694 8 .cfa: sp 0 +
STACK CFI INIT 1069c 14 .cfa: sp 0 +
STACK CFI INIT 10a4c 50 .cfa: sp 0 +
STACK CFI 10a50 .cfa: sp 32 +
STACK CFI 10a58 .cfa: x29 32 + x19: .cfa -16 + ^ .ra: .cfa -24 + ^ x29: .cfa -32 + ^
STACK CFI 10a70 .cfa: sp 32 +
STACK CFI 10a78 .cfa: sp 0 +
STACK CFI 10a7c .cfa: x29 32 +
STACK CFI 10a90 .cfa: sp 32 +
STACK CFI 10a98 .cfa: sp 0 +
STACK CFI INIT 10b10 7c .cfa: sp 0 +
STACK CFI 10b14 .cfa: sp 48 +
STACK CFI 10b20 .cfa: x29 48 + x19: .cfa -8 + ^ x20: .cfa -16 + ^ x21: .cfa -32 + ^ .ra: .cfa -40 + ^ x29: .cfa -48 + ^
STACK CFI 10b6c .cfa: sp 48 +
STACK CFI 10b78 .cfa: sp 0 +
STACK CFI 10b7c .cfa: sp 48 +
STACK CFI 10b88 .cfa: sp 0 +
STACK CFI INIT 10b8c 4 .cfa: sp 0 +
STACK CFI INIT 10f08 68 .cfa: sp 0 +
STACK CFI 10f0c .cfa: sp 32 +
STACK CFI 10f14 .cfa: x29 32 + x19: .cfa -8 + ^ x20: .cfa -16 + ^ .ra: .cfa -24 + ^ x29: .cfa -32 + ^
STACK CFI 10f2c .cfa: sp 32 +
STACK CFI 10f34 .cfa: sp 0 +
STACK CFI 10f38 .cfa: x29 32 +
STACK CFI 10f64 .cfa: sp 32 +
STACK CFI 10f6c .cfa: sp 0 +
STACK CFI INIT 10f70 14 .cfa: sp 0 +
STACK CFI 10f74 .cfa: sp 16 +
STACK CFI 10f78 .cfa: x29 16 + .ra: .cfa -8 + ^ x29: .cfa -16 + ^
STACK CFI INIT 10f84 4 .cfa: sp 0 +
STACK CFI INIT 10f88 14 .cfa: sp 0 +
STACK CFI INIT 10f9c 120 .cfa: sp 0 +
STACK CFI 10fa0 .cfa: sp 64 +
STACK CFI 10fb0 .cfa: x29 64 + x19: .cfa -8 + ^ x20: .cfa -16 + ^ x21: .cfa -24 + ^ x22: .cfa -32 + ^ x23: .cfa -40 + ^ x24: .cfa -48 + ^ .ra: .cfa -56 + ^ x29: .cfa -64 + ^
STACK CFI 110a8 .cfa: sp 64 +
STACK CFI 110b8 .cfa: sp 0 +
STACK CFI INIT 110bc 4a4 .cfa: sp 0 +
STACK CFI 110c0 .cfa: sp 32 +
STACK CFI 110c8 .cfa: x29 32 + x19: .cfa -8 + ^ x20: .cfa -16 + ^ .ra: .cfa -24 + ^ x29: .cfa -32 + ^
STACK CFI 114a8 .cfa: sp 32 +
STACK CFI 114b0 .cfa: sp 0 +
STACK CFI 114b4 .cfa: x29 32 +
STACK CFI INIT 11560 84 .cfa: sp 0 +
STACK CFI 11568 .cfa: sp 32 +
STACK CFI 11570 .cfa: x29 32 + x19: .cfa -8 + ^ x20: .cfa -16 + ^ .ra: .cfa -24 + ^ x29: .cfa -32 + ^
STACK CFI 115b0 .cfa: sp 32 +
STACK CFI 115b8 .cfa: sp 0 +
STACK CFI 115c0 .cfa: x29 32 +
STACK CFI INIT 12544 50 .cfa: sp 0 +
STACK CFI 12548 .cfa: sp 32 +
STACK CFI 12550 .cfa: x29 32 + x19: .cfa -16 + ^ .ra: .cfa -24 + ^ x29: .cfa -32 + ^
STACK CFI 12568 .cfa: sp 32 +
STACK CFI 12570 .cfa: sp 0 +
STACK CFI 12574 .cfa: x29 32 +
STACK CFI 12588 .cfa: sp 32 +
STACK CFI 12590 .cfa: sp 0 +
STACK CFI INIT 12594 64 .cfa: sp 0 +
STACK CFI 12598 .cfa: sp 32 +
STACK CFI 125a0 .cfa: x29 32 + x19: .cfa -16 + ^ .ra: .cfa -24 + ^ x29: .cfa -32 + ^
STACK CFI 125cc .cfa: sp 32 +
STACK CFI 125d4 .cfa: sp 0 +
STACK CFI 125d8 .cfa: x29 32 +
STACK CFI 125ec .cfa: sp 32 +
STACK CFI 125f4 .cfa: sp 0 +
STACK CFI INIT 12900 168 .cfa: sp 0 +
STACK CFI 12904 .cfa: sp 80 +
STACK CFI 12918 .cfa: x29 80 + x19: .cfa -8 + ^ x20: .cfa -16 + ^ x21: .cfa -24 + ^ x22: .cfa -32 + ^ x23: .cfa -40 + ^ x24: .cfa -48 + ^ x25: .cfa -56 + ^ x26: .cfa -64 + ^ .ra: .cfa -72 + ^ x29: .cfa -80 + ^
STACK CFI 12a50 .cfa: sp 80 +
STACK CFI 12a64 .cfa: sp 0 +
STACK CFI INIT 12a68 1b0 .cfa: sp 0 +
STACK CFI INIT 12f0c 4 .cfa: sp 0 +
STACK CFI INIT 13264 9c .cfa: sp 0 +
STACK CFI INIT 13300 50 .cfa: sp 0 +
STACK CFI 13304 .cfa: sp 32 +
STACK CFI 1330c .cfa: x29 32 + x19: .cfa -16 + ^ .ra: .cfa -24 + ^ x29: .cfa -32 + ^
STACK CFI 13324 .cfa: sp 32 +
STACK CFI 1332c .cfa: sp 0 +
STACK CFI 13330 .cfa: x29 32 +
STACK CFI 13344 .cfa: sp 32 +
STACK CFI 1334c .cfa: sp 0 +
STACK CFI INIT 13350 4 .cfa: sp 0 +
STACK CFI INIT 13354 14 .cfa: sp 0 +
STACK CFI INIT 13368 3c .cfa: sp 0 +
STACK CFI 1336c .cfa: sp 32 +
STACK CFI 13374 .cfa: x29 32 + x19: .cfa -16 + ^ .ra: .cfa -24 + ^ x29: .cfa -32 + ^
STACK CFI 13380 .cfa: sp 32 +
STACK CFI 13388 .cfa: sp 0 +
STACK CFI 1338c .cfa: x29 32 +
STACK CFI 13398 .cfa: sp 32 +
STACK CFI 133a0 .cfa: sp 0 +
STACK CFI INIT 133a4 3c .cfa: sp 0 +
STACK CFI 133a8 .cfa: sp 32 +
STACK CFI 133b0 .cfa: x29 32 + x19: .cfa -16 + ^ .ra: .cfa -24 + ^ x29: .cfa -32 + ^
STACK CFI 133bc .cfa: sp 32 +
STACK CFI 133c4 .cfa: sp 0 +
STACK CFI 133c8 .cfa: x29 32 +
STACK CFI 133d4 .cfa: sp 32 +
STACK CFI 133dc .cfa: sp 0 +
STACK CFI INIT 133e0 4c .cfa: sp 0 +
STACK CFI 133e4 .cfa: sp 32 +
STACK CFI 133ec .cfa: x29 32 + x19: .cfa -8 + ^ x20: .cfa -16 + ^ .ra: .cfa -24 + ^ x29: .cfa -32 + ^
STACK CFI 13414 .cfa: sp 32 +
STACK CFI 1341c .cfa: sp 0 +
STACK CFI 13420 .cfa: sp 32 +
STACK CFI 13428 .cfa: sp 0 +
STACK CFI INIT 1364c 64 .cfa: sp 0 +
STACK CFI 13650 .cfa: sp 32 +
STACK CFI 13658 .cfa: x29 32 + x19: .cfa -16 + ^ .ra: .cfa -24 + ^ x29: .cfa -32 + ^
STACK CFI 13684 .cfa: sp 32 +
STACK CFI 1368c .cfa: sp 0 +
STACK CFI 13690 .cfa: x29 32 +
STACK CFI 136a4 .cfa: sp 32 +
STACK CFI 136ac .cfa: sp 0 +
STACK CFI INIT 138d4 24 .cfa: sp 0 +
STACK CFI 138d8 .cfa: sp 32 +
STACK CFI 138e0 .cfa: x29 32 + x19: .cfa -16 + ^ .ra: .cfa -24 + ^ x29: .cfa -32 + ^
STACK CFI 138ec .cfa: sp 32 +
STACK CFI 138f4 .cfa: sp 0 +
STACK CFI INIT 146bc 4 .cfa: sp 0 +
STACK CFI INIT 146c0 14 .cfa: sp 0 +
STACK CFI INIT 14c30 2c .cfa: sp 0 +
STACK CFI 14c34 .cfa: sp 32 +
STACK CFI 14c3c .cfa: x29 32 + x19: .cfa -16 + ^ .ra: .cfa -24 + ^ x29: .cfa -32 + ^
STACK CFI 14c50 .cfa: sp 32 +
STACK CFI 14c58 .cfa: sp 0 +
STACK CFI INIT 14c5c 228 .cfa: sp 0 +
STACK CFI INIT 14e84 24 .cfa: sp 0 +
STACK CFI 14e88 .cfa: sp 32 +
STACK CFI 14e90 .cfa: x29 32 + x19: .cfa -16 + ^ .ra: .cfa -24 + ^ x29: .cfa -32 + ^
STACK CFI 14e9c .cfa: sp 32 +
STACK CFI 14ea4 .cfa: sp 0 +
STACK CFI INIT 92f8 300 .cfa: sp 0 +
STACK CFI 92fc .cfa: sp 160 +
STACK CFI 9310 .cfa: x29 64 + x19: .cfa -8 + ^ x20: .cfa -16 + ^ x21: .cfa -24 + ^ x22: .cfa -32 + ^ x23: .cfa -48 + ^ .ra: .cfa -56 + ^ x29: .cfa -64 + ^
STACK CFI 9510 .cfa: sp 160 +
STACK CFI 9524 .cfa: sp 0 +
STACK CFI 9528 .cfa: x29 64 +
STACK CFI INIT 95f8 dc .cfa: sp 0 +
STACK CFI 95fc .cfa: sp 64 +
STACK CFI 9608 .cfa: x29 32 + x19: .cfa -8 + ^ x20: .cfa -16 + ^ .ra: .cfa -24 + ^ x29: .cfa -32 + ^
STACK CFI 968c .cfa: sp 64 +
STACK CFI 9698 .cfa: sp 0 +
STACK CFI 969c .cfa: x29 32 +
STACK CFI INIT 96d4 dc .cfa: sp 0 +
STACK CFI 96d8 .cfa: sp 64 +
STACK CFI 96e4 .cfa: x29 32 + x19: .cfa -8 + ^ x20: .cfa -16 + ^ .ra: .cfa -24 + ^ x29: .cfa -32 + ^
STACK CFI 9768 .cfa: sp 64 +
STACK CFI 9774 .cfa: sp 0 +
STACK CFI 9778 .cfa: x29 32 +
STACK CFI INIT 97b0 45c .cfa: sp 0 +
STACK CFI 97b4 .cfa: sp 224 +
STACK CFI 97d0 .cfa: x29 96 + x19: .cfa -8 + ^ x20: .cfa -16 + ^ x21: .cfa -24 + ^ x22: .cfa -32 + ^ x23: .cfa -40 + ^ x24: .cfa -48 + ^ x25: .cfa -56 + ^ x26: .cfa -64 + ^ x27: .cfa -72 + ^ x28: .cfa -80 + ^ .ra: .cfa -88 + ^ x29: .cfa -96 + ^
STACK CFI 9af4 .cfa: sp 224 +
STACK CFI 9b10 .cfa: sp 0 +
STACK CFI 9b14 .cfa: x29 96 +
STACK CFI INIT 9c0c 45c .cfa: sp 0 +
STACK CFI 9c10 .cfa: sp 224 +
STACK CFI 9c2c .cfa: x29 96 + x19: .cfa -8 + ^ x20: .cfa -16 + ^ x21: .cfa -24 + ^ x22: .cfa -32 + ^ x23: .cfa -40 + ^ x24: .cfa -48 + ^ x25: .cfa -56 + ^ x26: .cfa -64 + ^ x27: .cfa -72 + ^ x28: .cfa -80 + ^ .ra: .cfa -88 + ^ x29: .cfa -96 + ^
STACK CFI 9f50 .cfa: sp 224 +
STACK CFI 9f6c .cfa: sp 0 +
STACK CFI 9f70 .cfa: x29 96 +
STACK CFI INIT a180 1ac .cfa: sp 0 +
STACK CFI a184 .cfa: sp 128 +
STACK CFI a194 .cfa: x29 48 + x19: .cfa -8 + ^ x20: .cfa -16 + ^ x21: .cfa -24 + ^ x22: .cfa -32 + ^ .ra: .cfa -40 + ^ x29: .cfa -48 + ^
STACK CFI a2b0 .cfa: sp 128 +
STACK CFI a2c0 .cfa: sp 0 +
STACK CFI a2c4 .cfa: x29 48 +
STACK CFI INIT a534 50 .cfa: sp 0 +
STACK CFI a538 .cfa: sp 32 +
STACK CFI a540 .cfa: x29 32 + x19: .cfa -8 + ^ x20: .cfa -16 + ^ .ra: .cfa -24 + ^ x29: .cfa -32 + ^
STACK CFI INIT a778 21c .cfa: sp 0 +
STACK CFI a77c .cfa: sp 128 +
STACK CFI a790 .cfa: x29 64 + x19: .cfa -8 + ^ x20: .cfa -16 + ^ x21: .cfa -24 + ^ x22: .cfa -32 + ^ x23: .cfa -40 + ^ x24: .cfa -48 + ^ .ra: .cfa -56 + ^ x29: .cfa -64 + ^
STACK CFI a8cc .cfa: sp 128 +
STACK CFI a8e0 .cfa: sp 0 +
STACK CFI a8e4 .cfa: x29 64 +
STACK CFI INIT ac50 1d0 .cfa: sp 0 +
STACK CFI ac54 .cfa: sp 128 +
STACK CFI ac68 .cfa: x29 64 + x19: .cfa -8 + ^ x20: .cfa -16 + ^ x21: .cfa -24 + ^ x22: .cfa -32 + ^ x23: .cfa -48 + ^ .ra: .cfa -56 + ^ x29: .cfa -64 + ^
STACK CFI ade0 .cfa: sp 128 +
STACK CFI adf4 .cfa: sp 0 +
STACK CFI adf8 .cfa: x29 64 +
STACK CFI INIT b134 1c4 .cfa: sp 0 +
STACK CFI b138 .cfa: sp 112 +
STACK CFI b148 .cfa: x29 48 + x19: .cfa -8 + ^ x20: .cfa -16 + ^ x21: .cfa -24 + ^ x22: .cfa -32 + ^ .ra: .cfa -40 + ^ x29: .cfa -48 + ^
STACK CFI b2bc .cfa: sp 112 +
STACK CFI b2cc .cfa: sp 0 +
STACK CFI b2d0 .cfa: x29 48 +
STACK CFI INIT b380 ac .cfa: sp 0 +
STACK CFI b384 .cfa: sp 32 +
STACK CFI b38c .cfa: x29 32 + x19: .cfa -8 + ^ x20: .cfa -16 + ^ .ra: .cfa -24 + ^ x29: .cfa -32 + ^
STACK CFI b3e8 .cfa: sp 32 +
STACK CFI b3f0 .cfa: sp 0 +
STACK CFI b3f4 .cfa: x29 32 +
STACK CFI b40c .cfa: sp 32 +
STACK CFI b414 .cfa: sp 0 +
STACK CFI b418 .cfa: x29 32 +
STACK CFI INIT b4fc f44 .cfa: sp 0 +
STACK CFI b500 .cfa: sp 352 +
STACK CFI b520 .cfa: x29 96 + x19: .cfa -8 + ^ x20: .cfa -16 + ^ x21: .cfa -24 + ^ x22: .cfa -32 + ^ x23: .cfa -40 + ^ x24: .cfa -48 + ^ x25: .cfa -56 + ^ x26: .cfa -64 + ^ x27: .cfa -72 + ^ x28: .cfa -80 + ^ .ra: .cfa -88 + ^ x29: .cfa -96 + ^ v8: .cfa -112 + ^
STACK CFI be40 .cfa: sp 352 +
STACK CFI be60 .cfa: sp 0 +
STACK CFI be64 .cfa: x29 96 +
STACK CFI INIT c468 74 .cfa: sp 0 +
STACK CFI c46c .cfa: sp 48 +
STACK CFI c478 .cfa: x29 32 + x19: .cfa -8 + ^ x20: .cfa -16 + ^ .ra: .cfa -24 + ^ x29: .cfa -32 + ^
STACK CFI c4c4 .cfa: sp 48 +
STACK CFI c4d0 .cfa: sp 0 +
STACK CFI c4d4 .cfa: x29 32 +
STACK CFI INIT c4dc 74 .cfa: sp 0 +
STACK CFI c4e0 .cfa: sp 48 +
STACK CFI c4ec .cfa: x29 32 + x19: .cfa -8 + ^ x20: .cfa -16 + ^ .ra: .cfa -24 + ^ x29: .cfa -32 + ^
STACK CFI c538 .cfa: sp 48 +
STACK CFI c544 .cfa: sp 0 +
STACK CFI c548 .cfa: x29 32 +
STACK CFI INIT c550 74 .cfa: sp 0 +
STACK CFI c554 .cfa: sp 48 +
STACK CFI c560 .cfa: x29 32 + x19: .cfa -8 + ^ x20: .cfa -16 + ^ .ra: .cfa -24 + ^ x29: .cfa -32 + ^
STACK CFI c5ac .cfa: sp 48 +
STACK CFI c5b8 .cfa: sp 0 +
STACK CFI c5bc .cfa: x29 32 +
STACK CFI INIT c5f8 168 .cfa: sp 0 +
STACK CFI c5fc .cfa: sp 384 +
STACK CFI c610 .cfa: x29 64 + x19: .cfa -8 + ^ x20: .cfa -16 + ^ x21: .cfa -24 + ^ x22: .cfa -32 + ^ x23: .cfa -40 + ^ x28: .cfa -48 + ^ .ra: .cfa -56 + ^ x29: .cfa -64 + ^
STACK CFI c708 .cfa: sp 384 +
STACK CFI c71c .cfa: sp 0 +
STACK CFI c720 .cfa: x29 64 +
STACK CFI INIT c760 12c .cfa: sp 0 +
STACK CFI c764 .cfa: sp 80 +
STACK CFI c778 .cfa: x29 80 + x19: .cfa -8 + ^ x20: .cfa -16 + ^ x21: .cfa -24 + ^ x22: .cfa -32 + ^ x23: .cfa -40 + ^ x24: .cfa -48 + ^ x25: .cfa -56 + ^ x26: .cfa -64 + ^ .ra: .cfa -72 + ^ x29: .cfa -80 + ^
STACK CFI c840 .cfa: sp 80 +
STACK CFI c854 .cfa: sp 0 +
STACK CFI c858 .cfa: x29 80 +
STACK CFI INIT c930 1a4 .cfa: sp 0 +
STACK CFI c934 .cfa: sp 112 +
STACK CFI c94c .cfa: x29 80 + x19: .cfa -8 + ^ x20: .cfa -16 + ^ x21: .cfa -24 + ^ x22: .cfa -32 + ^ x23: .cfa -40 + ^ x24: .cfa -48 + ^ x25: .cfa -56 + ^ x26: .cfa -64 + ^ .ra: .cfa -72 + ^ x29: .cfa -80 + ^
STACK CFI ca3c .cfa: sp 112 +
STACK CFI ca54 .cfa: sp 0 +
STACK CFI ca58 .cfa: x29 80 +
STACK CFI INIT cad4 1dc .cfa: sp 0 +
STACK CFI cad8 .cfa: sp 128 +
STACK CFI caf4 .cfa: x29 96 + x19: .cfa -8 + ^ x20: .cfa -16 + ^ x21: .cfa -24 + ^ x22: .cfa -32 + ^ x23: .cfa -40 + ^ x24: .cfa -48 + ^ x25: .cfa -56 + ^ x26: .cfa -64 + ^ x27: .cfa -80 + ^ .ra: .cfa -88 + ^ x29: .cfa -96 + ^
STACK CFI cc60 .cfa: sp 128 +
STACK CFI cc7c .cfa: sp 0 +
STACK CFI cc80 .cfa: x29 96 +
STACK CFI INIT ccb0 178 .cfa: sp 0 +
STACK CFI ccb4 .cfa: sp 80 +
STACK CFI ccc8 .cfa: x29 80 + x19: .cfa -8 + ^ x20: .cfa -16 + ^ x21: .cfa -24 + ^ x22: .cfa -32 + ^ x23: .cfa -40 + ^ x24: .cfa -48 + ^ x25: .cfa -64 + ^ .ra: .cfa -72 + ^ x29: .cfa -80 + ^
STACK CFI cdf4 .cfa: sp 80 +
STACK CFI ce08 .cfa: sp 0 +
STACK CFI ce0c .cfa: x29 80 +
STACK CFI INIT d044 4a4 .cfa: sp 0 +
STACK CFI d048 .cfa: sp 384 +
STACK CFI d064 .cfa: x29 96 + x19: .cfa -8 + ^ x20: .cfa -16 + ^ x21: .cfa -24 + ^ x22: .cfa -32 + ^ x23: .cfa -40 + ^ x24: .cfa -48 + ^ x25: .cfa -56 + ^ x26: .cfa -64 + ^ x27: .cfa -72 + ^ x28: .cfa -80 + ^ .ra: .cfa -88 + ^ x29: .cfa -96 + ^
STACK CFI d3c8 .cfa: sp 384 +
STACK CFI d3e4 .cfa: sp 0 +
STACK CFI d3e8 .cfa: x29 96 +
STACK CFI INIT 10130 300 .cfa: sp 0 +
STACK CFI 10134 .cfa: sp 80 +
STACK CFI 10148 .cfa: x29 80 + x19: .cfa -8 + ^ x20: .cfa -16 + ^ x21: .cfa -24 + ^ x22: .cfa -32 + ^ x23: .cfa -40 + ^ x24: .cfa -48 + ^ x25: .cfa -56 + ^ x26: .cfa -64 + ^ .ra: .cfa -72 + ^ x29: .cfa -80 + ^
STACK CFI 10404 .cfa: sp 80 +
STACK CFI 10418 .cfa: sp 0 +
STACK CFI 1041c .cfa: x29 80 +
STACK CFI INIT 106b0 39c .cfa: sp 0 +
STACK CFI 106b4 .cfa: sp 224 +
STACK CFI 106c8 .cfa: x29 64 + x19: .cfa -8 + ^ x20: .cfa -16 + ^ x21: .cfa -24 + ^ x22: .cfa -32 + ^ x23: .cfa -48 + ^ .ra: .cfa -56 + ^ x29: .cfa -64 + ^
STACK CFI 1091c .cfa: sp 224 +
STACK CFI 10930 .cfa: sp 0 +
STACK CFI 10934 .cfa: x29 64 +
STACK CFI INIT 10a9c 74 .cfa: sp 0 +
STACK CFI 10aa0 .cfa: sp 48 +
STACK CFI 10aac .cfa: x29 32 + x19: .cfa -8 + ^ x20: .cfa -16 + ^ .ra: .cfa -24 + ^ x29: .cfa -32 + ^
STACK CFI 10af8 .cfa: sp 48 +
STACK CFI 10b04 .cfa: sp 0 +
STACK CFI 10b08 .cfa: x29 32 +
STACK CFI INIT 10b90 154 .cfa: sp 0 +
STACK CFI 10b94 .cfa: sp 384 +
STACK CFI 10ba8 .cfa: x29 64 + x19: .cfa -8 + ^ x20: .cfa -16 + ^ x21: .cfa -24 + ^ x22: .cfa -32 + ^ x23: .cfa -40 + ^ x28: .cfa -48 + ^ .ra: .cfa -56 + ^ x29: .cfa -64 + ^
STACK CFI 10c8c .cfa: sp 384 +
STACK CFI 10ca0 .cfa: sp 0 +
STACK CFI 10ca4 .cfa: x29 64 +
STACK CFI INIT 10ce4 224 .cfa: sp 0 +
STACK CFI 10ce8 .cfa: sp 128 +
STACK CFI 10d00 .cfa: x29 80 + x19: .cfa -8 + ^ x20: .cfa -16 + ^ x21: .cfa -24 + ^ x22: .cfa -32 + ^ x23: .cfa -40 + ^ x24: .cfa -48 + ^ x25: .cfa -64 + ^ .ra: .cfa -72 + ^ x29: .cfa -80 + ^
STACK CFI 10e9c .cfa: sp 128 +
STACK CFI 10eb4 .cfa: sp 0 +
STACK CFI 10eb8 .cfa: x29 80 +
STACK CFI INIT 115e4 f60 .cfa: sp 0 +
STACK CFI 115e8 .cfa: sp 480 +
STACK CFI 11608 .cfa: x29 96 + x19: .cfa -8 + ^ x20: .cfa -16 + ^ x21: .cfa -24 + ^ x22: .cfa -32 + ^ x23: .cfa -40 + ^ x24: .cfa -48 + ^ x25: .cfa -56 + ^ x26: .cfa -64 + ^ x27: .cfa -72 + ^ x28: .cfa -80 + ^ .ra: .cfa -88 + ^ x29: .cfa -96 + ^ v8: .cfa -112 + ^
STACK CFI 122e4 .cfa: sp 480 +
STACK CFI 12304 .cfa: sp 0 +
STACK CFI 12308 .cfa: x29 96 +
STACK CFI INIT 125f8 308 .cfa: sp 0 +
STACK CFI 125fc .cfa: sp 80 +
STACK CFI 12610 .cfa: x29 80 + x19: .cfa -8 + ^ x20: .cfa -16 + ^ x21: .cfa -24 + ^ x22: .cfa -32 + ^ x23: .cfa -40 + ^ x24: .cfa -48 + ^ x25: .cfa -56 + ^ x26: .cfa -64 + ^ .ra: .cfa -72 + ^ x29: .cfa -80 + ^
STACK CFI 128d4 .cfa: sp 80 +
STACK CFI 128e8 .cfa: sp 0 +
STACK CFI 128ec .cfa: x29 80 +
STACK CFI INIT 12c18 2f4 .cfa: sp 0 +
STACK CFI 12c1c .cfa: sp 176 +
STACK CFI 12c30 .cfa: x29 64 + x19: .cfa -8 + ^ x20: .cfa -16 + ^ x21: .cfa -24 + ^ x22: .cfa -32 + ^ x23: .cfa -48 + ^ .ra: .cfa -56 + ^ x29: .cfa -64 + ^
STACK CFI 12e04 .cfa: sp 176 +
STACK CFI 12e18 .cfa: sp 0 +
STACK CFI 12e1c .cfa: x29 64 +
STACK CFI INIT 12f10 2ac .cfa: sp 0 +
STACK CFI 12f14 .cfa: sp 176 +
STACK CFI 12f28 .cfa: x29 64 + x19: .cfa -8 + ^ x20: .cfa -16 + ^ x21: .cfa -24 + ^ x22: .cfa -32 + ^ x23: .cfa -40 + ^ x24: .cfa -48 + ^ .ra: .cfa -56 + ^ x29: .cfa -64 + ^
STACK CFI 13138 .cfa: sp 176 +
STACK CFI 1314c .cfa: sp 0 +
STACK CFI 13150 .cfa: x29 64 +
STACK CFI INIT 131bc a8 .cfa: sp 0 +
STACK CFI 131c0 .cfa: sp 32 +
STACK CFI 131c8 .cfa: x29 32 + x19: .cfa -16 + ^ .ra: .cfa -24 + ^ x29: .cfa -32 + ^
STACK CFI 131fc .cfa: sp 32 +
STACK CFI 13204 .cfa: sp 0 +
STACK CFI 13208 .cfa: x29 32 +
STACK CFI 1320c .cfa: sp 32 +
STACK CFI 13214 .cfa: sp 0 +
STACK CFI 13218 .cfa: x29 32 +
STACK CFI INIT a068 e4 .cfa: sp 0 +
STACK CFI a06c .cfa: sp 32 +
STACK CFI a074 .cfa: x29 32 + x19: .cfa -8 + ^ x20: .cfa -16 + ^ .ra: .cfa -24 + ^ x29: .cfa -32 + ^
STACK CFI a0e4 .cfa: sp 32 +
STACK CFI a0ec .cfa: sp 0 +
STACK CFI a0f0 .cfa: x29 32 +
STACK CFI INIT 1342c 134 .cfa: sp 0 +
STACK CFI 13430 .cfa: sp 80 +
STACK CFI 1343c .cfa: x29 32 + x19: .cfa -8 + ^ x20: .cfa -16 + ^ .ra: .cfa -24 + ^ x29: .cfa -32 + ^
STACK CFI 1346c .cfa: sp 80 +
STACK CFI 13478 .cfa: sp 0 +
STACK CFI 1347c .cfa: x29 32 +
STACK CFI INIT 13560 78 .cfa: sp 0 +
STACK CFI 13564 .cfa: sp 32 +
STACK CFI 1356c .cfa: x29 32 + x19: .cfa -8 + ^ x20: .cfa -16 + ^ .ra: .cfa -24 + ^ x29: .cfa -32 + ^
STACK CFI 13578 .cfa: sp 32 +
STACK CFI 13580 .cfa: sp 0 +
STACK CFI 13584 .cfa: x29 32 +
STACK CFI INIT 135d8 74 .cfa: sp 0 +
STACK CFI 135dc .cfa: sp 48 +
STACK CFI 135e8 .cfa: x29 32 + x19: .cfa -8 + ^ x20: .cfa -16 + ^ .ra: .cfa -24 + ^ x29: .cfa -32 + ^
STACK CFI 13634 .cfa: sp 48 +
STACK CFI 13640 .cfa: sp 0 +
STACK CFI 13644 .cfa: x29 32 +
STACK CFI INIT 136b0 224 .cfa: sp 0 +
STACK CFI 136b4 .cfa: sp 128 +
STACK CFI 136c4 .cfa: x29 48 + x19: .cfa -8 + ^ x20: .cfa -16 + ^ x21: .cfa -32 + ^ .ra: .cfa -40 + ^ x29: .cfa -48 + ^
STACK CFI 13774 .cfa: sp 128 +
STACK CFI 13784 .cfa: sp 0 +
STACK CFI 13788 .cfa: x29 48 +
STACK CFI INIT 138f8 160 .cfa: sp 0 +
STACK CFI 138fc .cfa: sp 144 +
STACK CFI 13910 .cfa: x29 64 + x19: .cfa -8 + ^ x20: .cfa -16 + ^ x21: .cfa -24 + ^ x22: .cfa -32 + ^ x23: .cfa -48 + ^ .ra: .cfa -56 + ^ x29: .cfa -64 + ^
STACK CFI 13960 .cfa: sp 144 +
STACK CFI 13974 .cfa: sp 0 +
STACK CFI 13978 .cfa: x29 64 +
STACK CFI INIT 13a58 100 .cfa: sp 0 +
STACK CFI 13a5c .cfa: sp 64 +
STACK CFI 13a6c .cfa: x29 48 + x19: .cfa -8 + ^ x20: .cfa -16 + ^ x21: .cfa -24 + ^ x22: .cfa -32 + ^ .ra: .cfa -40 + ^ x29: .cfa -48 + ^
STACK CFI 13b10 .cfa: sp 64 +
STACK CFI 13b20 .cfa: sp 0 +
STACK CFI 13b24 .cfa: x29 48 +
STACK CFI INIT 13b58 150 .cfa: sp 0 +
STACK CFI 13b5c .cfa: sp 128 +
STACK CFI 13b6c .cfa: x29 48 + x19: .cfa -8 + ^ x20: .cfa -16 + ^ x21: .cfa -24 + ^ x22: .cfa -32 + ^ .ra: .cfa -40 + ^ x29: .cfa -48 + ^
STACK CFI 13bb4 .cfa: sp 128 +
STACK CFI 13bc4 .cfa: sp 0 +
STACK CFI 13bc8 .cfa: x29 48 +
STACK CFI INIT 13ca8 a8 .cfa: sp 0 +
STACK CFI 13cac .cfa: sp 64 +
STACK CFI 13cbc .cfa: x29 48 + x19: .cfa -8 + ^ x20: .cfa -16 + ^ x21: .cfa -32 + ^ .ra: .cfa -40 + ^ x29: .cfa -48 + ^
STACK CFI 13d24 .cfa: sp 64 +
STACK CFI 13d34 .cfa: sp 0 +
STACK CFI 13d38 .cfa: x29 48 +
STACK CFI INIT 13d50 1b8 .cfa: sp 0 +
STACK CFI 13d54 .cfa: sp 160 +
STACK CFI 13d70 .cfa: x29 72 + x19: .cfa -8 + ^ x20: .cfa -16 + ^ x21: .cfa -24 + ^ x22: .cfa -32 + ^ x23: .cfa -40 + ^ x24: .cfa -48 + ^ x25: .cfa -56 + ^ .ra: .cfa -64 + ^ x29: .cfa -72 + ^ v8: .cfa -80 + ^
STACK CFI 13df4 .cfa: sp 160 +
STACK CFI 13e10 .cfa: sp 0 +
STACK CFI 13e14 .cfa: x29 72 +
STACK CFI INIT 13f08 16c .cfa: sp 0 +
STACK CFI 13f0c .cfa: sp 64 +
STACK CFI 13f1c .cfa: x29 48 + x19: .cfa -8 + ^ x20: .cfa -16 + ^ x21: .cfa -24 + ^ x22: .cfa -32 + ^ .ra: .cfa -40 + ^ x29: .cfa -48 + ^
STACK CFI 14014 .cfa: sp 64 +
STACK CFI 14024 .cfa: sp 0 +
STACK CFI 14028 .cfa: x29 48 +
STACK CFI INIT 14074 4f4 .cfa: sp 0 +
STACK CFI 14078 .cfa: sp 144 +
STACK CFI 1408c .cfa: x29 64 + x19: .cfa -8 + ^ x20: .cfa -16 + ^ x21: .cfa -24 + ^ x22: .cfa -32 + ^ x23: .cfa -48 + ^ .ra: .cfa -56 + ^ x29: .cfa -64 + ^
STACK CFI 143c0 .cfa: sp 144 +
STACK CFI 143d4 .cfa: sp 0 +
STACK CFI 143d8 .cfa: x29 64 +
STACK CFI INIT 14568 154 .cfa: sp 0 +
STACK CFI 1456c .cfa: sp 384 +
STACK CFI 14580 .cfa: x29 64 + x19: .cfa -8 + ^ x20: .cfa -16 + ^ x21: .cfa -24 + ^ x22: .cfa -32 + ^ x23: .cfa -40 + ^ x28: .cfa -48 + ^ .ra: .cfa -56 + ^ x29: .cfa -64 + ^
STACK CFI 14664 .cfa: sp 384 +
STACK CFI 14678 .cfa: sp 0 +
STACK CFI 1467c .cfa: x29 64 +
STACK CFI INIT 146d4 50c .cfa: sp 0 +
STACK CFI 146d8 .cfa: sp 64 +
STACK CFI 146e8 .cfa: x29 64 + x19: .cfa -8 + ^ x20: .cfa -16 + ^ x21: .cfa -24 + ^ x22: .cfa -32 + ^ x23: .cfa -40 + ^ x24: .cfa -48 + ^ .ra: .cfa -56 + ^ x29: .cfa -64 + ^
STACK CFI 14808 .cfa: sp 64 +
STACK CFI 14818 .cfa: sp 0 +
STACK CFI 1481c .cfa: x29 64 +
STACK CFI 14bb4 .cfa: sp 64 +
STACK CFI 14bc4 .cfa: sp 0 +
STACK CFI 14bc8 .cfa: x29 64 +
STACK CFI INIT 14be0 50 .cfa: sp 0 +
STACK CFI 14be4 .cfa: sp 32 +
STACK CFI 14bec .cfa: x29 32 + x19: .cfa -8 + ^ x20: .cfa -16 + ^ .ra: .cfa -24 + ^ x29: .cfa -32 + ^
