MODULE Linux arm64 EF97FC7EC539BD1E0D019AA8EA8795DC0 undefined0.editormusic.android64.so
INFO CODE_ID 7EFC97EF39C51EBD0D019AA8EA8795DC272A15AA
INFO GENERATOR mozilla/dump_syms 2.3.4
PUBLIC 3ae10 0 __on_dlclose
PUBLIC 3ae20 0 __emutls_unregister_key
PUBLIC 3ae28 0 __on_dlclose_late
PUBLIC 3ae30 0 __atexit_handler_wrapper
PUBLIC 3ae44 0 atexit
PUBLIC 3ae60 0 pthread_atfork
PUBLIC 3ae70 0 unwind_phase2
PUBLIC 3afa4 0 _Unwind_Resume
PUBLIC 3b028 0 unwind_phase2_forced
PUBLIC m 3b11c 0 __unw_init_local
PUBLIC m 3b1c4 0 __unw_get_reg
PUBLIC 3b240 0 __unw_step_stage2
PUBLIC m 3b254 0 __unw_get_proc_info
PUBLIC m 3b294 0 __unw_resume
PUBLIC 3b2bc 0 libunwind::CFI_Parser<libunwind::LocalAddressSpace>::decodeFDE(libunwind::LocalAddressSpace&, unsigned long, libunwind::CFI_Parser<libunwind::LocalAddressSpace>::FDE_Info*, libunwind::CFI_Parser<libunwind::LocalAddressSpace>::CIE_Info*, bool)
PUBLIC 3b44c 0 libunwind::CFI_Parser<libunwind::LocalAddressSpace>::parseCIE(libunwind::LocalAddressSpace&, unsigned long, libunwind::CFI_Parser<libunwind::LocalAddressSpace>::CIE_Info*)
PUBLIC 3b714 0 libunwind::AbstractUnwindCursor::~AbstractUnwindCursor()
PUBLIC 3b71c 0 libunwind::UnwindCursor<libunwind::LocalAddressSpace, libunwind::Registers_arm64>::~UnwindCursor()
PUBLIC 3b724 0 libunwind::UnwindCursor<libunwind::LocalAddressSpace, libunwind::Registers_arm64>::validReg(int)
PUBLIC 3b768 0 libunwind::UnwindCursor<libunwind::LocalAddressSpace, libunwind::Registers_arm64>::getReg(int)
PUBLIC 3b850 0 libunwind::UnwindCursor<libunwind::LocalAddressSpace, libunwind::Registers_arm64>::setReg(int, unsigned long)
PUBLIC 3b938 0 libunwind::UnwindCursor<libunwind::LocalAddressSpace, libunwind::Registers_arm64>::validFloatReg(int)
PUBLIC 3b94c 0 libunwind::UnwindCursor<libunwind::LocalAddressSpace, libunwind::Registers_arm64>::getFloatReg(int)
PUBLIC 3b95c 0 libunwind::UnwindCursor<libunwind::LocalAddressSpace, libunwind::Registers_arm64>::setFloatReg(int, double)
PUBLIC 3b96c 0 libunwind::UnwindCursor<libunwind::LocalAddressSpace, libunwind::Registers_arm64>::step(bool)
PUBLIC 3ba5c 0 libunwind::UnwindCursor<libunwind::LocalAddressSpace, libunwind::Registers_arm64>::getInfo(unw_proc_info_t*)
PUBLIC 3baa0 0 libunwind::UnwindCursor<libunwind::LocalAddressSpace, libunwind::Registers_arm64>::jumpto()
PUBLIC 3baac 0 libunwind::UnwindCursor<libunwind::LocalAddressSpace, libunwind::Registers_arm64>::isSignalFrame()
PUBLIC 3bab8 0 libunwind::UnwindCursor<libunwind::LocalAddressSpace, libunwind::Registers_arm64>::getFunctionName(char*, unsigned long, unsigned long*)
PUBLIC 3bae4 0 libunwind::UnwindCursor<libunwind::LocalAddressSpace, libunwind::Registers_arm64>::setInfoBasedOnIPRegister(bool)
PUBLIC 3bd20 0 libunwind::UnwindCursor<libunwind::LocalAddressSpace, libunwind::Registers_arm64>::getRegisterName(int)
PUBLIC 3bd2c 0 libunwind::UnwindCursor<libunwind::LocalAddressSpace, libunwind::Registers_arm64>::stepThroughSigReturn(libunwind::Registers_arm64&)
PUBLIC 3be4c 0 libunwind::DwarfInstructions<libunwind::LocalAddressSpace, libunwind::Registers_arm64>::stepWithDwarf(libunwind::LocalAddressSpace&, unsigned long, unsigned long, libunwind::Registers_arm64&, bool&, bool)
PUBLIC 3c2e0 0 libunwind::CFI_Parser<libunwind::LocalAddressSpace>::parseFDEInstructions(libunwind::LocalAddressSpace&, libunwind::CFI_Parser<libunwind::LocalAddressSpace>::FDE_Info const&, libunwind::CFI_Parser<libunwind::LocalAddressSpace>::CIE_Info const&, unsigned long, int, libunwind::CFI_Parser<libunwind::LocalAddressSpace>::PrologInfo*)
PUBLIC 3ce58 0 libunwind::DwarfInstructions<libunwind::LocalAddressSpace, libunwind::Registers_arm64>::getCFA(libunwind::LocalAddressSpace&, libunwind::CFI_Parser<libunwind::LocalAddressSpace>::PrologInfo const&, libunwind::Registers_arm64 const&)
PUBLIC 3cf8c 0 libunwind::DwarfInstructions<libunwind::LocalAddressSpace, libunwind::Registers_arm64>::getSavedRegister(libunwind::LocalAddressSpace&, libunwind::Registers_arm64 const&, unsigned long, libunwind::CFI_Parser<libunwind::LocalAddressSpace>::RegisterLocation const&)
PUBLIC 3d19c 0 libunwind::LocalAddressSpace::getEncodedP(unsigned long&, unsigned long, unsigned char, unsigned long)
PUBLIC 3d528 0 libunwind::LocalAddressSpace::getULEB128(unsigned long&, unsigned long)
PUBLIC 3d6f0 0 libunwind::DwarfInstructions<libunwind::LocalAddressSpace, libunwind::Registers_arm64>::evaluateExpression(unsigned long, libunwind::LocalAddressSpace&, libunwind::Registers_arm64 const&, unsigned long)
PUBLIC 3e0b4 0 libunwind::UnwindCursor<libunwind::LocalAddressSpace, libunwind::Registers_arm64>::getInfoFromDwarfSection(unsigned long, libunwind::UnwindInfoSections const&, unsigned int)
PUBLIC 3e388 0 libunwind::findUnwindSectionsByPhdr(dl_phdr_info*, unsigned long, void*)
PUBLIC 3e4b8 0 libunwind::EHHeaderParser<libunwind::LocalAddressSpace>::decodeEHHdr(libunwind::LocalAddressSpace&, unsigned long, unsigned long, libunwind::EHHeaderParser<libunwind::LocalAddressSpace>::EHHeaderInfo&)
PUBLIC 3e5d8 0 libunwind::CFI_Parser<libunwind::LocalAddressSpace>::findFDE(libunwind::LocalAddressSpace&, unsigned long, unsigned long, unsigned long, unsigned long, libunwind::CFI_Parser<libunwind::LocalAddressSpace>::FDE_Info*, libunwind::CFI_Parser<libunwind::LocalAddressSpace>::CIE_Info*)
PUBLIC 3e7a0 0 libunwind::EHHeaderParser<libunwind::LocalAddressSpace>::findFDE(libunwind::LocalAddressSpace&, unsigned long, unsigned long, unsigned int, libunwind::CFI_Parser<libunwind::LocalAddressSpace>::FDE_Info*, libunwind::CFI_Parser<libunwind::LocalAddressSpace>::CIE_Info*)
PUBLIC 3e908 0 libunwind::EHHeaderParser<libunwind::LocalAddressSpace>::getTableEntrySize(unsigned char)
PUBLIC 3ea04 0 libunwind::Registers_arm64::getRegisterName(int)
PUBLIC 3ea34 0 __libunwind_Registers_arm64_jumpto
PUBLIC m 3eac4 0 __unw_getcontext
PUBLIC 3eb60 0 __aarch64_ldadd8_acq_rel
PUBLIC 3eb90 0 init_have_lse_atomics
PUBLIC 3ec28 0 __init_cpu_features_constructor
PUBLIC 3eed4 0 __init_cpu_features
PUBLIC 3ef60 0 __aarch64_ldadd8_relax
PUBLIC 3ef90 0 __cxx_global_var_init
PUBLIC 3f044 0 AudioManager::get()
PUBLIC 3f0e4 0 AudioManager::~AudioManager()
PUBLIC 3f18c 0 AudioManager::AudioManager()
PUBLIC 3f330 0 std::__ndk1::vector<std::__ndk1::shared_ptr<AudioSource>, std::__ndk1::allocator<std::__ndk1::shared_ptr<AudioSource> > >::~vector[abi:ne190000]()
PUBLIC 3f3d8 0 std::__ndk1::deque<std::__ndk1::shared_ptr<AudioSource>, std::__ndk1::allocator<std::__ndk1::shared_ptr<AudioSource> > >::~deque[abi:ne190000]()
PUBLIC 3f594 0 AudioManager::init()
PUBLIC 3f5cc 0 AudioManager::populateSongs()
PUBLIC 3f9d4 0 AudioManager::populateSongsThread()
PUBLIC 3fe34 0 AudioManager::setupPreloadUIFromPath(std::__ndk1::__fs::filesystem::path)
PUBLIC 40208 0 geode::Mod::getSettingValue<std::__ndk1::__fs::filesystem::path>(std::__ndk1::basic_string_view<char, std::__ndk1::char_traits<char> >) const
PUBLIC 403ac 0 AudioManager::populateSongsFromPath(std::__ndk1::__fs::filesystem::path)
PUBLIC 40adc 0 AudioManager::checkQueueLength()
PUBLIC 41198 0 AudioManager::checkSongPreload()
PUBLIC 41418 0 std::__ndk1::__fs::filesystem::directory_iterator::~directory_iterator[abi:ne190000]()
PUBLIC 41468 0 AudioManager::isValidAudioFile(std::__ndk1::__fs::filesystem::path)
PUBLIC 418a4 0 AudioManager::populateAudioSourceInfo(std::__ndk1::shared_ptr<AudioSource>)
PUBLIC 4308c 0 std::__ndk1::shared_ptr<AudioSource>::~shared_ptr[abi:ne190000]()
PUBLIC 430dc 0 _ZNSt6__ndk14pairIKNS_12basic_stringIcNS_11char_traitsIcEENS_9allocatorIcEEEES6_EC2B8ne190000IRA5_KcSC_TnNS_9enable_ifIXclsr10_CheckArgsE23__is_pair_constructibleIT_T0_EEEiE4typeELi0EEEOSE_OSF_
PUBLIC 43238 0 std::__ndk1::pair<std::__ndk1::basic_string<char, std::__ndk1::char_traits<char>, std::__ndk1::allocator<char> > const, std::__ndk1::basic_string<char, std::__ndk1::char_traits<char>, std::__ndk1::allocator<char> > >::~pair()
PUBLIC 4327c 0 std::__ndk1::map<std::__ndk1::basic_string<char, std::__ndk1::char_traits<char>, std::__ndk1::allocator<char> >, std::__ndk1::basic_string<char, std::__ndk1::char_traits<char>, std::__ndk1::allocator<char> >, std::__ndk1::less<std::__ndk1::basic_string<char, std::__ndk1::char_traits<char>, std::__ndk1::allocator<char> > >, std::__ndk1::allocator<std::__ndk1::pair<std::__ndk1::basic_string<char, std::__ndk1::char_traits<char>, std::__ndk1::allocator<char> > const, std::__ndk1::basic_string<char, std::__ndk1::char_traits<char>, std::__ndk1::allocator<char> > > > >::map[abi:ne190000](std::initializer_list<std::__ndk1::pair<std::__ndk1::basic_string<char, std::__ndk1::char_traits<char>, std::__ndk1::allocator<char> > const, std::__ndk1::basic_string<char, std::__ndk1::char_traits<char>, std::__ndk1::allocator<char> > > >, std::__ndk1::less<std::__ndk1::basic_string<char, std::__ndk1::char_traits<char>, std::__ndk1::allocator<char> > > const&)
PUBLIC 4357c 0 AudioManager::figureOutFallbackName(std::__ndk1::__fs::filesystem::path)
PUBLIC 4373c 0 AudioManager::populateStringTag(FMOD_TAG, bool, std::__ndk1::shared_ptr<AudioSource>)
PUBLIC 43e58 0 AudioManager::filterNameThruRegex(std::__ndk1::basic_string<char, std::__ndk1::char_traits<char>, std::__ndk1::allocator<char> >)
PUBLIC 445d0 0 geode::log::NestScope::~NestScope()
PUBLIC 445f4 0 std::__ndk1::basic_regex<char, std::__ndk1::regex_traits<char> >::~basic_regex()
PUBLIC 44654 0 AudioManager::nextSong()
PUBLIC 44944 0 AudioManager::shouldAllowAudioFunctions()
PUBLIC 44980 0 AudioManager::getCurrentSong()
PUBLIC 449e0 0 AudioManager::startPlayingCurrentSong()
PUBLIC 451f8 0 AudioManager::prevSong()
PUBLIC 458a0 0 AudioManager::rewind()
PUBLIC 45948 0 AudioManager::getCurrentSongPosition()
PUBLIC 4599c 0 AudioManager::fastForward()
PUBLIC 45ae0 0 AudioManager::getCurrentSongLength()
PUBLIC 45b8c 0 AudioManager::togglePause()
PUBLIC 45b9c 0 AudioManager::setPaused(bool)
PUBLIC 45cac 0 AudioManager::update(float)
PUBLIC 466c8 0 AudioManager::exitEditor()
PUBLIC 46974 0 geode::Mod::getSettingValue<bool>(std::__ndk1::basic_string_view<char, std::__ndk1::char_traits<char> >) const
PUBLIC 46aa0 0 AudioManager::updateLowPassFilter()
PUBLIC 46da8 0 AudioManager::enterEditor()
PUBLIC 46e58 0 geode::Mod::getSavedValue<bool>(std::__ndk1::basic_string_view<char, std::__ndk1::char_traits<char> >, bool const&)
PUBLIC 47034 0 std::__ndk1::basic_string<char, std::__ndk1::char_traits<char>, std::__ndk1::allocator<char> >::__throw_length_error[abi:ne190000]() const
PUBLIC 47048 0 std::__ndk1::__throw_length_error[abi:ne190000](char const*)
PUBLIC 47098 0 std::length_error::length_error[abi:ne190000](char const*)
PUBLIC 470c8 0 std::__throw_bad_array_new_length([abi:ne190000], void)
PUBLIC 470fc 0 __clang_call_terminate
PUBLIC 4710c 0 std::__ndk1::vector<std::__ndk1::shared_ptr<AudioSource>, std::__ndk1::allocator<std::__ndk1::shared_ptr<AudioSource> > >::__throw_length_error[abi:ne190000]() const
PUBLIC 47120 0 std::__ndk1::vector<Easer, std::__ndk1::allocator<Easer> >::__throw_length_error[abi:ne190000]() const
PUBLIC 47134 0 std::__ndk1::basic_string<char, std::__ndk1::char_traits<char>, std::__ndk1::allocator<char> >::__init_copy_ctor_external(char const*, unsigned long)
PUBLIC 471c8 0 std::__ndk1::basic_string<char, std::__ndk1::char_traits<char>, std::__ndk1::allocator<char> >::__throw_out_of_range[abi:ne190000]() const
PUBLIC 471dc 0 std::__ndk1::__throw_out_of_range[abi:ne190000](char const*)
PUBLIC 4722c 0 std::out_of_range::out_of_range[abi:ne190000](char const*)
PUBLIC 4725c 0 std::__ndk1::shared_ptr<std::__ndk1::__empty_state<char> >::~shared_ptr[abi:ne190000]()
PUBLIC 472ac 0 std::__ndk1::vector<Easer*, std::__ndk1::allocator<Easer*> >::__throw_length_error[abi:ne190000]() const
PUBLIC 472c0 0 std::__ndk1::__split_buffer<std::__ndk1::shared_ptr<AudioSource>*, std::__ndk1::allocator<std::__ndk1::shared_ptr<AudioSource>*> >::~__split_buffer()
PUBLIC 472f0 0 std::__ndk1::deque<std::__ndk1::shared_ptr<AudioSource>, std::__ndk1::allocator<std::__ndk1::shared_ptr<AudioSource> > >::__add_back_capacity(unsigned long)
PUBLIC 47cbc 0 std::__ndk1::__split_buffer<std::__ndk1::shared_ptr<AudioSource>*, std::__ndk1::allocator<std::__ndk1::shared_ptr<AudioSource>*> >::push_back(std::__ndk1::shared_ptr<AudioSource>*&&)
PUBLIC 47e44 0 std::__ndk1::__split_buffer<std::__ndk1::shared_ptr<AudioSource>*, std::__ndk1::allocator<std::__ndk1::shared_ptr<AudioSource>*> >::push_front(std::__ndk1::shared_ptr<AudioSource>*&&)
PUBLIC 47fd0 0 std::__ndk1::__thread_proxy[abi:ne190000]<std::__ndk1::tuple<std::__ndk1::unique_ptr<std::__ndk1::__thread_struct, std::__ndk1::default_delete<std::__ndk1::unique_ptr> >, void (AudioManager::*)(), std::__ndk1::unique_ptr<std::__ndk1::__thread_struct, std::__ndk1::default_delete<std::__ndk1::unique_ptr> >*> >(std::__ndk1::tuple<std::__ndk1::unique_ptr<std::__ndk1::__thread_struct, std::__ndk1::default_delete<std::__ndk1::unique_ptr> >, void (AudioManager::*)(), std::__ndk1::unique_ptr<std::__ndk1::__thread_struct, std::__ndk1::default_delete<std::__ndk1::unique_ptr> >*>)
PUBLIC 4809c 0 std::__ndk1::unique_ptr<std::__ndk1::tuple<std::__ndk1::unique_ptr<std::__ndk1::__thread_struct, std::__ndk1::default_delete<std::__ndk1::__thread_struct> >, void (AudioManager::*)(), AudioManager*>, std::__ndk1::default_delete<std::__ndk1::tuple<std::__ndk1::unique_ptr<std::__ndk1::__thread_struct, std::__ndk1::default_delete<std::__ndk1::__thread_struct> >, void (AudioManager::*)(), AudioManager*> > >::~unique_ptr[abi:ne190000]()
PUBLIC 480ec 0 std::__ndk1::unique_ptr<std::__ndk1::__thread_struct, std::__ndk1::default_delete<std::__ndk1::__thread_struct> >::~unique_ptr[abi:ne190000]()
PUBLIC 48128 0 std::__ndk1::shared_ptr<geode::FileSettingV3>::~shared_ptr[abi:ne190000]()
PUBLIC 48178 0 geode::cast::traverseTypeinfoFor(void*, geode::cast::ClassTypeinfoType const*, char const*)
PUBLIC 4827c 0 std::__ndk1::__function::__base<void ()>::~__base()
PUBLIC 48280 0 std::__ndk1::__function::__func<AudioManager::populateSongsThread()::$_0, std::__ndk1::allocator<AudioManager::populateSongsThread()::$_0>, void ()>::~__func()
PUBLIC 48284 0 std::__ndk1::__function::__func<AudioManager::populateSongsThread()::$_0, std::__ndk1::allocator<AudioManager::populateSongsThread()::$_0>, void ()>::__clone() const
PUBLIC 482b8 0 std::__ndk1::__function::__func<AudioManager::populateSongsThread()::$_0, std::__ndk1::allocator<AudioManager::populateSongsThread()::$_0>, void ()>::__clone(std::__ndk1::__function::__base<void ()>*) const
PUBLIC 482cc 0 std::__ndk1::__function::__func<AudioManager::populateSongsThread()::$_0, std::__ndk1::allocator<AudioManager::populateSongsThread()::$_0>, void ()>::destroy()
PUBLIC 482d0 0 std::__ndk1::__function::__func<AudioManager::populateSongsThread()::$_0, std::__ndk1::allocator<AudioManager::populateSongsThread()::$_0>, void ()>::destroy_deallocate()
PUBLIC 482d4 0 std::__ndk1::__function::__func<AudioManager::populateSongsThread()::$_0, std::__ndk1::allocator<AudioManager::populateSongsThread()::$_0>, void ()>::operator()()
PUBLIC 482fc 0 std::__ndk1::__function::__func<AudioManager::populateSongsThread()::$_0, std::__ndk1::allocator<AudioManager::populateSongsThread()::$_0>, void ()>::target(std::type_info const&) const
PUBLIC 48318 0 std::__ndk1::__function::__func<AudioManager::populateSongsThread()::$_0, std::__ndk1::allocator<AudioManager::populateSongsThread()::$_0>, void ()>::target_type() const
PUBLIC 48324 0 eclipse::events::SetRiftVariableEvent<long>::~SetRiftVariableEvent()
PUBLIC 48348 0 std::__ndk1::__shared_ptr_emplace<AudioSource, std::__ndk1::allocator<AudioSource> >::~__shared_ptr_emplace()
PUBLIC 48358 0 std::__ndk1::__shared_ptr_emplace<AudioSource, std::__ndk1::allocator<AudioSource> >::~__shared_ptr_emplace()
PUBLIC 48388 0 std::__ndk1::__shared_ptr_emplace<AudioSource, std::__ndk1::allocator<AudioSource> >::__on_zero_shared()
PUBLIC 48390 0 std::__ndk1::__shared_ptr_emplace<AudioSource, std::__ndk1::allocator<AudioSource> >::__on_zero_shared_weak()
PUBLIC 48394 0 std::__ndk1::__function::__func<AudioManager::populateSongsFromPath(std::__ndk1::__fs::filesystem::path)::$_0, std::__ndk1::allocator<AudioManager::populateSongsFromPath(std::__ndk1::__fs::filesystem::path)::$_0>, void ()>::~__func()
PUBLIC 483f0 0 std::__ndk1::__function::__func<AudioManager::populateSongsFromPath(std::__ndk1::__fs::filesystem::path)::$_0, std::__ndk1::allocator<AudioManager::populateSongsFromPath(std::__ndk1::__fs::filesystem::path)::$_0>, void ()>::~__func()
PUBLIC 4845c 0 std::__ndk1::__function::__func<AudioManager::populateSongsFromPath(std::__ndk1::__fs::filesystem::path)::$_0, std::__ndk1::allocator<AudioManager::populateSongsFromPath(std::__ndk1::__fs::filesystem::path)::$_0>, void ()>::__clone() const
PUBLIC 484b4 0 std::__ndk1::__function::__func<AudioManager::populateSongsFromPath(std::__ndk1::__fs::filesystem::path)::$_0, std::__ndk1::allocator<AudioManager::populateSongsFromPath(std::__ndk1::__fs::filesystem::path)::$_0>, void ()>::__clone(std::__ndk1::__function::__base<void ()>*) const
PUBLIC 484f0 0 std::__ndk1::__function::__func<AudioManager::populateSongsFromPath(std::__ndk1::__fs::filesystem::path)::$_0, std::__ndk1::allocator<AudioManager::populateSongsFromPath(std::__ndk1::__fs::filesystem::path)::$_0>, void ()>::destroy()
PUBLIC 48540 0 std::__ndk1::__function::__func<AudioManager::populateSongsFromPath(std::__ndk1::__fs::filesystem::path)::$_0, std::__ndk1::allocator<AudioManager::populateSongsFromPath(std::__ndk1::__fs::filesystem::path)::$_0>, void ()>::destroy_deallocate()
PUBLIC 485a0 0 std::__ndk1::__function::__func<AudioManager::populateSongsFromPath(std::__ndk1::__fs::filesystem::path)::$_0, std::__ndk1::allocator<AudioManager::populateSongsFromPath(std::__ndk1::__fs::filesystem::path)::$_0>, void ()>::operator()()
PUBLIC 4865c 0 std::__ndk1::__function::__func<AudioManager::populateSongsFromPath(std::__ndk1::__fs::filesystem::path)::$_0, std::__ndk1::allocator<AudioManager::populateSongsFromPath(std::__ndk1::__fs::filesystem::path)::$_0>, void ()>::target(std::type_info const&) const
PUBLIC 48678 0 std::__ndk1::__function::__func<AudioManager::populateSongsFromPath(std::__ndk1::__fs::filesystem::path)::$_0, std::__ndk1::allocator<AudioManager::populateSongsFromPath(std::__ndk1::__fs::filesystem::path)::$_0>, void ()>::target_type() const
PUBLIC 48684 0 std::__ndk1::unique_ptr<std::__ndk1::__tree_node<std::__ndk1::__value_type<std::__ndk1::basic_string<char, std::__ndk1::char_traits<char>, std::__ndk1::allocator<char> >, std::__ndk1::basic_string<char, std::__ndk1::char_traits<char>, std::__ndk1::allocator<char> > >, void*>, std::__ndk1::__tree_node_destructor<std::__ndk1::allocator<std::__ndk1::__tree_node<std::__ndk1::__value_type<std::__ndk1::basic_string<char, std::__ndk1::char_traits<char>, std::__ndk1::allocator<char> >, std::__ndk1::basic_string<char, std::__ndk1::char_traits<char>, std::__ndk1::allocator<char> > >, void*> > > >::~unique_ptr[abi:ne190000]()
PUBLIC 486e0 0 std::__ndk1::__tree_balance_after_insert[abi:ne190000]<std::__ndk1::__tree_node_base<void*>*>(std::__ndk1::__tree_node_base<void*>*, std::__ndk1::__tree_node_base<void*>*)
PUBLIC 48888 0 std::__ndk1::__tree<std::__ndk1::__value_type<std::__ndk1::basic_string<char, std::__ndk1::char_traits<char>, std::__ndk1::allocator<char> >, std::__ndk1::basic_string<char, std::__ndk1::char_traits<char>, std::__ndk1::allocator<char> > >, std::__ndk1::__map_value_compare<std::__ndk1::basic_string<char, std::__ndk1::char_traits<char>, std::__ndk1::allocator<char> >, std::__ndk1::__value_type<std::__ndk1::basic_string<char, std::__ndk1::char_traits<char>, std::__ndk1::allocator<char> >, std::__ndk1::basic_string<char, std::__ndk1::char_traits<char>, std::__ndk1::allocator<char> > >, std::__ndk1::less<std::__ndk1::basic_string<char, std::__ndk1::char_traits<char>, std::__ndk1::allocator<char> > >, true>, std::__ndk1::allocator<std::__ndk1::__value_type<std::__ndk1::basic_string<char, std::__ndk1::char_traits<char>, std::__ndk1::allocator<char> >, std::__ndk1::basic_string<char, std::__ndk1::char_traits<char>, std::__ndk1::allocator<char> > > > >::destroy(std::__ndk1::__tree_node<std::__ndk1::__value_type<std::__ndk1::basic_string<char, std::__ndk1::char_traits<char>, std::__ndk1::allocator<char> >, std::__ndk1::basic_string<char, std::__ndk1::char_traits<char>, std::__ndk1::allocator<char> > >, void*>*)
PUBLIC 488f8 0 std::__ndk1::__tree<std::__ndk1::__value_type<std::__ndk1::basic_string<char, std::__ndk1::char_traits<char>, std::__ndk1::allocator<char> >, std::__ndk1::basic_string<char, std::__ndk1::char_traits<char>, std::__ndk1::allocator<char> > >, std::__ndk1::__map_value_compare<std::__ndk1::basic_string<char, std::__ndk1::char_traits<char>, std::__ndk1::allocator<char> >, std::__ndk1::__value_type<std::__ndk1::basic_string<char, std::__ndk1::char_traits<char>, std::__ndk1::allocator<char> >, std::__ndk1::basic_string<char, std::__ndk1::char_traits<char>, std::__ndk1::allocator<char> > >, std::__ndk1::less<std::__ndk1::basic_string<char, std::__ndk1::char_traits<char>, std::__ndk1::allocator<char> > >, true>, std::__ndk1::allocator<std::__ndk1::__value_type<std::__ndk1::basic_string<char, std::__ndk1::char_traits<char>, std::__ndk1::allocator<char> >, std::__ndk1::basic_string<char, std::__ndk1::char_traits<char>, std::__ndk1::allocator<char> > > > >::__emplace_unique_key_args<std::__ndk1::basic_string<char, std::__ndk1::char_traits<char>, std::__ndk1::allocator<char> >, std::__ndk1::piecewise_construct_t const&, std::__ndk1::tuple<std::__ndk1::basic_string<char, std::__ndk1::char_traits<char>, std::__ndk1::allocator<char> >&&>, std::__ndk1::tuple<> >(std::__ndk1::basic_string<char, std::__ndk1::char_traits<char>, std::__ndk1::allocator<char> > const&, std::__ndk1::piecewise_construct_t const&, std::__ndk1::tuple<std::__ndk1::basic_string<char, std::__ndk1::char_traits<char>, std::__ndk1::allocator<char> >&&>, std::__ndk1::tuple<>)
PUBLIC 48a60 0 std::__ndk1::__function::__func<AudioManager::populateAlbumCover(std::__ndk1::shared_ptr<AudioSource>, FMOD_TAG)::$_0, std::__ndk1::allocator<AudioManager::populateAlbumCover(std::__ndk1::shared_ptr<AudioSource>, FMOD_TAG)::$_0>, void ()>::~__func()
PUBLIC 48abc 0 std::__ndk1::__function::__func<AudioManager::populateAlbumCover(std::__ndk1::shared_ptr<AudioSource>, FMOD_TAG)::$_0, std::__ndk1::allocator<AudioManager::populateAlbumCover(std::__ndk1::shared_ptr<AudioSource>, FMOD_TAG)::$_0>, void ()>::~__func()
PUBLIC 48b28 0 std::__ndk1::__function::__func<AudioManager::populateAlbumCover(std::__ndk1::shared_ptr<AudioSource>, FMOD_TAG)::$_0, std::__ndk1::allocator<AudioManager::populateAlbumCover(std::__ndk1::shared_ptr<AudioSource>, FMOD_TAG)::$_0>, void ()>::__clone() const
PUBLIC 48b80 0 std::__ndk1::__function::__func<AudioManager::populateAlbumCover(std::__ndk1::shared_ptr<AudioSource>, FMOD_TAG)::$_0, std::__ndk1::allocator<AudioManager::populateAlbumCover(std::__ndk1::shared_ptr<AudioSource>, FMOD_TAG)::$_0>, void ()>::__clone(std::__ndk1::__function::__base<void ()>*) const
PUBLIC 48bcc 0 std::__ndk1::__function::__func<AudioManager::populateAlbumCover(std::__ndk1::shared_ptr<AudioSource>, FMOD_TAG)::$_0, std::__ndk1::allocator<AudioManager::populateAlbumCover(std::__ndk1::shared_ptr<AudioSource>, FMOD_TAG)::$_0>, void ()>::destroy()
PUBLIC 48c1c 0 std::__ndk1::__function::__func<AudioManager::populateAlbumCover(std::__ndk1::shared_ptr<AudioSource>, FMOD_TAG)::$_0, std::__ndk1::allocator<AudioManager::populateAlbumCover(std::__ndk1::shared_ptr<AudioSource>, FMOD_TAG)::$_0>, void ()>::destroy_deallocate()
PUBLIC 48c7c 0 std::__ndk1::__function::__func<AudioManager::populateAlbumCover(std::__ndk1::shared_ptr<AudioSource>, FMOD_TAG)::$_0, std::__ndk1::allocator<AudioManager::populateAlbumCover(std::__ndk1::shared_ptr<AudioSource>, FMOD_TAG)::$_0>, void ()>::operator()()
PUBLIC 48e58 0 std::__ndk1::__function::__func<AudioManager::populateAlbumCover(std::__ndk1::shared_ptr<AudioSource>, FMOD_TAG)::$_0, std::__ndk1::allocator<AudioManager::populateAlbumCover(std::__ndk1::shared_ptr<AudioSource>, FMOD_TAG)::$_0>, void ()>::target(std::type_info const&) const
PUBLIC 48e74 0 std::__ndk1::__function::__func<AudioManager::populateAlbumCover(std::__ndk1::shared_ptr<AudioSource>, FMOD_TAG)::$_0, std::__ndk1::allocator<AudioManager::populateAlbumCover(std::__ndk1::shared_ptr<AudioSource>, FMOD_TAG)::$_0>, void ()>::target_type() const
PUBLIC 48e80 0 std::__ndk1::basic_regex<char, std::__ndk1::regex_traits<char> >::__parse<char const*>(char const*, char const*)
PUBLIC 49544 0 std::__ndk1::__throw_regex_error[abi:ne190000]<(std::__ndk1::regex_constants::error_type)17>()
PUBLIC 49590 0 std::__ndk1::basic_regex<char, std::__ndk1::regex_traits<char> >::__parse_ecma_exp<char const*>(char const*, char const*)
PUBLIC 497fc 0 std::__ndk1::basic_regex<char, std::__ndk1::regex_traits<char> >::__parse_basic_reg_exp<char const*>(char const*, char const*)
PUBLIC 499a4 0 std::__ndk1::basic_regex<char, std::__ndk1::regex_traits<char> >::__parse_extended_reg_exp<char const*>(char const*, char const*)
PUBLIC 49b14 0 std::__ndk1::__throw_regex_error[abi:ne190000]<(std::__ndk1::regex_constants::error_type)14>()
PUBLIC 49b60 0 std::__ndk1::__end_state<char>::~__end_state()
PUBLIC 49b64 0 std::__ndk1::__end_state<char>::__exec(std::__ndk1::__state<char>&) const
PUBLIC 49b70 0 std::__ndk1::__node<char>::__exec_split(bool, std::__ndk1::__state<char>&) const
PUBLIC 49b74 0 std::__ndk1::__node<char>::__exec(std::__ndk1::__state<char>&) const
PUBLIC 49b78 0 std::__ndk1::__shared_ptr_pointer<std::__ndk1::__empty_state<char>*, std::__ndk1::shared_ptr<std::__ndk1::__empty_state<char> >::__shared_ptr_default_delete<std::__ndk1::__empty_state<char>, std::__ndk1::__empty_state<char> >, std::__ndk1::allocator<std::__ndk1::__empty_state<char> > >::~__shared_ptr_pointer()
PUBLIC 49b9c 0 std::__ndk1::__shared_ptr_pointer<std::__ndk1::__empty_state<char>*, std::__ndk1::shared_ptr<std::__ndk1::__empty_state<char> >::__shared_ptr_default_delete<std::__ndk1::__empty_state<char>, std::__ndk1::__empty_state<char> >, std::__ndk1::allocator<std::__ndk1::__empty_state<char> > >::__on_zero_shared()
PUBLIC 49bb4 0 std::__ndk1::__shared_ptr_pointer<std::__ndk1::__empty_state<char>*, std::__ndk1::shared_ptr<std::__ndk1::__empty_state<char> >::__shared_ptr_default_delete<std::__ndk1::__empty_state<char>, std::__ndk1::__empty_state<char> >, std::__ndk1::allocator<std::__ndk1::__empty_state<char> > >::__get_deleter(std::type_info const&) const
PUBLIC 49bd0 0 std::__ndk1::__shared_ptr_pointer<std::__ndk1::__empty_state<char>*, std::__ndk1::shared_ptr<std::__ndk1::__empty_state<char> >::__shared_ptr_default_delete<std::__ndk1::__empty_state<char>, std::__ndk1::__empty_state<char> >, std::__ndk1::allocator<std::__ndk1::__empty_state<char> > >::__on_zero_shared_weak()
PUBLIC 49bd4 0 std::__ndk1::__empty_state<char>::~__empty_state()
PUBLIC 49c1c 0 std::__ndk1::__empty_state<char>::__exec(std::__ndk1::__state<char>&) const
PUBLIC 49c30 0 std::__ndk1::__owns_one_state<char>::~__owns_one_state()
PUBLIC 49c78 0 std::__ndk1::basic_regex<char, std::__ndk1::regex_traits<char> >::__parse_assertion<char const*>(char const*, char const*)
PUBLIC 49fdc 0 std::__ndk1::basic_regex<char, std::__ndk1::regex_traits<char> >::__parse_atom<char const*>(char const*, char const*)
PUBLIC 4a620 0 std::__ndk1::basic_regex<char, std::__ndk1::regex_traits<char> >::__parse_ERE_dupl_symbol<char const*>(char const*, char const*, std::__ndk1::__owns_one_state<char>*, unsigned int, unsigned int)
PUBLIC 4aa14 0 std::__ndk1::basic_regex<char, std::__ndk1::regex_traits<char> >::basic_regex[abi:ne190000]()
PUBLIC 4aa80 0 std::__ndk1::basic_regex<char, std::__ndk1::regex_traits<char> >::__push_lookahead(std::__ndk1::basic_regex<char, std::__ndk1::regex_traits<char> > const&, bool, unsigned int)
PUBLIC 4ab34 0 std::__ndk1::__throw_regex_error[abi:ne190000]<(std::__ndk1::regex_constants::error_type)6>()
PUBLIC 4ab80 0 std::__ndk1::__l_anchor_multiline<char>::~__l_anchor_multiline()
PUBLIC 4abc8 0 std::__ndk1::__l_anchor_multiline<char>::__exec(std::__ndk1::__state<char>&) const
PUBLIC 4ac2c 0 std::__ndk1::__r_anchor_multiline<char>::~__r_anchor_multiline()
PUBLIC 4ac74 0 std::__ndk1::__r_anchor_multiline<char>::__exec(std::__ndk1::__state<char>&) const
PUBLIC 4acc8 0 std::__ndk1::__word_boundary<char, std::__ndk1::regex_traits<char> >::~__word_boundary()
PUBLIC 4ad24 0 std::__ndk1::__word_boundary<char, std::__ndk1::regex_traits<char> >::~__word_boundary()
PUBLIC 4ad7c 0 std::__ndk1::__word_boundary<char, std::__ndk1::regex_traits<char> >::__exec(std::__ndk1::__state<char>&) const
PUBLIC 4ae8c 0 std::__ndk1::__lookahead<char, std::__ndk1::regex_traits<char> >::~__lookahead()
PUBLIC 4af1c 0 std::__ndk1::__lookahead<char, std::__ndk1::regex_traits<char> >::~__lookahead()
PUBLIC 4afa8 0 std::__ndk1::__lookahead<char, std::__ndk1::regex_traits<char> >::__exec(std::__ndk1::__state<char>&) const
PUBLIC 4b178 0 std::__ndk1::basic_regex<char, std::__ndk1::regex_traits<char> >::__match_at_start_ecma<std::__ndk1::allocator<std::__ndk1::sub_match<char const*> > >(char const*, char const*, std::__ndk1::match_results<char const*, std::__ndk1::allocator<std::__ndk1::sub_match<char const*> > >&, std::__ndk1::regex_constants::match_flag_type, bool) const
PUBLIC 4b5c4 0 std::__ndk1::vector<std::__ndk1::sub_match<char const*>, std::__ndk1::allocator<std::__ndk1::sub_match<char const*> > >::assign(unsigned long, std::__ndk1::sub_match<char const*> const&)
PUBLIC 4b794 0 std::__ndk1::vector<std::__ndk1::sub_match<char const*>, std::__ndk1::allocator<std::__ndk1::sub_match<char const*> > >::__throw_length_error[abi:ne190000]() const
PUBLIC 4b7a8 0 std::__ndk1::__state<char>::~__state()
PUBLIC 4b7ec 0 std::__ndk1::__throw_regex_error[abi:ne190000]<(std::__ndk1::regex_constants::error_type)12>()
PUBLIC 4b838 0 std::__ndk1::__state<char>::__state(std::__ndk1::__state<char> const&)
PUBLIC 4b9a8 0 std::__ndk1::__throw_regex_error[abi:ne190000]<(std::__ndk1::regex_constants::error_type)16>()
PUBLIC 4b9f4 0 std::__ndk1::vector<std::__ndk1::__state<char>, std::__ndk1::allocator<std::__ndk1::__state<char> > >::~vector[abi:ne190000]()
PUBLIC 4ba8c 0 std::__ndk1::vector<std::__ndk1::__state<char>, std::__ndk1::allocator<std::__ndk1::__state<char> > >::__push_back_slow_path<std::__ndk1::__state<char> >(std::__ndk1::__state<char>&&)
PUBLIC 4bc58 0 std::__ndk1::vector<std::__ndk1::__state<char>, std::__ndk1::allocator<std::__ndk1::__state<char> > >::__throw_length_error[abi:ne190000]() const
PUBLIC 4bc6c 0 std::__ndk1::vector<std::__ndk1::sub_match<char const*>, std::__ndk1::allocator<std::__ndk1::sub_match<char const*> > >::__append(unsigned long, std::__ndk1::sub_match<char const*> const&)
PUBLIC 4bdf4 0 std::__ndk1::vector<std::__ndk1::pair<unsigned long, char const*>, std::__ndk1::allocator<std::__ndk1::pair<unsigned long, char const*> > >::__append(unsigned long)
PUBLIC 4bf1c 0 std::__ndk1::vector<std::__ndk1::pair<unsigned long, char const*>, std::__ndk1::allocator<std::__ndk1::pair<unsigned long, char const*> > >::__throw_length_error[abi:ne190000]() const
PUBLIC 4bf30 0 std::__ndk1::basic_regex<char, std::__ndk1::regex_traits<char> >::__parse_bracket_expression<char const*>(char const*, char const*)
PUBLIC 4d044 0 std::__ndk1::__throw_regex_error[abi:ne190000]<(std::__ndk1::regex_constants::error_type)11>()
PUBLIC 4d090 0 std::__ndk1::__match_any_but_newline<char>::~__match_any_but_newline()
PUBLIC 4d0d8 0 std::__ndk1::__throw_regex_error[abi:ne190000]<(std::__ndk1::regex_constants::error_type)3>()
PUBLIC 4d124 0 std::__ndk1::basic_regex<char, std::__ndk1::regex_traits<char> >::__parse_character_escape<char const*>(char const*, char const*, std::__ndk1::basic_string<char, std::__ndk1::char_traits<char>, std::__ndk1::allocator<char> >*)
PUBLIC 4d630 0 std::__ndk1::basic_regex<char, std::__ndk1::regex_traits<char> >::__push_char(char)
PUBLIC 4d770 0 std::__ndk1::__throw_regex_error[abi:ne190000]<(std::__ndk1::regex_constants::error_type)4>()
PUBLIC 4d7bc 0 std::__ndk1::basic_regex<char, std::__ndk1::regex_traits<char> >::__push_back_ref(int)
PUBLIC 4d884 0 std::__ndk1::__match_char_icase<char, std::__ndk1::regex_traits<char> >::~__match_char_icase()
PUBLIC 4d8e0 0 std::__ndk1::__match_char_icase<char, std::__ndk1::regex_traits<char> >::~__match_char_icase()
PUBLIC 4d938 0 std::__ndk1::__match_char_icase<char, std::__ndk1::regex_traits<char> >::__exec(std::__ndk1::__state<char>&) const
PUBLIC 4d9b8 0 std::__ndk1::__match_char_collate<char, std::__ndk1::regex_traits<char> >::~__match_char_collate()
PUBLIC 4da14 0 std::__ndk1::__match_char_collate<char, std::__ndk1::regex_traits<char> >::~__match_char_collate()
PUBLIC 4da6c 0 std::__ndk1::__match_char_collate<char, std::__ndk1::regex_traits<char> >::__exec(std::__ndk1::__state<char>&) const
PUBLIC 4dab4 0 std::__ndk1::__match_char<char>::~__match_char()
PUBLIC 4dafc 0 std::__ndk1::__match_char<char>::__exec(std::__ndk1::__state<char>&) const
PUBLIC 4db44 0 std::__ndk1::__back_ref_icase<char, std::__ndk1::regex_traits<char> >::~__back_ref_icase()
PUBLIC 4dba0 0 std::__ndk1::__back_ref_icase<char, std::__ndk1::regex_traits<char> >::~__back_ref_icase()
PUBLIC 4dbf8 0 std::__ndk1::__back_ref_icase<char, std::__ndk1::regex_traits<char> >::__exec(std::__ndk1::__state<char>&) const
PUBLIC 4dcf0 0 std::__ndk1::__back_ref_collate<char, std::__ndk1::regex_traits<char> >::~__back_ref_collate()
PUBLIC 4dd4c 0 std::__ndk1::__back_ref_collate<char, std::__ndk1::regex_traits<char> >::~__back_ref_collate()
PUBLIC 4dda4 0 std::__ndk1::__back_ref_collate<char, std::__ndk1::regex_traits<char> >::__exec(std::__ndk1::__state<char>&) const
PUBLIC 4de2c 0 std::__ndk1::__back_ref<char>::~__back_ref()
PUBLIC 4de74 0 std::__ndk1::__back_ref<char>::__exec(std::__ndk1::__state<char>&) const
PUBLIC 4df3c 0 std::__ndk1::__bracket_expression<char, std::__ndk1::regex_traits<char> >::__add_char[abi:ne190000](char)
PUBLIC 4e0c0 0 std::__ndk1::__bracket_expression<char, std::__ndk1::regex_traits<char> >::__bracket_expression[abi:ne190000](std::__ndk1::regex_traits<char> const&, std::__ndk1::__node<char>*, bool, bool, bool)
PUBLIC 4e298 0 std::__ndk1::vector<std::__ndk1::basic_string<char, std::__ndk1::char_traits<char>, std::__ndk1::allocator<char> >, std::__ndk1::allocator<std::__ndk1::basic_string<char, std::__ndk1::char_traits<char>, std::__ndk1::allocator<char> > > >::~vector[abi:ne190000]()
PUBLIC 4e314 0 std::__ndk1::vector<std::__ndk1::pair<std::__ndk1::basic_string<char, std::__ndk1::char_traits<char>, std::__ndk1::allocator<char> >, std::__ndk1::basic_string<char, std::__ndk1::char_traits<char>, std::__ndk1::allocator<char> > >, std::__ndk1::allocator<std::__ndk1::pair<std::__ndk1::basic_string<char, std::__ndk1::char_traits<char>, std::__ndk1::allocator<char> >, std::__ndk1::basic_string<char, std::__ndk1::char_traits<char>, std::__ndk1::allocator<char> > > > >::~vector[abi:ne190000]()
PUBLIC 4e3c0 0 std::__ndk1::__bracket_expression<char, std::__ndk1::regex_traits<char> >::~__bracket_expression()
PUBLIC 4e514 0 std::__ndk1::__bracket_expression<char, std::__ndk1::regex_traits<char> >::~__bracket_expression()
PUBLIC 4e538 0 std::__ndk1::__bracket_expression<char, std::__ndk1::regex_traits<char> >::__exec(std::__ndk1::__state<char>&) const
PUBLIC 4f16c 0 std::__ndk1::pair<std::__ndk1::basic_string<char, std::__ndk1::char_traits<char>, std::__ndk1::allocator<char> >, std::__ndk1::basic_string<char, std::__ndk1::char_traits<char>, std::__ndk1::allocator<char> > >::~pair()
PUBLIC 4f1b0 0 std::__ndk1::basic_string<char, std::__ndk1::char_traits<char>, std::__ndk1::allocator<char> >::__assign_no_alias<true>(char const*, unsigned long)
PUBLIC 4f25c 0 std::__ndk1::basic_string<char, std::__ndk1::char_traits<char>, std::__ndk1::allocator<char> >::__assign_no_alias<false>(char const*, unsigned long)
PUBLIC 4f398 0 std::__ndk1::regex_traits<char>::__transform_primary<char*>(char*, char*, char) const
PUBLIC 4f56c 0 std::__ndk1::vector<char, std::__ndk1::allocator<char> >::__throw_length_error[abi:ne190000]() const
PUBLIC 4f580 0 std::__ndk1::__throw_regex_error[abi:ne190000]<(std::__ndk1::regex_constants::error_type)5>()
PUBLIC 4f5cc 0 std::__ndk1::basic_regex<char, std::__ndk1::regex_traits<char> >::__parse_class_escape<char const*>(char const*, char const*, std::__ndk1::basic_string<char, std::__ndk1::char_traits<char>, std::__ndk1::allocator<char> >&, std::__ndk1::__bracket_expression<char, std::__ndk1::regex_traits<char> >*)
PUBLIC 4f8dc 0 std::__ndk1::basic_regex<char, std::__ndk1::regex_traits<char> >::__parse_awk_escape<char const*>(char const*, char const*, std::__ndk1::basic_string<char, std::__ndk1::char_traits<char>, std::__ndk1::allocator<char> >*)
PUBLIC 4fda0 0 std::__ndk1::__bracket_expression<char, std::__ndk1::regex_traits<char> >::__add_digraph[abi:ne190000](char, char)
PUBLIC 4ffb8 0 std::__ndk1::__throw_regex_error[abi:ne190000]<(std::__ndk1::regex_constants::error_type)1>()
PUBLIC 50004 0 std::__ndk1::regex_traits<char>::__lookup_collatename<char const*>(char const*, char const*, char) const
PUBLIC 502cc 0 std::__ndk1::vector<std::__ndk1::basic_string<char, std::__ndk1::char_traits<char>, std::__ndk1::allocator<char> >, std::__ndk1::allocator<std::__ndk1::basic_string<char, std::__ndk1::char_traits<char>, std::__ndk1::allocator<char> > > >::__push_back_slow_path<std::__ndk1::basic_string<char, std::__ndk1::char_traits<char>, std::__ndk1::allocator<char> > const&>(std::__ndk1::basic_string<char, std::__ndk1::char_traits<char>, std::__ndk1::allocator<char> > const&)
PUBLIC 5047c 0 std::__ndk1::__split_buffer<std::__ndk1::basic_string<char, std::__ndk1::char_traits<char>, std::__ndk1::allocator<char> >, std::__ndk1::allocator<std::__ndk1::basic_string<char, std::__ndk1::char_traits<char>, std::__ndk1::allocator<char> > >&>::~__split_buffer()
PUBLIC 504e4 0 std::__ndk1::vector<std::__ndk1::basic_string<char, std::__ndk1::char_traits<char>, std::__ndk1::allocator<char> >, std::__ndk1::allocator<std::__ndk1::basic_string<char, std::__ndk1::char_traits<char>, std::__ndk1::allocator<char> > > >::__throw_length_error[abi:ne190000]() const
PUBLIC 504f8 0 std::__ndk1::__throw_regex_error[abi:ne190000]<(std::__ndk1::regex_constants::error_type)2>()
PUBLIC 50544 0 std::__ndk1::regex_traits<char>::transform<std::__ndk1::__wrap_iter<char*> >(std::__ndk1::__wrap_iter<char*>, std::__ndk1::__wrap_iter<char*>) const
PUBLIC 50708 0 std::__ndk1::__throw_regex_error[abi:ne190000]<(std::__ndk1::regex_constants::error_type)9>()
PUBLIC 50754 0 std::__ndk1::vector<std::__ndk1::pair<std::__ndk1::basic_string<char, std::__ndk1::char_traits<char>, std::__ndk1::allocator<char> >, std::__ndk1::basic_string<char, std::__ndk1::char_traits<char>, std::__ndk1::allocator<char> > >, std::__ndk1::allocator<std::__ndk1::pair<std::__ndk1::basic_string<char, std::__ndk1::char_traits<char>, std::__ndk1::allocator<char> >, std::__ndk1::basic_string<char, std::__ndk1::char_traits<char>, std::__ndk1::allocator<char> > > > >::__push_back_slow_path<std::__ndk1::pair<std::__ndk1::basic_string<char, std::__ndk1::char_traits<char>, std::__ndk1::allocator<char> >, std::__ndk1::basic_string<char, std::__ndk1::char_traits<char>, std::__ndk1::allocator<char> > > >(std::__ndk1::pair<std::__ndk1::basic_string<char, std::__ndk1::char_traits<char>, std::__ndk1::allocator<char> >, std::__ndk1::basic_string<char, std::__ndk1::char_traits<char>, std::__ndk1::allocator<char> > >&&)
PUBLIC 508fc 0 std::__ndk1::vector<std::__ndk1::pair<std::__ndk1::basic_string<char, std::__ndk1::char_traits<char>, std::__ndk1::allocator<char> >, std::__ndk1::basic_string<char, std::__ndk1::char_traits<char>, std::__ndk1::allocator<char> > >, std::__ndk1::allocator<std::__ndk1::pair<std::__ndk1::basic_string<char, std::__ndk1::char_traits<char>, std::__ndk1::allocator<char> >, std::__ndk1::basic_string<char, std::__ndk1::char_traits<char>, std::__ndk1::allocator<char> > > > >::__throw_length_error[abi:ne190000]() const
PUBLIC 50910 0 std::__ndk1::vector<std::__ndk1::pair<char, char>, std::__ndk1::allocator<std::__ndk1::pair<char, char> > >::__throw_length_error[abi:ne190000]() const
PUBLIC 50924 0 std::__ndk1::__begin_marked_subexpression<char>::~__begin_marked_subexpression()
PUBLIC 5096c 0 std::__ndk1::__begin_marked_subexpression<char>::__exec(std::__ndk1::__state<char>&) const
PUBLIC 5099c 0 std::__ndk1::__end_marked_subexpression<char>::~__end_marked_subexpression()
PUBLIC 509e4 0 std::__ndk1::__end_marked_subexpression<char>::__exec(std::__ndk1::__state<char>&) const
PUBLIC 50a1c 0 std::__ndk1::basic_regex<char, std::__ndk1::regex_traits<char> >::__push_loop(unsigned long, unsigned long, std::__ndk1::__owns_one_state<char>*, unsigned long, unsigned long, bool)
PUBLIC 50b5c 0 std::__ndk1::__throw_regex_error[abi:ne190000]<(std::__ndk1::regex_constants::error_type)8>()
PUBLIC 50ba8 0 std::__ndk1::__throw_regex_error[abi:ne190000]<(std::__ndk1::regex_constants::error_type)7>()
PUBLIC 50bf4 0 std::__ndk1::__loop<char>::~__loop()
PUBLIC 50c5c 0 std::__ndk1::__loop<char>::__exec(std::__ndk1::__state<char>&) const
PUBLIC 50e20 0 std::__ndk1::__loop<char>::__exec_split(bool, std::__ndk1::__state<char>&) const
PUBLIC 50ee4 0 std::__ndk1::__owns_two_states<char>::~__owns_two_states()
PUBLIC 50f4c 0 std::__ndk1::__repeat_one_loop<char>::~__repeat_one_loop()
PUBLIC 50f50 0 std::__ndk1::__repeat_one_loop<char>::__exec(std::__ndk1::__state<char>&) const
PUBLIC 50f64 0 std::__ndk1::__owns_two_states<char>::~__owns_two_states()
PUBLIC 50fd0 0 std::__ndk1::__alternate<char>::~__alternate()
PUBLIC 51038 0 std::__ndk1::__alternate<char>::__exec(std::__ndk1::__state<char>&) const
PUBLIC 51044 0 std::__ndk1::__alternate<char>::__exec_split(bool, std::__ndk1::__state<char>&) const
PUBLIC 51068 0 std::__ndk1::__node<char>::~__node()
PUBLIC 5106c 0 std::__ndk1::__empty_non_own_state<char>::~__empty_non_own_state()
PUBLIC 51070 0 std::__ndk1::__empty_non_own_state<char>::__exec(std::__ndk1::__state<char>&) const
PUBLIC 51084 0 std::__ndk1::__throw_regex_error[abi:ne190000]<(std::__ndk1::regex_constants::error_type)15>()
PUBLIC 510d0 0 std::__ndk1::basic_regex<char, std::__ndk1::regex_traits<char> >::__parse_nondupl_RE<char const*>(char const*, char const*)
PUBLIC 513cc 0 std::__ndk1::basic_regex<char, std::__ndk1::regex_traits<char> >::__parse_RE_dupl_symbol<char const*>(char const*, char const*, std::__ndk1::__owns_one_state<char>*, unsigned int, unsigned int)
PUBLIC 5163c 0 std::__ndk1::__owns_one_state<char>::~__owns_one_state()
PUBLIC 51668 0 std::__ndk1::__match_any<char>::~__match_any()
PUBLIC 516b0 0 std::__ndk1::__match_any<char>::__exec(std::__ndk1::__state<char>&) const
PUBLIC 516f0 0 std::__ndk1::basic_regex<char, std::__ndk1::regex_traits<char> >::__test_back_ref(char)
PUBLIC 51750 0 std::__ndk1::basic_regex<char, std::__ndk1::regex_traits<char> >::__parse_ERE_expression<char const*>(char const*, char const*)
PUBLIC 51a9c 0 std::__ndk1::basic_regex<char, std::__ndk1::regex_traits<char> >::__search<std::__ndk1::allocator<std::__ndk1::sub_match<char const*> > >(char const*, char const*, std::__ndk1::match_results<char const*, std::__ndk1::allocator<std::__ndk1::sub_match<char const*> > >&, std::__ndk1::regex_constants::match_flag_type) const
PUBLIC 51da4 0 std::__ndk1::match_results<std::__ndk1::__wrap_iter<char const*>, std::__ndk1::allocator<std::__ndk1::sub_match<std::__ndk1::__wrap_iter<char const*> > > >::__assign[abi:ne190000]<char const*, std::__ndk1::allocator<std::__ndk1::sub_match<char const*> > >(std::__ndk1::__wrap_iter<char const*>, std::__ndk1::__wrap_iter<char const*>, std::__ndk1::match_results<char const*, std::__ndk1::allocator<std::__ndk1::sub_match<char const*> > > const&, bool)
PUBLIC 520a0 0 std::__ndk1::basic_regex<char, std::__ndk1::regex_traits<char> >::__match_at_start_posix_nosubs<std::__ndk1::allocator<std::__ndk1::sub_match<char const*> > >(char const*, char const*, std::__ndk1::match_results<char const*, std::__ndk1::allocator<std::__ndk1::sub_match<char const*> > >&, std::__ndk1::regex_constants::match_flag_type, bool) const
PUBLIC 52f54 0 std::__ndk1::basic_regex<char, std::__ndk1::regex_traits<char> >::__match_at_start_posix_subs<std::__ndk1::allocator<std::__ndk1::sub_match<char const*> > >(char const*, char const*, std::__ndk1::match_results<char const*, std::__ndk1::allocator<std::__ndk1::sub_match<char const*> > >&, std::__ndk1::regex_constants::match_flag_type, bool) const
PUBLIC 5393c 0 std::__ndk1::deque<std::__ndk1::__state<char>, std::__ndk1::allocator<std::__ndk1::__state<char> > >::~deque[abi:ne190000]()
PUBLIC 53b04 0 std::__ndk1::deque<std::__ndk1::__state<char>, std::__ndk1::allocator<std::__ndk1::__state<char> > >::__add_back_capacity()
PUBLIC 540dc 0 std::__ndk1::__split_buffer<std::__ndk1::__state<char>*, std::__ndk1::allocator<std::__ndk1::__state<char>*> >::push_back(std::__ndk1::__state<char>*&&)
PUBLIC 54264 0 std::__ndk1::__split_buffer<std::__ndk1::__state<char>*, std::__ndk1::allocator<std::__ndk1::__state<char>*> >::push_front(std::__ndk1::__state<char>*&&)
PUBLIC 543f0 0 std::__ndk1::__split_buffer<std::__ndk1::__state<char>*, std::__ndk1::allocator<std::__ndk1::__state<char>*> >::push_front(std::__ndk1::__state<char>* const&)
PUBLIC 5457c 0 std::__ndk1::vector<std::__ndk1::sub_match<std::__ndk1::__wrap_iter<char const*> >, std::__ndk1::allocator<std::__ndk1::sub_match<std::__ndk1::__wrap_iter<char const*> > > >::__throw_length_error[abi:ne190000]() const
PUBLIC 54590 0 std::__ndk1::deque<std::__ndk1::shared_ptr<AudioSource>, std::__ndk1::allocator<std::__ndk1::shared_ptr<AudioSource> > >::__add_back_capacity()
PUBLIC 54b68 0 std::__ndk1::__split_buffer<std::__ndk1::shared_ptr<AudioSource>*, std::__ndk1::allocator<std::__ndk1::shared_ptr<AudioSource>*> >::push_front(std::__ndk1::shared_ptr<AudioSource>* const&)
PUBLIC 54cf4 0 geode::Mod::getSavedValue<bool>(std::__ndk1::basic_string_view<char, std::__ndk1::char_traits<char> >)
PUBLIC 54e7c 0 geode::impl::ResultData<matjson::Value&, std::__ndk1::basic_string<char, std::__ndk1::char_traits<char>, std::__ndk1::allocator<char> > >::~ResultData()
PUBLIC 54ef0 0 std::__ndk1::__throw_bad_variant_access[abi:ne190000]()
PUBLIC 54f24 0 std::__ndk1::__variant_detail::__visitation::__base::__dispatcher<(unsigned long)0>::__dispatch[abi:ne190000]<std::__ndk1::__variant_detail::__dtor<std::__ndk1::__variant_detail::__traits<std::__ndk1::reference_wrapper<matjson::Value>, std::__ndk1::basic_string<char, std::__ndk1::char_traits<char>, std::__ndk1::allocator<char> > >, (std::__ndk1::__variant_detail::_Trait)1>::__destroy[abi:ne190000]()::{lambda(auto:1&)#1}, std::__ndk1::__variant_detail::__base<(std::__ndk1::__variant_detail::__traits<std::__ndk1::reference_wrapper<matjson::Value>, std::__ndk1::basic_string<char, std::__ndk1::char_traits<char>, std::__ndk1::allocator<char> > >)1, matjson::Value, std::__ndk1::allocator<char> >&>(std::__ndk1::__variant_detail::__dtor<std::__ndk1::__variant_detail::__traits<std::__ndk1::reference_wrapper<matjson::Value>, std::__ndk1::basic_string<char, std::__ndk1::char_traits<char>, std::__ndk1::allocator<char> > >, (std::__ndk1::__variant_detail::_Trait)1>, std::__ndk1::__variant_detail::__base<(std::__ndk1::__variant_detail::__traits<std::__ndk1::reference_wrapper<matjson::Value>, std::__ndk1::basic_string<char, std::__ndk1::char_traits<char>, std::__ndk1::allocator<char> > >)1, matjson::Value, std::__ndk1::allocator<char> >&)
PUBLIC 54f28 0 std::__ndk1::__variant_detail::__visitation::__base::__dispatcher<(unsigned long)1>::__dispatch[abi:ne190000]<std::__ndk1::__variant_detail::__dtor<std::__ndk1::__variant_detail::__traits<std::__ndk1::reference_wrapper<matjson::Value>, std::__ndk1::basic_string<char, std::__ndk1::char_traits<char>, std::__ndk1::allocator<char> > >, (std::__ndk1::__variant_detail::_Trait)1>::__destroy[abi:ne190000]()::{lambda(auto:1&)#1}, std::__ndk1::__variant_detail::__base<(std::__ndk1::__variant_detail::__traits<std::__ndk1::reference_wrapper<matjson::Value>, std::__ndk1::basic_string<char, std::__ndk1::char_traits<char>, std::__ndk1::allocator<char> > >)1, matjson::Value, std::__ndk1::allocator<char> >&>(std::__ndk1::__variant_detail::__dtor<std::__ndk1::__variant_detail::__traits<std::__ndk1::reference_wrapper<matjson::Value>, std::__ndk1::basic_string<char, std::__ndk1::char_traits<char>, std::__ndk1::allocator<char> > >, (std::__ndk1::__variant_detail::_Trait)1>, std::__ndk1::__variant_detail::__base<(std::__ndk1::__variant_detail::__traits<std::__ndk1::reference_wrapper<matjson::Value>, std::__ndk1::basic_string<char, std::__ndk1::char_traits<char>, std::__ndk1::allocator<char> > >)1, matjson::Value, std::__ndk1::allocator<char> >&)
PUBLIC 54f3c 0 std::__ndk1::__variant_detail::__visitation::__base::__dispatcher<(unsigned long)0>::__dispatch[abi:ne190000]<std::__ndk1::__variant_detail::__dtor<std::__ndk1::__variant_detail::__traits<bool, std::__ndk1::basic_string<char, std::__ndk1::char_traits<char>, std::__ndk1::allocator<char> > >, (std::__ndk1::__variant_detail::_Trait)1>::__destroy[abi:ne190000]()::{lambda(auto:1&)#1}, std::__ndk1::__variant_detail::__base<(std::__ndk1::__variant_detail::__traits<bool, std::__ndk1::basic_string<char, std::__ndk1::char_traits<char>, std::__ndk1::allocator<char> > >)1, bool, std::__ndk1::allocator<char> >&>(std::__ndk1::__variant_detail::__dtor<std::__ndk1::__variant_detail::__traits<bool, std::__ndk1::basic_string<char, std::__ndk1::char_traits<char>, std::__ndk1::allocator<char> > >, (std::__ndk1::__variant_detail::_Trait)1>, std::__ndk1::__variant_detail::__base<(std::__ndk1::__variant_detail::__traits<bool, std::__ndk1::basic_string<char, std::__ndk1::char_traits<char>, std::__ndk1::allocator<char> > >)1, bool, std::__ndk1::allocator<char> >&)
PUBLIC 54f40 0 std::__ndk1::__variant_detail::__visitation::__base::__dispatcher<(unsigned long)1>::__dispatch[abi:ne190000]<std::__ndk1::__variant_detail::__dtor<std::__ndk1::__variant_detail::__traits<bool, std::__ndk1::basic_string<char, std::__ndk1::char_traits<char>, std::__ndk1::allocator<char> > >, (std::__ndk1::__variant_detail::_Trait)1>::__destroy[abi:ne190000]()::{lambda(auto:1&)#1}, std::__ndk1::__variant_detail::__base<(std::__ndk1::__variant_detail::__traits<bool, std::__ndk1::basic_string<char, std::__ndk1::char_traits<char>, std::__ndk1::allocator<char> > >)1, bool, std::__ndk1::allocator<char> >&>(std::__ndk1::__variant_detail::__dtor<std::__ndk1::__variant_detail::__traits<bool, std::__ndk1::basic_string<char, std::__ndk1::char_traits<char>, std::__ndk1::allocator<char> > >, (std::__ndk1::__variant_detail::_Trait)1>, std::__ndk1::__variant_detail::__base<(std::__ndk1::__variant_detail::__traits<bool, std::__ndk1::basic_string<char, std::__ndk1::char_traits<char>, std::__ndk1::allocator<char> > >)1, bool, std::__ndk1::allocator<char> >&)
PUBLIC 54f54 0 _ZN7eclipse5label11setVariableITkNS0_13SupportedTypeENSt6__ndk112basic_stringIcNS2_11char_traitsIcEENS2_9allocatorIcEEEEEEvNS2_17basic_string_viewIcS5_EET_
PUBLIC 550a8 0 eclipse::events::SetRiftVariableEvent<std::__ndk1::basic_string<char, std::__ndk1::char_traits<char>, std::__ndk1::allocator<char> > >::~SetRiftVariableEvent()
PUBLIC 550dc 0 eclipse::events::SetRiftVariableEvent<std::__ndk1::basic_string<char, std::__ndk1::char_traits<char>, std::__ndk1::allocator<char> > >::~SetRiftVariableEvent()
PUBLIC 55114 0 AudioSource::AudioSource(std::__ndk1::__fs::filesystem::path)
PUBLIC 551a0 0 AudioSource::~AudioSource()
PUBLIC 55214 0 AudioSource::loadAudioThreaded()
PUBLIC 552ac 0 AudioSource::loadAudio()
PUBLIC 55400 0 _ZNSt6__ndk16threadC2IM11AudioSourceFvvEJPS2_ETnNS_9enable_ifIXntsr7is_sameIu14__remove_cvrefIT_ES0_EE5valueEiE4typeELi0EEEOS7_DpOT0_
PUBLIC 5550c 0 AudioSource::getCombinedSongName()
PUBLIC 5564c 0 std::__ndk1::__thread_proxy[abi:ne190000]<std::__ndk1::tuple<std::__ndk1::unique_ptr<std::__ndk1::__thread_struct, std::__ndk1::default_delete<std::__ndk1::unique_ptr> >, void (AudioSource::*)(), std::__ndk1::unique_ptr<std::__ndk1::__thread_struct, std::__ndk1::default_delete<std::__ndk1::unique_ptr> >*> >(std::__ndk1::tuple<std::__ndk1::unique_ptr<std::__ndk1::__thread_struct, std::__ndk1::default_delete<std::__ndk1::unique_ptr> >, void (AudioSource::*)(), std::__ndk1::unique_ptr<std::__ndk1::__thread_struct, std::__ndk1::default_delete<std::__ndk1::unique_ptr> >*>)
PUBLIC 55718 0 std::__ndk1::unique_ptr<std::__ndk1::tuple<std::__ndk1::unique_ptr<std::__ndk1::__thread_struct, std::__ndk1::default_delete<std::__ndk1::__thread_struct> >, void (AudioSource::*)(), AudioSource*>, std::__ndk1::default_delete<std::__ndk1::tuple<std::__ndk1::unique_ptr<std::__ndk1::__thread_struct, std::__ndk1::default_delete<std::__ndk1::__thread_struct> >, void (AudioSource::*)(), AudioSource*> > >::~unique_ptr[abi:ne190000]()
PUBLIC 55768 0 Easer::Easer(float*, float, float, float)
PUBLIC 55780 0 Easer::update(float)
PUBLIC 55844 0 cocos2d::CCCopying::copyWithZone(cocos2d::CCZone*)
PUBLIC 5584c 0 __cxx_global_var_init
PUBLIC 55cbc 0 geode::modifier::ModifyBase<geode::modifier::ModifyDerive<HookedCCScheduler, cocos2d::CCScheduler> >::~ModifyBase()
PUBLIC 55cd8 0 geode::modifier::ModifyDerive<HookedCCScheduler, cocos2d::CCScheduler>::apply()
PUBLIC 56044 0 std::__ndk1::shared_ptr<geode::Hook>::~shared_ptr[abi:ne190000]()
PUBLIC 56094 0 geode::impl::ResultData<geode::Hook*, std::__ndk1::basic_string<char, std::__ndk1::char_traits<char>, std::__ndk1::allocator<char> > >::~ResultData()
PUBLIC 56108 0 geode::modifier::ModifyBase<geode::modifier::ModifyDerive<HookedCCScheduler, cocos2d::CCScheduler> >::apply()
PUBLIC 5610c 0 _ZN5geode15UnwrapExceptionC2IRPNS_4HookEQsr4implE18IsStringStreamableIT_EEENS_4impl5OkTagEOS5_
PUBLIC 56260 0 std::__ndk1::basic_stringstream<char, std::__ndk1::char_traits<char>, std::__ndk1::allocator<char> >::basic_stringstream[abi:ne190000]()
PUBLIC m 56394 0 std::__ndk1::basic_stringstream<char, std::__ndk1::char_traits<char>, std::__ndk1::allocator<char> >::~basic_stringstream()
PUBLIC 56414 0 geode::UnwrapException::~UnwrapException()
PUBLIC 56438 0 std::__ndk1::__put_character_sequence[abi:ne190000]<char, std::__ndk1::char_traits<char> >(std::__ndk1::basic_ostream<char, std::__ndk1::char_traits<char> >, std::__ndk1::basic_ostream const*, unsigned long)
PUBLIC 565dc 0 std::__ndk1::__pad_and_output[abi:ne190000]<char, std::__ndk1::char_traits<char> >(std::__ndk1::char_traits<char>, std::__ndk1::ostreambuf_iterator const*, std::__ndk1::ostreambuf_iterator const, std::__ndk1::ostreambuf_iterator const, std::__ndk1::ios_base&, std::__ndk1::ostreambuf_iterator)
PUBLIC 567c8 0 std::__ndk1::basic_stringbuf<char, std::__ndk1::char_traits<char>, std::__ndk1::allocator<char> >::str[abi:ne190000]() &&
PUBLIC 56938 0 std::__ndk1::basic_stringbuf<char, std::__ndk1::char_traits<char>, std::__ndk1::allocator<char> >::__init_buf_ptrs[abi:ne190000]()
PUBLIC 56a80 0 std::__ndk1::basic_string<char, std::__ndk1::char_traits<char>, std::__ndk1::allocator<char> >::__erase_external_with_move(unsigned long, unsigned long)
PUBLIC 56b08 0 std::__ndk1::__variant_detail::__visitation::__base::__dispatcher<(unsigned long)0>::__dispatch[abi:ne190000]<std::__ndk1::__variant_detail::__dtor<std::__ndk1::__variant_detail::__traits<geode::Hook*, std::__ndk1::basic_string<char, std::__ndk1::char_traits<char>, std::__ndk1::allocator<char> > >, (std::__ndk1::__variant_detail::_Trait)1>::__destroy[abi:ne190000]()::{lambda(auto:1&)#1}, std::__ndk1::__variant_detail::__base<(std::__ndk1::__variant_detail::__traits<geode::Hook*, std::__ndk1::basic_string<char, std::__ndk1::char_traits<char>, std::__ndk1::allocator<char> > >)1, geode::Hook, std::__ndk1::allocator<char> >&>(std::__ndk1::__variant_detail::__dtor<std::__ndk1::__variant_detail::__traits<geode::Hook*, std::__ndk1::basic_string<char, std::__ndk1::char_traits<char>, std::__ndk1::allocator<char> > >, (std::__ndk1::__variant_detail::_Trait)1>, std::__ndk1::__variant_detail::__base<(std::__ndk1::__variant_detail::__traits<geode::Hook*, std::__ndk1::basic_string<char, std::__ndk1::char_traits<char>, std::__ndk1::allocator<char> > >)1, geode::Hook, std::__ndk1::allocator<char> >&)
PUBLIC 56b0c 0 std::__ndk1::__variant_detail::__visitation::__base::__dispatcher<(unsigned long)1>::__dispatch[abi:ne190000]<std::__ndk1::__variant_detail::__dtor<std::__ndk1::__variant_detail::__traits<geode::Hook*, std::__ndk1::basic_string<char, std::__ndk1::char_traits<char>, std::__ndk1::allocator<char> > >, (std::__ndk1::__variant_detail::_Trait)1>::__destroy[abi:ne190000]()::{lambda(auto:1&)#1}, std::__ndk1::__variant_detail::__base<(std::__ndk1::__variant_detail::__traits<geode::Hook*, std::__ndk1::basic_string<char, std::__ndk1::char_traits<char>, std::__ndk1::allocator<char> > >)1, geode::Hook, std::__ndk1::allocator<char> >&>(std::__ndk1::__variant_detail::__dtor<std::__ndk1::__variant_detail::__traits<geode::Hook*, std::__ndk1::basic_string<char, std::__ndk1::char_traits<char>, std::__ndk1::allocator<char> > >, (std::__ndk1::__variant_detail::_Trait)1>, std::__ndk1::__variant_detail::__base<(std::__ndk1::__variant_detail::__traits<geode::Hook*, std::__ndk1::basic_string<char, std::__ndk1::char_traits<char>, std::__ndk1::allocator<char> > >)1, geode::Hook, std::__ndk1::allocator<char> >&)
PUBLIC 56b20 0 std::__ndk1::__tree<std::__ndk1::__value_type<std::__ndk1::basic_string<char, std::__ndk1::char_traits<char>, std::__ndk1::allocator<char> >, std::__ndk1::shared_ptr<geode::Hook> >, std::__ndk1::__map_value_compare<std::__ndk1::basic_string<char, std::__ndk1::char_traits<char>, std::__ndk1::allocator<char> >, std::__ndk1::__value_type<std::__ndk1::basic_string<char, std::__ndk1::char_traits<char>, std::__ndk1::allocator<char> >, std::__ndk1::shared_ptr<geode::Hook> >, std::__ndk1::less<std::__ndk1::basic_string<char, std::__ndk1::char_traits<char>, std::__ndk1::allocator<char> > >, true>, std::__ndk1::allocator<std::__ndk1::__value_type<std::__ndk1::basic_string<char, std::__ndk1::char_traits<char>, std::__ndk1::allocator<char> >, std::__ndk1::shared_ptr<geode::Hook> > > >::find<std::__ndk1::basic_string<char, std::__ndk1::char_traits<char>, std::__ndk1::allocator<char> > >(std::__ndk1::basic_string<char, std::__ndk1::char_traits<char>, std::__ndk1::allocator<char> > const&)
PUBLIC 56c48 0 std::__ndk1::__tree<std::__ndk1::__value_type<std::__ndk1::basic_string<char, std::__ndk1::char_traits<char>, std::__ndk1::allocator<char> >, std::__ndk1::shared_ptr<geode::Hook> >, std::__ndk1::__map_value_compare<std::__ndk1::basic_string<char, std::__ndk1::char_traits<char>, std::__ndk1::allocator<char> >, std::__ndk1::__value_type<std::__ndk1::basic_string<char, std::__ndk1::char_traits<char>, std::__ndk1::allocator<char> >, std::__ndk1::shared_ptr<geode::Hook> >, std::__ndk1::less<std::__ndk1::basic_string<char, std::__ndk1::char_traits<char>, std::__ndk1::allocator<char> > >, true>, std::__ndk1::allocator<std::__ndk1::__value_type<std::__ndk1::basic_string<char, std::__ndk1::char_traits<char>, std::__ndk1::allocator<char> >, std::__ndk1::shared_ptr<geode::Hook> > > >::erase(std::__ndk1::__tree_const_iterator<std::__ndk1::__value_type<std::__ndk1::basic_string<char, std::__ndk1::char_traits<char>, std::__ndk1::allocator<char> >, std::__ndk1::shared_ptr<geode::Hook> >, std::__ndk1::__tree_node<std::__ndk1::__value_type<std::__ndk1::basic_string<char, std::__ndk1::char_traits<char>, std::__ndk1::allocator<char> >, std::__ndk1::shared_ptr<geode::Hook> >, void*>*, long>)
PUBLIC 56d1c 0 std::__ndk1::__tree_remove[abi:ne190000]<std::__ndk1::__tree_node_base<void*>*>(std::__ndk1::__tree_node_base<void*>*, std::__ndk1::__tree_node_base<void*>*)
PUBLIC 570e4 0 std::__ndk1::__tree<std::__ndk1::__value_type<std::__ndk1::basic_string<char, std::__ndk1::char_traits<char>, std::__ndk1::allocator<char> >, std::__ndk1::shared_ptr<geode::Hook> >, std::__ndk1::__map_value_compare<std::__ndk1::basic_string<char, std::__ndk1::char_traits<char>, std::__ndk1::allocator<char> >, std::__ndk1::__value_type<std::__ndk1::basic_string<char, std::__ndk1::char_traits<char>, std::__ndk1::allocator<char> >, std::__ndk1::shared_ptr<geode::Hook> >, std::__ndk1::less<std::__ndk1::basic_string<char, std::__ndk1::char_traits<char>, std::__ndk1::allocator<char> > >, true>, std::__ndk1::allocator<std::__ndk1::__value_type<std::__ndk1::basic_string<char, std::__ndk1::char_traits<char>, std::__ndk1::allocator<char> >, std::__ndk1::shared_ptr<geode::Hook> > > >::destroy(std::__ndk1::__tree_node<std::__ndk1::__value_type<std::__ndk1::basic_string<char, std::__ndk1::char_traits<char>, std::__ndk1::allocator<char> >, std::__ndk1::shared_ptr<geode::Hook> >, void*>*)
PUBLIC 57170 0 geode::modifier::AsStaticFunction_update<HookedCCScheduler, void (HookedCCScheduler::*)(float)>::Impl<void (HookedCCScheduler::*)(float)>::function(HookedCCScheduler*, float)
PUBLIC 57198 0 geode::addresser::Addresser::addressOfVirtual<void, cocos2d::CCScheduler, float>(void (cocos2d::CCScheduler::*)(float))
PUBLIC 57270 0 std::__ndk1::shared_ptr<tulip::hook::CallingConvention>::~shared_ptr[abi:ne190000]()
PUBLIC 572c0 0 tulip::hook::HandlerMetadata::~HandlerMetadata()
PUBLIC 57324 0 std::__ndk1::__tree<std::__ndk1::__value_type<std::__ndk1::basic_string<char, std::__ndk1::char_traits<char>, std::__ndk1::allocator<char> >, std::__ndk1::shared_ptr<geode::Hook> >, std::__ndk1::__map_value_compare<std::__ndk1::basic_string<char, std::__ndk1::char_traits<char>, std::__ndk1::allocator<char> >, std::__ndk1::__value_type<std::__ndk1::basic_string<char, std::__ndk1::char_traits<char>, std::__ndk1::allocator<char> >, std::__ndk1::shared_ptr<geode::Hook> >, std::__ndk1::less<std::__ndk1::basic_string<char, std::__ndk1::char_traits<char>, std::__ndk1::allocator<char> > >, true>, std::__ndk1::allocator<std::__ndk1::__value_type<std::__ndk1::basic_string<char, std::__ndk1::char_traits<char>, std::__ndk1::allocator<char> >, std::__ndk1::shared_ptr<geode::Hook> > > >::__emplace_unique_key_args<std::__ndk1::basic_string<char, std::__ndk1::char_traits<char>, std::__ndk1::allocator<char> >, std::__ndk1::piecewise_construct_t const&, std::__ndk1::tuple<std::__ndk1::basic_string<char, std::__ndk1::char_traits<char>, std::__ndk1::allocator<char> >&&>, std::__ndk1::tuple<> >(std::__ndk1::basic_string<char, std::__ndk1::char_traits<char>, std::__ndk1::allocator<char> > const&, std::__ndk1::piecewise_construct_t const&, std::__ndk1::tuple<std::__ndk1::basic_string<char, std::__ndk1::char_traits<char>, std::__ndk1::allocator<char> >&&>, std::__ndk1::tuple<>)
PUBLIC 5749c 0 __cxx_global_var_init
PUBLIC 57e94 0 geode::modifier::ModifyBase<geode::modifier::ModifyDerive<HookedEditorPauseLayer, EditorPauseLayer> >::~ModifyBase()
PUBLIC 57eb0 0 geode::modifier::ModifyDerive<HookedEditorPauseLayer, EditorPauseLayer>::apply()
PUBLIC 587f8 0 geode::modifier::ModifyBase<geode::modifier::ModifyDerive<HookedEditorPauseLayer, EditorPauseLayer> >::apply()
PUBLIC 587fc 0 geode::modifier::ModifyBase<geode::modifier::ModifyDerive<HookedEditorPauseLayer, EditorPauseLayer> >::setHookPriorityBefore(std::__ndk1::basic_string_view<char, std::__ndk1::char_traits<char> >, geode::Mod*)::{lambda(geode::ModStateEvent*)#1}::operator()(geode::ModStateEvent*) const
PUBLIC 5890c 0 std::__ndk1::unique_ptr<std::__ndk1::__tree_node<std::__ndk1::__value_type<std::__ndk1::basic_string<char, std::__ndk1::char_traits<char>, std::__ndk1::allocator<char> >, std::__ndk1::shared_ptr<geode::Hook> >, void*>, std::__ndk1::__tree_node_destructor<std::__ndk1::allocator<std::__ndk1::__tree_node<std::__ndk1::__value_type<std::__ndk1::basic_string<char, std::__ndk1::char_traits<char>, std::__ndk1::allocator<char> >, std::__ndk1::shared_ptr<geode::Hook> >, void*> > > >::~unique_ptr[abi:ne190000]()
PUBLIC 58988 0 _ZN5geode15UnwrapExceptionC2IRNSt6__ndk112basic_stringIcNS2_11char_traitsIcEENS2_9allocatorIcEEEEQsr4implE18IsStringStreamableIT_EEENS_4impl6ErrTagEOSA_
PUBLIC 58af0 0 std::__ndk1::__function::__base<void (geode::ModStateEvent*)>::~__base()
PUBLIC 58af4 0 std::__ndk1::__function::__func<geode::modifier::ModifyBase<geode::modifier::ModifyDerive<HookedEditorPauseLayer, EditorPauseLayer> >::setHookPriorityBefore(std::__ndk1::basic_string_view<char, std::__ndk1::char_traits<char> >, geode::Mod*)::{lambda(geode::ModStateEvent*)#1}, std::__ndk1::allocator<geode::modifier::ModifyBase<geode::modifier::ModifyDerive<HookedEditorPauseLayer, EditorPauseLayer> >::setHookPriorityBefore(std::__ndk1::basic_string_view<char, std::__ndk1::char_traits<char> >, geode::Mod*)::{lambda(geode::ModStateEvent*)#1}>, void (geode::ModStateEvent*)>::~__func()
PUBLIC 58af8 0 std::__ndk1::__function::__func<geode::modifier::ModifyBase<geode::modifier::ModifyDerive<HookedEditorPauseLayer, EditorPauseLayer> >::setHookPriorityBefore(std::__ndk1::basic_string_view<char, std::__ndk1::char_traits<char> >, geode::Mod*)::{lambda(geode::ModStateEvent*)#1}, std::__ndk1::allocator<geode::modifier::ModifyBase<geode::modifier::ModifyDerive<HookedEditorPauseLayer, EditorPauseLayer> >::setHookPriorityBefore(std::__ndk1::basic_string_view<char, std::__ndk1::char_traits<char> >, geode::Mod*)::{lambda(geode::ModStateEvent*)#1}>, void (geode::ModStateEvent*)>::__clone() const
PUBLIC 58b30 0 std::__ndk1::__function::__func<geode::modifier::ModifyBase<geode::modifier::ModifyDerive<HookedEditorPauseLayer, EditorPauseLayer> >::setHookPriorityBefore(std::__ndk1::basic_string_view<char, std::__ndk1::char_traits<char> >, geode::Mod*)::{lambda(geode::ModStateEvent*)#1}, std::__ndk1::allocator<geode::modifier::ModifyBase<geode::modifier::ModifyDerive<HookedEditorPauseLayer, EditorPauseLayer> >::setHookPriorityBefore(std::__ndk1::basic_string_view<char, std::__ndk1::char_traits<char> >, geode::Mod*)::{lambda(geode::ModStateEvent*)#1}>, void (geode::ModStateEvent*)>::__clone(std::__ndk1::__function::__base<void (geode::ModStateEvent*)>*) const
PUBLIC 58b48 0 std::__ndk1::__function::__func<geode::modifier::ModifyBase<geode::modifier::ModifyDerive<HookedEditorPauseLayer, EditorPauseLayer> >::setHookPriorityBefore(std::__ndk1::basic_string_view<char, std::__ndk1::char_traits<char> >, geode::Mod*)::{lambda(geode::ModStateEvent*)#1}, std::__ndk1::allocator<geode::modifier::ModifyBase<geode::modifier::ModifyDerive<HookedEditorPauseLayer, EditorPauseLayer> >::setHookPriorityBefore(std::__ndk1::basic_string_view<char, std::__ndk1::char_traits<char> >, geode::Mod*)::{lambda(geode::ModStateEvent*)#1}>, void (geode::ModStateEvent*)>::destroy()
PUBLIC 58b4c 0 std::__ndk1::__function::__func<geode::modifier::ModifyBase<geode::modifier::ModifyDerive<HookedEditorPauseLayer, EditorPauseLayer> >::setHookPriorityBefore(std::__ndk1::basic_string_view<char, std::__ndk1::char_traits<char> >, geode::Mod*)::{lambda(geode::ModStateEvent*)#1}, std::__ndk1::allocator<geode::modifier::ModifyBase<geode::modifier::ModifyDerive<HookedEditorPauseLayer, EditorPauseLayer> >::setHookPriorityBefore(std::__ndk1::basic_string_view<char, std::__ndk1::char_traits<char> >, geode::Mod*)::{lambda(geode::ModStateEvent*)#1}>, void (geode::ModStateEvent*)>::destroy_deallocate()
PUBLIC 58b50 0 std::__ndk1::__function::__func<geode::modifier::ModifyBase<geode::modifier::ModifyDerive<HookedEditorPauseLayer, EditorPauseLayer> >::setHookPriorityBefore(std::__ndk1::basic_string_view<char, std::__ndk1::char_traits<char> >, geode::Mod*)::{lambda(geode::ModStateEvent*)#1}, std::__ndk1::allocator<geode::modifier::ModifyBase<geode::modifier::ModifyDerive<HookedEditorPauseLayer, EditorPauseLayer> >::setHookPriorityBefore(std::__ndk1::basic_string_view<char, std::__ndk1::char_traits<char> >, geode::Mod*)::{lambda(geode::ModStateEvent*)#1}>, void (geode::ModStateEvent*)>::operator()(geode::ModStateEvent*&&)
PUBLIC 58b58 0 std::__ndk1::__function::__func<geode::modifier::ModifyBase<geode::modifier::ModifyDerive<HookedEditorPauseLayer, EditorPauseLayer> >::setHookPriorityBefore(std::__ndk1::basic_string_view<char, std::__ndk1::char_traits<char> >, geode::Mod*)::{lambda(geode::ModStateEvent*)#1}, std::__ndk1::allocator<geode::modifier::ModifyBase<geode::modifier::ModifyDerive<HookedEditorPauseLayer, EditorPauseLayer> >::setHookPriorityBefore(std::__ndk1::basic_string_view<char, std::__ndk1::char_traits<char> >, geode::Mod*)::{lambda(geode::ModStateEvent*)#1}>, void (geode::ModStateEvent*)>::target(std::type_info const&) const
PUBLIC 58b74 0 std::__ndk1::__function::__func<geode::modifier::ModifyBase<geode::modifier::ModifyDerive<HookedEditorPauseLayer, EditorPauseLayer> >::setHookPriorityBefore(std::__ndk1::basic_string_view<char, std::__ndk1::char_traits<char> >, geode::Mod*)::{lambda(geode::ModStateEvent*)#1}, std::__ndk1::allocator<geode::modifier::ModifyBase<geode::modifier::ModifyDerive<HookedEditorPauseLayer, EditorPauseLayer> >::setHookPriorityBefore(std::__ndk1::basic_string_view<char, std::__ndk1::char_traits<char> >, geode::Mod*)::{lambda(geode::ModStateEvent*)#1}>, void (geode::ModStateEvent*)>::target_type() const
PUBLIC 58b80 0 geode::EventListener<geode::ModStateFilter>::getPool() const
PUBLIC 58b84 0 geode::EventListener<geode::ModStateFilter>::handle(geode::Event*)
PUBLIC 58cf8 0 geode::EventListener<geode::ModStateFilter>::~EventListener()
PUBLIC 58d54 0 geode::EventListener<geode::ModStateFilter>::~EventListener()
PUBLIC 58db8 0 std::__ndk1::__variant_detail::__visitation::__base::__dispatcher<(unsigned long)0>::__dispatch[abi:ne190000]<std::__ndk1::__variant_detail::__dtor<std::__ndk1::__variant_detail::__traits<std::__ndk1::monostate, std::__ndk1::basic_string<char, std::__ndk1::char_traits<char>, std::__ndk1::allocator<char> > >, (std::__ndk1::__variant_detail::_Trait)1>::__destroy[abi:ne190000]()::{lambda(auto:1&)#1}, std::__ndk1::__variant_detail::__base<(std::__ndk1::__variant_detail::__traits<std::__ndk1::monostate, std::__ndk1::basic_string<char, std::__ndk1::char_traits<char>, std::__ndk1::allocator<char> > >)1, std::__ndk1::__variant_detail::__traits, std::__ndk1::allocator<char> >&>(std::__ndk1::__variant_detail::__dtor<std::__ndk1::__variant_detail::__traits<std::__ndk1::monostate, std::__ndk1::basic_string<char, std::__ndk1::char_traits<char>, std::__ndk1::allocator<char> > >, (std::__ndk1::__variant_detail::_Trait)1>, std::__ndk1::__variant_detail::__base<(std::__ndk1::__variant_detail::__traits<std::__ndk1::monostate, std::__ndk1::basic_string<char, std::__ndk1::char_traits<char>, std::__ndk1::allocator<char> > >)1, std::__ndk1::__variant_detail::__traits, std::__ndk1::allocator<char> >&)
PUBLIC 58dbc 0 std::__ndk1::__variant_detail::__visitation::__base::__dispatcher<(unsigned long)1>::__dispatch[abi:ne190000]<std::__ndk1::__variant_detail::__dtor<std::__ndk1::__variant_detail::__traits<std::__ndk1::monostate, std::__ndk1::basic_string<char, std::__ndk1::char_traits<char>, std::__ndk1::allocator<char> > >, (std::__ndk1::__variant_detail::_Trait)1>::__destroy[abi:ne190000]()::{lambda(auto:1&)#1}, std::__ndk1::__variant_detail::__base<(std::__ndk1::__variant_detail::__traits<std::__ndk1::monostate, std::__ndk1::basic_string<char, std::__ndk1::char_traits<char>, std::__ndk1::allocator<char> > >)1, std::__ndk1::__variant_detail::__traits, std::__ndk1::allocator<char> >&>(std::__ndk1::__variant_detail::__dtor<std::__ndk1::__variant_detail::__traits<std::__ndk1::monostate, std::__ndk1::basic_string<char, std::__ndk1::char_traits<char>, std::__ndk1::allocator<char> > >, (std::__ndk1::__variant_detail::_Trait)1>, std::__ndk1::__variant_detail::__base<(std::__ndk1::__variant_detail::__traits<std::__ndk1::monostate, std::__ndk1::basic_string<char, std::__ndk1::char_traits<char>, std::__ndk1::allocator<char> > >)1, std::__ndk1::__variant_detail::__traits, std::__ndk1::allocator<char> >&)
PUBLIC 58dd0 0 geode::modifier::AsStaticFunction_init<HookedEditorPauseLayer, bool (HookedEditorPauseLayer::*)(LevelEditorLayer*)>::Impl<bool (HookedEditorPauseLayer::*)(LevelEditorLayer*)>::function(HookedEditorPauseLayer*, LevelEditorLayer*)
PUBLIC 58fa8 0 geode::Hook::create<void (*)(HookedEditorPauseLayer*, cocos2d::CCObject*)>(void*, void (*)(HookedEditorPauseLayer*, cocos2d::CCObject*), std::__ndk1::basic_string<char, std::__ndk1::char_traits<char>, std::__ndk1::allocator<char> > const&, tulip::hook::TulipConvention, tulip::hook::HookMetadata const&)
PUBLIC 5912c 0 geode::modifier::AsStaticFunction_onExitEditor<HookedEditorPauseLayer, void (HookedEditorPauseLayer::*)(cocos2d::CCObject*)>::Impl<void (HookedEditorPauseLayer::*)(cocos2d::CCObject*)>::function(HookedEditorPauseLayer*, cocos2d::CCObject*)
PUBLIC 591fc 0 geode::modifier::AsStaticFunction_onSaveAndExit<HookedEditorPauseLayer, void (HookedEditorPauseLayer::*)(cocos2d::CCObject*)>::Impl<void (HookedEditorPauseLayer::*)(cocos2d::CCObject*)>::function(HookedEditorPauseLayer*, cocos2d::CCObject*)
PUBLIC 592cc 0 geode::modifier::AsStaticFunction_onSaveAndPlay<HookedEditorPauseLayer, void (HookedEditorPauseLayer::*)(cocos2d::CCObject*)>::Impl<void (HookedEditorPauseLayer::*)(cocos2d::CCObject*)>::function(HookedEditorPauseLayer*, cocos2d::CCObject*)
PUBLIC 5939c 0 geode::modifier::FieldIntermediate<HookedLevelEditorLayer, LevelEditorLayer>::self()
PUBLIC 59970 0 cocos2d::CCNode::addEventListener<keybinds::InvokeBindFilter, char const*>(std::__ndk1::function<keybinds::InvokeBindFilter::Callback>, char const*&&)
PUBLIC 59df4 0 cocos2d::CCSequence::create(cocos2d::CCFiniteTimeAction*, ...)
PUBLIC 59e8c 0 __cxx_global_var_init
PUBLIC 5a2fc 0 geode::modifier::ModifyBase<geode::modifier::ModifyDerive<HookedLevelEditorLayer, LevelEditorLayer> >::~ModifyBase()
PUBLIC 5a318 0 geode::modifier::FieldIntermediate<HookedLevelEditorLayer, LevelEditorLayer>::fieldDestructor(void*)
PUBLIC 5a368 0 std::__ndk1::vector<void*, std::__ndk1::allocator<void*> >::__throw_length_error[abi:ne190000]() const
PUBLIC 5a37c 0 std::__ndk1::vector<std::__ndk1::function<void (void*)>, std::__ndk1::allocator<std::__ndk1::function<void (void*)> > >::__throw_length_error[abi:ne190000]() const
PUBLIC 5a390 0 std::__ndk1::vector<void*, std::__ndk1::allocator<void*> >::__throw_out_of_range[abi:ne190000]() const
PUBLIC 5a3a4 0 std::__ndk1::vector<std::__ndk1::function<void (void*)>, std::__ndk1::allocator<std::__ndk1::function<void (void*)> > >::__throw_out_of_range[abi:ne190000]() const
PUBLIC 5a3b8 0 std::__ndk1::__function::__base<void (void*)>::~__base()
PUBLIC 5a3bc 0 std::__ndk1::__function::__func<void (*)(void*), std::__ndk1::allocator<void (*)(void*)>, void (void*)>::~__func()
PUBLIC 5a3c0 0 std::__ndk1::__function::__func<void (*)(void*), std::__ndk1::allocator<void (*)(void*)>, void (void*)>::__clone() const
PUBLIC 5a3f8 0 std::__ndk1::__function::__func<void (*)(void*), std::__ndk1::allocator<void (*)(void*)>, void (void*)>::__clone(std::__ndk1::__function::__base<void (void*)>*) const
PUBLIC 5a410 0 std::__ndk1::__function::__func<void (*)(void*), std::__ndk1::allocator<void (*)(void*)>, void (void*)>::destroy()
PUBLIC 5a414 0 std::__ndk1::__function::__func<void (*)(void*), std::__ndk1::allocator<void (*)(void*)>, void (void*)>::destroy_deallocate()
PUBLIC 5a418 0 std::__ndk1::__function::__func<void (*)(void*), std::__ndk1::allocator<void (*)(void*)>, void (void*)>::operator()(void*&&)
PUBLIC 5a428 0 std::__ndk1::__function::__func<void (*)(void*), std::__ndk1::allocator<void (*)(void*)>, void (void*)>::target(std::type_info const&) const
PUBLIC 5a444 0 std::__ndk1::__function::__func<void (*)(void*), std::__ndk1::allocator<void (*)(void*)>, void (void*)>::target_type() const
PUBLIC 5a450 0 geode::modifier::ModifyDerive<HookedLevelEditorLayer, LevelEditorLayer>::apply()
PUBLIC 5aab4 0 geode::modifier::ModifyBase<geode::modifier::ModifyDerive<HookedLevelEditorLayer, LevelEditorLayer> >::apply()
PUBLIC 5aab8 0 geode::modifier::AsStaticFunction_init<HookedLevelEditorLayer, bool (HookedLevelEditorLayer::*)(GJGameLevel*, bool)>::Impl<bool (HookedLevelEditorLayer::*)(GJGameLevel*, bool)>::function(HookedLevelEditorLayer*, GJGameLevel*, bool)
PUBLIC 5af68 0 geode::modifier::AsStaticFunction_updateEditor<HookedLevelEditorLayer, void (HookedLevelEditorLayer::*)(float)>::Impl<void (HookedLevelEditorLayer::*)(float)>::function(HookedLevelEditorLayer*, float)
PUBLIC 5b294 0 geode::EventListener<keybinds::InvokeBindFilter>::getPool() const
PUBLIC 5b298 0 geode::EventListener<keybinds::InvokeBindFilter>::handle(geode::Event*)
PUBLIC 5b40c 0 geode::EventListener<keybinds::InvokeBindFilter>::~EventListener()
PUBLIC 5b478 0 geode::EventListener<keybinds::InvokeBindFilter>::~EventListener()
PUBLIC 5b4ec 0 std::__ndk1::__function::__func<HookedLevelEditorLayer::init(GJGameLevel*, bool)::$_0, std::__ndk1::allocator<HookedLevelEditorLayer::init(GJGameLevel*, bool)::$_0>, geode::ListenerResult(keybinds::InvokeBindEvent*)>::~__func()
PUBLIC 5b4f0 0 std::__ndk1::__function::__func<HookedLevelEditorLayer::init(GJGameLevel*, bool)::$_0, std::__ndk1::allocator<HookedLevelEditorLayer::init(GJGameLevel*, bool)::$_0>, geode::ListenerResult(keybinds::InvokeBindEvent*)>::__clone() const
PUBLIC 5b514 0 std::__ndk1::__function::__func<HookedLevelEditorLayer::init(GJGameLevel*, bool)::$_0, std::__ndk1::allocator<HookedLevelEditorLayer::init(GJGameLevel*, bool)::$_0>, geode::ListenerResult(keybinds::InvokeBindEvent*)>::__clone(std::__ndk1::__function::__base<geode::ListenerResult(keybinds::InvokeBindEvent*)>*) const
PUBLIC 5b524 0 std::__ndk1::__function::__func<HookedLevelEditorLayer::init(GJGameLevel*, bool)::$_0, std::__ndk1::allocator<HookedLevelEditorLayer::init(GJGameLevel*, bool)::$_0>, geode::ListenerResult(keybinds::InvokeBindEvent*)>::destroy()
PUBLIC 5b528 0 std::__ndk1::__function::__func<HookedLevelEditorLayer::init(GJGameLevel*, bool)::$_0, std::__ndk1::allocator<HookedLevelEditorLayer::init(GJGameLevel*, bool)::$_0>, geode::ListenerResult(keybinds::InvokeBindEvent*)>::destroy_deallocate()
PUBLIC 5b52c 0 std::__ndk1::__function::__func<HookedLevelEditorLayer::init(GJGameLevel*, bool)::$_0, std::__ndk1::allocator<HookedLevelEditorLayer::init(GJGameLevel*, bool)::$_0>, geode::ListenerResult(keybinds::InvokeBindEvent*)>::operator()(keybinds::InvokeBindEvent*&&)
PUBLIC 5b5ec 0 std::__ndk1::__function::__func<HookedLevelEditorLayer::init(GJGameLevel*, bool)::$_0, std::__ndk1::allocator<HookedLevelEditorLayer::init(GJGameLevel*, bool)::$_0>, geode::ListenerResult(keybinds::InvokeBindEvent*)>::target(std::type_info const&) const
PUBLIC 5b608 0 std::__ndk1::__function::__func<HookedLevelEditorLayer::init(GJGameLevel*, bool)::$_0, std::__ndk1::allocator<HookedLevelEditorLayer::init(GJGameLevel*, bool)::$_0>, geode::ListenerResult(keybinds::InvokeBindEvent*)>::target_type() const
PUBLIC 5b614 0 std::__ndk1::__function::__func<HookedLevelEditorLayer::init(GJGameLevel*, bool)::$_1, std::__ndk1::allocator<HookedLevelEditorLayer::init(GJGameLevel*, bool)::$_1>, geode::ListenerResult(keybinds::InvokeBindEvent*)>::~__func()
PUBLIC 5b618 0 std::__ndk1::__function::__func<HookedLevelEditorLayer::init(GJGameLevel*, bool)::$_1, std::__ndk1::allocator<HookedLevelEditorLayer::init(GJGameLevel*, bool)::$_1>, geode::ListenerResult(keybinds::InvokeBindEvent*)>::__clone() const
PUBLIC 5b63c 0 std::__ndk1::__function::__func<HookedLevelEditorLayer::init(GJGameLevel*, bool)::$_1, std::__ndk1::allocator<HookedLevelEditorLayer::init(GJGameLevel*, bool)::$_1>, geode::ListenerResult(keybinds::InvokeBindEvent*)>::__clone(std::__ndk1::__function::__base<geode::ListenerResult(keybinds::InvokeBindEvent*)>*) const
PUBLIC 5b64c 0 std::__ndk1::__function::__func<HookedLevelEditorLayer::init(GJGameLevel*, bool)::$_1, std::__ndk1::allocator<HookedLevelEditorLayer::init(GJGameLevel*, bool)::$_1>, geode::ListenerResult(keybinds::InvokeBindEvent*)>::destroy()
PUBLIC 5b650 0 std::__ndk1::__function::__func<HookedLevelEditorLayer::init(GJGameLevel*, bool)::$_1, std::__ndk1::allocator<HookedLevelEditorLayer::init(GJGameLevel*, bool)::$_1>, geode::ListenerResult(keybinds::InvokeBindEvent*)>::destroy_deallocate()
PUBLIC 5b654 0 std::__ndk1::__function::__func<HookedLevelEditorLayer::init(GJGameLevel*, bool)::$_1, std::__ndk1::allocator<HookedLevelEditorLayer::init(GJGameLevel*, bool)::$_1>, geode::ListenerResult(keybinds::InvokeBindEvent*)>::operator()(keybinds::InvokeBindEvent*&&)
PUBLIC 5b714 0 std::__ndk1::__function::__func<HookedLevelEditorLayer::init(GJGameLevel*, bool)::$_1, std::__ndk1::allocator<HookedLevelEditorLayer::init(GJGameLevel*, bool)::$_1>, geode::ListenerResult(keybinds::InvokeBindEvent*)>::target(std::type_info const&) const
PUBLIC 5b730 0 std::__ndk1::__function::__func<HookedLevelEditorLayer::init(GJGameLevel*, bool)::$_1, std::__ndk1::allocator<HookedLevelEditorLayer::init(GJGameLevel*, bool)::$_1>, geode::ListenerResult(keybinds::InvokeBindEvent*)>::target_type() const
PUBLIC 5b73c 0 std::__ndk1::__function::__base<geode::ListenerResult(keybinds::InvokeBindEvent*)>::~__base()
PUBLIC 5b740 0 std::__ndk1::__function::__func<HookedLevelEditorLayer::init(GJGameLevel*, bool)::$_2, std::__ndk1::allocator<HookedLevelEditorLayer::init(GJGameLevel*, bool)::$_2>, geode::ListenerResult(keybinds::InvokeBindEvent*)>::~__func()
PUBLIC 5b744 0 std::__ndk1::__function::__func<HookedLevelEditorLayer::init(GJGameLevel*, bool)::$_2, std::__ndk1::allocator<HookedLevelEditorLayer::init(GJGameLevel*, bool)::$_2>, geode::ListenerResult(keybinds::InvokeBindEvent*)>::__clone() const
PUBLIC 5b768 0 std::__ndk1::__function::__func<HookedLevelEditorLayer::init(GJGameLevel*, bool)::$_2, std::__ndk1::allocator<HookedLevelEditorLayer::init(GJGameLevel*, bool)::$_2>, geode::ListenerResult(keybinds::InvokeBindEvent*)>::__clone(std::__ndk1::__function::__base<geode::ListenerResult(keybinds::InvokeBindEvent*)>*) const
PUBLIC 5b778 0 std::__ndk1::__function::__func<HookedLevelEditorLayer::init(GJGameLevel*, bool)::$_2, std::__ndk1::allocator<HookedLevelEditorLayer::init(GJGameLevel*, bool)::$_2>, geode::ListenerResult(keybinds::InvokeBindEvent*)>::destroy()
PUBLIC 5b77c 0 std::__ndk1::__function::__func<HookedLevelEditorLayer::init(GJGameLevel*, bool)::$_2, std::__ndk1::allocator<HookedLevelEditorLayer::init(GJGameLevel*, bool)::$_2>, geode::ListenerResult(keybinds::InvokeBindEvent*)>::destroy_deallocate()
PUBLIC 5b780 0 std::__ndk1::__function::__func<HookedLevelEditorLayer::init(GJGameLevel*, bool)::$_2, std::__ndk1::allocator<HookedLevelEditorLayer::init(GJGameLevel*, bool)::$_2>, geode::ListenerResult(keybinds::InvokeBindEvent*)>::operator()(keybinds::InvokeBindEvent*&&)
PUBLIC 5b840 0 std::__ndk1::__function::__func<HookedLevelEditorLayer::init(GJGameLevel*, bool)::$_2, std::__ndk1::allocator<HookedLevelEditorLayer::init(GJGameLevel*, bool)::$_2>, geode::ListenerResult(keybinds::InvokeBindEvent*)>::target(std::type_info const&) const
PUBLIC 5b85c 0 std::__ndk1::__function::__func<HookedLevelEditorLayer::init(GJGameLevel*, bool)::$_2, std::__ndk1::allocator<HookedLevelEditorLayer::init(GJGameLevel*, bool)::$_2>, geode::ListenerResult(keybinds::InvokeBindEvent*)>::target_type() const
PUBLIC 5b868 0 __cxx_global_var_init
PUBLIC 5bcd8 0 geode::modifier::ModifyBase<geode::modifier::ModifyDerive<HookedLoadingLayer, LoadingLayer> >::~ModifyBase()
PUBLIC 5bcf4 0 geode::modifier::ModifyDerive<HookedLoadingLayer, LoadingLayer>::apply()
PUBLIC 5c044 0 geode::modifier::ModifyBase<geode::modifier::ModifyDerive<HookedLoadingLayer, LoadingLayer> >::apply()
PUBLIC 5c048 0 geode::modifier::AsStaticFunction_init<HookedLoadingLayer, bool (HookedLoadingLayer::*)(bool)>::Impl<bool (HookedLoadingLayer::*)(bool)>::function(HookedLoadingLayer*, bool)
PUBLIC 5c148 0 std::__ndk1::__function::__func<HookedLoadingLayer::init(bool)::$_0, std::__ndk1::allocator<HookedLoadingLayer::init(bool)::$_0>, void ()>::~__func()
PUBLIC 5c14c 0 std::__ndk1::__function::__func<HookedLoadingLayer::init(bool)::$_0, std::__ndk1::allocator<HookedLoadingLayer::init(bool)::$_0>, void ()>::__clone() const
PUBLIC 5c170 0 std::__ndk1::__function::__func<HookedLoadingLayer::init(bool)::$_0, std::__ndk1::allocator<HookedLoadingLayer::init(bool)::$_0>, void ()>::__clone(std::__ndk1::__function::__base<void ()>*) const
PUBLIC 5c180 0 std::__ndk1::__function::__func<HookedLoadingLayer::init(bool)::$_0, std::__ndk1::allocator<HookedLoadingLayer::init(bool)::$_0>, void ()>::destroy()
PUBLIC 5c184 0 std::__ndk1::__function::__func<HookedLoadingLayer::init(bool)::$_0, std::__ndk1::allocator<HookedLoadingLayer::init(bool)::$_0>, void ()>::destroy_deallocate()
PUBLIC 5c188 0 std::__ndk1::__function::__func<HookedLoadingLayer::init(bool)::$_0, std::__ndk1::allocator<HookedLoadingLayer::init(bool)::$_0>, void ()>::operator()()
PUBLIC 5c260 0 std::__ndk1::__function::__func<HookedLoadingLayer::init(bool)::$_0, std::__ndk1::allocator<HookedLoadingLayer::init(bool)::$_0>, void ()>::target(std::type_info const&) const
PUBLIC 5c27c 0 std::__ndk1::__function::__func<HookedLoadingLayer::init(bool)::$_0, std::__ndk1::allocator<HookedLoadingLayer::init(bool)::$_0>, void ()>::target_type() const
PUBLIC 5c288 0 std::__ndk1::__function::__func<HookedLoadingLayer::init(bool)::$_0::operator()() const::{lambda()#1}, std::__ndk1::allocator<HookedLoadingLayer::init(bool)::$_0::operator()() const::{lambda()#1}>, void ()>::~__func()
PUBLIC 5c28c 0 std::__ndk1::__function::__func<HookedLoadingLayer::init(bool)::$_0::operator()() const::{lambda()#1}, std::__ndk1::allocator<HookedLoadingLayer::init(bool)::$_0::operator()() const::{lambda()#1}>, void ()>::__clone() const
PUBLIC 5c2b0 0 std::__ndk1::__function::__func<HookedLoadingLayer::init(bool)::$_0::operator()() const::{lambda()#1}, std::__ndk1::allocator<HookedLoadingLayer::init(bool)::$_0::operator()() const::{lambda()#1}>, void ()>::__clone(std::__ndk1::__function::__base<void ()>*) const
PUBLIC 5c2c0 0 std::__ndk1::__function::__func<HookedLoadingLayer::init(bool)::$_0::operator()() const::{lambda()#1}, std::__ndk1::allocator<HookedLoadingLayer::init(bool)::$_0::operator()() const::{lambda()#1}>, void ()>::destroy()
PUBLIC 5c2c4 0 std::__ndk1::__function::__func<HookedLoadingLayer::init(bool)::$_0::operator()() const::{lambda()#1}, std::__ndk1::allocator<HookedLoadingLayer::init(bool)::$_0::operator()() const::{lambda()#1}>, void ()>::destroy_deallocate()
PUBLIC 5c2c8 0 std::__ndk1::__function::__func<HookedLoadingLayer::init(bool)::$_0::operator()() const::{lambda()#1}, std::__ndk1::allocator<HookedLoadingLayer::init(bool)::$_0::operator()() const::{lambda()#1}>, void ()>::operator()()
PUBLIC 5c2dc 0 std::__ndk1::__function::__func<HookedLoadingLayer::init(bool)::$_0::operator()() const::{lambda()#1}, std::__ndk1::allocator<HookedLoadingLayer::init(bool)::$_0::operator()() const::{lambda()#1}>, void ()>::target(std::type_info const&) const
PUBLIC 5c2f8 0 std::__ndk1::__function::__func<HookedLoadingLayer::init(bool)::$_0::operator()() const::{lambda()#1}, std::__ndk1::allocator<HookedLoadingLayer::init(bool)::$_0::operator()() const::{lambda()#1}>, void ()>::target_type() const
PUBLIC 5c304 0 geodeExecFunction3<(anonymous namespace)::ExecFuncUnique3>(geode::ModStateEvent*)
PUBLIC 5cd04 0 geode::Ref<keybinds::Bind>::~Ref()
PUBLIC 5cd20 0 keybinds::BindableAction::~BindableAction()
PUBLIC 5cde4 0 std::__ndk1::vector<geode::Ref<keybinds::Bind>, std::__ndk1::allocator<geode::Ref<keybinds::Bind> > >::~vector[abi:ne190000]()
PUBLIC 5ce68 0 std::__ndk1::__exception_guard_exceptions<std::__ndk1::vector<geode::Ref<keybinds::Bind>, std::__ndk1::allocator<geode::Ref<keybinds::Bind> > >::__destroy_vector>::~__exception_guard_exceptions[abi:ne190000]()
PUBLIC 5cefc 0 std::__ndk1::__exception_guard_exceptions<std::__ndk1::_AllocatorDestroyRangeReverse<std::__ndk1::allocator<geode::Ref<keybinds::Bind> >, geode::Ref<keybinds::Bind>*> >::~__exception_guard_exceptions[abi:ne190000]()
PUBLIC 5cf44 0 std::__ndk1::__function::__func<void (*)(geode::ModStateEvent*), std::__ndk1::allocator<void (*)(geode::ModStateEvent*)>, void (geode::ModStateEvent*)>::~__func()
PUBLIC 5cf48 0 std::__ndk1::__function::__func<void (*)(geode::ModStateEvent*), std::__ndk1::allocator<void (*)(geode::ModStateEvent*)>, void (geode::ModStateEvent*)>::__clone() const
PUBLIC 5cf7c 0 std::__ndk1::__function::__func<void (*)(geode::ModStateEvent*), std::__ndk1::allocator<void (*)(geode::ModStateEvent*)>, void (geode::ModStateEvent*)>::__clone(std::__ndk1::__function::__base<void (geode::ModStateEvent*)>*) const
PUBLIC 5cf90 0 std::__ndk1::__function::__func<void (*)(geode::ModStateEvent*), std::__ndk1::allocator<void (*)(geode::ModStateEvent*)>, void (geode::ModStateEvent*)>::destroy()
PUBLIC 5cf94 0 std::__ndk1::__function::__func<void (*)(geode::ModStateEvent*), std::__ndk1::allocator<void (*)(geode::ModStateEvent*)>, void (geode::ModStateEvent*)>::destroy_deallocate()
PUBLIC 5cf98 0 std::__ndk1::__function::__func<void (*)(geode::ModStateEvent*), std::__ndk1::allocator<void (*)(geode::ModStateEvent*)>, void (geode::ModStateEvent*)>::operator()(geode::ModStateEvent*&&)
PUBLIC 5cfa8 0 std::__ndk1::__function::__func<void (*)(geode::ModStateEvent*), std::__ndk1::allocator<void (*)(geode::ModStateEvent*)>, void (geode::ModStateEvent*)>::target(std::type_info const&) const
PUBLIC 5cfc4 0 std::__ndk1::__function::__func<void (*)(geode::ModStateEvent*), std::__ndk1::allocator<void (*)(geode::ModStateEvent*)>, void (geode::ModStateEvent*)>::target_type() const
PUBLIC 5cfd0 0 _GLOBAL__sub_I_keybinds.cpp
PUBLIC 5d0e8 0 geodeExecFunction7<(anonymous namespace)::ExecFuncUnique7>(geode::ModStateEvent*)
PUBLIC 5d774 0 geode::EventListener<geode::SettingChangedFilterV3>::EventListener(std::__ndk1::function<void (std::__ndk1::shared_ptr<geode::SettingV3>)>, geode::SettingChangedFilterV3)
PUBLIC 5d86c 0 geode::SettingChangedFilterV3::~SettingChangedFilterV3()
PUBLIC 5d8bc 0 std::__ndk1::__function::__func<geode::listenForSettingChangesV3<bool, geodeExecFunction7<(anonymous namespace)::ExecFuncUnique7>(geode::ModStateEvent*)::{lambda(bool)#1}>(std::__ndk1::basic_string_view<char, std::__ndk1::char_traits<char> >, geodeExecFunction7<(anonymous namespace)::ExecFuncUnique7>(geode::ModStateEvent*)::{lambda(bool)#1}&&, geode::Mod*)::{lambda(std::__ndk1::shared_ptr<geode::SettingV3>)#1}, std::__ndk1::allocator<geode::listenForSettingChangesV3<bool, geodeExecFunction7<(anonymous namespace)::ExecFuncUnique7>(geode::ModStateEvent*)::{lambda(bool)#1}>(std::__ndk1::basic_string_view<char, std::__ndk1::char_traits<char> >, geodeExecFunction7<(anonymous namespace)::ExecFuncUnique7>(geode::ModStateEvent*)::{lambda(bool)#1}&&, geode::Mod*)::{lambda(std::__ndk1::shared_ptr<geode::SettingV3>)#1}>, void (std::__ndk1::shared_ptr<geode::SettingV3>)>::~__func()
PUBLIC 5d8c0 0 std::__ndk1::__function::__func<geode::listenForSettingChangesV3<bool, geodeExecFunction7<(anonymous namespace)::ExecFuncUnique7>(geode::ModStateEvent*)::{lambda(bool)#1}>(std::__ndk1::basic_string_view<char, std::__ndk1::char_traits<char> >, geodeExecFunction7<(anonymous namespace)::ExecFuncUnique7>(geode::ModStateEvent*)::{lambda(bool)#1}&&, geode::Mod*)::{lambda(std::__ndk1::shared_ptr<geode::SettingV3>)#1}, std::__ndk1::allocator<geode::listenForSettingChangesV3<bool, geodeExecFunction7<(anonymous namespace)::ExecFuncUnique7>(geode::ModStateEvent*)::{lambda(bool)#1}>(std::__ndk1::basic_string_view<char, std::__ndk1::char_traits<char> >, geodeExecFunction7<(anonymous namespace)::ExecFuncUnique7>(geode::ModStateEvent*)::{lambda(bool)#1}&&, geode::Mod*)::{lambda(std::__ndk1::shared_ptr<geode::SettingV3>)#1}>, void (std::__ndk1::shared_ptr<geode::SettingV3>)>::__clone() const
PUBLIC 5d8f8 0 std::__ndk1::__function::__func<geode::listenForSettingChangesV3<bool, geodeExecFunction7<(anonymous namespace)::ExecFuncUnique7>(geode::ModStateEvent*)::{lambda(bool)#1}>(std::__ndk1::basic_string_view<char, std::__ndk1::char_traits<char> >, geodeExecFunction7<(anonymous namespace)::ExecFuncUnique7>(geode::ModStateEvent*)::{lambda(bool)#1}&&, geode::Mod*)::{lambda(std::__ndk1::shared_ptr<geode::SettingV3>)#1}, std::__ndk1::allocator<geode::listenForSettingChangesV3<bool, geodeExecFunction7<(anonymous namespace)::ExecFuncUnique7>(geode::ModStateEvent*)::{lambda(bool)#1}>(std::__ndk1::basic_string_view<char, std::__ndk1::char_traits<char> >, geodeExecFunction7<(anonymous namespace)::ExecFuncUnique7>(geode::ModStateEvent*)::{lambda(bool)#1}&&, geode::Mod*)::{lambda(std::__ndk1::shared_ptr<geode::SettingV3>)#1}>, void (std::__ndk1::shared_ptr<geode::SettingV3>)>::__clone(std::__ndk1::__function::__base<void (std::__ndk1::shared_ptr<geode::SettingV3>)>*) const
PUBLIC 5d910 0 std::__ndk1::__function::__func<geode::listenForSettingChangesV3<bool, geodeExecFunction7<(anonymous namespace)::ExecFuncUnique7>(geode::ModStateEvent*)::{lambda(bool)#1}>(std::__ndk1::basic_string_view<char, std::__ndk1::char_traits<char> >, geodeExecFunction7<(anonymous namespace)::ExecFuncUnique7>(geode::ModStateEvent*)::{lambda(bool)#1}&&, geode::Mod*)::{lambda(std::__ndk1::shared_ptr<geode::SettingV3>)#1}, std::__ndk1::allocator<geode::listenForSettingChangesV3<bool, geodeExecFunction7<(anonymous namespace)::ExecFuncUnique7>(geode::ModStateEvent*)::{lambda(bool)#1}>(std::__ndk1::basic_string_view<char, std::__ndk1::char_traits<char> >, geodeExecFunction7<(anonymous namespace)::ExecFuncUnique7>(geode::ModStateEvent*)::{lambda(bool)#1}&&, geode::Mod*)::{lambda(std::__ndk1::shared_ptr<geode::SettingV3>)#1}>, void (std::__ndk1::shared_ptr<geode::SettingV3>)>::destroy()
PUBLIC 5d914 0 std::__ndk1::__function::__func<geode::listenForSettingChangesV3<bool, geodeExecFunction7<(anonymous namespace)::ExecFuncUnique7>(geode::ModStateEvent*)::{lambda(bool)#1}>(std::__ndk1::basic_string_view<char, std::__ndk1::char_traits<char> >, geodeExecFunction7<(anonymous namespace)::ExecFuncUnique7>(geode::ModStateEvent*)::{lambda(bool)#1}&&, geode::Mod*)::{lambda(std::__ndk1::shared_ptr<geode::SettingV3>)#1}, std::__ndk1::allocator<geode::listenForSettingChangesV3<bool, geodeExecFunction7<(anonymous namespace)::ExecFuncUnique7>(geode::ModStateEvent*)::{lambda(bool)#1}>(std::__ndk1::basic_string_view<char, std::__ndk1::char_traits<char> >, geodeExecFunction7<(anonymous namespace)::ExecFuncUnique7>(geode::ModStateEvent*)::{lambda(bool)#1}&&, geode::Mod*)::{lambda(std::__ndk1::shared_ptr<geode::SettingV3>)#1}>, void (std::__ndk1::shared_ptr<geode::SettingV3>)>::destroy_deallocate()
PUBLIC 5d918 0 std::__ndk1::__function::__func<geode::listenForSettingChangesV3<bool, geodeExecFunction7<(anonymous namespace)::ExecFuncUnique7>(geode::ModStateEvent*)::{lambda(bool)#1}>(std::__ndk1::basic_string_view<char, std::__ndk1::char_traits<char> >, geodeExecFunction7<(anonymous namespace)::ExecFuncUnique7>(geode::ModStateEvent*)::{lambda(bool)#1}&&, geode::Mod*)::{lambda(std::__ndk1::shared_ptr<geode::SettingV3>)#1}, std::__ndk1::allocator<geode::listenForSettingChangesV3<bool, geodeExecFunction7<(anonymous namespace)::ExecFuncUnique7>(geode::ModStateEvent*)::{lambda(bool)#1}>(std::__ndk1::basic_string_view<char, std::__ndk1::char_traits<char> >, geodeExecFunction7<(anonymous namespace)::ExecFuncUnique7>(geode::ModStateEvent*)::{lambda(bool)#1}&&, geode::Mod*)::{lambda(std::__ndk1::shared_ptr<geode::SettingV3>)#1}>, void (std::__ndk1::shared_ptr<geode::SettingV3>)>::operator()(std::__ndk1::shared_ptr<geode::SettingV3>&&)
PUBLIC 5db28 0 std::__ndk1::__function::__func<geode::listenForSettingChangesV3<bool, geodeExecFunction7<(anonymous namespace)::ExecFuncUnique7>(geode::ModStateEvent*)::{lambda(bool)#1}>(std::__ndk1::basic_string_view<char, std::__ndk1::char_traits<char> >, geodeExecFunction7<(anonymous namespace)::ExecFuncUnique7>(geode::ModStateEvent*)::{lambda(bool)#1}&&, geode::Mod*)::{lambda(std::__ndk1::shared_ptr<geode::SettingV3>)#1}, std::__ndk1::allocator<geode::listenForSettingChangesV3<bool, geodeExecFunction7<(anonymous namespace)::ExecFuncUnique7>(geode::ModStateEvent*)::{lambda(bool)#1}>(std::__ndk1::basic_string_view<char, std::__ndk1::char_traits<char> >, geodeExecFunction7<(anonymous namespace)::ExecFuncUnique7>(geode::ModStateEvent*)::{lambda(bool)#1}&&, geode::Mod*)::{lambda(std::__ndk1::shared_ptr<geode::SettingV3>)#1}>, void (std::__ndk1::shared_ptr<geode::SettingV3>)>::target(std::type_info const&) const
PUBLIC 5db44 0 std::__ndk1::__function::__func<geode::listenForSettingChangesV3<bool, geodeExecFunction7<(anonymous namespace)::ExecFuncUnique7>(geode::ModStateEvent*)::{lambda(bool)#1}>(std::__ndk1::basic_string_view<char, std::__ndk1::char_traits<char> >, geodeExecFunction7<(anonymous namespace)::ExecFuncUnique7>(geode::ModStateEvent*)::{lambda(bool)#1}&&, geode::Mod*)::{lambda(std::__ndk1::shared_ptr<geode::SettingV3>)#1}, std::__ndk1::allocator<geode::listenForSettingChangesV3<bool, geodeExecFunction7<(anonymous namespace)::ExecFuncUnique7>(geode::ModStateEvent*)::{lambda(bool)#1}>(std::__ndk1::basic_string_view<char, std::__ndk1::char_traits<char> >, geodeExecFunction7<(anonymous namespace)::ExecFuncUnique7>(geode::ModStateEvent*)::{lambda(bool)#1}&&, geode::Mod*)::{lambda(std::__ndk1::shared_ptr<geode::SettingV3>)#1}>, void (std::__ndk1::shared_ptr<geode::SettingV3>)>::target_type() const
PUBLIC 5db50 0 std::__ndk1::shared_ptr<geode::SettingV3>::~shared_ptr[abi:ne190000]()
PUBLIC 5dba0 0 std::__ndk1::shared_ptr<geode::BoolSettingV3>::~shared_ptr[abi:ne190000]()
PUBLIC 5dbf0 0 AudioManager::AudioManager(AudioManager const&)
PUBLIC 5df10 0 std::__ndk1::deque<std::__ndk1::shared_ptr<AudioSource>, std::__ndk1::allocator<std::__ndk1::shared_ptr<AudioSource> > >::__append_with_size[abi:ne190000]<std::__ndk1::__deque_iterator<std::__ndk1::shared_ptr<AudioSource>, std::__ndk1::shared_ptr<AudioSource> const*, std::__ndk1::__deque_iterator&, std::__ndk1::shared_ptr<AudioSource> const const*, long, (long)256> >(std::__ndk1::__deque_iterator<std::__ndk1::shared_ptr<AudioSource>, std::__ndk1::shared_ptr<AudioSource> const*, std::__ndk1::__deque_iterator&, std::__ndk1::shared_ptr<AudioSource> const const*, long, (long)256>, unsigned long)
PUBLIC 5e0ac 0 std::__ndk1::__exception_guard_exceptions<std::__ndk1::vector<std::__ndk1::shared_ptr<AudioSource>, std::__ndk1::allocator<std::__ndk1::shared_ptr<AudioSource> > >::__destroy_vector>::~__exception_guard_exceptions[abi:ne190000]()
PUBLIC 5e174 0 geode::EventListener<geode::SettingChangedFilterV3>::getPool() const
PUBLIC 5e178 0 geode::EventListener<geode::SettingChangedFilterV3>::handle(geode::Event*)
PUBLIC 5e2ec 0 geode::EventListener<geode::SettingChangedFilterV3>::~EventListener()
PUBLIC 5e388 0 geode::EventListener<geode::SettingChangedFilterV3>::~EventListener()
PUBLIC 5e42c 0 std::__ndk1::__function::__func<geode::listenForSettingChangesV3<std::__ndk1::basic_string<char, std::__ndk1::char_traits<char>, std::__ndk1::allocator<char> >, geodeExecFunction7<(anonymous namespace)::ExecFuncUnique7>(geode::ModStateEvent*)::{lambda(std::__ndk1::basic_string<char, std::__ndk1::char_traits<char>, std::__ndk1::allocator<char> >)#1}>(std::__ndk1::basic_string_view<char, std::__ndk1::char_traits<char> >, geodeExecFunction7<(anonymous namespace)::ExecFuncUnique7>(geode::ModStateEvent*)::{lambda(std::__ndk1::basic_string<char, std::__ndk1::char_traits<char>, std::__ndk1::allocator<char> >&&)#1}, geode::Mod*)::{lambda(std::__ndk1::shared_ptr<geode::SettingV3>)#1}, std::__ndk1::allocator<geode::listenForSettingChangesV3<std::__ndk1::basic_string<char, std::__ndk1::char_traits<char>, std::__ndk1::allocator<char> >, geodeExecFunction7<(anonymous namespace)::ExecFuncUnique7>(geode::ModStateEvent*)::{lambda(std::__ndk1::basic_string<char, std::__ndk1::char_traits<char>, std::__ndk1::allocator<char> >)#1}>(std::__ndk1::basic_string_view<char, std::__ndk1::char_traits<char> >, geodeExecFunction7<(anonymous namespace)::ExecFuncUnique7>(geode::ModStateEvent*)::{lambda(std::__ndk1::basic_string<char, std::__ndk1::char_traits<char>, std::__ndk1::allocator<char> >&&)#1}, geode::Mod*)::{lambda(std::__ndk1::shared_ptr<geode::SettingV3>)#1}>, void (std::__ndk1::shared_ptr<geode::SettingV3>)>::~__func()
PUBLIC 5e430 0 std::__ndk1::__function::__func<geode::listenForSettingChangesV3<std::__ndk1::basic_string<char, std::__ndk1::char_traits<char>, std::__ndk1::allocator<char> >, geodeExecFunction7<(anonymous namespace)::ExecFuncUnique7>(geode::ModStateEvent*)::{lambda(std::__ndk1::basic_string<char, std::__ndk1::char_traits<char>, std::__ndk1::allocator<char> >)#1}>(std::__ndk1::basic_string_view<char, std::__ndk1::char_traits<char> >, geodeExecFunction7<(anonymous namespace)::ExecFuncUnique7>(geode::ModStateEvent*)::{lambda(std::__ndk1::basic_string<char, std::__ndk1::char_traits<char>, std::__ndk1::allocator<char> >&&)#1}, geode::Mod*)::{lambda(std::__ndk1::shared_ptr<geode::SettingV3>)#1}, std::__ndk1::allocator<geode::listenForSettingChangesV3<std::__ndk1::basic_string<char, std::__ndk1::char_traits<char>, std::__ndk1::allocator<char> >, geodeExecFunction7<(anonymous namespace)::ExecFuncUnique7>(geode::ModStateEvent*)::{lambda(std::__ndk1::basic_string<char, std::__ndk1::char_traits<char>, std::__ndk1::allocator<char> >)#1}>(std::__ndk1::basic_string_view<char, std::__ndk1::char_traits<char> >, geodeExecFunction7<(anonymous namespace)::ExecFuncUnique7>(geode::ModStateEvent*)::{lambda(std::__ndk1::basic_string<char, std::__ndk1::char_traits<char>, std::__ndk1::allocator<char> >&&)#1}, geode::Mod*)::{lambda(std::__ndk1::shared_ptr<geode::SettingV3>)#1}>, void (std::__ndk1::shared_ptr<geode::SettingV3>)>::__clone() const
PUBLIC 5e468 0 std::__ndk1::__function::__func<geode::listenForSettingChangesV3<std::__ndk1::basic_string<char, std::__ndk1::char_traits<char>, std::__ndk1::allocator<char> >, geodeExecFunction7<(anonymous namespace)::ExecFuncUnique7>(geode::ModStateEvent*)::{lambda(std::__ndk1::basic_string<char, std::__ndk1::char_traits<char>, std::__ndk1::allocator<char> >)#1}>(std::__ndk1::basic_string_view<char, std::__ndk1::char_traits<char> >, geodeExecFunction7<(anonymous namespace)::ExecFuncUnique7>(geode::ModStateEvent*)::{lambda(std::__ndk1::basic_string<char, std::__ndk1::char_traits<char>, std::__ndk1::allocator<char> >&&)#1}, geode::Mod*)::{lambda(std::__ndk1::shared_ptr<geode::SettingV3>)#1}, std::__ndk1::allocator<geode::listenForSettingChangesV3<std::__ndk1::basic_string<char, std::__ndk1::char_traits<char>, std::__ndk1::allocator<char> >, geodeExecFunction7<(anonymous namespace)::ExecFuncUnique7>(geode::ModStateEvent*)::{lambda(std::__ndk1::basic_string<char, std::__ndk1::char_traits<char>, std::__ndk1::allocator<char> >)#1}>(std::__ndk1::basic_string_view<char, std::__ndk1::char_traits<char> >, geodeExecFunction7<(anonymous namespace)::ExecFuncUnique7>(geode::ModStateEvent*)::{lambda(std::__ndk1::basic_string<char, std::__ndk1::char_traits<char>, std::__ndk1::allocator<char> >&&)#1}, geode::Mod*)::{lambda(std::__ndk1::shared_ptr<geode::SettingV3>)#1}>, void (std::__ndk1::shared_ptr<geode::SettingV3>)>::__clone(std::__ndk1::__function::__base<void (std::__ndk1::shared_ptr<geode::SettingV3>)>*) const
PUBLIC 5e480 0 std::__ndk1::__function::__func<geode::listenForSettingChangesV3<std::__ndk1::basic_string<char, std::__ndk1::char_traits<char>, std::__ndk1::allocator<char> >, geodeExecFunction7<(anonymous namespace)::ExecFuncUnique7>(geode::ModStateEvent*)::{lambda(std::__ndk1::basic_string<char, std::__ndk1::char_traits<char>, std::__ndk1::allocator<char> >)#1}>(std::__ndk1::basic_string_view<char, std::__ndk1::char_traits<char> >, geodeExecFunction7<(anonymous namespace)::ExecFuncUnique7>(geode::ModStateEvent*)::{lambda(std::__ndk1::basic_string<char, std::__ndk1::char_traits<char>, std::__ndk1::allocator<char> >&&)#1}, geode::Mod*)::{lambda(std::__ndk1::shared_ptr<geode::SettingV3>)#1}, std::__ndk1::allocator<geode::listenForSettingChangesV3<std::__ndk1::basic_string<char, std::__ndk1::char_traits<char>, std::__ndk1::allocator<char> >, geodeExecFunction7<(anonymous namespace)::ExecFuncUnique7>(geode::ModStateEvent*)::{lambda(std::__ndk1::basic_string<char, std::__ndk1::char_traits<char>, std::__ndk1::allocator<char> >)#1}>(std::__ndk1::basic_string_view<char, std::__ndk1::char_traits<char> >, geodeExecFunction7<(anonymous namespace)::ExecFuncUnique7>(geode::ModStateEvent*)::{lambda(std::__ndk1::basic_string<char, std::__ndk1::char_traits<char>, std::__ndk1::allocator<char> >&&)#1}, geode::Mod*)::{lambda(std::__ndk1::shared_ptr<geode::SettingV3>)#1}>, void (std::__ndk1::shared_ptr<geode::SettingV3>)>::destroy()
PUBLIC 5e484 0 std::__ndk1::__function::__func<geode::listenForSettingChangesV3<std::__ndk1::basic_string<char, std::__ndk1::char_traits<char>, std::__ndk1::allocator<char> >, geodeExecFunction7<(anonymous namespace)::ExecFuncUnique7>(geode::ModStateEvent*)::{lambda(std::__ndk1::basic_string<char, std::__ndk1::char_traits<char>, std::__ndk1::allocator<char> >)#1}>(std::__ndk1::basic_string_view<char, std::__ndk1::char_traits<char> >, geodeExecFunction7<(anonymous namespace)::ExecFuncUnique7>(geode::ModStateEvent*)::{lambda(std::__ndk1::basic_string<char, std::__ndk1::char_traits<char>, std::__ndk1::allocator<char> >&&)#1}, geode::Mod*)::{lambda(std::__ndk1::shared_ptr<geode::SettingV3>)#1}, std::__ndk1::allocator<geode::listenForSettingChangesV3<std::__ndk1::basic_string<char, std::__ndk1::char_traits<char>, std::__ndk1::allocator<char> >, geodeExecFunction7<(anonymous namespace)::ExecFuncUnique7>(geode::ModStateEvent*)::{lambda(std::__ndk1::basic_string<char, std::__ndk1::char_traits<char>, std::__ndk1::allocator<char> >)#1}>(std::__ndk1::basic_string_view<char, std::__ndk1::char_traits<char> >, geodeExecFunction7<(anonymous namespace)::ExecFuncUnique7>(geode::ModStateEvent*)::{lambda(std::__ndk1::basic_string<char, std::__ndk1::char_traits<char>, std::__ndk1::allocator<char> >&&)#1}, geode::Mod*)::{lambda(std::__ndk1::shared_ptr<geode::SettingV3>)#1}>, void (std::__ndk1::shared_ptr<geode::SettingV3>)>::destroy_deallocate()
PUBLIC 5e488 0 std::__ndk1::__function::__func<geode::listenForSettingChangesV3<std::__ndk1::basic_string<char, std::__ndk1::char_traits<char>, std::__ndk1::allocator<char> >, geodeExecFunction7<(anonymous namespace)::ExecFuncUnique7>(geode::ModStateEvent*)::{lambda(std::__ndk1::basic_string<char, std::__ndk1::char_traits<char>, std::__ndk1::allocator<char> >)#1}>(std::__ndk1::basic_string_view<char, std::__ndk1::char_traits<char> >, geodeExecFunction7<(anonymous namespace)::ExecFuncUnique7>(geode::ModStateEvent*)::{lambda(std::__ndk1::basic_string<char, std::__ndk1::char_traits<char>, std::__ndk1::allocator<char> >&&)#1}, geode::Mod*)::{lambda(std::__ndk1::shared_ptr<geode::SettingV3>)#1}, std::__ndk1::allocator<geode::listenForSettingChangesV3<std::__ndk1::basic_string<char, std::__ndk1::char_traits<char>, std::__ndk1::allocator<char> >, geodeExecFunction7<(anonymous namespace)::ExecFuncUnique7>(geode::ModStateEvent*)::{lambda(std::__ndk1::basic_string<char, std::__ndk1::char_traits<char>, std::__ndk1::allocator<char> >)#1}>(std::__ndk1::basic_string_view<char, std::__ndk1::char_traits<char> >, geodeExecFunction7<(anonymous namespace)::ExecFuncUnique7>(geode::ModStateEvent*)::{lambda(std::__ndk1::basic_string<char, std::__ndk1::char_traits<char>, std::__ndk1::allocator<char> >&&)#1}, geode::Mod*)::{lambda(std::__ndk1::shared_ptr<geode::SettingV3>)#1}>, void (std::__ndk1::shared_ptr<geode::SettingV3>)>::operator()(std::__ndk1::shared_ptr<geode::SettingV3>&&)
PUBLIC 5e624 0 std::__ndk1::__function::__func<geode::listenForSettingChangesV3<std::__ndk1::basic_string<char, std::__ndk1::char_traits<char>, std::__ndk1::allocator<char> >, geodeExecFunction7<(anonymous namespace)::ExecFuncUnique7>(geode::ModStateEvent*)::{lambda(std::__ndk1::basic_string<char, std::__ndk1::char_traits<char>, std::__ndk1::allocator<char> >)#1}>(std::__ndk1::basic_string_view<char, std::__ndk1::char_traits<char> >, geodeExecFunction7<(anonymous namespace)::ExecFuncUnique7>(geode::ModStateEvent*)::{lambda(std::__ndk1::basic_string<char, std::__ndk1::char_traits<char>, std::__ndk1::allocator<char> >&&)#1}, geode::Mod*)::{lambda(std::__ndk1::shared_ptr<geode::SettingV3>)#1}, std::__ndk1::allocator<geode::listenForSettingChangesV3<std::__ndk1::basic_string<char, std::__ndk1::char_traits<char>, std::__ndk1::allocator<char> >, geodeExecFunction7<(anonymous namespace)::ExecFuncUnique7>(geode::ModStateEvent*)::{lambda(std::__ndk1::basic_string<char, std::__ndk1::char_traits<char>, std::__ndk1::allocator<char> >)#1}>(std::__ndk1::basic_string_view<char, std::__ndk1::char_traits<char> >, geodeExecFunction7<(anonymous namespace)::ExecFuncUnique7>(geode::ModStateEvent*)::{lambda(std::__ndk1::basic_string<char, std::__ndk1::char_traits<char>, std::__ndk1::allocator<char> >&&)#1}, geode::Mod*)::{lambda(std::__ndk1::shared_ptr<geode::SettingV3>)#1}>, void (std::__ndk1::shared_ptr<geode::SettingV3>)>::target(std::type_info const&) const
PUBLIC 5e640 0 std::__ndk1::__function::__func<geode::listenForSettingChangesV3<std::__ndk1::basic_string<char, std::__ndk1::char_traits<char>, std::__ndk1::allocator<char> >, geodeExecFunction7<(anonymous namespace)::ExecFuncUnique7>(geode::ModStateEvent*)::{lambda(std::__ndk1::basic_string<char, std::__ndk1::char_traits<char>, std::__ndk1::allocator<char> >)#1}>(std::__ndk1::basic_string_view<char, std::__ndk1::char_traits<char> >, geodeExecFunction7<(anonymous namespace)::ExecFuncUnique7>(geode::ModStateEvent*)::{lambda(std::__ndk1::basic_string<char, std::__ndk1::char_traits<char>, std::__ndk1::allocator<char> >&&)#1}, geode::Mod*)::{lambda(std::__ndk1::shared_ptr<geode::SettingV3>)#1}, std::__ndk1::allocator<geode::listenForSettingChangesV3<std::__ndk1::basic_string<char, std::__ndk1::char_traits<char>, std::__ndk1::allocator<char> >, geodeExecFunction7<(anonymous namespace)::ExecFuncUnique7>(geode::ModStateEvent*)::{lambda(std::__ndk1::basic_string<char, std::__ndk1::char_traits<char>, std::__ndk1::allocator<char> >)#1}>(std::__ndk1::basic_string_view<char, std::__ndk1::char_traits<char> >, geodeExecFunction7<(anonymous namespace)::ExecFuncUnique7>(geode::ModStateEvent*)::{lambda(std::__ndk1::basic_string<char, std::__ndk1::char_traits<char>, std::__ndk1::allocator<char> >&&)#1}, geode::Mod*)::{lambda(std::__ndk1::shared_ptr<geode::SettingV3>)#1}>, void (std::__ndk1::shared_ptr<geode::SettingV3>)>::target_type() const
PUBLIC 5e64c 0 std::__ndk1::shared_ptr<geode::StringSettingV3>::~shared_ptr[abi:ne190000]()
PUBLIC 5e69c 0 std::__ndk1::__function::__func<geode::listenForSettingChangesV3<std::__ndk1::basic_string<char, std::__ndk1::char_traits<char>, std::__ndk1::allocator<char> >, geodeExecFunction7<(anonymous namespace)::ExecFuncUnique7>(geode::ModStateEvent*)::{lambda(std::__ndk1::basic_string<char, std::__ndk1::char_traits<char>, std::__ndk1::allocator<char> >)#2}>(std::__ndk1::basic_string_view<char, std::__ndk1::char_traits<char> >, geodeExecFunction7<(anonymous namespace)::ExecFuncUnique7>(geode::ModStateEvent*)::{lambda(std::__ndk1::basic_string<char, std::__ndk1::char_traits<char>, std::__ndk1::allocator<char> >&&)#2}, geode::Mod*)::{lambda(std::__ndk1::shared_ptr<geode::SettingV3>)#1}, std::__ndk1::allocator<geode::listenForSettingChangesV3<std::__ndk1::basic_string<char, std::__ndk1::char_traits<char>, std::__ndk1::allocator<char> >, geodeExecFunction7<(anonymous namespace)::ExecFuncUnique7>(geode::ModStateEvent*)::{lambda(std::__ndk1::basic_string<char, std::__ndk1::char_traits<char>, std::__ndk1::allocator<char> >)#2}>(std::__ndk1::basic_string_view<char, std::__ndk1::char_traits<char> >, geodeExecFunction7<(anonymous namespace)::ExecFuncUnique7>(geode::ModStateEvent*)::{lambda(std::__ndk1::basic_string<char, std::__ndk1::char_traits<char>, std::__ndk1::allocator<char> >&&)#2}, geode::Mod*)::{lambda(std::__ndk1::shared_ptr<geode::SettingV3>)#1}>, void (std::__ndk1::shared_ptr<geode::SettingV3>)>::~__func()
PUBLIC 5e6a0 0 std::__ndk1::__function::__func<geode::listenForSettingChangesV3<std::__ndk1::basic_string<char, std::__ndk1::char_traits<char>, std::__ndk1::allocator<char> >, geodeExecFunction7<(anonymous namespace)::ExecFuncUnique7>(geode::ModStateEvent*)::{lambda(std::__ndk1::basic_string<char, std::__ndk1::char_traits<char>, std::__ndk1::allocator<char> >)#2}>(std::__ndk1::basic_string_view<char, std::__ndk1::char_traits<char> >, geodeExecFunction7<(anonymous namespace)::ExecFuncUnique7>(geode::ModStateEvent*)::{lambda(std::__ndk1::basic_string<char, std::__ndk1::char_traits<char>, std::__ndk1::allocator<char> >&&)#2}, geode::Mod*)::{lambda(std::__ndk1::shared_ptr<geode::SettingV3>)#1}, std::__ndk1::allocator<geode::listenForSettingChangesV3<std::__ndk1::basic_string<char, std::__ndk1::char_traits<char>, std::__ndk1::allocator<char> >, geodeExecFunction7<(anonymous namespace)::ExecFuncUnique7>(geode::ModStateEvent*)::{lambda(std::__ndk1::basic_string<char, std::__ndk1::char_traits<char>, std::__ndk1::allocator<char> >)#2}>(std::__ndk1::basic_string_view<char, std::__ndk1::char_traits<char> >, geodeExecFunction7<(anonymous namespace)::ExecFuncUnique7>(geode::ModStateEvent*)::{lambda(std::__ndk1::basic_string<char, std::__ndk1::char_traits<char>, std::__ndk1::allocator<char> >&&)#2}, geode::Mod*)::{lambda(std::__ndk1::shared_ptr<geode::SettingV3>)#1}>, void (std::__ndk1::shared_ptr<geode::SettingV3>)>::__clone() const
PUBLIC 5e6d8 0 std::__ndk1::__function::__func<geode::listenForSettingChangesV3<std::__ndk1::basic_string<char, std::__ndk1::char_traits<char>, std::__ndk1::allocator<char> >, geodeExecFunction7<(anonymous namespace)::ExecFuncUnique7>(geode::ModStateEvent*)::{lambda(std::__ndk1::basic_string<char, std::__ndk1::char_traits<char>, std::__ndk1::allocator<char> >)#2}>(std::__ndk1::basic_string_view<char, std::__ndk1::char_traits<char> >, geodeExecFunction7<(anonymous namespace)::ExecFuncUnique7>(geode::ModStateEvent*)::{lambda(std::__ndk1::basic_string<char, std::__ndk1::char_traits<char>, std::__ndk1::allocator<char> >&&)#2}, geode::Mod*)::{lambda(std::__ndk1::shared_ptr<geode::SettingV3>)#1}, std::__ndk1::allocator<geode::listenForSettingChangesV3<std::__ndk1::basic_string<char, std::__ndk1::char_traits<char>, std::__ndk1::allocator<char> >, geodeExecFunction7<(anonymous namespace)::ExecFuncUnique7>(geode::ModStateEvent*)::{lambda(std::__ndk1::basic_string<char, std::__ndk1::char_traits<char>, std::__ndk1::allocator<char> >)#2}>(std::__ndk1::basic_string_view<char, std::__ndk1::char_traits<char> >, geodeExecFunction7<(anonymous namespace)::ExecFuncUnique7>(geode::ModStateEvent*)::{lambda(std::__ndk1::basic_string<char, std::__ndk1::char_traits<char>, std::__ndk1::allocator<char> >&&)#2}, geode::Mod*)::{lambda(std::__ndk1::shared_ptr<geode::SettingV3>)#1}>, void (std::__ndk1::shared_ptr<geode::SettingV3>)>::__clone(std::__ndk1::__function::__base<void (std::__ndk1::shared_ptr<geode::SettingV3>)>*) const
PUBLIC 5e6f0 0 std::__ndk1::__function::__func<geode::listenForSettingChangesV3<std::__ndk1::basic_string<char, std::__ndk1::char_traits<char>, std::__ndk1::allocator<char> >, geodeExecFunction7<(anonymous namespace)::ExecFuncUnique7>(geode::ModStateEvent*)::{lambda(std::__ndk1::basic_string<char, std::__ndk1::char_traits<char>, std::__ndk1::allocator<char> >)#2}>(std::__ndk1::basic_string_view<char, std::__ndk1::char_traits<char> >, geodeExecFunction7<(anonymous namespace)::ExecFuncUnique7>(geode::ModStateEvent*)::{lambda(std::__ndk1::basic_string<char, std::__ndk1::char_traits<char>, std::__ndk1::allocator<char> >&&)#2}, geode::Mod*)::{lambda(std::__ndk1::shared_ptr<geode::SettingV3>)#1}, std::__ndk1::allocator<geode::listenForSettingChangesV3<std::__ndk1::basic_string<char, std::__ndk1::char_traits<char>, std::__ndk1::allocator<char> >, geodeExecFunction7<(anonymous namespace)::ExecFuncUnique7>(geode::ModStateEvent*)::{lambda(std::__ndk1::basic_string<char, std::__ndk1::char_traits<char>, std::__ndk1::allocator<char> >)#2}>(std::__ndk1::basic_string_view<char, std::__ndk1::char_traits<char> >, geodeExecFunction7<(anonymous namespace)::ExecFuncUnique7>(geode::ModStateEvent*)::{lambda(std::__ndk1::basic_string<char, std::__ndk1::char_traits<char>, std::__ndk1::allocator<char> >&&)#2}, geode::Mod*)::{lambda(std::__ndk1::shared_ptr<geode::SettingV3>)#1}>, void (std::__ndk1::shared_ptr<geode::SettingV3>)>::destroy()
PUBLIC 5e6f4 0 std::__ndk1::__function::__func<geode::listenForSettingChangesV3<std::__ndk1::basic_string<char, std::__ndk1::char_traits<char>, std::__ndk1::allocator<char> >, geodeExecFunction7<(anonymous namespace)::ExecFuncUnique7>(geode::ModStateEvent*)::{lambda(std::__ndk1::basic_string<char, std::__ndk1::char_traits<char>, std::__ndk1::allocator<char> >)#2}>(std::__ndk1::basic_string_view<char, std::__ndk1::char_traits<char> >, geodeExecFunction7<(anonymous namespace)::ExecFuncUnique7>(geode::ModStateEvent*)::{lambda(std::__ndk1::basic_string<char, std::__ndk1::char_traits<char>, std::__ndk1::allocator<char> >&&)#2}, geode::Mod*)::{lambda(std::__ndk1::shared_ptr<geode::SettingV3>)#1}, std::__ndk1::allocator<geode::listenForSettingChangesV3<std::__ndk1::basic_string<char, std::__ndk1::char_traits<char>, std::__ndk1::allocator<char> >, geodeExecFunction7<(anonymous namespace)::ExecFuncUnique7>(geode::ModStateEvent*)::{lambda(std::__ndk1::basic_string<char, std::__ndk1::char_traits<char>, std::__ndk1::allocator<char> >)#2}>(std::__ndk1::basic_string_view<char, std::__ndk1::char_traits<char> >, geodeExecFunction7<(anonymous namespace)::ExecFuncUnique7>(geode::ModStateEvent*)::{lambda(std::__ndk1::basic_string<char, std::__ndk1::char_traits<char>, std::__ndk1::allocator<char> >&&)#2}, geode::Mod*)::{lambda(std::__ndk1::shared_ptr<geode::SettingV3>)#1}>, void (std::__ndk1::shared_ptr<geode::SettingV3>)>::destroy_deallocate()
PUBLIC 5e6f8 0 std::__ndk1::__function::__func<geode::listenForSettingChangesV3<std::__ndk1::basic_string<char, std::__ndk1::char_traits<char>, std::__ndk1::allocator<char> >, geodeExecFunction7<(anonymous namespace)::ExecFuncUnique7>(geode::ModStateEvent*)::{lambda(std::__ndk1::basic_string<char, std::__ndk1::char_traits<char>, std::__ndk1::allocator<char> >)#2}>(std::__ndk1::basic_string_view<char, std::__ndk1::char_traits<char> >, geodeExecFunction7<(anonymous namespace)::ExecFuncUnique7>(geode::ModStateEvent*)::{lambda(std::__ndk1::basic_string<char, std::__ndk1::char_traits<char>, std::__ndk1::allocator<char> >&&)#2}, geode::Mod*)::{lambda(std::__ndk1::shared_ptr<geode::SettingV3>)#1}, std::__ndk1::allocator<geode::listenForSettingChangesV3<std::__ndk1::basic_string<char, std::__ndk1::char_traits<char>, std::__ndk1::allocator<char> >, geodeExecFunction7<(anonymous namespace)::ExecFuncUnique7>(geode::ModStateEvent*)::{lambda(std::__ndk1::basic_string<char, std::__ndk1::char_traits<char>, std::__ndk1::allocator<char> >)#2}>(std::__ndk1::basic_string_view<char, std::__ndk1::char_traits<char> >, geodeExecFunction7<(anonymous namespace)::ExecFuncUnique7>(geode::ModStateEvent*)::{lambda(std::__ndk1::basic_string<char, std::__ndk1::char_traits<char>, std::__ndk1::allocator<char> >&&)#2}, geode::Mod*)::{lambda(std::__ndk1::shared_ptr<geode::SettingV3>)#1}>, void (std::__ndk1::shared_ptr<geode::SettingV3>)>::operator()(std::__ndk1::shared_ptr<geode::SettingV3>&&)
PUBLIC 5e894 0 std::__ndk1::__function::__func<geode::listenForSettingChangesV3<std::__ndk1::basic_string<char, std::__ndk1::char_traits<char>, std::__ndk1::allocator<char> >, geodeExecFunction7<(anonymous namespace)::ExecFuncUnique7>(geode::ModStateEvent*)::{lambda(std::__ndk1::basic_string<char, std::__ndk1::char_traits<char>, std::__ndk1::allocator<char> >)#2}>(std::__ndk1::basic_string_view<char, std::__ndk1::char_traits<char> >, geodeExecFunction7<(anonymous namespace)::ExecFuncUnique7>(geode::ModStateEvent*)::{lambda(std::__ndk1::basic_string<char, std::__ndk1::char_traits<char>, std::__ndk1::allocator<char> >&&)#2}, geode::Mod*)::{lambda(std::__ndk1::shared_ptr<geode::SettingV3>)#1}, std::__ndk1::allocator<geode::listenForSettingChangesV3<std::__ndk1::basic_string<char, std::__ndk1::char_traits<char>, std::__ndk1::allocator<char> >, geodeExecFunction7<(anonymous namespace)::ExecFuncUnique7>(geode::ModStateEvent*)::{lambda(std::__ndk1::basic_string<char, std::__ndk1::char_traits<char>, std::__ndk1::allocator<char> >)#2}>(std::__ndk1::basic_string_view<char, std::__ndk1::char_traits<char> >, geodeExecFunction7<(anonymous namespace)::ExecFuncUnique7>(geode::ModStateEvent*)::{lambda(std::__ndk1::basic_string<char, std::__ndk1::char_traits<char>, std::__ndk1::allocator<char> >&&)#2}, geode::Mod*)::{lambda(std::__ndk1::shared_ptr<geode::SettingV3>)#1}>, void (std::__ndk1::shared_ptr<geode::SettingV3>)>::target(std::type_info const&) const
PUBLIC 5e8b0 0 std::__ndk1::__function::__func<geode::listenForSettingChangesV3<std::__ndk1::basic_string<char, std::__ndk1::char_traits<char>, std::__ndk1::allocator<char> >, geodeExecFunction7<(anonymous namespace)::ExecFuncUnique7>(geode::ModStateEvent*)::{lambda(std::__ndk1::basic_string<char, std::__ndk1::char_traits<char>, std::__ndk1::allocator<char> >)#2}>(std::__ndk1::basic_string_view<char, std::__ndk1::char_traits<char> >, geodeExecFunction7<(anonymous namespace)::ExecFuncUnique7>(geode::ModStateEvent*)::{lambda(std::__ndk1::basic_string<char, std::__ndk1::char_traits<char>, std::__ndk1::allocator<char> >&&)#2}, geode::Mod*)::{lambda(std::__ndk1::shared_ptr<geode::SettingV3>)#1}, std::__ndk1::allocator<geode::listenForSettingChangesV3<std::__ndk1::basic_string<char, std::__ndk1::char_traits<char>, std::__ndk1::allocator<char> >, geodeExecFunction7<(anonymous namespace)::ExecFuncUnique7>(geode::ModStateEvent*)::{lambda(std::__ndk1::basic_string<char, std::__ndk1::char_traits<char>, std::__ndk1::allocator<char> >)#2}>(std::__ndk1::basic_string_view<char, std::__ndk1::char_traits<char> >, geodeExecFunction7<(anonymous namespace)::ExecFuncUnique7>(geode::ModStateEvent*)::{lambda(std::__ndk1::basic_string<char, std::__ndk1::char_traits<char>, std::__ndk1::allocator<char> >&&)#2}, geode::Mod*)::{lambda(std::__ndk1::shared_ptr<geode::SettingV3>)#1}>, void (std::__ndk1::shared_ptr<geode::SettingV3>)>::target_type() const
PUBLIC 5e8bc 0 std::__ndk1::__function::__base<void (std::__ndk1::shared_ptr<geode::SettingV3>)>::~__base()
PUBLIC 5e8c0 0 std::__ndk1::__function::__func<geode::listenForSettingChangesV3<std::__ndk1::__fs::filesystem::path, geodeExecFunction7<(anonymous namespace)::ExecFuncUnique7>(geode::ModStateEvent*)::{lambda(std::__ndk1::__fs::filesystem::path)#1}>(std::__ndk1::basic_string_view<char, std::__ndk1::char_traits<char> >, geodeExecFunction7<(anonymous namespace)::ExecFuncUnique7>(geode::ModStateEvent*)::{lambda(std::__ndk1::__fs::filesystem::path&&)#1}, geode::Mod*)::{lambda(std::__ndk1::shared_ptr<geode::SettingV3>)#1}, std::__ndk1::allocator<geode::listenForSettingChangesV3<std::__ndk1::__fs::filesystem::path, geodeExecFunction7<(anonymous namespace)::ExecFuncUnique7>(geode::ModStateEvent*)::{lambda(std::__ndk1::__fs::filesystem::path)#1}>(std::__ndk1::basic_string_view<char, std::__ndk1::char_traits<char> >, geodeExecFunction7<(anonymous namespace)::ExecFuncUnique7>(geode::ModStateEvent*)::{lambda(std::__ndk1::__fs::filesystem::path&&)#1}, geode::Mod*)::{lambda(std::__ndk1::shared_ptr<geode::SettingV3>)#1}>, void (std::__ndk1::shared_ptr<geode::SettingV3>)>::~__func()
PUBLIC 5e8c4 0 std::__ndk1::__function::__func<geode::listenForSettingChangesV3<std::__ndk1::__fs::filesystem::path, geodeExecFunction7<(anonymous namespace)::ExecFuncUnique7>(geode::ModStateEvent*)::{lambda(std::__ndk1::__fs::filesystem::path)#1}>(std::__ndk1::basic_string_view<char, std::__ndk1::char_traits<char> >, geodeExecFunction7<(anonymous namespace)::ExecFuncUnique7>(geode::ModStateEvent*)::{lambda(std::__ndk1::__fs::filesystem::path&&)#1}, geode::Mod*)::{lambda(std::__ndk1::shared_ptr<geode::SettingV3>)#1}, std::__ndk1::allocator<geode::listenForSettingChangesV3<std::__ndk1::__fs::filesystem::path, geodeExecFunction7<(anonymous namespace)::ExecFuncUnique7>(geode::ModStateEvent*)::{lambda(std::__ndk1::__fs::filesystem::path)#1}>(std::__ndk1::basic_string_view<char, std::__ndk1::char_traits<char> >, geodeExecFunction7<(anonymous namespace)::ExecFuncUnique7>(geode::ModStateEvent*)::{lambda(std::__ndk1::__fs::filesystem::path&&)#1}, geode::Mod*)::{lambda(std::__ndk1::shared_ptr<geode::SettingV3>)#1}>, void (std::__ndk1::shared_ptr<geode::SettingV3>)>::__clone() const
PUBLIC 5e8fc 0 std::__ndk1::__function::__func<geode::listenForSettingChangesV3<std::__ndk1::__fs::filesystem::path, geodeExecFunction7<(anonymous namespace)::ExecFuncUnique7>(geode::ModStateEvent*)::{lambda(std::__ndk1::__fs::filesystem::path)#1}>(std::__ndk1::basic_string_view<char, std::__ndk1::char_traits<char> >, geodeExecFunction7<(anonymous namespace)::ExecFuncUnique7>(geode::ModStateEvent*)::{lambda(std::__ndk1::__fs::filesystem::path&&)#1}, geode::Mod*)::{lambda(std::__ndk1::shared_ptr<geode::SettingV3>)#1}, std::__ndk1::allocator<geode::listenForSettingChangesV3<std::__ndk1::__fs::filesystem::path, geodeExecFunction7<(anonymous namespace)::ExecFuncUnique7>(geode::ModStateEvent*)::{lambda(std::__ndk1::__fs::filesystem::path)#1}>(std::__ndk1::basic_string_view<char, std::__ndk1::char_traits<char> >, geodeExecFunction7<(anonymous namespace)::ExecFuncUnique7>(geode::ModStateEvent*)::{lambda(std::__ndk1::__fs::filesystem::path&&)#1}, geode::Mod*)::{lambda(std::__ndk1::shared_ptr<geode::SettingV3>)#1}>, void (std::__ndk1::shared_ptr<geode::SettingV3>)>::__clone(std::__ndk1::__function::__base<void (std::__ndk1::shared_ptr<geode::SettingV3>)>*) const
PUBLIC 5e914 0 std::__ndk1::__function::__func<geode::listenForSettingChangesV3<std::__ndk1::__fs::filesystem::path, geodeExecFunction7<(anonymous namespace)::ExecFuncUnique7>(geode::ModStateEvent*)::{lambda(std::__ndk1::__fs::filesystem::path)#1}>(std::__ndk1::basic_string_view<char, std::__ndk1::char_traits<char> >, geodeExecFunction7<(anonymous namespace)::ExecFuncUnique7>(geode::ModStateEvent*)::{lambda(std::__ndk1::__fs::filesystem::path&&)#1}, geode::Mod*)::{lambda(std::__ndk1::shared_ptr<geode::SettingV3>)#1}, std::__ndk1::allocator<geode::listenForSettingChangesV3<std::__ndk1::__fs::filesystem::path, geodeExecFunction7<(anonymous namespace)::ExecFuncUnique7>(geode::ModStateEvent*)::{lambda(std::__ndk1::__fs::filesystem::path)#1}>(std::__ndk1::basic_string_view<char, std::__ndk1::char_traits<char> >, geodeExecFunction7<(anonymous namespace)::ExecFuncUnique7>(geode::ModStateEvent*)::{lambda(std::__ndk1::__fs::filesystem::path&&)#1}, geode::Mod*)::{lambda(std::__ndk1::shared_ptr<geode::SettingV3>)#1}>, void (std::__ndk1::shared_ptr<geode::SettingV3>)>::destroy()
PUBLIC 5e918 0 std::__ndk1::__function::__func<geode::listenForSettingChangesV3<std::__ndk1::__fs::filesystem::path, geodeExecFunction7<(anonymous namespace)::ExecFuncUnique7>(geode::ModStateEvent*)::{lambda(std::__ndk1::__fs::filesystem::path)#1}>(std::__ndk1::basic_string_view<char, std::__ndk1::char_traits<char> >, geodeExecFunction7<(anonymous namespace)::ExecFuncUnique7>(geode::ModStateEvent*)::{lambda(std::__ndk1::__fs::filesystem::path&&)#1}, geode::Mod*)::{lambda(std::__ndk1::shared_ptr<geode::SettingV3>)#1}, std::__ndk1::allocator<geode::listenForSettingChangesV3<std::__ndk1::__fs::filesystem::path, geodeExecFunction7<(anonymous namespace)::ExecFuncUnique7>(geode::ModStateEvent*)::{lambda(std::__ndk1::__fs::filesystem::path)#1}>(std::__ndk1::basic_string_view<char, std::__ndk1::char_traits<char> >, geodeExecFunction7<(anonymous namespace)::ExecFuncUnique7>(geode::ModStateEvent*)::{lambda(std::__ndk1::__fs::filesystem::path&&)#1}, geode::Mod*)::{lambda(std::__ndk1::shared_ptr<geode::SettingV3>)#1}>, void (std::__ndk1::shared_ptr<geode::SettingV3>)>::destroy_deallocate()
PUBLIC 5e91c 0 std::__ndk1::__function::__func<geode::listenForSettingChangesV3<std::__ndk1::__fs::filesystem::path, geodeExecFunction7<(anonymous namespace)::ExecFuncUnique7>(geode::ModStateEvent*)::{lambda(std::__ndk1::__fs::filesystem::path)#1}>(std::__ndk1::basic_string_view<char, std::__ndk1::char_traits<char> >, geodeExecFunction7<(anonymous namespace)::ExecFuncUnique7>(geode::ModStateEvent*)::{lambda(std::__ndk1::__fs::filesystem::path&&)#1}, geode::Mod*)::{lambda(std::__ndk1::shared_ptr<geode::SettingV3>)#1}, std::__ndk1::allocator<geode::listenForSettingChangesV3<std::__ndk1::__fs::filesystem::path, geodeExecFunction7<(anonymous namespace)::ExecFuncUnique7>(geode::ModStateEvent*)::{lambda(std::__ndk1::__fs::filesystem::path)#1}>(std::__ndk1::basic_string_view<char, std::__ndk1::char_traits<char> >, geodeExecFunction7<(anonymous namespace)::ExecFuncUnique7>(geode::ModStateEvent*)::{lambda(std::__ndk1::__fs::filesystem::path&&)#1}, geode::Mod*)::{lambda(std::__ndk1::shared_ptr<geode::SettingV3>)#1}>, void (std::__ndk1::shared_ptr<geode::SettingV3>)>::operator()(std::__ndk1::shared_ptr<geode::SettingV3>&&)
PUBLIC 5eab4 0 std::__ndk1::__function::__func<geode::listenForSettingChangesV3<std::__ndk1::__fs::filesystem::path, geodeExecFunction7<(anonymous namespace)::ExecFuncUnique7>(geode::ModStateEvent*)::{lambda(std::__ndk1::__fs::filesystem::path)#1}>(std::__ndk1::basic_string_view<char, std::__ndk1::char_traits<char> >, geodeExecFunction7<(anonymous namespace)::ExecFuncUnique7>(geode::ModStateEvent*)::{lambda(std::__ndk1::__fs::filesystem::path&&)#1}, geode::Mod*)::{lambda(std::__ndk1::shared_ptr<geode::SettingV3>)#1}, std::__ndk1::allocator<geode::listenForSettingChangesV3<std::__ndk1::__fs::filesystem::path, geodeExecFunction7<(anonymous namespace)::ExecFuncUnique7>(geode::ModStateEvent*)::{lambda(std::__ndk1::__fs::filesystem::path)#1}>(std::__ndk1::basic_string_view<char, std::__ndk1::char_traits<char> >, geodeExecFunction7<(anonymous namespace)::ExecFuncUnique7>(geode::ModStateEvent*)::{lambda(std::__ndk1::__fs::filesystem::path&&)#1}, geode::Mod*)::{lambda(std::__ndk1::shared_ptr<geode::SettingV3>)#1}>, void (std::__ndk1::shared_ptr<geode::SettingV3>)>::target(std::type_info const&) const
PUBLIC 5ead0 0 std::__ndk1::__function::__func<geode::listenForSettingChangesV3<std::__ndk1::__fs::filesystem::path, geodeExecFunction7<(anonymous namespace)::ExecFuncUnique7>(geode::ModStateEvent*)::{lambda(std::__ndk1::__fs::filesystem::path)#1}>(std::__ndk1::basic_string_view<char, std::__ndk1::char_traits<char> >, geodeExecFunction7<(anonymous namespace)::ExecFuncUnique7>(geode::ModStateEvent*)::{lambda(std::__ndk1::__fs::filesystem::path&&)#1}, geode::Mod*)::{lambda(std::__ndk1::shared_ptr<geode::SettingV3>)#1}, std::__ndk1::allocator<geode::listenForSettingChangesV3<std::__ndk1::__fs::filesystem::path, geodeExecFunction7<(anonymous namespace)::ExecFuncUnique7>(geode::ModStateEvent*)::{lambda(std::__ndk1::__fs::filesystem::path)#1}>(std::__ndk1::basic_string_view<char, std::__ndk1::char_traits<char> >, geodeExecFunction7<(anonymous namespace)::ExecFuncUnique7>(geode::ModStateEvent*)::{lambda(std::__ndk1::__fs::filesystem::path&&)#1}, geode::Mod*)::{lambda(std::__ndk1::shared_ptr<geode::SettingV3>)#1}>, void (std::__ndk1::shared_ptr<geode::SettingV3>)>::target_type() const
PUBLIC 5eadc 0 std::__ndk1::__function::__base<geode::Result<std::__ndk1::shared_ptr<geode::SettingV3>, std::__ndk1::basic_string<char, std::__ndk1::char_traits<char>, std::__ndk1::allocator<char> > >(std::__ndk1::basic_string<char, std::__ndk1::char_traits<char>, std::__ndk1::allocator<char> > const&, std::__ndk1::basic_string<char, std::__ndk1::char_traits<char>, std::__ndk1::allocator<char> > const&, matjson::Value const&)>::~__base()
PUBLIC 5eae0 0 std::__ndk1::__function::__func<geode::Result<std::__ndk1::shared_ptr<geode::SettingV3>, std::__ndk1::basic_string<char, std::__ndk1::char_traits<char>, std::__ndk1::allocator<char> > > (*)(std::__ndk1::basic_string<char, std::__ndk1::char_traits<char>, std::__ndk1::allocator<char> > const&, std::__ndk1::basic_string<char, std::__ndk1::char_traits<char>, std::__ndk1::allocator<char> > const&, matjson::Value const&), std::__ndk1::allocator<geode::Result<std::__ndk1::shared_ptr<geode::SettingV3>, std::__ndk1::basic_string<char, std::__ndk1::char_traits<char>, std::__ndk1::allocator<char> > > (*)(std::__ndk1::basic_string<char, std::__ndk1::char_traits<char>, std::__ndk1::allocator<char> > const&, std::__ndk1::basic_string<char, std::__ndk1::char_traits<char>, std::__ndk1::allocator<char> > const&, matjson::Value const&)>, geode::Result<std::__ndk1::shared_ptr<geode::SettingV3>, std::__ndk1::basic_string<char, std::__ndk1::char_traits<char>, std::__ndk1::allocator<char> > >(std::__ndk1::basic_string<char, std::__ndk1::char_traits<char>, std::__ndk1::allocator<char> > const&, std::__ndk1::basic_string<char, std::__ndk1::char_traits<char>, std::__ndk1::allocator<char> > const&, matjson::Value const&)>::~__func()
PUBLIC 5eae4 0 std::__ndk1::__function::__func<geode::Result<std::__ndk1::shared_ptr<geode::SettingV3>, std::__ndk1::basic_string<char, std::__ndk1::char_traits<char>, std::__ndk1::allocator<char> > > (*)(std::__ndk1::basic_string<char, std::__ndk1::char_traits<char>, std::__ndk1::allocator<char> > const&, std::__ndk1::basic_string<char, std::__ndk1::char_traits<char>, std::__ndk1::allocator<char> > const&, matjson::Value const&), std::__ndk1::allocator<geode::Result<std::__ndk1::shared_ptr<geode::SettingV3>, std::__ndk1::basic_string<char, std::__ndk1::char_traits<char>, std::__ndk1::allocator<char> > > (*)(std::__ndk1::basic_string<char, std::__ndk1::char_traits<char>, std::__ndk1::allocator<char> > const&, std::__ndk1::basic_string<char, std::__ndk1::char_traits<char>, std::__ndk1::allocator<char> > const&, matjson::Value const&)>, geode::Result<std::__ndk1::shared_ptr<geode::SettingV3>, std::__ndk1::basic_string<char, std::__ndk1::char_traits<char>, std::__ndk1::allocator<char> > >(std::__ndk1::basic_string<char, std::__ndk1::char_traits<char>, std::__ndk1::allocator<char> > const&, std::__ndk1::basic_string<char, std::__ndk1::char_traits<char>, std::__ndk1::allocator<char> > const&, matjson::Value const&)>::__clone() const
PUBLIC 5eb18 0 std::__ndk1::__function::__func<geode::Result<std::__ndk1::shared_ptr<geode::SettingV3>, std::__ndk1::basic_string<char, std::__ndk1::char_traits<char>, std::__ndk1::allocator<char> > > (*)(std::__ndk1::basic_string<char, std::__ndk1::char_traits<char>, std::__ndk1::allocator<char> > const&, std::__ndk1::basic_string<char, std::__ndk1::char_traits<char>, std::__ndk1::allocator<char> > const&, matjson::Value const&), std::__ndk1::allocator<geode::Result<std::__ndk1::shared_ptr<geode::SettingV3>, std::__ndk1::basic_string<char, std::__ndk1::char_traits<char>, std::__ndk1::allocator<char> > > (*)(std::__ndk1::basic_string<char, std::__ndk1::char_traits<char>, std::__ndk1::allocator<char> > const&, std::__ndk1::basic_string<char, std::__ndk1::char_traits<char>, std::__ndk1::allocator<char> > const&, matjson::Value const&)>, geode::Result<std::__ndk1::shared_ptr<geode::SettingV3>, std::__ndk1::basic_string<char, std::__ndk1::char_traits<char>, std::__ndk1::allocator<char> > >(std::__ndk1::basic_string<char, std::__ndk1::char_traits<char>, std::__ndk1::allocator<char> > const&, std::__ndk1::basic_string<char, std::__ndk1::char_traits<char>, std::__ndk1::allocator<char> > const&, matjson::Value const&)>::__clone(std::__ndk1::__function::__base<geode::Result<std::__ndk1::shared_ptr<geode::SettingV3>, std::__ndk1::basic_string<char, std::__ndk1::char_traits<char>, std::__ndk1::allocator<char> > >(std::__ndk1::basic_string<char, std::__ndk1::char_traits<char>, std::__ndk1::allocator<char> > const&, std::__ndk1::basic_string<char, std::__ndk1::char_traits<char>, std::__ndk1::allocator<char> > const&, matjson::Value const&)>*) const
PUBLIC 5eb2c 0 std::__ndk1::__function::__func<geode::Result<std::__ndk1::shared_ptr<geode::SettingV3>, std::__ndk1::basic_string<char, std::__ndk1::char_traits<char>, std::__ndk1::allocator<char> > > (*)(std::__ndk1::basic_string<char, std::__ndk1::char_traits<char>, std::__ndk1::allocator<char> > const&, std::__ndk1::basic_string<char, std::__ndk1::char_traits<char>, std::__ndk1::allocator<char> > const&, matjson::Value const&), std::__ndk1::allocator<geode::Result<std::__ndk1::shared_ptr<geode::SettingV3>, std::__ndk1::basic_string<char, std::__ndk1::char_traits<char>, std::__ndk1::allocator<char> > > (*)(std::__ndk1::basic_string<char, std::__ndk1::char_traits<char>, std::__ndk1::allocator<char> > const&, std::__ndk1::basic_string<char, std::__ndk1::char_traits<char>, std::__ndk1::allocator<char> > const&, matjson::Value const&)>, geode::Result<std::__ndk1::shared_ptr<geode::SettingV3>, std::__ndk1::basic_string<char, std::__ndk1::char_traits<char>, std::__ndk1::allocator<char> > >(std::__ndk1::basic_string<char, std::__ndk1::char_traits<char>, std::__ndk1::allocator<char> > const&, std::__ndk1::basic_string<char, std::__ndk1::char_traits<char>, std::__ndk1::allocator<char> > const&, matjson::Value const&)>::destroy()
PUBLIC 5eb30 0 std::__ndk1::__function::__func<geode::Result<std::__ndk1::shared_ptr<geode::SettingV3>, std::__ndk1::basic_string<char, std::__ndk1::char_traits<char>, std::__ndk1::allocator<char> > > (*)(std::__ndk1::basic_string<char, std::__ndk1::char_traits<char>, std::__ndk1::allocator<char> > const&, std::__ndk1::basic_string<char, std::__ndk1::char_traits<char>, std::__ndk1::allocator<char> > const&, matjson::Value const&), std::__ndk1::allocator<geode::Result<std::__ndk1::shared_ptr<geode::SettingV3>, std::__ndk1::basic_string<char, std::__ndk1::char_traits<char>, std::__ndk1::allocator<char> > > (*)(std::__ndk1::basic_string<char, std::__ndk1::char_traits<char>, std::__ndk1::allocator<char> > const&, std::__ndk1::basic_string<char, std::__ndk1::char_traits<char>, std::__ndk1::allocator<char> > const&, matjson::Value const&)>, geode::Result<std::__ndk1::shared_ptr<geode::SettingV3>, std::__ndk1::basic_string<char, std::__ndk1::char_traits<char>, std::__ndk1::allocator<char> > >(std::__ndk1::basic_string<char, std::__ndk1::char_traits<char>, std::__ndk1::allocator<char> > const&, std::__ndk1::basic_string<char, std::__ndk1::char_traits<char>, std::__ndk1::allocator<char> > const&, matjson::Value const&)>::destroy_deallocate()
PUBLIC 5eb34 0 std::__ndk1::__function::__func<geode::Result<std::__ndk1::shared_ptr<geode::SettingV3>, std::__ndk1::basic_string<char, std::__ndk1::char_traits<char>, std::__ndk1::allocator<char> > > (*)(std::__ndk1::basic_string<char, std::__ndk1::char_traits<char>, std::__ndk1::allocator<char> > const&, std::__ndk1::basic_string<char, std::__ndk1::char_traits<char>, std::__ndk1::allocator<char> > const&, matjson::Value const&), std::__ndk1::allocator<geode::Result<std::__ndk1::shared_ptr<geode::SettingV3>, std::__ndk1::basic_string<char, std::__ndk1::char_traits<char>, std::__ndk1::allocator<char> > > (*)(std::__ndk1::basic_string<char, std::__ndk1::char_traits<char>, std::__ndk1::allocator<char> > const&, std::__ndk1::basic_string<char, std::__ndk1::char_traits<char>, std::__ndk1::allocator<char> > const&, matjson::Value const&)>, geode::Result<std::__ndk1::shared_ptr<geode::SettingV3>, std::__ndk1::basic_string<char, std::__ndk1::char_traits<char>, std::__ndk1::allocator<char> > >(std::__ndk1::basic_string<char, std::__ndk1::char_traits<char>, std::__ndk1::allocator<char> > const&, std::__ndk1::basic_string<char, std::__ndk1::char_traits<char>, std::__ndk1::allocator<char> > const&, matjson::Value const&)>::operator()(std::__ndk1::basic_string<char, std::__ndk1::char_traits<char>, std::__ndk1::allocator<char> > const&, std::__ndk1::basic_string<char, std::__ndk1::char_traits<char>, std::__ndk1::allocator<char> > const&, matjson::Value const&)
PUBLIC 5eb48 0 std::__ndk1::__function::__func<geode::Result<std::__ndk1::shared_ptr<geode::SettingV3>, std::__ndk1::basic_string<char, std::__ndk1::char_traits<char>, std::__ndk1::allocator<char> > > (*)(std::__ndk1::basic_string<char, std::__ndk1::char_traits<char>, std::__ndk1::allocator<char> > const&, std::__ndk1::basic_string<char, std::__ndk1::char_traits<char>, std::__ndk1::allocator<char> > const&, matjson::Value const&), std::__ndk1::allocator<geode::Result<std::__ndk1::shared_ptr<geode::SettingV3>, std::__ndk1::basic_string<char, std::__ndk1::char_traits<char>, std::__ndk1::allocator<char> > > (*)(std::__ndk1::basic_string<char, std::__ndk1::char_traits<char>, std::__ndk1::allocator<char> > const&, std::__ndk1::basic_string<char, std::__ndk1::char_traits<char>, std::__ndk1::allocator<char> > const&, matjson::Value const&)>, geode::Result<std::__ndk1::shared_ptr<geode::SettingV3>, std::__ndk1::basic_string<char, std::__ndk1::char_traits<char>, std::__ndk1::allocator<char> > >(std::__ndk1::basic_string<char, std::__ndk1::char_traits<char>, std::__ndk1::allocator<char> > const&, std::__ndk1::basic_string<char, std::__ndk1::char_traits<char>, std::__ndk1::allocator<char> > const&, matjson::Value const&)>::target(std::type_info const&) const
PUBLIC 5eb64 0 std::__ndk1::__function::__func<geode::Result<std::__ndk1::shared_ptr<geode::SettingV3>, std::__ndk1::basic_string<char, std::__ndk1::char_traits<char>, std::__ndk1::allocator<char> > > (*)(std::__ndk1::basic_string<char, std::__ndk1::char_traits<char>, std::__ndk1::allocator<char> > const&, std::__ndk1::basic_string<char, std::__ndk1::char_traits<char>, std::__ndk1::allocator<char> > const&, matjson::Value const&), std::__ndk1::allocator<geode::Result<std::__ndk1::shared_ptr<geode::SettingV3>, std::__ndk1::basic_string<char, std::__ndk1::char_traits<char>, std::__ndk1::allocator<char> > > (*)(std::__ndk1::basic_string<char, std::__ndk1::char_traits<char>, std::__ndk1::allocator<char> > const&, std::__ndk1::basic_string<char, std::__ndk1::char_traits<char>, std::__ndk1::allocator<char> > const&, matjson::Value const&)>, geode::Result<std::__ndk1::shared_ptr<geode::SettingV3>, std::__ndk1::basic_string<char, std::__ndk1::char_traits<char>, std::__ndk1::allocator<char> > >(std::__ndk1::basic_string<char, std::__ndk1::char_traits<char>, std::__ndk1::allocator<char> > const&, std::__ndk1::basic_string<char, std::__ndk1::char_traits<char>, std::__ndk1::allocator<char> > const&, matjson::Value const&)>::target_type() const
PUBLIC 5eb70 0 _GLOBAL__sub_I_main.cpp
PUBLIC 5ec88 0 ReloadSongNode::create(std::__ndk1::shared_ptr<ReloadSongSetting>, float)
PUBLIC 5edb8 0 ReloadSongNode::init(std::__ndk1::shared_ptr<ReloadSongSetting>, float)
PUBLIC 5ef10 0 std::__ndk1::shared_ptr<ReloadSongSetting>::~shared_ptr[abi:ne190000]()
PUBLIC 5ef60 0 ReloadSongNode::onButton(cocos2d::CCObject*)
PUBLIC 5ef74 0 ReloadSongNode::onCommit()
PUBLIC 5ef78 0 ReloadSongNode::onResetToDefault()
PUBLIC 5ef7c 0 ReloadSongNode::hasUncommittedChanges() const
PUBLIC 5ef84 0 ReloadSongNode::hasNonDefaultValue() const
PUBLIC 5ef8c 0 geode::SettingNodeV3::~SettingNodeV3()
PUBLIC 5effc 0 ReloadSongNode::~ReloadSongNode()
PUBLIC 5f07c 0 ReloadSongSetting::parse(std::__ndk1::basic_string<char, std::__ndk1::char_traits<char>, std::__ndk1::allocator<char> > const&, std::__ndk1::basic_string<char, std::__ndk1::char_traits<char>, std::__ndk1::allocator<char> > const&, matjson::Value const&)
PUBLIC 5f408 0 ReloadSongSetting::load(matjson::Value const&)
PUBLIC 5f410 0 ReloadSongSetting::save(matjson::Value&) const
PUBLIC 5f418 0 ReloadSongSetting::isDefaultValue() const
PUBLIC 5f420 0 ReloadSongSetting::reset()
PUBLIC 5f424 0 ReloadSongSetting::createNode(float)
PUBLIC 5f548 0 ReloadSongSetting::~ReloadSongSetting()
PUBLIC 5f56c 0 std::__ndk1::__shared_ptr_emplace<ReloadSongSetting, std::__ndk1::allocator<ReloadSongSetting> >::~__shared_ptr_emplace()
PUBLIC 5f57c 0 std::__ndk1::__shared_ptr_emplace<ReloadSongSetting, std::__ndk1::allocator<ReloadSongSetting> >::~__shared_ptr_emplace()
PUBLIC 5f5ac 0 std::__ndk1::__shared_ptr_emplace<ReloadSongSetting, std::__ndk1::allocator<ReloadSongSetting> >::__on_zero_shared()
PUBLIC 5f5b8 0 std::__ndk1::__shared_ptr_emplace<ReloadSongSetting, std::__ndk1::allocator<ReloadSongSetting> >::__on_zero_shared_weak()
PUBLIC 5f5bc 0 geode::impl::ResultData<void, std::__ndk1::basic_string<char, std::__ndk1::char_traits<char>, std::__ndk1::allocator<char> > >::~ResultData()
PUBLIC 5f630 0 std::__ndk1::__throw_bad_weak_ptr[abi:ne190000]()
PUBLIC 5f664 0 CurrentSongNode::create()
PUBLIC 5f6ec 0 CurrentSongNode::init()
PUBLIC 5fc80 0 CurrentSongNode::onButton(cocos2d::CCObject*)
PUBLIC 5fd88 0 CurrentSongNode::update(float)
PUBLIC 601b4 0 CurrentSongNode::~CurrentSongNode()
PUBLIC 60220 0 CurrentSongNode::~CurrentSongNode()
PUBLIC 6029c 0 PreloadUI::create()
PUBLIC 6032c 0 PreloadUI::init()
PUBLIC 6078c 0 PreloadUI::addToSceneAndAnimate()
PUBLIC 6080c 0 PreloadUI::increment(std::__ndk1::basic_string<char, std::__ndk1::char_traits<char>, std::__ndk1::allocator<char> >)
PUBLIC 60950 0 PreloadUI::runCompleteAnimationAndRemove()
PUBLIC 60b88 0 PreloadUI::~PreloadUI()
PUBLIC 60bac 0 cocos2d::CCNodeRGBA::setOpacityModifyRGB(bool)
PUBLIC 60bb0 0 cocos2d::CCNodeRGBA::isOpacityModifyRGB()
PUBLIC 60bb8 0 {virtual override thunk({offset(-320)}, cocos2d::CCNodeRGBA::setOpacityModifyRGB(bool))}
PUBLIC 60bbc 0 {virtual override thunk({offset(-320)}, cocos2d::CCNodeRGBA::isOpacityModifyRGB())}
PUBLIC 60bc4 0 ProgressBar::create(float)
PUBLIC 60c64 0 ProgressBar::init(float)
PUBLIC 61048 0 ProgressBar::setValue(float)
PUBLIC 61114 0 ProgressBar::~ProgressBar()
PUBLIC 61138 0 SongInfoPopup::create()
PUBLIC 61258 0 SongInfoPopup::get()
PUBLIC 61324 0 SongInfoPopup::setup()
PUBLIC 62560 0 geode::Popup<>::setTitle(std::__ndk1::basic_string<char, std::__ndk1::char_traits<char>, std::__ndk1::allocator<char> > const&, char const*, float, float)
PUBLIC 626b0 0 SongInfoPopup::onNoSongsRefresh(cocos2d::CCObject*)
PUBLIC 626e8 0 SongInfoPopup::onSettings(cocos2d::CCObject*)
PUBLIC 6272c 0 SongInfoPopup::onPlayPause(cocos2d::CCObject*)
PUBLIC 62740 0 SongInfoPopup::onPrev(cocos2d::CCObject*)
PUBLIC 62754 0 SongInfoPopup::onNext(cocos2d::CCObject*)
PUBLIC 62768 0 SongInfoPopup::onRewind(cocos2d::CCObject*)
PUBLIC 6277c 0 SongInfoPopup::onFastForward(cocos2d::CCObject*)
PUBLIC 62790 0 SongInfoPopup::updateCustomizableUI()
PUBLIC 62a18 0 SongInfoPopup::update(float)
PUBLIC 63344 0 geode::Mod::getSettingValue<std::__ndk1::basic_string<char, std::__ndk1::char_traits<char>, std::__ndk1::allocator<char> > >(std::__ndk1::basic_string_view<char, std::__ndk1::char_traits<char> >) const
PUBLIC 634d4 0 std::__ndk1::array<std::__ndk1::basic_string<char, std::__ndk1::char_traits<char>, std::__ndk1::allocator<char> >, (unsigned long)7>::~array()
PUBLIC 63598 0 SongInfoPopup::close()
PUBLIC 635a8 0 SongInfoPopup::~SongInfoPopup()
PUBLIC 63680 0 SongInfoPopup::~SongInfoPopup()
PUBLIC 63760 0 geode::Popup<>::registerWithTouchDispatcher()
PUBLIC 6378c 0 geode::Popup<>::keyDown(cocos2d::enumKeyCodes)
PUBLIC 637b4 0 cocos2d::CCLayerRGBA::setOpacityModifyRGB(bool)
PUBLIC 637b8 0 cocos2d::CCLayerRGBA::isOpacityModifyRGB()
PUBLIC 637c0 0 geode::Popup<>::onClose(cocos2d::CCObject*)
PUBLIC 638f4 0 {virtual override thunk({offset(-320)}, SongInfoPopup::~SongInfoPopup())}
PUBLIC 639d8 0 {virtual override thunk({offset(-320)}, SongInfoPopup::~SongInfoPopup())}
PUBLIC 63ac4 0 {virtual override thunk({offset(-344)}, geode::Popup<>::keyDown(cocos2d::enumKeyCodes))}
PUBLIC 63af0 0 cocos2d::CCKeyboardDelegate::keyUp(cocos2d::enumKeyCodes)
PUBLIC 63af4 0 cocos2d::CCMouseDelegate::rightKeyDown()
PUBLIC 63af8 0 cocos2d::CCMouseDelegate::rightKeyUp()
PUBLIC 63afc 0 cocos2d::CCMouseDelegate::scrollWheel(float, float)
PUBLIC 63b00 0 {virtual override thunk({offset(-408)}, cocos2d::CCLayerRGBA::setOpacityModifyRGB(bool))}
PUBLIC 63b04 0 {virtual override thunk({offset(-408)}, cocos2d::CCLayerRGBA::isOpacityModifyRGB())}
PUBLIC 63b0c 0 geode::Popup<>::~Popup()
PUBLIC 63b78 0 geode::Popup<>::~Popup()
PUBLIC 63b7c 0 {virtual override thunk({offset(-320)}, geode::Popup<>::~Popup())}
PUBLIC 63be8 0 {virtual override thunk({offset(-320)}, geode::Popup<>::~Popup())}
PUBLIC 63bec 0 geode::Popup<>::initBase(float, float, char const*, cocos2d::CCRect, bool)
PUBLIC 63ef0 0 geode::Popup<>::CloseEvent::~CloseEvent()
PUBLIC 63f50 0 geode::Popup<>::CloseEvent::~CloseEvent()
PUBLIC 63fc0 0 std::__ndk1::__shared_ptr_emplace<geode::Popup<>::CloseEvent::Impl, std::__ndk1::allocator<geode::Popup<>::CloseEvent::Impl> >::~__shared_ptr_emplace()
PUBLIC 63fd0 0 std::__ndk1::__shared_ptr_emplace<geode::Popup<>::CloseEvent::Impl, std::__ndk1::allocator<geode::Popup<>::CloseEvent::Impl> >::~__shared_ptr_emplace()
PUBLIC 64000 0 std::__ndk1::__shared_ptr_emplace<geode::Popup<>::CloseEvent::Impl, std::__ndk1::allocator<geode::Popup<>::CloseEvent::Impl> >::__on_zero_shared()
PUBLIC 64004 0 std::__ndk1::__shared_ptr_emplace<geode::Popup<>::CloseEvent::Impl, std::__ndk1::allocator<geode::Popup<>::CloseEvent::Impl> >::__on_zero_shared_weak()
PUBLIC 64008 0 em::utils::formatTime(unsigned int)
PUBLIC 640dc 0 em::utils::mimeTypeToFormat(std::__ndk1::basic_string<char, std::__ndk1::char_traits<char>, std::__ndk1::allocator<char> >)
PUBLIC 6449c 0 em::utils::isMusicPlayerCentered()
PUBLIC 645f4 0 em::utils::showMusicPlayerAlbumCover()
PUBLIC 64734 0 std::__ndk1::__hash_table<std::__ndk1::__hash_value_type<std::__ndk1::basic_string<char, std::__ndk1::char_traits<char>, std::__ndk1::allocator<char> >, cocos2d::CCImage::EImageFormat>, std::__ndk1::__unordered_map_hasher<std::__ndk1::basic_string<char, std::__ndk1::char_traits<char>, std::__ndk1::allocator<char> >, std::__ndk1::__hash_value_type<std::__ndk1::basic_string<char, std::__ndk1::char_traits<char>, std::__ndk1::allocator<char> >, cocos2d::CCImage::EImageFormat>, std::__ndk1::hash<std::__ndk1::basic_string<char, std::__ndk1::char_traits<char>, std::__ndk1::allocator<char> > >, std::__ndk1::equal_to<std::__ndk1::basic_string<char, std::__ndk1::char_traits<char>, std::__ndk1::allocator<char> > >, true>, std::__ndk1::__unordered_map_equal<std::__ndk1::basic_string<char, std::__ndk1::char_traits<char>, std::__ndk1::allocator<char> >, std::__ndk1::__hash_value_type<std::__ndk1::basic_string<char, std::__ndk1::char_traits<char>, std::__ndk1::allocator<char> >, cocos2d::CCImage::EImageFormat>, std::__ndk1::equal_to<std::__ndk1::basic_string<char, std::__ndk1::char_traits<char>, std::__ndk1::allocator<char> > >, std::__ndk1::hash<std::__ndk1::basic_string<char, std::__ndk1::char_traits<char>, std::__ndk1::allocator<char> > >, true>, std::__ndk1::allocator<std::__ndk1::__hash_value_type<std::__ndk1::basic_string<char, std::__ndk1::char_traits<char>, std::__ndk1::allocator<char> >, cocos2d::CCImage::EImageFormat> > >::~__hash_table()
PUBLIC 647a4 0 std::__ndk1::__hash_table<std::__ndk1::__hash_value_type<std::__ndk1::basic_string<char, std::__ndk1::char_traits<char>, std::__ndk1::allocator<char> >, cocos2d::CCImage::EImageFormat>, std::__ndk1::__unordered_map_hasher<std::__ndk1::basic_string<char, std::__ndk1::char_traits<char>, std::__ndk1::allocator<char> >, std::__ndk1::__hash_value_type<std::__ndk1::basic_string<char, std::__ndk1::char_traits<char>, std::__ndk1::allocator<char> >, cocos2d::CCImage::EImageFormat>, std::__ndk1::hash<std::__ndk1::basic_string<char, std::__ndk1::char_traits<char>, std::__ndk1::allocator<char> > >, std::__ndk1::equal_to<std::__ndk1::basic_string<char, std::__ndk1::char_traits<char>, std::__ndk1::allocator<char> > >, true>, std::__ndk1::__unordered_map_equal<std::__ndk1::basic_string<char, std::__ndk1::char_traits<char>, std::__ndk1::allocator<char> >, std::__ndk1::__hash_value_type<std::__ndk1::basic_string<char, std::__ndk1::char_traits<char>, std::__ndk1::allocator<char> >, cocos2d::CCImage::EImageFormat>, std::__ndk1::equal_to<std::__ndk1::basic_string<char, std::__ndk1::char_traits<char>, std::__ndk1::allocator<char> > >, std::__ndk1::hash<std::__ndk1::basic_string<char, std::__ndk1::char_traits<char>, std::__ndk1::allocator<char> > >, true>, std::__ndk1::allocator<std::__ndk1::__hash_value_type<std::__ndk1::basic_string<char, std::__ndk1::char_traits<char>, std::__ndk1::allocator<char> >, cocos2d::CCImage::EImageFormat> > >::__emplace_unique_key_args<std::__ndk1::basic_string<char, std::__ndk1::char_traits<char>, std::__ndk1::allocator<char> >, std::__ndk1::pair<std::__ndk1::basic_string<char, std::__ndk1::char_traits<char>, std::__ndk1::allocator<char> > const, cocos2d::CCImage::EImageFormat> const&>(std::__ndk1::basic_string<char, std::__ndk1::char_traits<char>, std::__ndk1::allocator<char> > const&, std::__ndk1::pair<std::__ndk1::basic_string<char, std::__ndk1::char_traits<char>, std::__ndk1::allocator<char> > const, cocos2d::CCImage::EImageFormat> const&)
PUBLIC 64dbc 0 std::__ndk1::unique_ptr<std::__ndk1::__hash_node<std::__ndk1::__hash_value_type<std::__ndk1::basic_string<char, std::__ndk1::char_traits<char>, std::__ndk1::allocator<char> >, cocos2d::CCImage::EImageFormat>, void*>, std::__ndk1::__hash_node_destructor<std::__ndk1::allocator<std::__ndk1::__hash_node<std::__ndk1::__hash_value_type<std::__ndk1::basic_string<char, std::__ndk1::char_traits<char>, std::__ndk1::allocator<char> >, cocos2d::CCImage::EImageFormat>, void*> > > >::~unique_ptr[abi:ne190000]()
PUBLIC 64e0c 0 std::__ndk1::__murmur2_or_cityhash<unsigned long, (unsigned long)64>::operator()[abi:ne190000](void const*, unsigned long) const
PUBLIC 65264 0 geode::getMod()
PUBLIC m 652a0 0 geodeImplicitEntry
PUBLIC 652dc 0 simdutf::implementation::autodetect_encoding(char const*, unsigned long) const
PUBLIC 6546c 0 simdutf::convert_utf16le_to_utf8_with_errors(char16_t const*, unsigned long, char*)
PUBLIC 65534 0 simdutf::convert_utf16be_to_utf8_with_errors(char16_t const*, unsigned long, char*)
PUBLIC 655fc 0 simdutf::arm64::implementation::detect_encodings(char const*, unsigned long) const
PUBLIC 65970 0 simdutf::arm64::implementation::validate_utf8(char const*, unsigned long) const
PUBLIC 65d58 0 simdutf::arm64::implementation::validate_utf16le(char16_t const*, unsigned long) const
PUBLIC 65e94 0 simdutf::arm64::implementation::validate_utf32(char32_t const*, unsigned long) const
PUBLIC 65f98 0 simdutf::arm64::implementation::validate_utf8_with_errors(char const*, unsigned long) const
PUBLIC 66408 0 simdutf::arm64::implementation::validate_ascii(char const*, unsigned long) const
PUBLIC 66510 0 simdutf::arm64::implementation::validate_ascii_with_errors(char const*, unsigned long) const
PUBLIC 6678c 0 simdutf::arm64::implementation::validate_utf16be(char16_t const*, unsigned long) const
PUBLIC 668d8 0 simdutf::arm64::implementation::validate_utf16le_with_errors(char16_t const*, unsigned long) const
PUBLIC 66a44 0 simdutf::arm64::implementation::validate_utf16be_with_errors(char16_t const*, unsigned long) const
PUBLIC 66bc0 0 simdutf::arm64::implementation::validate_utf32_with_errors(char32_t const*, unsigned long) const
PUBLIC 66d24 0 simdutf::arm64::implementation::convert_latin1_to_utf8(char const*, unsigned long, char*) const
PUBLIC 66fec 0 simdutf::arm64::implementation::convert_latin1_to_utf16le(char const*, unsigned long, char16_t*) const
PUBLIC 670f0 0 simdutf::arm64::implementation::convert_latin1_to_utf16be(char const*, unsigned long, char16_t*) const
PUBLIC 67200 0 simdutf::arm64::implementation::convert_latin1_to_utf32(char const*, unsigned long, char32_t*) const
PUBLIC 67354 0 simdutf::arm64::implementation::convert_utf8_to_latin1(char const*, unsigned long, char*) const
PUBLIC 67798 0 simdutf::arm64::implementation::convert_utf8_to_latin1_with_errors(char const*, unsigned long, char*) const
PUBLIC 67ad8 0 simdutf::arm64::implementation::convert_valid_utf8_to_latin1(char const*, unsigned long, char*) const
PUBLIC 67de8 0 simdutf::arm64::implementation::convert_utf8_to_utf16le(char const*, unsigned long, char16_t*) const
PUBLIC 68648 0 simdutf::arm64::implementation::convert_utf8_to_utf16be(char const*, unsigned long, char16_t*) const
PUBLIC 68f10 0 simdutf::arm64::implementation::convert_utf8_to_utf16le_with_errors(char const*, unsigned long, char16_t*) const
PUBLIC 69554 0 simdutf::arm64::implementation::convert_utf8_to_utf16be_with_errors(char const*, unsigned long, char16_t*) const
PUBLIC 69bb0 0 simdutf::arm64::implementation::convert_valid_utf8_to_utf16le(char const*, unsigned long, char16_t*) const
PUBLIC 6a154 0 simdutf::arm64::implementation::convert_valid_utf8_to_utf16be(char const*, unsigned long, char16_t*) const
PUBLIC 6a744 0 simdutf::arm64::implementation::convert_utf8_to_utf32(char const*, unsigned long, char32_t*) const
PUBLIC 6aed4 0 simdutf::arm64::implementation::convert_utf8_to_utf32_with_errors(char const*, unsigned long, char32_t*) const
PUBLIC 6b478 0 simdutf::arm64::implementation::convert_valid_utf8_to_utf32(char const*, unsigned long, char32_t*) const
PUBLIC 6b938 0 simdutf::arm64::implementation::convert_utf16le_to_latin1(char16_t const*, unsigned long, char*) const
PUBLIC 6ba9c 0 simdutf::arm64::implementation::convert_utf16be_to_latin1(char16_t const*, unsigned long, char*) const
PUBLIC 6bc1c 0 simdutf::arm64::implementation::convert_utf16le_to_latin1_with_errors(char16_t const*, unsigned long, char*) const
PUBLIC 6bee0 0 simdutf::arm64::implementation::convert_utf16be_to_latin1_with_errors(char16_t const*, unsigned long, char*) const
PUBLIC 6c234 0 simdutf::arm64::implementation::convert_valid_utf16be_to_latin1(char16_t const*, unsigned long, char*) const
PUBLIC 6c3b4 0 simdutf::arm64::implementation::convert_valid_utf16le_to_latin1(char16_t const*, unsigned long, char*) const
PUBLIC 6c518 0 simdutf::arm64::implementation::convert_utf16le_to_utf8(char16_t const*, unsigned long, char*) const
PUBLIC 6c9c8 0 simdutf::arm64::implementation::convert_utf16be_to_utf8(char16_t const*, unsigned long, char*) const
PUBLIC 6ceb4 0 simdutf::arm64::implementation::convert_utf16le_to_utf8_with_errors(char16_t const*, unsigned long, char*) const
PUBLIC 6d38c 0 simdutf::arm64::implementation::convert_utf16be_to_utf8_with_errors(char16_t const*, unsigned long, char*) const
PUBLIC 6d8a0 0 simdutf::arm64::implementation::convert_valid_utf16le_to_utf8(char16_t const*, unsigned long, char*) const
PUBLIC 6d8a4 0 simdutf::arm64::implementation::convert_valid_utf16be_to_utf8(char16_t const*, unsigned long, char*) const
PUBLIC 6d8a8 0 simdutf::arm64::implementation::convert_utf32_to_utf8(char32_t const*, unsigned long, char*) const
PUBLIC 6dd30 0 simdutf::arm64::implementation::convert_utf32_to_utf8_with_errors(char32_t const*, unsigned long, char*) const
PUBLIC 6e1f0 0 simdutf::arm64::implementation::convert_utf16le_to_utf32(char16_t const*, unsigned long, char32_t*) const
PUBLIC 6e3a4 0 simdutf::arm64::implementation::convert_utf16be_to_utf32(char16_t const*, unsigned long, char32_t*) const
PUBLIC 6e574 0 simdutf::arm64::implementation::convert_utf16le_to_utf32_with_errors(char16_t const*, unsigned long, char32_t*) const
PUBLIC 6e73c 0 simdutf::arm64::implementation::convert_utf16be_to_utf32_with_errors(char16_t const*, unsigned long, char32_t*) const
PUBLIC 6e91c 0 simdutf::arm64::implementation::convert_utf32_to_latin1(char32_t const*, unsigned long, char*) const
PUBLIC 6eac8 0 simdutf::arm64::implementation::convert_utf32_to_latin1_with_errors(char32_t const*, unsigned long, char*) const
PUBLIC 6eccc 0 simdutf::arm64::implementation::convert_valid_utf32_to_latin1(char32_t const*, unsigned long, char*) const
PUBLIC 6edc8 0 simdutf::arm64::implementation::convert_valid_utf32_to_utf8(char32_t const*, unsigned long, char*) const
PUBLIC 6edcc 0 simdutf::arm64::implementation::convert_utf32_to_utf16le(char32_t const*, unsigned long, char16_t*) const
PUBLIC 6ef84 0 simdutf::arm64::implementation::convert_utf32_to_utf16be(char32_t const*, unsigned long, char16_t*) const
PUBLIC 6f168 0 simdutf::arm64::implementation::convert_utf32_to_utf16le_with_errors(char32_t const*, unsigned long, char16_t*) const
PUBLIC 6f3cc 0 simdutf::arm64::implementation::convert_utf32_to_utf16be_with_errors(char32_t const*, unsigned long, char16_t*) const
PUBLIC 6f684 0 simdutf::arm64::implementation::convert_valid_utf32_to_utf16le(char32_t const*, unsigned long, char16_t*) const
PUBLIC 6f688 0 simdutf::arm64::implementation::convert_valid_utf32_to_utf16be(char32_t const*, unsigned long, char16_t*) const
PUBLIC 6f68c 0 simdutf::arm64::implementation::convert_valid_utf16le_to_utf32(char16_t const*, unsigned long, char32_t*) const
PUBLIC 6f690 0 simdutf::arm64::implementation::convert_valid_utf16be_to_utf32(char16_t const*, unsigned long, char32_t*) const
PUBLIC 6f694 0 simdutf::arm64::implementation::change_endianness_utf16(char16_t const*, unsigned long, char16_t*) const
PUBLIC 6f774 0 simdutf::arm64::implementation::count_utf16le(char16_t const*, unsigned long) const
PUBLIC 6f974 0 simdutf::arm64::implementation::count_utf16be(char16_t const*, unsigned long) const
PUBLIC 6fb80 0 simdutf::arm64::implementation::count_utf8(char const*, unsigned long) const
PUBLIC 6fedc 0 simdutf::arm64::implementation::latin1_length_from_utf8(char const*, unsigned long) const
PUBLIC 70244 0 simdutf::arm64::implementation::latin1_length_from_utf16(unsigned long) const
PUBLIC 7024c 0 simdutf::arm64::implementation::latin1_length_from_utf32(unsigned long) const
PUBLIC 70254 0 simdutf::arm64::implementation::utf8_length_from_latin1(char const*, unsigned long) const
PUBLIC 702ac 0 simdutf::arm64::implementation::utf8_length_from_utf16le(char16_t const*, unsigned long) const
PUBLIC 706b4 0 simdutf::arm64::implementation::utf8_length_from_utf16be(char16_t const*, unsigned long) const
PUBLIC 70ae0 0 simdutf::arm64::implementation::utf16_length_from_latin1(unsigned long) const
PUBLIC 70ae8 0 simdutf::arm64::implementation::utf32_length_from_latin1(unsigned long) const
PUBLIC 70af0 0 simdutf::arm64::implementation::utf32_length_from_utf16le(char16_t const*, unsigned long) const
PUBLIC 70cf0 0 simdutf::arm64::implementation::utf32_length_from_utf16be(char16_t const*, unsigned long) const
PUBLIC 70efc 0 simdutf::arm64::implementation::utf16_length_from_utf8(char const*, unsigned long) const
PUBLIC 71298 0 simdutf::arm64::implementation::utf8_length_from_utf32(char32_t const*, unsigned long) const
PUBLIC 714c4 0 simdutf::arm64::implementation::utf16_length_from_utf32(char32_t const*, unsigned long) const
PUBLIC 71614 0 simdutf::arm64::implementation::utf32_length_from_utf8(char const*, unsigned long) const
PUBLIC 71970 0 simdutf::arm64::implementation::maximal_binary_length_from_base64(char const*, unsigned long) const
PUBLIC 719d0 0 simdutf::arm64::implementation::base64_to_binary(char const*, unsigned long, char*, simdutf::base64_options, simdutf::last_chunk_handling_options) const
PUBLIC 71a88 0 simdutf::arm64::(anonymous namespace)::compress_decode_base64<true, true, char>(char*, char const*, unsigned long, simdutf::base64_options, simdutf::last_chunk_handling_options)
PUBLIC 72278 0 simdutf::arm64::(anonymous namespace)::compress_decode_base64<true, false, char>(char*, char const*, unsigned long, simdutf::base64_options, simdutf::last_chunk_handling_options)
PUBLIC 72bd0 0 simdutf::arm64::(anonymous namespace)::compress_decode_base64<false, true, char>(char*, char const*, unsigned long, simdutf::base64_options, simdutf::last_chunk_handling_options)
PUBLIC 73384 0 simdutf::arm64::(anonymous namespace)::compress_decode_base64<false, false, char>(char*, char const*, unsigned long, simdutf::base64_options, simdutf::last_chunk_handling_options)
PUBLIC 73ca0 0 simdutf::arm64::implementation::base64_to_binary_details(char const*, unsigned long, char*, simdutf::base64_options, simdutf::last_chunk_handling_options) const
PUBLIC 73ce0 0 simdutf::arm64::implementation::maximal_binary_length_from_base64(char16_t const*, unsigned long) const
PUBLIC 73d40 0 simdutf::arm64::implementation::base64_to_binary(char16_t const*, unsigned long, char*, simdutf::base64_options, simdutf::last_chunk_handling_options) const
PUBLIC 73df8 0 simdutf::arm64::(anonymous namespace)::compress_decode_base64<true, true, char16_t>(char*, char16_t const*, unsigned long, simdutf::base64_options, simdutf::last_chunk_handling_options)
PUBLIC 74620 0 simdutf::arm64::(anonymous namespace)::compress_decode_base64<true, false, char16_t>(char*, char16_t const*, unsigned long, simdutf::base64_options, simdutf::last_chunk_handling_options)
PUBLIC 7501c 0 simdutf::arm64::(anonymous namespace)::compress_decode_base64<false, true, char16_t>(char*, char16_t const*, unsigned long, simdutf::base64_options, simdutf::last_chunk_handling_options)
PUBLIC 75808 0 simdutf::arm64::(anonymous namespace)::compress_decode_base64<false, false, char16_t>(char*, char16_t const*, unsigned long, simdutf::base64_options, simdutf::last_chunk_handling_options)
PUBLIC 761c0 0 simdutf::arm64::implementation::base64_to_binary_details(char16_t const*, unsigned long, char*, simdutf::base64_options, simdutf::last_chunk_handling_options) const
PUBLIC 76200 0 simdutf::arm64::implementation::base64_length_from_binary(unsigned long, simdutf::base64_options) const
PUBLIC 76240 0 simdutf::arm64::implementation::binary_to_base64(char const*, unsigned long, char*, simdutf::base64_options) const
PUBLIC 76438 0 simdutf::implementation::name() const
PUBLIC 764e8 0 simdutf::implementation::description() const
PUBLIC 76598 0 simdutf::implementation::required_instruction_sets() const
PUBLIC 765a0 0 simdutf::scalar::(anonymous namespace)::utf8::rewind_and_validate_with_errors(char const*, char const*, unsigned long)
PUBLIC 76818 0 simdutf::scalar::(anonymous namespace)::utf8_to_latin1::rewind_and_convert_with_errors(unsigned long, char const*, unsigned long, char*)
PUBLIC 76a14 0 simdutf::scalar::(anonymous namespace)::utf8_to_utf32::rewind_and_convert_with_errors(unsigned long, char const*, unsigned long, char32_t*)
PUBLIC 76da0 0 simdutf::scalar::(anonymous namespace)::utf8_to_utf16::rewind_and_convert_with_errors<(simdutf::endianness)0>(unsigned long, char const*, unsigned long, char16_t*)
PUBLIC 770ac 0 simdutf::scalar::(anonymous namespace)::utf8_to_utf16::rewind_and_convert_with_errors<(simdutf::endianness)1>(unsigned long, char const*, unsigned long, char16_t*)
PUBLIC 77404 0 simdutf::scalar::(anonymous namespace)::base64::base64_tail_decode<char>(char*, char const*, unsigned long, unsigned long, simdutf::base64_options, simdutf::last_chunk_handling_options)
PUBLIC 777a8 0 simdutf::scalar::(anonymous namespace)::base64::base64_tail_decode<char16_t>(char*, char16_t const*, unsigned long, unsigned long, simdutf::base64_options, simdutf::last_chunk_handling_options)
PUBLIC 77bb0 0 std::__ndk1::unordered_map<void*, bool, std::__ndk1::hash<void*>, std::__ndk1::equal_to<void*>, std::__ndk1::allocator<std::__ndk1::pair<void* const, bool> > >::~unordered_map[abi:ne190000]()
PUBLIC 77bfc 0 wrapFunction(unsigned long, tulip::hook::WrapperMetadata const&)
PUBLIC 77d30 0 geode::impl::ResultData<void*, std::__ndk1::basic_string<char, std::__ndk1::char_traits<char>, std::__ndk1::allocator<char> > >::unwrapErr() &
PUBLIC 77da8 0 geode::impl::ResultData<void*, std::__ndk1::basic_string<char, std::__ndk1::char_traits<char>, std::__ndk1::allocator<char> > >::~ResultData()
PUBLIC 77e1c 0 tulip::hook::WrapperMetadata::~WrapperMetadata()
PUBLIC 77e80 0 cocos2d::CCObject::~CCObject()
PUBLIC 77ea4 0 cocos2d::CCNode::CCNode()
PUBLIC 78100 0 cocos2d::CCNode::~CCNode()
PUBLIC 78124 0 cocos2d::CCNodeRGBA::CCNodeRGBA()
PUBLIC 78390 0 cocos2d::CCNodeRGBA::~CCNodeRGBA()
PUBLIC 783b4 0 {virtual override thunk({offset(-320)}, cocos2d::CCLayer::~CCLayer())}
PUBLIC 783bc 0 cocos2d::CCLayer::~CCLayer()
PUBLIC 783e0 0 {virtual override thunk({offset(-320)}, cocos2d::CCLayer::~CCLayer())}
PUBLIC 78408 0 cocos2d::CCLayerRGBA::~CCLayerRGBA()
PUBLIC 78708 0 {virtual override thunk({offset(-320)}, cocos2d::CCLayerRGBA::~CCLayerRGBA())}
PUBLIC 78710 0 cocos2d::CCLayerRGBA::~CCLayerRGBA()
PUBLIC 78734 0 {virtual override thunk({offset(-320)}, cocos2d::CCLayerRGBA::~CCLayerRGBA())}
PUBLIC 7875c 0 cocos2d::CCLayerColor::CCLayerColor()
PUBLIC 789c0 0 {virtual override thunk({offset(-320)}, cocos2d::CCLayerColor::~CCLayerColor())}
PUBLIC 789c8 0 cocos2d::CCLayerColor::~CCLayerColor()
PUBLIC 789ec 0 {virtual override thunk({offset(-320)}, cocos2d::CCLayerColor::~CCLayerColor())}
PUBLIC 78a14 0 cocos2d::CCTexture2D::~CCTexture2D()
PUBLIC 78c84 0 cocos2d::CCTexture2D::~CCTexture2D()
PUBLIC 78ca8 0 cocos2d::CCTexture2D::CCTexture2D()
PUBLIC 78ed4 0 cocos2d::CCImage::CCImage()
PUBLIC 790f8 0 cocos2d::CCImage::~CCImage()
PUBLIC 79360 0 cocos2d::CCImage::~CCImage()
PUBLIC 79384 0 FLAlertLayer::FLAlertLayer()
PUBLIC 79420 0 {virtual override thunk({offset(-320)}, FLAlertLayer::~FLAlertLayer())}
PUBLIC 79428 0 FLAlertLayer::~FLAlertLayer()
PUBLIC 7944c 0 {virtual override thunk({offset(-320)}, FLAlertLayer::~FLAlertLayer())}
PUBLIC 79474 0 cocos2d::CCNodeRGBA::~CCNodeRGBA()
PUBLIC 7972c 0 ButtonSprite::create(char const*)
PUBLIC 79754 0 CCMenuItemSpriteExtra::create(cocos2d::CCNode*, cocos2d::CCObject*, void (cocos2d::CCObject::*)(cocos2d::CCObject*))
PUBLIC 79768 0 LevelEditorLayer::get()
PUBLIC 79780 0 cocos2d::CCObject::update(float)
PUBLIC 79784 0 cocos2d::CCLayerColor::~CCLayerColor()
PUBLIC 79a68 0 FLAlertLayer::~FLAlertLayer()
PUBLIC 79d4c 0 cocos2d::CCNode::~CCNode()
PUBLIC 79fec 0 cocos2d::CCLayer::~CCLayer()
PUBLIC 7a2dc 0 cocos2d::CCObject::~CCObject()
PUBLIC 7a7d0 0 _ZN5geode15UnwrapExceptionC2IRPvQsr4implE18IsStringStreamableIT_EEENS_4impl5OkTagEOS4_
PUBLIC 7a924 0 std::__ndk1::__variant_detail::__visitation::__base::__dispatcher<(unsigned long)0>::__dispatch[abi:ne190000]<std::__ndk1::__variant_detail::__dtor<std::__ndk1::__variant_detail::__traits<void*, std::__ndk1::basic_string<char, std::__ndk1::char_traits<char>, std::__ndk1::allocator<char> > >, (std::__ndk1::__variant_detail::_Trait)1>::__destroy[abi:ne190000]()::{lambda(auto:1&)#1}, std::__ndk1::__variant_detail::__base<(std::__ndk1::__variant_detail::__traits<void*, std::__ndk1::basic_string<char, std::__ndk1::char_traits<char>, std::__ndk1::allocator<char> > >)1, std::__ndk1::__variant_detail::__traits, std::__ndk1::allocator<char> >&>(std::__ndk1::__variant_detail::__dtor<std::__ndk1::__variant_detail::__traits<void*, std::__ndk1::basic_string<char, std::__ndk1::char_traits<char>, std::__ndk1::allocator<char> > >, (std::__ndk1::__variant_detail::_Trait)1>, std::__ndk1::__variant_detail::__base<(std::__ndk1::__variant_detail::__traits<void*, std::__ndk1::basic_string<char, std::__ndk1::char_traits<char>, std::__ndk1::allocator<char> > >)1, std::__ndk1::__variant_detail::__traits, std::__ndk1::allocator<char> >&)
PUBLIC 7a928 0 std::__ndk1::__variant_detail::__visitation::__base::__dispatcher<(unsigned long)1>::__dispatch[abi:ne190000]<std::__ndk1::__variant_detail::__dtor<std::__ndk1::__variant_detail::__traits<void*, std::__ndk1::basic_string<char, std::__ndk1::char_traits<char>, std::__ndk1::allocator<char> > >, (std::__ndk1::__variant_detail::_Trait)1>::__destroy[abi:ne190000]()::{lambda(auto:1&)#1}, std::__ndk1::__variant_detail::__base<(std::__ndk1::__variant_detail::__traits<void*, std::__ndk1::basic_string<char, std::__ndk1::char_traits<char>, std::__ndk1::allocator<char> > >)1, std::__ndk1::__variant_detail::__traits, std::__ndk1::allocator<char> >&>(std::__ndk1::__variant_detail::__dtor<std::__ndk1::__variant_detail::__traits<void*, std::__ndk1::basic_string<char, std::__ndk1::char_traits<char>, std::__ndk1::allocator<char> > >, (std::__ndk1::__variant_detail::_Trait)1>, std::__ndk1::__variant_detail::__base<(std::__ndk1::__variant_detail::__traits<void*, std::__ndk1::basic_string<char, std::__ndk1::char_traits<char>, std::__ndk1::allocator<char> > >)1, std::__ndk1::__variant_detail::__traits, std::__ndk1::allocator<char> >&)
PUBLIC 7a93c 0 std::__ndk1::__hash_table<std::__ndk1::__hash_value_type<void*, bool>, std::__ndk1::__unordered_map_hasher<void*, std::__ndk1::__hash_value_type<void*, bool>, std::__ndk1::hash<void*>, std::__ndk1::equal_to<void*>, true>, std::__ndk1::__unordered_map_equal<void*, std::__ndk1::__hash_value_type<void*, bool>, std::__ndk1::equal_to<void*>, std::__ndk1::hash<void*>, true>, std::__ndk1::allocator<std::__ndk1::__hash_value_type<void*, bool> > >::__emplace_unique_key_args<void*, std::__ndk1::piecewise_construct_t const&, std::__ndk1::tuple<void* const&>, std::__ndk1::tuple<> >(void* const&, std::__ndk1::piecewise_construct_t const&, std::__ndk1::tuple<void* const&>, std::__ndk1::tuple<>)
PUBLIC 7ae48 0 __udivti3
PUBLIC 7ae54 0 __udivmodti4
PUBLIC m 7b0a0 0 __eqtf2
PUBLIC 7b140 0 __unordtf2
PUBLIC 7b178 0 fmt::v11::detail::write_loc(fmt::v11::basic_appender<char>, fmt::v11::loc_value, fmt::v11::format_specs const&, fmt::v11::detail::locale_ref)
PUBLIC 7b40c 0 fmt::v11::format_facet<std::__ndk1::locale>::~format_facet()
PUBLIC 7b488 0 fmt::v11::report_error(char const*)
PUBLIC 7b4d8 0 fmt::v11::format_error::runtime_error(char const*)
PUBLIC 7b504 0 fmt::v11::format_facet<std::__ndk1::locale>::do_put(fmt::v11::basic_appender<char>, fmt::v11::loc_value, fmt::v11::format_specs const&) const
PUBLIC 7bcc4 0 fmt::v11::detail::loc_writer<char>::~loc_writer()
PUBLIC 7bd28 0 fmt::v11::vformat(fmt::v11::basic_string_view<char>, fmt::v11::basic_format_args<fmt::v11::context>)
PUBLIC 7be74 0 fmt::v11::detail::vformat_to<char>(fmt::v11::detail::buffer<char>&, fmt::v11::basic_string_view<char>, fmt::v11::detail::vformat_args<char>::type, fmt::v11::detail::locale_ref)
PUBLIC 7c3e4 0 fmt::v11::detail::is_printable(unsigned int)
PUBLIC 7c60c 0 fmt::v11::detail::dragonbox::to_decimal<float>(float)
PUBLIC 7c8e8 0 fmt::v11::detail::dragonbox::to_decimal<double>(double)
PUBLIC 7ce24 0 fmt::v11::basic_memory_buffer<char, (unsigned long)500, std::__ndk1::allocator<char> >::grow(fmt::v11::detail::buffer<char>&, unsigned long)
PUBLIC 7ce9c 0 fmt::v11::format_facet<std::__ndk1::locale>::~format_facet()
PUBLIC 7cf28 0 fmt::v11::format_error::~format_error()
PUBLIC 7cf4c 0 fmt::v11::detail::copy_noinline<char, char const*, fmt::v11::basic_appender<char> >(char const*, char const*, fmt::v11::basic_appender<char>)
PUBLIC 7d09c 0 fmt::v11::detail::default_arg_formatter<char>::operator()<bool>(bool)
PUBLIC 7d104 0 fmt::v11::detail::default_arg_formatter<char>::operator()<char>(char)
PUBLIC 7d194 0 fmt::v11::detail::default_arg_formatter<char>::operator()<float>(float)
PUBLIC 7d280 0 fmt::v11::detail::default_arg_formatter<char>::operator()<double>(double)
PUBLIC 7d36c 0 fmt::v11::detail::default_arg_formatter<char>::operator()<char const*>(char const*)
PUBLIC 7d3b4 0 fmt::v11::detail::default_arg_formatter<char>::operator()<void const*>(void const*)
PUBLIC 7d44c 0 _ZN3fmt3v116detail5writeIcNS0_14basic_appenderIcEEiTnNSt6__ndk19enable_ifIXaaaasr11is_integralIT1_EE5valuentsr3std7is_sameIS7_bEE5valuentsr3std7is_sameIS7_T_EE5valueEiE4typeELi0EEET0_SB_S7_
PUBLIC 7d6ac 0 fmt::v11::detail::copy_noinline<char, char*, fmt::v11::basic_appender<char> >(char*, char*, fmt::v11::basic_appender<char>)
PUBLIC 7d7fc 0 _ZN3fmt3v116detail5writeIcNS0_14basic_appenderIcEEjTnNSt6__ndk19enable_ifIXaaaasr11is_integralIT1_EE5valuentsr3std7is_sameIS7_bEE5valuentsr3std7is_sameIS7_T_EE5valueEiE4typeELi0EEET0_SB_S7_
PUBLIC 7d9dc 0 _ZN3fmt3v116detail5writeIcNS0_14basic_appenderIcEExTnNSt6__ndk19enable_ifIXaaaasr11is_integralIT1_EE5valuentsr3std7is_sameIS7_bEE5valuentsr3std7is_sameIS7_T_EE5valueEiE4typeELi0EEET0_SB_S7_
PUBLIC 7dc60 0 _ZN3fmt3v116detail5writeIcNS0_14basic_appenderIcEEyTnNSt6__ndk19enable_ifIXaaaasr11is_integralIT1_EE5valuentsr3std7is_sameIS7_bEE5valuentsr3std7is_sameIS7_T_EE5valueEiE4typeELi0EEET0_SB_S7_
PUBLIC 7de68 0 _ZN3fmt3v116detail5writeIcNS0_14basic_appenderIcEEnTnNSt6__ndk19enable_ifIXaaaasr11is_integralIT1_EE5valuentsr3std7is_sameIS7_bEE5valuentsr3std7is_sameIS7_T_EE5valueEiE4typeELi0EEET0_SB_S7_
PUBLIC 7e1c8 0 _ZN3fmt3v116detail5writeIcNS0_14basic_appenderIcEEoTnNSt6__ndk19enable_ifIXaaaasr11is_integralIT1_EE5valuentsr3std7is_sameIS7_bEE5valuentsr3std7is_sameIS7_T_EE5valueEiE4typeELi0EEET0_SB_S7_
PUBLIC 7e4dc 0 _ZN3fmt3v116detail5writeIcNS0_14basic_appenderIcEEbTnNSt6__ndk19enable_ifIXsr3std7is_sameIT1_bEE5valueEiE4typeELi0EEET0_SA_S7_RKNS0_12format_specsENS1_10locale_refE
PUBLIC 7e76c 0 fmt::v11::detail::write_int_noinline<char, fmt::v11::basic_appender<char>, unsigned int>(fmt::v11::basic_appender<char>, fmt::v11::detail::write_int_arg<unsigned int>, fmt::v11::format_specs const&, fmt::v11::detail::locale_ref)
PUBLIC 7f534 0 fmt::v11::detail::fill<char, fmt::v11::basic_appender<char> >(fmt::v11::basic_appender<char>, unsigned long, fmt::v11::detail::fill_t const&)
PUBLIC 7f704 0 fmt::v11::detail::write_padded<char, (fmt::v11::align::type)1, fmt::v11::basic_appender<char>, fmt::v11::detail::write_char<char, fmt::v11::basic_appender<char> >(fmt::v11::basic_appender<char>, char, fmt::v11::format_specs const&)::{lambda(fmt::v11::basic_appender<char>&)#1}>(fmt::v11::basic_appender<char>, fmt::v11::format_specs const&, unsigned long, unsigned long, fmt::v11::detail::write_char<char, fmt::v11::basic_appender<char> >(fmt::v11::basic_appender<char>, char, fmt::v11::format_specs const&)::{lambda(fmt::v11::basic_appender<char>&)#1})
PUBLIC 7f940 0 fmt::v11::detail::write_escaped_cp<fmt::v11::basic_appender<char>, char>(fmt::v11::basic_appender<char>, fmt::v11::detail::find_escape_result<char> const&)
PUBLIC 7fc4c 0 fmt::v11::detail::write_codepoint<(unsigned long)2, char, fmt::v11::basic_appender<char> >(fmt::v11::basic_appender<char>, char, unsigned int)
PUBLIC 7fdc4 0 fmt::v11::detail::write_codepoint<(unsigned long)8, char, fmt::v11::basic_appender<char> >(fmt::v11::basic_appender<char>, char, unsigned int)
PUBLIC 7ff3c 0 fmt::v11::detail::write_padded<char, (fmt::v11::align::type)1, fmt::v11::basic_appender<char>, fmt::v11::detail::write_nonfinite<char, fmt::v11::basic_appender<char> >(fmt::v11::basic_appender<char>, bool, fmt::v11::format_specs, fmt::v11::sign::type)::{lambda(fmt::v11::basic_appender<char>&)#1}>(fmt::v11::basic_appender<char>, fmt::v11::format_specs const&, unsigned long, unsigned long, fmt::v11::detail::write_nonfinite<char, fmt::v11::basic_appender<char> >(fmt::v11::basic_appender<char>, bool, fmt::v11::format_specs, fmt::v11::sign::type)::{lambda(fmt::v11::basic_appender<char>&)#1})
PUBLIC 8017c 0 fmt::v11::detail::do_write_float<char, fmt::v11::basic_appender<char>, fmt::v11::detail::dragonbox::decimal_fp<float>, fmt::v11::detail::digit_grouping<char> >(fmt::v11::basic_appender<char>, fmt::v11::detail::dragonbox::decimal_fp<float> const&, fmt::v11::format_specs const&, fmt::v11::detail::float_specs, fmt::v11::detail::locale_ref)
PUBLIC 80df0 0 fmt::v11::detail::do_write_float<char, fmt::v11::basic_appender<char>, fmt::v11::detail::dragonbox::decimal_fp<float>, fmt::v11::detail::digit_grouping<char> >(fmt::v11::basic_appender<char>, fmt::v11::detail::dragonbox::decimal_fp<float> const&, fmt::v11::format_specs const&, fmt::v11::detail::float_specs, fmt::v11::detail::locale_ref)::{lambda(fmt::v11::basic_appender<char>(fmt::v11::basic_appender<char>))#1}::operator() const
PUBLIC 80f44 0 fmt::v11::detail::digit_grouping<char>::digit_grouping(fmt::v11::detail::locale_ref, bool)
PUBLIC 811ac 0 fmt::v11::detail::digit_grouping<char>::~digit_grouping()
PUBLIC 811f0 0 fmt::v11::detail::write_exponent<char, fmt::v11::basic_appender<char> >(int, fmt::v11::basic_appender<char>)
PUBLIC 813c0 0 _ZN3fmt3v116detail17write_significandIcjTnNSt6__ndk19enable_ifIXsr3std11is_integralIT0_EE5valueEiE4typeELi0EEEPT_S9_S5_iiS8_
PUBLIC 8153c 0 fmt::v11::detail::digit_grouping<char>::apply<fmt::v11::basic_appender<char>, char>(fmt::v11::basic_appender<char>, fmt::v11::basic_string_view<char>) const
PUBLIC 818f4 0 fmt::v11::basic_memory_buffer<int, (unsigned long)500, std::__ndk1::allocator<int> >::grow(fmt::v11::detail::buffer<int>&, unsigned long)
PUBLIC 81994 0 fmt::v11::detail::do_write_float<char, fmt::v11::basic_appender<char>, fmt::v11::detail::dragonbox::decimal_fp<double>, fmt::v11::detail::digit_grouping<char> >(fmt::v11::basic_appender<char>, fmt::v11::detail::dragonbox::decimal_fp<double> const&, fmt::v11::format_specs const&, fmt::v11::detail::float_specs, fmt::v11::detail::locale_ref)
PUBLIC 82644 0 fmt::v11::detail::do_write_float<char, fmt::v11::basic_appender<char>, fmt::v11::detail::dragonbox::decimal_fp<double>, fmt::v11::detail::digit_grouping<char> >(fmt::v11::basic_appender<char>, fmt::v11::detail::dragonbox::decimal_fp<double> const&, fmt::v11::format_specs const&, fmt::v11::detail::float_specs, fmt::v11::detail::locale_ref)::{lambda(fmt::v11::basic_appender<char>(fmt::v11::basic_appender<char>))#1}::operator() const
PUBLIC 8279c 0 _ZN3fmt3v116detail17write_significandIcmTnNSt6__ndk19enable_ifIXsr3std11is_integralIT0_EE5valueEiE4typeELi0EEEPT_S9_S5_iiS8_
PUBLIC 8292c 0 fmt::v11::detail::write_float<char, fmt::v11::basic_appender<char>, long double>(fmt::v11::basic_appender<char>, long double, fmt::v11::format_specs, fmt::v11::detail::locale_ref)
PUBLIC 83410 0 fmt::v11::detail::write_padded<char, (fmt::v11::align::type)2, fmt::v11::basic_appender<char>, fmt::v11::detail::write_bytes<char, (fmt::v11::align::type)2, fmt::v11::basic_appender<char> >(fmt::v11::basic_appender<char>, fmt::v11::basic_string_view<char>, fmt::v11::format_specs const&)::{lambda(fmt::v11::basic_appender<char>&)#1}>(fmt::v11::basic_appender<char>, fmt::v11::format_specs const&, unsigned long, unsigned long, fmt::v11::detail::write_bytes<char, (fmt::v11::align::type)2, fmt::v11::basic_appender<char> >(fmt::v11::basic_appender<char>, fmt::v11::basic_string_view<char>, fmt::v11::format_specs const&)::{lambda(fmt::v11::basic_appender<char>&)#1})
PUBLIC 835ec 0 fmt::v11::detail::format_dragon(fmt::v11::detail::basic_fp<unsigned __int128>, unsigned int, int, fmt::v11::detail::buffer<char>&, int&)
PUBLIC 84a10 0 fmt::v11::detail::bigint::operator<<=(int)
PUBLIC 84b34 0 fmt::v11::detail::bigint::assign_pow10(int)
PUBLIC 85290 0 fmt::v11::detail::bigint::divmod_assign(fmt::v11::detail::bigint const&)
PUBLIC 855b4 0 fmt::v11::basic_memory_buffer<unsigned int, (unsigned long)32, std::__ndk1::allocator<unsigned int> >::grow(fmt::v11::detail::buffer<unsigned int>&, unsigned long)
PUBLIC 85654 0 fmt::v11::detail::do_write_float<char, fmt::v11::basic_appender<char>, fmt::v11::detail::big_decimal_fp, fmt::v11::detail::digit_grouping<char> >(fmt::v11::basic_appender<char>, fmt::v11::detail::big_decimal_fp const&, fmt::v11::format_specs const&, fmt::v11::detail::float_specs, fmt::v11::detail::locale_ref)
PUBLIC 86500 0 fmt::v11::detail::do_write_float<char, fmt::v11::basic_appender<char>, fmt::v11::detail::big_decimal_fp, fmt::v11::detail::digit_grouping<char> >(fmt::v11::basic_appender<char>, fmt::v11::detail::big_decimal_fp const&, fmt::v11::format_specs const&, fmt::v11::detail::float_specs, fmt::v11::detail::locale_ref)::{lambda(fmt::v11::basic_appender<char>(fmt::v11::basic_appender<char>))#1}::operator() const
PUBLIC 86660 0 fmt::v11::detail::write_padded<char, (fmt::v11::align::type)2, fmt::v11::basic_appender<char>, fmt::v11::detail::write_ptr<char, fmt::v11::basic_appender<char>, unsigned long>(fmt::v11::basic_appender<char>, unsigned long, fmt::v11::format_specs const*)::{lambda(fmt::v11::basic_appender<char>&)#1}>(fmt::v11::basic_appender<char>, fmt::v11::format_specs const&, unsigned long, unsigned long, fmt::v11::detail::write_ptr<char, fmt::v11::basic_appender<char>, unsigned long>(fmt::v11::basic_appender<char>, unsigned long, fmt::v11::format_specs const*)::{lambda(fmt::v11::basic_appender<char>&)#1})
PUBLIC 86874 0 fmt::v11::detail::parse_replacement_field<char, fmt::v11::detail::vformat_to<char>(fmt::v11::detail::buffer<char>&, fmt::v11::basic_string_view<char>, fmt::v11::detail::vformat_args<char>::type, fmt::v11::detail::locale_ref)::format_handler&>(char const*, char const*, fmt::v11::detail::vformat_to<char>(fmt::v11::detail::buffer<char>&, fmt::v11::basic_string_view<char>, fmt::v11::detail::vformat_args<char>::type, fmt::v11::detail::locale_ref)::format_handler&)
PUBLIC 884d8 0 fmt::v11::detail::parse_dynamic_spec<char>(char const*, char const*, int&, fmt::v11::detail::arg_ref<char>&, fmt::v11::basic_format_parse_context<char>&)
PUBLIC 88768 0 fmt::v11::basic_format_args<fmt::v11::context>::get<char>(fmt::v11::basic_string_view<char>) const
PUBLIC 8889c 0 fmt::v11::detail::write_int_noinline<char, fmt::v11::basic_appender<char>, unsigned long>(fmt::v11::basic_appender<char>, fmt::v11::detail::write_int_arg<unsigned long>, fmt::v11::format_specs const&, fmt::v11::detail::locale_ref)
PUBLIC 896e8 0 fmt::v11::detail::write_int_noinline<char, fmt::v11::basic_appender<char>, unsigned __int128>(fmt::v11::basic_appender<char>, fmt::v11::detail::write_int_arg<unsigned __int128>, fmt::v11::format_specs const&, fmt::v11::detail::locale_ref)
PUBLIC 8a750 0 _ZN3fmt3v116detail15format_hexfloatIdTnNSt6__ndk19enable_ifIXntsr16is_double_doubleIT_EE5valueEiE4typeELi0EEEvS5_NS0_12format_specsERNS1_6bufferIcEE
PUBLIC 8ac70 0 fmt::v11::detail::format_float<double>(double, int, fmt::v11::detail::float_specs, fmt::v11::detail::buffer<char>&)
PUBLIC 8b6bc 0 fmt::v11::detail::write<char, fmt::v11::basic_appender<char> >(fmt::v11::basic_appender<char>, fmt::v11::basic_string_view<char>, fmt::v11::format_specs const&)
PUBLIC 8c998 0 fmt::v11::detail::for_each_codepoint<fmt::v11::detail::compute_width(fmt::v11::basic_string_view<char>)::count_code_points>(fmt::v11::basic_string_view<char>, fmt::v11::detail::compute_width(fmt::v11::basic_string_view<char>)::count_code_points)::{lambda(char const*, char const*)#1}::operator()(char const*, char const*) const
PUBLIC 8cb50 0 fmt::v11::detail::write_int<fmt::v11::basic_appender<char>, unsigned long, char>(fmt::v11::basic_appender<char>, unsigned long, unsigned int, fmt::v11::format_specs const&, fmt::v11::detail::digit_grouping<char> const&)
PUBLIC 8d0cc 0 fmt::v11::detail::write_int<fmt::v11::basic_appender<char>, unsigned __int128, char>(fmt::v11::basic_appender<char>, unsigned __int128, unsigned int, fmt::v11::format_specs const&, fmt::v11::detail::digit_grouping<char> const&)
PUBLIC 8d748 0 __CortexA53843419_3F004
PUBLIC 8d750 0 <.plt ELF section in undefined0.editormusic.android64.so>
STACK CFI INIT 3ae10 10 .cfa: sp 0 +
STACK CFI INIT 3ae20 8 .cfa: sp 0 +
STACK CFI INIT 3ae28 8 .cfa: sp 0 +
STACK CFI INIT 3ae30 14 .cfa: sp 0 +
STACK CFI INIT 3ae44 1c .cfa: sp 0 +
STACK CFI INIT 3ae60 10 .cfa: sp 0 +
STACK CFI INIT 3ae70 134 .cfa: sp 0 +
STACK CFI INIT 3afa4 84 .cfa: sp 0 +
STACK CFI INIT 3b028 f4 .cfa: sp 0 +
STACK CFI INIT 3b11c a8 .cfa: sp 0 +
STACK CFI INIT 3b1c4 7c .cfa: sp 0 +
STACK CFI INIT 3b240 14 .cfa: sp 0 +
STACK CFI INIT 3b254 40 .cfa: sp 0 +
STACK CFI INIT 3b294 28 .cfa: sp 0 +
STACK CFI INIT 3b2bc 190 .cfa: sp 0 +
STACK CFI INIT 3b44c 2c8 .cfa: sp 0 +
STACK CFI INIT 3b714 8 .cfa: sp 0 +
STACK CFI INIT 3b71c 8 .cfa: sp 0 +
STACK CFI INIT 3b724 44 .cfa: sp 0 +
STACK CFI INIT 3b768 e8 .cfa: sp 0 +
STACK CFI INIT 3b850 e8 .cfa: sp 0 +
STACK CFI INIT 3b938 14 .cfa: sp 0 +
STACK CFI INIT 3b94c 10 .cfa: sp 0 +
STACK CFI INIT 3b95c 10 .cfa: sp 0 +
STACK CFI INIT 3b96c f0 .cfa: sp 0 +
STACK CFI INIT 3ba5c 44 .cfa: sp 0 +
STACK CFI INIT 3baa0 c .cfa: sp 0 +
STACK CFI INIT 3baac c .cfa: sp 0 +
STACK CFI INIT 3bab8 2c .cfa: sp 0 +
STACK CFI INIT 3bae4 23c .cfa: sp 0 +
STACK CFI INIT 3bd20 c .cfa: sp 0 +
STACK CFI INIT 3bd2c 120 .cfa: sp 0 +
STACK CFI INIT 3be4c 494 .cfa: sp 0 +
STACK CFI INIT 3c2e0 b78 .cfa: sp 0 +
STACK CFI INIT 3ce58 134 .cfa: sp 0 +
STACK CFI INIT 3cf8c 210 .cfa: sp 0 +
STACK CFI INIT 3d19c 38c .cfa: sp 0 +
STACK CFI INIT 3d528 1c8 .cfa: sp 0 +
STACK CFI INIT 3d6f0 9c4 .cfa: sp 0 +
STACK CFI INIT 3e0b4 2d4 .cfa: sp 0 +
STACK CFI INIT 3e388 130 .cfa: sp 0 +
STACK CFI INIT 3e4b8 120 .cfa: sp 0 +
STACK CFI INIT 3e5d8 1c8 .cfa: sp 0 +
STACK CFI INIT 3e7a0 168 .cfa: sp 0 +
STACK CFI INIT 3e908 fc .cfa: sp 0 +
STACK CFI INIT 3ea04 30 .cfa: sp 0 +
STACK CFI INIT 3eb60 30 .cfa: sp 0 +
STACK CFI INIT 3eb90 98 .cfa: sp 0 +
STACK CFI INIT 3ec28 2ac .cfa: sp 0 +
STACK CFI INIT 3eed4 8c .cfa: sp 0 +
STACK CFI INIT 3ef60 30 .cfa: sp 0 +
STACK CFI INIT 3f0e4 a8 .cfa: sp 0 +
STACK CFI 3f0e8 .cfa: sp 48 +
STACK CFI 3f0f4 .cfa: x29 48 + x19: .cfa -8 + ^ x20: .cfa -16 + ^ x21: .cfa -24 + ^ x22: .cfa -32 + ^ .ra: .cfa -40 + ^ x29: .cfa -48 + ^
STACK CFI 3f17c .cfa: sp 48 +
STACK CFI 3f188 .cfa: sp 0 +
STACK CFI INIT 3f330 a8 .cfa: sp 0 +
STACK CFI 3f334 .cfa: sp 48 +
STACK CFI 3f340 .cfa: x29 48 + x19: .cfa -8 + ^ x20: .cfa -16 + ^ x21: .cfa -24 + ^ x22: .cfa -32 + ^ .ra: .cfa -40 + ^ x29: .cfa -48 + ^
STACK CFI 3f360 .cfa: sp 48 +
STACK CFI 3f36c .cfa: sp 0 +
STACK CFI 3f370 .cfa: x29 48 +
STACK CFI 3f3b8 .cfa: sp 48 +
STACK CFI 3f3c4 .cfa: sp 0 +
STACK CFI 3f3c8 .cfa: sp 48 +
STACK CFI 3f3d4 .cfa: sp 0 +
STACK CFI INIT 3f3d8 1bc .cfa: sp 0 +
STACK CFI 3f3dc .cfa: sp 80 +
STACK CFI 3f3f0 .cfa: x29 80 + x19: .cfa -8 + ^ x20: .cfa -16 + ^ x21: .cfa -24 + ^ x22: .cfa -32 + ^ x23: .cfa -40 + ^ x24: .cfa -48 + ^ x25: .cfa -64 + ^ .ra: .cfa -72 + ^ x29: .cfa -80 + ^
STACK CFI 3f564 .cfa: sp 80 +
STACK CFI 3f578 .cfa: sp 0 +
STACK CFI 3f57c .cfa: sp 80 +
STACK CFI 3f590 .cfa: sp 0 +
STACK CFI INIT 3f594 38 .cfa: sp 0 +
STACK CFI 3f598 .cfa: sp 32 +
STACK CFI 3f5a0 .cfa: x29 32 + x19: .cfa -16 + ^ .ra: .cfa -24 + ^ x29: .cfa -32 + ^
STACK CFI 3f5c0 .cfa: sp 32 +
STACK CFI 3f5c8 .cfa: sp 0 +
STACK CFI INIT 41418 50 .cfa: sp 0 +
STACK CFI 4141c .cfa: sp 32 +
STACK CFI 41424 .cfa: x29 32 + x19: .cfa -16 + ^ .ra: .cfa -24 + ^ x29: .cfa -32 + ^
STACK CFI 4143c .cfa: sp 32 +
STACK CFI 41444 .cfa: sp 0 +
STACK CFI 41448 .cfa: x29 32 +
STACK CFI 4145c .cfa: sp 32 +
STACK CFI 41464 .cfa: sp 0 +
STACK CFI INIT 4308c 50 .cfa: sp 0 +
STACK CFI 43090 .cfa: sp 32 +
STACK CFI 43098 .cfa: x29 32 + x19: .cfa -16 + ^ .ra: .cfa -24 + ^ x29: .cfa -32 + ^
STACK CFI 430b0 .cfa: sp 32 +
STACK CFI 430b8 .cfa: sp 0 +
STACK CFI 430bc .cfa: x29 32 +
STACK CFI 430d0 .cfa: sp 32 +
STACK CFI 430d8 .cfa: sp 0 +
STACK CFI INIT 43238 44 .cfa: sp 0 +
STACK CFI 4323c .cfa: sp 32 +
STACK CFI 43244 .cfa: x29 32 + x19: .cfa -16 + ^ .ra: .cfa -24 + ^ x29: .cfa -32 + ^
STACK CFI 43260 .cfa: sp 32 +
STACK CFI 43268 .cfa: sp 0 +
STACK CFI 4326c .cfa: x29 32 +
STACK CFI 43270 .cfa: sp 32 +
STACK CFI 43278 .cfa: sp 0 +
STACK CFI INIT 445f4 60 .cfa: sp 0 +
STACK CFI 445f8 .cfa: sp 32 +
STACK CFI 44600 .cfa: x29 32 + x19: .cfa -8 + ^ x20: .cfa -16 + ^ .ra: .cfa -24 + ^ x29: .cfa -32 + ^
STACK CFI 44620 .cfa: sp 32 +
STACK CFI 44628 .cfa: sp 0 +
STACK CFI 4462c .cfa: x29 32 +
STACK CFI 44648 .cfa: sp 32 +
STACK CFI 44650 .cfa: sp 0 +
STACK CFI INIT 44944 3c .cfa: sp 0 +
STACK CFI INIT 44980 60 .cfa: sp 0 +
STACK CFI 449b4 .cfa: sp 16 +
STACK CFI 449b8 .cfa: x29 16 + .ra: .cfa -8 + ^ x29: .cfa -16 + ^
STACK CFI 449c4 .cfa: sp 16 +
STACK CFI 449c8 .cfa: sp 0 +
STACK CFI INIT 458a0 a8 .cfa: sp 0 +
STACK CFI 458a4 .cfa: sp 48 +
STACK CFI 458b0 .cfa: x29 32 + x19: .cfa -8 + ^ x20: .cfa -16 + ^ .ra: .cfa -24 + ^ x29: .cfa -32 + ^
STACK CFI 45934 .cfa: sp 48 +
STACK CFI 45940 .cfa: sp 0 +
STACK CFI 45944 .cfa: x29 32 +
STACK CFI INIT 45948 54 .cfa: sp 0 +
STACK CFI 4594c .cfa: sp 48 +
STACK CFI 45958 .cfa: x29 32 + x19: .cfa -16 + ^ .ra: .cfa -24 + ^ x29: .cfa -32 + ^
STACK CFI 45988 .cfa: sp 48 +
STACK CFI 45994 .cfa: sp 0 +
STACK CFI 45998 .cfa: x29 32 +
STACK CFI INIT 4599c 144 .cfa: sp 0 +
STACK CFI 459a0 .cfa: sp 80 +
STACK CFI 459b4 .cfa: x29 64 + x19: .cfa -8 + ^ x20: .cfa -16 + ^ x21: .cfa -24 + ^ x22: .cfa -32 + ^ x23: .cfa -48 + ^ .ra: .cfa -56 + ^ x29: .cfa -64 + ^
STACK CFI 45ac4 .cfa: sp 80 +
STACK CFI 45ad8 .cfa: sp 0 +
STACK CFI 45adc .cfa: x29 64 +
STACK CFI INIT 45ae0 ac .cfa: sp 0 +
STACK CFI 45ae4 .cfa: sp 32 +
STACK CFI 45aec .cfa: x29 32 + x19: .cfa -8 + ^ x20: .cfa -16 + ^ .ra: .cfa -24 + ^ x29: .cfa -32 + ^
STACK CFI 45b38 .cfa: sp 32 +
STACK CFI 45b40 .cfa: sp 0 +
STACK CFI 45b44 .cfa: x29 32 +
STACK CFI 45b58 .cfa: sp 32 +
STACK CFI 45b60 .cfa: sp 0 +
STACK CFI 45b64 .cfa: x29 32 +
STACK CFI 45b80 .cfa: sp 32 +
STACK CFI 45b88 .cfa: sp 0 +
STACK CFI INIT 45b8c 10 .cfa: sp 0 +
STACK CFI INIT 466c8 2ac .cfa: sp 0 +
STACK CFI 466dc .cfa: sp 64 +
STACK CFI 466ec .cfa: x29 64 + x19: .cfa -8 + ^ x20: .cfa -16 + ^ x21: .cfa -24 + ^ x22: .cfa -32 + ^ x23: .cfa -40 + ^ x24: .cfa -48 + ^ .ra: .cfa -56 + ^ x29: .cfa -64 + ^
STACK CFI 46960 .cfa: sp 64 +
STACK CFI 46970 .cfa: sp 0 +
STACK CFI INIT 46aa0 308 .cfa: sp 0 +
STACK CFI 46aa4 .cfa: sp 144 +
STACK CFI 46ac0 .cfa: x29 80 + x19: .cfa -8 + ^ x20: .cfa -16 + ^ x21: .cfa -24 + ^ x22: .cfa -32 + ^ x23: .cfa -40 + ^ x24: .cfa -48 + ^ x25: .cfa -64 + ^ .ra: .cfa -72 + ^ x29: .cfa -80 + ^ v8: .cfa -88 + ^ v9: .cfa -96 + ^
STACK CFI 46d58 .cfa: sp 144 +
STACK CFI 46d74 .cfa: sp 0 +
STACK CFI 46d78 .cfa: x29 80 +
STACK CFI INIT 46da8 b0 .cfa: sp 0 +
STACK CFI 46dac .cfa: sp 64 +
STACK CFI 46dbc .cfa: x29 48 + x19: .cfa -8 + ^ x20: .cfa -16 + ^ x21: .cfa -32 + ^ .ra: .cfa -40 + ^ x29: .cfa -48 + ^
STACK CFI 46e40 .cfa: sp 64 +
STACK CFI 46e50 .cfa: sp 0 +
STACK CFI 46e54 .cfa: x29 48 +
STACK CFI INIT 47034 14 .cfa: sp 0 +
STACK CFI 47038 .cfa: sp 16 +
STACK CFI 4703c .cfa: x29 16 + .ra: .cfa -8 + ^ x29: .cfa -16 + ^
STACK CFI INIT 47098 30 .cfa: sp 0 +
STACK CFI 4709c .cfa: sp 32 +
STACK CFI 470a4 .cfa: x29 32 + x19: .cfa -16 + ^ .ra: .cfa -24 + ^ x29: .cfa -32 + ^
STACK CFI 470bc .cfa: sp 32 +
STACK CFI 470c4 .cfa: sp 0 +
STACK CFI INIT 470c8 34 .cfa: sp 0 +
STACK CFI 470cc .cfa: sp 32 +
STACK CFI 470d4 .cfa: x29 32 + x19: .cfa -16 + ^ .ra: .cfa -24 + ^ x29: .cfa -32 + ^
STACK CFI INIT 470fc 10 .cfa: sp 0 +
STACK CFI 47100 .cfa: sp 16 +
STACK CFI 47104 .cfa: x29 16 + .ra: .cfa -8 + ^ x29: .cfa -16 + ^
STACK CFI INIT 4710c 14 .cfa: sp 0 +
STACK CFI 47110 .cfa: sp 16 +
STACK CFI 47114 .cfa: x29 16 + .ra: .cfa -8 + ^ x29: .cfa -16 + ^
STACK CFI INIT 47120 14 .cfa: sp 0 +
STACK CFI 47124 .cfa: sp 16 +
STACK CFI 47128 .cfa: x29 16 + .ra: .cfa -8 + ^ x29: .cfa -16 + ^
STACK CFI INIT 47134 94 .cfa: sp 0 +
STACK CFI 47138 .cfa: sp 48 +
STACK CFI 47144 .cfa: x29 48 + x19: .cfa -8 + ^ x20: .cfa -16 + ^ x21: .cfa -24 + ^ x22: .cfa -32 + ^ .ra: .cfa -40 + ^ x29: .cfa -48 + ^
STACK CFI 4715c .cfa: sp 48 +
STACK CFI 47168 .cfa: sp 0 +
STACK CFI 4716c .cfa: x29 48 +
STACK CFI 471b0 .cfa: sp 48 +
STACK CFI 471bc .cfa: sp 0 +
STACK CFI 471c0 .cfa: x29 48 +
STACK CFI INIT 471c8 14 .cfa: sp 0 +
STACK CFI 471cc .cfa: sp 16 +
STACK CFI 471d0 .cfa: x29 16 + .ra: .cfa -8 + ^ x29: .cfa -16 + ^
STACK CFI INIT 4722c 30 .cfa: sp 0 +
STACK CFI 47230 .cfa: sp 32 +
STACK CFI 47238 .cfa: x29 32 + x19: .cfa -16 + ^ .ra: .cfa -24 + ^ x29: .cfa -32 + ^
STACK CFI 47250 .cfa: sp 32 +
STACK CFI 47258 .cfa: sp 0 +
STACK CFI INIT 4725c 50 .cfa: sp 0 +
STACK CFI 47260 .cfa: sp 32 +
STACK CFI 47268 .cfa: x29 32 + x19: .cfa -16 + ^ .ra: .cfa -24 + ^ x29: .cfa -32 + ^
STACK CFI 47280 .cfa: sp 32 +
STACK CFI 47288 .cfa: sp 0 +
STACK CFI 4728c .cfa: x29 32 +
STACK CFI 472a0 .cfa: sp 32 +
STACK CFI 472a8 .cfa: sp 0 +
STACK CFI INIT 472ac 14 .cfa: sp 0 +
STACK CFI 472b0 .cfa: sp 16 +
STACK CFI 472b4 .cfa: x29 16 + .ra: .cfa -8 + ^ x29: .cfa -16 + ^
STACK CFI INIT 472c0 30 .cfa: sp 0 +
STACK CFI INIT 47cbc 188 .cfa: sp 0 +
STACK CFI 47cc0 .cfa: sp 80 +
STACK CFI 47cd4 .cfa: x29 80 + x19: .cfa -8 + ^ x20: .cfa -16 + ^ x21: .cfa -24 + ^ x22: .cfa -32 + ^ x23: .cfa -40 + ^ x24: .cfa -48 + ^ x25: .cfa -64 + ^ .ra: .cfa -72 + ^ x29: .cfa -80 + ^
STACK CFI 47e28 .cfa: sp 80 +
STACK CFI 47e3c .cfa: sp 0 +
STACK CFI 47e40 .cfa: x29 80 +
STACK CFI INIT 47e44 18c .cfa: sp 0 +
STACK CFI 47e48 .cfa: sp 64 +
STACK CFI 47e58 .cfa: x29 64 + x19: .cfa -8 + ^ x20: .cfa -16 + ^ x21: .cfa -24 + ^ x22: .cfa -32 + ^ x23: .cfa -40 + ^ x24: .cfa -48 + ^ .ra: .cfa -56 + ^ x29: .cfa -64 + ^
STACK CFI 47fb8 .cfa: sp 64 +
STACK CFI 47fc8 .cfa: sp 0 +
STACK CFI 47fcc .cfa: x29 64 +
STACK CFI INIT 4809c 50 .cfa: sp 0 +
STACK CFI 480a0 .cfa: sp 32 +
STACK CFI 480a8 .cfa: x29 32 + x19: .cfa -8 + ^ x20: .cfa -16 + ^ .ra: .cfa -24 + ^ x29: .cfa -32 + ^
STACK CFI 480d4 .cfa: sp 32 +
STACK CFI 480dc .cfa: sp 0 +
STACK CFI 480e0 .cfa: sp 32 +
STACK CFI 480e8 .cfa: sp 0 +
STACK CFI INIT 480ec 3c .cfa: sp 0 +
STACK CFI 480f0 .cfa: sp 32 +
STACK CFI 480f8 .cfa: x29 32 + x19: .cfa -16 + ^ .ra: .cfa -24 + ^ x29: .cfa -32 + ^
STACK CFI 48110 .cfa: sp 32 +
STACK CFI 48118 .cfa: sp 0 +
STACK CFI 4811c .cfa: sp 32 +
STACK CFI 48124 .cfa: sp 0 +
STACK CFI INIT 48128 50 .cfa: sp 0 +
STACK CFI 4812c .cfa: sp 32 +
STACK CFI 48134 .cfa: x29 32 + x19: .cfa -16 + ^ .ra: .cfa -24 + ^ x29: .cfa -32 + ^
STACK CFI 4814c .cfa: sp 32 +
STACK CFI 48154 .cfa: sp 0 +
STACK CFI 48158 .cfa: x29 32 +
STACK CFI 4816c .cfa: sp 32 +
STACK CFI 48174 .cfa: sp 0 +
STACK CFI INIT 48178 104 .cfa: sp 0 +
STACK CFI 4817c .cfa: sp 64 +
STACK CFI 4818c .cfa: x29 64 + x19: .cfa -8 + ^ x20: .cfa -16 + ^ x21: .cfa -24 + ^ x22: .cfa -32 + ^ x23: .cfa -48 + ^ .ra: .cfa -56 + ^ x29: .cfa -64 + ^
STACK CFI 481e8 .cfa: sp 64 +
STACK CFI 481f8 .cfa: sp 0 +
STACK CFI 481fc .cfa: x29 64 +
STACK CFI 48218 .cfa: sp 64 +
STACK CFI 48228 .cfa: sp 0 +
STACK CFI 4822c .cfa: x29 64 +
STACK CFI 48268 .cfa: sp 64 +
STACK CFI 48278 .cfa: sp 0 +
STACK CFI INIT 4827c 4 .cfa: sp 0 +
STACK CFI INIT 48280 4 .cfa: sp 0 +
STACK CFI INIT 48284 34 .cfa: sp 0 +
STACK CFI 48288 .cfa: sp 32 +
STACK CFI 48290 .cfa: x29 32 + x19: .cfa -16 + ^ .ra: .cfa -24 + ^ x29: .cfa -32 + ^
STACK CFI 482ac .cfa: sp 32 +
STACK CFI 482b4 .cfa: sp 0 +
STACK CFI INIT 482b8 14 .cfa: sp 0 +
STACK CFI INIT 482cc 4 .cfa: sp 0 +
STACK CFI INIT 482d0 4 .cfa: sp 0 +
STACK CFI INIT 482d4 28 .cfa: sp 0 +
STACK CFI 482d8 .cfa: sp 32 +
STACK CFI 482e0 .cfa: x29 32 + x19: .cfa -16 + ^ .ra: .cfa -24 + ^ x29: .cfa -32 + ^
STACK CFI 482f0 .cfa: sp 32 +
STACK CFI 482f8 .cfa: sp 0 +
STACK CFI INIT 482fc 1c .cfa: sp 0 +
STACK CFI INIT 48318 c .cfa: sp 0 +
STACK CFI INIT 48324 24 .cfa: sp 0 +
STACK CFI 48328 .cfa: sp 32 +
STACK CFI 48330 .cfa: x29 32 + x19: .cfa -16 + ^ .ra: .cfa -24 + ^ x29: .cfa -32 + ^
STACK CFI 4833c .cfa: sp 32 +
STACK CFI 48344 .cfa: sp 0 +
STACK CFI INIT 48348 10 .cfa: sp 0 +
STACK CFI INIT 48358 30 .cfa: sp 0 +
STACK CFI 4835c .cfa: sp 32 +
STACK CFI 48364 .cfa: x29 32 + x19: .cfa -16 + ^ .ra: .cfa -24 + ^ x29: .cfa -32 + ^
STACK CFI 4837c .cfa: sp 32 +
STACK CFI 48384 .cfa: sp 0 +
STACK CFI INIT 48388 8 .cfa: sp 0 +
STACK CFI INIT 48390 4 .cfa: sp 0 +
STACK CFI INIT 48394 5c .cfa: sp 0 +
STACK CFI 48398 .cfa: sp 32 +
STACK CFI 483a0 .cfa: x29 32 + x19: .cfa -16 + ^ .ra: .cfa -24 + ^ x29: .cfa -32 + ^
STACK CFI 483c4 .cfa: sp 32 +
STACK CFI 483cc .cfa: sp 0 +
STACK CFI 483d0 .cfa: x29 32 +
STACK CFI 483e4 .cfa: sp 32 +
STACK CFI 483ec .cfa: sp 0 +
STACK CFI INIT 483f0 6c .cfa: sp 0 +
STACK CFI 483f4 .cfa: sp 32 +
STACK CFI 483fc .cfa: x29 32 + x19: .cfa -8 + ^ x20: .cfa -16 + ^ .ra: .cfa -24 + ^ x29: .cfa -32 + ^
STACK CFI 48428 .cfa: sp 32 +
STACK CFI 48430 .cfa: sp 0 +
STACK CFI 48434 .cfa: x29 32 +
STACK CFI 48450 .cfa: sp 32 +
STACK CFI 48458 .cfa: sp 0 +
STACK CFI INIT 4845c 58 .cfa: sp 0 +
STACK CFI 48460 .cfa: sp 32 +
STACK CFI 48468 .cfa: x29 32 + x19: .cfa -16 + ^ .ra: .cfa -24 + ^ x29: .cfa -32 + ^
STACK CFI 484a8 .cfa: sp 32 +
STACK CFI 484b0 .cfa: sp 0 +
STACK CFI INIT 484b4 3c .cfa: sp 0 +
STACK CFI 484d8 .cfa: sp 16 +
STACK CFI 484dc .cfa: x29 16 + .ra: .cfa -8 + ^ x29: .cfa -16 + ^
STACK CFI 484e8 .cfa: sp 16 +
STACK CFI 484ec .cfa: sp 0 +
STACK CFI INIT 484f0 50 .cfa: sp 0 +
STACK CFI 484f4 .cfa: sp 32 +
STACK CFI 484fc .cfa: x29 32 + x19: .cfa -16 + ^ .ra: .cfa -24 + ^ x29: .cfa -32 + ^
STACK CFI 48514 .cfa: sp 32 +
STACK CFI 4851c .cfa: sp 0 +
STACK CFI 48520 .cfa: x29 32 +
STACK CFI 48534 .cfa: sp 32 +
STACK CFI 4853c .cfa: sp 0 +
STACK CFI INIT 48540 60 .cfa: sp 0 +
STACK CFI 48544 .cfa: sp 32 +
STACK CFI 4854c .cfa: x29 32 + x19: .cfa -8 + ^ x20: .cfa -16 + ^ .ra: .cfa -24 + ^ x29: .cfa -32 + ^
STACK CFI 4856c .cfa: sp 32 +
STACK CFI 48574 .cfa: sp 0 +
STACK CFI 48578 .cfa: x29 32 +
STACK CFI 48594 .cfa: sp 32 +
STACK CFI 4859c .cfa: sp 0 +
STACK CFI INIT 4865c 1c .cfa: sp 0 +
STACK CFI INIT 48678 c .cfa: sp 0 +
STACK CFI INIT 48684 5c .cfa: sp 0 +
STACK CFI 48688 .cfa: sp 32 +
STACK CFI 48690 .cfa: x29 32 + x19: .cfa -16 + ^ .ra: .cfa -24 + ^ x29: .cfa -32 + ^
STACK CFI 486c8 .cfa: sp 32 +
STACK CFI 486d0 .cfa: sp 0 +
STACK CFI 486d4 .cfa: sp 32 +
STACK CFI 486dc .cfa: sp 0 +
STACK CFI INIT 486e0 1a8 .cfa: sp 0 +
STACK CFI INIT 48888 70 .cfa: sp 0 +
STACK CFI 48890 .cfa: sp 32 +
STACK CFI 48898 .cfa: x29 32 + x19: .cfa -16 + ^ .ra: .cfa -24 + ^ x29: .cfa -32 + ^
STACK CFI 488c0 .cfa: sp 32 +
STACK CFI 488c8 .cfa: sp 0 +
STACK CFI 488d0 .cfa: x29 32 +
STACK CFI 488ec .cfa: sp 32 +
STACK CFI 488f4 .cfa: sp 0 +
STACK CFI INIT 488f8 168 .cfa: sp 0 +
STACK CFI 488fc .cfa: sp 80 +
STACK CFI 48910 .cfa: x29 80 + x19: .cfa -8 + ^ x20: .cfa -16 + ^ x21: .cfa -24 + ^ x22: .cfa -32 + ^ x23: .cfa -40 + ^ x24: .cfa -48 + ^ x25: .cfa -56 + ^ x26: .cfa -64 + ^ .ra: .cfa -72 + ^ x29: .cfa -80 + ^
STACK CFI 48a48 .cfa: sp 80 +
STACK CFI 48a5c .cfa: sp 0 +
STACK CFI INIT 48a60 5c .cfa: sp 0 +
STACK CFI 48a64 .cfa: sp 32 +
STACK CFI 48a6c .cfa: x29 32 + x19: .cfa -16 + ^ .ra: .cfa -24 + ^ x29: .cfa -32 + ^
STACK CFI 48a90 .cfa: sp 32 +
STACK CFI 48a98 .cfa: sp 0 +
STACK CFI 48a9c .cfa: x29 32 +
STACK CFI 48ab0 .cfa: sp 32 +
STACK CFI 48ab8 .cfa: sp 0 +
STACK CFI INIT 48abc 6c .cfa: sp 0 +
STACK CFI 48ac0 .cfa: sp 32 +
STACK CFI 48ac8 .cfa: x29 32 + x19: .cfa -8 + ^ x20: .cfa -16 + ^ .ra: .cfa -24 + ^ x29: .cfa -32 + ^
STACK CFI 48af4 .cfa: sp 32 +
STACK CFI 48afc .cfa: sp 0 +
STACK CFI 48b00 .cfa: x29 32 +
STACK CFI 48b1c .cfa: sp 32 +
STACK CFI 48b24 .cfa: sp 0 +
STACK CFI INIT 48b28 58 .cfa: sp 0 +
STACK CFI 48b2c .cfa: sp 32 +
STACK CFI 48b34 .cfa: x29 32 + x19: .cfa -8 + ^ x20: .cfa -16 + ^ .ra: .cfa -24 + ^ x29: .cfa -32 + ^
STACK CFI 48b74 .cfa: sp 32 +
STACK CFI 48b7c .cfa: sp 0 +
STACK CFI INIT 48b80 4c .cfa: sp 0 +
STACK CFI 48b84 .cfa: sp 32 +
STACK CFI 48b8c .cfa: x29 32 + x19: .cfa -8 + ^ x20: .cfa -16 + ^ .ra: .cfa -24 + ^ x29: .cfa -32 + ^
STACK CFI 48bc0 .cfa: sp 32 +
STACK CFI 48bc8 .cfa: sp 0 +
STACK CFI INIT 48bcc 50 .cfa: sp 0 +
STACK CFI 48bd0 .cfa: sp 32 +
STACK CFI 48bd8 .cfa: x29 32 + x19: .cfa -16 + ^ .ra: .cfa -24 + ^ x29: .cfa -32 + ^
STACK CFI 48bf0 .cfa: sp 32 +
STACK CFI 48bf8 .cfa: sp 0 +
STACK CFI 48bfc .cfa: x29 32 +
STACK CFI 48c10 .cfa: sp 32 +
STACK CFI 48c18 .cfa: sp 0 +
STACK CFI INIT 48c1c 60 .cfa: sp 0 +
STACK CFI 48c20 .cfa: sp 32 +
STACK CFI 48c28 .cfa: x29 32 + x19: .cfa -8 + ^ x20: .cfa -16 + ^ .ra: .cfa -24 + ^ x29: .cfa -32 + ^
STACK CFI 48c48 .cfa: sp 32 +
STACK CFI 48c50 .cfa: sp 0 +
STACK CFI 48c54 .cfa: x29 32 +
STACK CFI 48c70 .cfa: sp 32 +
STACK CFI 48c78 .cfa: sp 0 +
STACK CFI INIT 48e58 1c .cfa: sp 0 +
STACK CFI INIT 48e74 c .cfa: sp 0 +
STACK CFI INIT 49590 26c .cfa: sp 0 +
STACK CFI 49594 .cfa: sp 112 +
STACK CFI 495b0 .cfa: x29 96 + x19: .cfa -8 + ^ x20: .cfa -16 + ^ x21: .cfa -24 + ^ x22: .cfa -32 + ^ x23: .cfa -40 + ^ x24: .cfa -48 + ^ x25: .cfa -56 + ^ x26: .cfa -64 + ^ x27: .cfa -72 + ^ x28: .cfa -80 + ^ .ra: .cfa -88 + ^ x29: .cfa -96 + ^
STACK CFI 497dc .cfa: sp 112 +
STACK CFI 497f8 .cfa: sp 0 +
STACK CFI INIT 497fc 1a8 .cfa: sp 0 +
STACK CFI 49800 .cfa: sp 64 +
STACK CFI 49810 .cfa: x29 64 + x19: .cfa -8 + ^ x20: .cfa -16 + ^ x21: .cfa -24 + ^ x22: .cfa -32 + ^ x23: .cfa -48 + ^ .ra: .cfa -56 + ^ x29: .cfa -64 + ^
STACK CFI 49894 .cfa: sp 64 +
STACK CFI 498a4 .cfa: sp 0 +
STACK CFI 498a8 .cfa: x29 64 +
STACK CFI 498b0 .cfa: sp 64 +
STACK CFI 498c0 .cfa: sp 0 +
STACK CFI 498c4 .cfa: x29 64 +
STACK CFI 4998c .cfa: sp 64 +
STACK CFI 4999c .cfa: sp 0 +
STACK CFI 499a0 .cfa: x29 64 +
STACK CFI INIT 499a4 170 .cfa: sp 0 +
STACK CFI 499a8 .cfa: sp 96 +
STACK CFI 499c0 .cfa: x29 96 + x19: .cfa -8 + ^ x20: .cfa -16 + ^ x21: .cfa -24 + ^ x22: .cfa -32 + ^ x23: .cfa -40 + ^ x24: .cfa -48 + ^ x25: .cfa -56 + ^ x26: .cfa -64 + ^ x27: .cfa -80 + ^ .ra: .cfa -88 + ^ x29: .cfa -96 + ^
STACK CFI 49af4 .cfa: sp 96 +
STACK CFI 49b0c .cfa: sp 0 +
STACK CFI 49b10 .cfa: x29 96 +
STACK CFI INIT 49b60 4 .cfa: sp 0 +
STACK CFI INIT 49b64 c .cfa: sp 0 +
STACK CFI INIT 49b70 4 .cfa: sp 0 +
STACK CFI INIT 49b74 4 .cfa: sp 0 +
STACK CFI INIT 49b78 24 .cfa: sp 0 +
STACK CFI 49b7c .cfa: sp 32 +
STACK CFI 49b84 .cfa: x29 32 + x19: .cfa -16 + ^ .ra: .cfa -24 + ^ x29: .cfa -32 + ^
STACK CFI 49b90 .cfa: sp 32 +
STACK CFI 49b98 .cfa: sp 0 +
STACK CFI INIT 49b9c 18 .cfa: sp 0 +
STACK CFI INIT 49bb4 1c .cfa: sp 0 +
STACK CFI INIT 49bd0 4 .cfa: sp 0 +
STACK CFI INIT 49bd4 48 .cfa: sp 0 +
STACK CFI 49bf0 .cfa: sp 32 +
STACK CFI 49bf8 .cfa: x29 32 + x19: .cfa -16 + ^ .ra: .cfa -24 + ^ x29: .cfa -32 + ^
STACK CFI 49c10 .cfa: sp 32 +
STACK CFI 49c18 .cfa: sp 0 +
STACK CFI INIT 49c1c 14 .cfa: sp 0 +
STACK CFI INIT 49c30 48 .cfa: sp 0 +
STACK CFI 49c4c .cfa: sp 32 +
STACK CFI 49c54 .cfa: x29 32 + x19: .cfa -16 + ^ .ra: .cfa -24 + ^ x29: .cfa -32 + ^
STACK CFI 49c6c .cfa: sp 32 +
STACK CFI 49c74 .cfa: sp 0 +
STACK CFI INIT 4a620 3f4 .cfa: sp 0 +
STACK CFI 4a624 .cfa: sp 32 +
STACK CFI 4a62c .cfa: x29 32 + x19: .cfa -16 + ^ .ra: .cfa -24 + ^ x29: .cfa -32 + ^
STACK CFI 4a778 .cfa: sp 32 +
STACK CFI 4a780 .cfa: sp 0 +
STACK CFI 4a784 .cfa: x29 32 +
STACK CFI 4a78c .cfa: sp 32 +
STACK CFI 4a794 .cfa: sp 0 +
STACK CFI 4a798 .cfa: x29 32 +
STACK CFI 4a7d4 .cfa: sp 32 +
STACK CFI 4a7dc .cfa: sp 0 +
STACK CFI 4a7e0 .cfa: x29 32 +
STACK CFI 4a81c .cfa: sp 32 +
STACK CFI 4a824 .cfa: sp 0 +
STACK CFI 4a828 .cfa: x29 32 +
STACK CFI 4a854 .cfa: sp 32 +
STACK CFI 4a85c .cfa: sp 0 +
STACK CFI 4a860 .cfa: x29 32 +
STACK CFI 4a87c .cfa: sp 32 +
STACK CFI 4a884 .cfa: sp 0 +
STACK CFI 4a888 .cfa: x29 32 +
STACK CFI 4a8ec .cfa: sp 32 +
STACK CFI 4a8f4 .cfa: sp 0 +
STACK CFI 4a8f8 .cfa: x29 32 +
STACK CFI 4a9c8 .cfa: sp 32 +
STACK CFI 4a9d0 .cfa: sp 0 +
STACK CFI 4a9d4 .cfa: x29 32 +
STACK CFI 4aa00 .cfa: sp 32 +
STACK CFI 4aa08 .cfa: sp 0 +
STACK CFI 4aa0c .cfa: x29 32 +
STACK CFI INIT 4aa80 b4 .cfa: sp 0 +
STACK CFI 4aa84 .cfa: sp 64 +
STACK CFI 4aa94 .cfa: x29 64 + x19: .cfa -8 + ^ x20: .cfa -16 + ^ x21: .cfa -24 + ^ x22: .cfa -32 + ^ x23: .cfa -48 + ^ .ra: .cfa -56 + ^ x29: .cfa -64 + ^
STACK CFI 4ab20 .cfa: sp 64 +
STACK CFI 4ab30 .cfa: sp 0 +
STACK CFI INIT 4ab80 48 .cfa: sp 0 +
STACK CFI 4ab9c .cfa: sp 32 +
STACK CFI 4aba4 .cfa: x29 32 + x19: .cfa -16 + ^ .ra: .cfa -24 + ^ x29: .cfa -32 + ^
STACK CFI 4abbc .cfa: sp 32 +
STACK CFI 4abc4 .cfa: sp 0 +
STACK CFI INIT 4abc8 64 .cfa: sp 0 +
STACK CFI INIT 4ac2c 48 .cfa: sp 0 +
STACK CFI 4ac48 .cfa: sp 32 +
STACK CFI 4ac50 .cfa: x29 32 + x19: .cfa -16 + ^ .ra: .cfa -24 + ^ x29: .cfa -32 + ^
STACK CFI 4ac68 .cfa: sp 32 +
STACK CFI 4ac70 .cfa: sp 0 +
STACK CFI INIT 4ac74 54 .cfa: sp 0 +
STACK CFI INIT 4acc8 5c .cfa: sp 0 +
STACK CFI 4accc .cfa: sp 32 +
STACK CFI 4acd4 .cfa: x29 32 + x19: .cfa -16 + ^ .ra: .cfa -24 + ^ x29: .cfa -32 + ^
STACK CFI 4ad0c .cfa: sp 32 +
STACK CFI 4ad14 .cfa: sp 0 +
STACK CFI 4ad18 .cfa: sp 32 +
STACK CFI 4ad20 .cfa: sp 0 +
STACK CFI INIT 4ad24 58 .cfa: sp 0 +
STACK CFI 4ad28 .cfa: sp 32 +
STACK CFI 4ad30 .cfa: x29 32 + x19: .cfa -16 + ^ .ra: .cfa -24 + ^ x29: .cfa -32 + ^
STACK CFI 4ad70 .cfa: sp 32 +
STACK CFI 4ad78 .cfa: sp 0 +
STACK CFI INIT 4ad7c 110 .cfa: sp 0 +
STACK CFI INIT 4ae8c 90 .cfa: sp 0 +
STACK CFI 4ae90 .cfa: sp 32 +
STACK CFI 4ae98 .cfa: x29 32 + x19: .cfa -8 + ^ x20: .cfa -16 + ^ .ra: .cfa -24 + ^ x29: .cfa -32 + ^
STACK CFI 4af04 .cfa: sp 32 +
STACK CFI 4af0c .cfa: sp 0 +
STACK CFI 4af10 .cfa: sp 32 +
STACK CFI 4af18 .cfa: sp 0 +
STACK CFI INIT 4af1c 8c .cfa: sp 0 +
STACK CFI 4af20 .cfa: sp 32 +
STACK CFI 4af28 .cfa: x29 32 + x19: .cfa -8 + ^ x20: .cfa -16 + ^ .ra: .cfa -24 + ^ x29: .cfa -32 + ^
STACK CFI 4af9c .cfa: sp 32 +
STACK CFI 4afa4 .cfa: sp 0 +
STACK CFI INIT 4b5c4 1d0 .cfa: sp 0 +
STACK CFI 4b5c8 .cfa: sp 48 +
STACK CFI 4b5d4 .cfa: x29 48 + x19: .cfa -8 + ^ x20: .cfa -16 + ^ x21: .cfa -24 + ^ x22: .cfa -32 + ^ .ra: .cfa -40 + ^ x29: .cfa -48 + ^
STACK CFI 4b764 .cfa: sp 48 +
STACK CFI 4b770 .cfa: sp 0 +
STACK CFI 4b774 .cfa: x29 48 +
STACK CFI 4b780 .cfa: sp 48 +
STACK CFI 4b78c .cfa: sp 0 +
STACK CFI 4b790 .cfa: x29 48 +
STACK CFI INIT 4b794 14 .cfa: sp 0 +
STACK CFI 4b798 .cfa: sp 16 +
STACK CFI 4b79c .cfa: x29 16 + .ra: .cfa -8 + ^ x29: .cfa -16 + ^
STACK CFI INIT 4b7a8 44 .cfa: sp 0 +
STACK CFI 4b7ac .cfa: sp 32 +
STACK CFI 4b7b4 .cfa: x29 32 + x19: .cfa -16 + ^ .ra: .cfa -24 + ^ x29: .cfa -32 + ^
STACK CFI 4b7d4 .cfa: sp 32 +
STACK CFI 4b7dc .cfa: sp 0 +
STACK CFI 4b7e0 .cfa: sp 32 +
STACK CFI 4b7e8 .cfa: sp 0 +
STACK CFI INIT 4b9f4 98 .cfa: sp 0 +
STACK CFI 4b9f8 .cfa: sp 48 +
STACK CFI 4ba04 .cfa: x29 48 + x19: .cfa -8 + ^ x20: .cfa -16 + ^ x21: .cfa -32 + ^ .ra: .cfa -40 + ^ x29: .cfa -48 + ^
STACK CFI 4ba24 .cfa: sp 48 +
STACK CFI 4ba30 .cfa: sp 0 +
STACK CFI 4ba34 .cfa: x29 48 +
STACK CFI 4ba6c .cfa: sp 48 +
STACK CFI 4ba78 .cfa: sp 0 +
STACK CFI 4ba7c .cfa: sp 48 +
STACK CFI 4ba88 .cfa: sp 0 +
STACK CFI INIT 4ba8c 1cc .cfa: sp 0 +
STACK CFI 4ba90 .cfa: sp 64 +
STACK CFI 4baa0 .cfa: x29 64 + x19: .cfa -8 + ^ x20: .cfa -16 + ^ x21: .cfa -24 + ^ x22: .cfa -32 + ^ x23: .cfa -40 + ^ x24: .cfa -48 + ^ .ra: .cfa -56 + ^ x29: .cfa -64 + ^
STACK CFI 4bc3c .cfa: sp 64 +
STACK CFI 4bc4c .cfa: sp 0 +
STACK CFI 4bc50 .cfa: x29 64 +
STACK CFI INIT 4bc58 14 .cfa: sp 0 +
STACK CFI 4bc5c .cfa: sp 16 +
STACK CFI 4bc60 .cfa: x29 16 + .ra: .cfa -8 + ^ x29: .cfa -16 + ^
STACK CFI INIT 4bc6c 188 .cfa: sp 0 +
STACK CFI 4bc70 .cfa: sp 64 +
STACK CFI 4bc80 .cfa: x29 64 + x19: .cfa -8 + ^ x20: .cfa -16 + ^ x21: .cfa -24 + ^ x22: .cfa -32 + ^ x23: .cfa -40 + ^ x24: .cfa -48 + ^ .ra: .cfa -56 + ^ x29: .cfa -64 + ^
STACK CFI 4bdc4 .cfa: sp 64 +
STACK CFI 4bdd4 .cfa: sp 0 +
STACK CFI 4bdd8 .cfa: sp 64 +
STACK CFI 4bde8 .cfa: sp 0 +
STACK CFI 4bdec .cfa: x29 64 +
STACK CFI INIT 4bdf4 128 .cfa: sp 0 +
STACK CFI 4bdf8 .cfa: sp 80 +
STACK CFI 4be0c .cfa: x29 80 + x19: .cfa -8 + ^ x20: .cfa -16 + ^ x21: .cfa -24 + ^ x22: .cfa -32 + ^ x23: .cfa -40 + ^ x24: .cfa -48 + ^ x25: .cfa -64 + ^ .ra: .cfa -72 + ^ x29: .cfa -80 + ^
STACK CFI 4bee4 .cfa: sp 80 +
STACK CFI 4bef8 .cfa: sp 0 +
STACK CFI 4befc .cfa: sp 80 +
STACK CFI 4bf10 .cfa: sp 0 +
STACK CFI 4bf14 .cfa: x29 80 +
STACK CFI INIT 4bf1c 14 .cfa: sp 0 +
STACK CFI 4bf20 .cfa: sp 16 +
STACK CFI 4bf24 .cfa: x29 16 + .ra: .cfa -8 + ^ x29: .cfa -16 + ^
STACK CFI INIT 4d090 48 .cfa: sp 0 +
STACK CFI 4d0ac .cfa: sp 32 +
STACK CFI 4d0b4 .cfa: x29 32 + x19: .cfa -16 + ^ .ra: .cfa -24 + ^ x29: .cfa -32 + ^
STACK CFI 4d0cc .cfa: sp 32 +
STACK CFI 4d0d4 .cfa: sp 0 +
STACK CFI INIT 4d124 50c .cfa: sp 0 +
STACK CFI 4d128 .cfa: sp 32 +
STACK CFI 4d130 .cfa: x29 32 + x19: .cfa -16 + ^ .ra: .cfa -24 + ^ x29: .cfa -32 + ^
STACK CFI 4d278 .cfa: sp 32 +
STACK CFI 4d280 .cfa: sp 0 +
STACK CFI 4d284 .cfa: x29 32 +
STACK CFI 4d3f4 .cfa: sp 32 +
STACK CFI 4d3fc .cfa: sp 0 +
STACK CFI 4d400 .cfa: x29 32 +
STACK CFI 4d41c .cfa: sp 32 +
STACK CFI 4d424 .cfa: sp 0 +
STACK CFI 4d428 .cfa: x29 32 +
STACK CFI 4d484 .cfa: sp 32 +
STACK CFI 4d48c .cfa: sp 0 +
STACK CFI 4d490 .cfa: x29 32 +
STACK CFI 4d4ac .cfa: sp 32 +
STACK CFI 4d4b4 .cfa: sp 0 +
STACK CFI 4d4b8 .cfa: x29 32 +
STACK CFI 4d4d4 .cfa: sp 32 +
STACK CFI 4d4dc .cfa: sp 0 +
STACK CFI 4d4e0 .cfa: x29 32 +
STACK CFI 4d4fc .cfa: sp 32 +
STACK CFI 4d504 .cfa: sp 0 +
STACK CFI 4d508 .cfa: x29 32 +
STACK CFI 4d520 .cfa: sp 32 +
STACK CFI 4d528 .cfa: sp 0 +
STACK CFI 4d52c .cfa: x29 32 +
STACK CFI 4d548 .cfa: sp 32 +
STACK CFI 4d550 .cfa: sp 0 +
STACK CFI 4d554 .cfa: x29 32 +
STACK CFI 4d570 .cfa: sp 32 +
STACK CFI 4d578 .cfa: sp 0 +
STACK CFI 4d57c .cfa: x29 32 +
STACK CFI 4d598 .cfa: sp 32 +
STACK CFI 4d5a0 .cfa: sp 0 +
STACK CFI 4d5a4 .cfa: x29 32 +
STACK CFI 4d5f8 .cfa: sp 32 +
STACK CFI 4d600 .cfa: sp 0 +
STACK CFI 4d604 .cfa: x29 32 +
STACK CFI 4d620 .cfa: sp 32 +
STACK CFI 4d628 .cfa: sp 0 +
STACK CFI 4d62c .cfa: x29 32 +
STACK CFI INIT 4d7bc c8 .cfa: sp 0 +
STACK CFI 4d7c0 .cfa: sp 48 +
STACK CFI 4d7cc .cfa: x29 48 + x19: .cfa -8 + ^ x20: .cfa -16 + ^ x21: .cfa -32 + ^ .ra: .cfa -40 + ^ x29: .cfa -48 + ^
STACK CFI 4d874 .cfa: sp 48 +
STACK CFI 4d880 .cfa: sp 0 +
STACK CFI INIT 4d884 5c .cfa: sp 0 +
STACK CFI 4d888 .cfa: sp 32 +
STACK CFI 4d890 .cfa: x29 32 + x19: .cfa -16 + ^ .ra: .cfa -24 + ^ x29: .cfa -32 + ^
STACK CFI 4d8c8 .cfa: sp 32 +
STACK CFI 4d8d0 .cfa: sp 0 +
STACK CFI 4d8d4 .cfa: sp 32 +
STACK CFI 4d8dc .cfa: sp 0 +
STACK CFI INIT 4d8e0 58 .cfa: sp 0 +
STACK CFI 4d8e4 .cfa: sp 32 +
STACK CFI 4d8ec .cfa: x29 32 + x19: .cfa -16 + ^ .ra: .cfa -24 + ^ x29: .cfa -32 + ^
STACK CFI 4d92c .cfa: sp 32 +
STACK CFI 4d934 .cfa: sp 0 +
STACK CFI INIT 4d938 80 .cfa: sp 0 +
STACK CFI 4d93c .cfa: sp 32 +
STACK CFI 4d944 .cfa: x29 32 + x19: .cfa -8 + ^ x20: .cfa -16 + ^ .ra: .cfa -24 + ^ x29: .cfa -32 + ^
STACK CFI 4d994 .cfa: sp 32 +
STACK CFI 4d99c .cfa: sp 0 +
STACK CFI 4d9a0 .cfa: x29 32 +
STACK CFI 4d9ac .cfa: sp 32 +
STACK CFI 4d9b4 .cfa: sp 0 +
STACK CFI INIT 4d9b8 5c .cfa: sp 0 +
STACK CFI 4d9bc .cfa: sp 32 +
STACK CFI 4d9c4 .cfa: x29 32 + x19: .cfa -16 + ^ .ra: .cfa -24 + ^ x29: .cfa -32 + ^
STACK CFI 4d9fc .cfa: sp 32 +
STACK CFI 4da04 .cfa: sp 0 +
STACK CFI 4da08 .cfa: sp 32 +
STACK CFI 4da10 .cfa: sp 0 +
STACK CFI INIT 4da14 58 .cfa: sp 0 +
STACK CFI 4da18 .cfa: sp 32 +
STACK CFI 4da20 .cfa: x29 32 + x19: .cfa -16 + ^ .ra: .cfa -24 + ^ x29: .cfa -32 + ^
STACK CFI 4da60 .cfa: sp 32 +
STACK CFI 4da68 .cfa: sp 0 +
STACK CFI INIT 4da6c 48 .cfa: sp 0 +
STACK CFI INIT 4dab4 48 .cfa: sp 0 +
STACK CFI 4dad0 .cfa: sp 32 +
STACK CFI 4dad8 .cfa: x29 32 + x19: .cfa -16 + ^ .ra: .cfa -24 + ^ x29: .cfa -32 + ^
STACK CFI 4daf0 .cfa: sp 32 +
STACK CFI 4daf8 .cfa: sp 0 +
STACK CFI INIT 4dafc 48 .cfa: sp 0 +
STACK CFI INIT 4db44 5c .cfa: sp 0 +
STACK CFI 4db48 .cfa: sp 32 +
STACK CFI 4db50 .cfa: x29 32 + x19: .cfa -16 + ^ .ra: .cfa -24 + ^ x29: .cfa -32 + ^
STACK CFI 4db88 .cfa: sp 32 +
STACK CFI 4db90 .cfa: sp 0 +
STACK CFI 4db94 .cfa: sp 32 +
STACK CFI 4db9c .cfa: sp 0 +
STACK CFI INIT 4dba0 58 .cfa: sp 0 +
STACK CFI 4dba4 .cfa: sp 32 +
STACK CFI 4dbac .cfa: x29 32 + x19: .cfa -16 + ^ .ra: .cfa -24 + ^ x29: .cfa -32 + ^
STACK CFI 4dbec .cfa: sp 32 +
STACK CFI 4dbf4 .cfa: sp 0 +
STACK CFI INIT 4dbf8 f8 .cfa: sp 0 +
STACK CFI 4dbfc .cfa: sp 64 +
STACK CFI 4dc0c .cfa: x29 64 + x19: .cfa -8 + ^ x20: .cfa -16 + ^ x21: .cfa -24 + ^ x22: .cfa -32 + ^ x23: .cfa -40 + ^ x24: .cfa -48 + ^ .ra: .cfa -56 + ^ x29: .cfa -64 + ^
STACK CFI 4dc50 .cfa: sp 64 +
STACK CFI 4dc60 .cfa: sp 0 +
STACK CFI 4dc64 .cfa: x29 64 +
STACK CFI 4dcdc .cfa: sp 64 +
STACK CFI 4dcec .cfa: sp 0 +
STACK CFI INIT 4dcf0 5c .cfa: sp 0 +
STACK CFI 4dcf4 .cfa: sp 32 +
STACK CFI 4dcfc .cfa: x29 32 + x19: .cfa -16 + ^ .ra: .cfa -24 + ^ x29: .cfa -32 + ^
STACK CFI 4dd34 .cfa: sp 32 +
STACK CFI 4dd3c .cfa: sp 0 +
STACK CFI 4dd40 .cfa: sp 32 +
STACK CFI 4dd48 .cfa: sp 0 +
STACK CFI INIT 4dd4c 58 .cfa: sp 0 +
STACK CFI 4dd50 .cfa: sp 32 +
STACK CFI 4dd58 .cfa: x29 32 + x19: .cfa -16 + ^ .ra: .cfa -24 + ^ x29: .cfa -32 + ^
STACK CFI 4dd98 .cfa: sp 32 +
STACK CFI 4dda0 .cfa: sp 0 +
STACK CFI INIT 4dda4 88 .cfa: sp 0 +
STACK CFI INIT 4de2c 48 .cfa: sp 0 +
STACK CFI 4de48 .cfa: sp 32 +
STACK CFI 4de50 .cfa: x29 32 + x19: .cfa -16 + ^ .ra: .cfa -24 + ^ x29: .cfa -32 + ^
STACK CFI 4de68 .cfa: sp 32 +
STACK CFI 4de70 .cfa: sp 0 +
STACK CFI INIT 4de74 c8 .cfa: sp 0 +
STACK CFI 4de78 .cfa: sp 48 +
STACK CFI 4de84 .cfa: x29 48 + x19: .cfa -8 + ^ x20: .cfa -16 + ^ x21: .cfa -24 + ^ x22: .cfa -32 + ^ .ra: .cfa -40 + ^ x29: .cfa -48 + ^
STACK CFI 4df00 .cfa: sp 48 +
STACK CFI 4df0c .cfa: sp 0 +
STACK CFI 4df10 .cfa: x29 48 +
STACK CFI 4df28 .cfa: sp 48 +
STACK CFI 4df34 .cfa: sp 0 +
STACK CFI 4df38 .cfa: x29 48 +
STACK CFI INIT 4df3c 184 .cfa: sp 0 +
STACK CFI 4df40 .cfa: sp 64 +
STACK CFI 4df50 .cfa: x29 64 + x19: .cfa -8 + ^ x20: .cfa -16 + ^ x21: .cfa -24 + ^ x22: .cfa -32 + ^ x23: .cfa -40 + ^ x24: .cfa -48 + ^ .ra: .cfa -56 + ^ x29: .cfa -64 + ^
STACK CFI 4df98 .cfa: sp 64 +
STACK CFI 4dfa8 .cfa: sp 0 +
STACK CFI 4dfac .cfa: x29 64 +
STACK CFI 4e090 .cfa: sp 64 +
STACK CFI 4e0a0 .cfa: sp 0 +
STACK CFI 4e0a4 .cfa: x29 64 +
STACK CFI 4e0a8 .cfa: sp 64 +
STACK CFI 4e0b8 .cfa: sp 0 +
STACK CFI 4e0bc .cfa: x29 64 +
STACK CFI INIT 4e298 7c .cfa: sp 0 +
STACK CFI 4e29c .cfa: sp 48 +
STACK CFI 4e2a8 .cfa: x29 48 + x19: .cfa -8 + ^ x20: .cfa -16 + ^ x21: .cfa -32 + ^ .ra: .cfa -40 + ^ x29: .cfa -48 + ^
STACK CFI 4e2f4 .cfa: sp 48 +
STACK CFI 4e300 .cfa: sp 0 +
STACK CFI 4e304 .cfa: sp 48 +
STACK CFI 4e310 .cfa: sp 0 +
STACK CFI INIT 4e314 ac .cfa: sp 0 +
STACK CFI 4e318 .cfa: sp 48 +
STACK CFI 4e324 .cfa: x29 48 + x19: .cfa -8 + ^ x20: .cfa -16 + ^ x21: .cfa -24 + ^ x22: .cfa -32 + ^ .ra: .cfa -40 + ^ x29: .cfa -48 + ^
STACK CFI 4e344 .cfa: sp 48 +
STACK CFI 4e350 .cfa: sp 0 +
STACK CFI 4e354 .cfa: x29 48 +
STACK CFI 4e3a0 .cfa: sp 48 +
STACK CFI 4e3ac .cfa: sp 0 +
STACK CFI 4e3b0 .cfa: sp 48 +
STACK CFI 4e3bc .cfa: sp 0 +
STACK CFI INIT 4e3c0 154 .cfa: sp 0 +
STACK CFI 4e3c4 .cfa: sp 48 +
STACK CFI 4e3d0 .cfa: x29 48 + x19: .cfa -8 + ^ x20: .cfa -16 + ^ x21: .cfa -24 + ^ x22: .cfa -32 + ^ .ra: .cfa -40 + ^ x29: .cfa -48 + ^
STACK CFI 4e4f4 .cfa: sp 48 +
STACK CFI 4e500 .cfa: sp 0 +
STACK CFI 4e504 .cfa: sp 48 +
STACK CFI 4e510 .cfa: sp 0 +
STACK CFI INIT 4e514 24 .cfa: sp 0 +
STACK CFI 4e518 .cfa: sp 32 +
STACK CFI 4e520 .cfa: x29 32 + x19: .cfa -16 + ^ .ra: .cfa -24 + ^ x29: .cfa -32 + ^
STACK CFI 4e52c .cfa: sp 32 +
STACK CFI 4e534 .cfa: sp 0 +
STACK CFI INIT 4f16c 44 .cfa: sp 0 +
STACK CFI 4f170 .cfa: sp 32 +
STACK CFI 4f178 .cfa: x29 32 + x19: .cfa -16 + ^ .ra: .cfa -24 + ^ x29: .cfa -32 + ^
STACK CFI 4f194 .cfa: sp 32 +
STACK CFI 4f19c .cfa: sp 0 +
STACK CFI 4f1a0 .cfa: x29 32 +
STACK CFI 4f1a4 .cfa: sp 32 +
STACK CFI 4f1ac .cfa: sp 0 +
STACK CFI INIT 4f1b0 ac .cfa: sp 0 +
STACK CFI 4f1b4 .cfa: sp 64 +
STACK CFI 4f1c4 .cfa: x29 64 + x19: .cfa -8 + ^ x20: .cfa -16 + ^ x21: .cfa -24 + ^ x22: .cfa -32 + ^ x23: .cfa -48 + ^ .ra: .cfa -56 + ^ x29: .cfa -64 + ^
STACK CFI 4f240 .cfa: sp 64 +
STACK CFI 4f250 .cfa: sp 0 +
STACK CFI 4f254 .cfa: x29 64 +
STACK CFI INIT 4f25c 13c .cfa: sp 0 +
STACK CFI 4f260 .cfa: sp 64 +
STACK CFI 4f270 .cfa: x29 64 + x19: .cfa -8 + ^ x20: .cfa -16 + ^ x21: .cfa -24 + ^ x22: .cfa -32 + ^ x23: .cfa -40 + ^ x24: .cfa -48 + ^ .ra: .cfa -56 + ^ x29: .cfa -64 + ^
STACK CFI 4f350 .cfa: sp 64 +
STACK CFI 4f360 .cfa: sp 0 +
STACK CFI 4f364 .cfa: x29 64 +
STACK CFI INIT 4f56c 14 .cfa: sp 0 +
STACK CFI 4f570 .cfa: sp 16 +
STACK CFI 4f574 .cfa: x29 16 + .ra: .cfa -8 + ^ x29: .cfa -16 + ^
STACK CFI INIT 4f5cc 310 .cfa: sp 0 +
STACK CFI 4f5d0 .cfa: sp 80 +
STACK CFI 4f5e4 .cfa: x29 80 + x19: .cfa -8 + ^ x20: .cfa -16 + ^ x21: .cfa -24 + ^ x22: .cfa -32 + ^ x23: .cfa -40 + ^ x24: .cfa -48 + ^ x25: .cfa -64 + ^ .ra: .cfa -72 + ^ x29: .cfa -80 + ^
STACK CFI 4f6cc .cfa: sp 80 +
STACK CFI 4f6e0 .cfa: sp 0 +
STACK CFI 4f6e4 .cfa: x29 80 +
STACK CFI 4f738 .cfa: sp 80 +
STACK CFI 4f74c .cfa: sp 0 +
STACK CFI 4f750 .cfa: x29 80 +
STACK CFI 4f8bc .cfa: sp 80 +
STACK CFI 4f8d0 .cfa: sp 0 +
STACK CFI 4f8d4 .cfa: x29 80 +
STACK CFI INIT 4f8dc 4c4 .cfa: sp 0 +
STACK CFI 4f8e0 .cfa: sp 32 +
STACK CFI 4f8e8 .cfa: x29 32 + x19: .cfa -16 + ^ .ra: .cfa -24 + ^ x29: .cfa -32 + ^
STACK CFI 4f93c .cfa: sp 32 +
STACK CFI 4f944 .cfa: sp 0 +
STACK CFI 4f948 .cfa: x29 32 +
STACK CFI 4f988 .cfa: sp 32 +
STACK CFI 4f990 .cfa: sp 0 +
STACK CFI 4f994 .cfa: x29 32 +
STACK CFI 4f9c4 .cfa: sp 32 +
STACK CFI 4f9cc .cfa: sp 0 +
STACK CFI 4f9d0 .cfa: x29 32 +
STACK CFI 4fa00 .cfa: sp 32 +
STACK CFI 4fa08 .cfa: sp 0 +
STACK CFI 4fa0c .cfa: x29 32 +
STACK CFI 4fa1c .cfa: sp 32 +
STACK CFI 4fa24 .cfa: sp 0 +
STACK CFI 4fa28 .cfa: x29 32 +
STACK CFI 4fa48 .cfa: sp 32 +
STACK CFI 4fa50 .cfa: sp 0 +
STACK CFI 4fa54 .cfa: x29 32 +
STACK CFI 4fa74 .cfa: sp 32 +
STACK CFI 4fa7c .cfa: sp 0 +
STACK CFI 4fa80 .cfa: x29 32 +
STACK CFI 4faa0 .cfa: sp 32 +
STACK CFI 4faa8 .cfa: sp 0 +
STACK CFI 4faac .cfa: x29 32 +
STACK CFI 4facc .cfa: sp 32 +
STACK CFI 4fad4 .cfa: sp 0 +
STACK CFI 4fad8 .cfa: x29 32 +
STACK CFI 4fb5c .cfa: sp 32 +
STACK CFI 4fb64 .cfa: sp 0 +
STACK CFI 4fb68 .cfa: x29 32 +
STACK CFI 4fb78 .cfa: sp 32 +
STACK CFI 4fb80 .cfa: sp 0 +
STACK CFI 4fb84 .cfa: x29 32 +
STACK CFI 4fb94 .cfa: sp 32 +
STACK CFI 4fb9c .cfa: sp 0 +
STACK CFI 4fba0 .cfa: x29 32 +
STACK CFI 4fbb0 .cfa: sp 32 +
STACK CFI 4fbb8 .cfa: sp 0 +
STACK CFI 4fbbc .cfa: x29 32 +
STACK CFI 4fbcc .cfa: sp 32 +
STACK CFI 4fbd4 .cfa: sp 0 +
STACK CFI 4fbd8 .cfa: x29 32 +
STACK CFI 4fbe8 .cfa: sp 32 +
STACK CFI 4fbf0 .cfa: sp 0 +
STACK CFI 4fbf4 .cfa: x29 32 +
STACK CFI 4fc04 .cfa: sp 32 +
STACK CFI 4fc0c .cfa: sp 0 +
STACK CFI 4fc10 .cfa: x29 32 +
STACK CFI 4fc20 .cfa: sp 32 +
STACK CFI 4fc28 .cfa: sp 0 +
STACK CFI 4fc2c .cfa: x29 32 +
STACK CFI 4fc50 .cfa: sp 32 +
STACK CFI 4fc58 .cfa: sp 0 +
STACK CFI 4fc5c .cfa: x29 32 +
STACK CFI 4fc74 .cfa: sp 32 +
STACK CFI 4fc7c .cfa: sp 0 +
STACK CFI 4fc80 .cfa: x29 32 +
STACK CFI 4fc98 .cfa: sp 32 +
STACK CFI 4fca0 .cfa: sp 0 +
STACK CFI 4fca4 .cfa: x29 32 +
STACK CFI 4fcbc .cfa: sp 32 +
STACK CFI 4fcc4 .cfa: sp 0 +
STACK CFI 4fcc8 .cfa: x29 32 +
STACK CFI 4fce0 .cfa: sp 32 +
STACK CFI 4fce8 .cfa: sp 0 +
STACK CFI 4fcec .cfa: x29 32 +
STACK CFI 4fd04 .cfa: sp 32 +
STACK CFI 4fd0c .cfa: sp 0 +
STACK CFI 4fd10 .cfa: x29 32 +
STACK CFI 4fd28 .cfa: sp 32 +
STACK CFI 4fd30 .cfa: sp 0 +
STACK CFI 4fd34 .cfa: x29 32 +
STACK CFI 4fd4c .cfa: sp 32 +
STACK CFI 4fd54 .cfa: sp 0 +
STACK CFI 4fd58 .cfa: x29 32 +
STACK CFI 4fd70 .cfa: sp 32 +
STACK CFI 4fd78 .cfa: sp 0 +
STACK CFI 4fd7c .cfa: x29 32 +
STACK CFI 4fd90 .cfa: sp 32 +
STACK CFI 4fd98 .cfa: sp 0 +
STACK CFI 4fd9c .cfa: x29 32 +
STACK CFI INIT 4fda0 218 .cfa: sp 0 +
STACK CFI 4fda4 .cfa: sp 80 +
STACK CFI 4fdb8 .cfa: x29 80 + x19: .cfa -8 + ^ x20: .cfa -16 + ^ x21: .cfa -24 + ^ x22: .cfa -32 + ^ x23: .cfa -40 + ^ x24: .cfa -48 + ^ x25: .cfa -64 + ^ .ra: .cfa -72 + ^ x29: .cfa -80 + ^
STACK CFI 4fef4 .cfa: sp 80 +
STACK CFI 4ff08 .cfa: sp 0 +
STACK CFI 4ff0c .cfa: x29 80 +
STACK CFI 4ff98 .cfa: sp 80 +
STACK CFI 4ffac .cfa: sp 0 +
STACK CFI 4ffb0 .cfa: x29 80 +
STACK CFI INIT 5047c 68 .cfa: sp 0 +
STACK CFI 50480 .cfa: sp 32 +
STACK CFI 50488 .cfa: x29 32 + x19: .cfa -8 + ^ x20: .cfa -16 + ^ .ra: .cfa -24 + ^ x29: .cfa -32 + ^
STACK CFI 504a0 .cfa: sp 32 +
STACK CFI 504a8 .cfa: sp 0 +
STACK CFI 504ac .cfa: x29 32 +
STACK CFI 504d8 .cfa: sp 32 +
STACK CFI 504e0 .cfa: sp 0 +
STACK CFI INIT 504e4 14 .cfa: sp 0 +
STACK CFI 504e8 .cfa: sp 16 +
STACK CFI 504ec .cfa: x29 16 + .ra: .cfa -8 + ^ x29: .cfa -16 + ^
STACK CFI INIT 50754 1a8 .cfa: sp 0 +
STACK CFI 50758 .cfa: sp 64 +
STACK CFI 50768 .cfa: x29 64 + x19: .cfa -8 + ^ x20: .cfa -16 + ^ x21: .cfa -24 + ^ x22: .cfa -32 + ^ x23: .cfa -40 + ^ x24: .cfa -48 + ^ .ra: .cfa -56 + ^ x29: .cfa -64 + ^
STACK CFI 508e0 .cfa: sp 64 +
STACK CFI 508f0 .cfa: sp 0 +
STACK CFI 508f4 .cfa: x29 64 +
STACK CFI INIT 508fc 14 .cfa: sp 0 +
STACK CFI 50900 .cfa: sp 16 +
STACK CFI 50904 .cfa: x29 16 + .ra: .cfa -8 + ^ x29: .cfa -16 + ^
STACK CFI INIT 50910 14 .cfa: sp 0 +
STACK CFI 50914 .cfa: sp 16 +
STACK CFI 50918 .cfa: x29 16 + .ra: .cfa -8 + ^ x29: .cfa -16 + ^
STACK CFI INIT 50924 48 .cfa: sp 0 +
STACK CFI 50940 .cfa: sp 32 +
STACK CFI 50948 .cfa: x29 32 + x19: .cfa -16 + ^ .ra: .cfa -24 + ^ x29: .cfa -32 + ^
STACK CFI 50960 .cfa: sp 32 +
STACK CFI 50968 .cfa: sp 0 +
STACK CFI INIT 5096c 30 .cfa: sp 0 +
STACK CFI INIT 5099c 48 .cfa: sp 0 +
STACK CFI 509b8 .cfa: sp 32 +
STACK CFI 509c0 .cfa: x29 32 + x19: .cfa -16 + ^ .ra: .cfa -24 + ^ x29: .cfa -32 + ^
STACK CFI 509d8 .cfa: sp 32 +
STACK CFI 509e0 .cfa: sp 0 +
STACK CFI INIT 509e4 38 .cfa: sp 0 +
STACK CFI INIT 50bf4 68 .cfa: sp 0 +
STACK CFI 50bf8 .cfa: sp 32 +
STACK CFI 50c00 .cfa: x29 32 + x19: .cfa -16 + ^ .ra: .cfa -24 + ^ x29: .cfa -32 + ^
STACK CFI 50c50 .cfa: sp 32 +
STACK CFI 50c58 .cfa: sp 0 +
STACK CFI INIT 50c5c 1c4 .cfa: sp 0 +
STACK CFI INIT 50e20 c4 .cfa: sp 0 +
STACK CFI INIT 50ee4 68 .cfa: sp 0 +
STACK CFI 50ee8 .cfa: sp 32 +
STACK CFI 50ef0 .cfa: x29 32 + x19: .cfa -16 + ^ .ra: .cfa -24 + ^ x29: .cfa -32 + ^
STACK CFI 50f40 .cfa: sp 32 +
STACK CFI 50f48 .cfa: sp 0 +
STACK CFI INIT 50f4c 4 .cfa: sp 0 +
STACK CFI INIT 50f50 14 .cfa: sp 0 +
STACK CFI INIT 50f64 6c .cfa: sp 0 +
STACK CFI 50f68 .cfa: sp 32 +
STACK CFI 50f70 .cfa: x29 32 + x19: .cfa -16 + ^ .ra: .cfa -24 + ^ x29: .cfa -32 + ^
STACK CFI 50fb8 .cfa: sp 32 +
STACK CFI 50fc0 .cfa: sp 0 +
STACK CFI 50fc4 .cfa: sp 32 +
STACK CFI 50fcc .cfa: sp 0 +
STACK CFI INIT 50fd0 68 .cfa: sp 0 +
STACK CFI 50fd4 .cfa: sp 32 +
STACK CFI 50fdc .cfa: x29 32 + x19: .cfa -16 + ^ .ra: .cfa -24 + ^ x29: .cfa -32 + ^
STACK CFI 5102c .cfa: sp 32 +
STACK CFI 51034 .cfa: sp 0 +
STACK CFI INIT 51038 c .cfa: sp 0 +
STACK CFI INIT 51044 24 .cfa: sp 0 +
STACK CFI INIT 51068 4 .cfa: sp 0 +
STACK CFI INIT 5106c 4 .cfa: sp 0 +
STACK CFI INIT 51070 14 .cfa: sp 0 +
STACK CFI INIT 510d0 2fc .cfa: sp 0 +
STACK CFI 510d4 .cfa: sp 64 +
STACK CFI 510e4 .cfa: x29 64 + x19: .cfa -8 + ^ x20: .cfa -16 + ^ x21: .cfa -24 + ^ x22: .cfa -32 + ^ x23: .cfa -40 + ^ x24: .cfa -48 + ^ .ra: .cfa -56 + ^ x29: .cfa -64 + ^
STACK CFI 51260 .cfa: sp 64 +
STACK CFI 51270 .cfa: sp 0 +
STACK CFI 51274 .cfa: x29 64 +
STACK CFI 512b8 .cfa: sp 64 +
STACK CFI 512c8 .cfa: sp 0 +
STACK CFI 512cc .cfa: x29 64 +
STACK CFI 5139c .cfa: sp 64 +
STACK CFI 513ac .cfa: sp 0 +
STACK CFI 513b0 .cfa: sp 64 +
STACK CFI 513c0 .cfa: sp 0 +
STACK CFI 513c4 .cfa: x29 64 +
STACK CFI INIT 513cc 270 .cfa: sp 0 +
STACK CFI 513d0 .cfa: sp 32 +
STACK CFI 513d8 .cfa: x29 32 + x19: .cfa -16 + ^ .ra: .cfa -24 + ^ x29: .cfa -32 + ^
STACK CFI 51410 .cfa: sp 32 +
STACK CFI 51418 .cfa: sp 0 +
STACK CFI 5141c .cfa: x29 32 +
STACK CFI 51564 .cfa: sp 32 +
STACK CFI 5156c .cfa: sp 0 +
STACK CFI 51570 .cfa: x29 32 +
STACK CFI 515ac .cfa: sp 32 +
STACK CFI 515b4 .cfa: sp 0 +
STACK CFI 515b8 .cfa: x29 32 +
STACK CFI 5162c .cfa: sp 32 +
STACK CFI 51634 .cfa: sp 0 +
STACK CFI 51638 .cfa: x29 32 +
STACK CFI INIT 5163c 2c .cfa: sp 0 +
STACK CFI INIT 51668 48 .cfa: sp 0 +
STACK CFI 51684 .cfa: sp 32 +
STACK CFI 5168c .cfa: x29 32 + x19: .cfa -16 + ^ .ra: .cfa -24 + ^ x29: .cfa -32 + ^
STACK CFI 516a4 .cfa: sp 32 +
STACK CFI 516ac .cfa: sp 0 +
STACK CFI INIT 516b0 40 .cfa: sp 0 +
STACK CFI INIT 516f0 60 .cfa: sp 0 +
STACK CFI 516f4 .cfa: sp 16 +
STACK CFI 516f8 .cfa: x29 16 + .ra: .cfa -8 + ^ x29: .cfa -16 + ^
STACK CFI 51738 .cfa: sp 16 +
STACK CFI 5173c .cfa: sp 0 +
STACK CFI 51740 .cfa: x29 16 +
STACK CFI 51744 .cfa: sp 16 +
STACK CFI 51748 .cfa: sp 0 +
STACK CFI 5174c .cfa: x29 16 +
STACK CFI INIT 51750 34c .cfa: sp 0 +
STACK CFI 51754 .cfa: sp 80 +
STACK CFI 51768 .cfa: x29 80 + x19: .cfa -8 + ^ x20: .cfa -16 + ^ x21: .cfa -24 + ^ x22: .cfa -32 + ^ x23: .cfa -40 + ^ x24: .cfa -48 + ^ x25: .cfa -64 + ^ .ra: .cfa -72 + ^ x29: .cfa -80 + ^
STACK CFI 51a64 .cfa: sp 80 +
STACK CFI 51a78 .cfa: sp 0 +
STACK CFI 51a7c .cfa: x29 80 +
STACK CFI 51a80 .cfa: sp 80 +
STACK CFI 51a94 .cfa: sp 0 +
STACK CFI 51a98 .cfa: x29 80 +
STACK CFI INIT 51a9c 308 .cfa: sp 0 +
STACK CFI 51aa0 .cfa: sp 80 +
STACK CFI 51ab4 .cfa: x29 80 + x19: .cfa -8 + ^ x20: .cfa -16 + ^ x21: .cfa -24 + ^ x22: .cfa -32 + ^ x23: .cfa -40 + ^ x24: .cfa -48 + ^ x25: .cfa -64 + ^ .ra: .cfa -72 + ^ x29: .cfa -80 + ^
STACK CFI 51d24 .cfa: sp 80 +
STACK CFI 51d38 .cfa: sp 0 +
STACK CFI 51d3c .cfa: x29 80 +
STACK CFI 51d68 .cfa: sp 80 +
STACK CFI 51d7c .cfa: sp 0 +
STACK CFI 51d80 .cfa: x29 80 +
STACK CFI INIT 51da4 2fc .cfa: sp 0 +
STACK CFI 51da8 .cfa: sp 112 +
STACK CFI 51dc4 .cfa: x29 96 + x19: .cfa -8 + ^ x20: .cfa -16 + ^ x21: .cfa -24 + ^ x22: .cfa -32 + ^ x23: .cfa -40 + ^ x24: .cfa -48 + ^ x25: .cfa -56 + ^ x26: .cfa -64 + ^ x27: .cfa -72 + ^ x28: .cfa -80 + ^ .ra: .cfa -88 + ^ x29: .cfa -96 + ^
STACK CFI 52078 .cfa: sp 112 +
STACK CFI 52094 .cfa: sp 0 +
STACK CFI 52098 .cfa: x29 96 +
STACK CFI INIT 5393c 1c8 .cfa: sp 0 +
STACK CFI 53940 .cfa: sp 80 +
STACK CFI 53954 .cfa: x29 80 + x19: .cfa -8 + ^ x20: .cfa -16 + ^ x21: .cfa -24 + ^ x22: .cfa -32 + ^ x23: .cfa -40 + ^ x24: .cfa -48 + ^ x25: .cfa -64 + ^ .ra: .cfa -72 + ^ x29: .cfa -80 + ^
STACK CFI 53ad4 .cfa: sp 80 +
STACK CFI 53ae8 .cfa: sp 0 +
STACK CFI 53aec .cfa: sp 80 +
STACK CFI 53b00 .cfa: sp 0 +
STACK CFI INIT 540dc 188 .cfa: sp 0 +
STACK CFI 540e0 .cfa: sp 80 +
STACK CFI 540f4 .cfa: x29 80 + x19: .cfa -8 + ^ x20: .cfa -16 + ^ x21: .cfa -24 + ^ x22: .cfa -32 + ^ x23: .cfa -40 + ^ x24: .cfa -48 + ^ x25: .cfa -64 + ^ .ra: .cfa -72 + ^ x29: .cfa -80 + ^
STACK CFI 54248 .cfa: sp 80 +
STACK CFI 5425c .cfa: sp 0 +
STACK CFI 54260 .cfa: x29 80 +
STACK CFI INIT 54264 18c .cfa: sp 0 +
STACK CFI 54268 .cfa: sp 64 +
STACK CFI 54278 .cfa: x29 64 + x19: .cfa -8 + ^ x20: .cfa -16 + ^ x21: .cfa -24 + ^ x22: .cfa -32 + ^ x23: .cfa -40 + ^ x24: .cfa -48 + ^ .ra: .cfa -56 + ^ x29: .cfa -64 + ^
STACK CFI 543d8 .cfa: sp 64 +
STACK CFI 543e8 .cfa: sp 0 +
STACK CFI 543ec .cfa: x29 64 +
STACK CFI INIT 543f0 18c .cfa: sp 0 +
STACK CFI 543f4 .cfa: sp 64 +
STACK CFI 54404 .cfa: x29 64 + x19: .cfa -8 + ^ x20: .cfa -16 + ^ x21: .cfa -24 + ^ x22: .cfa -32 + ^ x23: .cfa -40 + ^ x24: .cfa -48 + ^ .ra: .cfa -56 + ^ x29: .cfa -64 + ^
STACK CFI 54564 .cfa: sp 64 +
STACK CFI 54574 .cfa: sp 0 +
STACK CFI 54578 .cfa: x29 64 +
STACK CFI INIT 5457c 14 .cfa: sp 0 +
STACK CFI 54580 .cfa: sp 16 +
STACK CFI 54584 .cfa: x29 16 + .ra: .cfa -8 + ^ x29: .cfa -16 + ^
STACK CFI INIT 54b68 18c .cfa: sp 0 +
STACK CFI 54b6c .cfa: sp 64 +
STACK CFI 54b7c .cfa: x29 64 + x19: .cfa -8 + ^ x20: .cfa -16 + ^ x21: .cfa -24 + ^ x22: .cfa -32 + ^ x23: .cfa -40 + ^ x24: .cfa -48 + ^ .ra: .cfa -56 + ^ x29: .cfa -64 + ^
STACK CFI 54cdc .cfa: sp 64 +
STACK CFI 54cec .cfa: sp 0 +
STACK CFI 54cf0 .cfa: x29 64 +
STACK CFI INIT 54ef0 34 .cfa: sp 0 +
STACK CFI 54ef4 .cfa: sp 16 +
STACK CFI 54ef8 .cfa: x29 16 + .ra: .cfa -8 + ^ x29: .cfa -16 + ^
STACK CFI INIT 54f24 4 .cfa: sp 0 +
STACK CFI INIT 54f28 14 .cfa: sp 0 +
STACK CFI INIT 54f3c 4 .cfa: sp 0 +
STACK CFI INIT 54f40 14 .cfa: sp 0 +
STACK CFI INIT 550a8 34 .cfa: sp 0 +
STACK CFI 550b4 .cfa: sp 32 +
STACK CFI 550bc .cfa: x29 32 + x19: .cfa -16 + ^ .ra: .cfa -24 + ^ x29: .cfa -32 + ^
STACK CFI 550d0 .cfa: sp 32 +
STACK CFI 550d8 .cfa: sp 0 +
STACK CFI INIT 550dc 38 .cfa: sp 0 +
STACK CFI 550e0 .cfa: sp 32 +
STACK CFI 550e8 .cfa: x29 32 + x19: .cfa -16 + ^ .ra: .cfa -24 + ^ x29: .cfa -32 + ^
STACK CFI 55108 .cfa: sp 32 +
STACK CFI 55110 .cfa: sp 0 +
STACK CFI INIT 55114 8c .cfa: sp 0 +
STACK CFI 55118 .cfa: sp 32 +
STACK CFI 55120 .cfa: x29 32 + x19: .cfa -16 + ^ .ra: .cfa -24 + ^ x29: .cfa -32 + ^
STACK CFI 55194 .cfa: sp 32 +
STACK CFI 5519c .cfa: sp 0 +
STACK CFI INIT 5550c 140 .cfa: sp 0 +
STACK CFI 55510 .cfa: sp 80 +
STACK CFI 5551c .cfa: x29 32 + x19: .cfa -16 + ^ .ra: .cfa -24 + ^ x29: .cfa -32 + ^
STACK CFI 555a4 .cfa: sp 80 +
STACK CFI 555b0 .cfa: sp 0 +
STACK CFI 555b4 .cfa: x29 32 +
STACK CFI 55610 .cfa: sp 80 +
STACK CFI 5561c .cfa: sp 0 +
STACK CFI 55620 .cfa: x29 32 +
STACK CFI 55638 .cfa: sp 80 +
STACK CFI 55644 .cfa: sp 0 +
STACK CFI 55648 .cfa: x29 32 +
STACK CFI INIT 55718 50 .cfa: sp 0 +
STACK CFI 5571c .cfa: sp 32 +
STACK CFI 55724 .cfa: x29 32 + x19: .cfa -8 + ^ x20: .cfa -16 + ^ .ra: .cfa -24 + ^ x29: .cfa -32 + ^
STACK CFI 55750 .cfa: sp 32 +
STACK CFI 55758 .cfa: sp 0 +
STACK CFI 5575c .cfa: sp 32 +
STACK CFI 55764 .cfa: sp 0 +
STACK CFI INIT 55768 18 .cfa: sp 0 +
STACK CFI INIT 55780 c4 .cfa: sp 0 +
STACK CFI INIT 55844 8 .cfa: sp 0 +
STACK CFI INIT 55cbc 1c .cfa: sp 0 +
STACK CFI INIT 56044 50 .cfa: sp 0 +
STACK CFI 56048 .cfa: sp 32 +
STACK CFI 56050 .cfa: x29 32 + x19: .cfa -16 + ^ .ra: .cfa -24 + ^ x29: .cfa -32 + ^
STACK CFI 56068 .cfa: sp 32 +
STACK CFI 56070 .cfa: sp 0 +
STACK CFI 56074 .cfa: x29 32 +
STACK CFI 56088 .cfa: sp 32 +
STACK CFI 56090 .cfa: sp 0 +
STACK CFI INIT 56108 4 .cfa: sp 0 +
STACK CFI INIT 56394 80 .cfa: sp 0 +
STACK CFI 56398 .cfa: sp 48 +
STACK CFI 563a4 .cfa: x29 48 + x19: .cfa -8 + ^ x20: .cfa -16 + ^ x21: .cfa -32 + ^ .ra: .cfa -40 + ^ x29: .cfa -48 + ^
STACK CFI 56404 .cfa: sp 48 +
STACK CFI 56410 .cfa: sp 0 +
STACK CFI INIT 56414 24 .cfa: sp 0 +
STACK CFI 56418 .cfa: sp 32 +
STACK CFI 56420 .cfa: x29 32 + x19: .cfa -16 + ^ .ra: .cfa -24 + ^ x29: .cfa -32 + ^
STACK CFI 5642c .cfa: sp 32 +
STACK CFI 56434 .cfa: sp 0 +
STACK CFI INIT 56938 148 .cfa: sp 0 +
STACK CFI 5693c .cfa: sp 48 +
STACK CFI 56948 .cfa: x29 48 + x19: .cfa -8 + ^ x20: .cfa -16 + ^ x21: .cfa -32 + ^ .ra: .cfa -40 + ^ x29: .cfa -48 + ^
STACK CFI 56a70 .cfa: sp 48 +
STACK CFI 56a7c .cfa: sp 0 +
STACK CFI INIT 56a80 88 .cfa: sp 0 +
STACK CFI 56a88 .cfa: sp 48 +
STACK CFI 56a94 .cfa: x29 48 + x19: .cfa -8 + ^ x20: .cfa -16 + ^ x21: .cfa -24 + ^ x22: .cfa -32 + ^ .ra: .cfa -40 + ^ x29: .cfa -48 + ^
STACK CFI 56af8 .cfa: sp 48 +
STACK CFI 56b04 .cfa: sp 0 +
STACK CFI INIT 56b08 4 .cfa: sp 0 +
STACK CFI INIT 56b0c 14 .cfa: sp 0 +
STACK CFI INIT 56b20 128 .cfa: sp 0 +
STACK CFI 56b24 .cfa: sp 64 +
STACK CFI 56b34 .cfa: x29 64 + x19: .cfa -8 + ^ x20: .cfa -16 + ^ x21: .cfa -24 + ^ x22: .cfa -32 + ^ x23: .cfa -40 + ^ x24: .cfa -48 + ^ .ra: .cfa -56 + ^ x29: .cfa -64 + ^
STACK CFI 56c34 .cfa: sp 64 +
STACK CFI 56c44 .cfa: sp 0 +
STACK CFI INIT 56c48 d4 .cfa: sp 0 +
STACK CFI 56c4c .cfa: sp 48 +
STACK CFI 56c58 .cfa: x29 48 + x19: .cfa -8 + ^ x20: .cfa -16 + ^ x21: .cfa -32 + ^ .ra: .cfa -40 + ^ x29: .cfa -48 + ^
STACK CFI 56ce8 .cfa: sp 48 +
STACK CFI 56cf4 .cfa: sp 0 +
STACK CFI 56cf8 .cfa: x29 48 +
STACK CFI INIT 56d1c 3c8 .cfa: sp 0 +
STACK CFI INIT 570e4 8c .cfa: sp 0 +
STACK CFI 570ec .cfa: sp 32 +
STACK CFI 570f4 .cfa: x29 32 + x19: .cfa -8 + ^ x20: .cfa -16 + ^ .ra: .cfa -24 + ^ x29: .cfa -32 + ^
STACK CFI 5713c .cfa: sp 32 +
STACK CFI 57144 .cfa: sp 0 +
STACK CFI 5714c .cfa: x29 32 +
STACK CFI INIT 57170 28 .cfa: sp 0 +
STACK CFI 57174 .cfa: sp 32 +
STACK CFI 5717c .cfa: x29 16 + .ra: .cfa -8 + ^ x29: .cfa -16 + ^ v8: .cfa -32 + ^
STACK CFI 5718c .cfa: sp 32 +
STACK CFI 57194 .cfa: sp 0 +
STACK CFI INIT 57270 50 .cfa: sp 0 +
STACK CFI 57274 .cfa: sp 32 +
STACK CFI 5727c .cfa: x29 32 + x19: .cfa -16 + ^ .ra: .cfa -24 + ^ x29: .cfa -32 + ^
STACK CFI 57294 .cfa: sp 32 +
STACK CFI 5729c .cfa: sp 0 +
STACK CFI 572a0 .cfa: x29 32 +
STACK CFI 572b4 .cfa: sp 32 +
STACK CFI 572bc .cfa: sp 0 +
STACK CFI INIT 572c0 64 .cfa: sp 0 +
STACK CFI 572c4 .cfa: sp 32 +
STACK CFI 572cc .cfa: x29 32 + x19: .cfa -16 + ^ .ra: .cfa -24 + ^ x29: .cfa -32 + ^
STACK CFI 572f8 .cfa: sp 32 +
STACK CFI 57300 .cfa: sp 0 +
STACK CFI 57304 .cfa: x29 32 +
STACK CFI 57318 .cfa: sp 32 +
STACK CFI 57320 .cfa: sp 0 +
STACK CFI INIT 57324 178 .cfa: sp 0 +
STACK CFI 57328 .cfa: sp 80 +
STACK CFI 5733c .cfa: x29 80 + x19: .cfa -8 + ^ x20: .cfa -16 + ^ x21: .cfa -24 + ^ x22: .cfa -32 + ^ x23: .cfa -40 + ^ x24: .cfa -48 + ^ x25: .cfa -56 + ^ x26: .cfa -64 + ^ .ra: .cfa -72 + ^ x29: .cfa -80 + ^
STACK CFI 57484 .cfa: sp 80 +
STACK CFI 57498 .cfa: sp 0 +
STACK CFI INIT 57e94 1c .cfa: sp 0 +
STACK CFI INIT 587f8 4 .cfa: sp 0 +
STACK CFI INIT 5890c 7c .cfa: sp 0 +
STACK CFI 58910 .cfa: sp 32 +
STACK CFI 58918 .cfa: x29 32 + x19: .cfa -8 + ^ x20: .cfa -16 + ^ .ra: .cfa -24 + ^ x29: .cfa -32 + ^
STACK CFI 58970 .cfa: sp 32 +
STACK CFI 58978 .cfa: sp 0 +
STACK CFI 5897c .cfa: sp 32 +
STACK CFI 58984 .cfa: sp 0 +
STACK CFI INIT 58af0 4 .cfa: sp 0 +
STACK CFI INIT 58af4 4 .cfa: sp 0 +
STACK CFI INIT 58af8 38 .cfa: sp 0 +
STACK CFI 58afc .cfa: sp 32 +
STACK CFI 58b04 .cfa: x29 32 + x19: .cfa -16 + ^ .ra: .cfa -24 + ^ x29: .cfa -32 + ^
STACK CFI 58b24 .cfa: sp 32 +
STACK CFI 58b2c .cfa: sp 0 +
STACK CFI INIT 58b30 18 .cfa: sp 0 +
STACK CFI INIT 58b48 4 .cfa: sp 0 +
STACK CFI INIT 58b4c 4 .cfa: sp 0 +
STACK CFI INIT 58b50 8 .cfa: sp 0 +
STACK CFI INIT 58b58 1c .cfa: sp 0 +
STACK CFI INIT 58b74 c .cfa: sp 0 +
STACK CFI INIT 58b80 4 .cfa: sp 0 +
STACK CFI INIT 58cf8 5c .cfa: sp 0 +
STACK CFI 58cfc .cfa: sp 32 +
STACK CFI 58d04 .cfa: x29 32 + x19: .cfa -16 + ^ .ra: .cfa -24 + ^ x29: .cfa -32 + ^
STACK CFI 58d48 .cfa: sp 32 +
STACK CFI 58d50 .cfa: sp 0 +
STACK CFI INIT 58d54 64 .cfa: sp 0 +
STACK CFI 58d58 .cfa: sp 32 +
STACK CFI 58d60 .cfa: x29 32 + x19: .cfa -16 + ^ .ra: .cfa -24 + ^ x29: .cfa -32 + ^
STACK CFI 58dac .cfa: sp 32 +
STACK CFI 58db4 .cfa: sp 0 +
STACK CFI INIT 58db8 4 .cfa: sp 0 +
STACK CFI INIT 58dbc 14 .cfa: sp 0 +
STACK CFI INIT 5912c d0 .cfa: sp 0 +
STACK CFI 59130 .cfa: sp 80 +
STACK CFI 59140 .cfa: x29 48 + x19: .cfa -8 + ^ x20: .cfa -16 + ^ x21: .cfa -24 + ^ x22: .cfa -32 + ^ .ra: .cfa -40 + ^ x29: .cfa -48 + ^
STACK CFI 591c0 .cfa: sp 80 +
STACK CFI 591d0 .cfa: sp 0 +
STACK CFI 591d4 .cfa: x29 48 +
STACK CFI INIT 591fc d0 .cfa: sp 0 +
STACK CFI 59200 .cfa: sp 80 +
STACK CFI 59210 .cfa: x29 48 + x19: .cfa -8 + ^ x20: .cfa -16 + ^ x21: .cfa -24 + ^ x22: .cfa -32 + ^ .ra: .cfa -40 + ^ x29: .cfa -48 + ^
STACK CFI 59290 .cfa: sp 80 +
STACK CFI 592a0 .cfa: sp 0 +
STACK CFI 592a4 .cfa: x29 48 +
STACK CFI INIT 592cc d0 .cfa: sp 0 +
STACK CFI 592d0 .cfa: sp 80 +
STACK CFI 592e0 .cfa: x29 48 + x19: .cfa -8 + ^ x20: .cfa -16 + ^ x21: .cfa -24 + ^ x22: .cfa -32 + ^ .ra: .cfa -40 + ^ x29: .cfa -48 + ^
STACK CFI 59360 .cfa: sp 80 +
STACK CFI 59370 .cfa: sp 0 +
STACK CFI 59374 .cfa: x29 48 +
STACK CFI INIT 59df4 98 .cfa: sp 0 +
STACK CFI 59df8 .cfa: sp 304 +
STACK CFI 59e04 .cfa: x29 32 + x19: .cfa -8 + ^ x28: .cfa -16 + ^ .ra: .cfa -24 + ^ x29: .cfa -32 + ^
STACK CFI 59e78 .cfa: sp 304 +
STACK CFI 59e84 .cfa: sp 0 +
STACK CFI 59e88 .cfa: x29 32 +
STACK CFI INIT 5a2fc 1c .cfa: sp 0 +
STACK CFI INIT 5a318 50 .cfa: sp 0 +
STACK CFI 5a31c .cfa: sp 32 +
STACK CFI 5a324 .cfa: x29 32 + x19: .cfa -16 + ^ .ra: .cfa -24 + ^ x29: .cfa -32 + ^
STACK CFI 5a33c .cfa: sp 32 +
STACK CFI 5a344 .cfa: sp 0 +
STACK CFI 5a348 .cfa: x29 32 +
STACK CFI 5a35c .cfa: sp 32 +
STACK CFI 5a364 .cfa: sp 0 +
STACK CFI INIT 5a368 14 .cfa: sp 0 +
STACK CFI 5a36c .cfa: sp 16 +
STACK CFI 5a370 .cfa: x29 16 + .ra: .cfa -8 + ^ x29: .cfa -16 + ^
STACK CFI INIT 5a37c 14 .cfa: sp 0 +
STACK CFI 5a380 .cfa: sp 16 +
STACK CFI 5a384 .cfa: x29 16 + .ra: .cfa -8 + ^ x29: .cfa -16 + ^
STACK CFI INIT 5a390 14 .cfa: sp 0 +
STACK CFI 5a394 .cfa: sp 16 +
STACK CFI 5a398 .cfa: x29 16 + .ra: .cfa -8 + ^ x29: .cfa -16 + ^
STACK CFI INIT 5a3a4 14 .cfa: sp 0 +
STACK CFI 5a3a8 .cfa: sp 16 +
STACK CFI 5a3ac .cfa: x29 16 + .ra: .cfa -8 + ^ x29: .cfa -16 + ^
STACK CFI INIT 5a3b8 4 .cfa: sp 0 +
STACK CFI INIT 5a3bc 4 .cfa: sp 0 +
STACK CFI INIT 5a3c0 38 .cfa: sp 0 +
STACK CFI 5a3c4 .cfa: sp 32 +
STACK CFI 5a3cc .cfa: x29 32 + x19: .cfa -16 + ^ .ra: .cfa -24 + ^ x29: .cfa -32 + ^
STACK CFI 5a3ec .cfa: sp 32 +
STACK CFI 5a3f4 .cfa: sp 0 +
STACK CFI INIT 5a3f8 18 .cfa: sp 0 +
STACK CFI INIT 5a410 4 .cfa: sp 0 +
STACK CFI INIT 5a414 4 .cfa: sp 0 +
STACK CFI INIT 5a418 10 .cfa: sp 0 +
STACK CFI INIT 5a428 1c .cfa: sp 0 +
STACK CFI INIT 5a444 c .cfa: sp 0 +
STACK CFI INIT 5aab4 4 .cfa: sp 0 +
STACK CFI INIT 5b294 4 .cfa: sp 0 +
STACK CFI INIT 5b40c 6c .cfa: sp 0 +
STACK CFI 5b410 .cfa: sp 32 +
STACK CFI 5b418 .cfa: x29 32 + x19: .cfa -16 + ^ .ra: .cfa -24 + ^ x29: .cfa -32 + ^
STACK CFI 5b46c .cfa: sp 32 +
STACK CFI 5b474 .cfa: sp 0 +
STACK CFI INIT 5b478 74 .cfa: sp 0 +
STACK CFI 5b47c .cfa: sp 32 +
STACK CFI 5b484 .cfa: x29 32 + x19: .cfa -16 + ^ .ra: .cfa -24 + ^ x29: .cfa -32 + ^
STACK CFI 5b4e0 .cfa: sp 32 +
STACK CFI 5b4e8 .cfa: sp 0 +
STACK CFI INIT 5b4ec 4 .cfa: sp 0 +
STACK CFI INIT 5b4f0 24 .cfa: sp 0 +
STACK CFI 5b4f4 .cfa: sp 16 +
STACK CFI 5b4f8 .cfa: x29 16 + .ra: .cfa -8 + ^ x29: .cfa -16 + ^
STACK CFI 5b50c .cfa: sp 16 +
STACK CFI 5b510 .cfa: sp 0 +
STACK CFI INIT 5b514 10 .cfa: sp 0 +
STACK CFI INIT 5b524 4 .cfa: sp 0 +
STACK CFI INIT 5b528 4 .cfa: sp 0 +
STACK CFI INIT 5b52c c0 .cfa: sp 0 +
STACK CFI 5b530 .cfa: sp 64 +
STACK CFI 5b53c .cfa: x29 32 + x19: .cfa -8 + ^ x20: .cfa -16 + ^ .ra: .cfa -24 + ^ x29: .cfa -32 + ^
STACK CFI 5b5b4 .cfa: sp 64 +
STACK CFI 5b5c0 .cfa: sp 0 +
STACK CFI 5b5c4 .cfa: x29 32 +
STACK CFI INIT 5b5ec 1c .cfa: sp 0 +
STACK CFI INIT 5b608 c .cfa: sp 0 +
STACK CFI INIT 5b614 4 .cfa: sp 0 +
STACK CFI INIT 5b618 24 .cfa: sp 0 +
STACK CFI 5b61c .cfa: sp 16 +
STACK CFI 5b620 .cfa: x29 16 + .ra: .cfa -8 + ^ x29: .cfa -16 + ^
STACK CFI 5b634 .cfa: sp 16 +
STACK CFI 5b638 .cfa: sp 0 +
STACK CFI INIT 5b63c 10 .cfa: sp 0 +
STACK CFI INIT 5b64c 4 .cfa: sp 0 +
STACK CFI INIT 5b650 4 .cfa: sp 0 +
STACK CFI INIT 5b654 c0 .cfa: sp 0 +
STACK CFI 5b658 .cfa: sp 64 +
STACK CFI 5b664 .cfa: x29 32 + x19: .cfa -8 + ^ x20: .cfa -16 + ^ .ra: .cfa -24 + ^ x29: .cfa -32 + ^
STACK CFI 5b6dc .cfa: sp 64 +
STACK CFI 5b6e8 .cfa: sp 0 +
STACK CFI 5b6ec .cfa: x29 32 +
STACK CFI INIT 5b714 1c .cfa: sp 0 +
STACK CFI INIT 5b730 c .cfa: sp 0 +
STACK CFI INIT 5b73c 4 .cfa: sp 0 +
STACK CFI INIT 5b740 4 .cfa: sp 0 +
STACK CFI INIT 5b744 24 .cfa: sp 0 +
STACK CFI 5b748 .cfa: sp 16 +
STACK CFI 5b74c .cfa: x29 16 + .ra: .cfa -8 + ^ x29: .cfa -16 + ^
STACK CFI 5b760 .cfa: sp 16 +
STACK CFI 5b764 .cfa: sp 0 +
STACK CFI INIT 5b768 10 .cfa: sp 0 +
STACK CFI INIT 5b778 4 .cfa: sp 0 +
STACK CFI INIT 5b77c 4 .cfa: sp 0 +
STACK CFI INIT 5b780 c0 .cfa: sp 0 +
STACK CFI 5b784 .cfa: sp 64 +
STACK CFI 5b790 .cfa: x29 32 + x19: .cfa -8 + ^ x20: .cfa -16 + ^ .ra: .cfa -24 + ^ x29: .cfa -32 + ^
STACK CFI 5b808 .cfa: sp 64 +
STACK CFI 5b814 .cfa: sp 0 +
STACK CFI 5b818 .cfa: x29 32 +
STACK CFI INIT 5b840 1c .cfa: sp 0 +
STACK CFI INIT 5b85c c .cfa: sp 0 +
STACK CFI INIT 5bcd8 1c .cfa: sp 0 +
STACK CFI INIT 5c044 4 .cfa: sp 0 +
STACK CFI INIT 5c148 4 .cfa: sp 0 +
STACK CFI INIT 5c14c 24 .cfa: sp 0 +
STACK CFI 5c150 .cfa: sp 16 +
STACK CFI 5c154 .cfa: x29 16 + .ra: .cfa -8 + ^ x29: .cfa -16 + ^
STACK CFI 5c168 .cfa: sp 16 +
STACK CFI 5c16c .cfa: sp 0 +
STACK CFI INIT 5c170 10 .cfa: sp 0 +
STACK CFI INIT 5c180 4 .cfa: sp 0 +
STACK CFI INIT 5c184 4 .cfa: sp 0 +
STACK CFI INIT 5c260 1c .cfa: sp 0 +
STACK CFI INIT 5c27c c .cfa: sp 0 +
STACK CFI INIT 5c288 4 .cfa: sp 0 +
STACK CFI INIT 5c28c 24 .cfa: sp 0 +
STACK CFI 5c290 .cfa: sp 16 +
STACK CFI 5c294 .cfa: x29 16 + .ra: .cfa -8 + ^ x29: .cfa -16 + ^
STACK CFI 5c2a8 .cfa: sp 16 +
STACK CFI 5c2ac .cfa: sp 0 +
STACK CFI INIT 5c2b0 10 .cfa: sp 0 +
STACK CFI INIT 5c2c0 4 .cfa: sp 0 +
STACK CFI INIT 5c2c4 4 .cfa: sp 0 +
STACK CFI INIT 5c2c8 14 .cfa: sp 0 +
STACK CFI 5c2cc .cfa: sp 16 +
STACK CFI 5c2d0 .cfa: x29 16 + .ra: .cfa -8 + ^ x29: .cfa -16 + ^
STACK CFI 5c2d4 .cfa: sp 16 +
STACK CFI 5c2d8 .cfa: sp 0 +
STACK CFI INIT 5c2dc 1c .cfa: sp 0 +
STACK CFI INIT 5c2f8 c .cfa: sp 0 +
STACK CFI INIT 5cf44 4 .cfa: sp 0 +
STACK CFI INIT 5cf48 34 .cfa: sp 0 +
STACK CFI 5cf4c .cfa: sp 32 +
STACK CFI 5cf54 .cfa: x29 32 + x19: .cfa -16 + ^ .ra: .cfa -24 + ^ x29: .cfa -32 + ^
STACK CFI 5cf70 .cfa: sp 32 +
STACK CFI 5cf78 .cfa: sp 0 +
STACK CFI INIT 5cf7c 14 .cfa: sp 0 +
STACK CFI INIT 5cf90 4 .cfa: sp 0 +
STACK CFI INIT 5cf94 4 .cfa: sp 0 +
STACK CFI INIT 5cf98 10 .cfa: sp 0 +
STACK CFI INIT 5cfa8 1c .cfa: sp 0 +
STACK CFI INIT 5cfc4 c .cfa: sp 0 +
STACK CFI INIT 5d86c 50 .cfa: sp 0 +
STACK CFI 5d870 .cfa: sp 32 +
STACK CFI 5d878 .cfa: x29 32 + x19: .cfa -16 + ^ .ra: .cfa -24 + ^ x29: .cfa -32 + ^
STACK CFI 5d890 .cfa: sp 32 +
STACK CFI 5d898 .cfa: sp 0 +
STACK CFI 5d89c .cfa: x29 32 +
STACK CFI 5d8b0 .cfa: sp 32 +
STACK CFI 5d8b8 .cfa: sp 0 +
STACK CFI INIT 5d8bc 4 .cfa: sp 0 +
STACK CFI INIT 5d8c0 38 .cfa: sp 0 +
STACK CFI 5d8c4 .cfa: sp 32 +
STACK CFI 5d8cc .cfa: x29 32 + x19: .cfa -16 + ^ .ra: .cfa -24 + ^ x29: .cfa -32 + ^
STACK CFI 5d8ec .cfa: sp 32 +
STACK CFI 5d8f4 .cfa: sp 0 +
STACK CFI INIT 5d8f8 18 .cfa: sp 0 +
STACK CFI INIT 5d910 4 .cfa: sp 0 +
STACK CFI INIT 5d914 4 .cfa: sp 0 +
STACK CFI INIT 5db28 1c .cfa: sp 0 +
STACK CFI INIT 5db44 c .cfa: sp 0 +
STACK CFI INIT 5db50 50 .cfa: sp 0 +
STACK CFI 5db54 .cfa: sp 32 +
STACK CFI 5db5c .cfa: x29 32 + x19: .cfa -16 + ^ .ra: .cfa -24 + ^ x29: .cfa -32 + ^
STACK CFI 5db74 .cfa: sp 32 +
STACK CFI 5db7c .cfa: sp 0 +
STACK CFI 5db80 .cfa: x29 32 +
STACK CFI 5db94 .cfa: sp 32 +
STACK CFI 5db9c .cfa: sp 0 +
STACK CFI INIT 5dba0 50 .cfa: sp 0 +
STACK CFI 5dba4 .cfa: sp 32 +
STACK CFI 5dbac .cfa: x29 32 + x19: .cfa -16 + ^ .ra: .cfa -24 + ^ x29: .cfa -32 + ^
STACK CFI 5dbc4 .cfa: sp 32 +
STACK CFI 5dbcc .cfa: sp 0 +
STACK CFI 5dbd0 .cfa: x29 32 +
STACK CFI 5dbe4 .cfa: sp 32 +
STACK CFI 5dbec .cfa: sp 0 +
STACK CFI INIT 5df10 19c .cfa: sp 0 +
STACK CFI 5df14 .cfa: sp 96 +
STACK CFI 5df2c .cfa: x29 96 + x19: .cfa -8 + ^ x20: .cfa -16 + ^ x21: .cfa -24 + ^ x22: .cfa -32 + ^ x23: .cfa -40 + ^ x24: .cfa -48 + ^ x25: .cfa -56 + ^ x26: .cfa -64 + ^ x27: .cfa -80 + ^ .ra: .cfa -88 + ^ x29: .cfa -96 + ^
STACK CFI 5e090 .cfa: sp 96 +
STACK CFI 5e0a8 .cfa: sp 0 +
STACK CFI INIT 5e0ac c8 .cfa: sp 0 +
STACK CFI 5e0b0 .cfa: sp 64 +
STACK CFI 5e0c0 .cfa: x29 64 + x19: .cfa -8 + ^ x20: .cfa -16 + ^ x21: .cfa -24 + ^ x22: .cfa -32 + ^ x23: .cfa -48 + ^ .ra: .cfa -56 + ^ x29: .cfa -64 + ^
STACK CFI 5e0c8 .cfa: sp 64 +
STACK CFI 5e0d8 .cfa: sp 0 +
STACK CFI 5e0dc .cfa: x29 64 +
STACK CFI 5e100 .cfa: sp 64 +
STACK CFI 5e110 .cfa: sp 0 +
STACK CFI 5e114 .cfa: x29 64 +
STACK CFI 5e160 .cfa: sp 64 +
STACK CFI 5e170 .cfa: sp 0 +
STACK CFI INIT 5e174 4 .cfa: sp 0 +
STACK CFI INIT 5e2ec 9c .cfa: sp 0 +
STACK CFI 5e2f0 .cfa: sp 32 +
STACK CFI 5e2f8 .cfa: x29 32 + x19: .cfa -8 + ^ x20: .cfa -16 + ^ .ra: .cfa -24 + ^ x29: .cfa -32 + ^
STACK CFI 5e37c .cfa: sp 32 +
STACK CFI 5e384 .cfa: sp 0 +
STACK CFI INIT 5e388 a4 .cfa: sp 0 +
STACK CFI 5e38c .cfa: sp 32 +
STACK CFI 5e394 .cfa: x29 32 + x19: .cfa -8 + ^ x20: .cfa -16 + ^ .ra: .cfa -24 + ^ x29: .cfa -32 + ^
STACK CFI 5e420 .cfa: sp 32 +
STACK CFI 5e428 .cfa: sp 0 +
STACK CFI INIT 5e42c 4 .cfa: sp 0 +
STACK CFI INIT 5e430 38 .cfa: sp 0 +
STACK CFI 5e434 .cfa: sp 32 +
STACK CFI 5e43c .cfa: x29 32 + x19: .cfa -16 + ^ .ra: .cfa -24 + ^ x29: .cfa -32 + ^
STACK CFI 5e45c .cfa: sp 32 +
STACK CFI 5e464 .cfa: sp 0 +
STACK CFI INIT 5e468 18 .cfa: sp 0 +
STACK CFI INIT 5e480 4 .cfa: sp 0 +
STACK CFI INIT 5e484 4 .cfa: sp 0 +
STACK CFI INIT 5e624 1c .cfa: sp 0 +
STACK CFI INIT 5e640 c .cfa: sp 0 +
STACK CFI INIT 5e64c 50 .cfa: sp 0 +
STACK CFI 5e650 .cfa: sp 32 +
STACK CFI 5e658 .cfa: x29 32 + x19: .cfa -16 + ^ .ra: .cfa -24 + ^ x29: .cfa -32 + ^
STACK CFI 5e670 .cfa: sp 32 +
STACK CFI 5e678 .cfa: sp 0 +
STACK CFI 5e67c .cfa: x29 32 +
STACK CFI 5e690 .cfa: sp 32 +
STACK CFI 5e698 .cfa: sp 0 +
STACK CFI INIT 5e69c 4 .cfa: sp 0 +
STACK CFI INIT 5e6a0 38 .cfa: sp 0 +
STACK CFI 5e6a4 .cfa: sp 32 +
STACK CFI 5e6ac .cfa: x29 32 + x19: .cfa -16 + ^ .ra: .cfa -24 + ^ x29: .cfa -32 + ^
STACK CFI 5e6cc .cfa: sp 32 +
STACK CFI 5e6d4 .cfa: sp 0 +
STACK CFI INIT 5e6d8 18 .cfa: sp 0 +
STACK CFI INIT 5e6f0 4 .cfa: sp 0 +
STACK CFI INIT 5e6f4 4 .cfa: sp 0 +
STACK CFI INIT 5e894 1c .cfa: sp 0 +
STACK CFI INIT 5e8b0 c .cfa: sp 0 +
STACK CFI INIT 5e8bc 4 .cfa: sp 0 +
STACK CFI INIT 5e8c0 4 .cfa: sp 0 +
STACK CFI INIT 5e8c4 38 .cfa: sp 0 +
STACK CFI 5e8c8 .cfa: sp 32 +
STACK CFI 5e8d0 .cfa: x29 32 + x19: .cfa -16 + ^ .ra: .cfa -24 + ^ x29: .cfa -32 + ^
STACK CFI 5e8f0 .cfa: sp 32 +
STACK CFI 5e8f8 .cfa: sp 0 +
STACK CFI INIT 5e8fc 18 .cfa: sp 0 +
STACK CFI INIT 5e914 4 .cfa: sp 0 +
STACK CFI INIT 5e918 4 .cfa: sp 0 +
STACK CFI INIT 5eab4 1c .cfa: sp 0 +
STACK CFI INIT 5ead0 c .cfa: sp 0 +
STACK CFI INIT 5eadc 4 .cfa: sp 0 +
STACK CFI INIT 5eae0 4 .cfa: sp 0 +
STACK CFI INIT 5eae4 34 .cfa: sp 0 +
STACK CFI 5eae8 .cfa: sp 32 +
STACK CFI 5eaf0 .cfa: x29 32 + x19: .cfa -16 + ^ .ra: .cfa -24 + ^ x29: .cfa -32 + ^
STACK CFI 5eb0c .cfa: sp 32 +
STACK CFI 5eb14 .cfa: sp 0 +
STACK CFI INIT 5eb18 14 .cfa: sp 0 +
STACK CFI INIT 5eb2c 4 .cfa: sp 0 +
STACK CFI INIT 5eb30 4 .cfa: sp 0 +
STACK CFI INIT 5eb34 14 .cfa: sp 0 +
STACK CFI INIT 5eb48 1c .cfa: sp 0 +
STACK CFI INIT 5eb64 c .cfa: sp 0 +
STACK CFI INIT 5ef10 50 .cfa: sp 0 +
STACK CFI 5ef14 .cfa: sp 32 +
STACK CFI 5ef1c .cfa: x29 32 + x19: .cfa -16 + ^ .ra: .cfa -24 + ^ x29: .cfa -32 + ^
STACK CFI 5ef34 .cfa: sp 32 +
STACK CFI 5ef3c .cfa: sp 0 +
STACK CFI 5ef40 .cfa: x29 32 +
STACK CFI 5ef54 .cfa: sp 32 +
STACK CFI 5ef5c .cfa: sp 0 +
STACK CFI INIT 5ef60 14 .cfa: sp 0 +
STACK CFI 5ef64 .cfa: sp 16 +
STACK CFI 5ef68 .cfa: x29 16 + .ra: .cfa -8 + ^ x29: .cfa -16 + ^
STACK CFI 5ef6c .cfa: sp 16 +
STACK CFI 5ef70 .cfa: sp 0 +
STACK CFI INIT 5ef74 4 .cfa: sp 0 +
STACK CFI INIT 5ef78 4 .cfa: sp 0 +
STACK CFI INIT 5ef7c 8 .cfa: sp 0 +
STACK CFI INIT 5ef84 8 .cfa: sp 0 +
STACK CFI INIT 5ef8c 70 .cfa: sp 0 +
STACK CFI 5ef90 .cfa: sp 32 +
STACK CFI 5ef98 .cfa: x29 32 + x19: .cfa -8 + ^ x20: .cfa -16 + ^ .ra: .cfa -24 + ^ x29: .cfa -32 + ^
STACK CFI 5efc8 .cfa: sp 32 +
STACK CFI 5efd0 .cfa: sp 0 +
STACK CFI 5efd4 .cfa: x29 32 +
STACK CFI 5eff0 .cfa: sp 32 +
STACK CFI 5eff8 .cfa: sp 0 +
STACK CFI INIT 5effc 80 .cfa: sp 0 +
STACK CFI 5f000 .cfa: sp 32 +
STACK CFI 5f008 .cfa: x29 32 + x19: .cfa -8 + ^ x20: .cfa -16 + ^ .ra: .cfa -24 + ^ x29: .cfa -32 + ^
STACK CFI 5f040 .cfa: sp 32 +
STACK CFI 5f048 .cfa: sp 0 +
STACK CFI 5f04c .cfa: x29 32 +
STACK CFI 5f070 .cfa: sp 32 +
STACK CFI 5f078 .cfa: sp 0 +
STACK CFI INIT 5f408 8 .cfa: sp 0 +
STACK CFI INIT 5f410 8 .cfa: sp 0 +
STACK CFI INIT 5f418 8 .cfa: sp 0 +
STACK CFI INIT 5f420 4 .cfa: sp 0 +
STACK CFI INIT 5f548 24 .cfa: sp 0 +
STACK CFI 5f54c .cfa: sp 32 +
STACK CFI 5f554 .cfa: x29 32 + x19: .cfa -16 + ^ .ra: .cfa -24 + ^ x29: .cfa -32 + ^
STACK CFI 5f560 .cfa: sp 32 +
STACK CFI 5f568 .cfa: sp 0 +
STACK CFI INIT 5f56c 10 .cfa: sp 0 +
STACK CFI INIT 5f57c 30 .cfa: sp 0 +
STACK CFI 5f580 .cfa: sp 32 +
STACK CFI 5f588 .cfa: x29 32 + x19: .cfa -16 + ^ .ra: .cfa -24 + ^ x29: .cfa -32 + ^
STACK CFI 5f5a0 .cfa: sp 32 +
STACK CFI 5f5a8 .cfa: sp 0 +
STACK CFI INIT 5f5ac c .cfa: sp 0 +
STACK CFI INIT 5f5b8 4 .cfa: sp 0 +
STACK CFI INIT 5f630 34 .cfa: sp 0 +
STACK CFI 5f634 .cfa: sp 16 +
STACK CFI 5f638 .cfa: x29 16 + .ra: .cfa -8 + ^ x29: .cfa -16 + ^
STACK CFI INIT 601b4 6c .cfa: sp 0 +
STACK CFI 601b8 .cfa: sp 32 +
STACK CFI 601c0 .cfa: x29 32 + x19: .cfa -8 + ^ x20: .cfa -16 + ^ .ra: .cfa -24 + ^ x29: .cfa -32 + ^
STACK CFI 601ec .cfa: sp 32 +
STACK CFI 601f4 .cfa: sp 0 +
STACK CFI 601f8 .cfa: x29 32 +
STACK CFI 60214 .cfa: sp 32 +
STACK CFI 6021c .cfa: sp 0 +
STACK CFI INIT 60220 7c .cfa: sp 0 +
STACK CFI 60224 .cfa: sp 32 +
STACK CFI 6022c .cfa: x29 32 + x19: .cfa -8 + ^ x20: .cfa -16 + ^ .ra: .cfa -24 + ^ x29: .cfa -32 + ^
STACK CFI 60260 .cfa: sp 32 +
STACK CFI 60268 .cfa: sp 0 +
STACK CFI 6026c .cfa: x29 32 +
STACK CFI 60290 .cfa: sp 32 +
STACK CFI 60298 .cfa: sp 0 +
STACK CFI INIT 6078c 80 .cfa: sp 0 +
STACK CFI 60790 .cfa: sp 32 +
STACK CFI 60798 .cfa: x29 32 + x19: .cfa -8 + ^ x20: .cfa -16 + ^ .ra: .cfa -24 + ^ x29: .cfa -32 + ^
STACK CFI 60800 .cfa: sp 32 +
STACK CFI 60808 .cfa: sp 0 +
STACK CFI INIT 60b88 24 .cfa: sp 0 +
STACK CFI 60b8c .cfa: sp 32 +
STACK CFI 60b94 .cfa: x29 32 + x19: .cfa -16 + ^ .ra: .cfa -24 + ^ x29: .cfa -32 + ^
STACK CFI 60ba0 .cfa: sp 32 +
STACK CFI 60ba8 .cfa: sp 0 +
STACK CFI INIT 60bac 4 .cfa: sp 0 +
STACK CFI INIT 60bb0 8 .cfa: sp 0 +
STACK CFI INIT 60bb8 4 .cfa: sp 0 +
STACK CFI INIT 60bbc 8 .cfa: sp 0 +
STACK CFI INIT 61048 cc .cfa: sp 0 +
STACK CFI 6104c .cfa: sp 96 +
STACK CFI 61060 .cfa: x29 48 + x19: .cfa -8 + ^ x20: .cfa -16 + ^ x21: .cfa -32 + ^ .ra: .cfa -40 + ^ x29: .cfa -48 + ^ v8: .cfa -56 + ^ v9: .cfa -64 + ^
STACK CFI 610f8 .cfa: sp 96 +
STACK CFI 6110c .cfa: sp 0 +
STACK CFI 61110 .cfa: x29 48 +
STACK CFI INIT 61114 24 .cfa: sp 0 +
STACK CFI 61118 .cfa: sp 32 +
STACK CFI 61120 .cfa: x29 32 + x19: .cfa -16 + ^ .ra: .cfa -24 + ^ x29: .cfa -32 + ^
STACK CFI 6112c .cfa: sp 32 +
STACK CFI 61134 .cfa: sp 0 +
STACK CFI INIT 61258 cc .cfa: sp 0 +
STACK CFI 6125c .cfa: sp 48 +
STACK CFI 61268 .cfa: x29 48 + x19: .cfa -8 + ^ x20: .cfa -16 + ^ x21: .cfa -32 + ^ .ra: .cfa -40 + ^ x29: .cfa -48 + ^
STACK CFI 61300 .cfa: sp 48 +
STACK CFI 6130c .cfa: sp 0 +
STACK CFI 61310 .cfa: x29 48 +
STACK CFI 61314 .cfa: sp 48 +
STACK CFI 61320 .cfa: sp 0 +
STACK CFI INIT 62560 150 .cfa: sp 0 +
STACK CFI 62564 .cfa: sp 64 +
STACK CFI 62570 .cfa: x29 32 + x19: .cfa -8 + ^ x20: .cfa -16 + ^ .ra: .cfa -24 + ^ x29: .cfa -32 + ^
STACK CFI 62638 .cfa: sp 64 +
STACK CFI 62644 .cfa: sp 0 +
STACK CFI 62648 .cfa: x29 32 +
STACK CFI INIT 626b0 38 .cfa: sp 0 +
STACK CFI 626b4 .cfa: sp 32 +
STACK CFI 626bc .cfa: x29 32 + x19: .cfa -8 + ^ x20: .cfa -16 + ^ .ra: .cfa -24 + ^ x29: .cfa -32 + ^
STACK CFI 626dc .cfa: sp 32 +
STACK CFI 626e4 .cfa: sp 0 +
STACK CFI INIT 626e8 44 .cfa: sp 0 +
STACK CFI 626ec .cfa: sp 32 +
STACK CFI 626f4 .cfa: x29 32 + x19: .cfa -16 + ^ .ra: .cfa -24 + ^ x29: .cfa -32 + ^
STACK CFI 62704 .cfa: sp 32 +
STACK CFI 6270c .cfa: sp 0 +
STACK CFI 62710 .cfa: x29 32 +
STACK CFI 62720 .cfa: sp 32 +
STACK CFI 62728 .cfa: sp 0 +
STACK CFI INIT 6272c 14 .cfa: sp 0 +
STACK CFI 62730 .cfa: sp 16 +
STACK CFI 62734 .cfa: x29 16 + .ra: .cfa -8 + ^ x29: .cfa -16 + ^
STACK CFI 62738 .cfa: sp 16 +
STACK CFI 6273c .cfa: sp 0 +
STACK CFI INIT 62740 14 .cfa: sp 0 +
STACK CFI 62744 .cfa: sp 16 +
STACK CFI 62748 .cfa: x29 16 + .ra: .cfa -8 + ^ x29: .cfa -16 + ^
STACK CFI 6274c .cfa: sp 16 +
STACK CFI 62750 .cfa: sp 0 +
STACK CFI INIT 62754 14 .cfa: sp 0 +
STACK CFI 62758 .cfa: sp 16 +
STACK CFI 6275c .cfa: x29 16 + .ra: .cfa -8 + ^ x29: .cfa -16 + ^
STACK CFI 62760 .cfa: sp 16 +
STACK CFI 62764 .cfa: sp 0 +
STACK CFI INIT 62768 14 .cfa: sp 0 +
STACK CFI 6276c .cfa: sp 16 +
STACK CFI 62770 .cfa: x29 16 + .ra: .cfa -8 + ^ x29: .cfa -16 + ^
STACK CFI 62774 .cfa: sp 16 +
STACK CFI 62778 .cfa: sp 0 +
STACK CFI INIT 6277c 14 .cfa: sp 0 +
STACK CFI 62780 .cfa: sp 16 +
STACK CFI 62784 .cfa: x29 16 + .ra: .cfa -8 + ^ x29: .cfa -16 + ^
STACK CFI 62788 .cfa: sp 16 +
STACK CFI 6278c .cfa: sp 0 +
STACK CFI INIT 634d4 c4 .cfa: sp 0 +
STACK CFI 634d8 .cfa: sp 32 +
STACK CFI 634e0 .cfa: x29 32 + x19: .cfa -16 + ^ .ra: .cfa -24 + ^ x29: .cfa -32 + ^
STACK CFI 6351c .cfa: sp 32 +
STACK CFI 63524 .cfa: sp 0 +
STACK CFI 63528 .cfa: x29 32 +
STACK CFI 6358c .cfa: sp 32 +
STACK CFI 63594 .cfa: sp 0 +
STACK CFI INIT 63598 10 .cfa: sp 0 +
STACK CFI INIT 63760 2c .cfa: sp 0 +
STACK CFI 63764 .cfa: sp 32 +
STACK CFI 6376c .cfa: x29 32 + x19: .cfa -16 + ^ .ra: .cfa -24 + ^ x29: .cfa -32 + ^
STACK CFI 63780 .cfa: sp 32 +
STACK CFI 63788 .cfa: sp 0 +
STACK CFI INIT 6378c 28 .cfa: sp 0 +
STACK CFI INIT 637b4 4 .cfa: sp 0 +
STACK CFI INIT 637b8 8 .cfa: sp 0 +
STACK CFI INIT 63ac4 2c .cfa: sp 0 +
STACK CFI INIT 63af0 4 .cfa: sp 0 +
STACK CFI INIT 63af4 4 .cfa: sp 0 +
STACK CFI INIT 63af8 4 .cfa: sp 0 +
STACK CFI INIT 63afc 4 .cfa: sp 0 +
STACK CFI INIT 63b00 4 .cfa: sp 0 +
STACK CFI INIT 63b04 8 .cfa: sp 0 +
STACK CFI INIT 63b78 4 .cfa: sp 0 +
STACK CFI INIT 63be8 4 .cfa: sp 0 +
STACK CFI INIT 63bec 304 .cfa: sp 0 +
STACK CFI 63bf0 .cfa: sp 128 +
STACK CFI 63c08 .cfa: x29 64 + x19: .cfa -8 + ^ x20: .cfa -16 + ^ x21: .cfa -24 + ^ x22: .cfa -32 + ^ x23: .cfa -48 + ^ .ra: .cfa -56 + ^ x29: .cfa -64 + ^ v8: .cfa -72 + ^ v9: .cfa -80 + ^
STACK CFI 63e38 .cfa: sp 128 +
STACK CFI 63e50 .cfa: sp 0 +
STACK CFI 63e54 .cfa: x29 64 +
STACK CFI INIT 63ef0 60 .cfa: sp 0 +
STACK CFI 63ef4 .cfa: sp 32 +
STACK CFI 63efc .cfa: x29 32 + x19: .cfa -8 + ^ x20: .cfa -16 + ^ .ra: .cfa -24 + ^ x29: .cfa -32 + ^
STACK CFI 63f1c .cfa: sp 32 +
STACK CFI 63f24 .cfa: sp 0 +
STACK CFI 63f28 .cfa: x29 32 +
STACK CFI 63f44 .cfa: sp 32 +
STACK CFI 63f4c .cfa: sp 0 +
STACK CFI INIT 63f50 70 .cfa: sp 0 +
STACK CFI 63f54 .cfa: sp 32 +
STACK CFI 63f5c .cfa: x29 32 + x19: .cfa -8 + ^ x20: .cfa -16 + ^ .ra: .cfa -24 + ^ x29: .cfa -32 + ^
STACK CFI 63f84 .cfa: sp 32 +
STACK CFI 63f8c .cfa: sp 0 +
STACK CFI 63f90 .cfa: x29 32 +
STACK CFI 63fb4 .cfa: sp 32 +
STACK CFI 63fbc .cfa: sp 0 +
STACK CFI INIT 63fc0 10 .cfa: sp 0 +
STACK CFI INIT 63fd0 30 .cfa: sp 0 +
STACK CFI 63fd4 .cfa: sp 32 +
STACK CFI 63fdc .cfa: x29 32 + x19: .cfa -16 + ^ .ra: .cfa -24 + ^ x29: .cfa -32 + ^
STACK CFI 63ff4 .cfa: sp 32 +
STACK CFI 63ffc .cfa: sp 0 +
STACK CFI INIT 64000 4 .cfa: sp 0 +
STACK CFI INIT 64004 4 .cfa: sp 0 +
STACK CFI INIT 64008 d4 .cfa: sp 0 +
STACK CFI 6400c .cfa: sp 80 +
STACK CFI 64018 .cfa: x29 32 + x19: .cfa -16 + ^ .ra: .cfa -24 + ^ x29: .cfa -32 + ^
STACK CFI 6409c .cfa: sp 80 +
STACK CFI 640a8 .cfa: sp 0 +
STACK CFI 640ac .cfa: x29 32 +
STACK CFI INIT 6449c 158 .cfa: sp 0 +
STACK CFI 644a0 .cfa: sp 64 +
STACK CFI 644ac .cfa: x29 32 + x19: .cfa -8 + ^ x20: .cfa -16 + ^ .ra: .cfa -24 + ^ x29: .cfa -32 + ^
STACK CFI 645d4 .cfa: sp 64 +
STACK CFI 645e0 .cfa: sp 0 +
STACK CFI 645e4 .cfa: x29 32 +
STACK CFI INIT 645f4 140 .cfa: sp 0 +
STACK CFI 645f8 .cfa: sp 64 +
STACK CFI 64604 .cfa: x29 32 + x19: .cfa -8 + ^ x20: .cfa -16 + ^ .ra: .cfa -24 + ^ x29: .cfa -32 + ^
STACK CFI 64714 .cfa: sp 64 +
STACK CFI 64720 .cfa: sp 0 +
STACK CFI 64724 .cfa: x29 32 +
STACK CFI INIT 64734 70 .cfa: sp 0 +
STACK CFI 64738 .cfa: sp 48 +
STACK CFI 64744 .cfa: x29 48 + x19: .cfa -8 + ^ x20: .cfa -16 + ^ x21: .cfa -32 + ^ .ra: .cfa -40 + ^ x29: .cfa -48 + ^
STACK CFI 6475c .cfa: sp 48 +
STACK CFI 64768 .cfa: sp 0 +
STACK CFI 6476c .cfa: x29 48 +
STACK CFI 64794 .cfa: sp 48 +
STACK CFI 647a0 .cfa: sp 0 +
STACK CFI INIT 64dbc 50 .cfa: sp 0 +
STACK CFI 64de0 .cfa: sp 32 +
STACK CFI 64de8 .cfa: x29 32 + x19: .cfa -16 + ^ .ra: .cfa -24 + ^ x29: .cfa -32 + ^
STACK CFI 64dfc .cfa: sp 32 +
STACK CFI 64e04 .cfa: sp 0 +
STACK CFI INIT 64e0c 458 .cfa: sp 0 +
STACK CFI INIT 65264 3c .cfa: sp 0 +
STACK CFI 65268 .cfa: sp 32 +
STACK CFI 65270 .cfa: x29 32 + x19: .cfa -16 + ^ .ra: .cfa -24 + ^ x29: .cfa -32 + ^
STACK CFI 6527c .cfa: sp 32 +
STACK CFI 65284 .cfa: sp 0 +
STACK CFI 65288 .cfa: x29 32 +
STACK CFI 65294 .cfa: sp 32 +
STACK CFI 6529c .cfa: sp 0 +
STACK CFI INIT 652a0 3c .cfa: sp 0 +
STACK CFI 652a4 .cfa: sp 32 +
STACK CFI 652ac .cfa: x29 32 + x19: .cfa -16 + ^ .ra: .cfa -24 + ^ x29: .cfa -32 + ^
STACK CFI 652b8 .cfa: sp 32 +
STACK CFI 652c0 .cfa: sp 0 +
STACK CFI 652c4 .cfa: x29 32 +
STACK CFI 652d0 .cfa: sp 32 +
STACK CFI 652d8 .cfa: sp 0 +
STACK CFI INIT 652dc 190 .cfa: sp 0 +
STACK CFI 652e0 .cfa: sp 48 +
STACK CFI 652ec .cfa: x29 48 + x19: .cfa -8 + ^ x20: .cfa -16 + ^ x21: .cfa -32 + ^ .ra: .cfa -40 + ^ x29: .cfa -48 + ^
STACK CFI 65380 .cfa: sp 48 +
STACK CFI 6538c .cfa: sp 0 +
STACK CFI 65390 .cfa: x29 48 +
STACK CFI 65394 .cfa: sp 48 +
STACK CFI 653a0 .cfa: sp 0 +
STACK CFI 653a4 .cfa: x29 48 +
STACK CFI 653dc .cfa: sp 48 +
STACK CFI 653e8 .cfa: sp 0 +
STACK CFI 653ec .cfa: x29 48 +
STACK CFI 65410 .cfa: sp 48 +
STACK CFI 6541c .cfa: sp 0 +
STACK CFI 65420 .cfa: x29 48 +
STACK CFI 65448 .cfa: sp 48 +
STACK CFI 65454 .cfa: sp 0 +
STACK CFI 65458 .cfa: x29 48 +
STACK CFI 6545c .cfa: sp 48 +
STACK CFI 65468 .cfa: sp 0 +
STACK CFI INIT 6546c c8 .cfa: sp 0 +
STACK CFI 65470 .cfa: sp 48 +
STACK CFI 65478 .cfa: x29 16 + .ra: .cfa -8 + ^ x29: .cfa -16 + ^
STACK CFI 654a4 .cfa: sp 48 +
STACK CFI 654ac .cfa: sp 0 +
STACK CFI 654b0 .cfa: x29 16 +
STACK CFI 65528 .cfa: sp 48 +
STACK CFI 65530 .cfa: sp 0 +
STACK CFI INIT 65534 c8 .cfa: sp 0 +
STACK CFI 65538 .cfa: sp 48 +
STACK CFI 65540 .cfa: x29 16 + .ra: .cfa -8 + ^ x29: .cfa -16 + ^
STACK CFI 6556c .cfa: sp 48 +
STACK CFI 65574 .cfa: sp 0 +
STACK CFI 65578 .cfa: x29 16 +
STACK CFI 655f0 .cfa: sp 48 +
STACK CFI 655f8 .cfa: sp 0 +
STACK CFI INIT 655fc 374 .cfa: sp 0 +
STACK CFI 65600 .cfa: sp 32 +
STACK CFI 65608 .cfa: x29 32 + x19: .cfa -8 + ^ x20: .cfa -16 + ^ .ra: .cfa -24 + ^ x29: .cfa -32 + ^
STACK CFI 65654 .cfa: sp 32 +
STACK CFI 6565c .cfa: sp 0 +
STACK CFI 65660 .cfa: x29 32 +
STACK CFI 656a4 .cfa: sp 32 +
STACK CFI 656ac .cfa: sp 0 +
STACK CFI 656b0 .cfa: x29 32 +
STACK CFI 656b4 .cfa: sp 32 +
STACK CFI 656bc .cfa: sp 0 +
STACK CFI 656c0 .cfa: x29 32 +
STACK CFI 656dc .cfa: sp 32 +
STACK CFI 656e4 .cfa: sp 0 +
STACK CFI 656e8 .cfa: x29 32 +
STACK CFI 657dc .cfa: sp 32 +
STACK CFI 657e4 .cfa: sp 0 +
STACK CFI 657e8 .cfa: x29 32 +
STACK CFI 65878 .cfa: sp 32 +
STACK CFI 65880 .cfa: sp 0 +
STACK CFI 65884 .cfa: x29 32 +
STACK CFI 65954 .cfa: sp 32 +
STACK CFI 6595c .cfa: sp 0 +
STACK CFI 65960 .cfa: x29 32 +
STACK CFI 65964 .cfa: sp 32 +
STACK CFI 6596c .cfa: sp 0 +
STACK CFI INIT 65970 3e8 .cfa: sp 0 +
STACK CFI 65974 .cfa: sp 208 +
STACK CFI 6598c .cfa: x29 32 + x19: .cfa -16 + ^ .ra: .cfa -24 + ^ x29: .cfa -32 + ^ v8: .cfa -40 + ^ v9: .cfa -48 + ^ v10: .cfa -56 + ^ v11: .cfa -64 + ^ v12: .cfa -72 + ^ v13: .cfa -80 + ^
STACK CFI 65a48 .cfa: sp 208 +
STACK CFI 65a60 .cfa: sp 0 +
STACK CFI 65a64 .cfa: x29 32 +
STACK CFI INIT 65d58 13c .cfa: sp 0 +
STACK CFI INIT 65e94 104 .cfa: sp 0 +
STACK CFI INIT 65f98 470 .cfa: sp 0 +
STACK CFI 65f9c .cfa: sp 224 +
STACK CFI 65fb8 .cfa: x29 48 + x19: .cfa -8 + ^ x20: .cfa -16 + ^ x21: .cfa -24 + ^ x22: .cfa -32 + ^ .ra: .cfa -40 + ^ x29: .cfa -48 + ^ v8: .cfa -56 + ^ v9: .cfa -64 + ^ v10: .cfa -72 + ^ v11: .cfa -80 + ^ v12: .cfa -88 + ^ v13: .cfa -96 + ^
STACK CFI 66278 .cfa: sp 224 +
STACK CFI 66294 .cfa: sp 0 +
STACK CFI 66298 .cfa: x29 48 +
STACK CFI INIT 66408 108 .cfa: sp 0 +
STACK CFI 6640c .cfa: sp 176 +
STACK CFI 66418 .cfa: x29 32 + x19: .cfa -16 + ^ .ra: .cfa -24 + ^ x29: .cfa -32 + ^
STACK CFI 664fc .cfa: sp 176 +
STACK CFI 66508 .cfa: sp 0 +
STACK CFI 6650c .cfa: x29 32 +
STACK CFI INIT 66510 27c .cfa: sp 0 +
STACK CFI 66514 .cfa: sp 128 +
STACK CFI 66524 .cfa: x29 48 + x19: .cfa -8 + ^ x20: .cfa -16 + ^ x21: .cfa -24 + ^ x22: .cfa -32 + ^ .ra: .cfa -40 + ^ x29: .cfa -48 + ^
STACK CFI 66774 .cfa: sp 128 +
STACK CFI 66784 .cfa: sp 0 +
STACK CFI 66788 .cfa: x29 48 +
STACK CFI INIT 6678c 14c .cfa: sp 0 +
STACK CFI INIT 668d8 16c .cfa: sp 0 +
STACK CFI INIT 66a44 17c .cfa: sp 0 +
STACK CFI INIT 66bc0 164 .cfa: sp 0 +
STACK CFI INIT 66d24 2c8 .cfa: sp 0 +
STACK CFI 66d28 .cfa: sp 176 +
STACK CFI 66d40 x19: .cfa -8 + ^ x20: .cfa -16 + ^ x21: .cfa -24 + ^ x22: .cfa -32 + ^ x23: .cfa -40 + ^ x24: .cfa -48 + ^ x25: .cfa -56 + ^ x26: .cfa -64 + ^ x27: .cfa -72 + ^ x28: .cfa -80 + ^ .ra: .cfa -88 + ^ x29: .cfa -96 + ^
STACK CFI 66fe8 .cfa: sp 0 +
STACK CFI INIT 66fec 104 .cfa: sp 0 +
STACK CFI INIT 670f0 110 .cfa: sp 0 +
STACK CFI INIT 67200 154 .cfa: sp 0 +
STACK CFI INIT 67354 444 .cfa: sp 0 +
STACK CFI 6738c .cfa: sp 64 +
STACK CFI 67398 x19: .cfa -8 + ^ x20: .cfa -16 + ^ x21: .cfa -24 + ^ x22: .cfa -32 + ^ x23: .cfa -40 + ^ x24: .cfa -48 + ^ x25: .cfa -64 + ^
STACK CFI 675e4 .cfa: sp 0 +
STACK CFI 675e8 .cfa: sp 64 +
STACK CFI 6777c .cfa: sp 0 +
STACK CFI 67780 .cfa: sp 64 +
STACK CFI 67794 .cfa: sp 0 +
STACK CFI INIT 67798 340 .cfa: sp 0 +
STACK CFI 6779c .cfa: sp 64 +
STACK CFI 677ac .cfa: x29 48 + x19: .cfa -8 + ^ x20: .cfa -16 + ^ x21: .cfa -32 + ^ .ra: .cfa -40 + ^ x29: .cfa -48 + ^ v8: .cfa -56 + ^ v9: .cfa -64 + ^
STACK CFI 67a44 .cfa: sp 64 +
STACK CFI 67a54 .cfa: sp 0 +
STACK CFI 67a58 .cfa: x29 48 +
STACK CFI 67a7c .cfa: sp 64 +
STACK CFI 67a8c .cfa: sp 0 +
STACK CFI 67a90 .cfa: x29 48 +
STACK CFI 67a98 .cfa: sp 64 +
STACK CFI 67aa8 .cfa: sp 0 +
STACK CFI 67aac .cfa: x29 48 +
STACK CFI 67ab4 .cfa: sp 64 +
STACK CFI 67ac4 .cfa: sp 0 +
STACK CFI 67ac8 .cfa: x29 48 +
STACK CFI INIT 67ad8 310 .cfa: sp 0 +
STACK CFI 67b10 .cfa: sp 48 +
STACK CFI 67b18 x19: .cfa -8 + ^ x20: .cfa -16 + ^ x21: .cfa -24 + ^ x22: .cfa -32 + ^ x23: .cfa -40 + ^ x24: .cfa -48 + ^
STACK CFI 67de4 .cfa: sp 0 +
STACK CFI INIT 67de8 860 .cfa: sp 0 +
STACK CFI 67dec .cfa: sp 160 +
STACK CFI 67e10 x19: .cfa -8 + ^ x20: .cfa -16 + ^ x21: .cfa -24 + ^ x22: .cfa -32 + ^ x23: .cfa -40 + ^ x24: .cfa -48 + ^ x25: .cfa -56 + ^ x26: .cfa -64 + ^ x27: .cfa -72 + ^ x28: .cfa -80 + ^ .ra: .cfa -88 + ^ x29: .cfa -96 + ^ v8: .cfa -104 + ^ v9: .cfa -112 + ^ v10: .cfa -120 + ^ v11: .cfa -128 + ^ v12: .cfa -136 + ^ v13: .cfa -144 + ^ v14: .cfa -152 + ^ v15: .cfa -160 + ^
STACK CFI 68644 .cfa: sp 0 +
STACK CFI INIT 68648 8c8 .cfa: sp 0 +
STACK CFI 6864c .cfa: sp 160 +
STACK CFI 68670 x19: .cfa -8 + ^ x20: .cfa -16 + ^ x21: .cfa -24 + ^ x22: .cfa -32 + ^ x23: .cfa -40 + ^ x24: .cfa -48 + ^ x25: .cfa -56 + ^ x26: .cfa -64 + ^ x27: .cfa -72 + ^ x28: .cfa -80 + ^ .ra: .cfa -88 + ^ x29: .cfa -96 + ^ v8: .cfa -104 + ^ v9: .cfa -112 + ^ v10: .cfa -120 + ^ v11: .cfa -128 + ^ v12: .cfa -136 + ^ v13: .cfa -144 + ^ v14: .cfa -152 + ^ v15: .cfa -160 + ^
STACK CFI 68f0c .cfa: sp 0 +
STACK CFI INIT 68f10 644 .cfa: sp 0 +
STACK CFI 68f14 .cfa: sp 160 +
STACK CFI 68f34 .cfa: x29 48 + x19: .cfa -8 + ^ x20: .cfa -16 + ^ x21: .cfa -32 + ^ .ra: .cfa -40 + ^ x29: .cfa -48 + ^ v8: .cfa -56 + ^ v9: .cfa -64 + ^ v10: .cfa -72 + ^ v11: .cfa -80 + ^ v12: .cfa -88 + ^ v13: .cfa -96 + ^ v14: .cfa -104 + ^ v15: .cfa -112 + ^
STACK CFI 69530 .cfa: sp 160 +
STACK CFI 69550 .cfa: sp 0 +
STACK CFI INIT 69554 65c .cfa: sp 0 +
STACK CFI 69558 .cfa: sp 160 +
STACK CFI 69578 .cfa: x29 48 + x19: .cfa -8 + ^ x20: .cfa -16 + ^ x21: .cfa -32 + ^ .ra: .cfa -40 + ^ x29: .cfa -48 + ^ v8: .cfa -56 + ^ v9: .cfa -64 + ^ v10: .cfa -72 + ^ v11: .cfa -80 + ^ v12: .cfa -88 + ^ v13: .cfa -96 + ^ v14: .cfa -104 + ^ v15: .cfa -112 + ^
STACK CFI 69b8c .cfa: sp 160 +
STACK CFI 69bac .cfa: sp 0 +
STACK CFI INIT 69bb0 5a4 .cfa: sp 0 +
STACK CFI 69bb4 .cfa: sp 80 +
STACK CFI 69bc4 x19: .cfa -8 + ^ x20: .cfa -16 + ^ v8: .cfa -24 + ^ v9: .cfa -32 + ^ v10: .cfa -40 + ^ v11: .cfa -48 + ^ v12: .cfa -56 + ^ v13: .cfa -64 + ^ v14: .cfa -80 + ^
STACK CFI 69c08 .cfa: sp 0 +
STACK CFI 69c0c .cfa: sp 80 +
STACK CFI INIT 6a154 5f0 .cfa: sp 0 +
STACK CFI 6a158 .cfa: sp 80 +
STACK CFI 6a168 x19: .cfa -8 + ^ x20: .cfa -16 + ^ v8: .cfa -24 + ^ v9: .cfa -32 + ^ v10: .cfa -40 + ^ v11: .cfa -48 + ^ v12: .cfa -56 + ^ v13: .cfa -64 + ^ v14: .cfa -80 + ^
STACK CFI 6a1ac .cfa: sp 0 +
STACK CFI 6a1b0 .cfa: sp 80 +
STACK CFI INIT 6a744 790 .cfa: sp 0 +
STACK CFI 6a748 .cfa: sp 144 +
STACK CFI 6a768 x19: .cfa -8 + ^ x20: .cfa -16 + ^ x21: .cfa -24 + ^ x22: .cfa -32 + ^ x23: .cfa -40 + ^ x24: .cfa -48 + ^ x25: .cfa -56 + ^ x26: .cfa -64 + ^ x27: .cfa -80 + ^ v8: .cfa -88 + ^ v9: .cfa -96 + ^ v10: .cfa -104 + ^ v11: .cfa -112 + ^ v12: .cfa -120 + ^ v13: .cfa -128 + ^ v14: .cfa -136 + ^ v15: .cfa -144 + ^
STACK CFI 6aed0 .cfa: sp 0 +
STACK CFI INIT 6aed4 5a4 .cfa: sp 0 +
STACK CFI 6aed8 .cfa: sp 160 +
STACK CFI 6aef8 .cfa: x29 48 + x19: .cfa -8 + ^ x20: .cfa -16 + ^ x21: .cfa -32 + ^ .ra: .cfa -40 + ^ x29: .cfa -48 + ^ v8: .cfa -56 + ^ v9: .cfa -64 + ^ v10: .cfa -72 + ^ v11: .cfa -80 + ^ v12: .cfa -88 + ^ v13: .cfa -96 + ^ v14: .cfa -104 + ^ v15: .cfa -112 + ^
STACK CFI 6b454 .cfa: sp 160 +
STACK CFI 6b474 .cfa: sp 0 +
STACK CFI INIT 6b478 4c0 .cfa: sp 0 +
STACK CFI 6b47c .cfa: sp 32 +
STACK CFI 6b480 v8: .cfa -8 + ^ v9: .cfa -16 + ^ v10: .cfa -24 + ^ v11: .cfa -32 + ^
STACK CFI 6b4b8 .cfa: sp 0 +
STACK CFI 6b4bc .cfa: sp 32 +
STACK CFI 6b934 .cfa: sp 0 +
STACK CFI INIT 6b938 164 .cfa: sp 0 +
STACK CFI INIT 6ba9c 180 .cfa: sp 0 +
STACK CFI INIT 6bc1c 2c4 .cfa: sp 0 +
STACK CFI 6bc20 .cfa: sp 48 +
STACK CFI 6bc28 x19: .cfa -8 + ^ x20: .cfa -16 + ^ x21: .cfa -24 + ^ x22: .cfa -32 + ^ x23: .cfa -48 + ^
STACK CFI 6bd30 .cfa: sp 0 +
STACK CFI 6bd34 .cfa: sp 48 +
STACK CFI 6be8c .cfa: sp 0 +
STACK CFI 6be90 .cfa: sp 48 +
STACK CFI 6bedc .cfa: sp 0 +
STACK CFI INIT 6bee0 354 .cfa: sp 0 +
STACK CFI 6bee4 .cfa: sp 48 +
STACK CFI 6beec x19: .cfa -8 + ^ x20: .cfa -16 + ^ x21: .cfa -24 + ^ x22: .cfa -32 + ^ x23: .cfa -48 + ^
STACK CFI 6c034 .cfa: sp 0 +
STACK CFI 6c038 .cfa: sp 48 +
STACK CFI 6c1e0 .cfa: sp 0 +
STACK CFI 6c1e4 .cfa: sp 48 +
STACK CFI 6c230 .cfa: sp 0 +
STACK CFI INIT 6c234 180 .cfa: sp 0 +
STACK CFI INIT 6c3b4 164 .cfa: sp 0 +
STACK CFI INIT 6c518 4b0 .cfa: sp 0 +
STACK CFI 6c51c .cfa: sp 16 + x19: .cfa -8 + ^ x20: .cfa -16 + ^
STACK CFI 6c9a4 .cfa: sp 0 +
STACK CFI 6c9a8 .cfa: sp 16 +
STACK CFI 6c9b8 .cfa: sp 0 +
STACK CFI 6c9bc .cfa: sp 16 +
STACK CFI 6c9c4 .cfa: sp 0 +
STACK CFI INIT 6c9c8 4ec .cfa: sp 0 +
STACK CFI 6c9cc .cfa: sp 16 + x19: .cfa -8 + ^ x20: .cfa -16 + ^
STACK CFI 6ce90 .cfa: sp 0 +
STACK CFI 6ce94 .cfa: sp 16 +
STACK CFI 6cea4 .cfa: sp 0 +
STACK CFI 6cea8 .cfa: sp 16 +
STACK CFI 6ceb0 .cfa: sp 0 +
STACK CFI INIT 6ceb4 4d8 .cfa: sp 0 +
STACK CFI 6ceb8 .cfa: sp 16 + x19: .cfa -16 + ^
STACK CFI 6d1f8 .cfa: sp 0 +
STACK CFI 6d1fc .cfa: sp 16 +
STACK CFI 6d378 .cfa: sp 0 +
STACK CFI 6d37c .cfa: sp 16 +
STACK CFI 6d388 .cfa: sp 0 +
STACK CFI INIT 6d38c 514 .cfa: sp 0 +
STACK CFI 6d390 .cfa: sp 16 + x19: .cfa -16 + ^
STACK CFI 6d6e8 .cfa: sp 0 +
STACK CFI 6d6ec .cfa: sp 16 +
STACK CFI 6d88c .cfa: sp 0 +
STACK CFI 6d890 .cfa: sp 16 +
STACK CFI 6d89c .cfa: sp 0 +
STACK CFI INIT 6d8a0 4 .cfa: sp 0 +
STACK CFI INIT 6d8a4 4 .cfa: sp 0 +
STACK CFI INIT 6d8a8 488 .cfa: sp 0 +
STACK CFI 6d8b0 .cfa: sp 16 + x19: .cfa -16 + ^
STACK CFI 6dd0c .cfa: sp 0 +
STACK CFI 6dd10 .cfa: sp 16 +
STACK CFI 6dd18 .cfa: sp 0 +
STACK CFI 6dd1c .cfa: sp 16 +
STACK CFI 6dd24 .cfa: sp 0 +
STACK CFI INIT 6dd30 4c0 .cfa: sp 0 +
STACK CFI INIT 6e1f0 1b4 .cfa: sp 0 +
STACK CFI INIT 6e3a4 1d0 .cfa: sp 0 +
STACK CFI INIT 6e574 1c8 .cfa: sp 0 +
STACK CFI INIT 6e73c 1e0 .cfa: sp 0 +
STACK CFI INIT 6e91c 1ac .cfa: sp 0 +
STACK CFI INIT 6eac8 204 .cfa: sp 0 +
STACK CFI INIT 6eccc fc .cfa: sp 0 +
STACK CFI INIT 6edc8 4 .cfa: sp 0 +
STACK CFI INIT 6edcc 1b8 .cfa: sp 0 +
STACK CFI INIT 6ef84 1e4 .cfa: sp 0 +
STACK CFI INIT 6f168 264 .cfa: sp 0 +
STACK CFI INIT 6f3cc 2b8 .cfa: sp 0 +
STACK CFI INIT 6f684 4 .cfa: sp 0 +
STACK CFI INIT 6f688 4 .cfa: sp 0 +
STACK CFI INIT 6f68c 4 .cfa: sp 0 +
STACK CFI INIT 6f690 4 .cfa: sp 0 +
STACK CFI INIT 6f694 e0 .cfa: sp 0 +
STACK CFI INIT 6f774 200 .cfa: sp 0 +
STACK CFI INIT 6f974 20c .cfa: sp 0 +
STACK CFI INIT 6fb80 35c .cfa: sp 0 +
STACK CFI 6fc0c .cfa: sp 32 +
STACK CFI 6fc10 v8: .cfa -8 + ^ v9: .cfa -16 + ^ v10: .cfa -32 + ^
STACK CFI 6fc24 .cfa: sp 0 +
STACK CFI 6fc28 .cfa: sp 32 +
STACK CFI 6fed8 .cfa: sp 0 +
STACK CFI INIT 6fedc 368 .cfa: sp 0 +
STACK CFI 6fef0 .cfa: sp 32 +
STACK CFI 6fef4 v8: .cfa -8 + ^ v9: .cfa -16 + ^ v10: .cfa -32 + ^
STACK CFI 6ff94 .cfa: sp 0 + v8: v8 v9: v9 v10: v10
STACK CFI INIT 70244 8 .cfa: sp 0 +
STACK CFI INIT 7024c 8 .cfa: sp 0 +
STACK CFI INIT 70254 58 .cfa: sp 0 +
STACK CFI INIT 702ac 408 .cfa: sp 0 +
STACK CFI 702b0 .cfa: sp 16 + v8: .cfa -16 + ^
STACK CFI 706b0 .cfa: sp 0 +
STACK CFI INIT 706b4 42c .cfa: sp 0 +
STACK CFI 706b8 .cfa: sp 16 + v8: .cfa -16 + ^
STACK CFI 70adc .cfa: sp 0 +
STACK CFI INIT 70ae0 8 .cfa: sp 0 +
STACK CFI INIT 70ae8 8 .cfa: sp 0 +
STACK CFI INIT 70af0 200 .cfa: sp 0 +
STACK CFI INIT 70cf0 20c .cfa: sp 0 +
STACK CFI INIT 70efc 39c .cfa: sp 0 +
STACK CFI INIT 71298 22c .cfa: sp 0 +
STACK CFI INIT 714c4 150 .cfa: sp 0 +
STACK CFI INIT 71614 35c .cfa: sp 0 +
STACK CFI 716a0 .cfa: sp 32 +
STACK CFI 716a4 v8: .cfa -8 + ^ v9: .cfa -16 + ^ v10: .cfa -32 + ^
STACK CFI 716b8 .cfa: sp 0 +
STACK CFI 716bc .cfa: sp 32 +
STACK CFI 7196c .cfa: sp 0 +
STACK CFI INIT 71970 60 .cfa: sp 0 +
STACK CFI INIT 719d0 b8 .cfa: sp 0 +
STACK CFI 719d4 .cfa: sp 64 +
STACK CFI 719e0 .cfa: x29 32 + x19: .cfa -8 + ^ x20: .cfa -16 + ^ .ra: .cfa -24 + ^ x29: .cfa -32 + ^
STACK CFI 71a74 .cfa: sp 64 +
STACK CFI 71a80 .cfa: sp 0 +
STACK CFI 71a84 .cfa: x29 32 +
STACK CFI INIT 71a88 7f0 .cfa: sp 0 +
STACK CFI 71a8c .cfa: sp 112 +
STACK CFI 71aa8 .cfa: x29 96 + x19: .cfa -8 + ^ x20: .cfa -16 + ^ x21: .cfa -24 + ^ x22: .cfa -32 + ^ x23: .cfa -40 + ^ x24: .cfa -48 + ^ x25: .cfa -56 + ^ x26: .cfa -64 + ^ x27: .cfa -72 + ^ x28: .cfa -80 + ^ .ra: .cfa -88 + ^ x29: .cfa -96 + ^ v8: .cfa -104 + ^ v9: .cfa -112 + ^
STACK CFI 721f4 .cfa: sp 112 +
STACK CFI 72210 .cfa: sp 0 +
STACK CFI 72214 .cfa: x29 96 +
STACK CFI INIT 72278 958 .cfa: sp 0 +
STACK CFI 7227c .cfa: sp 112 +
STACK CFI 72298 .cfa: x29 96 + x19: .cfa -8 + ^ x20: .cfa -16 + ^ x21: .cfa -24 + ^ x22: .cfa -32 + ^ x23: .cfa -40 + ^ x24: .cfa -48 + ^ x25: .cfa -56 + ^ x26: .cfa -64 + ^ x27: .cfa -72 + ^ x28: .cfa -80 + ^ .ra: .cfa -88 + ^ x29: .cfa -96 + ^ v8: .cfa -104 + ^ v9: .cfa -112 + ^
STACK CFI 72ac0 .cfa: sp 112 +
STACK CFI 72adc .cfa: sp 0 +
STACK CFI 72ae0 .cfa: x29 96 +
STACK CFI INIT 72bd0 7b4 .cfa: sp 0 +
STACK CFI 72bd4 .cfa: sp 96 +
STACK CFI 72bec .cfa: x29 96 + x19: .cfa -8 + ^ x20: .cfa -16 + ^ x21: .cfa -24 + ^ x22: .cfa -32 + ^ x23: .cfa -40 + ^ x24: .cfa -48 + ^ x25: .cfa -56 + ^ x26: .cfa -64 + ^ x27: .cfa -72 + ^ x28: .cfa -80 + ^ .ra: .cfa -88 + ^ x29: .cfa -96 + ^
STACK CFI 73304 .cfa: sp 96 +
STACK CFI 7331c .cfa: sp 0 +
STACK CFI 73320 .cfa: x29 96 +
STACK CFI INIT 73384 91c .cfa: sp 0 +
STACK CFI 73388 .cfa: sp 96 +
STACK CFI 733a0 .cfa: x29 96 + x19: .cfa -8 + ^ x20: .cfa -16 + ^ x21: .cfa -24 + ^ x22: .cfa -32 + ^ x23: .cfa -40 + ^ x24: .cfa -48 + ^ x25: .cfa -56 + ^ x26: .cfa -64 + ^ x27: .cfa -72 + ^ x28: .cfa -80 + ^ .ra: .cfa -88 + ^ x29: .cfa -96 + ^
STACK CFI 73b94 .cfa: sp 96 +
STACK CFI 73bac .cfa: sp 0 +
STACK CFI 73bb0 .cfa: x29 96 +
STACK CFI INIT 73ca0 40 .cfa: sp 0 +
STACK CFI INIT 73ce0 60 .cfa: sp 0 +
STACK CFI INIT 73d40 b8 .cfa: sp 0 +
STACK CFI 73d44 .cfa: sp 64 +
STACK CFI 73d50 .cfa: x29 32 + x19: .cfa -8 + ^ x20: .cfa -16 + ^ .ra: .cfa -24 + ^ x29: .cfa -32 + ^
STACK CFI 73de4 .cfa: sp 64 +
STACK CFI 73df0 .cfa: sp 0 +
STACK CFI 73df4 .cfa: x29 32 +
STACK CFI INIT 73df8 828 .cfa: sp 0 +
STACK CFI 73dfc .cfa: sp 112 +
STACK CFI 73e18 .cfa: x29 96 + x19: .cfa -8 + ^ x20: .cfa -16 + ^ x21: .cfa -24 + ^ x22: .cfa -32 + ^ x23: .cfa -40 + ^ x24: .cfa -48 + ^ x25: .cfa -56 + ^ x26: .cfa -64 + ^ x27: .cfa -72 + ^ x28: .cfa -80 + ^ .ra: .cfa -88 + ^ x29: .cfa -96 + ^ v8: .cfa -104 + ^ v9: .cfa -112 + ^
STACK CFI 745a4 .cfa: sp 112 +
STACK CFI 745c0 .cfa: sp 0 +
STACK CFI 745c4 .cfa: x29 96 +
STACK CFI INIT 74620 9fc .cfa: sp 0 +
STACK CFI 74624 .cfa: sp 112 +
STACK CFI 74640 .cfa: x29 96 + x19: .cfa -8 + ^ x20: .cfa -16 + ^ x21: .cfa -24 + ^ x22: .cfa -32 + ^ x23: .cfa -40 + ^ x24: .cfa -48 + ^ x25: .cfa -56 + ^ x26: .cfa -64 + ^ x27: .cfa -72 + ^ x28: .cfa -80 + ^ .ra: .cfa -88 + ^ x29: .cfa -96 + ^ v8: .cfa -104 + ^ v9: .cfa -112 + ^
STACK CFI 74eac .cfa: sp 112 +
STACK CFI 74ec8 .cfa: sp 0 +
STACK CFI 74ecc .cfa: x29 96 +
STACK CFI INIT 7501c 7ec .cfa: sp 0 +
STACK CFI 75020 .cfa: sp 96 +
STACK CFI 75038 .cfa: x29 96 + x19: .cfa -8 + ^ x20: .cfa -16 + ^ x21: .cfa -24 + ^ x22: .cfa -32 + ^ x23: .cfa -40 + ^ x24: .cfa -48 + ^ x25: .cfa -56 + ^ x26: .cfa -64 + ^ x27: .cfa -72 + ^ x28: .cfa -80 + ^ .ra: .cfa -88 + ^ x29: .cfa -96 + ^
STACK CFI 75790 .cfa: sp 96 +
STACK CFI 757a8 .cfa: sp 0 +
STACK CFI 757ac .cfa: x29 96 +
STACK CFI INIT 75808 9b8 .cfa: sp 0 +
STACK CFI 7580c .cfa: sp 96 +
STACK CFI 75824 .cfa: x29 96 + x19: .cfa -8 + ^ x20: .cfa -16 + ^ x21: .cfa -24 + ^ x22: .cfa -32 + ^ x23: .cfa -40 + ^ x24: .cfa -48 + ^ x25: .cfa -56 + ^ x26: .cfa -64 + ^ x27: .cfa -72 + ^ x28: .cfa -80 + ^ .ra: .cfa -88 + ^ x29: .cfa -96 + ^
STACK CFI 76058 .cfa: sp 96 +
STACK CFI 76070 .cfa: sp 0 +
STACK CFI 76074 .cfa: x29 96 +
STACK CFI INIT 761c0 40 .cfa: sp 0 +
STACK CFI INIT 76200 40 .cfa: sp 0 +
STACK CFI INIT 76240 1f8 .cfa: sp 0 +
STACK CFI INIT 76438 b0 .cfa: sp 0 +
STACK CFI 7643c .cfa: sp 48 +
STACK CFI 76448 .cfa: x29 48 + x19: .cfa -8 + ^ x20: .cfa -16 + ^ x21: .cfa -24 + ^ x22: .cfa -32 + ^ .ra: .cfa -40 + ^ x29: .cfa -48 + ^
STACK CFI 7647c .cfa: sp 48 +
STACK CFI 76488 .cfa: sp 0 +
STACK CFI 7648c .cfa: x29 48 +
STACK CFI 764d0 .cfa: sp 48 +
STACK CFI 764dc .cfa: sp 0 +
STACK CFI 764e0 .cfa: x29 48 +
STACK CFI INIT 764e8 b0 .cfa: sp 0 +
STACK CFI 764ec .cfa: sp 48 +
STACK CFI 764f8 .cfa: x29 48 + x19: .cfa -8 + ^ x20: .cfa -16 + ^ x21: .cfa -24 + ^ x22: .cfa -32 + ^ .ra: .cfa -40 + ^ x29: .cfa -48 + ^
STACK CFI 7652c .cfa: sp 48 +
STACK CFI 76538 .cfa: sp 0 +
STACK CFI 7653c .cfa: x29 48 +
STACK CFI 76580 .cfa: sp 48 +
STACK CFI 7658c .cfa: sp 0 +
STACK CFI 76590 .cfa: x29 48 +
STACK CFI INIT 76598 8 .cfa: sp 0 +
STACK CFI INIT 765a0 278 .cfa: sp 0 +
STACK CFI INIT 76818 1fc .cfa: sp 0 +
STACK CFI INIT 76a14 38c .cfa: sp 0 +
STACK CFI 76a90 .cfa: sp 80 +
STACK CFI 76aa0 x19: .cfa -8 + ^ x20: .cfa -16 + ^ x21: .cfa -24 + ^ x22: .cfa -32 + ^ x23: .cfa -40 + ^ x24: .cfa -48 + ^ x25: .cfa -56 + ^ x26: .cfa -64 + ^ x27: .cfa -72 + ^ x28: .cfa -80 + ^
STACK CFI 76d18 .cfa: sp 0 +
STACK CFI 76d5c .cfa: sp 80 +
STACK CFI 76d9c .cfa: sp 0 +
STACK CFI INIT 76da0 30c .cfa: sp 0 +
STACK CFI INIT 770ac 358 .cfa: sp 0 +
STACK CFI INIT 77404 3a4 .cfa: sp 0 +
STACK CFI 77408 .cfa: sp 64 +
STACK CFI 77418 .cfa: x29 48 + x19: .cfa -8 + ^ x20: .cfa -16 + ^ x21: .cfa -24 + ^ x22: .cfa -32 + ^ .ra: .cfa -40 + ^ x29: .cfa -48 + ^
STACK CFI 77688 .cfa: sp 64 +
STACK CFI 77698 .cfa: sp 0 +
STACK CFI 7769c .cfa: x29 48 +
STACK CFI INIT 777a8 408 .cfa: sp 0 +
STACK CFI 777ac .cfa: sp 96 +
STACK CFI 777c4 .cfa: x29 80 + x19: .cfa -8 + ^ x20: .cfa -16 + ^ x21: .cfa -24 + ^ x22: .cfa -32 + ^ x23: .cfa -40 + ^ x24: .cfa -48 + ^ x25: .cfa -56 + ^ x26: .cfa -64 + ^ .ra: .cfa -72 + ^ x29: .cfa -80 + ^
STACK CFI 77b90 .cfa: sp 96 +
STACK CFI 77ba8 .cfa: sp 0 +
STACK CFI 77bac .cfa: x29 80 +
STACK CFI INIT 77bb0 4c .cfa: sp 0 +
STACK CFI 77bb4 .cfa: sp 32 +
STACK CFI 77bbc .cfa: x29 32 + x19: .cfa -8 + ^ x20: .cfa -16 + ^ .ra: .cfa -24 + ^ x29: .cfa -32 + ^
STACK CFI 77be4 .cfa: sp 32 +
STACK CFI 77bec .cfa: sp 0 +
STACK CFI 77bf0 .cfa: sp 32 +
STACK CFI 77bf8 .cfa: sp 0 +
STACK CFI INIT 77e1c 64 .cfa: sp 0 +
STACK CFI 77e20 .cfa: sp 32 +
STACK CFI 77e28 .cfa: x29 32 + x19: .cfa -16 + ^ .ra: .cfa -24 + ^ x29: .cfa -32 + ^
STACK CFI 77e54 .cfa: sp 32 +
STACK CFI 77e5c .cfa: sp 0 +
STACK CFI 77e60 .cfa: x29 32 +
STACK CFI 77e74 .cfa: sp 32 +
STACK CFI 77e7c .cfa: sp 0 +
STACK CFI INIT 77e80 24 .cfa: sp 0 +
STACK CFI 77e84 .cfa: sp 32 +
STACK CFI 77e8c .cfa: x29 32 + x19: .cfa -16 + ^ .ra: .cfa -24 + ^ x29: .cfa -32 + ^
STACK CFI 77e98 .cfa: sp 32 +
STACK CFI 77ea0 .cfa: sp 0 +
STACK CFI INIT 78100 24 .cfa: sp 0 +
STACK CFI 78104 .cfa: sp 32 +
STACK CFI 7810c .cfa: x29 32 + x19: .cfa -16 + ^ .ra: .cfa -24 + ^ x29: .cfa -32 + ^
STACK CFI 78118 .cfa: sp 32 +
STACK CFI 78120 .cfa: sp 0 +
STACK CFI INIT 78390 24 .cfa: sp 0 +
STACK CFI 78394 .cfa: sp 32 +
STACK CFI 7839c .cfa: x29 32 + x19: .cfa -16 + ^ .ra: .cfa -24 + ^ x29: .cfa -32 + ^
STACK CFI 783a8 .cfa: sp 32 +
STACK CFI 783b0 .cfa: sp 0 +
STACK CFI INIT 783b4 8 .cfa: sp 0 +
STACK CFI INIT 783bc 24 .cfa: sp 0 +
STACK CFI 783c0 .cfa: sp 32 +
STACK CFI 783c8 .cfa: x29 32 + x19: .cfa -16 + ^ .ra: .cfa -24 + ^ x29: .cfa -32 + ^
STACK CFI 783d4 .cfa: sp 32 +
STACK CFI 783dc .cfa: sp 0 +
STACK CFI INIT 783e0 28 .cfa: sp 0 +
STACK CFI 783e4 .cfa: sp 32 +
STACK CFI 783ec .cfa: x29 32 + x19: .cfa -16 + ^ .ra: .cfa -24 + ^ x29: .cfa -32 + ^
STACK CFI 783fc .cfa: sp 32 +
STACK CFI 78404 .cfa: sp 0 +
STACK CFI INIT 78708 8 .cfa: sp 0 +
STACK CFI INIT 78710 24 .cfa: sp 0 +
STACK CFI 78714 .cfa: sp 32 +
STACK CFI 7871c .cfa: x29 32 + x19: .cfa -16 + ^ .ra: .cfa -24 + ^ x29: .cfa -32 + ^
STACK CFI 78728 .cfa: sp 32 +
STACK CFI 78730 .cfa: sp 0 +
STACK CFI INIT 78734 28 .cfa: sp 0 +
STACK CFI 78738 .cfa: sp 32 +
STACK CFI 78740 .cfa: x29 32 + x19: .cfa -16 + ^ .ra: .cfa -24 + ^ x29: .cfa -32 + ^
STACK CFI 78750 .cfa: sp 32 +
STACK CFI 78758 .cfa: sp 0 +
STACK CFI INIT 789c0 8 .cfa: sp 0 +
STACK CFI INIT 789c8 24 .cfa: sp 0 +
STACK CFI 789cc .cfa: sp 32 +
STACK CFI 789d4 .cfa: x29 32 + x19: .cfa -16 + ^ .ra: .cfa -24 + ^ x29: .cfa -32 + ^
STACK CFI 789e0 .cfa: sp 32 +
STACK CFI 789e8 .cfa: sp 0 +
STACK CFI INIT 789ec 28 .cfa: sp 0 +
STACK CFI 789f0 .cfa: sp 32 +
STACK CFI 789f8 .cfa: x29 32 + x19: .cfa -16 + ^ .ra: .cfa -24 + ^ x29: .cfa -32 + ^
STACK CFI 78a08 .cfa: sp 32 +
STACK CFI 78a10 .cfa: sp 0 +
STACK CFI INIT 78c84 24 .cfa: sp 0 +
STACK CFI 78c88 .cfa: sp 32 +
STACK CFI 78c90 .cfa: x29 32 + x19: .cfa -16 + ^ .ra: .cfa -24 + ^ x29: .cfa -32 + ^
STACK CFI 78c9c .cfa: sp 32 +
STACK CFI 78ca4 .cfa: sp 0 +
STACK CFI INIT 79360 24 .cfa: sp 0 +
STACK CFI 79364 .cfa: sp 32 +
STACK CFI 7936c .cfa: x29 32 + x19: .cfa -16 + ^ .ra: .cfa -24 + ^ x29: .cfa -32 + ^
STACK CFI 79378 .cfa: sp 32 +
STACK CFI 79380 .cfa: sp 0 +
STACK CFI INIT 79384 9c .cfa: sp 0 +
STACK CFI 79388 .cfa: sp 32 +
STACK CFI 79390 .cfa: x29 32 + x19: .cfa -16 + ^ .ra: .cfa -24 + ^ x29: .cfa -32 + ^
STACK CFI 79414 .cfa: sp 32 +
STACK CFI 7941c .cfa: sp 0 +
STACK CFI INIT 79420 8 .cfa: sp 0 +
STACK CFI INIT 79428 24 .cfa: sp 0 +
STACK CFI 7942c .cfa: sp 32 +
STACK CFI 79434 .cfa: x29 32 + x19: .cfa -16 + ^ .ra: .cfa -24 + ^ x29: .cfa -32 + ^
STACK CFI 79440 .cfa: sp 32 +
STACK CFI 79448 .cfa: sp 0 +
STACK CFI INIT 7944c 28 .cfa: sp 0 +
STACK CFI 79450 .cfa: sp 32 +
STACK CFI 79458 .cfa: x29 32 + x19: .cfa -16 + ^ .ra: .cfa -24 + ^ x29: .cfa -32 + ^
STACK CFI 79468 .cfa: sp 32 +
STACK CFI 79470 .cfa: sp 0 +
STACK CFI INIT 7972c 28 .cfa: sp 0 +
STACK CFI INIT 79754 14 .cfa: sp 0 +
STACK CFI INIT 79768 18 .cfa: sp 0 +
STACK CFI 7976c .cfa: sp 16 +
STACK CFI 79770 .cfa: x29 16 + .ra: .cfa -8 + ^ x29: .cfa -16 + ^
STACK CFI 79778 .cfa: sp 16 +
STACK CFI 7977c .cfa: sp 0 +
STACK CFI INIT 79780 4 .cfa: sp 0 +
STACK CFI INIT 7a924 4 .cfa: sp 0 +
STACK CFI INIT 7a928 14 .cfa: sp 0 +
STACK CFI INIT 7ae48 c .cfa: sp 0 +
STACK CFI INIT 7ae54 24c .cfa: sp 0 +
STACK CFI INIT 7b0a0 a0 .cfa: sp 0 +
STACK CFI 7b0ac .cfa: sp 32 +
STACK CFI 7b104 .cfa: sp 0 +
STACK CFI 7b108 .cfa: sp 32 +
STACK CFI 7b110 .cfa: sp 0 +
STACK CFI 7b114 .cfa: sp 32 +
STACK CFI 7b128 .cfa: sp 0 +
STACK CFI 7b12c .cfa: sp 32 +
STACK CFI 7b13c .cfa: sp 0 +
STACK CFI INIT 7b140 38 .cfa: sp 0 +
STACK CFI 7b14c .cfa: sp 32 +
STACK CFI 7b174 .cfa: sp 0 +
STACK CFI INIT 7b40c 7c .cfa: sp 0 +
STACK CFI 7b410 .cfa: sp 32 +
STACK CFI 7b418 .cfa: x29 32 + x19: .cfa -16 + ^ .ra: .cfa -24 + ^ x29: .cfa -32 + ^
STACK CFI 7b444 .cfa: sp 32 +
STACK CFI 7b44c .cfa: sp 0 +
STACK CFI 7b450 .cfa: x29 32 +
STACK CFI 7b47c .cfa: sp 32 +
STACK CFI 7b484 .cfa: sp 0 +
STACK CFI INIT 7b4d8 2c .cfa: sp 0 +
STACK CFI 7b4dc .cfa: sp 32 +
STACK CFI 7b4e4 .cfa: x29 32 + x19: .cfa -16 + ^ .ra: .cfa -24 + ^ x29: .cfa -32 + ^
STACK CFI 7b4f8 .cfa: sp 32 +
STACK CFI 7b500 .cfa: sp 0 +
STACK CFI INIT 7bcc4 64 .cfa: sp 0 +
STACK CFI 7bcc8 .cfa: sp 32 +
STACK CFI 7bcd0 .cfa: x29 32 + x19: .cfa -16 + ^ .ra: .cfa -24 + ^ x29: .cfa -32 + ^
STACK CFI 7bcec .cfa: sp 32 +
STACK CFI 7bcf4 .cfa: sp 0 +
STACK CFI 7bcf8 .cfa: x29 32 +
STACK CFI 7bd1c .cfa: sp 32 +
STACK CFI 7bd24 .cfa: sp 0 +
STACK CFI INIT 7be74 570 .cfa: sp 0 +
STACK CFI 7be78 .cfa: sp 176 +
STACK CFI 7be8c .cfa: x29 64 + x19: .cfa -8 + ^ x20: .cfa -16 + ^ x21: .cfa -24 + ^ x22: .cfa -32 + ^ x23: .cfa -40 + ^ x24: .cfa -48 + ^ .ra: .cfa -56 + ^ x29: .cfa -64 + ^
STACK CFI 7c0bc .cfa: sp 176 +
STACK CFI 7c0d0 .cfa: sp 0 +
STACK CFI 7c0d4 .cfa: x29 64 +
STACK CFI 7c120 .cfa: sp 176 +
STACK CFI 7c134 .cfa: sp 0 +
STACK CFI 7c138 .cfa: x29 64 +
STACK CFI 7c170 .cfa: sp 176 +
STACK CFI 7c184 .cfa: sp 0 +
STACK CFI 7c188 .cfa: x29 64 +
STACK CFI 7c1a0 .cfa: sp 176 +
STACK CFI 7c1b4 .cfa: sp 0 +
STACK CFI 7c1b8 .cfa: x29 64 +
STACK CFI 7c1d8 .cfa: sp 176 +
STACK CFI 7c1ec .cfa: sp 0 +
STACK CFI 7c1f0 .cfa: x29 64 +
STACK CFI 7c208 .cfa: sp 176 +
STACK CFI 7c21c .cfa: sp 0 +
STACK CFI 7c220 .cfa: x29 64 +
STACK CFI 7c234 .cfa: sp 176 +
STACK CFI 7c248 .cfa: sp 0 +
STACK CFI 7c24c .cfa: x29 64 +
STACK CFI 7c260 .cfa: sp 176 +
STACK CFI 7c274 .cfa: sp 0 +
STACK CFI 7c278 .cfa: x29 64 +
STACK CFI 7c288 .cfa: sp 176 +
STACK CFI 7c29c .cfa: sp 0 +
STACK CFI 7c2a0 .cfa: x29 64 +
STACK CFI 7c2b0 .cfa: sp 176 +
STACK CFI 7c2c4 .cfa: sp 0 +
STACK CFI 7c2c8 .cfa: x29 64 +
STACK CFI 7c2e0 .cfa: sp 176 +
STACK CFI 7c2f4 .cfa: sp 0 +
STACK CFI 7c2f8 .cfa: x29 64 +
STACK CFI 7c30c .cfa: sp 176 +
STACK CFI 7c320 .cfa: sp 0 +
STACK CFI 7c324 .cfa: x29 64 +
STACK CFI 7c33c .cfa: sp 176 +
STACK CFI 7c350 .cfa: sp 0 +
STACK CFI 7c354 .cfa: x29 64 +
STACK CFI 7c380 .cfa: sp 176 +
STACK CFI 7c394 .cfa: sp 0 +
STACK CFI 7c398 .cfa: x29 64 +
STACK CFI 7c3ac .cfa: sp 176 +
STACK CFI 7c3c0 .cfa: sp 0 +
STACK CFI 7c3c4 .cfa: x29 64 +
STACK CFI INIT 7c3e4 228 .cfa: sp 0 +
STACK CFI INIT 7c60c 2dc .cfa: sp 0 +
STACK CFI INIT 7c8e8 53c .cfa: sp 0 +
STACK CFI INIT 7ce24 78 .cfa: sp 0 +
STACK CFI 7ce28 .cfa: sp 48 +
STACK CFI 7ce34 .cfa: x29 48 + x19: .cfa -8 + ^ x20: .cfa -16 + ^ x21: .cfa -24 + ^ x22: .cfa -32 + ^ .ra: .cfa -40 + ^ x29: .cfa -48 + ^
STACK CFI 7ce7c .cfa: sp 48 +
STACK CFI 7ce88 .cfa: sp 0 +
STACK CFI 7ce8c .cfa: sp 48 +
STACK CFI 7ce98 .cfa: sp 0 +
STACK CFI INIT 7ce9c 8c .cfa: sp 0 +
STACK CFI 7cea0 .cfa: sp 32 +
STACK CFI 7cea8 .cfa: x29 32 + x19: .cfa -16 + ^ .ra: .cfa -24 + ^ x29: .cfa -32 + ^
STACK CFI 7cedc .cfa: sp 32 +
STACK CFI 7cee4 .cfa: sp 0 +
STACK CFI 7cee8 .cfa: x29 32 +
STACK CFI 7cf1c .cfa: sp 32 +
STACK CFI 7cf24 .cfa: sp 0 +
STACK CFI INIT 7cf28 24 .cfa: sp 0 +
STACK CFI 7cf2c .cfa: sp 32 +
STACK CFI 7cf34 .cfa: x29 32 + x19: .cfa -16 + ^ .ra: .cfa -24 + ^ x29: .cfa -32 + ^
STACK CFI 7cf40 .cfa: sp 32 +
STACK CFI 7cf48 .cfa: sp 0 +
STACK CFI INIT 7cf4c 150 .cfa: sp 0 +
STACK CFI 7cf50 .cfa: sp 48 +
STACK CFI 7cf5c .cfa: x29 48 + x19: .cfa -8 + ^ x20: .cfa -16 + ^ x21: .cfa -24 + ^ x22: .cfa -32 + ^ .ra: .cfa -40 + ^ x29: .cfa -48 + ^
STACK CFI 7d08c .cfa: sp 48 +
STACK CFI 7d098 .cfa: sp 0 +
STACK CFI INIT 7d09c 68 .cfa: sp 0 +
STACK CFI 7d0a0 .cfa: sp 64 +
STACK CFI 7d0ac .cfa: x29 32 + x19: .cfa -16 + ^ .ra: .cfa -24 + ^ x29: .cfa -32 + ^
STACK CFI 7d0f0 .cfa: sp 64 +
STACK CFI 7d0fc .cfa: sp 0 +
STACK CFI 7d100 .cfa: x29 32 +
STACK CFI INIT 7d104 90 .cfa: sp 0 +
STACK CFI 7d108 .cfa: sp 32 +
STACK CFI 7d110 .cfa: x29 32 + x19: .cfa -8 + ^ x20: .cfa -16 + ^ .ra: .cfa -24 + ^ x29: .cfa -32 + ^
STACK CFI 7d13c .cfa: sp 32 +
STACK CFI 7d144 .cfa: sp 0 +
STACK CFI 7d148 .cfa: x29 32 +
STACK CFI 7d188 .cfa: sp 32 +
STACK CFI 7d190 .cfa: sp 0 +
STACK CFI INIT 7d194 ec .cfa: sp 0 +
STACK CFI 7d198 .cfa: sp 112 +
STACK CFI 7d1a8 .cfa: x29 48 + x19: .cfa -8 + ^ x20: .cfa -16 + ^ x21: .cfa -32 + ^ .ra: .cfa -40 + ^ x29: .cfa -48 + ^
STACK CFI 7d268 .cfa: sp 112 +
STACK CFI 7d278 .cfa: sp 0 +
STACK CFI 7d27c .cfa: x29 48 +
STACK CFI INIT 7d280 ec .cfa: sp 0 +
STACK CFI 7d284 .cfa: sp 112 +
STACK CFI 7d294 .cfa: x29 48 + x19: .cfa -8 + ^ x20: .cfa -16 + ^ x21: .cfa -32 + ^ .ra: .cfa -40 + ^ x29: .cfa -48 + ^
STACK CFI 7d354 .cfa: sp 112 +
STACK CFI 7d364 .cfa: sp 0 +
STACK CFI 7d368 .cfa: x29 48 +
STACK CFI INIT 7d36c 48 .cfa: sp 0 +
STACK CFI 7d370 .cfa: sp 32 +
STACK CFI 7d378 .cfa: x29 32 + x19: .cfa -8 + ^ x20: .cfa -16 + ^ .ra: .cfa -24 + ^ x29: .cfa -32 + ^
STACK CFI 7d39c .cfa: sp 32 +
STACK CFI 7d3a4 .cfa: sp 0 +
STACK CFI 7d3a8 .cfa: x29 32 +
STACK CFI INIT 7d3b4 98 .cfa: sp 0 +
STACK CFI 7d3b8 .cfa: sp 80 +
STACK CFI 7d3c4 .cfa: x29 32 + x19: .cfa -16 + ^ .ra: .cfa -24 + ^ x29: .cfa -32 + ^
STACK CFI 7d438 .cfa: sp 80 +
STACK CFI 7d444 .cfa: sp 0 +
STACK CFI 7d448 .cfa: x29 32 +
STACK CFI INIT 7d44c 260 .cfa: sp 0 +
STACK CFI 7d450 .cfa: sp 112 +
STACK CFI 7d468 .cfa: x29 80 + x19: .cfa -8 + ^ x20: .cfa -16 + ^ x21: .cfa -24 + ^ x22: .cfa -32 + ^ x23: .cfa -40 + ^ x24: .cfa -48 + ^ x25: .cfa -64 + ^ .ra: .cfa -72 + ^ x29: .cfa -80 + ^
STACK CFI 7d64c .cfa: sp 112 +
STACK CFI 7d664 .cfa: sp 0 +
STACK CFI 7d668 .cfa: x29 80 +
STACK CFI INIT 7d6ac 150 .cfa: sp 0 +
STACK CFI 7d6b0 .cfa: sp 48 +
STACK CFI 7d6bc .cfa: x29 48 + x19: .cfa -8 + ^ x20: .cfa -16 + ^ x21: .cfa -24 + ^ x22: .cfa -32 + ^ .ra: .cfa -40 + ^ x29: .cfa -48 + ^
STACK CFI 7d7ec .cfa: sp 48 +
STACK CFI 7d7f8 .cfa: sp 0 +
STACK CFI INIT 7d7fc 1e0 .cfa: sp 0 +
STACK CFI 7d800 .cfa: sp 96 +
STACK CFI 7d814 .cfa: x29 64 + x19: .cfa -8 + ^ x20: .cfa -16 + ^ x21: .cfa -24 + ^ x22: .cfa -32 + ^ x23: .cfa -40 + ^ x24: .cfa -48 + ^ .ra: .cfa -56 + ^ x29: .cfa -64 + ^
STACK CFI 7d994 .cfa: sp 96 +
STACK CFI 7d9a8 .cfa: sp 0 +
STACK CFI 7d9ac .cfa: x29 64 +
STACK CFI INIT 7d9dc 284 .cfa: sp 0 +
STACK CFI 7d9e0 .cfa: sp 112 +
STACK CFI 7d9f8 .cfa: x29 80 + x19: .cfa -8 + ^ x20: .cfa -16 + ^ x21: .cfa -24 + ^ x22: .cfa -32 + ^ x23: .cfa -40 + ^ x24: .cfa -48 + ^ x25: .cfa -64 + ^ .ra: .cfa -72 + ^ x29: .cfa -80 + ^
STACK CFI 7dc00 .cfa: sp 112 +
STACK CFI 7dc18 .cfa: sp 0 +
STACK CFI 7dc1c .cfa: x29 80 +
STACK CFI INIT 7dc60 208 .cfa: sp 0 +
STACK CFI 7dc64 .cfa: sp 96 +
STACK CFI 7dc78 .cfa: x29 64 + x19: .cfa -8 + ^ x20: .cfa -16 + ^ x21: .cfa -24 + ^ x22: .cfa -32 + ^ x23: .cfa -40 + ^ x24: .cfa -48 + ^ .ra: .cfa -56 + ^ x29: .cfa -64 + ^
STACK CFI 7de20 .cfa: sp 96 +
STACK CFI 7de34 .cfa: sp 0 +
STACK CFI 7de38 .cfa: x29 64 +
STACK CFI INIT 7de68 360 .cfa: sp 0 +
STACK CFI 7de6c .cfa: sp 160 +
STACK CFI 7de88 .cfa: x29 96 + x19: .cfa -8 + ^ x20: .cfa -16 + ^ x21: .cfa -24 + ^ x22: .cfa -32 + ^ x23: .cfa -40 + ^ x24: .cfa -48 + ^ x25: .cfa -56 + ^ x26: .cfa -64 + ^ x27: .cfa -72 + ^ x28: .cfa -80 + ^ .ra: .cfa -88 + ^ x29: .cfa -96 + ^
STACK CFI 7e154 .cfa: sp 160 +
STACK CFI 7e170 .cfa: sp 0 +
STACK CFI 7e174 .cfa: x29 96 +
STACK CFI INIT 7e1c8 314 .cfa: sp 0 +
STACK CFI 7e1cc .cfa: sp 144 +
STACK CFI 7e1e8 .cfa: x29 96 + x19: .cfa -8 + ^ x20: .cfa -16 + ^ x21: .cfa -24 + ^ x22: .cfa -32 + ^ x23: .cfa -40 + ^ x24: .cfa -48 + ^ x25: .cfa -56 + ^ x26: .cfa -64 + ^ x27: .cfa -72 + ^ x28: .cfa -80 + ^ .ra: .cfa -88 + ^ x29: .cfa -96 + ^
STACK CFI 7e464 .cfa: sp 144 +
STACK CFI 7e480 .cfa: sp 0 +
STACK CFI 7e484 .cfa: x29 96 +
STACK CFI INIT 7e4dc 290 .cfa: sp 0 +
STACK CFI 7e4e0 .cfa: sp 128 +
STACK CFI 7e4f8 .cfa: x29 80 + x19: .cfa -8 + ^ x20: .cfa -16 + ^ x21: .cfa -24 + ^ x22: .cfa -32 + ^ x23: .cfa -40 + ^ x24: .cfa -48 + ^ x25: .cfa -56 + ^ x26: .cfa -64 + ^ .ra: .cfa -72 + ^ x29: .cfa -80 + ^
STACK CFI 7e74c .cfa: sp 128 +
STACK CFI 7e764 .cfa: sp 0 +
STACK CFI 7e768 .cfa: x29 80 +
STACK CFI INIT 7e76c dc8 .cfa: sp 0 +
STACK CFI 7e770 .cfa: sp 144 +
STACK CFI 7e78c .cfa: x29 96 + x19: .cfa -8 + ^ x20: .cfa -16 + ^ x21: .cfa -24 + ^ x22: .cfa -32 + ^ x23: .cfa -40 + ^ x24: .cfa -48 + ^ x25: .cfa -56 + ^ x26: .cfa -64 + ^ x27: .cfa -72 + ^ x28: .cfa -80 + ^ .ra: .cfa -88 + ^ x29: .cfa -96 + ^
STACK CFI 7f40c .cfa: sp 144 +
STACK CFI 7f428 .cfa: sp 0 +
STACK CFI 7f42c .cfa: x29 96 +
STACK CFI INIT 7f534 1d0 .cfa: sp 0 +
STACK CFI 7f538 .cfa: sp 80 +
STACK CFI 7f54c .cfa: x29 80 + x19: .cfa -8 + ^ x20: .cfa -16 + ^ x21: .cfa -24 + ^ x22: .cfa -32 + ^ x23: .cfa -40 + ^ x24: .cfa -48 + ^ x25: .cfa -64 + ^ .ra: .cfa -72 + ^ x29: .cfa -80 + ^
STACK CFI 7f6ec .cfa: sp 80 +
STACK CFI 7f700 .cfa: sp 0 +
STACK CFI INIT 7f704 23c .cfa: sp 0 +
STACK CFI 7f708 .cfa: sp 112 +
STACK CFI 7f71c .cfa: x29 64 + x19: .cfa -8 + ^ x20: .cfa -16 + ^ x21: .cfa -24 + ^ x22: .cfa -32 + ^ x23: .cfa -40 + ^ x24: .cfa -48 + ^ .ra: .cfa -56 + ^ x29: .cfa -64 + ^
STACK CFI 7f8f8 .cfa: sp 112 +
STACK CFI 7f90c .cfa: sp 0 +
STACK CFI 7f910 .cfa: x29 64 +
STACK CFI INIT 7f940 30c .cfa: sp 0 +
STACK CFI 7f944 .cfa: sp 80 +
STACK CFI 7f958 .cfa: x29 64 + x19: .cfa -8 + ^ x20: .cfa -16 + ^ x21: .cfa -24 + ^ x22: .cfa -32 + ^ x23: .cfa -40 + ^ x24: .cfa -48 + ^ .ra: .cfa -56 + ^ x29: .cfa -64 + ^
STACK CFI 7fad4 .cfa: sp 80 +
STACK CFI 7fae8 .cfa: sp 0 +
STACK CFI 7faec .cfa: x29 64 +
STACK CFI INIT 7fc4c 178 .cfa: sp 0 +
STACK CFI 7fc50 .cfa: sp 80 +
STACK CFI 7fc64 .cfa: x29 64 + x19: .cfa -8 + ^ x20: .cfa -16 + ^ x21: .cfa -24 + ^ x22: .cfa -32 + ^ x23: .cfa -40 + ^ x24: .cfa -48 + ^ .ra: .cfa -56 + ^ x29: .cfa -64 + ^
STACK CFI 7fda8 .cfa: sp 80 +
STACK CFI 7fdbc .cfa: sp 0 +
STACK CFI 7fdc0 .cfa: x29 64 +
STACK CFI INIT 7fdc4 178 .cfa: sp 0 +
STACK CFI 7fdc8 .cfa: sp 80 +
STACK CFI 7fddc .cfa: x29 64 + x19: .cfa -8 + ^ x20: .cfa -16 + ^ x21: .cfa -24 + ^ x22: .cfa -32 + ^ x23: .cfa -40 + ^ x24: .cfa -48 + ^ .ra: .cfa -56 + ^ x29: .cfa -64 + ^
STACK CFI 7ff20 .cfa: sp 80 +
STACK CFI 7ff34 .cfa: sp 0 +
STACK CFI 7ff38 .cfa: x29 64 +
STACK CFI INIT 7ff3c 240 .cfa: sp 0 +
STACK CFI 7ff40 .cfa: sp 96 +
STACK CFI 7ff58 .cfa: x29 96 + x19: .cfa -8 + ^ x20: .cfa -16 + ^ x21: .cfa -24 + ^ x22: .cfa -32 + ^ x23: .cfa -40 + ^ x24: .cfa -48 + ^ x25: .cfa -56 + ^ x26: .cfa -64 + ^ x27: .cfa -72 + ^ x28: .cfa -80 + ^ .ra: .cfa -88 + ^ x29: .cfa -96 + ^
STACK CFI 80160 .cfa: sp 96 +
STACK CFI 80178 .cfa: sp 0 +
STACK CFI INIT 80df0 154 .cfa: sp 0 +
STACK CFI 80df4 .cfa: sp 96 +
STACK CFI 80e08 .cfa: x29 64 + x19: .cfa -8 + ^ x20: .cfa -16 + ^ x21: .cfa -24 + ^ x22: .cfa -32 + ^ x23: .cfa -48 + ^ .ra: .cfa -56 + ^ x29: .cfa -64 + ^
STACK CFI 80ee8 .cfa: sp 96 +
STACK CFI 80efc .cfa: sp 0 +
STACK CFI 80f00 .cfa: x29 64 +
STACK CFI INIT 811ac 44 .cfa: sp 0 +
STACK CFI 811b0 .cfa: sp 32 +
STACK CFI 811b8 .cfa: x29 32 + x19: .cfa -16 + ^ .ra: .cfa -24 + ^ x29: .cfa -32 + ^
STACK CFI 811d4 .cfa: sp 32 +
STACK CFI 811dc .cfa: sp 0 +
STACK CFI 811e0 .cfa: x29 32 +
STACK CFI 811e4 .cfa: sp 32 +
STACK CFI 811ec .cfa: sp 0 +
STACK CFI INIT 811f0 1d0 .cfa: sp 0 +
STACK CFI 811f4 .cfa: sp 64 +
STACK CFI 81204 .cfa: x29 64 + x19: .cfa -8 + ^ x20: .cfa -16 + ^ x21: .cfa -24 + ^ x22: .cfa -32 + ^ x23: .cfa -40 + ^ x24: .cfa -48 + ^ .ra: .cfa -56 + ^ x29: .cfa -64 + ^
STACK CFI 812c4 .cfa: sp 64 +
STACK CFI 812d4 .cfa: sp 0 +
STACK CFI 812d8 .cfa: x29 64 +
STACK CFI INIT 813c0 17c .cfa: sp 0 +
STACK CFI INIT 818f4 a0 .cfa: sp 0 +
STACK CFI 818f8 .cfa: sp 48 +
STACK CFI 81904 .cfa: x29 48 + x19: .cfa -8 + ^ x20: .cfa -16 + ^ x21: .cfa -24 + ^ x22: .cfa -32 + ^ .ra: .cfa -40 + ^ x29: .cfa -48 + ^
STACK CFI 81970 .cfa: sp 48 +
STACK CFI 8197c .cfa: sp 0 +
STACK CFI 81980 .cfa: sp 48 +
STACK CFI 8198c .cfa: sp 0 +
STACK CFI 81990 .cfa: x29 48 +
STACK CFI INIT 82644 158 .cfa: sp 0 +
STACK CFI 82648 .cfa: sp 96 +
STACK CFI 8265c .cfa: x29 64 + x19: .cfa -8 + ^ x20: .cfa -16 + ^ x21: .cfa -24 + ^ x22: .cfa -32 + ^ x23: .cfa -48 + ^ .ra: .cfa -56 + ^ x29: .cfa -64 + ^
STACK CFI 82740 .cfa: sp 96 +
STACK CFI 82754 .cfa: sp 0 +
STACK CFI 82758 .cfa: x29 64 +
STACK CFI INIT 8279c 190 .cfa: sp 0 +
STACK CFI INIT 83410 1dc .cfa: sp 0 +
STACK CFI 83414 .cfa: sp 80 +
STACK CFI 83428 .cfa: x29 80 + x19: .cfa -8 + ^ x20: .cfa -16 + ^ x21: .cfa -24 + ^ x22: .cfa -32 + ^ x23: .cfa -40 + ^ x24: .cfa -48 + ^ x25: .cfa -64 + ^ .ra: .cfa -72 + ^ x29: .cfa -80 + ^
STACK CFI 835d4 .cfa: sp 80 +
STACK CFI 835e8 .cfa: sp 0 +
STACK CFI INIT 84a10 124 .cfa: sp 0 +
STACK CFI 84a40 .cfa: sp 32 +
STACK CFI 84a48 .cfa: x29 32 + x19: .cfa -8 + ^ x20: .cfa -16 + ^ .ra: .cfa -24 + ^ x29: .cfa -32 + ^
STACK CFI 84b28 .cfa: sp 32 +
STACK CFI 84b30 .cfa: sp 0 +
STACK CFI INIT 85290 324 .cfa: sp 0 +
STACK CFI 85294 .cfa: sp 64 +
STACK CFI 852a4 .cfa: x29 64 + x19: .cfa -8 + ^ x20: .cfa -16 + ^ x21: .cfa -24 + ^ x22: .cfa -32 + ^ x23: .cfa -40 + ^ x24: .cfa -48 + ^ .ra: .cfa -56 + ^ x29: .cfa -64 + ^
STACK CFI 85320 .cfa: sp 64 +
STACK CFI 85330 .cfa: sp 0 +
STACK CFI 85334 .cfa: x29 64 +
STACK CFI 8550c .cfa: sp 64 +
STACK CFI 8551c .cfa: sp 0 +
STACK CFI 85520 .cfa: x29 64 +
STACK CFI 85530 .cfa: sp 64 +
STACK CFI 85540 .cfa: sp 0 +
STACK CFI 85544 .cfa: x29 64 +
STACK CFI INIT 855b4 a0 .cfa: sp 0 +
STACK CFI 855b8 .cfa: sp 48 +
STACK CFI 855c4 .cfa: x29 48 + x19: .cfa -8 + ^ x20: .cfa -16 + ^ x21: .cfa -24 + ^ x22: .cfa -32 + ^ .ra: .cfa -40 + ^ x29: .cfa -48 + ^
STACK CFI 85630 .cfa: sp 48 +
STACK CFI 8563c .cfa: sp 0 +
STACK CFI 85640 .cfa: sp 48 +
STACK CFI 8564c .cfa: sp 0 +
STACK CFI 85650 .cfa: x29 48 +
STACK CFI INIT 86500 160 .cfa: sp 0 +
STACK CFI 86504 .cfa: sp 64 +
STACK CFI 86514 .cfa: x29 64 + x19: .cfa -8 + ^ x20: .cfa -16 + ^ x21: .cfa -24 + ^ x22: .cfa -32 + ^ x23: .cfa -48 + ^ .ra: .cfa -56 + ^ x29: .cfa -64 + ^
STACK CFI 8660c .cfa: sp 64 +
STACK CFI 8661c .cfa: sp 0 +
STACK CFI 86620 .cfa: x29 64 +
STACK CFI INIT 86660 214 .cfa: sp 0 +
STACK CFI 86664 .cfa: sp 128 +
STACK CFI 86680 .cfa: x29 96 + x19: .cfa -8 + ^ x20: .cfa -16 + ^ x21: .cfa -24 + ^ x22: .cfa -32 + ^ x23: .cfa -40 + ^ x24: .cfa -48 + ^ x25: .cfa -56 + ^ x26: .cfa -64 + ^ x27: .cfa -80 + ^ .ra: .cfa -88 + ^ x29: .cfa -96 + ^
STACK CFI 867fc .cfa: sp 128 +
STACK CFI 86818 .cfa: sp 0 +
STACK CFI 8681c .cfa: x29 96 +
STACK CFI INIT 884d8 290 .cfa: sp 0 +
STACK CFI 884dc .cfa: sp 16 +
STACK CFI 884e0 .cfa: x29 16 + .ra: .cfa -8 + ^ x29: .cfa -16 + ^
STACK CFI 8856c .cfa: sp 16 +
STACK CFI 88570 .cfa: sp 0 +
STACK CFI 88574 .cfa: x29 16 +
STACK CFI 885c4 .cfa: sp 16 +
STACK CFI 885c8 .cfa: sp 0 +
STACK CFI 885cc .cfa: x29 16 +
STACK CFI 88730 .cfa: sp 16 +
STACK CFI 88734 .cfa: sp 0 +
STACK CFI 88738 .cfa: x29 16 +
STACK CFI INIT 88768 134 .cfa: sp 0 +
STACK CFI 8876c .cfa: sp 96 +
STACK CFI 88784 .cfa: x29 96 + x19: .cfa -8 + ^ x20: .cfa -16 + ^ x21: .cfa -24 + ^ x22: .cfa -32 + ^ x23: .cfa -40 + ^ x24: .cfa -48 + ^ x25: .cfa -56 + ^ x26: .cfa -64 + ^ x27: .cfa -72 + ^ x28: .cfa -80 + ^ .ra: .cfa -88 + ^ x29: .cfa -96 + ^
STACK CFI 88854 .cfa: sp 96 +
STACK CFI 88858 .cfa: x29 96 +
STACK CFI 8885c .cfa: sp 96 +
STACK CFI 88874 .cfa: sp 0 +
STACK CFI 88878 .cfa: x29 96 +
STACK CFI 88898 .cfa: sp 96 +
STACK CFI INIT 8889c e4c .cfa: sp 0 +
STACK CFI 888a0 .cfa: sp 192 +
STACK CFI 888bc .cfa: x29 96 + x19: .cfa -8 + ^ x20: .cfa -16 + ^ x21: .cfa -24 + ^ x22: .cfa -32 + ^ x23: .cfa -40 + ^ x24: .cfa -48 + ^ x25: .cfa -56 + ^ x26: .cfa -64 + ^ x27: .cfa -72 + ^ x28: .cfa -80 + ^ .ra: .cfa -88 + ^ x29: .cfa -96 + ^
STACK CFI 895d0 .cfa: sp 192 +
STACK CFI 895ec .cfa: sp 0 +
STACK CFI 895f0 .cfa: x29 96 +
STACK CFI INIT 896e8 1068 .cfa: sp 0 +
STACK CFI 896ec .cfa: sp 288 +
STACK CFI 89708 .cfa: x29 96 + x19: .cfa -8 + ^ x20: .cfa -16 + ^ x21: .cfa -24 + ^ x22: .cfa -32 + ^ x23: .cfa -40 + ^ x24: .cfa -48 + ^ x25: .cfa -56 + ^ x26: .cfa -64 + ^ x27: .cfa -72 + ^ x28: .cfa -80 + ^ .ra: .cfa -88 + ^ x29: .cfa -96 + ^
STACK CFI 8a498 .cfa: sp 288 +
STACK CFI 8a4b4 .cfa: sp 0 +
STACK CFI 8a4b8 .cfa: x29 96 +
STACK CFI INIT 8a750 520 .cfa: sp 0 +
STACK CFI 8a754 .cfa: sp 144 +
STACK CFI 8a770 .cfa: x29 96 + x19: .cfa -8 + ^ x20: .cfa -16 + ^ x21: .cfa -24 + ^ x22: .cfa -32 + ^ x23: .cfa -40 + ^ x24: .cfa -48 + ^ x25: .cfa -56 + ^ x26: .cfa -64 + ^ x27: .cfa -72 + ^ x28: .cfa -80 + ^ .ra: .cfa -88 + ^ x29: .cfa -96 + ^
STACK CFI 8ac4c .cfa: sp 144 +
STACK CFI 8ac68 .cfa: sp 0 +
STACK CFI 8ac6c .cfa: x29 96 +
STACK CFI INIT 8b6bc 12dc .cfa: sp 0 +
STACK CFI 8b6c0 .cfa: sp 208 +
STACK CFI 8b6dc .cfa: x29 96 + x19: .cfa -8 + ^ x20: .cfa -16 + ^ x21: .cfa -24 + ^ x22: .cfa -32 + ^ x23: .cfa -40 + ^ x24: .cfa -48 + ^ x25: .cfa -56 + ^ x26: .cfa -64 + ^ x27: .cfa -72 + ^ x28: .cfa -80 + ^ .ra: .cfa -88 + ^ x29: .cfa -96 + ^
STACK CFI 8c974 .cfa: sp 208 +
STACK CFI 8c990 .cfa: sp 0 +
STACK CFI 8c994 .cfa: x29 96 +
STACK CFI INIT 8c998 1b8 .cfa: sp 0 +
STACK CFI INIT 3ef90 b4 .cfa: sp 0 +
STACK CFI 3ef94 .cfa: sp 32 +
STACK CFI 3ef9c .cfa: x29 32 + x19: .cfa -16 + ^ .ra: .cfa -24 + ^ x29: .cfa -32 + ^
STACK CFI 3f014 .cfa: sp 32 +
STACK CFI 3f01c .cfa: sp 0 +
STACK CFI 3f020 .cfa: sp 32 +
STACK CFI 3f028 .cfa: sp 0 +
STACK CFI 3f02c .cfa: x29 32 +
STACK CFI INIT 3f044 a0 .cfa: sp 0 +
STACK CFI 3f048 .cfa: sp 32 +
STACK CFI 3f050 .cfa: x29 32 + x19: .cfa -16 + ^ .ra: .cfa -24 + ^ x29: .cfa -32 + ^
STACK CFI 3f068 .cfa: sp 32 +
STACK CFI 3f070 .cfa: sp 0 +
STACK CFI 3f074 .cfa: x29 32 +
STACK CFI 3f0c0 .cfa: sp 32 +
STACK CFI 3f0c8 .cfa: sp 0 +
STACK CFI 3f0cc .cfa: x29 32 +
STACK CFI INIT 3f18c 1a4 .cfa: sp 0 +
STACK CFI 3f190 .cfa: sp 112 +
STACK CFI 3f1a4 .cfa: x29 64 + x19: .cfa -8 + ^ x20: .cfa -16 + ^ x21: .cfa -24 + ^ x22: .cfa -32 + ^ x23: .cfa -48 + ^ .ra: .cfa -56 + ^ x29: .cfa -64 + ^
STACK CFI 3f2a8 .cfa: sp 112 +
STACK CFI 3f2bc .cfa: sp 0 +
STACK CFI 3f2c0 .cfa: x29 64 +
STACK CFI INIT 3f5cc 408 .cfa: sp 0 +
STACK CFI 3f5d0 .cfa: sp 112 +
STACK CFI 3f5e8 .cfa: x29 80 + x19: .cfa -8 + ^ x20: .cfa -16 + ^ x21: .cfa -24 + ^ x22: .cfa -32 + ^ x23: .cfa -40 + ^ x24: .cfa -48 + ^ x25: .cfa -64 + ^ .ra: .cfa -72 + ^ x29: .cfa -80 + ^
STACK CFI 3f944 .cfa: sp 112 +
STACK CFI 3f95c .cfa: sp 0 +
STACK CFI 3f960 .cfa: x29 80 +
STACK CFI INIT 3f9d4 460 .cfa: sp 0 +
STACK CFI 3f9d8 .cfa: sp 240 +
STACK CFI 3f9e8 .cfa: x29 48 + x19: .cfa -8 + ^ x20: .cfa -16 + ^ x21: .cfa -24 + ^ x22: .cfa -32 + ^ .ra: .cfa -40 + ^ x29: .cfa -48 + ^
STACK CFI 3fd28 .cfa: sp 240 +
STACK CFI 3fd38 .cfa: sp 0 +
STACK CFI 3fd3c .cfa: x29 48 +
STACK CFI INIT 3fe34 3d4 .cfa: sp 0 +
STACK CFI 3fe38 .cfa: sp 208 +
STACK CFI 3fe4c .cfa: x29 64 + x19: .cfa -8 + ^ x20: .cfa -16 + ^ x21: .cfa -24 + ^ x22: .cfa -32 + ^ x23: .cfa -48 + ^ .ra: .cfa -56 + ^ x29: .cfa -64 + ^
STACK CFI 40134 .cfa: sp 208 +
STACK CFI 40148 .cfa: sp 0 +
STACK CFI 4014c .cfa: x29 64 +
STACK CFI INIT 40208 1a4 .cfa: sp 0 +
STACK CFI 4020c .cfa: sp 96 +
STACK CFI 4021c .cfa: x29 48 + x19: .cfa -8 + ^ x20: .cfa -16 + ^ x21: .cfa -24 + ^ x22: .cfa -32 + ^ .ra: .cfa -40 + ^ x29: .cfa -48 + ^
STACK CFI 40328 .cfa: sp 96 +
STACK CFI 40338 .cfa: sp 0 +
STACK CFI 4033c .cfa: x29 48 +
STACK CFI INIT 403ac 730 .cfa: sp 0 +
STACK CFI 403b0 .cfa: sp 304 +
STACK CFI 403cc .cfa: x29 96 + x19: .cfa -8 + ^ x20: .cfa -16 + ^ x21: .cfa -24 + ^ x22: .cfa -32 + ^ x23: .cfa -40 + ^ x24: .cfa -48 + ^ x25: .cfa -56 + ^ x26: .cfa -64 + ^ x27: .cfa -72 + ^ x28: .cfa -80 + ^ .ra: .cfa -88 + ^ x29: .cfa -96 + ^
STACK CFI 40940 .cfa: sp 304 +
STACK CFI 4095c .cfa: sp 0 +
STACK CFI 40960 .cfa: x29 96 +
STACK CFI INIT 40adc 6bc .cfa: sp 0 +
STACK CFI 40ae0 .cfa: sp 160 +
STACK CFI 40afc .cfa: x29 96 + x19: .cfa -8 + ^ x20: .cfa -16 + ^ x21: .cfa -24 + ^ x22: .cfa -32 + ^ x23: .cfa -40 + ^ x24: .cfa -48 + ^ x25: .cfa -56 + ^ x26: .cfa -64 + ^ x27: .cfa -72 + ^ x28: .cfa -80 + ^ .ra: .cfa -88 + ^ x29: .cfa -96 + ^
STACK CFI 4114c .cfa: sp 160 +
STACK CFI 41168 .cfa: sp 0 +
STACK CFI 4116c .cfa: x29 96 +
STACK CFI INIT 41198 280 .cfa: sp 0 +
STACK CFI 4119c .cfa: sp 96 +
STACK CFI 411b0 .cfa: x29 64 + x19: .cfa -8 + ^ x20: .cfa -16 + ^ x21: .cfa -24 + ^ x22: .cfa -32 + ^ x23: .cfa -40 + ^ x24: .cfa -48 + ^ .ra: .cfa -56 + ^ x29: .cfa -64 + ^
STACK CFI 413b4 .cfa: sp 96 +
STACK CFI 413c8 .cfa: sp 0 +
STACK CFI 413cc .cfa: x29 64 +
STACK CFI INIT 41468 43c .cfa: sp 0 +
STACK CFI 4146c .cfa: sp 192 +
STACK CFI 41488 .cfa: x29 96 + x19: .cfa -8 + ^ x20: .cfa -16 + ^ x21: .cfa -24 + ^ x22: .cfa -32 + ^ x23: .cfa -40 + ^ x24: .cfa -48 + ^ x25: .cfa -56 + ^ x26: .cfa -64 + ^ x27: .cfa -72 + ^ x28: .cfa -80 + ^ .ra: .cfa -88 + ^ x29: .cfa -96 + ^
STACK CFI 417b8 .cfa: sp 192 +
STACK CFI 417d4 .cfa: sp 0 +
STACK CFI 417d8 .cfa: x29 96 +
STACK CFI INIT 418a4 17e8 .cfa: sp 0 +
STACK CFI 418a8 .cfa: sp 96 +
STACK CFI 418c0 .cfa: x29 96 + x19: .cfa -8 + ^ x20: .cfa -16 + ^ x21: .cfa -24 + ^ x22: .cfa -32 + ^ x23: .cfa -40 + ^ x24: .cfa -48 + ^ x25: .cfa -56 + ^ x26: .cfa -64 + ^ x27: .cfa -72 + ^ x28: .cfa -80 + ^ .ra: .cfa -88 + ^ x29: .cfa -96 + ^
STACK CFI 42d34 .cfa: sp 96 +
STACK CFI 42d4c .cfa: sp 0 +
STACK CFI 42d50 .cfa: x29 96 +
STACK CFI INIT 430dc 15c .cfa: sp 0 +
STACK CFI 430e0 .cfa: sp 64 +
STACK CFI 430f0 .cfa: x29 64 + x19: .cfa -8 + ^ x20: .cfa -16 + ^ x21: .cfa -24 + ^ x22: .cfa -32 + ^ x23: .cfa -40 + ^ x24: .cfa -48 + ^ .ra: .cfa -56 + ^ x29: .cfa -64 + ^
STACK CFI 431a0 .cfa: sp 64 +
STACK CFI 431b0 .cfa: sp 0 +
STACK CFI 431b4 .cfa: x29 64 +
STACK CFI 431f8 .cfa: sp 64 +
STACK CFI 43208 .cfa: sp 0 +
STACK CFI 4320c .cfa: x29 64 +
STACK CFI INIT 4327c 300 .cfa: sp 0 +
STACK CFI 43280 .cfa: sp 144 +
STACK CFI 4329c .cfa: x29 96 + x19: .cfa -8 + ^ x20: .cfa -16 + ^ x21: .cfa -24 + ^ x22: .cfa -32 + ^ x23: .cfa -40 + ^ x24: .cfa -48 + ^ x25: .cfa -56 + ^ x26: .cfa -64 + ^ x27: .cfa -72 + ^ x28: .cfa -80 + ^ .ra: .cfa -88 + ^ x29: .cfa -96 + ^
STACK CFI 43504 .cfa: sp 144 +
STACK CFI 43520 .cfa: sp 0 +
STACK CFI 43524 .cfa: x29 96 +
STACK CFI INIT 4357c 1c0 .cfa: sp 0 +
STACK CFI 43580 .cfa: sp 128 +
STACK CFI 43594 .cfa: x29 64 + x19: .cfa -8 + ^ x20: .cfa -16 + ^ x21: .cfa -24 + ^ x22: .cfa -32 + ^ x23: .cfa -40 + ^ x24: .cfa -48 + ^ .ra: .cfa -56 + ^ x29: .cfa -64 + ^
STACK CFI 436b4 .cfa: sp 128 +
STACK CFI 436c8 .cfa: sp 0 +
STACK CFI 436cc .cfa: x29 64 +
STACK CFI INIT 4373c 71c .cfa: sp 0 +
STACK CFI 43740 .cfa: sp 320 +
STACK CFI 43758 .cfa: x29 80 + x19: .cfa -8 + ^ x20: .cfa -16 + ^ x21: .cfa -24 + ^ x22: .cfa -32 + ^ x23: .cfa -40 + ^ x24: .cfa -48 + ^ x25: .cfa -56 + ^ x28: .cfa -64 + ^ .ra: .cfa -72 + ^ x29: .cfa -80 + ^
STACK CFI 43d44 .cfa: sp 320 +
STACK CFI 43d5c .cfa: sp 0 +
STACK CFI 43d60 .cfa: x29 80 +
STACK CFI INIT 43e58 778 .cfa: sp 0 +
STACK CFI 43e5c .cfa: sp 480 +
STACK CFI 43e78 .cfa: x29 96 + x19: .cfa -8 + ^ x20: .cfa -16 + ^ x21: .cfa -24 + ^ x22: .cfa -32 + ^ x23: .cfa -40 + ^ x24: .cfa -48 + ^ x25: .cfa -56 + ^ x26: .cfa -64 + ^ x27: .cfa -72 + ^ x28: .cfa -80 + ^ .ra: .cfa -88 + ^ x29: .cfa -96 + ^
STACK CFI 4448c .cfa: sp 480 +
STACK CFI 444a8 .cfa: sp 0 +
STACK CFI 444ac .cfa: x29 96 +
STACK CFI INIT 445d0 24 .cfa: sp 0 +
STACK CFI 445d4 .cfa: sp 16 +
STACK CFI 445d8 .cfa: x29 16 + .ra: .cfa -8 + ^ x29: .cfa -16 + ^
STACK CFI 445e8 .cfa: sp 16 +
STACK CFI 445ec .cfa: sp 0 +
STACK CFI 445f0 .cfa: x29 16 +
STACK CFI INIT 44654 2f0 .cfa: sp 0 +
STACK CFI 44658 .cfa: sp 96 +
STACK CFI 44668 .cfa: x29 48 + x19: .cfa -8 + ^ x20: .cfa -16 + ^ x21: .cfa -24 + ^ x22: .cfa -32 + ^ .ra: .cfa -40 + ^ x29: .cfa -48 + ^
STACK CFI 448e4 .cfa: sp 96 +
STACK CFI 448f4 .cfa: sp 0 +
STACK CFI 448f8 .cfa: x29 48 +
STACK CFI INIT 449e0 818 .cfa: sp 0 +
STACK CFI 449e4 .cfa: sp 272 +
STACK CFI 449fc .cfa: x29 80 + x19: .cfa -8 + ^ x20: .cfa -16 + ^ x21: .cfa -24 + ^ x22: .cfa -32 + ^ x23: .cfa -40 + ^ x24: .cfa -48 + ^ x25: .cfa -56 + ^ x28: .cfa -64 + ^ .ra: .cfa -72 + ^ x29: .cfa -80 + ^
STACK CFI 44ffc .cfa: sp 272 +
STACK CFI 45014 .cfa: sp 0 +
STACK CFI 45018 .cfa: x29 80 +
STACK CFI INIT 451f8 6a8 .cfa: sp 0 +
STACK CFI 451fc .cfa: sp 176 +
STACK CFI 45218 .cfa: x29 96 + x19: .cfa -8 + ^ x20: .cfa -16 + ^ x21: .cfa -24 + ^ x22: .cfa -32 + ^ x23: .cfa -40 + ^ x24: .cfa -48 + ^ x25: .cfa -56 + ^ x26: .cfa -64 + ^ x27: .cfa -72 + ^ x28: .cfa -80 + ^ .ra: .cfa -88 + ^ x29: .cfa -96 + ^
STACK CFI 45678 .cfa: sp 176 +
STACK CFI 45694 .cfa: sp 0 +
STACK CFI 45698 .cfa: x29 96 +
STACK CFI INIT 45b9c 110 .cfa: sp 0 +
STACK CFI 45ba0 .cfa: sp 80 +
STACK CFI 45bb4 .cfa: x29 64 + x19: .cfa -8 + ^ x20: .cfa -16 + ^ x21: .cfa -24 + ^ x22: .cfa -32 + ^ x23: .cfa -48 + ^ .ra: .cfa -56 + ^ x29: .cfa -64 + ^
STACK CFI 45c6c .cfa: sp 80 +
STACK CFI 45c80 .cfa: sp 0 +
STACK CFI 45c84 .cfa: x29 64 +
STACK CFI INIT 45cac a1c .cfa: sp 0 +
STACK CFI 45cb0 .cfa: sp 256 +
STACK CFI 45cd0 .cfa: x29 96 + x19: .cfa -8 + ^ x20: .cfa -16 + ^ x21: .cfa -24 + ^ x22: .cfa -32 + ^ x23: .cfa -40 + ^ x24: .cfa -48 + ^ x25: .cfa -56 + ^ x26: .cfa -64 + ^ x27: .cfa -72 + ^ x28: .cfa -80 + ^ .ra: .cfa -88 + ^ x29: .cfa -96 + ^ v8: .cfa -112 + ^
STACK CFI 46540 .cfa: sp 256 +
STACK CFI 46560 .cfa: sp 0 +
STACK CFI 46564 .cfa: x29 96 +
STACK CFI INIT 46974 12c .cfa: sp 0 +
STACK CFI 46978 .cfa: sp 80 +
STACK CFI 46988 .cfa: x29 48 + x19: .cfa -8 + ^ x20: .cfa -16 + ^ x21: .cfa -24 + ^ x22: .cfa -32 + ^ .ra: .cfa -40 + ^ x29: .cfa -48 + ^
STACK CFI 46a84 .cfa: sp 80 +
STACK CFI 46a94 .cfa: sp 0 +
STACK CFI 46a98 .cfa: x29 48 +
STACK CFI INIT 46e58 1dc .cfa: sp 0 +
STACK CFI 46e5c .cfa: sp 208 +
STACK CFI 46e74 .cfa: x29 80 + x19: .cfa -8 + ^ x20: .cfa -16 + ^ x21: .cfa -24 + ^ x22: .cfa -32 + ^ x23: .cfa -40 + ^ x24: .cfa -48 + ^ x25: .cfa -64 + ^ .ra: .cfa -72 + ^ x29: .cfa -80 + ^
STACK CFI 46fc0 .cfa: sp 208 +
STACK CFI 46fd8 .cfa: sp 0 +
STACK CFI 46fdc .cfa: x29 80 +
STACK CFI INIT 47048 50 .cfa: sp 0 +
STACK CFI 4704c .cfa: sp 32 +
STACK CFI 47054 .cfa: x29 32 + x19: .cfa -8 + ^ x20: .cfa -16 + ^ .ra: .cfa -24 + ^ x29: .cfa -32 + ^
STACK CFI INIT 471dc 50 .cfa: sp 0 +
STACK CFI 471e0 .cfa: sp 32 +
STACK CFI 471e8 .cfa: x29 32 + x19: .cfa -8 + ^ x20: .cfa -16 + ^ .ra: .cfa -24 + ^ x29: .cfa -32 + ^
STACK CFI INIT 472f0 9cc .cfa: sp 0 +
STACK CFI 472f4 .cfa: sp 144 +
STACK CFI 47310 .cfa: x29 96 + x19: .cfa -8 + ^ x20: .cfa -16 + ^ x21: .cfa -24 + ^ x22: .cfa -32 + ^ x23: .cfa -40 + ^ x24: .cfa -48 + ^ x25: .cfa -56 + ^ x26: .cfa -64 + ^ x27: .cfa -72 + ^ x28: .cfa -80 + ^ .ra: .cfa -88 + ^ x29: .cfa -96 + ^
STACK CFI 47720 .cfa: sp 144 +
STACK CFI 4773c .cfa: sp 0 +
STACK CFI 47740 .cfa: x29 96 +
STACK CFI 47bac .cfa: sp 144 +
STACK CFI 47bc8 .cfa: sp 0 +
STACK CFI 47bcc .cfa: x29 96 +
STACK CFI INIT 47fd0 cc .cfa: sp 0 +
STACK CFI 47fd4 .cfa: sp 64 +
STACK CFI 47fe4 .cfa: x29 48 + x19: .cfa -8 + ^ x20: .cfa -16 + ^ x21: .cfa -32 + ^ .ra: .cfa -40 + ^ x29: .cfa -48 + ^
STACK CFI 48060 .cfa: sp 64 +
STACK CFI 48070 .cfa: sp 0 +
STACK CFI 48074 .cfa: x29 48 +
STACK CFI INIT 485a0 bc .cfa: sp 0 +
STACK CFI 485a4 .cfa: sp 64 +
STACK CFI 485b0 .cfa: x29 32 + x19: .cfa -8 + ^ x20: .cfa -16 + ^ .ra: .cfa -24 + ^ x29: .cfa -32 + ^
STACK CFI 4861c .cfa: sp 64 +
STACK CFI 48628 .cfa: sp 0 +
STACK CFI 4862c .cfa: x29 32 +
STACK CFI INIT 48c7c 1dc .cfa: sp 0 +
STACK CFI 48c80 .cfa: sp 96 +
STACK CFI 48c94 .cfa: x29 64 + x19: .cfa -8 + ^ x20: .cfa -16 + ^ x21: .cfa -24 + ^ x22: .cfa -32 + ^ x23: .cfa -48 + ^ .ra: .cfa -56 + ^ x29: .cfa -64 + ^
STACK CFI 48dd0 .cfa: sp 96 +
STACK CFI 48de4 .cfa: sp 0 +
STACK CFI 48de8 .cfa: x29 64 +
STACK CFI INIT 48e80 6c4 .cfa: sp 0 +
STACK CFI 48e84 .cfa: sp 112 +
STACK CFI 48ea0 .cfa: x29 96 + x19: .cfa -8 + ^ x20: .cfa -16 + ^ x21: .cfa -24 + ^ x22: .cfa -32 + ^ x23: .cfa -40 + ^ x24: .cfa -48 + ^ x25: .cfa -56 + ^ x26: .cfa -64 + ^ x27: .cfa -72 + ^ x28: .cfa -80 + ^ .ra: .cfa -88 + ^ x29: .cfa -96 + ^
STACK CFI 48fe4 .cfa: sp 112 +
STACK CFI 49000 .cfa: sp 0 +
STACK CFI 49004 .cfa: x29 96 +
STACK CFI 49010 .cfa: sp 112 +
STACK CFI 4902c .cfa: sp 0 +
STACK CFI 49030 .cfa: x29 96 +
STACK CFI 494cc .cfa: sp 112 +
STACK CFI 494e8 .cfa: sp 0 +
STACK CFI 494ec .cfa: x29 96 +
STACK CFI INIT 49544 4c .cfa: sp 0 +
STACK CFI 49548 .cfa: sp 32 +
STACK CFI 49550 .cfa: x29 32 + x19: .cfa -8 + ^ x20: .cfa -16 + ^ .ra: .cfa -24 + ^ x29: .cfa -32 + ^
STACK CFI INIT 49b14 4c .cfa: sp 0 +
STACK CFI 49b18 .cfa: sp 32 +
STACK CFI 49b20 .cfa: x29 32 + x19: .cfa -8 + ^ x20: .cfa -16 + ^ .ra: .cfa -24 + ^ x29: .cfa -32 + ^
STACK CFI INIT 49c78 364 .cfa: sp 0 +
STACK CFI 49c7c .cfa: sp 144 +
STACK CFI 49c90 .cfa: x29 64 + x19: .cfa -8 + ^ x20: .cfa -16 + ^ x21: .cfa -24 + ^ x22: .cfa -32 + ^ x23: .cfa -48 + ^ .ra: .cfa -56 + ^ x29: .cfa -64 + ^
STACK CFI 49e24 .cfa: sp 144 +
STACK CFI 49e38 .cfa: sp 0 +
STACK CFI 49e3c .cfa: x29 64 +
STACK CFI INIT 49fdc 644 .cfa: sp 0 +
STACK CFI 49fe0 .cfa: sp 64 +
STACK CFI 49ff0 .cfa: x29 64 + x19: .cfa -8 + ^ x20: .cfa -16 + ^ x21: .cfa -24 + ^ x22: .cfa -32 + ^ x23: .cfa -48 + ^ .ra: .cfa -56 + ^ x29: .cfa -64 + ^
STACK CFI 4a05c .cfa: sp 64 +
STACK CFI 4a06c .cfa: sp 0 +
STACK CFI 4a070 .cfa: x29 64 +
STACK CFI 4a0c0 .cfa: sp 64 +
STACK CFI 4a0d0 .cfa: sp 0 +
STACK CFI 4a0d4 .cfa: x29 64 +
STACK CFI 4a150 .cfa: sp 64 +
STACK CFI 4a160 .cfa: sp 0 +
STACK CFI 4a164 .cfa: x29 64 +
STACK CFI 4a254 .cfa: sp 64 +
STACK CFI 4a264 .cfa: sp 0 +
STACK CFI 4a268 .cfa: x29 64 +
STACK CFI 4a2f8 .cfa: sp 64 +
STACK CFI 4a308 .cfa: sp 0 +
STACK CFI 4a30c .cfa: x29 64 +
STACK CFI 4a324 .cfa: sp 64 +
STACK CFI 4a334 .cfa: sp 0 +
STACK CFI 4a338 .cfa: x29 64 +
STACK CFI 4a4c0 .cfa: sp 64 +
STACK CFI 4a4d0 .cfa: sp 0 +
STACK CFI 4a4d4 .cfa: x29 64 +
STACK CFI 4a4e8 .cfa: sp 64 +
STACK CFI 4a4f8 .cfa: sp 0 +
STACK CFI 4a4fc .cfa: x29 64 +
STACK CFI 4a584 .cfa: sp 64 +
STACK CFI 4a594 .cfa: sp 0 +
STACK CFI 4a598 .cfa: x29 64 +
STACK CFI INIT 4aa14 6c .cfa: sp 0 +
STACK CFI 4aa18 .cfa: sp 32 +
STACK CFI 4aa20 .cfa: x29 32 + x19: .cfa -8 + ^ x20: .cfa -16 + ^ .ra: .cfa -24 + ^ x29: .cfa -32 + ^
STACK CFI 4aa60 .cfa: sp 32 +
STACK CFI 4aa68 .cfa: sp 0 +
STACK CFI 4aa6c .cfa: x29 32 +
STACK CFI INIT 4ab34 4c .cfa: sp 0 +
STACK CFI 4ab38 .cfa: sp 32 +
STACK CFI 4ab40 .cfa: x29 32 + x19: .cfa -8 + ^ x20: .cfa -16 + ^ .ra: .cfa -24 + ^ x29: .cfa -32 + ^
STACK CFI INIT 4afa8 1d0 .cfa: sp 0 +
STACK CFI 4afac .cfa: sp 176 +
STACK CFI 4afbc .cfa: x29 48 + x19: .cfa -8 + ^ x20: .cfa -16 + ^ x21: .cfa -24 + ^ x22: .cfa -32 + ^ .ra: .cfa -40 + ^ x29: .cfa -48 + ^
STACK CFI 4b110 .cfa: sp 176 +
STACK CFI 4b120 .cfa: sp 0 +
STACK CFI 4b124 .cfa: x29 48 +
STACK CFI 4b134 .cfa: sp 176 +
STACK CFI 4b144 .cfa: sp 0 +
STACK CFI 4b148 .cfa: x29 48 +
STACK CFI INIT 4b178 44c .cfa: sp 0 +
STACK CFI 4b17c .cfa: sp 256 +
STACK CFI 4b198 .cfa: x29 96 + x19: .cfa -8 + ^ x20: .cfa -16 + ^ x21: .cfa -24 + ^ x22: .cfa -32 + ^ x23: .cfa -40 + ^ x24: .cfa -48 + ^ x25: .cfa -56 + ^ x26: .cfa -64 + ^ x27: .cfa -72 + ^ x28: .cfa -80 + ^ .ra: .cfa -88 + ^ x29: .cfa -96 + ^
STACK CFI 4b4c8 .cfa: sp 256 +
STACK CFI 4b4e4 .cfa: sp 0 +
STACK CFI 4b4e8 .cfa: x29 96 +
STACK CFI INIT 4b7ec 4c .cfa: sp 0 +
STACK CFI 4b7f0 .cfa: sp 32 +
STACK CFI 4b7f8 .cfa: x29 32 + x19: .cfa -8 + ^ x20: .cfa -16 + ^ .ra: .cfa -24 + ^ x29: .cfa -32 + ^
STACK CFI INIT 4b838 170 .cfa: sp 0 +
STACK CFI 4b83c .cfa: sp 80 +
STACK CFI 4b850 .cfa: x29 80 + x19: .cfa -8 + ^ x20: .cfa -16 + ^ x21: .cfa -24 + ^ x22: .cfa -32 + ^ x23: .cfa -40 + ^ x24: .cfa -48 + ^ x25: .cfa -64 + ^ .ra: .cfa -72 + ^ x29: .cfa -80 + ^
STACK CFI 4b944 .cfa: sp 80 +
STACK CFI 4b958 .cfa: sp 0 +
STACK CFI 4b95c .cfa: x29 80 +
STACK CFI INIT 4b9a8 4c .cfa: sp 0 +
STACK CFI 4b9ac .cfa: sp 32 +
STACK CFI 4b9b4 .cfa: x29 32 + x19: .cfa -8 + ^ x20: .cfa -16 + ^ .ra: .cfa -24 + ^ x29: .cfa -32 + ^
STACK CFI INIT 4bf30 1114 .cfa: sp 0 +
STACK CFI 4bf34 .cfa: sp 432 +
STACK CFI 4bf50 .cfa: x29 96 + x19: .cfa -8 + ^ x20: .cfa -16 + ^ x21: .cfa -24 + ^ x22: .cfa -32 + ^ x23: .cfa -40 + ^ x24: .cfa -48 + ^ x25: .cfa -56 + ^ x26: .cfa -64 + ^ x27: .cfa -72 + ^ x28: .cfa -80 + ^ .ra: .cfa -88 + ^ x29: .cfa -96 + ^
STACK CFI 4cd58 .cfa: sp 432 +
STACK CFI 4cd74 .cfa: sp 0 +
STACK CFI 4cd78 .cfa: x29 96 +
STACK CFI INIT 4d044 4c .cfa: sp 0 +
STACK CFI 4d048 .cfa: sp 32 +
STACK CFI 4d050 .cfa: x29 32 + x19: .cfa -8 + ^ x20: .cfa -16 + ^ .ra: .cfa -24 + ^ x29: .cfa -32 + ^
STACK CFI INIT 4d0d8 4c .cfa: sp 0 +
STACK CFI 4d0dc .cfa: sp 32 +
STACK CFI 4d0e4 .cfa: x29 32 + x19: .cfa -8 + ^ x20: .cfa -16 + ^ .ra: .cfa -24 + ^ x29: .cfa -32 + ^
STACK CFI INIT 4d630 140 .cfa: sp 0 +
STACK CFI 4d634 .cfa: sp 48 +
STACK CFI 4d640 .cfa: x29 48 + x19: .cfa -8 + ^ x20: .cfa -16 + ^ x21: .cfa -32 + ^ .ra: .cfa -40 + ^ x29: .cfa -48 + ^
STACK CFI 4d720 .cfa: sp 48 +
STACK CFI 4d72c .cfa: sp 0 +
STACK CFI 4d730 .cfa: x29 48 +
STACK CFI INIT 4d770 4c .cfa: sp 0 +
STACK CFI 4d774 .cfa: sp 32 +
STACK CFI 4d77c .cfa: x29 32 + x19: .cfa -8 + ^ x20: .cfa -16 + ^ .ra: .cfa -24 + ^ x29: .cfa -32 + ^
STACK CFI INIT 4e0c0 1d8 .cfa: sp 0 +
STACK CFI 4e0c4 .cfa: sp 128 +
STACK CFI 4e0dc .cfa: x29 80 + x19: .cfa -8 + ^ x20: .cfa -16 + ^ x21: .cfa -24 + ^ x22: .cfa -32 + ^ x23: .cfa -40 + ^ x24: .cfa -48 + ^ x25: .cfa -64 + ^ .ra: .cfa -72 + ^ x29: .cfa -80 + ^
STACK CFI 4e1cc .cfa: sp 128 +
STACK CFI 4e1e4 .cfa: sp 0 +
STACK CFI 4e1e8 .cfa: x29 80 +
STACK CFI INIT 4e538 c34 .cfa: sp 0 +
STACK CFI 4e53c .cfa: sp 256 +
STACK CFI 4e558 .cfa: x29 96 + x19: .cfa -8 + ^ x20: .cfa -16 + ^ x21: .cfa -24 + ^ x22: .cfa -32 + ^ x23: .cfa -40 + ^ x24: .cfa -48 + ^ x25: .cfa -56 + ^ x26: .cfa -64 + ^ x27: .cfa -72 + ^ x28: .cfa -80 + ^ .ra: .cfa -88 + ^ x29: .cfa -96 + ^
STACK CFI 4eef0 .cfa: sp 256 +
STACK CFI 4ef0c .cfa: sp 0 +
STACK CFI 4ef10 .cfa: x29 96 +
STACK CFI INIT 4f398 1d4 .cfa: sp 0 +
STACK CFI 4f39c .cfa: sp 112 +
STACK CFI 4f3b4 .cfa: x29 80 + x19: .cfa -8 + ^ x20: .cfa -16 + ^ x21: .cfa -24 + ^ x22: .cfa -32 + ^ x23: .cfa -40 + ^ x24: .cfa -48 + ^ x25: .cfa -56 + ^ x26: .cfa -64 + ^ .ra: .cfa -72 + ^ x29: .cfa -80 + ^
STACK CFI 4f4f0 .cfa: sp 112 +
STACK CFI 4f508 .cfa: sp 0 +
STACK CFI 4f50c .cfa: x29 80 +
STACK CFI INIT 4f580 4c .cfa: sp 0 +
STACK CFI 4f584 .cfa: sp 32 +
STACK CFI 4f58c .cfa: x29 32 + x19: .cfa -8 + ^ x20: .cfa -16 + ^ .ra: .cfa -24 + ^ x29: .cfa -32 + ^
STACK CFI INIT 4ffb8 4c .cfa: sp 0 +
STACK CFI 4ffbc .cfa: sp 32 +
STACK CFI 4ffc4 .cfa: x29 32 + x19: .cfa -8 + ^ x20: .cfa -16 + ^ .ra: .cfa -24 + ^ x29: .cfa -32 + ^
STACK CFI INIT 50004 2c8 .cfa: sp 0 +
STACK CFI 50008 .cfa: sp 144 +
STACK CFI 50020 .cfa: x29 80 + x19: .cfa -8 + ^ x20: .cfa -16 + ^ x21: .cfa -24 + ^ x22: .cfa -32 + ^ x23: .cfa -40 + ^ x24: .cfa -48 + ^ x25: .cfa -56 + ^ x26: .cfa -64 + ^ .ra: .cfa -72 + ^ x29: .cfa -80 + ^
STACK CFI 50238 .cfa: sp 144 +
STACK CFI 50250 .cfa: sp 0 +
STACK CFI 50254 .cfa: x29 80 +
STACK CFI INIT 502cc 1b0 .cfa: sp 0 +
STACK CFI 502d0 .cfa: sp 128 +
STACK CFI 502e8 .cfa: x29 80 + x19: .cfa -8 + ^ x20: .cfa -16 + ^ x21: .cfa -24 + ^ x22: .cfa -32 + ^ x23: .cfa -40 + ^ x24: .cfa -48 + ^ x25: .cfa -64 + ^ .ra: .cfa -72 + ^ x29: .cfa -80 + ^
STACK CFI 5040c .cfa: sp 128 +
STACK CFI 50424 .cfa: sp 0 +
STACK CFI 50428 .cfa: x29 80 +
STACK CFI INIT 504f8 4c .cfa: sp 0 +
STACK CFI 504fc .cfa: sp 32 +
STACK CFI 50504 .cfa: x29 32 + x19: .cfa -8 + ^ x20: .cfa -16 + ^ .ra: .cfa -24 + ^ x29: .cfa -32 + ^
STACK CFI INIT 50544 1c4 .cfa: sp 0 +
STACK CFI 50548 .cfa: sp 112 +
STACK CFI 50560 .cfa: x29 80 + x19: .cfa -8 + ^ x20: .cfa -16 + ^ x21: .cfa -24 + ^ x22: .cfa -32 + ^ x23: .cfa -40 + ^ x24: .cfa -48 + ^ x25: .cfa -64 + ^ .ra: .cfa -72 + ^ x29: .cfa -80 + ^
STACK CFI 506a4 .cfa: sp 112 +
STACK CFI 506bc .cfa: sp 0 +
STACK CFI 506c0 .cfa: x29 80 +
STACK CFI INIT 50708 4c .cfa: sp 0 +
STACK CFI 5070c .cfa: sp 32 +
STACK CFI 50714 .cfa: x29 32 + x19: .cfa -8 + ^ x20: .cfa -16 + ^ .ra: .cfa -24 + ^ x29: .cfa -32 + ^
STACK CFI INIT 50a1c 140 .cfa: sp 0 +
STACK CFI 50a20 .cfa: sp 96 +
STACK CFI 50a38 .cfa: x29 96 + x19: .cfa -8 + ^ x20: .cfa -16 + ^ x21: .cfa -24 + ^ x22: .cfa -32 + ^ x23: .cfa -40 + ^ x24: .cfa -48 + ^ x25: .cfa -56 + ^ x26: .cfa -64 + ^ x27: .cfa -72 + ^ x28: .cfa -80 + ^ .ra: .cfa -88 + ^ x29: .cfa -96 + ^
STACK CFI 50af4 .cfa: sp 96 +
STACK CFI 50b0c .cfa: sp 0 +
STACK CFI 50b10 .cfa: x29 96 +
STACK CFI INIT 50b5c 4c .cfa: sp 0 +
STACK CFI 50b60 .cfa: sp 32 +
STACK CFI 50b68 .cfa: x29 32 + x19: .cfa -8 + ^ x20: .cfa -16 + ^ .ra: .cfa -24 + ^ x29: .cfa -32 + ^
STACK CFI INIT 50ba8 4c .cfa: sp 0 +
STACK CFI 50bac .cfa: sp 32 +
STACK CFI 50bb4 .cfa: x29 32 + x19: .cfa -8 + ^ x20: .cfa -16 + ^ .ra: .cfa -24 + ^ x29: .cfa -32 + ^
STACK CFI INIT 51084 4c .cfa: sp 0 +
STACK CFI 51088 .cfa: sp 32 +
STACK CFI 51090 .cfa: x29 32 + x19: .cfa -8 + ^ x20: .cfa -16 + ^ .ra: .cfa -24 + ^ x29: .cfa -32 + ^
STACK CFI INIT 520a0 eb4 .cfa: sp 0 +
STACK CFI 520a4 .cfa: sp 368 +
STACK CFI 520c0 .cfa: x29 96 + x19: .cfa -8 + ^ x20: .cfa -16 + ^ x21: .cfa -24 + ^ x22: .cfa -32 + ^ x23: .cfa -40 + ^ x24: .cfa -48 + ^ x25: .cfa -56 + ^ x26: .cfa -64 + ^ x27: .cfa -72 + ^ x28: .cfa -80 + ^ .ra: .cfa -88 + ^ x29: .cfa -96 + ^
STACK CFI 52e4c .cfa: sp 368 +
STACK CFI 52e68 .cfa: sp 0 +
STACK CFI 52e6c .cfa: x29 96 +
STACK CFI INIT 52f54 9e8 .cfa: sp 0 +
STACK CFI 52f58 .cfa: sp 416 +
STACK CFI 52f74 .cfa: x29 96 + x19: .cfa -8 + ^ x20: .cfa -16 + ^ x21: .cfa -24 + ^ x22: .cfa -32 + ^ x23: .cfa -40 + ^ x24: .cfa -48 + ^ x25: .cfa -56 + ^ x26: .cfa -64 + ^ x27: .cfa -72 + ^ x28: .cfa -80 + ^ .ra: .cfa -88 + ^ x29: .cfa -96 + ^
STACK CFI 53860 .cfa: sp 416 +
STACK CFI 5387c .cfa: sp 0 +
STACK CFI 53880 .cfa: x29 96 +
STACK CFI INIT 53b04 5d8 .cfa: sp 0 +
STACK CFI 53b08 .cfa: sp 112 +
STACK CFI 53b24 .cfa: x29 96 + x19: .cfa -8 + ^ x20: .cfa -16 + ^ x21: .cfa -24 + ^ x22: .cfa -32 + ^ x23: .cfa -40 + ^ x24: .cfa -48 + ^ x25: .cfa -56 + ^ x26: .cfa -64 + ^ x27: .cfa -80 + ^ .ra: .cfa -88 + ^ x29: .cfa -96 + ^
STACK CFI 53c7c .cfa: sp 112 +
STACK CFI 53c98 .cfa: sp 0 +
STACK CFI 53c9c .cfa: x29 96 +
STACK CFI 53fc4 .cfa: sp 112 +
STACK CFI 53fe0 .cfa: sp 0 +
STACK CFI 53fe4 .cfa: x29 96 +
STACK CFI INIT 54590 5d8 .cfa: sp 0 +
STACK CFI 54594 .cfa: sp 112 +
STACK CFI 545b0 .cfa: x29 96 + x19: .cfa -8 + ^ x20: .cfa -16 + ^ x21: .cfa -24 + ^ x22: .cfa -32 + ^ x23: .cfa -40 + ^ x24: .cfa -48 + ^ x25: .cfa -56 + ^ x26: .cfa -64 + ^ x27: .cfa -80 + ^ .ra: .cfa -88 + ^ x29: .cfa -96 + ^
STACK CFI 54708 .cfa: sp 112 +
STACK CFI 54724 .cfa: sp 0 +
STACK CFI 54728 .cfa: x29 96 +
STACK CFI 54a50 .cfa: sp 112 +
STACK CFI 54a6c .cfa: sp 0 +
STACK CFI 54a70 .cfa: x29 96 +
STACK CFI INIT 54cf4 188 .cfa: sp 0 +
STACK CFI 54cf8 .cfa: sp 160 +
STACK CFI 54d08 .cfa: x29 48 + x19: .cfa -8 + ^ x20: .cfa -16 + ^ x21: .cfa -32 + ^ .ra: .cfa -40 + ^ x29: .cfa -48 + ^
STACK CFI 54e20 .cfa: sp 160 +
STACK CFI 54e30 .cfa: sp 0 +
STACK CFI 54e34 .cfa: x29 48 +
STACK CFI INIT 54e7c 74 .cfa: sp 0 +
STACK CFI 54e80 .cfa: sp 48 +
STACK CFI 54e8c .cfa: x29 32 + x19: .cfa -8 + ^ x20: .cfa -16 + ^ .ra: .cfa -24 + ^ x29: .cfa -32 + ^
STACK CFI 54ed8 .cfa: sp 48 +
STACK CFI 54ee4 .cfa: sp 0 +
STACK CFI 54ee8 .cfa: x29 32 +
STACK CFI INIT 54f54 154 .cfa: sp 0 +
STACK CFI 54f58 .cfa: sp 144 +
STACK CFI 54f68 .cfa: x29 48 + x19: .cfa -8 + ^ x20: .cfa -16 + ^ x21: .cfa -32 + ^ .ra: .cfa -40 + ^ x29: .cfa -48 + ^
STACK CFI 5504c .cfa: sp 144 +
STACK CFI 5505c .cfa: sp 0 +
STACK CFI 55060 .cfa: x29 48 +
STACK CFI INIT 551a0 74 .cfa: sp 0 +
STACK CFI 551a4 .cfa: sp 32 +
STACK CFI 551ac .cfa: x29 32 + x19: .cfa -16 + ^ .ra: .cfa -24 + ^ x29: .cfa -32 + ^
STACK CFI 551d4 .cfa: sp 32 +
STACK CFI 551dc .cfa: sp 0 +
STACK CFI 551e0 .cfa: x29 32 +
STACK CFI 55204 .cfa: sp 32 +
STACK CFI 5520c .cfa: sp 0 +
STACK CFI 55210 .cfa: x29 32 +
STACK CFI INIT 55214 98 .cfa: sp 0 +
STACK CFI 55218 .cfa: sp 80 +
STACK CFI 55224 .cfa: x29 32 + x19: .cfa -8 + ^ x20: .cfa -16 + ^ .ra: .cfa -24 + ^ x29: .cfa -32 + ^
STACK CFI 55270 .cfa: sp 80 +
STACK CFI 5527c .cfa: sp 0 +
STACK CFI 55280 .cfa: x29 32 +
STACK CFI INIT 552ac 154 .cfa: sp 0 +
STACK CFI 552b0 .cfa: sp 112 +
STACK CFI 552c0 .cfa: x29 48 + x19: .cfa -8 + ^ x20: .cfa -16 + ^ x21: .cfa -32 + ^ .ra: .cfa -40 + ^ x29: .cfa -48 + ^
STACK CFI 553b8 .cfa: sp 112 +
STACK CFI 553c8 .cfa: sp 0 +
STACK CFI 553cc .cfa: x29 48 +
STACK CFI INIT 55400 10c .cfa: sp 0 +
STACK CFI 55404 .cfa: sp 96 +
STACK CFI 55418 .cfa: x29 64 + x19: .cfa -8 + ^ x20: .cfa -16 + ^ x21: .cfa -24 + ^ x22: .cfa -32 + ^ x23: .cfa -48 + ^ .ra: .cfa -56 + ^ x29: .cfa -64 + ^
STACK CFI 55490 .cfa: sp 96 +
STACK CFI 554a4 .cfa: sp 0 +
STACK CFI 554a8 .cfa: x29 64 +
STACK CFI INIT 5564c cc .cfa: sp 0 +
STACK CFI 55650 .cfa: sp 64 +
STACK CFI 55660 .cfa: x29 48 + x19: .cfa -8 + ^ x20: .cfa -16 + ^ x21: .cfa -32 + ^ .ra: .cfa -40 + ^ x29: .cfa -48 + ^
STACK CFI 556dc .cfa: sp 64 +
STACK CFI 556ec .cfa: sp 0 +
STACK CFI 556f0 .cfa: x29 48 +
STACK CFI INIT 5584c 470 .cfa: sp 0 +
STACK CFI 55850 .cfa: sp 224 +
STACK CFI 5586c .cfa: x29 96 + x19: .cfa -8 + ^ x20: .cfa -16 + ^ x21: .cfa -24 + ^ x22: .cfa -32 + ^ x23: .cfa -40 + ^ x24: .cfa -48 + ^ x25: .cfa -56 + ^ x26: .cfa -64 + ^ x27: .cfa -80 + ^ .ra: .cfa -88 + ^ x29: .cfa -96 + ^
STACK CFI 55ac8 .cfa: sp 224 +
STACK CFI 55ae4 .cfa: sp 0 +
STACK CFI 55ae8 .cfa: x29 96 +
STACK CFI 55bb4 .cfa: sp 224 +
STACK CFI 55bd0 .cfa: sp 0 +
STACK CFI 55bd4 .cfa: x29 96 +
STACK CFI INIT 55cd8 36c .cfa: sp 0 +
STACK CFI 55cdc .cfa: sp 240 +
STACK CFI 55cf0 .cfa: x29 64 + x19: .cfa -8 + ^ x20: .cfa -16 + ^ x21: .cfa -24 + ^ x22: .cfa -32 + ^ x23: .cfa -48 + ^ .ra: .cfa -56 + ^ x29: .cfa -64 + ^
STACK CFI 55f20 .cfa: sp 240 +
STACK CFI 55f34 .cfa: sp 0 +
STACK CFI 55f38 .cfa: x29 64 +
STACK CFI INIT 56094 74 .cfa: sp 0 +
STACK CFI 56098 .cfa: sp 48 +
STACK CFI 560a4 .cfa: x29 32 + x19: .cfa -8 + ^ x20: .cfa -16 + ^ .ra: .cfa -24 + ^ x29: .cfa -32 + ^
STACK CFI 560f0 .cfa: sp 48 +
STACK CFI 560fc .cfa: sp 0 +
STACK CFI 56100 .cfa: x29 32 +
STACK CFI INIT 5610c 154 .cfa: sp 0 +
STACK CFI 56110 .cfa: sp 384 +
STACK CFI 56124 .cfa: x29 64 + x19: .cfa -8 + ^ x20: .cfa -16 + ^ x21: .cfa -24 + ^ x22: .cfa -32 + ^ x23: .cfa -40 + ^ x28: .cfa -48 + ^ .ra: .cfa -56 + ^ x29: .cfa -64 + ^
STACK CFI 56208 .cfa: sp 384 +
STACK CFI 5621c .cfa: sp 0 +
STACK CFI 56220 .cfa: x29 64 +
STACK CFI INIT 56260 134 .cfa: sp 0 +
STACK CFI 56264 .cfa: sp 80 +
STACK CFI 56278 .cfa: x29 80 + x19: .cfa -8 + ^ x20: .cfa -16 + ^ x21: .cfa -24 + ^ x22: .cfa -32 + ^ x23: .cfa -40 + ^ x24: .cfa -48 + ^ x25: .cfa -56 + ^ x26: .cfa -64 + ^ .ra: .cfa -72 + ^ x29: .cfa -80 + ^
STACK CFI 56348 .cfa: sp 80 +
STACK CFI 5635c .cfa: sp 0 +
STACK CFI 56360 .cfa: x29 80 +
STACK CFI INIT 56438 1a4 .cfa: sp 0 +
STACK CFI 5643c .cfa: sp 112 +
STACK CFI 56454 .cfa: x29 80 + x19: .cfa -8 + ^ x20: .cfa -16 + ^ x21: .cfa -24 + ^ x22: .cfa -32 + ^ x23: .cfa -40 + ^ x24: .cfa -48 + ^ x25: .cfa -56 + ^ x26: .cfa -64 + ^ .ra: .cfa -72 + ^ x29: .cfa -80 + ^
STACK CFI 56544 .cfa: sp 112 +
STACK CFI 5655c .cfa: sp 0 +
STACK CFI 56560 .cfa: x29 80 +
STACK CFI INIT 565dc 1ec .cfa: sp 0 +
STACK CFI 565e0 .cfa: sp 128 +
STACK CFI 565fc .cfa: x29 96 + x19: .cfa -8 + ^ x20: .cfa -16 + ^ x21: .cfa -24 + ^ x22: .cfa -32 + ^ x23: .cfa -40 + ^ x24: .cfa -48 + ^ x25: .cfa -56 + ^ x26: .cfa -64 + ^ x27: .cfa -80 + ^ .ra: .cfa -88 + ^ x29: .cfa -96 + ^
STACK CFI 56778 .cfa: sp 128 +
STACK CFI 56794 .cfa: sp 0 +
STACK CFI 56798 .cfa: x29 96 +
STACK CFI INIT 567c8 170 .cfa: sp 0 +
STACK CFI 567cc .cfa: sp 48 +
STACK CFI 567d8 .cfa: x29 48 + x19: .cfa -8 + ^ x20: .cfa -16 + ^ x21: .cfa -32 + ^ .ra: .cfa -40 + ^ x29: .cfa -48 + ^
STACK CFI 5690c .cfa: sp 48 +
STACK CFI 56918 .cfa: sp 0 +
STACK CFI 5691c .cfa: x29 48 +
STACK CFI INIT 57198 d8 .cfa: sp 0 +
STACK CFI 5719c .cfa: sp 32 +
STACK CFI 571a4 .cfa: x29 32 + x19: .cfa -16 + ^ .ra: .cfa -24 + ^ x29: .cfa -32 + ^
STACK CFI 571d8 .cfa: sp 32 +
STACK CFI 571e0 .cfa: sp 0 +
STACK CFI 571e4 .cfa: x29 32 +
STACK CFI 571e8 .cfa: sp 32 +
STACK CFI 571f0 .cfa: sp 0 +
STACK CFI 571f4 .cfa: x29 32 +
STACK CFI INIT 5749c 9f8 .cfa: sp 0 +
STACK CFI 574a0 .cfa: sp 272 +
STACK CFI 574bc .cfa: x29 96 + x19: .cfa -8 + ^ x20: .cfa -16 + ^ x21: .cfa -24 + ^ x22: .cfa -32 + ^ x23: .cfa -40 + ^ x24: .cfa -48 + ^ x25: .cfa -56 + ^ x26: .cfa -64 + ^ x27: .cfa -72 + ^ x28: .cfa -80 + ^ .ra: .cfa -88 + ^ x29: .cfa -96 + ^
STACK CFI 57664 .cfa: sp 272 +
STACK CFI 57680 .cfa: sp 0 +
STACK CFI 57684 .cfa: x29 96 +
STACK CFI 57c2c .cfa: sp 272 +
STACK CFI 57c48 .cfa: sp 0 +
STACK CFI 57c4c .cfa: x29 96 +
STACK CFI INIT 57eb0 948 .cfa: sp 0 +
STACK CFI 57eb4 .cfa: sp 240 +
STACK CFI 57ecc .cfa: x29 80 + x19: .cfa -8 + ^ x20: .cfa -16 + ^ x21: .cfa -24 + ^ x22: .cfa -32 + ^ x23: .cfa -40 + ^ x24: .cfa -48 + ^ x25: .cfa -64 + ^ .ra: .cfa -72 + ^ x29: .cfa -80 + ^
STACK CFI 58538 .cfa: sp 240 +
STACK CFI 58550 .cfa: sp 0 +
STACK CFI 58554 .cfa: x29 80 +
STACK CFI INIT 587fc 110 .cfa: sp 0 +
STACK CFI 58800 .cfa: sp 96 +
STACK CFI 58814 .cfa: x29 64 + x19: .cfa -8 + ^ x20: .cfa -16 + ^ x21: .cfa -24 + ^ x22: .cfa -32 + ^ x23: .cfa -40 + ^ x24: .cfa -48 + ^ .ra: .cfa -56 + ^ x29: .cfa -64 + ^
STACK CFI 5885c .cfa: sp 96 +
STACK CFI 58870 .cfa: sp 0 +
STACK CFI 58874 .cfa: x29 64 +
STACK CFI INIT 58988 168 .cfa: sp 0 +
STACK CFI 5898c .cfa: sp 384 +
STACK CFI 589a0 .cfa: x29 64 + x19: .cfa -8 + ^ x20: .cfa -16 + ^ x21: .cfa -24 + ^ x22: .cfa -32 + ^ x23: .cfa -40 + ^ x28: .cfa -48 + ^ .ra: .cfa -56 + ^ x29: .cfa -64 + ^
STACK CFI 58a98 .cfa: sp 384 +
STACK CFI 58aac .cfa: sp 0 +
STACK CFI 58ab0 .cfa: x29 64 +
STACK CFI INIT 58b84 174 .cfa: sp 0 +
STACK CFI 58b88 .cfa: sp 112 +
STACK CFI 58b98 .cfa: x29 48 + x19: .cfa -8 + ^ x20: .cfa -16 + ^ x21: .cfa -32 + ^ .ra: .cfa -40 + ^ x29: .cfa -48 + ^
STACK CFI 58c94 .cfa: sp 112 +
STACK CFI 58ca4 .cfa: sp 0 +
STACK CFI 58ca8 .cfa: x29 48 +
STACK CFI INIT 58dd0 1d8 .cfa: sp 0 +
STACK CFI 58dd4 .cfa: sp 96 +
STACK CFI 58de8 .cfa: x29 48 + x19: .cfa -8 + ^ x20: .cfa -16 + ^ x21: .cfa -24 + ^ x22: .cfa -32 + ^ .ra: .cfa -40 + ^ x29: .cfa -48 + ^ v8: .cfa -56 + ^ v9: .cfa -64 + ^
STACK CFI 58f60 .cfa: sp 96 +
STACK CFI 58f74 .cfa: sp 0 +
STACK CFI 58f78 .cfa: x29 48 +
STACK CFI INIT 58fa8 184 .cfa: sp 0 +
STACK CFI 58fac .cfa: sp 160 +
STACK CFI 58fc4 .cfa: x29 80 + x19: .cfa -8 + ^ x20: .cfa -16 + ^ x21: .cfa -24 + ^ x22: .cfa -32 + ^ x23: .cfa -40 + ^ x24: .cfa -48 + ^ x25: .cfa -56 + ^ x26: .cfa -64 + ^ .ra: .cfa -72 + ^ x29: .cfa -80 + ^
STACK CFI 590c4 .cfa: sp 160 +
STACK CFI 590dc .cfa: sp 0 +
STACK CFI 590e0 .cfa: x29 80 +
STACK CFI INIT 5939c 5d4 .cfa: sp 0 +
STACK CFI 593a0 .cfa: sp 224 +
STACK CFI 593bc .cfa: x29 96 + x19: .cfa -8 + ^ x20: .cfa -16 + ^ x21: .cfa -24 + ^ x22: .cfa -32 + ^ x23: .cfa -40 + ^ x24: .cfa -48 + ^ x25: .cfa -56 + ^ x26: .cfa -64 + ^ x27: .cfa -72 + ^ x28: .cfa -80 + ^ .ra: .cfa -88 + ^ x29: .cfa -96 + ^
STACK CFI 59800 .cfa: sp 224 +
STACK CFI 5981c .cfa: sp 0 +
STACK CFI 59820 .cfa: x29 96 +
STACK CFI INIT 59970 484 .cfa: sp 0 +
STACK CFI 59974 .cfa: sp 288 +
STACK CFI 5998c .cfa: x29 80 + x19: .cfa -8 + ^ x20: .cfa -16 + ^ x21: .cfa -24 + ^ x22: .cfa -32 + ^ x23: .cfa -40 + ^ x24: .cfa -48 + ^ x25: .cfa -56 + ^ x28: .cfa -64 + ^ .ra: .cfa -72 + ^ x29: .cfa -80 + ^
STACK CFI 59c18 .cfa: sp 288 +
STACK CFI 59c30 .cfa: sp 0 +
STACK CFI 59c34 .cfa: x29 80 +
STACK CFI INIT 59e8c 470 .cfa: sp 0 +
STACK CFI 59e90 .cfa: sp 224 +
STACK CFI 59eac .cfa: x29 96 + x19: .cfa -8 + ^ x20: .cfa -16 + ^ x21: .cfa -24 + ^ x22: .cfa -32 + ^ x23: .cfa -40 + ^ x24: .cfa -48 + ^ x25: .cfa -56 + ^ x26: .cfa -64 + ^ x27: .cfa -80 + ^ .ra: .cfa -88 + ^ x29: .cfa -96 + ^
STACK CFI 5a108 .cfa: sp 224 +
STACK CFI 5a124 .cfa: sp 0 +
STACK CFI 5a128 .cfa: x29 96 +
STACK CFI 5a1f4 .cfa: sp 224 +
STACK CFI 5a210 .cfa: sp 0 +
STACK CFI 5a214 .cfa: x29 96 +
STACK CFI INIT 5a450 664 .cfa: sp 0 +
STACK CFI 5a454 .cfa: sp 256 +
STACK CFI 5a46c .cfa: x29 80 + x19: .cfa -8 + ^ x20: .cfa -16 + ^ x21: .cfa -24 + ^ x22: .cfa -32 + ^ x23: .cfa -40 + ^ x24: .cfa -48 + ^ x25: .cfa -56 + ^ x26: .cfa -64 + ^ .ra: .cfa -72 + ^ x29: .cfa -80 + ^
STACK CFI 5a8c8 .cfa: sp 256 +
STACK CFI 5a8e0 .cfa: sp 0 +
STACK CFI 5a8e4 .cfa: x29 80 +
STACK CFI INIT 5aab8 4b0 .cfa: sp 0 +
STACK CFI 5aabc .cfa: sp 256 +
STACK CFI 5aad4 .cfa: x29 64 + x19: .cfa -8 + ^ x20: .cfa -16 + ^ x21: .cfa -24 + ^ x22: .cfa -32 + ^ x23: .cfa -40 + ^ x24: .cfa -48 + ^ .ra: .cfa -56 + ^ x29: .cfa -64 + ^ v8: .cfa -80 + ^
STACK CFI 5ae88 .cfa: sp 256 +
STACK CFI 5aea0 .cfa: sp 0 +
STACK CFI 5aea4 .cfa: x29 64 +
STACK CFI INIT 5af68 32c .cfa: sp 0 +
STACK CFI 5af6c .cfa: sp 160 +
STACK CFI 5af80 .cfa: x29 64 + x19: .cfa -8 + ^ x20: .cfa -16 + ^ x21: .cfa -24 + ^ x22: .cfa -32 + ^ x23: .cfa -48 + ^ .ra: .cfa -56 + ^ x29: .cfa -64 + ^
STACK CFI 5b1d8 .cfa: sp 160 +
STACK CFI 5b1ec .cfa: sp 0 +
STACK CFI 5b1f0 .cfa: x29 64 +
STACK CFI INIT 5b298 174 .cfa: sp 0 +
STACK CFI 5b29c .cfa: sp 112 +
STACK CFI 5b2ac .cfa: x29 48 + x19: .cfa -8 + ^ x20: .cfa -16 + ^ x21: .cfa -32 + ^ .ra: .cfa -40 + ^ x29: .cfa -48 + ^
STACK CFI 5b3a8 .cfa: sp 112 +
STACK CFI 5b3b8 .cfa: sp 0 +
STACK CFI 5b3bc .cfa: x29 48 +
STACK CFI INIT 5b868 470 .cfa: sp 0 +
STACK CFI 5b86c .cfa: sp 224 +
STACK CFI 5b888 .cfa: x29 96 + x19: .cfa -8 + ^ x20: .cfa -16 + ^ x21: .cfa -24 + ^ x22: .cfa -32 + ^ x23: .cfa -40 + ^ x24: .cfa -48 + ^ x25: .cfa -56 + ^ x26: .cfa -64 + ^ x27: .cfa -80 + ^ .ra: .cfa -88 + ^ x29: .cfa -96 + ^
STACK CFI 5bae4 .cfa: sp 224 +
STACK CFI 5bb00 .cfa: sp 0 +
STACK CFI 5bb04 .cfa: x29 96 +
STACK CFI 5bbd0 .cfa: sp 224 +
STACK CFI 5bbec .cfa: sp 0 +
STACK CFI 5bbf0 .cfa: x29 96 +
STACK CFI INIT 5bcf4 350 .cfa: sp 0 +
STACK CFI 5bcf8 .cfa: sp 208 +
STACK CFI 5bd0c .cfa: x29 64 + x19: .cfa -8 + ^ x20: .cfa -16 + ^ x21: .cfa -24 + ^ x22: .cfa -32 + ^ x23: .cfa -48 + ^ .ra: .cfa -56 + ^ x29: .cfa -64 + ^
STACK CFI 5bf20 .cfa: sp 208 +
STACK CFI 5bf34 .cfa: sp 0 +
STACK CFI 5bf38 .cfa: x29 64 +
STACK CFI INIT 5c048 100 .cfa: sp 0 +
STACK CFI 5c04c .cfa: sp 112 +
STACK CFI 5c05c .cfa: x29 48 + x19: .cfa -8 + ^ x20: .cfa -16 + ^ x21: .cfa -32 + ^ .ra: .cfa -40 + ^ x29: .cfa -48 + ^
STACK CFI 5c0e4 .cfa: sp 112 +
STACK CFI 5c0f4 .cfa: sp 0 +
STACK CFI 5c0f8 .cfa: x29 48 +
STACK CFI INIT 5c188 d8 .cfa: sp 0 +
STACK CFI 5c18c .cfa: sp 96 +
STACK CFI 5c198 .cfa: x29 32 + x19: .cfa -8 + ^ x20: .cfa -16 + ^ .ra: .cfa -24 + ^ x29: .cfa -32 + ^
STACK CFI 5c200 .cfa: sp 96 +
STACK CFI 5c20c .cfa: sp 0 +
STACK CFI 5c210 .cfa: x29 32 +
STACK CFI INIT 5c304 a00 .cfa: sp 0 +
STACK CFI 5c308 .cfa: sp 416 +
STACK CFI 5c320 .cfa: x29 80 + x19: .cfa -8 + ^ x20: .cfa -16 + ^ x21: .cfa -24 + ^ x22: .cfa -32 + ^ x23: .cfa -40 + ^ x24: .cfa -48 + ^ x28: .cfa -64 + ^ .ra: .cfa -72 + ^ x29: .cfa -80 + ^
STACK CFI 5cba0 .cfa: sp 416 +
STACK CFI 5cbb8 .cfa: sp 0 +
STACK CFI 5cbbc .cfa: x29 80 +
STACK CFI INIT 5cd04 1c .cfa: sp 0 +
STACK CFI 5cd08 .cfa: sp 16 +
STACK CFI 5cd0c .cfa: x29 16 + .ra: .cfa -8 + ^ x29: .cfa -16 + ^
STACK CFI 5cd14 .cfa: sp 16 +
STACK CFI 5cd18 .cfa: sp 0 +
STACK CFI 5cd1c .cfa: x29 16 +
STACK CFI INIT 5cd20 c4 .cfa: sp 0 +
STACK CFI 5cd24 .cfa: sp 48 +
STACK CFI 5cd30 .cfa: x29 48 + x19: .cfa -8 + ^ x20: .cfa -16 + ^ x21: .cfa -32 + ^ .ra: .cfa -40 + ^ x29: .cfa -48 + ^
STACK CFI 5cd9c .cfa: sp 48 +
STACK CFI 5cda8 .cfa: sp 0 +
STACK CFI 5cdac .cfa: x29 48 +
STACK CFI 5cdd0 .cfa: sp 48 +
STACK CFI 5cddc .cfa: sp 0 +
STACK CFI 5cde0 .cfa: x29 48 +
STACK CFI INIT 5cde4 84 .cfa: sp 0 +
STACK CFI 5cde8 .cfa: sp 48 +
STACK CFI 5cdf4 .cfa: x29 48 + x19: .cfa -8 + ^ x20: .cfa -16 + ^ x21: .cfa -32 + ^ .ra: .cfa -40 + ^ x29: .cfa -48 + ^
STACK CFI 5ce14 .cfa: sp 48 +
STACK CFI 5ce20 .cfa: sp 0 +
STACK CFI 5ce24 .cfa: x29 48 +
STACK CFI 5ce44 .cfa: sp 48 +
STACK CFI 5ce50 .cfa: sp 0 +
STACK CFI 5ce54 .cfa: sp 48 +
STACK CFI 5ce60 .cfa: sp 0 +
STACK CFI 5ce64 .cfa: x29 48 +
STACK CFI INIT 5ce68 94 .cfa: sp 0 +
STACK CFI 5ce6c .cfa: sp 48 +
STACK CFI 5ce78 .cfa: x29 48 + x19: .cfa -8 + ^ x20: .cfa -16 + ^ x21: .cfa -24 + ^ x22: .cfa -32 + ^ .ra: .cfa -40 + ^ x29: .cfa -48 + ^
STACK CFI 5ce80 .cfa: sp 48 +
STACK CFI 5ce8c .cfa: sp 0 +
STACK CFI 5ce90 .cfa: x29 48 +
STACK CFI 5ceb4 .cfa: sp 48 +
STACK CFI 5cec0 .cfa: sp 0 +
STACK CFI 5cec4 .cfa: x29 48 +
STACK CFI 5cee8 .cfa: sp 48 +
STACK CFI 5cef4 .cfa: sp 0 +
STACK CFI 5cef8 .cfa: x29 48 +
STACK CFI INIT 5cefc 48 .cfa: sp 0 +
STACK CFI 5cf00 .cfa: sp 32 +
STACK CFI 5cf08 .cfa: x29 32 + x19: .cfa -8 + ^ x20: .cfa -16 + ^ .ra: .cfa -24 + ^ x29: .cfa -32 + ^
STACK CFI 5cf10 .cfa: sp 32 +
STACK CFI 5cf18 .cfa: sp 0 +
STACK CFI 5cf1c .cfa: x29 32 +
STACK CFI INIT 5cfd0 118 .cfa: sp 0 +
STACK CFI 5cfd4 .cfa: sp 80 +
STACK CFI 5cfe4 .cfa: x29 48 + x19: .cfa -8 + ^ x20: .cfa -16 + ^ x21: .cfa -32 + ^ .ra: .cfa -40 + ^ x29: .cfa -48 + ^
STACK CFI 5d068 .cfa: sp 80 +
STACK CFI 5d078 .cfa: sp 0 +
STACK CFI 5d07c .cfa: x29 48 +
STACK CFI INIT 5d0e8 68c .cfa: sp 0 +
STACK CFI 5d0ec .cfa: sp 256 +
STACK CFI 5d0fc .cfa: x29 48 + x19: .cfa -8 + ^ x20: .cfa -16 + ^ x21: .cfa -24 + ^ x22: .cfa -32 + ^ .ra: .cfa -40 + ^ x29: .cfa -48 + ^
STACK CFI 5d620 .cfa: sp 256 +
STACK CFI 5d630 .cfa: sp 0 +
STACK CFI 5d634 .cfa: x29 48 +
STACK CFI INIT 5d774 f8 .cfa: sp 0 +
STACK CFI 5d778 .cfa: sp 48 +
STACK CFI 5d784 .cfa: x29 48 + x19: .cfa -8 + ^ x20: .cfa -16 + ^ x21: .cfa -32 + ^ .ra: .cfa -40 + ^ x29: .cfa -48 + ^
STACK CFI 5d7f0 .cfa: sp 48 +
STACK CFI 5d7fc .cfa: sp 0 +
STACK CFI 5d800 .cfa: x29 48 +
STACK CFI INIT 5d918 210 .cfa: sp 0 +
STACK CFI 5d91c .cfa: sp 64 +
STACK CFI 5d92c .cfa: x29 64 + x19: .cfa -8 + ^ x20: .cfa -16 + ^ x21: .cfa -24 + ^ x22: .cfa -32 + ^ x23: .cfa -40 + ^ x28: .cfa -48 + ^ .ra: .cfa -56 + ^ x29: .cfa -64 + ^
STACK CFI 5dad0 .cfa: sp 64 +
STACK CFI 5dae0 .cfa: sp 0 +
STACK CFI 5dae4 .cfa: x29 64 +
STACK CFI INIT 5dbf0 320 .cfa: sp 0 +
STACK CFI 5dbf4 .cfa: sp 128 +
STACK CFI 5dc10 .cfa: x29 96 + x19: .cfa -8 + ^ x20: .cfa -16 + ^ x21: .cfa -24 + ^ x22: .cfa -32 + ^ x23: .cfa -40 + ^ x24: .cfa -48 + ^ x25: .cfa -56 + ^ x26: .cfa -64 + ^ x27: .cfa -80 + ^ .ra: .cfa -88 + ^ x29: .cfa -96 + ^
STACK CFI 5de44 .cfa: sp 128 +
STACK CFI 5de60 .cfa: sp 0 +
STACK CFI 5de64 .cfa: x29 96 +
STACK CFI INIT 5e178 174 .cfa: sp 0 +
STACK CFI 5e17c .cfa: sp 112 +
STACK CFI 5e18c .cfa: x29 48 + x19: .cfa -8 + ^ x20: .cfa -16 + ^ x21: .cfa -32 + ^ .ra: .cfa -40 + ^ x29: .cfa -48 + ^
STACK CFI 5e288 .cfa: sp 112 +
STACK CFI 5e298 .cfa: sp 0 +
STACK CFI 5e29c .cfa: x29 48 +
STACK CFI INIT 5e488 19c .cfa: sp 0 +
STACK CFI 5e48c .cfa: sp 112 +
STACK CFI 5e49c .cfa: x29 48 + x19: .cfa -8 + ^ x20: .cfa -16 + ^ x21: .cfa -32 + ^ .ra: .cfa -40 + ^ x29: .cfa -48 + ^
STACK CFI 5e5c4 .cfa: sp 112 +
STACK CFI 5e5d4 .cfa: sp 0 +
STACK CFI 5e5d8 .cfa: x29 48 +
STACK CFI INIT 5e6f8 19c .cfa: sp 0 +
STACK CFI 5e6fc .cfa: sp 112 +
STACK CFI 5e70c .cfa: x29 48 + x19: .cfa -8 + ^ x20: .cfa -16 + ^ x21: .cfa -32 + ^ .ra: .cfa -40 + ^ x29: .cfa -48 + ^
STACK CFI 5e834 .cfa: sp 112 +
STACK CFI 5e844 .cfa: sp 0 +
STACK CFI 5e848 .cfa: x29 48 +
STACK CFI INIT 5e91c 198 .cfa: sp 0 +
STACK CFI 5e920 .cfa: sp 112 +
STACK CFI 5e930 .cfa: x29 48 + x19: .cfa -8 + ^ x20: .cfa -16 + ^ x21: .cfa -32 + ^ .ra: .cfa -40 + ^ x29: .cfa -48 + ^
STACK CFI 5ea54 .cfa: sp 112 +
STACK CFI 5ea64 .cfa: sp 0 +
STACK CFI 5ea68 .cfa: x29 48 +
STACK CFI INIT 5eb70 118 .cfa: sp 0 +
STACK CFI 5eb74 .cfa: sp 80 +
STACK CFI 5eb84 .cfa: x29 48 + x19: .cfa -8 + ^ x20: .cfa -16 + ^ x21: .cfa -32 + ^ .ra: .cfa -40 + ^ x29: .cfa -48 + ^
STACK CFI 5ec08 .cfa: sp 80 +
STACK CFI 5ec18 .cfa: sp 0 +
STACK CFI 5ec1c .cfa: x29 48 +
STACK CFI INIT 5ec88 130 .cfa: sp 0 +
STACK CFI 5ec8c .cfa: sp 96 +
STACK CFI 5eca0 .cfa: x29 48 + x19: .cfa -8 + ^ x20: .cfa -16 + ^ x21: .cfa -24 + ^ x22: .cfa -32 + ^ .ra: .cfa -40 + ^ x29: .cfa -48 + ^ v8: .cfa -64 + ^
STACK CFI 5ed68 .cfa: sp 96 +
STACK CFI 5ed7c .cfa: sp 0 +
STACK CFI 5ed80 .cfa: x29 48 +
STACK CFI INIT 5edb8 158 .cfa: sp 0 +
STACK CFI 5edbc .cfa: sp 96 +
STACK CFI 5edd0 .cfa: x29 48 + x19: .cfa -8 + ^ x20: .cfa -16 + ^ x21: .cfa -24 + ^ x22: .cfa -32 + ^ .ra: .cfa -40 + ^ x29: .cfa -48 + ^ v8: .cfa -64 + ^
STACK CFI 5eeb0 .cfa: sp 96 +
STACK CFI 5eec4 .cfa: sp 0 +
STACK CFI 5eec8 .cfa: x29 48 +
STACK CFI INIT 5f07c 38c .cfa: sp 0 +
STACK CFI 5f080 .cfa: sp 192 +
STACK CFI 5f09c .cfa: x29 96 + x19: .cfa -8 + ^ x20: .cfa -16 + ^ x21: .cfa -24 + ^ x22: .cfa -32 + ^ x23: .cfa -40 + ^ x24: .cfa -48 + ^ x25: .cfa -56 + ^ x26: .cfa -64 + ^ x27: .cfa -80 + ^ .ra: .cfa -88 + ^ x29: .cfa -96 + ^
STACK CFI 5f2d4 .cfa: sp 192 +
STACK CFI 5f2f0 .cfa: sp 0 +
STACK CFI 5f2f4 .cfa: x29 96 +
STACK CFI INIT 5f424 124 .cfa: sp 0 +
STACK CFI 5f428 .cfa: sp 96 +
STACK CFI 5f43c .cfa: x29 40 + x19: .cfa -8 + ^ x20: .cfa -16 + ^ x21: .cfa -24 + ^ .ra: .cfa -32 + ^ x29: .cfa -40 + ^ v8: .cfa -48 + ^
STACK CFI 5f4ec .cfa: sp 96 +
STACK CFI 5f500 .cfa: sp 0 +
STACK CFI 5f504 .cfa: x29 40 +
STACK CFI INIT 5f5bc 74 .cfa: sp 0 +
STACK CFI 5f5c0 .cfa: sp 48 +
STACK CFI 5f5cc .cfa: x29 32 + x19: .cfa -8 + ^ x20: .cfa -16 + ^ .ra: .cfa -24 + ^ x29: .cfa -32 + ^
STACK CFI 5f618 .cfa: sp 48 +
STACK CFI 5f624 .cfa: sp 0 +
STACK CFI 5f628 .cfa: x29 32 +
STACK CFI INIT 5f664 88 .cfa: sp 0 +
STACK CFI 5f668 .cfa: sp 32 +
STACK CFI 5f670 .cfa: x29 32 + x19: .cfa -8 + ^ x20: .cfa -16 + ^ .ra: .cfa -24 + ^ x29: .cfa -32 + ^
STACK CFI 5f6a8 .cfa: sp 32 +
STACK CFI 5f6b0 .cfa: sp 0 +
STACK CFI 5f6b4 .cfa: x29 32 +
STACK CFI 5f6cc .cfa: sp 32 +
STACK CFI 5f6d4 .cfa: sp 0 +
STACK CFI 5f6d8 .cfa: x29 32 +
STACK CFI INIT 5f6ec 594 .cfa: sp 0 +
STACK CFI 5f6f0 .cfa: sp 80 +
STACK CFI 5f704 .cfa: x29 64 + x19: .cfa -8 + ^ x20: .cfa -16 + ^ x21: .cfa -24 + ^ x22: .cfa -32 + ^ x23: .cfa -40 + ^ x28: .cfa -48 + ^ .ra: .cfa -56 + ^ x29: .cfa -64 + ^ v8: .cfa -80 + ^
STACK CFI 5fbd8 .cfa: sp 80 +
STACK CFI 5fbec .cfa: sp 0 +
STACK CFI 5fbf0 .cfa: x29 64 +
STACK CFI INIT 5fc80 108 .cfa: sp 0 +
STACK CFI 5fc84 .cfa: sp 80 +
STACK CFI 5fc98 .cfa: x29 64 + x19: .cfa -8 + ^ x20: .cfa -16 + ^ x21: .cfa -24 + ^ x22: .cfa -32 + ^ x23: .cfa -48 + ^ .ra: .cfa -56 + ^ x29: .cfa -64 + ^
STACK CFI 5fd48 .cfa: sp 80 +
STACK CFI 5fd5c .cfa: sp 0 +
STACK CFI 5fd60 .cfa: x29 64 +
STACK CFI INIT 5fd88 42c .cfa: sp 0 +
STACK CFI 5fd8c .cfa: sp 64 +
STACK CFI 5fd9c .cfa: x29 64 + x19: .cfa -8 + ^ x20: .cfa -16 + ^ x21: .cfa -24 + ^ x22: .cfa -32 + ^ x23: .cfa -40 + ^ x28: .cfa -48 + ^ .ra: .cfa -56 + ^ x29: .cfa -64 + ^
STACK CFI 600e4 .cfa: sp 64 +
STACK CFI 600f4 .cfa: sp 0 +
STACK CFI 600f8 .cfa: x29 64 +
STACK CFI INIT 6029c 90 .cfa: sp 0 +
STACK CFI 602a0 .cfa: sp 32 +
STACK CFI 602a8 .cfa: x29 32 + x19: .cfa -8 + ^ x20: .cfa -16 + ^ .ra: .cfa -24 + ^ x29: .cfa -32 + ^
STACK CFI 602e8 .cfa: sp 32 +
STACK CFI 602f0 .cfa: sp 0 +
STACK CFI 602f4 .cfa: x29 32 +
STACK CFI 6030c .cfa: sp 32 +
STACK CFI 60314 .cfa: sp 0 +
STACK CFI 60318 .cfa: x29 32 +
STACK CFI INIT 6032c 460 .cfa: sp 0 +
STACK CFI 60330 .cfa: sp 112 +
STACK CFI 60348 .cfa: x29 48 + x19: .cfa -8 + ^ x20: .cfa -16 + ^ x21: .cfa -24 + ^ x22: .cfa -32 + ^ .ra: .cfa -40 + ^ x29: .cfa -48 + ^ v8: .cfa -56 + ^ v9: .cfa -64 + ^ v10: .cfa -72 + ^ v11: .cfa -80 + ^
STACK CFI 6072c .cfa: sp 112 +
STACK CFI 60744 .cfa: sp 0 +
STACK CFI 60748 .cfa: x29 48 +
STACK CFI INIT 6080c 144 .cfa: sp 0 +
STACK CFI 60810 .cfa: sp 128 +
STACK CFI 60820 .cfa: x29 48 + x19: .cfa -8 + ^ x20: .cfa -16 + ^ x21: .cfa -24 + ^ x22: .cfa -32 + ^ .ra: .cfa -40 + ^ x29: .cfa -48 + ^
STACK CFI 6090c .cfa: sp 128 +
STACK CFI 6091c .cfa: sp 0 +
STACK CFI 60920 .cfa: x29 48 +
STACK CFI INIT 60950 238 .cfa: sp 0 +
STACK CFI 60954 .cfa: sp 144 +
STACK CFI 60968 .cfa: x29 64 + x19: .cfa -8 + ^ x20: .cfa -16 + ^ x21: .cfa -24 + ^ x22: .cfa -32 + ^ x23: .cfa -48 + ^ .ra: .cfa -56 + ^ x29: .cfa -64 + ^
STACK CFI 60b40 .cfa: sp 144 +
STACK CFI 60b54 .cfa: sp 0 +
STACK CFI 60b58 .cfa: x29 64 +
STACK CFI INIT 60bc4 a0 .cfa: sp 0 +
STACK CFI 60bc8 .cfa: sp 48 +
STACK CFI 60bd4 .cfa: x29 32 + x19: .cfa -8 + ^ x20: .cfa -16 + ^ .ra: .cfa -24 + ^ x29: .cfa -32 + ^ v8: .cfa -48 + ^
STACK CFI 60c18 .cfa: sp 48 +
STACK CFI 60c24 .cfa: sp 0 +
STACK CFI 60c28 .cfa: x29 32 +
STACK CFI 60c40 .cfa: sp 48 +
STACK CFI 60c4c .cfa: sp 0 +
STACK CFI 60c50 .cfa: x29 32 +
STACK CFI INIT 60c64 3e4 .cfa: sp 0 +
STACK CFI 60c68 .cfa: sp 128 +
STACK CFI 60c80 .cfa: x29 48 + x19: .cfa -8 + ^ x20: .cfa -16 + ^ x21: .cfa -24 + ^ x22: .cfa -32 + ^ .ra: .cfa -40 + ^ x29: .cfa -48 + ^ v8: .cfa -56 + ^ v9: .cfa -64 + ^ v10: .cfa -80 + ^
STACK CFI 60ff0 .cfa: sp 128 +
STACK CFI 61008 .cfa: sp 0 +
STACK CFI 6100c .cfa: x29 48 +
STACK CFI INIT 61138 120 .cfa: sp 0 +
STACK CFI 6113c .cfa: sp 64 +
STACK CFI 61148 .cfa: x29 32 + x19: .cfa -8 + ^ x20: .cfa -16 + ^ .ra: .cfa -24 + ^ x29: .cfa -32 + ^
STACK CFI 61220 .cfa: sp 64 +
STACK CFI 6122c .cfa: sp 0 +
STACK CFI 61230 .cfa: x29 32 +
STACK CFI INIT 61324 123c .cfa: sp 0 +
STACK CFI 61328 .cfa: sp 80 +
STACK CFI 6133c .cfa: x29 64 + x19: .cfa -8 + ^ x20: .cfa -16 + ^ x21: .cfa -24 + ^ x22: .cfa -32 + ^ x23: .cfa -40 + ^ x28: .cfa -48 + ^ .ra: .cfa -56 + ^ x29: .cfa -64 + ^ v8: .cfa -80 + ^
STACK CFI 6235c .cfa: sp 80 +
STACK CFI 62370 .cfa: sp 0 +
STACK CFI 62374 .cfa: x29 64 +
STACK CFI INIT 62790 288 .cfa: sp 0 +
STACK CFI 62794 .cfa: sp 80 +
STACK CFI 627a8 .cfa: x29 40 + x19: .cfa -8 + ^ x20: .cfa -16 + ^ x21: .cfa -24 + ^ .ra: .cfa -32 + ^ x29: .cfa -40 + ^ v8: .cfa -48 + ^
STACK CFI 629cc .cfa: sp 80 +
STACK CFI 629e0 .cfa: sp 0 +
STACK CFI 629e4 .cfa: x29 40 +
STACK CFI INIT 62a18 92c .cfa: sp 0 +
STACK CFI 62a1c .cfa: sp 80 +
STACK CFI 62a30 .cfa: x29 64 + x19: .cfa -8 + ^ x20: .cfa -16 + ^ x21: .cfa -24 + ^ x22: .cfa -32 + ^ x23: .cfa -40 + ^ x28: .cfa -48 + ^ .ra: .cfa -56 + ^ x29: .cfa -64 + ^ v8: .cfa -80 + ^
STACK CFI 631d4 .cfa: sp 80 +
STACK CFI 631e8 .cfa: sp 0 +
STACK CFI 631ec .cfa: x29 64 +
STACK CFI INIT 63344 190 .cfa: sp 0 +
STACK CFI 63348 .cfa: sp 96 +
STACK CFI 63358 .cfa: x29 48 + x19: .cfa -8 + ^ x20: .cfa -16 + ^ x21: .cfa -24 + ^ x22: .cfa -32 + ^ .ra: .cfa -40 + ^ x29: .cfa -48 + ^
STACK CFI 63450 .cfa: sp 96 +
STACK CFI 63460 .cfa: sp 0 +
STACK CFI 63464 .cfa: x29 48 +
STACK CFI INIT 635a8 d8 .cfa: sp 0 +
STACK CFI 635ac .cfa: sp 32 +
STACK CFI 635b4 .cfa: x29 32 + x19: .cfa -8 + ^ x20: .cfa -16 + ^ .ra: .cfa -24 + ^ x29: .cfa -32 + ^
STACK CFI 63670 .cfa: sp 32 +
STACK CFI 63678 .cfa: sp 0 +
STACK CFI 6367c .cfa: x29 32 +
STACK CFI INIT 63680 e0 .cfa: sp 0 +
STACK CFI 63684 .cfa: sp 32 +
STACK CFI 6368c .cfa: x29 32 + x19: .cfa -8 + ^ x20: .cfa -16 + ^ .ra: .cfa -24 + ^ x29: .cfa -32 + ^
STACK CFI 63750 .cfa: sp 32 +
STACK CFI 63758 .cfa: sp 0 +
STACK CFI 6375c .cfa: x29 32 +
STACK CFI INIT 637c0 134 .cfa: sp 0 +
STACK CFI 637c4 .cfa: sp 96 +
STACK CFI 637d4 .cfa: x29 48 + x19: .cfa -8 + ^ x20: .cfa -16 + ^ x21: .cfa -32 + ^ .ra: .cfa -40 + ^ x29: .cfa -48 + ^
STACK CFI 638a8 .cfa: sp 96 +
STACK CFI 638b8 .cfa: sp 0 +
STACK CFI 638bc .cfa: x29 48 +
STACK CFI INIT 638f4 e4 .cfa: sp 0 +
STACK CFI 638f8 .cfa: sp 48 +
STACK CFI 63904 .cfa: x29 48 + x19: .cfa -8 + ^ x20: .cfa -16 + ^ x21: .cfa -32 + ^ .ra: .cfa -40 + ^ x29: .cfa -48 + ^
STACK CFI 639c4 .cfa: sp 48 +
STACK CFI 639d0 .cfa: sp 0 +
STACK CFI 639d4 .cfa: x29 48 +
STACK CFI INIT 639d8 ec .cfa: sp 0 +
STACK CFI 639dc .cfa: sp 48 +
STACK CFI 639e8 .cfa: x29 48 + x19: .cfa -8 + ^ x20: .cfa -16 + ^ x21: .cfa -32 + ^ .ra: .cfa -40 + ^ x29: .cfa -48 + ^
STACK CFI 63ab0 .cfa: sp 48 +
STACK CFI 63abc .cfa: sp 0 +
STACK CFI 63ac0 .cfa: x29 48 +
STACK CFI INIT 63b0c 6c .cfa: sp 0 +
STACK CFI 63b10 .cfa: sp 32 +
STACK CFI 63b18 .cfa: x29 32 + x19: .cfa -16 + ^ .ra: .cfa -24 + ^ x29: .cfa -32 + ^
STACK CFI 63b68 .cfa: sp 32 +
STACK CFI 63b70 .cfa: sp 0 +
STACK CFI 63b74 .cfa: x29 32 +
STACK CFI INIT 63b7c 6c .cfa: sp 0 +
STACK CFI 63b80 .cfa: sp 32 +
STACK CFI 63b88 .cfa: x29 32 + x19: .cfa -16 + ^ .ra: .cfa -24 + ^ x29: .cfa -32 + ^
STACK CFI 63bd8 .cfa: sp 32 +
STACK CFI 63be0 .cfa: sp 0 +
STACK CFI 63be4 .cfa: x29 32 +
STACK CFI INIT 640dc 3c0 .cfa: sp 0 +
STACK CFI 640e0 .cfa: sp 304 +
STACK CFI 640fc .cfa: x29 96 + x19: .cfa -8 + ^ x20: .cfa -16 + ^ x21: .cfa -24 + ^ x22: .cfa -32 + ^ x23: .cfa -40 + ^ x24: .cfa -48 + ^ x25: .cfa -56 + ^ x26: .cfa -64 + ^ x28: .cfa -80 + ^ .ra: .cfa -88 + ^ x29: .cfa -96 + ^
STACK CFI 6441c .cfa: sp 304 +
STACK CFI 64438 .cfa: sp 0 +
STACK CFI 6443c .cfa: x29 96 +
STACK CFI INIT 647a4 618 .cfa: sp 0 +
STACK CFI 647a8 .cfa: sp 128 +
STACK CFI 647c4 .cfa: x29 96 + x19: .cfa -8 + ^ x20: .cfa -16 + ^ x21: .cfa -24 + ^ x22: .cfa -32 + ^ x23: .cfa -40 + ^ x24: .cfa -48 + ^ x25: .cfa -56 + ^ x26: .cfa -64 + ^ x27: .cfa -72 + ^ x28: .cfa -80 + ^ .ra: .cfa -88 + ^ x29: .cfa -96 + ^
STACK CFI 64d5c .cfa: sp 128 +
STACK CFI 64d78 .cfa: sp 0 +
STACK CFI 64d7c .cfa: x29 96 +
STACK CFI INIT 77bfc 134 .cfa: sp 0 +
STACK CFI 77c00 .cfa: sp 80 +
STACK CFI 77c0c .cfa: x29 32 + x19: .cfa -8 + ^ x20: .cfa -16 + ^ .ra: .cfa -24 + ^ x29: .cfa -32 + ^
STACK CFI 77c3c .cfa: sp 80 +
STACK CFI 77c48 .cfa: sp 0 +
STACK CFI 77c4c .cfa: x29 32 +
STACK CFI INIT 77d30 78 .cfa: sp 0 +
STACK CFI 77d34 .cfa: sp 32 +
STACK CFI 77d3c .cfa: x29 32 + x19: .cfa -8 + ^ x20: .cfa -16 + ^ .ra: .cfa -24 + ^ x29: .cfa -32 + ^
STACK CFI 77d48 .cfa: sp 32 +
STACK CFI 77d50 .cfa: sp 0 +
STACK CFI 77d54 .cfa: x29 32 +
STACK CFI INIT 77da8 74 .cfa: sp 0 +
STACK CFI 77dac .cfa: sp 48 +
STACK CFI 77db8 .cfa: x29 32 + x19: .cfa -8 + ^ x20: .cfa -16 + ^ .ra: .cfa -24 + ^ x29: .cfa -32 + ^
STACK CFI 77e04 .cfa: sp 48 +
STACK CFI 77e10 .cfa: sp 0 +
STACK CFI 77e14 .cfa: x29 32 +
STACK CFI INIT 77ea4 25c .cfa: sp 0 +
STACK CFI 77ea8 .cfa: sp 128 +
STACK CFI 77eb8 .cfa: x29 48 + x19: .cfa -8 + ^ x20: .cfa -16 + ^ x21: .cfa -32 + ^ .ra: .cfa -40 + ^ x29: .cfa -48 + ^
STACK CFI 77fa0 .cfa: sp 128 +
STACK CFI 77fb0 .cfa: sp 0 +
STACK CFI 77fb4 .cfa: x29 48 +
STACK CFI INIT 78124 26c .cfa: sp 0 +
STACK CFI 78128 .cfa: sp 128 +
STACK CFI 78138 .cfa: x29 48 + x19: .cfa -8 + ^ x20: .cfa -16 + ^ x21: .cfa -32 + ^ .ra: .cfa -40 + ^ x29: .cfa -48 + ^
STACK CFI 78230 .cfa: sp 128 +
STACK CFI 78240 .cfa: sp 0 +
STACK CFI 78244 .cfa: x29 48 +
STACK CFI INIT 78408 300 .cfa: sp 0 +
STACK CFI 7840c .cfa: sp 144 +
STACK CFI 78420 .cfa: x29 64 + x19: .cfa -8 + ^ x20: .cfa -16 + ^ x21: .cfa -24 + ^ x22: .cfa -32 + ^ x23: .cfa -48 + ^ .ra: .cfa -56 + ^ x29: .cfa -64 + ^
STACK CFI 785b4 .cfa: sp 144 +
STACK CFI 785c8 .cfa: sp 0 +
STACK CFI 785cc .cfa: x29 64 +
STACK CFI INIT 7875c 264 .cfa: sp 0 +
STACK CFI 78760 .cfa: sp 128 +
STACK CFI 78770 .cfa: x29 48 + x19: .cfa -8 + ^ x20: .cfa -16 + ^ x21: .cfa -32 + ^ .ra: .cfa -40 + ^ x29: .cfa -48 + ^
STACK CFI 78868 .cfa: sp 128 +
STACK CFI 78878 .cfa: sp 0 +
STACK CFI 7887c .cfa: x29 48 +
STACK CFI INIT 78a14 270 .cfa: sp 0 +
STACK CFI 78a18 .cfa: sp 144 +
STACK CFI 78a2c .cfa: x29 64 + x19: .cfa -8 + ^ x20: .cfa -16 + ^ x21: .cfa -24 + ^ x22: .cfa -32 + ^ x23: .cfa -48 + ^ .ra: .cfa -56 + ^ x29: .cfa -64 + ^
STACK CFI 78b30 .cfa: sp 144 +
STACK CFI 78b44 .cfa: sp 0 +
STACK CFI 78b48 .cfa: x29 64 +
STACK CFI INIT 78ca8 22c .cfa: sp 0 +
STACK CFI 78cac .cfa: sp 128 +
STACK CFI 78cbc .cfa: x29 48 + x19: .cfa -8 + ^ x20: .cfa -16 + ^ x21: .cfa -32 + ^ .ra: .cfa -40 + ^ x29: .cfa -48 + ^
STACK CFI 78d74 .cfa: sp 128 +
STACK CFI 78d84 .cfa: sp 0 +
STACK CFI 78d88 .cfa: x29 48 +
STACK CFI INIT 78ed4 224 .cfa: sp 0 +
STACK CFI 78ed8 .cfa: sp 128 +
STACK CFI 78ee8 .cfa: x29 48 + x19: .cfa -8 + ^ x20: .cfa -16 + ^ x21: .cfa -32 + ^ .ra: .cfa -40 + ^ x29: .cfa -48 + ^
STACK CFI 78f98 .cfa: sp 128 +
STACK CFI 78fa8 .cfa: sp 0 +
STACK CFI 78fac .cfa: x29 48 +
STACK CFI INIT 790f8 268 .cfa: sp 0 +
STACK CFI 790fc .cfa: sp 144 +
STACK CFI 79110 .cfa: x29 64 + x19: .cfa -8 + ^ x20: .cfa -16 + ^ x21: .cfa -24 + ^ x22: .cfa -32 + ^ x23: .cfa -48 + ^ .ra: .cfa -56 + ^ x29: .cfa -64 + ^
STACK CFI 7920c .cfa: sp 144 +
STACK CFI 79220 .cfa: sp 0 +
STACK CFI 79224 .cfa: x29 64 +
STACK CFI INIT 79474 2b8 .cfa: sp 0 +
STACK CFI 79478 .cfa: sp 144 +
STACK CFI 7948c .cfa: x29 64 + x19: .cfa -8 + ^ x20: .cfa -16 + ^ x21: .cfa -24 + ^ x22: .cfa -32 + ^ x23: .cfa -48 + ^ .ra: .cfa -56 + ^ x29: .cfa -64 + ^
STACK CFI 795d8 .cfa: sp 144 +
STACK CFI 795ec .cfa: sp 0 +
STACK CFI 795f0 .cfa: x29 64 +
STACK CFI INIT 79784 2e4 .cfa: sp 0 +
STACK CFI 79788 .cfa: sp 144 +
STACK CFI 7979c .cfa: x29 64 + x19: .cfa -8 + ^ x20: .cfa -16 + ^ x21: .cfa -24 + ^ x22: .cfa -32 + ^ x23: .cfa -48 + ^ .ra: .cfa -56 + ^ x29: .cfa -64 + ^
STACK CFI 79914 .cfa: sp 144 +
STACK CFI 79928 .cfa: sp 0 +
STACK CFI 7992c .cfa: x29 64 +
STACK CFI INIT 79a68 2e4 .cfa: sp 0 +
STACK CFI 79a6c .cfa: sp 144 +
STACK CFI 79a80 .cfa: x29 64 + x19: .cfa -8 + ^ x20: .cfa -16 + ^ x21: .cfa -24 + ^ x22: .cfa -32 + ^ x23: .cfa -48 + ^ .ra: .cfa -56 + ^ x29: .cfa -64 + ^
STACK CFI 79bf8 .cfa: sp 144 +
STACK CFI 79c0c .cfa: sp 0 +
STACK CFI 79c10 .cfa: x29 64 +
STACK CFI INIT 79d4c 2a0 .cfa: sp 0 +
STACK CFI 79d50 .cfa: sp 144 +
STACK CFI 79d64 .cfa: x29 64 + x19: .cfa -8 + ^ x20: .cfa -16 + ^ x21: .cfa -24 + ^ x22: .cfa -32 + ^ x23: .cfa -48 + ^ .ra: .cfa -56 + ^ x29: .cfa -64 + ^
STACK CFI 79e98 .cfa: sp 144 +
STACK CFI 79eac .cfa: sp 0 +
STACK CFI 79eb0 .cfa: x29 64 +
STACK CFI INIT 79fec 2f0 .cfa: sp 0 +
STACK CFI 79ff0 .cfa: sp 144 +
STACK CFI 7a004 .cfa: x29 64 + x19: .cfa -8 + ^ x20: .cfa -16 + ^ x21: .cfa -24 + ^ x22: .cfa -32 + ^ x23: .cfa -48 + ^ .ra: .cfa -56 + ^ x29: .cfa -64 + ^
STACK CFI 7a188 .cfa: sp 144 +
STACK CFI 7a19c .cfa: sp 0 +
STACK CFI 7a1a0 .cfa: x29 64 +
STACK CFI INIT 7a2dc 4f4 .cfa: sp 0 +
STACK CFI 7a2e0 .cfa: sp 144 +
STACK CFI 7a2f4 .cfa: x29 64 + x19: .cfa -8 + ^ x20: .cfa -16 + ^ x21: .cfa -24 + ^ x22: .cfa -32 + ^ x23: .cfa -48 + ^ .ra: .cfa -56 + ^ x29: .cfa -64 + ^
STACK CFI 7a628 .cfa: sp 144 +
STACK CFI 7a63c .cfa: sp 0 +
STACK CFI 7a640 .cfa: x29 64 +
STACK CFI INIT 7a7d0 154 .cfa: sp 0 +
STACK CFI 7a7d4 .cfa: sp 384 +
STACK CFI 7a7e8 .cfa: x29 64 + x19: .cfa -8 + ^ x20: .cfa -16 + ^ x21: .cfa -24 + ^ x22: .cfa -32 + ^ x23: .cfa -40 + ^ x28: .cfa -48 + ^ .ra: .cfa -56 + ^ x29: .cfa -64 + ^
STACK CFI 7a8cc .cfa: sp 384 +
STACK CFI 7a8e0 .cfa: sp 0 +
STACK CFI 7a8e4 .cfa: x29 64 +
STACK CFI INIT 7a93c 50c .cfa: sp 0 +
STACK CFI 7a940 .cfa: sp 64 +
STACK CFI 7a950 .cfa: x29 64 + x19: .cfa -8 + ^ x20: .cfa -16 + ^ x21: .cfa -24 + ^ x22: .cfa -32 + ^ x23: .cfa -40 + ^ x24: .cfa -48 + ^ .ra: .cfa -56 + ^ x29: .cfa -64 + ^
STACK CFI 7aa70 .cfa: sp 64 +
STACK CFI 7aa80 .cfa: sp 0 +
STACK CFI 7aa84 .cfa: x29 64 +
STACK CFI 7ae1c .cfa: sp 64 +
STACK CFI 7ae2c .cfa: sp 0 +
STACK CFI 7ae30 .cfa: x29 64 +
STACK CFI INIT 7b178 294 .cfa: sp 0 +
STACK CFI 7b17c .cfa: sp 240 +
STACK CFI 7b194 .cfa: x29 80 + x19: .cfa -8 + ^ x20: .cfa -16 + ^ x21: .cfa -24 + ^ x22: .cfa -32 + ^ x23: .cfa -40 + ^ x24: .cfa -48 + ^ x25: .cfa -64 + ^ .ra: .cfa -72 + ^ x29: .cfa -80 + ^
STACK CFI 7b334 .cfa: sp 240 +
STACK CFI 7b34c .cfa: sp 0 +
STACK CFI 7b350 .cfa: x29 80 +
STACK CFI INIT 7b488 50 .cfa: sp 0 +
STACK CFI 7b48c .cfa: sp 32 +
STACK CFI 7b494 .cfa: x29 32 + x19: .cfa -8 + ^ x20: .cfa -16 + ^ .ra: .cfa -24 + ^ x29: .cfa -32 + ^
STACK CFI INIT 7b504 7c0 .cfa: sp 0 +
STACK CFI 7b508 .cfa: sp 320 +
STACK CFI 7b524 .cfa: x29 96 + x19: .cfa -8 + ^ x20: .cfa -16 + ^ x21: .cfa -24 + ^ x22: .cfa -32 + ^ x23: .cfa -40 + ^ x24: .cfa -48 + ^ x25: .cfa -56 + ^ x26: .cfa -64 + ^ x27: .cfa -72 + ^ x28: .cfa -80 + ^ .ra: .cfa -88 + ^ x29: .cfa -96 + ^
STACK CFI 7bb74 .cfa: sp 320 +
STACK CFI 7bb90 .cfa: sp 0 +
STACK CFI 7bb94 .cfa: x29 96 +
STACK CFI INIT 7bd28 14c .cfa: sp 0 +
STACK CFI 7bd2c .cfa: sp 80 +
STACK CFI 7bd40 .cfa: x29 80 + x19: .cfa -8 + ^ x20: .cfa -16 + ^ x21: .cfa -24 + ^ x22: .cfa -32 + ^ x23: .cfa -40 + ^ x24: .cfa -48 + ^ x28: .cfa -64 + ^ .ra: .cfa -72 + ^ x29: .cfa -80 + ^
STACK CFI 7bdd4 .cfa: sp 80 +
STACK CFI 7bde8 .cfa: sp 0 +
STACK CFI 7bdec .cfa: x29 80 +
STACK CFI INIT 8017c c74 .cfa: sp 0 +
STACK CFI 80180 .cfa: sp 96 +
STACK CFI 80198 .cfa: x29 96 + x19: .cfa -8 + ^ x20: .cfa -16 + ^ x21: .cfa -24 + ^ x22: .cfa -32 + ^ x23: .cfa -40 + ^ x24: .cfa -48 + ^ x25: .cfa -56 + ^ x26: .cfa -64 + ^ x27: .cfa -72 + ^ x28: .cfa -80 + ^ .ra: .cfa -88 + ^ x29: .cfa -96 + ^
STACK CFI 80c0c .cfa: sp 96 +
STACK CFI 80c24 .cfa: sp 0 +
STACK CFI 80c28 .cfa: x29 96 +
STACK CFI INIT 80f44 268 .cfa: sp 0 +
STACK CFI 80f48 .cfa: sp 128 +
STACK CFI 80f58 .cfa: x29 48 + x19: .cfa -8 + ^ x20: .cfa -16 + ^ x21: .cfa -24 + ^ x22: .cfa -32 + ^ .ra: .cfa -40 + ^ x29: .cfa -48 + ^
STACK CFI 810f8 .cfa: sp 128 +
STACK CFI 81108 .cfa: sp 0 +
STACK CFI 8110c .cfa: x29 48 +
STACK CFI INIT 8153c 3b8 .cfa: sp 0 +
STACK CFI 81540 .cfa: sp 96 +
STACK CFI 81558 .cfa: x29 96 + x19: .cfa -8 + ^ x20: .cfa -16 + ^ x21: .cfa -24 + ^ x22: .cfa -32 + ^ x23: .cfa -40 + ^ x24: .cfa -48 + ^ x25: .cfa -56 + ^ x26: .cfa -64 + ^ x27: .cfa -72 + ^ x28: .cfa -80 + ^ .ra: .cfa -88 + ^ x29: .cfa -96 + ^
STACK CFI 81894 .cfa: sp 96 +
STACK CFI 818ac .cfa: sp 0 +
STACK CFI 818b0 .cfa: x29 96 +
STACK CFI INIT 81994 cb0 .cfa: sp 0 +
STACK CFI 81998 .cfa: sp 96 +
STACK CFI 819b0 .cfa: x29 96 + x19: .cfa -8 + ^ x20: .cfa -16 + ^ x21: .cfa -24 + ^ x22: .cfa -32 + ^ x23: .cfa -40 + ^ x24: .cfa -48 + ^ x25: .cfa -56 + ^ x26: .cfa -64 + ^ x27: .cfa -72 + ^ x28: .cfa -80 + ^ .ra: .cfa -88 + ^ x29: .cfa -96 + ^
STACK CFI 82454 .cfa: sp 96 +
STACK CFI 8246c .cfa: sp 0 +
STACK CFI 82470 .cfa: x29 96 +
STACK CFI INIT 8292c ae4 .cfa: sp 0 +
STACK CFI 82930 .cfa: sp 96 +
STACK CFI 82948 .cfa: x29 96 + x19: .cfa -8 + ^ x20: .cfa -16 + ^ x21: .cfa -24 + ^ x22: .cfa -32 + ^ x23: .cfa -40 + ^ x24: .cfa -48 + ^ x25: .cfa -56 + ^ x26: .cfa -64 + ^ x27: .cfa -72 + ^ x28: .cfa -80 + ^ .ra: .cfa -88 + ^ x29: .cfa -96 + ^
STACK CFI 83384 .cfa: sp 96 +
STACK CFI 8339c .cfa: sp 0 +
STACK CFI 833a0 .cfa: x29 96 +
STACK CFI INIT 835ec 1424 .cfa: sp 0 +
STACK CFI 835f0 .cfa: sp 96 +
STACK CFI 83608 .cfa: x29 96 + x19: .cfa -8 + ^ x20: .cfa -16 + ^ x21: .cfa -24 + ^ x22: .cfa -32 + ^ x23: .cfa -40 + ^ x24: .cfa -48 + ^ x25: .cfa -56 + ^ x26: .cfa -64 + ^ x27: .cfa -72 + ^ x28: .cfa -80 + ^ .ra: .cfa -88 + ^ x29: .cfa -96 + ^
STACK CFI 848a0 .cfa: sp 96 +
STACK CFI 848b8 .cfa: sp 0 +
STACK CFI 848bc .cfa: x29 96 +
STACK CFI INIT 84b34 75c .cfa: sp 0 +
STACK CFI 84b38 .cfa: sp 368 +
STACK CFI 84b54 .cfa: x29 96 + x19: .cfa -8 + ^ x20: .cfa -16 + ^ x21: .cfa -24 + ^ x22: .cfa -32 + ^ x23: .cfa -40 + ^ x24: .cfa -48 + ^ x25: .cfa -56 + ^ x26: .cfa -64 + ^ x27: .cfa -72 + ^ x28: .cfa -80 + ^ .ra: .cfa -88 + ^ x29: .cfa -96 + ^
STACK CFI 84c08 .cfa: sp 368 +
STACK CFI 84c24 .cfa: sp 0 +
STACK CFI 84c28 .cfa: x29 96 +
STACK CFI 84c7c .cfa: sp 368 +
STACK CFI 84c98 .cfa: sp 0 +
STACK CFI 84c9c .cfa: x29 96 +
STACK CFI INIT 85654 eac .cfa: sp 0 +
STACK CFI 85658 .cfa: sp 96 +
STACK CFI 85670 .cfa: x29 96 + x19: .cfa -8 + ^ x20: .cfa -16 + ^ x21: .cfa -24 + ^ x22: .cfa -32 + ^ x23: .cfa -40 + ^ x24: .cfa -48 + ^ x25: .cfa -56 + ^ x26: .cfa -64 + ^ x27: .cfa -72 + ^ x28: .cfa -80 + ^ .ra: .cfa -88 + ^ x29: .cfa -96 + ^
STACK CFI 86314 .cfa: sp 96 +
STACK CFI 8632c .cfa: sp 0 +
STACK CFI 86330 .cfa: x29 96 +
STACK CFI INIT 86874 1c64 .cfa: sp 0 +
STACK CFI 86878 .cfa: sp 112 +
STACK CFI 86894 .cfa: x29 96 + x19: .cfa -8 + ^ x20: .cfa -16 + ^ x21: .cfa -24 + ^ x22: .cfa -32 + ^ x23: .cfa -40 + ^ x24: .cfa -48 + ^ x25: .cfa -56 + ^ x26: .cfa -64 + ^ x27: .cfa -72 + ^ x28: .cfa -80 + ^ .ra: .cfa -88 + ^ x29: .cfa -96 + ^ v8: .cfa -112 + ^
STACK CFI 86c68 .cfa: sp 112 +
STACK CFI 86c84 .cfa: sp 0 +
STACK CFI 86c88 .cfa: x29 96 +
STACK CFI INIT 8ac70 a4c .cfa: sp 0 +
STACK CFI 8ac74 .cfa: sp 144 +
STACK CFI 8ac8c .cfa: x29 80 + x19: .cfa -8 + ^ x20: .cfa -16 + ^ x21: .cfa -24 + ^ x22: .cfa -32 + ^ x23: .cfa -40 + ^ x24: .cfa -48 + ^ x25: .cfa -64 + ^ .ra: .cfa -72 + ^ x29: .cfa -80 + ^
STACK CFI 8b614 .cfa: sp 144 +
STACK CFI 8b62c .cfa: sp 0 +
STACK CFI 8b630 .cfa: x29 80 +
STACK CFI INIT 8cb50 57c .cfa: sp 0 +
STACK CFI 8cb54 .cfa: sp 96 +
STACK CFI 8cb6c .cfa: x29 96 + x19: .cfa -8 + ^ x20: .cfa -16 + ^ x21: .cfa -24 + ^ x22: .cfa -32 + ^ x23: .cfa -40 + ^ x24: .cfa -48 + ^ x25: .cfa -56 + ^ x26: .cfa -64 + ^ x27: .cfa -72 + ^ x28: .cfa -80 + ^ .ra: .cfa -88 + ^ x29: .cfa -96 + ^
STACK CFI 8d030 .cfa: sp 96 +
STACK CFI 8d048 .cfa: sp 0 +
STACK CFI 8d04c .cfa: x29 96 +
STACK CFI INIT 8d0cc 67c .cfa: sp 0 +
STACK CFI 8d0d0 .cfa: sp 96 +
STACK CFI 8d0e8 .cfa: x29 96 + x19: .cfa -8 + ^ x20: .cfa -16 + ^ x21: .cfa -24 + ^ x22: .cfa -32 + ^ x23: .cfa -40 + ^ x24: .cfa -48 + ^ x25: .cfa -56 + ^ x26: .cfa -64 + ^ x27: .cfa -72 + ^ x28: .cfa -80 + ^ .ra: .cfa -88 + ^ x29: .cfa -96 + ^
STACK CFI 8d6ac .cfa: sp 96 +
STACK CFI 8d6c4 .cfa: sp 0 +
STACK CFI 8d6c8 .cfa: x29 96 +
