MODULE Linux arm64 9B6E93A6A03E1C6CF8CDF452180280AD0 sorkopiko.dailystreak.android64.so
INFO CODE_ID A6936E9B3EA06C1CF8CDF452180280ADED84275B
INFO GENERATOR mozilla/dump_syms 2.3.4
PUBLIC 9930 0 __on_dlclose
PUBLIC 9940 0 __emutls_unregister_key
PUBLIC 9948 0 __on_dlclose_late
PUBLIC 9950 0 __atexit_handler_wrapper
PUBLIC 9964 0 atexit
PUBLIC 9980 0 pthread_atfork
PUBLIC 9990 0 unwind_phase2
PUBLIC 9ac4 0 _Unwind_Resume
PUBLIC 9b48 0 unwind_phase2_forced
PUBLIC m 9c3c 0 __unw_init_local
PUBLIC m 9ce4 0 __unw_get_reg
PUBLIC 9d60 0 __unw_step_stage2
PUBLIC m 9d74 0 __unw_get_proc_info
PUBLIC m 9db4 0 __unw_resume
PUBLIC 9ddc 0 libunwind::CFI_Parser<libunwind::LocalAddressSpace>::decodeFDE(libunwind::LocalAddressSpace&, unsigned long, libunwind::CFI_Parser<libunwind::LocalAddressSpace>::FDE_Info*, libunwind::CFI_Parser<libunwind::LocalAddressSpace>::CIE_Info*, bool)
PUBLIC 9f6c 0 libunwind::CFI_Parser<libunwind::LocalAddressSpace>::parseCIE(libunwind::LocalAddressSpace&, unsigned long, libunwind::CFI_Parser<libunwind::LocalAddressSpace>::CIE_Info*)
PUBLIC a234 0 libunwind::AbstractUnwindCursor::~AbstractUnwindCursor()
PUBLIC a23c 0 libunwind::UnwindCursor<libunwind::LocalAddressSpace, libunwind::Registers_arm64>::~UnwindCursor()
PUBLIC a244 0 libunwind::UnwindCursor<libunwind::LocalAddressSpace, libunwind::Registers_arm64>::validReg(int)
PUBLIC a288 0 libunwind::UnwindCursor<libunwind::LocalAddressSpace, libunwind::Registers_arm64>::getReg(int)
PUBLIC a370 0 libunwind::UnwindCursor<libunwind::LocalAddressSpace, libunwind::Registers_arm64>::setReg(int, unsigned long)
PUBLIC a458 0 libunwind::UnwindCursor<libunwind::LocalAddressSpace, libunwind::Registers_arm64>::validFloatReg(int)
PUBLIC a46c 0 libunwind::UnwindCursor<libunwind::LocalAddressSpace, libunwind::Registers_arm64>::getFloatReg(int)
PUBLIC a47c 0 libunwind::UnwindCursor<libunwind::LocalAddressSpace, libunwind::Registers_arm64>::setFloatReg(int, double)
PUBLIC a48c 0 libunwind::UnwindCursor<libunwind::LocalAddressSpace, libunwind::Registers_arm64>::step(bool)
PUBLIC a57c 0 libunwind::UnwindCursor<libunwind::LocalAddressSpace, libunwind::Registers_arm64>::getInfo(unw_proc_info_t*)
PUBLIC a5c0 0 libunwind::UnwindCursor<libunwind::LocalAddressSpace, libunwind::Registers_arm64>::jumpto()
PUBLIC a5cc 0 libunwind::UnwindCursor<libunwind::LocalAddressSpace, libunwind::Registers_arm64>::isSignalFrame()
PUBLIC a5d8 0 libunwind::UnwindCursor<libunwind::LocalAddressSpace, libunwind::Registers_arm64>::getFunctionName(char*, unsigned long, unsigned long*)
PUBLIC a604 0 libunwind::UnwindCursor<libunwind::LocalAddressSpace, libunwind::Registers_arm64>::setInfoBasedOnIPRegister(bool)
PUBLIC a884 0 libunwind::UnwindCursor<libunwind::LocalAddressSpace, libunwind::Registers_arm64>::getRegisterName(int)
PUBLIC a890 0 libunwind::UnwindCursor<libunwind::LocalAddressSpace, libunwind::Registers_arm64>::stepThroughSigReturn(libunwind::Registers_arm64&)
PUBLIC a9b0 0 libunwind::DwarfInstructions<libunwind::LocalAddressSpace, libunwind::Registers_arm64>::stepWithDwarf(libunwind::LocalAddressSpace&, unsigned long, unsigned long, libunwind::Registers_arm64&, bool&, bool)
PUBLIC ae38 0 libunwind::CFI_Parser<libunwind::LocalAddressSpace>::parseFDEInstructions(libunwind::LocalAddressSpace&, libunwind::CFI_Parser<libunwind::LocalAddressSpace>::FDE_Info const&, libunwind::CFI_Parser<libunwind::LocalAddressSpace>::CIE_Info const&, unsigned long, int, libunwind::CFI_Parser<libunwind::LocalAddressSpace>::PrologInfo*)
PUBLIC ba80 0 libunwind::DwarfInstructions<libunwind::LocalAddressSpace, libunwind::Registers_arm64>::getCFA(libunwind::LocalAddressSpace&, libunwind::CFI_Parser<libunwind::LocalAddressSpace>::PrologInfo const&, libunwind::Registers_arm64 const&)
PUBLIC bbb4 0 libunwind::DwarfInstructions<libunwind::LocalAddressSpace, libunwind::Registers_arm64>::getSavedRegister(libunwind::LocalAddressSpace&, libunwind::Registers_arm64 const&, unsigned long, libunwind::CFI_Parser<libunwind::LocalAddressSpace>::RegisterLocation const&)
PUBLIC bdc4 0 libunwind::LocalAddressSpace::getEncodedP(unsigned long&, unsigned long, unsigned char, unsigned long)
PUBLIC c150 0 libunwind::LocalAddressSpace::getULEB128(unsigned long&, unsigned long)
PUBLIC c318 0 libunwind::DwarfInstructions<libunwind::LocalAddressSpace, libunwind::Registers_arm64>::evaluateExpression(unsigned long, libunwind::LocalAddressSpace&, libunwind::Registers_arm64 const&, unsigned long)
PUBLIC ccd4 0 libunwind::UnwindCursor<libunwind::LocalAddressSpace, libunwind::Registers_arm64>::getInfoFromDwarfSection(unsigned long, libunwind::UnwindInfoSections const&, unsigned int)
PUBLIC cfa8 0 libunwind::findUnwindSectionsByPhdr(dl_phdr_info*, unsigned long, void*)
PUBLIC d0dc 0 libunwind::EHHeaderParser<libunwind::LocalAddressSpace>::decodeEHHdr(libunwind::LocalAddressSpace&, unsigned long, unsigned long, libunwind::EHHeaderParser<libunwind::LocalAddressSpace>::EHHeaderInfo&)
PUBLIC d1fc 0 libunwind::CFI_Parser<libunwind::LocalAddressSpace>::findFDE(libunwind::LocalAddressSpace&, unsigned long, unsigned long, unsigned long, unsigned long, libunwind::CFI_Parser<libunwind::LocalAddressSpace>::FDE_Info*, libunwind::CFI_Parser<libunwind::LocalAddressSpace>::CIE_Info*)
PUBLIC d3c4 0 libunwind::EHHeaderParser<libunwind::LocalAddressSpace>::findFDE(libunwind::LocalAddressSpace&, unsigned long, unsigned long, unsigned int, libunwind::CFI_Parser<libunwind::LocalAddressSpace>::FDE_Info*, libunwind::CFI_Parser<libunwind::LocalAddressSpace>::CIE_Info*)
PUBLIC d52c 0 libunwind::EHHeaderParser<libunwind::LocalAddressSpace>::getTableEntrySize(unsigned char)
PUBLIC d628 0 libunwind::Registers_arm64::getRegisterName(int)
PUBLIC d658 0 __libunwind_Registers_arm64_jumpto
PUBLIC m d6e8 0 __unw_getcontext
PUBLIC d790 0 __aarch64_ldadd8_relax
PUBLIC d7c0 0 init_have_lse_atomics
PUBLIC d858 0 __init_cpu_features_constructor
PUBLIC ddf4 0 __init_cpu_features
PUBLIC de80 0 __aarch64_ldadd8_acq_rel
PUBLIC deb0 0 __cxx_global_var_init
PUBLIC df10 0 geode::modifier::ModifyBase<geode::modifier::ModifyDerive<DSDailyLevelPage, DailyLevelPage> >::~ModifyBase()
PUBLIC df2c 0 __cxx_global_var_init.1
PUBLIC e3ac 0 geode::modifier::ModifyBase<geode::modifier::ModifyDerive<DSDailyLevelNode, DailyLevelNode> >::~ModifyBase()
PUBLIC e3c8 0 geode::modifier::ModifyBase<geode::modifier::ModifyDerive<DSDailyLevelPage, DailyLevelPage> >::ModifyBase()
PUBLIC e7c4 0 geode::modifier::ModifyDerive<DSDailyLevelPage, DailyLevelPage>::apply()
PUBLIC ea44 0 std::__ndk1::shared_ptr<geode::Hook>::~shared_ptr[abi:ne180000]()
PUBLIC ea94 0 geode::impl::ResultData<geode::Hook*, std::__ndk1::basic_string<char, std::__ndk1::char_traits<char>, std::__ndk1::allocator<char> > >::~ResultData()
PUBLIC eb08 0 std::__ndk1::vector<std::__ndk1::basic_string<char, std::__ndk1::char_traits<char>, std::__ndk1::allocator<char> >, std::__ndk1::allocator<std::__ndk1::basic_string<char, std::__ndk1::char_traits<char>, std::__ndk1::allocator<char> > > >::~vector[abi:ne180000]()
PUBLIC eb84 0 geode::modifier::ModifyBase<geode::modifier::ModifyDerive<DSDailyLevelPage, DailyLevelPage> >::apply()
PUBLIC eb88 0 __clang_call_terminate
PUBLIC eb98 0 _ZN5geode15UnwrapExceptionC2IRPNS_4HookEQsr4implE18IsStringStreamableIT_EEENS_4impl5OkTagEOS5_
PUBLIC ecec 0 std::__ndk1::__throw_bad_variant_access[abi:ne180000]()
PUBLIC ed20 0 std::__ndk1::basic_stringstream<char, std::__ndk1::char_traits<char>, std::__ndk1::allocator<char> >::basic_stringstream[abi:ne180000]()
PUBLIC m ee4c 0 std::__ndk1::basic_stringstream<char, std::__ndk1::char_traits<char>, std::__ndk1::allocator<char> >::~basic_stringstream()
PUBLIC eecc 0 geode::UnwrapException::~UnwrapException()
PUBLIC eef0 0 std::__ndk1::__put_character_sequence[abi:ne180000]<char, std::__ndk1::char_traits<char> >(std::__ndk1::basic_ostream<char, std::__ndk1::char_traits<char> >, std::__ndk1::basic_ostream const*, unsigned long)
PUBLIC f094 0 std::__ndk1::__pad_and_output[abi:ne180000]<char, std::__ndk1::char_traits<char> >(std::__ndk1::char_traits<char>, std::__ndk1::ostreambuf_iterator const*, std::__ndk1::ostreambuf_iterator const, std::__ndk1::ostreambuf_iterator const, std::__ndk1::ios_base&, std::__ndk1::ostreambuf_iterator)
PUBLIC f270 0 std::__ndk1::basic_string<char, std::__ndk1::char_traits<char>, std::__ndk1::allocator<char> >::__throw_length_error[abi:ne180000]() const
PUBLIC f284 0 std::__ndk1::__throw_length_error[abi:ne180000](char const*)
PUBLIC f2d4 0 std::length_error::length_error[abi:ne180000](char const*)
PUBLIC f304 0 std::__throw_bad_array_new_length([abi:ne180000], void)
PUBLIC f338 0 std::__ndk1::basic_stringbuf<char, std::__ndk1::char_traits<char>, std::__ndk1::allocator<char> >::str[abi:ne180000]() &&
PUBLIC f4b0 0 std::__ndk1::basic_stringbuf<char, std::__ndk1::char_traits<char>, std::__ndk1::allocator<char> >::__init_buf_ptrs[abi:ne180000]()
PUBLIC f5f8 0 std::__ndk1::vector<std::__ndk1::basic_string<char, std::__ndk1::char_traits<char>, std::__ndk1::allocator<char> >, std::__ndk1::allocator<std::__ndk1::basic_string<char, std::__ndk1::char_traits<char>, std::__ndk1::allocator<char> > > >::__push_back_slow_path<std::__ndk1::basic_string<char, std::__ndk1::char_traits<char>, std::__ndk1::allocator<char> > const&>(std::__ndk1::basic_string<char, std::__ndk1::char_traits<char>, std::__ndk1::allocator<char> > const&)
PUBLIC f820 0 std::__ndk1::basic_string<char, std::__ndk1::char_traits<char>, std::__ndk1::allocator<char> >::__init_copy_ctor_external(char const*, unsigned long)
PUBLIC f8a0 0 std::__ndk1::__split_buffer<std::__ndk1::basic_string<char, std::__ndk1::char_traits<char>, std::__ndk1::allocator<char> >, std::__ndk1::allocator<std::__ndk1::basic_string<char, std::__ndk1::char_traits<char>, std::__ndk1::allocator<char> > >&>::~__split_buffer()
PUBLIC f908 0 std::__ndk1::vector<std::__ndk1::basic_string<char, std::__ndk1::char_traits<char>, std::__ndk1::allocator<char> >, std::__ndk1::allocator<std::__ndk1::basic_string<char, std::__ndk1::char_traits<char>, std::__ndk1::allocator<char> > > >::__throw_length_error[abi:ne180000]() const
PUBLIC f91c 0 std::__ndk1::__variant_detail::__visitation::__base::__dispatcher<(unsigned long)0>::__dispatch[abi:ne180000]<std::__ndk1::__variant_detail::__dtor<std::__ndk1::__variant_detail::__traits<geode::Hook*, std::__ndk1::basic_string<char, std::__ndk1::char_traits<char>, std::__ndk1::allocator<char> > >, (std::__ndk1::__variant_detail::_Trait)1>::__destroy[abi:ne180000]()::{lambda(auto:1&)#1}, std::__ndk1::__variant_detail::__base<(std::__ndk1::__variant_detail::__traits<geode::Hook*, std::__ndk1::basic_string<char, std::__ndk1::char_traits<char>, std::__ndk1::allocator<char> > >)1, geode::Hook, std::__ndk1::allocator<char> >&>(std::__ndk1::__variant_detail::__dtor<std::__ndk1::__variant_detail::__traits<geode::Hook*, std::__ndk1::basic_string<char, std::__ndk1::char_traits<char>, std::__ndk1::allocator<char> > >, (std::__ndk1::__variant_detail::_Trait)1>, std::__ndk1::__variant_detail::__base<(std::__ndk1::__variant_detail::__traits<geode::Hook*, std::__ndk1::basic_string<char, std::__ndk1::char_traits<char>, std::__ndk1::allocator<char> > >)1, geode::Hook, std::__ndk1::allocator<char> >&)
PUBLIC f920 0 std::__ndk1::__variant_detail::__visitation::__base::__dispatcher<(unsigned long)1>::__dispatch[abi:ne180000]<std::__ndk1::__variant_detail::__dtor<std::__ndk1::__variant_detail::__traits<geode::Hook*, std::__ndk1::basic_string<char, std::__ndk1::char_traits<char>, std::__ndk1::allocator<char> > >, (std::__ndk1::__variant_detail::_Trait)1>::__destroy[abi:ne180000]()::{lambda(auto:1&)#1}, std::__ndk1::__variant_detail::__base<(std::__ndk1::__variant_detail::__traits<geode::Hook*, std::__ndk1::basic_string<char, std::__ndk1::char_traits<char>, std::__ndk1::allocator<char> > >)1, geode::Hook, std::__ndk1::allocator<char> >&>(std::__ndk1::__variant_detail::__dtor<std::__ndk1::__variant_detail::__traits<geode::Hook*, std::__ndk1::basic_string<char, std::__ndk1::char_traits<char>, std::__ndk1::allocator<char> > >, (std::__ndk1::__variant_detail::_Trait)1>, std::__ndk1::__variant_detail::__base<(std::__ndk1::__variant_detail::__traits<geode::Hook*, std::__ndk1::basic_string<char, std::__ndk1::char_traits<char>, std::__ndk1::allocator<char> > >)1, geode::Hook, std::__ndk1::allocator<char> >&)
PUBLIC f934 0 std::__ndk1::__tree<std::__ndk1::__value_type<std::__ndk1::basic_string<char, std::__ndk1::char_traits<char>, std::__ndk1::allocator<char> >, std::__ndk1::shared_ptr<geode::Hook> >, std::__ndk1::__map_value_compare<std::__ndk1::basic_string<char, std::__ndk1::char_traits<char>, std::__ndk1::allocator<char> >, std::__ndk1::__value_type<std::__ndk1::basic_string<char, std::__ndk1::char_traits<char>, std::__ndk1::allocator<char> >, std::__ndk1::shared_ptr<geode::Hook> >, std::__ndk1::less<std::__ndk1::basic_string<char, std::__ndk1::char_traits<char>, std::__ndk1::allocator<char> > >, true>, std::__ndk1::allocator<std::__ndk1::__value_type<std::__ndk1::basic_string<char, std::__ndk1::char_traits<char>, std::__ndk1::allocator<char> >, std::__ndk1::shared_ptr<geode::Hook> > > >::find<std::__ndk1::basic_string<char, std::__ndk1::char_traits<char>, std::__ndk1::allocator<char> > >(std::__ndk1::basic_string<char, std::__ndk1::char_traits<char>, std::__ndk1::allocator<char> > const&)
PUBLIC fa54 0 std::__ndk1::__tree<std::__ndk1::__value_type<std::__ndk1::basic_string<char, std::__ndk1::char_traits<char>, std::__ndk1::allocator<char> >, std::__ndk1::shared_ptr<geode::Hook> >, std::__ndk1::__map_value_compare<std::__ndk1::basic_string<char, std::__ndk1::char_traits<char>, std::__ndk1::allocator<char> >, std::__ndk1::__value_type<std::__ndk1::basic_string<char, std::__ndk1::char_traits<char>, std::__ndk1::allocator<char> >, std::__ndk1::shared_ptr<geode::Hook> >, std::__ndk1::less<std::__ndk1::basic_string<char, std::__ndk1::char_traits<char>, std::__ndk1::allocator<char> > >, true>, std::__ndk1::allocator<std::__ndk1::__value_type<std::__ndk1::basic_string<char, std::__ndk1::char_traits<char>, std::__ndk1::allocator<char> >, std::__ndk1::shared_ptr<geode::Hook> > > >::erase(std::__ndk1::__tree_const_iterator<std::__ndk1::__value_type<std::__ndk1::basic_string<char, std::__ndk1::char_traits<char>, std::__ndk1::allocator<char> >, std::__ndk1::shared_ptr<geode::Hook> >, std::__ndk1::__tree_node<std::__ndk1::__value_type<std::__ndk1::basic_string<char, std::__ndk1::char_traits<char>, std::__ndk1::allocator<char> >, std::__ndk1::shared_ptr<geode::Hook> >, void*>*, long>)
PUBLIC fb28 0 std::__ndk1::__tree_remove[abi:ne180000]<std::__ndk1::__tree_node_base<void*>*>(std::__ndk1::__tree_node_base<void*>*, std::__ndk1::__tree_node_base<void*>*)
PUBLIC fef0 0 std::__ndk1::__tree<std::__ndk1::__value_type<std::__ndk1::basic_string<char, std::__ndk1::char_traits<char>, std::__ndk1::allocator<char> >, std::__ndk1::shared_ptr<geode::Hook> >, std::__ndk1::__map_value_compare<std::__ndk1::basic_string<char, std::__ndk1::char_traits<char>, std::__ndk1::allocator<char> >, std::__ndk1::__value_type<std::__ndk1::basic_string<char, std::__ndk1::char_traits<char>, std::__ndk1::allocator<char> >, std::__ndk1::shared_ptr<geode::Hook> >, std::__ndk1::less<std::__ndk1::basic_string<char, std::__ndk1::char_traits<char>, std::__ndk1::allocator<char> > >, true>, std::__ndk1::allocator<std::__ndk1::__value_type<std::__ndk1::basic_string<char, std::__ndk1::char_traits<char>, std::__ndk1::allocator<char> >, std::__ndk1::shared_ptr<geode::Hook> > > >::destroy(std::__ndk1::__tree_node<std::__ndk1::__value_type<std::__ndk1::basic_string<char, std::__ndk1::char_traits<char>, std::__ndk1::allocator<char> >, std::__ndk1::shared_ptr<geode::Hook> >, void*>*)
PUBLIC ff7c 0 geode::Hook::create<bool (*)(DSDailyLevelPage*, GJTimedLevelType)>(void*, bool (*)(DSDailyLevelPage*, GJTimedLevelType), std::__ndk1::basic_string<char, std::__ndk1::char_traits<char>, std::__ndk1::allocator<char> > const&, tulip::hook::TulipConvention, tulip::hook::HookMetadata const&)
PUBLIC 10100 0 geode::modifier::AsStaticFunction_init<DSDailyLevelPage, bool (DSDailyLevelPage::*)(GJTimedLevelType)>::Impl<bool (DSDailyLevelPage::*)(GJTimedLevelType)>::function(DSDailyLevelPage*, GJTimedLevelType)
PUBLIC 10104 0 std::__ndk1::shared_ptr<tulip::hook::CallingConvention>::~shared_ptr[abi:ne180000]()
PUBLIC 10154 0 tulip::hook::HandlerMetadata::~HandlerMetadata()
PUBLIC 101b8 0 std::__ndk1::__tree<std::__ndk1::__value_type<std::__ndk1::basic_string<char, std::__ndk1::char_traits<char>, std::__ndk1::allocator<char> >, std::__ndk1::shared_ptr<geode::Hook> >, std::__ndk1::__map_value_compare<std::__ndk1::basic_string<char, std::__ndk1::char_traits<char>, std::__ndk1::allocator<char> >, std::__ndk1::__value_type<std::__ndk1::basic_string<char, std::__ndk1::char_traits<char>, std::__ndk1::allocator<char> >, std::__ndk1::shared_ptr<geode::Hook> >, std::__ndk1::less<std::__ndk1::basic_string<char, std::__ndk1::char_traits<char>, std::__ndk1::allocator<char> > >, true>, std::__ndk1::allocator<std::__ndk1::__value_type<std::__ndk1::basic_string<char, std::__ndk1::char_traits<char>, std::__ndk1::allocator<char> >, std::__ndk1::shared_ptr<geode::Hook> > > >::__emplace_unique_key_args<std::__ndk1::basic_string<char, std::__ndk1::char_traits<char>, std::__ndk1::allocator<char> >, std::__ndk1::piecewise_construct_t const&, std::__ndk1::tuple<std::__ndk1::basic_string<char, std::__ndk1::char_traits<char>, std::__ndk1::allocator<char> >&&>, std::__ndk1::tuple<> >(std::__ndk1::basic_string<char, std::__ndk1::char_traits<char>, std::__ndk1::allocator<char> > const&, std::__ndk1::piecewise_construct_t const&, std::__ndk1::tuple<std::__ndk1::basic_string<char, std::__ndk1::char_traits<char>, std::__ndk1::allocator<char> >&&>, std::__ndk1::tuple<>)
PUBLIC 10330 0 std::__ndk1::__tree_balance_after_insert[abi:ne180000]<std::__ndk1::__tree_node_base<void*>*>(std::__ndk1::__tree_node_base<void*>*, std::__ndk1::__tree_node_base<void*>*)
PUBLIC 104e0 0 geode::modifier::ModifyDerive<DSDailyLevelNode, DailyLevelNode>::apply()
PUBLIC 10868 0 geode::modifier::ModifyBase<geode::modifier::ModifyDerive<DSDailyLevelNode, DailyLevelNode> >::apply()
PUBLIC 1086c 0 geode::modifier::AsStaticFunction_onClaimReward<DSDailyLevelNode, void (DSDailyLevelNode::*)(cocos2d::CCObject*)>::Impl<void (DSDailyLevelNode::*)(cocos2d::CCObject*)>::function(DSDailyLevelNode*, cocos2d::CCObject*)
PUBLIC 10950 0 DSDailyLevelPage::init(GJTimedLevelType)
PUBLIC 10cf4 0 geode::Mod::getSettingValue<bool>(std::__ndk1::basic_string_view<char, std::__ndk1::char_traits<char> >) const
PUBLIC 10e28 0 DSDailyLevelPage::updateLabel()
PUBLIC 1102c 0 geode::modifier::FieldIntermediate<DSDailyLevelPage, DailyLevelPage>::self()
PUBLIC 111b4 0 geode::modifier::FieldContainer::getField(unsigned long)
PUBLIC 1146c 0 geode::modifier::FieldContainer::setField(unsigned long, unsigned long, std::__ndk1::function<void (void*)>)
PUBLIC 11580 0 geode::modifier::FieldIntermediate<DSDailyLevelPage, DailyLevelPage>::fieldDestructor(void*)
PUBLIC 115a0 0 std::__ndk1::vector<void*, std::__ndk1::allocator<void*> >::__throw_length_error[abi:ne180000]() const
PUBLIC 115b4 0 std::__ndk1::vector<std::__ndk1::function<void (void*)>, std::__ndk1::allocator<std::__ndk1::function<void (void*)> > >::__push_back_slow_path<std::__ndk1::function<void (void*)> >(std::__ndk1::function<void (void*)>&&)
PUBLIC 117e0 0 std::__ndk1::vector<std::__ndk1::function<void (void*)>, std::__ndk1::allocator<std::__ndk1::function<void (void*)> > >::__throw_length_error[abi:ne180000]() const
PUBLIC 117f4 0 std::__ndk1::vector<void*, std::__ndk1::allocator<void*> >::__throw_out_of_range[abi:ne180000]() const
PUBLIC 11808 0 std::__ndk1::__throw_out_of_range[abi:ne180000](char const*)
PUBLIC 11858 0 std::out_of_range::out_of_range[abi:ne180000](char const*)
PUBLIC 11888 0 std::__ndk1::vector<std::__ndk1::function<void (void*)>, std::__ndk1::allocator<std::__ndk1::function<void (void*)> > >::__throw_out_of_range[abi:ne180000]() const
PUBLIC 1189c 0 std::__ndk1::__function::__base<void (void*)>::~__base()
PUBLIC 118a0 0 std::__ndk1::__function::__func<void (*)(void*), std::__ndk1::allocator<void (*)(void*)>, void (void*)>::~__func()
PUBLIC 118a4 0 std::__ndk1::__function::__func<void (*)(void*), std::__ndk1::allocator<void (*)(void*)>, void (void*)>::__clone() const
PUBLIC 118dc 0 std::__ndk1::__function::__func<void (*)(void*), std::__ndk1::allocator<void (*)(void*)>, void (void*)>::__clone(std::__ndk1::__function::__base<void (void*)>*) const
PUBLIC 118f4 0 std::__ndk1::__function::__func<void (*)(void*), std::__ndk1::allocator<void (*)(void*)>, void (void*)>::destroy()
PUBLIC 118f8 0 std::__ndk1::__function::__func<void (*)(void*), std::__ndk1::allocator<void (*)(void*)>, void (void*)>::destroy_deallocate()
PUBLIC 118fc 0 std::__ndk1::__function::__func<void (*)(void*), std::__ndk1::allocator<void (*)(void*)>, void (void*)>::operator()(void*&&)
PUBLIC 1190c 0 std::__ndk1::__function::__func<void (*)(void*), std::__ndk1::allocator<void (*)(void*)>, void (void*)>::target(std::type_info const&) const
PUBLIC 11928 0 std::__ndk1::__function::__func<void (*)(void*), std::__ndk1::allocator<void (*)(void*)>, void (void*)>::target_type() const
PUBLIC 11934 0 geode::cast::traverseTypeinfoFor(void*, geode::cast::ClassTypeinfoType const*, char const*)
PUBLIC 11a38 0 __cxx_global_var_init
PUBLIC 1218c 0 geode::modifier::ModifyBase<geode::modifier::ModifyDerive<DSMenuLayer, MenuLayer> >::~ModifyBase()
PUBLIC 121a8 0 geode::modifier::FieldIntermediate<DSMenuLayer, MenuLayer>::self()
PUBLIC 12334 0 geode::modifier::FieldIntermediate<DSMenuLayer, MenuLayer>::fieldDestructor(void*)
PUBLIC 12370 0 geode::modifier::ModifyDerive<DSMenuLayer, MenuLayer>::apply()
PUBLIC 12678 0 geode::modifier::ModifyBase<geode::modifier::ModifyDerive<DSMenuLayer, MenuLayer> >::apply()
PUBLIC 1267c 0 std::__ndk1::unique_ptr<std::__ndk1::__tree_node<std::__ndk1::__value_type<std::__ndk1::basic_string<char, std::__ndk1::char_traits<char>, std::__ndk1::allocator<char> >, std::__ndk1::shared_ptr<geode::Hook> >, void*>, std::__ndk1::__tree_node_destructor<std::__ndk1::allocator<std::__ndk1::__tree_node<std::__ndk1::__value_type<std::__ndk1::basic_string<char, std::__ndk1::char_traits<char>, std::__ndk1::allocator<char> >, std::__ndk1::shared_ptr<geode::Hook> >, void*> > > >::~unique_ptr[abi:ne180000]()
PUBLIC 126f8 0 std::__ndk1::__variant_detail::__visitation::__base::__dispatcher<(unsigned long)0>::__dispatch[abi:ne180000]<std::__ndk1::__variant_detail::__dtor<std::__ndk1::__variant_detail::__traits<std::__ndk1::monostate, std::__ndk1::basic_string<char, std::__ndk1::char_traits<char>, std::__ndk1::allocator<char> > >, (std::__ndk1::__variant_detail::_Trait)1>::__destroy[abi:ne180000]()::{lambda(auto:1&)#1}, std::__ndk1::__variant_detail::__base<(std::__ndk1::__variant_detail::__traits<std::__ndk1::monostate, std::__ndk1::basic_string<char, std::__ndk1::char_traits<char>, std::__ndk1::allocator<char> > >)1, std::__ndk1::__variant_detail::__traits, std::__ndk1::allocator<char> >&>(std::__ndk1::__variant_detail::__dtor<std::__ndk1::__variant_detail::__traits<std::__ndk1::monostate, std::__ndk1::basic_string<char, std::__ndk1::char_traits<char>, std::__ndk1::allocator<char> > >, (std::__ndk1::__variant_detail::_Trait)1>, std::__ndk1::__variant_detail::__base<(std::__ndk1::__variant_detail::__traits<std::__ndk1::monostate, std::__ndk1::basic_string<char, std::__ndk1::char_traits<char>, std::__ndk1::allocator<char> > >)1, std::__ndk1::__variant_detail::__traits, std::__ndk1::allocator<char> >&)
PUBLIC 126fc 0 std::__ndk1::__variant_detail::__visitation::__base::__dispatcher<(unsigned long)1>::__dispatch[abi:ne180000]<std::__ndk1::__variant_detail::__dtor<std::__ndk1::__variant_detail::__traits<std::__ndk1::monostate, std::__ndk1::basic_string<char, std::__ndk1::char_traits<char>, std::__ndk1::allocator<char> > >, (std::__ndk1::__variant_detail::_Trait)1>::__destroy[abi:ne180000]()::{lambda(auto:1&)#1}, std::__ndk1::__variant_detail::__base<(std::__ndk1::__variant_detail::__traits<std::__ndk1::monostate, std::__ndk1::basic_string<char, std::__ndk1::char_traits<char>, std::__ndk1::allocator<char> > >)1, std::__ndk1::__variant_detail::__traits, std::__ndk1::allocator<char> >&>(std::__ndk1::__variant_detail::__dtor<std::__ndk1::__variant_detail::__traits<std::__ndk1::monostate, std::__ndk1::basic_string<char, std::__ndk1::char_traits<char>, std::__ndk1::allocator<char> > >, (std::__ndk1::__variant_detail::_Trait)1>, std::__ndk1::__variant_detail::__base<(std::__ndk1::__variant_detail::__traits<std::__ndk1::monostate, std::__ndk1::basic_string<char, std::__ndk1::char_traits<char>, std::__ndk1::allocator<char> > >)1, std::__ndk1::__variant_detail::__traits, std::__ndk1::allocator<char> >&)
PUBLIC 12710 0 geode::modifier::AsStaticFunction_init<DSMenuLayer, bool (DSMenuLayer::*)()>::Impl<bool (DSMenuLayer::*)()>::function(DSMenuLayer*)
PUBLIC 12d74 0 geode::addresser::Addresser::addressOfVirtual<bool, MenuLayer, >(bool (MenuLayer::*)())
PUBLIC 12e1c 0 MenuLayer::MenuLayer(geode::ZeroConstructorType)
PUBLIC 12eb8 0 Streak::calculate(GJTimedLevelType const&)
PUBLIC 133a4 0 geode::cocos::CCDictionaryExt<gd::string, GJGameLevel*>::~CCDictionaryExt()
PUBLIC 133c0 0 std::__ndk1::vector<GJGameLevel*, std::__ndk1::allocator<GJGameLevel*> >::__throw_length_error[abi:ne180000]() const
PUBLIC 133d4 0 std::__ndk1::__introsort<std::__ndk1::_ClassicAlgPolicy, Streak::calculate(GJTimedLevelType const&)::$_0&, GJGameLevel**, false>(GJGameLevel**, GJGameLevel**, Streak::calculate(GJTimedLevelType const&)::$_0&, std::__ndk1::iterator_traits<GJGameLevel**>::difference_type, bool)
PUBLIC 142f8 0 std::__ndk1::__insertion_sort_incomplete[abi:ne180000]<std::__ndk1::_ClassicAlgPolicy, Streak::calculate(GJTimedLevelType const&)::$_0&, GJGameLevel**>(GJGameLevel**, GJGameLevel**, Streak::calculate(GJTimedLevelType const&)::$_0&)
PUBLIC 14774 0 std::__ndk1::__sort4[abi:ne180000]<std::__ndk1::_ClassicAlgPolicy, Streak::calculate(GJTimedLevelType const&)::$_0&, GJGameLevel**>(GJGameLevel**, GJGameLevel**, GJGameLevel**, GJGameLevel**, Streak::calculate(GJTimedLevelType const&)::$_0&)
PUBLIC m 14918 0 geodeImplicitEntry
PUBLIC 14954 0 __udivti3
PUBLIC 14960 0 __udivmodti4
PUBLIC m 14bac 0 __eqtf2
PUBLIC 14c4c 0 __unordtf2
PUBLIC 14c84 0 fmt::v11::detail::write_loc(fmt::v11::basic_appender<char>, fmt::v11::loc_value, fmt::v11::format_specs const&, fmt::v11::detail::locale_ref)
PUBLIC 14f18 0 fmt::v11::format_facet<std::__ndk1::locale>::~format_facet()
PUBLIC 14f94 0 fmt::v11::report_error(char const*)
PUBLIC 14fe4 0 fmt::v11::format_error::runtime_error(char const*)
PUBLIC 15010 0 fmt::v11::format_facet<std::__ndk1::locale>::do_put(fmt::v11::basic_appender<char>, fmt::v11::loc_value, fmt::v11::format_specs const&) const
PUBLIC 157d0 0 fmt::v11::detail::loc_writer<char>::~loc_writer()
PUBLIC 15834 0 fmt::v11::detail::vformat_to<char>(fmt::v11::detail::buffer<char>&, fmt::v11::basic_string_view<char>, fmt::v11::detail::vformat_args<char>::type, fmt::v11::detail::locale_ref)
PUBLIC 15da4 0 fmt::v11::detail::is_printable(unsigned int)
PUBLIC 15fcc 0 fmt::v11::detail::dragonbox::to_decimal<float>(float)
PUBLIC 162a8 0 fmt::v11::detail::dragonbox::to_decimal<double>(double)
PUBLIC 167e4 0 fmt::v11::basic_memory_buffer<char, (unsigned long)500, std::__ndk1::allocator<char> >::grow(fmt::v11::detail::buffer<char>&, unsigned long)
PUBLIC 1685c 0 fmt::v11::format_facet<std::__ndk1::locale>::~format_facet()
PUBLIC 168e8 0 fmt::v11::format_error::~format_error()
PUBLIC 1690c 0 fmt::v11::detail::copy_noinline<char, char const*, fmt::v11::basic_appender<char> >(char const*, char const*, fmt::v11::basic_appender<char>)
PUBLIC 16a5c 0 fmt::v11::detail::default_arg_formatter<char>::operator()<bool>(bool)
PUBLIC 16ac4 0 fmt::v11::detail::default_arg_formatter<char>::operator()<char>(char)
PUBLIC 16b54 0 fmt::v11::detail::default_arg_formatter<char>::operator()<float>(float)
PUBLIC 16c40 0 fmt::v11::detail::default_arg_formatter<char>::operator()<double>(double)
PUBLIC 16d2c 0 fmt::v11::detail::default_arg_formatter<char>::operator()<char const*>(char const*)
PUBLIC 16d74 0 fmt::v11::detail::default_arg_formatter<char>::operator()<void const*>(void const*)
PUBLIC 16e0c 0 _ZN3fmt3v116detail5writeIcNS0_14basic_appenderIcEEiTnNSt6__ndk19enable_ifIXaaaasr11is_integralIT1_EE5valuentsr3std7is_sameIS7_bEE5valuentsr3std7is_sameIS7_T_EE5valueEiE4typeELi0EEET0_SB_S7_
PUBLIC 1706c 0 fmt::v11::detail::copy_noinline<char, char*, fmt::v11::basic_appender<char> >(char*, char*, fmt::v11::basic_appender<char>)
PUBLIC 171bc 0 _ZN3fmt3v116detail5writeIcNS0_14basic_appenderIcEEjTnNSt6__ndk19enable_ifIXaaaasr11is_integralIT1_EE5valuentsr3std7is_sameIS7_bEE5valuentsr3std7is_sameIS7_T_EE5valueEiE4typeELi0EEET0_SB_S7_
PUBLIC 1739c 0 _ZN3fmt3v116detail5writeIcNS0_14basic_appenderIcEExTnNSt6__ndk19enable_ifIXaaaasr11is_integralIT1_EE5valuentsr3std7is_sameIS7_bEE5valuentsr3std7is_sameIS7_T_EE5valueEiE4typeELi0EEET0_SB_S7_
PUBLIC 17620 0 _ZN3fmt3v116detail5writeIcNS0_14basic_appenderIcEEyTnNSt6__ndk19enable_ifIXaaaasr11is_integralIT1_EE5valuentsr3std7is_sameIS7_bEE5valuentsr3std7is_sameIS7_T_EE5valueEiE4typeELi0EEET0_SB_S7_
PUBLIC 17828 0 _ZN3fmt3v116detail5writeIcNS0_14basic_appenderIcEEnTnNSt6__ndk19enable_ifIXaaaasr11is_integralIT1_EE5valuentsr3std7is_sameIS7_bEE5valuentsr3std7is_sameIS7_T_EE5valueEiE4typeELi0EEET0_SB_S7_
PUBLIC 17b88 0 _ZN3fmt3v116detail5writeIcNS0_14basic_appenderIcEEoTnNSt6__ndk19enable_ifIXaaaasr11is_integralIT1_EE5valuentsr3std7is_sameIS7_bEE5valuentsr3std7is_sameIS7_T_EE5valueEiE4typeELi0EEET0_SB_S7_
PUBLIC 17e9c 0 _ZN3fmt3v116detail5writeIcNS0_14basic_appenderIcEEbTnNSt6__ndk19enable_ifIXsr3std7is_sameIT1_bEE5valueEiE4typeELi0EEET0_SA_S7_RKNS0_12format_specsENS1_10locale_refE
PUBLIC 1812c 0 fmt::v11::detail::write_int_noinline<char, fmt::v11::basic_appender<char>, unsigned int>(fmt::v11::basic_appender<char>, fmt::v11::detail::write_int_arg<unsigned int>, fmt::v11::format_specs const&, fmt::v11::detail::locale_ref)
PUBLIC 18f08 0 fmt::v11::detail::fill<char, fmt::v11::basic_appender<char> >(fmt::v11::basic_appender<char>, unsigned long, fmt::v11::detail::fill_t const&)
PUBLIC 190d8 0 fmt::v11::detail::write_padded<char, (fmt::v11::align::type)1, fmt::v11::basic_appender<char>, fmt::v11::detail::write_char<char, fmt::v11::basic_appender<char> >(fmt::v11::basic_appender<char>, char, fmt::v11::format_specs const&)::{lambda(fmt::v11::basic_appender<char>&)#1}>(fmt::v11::basic_appender<char>, fmt::v11::format_specs const&, unsigned long, unsigned long, fmt::v11::detail::write_char<char, fmt::v11::basic_appender<char> >(fmt::v11::basic_appender<char>, char, fmt::v11::format_specs const&)::{lambda(fmt::v11::basic_appender<char>&)#1})
PUBLIC 19314 0 fmt::v11::detail::write_escaped_cp<fmt::v11::basic_appender<char>, char>(fmt::v11::basic_appender<char>, fmt::v11::detail::find_escape_result<char> const&)
PUBLIC 19620 0 fmt::v11::detail::write_codepoint<(unsigned long)2, char, fmt::v11::basic_appender<char> >(fmt::v11::basic_appender<char>, char, unsigned int)
PUBLIC 19798 0 fmt::v11::detail::write_codepoint<(unsigned long)8, char, fmt::v11::basic_appender<char> >(fmt::v11::basic_appender<char>, char, unsigned int)
PUBLIC 19910 0 fmt::v11::detail::write_padded<char, (fmt::v11::align::type)1, fmt::v11::basic_appender<char>, fmt::v11::detail::write_nonfinite<char, fmt::v11::basic_appender<char> >(fmt::v11::basic_appender<char>, bool, fmt::v11::format_specs, fmt::v11::sign::type)::{lambda(fmt::v11::basic_appender<char>&)#1}>(fmt::v11::basic_appender<char>, fmt::v11::format_specs const&, unsigned long, unsigned long, fmt::v11::detail::write_nonfinite<char, fmt::v11::basic_appender<char> >(fmt::v11::basic_appender<char>, bool, fmt::v11::format_specs, fmt::v11::sign::type)::{lambda(fmt::v11::basic_appender<char>&)#1})
PUBLIC 19b50 0 fmt::v11::detail::do_write_float<char, fmt::v11::basic_appender<char>, fmt::v11::detail::dragonbox::decimal_fp<float>, fmt::v11::detail::digit_grouping<char> >(fmt::v11::basic_appender<char>, fmt::v11::detail::dragonbox::decimal_fp<float> const&, fmt::v11::format_specs const&, fmt::v11::detail::float_specs, fmt::v11::detail::locale_ref)
PUBLIC 1a7c4 0 fmt::v11::detail::do_write_float<char, fmt::v11::basic_appender<char>, fmt::v11::detail::dragonbox::decimal_fp<float>, fmt::v11::detail::digit_grouping<char> >(fmt::v11::basic_appender<char>, fmt::v11::detail::dragonbox::decimal_fp<float> const&, fmt::v11::format_specs const&, fmt::v11::detail::float_specs, fmt::v11::detail::locale_ref)::{lambda(fmt::v11::basic_appender<char>(fmt::v11::basic_appender<char>))#1}::operator() const
PUBLIC 1a918 0 fmt::v11::detail::digit_grouping<char>::digit_grouping(fmt::v11::detail::locale_ref, bool)
PUBLIC 1ab84 0 fmt::v11::detail::digit_grouping<char>::~digit_grouping()
PUBLIC 1abc8 0 fmt::v11::detail::write_exponent<char, fmt::v11::basic_appender<char> >(int, fmt::v11::basic_appender<char>)
PUBLIC 1ad98 0 _ZN3fmt3v116detail17write_significandIcjTnNSt6__ndk19enable_ifIXsr3std11is_integralIT0_EE5valueEiE4typeELi0EEEPT_S9_S5_iiS8_
PUBLIC 1af14 0 std::__ndk1::basic_string<char, std::__ndk1::char_traits<char>, std::__ndk1::allocator<char> >::__assign_no_alias<true>(char const*, unsigned long)
PUBLIC 1afc0 0 std::__ndk1::basic_string<char, std::__ndk1::char_traits<char>, std::__ndk1::allocator<char> >::__assign_no_alias<false>(char const*, unsigned long)
PUBLIC 1b0d0 0 fmt::v11::detail::digit_grouping<char>::apply<fmt::v11::basic_appender<char>, char>(fmt::v11::basic_appender<char>, fmt::v11::basic_string_view<char>) const
PUBLIC 1b488 0 fmt::v11::basic_memory_buffer<int, (unsigned long)500, std::__ndk1::allocator<int> >::grow(fmt::v11::detail::buffer<int>&, unsigned long)
PUBLIC 1b528 0 fmt::v11::detail::do_write_float<char, fmt::v11::basic_appender<char>, fmt::v11::detail::dragonbox::decimal_fp<double>, fmt::v11::detail::digit_grouping<char> >(fmt::v11::basic_appender<char>, fmt::v11::detail::dragonbox::decimal_fp<double> const&, fmt::v11::format_specs const&, fmt::v11::detail::float_specs, fmt::v11::detail::locale_ref)
PUBLIC 1c1dc 0 fmt::v11::detail::do_write_float<char, fmt::v11::basic_appender<char>, fmt::v11::detail::dragonbox::decimal_fp<double>, fmt::v11::detail::digit_grouping<char> >(fmt::v11::basic_appender<char>, fmt::v11::detail::dragonbox::decimal_fp<double> const&, fmt::v11::format_specs const&, fmt::v11::detail::float_specs, fmt::v11::detail::locale_ref)::{lambda(fmt::v11::basic_appender<char>(fmt::v11::basic_appender<char>))#1}::operator() const
PUBLIC 1c334 0 _ZN3fmt3v116detail17write_significandIcmTnNSt6__ndk19enable_ifIXsr3std11is_integralIT0_EE5valueEiE4typeELi0EEEPT_S9_S5_iiS8_
PUBLIC 1c4c4 0 fmt::v11::detail::write_float<char, fmt::v11::basic_appender<char>, long double>(fmt::v11::basic_appender<char>, long double, fmt::v11::format_specs, fmt::v11::detail::locale_ref)
PUBLIC 1cfc0 0 fmt::v11::detail::write_padded<char, (fmt::v11::align::type)2, fmt::v11::basic_appender<char>, fmt::v11::detail::write_bytes<char, (fmt::v11::align::type)2, fmt::v11::basic_appender<char> >(fmt::v11::basic_appender<char>, fmt::v11::basic_string_view<char>, fmt::v11::format_specs const&)::{lambda(fmt::v11::basic_appender<char>&)#1}>(fmt::v11::basic_appender<char>, fmt::v11::format_specs const&, unsigned long, unsigned long, fmt::v11::detail::write_bytes<char, (fmt::v11::align::type)2, fmt::v11::basic_appender<char> >(fmt::v11::basic_appender<char>, fmt::v11::basic_string_view<char>, fmt::v11::format_specs const&)::{lambda(fmt::v11::basic_appender<char>&)#1})
PUBLIC 1d19c 0 fmt::v11::detail::format_dragon(fmt::v11::detail::basic_fp<unsigned __int128>, unsigned int, int, fmt::v11::detail::buffer<char>&, int&)
PUBLIC 1e5cc 0 fmt::v11::detail::bigint::operator<<=(int)
PUBLIC 1e6f0 0 fmt::v11::detail::bigint::assign_pow10(int)
PUBLIC 1ee4c 0 fmt::v11::detail::bigint::divmod_assign(fmt::v11::detail::bigint const&)
PUBLIC 1f16c 0 fmt::v11::basic_memory_buffer<unsigned int, (unsigned long)32, std::__ndk1::allocator<unsigned int> >::grow(fmt::v11::detail::buffer<unsigned int>&, unsigned long)
PUBLIC 1f20c 0 fmt::v11::detail::do_write_float<char, fmt::v11::basic_appender<char>, fmt::v11::detail::big_decimal_fp, fmt::v11::detail::digit_grouping<char> >(fmt::v11::basic_appender<char>, fmt::v11::detail::big_decimal_fp const&, fmt::v11::format_specs const&, fmt::v11::detail::float_specs, fmt::v11::detail::locale_ref)
PUBLIC 200bc 0 fmt::v11::detail::do_write_float<char, fmt::v11::basic_appender<char>, fmt::v11::detail::big_decimal_fp, fmt::v11::detail::digit_grouping<char> >(fmt::v11::basic_appender<char>, fmt::v11::detail::big_decimal_fp const&, fmt::v11::format_specs const&, fmt::v11::detail::float_specs, fmt::v11::detail::locale_ref)::{lambda(fmt::v11::basic_appender<char>(fmt::v11::basic_appender<char>))#1}::operator() const
PUBLIC 2021c 0 fmt::v11::detail::write_padded<char, (fmt::v11::align::type)2, fmt::v11::basic_appender<char>, fmt::v11::detail::write_ptr<char, fmt::v11::basic_appender<char>, unsigned long>(fmt::v11::basic_appender<char>, unsigned long, fmt::v11::format_specs const*)::{lambda(fmt::v11::basic_appender<char>&)#1}>(fmt::v11::basic_appender<char>, fmt::v11::format_specs const&, unsigned long, unsigned long, fmt::v11::detail::write_ptr<char, fmt::v11::basic_appender<char>, unsigned long>(fmt::v11::basic_appender<char>, unsigned long, fmt::v11::format_specs const*)::{lambda(fmt::v11::basic_appender<char>&)#1})
PUBLIC 20430 0 fmt::v11::detail::parse_replacement_field<char, fmt::v11::detail::vformat_to<char>(fmt::v11::detail::buffer<char>&, fmt::v11::basic_string_view<char>, fmt::v11::detail::vformat_args<char>::type, fmt::v11::detail::locale_ref)::format_handler&>(char const*, char const*, fmt::v11::detail::vformat_to<char>(fmt::v11::detail::buffer<char>&, fmt::v11::basic_string_view<char>, fmt::v11::detail::vformat_args<char>::type, fmt::v11::detail::locale_ref)::format_handler&)
PUBLIC 220cc 0 fmt::v11::detail::parse_dynamic_spec<char>(char const*, char const*, int&, fmt::v11::detail::arg_ref<char>&, fmt::v11::basic_format_parse_context<char>&)
PUBLIC 2235c 0 fmt::v11::basic_format_args<fmt::v11::context>::get<char>(fmt::v11::basic_string_view<char>) const
PUBLIC 224b4 0 fmt::v11::detail::write_int_noinline<char, fmt::v11::basic_appender<char>, unsigned long>(fmt::v11::basic_appender<char>, fmt::v11::detail::write_int_arg<unsigned long>, fmt::v11::format_specs const&, fmt::v11::detail::locale_ref)
PUBLIC 23308 0 fmt::v11::detail::write_int_noinline<char, fmt::v11::basic_appender<char>, unsigned __int128>(fmt::v11::basic_appender<char>, fmt::v11::detail::write_int_arg<unsigned __int128>, fmt::v11::format_specs const&, fmt::v11::detail::locale_ref)
PUBLIC 24370 0 _ZN3fmt3v116detail15format_hexfloatIdTnNSt6__ndk19enable_ifIXntsr16is_double_doubleIT_EE5valueEiE4typeELi0EEEvS5_NS0_12format_specsERNS1_6bufferIcEE
PUBLIC 24890 0 fmt::v11::detail::format_float<double>(double, int, fmt::v11::detail::float_specs, fmt::v11::detail::buffer<char>&)
PUBLIC 25230 0 fmt::v11::detail::write<char, fmt::v11::basic_appender<char> >(fmt::v11::basic_appender<char>, fmt::v11::basic_string_view<char>, fmt::v11::format_specs const&)
PUBLIC 2659c 0 fmt::v11::detail::for_each_codepoint<fmt::v11::detail::compute_width(fmt::v11::basic_string_view<char>)::count_code_points>(fmt::v11::basic_string_view<char>, fmt::v11::detail::compute_width(fmt::v11::basic_string_view<char>)::count_code_points)::{lambda(char const*, char const*)#1}::operator()(char const*, char const*) const
PUBLIC 26754 0 fmt::v11::detail::write_int<fmt::v11::basic_appender<char>, unsigned long, char>(fmt::v11::basic_appender<char>, unsigned long, unsigned int, fmt::v11::format_specs const&, fmt::v11::detail::digit_grouping<char> const&)
PUBLIC 26cd0 0 fmt::v11::detail::write_int<fmt::v11::basic_appender<char>, unsigned __int128, char>(fmt::v11::basic_appender<char>, unsigned __int128, unsigned int, fmt::v11::format_specs const&, fmt::v11::detail::digit_grouping<char> const&)
PUBLIC 27350 0 <.plt ELF section in sorkopiko.dailystreak.android64.so>
STACK CFI INIT 9930 10 .cfa: sp 0 +
STACK CFI INIT 9940 8 .cfa: sp 0 +
STACK CFI INIT 9948 8 .cfa: sp 0 +
STACK CFI INIT 9950 14 .cfa: sp 0 +
STACK CFI INIT 9964 1c .cfa: sp 0 +
STACK CFI INIT 9980 10 .cfa: sp 0 +
STACK CFI INIT 9990 134 .cfa: sp 0 +
STACK CFI INIT 9ac4 84 .cfa: sp 0 +
STACK CFI INIT 9b48 f4 .cfa: sp 0 +
STACK CFI INIT 9c3c a8 .cfa: sp 0 +
STACK CFI INIT 9ce4 7c .cfa: sp 0 +
STACK CFI INIT 9d60 14 .cfa: sp 0 +
STACK CFI INIT 9d74 40 .cfa: sp 0 +
STACK CFI INIT 9db4 28 .cfa: sp 0 +
STACK CFI INIT 9ddc 190 .cfa: sp 0 +
STACK CFI INIT 9f6c 2c8 .cfa: sp 0 +
STACK CFI INIT a234 8 .cfa: sp 0 +
STACK CFI INIT a23c 8 .cfa: sp 0 +
STACK CFI INIT a244 44 .cfa: sp 0 +
STACK CFI INIT a288 e8 .cfa: sp 0 +
STACK CFI INIT a370 e8 .cfa: sp 0 +
STACK CFI INIT a458 14 .cfa: sp 0 +
STACK CFI INIT a46c 10 .cfa: sp 0 +
STACK CFI INIT a47c 10 .cfa: sp 0 +
STACK CFI INIT a48c f0 .cfa: sp 0 +
STACK CFI INIT a57c 44 .cfa: sp 0 +
STACK CFI INIT a5c0 c .cfa: sp 0 +
STACK CFI INIT a5cc c .cfa: sp 0 +
STACK CFI INIT a5d8 2c .cfa: sp 0 +
STACK CFI INIT a604 280 .cfa: sp 0 +
STACK CFI INIT a884 c .cfa: sp 0 +
STACK CFI INIT a890 120 .cfa: sp 0 +
STACK CFI INIT a9b0 488 .cfa: sp 0 +
STACK CFI INIT ae38 c48 .cfa: sp 0 +
STACK CFI INIT ba80 134 .cfa: sp 0 +
STACK CFI INIT bbb4 210 .cfa: sp 0 +
STACK CFI INIT bdc4 38c .cfa: sp 0 +
STACK CFI INIT c150 1c8 .cfa: sp 0 +
STACK CFI INIT c318 9bc .cfa: sp 0 +
STACK CFI INIT ccd4 2d4 .cfa: sp 0 +
STACK CFI INIT cfa8 134 .cfa: sp 0 +
STACK CFI INIT d0dc 120 .cfa: sp 0 +
STACK CFI INIT d1fc 1c8 .cfa: sp 0 +
STACK CFI INIT d3c4 168 .cfa: sp 0 +
STACK CFI INIT d52c fc .cfa: sp 0 +
STACK CFI INIT d628 30 .cfa: sp 0 +
STACK CFI INIT d790 30 .cfa: sp 0 +
STACK CFI INIT d7c0 98 .cfa: sp 0 +
STACK CFI INIT d858 59c .cfa: sp 0 +
STACK CFI INIT ddf4 8c .cfa: sp 0 +
STACK CFI INIT de80 30 .cfa: sp 0 +
STACK CFI INIT deb0 60 .cfa: sp 0 +
STACK CFI dec0 .cfa: sp 32 +
STACK CFI dec8 .cfa: x29 32 + x19: .cfa -16 + ^ .ra: .cfa -24 + ^ x29: .cfa -32 + ^
STACK CFI df00 .cfa: sp 32 +
STACK CFI df08 .cfa: sp 0 +
STACK CFI INIT df10 1c .cfa: sp 0 +
STACK CFI INIT e3ac 1c .cfa: sp 0 +
STACK CFI INIT ea44 50 .cfa: sp 0 +
STACK CFI ea48 .cfa: sp 32 +
STACK CFI ea50 .cfa: x29 32 + x19: .cfa -16 + ^ .ra: .cfa -24 + ^ x29: .cfa -32 + ^
STACK CFI ea68 .cfa: sp 32 +
STACK CFI ea70 .cfa: sp 0 +
STACK CFI ea74 .cfa: x29 32 +
STACK CFI ea88 .cfa: sp 32 +
STACK CFI ea90 .cfa: sp 0 +
STACK CFI INIT eb08 7c .cfa: sp 0 +
STACK CFI eb0c .cfa: sp 48 +
STACK CFI eb18 .cfa: x29 48 + x19: .cfa -8 + ^ x20: .cfa -16 + ^ x21: .cfa -32 + ^ .ra: .cfa -40 + ^ x29: .cfa -48 + ^
STACK CFI eb64 .cfa: sp 48 +
STACK CFI eb70 .cfa: sp 0 +
STACK CFI eb74 .cfa: sp 48 +
STACK CFI eb80 .cfa: sp 0 +
STACK CFI INIT eb84 4 .cfa: sp 0 +
STACK CFI INIT eb88 10 .cfa: sp 0 +
STACK CFI eb8c .cfa: sp 16 +
STACK CFI eb90 .cfa: x29 16 + .ra: .cfa -8 + ^ x29: .cfa -16 + ^
STACK CFI INIT ecec 34 .cfa: sp 0 +
STACK CFI ecf0 .cfa: sp 16 +
STACK CFI ecf4 .cfa: x29 16 + .ra: .cfa -8 + ^ x29: .cfa -16 + ^
STACK CFI INIT ee4c 80 .cfa: sp 0 +
STACK CFI ee50 .cfa: sp 48 +
STACK CFI ee5c .cfa: x29 48 + x19: .cfa -8 + ^ x20: .cfa -16 + ^ x21: .cfa -32 + ^ .ra: .cfa -40 + ^ x29: .cfa -48 + ^
STACK CFI eebc .cfa: sp 48 +
STACK CFI eec8 .cfa: sp 0 +
STACK CFI INIT eecc 24 .cfa: sp 0 +
STACK CFI eed0 .cfa: sp 32 +
STACK CFI eed8 .cfa: x29 32 + x19: .cfa -16 + ^ .ra: .cfa -24 + ^ x29: .cfa -32 + ^
STACK CFI eee4 .cfa: sp 32 +
STACK CFI eeec .cfa: sp 0 +
STACK CFI INIT f270 14 .cfa: sp 0 +
STACK CFI f274 .cfa: sp 16 +
STACK CFI f278 .cfa: x29 16 + .ra: .cfa -8 + ^ x29: .cfa -16 + ^
STACK CFI INIT f2d4 30 .cfa: sp 0 +
STACK CFI f2d8 .cfa: sp 32 +
STACK CFI f2e0 .cfa: x29 32 + x19: .cfa -16 + ^ .ra: .cfa -24 + ^ x29: .cfa -32 + ^
STACK CFI f2f8 .cfa: sp 32 +
STACK CFI f300 .cfa: sp 0 +
STACK CFI INIT f304 34 .cfa: sp 0 +
STACK CFI f308 .cfa: sp 32 +
STACK CFI f310 .cfa: x29 32 + x19: .cfa -16 + ^ .ra: .cfa -24 + ^ x29: .cfa -32 + ^
STACK CFI INIT f4b0 148 .cfa: sp 0 +
STACK CFI f4b4 .cfa: sp 48 +
STACK CFI f4c0 .cfa: x29 48 + x19: .cfa -8 + ^ x20: .cfa -16 + ^ x21: .cfa -32 + ^ .ra: .cfa -40 + ^ x29: .cfa -48 + ^
STACK CFI f5e8 .cfa: sp 48 +
STACK CFI f5f4 .cfa: sp 0 +
STACK CFI INIT f820 80 .cfa: sp 0 +
STACK CFI f824 .cfa: sp 48 +
STACK CFI f830 .cfa: x29 48 + x19: .cfa -8 + ^ x20: .cfa -16 + ^ x21: .cfa -24 + ^ x22: .cfa -32 + ^ .ra: .cfa -40 + ^ x29: .cfa -48 + ^
STACK CFI f848 .cfa: sp 48 +
STACK CFI f854 .cfa: sp 0 +
STACK CFI f858 .cfa: x29 48 +
STACK CFI f888 .cfa: sp 48 +
STACK CFI f894 .cfa: sp 0 +
STACK CFI f898 .cfa: x29 48 +
STACK CFI INIT f8a0 68 .cfa: sp 0 +
STACK CFI f8a4 .cfa: sp 32 +
STACK CFI f8ac .cfa: x29 32 + x19: .cfa -8 + ^ x20: .cfa -16 + ^ .ra: .cfa -24 + ^ x29: .cfa -32 + ^
STACK CFI f8c4 .cfa: sp 32 +
STACK CFI f8cc .cfa: sp 0 +
STACK CFI f8d0 .cfa: x29 32 +
STACK CFI f8fc .cfa: sp 32 +
STACK CFI f904 .cfa: sp 0 +
STACK CFI INIT f908 14 .cfa: sp 0 +
STACK CFI f90c .cfa: sp 16 +
STACK CFI f910 .cfa: x29 16 + .ra: .cfa -8 + ^ x29: .cfa -16 + ^
STACK CFI INIT f91c 4 .cfa: sp 0 +
STACK CFI INIT f920 14 .cfa: sp 0 +
STACK CFI INIT f934 120 .cfa: sp 0 +
STACK CFI f938 .cfa: sp 64 +
STACK CFI f948 .cfa: x29 64 + x19: .cfa -8 + ^ x20: .cfa -16 + ^ x21: .cfa -24 + ^ x22: .cfa -32 + ^ x23: .cfa -40 + ^ x24: .cfa -48 + ^ .ra: .cfa -56 + ^ x29: .cfa -64 + ^
STACK CFI fa40 .cfa: sp 64 +
STACK CFI fa50 .cfa: sp 0 +
STACK CFI INIT fa54 d4 .cfa: sp 0 +
STACK CFI fa58 .cfa: sp 48 +
STACK CFI fa64 .cfa: x29 48 + x19: .cfa -8 + ^ x20: .cfa -16 + ^ x21: .cfa -32 + ^ .ra: .cfa -40 + ^ x29: .cfa -48 + ^
STACK CFI faf4 .cfa: sp 48 +
STACK CFI fb00 .cfa: sp 0 +
STACK CFI fb04 .cfa: x29 48 +
STACK CFI INIT fb28 3c8 .cfa: sp 0 +
STACK CFI INIT fef0 8c .cfa: sp 0 +
STACK CFI fef8 .cfa: sp 32 +
STACK CFI ff00 .cfa: x29 32 + x19: .cfa -8 + ^ x20: .cfa -16 + ^ .ra: .cfa -24 + ^ x29: .cfa -32 + ^
STACK CFI ff48 .cfa: sp 32 +
STACK CFI ff50 .cfa: sp 0 +
STACK CFI ff58 .cfa: x29 32 +
STACK CFI INIT 10100 4 .cfa: sp 0 +
STACK CFI INIT 10104 50 .cfa: sp 0 +
STACK CFI 10108 .cfa: sp 32 +
STACK CFI 10110 .cfa: x29 32 + x19: .cfa -16 + ^ .ra: .cfa -24 + ^ x29: .cfa -32 + ^
STACK CFI 10128 .cfa: sp 32 +
STACK CFI 10130 .cfa: sp 0 +
STACK CFI 10134 .cfa: x29 32 +
STACK CFI 10148 .cfa: sp 32 +
STACK CFI 10150 .cfa: sp 0 +
STACK CFI INIT 10154 64 .cfa: sp 0 +
STACK CFI 10158 .cfa: sp 32 +
STACK CFI 10160 .cfa: x29 32 + x19: .cfa -16 + ^ .ra: .cfa -24 + ^ x29: .cfa -32 + ^
STACK CFI 1018c .cfa: sp 32 +
STACK CFI 10194 .cfa: sp 0 +
STACK CFI 10198 .cfa: x29 32 +
STACK CFI 101ac .cfa: sp 32 +
STACK CFI 101b4 .cfa: sp 0 +
STACK CFI INIT 101b8 178 .cfa: sp 0 +
STACK CFI 101bc .cfa: sp 80 +
STACK CFI 101d0 .cfa: x29 80 + x19: .cfa -8 + ^ x20: .cfa -16 + ^ x21: .cfa -24 + ^ x22: .cfa -32 + ^ x23: .cfa -40 + ^ x24: .cfa -48 + ^ x25: .cfa -56 + ^ x26: .cfa -64 + ^ .ra: .cfa -72 + ^ x29: .cfa -80 + ^
STACK CFI 10318 .cfa: sp 80 +
STACK CFI 1032c .cfa: sp 0 +
STACK CFI INIT 10330 1b0 .cfa: sp 0 +
STACK CFI INIT 10868 4 .cfa: sp 0 +
STACK CFI INIT 115a0 14 .cfa: sp 0 +
STACK CFI 115a4 .cfa: sp 16 +
STACK CFI 115a8 .cfa: x29 16 + .ra: .cfa -8 + ^ x29: .cfa -16 + ^
STACK CFI INIT 117e0 14 .cfa: sp 0 +
STACK CFI 117e4 .cfa: sp 16 +
STACK CFI 117e8 .cfa: x29 16 + .ra: .cfa -8 + ^ x29: .cfa -16 + ^
STACK CFI INIT 117f4 14 .cfa: sp 0 +
STACK CFI 117f8 .cfa: sp 16 +
STACK CFI 117fc .cfa: x29 16 + .ra: .cfa -8 + ^ x29: .cfa -16 + ^
STACK CFI INIT 11858 30 .cfa: sp 0 +
STACK CFI 1185c .cfa: sp 32 +
STACK CFI 11864 .cfa: x29 32 + x19: .cfa -16 + ^ .ra: .cfa -24 + ^ x29: .cfa -32 + ^
STACK CFI 1187c .cfa: sp 32 +
STACK CFI 11884 .cfa: sp 0 +
STACK CFI INIT 11888 14 .cfa: sp 0 +
STACK CFI 1188c .cfa: sp 16 +
STACK CFI 11890 .cfa: x29 16 + .ra: .cfa -8 + ^ x29: .cfa -16 + ^
STACK CFI INIT 1189c 4 .cfa: sp 0 +
STACK CFI INIT 118a0 4 .cfa: sp 0 +
STACK CFI INIT 118a4 38 .cfa: sp 0 +
STACK CFI 118a8 .cfa: sp 32 +
STACK CFI 118b0 .cfa: x29 32 + x19: .cfa -16 + ^ .ra: .cfa -24 + ^ x29: .cfa -32 + ^
STACK CFI 118d0 .cfa: sp 32 +
STACK CFI 118d8 .cfa: sp 0 +
STACK CFI INIT 118dc 18 .cfa: sp 0 +
STACK CFI INIT 118f4 4 .cfa: sp 0 +
STACK CFI INIT 118f8 4 .cfa: sp 0 +
STACK CFI INIT 118fc 10 .cfa: sp 0 +
STACK CFI INIT 1190c 1c .cfa: sp 0 +
STACK CFI INIT 11928 c .cfa: sp 0 +
STACK CFI INIT 11934 104 .cfa: sp 0 +
STACK CFI 11938 .cfa: sp 64 +
STACK CFI 11948 .cfa: x29 64 + x19: .cfa -8 + ^ x20: .cfa -16 + ^ x21: .cfa -24 + ^ x22: .cfa -32 + ^ x23: .cfa -48 + ^ .ra: .cfa -56 + ^ x29: .cfa -64 + ^
STACK CFI 119a4 .cfa: sp 64 +
STACK CFI 119b4 .cfa: sp 0 +
STACK CFI 119b8 .cfa: x29 64 +
STACK CFI 119d4 .cfa: sp 64 +
STACK CFI 119e4 .cfa: sp 0 +
STACK CFI 119e8 .cfa: x29 64 +
STACK CFI 11a24 .cfa: sp 64 +
STACK CFI 11a34 .cfa: sp 0 +
STACK CFI INIT 1218c 1c .cfa: sp 0 +
STACK CFI INIT 12678 4 .cfa: sp 0 +
STACK CFI INIT 1267c 7c .cfa: sp 0 +
STACK CFI 12680 .cfa: sp 32 +
STACK CFI 12688 .cfa: x29 32 + x19: .cfa -8 + ^ x20: .cfa -16 + ^ .ra: .cfa -24 + ^ x29: .cfa -32 + ^
STACK CFI 126e0 .cfa: sp 32 +
STACK CFI 126e8 .cfa: sp 0 +
STACK CFI 126ec .cfa: sp 32 +
STACK CFI 126f4 .cfa: sp 0 +
STACK CFI INIT 126f8 4 .cfa: sp 0 +
STACK CFI INIT 126fc 14 .cfa: sp 0 +
STACK CFI INIT 12e1c 9c .cfa: sp 0 +
STACK CFI INIT 133c0 14 .cfa: sp 0 +
STACK CFI 133c4 .cfa: sp 16 +
STACK CFI 133c8 .cfa: x29 16 + .ra: .cfa -8 + ^ x29: .cfa -16 + ^
STACK CFI INIT 133d4 f24 .cfa: sp 0 +
STACK CFI 133d8 .cfa: sp 80 +
STACK CFI 133ec .cfa: x29 80 + x19: .cfa -8 + ^ x20: .cfa -16 + ^ x21: .cfa -24 + ^ x22: .cfa -32 + ^ x23: .cfa -40 + ^ x24: .cfa -48 + ^ x25: .cfa -64 + ^ .ra: .cfa -72 + ^ x29: .cfa -80 + ^
STACK CFI 13db4 .cfa: sp 80 +
STACK CFI 13dc8 .cfa: sp 0 +
STACK CFI 13dcc .cfa: x29 80 +
STACK CFI 13e3c .cfa: sp 80 +
STACK CFI 13e50 .cfa: sp 0 +
STACK CFI 13e54 .cfa: x29 80 +
STACK CFI 141f4 .cfa: sp 80 +
STACK CFI 14208 .cfa: sp 0 +
STACK CFI 1420c .cfa: x29 80 +
STACK CFI 14210 .cfa: sp 80 +
STACK CFI 14224 .cfa: sp 0 +
STACK CFI 14228 .cfa: x29 80 +
STACK CFI 142e0 .cfa: sp 80 +
STACK CFI 142f4 .cfa: sp 0 +
STACK CFI INIT 142f8 47c .cfa: sp 0 +
STACK CFI 142fc .cfa: sp 32 +
STACK CFI 14304 .cfa: x29 32 + x19: .cfa -8 + ^ x20: .cfa -16 + ^ .ra: .cfa -24 + ^ x29: .cfa -32 + ^
STACK CFI 1435c .cfa: sp 32 +
STACK CFI 14364 .cfa: sp 0 +
STACK CFI 14368 .cfa: x29 32 +
STACK CFI 14468 .cfa: sp 32 +
STACK CFI 14470 .cfa: sp 0 +
STACK CFI 14474 .cfa: x29 32 +
STACK CFI 144d8 .cfa: sp 32 +
STACK CFI 144e0 .cfa: sp 0 +
STACK CFI 144e4 .cfa: x29 32 +
STACK CFI 1459c .cfa: sp 32 +
STACK CFI 145a4 .cfa: sp 0 +
STACK CFI 145a8 .cfa: x29 32 +
STACK CFI 145ec .cfa: sp 32 +
STACK CFI 145f4 .cfa: sp 0 +
STACK CFI 145f8 .cfa: x29 32 +
STACK CFI 14750 .cfa: sp 32 +
STACK CFI 14758 .cfa: sp 0 +
STACK CFI 1475c .cfa: x29 32 +
STACK CFI 14768 .cfa: sp 32 +
STACK CFI 14770 .cfa: sp 0 +
STACK CFI INIT 14774 1a4 .cfa: sp 0 +
STACK CFI INIT 14918 3c .cfa: sp 0 +
STACK CFI 1491c .cfa: sp 32 +
STACK CFI 14924 .cfa: x29 32 + x19: .cfa -16 + ^ .ra: .cfa -24 + ^ x29: .cfa -32 + ^
STACK CFI 14930 .cfa: sp 32 +
STACK CFI 14938 .cfa: sp 0 +
STACK CFI 1493c .cfa: x29 32 +
STACK CFI 14948 .cfa: sp 32 +
STACK CFI 14950 .cfa: sp 0 +
STACK CFI INIT 14954 c .cfa: sp 0 +
STACK CFI INIT 14960 24c .cfa: sp 0 +
STACK CFI INIT 14bac a0 .cfa: sp 0 +
STACK CFI 14bb8 .cfa: sp 32 +
STACK CFI 14c10 .cfa: sp 0 +
STACK CFI 14c14 .cfa: sp 32 +
STACK CFI 14c1c .cfa: sp 0 +
STACK CFI 14c20 .cfa: sp 32 +
STACK CFI 14c34 .cfa: sp 0 +
STACK CFI 14c38 .cfa: sp 32 +
STACK CFI 14c48 .cfa: sp 0 +
STACK CFI INIT 14c4c 38 .cfa: sp 0 +
STACK CFI 14c58 .cfa: sp 32 +
STACK CFI 14c80 .cfa: sp 0 +
STACK CFI INIT 14f18 7c .cfa: sp 0 +
STACK CFI 14f1c .cfa: sp 32 +
STACK CFI 14f24 .cfa: x29 32 + x19: .cfa -16 + ^ .ra: .cfa -24 + ^ x29: .cfa -32 + ^
STACK CFI 14f50 .cfa: sp 32 +
STACK CFI 14f58 .cfa: sp 0 +
STACK CFI 14f5c .cfa: x29 32 +
STACK CFI 14f88 .cfa: sp 32 +
STACK CFI 14f90 .cfa: sp 0 +
STACK CFI INIT 14fe4 2c .cfa: sp 0 +
STACK CFI 14fe8 .cfa: sp 32 +
STACK CFI 14ff0 .cfa: x29 32 + x19: .cfa -16 + ^ .ra: .cfa -24 + ^ x29: .cfa -32 + ^
STACK CFI 15004 .cfa: sp 32 +
STACK CFI 1500c .cfa: sp 0 +
STACK CFI INIT 157d0 64 .cfa: sp 0 +
STACK CFI 157d4 .cfa: sp 32 +
STACK CFI 157dc .cfa: x29 32 + x19: .cfa -16 + ^ .ra: .cfa -24 + ^ x29: .cfa -32 + ^
STACK CFI 157f8 .cfa: sp 32 +
STACK CFI 15800 .cfa: sp 0 +
STACK CFI 15804 .cfa: x29 32 +
STACK CFI 15828 .cfa: sp 32 +
STACK CFI 15830 .cfa: sp 0 +
STACK CFI INIT 15834 570 .cfa: sp 0 +
STACK CFI 15838 .cfa: sp 176 +
STACK CFI 1584c .cfa: x29 64 + x19: .cfa -8 + ^ x20: .cfa -16 + ^ x21: .cfa -24 + ^ x22: .cfa -32 + ^ x23: .cfa -40 + ^ x24: .cfa -48 + ^ .ra: .cfa -56 + ^ x29: .cfa -64 + ^
STACK CFI 15a7c .cfa: sp 176 +
STACK CFI 15a90 .cfa: sp 0 +
STACK CFI 15a94 .cfa: x29 64 +
STACK CFI 15ae0 .cfa: sp 176 +
STACK CFI 15af4 .cfa: sp 0 +
STACK CFI 15af8 .cfa: x29 64 +
STACK CFI 15b30 .cfa: sp 176 +
STACK CFI 15b44 .cfa: sp 0 +
STACK CFI 15b48 .cfa: x29 64 +
STACK CFI 15b60 .cfa: sp 176 +
STACK CFI 15b74 .cfa: sp 0 +
STACK CFI 15b78 .cfa: x29 64 +
STACK CFI 15b98 .cfa: sp 176 +
STACK CFI 15bac .cfa: sp 0 +
STACK CFI 15bb0 .cfa: x29 64 +
STACK CFI 15bc8 .cfa: sp 176 +
STACK CFI 15bdc .cfa: sp 0 +
STACK CFI 15be0 .cfa: x29 64 +
STACK CFI 15bf4 .cfa: sp 176 +
STACK CFI 15c08 .cfa: sp 0 +
STACK CFI 15c0c .cfa: x29 64 +
STACK CFI 15c20 .cfa: sp 176 +
STACK CFI 15c34 .cfa: sp 0 +
STACK CFI 15c38 .cfa: x29 64 +
STACK CFI 15c48 .cfa: sp 176 +
STACK CFI 15c5c .cfa: sp 0 +
STACK CFI 15c60 .cfa: x29 64 +
STACK CFI 15c70 .cfa: sp 176 +
STACK CFI 15c84 .cfa: sp 0 +
STACK CFI 15c88 .cfa: x29 64 +
STACK CFI 15ca0 .cfa: sp 176 +
STACK CFI 15cb4 .cfa: sp 0 +
STACK CFI 15cb8 .cfa: x29 64 +
STACK CFI 15ccc .cfa: sp 176 +
STACK CFI 15ce0 .cfa: sp 0 +
STACK CFI 15ce4 .cfa: x29 64 +
STACK CFI 15cfc .cfa: sp 176 +
STACK CFI 15d10 .cfa: sp 0 +
STACK CFI 15d14 .cfa: x29 64 +
STACK CFI 15d40 .cfa: sp 176 +
STACK CFI 15d54 .cfa: sp 0 +
STACK CFI 15d58 .cfa: x29 64 +
STACK CFI 15d6c .cfa: sp 176 +
STACK CFI 15d80 .cfa: sp 0 +
STACK CFI 15d84 .cfa: x29 64 +
STACK CFI INIT 15da4 228 .cfa: sp 0 +
STACK CFI INIT 15fcc 2dc .cfa: sp 0 +
STACK CFI INIT 162a8 53c .cfa: sp 0 +
STACK CFI INIT 167e4 78 .cfa: sp 0 +
STACK CFI 167e8 .cfa: sp 48 +
STACK CFI 167f4 .cfa: x29 48 + x19: .cfa -8 + ^ x20: .cfa -16 + ^ x21: .cfa -24 + ^ x22: .cfa -32 + ^ .ra: .cfa -40 + ^ x29: .cfa -48 + ^
STACK CFI 1683c .cfa: sp 48 +
STACK CFI 16848 .cfa: sp 0 +
STACK CFI 1684c .cfa: sp 48 +
STACK CFI 16858 .cfa: sp 0 +
STACK CFI INIT 1685c 8c .cfa: sp 0 +
STACK CFI 16860 .cfa: sp 32 +
STACK CFI 16868 .cfa: x29 32 + x19: .cfa -16 + ^ .ra: .cfa -24 + ^ x29: .cfa -32 + ^
STACK CFI 1689c .cfa: sp 32 +
STACK CFI 168a4 .cfa: sp 0 +
STACK CFI 168a8 .cfa: x29 32 +
STACK CFI 168dc .cfa: sp 32 +
STACK CFI 168e4 .cfa: sp 0 +
STACK CFI INIT 168e8 24 .cfa: sp 0 +
STACK CFI 168ec .cfa: sp 32 +
STACK CFI 168f4 .cfa: x29 32 + x19: .cfa -16 + ^ .ra: .cfa -24 + ^ x29: .cfa -32 + ^
STACK CFI 16900 .cfa: sp 32 +
STACK CFI 16908 .cfa: sp 0 +
STACK CFI INIT 1690c 150 .cfa: sp 0 +
STACK CFI 16910 .cfa: sp 48 +
STACK CFI 1691c .cfa: x29 48 + x19: .cfa -8 + ^ x20: .cfa -16 + ^ x21: .cfa -24 + ^ x22: .cfa -32 + ^ .ra: .cfa -40 + ^ x29: .cfa -48 + ^
STACK CFI 16a4c .cfa: sp 48 +
STACK CFI 16a58 .cfa: sp 0 +
STACK CFI INIT 16a5c 68 .cfa: sp 0 +
STACK CFI 16a60 .cfa: sp 64 +
STACK CFI 16a6c .cfa: x29 32 + x19: .cfa -16 + ^ .ra: .cfa -24 + ^ x29: .cfa -32 + ^
STACK CFI 16ab0 .cfa: sp 64 +
STACK CFI 16abc .cfa: sp 0 +
STACK CFI 16ac0 .cfa: x29 32 +
STACK CFI INIT 16ac4 90 .cfa: sp 0 +
STACK CFI 16ac8 .cfa: sp 32 +
STACK CFI 16ad0 .cfa: x29 32 + x19: .cfa -8 + ^ x20: .cfa -16 + ^ .ra: .cfa -24 + ^ x29: .cfa -32 + ^
STACK CFI 16afc .cfa: sp 32 +
STACK CFI 16b04 .cfa: sp 0 +
STACK CFI 16b08 .cfa: x29 32 +
STACK CFI 16b48 .cfa: sp 32 +
STACK CFI 16b50 .cfa: sp 0 +
STACK CFI INIT 16b54 ec .cfa: sp 0 +
STACK CFI 16b58 .cfa: sp 112 +
STACK CFI 16b68 .cfa: x29 48 + x19: .cfa -8 + ^ x20: .cfa -16 + ^ x21: .cfa -32 + ^ .ra: .cfa -40 + ^ x29: .cfa -48 + ^
STACK CFI 16c28 .cfa: sp 112 +
STACK CFI 16c38 .cfa: sp 0 +
STACK CFI 16c3c .cfa: x29 48 +
STACK CFI INIT 16c40 ec .cfa: sp 0 +
STACK CFI 16c44 .cfa: sp 112 +
STACK CFI 16c54 .cfa: x29 48 + x19: .cfa -8 + ^ x20: .cfa -16 + ^ x21: .cfa -32 + ^ .ra: .cfa -40 + ^ x29: .cfa -48 + ^
STACK CFI 16d14 .cfa: sp 112 +
STACK CFI 16d24 .cfa: sp 0 +
STACK CFI 16d28 .cfa: x29 48 +
STACK CFI INIT 16d2c 48 .cfa: sp 0 +
STACK CFI 16d30 .cfa: sp 32 +
STACK CFI 16d38 .cfa: x29 32 + x19: .cfa -8 + ^ x20: .cfa -16 + ^ .ra: .cfa -24 + ^ x29: .cfa -32 + ^
STACK CFI 16d5c .cfa: sp 32 +
STACK CFI 16d64 .cfa: sp 0 +
STACK CFI 16d68 .cfa: x29 32 +
STACK CFI INIT 16d74 98 .cfa: sp 0 +
STACK CFI 16d78 .cfa: sp 80 +
STACK CFI 16d84 .cfa: x29 32 + x19: .cfa -16 + ^ .ra: .cfa -24 + ^ x29: .cfa -32 + ^
STACK CFI 16df8 .cfa: sp 80 +
STACK CFI 16e04 .cfa: sp 0 +
STACK CFI 16e08 .cfa: x29 32 +
STACK CFI INIT 16e0c 260 .cfa: sp 0 +
STACK CFI 16e10 .cfa: sp 112 +
STACK CFI 16e28 .cfa: x29 80 + x19: .cfa -8 + ^ x20: .cfa -16 + ^ x21: .cfa -24 + ^ x22: .cfa -32 + ^ x23: .cfa -40 + ^ x24: .cfa -48 + ^ x25: .cfa -64 + ^ .ra: .cfa -72 + ^ x29: .cfa -80 + ^
STACK CFI 1700c .cfa: sp 112 +
STACK CFI 17024 .cfa: sp 0 +
STACK CFI 17028 .cfa: x29 80 +
STACK CFI INIT 1706c 150 .cfa: sp 0 +
STACK CFI 17070 .cfa: sp 48 +
STACK CFI 1707c .cfa: x29 48 + x19: .cfa -8 + ^ x20: .cfa -16 + ^ x21: .cfa -24 + ^ x22: .cfa -32 + ^ .ra: .cfa -40 + ^ x29: .cfa -48 + ^
STACK CFI 171ac .cfa: sp 48 +
STACK CFI 171b8 .cfa: sp 0 +
STACK CFI INIT 171bc 1e0 .cfa: sp 0 +
STACK CFI 171c0 .cfa: sp 96 +
STACK CFI 171d4 .cfa: x29 64 + x19: .cfa -8 + ^ x20: .cfa -16 + ^ x21: .cfa -24 + ^ x22: .cfa -32 + ^ x23: .cfa -40 + ^ x24: .cfa -48 + ^ .ra: .cfa -56 + ^ x29: .cfa -64 + ^
STACK CFI 17354 .cfa: sp 96 +
STACK CFI 17368 .cfa: sp 0 +
STACK CFI 1736c .cfa: x29 64 +
STACK CFI INIT 1739c 284 .cfa: sp 0 +
STACK CFI 173a0 .cfa: sp 112 +
STACK CFI 173b8 .cfa: x29 80 + x19: .cfa -8 + ^ x20: .cfa -16 + ^ x21: .cfa -24 + ^ x22: .cfa -32 + ^ x23: .cfa -40 + ^ x24: .cfa -48 + ^ x25: .cfa -64 + ^ .ra: .cfa -72 + ^ x29: .cfa -80 + ^
STACK CFI 175c0 .cfa: sp 112 +
STACK CFI 175d8 .cfa: sp 0 +
STACK CFI 175dc .cfa: x29 80 +
STACK CFI INIT 17620 208 .cfa: sp 0 +
STACK CFI 17624 .cfa: sp 96 +
STACK CFI 17638 .cfa: x29 64 + x19: .cfa -8 + ^ x20: .cfa -16 + ^ x21: .cfa -24 + ^ x22: .cfa -32 + ^ x23: .cfa -40 + ^ x24: .cfa -48 + ^ .ra: .cfa -56 + ^ x29: .cfa -64 + ^
STACK CFI 177e0 .cfa: sp 96 +
STACK CFI 177f4 .cfa: sp 0 +
STACK CFI 177f8 .cfa: x29 64 +
STACK CFI INIT 17828 360 .cfa: sp 0 +
STACK CFI 1782c .cfa: sp 160 +
STACK CFI 17848 .cfa: x29 96 + x19: .cfa -8 + ^ x20: .cfa -16 + ^ x21: .cfa -24 + ^ x22: .cfa -32 + ^ x23: .cfa -40 + ^ x24: .cfa -48 + ^ x25: .cfa -56 + ^ x26: .cfa -64 + ^ x27: .cfa -72 + ^ x28: .cfa -80 + ^ .ra: .cfa -88 + ^ x29: .cfa -96 + ^
STACK CFI 17b14 .cfa: sp 160 +
STACK CFI 17b30 .cfa: sp 0 +
STACK CFI 17b34 .cfa: x29 96 +
STACK CFI INIT 17b88 314 .cfa: sp 0 +
STACK CFI 17b8c .cfa: sp 144 +
STACK CFI 17ba8 .cfa: x29 96 + x19: .cfa -8 + ^ x20: .cfa -16 + ^ x21: .cfa -24 + ^ x22: .cfa -32 + ^ x23: .cfa -40 + ^ x24: .cfa -48 + ^ x25: .cfa -56 + ^ x26: .cfa -64 + ^ x27: .cfa -72 + ^ x28: .cfa -80 + ^ .ra: .cfa -88 + ^ x29: .cfa -96 + ^
STACK CFI 17e24 .cfa: sp 144 +
STACK CFI 17e40 .cfa: sp 0 +
STACK CFI 17e44 .cfa: x29 96 +
STACK CFI INIT 17e9c 290 .cfa: sp 0 +
STACK CFI 17ea0 .cfa: sp 128 +
STACK CFI 17eb8 .cfa: x29 80 + x19: .cfa -8 + ^ x20: .cfa -16 + ^ x21: .cfa -24 + ^ x22: .cfa -32 + ^ x23: .cfa -40 + ^ x24: .cfa -48 + ^ x25: .cfa -56 + ^ x26: .cfa -64 + ^ .ra: .cfa -72 + ^ x29: .cfa -80 + ^
STACK CFI 1810c .cfa: sp 128 +
STACK CFI 18124 .cfa: sp 0 +
STACK CFI 18128 .cfa: x29 80 +
STACK CFI INIT 1812c ddc .cfa: sp 0 +
STACK CFI 18130 .cfa: sp 144 +
STACK CFI 1814c .cfa: x29 96 + x19: .cfa -8 + ^ x20: .cfa -16 + ^ x21: .cfa -24 + ^ x22: .cfa -32 + ^ x23: .cfa -40 + ^ x24: .cfa -48 + ^ x25: .cfa -56 + ^ x26: .cfa -64 + ^ x27: .cfa -72 + ^ x28: .cfa -80 + ^ .ra: .cfa -88 + ^ x29: .cfa -96 + ^
STACK CFI 18de0 .cfa: sp 144 +
STACK CFI 18dfc .cfa: sp 0 +
STACK CFI 18e00 .cfa: x29 96 +
STACK CFI INIT 18f08 1d0 .cfa: sp 0 +
STACK CFI 18f0c .cfa: sp 80 +
STACK CFI 18f20 .cfa: x29 80 + x19: .cfa -8 + ^ x20: .cfa -16 + ^ x21: .cfa -24 + ^ x22: .cfa -32 + ^ x23: .cfa -40 + ^ x24: .cfa -48 + ^ x25: .cfa -64 + ^ .ra: .cfa -72 + ^ x29: .cfa -80 + ^
STACK CFI 190c0 .cfa: sp 80 +
STACK CFI 190d4 .cfa: sp 0 +
STACK CFI INIT 190d8 23c .cfa: sp 0 +
STACK CFI 190dc .cfa: sp 112 +
STACK CFI 190f0 .cfa: x29 64 + x19: .cfa -8 + ^ x20: .cfa -16 + ^ x21: .cfa -24 + ^ x22: .cfa -32 + ^ x23: .cfa -40 + ^ x24: .cfa -48 + ^ .ra: .cfa -56 + ^ x29: .cfa -64 + ^
STACK CFI 192cc .cfa: sp 112 +
STACK CFI 192e0 .cfa: sp 0 +
STACK CFI 192e4 .cfa: x29 64 +
STACK CFI INIT 19314 30c .cfa: sp 0 +
STACK CFI 19318 .cfa: sp 80 +
STACK CFI 1932c .cfa: x29 64 + x19: .cfa -8 + ^ x20: .cfa -16 + ^ x21: .cfa -24 + ^ x22: .cfa -32 + ^ x23: .cfa -40 + ^ x24: .cfa -48 + ^ .ra: .cfa -56 + ^ x29: .cfa -64 + ^
STACK CFI 194a8 .cfa: sp 80 +
STACK CFI 194bc .cfa: sp 0 +
STACK CFI 194c0 .cfa: x29 64 +
STACK CFI INIT 19620 178 .cfa: sp 0 +
STACK CFI 19624 .cfa: sp 80 +
STACK CFI 19638 .cfa: x29 64 + x19: .cfa -8 + ^ x20: .cfa -16 + ^ x21: .cfa -24 + ^ x22: .cfa -32 + ^ x23: .cfa -40 + ^ x24: .cfa -48 + ^ .ra: .cfa -56 + ^ x29: .cfa -64 + ^
STACK CFI 1977c .cfa: sp 80 +
STACK CFI 19790 .cfa: sp 0 +
STACK CFI 19794 .cfa: x29 64 +
STACK CFI INIT 19798 178 .cfa: sp 0 +
STACK CFI 1979c .cfa: sp 80 +
STACK CFI 197b0 .cfa: x29 64 + x19: .cfa -8 + ^ x20: .cfa -16 + ^ x21: .cfa -24 + ^ x22: .cfa -32 + ^ x23: .cfa -40 + ^ x24: .cfa -48 + ^ .ra: .cfa -56 + ^ x29: .cfa -64 + ^
STACK CFI 198f4 .cfa: sp 80 +
STACK CFI 19908 .cfa: sp 0 +
STACK CFI 1990c .cfa: x29 64 +
STACK CFI INIT 19910 240 .cfa: sp 0 +
STACK CFI 19914 .cfa: sp 96 +
STACK CFI 1992c .cfa: x29 96 + x19: .cfa -8 + ^ x20: .cfa -16 + ^ x21: .cfa -24 + ^ x22: .cfa -32 + ^ x23: .cfa -40 + ^ x24: .cfa -48 + ^ x25: .cfa -56 + ^ x26: .cfa -64 + ^ x27: .cfa -72 + ^ x28: .cfa -80 + ^ .ra: .cfa -88 + ^ x29: .cfa -96 + ^
STACK CFI 19b34 .cfa: sp 96 +
STACK CFI 19b4c .cfa: sp 0 +
STACK CFI INIT 1a7c4 154 .cfa: sp 0 +
STACK CFI 1a7c8 .cfa: sp 96 +
STACK CFI 1a7dc .cfa: x29 64 + x19: .cfa -8 + ^ x20: .cfa -16 + ^ x21: .cfa -24 + ^ x22: .cfa -32 + ^ x23: .cfa -48 + ^ .ra: .cfa -56 + ^ x29: .cfa -64 + ^
STACK CFI 1a8bc .cfa: sp 96 +
STACK CFI 1a8d0 .cfa: sp 0 +
STACK CFI 1a8d4 .cfa: x29 64 +
STACK CFI INIT 1ab84 44 .cfa: sp 0 +
STACK CFI 1ab88 .cfa: sp 32 +
STACK CFI 1ab90 .cfa: x29 32 + x19: .cfa -16 + ^ .ra: .cfa -24 + ^ x29: .cfa -32 + ^
STACK CFI 1abac .cfa: sp 32 +
STACK CFI 1abb4 .cfa: sp 0 +
STACK CFI 1abb8 .cfa: x29 32 +
STACK CFI 1abbc .cfa: sp 32 +
STACK CFI 1abc4 .cfa: sp 0 +
STACK CFI INIT 1abc8 1d0 .cfa: sp 0 +
STACK CFI 1abcc .cfa: sp 64 +
STACK CFI 1abdc .cfa: x29 64 + x19: .cfa -8 + ^ x20: .cfa -16 + ^ x21: .cfa -24 + ^ x22: .cfa -32 + ^ x23: .cfa -40 + ^ x24: .cfa -48 + ^ .ra: .cfa -56 + ^ x29: .cfa -64 + ^
STACK CFI 1ac9c .cfa: sp 64 +
STACK CFI 1acac .cfa: sp 0 +
STACK CFI 1acb0 .cfa: x29 64 +
STACK CFI INIT 1ad98 17c .cfa: sp 0 +
STACK CFI INIT 1af14 ac .cfa: sp 0 +
STACK CFI 1af18 .cfa: sp 64 +
STACK CFI 1af28 .cfa: x29 64 + x19: .cfa -8 + ^ x20: .cfa -16 + ^ x21: .cfa -24 + ^ x22: .cfa -32 + ^ x23: .cfa -48 + ^ .ra: .cfa -56 + ^ x29: .cfa -64 + ^
STACK CFI 1afa4 .cfa: sp 64 +
STACK CFI 1afb4 .cfa: sp 0 +
STACK CFI 1afb8 .cfa: x29 64 +
STACK CFI INIT 1afc0 110 .cfa: sp 0 +
STACK CFI 1afc4 .cfa: sp 64 +
STACK CFI 1afd4 .cfa: x29 64 + x19: .cfa -8 + ^ x20: .cfa -16 + ^ x21: .cfa -24 + ^ x22: .cfa -32 + ^ x23: .cfa -40 + ^ x24: .cfa -48 + ^ .ra: .cfa -56 + ^ x29: .cfa -64 + ^
STACK CFI 1b0b4 .cfa: sp 64 +
STACK CFI 1b0c4 .cfa: sp 0 +
STACK CFI 1b0c8 .cfa: x29 64 +
STACK CFI INIT 1b488 a0 .cfa: sp 0 +
STACK CFI 1b48c .cfa: sp 48 +
STACK CFI 1b498 .cfa: x29 48 + x19: .cfa -8 + ^ x20: .cfa -16 + ^ x21: .cfa -24 + ^ x22: .cfa -32 + ^ .ra: .cfa -40 + ^ x29: .cfa -48 + ^
STACK CFI 1b504 .cfa: sp 48 +
STACK CFI 1b510 .cfa: sp 0 +
STACK CFI 1b514 .cfa: sp 48 +
STACK CFI 1b520 .cfa: sp 0 +
STACK CFI 1b524 .cfa: x29 48 +
STACK CFI INIT 1c1dc 158 .cfa: sp 0 +
STACK CFI 1c1e0 .cfa: sp 96 +
STACK CFI 1c1f4 .cfa: x29 64 + x19: .cfa -8 + ^ x20: .cfa -16 + ^ x21: .cfa -24 + ^ x22: .cfa -32 + ^ x23: .cfa -48 + ^ .ra: .cfa -56 + ^ x29: .cfa -64 + ^
STACK CFI 1c2d8 .cfa: sp 96 +
STACK CFI 1c2ec .cfa: sp 0 +
STACK CFI 1c2f0 .cfa: x29 64 +
STACK CFI INIT 1c334 190 .cfa: sp 0 +
STACK CFI INIT 1cfc0 1dc .cfa: sp 0 +
STACK CFI 1cfc4 .cfa: sp 80 +
STACK CFI 1cfd8 .cfa: x29 80 + x19: .cfa -8 + ^ x20: .cfa -16 + ^ x21: .cfa -24 + ^ x22: .cfa -32 + ^ x23: .cfa -40 + ^ x24: .cfa -48 + ^ x25: .cfa -64 + ^ .ra: .cfa -72 + ^ x29: .cfa -80 + ^
STACK CFI 1d184 .cfa: sp 80 +
STACK CFI 1d198 .cfa: sp 0 +
STACK CFI INIT 1e5cc 124 .cfa: sp 0 +
STACK CFI 1e5fc .cfa: sp 32 +
STACK CFI 1e604 .cfa: x29 32 + x19: .cfa -8 + ^ x20: .cfa -16 + ^ .ra: .cfa -24 + ^ x29: .cfa -32 + ^
STACK CFI 1e6e4 .cfa: sp 32 +
STACK CFI 1e6ec .cfa: sp 0 +
STACK CFI INIT 1ee4c 320 .cfa: sp 0 +
STACK CFI 1ee50 .cfa: sp 64 +
STACK CFI 1ee60 .cfa: x29 64 + x19: .cfa -8 + ^ x20: .cfa -16 + ^ x21: .cfa -24 + ^ x22: .cfa -32 + ^ x23: .cfa -40 + ^ x24: .cfa -48 + ^ .ra: .cfa -56 + ^ x29: .cfa -64 + ^
STACK CFI 1eedc .cfa: sp 64 +
STACK CFI 1eeec .cfa: sp 0 +
STACK CFI 1eef0 .cfa: x29 64 +
STACK CFI 1f0c4 .cfa: sp 64 +
STACK CFI 1f0d4 .cfa: sp 0 +
STACK CFI 1f0d8 .cfa: x29 64 +
STACK CFI 1f0e8 .cfa: sp 64 +
STACK CFI 1f0f8 .cfa: sp 0 +
STACK CFI 1f0fc .cfa: x29 64 +
STACK CFI INIT 1f16c a0 .cfa: sp 0 +
STACK CFI 1f170 .cfa: sp 48 +
STACK CFI 1f17c .cfa: x29 48 + x19: .cfa -8 + ^ x20: .cfa -16 + ^ x21: .cfa -24 + ^ x22: .cfa -32 + ^ .ra: .cfa -40 + ^ x29: .cfa -48 + ^
STACK CFI 1f1e8 .cfa: sp 48 +
STACK CFI 1f1f4 .cfa: sp 0 +
STACK CFI 1f1f8 .cfa: sp 48 +
STACK CFI 1f204 .cfa: sp 0 +
STACK CFI 1f208 .cfa: x29 48 +
STACK CFI INIT 200bc 160 .cfa: sp 0 +
STACK CFI 200c0 .cfa: sp 64 +
STACK CFI 200d0 .cfa: x29 64 + x19: .cfa -8 + ^ x20: .cfa -16 + ^ x21: .cfa -24 + ^ x22: .cfa -32 + ^ x23: .cfa -48 + ^ .ra: .cfa -56 + ^ x29: .cfa -64 + ^
STACK CFI 201c8 .cfa: sp 64 +
STACK CFI 201d8 .cfa: sp 0 +
STACK CFI 201dc .cfa: x29 64 +
STACK CFI INIT 2021c 214 .cfa: sp 0 +
STACK CFI 20220 .cfa: sp 128 +
STACK CFI 2023c .cfa: x29 96 + x19: .cfa -8 + ^ x20: .cfa -16 + ^ x21: .cfa -24 + ^ x22: .cfa -32 + ^ x23: .cfa -40 + ^ x24: .cfa -48 + ^ x25: .cfa -56 + ^ x26: .cfa -64 + ^ x27: .cfa -80 + ^ .ra: .cfa -88 + ^ x29: .cfa -96 + ^
STACK CFI 203b8 .cfa: sp 128 +
STACK CFI 203d4 .cfa: sp 0 +
STACK CFI 203d8 .cfa: x29 96 +
STACK CFI INIT 220cc 290 .cfa: sp 0 +
STACK CFI 220d0 .cfa: sp 16 +
STACK CFI 220d4 .cfa: x29 16 + .ra: .cfa -8 + ^ x29: .cfa -16 + ^
STACK CFI 22160 .cfa: sp 16 +
STACK CFI 22164 .cfa: sp 0 +
STACK CFI 22168 .cfa: x29 16 +
STACK CFI 221b8 .cfa: sp 16 +
STACK CFI 221bc .cfa: sp 0 +
STACK CFI 221c0 .cfa: x29 16 +
STACK CFI 22324 .cfa: sp 16 +
STACK CFI 22328 .cfa: sp 0 +
STACK CFI 2232c .cfa: x29 16 +
STACK CFI INIT 2235c 158 .cfa: sp 0 +
STACK CFI 22360 .cfa: sp 112 +
STACK CFI 2237c .cfa: x29 96 + x19: .cfa -8 + ^ x20: .cfa -16 + ^ x21: .cfa -24 + ^ x22: .cfa -32 + ^ x23: .cfa -40 + ^ x24: .cfa -48 + ^ x25: .cfa -56 + ^ x26: .cfa -64 + ^ x27: .cfa -72 + ^ x28: .cfa -80 + ^ .ra: .cfa -88 + ^ x29: .cfa -96 + ^
STACK CFI 22464 .cfa: sp 112 +
STACK CFI 22468 .cfa: x29 96 +
STACK CFI 22470 .cfa: sp 112 +
STACK CFI 2248c .cfa: sp 0 +
STACK CFI 22490 .cfa: x29 96 +
STACK CFI 224b0 .cfa: sp 112 +
STACK CFI INIT 224b4 e54 .cfa: sp 0 +
STACK CFI 224b8 .cfa: sp 192 +
STACK CFI 224d4 .cfa: x29 96 + x19: .cfa -8 + ^ x20: .cfa -16 + ^ x21: .cfa -24 + ^ x22: .cfa -32 + ^ x23: .cfa -40 + ^ x24: .cfa -48 + ^ x25: .cfa -56 + ^ x26: .cfa -64 + ^ x27: .cfa -72 + ^ x28: .cfa -80 + ^ .ra: .cfa -88 + ^ x29: .cfa -96 + ^
STACK CFI 231f0 .cfa: sp 192 +
STACK CFI 2320c .cfa: sp 0 +
STACK CFI 23210 .cfa: x29 96 +
STACK CFI INIT 23308 1068 .cfa: sp 0 +
STACK CFI 2330c .cfa: sp 288 +
STACK CFI 23328 .cfa: x29 96 + x19: .cfa -8 + ^ x20: .cfa -16 + ^ x21: .cfa -24 + ^ x22: .cfa -32 + ^ x23: .cfa -40 + ^ x24: .cfa -48 + ^ x25: .cfa -56 + ^ x26: .cfa -64 + ^ x27: .cfa -72 + ^ x28: .cfa -80 + ^ .ra: .cfa -88 + ^ x29: .cfa -96 + ^
STACK CFI 240b8 .cfa: sp 288 +
STACK CFI 240d4 .cfa: sp 0 +
STACK CFI 240d8 .cfa: x29 96 +
STACK CFI INIT 24370 520 .cfa: sp 0 +
STACK CFI 24374 .cfa: sp 144 +
STACK CFI 24390 .cfa: x29 96 + x19: .cfa -8 + ^ x20: .cfa -16 + ^ x21: .cfa -24 + ^ x22: .cfa -32 + ^ x23: .cfa -40 + ^ x24: .cfa -48 + ^ x25: .cfa -56 + ^ x26: .cfa -64 + ^ x27: .cfa -72 + ^ x28: .cfa -80 + ^ .ra: .cfa -88 + ^ x29: .cfa -96 + ^
STACK CFI 2486c .cfa: sp 144 +
STACK CFI 24888 .cfa: sp 0 +
STACK CFI 2488c .cfa: x29 96 +
STACK CFI INIT 25230 136c .cfa: sp 0 +
STACK CFI 25234 .cfa: sp 224 +
STACK CFI 25250 .cfa: x29 96 + x19: .cfa -8 + ^ x20: .cfa -16 + ^ x21: .cfa -24 + ^ x22: .cfa -32 + ^ x23: .cfa -40 + ^ x24: .cfa -48 + ^ x25: .cfa -56 + ^ x26: .cfa -64 + ^ x27: .cfa -72 + ^ x28: .cfa -80 + ^ .ra: .cfa -88 + ^ x29: .cfa -96 + ^
STACK CFI 26578 .cfa: sp 224 +
STACK CFI 26594 .cfa: sp 0 +
STACK CFI 26598 .cfa: x29 96 +
STACK CFI INIT 2659c 1b8 .cfa: sp 0 +
STACK CFI INIT df2c 480 .cfa: sp 0 +
STACK CFI df30 .cfa: sp 224 +
STACK CFI df4c .cfa: x29 96 + x19: .cfa -8 + ^ x20: .cfa -16 + ^ x21: .cfa -24 + ^ x22: .cfa -32 + ^ x23: .cfa -40 + ^ x24: .cfa -48 + ^ x25: .cfa -56 + ^ x26: .cfa -64 + ^ x27: .cfa -80 + ^ .ra: .cfa -88 + ^ x29: .cfa -96 + ^
STACK CFI e1b8 .cfa: sp 224 +
STACK CFI e1d4 .cfa: sp 0 +
STACK CFI e1d8 .cfa: x29 96 +
STACK CFI e2a4 .cfa: sp 224 +
STACK CFI e2c0 .cfa: sp 0 +
STACK CFI e2c4 .cfa: x29 96 +
STACK CFI INIT e3c8 3fc .cfa: sp 0 +
STACK CFI e3cc .cfa: sp 224 +
STACK CFI e3e8 .cfa: x29 96 + x19: .cfa -8 + ^ x20: .cfa -16 + ^ x21: .cfa -24 + ^ x22: .cfa -32 + ^ x23: .cfa -40 + ^ x24: .cfa -48 + ^ x25: .cfa -56 + ^ x26: .cfa -64 + ^ x27: .cfa -72 + ^ x28: .cfa -80 + ^ .ra: .cfa -88 + ^ x29: .cfa -96 + ^
STACK CFI e6c0 .cfa: sp 224 +
STACK CFI e6dc .cfa: sp 0 +
STACK CFI e6e0 .cfa: x29 96 +
STACK CFI INIT e7c4 280 .cfa: sp 0 +
STACK CFI e7c8 .cfa: sp 144 +
STACK CFI e7dc .cfa: x29 64 + x19: .cfa -8 + ^ x20: .cfa -16 + ^ x21: .cfa -24 + ^ x22: .cfa -32 + ^ x23: .cfa -48 + ^ .ra: .cfa -56 + ^ x29: .cfa -64 + ^
STACK CFI e974 .cfa: sp 144 +
STACK CFI e988 .cfa: sp 0 +
STACK CFI e98c .cfa: x29 64 +
STACK CFI INIT ea94 74 .cfa: sp 0 +
STACK CFI ea98 .cfa: sp 48 +
STACK CFI eaa4 .cfa: x29 32 + x19: .cfa -8 + ^ x20: .cfa -16 + ^ .ra: .cfa -24 + ^ x29: .cfa -32 + ^
STACK CFI eaf0 .cfa: sp 48 +
STACK CFI eafc .cfa: sp 0 +
STACK CFI eb00 .cfa: x29 32 +
STACK CFI INIT eb98 154 .cfa: sp 0 +
STACK CFI eb9c .cfa: sp 384 +
STACK CFI ebb0 .cfa: x29 64 + x19: .cfa -8 + ^ x20: .cfa -16 + ^ x21: .cfa -24 + ^ x22: .cfa -32 + ^ x23: .cfa -40 + ^ x28: .cfa -48 + ^ .ra: .cfa -56 + ^ x29: .cfa -64 + ^
STACK CFI ec94 .cfa: sp 384 +
STACK CFI eca8 .cfa: sp 0 +
STACK CFI ecac .cfa: x29 64 +
STACK CFI INIT ed20 12c .cfa: sp 0 +
STACK CFI ed24 .cfa: sp 80 +
STACK CFI ed38 .cfa: x29 80 + x19: .cfa -8 + ^ x20: .cfa -16 + ^ x21: .cfa -24 + ^ x22: .cfa -32 + ^ x23: .cfa -40 + ^ x24: .cfa -48 + ^ x25: .cfa -56 + ^ x26: .cfa -64 + ^ .ra: .cfa -72 + ^ x29: .cfa -80 + ^
STACK CFI ee00 .cfa: sp 80 +
STACK CFI ee14 .cfa: sp 0 +
STACK CFI ee18 .cfa: x29 80 +
STACK CFI INIT eef0 1a4 .cfa: sp 0 +
STACK CFI eef4 .cfa: sp 112 +
STACK CFI ef0c .cfa: x29 80 + x19: .cfa -8 + ^ x20: .cfa -16 + ^ x21: .cfa -24 + ^ x22: .cfa -32 + ^ x23: .cfa -40 + ^ x24: .cfa -48 + ^ x25: .cfa -56 + ^ x26: .cfa -64 + ^ .ra: .cfa -72 + ^ x29: .cfa -80 + ^
STACK CFI effc .cfa: sp 112 +
STACK CFI f014 .cfa: sp 0 +
STACK CFI f018 .cfa: x29 80 +
STACK CFI INIT f094 1dc .cfa: sp 0 +
STACK CFI f098 .cfa: sp 128 +
STACK CFI f0b4 .cfa: x29 96 + x19: .cfa -8 + ^ x20: .cfa -16 + ^ x21: .cfa -24 + ^ x22: .cfa -32 + ^ x23: .cfa -40 + ^ x24: .cfa -48 + ^ x25: .cfa -56 + ^ x26: .cfa -64 + ^ x27: .cfa -80 + ^ .ra: .cfa -88 + ^ x29: .cfa -96 + ^
STACK CFI f220 .cfa: sp 128 +
STACK CFI f23c .cfa: sp 0 +
STACK CFI f240 .cfa: x29 96 +
STACK CFI INIT f284 50 .cfa: sp 0 +
STACK CFI f288 .cfa: sp 32 +
STACK CFI f290 .cfa: x29 32 + x19: .cfa -8 + ^ x20: .cfa -16 + ^ .ra: .cfa -24 + ^ x29: .cfa -32 + ^
STACK CFI INIT f338 178 .cfa: sp 0 +
STACK CFI f33c .cfa: sp 80 +
STACK CFI f350 .cfa: x29 80 + x19: .cfa -8 + ^ x20: .cfa -16 + ^ x21: .cfa -24 + ^ x22: .cfa -32 + ^ x23: .cfa -40 + ^ x24: .cfa -48 + ^ x25: .cfa -64 + ^ .ra: .cfa -72 + ^ x29: .cfa -80 + ^
STACK CFI f47c .cfa: sp 80 +
STACK CFI f490 .cfa: sp 0 +
STACK CFI f494 .cfa: x29 80 +
STACK CFI INIT f5f8 228 .cfa: sp 0 +
STACK CFI f5fc .cfa: sp 128 +
STACK CFI f614 .cfa: x29 80 + x19: .cfa -8 + ^ x20: .cfa -16 + ^ x21: .cfa -24 + ^ x22: .cfa -32 + ^ x23: .cfa -40 + ^ x24: .cfa -48 + ^ x25: .cfa -64 + ^ .ra: .cfa -72 + ^ x29: .cfa -80 + ^
STACK CFI f7b0 .cfa: sp 128 +
STACK CFI f7c8 .cfa: sp 0 +
STACK CFI f7cc .cfa: x29 80 +
STACK CFI INIT ff7c 184 .cfa: sp 0 +
STACK CFI ff80 .cfa: sp 144 +
STACK CFI ff98 .cfa: x29 80 + x19: .cfa -8 + ^ x20: .cfa -16 + ^ x21: .cfa -24 + ^ x22: .cfa -32 + ^ x23: .cfa -40 + ^ x24: .cfa -48 + ^ x25: .cfa -56 + ^ x26: .cfa -64 + ^ .ra: .cfa -72 + ^ x29: .cfa -80 + ^
STACK CFI 10098 .cfa: sp 144 +
STACK CFI 100b0 .cfa: sp 0 +
STACK CFI 100b4 .cfa: x29 80 +
STACK CFI INIT 104e0 388 .cfa: sp 0 +
STACK CFI 104e4 .cfa: sp 256 +
STACK CFI 104f8 .cfa: x29 64 + x19: .cfa -8 + ^ x20: .cfa -16 + ^ x21: .cfa -24 + ^ x22: .cfa -32 + ^ x23: .cfa -48 + ^ .ra: .cfa -56 + ^ x29: .cfa -64 + ^
STACK CFI 1073c .cfa: sp 256 +
STACK CFI 10750 .cfa: sp 0 +
STACK CFI 10754 .cfa: x29 64 +
STACK CFI INIT 1086c e4 .cfa: sp 0 +
STACK CFI 10870 .cfa: sp 80 +
STACK CFI 10880 .cfa: x29 48 + x19: .cfa -8 + ^ x20: .cfa -16 + ^ x21: .cfa -32 + ^ .ra: .cfa -40 + ^ x29: .cfa -48 + ^
STACK CFI 1090c .cfa: sp 80 +
STACK CFI 1091c .cfa: sp 0 +
STACK CFI 10920 .cfa: x29 48 +
STACK CFI INIT 10950 3a4 .cfa: sp 0 +
STACK CFI 10954 .cfa: sp 112 +
STACK CFI 10970 .cfa: x29 96 + x19: .cfa -8 + ^ x20: .cfa -16 + ^ x21: .cfa -24 + ^ x22: .cfa -32 + ^ x23: .cfa -40 + ^ x24: .cfa -48 + ^ x25: .cfa -56 + ^ x26: .cfa -64 + ^ x27: .cfa -72 + ^ x28: .cfa -80 + ^ .ra: .cfa -88 + ^ x29: .cfa -96 + ^ v8: .cfa -112 + ^
STACK CFI 10c1c .cfa: sp 112 +
STACK CFI 10c38 .cfa: sp 0 +
STACK CFI 10c3c .cfa: x29 96 +
STACK CFI INIT 10cf4 134 .cfa: sp 0 +
STACK CFI 10cf8 .cfa: sp 80 +
STACK CFI 10d08 .cfa: x29 48 + x19: .cfa -8 + ^ x20: .cfa -16 + ^ x21: .cfa -24 + ^ x22: .cfa -32 + ^ .ra: .cfa -40 + ^ x29: .cfa -48 + ^
STACK CFI 10e0c .cfa: sp 80 +
STACK CFI 10e1c .cfa: sp 0 +
STACK CFI 10e20 .cfa: x29 48 +
STACK CFI INIT 10e28 204 .cfa: sp 0 +
STACK CFI 10e2c .cfa: sp 80 +
STACK CFI 10e40 .cfa: x29 80 + x19: .cfa -8 + ^ x20: .cfa -16 + ^ x21: .cfa -24 + ^ x22: .cfa -32 + ^ x23: .cfa -40 + ^ x24: .cfa -48 + ^ x25: .cfa -56 + ^ x28: .cfa -64 + ^ .ra: .cfa -72 + ^ x29: .cfa -80 + ^
STACK CFI 10f58 .cfa: sp 80 +
STACK CFI 10f6c .cfa: sp 0 +
STACK CFI 10f70 .cfa: x29 80 +
STACK CFI 10f88 .cfa: sp 80 +
STACK CFI 10f9c .cfa: sp 0 +
STACK CFI 10fa0 .cfa: x29 80 +
STACK CFI INIT 1102c 188 .cfa: sp 0 +
STACK CFI 11030 .cfa: sp 112 +
STACK CFI 11040 .cfa: x29 48 + x19: .cfa -8 + ^ x20: .cfa -16 + ^ x21: .cfa -24 + ^ x22: .cfa -32 + ^ .ra: .cfa -40 + ^ x29: .cfa -48 + ^
STACK CFI 11110 .cfa: sp 112 +
STACK CFI 11120 .cfa: sp 0 +
STACK CFI 11124 .cfa: x29 48 +
STACK CFI INIT 111b4 2b8 .cfa: sp 0 +
STACK CFI 111b8 .cfa: sp 160 +
STACK CFI 111d4 .cfa: x29 96 + x19: .cfa -8 + ^ x20: .cfa -16 + ^ x21: .cfa -24 + ^ x22: .cfa -32 + ^ x23: .cfa -40 + ^ x24: .cfa -48 + ^ x25: .cfa -56 + ^ x26: .cfa -64 + ^ x27: .cfa -72 + ^ x28: .cfa -80 + ^ .ra: .cfa -88 + ^ x29: .cfa -96 + ^
STACK CFI 1120c .cfa: sp 160 +
STACK CFI 11228 .cfa: sp 0 +
STACK CFI 1122c .cfa: x29 96 +
STACK CFI INIT 1146c 114 .cfa: sp 0 +
STACK CFI 11470 .cfa: sp 64 +
STACK CFI 11480 .cfa: x29 64 + x19: .cfa -8 + ^ x20: .cfa -16 + ^ x21: .cfa -24 + ^ x22: .cfa -32 + ^ x23: .cfa -48 + ^ .ra: .cfa -56 + ^ x29: .cfa -64 + ^
STACK CFI 1155c .cfa: sp 64 +
STACK CFI 1156c .cfa: sp 0 +
STACK CFI 11570 .cfa: x29 64 +
STACK CFI INIT 11580 20 .cfa: sp 0 +
STACK CFI 11584 .cfa: sp 16 +
STACK CFI 11588 .cfa: x29 16 + .ra: .cfa -8 + ^ x29: .cfa -16 + ^
STACK CFI 11594 .cfa: sp 16 +
STACK CFI 11598 .cfa: sp 0 +
STACK CFI 1159c .cfa: x29 16 +
STACK CFI INIT 115b4 22c .cfa: sp 0 +
STACK CFI 115b8 .cfa: sp 96 +
STACK CFI 115d0 .cfa: x29 96 + x19: .cfa -8 + ^ x20: .cfa -16 + ^ x21: .cfa -24 + ^ x22: .cfa -32 + ^ x23: .cfa -40 + ^ x24: .cfa -48 + ^ x25: .cfa -56 + ^ x26: .cfa -64 + ^ x27: .cfa -80 + ^ .ra: .cfa -88 + ^ x29: .cfa -96 + ^
STACK CFI 11774 .cfa: sp 96 +
STACK CFI 1178c .cfa: sp 0 +
STACK CFI 11790 .cfa: x29 96 +
STACK CFI INIT 11808 50 .cfa: sp 0 +
STACK CFI 1180c .cfa: sp 32 +
STACK CFI 11814 .cfa: x29 32 + x19: .cfa -8 + ^ x20: .cfa -16 + ^ .ra: .cfa -24 + ^ x29: .cfa -32 + ^
STACK CFI INIT 11a38 754 .cfa: sp 0 +
STACK CFI 11a3c .cfa: sp 208 +
STACK CFI 11a58 .cfa: x29 96 + x19: .cfa -8 + ^ x20: .cfa -16 + ^ x21: .cfa -24 + ^ x22: .cfa -32 + ^ x23: .cfa -40 + ^ x24: .cfa -48 + ^ x25: .cfa -56 + ^ x26: .cfa -64 + ^ x27: .cfa -72 + ^ x28: .cfa -80 + ^ .ra: .cfa -88 + ^ x29: .cfa -96 + ^
STACK CFI 11bc0 .cfa: sp 208 +
STACK CFI 11bdc .cfa: sp 0 +
STACK CFI 11be0 .cfa: x29 96 +
STACK CFI 1203c .cfa: sp 208 +
STACK CFI 12058 .cfa: sp 0 +
STACK CFI 1205c .cfa: x29 96 +
STACK CFI INIT 121a8 18c .cfa: sp 0 +
STACK CFI 121ac .cfa: sp 112 +
STACK CFI 121bc .cfa: x29 48 + x19: .cfa -8 + ^ x20: .cfa -16 + ^ x21: .cfa -32 + ^ .ra: .cfa -40 + ^ x29: .cfa -48 + ^
STACK CFI 1228c .cfa: sp 112 +
STACK CFI 1229c .cfa: sp 0 +
STACK CFI 122a0 .cfa: x29 48 +
STACK CFI INIT 12334 3c .cfa: sp 0 +
STACK CFI 12338 .cfa: sp 32 +
STACK CFI 12340 .cfa: x29 32 + x19: .cfa -16 + ^ .ra: .cfa -24 + ^ x29: .cfa -32 + ^
STACK CFI 1235c .cfa: sp 32 +
STACK CFI 12364 .cfa: sp 0 +
STACK CFI 12368 .cfa: x29 32 +
STACK CFI INIT 12370 308 .cfa: sp 0 +
STACK CFI 12374 .cfa: sp 176 +
STACK CFI 12388 .cfa: x29 64 + x19: .cfa -8 + ^ x20: .cfa -16 + ^ x21: .cfa -24 + ^ x22: .cfa -32 + ^ x23: .cfa -48 + ^ .ra: .cfa -56 + ^ x29: .cfa -64 + ^
STACK CFI 12570 .cfa: sp 176 +
STACK CFI 12584 .cfa: sp 0 +
STACK CFI 12588 .cfa: x29 64 +
STACK CFI INIT 12710 664 .cfa: sp 0 +
STACK CFI 12714 .cfa: sp 96 +
STACK CFI 1272c .cfa: x29 96 + x19: .cfa -8 + ^ x20: .cfa -16 + ^ x21: .cfa -24 + ^ x22: .cfa -32 + ^ x23: .cfa -40 + ^ x24: .cfa -48 + ^ x25: .cfa -56 + ^ x26: .cfa -64 + ^ x27: .cfa -72 + ^ x28: .cfa -80 + ^ .ra: .cfa -88 + ^ x29: .cfa -96 + ^
STACK CFI 12ce4 .cfa: sp 96 +
STACK CFI 12cfc .cfa: sp 0 +
STACK CFI 12d00 .cfa: x29 96 +
STACK CFI INIT 12d74 a8 .cfa: sp 0 +
STACK CFI 12d78 .cfa: sp 32 +
STACK CFI 12d80 .cfa: x29 32 + x19: .cfa -16 + ^ .ra: .cfa -24 + ^ x29: .cfa -32 + ^
STACK CFI 12db4 .cfa: sp 32 +
STACK CFI 12dbc .cfa: sp 0 +
STACK CFI 12dc0 .cfa: x29 32 +
STACK CFI 12dc4 .cfa: sp 32 +
STACK CFI 12dcc .cfa: sp 0 +
STACK CFI 12dd0 .cfa: x29 32 +
STACK CFI INIT 12eb8 4ec .cfa: sp 0 +
STACK CFI 12ebc .cfa: sp 144 +
STACK CFI 12ed8 .cfa: x29 96 + x19: .cfa -8 + ^ x20: .cfa -16 + ^ x21: .cfa -24 + ^ x22: .cfa -32 + ^ x23: .cfa -40 + ^ x24: .cfa -48 + ^ x25: .cfa -56 + ^ x26: .cfa -64 + ^ x27: .cfa -72 + ^ x28: .cfa -80 + ^ .ra: .cfa -88 + ^ x29: .cfa -96 + ^
STACK CFI 13300 .cfa: sp 144 +
STACK CFI 1331c .cfa: sp 0 +
STACK CFI 13320 .cfa: x29 96 +
STACK CFI INIT 133a4 1c .cfa: sp 0 +
STACK CFI 133a8 .cfa: sp 16 +
STACK CFI 133ac .cfa: x29 16 + .ra: .cfa -8 + ^ x29: .cfa -16 + ^
STACK CFI 133b4 .cfa: sp 16 +
STACK CFI 133b8 .cfa: sp 0 +
STACK CFI 133bc .cfa: x29 16 +
STACK CFI INIT 14c84 294 .cfa: sp 0 +
STACK CFI 14c88 .cfa: sp 240 +
STACK CFI 14ca0 .cfa: x29 80 + x19: .cfa -8 + ^ x20: .cfa -16 + ^ x21: .cfa -24 + ^ x22: .cfa -32 + ^ x23: .cfa -40 + ^ x24: .cfa -48 + ^ x25: .cfa -64 + ^ .ra: .cfa -72 + ^ x29: .cfa -80 + ^
STACK CFI 14e40 .cfa: sp 240 +
STACK CFI 14e58 .cfa: sp 0 +
STACK CFI 14e5c .cfa: x29 80 +
STACK CFI INIT 14f94 50 .cfa: sp 0 +
STACK CFI 14f98 .cfa: sp 32 +
STACK CFI 14fa0 .cfa: x29 32 + x19: .cfa -8 + ^ x20: .cfa -16 + ^ .ra: .cfa -24 + ^ x29: .cfa -32 + ^
STACK CFI INIT 15010 7c0 .cfa: sp 0 +
STACK CFI 15014 .cfa: sp 320 +
STACK CFI 15030 .cfa: x29 96 + x19: .cfa -8 + ^ x20: .cfa -16 + ^ x21: .cfa -24 + ^ x22: .cfa -32 + ^ x23: .cfa -40 + ^ x24: .cfa -48 + ^ x25: .cfa -56 + ^ x26: .cfa -64 + ^ x27: .cfa -72 + ^ x28: .cfa -80 + ^ .ra: .cfa -88 + ^ x29: .cfa -96 + ^
STACK CFI 15680 .cfa: sp 320 +
STACK CFI 1569c .cfa: sp 0 +
STACK CFI 156a0 .cfa: x29 96 +
STACK CFI INIT 19b50 c74 .cfa: sp 0 +
STACK CFI 19b54 .cfa: sp 96 +
STACK CFI 19b6c .cfa: x29 96 + x19: .cfa -8 + ^ x20: .cfa -16 + ^ x21: .cfa -24 + ^ x22: .cfa -32 + ^ x23: .cfa -40 + ^ x24: .cfa -48 + ^ x25: .cfa -56 + ^ x26: .cfa -64 + ^ x27: .cfa -72 + ^ x28: .cfa -80 + ^ .ra: .cfa -88 + ^ x29: .cfa -96 + ^
STACK CFI 1a5e4 .cfa: sp 96 +
STACK CFI 1a5fc .cfa: sp 0 +
STACK CFI 1a600 .cfa: x29 96 +
STACK CFI INIT 1a918 26c .cfa: sp 0 +
STACK CFI 1a91c .cfa: sp 128 +
STACK CFI 1a92c .cfa: x29 48 + x19: .cfa -8 + ^ x20: .cfa -16 + ^ x21: .cfa -24 + ^ x22: .cfa -32 + ^ .ra: .cfa -40 + ^ x29: .cfa -48 + ^
STACK CFI 1aad0 .cfa: sp 128 +
STACK CFI 1aae0 .cfa: sp 0 +
STACK CFI 1aae4 .cfa: x29 48 +
STACK CFI INIT 1b0d0 3b8 .cfa: sp 0 +
STACK CFI 1b0d4 .cfa: sp 96 +
STACK CFI 1b0ec .cfa: x29 96 + x19: .cfa -8 + ^ x20: .cfa -16 + ^ x21: .cfa -24 + ^ x22: .cfa -32 + ^ x23: .cfa -40 + ^ x24: .cfa -48 + ^ x25: .cfa -56 + ^ x26: .cfa -64 + ^ x27: .cfa -72 + ^ x28: .cfa -80 + ^ .ra: .cfa -88 + ^ x29: .cfa -96 + ^
STACK CFI 1b428 .cfa: sp 96 +
STACK CFI 1b440 .cfa: sp 0 +
STACK CFI 1b444 .cfa: x29 96 +
STACK CFI INIT 1b528 cb4 .cfa: sp 0 +
STACK CFI 1b52c .cfa: sp 96 +
STACK CFI 1b544 .cfa: x29 96 + x19: .cfa -8 + ^ x20: .cfa -16 + ^ x21: .cfa -24 + ^ x22: .cfa -32 + ^ x23: .cfa -40 + ^ x24: .cfa -48 + ^ x25: .cfa -56 + ^ x26: .cfa -64 + ^ x27: .cfa -72 + ^ x28: .cfa -80 + ^ .ra: .cfa -88 + ^ x29: .cfa -96 + ^
STACK CFI 1bfec .cfa: sp 96 +
STACK CFI 1c004 .cfa: sp 0 +
STACK CFI 1c008 .cfa: x29 96 +
STACK CFI INIT 1c4c4 afc .cfa: sp 0 +
STACK CFI 1c4c8 .cfa: sp 96 +
STACK CFI 1c4e0 .cfa: x29 96 + x19: .cfa -8 + ^ x20: .cfa -16 + ^ x21: .cfa -24 + ^ x22: .cfa -32 + ^ x23: .cfa -40 + ^ x24: .cfa -48 + ^ x25: .cfa -56 + ^ x26: .cfa -64 + ^ x27: .cfa -72 + ^ x28: .cfa -80 + ^ .ra: .cfa -88 + ^ x29: .cfa -96 + ^
STACK CFI 1cf34 .cfa: sp 96 +
STACK CFI 1cf4c .cfa: sp 0 +
STACK CFI 1cf50 .cfa: x29 96 +
STACK CFI INIT 1d19c 1430 .cfa: sp 0 +
STACK CFI 1d1a0 .cfa: sp 96 +
STACK CFI 1d1b8 .cfa: x29 96 + x19: .cfa -8 + ^ x20: .cfa -16 + ^ x21: .cfa -24 + ^ x22: .cfa -32 + ^ x23: .cfa -40 + ^ x24: .cfa -48 + ^ x25: .cfa -56 + ^ x26: .cfa -64 + ^ x27: .cfa -72 + ^ x28: .cfa -80 + ^ .ra: .cfa -88 + ^ x29: .cfa -96 + ^
STACK CFI 1e454 .cfa: sp 96 +
STACK CFI 1e46c .cfa: sp 0 +
STACK CFI 1e470 .cfa: x29 96 +
STACK CFI INIT 1e6f0 75c .cfa: sp 0 +
STACK CFI 1e6f4 .cfa: sp 368 +
STACK CFI 1e710 .cfa: x29 96 + x19: .cfa -8 + ^ x20: .cfa -16 + ^ x21: .cfa -24 + ^ x22: .cfa -32 + ^ x23: .cfa -40 + ^ x24: .cfa -48 + ^ x25: .cfa -56 + ^ x26: .cfa -64 + ^ x27: .cfa -72 + ^ x28: .cfa -80 + ^ .ra: .cfa -88 + ^ x29: .cfa -96 + ^
STACK CFI 1e7c4 .cfa: sp 368 +
STACK CFI 1e7e0 .cfa: sp 0 +
STACK CFI 1e7e4 .cfa: x29 96 +
STACK CFI 1e838 .cfa: sp 368 +
STACK CFI 1e854 .cfa: sp 0 +
STACK CFI 1e858 .cfa: x29 96 +
STACK CFI INIT 1f20c eb0 .cfa: sp 0 +
STACK CFI 1f210 .cfa: sp 96 +
STACK CFI 1f228 .cfa: x29 96 + x19: .cfa -8 + ^ x20: .cfa -16 + ^ x21: .cfa -24 + ^ x22: .cfa -32 + ^ x23: .cfa -40 + ^ x24: .cfa -48 + ^ x25: .cfa -56 + ^ x26: .cfa -64 + ^ x27: .cfa -72 + ^ x28: .cfa -80 + ^ .ra: .cfa -88 + ^ x29: .cfa -96 + ^
STACK CFI 1fed0 .cfa: sp 96 +
STACK CFI 1fee8 .cfa: sp 0 +
STACK CFI 1feec .cfa: x29 96 +
STACK CFI INIT 20430 1c9c .cfa: sp 0 +
STACK CFI 20434 .cfa: sp 112 +
STACK CFI 20450 .cfa: x29 96 + x19: .cfa -8 + ^ x20: .cfa -16 + ^ x21: .cfa -24 + ^ x22: .cfa -32 + ^ x23: .cfa -40 + ^ x24: .cfa -48 + ^ x25: .cfa -56 + ^ x26: .cfa -64 + ^ x27: .cfa -72 + ^ x28: .cfa -80 + ^ .ra: .cfa -88 + ^ x29: .cfa -96 + ^ v8: .cfa -112 + ^
STACK CFI 20838 .cfa: sp 112 +
STACK CFI 20854 .cfa: sp 0 +
STACK CFI 20858 .cfa: x29 96 +
STACK CFI INIT 24890 9a0 .cfa: sp 0 +
STACK CFI 24894 .cfa: sp 144 +
STACK CFI 248ac .cfa: x29 80 + x19: .cfa -8 + ^ x20: .cfa -16 + ^ x21: .cfa -24 + ^ x22: .cfa -32 + ^ x23: .cfa -40 + ^ x24: .cfa -48 + ^ x25: .cfa -64 + ^ .ra: .cfa -72 + ^ x29: .cfa -80 + ^
STACK CFI 251ac .cfa: sp 144 +
STACK CFI 251c4 .cfa: sp 0 +
STACK CFI 251c8 .cfa: x29 80 +
STACK CFI INIT 26754 57c .cfa: sp 0 +
STACK CFI 26758 .cfa: sp 96 +
STACK CFI 26770 .cfa: x29 96 + x19: .cfa -8 + ^ x20: .cfa -16 + ^ x21: .cfa -24 + ^ x22: .cfa -32 + ^ x23: .cfa -40 + ^ x24: .cfa -48 + ^ x25: .cfa -56 + ^ x26: .cfa -64 + ^ x27: .cfa -72 + ^ x28: .cfa -80 + ^ .ra: .cfa -88 + ^ x29: .cfa -96 + ^
STACK CFI 26c34 .cfa: sp 96 +
STACK CFI 26c4c .cfa: sp 0 +
STACK CFI 26c50 .cfa: x29 96 +
STACK CFI INIT 26cd0 67c .cfa: sp 0 +
STACK CFI 26cd4 .cfa: sp 96 +
STACK CFI 26cec .cfa: x29 96 + x19: .cfa -8 + ^ x20: .cfa -16 + ^ x21: .cfa -24 + ^ x22: .cfa -32 + ^ x23: .cfa -40 + ^ x24: .cfa -48 + ^ x25: .cfa -56 + ^ x26: .cfa -64 + ^ x27: .cfa -72 + ^ x28: .cfa -80 + ^ .ra: .cfa -88 + ^ x29: .cfa -96 + ^
STACK CFI 272b0 .cfa: sp 96 +
STACK CFI 272c8 .cfa: sp 0 +
STACK CFI 272cc .cfa: x29 96 +
