MODULE Linux arm64 17846D3D6E09BCFAF1DF042DB75046BB0 hiimjustin000.better_icon_randomizer.android64.so
INFO CODE_ID 3D6D8417096EFABCF1DF042DB75046BBA23A6BE9
INFO GENERATOR mozilla/dump_syms 2.3.4
PUBLIC 19df0 0 __on_dlclose
PUBLIC 19e00 0 __emutls_unregister_key
PUBLIC 19e08 0 __on_dlclose_late
PUBLIC 19e10 0 __atexit_handler_wrapper
PUBLIC 19e24 0 atexit
PUBLIC 19e40 0 pthread_atfork
PUBLIC 19e50 0 unwind_phase2
PUBLIC 19f84 0 _Unwind_Resume
PUBLIC 1a008 0 unwind_phase2_forced
PUBLIC m 1a0fc 0 __unw_init_local
PUBLIC m 1a1a4 0 __unw_get_reg
PUBLIC 1a220 0 __unw_step_stage2
PUBLIC m 1a234 0 __unw_get_proc_info
PUBLIC m 1a274 0 __unw_resume
PUBLIC 1a29c 0 libunwind::CFI_Parser<libunwind::LocalAddressSpace>::decodeFDE(libunwind::LocalAddressSpace&, unsigned long, libunwind::CFI_Parser<libunwind::LocalAddressSpace>::FDE_Info*, libunwind::CFI_Parser<libunwind::LocalAddressSpace>::CIE_Info*, bool)
PUBLIC 1a42c 0 libunwind::CFI_Parser<libunwind::LocalAddressSpace>::parseCIE(libunwind::LocalAddressSpace&, unsigned long, libunwind::CFI_Parser<libunwind::LocalAddressSpace>::CIE_Info*)
PUBLIC 1a6f4 0 libunwind::AbstractUnwindCursor::~AbstractUnwindCursor()
PUBLIC 1a6fc 0 libunwind::UnwindCursor<libunwind::LocalAddressSpace, libunwind::Registers_arm64>::~UnwindCursor()
PUBLIC 1a704 0 libunwind::UnwindCursor<libunwind::LocalAddressSpace, libunwind::Registers_arm64>::validReg(int)
PUBLIC 1a748 0 libunwind::UnwindCursor<libunwind::LocalAddressSpace, libunwind::Registers_arm64>::getReg(int)
PUBLIC 1a830 0 libunwind::UnwindCursor<libunwind::LocalAddressSpace, libunwind::Registers_arm64>::setReg(int, unsigned long)
PUBLIC 1a918 0 libunwind::UnwindCursor<libunwind::LocalAddressSpace, libunwind::Registers_arm64>::validFloatReg(int)
PUBLIC 1a92c 0 libunwind::UnwindCursor<libunwind::LocalAddressSpace, libunwind::Registers_arm64>::getFloatReg(int)
PUBLIC 1a93c 0 libunwind::UnwindCursor<libunwind::LocalAddressSpace, libunwind::Registers_arm64>::setFloatReg(int, double)
PUBLIC 1a94c 0 libunwind::UnwindCursor<libunwind::LocalAddressSpace, libunwind::Registers_arm64>::step(bool)
PUBLIC 1aa3c 0 libunwind::UnwindCursor<libunwind::LocalAddressSpace, libunwind::Registers_arm64>::getInfo(unw_proc_info_t*)
PUBLIC 1aa80 0 libunwind::UnwindCursor<libunwind::LocalAddressSpace, libunwind::Registers_arm64>::jumpto()
PUBLIC 1aa8c 0 libunwind::UnwindCursor<libunwind::LocalAddressSpace, libunwind::Registers_arm64>::isSignalFrame()
PUBLIC 1aa98 0 libunwind::UnwindCursor<libunwind::LocalAddressSpace, libunwind::Registers_arm64>::getFunctionName(char*, unsigned long, unsigned long*)
PUBLIC 1aac4 0 libunwind::UnwindCursor<libunwind::LocalAddressSpace, libunwind::Registers_arm64>::setInfoBasedOnIPRegister(bool)
PUBLIC 1ad44 0 libunwind::UnwindCursor<libunwind::LocalAddressSpace, libunwind::Registers_arm64>::getRegisterName(int)
PUBLIC 1ad50 0 libunwind::UnwindCursor<libunwind::LocalAddressSpace, libunwind::Registers_arm64>::stepThroughSigReturn(libunwind::Registers_arm64&)
PUBLIC 1ae70 0 libunwind::DwarfInstructions<libunwind::LocalAddressSpace, libunwind::Registers_arm64>::stepWithDwarf(libunwind::LocalAddressSpace&, unsigned long, unsigned long, libunwind::Registers_arm64&, bool&, bool)
PUBLIC 1b2f8 0 libunwind::CFI_Parser<libunwind::LocalAddressSpace>::parseFDEInstructions(libunwind::LocalAddressSpace&, libunwind::CFI_Parser<libunwind::LocalAddressSpace>::FDE_Info const&, libunwind::CFI_Parser<libunwind::LocalAddressSpace>::CIE_Info const&, unsigned long, int, libunwind::CFI_Parser<libunwind::LocalAddressSpace>::PrologInfo*)
PUBLIC 1bf40 0 libunwind::DwarfInstructions<libunwind::LocalAddressSpace, libunwind::Registers_arm64>::getCFA(libunwind::LocalAddressSpace&, libunwind::CFI_Parser<libunwind::LocalAddressSpace>::PrologInfo const&, libunwind::Registers_arm64 const&)
PUBLIC 1c074 0 libunwind::DwarfInstructions<libunwind::LocalAddressSpace, libunwind::Registers_arm64>::getSavedRegister(libunwind::LocalAddressSpace&, libunwind::Registers_arm64 const&, unsigned long, libunwind::CFI_Parser<libunwind::LocalAddressSpace>::RegisterLocation const&)
PUBLIC 1c284 0 libunwind::LocalAddressSpace::getEncodedP(unsigned long&, unsigned long, unsigned char, unsigned long)
PUBLIC 1c610 0 libunwind::LocalAddressSpace::getULEB128(unsigned long&, unsigned long)
PUBLIC 1c7d8 0 libunwind::DwarfInstructions<libunwind::LocalAddressSpace, libunwind::Registers_arm64>::evaluateExpression(unsigned long, libunwind::LocalAddressSpace&, libunwind::Registers_arm64 const&, unsigned long)
PUBLIC 1d194 0 libunwind::UnwindCursor<libunwind::LocalAddressSpace, libunwind::Registers_arm64>::getInfoFromDwarfSection(unsigned long, libunwind::UnwindInfoSections const&, unsigned int)
PUBLIC 1d468 0 libunwind::findUnwindSectionsByPhdr(dl_phdr_info*, unsigned long, void*)
PUBLIC 1d59c 0 libunwind::EHHeaderParser<libunwind::LocalAddressSpace>::decodeEHHdr(libunwind::LocalAddressSpace&, unsigned long, unsigned long, libunwind::EHHeaderParser<libunwind::LocalAddressSpace>::EHHeaderInfo&)
PUBLIC 1d6bc 0 libunwind::CFI_Parser<libunwind::LocalAddressSpace>::findFDE(libunwind::LocalAddressSpace&, unsigned long, unsigned long, unsigned long, unsigned long, libunwind::CFI_Parser<libunwind::LocalAddressSpace>::FDE_Info*, libunwind::CFI_Parser<libunwind::LocalAddressSpace>::CIE_Info*)
PUBLIC 1d884 0 libunwind::EHHeaderParser<libunwind::LocalAddressSpace>::findFDE(libunwind::LocalAddressSpace&, unsigned long, unsigned long, unsigned int, libunwind::CFI_Parser<libunwind::LocalAddressSpace>::FDE_Info*, libunwind::CFI_Parser<libunwind::LocalAddressSpace>::CIE_Info*)
PUBLIC 1d9ec 0 libunwind::EHHeaderParser<libunwind::LocalAddressSpace>::getTableEntrySize(unsigned char)
PUBLIC 1dae8 0 libunwind::Registers_arm64::getRegisterName(int)
PUBLIC 1db18 0 __libunwind_Registers_arm64_jumpto
PUBLIC m 1dba8 0 __unw_getcontext
PUBLIC 1dc50 0 __aarch64_ldadd8_acq_rel
PUBLIC 1dc80 0 init_have_lse_atomics
PUBLIC 1dd18 0 __init_cpu_features_constructor
PUBLIC 1e2b4 0 __init_cpu_features
PUBLIC 1e340 0 BIRSelectPopup::create(GJGarageLayer*)
PUBLIC 1e4b4 0 BIRSelectPopup::setup(GJGarageLayer*)
PUBLIC 1f8c4 0 BIRSelectPopup::createIconToggle(std::__ndk1::basic_string_view<char, std::__ndk1::char_traits<char> >, std::__ndk1::basic_string_view<char, std::__ndk1::char_traits<char> >, std::__ndk1::basic_string_view<char, std::__ndk1::char_traits<char> >)
PUBLIC 1faa4 0 BIRSelectPopup::createSpecialToggle(std::__ndk1::basic_string_view<char, std::__ndk1::char_traits<char> >, std::__ndk1::basic_string_view<char, std::__ndk1::char_traits<char> >, std::__ndk1::basic_string_view<char, std::__ndk1::char_traits<char> >)
PUBLIC 1fc84 0 BIRSelectPopup::createColorToggle(std::__ndk1::basic_string_view<char, std::__ndk1::char_traits<char> >, cocos2d::_ccColor3B const&, std::__ndk1::basic_string_view<char, std::__ndk1::char_traits<char> >)
PUBLIC 1ffcc 0 geode::cocos::CCMenuItemExt::createTogglerWithStandardSprites(float, std::__ndk1::function<void (CCMenuItemToggler*)>)
PUBLIC 20154 0 geode::cocos::CCMenuItemExt::createTogglerWithFrameName(std::__ndk1::basic_string_view<char, std::__ndk1::char_traits<char> >, std::__ndk1::basic_string_view<char, std::__ndk1::char_traits<char> >, float, std::__ndk1::function<void (CCMenuItemToggler*)>)
PUBLIC 202c4 0 geode::cocos::CCMenuItemExt::createToggler(cocos2d::CCNode*, cocos2d::CCNode*, std::__ndk1::function<void (CCMenuItemToggler*)>)
PUBLIC 20698 0 BIRSelectPopup::onToggle(cocos2d::CCArray*, CCMenuItemToggler*, CCMenuItemToggler*)
PUBLIC 20768 0 geode::cocos::CCArrayExt<CCMenuItemToggler*, CCMenuItemToggler>::~CCArrayExt()
PUBLIC 20784 0 BIRSelectPopup::onAllToggle(cocos2d::CCArray*, CCMenuItemToggler*)
PUBLIC 20824 0 std::__ndk1::vector<std::__ndk1::basic_string<char, std::__ndk1::char_traits<char>, std::__ndk1::allocator<char> >, std::__ndk1::allocator<std::__ndk1::basic_string<char, std::__ndk1::char_traits<char>, std::__ndk1::allocator<char> > > >::~vector[abi:ne180000]()
PUBLIC 208a0 0 BIRSelectPopup::~BIRSelectPopup()
PUBLIC 20970 0 __clang_call_terminate
PUBLIC 20980 0 {virtual override thunk({offset(-320)}, BIRSelectPopup::~BIRSelectPopup())}
PUBLIC 20988 0 BIRSelectPopup::~BIRSelectPopup()
PUBLIC 209ac 0 {virtual override thunk({offset(-320)}, BIRSelectPopup::~BIRSelectPopup())}
PUBLIC 209d4 0 cocos2d::CCCopying::copyWithZone(cocos2d::CCZone*)
PUBLIC 209dc 0 geode::Popup<GJGarageLayer*>::registerWithTouchDispatcher()
PUBLIC 20a08 0 geode::Popup<GJGarageLayer*>::keyDown(cocos2d::enumKeyCodes)
PUBLIC 20a30 0 cocos2d::CCLayerRGBA::setOpacityModifyRGB(bool)
PUBLIC 20a34 0 cocos2d::CCLayerRGBA::isOpacityModifyRGB()
PUBLIC 20a3c 0 geode::Popup<GJGarageLayer*>::onClose(cocos2d::CCObject*)
PUBLIC 20b84 0 {virtual override thunk({offset(-344)}, geode::Popup<GJGarageLayer*>::keyDown(cocos2d::enumKeyCodes))}
PUBLIC 20bb0 0 cocos2d::CCKeyboardDelegate::keyUp(cocos2d::enumKeyCodes)
PUBLIC 20bb4 0 cocos2d::CCMouseDelegate::rightKeyDown()
PUBLIC 20bb8 0 cocos2d::CCMouseDelegate::rightKeyUp()
PUBLIC 20bbc 0 cocos2d::CCMouseDelegate::scrollWheel(float, float)
PUBLIC 20bc0 0 {virtual override thunk({offset(-408)}, cocos2d::CCLayerRGBA::setOpacityModifyRGB(bool))}
PUBLIC 20bc4 0 {virtual override thunk({offset(-408)}, cocos2d::CCLayerRGBA::isOpacityModifyRGB())}
PUBLIC 20bcc 0 geode::Popup<GJGarageLayer*>::~Popup()
PUBLIC 20c38 0 geode::Popup<GJGarageLayer*>::~Popup()
PUBLIC 20c3c 0 {virtual override thunk({offset(-320)}, geode::Popup<GJGarageLayer*>::~Popup())}
PUBLIC 20ca8 0 {virtual override thunk({offset(-320)}, geode::Popup<GJGarageLayer*>::~Popup())}
PUBLIC 20cac 0 std::__ndk1::basic_string<char, std::__ndk1::char_traits<char>, std::__ndk1::allocator<char> >::__throw_length_error[abi:ne180000]() const
PUBLIC 20cc0 0 std::__ndk1::__throw_length_error[abi:ne180000](char const*)
PUBLIC 20d10 0 std::length_error::length_error[abi:ne180000](char const*)
PUBLIC 20d40 0 std::__throw_bad_array_new_length([abi:ne180000], void)
PUBLIC 20d74 0 geode::cocos::CCMenuItemExt::LambdaCallback<CCMenuItemSpriteExtra>::execute(cocos2d::CCNode*)
PUBLIC 20de4 0 geode::cocos::CCMenuItemExt::LambdaCallback<CCMenuItemSpriteExtra>::~LambdaCallback()
PUBLIC 20e40 0 geode::cocos::CCMenuItemExt::LambdaCallback<CCMenuItemSpriteExtra>::~LambdaCallback()
PUBLIC 20ea4 0 cocos2d::CCObject::update(float)
PUBLIC 20ea8 0 std::__ndk1::__throw_bad_function_call[abi:ne180000]()
PUBLIC 20edc 0 std::__ndk1::bad_function_call::~bad_function_call()
PUBLIC 20f00 0 geode::cocos::CCMenuItemExt::LambdaCallback<CCMenuItemToggler>::execute(cocos2d::CCNode*)
PUBLIC 20f70 0 geode::cocos::CCMenuItemExt::LambdaCallback<CCMenuItemToggler>::~LambdaCallback()
PUBLIC 20fcc 0 geode::cocos::CCMenuItemExt::LambdaCallback<CCMenuItemToggler>::~LambdaCallback()
PUBLIC 21030 0 std::__ndk1::vector<IconType, std::__ndk1::allocator<IconType> >::__throw_length_error[abi:ne180000]() const
PUBLIC 21044 0 geode::DispatchEvent<std::__ndk1::basic_string<char, std::__ndk1::char_traits<char>, std::__ndk1::allocator<char> >*, IconType, bool>::~DispatchEvent()
PUBLIC 21084 0 geode::DispatchEvent<std::__ndk1::basic_string<char, std::__ndk1::char_traits<char>, std::__ndk1::allocator<char> >*, IconType, bool>::getPool() const
PUBLIC 210e8 0 geode::DispatchEvent<std::__ndk1::basic_string<char, std::__ndk1::char_traits<char>, std::__ndk1::allocator<char> >*, IconType, bool>::~DispatchEvent()
PUBLIC 2112c 0 std::__ndk1::basic_string<char, std::__ndk1::char_traits<char>, std::__ndk1::allocator<char> >::__init_copy_ctor_external(char const*, unsigned long)
PUBLIC 211ac 0 std::__ndk1::__hash_table<std::__ndk1::__hash_value_type<std::__ndk1::basic_string<char, std::__ndk1::char_traits<char>, std::__ndk1::allocator<char> >, geode::EventListenerPool*>, std::__ndk1::__unordered_map_hasher<std::__ndk1::basic_string<char, std::__ndk1::char_traits<char>, std::__ndk1::allocator<char> >, std::__ndk1::__hash_value_type<std::__ndk1::basic_string<char, std::__ndk1::char_traits<char>, std::__ndk1::allocator<char> >, geode::EventListenerPool*>, std::__ndk1::hash<std::__ndk1::basic_string<char, std::__ndk1::char_traits<char>, std::__ndk1::allocator<char> > >, std::__ndk1::equal_to<std::__ndk1::basic_string<char, std::__ndk1::char_traits<char>, std::__ndk1::allocator<char> > >, true>, std::__ndk1::__unordered_map_equal<std::__ndk1::basic_string<char, std::__ndk1::char_traits<char>, std::__ndk1::allocator<char> >, std::__ndk1::__hash_value_type<std::__ndk1::basic_string<char, std::__ndk1::char_traits<char>, std::__ndk1::allocator<char> >, geode::EventListenerPool*>, std::__ndk1::equal_to<std::__ndk1::basic_string<char, std::__ndk1::char_traits<char>, std::__ndk1::allocator<char> > >, std::__ndk1::hash<std::__ndk1::basic_string<char, std::__ndk1::char_traits<char>, std::__ndk1::allocator<char> > >, true>, std::__ndk1::allocator<std::__ndk1::__hash_value_type<std::__ndk1::basic_string<char, std::__ndk1::char_traits<char>, std::__ndk1::allocator<char> >, geode::EventListenerPool*> > >::find<std::__ndk1::basic_string<char, std::__ndk1::char_traits<char>, std::__ndk1::allocator<char> > >(std::__ndk1::basic_string<char, std::__ndk1::char_traits<char>, std::__ndk1::allocator<char> > const&) const
PUBLIC 213dc 0 std::__ndk1::__murmur2_or_cityhash<unsigned long, (unsigned long)64>::operator()[abi:ne180000](void const*, unsigned long) const
PUBLIC 21834 0 std::__ndk1::__hash_table<std::__ndk1::__hash_value_type<std::__ndk1::basic_string<char, std::__ndk1::char_traits<char>, std::__ndk1::allocator<char> >, geode::EventListenerPool*>, std::__ndk1::__unordered_map_hasher<std::__ndk1::basic_string<char, std::__ndk1::char_traits<char>, std::__ndk1::allocator<char> >, std::__ndk1::__hash_value_type<std::__ndk1::basic_string<char, std::__ndk1::char_traits<char>, std::__ndk1::allocator<char> >, geode::EventListenerPool*>, std::__ndk1::hash<std::__ndk1::basic_string<char, std::__ndk1::char_traits<char>, std::__ndk1::allocator<char> > >, std::__ndk1::equal_to<std::__ndk1::basic_string<char, std::__ndk1::char_traits<char>, std::__ndk1::allocator<char> > >, true>, std::__ndk1::__unordered_map_equal<std::__ndk1::basic_string<char, std::__ndk1::char_traits<char>, std::__ndk1::allocator<char> >, std::__ndk1::__hash_value_type<std::__ndk1::basic_string<char, std::__ndk1::char_traits<char>, std::__ndk1::allocator<char> >, geode::EventListenerPool*>, std::__ndk1::equal_to<std::__ndk1::basic_string<char, std::__ndk1::char_traits<char>, std::__ndk1::allocator<char> > >, std::__ndk1::hash<std::__ndk1::basic_string<char, std::__ndk1::char_traits<char>, std::__ndk1::allocator<char> > >, true>, std::__ndk1::allocator<std::__ndk1::__hash_value_type<std::__ndk1::basic_string<char, std::__ndk1::char_traits<char>, std::__ndk1::allocator<char> >, geode::EventListenerPool*> > >::__emplace_unique_key_args<std::__ndk1::basic_string<char, std::__ndk1::char_traits<char>, std::__ndk1::allocator<char> >, std::__ndk1::piecewise_construct_t const&, std::__ndk1::tuple<std::__ndk1::basic_string<char, std::__ndk1::char_traits<char>, std::__ndk1::allocator<char> > const&>, std::__ndk1::tuple<> >(std::__ndk1::basic_string<char, std::__ndk1::char_traits<char>, std::__ndk1::allocator<char> > const&, std::__ndk1::piecewise_construct_t const&, std::__ndk1::tuple<std::__ndk1::basic_string<char, std::__ndk1::char_traits<char>, std::__ndk1::allocator<char> > const&>, std::__ndk1::tuple<>)
PUBLIC 21e68 0 std::__ndk1::unique_ptr<std::__ndk1::__hash_node<std::__ndk1::__hash_value_type<std::__ndk1::basic_string<char, std::__ndk1::char_traits<char>, std::__ndk1::allocator<char> >, geode::EventListenerPool*>, void*>, std::__ndk1::__hash_node_destructor<std::__ndk1::allocator<std::__ndk1::__hash_node<std::__ndk1::__hash_value_type<std::__ndk1::basic_string<char, std::__ndk1::char_traits<char>, std::__ndk1::allocator<char> >, geode::EventListenerPool*>, void*> > > >::~unique_ptr[abi:ne180000]()
PUBLIC 21eb8 0 geode::DispatchEvent<std::__ndk1::vector<std::__ndk1::basic_string<char, std::__ndk1::char_traits<char>, std::__ndk1::allocator<char> >, std::__ndk1::allocator<std::__ndk1::basic_string<char, std::__ndk1::char_traits<char>, std::__ndk1::allocator<char> > > >*, IconType>::~DispatchEvent()
PUBLIC 21ef8 0 geode::DispatchEvent<std::__ndk1::vector<std::__ndk1::basic_string<char, std::__ndk1::char_traits<char>, std::__ndk1::allocator<char> >, std::__ndk1::allocator<std::__ndk1::basic_string<char, std::__ndk1::char_traits<char>, std::__ndk1::allocator<char> > > >*, IconType>::getPool() const
PUBLIC 21f5c 0 geode::DispatchEvent<std::__ndk1::vector<std::__ndk1::basic_string<char, std::__ndk1::char_traits<char>, std::__ndk1::allocator<char> >, std::__ndk1::allocator<std::__ndk1::basic_string<char, std::__ndk1::char_traits<char>, std::__ndk1::allocator<char> > > >*, IconType>::~DispatchEvent()
PUBLIC 21fa0 0 geode::DispatchEvent<SimplePlayer*, std::__ndk1::basic_string<char, std::__ndk1::char_traits<char>, std::__ndk1::allocator<char> >, IconType>::~DispatchEvent()
PUBLIC 22004 0 geode::DispatchEvent<SimplePlayer*, std::__ndk1::basic_string<char, std::__ndk1::char_traits<char>, std::__ndk1::allocator<char> >, IconType>::getPool() const
PUBLIC 22068 0 geode::DispatchEvent<SimplePlayer*, std::__ndk1::basic_string<char, std::__ndk1::char_traits<char>, std::__ndk1::allocator<char> >, IconType>::~DispatchEvent()
PUBLIC 220dc 0 geode::Popup<GJGarageLayer*>::initBase(float, float, GJGarageLayer*, char const*, cocos2d::CCRect, bool)
PUBLIC 223f0 0 geode::impl::ResultData<matjson::Value&, std::__ndk1::basic_string<char, std::__ndk1::char_traits<char>, std::__ndk1::allocator<char> > >::~ResultData()
PUBLIC 22464 0 std::__ndk1::__throw_bad_variant_access[abi:ne180000]()
PUBLIC 22498 0 std::__ndk1::__variant_detail::__visitation::__base::__dispatcher<(unsigned long)0>::__dispatch[abi:ne180000]<std::__ndk1::__variant_detail::__dtor<std::__ndk1::__variant_detail::__traits<std::__ndk1::reference_wrapper<matjson::Value>, std::__ndk1::basic_string<char, std::__ndk1::char_traits<char>, std::__ndk1::allocator<char> > >, (std::__ndk1::__variant_detail::_Trait)1>::__destroy[abi:ne180000]()::{lambda(auto:1&)#1}, std::__ndk1::__variant_detail::__base<(std::__ndk1::__variant_detail::__traits<std::__ndk1::reference_wrapper<matjson::Value>, std::__ndk1::basic_string<char, std::__ndk1::char_traits<char>, std::__ndk1::allocator<char> > >)1, matjson::Value, std::__ndk1::allocator<char> >&>(std::__ndk1::__variant_detail::__dtor<std::__ndk1::__variant_detail::__traits<std::__ndk1::reference_wrapper<matjson::Value>, std::__ndk1::basic_string<char, std::__ndk1::char_traits<char>, std::__ndk1::allocator<char> > >, (std::__ndk1::__variant_detail::_Trait)1>, std::__ndk1::__variant_detail::__base<(std::__ndk1::__variant_detail::__traits<std::__ndk1::reference_wrapper<matjson::Value>, std::__ndk1::basic_string<char, std::__ndk1::char_traits<char>, std::__ndk1::allocator<char> > >)1, matjson::Value, std::__ndk1::allocator<char> >&)
PUBLIC 2249c 0 std::__ndk1::__variant_detail::__visitation::__base::__dispatcher<(unsigned long)1>::__dispatch[abi:ne180000]<std::__ndk1::__variant_detail::__dtor<std::__ndk1::__variant_detail::__traits<std::__ndk1::reference_wrapper<matjson::Value>, std::__ndk1::basic_string<char, std::__ndk1::char_traits<char>, std::__ndk1::allocator<char> > >, (std::__ndk1::__variant_detail::_Trait)1>::__destroy[abi:ne180000]()::{lambda(auto:1&)#1}, std::__ndk1::__variant_detail::__base<(std::__ndk1::__variant_detail::__traits<std::__ndk1::reference_wrapper<matjson::Value>, std::__ndk1::basic_string<char, std::__ndk1::char_traits<char>, std::__ndk1::allocator<char> > >)1, matjson::Value, std::__ndk1::allocator<char> >&>(std::__ndk1::__variant_detail::__dtor<std::__ndk1::__variant_detail::__traits<std::__ndk1::reference_wrapper<matjson::Value>, std::__ndk1::basic_string<char, std::__ndk1::char_traits<char>, std::__ndk1::allocator<char> > >, (std::__ndk1::__variant_detail::_Trait)1>, std::__ndk1::__variant_detail::__base<(std::__ndk1::__variant_detail::__traits<std::__ndk1::reference_wrapper<matjson::Value>, std::__ndk1::basic_string<char, std::__ndk1::char_traits<char>, std::__ndk1::allocator<char> > >)1, matjson::Value, std::__ndk1::allocator<char> >&)
PUBLIC 224b0 0 std::__ndk1::__variant_detail::__visitation::__base::__dispatcher<(unsigned long)0>::__dispatch[abi:ne180000]<std::__ndk1::__variant_detail::__dtor<std::__ndk1::__variant_detail::__traits<bool, std::__ndk1::basic_string<char, std::__ndk1::char_traits<char>, std::__ndk1::allocator<char> > >, (std::__ndk1::__variant_detail::_Trait)1>::__destroy[abi:ne180000]()::{lambda(auto:1&)#1}, std::__ndk1::__variant_detail::__base<(std::__ndk1::__variant_detail::__traits<bool, std::__ndk1::basic_string<char, std::__ndk1::char_traits<char>, std::__ndk1::allocator<char> > >)1, bool, std::__ndk1::allocator<char> >&>(std::__ndk1::__variant_detail::__dtor<std::__ndk1::__variant_detail::__traits<bool, std::__ndk1::basic_string<char, std::__ndk1::char_traits<char>, std::__ndk1::allocator<char> > >, (std::__ndk1::__variant_detail::_Trait)1>, std::__ndk1::__variant_detail::__base<(std::__ndk1::__variant_detail::__traits<bool, std::__ndk1::basic_string<char, std::__ndk1::char_traits<char>, std::__ndk1::allocator<char> > >)1, bool, std::__ndk1::allocator<char> >&)
PUBLIC 224b4 0 std::__ndk1::__variant_detail::__visitation::__base::__dispatcher<(unsigned long)1>::__dispatch[abi:ne180000]<std::__ndk1::__variant_detail::__dtor<std::__ndk1::__variant_detail::__traits<bool, std::__ndk1::basic_string<char, std::__ndk1::char_traits<char>, std::__ndk1::allocator<char> > >, (std::__ndk1::__variant_detail::_Trait)1>::__destroy[abi:ne180000]()::{lambda(auto:1&)#1}, std::__ndk1::__variant_detail::__base<(std::__ndk1::__variant_detail::__traits<bool, std::__ndk1::basic_string<char, std::__ndk1::char_traits<char>, std::__ndk1::allocator<char> > >)1, bool, std::__ndk1::allocator<char> >&>(std::__ndk1::__variant_detail::__dtor<std::__ndk1::__variant_detail::__traits<bool, std::__ndk1::basic_string<char, std::__ndk1::char_traits<char>, std::__ndk1::allocator<char> > >, (std::__ndk1::__variant_detail::_Trait)1>, std::__ndk1::__variant_detail::__base<(std::__ndk1::__variant_detail::__traits<bool, std::__ndk1::basic_string<char, std::__ndk1::char_traits<char>, std::__ndk1::allocator<char> > >)1, bool, std::__ndk1::allocator<char> >&)
PUBLIC 224c8 0 std::__ndk1::__function::__func<BIRSelectPopup::setup(GJGarageLayer*)::$_1, std::__ndk1::allocator<BIRSelectPopup::setup(GJGarageLayer*)::$_1>, void (CCMenuItemToggler*)>::~__func()
PUBLIC 224cc 0 std::__ndk1::__function::__func<BIRSelectPopup::setup(GJGarageLayer*)::$_1, std::__ndk1::allocator<BIRSelectPopup::setup(GJGarageLayer*)::$_1>, void (CCMenuItemToggler*)>::__clone() const
PUBLIC 22500 0 std::__ndk1::__function::__func<BIRSelectPopup::setup(GJGarageLayer*)::$_1, std::__ndk1::allocator<BIRSelectPopup::setup(GJGarageLayer*)::$_1>, void (CCMenuItemToggler*)>::__clone(std::__ndk1::__function::__base<void (CCMenuItemToggler*)>*) const
PUBLIC 22514 0 std::__ndk1::__function::__func<BIRSelectPopup::setup(GJGarageLayer*)::$_1, std::__ndk1::allocator<BIRSelectPopup::setup(GJGarageLayer*)::$_1>, void (CCMenuItemToggler*)>::destroy()
PUBLIC 22518 0 std::__ndk1::__function::__func<BIRSelectPopup::setup(GJGarageLayer*)::$_1, std::__ndk1::allocator<BIRSelectPopup::setup(GJGarageLayer*)::$_1>, void (CCMenuItemToggler*)>::destroy_deallocate()
PUBLIC 2251c 0 std::__ndk1::__function::__func<BIRSelectPopup::setup(GJGarageLayer*)::$_1, std::__ndk1::allocator<BIRSelectPopup::setup(GJGarageLayer*)::$_1>, void (CCMenuItemToggler*)>::operator()(CCMenuItemToggler*&&)
PUBLIC 2252c 0 std::__ndk1::__function::__func<BIRSelectPopup::setup(GJGarageLayer*)::$_1, std::__ndk1::allocator<BIRSelectPopup::setup(GJGarageLayer*)::$_1>, void (CCMenuItemToggler*)>::target(std::type_info const&) const
PUBLIC 22548 0 std::__ndk1::__function::__func<BIRSelectPopup::setup(GJGarageLayer*)::$_1, std::__ndk1::allocator<BIRSelectPopup::setup(GJGarageLayer*)::$_1>, void (CCMenuItemToggler*)>::target_type() const
PUBLIC 22554 0 std::__ndk1::__function::__func<BIRSelectPopup::setup(GJGarageLayer*)::$_2, std::__ndk1::allocator<BIRSelectPopup::setup(GJGarageLayer*)::$_2>, void (CCMenuItemToggler*)>::~__func()
PUBLIC 22558 0 std::__ndk1::__function::__func<BIRSelectPopup::setup(GJGarageLayer*)::$_2, std::__ndk1::allocator<BIRSelectPopup::setup(GJGarageLayer*)::$_2>, void (CCMenuItemToggler*)>::__clone() const
PUBLIC 2258c 0 std::__ndk1::__function::__func<BIRSelectPopup::setup(GJGarageLayer*)::$_2, std::__ndk1::allocator<BIRSelectPopup::setup(GJGarageLayer*)::$_2>, void (CCMenuItemToggler*)>::__clone(std::__ndk1::__function::__base<void (CCMenuItemToggler*)>*) const
PUBLIC 225a0 0 std::__ndk1::__function::__func<BIRSelectPopup::setup(GJGarageLayer*)::$_2, std::__ndk1::allocator<BIRSelectPopup::setup(GJGarageLayer*)::$_2>, void (CCMenuItemToggler*)>::destroy()
PUBLIC 225a4 0 std::__ndk1::__function::__func<BIRSelectPopup::setup(GJGarageLayer*)::$_2, std::__ndk1::allocator<BIRSelectPopup::setup(GJGarageLayer*)::$_2>, void (CCMenuItemToggler*)>::destroy_deallocate()
PUBLIC 225a8 0 std::__ndk1::__function::__func<BIRSelectPopup::setup(GJGarageLayer*)::$_2, std::__ndk1::allocator<BIRSelectPopup::setup(GJGarageLayer*)::$_2>, void (CCMenuItemToggler*)>::operator()(CCMenuItemToggler*&&)
PUBLIC 225b8 0 std::__ndk1::__function::__func<BIRSelectPopup::setup(GJGarageLayer*)::$_2, std::__ndk1::allocator<BIRSelectPopup::setup(GJGarageLayer*)::$_2>, void (CCMenuItemToggler*)>::target(std::type_info const&) const
PUBLIC 225d4 0 std::__ndk1::__function::__func<BIRSelectPopup::setup(GJGarageLayer*)::$_2, std::__ndk1::allocator<BIRSelectPopup::setup(GJGarageLayer*)::$_2>, void (CCMenuItemToggler*)>::target_type() const
PUBLIC 225e0 0 std::__ndk1::__function::__func<BIRSelectPopup::setup(GJGarageLayer*)::$_3, std::__ndk1::allocator<BIRSelectPopup::setup(GJGarageLayer*)::$_3>, void (CCMenuItemToggler*)>::~__func()
PUBLIC 225e4 0 std::__ndk1::__function::__func<BIRSelectPopup::setup(GJGarageLayer*)::$_3, std::__ndk1::allocator<BIRSelectPopup::setup(GJGarageLayer*)::$_3>, void (CCMenuItemToggler*)>::__clone() const
PUBLIC 22618 0 std::__ndk1::__function::__func<BIRSelectPopup::setup(GJGarageLayer*)::$_3, std::__ndk1::allocator<BIRSelectPopup::setup(GJGarageLayer*)::$_3>, void (CCMenuItemToggler*)>::__clone(std::__ndk1::__function::__base<void (CCMenuItemToggler*)>*) const
PUBLIC 2262c 0 std::__ndk1::__function::__func<BIRSelectPopup::setup(GJGarageLayer*)::$_3, std::__ndk1::allocator<BIRSelectPopup::setup(GJGarageLayer*)::$_3>, void (CCMenuItemToggler*)>::destroy()
PUBLIC 22630 0 std::__ndk1::__function::__func<BIRSelectPopup::setup(GJGarageLayer*)::$_3, std::__ndk1::allocator<BIRSelectPopup::setup(GJGarageLayer*)::$_3>, void (CCMenuItemToggler*)>::destroy_deallocate()
PUBLIC 22634 0 std::__ndk1::__function::__func<BIRSelectPopup::setup(GJGarageLayer*)::$_3, std::__ndk1::allocator<BIRSelectPopup::setup(GJGarageLayer*)::$_3>, void (CCMenuItemToggler*)>::operator()(CCMenuItemToggler*&&)
PUBLIC 22644 0 std::__ndk1::__function::__func<BIRSelectPopup::setup(GJGarageLayer*)::$_3, std::__ndk1::allocator<BIRSelectPopup::setup(GJGarageLayer*)::$_3>, void (CCMenuItemToggler*)>::target(std::type_info const&) const
PUBLIC 22660 0 std::__ndk1::__function::__func<BIRSelectPopup::setup(GJGarageLayer*)::$_3, std::__ndk1::allocator<BIRSelectPopup::setup(GJGarageLayer*)::$_3>, void (CCMenuItemToggler*)>::target_type() const
PUBLIC 2266c 0 std::__ndk1::__function::__base<void (CCMenuItemSpriteExtra*)>::~__base()
PUBLIC 22670 0 std::__ndk1::__function::__func<BIRSelectPopup::setup(GJGarageLayer*)::$_0, std::__ndk1::allocator<BIRSelectPopup::setup(GJGarageLayer*)::$_0>, void (CCMenuItemSpriteExtra*)>::~__func()
PUBLIC 22674 0 std::__ndk1::__function::__func<BIRSelectPopup::setup(GJGarageLayer*)::$_0, std::__ndk1::allocator<BIRSelectPopup::setup(GJGarageLayer*)::$_0>, void (CCMenuItemSpriteExtra*)>::__clone() const
PUBLIC 226a8 0 std::__ndk1::__function::__func<BIRSelectPopup::setup(GJGarageLayer*)::$_0, std::__ndk1::allocator<BIRSelectPopup::setup(GJGarageLayer*)::$_0>, void (CCMenuItemSpriteExtra*)>::__clone(std::__ndk1::__function::__base<void (CCMenuItemSpriteExtra*)>*) const
PUBLIC 226bc 0 std::__ndk1::__function::__func<BIRSelectPopup::setup(GJGarageLayer*)::$_0, std::__ndk1::allocator<BIRSelectPopup::setup(GJGarageLayer*)::$_0>, void (CCMenuItemSpriteExtra*)>::destroy()
PUBLIC 226c0 0 std::__ndk1::__function::__func<BIRSelectPopup::setup(GJGarageLayer*)::$_0, std::__ndk1::allocator<BIRSelectPopup::setup(GJGarageLayer*)::$_0>, void (CCMenuItemSpriteExtra*)>::destroy_deallocate()
PUBLIC 226c4 0 std::__ndk1::__function::__func<BIRSelectPopup::setup(GJGarageLayer*)::$_0, std::__ndk1::allocator<BIRSelectPopup::setup(GJGarageLayer*)::$_0>, void (CCMenuItemSpriteExtra*)>::operator()(CCMenuItemSpriteExtra*&&)
PUBLIC 24f88 0 std::__ndk1::__function::__func<BIRSelectPopup::setup(GJGarageLayer*)::$_0, std::__ndk1::allocator<BIRSelectPopup::setup(GJGarageLayer*)::$_0>, void (CCMenuItemSpriteExtra*)>::target(std::type_info const&) const
PUBLIC 24fa4 0 std::__ndk1::__function::__func<BIRSelectPopup::setup(GJGarageLayer*)::$_0, std::__ndk1::allocator<BIRSelectPopup::setup(GJGarageLayer*)::$_0>, void (CCMenuItemSpriteExtra*)>::target_type() const
PUBLIC 24fb0 0 std::__ndk1::__function::__func<BIRSelectPopup::createIconToggle(std::__ndk1::basic_string_view<char, std::__ndk1::char_traits<char> >, std::__ndk1::basic_string_view<char, std::__ndk1::char_traits<char> >, std::__ndk1::basic_string_view<char, std::__ndk1::char_traits<char> >)::$_0, std::__ndk1::allocator<BIRSelectPopup::createIconToggle(std::__ndk1::basic_string_view<char, std::__ndk1::char_traits<char> >, std::__ndk1::basic_string_view<char, std::__ndk1::char_traits<char> >, std::__ndk1::basic_string_view<char, std::__ndk1::char_traits<char> >)::$_0>, void (CCMenuItemToggler*)>::~__func()
PUBLIC 24fb4 0 std::__ndk1::__function::__func<BIRSelectPopup::createIconToggle(std::__ndk1::basic_string_view<char, std::__ndk1::char_traits<char> >, std::__ndk1::basic_string_view<char, std::__ndk1::char_traits<char> >, std::__ndk1::basic_string_view<char, std::__ndk1::char_traits<char> >)::$_0, std::__ndk1::allocator<BIRSelectPopup::createIconToggle(std::__ndk1::basic_string_view<char, std::__ndk1::char_traits<char> >, std::__ndk1::basic_string_view<char, std::__ndk1::char_traits<char> >, std::__ndk1::basic_string_view<char, std::__ndk1::char_traits<char> >)::$_0>, void (CCMenuItemToggler*)>::__clone() const
PUBLIC 24fe8 0 std::__ndk1::__function::__func<BIRSelectPopup::createIconToggle(std::__ndk1::basic_string_view<char, std::__ndk1::char_traits<char> >, std::__ndk1::basic_string_view<char, std::__ndk1::char_traits<char> >, std::__ndk1::basic_string_view<char, std::__ndk1::char_traits<char> >)::$_0, std::__ndk1::allocator<BIRSelectPopup::createIconToggle(std::__ndk1::basic_string_view<char, std::__ndk1::char_traits<char> >, std::__ndk1::basic_string_view<char, std::__ndk1::char_traits<char> >, std::__ndk1::basic_string_view<char, std::__ndk1::char_traits<char> >)::$_0>, void (CCMenuItemToggler*)>::__clone(std::__ndk1::__function::__base<void (CCMenuItemToggler*)>*) const
PUBLIC 24ffc 0 std::__ndk1::__function::__func<BIRSelectPopup::createIconToggle(std::__ndk1::basic_string_view<char, std::__ndk1::char_traits<char> >, std::__ndk1::basic_string_view<char, std::__ndk1::char_traits<char> >, std::__ndk1::basic_string_view<char, std::__ndk1::char_traits<char> >)::$_0, std::__ndk1::allocator<BIRSelectPopup::createIconToggle(std::__ndk1::basic_string_view<char, std::__ndk1::char_traits<char> >, std::__ndk1::basic_string_view<char, std::__ndk1::char_traits<char> >, std::__ndk1::basic_string_view<char, std::__ndk1::char_traits<char> >)::$_0>, void (CCMenuItemToggler*)>::destroy()
PUBLIC 25000 0 std::__ndk1::__function::__func<BIRSelectPopup::createIconToggle(std::__ndk1::basic_string_view<char, std::__ndk1::char_traits<char> >, std::__ndk1::basic_string_view<char, std::__ndk1::char_traits<char> >, std::__ndk1::basic_string_view<char, std::__ndk1::char_traits<char> >)::$_0, std::__ndk1::allocator<BIRSelectPopup::createIconToggle(std::__ndk1::basic_string_view<char, std::__ndk1::char_traits<char> >, std::__ndk1::basic_string_view<char, std::__ndk1::char_traits<char> >, std::__ndk1::basic_string_view<char, std::__ndk1::char_traits<char> >)::$_0>, void (CCMenuItemToggler*)>::destroy_deallocate()
PUBLIC 25004 0 std::__ndk1::__function::__func<BIRSelectPopup::createIconToggle(std::__ndk1::basic_string_view<char, std::__ndk1::char_traits<char> >, std::__ndk1::basic_string_view<char, std::__ndk1::char_traits<char> >, std::__ndk1::basic_string_view<char, std::__ndk1::char_traits<char> >)::$_0, std::__ndk1::allocator<BIRSelectPopup::createIconToggle(std::__ndk1::basic_string_view<char, std::__ndk1::char_traits<char> >, std::__ndk1::basic_string_view<char, std::__ndk1::char_traits<char> >, std::__ndk1::basic_string_view<char, std::__ndk1::char_traits<char> >)::$_0>, void (CCMenuItemToggler*)>::operator()(CCMenuItemToggler*&&)
PUBLIC 25018 0 std::__ndk1::__function::__func<BIRSelectPopup::createIconToggle(std::__ndk1::basic_string_view<char, std::__ndk1::char_traits<char> >, std::__ndk1::basic_string_view<char, std::__ndk1::char_traits<char> >, std::__ndk1::basic_string_view<char, std::__ndk1::char_traits<char> >)::$_0, std::__ndk1::allocator<BIRSelectPopup::createIconToggle(std::__ndk1::basic_string_view<char, std::__ndk1::char_traits<char> >, std::__ndk1::basic_string_view<char, std::__ndk1::char_traits<char> >, std::__ndk1::basic_string_view<char, std::__ndk1::char_traits<char> >)::$_0>, void (CCMenuItemToggler*)>::target(std::type_info const&) const
PUBLIC 25034 0 std::__ndk1::__function::__func<BIRSelectPopup::createIconToggle(std::__ndk1::basic_string_view<char, std::__ndk1::char_traits<char> >, std::__ndk1::basic_string_view<char, std::__ndk1::char_traits<char> >, std::__ndk1::basic_string_view<char, std::__ndk1::char_traits<char> >)::$_0, std::__ndk1::allocator<BIRSelectPopup::createIconToggle(std::__ndk1::basic_string_view<char, std::__ndk1::char_traits<char> >, std::__ndk1::basic_string_view<char, std::__ndk1::char_traits<char> >, std::__ndk1::basic_string_view<char, std::__ndk1::char_traits<char> >)::$_0>, void (CCMenuItemToggler*)>::target_type() const
PUBLIC 25040 0 std::__ndk1::__function::__func<BIRSelectPopup::createSpecialToggle(std::__ndk1::basic_string_view<char, std::__ndk1::char_traits<char> >, std::__ndk1::basic_string_view<char, std::__ndk1::char_traits<char> >, std::__ndk1::basic_string_view<char, std::__ndk1::char_traits<char> >)::$_0, std::__ndk1::allocator<BIRSelectPopup::createSpecialToggle(std::__ndk1::basic_string_view<char, std::__ndk1::char_traits<char> >, std::__ndk1::basic_string_view<char, std::__ndk1::char_traits<char> >, std::__ndk1::basic_string_view<char, std::__ndk1::char_traits<char> >)::$_0>, void (CCMenuItemToggler*)>::~__func()
PUBLIC 25044 0 std::__ndk1::__function::__func<BIRSelectPopup::createSpecialToggle(std::__ndk1::basic_string_view<char, std::__ndk1::char_traits<char> >, std::__ndk1::basic_string_view<char, std::__ndk1::char_traits<char> >, std::__ndk1::basic_string_view<char, std::__ndk1::char_traits<char> >)::$_0, std::__ndk1::allocator<BIRSelectPopup::createSpecialToggle(std::__ndk1::basic_string_view<char, std::__ndk1::char_traits<char> >, std::__ndk1::basic_string_view<char, std::__ndk1::char_traits<char> >, std::__ndk1::basic_string_view<char, std::__ndk1::char_traits<char> >)::$_0>, void (CCMenuItemToggler*)>::__clone() const
PUBLIC 25078 0 std::__ndk1::__function::__func<BIRSelectPopup::createSpecialToggle(std::__ndk1::basic_string_view<char, std::__ndk1::char_traits<char> >, std::__ndk1::basic_string_view<char, std::__ndk1::char_traits<char> >, std::__ndk1::basic_string_view<char, std::__ndk1::char_traits<char> >)::$_0, std::__ndk1::allocator<BIRSelectPopup::createSpecialToggle(std::__ndk1::basic_string_view<char, std::__ndk1::char_traits<char> >, std::__ndk1::basic_string_view<char, std::__ndk1::char_traits<char> >, std::__ndk1::basic_string_view<char, std::__ndk1::char_traits<char> >)::$_0>, void (CCMenuItemToggler*)>::__clone(std::__ndk1::__function::__base<void (CCMenuItemToggler*)>*) const
PUBLIC 2508c 0 std::__ndk1::__function::__func<BIRSelectPopup::createSpecialToggle(std::__ndk1::basic_string_view<char, std::__ndk1::char_traits<char> >, std::__ndk1::basic_string_view<char, std::__ndk1::char_traits<char> >, std::__ndk1::basic_string_view<char, std::__ndk1::char_traits<char> >)::$_0, std::__ndk1::allocator<BIRSelectPopup::createSpecialToggle(std::__ndk1::basic_string_view<char, std::__ndk1::char_traits<char> >, std::__ndk1::basic_string_view<char, std::__ndk1::char_traits<char> >, std::__ndk1::basic_string_view<char, std::__ndk1::char_traits<char> >)::$_0>, void (CCMenuItemToggler*)>::destroy()
PUBLIC 25090 0 std::__ndk1::__function::__func<BIRSelectPopup::createSpecialToggle(std::__ndk1::basic_string_view<char, std::__ndk1::char_traits<char> >, std::__ndk1::basic_string_view<char, std::__ndk1::char_traits<char> >, std::__ndk1::basic_string_view<char, std::__ndk1::char_traits<char> >)::$_0, std::__ndk1::allocator<BIRSelectPopup::createSpecialToggle(std::__ndk1::basic_string_view<char, std::__ndk1::char_traits<char> >, std::__ndk1::basic_string_view<char, std::__ndk1::char_traits<char> >, std::__ndk1::basic_string_view<char, std::__ndk1::char_traits<char> >)::$_0>, void (CCMenuItemToggler*)>::destroy_deallocate()
PUBLIC 25094 0 std::__ndk1::__function::__func<BIRSelectPopup::createSpecialToggle(std::__ndk1::basic_string_view<char, std::__ndk1::char_traits<char> >, std::__ndk1::basic_string_view<char, std::__ndk1::char_traits<char> >, std::__ndk1::basic_string_view<char, std::__ndk1::char_traits<char> >)::$_0, std::__ndk1::allocator<BIRSelectPopup::createSpecialToggle(std::__ndk1::basic_string_view<char, std::__ndk1::char_traits<char> >, std::__ndk1::basic_string_view<char, std::__ndk1::char_traits<char> >, std::__ndk1::basic_string_view<char, std::__ndk1::char_traits<char> >)::$_0>, void (CCMenuItemToggler*)>::operator()(CCMenuItemToggler*&&)
PUBLIC 250a8 0 std::__ndk1::__function::__func<BIRSelectPopup::createSpecialToggle(std::__ndk1::basic_string_view<char, std::__ndk1::char_traits<char> >, std::__ndk1::basic_string_view<char, std::__ndk1::char_traits<char> >, std::__ndk1::basic_string_view<char, std::__ndk1::char_traits<char> >)::$_0, std::__ndk1::allocator<BIRSelectPopup::createSpecialToggle(std::__ndk1::basic_string_view<char, std::__ndk1::char_traits<char> >, std::__ndk1::basic_string_view<char, std::__ndk1::char_traits<char> >, std::__ndk1::basic_string_view<char, std::__ndk1::char_traits<char> >)::$_0>, void (CCMenuItemToggler*)>::target(std::type_info const&) const
PUBLIC 250c4 0 std::__ndk1::__function::__func<BIRSelectPopup::createSpecialToggle(std::__ndk1::basic_string_view<char, std::__ndk1::char_traits<char> >, std::__ndk1::basic_string_view<char, std::__ndk1::char_traits<char> >, std::__ndk1::basic_string_view<char, std::__ndk1::char_traits<char> >)::$_0, std::__ndk1::allocator<BIRSelectPopup::createSpecialToggle(std::__ndk1::basic_string_view<char, std::__ndk1::char_traits<char> >, std::__ndk1::basic_string_view<char, std::__ndk1::char_traits<char> >, std::__ndk1::basic_string_view<char, std::__ndk1::char_traits<char> >)::$_0>, void (CCMenuItemToggler*)>::target_type() const
PUBLIC 250d0 0 std::__ndk1::__function::__base<void (CCMenuItemToggler*)>::~__base()
PUBLIC 250d4 0 std::__ndk1::__function::__func<BIRSelectPopup::createColorToggle(std::__ndk1::basic_string_view<char, std::__ndk1::char_traits<char> >, cocos2d::_ccColor3B const&, std::__ndk1::basic_string_view<char, std::__ndk1::char_traits<char> >)::$_0, std::__ndk1::allocator<BIRSelectPopup::createColorToggle(std::__ndk1::basic_string_view<char, std::__ndk1::char_traits<char> >, cocos2d::_ccColor3B const&, std::__ndk1::basic_string_view<char, std::__ndk1::char_traits<char> >)::$_0>, void (CCMenuItemToggler*)>::~__func()
PUBLIC 250d8 0 std::__ndk1::__function::__func<BIRSelectPopup::createColorToggle(std::__ndk1::basic_string_view<char, std::__ndk1::char_traits<char> >, cocos2d::_ccColor3B const&, std::__ndk1::basic_string_view<char, std::__ndk1::char_traits<char> >)::$_0, std::__ndk1::allocator<BIRSelectPopup::createColorToggle(std::__ndk1::basic_string_view<char, std::__ndk1::char_traits<char> >, cocos2d::_ccColor3B const&, std::__ndk1::basic_string_view<char, std::__ndk1::char_traits<char> >)::$_0>, void (CCMenuItemToggler*)>::__clone() const
PUBLIC 2510c 0 std::__ndk1::__function::__func<BIRSelectPopup::createColorToggle(std::__ndk1::basic_string_view<char, std::__ndk1::char_traits<char> >, cocos2d::_ccColor3B const&, std::__ndk1::basic_string_view<char, std::__ndk1::char_traits<char> >)::$_0, std::__ndk1::allocator<BIRSelectPopup::createColorToggle(std::__ndk1::basic_string_view<char, std::__ndk1::char_traits<char> >, cocos2d::_ccColor3B const&, std::__ndk1::basic_string_view<char, std::__ndk1::char_traits<char> >)::$_0>, void (CCMenuItemToggler*)>::__clone(std::__ndk1::__function::__base<void (CCMenuItemToggler*)>*) const
PUBLIC 25120 0 std::__ndk1::__function::__func<BIRSelectPopup::createColorToggle(std::__ndk1::basic_string_view<char, std::__ndk1::char_traits<char> >, cocos2d::_ccColor3B const&, std::__ndk1::basic_string_view<char, std::__ndk1::char_traits<char> >)::$_0, std::__ndk1::allocator<BIRSelectPopup::createColorToggle(std::__ndk1::basic_string_view<char, std::__ndk1::char_traits<char> >, cocos2d::_ccColor3B const&, std::__ndk1::basic_string_view<char, std::__ndk1::char_traits<char> >)::$_0>, void (CCMenuItemToggler*)>::destroy()
PUBLIC 25124 0 std::__ndk1::__function::__func<BIRSelectPopup::createColorToggle(std::__ndk1::basic_string_view<char, std::__ndk1::char_traits<char> >, cocos2d::_ccColor3B const&, std::__ndk1::basic_string_view<char, std::__ndk1::char_traits<char> >)::$_0, std::__ndk1::allocator<BIRSelectPopup::createColorToggle(std::__ndk1::basic_string_view<char, std::__ndk1::char_traits<char> >, cocos2d::_ccColor3B const&, std::__ndk1::basic_string_view<char, std::__ndk1::char_traits<char> >)::$_0>, void (CCMenuItemToggler*)>::destroy_deallocate()
PUBLIC 25128 0 std::__ndk1::__function::__func<BIRSelectPopup::createColorToggle(std::__ndk1::basic_string_view<char, std::__ndk1::char_traits<char> >, cocos2d::_ccColor3B const&, std::__ndk1::basic_string_view<char, std::__ndk1::char_traits<char> >)::$_0, std::__ndk1::allocator<BIRSelectPopup::createColorToggle(std::__ndk1::basic_string_view<char, std::__ndk1::char_traits<char> >, cocos2d::_ccColor3B const&, std::__ndk1::basic_string_view<char, std::__ndk1::char_traits<char> >)::$_0>, void (CCMenuItemToggler*)>::operator()(CCMenuItemToggler*&&)
PUBLIC 2513c 0 std::__ndk1::__function::__func<BIRSelectPopup::createColorToggle(std::__ndk1::basic_string_view<char, std::__ndk1::char_traits<char> >, cocos2d::_ccColor3B const&, std::__ndk1::basic_string_view<char, std::__ndk1::char_traits<char> >)::$_0, std::__ndk1::allocator<BIRSelectPopup::createColorToggle(std::__ndk1::basic_string_view<char, std::__ndk1::char_traits<char> >, cocos2d::_ccColor3B const&, std::__ndk1::basic_string_view<char, std::__ndk1::char_traits<char> >)::$_0>, void (CCMenuItemToggler*)>::target(std::type_info const&) const
PUBLIC 25158 0 std::__ndk1::__function::__func<BIRSelectPopup::createColorToggle(std::__ndk1::basic_string_view<char, std::__ndk1::char_traits<char> >, cocos2d::_ccColor3B const&, std::__ndk1::basic_string_view<char, std::__ndk1::char_traits<char> >)::$_0, std::__ndk1::allocator<BIRSelectPopup::createColorToggle(std::__ndk1::basic_string_view<char, std::__ndk1::char_traits<char> >, cocos2d::_ccColor3B const&, std::__ndk1::basic_string_view<char, std::__ndk1::char_traits<char> >)::$_0>, void (CCMenuItemToggler*)>::target_type() const
PUBLIC 25164 0 std::__ndk1::__tree<std::__ndk1::__value_type<IconType, bool>, std::__ndk1::__map_value_compare<IconType, std::__ndk1::__value_type<IconType, bool>, std::__ndk1::less<IconType>, true>, std::__ndk1::allocator<std::__ndk1::__value_type<IconType, bool> > >::destroy(std::__ndk1::__tree_node<std::__ndk1::__value_type<IconType, bool>, void*>*)
PUBLIC 251a0 0 gd::map<IconType, int>::insert_pair(std::__ndk1::pair<IconType, int> const&)
PUBLIC 25340 0 geode::stl::_rb_insert_rebalance(bool, geode::stl::_rb_tree_base*, geode::stl::_rb_tree_base*, geode::stl::_rb_tree_base&)
PUBLIC 255f8 0 std::__ndk1::__tree_balance_after_insert[abi:ne180000]<std::__ndk1::__tree_node_base<void*>*>(std::__ndk1::__tree_node_base<void*>*, std::__ndk1::__tree_node_base<void*>*)
PUBLIC 257a8 0 matjson::Value::as<int>() const
PUBLIC 258b0 0 std::__ndk1::__variant_detail::__visitation::__base::__dispatcher<(unsigned long)0>::__dispatch[abi:ne180000]<std::__ndk1::__variant_detail::__dtor<std::__ndk1::__variant_detail::__traits<long, std::__ndk1::basic_string<char, std::__ndk1::char_traits<char>, std::__ndk1::allocator<char> > >, (std::__ndk1::__variant_detail::_Trait)1>::__destroy[abi:ne180000]()::{lambda(auto:1&)#1}, std::__ndk1::__variant_detail::__base<(std::__ndk1::__variant_detail::__traits<long, std::__ndk1::basic_string<char, std::__ndk1::char_traits<char>, std::__ndk1::allocator<char> > >)1, long, std::__ndk1::allocator<char> >&>(std::__ndk1::__variant_detail::__dtor<std::__ndk1::__variant_detail::__traits<long, std::__ndk1::basic_string<char, std::__ndk1::char_traits<char>, std::__ndk1::allocator<char> > >, (std::__ndk1::__variant_detail::_Trait)1>, std::__ndk1::__variant_detail::__base<(std::__ndk1::__variant_detail::__traits<long, std::__ndk1::basic_string<char, std::__ndk1::char_traits<char>, std::__ndk1::allocator<char> > >)1, long, std::__ndk1::allocator<char> >&)
PUBLIC 258b4 0 std::__ndk1::__variant_detail::__visitation::__base::__dispatcher<(unsigned long)1>::__dispatch[abi:ne180000]<std::__ndk1::__variant_detail::__dtor<std::__ndk1::__variant_detail::__traits<long, std::__ndk1::basic_string<char, std::__ndk1::char_traits<char>, std::__ndk1::allocator<char> > >, (std::__ndk1::__variant_detail::_Trait)1>::__destroy[abi:ne180000]()::{lambda(auto:1&)#1}, std::__ndk1::__variant_detail::__base<(std::__ndk1::__variant_detail::__traits<long, std::__ndk1::basic_string<char, std::__ndk1::char_traits<char>, std::__ndk1::allocator<char> > >)1, long, std::__ndk1::allocator<char> >&>(std::__ndk1::__variant_detail::__dtor<std::__ndk1::__variant_detail::__traits<long, std::__ndk1::basic_string<char, std::__ndk1::char_traits<char>, std::__ndk1::allocator<char> > >, (std::__ndk1::__variant_detail::_Trait)1>, std::__ndk1::__variant_detail::__base<(std::__ndk1::__variant_detail::__traits<long, std::__ndk1::basic_string<char, std::__ndk1::char_traits<char>, std::__ndk1::allocator<char> > >)1, long, std::__ndk1::allocator<char> >&)
PUBLIC 258c8 0 std::__ndk1::__variant_detail::__visitation::__base::__dispatcher<(unsigned long)0>::__dispatch[abi:ne180000]<std::__ndk1::__variant_detail::__dtor<std::__ndk1::__variant_detail::__traits<int, std::__ndk1::basic_string<char, std::__ndk1::char_traits<char>, std::__ndk1::allocator<char> > >, (std::__ndk1::__variant_detail::_Trait)1>::__destroy[abi:ne180000]()::{lambda(auto:1&)#1}, std::__ndk1::__variant_detail::__base<(std::__ndk1::__variant_detail::__traits<int, std::__ndk1::basic_string<char, std::__ndk1::char_traits<char>, std::__ndk1::allocator<char> > >)1, int, std::__ndk1::allocator<char> >&>(std::__ndk1::__variant_detail::__dtor<std::__ndk1::__variant_detail::__traits<int, std::__ndk1::basic_string<char, std::__ndk1::char_traits<char>, std::__ndk1::allocator<char> > >, (std::__ndk1::__variant_detail::_Trait)1>, std::__ndk1::__variant_detail::__base<(std::__ndk1::__variant_detail::__traits<int, std::__ndk1::basic_string<char, std::__ndk1::char_traits<char>, std::__ndk1::allocator<char> > >)1, int, std::__ndk1::allocator<char> >&)
PUBLIC 258cc 0 std::__ndk1::__variant_detail::__visitation::__base::__dispatcher<(unsigned long)1>::__dispatch[abi:ne180000]<std::__ndk1::__variant_detail::__dtor<std::__ndk1::__variant_detail::__traits<int, std::__ndk1::basic_string<char, std::__ndk1::char_traits<char>, std::__ndk1::allocator<char> > >, (std::__ndk1::__variant_detail::_Trait)1>::__destroy[abi:ne180000]()::{lambda(auto:1&)#1}, std::__ndk1::__variant_detail::__base<(std::__ndk1::__variant_detail::__traits<int, std::__ndk1::basic_string<char, std::__ndk1::char_traits<char>, std::__ndk1::allocator<char> > >)1, int, std::__ndk1::allocator<char> >&>(std::__ndk1::__variant_detail::__dtor<std::__ndk1::__variant_detail::__traits<int, std::__ndk1::basic_string<char, std::__ndk1::char_traits<char>, std::__ndk1::allocator<char> > >, (std::__ndk1::__variant_detail::_Trait)1>, std::__ndk1::__variant_detail::__base<(std::__ndk1::__variant_detail::__traits<int, std::__ndk1::basic_string<char, std::__ndk1::char_traits<char>, std::__ndk1::allocator<char> > >)1, int, std::__ndk1::allocator<char> >&)
PUBLIC 258e0 0 geode::Mod::getSavedValue<int>(std::__ndk1::basic_string_view<char, std::__ndk1::char_traits<char> >)
PUBLIC 25a50 0 geode::Popup<GJGarageLayer*>::CloseEvent::~CloseEvent()
PUBLIC 25ab0 0 geode::Popup<GJGarageLayer*>::CloseEvent::~CloseEvent()
PUBLIC 25b20 0 std::__ndk1::__shared_ptr_emplace<geode::Popup<GJGarageLayer*>::CloseEvent::Impl, std::__ndk1::allocator<geode::Popup<GJGarageLayer*>::CloseEvent::Impl> >::~__shared_ptr_emplace()
PUBLIC 25b30 0 std::__ndk1::__shared_ptr_emplace<geode::Popup<GJGarageLayer*>::CloseEvent::Impl, std::__ndk1::allocator<geode::Popup<GJGarageLayer*>::CloseEvent::Impl> >::~__shared_ptr_emplace()
PUBLIC 25b60 0 std::__ndk1::__shared_ptr_emplace<geode::Popup<GJGarageLayer*>::CloseEvent::Impl, std::__ndk1::allocator<geode::Popup<GJGarageLayer*>::CloseEvent::Impl> >::__on_zero_shared()
PUBLIC 25b64 0 std::__ndk1::__shared_ptr_emplace<geode::Popup<GJGarageLayer*>::CloseEvent::Impl, std::__ndk1::allocator<geode::Popup<GJGarageLayer*>::CloseEvent::Impl> >::__on_zero_shared_weak()
PUBLIC 25b70 0 __aarch64_ldadd8_relax
PUBLIC 25ba0 0 __cxx_global_var_init
PUBLIC 26774 0 geode::modifier::ModifyBase<geode::modifier::ModifyDerive<BIRGarageLayer, GJGarageLayer> >::~ModifyBase()
PUBLIC 2678c 0 geode::modifier::ModifyDerive<BIRGarageLayer, GJGarageLayer>::apply()
PUBLIC 26ba8 0 std::__ndk1::shared_ptr<geode::Hook>::~shared_ptr[abi:ne180000]()
PUBLIC 26bf8 0 geode::impl::ResultData<geode::Hook*, std::__ndk1::basic_string<char, std::__ndk1::char_traits<char>, std::__ndk1::allocator<char> > >::~ResultData()
PUBLIC 26c6c 0 geode::modifier::ModifyBase<geode::modifier::ModifyDerive<BIRGarageLayer, GJGarageLayer> >::apply()
PUBLIC 26c70 0 _ZN5geode15UnwrapExceptionC2IRPNS_4HookEQsr4implE18IsStringStreamableIT_EEENS_4impl5OkTagEOS5_
PUBLIC 26dc4 0 std::__ndk1::basic_stringstream<char, std::__ndk1::char_traits<char>, std::__ndk1::allocator<char> >::basic_stringstream[abi:ne180000]()
PUBLIC m 26ef0 0 std::__ndk1::basic_stringstream<char, std::__ndk1::char_traits<char>, std::__ndk1::allocator<char> >::~basic_stringstream()
PUBLIC 26f70 0 geode::UnwrapException::~UnwrapException()
PUBLIC 26f94 0 std::__ndk1::__put_character_sequence[abi:ne180000]<char, std::__ndk1::char_traits<char> >(std::__ndk1::basic_ostream<char, std::__ndk1::char_traits<char> >, std::__ndk1::basic_ostream const*, unsigned long)
PUBLIC 27138 0 std::__ndk1::__pad_and_output[abi:ne180000]<char, std::__ndk1::char_traits<char> >(std::__ndk1::char_traits<char>, std::__ndk1::ostreambuf_iterator const*, std::__ndk1::ostreambuf_iterator const, std::__ndk1::ostreambuf_iterator const, std::__ndk1::ios_base&, std::__ndk1::ostreambuf_iterator)
PUBLIC 27314 0 std::__ndk1::basic_stringbuf<char, std::__ndk1::char_traits<char>, std::__ndk1::allocator<char> >::str[abi:ne180000]() &&
PUBLIC 2748c 0 std::__ndk1::basic_stringbuf<char, std::__ndk1::char_traits<char>, std::__ndk1::allocator<char> >::__init_buf_ptrs[abi:ne180000]()
PUBLIC 275d4 0 std::__ndk1::__split_buffer<std::__ndk1::basic_string<char, std::__ndk1::char_traits<char>, std::__ndk1::allocator<char> >, std::__ndk1::allocator<std::__ndk1::basic_string<char, std::__ndk1::char_traits<char>, std::__ndk1::allocator<char> > >&>::~__split_buffer()
PUBLIC 2763c 0 std::__ndk1::vector<std::__ndk1::basic_string<char, std::__ndk1::char_traits<char>, std::__ndk1::allocator<char> >, std::__ndk1::allocator<std::__ndk1::basic_string<char, std::__ndk1::char_traits<char>, std::__ndk1::allocator<char> > > >::__throw_length_error[abi:ne180000]() const
PUBLIC 27650 0 std::__ndk1::__variant_detail::__visitation::__base::__dispatcher<(unsigned long)0>::__dispatch[abi:ne180000]<std::__ndk1::__variant_detail::__dtor<std::__ndk1::__variant_detail::__traits<geode::Hook*, std::__ndk1::basic_string<char, std::__ndk1::char_traits<char>, std::__ndk1::allocator<char> > >, (std::__ndk1::__variant_detail::_Trait)1>::__destroy[abi:ne180000]()::{lambda(auto:1&)#1}, std::__ndk1::__variant_detail::__base<(std::__ndk1::__variant_detail::__traits<geode::Hook*, std::__ndk1::basic_string<char, std::__ndk1::char_traits<char>, std::__ndk1::allocator<char> > >)1, geode::Hook, std::__ndk1::allocator<char> >&>(std::__ndk1::__variant_detail::__dtor<std::__ndk1::__variant_detail::__traits<geode::Hook*, std::__ndk1::basic_string<char, std::__ndk1::char_traits<char>, std::__ndk1::allocator<char> > >, (std::__ndk1::__variant_detail::_Trait)1>, std::__ndk1::__variant_detail::__base<(std::__ndk1::__variant_detail::__traits<geode::Hook*, std::__ndk1::basic_string<char, std::__ndk1::char_traits<char>, std::__ndk1::allocator<char> > >)1, geode::Hook, std::__ndk1::allocator<char> >&)
PUBLIC 27654 0 std::__ndk1::__variant_detail::__visitation::__base::__dispatcher<(unsigned long)1>::__dispatch[abi:ne180000]<std::__ndk1::__variant_detail::__dtor<std::__ndk1::__variant_detail::__traits<geode::Hook*, std::__ndk1::basic_string<char, std::__ndk1::char_traits<char>, std::__ndk1::allocator<char> > >, (std::__ndk1::__variant_detail::_Trait)1>::__destroy[abi:ne180000]()::{lambda(auto:1&)#1}, std::__ndk1::__variant_detail::__base<(std::__ndk1::__variant_detail::__traits<geode::Hook*, std::__ndk1::basic_string<char, std::__ndk1::char_traits<char>, std::__ndk1::allocator<char> > >)1, geode::Hook, std::__ndk1::allocator<char> >&>(std::__ndk1::__variant_detail::__dtor<std::__ndk1::__variant_detail::__traits<geode::Hook*, std::__ndk1::basic_string<char, std::__ndk1::char_traits<char>, std::__ndk1::allocator<char> > >, (std::__ndk1::__variant_detail::_Trait)1>, std::__ndk1::__variant_detail::__base<(std::__ndk1::__variant_detail::__traits<geode::Hook*, std::__ndk1::basic_string<char, std::__ndk1::char_traits<char>, std::__ndk1::allocator<char> > >)1, geode::Hook, std::__ndk1::allocator<char> >&)
PUBLIC 27668 0 std::__ndk1::__tree<std::__ndk1::__value_type<std::__ndk1::basic_string<char, std::__ndk1::char_traits<char>, std::__ndk1::allocator<char> >, std::__ndk1::shared_ptr<geode::Hook> >, std::__ndk1::__map_value_compare<std::__ndk1::basic_string<char, std::__ndk1::char_traits<char>, std::__ndk1::allocator<char> >, std::__ndk1::__value_type<std::__ndk1::basic_string<char, std::__ndk1::char_traits<char>, std::__ndk1::allocator<char> >, std::__ndk1::shared_ptr<geode::Hook> >, std::__ndk1::less<std::__ndk1::basic_string<char, std::__ndk1::char_traits<char>, std::__ndk1::allocator<char> > >, true>, std::__ndk1::allocator<std::__ndk1::__value_type<std::__ndk1::basic_string<char, std::__ndk1::char_traits<char>, std::__ndk1::allocator<char> >, std::__ndk1::shared_ptr<geode::Hook> > > >::destroy(std::__ndk1::__tree_node<std::__ndk1::__value_type<std::__ndk1::basic_string<char, std::__ndk1::char_traits<char>, std::__ndk1::allocator<char> >, std::__ndk1::shared_ptr<geode::Hook> >, void*>*)
PUBLIC 276ec 0 geode::modifier::AsStaticFunction_init<BIRGarageLayer, bool (BIRGarageLayer::*)()>::Impl<bool (BIRGarageLayer::*)()>::function(BIRGarageLayer*)
PUBLIC 2820c 0 geode::addresser::Addresser::addressOfVirtual<bool, GJGarageLayer, >(bool (GJGarageLayer::*)())
PUBLIC 282b4 0 GJGarageLayer::GJGarageLayer(geode::ZeroConstructorType)
PUBLIC 28368 0 std::__ndk1::shared_ptr<tulip::hook::CallingConvention>::~shared_ptr[abi:ne180000]()
PUBLIC 283b8 0 tulip::hook::HandlerMetadata::~HandlerMetadata()
PUBLIC 2841c 0 BIRGarageLayer::onSelectRandomize(cocos2d::CCObject*)
PUBLIC 28438 0 std::__ndk1::shared_ptr<geode::IntSettingV3>::~shared_ptr[abi:ne180000]()
PUBLIC 28488 0 geode::cast::traverseTypeinfoFor(void*, geode::cast::ClassTypeinfoType const*, char const*)
PUBLIC 28580 0 std::__ndk1::basic_string<char, std::__ndk1::char_traits<char>, std::__ndk1::allocator<char> >::__assign_external(char const*, unsigned long)
PUBLIC 286a8 0 std::__ndk1::shared_ptr<geode::StringSettingV3>::~shared_ptr[abi:ne180000]()
PUBLIC 286f8 0 geode::impl::ResultData<void, std::__ndk1::basic_string<char, std::__ndk1::char_traits<char>, std::__ndk1::allocator<char> > >::~ResultData()
PUBLIC 2876c 0 std::__ndk1::__variant_detail::__visitation::__base::__dispatcher<(unsigned long)0>::__dispatch[abi:ne180000]<std::__ndk1::__variant_detail::__dtor<std::__ndk1::__variant_detail::__traits<std::__ndk1::monostate, std::__ndk1::basic_string<char, std::__ndk1::char_traits<char>, std::__ndk1::allocator<char> > >, (std::__ndk1::__variant_detail::_Trait)1>::__destroy[abi:ne180000]()::{lambda(auto:1&)#1}, std::__ndk1::__variant_detail::__base<(std::__ndk1::__variant_detail::__traits<std::__ndk1::monostate, std::__ndk1::basic_string<char, std::__ndk1::char_traits<char>, std::__ndk1::allocator<char> > >)1, std::__ndk1::__variant_detail::__traits, std::__ndk1::allocator<char> >&>(std::__ndk1::__variant_detail::__dtor<std::__ndk1::__variant_detail::__traits<std::__ndk1::monostate, std::__ndk1::basic_string<char, std::__ndk1::char_traits<char>, std::__ndk1::allocator<char> > >, (std::__ndk1::__variant_detail::_Trait)1>, std::__ndk1::__variant_detail::__base<(std::__ndk1::__variant_detail::__traits<std::__ndk1::monostate, std::__ndk1::basic_string<char, std::__ndk1::char_traits<char>, std::__ndk1::allocator<char> > >)1, std::__ndk1::__variant_detail::__traits, std::__ndk1::allocator<char> >&)
PUBLIC 28770 0 std::__ndk1::__variant_detail::__visitation::__base::__dispatcher<(unsigned long)1>::__dispatch[abi:ne180000]<std::__ndk1::__variant_detail::__dtor<std::__ndk1::__variant_detail::__traits<std::__ndk1::monostate, std::__ndk1::basic_string<char, std::__ndk1::char_traits<char>, std::__ndk1::allocator<char> > >, (std::__ndk1::__variant_detail::_Trait)1>::__destroy[abi:ne180000]()::{lambda(auto:1&)#1}, std::__ndk1::__variant_detail::__base<(std::__ndk1::__variant_detail::__traits<std::__ndk1::monostate, std::__ndk1::basic_string<char, std::__ndk1::char_traits<char>, std::__ndk1::allocator<char> > >)1, std::__ndk1::__variant_detail::__traits, std::__ndk1::allocator<char> >&>(std::__ndk1::__variant_detail::__dtor<std::__ndk1::__variant_detail::__traits<std::__ndk1::monostate, std::__ndk1::basic_string<char, std::__ndk1::char_traits<char>, std::__ndk1::allocator<char> > >, (std::__ndk1::__variant_detail::_Trait)1>, std::__ndk1::__variant_detail::__base<(std::__ndk1::__variant_detail::__traits<std::__ndk1::monostate, std::__ndk1::basic_string<char, std::__ndk1::char_traits<char>, std::__ndk1::allocator<char> > >)1, std::__ndk1::__variant_detail::__traits, std::__ndk1::allocator<char> >&)
PUBLIC m 28784 0 geodeImplicitEntry
PUBLIC 287c0 0 std::__ndk1::unordered_map<void*, bool, std::__ndk1::hash<void*>, std::__ndk1::equal_to<void*>, std::__ndk1::allocator<std::__ndk1::pair<void* const, bool> > >::~unordered_map[abi:ne180000]()
PUBLIC 2880c 0 wrapFunction(unsigned long, tulip::hook::WrapperMetadata const&)
PUBLIC 28940 0 geode::impl::ResultData<void*, std::__ndk1::basic_string<char, std::__ndk1::char_traits<char>, std::__ndk1::allocator<char> > >::unwrapErr() &
PUBLIC 289b8 0 geode::impl::ResultData<void*, std::__ndk1::basic_string<char, std::__ndk1::char_traits<char>, std::__ndk1::allocator<char> > >::~ResultData()
PUBLIC 28a2c 0 tulip::hook::WrapperMetadata::~WrapperMetadata()
PUBLIC 28a90 0 cocos2d::CCObject::CCObject()
PUBLIC 28cb4 0 cocos2d::CCObject::~CCObject()
PUBLIC 28cd8 0 cocos2d::CCNode::~CCNode()
PUBLIC 28cfc 0 {virtual override thunk({offset(-320)}, cocos2d::CCLayer::~CCLayer())}
PUBLIC 28d04 0 cocos2d::CCLayer::~CCLayer()
PUBLIC 28d28 0 {virtual override thunk({offset(-320)}, cocos2d::CCLayer::~CCLayer())}
PUBLIC 28d50 0 cocos2d::CCLayerRGBA::~CCLayerRGBA()
PUBLIC 29050 0 {virtual override thunk({offset(-320)}, cocos2d::CCLayerRGBA::~CCLayerRGBA())}
PUBLIC 29058 0 cocos2d::CCLayerRGBA::~CCLayerRGBA()
PUBLIC 2907c 0 {virtual override thunk({offset(-320)}, cocos2d::CCLayerRGBA::~CCLayerRGBA())}
PUBLIC 290a4 0 cocos2d::CCLayerColor::CCLayerColor()
PUBLIC 29308 0 {virtual override thunk({offset(-320)}, cocos2d::CCLayerColor::~CCLayerColor())}
PUBLIC 29310 0 cocos2d::CCLayerColor::~CCLayerColor()
PUBLIC 29334 0 {virtual override thunk({offset(-320)}, cocos2d::CCLayerColor::~CCLayerColor())}
PUBLIC 2935c 0 {virtual override thunk({offset(-320)}, FLAlertLayer::~FLAlertLayer())}
PUBLIC 29364 0 FLAlertLayer::~FLAlertLayer()
PUBLIC 29388 0 {virtual override thunk({offset(-320)}, FLAlertLayer::~FLAlertLayer())}
PUBLIC 293b0 0 cocos2d::CCLayerColor::~CCLayerColor()
PUBLIC 29694 0 FLAlertLayer::~FLAlertLayer()
PUBLIC 29978 0 cocos2d::CCNode::~CCNode()
PUBLIC 29c18 0 cocos2d::CCLayer::~CCLayer()
PUBLIC 29f08 0 cocos2d::CCObject::~CCObject()
PUBLIC 2a3fc 0 _ZN5geode15UnwrapExceptionC2IRPvQsr4implE18IsStringStreamableIT_EEENS_4impl5OkTagEOS4_
PUBLIC 2a550 0 _ZN5geode15UnwrapExceptionC2IRNSt6__ndk112basic_stringIcNS2_11char_traitsIcEENS2_9allocatorIcEEEEQsr4implE18IsStringStreamableIT_EEENS_4impl6ErrTagEOSA_
PUBLIC 2a6b8 0 std::__ndk1::__variant_detail::__visitation::__base::__dispatcher<(unsigned long)0>::__dispatch[abi:ne180000]<std::__ndk1::__variant_detail::__dtor<std::__ndk1::__variant_detail::__traits<void*, std::__ndk1::basic_string<char, std::__ndk1::char_traits<char>, std::__ndk1::allocator<char> > >, (std::__ndk1::__variant_detail::_Trait)1>::__destroy[abi:ne180000]()::{lambda(auto:1&)#1}, std::__ndk1::__variant_detail::__base<(std::__ndk1::__variant_detail::__traits<void*, std::__ndk1::basic_string<char, std::__ndk1::char_traits<char>, std::__ndk1::allocator<char> > >)1, std::__ndk1::__variant_detail::__traits, std::__ndk1::allocator<char> >&>(std::__ndk1::__variant_detail::__dtor<std::__ndk1::__variant_detail::__traits<void*, std::__ndk1::basic_string<char, std::__ndk1::char_traits<char>, std::__ndk1::allocator<char> > >, (std::__ndk1::__variant_detail::_Trait)1>, std::__ndk1::__variant_detail::__base<(std::__ndk1::__variant_detail::__traits<void*, std::__ndk1::basic_string<char, std::__ndk1::char_traits<char>, std::__ndk1::allocator<char> > >)1, std::__ndk1::__variant_detail::__traits, std::__ndk1::allocator<char> >&)
PUBLIC 2a6bc 0 std::__ndk1::__variant_detail::__visitation::__base::__dispatcher<(unsigned long)1>::__dispatch[abi:ne180000]<std::__ndk1::__variant_detail::__dtor<std::__ndk1::__variant_detail::__traits<void*, std::__ndk1::basic_string<char, std::__ndk1::char_traits<char>, std::__ndk1::allocator<char> > >, (std::__ndk1::__variant_detail::_Trait)1>::__destroy[abi:ne180000]()::{lambda(auto:1&)#1}, std::__ndk1::__variant_detail::__base<(std::__ndk1::__variant_detail::__traits<void*, std::__ndk1::basic_string<char, std::__ndk1::char_traits<char>, std::__ndk1::allocator<char> > >)1, std::__ndk1::__variant_detail::__traits, std::__ndk1::allocator<char> >&>(std::__ndk1::__variant_detail::__dtor<std::__ndk1::__variant_detail::__traits<void*, std::__ndk1::basic_string<char, std::__ndk1::char_traits<char>, std::__ndk1::allocator<char> > >, (std::__ndk1::__variant_detail::_Trait)1>, std::__ndk1::__variant_detail::__base<(std::__ndk1::__variant_detail::__traits<void*, std::__ndk1::basic_string<char, std::__ndk1::char_traits<char>, std::__ndk1::allocator<char> > >)1, std::__ndk1::__variant_detail::__traits, std::__ndk1::allocator<char> >&)
PUBLIC 2a6d0 0 std::__ndk1::__hash_table<std::__ndk1::__hash_value_type<void*, bool>, std::__ndk1::__unordered_map_hasher<void*, std::__ndk1::__hash_value_type<void*, bool>, std::__ndk1::hash<void*>, std::__ndk1::equal_to<void*>, true>, std::__ndk1::__unordered_map_equal<void*, std::__ndk1::__hash_value_type<void*, bool>, std::__ndk1::equal_to<void*>, std::__ndk1::hash<void*>, true>, std::__ndk1::allocator<std::__ndk1::__hash_value_type<void*, bool> > >::__emplace_unique_key_args<void*, std::__ndk1::piecewise_construct_t const&, std::__ndk1::tuple<void* const&>, std::__ndk1::tuple<> >(void* const&, std::__ndk1::piecewise_construct_t const&, std::__ndk1::tuple<void* const&>, std::__ndk1::tuple<>)
PUBLIC 2abdc 0 __udivti3
PUBLIC 2abe8 0 __udivmodti4
PUBLIC m 2ae34 0 __eqtf2
PUBLIC 2aed4 0 __unordtf2
PUBLIC 2af0c 0 fmt::v11::detail::write_loc(fmt::v11::basic_appender<char>, fmt::v11::loc_value, fmt::v11::format_specs const&, fmt::v11::detail::locale_ref)
PUBLIC 2b1a0 0 fmt::v11::format_facet<std::__ndk1::locale>::~format_facet()
PUBLIC 2b21c 0 fmt::v11::report_error(char const*)
PUBLIC 2b26c 0 fmt::v11::format_error::runtime_error(char const*)
PUBLIC 2b298 0 fmt::v11::format_facet<std::__ndk1::locale>::do_put(fmt::v11::basic_appender<char>, fmt::v11::loc_value, fmt::v11::format_specs const&) const
PUBLIC 2ba58 0 fmt::v11::detail::loc_writer<char>::~loc_writer()
PUBLIC 2babc 0 fmt::v11::detail::vformat_to<char>(fmt::v11::detail::buffer<char>&, fmt::v11::basic_string_view<char>, fmt::v11::detail::vformat_args<char>::type, fmt::v11::detail::locale_ref)
PUBLIC 2c02c 0 fmt::v11::detail::is_printable(unsigned int)
PUBLIC 2c254 0 fmt::v11::detail::dragonbox::to_decimal<float>(float)
PUBLIC 2c530 0 fmt::v11::detail::dragonbox::to_decimal<double>(double)
PUBLIC 2ca6c 0 fmt::v11::basic_memory_buffer<char, (unsigned long)500, std::__ndk1::allocator<char> >::grow(fmt::v11::detail::buffer<char>&, unsigned long)
PUBLIC 2cae4 0 fmt::v11::format_facet<std::__ndk1::locale>::~format_facet()
PUBLIC 2cb70 0 fmt::v11::format_error::~format_error()
PUBLIC 2cb94 0 fmt::v11::detail::copy_noinline<char, char const*, fmt::v11::basic_appender<char> >(char const*, char const*, fmt::v11::basic_appender<char>)
PUBLIC 2cce4 0 fmt::v11::detail::default_arg_formatter<char>::operator()<bool>(bool)
PUBLIC 2cd4c 0 fmt::v11::detail::default_arg_formatter<char>::operator()<char>(char)
PUBLIC 2cddc 0 fmt::v11::detail::default_arg_formatter<char>::operator()<float>(float)
PUBLIC 2cec8 0 fmt::v11::detail::default_arg_formatter<char>::operator()<double>(double)
PUBLIC 2cfb4 0 fmt::v11::detail::default_arg_formatter<char>::operator()<char const*>(char const*)
PUBLIC 2cffc 0 fmt::v11::detail::default_arg_formatter<char>::operator()<void const*>(void const*)
PUBLIC 2d094 0 _ZN3fmt3v116detail5writeIcNS0_14basic_appenderIcEEiTnNSt6__ndk19enable_ifIXaaaasr11is_integralIT1_EE5valuentsr3std7is_sameIS7_bEE5valuentsr3std7is_sameIS7_T_EE5valueEiE4typeELi0EEET0_SB_S7_
PUBLIC 2d2f4 0 fmt::v11::detail::copy_noinline<char, char*, fmt::v11::basic_appender<char> >(char*, char*, fmt::v11::basic_appender<char>)
PUBLIC 2d444 0 _ZN3fmt3v116detail5writeIcNS0_14basic_appenderIcEEjTnNSt6__ndk19enable_ifIXaaaasr11is_integralIT1_EE5valuentsr3std7is_sameIS7_bEE5valuentsr3std7is_sameIS7_T_EE5valueEiE4typeELi0EEET0_SB_S7_
PUBLIC 2d624 0 _ZN3fmt3v116detail5writeIcNS0_14basic_appenderIcEExTnNSt6__ndk19enable_ifIXaaaasr11is_integralIT1_EE5valuentsr3std7is_sameIS7_bEE5valuentsr3std7is_sameIS7_T_EE5valueEiE4typeELi0EEET0_SB_S7_
PUBLIC 2d8a8 0 _ZN3fmt3v116detail5writeIcNS0_14basic_appenderIcEEyTnNSt6__ndk19enable_ifIXaaaasr11is_integralIT1_EE5valuentsr3std7is_sameIS7_bEE5valuentsr3std7is_sameIS7_T_EE5valueEiE4typeELi0EEET0_SB_S7_
PUBLIC 2dab0 0 _ZN3fmt3v116detail5writeIcNS0_14basic_appenderIcEEnTnNSt6__ndk19enable_ifIXaaaasr11is_integralIT1_EE5valuentsr3std7is_sameIS7_bEE5valuentsr3std7is_sameIS7_T_EE5valueEiE4typeELi0EEET0_SB_S7_
PUBLIC 2de10 0 _ZN3fmt3v116detail5writeIcNS0_14basic_appenderIcEEoTnNSt6__ndk19enable_ifIXaaaasr11is_integralIT1_EE5valuentsr3std7is_sameIS7_bEE5valuentsr3std7is_sameIS7_T_EE5valueEiE4typeELi0EEET0_SB_S7_
PUBLIC 2e124 0 _ZN3fmt3v116detail5writeIcNS0_14basic_appenderIcEEbTnNSt6__ndk19enable_ifIXsr3std7is_sameIT1_bEE5valueEiE4typeELi0EEET0_SA_S7_RKNS0_12format_specsENS1_10locale_refE
PUBLIC 2e3b4 0 fmt::v11::detail::write_int_noinline<char, fmt::v11::basic_appender<char>, unsigned int>(fmt::v11::basic_appender<char>, fmt::v11::detail::write_int_arg<unsigned int>, fmt::v11::format_specs const&, fmt::v11::detail::locale_ref)
PUBLIC 2f190 0 fmt::v11::detail::fill<char, fmt::v11::basic_appender<char> >(fmt::v11::basic_appender<char>, unsigned long, fmt::v11::detail::fill_t const&)
PUBLIC 2f360 0 fmt::v11::detail::write_padded<char, (fmt::v11::align::type)1, fmt::v11::basic_appender<char>, fmt::v11::detail::write_char<char, fmt::v11::basic_appender<char> >(fmt::v11::basic_appender<char>, char, fmt::v11::format_specs const&)::{lambda(fmt::v11::basic_appender<char>&)#1}>(fmt::v11::basic_appender<char>, fmt::v11::format_specs const&, unsigned long, unsigned long, fmt::v11::detail::write_char<char, fmt::v11::basic_appender<char> >(fmt::v11::basic_appender<char>, char, fmt::v11::format_specs const&)::{lambda(fmt::v11::basic_appender<char>&)#1})
PUBLIC 2f59c 0 fmt::v11::detail::write_escaped_cp<fmt::v11::basic_appender<char>, char>(fmt::v11::basic_appender<char>, fmt::v11::detail::find_escape_result<char> const&)
PUBLIC 2f8a8 0 fmt::v11::detail::write_codepoint<(unsigned long)2, char, fmt::v11::basic_appender<char> >(fmt::v11::basic_appender<char>, char, unsigned int)
PUBLIC 2fa20 0 fmt::v11::detail::write_codepoint<(unsigned long)8, char, fmt::v11::basic_appender<char> >(fmt::v11::basic_appender<char>, char, unsigned int)
PUBLIC 2fb98 0 fmt::v11::detail::write_padded<char, (fmt::v11::align::type)1, fmt::v11::basic_appender<char>, fmt::v11::detail::write_nonfinite<char, fmt::v11::basic_appender<char> >(fmt::v11::basic_appender<char>, bool, fmt::v11::format_specs, fmt::v11::sign::type)::{lambda(fmt::v11::basic_appender<char>&)#1}>(fmt::v11::basic_appender<char>, fmt::v11::format_specs const&, unsigned long, unsigned long, fmt::v11::detail::write_nonfinite<char, fmt::v11::basic_appender<char> >(fmt::v11::basic_appender<char>, bool, fmt::v11::format_specs, fmt::v11::sign::type)::{lambda(fmt::v11::basic_appender<char>&)#1})
PUBLIC 2fdd8 0 fmt::v11::detail::do_write_float<char, fmt::v11::basic_appender<char>, fmt::v11::detail::dragonbox::decimal_fp<float>, fmt::v11::detail::digit_grouping<char> >(fmt::v11::basic_appender<char>, fmt::v11::detail::dragonbox::decimal_fp<float> const&, fmt::v11::format_specs const&, fmt::v11::detail::float_specs, fmt::v11::detail::locale_ref)
PUBLIC 30a4c 0 fmt::v11::detail::do_write_float<char, fmt::v11::basic_appender<char>, fmt::v11::detail::dragonbox::decimal_fp<float>, fmt::v11::detail::digit_grouping<char> >(fmt::v11::basic_appender<char>, fmt::v11::detail::dragonbox::decimal_fp<float> const&, fmt::v11::format_specs const&, fmt::v11::detail::float_specs, fmt::v11::detail::locale_ref)::{lambda(fmt::v11::basic_appender<char>(fmt::v11::basic_appender<char>))#1}::operator() const
PUBLIC 30ba0 0 fmt::v11::detail::digit_grouping<char>::digit_grouping(fmt::v11::detail::locale_ref, bool)
PUBLIC 30e0c 0 fmt::v11::detail::digit_grouping<char>::~digit_grouping()
PUBLIC 30e50 0 fmt::v11::detail::write_exponent<char, fmt::v11::basic_appender<char> >(int, fmt::v11::basic_appender<char>)
PUBLIC 31020 0 _ZN3fmt3v116detail17write_significandIcjTnNSt6__ndk19enable_ifIXsr3std11is_integralIT0_EE5valueEiE4typeELi0EEEPT_S9_S5_iiS8_
PUBLIC 3119c 0 std::__ndk1::basic_string<char, std::__ndk1::char_traits<char>, std::__ndk1::allocator<char> >::__assign_no_alias<true>(char const*, unsigned long)
PUBLIC 31248 0 std::__ndk1::basic_string<char, std::__ndk1::char_traits<char>, std::__ndk1::allocator<char> >::__assign_no_alias<false>(char const*, unsigned long)
PUBLIC 31358 0 fmt::v11::detail::digit_grouping<char>::apply<fmt::v11::basic_appender<char>, char>(fmt::v11::basic_appender<char>, fmt::v11::basic_string_view<char>) const
PUBLIC 31710 0 fmt::v11::basic_memory_buffer<int, (unsigned long)500, std::__ndk1::allocator<int> >::grow(fmt::v11::detail::buffer<int>&, unsigned long)
PUBLIC 317b0 0 fmt::v11::detail::do_write_float<char, fmt::v11::basic_appender<char>, fmt::v11::detail::dragonbox::decimal_fp<double>, fmt::v11::detail::digit_grouping<char> >(fmt::v11::basic_appender<char>, fmt::v11::detail::dragonbox::decimal_fp<double> const&, fmt::v11::format_specs const&, fmt::v11::detail::float_specs, fmt::v11::detail::locale_ref)
PUBLIC 32464 0 fmt::v11::detail::do_write_float<char, fmt::v11::basic_appender<char>, fmt::v11::detail::dragonbox::decimal_fp<double>, fmt::v11::detail::digit_grouping<char> >(fmt::v11::basic_appender<char>, fmt::v11::detail::dragonbox::decimal_fp<double> const&, fmt::v11::format_specs const&, fmt::v11::detail::float_specs, fmt::v11::detail::locale_ref)::{lambda(fmt::v11::basic_appender<char>(fmt::v11::basic_appender<char>))#1}::operator() const
PUBLIC 325bc 0 _ZN3fmt3v116detail17write_significandIcmTnNSt6__ndk19enable_ifIXsr3std11is_integralIT0_EE5valueEiE4typeELi0EEEPT_S9_S5_iiS8_
PUBLIC 3274c 0 fmt::v11::detail::write_float<char, fmt::v11::basic_appender<char>, long double>(fmt::v11::basic_appender<char>, long double, fmt::v11::format_specs, fmt::v11::detail::locale_ref)
PUBLIC 33248 0 fmt::v11::detail::write_padded<char, (fmt::v11::align::type)2, fmt::v11::basic_appender<char>, fmt::v11::detail::write_bytes<char, (fmt::v11::align::type)2, fmt::v11::basic_appender<char> >(fmt::v11::basic_appender<char>, fmt::v11::basic_string_view<char>, fmt::v11::format_specs const&)::{lambda(fmt::v11::basic_appender<char>&)#1}>(fmt::v11::basic_appender<char>, fmt::v11::format_specs const&, unsigned long, unsigned long, fmt::v11::detail::write_bytes<char, (fmt::v11::align::type)2, fmt::v11::basic_appender<char> >(fmt::v11::basic_appender<char>, fmt::v11::basic_string_view<char>, fmt::v11::format_specs const&)::{lambda(fmt::v11::basic_appender<char>&)#1})
PUBLIC 33424 0 fmt::v11::detail::format_dragon(fmt::v11::detail::basic_fp<unsigned __int128>, unsigned int, int, fmt::v11::detail::buffer<char>&, int&)
PUBLIC 34854 0 fmt::v11::detail::bigint::operator<<=(int)
PUBLIC 34978 0 fmt::v11::detail::bigint::assign_pow10(int)
PUBLIC 350d4 0 fmt::v11::detail::bigint::divmod_assign(fmt::v11::detail::bigint const&)
PUBLIC 353f4 0 fmt::v11::basic_memory_buffer<unsigned int, (unsigned long)32, std::__ndk1::allocator<unsigned int> >::grow(fmt::v11::detail::buffer<unsigned int>&, unsigned long)
PUBLIC 35494 0 fmt::v11::detail::do_write_float<char, fmt::v11::basic_appender<char>, fmt::v11::detail::big_decimal_fp, fmt::v11::detail::digit_grouping<char> >(fmt::v11::basic_appender<char>, fmt::v11::detail::big_decimal_fp const&, fmt::v11::format_specs const&, fmt::v11::detail::float_specs, fmt::v11::detail::locale_ref)
PUBLIC 36344 0 fmt::v11::detail::do_write_float<char, fmt::v11::basic_appender<char>, fmt::v11::detail::big_decimal_fp, fmt::v11::detail::digit_grouping<char> >(fmt::v11::basic_appender<char>, fmt::v11::detail::big_decimal_fp const&, fmt::v11::format_specs const&, fmt::v11::detail::float_specs, fmt::v11::detail::locale_ref)::{lambda(fmt::v11::basic_appender<char>(fmt::v11::basic_appender<char>))#1}::operator() const
PUBLIC 364a4 0 fmt::v11::detail::write_padded<char, (fmt::v11::align::type)2, fmt::v11::basic_appender<char>, fmt::v11::detail::write_ptr<char, fmt::v11::basic_appender<char>, unsigned long>(fmt::v11::basic_appender<char>, unsigned long, fmt::v11::format_specs const*)::{lambda(fmt::v11::basic_appender<char>&)#1}>(fmt::v11::basic_appender<char>, fmt::v11::format_specs const&, unsigned long, unsigned long, fmt::v11::detail::write_ptr<char, fmt::v11::basic_appender<char>, unsigned long>(fmt::v11::basic_appender<char>, unsigned long, fmt::v11::format_specs const*)::{lambda(fmt::v11::basic_appender<char>&)#1})
PUBLIC 366b8 0 fmt::v11::detail::parse_replacement_field<char, fmt::v11::detail::vformat_to<char>(fmt::v11::detail::buffer<char>&, fmt::v11::basic_string_view<char>, fmt::v11::detail::vformat_args<char>::type, fmt::v11::detail::locale_ref)::format_handler&>(char const*, char const*, fmt::v11::detail::vformat_to<char>(fmt::v11::detail::buffer<char>&, fmt::v11::basic_string_view<char>, fmt::v11::detail::vformat_args<char>::type, fmt::v11::detail::locale_ref)::format_handler&)
PUBLIC 38354 0 fmt::v11::detail::parse_dynamic_spec<char>(char const*, char const*, int&, fmt::v11::detail::arg_ref<char>&, fmt::v11::basic_format_parse_context<char>&)
PUBLIC 385e4 0 fmt::v11::basic_format_args<fmt::v11::context>::get<char>(fmt::v11::basic_string_view<char>) const
PUBLIC 3873c 0 fmt::v11::detail::write_int_noinline<char, fmt::v11::basic_appender<char>, unsigned long>(fmt::v11::basic_appender<char>, fmt::v11::detail::write_int_arg<unsigned long>, fmt::v11::format_specs const&, fmt::v11::detail::locale_ref)
PUBLIC 39590 0 fmt::v11::detail::write_int_noinline<char, fmt::v11::basic_appender<char>, unsigned __int128>(fmt::v11::basic_appender<char>, fmt::v11::detail::write_int_arg<unsigned __int128>, fmt::v11::format_specs const&, fmt::v11::detail::locale_ref)
PUBLIC 3a5f8 0 _ZN3fmt3v116detail15format_hexfloatIdTnNSt6__ndk19enable_ifIXntsr16is_double_doubleIT_EE5valueEiE4typeELi0EEEvS5_NS0_12format_specsERNS1_6bufferIcEE
PUBLIC 3ab18 0 fmt::v11::detail::format_float<double>(double, int, fmt::v11::detail::float_specs, fmt::v11::detail::buffer<char>&)
PUBLIC 3b4b8 0 fmt::v11::detail::write<char, fmt::v11::basic_appender<char> >(fmt::v11::basic_appender<char>, fmt::v11::basic_string_view<char>, fmt::v11::format_specs const&)
PUBLIC 3c824 0 fmt::v11::detail::for_each_codepoint<fmt::v11::detail::compute_width(fmt::v11::basic_string_view<char>)::count_code_points>(fmt::v11::basic_string_view<char>, fmt::v11::detail::compute_width(fmt::v11::basic_string_view<char>)::count_code_points)::{lambda(char const*, char const*)#1}::operator()(char const*, char const*) const
PUBLIC 3c9dc 0 fmt::v11::detail::write_int<fmt::v11::basic_appender<char>, unsigned long, char>(fmt::v11::basic_appender<char>, unsigned long, unsigned int, fmt::v11::format_specs const&, fmt::v11::detail::digit_grouping<char> const&)
PUBLIC 3cf58 0 fmt::v11::detail::write_int<fmt::v11::basic_appender<char>, unsigned __int128, char>(fmt::v11::basic_appender<char>, unsigned __int128, unsigned int, fmt::v11::format_specs const&, fmt::v11::detail::digit_grouping<char> const&)
PUBLIC 3d5e0 0 <.plt ELF section in hiimjustin000.better_icon_randomizer.android64.so>
STACK CFI INIT 19df0 10 .cfa: sp 0 +
STACK CFI INIT 19e00 8 .cfa: sp 0 +
STACK CFI INIT 19e08 8 .cfa: sp 0 +
STACK CFI INIT 19e10 14 .cfa: sp 0 +
STACK CFI INIT 19e24 1c .cfa: sp 0 +
STACK CFI INIT 19e40 10 .cfa: sp 0 +
STACK CFI INIT 19e50 134 .cfa: sp 0 +
STACK CFI INIT 19f84 84 .cfa: sp 0 +
STACK CFI INIT 1a008 f4 .cfa: sp 0 +
STACK CFI INIT 1a0fc a8 .cfa: sp 0 +
STACK CFI INIT 1a1a4 7c .cfa: sp 0 +
STACK CFI INIT 1a220 14 .cfa: sp 0 +
STACK CFI INIT 1a234 40 .cfa: sp 0 +
STACK CFI INIT 1a274 28 .cfa: sp 0 +
STACK CFI INIT 1a29c 190 .cfa: sp 0 +
STACK CFI INIT 1a42c 2c8 .cfa: sp 0 +
STACK CFI INIT 1a6f4 8 .cfa: sp 0 +
STACK CFI INIT 1a6fc 8 .cfa: sp 0 +
STACK CFI INIT 1a704 44 .cfa: sp 0 +
STACK CFI INIT 1a748 e8 .cfa: sp 0 +
STACK CFI INIT 1a830 e8 .cfa: sp 0 +
STACK CFI INIT 1a918 14 .cfa: sp 0 +
STACK CFI INIT 1a92c 10 .cfa: sp 0 +
STACK CFI INIT 1a93c 10 .cfa: sp 0 +
STACK CFI INIT 1a94c f0 .cfa: sp 0 +
STACK CFI INIT 1aa3c 44 .cfa: sp 0 +
STACK CFI INIT 1aa80 c .cfa: sp 0 +
STACK CFI INIT 1aa8c c .cfa: sp 0 +
STACK CFI INIT 1aa98 2c .cfa: sp 0 +
STACK CFI INIT 1aac4 280 .cfa: sp 0 +
STACK CFI INIT 1ad44 c .cfa: sp 0 +
STACK CFI INIT 1ad50 120 .cfa: sp 0 +
STACK CFI INIT 1ae70 488 .cfa: sp 0 +
STACK CFI INIT 1b2f8 c48 .cfa: sp 0 +
STACK CFI INIT 1bf40 134 .cfa: sp 0 +
STACK CFI INIT 1c074 210 .cfa: sp 0 +
STACK CFI INIT 1c284 38c .cfa: sp 0 +
STACK CFI INIT 1c610 1c8 .cfa: sp 0 +
STACK CFI INIT 1c7d8 9bc .cfa: sp 0 +
STACK CFI INIT 1d194 2d4 .cfa: sp 0 +
STACK CFI INIT 1d468 134 .cfa: sp 0 +
STACK CFI INIT 1d59c 120 .cfa: sp 0 +
STACK CFI INIT 1d6bc 1c8 .cfa: sp 0 +
STACK CFI INIT 1d884 168 .cfa: sp 0 +
STACK CFI INIT 1d9ec fc .cfa: sp 0 +
STACK CFI INIT 1dae8 30 .cfa: sp 0 +
STACK CFI INIT 1dc50 30 .cfa: sp 0 +
STACK CFI INIT 1dc80 98 .cfa: sp 0 +
STACK CFI INIT 1dd18 59c .cfa: sp 0 +
STACK CFI INIT 1e2b4 8c .cfa: sp 0 +
STACK CFI INIT 20824 7c .cfa: sp 0 +
STACK CFI 20828 .cfa: sp 48 +
STACK CFI 20834 .cfa: x29 48 + x19: .cfa -8 + ^ x20: .cfa -16 + ^ x21: .cfa -32 + ^ .ra: .cfa -40 + ^ x29: .cfa -48 + ^
STACK CFI 20880 .cfa: sp 48 +
STACK CFI 2088c .cfa: sp 0 +
STACK CFI 20890 .cfa: sp 48 +
STACK CFI 2089c .cfa: sp 0 +
STACK CFI INIT 20970 10 .cfa: sp 0 +
STACK CFI 20974 .cfa: sp 16 +
STACK CFI 20978 .cfa: x29 16 + .ra: .cfa -8 + ^ x29: .cfa -16 + ^
STACK CFI INIT 20980 8 .cfa: sp 0 +
STACK CFI INIT 20988 24 .cfa: sp 0 +
STACK CFI 2098c .cfa: sp 32 +
STACK CFI 20994 .cfa: x29 32 + x19: .cfa -16 + ^ .ra: .cfa -24 + ^ x29: .cfa -32 + ^
STACK CFI 209a0 .cfa: sp 32 +
STACK CFI 209a8 .cfa: sp 0 +
STACK CFI INIT 209ac 28 .cfa: sp 0 +
STACK CFI 209b0 .cfa: sp 32 +
STACK CFI 209b8 .cfa: x29 32 + x19: .cfa -16 + ^ .ra: .cfa -24 + ^ x29: .cfa -32 + ^
STACK CFI 209c8 .cfa: sp 32 +
STACK CFI 209d0 .cfa: sp 0 +
STACK CFI INIT 209d4 8 .cfa: sp 0 +
STACK CFI INIT 209dc 2c .cfa: sp 0 +
STACK CFI 209e0 .cfa: sp 32 +
STACK CFI 209e8 .cfa: x29 32 + x19: .cfa -16 + ^ .ra: .cfa -24 + ^ x29: .cfa -32 + ^
STACK CFI 209fc .cfa: sp 32 +
STACK CFI 20a04 .cfa: sp 0 +
STACK CFI INIT 20a08 28 .cfa: sp 0 +
STACK CFI INIT 20a30 4 .cfa: sp 0 +
STACK CFI INIT 20a34 8 .cfa: sp 0 +
STACK CFI INIT 20b84 2c .cfa: sp 0 +
STACK CFI INIT 20bb0 4 .cfa: sp 0 +
STACK CFI INIT 20bb4 4 .cfa: sp 0 +
STACK CFI INIT 20bb8 4 .cfa: sp 0 +
STACK CFI INIT 20bbc 4 .cfa: sp 0 +
STACK CFI INIT 20bc0 4 .cfa: sp 0 +
STACK CFI INIT 20bc4 8 .cfa: sp 0 +
STACK CFI INIT 20c38 4 .cfa: sp 0 +
STACK CFI INIT 20ca8 4 .cfa: sp 0 +
STACK CFI INIT 20cac 14 .cfa: sp 0 +
STACK CFI 20cb0 .cfa: sp 16 +
STACK CFI 20cb4 .cfa: x29 16 + .ra: .cfa -8 + ^ x29: .cfa -16 + ^
STACK CFI INIT 20d10 30 .cfa: sp 0 +
STACK CFI 20d14 .cfa: sp 32 +
STACK CFI 20d1c .cfa: x29 32 + x19: .cfa -16 + ^ .ra: .cfa -24 + ^ x29: .cfa -32 + ^
STACK CFI 20d34 .cfa: sp 32 +
STACK CFI 20d3c .cfa: sp 0 +
STACK CFI INIT 20d40 34 .cfa: sp 0 +
STACK CFI 20d44 .cfa: sp 32 +
STACK CFI 20d4c .cfa: x29 32 + x19: .cfa -16 + ^ .ra: .cfa -24 + ^ x29: .cfa -32 + ^
STACK CFI INIT 20d74 70 .cfa: sp 0 +
STACK CFI 20d78 .cfa: sp 48 +
STACK CFI 20d84 .cfa: x29 32 + x19: .cfa -16 + ^ .ra: .cfa -24 + ^ x29: .cfa -32 + ^
STACK CFI 20dbc .cfa: sp 48 +
STACK CFI 20dc8 .cfa: sp 0 +
STACK CFI 20dcc .cfa: x29 32 +
STACK CFI INIT 20de4 5c .cfa: sp 0 +
STACK CFI 20de8 .cfa: sp 32 +
STACK CFI 20df0 .cfa: x29 32 + x19: .cfa -16 + ^ .ra: .cfa -24 + ^ x29: .cfa -32 + ^
STACK CFI 20e34 .cfa: sp 32 +
STACK CFI 20e3c .cfa: sp 0 +
STACK CFI INIT 20e40 64 .cfa: sp 0 +
STACK CFI 20e44 .cfa: sp 32 +
STACK CFI 20e4c .cfa: x29 32 + x19: .cfa -16 + ^ .ra: .cfa -24 + ^ x29: .cfa -32 + ^
STACK CFI 20e98 .cfa: sp 32 +
STACK CFI 20ea0 .cfa: sp 0 +
STACK CFI INIT 20ea4 4 .cfa: sp 0 +
STACK CFI INIT 20ea8 34 .cfa: sp 0 +
STACK CFI 20eac .cfa: sp 16 +
STACK CFI 20eb0 .cfa: x29 16 + .ra: .cfa -8 + ^ x29: .cfa -16 + ^
STACK CFI INIT 20edc 24 .cfa: sp 0 +
STACK CFI 20ee0 .cfa: sp 32 +
STACK CFI 20ee8 .cfa: x29 32 + x19: .cfa -16 + ^ .ra: .cfa -24 + ^ x29: .cfa -32 + ^
STACK CFI 20ef4 .cfa: sp 32 +
STACK CFI 20efc .cfa: sp 0 +
STACK CFI INIT 20f00 70 .cfa: sp 0 +
STACK CFI 20f04 .cfa: sp 48 +
STACK CFI 20f10 .cfa: x29 32 + x19: .cfa -16 + ^ .ra: .cfa -24 + ^ x29: .cfa -32 + ^
STACK CFI 20f48 .cfa: sp 48 +
STACK CFI 20f54 .cfa: sp 0 +
STACK CFI 20f58 .cfa: x29 32 +
STACK CFI INIT 20f70 5c .cfa: sp 0 +
STACK CFI 20f74 .cfa: sp 32 +
STACK CFI 20f7c .cfa: x29 32 + x19: .cfa -16 + ^ .ra: .cfa -24 + ^ x29: .cfa -32 + ^
STACK CFI 20fc0 .cfa: sp 32 +
STACK CFI 20fc8 .cfa: sp 0 +
STACK CFI INIT 20fcc 64 .cfa: sp 0 +
STACK CFI 20fd0 .cfa: sp 32 +
STACK CFI 20fd8 .cfa: x29 32 + x19: .cfa -16 + ^ .ra: .cfa -24 + ^ x29: .cfa -32 + ^
STACK CFI 21024 .cfa: sp 32 +
STACK CFI 2102c .cfa: sp 0 +
STACK CFI INIT 21030 14 .cfa: sp 0 +
STACK CFI 21034 .cfa: sp 16 +
STACK CFI 21038 .cfa: x29 16 + .ra: .cfa -8 + ^ x29: .cfa -16 + ^
STACK CFI INIT 21044 40 .cfa: sp 0 +
STACK CFI 2105c .cfa: sp 32 +
STACK CFI 21064 .cfa: x29 32 + x19: .cfa -16 + ^ .ra: .cfa -24 + ^ x29: .cfa -32 + ^
STACK CFI 21078 .cfa: sp 32 +
STACK CFI 21080 .cfa: sp 0 +
STACK CFI INIT 21084 64 .cfa: sp 0 +
STACK CFI 21088 .cfa: sp 32 +
STACK CFI 21090 .cfa: x29 32 + x19: .cfa -8 + ^ x20: .cfa -16 + ^ .ra: .cfa -24 + ^ x29: .cfa -32 + ^
STACK CFI 210dc .cfa: sp 32 +
STACK CFI 210e4 .cfa: sp 0 +
STACK CFI INIT 210e8 44 .cfa: sp 0 +
STACK CFI 210ec .cfa: sp 32 +
STACK CFI 210f4 .cfa: x29 32 + x19: .cfa -16 + ^ .ra: .cfa -24 + ^ x29: .cfa -32 + ^
STACK CFI 21120 .cfa: sp 32 +
STACK CFI 21128 .cfa: sp 0 +
STACK CFI INIT 2112c 80 .cfa: sp 0 +
STACK CFI 21130 .cfa: sp 48 +
STACK CFI 2113c .cfa: x29 48 + x19: .cfa -8 + ^ x20: .cfa -16 + ^ x21: .cfa -24 + ^ x22: .cfa -32 + ^ .ra: .cfa -40 + ^ x29: .cfa -48 + ^
STACK CFI 21154 .cfa: sp 48 +
STACK CFI 21160 .cfa: sp 0 +
STACK CFI 21164 .cfa: x29 48 +
STACK CFI 21194 .cfa: sp 48 +
STACK CFI 211a0 .cfa: sp 0 +
STACK CFI 211a4 .cfa: x29 48 +
STACK CFI INIT 211ac 230 .cfa: sp 0 +
STACK CFI 211b0 .cfa: sp 64 +
STACK CFI 211c0 .cfa: x29 64 + x19: .cfa -8 + ^ x20: .cfa -16 + ^ x21: .cfa -24 + ^ x22: .cfa -32 + ^ x23: .cfa -40 + ^ x24: .cfa -48 + ^ .ra: .cfa -56 + ^ x29: .cfa -64 + ^
STACK CFI 2121c .cfa: sp 64 +
STACK CFI 2122c .cfa: sp 0 +
STACK CFI 21230 .cfa: x29 64 +
STACK CFI 213ac .cfa: sp 64 +
STACK CFI 213bc .cfa: sp 0 +
STACK CFI 213c0 .cfa: x29 64 +
STACK CFI 213c8 .cfa: sp 64 +
STACK CFI 213d8 .cfa: sp 0 +
STACK CFI INIT 213dc 458 .cfa: sp 0 +
STACK CFI INIT 21e68 50 .cfa: sp 0 +
STACK CFI 21e8c .cfa: sp 32 +
STACK CFI 21e94 .cfa: x29 32 + x19: .cfa -16 + ^ .ra: .cfa -24 + ^ x29: .cfa -32 + ^
STACK CFI 21ea8 .cfa: sp 32 +
STACK CFI 21eb0 .cfa: sp 0 +
STACK CFI INIT 21eb8 40 .cfa: sp 0 +
STACK CFI 21ed0 .cfa: sp 32 +
STACK CFI 21ed8 .cfa: x29 32 + x19: .cfa -16 + ^ .ra: .cfa -24 + ^ x29: .cfa -32 + ^
STACK CFI 21eec .cfa: sp 32 +
STACK CFI 21ef4 .cfa: sp 0 +
STACK CFI INIT 21ef8 64 .cfa: sp 0 +
STACK CFI 21efc .cfa: sp 32 +
STACK CFI 21f04 .cfa: x29 32 + x19: .cfa -8 + ^ x20: .cfa -16 + ^ .ra: .cfa -24 + ^ x29: .cfa -32 + ^
STACK CFI 21f50 .cfa: sp 32 +
STACK CFI 21f58 .cfa: sp 0 +
STACK CFI INIT 21f5c 44 .cfa: sp 0 +
STACK CFI 21f60 .cfa: sp 32 +
STACK CFI 21f68 .cfa: x29 32 + x19: .cfa -16 + ^ .ra: .cfa -24 + ^ x29: .cfa -32 + ^
STACK CFI 21f94 .cfa: sp 32 +
STACK CFI 21f9c .cfa: sp 0 +
STACK CFI INIT 21fa0 64 .cfa: sp 0 +
STACK CFI 21fa4 .cfa: sp 32 +
STACK CFI 21fac .cfa: x29 32 + x19: .cfa -16 + ^ .ra: .cfa -24 + ^ x29: .cfa -32 + ^
STACK CFI 21fd0 .cfa: sp 32 +
STACK CFI 21fd8 .cfa: sp 0 +
STACK CFI 21fdc .cfa: x29 32 +
STACK CFI 21ff8 .cfa: sp 32 +
STACK CFI 22000 .cfa: sp 0 +
STACK CFI INIT 22004 64 .cfa: sp 0 +
STACK CFI 22008 .cfa: sp 32 +
STACK CFI 22010 .cfa: x29 32 + x19: .cfa -8 + ^ x20: .cfa -16 + ^ .ra: .cfa -24 + ^ x29: .cfa -32 + ^
STACK CFI 2205c .cfa: sp 32 +
STACK CFI 22064 .cfa: sp 0 +
STACK CFI INIT 22068 74 .cfa: sp 0 +
STACK CFI 2206c .cfa: sp 32 +
STACK CFI 22074 .cfa: x29 32 + x19: .cfa -16 + ^ .ra: .cfa -24 + ^ x29: .cfa -32 + ^
STACK CFI 220a0 .cfa: sp 32 +
STACK CFI 220a8 .cfa: sp 0 +
STACK CFI 220ac .cfa: x29 32 +
STACK CFI 220d0 .cfa: sp 32 +
STACK CFI 220d8 .cfa: sp 0 +
STACK CFI INIT 220dc 314 .cfa: sp 0 +
STACK CFI 220e0 .cfa: sp 128 +
STACK CFI 220f8 .cfa: x29 64 + x19: .cfa -8 + ^ x20: .cfa -16 + ^ x21: .cfa -24 + ^ x22: .cfa -32 + ^ x23: .cfa -40 + ^ x24: .cfa -48 + ^ .ra: .cfa -56 + ^ x29: .cfa -64 + ^ v8: .cfa -72 + ^ v9: .cfa -80 + ^
STACK CFI 22334 .cfa: sp 128 +
STACK CFI 2234c .cfa: sp 0 +
STACK CFI 22350 .cfa: x29 64 +
STACK CFI INIT 22464 34 .cfa: sp 0 +
STACK CFI 22468 .cfa: sp 16 +
STACK CFI 2246c .cfa: x29 16 + .ra: .cfa -8 + ^ x29: .cfa -16 + ^
STACK CFI INIT 22498 4 .cfa: sp 0 +
STACK CFI INIT 2249c 14 .cfa: sp 0 +
STACK CFI INIT 224b0 4 .cfa: sp 0 +
STACK CFI INIT 224b4 14 .cfa: sp 0 +
STACK CFI INIT 224c8 4 .cfa: sp 0 +
STACK CFI INIT 224cc 34 .cfa: sp 0 +
STACK CFI 224d0 .cfa: sp 32 +
STACK CFI 224d8 .cfa: x29 32 + x19: .cfa -16 + ^ .ra: .cfa -24 + ^ x29: .cfa -32 + ^
STACK CFI 224f4 .cfa: sp 32 +
STACK CFI 224fc .cfa: sp 0 +
STACK CFI INIT 22500 14 .cfa: sp 0 +
STACK CFI INIT 22514 4 .cfa: sp 0 +
STACK CFI INIT 22518 4 .cfa: sp 0 +
STACK CFI INIT 2251c 10 .cfa: sp 0 +
STACK CFI INIT 2252c 1c .cfa: sp 0 +
STACK CFI INIT 22548 c .cfa: sp 0 +
STACK CFI INIT 22554 4 .cfa: sp 0 +
STACK CFI INIT 22558 34 .cfa: sp 0 +
STACK CFI 2255c .cfa: sp 32 +
STACK CFI 22564 .cfa: x29 32 + x19: .cfa -16 + ^ .ra: .cfa -24 + ^ x29: .cfa -32 + ^
STACK CFI 22580 .cfa: sp 32 +
STACK CFI 22588 .cfa: sp 0 +
STACK CFI INIT 2258c 14 .cfa: sp 0 +
STACK CFI INIT 225a0 4 .cfa: sp 0 +
STACK CFI INIT 225a4 4 .cfa: sp 0 +
STACK CFI INIT 225a8 10 .cfa: sp 0 +
STACK CFI INIT 225b8 1c .cfa: sp 0 +
STACK CFI INIT 225d4 c .cfa: sp 0 +
STACK CFI INIT 225e0 4 .cfa: sp 0 +
STACK CFI INIT 225e4 34 .cfa: sp 0 +
STACK CFI 225e8 .cfa: sp 32 +
STACK CFI 225f0 .cfa: x29 32 + x19: .cfa -16 + ^ .ra: .cfa -24 + ^ x29: .cfa -32 + ^
STACK CFI 2260c .cfa: sp 32 +
STACK CFI 22614 .cfa: sp 0 +
STACK CFI INIT 22618 14 .cfa: sp 0 +
STACK CFI INIT 2262c 4 .cfa: sp 0 +
STACK CFI INIT 22630 4 .cfa: sp 0 +
STACK CFI INIT 22634 10 .cfa: sp 0 +
STACK CFI INIT 22644 1c .cfa: sp 0 +
STACK CFI INIT 22660 c .cfa: sp 0 +
STACK CFI INIT 2266c 4 .cfa: sp 0 +
STACK CFI INIT 22670 4 .cfa: sp 0 +
STACK CFI INIT 22674 34 .cfa: sp 0 +
STACK CFI 22678 .cfa: sp 32 +
STACK CFI 22680 .cfa: x29 32 + x19: .cfa -16 + ^ .ra: .cfa -24 + ^ x29: .cfa -32 + ^
STACK CFI 2269c .cfa: sp 32 +
STACK CFI 226a4 .cfa: sp 0 +
STACK CFI INIT 226a8 14 .cfa: sp 0 +
STACK CFI INIT 226bc 4 .cfa: sp 0 +
STACK CFI INIT 226c0 4 .cfa: sp 0 +
STACK CFI INIT 24f88 1c .cfa: sp 0 +
STACK CFI INIT 24fa4 c .cfa: sp 0 +
STACK CFI INIT 24fb0 4 .cfa: sp 0 +
STACK CFI INIT 24fb4 34 .cfa: sp 0 +
STACK CFI 24fb8 .cfa: sp 32 +
STACK CFI 24fc0 .cfa: x29 32 + x19: .cfa -16 + ^ .ra: .cfa -24 + ^ x29: .cfa -32 + ^
STACK CFI 24fdc .cfa: sp 32 +
STACK CFI 24fe4 .cfa: sp 0 +
STACK CFI INIT 24fe8 14 .cfa: sp 0 +
STACK CFI INIT 24ffc 4 .cfa: sp 0 +
STACK CFI INIT 25000 4 .cfa: sp 0 +
STACK CFI INIT 25004 14 .cfa: sp 0 +
STACK CFI INIT 25018 1c .cfa: sp 0 +
STACK CFI INIT 25034 c .cfa: sp 0 +
STACK CFI INIT 25040 4 .cfa: sp 0 +
STACK CFI INIT 25044 34 .cfa: sp 0 +
STACK CFI 25048 .cfa: sp 32 +
STACK CFI 25050 .cfa: x29 32 + x19: .cfa -16 + ^ .ra: .cfa -24 + ^ x29: .cfa -32 + ^
STACK CFI 2506c .cfa: sp 32 +
STACK CFI 25074 .cfa: sp 0 +
STACK CFI INIT 25078 14 .cfa: sp 0 +
STACK CFI INIT 2508c 4 .cfa: sp 0 +
STACK CFI INIT 25090 4 .cfa: sp 0 +
STACK CFI INIT 25094 14 .cfa: sp 0 +
STACK CFI INIT 250a8 1c .cfa: sp 0 +
STACK CFI INIT 250c4 c .cfa: sp 0 +
STACK CFI INIT 250d0 4 .cfa: sp 0 +
STACK CFI INIT 250d4 4 .cfa: sp 0 +
STACK CFI INIT 250d8 34 .cfa: sp 0 +
STACK CFI 250dc .cfa: sp 32 +
STACK CFI 250e4 .cfa: x29 32 + x19: .cfa -16 + ^ .ra: .cfa -24 + ^ x29: .cfa -32 + ^
STACK CFI 25100 .cfa: sp 32 +
STACK CFI 25108 .cfa: sp 0 +
STACK CFI INIT 2510c 14 .cfa: sp 0 +
STACK CFI INIT 25120 4 .cfa: sp 0 +
STACK CFI INIT 25124 4 .cfa: sp 0 +
STACK CFI INIT 25128 14 .cfa: sp 0 +
STACK CFI INIT 2513c 1c .cfa: sp 0 +
STACK CFI INIT 25158 c .cfa: sp 0 +
STACK CFI INIT 25164 3c .cfa: sp 0 +
STACK CFI 2516c .cfa: sp 32 +
STACK CFI 25174 .cfa: x29 32 + x19: .cfa -16 + ^ .ra: .cfa -24 + ^ x29: .cfa -32 + ^
STACK CFI 25190 .cfa: sp 32 +
STACK CFI 25198 .cfa: sp 0 +
STACK CFI INIT 251a0 1a0 .cfa: sp 0 +
STACK CFI 251a4 .cfa: sp 64 +
STACK CFI 251b4 .cfa: x29 64 + x19: .cfa -8 + ^ x20: .cfa -16 + ^ x21: .cfa -24 + ^ x22: .cfa -32 + ^ x23: .cfa -40 + ^ x24: .cfa -48 + ^ .ra: .cfa -56 + ^ x29: .cfa -64 + ^
STACK CFI 25314 .cfa: sp 64 +
STACK CFI 25324 .cfa: sp 0 +
STACK CFI 25328 .cfa: x29 64 +
STACK CFI INIT 25340 2b8 .cfa: sp 0 +
STACK CFI INIT 255f8 1b0 .cfa: sp 0 +
STACK CFI INIT 258b0 4 .cfa: sp 0 +
STACK CFI INIT 258b4 14 .cfa: sp 0 +
STACK CFI INIT 258c8 4 .cfa: sp 0 +
STACK CFI INIT 258cc 14 .cfa: sp 0 +
STACK CFI INIT 25a50 60 .cfa: sp 0 +
STACK CFI 25a54 .cfa: sp 32 +
STACK CFI 25a5c .cfa: x29 32 + x19: .cfa -8 + ^ x20: .cfa -16 + ^ .ra: .cfa -24 + ^ x29: .cfa -32 + ^
STACK CFI 25a7c .cfa: sp 32 +
STACK CFI 25a84 .cfa: sp 0 +
STACK CFI 25a88 .cfa: x29 32 +
STACK CFI 25aa4 .cfa: sp 32 +
STACK CFI 25aac .cfa: sp 0 +
STACK CFI INIT 25ab0 70 .cfa: sp 0 +
STACK CFI 25ab4 .cfa: sp 32 +
STACK CFI 25abc .cfa: x29 32 + x19: .cfa -8 + ^ x20: .cfa -16 + ^ .ra: .cfa -24 + ^ x29: .cfa -32 + ^
STACK CFI 25ae4 .cfa: sp 32 +
STACK CFI 25aec .cfa: sp 0 +
STACK CFI 25af0 .cfa: x29 32 +
STACK CFI 25b14 .cfa: sp 32 +
STACK CFI 25b1c .cfa: sp 0 +
STACK CFI INIT 25b20 10 .cfa: sp 0 +
STACK CFI INIT 25b30 30 .cfa: sp 0 +
STACK CFI 25b34 .cfa: sp 32 +
STACK CFI 25b3c .cfa: x29 32 + x19: .cfa -16 + ^ .ra: .cfa -24 + ^ x29: .cfa -32 + ^
STACK CFI 25b54 .cfa: sp 32 +
STACK CFI 25b5c .cfa: sp 0 +
STACK CFI INIT 25b60 4 .cfa: sp 0 +
STACK CFI INIT 25b64 4 .cfa: sp 0 +
STACK CFI INIT 25b70 30 .cfa: sp 0 +
STACK CFI INIT 26774 18 .cfa: sp 0 +
STACK CFI INIT 26ba8 50 .cfa: sp 0 +
STACK CFI 26bac .cfa: sp 32 +
STACK CFI 26bb4 .cfa: x29 32 + x19: .cfa -16 + ^ .ra: .cfa -24 + ^ x29: .cfa -32 + ^
STACK CFI 26bcc .cfa: sp 32 +
STACK CFI 26bd4 .cfa: sp 0 +
STACK CFI 26bd8 .cfa: x29 32 +
STACK CFI 26bec .cfa: sp 32 +
STACK CFI 26bf4 .cfa: sp 0 +
STACK CFI INIT 26c6c 4 .cfa: sp 0 +
STACK CFI INIT 26ef0 80 .cfa: sp 0 +
STACK CFI 26ef4 .cfa: sp 48 +
STACK CFI 26f00 .cfa: x29 48 + x19: .cfa -8 + ^ x20: .cfa -16 + ^ x21: .cfa -32 + ^ .ra: .cfa -40 + ^ x29: .cfa -48 + ^
STACK CFI 26f60 .cfa: sp 48 +
STACK CFI 26f6c .cfa: sp 0 +
STACK CFI INIT 26f70 24 .cfa: sp 0 +
STACK CFI 26f74 .cfa: sp 32 +
STACK CFI 26f7c .cfa: x29 32 + x19: .cfa -16 + ^ .ra: .cfa -24 + ^ x29: .cfa -32 + ^
STACK CFI 26f88 .cfa: sp 32 +
STACK CFI 26f90 .cfa: sp 0 +
STACK CFI INIT 2748c 148 .cfa: sp 0 +
STACK CFI 27490 .cfa: sp 48 +
STACK CFI 2749c .cfa: x29 48 + x19: .cfa -8 + ^ x20: .cfa -16 + ^ x21: .cfa -32 + ^ .ra: .cfa -40 + ^ x29: .cfa -48 + ^
STACK CFI 275c4 .cfa: sp 48 +
STACK CFI 275d0 .cfa: sp 0 +
STACK CFI INIT 275d4 68 .cfa: sp 0 +
STACK CFI 275d8 .cfa: sp 32 +
STACK CFI 275e0 .cfa: x29 32 + x19: .cfa -8 + ^ x20: .cfa -16 + ^ .ra: .cfa -24 + ^ x29: .cfa -32 + ^
STACK CFI 275f8 .cfa: sp 32 +
STACK CFI 27600 .cfa: sp 0 +
STACK CFI 27604 .cfa: x29 32 +
STACK CFI 27630 .cfa: sp 32 +
STACK CFI 27638 .cfa: sp 0 +
STACK CFI INIT 2763c 14 .cfa: sp 0 +
STACK CFI 27640 .cfa: sp 16 +
STACK CFI 27644 .cfa: x29 16 + .ra: .cfa -8 + ^ x29: .cfa -16 + ^
STACK CFI INIT 27650 4 .cfa: sp 0 +
STACK CFI INIT 27654 14 .cfa: sp 0 +
STACK CFI INIT 27668 84 .cfa: sp 0 +
STACK CFI 27670 .cfa: sp 32 +
STACK CFI 27678 .cfa: x29 32 + x19: .cfa -8 + ^ x20: .cfa -16 + ^ .ra: .cfa -24 + ^ x29: .cfa -32 + ^
STACK CFI 276b8 .cfa: sp 32 +
STACK CFI 276c0 .cfa: sp 0 +
STACK CFI 276c8 .cfa: x29 32 +
STACK CFI INIT 282b4 b4 .cfa: sp 0 +
STACK CFI 282b8 .cfa: sp 32 +
STACK CFI 282c0 .cfa: x29 32 + x19: .cfa -16 + ^ .ra: .cfa -24 + ^ x29: .cfa -32 + ^
STACK CFI 2835c .cfa: sp 32 +
STACK CFI 28364 .cfa: sp 0 +
STACK CFI INIT 28368 50 .cfa: sp 0 +
STACK CFI 2836c .cfa: sp 32 +
STACK CFI 28374 .cfa: x29 32 + x19: .cfa -16 + ^ .ra: .cfa -24 + ^ x29: .cfa -32 + ^
STACK CFI 2838c .cfa: sp 32 +
STACK CFI 28394 .cfa: sp 0 +
STACK CFI 28398 .cfa: x29 32 +
STACK CFI 283ac .cfa: sp 32 +
STACK CFI 283b4 .cfa: sp 0 +
STACK CFI INIT 283b8 64 .cfa: sp 0 +
STACK CFI 283bc .cfa: sp 32 +
STACK CFI 283c4 .cfa: x29 32 + x19: .cfa -16 + ^ .ra: .cfa -24 + ^ x29: .cfa -32 + ^
STACK CFI 283f0 .cfa: sp 32 +
STACK CFI 283f8 .cfa: sp 0 +
STACK CFI 283fc .cfa: x29 32 +
STACK CFI 28410 .cfa: sp 32 +
STACK CFI 28418 .cfa: sp 0 +
STACK CFI INIT 2841c 1c .cfa: sp 0 +
STACK CFI 28420 .cfa: sp 16 +
STACK CFI 28424 .cfa: x29 16 + .ra: .cfa -8 + ^ x29: .cfa -16 + ^
STACK CFI 28430 .cfa: sp 16 +
STACK CFI 28434 .cfa: sp 0 +
STACK CFI INIT 28438 50 .cfa: sp 0 +
STACK CFI 2843c .cfa: sp 32 +
STACK CFI 28444 .cfa: x29 32 + x19: .cfa -16 + ^ .ra: .cfa -24 + ^ x29: .cfa -32 + ^
STACK CFI 2845c .cfa: sp 32 +
STACK CFI 28464 .cfa: sp 0 +
STACK CFI 28468 .cfa: x29 32 +
STACK CFI 2847c .cfa: sp 32 +
STACK CFI 28484 .cfa: sp 0 +
STACK CFI INIT 28488 f8 .cfa: sp 0 +
STACK CFI 2848c .cfa: sp 64 +
STACK CFI 2849c .cfa: x29 64 + x19: .cfa -8 + ^ x20: .cfa -16 + ^ x21: .cfa -24 + ^ x22: .cfa -32 + ^ x23: .cfa -48 + ^ .ra: .cfa -56 + ^ x29: .cfa -64 + ^
STACK CFI 284f8 .cfa: sp 64 +
STACK CFI 28508 .cfa: sp 0 +
STACK CFI 2850c .cfa: x29 64 +
STACK CFI 28528 .cfa: sp 64 +
STACK CFI 28538 .cfa: sp 0 +
STACK CFI 2853c .cfa: x29 64 +
STACK CFI 2856c .cfa: sp 64 +
STACK CFI 2857c .cfa: sp 0 +
STACK CFI INIT 28580 128 .cfa: sp 0 +
STACK CFI 28584 .cfa: sp 80 +
STACK CFI 28598 .cfa: x29 80 + x19: .cfa -8 + ^ x20: .cfa -16 + ^ x21: .cfa -24 + ^ x22: .cfa -32 + ^ x23: .cfa -40 + ^ x24: .cfa -48 + ^ x25: .cfa -64 + ^ .ra: .cfa -72 + ^ x29: .cfa -80 + ^
STACK CFI 28688 .cfa: sp 80 +
STACK CFI 2869c .cfa: sp 0 +
STACK CFI 286a0 .cfa: x29 80 +
STACK CFI INIT 286a8 50 .cfa: sp 0 +
STACK CFI 286ac .cfa: sp 32 +
STACK CFI 286b4 .cfa: x29 32 + x19: .cfa -16 + ^ .ra: .cfa -24 + ^ x29: .cfa -32 + ^
STACK CFI 286cc .cfa: sp 32 +
STACK CFI 286d4 .cfa: sp 0 +
STACK CFI 286d8 .cfa: x29 32 +
STACK CFI 286ec .cfa: sp 32 +
STACK CFI 286f4 .cfa: sp 0 +
STACK CFI INIT 2876c 4 .cfa: sp 0 +
STACK CFI INIT 28770 14 .cfa: sp 0 +
STACK CFI INIT 28784 3c .cfa: sp 0 +
STACK CFI 28788 .cfa: sp 32 +
STACK CFI 28790 .cfa: x29 32 + x19: .cfa -16 + ^ .ra: .cfa -24 + ^ x29: .cfa -32 + ^
STACK CFI 2879c .cfa: sp 32 +
STACK CFI 287a4 .cfa: sp 0 +
STACK CFI 287a8 .cfa: x29 32 +
STACK CFI 287b4 .cfa: sp 32 +
STACK CFI 287bc .cfa: sp 0 +
STACK CFI INIT 287c0 4c .cfa: sp 0 +
STACK CFI 287c4 .cfa: sp 32 +
STACK CFI 287cc .cfa: x29 32 + x19: .cfa -8 + ^ x20: .cfa -16 + ^ .ra: .cfa -24 + ^ x29: .cfa -32 + ^
STACK CFI 287f4 .cfa: sp 32 +
STACK CFI 287fc .cfa: sp 0 +
STACK CFI 28800 .cfa: sp 32 +
STACK CFI 28808 .cfa: sp 0 +
STACK CFI INIT 28a2c 64 .cfa: sp 0 +
STACK CFI 28a30 .cfa: sp 32 +
STACK CFI 28a38 .cfa: x29 32 + x19: .cfa -16 + ^ .ra: .cfa -24 + ^ x29: .cfa -32 + ^
STACK CFI 28a64 .cfa: sp 32 +
STACK CFI 28a6c .cfa: sp 0 +
STACK CFI 28a70 .cfa: x29 32 +
STACK CFI 28a84 .cfa: sp 32 +
STACK CFI 28a8c .cfa: sp 0 +
STACK CFI INIT 28cb4 24 .cfa: sp 0 +
STACK CFI 28cb8 .cfa: sp 32 +
STACK CFI 28cc0 .cfa: x29 32 + x19: .cfa -16 + ^ .ra: .cfa -24 + ^ x29: .cfa -32 + ^
STACK CFI 28ccc .cfa: sp 32 +
STACK CFI 28cd4 .cfa: sp 0 +
STACK CFI INIT 28cd8 24 .cfa: sp 0 +
STACK CFI 28cdc .cfa: sp 32 +
STACK CFI 28ce4 .cfa: x29 32 + x19: .cfa -16 + ^ .ra: .cfa -24 + ^ x29: .cfa -32 + ^
STACK CFI 28cf0 .cfa: sp 32 +
STACK CFI 28cf8 .cfa: sp 0 +
STACK CFI INIT 28cfc 8 .cfa: sp 0 +
STACK CFI INIT 28d04 24 .cfa: sp 0 +
STACK CFI 28d08 .cfa: sp 32 +
STACK CFI 28d10 .cfa: x29 32 + x19: .cfa -16 + ^ .ra: .cfa -24 + ^ x29: .cfa -32 + ^
STACK CFI 28d1c .cfa: sp 32 +
STACK CFI 28d24 .cfa: sp 0 +
STACK CFI INIT 28d28 28 .cfa: sp 0 +
STACK CFI 28d2c .cfa: sp 32 +
STACK CFI 28d34 .cfa: x29 32 + x19: .cfa -16 + ^ .ra: .cfa -24 + ^ x29: .cfa -32 + ^
STACK CFI 28d44 .cfa: sp 32 +
STACK CFI 28d4c .cfa: sp 0 +
STACK CFI INIT 29050 8 .cfa: sp 0 +
STACK CFI INIT 29058 24 .cfa: sp 0 +
STACK CFI 2905c .cfa: sp 32 +
STACK CFI 29064 .cfa: x29 32 + x19: .cfa -16 + ^ .ra: .cfa -24 + ^ x29: .cfa -32 + ^
STACK CFI 29070 .cfa: sp 32 +
STACK CFI 29078 .cfa: sp 0 +
STACK CFI INIT 2907c 28 .cfa: sp 0 +
STACK CFI 29080 .cfa: sp 32 +
STACK CFI 29088 .cfa: x29 32 + x19: .cfa -16 + ^ .ra: .cfa -24 + ^ x29: .cfa -32 + ^
STACK CFI 29098 .cfa: sp 32 +
STACK CFI 290a0 .cfa: sp 0 +
STACK CFI INIT 29308 8 .cfa: sp 0 +
STACK CFI INIT 29310 24 .cfa: sp 0 +
STACK CFI 29314 .cfa: sp 32 +
STACK CFI 2931c .cfa: x29 32 + x19: .cfa -16 + ^ .ra: .cfa -24 + ^ x29: .cfa -32 + ^
STACK CFI 29328 .cfa: sp 32 +
STACK CFI 29330 .cfa: sp 0 +
STACK CFI INIT 29334 28 .cfa: sp 0 +
STACK CFI 29338 .cfa: sp 32 +
STACK CFI 29340 .cfa: x29 32 + x19: .cfa -16 + ^ .ra: .cfa -24 + ^ x29: .cfa -32 + ^
STACK CFI 29350 .cfa: sp 32 +
STACK CFI 29358 .cfa: sp 0 +
STACK CFI INIT 2935c 8 .cfa: sp 0 +
STACK CFI INIT 29364 24 .cfa: sp 0 +
STACK CFI 29368 .cfa: sp 32 +
STACK CFI 29370 .cfa: x29 32 + x19: .cfa -16 + ^ .ra: .cfa -24 + ^ x29: .cfa -32 + ^
STACK CFI 2937c .cfa: sp 32 +
STACK CFI 29384 .cfa: sp 0 +
STACK CFI INIT 29388 28 .cfa: sp 0 +
STACK CFI 2938c .cfa: sp 32 +
STACK CFI 29394 .cfa: x29 32 + x19: .cfa -16 + ^ .ra: .cfa -24 + ^ x29: .cfa -32 + ^
STACK CFI 293a4 .cfa: sp 32 +
STACK CFI 293ac .cfa: sp 0 +
STACK CFI INIT 2a6b8 4 .cfa: sp 0 +
STACK CFI INIT 2a6bc 14 .cfa: sp 0 +
STACK CFI INIT 2abdc c .cfa: sp 0 +
STACK CFI INIT 2abe8 24c .cfa: sp 0 +
STACK CFI INIT 2ae34 a0 .cfa: sp 0 +
STACK CFI 2ae40 .cfa: sp 32 +
STACK CFI 2ae98 .cfa: sp 0 +
STACK CFI 2ae9c .cfa: sp 32 +
STACK CFI 2aea4 .cfa: sp 0 +
STACK CFI 2aea8 .cfa: sp 32 +
STACK CFI 2aebc .cfa: sp 0 +
STACK CFI 2aec0 .cfa: sp 32 +
STACK CFI 2aed0 .cfa: sp 0 +
STACK CFI INIT 2aed4 38 .cfa: sp 0 +
STACK CFI 2aee0 .cfa: sp 32 +
STACK CFI 2af08 .cfa: sp 0 +
STACK CFI INIT 2b1a0 7c .cfa: sp 0 +
STACK CFI 2b1a4 .cfa: sp 32 +
STACK CFI 2b1ac .cfa: x29 32 + x19: .cfa -16 + ^ .ra: .cfa -24 + ^ x29: .cfa -32 + ^
STACK CFI 2b1d8 .cfa: sp 32 +
STACK CFI 2b1e0 .cfa: sp 0 +
STACK CFI 2b1e4 .cfa: x29 32 +
STACK CFI 2b210 .cfa: sp 32 +
STACK CFI 2b218 .cfa: sp 0 +
STACK CFI INIT 2b26c 2c .cfa: sp 0 +
STACK CFI 2b270 .cfa: sp 32 +
STACK CFI 2b278 .cfa: x29 32 + x19: .cfa -16 + ^ .ra: .cfa -24 + ^ x29: .cfa -32 + ^
STACK CFI 2b28c .cfa: sp 32 +
STACK CFI 2b294 .cfa: sp 0 +
STACK CFI INIT 2ba58 64 .cfa: sp 0 +
STACK CFI 2ba5c .cfa: sp 32 +
STACK CFI 2ba64 .cfa: x29 32 + x19: .cfa -16 + ^ .ra: .cfa -24 + ^ x29: .cfa -32 + ^
STACK CFI 2ba80 .cfa: sp 32 +
STACK CFI 2ba88 .cfa: sp 0 +
STACK CFI 2ba8c .cfa: x29 32 +
STACK CFI 2bab0 .cfa: sp 32 +
STACK CFI 2bab8 .cfa: sp 0 +
STACK CFI INIT 2babc 570 .cfa: sp 0 +
STACK CFI 2bac0 .cfa: sp 176 +
STACK CFI 2bad4 .cfa: x29 64 + x19: .cfa -8 + ^ x20: .cfa -16 + ^ x21: .cfa -24 + ^ x22: .cfa -32 + ^ x23: .cfa -40 + ^ x24: .cfa -48 + ^ .ra: .cfa -56 + ^ x29: .cfa -64 + ^
STACK CFI 2bd04 .cfa: sp 176 +
STACK CFI 2bd18 .cfa: sp 0 +
STACK CFI 2bd1c .cfa: x29 64 +
STACK CFI 2bd68 .cfa: sp 176 +
STACK CFI 2bd7c .cfa: sp 0 +
STACK CFI 2bd80 .cfa: x29 64 +
STACK CFI 2bdb8 .cfa: sp 176 +
STACK CFI 2bdcc .cfa: sp 0 +
STACK CFI 2bdd0 .cfa: x29 64 +
STACK CFI 2bde8 .cfa: sp 176 +
STACK CFI 2bdfc .cfa: sp 0 +
STACK CFI 2be00 .cfa: x29 64 +
STACK CFI 2be20 .cfa: sp 176 +
STACK CFI 2be34 .cfa: sp 0 +
STACK CFI 2be38 .cfa: x29 64 +
STACK CFI 2be50 .cfa: sp 176 +
STACK CFI 2be64 .cfa: sp 0 +
STACK CFI 2be68 .cfa: x29 64 +
STACK CFI 2be7c .cfa: sp 176 +
STACK CFI 2be90 .cfa: sp 0 +
STACK CFI 2be94 .cfa: x29 64 +
STACK CFI 2bea8 .cfa: sp 176 +
STACK CFI 2bebc .cfa: sp 0 +
STACK CFI 2bec0 .cfa: x29 64 +
STACK CFI 2bed0 .cfa: sp 176 +
STACK CFI 2bee4 .cfa: sp 0 +
STACK CFI 2bee8 .cfa: x29 64 +
STACK CFI 2bef8 .cfa: sp 176 +
STACK CFI 2bf0c .cfa: sp 0 +
STACK CFI 2bf10 .cfa: x29 64 +
STACK CFI 2bf28 .cfa: sp 176 +
STACK CFI 2bf3c .cfa: sp 0 +
STACK CFI 2bf40 .cfa: x29 64 +
STACK CFI 2bf54 .cfa: sp 176 +
STACK CFI 2bf68 .cfa: sp 0 +
STACK CFI 2bf6c .cfa: x29 64 +
STACK CFI 2bf84 .cfa: sp 176 +
STACK CFI 2bf98 .cfa: sp 0 +
STACK CFI 2bf9c .cfa: x29 64 +
STACK CFI 2bfc8 .cfa: sp 176 +
STACK CFI 2bfdc .cfa: sp 0 +
STACK CFI 2bfe0 .cfa: x29 64 +
STACK CFI 2bff4 .cfa: sp 176 +
STACK CFI 2c008 .cfa: sp 0 +
STACK CFI 2c00c .cfa: x29 64 +
STACK CFI INIT 2c02c 228 .cfa: sp 0 +
STACK CFI INIT 2c254 2dc .cfa: sp 0 +
STACK CFI INIT 2c530 53c .cfa: sp 0 +
STACK CFI INIT 2ca6c 78 .cfa: sp 0 +
STACK CFI 2ca70 .cfa: sp 48 +
STACK CFI 2ca7c .cfa: x29 48 + x19: .cfa -8 + ^ x20: .cfa -16 + ^ x21: .cfa -24 + ^ x22: .cfa -32 + ^ .ra: .cfa -40 + ^ x29: .cfa -48 + ^
STACK CFI 2cac4 .cfa: sp 48 +
STACK CFI 2cad0 .cfa: sp 0 +
STACK CFI 2cad4 .cfa: sp 48 +
STACK CFI 2cae0 .cfa: sp 0 +
STACK CFI INIT 2cae4 8c .cfa: sp 0 +
STACK CFI 2cae8 .cfa: sp 32 +
STACK CFI 2caf0 .cfa: x29 32 + x19: .cfa -16 + ^ .ra: .cfa -24 + ^ x29: .cfa -32 + ^
STACK CFI 2cb24 .cfa: sp 32 +
STACK CFI 2cb2c .cfa: sp 0 +
STACK CFI 2cb30 .cfa: x29 32 +
STACK CFI 2cb64 .cfa: sp 32 +
STACK CFI 2cb6c .cfa: sp 0 +
STACK CFI INIT 2cb70 24 .cfa: sp 0 +
STACK CFI 2cb74 .cfa: sp 32 +
STACK CFI 2cb7c .cfa: x29 32 + x19: .cfa -16 + ^ .ra: .cfa -24 + ^ x29: .cfa -32 + ^
STACK CFI 2cb88 .cfa: sp 32 +
STACK CFI 2cb90 .cfa: sp 0 +
STACK CFI INIT 2cb94 150 .cfa: sp 0 +
STACK CFI 2cb98 .cfa: sp 48 +
STACK CFI 2cba4 .cfa: x29 48 + x19: .cfa -8 + ^ x20: .cfa -16 + ^ x21: .cfa -24 + ^ x22: .cfa -32 + ^ .ra: .cfa -40 + ^ x29: .cfa -48 + ^
STACK CFI 2ccd4 .cfa: sp 48 +
STACK CFI 2cce0 .cfa: sp 0 +
STACK CFI INIT 2cce4 68 .cfa: sp 0 +
STACK CFI 2cce8 .cfa: sp 64 +
STACK CFI 2ccf4 .cfa: x29 32 + x19: .cfa -16 + ^ .ra: .cfa -24 + ^ x29: .cfa -32 + ^
STACK CFI 2cd38 .cfa: sp 64 +
STACK CFI 2cd44 .cfa: sp 0 +
STACK CFI 2cd48 .cfa: x29 32 +
STACK CFI INIT 2cd4c 90 .cfa: sp 0 +
STACK CFI 2cd50 .cfa: sp 32 +
STACK CFI 2cd58 .cfa: x29 32 + x19: .cfa -8 + ^ x20: .cfa -16 + ^ .ra: .cfa -24 + ^ x29: .cfa -32 + ^
STACK CFI 2cd84 .cfa: sp 32 +
STACK CFI 2cd8c .cfa: sp 0 +
STACK CFI 2cd90 .cfa: x29 32 +
STACK CFI 2cdd0 .cfa: sp 32 +
STACK CFI 2cdd8 .cfa: sp 0 +
STACK CFI INIT 2cddc ec .cfa: sp 0 +
STACK CFI 2cde0 .cfa: sp 112 +
STACK CFI 2cdf0 .cfa: x29 48 + x19: .cfa -8 + ^ x20: .cfa -16 + ^ x21: .cfa -32 + ^ .ra: .cfa -40 + ^ x29: .cfa -48 + ^
STACK CFI 2ceb0 .cfa: sp 112 +
STACK CFI 2cec0 .cfa: sp 0 +
STACK CFI 2cec4 .cfa: x29 48 +
STACK CFI INIT 2cec8 ec .cfa: sp 0 +
STACK CFI 2cecc .cfa: sp 112 +
STACK CFI 2cedc .cfa: x29 48 + x19: .cfa -8 + ^ x20: .cfa -16 + ^ x21: .cfa -32 + ^ .ra: .cfa -40 + ^ x29: .cfa -48 + ^
STACK CFI 2cf9c .cfa: sp 112 +
STACK CFI 2cfac .cfa: sp 0 +
STACK CFI 2cfb0 .cfa: x29 48 +
STACK CFI INIT 2cfb4 48 .cfa: sp 0 +
STACK CFI 2cfb8 .cfa: sp 32 +
STACK CFI 2cfc0 .cfa: x29 32 + x19: .cfa -8 + ^ x20: .cfa -16 + ^ .ra: .cfa -24 + ^ x29: .cfa -32 + ^
STACK CFI 2cfe4 .cfa: sp 32 +
STACK CFI 2cfec .cfa: sp 0 +
STACK CFI 2cff0 .cfa: x29 32 +
STACK CFI INIT 2cffc 98 .cfa: sp 0 +
STACK CFI 2d000 .cfa: sp 80 +
STACK CFI 2d00c .cfa: x29 32 + x19: .cfa -16 + ^ .ra: .cfa -24 + ^ x29: .cfa -32 + ^
STACK CFI 2d080 .cfa: sp 80 +
STACK CFI 2d08c .cfa: sp 0 +
STACK CFI 2d090 .cfa: x29 32 +
STACK CFI INIT 2d094 260 .cfa: sp 0 +
STACK CFI 2d098 .cfa: sp 112 +
STACK CFI 2d0b0 .cfa: x29 80 + x19: .cfa -8 + ^ x20: .cfa -16 + ^ x21: .cfa -24 + ^ x22: .cfa -32 + ^ x23: .cfa -40 + ^ x24: .cfa -48 + ^ x25: .cfa -64 + ^ .ra: .cfa -72 + ^ x29: .cfa -80 + ^
STACK CFI 2d294 .cfa: sp 112 +
STACK CFI 2d2ac .cfa: sp 0 +
STACK CFI 2d2b0 .cfa: x29 80 +
STACK CFI INIT 2d2f4 150 .cfa: sp 0 +
STACK CFI 2d2f8 .cfa: sp 48 +
STACK CFI 2d304 .cfa: x29 48 + x19: .cfa -8 + ^ x20: .cfa -16 + ^ x21: .cfa -24 + ^ x22: .cfa -32 + ^ .ra: .cfa -40 + ^ x29: .cfa -48 + ^
STACK CFI 2d434 .cfa: sp 48 +
STACK CFI 2d440 .cfa: sp 0 +
STACK CFI INIT 2d444 1e0 .cfa: sp 0 +
STACK CFI 2d448 .cfa: sp 96 +
STACK CFI 2d45c .cfa: x29 64 + x19: .cfa -8 + ^ x20: .cfa -16 + ^ x21: .cfa -24 + ^ x22: .cfa -32 + ^ x23: .cfa -40 + ^ x24: .cfa -48 + ^ .ra: .cfa -56 + ^ x29: .cfa -64 + ^
STACK CFI 2d5dc .cfa: sp 96 +
STACK CFI 2d5f0 .cfa: sp 0 +
STACK CFI 2d5f4 .cfa: x29 64 +
STACK CFI INIT 2d624 284 .cfa: sp 0 +
STACK CFI 2d628 .cfa: sp 112 +
STACK CFI 2d640 .cfa: x29 80 + x19: .cfa -8 + ^ x20: .cfa -16 + ^ x21: .cfa -24 + ^ x22: .cfa -32 + ^ x23: .cfa -40 + ^ x24: .cfa -48 + ^ x25: .cfa -64 + ^ .ra: .cfa -72 + ^ x29: .cfa -80 + ^
STACK CFI 2d848 .cfa: sp 112 +
STACK CFI 2d860 .cfa: sp 0 +
STACK CFI 2d864 .cfa: x29 80 +
STACK CFI INIT 2d8a8 208 .cfa: sp 0 +
STACK CFI 2d8ac .cfa: sp 96 +
STACK CFI 2d8c0 .cfa: x29 64 + x19: .cfa -8 + ^ x20: .cfa -16 + ^ x21: .cfa -24 + ^ x22: .cfa -32 + ^ x23: .cfa -40 + ^ x24: .cfa -48 + ^ .ra: .cfa -56 + ^ x29: .cfa -64 + ^
STACK CFI 2da68 .cfa: sp 96 +
STACK CFI 2da7c .cfa: sp 0 +
STACK CFI 2da80 .cfa: x29 64 +
STACK CFI INIT 2dab0 360 .cfa: sp 0 +
STACK CFI 2dab4 .cfa: sp 160 +
STACK CFI 2dad0 .cfa: x29 96 + x19: .cfa -8 + ^ x20: .cfa -16 + ^ x21: .cfa -24 + ^ x22: .cfa -32 + ^ x23: .cfa -40 + ^ x24: .cfa -48 + ^ x25: .cfa -56 + ^ x26: .cfa -64 + ^ x27: .cfa -72 + ^ x28: .cfa -80 + ^ .ra: .cfa -88 + ^ x29: .cfa -96 + ^
STACK CFI 2dd9c .cfa: sp 160 +
STACK CFI 2ddb8 .cfa: sp 0 +
STACK CFI 2ddbc .cfa: x29 96 +
STACK CFI INIT 2de10 314 .cfa: sp 0 +
STACK CFI 2de14 .cfa: sp 144 +
STACK CFI 2de30 .cfa: x29 96 + x19: .cfa -8 + ^ x20: .cfa -16 + ^ x21: .cfa -24 + ^ x22: .cfa -32 + ^ x23: .cfa -40 + ^ x24: .cfa -48 + ^ x25: .cfa -56 + ^ x26: .cfa -64 + ^ x27: .cfa -72 + ^ x28: .cfa -80 + ^ .ra: .cfa -88 + ^ x29: .cfa -96 + ^
STACK CFI 2e0ac .cfa: sp 144 +
STACK CFI 2e0c8 .cfa: sp 0 +
STACK CFI 2e0cc .cfa: x29 96 +
STACK CFI INIT 2e124 290 .cfa: sp 0 +
STACK CFI 2e128 .cfa: sp 128 +
STACK CFI 2e140 .cfa: x29 80 + x19: .cfa -8 + ^ x20: .cfa -16 + ^ x21: .cfa -24 + ^ x22: .cfa -32 + ^ x23: .cfa -40 + ^ x24: .cfa -48 + ^ x25: .cfa -56 + ^ x26: .cfa -64 + ^ .ra: .cfa -72 + ^ x29: .cfa -80 + ^
STACK CFI 2e394 .cfa: sp 128 +
STACK CFI 2e3ac .cfa: sp 0 +
STACK CFI 2e3b0 .cfa: x29 80 +
STACK CFI INIT 2e3b4 ddc .cfa: sp 0 +
STACK CFI 2e3b8 .cfa: sp 144 +
STACK CFI 2e3d4 .cfa: x29 96 + x19: .cfa -8 + ^ x20: .cfa -16 + ^ x21: .cfa -24 + ^ x22: .cfa -32 + ^ x23: .cfa -40 + ^ x24: .cfa -48 + ^ x25: .cfa -56 + ^ x26: .cfa -64 + ^ x27: .cfa -72 + ^ x28: .cfa -80 + ^ .ra: .cfa -88 + ^ x29: .cfa -96 + ^
STACK CFI 2f068 .cfa: sp 144 +
STACK CFI 2f084 .cfa: sp 0 +
STACK CFI 2f088 .cfa: x29 96 +
STACK CFI INIT 2f190 1d0 .cfa: sp 0 +
STACK CFI 2f194 .cfa: sp 80 +
STACK CFI 2f1a8 .cfa: x29 80 + x19: .cfa -8 + ^ x20: .cfa -16 + ^ x21: .cfa -24 + ^ x22: .cfa -32 + ^ x23: .cfa -40 + ^ x24: .cfa -48 + ^ x25: .cfa -64 + ^ .ra: .cfa -72 + ^ x29: .cfa -80 + ^
STACK CFI 2f348 .cfa: sp 80 +
STACK CFI 2f35c .cfa: sp 0 +
STACK CFI INIT 2f360 23c .cfa: sp 0 +
STACK CFI 2f364 .cfa: sp 112 +
STACK CFI 2f378 .cfa: x29 64 + x19: .cfa -8 + ^ x20: .cfa -16 + ^ x21: .cfa -24 + ^ x22: .cfa -32 + ^ x23: .cfa -40 + ^ x24: .cfa -48 + ^ .ra: .cfa -56 + ^ x29: .cfa -64 + ^
STACK CFI 2f554 .cfa: sp 112 +
STACK CFI 2f568 .cfa: sp 0 +
STACK CFI 2f56c .cfa: x29 64 +
STACK CFI INIT 2f59c 30c .cfa: sp 0 +
STACK CFI 2f5a0 .cfa: sp 80 +
STACK CFI 2f5b4 .cfa: x29 64 + x19: .cfa -8 + ^ x20: .cfa -16 + ^ x21: .cfa -24 + ^ x22: .cfa -32 + ^ x23: .cfa -40 + ^ x24: .cfa -48 + ^ .ra: .cfa -56 + ^ x29: .cfa -64 + ^
STACK CFI 2f730 .cfa: sp 80 +
STACK CFI 2f744 .cfa: sp 0 +
STACK CFI 2f748 .cfa: x29 64 +
STACK CFI INIT 2f8a8 178 .cfa: sp 0 +
STACK CFI 2f8ac .cfa: sp 80 +
STACK CFI 2f8c0 .cfa: x29 64 + x19: .cfa -8 + ^ x20: .cfa -16 + ^ x21: .cfa -24 + ^ x22: .cfa -32 + ^ x23: .cfa -40 + ^ x24: .cfa -48 + ^ .ra: .cfa -56 + ^ x29: .cfa -64 + ^
STACK CFI 2fa04 .cfa: sp 80 +
STACK CFI 2fa18 .cfa: sp 0 +
STACK CFI 2fa1c .cfa: x29 64 +
STACK CFI INIT 2fa20 178 .cfa: sp 0 +
STACK CFI 2fa24 .cfa: sp 80 +
STACK CFI 2fa38 .cfa: x29 64 + x19: .cfa -8 + ^ x20: .cfa -16 + ^ x21: .cfa -24 + ^ x22: .cfa -32 + ^ x23: .cfa -40 + ^ x24: .cfa -48 + ^ .ra: .cfa -56 + ^ x29: .cfa -64 + ^
STACK CFI 2fb7c .cfa: sp 80 +
STACK CFI 2fb90 .cfa: sp 0 +
STACK CFI 2fb94 .cfa: x29 64 +
STACK CFI INIT 2fb98 240 .cfa: sp 0 +
STACK CFI 2fb9c .cfa: sp 96 +
STACK CFI 2fbb4 .cfa: x29 96 + x19: .cfa -8 + ^ x20: .cfa -16 + ^ x21: .cfa -24 + ^ x22: .cfa -32 + ^ x23: .cfa -40 + ^ x24: .cfa -48 + ^ x25: .cfa -56 + ^ x26: .cfa -64 + ^ x27: .cfa -72 + ^ x28: .cfa -80 + ^ .ra: .cfa -88 + ^ x29: .cfa -96 + ^
STACK CFI 2fdbc .cfa: sp 96 +
STACK CFI 2fdd4 .cfa: sp 0 +
STACK CFI INIT 30a4c 154 .cfa: sp 0 +
STACK CFI 30a50 .cfa: sp 96 +
STACK CFI 30a64 .cfa: x29 64 + x19: .cfa -8 + ^ x20: .cfa -16 + ^ x21: .cfa -24 + ^ x22: .cfa -32 + ^ x23: .cfa -48 + ^ .ra: .cfa -56 + ^ x29: .cfa -64 + ^
STACK CFI 30b44 .cfa: sp 96 +
STACK CFI 30b58 .cfa: sp 0 +
STACK CFI 30b5c .cfa: x29 64 +
STACK CFI INIT 30e0c 44 .cfa: sp 0 +
STACK CFI 30e10 .cfa: sp 32 +
STACK CFI 30e18 .cfa: x29 32 + x19: .cfa -16 + ^ .ra: .cfa -24 + ^ x29: .cfa -32 + ^
STACK CFI 30e34 .cfa: sp 32 +
STACK CFI 30e3c .cfa: sp 0 +
STACK CFI 30e40 .cfa: x29 32 +
STACK CFI 30e44 .cfa: sp 32 +
STACK CFI 30e4c .cfa: sp 0 +
STACK CFI INIT 30e50 1d0 .cfa: sp 0 +
STACK CFI 30e54 .cfa: sp 64 +
STACK CFI 30e64 .cfa: x29 64 + x19: .cfa -8 + ^ x20: .cfa -16 + ^ x21: .cfa -24 + ^ x22: .cfa -32 + ^ x23: .cfa -40 + ^ x24: .cfa -48 + ^ .ra: .cfa -56 + ^ x29: .cfa -64 + ^
STACK CFI 30f24 .cfa: sp 64 +
STACK CFI 30f34 .cfa: sp 0 +
STACK CFI 30f38 .cfa: x29 64 +
STACK CFI INIT 31020 17c .cfa: sp 0 +
STACK CFI INIT 3119c ac .cfa: sp 0 +
STACK CFI 311a0 .cfa: sp 64 +
STACK CFI 311b0 .cfa: x29 64 + x19: .cfa -8 + ^ x20: .cfa -16 + ^ x21: .cfa -24 + ^ x22: .cfa -32 + ^ x23: .cfa -48 + ^ .ra: .cfa -56 + ^ x29: .cfa -64 + ^
STACK CFI 3122c .cfa: sp 64 +
STACK CFI 3123c .cfa: sp 0 +
STACK CFI 31240 .cfa: x29 64 +
STACK CFI INIT 31248 110 .cfa: sp 0 +
STACK CFI 3124c .cfa: sp 64 +
STACK CFI 3125c .cfa: x29 64 + x19: .cfa -8 + ^ x20: .cfa -16 + ^ x21: .cfa -24 + ^ x22: .cfa -32 + ^ x23: .cfa -40 + ^ x24: .cfa -48 + ^ .ra: .cfa -56 + ^ x29: .cfa -64 + ^
STACK CFI 3133c .cfa: sp 64 +
STACK CFI 3134c .cfa: sp 0 +
STACK CFI 31350 .cfa: x29 64 +
STACK CFI INIT 31710 a0 .cfa: sp 0 +
STACK CFI 31714 .cfa: sp 48 +
STACK CFI 31720 .cfa: x29 48 + x19: .cfa -8 + ^ x20: .cfa -16 + ^ x21: .cfa -24 + ^ x22: .cfa -32 + ^ .ra: .cfa -40 + ^ x29: .cfa -48 + ^
STACK CFI 3178c .cfa: sp 48 +
STACK CFI 31798 .cfa: sp 0 +
STACK CFI 3179c .cfa: sp 48 +
STACK CFI 317a8 .cfa: sp 0 +
STACK CFI 317ac .cfa: x29 48 +
STACK CFI INIT 32464 158 .cfa: sp 0 +
STACK CFI 32468 .cfa: sp 96 +
STACK CFI 3247c .cfa: x29 64 + x19: .cfa -8 + ^ x20: .cfa -16 + ^ x21: .cfa -24 + ^ x22: .cfa -32 + ^ x23: .cfa -48 + ^ .ra: .cfa -56 + ^ x29: .cfa -64 + ^
STACK CFI 32560 .cfa: sp 96 +
STACK CFI 32574 .cfa: sp 0 +
STACK CFI 32578 .cfa: x29 64 +
STACK CFI INIT 325bc 190 .cfa: sp 0 +
STACK CFI INIT 33248 1dc .cfa: sp 0 +
STACK CFI 3324c .cfa: sp 80 +
STACK CFI 33260 .cfa: x29 80 + x19: .cfa -8 + ^ x20: .cfa -16 + ^ x21: .cfa -24 + ^ x22: .cfa -32 + ^ x23: .cfa -40 + ^ x24: .cfa -48 + ^ x25: .cfa -64 + ^ .ra: .cfa -72 + ^ x29: .cfa -80 + ^
STACK CFI 3340c .cfa: sp 80 +
STACK CFI 33420 .cfa: sp 0 +
STACK CFI INIT 34854 124 .cfa: sp 0 +
STACK CFI 34884 .cfa: sp 32 +
STACK CFI 3488c .cfa: x29 32 + x19: .cfa -8 + ^ x20: .cfa -16 + ^ .ra: .cfa -24 + ^ x29: .cfa -32 + ^
STACK CFI 3496c .cfa: sp 32 +
STACK CFI 34974 .cfa: sp 0 +
STACK CFI INIT 350d4 320 .cfa: sp 0 +
STACK CFI 350d8 .cfa: sp 64 +
STACK CFI 350e8 .cfa: x29 64 + x19: .cfa -8 + ^ x20: .cfa -16 + ^ x21: .cfa -24 + ^ x22: .cfa -32 + ^ x23: .cfa -40 + ^ x24: .cfa -48 + ^ .ra: .cfa -56 + ^ x29: .cfa -64 + ^
STACK CFI 35164 .cfa: sp 64 +
STACK CFI 35174 .cfa: sp 0 +
STACK CFI 35178 .cfa: x29 64 +
STACK CFI 3534c .cfa: sp 64 +
STACK CFI 3535c .cfa: sp 0 +
STACK CFI 35360 .cfa: x29 64 +
STACK CFI 35370 .cfa: sp 64 +
STACK CFI 35380 .cfa: sp 0 +
STACK CFI 35384 .cfa: x29 64 +
STACK CFI INIT 353f4 a0 .cfa: sp 0 +
STACK CFI 353f8 .cfa: sp 48 +
STACK CFI 35404 .cfa: x29 48 + x19: .cfa -8 + ^ x20: .cfa -16 + ^ x21: .cfa -24 + ^ x22: .cfa -32 + ^ .ra: .cfa -40 + ^ x29: .cfa -48 + ^
STACK CFI 35470 .cfa: sp 48 +
STACK CFI 3547c .cfa: sp 0 +
STACK CFI 35480 .cfa: sp 48 +
STACK CFI 3548c .cfa: sp 0 +
STACK CFI 35490 .cfa: x29 48 +
STACK CFI INIT 36344 160 .cfa: sp 0 +
STACK CFI 36348 .cfa: sp 64 +
STACK CFI 36358 .cfa: x29 64 + x19: .cfa -8 + ^ x20: .cfa -16 + ^ x21: .cfa -24 + ^ x22: .cfa -32 + ^ x23: .cfa -48 + ^ .ra: .cfa -56 + ^ x29: .cfa -64 + ^
STACK CFI 36450 .cfa: sp 64 +
STACK CFI 36460 .cfa: sp 0 +
STACK CFI 36464 .cfa: x29 64 +
STACK CFI INIT 364a4 214 .cfa: sp 0 +
STACK CFI 364a8 .cfa: sp 128 +
STACK CFI 364c4 .cfa: x29 96 + x19: .cfa -8 + ^ x20: .cfa -16 + ^ x21: .cfa -24 + ^ x22: .cfa -32 + ^ x23: .cfa -40 + ^ x24: .cfa -48 + ^ x25: .cfa -56 + ^ x26: .cfa -64 + ^ x27: .cfa -80 + ^ .ra: .cfa -88 + ^ x29: .cfa -96 + ^
STACK CFI 36640 .cfa: sp 128 +
STACK CFI 3665c .cfa: sp 0 +
STACK CFI 36660 .cfa: x29 96 +
STACK CFI INIT 38354 290 .cfa: sp 0 +
STACK CFI 38358 .cfa: sp 16 +
STACK CFI 3835c .cfa: x29 16 + .ra: .cfa -8 + ^ x29: .cfa -16 + ^
STACK CFI 383e8 .cfa: sp 16 +
STACK CFI 383ec .cfa: sp 0 +
STACK CFI 383f0 .cfa: x29 16 +
STACK CFI 38440 .cfa: sp 16 +
STACK CFI 38444 .cfa: sp 0 +
STACK CFI 38448 .cfa: x29 16 +
STACK CFI 385ac .cfa: sp 16 +
STACK CFI 385b0 .cfa: sp 0 +
STACK CFI 385b4 .cfa: x29 16 +
STACK CFI INIT 385e4 158 .cfa: sp 0 +
STACK CFI 385e8 .cfa: sp 112 +
STACK CFI 38604 .cfa: x29 96 + x19: .cfa -8 + ^ x20: .cfa -16 + ^ x21: .cfa -24 + ^ x22: .cfa -32 + ^ x23: .cfa -40 + ^ x24: .cfa -48 + ^ x25: .cfa -56 + ^ x26: .cfa -64 + ^ x27: .cfa -72 + ^ x28: .cfa -80 + ^ .ra: .cfa -88 + ^ x29: .cfa -96 + ^
STACK CFI 386ec .cfa: sp 112 +
STACK CFI 386f0 .cfa: x29 96 +
STACK CFI 386f8 .cfa: sp 112 +
STACK CFI 38714 .cfa: sp 0 +
STACK CFI 38718 .cfa: x29 96 +
STACK CFI 38738 .cfa: sp 112 +
STACK CFI INIT 3873c e54 .cfa: sp 0 +
STACK CFI 38740 .cfa: sp 192 +
STACK CFI 3875c .cfa: x29 96 + x19: .cfa -8 + ^ x20: .cfa -16 + ^ x21: .cfa -24 + ^ x22: .cfa -32 + ^ x23: .cfa -40 + ^ x24: .cfa -48 + ^ x25: .cfa -56 + ^ x26: .cfa -64 + ^ x27: .cfa -72 + ^ x28: .cfa -80 + ^ .ra: .cfa -88 + ^ x29: .cfa -96 + ^
STACK CFI 39478 .cfa: sp 192 +
STACK CFI 39494 .cfa: sp 0 +
STACK CFI 39498 .cfa: x29 96 +
STACK CFI INIT 39590 1068 .cfa: sp 0 +
STACK CFI 39594 .cfa: sp 288 +
STACK CFI 395b0 .cfa: x29 96 + x19: .cfa -8 + ^ x20: .cfa -16 + ^ x21: .cfa -24 + ^ x22: .cfa -32 + ^ x23: .cfa -40 + ^ x24: .cfa -48 + ^ x25: .cfa -56 + ^ x26: .cfa -64 + ^ x27: .cfa -72 + ^ x28: .cfa -80 + ^ .ra: .cfa -88 + ^ x29: .cfa -96 + ^
STACK CFI 3a340 .cfa: sp 288 +
STACK CFI 3a35c .cfa: sp 0 +
STACK CFI 3a360 .cfa: x29 96 +
STACK CFI INIT 3a5f8 520 .cfa: sp 0 +
STACK CFI 3a5fc .cfa: sp 144 +
STACK CFI 3a618 .cfa: x29 96 + x19: .cfa -8 + ^ x20: .cfa -16 + ^ x21: .cfa -24 + ^ x22: .cfa -32 + ^ x23: .cfa -40 + ^ x24: .cfa -48 + ^ x25: .cfa -56 + ^ x26: .cfa -64 + ^ x27: .cfa -72 + ^ x28: .cfa -80 + ^ .ra: .cfa -88 + ^ x29: .cfa -96 + ^
STACK CFI 3aaf4 .cfa: sp 144 +
STACK CFI 3ab10 .cfa: sp 0 +
STACK CFI 3ab14 .cfa: x29 96 +
STACK CFI INIT 3b4b8 136c .cfa: sp 0 +
STACK CFI 3b4bc .cfa: sp 224 +
STACK CFI 3b4d8 .cfa: x29 96 + x19: .cfa -8 + ^ x20: .cfa -16 + ^ x21: .cfa -24 + ^ x22: .cfa -32 + ^ x23: .cfa -40 + ^ x24: .cfa -48 + ^ x25: .cfa -56 + ^ x26: .cfa -64 + ^ x27: .cfa -72 + ^ x28: .cfa -80 + ^ .ra: .cfa -88 + ^ x29: .cfa -96 + ^
STACK CFI 3c800 .cfa: sp 224 +
STACK CFI 3c81c .cfa: sp 0 +
STACK CFI 3c820 .cfa: x29 96 +
STACK CFI INIT 3c824 1b8 .cfa: sp 0 +
STACK CFI INIT 1e340 174 .cfa: sp 0 +
STACK CFI 1e344 .cfa: sp 80 +
STACK CFI 1e354 .cfa: x29 48 + x19: .cfa -8 + ^ x20: .cfa -16 + ^ x21: .cfa -32 + ^ .ra: .cfa -40 + ^ x29: .cfa -48 + ^
STACK CFI 1e478 .cfa: sp 80 +
STACK CFI 1e488 .cfa: sp 0 +
STACK CFI 1e48c .cfa: x29 48 +
STACK CFI INIT 1e4b4 1410 .cfa: sp 0 +
STACK CFI 1e4b8 .cfa: sp 448 +
STACK CFI 1e4d0 .cfa: x29 80 + x19: .cfa -8 + ^ x20: .cfa -16 + ^ x21: .cfa -24 + ^ x22: .cfa -32 + ^ x23: .cfa -40 + ^ x24: .cfa -48 + ^ x25: .cfa -56 + ^ x28: .cfa -64 + ^ .ra: .cfa -72 + ^ x29: .cfa -80 + ^
STACK CFI 1f67c .cfa: sp 448 +
STACK CFI 1f694 .cfa: sp 0 +
STACK CFI 1f698 .cfa: x29 80 +
STACK CFI INIT 1f8c4 1e0 .cfa: sp 0 +
STACK CFI 1f8c8 .cfa: sp 176 +
STACK CFI 1f8e0 .cfa: x29 80 + x19: .cfa -8 + ^ x20: .cfa -16 + ^ x21: .cfa -24 + ^ x22: .cfa -32 + ^ x23: .cfa -40 + ^ x24: .cfa -48 + ^ x25: .cfa -64 + ^ .ra: .cfa -72 + ^ x29: .cfa -80 + ^
STACK CFI 1fa08 .cfa: sp 176 +
STACK CFI 1fa20 .cfa: sp 0 +
STACK CFI 1fa24 .cfa: x29 80 +
STACK CFI INIT 1faa4 1e0 .cfa: sp 0 +
STACK CFI 1faa8 .cfa: sp 176 +
STACK CFI 1fac0 .cfa: x29 80 + x19: .cfa -8 + ^ x20: .cfa -16 + ^ x21: .cfa -24 + ^ x22: .cfa -32 + ^ x23: .cfa -40 + ^ x24: .cfa -48 + ^ x25: .cfa -64 + ^ .ra: .cfa -72 + ^ x29: .cfa -80 + ^
STACK CFI 1fbe8 .cfa: sp 176 +
STACK CFI 1fc00 .cfa: sp 0 +
STACK CFI 1fc04 .cfa: x29 80 +
STACK CFI INIT 1fc84 348 .cfa: sp 0 +
STACK CFI 1fc88 .cfa: sp 192 +
STACK CFI 1fca4 .cfa: x29 96 + x19: .cfa -8 + ^ x20: .cfa -16 + ^ x21: .cfa -24 + ^ x22: .cfa -32 + ^ x23: .cfa -40 + ^ x24: .cfa -48 + ^ x25: .cfa -56 + ^ x26: .cfa -64 + ^ x27: .cfa -80 + ^ .ra: .cfa -88 + ^ x29: .cfa -96 + ^
STACK CFI 1ff2c .cfa: sp 192 +
STACK CFI 1ff48 .cfa: sp 0 +
STACK CFI 1ff4c .cfa: x29 96 +
STACK CFI INIT 1ffcc 188 .cfa: sp 0 +
STACK CFI 1ffd0 .cfa: sp 128 +
STACK CFI 1ffe4 .cfa: x29 48 + x19: .cfa -8 + ^ x20: .cfa -16 + ^ x21: .cfa -24 + ^ x22: .cfa -32 + ^ .ra: .cfa -40 + ^ x29: .cfa -48 + ^ v8: .cfa -64 + ^
STACK CFI 200e8 .cfa: sp 128 +
STACK CFI 200fc .cfa: sp 0 +
STACK CFI 20100 .cfa: x29 48 +
STACK CFI INIT 20154 170 .cfa: sp 0 +
STACK CFI 20158 .cfa: sp 112 +
STACK CFI 20168 .cfa: x29 48 + x19: .cfa -8 + ^ x20: .cfa -16 + ^ x21: .cfa -24 + ^ x22: .cfa -32 + ^ .ra: .cfa -40 + ^ x29: .cfa -48 + ^
STACK CFI 2025c .cfa: sp 112 +
STACK CFI 2026c .cfa: sp 0 +
STACK CFI 20270 .cfa: x29 48 +
STACK CFI INIT 202c4 3d4 .cfa: sp 0 +
STACK CFI 202c8 .cfa: sp 224 +
STACK CFI 202dc .cfa: x29 64 + x19: .cfa -8 + ^ x20: .cfa -16 + ^ x21: .cfa -24 + ^ x22: .cfa -32 + ^ x23: .cfa -48 + ^ .ra: .cfa -56 + ^ x29: .cfa -64 + ^
STACK CFI 205a4 .cfa: sp 224 +
STACK CFI 205b8 .cfa: sp 0 +
STACK CFI 205bc .cfa: x29 64 +
STACK CFI INIT 20698 d0 .cfa: sp 0 +
STACK CFI 2069c .cfa: sp 64 +
STACK CFI 206ac .cfa: x29 64 + x19: .cfa -8 + ^ x20: .cfa -16 + ^ x21: .cfa -24 + ^ x22: .cfa -32 + ^ x23: .cfa -48 + ^ .ra: .cfa -56 + ^ x29: .cfa -64 + ^
STACK CFI 2073c .cfa: sp 64 +
STACK CFI 2074c .cfa: sp 0 +
STACK CFI 20750 .cfa: x29 64 +
STACK CFI INIT 20768 1c .cfa: sp 0 +
STACK CFI 2076c .cfa: sp 16 +
STACK CFI 20770 .cfa: x29 16 + .ra: .cfa -8 + ^ x29: .cfa -16 + ^
STACK CFI 20778 .cfa: sp 16 +
STACK CFI 2077c .cfa: sp 0 +
STACK CFI 20780 .cfa: x29 16 +
STACK CFI INIT 20784 a0 .cfa: sp 0 +
STACK CFI 20788 .cfa: sp 48 +
STACK CFI 20794 .cfa: x29 48 + x19: .cfa -8 + ^ x20: .cfa -16 + ^ x21: .cfa -24 + ^ x22: .cfa -32 + ^ .ra: .cfa -40 + ^ x29: .cfa -48 + ^
STACK CFI 207e8 .cfa: sp 48 +
STACK CFI 207f4 .cfa: sp 0 +
STACK CFI 207f8 .cfa: x29 48 +
STACK CFI INIT 208a0 d0 .cfa: sp 0 +
STACK CFI 208a4 .cfa: sp 32 +
STACK CFI 208ac .cfa: x29 32 + x19: .cfa -16 + ^ .ra: .cfa -24 + ^ x29: .cfa -32 + ^
STACK CFI 2095c .cfa: sp 32 +
STACK CFI 20964 .cfa: sp 0 +
STACK CFI 20968 .cfa: x29 32 +
STACK CFI INIT 20a3c 148 .cfa: sp 0 +
STACK CFI 20a40 .cfa: sp 96 +
STACK CFI 20a50 .cfa: x29 48 + x19: .cfa -8 + ^ x20: .cfa -16 + ^ x21: .cfa -32 + ^ .ra: .cfa -40 + ^ x29: .cfa -48 + ^
STACK CFI 20b38 .cfa: sp 96 +
STACK CFI 20b48 .cfa: sp 0 +
STACK CFI 20b4c .cfa: x29 48 +
STACK CFI INIT 20bcc 6c .cfa: sp 0 +
STACK CFI 20bd0 .cfa: sp 32 +
STACK CFI 20bd8 .cfa: x29 32 + x19: .cfa -16 + ^ .ra: .cfa -24 + ^ x29: .cfa -32 + ^
STACK CFI 20c28 .cfa: sp 32 +
STACK CFI 20c30 .cfa: sp 0 +
STACK CFI 20c34 .cfa: x29 32 +
STACK CFI INIT 20c3c 6c .cfa: sp 0 +
STACK CFI 20c40 .cfa: sp 32 +
STACK CFI 20c48 .cfa: x29 32 + x19: .cfa -16 + ^ .ra: .cfa -24 + ^ x29: .cfa -32 + ^
STACK CFI 20c98 .cfa: sp 32 +
STACK CFI 20ca0 .cfa: sp 0 +
STACK CFI 20ca4 .cfa: x29 32 +
STACK CFI INIT 20cc0 50 .cfa: sp 0 +
STACK CFI 20cc4 .cfa: sp 32 +
STACK CFI 20ccc .cfa: x29 32 + x19: .cfa -8 + ^ x20: .cfa -16 + ^ .ra: .cfa -24 + ^ x29: .cfa -32 + ^
STACK CFI INIT 21834 634 .cfa: sp 0 +
STACK CFI 21838 .cfa: sp 128 +
STACK CFI 21854 .cfa: x29 96 + x19: .cfa -8 + ^ x20: .cfa -16 + ^ x21: .cfa -24 + ^ x22: .cfa -32 + ^ x23: .cfa -40 + ^ x24: .cfa -48 + ^ x25: .cfa -56 + ^ x26: .cfa -64 + ^ x27: .cfa -72 + ^ x28: .cfa -80 + ^ .ra: .cfa -88 + ^ x29: .cfa -96 + ^
STACK CFI 21e08 .cfa: sp 128 +
STACK CFI 21e24 .cfa: sp 0 +
STACK CFI 21e28 .cfa: x29 96 +
STACK CFI INIT 223f0 74 .cfa: sp 0 +
STACK CFI 223f4 .cfa: sp 48 +
STACK CFI 22400 .cfa: x29 32 + x19: .cfa -8 + ^ x20: .cfa -16 + ^ .ra: .cfa -24 + ^ x29: .cfa -32 + ^
STACK CFI 2244c .cfa: sp 48 +
STACK CFI 22458 .cfa: sp 0 +
STACK CFI 2245c .cfa: x29 32 +
STACK CFI INIT 226c4 28c4 .cfa: sp 0 +
STACK CFI 226c8 .cfa: sp 336 +
STACK CFI 226e4 .cfa: x29 96 + x19: .cfa -8 + ^ x20: .cfa -16 + ^ x21: .cfa -24 + ^ x22: .cfa -32 + ^ x23: .cfa -40 + ^ x24: .cfa -48 + ^ x25: .cfa -56 + ^ x26: .cfa -64 + ^ x27: .cfa -72 + ^ x28: .cfa -80 + ^ .ra: .cfa -88 + ^ x29: .cfa -96 + ^
STACK CFI 24808 .cfa: sp 336 +
STACK CFI 24824 .cfa: sp 0 +
STACK CFI 24828 .cfa: x29 96 +
STACK CFI INIT 257a8 108 .cfa: sp 0 +
STACK CFI 257ac .cfa: sp 112 +
STACK CFI 257b8 .cfa: x29 32 + x19: .cfa -8 + ^ x20: .cfa -16 + ^ .ra: .cfa -24 + ^ x29: .cfa -32 + ^
STACK CFI 25880 .cfa: sp 112 +
STACK CFI 2588c .cfa: sp 0 +
STACK CFI 25890 .cfa: x29 32 +
STACK CFI INIT 258e0 170 .cfa: sp 0 +
STACK CFI 258e4 .cfa: sp 160 +
STACK CFI 258f4 .cfa: x29 48 + x19: .cfa -8 + ^ x20: .cfa -16 + ^ x21: .cfa -32 + ^ .ra: .cfa -40 + ^ x29: .cfa -48 + ^
STACK CFI 259f4 .cfa: sp 160 +
STACK CFI 25a04 .cfa: sp 0 +
STACK CFI 25a08 .cfa: x29 48 +
STACK CFI INIT 25ba0 bd4 .cfa: sp 0 +
STACK CFI 25ba4 .cfa: sp 240 +
STACK CFI 25bc0 .cfa: x29 96 + x19: .cfa -8 + ^ x20: .cfa -16 + ^ x21: .cfa -24 + ^ x22: .cfa -32 + ^ x23: .cfa -40 + ^ x24: .cfa -48 + ^ x25: .cfa -56 + ^ x26: .cfa -64 + ^ x27: .cfa -72 + ^ x28: .cfa -80 + ^ .ra: .cfa -88 + ^ x29: .cfa -96 + ^
STACK CFI 25f9c .cfa: sp 240 +
STACK CFI 25fb8 .cfa: sp 0 +
STACK CFI 25fbc .cfa: x29 96 +
STACK CFI 2661c .cfa: sp 240 +
STACK CFI 26638 .cfa: sp 0 +
STACK CFI 2663c .cfa: x29 96 +
STACK CFI INIT 2678c 41c .cfa: sp 0 +
STACK CFI 26790 .cfa: sp 224 +
STACK CFI 267ac .cfa: x29 96 + x19: .cfa -8 + ^ x20: .cfa -16 + ^ x21: .cfa -24 + ^ x22: .cfa -32 + ^ x23: .cfa -40 + ^ x24: .cfa -48 + ^ x25: .cfa -56 + ^ x26: .cfa -64 + ^ x27: .cfa -80 + ^ .ra: .cfa -88 + ^ x29: .cfa -96 + ^
STACK CFI 26a94 .cfa: sp 224 +
STACK CFI 26ab0 .cfa: sp 0 +
STACK CFI 26ab4 .cfa: x29 96 +
STACK CFI INIT 26bf8 74 .cfa: sp 0 +
STACK CFI 26bfc .cfa: sp 48 +
STACK CFI 26c08 .cfa: x29 32 + x19: .cfa -8 + ^ x20: .cfa -16 + ^ .ra: .cfa -24 + ^ x29: .cfa -32 + ^
STACK CFI 26c54 .cfa: sp 48 +
STACK CFI 26c60 .cfa: sp 0 +
STACK CFI 26c64 .cfa: x29 32 +
STACK CFI INIT 26c70 154 .cfa: sp 0 +
STACK CFI 26c74 .cfa: sp 384 +
STACK CFI 26c88 .cfa: x29 64 + x19: .cfa -8 + ^ x20: .cfa -16 + ^ x21: .cfa -24 + ^ x22: .cfa -32 + ^ x23: .cfa -40 + ^ x28: .cfa -48 + ^ .ra: .cfa -56 + ^ x29: .cfa -64 + ^
STACK CFI 26d6c .cfa: sp 384 +
STACK CFI 26d80 .cfa: sp 0 +
STACK CFI 26d84 .cfa: x29 64 +
STACK CFI INIT 26dc4 12c .cfa: sp 0 +
STACK CFI 26dc8 .cfa: sp 80 +
STACK CFI 26ddc .cfa: x29 80 + x19: .cfa -8 + ^ x20: .cfa -16 + ^ x21: .cfa -24 + ^ x22: .cfa -32 + ^ x23: .cfa -40 + ^ x24: .cfa -48 + ^ x25: .cfa -56 + ^ x26: .cfa -64 + ^ .ra: .cfa -72 + ^ x29: .cfa -80 + ^
STACK CFI 26ea4 .cfa: sp 80 +
STACK CFI 26eb8 .cfa: sp 0 +
STACK CFI 26ebc .cfa: x29 80 +
STACK CFI INIT 26f94 1a4 .cfa: sp 0 +
STACK CFI 26f98 .cfa: sp 112 +
STACK CFI 26fb0 .cfa: x29 80 + x19: .cfa -8 + ^ x20: .cfa -16 + ^ x21: .cfa -24 + ^ x22: .cfa -32 + ^ x23: .cfa -40 + ^ x24: .cfa -48 + ^ x25: .cfa -56 + ^ x26: .cfa -64 + ^ .ra: .cfa -72 + ^ x29: .cfa -80 + ^
STACK CFI 270a0 .cfa: sp 112 +
STACK CFI 270b8 .cfa: sp 0 +
STACK CFI 270bc .cfa: x29 80 +
STACK CFI INIT 27138 1dc .cfa: sp 0 +
STACK CFI 2713c .cfa: sp 128 +
STACK CFI 27158 .cfa: x29 96 + x19: .cfa -8 + ^ x20: .cfa -16 + ^ x21: .cfa -24 + ^ x22: .cfa -32 + ^ x23: .cfa -40 + ^ x24: .cfa -48 + ^ x25: .cfa -56 + ^ x26: .cfa -64 + ^ x27: .cfa -80 + ^ .ra: .cfa -88 + ^ x29: .cfa -96 + ^
STACK CFI 272c4 .cfa: sp 128 +
STACK CFI 272e0 .cfa: sp 0 +
STACK CFI 272e4 .cfa: x29 96 +
STACK CFI INIT 27314 178 .cfa: sp 0 +
STACK CFI 27318 .cfa: sp 80 +
STACK CFI 2732c .cfa: x29 80 + x19: .cfa -8 + ^ x20: .cfa -16 + ^ x21: .cfa -24 + ^ x22: .cfa -32 + ^ x23: .cfa -40 + ^ x24: .cfa -48 + ^ x25: .cfa -64 + ^ .ra: .cfa -72 + ^ x29: .cfa -80 + ^
STACK CFI 27458 .cfa: sp 80 +
STACK CFI 2746c .cfa: sp 0 +
STACK CFI 27470 .cfa: x29 80 +
STACK CFI INIT 276ec b20 .cfa: sp 0 +
STACK CFI 276f0 .cfa: sp 96 +
STACK CFI 27708 .cfa: x29 96 + x19: .cfa -8 + ^ x20: .cfa -16 + ^ x21: .cfa -24 + ^ x22: .cfa -32 + ^ x23: .cfa -40 + ^ x24: .cfa -48 + ^ x25: .cfa -56 + ^ x26: .cfa -64 + ^ x27: .cfa -72 + ^ x28: .cfa -80 + ^ .ra: .cfa -88 + ^ x29: .cfa -96 + ^
STACK CFI 28080 .cfa: sp 96 +
STACK CFI 28098 .cfa: sp 0 +
STACK CFI 2809c .cfa: x29 96 +
STACK CFI INIT 2820c a8 .cfa: sp 0 +
STACK CFI 28210 .cfa: sp 32 +
STACK CFI 28218 .cfa: x29 32 + x19: .cfa -16 + ^ .ra: .cfa -24 + ^ x29: .cfa -32 + ^
STACK CFI 2824c .cfa: sp 32 +
STACK CFI 28254 .cfa: sp 0 +
STACK CFI 28258 .cfa: x29 32 +
STACK CFI 2825c .cfa: sp 32 +
STACK CFI 28264 .cfa: sp 0 +
STACK CFI 28268 .cfa: x29 32 +
STACK CFI INIT 286f8 74 .cfa: sp 0 +
STACK CFI 286fc .cfa: sp 48 +
STACK CFI 28708 .cfa: x29 32 + x19: .cfa -8 + ^ x20: .cfa -16 + ^ .ra: .cfa -24 + ^ x29: .cfa -32 + ^
STACK CFI 28754 .cfa: sp 48 +
STACK CFI 28760 .cfa: sp 0 +
STACK CFI 28764 .cfa: x29 32 +
STACK CFI INIT 2880c 134 .cfa: sp 0 +
STACK CFI 28810 .cfa: sp 80 +
STACK CFI 2881c .cfa: x29 32 + x19: .cfa -8 + ^ x20: .cfa -16 + ^ .ra: .cfa -24 + ^ x29: .cfa -32 + ^
STACK CFI 2884c .cfa: sp 80 +
STACK CFI 28858 .cfa: sp 0 +
STACK CFI 2885c .cfa: x29 32 +
STACK CFI INIT 28940 78 .cfa: sp 0 +
STACK CFI 28944 .cfa: sp 32 +
STACK CFI 2894c .cfa: x29 32 + x19: .cfa -8 + ^ x20: .cfa -16 + ^ .ra: .cfa -24 + ^ x29: .cfa -32 + ^
STACK CFI 28958 .cfa: sp 32 +
STACK CFI 28960 .cfa: sp 0 +
STACK CFI 28964 .cfa: x29 32 +
STACK CFI INIT 289b8 74 .cfa: sp 0 +
STACK CFI 289bc .cfa: sp 48 +
STACK CFI 289c8 .cfa: x29 32 + x19: .cfa -8 + ^ x20: .cfa -16 + ^ .ra: .cfa -24 + ^ x29: .cfa -32 + ^
STACK CFI 28a14 .cfa: sp 48 +
STACK CFI 28a20 .cfa: sp 0 +
STACK CFI 28a24 .cfa: x29 32 +
STACK CFI INIT 28a90 224 .cfa: sp 0 +
STACK CFI 28a94 .cfa: sp 128 +
STACK CFI 28aa4 .cfa: x29 48 + x19: .cfa -8 + ^ x20: .cfa -16 + ^ x21: .cfa -32 + ^ .ra: .cfa -40 + ^ x29: .cfa -48 + ^
STACK CFI 28b54 .cfa: sp 128 +
STACK CFI 28b64 .cfa: sp 0 +
STACK CFI 28b68 .cfa: x29 48 +
STACK CFI INIT 28d50 300 .cfa: sp 0 +
STACK CFI 28d54 .cfa: sp 144 +
STACK CFI 28d68 .cfa: x29 64 + x19: .cfa -8 + ^ x20: .cfa -16 + ^ x21: .cfa -24 + ^ x22: .cfa -32 + ^ x23: .cfa -48 + ^ .ra: .cfa -56 + ^ x29: .cfa -64 + ^
STACK CFI 28efc .cfa: sp 144 +
STACK CFI 28f10 .cfa: sp 0 +
STACK CFI 28f14 .cfa: x29 64 +
STACK CFI INIT 290a4 264 .cfa: sp 0 +
STACK CFI 290a8 .cfa: sp 128 +
STACK CFI 290b8 .cfa: x29 48 + x19: .cfa -8 + ^ x20: .cfa -16 + ^ x21: .cfa -32 + ^ .ra: .cfa -40 + ^ x29: .cfa -48 + ^
STACK CFI 291b0 .cfa: sp 128 +
STACK CFI 291c0 .cfa: sp 0 +
STACK CFI 291c4 .cfa: x29 48 +
STACK CFI INIT 293b0 2e4 .cfa: sp 0 +
STACK CFI 293b4 .cfa: sp 144 +
STACK CFI 293c8 .cfa: x29 64 + x19: .cfa -8 + ^ x20: .cfa -16 + ^ x21: .cfa -24 + ^ x22: .cfa -32 + ^ x23: .cfa -48 + ^ .ra: .cfa -56 + ^ x29: .cfa -64 + ^
STACK CFI 29540 .cfa: sp 144 +
STACK CFI 29554 .cfa: sp 0 +
STACK CFI 29558 .cfa: x29 64 +
STACK CFI INIT 29694 2e4 .cfa: sp 0 +
STACK CFI 29698 .cfa: sp 144 +
STACK CFI 296ac .cfa: x29 64 + x19: .cfa -8 + ^ x20: .cfa -16 + ^ x21: .cfa -24 + ^ x22: .cfa -32 + ^ x23: .cfa -48 + ^ .ra: .cfa -56 + ^ x29: .cfa -64 + ^
STACK CFI 29824 .cfa: sp 144 +
STACK CFI 29838 .cfa: sp 0 +
STACK CFI 2983c .cfa: x29 64 +
STACK CFI INIT 29978 2a0 .cfa: sp 0 +
STACK CFI 2997c .cfa: sp 144 +
STACK CFI 29990 .cfa: x29 64 + x19: .cfa -8 + ^ x20: .cfa -16 + ^ x21: .cfa -24 + ^ x22: .cfa -32 + ^ x23: .cfa -48 + ^ .ra: .cfa -56 + ^ x29: .cfa -64 + ^
STACK CFI 29ac4 .cfa: sp 144 +
STACK CFI 29ad8 .cfa: sp 0 +
STACK CFI 29adc .cfa: x29 64 +
STACK CFI INIT 29c18 2f0 .cfa: sp 0 +
STACK CFI 29c1c .cfa: sp 144 +
STACK CFI 29c30 .cfa: x29 64 + x19: .cfa -8 + ^ x20: .cfa -16 + ^ x21: .cfa -24 + ^ x22: .cfa -32 + ^ x23: .cfa -48 + ^ .ra: .cfa -56 + ^ x29: .cfa -64 + ^
STACK CFI 29db4 .cfa: sp 144 +
STACK CFI 29dc8 .cfa: sp 0 +
STACK CFI 29dcc .cfa: x29 64 +
STACK CFI INIT 29f08 4f4 .cfa: sp 0 +
STACK CFI 29f0c .cfa: sp 144 +
STACK CFI 29f20 .cfa: x29 64 + x19: .cfa -8 + ^ x20: .cfa -16 + ^ x21: .cfa -24 + ^ x22: .cfa -32 + ^ x23: .cfa -48 + ^ .ra: .cfa -56 + ^ x29: .cfa -64 + ^
STACK CFI 2a254 .cfa: sp 144 +
STACK CFI 2a268 .cfa: sp 0 +
STACK CFI 2a26c .cfa: x29 64 +
STACK CFI INIT 2a3fc 154 .cfa: sp 0 +
STACK CFI 2a400 .cfa: sp 384 +
STACK CFI 2a414 .cfa: x29 64 + x19: .cfa -8 + ^ x20: .cfa -16 + ^ x21: .cfa -24 + ^ x22: .cfa -32 + ^ x23: .cfa -40 + ^ x28: .cfa -48 + ^ .ra: .cfa -56 + ^ x29: .cfa -64 + ^
STACK CFI 2a4f8 .cfa: sp 384 +
STACK CFI 2a50c .cfa: sp 0 +
STACK CFI 2a510 .cfa: x29 64 +
STACK CFI INIT 2a550 168 .cfa: sp 0 +
STACK CFI 2a554 .cfa: sp 384 +
STACK CFI 2a568 .cfa: x29 64 + x19: .cfa -8 + ^ x20: .cfa -16 + ^ x21: .cfa -24 + ^ x22: .cfa -32 + ^ x23: .cfa -40 + ^ x28: .cfa -48 + ^ .ra: .cfa -56 + ^ x29: .cfa -64 + ^
STACK CFI 2a660 .cfa: sp 384 +
STACK CFI 2a674 .cfa: sp 0 +
STACK CFI 2a678 .cfa: x29 64 +
STACK CFI INIT 2a6d0 50c .cfa: sp 0 +
STACK CFI 2a6d4 .cfa: sp 64 +
STACK CFI 2a6e4 .cfa: x29 64 + x19: .cfa -8 + ^ x20: .cfa -16 + ^ x21: .cfa -24 + ^ x22: .cfa -32 + ^ x23: .cfa -40 + ^ x24: .cfa -48 + ^ .ra: .cfa -56 + ^ x29: .cfa -64 + ^
STACK CFI 2a804 .cfa: sp 64 +
STACK CFI 2a814 .cfa: sp 0 +
STACK CFI 2a818 .cfa: x29 64 +
STACK CFI 2abb0 .cfa: sp 64 +
STACK CFI 2abc0 .cfa: sp 0 +
STACK CFI 2abc4 .cfa: x29 64 +
STACK CFI INIT 2af0c 294 .cfa: sp 0 +
STACK CFI 2af10 .cfa: sp 240 +
STACK CFI 2af28 .cfa: x29 80 + x19: .cfa -8 + ^ x20: .cfa -16 + ^ x21: .cfa -24 + ^ x22: .cfa -32 + ^ x23: .cfa -40 + ^ x24: .cfa -48 + ^ x25: .cfa -64 + ^ .ra: .cfa -72 + ^ x29: .cfa -80 + ^
STACK CFI 2b0c8 .cfa: sp 240 +
STACK CFI 2b0e0 .cfa: sp 0 +
STACK CFI 2b0e4 .cfa: x29 80 +
STACK CFI INIT 2b21c 50 .cfa: sp 0 +
STACK CFI 2b220 .cfa: sp 32 +
STACK CFI 2b228 .cfa: x29 32 + x19: .cfa -8 + ^ x20: .cfa -16 + ^ .ra: .cfa -24 + ^ x29: .cfa -32 + ^
STACK CFI INIT 2b298 7c0 .cfa: sp 0 +
STACK CFI 2b29c .cfa: sp 320 +
STACK CFI 2b2b8 .cfa: x29 96 + x19: .cfa -8 + ^ x20: .cfa -16 + ^ x21: .cfa -24 + ^ x22: .cfa -32 + ^ x23: .cfa -40 + ^ x24: .cfa -48 + ^ x25: .cfa -56 + ^ x26: .cfa -64 + ^ x27: .cfa -72 + ^ x28: .cfa -80 + ^ .ra: .cfa -88 + ^ x29: .cfa -96 + ^
STACK CFI 2b908 .cfa: sp 320 +
STACK CFI 2b924 .cfa: sp 0 +
STACK CFI 2b928 .cfa: x29 96 +
STACK CFI INIT 2fdd8 c74 .cfa: sp 0 +
STACK CFI 2fddc .cfa: sp 96 +
STACK CFI 2fdf4 .cfa: x29 96 + x19: .cfa -8 + ^ x20: .cfa -16 + ^ x21: .cfa -24 + ^ x22: .cfa -32 + ^ x23: .cfa -40 + ^ x24: .cfa -48 + ^ x25: .cfa -56 + ^ x26: .cfa -64 + ^ x27: .cfa -72 + ^ x28: .cfa -80 + ^ .ra: .cfa -88 + ^ x29: .cfa -96 + ^
STACK CFI 3086c .cfa: sp 96 +
STACK CFI 30884 .cfa: sp 0 +
STACK CFI 30888 .cfa: x29 96 +
STACK CFI INIT 30ba0 26c .cfa: sp 0 +
STACK CFI 30ba4 .cfa: sp 128 +
STACK CFI 30bb4 .cfa: x29 48 + x19: .cfa -8 + ^ x20: .cfa -16 + ^ x21: .cfa -24 + ^ x22: .cfa -32 + ^ .ra: .cfa -40 + ^ x29: .cfa -48 + ^
STACK CFI 30d58 .cfa: sp 128 +
STACK CFI 30d68 .cfa: sp 0 +
STACK CFI 30d6c .cfa: x29 48 +
STACK CFI INIT 31358 3b8 .cfa: sp 0 +
STACK CFI 3135c .cfa: sp 96 +
STACK CFI 31374 .cfa: x29 96 + x19: .cfa -8 + ^ x20: .cfa -16 + ^ x21: .cfa -24 + ^ x22: .cfa -32 + ^ x23: .cfa -40 + ^ x24: .cfa -48 + ^ x25: .cfa -56 + ^ x26: .cfa -64 + ^ x27: .cfa -72 + ^ x28: .cfa -80 + ^ .ra: .cfa -88 + ^ x29: .cfa -96 + ^
STACK CFI 316b0 .cfa: sp 96 +
STACK CFI 316c8 .cfa: sp 0 +
STACK CFI 316cc .cfa: x29 96 +
STACK CFI INIT 317b0 cb4 .cfa: sp 0 +
STACK CFI 317b4 .cfa: sp 96 +
STACK CFI 317cc .cfa: x29 96 + x19: .cfa -8 + ^ x20: .cfa -16 + ^ x21: .cfa -24 + ^ x22: .cfa -32 + ^ x23: .cfa -40 + ^ x24: .cfa -48 + ^ x25: .cfa -56 + ^ x26: .cfa -64 + ^ x27: .cfa -72 + ^ x28: .cfa -80 + ^ .ra: .cfa -88 + ^ x29: .cfa -96 + ^
STACK CFI 32274 .cfa: sp 96 +
STACK CFI 3228c .cfa: sp 0 +
STACK CFI 32290 .cfa: x29 96 +
STACK CFI INIT 3274c afc .cfa: sp 0 +
STACK CFI 32750 .cfa: sp 96 +
STACK CFI 32768 .cfa: x29 96 + x19: .cfa -8 + ^ x20: .cfa -16 + ^ x21: .cfa -24 + ^ x22: .cfa -32 + ^ x23: .cfa -40 + ^ x24: .cfa -48 + ^ x25: .cfa -56 + ^ x26: .cfa -64 + ^ x27: .cfa -72 + ^ x28: .cfa -80 + ^ .ra: .cfa -88 + ^ x29: .cfa -96 + ^
STACK CFI 331bc .cfa: sp 96 +
STACK CFI 331d4 .cfa: sp 0 +
STACK CFI 331d8 .cfa: x29 96 +
STACK CFI INIT 33424 1430 .cfa: sp 0 +
STACK CFI 33428 .cfa: sp 96 +
STACK CFI 33440 .cfa: x29 96 + x19: .cfa -8 + ^ x20: .cfa -16 + ^ x21: .cfa -24 + ^ x22: .cfa -32 + ^ x23: .cfa -40 + ^ x24: .cfa -48 + ^ x25: .cfa -56 + ^ x26: .cfa -64 + ^ x27: .cfa -72 + ^ x28: .cfa -80 + ^ .ra: .cfa -88 + ^ x29: .cfa -96 + ^
STACK CFI 346dc .cfa: sp 96 +
STACK CFI 346f4 .cfa: sp 0 +
STACK CFI 346f8 .cfa: x29 96 +
STACK CFI INIT 34978 75c .cfa: sp 0 +
STACK CFI 3497c .cfa: sp 368 +
STACK CFI 34998 .cfa: x29 96 + x19: .cfa -8 + ^ x20: .cfa -16 + ^ x21: .cfa -24 + ^ x22: .cfa -32 + ^ x23: .cfa -40 + ^ x24: .cfa -48 + ^ x25: .cfa -56 + ^ x26: .cfa -64 + ^ x27: .cfa -72 + ^ x28: .cfa -80 + ^ .ra: .cfa -88 + ^ x29: .cfa -96 + ^
STACK CFI 34a4c .cfa: sp 368 +
STACK CFI 34a68 .cfa: sp 0 +
STACK CFI 34a6c .cfa: x29 96 +
STACK CFI 34ac0 .cfa: sp 368 +
STACK CFI 34adc .cfa: sp 0 +
STACK CFI 34ae0 .cfa: x29 96 +
STACK CFI INIT 35494 eb0 .cfa: sp 0 +
STACK CFI 35498 .cfa: sp 96 +
STACK CFI 354b0 .cfa: x29 96 + x19: .cfa -8 + ^ x20: .cfa -16 + ^ x21: .cfa -24 + ^ x22: .cfa -32 + ^ x23: .cfa -40 + ^ x24: .cfa -48 + ^ x25: .cfa -56 + ^ x26: .cfa -64 + ^ x27: .cfa -72 + ^ x28: .cfa -80 + ^ .ra: .cfa -88 + ^ x29: .cfa -96 + ^
STACK CFI 36158 .cfa: sp 96 +
STACK CFI 36170 .cfa: sp 0 +
STACK CFI 36174 .cfa: x29 96 +
STACK CFI INIT 366b8 1c9c .cfa: sp 0 +
STACK CFI 366bc .cfa: sp 112 +
STACK CFI 366d8 .cfa: x29 96 + x19: .cfa -8 + ^ x20: .cfa -16 + ^ x21: .cfa -24 + ^ x22: .cfa -32 + ^ x23: .cfa -40 + ^ x24: .cfa -48 + ^ x25: .cfa -56 + ^ x26: .cfa -64 + ^ x27: .cfa -72 + ^ x28: .cfa -80 + ^ .ra: .cfa -88 + ^ x29: .cfa -96 + ^ v8: .cfa -112 + ^
STACK CFI 36ac0 .cfa: sp 112 +
STACK CFI 36adc .cfa: sp 0 +
STACK CFI 36ae0 .cfa: x29 96 +
STACK CFI INIT 3ab18 9a0 .cfa: sp 0 +
STACK CFI 3ab1c .cfa: sp 144 +
STACK CFI 3ab34 .cfa: x29 80 + x19: .cfa -8 + ^ x20: .cfa -16 + ^ x21: .cfa -24 + ^ x22: .cfa -32 + ^ x23: .cfa -40 + ^ x24: .cfa -48 + ^ x25: .cfa -64 + ^ .ra: .cfa -72 + ^ x29: .cfa -80 + ^
STACK CFI 3b434 .cfa: sp 144 +
STACK CFI 3b44c .cfa: sp 0 +
STACK CFI 3b450 .cfa: x29 80 +
STACK CFI INIT 3c9dc 57c .cfa: sp 0 +
STACK CFI 3c9e0 .cfa: sp 96 +
STACK CFI 3c9f8 .cfa: x29 96 + x19: .cfa -8 + ^ x20: .cfa -16 + ^ x21: .cfa -24 + ^ x22: .cfa -32 + ^ x23: .cfa -40 + ^ x24: .cfa -48 + ^ x25: .cfa -56 + ^ x26: .cfa -64 + ^ x27: .cfa -72 + ^ x28: .cfa -80 + ^ .ra: .cfa -88 + ^ x29: .cfa -96 + ^
STACK CFI 3cebc .cfa: sp 96 +
STACK CFI 3ced4 .cfa: sp 0 +
STACK CFI 3ced8 .cfa: x29 96 +
STACK CFI INIT 3cf58 67c .cfa: sp 0 +
STACK CFI 3cf5c .cfa: sp 96 +
STACK CFI 3cf74 .cfa: x29 96 + x19: .cfa -8 + ^ x20: .cfa -16 + ^ x21: .cfa -24 + ^ x22: .cfa -32 + ^ x23: .cfa -40 + ^ x24: .cfa -48 + ^ x25: .cfa -56 + ^ x26: .cfa -64 + ^ x27: .cfa -72 + ^ x28: .cfa -80 + ^ .ra: .cfa -88 + ^ x29: .cfa -96 + ^
STACK CFI 3d538 .cfa: sp 96 +
STACK CFI 3d550 .cfa: sp 0 +
STACK CFI 3d554 .cfa: x29 96 +
