MODULE Linux arm64 8249E8C5FEC13095C41F76E87A29A8510 coopeeo.hideplus.android64.so
INFO CODE_ID C5E84982C1FE9530C41F76E87A29A851C8431D39
INFO GENERATOR mozilla/dump_syms 2.3.4
PUBLIC 4ef0 0 __on_dlclose
PUBLIC 4f00 0 __emutls_unregister_key
PUBLIC 4f08 0 __on_dlclose_late
PUBLIC 4f10 0 __atexit_handler_wrapper
PUBLIC 4f24 0 atexit
PUBLIC 4f40 0 pthread_atfork
PUBLIC 4f50 0 __aarch64_ldadd8_relax
PUBLIC 4f80 0 init_have_lse_atomics
PUBLIC 5018 0 __init_cpu_features_constructor
PUBLIC 55b4 0 __init_cpu_features
PUBLIC 5640 0 __aarch64_ldadd8_acq_rel
PUBLIC 5670 0 __cxx_global_var_init
PUBLIC 5c48 0 geode::modifier::ModifyBase<geode::modifier::ModifyDerive<hook27<(anonymous namespace)::hook27Parent>, CreatorLayer> >::~ModifyBase()
PUBLIC 5c64 0 geode::modifier::ModifyDerive<hook27<(anonymous namespace)::hook27Parent>, CreatorLayer>::apply()
PUBLIC 5f78 0 std::__ndk1::shared_ptr<geode::Hook>::~shared_ptr[abi:ne180000]()
PUBLIC 5fc8 0 geode::impl::ResultData<geode::Hook*, std::__ndk1::basic_string<char, std::__ndk1::char_traits<char>, std::__ndk1::allocator<char> > >::~ResultData()
PUBLIC 603c 0 std::__ndk1::vector<std::__ndk1::basic_string<char, std::__ndk1::char_traits<char>, std::__ndk1::allocator<char> >, std::__ndk1::allocator<std::__ndk1::basic_string<char, std::__ndk1::char_traits<char>, std::__ndk1::allocator<char> > > >::~vector[abi:ne180000]()
PUBLIC 60b8 0 geode::modifier::ModifyBase<geode::modifier::ModifyDerive<hook27<(anonymous namespace)::hook27Parent>, CreatorLayer> >::apply()
PUBLIC 60bc 0 __clang_call_terminate
PUBLIC 60cc 0 std::__ndk1::basic_string<char, std::__ndk1::char_traits<char>, std::__ndk1::allocator<char> >::__throw_length_error[abi:ne180000]() const
PUBLIC 60e0 0 std::__ndk1::__throw_length_error[abi:ne180000](char const*)
PUBLIC 6130 0 std::length_error::length_error[abi:ne180000](char const*)
PUBLIC 6160 0 std::__throw_bad_array_new_length([abi:ne180000], void)
PUBLIC 6194 0 std::__ndk1::__tree<std::__ndk1::__value_type<std::__ndk1::basic_string<char, std::__ndk1::char_traits<char>, std::__ndk1::allocator<char> >, std::__ndk1::shared_ptr<geode::Hook> >, std::__ndk1::__map_value_compare<std::__ndk1::basic_string<char, std::__ndk1::char_traits<char>, std::__ndk1::allocator<char> >, std::__ndk1::__value_type<std::__ndk1::basic_string<char, std::__ndk1::char_traits<char>, std::__ndk1::allocator<char> >, std::__ndk1::shared_ptr<geode::Hook> >, std::__ndk1::less<std::__ndk1::basic_string<char, std::__ndk1::char_traits<char>, std::__ndk1::allocator<char> > >, true>, std::__ndk1::allocator<std::__ndk1::__value_type<std::__ndk1::basic_string<char, std::__ndk1::char_traits<char>, std::__ndk1::allocator<char> >, std::__ndk1::shared_ptr<geode::Hook> > > >::find<std::__ndk1::basic_string<char, std::__ndk1::char_traits<char>, std::__ndk1::allocator<char> > >(std::__ndk1::basic_string<char, std::__ndk1::char_traits<char>, std::__ndk1::allocator<char> > const&)
PUBLIC 62b4 0 std::__ndk1::__tree<std::__ndk1::__value_type<std::__ndk1::basic_string<char, std::__ndk1::char_traits<char>, std::__ndk1::allocator<char> >, std::__ndk1::shared_ptr<geode::Hook> >, std::__ndk1::__map_value_compare<std::__ndk1::basic_string<char, std::__ndk1::char_traits<char>, std::__ndk1::allocator<char> >, std::__ndk1::__value_type<std::__ndk1::basic_string<char, std::__ndk1::char_traits<char>, std::__ndk1::allocator<char> >, std::__ndk1::shared_ptr<geode::Hook> >, std::__ndk1::less<std::__ndk1::basic_string<char, std::__ndk1::char_traits<char>, std::__ndk1::allocator<char> > >, true>, std::__ndk1::allocator<std::__ndk1::__value_type<std::__ndk1::basic_string<char, std::__ndk1::char_traits<char>, std::__ndk1::allocator<char> >, std::__ndk1::shared_ptr<geode::Hook> > > >::__emplace_unique_key_args<std::__ndk1::basic_string<char, std::__ndk1::char_traits<char>, std::__ndk1::allocator<char> >, std::__ndk1::piecewise_construct_t const&, std::__ndk1::tuple<std::__ndk1::basic_string<char, std::__ndk1::char_traits<char>, std::__ndk1::allocator<char> > const&>, std::__ndk1::tuple<> >(std::__ndk1::basic_string<char, std::__ndk1::char_traits<char>, std::__ndk1::allocator<char> > const&, std::__ndk1::piecewise_construct_t const&, std::__ndk1::tuple<std::__ndk1::basic_string<char, std::__ndk1::char_traits<char>, std::__ndk1::allocator<char> > const&>, std::__ndk1::tuple<>)
PUBLIC 64a8 0 std::__ndk1::unique_ptr<std::__ndk1::__tree_node<std::__ndk1::__value_type<std::__ndk1::basic_string<char, std::__ndk1::char_traits<char>, std::__ndk1::allocator<char> >, std::__ndk1::shared_ptr<geode::Hook> >, void*>, std::__ndk1::__tree_node_destructor<std::__ndk1::allocator<std::__ndk1::__tree_node<std::__ndk1::__value_type<std::__ndk1::basic_string<char, std::__ndk1::char_traits<char>, std::__ndk1::allocator<char> >, std::__ndk1::shared_ptr<geode::Hook> >, void*> > > >::~unique_ptr[abi:ne180000]()
PUBLIC 6524 0 std::__ndk1::basic_string<char, std::__ndk1::char_traits<char>, std::__ndk1::allocator<char> >::__init_copy_ctor_external(char const*, unsigned long)
PUBLIC 65a4 0 std::__ndk1::__tree_balance_after_insert[abi:ne180000]<std::__ndk1::__tree_node_base<void*>*>(std::__ndk1::__tree_node_base<void*>*, std::__ndk1::__tree_node_base<void*>*)
PUBLIC 6754 0 _ZN5geode15UnwrapExceptionC2IRPNS_4HookEQsr4implE18IsStringStreamableIT_EEENS_4impl5OkTagEOS5_
PUBLIC 68a8 0 std::__ndk1::__throw_bad_variant_access[abi:ne180000]()
PUBLIC 68dc 0 std::__ndk1::basic_stringstream<char, std::__ndk1::char_traits<char>, std::__ndk1::allocator<char> >::basic_stringstream[abi:ne180000]()
PUBLIC m 6a08 0 std::__ndk1::basic_stringstream<char, std::__ndk1::char_traits<char>, std::__ndk1::allocator<char> >::~basic_stringstream()
PUBLIC 6a88 0 geode::UnwrapException::~UnwrapException()
PUBLIC 6aac 0 std::__ndk1::__put_character_sequence[abi:ne180000]<char, std::__ndk1::char_traits<char> >(std::__ndk1::basic_ostream<char, std::__ndk1::char_traits<char> >, std::__ndk1::basic_ostream const*, unsigned long)
PUBLIC 6c50 0 std::__ndk1::__pad_and_output[abi:ne180000]<char, std::__ndk1::char_traits<char> >(std::__ndk1::char_traits<char>, std::__ndk1::ostreambuf_iterator const*, std::__ndk1::ostreambuf_iterator const, std::__ndk1::ostreambuf_iterator const, std::__ndk1::ios_base&, std::__ndk1::ostreambuf_iterator)
PUBLIC 6e2c 0 std::__ndk1::basic_stringbuf<char, std::__ndk1::char_traits<char>, std::__ndk1::allocator<char> >::str[abi:ne180000]() &&
PUBLIC 6fa4 0 std::__ndk1::basic_stringbuf<char, std::__ndk1::char_traits<char>, std::__ndk1::allocator<char> >::__init_buf_ptrs[abi:ne180000]()
PUBLIC 70ec 0 std::__ndk1::__variant_detail::__visitation::__base::__dispatcher<(unsigned long)0>::__dispatch[abi:ne180000]<std::__ndk1::__variant_detail::__dtor<std::__ndk1::__variant_detail::__traits<std::__ndk1::monostate, std::__ndk1::basic_string<char, std::__ndk1::char_traits<char>, std::__ndk1::allocator<char> > >, (std::__ndk1::__variant_detail::_Trait)1>::__destroy[abi:ne180000]()::{lambda(auto:1&)#1}, std::__ndk1::__variant_detail::__base<(std::__ndk1::__variant_detail::__traits<std::__ndk1::monostate, std::__ndk1::basic_string<char, std::__ndk1::char_traits<char>, std::__ndk1::allocator<char> > >)1, std::__ndk1::__variant_detail::__traits, std::__ndk1::allocator<char> >&>(std::__ndk1::__variant_detail::__dtor<std::__ndk1::__variant_detail::__traits<std::__ndk1::monostate, std::__ndk1::basic_string<char, std::__ndk1::char_traits<char>, std::__ndk1::allocator<char> > >, (std::__ndk1::__variant_detail::_Trait)1>, std::__ndk1::__variant_detail::__base<(std::__ndk1::__variant_detail::__traits<std::__ndk1::monostate, std::__ndk1::basic_string<char, std::__ndk1::char_traits<char>, std::__ndk1::allocator<char> > >)1, std::__ndk1::__variant_detail::__traits, std::__ndk1::allocator<char> >&)
PUBLIC 70f0 0 std::__ndk1::__variant_detail::__visitation::__base::__dispatcher<(unsigned long)1>::__dispatch[abi:ne180000]<std::__ndk1::__variant_detail::__dtor<std::__ndk1::__variant_detail::__traits<std::__ndk1::monostate, std::__ndk1::basic_string<char, std::__ndk1::char_traits<char>, std::__ndk1::allocator<char> > >, (std::__ndk1::__variant_detail::_Trait)1>::__destroy[abi:ne180000]()::{lambda(auto:1&)#1}, std::__ndk1::__variant_detail::__base<(std::__ndk1::__variant_detail::__traits<std::__ndk1::monostate, std::__ndk1::basic_string<char, std::__ndk1::char_traits<char>, std::__ndk1::allocator<char> > >)1, std::__ndk1::__variant_detail::__traits, std::__ndk1::allocator<char> >&>(std::__ndk1::__variant_detail::__dtor<std::__ndk1::__variant_detail::__traits<std::__ndk1::monostate, std::__ndk1::basic_string<char, std::__ndk1::char_traits<char>, std::__ndk1::allocator<char> > >, (std::__ndk1::__variant_detail::_Trait)1>, std::__ndk1::__variant_detail::__base<(std::__ndk1::__variant_detail::__traits<std::__ndk1::monostate, std::__ndk1::basic_string<char, std::__ndk1::char_traits<char>, std::__ndk1::allocator<char> > >)1, std::__ndk1::__variant_detail::__traits, std::__ndk1::allocator<char> >&)
PUBLIC 7104 0 std::__ndk1::vector<std::__ndk1::basic_string<char, std::__ndk1::char_traits<char>, std::__ndk1::allocator<char> >, std::__ndk1::allocator<std::__ndk1::basic_string<char, std::__ndk1::char_traits<char>, std::__ndk1::allocator<char> > > >::__push_back_slow_path<std::__ndk1::basic_string<char, std::__ndk1::char_traits<char>, std::__ndk1::allocator<char> > const&>(std::__ndk1::basic_string<char, std::__ndk1::char_traits<char>, std::__ndk1::allocator<char> > const&)
PUBLIC 732c 0 std::__ndk1::__split_buffer<std::__ndk1::basic_string<char, std::__ndk1::char_traits<char>, std::__ndk1::allocator<char> >, std::__ndk1::allocator<std::__ndk1::basic_string<char, std::__ndk1::char_traits<char>, std::__ndk1::allocator<char> > >&>::~__split_buffer()
PUBLIC 7394 0 std::__ndk1::vector<std::__ndk1::basic_string<char, std::__ndk1::char_traits<char>, std::__ndk1::allocator<char> >, std::__ndk1::allocator<std::__ndk1::basic_string<char, std::__ndk1::char_traits<char>, std::__ndk1::allocator<char> > > >::__throw_length_error[abi:ne180000]() const
PUBLIC 73a8 0 std::__ndk1::__variant_detail::__visitation::__base::__dispatcher<(unsigned long)0>::__dispatch[abi:ne180000]<std::__ndk1::__variant_detail::__dtor<std::__ndk1::__variant_detail::__traits<geode::Hook*, std::__ndk1::basic_string<char, std::__ndk1::char_traits<char>, std::__ndk1::allocator<char> > >, (std::__ndk1::__variant_detail::_Trait)1>::__destroy[abi:ne180000]()::{lambda(auto:1&)#1}, std::__ndk1::__variant_detail::__base<(std::__ndk1::__variant_detail::__traits<geode::Hook*, std::__ndk1::basic_string<char, std::__ndk1::char_traits<char>, std::__ndk1::allocator<char> > >)1, geode::Hook, std::__ndk1::allocator<char> >&>(std::__ndk1::__variant_detail::__dtor<std::__ndk1::__variant_detail::__traits<geode::Hook*, std::__ndk1::basic_string<char, std::__ndk1::char_traits<char>, std::__ndk1::allocator<char> > >, (std::__ndk1::__variant_detail::_Trait)1>, std::__ndk1::__variant_detail::__base<(std::__ndk1::__variant_detail::__traits<geode::Hook*, std::__ndk1::basic_string<char, std::__ndk1::char_traits<char>, std::__ndk1::allocator<char> > >)1, geode::Hook, std::__ndk1::allocator<char> >&)
PUBLIC 73ac 0 std::__ndk1::__variant_detail::__visitation::__base::__dispatcher<(unsigned long)1>::__dispatch[abi:ne180000]<std::__ndk1::__variant_detail::__dtor<std::__ndk1::__variant_detail::__traits<geode::Hook*, std::__ndk1::basic_string<char, std::__ndk1::char_traits<char>, std::__ndk1::allocator<char> > >, (std::__ndk1::__variant_detail::_Trait)1>::__destroy[abi:ne180000]()::{lambda(auto:1&)#1}, std::__ndk1::__variant_detail::__base<(std::__ndk1::__variant_detail::__traits<geode::Hook*, std::__ndk1::basic_string<char, std::__ndk1::char_traits<char>, std::__ndk1::allocator<char> > >)1, geode::Hook, std::__ndk1::allocator<char> >&>(std::__ndk1::__variant_detail::__dtor<std::__ndk1::__variant_detail::__traits<geode::Hook*, std::__ndk1::basic_string<char, std::__ndk1::char_traits<char>, std::__ndk1::allocator<char> > >, (std::__ndk1::__variant_detail::_Trait)1>, std::__ndk1::__variant_detail::__base<(std::__ndk1::__variant_detail::__traits<geode::Hook*, std::__ndk1::basic_string<char, std::__ndk1::char_traits<char>, std::__ndk1::allocator<char> > >)1, geode::Hook, std::__ndk1::allocator<char> >&)
PUBLIC 73c0 0 std::__ndk1::__tree<std::__ndk1::__value_type<std::__ndk1::basic_string<char, std::__ndk1::char_traits<char>, std::__ndk1::allocator<char> >, std::__ndk1::shared_ptr<geode::Hook> >, std::__ndk1::__map_value_compare<std::__ndk1::basic_string<char, std::__ndk1::char_traits<char>, std::__ndk1::allocator<char> >, std::__ndk1::__value_type<std::__ndk1::basic_string<char, std::__ndk1::char_traits<char>, std::__ndk1::allocator<char> >, std::__ndk1::shared_ptr<geode::Hook> >, std::__ndk1::less<std::__ndk1::basic_string<char, std::__ndk1::char_traits<char>, std::__ndk1::allocator<char> > >, true>, std::__ndk1::allocator<std::__ndk1::__value_type<std::__ndk1::basic_string<char, std::__ndk1::char_traits<char>, std::__ndk1::allocator<char> >, std::__ndk1::shared_ptr<geode::Hook> > > >::erase(std::__ndk1::__tree_const_iterator<std::__ndk1::__value_type<std::__ndk1::basic_string<char, std::__ndk1::char_traits<char>, std::__ndk1::allocator<char> >, std::__ndk1::shared_ptr<geode::Hook> >, std::__ndk1::__tree_node<std::__ndk1::__value_type<std::__ndk1::basic_string<char, std::__ndk1::char_traits<char>, std::__ndk1::allocator<char> >, std::__ndk1::shared_ptr<geode::Hook> >, void*>*, long>)
PUBLIC 7494 0 std::__ndk1::__tree_remove[abi:ne180000]<std::__ndk1::__tree_node_base<void*>*>(std::__ndk1::__tree_node_base<void*>*, std::__ndk1::__tree_node_base<void*>*)
PUBLIC 785c 0 std::__ndk1::__tree<std::__ndk1::__value_type<std::__ndk1::basic_string<char, std::__ndk1::char_traits<char>, std::__ndk1::allocator<char> >, std::__ndk1::shared_ptr<geode::Hook> >, std::__ndk1::__map_value_compare<std::__ndk1::basic_string<char, std::__ndk1::char_traits<char>, std::__ndk1::allocator<char> >, std::__ndk1::__value_type<std::__ndk1::basic_string<char, std::__ndk1::char_traits<char>, std::__ndk1::allocator<char> >, std::__ndk1::shared_ptr<geode::Hook> >, std::__ndk1::less<std::__ndk1::basic_string<char, std::__ndk1::char_traits<char>, std::__ndk1::allocator<char> > >, true>, std::__ndk1::allocator<std::__ndk1::__value_type<std::__ndk1::basic_string<char, std::__ndk1::char_traits<char>, std::__ndk1::allocator<char> >, std::__ndk1::shared_ptr<geode::Hook> > > >::destroy(std::__ndk1::__tree_node<std::__ndk1::__value_type<std::__ndk1::basic_string<char, std::__ndk1::char_traits<char>, std::__ndk1::allocator<char> >, std::__ndk1::shared_ptr<geode::Hook> >, void*>*)
PUBLIC 78e8 0 geode::modifier::AsStaticFunction_init<hook27<(anonymous namespace)::hook27Parent>, bool (hook27<(anonymous namespace)::hook27Parent>::*)()>::Impl<bool (hook27<(anonymous namespace)::hook27Parent>::*)()>::function(hook27<(anonymous namespace)::hook27Parent>*)
PUBLIC 8400 0 geode::addresser::Addresser::addressOfVirtual<bool, CreatorLayer, >(bool (CreatorLayer::*)())
PUBLIC 84a8 0 CreatorLayer::CreatorLayer(geode::ZeroConstructorType)
PUBLIC 8540 0 std::__ndk1::shared_ptr<tulip::hook::CallingConvention>::~shared_ptr[abi:ne180000]()
PUBLIC 8590 0 tulip::hook::HandlerMetadata::~HandlerMetadata()
PUBLIC 85f4 0 geode::Mod::getSettingValue<bool>(std::__ndk1::basic_string_view<char, std::__ndk1::char_traits<char> >) const
PUBLIC 8728 0 remove(std::__ndk1::basic_string<char, std::__ndk1::char_traits<char>, std::__ndk1::allocator<char> >, cocos2d::CCMenu*, cocos2d::CCNode*)
PUBLIC 87fc 0 geode::cast::traverseTypeinfoFor(void*, geode::cast::ClassTypeinfoType const*, char const*)
PUBLIC 8900 0 std::__ndk1::__tree<std::__ndk1::__value_type<std::__ndk1::basic_string<char, std::__ndk1::char_traits<char>, std::__ndk1::allocator<char> >, std::__ndk1::shared_ptr<geode::Hook> >, std::__ndk1::__map_value_compare<std::__ndk1::basic_string<char, std::__ndk1::char_traits<char>, std::__ndk1::allocator<char> >, std::__ndk1::__value_type<std::__ndk1::basic_string<char, std::__ndk1::char_traits<char>, std::__ndk1::allocator<char> >, std::__ndk1::shared_ptr<geode::Hook> >, std::__ndk1::less<std::__ndk1::basic_string<char, std::__ndk1::char_traits<char>, std::__ndk1::allocator<char> > >, true>, std::__ndk1::allocator<std::__ndk1::__value_type<std::__ndk1::basic_string<char, std::__ndk1::char_traits<char>, std::__ndk1::allocator<char> >, std::__ndk1::shared_ptr<geode::Hook> > > >::__emplace_unique_key_args<std::__ndk1::basic_string<char, std::__ndk1::char_traits<char>, std::__ndk1::allocator<char> >, std::__ndk1::piecewise_construct_t const&, std::__ndk1::tuple<std::__ndk1::basic_string<char, std::__ndk1::char_traits<char>, std::__ndk1::allocator<char> >&&>, std::__ndk1::tuple<> >(std::__ndk1::basic_string<char, std::__ndk1::char_traits<char>, std::__ndk1::allocator<char> > const&, std::__ndk1::piecewise_construct_t const&, std::__ndk1::tuple<std::__ndk1::basic_string<char, std::__ndk1::char_traits<char>, std::__ndk1::allocator<char> >&&>, std::__ndk1::tuple<>)
PUBLIC 8a78 0 __cxx_global_var_init
PUBLIC 9050 0 geode::modifier::ModifyBase<geode::modifier::ModifyDerive<hook50<(anonymous namespace)::hook50Parent>, LevelSearchLayer> >::~ModifyBase()
PUBLIC 906c 0 geode::modifier::ModifyDerive<hook50<(anonymous namespace)::hook50Parent>, LevelSearchLayer>::apply()
PUBLIC 93cc 0 geode::modifier::ModifyBase<geode::modifier::ModifyDerive<hook50<(anonymous namespace)::hook50Parent>, LevelSearchLayer> >::apply()
PUBLIC 93d0 0 geode::modifier::AsStaticFunction_init<hook50<(anonymous namespace)::hook50Parent>, bool (hook50<(anonymous namespace)::hook50Parent>::*)(int)>::Impl<bool (hook50<(anonymous namespace)::hook50Parent>::*)(int)>::function(hook50<(anonymous namespace)::hook50Parent>*, int)
PUBLIC a988 0 remove(std::__ndk1::basic_string<char, std::__ndk1::char_traits<char>, std::__ndk1::allocator<char> >, cocos2d::CCMenu*, cocos2d::CCNode*)
PUBLIC aa5c 0 __cxx_global_var_init
PUBLIC b034 0 geode::modifier::ModifyBase<geode::modifier::ModifyDerive<hook7<(anonymous namespace)::hook7Parent>, MenuLayer> >::~ModifyBase()
PUBLIC b050 0 geode::modifier::ModifyDerive<hook7<(anonymous namespace)::hook7Parent>, MenuLayer>::apply()
PUBLIC b358 0 geode::modifier::ModifyBase<geode::modifier::ModifyDerive<hook7<(anonymous namespace)::hook7Parent>, MenuLayer> >::apply()
PUBLIC b35c 0 geode::modifier::AsStaticFunction_init<hook7<(anonymous namespace)::hook7Parent>, bool (hook7<(anonymous namespace)::hook7Parent>::*)()>::Impl<bool (hook7<(anonymous namespace)::hook7Parent>::*)()>::function(hook7<(anonymous namespace)::hook7Parent>*)
PUBLIC c034 0 geode::addresser::Addresser::addressOfVirtual<bool, MenuLayer, >(bool (MenuLayer::*)())
PUBLIC c0dc 0 MenuLayer::MenuLayer(geode::ZeroConstructorType)
PUBLIC c178 0 remove(std::__ndk1::basic_string<char, std::__ndk1::char_traits<char>, std::__ndk1::allocator<char> >, cocos2d::CCMenu*, cocos2d::CCNode*)
PUBLIC m c24c 0 geodeImplicitEntry
PUBLIC c290 0 <.plt ELF section in coopeeo.hideplus.android64.so>
STACK CFI INIT 4ef0 10 .cfa: sp 0 +
STACK CFI INIT 4f00 8 .cfa: sp 0 +
STACK CFI INIT 4f08 8 .cfa: sp 0 +
STACK CFI INIT 4f10 14 .cfa: sp 0 +
STACK CFI INIT 4f24 1c .cfa: sp 0 +
STACK CFI INIT 4f40 10 .cfa: sp 0 +
STACK CFI INIT 4f50 30 .cfa: sp 0 +
STACK CFI INIT 4f80 98 .cfa: sp 0 +
STACK CFI INIT 5018 59c .cfa: sp 0 +
STACK CFI INIT 55b4 8c .cfa: sp 0 +
STACK CFI INIT 5640 30 .cfa: sp 0 +
STACK CFI INIT 5c48 1c .cfa: sp 0 +
STACK CFI INIT 5f78 50 .cfa: sp 0 +
STACK CFI 5f7c .cfa: sp 32 +
STACK CFI 5f84 .cfa: x29 32 + x19: .cfa -16 + ^ .ra: .cfa -24 + ^ x29: .cfa -32 + ^
STACK CFI 5f9c .cfa: sp 32 +
STACK CFI 5fa4 .cfa: sp 0 +
STACK CFI 5fa8 .cfa: x29 32 +
STACK CFI 5fbc .cfa: sp 32 +
STACK CFI 5fc4 .cfa: sp 0 +
STACK CFI INIT 603c 7c .cfa: sp 0 +
STACK CFI 6040 .cfa: sp 48 +
STACK CFI 604c .cfa: x29 48 + x19: .cfa -8 + ^ x20: .cfa -16 + ^ x21: .cfa -32 + ^ .ra: .cfa -40 + ^ x29: .cfa -48 + ^
STACK CFI 6098 .cfa: sp 48 +
STACK CFI 60a4 .cfa: sp 0 +
STACK CFI 60a8 .cfa: sp 48 +
STACK CFI 60b4 .cfa: sp 0 +
STACK CFI INIT 60b8 4 .cfa: sp 0 +
STACK CFI INIT 60bc 10 .cfa: sp 0 +
STACK CFI 60c0 .cfa: sp 16 +
STACK CFI 60c4 .cfa: x29 16 + .ra: .cfa -8 + ^ x29: .cfa -16 + ^
STACK CFI INIT 60cc 14 .cfa: sp 0 +
STACK CFI 60d0 .cfa: sp 16 +
STACK CFI 60d4 .cfa: x29 16 + .ra: .cfa -8 + ^ x29: .cfa -16 + ^
STACK CFI INIT 6130 30 .cfa: sp 0 +
STACK CFI 6134 .cfa: sp 32 +
STACK CFI 613c .cfa: x29 32 + x19: .cfa -16 + ^ .ra: .cfa -24 + ^ x29: .cfa -32 + ^
STACK CFI 6154 .cfa: sp 32 +
STACK CFI 615c .cfa: sp 0 +
STACK CFI INIT 6160 34 .cfa: sp 0 +
STACK CFI 6164 .cfa: sp 32 +
STACK CFI 616c .cfa: x29 32 + x19: .cfa -16 + ^ .ra: .cfa -24 + ^ x29: .cfa -32 + ^
STACK CFI INIT 6194 120 .cfa: sp 0 +
STACK CFI 6198 .cfa: sp 64 +
STACK CFI 61a8 .cfa: x29 64 + x19: .cfa -8 + ^ x20: .cfa -16 + ^ x21: .cfa -24 + ^ x22: .cfa -32 + ^ x23: .cfa -40 + ^ x24: .cfa -48 + ^ .ra: .cfa -56 + ^ x29: .cfa -64 + ^
STACK CFI 62a0 .cfa: sp 64 +
STACK CFI 62b0 .cfa: sp 0 +
STACK CFI INIT 64a8 7c .cfa: sp 0 +
STACK CFI 64ac .cfa: sp 32 +
STACK CFI 64b4 .cfa: x29 32 + x19: .cfa -8 + ^ x20: .cfa -16 + ^ .ra: .cfa -24 + ^ x29: .cfa -32 + ^
STACK CFI 650c .cfa: sp 32 +
STACK CFI 6514 .cfa: sp 0 +
STACK CFI 6518 .cfa: sp 32 +
STACK CFI 6520 .cfa: sp 0 +
STACK CFI INIT 6524 80 .cfa: sp 0 +
STACK CFI 6528 .cfa: sp 48 +
STACK CFI 6534 .cfa: x29 48 + x19: .cfa -8 + ^ x20: .cfa -16 + ^ x21: .cfa -24 + ^ x22: .cfa -32 + ^ .ra: .cfa -40 + ^ x29: .cfa -48 + ^
STACK CFI 654c .cfa: sp 48 +
STACK CFI 6558 .cfa: sp 0 +
STACK CFI 655c .cfa: x29 48 +
STACK CFI 658c .cfa: sp 48 +
STACK CFI 6598 .cfa: sp 0 +
STACK CFI 659c .cfa: x29 48 +
STACK CFI INIT 65a4 1b0 .cfa: sp 0 +
STACK CFI INIT 68a8 34 .cfa: sp 0 +
STACK CFI 68ac .cfa: sp 16 +
STACK CFI 68b0 .cfa: x29 16 + .ra: .cfa -8 + ^ x29: .cfa -16 + ^
STACK CFI INIT 6a08 80 .cfa: sp 0 +
STACK CFI 6a0c .cfa: sp 48 +
STACK CFI 6a18 .cfa: x29 48 + x19: .cfa -8 + ^ x20: .cfa -16 + ^ x21: .cfa -32 + ^ .ra: .cfa -40 + ^ x29: .cfa -48 + ^
STACK CFI 6a78 .cfa: sp 48 +
STACK CFI 6a84 .cfa: sp 0 +
STACK CFI INIT 6a88 24 .cfa: sp 0 +
STACK CFI 6a8c .cfa: sp 32 +
STACK CFI 6a94 .cfa: x29 32 + x19: .cfa -16 + ^ .ra: .cfa -24 + ^ x29: .cfa -32 + ^
STACK CFI 6aa0 .cfa: sp 32 +
STACK CFI 6aa8 .cfa: sp 0 +
STACK CFI INIT 6fa4 148 .cfa: sp 0 +
STACK CFI 6fa8 .cfa: sp 48 +
STACK CFI 6fb4 .cfa: x29 48 + x19: .cfa -8 + ^ x20: .cfa -16 + ^ x21: .cfa -32 + ^ .ra: .cfa -40 + ^ x29: .cfa -48 + ^
STACK CFI 70dc .cfa: sp 48 +
STACK CFI 70e8 .cfa: sp 0 +
STACK CFI INIT 70ec 4 .cfa: sp 0 +
STACK CFI INIT 70f0 14 .cfa: sp 0 +
STACK CFI INIT 732c 68 .cfa: sp 0 +
STACK CFI 7330 .cfa: sp 32 +
STACK CFI 7338 .cfa: x29 32 + x19: .cfa -8 + ^ x20: .cfa -16 + ^ .ra: .cfa -24 + ^ x29: .cfa -32 + ^
STACK CFI 7350 .cfa: sp 32 +
STACK CFI 7358 .cfa: sp 0 +
STACK CFI 735c .cfa: x29 32 +
STACK CFI 7388 .cfa: sp 32 +
STACK CFI 7390 .cfa: sp 0 +
STACK CFI INIT 7394 14 .cfa: sp 0 +
STACK CFI 7398 .cfa: sp 16 +
STACK CFI 739c .cfa: x29 16 + .ra: .cfa -8 + ^ x29: .cfa -16 + ^
STACK CFI INIT 73a8 4 .cfa: sp 0 +
STACK CFI INIT 73ac 14 .cfa: sp 0 +
STACK CFI INIT 73c0 d4 .cfa: sp 0 +
STACK CFI 73c4 .cfa: sp 48 +
STACK CFI 73d0 .cfa: x29 48 + x19: .cfa -8 + ^ x20: .cfa -16 + ^ x21: .cfa -32 + ^ .ra: .cfa -40 + ^ x29: .cfa -48 + ^
STACK CFI 7460 .cfa: sp 48 +
STACK CFI 746c .cfa: sp 0 +
STACK CFI 7470 .cfa: x29 48 +
STACK CFI INIT 7494 3c8 .cfa: sp 0 +
STACK CFI INIT 785c 8c .cfa: sp 0 +
STACK CFI 7864 .cfa: sp 32 +
STACK CFI 786c .cfa: x29 32 + x19: .cfa -8 + ^ x20: .cfa -16 + ^ .ra: .cfa -24 + ^ x29: .cfa -32 + ^
STACK CFI 78b4 .cfa: sp 32 +
STACK CFI 78bc .cfa: sp 0 +
STACK CFI 78c4 .cfa: x29 32 +
STACK CFI INIT 84a8 98 .cfa: sp 0 +
STACK CFI INIT 8540 50 .cfa: sp 0 +
STACK CFI 8544 .cfa: sp 32 +
STACK CFI 854c .cfa: x29 32 + x19: .cfa -16 + ^ .ra: .cfa -24 + ^ x29: .cfa -32 + ^
STACK CFI 8564 .cfa: sp 32 +
STACK CFI 856c .cfa: sp 0 +
STACK CFI 8570 .cfa: x29 32 +
STACK CFI 8584 .cfa: sp 32 +
STACK CFI 858c .cfa: sp 0 +
STACK CFI INIT 8590 64 .cfa: sp 0 +
STACK CFI 8594 .cfa: sp 32 +
STACK CFI 859c .cfa: x29 32 + x19: .cfa -16 + ^ .ra: .cfa -24 + ^ x29: .cfa -32 + ^
STACK CFI 85c8 .cfa: sp 32 +
STACK CFI 85d0 .cfa: sp 0 +
STACK CFI 85d4 .cfa: x29 32 +
STACK CFI 85e8 .cfa: sp 32 +
STACK CFI 85f0 .cfa: sp 0 +
STACK CFI INIT 8728 d4 .cfa: sp 0 +
STACK CFI 872c .cfa: sp 48 +
STACK CFI 8738 .cfa: x29 48 + x19: .cfa -8 + ^ x20: .cfa -16 + ^ x21: .cfa -24 + ^ x22: .cfa -32 + ^ .ra: .cfa -40 + ^ x29: .cfa -48 + ^
STACK CFI 87dc .cfa: sp 48 +
STACK CFI 87e8 .cfa: sp 0 +
STACK CFI 87ec .cfa: sp 48 +
STACK CFI 87f8 .cfa: sp 0 +
STACK CFI INIT 87fc 104 .cfa: sp 0 +
STACK CFI 8800 .cfa: sp 64 +
STACK CFI 8810 .cfa: x29 64 + x19: .cfa -8 + ^ x20: .cfa -16 + ^ x21: .cfa -24 + ^ x22: .cfa -32 + ^ x23: .cfa -48 + ^ .ra: .cfa -56 + ^ x29: .cfa -64 + ^
STACK CFI 886c .cfa: sp 64 +
STACK CFI 887c .cfa: sp 0 +
STACK CFI 8880 .cfa: x29 64 +
STACK CFI 889c .cfa: sp 64 +
STACK CFI 88ac .cfa: sp 0 +
STACK CFI 88b0 .cfa: x29 64 +
STACK CFI 88ec .cfa: sp 64 +
STACK CFI 88fc .cfa: sp 0 +
STACK CFI INIT 8900 178 .cfa: sp 0 +
STACK CFI 8904 .cfa: sp 80 +
STACK CFI 8918 .cfa: x29 80 + x19: .cfa -8 + ^ x20: .cfa -16 + ^ x21: .cfa -24 + ^ x22: .cfa -32 + ^ x23: .cfa -40 + ^ x24: .cfa -48 + ^ x25: .cfa -56 + ^ x26: .cfa -64 + ^ .ra: .cfa -72 + ^ x29: .cfa -80 + ^
STACK CFI 8a60 .cfa: sp 80 +
STACK CFI 8a74 .cfa: sp 0 +
STACK CFI INIT 9050 1c .cfa: sp 0 +
STACK CFI INIT 93cc 4 .cfa: sp 0 +
STACK CFI INIT a988 d4 .cfa: sp 0 +
STACK CFI a98c .cfa: sp 48 +
STACK CFI a998 .cfa: x29 48 + x19: .cfa -8 + ^ x20: .cfa -16 + ^ x21: .cfa -24 + ^ x22: .cfa -32 + ^ .ra: .cfa -40 + ^ x29: .cfa -48 + ^
STACK CFI aa3c .cfa: sp 48 +
STACK CFI aa48 .cfa: sp 0 +
STACK CFI aa4c .cfa: sp 48 +
STACK CFI aa58 .cfa: sp 0 +
STACK CFI INIT b034 1c .cfa: sp 0 +
STACK CFI INIT b358 4 .cfa: sp 0 +
STACK CFI INIT c0dc 9c .cfa: sp 0 +
STACK CFI INIT c178 d4 .cfa: sp 0 +
STACK CFI c17c .cfa: sp 48 +
STACK CFI c188 .cfa: x29 48 + x19: .cfa -8 + ^ x20: .cfa -16 + ^ x21: .cfa -24 + ^ x22: .cfa -32 + ^ .ra: .cfa -40 + ^ x29: .cfa -48 + ^
STACK CFI c22c .cfa: sp 48 +
STACK CFI c238 .cfa: sp 0 +
STACK CFI c23c .cfa: sp 48 +
STACK CFI c248 .cfa: sp 0 +
STACK CFI INIT c24c 3c .cfa: sp 0 +
STACK CFI c250 .cfa: sp 32 +
STACK CFI c258 .cfa: x29 32 + x19: .cfa -16 + ^ .ra: .cfa -24 + ^ x29: .cfa -32 + ^
STACK CFI c264 .cfa: sp 32 +
STACK CFI c26c .cfa: sp 0 +
STACK CFI c270 .cfa: x29 32 +
STACK CFI c27c .cfa: sp 32 +
STACK CFI c284 .cfa: sp 0 +
STACK CFI INIT 5670 5d8 .cfa: sp 0 +
STACK CFI 5674 .cfa: sp 224 +
STACK CFI 5690 .cfa: x29 96 + x19: .cfa -8 + ^ x20: .cfa -16 + ^ x21: .cfa -24 + ^ x22: .cfa -32 + ^ x23: .cfa -40 + ^ x24: .cfa -48 + ^ x25: .cfa -56 + ^ x26: .cfa -64 + ^ x27: .cfa -72 + ^ x28: .cfa -80 + ^ .ra: .cfa -88 + ^ x29: .cfa -96 + ^
STACK CFI 5b08 .cfa: sp 224 +
STACK CFI 5b24 .cfa: sp 0 +
STACK CFI 5b28 .cfa: x29 96 +
STACK CFI INIT 5c64 314 .cfa: sp 0 +
STACK CFI 5c68 .cfa: sp 192 +
STACK CFI 5c7c .cfa: x29 64 + x19: .cfa -8 + ^ x20: .cfa -16 + ^ x21: .cfa -24 + ^ x22: .cfa -32 + ^ x23: .cfa -48 + ^ .ra: .cfa -56 + ^ x29: .cfa -64 + ^
STACK CFI 5e70 .cfa: sp 192 +
STACK CFI 5e84 .cfa: sp 0 +
STACK CFI 5e88 .cfa: x29 64 +
STACK CFI INIT 5fc8 74 .cfa: sp 0 +
STACK CFI 5fcc .cfa: sp 48 +
STACK CFI 5fd8 .cfa: x29 32 + x19: .cfa -8 + ^ x20: .cfa -16 + ^ .ra: .cfa -24 + ^ x29: .cfa -32 + ^
STACK CFI 6024 .cfa: sp 48 +
STACK CFI 6030 .cfa: sp 0 +
STACK CFI 6034 .cfa: x29 32 +
STACK CFI INIT 60e0 50 .cfa: sp 0 +
STACK CFI 60e4 .cfa: sp 32 +
STACK CFI 60ec .cfa: x29 32 + x19: .cfa -8 + ^ x20: .cfa -16 + ^ .ra: .cfa -24 + ^ x29: .cfa -32 + ^
STACK CFI INIT 62b4 1f4 .cfa: sp 0 +
STACK CFI 62b8 .cfa: sp 128 +
STACK CFI 62d4 .cfa: x29 96 + x19: .cfa -8 + ^ x20: .cfa -16 + ^ x21: .cfa -24 + ^ x22: .cfa -32 + ^ x23: .cfa -40 + ^ x24: .cfa -48 + ^ x25: .cfa -56 + ^ x26: .cfa -64 + ^ x27: .cfa -72 + ^ x28: .cfa -80 + ^ .ra: .cfa -88 + ^ x29: .cfa -96 + ^
STACK CFI 6460 .cfa: sp 128 +
STACK CFI 647c .cfa: sp 0 +
STACK CFI 6480 .cfa: x29 96 +
STACK CFI INIT 6754 154 .cfa: sp 0 +
STACK CFI 6758 .cfa: sp 384 +
STACK CFI 676c .cfa: x29 64 + x19: .cfa -8 + ^ x20: .cfa -16 + ^ x21: .cfa -24 + ^ x22: .cfa -32 + ^ x23: .cfa -40 + ^ x28: .cfa -48 + ^ .ra: .cfa -56 + ^ x29: .cfa -64 + ^
STACK CFI 6850 .cfa: sp 384 +
STACK CFI 6864 .cfa: sp 0 +
STACK CFI 6868 .cfa: x29 64 +
STACK CFI INIT 68dc 12c .cfa: sp 0 +
STACK CFI 68e0 .cfa: sp 80 +
STACK CFI 68f4 .cfa: x29 80 + x19: .cfa -8 + ^ x20: .cfa -16 + ^ x21: .cfa -24 + ^ x22: .cfa -32 + ^ x23: .cfa -40 + ^ x24: .cfa -48 + ^ x25: .cfa -56 + ^ x26: .cfa -64 + ^ .ra: .cfa -72 + ^ x29: .cfa -80 + ^
STACK CFI 69bc .cfa: sp 80 +
STACK CFI 69d0 .cfa: sp 0 +
STACK CFI 69d4 .cfa: x29 80 +
STACK CFI INIT 6aac 1a4 .cfa: sp 0 +
STACK CFI 6ab0 .cfa: sp 112 +
STACK CFI 6ac8 .cfa: x29 80 + x19: .cfa -8 + ^ x20: .cfa -16 + ^ x21: .cfa -24 + ^ x22: .cfa -32 + ^ x23: .cfa -40 + ^ x24: .cfa -48 + ^ x25: .cfa -56 + ^ x26: .cfa -64 + ^ .ra: .cfa -72 + ^ x29: .cfa -80 + ^
STACK CFI 6bb8 .cfa: sp 112 +
STACK CFI 6bd0 .cfa: sp 0 +
STACK CFI 6bd4 .cfa: x29 80 +
STACK CFI INIT 6c50 1dc .cfa: sp 0 +
STACK CFI 6c54 .cfa: sp 128 +
STACK CFI 6c70 .cfa: x29 96 + x19: .cfa -8 + ^ x20: .cfa -16 + ^ x21: .cfa -24 + ^ x22: .cfa -32 + ^ x23: .cfa -40 + ^ x24: .cfa -48 + ^ x25: .cfa -56 + ^ x26: .cfa -64 + ^ x27: .cfa -80 + ^ .ra: .cfa -88 + ^ x29: .cfa -96 + ^
STACK CFI 6ddc .cfa: sp 128 +
STACK CFI 6df8 .cfa: sp 0 +
STACK CFI 6dfc .cfa: x29 96 +
STACK CFI INIT 6e2c 178 .cfa: sp 0 +
STACK CFI 6e30 .cfa: sp 80 +
STACK CFI 6e44 .cfa: x29 80 + x19: .cfa -8 + ^ x20: .cfa -16 + ^ x21: .cfa -24 + ^ x22: .cfa -32 + ^ x23: .cfa -40 + ^ x24: .cfa -48 + ^ x25: .cfa -64 + ^ .ra: .cfa -72 + ^ x29: .cfa -80 + ^
STACK CFI 6f70 .cfa: sp 80 +
STACK CFI 6f84 .cfa: sp 0 +
STACK CFI 6f88 .cfa: x29 80 +
STACK CFI INIT 7104 228 .cfa: sp 0 +
STACK CFI 7108 .cfa: sp 128 +
STACK CFI 7120 .cfa: x29 80 + x19: .cfa -8 + ^ x20: .cfa -16 + ^ x21: .cfa -24 + ^ x22: .cfa -32 + ^ x23: .cfa -40 + ^ x24: .cfa -48 + ^ x25: .cfa -64 + ^ .ra: .cfa -72 + ^ x29: .cfa -80 + ^
STACK CFI 72bc .cfa: sp 128 +
STACK CFI 72d4 .cfa: sp 0 +
STACK CFI 72d8 .cfa: x29 80 +
STACK CFI INIT 78e8 b18 .cfa: sp 0 +
STACK CFI 78ec .cfa: sp 80 +
STACK CFI 7900 .cfa: x29 80 + x19: .cfa -8 + ^ x20: .cfa -16 + ^ x21: .cfa -24 + ^ x22: .cfa -32 + ^ x23: .cfa -40 + ^ x24: .cfa -48 + ^ x25: .cfa -56 + ^ x28: .cfa -64 + ^ .ra: .cfa -72 + ^ x29: .cfa -80 + ^
STACK CFI 82bc .cfa: sp 80 +
STACK CFI 82d0 .cfa: sp 0 +
STACK CFI 82d4 .cfa: x29 80 +
STACK CFI INIT 8400 a8 .cfa: sp 0 +
STACK CFI 8404 .cfa: sp 32 +
STACK CFI 840c .cfa: x29 32 + x19: .cfa -16 + ^ .ra: .cfa -24 + ^ x29: .cfa -32 + ^
STACK CFI 8440 .cfa: sp 32 +
STACK CFI 8448 .cfa: sp 0 +
STACK CFI 844c .cfa: x29 32 +
STACK CFI 8450 .cfa: sp 32 +
STACK CFI 8458 .cfa: sp 0 +
STACK CFI 845c .cfa: x29 32 +
STACK CFI INIT 85f4 134 .cfa: sp 0 +
STACK CFI 85f8 .cfa: sp 80 +
STACK CFI 8608 .cfa: x29 48 + x19: .cfa -8 + ^ x20: .cfa -16 + ^ x21: .cfa -24 + ^ x22: .cfa -32 + ^ .ra: .cfa -40 + ^ x29: .cfa -48 + ^
STACK CFI 870c .cfa: sp 80 +
STACK CFI 871c .cfa: sp 0 +
STACK CFI 8720 .cfa: x29 48 +
STACK CFI INIT 8a78 5d8 .cfa: sp 0 +
STACK CFI 8a7c .cfa: sp 224 +
STACK CFI 8a98 .cfa: x29 96 + x19: .cfa -8 + ^ x20: .cfa -16 + ^ x21: .cfa -24 + ^ x22: .cfa -32 + ^ x23: .cfa -40 + ^ x24: .cfa -48 + ^ x25: .cfa -56 + ^ x26: .cfa -64 + ^ x27: .cfa -72 + ^ x28: .cfa -80 + ^ .ra: .cfa -88 + ^ x29: .cfa -96 + ^
STACK CFI 8f10 .cfa: sp 224 +
STACK CFI 8f2c .cfa: sp 0 +
STACK CFI 8f30 .cfa: x29 96 +
STACK CFI INIT 906c 360 .cfa: sp 0 +
STACK CFI 9070 .cfa: sp 192 +
STACK CFI 9084 .cfa: x29 64 + x19: .cfa -8 + ^ x20: .cfa -16 + ^ x21: .cfa -24 + ^ x22: .cfa -32 + ^ x23: .cfa -40 + ^ x24: .cfa -48 + ^ .ra: .cfa -56 + ^ x29: .cfa -64 + ^
STACK CFI 92a8 .cfa: sp 192 +
STACK CFI 92bc .cfa: sp 0 +
STACK CFI 92c0 .cfa: x29 64 +
STACK CFI INIT 93d0 15b8 .cfa: sp 0 +
STACK CFI 93d4 .cfa: sp 96 +
STACK CFI 93ec .cfa: x29 96 + x19: .cfa -8 + ^ x20: .cfa -16 + ^ x21: .cfa -24 + ^ x22: .cfa -32 + ^ x23: .cfa -40 + ^ x24: .cfa -48 + ^ x25: .cfa -56 + ^ x26: .cfa -64 + ^ x27: .cfa -72 + ^ x28: .cfa -80 + ^ .ra: .cfa -88 + ^ x29: .cfa -96 + ^
STACK CFI a748 .cfa: sp 96 +
STACK CFI a760 .cfa: sp 0 +
STACK CFI a764 .cfa: x29 96 +
STACK CFI INIT aa5c 5d8 .cfa: sp 0 +
STACK CFI aa60 .cfa: sp 224 +
STACK CFI aa7c .cfa: x29 96 + x19: .cfa -8 + ^ x20: .cfa -16 + ^ x21: .cfa -24 + ^ x22: .cfa -32 + ^ x23: .cfa -40 + ^ x24: .cfa -48 + ^ x25: .cfa -56 + ^ x26: .cfa -64 + ^ x27: .cfa -72 + ^ x28: .cfa -80 + ^ .ra: .cfa -88 + ^ x29: .cfa -96 + ^
STACK CFI aef4 .cfa: sp 224 +
STACK CFI af10 .cfa: sp 0 +
STACK CFI af14 .cfa: x29 96 +
STACK CFI INIT b050 308 .cfa: sp 0 +
STACK CFI b054 .cfa: sp 176 +
STACK CFI b068 .cfa: x29 64 + x19: .cfa -8 + ^ x20: .cfa -16 + ^ x21: .cfa -24 + ^ x22: .cfa -32 + ^ x23: .cfa -48 + ^ .ra: .cfa -56 + ^ x29: .cfa -64 + ^
STACK CFI b250 .cfa: sp 176 +
STACK CFI b264 .cfa: sp 0 +
STACK CFI b268 .cfa: x29 64 +
STACK CFI INIT b35c cd8 .cfa: sp 0 +
STACK CFI b360 .cfa: sp 96 +
STACK CFI b378 .cfa: x29 96 + x19: .cfa -8 + ^ x20: .cfa -16 + ^ x21: .cfa -24 + ^ x22: .cfa -32 + ^ x23: .cfa -40 + ^ x24: .cfa -48 + ^ x25: .cfa -56 + ^ x26: .cfa -64 + ^ x27: .cfa -72 + ^ x28: .cfa -80 + ^ .ra: .cfa -88 + ^ x29: .cfa -96 + ^
STACK CFI be4c .cfa: sp 96 +
STACK CFI be64 .cfa: sp 0 +
STACK CFI be68 .cfa: x29 96 +
STACK CFI INIT c034 a8 .cfa: sp 0 +
STACK CFI c038 .cfa: sp 32 +
STACK CFI c040 .cfa: x29 32 + x19: .cfa -16 + ^ .ra: .cfa -24 + ^ x29: .cfa -32 + ^
STACK CFI c074 .cfa: sp 32 +
STACK CFI c07c .cfa: sp 0 +
STACK CFI c080 .cfa: x29 32 +
STACK CFI c084 .cfa: sp 32 +
STACK CFI c08c .cfa: sp 0 +
STACK CFI c090 .cfa: x29 32 +
