MODULE Linux arm64 76669E9A2B79F596AE2074DE9C62CCC80 firee.deck.android64.so
INFO CODE_ID 9A9E6676792B96F5AE2074DE9C62CCC8608189E8
INFO GENERATOR mozilla/dump_syms 2.3.4
PUBLIC 339c0 0 __on_dlclose
PUBLIC 339d0 0 __emutls_unregister_key
PUBLIC 339d8 0 __on_dlclose_late
PUBLIC 339e0 0 __atexit_handler_wrapper
PUBLIC 339f4 0 atexit
PUBLIC 33a10 0 pthread_atfork
PUBLIC 33a20 0 unwind_phase2
PUBLIC 33b54 0 _Unwind_Resume
PUBLIC 33bd8 0 unwind_phase2_forced
PUBLIC m 33ccc 0 __unw_init_local
PUBLIC m 33d74 0 __unw_get_reg
PUBLIC 33df0 0 __unw_step_stage2
PUBLIC m 33e04 0 __unw_get_proc_info
PUBLIC m 33e44 0 __unw_resume
PUBLIC 33e6c 0 libunwind::CFI_Parser<libunwind::LocalAddressSpace>::decodeFDE(libunwind::LocalAddressSpace&, unsigned long, libunwind::CFI_Parser<libunwind::LocalAddressSpace>::FDE_Info*, libunwind::CFI_Parser<libunwind::LocalAddressSpace>::CIE_Info*, bool)
PUBLIC 33ffc 0 libunwind::CFI_Parser<libunwind::LocalAddressSpace>::parseCIE(libunwind::LocalAddressSpace&, unsigned long, libunwind::CFI_Parser<libunwind::LocalAddressSpace>::CIE_Info*)
PUBLIC 342c4 0 libunwind::AbstractUnwindCursor::~AbstractUnwindCursor()
PUBLIC 342cc 0 libunwind::UnwindCursor<libunwind::LocalAddressSpace, libunwind::Registers_arm64>::~UnwindCursor()
PUBLIC 342d4 0 libunwind::UnwindCursor<libunwind::LocalAddressSpace, libunwind::Registers_arm64>::validReg(int)
PUBLIC 34318 0 libunwind::UnwindCursor<libunwind::LocalAddressSpace, libunwind::Registers_arm64>::getReg(int)
PUBLIC 34400 0 libunwind::UnwindCursor<libunwind::LocalAddressSpace, libunwind::Registers_arm64>::setReg(int, unsigned long)
PUBLIC 344e8 0 libunwind::UnwindCursor<libunwind::LocalAddressSpace, libunwind::Registers_arm64>::validFloatReg(int)
PUBLIC 344fc 0 libunwind::UnwindCursor<libunwind::LocalAddressSpace, libunwind::Registers_arm64>::getFloatReg(int)
PUBLIC 3450c 0 libunwind::UnwindCursor<libunwind::LocalAddressSpace, libunwind::Registers_arm64>::setFloatReg(int, double)
PUBLIC 3451c 0 libunwind::UnwindCursor<libunwind::LocalAddressSpace, libunwind::Registers_arm64>::step(bool)
PUBLIC 3460c 0 libunwind::UnwindCursor<libunwind::LocalAddressSpace, libunwind::Registers_arm64>::getInfo(unw_proc_info_t*)
PUBLIC 34650 0 libunwind::UnwindCursor<libunwind::LocalAddressSpace, libunwind::Registers_arm64>::jumpto()
PUBLIC 3465c 0 libunwind::UnwindCursor<libunwind::LocalAddressSpace, libunwind::Registers_arm64>::isSignalFrame()
PUBLIC 34668 0 libunwind::UnwindCursor<libunwind::LocalAddressSpace, libunwind::Registers_arm64>::getFunctionName(char*, unsigned long, unsigned long*)
PUBLIC 34694 0 libunwind::UnwindCursor<libunwind::LocalAddressSpace, libunwind::Registers_arm64>::setInfoBasedOnIPRegister(bool)
PUBLIC 34914 0 libunwind::UnwindCursor<libunwind::LocalAddressSpace, libunwind::Registers_arm64>::getRegisterName(int)
PUBLIC 34920 0 libunwind::UnwindCursor<libunwind::LocalAddressSpace, libunwind::Registers_arm64>::stepThroughSigReturn(libunwind::Registers_arm64&)
PUBLIC 34a40 0 libunwind::DwarfInstructions<libunwind::LocalAddressSpace, libunwind::Registers_arm64>::stepWithDwarf(libunwind::LocalAddressSpace&, unsigned long, unsigned long, libunwind::Registers_arm64&, bool&, bool)
PUBLIC 34ec8 0 libunwind::CFI_Parser<libunwind::LocalAddressSpace>::parseFDEInstructions(libunwind::LocalAddressSpace&, libunwind::CFI_Parser<libunwind::LocalAddressSpace>::FDE_Info const&, libunwind::CFI_Parser<libunwind::LocalAddressSpace>::CIE_Info const&, unsigned long, int, libunwind::CFI_Parser<libunwind::LocalAddressSpace>::PrologInfo*)
PUBLIC 35b10 0 libunwind::DwarfInstructions<libunwind::LocalAddressSpace, libunwind::Registers_arm64>::getCFA(libunwind::LocalAddressSpace&, libunwind::CFI_Parser<libunwind::LocalAddressSpace>::PrologInfo const&, libunwind::Registers_arm64 const&)
PUBLIC 35c44 0 libunwind::DwarfInstructions<libunwind::LocalAddressSpace, libunwind::Registers_arm64>::getSavedRegister(libunwind::LocalAddressSpace&, libunwind::Registers_arm64 const&, unsigned long, libunwind::CFI_Parser<libunwind::LocalAddressSpace>::RegisterLocation const&)
PUBLIC 35e54 0 libunwind::LocalAddressSpace::getEncodedP(unsigned long&, unsigned long, unsigned char, unsigned long)
PUBLIC 361e0 0 libunwind::LocalAddressSpace::getULEB128(unsigned long&, unsigned long)
PUBLIC 363a8 0 libunwind::DwarfInstructions<libunwind::LocalAddressSpace, libunwind::Registers_arm64>::evaluateExpression(unsigned long, libunwind::LocalAddressSpace&, libunwind::Registers_arm64 const&, unsigned long)
PUBLIC 36d64 0 libunwind::UnwindCursor<libunwind::LocalAddressSpace, libunwind::Registers_arm64>::getInfoFromDwarfSection(unsigned long, libunwind::UnwindInfoSections const&, unsigned int)
PUBLIC 37038 0 libunwind::findUnwindSectionsByPhdr(dl_phdr_info*, unsigned long, void*)
PUBLIC 3716c 0 libunwind::EHHeaderParser<libunwind::LocalAddressSpace>::decodeEHHdr(libunwind::LocalAddressSpace&, unsigned long, unsigned long, libunwind::EHHeaderParser<libunwind::LocalAddressSpace>::EHHeaderInfo&)
PUBLIC 3728c 0 libunwind::CFI_Parser<libunwind::LocalAddressSpace>::findFDE(libunwind::LocalAddressSpace&, unsigned long, unsigned long, unsigned long, unsigned long, libunwind::CFI_Parser<libunwind::LocalAddressSpace>::FDE_Info*, libunwind::CFI_Parser<libunwind::LocalAddressSpace>::CIE_Info*)
PUBLIC 37454 0 libunwind::EHHeaderParser<libunwind::LocalAddressSpace>::findFDE(libunwind::LocalAddressSpace&, unsigned long, unsigned long, unsigned int, libunwind::CFI_Parser<libunwind::LocalAddressSpace>::FDE_Info*, libunwind::CFI_Parser<libunwind::LocalAddressSpace>::CIE_Info*)
PUBLIC 375bc 0 libunwind::EHHeaderParser<libunwind::LocalAddressSpace>::getTableEntrySize(unsigned char)
PUBLIC 376b8 0 libunwind::Registers_arm64::getRegisterName(int)
PUBLIC 376e8 0 __libunwind_Registers_arm64_jumpto
PUBLIC m 37778 0 __unw_getcontext
FUNC 37814 20 0 geode::Ref<cocos2d::CCDictionary>::~Ref()
PUBLIC 37834 0 __clang_call_terminate
FUNC 37844 3c 0 _GLOBAL__sub_I_Variables.cpp
PUBLIC 37880 0 __aarch64_ldadd8_relax
PUBLIC 378b0 0 init_have_lse_atomics
PUBLIC 37948 0 __init_cpu_features_constructor
PUBLIC 37ee4 0 __init_cpu_features
PUBLIC 37f70 0 __aarch64_ldadd8_acq_rel
FUNC 37fa0 444 0 __cxx_global_var_init
FUNC 383e4 1c 0 geode::modifier::ModifyBase<geode::modifier::ModifyDerive<BigPicIntro, LoadingLayer> >::~ModifyBase()
FUNC 38400 9b0 0 geode::modifier::ModifyDerive<BigPicIntro, LoadingLayer>::apply()
FUNC 38db0 50 0 std::__ndk1::shared_ptr<geode::Hook>::~shared_ptr[abi:ne180000]()
FUNC 38e00 74 0 geode::impl::ResultData<geode::Hook*, std::__ndk1::basic_string<char, std::__ndk1::char_traits<char>, std::__ndk1::allocator<char> > >::~ResultData()
FUNC 38e74 7c 0 std::__ndk1::vector<std::__ndk1::basic_string<char, std::__ndk1::char_traits<char>, std::__ndk1::allocator<char> >, std::__ndk1::allocator<std::__ndk1::basic_string<char, std::__ndk1::char_traits<char>, std::__ndk1::allocator<char> > > >::~vector[abi:ne180000]()
FUNC 38ef0 4 0 geode::modifier::ModifyBase<geode::modifier::ModifyDerive<BigPicIntro, LoadingLayer> >::apply()
FUNC 38ef4 154 0 _ZN5geode15UnwrapExceptionC2IRPNS_4HookEQsr4implE18IsStringStreamableIT_EEENS_4impl5OkTagEOS5_
FUNC 39048 34 0 std::__ndk1::__throw_bad_variant_access[abi:ne180000]()
FUNC 3907c 124 0 std::__ndk1::basic_stringstream<char, std::__ndk1::char_traits<char>, std::__ndk1::allocator<char> >::basic_stringstream[abi:ne180000]()
FUNC 391a0 80 0 std::__ndk1::basic_stringstream<char, std::__ndk1::char_traits<char>, std::__ndk1::allocator<char> >::~basic_stringstream()
FUNC 39220 24 0 geode::UnwrapException::~UnwrapException()
FUNC 39244 198 0 std::__ndk1::__put_character_sequence[abi:ne180000]<char, std::__ndk1::char_traits<char> >(std::__ndk1::basic_ostream<char, std::__ndk1::char_traits<char> >, std::__ndk1::basic_ostream const*, unsigned long)
FUNC 393dc 1b4 0 std::__ndk1::__pad_and_output[abi:ne180000]<char, std::__ndk1::char_traits<char> >(std::__ndk1::char_traits<char>, std::__ndk1::ostreambuf_iterator const*, std::__ndk1::ostreambuf_iterator const, std::__ndk1::ostreambuf_iterator const, std::__ndk1::ios_base&, std::__ndk1::ostreambuf_iterator)
FUNC 39590 14 0 std::__ndk1::basic_string<char, std::__ndk1::char_traits<char>, std::__ndk1::allocator<char> >::__throw_length_error[abi:ne180000]() const
FUNC 395a4 50 0 std::__ndk1::__throw_length_error[abi:ne180000](char const*)
FUNC 395f4 30 0 std::length_error::length_error[abi:ne180000](char const*)
FUNC 39624 34 0 std::__throw_bad_array_new_length([abi:ne180000], void)
FUNC 39658 15c 0 std::__ndk1::basic_stringbuf<char, std::__ndk1::char_traits<char>, std::__ndk1::allocator<char> >::str[abi:ne180000]() &&
FUNC 397b4 148 0 std::__ndk1::basic_stringbuf<char, std::__ndk1::char_traits<char>, std::__ndk1::allocator<char> >::__init_buf_ptrs[abi:ne180000]()
FUNC 398fc 21c 0 std::__ndk1::vector<std::__ndk1::basic_string<char, std::__ndk1::char_traits<char>, std::__ndk1::allocator<char> >, std::__ndk1::allocator<std::__ndk1::basic_string<char, std::__ndk1::char_traits<char>, std::__ndk1::allocator<char> > > >::__push_back_slow_path<std::__ndk1::basic_string<char, std::__ndk1::char_traits<char>, std::__ndk1::allocator<char> > const&>(std::__ndk1::basic_string<char, std::__ndk1::char_traits<char>, std::__ndk1::allocator<char> > const&)
FUNC 39b18 70 0 std::__ndk1::basic_string<char, std::__ndk1::char_traits<char>, std::__ndk1::allocator<char> >::__init_copy_ctor_external(char const*, unsigned long)
FUNC 39b88 68 0 std::__ndk1::__split_buffer<std::__ndk1::basic_string<char, std::__ndk1::char_traits<char>, std::__ndk1::allocator<char> >, std::__ndk1::allocator<std::__ndk1::basic_string<char, std::__ndk1::char_traits<char>, std::__ndk1::allocator<char> > >&>::~__split_buffer()
FUNC 39bf0 14 0 std::__ndk1::vector<std::__ndk1::basic_string<char, std::__ndk1::char_traits<char>, std::__ndk1::allocator<char> >, std::__ndk1::allocator<std::__ndk1::basic_string<char, std::__ndk1::char_traits<char>, std::__ndk1::allocator<char> > > >::__throw_length_error[abi:ne180000]() const
FUNC 39c04 4 0 std::__ndk1::__variant_detail::__visitation::__base::__dispatcher<(unsigned long)0>::__dispatch[abi:ne180000]<std::__ndk1::__variant_detail::__dtor<std::__ndk1::__variant_detail::__traits<geode::Hook*, std::__ndk1::basic_string<char, std::__ndk1::char_traits<char>, std::__ndk1::allocator<char> > >, (std::__ndk1::__variant_detail::_Trait)1>::__destroy[abi:ne180000]()::{lambda(auto:1&)#1}, std::__ndk1::__variant_detail::__base<(std::__ndk1::__variant_detail::__traits<geode::Hook*, std::__ndk1::basic_string<char, std::__ndk1::char_traits<char>, std::__ndk1::allocator<char> > >)1, geode::Hook, std::__ndk1::allocator<char> >&>(std::__ndk1::__variant_detail::__dtor<std::__ndk1::__variant_detail::__traits<geode::Hook*, std::__ndk1::basic_string<char, std::__ndk1::char_traits<char>, std::__ndk1::allocator<char> > >, (std::__ndk1::__variant_detail::_Trait)1>, std::__ndk1::__variant_detail::__base<(std::__ndk1::__variant_detail::__traits<geode::Hook*, std::__ndk1::basic_string<char, std::__ndk1::char_traits<char>, std::__ndk1::allocator<char> > >)1, geode::Hook, std::__ndk1::allocator<char> >&)
FUNC 39c08 14 0 std::__ndk1::__variant_detail::__visitation::__base::__dispatcher<(unsigned long)1>::__dispatch[abi:ne180000]<std::__ndk1::__variant_detail::__dtor<std::__ndk1::__variant_detail::__traits<geode::Hook*, std::__ndk1::basic_string<char, std::__ndk1::char_traits<char>, std::__ndk1::allocator<char> > >, (std::__ndk1::__variant_detail::_Trait)1>::__destroy[abi:ne180000]()::{lambda(auto:1&)#1}, std::__ndk1::__variant_detail::__base<(std::__ndk1::__variant_detail::__traits<geode::Hook*, std::__ndk1::basic_string<char, std::__ndk1::char_traits<char>, std::__ndk1::allocator<char> > >)1, geode::Hook, std::__ndk1::allocator<char> >&>(std::__ndk1::__variant_detail::__dtor<std::__ndk1::__variant_detail::__traits<geode::Hook*, std::__ndk1::basic_string<char, std::__ndk1::char_traits<char>, std::__ndk1::allocator<char> > >, (std::__ndk1::__variant_detail::_Trait)1>, std::__ndk1::__variant_detail::__base<(std::__ndk1::__variant_detail::__traits<geode::Hook*, std::__ndk1::basic_string<char, std::__ndk1::char_traits<char>, std::__ndk1::allocator<char> > >)1, geode::Hook, std::__ndk1::allocator<char> >&)
FUNC 39c1c fc 0 std::__ndk1::__tree<std::__ndk1::__value_type<std::__ndk1::basic_string<char, std::__ndk1::char_traits<char>, std::__ndk1::allocator<char> >, std::__ndk1::shared_ptr<geode::Hook> >, std::__ndk1::__map_value_compare<std::__ndk1::basic_string<char, std::__ndk1::char_traits<char>, std::__ndk1::allocator<char> >, std::__ndk1::__value_type<std::__ndk1::basic_string<char, std::__ndk1::char_traits<char>, std::__ndk1::allocator<char> >, std::__ndk1::shared_ptr<geode::Hook> >, std::__ndk1::less<std::__ndk1::basic_string<char, std::__ndk1::char_traits<char>, std::__ndk1::allocator<char> > >, true>, std::__ndk1::allocator<std::__ndk1::__value_type<std::__ndk1::basic_string<char, std::__ndk1::char_traits<char>, std::__ndk1::allocator<char> >, std::__ndk1::shared_ptr<geode::Hook> > > >::find<std::__ndk1::basic_string<char, std::__ndk1::char_traits<char>, std::__ndk1::allocator<char> > >(std::__ndk1::basic_string<char, std::__ndk1::char_traits<char>, std::__ndk1::allocator<char> > const&)
FUNC 39d18 d4 0 std::__ndk1::__tree<std::__ndk1::__value_type<std::__ndk1::basic_string<char, std::__ndk1::char_traits<char>, std::__ndk1::allocator<char> >, std::__ndk1::shared_ptr<geode::Hook> >, std::__ndk1::__map_value_compare<std::__ndk1::basic_string<char, std::__ndk1::char_traits<char>, std::__ndk1::allocator<char> >, std::__ndk1::__value_type<std::__ndk1::basic_string<char, std::__ndk1::char_traits<char>, std::__ndk1::allocator<char> >, std::__ndk1::shared_ptr<geode::Hook> >, std::__ndk1::less<std::__ndk1::basic_string<char, std::__ndk1::char_traits<char>, std::__ndk1::allocator<char> > >, true>, std::__ndk1::allocator<std::__ndk1::__value_type<std::__ndk1::basic_string<char, std::__ndk1::char_traits<char>, std::__ndk1::allocator<char> >, std::__ndk1::shared_ptr<geode::Hook> > > >::erase(std::__ndk1::__tree_const_iterator<std::__ndk1::__value_type<std::__ndk1::basic_string<char, std::__ndk1::char_traits<char>, std::__ndk1::allocator<char> >, std::__ndk1::shared_ptr<geode::Hook> >, std::__ndk1::__tree_node<std::__ndk1::__value_type<std::__ndk1::basic_string<char, std::__ndk1::char_traits<char>, std::__ndk1::allocator<char> >, std::__ndk1::shared_ptr<geode::Hook> >, void*>*, long>)
FUNC 39dec 388 0 std::__ndk1::__tree_remove[abi:ne180000]<std::__ndk1::__tree_node_base<void*>*>(std::__ndk1::__tree_node_base<void*>*, std::__ndk1::__tree_node_base<void*>*)
FUNC 3a174 8c 0 std::__ndk1::__tree<std::__ndk1::__value_type<std::__ndk1::basic_string<char, std::__ndk1::char_traits<char>, std::__ndk1::allocator<char> >, std::__ndk1::shared_ptr<geode::Hook> >, std::__ndk1::__map_value_compare<std::__ndk1::basic_string<char, std::__ndk1::char_traits<char>, std::__ndk1::allocator<char> >, std::__ndk1::__value_type<std::__ndk1::basic_string<char, std::__ndk1::char_traits<char>, std::__ndk1::allocator<char> >, std::__ndk1::shared_ptr<geode::Hook> >, std::__ndk1::less<std::__ndk1::basic_string<char, std::__ndk1::char_traits<char>, std::__ndk1::allocator<char> > >, true>, std::__ndk1::allocator<std::__ndk1::__value_type<std::__ndk1::basic_string<char, std::__ndk1::char_traits<char>, std::__ndk1::allocator<char> >, std::__ndk1::shared_ptr<geode::Hook> > > >::destroy(std::__ndk1::__tree_node<std::__ndk1::__value_type<std::__ndk1::basic_string<char, std::__ndk1::char_traits<char>, std::__ndk1::allocator<char> >, std::__ndk1::shared_ptr<geode::Hook> >, void*>*)
FUNC 3a200 870 0 geode::modifier::AsStaticFunction_init<BigPicIntro, bool (BigPicIntro::*)(bool)>::Impl<bool (BigPicIntro::*)(bool)>::function(BigPicIntro*, bool)
FUNC 3aa70 9c4 0 geode::modifier::AsStaticFunction_loadAssets<BigPicIntro, void (BigPicIntro::*)()>::Impl<void (BigPicIntro::*)()>::function(BigPicIntro*)
FUNC 3b434 c0 0 geode::modifier::AsStaticFunction_updateProgress<BigPicIntro, void (BigPicIntro::*)(int)>::Impl<void (BigPicIntro::*)(int)>::function(BigPicIntro*, int)
FUNC 3b4f4 50 0 std::__ndk1::shared_ptr<tulip::hook::CallingConvention>::~shared_ptr[abi:ne180000]()
FUNC 3b544 64 0 tulip::hook::HandlerMetadata::~HandlerMetadata()
FUNC 3b5a8 114 0 Utils::invisibleInVec(cocos2d::CCLayer*, std::__ndk1::vector<std::__ndk1::basic_string<char, std::__ndk1::char_traits<char>, std::__ndk1::allocator<char> >, std::__ndk1::allocator<std::__ndk1::basic_string<char, std::__ndk1::char_traits<char>, std::__ndk1::allocator<char> > > >)
FUNC 3b6bc 150 0 std::__ndk1::vector<std::__ndk1::basic_string<char, std::__ndk1::char_traits<char>, std::__ndk1::allocator<char> >, std::__ndk1::allocator<std::__ndk1::basic_string<char, std::__ndk1::char_traits<char>, std::__ndk1::allocator<char> > > >::vector[abi:ne180000](std::initializer_list<std::__ndk1::basic_string<char, std::__ndk1::char_traits<char>, std::__ndk1::allocator<char> > >)
FUNC 3b80c 6b8 0 geode::modifier::FieldIntermediate<BigPicIntro, LoadingLayer>::self()
FUNC 3bec4 4 0 geode::modifier::FieldIntermediate<BigPicIntro, LoadingLayer>::fieldDestructor(void*)
FUNC 3bec8 14 0 std::__ndk1::vector<void*, std::__ndk1::allocator<void*> >::__throw_length_error[abi:ne180000]() const
FUNC 3bedc 14 0 std::__ndk1::vector<std::__ndk1::function<void (void*)>, std::__ndk1::allocator<std::__ndk1::function<void (void*)> > >::__throw_length_error[abi:ne180000]() const
FUNC 3bef0 14 0 std::__ndk1::vector<void*, std::__ndk1::allocator<void*> >::__throw_out_of_range[abi:ne180000]() const
FUNC 3bf04 50 0 std::__ndk1::__throw_out_of_range[abi:ne180000](char const*)
FUNC 3bf54 30 0 std::out_of_range::out_of_range[abi:ne180000](char const*)
FUNC 3bf84 14 0 std::__ndk1::vector<std::__ndk1::function<void (void*)>, std::__ndk1::allocator<std::__ndk1::function<void (void*)> > >::__throw_out_of_range[abi:ne180000]() const
FUNC 3bf98 4 0 std::__ndk1::__function::__base<void (void*)>::~__base()
FUNC 3bf9c 4 0 std::__ndk1::__function::__func<void (*)(void*), std::__ndk1::allocator<void (*)(void*)>, void (void*)>::~__func()
FUNC 3bfa0 38 0 std::__ndk1::__function::__func<void (*)(void*), std::__ndk1::allocator<void (*)(void*)>, void (void*)>::__clone() const
FUNC 3bfd8 18 0 std::__ndk1::__function::__func<void (*)(void*), std::__ndk1::allocator<void (*)(void*)>, void (void*)>::__clone(std::__ndk1::__function::__base<void (void*)>*) const
FUNC 3bff0 4 0 std::__ndk1::__function::__func<void (*)(void*), std::__ndk1::allocator<void (*)(void*)>, void (void*)>::destroy()
FUNC 3bff4 4 0 std::__ndk1::__function::__func<void (*)(void*), std::__ndk1::allocator<void (*)(void*)>, void (void*)>::destroy_deallocate()
FUNC 3bff8 10 0 std::__ndk1::__function::__func<void (*)(void*), std::__ndk1::allocator<void (*)(void*)>, void (void*)>::operator()(void*&&)
FUNC 3c008 1c 0 std::__ndk1::__function::__func<void (*)(void*), std::__ndk1::allocator<void (*)(void*)>, void (void*)>::target(std::type_info const&) const
FUNC 3c024 c 0 std::__ndk1::__function::__func<void (*)(void*), std::__ndk1::allocator<void (*)(void*)>, void (void*)>::target_type() const
FUNC 3c030 8c 0 std::__ndk1::__exception_guard_exceptions<std::__ndk1::vector<std::__ndk1::basic_string<char, std::__ndk1::char_traits<char>, std::__ndk1::allocator<char> >, std::__ndk1::allocator<std::__ndk1::basic_string<char, std::__ndk1::char_traits<char>, std::__ndk1::allocator<char> > > >::__destroy_vector>::~__exception_guard_exceptions[abi:ne180000]()
FUNC 3c0bc 60 0 std::__ndk1::__exception_guard_exceptions<std::__ndk1::_AllocatorDestroyRangeReverse<std::__ndk1::allocator<std::__ndk1::basic_string<char, std::__ndk1::char_traits<char>, std::__ndk1::allocator<char> > >, std::__ndk1::basic_string<char, std::__ndk1::char_traits<char>, std::__ndk1::allocator<char> >*> >::~__exception_guard_exceptions[abi:ne180000]()
FUNC 3c11c c4 0 std::__ndk1::__fs::filesystem::path::operator/=[abi:ne180000](std::__ndk1::__fs::filesystem::path const&)
FUNC 3c1e0 ac 0 std::__ndk1::basic_string<char, std::__ndk1::char_traits<char>, std::__ndk1::allocator<char> >::__assign_no_alias<true>(char const*, unsigned long)
FUNC 3c28c 100 0 std::__ndk1::basic_string<char, std::__ndk1::char_traits<char>, std::__ndk1::allocator<char> >::__assign_no_alias<false>(char const*, unsigned long)
FUNC 3c38c 104 0 std::__ndk1::__tree<std::__ndk1::__value_type<std::__ndk1::basic_string<char, std::__ndk1::char_traits<char>, std::__ndk1::allocator<char> >, std::__ndk1::shared_ptr<geode::Hook> >, std::__ndk1::__map_value_compare<std::__ndk1::basic_string<char, std::__ndk1::char_traits<char>, std::__ndk1::allocator<char> >, std::__ndk1::__value_type<std::__ndk1::basic_string<char, std::__ndk1::char_traits<char>, std::__ndk1::allocator<char> >, std::__ndk1::shared_ptr<geode::Hook> >, std::__ndk1::less<std::__ndk1::basic_string<char, std::__ndk1::char_traits<char>, std::__ndk1::allocator<char> > >, true>, std::__ndk1::allocator<std::__ndk1::__value_type<std::__ndk1::basic_string<char, std::__ndk1::char_traits<char>, std::__ndk1::allocator<char> >, std::__ndk1::shared_ptr<geode::Hook> > > >::__find_equal<std::__ndk1::basic_string<char, std::__ndk1::char_traits<char>, std::__ndk1::allocator<char> > >(std::__ndk1::__tree_end_node<std::__ndk1::__tree_node_base<void*>*>*&, std::__ndk1::basic_string<char, std::__ndk1::char_traits<char>, std::__ndk1::allocator<char> > const&)
FUNC 3c490 19c 0 std::__ndk1::__tree_balance_after_insert[abi:ne180000]<std::__ndk1::__tree_node_base<void*>*>(std::__ndk1::__tree_node_base<void*>*, std::__ndk1::__tree_node_base<void*>*)
FUNC 3c62c 134 0 geode::Mod::getSettingValue<bool>(std::__ndk1::basic_string_view<char, std::__ndk1::char_traits<char> >) const
FUNC 3c760 e4 0 geode::cast::traverseTypeinfoFor(void*, geode::cast::ClassTypeinfoType const*, char const*)
FUNC 3c844 13c 0 geode::cocos::CCMenuItemExt::createSpriteExtra(cocos2d::CCNode*, std::__ndk1::function<void (CCMenuItemSpriteExtra*)>)
FUNC 3c980 98 0 cocos2d::CCSequence::create(cocos2d::CCFiniteTimeAction*, ...)
FUNC 3ca18 178 0 BigPicIntro::introStepParticle2()
FUNC 3cb90 1bc 0 BigPicIntro::introStep2()
FUNC 3cd4c 126c 0 Utils::createStarParticles(float, int, cocos2d::_ccColor3B, cocos2d::CCPoint, cocos2d::CCPoint)
FUNC 3dfb8 194 0 geode::cocos::CCMenuItemExt::assignCallback<CCMenuItemSpriteExtra>(cocos2d::CCMenuItem*, std::__ndk1::function<void (CCMenuItemSpriteExtra*)>)
FUNC 3e14c 1c8 0 geode::cocos::CCMenuItemExt::LambdaCallback<CCMenuItemSpriteExtra>::create(std::__ndk1::function<void (CCMenuItemSpriteExtra*)>)
FUNC 3e314 70 0 geode::cocos::CCMenuItemExt::LambdaCallback<CCMenuItemSpriteExtra>::execute(cocos2d::CCNode*)
FUNC 3e384 8 0 cocos2d::CCCopying::copyWithZone(cocos2d::CCZone*)
FUNC 3e38c 5c 0 geode::cocos::CCMenuItemExt::LambdaCallback<CCMenuItemSpriteExtra>::~LambdaCallback()
FUNC 3e3e8 64 0 geode::cocos::CCMenuItemExt::LambdaCallback<CCMenuItemSpriteExtra>::~LambdaCallback()
FUNC 3e44c 4 0 cocos2d::CCObject::update(float)
FUNC 3e450 34 0 std::__ndk1::__throw_bad_function_call[abi:ne180000]()
FUNC 3e484 24 0 std::__ndk1::bad_function_call::~bad_function_call()
FUNC 3e4a8 4 0 std::__ndk1::__function::__base<void (CCMenuItemSpriteExtra*)>::~__base()
FUNC 3e4ac 4 0 std::__ndk1::__function::__func<BigPicIntro::introAnimation()::{lambda(cocos2d::CCObject*)#1}, std::__ndk1::allocator<BigPicIntro::introAnimation()::{lambda(cocos2d::CCObject*)#1}>, void (CCMenuItemSpriteExtra*)>::~__func()
FUNC 3e4b0 34 0 std::__ndk1::__function::__func<BigPicIntro::introAnimation()::{lambda(cocos2d::CCObject*)#1}, std::__ndk1::allocator<BigPicIntro::introAnimation()::{lambda(cocos2d::CCObject*)#1}>, void (CCMenuItemSpriteExtra*)>::__clone() const
FUNC 3e4e4 14 0 std::__ndk1::__function::__func<BigPicIntro::introAnimation()::{lambda(cocos2d::CCObject*)#1}, std::__ndk1::allocator<BigPicIntro::introAnimation()::{lambda(cocos2d::CCObject*)#1}>, void (CCMenuItemSpriteExtra*)>::__clone(std::__ndk1::__function::__base<void (CCMenuItemSpriteExtra*)>*) const
FUNC 3e4f8 4 0 std::__ndk1::__function::__func<BigPicIntro::introAnimation()::{lambda(cocos2d::CCObject*)#1}, std::__ndk1::allocator<BigPicIntro::introAnimation()::{lambda(cocos2d::CCObject*)#1}>, void (CCMenuItemSpriteExtra*)>::destroy()
FUNC 3e4fc 4 0 std::__ndk1::__function::__func<BigPicIntro::introAnimation()::{lambda(cocos2d::CCObject*)#1}, std::__ndk1::allocator<BigPicIntro::introAnimation()::{lambda(cocos2d::CCObject*)#1}>, void (CCMenuItemSpriteExtra*)>::destroy_deallocate()
FUNC 3e500 34 0 std::__ndk1::__function::__func<BigPicIntro::introAnimation()::{lambda(cocos2d::CCObject*)#1}, std::__ndk1::allocator<BigPicIntro::introAnimation()::{lambda(cocos2d::CCObject*)#1}>, void (CCMenuItemSpriteExtra*)>::operator()(CCMenuItemSpriteExtra*&&)
FUNC 3e534 1c 0 std::__ndk1::__function::__func<BigPicIntro::introAnimation()::{lambda(cocos2d::CCObject*)#1}, std::__ndk1::allocator<BigPicIntro::introAnimation()::{lambda(cocos2d::CCObject*)#1}>, void (CCMenuItemSpriteExtra*)>::target(std::type_info const&) const
FUNC 3e550 c 0 std::__ndk1::__function::__func<BigPicIntro::introAnimation()::{lambda(cocos2d::CCObject*)#1}, std::__ndk1::allocator<BigPicIntro::introAnimation()::{lambda(cocos2d::CCObject*)#1}>, void (CCMenuItemSpriteExtra*)>::target_type() const
FUNC 3e55c 24c 0 BigPicIntro::introStep3()
FUNC 3e7a8 44 0 BigPicIntro::introStep4()
FUNC 3e7ec 140 0 cocos2d::CCString::createWithFormat(char const*, ...)
FUNC 3e92c 8f8 0 __cxx_global_var_init
FUNC 3f224 1c 0 geode::modifier::ModifyBase<geode::modifier::ModifyDerive<BigPic, MenuLayer> >::~ModifyBase()
FUNC 3f240 94c 0 geode::modifier::ModifyDerive<BigPic, MenuLayer>::apply()
FUNC 3fb8c 4 0 geode::modifier::ModifyBase<geode::modifier::ModifyDerive<BigPic, MenuLayer> >::apply()
FUNC 3fb90 110 0 geode::modifier::ModifyBase<geode::modifier::ModifyDerive<BigPic, MenuLayer> >::setHookPriorityAfter(std::__ndk1::basic_string_view<char, std::__ndk1::char_traits<char> >, geode::Mod*)::{lambda(geode::ModStateEvent*)#1}::operator()(geode::ModStateEvent*) const
FUNC 3fca0 7c 0 std::__ndk1::unique_ptr<std::__ndk1::__tree_node<std::__ndk1::__value_type<std::__ndk1::basic_string<char, std::__ndk1::char_traits<char>, std::__ndk1::allocator<char> >, std::__ndk1::shared_ptr<geode::Hook> >, void*>, std::__ndk1::__tree_node_destructor<std::__ndk1::allocator<std::__ndk1::__tree_node<std::__ndk1::__value_type<std::__ndk1::basic_string<char, std::__ndk1::char_traits<char>, std::__ndk1::allocator<char> >, std::__ndk1::shared_ptr<geode::Hook> >, void*> > > >::~unique_ptr[abi:ne180000]()
FUNC 3fd1c 168 0 _ZN5geode15UnwrapExceptionC2IRNSt6__ndk112basic_stringIcNS2_11char_traitsIcEENS2_9allocatorIcEEEEQsr4implE18IsStringStreamableIT_EEENS_4impl6ErrTagEOSA_
FUNC 3fe84 4 0 std::__ndk1::__function::__base<void (geode::ModStateEvent*)>::~__base()
FUNC 3fe88 4 0 std::__ndk1::__function::__func<geode::modifier::ModifyBase<geode::modifier::ModifyDerive<BigPic, MenuLayer> >::setHookPriorityAfter(std::__ndk1::basic_string_view<char, std::__ndk1::char_traits<char> >, geode::Mod*)::{lambda(geode::ModStateEvent*)#1}, std::__ndk1::allocator<geode::modifier::ModifyBase<geode::modifier::ModifyDerive<BigPic, MenuLayer> >::setHookPriorityAfter(std::__ndk1::basic_string_view<char, std::__ndk1::char_traits<char> >, geode::Mod*)::{lambda(geode::ModStateEvent*)#1}>, void (geode::ModStateEvent*)>::~__func()
FUNC 3fe8c 38 0 std::__ndk1::__function::__func<geode::modifier::ModifyBase<geode::modifier::ModifyDerive<BigPic, MenuLayer> >::setHookPriorityAfter(std::__ndk1::basic_string_view<char, std::__ndk1::char_traits<char> >, geode::Mod*)::{lambda(geode::ModStateEvent*)#1}, std::__ndk1::allocator<geode::modifier::ModifyBase<geode::modifier::ModifyDerive<BigPic, MenuLayer> >::setHookPriorityAfter(std::__ndk1::basic_string_view<char, std::__ndk1::char_traits<char> >, geode::Mod*)::{lambda(geode::ModStateEvent*)#1}>, void (geode::ModStateEvent*)>::__clone() const
FUNC 3fec4 18 0 std::__ndk1::__function::__func<geode::modifier::ModifyBase<geode::modifier::ModifyDerive<BigPic, MenuLayer> >::setHookPriorityAfter(std::__ndk1::basic_string_view<char, std::__ndk1::char_traits<char> >, geode::Mod*)::{lambda(geode::ModStateEvent*)#1}, std::__ndk1::allocator<geode::modifier::ModifyBase<geode::modifier::ModifyDerive<BigPic, MenuLayer> >::setHookPriorityAfter(std::__ndk1::basic_string_view<char, std::__ndk1::char_traits<char> >, geode::Mod*)::{lambda(geode::ModStateEvent*)#1}>, void (geode::ModStateEvent*)>::__clone(std::__ndk1::__function::__base<void (geode::ModStateEvent*)>*) const
FUNC 3fedc 4 0 std::__ndk1::__function::__func<geode::modifier::ModifyBase<geode::modifier::ModifyDerive<BigPic, MenuLayer> >::setHookPriorityAfter(std::__ndk1::basic_string_view<char, std::__ndk1::char_traits<char> >, geode::Mod*)::{lambda(geode::ModStateEvent*)#1}, std::__ndk1::allocator<geode::modifier::ModifyBase<geode::modifier::ModifyDerive<BigPic, MenuLayer> >::setHookPriorityAfter(std::__ndk1::basic_string_view<char, std::__ndk1::char_traits<char> >, geode::Mod*)::{lambda(geode::ModStateEvent*)#1}>, void (geode::ModStateEvent*)>::destroy()
FUNC 3fee0 4 0 std::__ndk1::__function::__func<geode::modifier::ModifyBase<geode::modifier::ModifyDerive<BigPic, MenuLayer> >::setHookPriorityAfter(std::__ndk1::basic_string_view<char, std::__ndk1::char_traits<char> >, geode::Mod*)::{lambda(geode::ModStateEvent*)#1}, std::__ndk1::allocator<geode::modifier::ModifyBase<geode::modifier::ModifyDerive<BigPic, MenuLayer> >::setHookPriorityAfter(std::__ndk1::basic_string_view<char, std::__ndk1::char_traits<char> >, geode::Mod*)::{lambda(geode::ModStateEvent*)#1}>, void (geode::ModStateEvent*)>::destroy_deallocate()
FUNC 3fee4 8 0 std::__ndk1::__function::__func<geode::modifier::ModifyBase<geode::modifier::ModifyDerive<BigPic, MenuLayer> >::setHookPriorityAfter(std::__ndk1::basic_string_view<char, std::__ndk1::char_traits<char> >, geode::Mod*)::{lambda(geode::ModStateEvent*)#1}, std::__ndk1::allocator<geode::modifier::ModifyBase<geode::modifier::ModifyDerive<BigPic, MenuLayer> >::setHookPriorityAfter(std::__ndk1::basic_string_view<char, std::__ndk1::char_traits<char> >, geode::Mod*)::{lambda(geode::ModStateEvent*)#1}>, void (geode::ModStateEvent*)>::operator()(geode::ModStateEvent*&&)
FUNC 3feec 1c 0 std::__ndk1::__function::__func<geode::modifier::ModifyBase<geode::modifier::ModifyDerive<BigPic, MenuLayer> >::setHookPriorityAfter(std::__ndk1::basic_string_view<char, std::__ndk1::char_traits<char> >, geode::Mod*)::{lambda(geode::ModStateEvent*)#1}, std::__ndk1::allocator<geode::modifier::ModifyBase<geode::modifier::ModifyDerive<BigPic, MenuLayer> >::setHookPriorityAfter(std::__ndk1::basic_string_view<char, std::__ndk1::char_traits<char> >, geode::Mod*)::{lambda(geode::ModStateEvent*)#1}>, void (geode::ModStateEvent*)>::target(std::type_info const&) const
FUNC 3ff08 c 0 std::__ndk1::__function::__func<geode::modifier::ModifyBase<geode::modifier::ModifyDerive<BigPic, MenuLayer> >::setHookPriorityAfter(std::__ndk1::basic_string_view<char, std::__ndk1::char_traits<char> >, geode::Mod*)::{lambda(geode::ModStateEvent*)#1}, std::__ndk1::allocator<geode::modifier::ModifyBase<geode::modifier::ModifyDerive<BigPic, MenuLayer> >::setHookPriorityAfter(std::__ndk1::basic_string_view<char, std::__ndk1::char_traits<char> >, geode::Mod*)::{lambda(geode::ModStateEvent*)#1}>, void (geode::ModStateEvent*)>::target_type() const
FUNC 3ff14 4 0 geode::EventListener<geode::ModStateFilter>::getPool() const
FUNC 3ff18 174 0 geode::EventListener<geode::ModStateFilter>::handle(geode::Event*)
FUNC 4008c 5c 0 geode::EventListener<geode::ModStateFilter>::~EventListener()
FUNC 400e8 64 0 geode::EventListener<geode::ModStateFilter>::~EventListener()
FUNC 4014c 4 0 std::__ndk1::__variant_detail::__visitation::__base::__dispatcher<(unsigned long)0>::__dispatch[abi:ne180000]<std::__ndk1::__variant_detail::__dtor<std::__ndk1::__variant_detail::__traits<std::__ndk1::monostate, std::__ndk1::basic_string<char, std::__ndk1::char_traits<char>, std::__ndk1::allocator<char> > >, (std::__ndk1::__variant_detail::_Trait)1>::__destroy[abi:ne180000]()::{lambda(auto:1&)#1}, std::__ndk1::__variant_detail::__base<(std::__ndk1::__variant_detail::__traits<std::__ndk1::monostate, std::__ndk1::basic_string<char, std::__ndk1::char_traits<char>, std::__ndk1::allocator<char> > >)1, std::__ndk1::__variant_detail::__traits, std::__ndk1::allocator<char> >&>(std::__ndk1::__variant_detail::__dtor<std::__ndk1::__variant_detail::__traits<std::__ndk1::monostate, std::__ndk1::basic_string<char, std::__ndk1::char_traits<char>, std::__ndk1::allocator<char> > >, (std::__ndk1::__variant_detail::_Trait)1>, std::__ndk1::__variant_detail::__base<(std::__ndk1::__variant_detail::__traits<std::__ndk1::monostate, std::__ndk1::basic_string<char, std::__ndk1::char_traits<char>, std::__ndk1::allocator<char> > >)1, std::__ndk1::__variant_detail::__traits, std::__ndk1::allocator<char> >&)
FUNC 40150 14 0 std::__ndk1::__variant_detail::__visitation::__base::__dispatcher<(unsigned long)1>::__dispatch[abi:ne180000]<std::__ndk1::__variant_detail::__dtor<std::__ndk1::__variant_detail::__traits<std::__ndk1::monostate, std::__ndk1::basic_string<char, std::__ndk1::char_traits<char>, std::__ndk1::allocator<char> > >, (std::__ndk1::__variant_detail::_Trait)1>::__destroy[abi:ne180000]()::{lambda(auto:1&)#1}, std::__ndk1::__variant_detail::__base<(std::__ndk1::__variant_detail::__traits<std::__ndk1::monostate, std::__ndk1::basic_string<char, std::__ndk1::char_traits<char>, std::__ndk1::allocator<char> > >)1, std::__ndk1::__variant_detail::__traits, std::__ndk1::allocator<char> >&>(std::__ndk1::__variant_detail::__dtor<std::__ndk1::__variant_detail::__traits<std::__ndk1::monostate, std::__ndk1::basic_string<char, std::__ndk1::char_traits<char>, std::__ndk1::allocator<char> > >, (std::__ndk1::__variant_detail::_Trait)1>, std::__ndk1::__variant_detail::__base<(std::__ndk1::__variant_detail::__traits<std::__ndk1::monostate, std::__ndk1::basic_string<char, std::__ndk1::char_traits<char>, std::__ndk1::allocator<char> > >)1, std::__ndk1::__variant_detail::__traits, std::__ndk1::allocator<char> >&)
FUNC 40164 a8 0 geode::addresser::getVirtual<bool (MenuLayer::*)()>(bool (MenuLayer::*)())
FUNC 4020c 984 0 geode::modifier::AsStaticFunction_init<BigPic, bool (BigPic::*)()>::Impl<bool (BigPic::*)()>::function(BigPic*)
FUNC 40b90 a8 0 geode::addresser::getVirtual<void (MenuLayer::*)(cocos2d::enumKeyCodes)>(void (MenuLayer::*)(cocos2d::enumKeyCodes))
FUNC 40c38 194 0 geode::modifier::AsStaticFunction_keyDown<BigPic, void (BigPic::*)(cocos2d::enumKeyCodes)>::Impl<void (BigPic::*)(cocos2d::enumKeyCodes)>::function(BigPic*, cocos2d::enumKeyCodes)
FUNC 40dcc e0 0 geode::modifier::AsStaticFunction_onQuit<BigPic, void (BigPic::*)(cocos2d::CCObject*)>::Impl<void (BigPic::*)(cocos2d::CCObject*)>::function(BigPic*, cocos2d::CCObject*)
FUNC 40eac 9c 0 MenuLayer::MenuLayer(geode::ZeroConstructorType)
FUNC 40f48 4 0 std::__ndk1::__function::__func<BigPic::init()::{lambda()#1}, std::__ndk1::allocator<BigPic::init()::{lambda()#1}>, void ()>::~__func()
FUNC 40f4c 34 0 std::__ndk1::__function::__func<BigPic::init()::{lambda()#1}, std::__ndk1::allocator<BigPic::init()::{lambda()#1}>, void ()>::__clone() const
FUNC 40f80 14 0 std::__ndk1::__function::__func<BigPic::init()::{lambda()#1}, std::__ndk1::allocator<BigPic::init()::{lambda()#1}>, void ()>::__clone(std::__ndk1::__function::__base<void ()>*) const
FUNC 40f94 4 0 std::__ndk1::__function::__func<BigPic::init()::{lambda()#1}, std::__ndk1::allocator<BigPic::init()::{lambda()#1}>, void ()>::destroy()
FUNC 40f98 4 0 std::__ndk1::__function::__func<BigPic::init()::{lambda()#1}, std::__ndk1::allocator<BigPic::init()::{lambda()#1}>, void ()>::destroy_deallocate()
FUNC 40f9c 10 0 std::__ndk1::__function::__func<BigPic::init()::{lambda()#1}, std::__ndk1::allocator<BigPic::init()::{lambda()#1}>, void ()>::operator()()
FUNC 40fac 1c 0 std::__ndk1::__function::__func<BigPic::init()::{lambda()#1}, std::__ndk1::allocator<BigPic::init()::{lambda()#1}>, void ()>::target(std::type_info const&) const
FUNC 40fc8 c 0 std::__ndk1::__function::__func<BigPic::init()::{lambda()#1}, std::__ndk1::allocator<BigPic::init()::{lambda()#1}>, void ()>::target_type() const
FUNC 40fd4 4 0 std::__ndk1::__function::__base<void ()>::~__base()
FUNC 40fd8 4 0 std::__ndk1::__function::__func<BigPic::init()::{lambda()#2}, std::__ndk1::allocator<BigPic::init()::{lambda()#2}>, void ()>::~__func()
FUNC 40fdc 34 0 std::__ndk1::__function::__func<BigPic::init()::{lambda()#2}, std::__ndk1::allocator<BigPic::init()::{lambda()#2}>, void ()>::__clone() const
FUNC 41010 14 0 std::__ndk1::__function::__func<BigPic::init()::{lambda()#2}, std::__ndk1::allocator<BigPic::init()::{lambda()#2}>, void ()>::__clone(std::__ndk1::__function::__base<void ()>*) const
FUNC 41024 4 0 std::__ndk1::__function::__func<BigPic::init()::{lambda()#2}, std::__ndk1::allocator<BigPic::init()::{lambda()#2}>, void ()>::destroy()
FUNC 41028 4 0 std::__ndk1::__function::__func<BigPic::init()::{lambda()#2}, std::__ndk1::allocator<BigPic::init()::{lambda()#2}>, void ()>::destroy_deallocate()
FUNC 4102c 8 0 std::__ndk1::__function::__func<BigPic::init()::{lambda()#2}, std::__ndk1::allocator<BigPic::init()::{lambda()#2}>, void ()>::operator()()
FUNC 41034 1c 0 std::__ndk1::__function::__func<BigPic::init()::{lambda()#2}, std::__ndk1::allocator<BigPic::init()::{lambda()#2}>, void ()>::target(std::type_info const&) const
FUNC 41050 c 0 std::__ndk1::__function::__func<BigPic::init()::{lambda()#2}, std::__ndk1::allocator<BigPic::init()::{lambda()#2}>, void ()>::target_type() const
FUNC 4105c b04 0 BPAlert::init(std::__ndk1::basic_string<char, std::__ndk1::char_traits<char>, std::__ndk1::allocator<char> >, std::__ndk1::vector<BigPicButton, std::__ndk1::allocator<BigPicButton> >)
FUNC 41b60 64 0 BigPicButton::~BigPicButton()
FUNC 41bc4 64 0 BPAlert::init(std::__ndk1::basic_string<char, std::__ndk1::char_traits<char>, std::__ndk1::allocator<char> >, std::__ndk1::vector<BigPicButton, std::__ndk1::allocator<BigPicButton> >)::$_1::~$_1()
FUNC 41c28 c 0 BPAlert::willTouch()
FUNC 41c34 a8 0 std::__ndk1::vector<BigPicButton, std::__ndk1::allocator<BigPicButton> >::~vector[abi:ne180000]()
FUNC 41cdc 638 0 BPAlert::regenItems(int)
FUNC 42314 64 0 BPAlert::regenItems(int)::$_0::~$_0()
FUNC 42378 154 0 cocos2d::CCNode::getChildByType<cocos2d::extension::CCScale9Sprite>(int)
FUNC 424cc 50 0 BPAlert::ccTouchEnded(cocos2d::CCTouch*, cocos2d::CCEvent*)
FUNC 4251c 54 0 {virtual override thunk({offset(-320)}, BPAlert::ccTouchEnded(cocos2d::CCTouch*, cocos2d::CCEvent*))}
FUNC 42570 cb4 0 BPAlert::keyDown(cocos2d::enumKeyCodes)
FUNC 43224 8 0 {virtual override thunk({offset(-344)}, BPAlert::keyDown(cocos2d::enumKeyCodes))}
FUNC 4322c 2ec 0 BPAlert::create(std::__ndk1::basic_string<char, std::__ndk1::char_traits<char>, std::__ndk1::allocator<char> >, std::__ndk1::vector<BigPicButton, std::__ndk1::allocator<BigPicButton> >)
FUNC 43518 dc 0 BPAlert::~BPAlert()
FUNC 435f4 e4 0 BPAlert::~BPAlert()
FUNC 436d8 4 0 BPAlert::keyBackClicked()
FUNC 436dc 4 0 cocos2d::CCLayerRGBA::setOpacityModifyRGB(bool)
FUNC 436e0 8 0 cocos2d::CCLayerRGBA::isOpacityModifyRGB()
FUNC 436e8 e0 0 {virtual override thunk({offset(-320)}, BPAlert::~BPAlert())}
FUNC 437c8 e8 0 {virtual override thunk({offset(-320)}, BPAlert::~BPAlert())}
FUNC 438b0 4 0 {virtual override thunk({offset(-336)}, BPAlert::keyBackClicked())}
FUNC 438b4 4 0 cocos2d::CCKeyboardDelegate::keyUp(cocos2d::enumKeyCodes)
FUNC 438b8 4 0 cocos2d::CCMouseDelegate::rightKeyDown()
FUNC 438bc 4 0 cocos2d::CCMouseDelegate::rightKeyUp()
FUNC 438c0 4 0 cocos2d::CCMouseDelegate::scrollWheel(float, float)
FUNC 438c4 4 0 {virtual override thunk({offset(-408)}, cocos2d::CCLayerRGBA::setOpacityModifyRGB(bool))}
FUNC 438c8 8 0 {virtual override thunk({offset(-408)}, cocos2d::CCLayerRGBA::isOpacityModifyRGB())}
FUNC 438d0 28c 0 std::__ndk1::vector<BigPicButton, std::__ndk1::allocator<BigPicButton> >::__push_back_slow_path<BigPicButton>(BigPicButton&&)
FUNC 43b5c 9c 0 std::__ndk1::__split_buffer<BigPicButton, std::__ndk1::allocator<BigPicButton>&>::~__split_buffer()
FUNC 43bf8 14 0 std::__ndk1::vector<BigPicButton, std::__ndk1::allocator<BigPicButton> >::__throw_length_error[abi:ne180000]() const
FUNC 43c0c 148 0 std::__ndk1::__uninitialized_allocator_copy_impl[abi:ne180000]<std::__ndk1::allocator<BigPicButton>, std::__ndk1::allocator*, std::__ndk1::allocator<BigPicButton>, std::__ndk1::allocator<BigPicButton> >(std::__ndk1::allocator<BigPicButton>&, std::__ndk1::allocator*, std::__ndk1::allocator<BigPicButton>, std::__ndk1::allocator*)
FUNC 43d54 84 0 std::__ndk1::__exception_guard_exceptions<std::__ndk1::_AllocatorDestroyRangeReverse<std::__ndk1::allocator<BigPicButton>, BigPicButton*> >::~__exception_guard_exceptions[abi:ne180000]()
FUNC 43dd8 1a0 0 std::__ndk1::__copy_loop<std::__ndk1::_ClassicAlgPolicy>::operator()[abi:ne180000]<BigPicButton*, BigPicButton, BigPicButton>(std::__ndk1::pair, BigPicButton, BigPicButton*) const
FUNC 43f78 168 0 std::__ndk1::__function::__value_func<void ()>::swap[abi:ne180000](std::__ndk1::__function::__value_func<void ()>&)
FUNC 440e0 b8 0 std::__ndk1::__exception_guard_exceptions<std::__ndk1::vector<BigPicButton, std::__ndk1::allocator<BigPicButton> >::__destroy_vector>::~__exception_guard_exceptions[abi:ne180000]()
FUNC 44198 4 0 std::__ndk1::__function::__func<BPAlert::init(std::__ndk1::basic_string<char, std::__ndk1::char_traits<char>, std::__ndk1::allocator<char> >, std::__ndk1::vector<BigPicButton, std::__ndk1::allocator<BigPicButton> >)::$_0, std::__ndk1::allocator<BPAlert::init(std::__ndk1::basic_string<char, std::__ndk1::char_traits<char>, std::__ndk1::allocator<char> >, std::__ndk1::vector<BigPicButton, std::__ndk1::allocator<BigPicButton> >)::$_0>, void ()>::~__func()
FUNC 4419c 34 0 std::__ndk1::__function::__func<BPAlert::init(std::__ndk1::basic_string<char, std::__ndk1::char_traits<char>, std::__ndk1::allocator<char> >, std::__ndk1::vector<BigPicButton, std::__ndk1::allocator<BigPicButton> >)::$_0, std::__ndk1::allocator<BPAlert::init(std::__ndk1::basic_string<char, std::__ndk1::char_traits<char>, std::__ndk1::allocator<char> >, std::__ndk1::vector<BigPicButton, std::__ndk1::allocator<BigPicButton> >)::$_0>, void ()>::__clone() const
FUNC 441d0 14 0 std::__ndk1::__function::__func<BPAlert::init(std::__ndk1::basic_string<char, std::__ndk1::char_traits<char>, std::__ndk1::allocator<char> >, std::__ndk1::vector<BigPicButton, std::__ndk1::allocator<BigPicButton> >)::$_0, std::__ndk1::allocator<BPAlert::init(std::__ndk1::basic_string<char, std::__ndk1::char_traits<char>, std::__ndk1::allocator<char> >, std::__ndk1::vector<BigPicButton, std::__ndk1::allocator<BigPicButton> >)::$_0>, void ()>::__clone(std::__ndk1::__function::__base<void ()>*) const
FUNC 441e4 4 0 std::__ndk1::__function::__func<BPAlert::init(std::__ndk1::basic_string<char, std::__ndk1::char_traits<char>, std::__ndk1::allocator<char> >, std::__ndk1::vector<BigPicButton, std::__ndk1::allocator<BigPicButton> >)::$_0, std::__ndk1::allocator<BPAlert::init(std::__ndk1::basic_string<char, std::__ndk1::char_traits<char>, std::__ndk1::allocator<char> >, std::__ndk1::vector<BigPicButton, std::__ndk1::allocator<BigPicButton> >)::$_0>, void ()>::destroy()
FUNC 441e8 4 0 std::__ndk1::__function::__func<BPAlert::init(std::__ndk1::basic_string<char, std::__ndk1::char_traits<char>, std::__ndk1::allocator<char> >, std::__ndk1::vector<BigPicButton, std::__ndk1::allocator<BigPicButton> >)::$_0, std::__ndk1::allocator<BPAlert::init(std::__ndk1::basic_string<char, std::__ndk1::char_traits<char>, std::__ndk1::allocator<char> >, std::__ndk1::vector<BigPicButton, std::__ndk1::allocator<BigPicButton> >)::$_0>, void ()>::destroy_deallocate()
FUNC 441ec 40 0 std::__ndk1::__function::__func<BPAlert::init(std::__ndk1::basic_string<char, std::__ndk1::char_traits<char>, std::__ndk1::allocator<char> >, std::__ndk1::vector<BigPicButton, std::__ndk1::allocator<BigPicButton> >)::$_0, std::__ndk1::allocator<BPAlert::init(std::__ndk1::basic_string<char, std::__ndk1::char_traits<char>, std::__ndk1::allocator<char> >, std::__ndk1::vector<BigPicButton, std::__ndk1::allocator<BigPicButton> >)::$_0>, void ()>::operator()()
FUNC 4422c 1c 0 std::__ndk1::__function::__func<BPAlert::init(std::__ndk1::basic_string<char, std::__ndk1::char_traits<char>, std::__ndk1::allocator<char> >, std::__ndk1::vector<BigPicButton, std::__ndk1::allocator<BigPicButton> >)::$_0, std::__ndk1::allocator<BPAlert::init(std::__ndk1::basic_string<char, std::__ndk1::char_traits<char>, std::__ndk1::allocator<char> >, std::__ndk1::vector<BigPicButton, std::__ndk1::allocator<BigPicButton> >)::$_0>, void ()>::target(std::type_info const&) const
FUNC 44248 c 0 std::__ndk1::__function::__func<BPAlert::init(std::__ndk1::basic_string<char, std::__ndk1::char_traits<char>, std::__ndk1::allocator<char> >, std::__ndk1::vector<BigPicButton, std::__ndk1::allocator<BigPicButton> >)::$_0, std::__ndk1::allocator<BPAlert::init(std::__ndk1::basic_string<char, std::__ndk1::char_traits<char>, std::__ndk1::allocator<char> >, std::__ndk1::vector<BigPicButton, std::__ndk1::allocator<BigPicButton> >)::$_0>, void ()>::target_type() const
FUNC 44254 750 0 std::__ndk1::vector<BigPicButton, std::__ndk1::allocator<BigPicButton> >::__insert_with_size[abi:ne180000]<std::__ndk1::__wrap_iter<BigPicButton const*>, BigPicButton const*>(BigPicButton const*, std::__ndk1::__wrap_iter<BigPicButton const*>, BigPicButton const*, long)
FUNC 449a4 148 0 std::__ndk1::__uninitialized_allocator_copy_impl[abi:ne180000]<std::__ndk1::allocator<BigPicButton>, std::__ndk1::allocator const*, std::__ndk1::allocator const, std::__ndk1::allocator*>(std::__ndk1::allocator<BigPicButton>&, std::__ndk1::allocator const*, std::__ndk1::allocator const, std::__ndk1::allocator*)
FUNC 44aec 70 0 std::__ndk1::__function::__func<BPAlert::init(std::__ndk1::basic_string<char, std::__ndk1::char_traits<char>, std::__ndk1::allocator<char> >, std::__ndk1::vector<BigPicButton, std::__ndk1::allocator<BigPicButton> >)::$_1, std::__ndk1::allocator<BPAlert::init(std::__ndk1::basic_string<char, std::__ndk1::char_traits<char>, std::__ndk1::allocator<char> >, std::__ndk1::vector<BigPicButton, std::__ndk1::allocator<BigPicButton> >)::$_1>, void (CCMenuItemSpriteExtra*)>::~__func()
FUNC 44b5c 6c 0 std::__ndk1::__function::__func<BPAlert::init(std::__ndk1::basic_string<char, std::__ndk1::char_traits<char>, std::__ndk1::allocator<char> >, std::__ndk1::vector<BigPicButton, std::__ndk1::allocator<BigPicButton> >)::$_1, std::__ndk1::allocator<BPAlert::init(std::__ndk1::basic_string<char, std::__ndk1::char_traits<char>, std::__ndk1::allocator<char> >, std::__ndk1::vector<BigPicButton, std::__ndk1::allocator<BigPicButton> >)::$_1>, void (CCMenuItemSpriteExtra*)>::~__func()
FUNC 44bc8 e4 0 std::__ndk1::__function::__func<BPAlert::init(std::__ndk1::basic_string<char, std::__ndk1::char_traits<char>, std::__ndk1::allocator<char> >, std::__ndk1::vector<BigPicButton, std::__ndk1::allocator<BigPicButton> >)::$_1, std::__ndk1::allocator<BPAlert::init(std::__ndk1::basic_string<char, std::__ndk1::char_traits<char>, std::__ndk1::allocator<char> >, std::__ndk1::vector<BigPicButton, std::__ndk1::allocator<BigPicButton> >)::$_1>, void (CCMenuItemSpriteExtra*)>::__clone() const
FUNC 44cac d4 0 std::__ndk1::__function::__func<BPAlert::init(std::__ndk1::basic_string<char, std::__ndk1::char_traits<char>, std::__ndk1::allocator<char> >, std::__ndk1::vector<BigPicButton, std::__ndk1::allocator<BigPicButton> >)::$_1, std::__ndk1::allocator<BPAlert::init(std::__ndk1::basic_string<char, std::__ndk1::char_traits<char>, std::__ndk1::allocator<char> >, std::__ndk1::vector<BigPicButton, std::__ndk1::allocator<BigPicButton> >)::$_1>, void (CCMenuItemSpriteExtra*)>::__clone(std::__ndk1::__function::__base<void (CCMenuItemSpriteExtra*)>*) const
FUNC 44d80 64 0 std::__ndk1::__function::__func<BPAlert::init(std::__ndk1::basic_string<char, std::__ndk1::char_traits<char>, std::__ndk1::allocator<char> >, std::__ndk1::vector<BigPicButton, std::__ndk1::allocator<BigPicButton> >)::$_1, std::__ndk1::allocator<BPAlert::init(std::__ndk1::basic_string<char, std::__ndk1::char_traits<char>, std::__ndk1::allocator<char> >, std::__ndk1::vector<BigPicButton, std::__ndk1::allocator<BigPicButton> >)::$_1>, void (CCMenuItemSpriteExtra*)>::destroy()
FUNC 44de4 60 0 std::__ndk1::__function::__func<BPAlert::init(std::__ndk1::basic_string<char, std::__ndk1::char_traits<char>, std::__ndk1::allocator<char> >, std::__ndk1::vector<BigPicButton, std::__ndk1::allocator<BigPicButton> >)::$_1, std::__ndk1::allocator<BPAlert::init(std::__ndk1::basic_string<char, std::__ndk1::char_traits<char>, std::__ndk1::allocator<char> >, std::__ndk1::vector<BigPicButton, std::__ndk1::allocator<BigPicButton> >)::$_1>, void (CCMenuItemSpriteExtra*)>::destroy_deallocate()
FUNC 44e44 5c 0 std::__ndk1::__function::__func<BPAlert::init(std::__ndk1::basic_string<char, std::__ndk1::char_traits<char>, std::__ndk1::allocator<char> >, std::__ndk1::vector<BigPicButton, std::__ndk1::allocator<BigPicButton> >)::$_1, std::__ndk1::allocator<BPAlert::init(std::__ndk1::basic_string<char, std::__ndk1::char_traits<char>, std::__ndk1::allocator<char> >, std::__ndk1::vector<BigPicButton, std::__ndk1::allocator<BigPicButton> >)::$_1>, void (CCMenuItemSpriteExtra*)>::operator()(CCMenuItemSpriteExtra*&&)
FUNC 44ea0 1c 0 std::__ndk1::__function::__func<BPAlert::init(std::__ndk1::basic_string<char, std::__ndk1::char_traits<char>, std::__ndk1::allocator<char> >, std::__ndk1::vector<BigPicButton, std::__ndk1::allocator<BigPicButton> >)::$_1, std::__ndk1::allocator<BPAlert::init(std::__ndk1::basic_string<char, std::__ndk1::char_traits<char>, std::__ndk1::allocator<char> >, std::__ndk1::vector<BigPicButton, std::__ndk1::allocator<BigPicButton> >)::$_1>, void (CCMenuItemSpriteExtra*)>::target(std::type_info const&) const
FUNC 44ebc c 0 std::__ndk1::__function::__func<BPAlert::init(std::__ndk1::basic_string<char, std::__ndk1::char_traits<char>, std::__ndk1::allocator<char> >, std::__ndk1::vector<BigPicButton, std::__ndk1::allocator<BigPicButton> >)::$_1, std::__ndk1::allocator<BPAlert::init(std::__ndk1::basic_string<char, std::__ndk1::char_traits<char>, std::__ndk1::allocator<char> >, std::__ndk1::vector<BigPicButton, std::__ndk1::allocator<BigPicButton> >)::$_1>, void (CCMenuItemSpriteExtra*)>::target_type() const
FUNC 44ec8 70 0 std::__ndk1::__function::__func<BPAlert::regenItems(int)::$_0, std::__ndk1::allocator<BPAlert::regenItems(int)::$_0>, void (CCMenuItemSpriteExtra*)>::~__func()
FUNC 44f38 6c 0 std::__ndk1::__function::__func<BPAlert::regenItems(int)::$_0, std::__ndk1::allocator<BPAlert::regenItems(int)::$_0>, void (CCMenuItemSpriteExtra*)>::~__func()
FUNC 44fa4 e4 0 std::__ndk1::__function::__func<BPAlert::regenItems(int)::$_0, std::__ndk1::allocator<BPAlert::regenItems(int)::$_0>, void (CCMenuItemSpriteExtra*)>::__clone() const
FUNC 45088 d4 0 std::__ndk1::__function::__func<BPAlert::regenItems(int)::$_0, std::__ndk1::allocator<BPAlert::regenItems(int)::$_0>, void (CCMenuItemSpriteExtra*)>::__clone(std::__ndk1::__function::__base<void (CCMenuItemSpriteExtra*)>*) const
FUNC 4515c 64 0 std::__ndk1::__function::__func<BPAlert::regenItems(int)::$_0, std::__ndk1::allocator<BPAlert::regenItems(int)::$_0>, void (CCMenuItemSpriteExtra*)>::destroy()
FUNC 451c0 60 0 std::__ndk1::__function::__func<BPAlert::regenItems(int)::$_0, std::__ndk1::allocator<BPAlert::regenItems(int)::$_0>, void (CCMenuItemSpriteExtra*)>::destroy_deallocate()
FUNC 45220 5c 0 std::__ndk1::__function::__func<BPAlert::regenItems(int)::$_0, std::__ndk1::allocator<BPAlert::regenItems(int)::$_0>, void (CCMenuItemSpriteExtra*)>::operator()(CCMenuItemSpriteExtra*&&)
FUNC 4527c 1c 0 std::__ndk1::__function::__func<BPAlert::regenItems(int)::$_0, std::__ndk1::allocator<BPAlert::regenItems(int)::$_0>, void (CCMenuItemSpriteExtra*)>::target(std::type_info const&) const
FUNC 45298 c 0 std::__ndk1::__function::__func<BPAlert::regenItems(int)::$_0, std::__ndk1::allocator<BPAlert::regenItems(int)::$_0>, void (CCMenuItemSpriteExtra*)>::target_type() const
FUNC 452a4 974 0 BPBottomLayer::init()
FUNC 45c18 1e8 0 BPBottomLayer::changeButtonState(int)
FUNC 45e00 24 0 BPBottomLayer::~BPBottomLayer()
FUNC 45e24 8 0 {virtual override thunk({offset(-320)}, BPBottomLayer::~BPBottomLayer())}
FUNC 45e2c 28 0 {virtual override thunk({offset(-320)}, BPBottomLayer::~BPBottomLayer())}
FUNC 45e54 4 0 std::__ndk1::__function::__func<BPBottomLayer::init()::$_0, std::__ndk1::allocator<BPBottomLayer::init()::$_0>, void (CCMenuItemSpriteExtra*)>::~__func()
FUNC 45e58 34 0 std::__ndk1::__function::__func<BPBottomLayer::init()::$_0, std::__ndk1::allocator<BPBottomLayer::init()::$_0>, void (CCMenuItemSpriteExtra*)>::__clone() const
FUNC 45e8c 14 0 std::__ndk1::__function::__func<BPBottomLayer::init()::$_0, std::__ndk1::allocator<BPBottomLayer::init()::$_0>, void (CCMenuItemSpriteExtra*)>::__clone(std::__ndk1::__function::__base<void (CCMenuItemSpriteExtra*)>*) const
FUNC 45ea0 4 0 std::__ndk1::__function::__func<BPBottomLayer::init()::$_0, std::__ndk1::allocator<BPBottomLayer::init()::$_0>, void (CCMenuItemSpriteExtra*)>::destroy()
FUNC 45ea4 4 0 std::__ndk1::__function::__func<BPBottomLayer::init()::$_0, std::__ndk1::allocator<BPBottomLayer::init()::$_0>, void (CCMenuItemSpriteExtra*)>::destroy_deallocate()
FUNC 45ea8 ec 0 std::__ndk1::__function::__func<BPBottomLayer::init()::$_0, std::__ndk1::allocator<BPBottomLayer::init()::$_0>, void (CCMenuItemSpriteExtra*)>::operator()(CCMenuItemSpriteExtra*&&)
FUNC 45f94 1c 0 std::__ndk1::__function::__func<BPBottomLayer::init()::$_0, std::__ndk1::allocator<BPBottomLayer::init()::$_0>, void (CCMenuItemSpriteExtra*)>::target(std::type_info const&) const
FUNC 45fb0 c 0 std::__ndk1::__function::__func<BPBottomLayer::init()::$_0, std::__ndk1::allocator<BPBottomLayer::init()::$_0>, void (CCMenuItemSpriteExtra*)>::target_type() const
FUNC 45fbc 4 0 std::__ndk1::__function::__func<BPBottomLayer::init()::$_1, std::__ndk1::allocator<BPBottomLayer::init()::$_1>, void (CCMenuItemSpriteExtra*)>::~__func()
FUNC 45fc0 24 0 std::__ndk1::__function::__func<BPBottomLayer::init()::$_1, std::__ndk1::allocator<BPBottomLayer::init()::$_1>, void (CCMenuItemSpriteExtra*)>::__clone() const
FUNC 45fe4 10 0 std::__ndk1::__function::__func<BPBottomLayer::init()::$_1, std::__ndk1::allocator<BPBottomLayer::init()::$_1>, void (CCMenuItemSpriteExtra*)>::__clone(std::__ndk1::__function::__base<void (CCMenuItemSpriteExtra*)>*) const
FUNC 45ff4 4 0 std::__ndk1::__function::__func<BPBottomLayer::init()::$_1, std::__ndk1::allocator<BPBottomLayer::init()::$_1>, void (CCMenuItemSpriteExtra*)>::destroy()
FUNC 45ff8 4 0 std::__ndk1::__function::__func<BPBottomLayer::init()::$_1, std::__ndk1::allocator<BPBottomLayer::init()::$_1>, void (CCMenuItemSpriteExtra*)>::destroy_deallocate()
FUNC 45ffc 34 0 std::__ndk1::__function::__func<BPBottomLayer::init()::$_1, std::__ndk1::allocator<BPBottomLayer::init()::$_1>, void (CCMenuItemSpriteExtra*)>::operator()(CCMenuItemSpriteExtra*&&)
FUNC 46030 1c 0 std::__ndk1::__function::__func<BPBottomLayer::init()::$_1, std::__ndk1::allocator<BPBottomLayer::init()::$_1>, void (CCMenuItemSpriteExtra*)>::target(std::type_info const&) const
FUNC 4604c c 0 std::__ndk1::__function::__func<BPBottomLayer::init()::$_1, std::__ndk1::allocator<BPBottomLayer::init()::$_1>, void (CCMenuItemSpriteExtra*)>::target_type() const
FUNC 46058 4 0 std::__ndk1::__function::__func<BPBottomLayer::init()::$_2, std::__ndk1::allocator<BPBottomLayer::init()::$_2>, void (CCMenuItemSpriteExtra*)>::~__func()
FUNC 4605c 24 0 std::__ndk1::__function::__func<BPBottomLayer::init()::$_2, std::__ndk1::allocator<BPBottomLayer::init()::$_2>, void (CCMenuItemSpriteExtra*)>::__clone() const
FUNC 46080 10 0 std::__ndk1::__function::__func<BPBottomLayer::init()::$_2, std::__ndk1::allocator<BPBottomLayer::init()::$_2>, void (CCMenuItemSpriteExtra*)>::__clone(std::__ndk1::__function::__base<void (CCMenuItemSpriteExtra*)>*) const
FUNC 46090 4 0 std::__ndk1::__function::__func<BPBottomLayer::init()::$_2, std::__ndk1::allocator<BPBottomLayer::init()::$_2>, void (CCMenuItemSpriteExtra*)>::destroy()
FUNC 46094 4 0 std::__ndk1::__function::__func<BPBottomLayer::init()::$_2, std::__ndk1::allocator<BPBottomLayer::init()::$_2>, void (CCMenuItemSpriteExtra*)>::destroy_deallocate()
FUNC 46098 34 0 std::__ndk1::__function::__func<BPBottomLayer::init()::$_2, std::__ndk1::allocator<BPBottomLayer::init()::$_2>, void (CCMenuItemSpriteExtra*)>::operator()(CCMenuItemSpriteExtra*&&)
FUNC 460cc 1c 0 std::__ndk1::__function::__func<BPBottomLayer::init()::$_2, std::__ndk1::allocator<BPBottomLayer::init()::$_2>, void (CCMenuItemSpriteExtra*)>::target(std::type_info const&) const
FUNC 460e8 c 0 std::__ndk1::__function::__func<BPBottomLayer::init()::$_2, std::__ndk1::allocator<BPBottomLayer::init()::$_2>, void (CCMenuItemSpriteExtra*)>::target_type() const
FUNC 460f4 4 0 std::__ndk1::__function::__func<BPBottomLayer::init()::$_3, std::__ndk1::allocator<BPBottomLayer::init()::$_3>, void (CCMenuItemSpriteExtra*)>::~__func()
FUNC 460f8 24 0 std::__ndk1::__function::__func<BPBottomLayer::init()::$_3, std::__ndk1::allocator<BPBottomLayer::init()::$_3>, void (CCMenuItemSpriteExtra*)>::__clone() const
FUNC 4611c 10 0 std::__ndk1::__function::__func<BPBottomLayer::init()::$_3, std::__ndk1::allocator<BPBottomLayer::init()::$_3>, void (CCMenuItemSpriteExtra*)>::__clone(std::__ndk1::__function::__base<void (CCMenuItemSpriteExtra*)>*) const
FUNC 4612c 4 0 std::__ndk1::__function::__func<BPBottomLayer::init()::$_3, std::__ndk1::allocator<BPBottomLayer::init()::$_3>, void (CCMenuItemSpriteExtra*)>::destroy()
FUNC 46130 4 0 std::__ndk1::__function::__func<BPBottomLayer::init()::$_3, std::__ndk1::allocator<BPBottomLayer::init()::$_3>, void (CCMenuItemSpriteExtra*)>::destroy_deallocate()
FUNC 46134 34 0 std::__ndk1::__function::__func<BPBottomLayer::init()::$_3, std::__ndk1::allocator<BPBottomLayer::init()::$_3>, void (CCMenuItemSpriteExtra*)>::operator()(CCMenuItemSpriteExtra*&&)
FUNC 46168 1c 0 std::__ndk1::__function::__func<BPBottomLayer::init()::$_3, std::__ndk1::allocator<BPBottomLayer::init()::$_3>, void (CCMenuItemSpriteExtra*)>::target(std::type_info const&) const
FUNC 46184 c 0 std::__ndk1::__function::__func<BPBottomLayer::init()::$_3, std::__ndk1::allocator<BPBottomLayer::init()::$_3>, void (CCMenuItemSpriteExtra*)>::target_type() const
FUNC 46190 2850 0 BPOptionsLayer::regenCategory(BPCategory)
FUNC 489e0 1a8 0 BPOptionsLayer::setSMSelected()
FUNC 48b88 158 0 GMDS_Dictionary::getFloatForKey(GameManager*, std::__ndk1::basic_string<char, std::__ndk1::char_traits<char>, std::__ndk1::allocator<char> >)
FUNC 48ce0 74 0 GMDS_Dictionary::getBoolForKey(GameManager*, std::__ndk1::basic_string<char, std::__ndk1::char_traits<char>, std::__ndk1::allocator<char> >)
FUNC 48d54 c04 0 BPOptionsLayer::updateOption(BPOption, matjson::Value)
FUNC 49958 30 0 geode::Mod::get<void>()
FUNC 49988 74 0 geode::impl::ResultData<bool, std::__ndk1::basic_string<char, std::__ndk1::char_traits<char>, std::__ndk1::allocator<char> > >::~ResultData()
FUNC 499fc 12c 0 geode::Mod::getSettingValue<cocos2d::_ccColor3B>(std::__ndk1::basic_string_view<char, std::__ndk1::char_traits<char> >) const
FUNC 49b28 74 0 geode::impl::ResultData<std::__ndk1::vector<matjson::Value, std::__ndk1::allocator<matjson::Value> >&, std::__ndk1::basic_string<char, std::__ndk1::char_traits<char>, std::__ndk1::allocator<char> > >::~ResultData()
FUNC 49b9c 74 0 geode::impl::ResultData<std::__ndk1::basic_string<char, std::__ndk1::char_traits<char>, std::__ndk1::allocator<char> >, std::__ndk1::basic_string<char, std::__ndk1::char_traits<char>, std::__ndk1::allocator<char> > >::~ResultData()
FUNC 49c10 74 0 geode::impl::ResultData<long, std::__ndk1::basic_string<char, std::__ndk1::char_traits<char>, std::__ndk1::allocator<char> > >::~ResultData()
FUNC 49c84 68 0 std::__ndk1::vector<matjson::Value, std::__ndk1::allocator<matjson::Value> >::~vector[abi:ne180000]()
FUNC 49cec 2f4 0 BPOptionsLayer::onSliderChange(cocos2d::CCObject*)
FUNC 49fe0 13c 0 BPOption::BPOption(BPOption const&)
FUNC 4a11c 7c 0 BPOption::~BPOption()
FUNC 4a198 7c 0 BPOptionsLayer::regenCategory(BPCategory)::$_0::~$_0()
FUNC 4a214 7c 0 BPOptionsLayer::regenCategory(BPCategory)::$_1::~$_1()
FUNC 4a290 7c 0 BPOptionsLayer::regenCategory(BPCategory)::$_2::~$_2()
FUNC 4a30c 7c 0 BPOptionsLayer::regenCategory(BPCategory)::$_3::~$_3()
FUNC 4a388 14c 0 geode::cocos::CCMenuItemExt::createSpriteExtraWithFilename(std::__ndk1::basic_string_view<char, std::__ndk1::char_traits<char> >, float, std::__ndk1::function<void (CCMenuItemSpriteExtra*)>)
FUNC 4a4d4 a8 0 BPOptionsLayer::regenCategory(BPCategory)::$_4::~$_4()
FUNC 4a57c 3fc 0 BPOptionsLayer::keyPressDown(cocos2d::enumKeyCodes)
FUNC 4a978 ac 0 std::__ndk1::__exception_guard_exceptions<std::__ndk1::_AllocatorDestroyRangeReverse<std::__ndk1::allocator<BPOption>, BPOption*> >::~__exception_guard_exceptions[abi:ne180000]()
FUNC 4aa24 14 0 std::__ndk1::vector<BPOption, std::__ndk1::allocator<BPOption> >::__throw_length_error[abi:ne180000]() const
FUNC 4aa38 d0 0 std::__ndk1::vector<BPOption, std::__ndk1::allocator<BPOption> >::__destroy_vector::operator()[abi:ne180000]()
FUNC 4ab08 4 0 std::__ndk1::__variant_detail::__visitation::__base::__dispatcher<(unsigned long)0>::__dispatch[abi:ne180000]<std::__ndk1::__variant_detail::__dtor<std::__ndk1::__variant_detail::__traits<bool, std::__ndk1::basic_string<char, std::__ndk1::char_traits<char>, std::__ndk1::allocator<char> > >, (std::__ndk1::__variant_detail::_Trait)1>::__destroy[abi:ne180000]()::{lambda(auto:1&)#1}, std::__ndk1::__variant_detail::__base<(std::__ndk1::__variant_detail::__traits<bool, std::__ndk1::basic_string<char, std::__ndk1::char_traits<char>, std::__ndk1::allocator<char> > >)1, bool, std::__ndk1::allocator<char> >&>(std::__ndk1::__variant_detail::__dtor<std::__ndk1::__variant_detail::__traits<bool, std::__ndk1::basic_string<char, std::__ndk1::char_traits<char>, std::__ndk1::allocator<char> > >, (std::__ndk1::__variant_detail::_Trait)1>, std::__ndk1::__variant_detail::__base<(std::__ndk1::__variant_detail::__traits<bool, std::__ndk1::basic_string<char, std::__ndk1::char_traits<char>, std::__ndk1::allocator<char> > >)1, bool, std::__ndk1::allocator<char> >&)
FUNC 4ab0c 14 0 std::__ndk1::__variant_detail::__visitation::__base::__dispatcher<(unsigned long)1>::__dispatch[abi:ne180000]<std::__ndk1::__variant_detail::__dtor<std::__ndk1::__variant_detail::__traits<bool, std::__ndk1::basic_string<char, std::__ndk1::char_traits<char>, std::__ndk1::allocator<char> > >, (std::__ndk1::__variant_detail::_Trait)1>::__destroy[abi:ne180000]()::{lambda(auto:1&)#1}, std::__ndk1::__variant_detail::__base<(std::__ndk1::__variant_detail::__traits<bool, std::__ndk1::basic_string<char, std::__ndk1::char_traits<char>, std::__ndk1::allocator<char> > >)1, bool, std::__ndk1::allocator<char> >&>(std::__ndk1::__variant_detail::__dtor<std::__ndk1::__variant_detail::__traits<bool, std::__ndk1::basic_string<char, std::__ndk1::char_traits<char>, std::__ndk1::allocator<char> > >, (std::__ndk1::__variant_detail::_Trait)1>, std::__ndk1::__variant_detail::__base<(std::__ndk1::__variant_detail::__traits<bool, std::__ndk1::basic_string<char, std::__ndk1::char_traits<char>, std::__ndk1::allocator<char> > >)1, bool, std::__ndk1::allocator<char> >&)
FUNC 4ab20 118 0 std::__ndk1::vector<matjson::Value, std::__ndk1::allocator<matjson::Value> >::__init_with_size[abi:ne180000]<matjson::Value*, std::__ndk1::vector<matjson::Value, std::__ndk1::allocator<matjson::Value> >::__init_with_size[abi:ne180000]>(matjson::Value*, std::__ndk1::vector<matjson::Value, std::__ndk1::allocator<matjson::Value> >::__init_with_size[abi:ne180000], unsigned long)
FUNC 4ac38 7c 0 std::__ndk1::__exception_guard_exceptions<std::__ndk1::vector<matjson::Value, std::__ndk1::allocator<matjson::Value> >::__destroy_vector>::~__exception_guard_exceptions[abi:ne180000]()
FUNC 4acb4 14 0 std::__ndk1::vector<matjson::Value, std::__ndk1::allocator<matjson::Value> >::__throw_length_error[abi:ne180000]() const
FUNC 4acc8 4 0 std::__ndk1::__variant_detail::__visitation::__base::__dispatcher<(unsigned long)0>::__dispatch[abi:ne180000]<std::__ndk1::__variant_detail::__dtor<std::__ndk1::__variant_detail::__traits<std::__ndk1::reference_wrapper<std::__ndk1::vector<matjson::Value, std::__ndk1::allocator<matjson> > >, std::__ndk1::basic_string<char, std::__ndk1::char_traits<char>, matjson::Value<char> > >, (std::__ndk1::__variant_detail::_Trait)1>::__destroy[abi:ne180000]()::{lambda(auto:1&)#1}, std::__ndk1::__variant_detail::__base<(std::__ndk1::__variant_detail::__traits<std::__ndk1::reference_wrapper<std::__ndk1::vector<matjson::Value, std::__ndk1::allocator<matjson> > >, std::__ndk1::basic_string<char, std::__ndk1::char_traits<char>, matjson::Value<char> > >)1, std::__ndk1::vector<matjson::Value, std::__ndk1::allocator<matjson> >, matjson::Value<char> >&>(std::__ndk1::__variant_detail::__dtor<std::__ndk1::__variant_detail::__traits<std::__ndk1::reference_wrapper<std::__ndk1::vector<matjson::Value, std::__ndk1::allocator<matjson> > >, std::__ndk1::basic_string<char, std::__ndk1::char_traits<char>, matjson::Value<char> > >, (std::__ndk1::__variant_detail::_Trait)1>, std::__ndk1::__variant_detail::__base<(std::__ndk1::__variant_detail::__traits<std::__ndk1::reference_wrapper<std::__ndk1::vector<matjson::Value, std::__ndk1::allocator<matjson> > >, std::__ndk1::basic_string<char, std::__ndk1::char_traits<char>, matjson::Value<char> > >)1, std::__ndk1::vector<matjson::Value, std::__ndk1::allocator<matjson> >, matjson::Value<char> >&)
FUNC 4accc 14 0 std::__ndk1::__variant_detail::__visitation::__base::__dispatcher<(unsigned long)1>::__dispatch[abi:ne180000]<std::__ndk1::__variant_detail::__dtor<std::__ndk1::__variant_detail::__traits<std::__ndk1::reference_wrapper<std::__ndk1::vector<matjson::Value, std::__ndk1::allocator<matjson> > >, std::__ndk1::basic_string<char, std::__ndk1::char_traits<char>, matjson::Value<char> > >, (std::__ndk1::__variant_detail::_Trait)1>::__destroy[abi:ne180000]()::{lambda(auto:1&)#1}, std::__ndk1::__variant_detail::__base<(std::__ndk1::__variant_detail::__traits<std::__ndk1::reference_wrapper<std::__ndk1::vector<matjson::Value, std::__ndk1::allocator<matjson> > >, std::__ndk1::basic_string<char, std::__ndk1::char_traits<char>, matjson::Value<char> > >)1, std::__ndk1::vector<matjson::Value, std::__ndk1::allocator<matjson> >, matjson::Value<char> >&>(std::__ndk1::__variant_detail::__dtor<std::__ndk1::__variant_detail::__traits<std::__ndk1::reference_wrapper<std::__ndk1::vector<matjson::Value, std::__ndk1::allocator<matjson> > >, std::__ndk1::basic_string<char, std::__ndk1::char_traits<char>, matjson::Value<char> > >, (std::__ndk1::__variant_detail::_Trait)1>, std::__ndk1::__variant_detail::__base<(std::__ndk1::__variant_detail::__traits<std::__ndk1::reference_wrapper<std::__ndk1::vector<matjson::Value, std::__ndk1::allocator<matjson> > >, std::__ndk1::basic_string<char, std::__ndk1::char_traits<char>, matjson::Value<char> > >)1, std::__ndk1::vector<matjson::Value, std::__ndk1::allocator<matjson> >, matjson::Value<char> >&)
FUNC 4ace0 14 0 std::__ndk1::__variant_detail::__visitation::__base::__dispatcher<(unsigned long)0>::__dispatch[abi:ne180000]<std::__ndk1::__variant_detail::__dtor<std::__ndk1::__variant_detail::__traits<std::__ndk1::basic_string<char, std::__ndk1::char_traits<char>, std::__ndk1::allocator<char> >, std::__ndk1::allocator<char> >, (std::__ndk1::__variant_detail::_Trait)1>::__destroy[abi:ne180000]()::{lambda(auto:1&)#1}, std::__ndk1::__variant_detail::__base<(std::__ndk1::__variant_detail::__traits<std::__ndk1::basic_string<char, std::__ndk1::char_traits<char>, std::__ndk1::allocator<char> >, std::__ndk1::allocator<char> >)1, std::__ndk1::allocator<char>, std::__ndk1::allocator<char> >&>(std::__ndk1::__variant_detail::__dtor<std::__ndk1::__variant_detail::__traits<std::__ndk1::basic_string<char, std::__ndk1::char_traits<char>, std::__ndk1::allocator<char> >, std::__ndk1::allocator<char> >, (std::__ndk1::__variant_detail::_Trait)1>, std::__ndk1::__variant_detail::__base<(std::__ndk1::__variant_detail::__traits<std::__ndk1::basic_string<char, std::__ndk1::char_traits<char>, std::__ndk1::allocator<char> >, std::__ndk1::allocator<char> >)1, std::__ndk1::allocator<char>, std::__ndk1::allocator<char> >&)
FUNC 4acf4 14 0 std::__ndk1::__variant_detail::__visitation::__base::__dispatcher<(unsigned long)1>::__dispatch[abi:ne180000]<std::__ndk1::__variant_detail::__dtor<std::__ndk1::__variant_detail::__traits<std::__ndk1::basic_string<char, std::__ndk1::char_traits<char>, std::__ndk1::allocator<char> >, std::__ndk1::allocator<char> >, (std::__ndk1::__variant_detail::_Trait)1>::__destroy[abi:ne180000]()::{lambda(auto:1&)#1}, std::__ndk1::__variant_detail::__base<(std::__ndk1::__variant_detail::__traits<std::__ndk1::basic_string<char, std::__ndk1::char_traits<char>, std::__ndk1::allocator<char> >, std::__ndk1::allocator<char> >)1, std::__ndk1::allocator<char>, std::__ndk1::allocator<char> >&>(std::__ndk1::__variant_detail::__dtor<std::__ndk1::__variant_detail::__traits<std::__ndk1::basic_string<char, std::__ndk1::char_traits<char>, std::__ndk1::allocator<char> >, std::__ndk1::allocator<char> >, (std::__ndk1::__variant_detail::_Trait)1>, std::__ndk1::__variant_detail::__base<(std::__ndk1::__variant_detail::__traits<std::__ndk1::basic_string<char, std::__ndk1::char_traits<char>, std::__ndk1::allocator<char> >, std::__ndk1::allocator<char> >)1, std::__ndk1::allocator<char>, std::__ndk1::allocator<char> >&)
FUNC 4ad08 4 0 std::__ndk1::__variant_detail::__visitation::__base::__dispatcher<(unsigned long)0>::__dispatch[abi:ne180000]<std::__ndk1::__variant_detail::__dtor<std::__ndk1::__variant_detail::__traits<long, std::__ndk1::basic_string<char, std::__ndk1::char_traits<char>, std::__ndk1::allocator<char> > >, (std::__ndk1::__variant_detail::_Trait)1>::__destroy[abi:ne180000]()::{lambda(auto:1&)#1}, std::__ndk1::__variant_detail::__base<(std::__ndk1::__variant_detail::__traits<long, std::__ndk1::basic_string<char, std::__ndk1::char_traits<char>, std::__ndk1::allocator<char> > >)1, long, std::__ndk1::allocator<char> >&>(std::__ndk1::__variant_detail::__dtor<std::__ndk1::__variant_detail::__traits<long, std::__ndk1::basic_string<char, std::__ndk1::char_traits<char>, std::__ndk1::allocator<char> > >, (std::__ndk1::__variant_detail::_Trait)1>, std::__ndk1::__variant_detail::__base<(std::__ndk1::__variant_detail::__traits<long, std::__ndk1::basic_string<char, std::__ndk1::char_traits<char>, std::__ndk1::allocator<char> > >)1, long, std::__ndk1::allocator<char> >&)
FUNC 4ad0c 14 0 std::__ndk1::__variant_detail::__visitation::__base::__dispatcher<(unsigned long)1>::__dispatch[abi:ne180000]<std::__ndk1::__variant_detail::__dtor<std::__ndk1::__variant_detail::__traits<long, std::__ndk1::basic_string<char, std::__ndk1::char_traits<char>, std::__ndk1::allocator<char> > >, (std::__ndk1::__variant_detail::_Trait)1>::__destroy[abi:ne180000]()::{lambda(auto:1&)#1}, std::__ndk1::__variant_detail::__base<(std::__ndk1::__variant_detail::__traits<long, std::__ndk1::basic_string<char, std::__ndk1::char_traits<char>, std::__ndk1::allocator<char> > >)1, long, std::__ndk1::allocator<char> >&>(std::__ndk1::__variant_detail::__dtor<std::__ndk1::__variant_detail::__traits<long, std::__ndk1::basic_string<char, std::__ndk1::char_traits<char>, std::__ndk1::allocator<char> > >, (std::__ndk1::__variant_detail::_Trait)1>, std::__ndk1::__variant_detail::__base<(std::__ndk1::__variant_detail::__traits<long, std::__ndk1::basic_string<char, std::__ndk1::char_traits<char>, std::__ndk1::allocator<char> > >)1, long, std::__ndk1::allocator<char> >&)
FUNC 4ad20 24 0 BreakLine::~BreakLine()
FUNC 4ad44 98 0 BreakLine::draw()
FUNC 4addc 50 0 std::__ndk1::shared_ptr<geode::BoolSettingV3>::~shared_ptr[abi:ne180000]()
FUNC 4ae2c 88 0 std::__ndk1::__function::__func<BPOptionsLayer::regenCategory(BPCategory)::$_0, std::__ndk1::allocator<BPOptionsLayer::regenCategory(BPCategory)::$_0>, void (CCMenuItemSpriteExtra*)>::~__func()
FUNC 4aeb4 84 0 std::__ndk1::__function::__func<BPOptionsLayer::regenCategory(BPCategory)::$_0, std::__ndk1::allocator<BPOptionsLayer::regenCategory(BPCategory)::$_0>, void (CCMenuItemSpriteExtra*)>::~__func()
FUNC 4af38 60 0 std::__ndk1::__function::__func<BPOptionsLayer::regenCategory(BPCategory)::$_0, std::__ndk1::allocator<BPOptionsLayer::regenCategory(BPCategory)::$_0>, void (CCMenuItemSpriteExtra*)>::__clone() const
FUNC 4af98 28 0 std::__ndk1::__function::__func<BPOptionsLayer::regenCategory(BPCategory)::$_0, std::__ndk1::allocator<BPOptionsLayer::regenCategory(BPCategory)::$_0>, void (CCMenuItemSpriteExtra*)>::__clone(std::__ndk1::__function::__base<void (CCMenuItemSpriteExtra*)>*) const
FUNC 4afc0 7c 0 std::__ndk1::__function::__func<BPOptionsLayer::regenCategory(BPCategory)::$_0, std::__ndk1::allocator<BPOptionsLayer::regenCategory(BPCategory)::$_0>, void (CCMenuItemSpriteExtra*)>::destroy()
FUNC 4b03c 78 0 std::__ndk1::__function::__func<BPOptionsLayer::regenCategory(BPCategory)::$_0, std::__ndk1::allocator<BPOptionsLayer::regenCategory(BPCategory)::$_0>, void (CCMenuItemSpriteExtra*)>::destroy_deallocate()
FUNC 4b0b4 10c 0 std::__ndk1::__function::__func<BPOptionsLayer::regenCategory(BPCategory)::$_0, std::__ndk1::allocator<BPOptionsLayer::regenCategory(BPCategory)::$_0>, void (CCMenuItemSpriteExtra*)>::operator()(CCMenuItemSpriteExtra*&&)
FUNC 4b1c0 1c 0 std::__ndk1::__function::__func<BPOptionsLayer::regenCategory(BPCategory)::$_0, std::__ndk1::allocator<BPOptionsLayer::regenCategory(BPCategory)::$_0>, void (CCMenuItemSpriteExtra*)>::target(std::type_info const&) const
FUNC 4b1dc c 0 std::__ndk1::__function::__func<BPOptionsLayer::regenCategory(BPCategory)::$_0, std::__ndk1::allocator<BPOptionsLayer::regenCategory(BPCategory)::$_0>, void (CCMenuItemSpriteExtra*)>::target_type() const
FUNC 4b1e8 88 0 std::__ndk1::__function::__func<BPOptionsLayer::regenCategory(BPCategory)::$_1, std::__ndk1::allocator<BPOptionsLayer::regenCategory(BPCategory)::$_1>, void (CCMenuItemSpriteExtra*)>::~__func()
FUNC 4b270 84 0 std::__ndk1::__function::__func<BPOptionsLayer::regenCategory(BPCategory)::$_1, std::__ndk1::allocator<BPOptionsLayer::regenCategory(BPCategory)::$_1>, void (CCMenuItemSpriteExtra*)>::~__func()
FUNC 4b2f4 54 0 std::__ndk1::__function::__func<BPOptionsLayer::regenCategory(BPCategory)::$_1, std::__ndk1::allocator<BPOptionsLayer::regenCategory(BPCategory)::$_1>, void (CCMenuItemSpriteExtra*)>::__clone() const
FUNC 4b348 1c 0 std::__ndk1::__function::__func<BPOptionsLayer::regenCategory(BPCategory)::$_1, std::__ndk1::allocator<BPOptionsLayer::regenCategory(BPCategory)::$_1>, void (CCMenuItemSpriteExtra*)>::__clone(std::__ndk1::__function::__base<void (CCMenuItemSpriteExtra*)>*) const
FUNC 4b364 7c 0 std::__ndk1::__function::__func<BPOptionsLayer::regenCategory(BPCategory)::$_1, std::__ndk1::allocator<BPOptionsLayer::regenCategory(BPCategory)::$_1>, void (CCMenuItemSpriteExtra*)>::destroy()
FUNC 4b3e0 78 0 std::__ndk1::__function::__func<BPOptionsLayer::regenCategory(BPCategory)::$_1, std::__ndk1::allocator<BPOptionsLayer::regenCategory(BPCategory)::$_1>, void (CCMenuItemSpriteExtra*)>::destroy_deallocate()
FUNC 4b458 a8 0 std::__ndk1::__function::__func<BPOptionsLayer::regenCategory(BPCategory)::$_1, std::__ndk1::allocator<BPOptionsLayer::regenCategory(BPCategory)::$_1>, void (CCMenuItemSpriteExtra*)>::operator()(CCMenuItemSpriteExtra*&&)
FUNC 4b500 1c 0 std::__ndk1::__function::__func<BPOptionsLayer::regenCategory(BPCategory)::$_1, std::__ndk1::allocator<BPOptionsLayer::regenCategory(BPCategory)::$_1>, void (CCMenuItemSpriteExtra*)>::target(std::type_info const&) const
FUNC 4b51c c 0 std::__ndk1::__function::__func<BPOptionsLayer::regenCategory(BPCategory)::$_1, std::__ndk1::allocator<BPOptionsLayer::regenCategory(BPCategory)::$_1>, void (CCMenuItemSpriteExtra*)>::target_type() const
FUNC 4b528 88 0 std::__ndk1::__function::__func<BPOptionsLayer::regenCategory(BPCategory)::$_2, std::__ndk1::allocator<BPOptionsLayer::regenCategory(BPCategory)::$_2>, void (std::__ndk1::basic_string<char, std::__ndk1::char_traits<char>, std::__ndk1::allocator<char> > const&)>::~__func()
FUNC 4b5b0 84 0 std::__ndk1::__function::__func<BPOptionsLayer::regenCategory(BPCategory)::$_2, std::__ndk1::allocator<BPOptionsLayer::regenCategory(BPCategory)::$_2>, void (std::__ndk1::basic_string<char, std::__ndk1::char_traits<char>, std::__ndk1::allocator<char> > const&)>::~__func()
FUNC 4b634 5c 0 std::__ndk1::__function::__func<BPOptionsLayer::regenCategory(BPCategory)::$_2, std::__ndk1::allocator<BPOptionsLayer::regenCategory(BPCategory)::$_2>, void (std::__ndk1::basic_string<char, std::__ndk1::char_traits<char>, std::__ndk1::allocator<char> > const&)>::__clone() const
FUNC 4b690 40 0 std::__ndk1::__function::__func<BPOptionsLayer::regenCategory(BPCategory)::$_2, std::__ndk1::allocator<BPOptionsLayer::regenCategory(BPCategory)::$_2>, void (std::__ndk1::basic_string<char, std::__ndk1::char_traits<char>, std::__ndk1::allocator<char> > const&)>::__clone(std::__ndk1::__function::__base<void (std::__ndk1::basic_string<char, std::__ndk1::char_traits<char>, std::__ndk1::allocator<char> > const&)>*) const
FUNC 4b6d0 7c 0 std::__ndk1::__function::__func<BPOptionsLayer::regenCategory(BPCategory)::$_2, std::__ndk1::allocator<BPOptionsLayer::regenCategory(BPCategory)::$_2>, void (std::__ndk1::basic_string<char, std::__ndk1::char_traits<char>, std::__ndk1::allocator<char> > const&)>::destroy()
FUNC 4b74c 78 0 std::__ndk1::__function::__func<BPOptionsLayer::regenCategory(BPCategory)::$_2, std::__ndk1::allocator<BPOptionsLayer::regenCategory(BPCategory)::$_2>, void (std::__ndk1::basic_string<char, std::__ndk1::char_traits<char>, std::__ndk1::allocator<char> > const&)>::destroy_deallocate()
FUNC 4b7c4 1cc 0 std::__ndk1::__function::__func<BPOptionsLayer::regenCategory(BPCategory)::$_2, std::__ndk1::allocator<BPOptionsLayer::regenCategory(BPCategory)::$_2>, void (std::__ndk1::basic_string<char, std::__ndk1::char_traits<char>, std::__ndk1::allocator<char> > const&)>::operator()(std::__ndk1::basic_string<char, std::__ndk1::char_traits<char>, std::__ndk1::allocator<char> > const&)
FUNC 4b990 1c 0 std::__ndk1::__function::__func<BPOptionsLayer::regenCategory(BPCategory)::$_2, std::__ndk1::allocator<BPOptionsLayer::regenCategory(BPCategory)::$_2>, void (std::__ndk1::basic_string<char, std::__ndk1::char_traits<char>, std::__ndk1::allocator<char> > const&)>::target(std::type_info const&) const
FUNC 4b9ac c 0 std::__ndk1::__function::__func<BPOptionsLayer::regenCategory(BPCategory)::$_2, std::__ndk1::allocator<BPOptionsLayer::regenCategory(BPCategory)::$_2>, void (std::__ndk1::basic_string<char, std::__ndk1::char_traits<char>, std::__ndk1::allocator<char> > const&)>::target_type() const
FUNC 4b9b8 88 0 std::__ndk1::__function::__func<BPOptionsLayer::regenCategory(BPCategory)::$_3, std::__ndk1::allocator<BPOptionsLayer::regenCategory(BPCategory)::$_3>, void ()>::~__func()
FUNC 4ba40 84 0 std::__ndk1::__function::__func<BPOptionsLayer::regenCategory(BPCategory)::$_3, std::__ndk1::allocator<BPOptionsLayer::regenCategory(BPCategory)::$_3>, void ()>::~__func()
FUNC 4bac4 68 0 std::__ndk1::__function::__func<BPOptionsLayer::regenCategory(BPCategory)::$_3, std::__ndk1::allocator<BPOptionsLayer::regenCategory(BPCategory)::$_3>, void ()>::__clone() const
FUNC 4bb2c 48 0 std::__ndk1::__function::__func<BPOptionsLayer::regenCategory(BPCategory)::$_3, std::__ndk1::allocator<BPOptionsLayer::regenCategory(BPCategory)::$_3>, void ()>::__clone(std::__ndk1::__function::__base<void ()>*) const
FUNC 4bb74 7c 0 std::__ndk1::__function::__func<BPOptionsLayer::regenCategory(BPCategory)::$_3, std::__ndk1::allocator<BPOptionsLayer::regenCategory(BPCategory)::$_3>, void ()>::destroy()
FUNC 4bbf0 78 0 std::__ndk1::__function::__func<BPOptionsLayer::regenCategory(BPCategory)::$_3, std::__ndk1::allocator<BPOptionsLayer::regenCategory(BPCategory)::$_3>, void ()>::destroy_deallocate()
FUNC 4bc68 114 0 std::__ndk1::__function::__func<BPOptionsLayer::regenCategory(BPCategory)::$_3, std::__ndk1::allocator<BPOptionsLayer::regenCategory(BPCategory)::$_3>, void ()>::operator()()
FUNC 4bd7c 1c 0 std::__ndk1::__function::__func<BPOptionsLayer::regenCategory(BPCategory)::$_3, std::__ndk1::allocator<BPOptionsLayer::regenCategory(BPCategory)::$_3>, void ()>::target(std::type_info const&) const
FUNC 4bd98 c 0 std::__ndk1::__function::__func<BPOptionsLayer::regenCategory(BPCategory)::$_3, std::__ndk1::allocator<BPOptionsLayer::regenCategory(BPCategory)::$_3>, void ()>::target_type() const
FUNC 4bda4 b4 0 std::__ndk1::__function::__func<BPOptionsLayer::regenCategory(BPCategory)::$_4, std::__ndk1::allocator<BPOptionsLayer::regenCategory(BPCategory)::$_4>, void (CCMenuItemSpriteExtra*)>::~__func()
FUNC 4be58 ac 0 std::__ndk1::__function::__func<BPOptionsLayer::regenCategory(BPCategory)::$_4, std::__ndk1::allocator<BPOptionsLayer::regenCategory(BPCategory)::$_4>, void (CCMenuItemSpriteExtra*)>::~__func()
FUNC 4bf04 13c 0 std::__ndk1::__function::__func<BPOptionsLayer::regenCategory(BPCategory)::$_4, std::__ndk1::allocator<BPOptionsLayer::regenCategory(BPCategory)::$_4>, void (CCMenuItemSpriteExtra*)>::__clone() const
FUNC 4c040 12c 0 std::__ndk1::__function::__func<BPOptionsLayer::regenCategory(BPCategory)::$_4, std::__ndk1::allocator<BPOptionsLayer::regenCategory(BPCategory)::$_4>, void (CCMenuItemSpriteExtra*)>::__clone(std::__ndk1::__function::__base<void (CCMenuItemSpriteExtra*)>*) const
FUNC 4c16c a8 0 std::__ndk1::__function::__func<BPOptionsLayer::regenCategory(BPCategory)::$_4, std::__ndk1::allocator<BPOptionsLayer::regenCategory(BPCategory)::$_4>, void (CCMenuItemSpriteExtra*)>::destroy()
FUNC 4c214 a0 0 std::__ndk1::__function::__func<BPOptionsLayer::regenCategory(BPCategory)::$_4, std::__ndk1::allocator<BPOptionsLayer::regenCategory(BPCategory)::$_4>, void (CCMenuItemSpriteExtra*)>::destroy_deallocate()
FUNC 4c2b4 1d0 0 std::__ndk1::__function::__func<BPOptionsLayer::regenCategory(BPCategory)::$_4, std::__ndk1::allocator<BPOptionsLayer::regenCategory(BPCategory)::$_4>, void (CCMenuItemSpriteExtra*)>::operator()(CCMenuItemSpriteExtra*&&)
FUNC 4c484 1c 0 std::__ndk1::__function::__func<BPOptionsLayer::regenCategory(BPCategory)::$_4, std::__ndk1::allocator<BPOptionsLayer::regenCategory(BPCategory)::$_4>, void (CCMenuItemSpriteExtra*)>::target(std::type_info const&) const
FUNC 4c4a0 c 0 std::__ndk1::__function::__func<BPOptionsLayer::regenCategory(BPCategory)::$_4, std::__ndk1::allocator<BPOptionsLayer::regenCategory(BPCategory)::$_4>, void (CCMenuItemSpriteExtra*)>::target_type() const
FUNC 4c4ac cb4 0 processString(std::__ndk1::basic_string<char, std::__ndk1::char_traits<char>, std::__ndk1::allocator<char> > const&)
FUNC 4d160 7c 0 std::__ndk1::basic_ostringstream<char, std::__ndk1::char_traits<char>, std::__ndk1::allocator<char> >::~basic_ostringstream()
FUNC 4d1dc 2d8 0 BigPictureLayer::buttonCallback(cocos2d::CCObject*)
FUNC 4d4b4 154 0 cocos2d::CCNode::getChildByType<MenuLayer>(int)
FUNC 4d608 388 0 BigPictureLayer::createButton(cocos2d::CCSprite*, std::__ndk1::basic_string<char, std::__ndk1::char_traits<char>, std::__ndk1::allocator<char> >, void (cocos2d::CCObject::*)(cocos2d::CCObject*))
FUNC 4d990 4c4 0 BigPictureLayer::createButton(cocos2d::CCSprite*, std::__ndk1::basic_string<char, std::__ndk1::char_traits<char>, std::__ndk1::allocator<char> >, std::__ndk1::function<void (cocos2d::CCObject*)>)
FUNC 4de54 1228 0 BigPictureLayer::init()
FUNC 4f07c 20 0 geode::cocos::CCArrayExt<CCMenuItemSpriteExtra*>::~CCArrayExt()
FUNC 4f09c 474 0 BigPictureLayer::keyPressDown(cocos2d::enumKeyCodes)
FUNC 4f510 294 0 BigPictureLayer::toggleBar()
FUNC 4f7a4 ac 0 BigPictureLayer::toggleBarChangeTop(bool)
FUNC 4f850 c 0 BigPictureLayer::allowSelect()
FUNC 4f85c 268 0 BigPictureLayer::toggleBar(bool)
FUNC 4fac4 8c4 0 BigPictureLayer::createStatusbar()
FUNC 50388 b8 0 BigPictureLayer::updateTime()
FUNC 50440 18c 0 BigPictureLayer::updateBattery()
FUNC 505cc 314 0 Utils::get_current_time_string()
FUNC 508e0 1d4 0 BigPictureLayer::BigPictureLayer()
FUNC 50ab4 b0 0 BigPictureLayer::~BigPictureLayer()
FUNC 50b64 b8 0 BigPictureLayer::~BigPictureLayer()
FUNC 50c1c b4 0 {virtual override thunk({offset(-320)}, BigPictureLayer::~BigPictureLayer())}
FUNC 50cd0 bc 0 {virtual override thunk({offset(-320)}, BigPictureLayer::~BigPictureLayer())}
FUNC 50d8c 14 0 std::__ndk1::basic_string<char, std::__ndk1::char_traits<char>, std::__ndk1::allocator<char> >::__throw_out_of_range[abi:ne180000]() const
FUNC 50da0 10 0 BigProfilePage::byeBye()
FUNC 50db0 628 0 fmt::v11::detail::value<fmt::v11::context>::format_custom_arg<std::__ndk1::vector<std::__ndk1::basic_string<char, std::__ndk1::char_traits<char>, std::__ndk1::allocator<char> >, std::__ndk1::allocator<std::__ndk1::basic_string<char, std::__ndk1::char_traits<char>, std::__ndk1::allocator<char> > > >, fmt::v11::formatter<std::__ndk1::vector<std::__ndk1::basic_string<char, std::__ndk1::char_traits<char>, std::__ndk1::allocator<char> >, std::__ndk1::allocator<std::__ndk1::basic_string<char, std::__ndk1::char_traits<char>, std::__ndk1::allocator<char> > > >, char, void> >(void*, fmt::v11::basic_format_parse_context<char>&, fmt::v11::context&)
FUNC 513d8 4a4 0 fmt::v11::detail::parse_format_specs<char>(char const*, char const*, fmt::v11::detail::dynamic_format_specs<char>&, fmt::v11::basic_format_parse_context<char>&, fmt::v11::detail::type)
FUNC 5187c 1a4 0 fmt::v11::detail::parse_dynamic_spec<char>(char const*, char const*, int&, fmt::v11::detail::arg_ref<char>&, fmt::v11::basic_format_parse_context<char>&)
FUNC 51a20 17c 0 fmt::v11::detail::do_parse_arg_id<char, fmt::v11::detail::dynamic_spec_id_handler<char>&>(char const*, char const*, fmt::v11::detail::dynamic_spec_id_handler<char>&)
FUNC 51b9c 114 0 fmt::v11::detail::handle_dynamic_spec<fmt::v11::detail::width_checker, fmt::v11::context>(int&, fmt::v11::detail::arg_ref<fmt::v11::context::char_type>, fmt::v11::context&)
FUNC 51cb0 114 0 fmt::v11::detail::handle_dynamic_spec<fmt::v11::detail::precision_checker, fmt::v11::context>(int&, fmt::v11::detail::arg_ref<fmt::v11::context::char_type>, fmt::v11::context&)
FUNC 51dc4 27c 0 fmt::v11::detail::write<char, fmt::v11::basic_appender<char> >(fmt::v11::basic_appender<char>, fmt::v11::basic_string_view<char>, fmt::v11::format_specs const&)
FUNC 52040 200 0 fmt::v11::detail::write_escaped_string<char, fmt::v11::detail::counting_iterator>(fmt::v11::detail::counting_iterator, fmt::v11::basic_string_view<char>)
FUNC 52240 20c 0 fmt::v11::detail::write_padded<char, (fmt::v11::align::type)1, fmt::v11::basic_appender<char>, fmt::v11::detail::write<char, fmt::v11::basic_appender<char> >(fmt::v11::basic_appender<char>, fmt::v11::basic_string_view<char>, fmt::v11::format_specs const&)::{lambda(fmt::v11::basic_appender<char>)#1}>(fmt::v11::basic_appender<char>, fmt::v11::format_specs const&, unsigned long, unsigned long, fmt::v11::detail::write<char, fmt::v11::basic_appender<char> >(fmt::v11::basic_appender<char>, fmt::v11::basic_string_view<char>, fmt::v11::format_specs const&)::{lambda(fmt::v11::basic_appender<char>&&)#1})
FUNC 5244c 3ac 0 fmt::v11::detail::for_each_codepoint<fmt::v11::detail::code_point_index(fmt::v11::basic_string_view<char>, unsigned long)::{lambda(unsigned int, fmt::v11::basic_string_view<char>)#1}>(fmt::v11::basic_string_view<char>, fmt::v11::detail::code_point_index(fmt::v11::basic_string_view<char>, unsigned long)::{lambda(unsigned int, fmt::v11::basic_string_view<char>)#1})
FUNC 527f8 194 0 fmt::v11::detail::write_escaped_cp<fmt::v11::detail::counting_iterator, char>(fmt::v11::detail::counting_iterator, fmt::v11::detail::find_escape_result<char> const&)
FUNC 5298c 17c 0 fmt::v11::detail::for_each_codepoint<fmt::v11::detail::find_escape(char const*, char const*)::{lambda(unsigned int, fmt::v11::basic_string_view<char>)#1}>(fmt::v11::basic_string_view<char>, fmt::v11::detail::find_escape(char const*, char const*)::{lambda(unsigned int, fmt::v11::basic_string_view<char>)#1})::{lambda(char const*, char const*)#1}::operator()(char const*, char const*) const
FUNC 52b08 1b8 0 fmt::v11::detail::for_each_codepoint<fmt::v11::detail::compute_width(fmt::v11::basic_string_view<char>)::count_code_points>(fmt::v11::basic_string_view<char>, fmt::v11::detail::compute_width(fmt::v11::basic_string_view<char>)::count_code_points)::{lambda(char const*, char const*)#1}::operator()(char const*, char const*) const
FUNC 52cc0 1d0 0 fmt::v11::detail::fill<char, fmt::v11::basic_appender<char> >(fmt::v11::basic_appender<char>, unsigned long, fmt::v11::detail::fill_t const&)
FUNC 52e90 380 0 fmt::v11::detail::write_escaped_string<char, fmt::v11::basic_appender<char> >(fmt::v11::basic_appender<char>, fmt::v11::basic_string_view<char>)
FUNC 53210 1e4 0 fmt::v11::detail::write_escaped_cp<fmt::v11::basic_appender<char>, char>(fmt::v11::basic_appender<char>, fmt::v11::detail::find_escape_result<char> const&)
FUNC 533f4 178 0 fmt::v11::detail::write_codepoint<(unsigned long)2, char, fmt::v11::basic_appender<char> >(fmt::v11::basic_appender<char>, char, unsigned int)
FUNC 5356c 178 0 fmt::v11::detail::write_codepoint<(unsigned long)4, char, fmt::v11::basic_appender<char> >(fmt::v11::basic_appender<char>, char, unsigned int)
FUNC 536e4 178 0 fmt::v11::detail::write_codepoint<(unsigned long)8, char, fmt::v11::basic_appender<char> >(fmt::v11::basic_appender<char>, char, unsigned int)
FUNC 5385c 94 0 fmt::v11::detail::get_dynamic_spec<fmt::v11::detail::width_checker, fmt::v11::basic_format_arg<fmt::v11::context> >(fmt::v11::basic_format_arg<fmt::v11::context>)
FUNC 538f0 158 0 fmt::v11::basic_format_args<fmt::v11::context>::get<char>(fmt::v11::basic_string_view<char>) const
FUNC 53a48 94 0 fmt::v11::detail::get_dynamic_spec<fmt::v11::detail::precision_checker, fmt::v11::basic_format_arg<fmt::v11::context> >(fmt::v11::basic_format_arg<fmt::v11::context>)
FUNC 53adc 4 0 std::__ndk1::__function::__func<BigPictureLayer::buttonCallback(cocos2d::CCObject*)::$_0, std::__ndk1::allocator<BigPictureLayer::buttonCallback(cocos2d::CCObject*)::$_0>, void ()>::~__func()
FUNC 53ae0 38 0 std::__ndk1::__function::__func<BigPictureLayer::buttonCallback(cocos2d::CCObject*)::$_0, std::__ndk1::allocator<BigPictureLayer::buttonCallback(cocos2d::CCObject*)::$_0>, void ()>::__clone() const
FUNC 53b18 18 0 std::__ndk1::__function::__func<BigPictureLayer::buttonCallback(cocos2d::CCObject*)::$_0, std::__ndk1::allocator<BigPictureLayer::buttonCallback(cocos2d::CCObject*)::$_0>, void ()>::__clone(std::__ndk1::__function::__base<void ()>*) const
FUNC 53b30 4 0 std::__ndk1::__function::__func<BigPictureLayer::buttonCallback(cocos2d::CCObject*)::$_0, std::__ndk1::allocator<BigPictureLayer::buttonCallback(cocos2d::CCObject*)::$_0>, void ()>::destroy()
FUNC 53b34 4 0 std::__ndk1::__function::__func<BigPictureLayer::buttonCallback(cocos2d::CCObject*)::$_0, std::__ndk1::allocator<BigPictureLayer::buttonCallback(cocos2d::CCObject*)::$_0>, void ()>::destroy_deallocate()
FUNC 53b38 21c 0 std::__ndk1::__function::__func<BigPictureLayer::buttonCallback(cocos2d::CCObject*)::$_0, std::__ndk1::allocator<BigPictureLayer::buttonCallback(cocos2d::CCObject*)::$_0>, void ()>::operator()()
FUNC 53d54 1c 0 std::__ndk1::__function::__func<BigPictureLayer::buttonCallback(cocos2d::CCObject*)::$_0, std::__ndk1::allocator<BigPictureLayer::buttonCallback(cocos2d::CCObject*)::$_0>, void ()>::target(std::type_info const&) const
FUNC 53d70 c 0 std::__ndk1::__function::__func<BigPictureLayer::buttonCallback(cocos2d::CCObject*)::$_0, std::__ndk1::allocator<BigPictureLayer::buttonCallback(cocos2d::CCObject*)::$_0>, void ()>::target_type() const
FUNC 53d7c 44 0 std::__ndk1::__function::__func<std::__ndk1::function<void (cocos2d::CCObject*)>, std::__ndk1::allocator<std::__ndk1::function<void (cocos2d::CCObject*)> >, void (CCMenuItemSpriteExtra*)>::~__func()
FUNC 53dc0 5c 0 std::__ndk1::__function::__func<std::__ndk1::function<void (cocos2d::CCObject*)>, std::__ndk1::allocator<std::__ndk1::function<void (cocos2d::CCObject*)> >, void (CCMenuItemSpriteExtra*)>::~__func()
FUNC 53e1c 88 0 std::__ndk1::__function::__func<std::__ndk1::function<void (cocos2d::CCObject*)>, std::__ndk1::allocator<std::__ndk1::function<void (cocos2d::CCObject*)> >, void (CCMenuItemSpriteExtra*)>::__clone() const
FUNC 53ea4 74 0 std::__ndk1::__function::__func<std::__ndk1::function<void (cocos2d::CCObject*)>, std::__ndk1::allocator<std::__ndk1::function<void (cocos2d::CCObject*)> >, void (CCMenuItemSpriteExtra*)>::__clone(std::__ndk1::__function::__base<void (CCMenuItemSpriteExtra*)>*) const
FUNC 53f18 38 0 std::__ndk1::__function::__func<std::__ndk1::function<void (cocos2d::CCObject*)>, std::__ndk1::allocator<std::__ndk1::function<void (cocos2d::CCObject*)> >, void (CCMenuItemSpriteExtra*)>::destroy()
FUNC 53f50 50 0 std::__ndk1::__function::__func<std::__ndk1::function<void (cocos2d::CCObject*)>, std::__ndk1::allocator<std::__ndk1::function<void (cocos2d::CCObject*)> >, void (CCMenuItemSpriteExtra*)>::destroy_deallocate()
FUNC 53fa0 74 0 std::__ndk1::__function::__func<std::__ndk1::function<void (cocos2d::CCObject*)>, std::__ndk1::allocator<std::__ndk1::function<void (cocos2d::CCObject*)> >, void (CCMenuItemSpriteExtra*)>::operator()(CCMenuItemSpriteExtra*&&)
FUNC 54014 1c 0 std::__ndk1::__function::__func<std::__ndk1::function<void (cocos2d::CCObject*)>, std::__ndk1::allocator<std::__ndk1::function<void (cocos2d::CCObject*)> >, void (CCMenuItemSpriteExtra*)>::target(std::type_info const&) const
FUNC 54030 c 0 std::__ndk1::__function::__func<std::__ndk1::function<void (cocos2d::CCObject*)>, std::__ndk1::allocator<std::__ndk1::function<void (cocos2d::CCObject*)> >, void (CCMenuItemSpriteExtra*)>::target_type() const
FUNC 5403c 4 0 std::__ndk1::__function::__func<BigPictureLayer::init()::$_0, std::__ndk1::allocator<BigPictureLayer::init()::$_0>, void (cocos2d::CCObject*)>::~__func()
FUNC 54040 38 0 std::__ndk1::__function::__func<BigPictureLayer::init()::$_0, std::__ndk1::allocator<BigPictureLayer::init()::$_0>, void (cocos2d::CCObject*)>::__clone() const
FUNC 54078 18 0 std::__ndk1::__function::__func<BigPictureLayer::init()::$_0, std::__ndk1::allocator<BigPictureLayer::init()::$_0>, void (cocos2d::CCObject*)>::__clone(std::__ndk1::__function::__base<void (cocos2d::CCObject*)>*) const
FUNC 54090 4 0 std::__ndk1::__function::__func<BigPictureLayer::init()::$_0, std::__ndk1::allocator<BigPictureLayer::init()::$_0>, void (cocos2d::CCObject*)>::destroy()
FUNC 54094 4 0 std::__ndk1::__function::__func<BigPictureLayer::init()::$_0, std::__ndk1::allocator<BigPictureLayer::init()::$_0>, void (cocos2d::CCObject*)>::destroy_deallocate()
FUNC 54098 344 0 std::__ndk1::__function::__func<BigPictureLayer::init()::$_0, std::__ndk1::allocator<BigPictureLayer::init()::$_0>, void (cocos2d::CCObject*)>::operator()(cocos2d::CCObject*&&)
FUNC 543dc 1c 0 std::__ndk1::__function::__func<BigPictureLayer::init()::$_0, std::__ndk1::allocator<BigPictureLayer::init()::$_0>, void (cocos2d::CCObject*)>::target(std::type_info const&) const
FUNC 543f8 c 0 std::__ndk1::__function::__func<BigPictureLayer::init()::$_0, std::__ndk1::allocator<BigPictureLayer::init()::$_0>, void (cocos2d::CCObject*)>::target_type() const
FUNC 54404 4 0 std::__ndk1::__function::__func<BigPictureLayer::init()::$_0::operator()(cocos2d::CCObject*) const::{lambda()#1}, std::__ndk1::allocator<BigPictureLayer::init()::$_0::operator()(cocos2d::CCObject*) const::{lambda()#1}>, void ()>::~__func()
FUNC 54408 38 0 std::__ndk1::__function::__func<BigPictureLayer::init()::$_0::operator()(cocos2d::CCObject*) const::{lambda()#1}, std::__ndk1::allocator<BigPictureLayer::init()::$_0::operator()(cocos2d::CCObject*) const::{lambda()#1}>, void ()>::__clone() const
FUNC 54440 18 0 std::__ndk1::__function::__func<BigPictureLayer::init()::$_0::operator()(cocos2d::CCObject*) const::{lambda()#1}, std::__ndk1::allocator<BigPictureLayer::init()::$_0::operator()(cocos2d::CCObject*) const::{lambda()#1}>, void ()>::__clone(std::__ndk1::__function::__base<void ()>*) const
FUNC 54458 4 0 std::__ndk1::__function::__func<BigPictureLayer::init()::$_0::operator()(cocos2d::CCObject*) const::{lambda()#1}, std::__ndk1::allocator<BigPictureLayer::init()::$_0::operator()(cocos2d::CCObject*) const::{lambda()#1}>, void ()>::destroy()
FUNC 5445c 4 0 std::__ndk1::__function::__func<BigPictureLayer::init()::$_0::operator()(cocos2d::CCObject*) const::{lambda()#1}, std::__ndk1::allocator<BigPictureLayer::init()::$_0::operator()(cocos2d::CCObject*) const::{lambda()#1}>, void ()>::destroy_deallocate()
FUNC 54460 11c 0 std::__ndk1::__function::__func<BigPictureLayer::init()::$_0::operator()(cocos2d::CCObject*) const::{lambda()#1}, std::__ndk1::allocator<BigPictureLayer::init()::$_0::operator()(cocos2d::CCObject*) const::{lambda()#1}>, void ()>::operator()()
FUNC 5457c 1c 0 std::__ndk1::__function::__func<BigPictureLayer::init()::$_0::operator()(cocos2d::CCObject*) const::{lambda()#1}, std::__ndk1::allocator<BigPictureLayer::init()::$_0::operator()(cocos2d::CCObject*) const::{lambda()#1}>, void ()>::target(std::type_info const&) const
FUNC 54598 c 0 std::__ndk1::__function::__func<BigPictureLayer::init()::$_0::operator()(cocos2d::CCObject*) const::{lambda()#1}, std::__ndk1::allocator<BigPictureLayer::init()::$_0::operator()(cocos2d::CCObject*) const::{lambda()#1}>, void ()>::target_type() const
FUNC 545a4 4 0 std::__ndk1::__function::__func<BigPictureLayer::init()::$_0::operator()(cocos2d::CCObject*) const::{lambda()#2}, std::__ndk1::allocator<BigPictureLayer::init()::$_0::operator()(cocos2d::CCObject*) const::{lambda()#2}>, void ()>::~__func()
FUNC 545a8 34 0 std::__ndk1::__function::__func<BigPictureLayer::init()::$_0::operator()(cocos2d::CCObject*) const::{lambda()#2}, std::__ndk1::allocator<BigPictureLayer::init()::$_0::operator()(cocos2d::CCObject*) const::{lambda()#2}>, void ()>::__clone() const
FUNC 545dc 14 0 std::__ndk1::__function::__func<BigPictureLayer::init()::$_0::operator()(cocos2d::CCObject*) const::{lambda()#2}, std::__ndk1::allocator<BigPictureLayer::init()::$_0::operator()(cocos2d::CCObject*) const::{lambda()#2}>, void ()>::__clone(std::__ndk1::__function::__base<void ()>*) const
FUNC 545f0 4 0 std::__ndk1::__function::__func<BigPictureLayer::init()::$_0::operator()(cocos2d::CCObject*) const::{lambda()#2}, std::__ndk1::allocator<BigPictureLayer::init()::$_0::operator()(cocos2d::CCObject*) const::{lambda()#2}>, void ()>::destroy()
FUNC 545f4 4 0 std::__ndk1::__function::__func<BigPictureLayer::init()::$_0::operator()(cocos2d::CCObject*) const::{lambda()#2}, std::__ndk1::allocator<BigPictureLayer::init()::$_0::operator()(cocos2d::CCObject*) const::{lambda()#2}>, void ()>::destroy_deallocate()
FUNC 545f8 48 0 std::__ndk1::__function::__func<BigPictureLayer::init()::$_0::operator()(cocos2d::CCObject*) const::{lambda()#2}, std::__ndk1::allocator<BigPictureLayer::init()::$_0::operator()(cocos2d::CCObject*) const::{lambda()#2}>, void ()>::operator()()
FUNC 54640 1c 0 std::__ndk1::__function::__func<BigPictureLayer::init()::$_0::operator()(cocos2d::CCObject*) const::{lambda()#2}, std::__ndk1::allocator<BigPictureLayer::init()::$_0::operator()(cocos2d::CCObject*) const::{lambda()#2}>, void ()>::target(std::type_info const&) const
FUNC 5465c c 0 std::__ndk1::__function::__func<BigPictureLayer::init()::$_0::operator()(cocos2d::CCObject*) const::{lambda()#2}, std::__ndk1::allocator<BigPictureLayer::init()::$_0::operator()(cocos2d::CCObject*) const::{lambda()#2}>, void ()>::target_type() const
FUNC 54668 4 0 std::__ndk1::__function::__func<BigPictureLayer::init()::$_0::operator()(cocos2d::CCObject*) const::{lambda()#3}, std::__ndk1::allocator<BigPictureLayer::init()::$_0::operator()(cocos2d::CCObject*) const::{lambda()#3}>, void ()>::~__func()
FUNC 5466c 38 0 std::__ndk1::__function::__func<BigPictureLayer::init()::$_0::operator()(cocos2d::CCObject*) const::{lambda()#3}, std::__ndk1::allocator<BigPictureLayer::init()::$_0::operator()(cocos2d::CCObject*) const::{lambda()#3}>, void ()>::__clone() const
FUNC 546a4 18 0 std::__ndk1::__function::__func<BigPictureLayer::init()::$_0::operator()(cocos2d::CCObject*) const::{lambda()#3}, std::__ndk1::allocator<BigPictureLayer::init()::$_0::operator()(cocos2d::CCObject*) const::{lambda()#3}>, void ()>::__clone(std::__ndk1::__function::__base<void ()>*) const
FUNC 546bc 4 0 std::__ndk1::__function::__func<BigPictureLayer::init()::$_0::operator()(cocos2d::CCObject*) const::{lambda()#3}, std::__ndk1::allocator<BigPictureLayer::init()::$_0::operator()(cocos2d::CCObject*) const::{lambda()#3}>, void ()>::destroy()
FUNC 546c0 4 0 std::__ndk1::__function::__func<BigPictureLayer::init()::$_0::operator()(cocos2d::CCObject*) const::{lambda()#3}, std::__ndk1::allocator<BigPictureLayer::init()::$_0::operator()(cocos2d::CCObject*) const::{lambda()#3}>, void ()>::destroy_deallocate()
FUNC 546c4 11c 0 std::__ndk1::__function::__func<BigPictureLayer::init()::$_0::operator()(cocos2d::CCObject*) const::{lambda()#3}, std::__ndk1::allocator<BigPictureLayer::init()::$_0::operator()(cocos2d::CCObject*) const::{lambda()#3}>, void ()>::operator()()
FUNC 547e0 1c 0 std::__ndk1::__function::__func<BigPictureLayer::init()::$_0::operator()(cocos2d::CCObject*) const::{lambda()#3}, std::__ndk1::allocator<BigPictureLayer::init()::$_0::operator()(cocos2d::CCObject*) const::{lambda()#3}>, void ()>::target(std::type_info const&) const
FUNC 547fc c 0 std::__ndk1::__function::__func<BigPictureLayer::init()::$_0::operator()(cocos2d::CCObject*) const::{lambda()#3}, std::__ndk1::allocator<BigPictureLayer::init()::$_0::operator()(cocos2d::CCObject*) const::{lambda()#3}>, void ()>::target_type() const
FUNC 54808 4 0 std::__ndk1::__function::__func<BigPictureLayer::init()::$_3, std::__ndk1::allocator<BigPictureLayer::init()::$_3>, void (cocos2d::CCObject*)>::~__func()
FUNC 5480c 34 0 std::__ndk1::__function::__func<BigPictureLayer::init()::$_3, std::__ndk1::allocator<BigPictureLayer::init()::$_3>, void (cocos2d::CCObject*)>::__clone() const
FUNC 54840 14 0 std::__ndk1::__function::__func<BigPictureLayer::init()::$_3, std::__ndk1::allocator<BigPictureLayer::init()::$_3>, void (cocos2d::CCObject*)>::__clone(std::__ndk1::__function::__base<void (cocos2d::CCObject*)>*) const
FUNC 54854 4 0 std::__ndk1::__function::__func<BigPictureLayer::init()::$_3, std::__ndk1::allocator<BigPictureLayer::init()::$_3>, void (cocos2d::CCObject*)>::destroy()
FUNC 54858 4 0 std::__ndk1::__function::__func<BigPictureLayer::init()::$_3, std::__ndk1::allocator<BigPictureLayer::init()::$_3>, void (cocos2d::CCObject*)>::destroy_deallocate()
FUNC 5485c 3c 0 std::__ndk1::__function::__func<BigPictureLayer::init()::$_3, std::__ndk1::allocator<BigPictureLayer::init()::$_3>, void (cocos2d::CCObject*)>::operator()(cocos2d::CCObject*&&)
FUNC 54898 1c 0 std::__ndk1::__function::__func<BigPictureLayer::init()::$_3, std::__ndk1::allocator<BigPictureLayer::init()::$_3>, void (cocos2d::CCObject*)>::target(std::type_info const&) const
FUNC 548b4 c 0 std::__ndk1::__function::__func<BigPictureLayer::init()::$_3, std::__ndk1::allocator<BigPictureLayer::init()::$_3>, void (cocos2d::CCObject*)>::target_type() const
FUNC 548c0 4 0 std::__ndk1::__function::__base<void (cocos2d::CCObject*)>::~__base()
FUNC 548c4 4 0 std::__ndk1::__function::__func<BigPictureLayer::init()::$_4, std::__ndk1::allocator<BigPictureLayer::init()::$_4>, void (cocos2d::CCObject*)>::~__func()
FUNC 548c8 34 0 std::__ndk1::__function::__func<BigPictureLayer::init()::$_4, std::__ndk1::allocator<BigPictureLayer::init()::$_4>, void (cocos2d::CCObject*)>::__clone() const
FUNC 548fc 14 0 std::__ndk1::__function::__func<BigPictureLayer::init()::$_4, std::__ndk1::allocator<BigPictureLayer::init()::$_4>, void (cocos2d::CCObject*)>::__clone(std::__ndk1::__function::__base<void (cocos2d::CCObject*)>*) const
FUNC 54910 4 0 std::__ndk1::__function::__func<BigPictureLayer::init()::$_4, std::__ndk1::allocator<BigPictureLayer::init()::$_4>, void (cocos2d::CCObject*)>::destroy()
FUNC 54914 4 0 std::__ndk1::__function::__func<BigPictureLayer::init()::$_4, std::__ndk1::allocator<BigPictureLayer::init()::$_4>, void (cocos2d::CCObject*)>::destroy_deallocate()
FUNC 54918 2c4 0 std::__ndk1::__function::__func<BigPictureLayer::init()::$_4, std::__ndk1::allocator<BigPictureLayer::init()::$_4>, void (cocos2d::CCObject*)>::operator()(cocos2d::CCObject*&&)
FUNC 54bdc 1c 0 std::__ndk1::__function::__func<BigPictureLayer::init()::$_4, std::__ndk1::allocator<BigPictureLayer::init()::$_4>, void (cocos2d::CCObject*)>::target(std::type_info const&) const
FUNC 54bf8 c 0 std::__ndk1::__function::__func<BigPictureLayer::init()::$_4, std::__ndk1::allocator<BigPictureLayer::init()::$_4>, void (cocos2d::CCObject*)>::target_type() const
FUNC 54c04 4 0 std::__ndk1::__function::__func<BigPictureLayer::init()::$_4::operator()(cocos2d::CCObject*) const::{lambda()#1}, std::__ndk1::allocator<BigPictureLayer::init()::$_4::operator()(cocos2d::CCObject*) const::{lambda()#1}>, void ()>::~__func()
FUNC 54c08 34 0 std::__ndk1::__function::__func<BigPictureLayer::init()::$_4::operator()(cocos2d::CCObject*) const::{lambda()#1}, std::__ndk1::allocator<BigPictureLayer::init()::$_4::operator()(cocos2d::CCObject*) const::{lambda()#1}>, void ()>::__clone() const
FUNC 54c3c 14 0 std::__ndk1::__function::__func<BigPictureLayer::init()::$_4::operator()(cocos2d::CCObject*) const::{lambda()#1}, std::__ndk1::allocator<BigPictureLayer::init()::$_4::operator()(cocos2d::CCObject*) const::{lambda()#1}>, void ()>::__clone(std::__ndk1::__function::__base<void ()>*) const
FUNC 54c50 4 0 std::__ndk1::__function::__func<BigPictureLayer::init()::$_4::operator()(cocos2d::CCObject*) const::{lambda()#1}, std::__ndk1::allocator<BigPictureLayer::init()::$_4::operator()(cocos2d::CCObject*) const::{lambda()#1}>, void ()>::destroy()
FUNC 54c54 4 0 std::__ndk1::__function::__func<BigPictureLayer::init()::$_4::operator()(cocos2d::CCObject*) const::{lambda()#1}, std::__ndk1::allocator<BigPictureLayer::init()::$_4::operator()(cocos2d::CCObject*) const::{lambda()#1}>, void ()>::destroy_deallocate()
FUNC 54c58 4 0 std::__ndk1::__function::__func<BigPictureLayer::init()::$_4::operator()(cocos2d::CCObject*) const::{lambda()#1}, std::__ndk1::allocator<BigPictureLayer::init()::$_4::operator()(cocos2d::CCObject*) const::{lambda()#1}>, void ()>::operator()()
FUNC 54c5c 1c 0 std::__ndk1::__function::__func<BigPictureLayer::init()::$_4::operator()(cocos2d::CCObject*) const::{lambda()#1}, std::__ndk1::allocator<BigPictureLayer::init()::$_4::operator()(cocos2d::CCObject*) const::{lambda()#1}>, void ()>::target(std::type_info const&) const
FUNC 54c78 c 0 std::__ndk1::__function::__func<BigPictureLayer::init()::$_4::operator()(cocos2d::CCObject*) const::{lambda()#1}, std::__ndk1::allocator<BigPictureLayer::init()::$_4::operator()(cocos2d::CCObject*) const::{lambda()#1}>, void ()>::target_type() const
FUNC 54c84 4 0 std::__ndk1::__function::__func<BigPictureLayer::init()::$_4::operator()(cocos2d::CCObject*) const::{lambda()#2}, std::__ndk1::allocator<BigPictureLayer::init()::$_4::operator()(cocos2d::CCObject*) const::{lambda()#2}>, void ()>::~__func()
FUNC 54c88 34 0 std::__ndk1::__function::__func<BigPictureLayer::init()::$_4::operator()(cocos2d::CCObject*) const::{lambda()#2}, std::__ndk1::allocator<BigPictureLayer::init()::$_4::operator()(cocos2d::CCObject*) const::{lambda()#2}>, void ()>::__clone() const
FUNC 54cbc 14 0 std::__ndk1::__function::__func<BigPictureLayer::init()::$_4::operator()(cocos2d::CCObject*) const::{lambda()#2}, std::__ndk1::allocator<BigPictureLayer::init()::$_4::operator()(cocos2d::CCObject*) const::{lambda()#2}>, void ()>::__clone(std::__ndk1::__function::__base<void ()>*) const
FUNC 54cd0 4 0 std::__ndk1::__function::__func<BigPictureLayer::init()::$_4::operator()(cocos2d::CCObject*) const::{lambda()#2}, std::__ndk1::allocator<BigPictureLayer::init()::$_4::operator()(cocos2d::CCObject*) const::{lambda()#2}>, void ()>::destroy()
FUNC 54cd4 4 0 std::__ndk1::__function::__func<BigPictureLayer::init()::$_4::operator()(cocos2d::CCObject*) const::{lambda()#2}, std::__ndk1::allocator<BigPictureLayer::init()::$_4::operator()(cocos2d::CCObject*) const::{lambda()#2}>, void ()>::destroy_deallocate()
FUNC 54cd8 4 0 std::__ndk1::__function::__func<BigPictureLayer::init()::$_4::operator()(cocos2d::CCObject*) const::{lambda()#2}, std::__ndk1::allocator<BigPictureLayer::init()::$_4::operator()(cocos2d::CCObject*) const::{lambda()#2}>, void ()>::operator()()
FUNC 54cdc 1c 0 std::__ndk1::__function::__func<BigPictureLayer::init()::$_4::operator()(cocos2d::CCObject*) const::{lambda()#2}, std::__ndk1::allocator<BigPictureLayer::init()::$_4::operator()(cocos2d::CCObject*) const::{lambda()#2}>, void ()>::target(std::type_info const&) const
FUNC 54cf8 c 0 std::__ndk1::__function::__func<BigPictureLayer::init()::$_4::operator()(cocos2d::CCObject*) const::{lambda()#2}, std::__ndk1::allocator<BigPictureLayer::init()::$_4::operator()(cocos2d::CCObject*) const::{lambda()#2}>, void ()>::target_type() const
FUNC 54d04 4 0 std::__ndk1::__function::__func<BigPictureLayer::createStatusbar()::$_0, std::__ndk1::allocator<BigPictureLayer::createStatusbar()::$_0>, void (CCMenuItemSpriteExtra*)>::~__func()
FUNC 54d08 34 0 std::__ndk1::__function::__func<BigPictureLayer::createStatusbar()::$_0, std::__ndk1::allocator<BigPictureLayer::createStatusbar()::$_0>, void (CCMenuItemSpriteExtra*)>::__clone() const
FUNC 54d3c 14 0 std::__ndk1::__function::__func<BigPictureLayer::createStatusbar()::$_0, std::__ndk1::allocator<BigPictureLayer::createStatusbar()::$_0>, void (CCMenuItemSpriteExtra*)>::__clone(std::__ndk1::__function::__base<void (CCMenuItemSpriteExtra*)>*) const
FUNC 54d50 4 0 std::__ndk1::__function::__func<BigPictureLayer::createStatusbar()::$_0, std::__ndk1::allocator<BigPictureLayer::createStatusbar()::$_0>, void (CCMenuItemSpriteExtra*)>::destroy()
FUNC 54d54 4 0 std::__ndk1::__function::__func<BigPictureLayer::createStatusbar()::$_0, std::__ndk1::allocator<BigPictureLayer::createStatusbar()::$_0>, void (CCMenuItemSpriteExtra*)>::destroy_deallocate()
FUNC 54d58 1c 0 std::__ndk1::__function::__func<BigPictureLayer::createStatusbar()::$_0, std::__ndk1::allocator<BigPictureLayer::createStatusbar()::$_0>, void (CCMenuItemSpriteExtra*)>::operator()(CCMenuItemSpriteExtra*&&)
FUNC 54d74 1c 0 std::__ndk1::__function::__func<BigPictureLayer::createStatusbar()::$_0, std::__ndk1::allocator<BigPictureLayer::createStatusbar()::$_0>, void (CCMenuItemSpriteExtra*)>::target(std::type_info const&) const
FUNC 54d90 c 0 std::__ndk1::__function::__func<BigPictureLayer::createStatusbar()::$_0, std::__ndk1::allocator<BigPictureLayer::createStatusbar()::$_0>, void (CCMenuItemSpriteExtra*)>::target_type() const
FUNC 54d9c 4 0 std::__ndk1::__function::__func<BigPictureLayer::createStatusbar()::$_1, std::__ndk1::allocator<BigPictureLayer::createStatusbar()::$_1>, void (CCMenuItemSpriteExtra*)>::~__func()
FUNC 54da0 34 0 std::__ndk1::__function::__func<BigPictureLayer::createStatusbar()::$_1, std::__ndk1::allocator<BigPictureLayer::createStatusbar()::$_1>, void (CCMenuItemSpriteExtra*)>::__clone() const
FUNC 54dd4 14 0 std::__ndk1::__function::__func<BigPictureLayer::createStatusbar()::$_1, std::__ndk1::allocator<BigPictureLayer::createStatusbar()::$_1>, void (CCMenuItemSpriteExtra*)>::__clone(std::__ndk1::__function::__base<void (CCMenuItemSpriteExtra*)>*) const
FUNC 54de8 4 0 std::__ndk1::__function::__func<BigPictureLayer::createStatusbar()::$_1, std::__ndk1::allocator<BigPictureLayer::createStatusbar()::$_1>, void (CCMenuItemSpriteExtra*)>::destroy()
FUNC 54dec 4 0 std::__ndk1::__function::__func<BigPictureLayer::createStatusbar()::$_1, std::__ndk1::allocator<BigPictureLayer::createStatusbar()::$_1>, void (CCMenuItemSpriteExtra*)>::destroy_deallocate()
FUNC 54df0 b4 0 std::__ndk1::__function::__func<BigPictureLayer::createStatusbar()::$_1, std::__ndk1::allocator<BigPictureLayer::createStatusbar()::$_1>, void (CCMenuItemSpriteExtra*)>::operator()(CCMenuItemSpriteExtra*&&)
FUNC 54ea4 1c 0 std::__ndk1::__function::__func<BigPictureLayer::createStatusbar()::$_1, std::__ndk1::allocator<BigPictureLayer::createStatusbar()::$_1>, void (CCMenuItemSpriteExtra*)>::target(std::type_info const&) const
FUNC 54ec0 c 0 std::__ndk1::__function::__func<BigPictureLayer::createStatusbar()::$_1, std::__ndk1::allocator<BigPictureLayer::createStatusbar()::$_1>, void (CCMenuItemSpriteExtra*)>::target_type() const
FUNC 54ecc 614 0 TopLevels::showFilter()
FUNC 554e0 20 0 geode::cocos::CCArrayExt<cocos2d::CCString*>::~CCArrayExt()
FUNC 55500 654 0 TopLevels::init(TopLevelsCategory)
FUNC 55b54 674 0 TopLevels::regenerateLevels()
FUNC 561c8 170 0 LevelItem::setSelected(bool)
FUNC 56338 20 0 geode::cocos::CCArrayExt<GJGameLevel*>::~CCArrayExt()
FUNC 56358 194 0 TopLevels::updateSelected(bool)
FUNC 564ec 3c4 0 TopLevels::updateThumbnail()
FUNC 568b0 70 0 TopLevels::enterSelected()
FUNC 56920 f0 0 TopLevels::create(TopLevelsCategory)
FUNC 56a10 24 0 TopLevels::~TopLevels()
FUNC 56a34 8 0 {virtual override thunk({offset(-320)}, TopLevels::~TopLevels())}
FUNC 56a3c 28 0 {virtual override thunk({offset(-320)}, TopLevels::~TopLevels())}
FUNC 56a64 4 0 std::__ndk1::__function::__func<TopLevels::showFilter()::$_0, std::__ndk1::allocator<TopLevels::showFilter()::$_0>, void ()>::~__func()
FUNC 56a68 34 0 std::__ndk1::__function::__func<TopLevels::showFilter()::$_0, std::__ndk1::allocator<TopLevels::showFilter()::$_0>, void ()>::__clone() const
FUNC 56a9c 14 0 std::__ndk1::__function::__func<TopLevels::showFilter()::$_0, std::__ndk1::allocator<TopLevels::showFilter()::$_0>, void ()>::__clone(std::__ndk1::__function::__base<void ()>*) const
FUNC 56ab0 4 0 std::__ndk1::__function::__func<TopLevels::showFilter()::$_0, std::__ndk1::allocator<TopLevels::showFilter()::$_0>, void ()>::destroy()
FUNC 56ab4 4 0 std::__ndk1::__function::__func<TopLevels::showFilter()::$_0, std::__ndk1::allocator<TopLevels::showFilter()::$_0>, void ()>::destroy_deallocate()
FUNC 56ab8 54 0 std::__ndk1::__function::__func<TopLevels::showFilter()::$_0, std::__ndk1::allocator<TopLevels::showFilter()::$_0>, void ()>::operator()()
FUNC 56b0c 1c 0 std::__ndk1::__function::__func<TopLevels::showFilter()::$_0, std::__ndk1::allocator<TopLevels::showFilter()::$_0>, void ()>::target(std::type_info const&) const
FUNC 56b28 c 0 std::__ndk1::__function::__func<TopLevels::showFilter()::$_0, std::__ndk1::allocator<TopLevels::showFilter()::$_0>, void ()>::target_type() const
FUNC 56b34 d0 0 fmt::v11::detail::value<fmt::v11::context>::format_custom_arg<gd::string, fmt::v11::formatter<gd::string, char, void> >(void*, fmt::v11::basic_format_parse_context<char>&, fmt::v11::context&)
FUNC 56c04 160 0 fmt::v11::formatter<gd::string, char, void>::format<fmt::v11::context>(gd::string const&, fmt::v11::context&) const
FUNC 56d64 10 0 std::__ndk1::__function::__func<TopLevels::showFilter()::$_1, std::__ndk1::allocator<TopLevels::showFilter()::$_1>, void ()>::~__func()
FUNC 56d74 30 0 std::__ndk1::__function::__func<TopLevels::showFilter()::$_1, std::__ndk1::allocator<TopLevels::showFilter()::$_1>, void ()>::~__func()
FUNC 56da4 60 0 std::__ndk1::__function::__func<TopLevels::showFilter()::$_1, std::__ndk1::allocator<TopLevels::showFilter()::$_1>, void ()>::__clone() const
FUNC 56e04 44 0 std::__ndk1::__function::__func<TopLevels::showFilter()::$_1, std::__ndk1::allocator<TopLevels::showFilter()::$_1>, void ()>::__clone(std::__ndk1::__function::__base<void ()>*) const
FUNC 56e48 8 0 std::__ndk1::__function::__func<TopLevels::showFilter()::$_1, std::__ndk1::allocator<TopLevels::showFilter()::$_1>, void ()>::destroy()
FUNC 56e50 28 0 std::__ndk1::__function::__func<TopLevels::showFilter()::$_1, std::__ndk1::allocator<TopLevels::showFilter()::$_1>, void ()>::destroy_deallocate()
FUNC 56e78 114 0 std::__ndk1::__function::__func<TopLevels::showFilter()::$_1, std::__ndk1::allocator<TopLevels::showFilter()::$_1>, void ()>::operator()()
FUNC 56f8c 1c 0 std::__ndk1::__function::__func<TopLevels::showFilter()::$_1, std::__ndk1::allocator<TopLevels::showFilter()::$_1>, void ()>::target(std::type_info const&) const
FUNC 56fa8 c 0 std::__ndk1::__function::__func<TopLevels::showFilter()::$_1, std::__ndk1::allocator<TopLevels::showFilter()::$_1>, void ()>::target_type() const
FUNC 56fb4 4 0 std::__ndk1::__function::__func<TopLevels::init(TopLevelsCategory)::$_0, std::__ndk1::allocator<TopLevels::init(TopLevelsCategory)::$_0>, void (CCMenuItemSpriteExtra*)>::~__func()
FUNC 56fb8 34 0 std::__ndk1::__function::__func<TopLevels::init(TopLevelsCategory)::$_0, std::__ndk1::allocator<TopLevels::init(TopLevelsCategory)::$_0>, void (CCMenuItemSpriteExtra*)>::__clone() const
FUNC 56fec 14 0 std::__ndk1::__function::__func<TopLevels::init(TopLevelsCategory)::$_0, std::__ndk1::allocator<TopLevels::init(TopLevelsCategory)::$_0>, void (CCMenuItemSpriteExtra*)>::__clone(std::__ndk1::__function::__base<void (CCMenuItemSpriteExtra*)>*) const
FUNC 57000 4 0 std::__ndk1::__function::__func<TopLevels::init(TopLevelsCategory)::$_0, std::__ndk1::allocator<TopLevels::init(TopLevelsCategory)::$_0>, void (CCMenuItemSpriteExtra*)>::destroy()
FUNC 57004 4 0 std::__ndk1::__function::__func<TopLevels::init(TopLevelsCategory)::$_0, std::__ndk1::allocator<TopLevels::init(TopLevelsCategory)::$_0>, void (CCMenuItemSpriteExtra*)>::destroy_deallocate()
FUNC 57008 8 0 std::__ndk1::__function::__func<TopLevels::init(TopLevelsCategory)::$_0, std::__ndk1::allocator<TopLevels::init(TopLevelsCategory)::$_0>, void (CCMenuItemSpriteExtra*)>::operator()(CCMenuItemSpriteExtra*&&)
FUNC 57010 1c 0 std::__ndk1::__function::__func<TopLevels::init(TopLevelsCategory)::$_0, std::__ndk1::allocator<TopLevels::init(TopLevelsCategory)::$_0>, void (CCMenuItemSpriteExtra*)>::target(std::type_info const&) const
FUNC 5702c c 0 std::__ndk1::__function::__func<TopLevels::init(TopLevelsCategory)::$_0, std::__ndk1::allocator<TopLevels::init(TopLevelsCategory)::$_0>, void (CCMenuItemSpriteExtra*)>::target_type() const
FUNC 57038 4 0 std::__ndk1::__function::__func<TopLevels::init(TopLevelsCategory)::$_1, std::__ndk1::allocator<TopLevels::init(TopLevelsCategory)::$_1>, void ()>::~__func()
FUNC 5703c 34 0 std::__ndk1::__function::__func<TopLevels::init(TopLevelsCategory)::$_1, std::__ndk1::allocator<TopLevels::init(TopLevelsCategory)::$_1>, void ()>::__clone() const
FUNC 57070 14 0 std::__ndk1::__function::__func<TopLevels::init(TopLevelsCategory)::$_1, std::__ndk1::allocator<TopLevels::init(TopLevelsCategory)::$_1>, void ()>::__clone(std::__ndk1::__function::__base<void ()>*) const
FUNC 57084 4 0 std::__ndk1::__function::__func<TopLevels::init(TopLevelsCategory)::$_1, std::__ndk1::allocator<TopLevels::init(TopLevelsCategory)::$_1>, void ()>::destroy()
FUNC 57088 4 0 std::__ndk1::__function::__func<TopLevels::init(TopLevelsCategory)::$_1, std::__ndk1::allocator<TopLevels::init(TopLevelsCategory)::$_1>, void ()>::destroy_deallocate()
FUNC 5708c 14 0 std::__ndk1::__function::__func<TopLevels::init(TopLevelsCategory)::$_1, std::__ndk1::allocator<TopLevels::init(TopLevelsCategory)::$_1>, void ()>::operator()()
FUNC 570a0 1c 0 std::__ndk1::__function::__func<TopLevels::init(TopLevelsCategory)::$_1, std::__ndk1::allocator<TopLevels::init(TopLevelsCategory)::$_1>, void ()>::target(std::type_info const&) const
FUNC 570bc c 0 std::__ndk1::__function::__func<TopLevels::init(TopLevelsCategory)::$_1, std::__ndk1::allocator<TopLevels::init(TopLevelsCategory)::$_1>, void ()>::target_type() const
FUNC 570c8 4 0 std::__ndk1::__function::__base<void (bool)>::~__base()
FUNC 570cc 4 0 std::__ndk1::__function::__func<TopLevels::regenerateLevels()::$_0, std::__ndk1::allocator<TopLevels::regenerateLevels()::$_0>, void (bool)>::~__func()
FUNC 570d0 34 0 std::__ndk1::__function::__func<TopLevels::regenerateLevels()::$_0, std::__ndk1::allocator<TopLevels::regenerateLevels()::$_0>, void (bool)>::__clone() const
FUNC 57104 14 0 std::__ndk1::__function::__func<TopLevels::regenerateLevels()::$_0, std::__ndk1::allocator<TopLevels::regenerateLevels()::$_0>, void (bool)>::__clone(std::__ndk1::__function::__base<void (bool)>*) const
FUNC 57118 4 0 std::__ndk1::__function::__func<TopLevels::regenerateLevels()::$_0, std::__ndk1::allocator<TopLevels::regenerateLevels()::$_0>, void (bool)>::destroy()
FUNC 5711c 4 0 std::__ndk1::__function::__func<TopLevels::regenerateLevels()::$_0, std::__ndk1::allocator<TopLevels::regenerateLevels()::$_0>, void (bool)>::destroy_deallocate()
FUNC 57120 14 0 std::__ndk1::__function::__func<TopLevels::regenerateLevels()::$_0, std::__ndk1::allocator<TopLevels::regenerateLevels()::$_0>, void (bool)>::operator()(bool&&)
FUNC 57134 1c 0 std::__ndk1::__function::__func<TopLevels::regenerateLevels()::$_0, std::__ndk1::allocator<TopLevels::regenerateLevels()::$_0>, void (bool)>::target(std::type_info const&) const
FUNC 57150 c 0 std::__ndk1::__function::__func<TopLevels::regenerateLevels()::$_0, std::__ndk1::allocator<TopLevels::regenerateLevels()::$_0>, void (bool)>::target_type() const
FUNC 5715c 4 0 std::__ndk1::__function::__func<TopLevels::regenerateLevels()::$_1, std::__ndk1::allocator<TopLevels::regenerateLevels()::$_1>, void (CCMenuItemSpriteExtra*)>::~__func()
FUNC 57160 40 0 std::__ndk1::__function::__func<TopLevels::regenerateLevels()::$_1, std::__ndk1::allocator<TopLevels::regenerateLevels()::$_1>, void (CCMenuItemSpriteExtra*)>::__clone() const
FUNC 571a0 20 0 std::__ndk1::__function::__func<TopLevels::regenerateLevels()::$_1, std::__ndk1::allocator<TopLevels::regenerateLevels()::$_1>, void (CCMenuItemSpriteExtra*)>::__clone(std::__ndk1::__function::__base<void (CCMenuItemSpriteExtra*)>*) const
FUNC 571c0 4 0 std::__ndk1::__function::__func<TopLevels::regenerateLevels()::$_1, std::__ndk1::allocator<TopLevels::regenerateLevels()::$_1>, void (CCMenuItemSpriteExtra*)>::destroy()
FUNC 571c4 4 0 std::__ndk1::__function::__func<TopLevels::regenerateLevels()::$_1, std::__ndk1::allocator<TopLevels::regenerateLevels()::$_1>, void (CCMenuItemSpriteExtra*)>::destroy_deallocate()
FUNC 571c8 1cc 0 std::__ndk1::__function::__func<TopLevels::regenerateLevels()::$_1, std::__ndk1::allocator<TopLevels::regenerateLevels()::$_1>, void (CCMenuItemSpriteExtra*)>::operator()(CCMenuItemSpriteExtra*&&)
FUNC 57394 1c 0 std::__ndk1::__function::__func<TopLevels::regenerateLevels()::$_1, std::__ndk1::allocator<TopLevels::regenerateLevels()::$_1>, void (CCMenuItemSpriteExtra*)>::target(std::type_info const&) const
FUNC 573b0 c 0 std::__ndk1::__function::__func<TopLevels::regenerateLevels()::$_1, std::__ndk1::allocator<TopLevels::regenerateLevels()::$_1>, void (CCMenuItemSpriteExtra*)>::target_type() const
FUNC 573bc 1fc 0 IconNode::init(cocos2d::CCSprite*, cocos2d::_ccColor3B const&)
FUNC 575b8 24 0 IconNode::~IconNode()
FUNC 575dc 6d4 0 LevelItem::init(GJGameLevel*, bool)
FUNC 57cb0 19c 0 LevelItem::create(GJGameLevel*, bool)
FUNC 57e4c 22c 0 LevelItem::init()
FUNC 58078 170 0 LevelItem::selectLevel()
FUNC 581e8 188 0 LevelItem::create()
FUNC 58370 39c 0 LevelItem::finishLoadImage(cocos2d::CCImage*)
FUNC 5870c 108 0 LevelItem::errorLoadImage()
FUNC 58814 50 0 geode::Task<geode::utils::web::WebResponse, geode::utils::web::WebProgress>::~Task()
FUNC 58864 d8 0 LevelItem::~LevelItem()
FUNC 5893c e0 0 LevelItem::~LevelItem()
FUNC 58a1c 8c 0 geode::EventListener<geode::Task<geode::utils::web::WebResponse, geode::utils::web::WebProgress> >::~EventListener()
FUNC 58aa8 21c 0 geode::Task<geode::utils::web::WebResponse, geode::utils::web::WebProgress>::setListener(geode::EventListenerProtocol*)
FUNC 58cc4 4 0 geode::EventListener<geode::Task<geode::utils::web::WebResponse, geode::utils::web::WebProgress> >::getPool() const
FUNC 58cc8 1ac 0 geode::EventListener<geode::Task<geode::utils::web::WebResponse, geode::utils::web::WebProgress> >::handle(geode::Event*)
FUNC 58e74 94 0 geode::EventListener<geode::Task<geode::utils::web::WebResponse, geode::utils::web::WebProgress> >::~EventListener()
FUNC 58f08 50 0 geode::Task<geode::utils::web::WebResponse, geode::utils::web::WebProgress>::setListener(geode::EventListenerProtocol*)::{lambda()#1}::~{lambda()#1}()
FUNC 58f58 50 0 geode::Task<geode::utils::web::WebResponse, geode::utils::web::WebProgress>::setListener(geode::EventListenerProtocol*)::{lambda()#2}::~{lambda()#2}()
FUNC 58fa8 5c 0 std::__ndk1::__function::__func<geode::Task<geode::utils::web::WebResponse, geode::utils::web::WebProgress>::setListener(geode::EventListenerProtocol*)::{lambda()#1}, std::__ndk1::allocator<geode::Task<geode::utils::web::WebResponse, geode::utils::web::WebProgress>::setListener(geode::EventListenerProtocol*)::{lambda()#1}>, void ()>::~__func()
FUNC 59004 5c 0 std::__ndk1::__function::__func<geode::Task<geode::utils::web::WebResponse, geode::utils::web::WebProgress>::setListener(geode::EventListenerProtocol*)::{lambda()#1}, std::__ndk1::allocator<geode::Task<geode::utils::web::WebResponse, geode::utils::web::WebProgress>::setListener(geode::EventListenerProtocol*)::{lambda()#1}>, void ()>::~__func()
FUNC 59060 58 0 std::__ndk1::__function::__func<geode::Task<geode::utils::web::WebResponse, geode::utils::web::WebProgress>::setListener(geode::EventListenerProtocol*)::{lambda()#1}, std::__ndk1::allocator<geode::Task<geode::utils::web::WebResponse, geode::utils::web::WebProgress>::setListener(geode::EventListenerProtocol*)::{lambda()#1}>, void ()>::__clone() const
FUNC 590b8 4c 0 std::__ndk1::__function::__func<geode::Task<geode::utils::web::WebResponse, geode::utils::web::WebProgress>::setListener(geode::EventListenerProtocol*)::{lambda()#1}, std::__ndk1::allocator<geode::Task<geode::utils::web::WebResponse, geode::utils::web::WebProgress>::setListener(geode::EventListenerProtocol*)::{lambda()#1}>, void ()>::__clone(std::__ndk1::__function::__base<void ()>*) const
FUNC 59104 50 0 std::__ndk1::__function::__func<geode::Task<geode::utils::web::WebResponse, geode::utils::web::WebProgress>::setListener(geode::EventListenerProtocol*)::{lambda()#1}, std::__ndk1::allocator<geode::Task<geode::utils::web::WebResponse, geode::utils::web::WebProgress>::setListener(geode::EventListenerProtocol*)::{lambda()#1}>, void ()>::destroy()
FUNC 59154 50 0 std::__ndk1::__function::__func<geode::Task<geode::utils::web::WebResponse, geode::utils::web::WebProgress>::setListener(geode::EventListenerProtocol*)::{lambda()#1}, std::__ndk1::allocator<geode::Task<geode::utils::web::WebResponse, geode::utils::web::WebProgress>::setListener(geode::EventListenerProtocol*)::{lambda()#1}>, void ()>::destroy_deallocate()
FUNC 591a4 198 0 std::__ndk1::__function::__func<geode::Task<geode::utils::web::WebResponse, geode::utils::web::WebProgress>::setListener(geode::EventListenerProtocol*)::{lambda()#1}, std::__ndk1::allocator<geode::Task<geode::utils::web::WebResponse, geode::utils::web::WebProgress>::setListener(geode::EventListenerProtocol*)::{lambda()#1}>, void ()>::operator()()
FUNC 5933c 1c 0 std::__ndk1::__function::__func<geode::Task<geode::utils::web::WebResponse, geode::utils::web::WebProgress>::setListener(geode::EventListenerProtocol*)::{lambda()#1}, std::__ndk1::allocator<geode::Task<geode::utils::web::WebResponse, geode::utils::web::WebProgress>::setListener(geode::EventListenerProtocol*)::{lambda()#1}>, void ()>::target(std::type_info const&) const
FUNC 59358 c 0 std::__ndk1::__function::__func<geode::Task<geode::utils::web::WebResponse, geode::utils::web::WebProgress>::setListener(geode::EventListenerProtocol*)::{lambda()#1}, std::__ndk1::allocator<geode::Task<geode::utils::web::WebResponse, geode::utils::web::WebProgress>::setListener(geode::EventListenerProtocol*)::{lambda()#1}>, void ()>::target_type() const
FUNC 59364 50 0 geode::Task<geode::utils::web::WebResponse, geode::utils::web::WebProgress>::Event::~Event()
FUNC 593b4 58 0 geode::Task<geode::utils::web::WebResponse, geode::utils::web::WebProgress>::Event::~Event()
FUNC 5940c 5c 0 std::__ndk1::__function::__func<geode::Task<geode::utils::web::WebResponse, geode::utils::web::WebProgress>::setListener(geode::EventListenerProtocol*)::{lambda()#2}, std::__ndk1::allocator<geode::Task<geode::utils::web::WebResponse, geode::utils::web::WebProgress>::setListener(geode::EventListenerProtocol*)::{lambda()#2}>, void ()>::~__func()
FUNC 59468 5c 0 std::__ndk1::__function::__func<geode::Task<geode::utils::web::WebResponse, geode::utils::web::WebProgress>::setListener(geode::EventListenerProtocol*)::{lambda()#2}, std::__ndk1::allocator<geode::Task<geode::utils::web::WebResponse, geode::utils::web::WebProgress>::setListener(geode::EventListenerProtocol*)::{lambda()#2}>, void ()>::~__func()
FUNC 594c4 58 0 std::__ndk1::__function::__func<geode::Task<geode::utils::web::WebResponse, geode::utils::web::WebProgress>::setListener(geode::EventListenerProtocol*)::{lambda()#2}, std::__ndk1::allocator<geode::Task<geode::utils::web::WebResponse, geode::utils::web::WebProgress>::setListener(geode::EventListenerProtocol*)::{lambda()#2}>, void ()>::__clone() const
FUNC 5951c 4c 0 std::__ndk1::__function::__func<geode::Task<geode::utils::web::WebResponse, geode::utils::web::WebProgress>::setListener(geode::EventListenerProtocol*)::{lambda()#2}, std::__ndk1::allocator<geode::Task<geode::utils::web::WebResponse, geode::utils::web::WebProgress>::setListener(geode::EventListenerProtocol*)::{lambda()#2}>, void ()>::__clone(std::__ndk1::__function::__base<void ()>*) const
FUNC 59568 50 0 std::__ndk1::__function::__func<geode::Task<geode::utils::web::WebResponse, geode::utils::web::WebProgress>::setListener(geode::EventListenerProtocol*)::{lambda()#2}, std::__ndk1::allocator<geode::Task<geode::utils::web::WebResponse, geode::utils::web::WebProgress>::setListener(geode::EventListenerProtocol*)::{lambda()#2}>, void ()>::destroy()
FUNC 595b8 50 0 std::__ndk1::__function::__func<geode::Task<geode::utils::web::WebResponse, geode::utils::web::WebProgress>::setListener(geode::EventListenerProtocol*)::{lambda()#2}, std::__ndk1::allocator<geode::Task<geode::utils::web::WebResponse, geode::utils::web::WebProgress>::setListener(geode::EventListenerProtocol*)::{lambda()#2}>, void ()>::destroy_deallocate()
FUNC 59608 188 0 std::__ndk1::__function::__func<geode::Task<geode::utils::web::WebResponse, geode::utils::web::WebProgress>::setListener(geode::EventListenerProtocol*)::{lambda()#2}, std::__ndk1::allocator<geode::Task<geode::utils::web::WebResponse, geode::utils::web::WebProgress>::setListener(geode::EventListenerProtocol*)::{lambda()#2}>, void ()>::operator()()
FUNC 59790 1c 0 std::__ndk1::__function::__func<geode::Task<geode::utils::web::WebResponse, geode::utils::web::WebProgress>::setListener(geode::EventListenerProtocol*)::{lambda()#2}, std::__ndk1::allocator<geode::Task<geode::utils::web::WebResponse, geode::utils::web::WebProgress>::setListener(geode::EventListenerProtocol*)::{lambda()#2}>, void ()>::target(std::type_info const&) const
FUNC 597ac c 0 std::__ndk1::__function::__func<geode::Task<geode::utils::web::WebResponse, geode::utils::web::WebProgress>::setListener(geode::EventListenerProtocol*)::{lambda()#2}, std::__ndk1::allocator<geode::Task<geode::utils::web::WebResponse, geode::utils::web::WebProgress>::setListener(geode::EventListenerProtocol*)::{lambda()#2}>, void ()>::target_type() const
FUNC 597b8 4 0 std::__ndk1::__function::__func<LevelItem::m_callback::{lambda(bool)#1}, std::__ndk1::allocator<LevelItem::m_callback::{lambda(bool)#1}>, void (bool)>::~__func()
FUNC 597bc 24 0 std::__ndk1::__function::__func<LevelItem::m_callback::{lambda(bool)#1}, std::__ndk1::allocator<LevelItem::m_callback::{lambda(bool)#1}>, void (bool)>::__clone() const
FUNC 597e0 10 0 std::__ndk1::__function::__func<LevelItem::m_callback::{lambda(bool)#1}, std::__ndk1::allocator<LevelItem::m_callback::{lambda(bool)#1}>, void (bool)>::__clone(std::__ndk1::__function::__base<void (bool)>*) const
FUNC 597f0 4 0 std::__ndk1::__function::__func<LevelItem::m_callback::{lambda(bool)#1}, std::__ndk1::allocator<LevelItem::m_callback::{lambda(bool)#1}>, void (bool)>::destroy()
FUNC 597f4 4 0 std::__ndk1::__function::__func<LevelItem::m_callback::{lambda(bool)#1}, std::__ndk1::allocator<LevelItem::m_callback::{lambda(bool)#1}>, void (bool)>::destroy_deallocate()
FUNC 597f8 4 0 std::__ndk1::__function::__func<LevelItem::m_callback::{lambda(bool)#1}, std::__ndk1::allocator<LevelItem::m_callback::{lambda(bool)#1}>, void (bool)>::operator()(bool&&)
FUNC 597fc 1c 0 std::__ndk1::__function::__func<LevelItem::m_callback::{lambda(bool)#1}, std::__ndk1::allocator<LevelItem::m_callback::{lambda(bool)#1}>, void (bool)>::target(std::type_info const&) const
FUNC 59818 c 0 std::__ndk1::__function::__func<LevelItem::m_callback::{lambda(bool)#1}, std::__ndk1::allocator<LevelItem::m_callback::{lambda(bool)#1}>, void (bool)>::target_type() const
FUNC 59824 4 0 std::__ndk1::__function::__base<void (geode::Task<geode::utils::web::WebResponse, geode::utils::web::WebProgress>::Event*)>::~__base()
FUNC 59828 4 0 std::__ndk1::__function::__func<LevelItem::loadImage()::$_0, std::__ndk1::allocator<LevelItem::loadImage()::$_0>, void (geode::Task<geode::utils::web::WebResponse, geode::utils::web::WebProgress>::Event*)>::~__func()
FUNC 5982c 34 0 std::__ndk1::__function::__func<LevelItem::loadImage()::$_0, std::__ndk1::allocator<LevelItem::loadImage()::$_0>, void (geode::Task<geode::utils::web::WebResponse, geode::utils::web::WebProgress>::Event*)>::__clone() const
FUNC 59860 14 0 std::__ndk1::__function::__func<LevelItem::loadImage()::$_0, std::__ndk1::allocator<LevelItem::loadImage()::$_0>, void (geode::Task<geode::utils::web::WebResponse, geode::utils::web::WebProgress>::Event*)>::__clone(std::__ndk1::__function::__base<void (geode::Task<geode::utils::web::WebResponse, geode::utils::web::WebProgress>::Event*)>*) const
FUNC 59874 4 0 std::__ndk1::__function::__func<LevelItem::loadImage()::$_0, std::__ndk1::allocator<LevelItem::loadImage()::$_0>, void (geode::Task<geode::utils::web::WebResponse, geode::utils::web::WebProgress>::Event*)>::destroy()
FUNC 59878 4 0 std::__ndk1::__function::__func<LevelItem::loadImage()::$_0, std::__ndk1::allocator<LevelItem::loadImage()::$_0>, void (geode::Task<geode::utils::web::WebResponse, geode::utils::web::WebProgress>::Event*)>::destroy_deallocate()
FUNC 5987c 2b0 0 std::__ndk1::__function::__func<LevelItem::loadImage()::$_0, std::__ndk1::allocator<LevelItem::loadImage()::$_0>, void (geode::Task<geode::utils::web::WebResponse, geode::utils::web::WebProgress>::Event*)>::operator()(geode::Task<geode::utils::web::WebResponse, geode::utils::web::WebProgress>::Event*&&)
FUNC 59b2c 1c 0 std::__ndk1::__function::__func<LevelItem::loadImage()::$_0, std::__ndk1::allocator<LevelItem::loadImage()::$_0>, void (geode::Task<geode::utils::web::WebResponse, geode::utils::web::WebProgress>::Event*)>::target(std::type_info const&) const
FUNC 59b48 c 0 std::__ndk1::__function::__func<LevelItem::loadImage()::$_0, std::__ndk1::allocator<LevelItem::loadImage()::$_0>, void (geode::Task<geode::utils::web::WebResponse, geode::utils::web::WebProgress>::Event*)>::target_type() const
FUNC 59b54 20 0 LevelItem::loadImage()::$_0::operator()(geode::Task<geode::utils::web::WebResponse, geode::utils::web::WebProgress>::Event*) const::{lambda()#1}::~{lambda()#1}()
FUNC 59b74 20 0 geode::Ref<cocos2d::CCImage>::~Ref()
FUNC 59b94 30 0 std::__ndk1::__function::__func<LevelItem::loadImage()::$_0::operator()(geode::Task<geode::utils::web::WebResponse, geode::utils::web::WebProgress>::Event*) const::{lambda()#1}, std::__ndk1::allocator<LevelItem::loadImage()::$_0::operator()(geode::Task<geode::utils::web::WebResponse, geode::utils::web::WebProgress>::Event*) const::{lambda()#1}>, void ()>::~__func()
FUNC 59bc4 3c 0 std::__ndk1::__function::__func<LevelItem::loadImage()::$_0::operator()(geode::Task<geode::utils::web::WebResponse, geode::utils::web::WebProgress>::Event*) const::{lambda()#1}, std::__ndk1::allocator<LevelItem::loadImage()::$_0::operator()(geode::Task<geode::utils::web::WebResponse, geode::utils::web::WebProgress>::Event*) const::{lambda()#1}>, void ()>::~__func()
FUNC 59c00 5c 0 std::__ndk1::__function::__func<LevelItem::loadImage()::$_0::operator()(geode::Task<geode::utils::web::WebResponse, geode::utils::web::WebProgress>::Event*) const::{lambda()#1}, std::__ndk1::allocator<LevelItem::loadImage()::$_0::operator()(geode::Task<geode::utils::web::WebResponse, geode::utils::web::WebProgress>::Event*) const::{lambda()#1}>, void ()>::__clone() const
FUNC 59c5c 20 0 std::__ndk1::__function::__func<LevelItem::loadImage()::$_0::operator()(geode::Task<geode::utils::web::WebResponse, geode::utils::web::WebProgress>::Event*) const::{lambda()#1}, std::__ndk1::allocator<LevelItem::loadImage()::$_0::operator()(geode::Task<geode::utils::web::WebResponse, geode::utils::web::WebProgress>::Event*) const::{lambda()#1}>, void ()>::__clone(std::__ndk1::__function::__base<void ()>*) const
FUNC 59c7c 20 0 std::__ndk1::__function::__func<LevelItem::loadImage()::$_0::operator()(geode::Task<geode::utils::web::WebResponse, geode::utils::web::WebProgress>::Event*) const::{lambda()#1}, std::__ndk1::allocator<LevelItem::loadImage()::$_0::operator()(geode::Task<geode::utils::web::WebResponse, geode::utils::web::WebProgress>::Event*) const::{lambda()#1}>, void ()>::destroy()
FUNC 59c9c 30 0 std::__ndk1::__function::__func<LevelItem::loadImage()::$_0::operator()(geode::Task<geode::utils::web::WebResponse, geode::utils::web::WebProgress>::Event*) const::{lambda()#1}, std::__ndk1::allocator<LevelItem::loadImage()::$_0::operator()(geode::Task<geode::utils::web::WebResponse, geode::utils::web::WebProgress>::Event*) const::{lambda()#1}>, void ()>::destroy_deallocate()
FUNC 59ccc c 0 std::__ndk1::__function::__func<LevelItem::loadImage()::$_0::operator()(geode::Task<geode::utils::web::WebResponse, geode::utils::web::WebProgress>::Event*) const::{lambda()#1}, std::__ndk1::allocator<LevelItem::loadImage()::$_0::operator()(geode::Task<geode::utils::web::WebResponse, geode::utils::web::WebProgress>::Event*) const::{lambda()#1}>, void ()>::operator()()
FUNC 59cd8 1c 0 std::__ndk1::__function::__func<LevelItem::loadImage()::$_0::operator()(geode::Task<geode::utils::web::WebResponse, geode::utils::web::WebProgress>::Event*) const::{lambda()#1}, std::__ndk1::allocator<LevelItem::loadImage()::$_0::operator()(geode::Task<geode::utils::web::WebResponse, geode::utils::web::WebProgress>::Event*) const::{lambda()#1}>, void ()>::target(std::type_info const&) const
FUNC 59cf4 c 0 std::__ndk1::__function::__func<LevelItem::loadImage()::$_0::operator()(geode::Task<geode::utils::web::WebResponse, geode::utils::web::WebProgress>::Event*) const::{lambda()#1}, std::__ndk1::allocator<LevelItem::loadImage()::$_0::operator()(geode::Task<geode::utils::web::WebResponse, geode::utils::web::WebProgress>::Event*) const::{lambda()#1}>, void ()>::target_type() const
FUNC 59d00 10 0 ScrollLayerExt::scrollWheel(float, float)
FUNC 59d10 14 0 {virtual override thunk({offset(-352)}, ScrollLayerExt::scrollWheel(float, float))}
FUNC 59d24 d0 0 ScrollLayerExt::ccTouchBegan(cocos2d::CCTouch*, cocos2d::CCEvent*)
FUNC 59df4 8 0 {virtual override thunk({offset(-320)}, ScrollLayerExt::ccTouchBegan(cocos2d::CCTouch*, cocos2d::CCEvent*))}
FUNC 59dfc b8 0 ScrollLayerExt::ccTouchCancelled(cocos2d::CCTouch*, cocos2d::CCEvent*)
FUNC 59eb4 8 0 {virtual override thunk({offset(-320)}, ScrollLayerExt::ccTouchCancelled(cocos2d::CCTouch*, cocos2d::CCEvent*))}
FUNC 59ebc a4 0 ScrollLayerExt::ccTouchEnded(cocos2d::CCTouch*, cocos2d::CCEvent*)
FUNC 59f60 a8 0 {virtual override thunk({offset(-320)}, ScrollLayerExt::ccTouchEnded(cocos2d::CCTouch*, cocos2d::CCEvent*))}
FUNC 5a008 194 0 ScrollLayerExt::ccTouchMoved(cocos2d::CCTouch*, cocos2d::CCEvent*)
FUNC 5a19c 8 0 {virtual override thunk({offset(-320)}, ScrollLayerExt::ccTouchMoved(cocos2d::CCTouch*, cocos2d::CCEvent*))}
FUNC 5a1a4 274 0 ScrollLayerExt::ScrollLayerExt(cocos2d::CCRect const&, bool, bool)
FUNC 5a418 118 0 ScrollLayerExt::visit()
FUNC 5a530 148 0 ScrollLayerExt::fixTouchPrio()
FUNC 5a678 b4 0 ScrollLayerExt::~ScrollLayerExt()
FUNC 5a72c bc 0 ScrollLayerExt::~ScrollLayerExt()
FUNC 5a7e8 b8 0 {virtual override thunk({offset(-320)}, ScrollLayerExt::~ScrollLayerExt())}
FUNC 5a8a0 c0 0 {virtual override thunk({offset(-320)}, ScrollLayerExt::~ScrollLayerExt())}
FUNC 5a960 4 0 std::__ndk1::__function::__func<ScrollLayerExt::fixTouchPrio()::$_0, std::__ndk1::allocator<ScrollLayerExt::fixTouchPrio()::$_0>, void ()>::~__func()
FUNC 5a964 40 0 std::__ndk1::__function::__func<ScrollLayerExt::fixTouchPrio()::$_0, std::__ndk1::allocator<ScrollLayerExt::fixTouchPrio()::$_0>, void ()>::__clone() const
FUNC 5a9a4 20 0 std::__ndk1::__function::__func<ScrollLayerExt::fixTouchPrio()::$_0, std::__ndk1::allocator<ScrollLayerExt::fixTouchPrio()::$_0>, void ()>::__clone(std::__ndk1::__function::__base<void ()>*) const
FUNC 5a9c4 4 0 std::__ndk1::__function::__func<ScrollLayerExt::fixTouchPrio()::$_0, std::__ndk1::allocator<ScrollLayerExt::fixTouchPrio()::$_0>, void ()>::destroy()
FUNC 5a9c8 4 0 std::__ndk1::__function::__func<ScrollLayerExt::fixTouchPrio()::$_0, std::__ndk1::allocator<ScrollLayerExt::fixTouchPrio()::$_0>, void ()>::destroy_deallocate()
FUNC 5a9cc 54 0 std::__ndk1::__function::__func<ScrollLayerExt::fixTouchPrio()::$_0, std::__ndk1::allocator<ScrollLayerExt::fixTouchPrio()::$_0>, void ()>::operator()()
FUNC 5aa20 1c 0 std::__ndk1::__function::__func<ScrollLayerExt::fixTouchPrio()::$_0, std::__ndk1::allocator<ScrollLayerExt::fixTouchPrio()::$_0>, void ()>::target(std::type_info const&) const
FUNC 5aa3c c 0 std::__ndk1::__function::__func<ScrollLayerExt::fixTouchPrio()::$_0, std::__ndk1::allocator<ScrollLayerExt::fixTouchPrio()::$_0>, void ()>::target_type() const
FUNC 5aa48 30 0 geodeImplicitEntry
FUNC 5aa78 4c 0 std::__ndk1::unordered_map<void*, bool, std::__ndk1::hash<void*>, std::__ndk1::equal_to<void*>, std::__ndk1::allocator<std::__ndk1::pair<void* const, bool> > >::~unordered_map[abi:ne180000]()
FUNC 5aac4 134 0 wrapFunction(unsigned long, tulip::hook::WrapperMetadata const&)
FUNC 5abf8 78 0 geode::impl::ResultData<void*, std::__ndk1::basic_string<char, std::__ndk1::char_traits<char>, std::__ndk1::allocator<char> > >::unwrapErr() &
FUNC 5ac70 74 0 geode::impl::ResultData<void*, std::__ndk1::basic_string<char, std::__ndk1::char_traits<char>, std::__ndk1::allocator<char> > >::~ResultData()
FUNC 5ace4 64 0 tulip::hook::WrapperMetadata::~WrapperMetadata()
FUNC 5ad48 224 0 cocos2d::CCObject::CCObject()
FUNC 5af6c 24 0 cocos2d::CCObject::~CCObject()
FUNC 5af90 25c 0 cocos2d::CCNode::CCNode()
FUNC 5b1ec 24 0 cocos2d::CCNode::~CCNode()
FUNC 5b210 24 0 cocos2d::CCNodeRGBA::~CCNodeRGBA()
FUNC 5b234 220 0 cocos2d::CCSet::CCSet()
FUNC 5b454 26c 0 cocos2d::CCSet::~CCSet()
FUNC 5b6c0 24 0 cocos2d::CCSet::~CCSet()
FUNC 5b6e4 28c 0 cocos2d::CCLayer::CCLayer()
FUNC 5b970 8 0 {virtual override thunk({offset(-320)}, cocos2d::CCLayer::~CCLayer())}
FUNC 5b978 24 0 cocos2d::CCLayer::~CCLayer()
FUNC 5b99c 28 0 {virtual override thunk({offset(-320)}, cocos2d::CCLayer::~CCLayer())}
FUNC 5b9c4 308 0 cocos2d::CCLayerRGBA::~CCLayerRGBA()
FUNC 5bccc 8 0 {virtual override thunk({offset(-320)}, cocos2d::CCLayerRGBA::~CCLayerRGBA())}
FUNC 5bcd4 24 0 cocos2d::CCLayerRGBA::~CCLayerRGBA()
FUNC 5bcf8 28 0 {virtual override thunk({offset(-320)}, cocos2d::CCLayerRGBA::~CCLayerRGBA())}
FUNC 5bd20 26c 0 cocos2d::CCLayerColor::CCLayerColor()
FUNC 5bf8c 8 0 {virtual override thunk({offset(-320)}, cocos2d::CCLayerColor::~CCLayerColor())}
FUNC 5bf94 24 0 cocos2d::CCLayerColor::~CCLayerColor()
FUNC 5bfb8 28 0 {virtual override thunk({offset(-320)}, cocos2d::CCLayerColor::~CCLayerColor())}
FUNC 5bfe0 278 0 cocos2d::CCTexture2D::~CCTexture2D()
FUNC 5c258 24 0 cocos2d::CCTexture2D::~CCTexture2D()
FUNC 5c27c 22c 0 cocos2d::CCTexture2D::CCTexture2D()
FUNC 5c4a8 224 0 cocos2d::CCImage::CCImage()
FUNC 5c6cc 270 0 cocos2d::CCImage::~CCImage()
FUNC 5c93c 24 0 cocos2d::CCImage::~CCImage()
FUNC 5c960 198 0 cocos2d::CCDirector::toggleShowFPS(bool, gd::string, cocos2d::CCPoint)
FUNC 5caf8 100 0 tulip::hook::AbstractFunction::from<void, cocos2d::CCDirector*, bool, gd::string, cocos2d::CCPoint>(void (*)(cocos2d::CCDirector*, bool, gd::string, cocos2d::CCPoint))
FUNC 5cbf8 160 0 cocos2d::CCDictionary::setObject(cocos2d::CCObject*, gd::string const&)
FUNC 5cd58 f0 0 tulip::hook::AbstractFunction::from<void, cocos2d::CCDictionary*, cocos2d::CCObject*, gd::string const&>(void (*)(cocos2d::CCDictionary*, cocos2d::CCObject*, gd::string const&))
FUNC 5ce48 150 0 cocos2d::CCDictionary::objectForKey(gd::string const&)
FUNC 5cf98 a8 0 tulip::hook::AbstractFunction::from<cocos2d::CCObject*, cocos2d::CCDictionary*, gd::string const&>(cocos2d::CCObject* (*)(cocos2d::CCDictionary*, gd::string const&))
FUNC 5d040 264 0 cocos2d::extension::CCScale9Sprite::CCScale9Sprite()
FUNC 5d2a4 2bc 0 cocos2d::extension::CCScale9Sprite::~CCScale9Sprite()
FUNC 5d560 24 0 cocos2d::extension::CCScale9Sprite::~CCScale9Sprite()
FUNC 5d584 8 0 {virtual override thunk({offset(-320)}, FLAlertLayer::~FLAlertLayer())}
FUNC 5d58c 24 0 FLAlertLayer::~FLAlertLayer()
FUNC 5d5b0 28 0 {virtual override thunk({offset(-320)}, FLAlertLayer::~FLAlertLayer())}
FUNC 5d5d8 2c0 0 cocos2d::CCNodeRGBA::~CCNodeRGBA()
FUNC 5d898 28c 0 CCScrollLayerExt::CCScrollLayerExt(cocos2d::CCRect)
FUNC 5db24 a4 0 tulip::hook::AbstractFunction::from<void, CCScrollLayerExt*, cocos2d::CCRect>(void (*)(CCScrollLayerExt*, cocos2d::CCRect))
FUNC 5dbc8 4 0 CCScrollLayerExtDelegate::scrllViewWillBeginDecelerating(CCScrollLayerExt*)
FUNC 5dbcc 4 0 CCScrollLayerExtDelegate::scrollViewDidEndDecelerating(CCScrollLayerExt*)
FUNC 5dbd0 4 0 CCScrollLayerExtDelegate::scrollViewTouchMoving(CCScrollLayerExt*)
FUNC 5dbd4 4 0 CCScrollLayerExtDelegate::scrollViewDidEndMoving(CCScrollLayerExt*)
FUNC 5dbd8 4 0 CCScrollLayerExtDelegate::scrollViewTouchBegin(CCScrollLayerExt*)
FUNC 5dbdc 4 0 CCScrollLayerExtDelegate::scrollViewTouchEnd(CCScrollLayerExt*)
FUNC 5dbe0 178 0 FMODAudioEngine::playEffect(gd::string)
FUNC 5dd58 a4 0 tulip::hook::AbstractFunction::from<void, FMODAudioEngine*, gd::string>(void (*)(FMODAudioEngine*, gd::string))
FUNC 5ddfc 4 0 cocos2d::CCNodeRGBA::setOpacityModifyRGB(bool)
FUNC 5de00 8 0 cocos2d::CCNodeRGBA::isOpacityModifyRGB()
FUNC 5de08 4 0 {virtual override thunk({offset(-320)}, cocos2d::CCNodeRGBA::setOpacityModifyRGB(bool))}
FUNC 5de0c 8 0 {virtual override thunk({offset(-320)}, cocos2d::CCNodeRGBA::isOpacityModifyRGB())}
FUNC 5de14 2ec 0 cocos2d::CCLayerColor::~CCLayerColor()
FUNC 5e100 2ec 0 FLAlertLayer::~FLAlertLayer()
FUNC 5e3ec 2a8 0 cocos2d::CCNode::~CCNode()
FUNC 5e694 2f8 0 cocos2d::CCLayer::~CCLayer()
FUNC 5e98c 4c4 0 cocos2d::CCObject::~CCObject()
FUNC 5ee50 154 0 _ZN5geode15UnwrapExceptionC2IRPvQsr4implE18IsStringStreamableIT_EEENS_4impl5OkTagEOS4_
FUNC 5efa4 4 0 std::__ndk1::__variant_detail::__visitation::__base::__dispatcher<(unsigned long)0>::__dispatch[abi:ne180000]<std::__ndk1::__variant_detail::__dtor<std::__ndk1::__variant_detail::__traits<void*, std::__ndk1::basic_string<char, std::__ndk1::char_traits<char>, std::__ndk1::allocator<char> > >, (std::__ndk1::__variant_detail::_Trait)1>::__destroy[abi:ne180000]()::{lambda(auto:1&)#1}, std::__ndk1::__variant_detail::__base<(std::__ndk1::__variant_detail::__traits<void*, std::__ndk1::basic_string<char, std::__ndk1::char_traits<char>, std::__ndk1::allocator<char> > >)1, std::__ndk1::__variant_detail::__traits, std::__ndk1::allocator<char> >&>(std::__ndk1::__variant_detail::__dtor<std::__ndk1::__variant_detail::__traits<void*, std::__ndk1::basic_string<char, std::__ndk1::char_traits<char>, std::__ndk1::allocator<char> > >, (std::__ndk1::__variant_detail::_Trait)1>, std::__ndk1::__variant_detail::__base<(std::__ndk1::__variant_detail::__traits<void*, std::__ndk1::basic_string<char, std::__ndk1::char_traits<char>, std::__ndk1::allocator<char> > >)1, std::__ndk1::__variant_detail::__traits, std::__ndk1::allocator<char> >&)
FUNC 5efa8 14 0 std::__ndk1::__variant_detail::__visitation::__base::__dispatcher<(unsigned long)1>::__dispatch[abi:ne180000]<std::__ndk1::__variant_detail::__dtor<std::__ndk1::__variant_detail::__traits<void*, std::__ndk1::basic_string<char, std::__ndk1::char_traits<char>, std::__ndk1::allocator<char> > >, (std::__ndk1::__variant_detail::_Trait)1>::__destroy[abi:ne180000]()::{lambda(auto:1&)#1}, std::__ndk1::__variant_detail::__base<(std::__ndk1::__variant_detail::__traits<void*, std::__ndk1::basic_string<char, std::__ndk1::char_traits<char>, std::__ndk1::allocator<char> > >)1, std::__ndk1::__variant_detail::__traits, std::__ndk1::allocator<char> >&>(std::__ndk1::__variant_detail::__dtor<std::__ndk1::__variant_detail::__traits<void*, std::__ndk1::basic_string<char, std::__ndk1::char_traits<char>, std::__ndk1::allocator<char> > >, (std::__ndk1::__variant_detail::_Trait)1>, std::__ndk1::__variant_detail::__base<(std::__ndk1::__variant_detail::__traits<void*, std::__ndk1::basic_string<char, std::__ndk1::char_traits<char>, std::__ndk1::allocator<char> > >)1, std::__ndk1::__variant_detail::__traits, std::__ndk1::allocator<char> >&)
FUNC 5efbc 43c 0 std::__ndk1::__hash_table<std::__ndk1::__hash_value_type<void*, bool>, std::__ndk1::__unordered_map_hasher<void*, std::__ndk1::__hash_value_type<void*, bool>, std::__ndk1::hash<void*>, std::__ndk1::equal_to<void*>, true>, std::__ndk1::__unordered_map_equal<void*, std::__ndk1::__hash_value_type<void*, bool>, std::__ndk1::equal_to<void*>, std::__ndk1::hash<void*>, true>, std::__ndk1::allocator<std::__ndk1::__hash_value_type<void*, bool> > >::__emplace_unique_key_args<void*, std::__ndk1::piecewise_construct_t const&, std::__ndk1::tuple<void* const&>, std::__ndk1::tuple<> >(void* const&, std::__ndk1::piecewise_construct_t const&, std::__ndk1::tuple<void* const&>, std::__ndk1::tuple<>)
PUBLIC 5f3f8 0 __udivti3
PUBLIC 5f404 0 __udivmodti4
PUBLIC m 5f650 0 __eqtf2
PUBLIC 5f6f0 0 __unordtf2
FUNC 5f728 294 0 fmt::v11::detail::write_loc(fmt::v11::basic_appender<char>, fmt::v11::loc_value, fmt::v11::format_specs const&, fmt::v11::detail::locale_ref)
FUNC 5f9bc 70 0 fmt::v11::format_facet<std::__ndk1::locale>::~format_facet()
FUNC 5fa2c 50 0 fmt::v11::report_error(char const*)
FUNC 5fa7c 2c 0 fmt::v11::format_error::runtime_error(char const*)
FUNC 5faa8 750 0 fmt::v11::format_facet<std::__ndk1::locale>::do_put(fmt::v11::basic_appender<char>, fmt::v11::loc_value, fmt::v11::format_specs const&) const
FUNC 601f8 64 0 fmt::v11::detail::loc_writer<char>::~loc_writer()
FUNC 6025c 12c 0 fmt::v11::vformat(fmt::v11::basic_string_view<char>, fmt::v11::basic_format_args<fmt::v11::context>)
FUNC 60388 3c8 0 fmt::v11::detail::vformat_to<char>(fmt::v11::detail::buffer<char>&, fmt::v11::basic_string_view<char>, fmt::v11::detail::vformat_args<char>::type, fmt::v11::detail::locale_ref)
FUNC 60750 228 0 fmt::v11::detail::is_printable(unsigned int)
FUNC 60978 2b4 0 fmt::v11::detail::dragonbox::to_decimal<float>(float)
FUNC 60c2c 530 0 fmt::v11::detail::dragonbox::to_decimal<double>(double)
FUNC 6115c 78 0 fmt::v11::basic_memory_buffer<char, (unsigned long)500, std::__ndk1::allocator<char> >::grow(fmt::v11::detail::buffer<char>&, unsigned long)
FUNC 611d4 78 0 fmt::v11::format_facet<std::__ndk1::locale>::~format_facet()
FUNC 6124c 24 0 fmt::v11::format_error::~format_error()
FUNC 61270 150 0 fmt::v11::detail::copy_noinline<char, char const*, fmt::v11::basic_appender<char> >(char const*, char const*, fmt::v11::basic_appender<char>)
FUNC 613c0 6c 0 fmt::v11::detail::default_arg_formatter<char>::operator()<bool>(bool)
FUNC 6142c 74 0 fmt::v11::detail::default_arg_formatter<char>::operator()<char>(char)
FUNC 614a0 f0 0 fmt::v11::detail::default_arg_formatter<char>::operator()<float>(float)
FUNC 61590 f0 0 fmt::v11::detail::default_arg_formatter<char>::operator()<double>(double)
FUNC 61680 48 0 fmt::v11::detail::default_arg_formatter<char>::operator()<char const*>(char const*)
FUNC 616c8 9c 0 fmt::v11::detail::default_arg_formatter<char>::operator()<void const*>(void const*)
FUNC 61764 220 0 _ZN3fmt3v116detail5writeIcNS0_14basic_appenderIcEEiTnNSt6__ndk19enable_ifIXaaaasr11is_integralIT1_EE5valuentsr3std7is_sameIS7_bEE5valuentsr3std7is_sameIS7_T_EE5valueEiE4typeELi0EEET0_SB_S7_
FUNC 61984 150 0 fmt::v11::detail::copy_noinline<char, char*, fmt::v11::basic_appender<char> >(char*, char*, fmt::v11::basic_appender<char>)
FUNC 61ad4 1c4 0 _ZN3fmt3v116detail5writeIcNS0_14basic_appenderIcEEjTnNSt6__ndk19enable_ifIXaaaasr11is_integralIT1_EE5valuentsr3std7is_sameIS7_bEE5valuentsr3std7is_sameIS7_T_EE5valueEiE4typeELi0EEET0_SB_S7_
FUNC 61c98 244 0 _ZN3fmt3v116detail5writeIcNS0_14basic_appenderIcEExTnNSt6__ndk19enable_ifIXaaaasr11is_integralIT1_EE5valuentsr3std7is_sameIS7_bEE5valuentsr3std7is_sameIS7_T_EE5valueEiE4typeELi0EEET0_SB_S7_
FUNC 61edc 1ec 0 _ZN3fmt3v116detail5writeIcNS0_14basic_appenderIcEEyTnNSt6__ndk19enable_ifIXaaaasr11is_integralIT1_EE5valuentsr3std7is_sameIS7_bEE5valuentsr3std7is_sameIS7_T_EE5valueEiE4typeELi0EEET0_SB_S7_
FUNC 620c8 304 0 _ZN3fmt3v116detail5writeIcNS0_14basic_appenderIcEEnTnNSt6__ndk19enable_ifIXaaaasr11is_integralIT1_EE5valuentsr3std7is_sameIS7_bEE5valuentsr3std7is_sameIS7_T_EE5valueEiE4typeELi0EEET0_SB_S7_
FUNC 623cc 2a4 0 _ZN3fmt3v116detail5writeIcNS0_14basic_appenderIcEEoTnNSt6__ndk19enable_ifIXaaaasr11is_integralIT1_EE5valuentsr3std7is_sameIS7_bEE5valuentsr3std7is_sameIS7_T_EE5valueEiE4typeELi0EEET0_SB_S7_
FUNC 62670 2b4 0 _ZN3fmt3v116detail5writeIcNS0_14basic_appenderIcEEbTnNSt6__ndk19enable_ifIXsr3std7is_sameIT1_bEE5valueEiE4typeELi0EEET0_SA_S7_RKNS0_12format_specsENS1_10locale_refE
FUNC 62924 dd4 0 fmt::v11::detail::write_int_noinline<char, fmt::v11::basic_appender<char>, unsigned int>(fmt::v11::basic_appender<char>, fmt::v11::detail::write_int_arg<unsigned int>, fmt::v11::format_specs const&, fmt::v11::detail::locale_ref)
FUNC 636f8 254 0 fmt::v11::detail::write_padded<char, (fmt::v11::align::type)1, fmt::v11::basic_appender<char>, fmt::v11::detail::write_char<char, fmt::v11::basic_appender<char> >(fmt::v11::basic_appender<char>, char, fmt::v11::format_specs const&)::{lambda(fmt::v11::basic_appender<char>&)#1}>(fmt::v11::basic_appender<char>, fmt::v11::format_specs const&, unsigned long, unsigned long, fmt::v11::detail::write_char<char, fmt::v11::basic_appender<char> >(fmt::v11::basic_appender<char>, char, fmt::v11::format_specs const&)::{lambda(fmt::v11::basic_appender<char>&)#1})
FUNC 6394c 258 0 fmt::v11::detail::write_padded<char, (fmt::v11::align::type)1, fmt::v11::basic_appender<char>, fmt::v11::detail::write_nonfinite<char, fmt::v11::basic_appender<char> >(fmt::v11::basic_appender<char>, bool, fmt::v11::format_specs, fmt::v11::sign::type)::{lambda(fmt::v11::basic_appender<char>&)#1}>(fmt::v11::basic_appender<char>, fmt::v11::format_specs const&, unsigned long, unsigned long, fmt::v11::detail::write_nonfinite<char, fmt::v11::basic_appender<char> >(fmt::v11::basic_appender<char>, bool, fmt::v11::format_specs, fmt::v11::sign::type)::{lambda(fmt::v11::basic_appender<char>&)#1})
FUNC 63ba4 c3c 0 fmt::v11::detail::do_write_float<char, fmt::v11::basic_appender<char>, fmt::v11::detail::dragonbox::decimal_fp<float>, fmt::v11::detail::digit_grouping<char> >(fmt::v11::basic_appender<char>, fmt::v11::detail::dragonbox::decimal_fp<float> const&, fmt::v11::format_specs const&, fmt::v11::detail::float_specs, fmt::v11::detail::locale_ref)
FUNC 647e0 154 0 fmt::v11::detail::do_write_float<char, fmt::v11::basic_appender<char>, fmt::v11::detail::dragonbox::decimal_fp<float>, fmt::v11::detail::digit_grouping<char> >(fmt::v11::basic_appender<char>, fmt::v11::detail::dragonbox::decimal_fp<float> const&, fmt::v11::format_specs const&, fmt::v11::detail::float_specs, fmt::v11::detail::locale_ref)::{lambda(fmt::v11::basic_appender<char>(fmt::v11::basic_appender<char>))#1}::operator() const
FUNC 64934 238 0 fmt::v11::detail::digit_grouping<char>::digit_grouping(fmt::v11::detail::locale_ref, bool)
FUNC 64b6c 44 0 fmt::v11::detail::digit_grouping<char>::~digit_grouping()
FUNC 64bb0 1a4 0 fmt::v11::detail::write_exponent<char, fmt::v11::basic_appender<char> >(int, fmt::v11::basic_appender<char>)
FUNC 64d54 17c 0 _ZN3fmt3v116detail17write_significandIcjTnNSt6__ndk19enable_ifIXsr3std11is_integralIT0_EE5valueEiE4typeELi0EEEPT_S9_S5_iiS8_
FUNC 64ed0 3a4 0 fmt::v11::detail::digit_grouping<char>::apply<fmt::v11::basic_appender<char>, char>(fmt::v11::basic_appender<char>, fmt::v11::basic_string_view<char>) const
FUNC 65274 a0 0 fmt::v11::basic_memory_buffer<int, (unsigned long)500, std::__ndk1::allocator<int> >::grow(fmt::v11::detail::buffer<int>&, unsigned long)
FUNC 65314 c78 0 fmt::v11::detail::do_write_float<char, fmt::v11::basic_appender<char>, fmt::v11::detail::dragonbox::decimal_fp<double>, fmt::v11::detail::digit_grouping<char> >(fmt::v11::basic_appender<char>, fmt::v11::detail::dragonbox::decimal_fp<double> const&, fmt::v11::format_specs const&, fmt::v11::detail::float_specs, fmt::v11::detail::locale_ref)
FUNC 65f8c 158 0 fmt::v11::detail::do_write_float<char, fmt::v11::basic_appender<char>, fmt::v11::detail::dragonbox::decimal_fp<double>, fmt::v11::detail::digit_grouping<char> >(fmt::v11::basic_appender<char>, fmt::v11::detail::dragonbox::decimal_fp<double> const&, fmt::v11::format_specs const&, fmt::v11::detail::float_specs, fmt::v11::detail::locale_ref)::{lambda(fmt::v11::basic_appender<char>(fmt::v11::basic_appender<char>))#1}::operator() const
FUNC 660e4 190 0 _ZN3fmt3v116detail17write_significandIcmTnNSt6__ndk19enable_ifIXsr3std11is_integralIT0_EE5valueEiE4typeELi0EEEPT_S9_S5_iiS8_
FUNC 66274 ad0 0 fmt::v11::detail::write_float<char, fmt::v11::basic_appender<char>, long double>(fmt::v11::basic_appender<char>, long double, fmt::v11::format_specs, fmt::v11::detail::locale_ref)
FUNC 66d44 1f4 0 fmt::v11::detail::write_padded<char, (fmt::v11::align::type)2, fmt::v11::basic_appender<char>, fmt::v11::detail::write_bytes<char, (fmt::v11::align::type)2, fmt::v11::basic_appender<char> >(fmt::v11::basic_appender<char>, fmt::v11::basic_string_view<char>, fmt::v11::format_specs const&)::{lambda(fmt::v11::basic_appender<char>&)#1}>(fmt::v11::basic_appender<char>, fmt::v11::format_specs const&, unsigned long, unsigned long, fmt::v11::detail::write_bytes<char, (fmt::v11::align::type)2, fmt::v11::basic_appender<char> >(fmt::v11::basic_appender<char>, fmt::v11::basic_string_view<char>, fmt::v11::format_specs const&)::{lambda(fmt::v11::basic_appender<char>&)#1})
FUNC 66f38 1350 0 fmt::v11::detail::format_dragon(fmt::v11::detail::basic_fp<unsigned __int128>, unsigned int, int, fmt::v11::detail::buffer<char>&, int&)
FUNC 68288 124 0 fmt::v11::detail::bigint::operator<<=(int)
FUNC 683ac 744 0 fmt::v11::detail::bigint::assign_pow10(int)
FUNC 68af0 2f4 0 fmt::v11::detail::bigint::divmod_assign(fmt::v11::detail::bigint const&)
FUNC 68de4 a0 0 fmt::v11::basic_memory_buffer<unsigned int, (unsigned long)32, std::__ndk1::allocator<unsigned int> >::grow(fmt::v11::detail::buffer<unsigned int>&, unsigned long)
FUNC 68e84 e8c 0 fmt::v11::detail::do_write_float<char, fmt::v11::basic_appender<char>, fmt::v11::detail::big_decimal_fp, fmt::v11::detail::digit_grouping<char> >(fmt::v11::basic_appender<char>, fmt::v11::detail::big_decimal_fp const&, fmt::v11::format_specs const&, fmt::v11::detail::float_specs, fmt::v11::detail::locale_ref)
FUNC 69d10 160 0 fmt::v11::detail::do_write_float<char, fmt::v11::basic_appender<char>, fmt::v11::detail::big_decimal_fp, fmt::v11::detail::digit_grouping<char> >(fmt::v11::basic_appender<char>, fmt::v11::detail::big_decimal_fp const&, fmt::v11::format_specs const&, fmt::v11::detail::float_specs, fmt::v11::detail::locale_ref)::{lambda(fmt::v11::basic_appender<char>(fmt::v11::basic_appender<char>))#1}::operator() const
FUNC 69e70 214 0 fmt::v11::detail::write_padded<char, (fmt::v11::align::type)2, fmt::v11::basic_appender<char>, fmt::v11::detail::write_ptr<char, fmt::v11::basic_appender<char>, unsigned long>(fmt::v11::basic_appender<char>, unsigned long, fmt::v11::format_specs const*)::{lambda(fmt::v11::basic_appender<char>&)#1}>(fmt::v11::basic_appender<char>, fmt::v11::format_specs const&, unsigned long, unsigned long, fmt::v11::detail::write_ptr<char, fmt::v11::basic_appender<char>, unsigned long>(fmt::v11::basic_appender<char>, unsigned long, fmt::v11::format_specs const*)::{lambda(fmt::v11::basic_appender<char>&)#1})
FUNC 6a084 14c4 0 fmt::v11::detail::parse_replacement_field<char, fmt::v11::detail::vformat_to<char>(fmt::v11::detail::buffer<char>&, fmt::v11::basic_string_view<char>, fmt::v11::detail::vformat_args<char>::type, fmt::v11::detail::locale_ref)::format_handler&>(char const*, char const*, fmt::v11::detail::vformat_to<char>(fmt::v11::detail::buffer<char>&, fmt::v11::basic_string_view<char>, fmt::v11::detail::vformat_args<char>::type, fmt::v11::detail::locale_ref)::format_handler&)
FUNC 6b548 e30 0 fmt::v11::detail::write_int_noinline<char, fmt::v11::basic_appender<char>, unsigned long>(fmt::v11::basic_appender<char>, fmt::v11::detail::write_int_arg<unsigned long>, fmt::v11::format_specs const&, fmt::v11::detail::locale_ref)
FUNC 6c378 fd4 0 fmt::v11::detail::write_int_noinline<char, fmt::v11::basic_appender<char>, unsigned __int128>(fmt::v11::basic_appender<char>, fmt::v11::detail::write_int_arg<unsigned __int128>, fmt::v11::format_specs const&, fmt::v11::detail::locale_ref)
FUNC 6d34c 510 0 _ZN3fmt3v116detail15format_hexfloatIdTnNSt6__ndk19enable_ifIXntsr16is_double_doubleIT_EE5valueEiE4typeELi0EEEvS5_NS0_12format_specsERNS1_6bufferIcEE
FUNC 6d85c 98c 0 fmt::v11::detail::format_float<double>(double, int, fmt::v11::detail::float_specs, fmt::v11::detail::buffer<char>&)
FUNC 6e1e8 570 0 fmt::v11::detail::write_int<fmt::v11::basic_appender<char>, unsigned long, char>(fmt::v11::basic_appender<char>, unsigned long, unsigned int, fmt::v11::format_specs const&, fmt::v11::detail::digit_grouping<char> const&)
FUNC 6e758 664 0 fmt::v11::detail::write_int<fmt::v11::basic_appender<char>, unsigned __int128, char>(fmt::v11::basic_appender<char>, unsigned __int128, unsigned int, fmt::v11::format_specs const&, fmt::v11::detail::digit_grouping<char> const&)
PUBLIC 6edc0 0 <.plt ELF section in firee.deck.android64.so>
STACK CFI INIT 339c0 10 .cfa: sp 0 +
STACK CFI INIT 339d0 8 .cfa: sp 0 +
STACK CFI INIT 339d8 8 .cfa: sp 0 +
STACK CFI INIT 339e0 14 .cfa: sp 0 +
STACK CFI INIT 339f4 1c .cfa: sp 0 +
STACK CFI INIT 33a10 10 .cfa: sp 0 +
STACK CFI INIT 33a20 134 .cfa: sp 0 +
STACK CFI INIT 33b54 84 .cfa: sp 0 +
STACK CFI INIT 33bd8 f4 .cfa: sp 0 +
STACK CFI INIT 33ccc a8 .cfa: sp 0 +
STACK CFI INIT 33d74 7c .cfa: sp 0 +
STACK CFI INIT 33df0 14 .cfa: sp 0 +
STACK CFI INIT 33e04 40 .cfa: sp 0 +
STACK CFI INIT 33e44 28 .cfa: sp 0 +
STACK CFI INIT 33e6c 190 .cfa: sp 0 +
STACK CFI INIT 33ffc 2c8 .cfa: sp 0 +
STACK CFI INIT 342c4 8 .cfa: sp 0 +
STACK CFI INIT 342cc 8 .cfa: sp 0 +
STACK CFI INIT 342d4 44 .cfa: sp 0 +
STACK CFI INIT 34318 e8 .cfa: sp 0 +
STACK CFI INIT 34400 e8 .cfa: sp 0 +
STACK CFI INIT 344e8 14 .cfa: sp 0 +
STACK CFI INIT 344fc 10 .cfa: sp 0 +
STACK CFI INIT 3450c 10 .cfa: sp 0 +
STACK CFI INIT 3451c f0 .cfa: sp 0 +
STACK CFI INIT 3460c 44 .cfa: sp 0 +
STACK CFI INIT 34650 c .cfa: sp 0 +
STACK CFI INIT 3465c c .cfa: sp 0 +
STACK CFI INIT 34668 2c .cfa: sp 0 +
STACK CFI INIT 34694 280 .cfa: sp 0 +
STACK CFI INIT 34914 c .cfa: sp 0 +
STACK CFI INIT 34920 120 .cfa: sp 0 +
STACK CFI INIT 34a40 488 .cfa: sp 0 +
STACK CFI INIT 34ec8 c48 .cfa: sp 0 +
STACK CFI INIT 35b10 134 .cfa: sp 0 +
STACK CFI INIT 35c44 210 .cfa: sp 0 +
STACK CFI INIT 35e54 38c .cfa: sp 0 +
STACK CFI INIT 361e0 1c8 .cfa: sp 0 +
STACK CFI INIT 363a8 9bc .cfa: sp 0 +
STACK CFI INIT 36d64 2d4 .cfa: sp 0 +
STACK CFI INIT 37038 134 .cfa: sp 0 +
STACK CFI INIT 3716c 120 .cfa: sp 0 +
STACK CFI INIT 3728c 1c8 .cfa: sp 0 +
STACK CFI INIT 37454 168 .cfa: sp 0 +
STACK CFI INIT 375bc fc .cfa: sp 0 +
STACK CFI INIT 376b8 30 .cfa: sp 0 +
STACK CFI INIT 37834 10 .cfa: sp 0 +
STACK CFI 37838 .cfa: sp 16 +
STACK CFI 3783c .cfa: x29 16 + .ra: .cfa -8 + ^ x29: .cfa -16 + ^
STACK CFI INIT 37844 3c .cfa: sp 0 +
STACK CFI 37848 .cfa: sp 16 +
STACK CFI 3784c .cfa: x29 16 + .ra: .cfa -8 + ^ x29: .cfa -16 + ^
STACK CFI 37878 .cfa: sp 16 +
STACK CFI 3787c .cfa: sp 0 +
STACK CFI INIT 37880 30 .cfa: sp 0 +
STACK CFI INIT 378b0 98 .cfa: sp 0 +
STACK CFI INIT 37948 59c .cfa: sp 0 +
STACK CFI INIT 37ee4 8c .cfa: sp 0 +
STACK CFI INIT 37f70 30 .cfa: sp 0 +
STACK CFI INIT 383e4 1c .cfa: sp 0 +
STACK CFI INIT 38db0 50 .cfa: sp 0 +
STACK CFI 38db4 .cfa: sp 32 +
STACK CFI 38dbc .cfa: x29 32 + x19: .cfa -16 + ^ .ra: .cfa -24 + ^ x29: .cfa -32 + ^
STACK CFI 38dd4 .cfa: sp 32 +
STACK CFI 38ddc .cfa: sp 0 +
STACK CFI 38de0 .cfa: x29 32 +
STACK CFI 38df4 .cfa: sp 32 +
STACK CFI 38dfc .cfa: sp 0 +
STACK CFI INIT 38e74 7c .cfa: sp 0 +
STACK CFI 38e78 .cfa: sp 48 +
STACK CFI 38e84 .cfa: x29 48 + x19: .cfa -8 + ^ x20: .cfa -16 + ^ x21: .cfa -32 + ^ .ra: .cfa -40 + ^ x29: .cfa -48 + ^
STACK CFI 38ed0 .cfa: sp 48 +
STACK CFI 38edc .cfa: sp 0 +
STACK CFI 38ee0 .cfa: sp 48 +
STACK CFI 38eec .cfa: sp 0 +
STACK CFI INIT 38ef0 4 .cfa: sp 0 +
STACK CFI INIT 39048 34 .cfa: sp 0 +
STACK CFI 3904c .cfa: sp 16 +
STACK CFI 39050 .cfa: x29 16 + .ra: .cfa -8 + ^ x29: .cfa -16 + ^
STACK CFI INIT 391a0 80 .cfa: sp 0 +
STACK CFI 391a4 .cfa: sp 48 +
STACK CFI 391b0 .cfa: x29 48 + x19: .cfa -8 + ^ x20: .cfa -16 + ^ x21: .cfa -32 + ^ .ra: .cfa -40 + ^ x29: .cfa -48 + ^
STACK CFI 39210 .cfa: sp 48 +
STACK CFI 3921c .cfa: sp 0 +
STACK CFI INIT 39220 24 .cfa: sp 0 +
STACK CFI 39224 .cfa: sp 32 +
STACK CFI 3922c .cfa: x29 32 + x19: .cfa -16 + ^ .ra: .cfa -24 + ^ x29: .cfa -32 + ^
STACK CFI 39238 .cfa: sp 32 +
STACK CFI 39240 .cfa: sp 0 +
STACK CFI INIT 39590 14 .cfa: sp 0 +
STACK CFI 39594 .cfa: sp 16 +
STACK CFI 39598 .cfa: x29 16 + .ra: .cfa -8 + ^ x29: .cfa -16 + ^
STACK CFI INIT 395f4 30 .cfa: sp 0 +
STACK CFI 395f8 .cfa: sp 32 +
STACK CFI 39600 .cfa: x29 32 + x19: .cfa -16 + ^ .ra: .cfa -24 + ^ x29: .cfa -32 + ^
STACK CFI 39618 .cfa: sp 32 +
STACK CFI 39620 .cfa: sp 0 +
STACK CFI INIT 39624 34 .cfa: sp 0 +
STACK CFI 39628 .cfa: sp 32 +
STACK CFI 39630 .cfa: x29 32 + x19: .cfa -16 + ^ .ra: .cfa -24 + ^ x29: .cfa -32 + ^
STACK CFI INIT 397b4 148 .cfa: sp 0 +
STACK CFI 397b8 .cfa: sp 48 +
STACK CFI 397c4 .cfa: x29 48 + x19: .cfa -8 + ^ x20: .cfa -16 + ^ x21: .cfa -32 + ^ .ra: .cfa -40 + ^ x29: .cfa -48 + ^
STACK CFI 398ec .cfa: sp 48 +
STACK CFI 398f8 .cfa: sp 0 +
STACK CFI INIT 39b18 70 .cfa: sp 0 +
STACK CFI 39b1c .cfa: sp 48 +
STACK CFI 39b28 .cfa: x29 48 + x19: .cfa -8 + ^ x20: .cfa -16 + ^ x21: .cfa -24 + ^ x22: .cfa -32 + ^ .ra: .cfa -40 + ^ x29: .cfa -48 + ^
STACK CFI 39b70 .cfa: sp 48 +
STACK CFI 39b7c .cfa: sp 0 +
STACK CFI 39b80 .cfa: x29 48 +
STACK CFI INIT 39b88 68 .cfa: sp 0 +
STACK CFI 39b8c .cfa: sp 32 +
STACK CFI 39b94 .cfa: x29 32 + x19: .cfa -8 + ^ x20: .cfa -16 + ^ .ra: .cfa -24 + ^ x29: .cfa -32 + ^
STACK CFI 39bac .cfa: sp 32 +
STACK CFI 39bb4 .cfa: sp 0 +
STACK CFI 39bb8 .cfa: x29 32 +
STACK CFI 39be4 .cfa: sp 32 +
STACK CFI 39bec .cfa: sp 0 +
STACK CFI INIT 39bf0 14 .cfa: sp 0 +
STACK CFI 39bf4 .cfa: sp 16 +
STACK CFI 39bf8 .cfa: x29 16 + .ra: .cfa -8 + ^ x29: .cfa -16 + ^
STACK CFI INIT 39c04 4 .cfa: sp 0 +
STACK CFI INIT 39c08 14 .cfa: sp 0 +
STACK CFI INIT 39c1c fc .cfa: sp 0 +
STACK CFI 39c20 .cfa: sp 64 +
STACK CFI 39c30 .cfa: x29 64 + x19: .cfa -8 + ^ x20: .cfa -16 + ^ x21: .cfa -24 + ^ x22: .cfa -32 + ^ x23: .cfa -40 + ^ x24: .cfa -48 + ^ .ra: .cfa -56 + ^ x29: .cfa -64 + ^
STACK CFI 39d04 .cfa: sp 64 +
STACK CFI 39d14 .cfa: sp 0 +
STACK CFI INIT 39d18 d4 .cfa: sp 0 +
STACK CFI 39d1c .cfa: sp 48 +
STACK CFI 39d28 .cfa: x29 48 + x19: .cfa -8 + ^ x20: .cfa -16 + ^ x21: .cfa -32 + ^ .ra: .cfa -40 + ^ x29: .cfa -48 + ^
STACK CFI 39db8 .cfa: sp 48 +
STACK CFI 39dc4 .cfa: sp 0 +
STACK CFI 39dc8 .cfa: x29 48 +
STACK CFI INIT 39dec 388 .cfa: sp 0 +
STACK CFI INIT 3a174 8c .cfa: sp 0 +
STACK CFI 3a17c .cfa: sp 32 +
STACK CFI 3a184 .cfa: x29 32 + x19: .cfa -8 + ^ x20: .cfa -16 + ^ .ra: .cfa -24 + ^ x29: .cfa -32 + ^
STACK CFI 3a1cc .cfa: sp 32 +
STACK CFI 3a1d4 .cfa: sp 0 +
STACK CFI 3a1dc .cfa: x29 32 +
STACK CFI INIT 3b434 c0 .cfa: sp 0 +
STACK CFI 3b438 .cfa: sp 48 +
STACK CFI 3b448 .cfa: x29 40 + x19: .cfa -8 + ^ x20: .cfa -16 + ^ x21: .cfa -24 + ^ .ra: .cfa -32 + ^ x29: .cfa -40 + ^ v8: .cfa -48 + ^
STACK CFI 3b4cc .cfa: sp 48 +
STACK CFI 3b4dc .cfa: sp 0 +
STACK CFI 3b4e0 .cfa: sp 48 +
STACK CFI 3b4f0 .cfa: sp 0 +
STACK CFI INIT 3b4f4 50 .cfa: sp 0 +
STACK CFI 3b4f8 .cfa: sp 32 +
STACK CFI 3b500 .cfa: x29 32 + x19: .cfa -16 + ^ .ra: .cfa -24 + ^ x29: .cfa -32 + ^
STACK CFI 3b518 .cfa: sp 32 +
STACK CFI 3b520 .cfa: sp 0 +
STACK CFI 3b524 .cfa: x29 32 +
STACK CFI 3b538 .cfa: sp 32 +
STACK CFI 3b540 .cfa: sp 0 +
STACK CFI INIT 3b544 64 .cfa: sp 0 +
STACK CFI 3b548 .cfa: sp 32 +
STACK CFI 3b550 .cfa: x29 32 + x19: .cfa -16 + ^ .ra: .cfa -24 + ^ x29: .cfa -32 + ^
STACK CFI 3b57c .cfa: sp 32 +
STACK CFI 3b584 .cfa: sp 0 +
STACK CFI 3b588 .cfa: x29 32 +
STACK CFI 3b59c .cfa: sp 32 +
STACK CFI 3b5a4 .cfa: sp 0 +
STACK CFI INIT 3bec4 4 .cfa: sp 0 +
STACK CFI INIT 3bec8 14 .cfa: sp 0 +
STACK CFI 3becc .cfa: sp 16 +
STACK CFI 3bed0 .cfa: x29 16 + .ra: .cfa -8 + ^ x29: .cfa -16 + ^
STACK CFI INIT 3bedc 14 .cfa: sp 0 +
STACK CFI 3bee0 .cfa: sp 16 +
STACK CFI 3bee4 .cfa: x29 16 + .ra: .cfa -8 + ^ x29: .cfa -16 + ^
STACK CFI INIT 3bef0 14 .cfa: sp 0 +
STACK CFI 3bef4 .cfa: sp 16 +
STACK CFI 3bef8 .cfa: x29 16 + .ra: .cfa -8 + ^ x29: .cfa -16 + ^
STACK CFI INIT 3bf54 30 .cfa: sp 0 +
STACK CFI 3bf58 .cfa: sp 32 +
STACK CFI 3bf60 .cfa: x29 32 + x19: .cfa -16 + ^ .ra: .cfa -24 + ^ x29: .cfa -32 + ^
STACK CFI 3bf78 .cfa: sp 32 +
STACK CFI 3bf80 .cfa: sp 0 +
STACK CFI INIT 3bf84 14 .cfa: sp 0 +
STACK CFI 3bf88 .cfa: sp 16 +
STACK CFI 3bf8c .cfa: x29 16 + .ra: .cfa -8 + ^ x29: .cfa -16 + ^
STACK CFI INIT 3bf98 4 .cfa: sp 0 +
STACK CFI INIT 3bf9c 4 .cfa: sp 0 +
STACK CFI INIT 3bfa0 38 .cfa: sp 0 +
STACK CFI 3bfa4 .cfa: sp 32 +
STACK CFI 3bfac .cfa: x29 32 + x19: .cfa -16 + ^ .ra: .cfa -24 + ^ x29: .cfa -32 + ^
STACK CFI 3bfcc .cfa: sp 32 +
STACK CFI 3bfd4 .cfa: sp 0 +
STACK CFI INIT 3bfd8 18 .cfa: sp 0 +
STACK CFI INIT 3bff0 4 .cfa: sp 0 +
STACK CFI INIT 3bff4 4 .cfa: sp 0 +
STACK CFI INIT 3bff8 10 .cfa: sp 0 +
STACK CFI INIT 3c008 1c .cfa: sp 0 +
STACK CFI INIT 3c024 c .cfa: sp 0 +
STACK CFI INIT 3c030 8c .cfa: sp 0 +
STACK CFI 3c034 .cfa: sp 48 +
STACK CFI 3c040 .cfa: x29 48 + x19: .cfa -8 + ^ x20: .cfa -16 + ^ x21: .cfa -24 + ^ x22: .cfa -32 + ^ .ra: .cfa -40 + ^ x29: .cfa -48 + ^
STACK CFI 3c048 .cfa: sp 48 +
STACK CFI 3c054 .cfa: sp 0 +
STACK CFI 3c058 .cfa: x29 48 +
STACK CFI 3c0ac .cfa: sp 48 +
STACK CFI 3c0b8 .cfa: sp 0 +
STACK CFI INIT 3c0bc 60 .cfa: sp 0 +
STACK CFI 3c0cc .cfa: sp 32 +
STACK CFI 3c0d4 .cfa: x29 32 + x19: .cfa -8 + ^ x20: .cfa -16 + ^ .ra: .cfa -24 + ^ x29: .cfa -32 + ^
STACK CFI 3c110 .cfa: sp 32 +
STACK CFI 3c118 .cfa: sp 0 +
STACK CFI INIT 3c11c c4 .cfa: sp 0 +
STACK CFI 3c120 .cfa: sp 32 +
STACK CFI 3c128 .cfa: x29 32 + x19: .cfa -8 + ^ x20: .cfa -16 + ^ .ra: .cfa -24 + ^ x29: .cfa -32 + ^
STACK CFI 3c1d4 .cfa: sp 32 +
STACK CFI 3c1dc .cfa: sp 0 +
STACK CFI INIT 3c1e0 ac .cfa: sp 0 +
STACK CFI 3c1e4 .cfa: sp 64 +
STACK CFI 3c1f4 .cfa: x29 64 + x19: .cfa -8 + ^ x20: .cfa -16 + ^ x21: .cfa -24 + ^ x22: .cfa -32 + ^ x23: .cfa -48 + ^ .ra: .cfa -56 + ^ x29: .cfa -64 + ^
STACK CFI 3c270 .cfa: sp 64 +
STACK CFI 3c280 .cfa: sp 0 +
STACK CFI 3c284 .cfa: x29 64 +
STACK CFI INIT 3c28c 100 .cfa: sp 0 +
STACK CFI 3c290 .cfa: sp 64 +
STACK CFI 3c2a0 .cfa: x29 64 + x19: .cfa -8 + ^ x20: .cfa -16 + ^ x21: .cfa -24 + ^ x22: .cfa -32 + ^ x23: .cfa -40 + ^ x24: .cfa -48 + ^ .ra: .cfa -56 + ^ x29: .cfa -64 + ^
STACK CFI 3c370 .cfa: sp 64 +
STACK CFI 3c380 .cfa: sp 0 +
STACK CFI 3c384 .cfa: x29 64 +
STACK CFI INIT 3c38c 104 .cfa: sp 0 +
STACK CFI 3c390 .cfa: sp 80 +
STACK CFI 3c3a4 .cfa: x29 80 + x19: .cfa -8 + ^ x20: .cfa -16 + ^ x21: .cfa -24 + ^ x22: .cfa -32 + ^ x23: .cfa -40 + ^ x24: .cfa -48 + ^ x25: .cfa -56 + ^ x26: .cfa -64 + ^ .ra: .cfa -72 + ^ x29: .cfa -80 + ^
STACK CFI 3c478 .cfa: sp 80 +
STACK CFI 3c48c .cfa: sp 0 +
STACK CFI INIT 3c490 19c .cfa: sp 0 +
STACK CFI INIT 3c760 e4 .cfa: sp 0 +
STACK CFI 3c764 .cfa: sp 64 +
STACK CFI 3c774 .cfa: x29 64 + x19: .cfa -8 + ^ x20: .cfa -16 + ^ x21: .cfa -24 + ^ x22: .cfa -32 + ^ x23: .cfa -48 + ^ .ra: .cfa -56 + ^ x29: .cfa -64 + ^
STACK CFI 3c7ec .cfa: sp 64 +
STACK CFI 3c7fc .cfa: sp 0 +
STACK CFI 3c800 .cfa: x29 64 +
STACK CFI INIT 3c980 98 .cfa: sp 0 +
STACK CFI 3c984 .cfa: sp 304 +
STACK CFI 3c990 .cfa: x29 32 + x19: .cfa -8 + ^ x28: .cfa -16 + ^ .ra: .cfa -24 + ^ x29: .cfa -32 + ^
STACK CFI 3ca04 .cfa: sp 304 +
STACK CFI 3ca10 .cfa: sp 0 +
STACK CFI 3ca14 .cfa: x29 32 +
STACK CFI INIT 3ca18 178 .cfa: sp 0 +
STACK CFI 3ca1c .cfa: sp 144 +
STACK CFI 3ca34 .cfa: x29 64 + x19: .cfa -8 + ^ x20: .cfa -16 + ^ x21: .cfa -24 + ^ x22: .cfa -32 + ^ x23: .cfa -48 + ^ .ra: .cfa -56 + ^ x29: .cfa -64 + ^ v8: .cfa -72 + ^ v9: .cfa -80 + ^
STACK CFI 3cb70 .cfa: sp 144 +
STACK CFI 3cb88 .cfa: sp 0 +
STACK CFI 3cb8c .cfa: x29 64 +
STACK CFI INIT 3cb90 1bc .cfa: sp 0 +
STACK CFI 3cb94 .cfa: sp 96 +
STACK CFI 3cba8 .cfa: x29 64 + x19: .cfa -8 + ^ x20: .cfa -16 + ^ x21: .cfa -24 + ^ x22: .cfa -32 + ^ x23: .cfa -48 + ^ .ra: .cfa -56 + ^ x29: .cfa -64 + ^
STACK CFI 3cd30 .cfa: sp 96 +
STACK CFI 3cd44 .cfa: sp 0 +
STACK CFI 3cd48 .cfa: x29 64 +
STACK CFI INIT 3e314 70 .cfa: sp 0 +
STACK CFI 3e318 .cfa: sp 48 +
STACK CFI 3e324 .cfa: x29 32 + x19: .cfa -16 + ^ .ra: .cfa -24 + ^ x29: .cfa -32 + ^
STACK CFI 3e35c .cfa: sp 48 +
STACK CFI 3e368 .cfa: sp 0 +
STACK CFI 3e36c .cfa: x29 32 +
STACK CFI INIT 3e384 8 .cfa: sp 0 +
STACK CFI INIT 3e38c 5c .cfa: sp 0 +
STACK CFI 3e390 .cfa: sp 32 +
STACK CFI 3e398 .cfa: x29 32 + x19: .cfa -16 + ^ .ra: .cfa -24 + ^ x29: .cfa -32 + ^
STACK CFI 3e3dc .cfa: sp 32 +
STACK CFI 3e3e4 .cfa: sp 0 +
STACK CFI INIT 3e3e8 64 .cfa: sp 0 +
STACK CFI 3e3ec .cfa: sp 32 +
STACK CFI 3e3f4 .cfa: x29 32 + x19: .cfa -16 + ^ .ra: .cfa -24 + ^ x29: .cfa -32 + ^
STACK CFI 3e440 .cfa: sp 32 +
STACK CFI 3e448 .cfa: sp 0 +
STACK CFI INIT 3e44c 4 .cfa: sp 0 +
STACK CFI INIT 3e450 34 .cfa: sp 0 +
STACK CFI 3e454 .cfa: sp 16 +
STACK CFI 3e458 .cfa: x29 16 + .ra: .cfa -8 + ^ x29: .cfa -16 + ^
STACK CFI INIT 3e484 24 .cfa: sp 0 +
STACK CFI 3e488 .cfa: sp 32 +
STACK CFI 3e490 .cfa: x29 32 + x19: .cfa -16 + ^ .ra: .cfa -24 + ^ x29: .cfa -32 + ^
STACK CFI 3e49c .cfa: sp 32 +
STACK CFI 3e4a4 .cfa: sp 0 +
STACK CFI INIT 3e4a8 4 .cfa: sp 0 +
STACK CFI INIT 3e4ac 4 .cfa: sp 0 +
STACK CFI INIT 3e4b0 34 .cfa: sp 0 +
STACK CFI 3e4b4 .cfa: sp 32 +
STACK CFI 3e4bc .cfa: x29 32 + x19: .cfa -16 + ^ .ra: .cfa -24 + ^ x29: .cfa -32 + ^
STACK CFI 3e4d8 .cfa: sp 32 +
STACK CFI 3e4e0 .cfa: sp 0 +
STACK CFI INIT 3e4e4 14 .cfa: sp 0 +
STACK CFI INIT 3e4f8 4 .cfa: sp 0 +
STACK CFI INIT 3e4fc 4 .cfa: sp 0 +
STACK CFI INIT 3e500 34 .cfa: sp 0 +
STACK CFI 3e504 .cfa: sp 32 +
STACK CFI 3e50c .cfa: x29 32 + x19: .cfa -16 + ^ .ra: .cfa -24 + ^ x29: .cfa -32 + ^
STACK CFI 3e528 .cfa: sp 32 +
STACK CFI 3e530 .cfa: sp 0 +
STACK CFI INIT 3e534 1c .cfa: sp 0 +
STACK CFI INIT 3e550 c .cfa: sp 0 +
STACK CFI INIT 3e7a8 44 .cfa: sp 0 +
STACK CFI 3e7ac .cfa: sp 32 +
STACK CFI 3e7b4 .cfa: x29 32 + x19: .cfa -16 + ^ .ra: .cfa -24 + ^ x29: .cfa -32 + ^
STACK CFI 3e7c8 .cfa: sp 32 +
STACK CFI 3e7d0 .cfa: sp 0 +
STACK CFI 3e7d4 .cfa: x29 32 +
STACK CFI 3e7e0 .cfa: sp 32 +
STACK CFI 3e7e8 .cfa: sp 0 +
STACK CFI INIT 3f224 1c .cfa: sp 0 +
STACK CFI INIT 3fb8c 4 .cfa: sp 0 +
STACK CFI INIT 3fca0 7c .cfa: sp 0 +
STACK CFI 3fca4 .cfa: sp 32 +
STACK CFI 3fcac .cfa: x29 32 + x19: .cfa -8 + ^ x20: .cfa -16 + ^ .ra: .cfa -24 + ^ x29: .cfa -32 + ^
STACK CFI 3fd04 .cfa: sp 32 +
STACK CFI 3fd0c .cfa: sp 0 +
STACK CFI 3fd10 .cfa: sp 32 +
STACK CFI 3fd18 .cfa: sp 0 +
STACK CFI INIT 3fe84 4 .cfa: sp 0 +
STACK CFI INIT 3fe88 4 .cfa: sp 0 +
STACK CFI INIT 3fe8c 38 .cfa: sp 0 +
STACK CFI 3fe90 .cfa: sp 32 +
STACK CFI 3fe98 .cfa: x29 32 + x19: .cfa -16 + ^ .ra: .cfa -24 + ^ x29: .cfa -32 + ^
STACK CFI 3feb8 .cfa: sp 32 +
STACK CFI 3fec0 .cfa: sp 0 +
STACK CFI INIT 3fec4 18 .cfa: sp 0 +
STACK CFI INIT 3fedc 4 .cfa: sp 0 +
STACK CFI INIT 3fee0 4 .cfa: sp 0 +
STACK CFI INIT 3fee4 8 .cfa: sp 0 +
STACK CFI INIT 3feec 1c .cfa: sp 0 +
STACK CFI INIT 3ff08 c .cfa: sp 0 +
STACK CFI INIT 3ff14 4 .cfa: sp 0 +
STACK CFI INIT 4008c 5c .cfa: sp 0 +
STACK CFI 40090 .cfa: sp 32 +
STACK CFI 40098 .cfa: x29 32 + x19: .cfa -16 + ^ .ra: .cfa -24 + ^ x29: .cfa -32 + ^
STACK CFI 400dc .cfa: sp 32 +
STACK CFI 400e4 .cfa: sp 0 +
STACK CFI INIT 400e8 64 .cfa: sp 0 +
STACK CFI 400ec .cfa: sp 32 +
STACK CFI 400f4 .cfa: x29 32 + x19: .cfa -16 + ^ .ra: .cfa -24 + ^ x29: .cfa -32 + ^
STACK CFI 40140 .cfa: sp 32 +
STACK CFI 40148 .cfa: sp 0 +
STACK CFI INIT 4014c 4 .cfa: sp 0 +
STACK CFI INIT 40150 14 .cfa: sp 0 +
STACK CFI INIT 40c38 194 .cfa: sp 0 +
STACK CFI 40c3c .cfa: sp 48 +
STACK CFI 40c48 .cfa: x29 48 + x19: .cfa -8 + ^ x20: .cfa -16 + ^ x21: .cfa -24 + ^ x22: .cfa -32 + ^ .ra: .cfa -40 + ^ x29: .cfa -48 + ^
STACK CFI 40da4 .cfa: sp 48 +
STACK CFI 40db0 .cfa: sp 0 +
STACK CFI 40db4 .cfa: x29 48 +
STACK CFI 40dbc .cfa: sp 48 +
STACK CFI 40dc8 .cfa: sp 0 +
STACK CFI INIT 40dcc e0 .cfa: sp 0 +
STACK CFI 40dd0 .cfa: sp 48 +
STACK CFI 40ddc .cfa: x29 48 + x19: .cfa -8 + ^ x20: .cfa -16 + ^ x21: .cfa -32 + ^ .ra: .cfa -40 + ^ x29: .cfa -48 + ^
STACK CFI 40e8c .cfa: sp 48 +
STACK CFI 40e98 .cfa: sp 0 +
STACK CFI 40e9c .cfa: sp 48 +
STACK CFI 40ea8 .cfa: sp 0 +
STACK CFI INIT 40eac 9c .cfa: sp 0 +
STACK CFI INIT 40f48 4 .cfa: sp 0 +
STACK CFI INIT 40f4c 34 .cfa: sp 0 +
STACK CFI 40f50 .cfa: sp 32 +
STACK CFI 40f58 .cfa: x29 32 + x19: .cfa -16 + ^ .ra: .cfa -24 + ^ x29: .cfa -32 + ^
STACK CFI 40f74 .cfa: sp 32 +
STACK CFI 40f7c .cfa: sp 0 +
STACK CFI INIT 40f80 14 .cfa: sp 0 +
STACK CFI INIT 40f94 4 .cfa: sp 0 +
STACK CFI INIT 40f98 4 .cfa: sp 0 +
STACK CFI INIT 40f9c 10 .cfa: sp 0 +
STACK CFI INIT 40fac 1c .cfa: sp 0 +
STACK CFI INIT 40fc8 c .cfa: sp 0 +
STACK CFI INIT 40fd4 4 .cfa: sp 0 +
STACK CFI INIT 40fd8 4 .cfa: sp 0 +
STACK CFI INIT 40fdc 34 .cfa: sp 0 +
STACK CFI 40fe0 .cfa: sp 32 +
STACK CFI 40fe8 .cfa: x29 32 + x19: .cfa -16 + ^ .ra: .cfa -24 + ^ x29: .cfa -32 + ^
STACK CFI 41004 .cfa: sp 32 +
STACK CFI 4100c .cfa: sp 0 +
STACK CFI INIT 41010 14 .cfa: sp 0 +
STACK CFI INIT 41024 4 .cfa: sp 0 +
STACK CFI INIT 41028 4 .cfa: sp 0 +
STACK CFI INIT 4102c 8 .cfa: sp 0 +
STACK CFI INIT 41034 1c .cfa: sp 0 +
STACK CFI INIT 41050 c .cfa: sp 0 +
STACK CFI INIT 41b60 64 .cfa: sp 0 +
STACK CFI 41b64 .cfa: sp 32 +
STACK CFI 41b6c .cfa: x29 32 + x19: .cfa -16 + ^ .ra: .cfa -24 + ^ x29: .cfa -32 + ^
STACK CFI 41ba8 .cfa: sp 32 +
STACK CFI 41bb0 .cfa: sp 0 +
STACK CFI 41bb4 .cfa: x29 32 +
STACK CFI 41bb8 .cfa: sp 32 +
STACK CFI 41bc0 .cfa: sp 0 +
STACK CFI INIT 41bc4 64 .cfa: sp 0 +
STACK CFI 41bc8 .cfa: sp 32 +
STACK CFI 41bd0 .cfa: x29 32 + x19: .cfa -16 + ^ .ra: .cfa -24 + ^ x29: .cfa -32 + ^
STACK CFI 41c0c .cfa: sp 32 +
STACK CFI 41c14 .cfa: sp 0 +
STACK CFI 41c18 .cfa: x29 32 +
STACK CFI 41c1c .cfa: sp 32 +
STACK CFI 41c24 .cfa: sp 0 +
STACK CFI INIT 41c28 c .cfa: sp 0 +
STACK CFI INIT 41c34 a8 .cfa: sp 0 +
STACK CFI 41c38 .cfa: sp 48 +
STACK CFI 41c44 .cfa: x29 48 + x19: .cfa -8 + ^ x20: .cfa -16 + ^ x21: .cfa -32 + ^ .ra: .cfa -40 + ^ x29: .cfa -48 + ^
STACK CFI 41cbc .cfa: sp 48 +
STACK CFI 41cc8 .cfa: sp 0 +
STACK CFI 41ccc .cfa: sp 48 +
STACK CFI 41cd8 .cfa: sp 0 +
STACK CFI INIT 42314 64 .cfa: sp 0 +
STACK CFI 42318 .cfa: sp 32 +
STACK CFI 42320 .cfa: x29 32 + x19: .cfa -16 + ^ .ra: .cfa -24 + ^ x29: .cfa -32 + ^
STACK CFI 4235c .cfa: sp 32 +
STACK CFI 42364 .cfa: sp 0 +
STACK CFI 42368 .cfa: x29 32 +
STACK CFI 4236c .cfa: sp 32 +
STACK CFI 42374 .cfa: sp 0 +
STACK CFI INIT 42378 154 .cfa: sp 0 +
STACK CFI 4237c .cfa: sp 64 +
STACK CFI 4238c .cfa: x29 64 + x19: .cfa -8 + ^ x20: .cfa -16 + ^ x21: .cfa -24 + ^ x22: .cfa -32 + ^ x23: .cfa -48 + ^ .ra: .cfa -56 + ^ x29: .cfa -64 + ^
STACK CFI 424b8 .cfa: sp 64 +
STACK CFI 424c8 .cfa: sp 0 +
STACK CFI INIT 424cc 50 .cfa: sp 0 +
STACK CFI 424d8 .cfa: sp 32 +
STACK CFI 424e0 .cfa: x29 32 + x19: .cfa -16 + ^ .ra: .cfa -24 + ^ x29: .cfa -32 + ^
STACK CFI 4250c .cfa: sp 32 +
STACK CFI 42514 .cfa: sp 0 +
STACK CFI INIT 4251c 54 .cfa: sp 0 +
STACK CFI 42528 .cfa: sp 32 +
STACK CFI 42530 .cfa: x29 32 + x19: .cfa -16 + ^ .ra: .cfa -24 + ^ x29: .cfa -32 + ^
STACK CFI 42560 .cfa: sp 32 +
STACK CFI 42568 .cfa: sp 0 +
STACK CFI INIT 42570 cb4 .cfa: sp 0 +
STACK CFI 42574 .cfa: sp 96 +
STACK CFI 4258c .cfa: x29 80 + x19: .cfa -8 + ^ x20: .cfa -16 + ^ x21: .cfa -24 + ^ x22: .cfa -32 + ^ x23: .cfa -40 + ^ x24: .cfa -48 + ^ x25: .cfa -64 + ^ .ra: .cfa -72 + ^ x29: .cfa -80 + ^
STACK CFI 427cc .cfa: sp 96 +
STACK CFI 427e4 .cfa: sp 0 +
STACK CFI 427e8 .cfa: x29 80 +
STACK CFI 42eb4 .cfa: sp 96 +
STACK CFI 42ecc .cfa: sp 0 +
STACK CFI 42ed0 .cfa: x29 80 +
STACK CFI 431f0 .cfa: sp 96 +
STACK CFI 43208 .cfa: sp 0 +
STACK CFI 4320c .cfa: x29 80 +
STACK CFI INIT 43224 8 .cfa: sp 0 +
STACK CFI INIT 43518 dc .cfa: sp 0 +
STACK CFI 4351c .cfa: sp 48 +
STACK CFI 43528 .cfa: x29 48 + x19: .cfa -8 + ^ x20: .cfa -16 + ^ x21: .cfa -32 + ^ .ra: .cfa -40 + ^ x29: .cfa -48 + ^
STACK CFI 435e4 .cfa: sp 48 +
STACK CFI 435f0 .cfa: sp 0 +
STACK CFI INIT 435f4 e4 .cfa: sp 0 +
STACK CFI 435f8 .cfa: sp 48 +
STACK CFI 43604 .cfa: x29 48 + x19: .cfa -8 + ^ x20: .cfa -16 + ^ x21: .cfa -32 + ^ .ra: .cfa -40 + ^ x29: .cfa -48 + ^
STACK CFI 436c8 .cfa: sp 48 +
STACK CFI 436d4 .cfa: sp 0 +
STACK CFI INIT 436d8 4 .cfa: sp 0 +
STACK CFI INIT 436dc 4 .cfa: sp 0 +
STACK CFI INIT 436e0 8 .cfa: sp 0 +
STACK CFI INIT 436e8 e0 .cfa: sp 0 +
STACK CFI 436ec .cfa: sp 48 +
STACK CFI 436f8 .cfa: x29 48 + x19: .cfa -8 + ^ x20: .cfa -16 + ^ x21: .cfa -24 + ^ x22: .cfa -32 + ^ .ra: .cfa -40 + ^ x29: .cfa -48 + ^
STACK CFI 437b8 .cfa: sp 48 +
STACK CFI 437c4 .cfa: sp 0 +
STACK CFI INIT 437c8 e8 .cfa: sp 0 +
STACK CFI 437cc .cfa: sp 48 +
STACK CFI 437d8 .cfa: x29 48 + x19: .cfa -8 + ^ x20: .cfa -16 + ^ x21: .cfa -24 + ^ x22: .cfa -32 + ^ .ra: .cfa -40 + ^ x29: .cfa -48 + ^
STACK CFI 438a0 .cfa: sp 48 +
STACK CFI 438ac .cfa: sp 0 +
STACK CFI INIT 438b0 4 .cfa: sp 0 +
STACK CFI INIT 438b4 4 .cfa: sp 0 +
STACK CFI INIT 438b8 4 .cfa: sp 0 +
STACK CFI INIT 438bc 4 .cfa: sp 0 +
STACK CFI INIT 438c0 4 .cfa: sp 0 +
STACK CFI INIT 438c4 4 .cfa: sp 0 +
STACK CFI INIT 438c8 8 .cfa: sp 0 +
STACK CFI INIT 43b5c 9c .cfa: sp 0 +
STACK CFI 43b60 .cfa: sp 48 +
STACK CFI 43b6c .cfa: x29 48 + x19: .cfa -8 + ^ x20: .cfa -16 + ^ x21: .cfa -24 + ^ x22: .cfa -32 + ^ .ra: .cfa -40 + ^ x29: .cfa -48 + ^
STACK CFI 43bd8 .cfa: sp 48 +
STACK CFI 43be4 .cfa: sp 0 +
STACK CFI 43be8 .cfa: sp 48 +
STACK CFI 43bf4 .cfa: sp 0 +
STACK CFI INIT 43bf8 14 .cfa: sp 0 +
STACK CFI 43bfc .cfa: sp 16 +
STACK CFI 43c00 .cfa: x29 16 + .ra: .cfa -8 + ^ x29: .cfa -16 + ^
STACK CFI INIT 43d54 84 .cfa: sp 0 +
STACK CFI 43d64 .cfa: sp 32 +
STACK CFI 43d6c .cfa: x29 32 + x19: .cfa -8 + ^ x20: .cfa -16 + ^ .ra: .cfa -24 + ^ x29: .cfa -32 + ^
STACK CFI 43dcc .cfa: sp 32 +
STACK CFI 43dd4 .cfa: sp 0 +
STACK CFI INIT 43dd8 1a0 .cfa: sp 0 +
STACK CFI 43ddc .cfa: sp 144 +
STACK CFI 43df4 .cfa: x29 80 + x19: .cfa -8 + ^ x20: .cfa -16 + ^ x21: .cfa -24 + ^ x22: .cfa -32 + ^ x23: .cfa -40 + ^ x24: .cfa -48 + ^ x25: .cfa -56 + ^ x26: .cfa -64 + ^ .ra: .cfa -72 + ^ x29: .cfa -80 + ^
STACK CFI 43f58 .cfa: sp 144 +
STACK CFI 43f70 .cfa: sp 0 +
STACK CFI 43f74 .cfa: x29 80 +
STACK CFI INIT 440e0 b8 .cfa: sp 0 +
STACK CFI 440e4 .cfa: sp 48 +
STACK CFI 440f0 .cfa: x29 48 + x19: .cfa -8 + ^ x20: .cfa -16 + ^ x21: .cfa -24 + ^ x22: .cfa -32 + ^ .ra: .cfa -40 + ^ x29: .cfa -48 + ^
STACK CFI 440f8 .cfa: sp 48 +
STACK CFI 44104 .cfa: sp 0 +
STACK CFI 44108 .cfa: x29 48 +
STACK CFI 44188 .cfa: sp 48 +
STACK CFI 44194 .cfa: sp 0 +
STACK CFI INIT 44198 4 .cfa: sp 0 +
STACK CFI INIT 4419c 34 .cfa: sp 0 +
STACK CFI 441a0 .cfa: sp 32 +
STACK CFI 441a8 .cfa: x29 32 + x19: .cfa -16 + ^ .ra: .cfa -24 + ^ x29: .cfa -32 + ^
STACK CFI 441c4 .cfa: sp 32 +
STACK CFI 441cc .cfa: sp 0 +
STACK CFI INIT 441d0 14 .cfa: sp 0 +
STACK CFI INIT 441e4 4 .cfa: sp 0 +
STACK CFI INIT 441e8 4 .cfa: sp 0 +
STACK CFI INIT 441ec 40 .cfa: sp 0 +
STACK CFI 441f0 .cfa: sp 32 +
STACK CFI 441f8 .cfa: x29 32 + x19: .cfa -16 + ^ .ra: .cfa -24 + ^ x29: .cfa -32 + ^
STACK CFI 44220 .cfa: sp 32 +
STACK CFI 44228 .cfa: sp 0 +
STACK CFI INIT 4422c 1c .cfa: sp 0 +
STACK CFI INIT 44248 c .cfa: sp 0 +
STACK CFI INIT 44aec 70 .cfa: sp 0 +
STACK CFI 44af0 .cfa: sp 32 +
STACK CFI 44af8 .cfa: x29 32 + x19: .cfa -16 + ^ .ra: .cfa -24 + ^ x29: .cfa -32 + ^
STACK CFI 44b40 .cfa: sp 32 +
STACK CFI 44b48 .cfa: sp 0 +
STACK CFI 44b4c .cfa: x29 32 +
STACK CFI 44b50 .cfa: sp 32 +
STACK CFI 44b58 .cfa: sp 0 +
STACK CFI INIT 44b5c 6c .cfa: sp 0 +
STACK CFI 44b60 .cfa: sp 32 +
STACK CFI 44b68 .cfa: x29 32 + x19: .cfa -16 + ^ .ra: .cfa -24 + ^ x29: .cfa -32 + ^
STACK CFI 44bbc .cfa: sp 32 +
STACK CFI 44bc4 .cfa: sp 0 +
STACK CFI INIT 44d80 64 .cfa: sp 0 +
STACK CFI 44d84 .cfa: sp 32 +
STACK CFI 44d8c .cfa: x29 32 + x19: .cfa -16 + ^ .ra: .cfa -24 + ^ x29: .cfa -32 + ^
STACK CFI 44dc8 .cfa: sp 32 +
STACK CFI 44dd0 .cfa: sp 0 +
STACK CFI 44dd4 .cfa: x29 32 +
STACK CFI 44dd8 .cfa: sp 32 +
STACK CFI 44de0 .cfa: sp 0 +
STACK CFI INIT 44de4 60 .cfa: sp 0 +
STACK CFI 44de8 .cfa: sp 32 +
STACK CFI 44df0 .cfa: x29 32 + x19: .cfa -16 + ^ .ra: .cfa -24 + ^ x29: .cfa -32 + ^
STACK CFI 44e38 .cfa: sp 32 +
STACK CFI 44e40 .cfa: sp 0 +
STACK CFI INIT 44e44 5c .cfa: sp 0 +
STACK CFI 44e48 .cfa: sp 32 +
STACK CFI 44e50 .cfa: x29 32 + x19: .cfa -16 + ^ .ra: .cfa -24 + ^ x29: .cfa -32 + ^
STACK CFI 44e90 .cfa: sp 32 +
STACK CFI 44e98 .cfa: sp 0 +
STACK CFI 44e9c .cfa: x29 32 +
STACK CFI INIT 44ea0 1c .cfa: sp 0 +
STACK CFI INIT 44ebc c .cfa: sp 0 +
STACK CFI INIT 44ec8 70 .cfa: sp 0 +
STACK CFI 44ecc .cfa: sp 32 +
STACK CFI 44ed4 .cfa: x29 32 + x19: .cfa -16 + ^ .ra: .cfa -24 + ^ x29: .cfa -32 + ^
STACK CFI 44f1c .cfa: sp 32 +
STACK CFI 44f24 .cfa: sp 0 +
STACK CFI 44f28 .cfa: x29 32 +
STACK CFI 44f2c .cfa: sp 32 +
STACK CFI 44f34 .cfa: sp 0 +
STACK CFI INIT 44f38 6c .cfa: sp 0 +
STACK CFI 44f3c .cfa: sp 32 +
STACK CFI 44f44 .cfa: x29 32 + x19: .cfa -16 + ^ .ra: .cfa -24 + ^ x29: .cfa -32 + ^
STACK CFI 44f98 .cfa: sp 32 +
STACK CFI 44fa0 .cfa: sp 0 +
STACK CFI INIT 4515c 64 .cfa: sp 0 +
STACK CFI 45160 .cfa: sp 32 +
STACK CFI 45168 .cfa: x29 32 + x19: .cfa -16 + ^ .ra: .cfa -24 + ^ x29: .cfa -32 + ^
STACK CFI 451a4 .cfa: sp 32 +
STACK CFI 451ac .cfa: sp 0 +
STACK CFI 451b0 .cfa: x29 32 +
STACK CFI 451b4 .cfa: sp 32 +
STACK CFI 451bc .cfa: sp 0 +
STACK CFI INIT 451c0 60 .cfa: sp 0 +
STACK CFI 451c4 .cfa: sp 32 +
STACK CFI 451cc .cfa: x29 32 + x19: .cfa -16 + ^ .ra: .cfa -24 + ^ x29: .cfa -32 + ^
STACK CFI 45214 .cfa: sp 32 +
STACK CFI 4521c .cfa: sp 0 +
STACK CFI INIT 45220 5c .cfa: sp 0 +
STACK CFI 45224 .cfa: sp 32 +
STACK CFI 4522c .cfa: x29 32 + x19: .cfa -16 + ^ .ra: .cfa -24 + ^ x29: .cfa -32 + ^
STACK CFI 4526c .cfa: sp 32 +
STACK CFI 45274 .cfa: sp 0 +
STACK CFI 45278 .cfa: x29 32 +
STACK CFI INIT 4527c 1c .cfa: sp 0 +
STACK CFI INIT 45298 c .cfa: sp 0 +
STACK CFI INIT 45c18 1e8 .cfa: sp 0 +
STACK CFI 45c1c .cfa: sp 64 +
STACK CFI 45c2c .cfa: x29 48 + x19: .cfa -8 + ^ x20: .cfa -16 + ^ x21: .cfa -32 + ^ .ra: .cfa -40 + ^ x29: .cfa -48 + ^
STACK CFI 45de8 .cfa: sp 64 +
STACK CFI 45df8 .cfa: sp 0 +
STACK CFI 45dfc .cfa: x29 48 +
STACK CFI INIT 45e00 24 .cfa: sp 0 +
STACK CFI 45e04 .cfa: sp 32 +
STACK CFI 45e0c .cfa: x29 32 + x19: .cfa -16 + ^ .ra: .cfa -24 + ^ x29: .cfa -32 + ^
STACK CFI 45e18 .cfa: sp 32 +
STACK CFI 45e20 .cfa: sp 0 +
STACK CFI INIT 45e24 8 .cfa: sp 0 +
STACK CFI INIT 45e2c 28 .cfa: sp 0 +
STACK CFI 45e30 .cfa: sp 32 +
STACK CFI 45e38 .cfa: x29 32 + x19: .cfa -16 + ^ .ra: .cfa -24 + ^ x29: .cfa -32 + ^
STACK CFI 45e48 .cfa: sp 32 +
STACK CFI 45e50 .cfa: sp 0 +
STACK CFI INIT 45e54 4 .cfa: sp 0 +
STACK CFI INIT 45e58 34 .cfa: sp 0 +
STACK CFI 45e5c .cfa: sp 32 +
STACK CFI 45e64 .cfa: x29 32 + x19: .cfa -16 + ^ .ra: .cfa -24 + ^ x29: .cfa -32 + ^
STACK CFI 45e80 .cfa: sp 32 +
STACK CFI 45e88 .cfa: sp 0 +
STACK CFI INIT 45e8c 14 .cfa: sp 0 +
STACK CFI INIT 45ea0 4 .cfa: sp 0 +
STACK CFI INIT 45ea4 4 .cfa: sp 0 +
STACK CFI INIT 45ea8 ec .cfa: sp 0 +
STACK CFI 45eac .cfa: sp 48 +
STACK CFI 45eb8 .cfa: x29 48 + x19: .cfa -8 + ^ x20: .cfa -16 + ^ x21: .cfa -32 + ^ .ra: .cfa -40 + ^ x29: .cfa -48 + ^
STACK CFI 45f74 .cfa: sp 48 +
STACK CFI 45f80 .cfa: sp 0 +
STACK CFI 45f84 .cfa: sp 48 +
STACK CFI 45f90 .cfa: sp 0 +
STACK CFI INIT 45f94 1c .cfa: sp 0 +
STACK CFI INIT 45fb0 c .cfa: sp 0 +
STACK CFI INIT 45fbc 4 .cfa: sp 0 +
STACK CFI INIT 45fc0 24 .cfa: sp 0 +
STACK CFI 45fc4 .cfa: sp 16 +
STACK CFI 45fc8 .cfa: x29 16 + .ra: .cfa -8 + ^ x29: .cfa -16 + ^
STACK CFI 45fdc .cfa: sp 16 +
STACK CFI 45fe0 .cfa: sp 0 +
STACK CFI INIT 45fe4 10 .cfa: sp 0 +
STACK CFI INIT 45ff4 4 .cfa: sp 0 +
STACK CFI INIT 45ff8 4 .cfa: sp 0 +
STACK CFI INIT 45ffc 34 .cfa: sp 0 +
STACK CFI 46000 .cfa: sp 16 +
STACK CFI 46004 .cfa: x29 16 + .ra: .cfa -8 + ^ x29: .cfa -16 + ^
STACK CFI 46028 .cfa: sp 16 +
STACK CFI 4602c .cfa: sp 0 +
STACK CFI INIT 46030 1c .cfa: sp 0 +
STACK CFI INIT 4604c c .cfa: sp 0 +
STACK CFI INIT 46058 4 .cfa: sp 0 +
STACK CFI INIT 4605c 24 .cfa: sp 0 +
STACK CFI 46060 .cfa: sp 16 +
STACK CFI 46064 .cfa: x29 16 + .ra: .cfa -8 + ^ x29: .cfa -16 + ^
STACK CFI 46078 .cfa: sp 16 +
STACK CFI 4607c .cfa: sp 0 +
STACK CFI INIT 46080 10 .cfa: sp 0 +
STACK CFI INIT 46090 4 .cfa: sp 0 +
STACK CFI INIT 46094 4 .cfa: sp 0 +
STACK CFI INIT 46098 34 .cfa: sp 0 +
STACK CFI 4609c .cfa: sp 16 +
STACK CFI 460a0 .cfa: x29 16 + .ra: .cfa -8 + ^ x29: .cfa -16 + ^
STACK CFI 460c4 .cfa: sp 16 +
STACK CFI 460c8 .cfa: sp 0 +
STACK CFI INIT 460cc 1c .cfa: sp 0 +
STACK CFI INIT 460e8 c .cfa: sp 0 +
STACK CFI INIT 460f4 4 .cfa: sp 0 +
STACK CFI INIT 460f8 24 .cfa: sp 0 +
STACK CFI 460fc .cfa: sp 16 +
STACK CFI 46100 .cfa: x29 16 + .ra: .cfa -8 + ^ x29: .cfa -16 + ^
STACK CFI 46114 .cfa: sp 16 +
STACK CFI 46118 .cfa: sp 0 +
STACK CFI INIT 4611c 10 .cfa: sp 0 +
STACK CFI INIT 4612c 4 .cfa: sp 0 +
STACK CFI INIT 46130 4 .cfa: sp 0 +
STACK CFI INIT 46134 34 .cfa: sp 0 +
STACK CFI 46138 .cfa: sp 16 +
STACK CFI 4613c .cfa: x29 16 + .ra: .cfa -8 + ^ x29: .cfa -16 + ^
STACK CFI 46160 .cfa: sp 16 +
STACK CFI 46164 .cfa: sp 0 +
STACK CFI INIT 46168 1c .cfa: sp 0 +
STACK CFI INIT 46184 c .cfa: sp 0 +
STACK CFI INIT 48b88 158 .cfa: sp 0 +
STACK CFI 48b8c .cfa: sp 32 +
STACK CFI 48b94 .cfa: x29 32 + x19: .cfa -8 + ^ x20: .cfa -16 + ^ .ra: .cfa -24 + ^ x29: .cfa -32 + ^
STACK CFI 48c90 .cfa: sp 32 +
STACK CFI 48c98 .cfa: sp 0 +
STACK CFI 48c9c .cfa: x29 32 +
STACK CFI 48cd4 .cfa: sp 32 +
STACK CFI 48cdc .cfa: sp 0 +
STACK CFI INIT 48ce0 74 .cfa: sp 0 +
STACK CFI INIT 49958 30 .cfa: sp 0 +
STACK CFI 4995c .cfa: sp 32 +
STACK CFI 49964 .cfa: x29 32 + x19: .cfa -16 + ^ .ra: .cfa -24 + ^ x29: .cfa -32 + ^
STACK CFI 4997c .cfa: sp 32 +
STACK CFI 49984 .cfa: sp 0 +
STACK CFI INIT 49c84 68 .cfa: sp 0 +
STACK CFI 49c88 .cfa: sp 48 +
STACK CFI 49c94 .cfa: x29 48 + x19: .cfa -8 + ^ x20: .cfa -16 + ^ x21: .cfa -32 + ^ .ra: .cfa -40 + ^ x29: .cfa -48 + ^
STACK CFI 49ccc .cfa: sp 48 +
STACK CFI 49cd8 .cfa: sp 0 +
STACK CFI 49cdc .cfa: sp 48 +
STACK CFI 49ce8 .cfa: sp 0 +
STACK CFI INIT 4a11c 7c .cfa: sp 0 +
STACK CFI 4a120 .cfa: sp 32 +
STACK CFI 4a128 .cfa: x29 32 + x19: .cfa -16 + ^ .ra: .cfa -24 + ^ x29: .cfa -32 + ^
STACK CFI 4a17c .cfa: sp 32 +
STACK CFI 4a184 .cfa: sp 0 +
STACK CFI 4a188 .cfa: x29 32 +
STACK CFI 4a18c .cfa: sp 32 +
STACK CFI 4a194 .cfa: sp 0 +
STACK CFI INIT 4a198 7c .cfa: sp 0 +
STACK CFI 4a19c .cfa: sp 32 +
STACK CFI 4a1a4 .cfa: x29 32 + x19: .cfa -16 + ^ .ra: .cfa -24 + ^ x29: .cfa -32 + ^
STACK CFI 4a1f8 .cfa: sp 32 +
STACK CFI 4a200 .cfa: sp 0 +
STACK CFI 4a204 .cfa: x29 32 +
STACK CFI 4a208 .cfa: sp 32 +
STACK CFI 4a210 .cfa: sp 0 +
STACK CFI INIT 4a214 7c .cfa: sp 0 +
STACK CFI 4a218 .cfa: sp 32 +
STACK CFI 4a220 .cfa: x29 32 + x19: .cfa -16 + ^ .ra: .cfa -24 + ^ x29: .cfa -32 + ^
STACK CFI 4a274 .cfa: sp 32 +
STACK CFI 4a27c .cfa: sp 0 +
STACK CFI 4a280 .cfa: x29 32 +
STACK CFI 4a284 .cfa: sp 32 +
STACK CFI 4a28c .cfa: sp 0 +
STACK CFI INIT 4a290 7c .cfa: sp 0 +
STACK CFI 4a294 .cfa: sp 32 +
STACK CFI 4a29c .cfa: x29 32 + x19: .cfa -16 + ^ .ra: .cfa -24 + ^ x29: .cfa -32 + ^
STACK CFI 4a2f0 .cfa: sp 32 +
STACK CFI 4a2f8 .cfa: sp 0 +
STACK CFI 4a2fc .cfa: x29 32 +
STACK CFI 4a300 .cfa: sp 32 +
STACK CFI 4a308 .cfa: sp 0 +
STACK CFI INIT 4a30c 7c .cfa: sp 0 +
STACK CFI 4a310 .cfa: sp 32 +
STACK CFI 4a318 .cfa: x29 32 + x19: .cfa -16 + ^ .ra: .cfa -24 + ^ x29: .cfa -32 + ^
STACK CFI 4a36c .cfa: sp 32 +
STACK CFI 4a374 .cfa: sp 0 +
STACK CFI 4a378 .cfa: x29 32 +
STACK CFI 4a37c .cfa: sp 32 +
STACK CFI 4a384 .cfa: sp 0 +
STACK CFI INIT 4a4d4 a8 .cfa: sp 0 +
STACK CFI 4a4d8 .cfa: sp 48 +
STACK CFI 4a4e4 .cfa: x29 48 + x19: .cfa -8 + ^ x20: .cfa -16 + ^ x21: .cfa -32 + ^ .ra: .cfa -40 + ^ x29: .cfa -48 + ^
STACK CFI 4a55c .cfa: sp 48 +
STACK CFI 4a568 .cfa: sp 0 +
STACK CFI 4a56c .cfa: sp 48 +
STACK CFI 4a578 .cfa: sp 0 +
STACK CFI INIT 4a57c 3fc .cfa: sp 0 +
STACK CFI 4a580 .cfa: sp 96 +
STACK CFI 4a594 .cfa: x29 64 + x19: .cfa -8 + ^ x20: .cfa -16 + ^ x21: .cfa -24 + ^ x22: .cfa -32 + ^ x23: .cfa -48 + ^ .ra: .cfa -56 + ^ x29: .cfa -64 + ^
STACK CFI 4a95c .cfa: sp 96 +
STACK CFI 4a970 .cfa: sp 0 +
STACK CFI 4a974 .cfa: x29 64 +
STACK CFI INIT 4a978 ac .cfa: sp 0 +
STACK CFI 4a988 .cfa: sp 32 +
STACK CFI 4a990 .cfa: x29 32 + x19: .cfa -8 + ^ x20: .cfa -16 + ^ .ra: .cfa -24 + ^ x29: .cfa -32 + ^
STACK CFI 4aa18 .cfa: sp 32 +
STACK CFI 4aa20 .cfa: sp 0 +
STACK CFI INIT 4aa24 14 .cfa: sp 0 +
STACK CFI 4aa28 .cfa: sp 16 +
STACK CFI 4aa2c .cfa: x29 16 + .ra: .cfa -8 + ^ x29: .cfa -16 + ^
STACK CFI INIT 4aa38 d0 .cfa: sp 0 +
STACK CFI 4aa3c .cfa: sp 48 +
STACK CFI 4aa48 .cfa: x29 48 + x19: .cfa -8 + ^ x20: .cfa -16 + ^ x21: .cfa -24 + ^ x22: .cfa -32 + ^ .ra: .cfa -40 + ^ x29: .cfa -48 + ^
STACK CFI 4aae8 .cfa: sp 48 +
STACK CFI 4aaf4 .cfa: sp 0 +
STACK CFI 4aaf8 .cfa: sp 48 +
STACK CFI 4ab04 .cfa: sp 0 +
STACK CFI INIT 4ab08 4 .cfa: sp 0 +
STACK CFI INIT 4ab0c 14 .cfa: sp 0 +
STACK CFI INIT 4ac38 7c .cfa: sp 0 +
STACK CFI 4ac3c .cfa: sp 48 +
STACK CFI 4ac48 .cfa: x29 48 + x19: .cfa -8 + ^ x20: .cfa -16 + ^ x21: .cfa -24 + ^ x22: .cfa -32 + ^ .ra: .cfa -40 + ^ x29: .cfa -48 + ^
STACK CFI 4ac50 .cfa: sp 48 +
STACK CFI 4ac5c .cfa: sp 0 +
STACK CFI 4ac60 .cfa: x29 48 +
STACK CFI 4aca4 .cfa: sp 48 +
STACK CFI 4acb0 .cfa: sp 0 +
STACK CFI INIT 4acb4 14 .cfa: sp 0 +
STACK CFI 4acb8 .cfa: sp 16 +
STACK CFI 4acbc .cfa: x29 16 + .ra: .cfa -8 + ^ x29: .cfa -16 + ^
STACK CFI INIT 4acc8 4 .cfa: sp 0 +
STACK CFI INIT 4accc 14 .cfa: sp 0 +
STACK CFI INIT 4ace0 14 .cfa: sp 0 +
STACK CFI INIT 4acf4 14 .cfa: sp 0 +
STACK CFI INIT 4ad08 4 .cfa: sp 0 +
STACK CFI INIT 4ad0c 14 .cfa: sp 0 +
STACK CFI INIT 4ad20 24 .cfa: sp 0 +
STACK CFI 4ad24 .cfa: sp 32 +
STACK CFI 4ad2c .cfa: x29 32 + x19: .cfa -16 + ^ .ra: .cfa -24 + ^ x29: .cfa -32 + ^
STACK CFI 4ad38 .cfa: sp 32 +
STACK CFI 4ad40 .cfa: sp 0 +
STACK CFI INIT 4ad44 98 .cfa: sp 0 +
STACK CFI 4ad48 .cfa: sp 64 +
STACK CFI 4ad54 .cfa: x29 32 + x19: .cfa -8 + ^ x20: .cfa -16 + ^ .ra: .cfa -24 + ^ x29: .cfa -32 + ^
STACK CFI 4adc8 .cfa: sp 64 +
STACK CFI 4add4 .cfa: sp 0 +
STACK CFI 4add8 .cfa: x29 32 +
STACK CFI INIT 4addc 50 .cfa: sp 0 +
STACK CFI 4ade0 .cfa: sp 32 +
STACK CFI 4ade8 .cfa: x29 32 + x19: .cfa -16 + ^ .ra: .cfa -24 + ^ x29: .cfa -32 + ^
STACK CFI 4ae00 .cfa: sp 32 +
STACK CFI 4ae08 .cfa: sp 0 +
STACK CFI 4ae0c .cfa: x29 32 +
STACK CFI 4ae20 .cfa: sp 32 +
STACK CFI 4ae28 .cfa: sp 0 +
STACK CFI INIT 4ae2c 88 .cfa: sp 0 +
STACK CFI 4ae30 .cfa: sp 32 +
STACK CFI 4ae38 .cfa: x29 32 + x19: .cfa -16 + ^ .ra: .cfa -24 + ^ x29: .cfa -32 + ^
STACK CFI 4ae98 .cfa: sp 32 +
STACK CFI 4aea0 .cfa: sp 0 +
STACK CFI 4aea4 .cfa: x29 32 +
STACK CFI 4aea8 .cfa: sp 32 +
STACK CFI 4aeb0 .cfa: sp 0 +
STACK CFI INIT 4aeb4 84 .cfa: sp 0 +
STACK CFI 4aeb8 .cfa: sp 32 +
STACK CFI 4aec0 .cfa: x29 32 + x19: .cfa -16 + ^ .ra: .cfa -24 + ^ x29: .cfa -32 + ^
STACK CFI 4af2c .cfa: sp 32 +
STACK CFI 4af34 .cfa: sp 0 +
STACK CFI INIT 4af98 28 .cfa: sp 0 +
STACK CFI INIT 4afc0 7c .cfa: sp 0 +
STACK CFI 4afc4 .cfa: sp 32 +
STACK CFI 4afcc .cfa: x29 32 + x19: .cfa -16 + ^ .ra: .cfa -24 + ^ x29: .cfa -32 + ^
STACK CFI 4b020 .cfa: sp 32 +
STACK CFI 4b028 .cfa: sp 0 +
STACK CFI 4b02c .cfa: x29 32 +
STACK CFI 4b030 .cfa: sp 32 +
STACK CFI 4b038 .cfa: sp 0 +
STACK CFI INIT 4b03c 78 .cfa: sp 0 +
STACK CFI 4b040 .cfa: sp 32 +
STACK CFI 4b048 .cfa: x29 32 + x19: .cfa -16 + ^ .ra: .cfa -24 + ^ x29: .cfa -32 + ^
STACK CFI 4b0a8 .cfa: sp 32 +
STACK CFI 4b0b0 .cfa: sp 0 +
STACK CFI INIT 4b1c0 1c .cfa: sp 0 +
STACK CFI INIT 4b1dc c .cfa: sp 0 +
STACK CFI INIT 4b1e8 88 .cfa: sp 0 +
STACK CFI 4b1ec .cfa: sp 32 +
STACK CFI 4b1f4 .cfa: x29 32 + x19: .cfa -16 + ^ .ra: .cfa -24 + ^ x29: .cfa -32 + ^
STACK CFI 4b254 .cfa: sp 32 +
STACK CFI 4b25c .cfa: sp 0 +
STACK CFI 4b260 .cfa: x29 32 +
STACK CFI 4b264 .cfa: sp 32 +
STACK CFI 4b26c .cfa: sp 0 +
STACK CFI INIT 4b270 84 .cfa: sp 0 +
STACK CFI 4b274 .cfa: sp 32 +
STACK CFI 4b27c .cfa: x29 32 + x19: .cfa -16 + ^ .ra: .cfa -24 + ^ x29: .cfa -32 + ^
STACK CFI 4b2e8 .cfa: sp 32 +
STACK CFI 4b2f0 .cfa: sp 0 +
STACK CFI INIT 4b348 1c .cfa: sp 0 +
STACK CFI INIT 4b364 7c .cfa: sp 0 +
STACK CFI 4b368 .cfa: sp 32 +
STACK CFI 4b370 .cfa: x29 32 + x19: .cfa -16 + ^ .ra: .cfa -24 + ^ x29: .cfa -32 + ^
STACK CFI 4b3c4 .cfa: sp 32 +
STACK CFI 4b3cc .cfa: sp 0 +
STACK CFI 4b3d0 .cfa: x29 32 +
STACK CFI 4b3d4 .cfa: sp 32 +
STACK CFI 4b3dc .cfa: sp 0 +
STACK CFI INIT 4b3e0 78 .cfa: sp 0 +
STACK CFI 4b3e4 .cfa: sp 32 +
STACK CFI 4b3ec .cfa: x29 32 + x19: .cfa -16 + ^ .ra: .cfa -24 + ^ x29: .cfa -32 + ^
STACK CFI 4b44c .cfa: sp 32 +
STACK CFI 4b454 .cfa: sp 0 +
STACK CFI INIT 4b500 1c .cfa: sp 0 +
STACK CFI INIT 4b51c c .cfa: sp 0 +
STACK CFI INIT 4b528 88 .cfa: sp 0 +
STACK CFI 4b52c .cfa: sp 32 +
STACK CFI 4b534 .cfa: x29 32 + x19: .cfa -16 + ^ .ra: .cfa -24 + ^ x29: .cfa -32 + ^
STACK CFI 4b594 .cfa: sp 32 +
STACK CFI 4b59c .cfa: sp 0 +
STACK CFI 4b5a0 .cfa: x29 32 +
STACK CFI 4b5a4 .cfa: sp 32 +
STACK CFI 4b5ac .cfa: sp 0 +
STACK CFI INIT 4b5b0 84 .cfa: sp 0 +
STACK CFI 4b5b4 .cfa: sp 32 +
STACK CFI 4b5bc .cfa: x29 32 + x19: .cfa -16 + ^ .ra: .cfa -24 + ^ x29: .cfa -32 + ^
STACK CFI 4b628 .cfa: sp 32 +
STACK CFI 4b630 .cfa: sp 0 +
STACK CFI INIT 4b690 40 .cfa: sp 0 +
STACK CFI 4b694 .cfa: sp 32 +
STACK CFI 4b69c .cfa: x29 32 + x19: .cfa -8 + ^ x20: .cfa -16 + ^ .ra: .cfa -24 + ^ x29: .cfa -32 + ^
STACK CFI 4b6c4 .cfa: sp 32 +
STACK CFI 4b6cc .cfa: sp 0 +
STACK CFI INIT 4b6d0 7c .cfa: sp 0 +
STACK CFI 4b6d4 .cfa: sp 32 +
STACK CFI 4b6dc .cfa: x29 32 + x19: .cfa -16 + ^ .ra: .cfa -24 + ^ x29: .cfa -32 + ^
STACK CFI 4b730 .cfa: sp 32 +
STACK CFI 4b738 .cfa: sp 0 +
STACK CFI 4b73c .cfa: x29 32 +
STACK CFI 4b740 .cfa: sp 32 +
STACK CFI 4b748 .cfa: sp 0 +
STACK CFI INIT 4b74c 78 .cfa: sp 0 +
STACK CFI 4b750 .cfa: sp 32 +
STACK CFI 4b758 .cfa: x29 32 + x19: .cfa -16 + ^ .ra: .cfa -24 + ^ x29: .cfa -32 + ^
STACK CFI 4b7b8 .cfa: sp 32 +
STACK CFI 4b7c0 .cfa: sp 0 +
STACK CFI INIT 4b990 1c .cfa: sp 0 +
STACK CFI INIT 4b9ac c .cfa: sp 0 +
STACK CFI INIT 4b9b8 88 .cfa: sp 0 +
STACK CFI 4b9bc .cfa: sp 32 +
STACK CFI 4b9c4 .cfa: x29 32 + x19: .cfa -16 + ^ .ra: .cfa -24 + ^ x29: .cfa -32 + ^
STACK CFI 4ba24 .cfa: sp 32 +
STACK CFI 4ba2c .cfa: sp 0 +
STACK CFI 4ba30 .cfa: x29 32 +
STACK CFI 4ba34 .cfa: sp 32 +
STACK CFI 4ba3c .cfa: sp 0 +
STACK CFI INIT 4ba40 84 .cfa: sp 0 +
STACK CFI 4ba44 .cfa: sp 32 +
STACK CFI 4ba4c .cfa: x29 32 + x19: .cfa -16 + ^ .ra: .cfa -24 + ^ x29: .cfa -32 + ^
STACK CFI 4bab8 .cfa: sp 32 +
STACK CFI 4bac0 .cfa: sp 0 +
STACK CFI INIT 4bb2c 48 .cfa: sp 0 +
STACK CFI 4bb30 .cfa: sp 32 +
STACK CFI 4bb38 .cfa: x29 32 + x19: .cfa -8 + ^ x20: .cfa -16 + ^ .ra: .cfa -24 + ^ x29: .cfa -32 + ^
STACK CFI 4bb68 .cfa: sp 32 +
STACK CFI 4bb70 .cfa: sp 0 +
STACK CFI INIT 4bb74 7c .cfa: sp 0 +
STACK CFI 4bb78 .cfa: sp 32 +
STACK CFI 4bb80 .cfa: x29 32 + x19: .cfa -16 + ^ .ra: .cfa -24 + ^ x29: .cfa -32 + ^
STACK CFI 4bbd4 .cfa: sp 32 +
STACK CFI 4bbdc .cfa: sp 0 +
STACK CFI 4bbe0 .cfa: x29 32 +
STACK CFI 4bbe4 .cfa: sp 32 +
STACK CFI 4bbec .cfa: sp 0 +
STACK CFI INIT 4bbf0 78 .cfa: sp 0 +
STACK CFI 4bbf4 .cfa: sp 32 +
STACK CFI 4bbfc .cfa: x29 32 + x19: .cfa -16 + ^ .ra: .cfa -24 + ^ x29: .cfa -32 + ^
STACK CFI 4bc5c .cfa: sp 32 +
STACK CFI 4bc64 .cfa: sp 0 +
STACK CFI INIT 4bd7c 1c .cfa: sp 0 +
STACK CFI INIT 4bd98 c .cfa: sp 0 +
STACK CFI INIT 4bda4 b4 .cfa: sp 0 +
STACK CFI 4bda8 .cfa: sp 48 +
STACK CFI 4bdb4 .cfa: x29 48 + x19: .cfa -8 + ^ x20: .cfa -16 + ^ x21: .cfa -32 + ^ .ra: .cfa -40 + ^ x29: .cfa -48 + ^
STACK CFI 4be38 .cfa: sp 48 +
STACK CFI 4be44 .cfa: sp 0 +
STACK CFI 4be48 .cfa: sp 48 +
STACK CFI 4be54 .cfa: sp 0 +
STACK CFI INIT 4be58 ac .cfa: sp 0 +
STACK CFI 4be5c .cfa: sp 48 +
STACK CFI 4be68 .cfa: x29 48 + x19: .cfa -8 + ^ x20: .cfa -16 + ^ x21: .cfa -32 + ^ .ra: .cfa -40 + ^ x29: .cfa -48 + ^
STACK CFI 4bef4 .cfa: sp 48 +
STACK CFI 4bf00 .cfa: sp 0 +
STACK CFI INIT 4c16c a8 .cfa: sp 0 +
STACK CFI 4c170 .cfa: sp 48 +
STACK CFI 4c17c .cfa: x29 48 + x19: .cfa -8 + ^ x20: .cfa -16 + ^ x21: .cfa -32 + ^ .ra: .cfa -40 + ^ x29: .cfa -48 + ^
STACK CFI 4c1f4 .cfa: sp 48 +
STACK CFI 4c200 .cfa: sp 0 +
STACK CFI 4c204 .cfa: sp 48 +
STACK CFI 4c210 .cfa: sp 0 +
STACK CFI INIT 4c214 a0 .cfa: sp 0 +
STACK CFI 4c218 .cfa: sp 48 +
STACK CFI 4c224 .cfa: x29 48 + x19: .cfa -8 + ^ x20: .cfa -16 + ^ x21: .cfa -32 + ^ .ra: .cfa -40 + ^ x29: .cfa -48 + ^
STACK CFI 4c2a4 .cfa: sp 48 +
STACK CFI 4c2b0 .cfa: sp 0 +
STACK CFI INIT 4c484 1c .cfa: sp 0 +
STACK CFI INIT 4c4a0 c .cfa: sp 0 +
STACK CFI INIT 4d160 7c .cfa: sp 0 +
STACK CFI 4d164 .cfa: sp 48 +
STACK CFI 4d170 .cfa: x29 48 + x19: .cfa -8 + ^ x20: .cfa -16 + ^ x21: .cfa -32 + ^ .ra: .cfa -40 + ^ x29: .cfa -48 + ^
STACK CFI 4d1cc .cfa: sp 48 +
STACK CFI 4d1d8 .cfa: sp 0 +
STACK CFI INIT 4d4b4 154 .cfa: sp 0 +
STACK CFI 4d4b8 .cfa: sp 64 +
STACK CFI 4d4c8 .cfa: x29 64 + x19: .cfa -8 + ^ x20: .cfa -16 + ^ x21: .cfa -24 + ^ x22: .cfa -32 + ^ x23: .cfa -48 + ^ .ra: .cfa -56 + ^ x29: .cfa -64 + ^
STACK CFI 4d5f4 .cfa: sp 64 +
STACK CFI 4d604 .cfa: sp 0 +
STACK CFI INIT 4f09c 474 .cfa: sp 0 +
STACK CFI 4f0a0 .cfa: sp 64 +
STACK CFI 4f0b0 .cfa: x29 64 + x19: .cfa -8 + ^ x20: .cfa -16 + ^ x21: .cfa -24 + ^ x22: .cfa -32 + ^ x23: .cfa -48 + ^ .ra: .cfa -56 + ^ x29: .cfa -64 + ^
STACK CFI 4f4c8 .cfa: sp 64 +
STACK CFI 4f4d8 .cfa: sp 0 +
STACK CFI 4f4dc .cfa: x29 64 +
STACK CFI INIT 4f510 294 .cfa: sp 0 +
STACK CFI 4f514 .cfa: sp 80 +
STACK CFI 4f52c .cfa: x29 56 + x19: .cfa -8 + ^ x20: .cfa -16 + ^ x21: .cfa -24 + ^ x22: .cfa -32 + ^ x23: .cfa -40 + ^ .ra: .cfa -48 + ^ x29: .cfa -56 + ^ v8: .cfa -64 + ^
STACK CFI 4f784 .cfa: sp 80 +
STACK CFI 4f79c .cfa: sp 0 +
STACK CFI 4f7a0 .cfa: x29 56 +
STACK CFI INIT 4f7a4 ac .cfa: sp 0 +
STACK CFI 4f7a8 .cfa: sp 80 +
STACK CFI 4f7b8 .cfa: x29 48 + x19: .cfa -8 + ^ x20: .cfa -16 + ^ x21: .cfa -32 + ^ .ra: .cfa -40 + ^ x29: .cfa -48 + ^
STACK CFI 4f838 .cfa: sp 80 +
STACK CFI 4f848 .cfa: sp 0 +
STACK CFI 4f84c .cfa: x29 48 +
STACK CFI INIT 4f850 c .cfa: sp 0 +
STACK CFI INIT 4f85c 268 .cfa: sp 0 +
STACK CFI 4f860 .cfa: sp 96 +
STACK CFI 4f878 .cfa: x29 64 + x19: .cfa -8 + ^ x20: .cfa -16 + ^ x21: .cfa -24 + ^ x22: .cfa -32 + ^ x23: .cfa -40 + ^ x24: .cfa -48 + ^ .ra: .cfa -56 + ^ x29: .cfa -64 + ^ v8: .cfa -80 + ^
STACK CFI 4faa4 .cfa: sp 96 +
STACK CFI 4fabc .cfa: sp 0 +
STACK CFI 4fac0 .cfa: x29 64 +
STACK CFI INIT 50440 18c .cfa: sp 0 +
STACK CFI 50444 .cfa: sp 48 +
STACK CFI 50450 .cfa: x29 48 + x19: .cfa -8 + ^ x20: .cfa -16 + ^ x21: .cfa -32 + ^ .ra: .cfa -40 + ^ x29: .cfa -48 + ^
STACK CFI 505bc .cfa: sp 48 +
STACK CFI 505c8 .cfa: sp 0 +
STACK CFI INIT 50ab4 b0 .cfa: sp 0 +
STACK CFI 50ab8 .cfa: sp 48 +
STACK CFI 50ac4 .cfa: x29 48 + x19: .cfa -8 + ^ x20: .cfa -16 + ^ x21: .cfa -32 + ^ .ra: .cfa -40 + ^ x29: .cfa -48 + ^
STACK CFI 50b54 .cfa: sp 48 +
STACK CFI 50b60 .cfa: sp 0 +
STACK CFI INIT 50b64 b8 .cfa: sp 0 +
STACK CFI 50b68 .cfa: sp 48 +
STACK CFI 50b74 .cfa: x29 48 + x19: .cfa -8 + ^ x20: .cfa -16 + ^ x21: .cfa -32 + ^ .ra: .cfa -40 + ^ x29: .cfa -48 + ^
STACK CFI 50c0c .cfa: sp 48 +
STACK CFI 50c18 .cfa: sp 0 +
STACK CFI INIT 50c1c b4 .cfa: sp 0 +
STACK CFI 50c20 .cfa: sp 48 +
STACK CFI 50c2c .cfa: x29 48 + x19: .cfa -8 + ^ x20: .cfa -16 + ^ x21: .cfa -24 + ^ x22: .cfa -32 + ^ .ra: .cfa -40 + ^ x29: .cfa -48 + ^
STACK CFI 50cc0 .cfa: sp 48 +
STACK CFI 50ccc .cfa: sp 0 +
STACK CFI INIT 50cd0 bc .cfa: sp 0 +
STACK CFI 50cd4 .cfa: sp 48 +
STACK CFI 50ce0 .cfa: x29 48 + x19: .cfa -8 + ^ x20: .cfa -16 + ^ x21: .cfa -24 + ^ x22: .cfa -32 + ^ .ra: .cfa -40 + ^ x29: .cfa -48 + ^
STACK CFI 50d7c .cfa: sp 48 +
STACK CFI 50d88 .cfa: sp 0 +
STACK CFI INIT 50d8c 14 .cfa: sp 0 +
STACK CFI 50d90 .cfa: sp 16 +
STACK CFI 50d94 .cfa: x29 16 + .ra: .cfa -8 + ^ x29: .cfa -16 + ^
STACK CFI INIT 50da0 10 .cfa: sp 0 +
STACK CFI INIT 50db0 628 .cfa: sp 0 +
STACK CFI 50db4 .cfa: sp 352 +
STACK CFI 50dd0 .cfa: x29 96 + x19: .cfa -8 + ^ x20: .cfa -16 + ^ x21: .cfa -24 + ^ x22: .cfa -32 + ^ x23: .cfa -40 + ^ x24: .cfa -48 + ^ x25: .cfa -56 + ^ x26: .cfa -64 + ^ x27: .cfa -72 + ^ x28: .cfa -80 + ^ .ra: .cfa -88 + ^ x29: .cfa -96 + ^
STACK CFI 51388 .cfa: sp 352 +
STACK CFI 513a4 .cfa: sp 0 +
STACK CFI 513a8 .cfa: x29 96 +
STACK CFI INIT 513d8 4a4 .cfa: sp 0 +
STACK CFI 513dc .cfa: sp 96 +
STACK CFI 513f4 .cfa: x29 96 + x19: .cfa -8 + ^ x20: .cfa -16 + ^ x21: .cfa -24 + ^ x22: .cfa -32 + ^ x23: .cfa -40 + ^ x24: .cfa -48 + ^ x25: .cfa -56 + ^ x26: .cfa -64 + ^ x27: .cfa -72 + ^ x28: .cfa -80 + ^ .ra: .cfa -88 + ^ x29: .cfa -96 + ^
STACK CFI 5182c .cfa: sp 96 +
STACK CFI 51844 .cfa: sp 0 +
STACK CFI 51848 .cfa: x29 96 +
STACK CFI INIT 5187c 1a4 .cfa: sp 0 +
STACK CFI 51880 .cfa: sp 64 +
STACK CFI 5188c .cfa: x29 32 + x19: .cfa -8 + ^ x20: .cfa -16 + ^ .ra: .cfa -24 + ^ x29: .cfa -32 + ^
STACK CFI 519b8 .cfa: sp 64 +
STACK CFI 519c4 .cfa: sp 0 +
STACK CFI 519c8 .cfa: x29 32 +
STACK CFI INIT 51a20 17c .cfa: sp 0 +
STACK CFI 51a24 .cfa: sp 16 +
STACK CFI 51a28 .cfa: x29 16 + .ra: .cfa -8 + ^ x29: .cfa -16 + ^
STACK CFI 51b7c .cfa: sp 16 +
STACK CFI 51b80 .cfa: sp 0 +
STACK CFI 51b84 .cfa: x29 16 +
STACK CFI INIT 51b9c 114 .cfa: sp 0 +
STACK CFI 51ba0 .cfa: sp 128 +
STACK CFI 51bb0 .cfa: x29 48 + x19: .cfa -8 + ^ x20: .cfa -16 + ^ x21: .cfa -32 + ^ .ra: .cfa -40 + ^ x29: .cfa -48 + ^
STACK CFI 51c7c .cfa: sp 128 +
STACK CFI 51c8c .cfa: sp 0 +
STACK CFI 51c90 .cfa: x29 48 +
STACK CFI INIT 51cb0 114 .cfa: sp 0 +
STACK CFI 51cb4 .cfa: sp 128 +
STACK CFI 51cc4 .cfa: x29 48 + x19: .cfa -8 + ^ x20: .cfa -16 + ^ x21: .cfa -32 + ^ .ra: .cfa -40 + ^ x29: .cfa -48 + ^
STACK CFI 51d90 .cfa: sp 128 +
STACK CFI 51da0 .cfa: sp 0 +
STACK CFI 51da4 .cfa: x29 48 +
STACK CFI INIT 51dc4 27c .cfa: sp 0 +
STACK CFI 51dc8 .cfa: sp 176 +
STACK CFI 51de4 .cfa: x29 96 + x19: .cfa -8 + ^ x20: .cfa -16 + ^ x21: .cfa -24 + ^ x22: .cfa -32 + ^ x23: .cfa -40 + ^ x24: .cfa -48 + ^ x25: .cfa -56 + ^ x26: .cfa -64 + ^ x27: .cfa -72 + ^ x28: .cfa -80 + ^ .ra: .cfa -88 + ^ x29: .cfa -96 + ^
STACK CFI 5201c .cfa: sp 176 +
STACK CFI 52038 .cfa: sp 0 +
STACK CFI 5203c .cfa: x29 96 +
STACK CFI INIT 52040 200 .cfa: sp 0 +
STACK CFI 52044 .cfa: sp 144 +
STACK CFI 52060 .cfa: x29 96 + x19: .cfa -8 + ^ x20: .cfa -16 + ^ x21: .cfa -24 + ^ x22: .cfa -32 + ^ x23: .cfa -40 + ^ x24: .cfa -48 + ^ x25: .cfa -56 + ^ x26: .cfa -64 + ^ x27: .cfa -72 + ^ x28: .cfa -80 + ^ .ra: .cfa -88 + ^ x29: .cfa -96 + ^
STACK CFI 5221c .cfa: sp 144 +
STACK CFI 52238 .cfa: sp 0 +
STACK CFI 5223c .cfa: x29 96 +
STACK CFI INIT 52240 20c .cfa: sp 0 +
STACK CFI 52244 .cfa: sp 80 +
STACK CFI 52258 .cfa: x29 80 + x19: .cfa -8 + ^ x20: .cfa -16 + ^ x21: .cfa -24 + ^ x22: .cfa -32 + ^ x23: .cfa -40 + ^ x24: .cfa -48 + ^ x25: .cfa -64 + ^ .ra: .cfa -72 + ^ x29: .cfa -80 + ^
STACK CFI 522e8 .cfa: sp 80 +
STACK CFI 522fc .cfa: sp 0 +
STACK CFI 52300 .cfa: x29 80 +
STACK CFI 5230c .cfa: sp 80 +
STACK CFI 52320 .cfa: sp 0 +
STACK CFI 52324 .cfa: x29 80 +
STACK CFI INIT 5244c 3ac .cfa: sp 0 +
STACK CFI 52450 .cfa: sp 128 +
STACK CFI 5246c .cfa: x29 96 + x19: .cfa -8 + ^ x20: .cfa -16 + ^ x21: .cfa -24 + ^ x22: .cfa -32 + ^ x23: .cfa -40 + ^ x24: .cfa -48 + ^ x25: .cfa -56 + ^ x26: .cfa -64 + ^ x27: .cfa -72 + ^ x28: .cfa -80 + ^ .ra: .cfa -88 + ^ x29: .cfa -96 + ^
STACK CFI 527d4 .cfa: sp 128 +
STACK CFI 527f0 .cfa: sp 0 +
STACK CFI 527f4 .cfa: x29 96 +
STACK CFI INIT 527f8 194 .cfa: sp 0 +
STACK CFI 527fc .cfa: sp 32 +
STACK CFI 52804 .cfa: x29 16 + .ra: .cfa -8 + ^ x29: .cfa -16 + ^
STACK CFI 52848 .cfa: sp 32 +
STACK CFI 52850 .cfa: sp 0 +
STACK CFI 52854 .cfa: x29 16 +
STACK CFI INIT 5298c 17c .cfa: sp 0 +
STACK CFI 52990 .cfa: sp 80 +
STACK CFI 529a4 .cfa: x29 80 + x19: .cfa -8 + ^ x20: .cfa -16 + ^ x21: .cfa -24 + ^ x22: .cfa -32 + ^ x23: .cfa -40 + ^ x24: .cfa -48 + ^ x25: .cfa -64 + ^ .ra: .cfa -72 + ^ x29: .cfa -80 + ^
STACK CFI 52aac .cfa: sp 80 +
STACK CFI 52ac0 .cfa: sp 0 +
STACK CFI 52ac4 .cfa: x29 80 +
STACK CFI INIT 52b08 1b8 .cfa: sp 0 +
STACK CFI INIT 52cc0 1d0 .cfa: sp 0 +
STACK CFI 52cc4 .cfa: sp 80 +
STACK CFI 52cd8 .cfa: x29 80 + x19: .cfa -8 + ^ x20: .cfa -16 + ^ x21: .cfa -24 + ^ x22: .cfa -32 + ^ x23: .cfa -40 + ^ x24: .cfa -48 + ^ x25: .cfa -56 + ^ x26: .cfa -64 + ^ .ra: .cfa -72 + ^ x29: .cfa -80 + ^
STACK CFI 52e78 .cfa: sp 80 +
STACK CFI 52e8c .cfa: sp 0 +
STACK CFI INIT 52e90 380 .cfa: sp 0 +
STACK CFI 52e94 .cfa: sp 144 +
STACK CFI 52eb0 .cfa: x29 96 + x19: .cfa -8 + ^ x20: .cfa -16 + ^ x21: .cfa -24 + ^ x22: .cfa -32 + ^ x23: .cfa -40 + ^ x24: .cfa -48 + ^ x25: .cfa -56 + ^ x26: .cfa -64 + ^ x27: .cfa -72 + ^ x28: .cfa -80 + ^ .ra: .cfa -88 + ^ x29: .cfa -96 + ^
STACK CFI 531ec .cfa: sp 144 +
STACK CFI 53208 .cfa: sp 0 +
STACK CFI 5320c .cfa: x29 96 +
STACK CFI INIT 53210 1e4 .cfa: sp 0 +
STACK CFI 53214 .cfa: sp 32 +
STACK CFI 5321c .cfa: x29 32 + x19: .cfa -8 + ^ x20: .cfa -16 + ^ .ra: .cfa -24 + ^ x29: .cfa -32 + ^
STACK CFI 5330c .cfa: sp 32 +
STACK CFI 53314 .cfa: sp 0 +
STACK CFI 53318 .cfa: x29 32 +
STACK CFI 5338c .cfa: sp 32 +
STACK CFI 53394 .cfa: sp 0 +
STACK CFI 53398 .cfa: x29 32 +
STACK CFI 533a8 .cfa: sp 32 +
STACK CFI 533b0 .cfa: sp 0 +
STACK CFI 533b4 .cfa: x29 32 +
STACK CFI 533c4 .cfa: sp 32 +
STACK CFI 533cc .cfa: sp 0 +
STACK CFI 533d0 .cfa: x29 32 +
STACK CFI INIT 533f4 178 .cfa: sp 0 +
STACK CFI 533f8 .cfa: sp 80 +
STACK CFI 5340c .cfa: x29 64 + x19: .cfa -8 + ^ x20: .cfa -16 + ^ x21: .cfa -24 + ^ x22: .cfa -32 + ^ x23: .cfa -40 + ^ x24: .cfa -48 + ^ .ra: .cfa -56 + ^ x29: .cfa -64 + ^
STACK CFI 53550 .cfa: sp 80 +
STACK CFI 53564 .cfa: sp 0 +
STACK CFI 53568 .cfa: x29 64 +
STACK CFI INIT 5356c 178 .cfa: sp 0 +
STACK CFI 53570 .cfa: sp 80 +
STACK CFI 53584 .cfa: x29 64 + x19: .cfa -8 + ^ x20: .cfa -16 + ^ x21: .cfa -24 + ^ x22: .cfa -32 + ^ x23: .cfa -40 + ^ x24: .cfa -48 + ^ .ra: .cfa -56 + ^ x29: .cfa -64 + ^
STACK CFI 536c8 .cfa: sp 80 +
STACK CFI 536dc .cfa: sp 0 +
STACK CFI 536e0 .cfa: x29 64 +
STACK CFI INIT 536e4 178 .cfa: sp 0 +
STACK CFI 536e8 .cfa: sp 80 +
STACK CFI 536fc .cfa: x29 64 + x19: .cfa -8 + ^ x20: .cfa -16 + ^ x21: .cfa -24 + ^ x22: .cfa -32 + ^ x23: .cfa -40 + ^ x24: .cfa -48 + ^ .ra: .cfa -56 + ^ x29: .cfa -64 + ^
STACK CFI 53840 .cfa: sp 80 +
STACK CFI 53854 .cfa: sp 0 +
STACK CFI 53858 .cfa: x29 64 +
STACK CFI INIT 5385c 94 .cfa: sp 0 +
STACK CFI 53860 .cfa: sp 16 +
STACK CFI 53864 .cfa: x29 16 + .ra: .cfa -8 + ^ x29: .cfa -16 + ^
STACK CFI 538b8 .cfa: sp 16 +
STACK CFI 538bc .cfa: sp 0 +
STACK CFI 538c0 .cfa: x29 16 +
STACK CFI INIT 538f0 158 .cfa: sp 0 +
STACK CFI 538f4 .cfa: sp 112 +
STACK CFI 53910 .cfa: x29 96 + x19: .cfa -8 + ^ x20: .cfa -16 + ^ x21: .cfa -24 + ^ x22: .cfa -32 + ^ x23: .cfa -40 + ^ x24: .cfa -48 + ^ x25: .cfa -56 + ^ x26: .cfa -64 + ^ x27: .cfa -72 + ^ x28: .cfa -80 + ^ .ra: .cfa -88 + ^ x29: .cfa -96 + ^
STACK CFI 539f8 .cfa: sp 112 +
STACK CFI 539fc .cfa: x29 96 +
STACK CFI 53a04 .cfa: sp 112 +
STACK CFI 53a20 .cfa: sp 0 +
STACK CFI 53a24 .cfa: x29 96 +
STACK CFI 53a44 .cfa: sp 112 +
STACK CFI INIT 53a48 94 .cfa: sp 0 +
STACK CFI 53a4c .cfa: sp 16 +
STACK CFI 53a50 .cfa: x29 16 + .ra: .cfa -8 + ^ x29: .cfa -16 + ^
STACK CFI 53aa4 .cfa: sp 16 +
STACK CFI 53aa8 .cfa: sp 0 +
STACK CFI 53aac .cfa: x29 16 +
STACK CFI INIT 53adc 4 .cfa: sp 0 +
STACK CFI INIT 53ae0 38 .cfa: sp 0 +
STACK CFI 53ae4 .cfa: sp 32 +
STACK CFI 53aec .cfa: x29 32 + x19: .cfa -16 + ^ .ra: .cfa -24 + ^ x29: .cfa -32 + ^
STACK CFI 53b0c .cfa: sp 32 +
STACK CFI 53b14 .cfa: sp 0 +
STACK CFI INIT 53b18 18 .cfa: sp 0 +
STACK CFI INIT 53b30 4 .cfa: sp 0 +
STACK CFI INIT 53b34 4 .cfa: sp 0 +
STACK CFI INIT 53d54 1c .cfa: sp 0 +
STACK CFI INIT 53d70 c .cfa: sp 0 +
STACK CFI INIT 53d7c 44 .cfa: sp 0 +
STACK CFI INIT 53dc0 5c .cfa: sp 0 +
STACK CFI 53dc4 .cfa: sp 32 +
STACK CFI 53dcc .cfa: x29 32 + x19: .cfa -16 + ^ .ra: .cfa -24 + ^ x29: .cfa -32 + ^
STACK CFI 53e10 .cfa: sp 32 +
STACK CFI 53e18 .cfa: sp 0 +
STACK CFI INIT 53ea4 74 .cfa: sp 0 +
STACK CFI 53ea8 .cfa: sp 32 +
STACK CFI 53eb0 .cfa: x29 32 + x19: .cfa -16 + ^ .ra: .cfa -24 + ^ x29: .cfa -32 + ^
STACK CFI 53ef0 .cfa: sp 32 +
STACK CFI 53ef8 .cfa: sp 0 +
STACK CFI 53efc .cfa: x29 32 +
STACK CFI 53f0c .cfa: sp 32 +
STACK CFI 53f14 .cfa: sp 0 +
STACK CFI INIT 53f18 38 .cfa: sp 0 +
STACK CFI INIT 53f50 50 .cfa: sp 0 +
STACK CFI 53f54 .cfa: sp 32 +
STACK CFI 53f5c .cfa: x29 32 + x19: .cfa -16 + ^ .ra: .cfa -24 + ^ x29: .cfa -32 + ^
STACK CFI 53f94 .cfa: sp 32 +
STACK CFI 53f9c .cfa: sp 0 +
STACK CFI INIT 53fa0 74 .cfa: sp 0 +
STACK CFI 53fa4 .cfa: sp 48 +
STACK CFI 53fb0 .cfa: x29 32 + x19: .cfa -16 + ^ .ra: .cfa -24 + ^ x29: .cfa -32 + ^
STACK CFI 53fec .cfa: sp 48 +
STACK CFI 53ff8 .cfa: sp 0 +
STACK CFI 53ffc .cfa: x29 32 +
STACK CFI INIT 54014 1c .cfa: sp 0 +
STACK CFI INIT 54030 c .cfa: sp 0 +
STACK CFI INIT 5403c 4 .cfa: sp 0 +
STACK CFI INIT 54040 38 .cfa: sp 0 +
STACK CFI 54044 .cfa: sp 32 +
STACK CFI 5404c .cfa: x29 32 + x19: .cfa -16 + ^ .ra: .cfa -24 + ^ x29: .cfa -32 + ^
STACK CFI 5406c .cfa: sp 32 +
STACK CFI 54074 .cfa: sp 0 +
STACK CFI INIT 54078 18 .cfa: sp 0 +
STACK CFI INIT 54090 4 .cfa: sp 0 +
STACK CFI INIT 54094 4 .cfa: sp 0 +
STACK CFI INIT 543dc 1c .cfa: sp 0 +
STACK CFI INIT 543f8 c .cfa: sp 0 +
STACK CFI INIT 54404 4 .cfa: sp 0 +
STACK CFI INIT 54408 38 .cfa: sp 0 +
STACK CFI 5440c .cfa: sp 32 +
STACK CFI 54414 .cfa: x29 32 + x19: .cfa -16 + ^ .ra: .cfa -24 + ^ x29: .cfa -32 + ^
STACK CFI 54434 .cfa: sp 32 +
STACK CFI 5443c .cfa: sp 0 +
STACK CFI INIT 54440 18 .cfa: sp 0 +
STACK CFI INIT 54458 4 .cfa: sp 0 +
STACK CFI INIT 5445c 4 .cfa: sp 0 +
STACK CFI INIT 54460 11c .cfa: sp 0 +
STACK CFI 54464 .cfa: sp 48 +
STACK CFI 54470 .cfa: x29 48 + x19: .cfa -8 + ^ x20: .cfa -16 + ^ x21: .cfa -32 + ^ .ra: .cfa -40 + ^ x29: .cfa -48 + ^
STACK CFI 54498 .cfa: sp 48 +
STACK CFI 544a4 .cfa: sp 0 +
STACK CFI 544a8 .cfa: x29 48 +
STACK CFI 54540 .cfa: sp 48 +
STACK CFI 5454c .cfa: sp 0 +
STACK CFI 54550 .cfa: x29 48 +
STACK CFI 5456c .cfa: sp 48 +
STACK CFI 54578 .cfa: sp 0 +
STACK CFI INIT 5457c 1c .cfa: sp 0 +
STACK CFI INIT 54598 c .cfa: sp 0 +
STACK CFI INIT 545a4 4 .cfa: sp 0 +
STACK CFI INIT 545a8 34 .cfa: sp 0 +
STACK CFI 545ac .cfa: sp 32 +
STACK CFI 545b4 .cfa: x29 32 + x19: .cfa -16 + ^ .ra: .cfa -24 + ^ x29: .cfa -32 + ^
STACK CFI 545d0 .cfa: sp 32 +
STACK CFI 545d8 .cfa: sp 0 +
STACK CFI INIT 545dc 14 .cfa: sp 0 +
STACK CFI INIT 545f0 4 .cfa: sp 0 +
STACK CFI INIT 545f4 4 .cfa: sp 0 +
STACK CFI INIT 545f8 48 .cfa: sp 0 +
STACK CFI 545fc .cfa: sp 32 +
STACK CFI 54604 .cfa: x29 32 + x19: .cfa -8 + ^ x20: .cfa -16 + ^ .ra: .cfa -24 + ^ x29: .cfa -32 + ^
STACK CFI 54628 .cfa: sp 32 +
STACK CFI 54630 .cfa: sp 0 +
STACK CFI 54634 .cfa: sp 32 +
STACK CFI 5463c .cfa: sp 0 +
STACK CFI INIT 54640 1c .cfa: sp 0 +
STACK CFI INIT 5465c c .cfa: sp 0 +
STACK CFI INIT 54668 4 .cfa: sp 0 +
STACK CFI INIT 5466c 38 .cfa: sp 0 +
STACK CFI 54670 .cfa: sp 32 +
STACK CFI 54678 .cfa: x29 32 + x19: .cfa -16 + ^ .ra: .cfa -24 + ^ x29: .cfa -32 + ^
STACK CFI 54698 .cfa: sp 32 +
STACK CFI 546a0 .cfa: sp 0 +
STACK CFI INIT 546a4 18 .cfa: sp 0 +
STACK CFI INIT 546bc 4 .cfa: sp 0 +
STACK CFI INIT 546c0 4 .cfa: sp 0 +
STACK CFI INIT 546c4 11c .cfa: sp 0 +
STACK CFI 546c8 .cfa: sp 48 +
STACK CFI 546d4 .cfa: x29 48 + x19: .cfa -8 + ^ x20: .cfa -16 + ^ x21: .cfa -32 + ^ .ra: .cfa -40 + ^ x29: .cfa -48 + ^
STACK CFI 546fc .cfa: sp 48 +
STACK CFI 54708 .cfa: sp 0 +
STACK CFI 5470c .cfa: x29 48 +
STACK CFI 547a4 .cfa: sp 48 +
STACK CFI 547b0 .cfa: sp 0 +
STACK CFI 547b4 .cfa: x29 48 +
STACK CFI 547d0 .cfa: sp 48 +
STACK CFI 547dc .cfa: sp 0 +
STACK CFI INIT 547e0 1c .cfa: sp 0 +
STACK CFI INIT 547fc c .cfa: sp 0 +
STACK CFI INIT 54808 4 .cfa: sp 0 +
STACK CFI INIT 5480c 34 .cfa: sp 0 +
STACK CFI 54810 .cfa: sp 32 +
STACK CFI 54818 .cfa: x29 32 + x19: .cfa -16 + ^ .ra: .cfa -24 + ^ x29: .cfa -32 + ^
STACK CFI 54834 .cfa: sp 32 +
STACK CFI 5483c .cfa: sp 0 +
STACK CFI INIT 54840 14 .cfa: sp 0 +
STACK CFI INIT 54854 4 .cfa: sp 0 +
STACK CFI INIT 54858 4 .cfa: sp 0 +
STACK CFI INIT 5485c 3c .cfa: sp 0 +
STACK CFI 54860 .cfa: sp 16 +
STACK CFI 54864 .cfa: x29 16 + .ra: .cfa -8 + ^ x29: .cfa -16 + ^
STACK CFI 54888 .cfa: sp 16 +
STACK CFI 5488c .cfa: sp 0 +
STACK CFI 54890 .cfa: sp 16 +
STACK CFI 54894 .cfa: sp 0 +
STACK CFI INIT 54898 1c .cfa: sp 0 +
STACK CFI INIT 548b4 c .cfa: sp 0 +
STACK CFI INIT 548c0 4 .cfa: sp 0 +
STACK CFI INIT 548c4 4 .cfa: sp 0 +
STACK CFI INIT 548c8 34 .cfa: sp 0 +
STACK CFI 548cc .cfa: sp 32 +
STACK CFI 548d4 .cfa: x29 32 + x19: .cfa -16 + ^ .ra: .cfa -24 + ^ x29: .cfa -32 + ^
STACK CFI 548f0 .cfa: sp 32 +
STACK CFI 548f8 .cfa: sp 0 +
STACK CFI INIT 548fc 14 .cfa: sp 0 +
STACK CFI INIT 54910 4 .cfa: sp 0 +
STACK CFI INIT 54914 4 .cfa: sp 0 +
STACK CFI INIT 54bdc 1c .cfa: sp 0 +
STACK CFI INIT 54bf8 c .cfa: sp 0 +
STACK CFI INIT 54c04 4 .cfa: sp 0 +
STACK CFI INIT 54c08 34 .cfa: sp 0 +
STACK CFI 54c0c .cfa: sp 32 +
STACK CFI 54c14 .cfa: x29 32 + x19: .cfa -16 + ^ .ra: .cfa -24 + ^ x29: .cfa -32 + ^
STACK CFI 54c30 .cfa: sp 32 +
STACK CFI 54c38 .cfa: sp 0 +
STACK CFI INIT 54c3c 14 .cfa: sp 0 +
STACK CFI INIT 54c50 4 .cfa: sp 0 +
STACK CFI INIT 54c54 4 .cfa: sp 0 +
STACK CFI INIT 54c58 4 .cfa: sp 0 +
STACK CFI INIT 54c5c 1c .cfa: sp 0 +
STACK CFI INIT 54c78 c .cfa: sp 0 +
STACK CFI INIT 54c84 4 .cfa: sp 0 +
STACK CFI INIT 54c88 34 .cfa: sp 0 +
STACK CFI 54c8c .cfa: sp 32 +
STACK CFI 54c94 .cfa: x29 32 + x19: .cfa -16 + ^ .ra: .cfa -24 + ^ x29: .cfa -32 + ^
STACK CFI 54cb0 .cfa: sp 32 +
STACK CFI 54cb8 .cfa: sp 0 +
STACK CFI INIT 54cbc 14 .cfa: sp 0 +
STACK CFI INIT 54cd0 4 .cfa: sp 0 +
STACK CFI INIT 54cd4 4 .cfa: sp 0 +
STACK CFI INIT 54cd8 4 .cfa: sp 0 +
STACK CFI INIT 54cdc 1c .cfa: sp 0 +
STACK CFI INIT 54cf8 c .cfa: sp 0 +
STACK CFI INIT 54d04 4 .cfa: sp 0 +
STACK CFI INIT 54d08 34 .cfa: sp 0 +
STACK CFI 54d0c .cfa: sp 32 +
STACK CFI 54d14 .cfa: x29 32 + x19: .cfa -16 + ^ .ra: .cfa -24 + ^ x29: .cfa -32 + ^
STACK CFI 54d30 .cfa: sp 32 +
STACK CFI 54d38 .cfa: sp 0 +
STACK CFI INIT 54d3c 14 .cfa: sp 0 +
STACK CFI INIT 54d50 4 .cfa: sp 0 +
STACK CFI INIT 54d54 4 .cfa: sp 0 +
STACK CFI INIT 54d58 1c .cfa: sp 0 +
STACK CFI 54d5c .cfa: sp 16 +
STACK CFI 54d60 .cfa: x29 16 + .ra: .cfa -8 + ^ x29: .cfa -16 + ^
STACK CFI 54d6c .cfa: sp 16 +
STACK CFI 54d70 .cfa: sp 0 +
STACK CFI INIT 54d74 1c .cfa: sp 0 +
STACK CFI INIT 54d90 c .cfa: sp 0 +
STACK CFI INIT 54d9c 4 .cfa: sp 0 +
STACK CFI INIT 54da0 34 .cfa: sp 0 +
STACK CFI 54da4 .cfa: sp 32 +
STACK CFI 54dac .cfa: x29 32 + x19: .cfa -16 + ^ .ra: .cfa -24 + ^ x29: .cfa -32 + ^
STACK CFI 54dc8 .cfa: sp 32 +
STACK CFI 54dd0 .cfa: sp 0 +
STACK CFI INIT 54dd4 14 .cfa: sp 0 +
STACK CFI INIT 54de8 4 .cfa: sp 0 +
STACK CFI INIT 54dec 4 .cfa: sp 0 +
STACK CFI INIT 54ea4 1c .cfa: sp 0 +
STACK CFI INIT 54ec0 c .cfa: sp 0 +
STACK CFI INIT 561c8 170 .cfa: sp 0 +
STACK CFI 561cc .cfa: sp 64 +
STACK CFI 561dc .cfa: x29 48 + x19: .cfa -8 + ^ x20: .cfa -16 + ^ x21: .cfa -24 + ^ x22: .cfa -32 + ^ .ra: .cfa -40 + ^ x29: .cfa -48 + ^
STACK CFI 56320 .cfa: sp 64 +
STACK CFI 56330 .cfa: sp 0 +
STACK CFI 56334 .cfa: x29 48 +
STACK CFI INIT 56358 194 .cfa: sp 0 +
STACK CFI 5635c .cfa: sp 80 +
STACK CFI 56370 .cfa: x29 48 + x19: .cfa -8 + ^ x20: .cfa -16 + ^ x21: .cfa -32 + ^ .ra: .cfa -40 + ^ x29: .cfa -48 + ^ v8: .cfa -56 + ^ v9: .cfa -64 + ^
STACK CFI 564d0 .cfa: sp 80 +
STACK CFI 564e4 .cfa: sp 0 +
STACK CFI 564e8 .cfa: x29 48 +
STACK CFI INIT 568b0 70 .cfa: sp 0 +
STACK CFI 568b4 .cfa: sp 16 +
STACK CFI 568b8 .cfa: x29 16 + .ra: .cfa -8 + ^ x29: .cfa -16 + ^
STACK CFI 56910 .cfa: sp 16 +
STACK CFI 56914 .cfa: sp 0 +
STACK CFI 56918 .cfa: sp 16 +
STACK CFI 5691c .cfa: sp 0 +
STACK CFI INIT 56a10 24 .cfa: sp 0 +
STACK CFI 56a14 .cfa: sp 32 +
STACK CFI 56a1c .cfa: x29 32 + x19: .cfa -16 + ^ .ra: .cfa -24 + ^ x29: .cfa -32 + ^
STACK CFI 56a28 .cfa: sp 32 +
STACK CFI 56a30 .cfa: sp 0 +
STACK CFI INIT 56a34 8 .cfa: sp 0 +
STACK CFI INIT 56a3c 28 .cfa: sp 0 +
STACK CFI 56a40 .cfa: sp 32 +
STACK CFI 56a48 .cfa: x29 32 + x19: .cfa -16 + ^ .ra: .cfa -24 + ^ x29: .cfa -32 + ^
STACK CFI 56a58 .cfa: sp 32 +
STACK CFI 56a60 .cfa: sp 0 +
STACK CFI INIT 56a64 4 .cfa: sp 0 +
STACK CFI INIT 56a68 34 .cfa: sp 0 +
STACK CFI 56a6c .cfa: sp 32 +
STACK CFI 56a74 .cfa: x29 32 + x19: .cfa -16 + ^ .ra: .cfa -24 + ^ x29: .cfa -32 + ^
STACK CFI 56a90 .cfa: sp 32 +
STACK CFI 56a98 .cfa: sp 0 +
STACK CFI INIT 56a9c 14 .cfa: sp 0 +
STACK CFI INIT 56ab0 4 .cfa: sp 0 +
STACK CFI INIT 56ab4 4 .cfa: sp 0 +
STACK CFI INIT 56ab8 54 .cfa: sp 0 +
STACK CFI 56abc .cfa: sp 32 +
STACK CFI 56ac4 .cfa: x29 32 + x19: .cfa -16 + ^ .ra: .cfa -24 + ^ x29: .cfa -32 + ^
STACK CFI 56b00 .cfa: sp 32 +
STACK CFI 56b08 .cfa: sp 0 +
STACK CFI INIT 56b0c 1c .cfa: sp 0 +
STACK CFI INIT 56b28 c .cfa: sp 0 +
STACK CFI INIT 56b34 d0 .cfa: sp 0 +
STACK CFI 56b38 .cfa: sp 128 +
STACK CFI 56b48 .cfa: x29 48 + x19: .cfa -8 + ^ x20: .cfa -16 + ^ x21: .cfa -24 + ^ x22: .cfa -32 + ^ .ra: .cfa -40 + ^ x29: .cfa -48 + ^
STACK CFI 56bec .cfa: sp 128 +
STACK CFI 56bfc .cfa: sp 0 +
STACK CFI 56c00 .cfa: x29 48 +
STACK CFI INIT 56d64 10 .cfa: sp 0 +
STACK CFI INIT 56d74 30 .cfa: sp 0 +
STACK CFI 56d78 .cfa: sp 32 +
STACK CFI 56d80 .cfa: x29 32 + x19: .cfa -16 + ^ .ra: .cfa -24 + ^ x29: .cfa -32 + ^
STACK CFI 56d98 .cfa: sp 32 +
STACK CFI 56da0 .cfa: sp 0 +
STACK CFI INIT 56e04 44 .cfa: sp 0 +
STACK CFI 56e08 .cfa: sp 32 +
STACK CFI 56e10 .cfa: x29 32 + x19: .cfa -8 + ^ x20: .cfa -16 + ^ .ra: .cfa -24 + ^ x29: .cfa -32 + ^
STACK CFI 56e3c .cfa: sp 32 +
STACK CFI 56e44 .cfa: sp 0 +
STACK CFI INIT 56e48 8 .cfa: sp 0 +
STACK CFI INIT 56e50 28 .cfa: sp 0 +
STACK CFI 56e54 .cfa: sp 32 +
STACK CFI 56e5c .cfa: x29 32 + x19: .cfa -16 + ^ .ra: .cfa -24 + ^ x29: .cfa -32 + ^
STACK CFI 56e6c .cfa: sp 32 +
STACK CFI 56e74 .cfa: sp 0 +
STACK CFI INIT 56f8c 1c .cfa: sp 0 +
STACK CFI INIT 56fa8 c .cfa: sp 0 +
STACK CFI INIT 56fb4 4 .cfa: sp 0 +
STACK CFI INIT 56fb8 34 .cfa: sp 0 +
STACK CFI 56fbc .cfa: sp 32 +
STACK CFI 56fc4 .cfa: x29 32 + x19: .cfa -16 + ^ .ra: .cfa -24 + ^ x29: .cfa -32 + ^
STACK CFI 56fe0 .cfa: sp 32 +
STACK CFI 56fe8 .cfa: sp 0 +
STACK CFI INIT 56fec 14 .cfa: sp 0 +
STACK CFI INIT 57000 4 .cfa: sp 0 +
STACK CFI INIT 57004 4 .cfa: sp 0 +
STACK CFI INIT 57008 8 .cfa: sp 0 +
STACK CFI INIT 57010 1c .cfa: sp 0 +
STACK CFI INIT 5702c c .cfa: sp 0 +
STACK CFI INIT 57038 4 .cfa: sp 0 +
STACK CFI INIT 5703c 34 .cfa: sp 0 +
STACK CFI 57040 .cfa: sp 32 +
STACK CFI 57048 .cfa: x29 32 + x19: .cfa -16 + ^ .ra: .cfa -24 + ^ x29: .cfa -32 + ^
STACK CFI 57064 .cfa: sp 32 +
STACK CFI 5706c .cfa: sp 0 +
STACK CFI INIT 57070 14 .cfa: sp 0 +
STACK CFI INIT 57084 4 .cfa: sp 0 +
STACK CFI INIT 57088 4 .cfa: sp 0 +
STACK CFI INIT 5708c 14 .cfa: sp 0 +
STACK CFI INIT 570a0 1c .cfa: sp 0 +
STACK CFI INIT 570bc c .cfa: sp 0 +
STACK CFI INIT 570c8 4 .cfa: sp 0 +
STACK CFI INIT 570cc 4 .cfa: sp 0 +
STACK CFI INIT 570d0 34 .cfa: sp 0 +
STACK CFI 570d4 .cfa: sp 32 +
STACK CFI 570dc .cfa: x29 32 + x19: .cfa -16 + ^ .ra: .cfa -24 + ^ x29: .cfa -32 + ^
STACK CFI 570f8 .cfa: sp 32 +
STACK CFI 57100 .cfa: sp 0 +
STACK CFI INIT 57104 14 .cfa: sp 0 +
STACK CFI INIT 57118 4 .cfa: sp 0 +
STACK CFI INIT 5711c 4 .cfa: sp 0 +
STACK CFI INIT 57120 14 .cfa: sp 0 +
STACK CFI INIT 57134 1c .cfa: sp 0 +
STACK CFI INIT 57150 c .cfa: sp 0 +
STACK CFI INIT 5715c 4 .cfa: sp 0 +
STACK CFI INIT 57160 40 .cfa: sp 0 +
STACK CFI 57164 .cfa: sp 32 +
STACK CFI 5716c .cfa: x29 32 + x19: .cfa -16 + ^ .ra: .cfa -24 + ^ x29: .cfa -32 + ^
STACK CFI 57194 .cfa: sp 32 +
STACK CFI 5719c .cfa: sp 0 +
STACK CFI INIT 571a0 20 .cfa: sp 0 +
STACK CFI INIT 571c0 4 .cfa: sp 0 +
STACK CFI INIT 571c4 4 .cfa: sp 0 +
STACK CFI INIT 571c8 1cc .cfa: sp 0 +
STACK CFI 571cc .cfa: sp 80 +
STACK CFI 571e0 .cfa: x29 48 + x19: .cfa -8 + ^ x20: .cfa -16 + ^ x21: .cfa -24 + ^ x22: .cfa -32 + ^ .ra: .cfa -40 + ^ x29: .cfa -48 + ^ v8: .cfa -56 + ^ v9: .cfa -64 + ^
STACK CFI 57220 .cfa: sp 80 +
STACK CFI 57234 .cfa: sp 0 +
STACK CFI 57238 .cfa: x29 48 +
STACK CFI 57378 .cfa: sp 80 +
STACK CFI 5738c .cfa: sp 0 +
STACK CFI 57390 .cfa: x29 48 +
STACK CFI INIT 57394 1c .cfa: sp 0 +
STACK CFI INIT 573b0 c .cfa: sp 0 +
STACK CFI INIT 573bc 1fc .cfa: sp 0 +
STACK CFI 573c0 .cfa: sp 96 +
STACK CFI 573d8 .cfa: x29 64 + x19: .cfa -8 + ^ x20: .cfa -16 + ^ x21: .cfa -24 + ^ x22: .cfa -32 + ^ x23: .cfa -40 + ^ x24: .cfa -48 + ^ .ra: .cfa -56 + ^ x29: .cfa -64 + ^ v8: .cfa -72 + ^ v9: .cfa -80 + ^
STACK CFI 57598 .cfa: sp 96 +
STACK CFI 575b0 .cfa: sp 0 +
STACK CFI 575b4 .cfa: x29 64 +
STACK CFI INIT 575b8 24 .cfa: sp 0 +
STACK CFI 575bc .cfa: sp 32 +
STACK CFI 575c4 .cfa: x29 32 + x19: .cfa -16 + ^ .ra: .cfa -24 + ^ x29: .cfa -32 + ^
STACK CFI 575d0 .cfa: sp 32 +
STACK CFI 575d8 .cfa: sp 0 +
STACK CFI INIT 57e4c 22c .cfa: sp 0 +
STACK CFI 57e50 .cfa: sp 96 +
STACK CFI 57e68 .cfa: x29 64 + x19: .cfa -8 + ^ x20: .cfa -16 + ^ x21: .cfa -24 + ^ x22: .cfa -32 + ^ x23: .cfa -48 + ^ .ra: .cfa -56 + ^ x29: .cfa -64 + ^ v8: .cfa -72 + ^ v9: .cfa -80 + ^
STACK CFI 58058 .cfa: sp 96 +
STACK CFI 58070 .cfa: sp 0 +
STACK CFI 58074 .cfa: x29 64 +
STACK CFI INIT 58078 170 .cfa: sp 0 +
STACK CFI 5807c .cfa: sp 48 +
STACK CFI 58088 .cfa: x29 48 + x19: .cfa -8 + ^ x20: .cfa -16 + ^ x21: .cfa -24 + ^ x22: .cfa -32 + ^ .ra: .cfa -40 + ^ x29: .cfa -48 + ^
STACK CFI 581c8 .cfa: sp 48 +
STACK CFI 581d4 .cfa: sp 0 +
STACK CFI 581d8 .cfa: sp 48 +
STACK CFI 581e4 .cfa: sp 0 +
STACK CFI INIT 5870c 108 .cfa: sp 0 +
STACK CFI 58710 .cfa: sp 64 +
STACK CFI 58720 .cfa: x29 48 + x19: .cfa -8 + ^ x20: .cfa -16 + ^ x21: .cfa -32 + ^ .ra: .cfa -40 + ^ x29: .cfa -48 + ^
STACK CFI 587e8 .cfa: sp 64 +
STACK CFI 587f8 .cfa: sp 0 +
STACK CFI 587fc .cfa: x29 48 +
STACK CFI INIT 58814 50 .cfa: sp 0 +
STACK CFI 58818 .cfa: sp 32 +
STACK CFI 58820 .cfa: x29 32 + x19: .cfa -16 + ^ .ra: .cfa -24 + ^ x29: .cfa -32 + ^
STACK CFI 58838 .cfa: sp 32 +
STACK CFI 58840 .cfa: sp 0 +
STACK CFI 58844 .cfa: x29 32 +
STACK CFI 58858 .cfa: sp 32 +
STACK CFI 58860 .cfa: sp 0 +
STACK CFI INIT 58864 d8 .cfa: sp 0 +
STACK CFI 58868 .cfa: sp 32 +
STACK CFI 58870 .cfa: x29 32 + x19: .cfa -8 + ^ x20: .cfa -16 + ^ .ra: .cfa -24 + ^ x29: .cfa -32 + ^
STACK CFI 58930 .cfa: sp 32 +
STACK CFI 58938 .cfa: sp 0 +
STACK CFI INIT 5893c e0 .cfa: sp 0 +
STACK CFI 58940 .cfa: sp 32 +
STACK CFI 58948 .cfa: x29 32 + x19: .cfa -8 + ^ x20: .cfa -16 + ^ .ra: .cfa -24 + ^ x29: .cfa -32 + ^
STACK CFI 58a10 .cfa: sp 32 +
STACK CFI 58a18 .cfa: sp 0 +
STACK CFI INIT 58a1c 8c .cfa: sp 0 +
STACK CFI 58a20 .cfa: sp 32 +
STACK CFI 58a28 .cfa: x29 32 + x19: .cfa -8 + ^ x20: .cfa -16 + ^ .ra: .cfa -24 + ^ x29: .cfa -32 + ^
STACK CFI 58a9c .cfa: sp 32 +
STACK CFI 58aa4 .cfa: sp 0 +
STACK CFI INIT 58cc4 4 .cfa: sp 0 +
STACK CFI INIT 58e74 94 .cfa: sp 0 +
STACK CFI 58e78 .cfa: sp 32 +
STACK CFI 58e80 .cfa: x29 32 + x19: .cfa -8 + ^ x20: .cfa -16 + ^ .ra: .cfa -24 + ^ x29: .cfa -32 + ^
STACK CFI 58efc .cfa: sp 32 +
STACK CFI 58f04 .cfa: sp 0 +
STACK CFI INIT 58f08 50 .cfa: sp 0 +
STACK CFI 58f0c .cfa: sp 32 +
STACK CFI 58f14 .cfa: x29 32 + x19: .cfa -16 + ^ .ra: .cfa -24 + ^ x29: .cfa -32 + ^
STACK CFI 58f2c .cfa: sp 32 +
STACK CFI 58f34 .cfa: sp 0 +
STACK CFI 58f38 .cfa: x29 32 +
STACK CFI 58f4c .cfa: sp 32 +
STACK CFI 58f54 .cfa: sp 0 +
STACK CFI INIT 58f58 50 .cfa: sp 0 +
STACK CFI 58f5c .cfa: sp 32 +
STACK CFI 58f64 .cfa: x29 32 + x19: .cfa -16 + ^ .ra: .cfa -24 + ^ x29: .cfa -32 + ^
STACK CFI 58f7c .cfa: sp 32 +
STACK CFI 58f84 .cfa: sp 0 +
STACK CFI 58f88 .cfa: x29 32 +
STACK CFI 58f9c .cfa: sp 32 +
STACK CFI 58fa4 .cfa: sp 0 +
STACK CFI INIT 58fa8 5c .cfa: sp 0 +
STACK CFI 58fac .cfa: sp 32 +
STACK CFI 58fb4 .cfa: x29 32 + x19: .cfa -16 + ^ .ra: .cfa -24 + ^ x29: .cfa -32 + ^
STACK CFI 58fd8 .cfa: sp 32 +
STACK CFI 58fe0 .cfa: sp 0 +
STACK CFI 58fe4 .cfa: x29 32 +
STACK CFI 58ff8 .cfa: sp 32 +
STACK CFI 59000 .cfa: sp 0 +
STACK CFI INIT 59004 5c .cfa: sp 0 +
STACK CFI 59008 .cfa: sp 32 +
STACK CFI 59010 .cfa: x29 32 + x19: .cfa -8 + ^ x20: .cfa -16 + ^ .ra: .cfa -24 + ^ x29: .cfa -32 + ^
STACK CFI 59054 .cfa: sp 32 +
STACK CFI 5905c .cfa: sp 0 +
STACK CFI INIT 59060 58 .cfa: sp 0 +
STACK CFI 59064 .cfa: sp 32 +
STACK CFI 5906c .cfa: x29 32 + x19: .cfa -8 + ^ x20: .cfa -16 + ^ .ra: .cfa -24 + ^ x29: .cfa -32 + ^
STACK CFI 590ac .cfa: sp 32 +
STACK CFI 590b4 .cfa: sp 0 +
STACK CFI INIT 590b8 4c .cfa: sp 0 +
STACK CFI 590bc .cfa: sp 32 +
STACK CFI 590c4 .cfa: x29 32 + x19: .cfa -8 + ^ x20: .cfa -16 + ^ .ra: .cfa -24 + ^ x29: .cfa -32 + ^
STACK CFI 590f8 .cfa: sp 32 +
STACK CFI 59100 .cfa: sp 0 +
STACK CFI INIT 59104 50 .cfa: sp 0 +
STACK CFI 59108 .cfa: sp 32 +
STACK CFI 59110 .cfa: x29 32 + x19: .cfa -16 + ^ .ra: .cfa -24 + ^ x29: .cfa -32 + ^
STACK CFI 59128 .cfa: sp 32 +
STACK CFI 59130 .cfa: sp 0 +
STACK CFI 59134 .cfa: x29 32 +
STACK CFI 59148 .cfa: sp 32 +
STACK CFI 59150 .cfa: sp 0 +
STACK CFI INIT 59154 50 .cfa: sp 0 +
STACK CFI 59158 .cfa: sp 32 +
STACK CFI 59160 .cfa: x29 32 + x19: .cfa -8 + ^ x20: .cfa -16 + ^ .ra: .cfa -24 + ^ x29: .cfa -32 + ^
STACK CFI 59198 .cfa: sp 32 +
STACK CFI 591a0 .cfa: sp 0 +
STACK CFI INIT 5933c 1c .cfa: sp 0 +
STACK CFI INIT 59358 c .cfa: sp 0 +
STACK CFI INIT 59364 50 .cfa: sp 0 +
STACK CFI 59368 .cfa: sp 32 +
STACK CFI 59370 .cfa: x29 32 + x19: .cfa -8 + ^ x20: .cfa -16 + ^ .ra: .cfa -24 + ^ x29: .cfa -32 + ^
STACK CFI 593a8 .cfa: sp 32 +
STACK CFI 593b0 .cfa: sp 0 +
STACK CFI INIT 593b4 58 .cfa: sp 0 +
STACK CFI 593b8 .cfa: sp 32 +
STACK CFI 593c0 .cfa: x29 32 + x19: .cfa -8 + ^ x20: .cfa -16 + ^ .ra: .cfa -24 + ^ x29: .cfa -32 + ^
STACK CFI 59400 .cfa: sp 32 +
STACK CFI 59408 .cfa: sp 0 +
STACK CFI INIT 5940c 5c .cfa: sp 0 +
STACK CFI 59410 .cfa: sp 32 +
STACK CFI 59418 .cfa: x29 32 + x19: .cfa -16 + ^ .ra: .cfa -24 + ^ x29: .cfa -32 + ^
STACK CFI 5943c .cfa: sp 32 +
STACK CFI 59444 .cfa: sp 0 +
STACK CFI 59448 .cfa: x29 32 +
STACK CFI 5945c .cfa: sp 32 +
STACK CFI 59464 .cfa: sp 0 +
STACK CFI INIT 59468 5c .cfa: sp 0 +
STACK CFI 5946c .cfa: sp 32 +
STACK CFI 59474 .cfa: x29 32 + x19: .cfa -8 + ^ x20: .cfa -16 + ^ .ra: .cfa -24 + ^ x29: .cfa -32 + ^
STACK CFI 594b8 .cfa: sp 32 +
STACK CFI 594c0 .cfa: sp 0 +
STACK CFI INIT 594c4 58 .cfa: sp 0 +
STACK CFI 594c8 .cfa: sp 32 +
STACK CFI 594d0 .cfa: x29 32 + x19: .cfa -8 + ^ x20: .cfa -16 + ^ .ra: .cfa -24 + ^ x29: .cfa -32 + ^
STACK CFI 59510 .cfa: sp 32 +
STACK CFI 59518 .cfa: sp 0 +
STACK CFI INIT 5951c 4c .cfa: sp 0 +
STACK CFI 59520 .cfa: sp 32 +
STACK CFI 59528 .cfa: x29 32 + x19: .cfa -8 + ^ x20: .cfa -16 + ^ .ra: .cfa -24 + ^ x29: .cfa -32 + ^
STACK CFI 5955c .cfa: sp 32 +
STACK CFI 59564 .cfa: sp 0 +
STACK CFI INIT 59568 50 .cfa: sp 0 +
STACK CFI 5956c .cfa: sp 32 +
STACK CFI 59574 .cfa: x29 32 + x19: .cfa -16 + ^ .ra: .cfa -24 + ^ x29: .cfa -32 + ^
STACK CFI 5958c .cfa: sp 32 +
STACK CFI 59594 .cfa: sp 0 +
STACK CFI 59598 .cfa: x29 32 +
STACK CFI 595ac .cfa: sp 32 +
STACK CFI 595b4 .cfa: sp 0 +
STACK CFI INIT 595b8 50 .cfa: sp 0 +
STACK CFI 595bc .cfa: sp 32 +
STACK CFI 595c4 .cfa: x29 32 + x19: .cfa -8 + ^ x20: .cfa -16 + ^ .ra: .cfa -24 + ^ x29: .cfa -32 + ^
STACK CFI 595fc .cfa: sp 32 +
STACK CFI 59604 .cfa: sp 0 +
STACK CFI INIT 59790 1c .cfa: sp 0 +
STACK CFI INIT 597ac c .cfa: sp 0 +
STACK CFI INIT 597b8 4 .cfa: sp 0 +
STACK CFI INIT 597bc 24 .cfa: sp 0 +
STACK CFI 597c0 .cfa: sp 16 +
STACK CFI 597c4 .cfa: x29 16 + .ra: .cfa -8 + ^ x29: .cfa -16 + ^
STACK CFI 597d8 .cfa: sp 16 +
STACK CFI 597dc .cfa: sp 0 +
STACK CFI INIT 597e0 10 .cfa: sp 0 +
STACK CFI INIT 597f0 4 .cfa: sp 0 +
STACK CFI INIT 597f4 4 .cfa: sp 0 +
STACK CFI INIT 597f8 4 .cfa: sp 0 +
STACK CFI INIT 597fc 1c .cfa: sp 0 +
STACK CFI INIT 59818 c .cfa: sp 0 +
STACK CFI INIT 59824 4 .cfa: sp 0 +
STACK CFI INIT 59828 4 .cfa: sp 0 +
STACK CFI INIT 5982c 34 .cfa: sp 0 +
STACK CFI 59830 .cfa: sp 32 +
STACK CFI 59838 .cfa: x29 32 + x19: .cfa -16 + ^ .ra: .cfa -24 + ^ x29: .cfa -32 + ^
STACK CFI 59854 .cfa: sp 32 +
STACK CFI 5985c .cfa: sp 0 +
STACK CFI INIT 59860 14 .cfa: sp 0 +
STACK CFI INIT 59874 4 .cfa: sp 0 +
STACK CFI INIT 59878 4 .cfa: sp 0 +
STACK CFI INIT 59b2c 1c .cfa: sp 0 +
STACK CFI INIT 59b48 c .cfa: sp 0 +
STACK CFI INIT 59c5c 20 .cfa: sp 0 +
STACK CFI INIT 59ccc c .cfa: sp 0 +
STACK CFI INIT 59cd8 1c .cfa: sp 0 +
STACK CFI INIT 59cf4 c .cfa: sp 0 +
STACK CFI INIT 59d00 10 .cfa: sp 0 +
STACK CFI INIT 59d10 14 .cfa: sp 0 +
STACK CFI INIT 59d24 d0 .cfa: sp 0 +
STACK CFI 59d28 .cfa: sp 80 +
STACK CFI 59d38 .cfa: x29 48 + x19: .cfa -8 + ^ x20: .cfa -16 + ^ x21: .cfa -24 + ^ x22: .cfa -32 + ^ .ra: .cfa -40 + ^ x29: .cfa -48 + ^
STACK CFI 59ddc .cfa: sp 80 +
STACK CFI 59dec .cfa: sp 0 +
STACK CFI 59df0 .cfa: x29 48 +
STACK CFI INIT 59df4 8 .cfa: sp 0 +
STACK CFI INIT 59dfc b8 .cfa: sp 0 +
STACK CFI 59e00 .cfa: sp 80 +
STACK CFI 59e10 .cfa: x29 48 + x19: .cfa -8 + ^ x20: .cfa -16 + ^ x21: .cfa -24 + ^ x22: .cfa -32 + ^ .ra: .cfa -40 + ^ x29: .cfa -48 + ^
STACK CFI 59e9c .cfa: sp 80 +
STACK CFI 59eac .cfa: sp 0 +
STACK CFI 59eb0 .cfa: x29 48 +
STACK CFI INIT 59eb4 8 .cfa: sp 0 +
STACK CFI INIT 59ebc a4 .cfa: sp 0 +
STACK CFI 59ec0 .cfa: sp 80 +
STACK CFI 59ed0 .cfa: x29 48 + x19: .cfa -8 + ^ x20: .cfa -16 + ^ x21: .cfa -24 + ^ x22: .cfa -32 + ^ .ra: .cfa -40 + ^ x29: .cfa -48 + ^
STACK CFI 59f48 .cfa: sp 80 +
STACK CFI 59f58 .cfa: sp 0 +
STACK CFI 59f5c .cfa: x29 48 +
STACK CFI INIT 59f60 a8 .cfa: sp 0 +
STACK CFI 59f64 .cfa: sp 80 +
STACK CFI 59f74 .cfa: x29 48 + x19: .cfa -8 + ^ x20: .cfa -16 + ^ x21: .cfa -24 + ^ x22: .cfa -32 + ^ .ra: .cfa -40 + ^ x29: .cfa -48 + ^
STACK CFI 59ff0 .cfa: sp 80 +
STACK CFI 5a000 .cfa: sp 0 +
STACK CFI 5a004 .cfa: x29 48 +
STACK CFI INIT 5a19c 8 .cfa: sp 0 +
STACK CFI INIT 5a418 118 .cfa: sp 0 +
STACK CFI 5a41c .cfa: sp 80 +
STACK CFI 5a42c .cfa: x29 32 + x19: .cfa -8 + ^ x20: .cfa -16 + ^ .ra: .cfa -24 + ^ x29: .cfa -32 + ^ v8: .cfa -40 + ^ v9: .cfa -48 + ^
STACK CFI 5a518 .cfa: sp 80 +
STACK CFI 5a528 .cfa: sp 0 +
STACK CFI 5a52c .cfa: x29 32 +
STACK CFI INIT 5a678 b4 .cfa: sp 0 +
STACK CFI 5a67c .cfa: sp 32 +
STACK CFI 5a684 .cfa: x29 32 + x19: .cfa -16 + ^ .ra: .cfa -24 + ^ x29: .cfa -32 + ^
STACK CFI 5a720 .cfa: sp 32 +
STACK CFI 5a728 .cfa: sp 0 +
STACK CFI INIT 5a72c bc .cfa: sp 0 +
STACK CFI 5a730 .cfa: sp 32 +
STACK CFI 5a738 .cfa: x29 32 + x19: .cfa -16 + ^ .ra: .cfa -24 + ^ x29: .cfa -32 + ^
STACK CFI 5a7dc .cfa: sp 32 +
STACK CFI 5a7e4 .cfa: sp 0 +
STACK CFI INIT 5a7e8 b8 .cfa: sp 0 +
STACK CFI 5a7ec .cfa: sp 32 +
STACK CFI 5a7f4 .cfa: x29 32 + x19: .cfa -8 + ^ x20: .cfa -16 + ^ .ra: .cfa -24 + ^ x29: .cfa -32 + ^
STACK CFI 5a894 .cfa: sp 32 +
STACK CFI 5a89c .cfa: sp 0 +
STACK CFI INIT 5a8a0 c0 .cfa: sp 0 +
STACK CFI 5a8a4 .cfa: sp 32 +
STACK CFI 5a8ac .cfa: x29 32 + x19: .cfa -8 + ^ x20: .cfa -16 + ^ .ra: .cfa -24 + ^ x29: .cfa -32 + ^
STACK CFI 5a954 .cfa: sp 32 +
STACK CFI 5a95c .cfa: sp 0 +
STACK CFI INIT 5a960 4 .cfa: sp 0 +
STACK CFI INIT 5a964 40 .cfa: sp 0 +
STACK CFI 5a968 .cfa: sp 32 +
STACK CFI 5a970 .cfa: x29 32 + x19: .cfa -16 + ^ .ra: .cfa -24 + ^ x29: .cfa -32 + ^
STACK CFI 5a998 .cfa: sp 32 +
STACK CFI 5a9a0 .cfa: sp 0 +
STACK CFI INIT 5a9a4 20 .cfa: sp 0 +
STACK CFI INIT 5a9c4 4 .cfa: sp 0 +
STACK CFI INIT 5a9c8 4 .cfa: sp 0 +
STACK CFI INIT 5a9cc 54 .cfa: sp 0 +
STACK CFI 5a9d0 .cfa: sp 32 +
STACK CFI 5a9d8 .cfa: x29 32 + x19: .cfa -16 + ^ .ra: .cfa -24 + ^ x29: .cfa -32 + ^
STACK CFI 5aa08 .cfa: sp 32 +
STACK CFI 5aa10 .cfa: sp 0 +
STACK CFI 5aa14 .cfa: sp 32 +
STACK CFI 5aa1c .cfa: sp 0 +
STACK CFI INIT 5aa20 1c .cfa: sp 0 +
STACK CFI INIT 5aa3c c .cfa: sp 0 +
STACK CFI INIT 5aa48 30 .cfa: sp 0 +
STACK CFI 5aa4c .cfa: sp 32 +
STACK CFI 5aa54 .cfa: x29 32 + x19: .cfa -16 + ^ .ra: .cfa -24 + ^ x29: .cfa -32 + ^
STACK CFI 5aa6c .cfa: sp 32 +
STACK CFI 5aa74 .cfa: sp 0 +
STACK CFI INIT 5aa78 4c .cfa: sp 0 +
STACK CFI 5aa7c .cfa: sp 32 +
STACK CFI 5aa84 .cfa: x29 32 + x19: .cfa -8 + ^ x20: .cfa -16 + ^ .ra: .cfa -24 + ^ x29: .cfa -32 + ^
STACK CFI 5aaac .cfa: sp 32 +
STACK CFI 5aab4 .cfa: sp 0 +
STACK CFI 5aab8 .cfa: sp 32 +
STACK CFI 5aac0 .cfa: sp 0 +
STACK CFI INIT 5ace4 64 .cfa: sp 0 +
STACK CFI 5ace8 .cfa: sp 32 +
STACK CFI 5acf0 .cfa: x29 32 + x19: .cfa -16 + ^ .ra: .cfa -24 + ^ x29: .cfa -32 + ^
STACK CFI 5ad1c .cfa: sp 32 +
STACK CFI 5ad24 .cfa: sp 0 +
STACK CFI 5ad28 .cfa: x29 32 +
STACK CFI 5ad3c .cfa: sp 32 +
STACK CFI 5ad44 .cfa: sp 0 +
STACK CFI INIT 5af6c 24 .cfa: sp 0 +
STACK CFI 5af70 .cfa: sp 32 +
STACK CFI 5af78 .cfa: x29 32 + x19: .cfa -16 + ^ .ra: .cfa -24 + ^ x29: .cfa -32 + ^
STACK CFI 5af84 .cfa: sp 32 +
STACK CFI 5af8c .cfa: sp 0 +
STACK CFI INIT 5b1ec 24 .cfa: sp 0 +
STACK CFI 5b1f0 .cfa: sp 32 +
STACK CFI 5b1f8 .cfa: x29 32 + x19: .cfa -16 + ^ .ra: .cfa -24 + ^ x29: .cfa -32 + ^
STACK CFI 5b204 .cfa: sp 32 +
STACK CFI 5b20c .cfa: sp 0 +
STACK CFI INIT 5b210 24 .cfa: sp 0 +
STACK CFI 5b214 .cfa: sp 32 +
STACK CFI 5b21c .cfa: x29 32 + x19: .cfa -16 + ^ .ra: .cfa -24 + ^ x29: .cfa -32 + ^
STACK CFI 5b228 .cfa: sp 32 +
STACK CFI 5b230 .cfa: sp 0 +
STACK CFI INIT 5b6c0 24 .cfa: sp 0 +
STACK CFI 5b6c4 .cfa: sp 32 +
STACK CFI 5b6cc .cfa: x29 32 + x19: .cfa -16 + ^ .ra: .cfa -24 + ^ x29: .cfa -32 + ^
STACK CFI 5b6d8 .cfa: sp 32 +
STACK CFI 5b6e0 .cfa: sp 0 +
STACK CFI INIT 5b970 8 .cfa: sp 0 +
STACK CFI INIT 5b978 24 .cfa: sp 0 +
STACK CFI 5b97c .cfa: sp 32 +
STACK CFI 5b984 .cfa: x29 32 + x19: .cfa -16 + ^ .ra: .cfa -24 + ^ x29: .cfa -32 + ^
STACK CFI 5b990 .cfa: sp 32 +
STACK CFI 5b998 .cfa: sp 0 +
STACK CFI INIT 5b99c 28 .cfa: sp 0 +
STACK CFI 5b9a0 .cfa: sp 32 +
STACK CFI 5b9a8 .cfa: x29 32 + x19: .cfa -16 + ^ .ra: .cfa -24 + ^ x29: .cfa -32 + ^
STACK CFI 5b9b8 .cfa: sp 32 +
STACK CFI 5b9c0 .cfa: sp 0 +
STACK CFI INIT 5bccc 8 .cfa: sp 0 +
STACK CFI INIT 5bcd4 24 .cfa: sp 0 +
STACK CFI 5bcd8 .cfa: sp 32 +
STACK CFI 5bce0 .cfa: x29 32 + x19: .cfa -16 + ^ .ra: .cfa -24 + ^ x29: .cfa -32 + ^
STACK CFI 5bcec .cfa: sp 32 +
STACK CFI 5bcf4 .cfa: sp 0 +
STACK CFI INIT 5bcf8 28 .cfa: sp 0 +
STACK CFI 5bcfc .cfa: sp 32 +
STACK CFI 5bd04 .cfa: x29 32 + x19: .cfa -16 + ^ .ra: .cfa -24 + ^ x29: .cfa -32 + ^
STACK CFI 5bd14 .cfa: sp 32 +
STACK CFI 5bd1c .cfa: sp 0 +
STACK CFI INIT 5bf8c 8 .cfa: sp 0 +
STACK CFI INIT 5bf94 24 .cfa: sp 0 +
STACK CFI 5bf98 .cfa: sp 32 +
STACK CFI 5bfa0 .cfa: x29 32 + x19: .cfa -16 + ^ .ra: .cfa -24 + ^ x29: .cfa -32 + ^
STACK CFI 5bfac .cfa: sp 32 +
STACK CFI 5bfb4 .cfa: sp 0 +
STACK CFI INIT 5bfb8 28 .cfa: sp 0 +
STACK CFI 5bfbc .cfa: sp 32 +
STACK CFI 5bfc4 .cfa: x29 32 + x19: .cfa -16 + ^ .ra: .cfa -24 + ^ x29: .cfa -32 + ^
STACK CFI 5bfd4 .cfa: sp 32 +
STACK CFI 5bfdc .cfa: sp 0 +
STACK CFI INIT 5c258 24 .cfa: sp 0 +
STACK CFI 5c25c .cfa: sp 32 +
STACK CFI 5c264 .cfa: x29 32 + x19: .cfa -16 + ^ .ra: .cfa -24 + ^ x29: .cfa -32 + ^
STACK CFI 5c270 .cfa: sp 32 +
STACK CFI 5c278 .cfa: sp 0 +
STACK CFI INIT 5c93c 24 .cfa: sp 0 +
STACK CFI 5c940 .cfa: sp 32 +
STACK CFI 5c948 .cfa: x29 32 + x19: .cfa -16 + ^ .ra: .cfa -24 + ^ x29: .cfa -32 + ^
STACK CFI 5c954 .cfa: sp 32 +
STACK CFI 5c95c .cfa: sp 0 +
STACK CFI INIT 5d560 24 .cfa: sp 0 +
STACK CFI 5d564 .cfa: sp 32 +
STACK CFI 5d56c .cfa: x29 32 + x19: .cfa -16 + ^ .ra: .cfa -24 + ^ x29: .cfa -32 + ^
STACK CFI 5d578 .cfa: sp 32 +
STACK CFI 5d580 .cfa: sp 0 +
STACK CFI INIT 5d584 8 .cfa: sp 0 +
STACK CFI INIT 5d58c 24 .cfa: sp 0 +
STACK CFI 5d590 .cfa: sp 32 +
STACK CFI 5d598 .cfa: x29 32 + x19: .cfa -16 + ^ .ra: .cfa -24 + ^ x29: .cfa -32 + ^
STACK CFI 5d5a4 .cfa: sp 32 +
STACK CFI 5d5ac .cfa: sp 0 +
STACK CFI INIT 5d5b0 28 .cfa: sp 0 +
STACK CFI 5d5b4 .cfa: sp 32 +
STACK CFI 5d5bc .cfa: x29 32 + x19: .cfa -16 + ^ .ra: .cfa -24 + ^ x29: .cfa -32 + ^
STACK CFI 5d5cc .cfa: sp 32 +
STACK CFI 5d5d4 .cfa: sp 0 +
STACK CFI INIT 5dbc8 4 .cfa: sp 0 +
STACK CFI INIT 5dbcc 4 .cfa: sp 0 +
STACK CFI INIT 5dbd0 4 .cfa: sp 0 +
STACK CFI INIT 5dbd4 4 .cfa: sp 0 +
STACK CFI INIT 5dbd8 4 .cfa: sp 0 +
STACK CFI INIT 5dbdc 4 .cfa: sp 0 +
STACK CFI INIT 5ddfc 4 .cfa: sp 0 +
STACK CFI INIT 5de00 8 .cfa: sp 0 +
STACK CFI INIT 5de08 4 .cfa: sp 0 +
STACK CFI INIT 5de0c 8 .cfa: sp 0 +
STACK CFI INIT 5efa4 4 .cfa: sp 0 +
STACK CFI INIT 5efa8 14 .cfa: sp 0 +
STACK CFI INIT 5f3f8 c .cfa: sp 0 +
STACK CFI INIT 5f404 24c .cfa: sp 0 +
STACK CFI INIT 5f650 a0 .cfa: sp 0 +
STACK CFI 5f65c .cfa: sp 32 +
STACK CFI 5f6b4 .cfa: sp 0 +
STACK CFI 5f6b8 .cfa: sp 32 +
STACK CFI 5f6c0 .cfa: sp 0 +
STACK CFI 5f6c4 .cfa: sp 32 +
STACK CFI 5f6d8 .cfa: sp 0 +
STACK CFI 5f6dc .cfa: sp 32 +
STACK CFI 5f6ec .cfa: sp 0 +
STACK CFI INIT 5f6f0 38 .cfa: sp 0 +
STACK CFI 5f6fc .cfa: sp 32 +
STACK CFI 5f724 .cfa: sp 0 +
STACK CFI INIT 5f9bc 70 .cfa: sp 0 +
STACK CFI 5f9c0 .cfa: sp 32 +
STACK CFI 5f9c8 .cfa: x29 32 + x19: .cfa -16 + ^ .ra: .cfa -24 + ^ x29: .cfa -32 + ^
STACK CFI 5f9fc .cfa: sp 32 +
STACK CFI 5fa04 .cfa: sp 0 +
STACK CFI 5fa08 .cfa: x29 32 +
STACK CFI INIT 5fa7c 2c .cfa: sp 0 +
STACK CFI 5fa80 .cfa: sp 32 +
STACK CFI 5fa88 .cfa: x29 32 + x19: .cfa -16 + ^ .ra: .cfa -24 + ^ x29: .cfa -32 + ^
STACK CFI 5fa9c .cfa: sp 32 +
STACK CFI 5faa4 .cfa: sp 0 +
STACK CFI INIT 601f8 64 .cfa: sp 0 +
STACK CFI 601fc .cfa: sp 32 +
STACK CFI 60204 .cfa: x29 32 + x19: .cfa -16 + ^ .ra: .cfa -24 + ^ x29: .cfa -32 + ^
STACK CFI 60220 .cfa: sp 32 +
STACK CFI 60228 .cfa: sp 0 +
STACK CFI 6022c .cfa: x29 32 +
STACK CFI 60250 .cfa: sp 32 +
STACK CFI 60258 .cfa: sp 0 +
STACK CFI INIT 60388 3c8 .cfa: sp 0 +
STACK CFI 6038c .cfa: sp 208 +
STACK CFI 603a0 .cfa: x29 64 + x19: .cfa -8 + ^ x20: .cfa -16 + ^ x21: .cfa -24 + ^ x22: .cfa -32 + ^ x23: .cfa -40 + ^ x24: .cfa -48 + ^ .ra: .cfa -56 + ^ x29: .cfa -64 + ^
STACK CFI 605b8 .cfa: sp 208 +
STACK CFI 605cc .cfa: sp 0 +
STACK CFI 605d0 .cfa: x29 64 +
STACK CFI INIT 60750 228 .cfa: sp 0 +
STACK CFI INIT 60978 2b4 .cfa: sp 0 +
STACK CFI INIT 60c2c 530 .cfa: sp 0 +
STACK CFI INIT 6115c 78 .cfa: sp 0 +
STACK CFI 61160 .cfa: sp 48 +
STACK CFI 6116c .cfa: x29 48 + x19: .cfa -8 + ^ x20: .cfa -16 + ^ x21: .cfa -24 + ^ x22: .cfa -32 + ^ .ra: .cfa -40 + ^ x29: .cfa -48 + ^
STACK CFI 611b4 .cfa: sp 48 +
STACK CFI 611c0 .cfa: sp 0 +
STACK CFI 611c4 .cfa: sp 48 +
STACK CFI 611d0 .cfa: sp 0 +
STACK CFI INIT 611d4 78 .cfa: sp 0 +
STACK CFI 611d8 .cfa: sp 32 +
STACK CFI 611e0 .cfa: x29 32 + x19: .cfa -16 + ^ .ra: .cfa -24 + ^ x29: .cfa -32 + ^
STACK CFI 6121c .cfa: sp 32 +
STACK CFI 61224 .cfa: sp 0 +
STACK CFI 61228 .cfa: x29 32 +
STACK CFI INIT 6124c 24 .cfa: sp 0 +
STACK CFI 61250 .cfa: sp 32 +
STACK CFI 61258 .cfa: x29 32 + x19: .cfa -16 + ^ .ra: .cfa -24 + ^ x29: .cfa -32 + ^
STACK CFI 61264 .cfa: sp 32 +
STACK CFI 6126c .cfa: sp 0 +
STACK CFI INIT 61270 150 .cfa: sp 0 +
STACK CFI 61274 .cfa: sp 48 +
STACK CFI 61280 .cfa: x29 48 + x19: .cfa -8 + ^ x20: .cfa -16 + ^ x21: .cfa -24 + ^ x22: .cfa -32 + ^ .ra: .cfa -40 + ^ x29: .cfa -48 + ^
STACK CFI 613b0 .cfa: sp 48 +
STACK CFI 613bc .cfa: sp 0 +
STACK CFI INIT 613c0 6c .cfa: sp 0 +
STACK CFI 613c4 .cfa: sp 64 +
STACK CFI 613d0 .cfa: x29 32 + x19: .cfa -16 + ^ .ra: .cfa -24 + ^ x29: .cfa -32 + ^
STACK CFI 61418 .cfa: sp 64 +
STACK CFI 61424 .cfa: sp 0 +
STACK CFI 61428 .cfa: x29 32 +
STACK CFI INIT 6142c 74 .cfa: sp 0 +
STACK CFI 61430 .cfa: sp 32 +
STACK CFI 61438 .cfa: x29 32 + x19: .cfa -8 + ^ x20: .cfa -16 + ^ .ra: .cfa -24 + ^ x29: .cfa -32 + ^
STACK CFI 61494 .cfa: sp 32 +
STACK CFI 6149c .cfa: sp 0 +
STACK CFI INIT 614a0 f0 .cfa: sp 0 +
STACK CFI 614a4 .cfa: sp 112 +
STACK CFI 614b4 .cfa: x29 48 + x19: .cfa -8 + ^ x20: .cfa -16 + ^ x21: .cfa -32 + ^ .ra: .cfa -40 + ^ x29: .cfa -48 + ^
STACK CFI 61578 .cfa: sp 112 +
STACK CFI 61588 .cfa: sp 0 +
STACK CFI 6158c .cfa: x29 48 +
STACK CFI INIT 61590 f0 .cfa: sp 0 +
STACK CFI 61594 .cfa: sp 112 +
STACK CFI 615a4 .cfa: x29 48 + x19: .cfa -8 + ^ x20: .cfa -16 + ^ x21: .cfa -32 + ^ .ra: .cfa -40 + ^ x29: .cfa -48 + ^
STACK CFI 61668 .cfa: sp 112 +
STACK CFI 61678 .cfa: sp 0 +
STACK CFI 6167c .cfa: x29 48 +
STACK CFI INIT 61680 48 .cfa: sp 0 +
STACK CFI 61684 .cfa: sp 32 +
STACK CFI 6168c .cfa: x29 32 + x19: .cfa -8 + ^ x20: .cfa -16 + ^ .ra: .cfa -24 + ^ x29: .cfa -32 + ^
STACK CFI 616b0 .cfa: sp 32 +
STACK CFI 616b8 .cfa: sp 0 +
STACK CFI 616bc .cfa: x29 32 +
STACK CFI INIT 616c8 9c .cfa: sp 0 +
STACK CFI 616cc .cfa: sp 80 +
STACK CFI 616d8 .cfa: x29 32 + x19: .cfa -16 + ^ .ra: .cfa -24 + ^ x29: .cfa -32 + ^
STACK CFI 61750 .cfa: sp 80 +
STACK CFI 6175c .cfa: sp 0 +
STACK CFI 61760 .cfa: x29 32 +
STACK CFI INIT 61764 220 .cfa: sp 0 +
STACK CFI 61768 .cfa: sp 112 +
STACK CFI 61780 .cfa: x29 80 + x19: .cfa -8 + ^ x20: .cfa -16 + ^ x21: .cfa -24 + ^ x22: .cfa -32 + ^ x23: .cfa -40 + ^ x24: .cfa -48 + ^ x25: .cfa -64 + ^ .ra: .cfa -72 + ^ x29: .cfa -80 + ^
STACK CFI 61944 .cfa: sp 112 +
STACK CFI 6195c .cfa: sp 0 +
STACK CFI 61960 .cfa: x29 80 +
STACK CFI INIT 61984 150 .cfa: sp 0 +
STACK CFI 61988 .cfa: sp 48 +
STACK CFI 61994 .cfa: x29 48 + x19: .cfa -8 + ^ x20: .cfa -16 + ^ x21: .cfa -24 + ^ x22: .cfa -32 + ^ .ra: .cfa -40 + ^ x29: .cfa -48 + ^
STACK CFI 61ac4 .cfa: sp 48 +
STACK CFI 61ad0 .cfa: sp 0 +
STACK CFI INIT 61ad4 1c4 .cfa: sp 0 +
STACK CFI 61ad8 .cfa: sp 96 +
STACK CFI 61aec .cfa: x29 64 + x19: .cfa -8 + ^ x20: .cfa -16 + ^ x21: .cfa -24 + ^ x22: .cfa -32 + ^ x23: .cfa -40 + ^ x24: .cfa -48 + ^ .ra: .cfa -56 + ^ x29: .cfa -64 + ^
STACK CFI 61c5c .cfa: sp 96 +
STACK CFI 61c70 .cfa: sp 0 +
STACK CFI 61c74 .cfa: x29 64 +
STACK CFI INIT 61c98 244 .cfa: sp 0 +
STACK CFI 61c9c .cfa: sp 112 +
STACK CFI 61cb4 .cfa: x29 80 + x19: .cfa -8 + ^ x20: .cfa -16 + ^ x21: .cfa -24 + ^ x22: .cfa -32 + ^ x23: .cfa -40 + ^ x24: .cfa -48 + ^ x25: .cfa -64 + ^ .ra: .cfa -72 + ^ x29: .cfa -80 + ^
STACK CFI 61e9c .cfa: sp 112 +
STACK CFI 61eb4 .cfa: sp 0 +
STACK CFI 61eb8 .cfa: x29 80 +
STACK CFI INIT 61edc 1ec .cfa: sp 0 +
STACK CFI 61ee0 .cfa: sp 96 +
STACK CFI 61ef4 .cfa: x29 64 + x19: .cfa -8 + ^ x20: .cfa -16 + ^ x21: .cfa -24 + ^ x22: .cfa -32 + ^ x23: .cfa -40 + ^ x24: .cfa -48 + ^ .ra: .cfa -56 + ^ x29: .cfa -64 + ^
STACK CFI 6208c .cfa: sp 96 +
STACK CFI 620a0 .cfa: sp 0 +
STACK CFI 620a4 .cfa: x29 64 +
STACK CFI INIT 620c8 304 .cfa: sp 0 +
STACK CFI 620cc .cfa: sp 160 +
STACK CFI 620e8 .cfa: x29 96 + x19: .cfa -8 + ^ x20: .cfa -16 + ^ x21: .cfa -24 + ^ x22: .cfa -32 + ^ x23: .cfa -40 + ^ x24: .cfa -48 + ^ x25: .cfa -56 + ^ x26: .cfa -64 + ^ x27: .cfa -72 + ^ x28: .cfa -80 + ^ .ra: .cfa -88 + ^ x29: .cfa -96 + ^
STACK CFI 62370 .cfa: sp 160 +
STACK CFI 6238c .cfa: sp 0 +
STACK CFI 62390 .cfa: x29 96 +
STACK CFI INIT 623cc 2a4 .cfa: sp 0 +
STACK CFI 623d0 .cfa: sp 144 +
STACK CFI 623ec .cfa: x29 96 + x19: .cfa -8 + ^ x20: .cfa -16 + ^ x21: .cfa -24 + ^ x22: .cfa -32 + ^ x23: .cfa -40 + ^ x24: .cfa -48 + ^ x25: .cfa -56 + ^ x26: .cfa -64 + ^ x27: .cfa -72 + ^ x28: .cfa -80 + ^ .ra: .cfa -88 + ^ x29: .cfa -96 + ^
STACK CFI 62614 .cfa: sp 144 +
STACK CFI 62630 .cfa: sp 0 +
STACK CFI 62634 .cfa: x29 96 +
STACK CFI INIT 62670 2b4 .cfa: sp 0 +
STACK CFI 62674 .cfa: sp 128 +
STACK CFI 6268c .cfa: x29 80 + x19: .cfa -8 + ^ x20: .cfa -16 + ^ x21: .cfa -24 + ^ x22: .cfa -32 + ^ x23: .cfa -40 + ^ x24: .cfa -48 + ^ x25: .cfa -56 + ^ x26: .cfa -64 + ^ .ra: .cfa -72 + ^ x29: .cfa -80 + ^
STACK CFI 62880 .cfa: sp 128 +
STACK CFI 62898 .cfa: sp 0 +
STACK CFI 6289c .cfa: x29 80 +
STACK CFI 62904 .cfa: sp 128 +
STACK CFI 6291c .cfa: sp 0 +
STACK CFI 62920 .cfa: x29 80 +
STACK CFI INIT 62924 dd4 .cfa: sp 0 +
STACK CFI 62928 .cfa: sp 144 +
STACK CFI 62944 .cfa: x29 96 + x19: .cfa -8 + ^ x20: .cfa -16 + ^ x21: .cfa -24 + ^ x22: .cfa -32 + ^ x23: .cfa -40 + ^ x24: .cfa -48 + ^ x25: .cfa -56 + ^ x26: .cfa -64 + ^ x27: .cfa -72 + ^ x28: .cfa -80 + ^ .ra: .cfa -88 + ^ x29: .cfa -96 + ^
STACK CFI 636d4 .cfa: sp 144 +
STACK CFI 636f0 .cfa: sp 0 +
STACK CFI 636f4 .cfa: x29 96 +
STACK CFI INIT 636f8 254 .cfa: sp 0 +
STACK CFI 636fc .cfa: sp 112 +
STACK CFI 63710 .cfa: x29 64 + x19: .cfa -8 + ^ x20: .cfa -16 + ^ x21: .cfa -24 + ^ x22: .cfa -32 + ^ x23: .cfa -40 + ^ x24: .cfa -48 + ^ .ra: .cfa -56 + ^ x29: .cfa -64 + ^
STACK CFI 6387c .cfa: sp 112 +
STACK CFI 63890 .cfa: sp 0 +
STACK CFI 63894 .cfa: x29 64 +
STACK CFI 63904 .cfa: sp 112 +
STACK CFI 63918 .cfa: sp 0 +
STACK CFI 6391c .cfa: x29 64 +
STACK CFI INIT 6394c 258 .cfa: sp 0 +
STACK CFI 63950 .cfa: sp 96 +
STACK CFI 63968 .cfa: x29 96 + x19: .cfa -8 + ^ x20: .cfa -16 + ^ x21: .cfa -24 + ^ x22: .cfa -32 + ^ x23: .cfa -40 + ^ x24: .cfa -48 + ^ x25: .cfa -56 + ^ x26: .cfa -64 + ^ x27: .cfa -72 + ^ x28: .cfa -80 + ^ .ra: .cfa -88 + ^ x29: .cfa -96 + ^
STACK CFI 63b60 .cfa: sp 96 +
STACK CFI 63b78 .cfa: sp 0 +
STACK CFI 63b7c .cfa: x29 96 +
STACK CFI 63b88 .cfa: sp 96 +
STACK CFI 63ba0 .cfa: sp 0 +
STACK CFI INIT 647e0 154 .cfa: sp 0 +
STACK CFI 647e4 .cfa: sp 96 +
STACK CFI 647f8 .cfa: x29 64 + x19: .cfa -8 + ^ x20: .cfa -16 + ^ x21: .cfa -24 + ^ x22: .cfa -32 + ^ x23: .cfa -48 + ^ .ra: .cfa -56 + ^ x29: .cfa -64 + ^
STACK CFI 648d8 .cfa: sp 96 +
STACK CFI 648ec .cfa: sp 0 +
STACK CFI 648f0 .cfa: x29 64 +
STACK CFI INIT 64b6c 44 .cfa: sp 0 +
STACK CFI 64b70 .cfa: sp 32 +
STACK CFI 64b78 .cfa: x29 32 + x19: .cfa -16 + ^ .ra: .cfa -24 + ^ x29: .cfa -32 + ^
STACK CFI 64b94 .cfa: sp 32 +
STACK CFI 64b9c .cfa: sp 0 +
STACK CFI 64ba0 .cfa: x29 32 +
STACK CFI 64ba4 .cfa: sp 32 +
STACK CFI 64bac .cfa: sp 0 +
STACK CFI INIT 64bb0 1a4 .cfa: sp 0 +
STACK CFI 64bb4 .cfa: sp 64 +
STACK CFI 64bc4 .cfa: x29 64 + x19: .cfa -8 + ^ x20: .cfa -16 + ^ x21: .cfa -24 + ^ x22: .cfa -32 + ^ x23: .cfa -40 + ^ x24: .cfa -48 + ^ .ra: .cfa -56 + ^ x29: .cfa -64 + ^
STACK CFI 64d40 .cfa: sp 64 +
STACK CFI 64d50 .cfa: sp 0 +
STACK CFI INIT 64d54 17c .cfa: sp 0 +
STACK CFI INIT 65274 a0 .cfa: sp 0 +
STACK CFI 65278 .cfa: sp 48 +
STACK CFI 65284 .cfa: x29 48 + x19: .cfa -8 + ^ x20: .cfa -16 + ^ x21: .cfa -24 + ^ x22: .cfa -32 + ^ .ra: .cfa -40 + ^ x29: .cfa -48 + ^
STACK CFI 652f0 .cfa: sp 48 +
STACK CFI 652fc .cfa: sp 0 +
STACK CFI 65300 .cfa: sp 48 +
STACK CFI 6530c .cfa: sp 0 +
STACK CFI 65310 .cfa: x29 48 +
STACK CFI INIT 65f8c 158 .cfa: sp 0 +
STACK CFI 65f90 .cfa: sp 96 +
STACK CFI 65fa4 .cfa: x29 64 + x19: .cfa -8 + ^ x20: .cfa -16 + ^ x21: .cfa -24 + ^ x22: .cfa -32 + ^ x23: .cfa -48 + ^ .ra: .cfa -56 + ^ x29: .cfa -64 + ^
STACK CFI 66088 .cfa: sp 96 +
STACK CFI 6609c .cfa: sp 0 +
STACK CFI 660a0 .cfa: x29 64 +
STACK CFI INIT 660e4 190 .cfa: sp 0 +
STACK CFI INIT 66d44 1f4 .cfa: sp 0 +
STACK CFI 66d48 .cfa: sp 80 +
STACK CFI 66d5c .cfa: x29 80 + x19: .cfa -8 + ^ x20: .cfa -16 + ^ x21: .cfa -24 + ^ x22: .cfa -32 + ^ x23: .cfa -40 + ^ x24: .cfa -48 + ^ x25: .cfa -64 + ^ .ra: .cfa -72 + ^ x29: .cfa -80 + ^
STACK CFI 66efc .cfa: sp 80 +
STACK CFI 66f10 .cfa: sp 0 +
STACK CFI 66f14 .cfa: x29 80 +
STACK CFI 66f20 .cfa: sp 80 +
STACK CFI 66f34 .cfa: sp 0 +
STACK CFI INIT 68288 124 .cfa: sp 0 +
STACK CFI 682b8 .cfa: sp 32 +
STACK CFI 682c0 .cfa: x29 32 + x19: .cfa -8 + ^ x20: .cfa -16 + ^ .ra: .cfa -24 + ^ x29: .cfa -32 + ^
STACK CFI 683a0 .cfa: sp 32 +
STACK CFI 683a8 .cfa: sp 0 +
STACK CFI INIT 68af0 2f4 .cfa: sp 0 +
STACK CFI 68af4 .cfa: sp 64 +
STACK CFI 68b04 .cfa: x29 64 + x19: .cfa -8 + ^ x20: .cfa -16 + ^ x21: .cfa -24 + ^ x22: .cfa -32 + ^ x23: .cfa -40 + ^ x24: .cfa -48 + ^ .ra: .cfa -56 + ^ x29: .cfa -64 + ^
STACK CFI 68d60 .cfa: sp 64 +
STACK CFI 68d70 .cfa: sp 0 +
STACK CFI 68d74 .cfa: x29 64 +
STACK CFI INIT 68de4 a0 .cfa: sp 0 +
STACK CFI 68de8 .cfa: sp 48 +
STACK CFI 68df4 .cfa: x29 48 + x19: .cfa -8 + ^ x20: .cfa -16 + ^ x21: .cfa -24 + ^ x22: .cfa -32 + ^ .ra: .cfa -40 + ^ x29: .cfa -48 + ^
STACK CFI 68e60 .cfa: sp 48 +
STACK CFI 68e6c .cfa: sp 0 +
STACK CFI 68e70 .cfa: sp 48 +
STACK CFI 68e7c .cfa: sp 0 +
STACK CFI 68e80 .cfa: x29 48 +
STACK CFI INIT 69d10 160 .cfa: sp 0 +
STACK CFI 69d14 .cfa: sp 64 +
STACK CFI 69d24 .cfa: x29 64 + x19: .cfa -8 + ^ x20: .cfa -16 + ^ x21: .cfa -24 + ^ x22: .cfa -32 + ^ x23: .cfa -48 + ^ .ra: .cfa -56 + ^ x29: .cfa -64 + ^
STACK CFI 69e1c .cfa: sp 64 +
STACK CFI 69e2c .cfa: sp 0 +
STACK CFI 69e30 .cfa: x29 64 +
STACK CFI INIT 69e70 214 .cfa: sp 0 +
STACK CFI 69e74 .cfa: sp 128 +
STACK CFI 69e90 .cfa: x29 96 + x19: .cfa -8 + ^ x20: .cfa -16 + ^ x21: .cfa -24 + ^ x22: .cfa -32 + ^ x23: .cfa -40 + ^ x24: .cfa -48 + ^ x25: .cfa -56 + ^ x26: .cfa -64 + ^ x27: .cfa -80 + ^ .ra: .cfa -88 + ^ x29: .cfa -96 + ^
STACK CFI 6a00c .cfa: sp 128 +
STACK CFI 6a028 .cfa: sp 0 +
STACK CFI 6a02c .cfa: x29 96 +
STACK CFI INIT 6b548 e30 .cfa: sp 0 +
STACK CFI 6b54c .cfa: sp 192 +
STACK CFI 6b568 .cfa: x29 96 + x19: .cfa -8 + ^ x20: .cfa -16 + ^ x21: .cfa -24 + ^ x22: .cfa -32 + ^ x23: .cfa -40 + ^ x24: .cfa -48 + ^ x25: .cfa -56 + ^ x26: .cfa -64 + ^ x27: .cfa -72 + ^ x28: .cfa -80 + ^ .ra: .cfa -88 + ^ x29: .cfa -96 + ^
STACK CFI 6c354 .cfa: sp 192 +
STACK CFI 6c370 .cfa: sp 0 +
STACK CFI 6c374 .cfa: x29 96 +
STACK CFI INIT 6c378 fd4 .cfa: sp 0 +
STACK CFI 6c37c .cfa: sp 288 +
STACK CFI 6c398 .cfa: x29 96 + x19: .cfa -8 + ^ x20: .cfa -16 + ^ x21: .cfa -24 + ^ x22: .cfa -32 + ^ x23: .cfa -40 + ^ x24: .cfa -48 + ^ x25: .cfa -56 + ^ x26: .cfa -64 + ^ x27: .cfa -72 + ^ x28: .cfa -80 + ^ .ra: .cfa -88 + ^ x29: .cfa -96 + ^
STACK CFI 6d328 .cfa: sp 288 +
STACK CFI 6d344 .cfa: sp 0 +
STACK CFI 6d348 .cfa: x29 96 +
STACK CFI INIT 6d34c 510 .cfa: sp 0 +
STACK CFI 6d350 .cfa: sp 144 +
STACK CFI 6d36c .cfa: x29 96 + x19: .cfa -8 + ^ x20: .cfa -16 + ^ x21: .cfa -24 + ^ x22: .cfa -32 + ^ x23: .cfa -40 + ^ x24: .cfa -48 + ^ x25: .cfa -56 + ^ x26: .cfa -64 + ^ x27: .cfa -72 + ^ x28: .cfa -80 + ^ .ra: .cfa -88 + ^ x29: .cfa -96 + ^
STACK CFI 6d838 .cfa: sp 144 +
STACK CFI 6d854 .cfa: sp 0 +
STACK CFI 6d858 .cfa: x29 96 +
STACK CFI INIT 37814 20 .cfa: sp 0 +
STACK CFI 37818 .cfa: sp 16 +
STACK CFI 3781c .cfa: x29 16 + .ra: .cfa -8 + ^ x29: .cfa -16 + ^
STACK CFI 37828 .cfa: sp 16 +
STACK CFI 3782c .cfa: sp 0 +
STACK CFI 37830 .cfa: x29 16 +
STACK CFI INIT 37fa0 444 .cfa: sp 0 +
STACK CFI 37fa4 .cfa: sp 224 +
STACK CFI 37fc0 .cfa: x29 96 + x19: .cfa -8 + ^ x20: .cfa -16 + ^ x21: .cfa -24 + ^ x22: .cfa -32 + ^ x23: .cfa -40 + ^ x24: .cfa -48 + ^ x25: .cfa -56 + ^ x26: .cfa -64 + ^ x27: .cfa -80 + ^ .ra: .cfa -88 + ^ x29: .cfa -96 + ^
STACK CFI 381f0 .cfa: sp 224 +
STACK CFI 3820c .cfa: sp 0 +
STACK CFI 38210 .cfa: x29 96 +
STACK CFI 382dc .cfa: sp 224 +
STACK CFI 382f8 .cfa: sp 0 +
STACK CFI 382fc .cfa: x29 96 +
STACK CFI INIT 38400 9b0 .cfa: sp 0 +
STACK CFI 38404 .cfa: sp 256 +
STACK CFI 3841c .cfa: x29 80 + x19: .cfa -8 + ^ x20: .cfa -16 + ^ x21: .cfa -24 + ^ x22: .cfa -32 + ^ x23: .cfa -40 + ^ x24: .cfa -48 + ^ x25: .cfa -56 + ^ x26: .cfa -64 + ^ .ra: .cfa -72 + ^ x29: .cfa -80 + ^
STACK CFI 38b48 .cfa: sp 256 +
STACK CFI 38b60 .cfa: sp 0 +
STACK CFI 38b64 .cfa: x29 80 +
STACK CFI INIT 38e00 74 .cfa: sp 0 +
STACK CFI 38e04 .cfa: sp 48 +
STACK CFI 38e10 .cfa: x29 32 + x19: .cfa -8 + ^ x20: .cfa -16 + ^ .ra: .cfa -24 + ^ x29: .cfa -32 + ^
STACK CFI 38e5c .cfa: sp 48 +
STACK CFI 38e68 .cfa: sp 0 +
STACK CFI 38e6c .cfa: x29 32 +
STACK CFI INIT 38ef4 154 .cfa: sp 0 +
STACK CFI 38ef8 .cfa: sp 384 +
STACK CFI 38f0c .cfa: x29 64 + x19: .cfa -8 + ^ x20: .cfa -16 + ^ x21: .cfa -24 + ^ x22: .cfa -32 + ^ x23: .cfa -40 + ^ x28: .cfa -48 + ^ .ra: .cfa -56 + ^ x29: .cfa -64 + ^
STACK CFI 38ff0 .cfa: sp 384 +
STACK CFI 39004 .cfa: sp 0 +
STACK CFI 39008 .cfa: x29 64 +
STACK CFI INIT 3907c 124 .cfa: sp 0 +
STACK CFI 39080 .cfa: sp 80 +
STACK CFI 39094 .cfa: x29 80 + x19: .cfa -8 + ^ x20: .cfa -16 + ^ x21: .cfa -24 + ^ x22: .cfa -32 + ^ x23: .cfa -40 + ^ x24: .cfa -48 + ^ x25: .cfa -56 + ^ x26: .cfa -64 + ^ .ra: .cfa -72 + ^ x29: .cfa -80 + ^
STACK CFI 39160 .cfa: sp 80 +
STACK CFI 39174 .cfa: sp 0 +
STACK CFI 39178 .cfa: x29 80 +
STACK CFI INIT 39244 198 .cfa: sp 0 +
STACK CFI 39248 .cfa: sp 112 +
STACK CFI 39260 .cfa: x29 80 + x19: .cfa -8 + ^ x20: .cfa -16 + ^ x21: .cfa -24 + ^ x22: .cfa -32 + ^ x23: .cfa -40 + ^ x24: .cfa -48 + ^ x25: .cfa -56 + ^ x26: .cfa -64 + ^ .ra: .cfa -72 + ^ x29: .cfa -80 + ^
STACK CFI 39350 .cfa: sp 112 +
STACK CFI 39368 .cfa: sp 0 +
STACK CFI 3936c .cfa: x29 80 +
STACK CFI INIT 393dc 1b4 .cfa: sp 0 +
STACK CFI 393e0 .cfa: sp 128 +
STACK CFI 393fc .cfa: x29 96 + x19: .cfa -8 + ^ x20: .cfa -16 + ^ x21: .cfa -24 + ^ x22: .cfa -32 + ^ x23: .cfa -40 + ^ x24: .cfa -48 + ^ x25: .cfa -56 + ^ x26: .cfa -64 + ^ x27: .cfa -80 + ^ .ra: .cfa -88 + ^ x29: .cfa -96 + ^
STACK CFI 39540 .cfa: sp 128 +
STACK CFI 3955c .cfa: sp 0 +
STACK CFI 39560 .cfa: x29 96 +
STACK CFI INIT 395a4 50 .cfa: sp 0 +
STACK CFI 395a8 .cfa: sp 32 +
STACK CFI 395b0 .cfa: x29 32 + x19: .cfa -8 + ^ x20: .cfa -16 + ^ .ra: .cfa -24 + ^ x29: .cfa -32 + ^
STACK CFI INIT 39658 15c .cfa: sp 0 +
STACK CFI 3965c .cfa: sp 80 +
STACK CFI 39670 .cfa: x29 80 + x19: .cfa -8 + ^ x20: .cfa -16 + ^ x21: .cfa -24 + ^ x22: .cfa -32 + ^ x23: .cfa -40 + ^ x24: .cfa -48 + ^ x25: .cfa -64 + ^ .ra: .cfa -72 + ^ x29: .cfa -80 + ^
STACK CFI 39780 .cfa: sp 80 +
STACK CFI 39794 .cfa: sp 0 +
STACK CFI 39798 .cfa: x29 80 +
STACK CFI INIT 398fc 21c .cfa: sp 0 +
STACK CFI 39900 .cfa: sp 128 +
STACK CFI 39918 .cfa: x29 80 + x19: .cfa -8 + ^ x20: .cfa -16 + ^ x21: .cfa -24 + ^ x22: .cfa -32 + ^ x23: .cfa -40 + ^ x24: .cfa -48 + ^ x25: .cfa -64 + ^ .ra: .cfa -72 + ^ x29: .cfa -80 + ^
STACK CFI 39aa8 .cfa: sp 128 +
STACK CFI 39ac0 .cfa: sp 0 +
STACK CFI 39ac4 .cfa: x29 80 +
STACK CFI INIT 3a200 870 .cfa: sp 0 +
STACK CFI 3a204 .cfa: sp 352 +
STACK CFI 3a21c .cfa: x29 80 + x19: .cfa -8 + ^ x20: .cfa -16 + ^ x21: .cfa -24 + ^ x22: .cfa -32 + ^ x23: .cfa -40 + ^ x24: .cfa -48 + ^ x25: .cfa -56 + ^ x28: .cfa -64 + ^ .ra: .cfa -72 + ^ x29: .cfa -80 + ^
STACK CFI 3a8cc .cfa: sp 352 +
STACK CFI 3a8e4 .cfa: sp 0 +
STACK CFI 3a8e8 .cfa: x29 80 +
STACK CFI INIT 3aa70 9c4 .cfa: sp 0 +
STACK CFI 3aa74 .cfa: sp 272 +
STACK CFI 3aa9c .cfa: x29 88 + x19: .cfa -8 + ^ x20: .cfa -16 + ^ x21: .cfa -24 + ^ x22: .cfa -32 + ^ x23: .cfa -40 + ^ x24: .cfa -48 + ^ x25: .cfa -56 + ^ x26: .cfa -64 + ^ x28: .cfa -72 + ^ .ra: .cfa -80 + ^ x29: .cfa -88 + ^ v8: .cfa -96 + ^ v9: .cfa -104 + ^ v10: .cfa -112 + ^ v11: .cfa -120 + ^ v12: .cfa -128 + ^
STACK CFI 3aae4 .cfa: sp 272 +
STACK CFI 3ab0c .cfa: sp 0 +
STACK CFI 3ab10 .cfa: x29 88 +
STACK CFI 3b39c .cfa: sp 272 +
STACK CFI 3b3c4 .cfa: sp 0 +
STACK CFI 3b3c8 .cfa: x29 88 +
STACK CFI INIT 3b5a8 114 .cfa: sp 0 +
STACK CFI 3b5ac .cfa: sp 96 +
STACK CFI 3b5c0 .cfa: x29 64 + x19: .cfa -8 + ^ x20: .cfa -16 + ^ x21: .cfa -24 + ^ x22: .cfa -32 + ^ x23: .cfa -48 + ^ .ra: .cfa -56 + ^ x29: .cfa -64 + ^
STACK CFI 3b674 .cfa: sp 96 +
STACK CFI 3b688 .cfa: sp 0 +
STACK CFI 3b68c .cfa: x29 64 +
STACK CFI INIT 3b6bc 150 .cfa: sp 0 +
STACK CFI 3b6c0 .cfa: sp 144 +
STACK CFI 3b6d4 .cfa: x29 64 + x19: .cfa -8 + ^ x20: .cfa -16 + ^ x21: .cfa -24 + ^ x22: .cfa -32 + ^ x23: .cfa -40 + ^ x24: .cfa -48 + ^ .ra: .cfa -56 + ^ x29: .cfa -64 + ^
STACK CFI 3b7a0 .cfa: sp 144 +
STACK CFI 3b7b4 .cfa: sp 0 +
STACK CFI 3b7b8 .cfa: x29 64 +
STACK CFI INIT 3b80c 6b8 .cfa: sp 0 +
STACK CFI 3b810 .cfa: sp 224 +
STACK CFI 3b82c .cfa: x29 96 + x19: .cfa -8 + ^ x20: .cfa -16 + ^ x21: .cfa -24 + ^ x22: .cfa -32 + ^ x23: .cfa -40 + ^ x24: .cfa -48 + ^ x25: .cfa -56 + ^ x26: .cfa -64 + ^ x27: .cfa -72 + ^ x28: .cfa -80 + ^ .ra: .cfa -88 + ^ x29: .cfa -96 + ^
STACK CFI 3bd54 .cfa: sp 224 +
STACK CFI 3bd70 .cfa: sp 0 +
STACK CFI 3bd74 .cfa: x29 96 +
STACK CFI INIT 3bf04 50 .cfa: sp 0 +
STACK CFI 3bf08 .cfa: sp 32 +
STACK CFI 3bf10 .cfa: x29 32 + x19: .cfa -8 + ^ x20: .cfa -16 + ^ .ra: .cfa -24 + ^ x29: .cfa -32 + ^
STACK CFI INIT 3c62c 134 .cfa: sp 0 +
STACK CFI 3c630 .cfa: sp 80 +
STACK CFI 3c640 .cfa: x29 48 + x19: .cfa -8 + ^ x20: .cfa -16 + ^ x21: .cfa -24 + ^ x22: .cfa -32 + ^ .ra: .cfa -40 + ^ x29: .cfa -48 + ^
STACK CFI 3c744 .cfa: sp 80 +
STACK CFI 3c754 .cfa: sp 0 +
STACK CFI 3c758 .cfa: x29 48 +
STACK CFI INIT 3c844 13c .cfa: sp 0 +
STACK CFI 3c848 .cfa: sp 112 +
STACK CFI 3c858 .cfa: x29 48 + x19: .cfa -8 + ^ x20: .cfa -16 + ^ x21: .cfa -32 + ^ .ra: .cfa -40 + ^ x29: .cfa -48 + ^
STACK CFI 3c918 .cfa: sp 112 +
STACK CFI 3c928 .cfa: sp 0 +
STACK CFI 3c92c .cfa: x29 48 +
STACK CFI INIT 3cd4c 126c .cfa: sp 0 +
STACK CFI 3cd50 .cfa: sp 144 +
STACK CFI 3cd6c .cfa: x29 72 + x19: .cfa -8 + ^ x20: .cfa -16 + ^ x21: .cfa -24 + ^ x22: .cfa -32 + ^ x23: .cfa -40 + ^ x24: .cfa -48 + ^ x25: .cfa -56 + ^ .ra: .cfa -64 + ^ x29: .cfa -72 + ^ v8: .cfa -80 + ^
STACK CFI 3dcb4 .cfa: sp 144 +
STACK CFI 3dcd0 .cfa: sp 0 +
STACK CFI 3dcd4 .cfa: x29 72 +
STACK CFI INIT 3dfb8 194 .cfa: sp 0 +
STACK CFI 3dfbc .cfa: sp 144 +
STACK CFI 3dfcc .cfa: x29 48 + x19: .cfa -8 + ^ x20: .cfa -16 + ^ x21: .cfa -24 + ^ x22: .cfa -32 + ^ .ra: .cfa -40 + ^ x29: .cfa -48 + ^
STACK CFI 3e0cc .cfa: sp 144 +
STACK CFI 3e0dc .cfa: sp 0 +
STACK CFI 3e0e0 .cfa: x29 48 +
STACK CFI INIT 3e14c 1c8 .cfa: sp 0 +
STACK CFI 3e150 .cfa: sp 112 +
STACK CFI 3e160 .cfa: x29 48 + x19: .cfa -8 + ^ x20: .cfa -16 + ^ x21: .cfa -24 + ^ x22: .cfa -32 + ^ .ra: .cfa -40 + ^ x29: .cfa -48 + ^
STACK CFI 3e2b4 .cfa: sp 112 +
STACK CFI 3e2c4 .cfa: sp 0 +
STACK CFI 3e2c8 .cfa: x29 48 +
STACK CFI INIT 3e55c 24c .cfa: sp 0 +
STACK CFI 3e560 .cfa: sp 96 +
STACK CFI 3e574 .cfa: x29 64 + x19: .cfa -8 + ^ x20: .cfa -16 + ^ x21: .cfa -24 + ^ x22: .cfa -32 + ^ x23: .cfa -48 + ^ .ra: .cfa -56 + ^ x29: .cfa -64 + ^
STACK CFI 3e768 .cfa: sp 96 +
STACK CFI 3e77c .cfa: sp 0 +
STACK CFI 3e780 .cfa: x29 64 +
STACK CFI INIT 3e7ec 140 .cfa: sp 0 +
STACK CFI 3e7f0 .cfa: sp 336 +
STACK CFI 3e804 .cfa: x29 64 + x19: .cfa -8 + ^ x20: .cfa -16 + ^ x21: .cfa -24 + ^ x22: .cfa -32 + ^ x28: .cfa -48 + ^ .ra: .cfa -56 + ^ x29: .cfa -64 + ^
STACK CFI 3e8ec .cfa: sp 336 +
STACK CFI 3e900 .cfa: sp 0 +
STACK CFI 3e904 .cfa: x29 64 +
STACK CFI INIT 3e92c 8f8 .cfa: sp 0 +
STACK CFI 3e930 .cfa: sp 272 +
STACK CFI 3e94c .cfa: x29 96 + x19: .cfa -8 + ^ x20: .cfa -16 + ^ x21: .cfa -24 + ^ x22: .cfa -32 + ^ x23: .cfa -40 + ^ x24: .cfa -48 + ^ x25: .cfa -56 + ^ x26: .cfa -64 + ^ x27: .cfa -72 + ^ x28: .cfa -80 + ^ .ra: .cfa -88 + ^ x29: .cfa -96 + ^
STACK CFI 3eaa0 .cfa: sp 272 +
STACK CFI 3eabc .cfa: sp 0 +
STACK CFI 3eac0 .cfa: x29 96 +
STACK CFI 3efbc .cfa: sp 272 +
STACK CFI 3efd8 .cfa: sp 0 +
STACK CFI 3efdc .cfa: x29 96 +
STACK CFI INIT 3f240 94c .cfa: sp 0 +
STACK CFI 3f244 .cfa: sp 224 +
STACK CFI 3f25c .cfa: x29 80 + x19: .cfa -8 + ^ x20: .cfa -16 + ^ x21: .cfa -24 + ^ x22: .cfa -32 + ^ x23: .cfa -40 + ^ x24: .cfa -48 + ^ x25: .cfa -56 + ^ x26: .cfa -64 + ^ .ra: .cfa -72 + ^ x29: .cfa -80 + ^
STACK CFI 3f944 .cfa: sp 224 +
STACK CFI 3f95c .cfa: sp 0 +
STACK CFI 3f960 .cfa: x29 80 +
STACK CFI INIT 3fb90 110 .cfa: sp 0 +
STACK CFI 3fb94 .cfa: sp 96 +
STACK CFI 3fba8 .cfa: x29 64 + x19: .cfa -8 + ^ x20: .cfa -16 + ^ x21: .cfa -24 + ^ x22: .cfa -32 + ^ x23: .cfa -40 + ^ x24: .cfa -48 + ^ .ra: .cfa -56 + ^ x29: .cfa -64 + ^
STACK CFI 3fbf0 .cfa: sp 96 +
STACK CFI 3fc04 .cfa: sp 0 +
STACK CFI 3fc08 .cfa: x29 64 +
STACK CFI INIT 3fd1c 168 .cfa: sp 0 +
STACK CFI 3fd20 .cfa: sp 384 +
STACK CFI 3fd34 .cfa: x29 64 + x19: .cfa -8 + ^ x20: .cfa -16 + ^ x21: .cfa -24 + ^ x22: .cfa -32 + ^ x23: .cfa -40 + ^ x28: .cfa -48 + ^ .ra: .cfa -56 + ^ x29: .cfa -64 + ^
STACK CFI 3fe2c .cfa: sp 384 +
STACK CFI 3fe40 .cfa: sp 0 +
STACK CFI 3fe44 .cfa: x29 64 +
STACK CFI INIT 3ff18 174 .cfa: sp 0 +
STACK CFI 3ff1c .cfa: sp 112 +
STACK CFI 3ff2c .cfa: x29 48 + x19: .cfa -8 + ^ x20: .cfa -16 + ^ x21: .cfa -32 + ^ .ra: .cfa -40 + ^ x29: .cfa -48 + ^
STACK CFI 40028 .cfa: sp 112 +
STACK CFI 40038 .cfa: sp 0 +
STACK CFI 4003c .cfa: x29 48 +
STACK CFI INIT 40164 a8 .cfa: sp 0 +
STACK CFI 40168 .cfa: sp 32 +
STACK CFI 40170 .cfa: x29 32 + x19: .cfa -8 + ^ x20: .cfa -16 + ^ .ra: .cfa -24 + ^ x29: .cfa -32 + ^
STACK CFI 401a4 .cfa: sp 32 +
STACK CFI 401ac .cfa: sp 0 +
STACK CFI 401b0 .cfa: x29 32 +
STACK CFI 401b4 .cfa: sp 32 +
STACK CFI 401bc .cfa: sp 0 +
STACK CFI 401c0 .cfa: x29 32 +
STACK CFI INIT 4020c 984 .cfa: sp 0 +
STACK CFI 40210 .cfa: sp 352 +
STACK CFI 4022c .cfa: x29 80 + x19: .cfa -8 + ^ x20: .cfa -16 + ^ x21: .cfa -24 + ^ x22: .cfa -32 + ^ x23: .cfa -40 + ^ x24: .cfa -48 + ^ x25: .cfa -56 + ^ x28: .cfa -64 + ^ .ra: .cfa -72 + ^ x29: .cfa -80 + ^ v8: .cfa -96 + ^
STACK CFI 409f0 .cfa: sp 352 +
STACK CFI 40a0c .cfa: sp 0 +
STACK CFI 40a10 .cfa: x29 80 +
STACK CFI INIT 40b90 a8 .cfa: sp 0 +
STACK CFI 40b94 .cfa: sp 32 +
STACK CFI 40b9c .cfa: x29 32 + x19: .cfa -8 + ^ x20: .cfa -16 + ^ .ra: .cfa -24 + ^ x29: .cfa -32 + ^
STACK CFI 40bd0 .cfa: sp 32 +
STACK CFI 40bd8 .cfa: sp 0 +
STACK CFI 40bdc .cfa: x29 32 +
STACK CFI 40be0 .cfa: sp 32 +
STACK CFI 40be8 .cfa: sp 0 +
STACK CFI 40bec .cfa: x29 32 +
STACK CFI INIT 4105c b04 .cfa: sp 0 +
STACK CFI 41060 .cfa: sp 480 +
STACK CFI 41084 .cfa: x29 96 + x19: .cfa -8 + ^ x20: .cfa -16 + ^ x21: .cfa -24 + ^ x22: .cfa -32 + ^ x23: .cfa -40 + ^ x24: .cfa -48 + ^ x25: .cfa -56 + ^ x26: .cfa -64 + ^ x27: .cfa -72 + ^ x28: .cfa -80 + ^ .ra: .cfa -88 + ^ x29: .cfa -96 + ^ v8: .cfa -104 + ^ v9: .cfa -112 + ^ v10: .cfa -128 + ^
STACK CFI 41a00 .cfa: sp 480 +
STACK CFI 41a24 .cfa: sp 0 +
STACK CFI 41a28 .cfa: x29 96 +
STACK CFI INIT 41cdc 638 .cfa: sp 0 +
STACK CFI 41ce0 .cfa: sp 464 +
STACK CFI 41d04 .cfa: x29 96 + x19: .cfa -8 + ^ x20: .cfa -16 + ^ x21: .cfa -24 + ^ x22: .cfa -32 + ^ x23: .cfa -40 + ^ x24: .cfa -48 + ^ x25: .cfa -56 + ^ x26: .cfa -64 + ^ x27: .cfa -72 + ^ x28: .cfa -80 + ^ .ra: .cfa -88 + ^ x29: .cfa -96 + ^ v8: .cfa -104 + ^ v9: .cfa -112 + ^ v10: .cfa -128 + ^
STACK CFI 4220c .cfa: sp 464 +
STACK CFI 42230 .cfa: sp 0 +
STACK CFI 42234 .cfa: x29 96 +
STACK CFI INIT 4322c 2ec .cfa: sp 0 +
STACK CFI 43230 .cfa: sp 160 +
STACK CFI 43248 .cfa: x29 80 + x19: .cfa -8 + ^ x20: .cfa -16 + ^ x21: .cfa -24 + ^ x22: .cfa -32 + ^ x23: .cfa -40 + ^ x24: .cfa -48 + ^ x25: .cfa -64 + ^ .ra: .cfa -72 + ^ x29: .cfa -80 + ^
STACK CFI 43484 .cfa: sp 160 +
STACK CFI 4349c .cfa: sp 0 +
STACK CFI 434a0 .cfa: x29 80 +
STACK CFI INIT 438d0 28c .cfa: sp 0 +
STACK CFI 438d4 .cfa: sp 80 +
STACK CFI 438e8 .cfa: x29 80 + x19: .cfa -8 + ^ x20: .cfa -16 + ^ x21: .cfa -24 + ^ x22: .cfa -32 + ^ x23: .cfa -40 + ^ x24: .cfa -48 + ^ x25: .cfa -56 + ^ x26: .cfa -64 + ^ .ra: .cfa -72 + ^ x29: .cfa -80 + ^
STACK CFI 43b30 .cfa: sp 80 +
STACK CFI 43b44 .cfa: sp 0 +
STACK CFI 43b48 .cfa: x29 80 +
STACK CFI INIT 43c0c 148 .cfa: sp 0 +
STACK CFI 43c10 .cfa: sp 112 +
STACK CFI 43c20 .cfa: x29 48 + x19: .cfa -8 + ^ x20: .cfa -16 + ^ x21: .cfa -24 + ^ x22: .cfa -32 + ^ .ra: .cfa -40 + ^ x29: .cfa -48 + ^
STACK CFI 43d00 .cfa: sp 112 +
STACK CFI 43d10 .cfa: sp 0 +
STACK CFI 43d14 .cfa: x29 48 +
STACK CFI INIT 43f78 168 .cfa: sp 0 +
STACK CFI 43f7c .cfa: sp 96 +
STACK CFI 43f8c .cfa: x29 48 + x19: .cfa -8 + ^ x20: .cfa -16 + ^ x21: .cfa -32 + ^ .ra: .cfa -40 + ^ x29: .cfa -48 + ^
STACK CFI 440c4 .cfa: sp 96 +
STACK CFI 440d4 .cfa: sp 0 +
STACK CFI 440d8 .cfa: x29 48 +
STACK CFI INIT 44254 750 .cfa: sp 0 +
STACK CFI 44258 .cfa: sp 176 +
STACK CFI 44274 .cfa: x29 96 + x19: .cfa -8 + ^ x20: .cfa -16 + ^ x21: .cfa -24 + ^ x22: .cfa -32 + ^ x23: .cfa -40 + ^ x24: .cfa -48 + ^ x25: .cfa -56 + ^ x26: .cfa -64 + ^ x27: .cfa -72 + ^ x28: .cfa -80 + ^ .ra: .cfa -88 + ^ x29: .cfa -96 + ^
STACK CFI 448a0 .cfa: sp 176 +
STACK CFI 448bc .cfa: sp 0 +
STACK CFI 448c0 .cfa: x29 96 +
STACK CFI INIT 449a4 148 .cfa: sp 0 +
STACK CFI 449a8 .cfa: sp 112 +
STACK CFI 449b8 .cfa: x29 48 + x19: .cfa -8 + ^ x20: .cfa -16 + ^ x21: .cfa -24 + ^ x22: .cfa -32 + ^ .ra: .cfa -40 + ^ x29: .cfa -48 + ^
STACK CFI 44a98 .cfa: sp 112 +
STACK CFI 44aa8 .cfa: sp 0 +
STACK CFI 44aac .cfa: x29 48 +
STACK CFI INIT 44bc8 e4 .cfa: sp 0 +
STACK CFI 44bcc .cfa: sp 32 +
STACK CFI 44bd4 .cfa: x29 32 + x19: .cfa -8 + ^ x20: .cfa -16 + ^ .ra: .cfa -24 + ^ x29: .cfa -32 + ^
STACK CFI 44c74 .cfa: sp 32 +
STACK CFI 44c7c .cfa: sp 0 +
STACK CFI 44c80 .cfa: x29 32 +
STACK CFI INIT 44cac d4 .cfa: sp 0 +
STACK CFI 44cb0 .cfa: sp 32 +
STACK CFI 44cb8 .cfa: x29 32 + x19: .cfa -8 + ^ x20: .cfa -16 + ^ .ra: .cfa -24 + ^ x29: .cfa -32 + ^
STACK CFI 44d58 .cfa: sp 32 +
STACK CFI 44d60 .cfa: sp 0 +
STACK CFI 44d64 .cfa: x29 32 +
STACK CFI INIT 44fa4 e4 .cfa: sp 0 +
STACK CFI 44fa8 .cfa: sp 32 +
STACK CFI 44fb0 .cfa: x29 32 + x19: .cfa -8 + ^ x20: .cfa -16 + ^ .ra: .cfa -24 + ^ x29: .cfa -32 + ^
STACK CFI 45050 .cfa: sp 32 +
STACK CFI 45058 .cfa: sp 0 +
STACK CFI 4505c .cfa: x29 32 +
STACK CFI INIT 45088 d4 .cfa: sp 0 +
STACK CFI 4508c .cfa: sp 32 +
STACK CFI 45094 .cfa: x29 32 + x19: .cfa -8 + ^ x20: .cfa -16 + ^ .ra: .cfa -24 + ^ x29: .cfa -32 + ^
STACK CFI 45134 .cfa: sp 32 +
STACK CFI 4513c .cfa: sp 0 +
STACK CFI 45140 .cfa: x29 32 +
STACK CFI INIT 452a4 974 .cfa: sp 0 +
STACK CFI 452a8 .cfa: sp 320 +
STACK CFI 452c4 .cfa: x29 72 + x19: .cfa -8 + ^ x20: .cfa -16 + ^ x21: .cfa -24 + ^ x22: .cfa -32 + ^ x23: .cfa -40 + ^ x24: .cfa -48 + ^ x28: .cfa -56 + ^ .ra: .cfa -64 + ^ x29: .cfa -72 + ^ v8: .cfa -80 + ^
STACK CFI 45b34 .cfa: sp 320 +
STACK CFI 45b50 .cfa: sp 0 +
STACK CFI 45b54 .cfa: x29 72 +
STACK CFI INIT 46190 2850 .cfa: sp 0 +
STACK CFI 46194 .cfa: sp 160 +
STACK CFI 461bc .cfa: x29 96 + x19: .cfa -8 + ^ x20: .cfa -16 + ^ x21: .cfa -24 + ^ x22: .cfa -32 + ^ x23: .cfa -40 + ^ x24: .cfa -48 + ^ x25: .cfa -56 + ^ x26: .cfa -64 + ^ x27: .cfa -72 + ^ x28: .cfa -80 + ^ .ra: .cfa -88 + ^ x29: .cfa -96 + ^ v8: .cfa -104 + ^ v9: .cfa -112 + ^ v10: .cfa -120 + ^ v11: .cfa -128 + ^ v12: .cfa -136 + ^ v13: .cfa -144 + ^ v14: .cfa -152 + ^ v15: .cfa -160 + ^
STACK CFI 48428 .cfa: sp 160 +
STACK CFI 48450 .cfa: sp 0 +
STACK CFI 48454 .cfa: x29 96 +
STACK CFI INIT 489e0 1a8 .cfa: sp 0 +
STACK CFI 489e4 .cfa: sp 192 +
STACK CFI 489fc .cfa: x29 80 + x19: .cfa -8 + ^ x20: .cfa -16 + ^ x21: .cfa -24 + ^ x22: .cfa -32 + ^ x23: .cfa -40 + ^ x24: .cfa -48 + ^ x25: .cfa -64 + ^ .ra: .cfa -72 + ^ x29: .cfa -80 + ^
STACK CFI 48b0c .cfa: sp 192 +
STACK CFI 48b24 .cfa: sp 0 +
STACK CFI 48b28 .cfa: x29 80 +
STACK CFI INIT 48d54 c04 .cfa: sp 0 +
STACK CFI 48d58 .cfa: sp 384 +
STACK CFI 48d74 .cfa: x29 96 + x19: .cfa -8 + ^ x20: .cfa -16 + ^ x21: .cfa -24 + ^ x22: .cfa -32 + ^ x23: .cfa -40 + ^ x24: .cfa -48 + ^ x25: .cfa -56 + ^ x26: .cfa -64 + ^ x27: .cfa -72 + ^ x28: .cfa -80 + ^ .ra: .cfa -88 + ^ x29: .cfa -96 + ^
STACK CFI 49284 .cfa: sp 384 +
STACK CFI 492a0 .cfa: sp 0 +
STACK CFI 492a4 .cfa: x29 96 +
STACK CFI INIT 49988 74 .cfa: sp 0 +
STACK CFI 4998c .cfa: sp 48 +
STACK CFI 49998 .cfa: x29 32 + x19: .cfa -8 + ^ x20: .cfa -16 + ^ .ra: .cfa -24 + ^ x29: .cfa -32 + ^
STACK CFI 499e4 .cfa: sp 48 +
STACK CFI 499f0 .cfa: sp 0 +
STACK CFI 499f4 .cfa: x29 32 +
STACK CFI INIT 499fc 12c .cfa: sp 0 +
STACK CFI 49a00 .cfa: sp 80 +
STACK CFI 49a10 .cfa: x29 48 + x19: .cfa -8 + ^ x20: .cfa -16 + ^ x21: .cfa -24 + ^ x22: .cfa -32 + ^ .ra: .cfa -40 + ^ x29: .cfa -48 + ^
STACK CFI 49b0c .cfa: sp 80 +
STACK CFI 49b1c .cfa: sp 0 +
STACK CFI 49b20 .cfa: x29 48 +
STACK CFI INIT 49b28 74 .cfa: sp 0 +
STACK CFI 49b2c .cfa: sp 48 +
STACK CFI 49b38 .cfa: x29 32 + x19: .cfa -8 + ^ x20: .cfa -16 + ^ .ra: .cfa -24 + ^ x29: .cfa -32 + ^
STACK CFI 49b84 .cfa: sp 48 +
STACK CFI 49b90 .cfa: sp 0 +
STACK CFI 49b94 .cfa: x29 32 +
STACK CFI INIT 49b9c 74 .cfa: sp 0 +
STACK CFI 49ba0 .cfa: sp 48 +
STACK CFI 49bac .cfa: x29 32 + x19: .cfa -8 + ^ x20: .cfa -16 + ^ .ra: .cfa -24 + ^ x29: .cfa -32 + ^
STACK CFI 49bf8 .cfa: sp 48 +
STACK CFI 49c04 .cfa: sp 0 +
STACK CFI 49c08 .cfa: x29 32 +
STACK CFI INIT 49c10 74 .cfa: sp 0 +
STACK CFI 49c14 .cfa: sp 48 +
STACK CFI 49c20 .cfa: x29 32 + x19: .cfa -8 + ^ x20: .cfa -16 + ^ .ra: .cfa -24 + ^ x29: .cfa -32 + ^
STACK CFI 49c6c .cfa: sp 48 +
STACK CFI 49c78 .cfa: sp 0 +
STACK CFI 49c7c .cfa: x29 32 +
STACK CFI INIT 49cec 2f4 .cfa: sp 0 +
STACK CFI 49cf0 .cfa: sp 224 +
STACK CFI 49d08 .cfa: x29 56 + x19: .cfa -8 + ^ x20: .cfa -16 + ^ x21: .cfa -24 + ^ x22: .cfa -32 + ^ x23: .cfa -40 + ^ .ra: .cfa -48 + ^ x29: .cfa -56 + ^ v8: .cfa -64 + ^
STACK CFI 49f78 .cfa: sp 224 +
STACK CFI 49f90 .cfa: sp 0 +
STACK CFI 49f94 .cfa: x29 56 +
STACK CFI INIT 49fe0 13c .cfa: sp 0 +
STACK CFI 49fe4 .cfa: sp 48 +
STACK CFI 49ff0 .cfa: x29 48 + x19: .cfa -8 + ^ x20: .cfa -16 + ^ x21: .cfa -32 + ^ .ra: .cfa -40 + ^ x29: .cfa -48 + ^
STACK CFI 4a0b0 .cfa: sp 48 +
STACK CFI 4a0bc .cfa: sp 0 +
STACK CFI 4a0c0 .cfa: x29 48 +
STACK CFI INIT 4a388 14c .cfa: sp 0 +
STACK CFI 4a38c .cfa: sp 112 +
STACK CFI 4a3a0 .cfa: x29 40 + x19: .cfa -8 + ^ x20: .cfa -16 + ^ x21: .cfa -24 + ^ .ra: .cfa -32 + ^ x29: .cfa -40 + ^ v8: .cfa -48 + ^
STACK CFI 4a468 .cfa: sp 112 +
STACK CFI 4a47c .cfa: sp 0 +
STACK CFI 4a480 .cfa: x29 40 +
STACK CFI INIT 4ab20 118 .cfa: sp 0 +
STACK CFI 4ab24 .cfa: sp 96 +
STACK CFI 4ab38 .cfa: x29 64 + x19: .cfa -8 + ^ x20: .cfa -16 + ^ x21: .cfa -24 + ^ x22: .cfa -32 + ^ x23: .cfa -40 + ^ x24: .cfa -48 + ^ .ra: .cfa -56 + ^ x29: .cfa -64 + ^
STACK CFI 4abc0 .cfa: sp 96 +
STACK CFI 4abd4 .cfa: sp 0 +
STACK CFI 4abd8 .cfa: x29 64 +
STACK CFI INIT 4af38 60 .cfa: sp 0 +
STACK CFI 4af3c .cfa: sp 32 +
STACK CFI 4af44 .cfa: x29 32 + x19: .cfa -8 + ^ x20: .cfa -16 + ^ .ra: .cfa -24 + ^ x29: .cfa -32 + ^
STACK CFI 4af78 .cfa: sp 32 +
STACK CFI 4af80 .cfa: sp 0 +
STACK CFI 4af84 .cfa: x29 32 +
STACK CFI INIT 4b0b4 10c .cfa: sp 0 +
STACK CFI 4b0b8 .cfa: sp 192 +
STACK CFI 4b0c4 .cfa: x29 32 + x19: .cfa -8 + ^ x20: .cfa -16 + ^ .ra: .cfa -24 + ^ x29: .cfa -32 + ^
STACK CFI 4b178 .cfa: sp 192 +
STACK CFI 4b184 .cfa: sp 0 +
STACK CFI 4b188 .cfa: x29 32 +
STACK CFI INIT 4b2f4 54 .cfa: sp 0 +
STACK CFI 4b2f8 .cfa: sp 32 +
STACK CFI 4b300 .cfa: x29 32 + x19: .cfa -8 + ^ x20: .cfa -16 + ^ .ra: .cfa -24 + ^ x29: .cfa -32 + ^
STACK CFI 4b328 .cfa: sp 32 +
STACK CFI 4b330 .cfa: sp 0 +
STACK CFI 4b334 .cfa: x29 32 +
STACK CFI INIT 4b458 a8 .cfa: sp 0 +
STACK CFI 4b45c .cfa: sp 48 +
STACK CFI 4b468 .cfa: x29 32 + x19: .cfa -8 + ^ x20: .cfa -16 + ^ .ra: .cfa -24 + ^ x29: .cfa -32 + ^
STACK CFI 4b4b4 .cfa: sp 48 +
STACK CFI 4b4c0 .cfa: sp 0 +
STACK CFI 4b4c4 .cfa: x29 32 +
STACK CFI INIT 4b634 5c .cfa: sp 0 +
STACK CFI 4b638 .cfa: sp 32 +
STACK CFI 4b640 .cfa: x29 32 + x19: .cfa -8 + ^ x20: .cfa -16 + ^ .ra: .cfa -24 + ^ x29: .cfa -32 + ^
STACK CFI 4b670 .cfa: sp 32 +
STACK CFI 4b678 .cfa: sp 0 +
STACK CFI 4b67c .cfa: x29 32 +
STACK CFI INIT 4b7c4 1cc .cfa: sp 0 +
STACK CFI 4b7c8 .cfa: sp 256 +
STACK CFI 4b7d8 .cfa: x29 48 + x19: .cfa -8 + ^ x20: .cfa -16 + ^ x21: .cfa -32 + ^ .ra: .cfa -40 + ^ x29: .cfa -48 + ^
STACK CFI 4b8f0 .cfa: sp 256 +
STACK CFI 4b900 .cfa: sp 0 +
STACK CFI 4b904 .cfa: x29 48 +
STACK CFI INIT 4bac4 68 .cfa: sp 0 +
STACK CFI 4bac8 .cfa: sp 32 +
STACK CFI 4bad0 .cfa: x29 32 + x19: .cfa -8 + ^ x20: .cfa -16 + ^ .ra: .cfa -24 + ^ x29: .cfa -32 + ^
STACK CFI 4bb0c .cfa: sp 32 +
STACK CFI 4bb14 .cfa: sp 0 +
STACK CFI 4bb18 .cfa: x29 32 +
STACK CFI INIT 4bc68 114 .cfa: sp 0 +
STACK CFI 4bc6c .cfa: sp 208 +
STACK CFI 4bc7c .cfa: x29 48 + x19: .cfa -8 + ^ x20: .cfa -16 + ^ x21: .cfa -32 + ^ .ra: .cfa -40 + ^ x29: .cfa -48 + ^
STACK CFI 4bd30 .cfa: sp 208 +
STACK CFI 4bd40 .cfa: sp 0 +
STACK CFI 4bd44 .cfa: x29 48 +
STACK CFI INIT 4bf04 13c .cfa: sp 0 +
STACK CFI 4bf08 .cfa: sp 112 +
STACK CFI 4bf20 .cfa: x29 80 + x19: .cfa -8 + ^ x20: .cfa -16 + ^ x21: .cfa -24 + ^ x22: .cfa -32 + ^ x23: .cfa -40 + ^ x24: .cfa -48 + ^ x25: .cfa -64 + ^ .ra: .cfa -72 + ^ x29: .cfa -80 + ^
STACK CFI 4bfd4 .cfa: sp 112 +
STACK CFI 4bfec .cfa: sp 0 +
STACK CFI 4bff0 .cfa: x29 80 +
STACK CFI INIT 4c040 12c .cfa: sp 0 +
STACK CFI 4c044 .cfa: sp 112 +
STACK CFI 4c05c .cfa: x29 80 + x19: .cfa -8 + ^ x20: .cfa -16 + ^ x21: .cfa -24 + ^ x22: .cfa -32 + ^ x23: .cfa -40 + ^ x24: .cfa -48 + ^ x25: .cfa -64 + ^ .ra: .cfa -72 + ^ x29: .cfa -80 + ^
STACK CFI 4c108 .cfa: sp 112 +
STACK CFI 4c120 .cfa: sp 0 +
STACK CFI 4c124 .cfa: x29 80 +
STACK CFI INIT 4c2b4 1d0 .cfa: sp 0 +
STACK CFI 4c2b8 .cfa: sp 144 +
STACK CFI 4c2cc .cfa: x29 64 + x19: .cfa -8 + ^ x20: .cfa -16 + ^ x21: .cfa -24 + ^ x22: .cfa -32 + ^ x23: .cfa -40 + ^ x24: .cfa -48 + ^ .ra: .cfa -56 + ^ x29: .cfa -64 + ^
STACK CFI 4c400 .cfa: sp 144 +
STACK CFI 4c414 .cfa: sp 0 +
STACK CFI 4c418 .cfa: x29 64 +
STACK CFI INIT 4c4ac cb4 .cfa: sp 0 +
STACK CFI 4c4b0 .cfa: sp 496 +
STACK CFI 4c4cc .cfa: x29 96 + x19: .cfa -8 + ^ x20: .cfa -16 + ^ x21: .cfa -24 + ^ x22: .cfa -32 + ^ x23: .cfa -40 + ^ x24: .cfa -48 + ^ x25: .cfa -56 + ^ x26: .cfa -64 + ^ x27: .cfa -72 + ^ x28: .cfa -80 + ^ .ra: .cfa -88 + ^ x29: .cfa -96 + ^
STACK CFI 4cfa4 .cfa: sp 496 +
STACK CFI 4cfc0 .cfa: sp 0 +
STACK CFI 4cfc4 .cfa: x29 96 +
STACK CFI INIT 4d1dc 2d8 .cfa: sp 0 +
STACK CFI 4d1e0 .cfa: sp 144 +
STACK CFI 4d1f8 .cfa: x29 80 + x19: .cfa -8 + ^ x20: .cfa -16 + ^ x21: .cfa -24 + ^ x22: .cfa -32 + ^ x23: .cfa -40 + ^ x24: .cfa -48 + ^ x25: .cfa -56 + ^ x26: .cfa -64 + ^ .ra: .cfa -72 + ^ x29: .cfa -80 + ^
STACK CFI 4d440 .cfa: sp 144 +
STACK CFI 4d458 .cfa: sp 0 +
STACK CFI 4d45c .cfa: x29 80 +
STACK CFI INIT 4d608 388 .cfa: sp 0 +
STACK CFI 4d60c .cfa: sp 144 +
STACK CFI 4d62c .cfa: x29 88 + x19: .cfa -8 + ^ x20: .cfa -16 + ^ x21: .cfa -24 + ^ x22: .cfa -32 + ^ x23: .cfa -40 + ^ x24: .cfa -48 + ^ x25: .cfa -56 + ^ x26: .cfa -64 + ^ x27: .cfa -72 + ^ .ra: .cfa -80 + ^ x29: .cfa -88 + ^ v8: .cfa -96 + ^
STACK CFI 4d910 .cfa: sp 144 +
STACK CFI 4d930 .cfa: sp 0 +
STACK CFI 4d934 .cfa: x29 88 +
STACK CFI INIT 4d990 4c4 .cfa: sp 0 +
STACK CFI 4d994 .cfa: sp 224 +
STACK CFI 4d9b0 .cfa: x29 72 + x19: .cfa -8 + ^ x20: .cfa -16 + ^ x21: .cfa -24 + ^ x22: .cfa -32 + ^ x23: .cfa -40 + ^ x24: .cfa -48 + ^ x25: .cfa -56 + ^ .ra: .cfa -64 + ^ x29: .cfa -72 + ^ v8: .cfa -80 + ^
STACK CFI 4dd64 .cfa: sp 224 +
STACK CFI 4dd80 .cfa: sp 0 +
STACK CFI 4dd84 .cfa: x29 72 +
STACK CFI INIT 4de54 1228 .cfa: sp 0 +
STACK CFI 4de58 .cfa: sp 112 +
STACK CFI 4de74 .cfa: x29 96 + x19: .cfa -8 + ^ x20: .cfa -16 + ^ x21: .cfa -24 + ^ x22: .cfa -32 + ^ x23: .cfa -40 + ^ x24: .cfa -48 + ^ x25: .cfa -56 + ^ x26: .cfa -64 + ^ x27: .cfa -72 + ^ x28: .cfa -80 + ^ .ra: .cfa -88 + ^ x29: .cfa -96 + ^ v8: .cfa -112 + ^
STACK CFI 4edb4 .cfa: sp 112 +
STACK CFI 4edd0 .cfa: sp 0 +
STACK CFI 4edd4 .cfa: x29 96 +
STACK CFI INIT 4f07c 20 .cfa: sp 0 +
STACK CFI 4f080 .cfa: sp 16 +
STACK CFI 4f084 .cfa: x29 16 + .ra: .cfa -8 + ^ x29: .cfa -16 + ^
STACK CFI 4f090 .cfa: sp 16 +
STACK CFI 4f094 .cfa: sp 0 +
STACK CFI 4f098 .cfa: x29 16 +
STACK CFI INIT 4fac4 8c4 .cfa: sp 0 +
STACK CFI 4fac8 .cfa: sp 224 +
STACK CFI 4fae0 .cfa: x29 64 + x19: .cfa -8 + ^ x20: .cfa -16 + ^ x21: .cfa -24 + ^ x22: .cfa -32 + ^ x23: .cfa -40 + ^ x24: .cfa -48 + ^ .ra: .cfa -56 + ^ x29: .cfa -64 + ^ v8: .cfa -80 + ^
STACK CFI 502e0 .cfa: sp 224 +
STACK CFI 502f8 .cfa: sp 0 +
STACK CFI 502fc .cfa: x29 64 +
STACK CFI INIT 50388 b8 .cfa: sp 0 +
STACK CFI 5038c .cfa: sp 80 +
STACK CFI 5039c .cfa: x29 48 + x19: .cfa -8 + ^ x20: .cfa -16 + ^ x21: .cfa -32 + ^ .ra: .cfa -40 + ^ x29: .cfa -48 + ^
STACK CFI 503fc .cfa: sp 80 +
STACK CFI 5040c .cfa: sp 0 +
STACK CFI 50410 .cfa: x29 48 +
STACK CFI INIT 505cc 314 .cfa: sp 0 +
STACK CFI 505d0 .cfa: sp 464 +
STACK CFI 505e8 .cfa: x29 80 + x19: .cfa -8 + ^ x20: .cfa -16 + ^ x21: .cfa -24 + ^ x22: .cfa -32 + ^ x23: .cfa -40 + ^ x24: .cfa -48 + ^ x25: .cfa -56 + ^ x28: .cfa -64 + ^ .ra: .cfa -72 + ^ x29: .cfa -80 + ^
STACK CFI 50820 .cfa: sp 464 +
STACK CFI 50838 .cfa: sp 0 +
STACK CFI 5083c .cfa: x29 80 +
STACK CFI INIT 508e0 1d4 .cfa: sp 0 +
STACK CFI 508e4 .cfa: sp 112 +
STACK CFI 508f4 .cfa: x29 48 + x19: .cfa -8 + ^ x20: .cfa -16 + ^ x21: .cfa -32 + ^ .ra: .cfa -40 + ^ x29: .cfa -48 + ^
STACK CFI 50a0c .cfa: sp 112 +
STACK CFI 50a1c .cfa: sp 0 +
STACK CFI 50a20 .cfa: x29 48 +
STACK CFI INIT 53b38 21c .cfa: sp 0 +
STACK CFI 53b3c .cfa: sp 112 +
STACK CFI 53b54 .cfa: x29 80 + x19: .cfa -8 + ^ x20: .cfa -16 + ^ x21: .cfa -24 + ^ x22: .cfa -32 + ^ x23: .cfa -40 + ^ x24: .cfa -48 + ^ x25: .cfa -64 + ^ .ra: .cfa -72 + ^ x29: .cfa -80 + ^
STACK CFI 53d1c .cfa: sp 112 +
STACK CFI 53d34 .cfa: sp 0 +
STACK CFI 53d38 .cfa: x29 80 +
STACK CFI INIT 53e1c 88 .cfa: sp 0 +
STACK CFI 53e20 .cfa: sp 32 +
STACK CFI 53e28 .cfa: x29 32 + x19: .cfa -8 + ^ x20: .cfa -16 + ^ .ra: .cfa -24 + ^ x29: .cfa -32 + ^
STACK CFI 53e84 .cfa: sp 32 +
STACK CFI 53e8c .cfa: sp 0 +
STACK CFI 53e90 .cfa: x29 32 +
STACK CFI INIT 54098 344 .cfa: sp 0 +
STACK CFI 5409c .cfa: sp 448 +
STACK CFI 540b4 .cfa: x29 80 + x19: .cfa -8 + ^ x20: .cfa -16 + ^ x21: .cfa -24 + ^ x22: .cfa -32 + ^ x23: .cfa -40 + ^ x24: .cfa -48 + ^ x25: .cfa -56 + ^ x28: .cfa -64 + ^ .ra: .cfa -72 + ^ x29: .cfa -80 + ^
STACK CFI 54350 .cfa: sp 448 +
STACK CFI 54368 .cfa: sp 0 +
STACK CFI 5436c .cfa: x29 80 +
STACK CFI INIT 54918 2c4 .cfa: sp 0 +
STACK CFI 5491c .cfa: sp 352 +
STACK CFI 54934 .cfa: x29 80 + x19: .cfa -8 + ^ x20: .cfa -16 + ^ x21: .cfa -24 + ^ x22: .cfa -32 + ^ x23: .cfa -40 + ^ x24: .cfa -48 + ^ x28: .cfa -64 + ^ .ra: .cfa -72 + ^ x29: .cfa -80 + ^
STACK CFI 54b58 .cfa: sp 352 +
STACK CFI 54b70 .cfa: sp 0 +
STACK CFI 54b74 .cfa: x29 80 +
STACK CFI INIT 54df0 b4 .cfa: sp 0 +
STACK CFI 54df4 .cfa: sp 64 +
STACK CFI 54e00 .cfa: x29 32 + x19: .cfa -8 + ^ x20: .cfa -16 + ^ .ra: .cfa -24 + ^ x29: .cfa -32 + ^
STACK CFI 54e64 .cfa: sp 64 +
STACK CFI 54e70 .cfa: sp 0 +
STACK CFI 54e74 .cfa: x29 32 +
STACK CFI INIT 54ecc 614 .cfa: sp 0 +
STACK CFI 54ed0 .cfa: sp 368 +
STACK CFI 54eec .cfa: x29 96 + x19: .cfa -8 + ^ x20: .cfa -16 + ^ x21: .cfa -24 + ^ x22: .cfa -32 + ^ x23: .cfa -40 + ^ x24: .cfa -48 + ^ x25: .cfa -56 + ^ x26: .cfa -64 + ^ x27: .cfa -72 + ^ x28: .cfa -80 + ^ .ra: .cfa -88 + ^ x29: .cfa -96 + ^
STACK CFI 55398 .cfa: sp 368 +
STACK CFI 553b4 .cfa: sp 0 +
STACK CFI 553b8 .cfa: x29 96 +
STACK CFI INIT 554e0 20 .cfa: sp 0 +
STACK CFI 554e4 .cfa: sp 16 +
STACK CFI 554e8 .cfa: x29 16 + .ra: .cfa -8 + ^ x29: .cfa -16 + ^
STACK CFI 554f4 .cfa: sp 16 +
STACK CFI 554f8 .cfa: sp 0 +
STACK CFI 554fc .cfa: x29 16 +
STACK CFI INIT 55500 654 .cfa: sp 0 +
STACK CFI 55504 .cfa: sp 192 +
STACK CFI 5551c .cfa: x29 56 + x19: .cfa -8 + ^ x20: .cfa -16 + ^ x21: .cfa -24 + ^ x22: .cfa -32 + ^ x23: .cfa -40 + ^ .ra: .cfa -48 + ^ x29: .cfa -56 + ^ v8: .cfa -64 + ^
STACK CFI 55a50 .cfa: sp 192 +
STACK CFI 55a68 .cfa: sp 0 +
STACK CFI 55a6c .cfa: x29 56 +
STACK CFI INIT 55b54 674 .cfa: sp 0 +
STACK CFI 55b58 .cfa: sp 320 +
STACK CFI 55b78 .cfa: x29 96 + x19: .cfa -8 + ^ x20: .cfa -16 + ^ x21: .cfa -24 + ^ x22: .cfa -32 + ^ x23: .cfa -40 + ^ x24: .cfa -48 + ^ x25: .cfa -56 + ^ x26: .cfa -64 + ^ x27: .cfa -72 + ^ x28: .cfa -80 + ^ .ra: .cfa -88 + ^ x29: .cfa -96 + ^ v8: .cfa -112 + ^
STACK CFI 560f4 .cfa: sp 320 +
STACK CFI 56114 .cfa: sp 0 +
STACK CFI 56118 .cfa: x29 96 +
STACK CFI INIT 56338 20 .cfa: sp 0 +
STACK CFI 5633c .cfa: sp 16 +
STACK CFI 56340 .cfa: x29 16 + .ra: .cfa -8 + ^ x29: .cfa -16 + ^
STACK CFI 5634c .cfa: sp 16 +
STACK CFI 56350 .cfa: sp 0 +
STACK CFI 56354 .cfa: x29 16 +
STACK CFI INIT 564ec 3c4 .cfa: sp 0 +
STACK CFI 564f0 .cfa: sp 112 +
STACK CFI 56508 .cfa: x29 56 + x19: .cfa -8 + ^ x20: .cfa -16 + ^ x21: .cfa -24 + ^ x22: .cfa -32 + ^ x23: .cfa -40 + ^ .ra: .cfa -48 + ^ x29: .cfa -56 + ^ v8: .cfa -64 + ^
STACK CFI 56864 .cfa: sp 112 +
STACK CFI 5687c .cfa: sp 0 +
STACK CFI 56880 .cfa: x29 56 +
STACK CFI INIT 56920 f0 .cfa: sp 0 +
STACK CFI 56924 .cfa: sp 32 +
STACK CFI 5692c .cfa: x29 32 + x19: .cfa -8 + ^ x20: .cfa -16 + ^ .ra: .cfa -24 + ^ x29: .cfa -32 + ^
STACK CFI 569f0 .cfa: sp 32 +
STACK CFI 569f8 .cfa: sp 0 +
STACK CFI 569fc .cfa: x29 32 +
STACK CFI INIT 56c04 160 .cfa: sp 0 +
STACK CFI 56c08 .cfa: sp 240 +
STACK CFI 56c1c .cfa: x29 64 + x19: .cfa -8 + ^ x20: .cfa -16 + ^ x21: .cfa -24 + ^ x22: .cfa -32 + ^ x23: .cfa -40 + ^ x24: .cfa -48 + ^ .ra: .cfa -56 + ^ x29: .cfa -64 + ^
STACK CFI 56d1c .cfa: sp 240 +
STACK CFI 56d30 .cfa: sp 0 +
STACK CFI 56d34 .cfa: x29 64 +
STACK CFI INIT 56da4 60 .cfa: sp 0 +
STACK CFI 56da8 .cfa: sp 32 +
STACK CFI 56db0 .cfa: x29 32 + x19: .cfa -8 + ^ x20: .cfa -16 + ^ .ra: .cfa -24 + ^ x29: .cfa -32 + ^
STACK CFI 56de4 .cfa: sp 32 +
STACK CFI 56dec .cfa: sp 0 +
STACK CFI 56df0 .cfa: x29 32 +
STACK CFI INIT 56e78 114 .cfa: sp 0 +
STACK CFI 56e7c .cfa: sp 128 +
STACK CFI 56e90 .cfa: x29 64 + x19: .cfa -8 + ^ x20: .cfa -16 + ^ x21: .cfa -24 + ^ x22: .cfa -32 + ^ x23: .cfa -48 + ^ .ra: .cfa -56 + ^ x29: .cfa -64 + ^
STACK CFI 56f44 .cfa: sp 128 +
STACK CFI 56f58 .cfa: sp 0 +
STACK CFI 56f5c .cfa: x29 64 +
STACK CFI INIT 575dc 6d4 .cfa: sp 0 +
STACK CFI 575e0 .cfa: sp 256 +
STACK CFI 575f8 .cfa: x29 64 + x19: .cfa -8 + ^ x20: .cfa -16 + ^ x21: .cfa -24 + ^ x22: .cfa -32 + ^ x23: .cfa -40 + ^ x24: .cfa -48 + ^ .ra: .cfa -56 + ^ x29: .cfa -64 + ^ v8: .cfa -72 + ^ v9: .cfa -80 + ^
STACK CFI 57c08 .cfa: sp 256 +
STACK CFI 57c20 .cfa: sp 0 +
STACK CFI 57c24 .cfa: x29 64 +
STACK CFI INIT 57cb0 19c .cfa: sp 0 +
STACK CFI 57cb4 .cfa: sp 96 +
STACK CFI 57cc8 .cfa: x29 64 + x19: .cfa -8 + ^ x20: .cfa -16 + ^ x21: .cfa -24 + ^ x22: .cfa -32 + ^ x23: .cfa -48 + ^ .ra: .cfa -56 + ^ x29: .cfa -64 + ^
STACK CFI 57db4 .cfa: sp 96 +
STACK CFI 57dc8 .cfa: sp 0 +
STACK CFI 57dcc .cfa: x29 64 +
STACK CFI INIT 581e8 188 .cfa: sp 0 +
STACK CFI 581ec .cfa: sp 80 +
STACK CFI 581fc .cfa: x29 48 + x19: .cfa -8 + ^ x20: .cfa -16 + ^ x21: .cfa -24 + ^ x22: .cfa -32 + ^ .ra: .cfa -40 + ^ x29: .cfa -48 + ^
STACK CFI 582d8 .cfa: sp 80 +
STACK CFI 582e8 .cfa: sp 0 +
STACK CFI 582ec .cfa: x29 48 +
STACK CFI INIT 58370 39c .cfa: sp 0 +
STACK CFI 58374 .cfa: sp 128 +
STACK CFI 5838c .cfa: x29 56 + x19: .cfa -8 + ^ x20: .cfa -16 + ^ x21: .cfa -24 + ^ x22: .cfa -32 + ^ x23: .cfa -40 + ^ .ra: .cfa -48 + ^ x29: .cfa -56 + ^ v8: .cfa -64 + ^
STACK CFI 585a4 .cfa: sp 128 +
STACK CFI 585bc .cfa: sp 0 +
STACK CFI 585c0 .cfa: x29 56 +
STACK CFI INIT 58aa8 21c .cfa: sp 0 +
STACK CFI 58aac .cfa: sp 192 +
STACK CFI 58ac0 .cfa: x29 64 + x19: .cfa -8 + ^ x20: .cfa -16 + ^ x21: .cfa -24 + ^ x22: .cfa -32 + ^ x23: .cfa -48 + ^ .ra: .cfa -56 + ^ x29: .cfa -64 + ^
STACK CFI 58c00 .cfa: sp 192 +
STACK CFI 58c14 .cfa: sp 0 +
STACK CFI 58c18 .cfa: x29 64 +
STACK CFI INIT 58cc8 1ac .cfa: sp 0 +
STACK CFI 58ccc .cfa: sp 128 +
STACK CFI 58cdc .cfa: x29 48 + x19: .cfa -8 + ^ x20: .cfa -16 + ^ x21: .cfa -32 + ^ .ra: .cfa -40 + ^ x29: .cfa -48 + ^
STACK CFI 58df8 .cfa: sp 128 +
STACK CFI 58e08 .cfa: sp 0 +
STACK CFI 58e0c .cfa: x29 48 +
STACK CFI INIT 591a4 198 .cfa: sp 0 +
STACK CFI 591a8 .cfa: sp 128 +
STACK CFI 591bc .cfa: x29 64 + x19: .cfa -8 + ^ x20: .cfa -16 + ^ x21: .cfa -24 + ^ x22: .cfa -32 + ^ x23: .cfa -48 + ^ .ra: .cfa -56 + ^ x29: .cfa -64 + ^
STACK CFI 592fc .cfa: sp 128 +
STACK CFI 59310 .cfa: sp 0 +
STACK CFI 59314 .cfa: x29 64 +
STACK CFI INIT 59608 188 .cfa: sp 0 +
STACK CFI 5960c .cfa: sp 112 +
STACK CFI 5961c .cfa: x29 48 + x19: .cfa -8 + ^ x20: .cfa -16 + ^ x21: .cfa -24 + ^ x22: .cfa -32 + ^ .ra: .cfa -40 + ^ x29: .cfa -48 + ^
STACK CFI 59754 .cfa: sp 112 +
STACK CFI 59764 .cfa: sp 0 +
STACK CFI 59768 .cfa: x29 48 +
STACK CFI INIT 5987c 2b0 .cfa: sp 0 +
STACK CFI 59880 .cfa: sp 176 +
STACK CFI 59890 .cfa: x29 48 + x19: .cfa -8 + ^ x20: .cfa -16 + ^ x21: .cfa -24 + ^ x22: .cfa -32 + ^ .ra: .cfa -40 + ^ x29: .cfa -48 + ^
STACK CFI 599fc .cfa: sp 176 +
STACK CFI 59a0c .cfa: sp 0 +
STACK CFI 59a10 .cfa: x29 48 +
STACK CFI 59a4c .cfa: sp 176 +
STACK CFI 59a5c .cfa: sp 0 +
STACK CFI 59a60 .cfa: x29 48 +
STACK CFI INIT 59b54 20 .cfa: sp 0 +
STACK CFI 59b58 .cfa: sp 16 +
STACK CFI 59b5c .cfa: x29 16 + .ra: .cfa -8 + ^ x29: .cfa -16 + ^
STACK CFI 59b68 .cfa: sp 16 +
STACK CFI 59b6c .cfa: sp 0 +
STACK CFI 59b70 .cfa: x29 16 +
STACK CFI INIT 59b74 20 .cfa: sp 0 +
STACK CFI 59b78 .cfa: sp 16 +
STACK CFI 59b7c .cfa: x29 16 + .ra: .cfa -8 + ^ x29: .cfa -16 + ^
STACK CFI 59b88 .cfa: sp 16 +
STACK CFI 59b8c .cfa: sp 0 +
STACK CFI 59b90 .cfa: x29 16 +
STACK CFI INIT 59b94 30 .cfa: sp 0 +
STACK CFI 59b98 .cfa: sp 16 +
STACK CFI 59b9c .cfa: x29 16 + .ra: .cfa -8 + ^ x29: .cfa -16 + ^
STACK CFI 59bb8 .cfa: sp 16 +
STACK CFI 59bbc .cfa: sp 0 +
STACK CFI 59bc0 .cfa: x29 16 +
STACK CFI INIT 59bc4 3c .cfa: sp 0 +
STACK CFI 59bc8 .cfa: sp 32 +
STACK CFI 59bd0 .cfa: x29 32 + x19: .cfa -16 + ^ .ra: .cfa -24 + ^ x29: .cfa -32 + ^
STACK CFI 59bf0 .cfa: sp 32 +
STACK CFI 59bf8 .cfa: sp 0 +
STACK CFI 59bfc .cfa: x29 32 +
STACK CFI INIT 59c00 5c .cfa: sp 0 +
STACK CFI 59c04 .cfa: sp 32 +
STACK CFI 59c0c .cfa: x29 32 + x19: .cfa -8 + ^ x20: .cfa -16 + ^ .ra: .cfa -24 + ^ x29: .cfa -32 + ^
STACK CFI 59c3c .cfa: sp 32 +
STACK CFI 59c44 .cfa: sp 0 +
STACK CFI 59c48 .cfa: x29 32 +
STACK CFI INIT 59c7c 20 .cfa: sp 0 +
STACK CFI 59c80 .cfa: sp 16 +
STACK CFI 59c84 .cfa: x29 16 + .ra: .cfa -8 + ^ x29: .cfa -16 + ^
STACK CFI 59c90 .cfa: sp 16 +
STACK CFI 59c94 .cfa: sp 0 +
STACK CFI 59c98 .cfa: x29 16 +
STACK CFI INIT 59c9c 30 .cfa: sp 0 +
STACK CFI 59ca0 .cfa: sp 32 +
STACK CFI 59ca8 .cfa: x29 32 + x19: .cfa -16 + ^ .ra: .cfa -24 + ^ x29: .cfa -32 + ^
STACK CFI 59cbc .cfa: sp 32 +
STACK CFI 59cc4 .cfa: sp 0 +
STACK CFI 59cc8 .cfa: x29 32 +
STACK CFI INIT 5a008 194 .cfa: sp 0 +
STACK CFI 5a00c .cfa: sp 96 +
STACK CFI 5a020 .cfa: x29 64 + x19: .cfa -8 + ^ x20: .cfa -16 + ^ x21: .cfa -24 + ^ x22: .cfa -32 + ^ x23: .cfa -48 + ^ .ra: .cfa -56 + ^ x29: .cfa -64 + ^
STACK CFI 5a15c .cfa: sp 96 +
STACK CFI 5a170 .cfa: sp 0 +
STACK CFI 5a174 .cfa: x29 64 +
STACK CFI INIT 5a1a4 274 .cfa: sp 0 +
STACK CFI 5a1a8 .cfa: sp 128 +
STACK CFI 5a1bc .cfa: x29 64 + x19: .cfa -8 + ^ x20: .cfa -16 + ^ x21: .cfa -24 + ^ x22: .cfa -32 + ^ x23: .cfa -40 + ^ x24: .cfa -48 + ^ .ra: .cfa -56 + ^ x29: .cfa -64 + ^
STACK CFI 5a354 .cfa: sp 128 +
STACK CFI 5a368 .cfa: sp 0 +
STACK CFI 5a36c .cfa: x29 64 +
STACK CFI INIT 5a530 148 .cfa: sp 0 +
STACK CFI 5a534 .cfa: sp 128 +
STACK CFI 5a548 .cfa: x29 64 + x19: .cfa -8 + ^ x20: .cfa -16 + ^ x21: .cfa -24 + ^ x22: .cfa -32 + ^ x23: .cfa -48 + ^ .ra: .cfa -56 + ^ x29: .cfa -64 + ^
STACK CFI 5a610 .cfa: sp 128 +
STACK CFI 5a624 .cfa: sp 0 +
STACK CFI 5a628 .cfa: x29 64 +
STACK CFI INIT 5aac4 134 .cfa: sp 0 +
STACK CFI 5aac8 .cfa: sp 80 +
STACK CFI 5aad4 .cfa: x29 32 + x19: .cfa -8 + ^ x20: .cfa -16 + ^ .ra: .cfa -24 + ^ x29: .cfa -32 + ^
STACK CFI 5ab04 .cfa: sp 80 +
STACK CFI 5ab10 .cfa: sp 0 +
STACK CFI 5ab14 .cfa: x29 32 +
STACK CFI INIT 5abf8 78 .cfa: sp 0 +
STACK CFI 5abfc .cfa: sp 32 +
STACK CFI 5ac04 .cfa: x29 32 + x19: .cfa -8 + ^ x20: .cfa -16 + ^ .ra: .cfa -24 + ^ x29: .cfa -32 + ^
STACK CFI 5ac10 .cfa: sp 32 +
STACK CFI 5ac18 .cfa: sp 0 +
STACK CFI 5ac1c .cfa: x29 32 +
STACK CFI INIT 5ac70 74 .cfa: sp 0 +
STACK CFI 5ac74 .cfa: sp 48 +
STACK CFI 5ac80 .cfa: x29 32 + x19: .cfa -8 + ^ x20: .cfa -16 + ^ .ra: .cfa -24 + ^ x29: .cfa -32 + ^
STACK CFI 5accc .cfa: sp 48 +
STACK CFI 5acd8 .cfa: sp 0 +
STACK CFI 5acdc .cfa: x29 32 +
STACK CFI INIT 5ad48 224 .cfa: sp 0 +
STACK CFI 5ad4c .cfa: sp 128 +
STACK CFI 5ad5c .cfa: x29 48 + x19: .cfa -8 + ^ x20: .cfa -16 + ^ x21: .cfa -32 + ^ .ra: .cfa -40 + ^ x29: .cfa -48 + ^
STACK CFI 5ae0c .cfa: sp 128 +
STACK CFI 5ae1c .cfa: sp 0 +
STACK CFI 5ae20 .cfa: x29 48 +
STACK CFI INIT 5af90 25c .cfa: sp 0 +
STACK CFI 5af94 .cfa: sp 128 +
STACK CFI 5afa4 .cfa: x29 48 + x19: .cfa -8 + ^ x20: .cfa -16 + ^ x21: .cfa -32 + ^ .ra: .cfa -40 + ^ x29: .cfa -48 + ^
STACK CFI 5b08c .cfa: sp 128 +
STACK CFI 5b09c .cfa: sp 0 +
STACK CFI 5b0a0 .cfa: x29 48 +
STACK CFI INIT 5b234 220 .cfa: sp 0 +
STACK CFI 5b238 .cfa: sp 128 +
STACK CFI 5b248 .cfa: x29 48 + x19: .cfa -8 + ^ x20: .cfa -16 + ^ x21: .cfa -32 + ^ .ra: .cfa -40 + ^ x29: .cfa -48 + ^
STACK CFI 5b2f4 .cfa: sp 128 +
STACK CFI 5b304 .cfa: sp 0 +
STACK CFI 5b308 .cfa: x29 48 +
STACK CFI INIT 5b454 26c .cfa: sp 0 +
STACK CFI 5b458 .cfa: sp 144 +
STACK CFI 5b46c .cfa: x29 64 + x19: .cfa -8 + ^ x20: .cfa -16 + ^ x21: .cfa -24 + ^ x22: .cfa -32 + ^ x23: .cfa -48 + ^ .ra: .cfa -56 + ^ x29: .cfa -64 + ^
STACK CFI 5b564 .cfa: sp 144 +
STACK CFI 5b578 .cfa: sp 0 +
STACK CFI 5b57c .cfa: x29 64 +
STACK CFI INIT 5b6e4 28c .cfa: sp 0 +
STACK CFI 5b6e8 .cfa: sp 128 +
STACK CFI 5b6f8 .cfa: x29 48 + x19: .cfa -8 + ^ x20: .cfa -16 + ^ x21: .cfa -32 + ^ .ra: .cfa -40 + ^ x29: .cfa -48 + ^
STACK CFI 5b810 .cfa: sp 128 +
STACK CFI 5b820 .cfa: sp 0 +
STACK CFI 5b824 .cfa: x29 48 +
STACK CFI INIT 5b9c4 308 .cfa: sp 0 +
STACK CFI 5b9c8 .cfa: sp 144 +
STACK CFI 5b9dc .cfa: x29 64 + x19: .cfa -8 + ^ x20: .cfa -16 + ^ x21: .cfa -24 + ^ x22: .cfa -32 + ^ x23: .cfa -48 + ^ .ra: .cfa -56 + ^ x29: .cfa -64 + ^
STACK CFI 5bb70 .cfa: sp 144 +
STACK CFI 5bb84 .cfa: sp 0 +
STACK CFI 5bb88 .cfa: x29 64 +
STACK CFI INIT 5bd20 26c .cfa: sp 0 +
STACK CFI 5bd24 .cfa: sp 128 +
STACK CFI 5bd34 .cfa: x29 48 + x19: .cfa -8 + ^ x20: .cfa -16 + ^ x21: .cfa -32 + ^ .ra: .cfa -40 + ^ x29: .cfa -48 + ^
STACK CFI 5be2c .cfa: sp 128 +
STACK CFI 5be3c .cfa: sp 0 +
STACK CFI 5be40 .cfa: x29 48 +
STACK CFI INIT 5bfe0 278 .cfa: sp 0 +
STACK CFI 5bfe4 .cfa: sp 144 +
STACK CFI 5bff8 .cfa: x29 64 + x19: .cfa -8 + ^ x20: .cfa -16 + ^ x21: .cfa -24 + ^ x22: .cfa -32 + ^ x23: .cfa -48 + ^ .ra: .cfa -56 + ^ x29: .cfa -64 + ^
STACK CFI 5c0fc .cfa: sp 144 +
STACK CFI 5c110 .cfa: sp 0 +
STACK CFI 5c114 .cfa: x29 64 +
STACK CFI INIT 5c27c 22c .cfa: sp 0 +
STACK CFI 5c280 .cfa: sp 128 +
STACK CFI 5c290 .cfa: x29 48 + x19: .cfa -8 + ^ x20: .cfa -16 + ^ x21: .cfa -32 + ^ .ra: .cfa -40 + ^ x29: .cfa -48 + ^
STACK CFI 5c348 .cfa: sp 128 +
STACK CFI 5c358 .cfa: sp 0 +
STACK CFI 5c35c .cfa: x29 48 +
STACK CFI INIT 5c4a8 224 .cfa: sp 0 +
STACK CFI 5c4ac .cfa: sp 128 +
STACK CFI 5c4bc .cfa: x29 48 + x19: .cfa -8 + ^ x20: .cfa -16 + ^ x21: .cfa -32 + ^ .ra: .cfa -40 + ^ x29: .cfa -48 + ^
STACK CFI 5c56c .cfa: sp 128 +
STACK CFI 5c57c .cfa: sp 0 +
STACK CFI 5c580 .cfa: x29 48 +
STACK CFI INIT 5c6cc 270 .cfa: sp 0 +
STACK CFI 5c6d0 .cfa: sp 144 +
STACK CFI 5c6e4 .cfa: x29 64 + x19: .cfa -8 + ^ x20: .cfa -16 + ^ x21: .cfa -24 + ^ x22: .cfa -32 + ^ x23: .cfa -48 + ^ .ra: .cfa -56 + ^ x29: .cfa -64 + ^
STACK CFI 5c7e0 .cfa: sp 144 +
STACK CFI 5c7f4 .cfa: sp 0 +
STACK CFI 5c7f8 .cfa: x29 64 +
STACK CFI INIT 5c960 198 .cfa: sp 0 +
STACK CFI 5c964 .cfa: sp 160 +
STACK CFI 5c978 .cfa: x29 64 + x19: .cfa -8 + ^ x20: .cfa -16 + ^ x21: .cfa -24 + ^ x22: .cfa -32 + ^ x23: .cfa -40 + ^ x24: .cfa -48 + ^ .ra: .cfa -56 + ^ x29: .cfa -64 + ^
STACK CFI 5c9ec .cfa: sp 160 +
STACK CFI 5ca00 .cfa: sp 0 +
STACK CFI 5ca04 .cfa: x29 64 +
STACK CFI INIT 5caf8 100 .cfa: sp 0 +
STACK CFI 5cafc .cfa: sp 64 +
STACK CFI 5cb0c .cfa: x29 48 + x19: .cfa -8 + ^ x20: .cfa -16 + ^ x21: .cfa -24 + ^ x22: .cfa -32 + ^ .ra: .cfa -40 + ^ x29: .cfa -48 + ^
STACK CFI 5cbc0 .cfa: sp 64 +
STACK CFI 5cbd0 .cfa: sp 0 +
STACK CFI 5cbd4 .cfa: x29 48 +
STACK CFI INIT 5cbf8 160 .cfa: sp 0 +
STACK CFI 5cbfc .cfa: sp 144 +
STACK CFI 5cc10 .cfa: x29 64 + x19: .cfa -8 + ^ x20: .cfa -16 + ^ x21: .cfa -24 + ^ x22: .cfa -32 + ^ x23: .cfa -48 + ^ .ra: .cfa -56 + ^ x29: .cfa -64 + ^
STACK CFI 5cc60 .cfa: sp 144 +
STACK CFI 5cc74 .cfa: sp 0 +
STACK CFI 5cc78 .cfa: x29 64 +
STACK CFI INIT 5cd58 f0 .cfa: sp 0 +
STACK CFI 5cd5c .cfa: sp 64 +
STACK CFI 5cd6c .cfa: x29 48 + x19: .cfa -8 + ^ x20: .cfa -16 + ^ x21: .cfa -24 + ^ x22: .cfa -32 + ^ .ra: .cfa -40 + ^ x29: .cfa -48 + ^
STACK CFI 5ce10 .cfa: sp 64 +
STACK CFI 5ce20 .cfa: sp 0 +
STACK CFI 5ce24 .cfa: x29 48 +
STACK CFI INIT 5ce48 150 .cfa: sp 0 +
STACK CFI 5ce4c .cfa: sp 128 +
STACK CFI 5ce5c .cfa: x29 48 + x19: .cfa -8 + ^ x20: .cfa -16 + ^ x21: .cfa -24 + ^ x22: .cfa -32 + ^ .ra: .cfa -40 + ^ x29: .cfa -48 + ^
STACK CFI 5cea4 .cfa: sp 128 +
STACK CFI 5ceb4 .cfa: sp 0 +
STACK CFI 5ceb8 .cfa: x29 48 +
STACK CFI INIT 5cf98 a8 .cfa: sp 0 +
STACK CFI 5cf9c .cfa: sp 64 +
STACK CFI 5cfac .cfa: x29 48 + x19: .cfa -8 + ^ x20: .cfa -16 + ^ x21: .cfa -32 + ^ .ra: .cfa -40 + ^ x29: .cfa -48 + ^
STACK CFI 5d014 .cfa: sp 64 +
STACK CFI 5d024 .cfa: sp 0 +
STACK CFI 5d028 .cfa: x29 48 +
STACK CFI INIT 5d040 264 .cfa: sp 0 +
STACK CFI 5d044 .cfa: sp 128 +
STACK CFI 5d054 .cfa: x29 48 + x19: .cfa -8 + ^ x20: .cfa -16 + ^ x21: .cfa -32 + ^ .ra: .cfa -40 + ^ x29: .cfa -48 + ^
STACK CFI 5d144 .cfa: sp 128 +
STACK CFI 5d154 .cfa: sp 0 +
STACK CFI 5d158 .cfa: x29 48 +
STACK CFI INIT 5d2a4 2bc .cfa: sp 0 +
STACK CFI 5d2a8 .cfa: sp 144 +
STACK CFI 5d2bc .cfa: x29 64 + x19: .cfa -8 + ^ x20: .cfa -16 + ^ x21: .cfa -24 + ^ x22: .cfa -32 + ^ x23: .cfa -48 + ^ .ra: .cfa -56 + ^ x29: .cfa -64 + ^
STACK CFI 5d404 .cfa: sp 144 +
STACK CFI 5d418 .cfa: sp 0 +
STACK CFI 5d41c .cfa: x29 64 +
STACK CFI INIT 5d5d8 2c0 .cfa: sp 0 +
STACK CFI 5d5dc .cfa: sp 144 +
STACK CFI 5d5f0 .cfa: x29 64 + x19: .cfa -8 + ^ x20: .cfa -16 + ^ x21: .cfa -24 + ^ x22: .cfa -32 + ^ x23: .cfa -48 + ^ .ra: .cfa -56 + ^ x29: .cfa -64 + ^
STACK CFI 5d73c .cfa: sp 144 +
STACK CFI 5d750 .cfa: sp 0 +
STACK CFI 5d754 .cfa: x29 64 +
STACK CFI INIT 5d898 28c .cfa: sp 0 +
STACK CFI 5d89c .cfa: sp 160 +
STACK CFI 5d8b0 .cfa: x29 64 + x19: .cfa -8 + ^ x20: .cfa -16 + ^ x21: .cfa -24 + ^ x22: .cfa -32 + ^ x23: .cfa -48 + ^ .ra: .cfa -56 + ^ x29: .cfa -64 + ^
STACK CFI 5d9e8 .cfa: sp 160 +
STACK CFI 5d9fc .cfa: sp 0 +
STACK CFI 5da00 .cfa: x29 64 +
STACK CFI INIT 5db24 a4 .cfa: sp 0 +
STACK CFI 5db28 .cfa: sp 48 +
STACK CFI 5db34 .cfa: x29 48 + x19: .cfa -8 + ^ x20: .cfa -16 + ^ x21: .cfa -32 + ^ .ra: .cfa -40 + ^ x29: .cfa -48 + ^
STACK CFI 5dba0 .cfa: sp 48 +
STACK CFI 5dbac .cfa: sp 0 +
STACK CFI 5dbb0 .cfa: x29 48 +
STACK CFI INIT 5dbe0 178 .cfa: sp 0 +
STACK CFI 5dbe4 .cfa: sp 128 +
STACK CFI 5dbf4 .cfa: x29 48 + x19: .cfa -8 + ^ x20: .cfa -16 + ^ x21: .cfa -24 + ^ x22: .cfa -32 + ^ .ra: .cfa -40 + ^ x29: .cfa -48 + ^
STACK CFI 5dc50 .cfa: sp 128 +
STACK CFI 5dc60 .cfa: sp 0 +
STACK CFI 5dc64 .cfa: x29 48 +
STACK CFI INIT 5dd58 a4 .cfa: sp 0 +
STACK CFI 5dd5c .cfa: sp 48 +
STACK CFI 5dd68 .cfa: x29 48 + x19: .cfa -8 + ^ x20: .cfa -16 + ^ x21: .cfa -32 + ^ .ra: .cfa -40 + ^ x29: .cfa -48 + ^
STACK CFI 5ddd4 .cfa: sp 48 +
STACK CFI 5dde0 .cfa: sp 0 +
STACK CFI 5dde4 .cfa: x29 48 +
STACK CFI INIT 5de14 2ec .cfa: sp 0 +
STACK CFI 5de18 .cfa: sp 144 +
STACK CFI 5de2c .cfa: x29 64 + x19: .cfa -8 + ^ x20: .cfa -16 + ^ x21: .cfa -24 + ^ x22: .cfa -32 + ^ x23: .cfa -48 + ^ .ra: .cfa -56 + ^ x29: .cfa -64 + ^
STACK CFI 5dfa4 .cfa: sp 144 +
STACK CFI 5dfb8 .cfa: sp 0 +
STACK CFI 5dfbc .cfa: x29 64 +
STACK CFI INIT 5e100 2ec .cfa: sp 0 +
STACK CFI 5e104 .cfa: sp 144 +
STACK CFI 5e118 .cfa: x29 64 + x19: .cfa -8 + ^ x20: .cfa -16 + ^ x21: .cfa -24 + ^ x22: .cfa -32 + ^ x23: .cfa -48 + ^ .ra: .cfa -56 + ^ x29: .cfa -64 + ^
STACK CFI 5e290 .cfa: sp 144 +
STACK CFI 5e2a4 .cfa: sp 0 +
STACK CFI 5e2a8 .cfa: x29 64 +
STACK CFI INIT 5e3ec 2a8 .cfa: sp 0 +
STACK CFI 5e3f0 .cfa: sp 144 +
STACK CFI 5e404 .cfa: x29 64 + x19: .cfa -8 + ^ x20: .cfa -16 + ^ x21: .cfa -24 + ^ x22: .cfa -32 + ^ x23: .cfa -48 + ^ .ra: .cfa -56 + ^ x29: .cfa -64 + ^
STACK CFI 5e538 .cfa: sp 144 +
STACK CFI 5e54c .cfa: sp 0 +
STACK CFI 5e550 .cfa: x29 64 +
STACK CFI INIT 5e694 2f8 .cfa: sp 0 +
STACK CFI 5e698 .cfa: sp 144 +
STACK CFI 5e6ac .cfa: x29 64 + x19: .cfa -8 + ^ x20: .cfa -16 + ^ x21: .cfa -24 + ^ x22: .cfa -32 + ^ x23: .cfa -48 + ^ .ra: .cfa -56 + ^ x29: .cfa -64 + ^
STACK CFI 5e830 .cfa: sp 144 +
STACK CFI 5e844 .cfa: sp 0 +
STACK CFI 5e848 .cfa: x29 64 +
STACK CFI INIT 5e98c 4c4 .cfa: sp 0 +
STACK CFI 5e990 .cfa: sp 144 +
STACK CFI 5e9a4 .cfa: x29 64 + x19: .cfa -8 + ^ x20: .cfa -16 + ^ x21: .cfa -24 + ^ x22: .cfa -32 + ^ x23: .cfa -48 + ^ .ra: .cfa -56 + ^ x29: .cfa -64 + ^
STACK CFI 5eca0 .cfa: sp 144 +
STACK CFI 5ecb4 .cfa: sp 0 +
STACK CFI 5ecb8 .cfa: x29 64 +
STACK CFI INIT 5ee50 154 .cfa: sp 0 +
STACK CFI 5ee54 .cfa: sp 384 +
STACK CFI 5ee68 .cfa: x29 64 + x19: .cfa -8 + ^ x20: .cfa -16 + ^ x21: .cfa -24 + ^ x22: .cfa -32 + ^ x23: .cfa -40 + ^ x28: .cfa -48 + ^ .ra: .cfa -56 + ^ x29: .cfa -64 + ^
STACK CFI 5ef4c .cfa: sp 384 +
STACK CFI 5ef60 .cfa: sp 0 +
STACK CFI 5ef64 .cfa: x29 64 +
STACK CFI INIT 5efbc 43c .cfa: sp 0 +
STACK CFI 5efc0 .cfa: sp 64 +
STACK CFI 5efd0 .cfa: x29 64 + x19: .cfa -8 + ^ x20: .cfa -16 + ^ x21: .cfa -24 + ^ x22: .cfa -32 + ^ x23: .cfa -40 + ^ x24: .cfa -48 + ^ .ra: .cfa -56 + ^ x29: .cfa -64 + ^
STACK CFI 5f388 .cfa: sp 64 +
STACK CFI 5f398 .cfa: sp 0 +
STACK CFI 5f39c .cfa: x29 64 +
STACK CFI INIT 5f728 294 .cfa: sp 0 +
STACK CFI 5f72c .cfa: sp 240 +
STACK CFI 5f744 .cfa: x29 80 + x19: .cfa -8 + ^ x20: .cfa -16 + ^ x21: .cfa -24 + ^ x22: .cfa -32 + ^ x23: .cfa -40 + ^ x24: .cfa -48 + ^ x25: .cfa -64 + ^ .ra: .cfa -72 + ^ x29: .cfa -80 + ^
STACK CFI 5f8e4 .cfa: sp 240 +
STACK CFI 5f8fc .cfa: sp 0 +
STACK CFI 5f900 .cfa: x29 80 +
STACK CFI INIT 5fa2c 50 .cfa: sp 0 +
STACK CFI 5fa30 .cfa: sp 32 +
STACK CFI 5fa38 .cfa: x29 32 + x19: .cfa -8 + ^ x20: .cfa -16 + ^ .ra: .cfa -24 + ^ x29: .cfa -32 + ^
STACK CFI INIT 5faa8 750 .cfa: sp 0 +
STACK CFI 5faac .cfa: sp 320 +
STACK CFI 5fac8 .cfa: x29 96 + x19: .cfa -8 + ^ x20: .cfa -16 + ^ x21: .cfa -24 + ^ x22: .cfa -32 + ^ x23: .cfa -40 + ^ x24: .cfa -48 + ^ x25: .cfa -56 + ^ x26: .cfa -64 + ^ x27: .cfa -72 + ^ x28: .cfa -80 + ^ .ra: .cfa -88 + ^ x29: .cfa -96 + ^
STACK CFI 600b4 .cfa: sp 320 +
STACK CFI 600d0 .cfa: sp 0 +
STACK CFI 600d4 .cfa: x29 96 +
STACK CFI INIT 6025c 12c .cfa: sp 0 +
STACK CFI 60260 .cfa: sp 80 +
STACK CFI 60274 .cfa: x29 80 + x19: .cfa -8 + ^ x20: .cfa -16 + ^ x21: .cfa -24 + ^ x22: .cfa -32 + ^ x23: .cfa -40 + ^ x24: .cfa -48 + ^ x28: .cfa -64 + ^ .ra: .cfa -72 + ^ x29: .cfa -80 + ^
STACK CFI 6033c .cfa: sp 80 +
STACK CFI 60350 .cfa: sp 0 +
STACK CFI 60354 .cfa: x29 80 +
STACK CFI INIT 63ba4 c3c .cfa: sp 0 +
STACK CFI 63ba8 .cfa: sp 96 +
STACK CFI 63bc0 .cfa: x29 96 + x19: .cfa -8 + ^ x20: .cfa -16 + ^ x21: .cfa -24 + ^ x22: .cfa -32 + ^ x23: .cfa -40 + ^ x24: .cfa -48 + ^ x25: .cfa -56 + ^ x26: .cfa -64 + ^ x27: .cfa -72 + ^ x28: .cfa -80 + ^ .ra: .cfa -88 + ^ x29: .cfa -96 + ^
STACK CFI 646a4 .cfa: sp 96 +
STACK CFI 646bc .cfa: sp 0 +
STACK CFI 646c0 .cfa: x29 96 +
STACK CFI INIT 64934 238 .cfa: sp 0 +
STACK CFI 64938 .cfa: sp 128 +
STACK CFI 64948 .cfa: x29 48 + x19: .cfa -8 + ^ x20: .cfa -16 + ^ x21: .cfa -24 + ^ x22: .cfa -32 + ^ .ra: .cfa -40 + ^ x29: .cfa -48 + ^
STACK CFI 64ad0 .cfa: sp 128 +
STACK CFI 64ae0 .cfa: sp 0 +
STACK CFI 64ae4 .cfa: x29 48 +
STACK CFI INIT 64ed0 3a4 .cfa: sp 0 +
STACK CFI 64ed4 .cfa: sp 96 +
STACK CFI 64eec .cfa: x29 96 + x19: .cfa -8 + ^ x20: .cfa -16 + ^ x21: .cfa -24 + ^ x22: .cfa -32 + ^ x23: .cfa -40 + ^ x24: .cfa -48 + ^ x25: .cfa -56 + ^ x26: .cfa -64 + ^ x27: .cfa -72 + ^ x28: .cfa -80 + ^ .ra: .cfa -88 + ^ x29: .cfa -96 + ^
STACK CFI 65214 .cfa: sp 96 +
STACK CFI 6522c .cfa: sp 0 +
STACK CFI 65230 .cfa: x29 96 +
STACK CFI INIT 65314 c78 .cfa: sp 0 +
STACK CFI 65318 .cfa: sp 96 +
STACK CFI 65330 .cfa: x29 96 + x19: .cfa -8 + ^ x20: .cfa -16 + ^ x21: .cfa -24 + ^ x22: .cfa -32 + ^ x23: .cfa -40 + ^ x24: .cfa -48 + ^ x25: .cfa -56 + ^ x26: .cfa -64 + ^ x27: .cfa -72 + ^ x28: .cfa -80 + ^ .ra: .cfa -88 + ^ x29: .cfa -96 + ^
STACK CFI 65e40 .cfa: sp 96 +
STACK CFI 65e58 .cfa: sp 0 +
STACK CFI 65e5c .cfa: x29 96 +
STACK CFI INIT 66274 ad0 .cfa: sp 0 +
STACK CFI 66278 .cfa: sp 96 +
STACK CFI 66290 .cfa: x29 96 + x19: .cfa -8 + ^ x20: .cfa -16 + ^ x21: .cfa -24 + ^ x22: .cfa -32 + ^ x23: .cfa -40 + ^ x24: .cfa -48 + ^ x25: .cfa -56 + ^ x26: .cfa -64 + ^ x27: .cfa -72 + ^ x28: .cfa -80 + ^ .ra: .cfa -88 + ^ x29: .cfa -96 + ^
STACK CFI 66cb8 .cfa: sp 96 +
STACK CFI 66cd0 .cfa: sp 0 +
STACK CFI 66cd4 .cfa: x29 96 +
STACK CFI INIT 66f38 1350 .cfa: sp 0 +
STACK CFI 66f3c .cfa: sp 96 +
STACK CFI 66f54 .cfa: x29 96 + x19: .cfa -8 + ^ x20: .cfa -16 + ^ x21: .cfa -24 + ^ x22: .cfa -32 + ^ x23: .cfa -40 + ^ x24: .cfa -48 + ^ x25: .cfa -56 + ^ x26: .cfa -64 + ^ x27: .cfa -72 + ^ x28: .cfa -80 + ^ .ra: .cfa -88 + ^ x29: .cfa -96 + ^
STACK CFI 68154 .cfa: sp 96 +
STACK CFI 6816c .cfa: sp 0 +
STACK CFI 68170 .cfa: x29 96 +
STACK CFI INIT 683ac 744 .cfa: sp 0 +
STACK CFI 683b0 .cfa: sp 368 +
STACK CFI 683cc .cfa: x29 96 + x19: .cfa -8 + ^ x20: .cfa -16 + ^ x21: .cfa -24 + ^ x22: .cfa -32 + ^ x23: .cfa -40 + ^ x24: .cfa -48 + ^ x25: .cfa -56 + ^ x26: .cfa -64 + ^ x27: .cfa -72 + ^ x28: .cfa -80 + ^ .ra: .cfa -88 + ^ x29: .cfa -96 + ^
STACK CFI 68468 .cfa: sp 368 +
STACK CFI 68484 .cfa: sp 0 +
STACK CFI 68488 .cfa: x29 96 +
STACK CFI 684dc .cfa: sp 368 +
STACK CFI 684f8 .cfa: sp 0 +
STACK CFI 684fc .cfa: x29 96 +
STACK CFI INIT 68e84 e8c .cfa: sp 0 +
STACK CFI 68e88 .cfa: sp 96 +
STACK CFI 68ea0 .cfa: x29 96 + x19: .cfa -8 + ^ x20: .cfa -16 + ^ x21: .cfa -24 + ^ x22: .cfa -32 + ^ x23: .cfa -40 + ^ x24: .cfa -48 + ^ x25: .cfa -56 + ^ x26: .cfa -64 + ^ x27: .cfa -72 + ^ x28: .cfa -80 + ^ .ra: .cfa -88 + ^ x29: .cfa -96 + ^
STACK CFI 69b30 .cfa: sp 96 +
STACK CFI 69b48 .cfa: sp 0 +
STACK CFI 69b4c .cfa: x29 96 +
STACK CFI INIT 6a084 14c4 .cfa: sp 0 +
STACK CFI 6a088 .cfa: sp 112 +
STACK CFI 6a0a4 .cfa: x29 96 + x19: .cfa -8 + ^ x20: .cfa -16 + ^ x21: .cfa -24 + ^ x22: .cfa -32 + ^ x23: .cfa -40 + ^ x24: .cfa -48 + ^ x25: .cfa -56 + ^ x26: .cfa -64 + ^ x27: .cfa -72 + ^ x28: .cfa -80 + ^ .ra: .cfa -88 + ^ x29: .cfa -96 + ^ v8: .cfa -112 + ^
STACK CFI 6b380 .cfa: sp 112 +
STACK CFI 6b39c .cfa: sp 0 +
STACK CFI 6b3a0 .cfa: x29 96 +
STACK CFI INIT 6d85c 98c .cfa: sp 0 +
STACK CFI 6d860 .cfa: sp 144 +
STACK CFI 6d878 .cfa: x29 80 + x19: .cfa -8 + ^ x20: .cfa -16 + ^ x21: .cfa -24 + ^ x22: .cfa -32 + ^ x23: .cfa -40 + ^ x24: .cfa -48 + ^ x25: .cfa -64 + ^ .ra: .cfa -72 + ^ x29: .cfa -80 + ^
STACK CFI 6e164 .cfa: sp 144 +
STACK CFI 6e17c .cfa: sp 0 +
STACK CFI 6e180 .cfa: x29 80 +
STACK CFI INIT 6e1e8 570 .cfa: sp 0 +
STACK CFI 6e1ec .cfa: sp 96 +
STACK CFI 6e204 .cfa: x29 96 + x19: .cfa -8 + ^ x20: .cfa -16 + ^ x21: .cfa -24 + ^ x22: .cfa -32 + ^ x23: .cfa -40 + ^ x24: .cfa -48 + ^ x25: .cfa -56 + ^ x26: .cfa -64 + ^ x27: .cfa -72 + ^ x28: .cfa -80 + ^ .ra: .cfa -88 + ^ x29: .cfa -96 + ^
STACK CFI 6e6bc .cfa: sp 96 +
STACK CFI 6e6d4 .cfa: sp 0 +
STACK CFI 6e6d8 .cfa: x29 96 +
STACK CFI INIT 6e758 664 .cfa: sp 0 +
STACK CFI 6e75c .cfa: sp 96 +
STACK CFI 6e774 .cfa: x29 96 + x19: .cfa -8 + ^ x20: .cfa -16 + ^ x21: .cfa -24 + ^ x22: .cfa -32 + ^ x23: .cfa -40 + ^ x24: .cfa -48 + ^ x25: .cfa -56 + ^ x26: .cfa -64 + ^ x27: .cfa -72 + ^ x28: .cfa -80 + ^ .ra: .cfa -88 + ^ x29: .cfa -96 + ^
STACK CFI 6ed20 .cfa: sp 96 +
STACK CFI 6ed38 .cfa: sp 0 +
STACK CFI 6ed3c .cfa: x29 96 +
