MODULE Linux arm64 7AEBA33F83A17A5C5DE96594BA61B6AF0 km7dev.soggy_basement.android64.so
INFO CODE_ID 3FA3EB7AA1835C7A5DE96594BA61B6AFABE46BF3
INFO GENERATOR mozilla/dump_syms 2.3.4
PUBLIC 4ea0 0 __on_dlclose
PUBLIC 4eb0 0 __emutls_unregister_key
PUBLIC 4eb8 0 __on_dlclose_late
PUBLIC 4ec0 0 __atexit_handler_wrapper
PUBLIC 4ed4 0 atexit
PUBLIC 4ef0 0 pthread_atfork
PUBLIC 4f00 0 unwind_phase2
PUBLIC 5034 0 _Unwind_Resume
PUBLIC 50b8 0 unwind_phase2_forced
PUBLIC m 51ac 0 __unw_init_local
PUBLIC m 5254 0 __unw_get_reg
PUBLIC 52d0 0 __unw_step_stage2
PUBLIC m 52e4 0 __unw_get_proc_info
PUBLIC m 5324 0 __unw_resume
PUBLIC 534c 0 libunwind::CFI_Parser<libunwind::LocalAddressSpace>::decodeFDE(libunwind::LocalAddressSpace&, unsigned long, libunwind::CFI_Parser<libunwind::LocalAddressSpace>::FDE_Info*, libunwind::CFI_Parser<libunwind::LocalAddressSpace>::CIE_Info*, bool)
PUBLIC 54dc 0 libunwind::CFI_Parser<libunwind::LocalAddressSpace>::parseCIE(libunwind::LocalAddressSpace&, unsigned long, libunwind::CFI_Parser<libunwind::LocalAddressSpace>::CIE_Info*)
PUBLIC 57a4 0 libunwind::AbstractUnwindCursor::~AbstractUnwindCursor()
PUBLIC 57ac 0 libunwind::UnwindCursor<libunwind::LocalAddressSpace, libunwind::Registers_arm64>::~UnwindCursor()
PUBLIC 57b4 0 libunwind::UnwindCursor<libunwind::LocalAddressSpace, libunwind::Registers_arm64>::validReg(int)
PUBLIC 57f8 0 libunwind::UnwindCursor<libunwind::LocalAddressSpace, libunwind::Registers_arm64>::getReg(int)
PUBLIC 58e0 0 libunwind::UnwindCursor<libunwind::LocalAddressSpace, libunwind::Registers_arm64>::setReg(int, unsigned long)
PUBLIC 59c8 0 libunwind::UnwindCursor<libunwind::LocalAddressSpace, libunwind::Registers_arm64>::validFloatReg(int)
PUBLIC 59dc 0 libunwind::UnwindCursor<libunwind::LocalAddressSpace, libunwind::Registers_arm64>::getFloatReg(int)
PUBLIC 59ec 0 libunwind::UnwindCursor<libunwind::LocalAddressSpace, libunwind::Registers_arm64>::setFloatReg(int, double)
PUBLIC 59fc 0 libunwind::UnwindCursor<libunwind::LocalAddressSpace, libunwind::Registers_arm64>::step(bool)
PUBLIC 5aec 0 libunwind::UnwindCursor<libunwind::LocalAddressSpace, libunwind::Registers_arm64>::getInfo(unw_proc_info_t*)
PUBLIC 5b30 0 libunwind::UnwindCursor<libunwind::LocalAddressSpace, libunwind::Registers_arm64>::jumpto()
PUBLIC 5b3c 0 libunwind::UnwindCursor<libunwind::LocalAddressSpace, libunwind::Registers_arm64>::isSignalFrame()
PUBLIC 5b48 0 libunwind::UnwindCursor<libunwind::LocalAddressSpace, libunwind::Registers_arm64>::getFunctionName(char*, unsigned long, unsigned long*)
PUBLIC 5b74 0 libunwind::UnwindCursor<libunwind::LocalAddressSpace, libunwind::Registers_arm64>::setInfoBasedOnIPRegister(bool)
PUBLIC 5df4 0 libunwind::UnwindCursor<libunwind::LocalAddressSpace, libunwind::Registers_arm64>::getRegisterName(int)
PUBLIC 5e00 0 libunwind::UnwindCursor<libunwind::LocalAddressSpace, libunwind::Registers_arm64>::stepThroughSigReturn(libunwind::Registers_arm64&)
PUBLIC 5f20 0 libunwind::DwarfInstructions<libunwind::LocalAddressSpace, libunwind::Registers_arm64>::stepWithDwarf(libunwind::LocalAddressSpace&, unsigned long, unsigned long, libunwind::Registers_arm64&, bool&, bool)
PUBLIC 63a8 0 libunwind::CFI_Parser<libunwind::LocalAddressSpace>::parseFDEInstructions(libunwind::LocalAddressSpace&, libunwind::CFI_Parser<libunwind::LocalAddressSpace>::FDE_Info const&, libunwind::CFI_Parser<libunwind::LocalAddressSpace>::CIE_Info const&, unsigned long, int, libunwind::CFI_Parser<libunwind::LocalAddressSpace>::PrologInfo*)
PUBLIC 6ff0 0 libunwind::DwarfInstructions<libunwind::LocalAddressSpace, libunwind::Registers_arm64>::getCFA(libunwind::LocalAddressSpace&, libunwind::CFI_Parser<libunwind::LocalAddressSpace>::PrologInfo const&, libunwind::Registers_arm64 const&)
PUBLIC 7124 0 libunwind::DwarfInstructions<libunwind::LocalAddressSpace, libunwind::Registers_arm64>::getSavedRegister(libunwind::LocalAddressSpace&, libunwind::Registers_arm64 const&, unsigned long, libunwind::CFI_Parser<libunwind::LocalAddressSpace>::RegisterLocation const&)
PUBLIC 7334 0 libunwind::LocalAddressSpace::getEncodedP(unsigned long&, unsigned long, unsigned char, unsigned long)
PUBLIC 76c0 0 libunwind::LocalAddressSpace::getULEB128(unsigned long&, unsigned long)
PUBLIC 7888 0 libunwind::DwarfInstructions<libunwind::LocalAddressSpace, libunwind::Registers_arm64>::evaluateExpression(unsigned long, libunwind::LocalAddressSpace&, libunwind::Registers_arm64 const&, unsigned long)
PUBLIC 8244 0 libunwind::UnwindCursor<libunwind::LocalAddressSpace, libunwind::Registers_arm64>::getInfoFromDwarfSection(unsigned long, libunwind::UnwindInfoSections const&, unsigned int)
PUBLIC 8518 0 libunwind::findUnwindSectionsByPhdr(dl_phdr_info*, unsigned long, void*)
PUBLIC 864c 0 libunwind::EHHeaderParser<libunwind::LocalAddressSpace>::decodeEHHdr(libunwind::LocalAddressSpace&, unsigned long, unsigned long, libunwind::EHHeaderParser<libunwind::LocalAddressSpace>::EHHeaderInfo&)
PUBLIC 876c 0 libunwind::CFI_Parser<libunwind::LocalAddressSpace>::findFDE(libunwind::LocalAddressSpace&, unsigned long, unsigned long, unsigned long, unsigned long, libunwind::CFI_Parser<libunwind::LocalAddressSpace>::FDE_Info*, libunwind::CFI_Parser<libunwind::LocalAddressSpace>::CIE_Info*)
PUBLIC 8934 0 libunwind::EHHeaderParser<libunwind::LocalAddressSpace>::findFDE(libunwind::LocalAddressSpace&, unsigned long, unsigned long, unsigned int, libunwind::CFI_Parser<libunwind::LocalAddressSpace>::FDE_Info*, libunwind::CFI_Parser<libunwind::LocalAddressSpace>::CIE_Info*)
PUBLIC 8a9c 0 libunwind::EHHeaderParser<libunwind::LocalAddressSpace>::getTableEntrySize(unsigned char)
PUBLIC 8b98 0 libunwind::Registers_arm64::getRegisterName(int)
PUBLIC 8bc8 0 __libunwind_Registers_arm64_jumpto
PUBLIC m 8c58 0 __unw_getcontext
PUBLIC 8d00 0 __aarch64_ldadd8_relax
PUBLIC 8d30 0 init_have_lse_atomics
PUBLIC 8dc8 0 __init_cpu_features_constructor
PUBLIC 9364 0 __init_cpu_features
PUBLIC 93f0 0 __aarch64_ldadd8_acq_rel
PUBLIC 9420 0 __cxx_global_var_init
PUBLIC 9fc0 0 geode::modifier::ModifyBase<geode::modifier::ModifyDerive<hook6<(anonymous namespace)::hook6Parent>, SecretLayer3> >::~ModifyBase()
PUBLIC 9fd8 0 geode::modifier::ModifyDerive<hook6<(anonymous namespace)::hook6Parent>, SecretLayer3>::apply()
PUBLIC a3ec 0 std::__ndk1::shared_ptr<geode::Hook>::~shared_ptr[abi:ne180000]()
PUBLIC a43c 0 geode::impl::ResultData<geode::Hook*, std::__ndk1::basic_string<char, std::__ndk1::char_traits<char>, std::__ndk1::allocator<char> > >::~ResultData()
PUBLIC a4b0 0 std::__ndk1::vector<std::__ndk1::basic_string<char, std::__ndk1::char_traits<char>, std::__ndk1::allocator<char> >, std::__ndk1::allocator<std::__ndk1::basic_string<char, std::__ndk1::char_traits<char>, std::__ndk1::allocator<char> > > >::~vector[abi:ne180000]()
PUBLIC a52c 0 geode::modifier::ModifyBase<geode::modifier::ModifyDerive<hook6<(anonymous namespace)::hook6Parent>, SecretLayer3> >::apply()
PUBLIC a530 0 __clang_call_terminate
PUBLIC a540 0 _ZN5geode15UnwrapExceptionC2IRPNS_4HookEQsr4implE18IsStringStreamableIT_EEENS_4impl5OkTagEOS5_
PUBLIC a694 0 std::__ndk1::__throw_bad_variant_access[abi:ne180000]()
PUBLIC a6c8 0 std::__ndk1::basic_stringstream<char, std::__ndk1::char_traits<char>, std::__ndk1::allocator<char> >::basic_stringstream[abi:ne180000]()
PUBLIC m a7f4 0 std::__ndk1::basic_stringstream<char, std::__ndk1::char_traits<char>, std::__ndk1::allocator<char> >::~basic_stringstream()
PUBLIC a874 0 geode::UnwrapException::~UnwrapException()
PUBLIC a898 0 std::__ndk1::__put_character_sequence[abi:ne180000]<char, std::__ndk1::char_traits<char> >(std::__ndk1::basic_ostream<char, std::__ndk1::char_traits<char> >, std::__ndk1::basic_ostream const*, unsigned long)
PUBLIC aa3c 0 std::__ndk1::__pad_and_output[abi:ne180000]<char, std::__ndk1::char_traits<char> >(std::__ndk1::char_traits<char>, std::__ndk1::ostreambuf_iterator const*, std::__ndk1::ostreambuf_iterator const, std::__ndk1::ostreambuf_iterator const, std::__ndk1::ios_base&, std::__ndk1::ostreambuf_iterator)
PUBLIC ac18 0 std::__ndk1::basic_string<char, std::__ndk1::char_traits<char>, std::__ndk1::allocator<char> >::__throw_length_error[abi:ne180000]() const
PUBLIC ac2c 0 std::__ndk1::__throw_length_error[abi:ne180000](char const*)
PUBLIC ac7c 0 std::length_error::length_error[abi:ne180000](char const*)
PUBLIC acac 0 std::__throw_bad_array_new_length([abi:ne180000], void)
PUBLIC ace0 0 std::__ndk1::basic_stringbuf<char, std::__ndk1::char_traits<char>, std::__ndk1::allocator<char> >::str[abi:ne180000]() &&
PUBLIC ae58 0 std::__ndk1::basic_stringbuf<char, std::__ndk1::char_traits<char>, std::__ndk1::allocator<char> >::__init_buf_ptrs[abi:ne180000]()
PUBLIC afa0 0 std::__ndk1::basic_string<char, std::__ndk1::char_traits<char>, std::__ndk1::allocator<char> >::__init_copy_ctor_external(char const*, unsigned long)
PUBLIC b020 0 std::__ndk1::__split_buffer<std::__ndk1::basic_string<char, std::__ndk1::char_traits<char>, std::__ndk1::allocator<char> >, std::__ndk1::allocator<std::__ndk1::basic_string<char, std::__ndk1::char_traits<char>, std::__ndk1::allocator<char> > >&>::~__split_buffer()
PUBLIC b088 0 std::__ndk1::vector<std::__ndk1::basic_string<char, std::__ndk1::char_traits<char>, std::__ndk1::allocator<char> >, std::__ndk1::allocator<std::__ndk1::basic_string<char, std::__ndk1::char_traits<char>, std::__ndk1::allocator<char> > > >::__throw_length_error[abi:ne180000]() const
PUBLIC b09c 0 std::__ndk1::__variant_detail::__visitation::__base::__dispatcher<(unsigned long)0>::__dispatch[abi:ne180000]<std::__ndk1::__variant_detail::__dtor<std::__ndk1::__variant_detail::__traits<geode::Hook*, std::__ndk1::basic_string<char, std::__ndk1::char_traits<char>, std::__ndk1::allocator<char> > >, (std::__ndk1::__variant_detail::_Trait)1>::__destroy[abi:ne180000]()::{lambda(auto:1&)#1}, std::__ndk1::__variant_detail::__base<(std::__ndk1::__variant_detail::__traits<geode::Hook*, std::__ndk1::basic_string<char, std::__ndk1::char_traits<char>, std::__ndk1::allocator<char> > >)1, geode::Hook, std::__ndk1::allocator<char> >&>(std::__ndk1::__variant_detail::__dtor<std::__ndk1::__variant_detail::__traits<geode::Hook*, std::__ndk1::basic_string<char, std::__ndk1::char_traits<char>, std::__ndk1::allocator<char> > >, (std::__ndk1::__variant_detail::_Trait)1>, std::__ndk1::__variant_detail::__base<(std::__ndk1::__variant_detail::__traits<geode::Hook*, std::__ndk1::basic_string<char, std::__ndk1::char_traits<char>, std::__ndk1::allocator<char> > >)1, geode::Hook, std::__ndk1::allocator<char> >&)
PUBLIC b0a0 0 std::__ndk1::__variant_detail::__visitation::__base::__dispatcher<(unsigned long)1>::__dispatch[abi:ne180000]<std::__ndk1::__variant_detail::__dtor<std::__ndk1::__variant_detail::__traits<geode::Hook*, std::__ndk1::basic_string<char, std::__ndk1::char_traits<char>, std::__ndk1::allocator<char> > >, (std::__ndk1::__variant_detail::_Trait)1>::__destroy[abi:ne180000]()::{lambda(auto:1&)#1}, std::__ndk1::__variant_detail::__base<(std::__ndk1::__variant_detail::__traits<geode::Hook*, std::__ndk1::basic_string<char, std::__ndk1::char_traits<char>, std::__ndk1::allocator<char> > >)1, geode::Hook, std::__ndk1::allocator<char> >&>(std::__ndk1::__variant_detail::__dtor<std::__ndk1::__variant_detail::__traits<geode::Hook*, std::__ndk1::basic_string<char, std::__ndk1::char_traits<char>, std::__ndk1::allocator<char> > >, (std::__ndk1::__variant_detail::_Trait)1>, std::__ndk1::__variant_detail::__base<(std::__ndk1::__variant_detail::__traits<geode::Hook*, std::__ndk1::basic_string<char, std::__ndk1::char_traits<char>, std::__ndk1::allocator<char> > >)1, geode::Hook, std::__ndk1::allocator<char> >&)
PUBLIC b0b4 0 std::__ndk1::__tree<std::__ndk1::__value_type<std::__ndk1::basic_string<char, std::__ndk1::char_traits<char>, std::__ndk1::allocator<char> >, std::__ndk1::shared_ptr<geode::Hook> >, std::__ndk1::__map_value_compare<std::__ndk1::basic_string<char, std::__ndk1::char_traits<char>, std::__ndk1::allocator<char> >, std::__ndk1::__value_type<std::__ndk1::basic_string<char, std::__ndk1::char_traits<char>, std::__ndk1::allocator<char> >, std::__ndk1::shared_ptr<geode::Hook> >, std::__ndk1::less<std::__ndk1::basic_string<char, std::__ndk1::char_traits<char>, std::__ndk1::allocator<char> > >, true>, std::__ndk1::allocator<std::__ndk1::__value_type<std::__ndk1::basic_string<char, std::__ndk1::char_traits<char>, std::__ndk1::allocator<char> >, std::__ndk1::shared_ptr<geode::Hook> > > >::destroy(std::__ndk1::__tree_node<std::__ndk1::__value_type<std::__ndk1::basic_string<char, std::__ndk1::char_traits<char>, std::__ndk1::allocator<char> >, std::__ndk1::shared_ptr<geode::Hook> >, void*>*)
PUBLIC b138 0 geode::modifier::AsStaticFunction_init<hook6<(anonymous namespace)::hook6Parent>, bool (hook6<(anonymous namespace)::hook6Parent>::*)()>::Impl<bool (hook6<(anonymous namespace)::hook6Parent>::*)()>::function(hook6<(anonymous namespace)::hook6Parent>*)
PUBLIC b374 0 geode::addresser::Addresser::addressOfVirtual<bool, SecretLayer3, >(bool (SecretLayer3::*)())
PUBLIC b41c 0 SecretLayer3::SecretLayer3(geode::ZeroConstructorType)
PUBLIC b4b4 0 std::__ndk1::shared_ptr<tulip::hook::CallingConvention>::~shared_ptr[abi:ne180000]()
PUBLIC b504 0 tulip::hook::HandlerMetadata::~HandlerMetadata()
PUBLIC b568 0 std::__ndk1::__tree_balance_after_insert[abi:ne180000]<std::__ndk1::__tree_node_base<void*>*>(std::__ndk1::__tree_node_base<void*>*, std::__ndk1::__tree_node_base<void*>*)
PUBLIC m b718 0 geodeImplicitEntry
PUBLIC b754 0 wrapFunction(unsigned long, tulip::hook::WrapperMetadata const&)
PUBLIC b888 0 geode::impl::ResultData<void*, std::__ndk1::basic_string<char, std::__ndk1::char_traits<char>, std::__ndk1::allocator<char> > >::unwrapErr() &
PUBLIC b900 0 geode::impl::ResultData<void*, std::__ndk1::basic_string<char, std::__ndk1::char_traits<char>, std::__ndk1::allocator<char> > >::~ResultData()
PUBLIC b974 0 tulip::hook::WrapperMetadata::~WrapperMetadata()
PUBLIC b9d8 0 tulip::hook::AbstractFunction::from<bool, GameStatsManager*, gd::string>(bool (*)(GameStatsManager*, gd::string))
PUBLIC ba7c 0 GameStatsManager::isSpecialChestUnlocked(gd::string)
PUBLIC bbfc 0 _ZN5geode15UnwrapExceptionC2IRPvQsr4implE18IsStringStreamableIT_EEENS_4impl5OkTagEOS4_
PUBLIC bd50 0 _ZN5geode15UnwrapExceptionC2IRNSt6__ndk112basic_stringIcNS2_11char_traitsIcEENS2_9allocatorIcEEEEQsr4implE18IsStringStreamableIT_EEENS_4impl6ErrTagEOSA_
PUBLIC beb8 0 std::__ndk1::__variant_detail::__visitation::__base::__dispatcher<(unsigned long)0>::__dispatch[abi:ne180000]<std::__ndk1::__variant_detail::__dtor<std::__ndk1::__variant_detail::__traits<void*, std::__ndk1::basic_string<char, std::__ndk1::char_traits<char>, std::__ndk1::allocator<char> > >, (std::__ndk1::__variant_detail::_Trait)1>::__destroy[abi:ne180000]()::{lambda(auto:1&)#1}, std::__ndk1::__variant_detail::__base<(std::__ndk1::__variant_detail::__traits<void*, std::__ndk1::basic_string<char, std::__ndk1::char_traits<char>, std::__ndk1::allocator<char> > >)1, std::__ndk1::__variant_detail::__traits, std::__ndk1::allocator<char> >&>(std::__ndk1::__variant_detail::__dtor<std::__ndk1::__variant_detail::__traits<void*, std::__ndk1::basic_string<char, std::__ndk1::char_traits<char>, std::__ndk1::allocator<char> > >, (std::__ndk1::__variant_detail::_Trait)1>, std::__ndk1::__variant_detail::__base<(std::__ndk1::__variant_detail::__traits<void*, std::__ndk1::basic_string<char, std::__ndk1::char_traits<char>, std::__ndk1::allocator<char> > >)1, std::__ndk1::__variant_detail::__traits, std::__ndk1::allocator<char> >&)
PUBLIC bebc 0 std::__ndk1::__variant_detail::__visitation::__base::__dispatcher<(unsigned long)1>::__dispatch[abi:ne180000]<std::__ndk1::__variant_detail::__dtor<std::__ndk1::__variant_detail::__traits<void*, std::__ndk1::basic_string<char, std::__ndk1::char_traits<char>, std::__ndk1::allocator<char> > >, (std::__ndk1::__variant_detail::_Trait)1>::__destroy[abi:ne180000]()::{lambda(auto:1&)#1}, std::__ndk1::__variant_detail::__base<(std::__ndk1::__variant_detail::__traits<void*, std::__ndk1::basic_string<char, std::__ndk1::char_traits<char>, std::__ndk1::allocator<char> > >)1, std::__ndk1::__variant_detail::__traits, std::__ndk1::allocator<char> >&>(std::__ndk1::__variant_detail::__dtor<std::__ndk1::__variant_detail::__traits<void*, std::__ndk1::basic_string<char, std::__ndk1::char_traits<char>, std::__ndk1::allocator<char> > >, (std::__ndk1::__variant_detail::_Trait)1>, std::__ndk1::__variant_detail::__base<(std::__ndk1::__variant_detail::__traits<void*, std::__ndk1::basic_string<char, std::__ndk1::char_traits<char>, std::__ndk1::allocator<char> > >)1, std::__ndk1::__variant_detail::__traits, std::__ndk1::allocator<char> >&)
PUBLIC bed0 0 <.plt ELF section in km7dev.soggy_basement.android64.so>
STACK CFI INIT 4ea0 10 .cfa: sp 0 +
STACK CFI INIT 4eb0 8 .cfa: sp 0 +
STACK CFI INIT 4eb8 8 .cfa: sp 0 +
STACK CFI INIT 4ec0 14 .cfa: sp 0 +
STACK CFI INIT 4ed4 1c .cfa: sp 0 +
STACK CFI INIT 4ef0 10 .cfa: sp 0 +
STACK CFI INIT 4f00 134 .cfa: sp 0 +
STACK CFI INIT 5034 84 .cfa: sp 0 +
STACK CFI INIT 50b8 f4 .cfa: sp 0 +
STACK CFI INIT 51ac a8 .cfa: sp 0 +
STACK CFI INIT 5254 7c .cfa: sp 0 +
STACK CFI INIT 52d0 14 .cfa: sp 0 +
STACK CFI INIT 52e4 40 .cfa: sp 0 +
STACK CFI INIT 5324 28 .cfa: sp 0 +
STACK CFI INIT 534c 190 .cfa: sp 0 +
STACK CFI INIT 54dc 2c8 .cfa: sp 0 +
STACK CFI INIT 57a4 8 .cfa: sp 0 +
STACK CFI INIT 57ac 8 .cfa: sp 0 +
STACK CFI INIT 57b4 44 .cfa: sp 0 +
STACK CFI INIT 57f8 e8 .cfa: sp 0 +
STACK CFI INIT 58e0 e8 .cfa: sp 0 +
STACK CFI INIT 59c8 14 .cfa: sp 0 +
STACK CFI INIT 59dc 10 .cfa: sp 0 +
STACK CFI INIT 59ec 10 .cfa: sp 0 +
STACK CFI INIT 59fc f0 .cfa: sp 0 +
STACK CFI INIT 5aec 44 .cfa: sp 0 +
STACK CFI INIT 5b30 c .cfa: sp 0 +
STACK CFI INIT 5b3c c .cfa: sp 0 +
STACK CFI INIT 5b48 2c .cfa: sp 0 +
STACK CFI INIT 5b74 280 .cfa: sp 0 +
STACK CFI INIT 5df4 c .cfa: sp 0 +
STACK CFI INIT 5e00 120 .cfa: sp 0 +
STACK CFI INIT 5f20 488 .cfa: sp 0 +
STACK CFI INIT 63a8 c48 .cfa: sp 0 +
STACK CFI INIT 6ff0 134 .cfa: sp 0 +
STACK CFI INIT 7124 210 .cfa: sp 0 +
STACK CFI INIT 7334 38c .cfa: sp 0 +
STACK CFI INIT 76c0 1c8 .cfa: sp 0 +
STACK CFI INIT 7888 9bc .cfa: sp 0 +
STACK CFI INIT 8244 2d4 .cfa: sp 0 +
STACK CFI INIT 8518 134 .cfa: sp 0 +
STACK CFI INIT 864c 120 .cfa: sp 0 +
STACK CFI INIT 876c 1c8 .cfa: sp 0 +
STACK CFI INIT 8934 168 .cfa: sp 0 +
STACK CFI INIT 8a9c fc .cfa: sp 0 +
STACK CFI INIT 8b98 30 .cfa: sp 0 +
STACK CFI INIT 8d00 30 .cfa: sp 0 +
STACK CFI INIT 8d30 98 .cfa: sp 0 +
STACK CFI INIT 8dc8 59c .cfa: sp 0 +
STACK CFI INIT 9364 8c .cfa: sp 0 +
STACK CFI INIT 93f0 30 .cfa: sp 0 +
STACK CFI INIT 9fc0 18 .cfa: sp 0 +
STACK CFI INIT a3ec 50 .cfa: sp 0 +
STACK CFI a3f0 .cfa: sp 32 +
STACK CFI a3f8 .cfa: x29 32 + x19: .cfa -16 + ^ .ra: .cfa -24 + ^ x29: .cfa -32 + ^
STACK CFI a410 .cfa: sp 32 +
STACK CFI a418 .cfa: sp 0 +
STACK CFI a41c .cfa: x29 32 +
STACK CFI a430 .cfa: sp 32 +
STACK CFI a438 .cfa: sp 0 +
STACK CFI INIT a4b0 7c .cfa: sp 0 +
STACK CFI a4b4 .cfa: sp 48 +
STACK CFI a4c0 .cfa: x29 48 + x19: .cfa -8 + ^ x20: .cfa -16 + ^ x21: .cfa -32 + ^ .ra: .cfa -40 + ^ x29: .cfa -48 + ^
STACK CFI a50c .cfa: sp 48 +
STACK CFI a518 .cfa: sp 0 +
STACK CFI a51c .cfa: sp 48 +
STACK CFI a528 .cfa: sp 0 +
STACK CFI INIT a52c 4 .cfa: sp 0 +
STACK CFI INIT a530 10 .cfa: sp 0 +
STACK CFI a534 .cfa: sp 16 +
STACK CFI a538 .cfa: x29 16 + .ra: .cfa -8 + ^ x29: .cfa -16 + ^
STACK CFI INIT a694 34 .cfa: sp 0 +
STACK CFI a698 .cfa: sp 16 +
STACK CFI a69c .cfa: x29 16 + .ra: .cfa -8 + ^ x29: .cfa -16 + ^
STACK CFI INIT a7f4 80 .cfa: sp 0 +
STACK CFI a7f8 .cfa: sp 48 +
STACK CFI a804 .cfa: x29 48 + x19: .cfa -8 + ^ x20: .cfa -16 + ^ x21: .cfa -32 + ^ .ra: .cfa -40 + ^ x29: .cfa -48 + ^
STACK CFI a864 .cfa: sp 48 +
STACK CFI a870 .cfa: sp 0 +
STACK CFI INIT a874 24 .cfa: sp 0 +
STACK CFI a878 .cfa: sp 32 +
STACK CFI a880 .cfa: x29 32 + x19: .cfa -16 + ^ .ra: .cfa -24 + ^ x29: .cfa -32 + ^
STACK CFI a88c .cfa: sp 32 +
STACK CFI a894 .cfa: sp 0 +
STACK CFI INIT ac18 14 .cfa: sp 0 +
STACK CFI ac1c .cfa: sp 16 +
STACK CFI ac20 .cfa: x29 16 + .ra: .cfa -8 + ^ x29: .cfa -16 + ^
STACK CFI INIT ac7c 30 .cfa: sp 0 +
STACK CFI ac80 .cfa: sp 32 +
STACK CFI ac88 .cfa: x29 32 + x19: .cfa -16 + ^ .ra: .cfa -24 + ^ x29: .cfa -32 + ^
STACK CFI aca0 .cfa: sp 32 +
STACK CFI aca8 .cfa: sp 0 +
STACK CFI INIT acac 34 .cfa: sp 0 +
STACK CFI acb0 .cfa: sp 32 +
STACK CFI acb8 .cfa: x29 32 + x19: .cfa -16 + ^ .ra: .cfa -24 + ^ x29: .cfa -32 + ^
STACK CFI INIT ae58 148 .cfa: sp 0 +
STACK CFI ae5c .cfa: sp 48 +
STACK CFI ae68 .cfa: x29 48 + x19: .cfa -8 + ^ x20: .cfa -16 + ^ x21: .cfa -32 + ^ .ra: .cfa -40 + ^ x29: .cfa -48 + ^
STACK CFI af90 .cfa: sp 48 +
STACK CFI af9c .cfa: sp 0 +
STACK CFI INIT afa0 80 .cfa: sp 0 +
STACK CFI afa4 .cfa: sp 48 +
STACK CFI afb0 .cfa: x29 48 + x19: .cfa -8 + ^ x20: .cfa -16 + ^ x21: .cfa -24 + ^ x22: .cfa -32 + ^ .ra: .cfa -40 + ^ x29: .cfa -48 + ^
STACK CFI afc8 .cfa: sp 48 +
STACK CFI afd4 .cfa: sp 0 +
STACK CFI afd8 .cfa: x29 48 +
STACK CFI b008 .cfa: sp 48 +
STACK CFI b014 .cfa: sp 0 +
STACK CFI b018 .cfa: x29 48 +
STACK CFI INIT b020 68 .cfa: sp 0 +
STACK CFI b024 .cfa: sp 32 +
STACK CFI b02c .cfa: x29 32 + x19: .cfa -8 + ^ x20: .cfa -16 + ^ .ra: .cfa -24 + ^ x29: .cfa -32 + ^
STACK CFI b044 .cfa: sp 32 +
STACK CFI b04c .cfa: sp 0 +
STACK CFI b050 .cfa: x29 32 +
STACK CFI b07c .cfa: sp 32 +
STACK CFI b084 .cfa: sp 0 +
STACK CFI INIT b088 14 .cfa: sp 0 +
STACK CFI b08c .cfa: sp 16 +
STACK CFI b090 .cfa: x29 16 + .ra: .cfa -8 + ^ x29: .cfa -16 + ^
STACK CFI INIT b09c 4 .cfa: sp 0 +
STACK CFI INIT b0a0 14 .cfa: sp 0 +
STACK CFI INIT b0b4 84 .cfa: sp 0 +
STACK CFI b0bc .cfa: sp 32 +
STACK CFI b0c4 .cfa: x29 32 + x19: .cfa -8 + ^ x20: .cfa -16 + ^ .ra: .cfa -24 + ^ x29: .cfa -32 + ^
STACK CFI b104 .cfa: sp 32 +
STACK CFI b10c .cfa: sp 0 +
STACK CFI b114 .cfa: x29 32 +
STACK CFI INIT b41c 98 .cfa: sp 0 +
STACK CFI INIT b4b4 50 .cfa: sp 0 +
STACK CFI b4b8 .cfa: sp 32 +
STACK CFI b4c0 .cfa: x29 32 + x19: .cfa -16 + ^ .ra: .cfa -24 + ^ x29: .cfa -32 + ^
STACK CFI b4d8 .cfa: sp 32 +
STACK CFI b4e0 .cfa: sp 0 +
STACK CFI b4e4 .cfa: x29 32 +
STACK CFI b4f8 .cfa: sp 32 +
STACK CFI b500 .cfa: sp 0 +
STACK CFI INIT b504 64 .cfa: sp 0 +
STACK CFI b508 .cfa: sp 32 +
STACK CFI b510 .cfa: x29 32 + x19: .cfa -16 + ^ .ra: .cfa -24 + ^ x29: .cfa -32 + ^
STACK CFI b53c .cfa: sp 32 +
STACK CFI b544 .cfa: sp 0 +
STACK CFI b548 .cfa: x29 32 +
STACK CFI b55c .cfa: sp 32 +
STACK CFI b564 .cfa: sp 0 +
STACK CFI INIT b568 1b0 .cfa: sp 0 +
STACK CFI INIT b718 3c .cfa: sp 0 +
STACK CFI b71c .cfa: sp 32 +
STACK CFI b724 .cfa: x29 32 + x19: .cfa -16 + ^ .ra: .cfa -24 + ^ x29: .cfa -32 + ^
STACK CFI b730 .cfa: sp 32 +
STACK CFI b738 .cfa: sp 0 +
STACK CFI b73c .cfa: x29 32 +
STACK CFI b748 .cfa: sp 32 +
STACK CFI b750 .cfa: sp 0 +
STACK CFI INIT b974 64 .cfa: sp 0 +
STACK CFI b978 .cfa: sp 32 +
STACK CFI b980 .cfa: x29 32 + x19: .cfa -16 + ^ .ra: .cfa -24 + ^ x29: .cfa -32 + ^
STACK CFI b9ac .cfa: sp 32 +
STACK CFI b9b4 .cfa: sp 0 +
STACK CFI b9b8 .cfa: x29 32 +
STACK CFI b9cc .cfa: sp 32 +
STACK CFI b9d4 .cfa: sp 0 +
STACK CFI INIT beb8 4 .cfa: sp 0 +
STACK CFI INIT bebc 14 .cfa: sp 0 +
STACK CFI INIT 9420 ba0 .cfa: sp 0 +
STACK CFI 9424 .cfa: sp 240 +
STACK CFI 9440 .cfa: x29 96 + x19: .cfa -8 + ^ x20: .cfa -16 + ^ x21: .cfa -24 + ^ x22: .cfa -32 + ^ x23: .cfa -40 + ^ x24: .cfa -48 + ^ x25: .cfa -56 + ^ x26: .cfa -64 + ^ x27: .cfa -72 + ^ x28: .cfa -80 + ^ .ra: .cfa -88 + ^ x29: .cfa -96 + ^
STACK CFI 9e68 .cfa: sp 240 +
STACK CFI 9e84 .cfa: sp 0 +
STACK CFI 9e88 .cfa: x29 96 +
STACK CFI INIT 9fd8 414 .cfa: sp 0 +
STACK CFI 9fdc .cfa: sp 224 +
STACK CFI 9ff8 .cfa: x29 96 + x19: .cfa -8 + ^ x20: .cfa -16 + ^ x21: .cfa -24 + ^ x22: .cfa -32 + ^ x23: .cfa -40 + ^ x24: .cfa -48 + ^ x25: .cfa -56 + ^ x26: .cfa -64 + ^ x27: .cfa -80 + ^ .ra: .cfa -88 + ^ x29: .cfa -96 + ^
STACK CFI a2d8 .cfa: sp 224 +
STACK CFI a2f4 .cfa: sp 0 +
STACK CFI a2f8 .cfa: x29 96 +
STACK CFI INIT a43c 74 .cfa: sp 0 +
STACK CFI a440 .cfa: sp 48 +
STACK CFI a44c .cfa: x29 32 + x19: .cfa -8 + ^ x20: .cfa -16 + ^ .ra: .cfa -24 + ^ x29: .cfa -32 + ^
STACK CFI a498 .cfa: sp 48 +
STACK CFI a4a4 .cfa: sp 0 +
STACK CFI a4a8 .cfa: x29 32 +
STACK CFI INIT a540 154 .cfa: sp 0 +
STACK CFI a544 .cfa: sp 384 +
STACK CFI a558 .cfa: x29 64 + x19: .cfa -8 + ^ x20: .cfa -16 + ^ x21: .cfa -24 + ^ x22: .cfa -32 + ^ x23: .cfa -40 + ^ x28: .cfa -48 + ^ .ra: .cfa -56 + ^ x29: .cfa -64 + ^
STACK CFI a63c .cfa: sp 384 +
STACK CFI a650 .cfa: sp 0 +
STACK CFI a654 .cfa: x29 64 +
STACK CFI INIT a6c8 12c .cfa: sp 0 +
STACK CFI a6cc .cfa: sp 80 +
STACK CFI a6e0 .cfa: x29 80 + x19: .cfa -8 + ^ x20: .cfa -16 + ^ x21: .cfa -24 + ^ x22: .cfa -32 + ^ x23: .cfa -40 + ^ x24: .cfa -48 + ^ x25: .cfa -56 + ^ x26: .cfa -64 + ^ .ra: .cfa -72 + ^ x29: .cfa -80 + ^
STACK CFI a7a8 .cfa: sp 80 +
STACK CFI a7bc .cfa: sp 0 +
STACK CFI a7c0 .cfa: x29 80 +
STACK CFI INIT a898 1a4 .cfa: sp 0 +
STACK CFI a89c .cfa: sp 112 +
STACK CFI a8b4 .cfa: x29 80 + x19: .cfa -8 + ^ x20: .cfa -16 + ^ x21: .cfa -24 + ^ x22: .cfa -32 + ^ x23: .cfa -40 + ^ x24: .cfa -48 + ^ x25: .cfa -56 + ^ x26: .cfa -64 + ^ .ra: .cfa -72 + ^ x29: .cfa -80 + ^
STACK CFI a9a4 .cfa: sp 112 +
STACK CFI a9bc .cfa: sp 0 +
STACK CFI a9c0 .cfa: x29 80 +
STACK CFI INIT aa3c 1dc .cfa: sp 0 +
STACK CFI aa40 .cfa: sp 128 +
STACK CFI aa5c .cfa: x29 96 + x19: .cfa -8 + ^ x20: .cfa -16 + ^ x21: .cfa -24 + ^ x22: .cfa -32 + ^ x23: .cfa -40 + ^ x24: .cfa -48 + ^ x25: .cfa -56 + ^ x26: .cfa -64 + ^ x27: .cfa -80 + ^ .ra: .cfa -88 + ^ x29: .cfa -96 + ^
STACK CFI abc8 .cfa: sp 128 +
STACK CFI abe4 .cfa: sp 0 +
STACK CFI abe8 .cfa: x29 96 +
STACK CFI INIT ac2c 50 .cfa: sp 0 +
STACK CFI ac30 .cfa: sp 32 +
STACK CFI ac38 .cfa: x29 32 + x19: .cfa -8 + ^ x20: .cfa -16 + ^ .ra: .cfa -24 + ^ x29: .cfa -32 + ^
STACK CFI INIT ace0 178 .cfa: sp 0 +
STACK CFI ace4 .cfa: sp 80 +
STACK CFI acf8 .cfa: x29 80 + x19: .cfa -8 + ^ x20: .cfa -16 + ^ x21: .cfa -24 + ^ x22: .cfa -32 + ^ x23: .cfa -40 + ^ x24: .cfa -48 + ^ x25: .cfa -64 + ^ .ra: .cfa -72 + ^ x29: .cfa -80 + ^
STACK CFI ae24 .cfa: sp 80 +
STACK CFI ae38 .cfa: sp 0 +
STACK CFI ae3c .cfa: x29 80 +
STACK CFI INIT b138 23c .cfa: sp 0 +
STACK CFI b13c .cfa: sp 112 +
STACK CFI b154 .cfa: x29 56 + x19: .cfa -8 + ^ x20: .cfa -16 + ^ x21: .cfa -24 + ^ x22: .cfa -32 + ^ x23: .cfa -40 + ^ .ra: .cfa -48 + ^ x29: .cfa -56 + ^ v8: .cfa -64 + ^
STACK CFI b318 .cfa: sp 112 +
STACK CFI b330 .cfa: sp 0 +
STACK CFI b334 .cfa: x29 56 +
STACK CFI INIT b374 a8 .cfa: sp 0 +
STACK CFI b378 .cfa: sp 32 +
STACK CFI b380 .cfa: x29 32 + x19: .cfa -16 + ^ .ra: .cfa -24 + ^ x29: .cfa -32 + ^
STACK CFI b3b4 .cfa: sp 32 +
STACK CFI b3bc .cfa: sp 0 +
STACK CFI b3c0 .cfa: x29 32 +
STACK CFI b3c4 .cfa: sp 32 +
STACK CFI b3cc .cfa: sp 0 +
STACK CFI b3d0 .cfa: x29 32 +
STACK CFI INIT b754 134 .cfa: sp 0 +
STACK CFI b758 .cfa: sp 80 +
STACK CFI b764 .cfa: x29 32 + x19: .cfa -8 + ^ x20: .cfa -16 + ^ .ra: .cfa -24 + ^ x29: .cfa -32 + ^
STACK CFI b794 .cfa: sp 80 +
STACK CFI b7a0 .cfa: sp 0 +
STACK CFI b7a4 .cfa: x29 32 +
STACK CFI INIT b888 78 .cfa: sp 0 +
STACK CFI b88c .cfa: sp 32 +
STACK CFI b894 .cfa: x29 32 + x19: .cfa -8 + ^ x20: .cfa -16 + ^ .ra: .cfa -24 + ^ x29: .cfa -32 + ^
STACK CFI b8a0 .cfa: sp 32 +
STACK CFI b8a8 .cfa: sp 0 +
STACK CFI b8ac .cfa: x29 32 +
STACK CFI INIT b900 74 .cfa: sp 0 +
STACK CFI b904 .cfa: sp 48 +
STACK CFI b910 .cfa: x29 32 + x19: .cfa -8 + ^ x20: .cfa -16 + ^ .ra: .cfa -24 + ^ x29: .cfa -32 + ^
STACK CFI b95c .cfa: sp 48 +
STACK CFI b968 .cfa: sp 0 +
STACK CFI b96c .cfa: x29 32 +
STACK CFI INIT b9d8 a4 .cfa: sp 0 +
STACK CFI b9dc .cfa: sp 48 +
STACK CFI b9e8 .cfa: x29 48 + x19: .cfa -8 + ^ x20: .cfa -16 + ^ x21: .cfa -32 + ^ .ra: .cfa -40 + ^ x29: .cfa -48 + ^
STACK CFI ba54 .cfa: sp 48 +
STACK CFI ba60 .cfa: sp 0 +
STACK CFI ba64 .cfa: x29 48 +
STACK CFI INIT ba7c 180 .cfa: sp 0 +
STACK CFI ba80 .cfa: sp 128 +
STACK CFI ba90 .cfa: x29 48 + x19: .cfa -8 + ^ x20: .cfa -16 + ^ x21: .cfa -24 + ^ x22: .cfa -32 + ^ .ra: .cfa -40 + ^ x29: .cfa -48 + ^
STACK CFI baf4 .cfa: sp 128 +
STACK CFI bb04 .cfa: sp 0 +
STACK CFI bb08 .cfa: x29 48 +
STACK CFI INIT bbfc 154 .cfa: sp 0 +
STACK CFI bc00 .cfa: sp 384 +
STACK CFI bc14 .cfa: x29 64 + x19: .cfa -8 + ^ x20: .cfa -16 + ^ x21: .cfa -24 + ^ x22: .cfa -32 + ^ x23: .cfa -40 + ^ x28: .cfa -48 + ^ .ra: .cfa -56 + ^ x29: .cfa -64 + ^
STACK CFI bcf8 .cfa: sp 384 +
STACK CFI bd0c .cfa: sp 0 +
STACK CFI bd10 .cfa: x29 64 +
STACK CFI INIT bd50 168 .cfa: sp 0 +
STACK CFI bd54 .cfa: sp 384 +
STACK CFI bd68 .cfa: x29 64 + x19: .cfa -8 + ^ x20: .cfa -16 + ^ x21: .cfa -24 + ^ x22: .cfa -32 + ^ x23: .cfa -40 + ^ x28: .cfa -48 + ^ .ra: .cfa -56 + ^ x29: .cfa -64 + ^
STACK CFI be60 .cfa: sp 384 +
STACK CFI be74 .cfa: sp 0 +
STACK CFI be78 .cfa: x29 64 +
