MODULE Linux arm64 578417202B25EF00FF94DAD1FDC86A5E0 techstudent10.button_sfx.android64.so
INFO CODE_ID 20178457252B00EFFF94DAD1FDC86A5EFAA7FBC5
INFO GENERATOR mozilla/dump_syms 2.3.4
PUBLIC 9a90 0 __on_dlclose
PUBLIC 9aa0 0 __emutls_unregister_key
PUBLIC 9aa8 0 __on_dlclose_late
PUBLIC 9ab0 0 __atexit_handler_wrapper
PUBLIC 9ac4 0 atexit
PUBLIC 9ae0 0 pthread_atfork
PUBLIC 9af0 0 __aarch64_ldadd8_relax
PUBLIC 9b20 0 init_have_lse_atomics
PUBLIC 9bb8 0 __init_cpu_features_constructor
PUBLIC a154 0 __init_cpu_features
PUBLIC a1e0 0 __aarch64_ldadd8_acq_rel
PUBLIC a210 0 __cxx_global_var_init
PUBLIC adb0 0 geode::modifier::ModifyBase<geode::modifier::ModifyDerive<hook6<(anonymous namespace)::hook6Parent>, CCMenuItemSpriteExtra> >::~ModifyBase()
PUBLIC adc8 0 geode::modifier::ModifyDerive<hook6<(anonymous namespace)::hook6Parent>, CCMenuItemSpriteExtra>::apply()
PUBLIC b200 0 std::__ndk1::shared_ptr<geode::Hook>::~shared_ptr[abi:ne180000]()
PUBLIC b250 0 geode::impl::ResultData<geode::Hook*, std::__ndk1::basic_string<char, std::__ndk1::char_traits<char>, std::__ndk1::allocator<char> > >::~ResultData()
PUBLIC b2c4 0 std::__ndk1::vector<std::__ndk1::basic_string<char, std::__ndk1::char_traits<char>, std::__ndk1::allocator<char> >, std::__ndk1::allocator<std::__ndk1::basic_string<char, std::__ndk1::char_traits<char>, std::__ndk1::allocator<char> > > >::~vector[abi:ne180000]()
PUBLIC b340 0 geode::modifier::ModifyBase<geode::modifier::ModifyDerive<hook6<(anonymous namespace)::hook6Parent>, CCMenuItemSpriteExtra> >::apply()
PUBLIC b344 0 __clang_call_terminate
PUBLIC b354 0 _ZN5geode15UnwrapExceptionC2IRPNS_4HookEQsr4implE18IsStringStreamableIT_EEENS_4impl5OkTagEOS5_
PUBLIC b4a8 0 std::__ndk1::__throw_bad_variant_access[abi:ne180000]()
PUBLIC b4dc 0 std::__ndk1::basic_stringstream<char, std::__ndk1::char_traits<char>, std::__ndk1::allocator<char> >::basic_stringstream[abi:ne180000]()
PUBLIC m b608 0 std::__ndk1::basic_stringstream<char, std::__ndk1::char_traits<char>, std::__ndk1::allocator<char> >::~basic_stringstream()
PUBLIC b688 0 geode::UnwrapException::~UnwrapException()
PUBLIC b6ac 0 std::__ndk1::__put_character_sequence[abi:ne180000]<char, std::__ndk1::char_traits<char> >(std::__ndk1::basic_ostream<char, std::__ndk1::char_traits<char> >, std::__ndk1::basic_ostream const*, unsigned long)
PUBLIC b850 0 std::__ndk1::__pad_and_output[abi:ne180000]<char, std::__ndk1::char_traits<char> >(std::__ndk1::char_traits<char>, std::__ndk1::ostreambuf_iterator const*, std::__ndk1::ostreambuf_iterator const, std::__ndk1::ostreambuf_iterator const, std::__ndk1::ios_base&, std::__ndk1::ostreambuf_iterator)
PUBLIC ba2c 0 std::__ndk1::basic_string<char, std::__ndk1::char_traits<char>, std::__ndk1::allocator<char> >::__throw_length_error[abi:ne180000]() const
PUBLIC ba40 0 std::__ndk1::__throw_length_error[abi:ne180000](char const*)
PUBLIC ba90 0 std::length_error::length_error[abi:ne180000](char const*)
PUBLIC bac0 0 std::__throw_bad_array_new_length([abi:ne180000], void)
PUBLIC baf4 0 std::__ndk1::basic_stringbuf<char, std::__ndk1::char_traits<char>, std::__ndk1::allocator<char> >::str[abi:ne180000]() &&
PUBLIC bc6c 0 std::__ndk1::basic_stringbuf<char, std::__ndk1::char_traits<char>, std::__ndk1::allocator<char> >::__init_buf_ptrs[abi:ne180000]()
PUBLIC bdb4 0 std::__ndk1::basic_string<char, std::__ndk1::char_traits<char>, std::__ndk1::allocator<char> >::__init_copy_ctor_external(char const*, unsigned long)
PUBLIC be34 0 std::__ndk1::__split_buffer<std::__ndk1::basic_string<char, std::__ndk1::char_traits<char>, std::__ndk1::allocator<char> >, std::__ndk1::allocator<std::__ndk1::basic_string<char, std::__ndk1::char_traits<char>, std::__ndk1::allocator<char> > >&>::~__split_buffer()
PUBLIC be9c 0 std::__ndk1::vector<std::__ndk1::basic_string<char, std::__ndk1::char_traits<char>, std::__ndk1::allocator<char> >, std::__ndk1::allocator<std::__ndk1::basic_string<char, std::__ndk1::char_traits<char>, std::__ndk1::allocator<char> > > >::__throw_length_error[abi:ne180000]() const
PUBLIC beb0 0 std::__ndk1::__variant_detail::__visitation::__base::__dispatcher<(unsigned long)0>::__dispatch[abi:ne180000]<std::__ndk1::__variant_detail::__dtor<std::__ndk1::__variant_detail::__traits<geode::Hook*, std::__ndk1::basic_string<char, std::__ndk1::char_traits<char>, std::__ndk1::allocator<char> > >, (std::__ndk1::__variant_detail::_Trait)1>::__destroy[abi:ne180000]()::{lambda(auto:1&)#1}, std::__ndk1::__variant_detail::__base<(std::__ndk1::__variant_detail::__traits<geode::Hook*, std::__ndk1::basic_string<char, std::__ndk1::char_traits<char>, std::__ndk1::allocator<char> > >)1, geode::Hook, std::__ndk1::allocator<char> >&>(std::__ndk1::__variant_detail::__dtor<std::__ndk1::__variant_detail::__traits<geode::Hook*, std::__ndk1::basic_string<char, std::__ndk1::char_traits<char>, std::__ndk1::allocator<char> > >, (std::__ndk1::__variant_detail::_Trait)1>, std::__ndk1::__variant_detail::__base<(std::__ndk1::__variant_detail::__traits<geode::Hook*, std::__ndk1::basic_string<char, std::__ndk1::char_traits<char>, std::__ndk1::allocator<char> > >)1, geode::Hook, std::__ndk1::allocator<char> >&)
PUBLIC beb4 0 std::__ndk1::__variant_detail::__visitation::__base::__dispatcher<(unsigned long)1>::__dispatch[abi:ne180000]<std::__ndk1::__variant_detail::__dtor<std::__ndk1::__variant_detail::__traits<geode::Hook*, std::__ndk1::basic_string<char, std::__ndk1::char_traits<char>, std::__ndk1::allocator<char> > >, (std::__ndk1::__variant_detail::_Trait)1>::__destroy[abi:ne180000]()::{lambda(auto:1&)#1}, std::__ndk1::__variant_detail::__base<(std::__ndk1::__variant_detail::__traits<geode::Hook*, std::__ndk1::basic_string<char, std::__ndk1::char_traits<char>, std::__ndk1::allocator<char> > >)1, geode::Hook, std::__ndk1::allocator<char> >&>(std::__ndk1::__variant_detail::__dtor<std::__ndk1::__variant_detail::__traits<geode::Hook*, std::__ndk1::basic_string<char, std::__ndk1::char_traits<char>, std::__ndk1::allocator<char> > >, (std::__ndk1::__variant_detail::_Trait)1>, std::__ndk1::__variant_detail::__base<(std::__ndk1::__variant_detail::__traits<geode::Hook*, std::__ndk1::basic_string<char, std::__ndk1::char_traits<char>, std::__ndk1::allocator<char> > >)1, geode::Hook, std::__ndk1::allocator<char> >&)
PUBLIC bec8 0 std::__ndk1::__tree<std::__ndk1::__value_type<std::__ndk1::basic_string<char, std::__ndk1::char_traits<char>, std::__ndk1::allocator<char> >, std::__ndk1::shared_ptr<geode::Hook> >, std::__ndk1::__map_value_compare<std::__ndk1::basic_string<char, std::__ndk1::char_traits<char>, std::__ndk1::allocator<char> >, std::__ndk1::__value_type<std::__ndk1::basic_string<char, std::__ndk1::char_traits<char>, std::__ndk1::allocator<char> >, std::__ndk1::shared_ptr<geode::Hook> >, std::__ndk1::less<std::__ndk1::basic_string<char, std::__ndk1::char_traits<char>, std::__ndk1::allocator<char> > >, true>, std::__ndk1::allocator<std::__ndk1::__value_type<std::__ndk1::basic_string<char, std::__ndk1::char_traits<char>, std::__ndk1::allocator<char> >, std::__ndk1::shared_ptr<geode::Hook> > > >::destroy(std::__ndk1::__tree_node<std::__ndk1::__value_type<std::__ndk1::basic_string<char, std::__ndk1::char_traits<char>, std::__ndk1::allocator<char> >, std::__ndk1::shared_ptr<geode::Hook> >, void*>*)
PUBLIC bf4c 0 geode::modifier::AsStaticFunction_activate<hook6<(anonymous namespace)::hook6Parent>, void (hook6<(anonymous namespace)::hook6Parent>::*)()>::Impl<void (hook6<(anonymous namespace)::hook6Parent>::*)()>::function(hook6<(anonymous namespace)::hook6Parent>*)
PUBLIC c46c 0 geode::addresser::Addresser::addressOfVirtual<void, CCMenuItemSpriteExtra, >(void (CCMenuItemSpriteExtra::*)())
PUBLIC c534 0 CCMenuItemSpriteExtra::CCMenuItemSpriteExtra(geode::ZeroConstructorType)
PUBLIC c614 0 std::__ndk1::shared_ptr<tulip::hook::CallingConvention>::~shared_ptr[abi:ne180000]()
PUBLIC c664 0 tulip::hook::HandlerMetadata::~HandlerMetadata()
PUBLIC c6c8 0 std::__ndk1::shared_ptr<geode::FileSettingV3>::~shared_ptr[abi:ne180000]()
PUBLIC c718 0 geode::cast::traverseTypeinfoFor(void*, geode::cast::ClassTypeinfoType const*, char const*)
PUBLIC c810 0 std::__ndk1::__tree_balance_after_insert[abi:ne180000]<std::__ndk1::__tree_node_base<void*>*>(std::__ndk1::__tree_node_base<void*>*, std::__ndk1::__tree_node_base<void*>*)
PUBLIC m c9c0 0 geodeImplicitEntry
PUBLIC c9fc 0 wrapFunction(unsigned long, tulip::hook::WrapperMetadata const&)
PUBLIC cb30 0 geode::impl::ResultData<void*, std::__ndk1::basic_string<char, std::__ndk1::char_traits<char>, std::__ndk1::allocator<char> > >::unwrapErr() &
PUBLIC cba8 0 geode::impl::ResultData<void*, std::__ndk1::basic_string<char, std::__ndk1::char_traits<char>, std::__ndk1::allocator<char> > >::~ResultData()
PUBLIC cc1c 0 tulip::hook::WrapperMetadata::~WrapperMetadata()
PUBLIC cc80 0 cocos2d::CCNode::~CCNode()
PUBLIC cca4 0 cocos2d::CCObject::~CCObject()
PUBLIC ccc8 0 cocos2d::CCNodeRGBA::~CCNodeRGBA()
PUBLIC ccec 0 cocos2d::CCMenuItem::~CCMenuItem()
PUBLIC cd10 0 cocos2d::CCNodeRGBA::~CCNodeRGBA()
PUBLIC cf44 0 cocos2d::CCMenuItem::~CCMenuItem()
PUBLIC d178 0 CCMenuItemSpriteExtra::~CCMenuItemSpriteExtra()
PUBLIC d1bc 0 CCMenuItemSpriteExtra::~CCMenuItemSpriteExtra()
PUBLIC d208 0 cocos2d::CCCopying::copyWithZone(cocos2d::CCZone*)
PUBLIC d210 0 cocos2d::CCObject::update(float)
PUBLIC d214 0 cocos2d::CCNodeRGBA::setOpacityModifyRGB(bool)
PUBLIC d218 0 cocos2d::CCNodeRGBA::isOpacityModifyRGB()
PUBLIC d220 0 {virtual override thunk({offset(-320)}, cocos2d::CCNodeRGBA::setOpacityModifyRGB(bool))}
PUBLIC d224 0 {virtual override thunk({offset(-320)}, cocos2d::CCNodeRGBA::isOpacityModifyRGB())}
PUBLIC d22c 0 cocos2d::CCNode::~CCNode()
PUBLIC d458 0 cocos2d::CCObject::~CCObject()
PUBLIC d8fc 0 _ZN5geode15UnwrapExceptionC2IRPvQsr4implE18IsStringStreamableIT_EEENS_4impl5OkTagEOS4_
PUBLIC da50 0 _ZN5geode15UnwrapExceptionC2IRNSt6__ndk112basic_stringIcNS2_11char_traitsIcEENS2_9allocatorIcEEEEQsr4implE18IsStringStreamableIT_EEENS_4impl6ErrTagEOSA_
PUBLIC dbb8 0 std::__ndk1::__variant_detail::__visitation::__base::__dispatcher<(unsigned long)0>::__dispatch[abi:ne180000]<std::__ndk1::__variant_detail::__dtor<std::__ndk1::__variant_detail::__traits<void*, std::__ndk1::basic_string<char, std::__ndk1::char_traits<char>, std::__ndk1::allocator<char> > >, (std::__ndk1::__variant_detail::_Trait)1>::__destroy[abi:ne180000]()::{lambda(auto:1&)#1}, std::__ndk1::__variant_detail::__base<(std::__ndk1::__variant_detail::__traits<void*, std::__ndk1::basic_string<char, std::__ndk1::char_traits<char>, std::__ndk1::allocator<char> > >)1, std::__ndk1::__variant_detail::__traits, std::__ndk1::allocator<char> >&>(std::__ndk1::__variant_detail::__dtor<std::__ndk1::__variant_detail::__traits<void*, std::__ndk1::basic_string<char, std::__ndk1::char_traits<char>, std::__ndk1::allocator<char> > >, (std::__ndk1::__variant_detail::_Trait)1>, std::__ndk1::__variant_detail::__base<(std::__ndk1::__variant_detail::__traits<void*, std::__ndk1::basic_string<char, std::__ndk1::char_traits<char>, std::__ndk1::allocator<char> > >)1, std::__ndk1::__variant_detail::__traits, std::__ndk1::allocator<char> >&)
PUBLIC dbbc 0 std::__ndk1::__variant_detail::__visitation::__base::__dispatcher<(unsigned long)1>::__dispatch[abi:ne180000]<std::__ndk1::__variant_detail::__dtor<std::__ndk1::__variant_detail::__traits<void*, std::__ndk1::basic_string<char, std::__ndk1::char_traits<char>, std::__ndk1::allocator<char> > >, (std::__ndk1::__variant_detail::_Trait)1>::__destroy[abi:ne180000]()::{lambda(auto:1&)#1}, std::__ndk1::__variant_detail::__base<(std::__ndk1::__variant_detail::__traits<void*, std::__ndk1::basic_string<char, std::__ndk1::char_traits<char>, std::__ndk1::allocator<char> > >)1, std::__ndk1::__variant_detail::__traits, std::__ndk1::allocator<char> >&>(std::__ndk1::__variant_detail::__dtor<std::__ndk1::__variant_detail::__traits<void*, std::__ndk1::basic_string<char, std::__ndk1::char_traits<char>, std::__ndk1::allocator<char> > >, (std::__ndk1::__variant_detail::_Trait)1>, std::__ndk1::__variant_detail::__base<(std::__ndk1::__variant_detail::__traits<void*, std::__ndk1::basic_string<char, std::__ndk1::char_traits<char>, std::__ndk1::allocator<char> > >)1, std::__ndk1::__variant_detail::__traits, std::__ndk1::allocator<char> >&)
PUBLIC dbd0 0 std::__ndk1::__hash_table<std::__ndk1::__hash_value_type<void*, bool>, std::__ndk1::__unordered_map_hasher<void*, std::__ndk1::__hash_value_type<void*, bool>, std::__ndk1::hash<void*>, std::__ndk1::equal_to<void*>, true>, std::__ndk1::__unordered_map_equal<void*, std::__ndk1::__hash_value_type<void*, bool>, std::__ndk1::equal_to<void*>, std::__ndk1::hash<void*>, true>, std::__ndk1::allocator<std::__ndk1::__hash_value_type<void*, bool> > >::__emplace_unique_key_args<void*, std::__ndk1::piecewise_construct_t const&, std::__ndk1::tuple<void* const&>, std::__ndk1::tuple<> >(void* const&, std::__ndk1::piecewise_construct_t const&, std::__ndk1::tuple<void* const&>, std::__ndk1::tuple<>)
PUBLIC e0b0 0 <.plt ELF section in techstudent10.button_sfx.android64.so>
STACK CFI INIT 9a90 10 .cfa: sp 0 +
STACK CFI INIT 9aa0 8 .cfa: sp 0 +
STACK CFI INIT 9aa8 8 .cfa: sp 0 +
STACK CFI INIT 9ab0 14 .cfa: sp 0 +
STACK CFI INIT 9ac4 1c .cfa: sp 0 +
STACK CFI INIT 9ae0 10 .cfa: sp 0 +
STACK CFI INIT 9af0 30 .cfa: sp 0 +
STACK CFI INIT 9b20 98 .cfa: sp 0 +
STACK CFI INIT 9bb8 59c .cfa: sp 0 +
STACK CFI INIT a154 8c .cfa: sp 0 +
STACK CFI INIT a1e0 30 .cfa: sp 0 +
STACK CFI INIT adb0 18 .cfa: sp 0 +
STACK CFI INIT b200 50 .cfa: sp 0 +
STACK CFI b204 .cfa: sp 32 +
STACK CFI b20c .cfa: x29 32 + x19: .cfa -16 + ^ .ra: .cfa -24 + ^ x29: .cfa -32 + ^
STACK CFI b224 .cfa: sp 32 +
STACK CFI b22c .cfa: sp 0 +
STACK CFI b230 .cfa: x29 32 +
STACK CFI b244 .cfa: sp 32 +
STACK CFI b24c .cfa: sp 0 +
STACK CFI INIT b2c4 7c .cfa: sp 0 +
STACK CFI b2c8 .cfa: sp 48 +
STACK CFI b2d4 .cfa: x29 48 + x19: .cfa -8 + ^ x20: .cfa -16 + ^ x21: .cfa -32 + ^ .ra: .cfa -40 + ^ x29: .cfa -48 + ^
STACK CFI b320 .cfa: sp 48 +
STACK CFI b32c .cfa: sp 0 +
STACK CFI b330 .cfa: sp 48 +
STACK CFI b33c .cfa: sp 0 +
STACK CFI INIT b340 4 .cfa: sp 0 +
STACK CFI INIT b344 10 .cfa: sp 0 +
STACK CFI b348 .cfa: sp 16 +
STACK CFI b34c .cfa: x29 16 + .ra: .cfa -8 + ^ x29: .cfa -16 + ^
STACK CFI INIT b4a8 34 .cfa: sp 0 +
STACK CFI b4ac .cfa: sp 16 +
STACK CFI b4b0 .cfa: x29 16 + .ra: .cfa -8 + ^ x29: .cfa -16 + ^
STACK CFI INIT b608 80 .cfa: sp 0 +
STACK CFI b60c .cfa: sp 48 +
STACK CFI b618 .cfa: x29 48 + x19: .cfa -8 + ^ x20: .cfa -16 + ^ x21: .cfa -32 + ^ .ra: .cfa -40 + ^ x29: .cfa -48 + ^
STACK CFI b678 .cfa: sp 48 +
STACK CFI b684 .cfa: sp 0 +
STACK CFI INIT b688 24 .cfa: sp 0 +
STACK CFI b68c .cfa: sp 32 +
STACK CFI b694 .cfa: x29 32 + x19: .cfa -16 + ^ .ra: .cfa -24 + ^ x29: .cfa -32 + ^
STACK CFI b6a0 .cfa: sp 32 +
STACK CFI b6a8 .cfa: sp 0 +
STACK CFI INIT ba2c 14 .cfa: sp 0 +
STACK CFI ba30 .cfa: sp 16 +
STACK CFI ba34 .cfa: x29 16 + .ra: .cfa -8 + ^ x29: .cfa -16 + ^
STACK CFI INIT ba90 30 .cfa: sp 0 +
STACK CFI ba94 .cfa: sp 32 +
STACK CFI ba9c .cfa: x29 32 + x19: .cfa -16 + ^ .ra: .cfa -24 + ^ x29: .cfa -32 + ^
STACK CFI bab4 .cfa: sp 32 +
STACK CFI babc .cfa: sp 0 +
STACK CFI INIT bac0 34 .cfa: sp 0 +
STACK CFI bac4 .cfa: sp 32 +
STACK CFI bacc .cfa: x29 32 + x19: .cfa -16 + ^ .ra: .cfa -24 + ^ x29: .cfa -32 + ^
STACK CFI INIT bc6c 148 .cfa: sp 0 +
STACK CFI bc70 .cfa: sp 48 +
STACK CFI bc7c .cfa: x29 48 + x19: .cfa -8 + ^ x20: .cfa -16 + ^ x21: .cfa -32 + ^ .ra: .cfa -40 + ^ x29: .cfa -48 + ^
STACK CFI bda4 .cfa: sp 48 +
STACK CFI bdb0 .cfa: sp 0 +
STACK CFI INIT bdb4 80 .cfa: sp 0 +
STACK CFI bdb8 .cfa: sp 48 +
STACK CFI bdc4 .cfa: x29 48 + x19: .cfa -8 + ^ x20: .cfa -16 + ^ x21: .cfa -24 + ^ x22: .cfa -32 + ^ .ra: .cfa -40 + ^ x29: .cfa -48 + ^
STACK CFI bddc .cfa: sp 48 +
STACK CFI bde8 .cfa: sp 0 +
STACK CFI bdec .cfa: x29 48 +
STACK CFI be1c .cfa: sp 48 +
STACK CFI be28 .cfa: sp 0 +
STACK CFI be2c .cfa: x29 48 +
STACK CFI INIT be34 68 .cfa: sp 0 +
STACK CFI be38 .cfa: sp 32 +
STACK CFI be40 .cfa: x29 32 + x19: .cfa -8 + ^ x20: .cfa -16 + ^ .ra: .cfa -24 + ^ x29: .cfa -32 + ^
STACK CFI be58 .cfa: sp 32 +
STACK CFI be60 .cfa: sp 0 +
STACK CFI be64 .cfa: x29 32 +
STACK CFI be90 .cfa: sp 32 +
STACK CFI be98 .cfa: sp 0 +
STACK CFI INIT be9c 14 .cfa: sp 0 +
STACK CFI bea0 .cfa: sp 16 +
STACK CFI bea4 .cfa: x29 16 + .ra: .cfa -8 + ^ x29: .cfa -16 + ^
STACK CFI INIT beb0 4 .cfa: sp 0 +
STACK CFI INIT beb4 14 .cfa: sp 0 +
STACK CFI INIT bec8 84 .cfa: sp 0 +
STACK CFI bed0 .cfa: sp 32 +
STACK CFI bed8 .cfa: x29 32 + x19: .cfa -8 + ^ x20: .cfa -16 + ^ .ra: .cfa -24 + ^ x29: .cfa -32 + ^
STACK CFI bf18 .cfa: sp 32 +
STACK CFI bf20 .cfa: sp 0 +
STACK CFI bf28 .cfa: x29 32 +
STACK CFI INIT c614 50 .cfa: sp 0 +
STACK CFI c618 .cfa: sp 32 +
STACK CFI c620 .cfa: x29 32 + x19: .cfa -16 + ^ .ra: .cfa -24 + ^ x29: .cfa -32 + ^
STACK CFI c638 .cfa: sp 32 +
STACK CFI c640 .cfa: sp 0 +
STACK CFI c644 .cfa: x29 32 +
STACK CFI c658 .cfa: sp 32 +
STACK CFI c660 .cfa: sp 0 +
STACK CFI INIT c664 64 .cfa: sp 0 +
STACK CFI c668 .cfa: sp 32 +
STACK CFI c670 .cfa: x29 32 + x19: .cfa -16 + ^ .ra: .cfa -24 + ^ x29: .cfa -32 + ^
STACK CFI c69c .cfa: sp 32 +
STACK CFI c6a4 .cfa: sp 0 +
STACK CFI c6a8 .cfa: x29 32 +
STACK CFI c6bc .cfa: sp 32 +
STACK CFI c6c4 .cfa: sp 0 +
STACK CFI INIT c6c8 50 .cfa: sp 0 +
STACK CFI c6cc .cfa: sp 32 +
STACK CFI c6d4 .cfa: x29 32 + x19: .cfa -16 + ^ .ra: .cfa -24 + ^ x29: .cfa -32 + ^
STACK CFI c6ec .cfa: sp 32 +
STACK CFI c6f4 .cfa: sp 0 +
STACK CFI c6f8 .cfa: x29 32 +
STACK CFI c70c .cfa: sp 32 +
STACK CFI c714 .cfa: sp 0 +
STACK CFI INIT c718 f8 .cfa: sp 0 +
STACK CFI c71c .cfa: sp 64 +
STACK CFI c72c .cfa: x29 64 + x19: .cfa -8 + ^ x20: .cfa -16 + ^ x21: .cfa -24 + ^ x22: .cfa -32 + ^ x23: .cfa -48 + ^ .ra: .cfa -56 + ^ x29: .cfa -64 + ^
STACK CFI c788 .cfa: sp 64 +
STACK CFI c798 .cfa: sp 0 +
STACK CFI c79c .cfa: x29 64 +
STACK CFI c7b8 .cfa: sp 64 +
STACK CFI c7c8 .cfa: sp 0 +
STACK CFI c7cc .cfa: x29 64 +
STACK CFI c7fc .cfa: sp 64 +
STACK CFI c80c .cfa: sp 0 +
STACK CFI INIT c810 1b0 .cfa: sp 0 +
STACK CFI INIT c9c0 3c .cfa: sp 0 +
STACK CFI c9c4 .cfa: sp 32 +
STACK CFI c9cc .cfa: x29 32 + x19: .cfa -16 + ^ .ra: .cfa -24 + ^ x29: .cfa -32 + ^
STACK CFI c9d8 .cfa: sp 32 +
STACK CFI c9e0 .cfa: sp 0 +
STACK CFI c9e4 .cfa: x29 32 +
STACK CFI c9f0 .cfa: sp 32 +
STACK CFI c9f8 .cfa: sp 0 +
STACK CFI INIT cc1c 64 .cfa: sp 0 +
STACK CFI cc20 .cfa: sp 32 +
STACK CFI cc28 .cfa: x29 32 + x19: .cfa -16 + ^ .ra: .cfa -24 + ^ x29: .cfa -32 + ^
STACK CFI cc54 .cfa: sp 32 +
STACK CFI cc5c .cfa: sp 0 +
STACK CFI cc60 .cfa: x29 32 +
STACK CFI cc74 .cfa: sp 32 +
STACK CFI cc7c .cfa: sp 0 +
STACK CFI INIT cc80 24 .cfa: sp 0 +
STACK CFI cc84 .cfa: sp 32 +
STACK CFI cc8c .cfa: x29 32 + x19: .cfa -16 + ^ .ra: .cfa -24 + ^ x29: .cfa -32 + ^
STACK CFI cc98 .cfa: sp 32 +
STACK CFI cca0 .cfa: sp 0 +
STACK CFI INIT cca4 24 .cfa: sp 0 +
STACK CFI cca8 .cfa: sp 32 +
STACK CFI ccb0 .cfa: x29 32 + x19: .cfa -16 + ^ .ra: .cfa -24 + ^ x29: .cfa -32 + ^
STACK CFI ccbc .cfa: sp 32 +
STACK CFI ccc4 .cfa: sp 0 +
STACK CFI INIT ccc8 24 .cfa: sp 0 +
STACK CFI cccc .cfa: sp 32 +
STACK CFI ccd4 .cfa: x29 32 + x19: .cfa -16 + ^ .ra: .cfa -24 + ^ x29: .cfa -32 + ^
STACK CFI cce0 .cfa: sp 32 +
STACK CFI cce8 .cfa: sp 0 +
STACK CFI INIT ccec 24 .cfa: sp 0 +
STACK CFI ccf0 .cfa: sp 32 +
STACK CFI ccf8 .cfa: x29 32 + x19: .cfa -16 + ^ .ra: .cfa -24 + ^ x29: .cfa -32 + ^
STACK CFI cd04 .cfa: sp 32 +
STACK CFI cd0c .cfa: sp 0 +
STACK CFI INIT d178 44 .cfa: sp 0 +
STACK CFI d17c .cfa: sp 32 +
STACK CFI d184 .cfa: x29 32 + x19: .cfa -16 + ^ .ra: .cfa -24 + ^ x29: .cfa -32 + ^
STACK CFI d1b0 .cfa: sp 32 +
STACK CFI d1b8 .cfa: sp 0 +
STACK CFI INIT d1bc 4c .cfa: sp 0 +
STACK CFI d1c0 .cfa: sp 32 +
STACK CFI d1c8 .cfa: x29 32 + x19: .cfa -16 + ^ .ra: .cfa -24 + ^ x29: .cfa -32 + ^
STACK CFI d1fc .cfa: sp 32 +
STACK CFI d204 .cfa: sp 0 +
STACK CFI INIT d208 8 .cfa: sp 0 +
STACK CFI INIT d210 4 .cfa: sp 0 +
STACK CFI INIT d214 4 .cfa: sp 0 +
STACK CFI INIT d218 8 .cfa: sp 0 +
STACK CFI INIT d220 4 .cfa: sp 0 +
STACK CFI INIT d224 8 .cfa: sp 0 +
STACK CFI INIT dbb8 4 .cfa: sp 0 +
STACK CFI INIT dbbc 14 .cfa: sp 0 +
STACK CFI INIT a210 ba0 .cfa: sp 0 +
STACK CFI a214 .cfa: sp 240 +
STACK CFI a230 .cfa: x29 96 + x19: .cfa -8 + ^ x20: .cfa -16 + ^ x21: .cfa -24 + ^ x22: .cfa -32 + ^ x23: .cfa -40 + ^ x24: .cfa -48 + ^ x25: .cfa -56 + ^ x26: .cfa -64 + ^ x27: .cfa -72 + ^ x28: .cfa -80 + ^ .ra: .cfa -88 + ^ x29: .cfa -96 + ^
STACK CFI ac58 .cfa: sp 240 +
STACK CFI ac74 .cfa: sp 0 +
STACK CFI ac78 .cfa: x29 96 +
STACK CFI INIT adc8 438 .cfa: sp 0 +
STACK CFI adcc .cfa: sp 288 +
STACK CFI ade8 .cfa: x29 96 + x19: .cfa -8 + ^ x20: .cfa -16 + ^ x21: .cfa -24 + ^ x22: .cfa -32 + ^ x23: .cfa -40 + ^ x24: .cfa -48 + ^ x25: .cfa -56 + ^ x26: .cfa -64 + ^ x27: .cfa -72 + ^ x28: .cfa -80 + ^ .ra: .cfa -88 + ^ x29: .cfa -96 + ^
STACK CFI b0dc .cfa: sp 288 +
STACK CFI b0f8 .cfa: sp 0 +
STACK CFI b0fc .cfa: x29 96 +
STACK CFI INIT b250 74 .cfa: sp 0 +
STACK CFI b254 .cfa: sp 48 +
STACK CFI b260 .cfa: x29 32 + x19: .cfa -8 + ^ x20: .cfa -16 + ^ .ra: .cfa -24 + ^ x29: .cfa -32 + ^
STACK CFI b2ac .cfa: sp 48 +
STACK CFI b2b8 .cfa: sp 0 +
STACK CFI b2bc .cfa: x29 32 +
STACK CFI INIT b354 154 .cfa: sp 0 +
STACK CFI b358 .cfa: sp 384 +
STACK CFI b36c .cfa: x29 64 + x19: .cfa -8 + ^ x20: .cfa -16 + ^ x21: .cfa -24 + ^ x22: .cfa -32 + ^ x23: .cfa -40 + ^ x28: .cfa -48 + ^ .ra: .cfa -56 + ^ x29: .cfa -64 + ^
STACK CFI b450 .cfa: sp 384 +
STACK CFI b464 .cfa: sp 0 +
STACK CFI b468 .cfa: x29 64 +
STACK CFI INIT b4dc 12c .cfa: sp 0 +
STACK CFI b4e0 .cfa: sp 80 +
STACK CFI b4f4 .cfa: x29 80 + x19: .cfa -8 + ^ x20: .cfa -16 + ^ x21: .cfa -24 + ^ x22: .cfa -32 + ^ x23: .cfa -40 + ^ x24: .cfa -48 + ^ x25: .cfa -56 + ^ x26: .cfa -64 + ^ .ra: .cfa -72 + ^ x29: .cfa -80 + ^
STACK CFI b5bc .cfa: sp 80 +
STACK CFI b5d0 .cfa: sp 0 +
STACK CFI b5d4 .cfa: x29 80 +
STACK CFI INIT b6ac 1a4 .cfa: sp 0 +
STACK CFI b6b0 .cfa: sp 112 +
STACK CFI b6c8 .cfa: x29 80 + x19: .cfa -8 + ^ x20: .cfa -16 + ^ x21: .cfa -24 + ^ x22: .cfa -32 + ^ x23: .cfa -40 + ^ x24: .cfa -48 + ^ x25: .cfa -56 + ^ x26: .cfa -64 + ^ .ra: .cfa -72 + ^ x29: .cfa -80 + ^
STACK CFI b7b8 .cfa: sp 112 +
STACK CFI b7d0 .cfa: sp 0 +
STACK CFI b7d4 .cfa: x29 80 +
STACK CFI INIT b850 1dc .cfa: sp 0 +
STACK CFI b854 .cfa: sp 128 +
STACK CFI b870 .cfa: x29 96 + x19: .cfa -8 + ^ x20: .cfa -16 + ^ x21: .cfa -24 + ^ x22: .cfa -32 + ^ x23: .cfa -40 + ^ x24: .cfa -48 + ^ x25: .cfa -56 + ^ x26: .cfa -64 + ^ x27: .cfa -80 + ^ .ra: .cfa -88 + ^ x29: .cfa -96 + ^
STACK CFI b9dc .cfa: sp 128 +
STACK CFI b9f8 .cfa: sp 0 +
STACK CFI b9fc .cfa: x29 96 +
STACK CFI INIT ba40 50 .cfa: sp 0 +
STACK CFI ba44 .cfa: sp 32 +
STACK CFI ba4c .cfa: x29 32 + x19: .cfa -8 + ^ x20: .cfa -16 + ^ .ra: .cfa -24 + ^ x29: .cfa -32 + ^
STACK CFI INIT baf4 178 .cfa: sp 0 +
STACK CFI baf8 .cfa: sp 80 +
STACK CFI bb0c .cfa: x29 80 + x19: .cfa -8 + ^ x20: .cfa -16 + ^ x21: .cfa -24 + ^ x22: .cfa -32 + ^ x23: .cfa -40 + ^ x24: .cfa -48 + ^ x25: .cfa -64 + ^ .ra: .cfa -72 + ^ x29: .cfa -80 + ^
STACK CFI bc38 .cfa: sp 80 +
STACK CFI bc4c .cfa: sp 0 +
STACK CFI bc50 .cfa: x29 80 +
STACK CFI INIT bf4c 520 .cfa: sp 0 +
STACK CFI bf50 .cfa: sp 144 +
STACK CFI bf68 .cfa: x29 56 + x19: .cfa -8 + ^ x20: .cfa -16 + ^ x21: .cfa -24 + ^ x22: .cfa -32 + ^ x23: .cfa -40 + ^ .ra: .cfa -48 + ^ x29: .cfa -56 + ^ v8: .cfa -64 + ^
STACK CFI c3b8 .cfa: sp 144 +
STACK CFI c3d0 .cfa: sp 0 +
STACK CFI c3d4 .cfa: x29 56 +
STACK CFI INIT c46c c8 .cfa: sp 0 +
STACK CFI c470 .cfa: sp 32 +
STACK CFI c478 .cfa: x29 32 + x19: .cfa -8 + ^ x20: .cfa -16 + ^ .ra: .cfa -24 + ^ x29: .cfa -32 + ^
STACK CFI c4ac .cfa: sp 32 +
STACK CFI c4b4 .cfa: sp 0 +
STACK CFI c4b8 .cfa: x29 32 +
STACK CFI c4bc .cfa: sp 32 +
STACK CFI c4c4 .cfa: sp 0 +
STACK CFI c4c8 .cfa: x29 32 +
STACK CFI INIT c534 e0 .cfa: sp 0 +
STACK CFI c538 .cfa: sp 32 +
STACK CFI c540 .cfa: x29 32 + x19: .cfa -8 + ^ x20: .cfa -16 + ^ .ra: .cfa -24 + ^ x29: .cfa -32 + ^
STACK CFI c5d8 .cfa: sp 32 +
STACK CFI c5e0 .cfa: sp 0 +
STACK CFI c5e4 .cfa: x29 32 +
STACK CFI INIT c9fc 134 .cfa: sp 0 +
STACK CFI ca00 .cfa: sp 80 +
STACK CFI ca0c .cfa: x29 32 + x19: .cfa -8 + ^ x20: .cfa -16 + ^ .ra: .cfa -24 + ^ x29: .cfa -32 + ^
STACK CFI ca3c .cfa: sp 80 +
STACK CFI ca48 .cfa: sp 0 +
STACK CFI ca4c .cfa: x29 32 +
STACK CFI INIT cb30 78 .cfa: sp 0 +
STACK CFI cb34 .cfa: sp 32 +
STACK CFI cb3c .cfa: x29 32 + x19: .cfa -8 + ^ x20: .cfa -16 + ^ .ra: .cfa -24 + ^ x29: .cfa -32 + ^
STACK CFI cb48 .cfa: sp 32 +
STACK CFI cb50 .cfa: sp 0 +
STACK CFI cb54 .cfa: x29 32 +
STACK CFI INIT cba8 74 .cfa: sp 0 +
STACK CFI cbac .cfa: sp 48 +
STACK CFI cbb8 .cfa: x29 32 + x19: .cfa -8 + ^ x20: .cfa -16 + ^ .ra: .cfa -24 + ^ x29: .cfa -32 + ^
STACK CFI cc04 .cfa: sp 48 +
STACK CFI cc10 .cfa: sp 0 +
STACK CFI cc14 .cfa: x29 32 +
STACK CFI INIT cd10 234 .cfa: sp 0 +
STACK CFI cd14 .cfa: sp 128 +
STACK CFI cd28 .cfa: x29 64 + x19: .cfa -8 + ^ x20: .cfa -16 + ^ x21: .cfa -24 + ^ x22: .cfa -32 + ^ x23: .cfa -48 + ^ .ra: .cfa -56 + ^ x29: .cfa -64 + ^
STACK CFI cdd8 .cfa: sp 128 +
STACK CFI cdec .cfa: sp 0 +
STACK CFI cdf0 .cfa: x29 64 +
STACK CFI INIT cf44 234 .cfa: sp 0 +
STACK CFI cf48 .cfa: sp 128 +
STACK CFI cf5c .cfa: x29 64 + x19: .cfa -8 + ^ x20: .cfa -16 + ^ x21: .cfa -24 + ^ x22: .cfa -32 + ^ x23: .cfa -48 + ^ .ra: .cfa -56 + ^ x29: .cfa -64 + ^
STACK CFI d00c .cfa: sp 128 +
STACK CFI d020 .cfa: sp 0 +
STACK CFI d024 .cfa: x29 64 +
STACK CFI INIT d22c 22c .cfa: sp 0 +
STACK CFI d230 .cfa: sp 128 +
STACK CFI d244 .cfa: x29 64 + x19: .cfa -8 + ^ x20: .cfa -16 + ^ x21: .cfa -24 + ^ x22: .cfa -32 + ^ x23: .cfa -48 + ^ .ra: .cfa -56 + ^ x29: .cfa -64 + ^
STACK CFI d2ec .cfa: sp 128 +
STACK CFI d300 .cfa: sp 0 +
STACK CFI d304 .cfa: x29 64 +
STACK CFI INIT d458 4a4 .cfa: sp 0 +
STACK CFI d45c .cfa: sp 128 +
STACK CFI d470 .cfa: x29 64 + x19: .cfa -8 + ^ x20: .cfa -16 + ^ x21: .cfa -24 + ^ x22: .cfa -32 + ^ x23: .cfa -48 + ^ .ra: .cfa -56 + ^ x29: .cfa -64 + ^
STACK CFI d738 .cfa: sp 128 +
STACK CFI d74c .cfa: sp 0 +
STACK CFI d750 .cfa: x29 64 +
STACK CFI INIT d8fc 154 .cfa: sp 0 +
STACK CFI d900 .cfa: sp 384 +
STACK CFI d914 .cfa: x29 64 + x19: .cfa -8 + ^ x20: .cfa -16 + ^ x21: .cfa -24 + ^ x22: .cfa -32 + ^ x23: .cfa -40 + ^ x28: .cfa -48 + ^ .ra: .cfa -56 + ^ x29: .cfa -64 + ^
STACK CFI d9f8 .cfa: sp 384 +
STACK CFI da0c .cfa: sp 0 +
STACK CFI da10 .cfa: x29 64 +
STACK CFI INIT da50 168 .cfa: sp 0 +
STACK CFI da54 .cfa: sp 384 +
STACK CFI da68 .cfa: x29 64 + x19: .cfa -8 + ^ x20: .cfa -16 + ^ x21: .cfa -24 + ^ x22: .cfa -32 + ^ x23: .cfa -40 + ^ x28: .cfa -48 + ^ .ra: .cfa -56 + ^ x29: .cfa -64 + ^
STACK CFI db60 .cfa: sp 384 +
STACK CFI db74 .cfa: sp 0 +
STACK CFI db78 .cfa: x29 64 +
STACK CFI INIT dbd0 4e0 .cfa: sp 0 +
STACK CFI dbd4 .cfa: sp 64 +
STACK CFI dbe4 .cfa: x29 64 + x19: .cfa -8 + ^ x20: .cfa -16 + ^ x21: .cfa -24 + ^ x22: .cfa -32 + ^ x23: .cfa -40 + ^ x24: .cfa -48 + ^ .ra: .cfa -56 + ^ x29: .cfa -64 + ^
STACK CFI e084 .cfa: sp 64 +
STACK CFI e094 .cfa: sp 0 +
STACK CFI e098 .cfa: x29 64 +
