MODULE Linux arm64 F36D94E9292B0B470B280CE16881EF1E0 legowiifun.stat_display.android64.so
INFO CODE_ID E9946DF32B29470B0B280CE16881EF1EC5C658A5
INFO GENERATOR mozilla/dump_syms 2.3.4
PUBLIC fb80 0 __on_dlclose
PUBLIC fb90 0 __emutls_unregister_key
PUBLIC fb98 0 __on_dlclose_late
PUBLIC fba0 0 __atexit_handler_wrapper
PUBLIC fbb4 0 atexit
PUBLIC fbd0 0 pthread_atfork
PUBLIC fbe0 0 unwind_phase2
PUBLIC fd14 0 _Unwind_Resume
PUBLIC fd98 0 unwind_phase2_forced
PUBLIC m fe8c 0 __unw_init_local
PUBLIC m ff34 0 __unw_get_reg
PUBLIC ffb0 0 __unw_step_stage2
PUBLIC m ffc4 0 __unw_get_proc_info
PUBLIC m 10004 0 __unw_resume
PUBLIC 1002c 0 libunwind::CFI_Parser<libunwind::LocalAddressSpace>::decodeFDE(libunwind::LocalAddressSpace&, unsigned long, libunwind::CFI_Parser<libunwind::LocalAddressSpace>::FDE_Info*, libunwind::CFI_Parser<libunwind::LocalAddressSpace>::CIE_Info*, bool)
PUBLIC 101bc 0 libunwind::CFI_Parser<libunwind::LocalAddressSpace>::parseCIE(libunwind::LocalAddressSpace&, unsigned long, libunwind::CFI_Parser<libunwind::LocalAddressSpace>::CIE_Info*)
PUBLIC 10484 0 libunwind::AbstractUnwindCursor::~AbstractUnwindCursor()
PUBLIC 1048c 0 libunwind::UnwindCursor<libunwind::LocalAddressSpace, libunwind::Registers_arm64>::~UnwindCursor()
PUBLIC 10494 0 libunwind::UnwindCursor<libunwind::LocalAddressSpace, libunwind::Registers_arm64>::validReg(int)
PUBLIC 104d8 0 libunwind::UnwindCursor<libunwind::LocalAddressSpace, libunwind::Registers_arm64>::getReg(int)
PUBLIC 105c0 0 libunwind::UnwindCursor<libunwind::LocalAddressSpace, libunwind::Registers_arm64>::setReg(int, unsigned long)
PUBLIC 106a8 0 libunwind::UnwindCursor<libunwind::LocalAddressSpace, libunwind::Registers_arm64>::validFloatReg(int)
PUBLIC 106bc 0 libunwind::UnwindCursor<libunwind::LocalAddressSpace, libunwind::Registers_arm64>::getFloatReg(int)
PUBLIC 106cc 0 libunwind::UnwindCursor<libunwind::LocalAddressSpace, libunwind::Registers_arm64>::setFloatReg(int, double)
PUBLIC 106dc 0 libunwind::UnwindCursor<libunwind::LocalAddressSpace, libunwind::Registers_arm64>::step(bool)
PUBLIC 107cc 0 libunwind::UnwindCursor<libunwind::LocalAddressSpace, libunwind::Registers_arm64>::getInfo(unw_proc_info_t*)
PUBLIC 10810 0 libunwind::UnwindCursor<libunwind::LocalAddressSpace, libunwind::Registers_arm64>::jumpto()
PUBLIC 1081c 0 libunwind::UnwindCursor<libunwind::LocalAddressSpace, libunwind::Registers_arm64>::isSignalFrame()
PUBLIC 10828 0 libunwind::UnwindCursor<libunwind::LocalAddressSpace, libunwind::Registers_arm64>::getFunctionName(char*, unsigned long, unsigned long*)
PUBLIC 10854 0 libunwind::UnwindCursor<libunwind::LocalAddressSpace, libunwind::Registers_arm64>::setInfoBasedOnIPRegister(bool)
PUBLIC 10ad4 0 libunwind::UnwindCursor<libunwind::LocalAddressSpace, libunwind::Registers_arm64>::getRegisterName(int)
PUBLIC 10ae0 0 libunwind::UnwindCursor<libunwind::LocalAddressSpace, libunwind::Registers_arm64>::stepThroughSigReturn(libunwind::Registers_arm64&)
PUBLIC 10c00 0 libunwind::DwarfInstructions<libunwind::LocalAddressSpace, libunwind::Registers_arm64>::stepWithDwarf(libunwind::LocalAddressSpace&, unsigned long, unsigned long, libunwind::Registers_arm64&, bool&, bool)
PUBLIC 11088 0 libunwind::CFI_Parser<libunwind::LocalAddressSpace>::parseFDEInstructions(libunwind::LocalAddressSpace&, libunwind::CFI_Parser<libunwind::LocalAddressSpace>::FDE_Info const&, libunwind::CFI_Parser<libunwind::LocalAddressSpace>::CIE_Info const&, unsigned long, int, libunwind::CFI_Parser<libunwind::LocalAddressSpace>::PrologInfo*)
PUBLIC 11cd0 0 libunwind::DwarfInstructions<libunwind::LocalAddressSpace, libunwind::Registers_arm64>::getCFA(libunwind::LocalAddressSpace&, libunwind::CFI_Parser<libunwind::LocalAddressSpace>::PrologInfo const&, libunwind::Registers_arm64 const&)
PUBLIC 11e04 0 libunwind::DwarfInstructions<libunwind::LocalAddressSpace, libunwind::Registers_arm64>::getSavedRegister(libunwind::LocalAddressSpace&, libunwind::Registers_arm64 const&, unsigned long, libunwind::CFI_Parser<libunwind::LocalAddressSpace>::RegisterLocation const&)
PUBLIC 12014 0 libunwind::LocalAddressSpace::getEncodedP(unsigned long&, unsigned long, unsigned char, unsigned long)
PUBLIC 123a0 0 libunwind::LocalAddressSpace::getULEB128(unsigned long&, unsigned long)
PUBLIC 12568 0 libunwind::DwarfInstructions<libunwind::LocalAddressSpace, libunwind::Registers_arm64>::evaluateExpression(unsigned long, libunwind::LocalAddressSpace&, libunwind::Registers_arm64 const&, unsigned long)
PUBLIC 12f24 0 libunwind::UnwindCursor<libunwind::LocalAddressSpace, libunwind::Registers_arm64>::getInfoFromDwarfSection(unsigned long, libunwind::UnwindInfoSections const&, unsigned int)
PUBLIC 131f8 0 libunwind::findUnwindSectionsByPhdr(dl_phdr_info*, unsigned long, void*)
PUBLIC 1332c 0 libunwind::EHHeaderParser<libunwind::LocalAddressSpace>::decodeEHHdr(libunwind::LocalAddressSpace&, unsigned long, unsigned long, libunwind::EHHeaderParser<libunwind::LocalAddressSpace>::EHHeaderInfo&)
PUBLIC 1344c 0 libunwind::CFI_Parser<libunwind::LocalAddressSpace>::findFDE(libunwind::LocalAddressSpace&, unsigned long, unsigned long, unsigned long, unsigned long, libunwind::CFI_Parser<libunwind::LocalAddressSpace>::FDE_Info*, libunwind::CFI_Parser<libunwind::LocalAddressSpace>::CIE_Info*)
PUBLIC 13614 0 libunwind::EHHeaderParser<libunwind::LocalAddressSpace>::findFDE(libunwind::LocalAddressSpace&, unsigned long, unsigned long, unsigned int, libunwind::CFI_Parser<libunwind::LocalAddressSpace>::FDE_Info*, libunwind::CFI_Parser<libunwind::LocalAddressSpace>::CIE_Info*)
PUBLIC 1377c 0 libunwind::EHHeaderParser<libunwind::LocalAddressSpace>::getTableEntrySize(unsigned char)
PUBLIC 13878 0 libunwind::Registers_arm64::getRegisterName(int)
PUBLIC 138a8 0 __libunwind_Registers_arm64_jumpto
PUBLIC m 13938 0 __unw_getcontext
PUBLIC 139e0 0 __aarch64_ldadd8_relax
PUBLIC 13a10 0 init_have_lse_atomics
PUBLIC 13aa8 0 __init_cpu_features_constructor
PUBLIC 14044 0 __init_cpu_features
PUBLIC 140d0 0 __aarch64_ldadd8_acq_rel
PUBLIC 14100 0 __cxx_global_var_init
PUBLIC 1453c 0 __cxx_global_var_init.1
PUBLIC 14978 0 __cxx_global_var_init.2
PUBLIC 14db4 0 geode::modifier::ModifyBase<geode::modifier::ModifyDerive<hook44<(anonymous namespace)::hook44Parent>, GJBaseGameLayer> >::~ModifyBase()
PUBLIC 14dd0 0 geode::modifier::ModifyBase<geode::modifier::ModifyDerive<hook120<(anonymous namespace)::hook120Parent>, UILayer> >::~ModifyBase()
PUBLIC 14dec 0 geode::modifier::ModifyBase<geode::modifier::ModifyDerive<hook231<(anonymous namespace)::hook231Parent>, GameStatsManager> >::~ModifyBase()
PUBLIC 14e08 0 geode::modifier::ModifyDerive<hook44<(anonymous namespace)::hook44Parent>, GJBaseGameLayer>::apply()
PUBLIC 15180 0 std::__ndk1::shared_ptr<geode::Hook>::~shared_ptr[abi:ne180000]()
PUBLIC 151d0 0 geode::impl::ResultData<geode::Hook*, std::__ndk1::basic_string<char, std::__ndk1::char_traits<char>, std::__ndk1::allocator<char> > >::~ResultData()
PUBLIC 15244 0 std::__ndk1::vector<std::__ndk1::basic_string<char, std::__ndk1::char_traits<char>, std::__ndk1::allocator<char> >, std::__ndk1::allocator<std::__ndk1::basic_string<char, std::__ndk1::char_traits<char>, std::__ndk1::allocator<char> > > >::~vector[abi:ne180000]()
PUBLIC 152c0 0 geode::modifier::ModifyBase<geode::modifier::ModifyDerive<hook44<(anonymous namespace)::hook44Parent>, GJBaseGameLayer> >::apply()
PUBLIC 152c4 0 __clang_call_terminate
PUBLIC 152d4 0 _ZN5geode15UnwrapExceptionC2IRPNS_4HookEQsr4implE18IsStringStreamableIT_EEENS_4impl5OkTagEOS5_
PUBLIC 15428 0 std::__ndk1::__throw_bad_variant_access[abi:ne180000]()
PUBLIC 1545c 0 std::__ndk1::basic_stringstream<char, std::__ndk1::char_traits<char>, std::__ndk1::allocator<char> >::basic_stringstream[abi:ne180000]()
PUBLIC m 15588 0 std::__ndk1::basic_stringstream<char, std::__ndk1::char_traits<char>, std::__ndk1::allocator<char> >::~basic_stringstream()
PUBLIC 15608 0 geode::UnwrapException::~UnwrapException()
PUBLIC 1562c 0 std::__ndk1::__put_character_sequence[abi:ne180000]<char, std::__ndk1::char_traits<char> >(std::__ndk1::basic_ostream<char, std::__ndk1::char_traits<char> >, std::__ndk1::basic_ostream const*, unsigned long)
PUBLIC 157d0 0 std::__ndk1::__pad_and_output[abi:ne180000]<char, std::__ndk1::char_traits<char> >(std::__ndk1::char_traits<char>, std::__ndk1::ostreambuf_iterator const*, std::__ndk1::ostreambuf_iterator const, std::__ndk1::ostreambuf_iterator const, std::__ndk1::ios_base&, std::__ndk1::ostreambuf_iterator)
PUBLIC 159ac 0 std::__ndk1::basic_string<char, std::__ndk1::char_traits<char>, std::__ndk1::allocator<char> >::__throw_length_error[abi:ne180000]() const
PUBLIC 159c0 0 std::__ndk1::__throw_length_error[abi:ne180000](char const*)
PUBLIC 15a10 0 std::length_error::length_error[abi:ne180000](char const*)
PUBLIC 15a40 0 std::__throw_bad_array_new_length([abi:ne180000], void)
PUBLIC 15a74 0 std::__ndk1::basic_stringbuf<char, std::__ndk1::char_traits<char>, std::__ndk1::allocator<char> >::str[abi:ne180000]() &&
PUBLIC 15bec 0 std::__ndk1::basic_stringbuf<char, std::__ndk1::char_traits<char>, std::__ndk1::allocator<char> >::__init_buf_ptrs[abi:ne180000]()
PUBLIC 15d34 0 std::__ndk1::vector<std::__ndk1::basic_string<char, std::__ndk1::char_traits<char>, std::__ndk1::allocator<char> >, std::__ndk1::allocator<std::__ndk1::basic_string<char, std::__ndk1::char_traits<char>, std::__ndk1::allocator<char> > > >::__push_back_slow_path<std::__ndk1::basic_string<char, std::__ndk1::char_traits<char>, std::__ndk1::allocator<char> > const&>(std::__ndk1::basic_string<char, std::__ndk1::char_traits<char>, std::__ndk1::allocator<char> > const&)
PUBLIC 15f5c 0 std::__ndk1::basic_string<char, std::__ndk1::char_traits<char>, std::__ndk1::allocator<char> >::__init_copy_ctor_external(char const*, unsigned long)
PUBLIC 15fdc 0 std::__ndk1::__split_buffer<std::__ndk1::basic_string<char, std::__ndk1::char_traits<char>, std::__ndk1::allocator<char> >, std::__ndk1::allocator<std::__ndk1::basic_string<char, std::__ndk1::char_traits<char>, std::__ndk1::allocator<char> > >&>::~__split_buffer()
PUBLIC 16044 0 std::__ndk1::vector<std::__ndk1::basic_string<char, std::__ndk1::char_traits<char>, std::__ndk1::allocator<char> >, std::__ndk1::allocator<std::__ndk1::basic_string<char, std::__ndk1::char_traits<char>, std::__ndk1::allocator<char> > > >::__throw_length_error[abi:ne180000]() const
PUBLIC 16058 0 std::__ndk1::__variant_detail::__visitation::__base::__dispatcher<(unsigned long)0>::__dispatch[abi:ne180000]<std::__ndk1::__variant_detail::__dtor<std::__ndk1::__variant_detail::__traits<geode::Hook*, std::__ndk1::basic_string<char, std::__ndk1::char_traits<char>, std::__ndk1::allocator<char> > >, (std::__ndk1::__variant_detail::_Trait)1>::__destroy[abi:ne180000]()::{lambda(auto:1&)#1}, std::__ndk1::__variant_detail::__base<(std::__ndk1::__variant_detail::__traits<geode::Hook*, std::__ndk1::basic_string<char, std::__ndk1::char_traits<char>, std::__ndk1::allocator<char> > >)1, geode::Hook, std::__ndk1::allocator<char> >&>(std::__ndk1::__variant_detail::__dtor<std::__ndk1::__variant_detail::__traits<geode::Hook*, std::__ndk1::basic_string<char, std::__ndk1::char_traits<char>, std::__ndk1::allocator<char> > >, (std::__ndk1::__variant_detail::_Trait)1>, std::__ndk1::__variant_detail::__base<(std::__ndk1::__variant_detail::__traits<geode::Hook*, std::__ndk1::basic_string<char, std::__ndk1::char_traits<char>, std::__ndk1::allocator<char> > >)1, geode::Hook, std::__ndk1::allocator<char> >&)
PUBLIC 1605c 0 std::__ndk1::__variant_detail::__visitation::__base::__dispatcher<(unsigned long)1>::__dispatch[abi:ne180000]<std::__ndk1::__variant_detail::__dtor<std::__ndk1::__variant_detail::__traits<geode::Hook*, std::__ndk1::basic_string<char, std::__ndk1::char_traits<char>, std::__ndk1::allocator<char> > >, (std::__ndk1::__variant_detail::_Trait)1>::__destroy[abi:ne180000]()::{lambda(auto:1&)#1}, std::__ndk1::__variant_detail::__base<(std::__ndk1::__variant_detail::__traits<geode::Hook*, std::__ndk1::basic_string<char, std::__ndk1::char_traits<char>, std::__ndk1::allocator<char> > >)1, geode::Hook, std::__ndk1::allocator<char> >&>(std::__ndk1::__variant_detail::__dtor<std::__ndk1::__variant_detail::__traits<geode::Hook*, std::__ndk1::basic_string<char, std::__ndk1::char_traits<char>, std::__ndk1::allocator<char> > >, (std::__ndk1::__variant_detail::_Trait)1>, std::__ndk1::__variant_detail::__base<(std::__ndk1::__variant_detail::__traits<geode::Hook*, std::__ndk1::basic_string<char, std::__ndk1::char_traits<char>, std::__ndk1::allocator<char> > >)1, geode::Hook, std::__ndk1::allocator<char> >&)
PUBLIC 16070 0 std::__ndk1::__tree<std::__ndk1::__value_type<std::__ndk1::basic_string<char, std::__ndk1::char_traits<char>, std::__ndk1::allocator<char> >, std::__ndk1::shared_ptr<geode::Hook> >, std::__ndk1::__map_value_compare<std::__ndk1::basic_string<char, std::__ndk1::char_traits<char>, std::__ndk1::allocator<char> >, std::__ndk1::__value_type<std::__ndk1::basic_string<char, std::__ndk1::char_traits<char>, std::__ndk1::allocator<char> >, std::__ndk1::shared_ptr<geode::Hook> >, std::__ndk1::less<std::__ndk1::basic_string<char, std::__ndk1::char_traits<char>, std::__ndk1::allocator<char> > >, true>, std::__ndk1::allocator<std::__ndk1::__value_type<std::__ndk1::basic_string<char, std::__ndk1::char_traits<char>, std::__ndk1::allocator<char> >, std::__ndk1::shared_ptr<geode::Hook> > > >::find<std::__ndk1::basic_string<char, std::__ndk1::char_traits<char>, std::__ndk1::allocator<char> > >(std::__ndk1::basic_string<char, std::__ndk1::char_traits<char>, std::__ndk1::allocator<char> > const&)
PUBLIC 16190 0 std::__ndk1::__tree<std::__ndk1::__value_type<std::__ndk1::basic_string<char, std::__ndk1::char_traits<char>, std::__ndk1::allocator<char> >, std::__ndk1::shared_ptr<geode::Hook> >, std::__ndk1::__map_value_compare<std::__ndk1::basic_string<char, std::__ndk1::char_traits<char>, std::__ndk1::allocator<char> >, std::__ndk1::__value_type<std::__ndk1::basic_string<char, std::__ndk1::char_traits<char>, std::__ndk1::allocator<char> >, std::__ndk1::shared_ptr<geode::Hook> >, std::__ndk1::less<std::__ndk1::basic_string<char, std::__ndk1::char_traits<char>, std::__ndk1::allocator<char> > >, true>, std::__ndk1::allocator<std::__ndk1::__value_type<std::__ndk1::basic_string<char, std::__ndk1::char_traits<char>, std::__ndk1::allocator<char> >, std::__ndk1::shared_ptr<geode::Hook> > > >::erase(std::__ndk1::__tree_const_iterator<std::__ndk1::__value_type<std::__ndk1::basic_string<char, std::__ndk1::char_traits<char>, std::__ndk1::allocator<char> >, std::__ndk1::shared_ptr<geode::Hook> >, std::__ndk1::__tree_node<std::__ndk1::__value_type<std::__ndk1::basic_string<char, std::__ndk1::char_traits<char>, std::__ndk1::allocator<char> >, std::__ndk1::shared_ptr<geode::Hook> >, void*>*, long>)
PUBLIC 16264 0 std::__ndk1::__tree_remove[abi:ne180000]<std::__ndk1::__tree_node_base<void*>*>(std::__ndk1::__tree_node_base<void*>*, std::__ndk1::__tree_node_base<void*>*)
PUBLIC 1662c 0 std::__ndk1::__tree<std::__ndk1::__value_type<std::__ndk1::basic_string<char, std::__ndk1::char_traits<char>, std::__ndk1::allocator<char> >, std::__ndk1::shared_ptr<geode::Hook> >, std::__ndk1::__map_value_compare<std::__ndk1::basic_string<char, std::__ndk1::char_traits<char>, std::__ndk1::allocator<char> >, std::__ndk1::__value_type<std::__ndk1::basic_string<char, std::__ndk1::char_traits<char>, std::__ndk1::allocator<char> >, std::__ndk1::shared_ptr<geode::Hook> >, std::__ndk1::less<std::__ndk1::basic_string<char, std::__ndk1::char_traits<char>, std::__ndk1::allocator<char> > >, true>, std::__ndk1::allocator<std::__ndk1::__value_type<std::__ndk1::basic_string<char, std::__ndk1::char_traits<char>, std::__ndk1::allocator<char> >, std::__ndk1::shared_ptr<geode::Hook> > > >::destroy(std::__ndk1::__tree_node<std::__ndk1::__value_type<std::__ndk1::basic_string<char, std::__ndk1::char_traits<char>, std::__ndk1::allocator<char> >, std::__ndk1::shared_ptr<geode::Hook> >, void*>*)
PUBLIC 166b8 0 geode::modifier::AsStaticFunction_update<hook44<(anonymous namespace)::hook44Parent>, void (hook44<(anonymous namespace)::hook44Parent>::*)(float)>::Impl<void (hook44<(anonymous namespace)::hook44Parent>::*)(float)>::function(hook44<(anonymous namespace)::hook44Parent>*, float)
PUBLIC 18264 0 geode::addresser::Addresser::addressOfVirtual<void, GJBaseGameLayer, float>(void (GJBaseGameLayer::*)(float))
PUBLIC 1832c 0 GJBaseGameLayer::GJBaseGameLayer(geode::ZeroConstructorType)
PUBLIC 18adc 0 GJGameState::GJGameState()
PUBLIC 19054 0 geode::stl::unordered_map<int, int, geode::stl::hash<int>, geode::stl::equal_to<int>, std::__ndk1::allocator<std::__ndk1::pair<int const, int> > >::~unordered_map()
PUBLIC 190cc 0 geode::stl::unordered_set<int, geode::stl::hash<int>, geode::stl::equal_to<int>, std::__ndk1::allocator<int> >::~unordered_set()
PUBLIC 19144 0 geode::stl::unordered_map<int, gd::string, geode::stl::hash<int>, geode::stl::equal_to<int>, std::__ndk1::allocator<std::__ndk1::pair<int const, gd::string> > >::~unordered_map()
PUBLIC 191c8 0 gd::map<std::__ndk1::pair<int, int>, int>::~map()
PUBLIC 191e4 0 geode::stl::unordered_map<int, gd::vector<LabelGameObject*>, geode::stl::hash<int>, geode::stl::equal_to<int>, std::__ndk1::allocator<std::__ndk1::pair<int const, gd::vector<LabelGameObject*> > > >::~unordered_map()
PUBLIC 19270 0 geode::stl::unordered_map<int, std::__ndk1::pair<int, int>, geode::stl::hash<int>, geode::stl::equal_to<int>, std::__ndk1::allocator<std::__ndk1::pair<int const, std::__ndk1::pair<int, int> > > >::~unordered_map()
PUBLIC 192e8 0 geode::stl::unordered_map<int, gd::vector<GameObject*>, geode::stl::hash<int>, geode::stl::equal_to<int>, std::__ndk1::allocator<std::__ndk1::pair<int const, gd::vector<GameObject*> > > >::~unordered_map()
PUBLIC 19374 0 geode::stl::unordered_map<int, cocos2d::CCPoint, geode::stl::hash<int>, geode::stl::equal_to<int>, std::__ndk1::allocator<std::__ndk1::pair<int const, cocos2d::CCPoint> > >::~unordered_map()
PUBLIC 193ec 0 gd::vector<geode::stl::unordered_map<int, int, geode::stl::hash<int>, geode::stl::equal_to<int>, std::__ndk1::allocator<std::__ndk1::pair<int const, int> > > >::~vector()
PUBLIC 194f0 0 GJGameState::~GJGameState()
PUBLIC 198e8 0 geode::stl::unordered_map<int, SongChannelState, geode::stl::hash<int>, geode::stl::equal_to<int>, std::__ndk1::allocator<std::__ndk1::pair<int const, SongChannelState> > >::~unordered_map()
PUBLIC 19960 0 gd::map<std::__ndk1::pair<int, int>, SFXTriggerInstance>::~map()
PUBLIC 1997c 0 geode::stl::unordered_map<int, std::__ndk1::vector<int, std::__ndk1::allocator<int> >, geode::stl::hash<int>, geode::stl::equal_to<int>, std::__ndk1::allocator<std::__ndk1::pair<int const, std::__ndk1::vector<int, std::__ndk1::allocator<int> > > > >::~unordered_map()
PUBLIC 19a0c 0 gd::vector<EnterEffectInstance>::~vector()
PUBLIC 19aa4 0 geode::stl::unordered_map<int, std::__ndk1::vector<EnterEffectInstance, std::__ndk1::allocator<EnterEffectInstance> >, geode::stl::hash<int>, geode::stl::equal_to<int>, std::__ndk1::allocator<std::__ndk1::pair<int const, std::__ndk1::vector<EnterEffectInstance, std::__ndk1::allocator<EnterEffectInstance> > > > >::~unordered_map()
PUBLIC 19ae0 0 gd::map<std::__ndk1::pair<GJGameEvent, int>, int>::~map()
PUBLIC 19afc 0 gd::map<std::__ndk1::pair<GJGameEvent, int>, gd::vector<EventTriggerInstance> >::~map()
PUBLIC 19b18 0 geode::stl::unordered_map<int, EnhancedGameObject*, geode::stl::hash<int>, geode::stl::equal_to<int>, std::__ndk1::allocator<std::__ndk1::pair<int const, EnhancedGameObject*> > >::~unordered_map()
PUBLIC 19b90 0 geode::stl::unordered_map<int, GameObjectPhysics, geode::stl::hash<int>, geode::stl::equal_to<int>, std::__ndk1::allocator<std::__ndk1::pair<int const, GameObjectPhysics> > >::~unordered_map()
PUBLIC 19c08 0 geode::stl::unordered_map<int, GJValueTween, geode::stl::hash<int>, geode::stl::equal_to<int>, std::__ndk1::allocator<std::__ndk1::pair<int const, GJValueTween> > >::~unordered_map()
PUBLIC 19c80 0 geode::stl::unordered_map<int, bool, geode::stl::hash<int>, geode::stl::equal_to<int>, std::__ndk1::allocator<std::__ndk1::pair<int const, bool> > >::~unordered_map()
PUBLIC 19cf8 0 gd::map<std::__ndk1::pair<GJGameEvent, int>, gd::vector<EventTriggerInstance> >::map(std::__ndk1::map<std::__ndk1::pair<GJGameEvent, int>, gd::vector<EventTriggerInstance>, std::__ndk1::less<std::__ndk1::pair<GJGameEvent, int> >, std::__ndk1::allocator<std::__ndk1::pair<std::__ndk1::pair<GJGameEvent, int> const, gd::vector<EventTriggerInstance> > > >)
PUBLIC 19ec4 0 gd::map<std::__ndk1::pair<GJGameEvent, int>, gd::vector<EventTriggerInstance> >::insert_pair(std::__ndk1::pair<std::__ndk1::pair<GJGameEvent, int>, gd::vector<EventTriggerInstance> > const&)
PUBLIC 1a17c 0 std::__ndk1::pair<std::__ndk1::pair<GJGameEvent, int>, gd::vector<EventTriggerInstance> >::~pair()
PUBLIC 1a1fc 0 std::__ndk1::pair<std::__ndk1::pair<GJGameEvent, int> const, gd::vector<EventTriggerInstance> >::~pair()
PUBLIC 1a27c 0 gd::vector<EventTriggerInstance>::vector(gd::vector<EventTriggerInstance> const&)
PUBLIC 1a41c 0 geode::stl::_rb_insert_rebalance(bool, geode::stl::_rb_tree_base*, geode::stl::_rb_tree_base*, geode::stl::_rb_tree_base&)
PUBLIC 1a6d4 0 gd::vector<EventTriggerInstance>::operator=(gd::vector<EventTriggerInstance> const&)
PUBLIC 1a890 0 gd::vector<EventTriggerInstance>::~vector()
PUBLIC 1a910 0 std::__ndk1::__tree<std::__ndk1::__value_type<std::__ndk1::pair<GJGameEvent, int>, gd::vector<EventTriggerInstance> >, std::__ndk1::__map_value_compare<std::__ndk1::pair<GJGameEvent, int>, std::__ndk1::__value_type<std::__ndk1::pair<GJGameEvent, int>, gd::vector<EventTriggerInstance> >, std::__ndk1::less<std::__ndk1::pair<GJGameEvent, int> >, true>, std::__ndk1::allocator<std::__ndk1::__value_type<std::__ndk1::pair<GJGameEvent, int>, gd::vector<EventTriggerInstance> > > >::destroy(std::__ndk1::__tree_node<std::__ndk1::__value_type<std::__ndk1::pair<GJGameEvent, int>, gd::vector<EventTriggerInstance> >, void*>*)
PUBLIC 1a9a8 0 gd::map<std::__ndk1::pair<int, int>, SFXTriggerInstance>::erase(geode::stl::_rb_tree_node<std::__ndk1::pair<std::__ndk1::pair<int, int>, SFXTriggerInstance> >*)
PUBLIC 1a9fc 0 gd::map<int, EnterEffectAnimValue>::erase(geode::stl::_rb_tree_node<std::__ndk1::pair<int, EnterEffectAnimValue> >*)
PUBLIC 1aa50 0 geode::stl::_Hashtable<int, std::__ndk1::pair<int const, std::__ndk1::vector<EnterEffectInstance, std::__ndk1::allocator<EnterEffectInstance> > >, std::__ndk1::allocator<std::__ndk1::pair<int const, std::__ndk1::vector<EnterEffectInstance, std::__ndk1::allocator<EnterEffectInstance> > > >, geode::stl::__detail::_Select1st, geode::stl::equal_to<int>, geode::stl::hash<int>, geode::stl::__detail::_Mod_range_hashing, geode::stl::__detail::_Default_ranged_hash, geode::stl::__detail::_Prime_rehash_policy, geode::stl::__detail::_Hashtable_traits<false, false, true> >::clear()
PUBLIC 1aaf8 0 gd::map<std::__ndk1::pair<GJGameEvent, int>, int>::erase(geode::stl::_rb_tree_node<std::__ndk1::pair<std::__ndk1::pair<GJGameEvent, int>, int> >*)
PUBLIC 1ab4c 0 gd::map<std::__ndk1::pair<GJGameEvent, int>, gd::vector<EventTriggerInstance> >::erase(geode::stl::_rb_tree_node<std::__ndk1::pair<std::__ndk1::pair<GJGameEvent, int>, gd::vector<EventTriggerInstance> > >*)
PUBLIC 1abf4 0 gd::map<std::__ndk1::pair<int, int>, int>::erase(geode::stl::_rb_tree_node<std::__ndk1::pair<std::__ndk1::pair<int, int>, int> >*)
PUBLIC 1ac48 0 std::__ndk1::shared_ptr<tulip::hook::CallingConvention>::~shared_ptr[abi:ne180000]()
PUBLIC 1ac98 0 tulip::hook::HandlerMetadata::~HandlerMetadata()
PUBLIC 1acfc 0 geode::Mod::getSettingValue<std::__ndk1::basic_string<char, std::__ndk1::char_traits<char>, std::__ndk1::allocator<char> > >(std::__ndk1::basic_string_view<char, std::__ndk1::char_traits<char> >) const
PUBLIC 1ae90 0 hook44<(anonymous namespace)::hook44Parent>::updateText(std::__ndk1::basic_string<char, std::__ndk1::char_traits<char>, std::__ndk1::allocator<char> >, std::__ndk1::basic_string<char, std::__ndk1::char_traits<char>, std::__ndk1::allocator<char> >, stats, std::__ndk1::basic_string<char, std::__ndk1::char_traits<char>, std::__ndk1::allocator<char> >)
PUBLIC 1b0e8 0 std::__ndk1::shared_ptr<geode::StringSettingV3>::~shared_ptr[abi:ne180000]()
PUBLIC 1b138 0 geode::cast::traverseTypeinfoFor(void*, geode::cast::ClassTypeinfoType const*, char const*)
PUBLIC 1b23c 0 std::__ndk1::__throw_out_of_range[abi:ne180000](char const*)
PUBLIC 1b28c 0 std::out_of_range::out_of_range[abi:ne180000](char const*)
PUBLIC 1b2bc 0 std::__ndk1::__tree<std::__ndk1::__value_type<std::__ndk1::basic_string<char, std::__ndk1::char_traits<char>, std::__ndk1::allocator<char> >, std::__ndk1::shared_ptr<geode::Hook> >, std::__ndk1::__map_value_compare<std::__ndk1::basic_string<char, std::__ndk1::char_traits<char>, std::__ndk1::allocator<char> >, std::__ndk1::__value_type<std::__ndk1::basic_string<char, std::__ndk1::char_traits<char>, std::__ndk1::allocator<char> >, std::__ndk1::shared_ptr<geode::Hook> >, std::__ndk1::less<std::__ndk1::basic_string<char, std::__ndk1::char_traits<char>, std::__ndk1::allocator<char> > >, true>, std::__ndk1::allocator<std::__ndk1::__value_type<std::__ndk1::basic_string<char, std::__ndk1::char_traits<char>, std::__ndk1::allocator<char> >, std::__ndk1::shared_ptr<geode::Hook> > > >::__emplace_unique_key_args<std::__ndk1::basic_string<char, std::__ndk1::char_traits<char>, std::__ndk1::allocator<char> >, std::__ndk1::piecewise_construct_t const&, std::__ndk1::tuple<std::__ndk1::basic_string<char, std::__ndk1::char_traits<char>, std::__ndk1::allocator<char> >&&>, std::__ndk1::tuple<> >(std::__ndk1::basic_string<char, std::__ndk1::char_traits<char>, std::__ndk1::allocator<char> > const&, std::__ndk1::piecewise_construct_t const&, std::__ndk1::tuple<std::__ndk1::basic_string<char, std::__ndk1::char_traits<char>, std::__ndk1::allocator<char> >&&>, std::__ndk1::tuple<>)
PUBLIC 1b434 0 std::__ndk1::__tree_balance_after_insert[abi:ne180000]<std::__ndk1::__tree_node_base<void*>*>(std::__ndk1::__tree_node_base<void*>*, std::__ndk1::__tree_node_base<void*>*)
PUBLIC 1b5e4 0 geode::modifier::ModifyDerive<hook120<(anonymous namespace)::hook120Parent>, UILayer>::apply()
PUBLIC 1b944 0 geode::modifier::ModifyBase<geode::modifier::ModifyDerive<hook120<(anonymous namespace)::hook120Parent>, UILayer> >::apply()
PUBLIC 1b948 0 geode::modifier::AsStaticFunction_init<hook120<(anonymous namespace)::hook120Parent>, bool (hook120<(anonymous namespace)::hook120Parent>::*)(GJBaseGameLayer*)>::Impl<bool (hook120<(anonymous namespace)::hook120Parent>::*)(GJBaseGameLayer*)>::function(hook120<(anonymous namespace)::hook120Parent>*, GJBaseGameLayer*)
PUBLIC 1c710 0 hook120<(anonymous namespace)::hook120Parent>::addLabel(std::__ndk1::basic_string<char, std::__ndk1::char_traits<char>, std::__ndk1::allocator<char> >)
PUBLIC 1cb88 0 geode::modifier::FieldIntermediate<hook120<(anonymous namespace)::hook120Parent>, UILayer>::operator->()
PUBLIC 1d1c0 0 geode::modifier::FieldIntermediate<hook120<(anonymous namespace)::hook120Parent>, UILayer>::fieldDestructor(void*)
PUBLIC 1d1c4 0 std::__ndk1::vector<void*, std::__ndk1::allocator<void*> >::__throw_length_error[abi:ne180000]() const
PUBLIC 1d1d8 0 std::__ndk1::vector<std::__ndk1::function<void (void*)>, std::__ndk1::allocator<std::__ndk1::function<void (void*)> > >::__throw_length_error[abi:ne180000]() const
PUBLIC 1d1ec 0 std::__ndk1::vector<void*, std::__ndk1::allocator<void*> >::__throw_out_of_range[abi:ne180000]() const
PUBLIC 1d200 0 std::__ndk1::vector<std::__ndk1::function<void (void*)>, std::__ndk1::allocator<std::__ndk1::function<void (void*)> > >::__throw_out_of_range[abi:ne180000]() const
PUBLIC 1d214 0 std::__ndk1::__function::__base<void (void*)>::~__base()
PUBLIC 1d218 0 std::__ndk1::__function::__func<void (*)(void*), std::__ndk1::allocator<void (*)(void*)>, void (void*)>::~__func()
PUBLIC 1d21c 0 std::__ndk1::__function::__func<void (*)(void*), std::__ndk1::allocator<void (*)(void*)>, void (void*)>::__clone() const
PUBLIC 1d254 0 std::__ndk1::__function::__func<void (*)(void*), std::__ndk1::allocator<void (*)(void*)>, void (void*)>::__clone(std::__ndk1::__function::__base<void (void*)>*) const
PUBLIC 1d26c 0 std::__ndk1::__function::__func<void (*)(void*), std::__ndk1::allocator<void (*)(void*)>, void (void*)>::destroy()
PUBLIC 1d270 0 std::__ndk1::__function::__func<void (*)(void*), std::__ndk1::allocator<void (*)(void*)>, void (void*)>::destroy_deallocate()
PUBLIC 1d274 0 std::__ndk1::__function::__func<void (*)(void*), std::__ndk1::allocator<void (*)(void*)>, void (void*)>::operator()(void*&&)
PUBLIC 1d284 0 std::__ndk1::__function::__func<void (*)(void*), std::__ndk1::allocator<void (*)(void*)>, void (void*)>::target(std::type_info const&) const
PUBLIC 1d2a0 0 std::__ndk1::__function::__func<void (*)(void*), std::__ndk1::allocator<void (*)(void*)>, void (void*)>::target_type() const
PUBLIC 1d2ac 0 geode::modifier::ModifyDerive<hook231<(anonymous namespace)::hook231Parent>, GameStatsManager>::apply()
PUBLIC 1d634 0 geode::modifier::ModifyBase<geode::modifier::ModifyDerive<hook231<(anonymous namespace)::hook231Parent>, GameStatsManager> >::apply()
PUBLIC 1d638 0 geode::modifier::AsStaticFunction_getStat<hook231<(anonymous namespace)::hook231Parent>, int (hook231<(anonymous namespace)::hook231Parent>::*)(char const*)>::Impl<int (hook231<(anonymous namespace)::hook231Parent>::*)(char const*)>::function(hook231<(anonymous namespace)::hook231Parent>*, char const*)
PUBLIC 1d724 0 geode::Mod::getSettingValue<bool>(std::__ndk1::basic_string_view<char, std::__ndk1::char_traits<char> >) const
PUBLIC 1d858 0 __cxx_global_var_init
PUBLIC 1dcd8 0 geode::modifier::ModifyBase<geode::modifier::ModifyDerive<StatDisplaySettingsLayer, PauseLayer> >::~ModifyBase()
PUBLIC 1dcf4 0 geode::modifier::ModifyDerive<StatDisplaySettingsLayer, PauseLayer>::apply()
PUBLIC 1e024 0 geode::modifier::ModifyBase<geode::modifier::ModifyDerive<StatDisplaySettingsLayer, PauseLayer> >::apply()
PUBLIC 1e028 0 geode::modifier::AsStaticFunction_customSetup<StatDisplaySettingsLayer, void (StatDisplaySettingsLayer::*)()>::Impl<void (StatDisplaySettingsLayer::*)()>::function(StatDisplaySettingsLayer*)
PUBLIC 1e108 0 geode::addresser::Addresser::addressOfVirtual<void, PauseLayer, >(void (PauseLayer::*)())
PUBLIC 1e1b0 0 PauseLayer::PauseLayer(geode::ZeroConstructorType)
PUBLIC 1e23c 0 StatDisplaySettingsLayer::onSetting(cocos2d::CCObject*)
PUBLIC m 1e278 0 geodeImplicitEntry
PUBLIC 1e2b4 0 std::__ndk1::unordered_map<void*, bool, std::__ndk1::hash<void*>, std::__ndk1::equal_to<void*>, std::__ndk1::allocator<std::__ndk1::pair<void* const, bool> > >::~unordered_map[abi:ne180000]()
PUBLIC 1e300 0 wrapFunction(unsigned long, tulip::hook::WrapperMetadata const&)
PUBLIC 1e434 0 geode::impl::ResultData<void*, std::__ndk1::basic_string<char, std::__ndk1::char_traits<char>, std::__ndk1::allocator<char> > >::unwrapErr() &
PUBLIC 1e4ac 0 geode::impl::ResultData<void*, std::__ndk1::basic_string<char, std::__ndk1::char_traits<char>, std::__ndk1::allocator<char> > >::~ResultData()
PUBLIC 1e520 0 tulip::hook::WrapperMetadata::~WrapperMetadata()
PUBLIC 1e584 0 cocos2d::CCObject::~CCObject()
PUBLIC 1e5a8 0 cocos2d::CCNode::~CCNode()
PUBLIC 1e5cc 0 {virtual override thunk({offset(-320)}, cocos2d::CCLayer::~CCLayer())}
PUBLIC 1e5d4 0 cocos2d::CCLayer::~CCLayer()
PUBLIC 1e5f8 0 {virtual override thunk({offset(-320)}, cocos2d::CCLayer::~CCLayer())}
PUBLIC 1e620 0 GJBaseGameLayer::~GJBaseGameLayer()
PUBLIC 1f5b4 0 {virtual override thunk({offset(-320)}, GJBaseGameLayer::~GJBaseGameLayer())}
PUBLIC 1f5bc 0 GJBaseGameLayer::~GJBaseGameLayer()
PUBLIC 1f5e0 0 {virtual override thunk({offset(-320)}, GJBaseGameLayer::~GJBaseGameLayer())}
PUBLIC 1f608 0 GJBaseGameLayer::toggleGroupTriggered(int, bool, gd::vector<int> const&, int, int)
PUBLIC 1f774 0 tulip::hook::AbstractFunction::from<void, GJBaseGameLayer*, int, bool, gd::vector<int> const&, int, int>(void (*)(GJBaseGameLayer*, int, bool, gd::vector<int> const&, int, int))
PUBLIC 1f8e8 0 {virtual override thunk({offset(-408)}, GJBaseGameLayer::toggleGroupTriggered(int, bool, gd::vector<int> const&, int, int))}
PUBLIC 1f8f0 0 GJBaseGameLayer::spawnGroup(int, bool, double, gd::vector<int> const&, int, int)
PUBLIC 1fa6c 0 tulip::hook::AbstractFunction::from<void, GJBaseGameLayer*, int, bool, double, gd::vector<int> const&, int, int>(void (*)(GJBaseGameLayer*, int, bool, double, gd::vector<int> const&, int, int))
PUBLIC 1fbe4 0 {virtual override thunk({offset(-408)}, GJBaseGameLayer::spawnGroup(int, bool, double, gd::vector<int> const&, int, int))}
PUBLIC 1fbec 0 GJBaseGameLayer::spawnObject(GameObject*, double, gd::vector<int> const&)
PUBLIC 1fd48 0 tulip::hook::AbstractFunction::from<void, GJBaseGameLayer*, GameObject*, double, gd::vector<int> const&>(void (*)(GJBaseGameLayer*, GameObject*, double, gd::vector<int> const&))
PUBLIC 1fe54 0 {virtual override thunk({offset(-408)}, GJBaseGameLayer::spawnObject(GameObject*, double, gd::vector<int> const&))}
PUBLIC 1fe5c 0 GJBaseGameLayer::activatePlatformerEndTrigger(EndTriggerGameObject*, gd::vector<int> const&)
PUBLIC 1ffa8 0 tulip::hook::AbstractFunction::from<void, GJBaseGameLayer*, EndTriggerGameObject*, gd::vector<int> const&>(void (*)(GJBaseGameLayer*, EndTriggerGameObject*, gd::vector<int> const&))
PUBLIC 200a8 0 GJBaseGameLayer::toggleGlitter(bool)
PUBLIC 200ac 0 GJBaseGameLayer::timeForPos(cocos2d::CCPoint, int, int, bool, int)
PUBLIC 200b4 0 GJBaseGameLayer::posForTime(float)
PUBLIC 200bc 0 GJBaseGameLayer::resetSPTriggered()
PUBLIC 200c0 0 GJBaseGameLayer::createCustomParticle(gd::string const&, cocos2d::ParticleStruct const&, int, bool)
PUBLIC 20224 0 tulip::hook::AbstractFunction::from<TodoReturnPlaceholder, GJBaseGameLayer*, gd::string const&, cocos2d::ParticleStruct const&, int, bool>(TodoReturnPlaceholder (*)(GJBaseGameLayer*, gd::string const&, cocos2d::ParticleStruct const&, int, bool))
PUBLIC 20388 0 GJBaseGameLayer::claimCustomParticle(gd::string const&, cocos2d::ParticleStruct const&, int, int, int, bool)
PUBLIC 20504 0 tulip::hook::AbstractFunction::from<TodoReturnPlaceholder, GJBaseGameLayer*, gd::string const&, cocos2d::ParticleStruct const&, int, int, int, bool>(TodoReturnPlaceholder (*)(GJBaseGameLayer*, gd::string const&, cocos2d::ParticleStruct const&, int, int, int, bool))
PUBLIC 2067c 0 GJBaseGameLayer::unclaimCustomParticle(gd::string const&, cocos2d::CCParticleSystemQuad*)
PUBLIC 207c8 0 tulip::hook::AbstractFunction::from<TodoReturnPlaceholder, GJBaseGameLayer*, gd::string const&, cocos2d::CCParticleSystemQuad*>(TodoReturnPlaceholder (*)(GJBaseGameLayer*, gd::string const&, cocos2d::CCParticleSystemQuad*))
PUBLIC 208c8 0 cocos2d::CCCopying::copyWithZone(cocos2d::CCZone*)
PUBLIC 208d0 0 cocos2d::CCObject::update(float)
PUBLIC 208d4 0 cocos2d::CCKeyboardDelegate::keyUp(cocos2d::enumKeyCodes)
PUBLIC 208d8 0 cocos2d::CCMouseDelegate::rightKeyDown()
PUBLIC 208dc 0 cocos2d::CCMouseDelegate::rightKeyUp()
PUBLIC 208e0 0 cocos2d::CCMouseDelegate::scrollWheel(float, float)
PUBLIC 208e4 0 cocos2d::CCNode::~CCNode()
PUBLIC 20b5c 0 cocos2d::CCLayer::~CCLayer()
PUBLIC 20e24 0 cocos2d::CCObject::~CCObject()
PUBLIC 212f0 0 _ZN5geode15UnwrapExceptionC2IRPvQsr4implE18IsStringStreamableIT_EEENS_4impl5OkTagEOS4_
PUBLIC 21444 0 _ZN5geode15UnwrapExceptionC2IRNSt6__ndk112basic_stringIcNS2_11char_traitsIcEENS2_9allocatorIcEEEEQsr4implE18IsStringStreamableIT_EEENS_4impl6ErrTagEOSA_
PUBLIC 215ac 0 std::__ndk1::__variant_detail::__visitation::__base::__dispatcher<(unsigned long)0>::__dispatch[abi:ne180000]<std::__ndk1::__variant_detail::__dtor<std::__ndk1::__variant_detail::__traits<void*, std::__ndk1::basic_string<char, std::__ndk1::char_traits<char>, std::__ndk1::allocator<char> > >, (std::__ndk1::__variant_detail::_Trait)1>::__destroy[abi:ne180000]()::{lambda(auto:1&)#1}, std::__ndk1::__variant_detail::__base<(std::__ndk1::__variant_detail::__traits<void*, std::__ndk1::basic_string<char, std::__ndk1::char_traits<char>, std::__ndk1::allocator<char> > >)1, std::__ndk1::__variant_detail::__traits, std::__ndk1::allocator<char> >&>(std::__ndk1::__variant_detail::__dtor<std::__ndk1::__variant_detail::__traits<void*, std::__ndk1::basic_string<char, std::__ndk1::char_traits<char>, std::__ndk1::allocator<char> > >, (std::__ndk1::__variant_detail::_Trait)1>, std::__ndk1::__variant_detail::__base<(std::__ndk1::__variant_detail::__traits<void*, std::__ndk1::basic_string<char, std::__ndk1::char_traits<char>, std::__ndk1::allocator<char> > >)1, std::__ndk1::__variant_detail::__traits, std::__ndk1::allocator<char> >&)
PUBLIC 215b0 0 std::__ndk1::__variant_detail::__visitation::__base::__dispatcher<(unsigned long)1>::__dispatch[abi:ne180000]<std::__ndk1::__variant_detail::__dtor<std::__ndk1::__variant_detail::__traits<void*, std::__ndk1::basic_string<char, std::__ndk1::char_traits<char>, std::__ndk1::allocator<char> > >, (std::__ndk1::__variant_detail::_Trait)1>::__destroy[abi:ne180000]()::{lambda(auto:1&)#1}, std::__ndk1::__variant_detail::__base<(std::__ndk1::__variant_detail::__traits<void*, std::__ndk1::basic_string<char, std::__ndk1::char_traits<char>, std::__ndk1::allocator<char> > >)1, std::__ndk1::__variant_detail::__traits, std::__ndk1::allocator<char> >&>(std::__ndk1::__variant_detail::__dtor<std::__ndk1::__variant_detail::__traits<void*, std::__ndk1::basic_string<char, std::__ndk1::char_traits<char>, std::__ndk1::allocator<char> > >, (std::__ndk1::__variant_detail::_Trait)1>, std::__ndk1::__variant_detail::__base<(std::__ndk1::__variant_detail::__traits<void*, std::__ndk1::basic_string<char, std::__ndk1::char_traits<char>, std::__ndk1::allocator<char> > >)1, std::__ndk1::__variant_detail::__traits, std::__ndk1::allocator<char> >&)
PUBLIC 215c4 0 std::__ndk1::__hash_table<std::__ndk1::__hash_value_type<void*, bool>, std::__ndk1::__unordered_map_hasher<void*, std::__ndk1::__hash_value_type<void*, bool>, std::__ndk1::hash<void*>, std::__ndk1::equal_to<void*>, true>, std::__ndk1::__unordered_map_equal<void*, std::__ndk1::__hash_value_type<void*, bool>, std::__ndk1::equal_to<void*>, std::__ndk1::hash<void*>, true>, std::__ndk1::allocator<std::__ndk1::__hash_value_type<void*, bool> > >::__emplace_unique_key_args<void*, std::__ndk1::piecewise_construct_t const&, std::__ndk1::tuple<void* const&>, std::__ndk1::tuple<> >(void* const&, std::__ndk1::piecewise_construct_t const&, std::__ndk1::tuple<void* const&>, std::__ndk1::tuple<>)
PUBLIC 21ab0 0 <.plt ELF section in legowiifun.stat_display.android64.so>
STACK CFI INIT fb80 10 .cfa: sp 0 +
STACK CFI INIT fb90 8 .cfa: sp 0 +
STACK CFI INIT fb98 8 .cfa: sp 0 +
STACK CFI INIT fba0 14 .cfa: sp 0 +
STACK CFI INIT fbb4 1c .cfa: sp 0 +
STACK CFI INIT fbd0 10 .cfa: sp 0 +
STACK CFI INIT fbe0 134 .cfa: sp 0 +
STACK CFI INIT fd14 84 .cfa: sp 0 +
STACK CFI INIT fd98 f4 .cfa: sp 0 +
STACK CFI INIT fe8c a8 .cfa: sp 0 +
STACK CFI INIT ff34 7c .cfa: sp 0 +
STACK CFI INIT ffb0 14 .cfa: sp 0 +
STACK CFI INIT ffc4 40 .cfa: sp 0 +
STACK CFI INIT 10004 28 .cfa: sp 0 +
STACK CFI INIT 1002c 190 .cfa: sp 0 +
STACK CFI INIT 101bc 2c8 .cfa: sp 0 +
STACK CFI INIT 10484 8 .cfa: sp 0 +
STACK CFI INIT 1048c 8 .cfa: sp 0 +
STACK CFI INIT 10494 44 .cfa: sp 0 +
STACK CFI INIT 104d8 e8 .cfa: sp 0 +
STACK CFI INIT 105c0 e8 .cfa: sp 0 +
STACK CFI INIT 106a8 14 .cfa: sp 0 +
STACK CFI INIT 106bc 10 .cfa: sp 0 +
STACK CFI INIT 106cc 10 .cfa: sp 0 +
STACK CFI INIT 106dc f0 .cfa: sp 0 +
STACK CFI INIT 107cc 44 .cfa: sp 0 +
STACK CFI INIT 10810 c .cfa: sp 0 +
STACK CFI INIT 1081c c .cfa: sp 0 +
STACK CFI INIT 10828 2c .cfa: sp 0 +
STACK CFI INIT 10854 280 .cfa: sp 0 +
STACK CFI INIT 10ad4 c .cfa: sp 0 +
STACK CFI INIT 10ae0 120 .cfa: sp 0 +
STACK CFI INIT 10c00 488 .cfa: sp 0 +
STACK CFI INIT 11088 c48 .cfa: sp 0 +
STACK CFI INIT 11cd0 134 .cfa: sp 0 +
STACK CFI INIT 11e04 210 .cfa: sp 0 +
STACK CFI INIT 12014 38c .cfa: sp 0 +
STACK CFI INIT 123a0 1c8 .cfa: sp 0 +
STACK CFI INIT 12568 9bc .cfa: sp 0 +
STACK CFI INIT 12f24 2d4 .cfa: sp 0 +
STACK CFI INIT 131f8 134 .cfa: sp 0 +
STACK CFI INIT 1332c 120 .cfa: sp 0 +
STACK CFI INIT 1344c 1c8 .cfa: sp 0 +
STACK CFI INIT 13614 168 .cfa: sp 0 +
STACK CFI INIT 1377c fc .cfa: sp 0 +
STACK CFI INIT 13878 30 .cfa: sp 0 +
STACK CFI INIT 139e0 30 .cfa: sp 0 +
STACK CFI INIT 13a10 98 .cfa: sp 0 +
STACK CFI INIT 13aa8 59c .cfa: sp 0 +
STACK CFI INIT 14044 8c .cfa: sp 0 +
STACK CFI INIT 140d0 30 .cfa: sp 0 +
STACK CFI INIT 14db4 1c .cfa: sp 0 +
STACK CFI INIT 14dd0 1c .cfa: sp 0 +
STACK CFI INIT 14dec 1c .cfa: sp 0 +
STACK CFI INIT 15180 50 .cfa: sp 0 +
STACK CFI 15184 .cfa: sp 32 +
STACK CFI 1518c .cfa: x29 32 + x19: .cfa -16 + ^ .ra: .cfa -24 + ^ x29: .cfa -32 + ^
STACK CFI 151a4 .cfa: sp 32 +
STACK CFI 151ac .cfa: sp 0 +
STACK CFI 151b0 .cfa: x29 32 +
STACK CFI 151c4 .cfa: sp 32 +
STACK CFI 151cc .cfa: sp 0 +
STACK CFI INIT 15244 7c .cfa: sp 0 +
STACK CFI 15248 .cfa: sp 48 +
STACK CFI 15254 .cfa: x29 48 + x19: .cfa -8 + ^ x20: .cfa -16 + ^ x21: .cfa -32 + ^ .ra: .cfa -40 + ^ x29: .cfa -48 + ^
STACK CFI 152a0 .cfa: sp 48 +
STACK CFI 152ac .cfa: sp 0 +
STACK CFI 152b0 .cfa: sp 48 +
STACK CFI 152bc .cfa: sp 0 +
STACK CFI INIT 152c0 4 .cfa: sp 0 +
STACK CFI INIT 152c4 10 .cfa: sp 0 +
STACK CFI 152c8 .cfa: sp 16 +
STACK CFI 152cc .cfa: x29 16 + .ra: .cfa -8 + ^ x29: .cfa -16 + ^
STACK CFI INIT 15428 34 .cfa: sp 0 +
STACK CFI 1542c .cfa: sp 16 +
STACK CFI 15430 .cfa: x29 16 + .ra: .cfa -8 + ^ x29: .cfa -16 + ^
STACK CFI INIT 15588 80 .cfa: sp 0 +
STACK CFI 1558c .cfa: sp 48 +
STACK CFI 15598 .cfa: x29 48 + x19: .cfa -8 + ^ x20: .cfa -16 + ^ x21: .cfa -32 + ^ .ra: .cfa -40 + ^ x29: .cfa -48 + ^
STACK CFI 155f8 .cfa: sp 48 +
STACK CFI 15604 .cfa: sp 0 +
STACK CFI INIT 15608 24 .cfa: sp 0 +
STACK CFI 1560c .cfa: sp 32 +
STACK CFI 15614 .cfa: x29 32 + x19: .cfa -16 + ^ .ra: .cfa -24 + ^ x29: .cfa -32 + ^
STACK CFI 15620 .cfa: sp 32 +
STACK CFI 15628 .cfa: sp 0 +
STACK CFI INIT 159ac 14 .cfa: sp 0 +
STACK CFI 159b0 .cfa: sp 16 +
STACK CFI 159b4 .cfa: x29 16 + .ra: .cfa -8 + ^ x29: .cfa -16 + ^
STACK CFI INIT 15a10 30 .cfa: sp 0 +
STACK CFI 15a14 .cfa: sp 32 +
STACK CFI 15a1c .cfa: x29 32 + x19: .cfa -16 + ^ .ra: .cfa -24 + ^ x29: .cfa -32 + ^
STACK CFI 15a34 .cfa: sp 32 +
STACK CFI 15a3c .cfa: sp 0 +
STACK CFI INIT 15a40 34 .cfa: sp 0 +
STACK CFI 15a44 .cfa: sp 32 +
STACK CFI 15a4c .cfa: x29 32 + x19: .cfa -16 + ^ .ra: .cfa -24 + ^ x29: .cfa -32 + ^
STACK CFI INIT 15bec 148 .cfa: sp 0 +
STACK CFI 15bf0 .cfa: sp 48 +
STACK CFI 15bfc .cfa: x29 48 + x19: .cfa -8 + ^ x20: .cfa -16 + ^ x21: .cfa -32 + ^ .ra: .cfa -40 + ^ x29: .cfa -48 + ^
STACK CFI 15d24 .cfa: sp 48 +
STACK CFI 15d30 .cfa: sp 0 +
STACK CFI INIT 15f5c 80 .cfa: sp 0 +
STACK CFI 15f60 .cfa: sp 48 +
STACK CFI 15f6c .cfa: x29 48 + x19: .cfa -8 + ^ x20: .cfa -16 + ^ x21: .cfa -24 + ^ x22: .cfa -32 + ^ .ra: .cfa -40 + ^ x29: .cfa -48 + ^
STACK CFI 15f84 .cfa: sp 48 +
STACK CFI 15f90 .cfa: sp 0 +
STACK CFI 15f94 .cfa: x29 48 +
STACK CFI 15fc4 .cfa: sp 48 +
STACK CFI 15fd0 .cfa: sp 0 +
STACK CFI 15fd4 .cfa: x29 48 +
STACK CFI INIT 15fdc 68 .cfa: sp 0 +
STACK CFI 15fe0 .cfa: sp 32 +
STACK CFI 15fe8 .cfa: x29 32 + x19: .cfa -8 + ^ x20: .cfa -16 + ^ .ra: .cfa -24 + ^ x29: .cfa -32 + ^
STACK CFI 16000 .cfa: sp 32 +
STACK CFI 16008 .cfa: sp 0 +
STACK CFI 1600c .cfa: x29 32 +
STACK CFI 16038 .cfa: sp 32 +
STACK CFI 16040 .cfa: sp 0 +
STACK CFI INIT 16044 14 .cfa: sp 0 +
STACK CFI 16048 .cfa: sp 16 +
STACK CFI 1604c .cfa: x29 16 + .ra: .cfa -8 + ^ x29: .cfa -16 + ^
STACK CFI INIT 16058 4 .cfa: sp 0 +
STACK CFI INIT 1605c 14 .cfa: sp 0 +
STACK CFI INIT 16070 120 .cfa: sp 0 +
STACK CFI 16074 .cfa: sp 64 +
STACK CFI 16084 .cfa: x29 64 + x19: .cfa -8 + ^ x20: .cfa -16 + ^ x21: .cfa -24 + ^ x22: .cfa -32 + ^ x23: .cfa -40 + ^ x24: .cfa -48 + ^ .ra: .cfa -56 + ^ x29: .cfa -64 + ^
STACK CFI 1617c .cfa: sp 64 +
STACK CFI 1618c .cfa: sp 0 +
STACK CFI INIT 16190 d4 .cfa: sp 0 +
STACK CFI 16194 .cfa: sp 48 +
STACK CFI 161a0 .cfa: x29 48 + x19: .cfa -8 + ^ x20: .cfa -16 + ^ x21: .cfa -32 + ^ .ra: .cfa -40 + ^ x29: .cfa -48 + ^
STACK CFI 16230 .cfa: sp 48 +
STACK CFI 1623c .cfa: sp 0 +
STACK CFI 16240 .cfa: x29 48 +
STACK CFI INIT 16264 3c8 .cfa: sp 0 +
STACK CFI INIT 1662c 8c .cfa: sp 0 +
STACK CFI 16634 .cfa: sp 32 +
STACK CFI 1663c .cfa: x29 32 + x19: .cfa -8 + ^ x20: .cfa -16 + ^ .ra: .cfa -24 + ^ x29: .cfa -32 + ^
STACK CFI 16684 .cfa: sp 32 +
STACK CFI 1668c .cfa: sp 0 +
STACK CFI 16694 .cfa: x29 32 +
STACK CFI INIT 19054 78 .cfa: sp 0 +
STACK CFI 19058 .cfa: sp 48 +
STACK CFI 19064 .cfa: x29 48 + x19: .cfa -8 + ^ x20: .cfa -16 + ^ x21: .cfa -32 + ^ .ra: .cfa -40 + ^ x29: .cfa -48 + ^
STACK CFI 190ac .cfa: sp 48 +
STACK CFI 190b8 .cfa: sp 0 +
STACK CFI 190bc .cfa: sp 48 +
STACK CFI 190c8 .cfa: sp 0 +
STACK CFI INIT 190cc 78 .cfa: sp 0 +
STACK CFI 190d0 .cfa: sp 48 +
STACK CFI 190dc .cfa: x29 48 + x19: .cfa -8 + ^ x20: .cfa -16 + ^ x21: .cfa -32 + ^ .ra: .cfa -40 + ^ x29: .cfa -48 + ^
STACK CFI 19124 .cfa: sp 48 +
STACK CFI 19130 .cfa: sp 0 +
STACK CFI 19134 .cfa: sp 48 +
STACK CFI 19140 .cfa: sp 0 +
STACK CFI INIT 19144 84 .cfa: sp 0 +
STACK CFI 19148 .cfa: sp 48 +
STACK CFI 19154 .cfa: x29 48 + x19: .cfa -8 + ^ x20: .cfa -16 + ^ x21: .cfa -24 + ^ x22: .cfa -32 + ^ .ra: .cfa -40 + ^ x29: .cfa -48 + ^
STACK CFI 191a8 .cfa: sp 48 +
STACK CFI 191b4 .cfa: sp 0 +
STACK CFI 191b8 .cfa: sp 48 +
STACK CFI 191c4 .cfa: sp 0 +
STACK CFI INIT 191e4 8c .cfa: sp 0 +
STACK CFI 191e8 .cfa: sp 48 +
STACK CFI 191f4 .cfa: x29 48 + x19: .cfa -8 + ^ x20: .cfa -16 + ^ x21: .cfa -24 + ^ x22: .cfa -32 + ^ .ra: .cfa -40 + ^ x29: .cfa -48 + ^
STACK CFI 1922c .cfa: sp 48 +
STACK CFI 19238 .cfa: sp 0 +
STACK CFI 1923c .cfa: x29 48 +
STACK CFI 19260 .cfa: sp 48 +
STACK CFI 1926c .cfa: sp 0 +
STACK CFI INIT 19270 78 .cfa: sp 0 +
STACK CFI 19274 .cfa: sp 48 +
STACK CFI 19280 .cfa: x29 48 + x19: .cfa -8 + ^ x20: .cfa -16 + ^ x21: .cfa -32 + ^ .ra: .cfa -40 + ^ x29: .cfa -48 + ^
STACK CFI 192c8 .cfa: sp 48 +
STACK CFI 192d4 .cfa: sp 0 +
STACK CFI 192d8 .cfa: sp 48 +
STACK CFI 192e4 .cfa: sp 0 +
STACK CFI INIT 192e8 8c .cfa: sp 0 +
STACK CFI 192ec .cfa: sp 48 +
STACK CFI 192f8 .cfa: x29 48 + x19: .cfa -8 + ^ x20: .cfa -16 + ^ x21: .cfa -24 + ^ x22: .cfa -32 + ^ .ra: .cfa -40 + ^ x29: .cfa -48 + ^
STACK CFI 19330 .cfa: sp 48 +
STACK CFI 1933c .cfa: sp 0 +
STACK CFI 19340 .cfa: x29 48 +
STACK CFI 19364 .cfa: sp 48 +
STACK CFI 19370 .cfa: sp 0 +
STACK CFI INIT 19374 78 .cfa: sp 0 +
STACK CFI 19378 .cfa: sp 48 +
STACK CFI 19384 .cfa: x29 48 + x19: .cfa -8 + ^ x20: .cfa -16 + ^ x21: .cfa -32 + ^ .ra: .cfa -40 + ^ x29: .cfa -48 + ^
STACK CFI 193cc .cfa: sp 48 +
STACK CFI 193d8 .cfa: sp 0 +
STACK CFI 193dc .cfa: sp 48 +
STACK CFI 193e8 .cfa: sp 0 +
STACK CFI INIT 193ec 104 .cfa: sp 0 +
STACK CFI 193f0 .cfa: sp 64 +
STACK CFI 19400 .cfa: x29 64 + x19: .cfa -8 + ^ x20: .cfa -16 + ^ x21: .cfa -24 + ^ x22: .cfa -32 + ^ x23: .cfa -48 + ^ .ra: .cfa -56 + ^ x29: .cfa -64 + ^
STACK CFI 194c8 .cfa: sp 64 +
STACK CFI 194d8 .cfa: sp 0 +
STACK CFI 194dc .cfa: sp 64 +
STACK CFI 194ec .cfa: sp 0 +
STACK CFI INIT 198e8 78 .cfa: sp 0 +
STACK CFI 198ec .cfa: sp 48 +
STACK CFI 198f8 .cfa: x29 48 + x19: .cfa -8 + ^ x20: .cfa -16 + ^ x21: .cfa -32 + ^ .ra: .cfa -40 + ^ x29: .cfa -48 + ^
STACK CFI 19940 .cfa: sp 48 +
STACK CFI 1994c .cfa: sp 0 +
STACK CFI 19950 .cfa: sp 48 +
STACK CFI 1995c .cfa: sp 0 +
STACK CFI INIT 1997c 90 .cfa: sp 0 +
STACK CFI 19980 .cfa: sp 48 +
STACK CFI 1998c .cfa: x29 48 + x19: .cfa -8 + ^ x20: .cfa -16 + ^ x21: .cfa -24 + ^ x22: .cfa -32 + ^ .ra: .cfa -40 + ^ x29: .cfa -48 + ^
STACK CFI 199c4 .cfa: sp 48 +
STACK CFI 199d0 .cfa: sp 0 +
STACK CFI 199d4 .cfa: x29 48 +
STACK CFI 199fc .cfa: sp 48 +
STACK CFI 19a08 .cfa: sp 0 +
STACK CFI INIT 19aa4 3c .cfa: sp 0 +
STACK CFI 19aa8 .cfa: sp 32 +
STACK CFI 19ab0 .cfa: x29 32 + x19: .cfa -16 + ^ .ra: .cfa -24 + ^ x29: .cfa -32 + ^
STACK CFI 19ac8 .cfa: sp 32 +
STACK CFI 19ad0 .cfa: sp 0 +
STACK CFI 19ad4 .cfa: sp 32 +
STACK CFI 19adc .cfa: sp 0 +
STACK CFI INIT 19b18 78 .cfa: sp 0 +
STACK CFI 19b1c .cfa: sp 48 +
STACK CFI 19b28 .cfa: x29 48 + x19: .cfa -8 + ^ x20: .cfa -16 + ^ x21: .cfa -32 + ^ .ra: .cfa -40 + ^ x29: .cfa -48 + ^
STACK CFI 19b70 .cfa: sp 48 +
STACK CFI 19b7c .cfa: sp 0 +
STACK CFI 19b80 .cfa: sp 48 +
STACK CFI 19b8c .cfa: sp 0 +
STACK CFI INIT 19b90 78 .cfa: sp 0 +
STACK CFI 19b94 .cfa: sp 48 +
STACK CFI 19ba0 .cfa: x29 48 + x19: .cfa -8 + ^ x20: .cfa -16 + ^ x21: .cfa -32 + ^ .ra: .cfa -40 + ^ x29: .cfa -48 + ^
STACK CFI 19be8 .cfa: sp 48 +
STACK CFI 19bf4 .cfa: sp 0 +
STACK CFI 19bf8 .cfa: sp 48 +
STACK CFI 19c04 .cfa: sp 0 +
STACK CFI INIT 19c08 78 .cfa: sp 0 +
STACK CFI 19c0c .cfa: sp 48 +
STACK CFI 19c18 .cfa: x29 48 + x19: .cfa -8 + ^ x20: .cfa -16 + ^ x21: .cfa -32 + ^ .ra: .cfa -40 + ^ x29: .cfa -48 + ^
STACK CFI 19c60 .cfa: sp 48 +
STACK CFI 19c6c .cfa: sp 0 +
STACK CFI 19c70 .cfa: sp 48 +
STACK CFI 19c7c .cfa: sp 0 +
STACK CFI INIT 19c80 78 .cfa: sp 0 +
STACK CFI 19c84 .cfa: sp 48 +
STACK CFI 19c90 .cfa: x29 48 + x19: .cfa -8 + ^ x20: .cfa -16 + ^ x21: .cfa -32 + ^ .ra: .cfa -40 + ^ x29: .cfa -48 + ^
STACK CFI 19cd8 .cfa: sp 48 +
STACK CFI 19ce4 .cfa: sp 0 +
STACK CFI 19ce8 .cfa: sp 48 +
STACK CFI 19cf4 .cfa: sp 0 +
STACK CFI INIT 19ec4 2b8 .cfa: sp 0 +
STACK CFI 19ec8 .cfa: sp 80 +
STACK CFI 19edc .cfa: x29 80 + x19: .cfa -8 + ^ x20: .cfa -16 + ^ x21: .cfa -24 + ^ x22: .cfa -32 + ^ x23: .cfa -40 + ^ x24: .cfa -48 + ^ x25: .cfa -64 + ^ .ra: .cfa -72 + ^ x29: .cfa -80 + ^
STACK CFI 1a088 .cfa: sp 80 +
STACK CFI 1a09c .cfa: sp 0 +
STACK CFI 1a0a0 .cfa: x29 80 +
STACK CFI 1a164 .cfa: sp 80 +
STACK CFI 1a178 .cfa: sp 0 +
STACK CFI INIT 1a17c 80 .cfa: sp 0 +
STACK CFI 1a180 .cfa: sp 48 +
STACK CFI 1a18c .cfa: x29 48 + x19: .cfa -8 + ^ x20: .cfa -16 + ^ x21: .cfa -32 + ^ .ra: .cfa -40 + ^ x29: .cfa -48 + ^
STACK CFI 1a1dc .cfa: sp 48 +
STACK CFI 1a1e8 .cfa: sp 0 +
STACK CFI 1a1ec .cfa: sp 48 +
STACK CFI 1a1f8 .cfa: sp 0 +
STACK CFI INIT 1a1fc 80 .cfa: sp 0 +
STACK CFI 1a200 .cfa: sp 48 +
STACK CFI 1a20c .cfa: x29 48 + x19: .cfa -8 + ^ x20: .cfa -16 + ^ x21: .cfa -32 + ^ .ra: .cfa -40 + ^ x29: .cfa -48 + ^
STACK CFI 1a25c .cfa: sp 48 +
STACK CFI 1a268 .cfa: sp 0 +
STACK CFI 1a26c .cfa: sp 48 +
STACK CFI 1a278 .cfa: sp 0 +
STACK CFI INIT 1a41c 2b8 .cfa: sp 0 +
STACK CFI INIT 1a6d4 1bc .cfa: sp 0 +
STACK CFI 1a6d8 .cfa: sp 64 +
STACK CFI 1a6e8 .cfa: x29 64 + x19: .cfa -8 + ^ x20: .cfa -16 + ^ x21: .cfa -24 + ^ x22: .cfa -32 + ^ x23: .cfa -48 + ^ .ra: .cfa -56 + ^ x29: .cfa -64 + ^
STACK CFI 1a7ec .cfa: sp 64 +
STACK CFI 1a7fc .cfa: sp 0 +
STACK CFI 1a800 .cfa: x29 64 +
STACK CFI INIT 1a890 80 .cfa: sp 0 +
STACK CFI 1a894 .cfa: sp 48 +
STACK CFI 1a8a0 .cfa: x29 48 + x19: .cfa -8 + ^ x20: .cfa -16 + ^ x21: .cfa -32 + ^ .ra: .cfa -40 + ^ x29: .cfa -48 + ^
STACK CFI 1a8f0 .cfa: sp 48 +
STACK CFI 1a8fc .cfa: sp 0 +
STACK CFI 1a900 .cfa: sp 48 +
STACK CFI 1a90c .cfa: sp 0 +
STACK CFI INIT 1a910 98 .cfa: sp 0 +
STACK CFI 1a918 .cfa: sp 48 +
STACK CFI 1a924 .cfa: x29 48 + x19: .cfa -8 + ^ x20: .cfa -16 + ^ x21: .cfa -32 + ^ .ra: .cfa -40 + ^ x29: .cfa -48 + ^
STACK CFI 1a974 .cfa: sp 0 + x19: x19 x20: x20 x21: x21 .ra: x30 x29: x29
STACK CFI 1a978 .cfa: x29 48 + x19: .cfa -8 + ^ x20: .cfa -16 + ^ x21: .cfa -32 + ^ .ra: .cfa -40 + ^ x29: .cfa -48 + ^
STACK CFI 1a998 .cfa: sp 48 +
STACK CFI 1a9a4 .cfa: sp 0 +
STACK CFI INIT 1a9a8 54 .cfa: sp 0 +
STACK CFI 1a9b0 .cfa: sp 32 +
STACK CFI 1a9b8 .cfa: x29 32 + x19: .cfa -8 + ^ x20: .cfa -16 + ^ .ra: .cfa -24 + ^ x29: .cfa -32 + ^
STACK CFI 1a9f0 .cfa: sp 32 +
STACK CFI 1a9f8 .cfa: sp 0 +
STACK CFI INIT 1a9fc 54 .cfa: sp 0 +
STACK CFI 1aa04 .cfa: sp 32 +
STACK CFI 1aa0c .cfa: x29 32 + x19: .cfa -8 + ^ x20: .cfa -16 + ^ .ra: .cfa -24 + ^ x29: .cfa -32 + ^
STACK CFI 1aa44 .cfa: sp 32 +
STACK CFI 1aa4c .cfa: sp 0 +
STACK CFI INIT 1aaf8 54 .cfa: sp 0 +
STACK CFI 1ab00 .cfa: sp 32 +
STACK CFI 1ab08 .cfa: x29 32 + x19: .cfa -8 + ^ x20: .cfa -16 + ^ .ra: .cfa -24 + ^ x29: .cfa -32 + ^
STACK CFI 1ab40 .cfa: sp 32 +
STACK CFI 1ab48 .cfa: sp 0 +
STACK CFI INIT 1ab4c a8 .cfa: sp 0 +
STACK CFI 1ab54 .cfa: sp 48 +
STACK CFI 1ab60 .cfa: x29 48 + x19: .cfa -8 + ^ x20: .cfa -16 + ^ x21: .cfa -24 + ^ x22: .cfa -32 + ^ .ra: .cfa -40 + ^ x29: .cfa -48 + ^
STACK CFI 1abe4 .cfa: sp 48 +
STACK CFI 1abf0 .cfa: sp 0 +
STACK CFI INIT 1abf4 54 .cfa: sp 0 +
STACK CFI 1abfc .cfa: sp 32 +
STACK CFI 1ac04 .cfa: x29 32 + x19: .cfa -8 + ^ x20: .cfa -16 + ^ .ra: .cfa -24 + ^ x29: .cfa -32 + ^
STACK CFI 1ac3c .cfa: sp 32 +
STACK CFI 1ac44 .cfa: sp 0 +
STACK CFI INIT 1ac48 50 .cfa: sp 0 +
STACK CFI 1ac4c .cfa: sp 32 +
STACK CFI 1ac54 .cfa: x29 32 + x19: .cfa -16 + ^ .ra: .cfa -24 + ^ x29: .cfa -32 + ^
STACK CFI 1ac6c .cfa: sp 32 +
STACK CFI 1ac74 .cfa: sp 0 +
STACK CFI 1ac78 .cfa: x29 32 +
STACK CFI 1ac8c .cfa: sp 32 +
STACK CFI 1ac94 .cfa: sp 0 +
STACK CFI INIT 1ac98 64 .cfa: sp 0 +
STACK CFI 1ac9c .cfa: sp 32 +
STACK CFI 1aca4 .cfa: x29 32 + x19: .cfa -16 + ^ .ra: .cfa -24 + ^ x29: .cfa -32 + ^
STACK CFI 1acd0 .cfa: sp 32 +
STACK CFI 1acd8 .cfa: sp 0 +
STACK CFI 1acdc .cfa: x29 32 +
STACK CFI 1acf0 .cfa: sp 32 +
STACK CFI 1acf8 .cfa: sp 0 +
STACK CFI INIT 1b0e8 50 .cfa: sp 0 +
STACK CFI 1b0ec .cfa: sp 32 +
STACK CFI 1b0f4 .cfa: x29 32 + x19: .cfa -16 + ^ .ra: .cfa -24 + ^ x29: .cfa -32 + ^
STACK CFI 1b10c .cfa: sp 32 +
STACK CFI 1b114 .cfa: sp 0 +
STACK CFI 1b118 .cfa: x29 32 +
STACK CFI 1b12c .cfa: sp 32 +
STACK CFI 1b134 .cfa: sp 0 +
STACK CFI INIT 1b138 104 .cfa: sp 0 +
STACK CFI 1b13c .cfa: sp 64 +
STACK CFI 1b14c .cfa: x29 64 + x19: .cfa -8 + ^ x20: .cfa -16 + ^ x21: .cfa -24 + ^ x22: .cfa -32 + ^ x23: .cfa -48 + ^ .ra: .cfa -56 + ^ x29: .cfa -64 + ^
STACK CFI 1b1a8 .cfa: sp 64 +
STACK CFI 1b1b8 .cfa: sp 0 +
STACK CFI 1b1bc .cfa: x29 64 +
STACK CFI 1b1d8 .cfa: sp 64 +
STACK CFI 1b1e8 .cfa: sp 0 +
STACK CFI 1b1ec .cfa: x29 64 +
STACK CFI 1b228 .cfa: sp 64 +
STACK CFI 1b238 .cfa: sp 0 +
STACK CFI INIT 1b28c 30 .cfa: sp 0 +
STACK CFI 1b290 .cfa: sp 32 +
STACK CFI 1b298 .cfa: x29 32 + x19: .cfa -16 + ^ .ra: .cfa -24 + ^ x29: .cfa -32 + ^
STACK CFI 1b2b0 .cfa: sp 32 +
STACK CFI 1b2b8 .cfa: sp 0 +
STACK CFI INIT 1b2bc 178 .cfa: sp 0 +
STACK CFI 1b2c0 .cfa: sp 80 +
STACK CFI 1b2d4 .cfa: x29 80 + x19: .cfa -8 + ^ x20: .cfa -16 + ^ x21: .cfa -24 + ^ x22: .cfa -32 + ^ x23: .cfa -40 + ^ x24: .cfa -48 + ^ x25: .cfa -56 + ^ x26: .cfa -64 + ^ .ra: .cfa -72 + ^ x29: .cfa -80 + ^
STACK CFI 1b41c .cfa: sp 80 +
STACK CFI 1b430 .cfa: sp 0 +
STACK CFI INIT 1b434 1b0 .cfa: sp 0 +
STACK CFI INIT 1b944 4 .cfa: sp 0 +
STACK CFI INIT 1d1c0 4 .cfa: sp 0 +
STACK CFI INIT 1d1c4 14 .cfa: sp 0 +
STACK CFI 1d1c8 .cfa: sp 16 +
STACK CFI 1d1cc .cfa: x29 16 + .ra: .cfa -8 + ^ x29: .cfa -16 + ^
STACK CFI INIT 1d1d8 14 .cfa: sp 0 +
STACK CFI 1d1dc .cfa: sp 16 +
STACK CFI 1d1e0 .cfa: x29 16 + .ra: .cfa -8 + ^ x29: .cfa -16 + ^
STACK CFI INIT 1d1ec 14 .cfa: sp 0 +
STACK CFI 1d1f0 .cfa: sp 16 +
STACK CFI 1d1f4 .cfa: x29 16 + .ra: .cfa -8 + ^ x29: .cfa -16 + ^
STACK CFI INIT 1d200 14 .cfa: sp 0 +
STACK CFI 1d204 .cfa: sp 16 +
STACK CFI 1d208 .cfa: x29 16 + .ra: .cfa -8 + ^ x29: .cfa -16 + ^
STACK CFI INIT 1d214 4 .cfa: sp 0 +
STACK CFI INIT 1d218 4 .cfa: sp 0 +
STACK CFI INIT 1d21c 38 .cfa: sp 0 +
STACK CFI 1d220 .cfa: sp 32 +
STACK CFI 1d228 .cfa: x29 32 + x19: .cfa -16 + ^ .ra: .cfa -24 + ^ x29: .cfa -32 + ^
STACK CFI 1d248 .cfa: sp 32 +
STACK CFI 1d250 .cfa: sp 0 +
STACK CFI INIT 1d254 18 .cfa: sp 0 +
STACK CFI INIT 1d26c 4 .cfa: sp 0 +
STACK CFI INIT 1d270 4 .cfa: sp 0 +
STACK CFI INIT 1d274 10 .cfa: sp 0 +
STACK CFI INIT 1d284 1c .cfa: sp 0 +
STACK CFI INIT 1d2a0 c .cfa: sp 0 +
STACK CFI INIT 1d634 4 .cfa: sp 0 +
STACK CFI INIT 1d638 ec .cfa: sp 0 +
STACK CFI 1d63c .cfa: sp 96 +
STACK CFI 1d64c .cfa: x29 48 + x19: .cfa -8 + ^ x20: .cfa -16 + ^ x21: .cfa -24 + ^ x22: .cfa -32 + ^ .ra: .cfa -40 + ^ x29: .cfa -48 + ^
STACK CFI 1d69c .cfa: sp 96 +
STACK CFI 1d6ac .cfa: sp 0 +
STACK CFI 1d6b0 .cfa: x29 48 +
STACK CFI INIT 1dcd8 1c .cfa: sp 0 +
STACK CFI INIT 1e024 4 .cfa: sp 0 +
STACK CFI INIT 1e028 e0 .cfa: sp 0 +
STACK CFI 1e02c .cfa: sp 48 +
STACK CFI 1e038 .cfa: x29 48 + x19: .cfa -8 + ^ x20: .cfa -16 + ^ x21: .cfa -32 + ^ .ra: .cfa -40 + ^ x29: .cfa -48 + ^
STACK CFI 1e0c8 .cfa: sp 48 +
STACK CFI 1e0d4 .cfa: sp 0 +
STACK CFI 1e0d8 .cfa: x29 48 +
STACK CFI 1e0f8 .cfa: sp 48 +
STACK CFI 1e104 .cfa: sp 0 +
STACK CFI INIT 1e1b0 8c .cfa: sp 0 +
STACK CFI 1e1b4 .cfa: sp 32 +
STACK CFI 1e1bc .cfa: x29 32 + x19: .cfa -16 + ^ .ra: .cfa -24 + ^ x29: .cfa -32 + ^
STACK CFI 1e230 .cfa: sp 32 +
STACK CFI 1e238 .cfa: sp 0 +
STACK CFI INIT 1e23c 3c .cfa: sp 0 +
STACK CFI 1e240 .cfa: sp 32 +
STACK CFI 1e248 .cfa: x29 32 + x19: .cfa -16 + ^ .ra: .cfa -24 + ^ x29: .cfa -32 + ^
STACK CFI 1e254 .cfa: sp 32 +
STACK CFI 1e25c .cfa: sp 0 +
STACK CFI 1e260 .cfa: x29 32 +
STACK CFI 1e26c .cfa: sp 32 +
STACK CFI 1e274 .cfa: sp 0 +
STACK CFI INIT 1e278 3c .cfa: sp 0 +
STACK CFI 1e27c .cfa: sp 32 +
STACK CFI 1e284 .cfa: x29 32 + x19: .cfa -16 + ^ .ra: .cfa -24 + ^ x29: .cfa -32 + ^
STACK CFI 1e290 .cfa: sp 32 +
STACK CFI 1e298 .cfa: sp 0 +
STACK CFI 1e29c .cfa: x29 32 +
STACK CFI 1e2a8 .cfa: sp 32 +
STACK CFI 1e2b0 .cfa: sp 0 +
STACK CFI INIT 1e2b4 4c .cfa: sp 0 +
STACK CFI 1e2b8 .cfa: sp 32 +
STACK CFI 1e2c0 .cfa: x29 32 + x19: .cfa -8 + ^ x20: .cfa -16 + ^ .ra: .cfa -24 + ^ x29: .cfa -32 + ^
STACK CFI 1e2e8 .cfa: sp 32 +
STACK CFI 1e2f0 .cfa: sp 0 +
STACK CFI 1e2f4 .cfa: sp 32 +
STACK CFI 1e2fc .cfa: sp 0 +
STACK CFI INIT 1e520 64 .cfa: sp 0 +
STACK CFI 1e524 .cfa: sp 32 +
STACK CFI 1e52c .cfa: x29 32 + x19: .cfa -16 + ^ .ra: .cfa -24 + ^ x29: .cfa -32 + ^
STACK CFI 1e558 .cfa: sp 32 +
STACK CFI 1e560 .cfa: sp 0 +
STACK CFI 1e564 .cfa: x29 32 +
STACK CFI 1e578 .cfa: sp 32 +
STACK CFI 1e580 .cfa: sp 0 +
STACK CFI INIT 1e584 24 .cfa: sp 0 +
STACK CFI 1e588 .cfa: sp 32 +
STACK CFI 1e590 .cfa: x29 32 + x19: .cfa -16 + ^ .ra: .cfa -24 + ^ x29: .cfa -32 + ^
STACK CFI 1e59c .cfa: sp 32 +
STACK CFI 1e5a4 .cfa: sp 0 +
STACK CFI INIT 1e5a8 24 .cfa: sp 0 +
STACK CFI 1e5ac .cfa: sp 32 +
STACK CFI 1e5b4 .cfa: x29 32 + x19: .cfa -16 + ^ .ra: .cfa -24 + ^ x29: .cfa -32 + ^
STACK CFI 1e5c0 .cfa: sp 32 +
STACK CFI 1e5c8 .cfa: sp 0 +
STACK CFI INIT 1e5cc 8 .cfa: sp 0 +
STACK CFI INIT 1e5d4 24 .cfa: sp 0 +
STACK CFI 1e5d8 .cfa: sp 32 +
STACK CFI 1e5e0 .cfa: x29 32 + x19: .cfa -16 + ^ .ra: .cfa -24 + ^ x29: .cfa -32 + ^
STACK CFI 1e5ec .cfa: sp 32 +
STACK CFI 1e5f4 .cfa: sp 0 +
STACK CFI INIT 1e5f8 28 .cfa: sp 0 +
STACK CFI 1e5fc .cfa: sp 32 +
STACK CFI 1e604 .cfa: x29 32 + x19: .cfa -16 + ^ .ra: .cfa -24 + ^ x29: .cfa -32 + ^
STACK CFI 1e614 .cfa: sp 32 +
STACK CFI 1e61c .cfa: sp 0 +
STACK CFI INIT 1f5b4 8 .cfa: sp 0 +
STACK CFI INIT 1f5bc 24 .cfa: sp 0 +
STACK CFI 1f5c0 .cfa: sp 32 +
STACK CFI 1f5c8 .cfa: x29 32 + x19: .cfa -16 + ^ .ra: .cfa -24 + ^ x29: .cfa -32 + ^
STACK CFI 1f5d4 .cfa: sp 32 +
STACK CFI 1f5dc .cfa: sp 0 +
STACK CFI INIT 1f5e0 28 .cfa: sp 0 +
STACK CFI 1f5e4 .cfa: sp 32 +
STACK CFI 1f5ec .cfa: x29 32 + x19: .cfa -16 + ^ .ra: .cfa -24 + ^ x29: .cfa -32 + ^
STACK CFI 1f5fc .cfa: sp 32 +
STACK CFI 1f604 .cfa: sp 0 +
STACK CFI INIT 1f8e8 8 .cfa: sp 0 +
STACK CFI INIT 1fbe4 8 .cfa: sp 0 +
STACK CFI INIT 1fe54 8 .cfa: sp 0 +
STACK CFI INIT 200a8 4 .cfa: sp 0 +
STACK CFI INIT 200ac 8 .cfa: sp 0 +
STACK CFI INIT 200b4 8 .cfa: sp 0 +
STACK CFI INIT 200bc 4 .cfa: sp 0 +
STACK CFI INIT 208c8 8 .cfa: sp 0 +
STACK CFI INIT 208d0 4 .cfa: sp 0 +
STACK CFI INIT 208d4 4 .cfa: sp 0 +
STACK CFI INIT 208d8 4 .cfa: sp 0 +
STACK CFI INIT 208dc 4 .cfa: sp 0 +
STACK CFI INIT 208e0 4 .cfa: sp 0 +
STACK CFI INIT 215ac 4 .cfa: sp 0 +
STACK CFI INIT 215b0 14 .cfa: sp 0 +
STACK CFI INIT 14100 43c .cfa: sp 0 +
STACK CFI 14104 .cfa: sp 224 +
STACK CFI 14120 .cfa: x29 96 + x19: .cfa -8 + ^ x20: .cfa -16 + ^ x21: .cfa -24 + ^ x22: .cfa -32 + ^ x23: .cfa -40 + ^ x24: .cfa -48 + ^ x25: .cfa -56 + ^ x26: .cfa -64 + ^ x27: .cfa -72 + ^ x28: .cfa -80 + ^ .ra: .cfa -88 + ^ x29: .cfa -96 + ^
STACK CFI 14434 .cfa: sp 224 +
STACK CFI 14450 .cfa: sp 0 +
STACK CFI 14454 .cfa: x29 96 +
STACK CFI INIT 1453c 43c .cfa: sp 0 +
STACK CFI 14540 .cfa: sp 224 +
STACK CFI 1455c .cfa: x29 96 + x19: .cfa -8 + ^ x20: .cfa -16 + ^ x21: .cfa -24 + ^ x22: .cfa -32 + ^ x23: .cfa -40 + ^ x24: .cfa -48 + ^ x25: .cfa -56 + ^ x26: .cfa -64 + ^ x27: .cfa -72 + ^ x28: .cfa -80 + ^ .ra: .cfa -88 + ^ x29: .cfa -96 + ^
STACK CFI 14870 .cfa: sp 224 +
STACK CFI 1488c .cfa: sp 0 +
STACK CFI 14890 .cfa: x29 96 +
STACK CFI INIT 14978 43c .cfa: sp 0 +
STACK CFI 1497c .cfa: sp 224 +
STACK CFI 14998 .cfa: x29 96 + x19: .cfa -8 + ^ x20: .cfa -16 + ^ x21: .cfa -24 + ^ x22: .cfa -32 + ^ x23: .cfa -40 + ^ x24: .cfa -48 + ^ x25: .cfa -56 + ^ x26: .cfa -64 + ^ x27: .cfa -72 + ^ x28: .cfa -80 + ^ .ra: .cfa -88 + ^ x29: .cfa -96 + ^
STACK CFI 14cac .cfa: sp 224 +
STACK CFI 14cc8 .cfa: sp 0 +
STACK CFI 14ccc .cfa: x29 96 +
STACK CFI INIT 14e08 378 .cfa: sp 0 +
STACK CFI 14e0c .cfa: sp 224 +
STACK CFI 14e20 .cfa: x29 64 + x19: .cfa -8 + ^ x20: .cfa -16 + ^ x21: .cfa -24 + ^ x22: .cfa -32 + ^ x23: .cfa -40 + ^ x24: .cfa -48 + ^ .ra: .cfa -56 + ^ x29: .cfa -64 + ^
STACK CFI 1505c .cfa: sp 224 +
STACK CFI 15070 .cfa: sp 0 +
STACK CFI 15074 .cfa: x29 64 +
STACK CFI INIT 151d0 74 .cfa: sp 0 +
STACK CFI 151d4 .cfa: sp 48 +
STACK CFI 151e0 .cfa: x29 32 + x19: .cfa -8 + ^ x20: .cfa -16 + ^ .ra: .cfa -24 + ^ x29: .cfa -32 + ^
STACK CFI 1522c .cfa: sp 48 +
STACK CFI 15238 .cfa: sp 0 +
STACK CFI 1523c .cfa: x29 32 +
STACK CFI INIT 152d4 154 .cfa: sp 0 +
STACK CFI 152d8 .cfa: sp 384 +
STACK CFI 152ec .cfa: x29 64 + x19: .cfa -8 + ^ x20: .cfa -16 + ^ x21: .cfa -24 + ^ x22: .cfa -32 + ^ x23: .cfa -40 + ^ x28: .cfa -48 + ^ .ra: .cfa -56 + ^ x29: .cfa -64 + ^
STACK CFI 153d0 .cfa: sp 384 +
STACK CFI 153e4 .cfa: sp 0 +
STACK CFI 153e8 .cfa: x29 64 +
STACK CFI INIT 1545c 12c .cfa: sp 0 +
STACK CFI 15460 .cfa: sp 80 +
STACK CFI 15474 .cfa: x29 80 + x19: .cfa -8 + ^ x20: .cfa -16 + ^ x21: .cfa -24 + ^ x22: .cfa -32 + ^ x23: .cfa -40 + ^ x24: .cfa -48 + ^ x25: .cfa -56 + ^ x26: .cfa -64 + ^ .ra: .cfa -72 + ^ x29: .cfa -80 + ^
STACK CFI 1553c .cfa: sp 80 +
STACK CFI 15550 .cfa: sp 0 +
STACK CFI 15554 .cfa: x29 80 +
STACK CFI INIT 1562c 1a4 .cfa: sp 0 +
STACK CFI 15630 .cfa: sp 112 +
STACK CFI 15648 .cfa: x29 80 + x19: .cfa -8 + ^ x20: .cfa -16 + ^ x21: .cfa -24 + ^ x22: .cfa -32 + ^ x23: .cfa -40 + ^ x24: .cfa -48 + ^ x25: .cfa -56 + ^ x26: .cfa -64 + ^ .ra: .cfa -72 + ^ x29: .cfa -80 + ^
STACK CFI 15738 .cfa: sp 112 +
STACK CFI 15750 .cfa: sp 0 +
STACK CFI 15754 .cfa: x29 80 +
STACK CFI INIT 157d0 1dc .cfa: sp 0 +
STACK CFI 157d4 .cfa: sp 128 +
STACK CFI 157f0 .cfa: x29 96 + x19: .cfa -8 + ^ x20: .cfa -16 + ^ x21: .cfa -24 + ^ x22: .cfa -32 + ^ x23: .cfa -40 + ^ x24: .cfa -48 + ^ x25: .cfa -56 + ^ x26: .cfa -64 + ^ x27: .cfa -80 + ^ .ra: .cfa -88 + ^ x29: .cfa -96 + ^
STACK CFI 1595c .cfa: sp 128 +
STACK CFI 15978 .cfa: sp 0 +
STACK CFI 1597c .cfa: x29 96 +
STACK CFI INIT 159c0 50 .cfa: sp 0 +
STACK CFI 159c4 .cfa: sp 32 +
STACK CFI 159cc .cfa: x29 32 + x19: .cfa -8 + ^ x20: .cfa -16 + ^ .ra: .cfa -24 + ^ x29: .cfa -32 + ^
STACK CFI INIT 15a74 178 .cfa: sp 0 +
STACK CFI 15a78 .cfa: sp 80 +
STACK CFI 15a8c .cfa: x29 80 + x19: .cfa -8 + ^ x20: .cfa -16 + ^ x21: .cfa -24 + ^ x22: .cfa -32 + ^ x23: .cfa -40 + ^ x24: .cfa -48 + ^ x25: .cfa -64 + ^ .ra: .cfa -72 + ^ x29: .cfa -80 + ^
STACK CFI 15bb8 .cfa: sp 80 +
STACK CFI 15bcc .cfa: sp 0 +
STACK CFI 15bd0 .cfa: x29 80 +
STACK CFI INIT 15d34 228 .cfa: sp 0 +
STACK CFI 15d38 .cfa: sp 128 +
STACK CFI 15d50 .cfa: x29 80 + x19: .cfa -8 + ^ x20: .cfa -16 + ^ x21: .cfa -24 + ^ x22: .cfa -32 + ^ x23: .cfa -40 + ^ x24: .cfa -48 + ^ x25: .cfa -64 + ^ .ra: .cfa -72 + ^ x29: .cfa -80 + ^
STACK CFI 15eec .cfa: sp 128 +
STACK CFI 15f04 .cfa: sp 0 +
STACK CFI 15f08 .cfa: x29 80 +
STACK CFI INIT 166b8 1bac .cfa: sp 0 +
STACK CFI 166bc .cfa: sp 80 +
STACK CFI 166d0 .cfa: x29 80 + x19: .cfa -8 + ^ x20: .cfa -16 + ^ x21: .cfa -24 + ^ x22: .cfa -32 + ^ x23: .cfa -40 + ^ x24: .cfa -48 + ^ x25: .cfa -56 + ^ x28: .cfa -64 + ^ .ra: .cfa -72 + ^ x29: .cfa -80 + ^
STACK CFI 17a94 .cfa: sp 80 +
STACK CFI 17aa8 .cfa: sp 0 +
STACK CFI 17aac .cfa: x29 80 +
STACK CFI INIT 18264 c8 .cfa: sp 0 +
STACK CFI 18268 .cfa: sp 32 +
STACK CFI 18270 .cfa: x29 32 + x19: .cfa -8 + ^ x20: .cfa -16 + ^ .ra: .cfa -24 + ^ x29: .cfa -32 + ^
STACK CFI 182a4 .cfa: sp 32 +
STACK CFI 182ac .cfa: sp 0 +
STACK CFI 182b0 .cfa: x29 32 +
STACK CFI 182b4 .cfa: sp 32 +
STACK CFI 182bc .cfa: sp 0 +
STACK CFI 182c0 .cfa: x29 32 +
STACK CFI INIT 1832c 7b0 .cfa: sp 0 +
STACK CFI 18330 .cfa: sp 80 +
STACK CFI 18344 .cfa: x29 80 + x19: .cfa -8 + ^ x20: .cfa -16 + ^ x21: .cfa -24 + ^ x22: .cfa -32 + ^ x23: .cfa -40 + ^ x24: .cfa -48 + ^ x25: .cfa -56 + ^ x26: .cfa -64 + ^ .ra: .cfa -72 + ^ x29: .cfa -80 + ^
STACK CFI 18760 .cfa: sp 80 +
STACK CFI 18774 .cfa: sp 0 +
STACK CFI 18778 .cfa: x29 80 +
STACK CFI INIT 18adc 578 .cfa: sp 0 +
STACK CFI 18ae0 .cfa: sp 96 +
STACK CFI 18af4 .cfa: x29 64 + x19: .cfa -8 + ^ x20: .cfa -16 + ^ x21: .cfa -24 + ^ x22: .cfa -32 + ^ x23: .cfa -48 + ^ .ra: .cfa -56 + ^ x29: .cfa -64 + ^
STACK CFI 18e94 .cfa: sp 96 +
STACK CFI 18ea8 .cfa: sp 0 +
STACK CFI 18eac .cfa: x29 64 +
STACK CFI INIT 191c8 1c .cfa: sp 0 +
STACK CFI 191cc .cfa: sp 16 +
STACK CFI 191d0 .cfa: x29 16 + .ra: .cfa -8 + ^ x29: .cfa -16 + ^
STACK CFI 191d8 .cfa: sp 16 +
STACK CFI 191dc .cfa: sp 0 +
STACK CFI 191e0 .cfa: x29 16 +
STACK CFI INIT 194f0 3f8 .cfa: sp 0 +
STACK CFI 194f4 .cfa: sp 48 +
STACK CFI 19500 .cfa: x29 48 + x19: .cfa -8 + ^ x20: .cfa -16 + ^ x21: .cfa -24 + ^ x22: .cfa -32 + ^ .ra: .cfa -40 + ^ x29: .cfa -48 + ^
STACK CFI 19868 .cfa: sp 48 +
STACK CFI 19874 .cfa: sp 0 +
STACK CFI 19878 .cfa: x29 48 +
STACK CFI 198c8 .cfa: sp 48 +
STACK CFI 198d4 .cfa: sp 0 +
STACK CFI 198d8 .cfa: x29 48 +
STACK CFI INIT 19960 1c .cfa: sp 0 +
STACK CFI 19964 .cfa: sp 16 +
STACK CFI 19968 .cfa: x29 16 + .ra: .cfa -8 + ^ x29: .cfa -16 + ^
STACK CFI 19970 .cfa: sp 16 +
STACK CFI 19974 .cfa: sp 0 +
STACK CFI 19978 .cfa: x29 16 +
STACK CFI INIT 19a0c 98 .cfa: sp 0 +
STACK CFI 19a10 .cfa: sp 48 +
STACK CFI 19a1c .cfa: x29 48 + x19: .cfa -8 + ^ x20: .cfa -16 + ^ x21: .cfa -32 + ^ .ra: .cfa -40 + ^ x29: .cfa -48 + ^
STACK CFI 19a7c .cfa: sp 48 +
STACK CFI 19a88 .cfa: sp 0 +
STACK CFI 19a8c .cfa: sp 48 +
STACK CFI 19a98 .cfa: sp 0 +
STACK CFI 19a9c .cfa: x29 48 +
STACK CFI INIT 19ae0 1c .cfa: sp 0 +
STACK CFI 19ae4 .cfa: sp 16 +
STACK CFI 19ae8 .cfa: x29 16 + .ra: .cfa -8 + ^ x29: .cfa -16 + ^
STACK CFI 19af0 .cfa: sp 16 +
STACK CFI 19af4 .cfa: sp 0 +
STACK CFI 19af8 .cfa: x29 16 +
STACK CFI INIT 19afc 1c .cfa: sp 0 +
STACK CFI 19b00 .cfa: sp 16 +
STACK CFI 19b04 .cfa: x29 16 + .ra: .cfa -8 + ^ x29: .cfa -16 + ^
STACK CFI 19b0c .cfa: sp 16 +
STACK CFI 19b10 .cfa: sp 0 +
STACK CFI 19b14 .cfa: x29 16 +
STACK CFI INIT 19cf8 1cc .cfa: sp 0 +
STACK CFI 19cfc .cfa: sp 160 +
STACK CFI 19d14 .cfa: x29 80 + x19: .cfa -8 + ^ x20: .cfa -16 + ^ x21: .cfa -24 + ^ x22: .cfa -32 + ^ x23: .cfa -40 + ^ x24: .cfa -48 + ^ x25: .cfa -56 + ^ x26: .cfa -64 + ^ .ra: .cfa -72 + ^ x29: .cfa -80 + ^
STACK CFI 19e70 .cfa: sp 160 +
STACK CFI 19e88 .cfa: sp 0 +
STACK CFI 19e8c .cfa: x29 80 +
STACK CFI INIT 1a27c 1a0 .cfa: sp 0 +
STACK CFI 1a280 .cfa: sp 64 +
STACK CFI 1a290 .cfa: x29 64 + x19: .cfa -8 + ^ x20: .cfa -16 + ^ x21: .cfa -24 + ^ x22: .cfa -32 + ^ x23: .cfa -48 + ^ .ra: .cfa -56 + ^ x29: .cfa -64 + ^
STACK CFI 1a354 .cfa: sp 64 +
STACK CFI 1a364 .cfa: sp 0 +
STACK CFI 1a368 .cfa: x29 64 +
STACK CFI INIT 1aa50 a8 .cfa: sp 0 +
STACK CFI 1aa54 .cfa: sp 64 +
STACK CFI 1aa64 .cfa: x29 64 + x19: .cfa -8 + ^ x20: .cfa -16 + ^ x21: .cfa -24 + ^ x22: .cfa -32 + ^ x23: .cfa -40 + ^ x24: .cfa -48 + ^ .ra: .cfa -56 + ^ x29: .cfa -64 + ^
STACK CFI 1aa88 .cfa: sp 64 +
STACK CFI 1aa98 .cfa: sp 0 +
STACK CFI 1aa9c .cfa: x29 64 +
STACK CFI INIT 1acfc 194 .cfa: sp 0 +
STACK CFI 1ad00 .cfa: sp 96 +
STACK CFI 1ad14 .cfa: x29 64 + x19: .cfa -8 + ^ x20: .cfa -16 + ^ x21: .cfa -24 + ^ x22: .cfa -32 + ^ x23: .cfa -48 + ^ .ra: .cfa -56 + ^ x29: .cfa -64 + ^
STACK CFI 1ae0c .cfa: sp 96 +
STACK CFI 1ae20 .cfa: sp 0 +
STACK CFI 1ae24 .cfa: x29 64 +
STACK CFI INIT 1ae90 258 .cfa: sp 0 +
STACK CFI 1ae94 .cfa: sp 192 +
STACK CFI 1aea8 .cfa: x29 64 + x19: .cfa -8 + ^ x20: .cfa -16 + ^ x21: .cfa -24 + ^ x22: .cfa -32 + ^ x23: .cfa -48 + ^ .ra: .cfa -56 + ^ x29: .cfa -64 + ^
STACK CFI 1aff4 .cfa: sp 192 +
STACK CFI 1b008 .cfa: sp 0 +
STACK CFI 1b00c .cfa: x29 64 +
STACK CFI INIT 1b23c 50 .cfa: sp 0 +
STACK CFI 1b240 .cfa: sp 32 +
STACK CFI 1b248 .cfa: x29 32 + x19: .cfa -8 + ^ x20: .cfa -16 + ^ .ra: .cfa -24 + ^ x29: .cfa -32 + ^
STACK CFI INIT 1b5e4 360 .cfa: sp 0 +
STACK CFI 1b5e8 .cfa: sp 208 +
STACK CFI 1b600 .cfa: x29 80 + x19: .cfa -8 + ^ x20: .cfa -16 + ^ x21: .cfa -24 + ^ x22: .cfa -32 + ^ x23: .cfa -40 + ^ x24: .cfa -48 + ^ x25: .cfa -64 + ^ .ra: .cfa -72 + ^ x29: .cfa -80 + ^
STACK CFI 1b81c .cfa: sp 208 +
STACK CFI 1b834 .cfa: sp 0 +
STACK CFI 1b838 .cfa: x29 80 +
STACK CFI INIT 1b948 dc8 .cfa: sp 0 +
STACK CFI 1b94c .cfa: sp 64 +
STACK CFI 1b95c .cfa: x29 64 + x19: .cfa -8 + ^ x20: .cfa -16 + ^ x21: .cfa -24 + ^ x22: .cfa -32 + ^ x23: .cfa -40 + ^ x28: .cfa -48 + ^ .ra: .cfa -56 + ^ x29: .cfa -64 + ^
STACK CFI 1c330 .cfa: sp 64 +
STACK CFI 1c340 .cfa: sp 0 +
STACK CFI 1c344 .cfa: x29 64 +
STACK CFI INIT 1c710 478 .cfa: sp 0 +
STACK CFI 1c714 .cfa: sp 128 +
STACK CFI 1c72c .cfa: x29 48 + x19: .cfa -8 + ^ x20: .cfa -16 + ^ x21: .cfa -24 + ^ x22: .cfa -32 + ^ .ra: .cfa -40 + ^ x29: .cfa -48 + ^ v8: .cfa -56 + ^ v9: .cfa -64 + ^ v10: .cfa -80 + ^
STACK CFI 1cab4 .cfa: sp 128 +
STACK CFI 1cacc .cfa: sp 0 +
STACK CFI 1cad0 .cfa: x29 48 +
STACK CFI INIT 1cb88 638 .cfa: sp 0 +
STACK CFI 1cb8c .cfa: sp 176 +
STACK CFI 1cba8 .cfa: x29 96 + x19: .cfa -8 + ^ x20: .cfa -16 + ^ x21: .cfa -24 + ^ x22: .cfa -32 + ^ x23: .cfa -40 + ^ x24: .cfa -48 + ^ x25: .cfa -56 + ^ x26: .cfa -64 + ^ x27: .cfa -72 + ^ x28: .cfa -80 + ^ .ra: .cfa -88 + ^ x29: .cfa -96 + ^
STACK CFI 1d058 .cfa: sp 176 +
STACK CFI 1d074 .cfa: sp 0 +
STACK CFI 1d078 .cfa: x29 96 +
STACK CFI INIT 1d2ac 388 .cfa: sp 0 +
STACK CFI 1d2b0 .cfa: sp 256 +
STACK CFI 1d2c4 .cfa: x29 64 + x19: .cfa -8 + ^ x20: .cfa -16 + ^ x21: .cfa -24 + ^ x22: .cfa -32 + ^ x23: .cfa -48 + ^ .ra: .cfa -56 + ^ x29: .cfa -64 + ^
STACK CFI 1d508 .cfa: sp 256 +
STACK CFI 1d51c .cfa: sp 0 +
STACK CFI 1d520 .cfa: x29 64 +
STACK CFI INIT 1d724 134 .cfa: sp 0 +
STACK CFI 1d728 .cfa: sp 80 +
STACK CFI 1d738 .cfa: x29 48 + x19: .cfa -8 + ^ x20: .cfa -16 + ^ x21: .cfa -24 + ^ x22: .cfa -32 + ^ .ra: .cfa -40 + ^ x29: .cfa -48 + ^
STACK CFI 1d83c .cfa: sp 80 +
STACK CFI 1d84c .cfa: sp 0 +
STACK CFI 1d850 .cfa: x29 48 +
STACK CFI INIT 1d858 480 .cfa: sp 0 +
STACK CFI 1d85c .cfa: sp 224 +
STACK CFI 1d878 .cfa: x29 96 + x19: .cfa -8 + ^ x20: .cfa -16 + ^ x21: .cfa -24 + ^ x22: .cfa -32 + ^ x23: .cfa -40 + ^ x24: .cfa -48 + ^ x25: .cfa -56 + ^ x26: .cfa -64 + ^ x27: .cfa -80 + ^ .ra: .cfa -88 + ^ x29: .cfa -96 + ^
STACK CFI 1dae4 .cfa: sp 224 +
STACK CFI 1db00 .cfa: sp 0 +
STACK CFI 1db04 .cfa: x29 96 +
STACK CFI 1dbd0 .cfa: sp 224 +
STACK CFI 1dbec .cfa: sp 0 +
STACK CFI 1dbf0 .cfa: x29 96 +
STACK CFI INIT 1dcf4 330 .cfa: sp 0 +
STACK CFI 1dcf8 .cfa: sp 224 +
STACK CFI 1dd0c .cfa: x29 64 + x19: .cfa -8 + ^ x20: .cfa -16 + ^ x21: .cfa -24 + ^ x22: .cfa -32 + ^ x23: .cfa -48 + ^ .ra: .cfa -56 + ^ x29: .cfa -64 + ^
STACK CFI 1df14 .cfa: sp 224 +
STACK CFI 1df28 .cfa: sp 0 +
STACK CFI 1df2c .cfa: x29 64 +
STACK CFI INIT 1e108 a8 .cfa: sp 0 +
STACK CFI 1e10c .cfa: sp 32 +
STACK CFI 1e114 .cfa: x29 32 + x19: .cfa -16 + ^ .ra: .cfa -24 + ^ x29: .cfa -32 + ^
STACK CFI 1e148 .cfa: sp 32 +
STACK CFI 1e150 .cfa: sp 0 +
STACK CFI 1e154 .cfa: x29 32 +
STACK CFI 1e158 .cfa: sp 32 +
STACK CFI 1e160 .cfa: sp 0 +
STACK CFI 1e164 .cfa: x29 32 +
STACK CFI INIT 1e300 134 .cfa: sp 0 +
STACK CFI 1e304 .cfa: sp 80 +
STACK CFI 1e310 .cfa: x29 32 + x19: .cfa -8 + ^ x20: .cfa -16 + ^ .ra: .cfa -24 + ^ x29: .cfa -32 + ^
STACK CFI 1e340 .cfa: sp 80 +
STACK CFI 1e34c .cfa: sp 0 +
STACK CFI 1e350 .cfa: x29 32 +
STACK CFI INIT 1e434 78 .cfa: sp 0 +
STACK CFI 1e438 .cfa: sp 32 +
STACK CFI 1e440 .cfa: x29 32 + x19: .cfa -8 + ^ x20: .cfa -16 + ^ .ra: .cfa -24 + ^ x29: .cfa -32 + ^
STACK CFI 1e44c .cfa: sp 32 +
STACK CFI 1e454 .cfa: sp 0 +
STACK CFI 1e458 .cfa: x29 32 +
STACK CFI INIT 1e4ac 74 .cfa: sp 0 +
STACK CFI 1e4b0 .cfa: sp 48 +
STACK CFI 1e4bc .cfa: x29 32 + x19: .cfa -8 + ^ x20: .cfa -16 + ^ .ra: .cfa -24 + ^ x29: .cfa -32 + ^
STACK CFI 1e508 .cfa: sp 48 +
STACK CFI 1e514 .cfa: sp 0 +
STACK CFI 1e518 .cfa: x29 32 +
STACK CFI INIT 1e620 f94 .cfa: sp 0 +
STACK CFI 1e624 .cfa: sp 160 +
STACK CFI 1e640 .cfa: x29 96 + x19: .cfa -8 + ^ x20: .cfa -16 + ^ x21: .cfa -24 + ^ x22: .cfa -32 + ^ x23: .cfa -40 + ^ x24: .cfa -48 + ^ x25: .cfa -56 + ^ x26: .cfa -64 + ^ x27: .cfa -72 + ^ x28: .cfa -80 + ^ .ra: .cfa -88 + ^ x29: .cfa -96 + ^
STACK CFI 1f084 .cfa: sp 160 +
STACK CFI 1f0a0 .cfa: sp 0 +
STACK CFI 1f0a4 .cfa: x29 96 +
STACK CFI INIT 1f608 16c .cfa: sp 0 +
STACK CFI 1f60c .cfa: sp 160 +
STACK CFI 1f624 .cfa: x29 80 + x19: .cfa -8 + ^ x20: .cfa -16 + ^ x21: .cfa -24 + ^ x22: .cfa -32 + ^ x23: .cfa -40 + ^ x24: .cfa -48 + ^ x25: .cfa -56 + ^ x26: .cfa -64 + ^ .ra: .cfa -72 + ^ x29: .cfa -80 + ^
STACK CFI 1f68c .cfa: sp 160 +
STACK CFI 1f6a4 .cfa: sp 0 +
STACK CFI 1f6a8 .cfa: x29 80 +
STACK CFI INIT 1f774 174 .cfa: sp 0 +
STACK CFI 1f778 .cfa: sp 96 +
STACK CFI 1f788 .cfa: x29 48 + x19: .cfa -8 + ^ x20: .cfa -16 + ^ x21: .cfa -24 + ^ x22: .cfa -32 + ^ .ra: .cfa -40 + ^ x29: .cfa -48 + ^
STACK CFI 1f888 .cfa: sp 96 +
STACK CFI 1f898 .cfa: sp 0 +
STACK CFI 1f89c .cfa: x29 48 +
STACK CFI INIT 1f8f0 17c .cfa: sp 0 +
STACK CFI 1f8f4 .cfa: sp 176 +
STACK CFI 1f910 .cfa: x29 80 + x19: .cfa -8 + ^ x20: .cfa -16 + ^ x21: .cfa -24 + ^ x22: .cfa -32 + ^ x23: .cfa -40 + ^ x24: .cfa -48 + ^ x25: .cfa -56 + ^ x26: .cfa -64 + ^ .ra: .cfa -72 + ^ x29: .cfa -80 + ^ v8: .cfa -96 + ^
STACK CFI 1f980 .cfa: sp 176 +
STACK CFI 1f99c .cfa: sp 0 +
STACK CFI 1f9a0 .cfa: x29 80 +
STACK CFI INIT 1fa6c 178 .cfa: sp 0 +
STACK CFI 1fa70 .cfa: sp 96 +
STACK CFI 1fa80 .cfa: x29 48 + x19: .cfa -8 + ^ x20: .cfa -16 + ^ x21: .cfa -24 + ^ x22: .cfa -32 + ^ .ra: .cfa -40 + ^ x29: .cfa -48 + ^
STACK CFI 1fb84 .cfa: sp 96 +
STACK CFI 1fb94 .cfa: sp 0 +
STACK CFI 1fb98 .cfa: x29 48 +
STACK CFI INIT 1fbec 15c .cfa: sp 0 +
STACK CFI 1fbf0 .cfa: sp 144 +
STACK CFI 1fc08 .cfa: x29 56 + x19: .cfa -8 + ^ x20: .cfa -16 + ^ x21: .cfa -24 + ^ x22: .cfa -32 + ^ x23: .cfa -40 + ^ .ra: .cfa -48 + ^ x29: .cfa -56 + ^ v8: .cfa -64 + ^
STACK CFI 1fc60 .cfa: sp 144 +
STACK CFI 1fc78 .cfa: sp 0 +
STACK CFI 1fc7c .cfa: x29 56 +
STACK CFI INIT 1fd48 10c .cfa: sp 0 +
STACK CFI 1fd4c .cfa: sp 64 +
STACK CFI 1fd5c .cfa: x29 48 + x19: .cfa -8 + ^ x20: .cfa -16 + ^ x21: .cfa -24 + ^ x22: .cfa -32 + ^ .ra: .cfa -40 + ^ x29: .cfa -48 + ^
STACK CFI 1fe0c .cfa: sp 64 +
STACK CFI 1fe1c .cfa: sp 0 +
STACK CFI 1fe20 .cfa: x29 48 +
STACK CFI INIT 1fe5c 14c .cfa: sp 0 +
STACK CFI 1fe60 .cfa: sp 144 +
STACK CFI 1fe74 .cfa: x29 64 + x19: .cfa -8 + ^ x20: .cfa -16 + ^ x21: .cfa -24 + ^ x22: .cfa -32 + ^ x23: .cfa -48 + ^ .ra: .cfa -56 + ^ x29: .cfa -64 + ^
STACK CFI 1fec4 .cfa: sp 144 +
STACK CFI 1fed8 .cfa: sp 0 +
STACK CFI 1fedc .cfa: x29 64 +
STACK CFI INIT 1ffa8 100 .cfa: sp 0 +
STACK CFI 1ffac .cfa: sp 64 +
STACK CFI 1ffbc .cfa: x29 48 + x19: .cfa -8 + ^ x20: .cfa -16 + ^ x21: .cfa -24 + ^ x22: .cfa -32 + ^ .ra: .cfa -40 + ^ x29: .cfa -48 + ^
STACK CFI 20060 .cfa: sp 64 +
STACK CFI 20070 .cfa: sp 0 +
STACK CFI 20074 .cfa: x29 48 +
STACK CFI INIT 200c0 164 .cfa: sp 0 +
STACK CFI 200c4 .cfa: sp 160 +
STACK CFI 200dc .cfa: x29 80 + x19: .cfa -8 + ^ x20: .cfa -16 + ^ x21: .cfa -24 + ^ x22: .cfa -32 + ^ x23: .cfa -40 + ^ x24: .cfa -48 + ^ x25: .cfa -64 + ^ .ra: .cfa -72 + ^ x29: .cfa -80 + ^
STACK CFI 2013c .cfa: sp 160 +
STACK CFI 20154 .cfa: sp 0 +
STACK CFI 20158 .cfa: x29 80 +
STACK CFI INIT 20224 164 .cfa: sp 0 +
STACK CFI 20228 .cfa: sp 64 +
STACK CFI 20238 .cfa: x29 48 + x19: .cfa -8 + ^ x20: .cfa -16 + ^ x21: .cfa -24 + ^ x22: .cfa -32 + ^ .ra: .cfa -40 + ^ x29: .cfa -48 + ^
STACK CFI 20328 .cfa: sp 64 +
STACK CFI 20338 .cfa: sp 0 +
STACK CFI 2033c .cfa: x29 48 +
STACK CFI INIT 20388 17c .cfa: sp 0 +
STACK CFI 2038c .cfa: sp 176 +
STACK CFI 203a8 .cfa: x29 96 + x19: .cfa -8 + ^ x20: .cfa -16 + ^ x21: .cfa -24 + ^ x22: .cfa -32 + ^ x23: .cfa -40 + ^ x24: .cfa -48 + ^ x25: .cfa -56 + ^ x26: .cfa -64 + ^ x27: .cfa -80 + ^ .ra: .cfa -88 + ^ x29: .cfa -96 + ^
STACK CFI 20418 .cfa: sp 176 +
STACK CFI 20434 .cfa: sp 0 +
STACK CFI 20438 .cfa: x29 96 +
STACK CFI INIT 20504 178 .cfa: sp 0 +
STACK CFI 20508 .cfa: sp 64 +
STACK CFI 20518 .cfa: x29 48 + x19: .cfa -8 + ^ x20: .cfa -16 + ^ x21: .cfa -24 + ^ x22: .cfa -32 + ^ .ra: .cfa -40 + ^ x29: .cfa -48 + ^
STACK CFI 2061c .cfa: sp 64 +
STACK CFI 2062c .cfa: sp 0 +
STACK CFI 20630 .cfa: x29 48 +
STACK CFI INIT 2067c 14c .cfa: sp 0 +
STACK CFI 20680 .cfa: sp 144 +
STACK CFI 20694 .cfa: x29 64 + x19: .cfa -8 + ^ x20: .cfa -16 + ^ x21: .cfa -24 + ^ x22: .cfa -32 + ^ x23: .cfa -48 + ^ .ra: .cfa -56 + ^ x29: .cfa -64 + ^
STACK CFI 206e4 .cfa: sp 144 +
STACK CFI 206f8 .cfa: sp 0 +
STACK CFI 206fc .cfa: x29 64 +
STACK CFI INIT 207c8 100 .cfa: sp 0 +
STACK CFI 207cc .cfa: sp 64 +
STACK CFI 207dc .cfa: x29 48 + x19: .cfa -8 + ^ x20: .cfa -16 + ^ x21: .cfa -24 + ^ x22: .cfa -32 + ^ .ra: .cfa -40 + ^ x29: .cfa -48 + ^
STACK CFI 20880 .cfa: sp 64 +
STACK CFI 20890 .cfa: sp 0 +
STACK CFI 20894 .cfa: x29 48 +
STACK CFI INIT 208e4 278 .cfa: sp 0 +
STACK CFI 208e8 .cfa: sp 128 +
STACK CFI 208fc .cfa: x29 64 + x19: .cfa -8 + ^ x20: .cfa -16 + ^ x21: .cfa -24 + ^ x22: .cfa -32 + ^ x23: .cfa -48 + ^ .ra: .cfa -56 + ^ x29: .cfa -64 + ^
STACK CFI 20a08 .cfa: sp 128 +
STACK CFI 20a1c .cfa: sp 0 +
STACK CFI 20a20 .cfa: x29 64 +
STACK CFI INIT 20b5c 2c8 .cfa: sp 0 +
STACK CFI 20b60 .cfa: sp 128 +
STACK CFI 20b74 .cfa: x29 64 + x19: .cfa -8 + ^ x20: .cfa -16 + ^ x21: .cfa -24 + ^ x22: .cfa -32 + ^ x23: .cfa -48 + ^ .ra: .cfa -56 + ^ x29: .cfa -64 + ^
STACK CFI 20cd0 .cfa: sp 128 +
STACK CFI 20ce4 .cfa: sp 0 +
STACK CFI 20ce8 .cfa: x29 64 +
STACK CFI INIT 20e24 4cc .cfa: sp 0 +
STACK CFI 20e28 .cfa: sp 128 +
STACK CFI 20e3c .cfa: x29 64 + x19: .cfa -8 + ^ x20: .cfa -16 + ^ x21: .cfa -24 + ^ x22: .cfa -32 + ^ x23: .cfa -48 + ^ .ra: .cfa -56 + ^ x29: .cfa -64 + ^
STACK CFI 21148 .cfa: sp 128 +
STACK CFI 2115c .cfa: sp 0 +
STACK CFI 21160 .cfa: x29 64 +
STACK CFI INIT 212f0 154 .cfa: sp 0 +
STACK CFI 212f4 .cfa: sp 384 +
STACK CFI 21308 .cfa: x29 64 + x19: .cfa -8 + ^ x20: .cfa -16 + ^ x21: .cfa -24 + ^ x22: .cfa -32 + ^ x23: .cfa -40 + ^ x28: .cfa -48 + ^ .ra: .cfa -56 + ^ x29: .cfa -64 + ^
STACK CFI 213ec .cfa: sp 384 +
STACK CFI 21400 .cfa: sp 0 +
STACK CFI 21404 .cfa: x29 64 +
STACK CFI INIT 21444 168 .cfa: sp 0 +
STACK CFI 21448 .cfa: sp 384 +
STACK CFI 2145c .cfa: x29 64 + x19: .cfa -8 + ^ x20: .cfa -16 + ^ x21: .cfa -24 + ^ x22: .cfa -32 + ^ x23: .cfa -40 + ^ x28: .cfa -48 + ^ .ra: .cfa -56 + ^ x29: .cfa -64 + ^
STACK CFI 21554 .cfa: sp 384 +
STACK CFI 21568 .cfa: sp 0 +
STACK CFI 2156c .cfa: x29 64 +
STACK CFI INIT 215c4 4e0 .cfa: sp 0 +
STACK CFI 215c8 .cfa: sp 64 +
STACK CFI 215d8 .cfa: x29 64 + x19: .cfa -8 + ^ x20: .cfa -16 + ^ x21: .cfa -24 + ^ x22: .cfa -32 + ^ x23: .cfa -40 + ^ x24: .cfa -48 + ^ .ra: .cfa -56 + ^ x29: .cfa -64 + ^
STACK CFI 21a78 .cfa: sp 64 +
STACK CFI 21a88 .cfa: sp 0 +
STACK CFI 21a8c .cfa: x29 64 +
