MODULE Linux arm64 5AF8CDA700F93297840E28836E22333C0 hiimjustin000.integrated_demonlist.android64.so
INFO CODE_ID A7CDF85AF9009732840E28836E22333C9A0EA207
INFO GENERATOR mozilla/dump_syms 2.3.4
PUBLIC 23d50 0 __on_dlclose
PUBLIC 23d60 0 __emutls_unregister_key
PUBLIC 23d68 0 __on_dlclose_late
PUBLIC 23d70 0 __atexit_handler_wrapper
PUBLIC 23d84 0 atexit
PUBLIC 23da0 0 pthread_atfork
PUBLIC 23db0 0 unwind_phase2
PUBLIC 23ee4 0 _Unwind_Resume
PUBLIC 23f68 0 unwind_phase2_forced
PUBLIC m 2405c 0 __unw_init_local
PUBLIC m 24104 0 __unw_get_reg
PUBLIC 24180 0 __unw_step_stage2
PUBLIC m 24194 0 __unw_get_proc_info
PUBLIC m 241d4 0 __unw_resume
PUBLIC 241fc 0 libunwind::CFI_Parser<libunwind::LocalAddressSpace>::decodeFDE(libunwind::LocalAddressSpace&, unsigned long, libunwind::CFI_Parser<libunwind::LocalAddressSpace>::FDE_Info*, libunwind::CFI_Parser<libunwind::LocalAddressSpace>::CIE_Info*, bool)
PUBLIC 2438c 0 libunwind::CFI_Parser<libunwind::LocalAddressSpace>::parseCIE(libunwind::LocalAddressSpace&, unsigned long, libunwind::CFI_Parser<libunwind::LocalAddressSpace>::CIE_Info*)
PUBLIC 24654 0 libunwind::AbstractUnwindCursor::~AbstractUnwindCursor()
PUBLIC 2465c 0 libunwind::UnwindCursor<libunwind::LocalAddressSpace, libunwind::Registers_arm64>::~UnwindCursor()
PUBLIC 24664 0 libunwind::UnwindCursor<libunwind::LocalAddressSpace, libunwind::Registers_arm64>::validReg(int)
PUBLIC 246a8 0 libunwind::UnwindCursor<libunwind::LocalAddressSpace, libunwind::Registers_arm64>::getReg(int)
PUBLIC 24790 0 libunwind::UnwindCursor<libunwind::LocalAddressSpace, libunwind::Registers_arm64>::setReg(int, unsigned long)
PUBLIC 24878 0 libunwind::UnwindCursor<libunwind::LocalAddressSpace, libunwind::Registers_arm64>::validFloatReg(int)
PUBLIC 2488c 0 libunwind::UnwindCursor<libunwind::LocalAddressSpace, libunwind::Registers_arm64>::getFloatReg(int)
PUBLIC 2489c 0 libunwind::UnwindCursor<libunwind::LocalAddressSpace, libunwind::Registers_arm64>::setFloatReg(int, double)
PUBLIC 248ac 0 libunwind::UnwindCursor<libunwind::LocalAddressSpace, libunwind::Registers_arm64>::step(bool)
PUBLIC 2499c 0 libunwind::UnwindCursor<libunwind::LocalAddressSpace, libunwind::Registers_arm64>::getInfo(unw_proc_info_t*)
PUBLIC 249e0 0 libunwind::UnwindCursor<libunwind::LocalAddressSpace, libunwind::Registers_arm64>::jumpto()
PUBLIC 249ec 0 libunwind::UnwindCursor<libunwind::LocalAddressSpace, libunwind::Registers_arm64>::isSignalFrame()
PUBLIC 249f8 0 libunwind::UnwindCursor<libunwind::LocalAddressSpace, libunwind::Registers_arm64>::getFunctionName(char*, unsigned long, unsigned long*)
PUBLIC 24a24 0 libunwind::UnwindCursor<libunwind::LocalAddressSpace, libunwind::Registers_arm64>::setInfoBasedOnIPRegister(bool)
PUBLIC 24ca4 0 libunwind::UnwindCursor<libunwind::LocalAddressSpace, libunwind::Registers_arm64>::getRegisterName(int)
PUBLIC 24cb0 0 libunwind::UnwindCursor<libunwind::LocalAddressSpace, libunwind::Registers_arm64>::stepThroughSigReturn(libunwind::Registers_arm64&)
PUBLIC 24dd0 0 libunwind::DwarfInstructions<libunwind::LocalAddressSpace, libunwind::Registers_arm64>::stepWithDwarf(libunwind::LocalAddressSpace&, unsigned long, unsigned long, libunwind::Registers_arm64&, bool&, bool)
PUBLIC 25258 0 libunwind::CFI_Parser<libunwind::LocalAddressSpace>::parseFDEInstructions(libunwind::LocalAddressSpace&, libunwind::CFI_Parser<libunwind::LocalAddressSpace>::FDE_Info const&, libunwind::CFI_Parser<libunwind::LocalAddressSpace>::CIE_Info const&, unsigned long, int, libunwind::CFI_Parser<libunwind::LocalAddressSpace>::PrologInfo*)
PUBLIC 25ea0 0 libunwind::DwarfInstructions<libunwind::LocalAddressSpace, libunwind::Registers_arm64>::getCFA(libunwind::LocalAddressSpace&, libunwind::CFI_Parser<libunwind::LocalAddressSpace>::PrologInfo const&, libunwind::Registers_arm64 const&)
PUBLIC 25fd4 0 libunwind::DwarfInstructions<libunwind::LocalAddressSpace, libunwind::Registers_arm64>::getSavedRegister(libunwind::LocalAddressSpace&, libunwind::Registers_arm64 const&, unsigned long, libunwind::CFI_Parser<libunwind::LocalAddressSpace>::RegisterLocation const&)
PUBLIC 261e4 0 libunwind::LocalAddressSpace::getEncodedP(unsigned long&, unsigned long, unsigned char, unsigned long)
PUBLIC 26570 0 libunwind::LocalAddressSpace::getULEB128(unsigned long&, unsigned long)
PUBLIC 26738 0 libunwind::DwarfInstructions<libunwind::LocalAddressSpace, libunwind::Registers_arm64>::evaluateExpression(unsigned long, libunwind::LocalAddressSpace&, libunwind::Registers_arm64 const&, unsigned long)
PUBLIC 270f4 0 libunwind::UnwindCursor<libunwind::LocalAddressSpace, libunwind::Registers_arm64>::getInfoFromDwarfSection(unsigned long, libunwind::UnwindInfoSections const&, unsigned int)
PUBLIC 273c8 0 libunwind::findUnwindSectionsByPhdr(dl_phdr_info*, unsigned long, void*)
PUBLIC 274fc 0 libunwind::EHHeaderParser<libunwind::LocalAddressSpace>::decodeEHHdr(libunwind::LocalAddressSpace&, unsigned long, unsigned long, libunwind::EHHeaderParser<libunwind::LocalAddressSpace>::EHHeaderInfo&)
PUBLIC 2761c 0 libunwind::CFI_Parser<libunwind::LocalAddressSpace>::findFDE(libunwind::LocalAddressSpace&, unsigned long, unsigned long, unsigned long, unsigned long, libunwind::CFI_Parser<libunwind::LocalAddressSpace>::FDE_Info*, libunwind::CFI_Parser<libunwind::LocalAddressSpace>::CIE_Info*)
PUBLIC 277e4 0 libunwind::EHHeaderParser<libunwind::LocalAddressSpace>::findFDE(libunwind::LocalAddressSpace&, unsigned long, unsigned long, unsigned int, libunwind::CFI_Parser<libunwind::LocalAddressSpace>::FDE_Info*, libunwind::CFI_Parser<libunwind::LocalAddressSpace>::CIE_Info*)
PUBLIC 2794c 0 libunwind::EHHeaderParser<libunwind::LocalAddressSpace>::getTableEntrySize(unsigned char)
PUBLIC 27a48 0 libunwind::Registers_arm64::getRegisterName(int)
PUBLIC 27a78 0 __libunwind_Registers_arm64_jumpto
PUBLIC m 27b08 0 __unw_getcontext
PUBLIC 27bb0 0 __aarch64_ldadd8_acq_rel
PUBLIC 27be0 0 init_have_lse_atomics
PUBLIC 27c78 0 __init_cpu_features_constructor
PUBLIC 28214 0 __init_cpu_features
PUBLIC 282a0 0 __aarch64_ldadd8_relax
PUBLIC 282d0 0 __cxx_global_var_init
PUBLIC 2832c 0 std::__ndk1::vector<IDListDemon, std::__ndk1::allocator<IDListDemon> >::~vector[abi:ne180000]()
PUBLIC 283b4 0 __cxx_global_var_init.1
PUBLIC 28410 0 std::__ndk1::vector<IDDemonPack, std::__ndk1::allocator<IDDemonPack> >::~vector[abi:ne180000]()
PUBLIC 284a8 0 __cxx_global_var_init.2
PUBLIC 28504 0 IDListLayer::IDListLayer()
PUBLIC 287fc 0 IDListLayer::init()
PUBLIC 29e6c 0 IDListLayer::addSearchBar()
PUBLIC 2a3ec 0 geode::cocos::CCMenuItemExt::createSpriteExtraWithFrameName(std::__ndk1::basic_string_view<char, std::__ndk1::char_traits<char> >, float, std::__ndk1::function<void (CCMenuItemSpriteExtra*)>)
PUBLIC 2a538 0 geode::cocos::CCMenuItemExt::createSpriteExtra(cocos2d::CCNode*, std::__ndk1::function<void (CCMenuItemSpriteExtra*)>)
PUBLIC 2a674 0 geode::cocos::CCMenuItemExt::createSpriteExtraWithFilename(std::__ndk1::basic_string_view<char, std::__ndk1::char_traits<char> >, float, std::__ndk1::function<void (CCMenuItemSpriteExtra*)>)
PUBLIC 2a7c0 0 IDListLayer::showLoading()
PUBLIC 2a950 0 IDListLayer::populateList(std::__ndk1::basic_string<char, std::__ndk1::char_traits<char>, std::__ndk1::allocator<char> > const&)
PUBLIC 2b260 0 std::__ndk1::vector<std::__ndk1::basic_string<char, std::__ndk1::char_traits<char>, std::__ndk1::allocator<char> >, std::__ndk1::allocator<std::__ndk1::basic_string<char, std::__ndk1::char_traits<char>, std::__ndk1::allocator<char> > > >::~vector[abi:ne180000]()
PUBLIC 2b2dc 0 IDListLayer::loadLevelsFinished(cocos2d::CCArray*, char const*)
PUBLIC 2b5bc 0 {virtual override thunk({offset(-416)}, IDListLayer::loadLevelsFinished(cocos2d::CCArray*, char const*))}
PUBLIC 2b5c4 0 IDListLayer::loadLevelsFailed(char const*)
PUBLIC 2b6e0 0 {virtual override thunk({offset(-416)}, IDListLayer::loadLevelsFailed(char const*))}
PUBLIC 2b7fc 0 IDListLayer::setupPageInfo(gd::string, char const*)
PUBLIC 2ba04 0 {virtual override thunk({offset(-416)}, IDListLayer::setupPageInfo(gd::string, char const*))}
PUBLIC 2ba0c 0 IDListLayer::search()
PUBLIC 2bcd8 0 IDListLayer::keyDown(cocos2d::enumKeyCodes)
PUBLIC 2be28 0 {virtual override thunk({offset(-344)}, IDListLayer::keyDown(cocos2d::enumKeyCodes))}
PUBLIC 2be30 0 IDListLayer::keyBackClicked()
PUBLIC 2be4c 0 {virtual override thunk({offset(-336)}, IDListLayer::keyBackClicked())}
PUBLIC 2be68 0 IDListLayer::setIDPopupClosed(SetIDPopup*, int)
PUBLIC 2bee0 0 {virtual override thunk({offset(-408)}, IDListLayer::setIDPopupClosed(SetIDPopup*, int))}
PUBLIC 2bf60 0 IDListLayer::~IDListLayer()
PUBLIC 2c26c 0 __clang_call_terminate
PUBLIC 2c27c 0 geode::EventListener<geode::Task<geode::utils::web::WebResponse, geode::utils::web::WebProgress> >::~EventListener()
PUBLIC 2c318 0 {virtual override thunk({offset(-320)}, IDListLayer::~IDListLayer())}
PUBLIC 2c320 0 IDListLayer::~IDListLayer()
PUBLIC 2c344 0 {virtual override thunk({offset(-320)}, IDListLayer::~IDListLayer())}
PUBLIC 2c36c 0 cocos2d::CCCopying::copyWithZone(cocos2d::CCZone*)
PUBLIC 2c374 0 IDListLayer::loadLevelsFinished(cocos2d::CCArray*, char const*, int)
PUBLIC 2c380 0 IDListLayer::loadLevelsFailed(char const*, int)
PUBLIC 2c38c 0 cocos2d::CCKeyboardDelegate::keyUp(cocos2d::enumKeyCodes)
PUBLIC 2c390 0 cocos2d::CCMouseDelegate::rightKeyDown()
PUBLIC 2c394 0 cocos2d::CCMouseDelegate::rightKeyUp()
PUBLIC 2c398 0 cocos2d::CCMouseDelegate::scrollWheel(float, float)
PUBLIC 2c39c 0 {virtual override thunk({offset(-416)}, IDListLayer::loadLevelsFinished(cocos2d::CCArray*, char const*, int))}
PUBLIC 2c3ac 0 {virtual override thunk({offset(-416)}, IDListLayer::loadLevelsFailed(char const*, int))}
PUBLIC 2c3bc 0 geode::Task<geode::utils::web::WebResponse, geode::utils::web::WebProgress>::~Task()
PUBLIC 2c40c 0 geode::Task<geode::utils::web::WebResponse, geode::utils::web::WebProgress>::setListener(geode::EventListenerProtocol*)
PUBLIC 2c628 0 geode::EventListener<geode::Task<geode::utils::web::WebResponse, geode::utils::web::WebProgress> >::getPool() const
PUBLIC 2c62c 0 geode::EventListener<geode::Task<geode::utils::web::WebResponse, geode::utils::web::WebProgress> >::handle(geode::Event*)
PUBLIC 2c7f8 0 geode::EventListener<geode::Task<geode::utils::web::WebResponse, geode::utils::web::WebProgress> >::~EventListener()
PUBLIC 2c89c 0 geode::Task<geode::utils::web::WebResponse, geode::utils::web::WebProgress>::setListener(geode::EventListenerProtocol*)::{lambda()#1}::~{lambda()#1}()
PUBLIC 2c8ec 0 geode::Task<geode::utils::web::WebResponse, geode::utils::web::WebProgress>::setListener(geode::EventListenerProtocol*)::{lambda()#2}::~{lambda()#2}()
PUBLIC 2c93c 0 std::__throw_bad_array_new_length([abi:ne180000], void)
PUBLIC 2c970 0 std::__ndk1::__function::__func<geode::Task<geode::utils::web::WebResponse, geode::utils::web::WebProgress>::setListener(geode::EventListenerProtocol*)::{lambda()#1}, std::__ndk1::allocator<geode::Task<geode::utils::web::WebResponse, geode::utils::web::WebProgress>::setListener(geode::EventListenerProtocol*)::{lambda()#1}>, void ()>::~__func()
PUBLIC 2c9cc 0 std::__ndk1::__function::__func<geode::Task<geode::utils::web::WebResponse, geode::utils::web::WebProgress>::setListener(geode::EventListenerProtocol*)::{lambda()#1}, std::__ndk1::allocator<geode::Task<geode::utils::web::WebResponse, geode::utils::web::WebProgress>::setListener(geode::EventListenerProtocol*)::{lambda()#1}>, void ()>::~__func()
PUBLIC 2ca38 0 std::__ndk1::__function::__func<geode::Task<geode::utils::web::WebResponse, geode::utils::web::WebProgress>::setListener(geode::EventListenerProtocol*)::{lambda()#1}, std::__ndk1::allocator<geode::Task<geode::utils::web::WebResponse, geode::utils::web::WebProgress>::setListener(geode::EventListenerProtocol*)::{lambda()#1}>, void ()>::__clone() const
PUBLIC 2ca90 0 std::__ndk1::__function::__func<geode::Task<geode::utils::web::WebResponse, geode::utils::web::WebProgress>::setListener(geode::EventListenerProtocol*)::{lambda()#1}, std::__ndk1::allocator<geode::Task<geode::utils::web::WebResponse, geode::utils::web::WebProgress>::setListener(geode::EventListenerProtocol*)::{lambda()#1}>, void ()>::__clone(std::__ndk1::__function::__base<void ()>*) const
PUBLIC 2cadc 0 std::__ndk1::__function::__func<geode::Task<geode::utils::web::WebResponse, geode::utils::web::WebProgress>::setListener(geode::EventListenerProtocol*)::{lambda()#1}, std::__ndk1::allocator<geode::Task<geode::utils::web::WebResponse, geode::utils::web::WebProgress>::setListener(geode::EventListenerProtocol*)::{lambda()#1}>, void ()>::destroy()
PUBLIC 2cb2c 0 std::__ndk1::__function::__func<geode::Task<geode::utils::web::WebResponse, geode::utils::web::WebProgress>::setListener(geode::EventListenerProtocol*)::{lambda()#1}, std::__ndk1::allocator<geode::Task<geode::utils::web::WebResponse, geode::utils::web::WebProgress>::setListener(geode::EventListenerProtocol*)::{lambda()#1}>, void ()>::destroy_deallocate()
PUBLIC 2cb8c 0 std::__ndk1::__function::__func<geode::Task<geode::utils::web::WebResponse, geode::utils::web::WebProgress>::setListener(geode::EventListenerProtocol*)::{lambda()#1}, std::__ndk1::allocator<geode::Task<geode::utils::web::WebResponse, geode::utils::web::WebProgress>::setListener(geode::EventListenerProtocol*)::{lambda()#1}>, void ()>::operator()()
PUBLIC 2cb94 0 std::__ndk1::__function::__func<geode::Task<geode::utils::web::WebResponse, geode::utils::web::WebProgress>::setListener(geode::EventListenerProtocol*)::{lambda()#1}, std::__ndk1::allocator<geode::Task<geode::utils::web::WebResponse, geode::utils::web::WebProgress>::setListener(geode::EventListenerProtocol*)::{lambda()#1}>, void ()>::target(std::type_info const&) const
PUBLIC 2cbb0 0 std::__ndk1::__function::__func<geode::Task<geode::utils::web::WebResponse, geode::utils::web::WebProgress>::setListener(geode::EventListenerProtocol*)::{lambda()#1}, std::__ndk1::allocator<geode::Task<geode::utils::web::WebResponse, geode::utils::web::WebProgress>::setListener(geode::EventListenerProtocol*)::{lambda()#1}>, void ()>::target_type() const
PUBLIC 2cbbc 0 geode::Task<geode::utils::web::WebResponse, geode::utils::web::WebProgress>::setListener(geode::EventListenerProtocol*)::{lambda()#1}::operator()() const
PUBLIC 2cd8c 0 geode::Task<geode::utils::web::WebResponse, geode::utils::web::WebProgress>::Event::~Event()
PUBLIC 2cdec 0 geode::Task<geode::utils::web::WebResponse, geode::utils::web::WebProgress>::Event::~Event()
PUBLIC 2ce5c 0 std::__ndk1::__function::__func<geode::Task<geode::utils::web::WebResponse, geode::utils::web::WebProgress>::setListener(geode::EventListenerProtocol*)::{lambda()#2}, std::__ndk1::allocator<geode::Task<geode::utils::web::WebResponse, geode::utils::web::WebProgress>::setListener(geode::EventListenerProtocol*)::{lambda()#2}>, void ()>::~__func()
PUBLIC 2ceb8 0 std::__ndk1::__function::__func<geode::Task<geode::utils::web::WebResponse, geode::utils::web::WebProgress>::setListener(geode::EventListenerProtocol*)::{lambda()#2}, std::__ndk1::allocator<geode::Task<geode::utils::web::WebResponse, geode::utils::web::WebProgress>::setListener(geode::EventListenerProtocol*)::{lambda()#2}>, void ()>::~__func()
PUBLIC 2cf24 0 std::__ndk1::__function::__func<geode::Task<geode::utils::web::WebResponse, geode::utils::web::WebProgress>::setListener(geode::EventListenerProtocol*)::{lambda()#2}, std::__ndk1::allocator<geode::Task<geode::utils::web::WebResponse, geode::utils::web::WebProgress>::setListener(geode::EventListenerProtocol*)::{lambda()#2}>, void ()>::__clone() const
PUBLIC 2cf7c 0 std::__ndk1::__function::__func<geode::Task<geode::utils::web::WebResponse, geode::utils::web::WebProgress>::setListener(geode::EventListenerProtocol*)::{lambda()#2}, std::__ndk1::allocator<geode::Task<geode::utils::web::WebResponse, geode::utils::web::WebProgress>::setListener(geode::EventListenerProtocol*)::{lambda()#2}>, void ()>::__clone(std::__ndk1::__function::__base<void ()>*) const
PUBLIC 2cfc8 0 std::__ndk1::__function::__func<geode::Task<geode::utils::web::WebResponse, geode::utils::web::WebProgress>::setListener(geode::EventListenerProtocol*)::{lambda()#2}, std::__ndk1::allocator<geode::Task<geode::utils::web::WebResponse, geode::utils::web::WebProgress>::setListener(geode::EventListenerProtocol*)::{lambda()#2}>, void ()>::destroy()
PUBLIC 2d018 0 std::__ndk1::__function::__func<geode::Task<geode::utils::web::WebResponse, geode::utils::web::WebProgress>::setListener(geode::EventListenerProtocol*)::{lambda()#2}, std::__ndk1::allocator<geode::Task<geode::utils::web::WebResponse, geode::utils::web::WebProgress>::setListener(geode::EventListenerProtocol*)::{lambda()#2}>, void ()>::destroy_deallocate()
PUBLIC 2d078 0 std::__ndk1::__function::__func<geode::Task<geode::utils::web::WebResponse, geode::utils::web::WebProgress>::setListener(geode::EventListenerProtocol*)::{lambda()#2}, std::__ndk1::allocator<geode::Task<geode::utils::web::WebResponse, geode::utils::web::WebProgress>::setListener(geode::EventListenerProtocol*)::{lambda()#2}>, void ()>::operator()()
PUBLIC 2d080 0 std::__ndk1::__function::__func<geode::Task<geode::utils::web::WebResponse, geode::utils::web::WebProgress>::setListener(geode::EventListenerProtocol*)::{lambda()#2}, std::__ndk1::allocator<geode::Task<geode::utils::web::WebResponse, geode::utils::web::WebProgress>::setListener(geode::EventListenerProtocol*)::{lambda()#2}>, void ()>::target(std::type_info const&) const
PUBLIC 2d09c 0 std::__ndk1::__function::__func<geode::Task<geode::utils::web::WebResponse, geode::utils::web::WebProgress>::setListener(geode::EventListenerProtocol*)::{lambda()#2}, std::__ndk1::allocator<geode::Task<geode::utils::web::WebResponse, geode::utils::web::WebProgress>::setListener(geode::EventListenerProtocol*)::{lambda()#2}>, void ()>::target_type() const
PUBLIC 2d0a8 0 geode::Task<geode::utils::web::WebResponse, geode::utils::web::WebProgress>::setListener(geode::EventListenerProtocol*)::{lambda()#2}::operator()() const
PUBLIC 2d26c 0 geode::cast::traverseTypeinfoFor(void*, geode::cast::ClassTypeinfoType const*, char const*)
PUBLIC 2d370 0 std::__ndk1::__throw_bad_function_call[abi:ne180000]()
PUBLIC 2d3a4 0 std::__ndk1::bad_function_call::~bad_function_call()
PUBLIC 2d3c8 0 std::__ndk1::basic_string<char, std::__ndk1::char_traits<char>, std::__ndk1::allocator<char> >::__throw_length_error[abi:ne180000]() const
PUBLIC 2d3dc 0 std::__ndk1::__throw_length_error[abi:ne180000](char const*)
PUBLIC 2d42c 0 std::length_error::length_error[abi:ne180000](char const*)
PUBLIC 2d45c 0 geode::cocos::CCMenuItemExt::assignCallback<CCMenuItemSpriteExtra>(cocos2d::CCMenuItem*, std::__ndk1::function<void (CCMenuItemSpriteExtra*)>)
PUBLIC 2d5f0 0 geode::cocos::CCMenuItemExt::LambdaCallback<CCMenuItemSpriteExtra>::create(std::__ndk1::function<void (CCMenuItemSpriteExtra*)>)
PUBLIC 2d7b8 0 geode::cocos::CCMenuItemExt::LambdaCallback<CCMenuItemSpriteExtra>::execute(cocos2d::CCNode*)
PUBLIC 2d828 0 geode::cocos::CCMenuItemExt::LambdaCallback<CCMenuItemSpriteExtra>::~LambdaCallback()
PUBLIC 2d884 0 geode::cocos::CCMenuItemExt::LambdaCallback<CCMenuItemSpriteExtra>::~LambdaCallback()
PUBLIC 2d8e8 0 cocos2d::CCObject::update(float)
PUBLIC 2d8ec 0 std::__ndk1::basic_string<char, std::__ndk1::char_traits<char>, std::__ndk1::allocator<char> >::__assign_no_alias<true>(char const*, unsigned long)
PUBLIC 2d998 0 std::__ndk1::basic_string<char, std::__ndk1::char_traits<char>, std::__ndk1::allocator<char> >::__assign_no_alias<false>(char const*, unsigned long)
PUBLIC 2daa8 0 std::__ndk1::__exception_guard_exceptions<std::__ndk1::vector<std::__ndk1::basic_string<char, std::__ndk1::char_traits<char>, std::__ndk1::allocator<char> >, std::__ndk1::allocator<std::__ndk1::basic_string<char, std::__ndk1::char_traits<char>, std::__ndk1::allocator<char> > > >::__destroy_vector>::~__exception_guard_exceptions[abi:ne180000]()
PUBLIC 2db34 0 std::__ndk1::vector<std::__ndk1::basic_string<char, std::__ndk1::char_traits<char>, std::__ndk1::allocator<char> >, std::__ndk1::allocator<std::__ndk1::basic_string<char, std::__ndk1::char_traits<char>, std::__ndk1::allocator<char> > > >::__throw_length_error[abi:ne180000]() const
PUBLIC 2db48 0 std::__ndk1::__exception_guard_exceptions<std::__ndk1::_AllocatorDestroyRangeReverse<std::__ndk1::allocator<std::__ndk1::basic_string<char, std::__ndk1::char_traits<char>, std::__ndk1::allocator<char> > >, std::__ndk1::basic_string<char, std::__ndk1::char_traits<char>, std::__ndk1::allocator<char> >*> >::~__exception_guard_exceptions[abi:ne180000]()
PUBLIC 2dba8 0 std::__ndk1::basic_string<char, std::__ndk1::char_traits<char>, std::__ndk1::allocator<char> >::__init_copy_ctor_external(char const*, unsigned long)
PUBLIC 2dc28 0 std::__ndk1::basic_string<char, std::__ndk1::char_traits<char>, std::__ndk1::allocator<char> >::__throw_out_of_range[abi:ne180000]() const
PUBLIC 2dc3c 0 std::__ndk1::__throw_out_of_range[abi:ne180000](char const*)
PUBLIC 2dc8c 0 std::out_of_range::out_of_range[abi:ne180000](char const*)
PUBLIC 2dcbc 0 std::__ndk1::__function::__func<IDListLayer::init()::$_0, std::__ndk1::allocator<IDListLayer::init()::$_0>, void (CCMenuItemSpriteExtra*)>::~__func()
PUBLIC 2dcc0 0 std::__ndk1::__function::__func<IDListLayer::init()::$_0, std::__ndk1::allocator<IDListLayer::init()::$_0>, void (CCMenuItemSpriteExtra*)>::__clone() const
PUBLIC 2dcf4 0 std::__ndk1::__function::__func<IDListLayer::init()::$_0, std::__ndk1::allocator<IDListLayer::init()::$_0>, void (CCMenuItemSpriteExtra*)>::__clone(std::__ndk1::__function::__base<void (CCMenuItemSpriteExtra*)>*) const
PUBLIC 2dd08 0 std::__ndk1::__function::__func<IDListLayer::init()::$_0, std::__ndk1::allocator<IDListLayer::init()::$_0>, void (CCMenuItemSpriteExtra*)>::destroy()
PUBLIC 2dd0c 0 std::__ndk1::__function::__func<IDListLayer::init()::$_0, std::__ndk1::allocator<IDListLayer::init()::$_0>, void (CCMenuItemSpriteExtra*)>::destroy_deallocate()
PUBLIC 2dd10 0 std::__ndk1::__function::__func<IDListLayer::init()::$_0, std::__ndk1::allocator<IDListLayer::init()::$_0>, void (CCMenuItemSpriteExtra*)>::operator()(CCMenuItemSpriteExtra*&&)
PUBLIC 2dd2c 0 std::__ndk1::__function::__func<IDListLayer::init()::$_0, std::__ndk1::allocator<IDListLayer::init()::$_0>, void (CCMenuItemSpriteExtra*)>::target(std::type_info const&) const
PUBLIC 2dd48 0 std::__ndk1::__function::__func<IDListLayer::init()::$_0, std::__ndk1::allocator<IDListLayer::init()::$_0>, void (CCMenuItemSpriteExtra*)>::target_type() const
PUBLIC 2dd54 0 std::__ndk1::__function::__func<IDListLayer::init()::$_1, std::__ndk1::allocator<IDListLayer::init()::$_1>, void (CCMenuItemSpriteExtra*)>::~__func()
PUBLIC 2dd58 0 std::__ndk1::__function::__func<IDListLayer::init()::$_1, std::__ndk1::allocator<IDListLayer::init()::$_1>, void (CCMenuItemSpriteExtra*)>::__clone() const
PUBLIC 2dd8c 0 std::__ndk1::__function::__func<IDListLayer::init()::$_1, std::__ndk1::allocator<IDListLayer::init()::$_1>, void (CCMenuItemSpriteExtra*)>::__clone(std::__ndk1::__function::__base<void (CCMenuItemSpriteExtra*)>*) const
PUBLIC 2dda0 0 std::__ndk1::__function::__func<IDListLayer::init()::$_1, std::__ndk1::allocator<IDListLayer::init()::$_1>, void (CCMenuItemSpriteExtra*)>::destroy()
PUBLIC 2dda4 0 std::__ndk1::__function::__func<IDListLayer::init()::$_1, std::__ndk1::allocator<IDListLayer::init()::$_1>, void (CCMenuItemSpriteExtra*)>::destroy_deallocate()
PUBLIC 2dda8 0 std::__ndk1::__function::__func<IDListLayer::init()::$_1, std::__ndk1::allocator<IDListLayer::init()::$_1>, void (CCMenuItemSpriteExtra*)>::operator()(CCMenuItemSpriteExtra*&&)
PUBLIC 2de34 0 std::__ndk1::__function::__func<IDListLayer::init()::$_1, std::__ndk1::allocator<IDListLayer::init()::$_1>, void (CCMenuItemSpriteExtra*)>::target(std::type_info const&) const
PUBLIC 2de50 0 std::__ndk1::__function::__func<IDListLayer::init()::$_1, std::__ndk1::allocator<IDListLayer::init()::$_1>, void (CCMenuItemSpriteExtra*)>::target_type() const
PUBLIC 2de5c 0 std::__ndk1::__function::__func<IDListLayer::init()::$_2, std::__ndk1::allocator<IDListLayer::init()::$_2>, void (CCMenuItemSpriteExtra*)>::~__func()
PUBLIC 2de60 0 std::__ndk1::__function::__func<IDListLayer::init()::$_2, std::__ndk1::allocator<IDListLayer::init()::$_2>, void (CCMenuItemSpriteExtra*)>::__clone() const
PUBLIC 2de94 0 std::__ndk1::__function::__func<IDListLayer::init()::$_2, std::__ndk1::allocator<IDListLayer::init()::$_2>, void (CCMenuItemSpriteExtra*)>::__clone(std::__ndk1::__function::__base<void (CCMenuItemSpriteExtra*)>*) const
PUBLIC 2dea8 0 std::__ndk1::__function::__func<IDListLayer::init()::$_2, std::__ndk1::allocator<IDListLayer::init()::$_2>, void (CCMenuItemSpriteExtra*)>::destroy()
PUBLIC 2deac 0 std::__ndk1::__function::__func<IDListLayer::init()::$_2, std::__ndk1::allocator<IDListLayer::init()::$_2>, void (CCMenuItemSpriteExtra*)>::destroy_deallocate()
PUBLIC 2deb0 0 std::__ndk1::__function::__func<IDListLayer::init()::$_2, std::__ndk1::allocator<IDListLayer::init()::$_2>, void (CCMenuItemSpriteExtra*)>::operator()(CCMenuItemSpriteExtra*&&)
PUBLIC 2df3c 0 std::__ndk1::__function::__func<IDListLayer::init()::$_2, std::__ndk1::allocator<IDListLayer::init()::$_2>, void (CCMenuItemSpriteExtra*)>::target(std::type_info const&) const
PUBLIC 2df58 0 std::__ndk1::__function::__func<IDListLayer::init()::$_2, std::__ndk1::allocator<IDListLayer::init()::$_2>, void (CCMenuItemSpriteExtra*)>::target_type() const
PUBLIC 2df64 0 std::__ndk1::__function::__func<IDListLayer::init()::$_3, std::__ndk1::allocator<IDListLayer::init()::$_3>, void (CCMenuItemSpriteExtra*)>::~__func()
PUBLIC 2df68 0 std::__ndk1::__function::__func<IDListLayer::init()::$_3, std::__ndk1::allocator<IDListLayer::init()::$_3>, void (CCMenuItemSpriteExtra*)>::__clone() const
PUBLIC 2df9c 0 std::__ndk1::__function::__func<IDListLayer::init()::$_3, std::__ndk1::allocator<IDListLayer::init()::$_3>, void (CCMenuItemSpriteExtra*)>::__clone(std::__ndk1::__function::__base<void (CCMenuItemSpriteExtra*)>*) const
PUBLIC 2dfb0 0 std::__ndk1::__function::__func<IDListLayer::init()::$_3, std::__ndk1::allocator<IDListLayer::init()::$_3>, void (CCMenuItemSpriteExtra*)>::destroy()
PUBLIC 2dfb4 0 std::__ndk1::__function::__func<IDListLayer::init()::$_3, std::__ndk1::allocator<IDListLayer::init()::$_3>, void (CCMenuItemSpriteExtra*)>::destroy_deallocate()
PUBLIC 2dfb8 0 std::__ndk1::__function::__func<IDListLayer::init()::$_3, std::__ndk1::allocator<IDListLayer::init()::$_3>, void (CCMenuItemSpriteExtra*)>::operator()(CCMenuItemSpriteExtra*&&)
PUBLIC 2e204 0 std::__ndk1::__function::__func<IDListLayer::init()::$_3, std::__ndk1::allocator<IDListLayer::init()::$_3>, void (CCMenuItemSpriteExtra*)>::target(std::type_info const&) const
PUBLIC 2e220 0 std::__ndk1::__function::__func<IDListLayer::init()::$_3, std::__ndk1::allocator<IDListLayer::init()::$_3>, void (CCMenuItemSpriteExtra*)>::target_type() const
PUBLIC 2e22c 0 std::__ndk1::__function::__func<IDListLayer::init()::$_3::operator()<CCMenuItemSpriteExtra*>(CCMenuItemSpriteExtra*) const::{lambda()#1}, std::__ndk1::allocator<IDListLayer::init()::$_3::operator()<CCMenuItemSpriteExtra*>(CCMenuItemSpriteExtra*) const::{lambda()#1}>, void ()>::~__func()
PUBLIC 2e230 0 std::__ndk1::__function::__func<IDListLayer::init()::$_3::operator()<CCMenuItemSpriteExtra*>(CCMenuItemSpriteExtra*) const::{lambda()#1}, std::__ndk1::allocator<IDListLayer::init()::$_3::operator()<CCMenuItemSpriteExtra*>(CCMenuItemSpriteExtra*) const::{lambda()#1}>, void ()>::__clone() const
PUBLIC 2e264 0 std::__ndk1::__function::__func<IDListLayer::init()::$_3::operator()<CCMenuItemSpriteExtra*>(CCMenuItemSpriteExtra*) const::{lambda()#1}, std::__ndk1::allocator<IDListLayer::init()::$_3::operator()<CCMenuItemSpriteExtra*>(CCMenuItemSpriteExtra*) const::{lambda()#1}>, void ()>::__clone(std::__ndk1::__function::__base<void ()>*) const
PUBLIC 2e278 0 std::__ndk1::__function::__func<IDListLayer::init()::$_3::operator()<CCMenuItemSpriteExtra*>(CCMenuItemSpriteExtra*) const::{lambda()#1}, std::__ndk1::allocator<IDListLayer::init()::$_3::operator()<CCMenuItemSpriteExtra*>(CCMenuItemSpriteExtra*) const::{lambda()#1}>, void ()>::destroy()
PUBLIC 2e27c 0 std::__ndk1::__function::__func<IDListLayer::init()::$_3::operator()<CCMenuItemSpriteExtra*>(CCMenuItemSpriteExtra*) const::{lambda()#1}, std::__ndk1::allocator<IDListLayer::init()::$_3::operator()<CCMenuItemSpriteExtra*>(CCMenuItemSpriteExtra*) const::{lambda()#1}>, void ()>::destroy_deallocate()
PUBLIC 2e280 0 std::__ndk1::__function::__func<IDListLayer::init()::$_3::operator()<CCMenuItemSpriteExtra*>(CCMenuItemSpriteExtra*) const::{lambda()#1}, std::__ndk1::allocator<IDListLayer::init()::$_3::operator()<CCMenuItemSpriteExtra*>(CCMenuItemSpriteExtra*) const::{lambda()#1}>, void ()>::operator()()
PUBLIC 2e28c 0 std::__ndk1::__function::__func<IDListLayer::init()::$_3::operator()<CCMenuItemSpriteExtra*>(CCMenuItemSpriteExtra*) const::{lambda()#1}, std::__ndk1::allocator<IDListLayer::init()::$_3::operator()<CCMenuItemSpriteExtra*>(CCMenuItemSpriteExtra*) const::{lambda()#1}>, void ()>::target(std::type_info const&) const
PUBLIC 2e2a8 0 std::__ndk1::__function::__func<IDListLayer::init()::$_3::operator()<CCMenuItemSpriteExtra*>(CCMenuItemSpriteExtra*) const::{lambda()#1}, std::__ndk1::allocator<IDListLayer::init()::$_3::operator()<CCMenuItemSpriteExtra*>(CCMenuItemSpriteExtra*) const::{lambda()#1}>, void ()>::target_type() const
PUBLIC 2e2b4 0 std::__ndk1::__function::__func<IDListLayer::init()::$_3::operator()<CCMenuItemSpriteExtra*>(CCMenuItemSpriteExtra*) const::{lambda()#2}, std::__ndk1::allocator<IDListLayer::init()::$_3::operator()<CCMenuItemSpriteExtra*>(CCMenuItemSpriteExtra*) const::{lambda()#2}>, void ()>::~__func()
PUBLIC 2e2b8 0 std::__ndk1::__function::__func<IDListLayer::init()::$_3::operator()<CCMenuItemSpriteExtra*>(CCMenuItemSpriteExtra*) const::{lambda()#2}, std::__ndk1::allocator<IDListLayer::init()::$_3::operator()<CCMenuItemSpriteExtra*>(CCMenuItemSpriteExtra*) const::{lambda()#2}>, void ()>::__clone() const
PUBLIC 2e2ec 0 std::__ndk1::__function::__func<IDListLayer::init()::$_3::operator()<CCMenuItemSpriteExtra*>(CCMenuItemSpriteExtra*) const::{lambda()#2}, std::__ndk1::allocator<IDListLayer::init()::$_3::operator()<CCMenuItemSpriteExtra*>(CCMenuItemSpriteExtra*) const::{lambda()#2}>, void ()>::__clone(std::__ndk1::__function::__base<void ()>*) const
PUBLIC 2e300 0 std::__ndk1::__function::__func<IDListLayer::init()::$_3::operator()<CCMenuItemSpriteExtra*>(CCMenuItemSpriteExtra*) const::{lambda()#2}, std::__ndk1::allocator<IDListLayer::init()::$_3::operator()<CCMenuItemSpriteExtra*>(CCMenuItemSpriteExtra*) const::{lambda()#2}>, void ()>::destroy()
PUBLIC 2e304 0 std::__ndk1::__function::__func<IDListLayer::init()::$_3::operator()<CCMenuItemSpriteExtra*>(CCMenuItemSpriteExtra*) const::{lambda()#2}, std::__ndk1::allocator<IDListLayer::init()::$_3::operator()<CCMenuItemSpriteExtra*>(CCMenuItemSpriteExtra*) const::{lambda()#2}>, void ()>::destroy_deallocate()
PUBLIC 2e308 0 std::__ndk1::__function::__func<IDListLayer::init()::$_3::operator()<CCMenuItemSpriteExtra*>(CCMenuItemSpriteExtra*) const::{lambda()#2}, std::__ndk1::allocator<IDListLayer::init()::$_3::operator()<CCMenuItemSpriteExtra*>(CCMenuItemSpriteExtra*) const::{lambda()#2}>, void ()>::operator()()
PUBLIC 2e314 0 std::__ndk1::__function::__func<IDListLayer::init()::$_3::operator()<CCMenuItemSpriteExtra*>(CCMenuItemSpriteExtra*) const::{lambda()#2}, std::__ndk1::allocator<IDListLayer::init()::$_3::operator()<CCMenuItemSpriteExtra*>(CCMenuItemSpriteExtra*) const::{lambda()#2}>, void ()>::target(std::type_info const&) const
PUBLIC 2e330 0 std::__ndk1::__function::__func<IDListLayer::init()::$_3::operator()<CCMenuItemSpriteExtra*>(CCMenuItemSpriteExtra*) const::{lambda()#2}, std::__ndk1::allocator<IDListLayer::init()::$_3::operator()<CCMenuItemSpriteExtra*>(CCMenuItemSpriteExtra*) const::{lambda()#2}>, void ()>::target_type() const
PUBLIC 2e33c 0 std::__ndk1::__function::__func<IDListLayer::init()::$_4, std::__ndk1::allocator<IDListLayer::init()::$_4>, void (CCMenuItemSpriteExtra*)>::~__func()
PUBLIC 2e340 0 std::__ndk1::__function::__func<IDListLayer::init()::$_4, std::__ndk1::allocator<IDListLayer::init()::$_4>, void (CCMenuItemSpriteExtra*)>::__clone() const
PUBLIC 2e374 0 std::__ndk1::__function::__func<IDListLayer::init()::$_4, std::__ndk1::allocator<IDListLayer::init()::$_4>, void (CCMenuItemSpriteExtra*)>::__clone(std::__ndk1::__function::__base<void (CCMenuItemSpriteExtra*)>*) const
PUBLIC 2e388 0 std::__ndk1::__function::__func<IDListLayer::init()::$_4, std::__ndk1::allocator<IDListLayer::init()::$_4>, void (CCMenuItemSpriteExtra*)>::destroy()
PUBLIC 2e38c 0 std::__ndk1::__function::__func<IDListLayer::init()::$_4, std::__ndk1::allocator<IDListLayer::init()::$_4>, void (CCMenuItemSpriteExtra*)>::destroy_deallocate()
PUBLIC 2e390 0 std::__ndk1::__function::__func<IDListLayer::init()::$_4, std::__ndk1::allocator<IDListLayer::init()::$_4>, void (CCMenuItemSpriteExtra*)>::operator()(CCMenuItemSpriteExtra*&&)
PUBLIC 2e63c 0 std::__ndk1::__function::__func<IDListLayer::init()::$_4, std::__ndk1::allocator<IDListLayer::init()::$_4>, void (CCMenuItemSpriteExtra*)>::target(std::type_info const&) const
PUBLIC 2e658 0 std::__ndk1::__function::__func<IDListLayer::init()::$_4, std::__ndk1::allocator<IDListLayer::init()::$_4>, void (CCMenuItemSpriteExtra*)>::target_type() const
PUBLIC 2e664 0 std::__ndk1::__function::__func<IDListLayer::init()::$_4::operator()<CCMenuItemSpriteExtra*>(CCMenuItemSpriteExtra*) const::{lambda()#1}, std::__ndk1::allocator<IDListLayer::init()::$_4::operator()<CCMenuItemSpriteExtra*>(CCMenuItemSpriteExtra*) const::{lambda()#1}>, void ()>::~__func()
PUBLIC 2e668 0 std::__ndk1::__function::__func<IDListLayer::init()::$_4::operator()<CCMenuItemSpriteExtra*>(CCMenuItemSpriteExtra*) const::{lambda()#1}, std::__ndk1::allocator<IDListLayer::init()::$_4::operator()<CCMenuItemSpriteExtra*>(CCMenuItemSpriteExtra*) const::{lambda()#1}>, void ()>::__clone() const
PUBLIC 2e69c 0 std::__ndk1::__function::__func<IDListLayer::init()::$_4::operator()<CCMenuItemSpriteExtra*>(CCMenuItemSpriteExtra*) const::{lambda()#1}, std::__ndk1::allocator<IDListLayer::init()::$_4::operator()<CCMenuItemSpriteExtra*>(CCMenuItemSpriteExtra*) const::{lambda()#1}>, void ()>::__clone(std::__ndk1::__function::__base<void ()>*) const
PUBLIC 2e6b0 0 std::__ndk1::__function::__func<IDListLayer::init()::$_4::operator()<CCMenuItemSpriteExtra*>(CCMenuItemSpriteExtra*) const::{lambda()#1}, std::__ndk1::allocator<IDListLayer::init()::$_4::operator()<CCMenuItemSpriteExtra*>(CCMenuItemSpriteExtra*) const::{lambda()#1}>, void ()>::destroy()
PUBLIC 2e6b4 0 std::__ndk1::__function::__func<IDListLayer::init()::$_4::operator()<CCMenuItemSpriteExtra*>(CCMenuItemSpriteExtra*) const::{lambda()#1}, std::__ndk1::allocator<IDListLayer::init()::$_4::operator()<CCMenuItemSpriteExtra*>(CCMenuItemSpriteExtra*) const::{lambda()#1}>, void ()>::destroy_deallocate()
PUBLIC 2e6b8 0 std::__ndk1::__function::__func<IDListLayer::init()::$_4::operator()<CCMenuItemSpriteExtra*>(CCMenuItemSpriteExtra*) const::{lambda()#1}, std::__ndk1::allocator<IDListLayer::init()::$_4::operator()<CCMenuItemSpriteExtra*>(CCMenuItemSpriteExtra*) const::{lambda()#1}>, void ()>::operator()()
PUBLIC 2e6e8 0 std::__ndk1::__function::__func<IDListLayer::init()::$_4::operator()<CCMenuItemSpriteExtra*>(CCMenuItemSpriteExtra*) const::{lambda()#1}, std::__ndk1::allocator<IDListLayer::init()::$_4::operator()<CCMenuItemSpriteExtra*>(CCMenuItemSpriteExtra*) const::{lambda()#1}>, void ()>::target(std::type_info const&) const
PUBLIC 2e704 0 std::__ndk1::__function::__func<IDListLayer::init()::$_4::operator()<CCMenuItemSpriteExtra*>(CCMenuItemSpriteExtra*) const::{lambda()#1}, std::__ndk1::allocator<IDListLayer::init()::$_4::operator()<CCMenuItemSpriteExtra*>(CCMenuItemSpriteExtra*) const::{lambda()#1}>, void ()>::target_type() const
PUBLIC 2e710 0 std::__ndk1::__function::__func<IDListLayer::init()::$_5, std::__ndk1::allocator<IDListLayer::init()::$_5>, void (CCMenuItemSpriteExtra*)>::~__func()
PUBLIC 2e714 0 std::__ndk1::__function::__func<IDListLayer::init()::$_5, std::__ndk1::allocator<IDListLayer::init()::$_5>, void (CCMenuItemSpriteExtra*)>::__clone() const
PUBLIC 2e748 0 std::__ndk1::__function::__func<IDListLayer::init()::$_5, std::__ndk1::allocator<IDListLayer::init()::$_5>, void (CCMenuItemSpriteExtra*)>::__clone(std::__ndk1::__function::__base<void (CCMenuItemSpriteExtra*)>*) const
PUBLIC 2e75c 0 std::__ndk1::__function::__func<IDListLayer::init()::$_5, std::__ndk1::allocator<IDListLayer::init()::$_5>, void (CCMenuItemSpriteExtra*)>::destroy()
PUBLIC 2e760 0 std::__ndk1::__function::__func<IDListLayer::init()::$_5, std::__ndk1::allocator<IDListLayer::init()::$_5>, void (CCMenuItemSpriteExtra*)>::destroy_deallocate()
PUBLIC 2e764 0 std::__ndk1::__function::__func<IDListLayer::init()::$_5, std::__ndk1::allocator<IDListLayer::init()::$_5>, void (CCMenuItemSpriteExtra*)>::operator()(CCMenuItemSpriteExtra*&&)
PUBLIC 2ea10 0 std::__ndk1::__function::__func<IDListLayer::init()::$_5, std::__ndk1::allocator<IDListLayer::init()::$_5>, void (CCMenuItemSpriteExtra*)>::target(std::type_info const&) const
PUBLIC 2ea2c 0 std::__ndk1::__function::__func<IDListLayer::init()::$_5, std::__ndk1::allocator<IDListLayer::init()::$_5>, void (CCMenuItemSpriteExtra*)>::target_type() const
PUBLIC 2ea38 0 std::__ndk1::__function::__func<IDListLayer::init()::$_5::operator()<CCMenuItemSpriteExtra*>(CCMenuItemSpriteExtra*) const::{lambda()#1}, std::__ndk1::allocator<IDListLayer::init()::$_5::operator()<CCMenuItemSpriteExtra*>(CCMenuItemSpriteExtra*) const::{lambda()#1}>, void ()>::~__func()
PUBLIC 2ea3c 0 std::__ndk1::__function::__func<IDListLayer::init()::$_5::operator()<CCMenuItemSpriteExtra*>(CCMenuItemSpriteExtra*) const::{lambda()#1}, std::__ndk1::allocator<IDListLayer::init()::$_5::operator()<CCMenuItemSpriteExtra*>(CCMenuItemSpriteExtra*) const::{lambda()#1}>, void ()>::__clone() const
PUBLIC 2ea70 0 std::__ndk1::__function::__func<IDListLayer::init()::$_5::operator()<CCMenuItemSpriteExtra*>(CCMenuItemSpriteExtra*) const::{lambda()#1}, std::__ndk1::allocator<IDListLayer::init()::$_5::operator()<CCMenuItemSpriteExtra*>(CCMenuItemSpriteExtra*) const::{lambda()#1}>, void ()>::__clone(std::__ndk1::__function::__base<void ()>*) const
PUBLIC 2ea84 0 std::__ndk1::__function::__func<IDListLayer::init()::$_5::operator()<CCMenuItemSpriteExtra*>(CCMenuItemSpriteExtra*) const::{lambda()#1}, std::__ndk1::allocator<IDListLayer::init()::$_5::operator()<CCMenuItemSpriteExtra*>(CCMenuItemSpriteExtra*) const::{lambda()#1}>, void ()>::destroy()
PUBLIC 2ea88 0 std::__ndk1::__function::__func<IDListLayer::init()::$_5::operator()<CCMenuItemSpriteExtra*>(CCMenuItemSpriteExtra*) const::{lambda()#1}, std::__ndk1::allocator<IDListLayer::init()::$_5::operator()<CCMenuItemSpriteExtra*>(CCMenuItemSpriteExtra*) const::{lambda()#1}>, void ()>::destroy_deallocate()
PUBLIC 2ea8c 0 std::__ndk1::__function::__func<IDListLayer::init()::$_5::operator()<CCMenuItemSpriteExtra*>(CCMenuItemSpriteExtra*) const::{lambda()#1}, std::__ndk1::allocator<IDListLayer::init()::$_5::operator()<CCMenuItemSpriteExtra*>(CCMenuItemSpriteExtra*) const::{lambda()#1}>, void ()>::operator()()
PUBLIC 2eabc 0 std::__ndk1::__function::__func<IDListLayer::init()::$_5::operator()<CCMenuItemSpriteExtra*>(CCMenuItemSpriteExtra*) const::{lambda()#1}, std::__ndk1::allocator<IDListLayer::init()::$_5::operator()<CCMenuItemSpriteExtra*>(CCMenuItemSpriteExtra*) const::{lambda()#1}>, void ()>::target(std::type_info const&) const
PUBLIC 2ead8 0 std::__ndk1::__function::__func<IDListLayer::init()::$_5::operator()<CCMenuItemSpriteExtra*>(CCMenuItemSpriteExtra*) const::{lambda()#1}, std::__ndk1::allocator<IDListLayer::init()::$_5::operator()<CCMenuItemSpriteExtra*>(CCMenuItemSpriteExtra*) const::{lambda()#1}>, void ()>::target_type() const
PUBLIC 2eae4 0 std::__ndk1::__function::__func<IDListLayer::init()::$_6, std::__ndk1::allocator<IDListLayer::init()::$_6>, void (CCMenuItemSpriteExtra*)>::~__func()
PUBLIC 2eae8 0 std::__ndk1::__function::__func<IDListLayer::init()::$_6, std::__ndk1::allocator<IDListLayer::init()::$_6>, void (CCMenuItemSpriteExtra*)>::__clone() const
PUBLIC 2eb1c 0 std::__ndk1::__function::__func<IDListLayer::init()::$_6, std::__ndk1::allocator<IDListLayer::init()::$_6>, void (CCMenuItemSpriteExtra*)>::__clone(std::__ndk1::__function::__base<void (CCMenuItemSpriteExtra*)>*) const
PUBLIC 2eb30 0 std::__ndk1::__function::__func<IDListLayer::init()::$_6, std::__ndk1::allocator<IDListLayer::init()::$_6>, void (CCMenuItemSpriteExtra*)>::destroy()
PUBLIC 2eb34 0 std::__ndk1::__function::__func<IDListLayer::init()::$_6, std::__ndk1::allocator<IDListLayer::init()::$_6>, void (CCMenuItemSpriteExtra*)>::destroy_deallocate()
PUBLIC 2eb38 0 std::__ndk1::__function::__func<IDListLayer::init()::$_6, std::__ndk1::allocator<IDListLayer::init()::$_6>, void (CCMenuItemSpriteExtra*)>::operator()(CCMenuItemSpriteExtra*&&)
PUBLIC 2ec6c 0 std::__ndk1::__function::__func<IDListLayer::init()::$_6, std::__ndk1::allocator<IDListLayer::init()::$_6>, void (CCMenuItemSpriteExtra*)>::target(std::type_info const&) const
PUBLIC 2ec88 0 std::__ndk1::__function::__func<IDListLayer::init()::$_6, std::__ndk1::allocator<IDListLayer::init()::$_6>, void (CCMenuItemSpriteExtra*)>::target_type() const
PUBLIC 2ec94 0 std::__ndk1::__function::__func<IDListLayer::init()::$_7, std::__ndk1::allocator<IDListLayer::init()::$_7>, void (CCMenuItemSpriteExtra*)>::~__func()
PUBLIC 2ec98 0 std::__ndk1::__function::__func<IDListLayer::init()::$_7, std::__ndk1::allocator<IDListLayer::init()::$_7>, void (CCMenuItemSpriteExtra*)>::__clone() const
PUBLIC 2eccc 0 std::__ndk1::__function::__func<IDListLayer::init()::$_7, std::__ndk1::allocator<IDListLayer::init()::$_7>, void (CCMenuItemSpriteExtra*)>::__clone(std::__ndk1::__function::__base<void (CCMenuItemSpriteExtra*)>*) const
PUBLIC 2ece0 0 std::__ndk1::__function::__func<IDListLayer::init()::$_7, std::__ndk1::allocator<IDListLayer::init()::$_7>, void (CCMenuItemSpriteExtra*)>::destroy()
PUBLIC 2ece4 0 std::__ndk1::__function::__func<IDListLayer::init()::$_7, std::__ndk1::allocator<IDListLayer::init()::$_7>, void (CCMenuItemSpriteExtra*)>::destroy_deallocate()
PUBLIC 2ece8 0 std::__ndk1::__function::__func<IDListLayer::init()::$_7, std::__ndk1::allocator<IDListLayer::init()::$_7>, void (CCMenuItemSpriteExtra*)>::operator()(CCMenuItemSpriteExtra*&&)
PUBLIC 2ee9c 0 std::__ndk1::__function::__func<IDListLayer::init()::$_7, std::__ndk1::allocator<IDListLayer::init()::$_7>, void (CCMenuItemSpriteExtra*)>::target(std::type_info const&) const
PUBLIC 2eeb8 0 std::__ndk1::__function::__func<IDListLayer::init()::$_7, std::__ndk1::allocator<IDListLayer::init()::$_7>, void (CCMenuItemSpriteExtra*)>::target_type() const
PUBLIC 2eec4 0 std::__ndk1::random_device::random_device[abi:ne180000]()
PUBLIC 2ef70 0 std::__ndk1::uniform_int_distribution<int>::operator()<std::__ndk1::mersenne_twister_engine<unsigned long, (unsigned long)32, (unsigned long)624, (unsigned long)397, (unsigned long)31, (unsigned long)2567483615, (unsigned long)11, (unsigned long)4294967295, (unsigned long)7, (unsigned long)2636928640, (unsigned long)15, (unsigned long)4022730752, (unsigned long)18, (unsigned long)1812433253> >(std::__ndk1::mersenne_twister_engine<unsigned long, (unsigned long)32, (unsigned long)624, (unsigned long)397, (unsigned long)31, (unsigned long)2567483615, (unsigned long)11, (unsigned long)4294967295, (unsigned long)7, (unsigned long)2636928640, (unsigned long)15, (unsigned long)4022730752, (unsigned long)18, (unsigned long)1812433253>&, std::__ndk1::uniform_int_distribution<int>::param_type const&)
PUBLIC 2f0b0 0 std::__ndk1::__independent_bits_engine<std::__ndk1::mersenne_twister_engine<unsigned long, (unsigned long)32, (unsigned long)624, (unsigned long)397, (unsigned long)31, (unsigned long)2567483615, (unsigned long)11, (unsigned long)4294967295, (unsigned long)7, (unsigned long)2636928640, (unsigned long)15, (unsigned long)4022730752, (unsigned long)18, (unsigned long)1812433253>, unsigned int>::__eval(std::__ndk1::integral_constant<bool, true>)
PUBLIC 2f2b0 0 std::__ndk1::__function::__func<IDListLayer::init()::$_8, std::__ndk1::allocator<IDListLayer::init()::$_8>, void (CCMenuItemSpriteExtra*)>::~__func()
PUBLIC 2f2b4 0 std::__ndk1::__function::__func<IDListLayer::init()::$_8, std::__ndk1::allocator<IDListLayer::init()::$_8>, void (CCMenuItemSpriteExtra*)>::__clone() const
PUBLIC 2f2e8 0 std::__ndk1::__function::__func<IDListLayer::init()::$_8, std::__ndk1::allocator<IDListLayer::init()::$_8>, void (CCMenuItemSpriteExtra*)>::__clone(std::__ndk1::__function::__base<void (CCMenuItemSpriteExtra*)>*) const
PUBLIC 2f2fc 0 std::__ndk1::__function::__func<IDListLayer::init()::$_8, std::__ndk1::allocator<IDListLayer::init()::$_8>, void (CCMenuItemSpriteExtra*)>::destroy()
PUBLIC 2f300 0 std::__ndk1::__function::__func<IDListLayer::init()::$_8, std::__ndk1::allocator<IDListLayer::init()::$_8>, void (CCMenuItemSpriteExtra*)>::destroy_deallocate()
PUBLIC 2f304 0 std::__ndk1::__function::__func<IDListLayer::init()::$_8, std::__ndk1::allocator<IDListLayer::init()::$_8>, void (CCMenuItemSpriteExtra*)>::operator()(CCMenuItemSpriteExtra*&&)
PUBLIC 2f394 0 std::__ndk1::__function::__func<IDListLayer::init()::$_8, std::__ndk1::allocator<IDListLayer::init()::$_8>, void (CCMenuItemSpriteExtra*)>::target(std::type_info const&) const
PUBLIC 2f3b0 0 std::__ndk1::__function::__func<IDListLayer::init()::$_8, std::__ndk1::allocator<IDListLayer::init()::$_8>, void (CCMenuItemSpriteExtra*)>::target_type() const
PUBLIC 2f3bc 0 std::__ndk1::__function::__func<IDListLayer::init()::$_9, std::__ndk1::allocator<IDListLayer::init()::$_9>, void (CCMenuItemSpriteExtra*)>::~__func()
PUBLIC 2f3c0 0 std::__ndk1::__function::__func<IDListLayer::init()::$_9, std::__ndk1::allocator<IDListLayer::init()::$_9>, void (CCMenuItemSpriteExtra*)>::__clone() const
PUBLIC 2f3f4 0 std::__ndk1::__function::__func<IDListLayer::init()::$_9, std::__ndk1::allocator<IDListLayer::init()::$_9>, void (CCMenuItemSpriteExtra*)>::__clone(std::__ndk1::__function::__base<void (CCMenuItemSpriteExtra*)>*) const
PUBLIC 2f408 0 std::__ndk1::__function::__func<IDListLayer::init()::$_9, std::__ndk1::allocator<IDListLayer::init()::$_9>, void (CCMenuItemSpriteExtra*)>::destroy()
PUBLIC 2f40c 0 std::__ndk1::__function::__func<IDListLayer::init()::$_9, std::__ndk1::allocator<IDListLayer::init()::$_9>, void (CCMenuItemSpriteExtra*)>::destroy_deallocate()
PUBLIC 2f410 0 std::__ndk1::__function::__func<IDListLayer::init()::$_9, std::__ndk1::allocator<IDListLayer::init()::$_9>, void (CCMenuItemSpriteExtra*)>::operator()(CCMenuItemSpriteExtra*&&)
PUBLIC 2f440 0 std::__ndk1::__function::__func<IDListLayer::init()::$_9, std::__ndk1::allocator<IDListLayer::init()::$_9>, void (CCMenuItemSpriteExtra*)>::target(std::type_info const&) const
PUBLIC 2f45c 0 std::__ndk1::__function::__func<IDListLayer::init()::$_9, std::__ndk1::allocator<IDListLayer::init()::$_9>, void (CCMenuItemSpriteExtra*)>::target_type() const
PUBLIC 2f468 0 std::__ndk1::__function::__func<IDListLayer::init()::$_10, std::__ndk1::allocator<IDListLayer::init()::$_10>, void ()>::~__func()
PUBLIC 2f46c 0 std::__ndk1::__function::__func<IDListLayer::init()::$_10, std::__ndk1::allocator<IDListLayer::init()::$_10>, void ()>::__clone() const
PUBLIC 2f4a0 0 std::__ndk1::__function::__func<IDListLayer::init()::$_10, std::__ndk1::allocator<IDListLayer::init()::$_10>, void ()>::__clone(std::__ndk1::__function::__base<void ()>*) const
PUBLIC 2f4b4 0 std::__ndk1::__function::__func<IDListLayer::init()::$_10, std::__ndk1::allocator<IDListLayer::init()::$_10>, void ()>::destroy()
PUBLIC 2f4b8 0 std::__ndk1::__function::__func<IDListLayer::init()::$_10, std::__ndk1::allocator<IDListLayer::init()::$_10>, void ()>::destroy_deallocate()
PUBLIC 2f4bc 0 std::__ndk1::__function::__func<IDListLayer::init()::$_10, std::__ndk1::allocator<IDListLayer::init()::$_10>, void ()>::operator()()
PUBLIC 2f548 0 std::__ndk1::__function::__func<IDListLayer::init()::$_10, std::__ndk1::allocator<IDListLayer::init()::$_10>, void ()>::target(std::type_info const&) const
PUBLIC 2f564 0 std::__ndk1::__function::__func<IDListLayer::init()::$_10, std::__ndk1::allocator<IDListLayer::init()::$_10>, void ()>::target_type() const
PUBLIC 2f570 0 std::__ndk1::__function::__func<IDListLayer::init()::$_11, std::__ndk1::allocator<IDListLayer::init()::$_11>, void ()>::~__func()
PUBLIC 2f574 0 std::__ndk1::__function::__func<IDListLayer::init()::$_11, std::__ndk1::allocator<IDListLayer::init()::$_11>, void ()>::__clone() const
PUBLIC 2f5a8 0 std::__ndk1::__function::__func<IDListLayer::init()::$_11, std::__ndk1::allocator<IDListLayer::init()::$_11>, void ()>::__clone(std::__ndk1::__function::__base<void ()>*) const
PUBLIC 2f5bc 0 std::__ndk1::__function::__func<IDListLayer::init()::$_11, std::__ndk1::allocator<IDListLayer::init()::$_11>, void ()>::destroy()
PUBLIC 2f5c0 0 std::__ndk1::__function::__func<IDListLayer::init()::$_11, std::__ndk1::allocator<IDListLayer::init()::$_11>, void ()>::destroy_deallocate()
PUBLIC 2f5c4 0 std::__ndk1::__function::__func<IDListLayer::init()::$_11, std::__ndk1::allocator<IDListLayer::init()::$_11>, void ()>::operator()()
PUBLIC 2f650 0 std::__ndk1::__function::__func<IDListLayer::init()::$_11, std::__ndk1::allocator<IDListLayer::init()::$_11>, void ()>::target(std::type_info const&) const
PUBLIC 2f66c 0 std::__ndk1::__function::__func<IDListLayer::init()::$_11, std::__ndk1::allocator<IDListLayer::init()::$_11>, void ()>::target_type() const
PUBLIC 2f678 0 std::__ndk1::__function::__base<void (int)>::~__base()
PUBLIC 2f67c 0 std::__ndk1::__function::__func<IDListLayer::failure(bool)::$_0, std::__ndk1::allocator<IDListLayer::failure(bool)::$_0>, void (int)>::~__func()
PUBLIC 2f680 0 std::__ndk1::__function::__func<IDListLayer::failure(bool)::$_0, std::__ndk1::allocator<IDListLayer::failure(bool)::$_0>, void (int)>::__clone() const
PUBLIC 2f6b8 0 std::__ndk1::__function::__func<IDListLayer::failure(bool)::$_0, std::__ndk1::allocator<IDListLayer::failure(bool)::$_0>, void (int)>::__clone(std::__ndk1::__function::__base<void (int)>*) const
PUBLIC 2f6d0 0 std::__ndk1::__function::__func<IDListLayer::failure(bool)::$_0, std::__ndk1::allocator<IDListLayer::failure(bool)::$_0>, void (int)>::destroy()
PUBLIC 2f6d4 0 std::__ndk1::__function::__func<IDListLayer::failure(bool)::$_0, std::__ndk1::allocator<IDListLayer::failure(bool)::$_0>, void (int)>::destroy_deallocate()
PUBLIC 2f6d8 0 std::__ndk1::__function::__func<IDListLayer::failure(bool)::$_0, std::__ndk1::allocator<IDListLayer::failure(bool)::$_0>, void (int)>::operator()(int&&)
PUBLIC 2f900 0 std::__ndk1::__function::__func<IDListLayer::failure(bool)::$_0, std::__ndk1::allocator<IDListLayer::failure(bool)::$_0>, void (int)>::target(std::type_info const&) const
PUBLIC 2f91c 0 std::__ndk1::__function::__func<IDListLayer::failure(bool)::$_0, std::__ndk1::allocator<IDListLayer::failure(bool)::$_0>, void (int)>::target_type() const
PUBLIC 2f928 0 std::__ndk1::__function::__func<IDListLayer::addSearchBar()::$_0, std::__ndk1::allocator<IDListLayer::addSearchBar()::$_0>, void (CCMenuItemSpriteExtra*)>::~__func()
PUBLIC 2f92c 0 std::__ndk1::__function::__func<IDListLayer::addSearchBar()::$_0, std::__ndk1::allocator<IDListLayer::addSearchBar()::$_0>, void (CCMenuItemSpriteExtra*)>::__clone() const
PUBLIC 2f960 0 std::__ndk1::__function::__func<IDListLayer::addSearchBar()::$_0, std::__ndk1::allocator<IDListLayer::addSearchBar()::$_0>, void (CCMenuItemSpriteExtra*)>::__clone(std::__ndk1::__function::__base<void (CCMenuItemSpriteExtra*)>*) const
PUBLIC 2f974 0 std::__ndk1::__function::__func<IDListLayer::addSearchBar()::$_0, std::__ndk1::allocator<IDListLayer::addSearchBar()::$_0>, void (CCMenuItemSpriteExtra*)>::destroy()
PUBLIC 2f978 0 std::__ndk1::__function::__func<IDListLayer::addSearchBar()::$_0, std::__ndk1::allocator<IDListLayer::addSearchBar()::$_0>, void (CCMenuItemSpriteExtra*)>::destroy_deallocate()
PUBLIC 2f97c 0 std::__ndk1::__function::__func<IDListLayer::addSearchBar()::$_0, std::__ndk1::allocator<IDListLayer::addSearchBar()::$_0>, void (CCMenuItemSpriteExtra*)>::operator()(CCMenuItemSpriteExtra*&&)
PUBLIC 2f984 0 std::__ndk1::__function::__func<IDListLayer::addSearchBar()::$_0, std::__ndk1::allocator<IDListLayer::addSearchBar()::$_0>, void (CCMenuItemSpriteExtra*)>::target(std::type_info const&) const
PUBLIC 2f9a0 0 std::__ndk1::__function::__func<IDListLayer::addSearchBar()::$_0, std::__ndk1::allocator<IDListLayer::addSearchBar()::$_0>, void (CCMenuItemSpriteExtra*)>::target_type() const
PUBLIC 2f9ac 0 std::__ndk1::__function::__base<void (CCMenuItemSpriteExtra*)>::~__base()
PUBLIC 2f9b0 0 std::__ndk1::__function::__func<IDListLayer::addSearchBar()::$_1, std::__ndk1::allocator<IDListLayer::addSearchBar()::$_1>, void (CCMenuItemSpriteExtra*)>::~__func()
PUBLIC 2f9b4 0 std::__ndk1::__function::__func<IDListLayer::addSearchBar()::$_1, std::__ndk1::allocator<IDListLayer::addSearchBar()::$_1>, void (CCMenuItemSpriteExtra*)>::__clone() const
PUBLIC 2f9e8 0 std::__ndk1::__function::__func<IDListLayer::addSearchBar()::$_1, std::__ndk1::allocator<IDListLayer::addSearchBar()::$_1>, void (CCMenuItemSpriteExtra*)>::__clone(std::__ndk1::__function::__base<void (CCMenuItemSpriteExtra*)>*) const
PUBLIC 2f9fc 0 std::__ndk1::__function::__func<IDListLayer::addSearchBar()::$_1, std::__ndk1::allocator<IDListLayer::addSearchBar()::$_1>, void (CCMenuItemSpriteExtra*)>::destroy()
PUBLIC 2fa00 0 std::__ndk1::__function::__func<IDListLayer::addSearchBar()::$_1, std::__ndk1::allocator<IDListLayer::addSearchBar()::$_1>, void (CCMenuItemSpriteExtra*)>::destroy_deallocate()
PUBLIC 2fa04 0 std::__ndk1::__function::__func<IDListLayer::addSearchBar()::$_1, std::__ndk1::allocator<IDListLayer::addSearchBar()::$_1>, void (CCMenuItemSpriteExtra*)>::operator()(CCMenuItemSpriteExtra*&&)
PUBLIC 2fa0c 0 std::__ndk1::__function::__func<IDListLayer::addSearchBar()::$_1, std::__ndk1::allocator<IDListLayer::addSearchBar()::$_1>, void (CCMenuItemSpriteExtra*)>::target(std::type_info const&) const
PUBLIC 2fa28 0 std::__ndk1::__function::__func<IDListLayer::addSearchBar()::$_1, std::__ndk1::allocator<IDListLayer::addSearchBar()::$_1>, void (CCMenuItemSpriteExtra*)>::target_type() const
PUBLIC 2fa34 0 std::__ndk1::__function::__base<void (std::__ndk1::basic_string<char, std::__ndk1::char_traits<char>, std::__ndk1::allocator<char> > const&)>::~__base()
PUBLIC 2fa38 0 std::__ndk1::__function::__func<IDListLayer::addSearchBar()::$_2, std::__ndk1::allocator<IDListLayer::addSearchBar()::$_2>, void (std::__ndk1::basic_string<char, std::__ndk1::char_traits<char>, std::__ndk1::allocator<char> > const&)>::~__func()
PUBLIC 2fa3c 0 std::__ndk1::__function::__func<IDListLayer::addSearchBar()::$_2, std::__ndk1::allocator<IDListLayer::addSearchBar()::$_2>, void (std::__ndk1::basic_string<char, std::__ndk1::char_traits<char>, std::__ndk1::allocator<char> > const&)>::__clone() const
PUBLIC 2fa70 0 std::__ndk1::__function::__func<IDListLayer::addSearchBar()::$_2, std::__ndk1::allocator<IDListLayer::addSearchBar()::$_2>, void (std::__ndk1::basic_string<char, std::__ndk1::char_traits<char>, std::__ndk1::allocator<char> > const&)>::__clone(std::__ndk1::__function::__base<void (std::__ndk1::basic_string<char, std::__ndk1::char_traits<char>, std::__ndk1::allocator<char> > const&)>*) const
PUBLIC 2fa84 0 std::__ndk1::__function::__func<IDListLayer::addSearchBar()::$_2, std::__ndk1::allocator<IDListLayer::addSearchBar()::$_2>, void (std::__ndk1::basic_string<char, std::__ndk1::char_traits<char>, std::__ndk1::allocator<char> > const&)>::destroy()
PUBLIC 2fa88 0 std::__ndk1::__function::__func<IDListLayer::addSearchBar()::$_2, std::__ndk1::allocator<IDListLayer::addSearchBar()::$_2>, void (std::__ndk1::basic_string<char, std::__ndk1::char_traits<char>, std::__ndk1::allocator<char> > const&)>::destroy_deallocate()
PUBLIC 2fa8c 0 std::__ndk1::__function::__func<IDListLayer::addSearchBar()::$_2, std::__ndk1::allocator<IDListLayer::addSearchBar()::$_2>, void (std::__ndk1::basic_string<char, std::__ndk1::char_traits<char>, std::__ndk1::allocator<char> > const&)>::operator()(std::__ndk1::basic_string<char, std::__ndk1::char_traits<char>, std::__ndk1::allocator<char> > const&)
PUBLIC 2fae4 0 std::__ndk1::__function::__func<IDListLayer::addSearchBar()::$_2, std::__ndk1::allocator<IDListLayer::addSearchBar()::$_2>, void (std::__ndk1::basic_string<char, std::__ndk1::char_traits<char>, std::__ndk1::allocator<char> > const&)>::target(std::type_info const&) const
PUBLIC 2fb00 0 std::__ndk1::__function::__func<IDListLayer::addSearchBar()::$_2, std::__ndk1::allocator<IDListLayer::addSearchBar()::$_2>, void (std::__ndk1::basic_string<char, std::__ndk1::char_traits<char>, std::__ndk1::allocator<char> > const&)>::target_type() const
PUBLIC 2fb0c 0 std::__ndk1::vector<IDListDemon, std::__ndk1::allocator<IDListDemon> >::__push_back_slow_path<IDListDemon const&>(IDListDemon const&)
PUBLIC 2fd54 0 std::__ndk1::__split_buffer<IDListDemon, std::__ndk1::allocator<IDListDemon>&>::~__split_buffer()
PUBLIC 2fdbc 0 std::__ndk1::vector<IDListDemon, std::__ndk1::allocator<IDListDemon> >::__throw_length_error[abi:ne180000]() const
PUBLIC 2fdd0 0 std::__ndk1::vector<std::__ndk1::basic_string<char, std::__ndk1::char_traits<char>, std::__ndk1::allocator<char> >, std::__ndk1::allocator<std::__ndk1::basic_string<char, std::__ndk1::char_traits<char>, std::__ndk1::allocator<char> > > >::__push_back_slow_path<std::__ndk1::basic_string<char, std::__ndk1::char_traits<char>, std::__ndk1::allocator<char> > >(std::__ndk1::basic_string<char, std::__ndk1::char_traits<char>, std::__ndk1::allocator<char> >&&)
PUBLIC 2ff38 0 std::__ndk1::__function::__func<IDListLayer::search()::$_0, std::__ndk1::allocator<IDListLayer::search()::$_0>, void ()>::~__func()
PUBLIC 2ff3c 0 std::__ndk1::__function::__func<IDListLayer::search()::$_0, std::__ndk1::allocator<IDListLayer::search()::$_0>, void ()>::__clone() const
PUBLIC 2ff70 0 std::__ndk1::__function::__func<IDListLayer::search()::$_0, std::__ndk1::allocator<IDListLayer::search()::$_0>, void ()>::__clone(std::__ndk1::__function::__base<void ()>*) const
PUBLIC 2ff84 0 std::__ndk1::__function::__func<IDListLayer::search()::$_0, std::__ndk1::allocator<IDListLayer::search()::$_0>, void ()>::destroy()
PUBLIC 2ff88 0 std::__ndk1::__function::__func<IDListLayer::search()::$_0, std::__ndk1::allocator<IDListLayer::search()::$_0>, void ()>::destroy_deallocate()
PUBLIC 2ff8c 0 std::__ndk1::__function::__func<IDListLayer::search()::$_0, std::__ndk1::allocator<IDListLayer::search()::$_0>, void ()>::operator()()
PUBLIC 2ff9c 0 std::__ndk1::__function::__func<IDListLayer::search()::$_0, std::__ndk1::allocator<IDListLayer::search()::$_0>, void ()>::target(std::type_info const&) const
PUBLIC 2ffb8 0 std::__ndk1::__function::__func<IDListLayer::search()::$_0, std::__ndk1::allocator<IDListLayer::search()::$_0>, void ()>::target_type() const
PUBLIC 2ffc4 0 std::__ndk1::__function::__base<void ()>::~__base()
PUBLIC 2ffc8 0 std::__ndk1::__function::__func<IDListLayer::search()::$_1, std::__ndk1::allocator<IDListLayer::search()::$_1>, void ()>::~__func()
PUBLIC 2ffcc 0 std::__ndk1::__function::__func<IDListLayer::search()::$_1, std::__ndk1::allocator<IDListLayer::search()::$_1>, void ()>::__clone() const
PUBLIC 30000 0 std::__ndk1::__function::__func<IDListLayer::search()::$_1, std::__ndk1::allocator<IDListLayer::search()::$_1>, void ()>::__clone(std::__ndk1::__function::__base<void ()>*) const
PUBLIC 30014 0 std::__ndk1::__function::__func<IDListLayer::search()::$_1, std::__ndk1::allocator<IDListLayer::search()::$_1>, void ()>::destroy()
PUBLIC 30018 0 std::__ndk1::__function::__func<IDListLayer::search()::$_1, std::__ndk1::allocator<IDListLayer::search()::$_1>, void ()>::destroy_deallocate()
PUBLIC 3001c 0 std::__ndk1::__function::__func<IDListLayer::search()::$_1, std::__ndk1::allocator<IDListLayer::search()::$_1>, void ()>::operator()()
PUBLIC 3002c 0 std::__ndk1::__function::__func<IDListLayer::search()::$_1, std::__ndk1::allocator<IDListLayer::search()::$_1>, void ()>::target(std::type_info const&) const
PUBLIC 30048 0 std::__ndk1::__function::__func<IDListLayer::search()::$_1, std::__ndk1::allocator<IDListLayer::search()::$_1>, void ()>::target_type() const
PUBLIC 30054 0 IDPackCell::init(IDDemonPack const&)
PUBLIC 30f64 0 IDPackCell::init(IDDemonPack const&)::$_0::~$_0()
PUBLIC 30fa8 0 IDPackCell::~IDPackCell()
PUBLIC 30fcc 0 {virtual override thunk({offset(-320)}, IDPackCell::~IDPackCell())}
PUBLIC 30fd4 0 {virtual override thunk({offset(-320)}, IDPackCell::~IDPackCell())}
PUBLIC 30ffc 0 std::__ndk1::vector<int, std::__ndk1::allocator<int> >::__throw_length_error[abi:ne180000]() const
PUBLIC 31010 0 std::__ndk1::__function::__func<IDPackCell::init(IDDemonPack const&)::$_0, std::__ndk1::allocator<IDPackCell::init(IDDemonPack const&)::$_0>, void (CCMenuItemSpriteExtra*)>::~__func()
PUBLIC 31060 0 std::__ndk1::__function::__func<IDPackCell::init(IDDemonPack const&)::$_0, std::__ndk1::allocator<IDPackCell::init(IDDemonPack const&)::$_0>, void (CCMenuItemSpriteExtra*)>::~__func()
PUBLIC 310ac 0 std::__ndk1::__function::__func<IDPackCell::init(IDDemonPack const&)::$_0, std::__ndk1::allocator<IDPackCell::init(IDDemonPack const&)::$_0>, void (CCMenuItemSpriteExtra*)>::__clone() const
PUBLIC 31100 0 std::__ndk1::__function::__func<IDPackCell::init(IDDemonPack const&)::$_0, std::__ndk1::allocator<IDPackCell::init(IDDemonPack const&)::$_0>, void (CCMenuItemSpriteExtra*)>::__clone(std::__ndk1::__function::__base<void (CCMenuItemSpriteExtra*)>*) const
PUBLIC 3111c 0 std::__ndk1::__function::__func<IDPackCell::init(IDDemonPack const&)::$_0, std::__ndk1::allocator<IDPackCell::init(IDDemonPack const&)::$_0>, void (CCMenuItemSpriteExtra*)>::destroy()
PUBLIC 31160 0 std::__ndk1::__function::__func<IDPackCell::init(IDDemonPack const&)::$_0, std::__ndk1::allocator<IDPackCell::init(IDDemonPack const&)::$_0>, void (CCMenuItemSpriteExtra*)>::destroy_deallocate()
PUBLIC 311a0 0 std::__ndk1::__function::__func<IDPackCell::init(IDDemonPack const&)::$_0, std::__ndk1::allocator<IDPackCell::init(IDDemonPack const&)::$_0>, void (CCMenuItemSpriteExtra*)>::operator()(CCMenuItemSpriteExtra*&&)
PUBLIC 313b0 0 std::__ndk1::__function::__func<IDPackCell::init(IDDemonPack const&)::$_0, std::__ndk1::allocator<IDPackCell::init(IDDemonPack const&)::$_0>, void (CCMenuItemSpriteExtra*)>::target(std::type_info const&) const
PUBLIC 313cc 0 std::__ndk1::__function::__func<IDPackCell::init(IDDemonPack const&)::$_0, std::__ndk1::allocator<IDPackCell::init(IDDemonPack const&)::$_0>, void (CCMenuItemSpriteExtra*)>::target_type() const
PUBLIC 313d8 0 std::__ndk1::__compressed_pair_elem<IDPackCell::init(IDDemonPack const&)::$_0, 0, false>::__compressed_pair_elem[abi:ne180000]<IDPackCell::init(IDDemonPack const&)::$_0 const&, (unsigned long)0>(std::__ndk1::tuple<IDPackCell::init(IDDemonPack const&)::$_0 const&>, std::__ndk1::__tuple_indices<((unsigned long)0)...>)
PUBLIC 314d0 0 IDPackLayer::IDPackLayer()
PUBLIC 316a4 0 IDPackLayer::init()
PUBLIC 32978 0 IDPackLayer::addSearchBar()
PUBLIC 32f00 0 IDPackLayer::showLoading()
PUBLIC 33090 0 IDPackLayer::populateList(std::__ndk1::basic_string<char, std::__ndk1::char_traits<char>, std::__ndk1::allocator<char> > const&)
PUBLIC 33be8 0 IDPackLayer::search()
PUBLIC 33dd0 0 IDPackLayer::keyDown(cocos2d::enumKeyCodes)
PUBLIC 33f30 0 {virtual override thunk({offset(-344)}, IDPackLayer::keyDown(cocos2d::enumKeyCodes))}
PUBLIC 33f38 0 IDPackLayer::keyBackClicked()
PUBLIC 33f54 0 {virtual override thunk({offset(-336)}, IDPackLayer::keyBackClicked())}
PUBLIC 33f70 0 IDPackLayer::setIDPopupClosed(SetIDPopup*, int)
PUBLIC 33fe8 0 {virtual override thunk({offset(-408)}, IDPackLayer::setIDPopupClosed(SetIDPopup*, int))}
PUBLIC 34064 0 IDPackLayer::~IDPackLayer()
PUBLIC 34268 0 {virtual override thunk({offset(-320)}, IDPackLayer::~IDPackLayer())}
PUBLIC 34270 0 IDPackLayer::~IDPackLayer()
PUBLIC 34294 0 {virtual override thunk({offset(-320)}, IDPackLayer::~IDPackLayer())}
PUBLIC 342bc 0 std::__ndk1::__exception_guard_exceptions<std::__ndk1::vector<IDDemonPack, std::__ndk1::allocator<IDDemonPack> >::__destroy_vector>::~__exception_guard_exceptions[abi:ne180000]()
PUBLIC 34364 0 std::__ndk1::vector<IDDemonPack, std::__ndk1::allocator<IDDemonPack> >::__throw_length_error[abi:ne180000]() const
PUBLIC 34378 0 std::__ndk1::__exception_guard_exceptions<std::__ndk1::_AllocatorDestroyRangeReverse<std::__ndk1::allocator<IDDemonPack>, IDDemonPack*> >::~__exception_guard_exceptions[abi:ne180000]()
PUBLIC 343dc 0 std::__ndk1::__function::__func<IDPackLayer::init()::$_0, std::__ndk1::allocator<IDPackLayer::init()::$_0>, void (CCMenuItemSpriteExtra*)>::~__func()
PUBLIC 343e0 0 std::__ndk1::__function::__func<IDPackLayer::init()::$_0, std::__ndk1::allocator<IDPackLayer::init()::$_0>, void (CCMenuItemSpriteExtra*)>::__clone() const
PUBLIC 34414 0 std::__ndk1::__function::__func<IDPackLayer::init()::$_0, std::__ndk1::allocator<IDPackLayer::init()::$_0>, void (CCMenuItemSpriteExtra*)>::__clone(std::__ndk1::__function::__base<void (CCMenuItemSpriteExtra*)>*) const
PUBLIC 34428 0 std::__ndk1::__function::__func<IDPackLayer::init()::$_0, std::__ndk1::allocator<IDPackLayer::init()::$_0>, void (CCMenuItemSpriteExtra*)>::destroy()
PUBLIC 3442c 0 std::__ndk1::__function::__func<IDPackLayer::init()::$_0, std::__ndk1::allocator<IDPackLayer::init()::$_0>, void (CCMenuItemSpriteExtra*)>::destroy_deallocate()
PUBLIC 34430 0 std::__ndk1::__function::__func<IDPackLayer::init()::$_0, std::__ndk1::allocator<IDPackLayer::init()::$_0>, void (CCMenuItemSpriteExtra*)>::operator()(CCMenuItemSpriteExtra*&&)
PUBLIC 3444c 0 std::__ndk1::__function::__func<IDPackLayer::init()::$_0, std::__ndk1::allocator<IDPackLayer::init()::$_0>, void (CCMenuItemSpriteExtra*)>::target(std::type_info const&) const
PUBLIC 34468 0 std::__ndk1::__function::__func<IDPackLayer::init()::$_0, std::__ndk1::allocator<IDPackLayer::init()::$_0>, void (CCMenuItemSpriteExtra*)>::target_type() const
PUBLIC 34474 0 std::__ndk1::__function::__func<IDPackLayer::init()::$_1, std::__ndk1::allocator<IDPackLayer::init()::$_1>, void (CCMenuItemSpriteExtra*)>::~__func()
PUBLIC 34478 0 std::__ndk1::__function::__func<IDPackLayer::init()::$_1, std::__ndk1::allocator<IDPackLayer::init()::$_1>, void (CCMenuItemSpriteExtra*)>::__clone() const
PUBLIC 344ac 0 std::__ndk1::__function::__func<IDPackLayer::init()::$_1, std::__ndk1::allocator<IDPackLayer::init()::$_1>, void (CCMenuItemSpriteExtra*)>::__clone(std::__ndk1::__function::__base<void (CCMenuItemSpriteExtra*)>*) const
PUBLIC 344c0 0 std::__ndk1::__function::__func<IDPackLayer::init()::$_1, std::__ndk1::allocator<IDPackLayer::init()::$_1>, void (CCMenuItemSpriteExtra*)>::destroy()
PUBLIC 344c4 0 std::__ndk1::__function::__func<IDPackLayer::init()::$_1, std::__ndk1::allocator<IDPackLayer::init()::$_1>, void (CCMenuItemSpriteExtra*)>::destroy_deallocate()
PUBLIC 344c8 0 std::__ndk1::__function::__func<IDPackLayer::init()::$_1, std::__ndk1::allocator<IDPackLayer::init()::$_1>, void (CCMenuItemSpriteExtra*)>::operator()(CCMenuItemSpriteExtra*&&)
PUBLIC 3455c 0 std::__ndk1::__function::__func<IDPackLayer::init()::$_1, std::__ndk1::allocator<IDPackLayer::init()::$_1>, void (CCMenuItemSpriteExtra*)>::target(std::type_info const&) const
PUBLIC 34578 0 std::__ndk1::__function::__func<IDPackLayer::init()::$_1, std::__ndk1::allocator<IDPackLayer::init()::$_1>, void (CCMenuItemSpriteExtra*)>::target_type() const
PUBLIC 34584 0 std::__ndk1::__function::__func<IDPackLayer::init()::$_2, std::__ndk1::allocator<IDPackLayer::init()::$_2>, void (CCMenuItemSpriteExtra*)>::~__func()
PUBLIC 34588 0 std::__ndk1::__function::__func<IDPackLayer::init()::$_2, std::__ndk1::allocator<IDPackLayer::init()::$_2>, void (CCMenuItemSpriteExtra*)>::__clone() const
PUBLIC 345bc 0 std::__ndk1::__function::__func<IDPackLayer::init()::$_2, std::__ndk1::allocator<IDPackLayer::init()::$_2>, void (CCMenuItemSpriteExtra*)>::__clone(std::__ndk1::__function::__base<void (CCMenuItemSpriteExtra*)>*) const
PUBLIC 345d0 0 std::__ndk1::__function::__func<IDPackLayer::init()::$_2, std::__ndk1::allocator<IDPackLayer::init()::$_2>, void (CCMenuItemSpriteExtra*)>::destroy()
PUBLIC 345d4 0 std::__ndk1::__function::__func<IDPackLayer::init()::$_2, std::__ndk1::allocator<IDPackLayer::init()::$_2>, void (CCMenuItemSpriteExtra*)>::destroy_deallocate()
PUBLIC 345d8 0 std::__ndk1::__function::__func<IDPackLayer::init()::$_2, std::__ndk1::allocator<IDPackLayer::init()::$_2>, void (CCMenuItemSpriteExtra*)>::operator()(CCMenuItemSpriteExtra*&&)
PUBLIC 3466c 0 std::__ndk1::__function::__func<IDPackLayer::init()::$_2, std::__ndk1::allocator<IDPackLayer::init()::$_2>, void (CCMenuItemSpriteExtra*)>::target(std::type_info const&) const
PUBLIC 34688 0 std::__ndk1::__function::__func<IDPackLayer::init()::$_2, std::__ndk1::allocator<IDPackLayer::init()::$_2>, void (CCMenuItemSpriteExtra*)>::target_type() const
PUBLIC 34694 0 std::__ndk1::__function::__func<IDPackLayer::init()::$_3, std::__ndk1::allocator<IDPackLayer::init()::$_3>, void (CCMenuItemSpriteExtra*)>::~__func()
PUBLIC 34698 0 std::__ndk1::__function::__func<IDPackLayer::init()::$_3, std::__ndk1::allocator<IDPackLayer::init()::$_3>, void (CCMenuItemSpriteExtra*)>::__clone() const
PUBLIC 346cc 0 std::__ndk1::__function::__func<IDPackLayer::init()::$_3, std::__ndk1::allocator<IDPackLayer::init()::$_3>, void (CCMenuItemSpriteExtra*)>::__clone(std::__ndk1::__function::__base<void (CCMenuItemSpriteExtra*)>*) const
PUBLIC 346e0 0 std::__ndk1::__function::__func<IDPackLayer::init()::$_3, std::__ndk1::allocator<IDPackLayer::init()::$_3>, void (CCMenuItemSpriteExtra*)>::destroy()
PUBLIC 346e4 0 std::__ndk1::__function::__func<IDPackLayer::init()::$_3, std::__ndk1::allocator<IDPackLayer::init()::$_3>, void (CCMenuItemSpriteExtra*)>::destroy_deallocate()
PUBLIC 346e8 0 std::__ndk1::__function::__func<IDPackLayer::init()::$_3, std::__ndk1::allocator<IDPackLayer::init()::$_3>, void (CCMenuItemSpriteExtra*)>::operator()(CCMenuItemSpriteExtra*&&)
PUBLIC 34850 0 std::__ndk1::__function::__func<IDPackLayer::init()::$_3, std::__ndk1::allocator<IDPackLayer::init()::$_3>, void (CCMenuItemSpriteExtra*)>::target(std::type_info const&) const
PUBLIC 3486c 0 std::__ndk1::__function::__func<IDPackLayer::init()::$_3, std::__ndk1::allocator<IDPackLayer::init()::$_3>, void (CCMenuItemSpriteExtra*)>::target_type() const
PUBLIC 34878 0 std::__ndk1::__function::__func<IDPackLayer::init()::$_3::operator()<CCMenuItemSpriteExtra*>(CCMenuItemSpriteExtra*) const::{lambda()#1}, std::__ndk1::allocator<IDPackLayer::init()::$_3::operator()<CCMenuItemSpriteExtra*>(CCMenuItemSpriteExtra*) const::{lambda()#1}>, void ()>::~__func()
PUBLIC 3487c 0 std::__ndk1::__function::__func<IDPackLayer::init()::$_3::operator()<CCMenuItemSpriteExtra*>(CCMenuItemSpriteExtra*) const::{lambda()#1}, std::__ndk1::allocator<IDPackLayer::init()::$_3::operator()<CCMenuItemSpriteExtra*>(CCMenuItemSpriteExtra*) const::{lambda()#1}>, void ()>::__clone() const
PUBLIC 348b0 0 std::__ndk1::__function::__func<IDPackLayer::init()::$_3::operator()<CCMenuItemSpriteExtra*>(CCMenuItemSpriteExtra*) const::{lambda()#1}, std::__ndk1::allocator<IDPackLayer::init()::$_3::operator()<CCMenuItemSpriteExtra*>(CCMenuItemSpriteExtra*) const::{lambda()#1}>, void ()>::__clone(std::__ndk1::__function::__base<void ()>*) const
PUBLIC 348c4 0 std::__ndk1::__function::__func<IDPackLayer::init()::$_3::operator()<CCMenuItemSpriteExtra*>(CCMenuItemSpriteExtra*) const::{lambda()#1}, std::__ndk1::allocator<IDPackLayer::init()::$_3::operator()<CCMenuItemSpriteExtra*>(CCMenuItemSpriteExtra*) const::{lambda()#1}>, void ()>::destroy()
PUBLIC 348c8 0 std::__ndk1::__function::__func<IDPackLayer::init()::$_3::operator()<CCMenuItemSpriteExtra*>(CCMenuItemSpriteExtra*) const::{lambda()#1}, std::__ndk1::allocator<IDPackLayer::init()::$_3::operator()<CCMenuItemSpriteExtra*>(CCMenuItemSpriteExtra*) const::{lambda()#1}>, void ()>::destroy_deallocate()
PUBLIC 348cc 0 std::__ndk1::__function::__func<IDPackLayer::init()::$_3::operator()<CCMenuItemSpriteExtra*>(CCMenuItemSpriteExtra*) const::{lambda()#1}, std::__ndk1::allocator<IDPackLayer::init()::$_3::operator()<CCMenuItemSpriteExtra*>(CCMenuItemSpriteExtra*) const::{lambda()#1}>, void ()>::operator()()
PUBLIC 348d8 0 std::__ndk1::__function::__func<IDPackLayer::init()::$_3::operator()<CCMenuItemSpriteExtra*>(CCMenuItemSpriteExtra*) const::{lambda()#1}, std::__ndk1::allocator<IDPackLayer::init()::$_3::operator()<CCMenuItemSpriteExtra*>(CCMenuItemSpriteExtra*) const::{lambda()#1}>, void ()>::target(std::type_info const&) const
PUBLIC 348f4 0 std::__ndk1::__function::__func<IDPackLayer::init()::$_3::operator()<CCMenuItemSpriteExtra*>(CCMenuItemSpriteExtra*) const::{lambda()#1}, std::__ndk1::allocator<IDPackLayer::init()::$_3::operator()<CCMenuItemSpriteExtra*>(CCMenuItemSpriteExtra*) const::{lambda()#1}>, void ()>::target_type() const
PUBLIC 34900 0 std::__ndk1::__function::__func<IDPackLayer::init()::$_4, std::__ndk1::allocator<IDPackLayer::init()::$_4>, void (CCMenuItemSpriteExtra*)>::~__func()
PUBLIC 34904 0 std::__ndk1::__function::__func<IDPackLayer::init()::$_4, std::__ndk1::allocator<IDPackLayer::init()::$_4>, void (CCMenuItemSpriteExtra*)>::__clone() const
PUBLIC 34938 0 std::__ndk1::__function::__func<IDPackLayer::init()::$_4, std::__ndk1::allocator<IDPackLayer::init()::$_4>, void (CCMenuItemSpriteExtra*)>::__clone(std::__ndk1::__function::__base<void (CCMenuItemSpriteExtra*)>*) const
PUBLIC 3494c 0 std::__ndk1::__function::__func<IDPackLayer::init()::$_4, std::__ndk1::allocator<IDPackLayer::init()::$_4>, void (CCMenuItemSpriteExtra*)>::destroy()
PUBLIC 34950 0 std::__ndk1::__function::__func<IDPackLayer::init()::$_4, std::__ndk1::allocator<IDPackLayer::init()::$_4>, void (CCMenuItemSpriteExtra*)>::destroy_deallocate()
PUBLIC 34954 0 std::__ndk1::__function::__func<IDPackLayer::init()::$_4, std::__ndk1::allocator<IDPackLayer::init()::$_4>, void (CCMenuItemSpriteExtra*)>::operator()(CCMenuItemSpriteExtra*&&)
PUBLIC 34a90 0 std::__ndk1::__function::__func<IDPackLayer::init()::$_4, std::__ndk1::allocator<IDPackLayer::init()::$_4>, void (CCMenuItemSpriteExtra*)>::target(std::type_info const&) const
PUBLIC 34aac 0 std::__ndk1::__function::__func<IDPackLayer::init()::$_4, std::__ndk1::allocator<IDPackLayer::init()::$_4>, void (CCMenuItemSpriteExtra*)>::target_type() const
PUBLIC 34ab8 0 std::__ndk1::__function::__func<IDPackLayer::init()::$_5, std::__ndk1::allocator<IDPackLayer::init()::$_5>, void (CCMenuItemSpriteExtra*)>::~__func()
PUBLIC 34abc 0 std::__ndk1::__function::__func<IDPackLayer::init()::$_5, std::__ndk1::allocator<IDPackLayer::init()::$_5>, void (CCMenuItemSpriteExtra*)>::__clone() const
PUBLIC 34af0 0 std::__ndk1::__function::__func<IDPackLayer::init()::$_5, std::__ndk1::allocator<IDPackLayer::init()::$_5>, void (CCMenuItemSpriteExtra*)>::__clone(std::__ndk1::__function::__base<void (CCMenuItemSpriteExtra*)>*) const
PUBLIC 34b04 0 std::__ndk1::__function::__func<IDPackLayer::init()::$_5, std::__ndk1::allocator<IDPackLayer::init()::$_5>, void (CCMenuItemSpriteExtra*)>::destroy()
PUBLIC 34b08 0 std::__ndk1::__function::__func<IDPackLayer::init()::$_5, std::__ndk1::allocator<IDPackLayer::init()::$_5>, void (CCMenuItemSpriteExtra*)>::destroy_deallocate()
PUBLIC 34b0c 0 std::__ndk1::__function::__func<IDPackLayer::init()::$_5, std::__ndk1::allocator<IDPackLayer::init()::$_5>, void (CCMenuItemSpriteExtra*)>::operator()(CCMenuItemSpriteExtra*&&)
PUBLIC 34cc8 0 std::__ndk1::__function::__func<IDPackLayer::init()::$_5, std::__ndk1::allocator<IDPackLayer::init()::$_5>, void (CCMenuItemSpriteExtra*)>::target(std::type_info const&) const
PUBLIC 34ce4 0 std::__ndk1::__function::__func<IDPackLayer::init()::$_5, std::__ndk1::allocator<IDPackLayer::init()::$_5>, void (CCMenuItemSpriteExtra*)>::target_type() const
PUBLIC 34cf0 0 std::__ndk1::__function::__func<IDPackLayer::init()::$_6, std::__ndk1::allocator<IDPackLayer::init()::$_6>, void (CCMenuItemSpriteExtra*)>::~__func()
PUBLIC 34cf4 0 std::__ndk1::__function::__func<IDPackLayer::init()::$_6, std::__ndk1::allocator<IDPackLayer::init()::$_6>, void (CCMenuItemSpriteExtra*)>::__clone() const
PUBLIC 34d28 0 std::__ndk1::__function::__func<IDPackLayer::init()::$_6, std::__ndk1::allocator<IDPackLayer::init()::$_6>, void (CCMenuItemSpriteExtra*)>::__clone(std::__ndk1::__function::__base<void (CCMenuItemSpriteExtra*)>*) const
PUBLIC 34d3c 0 std::__ndk1::__function::__func<IDPackLayer::init()::$_6, std::__ndk1::allocator<IDPackLayer::init()::$_6>, void (CCMenuItemSpriteExtra*)>::destroy()
PUBLIC 34d40 0 std::__ndk1::__function::__func<IDPackLayer::init()::$_6, std::__ndk1::allocator<IDPackLayer::init()::$_6>, void (CCMenuItemSpriteExtra*)>::destroy_deallocate()
PUBLIC 34d44 0 std::__ndk1::__function::__func<IDPackLayer::init()::$_6, std::__ndk1::allocator<IDPackLayer::init()::$_6>, void (CCMenuItemSpriteExtra*)>::operator()(CCMenuItemSpriteExtra*&&)
PUBLIC 34ddc 0 std::__ndk1::__function::__func<IDPackLayer::init()::$_6, std::__ndk1::allocator<IDPackLayer::init()::$_6>, void (CCMenuItemSpriteExtra*)>::target(std::type_info const&) const
PUBLIC 34df8 0 std::__ndk1::__function::__func<IDPackLayer::init()::$_6, std::__ndk1::allocator<IDPackLayer::init()::$_6>, void (CCMenuItemSpriteExtra*)>::target_type() const
PUBLIC 34e04 0 std::__ndk1::__function::__func<IDPackLayer::init()::$_7, std::__ndk1::allocator<IDPackLayer::init()::$_7>, void (CCMenuItemSpriteExtra*)>::~__func()
PUBLIC 34e08 0 std::__ndk1::__function::__func<IDPackLayer::init()::$_7, std::__ndk1::allocator<IDPackLayer::init()::$_7>, void (CCMenuItemSpriteExtra*)>::__clone() const
PUBLIC 34e3c 0 std::__ndk1::__function::__func<IDPackLayer::init()::$_7, std::__ndk1::allocator<IDPackLayer::init()::$_7>, void (CCMenuItemSpriteExtra*)>::__clone(std::__ndk1::__function::__base<void (CCMenuItemSpriteExtra*)>*) const
PUBLIC 34e50 0 std::__ndk1::__function::__func<IDPackLayer::init()::$_7, std::__ndk1::allocator<IDPackLayer::init()::$_7>, void (CCMenuItemSpriteExtra*)>::destroy()
PUBLIC 34e54 0 std::__ndk1::__function::__func<IDPackLayer::init()::$_7, std::__ndk1::allocator<IDPackLayer::init()::$_7>, void (CCMenuItemSpriteExtra*)>::destroy_deallocate()
PUBLIC 34e58 0 std::__ndk1::__function::__func<IDPackLayer::init()::$_7, std::__ndk1::allocator<IDPackLayer::init()::$_7>, void (CCMenuItemSpriteExtra*)>::operator()(CCMenuItemSpriteExtra*&&)
PUBLIC 34e88 0 std::__ndk1::__function::__func<IDPackLayer::init()::$_7, std::__ndk1::allocator<IDPackLayer::init()::$_7>, void (CCMenuItemSpriteExtra*)>::target(std::type_info const&) const
PUBLIC 34ea4 0 std::__ndk1::__function::__func<IDPackLayer::init()::$_7, std::__ndk1::allocator<IDPackLayer::init()::$_7>, void (CCMenuItemSpriteExtra*)>::target_type() const
PUBLIC 34eb0 0 std::__ndk1::__function::__func<IDPackLayer::init()::$_8, std::__ndk1::allocator<IDPackLayer::init()::$_8>, void ()>::~__func()
PUBLIC 34eb4 0 std::__ndk1::__function::__func<IDPackLayer::init()::$_8, std::__ndk1::allocator<IDPackLayer::init()::$_8>, void ()>::__clone() const
PUBLIC 34ee8 0 std::__ndk1::__function::__func<IDPackLayer::init()::$_8, std::__ndk1::allocator<IDPackLayer::init()::$_8>, void ()>::__clone(std::__ndk1::__function::__base<void ()>*) const
PUBLIC 34efc 0 std::__ndk1::__function::__func<IDPackLayer::init()::$_8, std::__ndk1::allocator<IDPackLayer::init()::$_8>, void ()>::destroy()
PUBLIC 34f00 0 std::__ndk1::__function::__func<IDPackLayer::init()::$_8, std::__ndk1::allocator<IDPackLayer::init()::$_8>, void ()>::destroy_deallocate()
PUBLIC 34f04 0 std::__ndk1::__function::__func<IDPackLayer::init()::$_8, std::__ndk1::allocator<IDPackLayer::init()::$_8>, void ()>::operator()()
PUBLIC 34f90 0 std::__ndk1::__function::__func<IDPackLayer::init()::$_8, std::__ndk1::allocator<IDPackLayer::init()::$_8>, void ()>::target(std::type_info const&) const
PUBLIC 34fac 0 std::__ndk1::__function::__func<IDPackLayer::init()::$_8, std::__ndk1::allocator<IDPackLayer::init()::$_8>, void ()>::target_type() const
PUBLIC 34fb8 0 std::__ndk1::__function::__func<IDPackLayer::failure()::$_0, std::__ndk1::allocator<IDPackLayer::failure()::$_0>, void (int)>::~__func()
PUBLIC 34fbc 0 std::__ndk1::__function::__func<IDPackLayer::failure()::$_0, std::__ndk1::allocator<IDPackLayer::failure()::$_0>, void (int)>::__clone() const
PUBLIC 34ff0 0 std::__ndk1::__function::__func<IDPackLayer::failure()::$_0, std::__ndk1::allocator<IDPackLayer::failure()::$_0>, void (int)>::__clone(std::__ndk1::__function::__base<void (int)>*) const
PUBLIC 35004 0 std::__ndk1::__function::__func<IDPackLayer::failure()::$_0, std::__ndk1::allocator<IDPackLayer::failure()::$_0>, void (int)>::destroy()
PUBLIC 35008 0 std::__ndk1::__function::__func<IDPackLayer::failure()::$_0, std::__ndk1::allocator<IDPackLayer::failure()::$_0>, void (int)>::destroy_deallocate()
PUBLIC 3500c 0 std::__ndk1::__function::__func<IDPackLayer::failure()::$_0, std::__ndk1::allocator<IDPackLayer::failure()::$_0>, void (int)>::operator()(int&&)
PUBLIC 3522c 0 std::__ndk1::__function::__func<IDPackLayer::failure()::$_0, std::__ndk1::allocator<IDPackLayer::failure()::$_0>, void (int)>::target(std::type_info const&) const
PUBLIC 35248 0 std::__ndk1::__function::__func<IDPackLayer::failure()::$_0, std::__ndk1::allocator<IDPackLayer::failure()::$_0>, void (int)>::target_type() const
PUBLIC 35254 0 std::__ndk1::__function::__func<IDPackLayer::addSearchBar()::$_0, std::__ndk1::allocator<IDPackLayer::addSearchBar()::$_0>, void (CCMenuItemSpriteExtra*)>::~__func()
PUBLIC 35258 0 std::__ndk1::__function::__func<IDPackLayer::addSearchBar()::$_0, std::__ndk1::allocator<IDPackLayer::addSearchBar()::$_0>, void (CCMenuItemSpriteExtra*)>::__clone() const
PUBLIC 3528c 0 std::__ndk1::__function::__func<IDPackLayer::addSearchBar()::$_0, std::__ndk1::allocator<IDPackLayer::addSearchBar()::$_0>, void (CCMenuItemSpriteExtra*)>::__clone(std::__ndk1::__function::__base<void (CCMenuItemSpriteExtra*)>*) const
PUBLIC 352a0 0 std::__ndk1::__function::__func<IDPackLayer::addSearchBar()::$_0, std::__ndk1::allocator<IDPackLayer::addSearchBar()::$_0>, void (CCMenuItemSpriteExtra*)>::destroy()
PUBLIC 352a4 0 std::__ndk1::__function::__func<IDPackLayer::addSearchBar()::$_0, std::__ndk1::allocator<IDPackLayer::addSearchBar()::$_0>, void (CCMenuItemSpriteExtra*)>::destroy_deallocate()
PUBLIC 352a8 0 std::__ndk1::__function::__func<IDPackLayer::addSearchBar()::$_0, std::__ndk1::allocator<IDPackLayer::addSearchBar()::$_0>, void (CCMenuItemSpriteExtra*)>::operator()(CCMenuItemSpriteExtra*&&)
PUBLIC 352b0 0 std::__ndk1::__function::__func<IDPackLayer::addSearchBar()::$_0, std::__ndk1::allocator<IDPackLayer::addSearchBar()::$_0>, void (CCMenuItemSpriteExtra*)>::target(std::type_info const&) const
PUBLIC 352cc 0 std::__ndk1::__function::__func<IDPackLayer::addSearchBar()::$_0, std::__ndk1::allocator<IDPackLayer::addSearchBar()::$_0>, void (CCMenuItemSpriteExtra*)>::target_type() const
PUBLIC 352d8 0 std::__ndk1::__function::__func<IDPackLayer::addSearchBar()::$_1, std::__ndk1::allocator<IDPackLayer::addSearchBar()::$_1>, void (CCMenuItemSpriteExtra*)>::~__func()
PUBLIC 352dc 0 std::__ndk1::__function::__func<IDPackLayer::addSearchBar()::$_1, std::__ndk1::allocator<IDPackLayer::addSearchBar()::$_1>, void (CCMenuItemSpriteExtra*)>::__clone() const
PUBLIC 35310 0 std::__ndk1::__function::__func<IDPackLayer::addSearchBar()::$_1, std::__ndk1::allocator<IDPackLayer::addSearchBar()::$_1>, void (CCMenuItemSpriteExtra*)>::__clone(std::__ndk1::__function::__base<void (CCMenuItemSpriteExtra*)>*) const
PUBLIC 35324 0 std::__ndk1::__function::__func<IDPackLayer::addSearchBar()::$_1, std::__ndk1::allocator<IDPackLayer::addSearchBar()::$_1>, void (CCMenuItemSpriteExtra*)>::destroy()
PUBLIC 35328 0 std::__ndk1::__function::__func<IDPackLayer::addSearchBar()::$_1, std::__ndk1::allocator<IDPackLayer::addSearchBar()::$_1>, void (CCMenuItemSpriteExtra*)>::destroy_deallocate()
PUBLIC 3532c 0 std::__ndk1::__function::__func<IDPackLayer::addSearchBar()::$_1, std::__ndk1::allocator<IDPackLayer::addSearchBar()::$_1>, void (CCMenuItemSpriteExtra*)>::operator()(CCMenuItemSpriteExtra*&&)
PUBLIC 35334 0 std::__ndk1::__function::__func<IDPackLayer::addSearchBar()::$_1, std::__ndk1::allocator<IDPackLayer::addSearchBar()::$_1>, void (CCMenuItemSpriteExtra*)>::target(std::type_info const&) const
PUBLIC 35350 0 std::__ndk1::__function::__func<IDPackLayer::addSearchBar()::$_1, std::__ndk1::allocator<IDPackLayer::addSearchBar()::$_1>, void (CCMenuItemSpriteExtra*)>::target_type() const
PUBLIC 3535c 0 std::__ndk1::__function::__func<IDPackLayer::addSearchBar()::$_2, std::__ndk1::allocator<IDPackLayer::addSearchBar()::$_2>, void (std::__ndk1::basic_string<char, std::__ndk1::char_traits<char>, std::__ndk1::allocator<char> > const&)>::~__func()
PUBLIC 35360 0 std::__ndk1::__function::__func<IDPackLayer::addSearchBar()::$_2, std::__ndk1::allocator<IDPackLayer::addSearchBar()::$_2>, void (std::__ndk1::basic_string<char, std::__ndk1::char_traits<char>, std::__ndk1::allocator<char> > const&)>::__clone() const
PUBLIC 35394 0 std::__ndk1::__function::__func<IDPackLayer::addSearchBar()::$_2, std::__ndk1::allocator<IDPackLayer::addSearchBar()::$_2>, void (std::__ndk1::basic_string<char, std::__ndk1::char_traits<char>, std::__ndk1::allocator<char> > const&)>::__clone(std::__ndk1::__function::__base<void (std::__ndk1::basic_string<char, std::__ndk1::char_traits<char>, std::__ndk1::allocator<char> > const&)>*) const
PUBLIC 353a8 0 std::__ndk1::__function::__func<IDPackLayer::addSearchBar()::$_2, std::__ndk1::allocator<IDPackLayer::addSearchBar()::$_2>, void (std::__ndk1::basic_string<char, std::__ndk1::char_traits<char>, std::__ndk1::allocator<char> > const&)>::destroy()
PUBLIC 353ac 0 std::__ndk1::__function::__func<IDPackLayer::addSearchBar()::$_2, std::__ndk1::allocator<IDPackLayer::addSearchBar()::$_2>, void (std::__ndk1::basic_string<char, std::__ndk1::char_traits<char>, std::__ndk1::allocator<char> > const&)>::destroy_deallocate()
PUBLIC 353b0 0 std::__ndk1::__function::__func<IDPackLayer::addSearchBar()::$_2, std::__ndk1::allocator<IDPackLayer::addSearchBar()::$_2>, void (std::__ndk1::basic_string<char, std::__ndk1::char_traits<char>, std::__ndk1::allocator<char> > const&)>::operator()(std::__ndk1::basic_string<char, std::__ndk1::char_traits<char>, std::__ndk1::allocator<char> > const&)
PUBLIC 35408 0 std::__ndk1::__function::__func<IDPackLayer::addSearchBar()::$_2, std::__ndk1::allocator<IDPackLayer::addSearchBar()::$_2>, void (std::__ndk1::basic_string<char, std::__ndk1::char_traits<char>, std::__ndk1::allocator<char> > const&)>::target(std::type_info const&) const
PUBLIC 35424 0 std::__ndk1::__function::__func<IDPackLayer::addSearchBar()::$_2, std::__ndk1::allocator<IDPackLayer::addSearchBar()::$_2>, void (std::__ndk1::basic_string<char, std::__ndk1::char_traits<char>, std::__ndk1::allocator<char> > const&)>::target_type() const
PUBLIC 35430 0 std::__ndk1::construct_at[abi:ne180000]<IDDemonPack, std::__ndk1::construct_at[abi:ne180000] const&, std::__ndk1::construct_at[abi:ne180000]*>(IDDemonPack, std::__ndk1::construct_at[abi:ne180000] const&)
PUBLIC 35514 0 std::__ndk1::__split_buffer<IDDemonPack, std::__ndk1::allocator<IDDemonPack>&>::~__split_buffer()
PUBLIC 35590 0 std::__ndk1::__function::__func<IDPackLayer::search()::$_0, std::__ndk1::allocator<IDPackLayer::search()::$_0>, void ()>::~__func()
PUBLIC 35594 0 std::__ndk1::__function::__func<IDPackLayer::search()::$_0, std::__ndk1::allocator<IDPackLayer::search()::$_0>, void ()>::__clone() const
PUBLIC 355c8 0 std::__ndk1::__function::__func<IDPackLayer::search()::$_0, std::__ndk1::allocator<IDPackLayer::search()::$_0>, void ()>::__clone(std::__ndk1::__function::__base<void ()>*) const
PUBLIC 355dc 0 std::__ndk1::__function::__func<IDPackLayer::search()::$_0, std::__ndk1::allocator<IDPackLayer::search()::$_0>, void ()>::destroy()
PUBLIC 355e0 0 std::__ndk1::__function::__func<IDPackLayer::search()::$_0, std::__ndk1::allocator<IDPackLayer::search()::$_0>, void ()>::destroy_deallocate()
PUBLIC 355e4 0 std::__ndk1::__function::__func<IDPackLayer::search()::$_0, std::__ndk1::allocator<IDPackLayer::search()::$_0>, void ()>::operator()()
PUBLIC 355f4 0 std::__ndk1::__function::__func<IDPackLayer::search()::$_0, std::__ndk1::allocator<IDPackLayer::search()::$_0>, void ()>::target(std::type_info const&) const
PUBLIC 35610 0 std::__ndk1::__function::__func<IDPackLayer::search()::$_0, std::__ndk1::allocator<IDPackLayer::search()::$_0>, void ()>::target_type() const
PUBLIC 3561c 0 __cxx_global_var_init.3
PUBLIC 35a9c 0 geode::modifier::ModifyBase<geode::modifier::ModifyDerive<IDLevelBrowserLayer, LevelBrowserLayer> >::~ModifyBase()
PUBLIC 35ab8 0 geode::modifier::ModifyDerive<IDLevelBrowserLayer, LevelBrowserLayer>::apply()
PUBLIC 35e38 0 std::__ndk1::shared_ptr<geode::Hook>::~shared_ptr[abi:ne180000]()
PUBLIC 35e88 0 geode::impl::ResultData<geode::Hook*, std::__ndk1::basic_string<char, std::__ndk1::char_traits<char>, std::__ndk1::allocator<char> > >::~ResultData()
PUBLIC 35efc 0 geode::modifier::ModifyBase<geode::modifier::ModifyDerive<IDLevelBrowserLayer, LevelBrowserLayer> >::apply()
PUBLIC 35f00 0 _ZN5geode15UnwrapExceptionC2IRPNS_4HookEQsr4implE18IsStringStreamableIT_EEENS_4impl5OkTagEOS5_
PUBLIC 36054 0 std::__ndk1::__throw_bad_variant_access[abi:ne180000]()
PUBLIC 36088 0 std::__ndk1::basic_stringstream<char, std::__ndk1::char_traits<char>, std::__ndk1::allocator<char> >::basic_stringstream[abi:ne180000]()
PUBLIC m 361b4 0 std::__ndk1::basic_stringstream<char, std::__ndk1::char_traits<char>, std::__ndk1::allocator<char> >::~basic_stringstream()
PUBLIC 36234 0 geode::UnwrapException::~UnwrapException()
PUBLIC 36258 0 std::__ndk1::__put_character_sequence[abi:ne180000]<char, std::__ndk1::char_traits<char> >(std::__ndk1::basic_ostream<char, std::__ndk1::char_traits<char> >, std::__ndk1::basic_ostream const*, unsigned long)
PUBLIC 363fc 0 std::__ndk1::__pad_and_output[abi:ne180000]<char, std::__ndk1::char_traits<char> >(std::__ndk1::char_traits<char>, std::__ndk1::ostreambuf_iterator const*, std::__ndk1::ostreambuf_iterator const, std::__ndk1::ostreambuf_iterator const, std::__ndk1::ios_base&, std::__ndk1::ostreambuf_iterator)
PUBLIC 365d8 0 std::__ndk1::basic_stringbuf<char, std::__ndk1::char_traits<char>, std::__ndk1::allocator<char> >::str[abi:ne180000]() &&
PUBLIC 36750 0 std::__ndk1::basic_stringbuf<char, std::__ndk1::char_traits<char>, std::__ndk1::allocator<char> >::__init_buf_ptrs[abi:ne180000]()
PUBLIC 36898 0 std::__ndk1::vector<std::__ndk1::basic_string<char, std::__ndk1::char_traits<char>, std::__ndk1::allocator<char> >, std::__ndk1::allocator<std::__ndk1::basic_string<char, std::__ndk1::char_traits<char>, std::__ndk1::allocator<char> > > >::__push_back_slow_path<std::__ndk1::basic_string<char, std::__ndk1::char_traits<char>, std::__ndk1::allocator<char> > const&>(std::__ndk1::basic_string<char, std::__ndk1::char_traits<char>, std::__ndk1::allocator<char> > const&)
PUBLIC 36ac0 0 std::__ndk1::__split_buffer<std::__ndk1::basic_string<char, std::__ndk1::char_traits<char>, std::__ndk1::allocator<char> >, std::__ndk1::allocator<std::__ndk1::basic_string<char, std::__ndk1::char_traits<char>, std::__ndk1::allocator<char> > >&>::~__split_buffer()
PUBLIC 36b28 0 std::__ndk1::__variant_detail::__visitation::__base::__dispatcher<(unsigned long)0>::__dispatch[abi:ne180000]<std::__ndk1::__variant_detail::__dtor<std::__ndk1::__variant_detail::__traits<geode::Hook*, std::__ndk1::basic_string<char, std::__ndk1::char_traits<char>, std::__ndk1::allocator<char> > >, (std::__ndk1::__variant_detail::_Trait)1>::__destroy[abi:ne180000]()::{lambda(auto:1&)#1}, std::__ndk1::__variant_detail::__base<(std::__ndk1::__variant_detail::__traits<geode::Hook*, std::__ndk1::basic_string<char, std::__ndk1::char_traits<char>, std::__ndk1::allocator<char> > >)1, geode::Hook, std::__ndk1::allocator<char> >&>(std::__ndk1::__variant_detail::__dtor<std::__ndk1::__variant_detail::__traits<geode::Hook*, std::__ndk1::basic_string<char, std::__ndk1::char_traits<char>, std::__ndk1::allocator<char> > >, (std::__ndk1::__variant_detail::_Trait)1>, std::__ndk1::__variant_detail::__base<(std::__ndk1::__variant_detail::__traits<geode::Hook*, std::__ndk1::basic_string<char, std::__ndk1::char_traits<char>, std::__ndk1::allocator<char> > >)1, geode::Hook, std::__ndk1::allocator<char> >&)
PUBLIC 36b2c 0 std::__ndk1::__variant_detail::__visitation::__base::__dispatcher<(unsigned long)1>::__dispatch[abi:ne180000]<std::__ndk1::__variant_detail::__dtor<std::__ndk1::__variant_detail::__traits<geode::Hook*, std::__ndk1::basic_string<char, std::__ndk1::char_traits<char>, std::__ndk1::allocator<char> > >, (std::__ndk1::__variant_detail::_Trait)1>::__destroy[abi:ne180000]()::{lambda(auto:1&)#1}, std::__ndk1::__variant_detail::__base<(std::__ndk1::__variant_detail::__traits<geode::Hook*, std::__ndk1::basic_string<char, std::__ndk1::char_traits<char>, std::__ndk1::allocator<char> > >)1, geode::Hook, std::__ndk1::allocator<char> >&>(std::__ndk1::__variant_detail::__dtor<std::__ndk1::__variant_detail::__traits<geode::Hook*, std::__ndk1::basic_string<char, std::__ndk1::char_traits<char>, std::__ndk1::allocator<char> > >, (std::__ndk1::__variant_detail::_Trait)1>, std::__ndk1::__variant_detail::__base<(std::__ndk1::__variant_detail::__traits<geode::Hook*, std::__ndk1::basic_string<char, std::__ndk1::char_traits<char>, std::__ndk1::allocator<char> > >)1, geode::Hook, std::__ndk1::allocator<char> >&)
PUBLIC 36b40 0 std::__ndk1::__tree<std::__ndk1::__value_type<std::__ndk1::basic_string<char, std::__ndk1::char_traits<char>, std::__ndk1::allocator<char> >, std::__ndk1::shared_ptr<geode::Hook> >, std::__ndk1::__map_value_compare<std::__ndk1::basic_string<char, std::__ndk1::char_traits<char>, std::__ndk1::allocator<char> >, std::__ndk1::__value_type<std::__ndk1::basic_string<char, std::__ndk1::char_traits<char>, std::__ndk1::allocator<char> >, std::__ndk1::shared_ptr<geode::Hook> >, std::__ndk1::less<std::__ndk1::basic_string<char, std::__ndk1::char_traits<char>, std::__ndk1::allocator<char> > >, true>, std::__ndk1::allocator<std::__ndk1::__value_type<std::__ndk1::basic_string<char, std::__ndk1::char_traits<char>, std::__ndk1::allocator<char> >, std::__ndk1::shared_ptr<geode::Hook> > > >::find<std::__ndk1::basic_string<char, std::__ndk1::char_traits<char>, std::__ndk1::allocator<char> > >(std::__ndk1::basic_string<char, std::__ndk1::char_traits<char>, std::__ndk1::allocator<char> > const&)
PUBLIC 36c60 0 std::__ndk1::__tree<std::__ndk1::__value_type<std::__ndk1::basic_string<char, std::__ndk1::char_traits<char>, std::__ndk1::allocator<char> >, std::__ndk1::shared_ptr<geode::Hook> >, std::__ndk1::__map_value_compare<std::__ndk1::basic_string<char, std::__ndk1::char_traits<char>, std::__ndk1::allocator<char> >, std::__ndk1::__value_type<std::__ndk1::basic_string<char, std::__ndk1::char_traits<char>, std::__ndk1::allocator<char> >, std::__ndk1::shared_ptr<geode::Hook> >, std::__ndk1::less<std::__ndk1::basic_string<char, std::__ndk1::char_traits<char>, std::__ndk1::allocator<char> > >, true>, std::__ndk1::allocator<std::__ndk1::__value_type<std::__ndk1::basic_string<char, std::__ndk1::char_traits<char>, std::__ndk1::allocator<char> >, std::__ndk1::shared_ptr<geode::Hook> > > >::erase(std::__ndk1::__tree_const_iterator<std::__ndk1::__value_type<std::__ndk1::basic_string<char, std::__ndk1::char_traits<char>, std::__ndk1::allocator<char> >, std::__ndk1::shared_ptr<geode::Hook> >, std::__ndk1::__tree_node<std::__ndk1::__value_type<std::__ndk1::basic_string<char, std::__ndk1::char_traits<char>, std::__ndk1::allocator<char> >, std::__ndk1::shared_ptr<geode::Hook> >, void*>*, long>)
PUBLIC 36d34 0 std::__ndk1::__tree_remove[abi:ne180000]<std::__ndk1::__tree_node_base<void*>*>(std::__ndk1::__tree_node_base<void*>*, std::__ndk1::__tree_node_base<void*>*)
PUBLIC 370fc 0 std::__ndk1::__tree<std::__ndk1::__value_type<std::__ndk1::basic_string<char, std::__ndk1::char_traits<char>, std::__ndk1::allocator<char> >, std::__ndk1::shared_ptr<geode::Hook> >, std::__ndk1::__map_value_compare<std::__ndk1::basic_string<char, std::__ndk1::char_traits<char>, std::__ndk1::allocator<char> >, std::__ndk1::__value_type<std::__ndk1::basic_string<char, std::__ndk1::char_traits<char>, std::__ndk1::allocator<char> >, std::__ndk1::shared_ptr<geode::Hook> >, std::__ndk1::less<std::__ndk1::basic_string<char, std::__ndk1::char_traits<char>, std::__ndk1::allocator<char> > >, true>, std::__ndk1::allocator<std::__ndk1::__value_type<std::__ndk1::basic_string<char, std::__ndk1::char_traits<char>, std::__ndk1::allocator<char> >, std::__ndk1::shared_ptr<geode::Hook> > > >::destroy(std::__ndk1::__tree_node<std::__ndk1::__value_type<std::__ndk1::basic_string<char, std::__ndk1::char_traits<char>, std::__ndk1::allocator<char> >, std::__ndk1::shared_ptr<geode::Hook> >, void*>*)
PUBLIC 37188 0 geode::modifier::AsStaticFunction_init<IDLevelBrowserLayer, bool (IDLevelBrowserLayer::*)(GJSearchObject*)>::Impl<bool (IDLevelBrowserLayer::*)(GJSearchObject*)>::function(IDLevelBrowserLayer*, GJSearchObject*)
PUBLIC 373ac 0 std::__ndk1::shared_ptr<tulip::hook::CallingConvention>::~shared_ptr[abi:ne180000]()
PUBLIC 373fc 0 tulip::hook::HandlerMetadata::~HandlerMetadata()
PUBLIC 37460 0 IDLevelBrowserLayer::onDemonlistPacks(cocos2d::CCObject*)
PUBLIC 37520 0 std::__ndk1::__tree<std::__ndk1::__value_type<std::__ndk1::basic_string<char, std::__ndk1::char_traits<char>, std::__ndk1::allocator<char> >, std::__ndk1::shared_ptr<geode::Hook> >, std::__ndk1::__map_value_compare<std::__ndk1::basic_string<char, std::__ndk1::char_traits<char>, std::__ndk1::allocator<char> >, std::__ndk1::__value_type<std::__ndk1::basic_string<char, std::__ndk1::char_traits<char>, std::__ndk1::allocator<char> >, std::__ndk1::shared_ptr<geode::Hook> >, std::__ndk1::less<std::__ndk1::basic_string<char, std::__ndk1::char_traits<char>, std::__ndk1::allocator<char> > >, true>, std::__ndk1::allocator<std::__ndk1::__value_type<std::__ndk1::basic_string<char, std::__ndk1::char_traits<char>, std::__ndk1::allocator<char> >, std::__ndk1::shared_ptr<geode::Hook> > > >::__emplace_unique_key_args<std::__ndk1::basic_string<char, std::__ndk1::char_traits<char>, std::__ndk1::allocator<char> >, std::__ndk1::piecewise_construct_t const&, std::__ndk1::tuple<std::__ndk1::basic_string<char, std::__ndk1::char_traits<char>, std::__ndk1::allocator<char> >&&>, std::__ndk1::tuple<> >(std::__ndk1::basic_string<char, std::__ndk1::char_traits<char>, std::__ndk1::allocator<char> > const&, std::__ndk1::piecewise_construct_t const&, std::__ndk1::tuple<std::__ndk1::basic_string<char, std::__ndk1::char_traits<char>, std::__ndk1::allocator<char> >&&>, std::__ndk1::tuple<>)
PUBLIC 37698 0 std::__ndk1::__tree_balance_after_insert[abi:ne180000]<std::__ndk1::__tree_node_base<void*>*>(std::__ndk1::__tree_node_base<void*>*, std::__ndk1::__tree_node_base<void*>*)
PUBLIC 37848 0 __cxx_global_var_init.3
PUBLIC 378b4 0 std::__ndk1::set<int, std::__ndk1::less<int>, std::__ndk1::allocator<int> >::~set[abi:ne180000]()
PUBLIC 378bc 0 __cxx_global_var_init.4
PUBLIC 382c8 0 geode::modifier::ModifyBase<geode::modifier::ModifyDerive<IDLevelCell, LevelCell> >::~ModifyBase()
PUBLIC 382e4 0 geode::modifier::ModifyDerive<IDLevelCell, LevelCell>::apply()
PUBLIC 38624 0 geode::modifier::ModifyBase<geode::modifier::ModifyDerive<IDLevelCell, LevelCell> >::apply()
PUBLIC 38628 0 geode::Mod::getSettingValue<bool>(std::__ndk1::basic_string_view<char, std::__ndk1::char_traits<char> >) const
PUBLIC 3875c 0 std::__ndk1::unique_ptr<std::__ndk1::__tree_node<std::__ndk1::__value_type<std::__ndk1::basic_string<char, std::__ndk1::char_traits<char>, std::__ndk1::allocator<char> >, std::__ndk1::shared_ptr<geode::Hook> >, void*>, std::__ndk1::__tree_node_destructor<std::__ndk1::allocator<std::__ndk1::__tree_node<std::__ndk1::__value_type<std::__ndk1::basic_string<char, std::__ndk1::char_traits<char>, std::__ndk1::allocator<char> >, std::__ndk1::shared_ptr<geode::Hook> >, void*> > > >::~unique_ptr[abi:ne180000]()
PUBLIC 387d8 0 _ZN5geode15UnwrapExceptionC2IRNSt6__ndk112basic_stringIcNS2_11char_traitsIcEENS2_9allocatorIcEEEEQsr4implE18IsStringStreamableIT_EEENS_4impl6ErrTagEOSA_
PUBLIC 38940 0 std::__ndk1::shared_ptr<geode::SettingV3>::~shared_ptr[abi:ne180000]()
PUBLIC 38990 0 std::__ndk1::shared_ptr<geode::BoolSettingV3>::~shared_ptr[abi:ne180000]()
PUBLIC 389e0 0 geode::SettingChangedFilterV3::~SettingChangedFilterV3()
PUBLIC 38a30 0 std::__ndk1::__function::__base<void (std::__ndk1::shared_ptr<geode::SettingV3>)>::~__base()
PUBLIC 38a34 0 std::__ndk1::__function::__func<geode::listenForSettingChangesV3<bool, IDLevelCell::onModify(geode::modifier::ModifyBase<geode::modifier::ModifyDerive<IDLevelCell, LevelCell> >&)::{lambda(bool)#1}>(std::__ndk1::basic_string_view<char, std::__ndk1::char_traits<char> >, IDLevelCell::onModify(geode::modifier::ModifyBase<geode::modifier::ModifyDerive<IDLevelCell, LevelCell> >&)::{lambda(bool)#1}&&, geode::Mod*)::{lambda(std::__ndk1::shared_ptr<geode::SettingV3>)#1}, std::__ndk1::allocator<geode::listenForSettingChangesV3<bool, IDLevelCell::onModify(geode::modifier::ModifyBase<geode::modifier::ModifyDerive<IDLevelCell, LevelCell> >&)::{lambda(bool)#1}>(std::__ndk1::basic_string_view<char, std::__ndk1::char_traits<char> >, IDLevelCell::onModify(geode::modifier::ModifyBase<geode::modifier::ModifyDerive<IDLevelCell, LevelCell> >&)::{lambda(bool)#1}&&, geode::Mod*)::{lambda(std::__ndk1::shared_ptr<geode::SettingV3>)#1}>, void (std::__ndk1::shared_ptr<geode::SettingV3>)>::~__func()
PUBLIC 38a38 0 std::__ndk1::__function::__func<geode::listenForSettingChangesV3<bool, IDLevelCell::onModify(geode::modifier::ModifyBase<geode::modifier::ModifyDerive<IDLevelCell, LevelCell> >&)::{lambda(bool)#1}>(std::__ndk1::basic_string_view<char, std::__ndk1::char_traits<char> >, IDLevelCell::onModify(geode::modifier::ModifyBase<geode::modifier::ModifyDerive<IDLevelCell, LevelCell> >&)::{lambda(bool)#1}&&, geode::Mod*)::{lambda(std::__ndk1::shared_ptr<geode::SettingV3>)#1}, std::__ndk1::allocator<geode::listenForSettingChangesV3<bool, IDLevelCell::onModify(geode::modifier::ModifyBase<geode::modifier::ModifyDerive<IDLevelCell, LevelCell> >&)::{lambda(bool)#1}>(std::__ndk1::basic_string_view<char, std::__ndk1::char_traits<char> >, IDLevelCell::onModify(geode::modifier::ModifyBase<geode::modifier::ModifyDerive<IDLevelCell, LevelCell> >&)::{lambda(bool)#1}&&, geode::Mod*)::{lambda(std::__ndk1::shared_ptr<geode::SettingV3>)#1}>, void (std::__ndk1::shared_ptr<geode::SettingV3>)>::__clone() const
PUBLIC 38a6c 0 std::__ndk1::__function::__func<geode::listenForSettingChangesV3<bool, IDLevelCell::onModify(geode::modifier::ModifyBase<geode::modifier::ModifyDerive<IDLevelCell, LevelCell> >&)::{lambda(bool)#1}>(std::__ndk1::basic_string_view<char, std::__ndk1::char_traits<char> >, IDLevelCell::onModify(geode::modifier::ModifyBase<geode::modifier::ModifyDerive<IDLevelCell, LevelCell> >&)::{lambda(bool)#1}&&, geode::Mod*)::{lambda(std::__ndk1::shared_ptr<geode::SettingV3>)#1}, std::__ndk1::allocator<geode::listenForSettingChangesV3<bool, IDLevelCell::onModify(geode::modifier::ModifyBase<geode::modifier::ModifyDerive<IDLevelCell, LevelCell> >&)::{lambda(bool)#1}>(std::__ndk1::basic_string_view<char, std::__ndk1::char_traits<char> >, IDLevelCell::onModify(geode::modifier::ModifyBase<geode::modifier::ModifyDerive<IDLevelCell, LevelCell> >&)::{lambda(bool)#1}&&, geode::Mod*)::{lambda(std::__ndk1::shared_ptr<geode::SettingV3>)#1}>, void (std::__ndk1::shared_ptr<geode::SettingV3>)>::__clone(std::__ndk1::__function::__base<void (std::__ndk1::shared_ptr<geode::SettingV3>)>*) const
PUBLIC 38a80 0 std::__ndk1::__function::__func<geode::listenForSettingChangesV3<bool, IDLevelCell::onModify(geode::modifier::ModifyBase<geode::modifier::ModifyDerive<IDLevelCell, LevelCell> >&)::{lambda(bool)#1}>(std::__ndk1::basic_string_view<char, std::__ndk1::char_traits<char> >, IDLevelCell::onModify(geode::modifier::ModifyBase<geode::modifier::ModifyDerive<IDLevelCell, LevelCell> >&)::{lambda(bool)#1}&&, geode::Mod*)::{lambda(std::__ndk1::shared_ptr<geode::SettingV3>)#1}, std::__ndk1::allocator<geode::listenForSettingChangesV3<bool, IDLevelCell::onModify(geode::modifier::ModifyBase<geode::modifier::ModifyDerive<IDLevelCell, LevelCell> >&)::{lambda(bool)#1}>(std::__ndk1::basic_string_view<char, std::__ndk1::char_traits<char> >, IDLevelCell::onModify(geode::modifier::ModifyBase<geode::modifier::ModifyDerive<IDLevelCell, LevelCell> >&)::{lambda(bool)#1}&&, geode::Mod*)::{lambda(std::__ndk1::shared_ptr<geode::SettingV3>)#1}>, void (std::__ndk1::shared_ptr<geode::SettingV3>)>::destroy()
PUBLIC 38a84 0 std::__ndk1::__function::__func<geode::listenForSettingChangesV3<bool, IDLevelCell::onModify(geode::modifier::ModifyBase<geode::modifier::ModifyDerive<IDLevelCell, LevelCell> >&)::{lambda(bool)#1}>(std::__ndk1::basic_string_view<char, std::__ndk1::char_traits<char> >, IDLevelCell::onModify(geode::modifier::ModifyBase<geode::modifier::ModifyDerive<IDLevelCell, LevelCell> >&)::{lambda(bool)#1}&&, geode::Mod*)::{lambda(std::__ndk1::shared_ptr<geode::SettingV3>)#1}, std::__ndk1::allocator<geode::listenForSettingChangesV3<bool, IDLevelCell::onModify(geode::modifier::ModifyBase<geode::modifier::ModifyDerive<IDLevelCell, LevelCell> >&)::{lambda(bool)#1}>(std::__ndk1::basic_string_view<char, std::__ndk1::char_traits<char> >, IDLevelCell::onModify(geode::modifier::ModifyBase<geode::modifier::ModifyDerive<IDLevelCell, LevelCell> >&)::{lambda(bool)#1}&&, geode::Mod*)::{lambda(std::__ndk1::shared_ptr<geode::SettingV3>)#1}>, void (std::__ndk1::shared_ptr<geode::SettingV3>)>::destroy_deallocate()
PUBLIC 38a88 0 std::__ndk1::__function::__func<geode::listenForSettingChangesV3<bool, IDLevelCell::onModify(geode::modifier::ModifyBase<geode::modifier::ModifyDerive<IDLevelCell, LevelCell> >&)::{lambda(bool)#1}>(std::__ndk1::basic_string_view<char, std::__ndk1::char_traits<char> >, IDLevelCell::onModify(geode::modifier::ModifyBase<geode::modifier::ModifyDerive<IDLevelCell, LevelCell> >&)::{lambda(bool)#1}&&, geode::Mod*)::{lambda(std::__ndk1::shared_ptr<geode::SettingV3>)#1}, std::__ndk1::allocator<geode::listenForSettingChangesV3<bool, IDLevelCell::onModify(geode::modifier::ModifyBase<geode::modifier::ModifyDerive<IDLevelCell, LevelCell> >&)::{lambda(bool)#1}>(std::__ndk1::basic_string_view<char, std::__ndk1::char_traits<char> >, IDLevelCell::onModify(geode::modifier::ModifyBase<geode::modifier::ModifyDerive<IDLevelCell, LevelCell> >&)::{lambda(bool)#1}&&, geode::Mod*)::{lambda(std::__ndk1::shared_ptr<geode::SettingV3>)#1}>, void (std::__ndk1::shared_ptr<geode::SettingV3>)>::operator()(std::__ndk1::shared_ptr<geode::SettingV3>&&)
PUBLIC 38cc0 0 std::__ndk1::__function::__func<geode::listenForSettingChangesV3<bool, IDLevelCell::onModify(geode::modifier::ModifyBase<geode::modifier::ModifyDerive<IDLevelCell, LevelCell> >&)::{lambda(bool)#1}>(std::__ndk1::basic_string_view<char, std::__ndk1::char_traits<char> >, IDLevelCell::onModify(geode::modifier::ModifyBase<geode::modifier::ModifyDerive<IDLevelCell, LevelCell> >&)::{lambda(bool)#1}&&, geode::Mod*)::{lambda(std::__ndk1::shared_ptr<geode::SettingV3>)#1}, std::__ndk1::allocator<geode::listenForSettingChangesV3<bool, IDLevelCell::onModify(geode::modifier::ModifyBase<geode::modifier::ModifyDerive<IDLevelCell, LevelCell> >&)::{lambda(bool)#1}>(std::__ndk1::basic_string_view<char, std::__ndk1::char_traits<char> >, IDLevelCell::onModify(geode::modifier::ModifyBase<geode::modifier::ModifyDerive<IDLevelCell, LevelCell> >&)::{lambda(bool)#1}&&, geode::Mod*)::{lambda(std::__ndk1::shared_ptr<geode::SettingV3>)#1}>, void (std::__ndk1::shared_ptr<geode::SettingV3>)>::target(std::type_info const&) const
PUBLIC 38cdc 0 std::__ndk1::__function::__func<geode::listenForSettingChangesV3<bool, IDLevelCell::onModify(geode::modifier::ModifyBase<geode::modifier::ModifyDerive<IDLevelCell, LevelCell> >&)::{lambda(bool)#1}>(std::__ndk1::basic_string_view<char, std::__ndk1::char_traits<char> >, IDLevelCell::onModify(geode::modifier::ModifyBase<geode::modifier::ModifyDerive<IDLevelCell, LevelCell> >&)::{lambda(bool)#1}&&, geode::Mod*)::{lambda(std::__ndk1::shared_ptr<geode::SettingV3>)#1}, std::__ndk1::allocator<geode::listenForSettingChangesV3<bool, IDLevelCell::onModify(geode::modifier::ModifyBase<geode::modifier::ModifyDerive<IDLevelCell, LevelCell> >&)::{lambda(bool)#1}>(std::__ndk1::basic_string_view<char, std::__ndk1::char_traits<char> >, IDLevelCell::onModify(geode::modifier::ModifyBase<geode::modifier::ModifyDerive<IDLevelCell, LevelCell> >&)::{lambda(bool)#1}&&, geode::Mod*)::{lambda(std::__ndk1::shared_ptr<geode::SettingV3>)#1}>, void (std::__ndk1::shared_ptr<geode::SettingV3>)>::target_type() const
PUBLIC 38ce8 0 geode::impl::ResultData<void, std::__ndk1::basic_string<char, std::__ndk1::char_traits<char>, std::__ndk1::allocator<char> > >::~ResultData()
PUBLIC 38d5c 0 std::__ndk1::__variant_detail::__visitation::__base::__dispatcher<(unsigned long)0>::__dispatch[abi:ne180000]<std::__ndk1::__variant_detail::__dtor<std::__ndk1::__variant_detail::__traits<std::__ndk1::monostate, std::__ndk1::basic_string<char, std::__ndk1::char_traits<char>, std::__ndk1::allocator<char> > >, (std::__ndk1::__variant_detail::_Trait)1>::__destroy[abi:ne180000]()::{lambda(auto:1&)#1}, std::__ndk1::__variant_detail::__base<(std::__ndk1::__variant_detail::__traits<std::__ndk1::monostate, std::__ndk1::basic_string<char, std::__ndk1::char_traits<char>, std::__ndk1::allocator<char> > >)1, std::__ndk1::__variant_detail::__traits, std::__ndk1::allocator<char> >&>(std::__ndk1::__variant_detail::__dtor<std::__ndk1::__variant_detail::__traits<std::__ndk1::monostate, std::__ndk1::basic_string<char, std::__ndk1::char_traits<char>, std::__ndk1::allocator<char> > >, (std::__ndk1::__variant_detail::_Trait)1>, std::__ndk1::__variant_detail::__base<(std::__ndk1::__variant_detail::__traits<std::__ndk1::monostate, std::__ndk1::basic_string<char, std::__ndk1::char_traits<char>, std::__ndk1::allocator<char> > >)1, std::__ndk1::__variant_detail::__traits, std::__ndk1::allocator<char> >&)
PUBLIC 38d60 0 std::__ndk1::__variant_detail::__visitation::__base::__dispatcher<(unsigned long)1>::__dispatch[abi:ne180000]<std::__ndk1::__variant_detail::__dtor<std::__ndk1::__variant_detail::__traits<std::__ndk1::monostate, std::__ndk1::basic_string<char, std::__ndk1::char_traits<char>, std::__ndk1::allocator<char> > >, (std::__ndk1::__variant_detail::_Trait)1>::__destroy[abi:ne180000]()::{lambda(auto:1&)#1}, std::__ndk1::__variant_detail::__base<(std::__ndk1::__variant_detail::__traits<std::__ndk1::monostate, std::__ndk1::basic_string<char, std::__ndk1::char_traits<char>, std::__ndk1::allocator<char> > >)1, std::__ndk1::__variant_detail::__traits, std::__ndk1::allocator<char> >&>(std::__ndk1::__variant_detail::__dtor<std::__ndk1::__variant_detail::__traits<std::__ndk1::monostate, std::__ndk1::basic_string<char, std::__ndk1::char_traits<char>, std::__ndk1::allocator<char> > >, (std::__ndk1::__variant_detail::_Trait)1>, std::__ndk1::__variant_detail::__base<(std::__ndk1::__variant_detail::__traits<std::__ndk1::monostate, std::__ndk1::basic_string<char, std::__ndk1::char_traits<char>, std::__ndk1::allocator<char> > >)1, std::__ndk1::__variant_detail::__traits, std::__ndk1::allocator<char> >&)
PUBLIC 38d74 0 geode::EventListener<geode::SettingChangedFilterV3>::getPool() const
PUBLIC 38d78 0 geode::EventListener<geode::SettingChangedFilterV3>::handle(geode::Event*)
PUBLIC 38eec 0 geode::EventListener<geode::SettingChangedFilterV3>::~EventListener()
PUBLIC 38f88 0 geode::EventListener<geode::SettingChangedFilterV3>::~EventListener()
PUBLIC 3902c 0 geode::modifier::AsStaticFunction_loadCustomLevelCell<IDLevelCell, void (IDLevelCell::*)()>::Impl<void (IDLevelCell::*)()>::function(IDLevelCell*)
PUBLIC 39dd4 0 IDLevelCell::addRank(std::__ndk1::vector<std::__ndk1::basic_string<char, std::__ndk1::char_traits<char>, std::__ndk1::allocator<char> >, std::__ndk1::allocator<std::__ndk1::basic_string<char, std::__ndk1::char_traits<char>, std::__ndk1::allocator<char> > > > const&, bool)
PUBLIC 3a240 0 geode::EventListener<geode::Task<geode::utils::web::WebResponse, geode::utils::web::WebProgress> >::bind(std::__ndk1::function<void (geode::Task<geode::utils::web::WebResponse, geode::utils::web::WebProgress>*::Event)>)
PUBLIC 3a30c 0 geode::EventListener<geode::Task<geode::utils::web::WebResponse, geode::utils::web::WebProgress> >::setFilter(geode::Task<geode::utils::web::WebResponse, geode::utils::web::WebProgress>)
PUBLIC 3a39c 0 geode::modifier::FieldIntermediate<IDLevelCell, LevelCell>::fieldDestructor(void*)
PUBLIC 3a4c0 0 std::__ndk1::vector<void*, std::__ndk1::allocator<void*> >::__throw_length_error[abi:ne180000]() const
PUBLIC 3a4d4 0 std::__ndk1::vector<std::__ndk1::function<void (void*)>, std::__ndk1::allocator<std::__ndk1::function<void (void*)> > >::__throw_length_error[abi:ne180000]() const
PUBLIC 3a4e8 0 std::__ndk1::vector<void*, std::__ndk1::allocator<void*> >::__throw_out_of_range[abi:ne180000]() const
PUBLIC 3a4fc 0 std::__ndk1::vector<std::__ndk1::function<void (void*)>, std::__ndk1::allocator<std::__ndk1::function<void (void*)> > >::__throw_out_of_range[abi:ne180000]() const
PUBLIC 3a510 0 std::__ndk1::__function::__base<void (void*)>::~__base()
PUBLIC 3a514 0 std::__ndk1::__function::__func<void (*)(void*), std::__ndk1::allocator<void (*)(void*)>, void (void*)>::~__func()
PUBLIC 3a518 0 std::__ndk1::__function::__func<void (*)(void*), std::__ndk1::allocator<void (*)(void*)>, void (void*)>::__clone() const
PUBLIC 3a550 0 std::__ndk1::__function::__func<void (*)(void*), std::__ndk1::allocator<void (*)(void*)>, void (void*)>::__clone(std::__ndk1::__function::__base<void (void*)>*) const
PUBLIC 3a568 0 std::__ndk1::__function::__func<void (*)(void*), std::__ndk1::allocator<void (*)(void*)>, void (void*)>::destroy()
PUBLIC 3a56c 0 std::__ndk1::__function::__func<void (*)(void*), std::__ndk1::allocator<void (*)(void*)>, void (void*)>::destroy_deallocate()
PUBLIC 3a570 0 std::__ndk1::__function::__func<void (*)(void*), std::__ndk1::allocator<void (*)(void*)>, void (void*)>::operator()(void*&&)
PUBLIC 3a580 0 std::__ndk1::__function::__func<void (*)(void*), std::__ndk1::allocator<void (*)(void*)>, void (void*)>::target(std::type_info const&) const
PUBLIC 3a59c 0 std::__ndk1::__function::__func<void (*)(void*), std::__ndk1::allocator<void (*)(void*)>, void (void*)>::target_type() const
PUBLIC 3a5a8 0 std::__ndk1::__function::__value_func<void (geode::Task<geode::utils::web::WebResponse, geode::utils::web::WebProgress>::Event*)>::swap[abi:ne180000](std::__ndk1::__function::__value_func<void (geode::Task<geode::utils::web::WebResponse, geode::utils::web::WebProgress>::Event*)>&)
PUBLIC 3a740 0 std::__ndk1::__function::__base<void (geode::Task<geode::utils::web::WebResponse, geode::utils::web::WebProgress>::Event*)>::~__base()
PUBLIC 3a744 0 std::__ndk1::__function::__func<IDLevelCell::loadCustomLevelCell()::{lambda(geode::Task<geode::utils::web::WebResponse, geode::utils::web::WebProgress>::Event*)#1}, std::__ndk1::allocator<IDLevelCell::loadCustomLevelCell()::{lambda(geode::Task<geode::utils::web::WebResponse, geode::utils::web::WebProgress>::Event*)#1}>, void (geode::Task<geode::utils::web::WebResponse, geode::utils::web::WebProgress>::Event*)>::~__func()
PUBLIC 3a748 0 std::__ndk1::__function::__func<IDLevelCell::loadCustomLevelCell()::{lambda(geode::Task<geode::utils::web::WebResponse, geode::utils::web::WebProgress>::Event*)#1}, std::__ndk1::allocator<IDLevelCell::loadCustomLevelCell()::{lambda(geode::Task<geode::utils::web::WebResponse, geode::utils::web::WebProgress>::Event*)#1}>, void (geode::Task<geode::utils::web::WebResponse, geode::utils::web::WebProgress>::Event*)>::__clone() const
PUBLIC 3a788 0 std::__ndk1::__function::__func<IDLevelCell::loadCustomLevelCell()::{lambda(geode::Task<geode::utils::web::WebResponse, geode::utils::web::WebProgress>::Event*)#1}, std::__ndk1::allocator<IDLevelCell::loadCustomLevelCell()::{lambda(geode::Task<geode::utils::web::WebResponse, geode::utils::web::WebProgress>::Event*)#1}>, void (geode::Task<geode::utils::web::WebResponse, geode::utils::web::WebProgress>::Event*)>::__clone(std::__ndk1::__function::__base<void (geode::Task<geode::utils::web::WebResponse, geode::utils::web::WebProgress>::Event*)>*) const
PUBLIC 3a7a8 0 std::__ndk1::__function::__func<IDLevelCell::loadCustomLevelCell()::{lambda(geode::Task<geode::utils::web::WebResponse, geode::utils::web::WebProgress>::Event*)#1}, std::__ndk1::allocator<IDLevelCell::loadCustomLevelCell()::{lambda(geode::Task<geode::utils::web::WebResponse, geode::utils::web::WebProgress>::Event*)#1}>, void (geode::Task<geode::utils::web::WebResponse, geode::utils::web::WebProgress>::Event*)>::destroy()
PUBLIC 3a7ac 0 std::__ndk1::__function::__func<IDLevelCell::loadCustomLevelCell()::{lambda(geode::Task<geode::utils::web::WebResponse, geode::utils::web::WebProgress>::Event*)#1}, std::__ndk1::allocator<IDLevelCell::loadCustomLevelCell()::{lambda(geode::Task<geode::utils::web::WebResponse, geode::utils::web::WebProgress>::Event*)#1}>, void (geode::Task<geode::utils::web::WebResponse, geode::utils::web::WebProgress>::Event*)>::destroy_deallocate()
PUBLIC 3a7b0 0 std::__ndk1::__function::__func<IDLevelCell::loadCustomLevelCell()::{lambda(geode::Task<geode::utils::web::WebResponse, geode::utils::web::WebProgress>::Event*)#1}, std::__ndk1::allocator<IDLevelCell::loadCustomLevelCell()::{lambda(geode::Task<geode::utils::web::WebResponse, geode::utils::web::WebProgress>::Event*)#1}>, void (geode::Task<geode::utils::web::WebResponse, geode::utils::web::WebProgress>::Event*)>::operator()(geode::Task<geode::utils::web::WebResponse, geode::utils::web::WebProgress>::Event*&&)
PUBLIC 3adb0 0 std::__ndk1::__function::__func<IDLevelCell::loadCustomLevelCell()::{lambda(geode::Task<geode::utils::web::WebResponse, geode::utils::web::WebProgress>::Event*)#1}, std::__ndk1::allocator<IDLevelCell::loadCustomLevelCell()::{lambda(geode::Task<geode::utils::web::WebResponse, geode::utils::web::WebProgress>::Event*)#1}>, void (geode::Task<geode::utils::web::WebResponse, geode::utils::web::WebProgress>::Event*)>::target(std::type_info const&) const
PUBLIC 3adcc 0 std::__ndk1::__function::__func<IDLevelCell::loadCustomLevelCell()::{lambda(geode::Task<geode::utils::web::WebResponse, geode::utils::web::WebProgress>::Event*)#1}, std::__ndk1::allocator<IDLevelCell::loadCustomLevelCell()::{lambda(geode::Task<geode::utils::web::WebResponse, geode::utils::web::WebProgress>::Event*)#1}>, void (geode::Task<geode::utils::web::WebResponse, geode::utils::web::WebProgress>::Event*)>::target_type() const
PUBLIC 3add8 0 geode::impl::ResultData<matjson::Value, std::__ndk1::basic_string<char, std::__ndk1::char_traits<char>, std::__ndk1::allocator<char> > >::~ResultData()
PUBLIC 3ae4c 0 geode::impl::ResultData<long, std::__ndk1::basic_string<char, std::__ndk1::char_traits<char>, std::__ndk1::allocator<char> > >::~ResultData()
PUBLIC 3aec0 0 std::__ndk1::vector<IDListDemon, std::__ndk1::allocator<IDListDemon> >::push_back[abi:ne180000](IDListDemon&&)
PUBLIC 3af30 0 std::__ndk1::vector<std::__ndk1::basic_string<char, std::__ndk1::char_traits<char>, std::__ndk1::allocator<char> >, std::__ndk1::allocator<std::__ndk1::basic_string<char, std::__ndk1::char_traits<char>, std::__ndk1::allocator<char> > > >::vector[abi:ne180000](std::initializer_list<std::__ndk1::basic_string<char, std::__ndk1::char_traits<char>, std::__ndk1::allocator<char> > >)
PUBLIC 3b088 0 std::__ndk1::__variant_detail::__visitation::__base::__dispatcher<(unsigned long)0>::__dispatch[abi:ne180000]<std::__ndk1::__variant_detail::__dtor<std::__ndk1::__variant_detail::__traits<matjson::Value, std::__ndk1::basic_string<char, std::__ndk1::char_traits<char>, std::__ndk1::allocator<char> > >, (std::__ndk1::__variant_detail::_Trait)1>::__destroy[abi:ne180000]()::{lambda(auto:1&)#1}, std::__ndk1::__variant_detail::__base<(std::__ndk1::__variant_detail::__traits<matjson::Value, std::__ndk1::basic_string<char, std::__ndk1::char_traits<char>, std::__ndk1::allocator<char> > >)1, matjson, std::__ndk1::allocator<char> >&>(std::__ndk1::__variant_detail::__dtor<std::__ndk1::__variant_detail::__traits<matjson::Value, std::__ndk1::basic_string<char, std::__ndk1::char_traits<char>, std::__ndk1::allocator<char> > >, (std::__ndk1::__variant_detail::_Trait)1>, std::__ndk1::__variant_detail::__base<(std::__ndk1::__variant_detail::__traits<matjson::Value, std::__ndk1::basic_string<char, std::__ndk1::char_traits<char>, std::__ndk1::allocator<char> > >)1, matjson, std::__ndk1::allocator<char> >&)
PUBLIC 3b090 0 std::__ndk1::__variant_detail::__visitation::__base::__dispatcher<(unsigned long)1>::__dispatch[abi:ne180000]<std::__ndk1::__variant_detail::__dtor<std::__ndk1::__variant_detail::__traits<matjson::Value, std::__ndk1::basic_string<char, std::__ndk1::char_traits<char>, std::__ndk1::allocator<char> > >, (std::__ndk1::__variant_detail::_Trait)1>::__destroy[abi:ne180000]()::{lambda(auto:1&)#1}, std::__ndk1::__variant_detail::__base<(std::__ndk1::__variant_detail::__traits<matjson::Value, std::__ndk1::basic_string<char, std::__ndk1::char_traits<char>, std::__ndk1::allocator<char> > >)1, matjson, std::__ndk1::allocator<char> >&>(std::__ndk1::__variant_detail::__dtor<std::__ndk1::__variant_detail::__traits<matjson::Value, std::__ndk1::basic_string<char, std::__ndk1::char_traits<char>, std::__ndk1::allocator<char> > >, (std::__ndk1::__variant_detail::_Trait)1>, std::__ndk1::__variant_detail::__base<(std::__ndk1::__variant_detail::__traits<matjson::Value, std::__ndk1::basic_string<char, std::__ndk1::char_traits<char>, std::__ndk1::allocator<char> > >)1, matjson, std::__ndk1::allocator<char> >&)
PUBLIC 3b0a4 0 std::__ndk1::__variant_detail::__visitation::__base::__dispatcher<(unsigned long)0>::__dispatch[abi:ne180000]<std::__ndk1::__variant_detail::__dtor<std::__ndk1::__variant_detail::__traits<long, std::__ndk1::basic_string<char, std::__ndk1::char_traits<char>, std::__ndk1::allocator<char> > >, (std::__ndk1::__variant_detail::_Trait)1>::__destroy[abi:ne180000]()::{lambda(auto:1&)#1}, std::__ndk1::__variant_detail::__base<(std::__ndk1::__variant_detail::__traits<long, std::__ndk1::basic_string<char, std::__ndk1::char_traits<char>, std::__ndk1::allocator<char> > >)1, long, std::__ndk1::allocator<char> >&>(std::__ndk1::__variant_detail::__dtor<std::__ndk1::__variant_detail::__traits<long, std::__ndk1::basic_string<char, std::__ndk1::char_traits<char>, std::__ndk1::allocator<char> > >, (std::__ndk1::__variant_detail::_Trait)1>, std::__ndk1::__variant_detail::__base<(std::__ndk1::__variant_detail::__traits<long, std::__ndk1::basic_string<char, std::__ndk1::char_traits<char>, std::__ndk1::allocator<char> > >)1, long, std::__ndk1::allocator<char> >&)
PUBLIC 3b0a8 0 std::__ndk1::__variant_detail::__visitation::__base::__dispatcher<(unsigned long)1>::__dispatch[abi:ne180000]<std::__ndk1::__variant_detail::__dtor<std::__ndk1::__variant_detail::__traits<long, std::__ndk1::basic_string<char, std::__ndk1::char_traits<char>, std::__ndk1::allocator<char> > >, (std::__ndk1::__variant_detail::_Trait)1>::__destroy[abi:ne180000]()::{lambda(auto:1&)#1}, std::__ndk1::__variant_detail::__base<(std::__ndk1::__variant_detail::__traits<long, std::__ndk1::basic_string<char, std::__ndk1::char_traits<char>, std::__ndk1::allocator<char> > >)1, long, std::__ndk1::allocator<char> >&>(std::__ndk1::__variant_detail::__dtor<std::__ndk1::__variant_detail::__traits<long, std::__ndk1::basic_string<char, std::__ndk1::char_traits<char>, std::__ndk1::allocator<char> > >, (std::__ndk1::__variant_detail::_Trait)1>, std::__ndk1::__variant_detail::__base<(std::__ndk1::__variant_detail::__traits<long, std::__ndk1::basic_string<char, std::__ndk1::char_traits<char>, std::__ndk1::allocator<char> > >)1, long, std::__ndk1::allocator<char> >&)
PUBLIC 3b0bc 0 std::__ndk1::vector<IDListDemon, std::__ndk1::allocator<IDListDemon> >::__push_back_slow_path<IDListDemon>(IDListDemon&&)
PUBLIC 3b24c 0 std::__ndk1::__function::__func<IDLevelCell::loadCustomLevelCell()::{lambda(geode::Task<geode::utils::web::WebResponse, geode::utils::web::WebProgress>::Event*)#1}::operator()(geode::Task<geode::utils::web::WebResponse, geode::utils::web::WebProgress>::Event*) const::{lambda(geode::Task<geode::utils::web::WebResponse, geode::utils::web::WebProgress>::Event*)#1}, std::__ndk1::allocator<IDLevelCell::loadCustomLevelCell()::{lambda(geode::Task<geode::utils::web::WebResponse, geode::utils::web::WebProgress>::Event*)#1}::operator()(geode::Task<geode::utils::web::WebResponse, geode::utils::web::WebProgress>::Event*) const::{lambda(geode::Task<geode::utils::web::WebResponse, geode::utils::web::WebProgress>::Event*)#1}>, void (geode::Task<geode::utils::web::WebResponse, geode::utils::web::WebProgress>::Event*)>::~__func()
PUBLIC 3b26c 0 std::__ndk1::__function::__func<IDLevelCell::loadCustomLevelCell()::{lambda(geode::Task<geode::utils::web::WebResponse, geode::utils::web::WebProgress>::Event*)#1}::operator()(geode::Task<geode::utils::web::WebResponse, geode::utils::web::WebProgress>::Event*) const::{lambda(geode::Task<geode::utils::web::WebResponse, geode::utils::web::WebProgress>::Event*)#1}, std::__ndk1::allocator<IDLevelCell::loadCustomLevelCell()::{lambda(geode::Task<geode::utils::web::WebResponse, geode::utils::web::WebProgress>::Event*)#1}::operator()(geode::Task<geode::utils::web::WebResponse, geode::utils::web::WebProgress>::Event*) const::{lambda(geode::Task<geode::utils::web::WebResponse, geode::utils::web::WebProgress>::Event*)#1}>, void (geode::Task<geode::utils::web::WebResponse, geode::utils::web::WebProgress>::Event*)>::~__func()
PUBLIC 3b2ac 0 std::__ndk1::__function::__func<IDLevelCell::loadCustomLevelCell()::{lambda(geode::Task<geode::utils::web::WebResponse, geode::utils::web::WebProgress>::Event*)#1}::operator()(geode::Task<geode::utils::web::WebResponse, geode::utils::web::WebProgress>::Event*) const::{lambda(geode::Task<geode::utils::web::WebResponse, geode::utils::web::WebProgress>::Event*)#1}, std::__ndk1::allocator<IDLevelCell::loadCustomLevelCell()::{lambda(geode::Task<geode::utils::web::WebResponse, geode::utils::web::WebProgress>::Event*)#1}::operator()(geode::Task<geode::utils::web::WebResponse, geode::utils::web::WebProgress>::Event*) const::{lambda(geode::Task<geode::utils::web::WebResponse, geode::utils::web::WebProgress>::Event*)#1}>, void (geode::Task<geode::utils::web::WebResponse, geode::utils::web::WebProgress>::Event*)>::__clone() const
PUBLIC 3b34c 0 std::__ndk1::__function::__func<IDLevelCell::loadCustomLevelCell()::{lambda(geode::Task<geode::utils::web::WebResponse, geode::utils::web::WebProgress>::Event*)#1}::operator()(geode::Task<geode::utils::web::WebResponse, geode::utils::web::WebProgress>::Event*) const::{lambda(geode::Task<geode::utils::web::WebResponse, geode::utils::web::WebProgress>::Event*)#1}, std::__ndk1::allocator<IDLevelCell::loadCustomLevelCell()::{lambda(geode::Task<geode::utils::web::WebResponse, geode::utils::web::WebProgress>::Event*)#1}::operator()(geode::Task<geode::utils::web::WebResponse, geode::utils::web::WebProgress>::Event*) const::{lambda(geode::Task<geode::utils::web::WebResponse, geode::utils::web::WebProgress>::Event*)#1}>, void (geode::Task<geode::utils::web::WebResponse, geode::utils::web::WebProgress>::Event*)>::__clone(std::__ndk1::__function::__base<void (geode::Task<geode::utils::web::WebResponse, geode::utils::web::WebProgress>::Event*)>*) const
PUBLIC 3b3cc 0 std::__ndk1::__function::__func<IDLevelCell::loadCustomLevelCell()::{lambda(geode::Task<geode::utils::web::WebResponse, geode::utils::web::WebProgress>::Event*)#1}::operator()(geode::Task<geode::utils::web::WebResponse, geode::utils::web::WebProgress>::Event*) const::{lambda(geode::Task<geode::utils::web::WebResponse, geode::utils::web::WebProgress>::Event*)#1}, std::__ndk1::allocator<IDLevelCell::loadCustomLevelCell()::{lambda(geode::Task<geode::utils::web::WebResponse, geode::utils::web::WebProgress>::Event*)#1}::operator()(geode::Task<geode::utils::web::WebResponse, geode::utils::web::WebProgress>::Event*) const::{lambda(geode::Task<geode::utils::web::WebResponse, geode::utils::web::WebProgress>::Event*)#1}>, void (geode::Task<geode::utils::web::WebResponse, geode::utils::web::WebProgress>::Event*)>::destroy()
PUBLIC 3b3e0 0 std::__ndk1::__function::__func<IDLevelCell::loadCustomLevelCell()::{lambda(geode::Task<geode::utils::web::WebResponse, geode::utils::web::WebProgress>::Event*)#1}::operator()(geode::Task<geode::utils::web::WebResponse, geode::utils::web::WebProgress>::Event*) const::{lambda(geode::Task<geode::utils::web::WebResponse, geode::utils::web::WebProgress>::Event*)#1}, std::__ndk1::allocator<IDLevelCell::loadCustomLevelCell()::{lambda(geode::Task<geode::utils::web::WebResponse, geode::utils::web::WebProgress>::Event*)#1}::operator()(geode::Task<geode::utils::web::WebResponse, geode::utils::web::WebProgress>::Event*) const::{lambda(geode::Task<geode::utils::web::WebResponse, geode::utils::web::WebProgress>::Event*)#1}>, void (geode::Task<geode::utils::web::WebResponse, geode::utils::web::WebProgress>::Event*)>::destroy_deallocate()
PUBLIC 3b414 0 std::__ndk1::__function::__func<IDLevelCell::loadCustomLevelCell()::{lambda(geode::Task<geode::utils::web::WebResponse, geode::utils::web::WebProgress>::Event*)#1}::operator()(geode::Task<geode::utils::web::WebResponse, geode::utils::web::WebProgress>::Event*) const::{lambda(geode::Task<geode::utils::web::WebResponse, geode::utils::web::WebProgress>::Event*)#1}, std::__ndk1::allocator<IDLevelCell::loadCustomLevelCell()::{lambda(geode::Task<geode::utils::web::WebResponse, geode::utils::web::WebProgress>::Event*)#1}::operator()(geode::Task<geode::utils::web::WebResponse, geode::utils::web::WebProgress>::Event*) const::{lambda(geode::Task<geode::utils::web::WebResponse, geode::utils::web::WebProgress>::Event*)#1}>, void (geode::Task<geode::utils::web::WebResponse, geode::utils::web::WebProgress>::Event*)>::operator()(geode::Task<geode::utils::web::WebResponse, geode::utils::web::WebProgress>::Event*&&)
PUBLIC 3b890 0 std::__ndk1::__function::__func<IDLevelCell::loadCustomLevelCell()::{lambda(geode::Task<geode::utils::web::WebResponse, geode::utils::web::WebProgress>::Event*)#1}::operator()(geode::Task<geode::utils::web::WebResponse, geode::utils::web::WebProgress>::Event*) const::{lambda(geode::Task<geode::utils::web::WebResponse, geode::utils::web::WebProgress>::Event*)#1}, std::__ndk1::allocator<IDLevelCell::loadCustomLevelCell()::{lambda(geode::Task<geode::utils::web::WebResponse, geode::utils::web::WebProgress>::Event*)#1}::operator()(geode::Task<geode::utils::web::WebResponse, geode::utils::web::WebProgress>::Event*) const::{lambda(geode::Task<geode::utils::web::WebResponse, geode::utils::web::WebProgress>::Event*)#1}>, void (geode::Task<geode::utils::web::WebResponse, geode::utils::web::WebProgress>::Event*)>::target(std::type_info const&) const
PUBLIC 3b8ac 0 std::__ndk1::__function::__func<IDLevelCell::loadCustomLevelCell()::{lambda(geode::Task<geode::utils::web::WebResponse, geode::utils::web::WebProgress>::Event*)#1}::operator()(geode::Task<geode::utils::web::WebResponse, geode::utils::web::WebProgress>::Event*) const::{lambda(geode::Task<geode::utils::web::WebResponse, geode::utils::web::WebProgress>::Event*)#1}, std::__ndk1::allocator<IDLevelCell::loadCustomLevelCell()::{lambda(geode::Task<geode::utils::web::WebResponse, geode::utils::web::WebProgress>::Event*)#1}::operator()(geode::Task<geode::utils::web::WebResponse, geode::utils::web::WebProgress>::Event*) const::{lambda(geode::Task<geode::utils::web::WebResponse, geode::utils::web::WebProgress>::Event*)#1}>, void (geode::Task<geode::utils::web::WebResponse, geode::utils::web::WebProgress>::Event*)>::target_type() const
PUBLIC 3b8b8 0 std::__ndk1::__tree<int, std::__ndk1::less<int>, std::__ndk1::allocator<int> >::destroy(std::__ndk1::__tree_node<int, void*>*)
PUBLIC 3b8f4 0 __cxx_global_var_init
PUBLIC 3bd74 0 geode::modifier::ModifyBase<geode::modifier::ModifyDerive<IDLevelSearchLayer, LevelSearchLayer> >::~ModifyBase()
PUBLIC 3bd90 0 geode::modifier::ModifyDerive<IDLevelSearchLayer, LevelSearchLayer>::apply()
PUBLIC 3c0f0 0 geode::modifier::ModifyBase<geode::modifier::ModifyDerive<IDLevelSearchLayer, LevelSearchLayer> >::apply()
PUBLIC 3c0f4 0 geode::modifier::AsStaticFunction_init<IDLevelSearchLayer, bool (IDLevelSearchLayer::*)(int)>::Impl<bool (IDLevelSearchLayer::*)(int)>::function(IDLevelSearchLayer*, int)
PUBLIC 3c274 0 IDLevelSearchLayer::onDemonlistLevels(cocos2d::CCObject*)
PUBLIC 3c334 0 isOk(std::__ndk1::basic_string<char, std::__ndk1::char_traits<char>, std::__ndk1::allocator<char> > const&, geode::EventListener<geode::Task<geode::utils::web::WebResponse, geode::utils::web::WebProgress> >&&, bool, std::__ndk1::function<void (bool, int)> const&)
PUBLIC 3c6b4 0 IntegratedDemonlist::loadAREDL(geode::EventListener<geode::Task<geode::utils::web::WebResponse, geode::utils::web::WebProgress> >&&, geode::EventListener<geode::Task<geode::utils::web::WebResponse, geode::utils::web::WebProgress> >&&, std::__ndk1::function<void ()> const&, std::__ndk1::function<void (int)> const&)
PUBLIC 3cbf0 0 IntegratedDemonlist::loadAREDL(geode::EventListener<geode::Task<geode::utils::web::WebResponse, geode::utils::web::WebProgress> >&&, geode::EventListener<geode::Task<geode::utils::web::WebResponse, geode::utils::web::WebProgress> >&&, std::__ndk1::function<void ()> const&, std::__ndk1::function<void (int)> const&)::$_0::~$_0()
PUBLIC 3cc88 0 IntegratedDemonlist::loadAREDLPacks(geode::EventListener<geode::Task<geode::utils::web::WebResponse, geode::utils::web::WebProgress> >&&, geode::EventListener<geode::Task<geode::utils::web::WebResponse, geode::utils::web::WebProgress> >&&, std::__ndk1::function<void ()> const&, std::__ndk1::function<void (int)> const&)
PUBLIC 3d1c4 0 IntegratedDemonlist::loadAREDLPacks(geode::EventListener<geode::Task<geode::utils::web::WebResponse, geode::utils::web::WebProgress> >&&, geode::EventListener<geode::Task<geode::utils::web::WebResponse, geode::utils::web::WebProgress> >&&, std::__ndk1::function<void ()> const&, std::__ndk1::function<void (int)> const&)::$_0::~$_0()
PUBLIC 3d25c 0 IntegratedDemonlist::loadPemonlist(geode::EventListener<geode::Task<geode::utils::web::WebResponse, geode::utils::web::WebProgress> >&&, geode::EventListener<geode::Task<geode::utils::web::WebResponse, geode::utils::web::WebProgress> >&&, std::__ndk1::function<void ()> const&, std::__ndk1::function<void (int)> const&)
PUBLIC 3d798 0 IntegratedDemonlist::loadPemonlist(geode::EventListener<geode::Task<geode::utils::web::WebResponse, geode::utils::web::WebProgress> >&&, geode::EventListener<geode::Task<geode::utils::web::WebResponse, geode::utils::web::WebProgress> >&&, std::__ndk1::function<void ()> const&, std::__ndk1::function<void (int)> const&)::$_0::~$_0()
PUBLIC 3d830 0 IDDemonPack::~IDDemonPack()
PUBLIC 3d874 0 std::__ndk1::__function::__func<isOk(std::__ndk1::basic_string<char, std::__ndk1::char_traits<char>, std::__ndk1::allocator<char> > const&, geode::EventListener<geode::Task<geode::utils::web::WebResponse, geode::utils::web::WebProgress> >&&, bool, std::__ndk1::function<void (bool, int)> const&)::$_0, std::__ndk1::allocator<isOk(std::__ndk1::basic_string<char, std::__ndk1::char_traits<char>, std::__ndk1::allocator<char> > const&, geode::EventListener<geode::Task<geode::utils::web::WebResponse, geode::utils::web::WebProgress> >&&, bool, std::__ndk1::function<void (bool, int)> const&)::$_0>, void (geode::Task<geode::utils::web::WebResponse, geode::utils::web::WebProgress>*::Event)>::~__func()
PUBLIC 3d8c0 0 std::__ndk1::__function::__func<isOk(std::__ndk1::basic_string<char, std::__ndk1::char_traits<char>, std::__ndk1::allocator<char> > const&, geode::EventListener<geode::Task<geode::utils::web::WebResponse, geode::utils::web::WebProgress> >&&, bool, std::__ndk1::function<void (bool, int)> const&)::$_0, std::__ndk1::allocator<isOk(std::__ndk1::basic_string<char, std::__ndk1::char_traits<char>, std::__ndk1::allocator<char> > const&, geode::EventListener<geode::Task<geode::utils::web::WebResponse, geode::utils::web::WebProgress> >&&, bool, std::__ndk1::function<void (bool, int)> const&)::$_0>, void (geode::Task<geode::utils::web::WebResponse, geode::utils::web::WebProgress>*::Event)>::~__func()
PUBLIC 3d91c 0 std::__ndk1::__function::__func<isOk(std::__ndk1::basic_string<char, std::__ndk1::char_traits<char>, std::__ndk1::allocator<char> > const&, geode::EventListener<geode::Task<geode::utils::web::WebResponse, geode::utils::web::WebProgress> >&&, bool, std::__ndk1::function<void (bool, int)> const&)::$_0, std::__ndk1::allocator<isOk(std::__ndk1::basic_string<char, std::__ndk1::char_traits<char>, std::__ndk1::allocator<char> > const&, geode::EventListener<geode::Task<geode::utils::web::WebResponse, geode::utils::web::WebProgress> >&&, bool, std::__ndk1::function<void (bool, int)> const&)::$_0>, void (geode::Task<geode::utils::web::WebResponse, geode::utils::web::WebProgress>*::Event)>::__clone() const
PUBLIC 3d9b0 0 std::__ndk1::__function::__func<isOk(std::__ndk1::basic_string<char, std::__ndk1::char_traits<char>, std::__ndk1::allocator<char> > const&, geode::EventListener<geode::Task<geode::utils::web::WebResponse, geode::utils::web::WebProgress> >&&, bool, std::__ndk1::function<void (bool, int)> const&)::$_0, std::__ndk1::allocator<isOk(std::__ndk1::basic_string<char, std::__ndk1::char_traits<char>, std::__ndk1::allocator<char> > const&, geode::EventListener<geode::Task<geode::utils::web::WebResponse, geode::utils::web::WebProgress> >&&, bool, std::__ndk1::function<void (bool, int)> const&)::$_0>, void (geode::Task<geode::utils::web::WebResponse, geode::utils::web::WebProgress>*::Event)>::__clone(std::__ndk1::__function::__base<void (geode::Task<geode::utils::web::WebResponse, geode::utils::web::WebProgress>*::Event)>*) const
PUBLIC 3da2c 0 std::__ndk1::__function::__func<isOk(std::__ndk1::basic_string<char, std::__ndk1::char_traits<char>, std::__ndk1::allocator<char> > const&, geode::EventListener<geode::Task<geode::utils::web::WebResponse, geode::utils::web::WebProgress> >&&, bool, std::__ndk1::function<void (bool, int)> const&)::$_0, std::__ndk1::allocator<isOk(std::__ndk1::basic_string<char, std::__ndk1::char_traits<char>, std::__ndk1::allocator<char> > const&, geode::EventListener<geode::Task<geode::utils::web::WebResponse, geode::utils::web::WebProgress> >&&, bool, std::__ndk1::function<void (bool, int)> const&)::$_0>, void (geode::Task<geode::utils::web::WebResponse, geode::utils::web::WebProgress>*::Event)>::destroy()
PUBLIC 3da6c 0 std::__ndk1::__function::__func<isOk(std::__ndk1::basic_string<char, std::__ndk1::char_traits<char>, std::__ndk1::allocator<char> > const&, geode::EventListener<geode::Task<geode::utils::web::WebResponse, geode::utils::web::WebProgress> >&&, bool, std::__ndk1::function<void (bool, int)> const&)::$_0, std::__ndk1::allocator<isOk(std::__ndk1::basic_string<char, std::__ndk1::char_traits<char>, std::__ndk1::allocator<char> > const&, geode::EventListener<geode::Task<geode::utils::web::WebResponse, geode::utils::web::WebProgress> >&&, bool, std::__ndk1::function<void (bool, int)> const&)::$_0>, void (geode::Task<geode::utils::web::WebResponse, geode::utils::web::WebProgress>*::Event)>::destroy_deallocate()
PUBLIC 3dabc 0 std::__ndk1::__function::__func<isOk(std::__ndk1::basic_string<char, std::__ndk1::char_traits<char>, std::__ndk1::allocator<char> > const&, geode::EventListener<geode::Task<geode::utils::web::WebResponse, geode::utils::web::WebProgress> >&&, bool, std::__ndk1::function<void (bool, int)> const&)::$_0, std::__ndk1::allocator<isOk(std::__ndk1::basic_string<char, std::__ndk1::char_traits<char>, std::__ndk1::allocator<char> > const&, geode::EventListener<geode::Task<geode::utils::web::WebResponse, geode::utils::web::WebProgress> >&&, bool, std::__ndk1::function<void (bool, int)> const&)::$_0>, void (geode::Task<geode::utils::web::WebResponse, geode::utils::web::WebProgress>*::Event)>::operator()(geode::Task<geode::utils::web::WebResponse, geode::utils::web::WebProgress>*::Event&&)
PUBLIC 3db70 0 std::__ndk1::__function::__func<isOk(std::__ndk1::basic_string<char, std::__ndk1::char_traits<char>, std::__ndk1::allocator<char> > const&, geode::EventListener<geode::Task<geode::utils::web::WebResponse, geode::utils::web::WebProgress> >&&, bool, std::__ndk1::function<void (bool, int)> const&)::$_0, std::__ndk1::allocator<isOk(std::__ndk1::basic_string<char, std::__ndk1::char_traits<char>, std::__ndk1::allocator<char> > const&, geode::EventListener<geode::Task<geode::utils::web::WebResponse, geode::utils::web::WebProgress> >&&, bool, std::__ndk1::function<void (bool, int)> const&)::$_0>, void (geode::Task<geode::utils::web::WebResponse, geode::utils::web::WebProgress>*::Event)>::target(std::type_info const&) const
PUBLIC 3db8c 0 std::__ndk1::__function::__func<isOk(std::__ndk1::basic_string<char, std::__ndk1::char_traits<char>, std::__ndk1::allocator<char> > const&, geode::EventListener<geode::Task<geode::utils::web::WebResponse, geode::utils::web::WebProgress> >&&, bool, std::__ndk1::function<void (bool, int)> const&)::$_0, std::__ndk1::allocator<isOk(std::__ndk1::basic_string<char, std::__ndk1::char_traits<char>, std::__ndk1::allocator<char> > const&, geode::EventListener<geode::Task<geode::utils::web::WebResponse, geode::utils::web::WebProgress> >&&, bool, std::__ndk1::function<void (bool, int)> const&)::$_0>, void (geode::Task<geode::utils::web::WebResponse, geode::utils::web::WebProgress>*::Event)>::target_type() const
PUBLIC 3db98 0 std::__ndk1::__function::__func<IntegratedDemonlist::loadAREDL(geode::EventListener<geode::Task<geode::utils::web::WebResponse, geode::utils::web::WebProgress> >&&, geode::EventListener<geode::Task<geode::utils::web::WebResponse, geode::utils::web::WebProgress> >&&, std::__ndk1::function<void ()> const&, std::__ndk1::function<void (int)> const&)::$_0, std::__ndk1::allocator<IntegratedDemonlist::loadAREDL(geode::EventListener<geode::Task<geode::utils::web::WebResponse, geode::utils::web::WebProgress> >&&, geode::EventListener<geode::Task<geode::utils::web::WebResponse, geode::utils::web::WebProgress> >&&, std::__ndk1::function<void ()> const&, std::__ndk1::function<void (int)> const&)::$_0>, void (geode::Task<geode::utils::web::WebResponse, geode::utils::web::WebProgress>*::Event)>::~__func()
PUBLIC 3dc38 0 std::__ndk1::__function::__func<IntegratedDemonlist::loadAREDL(geode::EventListener<geode::Task<geode::utils::web::WebResponse, geode::utils::web::WebProgress> >&&, geode::EventListener<geode::Task<geode::utils::web::WebResponse, geode::utils::web::WebProgress> >&&, std::__ndk1::function<void ()> const&, std::__ndk1::function<void (int)> const&)::$_0, std::__ndk1::allocator<IntegratedDemonlist::loadAREDL(geode::EventListener<geode::Task<geode::utils::web::WebResponse, geode::utils::web::WebProgress> >&&, geode::EventListener<geode::Task<geode::utils::web::WebResponse, geode::utils::web::WebProgress> >&&, std::__ndk1::function<void ()> const&, std::__ndk1::function<void (int)> const&)::$_0>, void (geode::Task<geode::utils::web::WebResponse, geode::utils::web::WebProgress>*::Event)>::~__func()
PUBLIC 3dcc4 0 std::__ndk1::__function::__func<IntegratedDemonlist::loadAREDL(geode::EventListener<geode::Task<geode::utils::web::WebResponse, geode::utils::web::WebProgress> >&&, geode::EventListener<geode::Task<geode::utils::web::WebResponse, geode::utils::web::WebProgress> >&&, std::__ndk1::function<void ()> const&, std::__ndk1::function<void (int)> const&)::$_0, std::__ndk1::allocator<IntegratedDemonlist::loadAREDL(geode::EventListener<geode::Task<geode::utils::web::WebResponse, geode::utils::web::WebProgress> >&&, geode::EventListener<geode::Task<geode::utils::web::WebResponse, geode::utils::web::WebProgress> >&&, std::__ndk1::function<void ()> const&, std::__ndk1::function<void (int)> const&)::$_0>, void (geode::Task<geode::utils::web::WebResponse, geode::utils::web::WebProgress>*::Event)>::__clone() const
PUBLIC 3dde8 0 std::__ndk1::__function::__func<IntegratedDemonlist::loadAREDL(geode::EventListener<geode::Task<geode::utils::web::WebResponse, geode::utils::web::WebProgress> >&&, geode::EventListener<geode::Task<geode::utils::web::WebResponse, geode::utils::web::WebProgress> >&&, std::__ndk1::function<void ()> const&, std::__ndk1::function<void (int)> const&)::$_0, std::__ndk1::allocator<IntegratedDemonlist::loadAREDL(geode::EventListener<geode::Task<geode::utils::web::WebResponse, geode::utils::web::WebProgress> >&&, geode::EventListener<geode::Task<geode::utils::web::WebResponse, geode::utils::web::WebProgress> >&&, std::__ndk1::function<void ()> const&, std::__ndk1::function<void (int)> const&)::$_0>, void (geode::Task<geode::utils::web::WebResponse, geode::utils::web::WebProgress>*::Event)>::__clone(std::__ndk1::__function::__base<void (geode::Task<geode::utils::web::WebResponse, geode::utils::web::WebProgress>*::Event)>*) const
PUBLIC 3df00 0 std::__ndk1::__function::__func<IntegratedDemonlist::loadAREDL(geode::EventListener<geode::Task<geode::utils::web::WebResponse, geode::utils::web::WebProgress> >&&, geode::EventListener<geode::Task<geode::utils::web::WebResponse, geode::utils::web::WebProgress> >&&, std::__ndk1::function<void ()> const&, std::__ndk1::function<void (int)> const&)::$_0, std::__ndk1::allocator<IntegratedDemonlist::loadAREDL(geode::EventListener<geode::Task<geode::utils::web::WebResponse, geode::utils::web::WebProgress> >&&, geode::EventListener<geode::Task<geode::utils::web::WebResponse, geode::utils::web::WebProgress> >&&, std::__ndk1::function<void ()> const&, std::__ndk1::function<void (int)> const&)::$_0>, void (geode::Task<geode::utils::web::WebResponse, geode::utils::web::WebProgress>*::Event)>::destroy()
PUBLIC 3df94 0 std::__ndk1::__function::__func<IntegratedDemonlist::loadAREDL(geode::EventListener<geode::Task<geode::utils::web::WebResponse, geode::utils::web::WebProgress> >&&, geode::EventListener<geode::Task<geode::utils::web::WebResponse, geode::utils::web::WebProgress> >&&, std::__ndk1::function<void ()> const&, std::__ndk1::function<void (int)> const&)::$_0, std::__ndk1::allocator<IntegratedDemonlist::loadAREDL(geode::EventListener<geode::Task<geode::utils::web::WebResponse, geode::utils::web::WebProgress> >&&, geode::EventListener<geode::Task<geode::utils::web::WebResponse, geode::utils::web::WebProgress> >&&, std::__ndk1::function<void ()> const&, std::__ndk1::function<void (int)> const&)::$_0>, void (geode::Task<geode::utils::web::WebResponse, geode::utils::web::WebProgress>*::Event)>::destroy_deallocate()
PUBLIC 3e014 0 std::__ndk1::__function::__func<IntegratedDemonlist::loadAREDL(geode::EventListener<geode::Task<geode::utils::web::WebResponse, geode::utils::web::WebProgress> >&&, geode::EventListener<geode::Task<geode::utils::web::WebResponse, geode::utils::web::WebProgress> >&&, std::__ndk1::function<void ()> const&, std::__ndk1::function<void (int)> const&)::$_0, std::__ndk1::allocator<IntegratedDemonlist::loadAREDL(geode::EventListener<geode::Task<geode::utils::web::WebResponse, geode::utils::web::WebProgress> >&&, geode::EventListener<geode::Task<geode::utils::web::WebResponse, geode::utils::web::WebProgress> >&&, std::__ndk1::function<void ()> const&, std::__ndk1::function<void (int)> const&)::$_0>, void (geode::Task<geode::utils::web::WebResponse, geode::utils::web::WebProgress>*::Event)>::operator()(geode::Task<geode::utils::web::WebResponse, geode::utils::web::WebProgress>*::Event&&)
PUBLIC 3e930 0 std::__ndk1::__function::__func<IntegratedDemonlist::loadAREDL(geode::EventListener<geode::Task<geode::utils::web::WebResponse, geode::utils::web::WebProgress> >&&, geode::EventListener<geode::Task<geode::utils::web::WebResponse, geode::utils::web::WebProgress> >&&, std::__ndk1::function<void ()> const&, std::__ndk1::function<void (int)> const&)::$_0, std::__ndk1::allocator<IntegratedDemonlist::loadAREDL(geode::EventListener<geode::Task<geode::utils::web::WebResponse, geode::utils::web::WebProgress> >&&, geode::EventListener<geode::Task<geode::utils::web::WebResponse, geode::utils::web::WebProgress> >&&, std::__ndk1::function<void ()> const&, std::__ndk1::function<void (int)> const&)::$_0>, void (geode::Task<geode::utils::web::WebResponse, geode::utils::web::WebProgress>*::Event)>::target(std::type_info const&) const
PUBLIC 3e94c 0 std::__ndk1::__function::__func<IntegratedDemonlist::loadAREDL(geode::EventListener<geode::Task<geode::utils::web::WebResponse, geode::utils::web::WebProgress> >&&, geode::EventListener<geode::Task<geode::utils::web::WebResponse, geode::utils::web::WebProgress> >&&, std::__ndk1::function<void ()> const&, std::__ndk1::function<void (int)> const&)::$_0, std::__ndk1::allocator<IntegratedDemonlist::loadAREDL(geode::EventListener<geode::Task<geode::utils::web::WebResponse, geode::utils::web::WebProgress> >&&, geode::EventListener<geode::Task<geode::utils::web::WebResponse, geode::utils::web::WebProgress> >&&, std::__ndk1::function<void ()> const&, std::__ndk1::function<void (int)> const&)::$_0>, void (geode::Task<geode::utils::web::WebResponse, geode::utils::web::WebProgress>*::Event)>::target_type() const
PUBLIC 3e958 0 std::__ndk1::vector<matjson::Value, std::__ndk1::allocator<matjson::Value> >::~vector[abi:ne180000]()
PUBLIC 3e9c0 0 geode::impl::ResultData<std::__ndk1::vector<matjson::Value, std::__ndk1::allocator<matjson::Value> >&, std::__ndk1::basic_string<char, std::__ndk1::char_traits<char>, std::__ndk1::allocator<char> > >::~ResultData()
PUBLIC 3ea34 0 geode::impl::ResultData<std::__ndk1::basic_string<char, std::__ndk1::char_traits<char>, std::__ndk1::allocator<char> >, std::__ndk1::basic_string<char, std::__ndk1::char_traits<char>, std::__ndk1::allocator<char> > >::~ResultData()
PUBLIC 3eaa8 0 std::__ndk1::__variant_detail::__visitation::__base::__dispatcher<(unsigned long)0>::__dispatch[abi:ne180000]<std::__ndk1::__variant_detail::__dtor<std::__ndk1::__variant_detail::__traits<std::__ndk1::basic_string<char, std::__ndk1::char_traits<char>, std::__ndk1::allocator<char> >, std::__ndk1::allocator<char> >, (std::__ndk1::__variant_detail::_Trait)1>::__destroy[abi:ne180000]()::{lambda(auto:1&)#1}, std::__ndk1::__variant_detail::__base<(std::__ndk1::__variant_detail::__traits<std::__ndk1::basic_string<char, std::__ndk1::char_traits<char>, std::__ndk1::allocator<char> >, std::__ndk1::allocator<char> >)1, std::__ndk1::allocator<char>, std::__ndk1::allocator<char> >&>(std::__ndk1::__variant_detail::__dtor<std::__ndk1::__variant_detail::__traits<std::__ndk1::basic_string<char, std::__ndk1::char_traits<char>, std::__ndk1::allocator<char> >, std::__ndk1::allocator<char> >, (std::__ndk1::__variant_detail::_Trait)1>, std::__ndk1::__variant_detail::__base<(std::__ndk1::__variant_detail::__traits<std::__ndk1::basic_string<char, std::__ndk1::char_traits<char>, std::__ndk1::allocator<char> >, std::__ndk1::allocator<char> >)1, std::__ndk1::allocator<char>, std::__ndk1::allocator<char> >&)
PUBLIC 3eabc 0 std::__ndk1::__variant_detail::__visitation::__base::__dispatcher<(unsigned long)1>::__dispatch[abi:ne180000]<std::__ndk1::__variant_detail::__dtor<std::__ndk1::__variant_detail::__traits<std::__ndk1::basic_string<char, std::__ndk1::char_traits<char>, std::__ndk1::allocator<char> >, std::__ndk1::allocator<char> >, (std::__ndk1::__variant_detail::_Trait)1>::__destroy[abi:ne180000]()::{lambda(auto:1&)#1}, std::__ndk1::__variant_detail::__base<(std::__ndk1::__variant_detail::__traits<std::__ndk1::basic_string<char, std::__ndk1::char_traits<char>, std::__ndk1::allocator<char> >, std::__ndk1::allocator<char> >)1, std::__ndk1::allocator<char>, std::__ndk1::allocator<char> >&>(std::__ndk1::__variant_detail::__dtor<std::__ndk1::__variant_detail::__traits<std::__ndk1::basic_string<char, std::__ndk1::char_traits<char>, std::__ndk1::allocator<char> >, std::__ndk1::allocator<char> >, (std::__ndk1::__variant_detail::_Trait)1>, std::__ndk1::__variant_detail::__base<(std::__ndk1::__variant_detail::__traits<std::__ndk1::basic_string<char, std::__ndk1::char_traits<char>, std::__ndk1::allocator<char> >, std::__ndk1::allocator<char> >)1, std::__ndk1::allocator<char>, std::__ndk1::allocator<char> >&)
PUBLIC 3ead0 0 geode::impl::ResultData<bool, std::__ndk1::basic_string<char, std::__ndk1::char_traits<char>, std::__ndk1::allocator<char> > >::~ResultData()
PUBLIC 3eb44 0 std::__ndk1::__variant_detail::__visitation::__base::__dispatcher<(unsigned long)0>::__dispatch[abi:ne180000]<std::__ndk1::__variant_detail::__dtor<std::__ndk1::__variant_detail::__traits<bool, std::__ndk1::basic_string<char, std::__ndk1::char_traits<char>, std::__ndk1::allocator<char> > >, (std::__ndk1::__variant_detail::_Trait)1>::__destroy[abi:ne180000]()::{lambda(auto:1&)#1}, std::__ndk1::__variant_detail::__base<(std::__ndk1::__variant_detail::__traits<bool, std::__ndk1::basic_string<char, std::__ndk1::char_traits<char>, std::__ndk1::allocator<char> > >)1, bool, std::__ndk1::allocator<char> >&>(std::__ndk1::__variant_detail::__dtor<std::__ndk1::__variant_detail::__traits<bool, std::__ndk1::basic_string<char, std::__ndk1::char_traits<char>, std::__ndk1::allocator<char> > >, (std::__ndk1::__variant_detail::_Trait)1>, std::__ndk1::__variant_detail::__base<(std::__ndk1::__variant_detail::__traits<bool, std::__ndk1::basic_string<char, std::__ndk1::char_traits<char>, std::__ndk1::allocator<char> > >)1, bool, std::__ndk1::allocator<char> >&)
PUBLIC 3eb48 0 std::__ndk1::__variant_detail::__visitation::__base::__dispatcher<(unsigned long)1>::__dispatch[abi:ne180000]<std::__ndk1::__variant_detail::__dtor<std::__ndk1::__variant_detail::__traits<bool, std::__ndk1::basic_string<char, std::__ndk1::char_traits<char>, std::__ndk1::allocator<char> > >, (std::__ndk1::__variant_detail::_Trait)1>::__destroy[abi:ne180000]()::{lambda(auto:1&)#1}, std::__ndk1::__variant_detail::__base<(std::__ndk1::__variant_detail::__traits<bool, std::__ndk1::basic_string<char, std::__ndk1::char_traits<char>, std::__ndk1::allocator<char> > >)1, bool, std::__ndk1::allocator<char> >&>(std::__ndk1::__variant_detail::__dtor<std::__ndk1::__variant_detail::__traits<bool, std::__ndk1::basic_string<char, std::__ndk1::char_traits<char>, std::__ndk1::allocator<char> > >, (std::__ndk1::__variant_detail::_Trait)1>, std::__ndk1::__variant_detail::__base<(std::__ndk1::__variant_detail::__traits<bool, std::__ndk1::basic_string<char, std::__ndk1::char_traits<char>, std::__ndk1::allocator<char> > >)1, bool, std::__ndk1::allocator<char> >&)
PUBLIC 3eb5c 0 std::__ndk1::vector<matjson::Value, std::__ndk1::allocator<matjson::Value> >::__push_back_slow_path<matjson::Value const&>(matjson::Value const&)
PUBLIC 3ecfc 0 std::__ndk1::__split_buffer<matjson::Value, std::__ndk1::allocator<matjson::Value>&>::~__split_buffer()
PUBLIC 3ed50 0 std::__ndk1::vector<matjson::Value, std::__ndk1::allocator<matjson::Value> >::__throw_length_error[abi:ne180000]() const
PUBLIC 3ed64 0 std::__ndk1::__variant_detail::__visitation::__base::__dispatcher<(unsigned long)0>::__dispatch[abi:ne180000]<std::__ndk1::__variant_detail::__dtor<std::__ndk1::__variant_detail::__traits<std::__ndk1::reference_wrapper<std::__ndk1::vector<matjson::Value, std::__ndk1::allocator<matjson> > >, std::__ndk1::basic_string<char, std::__ndk1::char_traits<char>, matjson::Value<char> > >, (std::__ndk1::__variant_detail::_Trait)1>::__destroy[abi:ne180000]()::{lambda(auto:1&)#1}, std::__ndk1::__variant_detail::__base<(std::__ndk1::__variant_detail::__traits<std::__ndk1::reference_wrapper<std::__ndk1::vector<matjson::Value, std::__ndk1::allocator<matjson> > >, std::__ndk1::basic_string<char, std::__ndk1::char_traits<char>, matjson::Value<char> > >)1, std::__ndk1::vector<matjson::Value, std::__ndk1::allocator<matjson> >, matjson::Value<char> >&>(std::__ndk1::__variant_detail::__dtor<std::__ndk1::__variant_detail::__traits<std::__ndk1::reference_wrapper<std::__ndk1::vector<matjson::Value, std::__ndk1::allocator<matjson> > >, std::__ndk1::basic_string<char, std::__ndk1::char_traits<char>, matjson::Value<char> > >, (std::__ndk1::__variant_detail::_Trait)1>, std::__ndk1::__variant_detail::__base<(std::__ndk1::__variant_detail::__traits<std::__ndk1::reference_wrapper<std::__ndk1::vector<matjson::Value, std::__ndk1::allocator<matjson> > >, std::__ndk1::basic_string<char, std::__ndk1::char_traits<char>, matjson::Value<char> > >)1, std::__ndk1::vector<matjson::Value, std::__ndk1::allocator<matjson> >, matjson::Value<char> >&)
PUBLIC 3ed68 0 std::__ndk1::__variant_detail::__visitation::__base::__dispatcher<(unsigned long)1>::__dispatch[abi:ne180000]<std::__ndk1::__variant_detail::__dtor<std::__ndk1::__variant_detail::__traits<std::__ndk1::reference_wrapper<std::__ndk1::vector<matjson::Value, std::__ndk1::allocator<matjson> > >, std::__ndk1::basic_string<char, std::__ndk1::char_traits<char>, matjson::Value<char> > >, (std::__ndk1::__variant_detail::_Trait)1>::__destroy[abi:ne180000]()::{lambda(auto:1&)#1}, std::__ndk1::__variant_detail::__base<(std::__ndk1::__variant_detail::__traits<std::__ndk1::reference_wrapper<std::__ndk1::vector<matjson::Value, std::__ndk1::allocator<matjson> > >, std::__ndk1::basic_string<char, std::__ndk1::char_traits<char>, matjson::Value<char> > >)1, std::__ndk1::vector<matjson::Value, std::__ndk1::allocator<matjson> >, matjson::Value<char> >&>(std::__ndk1::__variant_detail::__dtor<std::__ndk1::__variant_detail::__traits<std::__ndk1::reference_wrapper<std::__ndk1::vector<matjson::Value, std::__ndk1::allocator<matjson> > >, std::__ndk1::basic_string<char, std::__ndk1::char_traits<char>, matjson::Value<char> > >, (std::__ndk1::__variant_detail::_Trait)1>, std::__ndk1::__variant_detail::__base<(std::__ndk1::__variant_detail::__traits<std::__ndk1::reference_wrapper<std::__ndk1::vector<matjson::Value, std::__ndk1::allocator<matjson> > >, std::__ndk1::basic_string<char, std::__ndk1::char_traits<char>, matjson::Value<char> > >)1, std::__ndk1::vector<matjson::Value, std::__ndk1::allocator<matjson> >, matjson::Value<char> >&)
PUBLIC 3ed7c 0 std::__ndk1::__function::__func<IntegratedDemonlist::loadAREDL(geode::EventListener<geode::Task<geode::utils::web::WebResponse, geode::utils::web::WebProgress> >&&, geode::EventListener<geode::Task<geode::utils::web::WebResponse, geode::utils::web::WebProgress> >&&, std::__ndk1::function<void ()> const&, std::__ndk1::function<void (int)> const&)::$_1, std::__ndk1::allocator<IntegratedDemonlist::loadAREDL(geode::EventListener<geode::Task<geode::utils::web::WebResponse, geode::utils::web::WebProgress> >&&, geode::EventListener<geode::Task<geode::utils::web::WebResponse, geode::utils::web::WebProgress> >&&, std::__ndk1::function<void ()> const&, std::__ndk1::function<void (int)> const&)::$_1>, void (bool, int)>::~__func()
PUBLIC 3edc8 0 std::__ndk1::__function::__func<IntegratedDemonlist::loadAREDL(geode::EventListener<geode::Task<geode::utils::web::WebResponse, geode::utils::web::WebProgress> >&&, geode::EventListener<geode::Task<geode::utils::web::WebResponse, geode::utils::web::WebProgress> >&&, std::__ndk1::function<void ()> const&, std::__ndk1::function<void (int)> const&)::$_1, std::__ndk1::allocator<IntegratedDemonlist::loadAREDL(geode::EventListener<geode::Task<geode::utils::web::WebResponse, geode::utils::web::WebProgress> >&&, geode::EventListener<geode::Task<geode::utils::web::WebResponse, geode::utils::web::WebProgress> >&&, std::__ndk1::function<void ()> const&, std::__ndk1::function<void (int)> const&)::$_1>, void (bool, int)>::~__func()
PUBLIC 3ee24 0 std::__ndk1::__function::__func<IntegratedDemonlist::loadAREDL(geode::EventListener<geode::Task<geode::utils::web::WebResponse, geode::utils::web::WebProgress> >&&, geode::EventListener<geode::Task<geode::utils::web::WebResponse, geode::utils::web::WebProgress> >&&, std::__ndk1::function<void ()> const&, std::__ndk1::function<void (int)> const&)::$_1, std::__ndk1::allocator<IntegratedDemonlist::loadAREDL(geode::EventListener<geode::Task<geode::utils::web::WebResponse, geode::utils::web::WebProgress> >&&, geode::EventListener<geode::Task<geode::utils::web::WebResponse, geode::utils::web::WebProgress> >&&, std::__ndk1::function<void ()> const&, std::__ndk1::function<void (int)> const&)::$_1>, void (bool, int)>::__clone() const
PUBLIC 3eec0 0 std::__ndk1::__function::__func<IntegratedDemonlist::loadAREDL(geode::EventListener<geode::Task<geode::utils::web::WebResponse, geode::utils::web::WebProgress> >&&, geode::EventListener<geode::Task<geode::utils::web::WebResponse, geode::utils::web::WebProgress> >&&, std::__ndk1::function<void ()> const&, std::__ndk1::function<void (int)> const&)::$_1, std::__ndk1::allocator<IntegratedDemonlist::loadAREDL(geode::EventListener<geode::Task<geode::utils::web::WebResponse, geode::utils::web::WebProgress> >&&, geode::EventListener<geode::Task<geode::utils::web::WebResponse, geode::utils::web::WebProgress> >&&, std::__ndk1::function<void ()> const&, std::__ndk1::function<void (int)> const&)::$_1>, void (bool, int)>::__clone(std::__ndk1::__function::__base<void (bool, int)>*) const
PUBLIC 3ef48 0 std::__ndk1::__function::__func<IntegratedDemonlist::loadAREDL(geode::EventListener<geode::Task<geode::utils::web::WebResponse, geode::utils::web::WebProgress> >&&, geode::EventListener<geode::Task<geode::utils::web::WebResponse, geode::utils::web::WebProgress> >&&, std::__ndk1::function<void ()> const&, std::__ndk1::function<void (int)> const&)::$_1, std::__ndk1::allocator<IntegratedDemonlist::loadAREDL(geode::EventListener<geode::Task<geode::utils::web::WebResponse, geode::utils::web::WebProgress> >&&, geode::EventListener<geode::Task<geode::utils::web::WebResponse, geode::utils::web::WebProgress> >&&, std::__ndk1::function<void ()> const&, std::__ndk1::function<void (int)> const&)::$_1>, void (bool, int)>::destroy()
PUBLIC 3ef88 0 std::__ndk1::__function::__func<IntegratedDemonlist::loadAREDL(geode::EventListener<geode::Task<geode::utils::web::WebResponse, geode::utils::web::WebProgress> >&&, geode::EventListener<geode::Task<geode::utils::web::WebResponse, geode::utils::web::WebProgress> >&&, std::__ndk1::function<void ()> const&, std::__ndk1::function<void (int)> const&)::$_1, std::__ndk1::allocator<IntegratedDemonlist::loadAREDL(geode::EventListener<geode::Task<geode::utils::web::WebResponse, geode::utils::web::WebProgress> >&&, geode::EventListener<geode::Task<geode::utils::web::WebResponse, geode::utils::web::WebProgress> >&&, std::__ndk1::function<void ()> const&, std::__ndk1::function<void (int)> const&)::$_1>, void (bool, int)>::destroy_deallocate()
PUBLIC 3efd8 0 std::__ndk1::__function::__func<IntegratedDemonlist::loadAREDL(geode::EventListener<geode::Task<geode::utils::web::WebResponse, geode::utils::web::WebProgress> >&&, geode::EventListener<geode::Task<geode::utils::web::WebResponse, geode::utils::web::WebProgress> >&&, std::__ndk1::function<void ()> const&, std::__ndk1::function<void (int)> const&)::$_1, std::__ndk1::allocator<IntegratedDemonlist::loadAREDL(geode::EventListener<geode::Task<geode::utils::web::WebResponse, geode::utils::web::WebProgress> >&&, geode::EventListener<geode::Task<geode::utils::web::WebResponse, geode::utils::web::WebProgress> >&&, std::__ndk1::function<void ()> const&, std::__ndk1::function<void (int)> const&)::$_1>, void (bool, int)>::operator()(bool&&, int&&)
PUBLIC 3f15c 0 std::__ndk1::__function::__func<IntegratedDemonlist::loadAREDL(geode::EventListener<geode::Task<geode::utils::web::WebResponse, geode::utils::web::WebProgress> >&&, geode::EventListener<geode::Task<geode::utils::web::WebResponse, geode::utils::web::WebProgress> >&&, std::__ndk1::function<void ()> const&, std::__ndk1::function<void (int)> const&)::$_1, std::__ndk1::allocator<IntegratedDemonlist::loadAREDL(geode::EventListener<geode::Task<geode::utils::web::WebResponse, geode::utils::web::WebProgress> >&&, geode::EventListener<geode::Task<geode::utils::web::WebResponse, geode::utils::web::WebProgress> >&&, std::__ndk1::function<void ()> const&, std::__ndk1::function<void (int)> const&)::$_1>, void (bool, int)>::target(std::type_info const&) const
PUBLIC 3f178 0 std::__ndk1::__function::__func<IntegratedDemonlist::loadAREDL(geode::EventListener<geode::Task<geode::utils::web::WebResponse, geode::utils::web::WebProgress> >&&, geode::EventListener<geode::Task<geode::utils::web::WebResponse, geode::utils::web::WebProgress> >&&, std::__ndk1::function<void ()> const&, std::__ndk1::function<void (int)> const&)::$_1, std::__ndk1::allocator<IntegratedDemonlist::loadAREDL(geode::EventListener<geode::Task<geode::utils::web::WebResponse, geode::utils::web::WebProgress> >&&, geode::EventListener<geode::Task<geode::utils::web::WebResponse, geode::utils::web::WebProgress> >&&, std::__ndk1::function<void ()> const&, std::__ndk1::function<void (int)> const&)::$_1>, void (bool, int)>::target_type() const
PUBLIC 3f184 0 std::__ndk1::__function::__func<IntegratedDemonlist::loadAREDLPacks(geode::EventListener<geode::Task<geode::utils::web::WebResponse, geode::utils::web::WebProgress> >&&, geode::EventListener<geode::Task<geode::utils::web::WebResponse, geode::utils::web::WebProgress> >&&, std::__ndk1::function<void ()> const&, std::__ndk1::function<void (int)> const&)::$_0, std::__ndk1::allocator<IntegratedDemonlist::loadAREDLPacks(geode::EventListener<geode::Task<geode::utils::web::WebResponse, geode::utils::web::WebProgress> >&&, geode::EventListener<geode::Task<geode::utils::web::WebResponse, geode::utils::web::WebProgress> >&&, std::__ndk1::function<void ()> const&, std::__ndk1::function<void (int)> const&)::$_0>, void (geode::Task<geode::utils::web::WebResponse, geode::utils::web::WebProgress>*::Event)>::~__func()
PUBLIC 3f224 0 std::__ndk1::__function::__func<IntegratedDemonlist::loadAREDLPacks(geode::EventListener<geode::Task<geode::utils::web::WebResponse, geode::utils::web::WebProgress> >&&, geode::EventListener<geode::Task<geode::utils::web::WebResponse, geode::utils::web::WebProgress> >&&, std::__ndk1::function<void ()> const&, std::__ndk1::function<void (int)> const&)::$_0, std::__ndk1::allocator<IntegratedDemonlist::loadAREDLPacks(geode::EventListener<geode::Task<geode::utils::web::WebResponse, geode::utils::web::WebProgress> >&&, geode::EventListener<geode::Task<geode::utils::web::WebResponse, geode::utils::web::WebProgress> >&&, std::__ndk1::function<void ()> const&, std::__ndk1::function<void (int)> const&)::$_0>, void (geode::Task<geode::utils::web::WebResponse, geode::utils::web::WebProgress>*::Event)>::~__func()
PUBLIC 3f2b0 0 std::__ndk1::__function::__func<IntegratedDemonlist::loadAREDLPacks(geode::EventListener<geode::Task<geode::utils::web::WebResponse, geode::utils::web::WebProgress> >&&, geode::EventListener<geode::Task<geode::utils::web::WebResponse, geode::utils::web::WebProgress> >&&, std::__ndk1::function<void ()> const&, std::__ndk1::function<void (int)> const&)::$_0, std::__ndk1::allocator<IntegratedDemonlist::loadAREDLPacks(geode::EventListener<geode::Task<geode::utils::web::WebResponse, geode::utils::web::WebProgress> >&&, geode::EventListener<geode::Task<geode::utils::web::WebResponse, geode::utils::web::WebProgress> >&&, std::__ndk1::function<void ()> const&, std::__ndk1::function<void (int)> const&)::$_0>, void (geode::Task<geode::utils::web::WebResponse, geode::utils::web::WebProgress>*::Event)>::__clone() const
PUBLIC 3f3d4 0 std::__ndk1::__function::__func<IntegratedDemonlist::loadAREDLPacks(geode::EventListener<geode::Task<geode::utils::web::WebResponse, geode::utils::web::WebProgress> >&&, geode::EventListener<geode::Task<geode::utils::web::WebResponse, geode::utils::web::WebProgress> >&&, std::__ndk1::function<void ()> const&, std::__ndk1::function<void (int)> const&)::$_0, std::__ndk1::allocator<IntegratedDemonlist::loadAREDLPacks(geode::EventListener<geode::Task<geode::utils::web::WebResponse, geode::utils::web::WebProgress> >&&, geode::EventListener<geode::Task<geode::utils::web::WebResponse, geode::utils::web::WebProgress> >&&, std::__ndk1::function<void ()> const&, std::__ndk1::function<void (int)> const&)::$_0>, void (geode::Task<geode::utils::web::WebResponse, geode::utils::web::WebProgress>*::Event)>::__clone(std::__ndk1::__function::__base<void (geode::Task<geode::utils::web::WebResponse, geode::utils::web::WebProgress>*::Event)>*) const
PUBLIC 3f4ec 0 std::__ndk1::__function::__func<IntegratedDemonlist::loadAREDLPacks(geode::EventListener<geode::Task<geode::utils::web::WebResponse, geode::utils::web::WebProgress> >&&, geode::EventListener<geode::Task<geode::utils::web::WebResponse, geode::utils::web::WebProgress> >&&, std::__ndk1::function<void ()> const&, std::__ndk1::function<void (int)> const&)::$_0, std::__ndk1::allocator<IntegratedDemonlist::loadAREDLPacks(geode::EventListener<geode::Task<geode::utils::web::WebResponse, geode::utils::web::WebProgress> >&&, geode::EventListener<geode::Task<geode::utils::web::WebResponse, geode::utils::web::WebProgress> >&&, std::__ndk1::function<void ()> const&, std::__ndk1::function<void (int)> const&)::$_0>, void (geode::Task<geode::utils::web::WebResponse, geode::utils::web::WebProgress>*::Event)>::destroy()
PUBLIC 3f580 0 std::__ndk1::__function::__func<IntegratedDemonlist::loadAREDLPacks(geode::EventListener<geode::Task<geode::utils::web::WebResponse, geode::utils::web::WebProgress> >&&, geode::EventListener<geode::Task<geode::utils::web::WebResponse, geode::utils::web::WebProgress> >&&, std::__ndk1::function<void ()> const&, std::__ndk1::function<void (int)> const&)::$_0, std::__ndk1::allocator<IntegratedDemonlist::loadAREDLPacks(geode::EventListener<geode::Task<geode::utils::web::WebResponse, geode::utils::web::WebProgress> >&&, geode::EventListener<geode::Task<geode::utils::web::WebResponse, geode::utils::web::WebProgress> >&&, std::__ndk1::function<void ()> const&, std::__ndk1::function<void (int)> const&)::$_0>, void (geode::Task<geode::utils::web::WebResponse, geode::utils::web::WebProgress>*::Event)>::destroy_deallocate()
PUBLIC 3f600 0 std::__ndk1::__function::__func<IntegratedDemonlist::loadAREDLPacks(geode::EventListener<geode::Task<geode::utils::web::WebResponse, geode::utils::web::WebProgress> >&&, geode::EventListener<geode::Task<geode::utils::web::WebResponse, geode::utils::web::WebProgress> >&&, std::__ndk1::function<void ()> const&, std::__ndk1::function<void (int)> const&)::$_0, std::__ndk1::allocator<IntegratedDemonlist::loadAREDLPacks(geode::EventListener<geode::Task<geode::utils::web::WebResponse, geode::utils::web::WebProgress> >&&, geode::EventListener<geode::Task<geode::utils::web::WebResponse, geode::utils::web::WebProgress> >&&, std::__ndk1::function<void ()> const&, std::__ndk1::function<void (int)> const&)::$_0>, void (geode::Task<geode::utils::web::WebResponse, geode::utils::web::WebProgress>*::Event)>::operator()(geode::Task<geode::utils::web::WebResponse, geode::utils::web::WebProgress>*::Event&&)
PUBLIC 40518 0 std::__ndk1::__function::__func<IntegratedDemonlist::loadAREDLPacks(geode::EventListener<geode::Task<geode::utils::web::WebResponse, geode::utils::web::WebProgress> >&&, geode::EventListener<geode::Task<geode::utils::web::WebResponse, geode::utils::web::WebProgress> >&&, std::__ndk1::function<void ()> const&, std::__ndk1::function<void (int)> const&)::$_0, std::__ndk1::allocator<IntegratedDemonlist::loadAREDLPacks(geode::EventListener<geode::Task<geode::utils::web::WebResponse, geode::utils::web::WebProgress> >&&, geode::EventListener<geode::Task<geode::utils::web::WebResponse, geode::utils::web::WebProgress> >&&, std::__ndk1::function<void ()> const&, std::__ndk1::function<void (int)> const&)::$_0>, void (geode::Task<geode::utils::web::WebResponse, geode::utils::web::WebProgress>*::Event)>::target(std::type_info const&) const
PUBLIC 40534 0 std::__ndk1::__function::__func<IntegratedDemonlist::loadAREDLPacks(geode::EventListener<geode::Task<geode::utils::web::WebResponse, geode::utils::web::WebProgress> >&&, geode::EventListener<geode::Task<geode::utils::web::WebResponse, geode::utils::web::WebProgress> >&&, std::__ndk1::function<void ()> const&, std::__ndk1::function<void (int)> const&)::$_0, std::__ndk1::allocator<IntegratedDemonlist::loadAREDLPacks(geode::EventListener<geode::Task<geode::utils::web::WebResponse, geode::utils::web::WebProgress> >&&, geode::EventListener<geode::Task<geode::utils::web::WebResponse, geode::utils::web::WebProgress> >&&, std::__ndk1::function<void ()> const&, std::__ndk1::function<void (int)> const&)::$_0>, void (geode::Task<geode::utils::web::WebResponse, geode::utils::web::WebProgress>*::Event)>::target_type() const
PUBLIC 40540 0 geode::impl::ResultData<std::__ndk1::vector<matjson::Value, std::__ndk1::allocator<matjson::Value> > const&, std::__ndk1::basic_string<char, std::__ndk1::char_traits<char>, std::__ndk1::allocator<char> > >::~ResultData()
PUBLIC 405b4 0 geode::impl::ResultData<double, std::__ndk1::basic_string<char, std::__ndk1::char_traits<char>, std::__ndk1::allocator<char> > >::~ResultData()
PUBLIC 40628 0 std::__ndk1::__variant_detail::__visitation::__base::__dispatcher<(unsigned long)0>::__dispatch[abi:ne180000]<std::__ndk1::__variant_detail::__dtor<std::__ndk1::__variant_detail::__traits<std::__ndk1::reference_wrapper<std::__ndk1::vector<matjson::Value, std::__ndk1::allocator<matjson> > const>, std::__ndk1::basic_string<char, std::__ndk1::char_traits<char>, matjson::Value<char> > >, (std::__ndk1::__variant_detail::_Trait)1>::__destroy[abi:ne180000]()::{lambda(auto:1&)#1}, std::__ndk1::__variant_detail::__base<(std::__ndk1::__variant_detail::__traits<std::__ndk1::reference_wrapper<std::__ndk1::vector<matjson::Value, std::__ndk1::allocator<matjson> > const>, std::__ndk1::basic_string<char, std::__ndk1::char_traits<char>, matjson::Value<char> > >)1, std::__ndk1::vector<matjson::Value, std::__ndk1::allocator<matjson> > const, matjson::Value<char> >&>(std::__ndk1::__variant_detail::__dtor<std::__ndk1::__variant_detail::__traits<std::__ndk1::reference_wrapper<std::__ndk1::vector<matjson::Value, std::__ndk1::allocator<matjson> > const>, std::__ndk1::basic_string<char, std::__ndk1::char_traits<char>, matjson::Value<char> > >, (std::__ndk1::__variant_detail::_Trait)1>, std::__ndk1::__variant_detail::__base<(std::__ndk1::__variant_detail::__traits<std::__ndk1::reference_wrapper<std::__ndk1::vector<matjson::Value, std::__ndk1::allocator<matjson> > const>, std::__ndk1::basic_string<char, std::__ndk1::char_traits<char>, matjson::Value<char> > >)1, std::__ndk1::vector<matjson::Value, std::__ndk1::allocator<matjson> > const, matjson::Value<char> >&)
PUBLIC 4062c 0 std::__ndk1::__variant_detail::__visitation::__base::__dispatcher<(unsigned long)1>::__dispatch[abi:ne180000]<std::__ndk1::__variant_detail::__dtor<std::__ndk1::__variant_detail::__traits<std::__ndk1::reference_wrapper<std::__ndk1::vector<matjson::Value, std::__ndk1::allocator<matjson> > const>, std::__ndk1::basic_string<char, std::__ndk1::char_traits<char>, matjson::Value<char> > >, (std::__ndk1::__variant_detail::_Trait)1>::__destroy[abi:ne180000]()::{lambda(auto:1&)#1}, std::__ndk1::__variant_detail::__base<(std::__ndk1::__variant_detail::__traits<std::__ndk1::reference_wrapper<std::__ndk1::vector<matjson::Value, std::__ndk1::allocator<matjson> > const>, std::__ndk1::basic_string<char, std::__ndk1::char_traits<char>, matjson::Value<char> > >)1, std::__ndk1::vector<matjson::Value, std::__ndk1::allocator<matjson> > const, matjson::Value<char> >&>(std::__ndk1::__variant_detail::__dtor<std::__ndk1::__variant_detail::__traits<std::__ndk1::reference_wrapper<std::__ndk1::vector<matjson::Value, std::__ndk1::allocator<matjson> > const>, std::__ndk1::basic_string<char, std::__ndk1::char_traits<char>, matjson::Value<char> > >, (std::__ndk1::__variant_detail::_Trait)1>, std::__ndk1::__variant_detail::__base<(std::__ndk1::__variant_detail::__traits<std::__ndk1::reference_wrapper<std::__ndk1::vector<matjson::Value, std::__ndk1::allocator<matjson> > const>, std::__ndk1::basic_string<char, std::__ndk1::char_traits<char>, matjson::Value<char> > >)1, std::__ndk1::vector<matjson::Value, std::__ndk1::allocator<matjson> > const, matjson::Value<char> >&)
PUBLIC 40640 0 std::__ndk1::__variant_detail::__visitation::__base::__dispatcher<(unsigned long)0>::__dispatch[abi:ne180000]<std::__ndk1::__variant_detail::__dtor<std::__ndk1::__variant_detail::__traits<double, std::__ndk1::basic_string<char, std::__ndk1::char_traits<char>, std::__ndk1::allocator<char> > >, (std::__ndk1::__variant_detail::_Trait)1>::__destroy[abi:ne180000]()::{lambda(auto:1&)#1}, std::__ndk1::__variant_detail::__base<(std::__ndk1::__variant_detail::__traits<double, std::__ndk1::basic_string<char, std::__ndk1::char_traits<char>, std::__ndk1::allocator<char> > >)1, double, std::__ndk1::allocator<char> >&>(std::__ndk1::__variant_detail::__dtor<std::__ndk1::__variant_detail::__traits<double, std::__ndk1::basic_string<char, std::__ndk1::char_traits<char>, std::__ndk1::allocator<char> > >, (std::__ndk1::__variant_detail::_Trait)1>, std::__ndk1::__variant_detail::__base<(std::__ndk1::__variant_detail::__traits<double, std::__ndk1::basic_string<char, std::__ndk1::char_traits<char>, std::__ndk1::allocator<char> > >)1, double, std::__ndk1::allocator<char> >&)
PUBLIC 40644 0 std::__ndk1::__variant_detail::__visitation::__base::__dispatcher<(unsigned long)1>::__dispatch[abi:ne180000]<std::__ndk1::__variant_detail::__dtor<std::__ndk1::__variant_detail::__traits<double, std::__ndk1::basic_string<char, std::__ndk1::char_traits<char>, std::__ndk1::allocator<char> > >, (std::__ndk1::__variant_detail::_Trait)1>::__destroy[abi:ne180000]()::{lambda(auto:1&)#1}, std::__ndk1::__variant_detail::__base<(std::__ndk1::__variant_detail::__traits<double, std::__ndk1::basic_string<char, std::__ndk1::char_traits<char>, std::__ndk1::allocator<char> > >)1, double, std::__ndk1::allocator<char> >&>(std::__ndk1::__variant_detail::__dtor<std::__ndk1::__variant_detail::__traits<double, std::__ndk1::basic_string<char, std::__ndk1::char_traits<char>, std::__ndk1::allocator<char> > >, (std::__ndk1::__variant_detail::_Trait)1>, std::__ndk1::__variant_detail::__base<(std::__ndk1::__variant_detail::__traits<double, std::__ndk1::basic_string<char, std::__ndk1::char_traits<char>, std::__ndk1::allocator<char> > >)1, double, std::__ndk1::allocator<char> >&)
PUBLIC 40658 0 std::__ndk1::__introsort<std::__ndk1::_ClassicAlgPolicy, IntegratedDemonlist::loadAREDLPacks(geode::EventListener<geode::Task<geode::utils::web::WebResponse, geode::utils::web::WebProgress> >&&, geode::EventListener<geode::Task<geode::utils::web::WebResponse, geode::utils::web::WebProgress> >&&, std::__ndk1::function<void ()> const&, std::__ndk1::function<void (int)> const&)::$_0::operator()(geode::Task<geode::utils::web::WebResponse, geode::utils::web::WebProgress>*::Event) const::{lambda(IDDemonPack const, IDDemonPack const)#1}&, IDDemonPack*, false>(IDDemonPack*, IDDemonPack*, IntegratedDemonlist::loadAREDLPacks(geode::EventListener<geode::Task<geode::utils::web::WebResponse, geode::utils::web::WebProgress> >&&, geode::EventListener<geode::Task<geode::utils::web::WebResponse, geode::utils::web::WebProgress> >&&, std::__ndk1::function<void ()> const&, std::__ndk1::function<void (int)> const&)::$_0::operator()(geode::Task<geode::utils::web::WebResponse, geode::utils::web::WebProgress>*::Event) const::{lambda(IDDemonPack const, IDDemonPack const)#1}&, std::__ndk1::iterator_traits<IDDemonPack*>::difference_type, bool)
PUBLIC 418ac 0 std::__ndk1::_IterOps<std::__ndk1::_ClassicAlgPolicy>::iter_swap[abi:ne180000]<IDDemonPack*&, IDDemonPack*>(IDDemonPack*&, IDDemonPack*&&)
PUBLIC 419e8 0 _ZNSt6__ndk124__sort5_maybe_branchlessB8ne180000INS_17_ClassicAlgPolicyERZZN19IntegratedDemonlist14loadAREDLPacksEON5geode13EventListenerINS3_4TaskINS3_5utils3web11WebResponseENS7_11WebProgressEEEEESC_RKNS_8functionIFvvEEERKNSD_IFviEEEENK3$_0clEPNSA_5EventEEUlRK11IDDemonPackSR_E_PSP_TnNS_9enable_ifIXntsr21__use_branchless_sortIT0_T1_EE5valueEiE4typeELi0EEEvSX_SX_SX_SX_SX_SW_
PUBLIC 41b6c 0 std::__ndk1::__insertion_sort_incomplete[abi:ne180000]<std::__ndk1::_ClassicAlgPolicy, IntegratedDemonlist::loadAREDLPacks(geode::EventListener<IntegratedDemonlist::Task<IntegratedDemonlist::utils::web::WebResponse, IntegratedDemonlist::utils::WebProgress> >&&, geode::EventListener<IntegratedDemonlist::Task<IntegratedDemonlist::utils::web::WebResponse, IntegratedDemonlist::utils::WebProgress> >, std::__ndk1::function<void ()> const&, geode::EventListener<IntegratedDemonlist::Task<IntegratedDemonlist::utils::web::WebResponse, IntegratedDemonlist::utils::WebProgress> >&&<void (int)> const&)::$_0::operator()(IntegratedDemonlist::utils::WebProgress*::Event) const::{lambda(IDDemonPack const, IDDemonPack const)#1}&, IntegratedDemonlist::utils::WebProgress*::Event*>(IntegratedDemonlist::utils::WebProgress*::Event*, IntegratedDemonlist::utils::WebProgress*::Event*, IntegratedDemonlist::loadAREDLPacks(geode::EventListener<IntegratedDemonlist::Task<IntegratedDemonlist::utils::web::WebResponse, IntegratedDemonlist::utils::WebProgress> >&&, geode::EventListener<IntegratedDemonlist::Task<IntegratedDemonlist::utils::web::WebResponse, IntegratedDemonlist::utils::WebProgress> >, std::__ndk1::function<void ()> const&, geode::EventListener<IntegratedDemonlist::Task<IntegratedDemonlist::utils::web::WebResponse, IntegratedDemonlist::utils::WebProgress> >&&<void (int)> const&)::$_0::operator()(IntegratedDemonlist::utils::WebProgress*::Event) const::{lambda(IDDemonPack const, IDDemonPack const)#1}&)
PUBLIC 41fd0 0 std::__ndk1::__function::__func<IntegratedDemonlist::loadAREDLPacks(geode::EventListener<geode::Task<geode::utils::web::WebResponse, geode::utils::web::WebProgress> >&&, geode::EventListener<geode::Task<geode::utils::web::WebResponse, geode::utils::web::WebProgress> >&&, std::__ndk1::function<void ()> const&, std::__ndk1::function<void (int)> const&)::$_1, std::__ndk1::allocator<IntegratedDemonlist::loadAREDLPacks(geode::EventListener<geode::Task<geode::utils::web::WebResponse, geode::utils::web::WebProgress> >&&, geode::EventListener<geode::Task<geode::utils::web::WebResponse, geode::utils::web::WebProgress> >&&, std::__ndk1::function<void ()> const&, std::__ndk1::function<void (int)> const&)::$_1>, void (bool, int)>::~__func()
PUBLIC 4201c 0 std::__ndk1::__function::__func<IntegratedDemonlist::loadAREDLPacks(geode::EventListener<geode::Task<geode::utils::web::WebResponse, geode::utils::web::WebProgress> >&&, geode::EventListener<geode::Task<geode::utils::web::WebResponse, geode::utils::web::WebProgress> >&&, std::__ndk1::function<void ()> const&, std::__ndk1::function<void (int)> const&)::$_1, std::__ndk1::allocator<IntegratedDemonlist::loadAREDLPacks(geode::EventListener<geode::Task<geode::utils::web::WebResponse, geode::utils::web::WebProgress> >&&, geode::EventListener<geode::Task<geode::utils::web::WebResponse, geode::utils::web::WebProgress> >&&, std::__ndk1::function<void ()> const&, std::__ndk1::function<void (int)> const&)::$_1>, void (bool, int)>::~__func()
PUBLIC 42078 0 std::__ndk1::__function::__func<IntegratedDemonlist::loadAREDLPacks(geode::EventListener<geode::Task<geode::utils::web::WebResponse, geode::utils::web::WebProgress> >&&, geode::EventListener<geode::Task<geode::utils::web::WebResponse, geode::utils::web::WebProgress> >&&, std::__ndk1::function<void ()> const&, std::__ndk1::function<void (int)> const&)::$_1, std::__ndk1::allocator<IntegratedDemonlist::loadAREDLPacks(geode::EventListener<geode::Task<geode::utils::web::WebResponse, geode::utils::web::WebProgress> >&&, geode::EventListener<geode::Task<geode::utils::web::WebResponse, geode::utils::web::WebProgress> >&&, std::__ndk1::function<void ()> const&, std::__ndk1::function<void (int)> const&)::$_1>, void (bool, int)>::__clone() const
PUBLIC 42114 0 std::__ndk1::__function::__func<IntegratedDemonlist::loadAREDLPacks(geode::EventListener<geode::Task<geode::utils::web::WebResponse, geode::utils::web::WebProgress> >&&, geode::EventListener<geode::Task<geode::utils::web::WebResponse, geode::utils::web::WebProgress> >&&, std::__ndk1::function<void ()> const&, std::__ndk1::function<void (int)> const&)::$_1, std::__ndk1::allocator<IntegratedDemonlist::loadAREDLPacks(geode::EventListener<geode::Task<geode::utils::web::WebResponse, geode::utils::web::WebProgress> >&&, geode::EventListener<geode::Task<geode::utils::web::WebResponse, geode::utils::web::WebProgress> >&&, std::__ndk1::function<void ()> const&, std::__ndk1::function<void (int)> const&)::$_1>, void (bool, int)>::__clone(std::__ndk1::__function::__base<void (bool, int)>*) const
PUBLIC 4219c 0 std::__ndk1::__function::__func<IntegratedDemonlist::loadAREDLPacks(geode::EventListener<geode::Task<geode::utils::web::WebResponse, geode::utils::web::WebProgress> >&&, geode::EventListener<geode::Task<geode::utils::web::WebResponse, geode::utils::web::WebProgress> >&&, std::__ndk1::function<void ()> const&, std::__ndk1::function<void (int)> const&)::$_1, std::__ndk1::allocator<IntegratedDemonlist::loadAREDLPacks(geode::EventListener<geode::Task<geode::utils::web::WebResponse, geode::utils::web::WebProgress> >&&, geode::EventListener<geode::Task<geode::utils::web::WebResponse, geode::utils::web::WebProgress> >&&, std::__ndk1::function<void ()> const&, std::__ndk1::function<void (int)> const&)::$_1>, void (bool, int)>::destroy()
PUBLIC 421dc 0 std::__ndk1::__function::__func<IntegratedDemonlist::loadAREDLPacks(geode::EventListener<geode::Task<geode::utils::web::WebResponse, geode::utils::web::WebProgress> >&&, geode::EventListener<geode::Task<geode::utils::web::WebResponse, geode::utils::web::WebProgress> >&&, std::__ndk1::function<void ()> const&, std::__ndk1::function<void (int)> const&)::$_1, std::__ndk1::allocator<IntegratedDemonlist::loadAREDLPacks(geode::EventListener<geode::Task<geode::utils::web::WebResponse, geode::utils::web::WebProgress> >&&, geode::EventListener<geode::Task<geode::utils::web::WebResponse, geode::utils::web::WebProgress> >&&, std::__ndk1::function<void ()> const&, std::__ndk1::function<void (int)> const&)::$_1>, void (bool, int)>::destroy_deallocate()
PUBLIC 4222c 0 std::__ndk1::__function::__func<IntegratedDemonlist::loadAREDLPacks(geode::EventListener<geode::Task<geode::utils::web::WebResponse, geode::utils::web::WebProgress> >&&, geode::EventListener<geode::Task<geode::utils::web::WebResponse, geode::utils::web::WebProgress> >&&, std::__ndk1::function<void ()> const&, std::__ndk1::function<void (int)> const&)::$_1, std::__ndk1::allocator<IntegratedDemonlist::loadAREDLPacks(geode::EventListener<geode::Task<geode::utils::web::WebResponse, geode::utils::web::WebProgress> >&&, geode::EventListener<geode::Task<geode::utils::web::WebResponse, geode::utils::web::WebProgress> >&&, std::__ndk1::function<void ()> const&, std::__ndk1::function<void (int)> const&)::$_1>, void (bool, int)>::operator()(bool&&, int&&)
PUBLIC 423b0 0 std::__ndk1::__function::__func<IntegratedDemonlist::loadAREDLPacks(geode::EventListener<geode::Task<geode::utils::web::WebResponse, geode::utils::web::WebProgress> >&&, geode::EventListener<geode::Task<geode::utils::web::WebResponse, geode::utils::web::WebProgress> >&&, std::__ndk1::function<void ()> const&, std::__ndk1::function<void (int)> const&)::$_1, std::__ndk1::allocator<IntegratedDemonlist::loadAREDLPacks(geode::EventListener<geode::Task<geode::utils::web::WebResponse, geode::utils::web::WebProgress> >&&, geode::EventListener<geode::Task<geode::utils::web::WebResponse, geode::utils::web::WebProgress> >&&, std::__ndk1::function<void ()> const&, std::__ndk1::function<void (int)> const&)::$_1>, void (bool, int)>::target(std::type_info const&) const
PUBLIC 423cc 0 std::__ndk1::__function::__func<IntegratedDemonlist::loadAREDLPacks(geode::EventListener<geode::Task<geode::utils::web::WebResponse, geode::utils::web::WebProgress> >&&, geode::EventListener<geode::Task<geode::utils::web::WebResponse, geode::utils::web::WebProgress> >&&, std::__ndk1::function<void ()> const&, std::__ndk1::function<void (int)> const&)::$_1, std::__ndk1::allocator<IntegratedDemonlist::loadAREDLPacks(geode::EventListener<geode::Task<geode::utils::web::WebResponse, geode::utils::web::WebProgress> >&&, geode::EventListener<geode::Task<geode::utils::web::WebResponse, geode::utils::web::WebProgress> >&&, std::__ndk1::function<void ()> const&, std::__ndk1::function<void (int)> const&)::$_1>, void (bool, int)>::target_type() const
PUBLIC 423d8 0 std::__ndk1::__function::__func<IntegratedDemonlist::loadPemonlist(geode::EventListener<geode::Task<geode::utils::web::WebResponse, geode::utils::web::WebProgress> >&&, geode::EventListener<geode::Task<geode::utils::web::WebResponse, geode::utils::web::WebProgress> >&&, std::__ndk1::function<void ()> const&, std::__ndk1::function<void (int)> const&)::$_0, std::__ndk1::allocator<IntegratedDemonlist::loadPemonlist(geode::EventListener<geode::Task<geode::utils::web::WebResponse, geode::utils::web::WebProgress> >&&, geode::EventListener<geode::Task<geode::utils::web::WebResponse, geode::utils::web::WebProgress> >&&, std::__ndk1::function<void ()> const&, std::__ndk1::function<void (int)> const&)::$_0>, void (geode::Task<geode::utils::web::WebResponse, geode::utils::web::WebProgress>*::Event)>::~__func()
PUBLIC 42478 0 std::__ndk1::__function::__func<IntegratedDemonlist::loadPemonlist(geode::EventListener<geode::Task<geode::utils::web::WebResponse, geode::utils::web::WebProgress> >&&, geode::EventListener<geode::Task<geode::utils::web::WebResponse, geode::utils::web::WebProgress> >&&, std::__ndk1::function<void ()> const&, std::__ndk1::function<void (int)> const&)::$_0, std::__ndk1::allocator<IntegratedDemonlist::loadPemonlist(geode::EventListener<geode::Task<geode::utils::web::WebResponse, geode::utils::web::WebProgress> >&&, geode::EventListener<geode::Task<geode::utils::web::WebResponse, geode::utils::web::WebProgress> >&&, std::__ndk1::function<void ()> const&, std::__ndk1::function<void (int)> const&)::$_0>, void (geode::Task<geode::utils::web::WebResponse, geode::utils::web::WebProgress>*::Event)>::~__func()
PUBLIC 42504 0 std::__ndk1::__function::__func<IntegratedDemonlist::loadPemonlist(geode::EventListener<geode::Task<geode::utils::web::WebResponse, geode::utils::web::WebProgress> >&&, geode::EventListener<geode::Task<geode::utils::web::WebResponse, geode::utils::web::WebProgress> >&&, std::__ndk1::function<void ()> const&, std::__ndk1::function<void (int)> const&)::$_0, std::__ndk1::allocator<IntegratedDemonlist::loadPemonlist(geode::EventListener<geode::Task<geode::utils::web::WebResponse, geode::utils::web::WebProgress> >&&, geode::EventListener<geode::Task<geode::utils::web::WebResponse, geode::utils::web::WebProgress> >&&, std::__ndk1::function<void ()> const&, std::__ndk1::function<void (int)> const&)::$_0>, void (geode::Task<geode::utils::web::WebResponse, geode::utils::web::WebProgress>*::Event)>::__clone() const
PUBLIC 42628 0 std::__ndk1::__function::__func<IntegratedDemonlist::loadPemonlist(geode::EventListener<geode::Task<geode::utils::web::WebResponse, geode::utils::web::WebProgress> >&&, geode::EventListener<geode::Task<geode::utils::web::WebResponse, geode::utils::web::WebProgress> >&&, std::__ndk1::function<void ()> const&, std::__ndk1::function<void (int)> const&)::$_0, std::__ndk1::allocator<IntegratedDemonlist::loadPemonlist(geode::EventListener<geode::Task<geode::utils::web::WebResponse, geode::utils::web::WebProgress> >&&, geode::EventListener<geode::Task<geode::utils::web::WebResponse, geode::utils::web::WebProgress> >&&, std::__ndk1::function<void ()> const&, std::__ndk1::function<void (int)> const&)::$_0>, void (geode::Task<geode::utils::web::WebResponse, geode::utils::web::WebProgress>*::Event)>::__clone(std::__ndk1::__function::__base<void (geode::Task<geode::utils::web::WebResponse, geode::utils::web::WebProgress>*::Event)>*) const
PUBLIC 42740 0 std::__ndk1::__function::__func<IntegratedDemonlist::loadPemonlist(geode::EventListener<geode::Task<geode::utils::web::WebResponse, geode::utils::web::WebProgress> >&&, geode::EventListener<geode::Task<geode::utils::web::WebResponse, geode::utils::web::WebProgress> >&&, std::__ndk1::function<void ()> const&, std::__ndk1::function<void (int)> const&)::$_0, std::__ndk1::allocator<IntegratedDemonlist::loadPemonlist(geode::EventListener<geode::Task<geode::utils::web::WebResponse, geode::utils::web::WebProgress> >&&, geode::EventListener<geode::Task<geode::utils::web::WebResponse, geode::utils::web::WebProgress> >&&, std::__ndk1::function<void ()> const&, std::__ndk1::function<void (int)> const&)::$_0>, void (geode::Task<geode::utils::web::WebResponse, geode::utils::web::WebProgress>*::Event)>::destroy()
PUBLIC 427d4 0 std::__ndk1::__function::__func<IntegratedDemonlist::loadPemonlist(geode::EventListener<geode::Task<geode::utils::web::WebResponse, geode::utils::web::WebProgress> >&&, geode::EventListener<geode::Task<geode::utils::web::WebResponse, geode::utils::web::WebProgress> >&&, std::__ndk1::function<void ()> const&, std::__ndk1::function<void (int)> const&)::$_0, std::__ndk1::allocator<IntegratedDemonlist::loadPemonlist(geode::EventListener<geode::Task<geode::utils::web::WebResponse, geode::utils::web::WebProgress> >&&, geode::EventListener<geode::Task<geode::utils::web::WebResponse, geode::utils::web::WebProgress> >&&, std::__ndk1::function<void ()> const&, std::__ndk1::function<void (int)> const&)::$_0>, void (geode::Task<geode::utils::web::WebResponse, geode::utils::web::WebProgress>*::Event)>::destroy_deallocate()
PUBLIC 42854 0 std::__ndk1::__function::__func<IntegratedDemonlist::loadPemonlist(geode::EventListener<geode::Task<geode::utils::web::WebResponse, geode::utils::web::WebProgress> >&&, geode::EventListener<geode::Task<geode::utils::web::WebResponse, geode::utils::web::WebProgress> >&&, std::__ndk1::function<void ()> const&, std::__ndk1::function<void (int)> const&)::$_0, std::__ndk1::allocator<IntegratedDemonlist::loadPemonlist(geode::EventListener<geode::Task<geode::utils::web::WebResponse, geode::utils::web::WebProgress> >&&, geode::EventListener<geode::Task<geode::utils::web::WebResponse, geode::utils::web::WebProgress> >&&, std::__ndk1::function<void ()> const&, std::__ndk1::function<void (int)> const&)::$_0>, void (geode::Task<geode::utils::web::WebResponse, geode::utils::web::WebProgress>*::Event)>::operator()(geode::Task<geode::utils::web::WebResponse, geode::utils::web::WebProgress>*::Event&&)
PUBLIC 43064 0 std::__ndk1::__function::__func<IntegratedDemonlist::loadPemonlist(geode::EventListener<geode::Task<geode::utils::web::WebResponse, geode::utils::web::WebProgress> >&&, geode::EventListener<geode::Task<geode::utils::web::WebResponse, geode::utils::web::WebProgress> >&&, std::__ndk1::function<void ()> const&, std::__ndk1::function<void (int)> const&)::$_0, std::__ndk1::allocator<IntegratedDemonlist::loadPemonlist(geode::EventListener<geode::Task<geode::utils::web::WebResponse, geode::utils::web::WebProgress> >&&, geode::EventListener<geode::Task<geode::utils::web::WebResponse, geode::utils::web::WebProgress> >&&, std::__ndk1::function<void ()> const&, std::__ndk1::function<void (int)> const&)::$_0>, void (geode::Task<geode::utils::web::WebResponse, geode::utils::web::WebProgress>*::Event)>::target(std::type_info const&) const
PUBLIC 43080 0 std::__ndk1::__function::__func<IntegratedDemonlist::loadPemonlist(geode::EventListener<geode::Task<geode::utils::web::WebResponse, geode::utils::web::WebProgress> >&&, geode::EventListener<geode::Task<geode::utils::web::WebResponse, geode::utils::web::WebProgress> >&&, std::__ndk1::function<void ()> const&, std::__ndk1::function<void (int)> const&)::$_0, std::__ndk1::allocator<IntegratedDemonlist::loadPemonlist(geode::EventListener<geode::Task<geode::utils::web::WebResponse, geode::utils::web::WebProgress> >&&, geode::EventListener<geode::Task<geode::utils::web::WebResponse, geode::utils::web::WebProgress> >&&, std::__ndk1::function<void ()> const&, std::__ndk1::function<void (int)> const&)::$_0>, void (geode::Task<geode::utils::web::WebResponse, geode::utils::web::WebProgress>*::Event)>::target_type() const
PUBLIC 4308c 0 std::__ndk1::__function::__func<IntegratedDemonlist::loadPemonlist(geode::EventListener<geode::Task<geode::utils::web::WebResponse, geode::utils::web::WebProgress> >&&, geode::EventListener<geode::Task<geode::utils::web::WebResponse, geode::utils::web::WebProgress> >&&, std::__ndk1::function<void ()> const&, std::__ndk1::function<void (int)> const&)::$_1, std::__ndk1::allocator<IntegratedDemonlist::loadPemonlist(geode::EventListener<geode::Task<geode::utils::web::WebResponse, geode::utils::web::WebProgress> >&&, geode::EventListener<geode::Task<geode::utils::web::WebResponse, geode::utils::web::WebProgress> >&&, std::__ndk1::function<void ()> const&, std::__ndk1::function<void (int)> const&)::$_1>, void (bool, int)>::~__func()
PUBLIC 430d8 0 std::__ndk1::__function::__func<IntegratedDemonlist::loadPemonlist(geode::EventListener<geode::Task<geode::utils::web::WebResponse, geode::utils::web::WebProgress> >&&, geode::EventListener<geode::Task<geode::utils::web::WebResponse, geode::utils::web::WebProgress> >&&, std::__ndk1::function<void ()> const&, std::__ndk1::function<void (int)> const&)::$_1, std::__ndk1::allocator<IntegratedDemonlist::loadPemonlist(geode::EventListener<geode::Task<geode::utils::web::WebResponse, geode::utils::web::WebProgress> >&&, geode::EventListener<geode::Task<geode::utils::web::WebResponse, geode::utils::web::WebProgress> >&&, std::__ndk1::function<void ()> const&, std::__ndk1::function<void (int)> const&)::$_1>, void (bool, int)>::~__func()
PUBLIC 43134 0 std::__ndk1::__function::__func<IntegratedDemonlist::loadPemonlist(geode::EventListener<geode::Task<geode::utils::web::WebResponse, geode::utils::web::WebProgress> >&&, geode::EventListener<geode::Task<geode::utils::web::WebResponse, geode::utils::web::WebProgress> >&&, std::__ndk1::function<void ()> const&, std::__ndk1::function<void (int)> const&)::$_1, std::__ndk1::allocator<IntegratedDemonlist::loadPemonlist(geode::EventListener<geode::Task<geode::utils::web::WebResponse, geode::utils::web::WebProgress> >&&, geode::EventListener<geode::Task<geode::utils::web::WebResponse, geode::utils::web::WebProgress> >&&, std::__ndk1::function<void ()> const&, std::__ndk1::function<void (int)> const&)::$_1>, void (bool, int)>::__clone() const
PUBLIC 431d0 0 std::__ndk1::__function::__func<IntegratedDemonlist::loadPemonlist(geode::EventListener<geode::Task<geode::utils::web::WebResponse, geode::utils::web::WebProgress> >&&, geode::EventListener<geode::Task<geode::utils::web::WebResponse, geode::utils::web::WebProgress> >&&, std::__ndk1::function<void ()> const&, std::__ndk1::function<void (int)> const&)::$_1, std::__ndk1::allocator<IntegratedDemonlist::loadPemonlist(geode::EventListener<geode::Task<geode::utils::web::WebResponse, geode::utils::web::WebProgress> >&&, geode::EventListener<geode::Task<geode::utils::web::WebResponse, geode::utils::web::WebProgress> >&&, std::__ndk1::function<void ()> const&, std::__ndk1::function<void (int)> const&)::$_1>, void (bool, int)>::__clone(std::__ndk1::__function::__base<void (bool, int)>*) const
PUBLIC 43258 0 std::__ndk1::__function::__func<IntegratedDemonlist::loadPemonlist(geode::EventListener<geode::Task<geode::utils::web::WebResponse, geode::utils::web::WebProgress> >&&, geode::EventListener<geode::Task<geode::utils::web::WebResponse, geode::utils::web::WebProgress> >&&, std::__ndk1::function<void ()> const&, std::__ndk1::function<void (int)> const&)::$_1, std::__ndk1::allocator<IntegratedDemonlist::loadPemonlist(geode::EventListener<geode::Task<geode::utils::web::WebResponse, geode::utils::web::WebProgress> >&&, geode::EventListener<geode::Task<geode::utils::web::WebResponse, geode::utils::web::WebProgress> >&&, std::__ndk1::function<void ()> const&, std::__ndk1::function<void (int)> const&)::$_1>, void (bool, int)>::destroy()
PUBLIC 43298 0 std::__ndk1::__function::__func<IntegratedDemonlist::loadPemonlist(geode::EventListener<geode::Task<geode::utils::web::WebResponse, geode::utils::web::WebProgress> >&&, geode::EventListener<geode::Task<geode::utils::web::WebResponse, geode::utils::web::WebProgress> >&&, std::__ndk1::function<void ()> const&, std::__ndk1::function<void (int)> const&)::$_1, std::__ndk1::allocator<IntegratedDemonlist::loadPemonlist(geode::EventListener<geode::Task<geode::utils::web::WebResponse, geode::utils::web::WebProgress> >&&, geode::EventListener<geode::Task<geode::utils::web::WebResponse, geode::utils::web::WebProgress> >&&, std::__ndk1::function<void ()> const&, std::__ndk1::function<void (int)> const&)::$_1>, void (bool, int)>::destroy_deallocate()
PUBLIC 432e8 0 std::__ndk1::__function::__func<IntegratedDemonlist::loadPemonlist(geode::EventListener<geode::Task<geode::utils::web::WebResponse, geode::utils::web::WebProgress> >&&, geode::EventListener<geode::Task<geode::utils::web::WebResponse, geode::utils::web::WebProgress> >&&, std::__ndk1::function<void ()> const&, std::__ndk1::function<void (int)> const&)::$_1, std::__ndk1::allocator<IntegratedDemonlist::loadPemonlist(geode::EventListener<geode::Task<geode::utils::web::WebResponse, geode::utils::web::WebProgress> >&&, geode::EventListener<geode::Task<geode::utils::web::WebResponse, geode::utils::web::WebProgress> >&&, std::__ndk1::function<void ()> const&, std::__ndk1::function<void (int)> const&)::$_1>, void (bool, int)>::operator()(bool&&, int&&)
PUBLIC 4346c 0 std::__ndk1::__function::__func<IntegratedDemonlist::loadPemonlist(geode::EventListener<geode::Task<geode::utils::web::WebResponse, geode::utils::web::WebProgress> >&&, geode::EventListener<geode::Task<geode::utils::web::WebResponse, geode::utils::web::WebProgress> >&&, std::__ndk1::function<void ()> const&, std::__ndk1::function<void (int)> const&)::$_1, std::__ndk1::allocator<IntegratedDemonlist::loadPemonlist(geode::EventListener<geode::Task<geode::utils::web::WebResponse, geode::utils::web::WebProgress> >&&, geode::EventListener<geode::Task<geode::utils::web::WebResponse, geode::utils::web::WebProgress> >&&, std::__ndk1::function<void ()> const&, std::__ndk1::function<void (int)> const&)::$_1>, void (bool, int)>::target(std::type_info const&) const
PUBLIC 43488 0 std::__ndk1::__function::__func<IntegratedDemonlist::loadPemonlist(geode::EventListener<geode::Task<geode::utils::web::WebResponse, geode::utils::web::WebProgress> >&&, geode::EventListener<geode::Task<geode::utils::web::WebResponse, geode::utils::web::WebProgress> >&&, std::__ndk1::function<void ()> const&, std::__ndk1::function<void (int)> const&)::$_1, std::__ndk1::allocator<IntegratedDemonlist::loadPemonlist(geode::EventListener<geode::Task<geode::utils::web::WebResponse, geode::utils::web::WebProgress> >&&, geode::EventListener<geode::Task<geode::utils::web::WebResponse, geode::utils::web::WebProgress> >&&, std::__ndk1::function<void ()> const&, std::__ndk1::function<void (int)> const&)::$_1>, void (bool, int)>::target_type() const
PUBLIC m 43494 0 geodeImplicitEntry
PUBLIC 434d0 0 std::__ndk1::unordered_map<void*, bool, std::__ndk1::hash<void*>, std::__ndk1::equal_to<void*>, std::__ndk1::allocator<std::__ndk1::pair<void* const, bool> > >::~unordered_map[abi:ne180000]()
PUBLIC 4351c 0 wrapFunction(unsigned long, tulip::hook::WrapperMetadata const&)
PUBLIC 43650 0 geode::impl::ResultData<void*, std::__ndk1::basic_string<char, std::__ndk1::char_traits<char>, std::__ndk1::allocator<char> > >::unwrapErr() &
PUBLIC 436c8 0 geode::impl::ResultData<void*, std::__ndk1::basic_string<char, std::__ndk1::char_traits<char>, std::__ndk1::allocator<char> > >::~ResultData()
PUBLIC 4373c 0 tulip::hook::WrapperMetadata::~WrapperMetadata()
PUBLIC 437a0 0 cocos2d::CCObject::CCObject()
PUBLIC 439c4 0 cocos2d::CCObject::~CCObject()
PUBLIC 439e8 0 cocos2d::CCNode::~CCNode()
PUBLIC 43a0c 0 cocos2d::CCLayer::CCLayer()
PUBLIC 43c90 0 {virtual override thunk({offset(-320)}, cocos2d::CCLayer::~CCLayer())}
PUBLIC 43c98 0 cocos2d::CCLayer::~CCLayer()
PUBLIC 43cbc 0 {virtual override thunk({offset(-320)}, cocos2d::CCLayer::~CCLayer())}
PUBLIC 43ce4 0 FLAlertLayer::create(FLAlertLayerProtocol*, char const*, gd::string, char const*, char const*, float)
PUBLIC 43e9c 0 tulip::hook::AbstractFunction::from<FLAlertLayer*, FLAlertLayerProtocol*, char const*, gd::string, char const*, char const*, float>(FLAlertLayer* (*)(FLAlertLayerProtocol*, char const*, gd::string, char const*, char const*, float))
PUBLIC 44008 0 SetIDPopup::create(int, int, int, gd::string, gd::string, bool, int, float, bool, bool)
PUBLIC 44208 0 tulip::hook::AbstractFunction::from<SetIDPopup*, int, int, int, gd::string, gd::string, bool, int, float, bool, bool>(SetIDPopup* (*)(int, int, int, gd::string, gd::string, bool, int, float, bool, bool))
PUBLIC 44640 0 GJSearchObject::create(SearchType, gd::string)
PUBLIC 447c0 0 tulip::hook::AbstractFunction::from<GJSearchObject*, SearchType, gd::string>(GJSearchObject* (*)(SearchType, gd::string))
PUBLIC 44864 0 InfoAlertButton::create(gd::string, gd::string, float)
PUBLIC 44a10 0 tulip::hook::AbstractFunction::from<InfoAlertButton*, gd::string, gd::string, float>(InfoAlertButton* (*)(gd::string, gd::string, float))
PUBLIC 44b14 0 cocos2d::CCNode::~CCNode()
PUBLIC 44db4 0 cocos2d::CCLayer::~CCLayer()
PUBLIC 450a4 0 cocos2d::CCObject::~CCObject()
PUBLIC 45598 0 _ZN5geode15UnwrapExceptionC2IRPvQsr4implE18IsStringStreamableIT_EEENS_4impl5OkTagEOS4_
PUBLIC 456ec 0 std::__ndk1::__variant_detail::__visitation::__base::__dispatcher<(unsigned long)0>::__dispatch[abi:ne180000]<std::__ndk1::__variant_detail::__dtor<std::__ndk1::__variant_detail::__traits<void*, std::__ndk1::basic_string<char, std::__ndk1::char_traits<char>, std::__ndk1::allocator<char> > >, (std::__ndk1::__variant_detail::_Trait)1>::__destroy[abi:ne180000]()::{lambda(auto:1&)#1}, std::__ndk1::__variant_detail::__base<(std::__ndk1::__variant_detail::__traits<void*, std::__ndk1::basic_string<char, std::__ndk1::char_traits<char>, std::__ndk1::allocator<char> > >)1, std::__ndk1::__variant_detail::__traits, std::__ndk1::allocator<char> >&>(std::__ndk1::__variant_detail::__dtor<std::__ndk1::__variant_detail::__traits<void*, std::__ndk1::basic_string<char, std::__ndk1::char_traits<char>, std::__ndk1::allocator<char> > >, (std::__ndk1::__variant_detail::_Trait)1>, std::__ndk1::__variant_detail::__base<(std::__ndk1::__variant_detail::__traits<void*, std::__ndk1::basic_string<char, std::__ndk1::char_traits<char>, std::__ndk1::allocator<char> > >)1, std::__ndk1::__variant_detail::__traits, std::__ndk1::allocator<char> >&)
PUBLIC 456f0 0 std::__ndk1::__variant_detail::__visitation::__base::__dispatcher<(unsigned long)1>::__dispatch[abi:ne180000]<std::__ndk1::__variant_detail::__dtor<std::__ndk1::__variant_detail::__traits<void*, std::__ndk1::basic_string<char, std::__ndk1::char_traits<char>, std::__ndk1::allocator<char> > >, (std::__ndk1::__variant_detail::_Trait)1>::__destroy[abi:ne180000]()::{lambda(auto:1&)#1}, std::__ndk1::__variant_detail::__base<(std::__ndk1::__variant_detail::__traits<void*, std::__ndk1::basic_string<char, std::__ndk1::char_traits<char>, std::__ndk1::allocator<char> > >)1, std::__ndk1::__variant_detail::__traits, std::__ndk1::allocator<char> >&>(std::__ndk1::__variant_detail::__dtor<std::__ndk1::__variant_detail::__traits<void*, std::__ndk1::basic_string<char, std::__ndk1::char_traits<char>, std::__ndk1::allocator<char> > >, (std::__ndk1::__variant_detail::_Trait)1>, std::__ndk1::__variant_detail::__base<(std::__ndk1::__variant_detail::__traits<void*, std::__ndk1::basic_string<char, std::__ndk1::char_traits<char>, std::__ndk1::allocator<char> > >)1, std::__ndk1::__variant_detail::__traits, std::__ndk1::allocator<char> >&)
PUBLIC 45704 0 std::__ndk1::__hash_table<std::__ndk1::__hash_value_type<void*, bool>, std::__ndk1::__unordered_map_hasher<void*, std::__ndk1::__hash_value_type<void*, bool>, std::__ndk1::hash<void*>, std::__ndk1::equal_to<void*>, true>, std::__ndk1::__unordered_map_equal<void*, std::__ndk1::__hash_value_type<void*, bool>, std::__ndk1::equal_to<void*>, std::__ndk1::hash<void*>, true>, std::__ndk1::allocator<std::__ndk1::__hash_value_type<void*, bool> > >::__emplace_unique_key_args<void*, std::__ndk1::piecewise_construct_t const&, std::__ndk1::tuple<void* const&>, std::__ndk1::tuple<> >(void* const&, std::__ndk1::piecewise_construct_t const&, std::__ndk1::tuple<void* const&>, std::__ndk1::tuple<>)
PUBLIC 45c10 0 std::__ndk1::vector<tulip::hook::AbstractType, std::__ndk1::allocator<tulip::hook::AbstractType> >::__throw_length_error[abi:ne180000]() const
PUBLIC 45c24 0 __udivti3
PUBLIC 45c30 0 __udivmodti4
PUBLIC m 45e7c 0 __eqtf2
PUBLIC 45f1c 0 __unordtf2
PUBLIC 45f54 0 fmt::v11::detail::write_loc(fmt::v11::basic_appender<char>, fmt::v11::loc_value, fmt::v11::format_specs const&, fmt::v11::detail::locale_ref)
PUBLIC 461e8 0 fmt::v11::format_facet<std::__ndk1::locale>::~format_facet()
PUBLIC 46264 0 fmt::v11::report_error(char const*)
PUBLIC 462b4 0 fmt::v11::format_error::runtime_error(char const*)
PUBLIC 462e0 0 fmt::v11::format_facet<std::__ndk1::locale>::do_put(fmt::v11::basic_appender<char>, fmt::v11::loc_value, fmt::v11::format_specs const&) const
PUBLIC 46aa0 0 fmt::v11::detail::loc_writer<char>::~loc_writer()
PUBLIC 46b04 0 fmt::v11::vformat(fmt::v11::basic_string_view<char>, fmt::v11::basic_format_args<fmt::v11::context>)
PUBLIC 46c40 0 fmt::v11::detail::vformat_to<char>(fmt::v11::detail::buffer<char>&, fmt::v11::basic_string_view<char>, fmt::v11::detail::vformat_args<char>::type, fmt::v11::detail::locale_ref)
PUBLIC 471b0 0 fmt::v11::detail::is_printable(unsigned int)
PUBLIC 473d8 0 fmt::v11::detail::dragonbox::to_decimal<float>(float)
PUBLIC 476b4 0 fmt::v11::detail::dragonbox::to_decimal<double>(double)
PUBLIC 47bf0 0 fmt::v11::basic_memory_buffer<char, (unsigned long)500, std::__ndk1::allocator<char> >::grow(fmt::v11::detail::buffer<char>&, unsigned long)
PUBLIC 47c68 0 fmt::v11::format_facet<std::__ndk1::locale>::~format_facet()
PUBLIC 47cf4 0 fmt::v11::format_error::~format_error()
PUBLIC 47d18 0 fmt::v11::detail::copy_noinline<char, char const*, fmt::v11::basic_appender<char> >(char const*, char const*, fmt::v11::basic_appender<char>)
PUBLIC 47e68 0 fmt::v11::detail::default_arg_formatter<char>::operator()<bool>(bool)
PUBLIC 47ed0 0 fmt::v11::detail::default_arg_formatter<char>::operator()<char>(char)
PUBLIC 47f60 0 fmt::v11::detail::default_arg_formatter<char>::operator()<float>(float)
PUBLIC 4804c 0 fmt::v11::detail::default_arg_formatter<char>::operator()<double>(double)
PUBLIC 48138 0 fmt::v11::detail::default_arg_formatter<char>::operator()<char const*>(char const*)
PUBLIC 48180 0 fmt::v11::detail::default_arg_formatter<char>::operator()<void const*>(void const*)
PUBLIC 48218 0 _ZN3fmt3v116detail5writeIcNS0_14basic_appenderIcEEiTnNSt6__ndk19enable_ifIXaaaasr11is_integralIT1_EE5valuentsr3std7is_sameIS7_bEE5valuentsr3std7is_sameIS7_T_EE5valueEiE4typeELi0EEET0_SB_S7_
PUBLIC 48478 0 fmt::v11::detail::copy_noinline<char, char*, fmt::v11::basic_appender<char> >(char*, char*, fmt::v11::basic_appender<char>)
PUBLIC 485c8 0 _ZN3fmt3v116detail5writeIcNS0_14basic_appenderIcEEjTnNSt6__ndk19enable_ifIXaaaasr11is_integralIT1_EE5valuentsr3std7is_sameIS7_bEE5valuentsr3std7is_sameIS7_T_EE5valueEiE4typeELi0EEET0_SB_S7_
PUBLIC 487a8 0 _ZN3fmt3v116detail5writeIcNS0_14basic_appenderIcEExTnNSt6__ndk19enable_ifIXaaaasr11is_integralIT1_EE5valuentsr3std7is_sameIS7_bEE5valuentsr3std7is_sameIS7_T_EE5valueEiE4typeELi0EEET0_SB_S7_
PUBLIC 48a2c 0 _ZN3fmt3v116detail5writeIcNS0_14basic_appenderIcEEyTnNSt6__ndk19enable_ifIXaaaasr11is_integralIT1_EE5valuentsr3std7is_sameIS7_bEE5valuentsr3std7is_sameIS7_T_EE5valueEiE4typeELi0EEET0_SB_S7_
PUBLIC 48c34 0 _ZN3fmt3v116detail5writeIcNS0_14basic_appenderIcEEnTnNSt6__ndk19enable_ifIXaaaasr11is_integralIT1_EE5valuentsr3std7is_sameIS7_bEE5valuentsr3std7is_sameIS7_T_EE5valueEiE4typeELi0EEET0_SB_S7_
PUBLIC 48f94 0 _ZN3fmt3v116detail5writeIcNS0_14basic_appenderIcEEoTnNSt6__ndk19enable_ifIXaaaasr11is_integralIT1_EE5valuentsr3std7is_sameIS7_bEE5valuentsr3std7is_sameIS7_T_EE5valueEiE4typeELi0EEET0_SB_S7_
PUBLIC 492a8 0 _ZN3fmt3v116detail5writeIcNS0_14basic_appenderIcEEbTnNSt6__ndk19enable_ifIXsr3std7is_sameIT1_bEE5valueEiE4typeELi0EEET0_SA_S7_RKNS0_12format_specsENS1_10locale_refE
PUBLIC 49538 0 fmt::v11::detail::write_int_noinline<char, fmt::v11::basic_appender<char>, unsigned int>(fmt::v11::basic_appender<char>, fmt::v11::detail::write_int_arg<unsigned int>, fmt::v11::format_specs const&, fmt::v11::detail::locale_ref)
PUBLIC 4a314 0 fmt::v11::detail::fill<char, fmt::v11::basic_appender<char> >(fmt::v11::basic_appender<char>, unsigned long, fmt::v11::detail::fill_t const&)
PUBLIC 4a4e4 0 fmt::v11::detail::write_padded<char, (fmt::v11::align::type)1, fmt::v11::basic_appender<char>, fmt::v11::detail::write_char<char, fmt::v11::basic_appender<char> >(fmt::v11::basic_appender<char>, char, fmt::v11::format_specs const&)::{lambda(fmt::v11::basic_appender<char>&)#1}>(fmt::v11::basic_appender<char>, fmt::v11::format_specs const&, unsigned long, unsigned long, fmt::v11::detail::write_char<char, fmt::v11::basic_appender<char> >(fmt::v11::basic_appender<char>, char, fmt::v11::format_specs const&)::{lambda(fmt::v11::basic_appender<char>&)#1})
PUBLIC 4a720 0 fmt::v11::detail::write_escaped_cp<fmt::v11::basic_appender<char>, char>(fmt::v11::basic_appender<char>, fmt::v11::detail::find_escape_result<char> const&)
PUBLIC 4aa2c 0 fmt::v11::detail::write_codepoint<(unsigned long)2, char, fmt::v11::basic_appender<char> >(fmt::v11::basic_appender<char>, char, unsigned int)
PUBLIC 4aba4 0 fmt::v11::detail::write_codepoint<(unsigned long)8, char, fmt::v11::basic_appender<char> >(fmt::v11::basic_appender<char>, char, unsigned int)
PUBLIC 4ad1c 0 fmt::v11::detail::write_padded<char, (fmt::v11::align::type)1, fmt::v11::basic_appender<char>, fmt::v11::detail::write_nonfinite<char, fmt::v11::basic_appender<char> >(fmt::v11::basic_appender<char>, bool, fmt::v11::format_specs, fmt::v11::sign::type)::{lambda(fmt::v11::basic_appender<char>&)#1}>(fmt::v11::basic_appender<char>, fmt::v11::format_specs const&, unsigned long, unsigned long, fmt::v11::detail::write_nonfinite<char, fmt::v11::basic_appender<char> >(fmt::v11::basic_appender<char>, bool, fmt::v11::format_specs, fmt::v11::sign::type)::{lambda(fmt::v11::basic_appender<char>&)#1})
PUBLIC 4af5c 0 fmt::v11::detail::do_write_float<char, fmt::v11::basic_appender<char>, fmt::v11::detail::dragonbox::decimal_fp<float>, fmt::v11::detail::digit_grouping<char> >(fmt::v11::basic_appender<char>, fmt::v11::detail::dragonbox::decimal_fp<float> const&, fmt::v11::format_specs const&, fmt::v11::detail::float_specs, fmt::v11::detail::locale_ref)
PUBLIC 4bbd0 0 fmt::v11::detail::do_write_float<char, fmt::v11::basic_appender<char>, fmt::v11::detail::dragonbox::decimal_fp<float>, fmt::v11::detail::digit_grouping<char> >(fmt::v11::basic_appender<char>, fmt::v11::detail::dragonbox::decimal_fp<float> const&, fmt::v11::format_specs const&, fmt::v11::detail::float_specs, fmt::v11::detail::locale_ref)::{lambda(fmt::v11::basic_appender<char>(fmt::v11::basic_appender<char>))#1}::operator() const
PUBLIC 4bd24 0 fmt::v11::detail::digit_grouping<char>::digit_grouping(fmt::v11::detail::locale_ref, bool)
PUBLIC 4bf90 0 fmt::v11::detail::digit_grouping<char>::~digit_grouping()
PUBLIC 4bfd4 0 fmt::v11::detail::write_exponent<char, fmt::v11::basic_appender<char> >(int, fmt::v11::basic_appender<char>)
PUBLIC 4c1a4 0 _ZN3fmt3v116detail17write_significandIcjTnNSt6__ndk19enable_ifIXsr3std11is_integralIT0_EE5valueEiE4typeELi0EEEPT_S9_S5_iiS8_
PUBLIC 4c320 0 fmt::v11::detail::digit_grouping<char>::apply<fmt::v11::basic_appender<char>, char>(fmt::v11::basic_appender<char>, fmt::v11::basic_string_view<char>) const
PUBLIC 4c6d8 0 fmt::v11::basic_memory_buffer<int, (unsigned long)500, std::__ndk1::allocator<int> >::grow(fmt::v11::detail::buffer<int>&, unsigned long)
PUBLIC 4c778 0 fmt::v11::detail::do_write_float<char, fmt::v11::basic_appender<char>, fmt::v11::detail::dragonbox::decimal_fp<double>, fmt::v11::detail::digit_grouping<char> >(fmt::v11::basic_appender<char>, fmt::v11::detail::dragonbox::decimal_fp<double> const&, fmt::v11::format_specs const&, fmt::v11::detail::float_specs, fmt::v11::detail::locale_ref)
PUBLIC 4d42c 0 fmt::v11::detail::do_write_float<char, fmt::v11::basic_appender<char>, fmt::v11::detail::dragonbox::decimal_fp<double>, fmt::v11::detail::digit_grouping<char> >(fmt::v11::basic_appender<char>, fmt::v11::detail::dragonbox::decimal_fp<double> const&, fmt::v11::format_specs const&, fmt::v11::detail::float_specs, fmt::v11::detail::locale_ref)::{lambda(fmt::v11::basic_appender<char>(fmt::v11::basic_appender<char>))#1}::operator() const
PUBLIC 4d584 0 _ZN3fmt3v116detail17write_significandIcmTnNSt6__ndk19enable_ifIXsr3std11is_integralIT0_EE5valueEiE4typeELi0EEEPT_S9_S5_iiS8_
PUBLIC 4d714 0 fmt::v11::detail::write_float<char, fmt::v11::basic_appender<char>, long double>(fmt::v11::basic_appender<char>, long double, fmt::v11::format_specs, fmt::v11::detail::locale_ref)
PUBLIC 4e210 0 fmt::v11::detail::write_padded<char, (fmt::v11::align::type)2, fmt::v11::basic_appender<char>, fmt::v11::detail::write_bytes<char, (fmt::v11::align::type)2, fmt::v11::basic_appender<char> >(fmt::v11::basic_appender<char>, fmt::v11::basic_string_view<char>, fmt::v11::format_specs const&)::{lambda(fmt::v11::basic_appender<char>&)#1}>(fmt::v11::basic_appender<char>, fmt::v11::format_specs const&, unsigned long, unsigned long, fmt::v11::detail::write_bytes<char, (fmt::v11::align::type)2, fmt::v11::basic_appender<char> >(fmt::v11::basic_appender<char>, fmt::v11::basic_string_view<char>, fmt::v11::format_specs const&)::{lambda(fmt::v11::basic_appender<char>&)#1})
PUBLIC 4e3ec 0 fmt::v11::detail::format_dragon(fmt::v11::detail::basic_fp<unsigned __int128>, unsigned int, int, fmt::v11::detail::buffer<char>&, int&)
PUBLIC 4f81c 0 fmt::v11::detail::bigint::operator<<=(int)
PUBLIC 4f940 0 fmt::v11::detail::bigint::assign_pow10(int)
PUBLIC 5009c 0 fmt::v11::detail::bigint::divmod_assign(fmt::v11::detail::bigint const&)
PUBLIC 503bc 0 fmt::v11::basic_memory_buffer<unsigned int, (unsigned long)32, std::__ndk1::allocator<unsigned int> >::grow(fmt::v11::detail::buffer<unsigned int>&, unsigned long)
PUBLIC 5045c 0 fmt::v11::detail::do_write_float<char, fmt::v11::basic_appender<char>, fmt::v11::detail::big_decimal_fp, fmt::v11::detail::digit_grouping<char> >(fmt::v11::basic_appender<char>, fmt::v11::detail::big_decimal_fp const&, fmt::v11::format_specs const&, fmt::v11::detail::float_specs, fmt::v11::detail::locale_ref)
PUBLIC 5130c 0 fmt::v11::detail::do_write_float<char, fmt::v11::basic_appender<char>, fmt::v11::detail::big_decimal_fp, fmt::v11::detail::digit_grouping<char> >(fmt::v11::basic_appender<char>, fmt::v11::detail::big_decimal_fp const&, fmt::v11::format_specs const&, fmt::v11::detail::float_specs, fmt::v11::detail::locale_ref)::{lambda(fmt::v11::basic_appender<char>(fmt::v11::basic_appender<char>))#1}::operator() const
PUBLIC 5146c 0 fmt::v11::detail::write_padded<char, (fmt::v11::align::type)2, fmt::v11::basic_appender<char>, fmt::v11::detail::write_ptr<char, fmt::v11::basic_appender<char>, unsigned long>(fmt::v11::basic_appender<char>, unsigned long, fmt::v11::format_specs const*)::{lambda(fmt::v11::basic_appender<char>&)#1}>(fmt::v11::basic_appender<char>, fmt::v11::format_specs const&, unsigned long, unsigned long, fmt::v11::detail::write_ptr<char, fmt::v11::basic_appender<char>, unsigned long>(fmt::v11::basic_appender<char>, unsigned long, fmt::v11::format_specs const*)::{lambda(fmt::v11::basic_appender<char>&)#1})
PUBLIC 51680 0 fmt::v11::detail::parse_replacement_field<char, fmt::v11::detail::vformat_to<char>(fmt::v11::detail::buffer<char>&, fmt::v11::basic_string_view<char>, fmt::v11::detail::vformat_args<char>::type, fmt::v11::detail::locale_ref)::format_handler&>(char const*, char const*, fmt::v11::detail::vformat_to<char>(fmt::v11::detail::buffer<char>&, fmt::v11::basic_string_view<char>, fmt::v11::detail::vformat_args<char>::type, fmt::v11::detail::locale_ref)::format_handler&)
PUBLIC 5331c 0 fmt::v11::detail::parse_dynamic_spec<char>(char const*, char const*, int&, fmt::v11::detail::arg_ref<char>&, fmt::v11::basic_format_parse_context<char>&)
PUBLIC 535ac 0 fmt::v11::basic_format_args<fmt::v11::context>::get<char>(fmt::v11::basic_string_view<char>) const
PUBLIC 53704 0 fmt::v11::detail::write_int_noinline<char, fmt::v11::basic_appender<char>, unsigned long>(fmt::v11::basic_appender<char>, fmt::v11::detail::write_int_arg<unsigned long>, fmt::v11::format_specs const&, fmt::v11::detail::locale_ref)
PUBLIC 54558 0 fmt::v11::detail::write_int_noinline<char, fmt::v11::basic_appender<char>, unsigned __int128>(fmt::v11::basic_appender<char>, fmt::v11::detail::write_int_arg<unsigned __int128>, fmt::v11::format_specs const&, fmt::v11::detail::locale_ref)
PUBLIC 555c0 0 _ZN3fmt3v116detail15format_hexfloatIdTnNSt6__ndk19enable_ifIXntsr16is_double_doubleIT_EE5valueEiE4typeELi0EEEvS5_NS0_12format_specsERNS1_6bufferIcEE
PUBLIC 55ae0 0 fmt::v11::detail::format_float<double>(double, int, fmt::v11::detail::float_specs, fmt::v11::detail::buffer<char>&)
PUBLIC 56480 0 fmt::v11::detail::write<char, fmt::v11::basic_appender<char> >(fmt::v11::basic_appender<char>, fmt::v11::basic_string_view<char>, fmt::v11::format_specs const&)
PUBLIC 577ec 0 fmt::v11::detail::for_each_codepoint<fmt::v11::detail::compute_width(fmt::v11::basic_string_view<char>)::count_code_points>(fmt::v11::basic_string_view<char>, fmt::v11::detail::compute_width(fmt::v11::basic_string_view<char>)::count_code_points)::{lambda(char const*, char const*)#1}::operator()(char const*, char const*) const
PUBLIC 579a4 0 fmt::v11::detail::write_int<fmt::v11::basic_appender<char>, unsigned long, char>(fmt::v11::basic_appender<char>, unsigned long, unsigned int, fmt::v11::format_specs const&, fmt::v11::detail::digit_grouping<char> const&)
PUBLIC 57f20 0 fmt::v11::detail::write_int<fmt::v11::basic_appender<char>, unsigned __int128, char>(fmt::v11::basic_appender<char>, unsigned __int128, unsigned int, fmt::v11::format_specs const&, fmt::v11::detail::digit_grouping<char> const&)
PUBLIC 585a0 0 <.plt ELF section in hiimjustin000.integrated_demonlist.android64.so>
STACK CFI INIT 23d50 10 .cfa: sp 0 +
STACK CFI INIT 23d60 8 .cfa: sp 0 +
STACK CFI INIT 23d68 8 .cfa: sp 0 +
STACK CFI INIT 23d70 14 .cfa: sp 0 +
STACK CFI INIT 23d84 1c .cfa: sp 0 +
STACK CFI INIT 23da0 10 .cfa: sp 0 +
STACK CFI INIT 23db0 134 .cfa: sp 0 +
STACK CFI INIT 23ee4 84 .cfa: sp 0 +
STACK CFI INIT 23f68 f4 .cfa: sp 0 +
STACK CFI INIT 2405c a8 .cfa: sp 0 +
STACK CFI INIT 24104 7c .cfa: sp 0 +
STACK CFI INIT 24180 14 .cfa: sp 0 +
STACK CFI INIT 24194 40 .cfa: sp 0 +
STACK CFI INIT 241d4 28 .cfa: sp 0 +
STACK CFI INIT 241fc 190 .cfa: sp 0 +
STACK CFI INIT 2438c 2c8 .cfa: sp 0 +
STACK CFI INIT 24654 8 .cfa: sp 0 +
STACK CFI INIT 2465c 8 .cfa: sp 0 +
STACK CFI INIT 24664 44 .cfa: sp 0 +
STACK CFI INIT 246a8 e8 .cfa: sp 0 +
STACK CFI INIT 24790 e8 .cfa: sp 0 +
STACK CFI INIT 24878 14 .cfa: sp 0 +
STACK CFI INIT 2488c 10 .cfa: sp 0 +
STACK CFI INIT 2489c 10 .cfa: sp 0 +
STACK CFI INIT 248ac f0 .cfa: sp 0 +
STACK CFI INIT 2499c 44 .cfa: sp 0 +
STACK CFI INIT 249e0 c .cfa: sp 0 +
STACK CFI INIT 249ec c .cfa: sp 0 +
STACK CFI INIT 249f8 2c .cfa: sp 0 +
STACK CFI INIT 24a24 280 .cfa: sp 0 +
STACK CFI INIT 24ca4 c .cfa: sp 0 +
STACK CFI INIT 24cb0 120 .cfa: sp 0 +
STACK CFI INIT 24dd0 488 .cfa: sp 0 +
STACK CFI INIT 25258 c48 .cfa: sp 0 +
STACK CFI INIT 25ea0 134 .cfa: sp 0 +
STACK CFI INIT 25fd4 210 .cfa: sp 0 +
STACK CFI INIT 261e4 38c .cfa: sp 0 +
STACK CFI INIT 26570 1c8 .cfa: sp 0 +
STACK CFI INIT 26738 9bc .cfa: sp 0 +
STACK CFI INIT 270f4 2d4 .cfa: sp 0 +
STACK CFI INIT 273c8 134 .cfa: sp 0 +
STACK CFI INIT 274fc 120 .cfa: sp 0 +
STACK CFI INIT 2761c 1c8 .cfa: sp 0 +
STACK CFI INIT 277e4 168 .cfa: sp 0 +
STACK CFI INIT 2794c fc .cfa: sp 0 +
STACK CFI INIT 27a48 30 .cfa: sp 0 +
STACK CFI INIT 27bb0 30 .cfa: sp 0 +
STACK CFI INIT 27be0 98 .cfa: sp 0 +
STACK CFI INIT 27c78 59c .cfa: sp 0 +
STACK CFI INIT 28214 8c .cfa: sp 0 +
STACK CFI INIT 282a0 30 .cfa: sp 0 +
STACK CFI INIT 282d0 5c .cfa: sp 0 +
STACK CFI 282d4 .cfa: sp 16 +
STACK CFI 282d8 .cfa: x29 16 + .ra: .cfa -8 + ^ x29: .cfa -16 + ^
STACK CFI 2831c .cfa: sp 16 +
STACK CFI 28320 .cfa: sp 0 +
STACK CFI 28324 .cfa: sp 16 +
STACK CFI 28328 .cfa: sp 0 +
STACK CFI INIT 2832c 88 .cfa: sp 0 +
STACK CFI 28330 .cfa: sp 48 +
STACK CFI 2833c .cfa: x29 48 + x19: .cfa -8 + ^ x20: .cfa -16 + ^ x21: .cfa -32 + ^ .ra: .cfa -40 + ^ x29: .cfa -48 + ^
STACK CFI 2835c .cfa: sp 48 +
STACK CFI 28368 .cfa: sp 0 +
STACK CFI 2836c .cfa: x29 48 +
STACK CFI 28394 .cfa: sp 48 +
STACK CFI 283a0 .cfa: sp 0 +
STACK CFI 283a4 .cfa: sp 48 +
STACK CFI 283b0 .cfa: sp 0 +
STACK CFI INIT 283b4 5c .cfa: sp 0 +
STACK CFI 283b8 .cfa: sp 16 +
STACK CFI 283bc .cfa: x29 16 + .ra: .cfa -8 + ^ x29: .cfa -16 + ^
STACK CFI 28400 .cfa: sp 16 +
STACK CFI 28404 .cfa: sp 0 +
STACK CFI 28408 .cfa: sp 16 +
STACK CFI 2840c .cfa: sp 0 +
STACK CFI INIT 28410 98 .cfa: sp 0 +
STACK CFI 28414 .cfa: sp 48 +
STACK CFI 28420 .cfa: x29 48 + x19: .cfa -8 + ^ x20: .cfa -16 + ^ x21: .cfa -32 + ^ .ra: .cfa -40 + ^ x29: .cfa -48 + ^
STACK CFI 28440 .cfa: sp 48 +
STACK CFI 2844c .cfa: sp 0 +
STACK CFI 28450 .cfa: x29 48 +
STACK CFI 28488 .cfa: sp 48 +
STACK CFI 28494 .cfa: sp 0 +
STACK CFI 28498 .cfa: sp 48 +
STACK CFI 284a4 .cfa: sp 0 +
STACK CFI INIT 284a8 5c .cfa: sp 0 +
STACK CFI 284ac .cfa: sp 16 +
STACK CFI 284b0 .cfa: x29 16 + .ra: .cfa -8 + ^ x29: .cfa -16 + ^
STACK CFI 284f4 .cfa: sp 16 +
STACK CFI 284f8 .cfa: sp 0 +
STACK CFI 284fc .cfa: sp 16 +
STACK CFI 28500 .cfa: sp 0 +
STACK CFI INIT 2b260 7c .cfa: sp 0 +
STACK CFI 2b264 .cfa: sp 48 +
STACK CFI 2b270 .cfa: x29 48 + x19: .cfa -8 + ^ x20: .cfa -16 + ^ x21: .cfa -32 + ^ .ra: .cfa -40 + ^ x29: .cfa -48 + ^
STACK CFI 2b2bc .cfa: sp 48 +
STACK CFI 2b2c8 .cfa: sp 0 +
STACK CFI 2b2cc .cfa: sp 48 +
STACK CFI 2b2d8 .cfa: sp 0 +
STACK CFI INIT 2b5bc 8 .cfa: sp 0 +
STACK CFI INIT 2ba04 8 .cfa: sp 0 +
STACK CFI INIT 2bcd8 150 .cfa: sp 0 +
STACK CFI 2bcdc .cfa: sp 32 +
STACK CFI 2bce4 .cfa: x29 32 + x19: .cfa -16 + ^ .ra: .cfa -24 + ^ x29: .cfa -32 + ^
STACK CFI 2bd70 .cfa: sp 32 +
STACK CFI 2bd78 .cfa: sp 0 +
STACK CFI 2bd7c .cfa: x29 32 +
STACK CFI 2bdc0 .cfa: sp 32 +
STACK CFI 2bdc8 .cfa: sp 0 +
STACK CFI 2bdcc .cfa: x29 32 +
STACK CFI 2bdd0 .cfa: sp 32 +
STACK CFI 2bdd8 .cfa: sp 0 +
STACK CFI 2bddc .cfa: x29 32 +
STACK CFI 2be1c .cfa: sp 32 +
STACK CFI 2be24 .cfa: sp 0 +
STACK CFI INIT 2be28 8 .cfa: sp 0 +
STACK CFI INIT 2be30 1c .cfa: sp 0 +
STACK CFI 2be34 .cfa: sp 16 +
STACK CFI 2be38 .cfa: x29 16 + .ra: .cfa -8 + ^ x29: .cfa -16 + ^
STACK CFI 2be44 .cfa: sp 16 +
STACK CFI 2be48 .cfa: sp 0 +
STACK CFI INIT 2be4c 1c .cfa: sp 0 +
STACK CFI 2be50 .cfa: sp 16 +
STACK CFI 2be54 .cfa: x29 16 + .ra: .cfa -8 + ^ x29: .cfa -16 + ^
STACK CFI 2be60 .cfa: sp 16 +
STACK CFI 2be64 .cfa: sp 0 +
STACK CFI INIT 2be68 78 .cfa: sp 0 +
STACK CFI 2be6c .cfa: sp 32 +
STACK CFI 2be74 .cfa: x29 32 + x19: .cfa -16 + ^ .ra: .cfa -24 + ^ x29: .cfa -32 + ^
STACK CFI 2bed4 .cfa: sp 32 +
STACK CFI 2bedc .cfa: sp 0 +
STACK CFI INIT 2bee0 80 .cfa: sp 0 +
STACK CFI 2bee4 .cfa: sp 32 +
STACK CFI 2beec .cfa: x29 32 + x19: .cfa -8 + ^ x20: .cfa -16 + ^ .ra: .cfa -24 + ^ x29: .cfa -32 + ^
STACK CFI 2bf54 .cfa: sp 32 +
STACK CFI 2bf5c .cfa: sp 0 +
STACK CFI INIT 2c26c 10 .cfa: sp 0 +
STACK CFI 2c270 .cfa: sp 16 +
STACK CFI 2c274 .cfa: x29 16 + .ra: .cfa -8 + ^ x29: .cfa -16 + ^
STACK CFI INIT 2c27c 9c .cfa: sp 0 +
STACK CFI 2c280 .cfa: sp 32 +
STACK CFI 2c288 .cfa: x29 32 + x19: .cfa -8 + ^ x20: .cfa -16 + ^ .ra: .cfa -24 + ^ x29: .cfa -32 + ^
STACK CFI 2c30c .cfa: sp 32 +
STACK CFI 2c314 .cfa: sp 0 +
STACK CFI INIT 2c318 8 .cfa: sp 0 +
STACK CFI INIT 2c320 24 .cfa: sp 0 +
STACK CFI 2c324 .cfa: sp 32 +
STACK CFI 2c32c .cfa: x29 32 + x19: .cfa -16 + ^ .ra: .cfa -24 + ^ x29: .cfa -32 + ^
STACK CFI 2c338 .cfa: sp 32 +
STACK CFI 2c340 .cfa: sp 0 +
STACK CFI INIT 2c344 28 .cfa: sp 0 +
STACK CFI 2c348 .cfa: sp 32 +
STACK CFI 2c350 .cfa: x29 32 + x19: .cfa -16 + ^ .ra: .cfa -24 + ^ x29: .cfa -32 + ^
STACK CFI 2c360 .cfa: sp 32 +
STACK CFI 2c368 .cfa: sp 0 +
STACK CFI INIT 2c36c 8 .cfa: sp 0 +
STACK CFI INIT 2c374 c .cfa: sp 0 +
STACK CFI INIT 2c380 c .cfa: sp 0 +
STACK CFI INIT 2c38c 4 .cfa: sp 0 +
STACK CFI INIT 2c390 4 .cfa: sp 0 +
STACK CFI INIT 2c394 4 .cfa: sp 0 +
STACK CFI INIT 2c398 4 .cfa: sp 0 +
STACK CFI INIT 2c39c 10 .cfa: sp 0 +
STACK CFI INIT 2c3ac 10 .cfa: sp 0 +
STACK CFI INIT 2c3bc 50 .cfa: sp 0 +
STACK CFI 2c3c0 .cfa: sp 32 +
STACK CFI 2c3c8 .cfa: x29 32 + x19: .cfa -16 + ^ .ra: .cfa -24 + ^ x29: .cfa -32 + ^
STACK CFI 2c3e0 .cfa: sp 32 +
STACK CFI 2c3e8 .cfa: sp 0 +
STACK CFI 2c3ec .cfa: x29 32 +
STACK CFI 2c400 .cfa: sp 32 +
STACK CFI 2c408 .cfa: sp 0 +
STACK CFI INIT 2c628 4 .cfa: sp 0 +
STACK CFI INIT 2c7f8 a4 .cfa: sp 0 +
STACK CFI 2c7fc .cfa: sp 32 +
STACK CFI 2c804 .cfa: x29 32 + x19: .cfa -8 + ^ x20: .cfa -16 + ^ .ra: .cfa -24 + ^ x29: .cfa -32 + ^
STACK CFI 2c890 .cfa: sp 32 +
STACK CFI 2c898 .cfa: sp 0 +
STACK CFI INIT 2c89c 50 .cfa: sp 0 +
STACK CFI 2c8a0 .cfa: sp 32 +
STACK CFI 2c8a8 .cfa: x29 32 + x19: .cfa -16 + ^ .ra: .cfa -24 + ^ x29: .cfa -32 + ^
STACK CFI 2c8c0 .cfa: sp 32 +
STACK CFI 2c8c8 .cfa: sp 0 +
STACK CFI 2c8cc .cfa: x29 32 +
STACK CFI 2c8e0 .cfa: sp 32 +
STACK CFI 2c8e8 .cfa: sp 0 +
STACK CFI INIT 2c8ec 50 .cfa: sp 0 +
STACK CFI 2c8f0 .cfa: sp 32 +
STACK CFI 2c8f8 .cfa: x29 32 + x19: .cfa -16 + ^ .ra: .cfa -24 + ^ x29: .cfa -32 + ^
STACK CFI 2c910 .cfa: sp 32 +
STACK CFI 2c918 .cfa: sp 0 +
STACK CFI 2c91c .cfa: x29 32 +
STACK CFI 2c930 .cfa: sp 32 +
STACK CFI 2c938 .cfa: sp 0 +
STACK CFI INIT 2c93c 34 .cfa: sp 0 +
STACK CFI 2c940 .cfa: sp 32 +
STACK CFI 2c948 .cfa: x29 32 + x19: .cfa -16 + ^ .ra: .cfa -24 + ^ x29: .cfa -32 + ^
STACK CFI INIT 2c970 5c .cfa: sp 0 +
STACK CFI 2c974 .cfa: sp 32 +
STACK CFI 2c97c .cfa: x29 32 + x19: .cfa -16 + ^ .ra: .cfa -24 + ^ x29: .cfa -32 + ^
STACK CFI 2c9a0 .cfa: sp 32 +
STACK CFI 2c9a8 .cfa: sp 0 +
STACK CFI 2c9ac .cfa: x29 32 +
STACK CFI 2c9c0 .cfa: sp 32 +
STACK CFI 2c9c8 .cfa: sp 0 +
STACK CFI INIT 2c9cc 6c .cfa: sp 0 +
STACK CFI 2c9d0 .cfa: sp 32 +
STACK CFI 2c9d8 .cfa: x29 32 + x19: .cfa -8 + ^ x20: .cfa -16 + ^ .ra: .cfa -24 + ^ x29: .cfa -32 + ^
STACK CFI 2ca04 .cfa: sp 32 +
STACK CFI 2ca0c .cfa: sp 0 +
STACK CFI 2ca10 .cfa: x29 32 +
STACK CFI 2ca2c .cfa: sp 32 +
STACK CFI 2ca34 .cfa: sp 0 +
STACK CFI INIT 2ca38 58 .cfa: sp 0 +
STACK CFI 2ca3c .cfa: sp 32 +
STACK CFI 2ca44 .cfa: x29 32 + x19: .cfa -8 + ^ x20: .cfa -16 + ^ .ra: .cfa -24 + ^ x29: .cfa -32 + ^
STACK CFI 2ca84 .cfa: sp 32 +
STACK CFI 2ca8c .cfa: sp 0 +
STACK CFI INIT 2ca90 4c .cfa: sp 0 +
STACK CFI 2ca94 .cfa: sp 32 +
STACK CFI 2ca9c .cfa: x29 32 + x19: .cfa -8 + ^ x20: .cfa -16 + ^ .ra: .cfa -24 + ^ x29: .cfa -32 + ^
STACK CFI 2cad0 .cfa: sp 32 +
STACK CFI 2cad8 .cfa: sp 0 +
STACK CFI INIT 2cadc 50 .cfa: sp 0 +
STACK CFI 2cae0 .cfa: sp 32 +
STACK CFI 2cae8 .cfa: x29 32 + x19: .cfa -16 + ^ .ra: .cfa -24 + ^ x29: .cfa -32 + ^
STACK CFI 2cb00 .cfa: sp 32 +
STACK CFI 2cb08 .cfa: sp 0 +
STACK CFI 2cb0c .cfa: x29 32 +
STACK CFI 2cb20 .cfa: sp 32 +
STACK CFI 2cb28 .cfa: sp 0 +
STACK CFI INIT 2cb2c 60 .cfa: sp 0 +
STACK CFI 2cb30 .cfa: sp 32 +
STACK CFI 2cb38 .cfa: x29 32 + x19: .cfa -8 + ^ x20: .cfa -16 + ^ .ra: .cfa -24 + ^ x29: .cfa -32 + ^
STACK CFI 2cb58 .cfa: sp 32 +
STACK CFI 2cb60 .cfa: sp 0 +
STACK CFI 2cb64 .cfa: x29 32 +
STACK CFI 2cb80 .cfa: sp 32 +
STACK CFI 2cb88 .cfa: sp 0 +
STACK CFI INIT 2cb8c 8 .cfa: sp 0 +
STACK CFI INIT 2cb94 1c .cfa: sp 0 +
STACK CFI INIT 2cbb0 c .cfa: sp 0 +
STACK CFI INIT 2cd8c 60 .cfa: sp 0 +
STACK CFI 2cd90 .cfa: sp 32 +
STACK CFI 2cd98 .cfa: x29 32 + x19: .cfa -8 + ^ x20: .cfa -16 + ^ .ra: .cfa -24 + ^ x29: .cfa -32 + ^
STACK CFI 2cdb8 .cfa: sp 32 +
STACK CFI 2cdc0 .cfa: sp 0 +
STACK CFI 2cdc4 .cfa: x29 32 +
STACK CFI 2cde0 .cfa: sp 32 +
STACK CFI 2cde8 .cfa: sp 0 +
STACK CFI INIT 2cdec 70 .cfa: sp 0 +
STACK CFI 2cdf0 .cfa: sp 32 +
STACK CFI 2cdf8 .cfa: x29 32 + x19: .cfa -8 + ^ x20: .cfa -16 + ^ .ra: .cfa -24 + ^ x29: .cfa -32 + ^
STACK CFI 2ce20 .cfa: sp 32 +
STACK CFI 2ce28 .cfa: sp 0 +
STACK CFI 2ce2c .cfa: x29 32 +
STACK CFI 2ce50 .cfa: sp 32 +
STACK CFI 2ce58 .cfa: sp 0 +
STACK CFI INIT 2ce5c 5c .cfa: sp 0 +
STACK CFI 2ce60 .cfa: sp 32 +
STACK CFI 2ce68 .cfa: x29 32 + x19: .cfa -16 + ^ .ra: .cfa -24 + ^ x29: .cfa -32 + ^
STACK CFI 2ce8c .cfa: sp 32 +
STACK CFI 2ce94 .cfa: sp 0 +
STACK CFI 2ce98 .cfa: x29 32 +
STACK CFI 2ceac .cfa: sp 32 +
STACK CFI 2ceb4 .cfa: sp 0 +
STACK CFI INIT 2ceb8 6c .cfa: sp 0 +
STACK CFI 2cebc .cfa: sp 32 +
STACK CFI 2cec4 .cfa: x29 32 + x19: .cfa -8 + ^ x20: .cfa -16 + ^ .ra: .cfa -24 + ^ x29: .cfa -32 + ^
STACK CFI 2cef0 .cfa: sp 32 +
STACK CFI 2cef8 .cfa: sp 0 +
STACK CFI 2cefc .cfa: x29 32 +
STACK CFI 2cf18 .cfa: sp 32 +
STACK CFI 2cf20 .cfa: sp 0 +
STACK CFI INIT 2cf24 58 .cfa: sp 0 +
STACK CFI 2cf28 .cfa: sp 32 +
STACK CFI 2cf30 .cfa: x29 32 + x19: .cfa -8 + ^ x20: .cfa -16 + ^ .ra: .cfa -24 + ^ x29: .cfa -32 + ^
STACK CFI 2cf70 .cfa: sp 32 +
STACK CFI 2cf78 .cfa: sp 0 +
STACK CFI INIT 2cf7c 4c .cfa: sp 0 +
STACK CFI 2cf80 .cfa: sp 32 +
STACK CFI 2cf88 .cfa: x29 32 + x19: .cfa -8 + ^ x20: .cfa -16 + ^ .ra: .cfa -24 + ^ x29: .cfa -32 + ^
STACK CFI 2cfbc .cfa: sp 32 +
STACK CFI 2cfc4 .cfa: sp 0 +
STACK CFI INIT 2cfc8 50 .cfa: sp 0 +
STACK CFI 2cfcc .cfa: sp 32 +
STACK CFI 2cfd4 .cfa: x29 32 + x19: .cfa -16 + ^ .ra: .cfa -24 + ^ x29: .cfa -32 + ^
STACK CFI 2cfec .cfa: sp 32 +
STACK CFI 2cff4 .cfa: sp 0 +
STACK CFI 2cff8 .cfa: x29 32 +
STACK CFI 2d00c .cfa: sp 32 +
STACK CFI 2d014 .cfa: sp 0 +
STACK CFI INIT 2d018 60 .cfa: sp 0 +
STACK CFI 2d01c .cfa: sp 32 +
STACK CFI 2d024 .cfa: x29 32 + x19: .cfa -8 + ^ x20: .cfa -16 + ^ .ra: .cfa -24 + ^ x29: .cfa -32 + ^
STACK CFI 2d044 .cfa: sp 32 +
STACK CFI 2d04c .cfa: sp 0 +
STACK CFI 2d050 .cfa: x29 32 +
STACK CFI 2d06c .cfa: sp 32 +
STACK CFI 2d074 .cfa: sp 0 +
STACK CFI INIT 2d078 8 .cfa: sp 0 +
STACK CFI INIT 2d080 1c .cfa: sp 0 +
STACK CFI INIT 2d09c c .cfa: sp 0 +
STACK CFI INIT 2d26c 104 .cfa: sp 0 +
STACK CFI 2d270 .cfa: sp 64 +
STACK CFI 2d280 .cfa: x29 64 + x19: .cfa -8 + ^ x20: .cfa -16 + ^ x21: .cfa -24 + ^ x22: .cfa -32 + ^ x23: .cfa -48 + ^ .ra: .cfa -56 + ^ x29: .cfa -64 + ^
STACK CFI 2d2dc .cfa: sp 64 +
STACK CFI 2d2ec .cfa: sp 0 +
STACK CFI 2d2f0 .cfa: x29 64 +
STACK CFI 2d30c .cfa: sp 64 +
STACK CFI 2d31c .cfa: sp 0 +
STACK CFI 2d320 .cfa: x29 64 +
STACK CFI 2d35c .cfa: sp 64 +
STACK CFI 2d36c .cfa: sp 0 +
STACK CFI INIT 2d370 34 .cfa: sp 0 +
STACK CFI 2d374 .cfa: sp 16 +
STACK CFI 2d378 .cfa: x29 16 + .ra: .cfa -8 + ^ x29: .cfa -16 + ^
STACK CFI INIT 2d3a4 24 .cfa: sp 0 +
STACK CFI 2d3a8 .cfa: sp 32 +
STACK CFI 2d3b0 .cfa: x29 32 + x19: .cfa -16 + ^ .ra: .cfa -24 + ^ x29: .cfa -32 + ^
STACK CFI 2d3bc .cfa: sp 32 +
STACK CFI 2d3c4 .cfa: sp 0 +
STACK CFI INIT 2d3c8 14 .cfa: sp 0 +
STACK CFI 2d3cc .cfa: sp 16 +
STACK CFI 2d3d0 .cfa: x29 16 + .ra: .cfa -8 + ^ x29: .cfa -16 + ^
STACK CFI INIT 2d42c 30 .cfa: sp 0 +
STACK CFI 2d430 .cfa: sp 32 +
STACK CFI 2d438 .cfa: x29 32 + x19: .cfa -16 + ^ .ra: .cfa -24 + ^ x29: .cfa -32 + ^
STACK CFI 2d450 .cfa: sp 32 +
STACK CFI 2d458 .cfa: sp 0 +
STACK CFI INIT 2d7b8 70 .cfa: sp 0 +
STACK CFI 2d7bc .cfa: sp 48 +
STACK CFI 2d7c8 .cfa: x29 32 + x19: .cfa -16 + ^ .ra: .cfa -24 + ^ x29: .cfa -32 + ^
STACK CFI 2d800 .cfa: sp 48 +
STACK CFI 2d80c .cfa: sp 0 +
STACK CFI 2d810 .cfa: x29 32 +
STACK CFI INIT 2d828 5c .cfa: sp 0 +
STACK CFI 2d82c .cfa: sp 32 +
STACK CFI 2d834 .cfa: x29 32 + x19: .cfa -16 + ^ .ra: .cfa -24 + ^ x29: .cfa -32 + ^
STACK CFI 2d878 .cfa: sp 32 +
STACK CFI 2d880 .cfa: sp 0 +
STACK CFI INIT 2d884 64 .cfa: sp 0 +
STACK CFI 2d888 .cfa: sp 32 +
STACK CFI 2d890 .cfa: x29 32 + x19: .cfa -16 + ^ .ra: .cfa -24 + ^ x29: .cfa -32 + ^
STACK CFI 2d8dc .cfa: sp 32 +
STACK CFI 2d8e4 .cfa: sp 0 +
STACK CFI INIT 2d8e8 4 .cfa: sp 0 +
STACK CFI INIT 2d8ec ac .cfa: sp 0 +
STACK CFI 2d8f0 .cfa: sp 64 +
STACK CFI 2d900 .cfa: x29 64 + x19: .cfa -8 + ^ x20: .cfa -16 + ^ x21: .cfa -24 + ^ x22: .cfa -32 + ^ x23: .cfa -48 + ^ .ra: .cfa -56 + ^ x29: .cfa -64 + ^
STACK CFI 2d97c .cfa: sp 64 +
STACK CFI 2d98c .cfa: sp 0 +
STACK CFI 2d990 .cfa: x29 64 +
STACK CFI INIT 2d998 110 .cfa: sp 0 +
STACK CFI 2d99c .cfa: sp 64 +
STACK CFI 2d9ac .cfa: x29 64 + x19: .cfa -8 + ^ x20: .cfa -16 + ^ x21: .cfa -24 + ^ x22: .cfa -32 + ^ x23: .cfa -40 + ^ x24: .cfa -48 + ^ .ra: .cfa -56 + ^ x29: .cfa -64 + ^
STACK CFI 2da8c .cfa: sp 64 +
STACK CFI 2da9c .cfa: sp 0 +
STACK CFI 2daa0 .cfa: x29 64 +
STACK CFI INIT 2daa8 8c .cfa: sp 0 +
STACK CFI 2daac .cfa: sp 48 +
STACK CFI 2dab8 .cfa: x29 48 + x19: .cfa -8 + ^ x20: .cfa -16 + ^ x21: .cfa -24 + ^ x22: .cfa -32 + ^ .ra: .cfa -40 + ^ x29: .cfa -48 + ^
STACK CFI 2dac0 .cfa: sp 48 +
STACK CFI 2dacc .cfa: sp 0 +
STACK CFI 2dad0 .cfa: x29 48 +
STACK CFI 2db24 .cfa: sp 48 +
STACK CFI 2db30 .cfa: sp 0 +
STACK CFI INIT 2db34 14 .cfa: sp 0 +
STACK CFI 2db38 .cfa: sp 16 +
STACK CFI 2db3c .cfa: x29 16 + .ra: .cfa -8 + ^ x29: .cfa -16 + ^
STACK CFI INIT 2db48 60 .cfa: sp 0 +
STACK CFI 2db58 .cfa: sp 32 +
STACK CFI 2db60 .cfa: x29 32 + x19: .cfa -8 + ^ x20: .cfa -16 + ^ .ra: .cfa -24 + ^ x29: .cfa -32 + ^
STACK CFI 2db9c .cfa: sp 32 +
STACK CFI 2dba4 .cfa: sp 0 +
STACK CFI INIT 2dba8 80 .cfa: sp 0 +
STACK CFI 2dbac .cfa: sp 48 +
STACK CFI 2dbb8 .cfa: x29 48 + x19: .cfa -8 + ^ x20: .cfa -16 + ^ x21: .cfa -24 + ^ x22: .cfa -32 + ^ .ra: .cfa -40 + ^ x29: .cfa -48 + ^
STACK CFI 2dbd0 .cfa: sp 48 +
STACK CFI 2dbdc .cfa: sp 0 +
STACK CFI 2dbe0 .cfa: x29 48 +
STACK CFI 2dc10 .cfa: sp 48 +
STACK CFI 2dc1c .cfa: sp 0 +
STACK CFI 2dc20 .cfa: x29 48 +
STACK CFI INIT 2dc28 14 .cfa: sp 0 +
STACK CFI 2dc2c .cfa: sp 16 +
STACK CFI 2dc30 .cfa: x29 16 + .ra: .cfa -8 + ^ x29: .cfa -16 + ^
STACK CFI INIT 2dc8c 30 .cfa: sp 0 +
STACK CFI 2dc90 .cfa: sp 32 +
STACK CFI 2dc98 .cfa: x29 32 + x19: .cfa -16 + ^ .ra: .cfa -24 + ^ x29: .cfa -32 + ^
STACK CFI 2dcb0 .cfa: sp 32 +
STACK CFI 2dcb8 .cfa: sp 0 +
STACK CFI INIT 2dcbc 4 .cfa: sp 0 +
STACK CFI INIT 2dcc0 34 .cfa: sp 0 +
STACK CFI 2dcc4 .cfa: sp 32 +
STACK CFI 2dccc .cfa: x29 32 + x19: .cfa -16 + ^ .ra: .cfa -24 + ^ x29: .cfa -32 + ^
STACK CFI 2dce8 .cfa: sp 32 +
STACK CFI 2dcf0 .cfa: sp 0 +
STACK CFI INIT 2dcf4 14 .cfa: sp 0 +
STACK CFI INIT 2dd08 4 .cfa: sp 0 +
STACK CFI INIT 2dd0c 4 .cfa: sp 0 +
STACK CFI INIT 2dd10 1c .cfa: sp 0 +
STACK CFI 2dd14 .cfa: sp 16 +
STACK CFI 2dd18 .cfa: x29 16 + .ra: .cfa -8 + ^ x29: .cfa -16 + ^
STACK CFI 2dd24 .cfa: sp 16 +
STACK CFI 2dd28 .cfa: sp 0 +
STACK CFI INIT 2dd2c 1c .cfa: sp 0 +
STACK CFI INIT 2dd48 c .cfa: sp 0 +
STACK CFI INIT 2dd54 4 .cfa: sp 0 +
STACK CFI INIT 2dd58 34 .cfa: sp 0 +
STACK CFI 2dd5c .cfa: sp 32 +
STACK CFI 2dd64 .cfa: x29 32 + x19: .cfa -16 + ^ .ra: .cfa -24 + ^ x29: .cfa -32 + ^
STACK CFI 2dd80 .cfa: sp 32 +
STACK CFI 2dd88 .cfa: sp 0 +
STACK CFI INIT 2dd8c 14 .cfa: sp 0 +
STACK CFI INIT 2dda0 4 .cfa: sp 0 +
STACK CFI INIT 2dda4 4 .cfa: sp 0 +
STACK CFI INIT 2dda8 8c .cfa: sp 0 +
STACK CFI 2ddac .cfa: sp 32 +
STACK CFI 2ddb4 .cfa: x29 32 + x19: .cfa -16 + ^ .ra: .cfa -24 + ^ x29: .cfa -32 + ^
STACK CFI 2de28 .cfa: sp 32 +
STACK CFI 2de30 .cfa: sp 0 +
STACK CFI INIT 2de34 1c .cfa: sp 0 +
STACK CFI INIT 2de50 c .cfa: sp 0 +
STACK CFI INIT 2de5c 4 .cfa: sp 0 +
STACK CFI INIT 2de60 34 .cfa: sp 0 +
STACK CFI 2de64 .cfa: sp 32 +
STACK CFI 2de6c .cfa: x29 32 + x19: .cfa -16 + ^ .ra: .cfa -24 + ^ x29: .cfa -32 + ^
STACK CFI 2de88 .cfa: sp 32 +
STACK CFI 2de90 .cfa: sp 0 +
STACK CFI INIT 2de94 14 .cfa: sp 0 +
STACK CFI INIT 2dea8 4 .cfa: sp 0 +
STACK CFI INIT 2deac 4 .cfa: sp 0 +
STACK CFI INIT 2deb0 8c .cfa: sp 0 +
STACK CFI 2deb4 .cfa: sp 32 +
STACK CFI 2debc .cfa: x29 32 + x19: .cfa -16 + ^ .ra: .cfa -24 + ^ x29: .cfa -32 + ^
STACK CFI 2df30 .cfa: sp 32 +
STACK CFI 2df38 .cfa: sp 0 +
STACK CFI INIT 2df3c 1c .cfa: sp 0 +
STACK CFI INIT 2df58 c .cfa: sp 0 +
STACK CFI INIT 2df64 4 .cfa: sp 0 +
STACK CFI INIT 2df68 34 .cfa: sp 0 +
STACK CFI 2df6c .cfa: sp 32 +
STACK CFI 2df74 .cfa: x29 32 + x19: .cfa -16 + ^ .ra: .cfa -24 + ^ x29: .cfa -32 + ^
STACK CFI 2df90 .cfa: sp 32 +
STACK CFI 2df98 .cfa: sp 0 +
STACK CFI INIT 2df9c 14 .cfa: sp 0 +
STACK CFI INIT 2dfb0 4 .cfa: sp 0 +
STACK CFI INIT 2dfb4 4 .cfa: sp 0 +
STACK CFI INIT 2e204 1c .cfa: sp 0 +
STACK CFI INIT 2e220 c .cfa: sp 0 +
STACK CFI INIT 2e22c 4 .cfa: sp 0 +
STACK CFI INIT 2e230 34 .cfa: sp 0 +
STACK CFI 2e234 .cfa: sp 32 +
STACK CFI 2e23c .cfa: x29 32 + x19: .cfa -16 + ^ .ra: .cfa -24 + ^ x29: .cfa -32 + ^
STACK CFI 2e258 .cfa: sp 32 +
STACK CFI 2e260 .cfa: sp 0 +
STACK CFI INIT 2e264 14 .cfa: sp 0 +
STACK CFI INIT 2e278 4 .cfa: sp 0 +
STACK CFI INIT 2e27c 4 .cfa: sp 0 +
STACK CFI INIT 2e280 c .cfa: sp 0 +
STACK CFI INIT 2e28c 1c .cfa: sp 0 +
STACK CFI INIT 2e2a8 c .cfa: sp 0 +
STACK CFI INIT 2e2b4 4 .cfa: sp 0 +
STACK CFI INIT 2e2b8 34 .cfa: sp 0 +
STACK CFI 2e2bc .cfa: sp 32 +
STACK CFI 2e2c4 .cfa: x29 32 + x19: .cfa -16 + ^ .ra: .cfa -24 + ^ x29: .cfa -32 + ^
STACK CFI 2e2e0 .cfa: sp 32 +
STACK CFI 2e2e8 .cfa: sp 0 +
STACK CFI INIT 2e2ec 14 .cfa: sp 0 +
STACK CFI INIT 2e300 4 .cfa: sp 0 +
STACK CFI INIT 2e304 4 .cfa: sp 0 +
STACK CFI INIT 2e308 c .cfa: sp 0 +
STACK CFI INIT 2e314 1c .cfa: sp 0 +
STACK CFI INIT 2e330 c .cfa: sp 0 +
STACK CFI INIT 2e33c 4 .cfa: sp 0 +
STACK CFI INIT 2e340 34 .cfa: sp 0 +
STACK CFI 2e344 .cfa: sp 32 +
STACK CFI 2e34c .cfa: x29 32 + x19: .cfa -16 + ^ .ra: .cfa -24 + ^ x29: .cfa -32 + ^
STACK CFI 2e368 .cfa: sp 32 +
STACK CFI 2e370 .cfa: sp 0 +
STACK CFI INIT 2e374 14 .cfa: sp 0 +
STACK CFI INIT 2e388 4 .cfa: sp 0 +
STACK CFI INIT 2e38c 4 .cfa: sp 0 +
STACK CFI INIT 2e63c 1c .cfa: sp 0 +
STACK CFI INIT 2e658 c .cfa: sp 0 +
STACK CFI INIT 2e664 4 .cfa: sp 0 +
STACK CFI INIT 2e668 34 .cfa: sp 0 +
STACK CFI 2e66c .cfa: sp 32 +
STACK CFI 2e674 .cfa: x29 32 + x19: .cfa -16 + ^ .ra: .cfa -24 + ^ x29: .cfa -32 + ^
STACK CFI 2e690 .cfa: sp 32 +
STACK CFI 2e698 .cfa: sp 0 +
STACK CFI INIT 2e69c 14 .cfa: sp 0 +
STACK CFI INIT 2e6b0 4 .cfa: sp 0 +
STACK CFI INIT 2e6b4 4 .cfa: sp 0 +
STACK CFI INIT 2e6b8 30 .cfa: sp 0 +
STACK CFI 2e6bc .cfa: sp 32 +
STACK CFI 2e6c4 .cfa: x29 32 + x19: .cfa -16 + ^ .ra: .cfa -24 + ^ x29: .cfa -32 + ^
STACK CFI 2e6dc .cfa: sp 32 +
STACK CFI 2e6e4 .cfa: sp 0 +
STACK CFI INIT 2e6e8 1c .cfa: sp 0 +
STACK CFI INIT 2e704 c .cfa: sp 0 +
STACK CFI INIT 2e710 4 .cfa: sp 0 +
STACK CFI INIT 2e714 34 .cfa: sp 0 +
STACK CFI 2e718 .cfa: sp 32 +
STACK CFI 2e720 .cfa: x29 32 + x19: .cfa -16 + ^ .ra: .cfa -24 + ^ x29: .cfa -32 + ^
STACK CFI 2e73c .cfa: sp 32 +
STACK CFI 2e744 .cfa: sp 0 +
STACK CFI INIT 2e748 14 .cfa: sp 0 +
STACK CFI INIT 2e75c 4 .cfa: sp 0 +
STACK CFI INIT 2e760 4 .cfa: sp 0 +
STACK CFI INIT 2ea10 1c .cfa: sp 0 +
STACK CFI INIT 2ea2c c .cfa: sp 0 +
STACK CFI INIT 2ea38 4 .cfa: sp 0 +
STACK CFI INIT 2ea3c 34 .cfa: sp 0 +
STACK CFI 2ea40 .cfa: sp 32 +
STACK CFI 2ea48 .cfa: x29 32 + x19: .cfa -16 + ^ .ra: .cfa -24 + ^ x29: .cfa -32 + ^
STACK CFI 2ea64 .cfa: sp 32 +
STACK CFI 2ea6c .cfa: sp 0 +
STACK CFI INIT 2ea70 14 .cfa: sp 0 +
STACK CFI INIT 2ea84 4 .cfa: sp 0 +
STACK CFI INIT 2ea88 4 .cfa: sp 0 +
STACK CFI INIT 2ea8c 30 .cfa: sp 0 +
STACK CFI 2ea90 .cfa: sp 32 +
STACK CFI 2ea98 .cfa: x29 32 + x19: .cfa -16 + ^ .ra: .cfa -24 + ^ x29: .cfa -32 + ^
STACK CFI 2eab0 .cfa: sp 32 +
STACK CFI 2eab8 .cfa: sp 0 +
STACK CFI INIT 2eabc 1c .cfa: sp 0 +
STACK CFI INIT 2ead8 c .cfa: sp 0 +
STACK CFI INIT 2eae4 4 .cfa: sp 0 +
STACK CFI INIT 2eae8 34 .cfa: sp 0 +
STACK CFI 2eaec .cfa: sp 32 +
STACK CFI 2eaf4 .cfa: x29 32 + x19: .cfa -16 + ^ .ra: .cfa -24 + ^ x29: .cfa -32 + ^
STACK CFI 2eb10 .cfa: sp 32 +
STACK CFI 2eb18 .cfa: sp 0 +
STACK CFI INIT 2eb1c 14 .cfa: sp 0 +
STACK CFI INIT 2eb30 4 .cfa: sp 0 +
STACK CFI INIT 2eb34 4 .cfa: sp 0 +
STACK CFI INIT 2ec6c 1c .cfa: sp 0 +
STACK CFI INIT 2ec88 c .cfa: sp 0 +
STACK CFI INIT 2ec94 4 .cfa: sp 0 +
STACK CFI INIT 2ec98 34 .cfa: sp 0 +
STACK CFI 2ec9c .cfa: sp 32 +
STACK CFI 2eca4 .cfa: x29 32 + x19: .cfa -16 + ^ .ra: .cfa -24 + ^ x29: .cfa -32 + ^
STACK CFI 2ecc0 .cfa: sp 32 +
STACK CFI 2ecc8 .cfa: sp 0 +
STACK CFI INIT 2eccc 14 .cfa: sp 0 +
STACK CFI INIT 2ece0 4 .cfa: sp 0 +
STACK CFI INIT 2ece4 4 .cfa: sp 0 +
STACK CFI INIT 2ee9c 1c .cfa: sp 0 +
STACK CFI INIT 2eeb8 c .cfa: sp 0 +
STACK CFI INIT 2ef70 140 .cfa: sp 0 +
STACK CFI 2ef74 .cfa: sp 128 +
STACK CFI 2ef84 .cfa: x29 48 + x19: .cfa -8 + ^ x20: .cfa -16 + ^ x21: .cfa -32 + ^ .ra: .cfa -40 + ^ x29: .cfa -48 + ^
STACK CFI 2f04c .cfa: sp 128 +
STACK CFI 2f05c .cfa: sp 0 +
STACK CFI 2f060 .cfa: x29 48 +
STACK CFI INIT 2f0b0 200 .cfa: sp 0 +
STACK CFI INIT 2f2b0 4 .cfa: sp 0 +
STACK CFI INIT 2f2b4 34 .cfa: sp 0 +
STACK CFI 2f2b8 .cfa: sp 32 +
STACK CFI 2f2c0 .cfa: x29 32 + x19: .cfa -16 + ^ .ra: .cfa -24 + ^ x29: .cfa -32 + ^
STACK CFI 2f2dc .cfa: sp 32 +
STACK CFI 2f2e4 .cfa: sp 0 +
STACK CFI INIT 2f2e8 14 .cfa: sp 0 +
STACK CFI INIT 2f2fc 4 .cfa: sp 0 +
STACK CFI INIT 2f300 4 .cfa: sp 0 +
STACK CFI INIT 2f304 90 .cfa: sp 0 +
STACK CFI 2f308 .cfa: sp 32 +
STACK CFI 2f310 .cfa: x29 32 + x19: .cfa -16 + ^ .ra: .cfa -24 + ^ x29: .cfa -32 + ^
STACK CFI 2f388 .cfa: sp 32 +
STACK CFI 2f390 .cfa: sp 0 +
STACK CFI INIT 2f394 1c .cfa: sp 0 +
STACK CFI INIT 2f3b0 c .cfa: sp 0 +
STACK CFI INIT 2f3bc 4 .cfa: sp 0 +
STACK CFI INIT 2f3c0 34 .cfa: sp 0 +
STACK CFI 2f3c4 .cfa: sp 32 +
STACK CFI 2f3cc .cfa: x29 32 + x19: .cfa -16 + ^ .ra: .cfa -24 + ^ x29: .cfa -32 + ^
STACK CFI 2f3e8 .cfa: sp 32 +
STACK CFI 2f3f0 .cfa: sp 0 +
STACK CFI INIT 2f3f4 14 .cfa: sp 0 +
STACK CFI INIT 2f408 4 .cfa: sp 0 +
STACK CFI INIT 2f40c 4 .cfa: sp 0 +
STACK CFI INIT 2f410 30 .cfa: sp 0 +
STACK CFI 2f414 .cfa: sp 32 +
STACK CFI 2f41c .cfa: x29 32 + x19: .cfa -16 + ^ .ra: .cfa -24 + ^ x29: .cfa -32 + ^
STACK CFI 2f434 .cfa: sp 32 +
STACK CFI 2f43c .cfa: sp 0 +
STACK CFI INIT 2f440 1c .cfa: sp 0 +
STACK CFI INIT 2f45c c .cfa: sp 0 +
STACK CFI INIT 2f468 4 .cfa: sp 0 +
STACK CFI INIT 2f46c 34 .cfa: sp 0 +
STACK CFI 2f470 .cfa: sp 32 +
STACK CFI 2f478 .cfa: x29 32 + x19: .cfa -16 + ^ .ra: .cfa -24 + ^ x29: .cfa -32 + ^
STACK CFI 2f494 .cfa: sp 32 +
STACK CFI 2f49c .cfa: sp 0 +
STACK CFI INIT 2f4a0 14 .cfa: sp 0 +
STACK CFI INIT 2f4b4 4 .cfa: sp 0 +
STACK CFI INIT 2f4b8 4 .cfa: sp 0 +
STACK CFI INIT 2f548 1c .cfa: sp 0 +
STACK CFI INIT 2f564 c .cfa: sp 0 +
STACK CFI INIT 2f570 4 .cfa: sp 0 +
STACK CFI INIT 2f574 34 .cfa: sp 0 +
STACK CFI 2f578 .cfa: sp 32 +
STACK CFI 2f580 .cfa: x29 32 + x19: .cfa -16 + ^ .ra: .cfa -24 + ^ x29: .cfa -32 + ^
STACK CFI 2f59c .cfa: sp 32 +
STACK CFI 2f5a4 .cfa: sp 0 +
STACK CFI INIT 2f5a8 14 .cfa: sp 0 +
STACK CFI INIT 2f5bc 4 .cfa: sp 0 +
STACK CFI INIT 2f5c0 4 .cfa: sp 0 +
STACK CFI INIT 2f650 1c .cfa: sp 0 +
STACK CFI INIT 2f66c c .cfa: sp 0 +
STACK CFI INIT 2f678 4 .cfa: sp 0 +
STACK CFI INIT 2f67c 4 .cfa: sp 0 +
STACK CFI INIT 2f680 38 .cfa: sp 0 +
STACK CFI 2f684 .cfa: sp 32 +
STACK CFI 2f68c .cfa: x29 32 + x19: .cfa -16 + ^ .ra: .cfa -24 + ^ x29: .cfa -32 + ^
STACK CFI 2f6ac .cfa: sp 32 +
STACK CFI 2f6b4 .cfa: sp 0 +
STACK CFI INIT 2f6b8 18 .cfa: sp 0 +
STACK CFI INIT 2f6d0 4 .cfa: sp 0 +
STACK CFI INIT 2f6d4 4 .cfa: sp 0 +
STACK CFI INIT 2f900 1c .cfa: sp 0 +
STACK CFI INIT 2f91c c .cfa: sp 0 +
STACK CFI INIT 2f928 4 .cfa: sp 0 +
STACK CFI INIT 2f92c 34 .cfa: sp 0 +
STACK CFI 2f930 .cfa: sp 32 +
STACK CFI 2f938 .cfa: x29 32 + x19: .cfa -16 + ^ .ra: .cfa -24 + ^ x29: .cfa -32 + ^
STACK CFI 2f954 .cfa: sp 32 +
STACK CFI 2f95c .cfa: sp 0 +
STACK CFI INIT 2f960 14 .cfa: sp 0 +
STACK CFI INIT 2f974 4 .cfa: sp 0 +
STACK CFI INIT 2f978 4 .cfa: sp 0 +
STACK CFI INIT 2f97c 8 .cfa: sp 0 +
STACK CFI INIT 2f984 1c .cfa: sp 0 +
STACK CFI INIT 2f9a0 c .cfa: sp 0 +
STACK CFI INIT 2f9ac 4 .cfa: sp 0 +
STACK CFI INIT 2f9b0 4 .cfa: sp 0 +
STACK CFI INIT 2f9b4 34 .cfa: sp 0 +
STACK CFI 2f9b8 .cfa: sp 32 +
STACK CFI 2f9c0 .cfa: x29 32 + x19: .cfa -16 + ^ .ra: .cfa -24 + ^ x29: .cfa -32 + ^
STACK CFI 2f9dc .cfa: sp 32 +
STACK CFI 2f9e4 .cfa: sp 0 +
STACK CFI INIT 2f9e8 14 .cfa: sp 0 +
STACK CFI INIT 2f9fc 4 .cfa: sp 0 +
STACK CFI INIT 2fa00 4 .cfa: sp 0 +
STACK CFI INIT 2fa04 8 .cfa: sp 0 +
STACK CFI INIT 2fa0c 1c .cfa: sp 0 +
STACK CFI INIT 2fa28 c .cfa: sp 0 +
STACK CFI INIT 2fa34 4 .cfa: sp 0 +
STACK CFI INIT 2fa38 4 .cfa: sp 0 +
STACK CFI INIT 2fa3c 34 .cfa: sp 0 +
STACK CFI 2fa40 .cfa: sp 32 +
STACK CFI 2fa48 .cfa: x29 32 + x19: .cfa -16 + ^ .ra: .cfa -24 + ^ x29: .cfa -32 + ^
STACK CFI 2fa64 .cfa: sp 32 +
STACK CFI 2fa6c .cfa: sp 0 +
STACK CFI INIT 2fa70 14 .cfa: sp 0 +
STACK CFI INIT 2fa84 4 .cfa: sp 0 +
STACK CFI INIT 2fa88 4 .cfa: sp 0 +
STACK CFI INIT 2fa8c 58 .cfa: sp 0 +
STACK CFI INIT 2fae4 1c .cfa: sp 0 +
STACK CFI INIT 2fb00 c .cfa: sp 0 +
STACK CFI INIT 2fd54 68 .cfa: sp 0 +
STACK CFI 2fd58 .cfa: sp 32 +
STACK CFI 2fd60 .cfa: x29 32 + x19: .cfa -8 + ^ x20: .cfa -16 + ^ .ra: .cfa -24 + ^ x29: .cfa -32 + ^
STACK CFI 2fd78 .cfa: sp 32 +
STACK CFI 2fd80 .cfa: sp 0 +
STACK CFI 2fd84 .cfa: x29 32 +
STACK CFI 2fdb0 .cfa: sp 32 +
STACK CFI 2fdb8 .cfa: sp 0 +
STACK CFI INIT 2fdbc 14 .cfa: sp 0 +
STACK CFI 2fdc0 .cfa: sp 16 +
STACK CFI 2fdc4 .cfa: x29 16 + .ra: .cfa -8 + ^ x29: .cfa -16 + ^
STACK CFI INIT 2fdd0 168 .cfa: sp 0 +
STACK CFI 2fdd4 .cfa: sp 48 +
STACK CFI 2fde0 .cfa: x29 48 + x19: .cfa -8 + ^ x20: .cfa -16 + ^ x21: .cfa -24 + ^ x22: .cfa -32 + ^ .ra: .cfa -40 + ^ x29: .cfa -48 + ^
STACK CFI 2ff1c .cfa: sp 48 +
STACK CFI 2ff28 .cfa: sp 0 +
STACK CFI 2ff2c .cfa: x29 48 +
STACK CFI INIT 2ff38 4 .cfa: sp 0 +
STACK CFI INIT 2ff3c 34 .cfa: sp 0 +
STACK CFI 2ff40 .cfa: sp 32 +
STACK CFI 2ff48 .cfa: x29 32 + x19: .cfa -16 + ^ .ra: .cfa -24 + ^ x29: .cfa -32 + ^
STACK CFI 2ff64 .cfa: sp 32 +
STACK CFI 2ff6c .cfa: sp 0 +
STACK CFI INIT 2ff70 14 .cfa: sp 0 +
STACK CFI INIT 2ff84 4 .cfa: sp 0 +
STACK CFI INIT 2ff88 4 .cfa: sp 0 +
STACK CFI INIT 2ff8c 10 .cfa: sp 0 +
STACK CFI INIT 2ff9c 1c .cfa: sp 0 +
STACK CFI INIT 2ffb8 c .cfa: sp 0 +
STACK CFI INIT 2ffc4 4 .cfa: sp 0 +
STACK CFI INIT 2ffc8 4 .cfa: sp 0 +
STACK CFI INIT 2ffcc 34 .cfa: sp 0 +
STACK CFI 2ffd0 .cfa: sp 32 +
STACK CFI 2ffd8 .cfa: x29 32 + x19: .cfa -16 + ^ .ra: .cfa -24 + ^ x29: .cfa -32 + ^
STACK CFI 2fff4 .cfa: sp 32 +
STACK CFI 2fffc .cfa: sp 0 +
STACK CFI INIT 30000 14 .cfa: sp 0 +
STACK CFI INIT 30014 4 .cfa: sp 0 +
STACK CFI INIT 30018 4 .cfa: sp 0 +
STACK CFI INIT 3001c 10 .cfa: sp 0 +
STACK CFI INIT 3002c 1c .cfa: sp 0 +
STACK CFI INIT 30048 c .cfa: sp 0 +
STACK CFI INIT 30f64 44 .cfa: sp 0 +
STACK CFI 30f68 .cfa: sp 32 +
STACK CFI 30f70 .cfa: x29 32 + x19: .cfa -16 + ^ .ra: .cfa -24 + ^ x29: .cfa -32 + ^
STACK CFI 30f8c .cfa: sp 32 +
STACK CFI 30f94 .cfa: sp 0 +
STACK CFI 30f98 .cfa: x29 32 +
STACK CFI 30f9c .cfa: sp 32 +
STACK CFI 30fa4 .cfa: sp 0 +
STACK CFI INIT 30fa8 24 .cfa: sp 0 +
STACK CFI 30fac .cfa: sp 32 +
STACK CFI 30fb4 .cfa: x29 32 + x19: .cfa -16 + ^ .ra: .cfa -24 + ^ x29: .cfa -32 + ^
STACK CFI 30fc0 .cfa: sp 32 +
STACK CFI 30fc8 .cfa: sp 0 +
STACK CFI INIT 30fcc 8 .cfa: sp 0 +
STACK CFI INIT 30fd4 28 .cfa: sp 0 +
STACK CFI 30fd8 .cfa: sp 32 +
STACK CFI 30fe0 .cfa: x29 32 + x19: .cfa -16 + ^ .ra: .cfa -24 + ^ x29: .cfa -32 + ^
STACK CFI 30ff0 .cfa: sp 32 +
STACK CFI 30ff8 .cfa: sp 0 +
STACK CFI INIT 30ffc 14 .cfa: sp 0 +
STACK CFI 31000 .cfa: sp 16 +
STACK CFI 31004 .cfa: x29 16 + .ra: .cfa -8 + ^ x29: .cfa -16 + ^
STACK CFI INIT 31010 50 .cfa: sp 0 +
STACK CFI 31014 .cfa: sp 32 +
STACK CFI 3101c .cfa: x29 32 + x19: .cfa -16 + ^ .ra: .cfa -24 + ^ x29: .cfa -32 + ^
STACK CFI 31044 .cfa: sp 32 +
STACK CFI 3104c .cfa: sp 0 +
STACK CFI 31050 .cfa: x29 32 +
STACK CFI 31054 .cfa: sp 32 +
STACK CFI 3105c .cfa: sp 0 +
STACK CFI INIT 31060 4c .cfa: sp 0 +
STACK CFI 31064 .cfa: sp 32 +
STACK CFI 3106c .cfa: x29 32 + x19: .cfa -16 + ^ .ra: .cfa -24 + ^ x29: .cfa -32 + ^
STACK CFI 310a0 .cfa: sp 32 +
STACK CFI 310a8 .cfa: sp 0 +
STACK CFI INIT 31100 1c .cfa: sp 0 +
STACK CFI INIT 3111c 44 .cfa: sp 0 +
STACK CFI 31120 .cfa: sp 32 +
STACK CFI 31128 .cfa: x29 32 + x19: .cfa -16 + ^ .ra: .cfa -24 + ^ x29: .cfa -32 + ^
STACK CFI 31144 .cfa: sp 32 +
STACK CFI 3114c .cfa: sp 0 +
STACK CFI 31150 .cfa: x29 32 +
STACK CFI 31154 .cfa: sp 32 +
STACK CFI 3115c .cfa: sp 0 +
STACK CFI INIT 31160 40 .cfa: sp 0 +
STACK CFI 31164 .cfa: sp 32 +
STACK CFI 3116c .cfa: x29 32 + x19: .cfa -16 + ^ .ra: .cfa -24 + ^ x29: .cfa -32 + ^
STACK CFI 31194 .cfa: sp 32 +
STACK CFI 3119c .cfa: sp 0 +
STACK CFI INIT 313b0 1c .cfa: sp 0 +
STACK CFI INIT 313cc c .cfa: sp 0 +
STACK CFI INIT 33dd0 160 .cfa: sp 0 +
STACK CFI 33dd4 .cfa: sp 32 +
STACK CFI 33ddc .cfa: x29 32 + x19: .cfa -16 + ^ .ra: .cfa -24 + ^ x29: .cfa -32 + ^
STACK CFI 33e70 .cfa: sp 32 +
STACK CFI 33e78 .cfa: sp 0 +
STACK CFI 33e7c .cfa: x29 32 +
STACK CFI 33ec8 .cfa: sp 32 +
STACK CFI 33ed0 .cfa: sp 0 +
STACK CFI 33ed4 .cfa: x29 32 +
STACK CFI 33ed8 .cfa: sp 32 +
STACK CFI 33ee0 .cfa: sp 0 +
STACK CFI 33ee4 .cfa: x29 32 +
STACK CFI 33f24 .cfa: sp 32 +
STACK CFI 33f2c .cfa: sp 0 +
STACK CFI INIT 33f30 8 .cfa: sp 0 +
STACK CFI INIT 33f38 1c .cfa: sp 0 +
STACK CFI 33f3c .cfa: sp 16 +
STACK CFI 33f40 .cfa: x29 16 + .ra: .cfa -8 + ^ x29: .cfa -16 + ^
STACK CFI 33f4c .cfa: sp 16 +
STACK CFI 33f50 .cfa: sp 0 +
STACK CFI INIT 33f54 1c .cfa: sp 0 +
STACK CFI 33f58 .cfa: sp 16 +
STACK CFI 33f5c .cfa: x29 16 + .ra: .cfa -8 + ^ x29: .cfa -16 + ^
STACK CFI 33f68 .cfa: sp 16 +
STACK CFI 33f6c .cfa: sp 0 +
STACK CFI INIT 33f70 78 .cfa: sp 0 +
STACK CFI 33f74 .cfa: sp 32 +
STACK CFI 33f7c .cfa: x29 32 + x19: .cfa -16 + ^ .ra: .cfa -24 + ^ x29: .cfa -32 + ^
STACK CFI 33fdc .cfa: sp 32 +
STACK CFI 33fe4 .cfa: sp 0 +
STACK CFI INIT 33fe8 7c .cfa: sp 0 +
STACK CFI 33fec .cfa: sp 32 +
STACK CFI 33ff4 .cfa: x29 32 + x19: .cfa -8 + ^ x20: .cfa -16 + ^ .ra: .cfa -24 + ^ x29: .cfa -32 + ^
STACK CFI 34058 .cfa: sp 32 +
STACK CFI 34060 .cfa: sp 0 +
STACK CFI INIT 34268 8 .cfa: sp 0 +
STACK CFI INIT 34270 24 .cfa: sp 0 +
STACK CFI 34274 .cfa: sp 32 +
STACK CFI 3427c .cfa: x29 32 + x19: .cfa -16 + ^ .ra: .cfa -24 + ^ x29: .cfa -32 + ^
STACK CFI 34288 .cfa: sp 32 +
STACK CFI 34290 .cfa: sp 0 +
STACK CFI INIT 34294 28 .cfa: sp 0 +
STACK CFI 34298 .cfa: sp 32 +
STACK CFI 342a0 .cfa: x29 32 + x19: .cfa -16 + ^ .ra: .cfa -24 + ^ x29: .cfa -32 + ^
STACK CFI 342b0 .cfa: sp 32 +
STACK CFI 342b8 .cfa: sp 0 +
STACK CFI INIT 342bc a8 .cfa: sp 0 +
STACK CFI 342c0 .cfa: sp 48 +
STACK CFI 342cc .cfa: x29 48 + x19: .cfa -8 + ^ x20: .cfa -16 + ^ x21: .cfa -24 + ^ x22: .cfa -32 + ^ .ra: .cfa -40 + ^ x29: .cfa -48 + ^
STACK CFI 342d4 .cfa: sp 48 +
STACK CFI 342e0 .cfa: sp 0 +
STACK CFI 342e4 .cfa: x29 48 +
STACK CFI 34308 .cfa: sp 48 +
STACK CFI 34314 .cfa: sp 0 +
STACK CFI 34318 .cfa: x29 48 +
STACK CFI 34354 .cfa: sp 48 +
STACK CFI 34360 .cfa: sp 0 +
STACK CFI INIT 34364 14 .cfa: sp 0 +
STACK CFI 34368 .cfa: sp 16 +
STACK CFI 3436c .cfa: x29 16 + .ra: .cfa -8 + ^ x29: .cfa -16 + ^
STACK CFI INIT 34378 64 .cfa: sp 0 +
STACK CFI 34388 .cfa: sp 32 +
STACK CFI 34390 .cfa: x29 32 + x19: .cfa -8 + ^ x20: .cfa -16 + ^ .ra: .cfa -24 + ^ x29: .cfa -32 + ^
STACK CFI 343d0 .cfa: sp 32 +
STACK CFI 343d8 .cfa: sp 0 +
STACK CFI INIT 343dc 4 .cfa: sp 0 +
STACK CFI INIT 343e0 34 .cfa: sp 0 +
STACK CFI 343e4 .cfa: sp 32 +
STACK CFI 343ec .cfa: x29 32 + x19: .cfa -16 + ^ .ra: .cfa -24 + ^ x29: .cfa -32 + ^
STACK CFI 34408 .cfa: sp 32 +
STACK CFI 34410 .cfa: sp 0 +
STACK CFI INIT 34414 14 .cfa: sp 0 +
STACK CFI INIT 34428 4 .cfa: sp 0 +
STACK CFI INIT 3442c 4 .cfa: sp 0 +
STACK CFI INIT 34430 1c .cfa: sp 0 +
STACK CFI 34434 .cfa: sp 16 +
STACK CFI 34438 .cfa: x29 16 + .ra: .cfa -8 + ^ x29: .cfa -16 + ^
STACK CFI 34444 .cfa: sp 16 +
STACK CFI 34448 .cfa: sp 0 +
STACK CFI INIT 3444c 1c .cfa: sp 0 +
STACK CFI INIT 34468 c .cfa: sp 0 +
STACK CFI INIT 34474 4 .cfa: sp 0 +
STACK CFI INIT 34478 34 .cfa: sp 0 +
STACK CFI 3447c .cfa: sp 32 +
STACK CFI 34484 .cfa: x29 32 + x19: .cfa -16 + ^ .ra: .cfa -24 + ^ x29: .cfa -32 + ^
STACK CFI 344a0 .cfa: sp 32 +
STACK CFI 344a8 .cfa: sp 0 +
STACK CFI INIT 344ac 14 .cfa: sp 0 +
STACK CFI INIT 344c0 4 .cfa: sp 0 +
STACK CFI INIT 344c4 4 .cfa: sp 0 +
STACK CFI INIT 344c8 94 .cfa: sp 0 +
STACK CFI 344cc .cfa: sp 32 +
STACK CFI 344d4 .cfa: x29 32 + x19: .cfa -16 + ^ .ra: .cfa -24 + ^ x29: .cfa -32 + ^
STACK CFI 34550 .cfa: sp 32 +
STACK CFI 34558 .cfa: sp 0 +
STACK CFI INIT 3455c 1c .cfa: sp 0 +
STACK CFI INIT 34578 c .cfa: sp 0 +
STACK CFI INIT 34584 4 .cfa: sp 0 +
STACK CFI INIT 34588 34 .cfa: sp 0 +
STACK CFI 3458c .cfa: sp 32 +
STACK CFI 34594 .cfa: x29 32 + x19: .cfa -16 + ^ .ra: .cfa -24 + ^ x29: .cfa -32 + ^
STACK CFI 345b0 .cfa: sp 32 +
STACK CFI 345b8 .cfa: sp 0 +
STACK CFI INIT 345bc 14 .cfa: sp 0 +
STACK CFI INIT 345d0 4 .cfa: sp 0 +
STACK CFI INIT 345d4 4 .cfa: sp 0 +
STACK CFI INIT 345d8 94 .cfa: sp 0 +
STACK CFI 345dc .cfa: sp 32 +
STACK CFI 345e4 .cfa: x29 32 + x19: .cfa -16 + ^ .ra: .cfa -24 + ^ x29: .cfa -32 + ^
STACK CFI 34660 .cfa: sp 32 +
STACK CFI 34668 .cfa: sp 0 +
STACK CFI INIT 3466c 1c .cfa: sp 0 +
STACK CFI INIT 34688 c .cfa: sp 0 +
STACK CFI INIT 34694 4 .cfa: sp 0 +
STACK CFI INIT 34698 34 .cfa: sp 0 +
STACK CFI 3469c .cfa: sp 32 +
STACK CFI 346a4 .cfa: x29 32 + x19: .cfa -16 + ^ .ra: .cfa -24 + ^ x29: .cfa -32 + ^
STACK CFI 346c0 .cfa: sp 32 +
STACK CFI 346c8 .cfa: sp 0 +
STACK CFI INIT 346cc 14 .cfa: sp 0 +
STACK CFI INIT 346e0 4 .cfa: sp 0 +
STACK CFI INIT 346e4 4 .cfa: sp 0 +
STACK CFI INIT 34850 1c .cfa: sp 0 +
STACK CFI INIT 3486c c .cfa: sp 0 +
STACK CFI INIT 34878 4 .cfa: sp 0 +
STACK CFI INIT 3487c 34 .cfa: sp 0 +
STACK CFI 34880 .cfa: sp 32 +
STACK CFI 34888 .cfa: x29 32 + x19: .cfa -16 + ^ .ra: .cfa -24 + ^ x29: .cfa -32 + ^
STACK CFI 348a4 .cfa: sp 32 +
STACK CFI 348ac .cfa: sp 0 +
STACK CFI INIT 348b0 14 .cfa: sp 0 +
STACK CFI INIT 348c4 4 .cfa: sp 0 +
STACK CFI INIT 348c8 4 .cfa: sp 0 +
STACK CFI INIT 348cc c .cfa: sp 0 +
STACK CFI INIT 348d8 1c .cfa: sp 0 +
STACK CFI INIT 348f4 c .cfa: sp 0 +
STACK CFI INIT 34900 4 .cfa: sp 0 +
STACK CFI INIT 34904 34 .cfa: sp 0 +
STACK CFI 34908 .cfa: sp 32 +
STACK CFI 34910 .cfa: x29 32 + x19: .cfa -16 + ^ .ra: .cfa -24 + ^ x29: .cfa -32 + ^
STACK CFI 3492c .cfa: sp 32 +
STACK CFI 34934 .cfa: sp 0 +
STACK CFI INIT 34938 14 .cfa: sp 0 +
STACK CFI INIT 3494c 4 .cfa: sp 0 +
STACK CFI INIT 34950 4 .cfa: sp 0 +
STACK CFI INIT 34a90 1c .cfa: sp 0 +
STACK CFI INIT 34aac c .cfa: sp 0 +
STACK CFI INIT 34ab8 4 .cfa: sp 0 +
STACK CFI INIT 34abc 34 .cfa: sp 0 +
STACK CFI 34ac0 .cfa: sp 32 +
STACK CFI 34ac8 .cfa: x29 32 + x19: .cfa -16 + ^ .ra: .cfa -24 + ^ x29: .cfa -32 + ^
STACK CFI 34ae4 .cfa: sp 32 +
STACK CFI 34aec .cfa: sp 0 +
STACK CFI INIT 34af0 14 .cfa: sp 0 +
STACK CFI INIT 34b04 4 .cfa: sp 0 +
STACK CFI INIT 34b08 4 .cfa: sp 0 +
STACK CFI INIT 34cc8 1c .cfa: sp 0 +
STACK CFI INIT 34ce4 c .cfa: sp 0 +
STACK CFI INIT 34cf0 4 .cfa: sp 0 +
STACK CFI INIT 34cf4 34 .cfa: sp 0 +
STACK CFI 34cf8 .cfa: sp 32 +
STACK CFI 34d00 .cfa: x29 32 + x19: .cfa -16 + ^ .ra: .cfa -24 + ^ x29: .cfa -32 + ^
STACK CFI 34d1c .cfa: sp 32 +
STACK CFI 34d24 .cfa: sp 0 +
STACK CFI INIT 34d28 14 .cfa: sp 0 +
STACK CFI INIT 34d3c 4 .cfa: sp 0 +
STACK CFI INIT 34d40 4 .cfa: sp 0 +
STACK CFI INIT 34d44 98 .cfa: sp 0 +
STACK CFI 34d48 .cfa: sp 32 +
STACK CFI 34d50 .cfa: x29 32 + x19: .cfa -16 + ^ .ra: .cfa -24 + ^ x29: .cfa -32 + ^
STACK CFI 34dd0 .cfa: sp 32 +
STACK CFI 34dd8 .cfa: sp 0 +
STACK CFI INIT 34ddc 1c .cfa: sp 0 +
STACK CFI INIT 34df8 c .cfa: sp 0 +
STACK CFI INIT 34e04 4 .cfa: sp 0 +
STACK CFI INIT 34e08 34 .cfa: sp 0 +
STACK CFI 34e0c .cfa: sp 32 +
STACK CFI 34e14 .cfa: x29 32 + x19: .cfa -16 + ^ .ra: .cfa -24 + ^ x29: .cfa -32 + ^
STACK CFI 34e30 .cfa: sp 32 +
STACK CFI 34e38 .cfa: sp 0 +
STACK CFI INIT 34e3c 14 .cfa: sp 0 +
STACK CFI INIT 34e50 4 .cfa: sp 0 +
STACK CFI INIT 34e54 4 .cfa: sp 0 +
STACK CFI INIT 34e58 30 .cfa: sp 0 +
STACK CFI 34e5c .cfa: sp 32 +
STACK CFI 34e64 .cfa: x29 32 + x19: .cfa -16 + ^ .ra: .cfa -24 + ^ x29: .cfa -32 + ^
STACK CFI 34e7c .cfa: sp 32 +
STACK CFI 34e84 .cfa: sp 0 +
STACK CFI INIT 34e88 1c .cfa: sp 0 +
STACK CFI INIT 34ea4 c .cfa: sp 0 +
STACK CFI INIT 34eb0 4 .cfa: sp 0 +
STACK CFI INIT 34eb4 34 .cfa: sp 0 +
STACK CFI 34eb8 .cfa: sp 32 +
STACK CFI 34ec0 .cfa: x29 32 + x19: .cfa -16 + ^ .ra: .cfa -24 + ^ x29: .cfa -32 + ^
STACK CFI 34edc .cfa: sp 32 +
STACK CFI 34ee4 .cfa: sp 0 +
STACK CFI INIT 34ee8 14 .cfa: sp 0 +
STACK CFI INIT 34efc 4 .cfa: sp 0 +
STACK CFI INIT 34f00 4 .cfa: sp 0 +
STACK CFI INIT 34f90 1c .cfa: sp 0 +
STACK CFI INIT 34fac c .cfa: sp 0 +
STACK CFI INIT 34fb8 4 .cfa: sp 0 +
STACK CFI INIT 34fbc 34 .cfa: sp 0 +
STACK CFI 34fc0 .cfa: sp 32 +
STACK CFI 34fc8 .cfa: x29 32 + x19: .cfa -16 + ^ .ra: .cfa -24 + ^ x29: .cfa -32 + ^
STACK CFI 34fe4 .cfa: sp 32 +
STACK CFI 34fec .cfa: sp 0 +
STACK CFI INIT 34ff0 14 .cfa: sp 0 +
STACK CFI INIT 35004 4 .cfa: sp 0 +
STACK CFI INIT 35008 4 .cfa: sp 0 +
STACK CFI INIT 3522c 1c .cfa: sp 0 +
STACK CFI INIT 35248 c .cfa: sp 0 +
STACK CFI INIT 35254 4 .cfa: sp 0 +
STACK CFI INIT 35258 34 .cfa: sp 0 +
STACK CFI 3525c .cfa: sp 32 +
STACK CFI 35264 .cfa: x29 32 + x19: .cfa -16 + ^ .ra: .cfa -24 + ^ x29: .cfa -32 + ^
STACK CFI 35280 .cfa: sp 32 +
STACK CFI 35288 .cfa: sp 0 +
STACK CFI INIT 3528c 14 .cfa: sp 0 +
STACK CFI INIT 352a0 4 .cfa: sp 0 +
STACK CFI INIT 352a4 4 .cfa: sp 0 +
STACK CFI INIT 352a8 8 .cfa: sp 0 +
STACK CFI INIT 352b0 1c .cfa: sp 0 +
STACK CFI INIT 352cc c .cfa: sp 0 +
STACK CFI INIT 352d8 4 .cfa: sp 0 +
STACK CFI INIT 352dc 34 .cfa: sp 0 +
STACK CFI 352e0 .cfa: sp 32 +
STACK CFI 352e8 .cfa: x29 32 + x19: .cfa -16 + ^ .ra: .cfa -24 + ^ x29: .cfa -32 + ^
STACK CFI 35304 .cfa: sp 32 +
STACK CFI 3530c .cfa: sp 0 +
STACK CFI INIT 35310 14 .cfa: sp 0 +
STACK CFI INIT 35324 4 .cfa: sp 0 +
STACK CFI INIT 35328 4 .cfa: sp 0 +
STACK CFI INIT 3532c 8 .cfa: sp 0 +
STACK CFI INIT 35334 1c .cfa: sp 0 +
STACK CFI INIT 35350 c .cfa: sp 0 +
STACK CFI INIT 3535c 4 .cfa: sp 0 +
STACK CFI INIT 35360 34 .cfa: sp 0 +
STACK CFI 35364 .cfa: sp 32 +
STACK CFI 3536c .cfa: x29 32 + x19: .cfa -16 + ^ .ra: .cfa -24 + ^ x29: .cfa -32 + ^
STACK CFI 35388 .cfa: sp 32 +
STACK CFI 35390 .cfa: sp 0 +
STACK CFI INIT 35394 14 .cfa: sp 0 +
STACK CFI INIT 353a8 4 .cfa: sp 0 +
STACK CFI INIT 353ac 4 .cfa: sp 0 +
STACK CFI INIT 353b0 58 .cfa: sp 0 +
STACK CFI INIT 35408 1c .cfa: sp 0 +
STACK CFI INIT 35424 c .cfa: sp 0 +
STACK CFI INIT 35514 7c .cfa: sp 0 +
STACK CFI 35518 .cfa: sp 48 +
STACK CFI 35524 .cfa: x29 48 + x19: .cfa -8 + ^ x20: .cfa -16 + ^ x21: .cfa -24 + ^ x22: .cfa -32 + ^ .ra: .cfa -40 + ^ x29: .cfa -48 + ^
STACK CFI 35570 .cfa: sp 48 +
STACK CFI 3557c .cfa: sp 0 +
STACK CFI 35580 .cfa: sp 48 +
STACK CFI 3558c .cfa: sp 0 +
STACK CFI INIT 35590 4 .cfa: sp 0 +
STACK CFI INIT 35594 34 .cfa: sp 0 +
STACK CFI 35598 .cfa: sp 32 +
STACK CFI 355a0 .cfa: x29 32 + x19: .cfa -16 + ^ .ra: .cfa -24 + ^ x29: .cfa -32 + ^
STACK CFI 355bc .cfa: sp 32 +
STACK CFI 355c4 .cfa: sp 0 +
STACK CFI INIT 355c8 14 .cfa: sp 0 +
STACK CFI INIT 355dc 4 .cfa: sp 0 +
STACK CFI INIT 355e0 4 .cfa: sp 0 +
STACK CFI INIT 355e4 10 .cfa: sp 0 +
STACK CFI INIT 355f4 1c .cfa: sp 0 +
STACK CFI INIT 35610 c .cfa: sp 0 +
STACK CFI INIT 35a9c 1c .cfa: sp 0 +
STACK CFI INIT 35e38 50 .cfa: sp 0 +
STACK CFI 35e3c .cfa: sp 32 +
STACK CFI 35e44 .cfa: x29 32 + x19: .cfa -16 + ^ .ra: .cfa -24 + ^ x29: .cfa -32 + ^
STACK CFI 35e5c .cfa: sp 32 +
STACK CFI 35e64 .cfa: sp 0 +
STACK CFI 35e68 .cfa: x29 32 +
STACK CFI 35e7c .cfa: sp 32 +
STACK CFI 35e84 .cfa: sp 0 +
STACK CFI INIT 35efc 4 .cfa: sp 0 +
STACK CFI INIT 36054 34 .cfa: sp 0 +
STACK CFI 36058 .cfa: sp 16 +
STACK CFI 3605c .cfa: x29 16 + .ra: .cfa -8 + ^ x29: .cfa -16 + ^
STACK CFI INIT 361b4 80 .cfa: sp 0 +
STACK CFI 361b8 .cfa: sp 48 +
STACK CFI 361c4 .cfa: x29 48 + x19: .cfa -8 + ^ x20: .cfa -16 + ^ x21: .cfa -32 + ^ .ra: .cfa -40 + ^ x29: .cfa -48 + ^
STACK CFI 36224 .cfa: sp 48 +
STACK CFI 36230 .cfa: sp 0 +
STACK CFI INIT 36234 24 .cfa: sp 0 +
STACK CFI 36238 .cfa: sp 32 +
STACK CFI 36240 .cfa: x29 32 + x19: .cfa -16 + ^ .ra: .cfa -24 + ^ x29: .cfa -32 + ^
STACK CFI 3624c .cfa: sp 32 +
STACK CFI 36254 .cfa: sp 0 +
STACK CFI INIT 36750 148 .cfa: sp 0 +
STACK CFI 36754 .cfa: sp 48 +
STACK CFI 36760 .cfa: x29 48 + x19: .cfa -8 + ^ x20: .cfa -16 + ^ x21: .cfa -32 + ^ .ra: .cfa -40 + ^ x29: .cfa -48 + ^
STACK CFI 36888 .cfa: sp 48 +
STACK CFI 36894 .cfa: sp 0 +
STACK CFI INIT 36ac0 68 .cfa: sp 0 +
STACK CFI 36ac4 .cfa: sp 32 +
STACK CFI 36acc .cfa: x29 32 + x19: .cfa -8 + ^ x20: .cfa -16 + ^ .ra: .cfa -24 + ^ x29: .cfa -32 + ^
STACK CFI 36ae4 .cfa: sp 32 +
STACK CFI 36aec .cfa: sp 0 +
STACK CFI 36af0 .cfa: x29 32 +
STACK CFI 36b1c .cfa: sp 32 +
STACK CFI 36b24 .cfa: sp 0 +
STACK CFI INIT 36b28 4 .cfa: sp 0 +
STACK CFI INIT 36b2c 14 .cfa: sp 0 +
STACK CFI INIT 36b40 120 .cfa: sp 0 +
STACK CFI 36b44 .cfa: sp 64 +
STACK CFI 36b54 .cfa: x29 64 + x19: .cfa -8 + ^ x20: .cfa -16 + ^ x21: .cfa -24 + ^ x22: .cfa -32 + ^ x23: .cfa -40 + ^ x24: .cfa -48 + ^ .ra: .cfa -56 + ^ x29: .cfa -64 + ^
STACK CFI 36c4c .cfa: sp 64 +
STACK CFI 36c5c .cfa: sp 0 +
STACK CFI INIT 36c60 d4 .cfa: sp 0 +
STACK CFI 36c64 .cfa: sp 48 +
STACK CFI 36c70 .cfa: x29 48 + x19: .cfa -8 + ^ x20: .cfa -16 + ^ x21: .cfa -32 + ^ .ra: .cfa -40 + ^ x29: .cfa -48 + ^
STACK CFI 36d00 .cfa: sp 48 +
STACK CFI 36d0c .cfa: sp 0 +
STACK CFI 36d10 .cfa: x29 48 +
STACK CFI INIT 36d34 3c8 .cfa: sp 0 +
STACK CFI INIT 370fc 8c .cfa: sp 0 +
STACK CFI 37104 .cfa: sp 32 +
STACK CFI 3710c .cfa: x29 32 + x19: .cfa -8 + ^ x20: .cfa -16 + ^ .ra: .cfa -24 + ^ x29: .cfa -32 + ^
STACK CFI 37154 .cfa: sp 32 +
STACK CFI 3715c .cfa: sp 0 +
STACK CFI 37164 .cfa: x29 32 +
STACK CFI INIT 373ac 50 .cfa: sp 0 +
STACK CFI 373b0 .cfa: sp 32 +
STACK CFI 373b8 .cfa: x29 32 + x19: .cfa -16 + ^ .ra: .cfa -24 + ^ x29: .cfa -32 + ^
STACK CFI 373d0 .cfa: sp 32 +
STACK CFI 373d8 .cfa: sp 0 +
STACK CFI 373dc .cfa: x29 32 +
STACK CFI 373f0 .cfa: sp 32 +
STACK CFI 373f8 .cfa: sp 0 +
STACK CFI INIT 373fc 64 .cfa: sp 0 +
STACK CFI 37400 .cfa: sp 32 +
STACK CFI 37408 .cfa: x29 32 + x19: .cfa -16 + ^ .ra: .cfa -24 + ^ x29: .cfa -32 + ^
STACK CFI 37434 .cfa: sp 32 +
STACK CFI 3743c .cfa: sp 0 +
STACK CFI 37440 .cfa: x29 32 +
STACK CFI 37454 .cfa: sp 32 +
STACK CFI 3745c .cfa: sp 0 +
STACK CFI INIT 37520 178 .cfa: sp 0 +
STACK CFI 37524 .cfa: sp 80 +
STACK CFI 37538 .cfa: x29 80 + x19: .cfa -8 + ^ x20: .cfa -16 + ^ x21: .cfa -24 + ^ x22: .cfa -32 + ^ x23: .cfa -40 + ^ x24: .cfa -48 + ^ x25: .cfa -56 + ^ x26: .cfa -64 + ^ .ra: .cfa -72 + ^ x29: .cfa -80 + ^
STACK CFI 37680 .cfa: sp 80 +
STACK CFI 37694 .cfa: sp 0 +
STACK CFI INIT 37698 1b0 .cfa: sp 0 +
STACK CFI INIT 37848 6c .cfa: sp 0 +
STACK CFI 3784c .cfa: sp 16 +
STACK CFI 37850 .cfa: x29 16 + .ra: .cfa -8 + ^ x29: .cfa -16 + ^
STACK CFI 378a4 .cfa: sp 16 +
STACK CFI 378a8 .cfa: sp 0 +
STACK CFI 378ac .cfa: sp 16 +
STACK CFI 378b0 .cfa: sp 0 +
STACK CFI INIT 378b4 8 .cfa: sp 0 +
STACK CFI INIT 382c8 1c .cfa: sp 0 +
STACK CFI INIT 38624 4 .cfa: sp 0 +
STACK CFI INIT 3875c 7c .cfa: sp 0 +
STACK CFI 38760 .cfa: sp 32 +
STACK CFI 38768 .cfa: x29 32 + x19: .cfa -8 + ^ x20: .cfa -16 + ^ .ra: .cfa -24 + ^ x29: .cfa -32 + ^
STACK CFI 387c0 .cfa: sp 32 +
STACK CFI 387c8 .cfa: sp 0 +
STACK CFI 387cc .cfa: sp 32 +
STACK CFI 387d4 .cfa: sp 0 +
STACK CFI INIT 38940 50 .cfa: sp 0 +
STACK CFI 38944 .cfa: sp 32 +
STACK CFI 3894c .cfa: x29 32 + x19: .cfa -16 + ^ .ra: .cfa -24 + ^ x29: .cfa -32 + ^
STACK CFI 38964 .cfa: sp 32 +
STACK CFI 3896c .cfa: sp 0 +
STACK CFI 38970 .cfa: x29 32 +
STACK CFI 38984 .cfa: sp 32 +
STACK CFI 3898c .cfa: sp 0 +
STACK CFI INIT 38990 50 .cfa: sp 0 +
STACK CFI 38994 .cfa: sp 32 +
STACK CFI 3899c .cfa: x29 32 + x19: .cfa -16 + ^ .ra: .cfa -24 + ^ x29: .cfa -32 + ^
STACK CFI 389b4 .cfa: sp 32 +
STACK CFI 389bc .cfa: sp 0 +
STACK CFI 389c0 .cfa: x29 32 +
STACK CFI 389d4 .cfa: sp 32 +
STACK CFI 389dc .cfa: sp 0 +
STACK CFI INIT 389e0 50 .cfa: sp 0 +
STACK CFI 389e4 .cfa: sp 32 +
STACK CFI 389ec .cfa: x29 32 + x19: .cfa -16 + ^ .ra: .cfa -24 + ^ x29: .cfa -32 + ^
STACK CFI 38a04 .cfa: sp 32 +
STACK CFI 38a0c .cfa: sp 0 +
STACK CFI 38a10 .cfa: x29 32 +
STACK CFI 38a24 .cfa: sp 32 +
STACK CFI 38a2c .cfa: sp 0 +
STACK CFI INIT 38a30 4 .cfa: sp 0 +
STACK CFI INIT 38a34 4 .cfa: sp 0 +
STACK CFI INIT 38a38 34 .cfa: sp 0 +
STACK CFI 38a3c .cfa: sp 32 +
STACK CFI 38a44 .cfa: x29 32 + x19: .cfa -16 + ^ .ra: .cfa -24 + ^ x29: .cfa -32 + ^
STACK CFI 38a60 .cfa: sp 32 +
STACK CFI 38a68 .cfa: sp 0 +
STACK CFI INIT 38a6c 14 .cfa: sp 0 +
STACK CFI INIT 38a80 4 .cfa: sp 0 +
STACK CFI INIT 38a84 4 .cfa: sp 0 +
STACK CFI INIT 38cc0 1c .cfa: sp 0 +
STACK CFI INIT 38cdc c .cfa: sp 0 +
STACK CFI INIT 38d5c 4 .cfa: sp 0 +
STACK CFI INIT 38d60 14 .cfa: sp 0 +
STACK CFI INIT 38d74 4 .cfa: sp 0 +
STACK CFI INIT 38eec 9c .cfa: sp 0 +
STACK CFI 38ef0 .cfa: sp 32 +
STACK CFI 38ef8 .cfa: x29 32 + x19: .cfa -8 + ^ x20: .cfa -16 + ^ .ra: .cfa -24 + ^ x29: .cfa -32 + ^
STACK CFI 38f7c .cfa: sp 32 +
STACK CFI 38f84 .cfa: sp 0 +
STACK CFI INIT 38f88 a4 .cfa: sp 0 +
STACK CFI 38f8c .cfa: sp 32 +
STACK CFI 38f94 .cfa: x29 32 + x19: .cfa -8 + ^ x20: .cfa -16 + ^ .ra: .cfa -24 + ^ x29: .cfa -32 + ^
STACK CFI 39020 .cfa: sp 32 +
STACK CFI 39028 .cfa: sp 0 +
STACK CFI INIT 3a240 cc .cfa: sp 0 +
STACK CFI 3a244 .cfa: sp 96 +
STACK CFI 3a250 .cfa: x29 32 + x19: .cfa -8 + ^ x20: .cfa -16 + ^ .ra: .cfa -24 + ^ x29: .cfa -32 + ^
STACK CFI 3a2f8 .cfa: sp 96 +
STACK CFI 3a304 .cfa: sp 0 +
STACK CFI 3a308 .cfa: x29 32 +
STACK CFI INIT 3a30c 90 .cfa: sp 0 +
STACK CFI 3a310 .cfa: sp 48 +
STACK CFI 3a31c .cfa: x29 48 + x19: .cfa -8 + ^ x20: .cfa -16 + ^ x21: .cfa -24 + ^ x22: .cfa -32 + ^ .ra: .cfa -40 + ^ x29: .cfa -48 + ^
STACK CFI 3a35c .cfa: sp 48 +
STACK CFI 3a368 .cfa: sp 0 +
STACK CFI 3a36c .cfa: x29 48 +
STACK CFI 3a38c .cfa: sp 48 +
STACK CFI 3a398 .cfa: sp 0 +
STACK CFI INIT 3a39c 124 .cfa: sp 0 +
STACK CFI 3a3a0 .cfa: sp 48 +
STACK CFI 3a3ac .cfa: x29 48 + x19: .cfa -8 + ^ x20: .cfa -16 + ^ x21: .cfa -24 + ^ x22: .cfa -32 + ^ .ra: .cfa -40 + ^ x29: .cfa -48 + ^
STACK CFI 3a4b0 .cfa: sp 48 +
STACK CFI 3a4bc .cfa: sp 0 +
STACK CFI INIT 3a4c0 14 .cfa: sp 0 +
STACK CFI 3a4c4 .cfa: sp 16 +
STACK CFI 3a4c8 .cfa: x29 16 + .ra: .cfa -8 + ^ x29: .cfa -16 + ^
STACK CFI INIT 3a4d4 14 .cfa: sp 0 +
STACK CFI 3a4d8 .cfa: sp 16 +
STACK CFI 3a4dc .cfa: x29 16 + .ra: .cfa -8 + ^ x29: .cfa -16 + ^
STACK CFI INIT 3a4e8 14 .cfa: sp 0 +
STACK CFI 3a4ec .cfa: sp 16 +
STACK CFI 3a4f0 .cfa: x29 16 + .ra: .cfa -8 + ^ x29: .cfa -16 + ^
STACK CFI INIT 3a4fc 14 .cfa: sp 0 +
STACK CFI 3a500 .cfa: sp 16 +
STACK CFI 3a504 .cfa: x29 16 + .ra: .cfa -8 + ^ x29: .cfa -16 + ^
STACK CFI INIT 3a510 4 .cfa: sp 0 +
STACK CFI INIT 3a514 4 .cfa: sp 0 +
STACK CFI INIT 3a518 38 .cfa: sp 0 +
STACK CFI 3a51c .cfa: sp 32 +
STACK CFI 3a524 .cfa: x29 32 + x19: .cfa -16 + ^ .ra: .cfa -24 + ^ x29: .cfa -32 + ^
STACK CFI 3a544 .cfa: sp 32 +
STACK CFI 3a54c .cfa: sp 0 +
STACK CFI INIT 3a550 18 .cfa: sp 0 +
STACK CFI INIT 3a568 4 .cfa: sp 0 +
STACK CFI INIT 3a56c 4 .cfa: sp 0 +
STACK CFI INIT 3a570 10 .cfa: sp 0 +
STACK CFI INIT 3a580 1c .cfa: sp 0 +
STACK CFI INIT 3a59c c .cfa: sp 0 +
STACK CFI INIT 3a740 4 .cfa: sp 0 +
STACK CFI INIT 3a744 4 .cfa: sp 0 +
STACK CFI INIT 3a748 40 .cfa: sp 0 +
STACK CFI 3a74c .cfa: sp 32 +
STACK CFI 3a754 .cfa: x29 32 + x19: .cfa -16 + ^ .ra: .cfa -24 + ^ x29: .cfa -32 + ^
STACK CFI 3a77c .cfa: sp 32 +
STACK CFI 3a784 .cfa: sp 0 +
STACK CFI INIT 3a788 20 .cfa: sp 0 +
STACK CFI INIT 3a7a8 4 .cfa: sp 0 +
STACK CFI INIT 3a7ac 4 .cfa: sp 0 +
STACK CFI INIT 3adb0 1c .cfa: sp 0 +
STACK CFI INIT 3adcc c .cfa: sp 0 +
STACK CFI INIT 3aec0 70 .cfa: sp 0 +
STACK CFI 3aec4 .cfa: sp 32 +
STACK CFI 3aecc .cfa: x29 32 + x19: .cfa -16 + ^ .ra: .cfa -24 + ^ x29: .cfa -32 + ^
STACK CFI 3af0c .cfa: sp 32 +
STACK CFI 3af14 .cfa: sp 0 +
STACK CFI 3af18 .cfa: x29 32 +
STACK CFI 3af24 .cfa: sp 32 +
STACK CFI 3af2c .cfa: sp 0 +
STACK CFI INIT 3b088 8 .cfa: sp 0 +
STACK CFI INIT 3b090 14 .cfa: sp 0 +
STACK CFI INIT 3b0a4 4 .cfa: sp 0 +
STACK CFI INIT 3b0a8 14 .cfa: sp 0 +
STACK CFI INIT 3b0bc 190 .cfa: sp 0 +
STACK CFI 3b0c0 .cfa: sp 64 +
STACK CFI 3b0d0 .cfa: x29 64 + x19: .cfa -8 + ^ x20: .cfa -16 + ^ x21: .cfa -24 + ^ x22: .cfa -32 + ^ x23: .cfa -48 + ^ .ra: .cfa -56 + ^ x29: .cfa -64 + ^
STACK CFI 3b22c .cfa: sp 64 +
STACK CFI 3b23c .cfa: sp 0 +
STACK CFI 3b240 .cfa: x29 64 +
STACK CFI INIT 3b24c 20 .cfa: sp 0 +
STACK CFI INIT 3b26c 40 .cfa: sp 0 +
STACK CFI 3b284 .cfa: sp 32 +
STACK CFI 3b28c .cfa: x29 32 + x19: .cfa -16 + ^ .ra: .cfa -24 + ^ x29: .cfa -32 + ^
STACK CFI 3b2a0 .cfa: sp 32 +
STACK CFI 3b2a8 .cfa: sp 0 +
STACK CFI INIT 3b34c 80 .cfa: sp 0 +
STACK CFI 3b350 .cfa: sp 32 +
STACK CFI 3b358 .cfa: x29 32 + x19: .cfa -8 + ^ x20: .cfa -16 + ^ .ra: .cfa -24 + ^ x29: .cfa -32 + ^
STACK CFI 3b3a0 .cfa: sp 32 +
STACK CFI 3b3a8 .cfa: sp 0 +
STACK CFI 3b3ac .cfa: x29 32 +
STACK CFI 3b3c0 .cfa: sp 32 +
STACK CFI 3b3c8 .cfa: sp 0 +
STACK CFI INIT 3b3cc 14 .cfa: sp 0 +
STACK CFI INIT 3b3e0 34 .cfa: sp 0 +
STACK CFI 3b3ec .cfa: sp 32 +
STACK CFI 3b3f4 .cfa: x29 32 + x19: .cfa -16 + ^ .ra: .cfa -24 + ^ x29: .cfa -32 + ^
STACK CFI 3b408 .cfa: sp 32 +
STACK CFI 3b410 .cfa: sp 0 +
STACK CFI INIT 3b890 1c .cfa: sp 0 +
STACK CFI INIT 3b8ac c .cfa: sp 0 +
STACK CFI INIT 3b8b8 3c .cfa: sp 0 +
STACK CFI 3b8c0 .cfa: sp 32 +
STACK CFI 3b8c8 .cfa: x29 32 + x19: .cfa -16 + ^ .ra: .cfa -24 + ^ x29: .cfa -32 + ^
STACK CFI 3b8e4 .cfa: sp 32 +
STACK CFI 3b8ec .cfa: sp 0 +
STACK CFI INIT 3bd74 1c .cfa: sp 0 +
STACK CFI INIT 3c0f0 4 .cfa: sp 0 +
STACK CFI INIT 3cbf0 98 .cfa: sp 0 +
STACK CFI 3cbf4 .cfa: sp 32 +
STACK CFI 3cbfc .cfa: x29 32 + x19: .cfa -16 + ^ .ra: .cfa -24 + ^ x29: .cfa -32 + ^
STACK CFI 3cc54 .cfa: sp 32 +
STACK CFI 3cc5c .cfa: sp 0 +
STACK CFI 3cc60 .cfa: x29 32 +
STACK CFI 3cc70 .cfa: sp 32 +
STACK CFI 3cc78 .cfa: sp 0 +
STACK CFI 3cc7c .cfa: sp 32 +
STACK CFI 3cc84 .cfa: sp 0 +
STACK CFI INIT 3d1c4 98 .cfa: sp 0 +
STACK CFI 3d1c8 .cfa: sp 32 +
STACK CFI 3d1d0 .cfa: x29 32 + x19: .cfa -16 + ^ .ra: .cfa -24 + ^ x29: .cfa -32 + ^
STACK CFI 3d228 .cfa: sp 32 +
STACK CFI 3d230 .cfa: sp 0 +
STACK CFI 3d234 .cfa: x29 32 +
STACK CFI 3d244 .cfa: sp 32 +
STACK CFI 3d24c .cfa: sp 0 +
STACK CFI 3d250 .cfa: sp 32 +
STACK CFI 3d258 .cfa: sp 0 +
STACK CFI INIT 3d798 98 .cfa: sp 0 +
STACK CFI 3d79c .cfa: sp 32 +
STACK CFI 3d7a4 .cfa: x29 32 + x19: .cfa -16 + ^ .ra: .cfa -24 + ^ x29: .cfa -32 + ^
STACK CFI 3d7fc .cfa: sp 32 +
STACK CFI 3d804 .cfa: sp 0 +
STACK CFI 3d808 .cfa: x29 32 +
STACK CFI 3d818 .cfa: sp 32 +
STACK CFI 3d820 .cfa: sp 0 +
STACK CFI 3d824 .cfa: sp 32 +
STACK CFI 3d82c .cfa: sp 0 +
STACK CFI INIT 3d830 44 .cfa: sp 0 +
STACK CFI 3d834 .cfa: sp 32 +
STACK CFI 3d83c .cfa: x29 32 + x19: .cfa -16 + ^ .ra: .cfa -24 + ^ x29: .cfa -32 + ^
STACK CFI 3d858 .cfa: sp 32 +
STACK CFI 3d860 .cfa: sp 0 +
STACK CFI 3d864 .cfa: x29 32 +
STACK CFI 3d868 .cfa: sp 32 +
STACK CFI 3d870 .cfa: sp 0 +
STACK CFI INIT 3d874 4c .cfa: sp 0 +
STACK CFI INIT 3d8c0 5c .cfa: sp 0 +
STACK CFI 3d8c4 .cfa: sp 32 +
STACK CFI 3d8cc .cfa: x29 32 + x19: .cfa -16 + ^ .ra: .cfa -24 + ^ x29: .cfa -32 + ^
STACK CFI 3d910 .cfa: sp 32 +
STACK CFI 3d918 .cfa: sp 0 +
STACK CFI INIT 3d9b0 7c .cfa: sp 0 +
STACK CFI 3d9b4 .cfa: sp 32 +
STACK CFI 3d9bc .cfa: x29 32 + x19: .cfa -16 + ^ .ra: .cfa -24 + ^ x29: .cfa -32 + ^
STACK CFI 3d9f4 .cfa: sp 32 +
STACK CFI 3d9fc .cfa: sp 0 +
STACK CFI 3da00 .cfa: x29 32 +
STACK CFI 3da04 .cfa: sp 32 +
STACK CFI 3da0c .cfa: sp 0 +
STACK CFI 3da10 .cfa: x29 32 +
STACK CFI 3da20 .cfa: sp 32 +
STACK CFI 3da28 .cfa: sp 0 +
STACK CFI INIT 3da2c 40 .cfa: sp 0 +
STACK CFI INIT 3da6c 50 .cfa: sp 0 +
STACK CFI 3da70 .cfa: sp 32 +
STACK CFI 3da78 .cfa: x29 32 + x19: .cfa -16 + ^ .ra: .cfa -24 + ^ x29: .cfa -32 + ^
STACK CFI 3dab0 .cfa: sp 32 +
STACK CFI 3dab8 .cfa: sp 0 +
STACK CFI INIT 3dabc b4 .cfa: sp 0 +
STACK CFI 3dac0 .cfa: sp 64 +
STACK CFI 3dad0 .cfa: x29 48 + x19: .cfa -8 + ^ x20: .cfa -16 + ^ x21: .cfa -24 + ^ x22: .cfa -32 + ^ .ra: .cfa -40 + ^ x29: .cfa -48 + ^
STACK CFI 3db44 .cfa: sp 64 +
STACK CFI 3db54 .cfa: sp 0 +
STACK CFI 3db58 .cfa: x29 48 +
STACK CFI INIT 3db70 1c .cfa: sp 0 +
STACK CFI INIT 3db8c c .cfa: sp 0 +
STACK CFI INIT 3db98 a0 .cfa: sp 0 +
STACK CFI 3db9c .cfa: sp 32 +
STACK CFI 3dba4 .cfa: x29 32 + x19: .cfa -8 + ^ x20: .cfa -16 + ^ .ra: .cfa -24 + ^ x29: .cfa -32 + ^
STACK CFI 3dc04 .cfa: sp 32 +
STACK CFI 3dc0c .cfa: sp 0 +
STACK CFI 3dc10 .cfa: x29 32 +
STACK CFI 3dc20 .cfa: sp 32 +
STACK CFI 3dc28 .cfa: sp 0 +
STACK CFI 3dc2c .cfa: sp 32 +
STACK CFI 3dc34 .cfa: sp 0 +
STACK CFI INIT 3dc38 8c .cfa: sp 0 +
STACK CFI 3dc3c .cfa: sp 32 +
STACK CFI 3dc44 .cfa: x29 32 + x19: .cfa -8 + ^ x20: .cfa -16 + ^ .ra: .cfa -24 + ^ x29: .cfa -32 + ^
STACK CFI 3dcb8 .cfa: sp 32 +
STACK CFI 3dcc0 .cfa: sp 0 +
STACK CFI INIT 3df00 94 .cfa: sp 0 +
STACK CFI 3df04 .cfa: sp 32 +
STACK CFI 3df0c .cfa: x29 32 + x19: .cfa -8 + ^ x20: .cfa -16 + ^ .ra: .cfa -24 + ^ x29: .cfa -32 + ^
STACK CFI 3df60 .cfa: sp 32 +
STACK CFI 3df68 .cfa: sp 0 +
STACK CFI 3df6c .cfa: x29 32 +
STACK CFI 3df7c .cfa: sp 32 +
STACK CFI 3df84 .cfa: sp 0 +
STACK CFI 3df88 .cfa: sp 32 +
STACK CFI 3df90 .cfa: sp 0 +
STACK CFI INIT 3df94 80 .cfa: sp 0 +
STACK CFI 3df98 .cfa: sp 32 +
STACK CFI 3dfa0 .cfa: x29 32 + x19: .cfa -8 + ^ x20: .cfa -16 + ^ .ra: .cfa -24 + ^ x29: .cfa -32 + ^
STACK CFI 3e008 .cfa: sp 32 +
STACK CFI 3e010 .cfa: sp 0 +
STACK CFI INIT 3e930 1c .cfa: sp 0 +
STACK CFI INIT 3e94c c .cfa: sp 0 +
STACK CFI INIT 3e958 68 .cfa: sp 0 +
STACK CFI 3e95c .cfa: sp 48 +
STACK CFI 3e968 .cfa: x29 48 + x19: .cfa -8 + ^ x20: .cfa -16 + ^ x21: .cfa -32 + ^ .ra: .cfa -40 + ^ x29: .cfa -48 + ^
STACK CFI 3e9a0 .cfa: sp 48 +
STACK CFI 3e9ac .cfa: sp 0 +
STACK CFI 3e9b0 .cfa: sp 48 +
STACK CFI 3e9bc .cfa: sp 0 +
STACK CFI INIT 3eaa8 14 .cfa: sp 0 +
STACK CFI INIT 3eabc 14 .cfa: sp 0 +
STACK CFI INIT 3eb44 4 .cfa: sp 0 +
STACK CFI INIT 3eb48 14 .cfa: sp 0 +
STACK CFI INIT 3ecfc 54 .cfa: sp 0 +
STACK CFI 3ed00 .cfa: sp 32 +
STACK CFI 3ed08 .cfa: x29 32 + x19: .cfa -8 + ^ x20: .cfa -16 + ^ .ra: .cfa -24 + ^ x29: .cfa -32 + ^
STACK CFI 3ed38 .cfa: sp 32 +
STACK CFI 3ed40 .cfa: sp 0 +
STACK CFI 3ed44 .cfa: sp 32 +
STACK CFI 3ed4c .cfa: sp 0 +
STACK CFI INIT 3ed50 14 .cfa: sp 0 +
STACK CFI 3ed54 .cfa: sp 16 +
STACK CFI 3ed58 .cfa: x29 16 + .ra: .cfa -8 + ^ x29: .cfa -16 + ^
STACK CFI INIT 3ed64 4 .cfa: sp 0 +
STACK CFI INIT 3ed68 14 .cfa: sp 0 +
STACK CFI INIT 3ed7c 4c .cfa: sp 0 +
STACK CFI INIT 3edc8 5c .cfa: sp 0 +
STACK CFI 3edcc .cfa: sp 32 +
STACK CFI 3edd4 .cfa: x29 32 + x19: .cfa -16 + ^ .ra: .cfa -24 + ^ x29: .cfa -32 + ^
STACK CFI 3ee18 .cfa: sp 32 +
STACK CFI 3ee20 .cfa: sp 0 +
STACK CFI INIT 3eec0 88 .cfa: sp 0 +
STACK CFI 3eec4 .cfa: sp 32 +
STACK CFI 3eecc .cfa: x29 32 + x19: .cfa -16 + ^ .ra: .cfa -24 + ^ x29: .cfa -32 + ^
STACK CFI 3ef0c .cfa: sp 32 +
STACK CFI 3ef14 .cfa: sp 0 +
STACK CFI 3ef18 .cfa: x29 32 +
STACK CFI 3ef1c .cfa: sp 32 +
STACK CFI 3ef24 .cfa: sp 0 +
STACK CFI 3ef28 .cfa: x29 32 +
STACK CFI 3ef3c .cfa: sp 32 +
STACK CFI 3ef44 .cfa: sp 0 +
STACK CFI INIT 3ef48 40 .cfa: sp 0 +
STACK CFI INIT 3ef88 50 .cfa: sp 0 +
STACK CFI 3ef8c .cfa: sp 32 +
STACK CFI 3ef94 .cfa: x29 32 + x19: .cfa -16 + ^ .ra: .cfa -24 + ^ x29: .cfa -32 + ^
STACK CFI 3efcc .cfa: sp 32 +
STACK CFI 3efd4 .cfa: sp 0 +
STACK CFI INIT 3f15c 1c .cfa: sp 0 +
STACK CFI INIT 3f178 c .cfa: sp 0 +
STACK CFI INIT 3f184 a0 .cfa: sp 0 +
STACK CFI 3f188 .cfa: sp 32 +
STACK CFI 3f190 .cfa: x29 32 + x19: .cfa -8 + ^ x20: .cfa -16 + ^ .ra: .cfa -24 + ^ x29: .cfa -32 + ^
STACK CFI 3f1f0 .cfa: sp 32 +
STACK CFI 3f1f8 .cfa: sp 0 +
STACK CFI 3f1fc .cfa: x29 32 +
STACK CFI 3f20c .cfa: sp 32 +
STACK CFI 3f214 .cfa: sp 0 +
STACK CFI 3f218 .cfa: sp 32 +
STACK CFI 3f220 .cfa: sp 0 +
STACK CFI INIT 3f224 8c .cfa: sp 0 +
STACK CFI 3f228 .cfa: sp 32 +
STACK CFI 3f230 .cfa: x29 32 + x19: .cfa -8 + ^ x20: .cfa -16 + ^ .ra: .cfa -24 + ^ x29: .cfa -32 + ^
STACK CFI 3f2a4 .cfa: sp 32 +
STACK CFI 3f2ac .cfa: sp 0 +
STACK CFI INIT 3f4ec 94 .cfa: sp 0 +
STACK CFI 3f4f0 .cfa: sp 32 +
STACK CFI 3f4f8 .cfa: x29 32 + x19: .cfa -8 + ^ x20: .cfa -16 + ^ .ra: .cfa -24 + ^ x29: .cfa -32 + ^
STACK CFI 3f54c .cfa: sp 32 +
STACK CFI 3f554 .cfa: sp 0 +
STACK CFI 3f558 .cfa: x29 32 +
STACK CFI 3f568 .cfa: sp 32 +
STACK CFI 3f570 .cfa: sp 0 +
STACK CFI 3f574 .cfa: sp 32 +
STACK CFI 3f57c .cfa: sp 0 +
STACK CFI INIT 3f580 80 .cfa: sp 0 +
STACK CFI 3f584 .cfa: sp 32 +
STACK CFI 3f58c .cfa: x29 32 + x19: .cfa -8 + ^ x20: .cfa -16 + ^ .ra: .cfa -24 + ^ x29: .cfa -32 + ^
STACK CFI 3f5f4 .cfa: sp 32 +
STACK CFI 3f5fc .cfa: sp 0 +
STACK CFI INIT 40518 1c .cfa: sp 0 +
STACK CFI INIT 40534 c .cfa: sp 0 +
STACK CFI INIT 40628 4 .cfa: sp 0 +
STACK CFI INIT 4062c 14 .cfa: sp 0 +
STACK CFI INIT 40640 4 .cfa: sp 0 +
STACK CFI INIT 40644 14 .cfa: sp 0 +
STACK CFI INIT 40658 1254 .cfa: sp 0 +
STACK CFI 4065c .cfa: sp 256 +
STACK CFI 4067c .cfa: x29 96 + x19: .cfa -8 + ^ x20: .cfa -16 + ^ x21: .cfa -24 + ^ x22: .cfa -32 + ^ x23: .cfa -40 + ^ x24: .cfa -48 + ^ x25: .cfa -56 + ^ x26: .cfa -64 + ^ x27: .cfa -72 + ^ x28: .cfa -80 + ^ .ra: .cfa -88 + ^ x29: .cfa -96 + ^ v8: .cfa -112 + ^
STACK CFI 40e20 .cfa: sp 256 +
STACK CFI 40e40 .cfa: sp 0 +
STACK CFI 40e44 .cfa: x29 96 +
STACK CFI 40e90 .cfa: sp 256 +
STACK CFI 40e94 .cfa: x29 96 +
STACK CFI 4184c .cfa: sp 256 +
STACK CFI 4186c .cfa: sp 0 +
STACK CFI 41870 .cfa: x29 96 +
STACK CFI 41884 .cfa: sp 256 +
STACK CFI 418a4 .cfa: sp 0 +
STACK CFI 418a8 .cfa: x29 96 +
STACK CFI INIT 418ac 13c .cfa: sp 0 +
STACK CFI 418b0 .cfa: sp 144 +
STACK CFI 418cc .cfa: x29 80 + x19: .cfa -8 + ^ x20: .cfa -16 + ^ x21: .cfa -24 + ^ x22: .cfa -32 + ^ x23: .cfa -40 + ^ x24: .cfa -48 + ^ x25: .cfa -56 + ^ x26: .cfa -64 + ^ .ra: .cfa -72 + ^ x29: .cfa -80 + ^ v8: .cfa -96 + ^
STACK CFI 419c4 .cfa: sp 144 +
STACK CFI 419e0 .cfa: sp 0 +
STACK CFI 419e4 .cfa: x29 80 +
STACK CFI INIT 419e8 184 .cfa: sp 0 +
STACK CFI 419ec .cfa: sp 64 +
STACK CFI 419fc .cfa: x29 64 + x19: .cfa -8 + ^ x20: .cfa -16 + ^ x21: .cfa -24 + ^ x22: .cfa -32 + ^ x23: .cfa -48 + ^ .ra: .cfa -56 + ^ x29: .cfa -64 + ^
STACK CFI 41b44 .cfa: sp 64 +
STACK CFI 41b54 .cfa: sp 0 +
STACK CFI 41b58 .cfa: sp 64 +
STACK CFI 41b68 .cfa: sp 0 +
STACK CFI INIT 41b6c 464 .cfa: sp 0 +
STACK CFI 41b70 .cfa: sp 192 +
STACK CFI 41b90 .cfa: x29 96 + x19: .cfa -8 + ^ x20: .cfa -16 + ^ x21: .cfa -24 + ^ x22: .cfa -32 + ^ x23: .cfa -40 + ^ x24: .cfa -48 + ^ x25: .cfa -56 + ^ x26: .cfa -64 + ^ x27: .cfa -72 + ^ x28: .cfa -80 + ^ .ra: .cfa -88 + ^ x29: .cfa -96 + ^ v8: .cfa -112 + ^
STACK CFI 41fa8 .cfa: sp 192 +
STACK CFI 41fc8 .cfa: sp 0 +
STACK CFI 41fcc .cfa: x29 96 +
STACK CFI INIT 41fd0 4c .cfa: sp 0 +
STACK CFI INIT 4201c 5c .cfa: sp 0 +
STACK CFI 42020 .cfa: sp 32 +
STACK CFI 42028 .cfa: x29 32 + x19: .cfa -16 + ^ .ra: .cfa -24 + ^ x29: .cfa -32 + ^
STACK CFI 4206c .cfa: sp 32 +
STACK CFI 42074 .cfa: sp 0 +
STACK CFI INIT 42114 88 .cfa: sp 0 +
STACK CFI 42118 .cfa: sp 32 +
STACK CFI 42120 .cfa: x29 32 + x19: .cfa -16 + ^ .ra: .cfa -24 + ^ x29: .cfa -32 + ^
STACK CFI 42160 .cfa: sp 32 +
STACK CFI 42168 .cfa: sp 0 +
STACK CFI 4216c .cfa: x29 32 +
STACK CFI 42170 .cfa: sp 32 +
STACK CFI 42178 .cfa: sp 0 +
STACK CFI 4217c .cfa: x29 32 +
STACK CFI 42190 .cfa: sp 32 +
STACK CFI 42198 .cfa: sp 0 +
STACK CFI INIT 4219c 40 .cfa: sp 0 +
STACK CFI INIT 421dc 50 .cfa: sp 0 +
STACK CFI 421e0 .cfa: sp 32 +
STACK CFI 421e8 .cfa: x29 32 + x19: .cfa -16 + ^ .ra: .cfa -24 + ^ x29: .cfa -32 + ^
STACK CFI 42220 .cfa: sp 32 +
STACK CFI 42228 .cfa: sp 0 +
STACK CFI INIT 423b0 1c .cfa: sp 0 +
STACK CFI INIT 423cc c .cfa: sp 0 +
STACK CFI INIT 423d8 a0 .cfa: sp 0 +
STACK CFI 423dc .cfa: sp 32 +
STACK CFI 423e4 .cfa: x29 32 + x19: .cfa -8 + ^ x20: .cfa -16 + ^ .ra: .cfa -24 + ^ x29: .cfa -32 + ^
STACK CFI 42444 .cfa: sp 32 +
STACK CFI 4244c .cfa: sp 0 +
STACK CFI 42450 .cfa: x29 32 +
STACK CFI 42460 .cfa: sp 32 +
STACK CFI 42468 .cfa: sp 0 +
STACK CFI 4246c .cfa: sp 32 +
STACK CFI 42474 .cfa: sp 0 +
STACK CFI INIT 42478 8c .cfa: sp 0 +
STACK CFI 4247c .cfa: sp 32 +
STACK CFI 42484 .cfa: x29 32 + x19: .cfa -8 + ^ x20: .cfa -16 + ^ .ra: .cfa -24 + ^ x29: .cfa -32 + ^
STACK CFI 424f8 .cfa: sp 32 +
STACK CFI 42500 .cfa: sp 0 +
STACK CFI INIT 42740 94 .cfa: sp 0 +
STACK CFI 42744 .cfa: sp 32 +
STACK CFI 4274c .cfa: x29 32 + x19: .cfa -8 + ^ x20: .cfa -16 + ^ .ra: .cfa -24 + ^ x29: .cfa -32 + ^
STACK CFI 427a0 .cfa: sp 32 +
STACK CFI 427a8 .cfa: sp 0 +
STACK CFI 427ac .cfa: x29 32 +
STACK CFI 427bc .cfa: sp 32 +
STACK CFI 427c4 .cfa: sp 0 +
STACK CFI 427c8 .cfa: sp 32 +
STACK CFI 427d0 .cfa: sp 0 +
STACK CFI INIT 427d4 80 .cfa: sp 0 +
STACK CFI 427d8 .cfa: sp 32 +
STACK CFI 427e0 .cfa: x29 32 + x19: .cfa -8 + ^ x20: .cfa -16 + ^ .ra: .cfa -24 + ^ x29: .cfa -32 + ^
STACK CFI 42848 .cfa: sp 32 +
STACK CFI 42850 .cfa: sp 0 +
STACK CFI INIT 43064 1c .cfa: sp 0 +
STACK CFI INIT 43080 c .cfa: sp 0 +
STACK CFI INIT 4308c 4c .cfa: sp 0 +
STACK CFI INIT 430d8 5c .cfa: sp 0 +
STACK CFI 430dc .cfa: sp 32 +
STACK CFI 430e4 .cfa: x29 32 + x19: .cfa -16 + ^ .ra: .cfa -24 + ^ x29: .cfa -32 + ^
STACK CFI 43128 .cfa: sp 32 +
STACK CFI 43130 .cfa: sp 0 +
STACK CFI INIT 431d0 88 .cfa: sp 0 +
STACK CFI 431d4 .cfa: sp 32 +
STACK CFI 431dc .cfa: x29 32 + x19: .cfa -16 + ^ .ra: .cfa -24 + ^ x29: .cfa -32 + ^
STACK CFI 4321c .cfa: sp 32 +
STACK CFI 43224 .cfa: sp 0 +
STACK CFI 43228 .cfa: x29 32 +
STACK CFI 4322c .cfa: sp 32 +
STACK CFI 43234 .cfa: sp 0 +
STACK CFI 43238 .cfa: x29 32 +
STACK CFI 4324c .cfa: sp 32 +
STACK CFI 43254 .cfa: sp 0 +
STACK CFI INIT 43258 40 .cfa: sp 0 +
STACK CFI INIT 43298 50 .cfa: sp 0 +
STACK CFI 4329c .cfa: sp 32 +
STACK CFI 432a4 .cfa: x29 32 + x19: .cfa -16 + ^ .ra: .cfa -24 + ^ x29: .cfa -32 + ^
STACK CFI 432dc .cfa: sp 32 +
STACK CFI 432e4 .cfa: sp 0 +
STACK CFI INIT 4346c 1c .cfa: sp 0 +
STACK CFI INIT 43488 c .cfa: sp 0 +
STACK CFI INIT 43494 3c .cfa: sp 0 +
STACK CFI 43498 .cfa: sp 32 +
STACK CFI 434a0 .cfa: x29 32 + x19: .cfa -16 + ^ .ra: .cfa -24 + ^ x29: .cfa -32 + ^
STACK CFI 434ac .cfa: sp 32 +
STACK CFI 434b4 .cfa: sp 0 +
STACK CFI 434b8 .cfa: x29 32 +
STACK CFI 434c4 .cfa: sp 32 +
STACK CFI 434cc .cfa: sp 0 +
STACK CFI INIT 434d0 4c .cfa: sp 0 +
STACK CFI 434d4 .cfa: sp 32 +
STACK CFI 434dc .cfa: x29 32 + x19: .cfa -8 + ^ x20: .cfa -16 + ^ .ra: .cfa -24 + ^ x29: .cfa -32 + ^
STACK CFI 43504 .cfa: sp 32 +
STACK CFI 4350c .cfa: sp 0 +
STACK CFI 43510 .cfa: sp 32 +
STACK CFI 43518 .cfa: sp 0 +
STACK CFI INIT 4373c 64 .cfa: sp 0 +
STACK CFI 43740 .cfa: sp 32 +
STACK CFI 43748 .cfa: x29 32 + x19: .cfa -16 + ^ .ra: .cfa -24 + ^ x29: .cfa -32 + ^
STACK CFI 43774 .cfa: sp 32 +
STACK CFI 4377c .cfa: sp 0 +
STACK CFI 43780 .cfa: x29 32 +
STACK CFI 43794 .cfa: sp 32 +
STACK CFI 4379c .cfa: sp 0 +
STACK CFI INIT 439c4 24 .cfa: sp 0 +
STACK CFI 439c8 .cfa: sp 32 +
STACK CFI 439d0 .cfa: x29 32 + x19: .cfa -16 + ^ .ra: .cfa -24 + ^ x29: .cfa -32 + ^
STACK CFI 439dc .cfa: sp 32 +
STACK CFI 439e4 .cfa: sp 0 +
STACK CFI INIT 439e8 24 .cfa: sp 0 +
STACK CFI 439ec .cfa: sp 32 +
STACK CFI 439f4 .cfa: x29 32 + x19: .cfa -16 + ^ .ra: .cfa -24 + ^ x29: .cfa -32 + ^
STACK CFI 43a00 .cfa: sp 32 +
STACK CFI 43a08 .cfa: sp 0 +
STACK CFI INIT 43c90 8 .cfa: sp 0 +
STACK CFI INIT 43c98 24 .cfa: sp 0 +
STACK CFI 43c9c .cfa: sp 32 +
STACK CFI 43ca4 .cfa: x29 32 + x19: .cfa -16 + ^ .ra: .cfa -24 + ^ x29: .cfa -32 + ^
STACK CFI 43cb0 .cfa: sp 32 +
STACK CFI 43cb8 .cfa: sp 0 +
STACK CFI INIT 43cbc 28 .cfa: sp 0 +
STACK CFI 43cc0 .cfa: sp 32 +
STACK CFI 43cc8 .cfa: x29 32 + x19: .cfa -16 + ^ .ra: .cfa -24 + ^ x29: .cfa -32 + ^
STACK CFI 43cd8 .cfa: sp 32 +
STACK CFI 43ce0 .cfa: sp 0 +
STACK CFI INIT 456ec 4 .cfa: sp 0 +
STACK CFI INIT 456f0 14 .cfa: sp 0 +
STACK CFI INIT 45c10 14 .cfa: sp 0 +
STACK CFI 45c14 .cfa: sp 16 +
STACK CFI 45c18 .cfa: x29 16 + .ra: .cfa -8 + ^ x29: .cfa -16 + ^
STACK CFI INIT 45c24 c .cfa: sp 0 +
STACK CFI INIT 45c30 24c .cfa: sp 0 +
STACK CFI INIT 45e7c a0 .cfa: sp 0 +
STACK CFI 45e88 .cfa: sp 32 +
STACK CFI 45ee0 .cfa: sp 0 +
STACK CFI 45ee4 .cfa: sp 32 +
STACK CFI 45eec .cfa: sp 0 +
STACK CFI 45ef0 .cfa: sp 32 +
STACK CFI 45f04 .cfa: sp 0 +
STACK CFI 45f08 .cfa: sp 32 +
STACK CFI 45f18 .cfa: sp 0 +
STACK CFI INIT 45f1c 38 .cfa: sp 0 +
STACK CFI 45f28 .cfa: sp 32 +
STACK CFI 45f50 .cfa: sp 0 +
STACK CFI INIT 461e8 7c .cfa: sp 0 +
STACK CFI 461ec .cfa: sp 32 +
STACK CFI 461f4 .cfa: x29 32 + x19: .cfa -16 + ^ .ra: .cfa -24 + ^ x29: .cfa -32 + ^
STACK CFI 46220 .cfa: sp 32 +
STACK CFI 46228 .cfa: sp 0 +
STACK CFI 4622c .cfa: x29 32 +
STACK CFI 46258 .cfa: sp 32 +
STACK CFI 46260 .cfa: sp 0 +
STACK CFI INIT 462b4 2c .cfa: sp 0 +
STACK CFI 462b8 .cfa: sp 32 +
STACK CFI 462c0 .cfa: x29 32 + x19: .cfa -16 + ^ .ra: .cfa -24 + ^ x29: .cfa -32 + ^
STACK CFI 462d4 .cfa: sp 32 +
STACK CFI 462dc .cfa: sp 0 +
STACK CFI INIT 46aa0 64 .cfa: sp 0 +
STACK CFI 46aa4 .cfa: sp 32 +
STACK CFI 46aac .cfa: x29 32 + x19: .cfa -16 + ^ .ra: .cfa -24 + ^ x29: .cfa -32 + ^
STACK CFI 46ac8 .cfa: sp 32 +
STACK CFI 46ad0 .cfa: sp 0 +
STACK CFI 46ad4 .cfa: x29 32 +
STACK CFI 46af8 .cfa: sp 32 +
STACK CFI 46b00 .cfa: sp 0 +
STACK CFI INIT 46c40 570 .cfa: sp 0 +
STACK CFI 46c44 .cfa: sp 176 +
STACK CFI 46c58 .cfa: x29 64 + x19: .cfa -8 + ^ x20: .cfa -16 + ^ x21: .cfa -24 + ^ x22: .cfa -32 + ^ x23: .cfa -40 + ^ x24: .cfa -48 + ^ .ra: .cfa -56 + ^ x29: .cfa -64 + ^
STACK CFI 46e88 .cfa: sp 176 +
STACK CFI 46e9c .cfa: sp 0 +
STACK CFI 46ea0 .cfa: x29 64 +
STACK CFI 46eec .cfa: sp 176 +
STACK CFI 46f00 .cfa: sp 0 +
STACK CFI 46f04 .cfa: x29 64 +
STACK CFI 46f3c .cfa: sp 176 +
STACK CFI 46f50 .cfa: sp 0 +
STACK CFI 46f54 .cfa: x29 64 +
STACK CFI 46f6c .cfa: sp 176 +
STACK CFI 46f80 .cfa: sp 0 +
STACK CFI 46f84 .cfa: x29 64 +
STACK CFI 46fa4 .cfa: sp 176 +
STACK CFI 46fb8 .cfa: sp 0 +
STACK CFI 46fbc .cfa: x29 64 +
STACK CFI 46fd4 .cfa: sp 176 +
STACK CFI 46fe8 .cfa: sp 0 +
STACK CFI 46fec .cfa: x29 64 +
STACK CFI 47000 .cfa: sp 176 +
STACK CFI 47014 .cfa: sp 0 +
STACK CFI 47018 .cfa: x29 64 +
STACK CFI 4702c .cfa: sp 176 +
STACK CFI 47040 .cfa: sp 0 +
STACK CFI 47044 .cfa: x29 64 +
STACK CFI 47054 .cfa: sp 176 +
STACK CFI 47068 .cfa: sp 0 +
STACK CFI 4706c .cfa: x29 64 +
STACK CFI 4707c .cfa: sp 176 +
STACK CFI 47090 .cfa: sp 0 +
STACK CFI 47094 .cfa: x29 64 +
STACK CFI 470ac .cfa: sp 176 +
STACK CFI 470c0 .cfa: sp 0 +
STACK CFI 470c4 .cfa: x29 64 +
STACK CFI 470d8 .cfa: sp 176 +
STACK CFI 470ec .cfa: sp 0 +
STACK CFI 470f0 .cfa: x29 64 +
STACK CFI 47108 .cfa: sp 176 +
STACK CFI 4711c .cfa: sp 0 +
STACK CFI 47120 .cfa: x29 64 +
STACK CFI 4714c .cfa: sp 176 +
STACK CFI 47160 .cfa: sp 0 +
STACK CFI 47164 .cfa: x29 64 +
STACK CFI 47178 .cfa: sp 176 +
STACK CFI 4718c .cfa: sp 0 +
STACK CFI 47190 .cfa: x29 64 +
STACK CFI INIT 471b0 228 .cfa: sp 0 +
STACK CFI INIT 473d8 2dc .cfa: sp 0 +
STACK CFI INIT 476b4 53c .cfa: sp 0 +
STACK CFI INIT 47bf0 78 .cfa: sp 0 +
STACK CFI 47bf4 .cfa: sp 48 +
STACK CFI 47c00 .cfa: x29 48 + x19: .cfa -8 + ^ x20: .cfa -16 + ^ x21: .cfa -24 + ^ x22: .cfa -32 + ^ .ra: .cfa -40 + ^ x29: .cfa -48 + ^
STACK CFI 47c48 .cfa: sp 48 +
STACK CFI 47c54 .cfa: sp 0 +
STACK CFI 47c58 .cfa: sp 48 +
STACK CFI 47c64 .cfa: sp 0 +
STACK CFI INIT 47c68 8c .cfa: sp 0 +
STACK CFI 47c6c .cfa: sp 32 +
STACK CFI 47c74 .cfa: x29 32 + x19: .cfa -16 + ^ .ra: .cfa -24 + ^ x29: .cfa -32 + ^
STACK CFI 47ca8 .cfa: sp 32 +
STACK CFI 47cb0 .cfa: sp 0 +
STACK CFI 47cb4 .cfa: x29 32 +
STACK CFI 47ce8 .cfa: sp 32 +
STACK CFI 47cf0 .cfa: sp 0 +
STACK CFI INIT 47cf4 24 .cfa: sp 0 +
STACK CFI 47cf8 .cfa: sp 32 +
STACK CFI 47d00 .cfa: x29 32 + x19: .cfa -16 + ^ .ra: .cfa -24 + ^ x29: .cfa -32 + ^
STACK CFI 47d0c .cfa: sp 32 +
STACK CFI 47d14 .cfa: sp 0 +
STACK CFI INIT 47d18 150 .cfa: sp 0 +
STACK CFI 47d1c .cfa: sp 48 +
STACK CFI 47d28 .cfa: x29 48 + x19: .cfa -8 + ^ x20: .cfa -16 + ^ x21: .cfa -24 + ^ x22: .cfa -32 + ^ .ra: .cfa -40 + ^ x29: .cfa -48 + ^
STACK CFI 47e58 .cfa: sp 48 +
STACK CFI 47e64 .cfa: sp 0 +
STACK CFI INIT 47e68 68 .cfa: sp 0 +
STACK CFI 47e6c .cfa: sp 64 +
STACK CFI 47e78 .cfa: x29 32 + x19: .cfa -16 + ^ .ra: .cfa -24 + ^ x29: .cfa -32 + ^
STACK CFI 47ebc .cfa: sp 64 +
STACK CFI 47ec8 .cfa: sp 0 +
STACK CFI 47ecc .cfa: x29 32 +
STACK CFI INIT 47ed0 90 .cfa: sp 0 +
STACK CFI 47ed4 .cfa: sp 32 +
STACK CFI 47edc .cfa: x29 32 + x19: .cfa -8 + ^ x20: .cfa -16 + ^ .ra: .cfa -24 + ^ x29: .cfa -32 + ^
STACK CFI 47f08 .cfa: sp 32 +
STACK CFI 47f10 .cfa: sp 0 +
STACK CFI 47f14 .cfa: x29 32 +
STACK CFI 47f54 .cfa: sp 32 +
STACK CFI 47f5c .cfa: sp 0 +
STACK CFI INIT 47f60 ec .cfa: sp 0 +
STACK CFI 47f64 .cfa: sp 112 +
STACK CFI 47f74 .cfa: x29 48 + x19: .cfa -8 + ^ x20: .cfa -16 + ^ x21: .cfa -32 + ^ .ra: .cfa -40 + ^ x29: .cfa -48 + ^
STACK CFI 48034 .cfa: sp 112 +
STACK CFI 48044 .cfa: sp 0 +
STACK CFI 48048 .cfa: x29 48 +
STACK CFI INIT 4804c ec .cfa: sp 0 +
STACK CFI 48050 .cfa: sp 112 +
STACK CFI 48060 .cfa: x29 48 + x19: .cfa -8 + ^ x20: .cfa -16 + ^ x21: .cfa -32 + ^ .ra: .cfa -40 + ^ x29: .cfa -48 + ^
STACK CFI 48120 .cfa: sp 112 +
STACK CFI 48130 .cfa: sp 0 +
STACK CFI 48134 .cfa: x29 48 +
STACK CFI INIT 48138 48 .cfa: sp 0 +
STACK CFI 4813c .cfa: sp 32 +
STACK CFI 48144 .cfa: x29 32 + x19: .cfa -8 + ^ x20: .cfa -16 + ^ .ra: .cfa -24 + ^ x29: .cfa -32 + ^
STACK CFI 48168 .cfa: sp 32 +
STACK CFI 48170 .cfa: sp 0 +
STACK CFI 48174 .cfa: x29 32 +
STACK CFI INIT 48180 98 .cfa: sp 0 +
STACK CFI 48184 .cfa: sp 80 +
STACK CFI 48190 .cfa: x29 32 + x19: .cfa -16 + ^ .ra: .cfa -24 + ^ x29: .cfa -32 + ^
STACK CFI 48204 .cfa: sp 80 +
STACK CFI 48210 .cfa: sp 0 +
STACK CFI 48214 .cfa: x29 32 +
STACK CFI INIT 48218 260 .cfa: sp 0 +
STACK CFI 4821c .cfa: sp 112 +
STACK CFI 48234 .cfa: x29 80 + x19: .cfa -8 + ^ x20: .cfa -16 + ^ x21: .cfa -24 + ^ x22: .cfa -32 + ^ x23: .cfa -40 + ^ x24: .cfa -48 + ^ x25: .cfa -64 + ^ .ra: .cfa -72 + ^ x29: .cfa -80 + ^
STACK CFI 48418 .cfa: sp 112 +
STACK CFI 48430 .cfa: sp 0 +
STACK CFI 48434 .cfa: x29 80 +
STACK CFI INIT 48478 150 .cfa: sp 0 +
STACK CFI 4847c .cfa: sp 48 +
STACK CFI 48488 .cfa: x29 48 + x19: .cfa -8 + ^ x20: .cfa -16 + ^ x21: .cfa -24 + ^ x22: .cfa -32 + ^ .ra: .cfa -40 + ^ x29: .cfa -48 + ^
STACK CFI 485b8 .cfa: sp 48 +
STACK CFI 485c4 .cfa: sp 0 +
STACK CFI INIT 485c8 1e0 .cfa: sp 0 +
STACK CFI 485cc .cfa: sp 96 +
STACK CFI 485e0 .cfa: x29 64 + x19: .cfa -8 + ^ x20: .cfa -16 + ^ x21: .cfa -24 + ^ x22: .cfa -32 + ^ x23: .cfa -40 + ^ x24: .cfa -48 + ^ .ra: .cfa -56 + ^ x29: .cfa -64 + ^
STACK CFI 48760 .cfa: sp 96 +
STACK CFI 48774 .cfa: sp 0 +
STACK CFI 48778 .cfa: x29 64 +
STACK CFI INIT 487a8 284 .cfa: sp 0 +
STACK CFI 487ac .cfa: sp 112 +
STACK CFI 487c4 .cfa: x29 80 + x19: .cfa -8 + ^ x20: .cfa -16 + ^ x21: .cfa -24 + ^ x22: .cfa -32 + ^ x23: .cfa -40 + ^ x24: .cfa -48 + ^ x25: .cfa -64 + ^ .ra: .cfa -72 + ^ x29: .cfa -80 + ^
STACK CFI 489cc .cfa: sp 112 +
STACK CFI 489e4 .cfa: sp 0 +
STACK CFI 489e8 .cfa: x29 80 +
STACK CFI INIT 48a2c 208 .cfa: sp 0 +
STACK CFI 48a30 .cfa: sp 96 +
STACK CFI 48a44 .cfa: x29 64 + x19: .cfa -8 + ^ x20: .cfa -16 + ^ x21: .cfa -24 + ^ x22: .cfa -32 + ^ x23: .cfa -40 + ^ x24: .cfa -48 + ^ .ra: .cfa -56 + ^ x29: .cfa -64 + ^
STACK CFI 48bec .cfa: sp 96 +
STACK CFI 48c00 .cfa: sp 0 +
STACK CFI 48c04 .cfa: x29 64 +
STACK CFI INIT 48c34 360 .cfa: sp 0 +
STACK CFI 48c38 .cfa: sp 160 +
STACK CFI 48c54 .cfa: x29 96 + x19: .cfa -8 + ^ x20: .cfa -16 + ^ x21: .cfa -24 + ^ x22: .cfa -32 + ^ x23: .cfa -40 + ^ x24: .cfa -48 + ^ x25: .cfa -56 + ^ x26: .cfa -64 + ^ x27: .cfa -72 + ^ x28: .cfa -80 + ^ .ra: .cfa -88 + ^ x29: .cfa -96 + ^
STACK CFI 48f20 .cfa: sp 160 +
STACK CFI 48f3c .cfa: sp 0 +
STACK CFI 48f40 .cfa: x29 96 +
STACK CFI INIT 48f94 314 .cfa: sp 0 +
STACK CFI 48f98 .cfa: sp 144 +
STACK CFI 48fb4 .cfa: x29 96 + x19: .cfa -8 + ^ x20: .cfa -16 + ^ x21: .cfa -24 + ^ x22: .cfa -32 + ^ x23: .cfa -40 + ^ x24: .cfa -48 + ^ x25: .cfa -56 + ^ x26: .cfa -64 + ^ x27: .cfa -72 + ^ x28: .cfa -80 + ^ .ra: .cfa -88 + ^ x29: .cfa -96 + ^
STACK CFI 49230 .cfa: sp 144 +
STACK CFI 4924c .cfa: sp 0 +
STACK CFI 49250 .cfa: x29 96 +
STACK CFI INIT 492a8 290 .cfa: sp 0 +
STACK CFI 492ac .cfa: sp 128 +
STACK CFI 492c4 .cfa: x29 80 + x19: .cfa -8 + ^ x20: .cfa -16 + ^ x21: .cfa -24 + ^ x22: .cfa -32 + ^ x23: .cfa -40 + ^ x24: .cfa -48 + ^ x25: .cfa -56 + ^ x26: .cfa -64 + ^ .ra: .cfa -72 + ^ x29: .cfa -80 + ^
STACK CFI 49518 .cfa: sp 128 +
STACK CFI 49530 .cfa: sp 0 +
STACK CFI 49534 .cfa: x29 80 +
STACK CFI INIT 49538 ddc .cfa: sp 0 +
STACK CFI 4953c .cfa: sp 144 +
STACK CFI 49558 .cfa: x29 96 + x19: .cfa -8 + ^ x20: .cfa -16 + ^ x21: .cfa -24 + ^ x22: .cfa -32 + ^ x23: .cfa -40 + ^ x24: .cfa -48 + ^ x25: .cfa -56 + ^ x26: .cfa -64 + ^ x27: .cfa -72 + ^ x28: .cfa -80 + ^ .ra: .cfa -88 + ^ x29: .cfa -96 + ^
STACK CFI 4a1ec .cfa: sp 144 +
STACK CFI 4a208 .cfa: sp 0 +
STACK CFI 4a20c .cfa: x29 96 +
STACK CFI INIT 4a314 1d0 .cfa: sp 0 +
STACK CFI 4a318 .cfa: sp 80 +
STACK CFI 4a32c .cfa: x29 80 + x19: .cfa -8 + ^ x20: .cfa -16 + ^ x21: .cfa -24 + ^ x22: .cfa -32 + ^ x23: .cfa -40 + ^ x24: .cfa -48 + ^ x25: .cfa -64 + ^ .ra: .cfa -72 + ^ x29: .cfa -80 + ^
STACK CFI 4a4cc .cfa: sp 80 +
STACK CFI 4a4e0 .cfa: sp 0 +
STACK CFI INIT 4a4e4 23c .cfa: sp 0 +
STACK CFI 4a4e8 .cfa: sp 112 +
STACK CFI 4a4fc .cfa: x29 64 + x19: .cfa -8 + ^ x20: .cfa -16 + ^ x21: .cfa -24 + ^ x22: .cfa -32 + ^ x23: .cfa -40 + ^ x24: .cfa -48 + ^ .ra: .cfa -56 + ^ x29: .cfa -64 + ^
STACK CFI 4a6d8 .cfa: sp 112 +
STACK CFI 4a6ec .cfa: sp 0 +
STACK CFI 4a6f0 .cfa: x29 64 +
STACK CFI INIT 4a720 30c .cfa: sp 0 +
STACK CFI 4a724 .cfa: sp 80 +
STACK CFI 4a738 .cfa: x29 64 + x19: .cfa -8 + ^ x20: .cfa -16 + ^ x21: .cfa -24 + ^ x22: .cfa -32 + ^ x23: .cfa -40 + ^ x24: .cfa -48 + ^ .ra: .cfa -56 + ^ x29: .cfa -64 + ^
STACK CFI 4a8b4 .cfa: sp 80 +
STACK CFI 4a8c8 .cfa: sp 0 +
STACK CFI 4a8cc .cfa: x29 64 +
STACK CFI INIT 4aa2c 178 .cfa: sp 0 +
STACK CFI 4aa30 .cfa: sp 80 +
STACK CFI 4aa44 .cfa: x29 64 + x19: .cfa -8 + ^ x20: .cfa -16 + ^ x21: .cfa -24 + ^ x22: .cfa -32 + ^ x23: .cfa -40 + ^ x24: .cfa -48 + ^ .ra: .cfa -56 + ^ x29: .cfa -64 + ^
STACK CFI 4ab88 .cfa: sp 80 +
STACK CFI 4ab9c .cfa: sp 0 +
STACK CFI 4aba0 .cfa: x29 64 +
STACK CFI INIT 4aba4 178 .cfa: sp 0 +
STACK CFI 4aba8 .cfa: sp 80 +
STACK CFI 4abbc .cfa: x29 64 + x19: .cfa -8 + ^ x20: .cfa -16 + ^ x21: .cfa -24 + ^ x22: .cfa -32 + ^ x23: .cfa -40 + ^ x24: .cfa -48 + ^ .ra: .cfa -56 + ^ x29: .cfa -64 + ^
STACK CFI 4ad00 .cfa: sp 80 +
STACK CFI 4ad14 .cfa: sp 0 +
STACK CFI 4ad18 .cfa: x29 64 +
STACK CFI INIT 4ad1c 240 .cfa: sp 0 +
STACK CFI 4ad20 .cfa: sp 96 +
STACK CFI 4ad38 .cfa: x29 96 + x19: .cfa -8 + ^ x20: .cfa -16 + ^ x21: .cfa -24 + ^ x22: .cfa -32 + ^ x23: .cfa -40 + ^ x24: .cfa -48 + ^ x25: .cfa -56 + ^ x26: .cfa -64 + ^ x27: .cfa -72 + ^ x28: .cfa -80 + ^ .ra: .cfa -88 + ^ x29: .cfa -96 + ^
STACK CFI 4af40 .cfa: sp 96 +
STACK CFI 4af58 .cfa: sp 0 +
STACK CFI INIT 4bbd0 154 .cfa: sp 0 +
STACK CFI 4bbd4 .cfa: sp 96 +
STACK CFI 4bbe8 .cfa: x29 64 + x19: .cfa -8 + ^ x20: .cfa -16 + ^ x21: .cfa -24 + ^ x22: .cfa -32 + ^ x23: .cfa -48 + ^ .ra: .cfa -56 + ^ x29: .cfa -64 + ^
STACK CFI 4bcc8 .cfa: sp 96 +
STACK CFI 4bcdc .cfa: sp 0 +
STACK CFI 4bce0 .cfa: x29 64 +
STACK CFI INIT 4bf90 44 .cfa: sp 0 +
STACK CFI 4bf94 .cfa: sp 32 +
STACK CFI 4bf9c .cfa: x29 32 + x19: .cfa -16 + ^ .ra: .cfa -24 + ^ x29: .cfa -32 + ^
STACK CFI 4bfb8 .cfa: sp 32 +
STACK CFI 4bfc0 .cfa: sp 0 +
STACK CFI 4bfc4 .cfa: x29 32 +
STACK CFI 4bfc8 .cfa: sp 32 +
STACK CFI 4bfd0 .cfa: sp 0 +
STACK CFI INIT 4bfd4 1d0 .cfa: sp 0 +
STACK CFI 4bfd8 .cfa: sp 64 +
STACK CFI 4bfe8 .cfa: x29 64 + x19: .cfa -8 + ^ x20: .cfa -16 + ^ x21: .cfa -24 + ^ x22: .cfa -32 + ^ x23: .cfa -40 + ^ x24: .cfa -48 + ^ .ra: .cfa -56 + ^ x29: .cfa -64 + ^
STACK CFI 4c0a8 .cfa: sp 64 +
STACK CFI 4c0b8 .cfa: sp 0 +
STACK CFI 4c0bc .cfa: x29 64 +
STACK CFI INIT 4c1a4 17c .cfa: sp 0 +
STACK CFI INIT 4c6d8 a0 .cfa: sp 0 +
STACK CFI 4c6dc .cfa: sp 48 +
STACK CFI 4c6e8 .cfa: x29 48 + x19: .cfa -8 + ^ x20: .cfa -16 + ^ x21: .cfa -24 + ^ x22: .cfa -32 + ^ .ra: .cfa -40 + ^ x29: .cfa -48 + ^
STACK CFI 4c754 .cfa: sp 48 +
STACK CFI 4c760 .cfa: sp 0 +
STACK CFI 4c764 .cfa: sp 48 +
STACK CFI 4c770 .cfa: sp 0 +
STACK CFI 4c774 .cfa: x29 48 +
STACK CFI INIT 4d42c 158 .cfa: sp 0 +
STACK CFI 4d430 .cfa: sp 96 +
STACK CFI 4d444 .cfa: x29 64 + x19: .cfa -8 + ^ x20: .cfa -16 + ^ x21: .cfa -24 + ^ x22: .cfa -32 + ^ x23: .cfa -48 + ^ .ra: .cfa -56 + ^ x29: .cfa -64 + ^
STACK CFI 4d528 .cfa: sp 96 +
STACK CFI 4d53c .cfa: sp 0 +
STACK CFI 4d540 .cfa: x29 64 +
STACK CFI INIT 4d584 190 .cfa: sp 0 +
STACK CFI INIT 4e210 1dc .cfa: sp 0 +
STACK CFI 4e214 .cfa: sp 80 +
STACK CFI 4e228 .cfa: x29 80 + x19: .cfa -8 + ^ x20: .cfa -16 + ^ x21: .cfa -24 + ^ x22: .cfa -32 + ^ x23: .cfa -40 + ^ x24: .cfa -48 + ^ x25: .cfa -64 + ^ .ra: .cfa -72 + ^ x29: .cfa -80 + ^
STACK CFI 4e3d4 .cfa: sp 80 +
STACK CFI 4e3e8 .cfa: sp 0 +
STACK CFI INIT 4f81c 124 .cfa: sp 0 +
STACK CFI 4f84c .cfa: sp 32 +
STACK CFI 4f854 .cfa: x29 32 + x19: .cfa -8 + ^ x20: .cfa -16 + ^ .ra: .cfa -24 + ^ x29: .cfa -32 + ^
STACK CFI 4f934 .cfa: sp 32 +
STACK CFI 4f93c .cfa: sp 0 +
STACK CFI INIT 5009c 320 .cfa: sp 0 +
STACK CFI 500a0 .cfa: sp 64 +
STACK CFI 500b0 .cfa: x29 64 + x19: .cfa -8 + ^ x20: .cfa -16 + ^ x21: .cfa -24 + ^ x22: .cfa -32 + ^ x23: .cfa -40 + ^ x24: .cfa -48 + ^ .ra: .cfa -56 + ^ x29: .cfa -64 + ^
STACK CFI 5012c .cfa: sp 64 +
STACK CFI 5013c .cfa: sp 0 +
STACK CFI 50140 .cfa: x29 64 +
STACK CFI 50314 .cfa: sp 64 +
STACK CFI 50324 .cfa: sp 0 +
STACK CFI 50328 .cfa: x29 64 +
STACK CFI 50338 .cfa: sp 64 +
STACK CFI 50348 .cfa: sp 0 +
STACK CFI 5034c .cfa: x29 64 +
STACK CFI INIT 503bc a0 .cfa: sp 0 +
STACK CFI 503c0 .cfa: sp 48 +
STACK CFI 503cc .cfa: x29 48 + x19: .cfa -8 + ^ x20: .cfa -16 + ^ x21: .cfa -24 + ^ x22: .cfa -32 + ^ .ra: .cfa -40 + ^ x29: .cfa -48 + ^
STACK CFI 50438 .cfa: sp 48 +
STACK CFI 50444 .cfa: sp 0 +
STACK CFI 50448 .cfa: sp 48 +
STACK CFI 50454 .cfa: sp 0 +
STACK CFI 50458 .cfa: x29 48 +
STACK CFI INIT 5130c 160 .cfa: sp 0 +
STACK CFI 51310 .cfa: sp 64 +
STACK CFI 51320 .cfa: x29 64 + x19: .cfa -8 + ^ x20: .cfa -16 + ^ x21: .cfa -24 + ^ x22: .cfa -32 + ^ x23: .cfa -48 + ^ .ra: .cfa -56 + ^ x29: .cfa -64 + ^
STACK CFI 51418 .cfa: sp 64 +
STACK CFI 51428 .cfa: sp 0 +
STACK CFI 5142c .cfa: x29 64 +
STACK CFI INIT 5146c 214 .cfa: sp 0 +
STACK CFI 51470 .cfa: sp 128 +
STACK CFI 5148c .cfa: x29 96 + x19: .cfa -8 + ^ x20: .cfa -16 + ^ x21: .cfa -24 + ^ x22: .cfa -32 + ^ x23: .cfa -40 + ^ x24: .cfa -48 + ^ x25: .cfa -56 + ^ x26: .cfa -64 + ^ x27: .cfa -80 + ^ .ra: .cfa -88 + ^ x29: .cfa -96 + ^
STACK CFI 51608 .cfa: sp 128 +
STACK CFI 51624 .cfa: sp 0 +
STACK CFI 51628 .cfa: x29 96 +
STACK CFI INIT 5331c 290 .cfa: sp 0 +
STACK CFI 53320 .cfa: sp 16 +
STACK CFI 53324 .cfa: x29 16 + .ra: .cfa -8 + ^ x29: .cfa -16 + ^
STACK CFI 533b0 .cfa: sp 16 +
STACK CFI 533b4 .cfa: sp 0 +
STACK CFI 533b8 .cfa: x29 16 +
STACK CFI 53408 .cfa: sp 16 +
STACK CFI 5340c .cfa: sp 0 +
STACK CFI 53410 .cfa: x29 16 +
STACK CFI 53574 .cfa: sp 16 +
STACK CFI 53578 .cfa: sp 0 +
STACK CFI 5357c .cfa: x29 16 +
STACK CFI INIT 535ac 158 .cfa: sp 0 +
STACK CFI 535b0 .cfa: sp 112 +
STACK CFI 535cc .cfa: x29 96 + x19: .cfa -8 + ^ x20: .cfa -16 + ^ x21: .cfa -24 + ^ x22: .cfa -32 + ^ x23: .cfa -40 + ^ x24: .cfa -48 + ^ x25: .cfa -56 + ^ x26: .cfa -64 + ^ x27: .cfa -72 + ^ x28: .cfa -80 + ^ .ra: .cfa -88 + ^ x29: .cfa -96 + ^
STACK CFI 536b4 .cfa: sp 112 +
STACK CFI 536b8 .cfa: x29 96 +
STACK CFI 536c0 .cfa: sp 112 +
STACK CFI 536dc .cfa: sp 0 +
STACK CFI 536e0 .cfa: x29 96 +
STACK CFI 53700 .cfa: sp 112 +
STACK CFI INIT 53704 e54 .cfa: sp 0 +
STACK CFI 53708 .cfa: sp 192 +
STACK CFI 53724 .cfa: x29 96 + x19: .cfa -8 + ^ x20: .cfa -16 + ^ x21: .cfa -24 + ^ x22: .cfa -32 + ^ x23: .cfa -40 + ^ x24: .cfa -48 + ^ x25: .cfa -56 + ^ x26: .cfa -64 + ^ x27: .cfa -72 + ^ x28: .cfa -80 + ^ .ra: .cfa -88 + ^ x29: .cfa -96 + ^
STACK CFI 54440 .cfa: sp 192 +
STACK CFI 5445c .cfa: sp 0 +
STACK CFI 54460 .cfa: x29 96 +
STACK CFI INIT 54558 1068 .cfa: sp 0 +
STACK CFI 5455c .cfa: sp 288 +
STACK CFI 54578 .cfa: x29 96 + x19: .cfa -8 + ^ x20: .cfa -16 + ^ x21: .cfa -24 + ^ x22: .cfa -32 + ^ x23: .cfa -40 + ^ x24: .cfa -48 + ^ x25: .cfa -56 + ^ x26: .cfa -64 + ^ x27: .cfa -72 + ^ x28: .cfa -80 + ^ .ra: .cfa -88 + ^ x29: .cfa -96 + ^
STACK CFI 55308 .cfa: sp 288 +
STACK CFI 55324 .cfa: sp 0 +
STACK CFI 55328 .cfa: x29 96 +
STACK CFI INIT 555c0 520 .cfa: sp 0 +
STACK CFI 555c4 .cfa: sp 144 +
STACK CFI 555e0 .cfa: x29 96 + x19: .cfa -8 + ^ x20: .cfa -16 + ^ x21: .cfa -24 + ^ x22: .cfa -32 + ^ x23: .cfa -40 + ^ x24: .cfa -48 + ^ x25: .cfa -56 + ^ x26: .cfa -64 + ^ x27: .cfa -72 + ^ x28: .cfa -80 + ^ .ra: .cfa -88 + ^ x29: .cfa -96 + ^
STACK CFI 55abc .cfa: sp 144 +
STACK CFI 55ad8 .cfa: sp 0 +
STACK CFI 55adc .cfa: x29 96 +
STACK CFI INIT 56480 136c .cfa: sp 0 +
STACK CFI 56484 .cfa: sp 224 +
STACK CFI 564a0 .cfa: x29 96 + x19: .cfa -8 + ^ x20: .cfa -16 + ^ x21: .cfa -24 + ^ x22: .cfa -32 + ^ x23: .cfa -40 + ^ x24: .cfa -48 + ^ x25: .cfa -56 + ^ x26: .cfa -64 + ^ x27: .cfa -72 + ^ x28: .cfa -80 + ^ .ra: .cfa -88 + ^ x29: .cfa -96 + ^
STACK CFI 577c8 .cfa: sp 224 +
STACK CFI 577e4 .cfa: sp 0 +
STACK CFI 577e8 .cfa: x29 96 +
STACK CFI INIT 577ec 1b8 .cfa: sp 0 +
STACK CFI INIT 28504 2f8 .cfa: sp 0 +
STACK CFI 28508 .cfa: sp 160 +
STACK CFI 28518 .cfa: x29 48 + x19: .cfa -8 + ^ x20: .cfa -16 + ^ x21: .cfa -24 + ^ x22: .cfa -32 + ^ .ra: .cfa -40 + ^ x29: .cfa -48 + ^
STACK CFI 2866c .cfa: sp 160 +
STACK CFI 2867c .cfa: sp 0 +
STACK CFI 28680 .cfa: x29 48 +
STACK CFI INIT 287fc 1670 .cfa: sp 0 +
STACK CFI 28800 .cfa: sp 112 +
STACK CFI 2881c .cfa: x29 96 + x19: .cfa -8 + ^ x20: .cfa -16 + ^ x21: .cfa -24 + ^ x22: .cfa -32 + ^ x23: .cfa -40 + ^ x24: .cfa -48 + ^ x25: .cfa -56 + ^ x26: .cfa -64 + ^ x27: .cfa -72 + ^ x28: .cfa -80 + ^ .ra: .cfa -88 + ^ x29: .cfa -96 + ^ v8: .cfa -104 + ^ v9: .cfa -112 + ^
STACK CFI 29bcc .cfa: sp 112 +
STACK CFI 29be8 .cfa: sp 0 +
STACK CFI 29bec .cfa: x29 96 +
STACK CFI INIT 29e6c 580 .cfa: sp 0 +
STACK CFI 29e70 .cfa: sp 288 +
STACK CFI 29e88 .cfa: x29 56 + x19: .cfa -8 + ^ x20: .cfa -16 + ^ x21: .cfa -24 + ^ x22: .cfa -32 + ^ x28: .cfa -40 + ^ .ra: .cfa -48 + ^ x29: .cfa -56 + ^ v8: .cfa -64 + ^
STACK CFI 2a300 .cfa: sp 288 +
STACK CFI 2a318 .cfa: sp 0 +
STACK CFI 2a31c .cfa: x29 56 +
STACK CFI INIT 2a3ec 14c .cfa: sp 0 +
STACK CFI 2a3f0 .cfa: sp 112 +
STACK CFI 2a404 .cfa: x29 40 + x19: .cfa -8 + ^ x20: .cfa -16 + ^ x21: .cfa -24 + ^ .ra: .cfa -32 + ^ x29: .cfa -40 + ^ v8: .cfa -48 + ^
STACK CFI 2a4cc .cfa: sp 112 +
STACK CFI 2a4e0 .cfa: sp 0 +
STACK CFI 2a4e4 .cfa: x29 40 +
STACK CFI INIT 2a538 13c .cfa: sp 0 +
STACK CFI 2a53c .cfa: sp 112 +
STACK CFI 2a54c .cfa: x29 48 + x19: .cfa -8 + ^ x20: .cfa -16 + ^ x21: .cfa -32 + ^ .ra: .cfa -40 + ^ x29: .cfa -48 + ^
STACK CFI 2a60c .cfa: sp 112 +
STACK CFI 2a61c .cfa: sp 0 +
STACK CFI 2a620 .cfa: x29 48 +
STACK CFI INIT 2a674 14c .cfa: sp 0 +
STACK CFI 2a678 .cfa: sp 112 +
STACK CFI 2a68c .cfa: x29 40 + x19: .cfa -8 + ^ x20: .cfa -16 + ^ x21: .cfa -24 + ^ .ra: .cfa -32 + ^ x29: .cfa -40 + ^ v8: .cfa -48 + ^
STACK CFI 2a754 .cfa: sp 112 +
STACK CFI 2a768 .cfa: sp 0 +
STACK CFI 2a76c .cfa: x29 40 +
STACK CFI INIT 2a7c0 190 .cfa: sp 0 +
STACK CFI 2a7c4 .cfa: sp 80 +
STACK CFI 2a7d4 .cfa: x29 48 + x19: .cfa -8 + ^ x20: .cfa -16 + ^ x21: .cfa -24 + ^ x22: .cfa -32 + ^ .ra: .cfa -40 + ^ x29: .cfa -48 + ^
STACK CFI 2a90c .cfa: sp 80 +
STACK CFI 2a91c .cfa: sp 0 +
STACK CFI 2a920 .cfa: x29 48 +
STACK CFI INIT 2a950 910 .cfa: sp 0 +
STACK CFI 2a954 .cfa: sp 256 +
STACK CFI 2a970 .cfa: x29 96 + x19: .cfa -8 + ^ x20: .cfa -16 + ^ x21: .cfa -24 + ^ x22: .cfa -32 + ^ x23: .cfa -40 + ^ x24: .cfa -48 + ^ x25: .cfa -56 + ^ x26: .cfa -64 + ^ x27: .cfa -72 + ^ x28: .cfa -80 + ^ .ra: .cfa -88 + ^ x29: .cfa -96 + ^
STACK CFI 2b068 .cfa: sp 256 +
STACK CFI 2b084 .cfa: sp 0 +
STACK CFI 2b088 .cfa: x29 96 +
STACK CFI INIT 2b2dc 2e0 .cfa: sp 0 +
STACK CFI 2b2e0 .cfa: sp 112 +
STACK CFI 2b2f4 .cfa: x29 48 + x19: .cfa -8 + ^ x20: .cfa -16 + ^ x21: .cfa -32 + ^ .ra: .cfa -40 + ^ x29: .cfa -48 + ^ v8: .cfa -56 + ^ v9: .cfa -64 + ^
STACK CFI 2b574 .cfa: sp 112 +
STACK CFI 2b588 .cfa: sp 0 +
STACK CFI 2b58c .cfa: x29 48 +
STACK CFI INIT 2b5c4 11c .cfa: sp 0 +
STACK CFI 2b5c8 .cfa: sp 64 +
STACK CFI 2b5d4 .cfa: x29 32 + x19: .cfa -8 + ^ x20: .cfa -16 + ^ .ra: .cfa -24 + ^ x29: .cfa -32 + ^
STACK CFI 2b698 .cfa: sp 64 +
STACK CFI 2b6a4 .cfa: sp 0 +
STACK CFI 2b6a8 .cfa: x29 32 +
STACK CFI INIT 2b6e0 11c .cfa: sp 0 +
STACK CFI 2b6e4 .cfa: sp 64 +
STACK CFI 2b6f0 .cfa: x29 32 + x19: .cfa -8 + ^ x20: .cfa -16 + ^ .ra: .cfa -24 + ^ x29: .cfa -32 + ^
STACK CFI 2b7b4 .cfa: sp 64 +
STACK CFI 2b7c0 .cfa: sp 0 +
STACK CFI 2b7c4 .cfa: x29 32 +
STACK CFI INIT 2b7fc 208 .cfa: sp 0 +
STACK CFI 2b800 .cfa: sp 96 +
STACK CFI 2b818 .cfa: x29 96 + x19: .cfa -8 + ^ x20: .cfa -16 + ^ x21: .cfa -24 + ^ x22: .cfa -32 + ^ x23: .cfa -40 + ^ x24: .cfa -48 + ^ x25: .cfa -56 + ^ x26: .cfa -64 + ^ x28: .cfa -80 + ^ .ra: .cfa -88 + ^ x29: .cfa -96 + ^
STACK CFI 2b95c .cfa: sp 96 +
STACK CFI 2b974 .cfa: sp 0 +
STACK CFI 2b978 .cfa: x29 96 +
STACK CFI INIT 2ba0c 2cc .cfa: sp 0 +
STACK CFI 2ba10 .cfa: sp 160 +
STACK CFI 2ba20 .cfa: x29 48 + x19: .cfa -8 + ^ x20: .cfa -16 + ^ x21: .cfa -32 + ^ .ra: .cfa -40 + ^ x29: .cfa -48 + ^
STACK CFI 2bc00 .cfa: sp 160 +
STACK CFI 2bc10 .cfa: sp 0 +
STACK CFI 2bc14 .cfa: x29 48 +
STACK CFI INIT 2bf60 30c .cfa: sp 0 +
STACK CFI 2bf64 .cfa: sp 48 +
STACK CFI 2bf70 .cfa: x29 48 + x19: .cfa -8 + ^ x20: .cfa -16 + ^ x21: .cfa -32 + ^ .ra: .cfa -40 + ^ x29: .cfa -48 + ^
STACK CFI 2c258 .cfa: sp 48 +
STACK CFI 2c264 .cfa: sp 0 +
STACK CFI 2c268 .cfa: x29 48 +
STACK CFI INIT 2c40c 21c .cfa: sp 0 +
STACK CFI 2c410 .cfa: sp 192 +
STACK CFI 2c424 .cfa: x29 64 + x19: .cfa -8 + ^ x20: .cfa -16 + ^ x21: .cfa -24 + ^ x22: .cfa -32 + ^ x23: .cfa -48 + ^ .ra: .cfa -56 + ^ x29: .cfa -64 + ^
STACK CFI 2c564 .cfa: sp 192 +
STACK CFI 2c578 .cfa: sp 0 +
STACK CFI 2c57c .cfa: x29 64 +
STACK CFI INIT 2c62c 1cc .cfa: sp 0 +
STACK CFI 2c630 .cfa: sp 128 +
STACK CFI 2c640 .cfa: x29 48 + x19: .cfa -8 + ^ x20: .cfa -16 + ^ x21: .cfa -32 + ^ .ra: .cfa -40 + ^ x29: .cfa -48 + ^
STACK CFI 2c77c .cfa: sp 128 +
STACK CFI 2c78c .cfa: sp 0 +
STACK CFI 2c790 .cfa: x29 48 +
STACK CFI INIT 2cbbc 1d0 .cfa: sp 0 +
STACK CFI 2cbc0 .cfa: sp 128 +
STACK CFI 2cbd4 .cfa: x29 64 + x19: .cfa -8 + ^ x20: .cfa -16 + ^ x21: .cfa -24 + ^ x22: .cfa -32 + ^ x23: .cfa -48 + ^ .ra: .cfa -56 + ^ x29: .cfa -64 + ^
STACK CFI 2cd4c .cfa: sp 128 +
STACK CFI 2cd60 .cfa: sp 0 +
STACK CFI 2cd64 .cfa: x29 64 +
STACK CFI INIT 2d0a8 1c4 .cfa: sp 0 +
STACK CFI 2d0ac .cfa: sp 112 +
STACK CFI 2d0bc .cfa: x29 48 + x19: .cfa -8 + ^ x20: .cfa -16 + ^ x21: .cfa -24 + ^ x22: .cfa -32 + ^ .ra: .cfa -40 + ^ x29: .cfa -48 + ^
STACK CFI 2d230 .cfa: sp 112 +
STACK CFI 2d240 .cfa: sp 0 +
STACK CFI 2d244 .cfa: x29 48 +
STACK CFI INIT 2d3dc 50 .cfa: sp 0 +
STACK CFI 2d3e0 .cfa: sp 32 +
STACK CFI 2d3e8 .cfa: x29 32 + x19: .cfa -8 + ^ x20: .cfa -16 + ^ .ra: .cfa -24 + ^ x29: .cfa -32 + ^
STACK CFI INIT 2d45c 194 .cfa: sp 0 +
STACK CFI 2d460 .cfa: sp 144 +
STACK CFI 2d470 .cfa: x29 48 + x19: .cfa -8 + ^ x20: .cfa -16 + ^ x21: .cfa -24 + ^ x22: .cfa -32 + ^ .ra: .cfa -40 + ^ x29: .cfa -48 + ^
STACK CFI 2d570 .cfa: sp 144 +
STACK CFI 2d580 .cfa: sp 0 +
STACK CFI 2d584 .cfa: x29 48 +
STACK CFI INIT 2d5f0 1c8 .cfa: sp 0 +
STACK CFI 2d5f4 .cfa: sp 112 +
STACK CFI 2d604 .cfa: x29 48 + x19: .cfa -8 + ^ x20: .cfa -16 + ^ x21: .cfa -24 + ^ x22: .cfa -32 + ^ .ra: .cfa -40 + ^ x29: .cfa -48 + ^
STACK CFI 2d758 .cfa: sp 112 +
STACK CFI 2d768 .cfa: sp 0 +
STACK CFI 2d76c .cfa: x29 48 +
STACK CFI INIT 2dc3c 50 .cfa: sp 0 +
STACK CFI 2dc40 .cfa: sp 32 +
STACK CFI 2dc48 .cfa: x29 32 + x19: .cfa -8 + ^ x20: .cfa -16 + ^ .ra: .cfa -24 + ^ x29: .cfa -32 + ^
STACK CFI INIT 2dfb8 24c .cfa: sp 0 +
STACK CFI 2dfbc .cfa: sp 160 +
STACK CFI 2dfcc .cfa: x29 48 + x19: .cfa -8 + ^ x20: .cfa -16 + ^ x21: .cfa -32 + ^ .ra: .cfa -40 + ^ x29: .cfa -48 + ^
STACK CFI 2e12c .cfa: sp 160 +
STACK CFI 2e13c .cfa: sp 0 +
STACK CFI 2e140 .cfa: x29 48 +
STACK CFI INIT 2e390 2ac .cfa: sp 0 +
STACK CFI 2e394 .cfa: sp 160 +
STACK CFI 2e3a4 .cfa: x29 48 + x19: .cfa -8 + ^ x20: .cfa -16 + ^ x21: .cfa -24 + ^ x22: .cfa -32 + ^ .ra: .cfa -40 + ^ x29: .cfa -48 + ^
STACK CFI 2e5a8 .cfa: sp 160 +
STACK CFI 2e5b8 .cfa: sp 0 +
STACK CFI 2e5bc .cfa: x29 48 +
STACK CFI INIT 2e764 2ac .cfa: sp 0 +
STACK CFI 2e768 .cfa: sp 160 +
STACK CFI 2e778 .cfa: x29 48 + x19: .cfa -8 + ^ x20: .cfa -16 + ^ x21: .cfa -24 + ^ x22: .cfa -32 + ^ .ra: .cfa -40 + ^ x29: .cfa -48 + ^
STACK CFI 2e97c .cfa: sp 160 +
STACK CFI 2e98c .cfa: sp 0 +
STACK CFI 2e990 .cfa: x29 48 +
STACK CFI INIT 2eb38 134 .cfa: sp 0 +
STACK CFI 2eb3c .cfa: sp 96 +
STACK CFI 2eb50 .cfa: x29 64 + x19: .cfa -8 + ^ x20: .cfa -16 + ^ x21: .cfa -24 + ^ x22: .cfa -32 + ^ x23: .cfa -48 + ^ .ra: .cfa -56 + ^ x29: .cfa -64 + ^
STACK CFI 2ec1c .cfa: sp 96 +
STACK CFI 2ec30 .cfa: sp 0 +
STACK CFI 2ec34 .cfa: x29 64 +
STACK CFI INIT 2ece8 1b4 .cfa: sp 0 +
STACK CFI 2ecec .cfa: sp 64 +
STACK CFI 2ecfc .cfa: x29 48 + x19: .cfa -8 + ^ x20: .cfa -16 + ^ x21: .cfa -24 + ^ x22: .cfa -32 + ^ .ra: .cfa -40 + ^ x29: .cfa -48 + ^
STACK CFI 2edd0 .cfa: sp 64 +
STACK CFI 2ede0 .cfa: sp 0 +
STACK CFI 2ede4 .cfa: x29 48 +
STACK CFI INIT 2eec4 ac .cfa: sp 0 +
STACK CFI 2eec8 .cfa: sp 64 +
STACK CFI 2eed4 .cfa: x29 32 + x19: .cfa -8 + ^ x20: .cfa -16 + ^ .ra: .cfa -24 + ^ x29: .cfa -32 + ^
STACK CFI 2ef30 .cfa: sp 64 +
STACK CFI 2ef3c .cfa: sp 0 +
STACK CFI 2ef40 .cfa: x29 32 +
STACK CFI INIT 2f4bc 8c .cfa: sp 0 +
STACK CFI 2f4c0 .cfa: sp 64 +
STACK CFI 2f4cc .cfa: x29 32 + x19: .cfa -8 + ^ x20: .cfa -16 + ^ .ra: .cfa -24 + ^ x29: .cfa -32 + ^
STACK CFI 2f508 .cfa: sp 64 +
STACK CFI 2f514 .cfa: sp 0 +
STACK CFI 2f518 .cfa: x29 32 +
STACK CFI INIT 2f5c4 8c .cfa: sp 0 +
STACK CFI 2f5c8 .cfa: sp 64 +
STACK CFI 2f5d4 .cfa: x29 32 + x19: .cfa -8 + ^ x20: .cfa -16 + ^ .ra: .cfa -24 + ^ x29: .cfa -32 + ^
STACK CFI 2f610 .cfa: sp 64 +
STACK CFI 2f61c .cfa: sp 0 +
STACK CFI 2f620 .cfa: x29 32 +
STACK CFI INIT 2f6d8 228 .cfa: sp 0 +
STACK CFI 2f6dc .cfa: sp 96 +
STACK CFI 2f6f4 .cfa: x29 96 + x19: .cfa -8 + ^ x20: .cfa -16 + ^ x21: .cfa -24 + ^ x22: .cfa -32 + ^ x23: .cfa -40 + ^ x24: .cfa -48 + ^ x25: .cfa -56 + ^ x26: .cfa -64 + ^ x28: .cfa -80 + ^ .ra: .cfa -88 + ^ x29: .cfa -96 + ^
STACK CFI 2f838 .cfa: sp 96 +
STACK CFI 2f850 .cfa: sp 0 +
STACK CFI 2f854 .cfa: x29 96 +
STACK CFI INIT 2fb0c 248 .cfa: sp 0 +
STACK CFI 2fb10 .cfa: sp 128 +
STACK CFI 2fb28 .cfa: x29 80 + x19: .cfa -8 + ^ x20: .cfa -16 + ^ x21: .cfa -24 + ^ x22: .cfa -32 + ^ x23: .cfa -40 + ^ x24: .cfa -48 + ^ x25: .cfa -56 + ^ x26: .cfa -64 + ^ .ra: .cfa -72 + ^ x29: .cfa -80 + ^
STACK CFI 2fcb0 .cfa: sp 128 +
STACK CFI 2fcc8 .cfa: sp 0 +
STACK CFI 2fccc .cfa: x29 80 +
STACK CFI INIT 30054 f10 .cfa: sp 0 +
STACK CFI 30058 .cfa: sp 128 +
STACK CFI 30078 .cfa: x29 96 + x19: .cfa -8 + ^ x20: .cfa -16 + ^ x21: .cfa -24 + ^ x22: .cfa -32 + ^ x23: .cfa -40 + ^ x24: .cfa -48 + ^ x25: .cfa -56 + ^ x26: .cfa -64 + ^ x27: .cfa -72 + ^ x28: .cfa -80 + ^ .ra: .cfa -88 + ^ x29: .cfa -96 + ^ v8: .cfa -104 + ^ v9: .cfa -112 + ^ v10: .cfa -128 + ^
STACK CFI 30ccc .cfa: sp 128 +
STACK CFI 30cec .cfa: sp 0 +
STACK CFI 30cf0 .cfa: x29 96 +
STACK CFI INIT 310ac 54 .cfa: sp 0 +
STACK CFI 310b0 .cfa: sp 32 +
STACK CFI 310b8 .cfa: x29 32 + x19: .cfa -8 + ^ x20: .cfa -16 + ^ .ra: .cfa -24 + ^ x29: .cfa -32 + ^
STACK CFI 310e0 .cfa: sp 32 +
STACK CFI 310e8 .cfa: sp 0 +
STACK CFI 310ec .cfa: x29 32 +
STACK CFI INIT 311a0 210 .cfa: sp 0 +
STACK CFI 311a4 .cfa: sp 144 +
STACK CFI 311b4 .cfa: x29 48 + x19: .cfa -8 + ^ x20: .cfa -16 + ^ x21: .cfa -24 + ^ x22: .cfa -32 + ^ .ra: .cfa -40 + ^ x29: .cfa -48 + ^
STACK CFI 31324 .cfa: sp 144 +
STACK CFI 31334 .cfa: sp 0 +
STACK CFI 31338 .cfa: x29 48 +
STACK CFI INIT 313d8 f8 .cfa: sp 0 +
STACK CFI 313dc .cfa: sp 64 +
STACK CFI 313ec .cfa: x29 64 + x19: .cfa -8 + ^ x20: .cfa -16 + ^ x21: .cfa -24 + ^ x22: .cfa -32 + ^ x23: .cfa -48 + ^ .ra: .cfa -56 + ^ x29: .cfa -64 + ^
STACK CFI 31474 .cfa: sp 64 +
STACK CFI 31484 .cfa: sp 0 +
STACK CFI 31488 .cfa: x29 64 +
STACK CFI INIT 314d0 1d4 .cfa: sp 0 +
STACK CFI 314d4 .cfa: sp 112 +
STACK CFI 314e4 .cfa: x29 48 + x19: .cfa -8 + ^ x20: .cfa -16 + ^ x21: .cfa -24 + ^ x22: .cfa -32 + ^ .ra: .cfa -40 + ^ x29: .cfa -48 + ^
STACK CFI 315c4 .cfa: sp 112 +
STACK CFI 315d4 .cfa: sp 0 +
STACK CFI 315d8 .cfa: x29 48 +
STACK CFI INIT 316a4 12d4 .cfa: sp 0 +
STACK CFI 316a8 .cfa: sp 96 +
STACK CFI 316c0 .cfa: x29 80 + x19: .cfa -8 + ^ x20: .cfa -16 + ^ x21: .cfa -24 + ^ x22: .cfa -32 + ^ x23: .cfa -40 + ^ x24: .cfa -48 + ^ x25: .cfa -56 + ^ x28: .cfa -64 + ^ .ra: .cfa -72 + ^ x29: .cfa -80 + ^ v8: .cfa -88 + ^ v9: .cfa -96 + ^
STACK CFI 32764 .cfa: sp 96 +
STACK CFI 3277c .cfa: sp 0 +
STACK CFI 32780 .cfa: x29 80 +
STACK CFI INIT 32978 588 .cfa: sp 0 +
STACK CFI 3297c .cfa: sp 288 +
STACK CFI 32994 .cfa: x29 56 + x19: .cfa -8 + ^ x20: .cfa -16 + ^ x21: .cfa -24 + ^ x22: .cfa -32 + ^ x28: .cfa -40 + ^ .ra: .cfa -48 + ^ x29: .cfa -56 + ^ v8: .cfa -64 + ^
STACK CFI 32e14 .cfa: sp 288 +
STACK CFI 32e2c .cfa: sp 0 +
STACK CFI 32e30 .cfa: x29 56 +
STACK CFI INIT 32f00 190 .cfa: sp 0 +
STACK CFI 32f04 .cfa: sp 80 +
STACK CFI 32f14 .cfa: x29 48 + x19: .cfa -8 + ^ x20: .cfa -16 + ^ x21: .cfa -24 + ^ x22: .cfa -32 + ^ .ra: .cfa -40 + ^ x29: .cfa -48 + ^
STACK CFI 3304c .cfa: sp 80 +
STACK CFI 3305c .cfa: sp 0 +
STACK CFI 33060 .cfa: x29 48 +
STACK CFI INIT 33090 b58 .cfa: sp 0 +
STACK CFI 33094 .cfa: sp 112 +
STACK CFI 330b0 .cfa: x29 96 + x19: .cfa -8 + ^ x20: .cfa -16 + ^ x21: .cfa -24 + ^ x22: .cfa -32 + ^ x23: .cfa -40 + ^ x24: .cfa -48 + ^ x25: .cfa -56 + ^ x26: .cfa -64 + ^ x27: .cfa -72 + ^ x28: .cfa -80 + ^ .ra: .cfa -88 + ^ x29: .cfa -96 + ^ v8: .cfa -112 + ^
STACK CFI 33a0c .cfa: sp 112 +
STACK CFI 33a28 .cfa: sp 0 +
STACK CFI 33a2c .cfa: x29 96 +
STACK CFI INIT 33be8 1e8 .cfa: sp 0 +
STACK CFI 33bec .cfa: sp 160 +
STACK CFI 33bfc .cfa: x29 48 + x19: .cfa -8 + ^ x20: .cfa -16 + ^ x21: .cfa -32 + ^ .ra: .cfa -40 + ^ x29: .cfa -48 + ^
STACK CFI 33d3c .cfa: sp 160 +
STACK CFI 33d4c .cfa: sp 0 +
STACK CFI 33d50 .cfa: x29 48 +
STACK CFI INIT 34064 204 .cfa: sp 0 +
STACK CFI 34068 .cfa: sp 48 +
STACK CFI 34074 .cfa: x29 48 + x19: .cfa -8 + ^ x20: .cfa -16 + ^ x21: .cfa -32 + ^ .ra: .cfa -40 + ^ x29: .cfa -48 + ^
STACK CFI 34254 .cfa: sp 48 +
STACK CFI 34260 .cfa: sp 0 +
STACK CFI 34264 .cfa: x29 48 +
STACK CFI INIT 346e8 168 .cfa: sp 0 +
STACK CFI 346ec .cfa: sp 160 +
STACK CFI 346fc .cfa: x29 48 + x19: .cfa -8 + ^ x20: .cfa -16 + ^ x21: .cfa -32 + ^ .ra: .cfa -40 + ^ x29: .cfa -48 + ^
STACK CFI 347bc .cfa: sp 160 +
STACK CFI 347cc .cfa: sp 0 +
STACK CFI 347d0 .cfa: x29 48 +
STACK CFI INIT 34954 13c .cfa: sp 0 +
STACK CFI 34958 .cfa: sp 96 +
STACK CFI 3496c .cfa: x29 64 + x19: .cfa -8 + ^ x20: .cfa -16 + ^ x21: .cfa -24 + ^ x22: .cfa -32 + ^ x23: .cfa -48 + ^ .ra: .cfa -56 + ^ x29: .cfa -64 + ^
STACK CFI 34a40 .cfa: sp 96 +
STACK CFI 34a54 .cfa: sp 0 +
STACK CFI 34a58 .cfa: x29 64 +
STACK CFI INIT 34b0c 1bc .cfa: sp 0 +
STACK CFI 34b10 .cfa: sp 64 +
STACK CFI 34b20 .cfa: x29 48 + x19: .cfa -8 + ^ x20: .cfa -16 + ^ x21: .cfa -24 + ^ x22: .cfa -32 + ^ .ra: .cfa -40 + ^ x29: .cfa -48 + ^
STACK CFI 34bfc .cfa: sp 64 +
STACK CFI 34c0c .cfa: sp 0 +
STACK CFI 34c10 .cfa: x29 48 +
STACK CFI INIT 34f04 8c .cfa: sp 0 +
STACK CFI 34f08 .cfa: sp 64 +
STACK CFI 34f14 .cfa: x29 32 + x19: .cfa -8 + ^ x20: .cfa -16 + ^ .ra: .cfa -24 + ^ x29: .cfa -32 + ^
STACK CFI 34f50 .cfa: sp 64 +
STACK CFI 34f5c .cfa: sp 0 +
STACK CFI 34f60 .cfa: x29 32 +
STACK CFI INIT 3500c 220 .cfa: sp 0 +
STACK CFI 35010 .cfa: sp 80 +
STACK CFI 35024 .cfa: x29 80 + x19: .cfa -8 + ^ x20: .cfa -16 + ^ x21: .cfa -24 + ^ x22: .cfa -32 + ^ x23: .cfa -40 + ^ x24: .cfa -48 + ^ x25: .cfa -56 + ^ x28: .cfa -64 + ^ .ra: .cfa -72 + ^ x29: .cfa -80 + ^
STACK CFI 35168 .cfa: sp 80 +
STACK CFI 3517c .cfa: sp 0 +
STACK CFI 35180 .cfa: x29 80 +
STACK CFI INIT 35430 e4 .cfa: sp 0 +
STACK CFI 35434 .cfa: sp 48 +
STACK CFI 35440 .cfa: x29 48 + x19: .cfa -8 + ^ x20: .cfa -16 + ^ x21: .cfa -24 + ^ x22: .cfa -32 + ^ .ra: .cfa -40 + ^ x29: .cfa -48 + ^
STACK CFI 354bc .cfa: sp 48 +
STACK CFI 354c8 .cfa: sp 0 +
STACK CFI 354cc .cfa: x29 48 +
STACK CFI INIT 3561c 480 .cfa: sp 0 +
STACK CFI 35620 .cfa: sp 224 +
STACK CFI 3563c .cfa: x29 96 + x19: .cfa -8 + ^ x20: .cfa -16 + ^ x21: .cfa -24 + ^ x22: .cfa -32 + ^ x23: .cfa -40 + ^ x24: .cfa -48 + ^ x25: .cfa -56 + ^ x26: .cfa -64 + ^ x27: .cfa -80 + ^ .ra: .cfa -88 + ^ x29: .cfa -96 + ^
STACK CFI 358a8 .cfa: sp 224 +
STACK CFI 358c4 .cfa: sp 0 +
STACK CFI 358c8 .cfa: x29 96 +
STACK CFI 35994 .cfa: sp 224 +
STACK CFI 359b0 .cfa: sp 0 +
STACK CFI 359b4 .cfa: x29 96 +
STACK CFI INIT 35ab8 380 .cfa: sp 0 +
STACK CFI 35abc .cfa: sp 240 +
STACK CFI 35ad0 .cfa: x29 64 + x19: .cfa -8 + ^ x20: .cfa -16 + ^ x21: .cfa -24 + ^ x22: .cfa -32 + ^ x23: .cfa -40 + ^ x24: .cfa -48 + ^ .ra: .cfa -56 + ^ x29: .cfa -64 + ^
STACK CFI 35d0c .cfa: sp 240 +
STACK CFI 35d20 .cfa: sp 0 +
STACK CFI 35d24 .cfa: x29 64 +
STACK CFI INIT 35e88 74 .cfa: sp 0 +
STACK CFI 35e8c .cfa: sp 48 +
STACK CFI 35e98 .cfa: x29 32 + x19: .cfa -8 + ^ x20: .cfa -16 + ^ .ra: .cfa -24 + ^ x29: .cfa -32 + ^
STACK CFI 35ee4 .cfa: sp 48 +
STACK CFI 35ef0 .cfa: sp 0 +
STACK CFI 35ef4 .cfa: x29 32 +
STACK CFI INIT 35f00 154 .cfa: sp 0 +
STACK CFI 35f04 .cfa: sp 384 +
STACK CFI 35f18 .cfa: x29 64 + x19: .cfa -8 + ^ x20: .cfa -16 + ^ x21: .cfa -24 + ^ x22: .cfa -32 + ^ x23: .cfa -40 + ^ x28: .cfa -48 + ^ .ra: .cfa -56 + ^ x29: .cfa -64 + ^
STACK CFI 35ffc .cfa: sp 384 +
STACK CFI 36010 .cfa: sp 0 +
STACK CFI 36014 .cfa: x29 64 +
STACK CFI INIT 36088 12c .cfa: sp 0 +
STACK CFI 3608c .cfa: sp 80 +
STACK CFI 360a0 .cfa: x29 80 + x19: .cfa -8 + ^ x20: .cfa -16 + ^ x21: .cfa -24 + ^ x22: .cfa -32 + ^ x23: .cfa -40 + ^ x24: .cfa -48 + ^ x25: .cfa -56 + ^ x26: .cfa -64 + ^ .ra: .cfa -72 + ^ x29: .cfa -80 + ^
STACK CFI 36168 .cfa: sp 80 +
STACK CFI 3617c .cfa: sp 0 +
STACK CFI 36180 .cfa: x29 80 +
STACK CFI INIT 36258 1a4 .cfa: sp 0 +
STACK CFI 3625c .cfa: sp 112 +
STACK CFI 36274 .cfa: x29 80 + x19: .cfa -8 + ^ x20: .cfa -16 + ^ x21: .cfa -24 + ^ x22: .cfa -32 + ^ x23: .cfa -40 + ^ x24: .cfa -48 + ^ x25: .cfa -56 + ^ x26: .cfa -64 + ^ .ra: .cfa -72 + ^ x29: .cfa -80 + ^
STACK CFI 36364 .cfa: sp 112 +
STACK CFI 3637c .cfa: sp 0 +
STACK CFI 36380 .cfa: x29 80 +
STACK CFI INIT 363fc 1dc .cfa: sp 0 +
STACK CFI 36400 .cfa: sp 128 +
STACK CFI 3641c .cfa: x29 96 + x19: .cfa -8 + ^ x20: .cfa -16 + ^ x21: .cfa -24 + ^ x22: .cfa -32 + ^ x23: .cfa -40 + ^ x24: .cfa -48 + ^ x25: .cfa -56 + ^ x26: .cfa -64 + ^ x27: .cfa -80 + ^ .ra: .cfa -88 + ^ x29: .cfa -96 + ^
STACK CFI 36588 .cfa: sp 128 +
STACK CFI 365a4 .cfa: sp 0 +
STACK CFI 365a8 .cfa: x29 96 +
STACK CFI INIT 365d8 178 .cfa: sp 0 +
STACK CFI 365dc .cfa: sp 80 +
STACK CFI 365f0 .cfa: x29 80 + x19: .cfa -8 + ^ x20: .cfa -16 + ^ x21: .cfa -24 + ^ x22: .cfa -32 + ^ x23: .cfa -40 + ^ x24: .cfa -48 + ^ x25: .cfa -64 + ^ .ra: .cfa -72 + ^ x29: .cfa -80 + ^
STACK CFI 3671c .cfa: sp 80 +
STACK CFI 36730 .cfa: sp 0 +
STACK CFI 36734 .cfa: x29 80 +
STACK CFI INIT 36898 228 .cfa: sp 0 +
STACK CFI 3689c .cfa: sp 128 +
STACK CFI 368b4 .cfa: x29 80 + x19: .cfa -8 + ^ x20: .cfa -16 + ^ x21: .cfa -24 + ^ x22: .cfa -32 + ^ x23: .cfa -40 + ^ x24: .cfa -48 + ^ x25: .cfa -64 + ^ .ra: .cfa -72 + ^ x29: .cfa -80 + ^
STACK CFI 36a50 .cfa: sp 128 +
STACK CFI 36a68 .cfa: sp 0 +
STACK CFI 36a6c .cfa: x29 80 +
STACK CFI INIT 37188 224 .cfa: sp 0 +
STACK CFI 3718c .cfa: sp 112 +
STACK CFI 371a4 .cfa: x29 56 + x19: .cfa -8 + ^ x20: .cfa -16 + ^ x21: .cfa -24 + ^ x22: .cfa -32 + ^ x23: .cfa -40 + ^ .ra: .cfa -48 + ^ x29: .cfa -56 + ^ v8: .cfa -64 + ^
STACK CFI 3735c .cfa: sp 112 +
STACK CFI 37374 .cfa: sp 0 +
STACK CFI 37378 .cfa: x29 56 +
STACK CFI INIT 37460 c0 .cfa: sp 0 +
STACK CFI 37464 .cfa: sp 48 +
STACK CFI 37470 .cfa: x29 48 + x19: .cfa -8 + ^ x20: .cfa -16 + ^ x21: .cfa -32 + ^ .ra: .cfa -40 + ^ x29: .cfa -48 + ^
STACK CFI 374fc .cfa: sp 48 +
STACK CFI 37508 .cfa: sp 0 +
STACK CFI 3750c .cfa: x29 48 +
STACK CFI INIT 378bc a0c .cfa: sp 0 +
STACK CFI 378c0 .cfa: sp 256 +
STACK CFI 378dc .cfa: x29 96 + x19: .cfa -8 + ^ x20: .cfa -16 + ^ x21: .cfa -24 + ^ x22: .cfa -32 + ^ x23: .cfa -40 + ^ x24: .cfa -48 + ^ x25: .cfa -56 + ^ x26: .cfa -64 + ^ x27: .cfa -80 + ^ .ra: .cfa -88 + ^ x29: .cfa -96 + ^
STACK CFI 37a50 .cfa: sp 256 +
STACK CFI 37a6c .cfa: sp 0 +
STACK CFI 37a70 .cfa: x29 96 +
STACK CFI 38048 .cfa: sp 256 +
STACK CFI 38064 .cfa: sp 0 +
STACK CFI 38068 .cfa: x29 96 +
STACK CFI INIT 382e4 340 .cfa: sp 0 +
STACK CFI 382e8 .cfa: sp 240 +
STACK CFI 382fc .cfa: x29 64 + x19: .cfa -8 + ^ x20: .cfa -16 + ^ x21: .cfa -24 + ^ x22: .cfa -32 + ^ x23: .cfa -48 + ^ .ra: .cfa -56 + ^ x29: .cfa -64 + ^
STACK CFI 3850c .cfa: sp 240 +
STACK CFI 38520 .cfa: sp 0 +
STACK CFI 38524 .cfa: x29 64 +
STACK CFI INIT 38628 134 .cfa: sp 0 +
STACK CFI 3862c .cfa: sp 80 +
STACK CFI 3863c .cfa: x29 48 + x19: .cfa -8 + ^ x20: .cfa -16 + ^ x21: .cfa -24 + ^ x22: .cfa -32 + ^ .ra: .cfa -40 + ^ x29: .cfa -48 + ^
STACK CFI 38740 .cfa: sp 80 +
STACK CFI 38750 .cfa: sp 0 +
STACK CFI 38754 .cfa: x29 48 +
STACK CFI INIT 387d8 168 .cfa: sp 0 +
STACK CFI 387dc .cfa: sp 384 +
STACK CFI 387f0 .cfa: x29 64 + x19: .cfa -8 + ^ x20: .cfa -16 + ^ x21: .cfa -24 + ^ x22: .cfa -32 + ^ x23: .cfa -40 + ^ x28: .cfa -48 + ^ .ra: .cfa -56 + ^ x29: .cfa -64 + ^
STACK CFI 388e8 .cfa: sp 384 +
STACK CFI 388fc .cfa: sp 0 +
STACK CFI 38900 .cfa: x29 64 +
STACK CFI INIT 38a88 238 .cfa: sp 0 +
STACK CFI 38a8c .cfa: sp 128 +
STACK CFI 38a9c .cfa: x29 48 + x19: .cfa -8 + ^ x20: .cfa -16 + ^ x21: .cfa -24 + ^ x22: .cfa -32 + ^ .ra: .cfa -40 + ^ x29: .cfa -48 + ^
STACK CFI 38c04 .cfa: sp 128 +
STACK CFI 38c14 .cfa: sp 0 +
STACK CFI 38c18 .cfa: x29 48 +
STACK CFI 38c64 .cfa: sp 128 +
STACK CFI 38c74 .cfa: sp 0 +
STACK CFI 38c78 .cfa: x29 48 +
STACK CFI INIT 38ce8 74 .cfa: sp 0 +
STACK CFI 38cec .cfa: sp 48 +
STACK CFI 38cf8 .cfa: x29 32 + x19: .cfa -8 + ^ x20: .cfa -16 + ^ .ra: .cfa -24 + ^ x29: .cfa -32 + ^
STACK CFI 38d44 .cfa: sp 48 +
STACK CFI 38d50 .cfa: sp 0 +
STACK CFI 38d54 .cfa: x29 32 +
STACK CFI INIT 38d78 174 .cfa: sp 0 +
STACK CFI 38d7c .cfa: sp 112 +
STACK CFI 38d8c .cfa: x29 48 + x19: .cfa -8 + ^ x20: .cfa -16 + ^ x21: .cfa -32 + ^ .ra: .cfa -40 + ^ x29: .cfa -48 + ^
STACK CFI 38e88 .cfa: sp 112 +
STACK CFI 38e98 .cfa: sp 0 +
STACK CFI 38e9c .cfa: x29 48 +
STACK CFI INIT 3902c da8 .cfa: sp 0 +
STACK CFI 39030 .cfa: sp 96 +
STACK CFI 39048 .cfa: x29 96 + x19: .cfa -8 + ^ x20: .cfa -16 + ^ x21: .cfa -24 + ^ x22: .cfa -32 + ^ x23: .cfa -40 + ^ x24: .cfa -48 + ^ x25: .cfa -56 + ^ x26: .cfa -64 + ^ x27: .cfa -72 + ^ x28: .cfa -80 + ^ .ra: .cfa -88 + ^ x29: .cfa -96 + ^
STACK CFI 39b0c .cfa: sp 96 +
STACK CFI 39b24 .cfa: sp 0 +
STACK CFI 39b28 .cfa: x29 96 +
STACK CFI INIT 39dd4 46c .cfa: sp 0 +
STACK CFI 39dd8 .cfa: sp 80 +
STACK CFI 39dec .cfa: x29 80 + x19: .cfa -8 + ^ x20: .cfa -16 + ^ x21: .cfa -24 + ^ x22: .cfa -32 + ^ x23: .cfa -40 + ^ x24: .cfa -48 + ^ x25: .cfa -56 + ^ x28: .cfa -64 + ^ .ra: .cfa -72 + ^ x29: .cfa -80 + ^
STACK CFI 3a1a4 .cfa: sp 80 +
STACK CFI 3a1b8 .cfa: sp 0 +
STACK CFI 3a1bc .cfa: x29 80 +
STACK CFI INIT 3a5a8 198 .cfa: sp 0 +
STACK CFI 3a5ac .cfa: sp 96 +
STACK CFI 3a5bc .cfa: x29 48 + x19: .cfa -8 + ^ x20: .cfa -16 + ^ x21: .cfa -32 + ^ .ra: .cfa -40 + ^ x29: .cfa -48 + ^
STACK CFI 3a698 .cfa: sp 96 +
STACK CFI 3a6a8 .cfa: sp 0 +
STACK CFI 3a6ac .cfa: x29 48 +
STACK CFI INIT 3a7b0 600 .cfa: sp 0 +
STACK CFI 3a7b4 .cfa: sp 320 +
STACK CFI 3a7d0 .cfa: x29 96 + x19: .cfa -8 + ^ x20: .cfa -16 + ^ x21: .cfa -24 + ^ x22: .cfa -32 + ^ x23: .cfa -40 + ^ x24: .cfa -48 + ^ x25: .cfa -56 + ^ x26: .cfa -64 + ^ x28: .cfa -80 + ^ .ra: .cfa -88 + ^ x29: .cfa -96 + ^
STACK CFI 3abdc .cfa: sp 320 +
STACK CFI 3abf8 .cfa: sp 0 +
STACK CFI 3abfc .cfa: x29 96 +
STACK CFI INIT 3add8 74 .cfa: sp 0 +
STACK CFI 3addc .cfa: sp 48 +
STACK CFI 3ade8 .cfa: x29 32 + x19: .cfa -8 + ^ x20: .cfa -16 + ^ .ra: .cfa -24 + ^ x29: .cfa -32 + ^
STACK CFI 3ae34 .cfa: sp 48 +
STACK CFI 3ae40 .cfa: sp 0 +
STACK CFI 3ae44 .cfa: x29 32 +
STACK CFI INIT 3ae4c 74 .cfa: sp 0 +
STACK CFI 3ae50 .cfa: sp 48 +
STACK CFI 3ae5c .cfa: x29 32 + x19: .cfa -8 + ^ x20: .cfa -16 + ^ .ra: .cfa -24 + ^ x29: .cfa -32 + ^
STACK CFI 3aea8 .cfa: sp 48 +
STACK CFI 3aeb4 .cfa: sp 0 +
STACK CFI 3aeb8 .cfa: x29 32 +
STACK CFI INIT 3af30 158 .cfa: sp 0 +
STACK CFI 3af34 .cfa: sp 144 +
STACK CFI 3af48 .cfa: x29 64 + x19: .cfa -8 + ^ x20: .cfa -16 + ^ x21: .cfa -24 + ^ x22: .cfa -32 + ^ x23: .cfa -40 + ^ x24: .cfa -48 + ^ .ra: .cfa -56 + ^ x29: .cfa -64 + ^
STACK CFI 3b01c .cfa: sp 144 +
STACK CFI 3b030 .cfa: sp 0 +
STACK CFI 3b034 .cfa: x29 64 +
STACK CFI INIT 3b2ac a0 .cfa: sp 0 +
STACK CFI 3b2b0 .cfa: sp 32 +
STACK CFI 3b2b8 .cfa: x29 32 + x19: .cfa -8 + ^ x20: .cfa -16 + ^ .ra: .cfa -24 + ^ x29: .cfa -32 + ^
STACK CFI 3b308 .cfa: sp 32 +
STACK CFI 3b310 .cfa: sp 0 +
STACK CFI 3b314 .cfa: x29 32 +
STACK CFI 3b32c .cfa: sp 32 +
STACK CFI 3b334 .cfa: sp 0 +
STACK CFI 3b338 .cfa: x29 32 +
STACK CFI INIT 3b414 47c .cfa: sp 0 +
STACK CFI 3b418 .cfa: sp 160 +
STACK CFI 3b42c .cfa: x29 64 + x19: .cfa -8 + ^ x20: .cfa -16 + ^ x21: .cfa -24 + ^ x22: .cfa -32 + ^ x23: .cfa -48 + ^ .ra: .cfa -56 + ^ x29: .cfa -64 + ^
STACK CFI 3b724 .cfa: sp 160 +
STACK CFI 3b738 .cfa: sp 0 +
STACK CFI 3b73c .cfa: x29 64 +
STACK CFI INIT 3b8f4 480 .cfa: sp 0 +
STACK CFI 3b8f8 .cfa: sp 224 +
STACK CFI 3b914 .cfa: x29 96 + x19: .cfa -8 + ^ x20: .cfa -16 + ^ x21: .cfa -24 + ^ x22: .cfa -32 + ^ x23: .cfa -40 + ^ x24: .cfa -48 + ^ x25: .cfa -56 + ^ x26: .cfa -64 + ^ x27: .cfa -80 + ^ .ra: .cfa -88 + ^ x29: .cfa -96 + ^
STACK CFI 3bb80 .cfa: sp 224 +
STACK CFI 3bb9c .cfa: sp 0 +
STACK CFI 3bba0 .cfa: x29 96 +
STACK CFI 3bc6c .cfa: sp 224 +
STACK CFI 3bc88 .cfa: sp 0 +
STACK CFI 3bc8c .cfa: x29 96 +
STACK CFI INIT 3bd90 360 .cfa: sp 0 +
STACK CFI 3bd94 .cfa: sp 192 +
STACK CFI 3bda8 .cfa: x29 64 + x19: .cfa -8 + ^ x20: .cfa -16 + ^ x21: .cfa -24 + ^ x22: .cfa -32 + ^ x23: .cfa -40 + ^ x24: .cfa -48 + ^ .ra: .cfa -56 + ^ x29: .cfa -64 + ^
STACK CFI 3bfcc .cfa: sp 192 +
STACK CFI 3bfe0 .cfa: sp 0 +
STACK CFI 3bfe4 .cfa: x29 64 +
STACK CFI INIT 3c0f4 180 .cfa: sp 0 +
STACK CFI 3c0f8 .cfa: sp 80 +
STACK CFI 3c108 .cfa: x29 48 + x19: .cfa -8 + ^ x20: .cfa -16 + ^ x21: .cfa -24 + ^ x22: .cfa -32 + ^ .ra: .cfa -40 + ^ x29: .cfa -48 + ^
STACK CFI 3c230 .cfa: sp 80 +
STACK CFI 3c240 .cfa: sp 0 +
STACK CFI 3c244 .cfa: x29 48 +
STACK CFI INIT 3c274 c0 .cfa: sp 0 +
STACK CFI 3c278 .cfa: sp 48 +
STACK CFI 3c284 .cfa: x29 48 + x19: .cfa -8 + ^ x20: .cfa -16 + ^ x21: .cfa -32 + ^ .ra: .cfa -40 + ^ x29: .cfa -48 + ^
STACK CFI 3c310 .cfa: sp 48 +
STACK CFI 3c31c .cfa: sp 0 +
STACK CFI 3c320 .cfa: x29 48 +
STACK CFI INIT 3c334 380 .cfa: sp 0 +
STACK CFI 3c338 .cfa: sp 256 +
STACK CFI 3c34c .cfa: x29 64 + x19: .cfa -8 + ^ x20: .cfa -16 + ^ x21: .cfa -24 + ^ x22: .cfa -32 + ^ x23: .cfa -40 + ^ x24: .cfa -48 + ^ .ra: .cfa -56 + ^ x29: .cfa -64 + ^
STACK CFI 3c5d4 .cfa: sp 256 +
STACK CFI 3c5e8 .cfa: sp 0 +
STACK CFI 3c5ec .cfa: x29 64 +
STACK CFI INIT 3c6b4 53c .cfa: sp 0 +
STACK CFI 3c6b8 .cfa: sp 384 +
STACK CFI 3c6d0 .cfa: x29 80 + x19: .cfa -8 + ^ x20: .cfa -16 + ^ x21: .cfa -24 + ^ x22: .cfa -32 + ^ x23: .cfa -40 + ^ x24: .cfa -48 + ^ x25: .cfa -56 + ^ x28: .cfa -64 + ^ .ra: .cfa -72 + ^ x29: .cfa -80 + ^
STACK CFI 3ca74 .cfa: sp 384 +
STACK CFI 3ca8c .cfa: sp 0 +
STACK CFI 3ca90 .cfa: x29 80 +
STACK CFI INIT 3cc88 53c .cfa: sp 0 +
STACK CFI 3cc8c .cfa: sp 384 +
STACK CFI 3cca4 .cfa: x29 80 + x19: .cfa -8 + ^ x20: .cfa -16 + ^ x21: .cfa -24 + ^ x22: .cfa -32 + ^ x23: .cfa -40 + ^ x24: .cfa -48 + ^ x25: .cfa -56 + ^ x28: .cfa -64 + ^ .ra: .cfa -72 + ^ x29: .cfa -80 + ^
STACK CFI 3d048 .cfa: sp 384 +
STACK CFI 3d060 .cfa: sp 0 +
STACK CFI 3d064 .cfa: x29 80 +
STACK CFI INIT 3d25c 53c .cfa: sp 0 +
STACK CFI 3d260 .cfa: sp 384 +
STACK CFI 3d278 .cfa: x29 80 + x19: .cfa -8 + ^ x20: .cfa -16 + ^ x21: .cfa -24 + ^ x22: .cfa -32 + ^ x23: .cfa -40 + ^ x24: .cfa -48 + ^ x25: .cfa -56 + ^ x28: .cfa -64 + ^ .ra: .cfa -72 + ^ x29: .cfa -80 + ^
STACK CFI 3d61c .cfa: sp 384 +
STACK CFI 3d634 .cfa: sp 0 +
STACK CFI 3d638 .cfa: x29 80 +
STACK CFI INIT 3d91c 94 .cfa: sp 0 +
STACK CFI 3d920 .cfa: sp 32 +
STACK CFI 3d928 .cfa: x29 32 + x19: .cfa -8 + ^ x20: .cfa -16 + ^ .ra: .cfa -24 + ^ x29: .cfa -32 + ^
STACK CFI 3d970 .cfa: sp 32 +
STACK CFI 3d978 .cfa: sp 0 +
STACK CFI 3d97c .cfa: x29 32 +
STACK CFI 3d990 .cfa: sp 32 +
STACK CFI 3d998 .cfa: sp 0 +
STACK CFI 3d99c .cfa: x29 32 +
STACK CFI INIT 3dcc4 124 .cfa: sp 0 +
STACK CFI 3dcc8 .cfa: sp 48 +
STACK CFI 3dcd4 .cfa: x29 48 + x19: .cfa -8 + ^ x20: .cfa -16 + ^ x21: .cfa -32 + ^ .ra: .cfa -40 + ^ x29: .cfa -48 + ^
STACK CFI 3dd58 .cfa: sp 48 +
STACK CFI 3dd64 .cfa: sp 0 +
STACK CFI 3dd68 .cfa: x29 48 +
STACK CFI 3dd80 .cfa: sp 48 +
STACK CFI 3dd8c .cfa: sp 0 +
STACK CFI 3dd90 .cfa: x29 48 +
STACK CFI INIT 3dde8 118 .cfa: sp 0 +
STACK CFI 3ddec .cfa: sp 48 +
STACK CFI 3ddf8 .cfa: x29 48 + x19: .cfa -8 + ^ x20: .cfa -16 + ^ x21: .cfa -32 + ^ .ra: .cfa -40 + ^ x29: .cfa -48 + ^
STACK CFI 3de8c .cfa: sp 48 +
STACK CFI 3de98 .cfa: sp 0 +
STACK CFI 3de9c .cfa: x29 48 +
STACK CFI 3deb4 .cfa: sp 48 +
STACK CFI 3dec0 .cfa: sp 0 +
STACK CFI 3dec4 .cfa: x29 48 +
STACK CFI INIT 3e014 91c .cfa: sp 0 +
STACK CFI 3e018 .cfa: sp 384 +
STACK CFI 3e034 .cfa: x29 96 + x19: .cfa -8 + ^ x20: .cfa -16 + ^ x21: .cfa -24 + ^ x22: .cfa -32 + ^ x23: .cfa -40 + ^ x24: .cfa -48 + ^ x25: .cfa -56 + ^ x26: .cfa -64 + ^ x27: .cfa -72 + ^ x28: .cfa -80 + ^ .ra: .cfa -88 + ^ x29: .cfa -96 + ^
STACK CFI 3e5a4 .cfa: sp 384 +
STACK CFI 3e5c0 .cfa: sp 0 +
STACK CFI 3e5c4 .cfa: x29 96 +
STACK CFI INIT 3e9c0 74 .cfa: sp 0 +
STACK CFI 3e9c4 .cfa: sp 48 +
STACK CFI 3e9d0 .cfa: x29 32 + x19: .cfa -8 + ^ x20: .cfa -16 + ^ .ra: .cfa -24 + ^ x29: .cfa -32 + ^
STACK CFI 3ea1c .cfa: sp 48 +
STACK CFI 3ea28 .cfa: sp 0 +
STACK CFI 3ea2c .cfa: x29 32 +
STACK CFI INIT 3ea34 74 .cfa: sp 0 +
STACK CFI 3ea38 .cfa: sp 48 +
STACK CFI 3ea44 .cfa: x29 32 + x19: .cfa -8 + ^ x20: .cfa -16 + ^ .ra: .cfa -24 + ^ x29: .cfa -32 + ^
STACK CFI 3ea90 .cfa: sp 48 +
STACK CFI 3ea9c .cfa: sp 0 +
STACK CFI 3eaa0 .cfa: x29 32 +
STACK CFI INIT 3ead0 74 .cfa: sp 0 +
STACK CFI 3ead4 .cfa: sp 48 +
STACK CFI 3eae0 .cfa: x29 32 + x19: .cfa -8 + ^ x20: .cfa -16 + ^ .ra: .cfa -24 + ^ x29: .cfa -32 + ^
STACK CFI 3eb2c .cfa: sp 48 +
STACK CFI 3eb38 .cfa: sp 0 +
STACK CFI 3eb3c .cfa: x29 32 +
STACK CFI INIT 3eb5c 1a0 .cfa: sp 0 +
STACK CFI 3eb60 .cfa: sp 112 +
STACK CFI 3eb74 .cfa: x29 64 + x19: .cfa -8 + ^ x20: .cfa -16 + ^ x21: .cfa -24 + ^ x22: .cfa -32 + ^ x23: .cfa -40 + ^ x24: .cfa -48 + ^ .ra: .cfa -56 + ^ x29: .cfa -64 + ^
STACK CFI 3ec80 .cfa: sp 112 +
STACK CFI 3ec94 .cfa: sp 0 +
STACK CFI 3ec98 .cfa: x29 64 +
STACK CFI INIT 3ee24 9c .cfa: sp 0 +
STACK CFI 3ee28 .cfa: sp 32 +
STACK CFI 3ee30 .cfa: x29 32 + x19: .cfa -8 + ^ x20: .cfa -16 + ^ .ra: .cfa -24 + ^ x29: .cfa -32 + ^
STACK CFI 3ee7c .cfa: sp 32 +
STACK CFI 3ee84 .cfa: sp 0 +
STACK CFI 3ee88 .cfa: x29 32 +
STACK CFI 3eea0 .cfa: sp 32 +
STACK CFI 3eea8 .cfa: sp 0 +
STACK CFI 3eeac .cfa: x29 32 +
STACK CFI INIT 3efd8 184 .cfa: sp 0 +
STACK CFI 3efdc .cfa: sp 112 +
STACK CFI 3eff0 .cfa: x29 64 + x19: .cfa -8 + ^ x20: .cfa -16 + ^ x21: .cfa -24 + ^ x22: .cfa -32 + ^ x23: .cfa -48 + ^ .ra: .cfa -56 + ^ x29: .cfa -64 + ^
STACK CFI 3f0f8 .cfa: sp 112 +
STACK CFI 3f10c .cfa: sp 0 +
STACK CFI 3f110 .cfa: x29 64 +
STACK CFI INIT 3f2b0 124 .cfa: sp 0 +
STACK CFI 3f2b4 .cfa: sp 48 +
STACK CFI 3f2c0 .cfa: x29 48 + x19: .cfa -8 + ^ x20: .cfa -16 + ^ x21: .cfa -32 + ^ .ra: .cfa -40 + ^ x29: .cfa -48 + ^
STACK CFI 3f344 .cfa: sp 48 +
STACK CFI 3f350 .cfa: sp 0 +
STACK CFI 3f354 .cfa: x29 48 +
STACK CFI 3f36c .cfa: sp 48 +
STACK CFI 3f378 .cfa: sp 0 +
STACK CFI 3f37c .cfa: x29 48 +
STACK CFI INIT 3f3d4 118 .cfa: sp 0 +
STACK CFI 3f3d8 .cfa: sp 48 +
STACK CFI 3f3e4 .cfa: x29 48 + x19: .cfa -8 + ^ x20: .cfa -16 + ^ x21: .cfa -32 + ^ .ra: .cfa -40 + ^ x29: .cfa -48 + ^
STACK CFI 3f478 .cfa: sp 48 +
STACK CFI 3f484 .cfa: sp 0 +
STACK CFI 3f488 .cfa: x29 48 +
STACK CFI 3f4a0 .cfa: sp 48 +
STACK CFI 3f4ac .cfa: sp 0 +
STACK CFI 3f4b0 .cfa: x29 48 +
STACK CFI INIT 3f600 f18 .cfa: sp 0 +
STACK CFI 3f604 .cfa: sp 448 +
STACK CFI 3f620 .cfa: x29 96 + x19: .cfa -8 + ^ x20: .cfa -16 + ^ x21: .cfa -24 + ^ x22: .cfa -32 + ^ x23: .cfa -40 + ^ x24: .cfa -48 + ^ x25: .cfa -56 + ^ x26: .cfa -64 + ^ x27: .cfa -72 + ^ x28: .cfa -80 + ^ .ra: .cfa -88 + ^ x29: .cfa -96 + ^
STACK CFI 40060 .cfa: sp 448 +
STACK CFI 4007c .cfa: sp 0 +
STACK CFI 40080 .cfa: x29 96 +
STACK CFI INIT 40540 74 .cfa: sp 0 +
STACK CFI 40544 .cfa: sp 48 +
STACK CFI 40550 .cfa: x29 32 + x19: .cfa -8 + ^ x20: .cfa -16 + ^ .ra: .cfa -24 + ^ x29: .cfa -32 + ^
STACK CFI 4059c .cfa: sp 48 +
STACK CFI 405a8 .cfa: sp 0 +
STACK CFI 405ac .cfa: x29 32 +
STACK CFI INIT 405b4 74 .cfa: sp 0 +
STACK CFI 405b8 .cfa: sp 48 +
STACK CFI 405c4 .cfa: x29 32 + x19: .cfa -8 + ^ x20: .cfa -16 + ^ .ra: .cfa -24 + ^ x29: .cfa -32 + ^
STACK CFI 40610 .cfa: sp 48 +
STACK CFI 4061c .cfa: sp 0 +
STACK CFI 40620 .cfa: x29 32 +
STACK CFI INIT 42078 9c .cfa: sp 0 +
STACK CFI 4207c .cfa: sp 32 +
STACK CFI 42084 .cfa: x29 32 + x19: .cfa -8 + ^ x20: .cfa -16 + ^ .ra: .cfa -24 + ^ x29: .cfa -32 + ^
STACK CFI 420d0 .cfa: sp 32 +
STACK CFI 420d8 .cfa: sp 0 +
STACK CFI 420dc .cfa: x29 32 +
STACK CFI 420f4 .cfa: sp 32 +
STACK CFI 420fc .cfa: sp 0 +
STACK CFI 42100 .cfa: x29 32 +
STACK CFI INIT 4222c 184 .cfa: sp 0 +
STACK CFI 42230 .cfa: sp 112 +
STACK CFI 42244 .cfa: x29 64 + x19: .cfa -8 + ^ x20: .cfa -16 + ^ x21: .cfa -24 + ^ x22: .cfa -32 + ^ x23: .cfa -48 + ^ .ra: .cfa -56 + ^ x29: .cfa -64 + ^
STACK CFI 4234c .cfa: sp 112 +
STACK CFI 42360 .cfa: sp 0 +
STACK CFI 42364 .cfa: x29 64 +
STACK CFI INIT 42504 124 .cfa: sp 0 +
STACK CFI 42508 .cfa: sp 48 +
STACK CFI 42514 .cfa: x29 48 + x19: .cfa -8 + ^ x20: .cfa -16 + ^ x21: .cfa -32 + ^ .ra: .cfa -40 + ^ x29: .cfa -48 + ^
STACK CFI 42598 .cfa: sp 48 +
STACK CFI 425a4 .cfa: sp 0 +
STACK CFI 425a8 .cfa: x29 48 +
STACK CFI 425c0 .cfa: sp 48 +
STACK CFI 425cc .cfa: sp 0 +
STACK CFI 425d0 .cfa: x29 48 +
STACK CFI INIT 42628 118 .cfa: sp 0 +
STACK CFI 4262c .cfa: sp 48 +
STACK CFI 42638 .cfa: x29 48 + x19: .cfa -8 + ^ x20: .cfa -16 + ^ x21: .cfa -32 + ^ .ra: .cfa -40 + ^ x29: .cfa -48 + ^
STACK CFI 426cc .cfa: sp 48 +
STACK CFI 426d8 .cfa: sp 0 +
STACK CFI 426dc .cfa: x29 48 +
STACK CFI 426f4 .cfa: sp 48 +
STACK CFI 42700 .cfa: sp 0 +
STACK CFI 42704 .cfa: x29 48 +
STACK CFI INIT 42854 810 .cfa: sp 0 +
STACK CFI 42858 .cfa: sp 352 +
STACK CFI 42874 .cfa: x29 96 + x19: .cfa -8 + ^ x20: .cfa -16 + ^ x21: .cfa -24 + ^ x22: .cfa -32 + ^ x23: .cfa -40 + ^ x24: .cfa -48 + ^ x25: .cfa -56 + ^ x26: .cfa -64 + ^ x27: .cfa -72 + ^ x28: .cfa -80 + ^ .ra: .cfa -88 + ^ x29: .cfa -96 + ^
STACK CFI 42a3c .cfa: sp 352 +
STACK CFI 42a58 .cfa: sp 0 +
STACK CFI 42a5c .cfa: x29 96 +
STACK CFI INIT 43134 9c .cfa: sp 0 +
STACK CFI 43138 .cfa: sp 32 +
STACK CFI 43140 .cfa: x29 32 + x19: .cfa -8 + ^ x20: .cfa -16 + ^ .ra: .cfa -24 + ^ x29: .cfa -32 + ^
STACK CFI 4318c .cfa: sp 32 +
STACK CFI 43194 .cfa: sp 0 +
STACK CFI 43198 .cfa: x29 32 +
STACK CFI 431b0 .cfa: sp 32 +
STACK CFI 431b8 .cfa: sp 0 +
STACK CFI 431bc .cfa: x29 32 +
STACK CFI INIT 432e8 184 .cfa: sp 0 +
STACK CFI 432ec .cfa: sp 112 +
STACK CFI 43300 .cfa: x29 64 + x19: .cfa -8 + ^ x20: .cfa -16 + ^ x21: .cfa -24 + ^ x22: .cfa -32 + ^ x23: .cfa -48 + ^ .ra: .cfa -56 + ^ x29: .cfa -64 + ^
STACK CFI 43408 .cfa: sp 112 +
STACK CFI 4341c .cfa: sp 0 +
STACK CFI 43420 .cfa: x29 64 +
STACK CFI INIT 4351c 134 .cfa: sp 0 +
STACK CFI 43520 .cfa: sp 80 +
STACK CFI 4352c .cfa: x29 32 + x19: .cfa -8 + ^ x20: .cfa -16 + ^ .ra: .cfa -24 + ^ x29: .cfa -32 + ^
STACK CFI 4355c .cfa: sp 80 +
STACK CFI 43568 .cfa: sp 0 +
STACK CFI 4356c .cfa: x29 32 +
STACK CFI INIT 43650 78 .cfa: sp 0 +
STACK CFI 43654 .cfa: sp 32 +
STACK CFI 4365c .cfa: x29 32 + x19: .cfa -8 + ^ x20: .cfa -16 + ^ .ra: .cfa -24 + ^ x29: .cfa -32 + ^
STACK CFI 43668 .cfa: sp 32 +
STACK CFI 43670 .cfa: sp 0 +
STACK CFI 43674 .cfa: x29 32 +
STACK CFI INIT 436c8 74 .cfa: sp 0 +
STACK CFI 436cc .cfa: sp 48 +
STACK CFI 436d8 .cfa: x29 32 + x19: .cfa -8 + ^ x20: .cfa -16 + ^ .ra: .cfa -24 + ^ x29: .cfa -32 + ^
STACK CFI 43724 .cfa: sp 48 +
STACK CFI 43730 .cfa: sp 0 +
STACK CFI 43734 .cfa: x29 32 +
STACK CFI INIT 437a0 224 .cfa: sp 0 +
STACK CFI 437a4 .cfa: sp 128 +
STACK CFI 437b4 .cfa: x29 48 + x19: .cfa -8 + ^ x20: .cfa -16 + ^ x21: .cfa -32 + ^ .ra: .cfa -40 + ^ x29: .cfa -48 + ^
STACK CFI 43864 .cfa: sp 128 +
STACK CFI 43874 .cfa: sp 0 +
STACK CFI 43878 .cfa: x29 48 +
STACK CFI INIT 43a0c 284 .cfa: sp 0 +
STACK CFI 43a10 .cfa: sp 128 +
STACK CFI 43a20 .cfa: x29 48 + x19: .cfa -8 + ^ x20: .cfa -16 + ^ x21: .cfa -32 + ^ .ra: .cfa -40 + ^ x29: .cfa -48 + ^
STACK CFI 43b38 .cfa: sp 128 +
STACK CFI 43b48 .cfa: sp 0 +
STACK CFI 43b4c .cfa: x29 48 +
STACK CFI INIT 43ce4 1b8 .cfa: sp 0 +
STACK CFI 43ce8 .cfa: sp 160 +
STACK CFI 43d04 .cfa: x29 72 + x19: .cfa -8 + ^ x20: .cfa -16 + ^ x21: .cfa -24 + ^ x22: .cfa -32 + ^ x23: .cfa -40 + ^ x24: .cfa -48 + ^ x25: .cfa -56 + ^ .ra: .cfa -64 + ^ x29: .cfa -72 + ^ v8: .cfa -80 + ^
STACK CFI 43d88 .cfa: sp 160 +
STACK CFI 43da4 .cfa: sp 0 +
STACK CFI 43da8 .cfa: x29 72 +
STACK CFI INIT 43e9c 16c .cfa: sp 0 +
STACK CFI 43ea0 .cfa: sp 64 +
STACK CFI 43eb0 .cfa: x29 48 + x19: .cfa -8 + ^ x20: .cfa -16 + ^ x21: .cfa -24 + ^ x22: .cfa -32 + ^ .ra: .cfa -40 + ^ x29: .cfa -48 + ^
STACK CFI 43fa8 .cfa: sp 64 +
STACK CFI 43fb8 .cfa: sp 0 +
STACK CFI 43fbc .cfa: x29 48 +
STACK CFI INIT 44008 200 .cfa: sp 0 +
STACK CFI 4400c .cfa: sp 208 +
STACK CFI 4402c .cfa: x29 96 + x19: .cfa -8 + ^ x20: .cfa -16 + ^ x21: .cfa -24 + ^ x22: .cfa -32 + ^ x23: .cfa -40 + ^ x24: .cfa -48 + ^ x25: .cfa -56 + ^ x26: .cfa -64 + ^ x27: .cfa -72 + ^ x28: .cfa -80 + ^ .ra: .cfa -88 + ^ x29: .cfa -96 + ^ v8: .cfa -112 + ^
STACK CFI 440e8 .cfa: sp 208 +
STACK CFI 44108 .cfa: sp 0 +
STACK CFI 4410c .cfa: x29 96 +
STACK CFI INIT 44208 438 .cfa: sp 0 +
STACK CFI 4420c .cfa: sp 96 +
STACK CFI 44220 .cfa: x29 64 + x19: .cfa -8 + ^ x20: .cfa -16 + ^ x21: .cfa -24 + ^ x22: .cfa -32 + ^ x23: .cfa -40 + ^ x24: .cfa -48 + ^ .ra: .cfa -56 + ^ x29: .cfa -64 + ^
STACK CFI 445d0 .cfa: sp 96 +
STACK CFI 445e4 .cfa: sp 0 +
STACK CFI 445e8 .cfa: x29 64 +
STACK CFI INIT 44640 180 .cfa: sp 0 +
STACK CFI 44644 .cfa: sp 128 +
STACK CFI 44654 .cfa: x29 48 + x19: .cfa -8 + ^ x20: .cfa -16 + ^ x21: .cfa -24 + ^ x22: .cfa -32 + ^ .ra: .cfa -40 + ^ x29: .cfa -48 + ^
STACK CFI 446b8 .cfa: sp 128 +
STACK CFI 446c8 .cfa: sp 0 +
STACK CFI 446cc .cfa: x29 48 +
STACK CFI INIT 447c0 a4 .cfa: sp 0 +
STACK CFI 447c4 .cfa: sp 48 +
STACK CFI 447d0 .cfa: x29 48 + x19: .cfa -8 + ^ x20: .cfa -16 + ^ x21: .cfa -32 + ^ .ra: .cfa -40 + ^ x29: .cfa -48 + ^
STACK CFI 4483c .cfa: sp 48 +
STACK CFI 44848 .cfa: sp 0 +
STACK CFI 4484c .cfa: x29 48 +
STACK CFI INIT 44864 1ac .cfa: sp 0 +
STACK CFI 44868 .cfa: sp 160 +
STACK CFI 4487c .cfa: x29 48 + x19: .cfa -8 + ^ x20: .cfa -16 + ^ x21: .cfa -24 + ^ x22: .cfa -32 + ^ .ra: .cfa -40 + ^ x29: .cfa -48 + ^ v8: .cfa -64 + ^
STACK CFI 448fc .cfa: sp 160 +
STACK CFI 44910 .cfa: sp 0 +
STACK CFI 44914 .cfa: x29 48 +
STACK CFI INIT 44a10 104 .cfa: sp 0 +
STACK CFI 44a14 .cfa: sp 64 +
STACK CFI 44a24 .cfa: x29 48 + x19: .cfa -8 + ^ x20: .cfa -16 + ^ x21: .cfa -24 + ^ x22: .cfa -32 + ^ .ra: .cfa -40 + ^ x29: .cfa -48 + ^
STACK CFI 44acc .cfa: sp 64 +
STACK CFI 44adc .cfa: sp 0 +
STACK CFI 44ae0 .cfa: x29 48 +
STACK CFI INIT 44b14 2a0 .cfa: sp 0 +
STACK CFI 44b18 .cfa: sp 144 +
STACK CFI 44b2c .cfa: x29 64 + x19: .cfa -8 + ^ x20: .cfa -16 + ^ x21: .cfa -24 + ^ x22: .cfa -32 + ^ x23: .cfa -48 + ^ .ra: .cfa -56 + ^ x29: .cfa -64 + ^
STACK CFI 44c60 .cfa: sp 144 +
STACK CFI 44c74 .cfa: sp 0 +
STACK CFI 44c78 .cfa: x29 64 +
STACK CFI INIT 44db4 2f0 .cfa: sp 0 +
STACK CFI 44db8 .cfa: sp 144 +
STACK CFI 44dcc .cfa: x29 64 + x19: .cfa -8 + ^ x20: .cfa -16 + ^ x21: .cfa -24 + ^ x22: .cfa -32 + ^ x23: .cfa -48 + ^ .ra: .cfa -56 + ^ x29: .cfa -64 + ^
STACK CFI 44f50 .cfa: sp 144 +
STACK CFI 44f64 .cfa: sp 0 +
STACK CFI 44f68 .cfa: x29 64 +
STACK CFI INIT 450a4 4f4 .cfa: sp 0 +
STACK CFI 450a8 .cfa: sp 144 +
STACK CFI 450bc .cfa: x29 64 + x19: .cfa -8 + ^ x20: .cfa -16 + ^ x21: .cfa -24 + ^ x22: .cfa -32 + ^ x23: .cfa -48 + ^ .ra: .cfa -56 + ^ x29: .cfa -64 + ^
STACK CFI 453f0 .cfa: sp 144 +
STACK CFI 45404 .cfa: sp 0 +
STACK CFI 45408 .cfa: x29 64 +
STACK CFI INIT 45598 154 .cfa: sp 0 +
STACK CFI 4559c .cfa: sp 384 +
STACK CFI 455b0 .cfa: x29 64 + x19: .cfa -8 + ^ x20: .cfa -16 + ^ x21: .cfa -24 + ^ x22: .cfa -32 + ^ x23: .cfa -40 + ^ x28: .cfa -48 + ^ .ra: .cfa -56 + ^ x29: .cfa -64 + ^
STACK CFI 45694 .cfa: sp 384 +
STACK CFI 456a8 .cfa: sp 0 +
STACK CFI 456ac .cfa: x29 64 +
STACK CFI INIT 45704 50c .cfa: sp 0 +
STACK CFI 45708 .cfa: sp 64 +
STACK CFI 45718 .cfa: x29 64 + x19: .cfa -8 + ^ x20: .cfa -16 + ^ x21: .cfa -24 + ^ x22: .cfa -32 + ^ x23: .cfa -40 + ^ x24: .cfa -48 + ^ .ra: .cfa -56 + ^ x29: .cfa -64 + ^
STACK CFI 45838 .cfa: sp 64 +
STACK CFI 45848 .cfa: sp 0 +
STACK CFI 4584c .cfa: x29 64 +
STACK CFI 45be4 .cfa: sp 64 +
STACK CFI 45bf4 .cfa: sp 0 +
STACK CFI 45bf8 .cfa: x29 64 +
STACK CFI INIT 45f54 294 .cfa: sp 0 +
STACK CFI 45f58 .cfa: sp 240 +
STACK CFI 45f70 .cfa: x29 80 + x19: .cfa -8 + ^ x20: .cfa -16 + ^ x21: .cfa -24 + ^ x22: .cfa -32 + ^ x23: .cfa -40 + ^ x24: .cfa -48 + ^ x25: .cfa -64 + ^ .ra: .cfa -72 + ^ x29: .cfa -80 + ^
STACK CFI 46110 .cfa: sp 240 +
STACK CFI 46128 .cfa: sp 0 +
STACK CFI 4612c .cfa: x29 80 +
STACK CFI INIT 46264 50 .cfa: sp 0 +
STACK CFI 46268 .cfa: sp 32 +
STACK CFI 46270 .cfa: x29 32 + x19: .cfa -8 + ^ x20: .cfa -16 + ^ .ra: .cfa -24 + ^ x29: .cfa -32 + ^
STACK CFI INIT 462e0 7c0 .cfa: sp 0 +
STACK CFI 462e4 .cfa: sp 320 +
STACK CFI 46300 .cfa: x29 96 + x19: .cfa -8 + ^ x20: .cfa -16 + ^ x21: .cfa -24 + ^ x22: .cfa -32 + ^ x23: .cfa -40 + ^ x24: .cfa -48 + ^ x25: .cfa -56 + ^ x26: .cfa -64 + ^ x27: .cfa -72 + ^ x28: .cfa -80 + ^ .ra: .cfa -88 + ^ x29: .cfa -96 + ^
STACK CFI 46950 .cfa: sp 320 +
STACK CFI 4696c .cfa: sp 0 +
STACK CFI 46970 .cfa: x29 96 +
STACK CFI INIT 46b04 13c .cfa: sp 0 +
STACK CFI 46b08 .cfa: sp 80 +
STACK CFI 46b1c .cfa: x29 80 + x19: .cfa -8 + ^ x20: .cfa -16 + ^ x21: .cfa -24 + ^ x22: .cfa -32 + ^ x23: .cfa -40 + ^ x24: .cfa -48 + ^ x28: .cfa -64 + ^ .ra: .cfa -72 + ^ x29: .cfa -80 + ^
STACK CFI 46bb0 .cfa: sp 80 +
STACK CFI 46bc4 .cfa: sp 0 +
STACK CFI 46bc8 .cfa: x29 80 +
STACK CFI INIT 4af5c c74 .cfa: sp 0 +
STACK CFI 4af60 .cfa: sp 96 +
STACK CFI 4af78 .cfa: x29 96 + x19: .cfa -8 + ^ x20: .cfa -16 + ^ x21: .cfa -24 + ^ x22: .cfa -32 + ^ x23: .cfa -40 + ^ x24: .cfa -48 + ^ x25: .cfa -56 + ^ x26: .cfa -64 + ^ x27: .cfa -72 + ^ x28: .cfa -80 + ^ .ra: .cfa -88 + ^ x29: .cfa -96 + ^
STACK CFI 4b9f0 .cfa: sp 96 +
STACK CFI 4ba08 .cfa: sp 0 +
STACK CFI 4ba0c .cfa: x29 96 +
STACK CFI INIT 4bd24 26c .cfa: sp 0 +
STACK CFI 4bd28 .cfa: sp 128 +
STACK CFI 4bd38 .cfa: x29 48 + x19: .cfa -8 + ^ x20: .cfa -16 + ^ x21: .cfa -24 + ^ x22: .cfa -32 + ^ .ra: .cfa -40 + ^ x29: .cfa -48 + ^
STACK CFI 4bedc .cfa: sp 128 +
STACK CFI 4beec .cfa: sp 0 +
STACK CFI 4bef0 .cfa: x29 48 +
STACK CFI INIT 4c320 3b8 .cfa: sp 0 +
STACK CFI 4c324 .cfa: sp 96 +
STACK CFI 4c33c .cfa: x29 96 + x19: .cfa -8 + ^ x20: .cfa -16 + ^ x21: .cfa -24 + ^ x22: .cfa -32 + ^ x23: .cfa -40 + ^ x24: .cfa -48 + ^ x25: .cfa -56 + ^ x26: .cfa -64 + ^ x27: .cfa -72 + ^ x28: .cfa -80 + ^ .ra: .cfa -88 + ^ x29: .cfa -96 + ^
STACK CFI 4c678 .cfa: sp 96 +
STACK CFI 4c690 .cfa: sp 0 +
STACK CFI 4c694 .cfa: x29 96 +
STACK CFI INIT 4c778 cb4 .cfa: sp 0 +
STACK CFI 4c77c .cfa: sp 96 +
STACK CFI 4c794 .cfa: x29 96 + x19: .cfa -8 + ^ x20: .cfa -16 + ^ x21: .cfa -24 + ^ x22: .cfa -32 + ^ x23: .cfa -40 + ^ x24: .cfa -48 + ^ x25: .cfa -56 + ^ x26: .cfa -64 + ^ x27: .cfa -72 + ^ x28: .cfa -80 + ^ .ra: .cfa -88 + ^ x29: .cfa -96 + ^
STACK CFI 4d23c .cfa: sp 96 +
STACK CFI 4d254 .cfa: sp 0 +
STACK CFI 4d258 .cfa: x29 96 +
STACK CFI INIT 4d714 afc .cfa: sp 0 +
STACK CFI 4d718 .cfa: sp 96 +
STACK CFI 4d730 .cfa: x29 96 + x19: .cfa -8 + ^ x20: .cfa -16 + ^ x21: .cfa -24 + ^ x22: .cfa -32 + ^ x23: .cfa -40 + ^ x24: .cfa -48 + ^ x25: .cfa -56 + ^ x26: .cfa -64 + ^ x27: .cfa -72 + ^ x28: .cfa -80 + ^ .ra: .cfa -88 + ^ x29: .cfa -96 + ^
STACK CFI 4e184 .cfa: sp 96 +
STACK CFI 4e19c .cfa: sp 0 +
STACK CFI 4e1a0 .cfa: x29 96 +
STACK CFI INIT 4e3ec 1430 .cfa: sp 0 +
STACK CFI 4e3f0 .cfa: sp 96 +
STACK CFI 4e408 .cfa: x29 96 + x19: .cfa -8 + ^ x20: .cfa -16 + ^ x21: .cfa -24 + ^ x22: .cfa -32 + ^ x23: .cfa -40 + ^ x24: .cfa -48 + ^ x25: .cfa -56 + ^ x26: .cfa -64 + ^ x27: .cfa -72 + ^ x28: .cfa -80 + ^ .ra: .cfa -88 + ^ x29: .cfa -96 + ^
STACK CFI 4f6a4 .cfa: sp 96 +
STACK CFI 4f6bc .cfa: sp 0 +
STACK CFI 4f6c0 .cfa: x29 96 +
STACK CFI INIT 4f940 75c .cfa: sp 0 +
STACK CFI 4f944 .cfa: sp 368 +
STACK CFI 4f960 .cfa: x29 96 + x19: .cfa -8 + ^ x20: .cfa -16 + ^ x21: .cfa -24 + ^ x22: .cfa -32 + ^ x23: .cfa -40 + ^ x24: .cfa -48 + ^ x25: .cfa -56 + ^ x26: .cfa -64 + ^ x27: .cfa -72 + ^ x28: .cfa -80 + ^ .ra: .cfa -88 + ^ x29: .cfa -96 + ^
STACK CFI 4fa14 .cfa: sp 368 +
STACK CFI 4fa30 .cfa: sp 0 +
STACK CFI 4fa34 .cfa: x29 96 +
STACK CFI 4fa88 .cfa: sp 368 +
STACK CFI 4faa4 .cfa: sp 0 +
STACK CFI 4faa8 .cfa: x29 96 +
STACK CFI INIT 5045c eb0 .cfa: sp 0 +
STACK CFI 50460 .cfa: sp 96 +
STACK CFI 50478 .cfa: x29 96 + x19: .cfa -8 + ^ x20: .cfa -16 + ^ x21: .cfa -24 + ^ x22: .cfa -32 + ^ x23: .cfa -40 + ^ x24: .cfa -48 + ^ x25: .cfa -56 + ^ x26: .cfa -64 + ^ x27: .cfa -72 + ^ x28: .cfa -80 + ^ .ra: .cfa -88 + ^ x29: .cfa -96 + ^
STACK CFI 51120 .cfa: sp 96 +
STACK CFI 51138 .cfa: sp 0 +
STACK CFI 5113c .cfa: x29 96 +
STACK CFI INIT 51680 1c9c .cfa: sp 0 +
STACK CFI 51684 .cfa: sp 112 +
STACK CFI 516a0 .cfa: x29 96 + x19: .cfa -8 + ^ x20: .cfa -16 + ^ x21: .cfa -24 + ^ x22: .cfa -32 + ^ x23: .cfa -40 + ^ x24: .cfa -48 + ^ x25: .cfa -56 + ^ x26: .cfa -64 + ^ x27: .cfa -72 + ^ x28: .cfa -80 + ^ .ra: .cfa -88 + ^ x29: .cfa -96 + ^ v8: .cfa -112 + ^
STACK CFI 51a88 .cfa: sp 112 +
STACK CFI 51aa4 .cfa: sp 0 +
STACK CFI 51aa8 .cfa: x29 96 +
STACK CFI INIT 55ae0 9a0 .cfa: sp 0 +
STACK CFI 55ae4 .cfa: sp 144 +
STACK CFI 55afc .cfa: x29 80 + x19: .cfa -8 + ^ x20: .cfa -16 + ^ x21: .cfa -24 + ^ x22: .cfa -32 + ^ x23: .cfa -40 + ^ x24: .cfa -48 + ^ x25: .cfa -64 + ^ .ra: .cfa -72 + ^ x29: .cfa -80 + ^
STACK CFI 563fc .cfa: sp 144 +
STACK CFI 56414 .cfa: sp 0 +
STACK CFI 56418 .cfa: x29 80 +
STACK CFI INIT 579a4 57c .cfa: sp 0 +
STACK CFI 579a8 .cfa: sp 96 +
STACK CFI 579c0 .cfa: x29 96 + x19: .cfa -8 + ^ x20: .cfa -16 + ^ x21: .cfa -24 + ^ x22: .cfa -32 + ^ x23: .cfa -40 + ^ x24: .cfa -48 + ^ x25: .cfa -56 + ^ x26: .cfa -64 + ^ x27: .cfa -72 + ^ x28: .cfa -80 + ^ .ra: .cfa -88 + ^ x29: .cfa -96 + ^
STACK CFI 57e84 .cfa: sp 96 +
STACK CFI 57e9c .cfa: sp 0 +
STACK CFI 57ea0 .cfa: x29 96 +
STACK CFI INIT 57f20 67c .cfa: sp 0 +
STACK CFI 57f24 .cfa: sp 96 +
STACK CFI 57f3c .cfa: x29 96 + x19: .cfa -8 + ^ x20: .cfa -16 + ^ x21: .cfa -24 + ^ x22: .cfa -32 + ^ x23: .cfa -40 + ^ x24: .cfa -48 + ^ x25: .cfa -56 + ^ x26: .cfa -64 + ^ x27: .cfa -72 + ^ x28: .cfa -80 + ^ .ra: .cfa -88 + ^ x29: .cfa -96 + ^
STACK CFI 58500 .cfa: sp 96 +
STACK CFI 58518 .cfa: sp 0 +
STACK CFI 5851c .cfa: x29 96 +
