MODULE Linux arm64 6EFC50B8F272A949EF4F821215359DB60 viper.object_pinning.android64.so
INFO CODE_ID B850FC6E72F249A9EF4F821215359DB60FA780FE
INFO GENERATOR mozilla/dump_syms 2.3.4
PUBLIC 1ed80 0 __on_dlclose
PUBLIC 1ed90 0 __emutls_unregister_key
PUBLIC 1ed98 0 __on_dlclose_late
PUBLIC 1eda0 0 __atexit_handler_wrapper
PUBLIC 1edb4 0 atexit
PUBLIC 1edd0 0 pthread_atfork
PUBLIC 1ede0 0 unwind_phase2
PUBLIC 1ef14 0 _Unwind_Resume
PUBLIC 1ef98 0 unwind_phase2_forced
PUBLIC m 1f08c 0 __unw_init_local
PUBLIC m 1f134 0 __unw_get_reg
PUBLIC 1f1b0 0 __unw_step_stage2
PUBLIC m 1f1c4 0 __unw_get_proc_info
PUBLIC m 1f204 0 __unw_resume
PUBLIC 1f22c 0 libunwind::CFI_Parser<libunwind::LocalAddressSpace>::decodeFDE(libunwind::LocalAddressSpace&, unsigned long, libunwind::CFI_Parser<libunwind::LocalAddressSpace>::FDE_Info*, libunwind::CFI_Parser<libunwind::LocalAddressSpace>::CIE_Info*, bool)
PUBLIC 1f3bc 0 libunwind::CFI_Parser<libunwind::LocalAddressSpace>::parseCIE(libunwind::LocalAddressSpace&, unsigned long, libunwind::CFI_Parser<libunwind::LocalAddressSpace>::CIE_Info*)
PUBLIC 1f684 0 libunwind::AbstractUnwindCursor::~AbstractUnwindCursor()
PUBLIC 1f68c 0 libunwind::UnwindCursor<libunwind::LocalAddressSpace, libunwind::Registers_arm64>::~UnwindCursor()
PUBLIC 1f694 0 libunwind::UnwindCursor<libunwind::LocalAddressSpace, libunwind::Registers_arm64>::validReg(int)
PUBLIC 1f6d8 0 libunwind::UnwindCursor<libunwind::LocalAddressSpace, libunwind::Registers_arm64>::getReg(int)
PUBLIC 1f7c0 0 libunwind::UnwindCursor<libunwind::LocalAddressSpace, libunwind::Registers_arm64>::setReg(int, unsigned long)
PUBLIC 1f8a8 0 libunwind::UnwindCursor<libunwind::LocalAddressSpace, libunwind::Registers_arm64>::validFloatReg(int)
PUBLIC 1f8bc 0 libunwind::UnwindCursor<libunwind::LocalAddressSpace, libunwind::Registers_arm64>::getFloatReg(int)
PUBLIC 1f8cc 0 libunwind::UnwindCursor<libunwind::LocalAddressSpace, libunwind::Registers_arm64>::setFloatReg(int, double)
PUBLIC 1f8dc 0 libunwind::UnwindCursor<libunwind::LocalAddressSpace, libunwind::Registers_arm64>::step(bool)
PUBLIC 1f9cc 0 libunwind::UnwindCursor<libunwind::LocalAddressSpace, libunwind::Registers_arm64>::getInfo(unw_proc_info_t*)
PUBLIC 1fa10 0 libunwind::UnwindCursor<libunwind::LocalAddressSpace, libunwind::Registers_arm64>::jumpto()
PUBLIC 1fa1c 0 libunwind::UnwindCursor<libunwind::LocalAddressSpace, libunwind::Registers_arm64>::isSignalFrame()
PUBLIC 1fa28 0 libunwind::UnwindCursor<libunwind::LocalAddressSpace, libunwind::Registers_arm64>::getFunctionName(char*, unsigned long, unsigned long*)
PUBLIC 1fa54 0 libunwind::UnwindCursor<libunwind::LocalAddressSpace, libunwind::Registers_arm64>::setInfoBasedOnIPRegister(bool)
PUBLIC 1fcd4 0 libunwind::UnwindCursor<libunwind::LocalAddressSpace, libunwind::Registers_arm64>::getRegisterName(int)
PUBLIC 1fce0 0 libunwind::UnwindCursor<libunwind::LocalAddressSpace, libunwind::Registers_arm64>::stepThroughSigReturn(libunwind::Registers_arm64&)
PUBLIC 1fe00 0 libunwind::DwarfInstructions<libunwind::LocalAddressSpace, libunwind::Registers_arm64>::stepWithDwarf(libunwind::LocalAddressSpace&, unsigned long, unsigned long, libunwind::Registers_arm64&, bool&, bool)
PUBLIC 20288 0 libunwind::CFI_Parser<libunwind::LocalAddressSpace>::parseFDEInstructions(libunwind::LocalAddressSpace&, libunwind::CFI_Parser<libunwind::LocalAddressSpace>::FDE_Info const&, libunwind::CFI_Parser<libunwind::LocalAddressSpace>::CIE_Info const&, unsigned long, int, libunwind::CFI_Parser<libunwind::LocalAddressSpace>::PrologInfo*)
PUBLIC 20ed0 0 libunwind::DwarfInstructions<libunwind::LocalAddressSpace, libunwind::Registers_arm64>::getCFA(libunwind::LocalAddressSpace&, libunwind::CFI_Parser<libunwind::LocalAddressSpace>::PrologInfo const&, libunwind::Registers_arm64 const&)
PUBLIC 21004 0 libunwind::DwarfInstructions<libunwind::LocalAddressSpace, libunwind::Registers_arm64>::getSavedRegister(libunwind::LocalAddressSpace&, libunwind::Registers_arm64 const&, unsigned long, libunwind::CFI_Parser<libunwind::LocalAddressSpace>::RegisterLocation const&)
PUBLIC 21214 0 libunwind::LocalAddressSpace::getEncodedP(unsigned long&, unsigned long, unsigned char, unsigned long)
PUBLIC 215a0 0 libunwind::LocalAddressSpace::getULEB128(unsigned long&, unsigned long)
PUBLIC 21768 0 libunwind::DwarfInstructions<libunwind::LocalAddressSpace, libunwind::Registers_arm64>::evaluateExpression(unsigned long, libunwind::LocalAddressSpace&, libunwind::Registers_arm64 const&, unsigned long)
PUBLIC 22124 0 libunwind::UnwindCursor<libunwind::LocalAddressSpace, libunwind::Registers_arm64>::getInfoFromDwarfSection(unsigned long, libunwind::UnwindInfoSections const&, unsigned int)
PUBLIC 223f8 0 libunwind::findUnwindSectionsByPhdr(dl_phdr_info*, unsigned long, void*)
PUBLIC 2252c 0 libunwind::EHHeaderParser<libunwind::LocalAddressSpace>::decodeEHHdr(libunwind::LocalAddressSpace&, unsigned long, unsigned long, libunwind::EHHeaderParser<libunwind::LocalAddressSpace>::EHHeaderInfo&)
PUBLIC 2264c 0 libunwind::CFI_Parser<libunwind::LocalAddressSpace>::findFDE(libunwind::LocalAddressSpace&, unsigned long, unsigned long, unsigned long, unsigned long, libunwind::CFI_Parser<libunwind::LocalAddressSpace>::FDE_Info*, libunwind::CFI_Parser<libunwind::LocalAddressSpace>::CIE_Info*)
PUBLIC 22814 0 libunwind::EHHeaderParser<libunwind::LocalAddressSpace>::findFDE(libunwind::LocalAddressSpace&, unsigned long, unsigned long, unsigned int, libunwind::CFI_Parser<libunwind::LocalAddressSpace>::FDE_Info*, libunwind::CFI_Parser<libunwind::LocalAddressSpace>::CIE_Info*)
PUBLIC 2297c 0 libunwind::EHHeaderParser<libunwind::LocalAddressSpace>::getTableEntrySize(unsigned char)
PUBLIC 22a78 0 libunwind::Registers_arm64::getRegisterName(int)
PUBLIC 22aa8 0 __libunwind_Registers_arm64_jumpto
PUBLIC m 22b38 0 __unw_getcontext
PUBLIC 22be0 0 __aarch64_ldadd8_relax
PUBLIC 22c10 0 init_have_lse_atomics
PUBLIC 22ca8 0 __init_cpu_features_constructor
PUBLIC 23244 0 __init_cpu_features
PUBLIC 232d0 0 __aarch64_ldadd8_acq_rel
PUBLIC 23300 0 Saved::switchcolor(std::__ndk1::basic_string<char, std::__ndk1::char_traits<char>, std::__ndk1::allocator<char> >)
PUBLIC 23454 0 ViperEditorUI::popupPrompt(int)
PUBLIC 239c8 0 __cxx_global_var_init.15
PUBLIC 23e4c 0 geode::modifier::ModifyBase<geode::modifier::ModifyDerive<CCMenuItemSpriteExtra_MobileSelector, CCMenuItemSpriteExtra> >::~ModifyBase()
PUBLIC 23e64 0 __cxx_global_var_init.16
PUBLIC 23eb0 0 geode::modifier::ModifyBase<geode::modifier::ModifyDerive<CreateMenuItem_modded, CreateMenuItem> >::~ModifyBase()
PUBLIC 23ec8 0 __cxx_global_var_init.17
PUBLIC 2434c 0 geode::modifier::ModifyBase<geode::modifier::ModifyDerive<ViperEditorUI, EditorUI> >::~ModifyBase()
PUBLIC 24364 0 __clang_call_terminate
PUBLIC 24374 0 std::__ndk1::basic_string<char, std::__ndk1::char_traits<char>, std::__ndk1::allocator<char> >::__throw_length_error[abi:ne180000]() const
PUBLIC 24388 0 std::__ndk1::__throw_length_error[abi:ne180000](char const*)
PUBLIC 243d8 0 std::length_error::length_error[abi:ne180000](char const*)
PUBLIC 24408 0 std::__throw_bad_array_new_length([abi:ne180000], void)
PUBLIC 2443c 0 geode::impl::ResultData<matjson::Value, matjson::ParseError>::~ResultData()
PUBLIC 244b0 0 geode::modifier::FieldIntermediate<ViperEditorUI, EditorUI>::self()
PUBLIC 24644 0 geode::modifier::FieldContainer::getField(unsigned long)
PUBLIC 24a88 0 geode::modifier::FieldContainer::setField(unsigned long, unsigned long, std::__ndk1::function<void (void*)>)
PUBLIC 24b94 0 geode::modifier::FieldIntermediate<ViperEditorUI, EditorUI>::fieldDestructor(void*)
PUBLIC 24bd8 0 std::__ndk1::vector<void*, std::__ndk1::allocator<void*> >::__throw_length_error[abi:ne180000]() const
PUBLIC 24bec 0 std::__ndk1::vector<std::__ndk1::function<void (void*)>, std::__ndk1::allocator<std::__ndk1::function<void (void*)> > >::__throw_length_error[abi:ne180000]() const
PUBLIC 24c00 0 std::__ndk1::vector<void*, std::__ndk1::allocator<void*> >::__throw_out_of_range[abi:ne180000]() const
PUBLIC 24c0c 0 std::__ndk1::__throw_out_of_range[abi:ne180000](char const*)
PUBLIC 24c5c 0 std::out_of_range::out_of_range[abi:ne180000](char const*)
PUBLIC 24c8c 0 std::__ndk1::vector<std::__ndk1::function<void (void*)>, std::__ndk1::allocator<std::__ndk1::function<void (void*)> > >::__throw_out_of_range[abi:ne180000]() const
PUBLIC 24c98 0 std::__ndk1::__function::__base<void (void*)>::~__base()
PUBLIC 24c9c 0 std::__ndk1::__function::__func<void (*)(void*), std::__ndk1::allocator<void (*)(void*)>, void (void*)>::~__func()
PUBLIC 24ca0 0 std::__ndk1::__function::__func<void (*)(void*), std::__ndk1::allocator<void (*)(void*)>, void (void*)>::__clone() const
PUBLIC 24cd8 0 std::__ndk1::__function::__func<void (*)(void*), std::__ndk1::allocator<void (*)(void*)>, void (void*)>::__clone(std::__ndk1::__function::__base<void (void*)>*) const
PUBLIC 24cf0 0 std::__ndk1::__function::__func<void (*)(void*), std::__ndk1::allocator<void (*)(void*)>, void (void*)>::destroy()
PUBLIC 24cf4 0 std::__ndk1::__function::__func<void (*)(void*), std::__ndk1::allocator<void (*)(void*)>, void (void*)>::destroy_deallocate()
PUBLIC 24cf8 0 std::__ndk1::__function::__func<void (*)(void*), std::__ndk1::allocator<void (*)(void*)>, void (void*)>::operator()(void*&&)
PUBLIC 24d08 0 std::__ndk1::__function::__func<void (*)(void*), std::__ndk1::allocator<void (*)(void*)>, void (void*)>::target(std::type_info const&) const
PUBLIC 24d24 0 std::__ndk1::__function::__func<void (*)(void*), std::__ndk1::allocator<void (*)(void*)>, void (void*)>::target_type() const
PUBLIC 24d30 0 std::__ndk1::__throw_bad_variant_access[abi:ne180000]()
PUBLIC 24d64 0 std::__ndk1::__variant_detail::__visitation::__base::__dispatcher<(unsigned long)0>::__dispatch[abi:ne180000]<std::__ndk1::__variant_detail::__dtor<std::__ndk1::__variant_detail::__traits<matjson::Value, std::__ndk1::__variant_detail::__traits::ParseError>, (std::__ndk1::__variant_detail::_Trait)1>::__destroy[abi:ne180000]()::{lambda(auto:1&)#1}, std::__ndk1::__variant_detail::__base<(std::__ndk1::__variant_detail::__traits<matjson::Value, std::__ndk1::__variant_detail::__traits::ParseError>)1, matjson, matjson::Value>&>(std::__ndk1::__variant_detail::__dtor<std::__ndk1::__variant_detail::__traits<matjson::Value, std::__ndk1::__variant_detail::__traits::ParseError>, (std::__ndk1::__variant_detail::_Trait)1>, std::__ndk1::__variant_detail::__base<(std::__ndk1::__variant_detail::__traits<matjson::Value, std::__ndk1::__variant_detail::__traits::ParseError>)1, matjson, matjson::Value>&)
PUBLIC 24d6c 0 std::__ndk1::__variant_detail::__visitation::__base::__dispatcher<(unsigned long)1>::__dispatch[abi:ne180000]<std::__ndk1::__variant_detail::__dtor<std::__ndk1::__variant_detail::__traits<matjson::Value, std::__ndk1::__variant_detail::__traits::ParseError>, (std::__ndk1::__variant_detail::_Trait)1>::__destroy[abi:ne180000]()::{lambda(auto:1&)#1}, std::__ndk1::__variant_detail::__base<(std::__ndk1::__variant_detail::__traits<matjson::Value, std::__ndk1::__variant_detail::__traits::ParseError>)1, matjson, matjson::Value>&>(std::__ndk1::__variant_detail::__dtor<std::__ndk1::__variant_detail::__traits<matjson::Value, std::__ndk1::__variant_detail::__traits::ParseError>, (std::__ndk1::__variant_detail::_Trait)1>, std::__ndk1::__variant_detail::__base<(std::__ndk1::__variant_detail::__traits<matjson::Value, std::__ndk1::__variant_detail::__traits::ParseError>)1, matjson, matjson::Value>&)
PUBLIC 24d80 0 std::__ndk1::basic_string<char, std::__ndk1::char_traits<char>, std::__ndk1::allocator<char> >::__init_copy_ctor_external(char const*, unsigned long)
PUBLIC 24e00 0 std::__ndk1::__function::__func<ViperEditorUI::popupPrompt(int)::{lambda(auto:1, bool)#1}, std::__ndk1::allocator<ViperEditorUI::popupPrompt(int)::{lambda(auto:1, bool)#1}>, void (FLAlertLayer*, bool)>::~__func()
PUBLIC 24e20 0 std::__ndk1::__function::__func<ViperEditorUI::popupPrompt(int)::{lambda(auto:1, bool)#1}, std::__ndk1::allocator<ViperEditorUI::popupPrompt(int)::{lambda(auto:1, bool)#1}>, void (FLAlertLayer*, bool)>::~__func()
PUBLIC 24e60 0 std::__ndk1::__function::__func<ViperEditorUI::popupPrompt(int)::{lambda(auto:1, bool)#1}, std::__ndk1::allocator<ViperEditorUI::popupPrompt(int)::{lambda(auto:1, bool)#1}>, void (FLAlertLayer*, bool)>::__clone() const
PUBLIC 24ee8 0 std::__ndk1::__function::__func<ViperEditorUI::popupPrompt(int)::{lambda(auto:1, bool)#1}, std::__ndk1::allocator<ViperEditorUI::popupPrompt(int)::{lambda(auto:1, bool)#1}>, void (FLAlertLayer*, bool)>::__clone(std::__ndk1::__function::__base<void (FLAlertLayer*, bool)>*) const
PUBLIC 24f28 0 std::__ndk1::__function::__func<ViperEditorUI::popupPrompt(int)::{lambda(auto:1, bool)#1}, std::__ndk1::allocator<ViperEditorUI::popupPrompt(int)::{lambda(auto:1, bool)#1}>, void (FLAlertLayer*, bool)>::destroy()
PUBLIC 24f3c 0 std::__ndk1::__function::__func<ViperEditorUI::popupPrompt(int)::{lambda(auto:1, bool)#1}, std::__ndk1::allocator<ViperEditorUI::popupPrompt(int)::{lambda(auto:1, bool)#1}>, void (FLAlertLayer*, bool)>::destroy_deallocate()
PUBLIC 24f70 0 std::__ndk1::__function::__func<ViperEditorUI::popupPrompt(int)::{lambda(auto:1, bool)#1}, std::__ndk1::allocator<ViperEditorUI::popupPrompt(int)::{lambda(auto:1, bool)#1}>, void (FLAlertLayer*, bool)>::operator()(FLAlertLayer*&&, bool&&)
PUBLIC 2514c 0 std::__ndk1::__function::__func<ViperEditorUI::popupPrompt(int)::{lambda(auto:1, bool)#1}, std::__ndk1::allocator<ViperEditorUI::popupPrompt(int)::{lambda(auto:1, bool)#1}>, void (FLAlertLayer*, bool)>::target(std::type_info const&) const
PUBLIC 25168 0 std::__ndk1::__function::__func<ViperEditorUI::popupPrompt(int)::{lambda(auto:1, bool)#1}, std::__ndk1::allocator<ViperEditorUI::popupPrompt(int)::{lambda(auto:1, bool)#1}>, void (FLAlertLayer*, bool)>::target_type() const
PUBLIC 25174 0 geode::Mod::setSavedValue<std::__ndk1::basic_string<char, std::__ndk1::char_traits<char>, std::__ndk1::allocator<char> > >(std::__ndk1::basic_string_view<char, std::__ndk1::char_traits<char> >, std::__ndk1::basic_string<char, std::__ndk1::char_traits<char>, std::__ndk1::allocator<char> > const&)
PUBLIC 252cc 0 ViperEditorUI::updatePinTab()
PUBLIC 256c4 0 geode::Mod::getSavedValue<std::__ndk1::basic_string<char, std::__ndk1::char_traits<char>, std::__ndk1::allocator<char> > >(std::__ndk1::basic_string_view<char, std::__ndk1::char_traits<char> >)
PUBLIC 258a4 0 geode::impl::ResultData<matjson::Value&, std::__ndk1::basic_string<char, std::__ndk1::char_traits<char>, std::__ndk1::allocator<char> > >::~ResultData()
PUBLIC 25918 0 geode::impl::ResultData<std::__ndk1::basic_string<char, std::__ndk1::char_traits<char>, std::__ndk1::allocator<char> >, std::__ndk1::basic_string<char, std::__ndk1::char_traits<char>, std::__ndk1::allocator<char> > >::~ResultData()
PUBLIC 2598c 0 std::__ndk1::basic_stringstream<char, std::__ndk1::char_traits<char>, std::__ndk1::allocator<char> >::basic_stringstream[abi:ne180000]()
PUBLIC m 25ab8 0 std::__ndk1::basic_stringstream<char, std::__ndk1::char_traits<char>, std::__ndk1::allocator<char> >::~basic_stringstream()
PUBLIC 25b38 0 geode::UnwrapException::~UnwrapException()
PUBLIC 25b5c 0 std::__ndk1::__put_character_sequence[abi:ne180000]<char, std::__ndk1::char_traits<char> >(std::__ndk1::basic_ostream<char, std::__ndk1::char_traits<char> >, std::__ndk1::basic_ostream const*, unsigned long)
PUBLIC 25d00 0 std::__ndk1::__pad_and_output[abi:ne180000]<char, std::__ndk1::char_traits<char> >(std::__ndk1::char_traits<char>, std::__ndk1::ostreambuf_iterator const*, std::__ndk1::ostreambuf_iterator const, std::__ndk1::ostreambuf_iterator const, std::__ndk1::ios_base&, std::__ndk1::ostreambuf_iterator)
PUBLIC 25edc 0 std::__ndk1::basic_stringbuf<char, std::__ndk1::char_traits<char>, std::__ndk1::allocator<char> >::str[abi:ne180000]() &&
PUBLIC 26054 0 std::__ndk1::basic_stringbuf<char, std::__ndk1::char_traits<char>, std::__ndk1::allocator<char> >::__init_buf_ptrs[abi:ne180000]()
PUBLIC 2619c 0 std::__ndk1::__variant_detail::__visitation::__base::__dispatcher<(unsigned long)0>::__dispatch[abi:ne180000]<std::__ndk1::__variant_detail::__dtor<std::__ndk1::__variant_detail::__traits<std::__ndk1::reference_wrapper<matjson::Value>, std::__ndk1::basic_string<char, std::__ndk1::char_traits<char>, std::__ndk1::allocator<char> > >, (std::__ndk1::__variant_detail::_Trait)1>::__destroy[abi:ne180000]()::{lambda(auto:1&)#1}, std::__ndk1::__variant_detail::__base<(std::__ndk1::__variant_detail::__traits<std::__ndk1::reference_wrapper<matjson::Value>, std::__ndk1::basic_string<char, std::__ndk1::char_traits<char>, std::__ndk1::allocator<char> > >)1, matjson::Value, std::__ndk1::allocator<char> >&>(std::__ndk1::__variant_detail::__dtor<std::__ndk1::__variant_detail::__traits<std::__ndk1::reference_wrapper<matjson::Value>, std::__ndk1::basic_string<char, std::__ndk1::char_traits<char>, std::__ndk1::allocator<char> > >, (std::__ndk1::__variant_detail::_Trait)1>, std::__ndk1::__variant_detail::__base<(std::__ndk1::__variant_detail::__traits<std::__ndk1::reference_wrapper<matjson::Value>, std::__ndk1::basic_string<char, std::__ndk1::char_traits<char>, std::__ndk1::allocator<char> > >)1, matjson::Value, std::__ndk1::allocator<char> >&)
PUBLIC 261a0 0 std::__ndk1::__variant_detail::__visitation::__base::__dispatcher<(unsigned long)1>::__dispatch[abi:ne180000]<std::__ndk1::__variant_detail::__dtor<std::__ndk1::__variant_detail::__traits<std::__ndk1::reference_wrapper<matjson::Value>, std::__ndk1::basic_string<char, std::__ndk1::char_traits<char>, std::__ndk1::allocator<char> > >, (std::__ndk1::__variant_detail::_Trait)1>::__destroy[abi:ne180000]()::{lambda(auto:1&)#1}, std::__ndk1::__variant_detail::__base<(std::__ndk1::__variant_detail::__traits<std::__ndk1::reference_wrapper<matjson::Value>, std::__ndk1::basic_string<char, std::__ndk1::char_traits<char>, std::__ndk1::allocator<char> > >)1, matjson::Value, std::__ndk1::allocator<char> >&>(std::__ndk1::__variant_detail::__dtor<std::__ndk1::__variant_detail::__traits<std::__ndk1::reference_wrapper<matjson::Value>, std::__ndk1::basic_string<char, std::__ndk1::char_traits<char>, std::__ndk1::allocator<char> > >, (std::__ndk1::__variant_detail::_Trait)1>, std::__ndk1::__variant_detail::__base<(std::__ndk1::__variant_detail::__traits<std::__ndk1::reference_wrapper<matjson::Value>, std::__ndk1::basic_string<char, std::__ndk1::char_traits<char>, std::__ndk1::allocator<char> > >)1, matjson::Value, std::__ndk1::allocator<char> >&)
PUBLIC 261b4 0 std::__ndk1::__variant_detail::__visitation::__base::__dispatcher<(unsigned long)0>::__dispatch[abi:ne180000]<std::__ndk1::__variant_detail::__dtor<std::__ndk1::__variant_detail::__traits<std::__ndk1::basic_string<char, std::__ndk1::char_traits<char>, std::__ndk1::allocator<char> >, std::__ndk1::allocator<char> >, (std::__ndk1::__variant_detail::_Trait)1>::__destroy[abi:ne180000]()::{lambda(auto:1&)#1}, std::__ndk1::__variant_detail::__base<(std::__ndk1::__variant_detail::__traits<std::__ndk1::basic_string<char, std::__ndk1::char_traits<char>, std::__ndk1::allocator<char> >, std::__ndk1::allocator<char> >)1, std::__ndk1::allocator<char>, std::__ndk1::allocator<char> >&>(std::__ndk1::__variant_detail::__dtor<std::__ndk1::__variant_detail::__traits<std::__ndk1::basic_string<char, std::__ndk1::char_traits<char>, std::__ndk1::allocator<char> >, std::__ndk1::allocator<char> >, (std::__ndk1::__variant_detail::_Trait)1>, std::__ndk1::__variant_detail::__base<(std::__ndk1::__variant_detail::__traits<std::__ndk1::basic_string<char, std::__ndk1::char_traits<char>, std::__ndk1::allocator<char> >, std::__ndk1::allocator<char> >)1, std::__ndk1::allocator<char>, std::__ndk1::allocator<char> >&)
PUBLIC 261c8 0 std::__ndk1::__variant_detail::__visitation::__base::__dispatcher<(unsigned long)1>::__dispatch[abi:ne180000]<std::__ndk1::__variant_detail::__dtor<std::__ndk1::__variant_detail::__traits<std::__ndk1::basic_string<char, std::__ndk1::char_traits<char>, std::__ndk1::allocator<char> >, std::__ndk1::allocator<char> >, (std::__ndk1::__variant_detail::_Trait)1>::__destroy[abi:ne180000]()::{lambda(auto:1&)#1}, std::__ndk1::__variant_detail::__base<(std::__ndk1::__variant_detail::__traits<std::__ndk1::basic_string<char, std::__ndk1::char_traits<char>, std::__ndk1::allocator<char> >, std::__ndk1::allocator<char> >)1, std::__ndk1::allocator<char>, std::__ndk1::allocator<char> >&>(std::__ndk1::__variant_detail::__dtor<std::__ndk1::__variant_detail::__traits<std::__ndk1::basic_string<char, std::__ndk1::char_traits<char>, std::__ndk1::allocator<char> >, std::__ndk1::allocator<char> >, (std::__ndk1::__variant_detail::_Trait)1>, std::__ndk1::__variant_detail::__base<(std::__ndk1::__variant_detail::__traits<std::__ndk1::basic_string<char, std::__ndk1::char_traits<char>, std::__ndk1::allocator<char> >, std::__ndk1::allocator<char> >)1, std::__ndk1::allocator<char>, std::__ndk1::allocator<char> >&)
PUBLIC 261dc 0 ViperEditorUI::getCreateBtnViperPatch(int, int, bool)
PUBLIC 26370 0 ViperEditorUI::getCreateBtnViperPatch(int, int)
PUBLIC 26d2c 0 std::__ndk1::basic_string<char, std::__ndk1::char_traits<char>, std::__ndk1::allocator<char> >::__assign_no_alias<true>(char const*, unsigned long)
PUBLIC 26dd8 0 std::__ndk1::basic_string<char, std::__ndk1::char_traits<char>, std::__ndk1::allocator<char> >::__assign_no_alias<false>(char const*, unsigned long)
PUBLIC 26ee8 0 geode::Mod::getSettingValue<std::__ndk1::basic_string<char, std::__ndk1::char_traits<char>, std::__ndk1::allocator<char> > >(std::__ndk1::basic_string_view<char, std::__ndk1::char_traits<char> >) const
PUBLIC 27078 0 ViperEditorUI::OnPinButton(cocos2d::CCObject*)
PUBLIC 282dc 0 std::__ndk1::shared_ptr<geode::StringSettingV3>::~shared_ptr[abi:ne180000]()
PUBLIC 2832c 0 geode::cast::traverseTypeinfoFor(void*, geode::cast::ClassTypeinfoType const*, char const*)
PUBLIC 28424 0 cocos2d::CCCopying::copyWithZone(cocos2d::CCZone*)
PUBLIC 2842c 0 pinPopup::~pinPopup()
PUBLIC 28504 0 pinPopup::~pinPopup()
PUBLIC 285e4 0 geode::Popup<>::registerWithTouchDispatcher()
PUBLIC 28610 0 geode::Popup<>::keyDown(cocos2d::enumKeyCodes)
PUBLIC 28638 0 cocos2d::CCLayerRGBA::setOpacityModifyRGB(bool)
PUBLIC 2863c 0 cocos2d::CCLayerRGBA::isOpacityModifyRGB()
PUBLIC 28644 0 pinPopup::setup()
PUBLIC 289b4 0 pinPopup::onClose(cocos2d::CCObject*)
PUBLIC 28a7c 0 {virtual override thunk({offset(-320)}, pinPopup::~pinPopup())}
PUBLIC 28b58 0 {virtual override thunk({offset(-320)}, pinPopup::~pinPopup())}
PUBLIC 28c3c 0 {virtual override thunk({offset(-344)}, geode::Popup<>::keyDown(cocos2d::enumKeyCodes))}
PUBLIC 28c68 0 cocos2d::CCKeyboardDelegate::keyUp(cocos2d::enumKeyCodes)
PUBLIC 28c6c 0 cocos2d::CCMouseDelegate::rightKeyDown()
PUBLIC 28c70 0 cocos2d::CCMouseDelegate::rightKeyUp()
PUBLIC 28c74 0 cocos2d::CCMouseDelegate::scrollWheel(float, float)
PUBLIC 28c78 0 {virtual override thunk({offset(-408)}, cocos2d::CCLayerRGBA::setOpacityModifyRGB(bool))}
PUBLIC 28c7c 0 {virtual override thunk({offset(-408)}, cocos2d::CCLayerRGBA::isOpacityModifyRGB())}
PUBLIC 28c84 0 geode::Popup<>::~Popup()
PUBLIC 28cf0 0 geode::Popup<>::~Popup()
PUBLIC 28cf4 0 geode::Popup<>::onClose(cocos2d::CCObject*)
PUBLIC 28e3c 0 {virtual override thunk({offset(-320)}, geode::Popup<>::~Popup())}
PUBLIC 28ea8 0 {virtual override thunk({offset(-320)}, geode::Popup<>::~Popup())}
PUBLIC 28eac 0 geode::Popup<>::CloseEvent::~CloseEvent()
PUBLIC 28f0c 0 geode::Popup<>::CloseEvent::~CloseEvent()
PUBLIC 28f7c 0 std::__ndk1::__shared_ptr_emplace<geode::Popup<>::CloseEvent::Impl, std::__ndk1::allocator<geode::Popup<>::CloseEvent::Impl> >::~__shared_ptr_emplace()
PUBLIC 28f8c 0 std::__ndk1::__shared_ptr_emplace<geode::Popup<>::CloseEvent::Impl, std::__ndk1::allocator<geode::Popup<>::CloseEvent::Impl> >::~__shared_ptr_emplace()
PUBLIC 28fbc 0 std::__ndk1::__shared_ptr_emplace<geode::Popup<>::CloseEvent::Impl, std::__ndk1::allocator<geode::Popup<>::CloseEvent::Impl> >::__on_zero_shared()
PUBLIC 28fc0 0 std::__ndk1::__shared_ptr_emplace<geode::Popup<>::CloseEvent::Impl, std::__ndk1::allocator<geode::Popup<>::CloseEvent::Impl> >::__on_zero_shared_weak()
PUBLIC 28fc4 0 std::__ndk1::__throw_bad_function_call[abi:ne180000]()
PUBLIC 28ff8 0 std::__ndk1::bad_function_call::~bad_function_call()
PUBLIC 2901c 0 pinPopup::OnPinButton(cocos2d::CCObject*)
PUBLIC 292f0 0 geode::cocos::CCArrayExt<cocos2d::CCNode*, cocos2d::CCNode>::~CCArrayExt()
PUBLIC 2930c 0 std::__ndk1::__function::__func<ViperEditorUI::OnPinButton(cocos2d::CCObject*)::{lambda()#1}, std::__ndk1::allocator<ViperEditorUI::OnPinButton(cocos2d::CCObject*)::{lambda()#1}>, void ()>::~__func()
PUBLIC 29310 0 std::__ndk1::__function::__func<ViperEditorUI::OnPinButton(cocos2d::CCObject*)::{lambda()#1}, std::__ndk1::allocator<ViperEditorUI::OnPinButton(cocos2d::CCObject*)::{lambda()#1}>, void ()>::__clone() const
PUBLIC 29344 0 std::__ndk1::__function::__func<ViperEditorUI::OnPinButton(cocos2d::CCObject*)::{lambda()#1}, std::__ndk1::allocator<ViperEditorUI::OnPinButton(cocos2d::CCObject*)::{lambda()#1}>, void ()>::__clone(std::__ndk1::__function::__base<void ()>*) const
PUBLIC 29358 0 std::__ndk1::__function::__func<ViperEditorUI::OnPinButton(cocos2d::CCObject*)::{lambda()#1}, std::__ndk1::allocator<ViperEditorUI::OnPinButton(cocos2d::CCObject*)::{lambda()#1}>, void ()>::destroy()
PUBLIC 2935c 0 std::__ndk1::__function::__func<ViperEditorUI::OnPinButton(cocos2d::CCObject*)::{lambda()#1}, std::__ndk1::allocator<ViperEditorUI::OnPinButton(cocos2d::CCObject*)::{lambda()#1}>, void ()>::destroy_deallocate()
PUBLIC 29360 0 std::__ndk1::__function::__func<ViperEditorUI::OnPinButton(cocos2d::CCObject*)::{lambda()#1}, std::__ndk1::allocator<ViperEditorUI::OnPinButton(cocos2d::CCObject*)::{lambda()#1}>, void ()>::operator()()
PUBLIC 29414 0 std::__ndk1::__function::__func<ViperEditorUI::OnPinButton(cocos2d::CCObject*)::{lambda()#1}, std::__ndk1::allocator<ViperEditorUI::OnPinButton(cocos2d::CCObject*)::{lambda()#1}>, void ()>::target(std::type_info const&) const
PUBLIC 29430 0 std::__ndk1::__function::__func<ViperEditorUI::OnPinButton(cocos2d::CCObject*)::{lambda()#1}, std::__ndk1::allocator<ViperEditorUI::OnPinButton(cocos2d::CCObject*)::{lambda()#1}>, void ()>::target_type() const
PUBLIC 2943c 0 ViperEditorUI::menuItemFromObjectString(gd::string, int)
PUBLIC 29520 0 geode::modifier::FieldIntermediate<CreateMenuItem_modded, CreateMenuItem>::self()
PUBLIC 296a8 0 geode::modifier::FieldIntermediate<CreateMenuItem_modded, CreateMenuItem>::fieldDestructor(void*)
PUBLIC 296ac 0 geode::modifier::FieldIntermediate<CCMenuItemSpriteExtra_MobileSelector, CCMenuItemSpriteExtra>::self()
PUBLIC 29834 0 geode::modifier::FieldIntermediate<CCMenuItemSpriteExtra_MobileSelector, CCMenuItemSpriteExtra>::fieldDestructor(void*)
PUBLIC 29838 0 std::__ndk1::vector<CreateMenuItem*, std::__ndk1::allocator<CreateMenuItem*> >::__throw_length_error[abi:ne180000]() const
PUBLIC 2984c 0 std::__ndk1::__function::__base<void ()>::~__base()
PUBLIC 29850 0 std::__ndk1::__function::__func<ViperEditorUI::updatePinTab()::{lambda()#1}, std::__ndk1::allocator<ViperEditorUI::updatePinTab()::{lambda()#1}>, void ()>::~__func()
PUBLIC 29854 0 std::__ndk1::__function::__func<ViperEditorUI::updatePinTab()::{lambda()#1}, std::__ndk1::allocator<ViperEditorUI::updatePinTab()::{lambda()#1}>, void ()>::__clone() const
PUBLIC 29888 0 std::__ndk1::__function::__func<ViperEditorUI::updatePinTab()::{lambda()#1}, std::__ndk1::allocator<ViperEditorUI::updatePinTab()::{lambda()#1}>, void ()>::__clone(std::__ndk1::__function::__base<void ()>*) const
PUBLIC 2989c 0 std::__ndk1::__function::__func<ViperEditorUI::updatePinTab()::{lambda()#1}, std::__ndk1::allocator<ViperEditorUI::updatePinTab()::{lambda()#1}>, void ()>::destroy()
PUBLIC 298a0 0 std::__ndk1::__function::__func<ViperEditorUI::updatePinTab()::{lambda()#1}, std::__ndk1::allocator<ViperEditorUI::updatePinTab()::{lambda()#1}>, void ()>::destroy_deallocate()
PUBLIC 298a4 0 std::__ndk1::__function::__func<ViperEditorUI::updatePinTab()::{lambda()#1}, std::__ndk1::allocator<ViperEditorUI::updatePinTab()::{lambda()#1}>, void ()>::operator()()
PUBLIC 298ac 0 std::__ndk1::__function::__func<ViperEditorUI::updatePinTab()::{lambda()#1}, std::__ndk1::allocator<ViperEditorUI::updatePinTab()::{lambda()#1}>, void ()>::target(std::type_info const&) const
PUBLIC 298c8 0 std::__ndk1::__function::__func<ViperEditorUI::updatePinTab()::{lambda()#1}, std::__ndk1::allocator<ViperEditorUI::updatePinTab()::{lambda()#1}>, void ()>::target_type() const
PUBLIC 298d4 0 ViperEditorUI::fixsprite_fix()
PUBLIC 29d64 0 std::__ndk1::vector<CreateMenuItem*, std::__ndk1::allocator<CreateMenuItem*> >::__throw_out_of_range[abi:ne180000]() const
PUBLIC 29d70 0 std::__ndk1::__function::__func<ViperEditorUI::popupPrompt(int)::{lambda(auto:1, bool)#2}, std::__ndk1::allocator<ViperEditorUI::popupPrompt(int)::{lambda(auto:1, bool)#2}>, void (FLAlertLayer*, bool)>::~__func()
PUBLIC 29d90 0 std::__ndk1::__function::__func<ViperEditorUI::popupPrompt(int)::{lambda(auto:1, bool)#2}, std::__ndk1::allocator<ViperEditorUI::popupPrompt(int)::{lambda(auto:1, bool)#2}>, void (FLAlertLayer*, bool)>::~__func()
PUBLIC 29dd0 0 std::__ndk1::__function::__func<ViperEditorUI::popupPrompt(int)::{lambda(auto:1, bool)#2}, std::__ndk1::allocator<ViperEditorUI::popupPrompt(int)::{lambda(auto:1, bool)#2}>, void (FLAlertLayer*, bool)>::__clone() const
PUBLIC 29e58 0 std::__ndk1::__function::__func<ViperEditorUI::popupPrompt(int)::{lambda(auto:1, bool)#2}, std::__ndk1::allocator<ViperEditorUI::popupPrompt(int)::{lambda(auto:1, bool)#2}>, void (FLAlertLayer*, bool)>::__clone(std::__ndk1::__function::__base<void (FLAlertLayer*, bool)>*) const
PUBLIC 29e98 0 std::__ndk1::__function::__func<ViperEditorUI::popupPrompt(int)::{lambda(auto:1, bool)#2}, std::__ndk1::allocator<ViperEditorUI::popupPrompt(int)::{lambda(auto:1, bool)#2}>, void (FLAlertLayer*, bool)>::destroy()
PUBLIC 29eac 0 std::__ndk1::__function::__func<ViperEditorUI::popupPrompt(int)::{lambda(auto:1, bool)#2}, std::__ndk1::allocator<ViperEditorUI::popupPrompt(int)::{lambda(auto:1, bool)#2}>, void (FLAlertLayer*, bool)>::destroy_deallocate()
PUBLIC 29ee0 0 std::__ndk1::__function::__func<ViperEditorUI::popupPrompt(int)::{lambda(auto:1, bool)#2}, std::__ndk1::allocator<ViperEditorUI::popupPrompt(int)::{lambda(auto:1, bool)#2}>, void (FLAlertLayer*, bool)>::operator()(FLAlertLayer*&&, bool&&)
PUBLIC 2a0ec 0 std::__ndk1::__function::__func<ViperEditorUI::popupPrompt(int)::{lambda(auto:1, bool)#2}, std::__ndk1::allocator<ViperEditorUI::popupPrompt(int)::{lambda(auto:1, bool)#2}>, void (FLAlertLayer*, bool)>::target(std::type_info const&) const
PUBLIC 2a108 0 std::__ndk1::__function::__func<ViperEditorUI::popupPrompt(int)::{lambda(auto:1, bool)#2}, std::__ndk1::allocator<ViperEditorUI::popupPrompt(int)::{lambda(auto:1, bool)#2}>, void (FLAlertLayer*, bool)>::target_type() const
PUBLIC 2a114 0 geode::modifier::ModifyDerive<CCMenuItemSpriteExtra_MobileSelector, CCMenuItemSpriteExtra>::apply()
PUBLIC 2a770 0 std::__ndk1::shared_ptr<geode::Hook>::~shared_ptr[abi:ne180000]()
PUBLIC 2a7c0 0 geode::impl::ResultData<geode::Hook*, std::__ndk1::basic_string<char, std::__ndk1::char_traits<char>, std::__ndk1::allocator<char> > >::~ResultData()
PUBLIC 2a834 0 std::__ndk1::vector<std::__ndk1::basic_string<char, std::__ndk1::char_traits<char>, std::__ndk1::allocator<char> >, std::__ndk1::allocator<std::__ndk1::basic_string<char, std::__ndk1::char_traits<char>, std::__ndk1::allocator<char> > > >::~vector[abi:ne180000]()
PUBLIC 2a8b0 0 geode::modifier::ModifyBase<geode::modifier::ModifyDerive<CCMenuItemSpriteExtra_MobileSelector, CCMenuItemSpriteExtra> >::apply()
PUBLIC 2a8b4 0 _ZN5geode15UnwrapExceptionC2IRPNS_4HookEQsr4implE18IsStringStreamableIT_EEENS_4impl5OkTagEOS5_
PUBLIC 2aa08 0 std::__ndk1::vector<std::__ndk1::basic_string<char, std::__ndk1::char_traits<char>, std::__ndk1::allocator<char> >, std::__ndk1::allocator<std::__ndk1::basic_string<char, std::__ndk1::char_traits<char>, std::__ndk1::allocator<char> > > >::__push_back_slow_path<std::__ndk1::basic_string<char, std::__ndk1::char_traits<char>, std::__ndk1::allocator<char> > const&>(std::__ndk1::basic_string<char, std::__ndk1::char_traits<char>, std::__ndk1::allocator<char> > const&)
PUBLIC 2ac2c 0 std::__ndk1::__split_buffer<std::__ndk1::basic_string<char, std::__ndk1::char_traits<char>, std::__ndk1::allocator<char> >, std::__ndk1::allocator<std::__ndk1::basic_string<char, std::__ndk1::char_traits<char>, std::__ndk1::allocator<char> > >&>::~__split_buffer()
PUBLIC 2ac94 0 std::__ndk1::vector<std::__ndk1::basic_string<char, std::__ndk1::char_traits<char>, std::__ndk1::allocator<char> >, std::__ndk1::allocator<std::__ndk1::basic_string<char, std::__ndk1::char_traits<char>, std::__ndk1::allocator<char> > > >::__throw_length_error[abi:ne180000]() const
PUBLIC 2aca8 0 std::__ndk1::__variant_detail::__visitation::__base::__dispatcher<(unsigned long)0>::__dispatch[abi:ne180000]<std::__ndk1::__variant_detail::__dtor<std::__ndk1::__variant_detail::__traits<geode::Hook*, std::__ndk1::basic_string<char, std::__ndk1::char_traits<char>, std::__ndk1::allocator<char> > >, (std::__ndk1::__variant_detail::_Trait)1>::__destroy[abi:ne180000]()::{lambda(auto:1&)#1}, std::__ndk1::__variant_detail::__base<(std::__ndk1::__variant_detail::__traits<geode::Hook*, std::__ndk1::basic_string<char, std::__ndk1::char_traits<char>, std::__ndk1::allocator<char> > >)1, geode::Hook, std::__ndk1::allocator<char> >&>(std::__ndk1::__variant_detail::__dtor<std::__ndk1::__variant_detail::__traits<geode::Hook*, std::__ndk1::basic_string<char, std::__ndk1::char_traits<char>, std::__ndk1::allocator<char> > >, (std::__ndk1::__variant_detail::_Trait)1>, std::__ndk1::__variant_detail::__base<(std::__ndk1::__variant_detail::__traits<geode::Hook*, std::__ndk1::basic_string<char, std::__ndk1::char_traits<char>, std::__ndk1::allocator<char> > >)1, geode::Hook, std::__ndk1::allocator<char> >&)
PUBLIC 2acac 0 std::__ndk1::__variant_detail::__visitation::__base::__dispatcher<(unsigned long)1>::__dispatch[abi:ne180000]<std::__ndk1::__variant_detail::__dtor<std::__ndk1::__variant_detail::__traits<geode::Hook*, std::__ndk1::basic_string<char, std::__ndk1::char_traits<char>, std::__ndk1::allocator<char> > >, (std::__ndk1::__variant_detail::_Trait)1>::__destroy[abi:ne180000]()::{lambda(auto:1&)#1}, std::__ndk1::__variant_detail::__base<(std::__ndk1::__variant_detail::__traits<geode::Hook*, std::__ndk1::basic_string<char, std::__ndk1::char_traits<char>, std::__ndk1::allocator<char> > >)1, geode::Hook, std::__ndk1::allocator<char> >&>(std::__ndk1::__variant_detail::__dtor<std::__ndk1::__variant_detail::__traits<geode::Hook*, std::__ndk1::basic_string<char, std::__ndk1::char_traits<char>, std::__ndk1::allocator<char> > >, (std::__ndk1::__variant_detail::_Trait)1>, std::__ndk1::__variant_detail::__base<(std::__ndk1::__variant_detail::__traits<geode::Hook*, std::__ndk1::basic_string<char, std::__ndk1::char_traits<char>, std::__ndk1::allocator<char> > >)1, geode::Hook, std::__ndk1::allocator<char> >&)
PUBLIC 2acc0 0 std::__ndk1::__tree<std::__ndk1::__value_type<std::__ndk1::basic_string<char, std::__ndk1::char_traits<char>, std::__ndk1::allocator<char> >, std::__ndk1::shared_ptr<geode::Hook> >, std::__ndk1::__map_value_compare<std::__ndk1::basic_string<char, std::__ndk1::char_traits<char>, std::__ndk1::allocator<char> >, std::__ndk1::__value_type<std::__ndk1::basic_string<char, std::__ndk1::char_traits<char>, std::__ndk1::allocator<char> >, std::__ndk1::shared_ptr<geode::Hook> >, std::__ndk1::less<std::__ndk1::basic_string<char, std::__ndk1::char_traits<char>, std::__ndk1::allocator<char> > >, true>, std::__ndk1::allocator<std::__ndk1::__value_type<std::__ndk1::basic_string<char, std::__ndk1::char_traits<char>, std::__ndk1::allocator<char> >, std::__ndk1::shared_ptr<geode::Hook> > > >::find<std::__ndk1::basic_string<char, std::__ndk1::char_traits<char>, std::__ndk1::allocator<char> > >(std::__ndk1::basic_string<char, std::__ndk1::char_traits<char>, std::__ndk1::allocator<char> > const&)
PUBLIC 2ade0 0 std::__ndk1::__tree<std::__ndk1::__value_type<std::__ndk1::basic_string<char, std::__ndk1::char_traits<char>, std::__ndk1::allocator<char> >, std::__ndk1::shared_ptr<geode::Hook> >, std::__ndk1::__map_value_compare<std::__ndk1::basic_string<char, std::__ndk1::char_traits<char>, std::__ndk1::allocator<char> >, std::__ndk1::__value_type<std::__ndk1::basic_string<char, std::__ndk1::char_traits<char>, std::__ndk1::allocator<char> >, std::__ndk1::shared_ptr<geode::Hook> >, std::__ndk1::less<std::__ndk1::basic_string<char, std::__ndk1::char_traits<char>, std::__ndk1::allocator<char> > >, true>, std::__ndk1::allocator<std::__ndk1::__value_type<std::__ndk1::basic_string<char, std::__ndk1::char_traits<char>, std::__ndk1::allocator<char> >, std::__ndk1::shared_ptr<geode::Hook> > > >::erase(std::__ndk1::__tree_const_iterator<std::__ndk1::__value_type<std::__ndk1::basic_string<char, std::__ndk1::char_traits<char>, std::__ndk1::allocator<char> >, std::__ndk1::shared_ptr<geode::Hook> >, std::__ndk1::__tree_node<std::__ndk1::__value_type<std::__ndk1::basic_string<char, std::__ndk1::char_traits<char>, std::__ndk1::allocator<char> >, std::__ndk1::shared_ptr<geode::Hook> >, void*>*, long>)
PUBLIC 2b284 0 std::__ndk1::__tree<std::__ndk1::__value_type<std::__ndk1::basic_string<char, std::__ndk1::char_traits<char>, std::__ndk1::allocator<char> >, std::__ndk1::shared_ptr<geode::Hook> >, std::__ndk1::__map_value_compare<std::__ndk1::basic_string<char, std::__ndk1::char_traits<char>, std::__ndk1::allocator<char> >, std::__ndk1::__value_type<std::__ndk1::basic_string<char, std::__ndk1::char_traits<char>, std::__ndk1::allocator<char> >, std::__ndk1::shared_ptr<geode::Hook> >, std::__ndk1::less<std::__ndk1::basic_string<char, std::__ndk1::char_traits<char>, std::__ndk1::allocator<char> > >, true>, std::__ndk1::allocator<std::__ndk1::__value_type<std::__ndk1::basic_string<char, std::__ndk1::char_traits<char>, std::__ndk1::allocator<char> >, std::__ndk1::shared_ptr<geode::Hook> > > >::destroy(std::__ndk1::__tree_node<std::__ndk1::__value_type<std::__ndk1::basic_string<char, std::__ndk1::char_traits<char>, std::__ndk1::allocator<char> >, std::__ndk1::shared_ptr<geode::Hook> >, void*>*)
PUBLIC 2b308 0 geode::Hook::create<void (*)(CCMenuItemSpriteExtra_MobileSelector*)>(void*, void (*)(CCMenuItemSpriteExtra_MobileSelector*), std::__ndk1::basic_string<char, std::__ndk1::char_traits<char>, std::__ndk1::allocator<char> > const&, tulip::hook::TulipConvention, tulip::hook::HookMetadata const&)
PUBLIC 2b43c 0 geode::modifier::AsStaticFunction_activate<CCMenuItemSpriteExtra_MobileSelector, void (CCMenuItemSpriteExtra_MobileSelector::*)()>::Impl<void (CCMenuItemSpriteExtra_MobileSelector::*)()>::function(CCMenuItemSpriteExtra_MobileSelector*)
PUBLIC 2b4d8 0 geode::modifier::AsStaticFunction_selected<CCMenuItemSpriteExtra_MobileSelector, void (CCMenuItemSpriteExtra_MobileSelector::*)()>::Impl<void (CCMenuItemSpriteExtra_MobileSelector::*)()>::function(CCMenuItemSpriteExtra_MobileSelector*)
PUBLIC 2b7c4 0 geode::modifier::AsStaticFunction_unselected<CCMenuItemSpriteExtra_MobileSelector, void (CCMenuItemSpriteExtra_MobileSelector::*)()>::Impl<void (CCMenuItemSpriteExtra_MobileSelector::*)()>::function(CCMenuItemSpriteExtra_MobileSelector*)
PUBLIC 2b860 0 geode::addresser::Addresser::addressOfVirtual<void, CCMenuItemSpriteExtra, >(void (CCMenuItemSpriteExtra::*)())
PUBLIC 2b94c 0 CCMenuItemSpriteExtra::CCMenuItemSpriteExtra(geode::ZeroConstructorType)
PUBLIC 2ba2c 0 std::__ndk1::shared_ptr<tulip::hook::CallingConvention>::~shared_ptr[abi:ne180000]()
PUBLIC 2ba7c 0 tulip::hook::HandlerMetadata::~HandlerMetadata()
PUBLIC 2bae0 0 std::__ndk1::__tree<std::__ndk1::__value_type<std::__ndk1::basic_string<char, std::__ndk1::char_traits<char>, std::__ndk1::allocator<char> >, std::__ndk1::shared_ptr<geode::Hook> >, std::__ndk1::__map_value_compare<std::__ndk1::basic_string<char, std::__ndk1::char_traits<char>, std::__ndk1::allocator<char> >, std::__ndk1::__value_type<std::__ndk1::basic_string<char, std::__ndk1::char_traits<char>, std::__ndk1::allocator<char> >, std::__ndk1::shared_ptr<geode::Hook> >, std::__ndk1::less<std::__ndk1::basic_string<char, std::__ndk1::char_traits<char>, std::__ndk1::allocator<char> > >, true>, std::__ndk1::allocator<std::__ndk1::__value_type<std::__ndk1::basic_string<char, std::__ndk1::char_traits<char>, std::__ndk1::allocator<char> >, std::__ndk1::shared_ptr<geode::Hook> > > >::__emplace_unique_key_args<std::__ndk1::basic_string<char, std::__ndk1::char_traits<char>, std::__ndk1::allocator<char> >, std::__ndk1::piecewise_construct_t const&, std::__ndk1::tuple<std::__ndk1::basic_string<char, std::__ndk1::char_traits<char>, std::__ndk1::allocator<char> >&&>, std::__ndk1::tuple<> >(std::__ndk1::basic_string<char, std::__ndk1::char_traits<char>, std::__ndk1::allocator<char> > const&, std::__ndk1::piecewise_construct_t const&, std::__ndk1::tuple<std::__ndk1::basic_string<char, std::__ndk1::char_traits<char>, std::__ndk1::allocator<char> >&&>, std::__ndk1::tuple<>)
PUBLIC 2bc48 0 std::__ndk1::__tree_balance_after_insert[abi:ne180000]<std::__ndk1::__tree_node_base<void*>*>(std::__ndk1::__tree_node_base<void*>*, std::__ndk1::__tree_node_base<void*>*)
PUBLIC 2bdf8 0 geode::Mod::getSettingValue<bool>(std::__ndk1::basic_string_view<char, std::__ndk1::char_traits<char> >) const
PUBLIC 2bf28 0 CCMenuItemSpriteExtra_MobileSelector::popupPrompt()
PUBLIC 2bfcc 0 cocos2d::CCSequence::create(cocos2d::CCFiniteTimeAction*, ...)
PUBLIC 2c064 0 geode::modifier::ModifyDerive<CreateMenuItem_modded, CreateMenuItem>::apply()
PUBLIC 2c068 0 geode::modifier::ModifyBase<geode::modifier::ModifyDerive<CreateMenuItem_modded, CreateMenuItem> >::apply()
PUBLIC 2c06c 0 geode::modifier::ModifyDerive<ViperEditorUI, EditorUI>::apply()
PUBLIC 2cc58 0 geode::modifier::ModifyBase<geode::modifier::ModifyDerive<ViperEditorUI, EditorUI> >::apply()
PUBLIC 2cc5c 0 geode::modifier::AsStaticFunction_getCreateBtn<ViperEditorUI, CreateMenuItem* (ViperEditorUI::*)(int, int)>::Impl<CreateMenuItem* (ViperEditorUI::*)(int, int)>::function(ViperEditorUI*, int, int)
PUBLIC 2ccbc 0 geode::modifier::AsStaticFunction_init<ViperEditorUI, bool (ViperEditorUI::*)(LevelEditorLayer*)>::Impl<bool (ViperEditorUI::*)(LevelEditorLayer*)>::function(ViperEditorUI*, LevelEditorLayer*)
PUBLIC 2cee8 0 geode::modifier::AsStaticFunction_menuItemFromObjectString<ViperEditorUI, CreateMenuItem* (ViperEditorUI::*)(gd::string, int)>::Impl<CreateMenuItem* (ViperEditorUI::*)(gd::string, int)>::function(ViperEditorUI*, gd::string, int)
PUBLIC 2cf84 0 geode::modifier::AsStaticFunction_onCreateButton<ViperEditorUI, void (ViperEditorUI::*)(cocos2d::CCObject*)>::Impl<void (ViperEditorUI::*)(cocos2d::CCObject*)>::function(ViperEditorUI*, cocos2d::CCObject*)
PUBLIC 2d0b0 0 std::__ndk1::__function::__base<cocos2d::CCNode* (EditorUI*, CCMenuItemToggler*)>::~__base()
PUBLIC 2d0b4 0 std::__ndk1::__function::__func<ViperEditorUI::init(LevelEditorLayer*)::{lambda(EditorUI*, CCMenuItemToggler*)#1}, std::__ndk1::allocator<ViperEditorUI::init(LevelEditorLayer*)::{lambda(EditorUI*, CCMenuItemToggler*)#1}>, cocos2d::CCNode* (EditorUI*, CCMenuItemToggler*)>::~__func()
PUBLIC 2d0b8 0 std::__ndk1::__function::__func<ViperEditorUI::init(LevelEditorLayer*)::{lambda(EditorUI*, CCMenuItemToggler*)#1}, std::__ndk1::allocator<ViperEditorUI::init(LevelEditorLayer*)::{lambda(EditorUI*, CCMenuItemToggler*)#1}>, cocos2d::CCNode* (EditorUI*, CCMenuItemToggler*)>::__clone() const
PUBLIC 2d0ec 0 std::__ndk1::__function::__func<ViperEditorUI::init(LevelEditorLayer*)::{lambda(EditorUI*, CCMenuItemToggler*)#1}, std::__ndk1::allocator<ViperEditorUI::init(LevelEditorLayer*)::{lambda(EditorUI*, CCMenuItemToggler*)#1}>, cocos2d::CCNode* (EditorUI*, CCMenuItemToggler*)>::__clone(std::__ndk1::__function::__base<cocos2d::CCNode* (EditorUI*, CCMenuItemToggler*)>*) const
PUBLIC 2d100 0 std::__ndk1::__function::__func<ViperEditorUI::init(LevelEditorLayer*)::{lambda(EditorUI*, CCMenuItemToggler*)#1}, std::__ndk1::allocator<ViperEditorUI::init(LevelEditorLayer*)::{lambda(EditorUI*, CCMenuItemToggler*)#1}>, cocos2d::CCNode* (EditorUI*, CCMenuItemToggler*)>::destroy()
PUBLIC 2d104 0 std::__ndk1::__function::__func<ViperEditorUI::init(LevelEditorLayer*)::{lambda(EditorUI*, CCMenuItemToggler*)#1}, std::__ndk1::allocator<ViperEditorUI::init(LevelEditorLayer*)::{lambda(EditorUI*, CCMenuItemToggler*)#1}>, cocos2d::CCNode* (EditorUI*, CCMenuItemToggler*)>::destroy_deallocate()
PUBLIC 2d108 0 std::__ndk1::__function::__func<ViperEditorUI::init(LevelEditorLayer*)::{lambda(EditorUI*, CCMenuItemToggler*)#1}, std::__ndk1::allocator<ViperEditorUI::init(LevelEditorLayer*)::{lambda(EditorUI*, CCMenuItemToggler*)#1}>, cocos2d::CCNode* (EditorUI*, CCMenuItemToggler*)>::operator()(EditorUI*&&, CCMenuItemToggler*&&)
PUBLIC 2d560 0 std::__ndk1::__function::__func<ViperEditorUI::init(LevelEditorLayer*)::{lambda(EditorUI*, CCMenuItemToggler*)#1}, std::__ndk1::allocator<ViperEditorUI::init(LevelEditorLayer*)::{lambda(EditorUI*, CCMenuItemToggler*)#1}>, cocos2d::CCNode* (EditorUI*, CCMenuItemToggler*)>::target(std::type_info const&) const
PUBLIC 2d57c 0 std::__ndk1::__function::__func<ViperEditorUI::init(LevelEditorLayer*)::{lambda(EditorUI*, CCMenuItemToggler*)#1}, std::__ndk1::allocator<ViperEditorUI::init(LevelEditorLayer*)::{lambda(EditorUI*, CCMenuItemToggler*)#1}>, cocos2d::CCNode* (EditorUI*, CCMenuItemToggler*)>::target_type() const
PUBLIC 2d588 0 std::__ndk1::__function::__base<void (EditorUI*, bool, cocos2d::CCNode*)>::~__base()
PUBLIC 2d58c 0 std::__ndk1::__function::__func<ViperEditorUI::init(LevelEditorLayer*)::{lambda(EditorUI*, bool, cocos2d::CCNode*)#1}, std::__ndk1::allocator<ViperEditorUI::init(LevelEditorLayer*)::{lambda(EditorUI*, bool, cocos2d::CCNode*)#1}>, void (EditorUI*, bool, cocos2d::CCNode*)>::~__func()
PUBLIC 2d590 0 std::__ndk1::__function::__func<ViperEditorUI::init(LevelEditorLayer*)::{lambda(EditorUI*, bool, cocos2d::CCNode*)#1}, std::__ndk1::allocator<ViperEditorUI::init(LevelEditorLayer*)::{lambda(EditorUI*, bool, cocos2d::CCNode*)#1}>, void (EditorUI*, bool, cocos2d::CCNode*)>::__clone() const
PUBLIC 2d5b4 0 std::__ndk1::__function::__func<ViperEditorUI::init(LevelEditorLayer*)::{lambda(EditorUI*, bool, cocos2d::CCNode*)#1}, std::__ndk1::allocator<ViperEditorUI::init(LevelEditorLayer*)::{lambda(EditorUI*, bool, cocos2d::CCNode*)#1}>, void (EditorUI*, bool, cocos2d::CCNode*)>::__clone(std::__ndk1::__function::__base<void (EditorUI*, bool, cocos2d::CCNode*)>*) const
PUBLIC 2d5c4 0 std::__ndk1::__function::__func<ViperEditorUI::init(LevelEditorLayer*)::{lambda(EditorUI*, bool, cocos2d::CCNode*)#1}, std::__ndk1::allocator<ViperEditorUI::init(LevelEditorLayer*)::{lambda(EditorUI*, bool, cocos2d::CCNode*)#1}>, void (EditorUI*, bool, cocos2d::CCNode*)>::destroy()
PUBLIC 2d5c8 0 std::__ndk1::__function::__func<ViperEditorUI::init(LevelEditorLayer*)::{lambda(EditorUI*, bool, cocos2d::CCNode*)#1}, std::__ndk1::allocator<ViperEditorUI::init(LevelEditorLayer*)::{lambda(EditorUI*, bool, cocos2d::CCNode*)#1}>, void (EditorUI*, bool, cocos2d::CCNode*)>::destroy_deallocate()
PUBLIC 2d5cc 0 std::__ndk1::__function::__func<ViperEditorUI::init(LevelEditorLayer*)::{lambda(EditorUI*, bool, cocos2d::CCNode*)#1}, std::__ndk1::allocator<ViperEditorUI::init(LevelEditorLayer*)::{lambda(EditorUI*, bool, cocos2d::CCNode*)#1}>, void (EditorUI*, bool, cocos2d::CCNode*)>::operator()(EditorUI*&&, bool&&, cocos2d::CCNode*&&)
PUBLIC 2d5d4 0 std::__ndk1::__function::__func<ViperEditorUI::init(LevelEditorLayer*)::{lambda(EditorUI*, bool, cocos2d::CCNode*)#1}, std::__ndk1::allocator<ViperEditorUI::init(LevelEditorLayer*)::{lambda(EditorUI*, bool, cocos2d::CCNode*)#1}>, void (EditorUI*, bool, cocos2d::CCNode*)>::target(std::type_info const&) const
PUBLIC 2d5f0 0 std::__ndk1::__function::__func<ViperEditorUI::init(LevelEditorLayer*)::{lambda(EditorUI*, bool, cocos2d::CCNode*)#1}, std::__ndk1::allocator<ViperEditorUI::init(LevelEditorLayer*)::{lambda(EditorUI*, bool, cocos2d::CCNode*)#1}>, void (EditorUI*, bool, cocos2d::CCNode*)>::target_type() const
PUBLIC 2d5fc 0 _GLOBAL__sub_I_main.cpp
PUBLIC m 2d618 0 geodeImplicitEntry
PUBLIC 2d654 0 std::__ndk1::unordered_map<void*, bool, std::__ndk1::hash<void*>, std::__ndk1::equal_to<void*>, std::__ndk1::allocator<std::__ndk1::pair<void* const, bool> > >::~unordered_map[abi:ne180000]()
PUBLIC 2d6a0 0 wrapFunction(unsigned long, tulip::hook::WrapperMetadata const&)
PUBLIC 2d7d4 0 geode::impl::ResultData<void*, std::__ndk1::basic_string<char, std::__ndk1::char_traits<char>, std::__ndk1::allocator<char> > >::unwrapErr() &
PUBLIC 2d84c 0 geode::impl::ResultData<void*, std::__ndk1::basic_string<char, std::__ndk1::char_traits<char>, std::__ndk1::allocator<char> > >::~ResultData()
PUBLIC 2d8c0 0 tulip::hook::WrapperMetadata::~WrapperMetadata()
PUBLIC 2d924 0 cocos2d::CCObject::~CCObject()
PUBLIC 2d948 0 cocos2d::CCNode::~CCNode()
PUBLIC 2d96c 0 cocos2d::CCNodeRGBA::~CCNodeRGBA()
PUBLIC 2d990 0 {virtual override thunk({offset(-320)}, cocos2d::CCLayer::~CCLayer())}
PUBLIC 2d998 0 cocos2d::CCLayer::~CCLayer()
PUBLIC 2d9bc 0 {virtual override thunk({offset(-320)}, cocos2d::CCLayer::~CCLayer())}
PUBLIC 2d9e4 0 cocos2d::CCLayerRGBA::~CCLayerRGBA()
PUBLIC 2dcbc 0 {virtual override thunk({offset(-320)}, cocos2d::CCLayerRGBA::~CCLayerRGBA())}
PUBLIC 2dcc4 0 cocos2d::CCLayerRGBA::~CCLayerRGBA()
PUBLIC 2dce8 0 {virtual override thunk({offset(-320)}, cocos2d::CCLayerRGBA::~CCLayerRGBA())}
PUBLIC 2dd10 0 cocos2d::CCLayerColor::CCLayerColor()
PUBLIC 2df60 0 {virtual override thunk({offset(-320)}, cocos2d::CCLayerColor::~CCLayerColor())}
PUBLIC 2df68 0 cocos2d::CCLayerColor::~CCLayerColor()
PUBLIC 2df8c 0 {virtual override thunk({offset(-320)}, cocos2d::CCLayerColor::~CCLayerColor())}
PUBLIC 2dfb4 0 cocos2d::CCMenuItem::~CCMenuItem()
PUBLIC 2dfd8 0 {virtual override thunk({offset(-320)}, FLAlertLayer::~FLAlertLayer())}
PUBLIC 2dfe0 0 FLAlertLayer::~FLAlertLayer()
PUBLIC 2e004 0 {virtual override thunk({offset(-320)}, FLAlertLayer::~FLAlertLayer())}
PUBLIC 2e02c 0 cocos2d::CCNodeRGBA::~CCNodeRGBA()
PUBLIC 2e2bc 0 tulip::hook::AbstractFunction::from<void, GameObject*, gd::string>(void (*)(GameObject*, gd::string))
PUBLIC 2e360 0 GameObject::addColorSprite(gd::string)
PUBLIC 2e4d8 0 cocos2d::CCMenuItem::~CCMenuItem()
PUBLIC 2e770 0 CCMenuItemSpriteExtra::~CCMenuItemSpriteExtra()
PUBLIC 2e7b4 0 CCMenuItemSpriteExtra::~CCMenuItemSpriteExtra()
PUBLIC 2e800 0 EditorUI::menuItemFromObjectString(gd::string, int)
PUBLIC 2e990 0 tulip::hook::AbstractFunction::from<CreateMenuItem*, EditorUI*, gd::string, int>(CreateMenuItem* (*)(EditorUI*, gd::string, int))
PUBLIC 2ea9c 0 gd::map<int, gd::string>::operator[](int const&)
PUBLIC 2ebf8 0 TextGameObject::updateTextObject(gd::string, bool)
PUBLIC 2ed80 0 tulip::hook::AbstractFunction::from<void, TextGameObject*, gd::string, bool>(void (*)(TextGameObject*, gd::string, bool))
PUBLIC 2ee8c 0 cocos2d::CCObject::update(float)
PUBLIC 2ee90 0 cocos2d::CCNodeRGBA::setOpacityModifyRGB(bool)
PUBLIC 2ee94 0 cocos2d::CCNodeRGBA::isOpacityModifyRGB()
PUBLIC 2ee9c 0 {virtual override thunk({offset(-320)}, cocos2d::CCNodeRGBA::setOpacityModifyRGB(bool))}
PUBLIC 2eea0 0 {virtual override thunk({offset(-320)}, cocos2d::CCNodeRGBA::isOpacityModifyRGB())}
PUBLIC 2eea8 0 cocos2d::CCLayerColor::~CCLayerColor()
PUBLIC 2f164 0 FLAlertLayer::~FLAlertLayer()
PUBLIC 2f420 0 cocos2d::CCNode::~CCNode()
PUBLIC 2f698 0 cocos2d::CCLayer::~CCLayer()
PUBLIC 2f960 0 cocos2d::CCObject::~CCObject()
PUBLIC 2fe2c 0 _ZN5geode15UnwrapExceptionC2IRPvQsr4implE18IsStringStreamableIT_EEENS_4impl5OkTagEOS4_
PUBLIC 2ff80 0 _ZN5geode15UnwrapExceptionC2IRNSt6__ndk112basic_stringIcNS2_11char_traitsIcEENS2_9allocatorIcEEEEQsr4implE18IsStringStreamableIT_EEENS_4impl6ErrTagEOSA_
PUBLIC 300e8 0 std::__ndk1::__variant_detail::__visitation::__base::__dispatcher<(unsigned long)0>::__dispatch[abi:ne180000]<std::__ndk1::__variant_detail::__dtor<std::__ndk1::__variant_detail::__traits<void*, std::__ndk1::basic_string<char, std::__ndk1::char_traits<char>, std::__ndk1::allocator<char> > >, (std::__ndk1::__variant_detail::_Trait)1>::__destroy[abi:ne180000]()::{lambda(auto:1&)#1}, std::__ndk1::__variant_detail::__base<(std::__ndk1::__variant_detail::__traits<void*, std::__ndk1::basic_string<char, std::__ndk1::char_traits<char>, std::__ndk1::allocator<char> > >)1, std::__ndk1::__variant_detail::__traits, std::__ndk1::allocator<char> >&>(std::__ndk1::__variant_detail::__dtor<std::__ndk1::__variant_detail::__traits<void*, std::__ndk1::basic_string<char, std::__ndk1::char_traits<char>, std::__ndk1::allocator<char> > >, (std::__ndk1::__variant_detail::_Trait)1>, std::__ndk1::__variant_detail::__base<(std::__ndk1::__variant_detail::__traits<void*, std::__ndk1::basic_string<char, std::__ndk1::char_traits<char>, std::__ndk1::allocator<char> > >)1, std::__ndk1::__variant_detail::__traits, std::__ndk1::allocator<char> >&)
PUBLIC 300ec 0 std::__ndk1::__variant_detail::__visitation::__base::__dispatcher<(unsigned long)1>::__dispatch[abi:ne180000]<std::__ndk1::__variant_detail::__dtor<std::__ndk1::__variant_detail::__traits<void*, std::__ndk1::basic_string<char, std::__ndk1::char_traits<char>, std::__ndk1::allocator<char> > >, (std::__ndk1::__variant_detail::_Trait)1>::__destroy[abi:ne180000]()::{lambda(auto:1&)#1}, std::__ndk1::__variant_detail::__base<(std::__ndk1::__variant_detail::__traits<void*, std::__ndk1::basic_string<char, std::__ndk1::char_traits<char>, std::__ndk1::allocator<char> > >)1, std::__ndk1::__variant_detail::__traits, std::__ndk1::allocator<char> >&>(std::__ndk1::__variant_detail::__dtor<std::__ndk1::__variant_detail::__traits<void*, std::__ndk1::basic_string<char, std::__ndk1::char_traits<char>, std::__ndk1::allocator<char> > >, (std::__ndk1::__variant_detail::_Trait)1>, std::__ndk1::__variant_detail::__base<(std::__ndk1::__variant_detail::__traits<void*, std::__ndk1::basic_string<char, std::__ndk1::char_traits<char>, std::__ndk1::allocator<char> > >)1, std::__ndk1::__variant_detail::__traits, std::__ndk1::allocator<char> >&)
PUBLIC 30100 0 geode::stl::_rb_insert_rebalance(bool, geode::stl::_rb_tree_base*, geode::stl::_rb_tree_base*, geode::stl::_rb_tree_base&)
PUBLIC 303b8 0 std::__ndk1::__hash_table<std::__ndk1::__hash_value_type<void*, bool>, std::__ndk1::__unordered_map_hasher<void*, std::__ndk1::__hash_value_type<void*, bool>, std::__ndk1::hash<void*>, std::__ndk1::equal_to<void*>, true>, std::__ndk1::__unordered_map_equal<void*, std::__ndk1::__hash_value_type<void*, bool>, std::__ndk1::equal_to<void*>, std::__ndk1::hash<void*>, true>, std::__ndk1::allocator<std::__ndk1::__hash_value_type<void*, bool> > >::__emplace_unique_key_args<void*, std::__ndk1::piecewise_construct_t const&, std::__ndk1::tuple<void* const&>, std::__ndk1::tuple<> >(void* const&, std::__ndk1::piecewise_construct_t const&, std::__ndk1::tuple<void* const&>, std::__ndk1::tuple<>)
PUBLIC 30898 0 gd::map<int, gd::string>::insert_pair(std::__ndk1::pair<int, gd::string> const&)
PUBLIC 30a98 0 __udivti3
PUBLIC 30aa4 0 __udivmodti4
PUBLIC m 30cf0 0 __eqtf2
PUBLIC 30d90 0 __unordtf2
PUBLIC 30dc8 0 fmt::v11::detail::write_loc(fmt::v11::basic_appender<char>, fmt::v11::loc_value, fmt::v11::format_specs const&, fmt::v11::detail::locale_ref)
PUBLIC 3105c 0 fmt::v11::format_facet<std::__ndk1::locale>::~format_facet()
PUBLIC 310d8 0 fmt::v11::report_error(char const*)
PUBLIC 31128 0 fmt::v11::format_error::runtime_error(char const*)
PUBLIC 31154 0 fmt::v11::format_facet<std::__ndk1::locale>::do_put(fmt::v11::basic_appender<char>, fmt::v11::loc_value, fmt::v11::format_specs const&) const
PUBLIC 31914 0 fmt::v11::detail::loc_writer<char>::~loc_writer()
PUBLIC 31978 0 fmt::v11::detail::vformat_to<char>(fmt::v11::detail::buffer<char>&, fmt::v11::basic_string_view<char>, fmt::v11::detail::vformat_args<char>::type, fmt::v11::detail::locale_ref)
PUBLIC 31ee8 0 fmt::v11::detail::is_printable(unsigned int)
PUBLIC 32110 0 fmt::v11::detail::dragonbox::to_decimal<float>(float)
PUBLIC 323ec 0 fmt::v11::detail::dragonbox::to_decimal<double>(double)
PUBLIC 32928 0 fmt::v11::basic_memory_buffer<char, (unsigned long)500, std::__ndk1::allocator<char> >::grow(fmt::v11::detail::buffer<char>&, unsigned long)
PUBLIC 329a0 0 fmt::v11::format_facet<std::__ndk1::locale>::~format_facet()
PUBLIC 32a2c 0 fmt::v11::format_error::~format_error()
PUBLIC 32a50 0 fmt::v11::detail::copy_noinline<char, char const*, fmt::v11::basic_appender<char> >(char const*, char const*, fmt::v11::basic_appender<char>)
PUBLIC 32ba0 0 fmt::v11::detail::default_arg_formatter<char>::operator()<bool>(bool)
PUBLIC 32c08 0 fmt::v11::detail::default_arg_formatter<char>::operator()<char>(char)
PUBLIC 32c98 0 fmt::v11::detail::default_arg_formatter<char>::operator()<float>(float)
PUBLIC 32d84 0 fmt::v11::detail::default_arg_formatter<char>::operator()<double>(double)
PUBLIC 32e70 0 fmt::v11::detail::default_arg_formatter<char>::operator()<char const*>(char const*)
PUBLIC 32eb8 0 fmt::v11::detail::default_arg_formatter<char>::operator()<void const*>(void const*)
PUBLIC 32f50 0 _ZN3fmt3v116detail5writeIcNS0_14basic_appenderIcEEiTnNSt6__ndk19enable_ifIXaaaasr11is_integralIT1_EE5valuentsr3std7is_sameIS7_bEE5valuentsr3std7is_sameIS7_T_EE5valueEiE4typeELi0EEET0_SB_S7_
PUBLIC 331b0 0 fmt::v11::detail::copy_noinline<char, char*, fmt::v11::basic_appender<char> >(char*, char*, fmt::v11::basic_appender<char>)
PUBLIC 33300 0 _ZN3fmt3v116detail5writeIcNS0_14basic_appenderIcEEjTnNSt6__ndk19enable_ifIXaaaasr11is_integralIT1_EE5valuentsr3std7is_sameIS7_bEE5valuentsr3std7is_sameIS7_T_EE5valueEiE4typeELi0EEET0_SB_S7_
PUBLIC 334e0 0 _ZN3fmt3v116detail5writeIcNS0_14basic_appenderIcEExTnNSt6__ndk19enable_ifIXaaaasr11is_integralIT1_EE5valuentsr3std7is_sameIS7_bEE5valuentsr3std7is_sameIS7_T_EE5valueEiE4typeELi0EEET0_SB_S7_
PUBLIC 33764 0 _ZN3fmt3v116detail5writeIcNS0_14basic_appenderIcEEyTnNSt6__ndk19enable_ifIXaaaasr11is_integralIT1_EE5valuentsr3std7is_sameIS7_bEE5valuentsr3std7is_sameIS7_T_EE5valueEiE4typeELi0EEET0_SB_S7_
PUBLIC 3396c 0 _ZN3fmt3v116detail5writeIcNS0_14basic_appenderIcEEnTnNSt6__ndk19enable_ifIXaaaasr11is_integralIT1_EE5valuentsr3std7is_sameIS7_bEE5valuentsr3std7is_sameIS7_T_EE5valueEiE4typeELi0EEET0_SB_S7_
PUBLIC 33ccc 0 _ZN3fmt3v116detail5writeIcNS0_14basic_appenderIcEEoTnNSt6__ndk19enable_ifIXaaaasr11is_integralIT1_EE5valuentsr3std7is_sameIS7_bEE5valuentsr3std7is_sameIS7_T_EE5valueEiE4typeELi0EEET0_SB_S7_
PUBLIC 33fe0 0 _ZN3fmt3v116detail5writeIcNS0_14basic_appenderIcEEbTnNSt6__ndk19enable_ifIXsr3std7is_sameIT1_bEE5valueEiE4typeELi0EEET0_SA_S7_RKNS0_12format_specsENS1_10locale_refE
PUBLIC 34270 0 fmt::v11::detail::write_int_noinline<char, fmt::v11::basic_appender<char>, unsigned int>(fmt::v11::basic_appender<char>, fmt::v11::detail::write_int_arg<unsigned int>, fmt::v11::format_specs const&, fmt::v11::detail::locale_ref)
PUBLIC 3504c 0 fmt::v11::detail::fill<char, fmt::v11::basic_appender<char> >(fmt::v11::basic_appender<char>, unsigned long, fmt::v11::detail::fill_t const&)
PUBLIC 3521c 0 fmt::v11::detail::write_padded<char, (fmt::v11::align::type)1, fmt::v11::basic_appender<char>, fmt::v11::detail::write_char<char, fmt::v11::basic_appender<char> >(fmt::v11::basic_appender<char>, char, fmt::v11::format_specs const&)::{lambda(fmt::v11::basic_appender<char>&)#1}>(fmt::v11::basic_appender<char>, fmt::v11::format_specs const&, unsigned long, unsigned long, fmt::v11::detail::write_char<char, fmt::v11::basic_appender<char> >(fmt::v11::basic_appender<char>, char, fmt::v11::format_specs const&)::{lambda(fmt::v11::basic_appender<char>&)#1})
PUBLIC 35458 0 fmt::v11::detail::write_escaped_cp<fmt::v11::basic_appender<char>, char>(fmt::v11::basic_appender<char>, fmt::v11::detail::find_escape_result<char> const&)
PUBLIC 35764 0 fmt::v11::detail::write_codepoint<(unsigned long)2, char, fmt::v11::basic_appender<char> >(fmt::v11::basic_appender<char>, char, unsigned int)
PUBLIC 358dc 0 fmt::v11::detail::write_codepoint<(unsigned long)8, char, fmt::v11::basic_appender<char> >(fmt::v11::basic_appender<char>, char, unsigned int)
PUBLIC 35a54 0 fmt::v11::detail::write_padded<char, (fmt::v11::align::type)1, fmt::v11::basic_appender<char>, fmt::v11::detail::write_nonfinite<char, fmt::v11::basic_appender<char> >(fmt::v11::basic_appender<char>, bool, fmt::v11::format_specs, fmt::v11::sign::type)::{lambda(fmt::v11::basic_appender<char>&)#1}>(fmt::v11::basic_appender<char>, fmt::v11::format_specs const&, unsigned long, unsigned long, fmt::v11::detail::write_nonfinite<char, fmt::v11::basic_appender<char> >(fmt::v11::basic_appender<char>, bool, fmt::v11::format_specs, fmt::v11::sign::type)::{lambda(fmt::v11::basic_appender<char>&)#1})
PUBLIC 35c94 0 fmt::v11::detail::do_write_float<char, fmt::v11::basic_appender<char>, fmt::v11::detail::dragonbox::decimal_fp<float>, fmt::v11::detail::digit_grouping<char> >(fmt::v11::basic_appender<char>, fmt::v11::detail::dragonbox::decimal_fp<float> const&, fmt::v11::format_specs const&, fmt::v11::detail::float_specs, fmt::v11::detail::locale_ref)
PUBLIC 36908 0 fmt::v11::detail::do_write_float<char, fmt::v11::basic_appender<char>, fmt::v11::detail::dragonbox::decimal_fp<float>, fmt::v11::detail::digit_grouping<char> >(fmt::v11::basic_appender<char>, fmt::v11::detail::dragonbox::decimal_fp<float> const&, fmt::v11::format_specs const&, fmt::v11::detail::float_specs, fmt::v11::detail::locale_ref)::{lambda(fmt::v11::basic_appender<char>(fmt::v11::basic_appender<char>))#1}::operator() const
PUBLIC 36a5c 0 fmt::v11::detail::digit_grouping<char>::digit_grouping(fmt::v11::detail::locale_ref, bool)
PUBLIC 36cc8 0 fmt::v11::detail::digit_grouping<char>::~digit_grouping()
PUBLIC 36d0c 0 fmt::v11::detail::write_exponent<char, fmt::v11::basic_appender<char> >(int, fmt::v11::basic_appender<char>)
PUBLIC 36edc 0 _ZN3fmt3v116detail17write_significandIcjTnNSt6__ndk19enable_ifIXsr3std11is_integralIT0_EE5valueEiE4typeELi0EEEPT_S9_S5_iiS8_
PUBLIC 37058 0 fmt::v11::detail::digit_grouping<char>::apply<fmt::v11::basic_appender<char>, char>(fmt::v11::basic_appender<char>, fmt::v11::basic_string_view<char>) const
PUBLIC 37410 0 fmt::v11::basic_memory_buffer<int, (unsigned long)500, std::__ndk1::allocator<int> >::grow(fmt::v11::detail::buffer<int>&, unsigned long)
PUBLIC 374b0 0 fmt::v11::detail::do_write_float<char, fmt::v11::basic_appender<char>, fmt::v11::detail::dragonbox::decimal_fp<double>, fmt::v11::detail::digit_grouping<char> >(fmt::v11::basic_appender<char>, fmt::v11::detail::dragonbox::decimal_fp<double> const&, fmt::v11::format_specs const&, fmt::v11::detail::float_specs, fmt::v11::detail::locale_ref)
PUBLIC 38164 0 fmt::v11::detail::do_write_float<char, fmt::v11::basic_appender<char>, fmt::v11::detail::dragonbox::decimal_fp<double>, fmt::v11::detail::digit_grouping<char> >(fmt::v11::basic_appender<char>, fmt::v11::detail::dragonbox::decimal_fp<double> const&, fmt::v11::format_specs const&, fmt::v11::detail::float_specs, fmt::v11::detail::locale_ref)::{lambda(fmt::v11::basic_appender<char>(fmt::v11::basic_appender<char>))#1}::operator() const
PUBLIC 382bc 0 _ZN3fmt3v116detail17write_significandIcmTnNSt6__ndk19enable_ifIXsr3std11is_integralIT0_EE5valueEiE4typeELi0EEEPT_S9_S5_iiS8_
PUBLIC 3844c 0 fmt::v11::detail::write_float<char, fmt::v11::basic_appender<char>, long double>(fmt::v11::basic_appender<char>, long double, fmt::v11::format_specs, fmt::v11::detail::locale_ref)
PUBLIC 38f48 0 fmt::v11::detail::write_padded<char, (fmt::v11::align::type)2, fmt::v11::basic_appender<char>, fmt::v11::detail::write_bytes<char, (fmt::v11::align::type)2, fmt::v11::basic_appender<char> >(fmt::v11::basic_appender<char>, fmt::v11::basic_string_view<char>, fmt::v11::format_specs const&)::{lambda(fmt::v11::basic_appender<char>&)#1}>(fmt::v11::basic_appender<char>, fmt::v11::format_specs const&, unsigned long, unsigned long, fmt::v11::detail::write_bytes<char, (fmt::v11::align::type)2, fmt::v11::basic_appender<char> >(fmt::v11::basic_appender<char>, fmt::v11::basic_string_view<char>, fmt::v11::format_specs const&)::{lambda(fmt::v11::basic_appender<char>&)#1})
PUBLIC 39124 0 fmt::v11::detail::format_dragon(fmt::v11::detail::basic_fp<unsigned __int128>, unsigned int, int, fmt::v11::detail::buffer<char>&, int&)
PUBLIC 3a554 0 fmt::v11::detail::bigint::operator<<=(int)
PUBLIC 3a678 0 fmt::v11::detail::bigint::assign_pow10(int)
PUBLIC 3add4 0 fmt::v11::detail::bigint::divmod_assign(fmt::v11::detail::bigint const&)
PUBLIC 3b0f4 0 fmt::v11::basic_memory_buffer<unsigned int, (unsigned long)32, std::__ndk1::allocator<unsigned int> >::grow(fmt::v11::detail::buffer<unsigned int>&, unsigned long)
PUBLIC 3b194 0 fmt::v11::detail::do_write_float<char, fmt::v11::basic_appender<char>, fmt::v11::detail::big_decimal_fp, fmt::v11::detail::digit_grouping<char> >(fmt::v11::basic_appender<char>, fmt::v11::detail::big_decimal_fp const&, fmt::v11::format_specs const&, fmt::v11::detail::float_specs, fmt::v11::detail::locale_ref)
PUBLIC 3c044 0 fmt::v11::detail::do_write_float<char, fmt::v11::basic_appender<char>, fmt::v11::detail::big_decimal_fp, fmt::v11::detail::digit_grouping<char> >(fmt::v11::basic_appender<char>, fmt::v11::detail::big_decimal_fp const&, fmt::v11::format_specs const&, fmt::v11::detail::float_specs, fmt::v11::detail::locale_ref)::{lambda(fmt::v11::basic_appender<char>(fmt::v11::basic_appender<char>))#1}::operator() const
PUBLIC 3c1a4 0 fmt::v11::detail::write_padded<char, (fmt::v11::align::type)2, fmt::v11::basic_appender<char>, fmt::v11::detail::write_ptr<char, fmt::v11::basic_appender<char>, unsigned long>(fmt::v11::basic_appender<char>, unsigned long, fmt::v11::format_specs const*)::{lambda(fmt::v11::basic_appender<char>&)#1}>(fmt::v11::basic_appender<char>, fmt::v11::format_specs const&, unsigned long, unsigned long, fmt::v11::detail::write_ptr<char, fmt::v11::basic_appender<char>, unsigned long>(fmt::v11::basic_appender<char>, unsigned long, fmt::v11::format_specs const*)::{lambda(fmt::v11::basic_appender<char>&)#1})
PUBLIC 3c3b8 0 fmt::v11::detail::parse_replacement_field<char, fmt::v11::detail::vformat_to<char>(fmt::v11::detail::buffer<char>&, fmt::v11::basic_string_view<char>, fmt::v11::detail::vformat_args<char>::type, fmt::v11::detail::locale_ref)::format_handler&>(char const*, char const*, fmt::v11::detail::vformat_to<char>(fmt::v11::detail::buffer<char>&, fmt::v11::basic_string_view<char>, fmt::v11::detail::vformat_args<char>::type, fmt::v11::detail::locale_ref)::format_handler&)
PUBLIC 3e054 0 fmt::v11::detail::parse_dynamic_spec<char>(char const*, char const*, int&, fmt::v11::detail::arg_ref<char>&, fmt::v11::basic_format_parse_context<char>&)
PUBLIC 3e2e4 0 fmt::v11::basic_format_args<fmt::v11::context>::get<char>(fmt::v11::basic_string_view<char>) const
PUBLIC 3e43c 0 fmt::v11::detail::write_int_noinline<char, fmt::v11::basic_appender<char>, unsigned long>(fmt::v11::basic_appender<char>, fmt::v11::detail::write_int_arg<unsigned long>, fmt::v11::format_specs const&, fmt::v11::detail::locale_ref)
PUBLIC 3f290 0 fmt::v11::detail::write_int_noinline<char, fmt::v11::basic_appender<char>, unsigned __int128>(fmt::v11::basic_appender<char>, fmt::v11::detail::write_int_arg<unsigned __int128>, fmt::v11::format_specs const&, fmt::v11::detail::locale_ref)
PUBLIC 402f8 0 _ZN3fmt3v116detail15format_hexfloatIdTnNSt6__ndk19enable_ifIXntsr16is_double_doubleIT_EE5valueEiE4typeELi0EEEvS5_NS0_12format_specsERNS1_6bufferIcEE
PUBLIC 40818 0 fmt::v11::detail::format_float<double>(double, int, fmt::v11::detail::float_specs, fmt::v11::detail::buffer<char>&)
PUBLIC 411b8 0 fmt::v11::detail::write<char, fmt::v11::basic_appender<char> >(fmt::v11::basic_appender<char>, fmt::v11::basic_string_view<char>, fmt::v11::format_specs const&)
PUBLIC 42524 0 fmt::v11::detail::for_each_codepoint<fmt::v11::detail::compute_width(fmt::v11::basic_string_view<char>)::count_code_points>(fmt::v11::basic_string_view<char>, fmt::v11::detail::compute_width(fmt::v11::basic_string_view<char>)::count_code_points)::{lambda(char const*, char const*)#1}::operator()(char const*, char const*) const
PUBLIC 426dc 0 fmt::v11::detail::write_int<fmt::v11::basic_appender<char>, unsigned long, char>(fmt::v11::basic_appender<char>, unsigned long, unsigned int, fmt::v11::format_specs const&, fmt::v11::detail::digit_grouping<char> const&)
PUBLIC 42c58 0 fmt::v11::detail::write_int<fmt::v11::basic_appender<char>, unsigned __int128, char>(fmt::v11::basic_appender<char>, unsigned __int128, unsigned int, fmt::v11::format_specs const&, fmt::v11::detail::digit_grouping<char> const&)
PUBLIC 432e0 0 <.plt ELF section in viper.object_pinning.android64.so>
STACK CFI INIT 1ed80 10 .cfa: sp 0 +
STACK CFI INIT 1ed90 8 .cfa: sp 0 +
STACK CFI INIT 1ed98 8 .cfa: sp 0 +
STACK CFI INIT 1eda0 14 .cfa: sp 0 +
STACK CFI INIT 1edb4 1c .cfa: sp 0 +
STACK CFI INIT 1edd0 10 .cfa: sp 0 +
STACK CFI INIT 1ede0 134 .cfa: sp 0 +
STACK CFI INIT 1ef14 84 .cfa: sp 0 +
STACK CFI INIT 1ef98 f4 .cfa: sp 0 +
STACK CFI INIT 1f08c a8 .cfa: sp 0 +
STACK CFI INIT 1f134 7c .cfa: sp 0 +
STACK CFI INIT 1f1b0 14 .cfa: sp 0 +
STACK CFI INIT 1f1c4 40 .cfa: sp 0 +
STACK CFI INIT 1f204 28 .cfa: sp 0 +
STACK CFI INIT 1f22c 190 .cfa: sp 0 +
STACK CFI INIT 1f3bc 2c8 .cfa: sp 0 +
STACK CFI INIT 1f684 8 .cfa: sp 0 +
STACK CFI INIT 1f68c 8 .cfa: sp 0 +
STACK CFI INIT 1f694 44 .cfa: sp 0 +
STACK CFI INIT 1f6d8 e8 .cfa: sp 0 +
STACK CFI INIT 1f7c0 e8 .cfa: sp 0 +
STACK CFI INIT 1f8a8 14 .cfa: sp 0 +
STACK CFI INIT 1f8bc 10 .cfa: sp 0 +
STACK CFI INIT 1f8cc 10 .cfa: sp 0 +
STACK CFI INIT 1f8dc f0 .cfa: sp 0 +
STACK CFI INIT 1f9cc 44 .cfa: sp 0 +
STACK CFI INIT 1fa10 c .cfa: sp 0 +
STACK CFI INIT 1fa1c c .cfa: sp 0 +
STACK CFI INIT 1fa28 2c .cfa: sp 0 +
STACK CFI INIT 1fa54 280 .cfa: sp 0 +
STACK CFI INIT 1fcd4 c .cfa: sp 0 +
STACK CFI INIT 1fce0 120 .cfa: sp 0 +
STACK CFI INIT 1fe00 488 .cfa: sp 0 +
STACK CFI INIT 20288 c48 .cfa: sp 0 +
STACK CFI INIT 20ed0 134 .cfa: sp 0 +
STACK CFI INIT 21004 210 .cfa: sp 0 +
STACK CFI INIT 21214 38c .cfa: sp 0 +
STACK CFI INIT 215a0 1c8 .cfa: sp 0 +
STACK CFI INIT 21768 9bc .cfa: sp 0 +
STACK CFI INIT 22124 2d4 .cfa: sp 0 +
STACK CFI INIT 223f8 134 .cfa: sp 0 +
STACK CFI INIT 2252c 120 .cfa: sp 0 +
STACK CFI INIT 2264c 1c8 .cfa: sp 0 +
STACK CFI INIT 22814 168 .cfa: sp 0 +
STACK CFI INIT 2297c fc .cfa: sp 0 +
STACK CFI INIT 22a78 30 .cfa: sp 0 +
STACK CFI INIT 22be0 30 .cfa: sp 0 +
STACK CFI INIT 22c10 98 .cfa: sp 0 +
STACK CFI INIT 22ca8 59c .cfa: sp 0 +
STACK CFI INIT 23244 8c .cfa: sp 0 +
STACK CFI INIT 232d0 30 .cfa: sp 0 +
STACK CFI INIT 23300 154 .cfa: sp 0 +
STACK CFI INIT 23e4c 18 .cfa: sp 0 +
STACK CFI INIT 23e64 4c .cfa: sp 0 +
STACK CFI INIT 23eb0 18 .cfa: sp 0 +
STACK CFI INIT 2434c 18 .cfa: sp 0 +
STACK CFI INIT 24364 10 .cfa: sp 0 +
STACK CFI 24368 .cfa: sp 16 +
STACK CFI 2436c .cfa: x29 16 + .ra: .cfa -8 + ^ x29: .cfa -16 + ^
STACK CFI INIT 24374 14 .cfa: sp 0 +
STACK CFI 24378 .cfa: sp 16 +
STACK CFI 2437c .cfa: x29 16 + .ra: .cfa -8 + ^ x29: .cfa -16 + ^
STACK CFI INIT 243d8 30 .cfa: sp 0 +
STACK CFI 243dc .cfa: sp 32 +
STACK CFI 243e4 .cfa: x29 32 + x19: .cfa -16 + ^ .ra: .cfa -24 + ^ x29: .cfa -32 + ^
STACK CFI 243fc .cfa: sp 32 +
STACK CFI 24404 .cfa: sp 0 +
STACK CFI INIT 24408 34 .cfa: sp 0 +
STACK CFI 2440c .cfa: sp 32 +
STACK CFI 24414 .cfa: x29 32 + x19: .cfa -16 + ^ .ra: .cfa -24 + ^ x29: .cfa -32 + ^
STACK CFI INIT 24b94 44 .cfa: sp 0 +
STACK CFI 24b98 .cfa: sp 32 +
STACK CFI 24ba0 .cfa: x29 32 + x19: .cfa -16 + ^ .ra: .cfa -24 + ^ x29: .cfa -32 + ^
STACK CFI 24bc0 .cfa: sp 32 +
STACK CFI 24bc8 .cfa: sp 0 +
STACK CFI 24bcc .cfa: sp 32 +
STACK CFI 24bd4 .cfa: sp 0 +
STACK CFI INIT 24bd8 14 .cfa: sp 0 +
STACK CFI 24bdc .cfa: sp 16 +
STACK CFI 24be0 .cfa: x29 16 + .ra: .cfa -8 + ^ x29: .cfa -16 + ^
STACK CFI INIT 24bec 14 .cfa: sp 0 +
STACK CFI 24bf0 .cfa: sp 16 +
STACK CFI 24bf4 .cfa: x29 16 + .ra: .cfa -8 + ^ x29: .cfa -16 + ^
STACK CFI INIT 24c00 c .cfa: sp 0 +
STACK CFI 24c04 .cfa: sp 16 +
STACK CFI 24c08 .cfa: x29 16 + .ra: .cfa -8 + ^ x29: .cfa -16 + ^
STACK CFI INIT 24c5c 30 .cfa: sp 0 +
STACK CFI 24c60 .cfa: sp 32 +
STACK CFI 24c68 .cfa: x29 32 + x19: .cfa -16 + ^ .ra: .cfa -24 + ^ x29: .cfa -32 + ^
STACK CFI 24c80 .cfa: sp 32 +
STACK CFI 24c88 .cfa: sp 0 +
STACK CFI INIT 24c8c c .cfa: sp 0 +
STACK CFI 24c90 .cfa: sp 16 +
STACK CFI 24c94 .cfa: x29 16 + .ra: .cfa -8 + ^ x29: .cfa -16 + ^
STACK CFI INIT 24c98 4 .cfa: sp 0 +
STACK CFI INIT 24c9c 4 .cfa: sp 0 +
STACK CFI INIT 24ca0 38 .cfa: sp 0 +
STACK CFI 24ca4 .cfa: sp 32 +
STACK CFI 24cac .cfa: x29 32 + x19: .cfa -16 + ^ .ra: .cfa -24 + ^ x29: .cfa -32 + ^
STACK CFI 24ccc .cfa: sp 32 +
STACK CFI 24cd4 .cfa: sp 0 +
STACK CFI INIT 24cd8 18 .cfa: sp 0 +
STACK CFI INIT 24cf0 4 .cfa: sp 0 +
STACK CFI INIT 24cf4 4 .cfa: sp 0 +
STACK CFI INIT 24cf8 10 .cfa: sp 0 +
STACK CFI INIT 24d08 1c .cfa: sp 0 +
STACK CFI INIT 24d24 c .cfa: sp 0 +
STACK CFI INIT 24d30 34 .cfa: sp 0 +
STACK CFI 24d34 .cfa: sp 16 +
STACK CFI 24d38 .cfa: x29 16 + .ra: .cfa -8 + ^ x29: .cfa -16 + ^
STACK CFI INIT 24d64 8 .cfa: sp 0 +
STACK CFI INIT 24d6c 14 .cfa: sp 0 +
STACK CFI INIT 24d80 80 .cfa: sp 0 +
STACK CFI 24d84 .cfa: sp 48 +
STACK CFI 24d90 .cfa: x29 48 + x19: .cfa -8 + ^ x20: .cfa -16 + ^ x21: .cfa -24 + ^ x22: .cfa -32 + ^ .ra: .cfa -40 + ^ x29: .cfa -48 + ^
STACK CFI 24da8 .cfa: sp 48 +
STACK CFI 24db4 .cfa: sp 0 +
STACK CFI 24db8 .cfa: x29 48 +
STACK CFI 24de8 .cfa: sp 48 +
STACK CFI 24df4 .cfa: sp 0 +
STACK CFI 24df8 .cfa: x29 48 +
STACK CFI INIT 24e00 20 .cfa: sp 0 +
STACK CFI INIT 24e20 40 .cfa: sp 0 +
STACK CFI 24e38 .cfa: sp 32 +
STACK CFI 24e40 .cfa: x29 32 + x19: .cfa -16 + ^ .ra: .cfa -24 + ^ x29: .cfa -32 + ^
STACK CFI 24e54 .cfa: sp 32 +
STACK CFI 24e5c .cfa: sp 0 +
STACK CFI INIT 24ee8 40 .cfa: sp 0 +
STACK CFI INIT 24f28 14 .cfa: sp 0 +
STACK CFI INIT 24f3c 34 .cfa: sp 0 +
STACK CFI 24f48 .cfa: sp 32 +
STACK CFI 24f50 .cfa: x29 32 + x19: .cfa -16 + ^ .ra: .cfa -24 + ^ x29: .cfa -32 + ^
STACK CFI 24f64 .cfa: sp 32 +
STACK CFI 24f6c .cfa: sp 0 +
STACK CFI INIT 2514c 1c .cfa: sp 0 +
STACK CFI INIT 25168 c .cfa: sp 0 +
STACK CFI INIT 25ab8 80 .cfa: sp 0 +
STACK CFI 25abc .cfa: sp 48 +
STACK CFI 25ac8 .cfa: x29 48 + x19: .cfa -8 + ^ x20: .cfa -16 + ^ x21: .cfa -32 + ^ .ra: .cfa -40 + ^ x29: .cfa -48 + ^
STACK CFI 25b28 .cfa: sp 48 +
STACK CFI 25b34 .cfa: sp 0 +
STACK CFI INIT 25b38 24 .cfa: sp 0 +
STACK CFI 25b3c .cfa: sp 32 +
STACK CFI 25b44 .cfa: x29 32 + x19: .cfa -16 + ^ .ra: .cfa -24 + ^ x29: .cfa -32 + ^
STACK CFI 25b50 .cfa: sp 32 +
STACK CFI 25b58 .cfa: sp 0 +
STACK CFI INIT 26054 148 .cfa: sp 0 +
STACK CFI 26058 .cfa: sp 48 +
STACK CFI 26064 .cfa: x29 48 + x19: .cfa -8 + ^ x20: .cfa -16 + ^ x21: .cfa -32 + ^ .ra: .cfa -40 + ^ x29: .cfa -48 + ^
STACK CFI 2618c .cfa: sp 48 +
STACK CFI 26198 .cfa: sp 0 +
STACK CFI INIT 2619c 4 .cfa: sp 0 +
STACK CFI INIT 261a0 14 .cfa: sp 0 +
STACK CFI INIT 261b4 14 .cfa: sp 0 +
STACK CFI INIT 261c8 14 .cfa: sp 0 +
STACK CFI INIT 26d2c ac .cfa: sp 0 +
STACK CFI 26d30 .cfa: sp 64 +
STACK CFI 26d40 .cfa: x29 64 + x19: .cfa -8 + ^ x20: .cfa -16 + ^ x21: .cfa -24 + ^ x22: .cfa -32 + ^ x23: .cfa -48 + ^ .ra: .cfa -56 + ^ x29: .cfa -64 + ^
STACK CFI 26dbc .cfa: sp 64 +
STACK CFI 26dcc .cfa: sp 0 +
STACK CFI 26dd0 .cfa: x29 64 +
STACK CFI INIT 26dd8 110 .cfa: sp 0 +
STACK CFI 26ddc .cfa: sp 64 +
STACK CFI 26dec .cfa: x29 64 + x19: .cfa -8 + ^ x20: .cfa -16 + ^ x21: .cfa -24 + ^ x22: .cfa -32 + ^ x23: .cfa -40 + ^ x24: .cfa -48 + ^ .ra: .cfa -56 + ^ x29: .cfa -64 + ^
STACK CFI 26ecc .cfa: sp 64 +
STACK CFI 26edc .cfa: sp 0 +
STACK CFI 26ee0 .cfa: x29 64 +
STACK CFI INIT 282dc 50 .cfa: sp 0 +
STACK CFI 282e0 .cfa: sp 32 +
STACK CFI 282e8 .cfa: x29 32 + x19: .cfa -16 + ^ .ra: .cfa -24 + ^ x29: .cfa -32 + ^
STACK CFI 28300 .cfa: sp 32 +
STACK CFI 28308 .cfa: sp 0 +
STACK CFI 2830c .cfa: x29 32 +
STACK CFI 28320 .cfa: sp 32 +
STACK CFI 28328 .cfa: sp 0 +
STACK CFI INIT 2832c f8 .cfa: sp 0 +
STACK CFI 28330 .cfa: sp 64 +
STACK CFI 28340 .cfa: x29 64 + x19: .cfa -8 + ^ x20: .cfa -16 + ^ x21: .cfa -24 + ^ x22: .cfa -32 + ^ x23: .cfa -48 + ^ .ra: .cfa -56 + ^ x29: .cfa -64 + ^
STACK CFI 2839c .cfa: sp 64 +
STACK CFI 283ac .cfa: sp 0 +
STACK CFI 283b0 .cfa: x29 64 +
STACK CFI 283cc .cfa: sp 64 +
STACK CFI 283dc .cfa: sp 0 +
STACK CFI 283e0 .cfa: x29 64 +
STACK CFI 28410 .cfa: sp 64 +
STACK CFI 28420 .cfa: sp 0 +
STACK CFI INIT 28424 8 .cfa: sp 0 +
STACK CFI INIT 285e4 2c .cfa: sp 0 +
STACK CFI 285e8 .cfa: sp 32 +
STACK CFI 285f0 .cfa: x29 32 + x19: .cfa -16 + ^ .ra: .cfa -24 + ^ x29: .cfa -32 + ^
STACK CFI 28604 .cfa: sp 32 +
STACK CFI 2860c .cfa: sp 0 +
STACK CFI INIT 28610 28 .cfa: sp 0 +
STACK CFI INIT 28638 4 .cfa: sp 0 +
STACK CFI INIT 2863c 8 .cfa: sp 0 +
STACK CFI INIT 289b4 c8 .cfa: sp 0 +
STACK CFI 289b8 .cfa: sp 80 +
STACK CFI 289c8 .cfa: x29 48 + x19: .cfa -8 + ^ x20: .cfa -16 + ^ x21: .cfa -32 + ^ .ra: .cfa -40 + ^ x29: .cfa -48 + ^
STACK CFI 28a20 .cfa: sp 80 +
STACK CFI 28a30 .cfa: sp 0 +
STACK CFI 28a34 .cfa: x29 48 +
STACK CFI INIT 28c3c 2c .cfa: sp 0 +
STACK CFI INIT 28c68 4 .cfa: sp 0 +
STACK CFI INIT 28c6c 4 .cfa: sp 0 +
STACK CFI INIT 28c70 4 .cfa: sp 0 +
STACK CFI INIT 28c74 4 .cfa: sp 0 +
STACK CFI INIT 28c78 4 .cfa: sp 0 +
STACK CFI INIT 28c7c 8 .cfa: sp 0 +
STACK CFI INIT 28cf0 4 .cfa: sp 0 +
STACK CFI INIT 28ea8 4 .cfa: sp 0 +
STACK CFI INIT 28eac 60 .cfa: sp 0 +
STACK CFI 28eb0 .cfa: sp 32 +
STACK CFI 28eb8 .cfa: x29 32 + x19: .cfa -8 + ^ x20: .cfa -16 + ^ .ra: .cfa -24 + ^ x29: .cfa -32 + ^
STACK CFI 28ed8 .cfa: sp 32 +
STACK CFI 28ee0 .cfa: sp 0 +
STACK CFI 28ee4 .cfa: x29 32 +
STACK CFI 28f00 .cfa: sp 32 +
STACK CFI 28f08 .cfa: sp 0 +
STACK CFI INIT 28f0c 70 .cfa: sp 0 +
STACK CFI 28f10 .cfa: sp 32 +
STACK CFI 28f18 .cfa: x29 32 + x19: .cfa -8 + ^ x20: .cfa -16 + ^ .ra: .cfa -24 + ^ x29: .cfa -32 + ^
STACK CFI 28f40 .cfa: sp 32 +
STACK CFI 28f48 .cfa: sp 0 +
STACK CFI 28f4c .cfa: x29 32 +
STACK CFI 28f70 .cfa: sp 32 +
STACK CFI 28f78 .cfa: sp 0 +
STACK CFI INIT 28f7c 10 .cfa: sp 0 +
STACK CFI INIT 28f8c 30 .cfa: sp 0 +
STACK CFI 28f90 .cfa: sp 32 +
STACK CFI 28f98 .cfa: x29 32 + x19: .cfa -16 + ^ .ra: .cfa -24 + ^ x29: .cfa -32 + ^
STACK CFI 28fb0 .cfa: sp 32 +
STACK CFI 28fb8 .cfa: sp 0 +
STACK CFI INIT 28fbc 4 .cfa: sp 0 +
STACK CFI INIT 28fc0 4 .cfa: sp 0 +
STACK CFI INIT 28fc4 34 .cfa: sp 0 +
STACK CFI 28fc8 .cfa: sp 16 +
STACK CFI 28fcc .cfa: x29 16 + .ra: .cfa -8 + ^ x29: .cfa -16 + ^
STACK CFI INIT 28ff8 24 .cfa: sp 0 +
STACK CFI 28ffc .cfa: sp 32 +
STACK CFI 29004 .cfa: x29 32 + x19: .cfa -16 + ^ .ra: .cfa -24 + ^ x29: .cfa -32 + ^
STACK CFI 29010 .cfa: sp 32 +
STACK CFI 29018 .cfa: sp 0 +
STACK CFI INIT 2930c 4 .cfa: sp 0 +
STACK CFI INIT 29310 34 .cfa: sp 0 +
STACK CFI 29314 .cfa: sp 32 +
STACK CFI 2931c .cfa: x29 32 + x19: .cfa -16 + ^ .ra: .cfa -24 + ^ x29: .cfa -32 + ^
STACK CFI 29338 .cfa: sp 32 +
STACK CFI 29340 .cfa: sp 0 +
STACK CFI INIT 29344 14 .cfa: sp 0 +
STACK CFI INIT 29358 4 .cfa: sp 0 +
STACK CFI INIT 2935c 4 .cfa: sp 0 +
STACK CFI INIT 29360 b4 .cfa: sp 0 +
STACK CFI 29364 .cfa: sp 32 +
STACK CFI 2936c .cfa: x29 32 + x19: .cfa -16 + ^ .ra: .cfa -24 + ^ x29: .cfa -32 + ^
STACK CFI 293b4 .cfa: sp 32 +
STACK CFI 293bc .cfa: sp 0 +
STACK CFI 293c0 .cfa: x29 32 +
STACK CFI 293e8 .cfa: sp 32 +
STACK CFI 293f0 .cfa: sp 0 +
STACK CFI 293f4 .cfa: x29 32 +
STACK CFI 29408 .cfa: sp 32 +
STACK CFI 29410 .cfa: sp 0 +
STACK CFI INIT 29414 1c .cfa: sp 0 +
STACK CFI INIT 29430 c .cfa: sp 0 +
STACK CFI INIT 296a8 4 .cfa: sp 0 +
STACK CFI INIT 29834 4 .cfa: sp 0 +
STACK CFI INIT 29838 14 .cfa: sp 0 +
STACK CFI 2983c .cfa: sp 16 +
STACK CFI 29840 .cfa: x29 16 + .ra: .cfa -8 + ^ x29: .cfa -16 + ^
STACK CFI INIT 2984c 4 .cfa: sp 0 +
STACK CFI INIT 29850 4 .cfa: sp 0 +
STACK CFI INIT 29854 34 .cfa: sp 0 +
STACK CFI 29858 .cfa: sp 32 +
STACK CFI 29860 .cfa: x29 32 + x19: .cfa -16 + ^ .ra: .cfa -24 + ^ x29: .cfa -32 + ^
STACK CFI 2987c .cfa: sp 32 +
STACK CFI 29884 .cfa: sp 0 +
STACK CFI INIT 29888 14 .cfa: sp 0 +
STACK CFI INIT 2989c 4 .cfa: sp 0 +
STACK CFI INIT 298a0 4 .cfa: sp 0 +
STACK CFI INIT 298a4 8 .cfa: sp 0 +
STACK CFI INIT 298ac 1c .cfa: sp 0 +
STACK CFI INIT 298c8 c .cfa: sp 0 +
STACK CFI INIT 298d4 490 .cfa: sp 0 +
STACK CFI 298d8 .cfa: sp 144 +
STACK CFI 298f4 .cfa: x29 96 + x19: .cfa -8 + ^ x20: .cfa -16 + ^ x21: .cfa -24 + ^ x22: .cfa -32 + ^ x23: .cfa -40 + ^ x24: .cfa -48 + ^ x25: .cfa -56 + ^ x26: .cfa -64 + ^ x27: .cfa -72 + ^ x28: .cfa -80 + ^ .ra: .cfa -88 + ^ x29: .cfa -96 + ^
STACK CFI 29d2c .cfa: sp 144 +
STACK CFI 29d48 .cfa: sp 0 +
STACK CFI 29d4c .cfa: x29 96 +
STACK CFI INIT 29d64 c .cfa: sp 0 +
STACK CFI 29d68 .cfa: sp 16 +
STACK CFI 29d6c .cfa: x29 16 + .ra: .cfa -8 + ^ x29: .cfa -16 + ^
STACK CFI INIT 29d70 20 .cfa: sp 0 +
STACK CFI INIT 29d90 40 .cfa: sp 0 +
STACK CFI 29da8 .cfa: sp 32 +
STACK CFI 29db0 .cfa: x29 32 + x19: .cfa -16 + ^ .ra: .cfa -24 + ^ x29: .cfa -32 + ^
STACK CFI 29dc4 .cfa: sp 32 +
STACK CFI 29dcc .cfa: sp 0 +
STACK CFI INIT 29e58 40 .cfa: sp 0 +
STACK CFI INIT 29e98 14 .cfa: sp 0 +
STACK CFI INIT 29eac 34 .cfa: sp 0 +
STACK CFI 29eb8 .cfa: sp 32 +
STACK CFI 29ec0 .cfa: x29 32 + x19: .cfa -16 + ^ .ra: .cfa -24 + ^ x29: .cfa -32 + ^
STACK CFI 29ed4 .cfa: sp 32 +
STACK CFI 29edc .cfa: sp 0 +
STACK CFI INIT 2a0ec 1c .cfa: sp 0 +
STACK CFI INIT 2a108 c .cfa: sp 0 +
STACK CFI INIT 2a770 50 .cfa: sp 0 +
STACK CFI 2a774 .cfa: sp 32 +
STACK CFI 2a77c .cfa: x29 32 + x19: .cfa -16 + ^ .ra: .cfa -24 + ^ x29: .cfa -32 + ^
STACK CFI 2a794 .cfa: sp 32 +
STACK CFI 2a79c .cfa: sp 0 +
STACK CFI 2a7a0 .cfa: x29 32 +
STACK CFI 2a7b4 .cfa: sp 32 +
STACK CFI 2a7bc .cfa: sp 0 +
STACK CFI INIT 2a834 7c .cfa: sp 0 +
STACK CFI 2a838 .cfa: sp 48 +
STACK CFI 2a844 .cfa: x29 48 + x19: .cfa -8 + ^ x20: .cfa -16 + ^ x21: .cfa -32 + ^ .ra: .cfa -40 + ^ x29: .cfa -48 + ^
STACK CFI 2a890 .cfa: sp 48 +
STACK CFI 2a89c .cfa: sp 0 +
STACK CFI 2a8a0 .cfa: sp 48 +
STACK CFI 2a8ac .cfa: sp 0 +
STACK CFI INIT 2a8b0 4 .cfa: sp 0 +
STACK CFI INIT 2ac2c 68 .cfa: sp 0 +
STACK CFI 2ac30 .cfa: sp 32 +
STACK CFI 2ac38 .cfa: x29 32 + x19: .cfa -8 + ^ x20: .cfa -16 + ^ .ra: .cfa -24 + ^ x29: .cfa -32 + ^
STACK CFI 2ac50 .cfa: sp 32 +
STACK CFI 2ac58 .cfa: sp 0 +
STACK CFI 2ac5c .cfa: x29 32 +
STACK CFI 2ac88 .cfa: sp 32 +
STACK CFI 2ac90 .cfa: sp 0 +
STACK CFI INIT 2ac94 14 .cfa: sp 0 +
STACK CFI 2ac98 .cfa: sp 16 +
STACK CFI 2ac9c .cfa: x29 16 + .ra: .cfa -8 + ^ x29: .cfa -16 + ^
STACK CFI INIT 2aca8 4 .cfa: sp 0 +
STACK CFI INIT 2acac 14 .cfa: sp 0 +
STACK CFI INIT 2acc0 120 .cfa: sp 0 +
STACK CFI 2acc4 .cfa: sp 64 +
STACK CFI 2acd4 .cfa: x29 64 + x19: .cfa -8 + ^ x20: .cfa -16 + ^ x21: .cfa -24 + ^ x22: .cfa -32 + ^ x23: .cfa -40 + ^ x24: .cfa -48 + ^ .ra: .cfa -56 + ^ x29: .cfa -64 + ^
STACK CFI 2adcc .cfa: sp 64 +
STACK CFI 2addc .cfa: sp 0 +
STACK CFI INIT 2ade0 4a4 .cfa: sp 0 +
STACK CFI 2ade4 .cfa: sp 32 +
STACK CFI 2adec .cfa: x29 32 + x19: .cfa -8 + ^ x20: .cfa -16 + ^ .ra: .cfa -24 + ^ x29: .cfa -32 + ^
STACK CFI 2b1cc .cfa: sp 32 +
STACK CFI 2b1d4 .cfa: sp 0 +
STACK CFI 2b1d8 .cfa: x29 32 +
STACK CFI INIT 2b284 84 .cfa: sp 0 +
STACK CFI 2b28c .cfa: sp 32 +
STACK CFI 2b294 .cfa: x29 32 + x19: .cfa -8 + ^ x20: .cfa -16 + ^ .ra: .cfa -24 + ^ x29: .cfa -32 + ^
STACK CFI 2b2d4 .cfa: sp 32 +
STACK CFI 2b2dc .cfa: sp 0 +
STACK CFI 2b2e4 .cfa: x29 32 +
STACK CFI INIT 2b43c 9c .cfa: sp 0 +
STACK CFI 2b440 .cfa: sp 32 +
STACK CFI 2b448 .cfa: x29 32 + x19: .cfa -16 + ^ .ra: .cfa -24 + ^ x29: .cfa -32 + ^
STACK CFI 2b4cc .cfa: sp 32 +
STACK CFI 2b4d4 .cfa: sp 0 +
STACK CFI INIT 2b7c4 9c .cfa: sp 0 +
STACK CFI 2b7c8 .cfa: sp 32 +
STACK CFI 2b7d0 .cfa: x29 32 + x19: .cfa -16 + ^ .ra: .cfa -24 + ^ x29: .cfa -32 + ^
STACK CFI 2b854 .cfa: sp 32 +
STACK CFI 2b85c .cfa: sp 0 +
STACK CFI INIT 2ba2c 50 .cfa: sp 0 +
STACK CFI 2ba30 .cfa: sp 32 +
STACK CFI 2ba38 .cfa: x29 32 + x19: .cfa -16 + ^ .ra: .cfa -24 + ^ x29: .cfa -32 + ^
STACK CFI 2ba50 .cfa: sp 32 +
STACK CFI 2ba58 .cfa: sp 0 +
STACK CFI 2ba5c .cfa: x29 32 +
STACK CFI 2ba70 .cfa: sp 32 +
STACK CFI 2ba78 .cfa: sp 0 +
STACK CFI INIT 2ba7c 64 .cfa: sp 0 +
STACK CFI 2ba80 .cfa: sp 32 +
STACK CFI 2ba88 .cfa: x29 32 + x19: .cfa -16 + ^ .ra: .cfa -24 + ^ x29: .cfa -32 + ^
STACK CFI 2bab4 .cfa: sp 32 +
STACK CFI 2babc .cfa: sp 0 +
STACK CFI 2bac0 .cfa: x29 32 +
STACK CFI 2bad4 .cfa: sp 32 +
STACK CFI 2badc .cfa: sp 0 +
STACK CFI INIT 2bae0 168 .cfa: sp 0 +
STACK CFI 2bae4 .cfa: sp 80 +
STACK CFI 2baf8 .cfa: x29 80 + x19: .cfa -8 + ^ x20: .cfa -16 + ^ x21: .cfa -24 + ^ x22: .cfa -32 + ^ x23: .cfa -40 + ^ x24: .cfa -48 + ^ x25: .cfa -56 + ^ x26: .cfa -64 + ^ .ra: .cfa -72 + ^ x29: .cfa -80 + ^
STACK CFI 2bc30 .cfa: sp 80 +
STACK CFI 2bc44 .cfa: sp 0 +
STACK CFI INIT 2bc48 1b0 .cfa: sp 0 +
STACK CFI INIT 2bdf8 130 .cfa: sp 0 +
STACK CFI 2bdfc .cfa: sp 80 +
STACK CFI 2be0c .cfa: x29 48 + x19: .cfa -8 + ^ x20: .cfa -16 + ^ x21: .cfa -24 + ^ x22: .cfa -32 + ^ .ra: .cfa -40 + ^ x29: .cfa -48 + ^
STACK CFI 2bf10 .cfa: sp 80 +
STACK CFI 2bf20 .cfa: sp 0 +
STACK CFI 2bf24 .cfa: x29 48 +
STACK CFI INIT 2bf28 a4 .cfa: sp 0 +
STACK CFI 2bf2c .cfa: sp 32 +
STACK CFI 2bf34 .cfa: x29 32 + x19: .cfa -8 + ^ x20: .cfa -16 + ^ .ra: .cfa -24 + ^ x29: .cfa -32 + ^
STACK CFI 2bfb4 .cfa: sp 32 +
STACK CFI 2bfbc .cfa: sp 0 +
STACK CFI 2bfc0 .cfa: sp 32 +
STACK CFI 2bfc8 .cfa: sp 0 +
STACK CFI INIT 2bfcc 98 .cfa: sp 0 +
STACK CFI 2bfd0 .cfa: sp 304 +
STACK CFI 2bfdc .cfa: x29 32 + x19: .cfa -8 + ^ x28: .cfa -16 + ^ .ra: .cfa -24 + ^ x29: .cfa -32 + ^
STACK CFI 2c050 .cfa: sp 304 +
STACK CFI 2c05c .cfa: sp 0 +
STACK CFI 2c060 .cfa: x29 32 +
STACK CFI INIT 2c064 4 .cfa: sp 0 +
STACK CFI INIT 2c068 4 .cfa: sp 0 +
STACK CFI INIT 2cc58 4 .cfa: sp 0 +
STACK CFI INIT 2cc5c 60 .cfa: sp 0 +
STACK CFI 2cc60 .cfa: sp 32 +
STACK CFI 2cc68 .cfa: x29 32 + x19: .cfa -16 + ^ .ra: .cfa -24 + ^ x29: .cfa -32 + ^
STACK CFI 2ccb0 .cfa: sp 32 +
STACK CFI 2ccb8 .cfa: sp 0 +
STACK CFI INIT 2cf84 12c .cfa: sp 0 +
STACK CFI 2cf88 .cfa: sp 48 +
STACK CFI 2cf94 .cfa: x29 48 + x19: .cfa -8 + ^ x20: .cfa -16 + ^ x21: .cfa -24 + ^ x22: .cfa -32 + ^ .ra: .cfa -40 + ^ x29: .cfa -48 + ^
STACK CFI 2cfb4 .cfa: sp 48 +
STACK CFI 2cfc0 .cfa: sp 0 +
STACK CFI 2cfc4 .cfa: x29 48 +
STACK CFI 2d04c .cfa: sp 48 +
STACK CFI 2d058 .cfa: sp 0 +
STACK CFI 2d05c .cfa: x29 48 +
STACK CFI 2d0a0 .cfa: sp 48 +
STACK CFI 2d0ac .cfa: sp 0 +
STACK CFI INIT 2d0b0 4 .cfa: sp 0 +
STACK CFI INIT 2d0b4 4 .cfa: sp 0 +
STACK CFI INIT 2d0b8 34 .cfa: sp 0 +
STACK CFI 2d0bc .cfa: sp 32 +
STACK CFI 2d0c4 .cfa: x29 32 + x19: .cfa -16 + ^ .ra: .cfa -24 + ^ x29: .cfa -32 + ^
STACK CFI 2d0e0 .cfa: sp 32 +
STACK CFI 2d0e8 .cfa: sp 0 +
STACK CFI INIT 2d0ec 14 .cfa: sp 0 +
STACK CFI INIT 2d100 4 .cfa: sp 0 +
STACK CFI INIT 2d104 4 .cfa: sp 0 +
STACK CFI INIT 2d560 1c .cfa: sp 0 +
STACK CFI INIT 2d57c c .cfa: sp 0 +
STACK CFI INIT 2d588 4 .cfa: sp 0 +
STACK CFI INIT 2d58c 4 .cfa: sp 0 +
STACK CFI INIT 2d590 24 .cfa: sp 0 +
STACK CFI 2d594 .cfa: sp 16 +
STACK CFI 2d598 .cfa: x29 16 + .ra: .cfa -8 + ^ x29: .cfa -16 + ^
STACK CFI 2d5ac .cfa: sp 16 +
STACK CFI 2d5b0 .cfa: sp 0 +
STACK CFI INIT 2d5b4 10 .cfa: sp 0 +
STACK CFI INIT 2d5c4 4 .cfa: sp 0 +
STACK CFI INIT 2d5c8 4 .cfa: sp 0 +
STACK CFI INIT 2d5cc 8 .cfa: sp 0 +
STACK CFI INIT 2d5d4 1c .cfa: sp 0 +
STACK CFI INIT 2d5f0 c .cfa: sp 0 +
STACK CFI INIT 2d5fc 1c .cfa: sp 0 +
STACK CFI INIT 2d618 3c .cfa: sp 0 +
STACK CFI 2d61c .cfa: sp 32 +
STACK CFI 2d624 .cfa: x29 32 + x19: .cfa -16 + ^ .ra: .cfa -24 + ^ x29: .cfa -32 + ^
STACK CFI 2d630 .cfa: sp 32 +
STACK CFI 2d638 .cfa: sp 0 +
STACK CFI 2d63c .cfa: x29 32 +
STACK CFI 2d648 .cfa: sp 32 +
STACK CFI 2d650 .cfa: sp 0 +
STACK CFI INIT 2d654 4c .cfa: sp 0 +
STACK CFI 2d658 .cfa: sp 32 +
STACK CFI 2d660 .cfa: x29 32 + x19: .cfa -8 + ^ x20: .cfa -16 + ^ .ra: .cfa -24 + ^ x29: .cfa -32 + ^
STACK CFI 2d688 .cfa: sp 32 +
STACK CFI 2d690 .cfa: sp 0 +
STACK CFI 2d694 .cfa: sp 32 +
STACK CFI 2d69c .cfa: sp 0 +
STACK CFI INIT 2d8c0 64 .cfa: sp 0 +
STACK CFI 2d8c4 .cfa: sp 32 +
STACK CFI 2d8cc .cfa: x29 32 + x19: .cfa -16 + ^ .ra: .cfa -24 + ^ x29: .cfa -32 + ^
STACK CFI 2d8f8 .cfa: sp 32 +
STACK CFI 2d900 .cfa: sp 0 +
STACK CFI 2d904 .cfa: x29 32 +
STACK CFI 2d918 .cfa: sp 32 +
STACK CFI 2d920 .cfa: sp 0 +
STACK CFI INIT 2d924 24 .cfa: sp 0 +
STACK CFI 2d928 .cfa: sp 32 +
STACK CFI 2d930 .cfa: x29 32 + x19: .cfa -16 + ^ .ra: .cfa -24 + ^ x29: .cfa -32 + ^
STACK CFI 2d93c .cfa: sp 32 +
STACK CFI 2d944 .cfa: sp 0 +
STACK CFI INIT 2d948 24 .cfa: sp 0 +
STACK CFI 2d94c .cfa: sp 32 +
STACK CFI 2d954 .cfa: x29 32 + x19: .cfa -16 + ^ .ra: .cfa -24 + ^ x29: .cfa -32 + ^
STACK CFI 2d960 .cfa: sp 32 +
STACK CFI 2d968 .cfa: sp 0 +
STACK CFI INIT 2d96c 24 .cfa: sp 0 +
STACK CFI 2d970 .cfa: sp 32 +
STACK CFI 2d978 .cfa: x29 32 + x19: .cfa -16 + ^ .ra: .cfa -24 + ^ x29: .cfa -32 + ^
STACK CFI 2d984 .cfa: sp 32 +
STACK CFI 2d98c .cfa: sp 0 +
STACK CFI INIT 2d990 8 .cfa: sp 0 +
STACK CFI INIT 2d998 24 .cfa: sp 0 +
STACK CFI 2d99c .cfa: sp 32 +
STACK CFI 2d9a4 .cfa: x29 32 + x19: .cfa -16 + ^ .ra: .cfa -24 + ^ x29: .cfa -32 + ^
STACK CFI 2d9b0 .cfa: sp 32 +
STACK CFI 2d9b8 .cfa: sp 0 +
STACK CFI INIT 2d9bc 28 .cfa: sp 0 +
STACK CFI 2d9c0 .cfa: sp 32 +
STACK CFI 2d9c8 .cfa: x29 32 + x19: .cfa -16 + ^ .ra: .cfa -24 + ^ x29: .cfa -32 + ^
STACK CFI 2d9d8 .cfa: sp 32 +
STACK CFI 2d9e0 .cfa: sp 0 +
STACK CFI INIT 2dcbc 8 .cfa: sp 0 +
STACK CFI INIT 2dcc4 24 .cfa: sp 0 +
STACK CFI 2dcc8 .cfa: sp 32 +
STACK CFI 2dcd0 .cfa: x29 32 + x19: .cfa -16 + ^ .ra: .cfa -24 + ^ x29: .cfa -32 + ^
STACK CFI 2dcdc .cfa: sp 32 +
STACK CFI 2dce4 .cfa: sp 0 +
STACK CFI INIT 2dce8 28 .cfa: sp 0 +
STACK CFI 2dcec .cfa: sp 32 +
STACK CFI 2dcf4 .cfa: x29 32 + x19: .cfa -16 + ^ .ra: .cfa -24 + ^ x29: .cfa -32 + ^
STACK CFI 2dd04 .cfa: sp 32 +
STACK CFI 2dd0c .cfa: sp 0 +
STACK CFI INIT 2df60 8 .cfa: sp 0 +
STACK CFI INIT 2df68 24 .cfa: sp 0 +
STACK CFI 2df6c .cfa: sp 32 +
STACK CFI 2df74 .cfa: x29 32 + x19: .cfa -16 + ^ .ra: .cfa -24 + ^ x29: .cfa -32 + ^
STACK CFI 2df80 .cfa: sp 32 +
STACK CFI 2df88 .cfa: sp 0 +
STACK CFI INIT 2df8c 28 .cfa: sp 0 +
STACK CFI 2df90 .cfa: sp 32 +
STACK CFI 2df98 .cfa: x29 32 + x19: .cfa -16 + ^ .ra: .cfa -24 + ^ x29: .cfa -32 + ^
STACK CFI 2dfa8 .cfa: sp 32 +
STACK CFI 2dfb0 .cfa: sp 0 +
STACK CFI INIT 2dfb4 24 .cfa: sp 0 +
STACK CFI 2dfb8 .cfa: sp 32 +
STACK CFI 2dfc0 .cfa: x29 32 + x19: .cfa -16 + ^ .ra: .cfa -24 + ^ x29: .cfa -32 + ^
STACK CFI 2dfcc .cfa: sp 32 +
STACK CFI 2dfd4 .cfa: sp 0 +
STACK CFI INIT 2dfd8 8 .cfa: sp 0 +
STACK CFI INIT 2dfe0 24 .cfa: sp 0 +
STACK CFI 2dfe4 .cfa: sp 32 +
STACK CFI 2dfec .cfa: x29 32 + x19: .cfa -16 + ^ .ra: .cfa -24 + ^ x29: .cfa -32 + ^
STACK CFI 2dff8 .cfa: sp 32 +
STACK CFI 2e000 .cfa: sp 0 +
STACK CFI INIT 2e004 28 .cfa: sp 0 +
STACK CFI 2e008 .cfa: sp 32 +
STACK CFI 2e010 .cfa: x29 32 + x19: .cfa -16 + ^ .ra: .cfa -24 + ^ x29: .cfa -32 + ^
STACK CFI 2e020 .cfa: sp 32 +
STACK CFI 2e028 .cfa: sp 0 +
STACK CFI INIT 2e770 44 .cfa: sp 0 +
STACK CFI 2e774 .cfa: sp 32 +
STACK CFI 2e77c .cfa: x29 32 + x19: .cfa -16 + ^ .ra: .cfa -24 + ^ x29: .cfa -32 + ^
STACK CFI 2e7a8 .cfa: sp 32 +
STACK CFI 2e7b0 .cfa: sp 0 +
STACK CFI INIT 2e7b4 4c .cfa: sp 0 +
STACK CFI 2e7b8 .cfa: sp 32 +
STACK CFI 2e7c0 .cfa: x29 32 + x19: .cfa -16 + ^ .ra: .cfa -24 + ^ x29: .cfa -32 + ^
STACK CFI 2e7f4 .cfa: sp 32 +
STACK CFI 2e7fc .cfa: sp 0 +
STACK CFI INIT 2ee8c 4 .cfa: sp 0 +
STACK CFI INIT 2ee90 4 .cfa: sp 0 +
STACK CFI INIT 2ee94 8 .cfa: sp 0 +
STACK CFI INIT 2ee9c 4 .cfa: sp 0 +
STACK CFI INIT 2eea0 8 .cfa: sp 0 +
STACK CFI INIT 300e8 4 .cfa: sp 0 +
STACK CFI INIT 300ec 14 .cfa: sp 0 +
STACK CFI INIT 30100 2b8 .cfa: sp 0 +
STACK CFI INIT 30a98 c .cfa: sp 0 +
STACK CFI INIT 30aa4 24c .cfa: sp 0 +
STACK CFI INIT 30cf0 a0 .cfa: sp 0 +
STACK CFI 30cfc .cfa: sp 32 +
STACK CFI 30d54 .cfa: sp 0 +
STACK CFI 30d58 .cfa: sp 32 +
STACK CFI 30d60 .cfa: sp 0 +
STACK CFI 30d64 .cfa: sp 32 +
STACK CFI 30d78 .cfa: sp 0 +
STACK CFI 30d7c .cfa: sp 32 +
STACK CFI 30d8c .cfa: sp 0 +
STACK CFI INIT 30d90 38 .cfa: sp 0 +
STACK CFI 30d9c .cfa: sp 32 +
STACK CFI 30dc4 .cfa: sp 0 +
STACK CFI INIT 3105c 7c .cfa: sp 0 +
STACK CFI 31060 .cfa: sp 32 +
STACK CFI 31068 .cfa: x29 32 + x19: .cfa -16 + ^ .ra: .cfa -24 + ^ x29: .cfa -32 + ^
STACK CFI 31094 .cfa: sp 32 +
STACK CFI 3109c .cfa: sp 0 +
STACK CFI 310a0 .cfa: x29 32 +
STACK CFI 310cc .cfa: sp 32 +
STACK CFI 310d4 .cfa: sp 0 +
STACK CFI INIT 31128 2c .cfa: sp 0 +
STACK CFI 3112c .cfa: sp 32 +
STACK CFI 31134 .cfa: x29 32 + x19: .cfa -16 + ^ .ra: .cfa -24 + ^ x29: .cfa -32 + ^
STACK CFI 31148 .cfa: sp 32 +
STACK CFI 31150 .cfa: sp 0 +
STACK CFI INIT 31914 64 .cfa: sp 0 +
STACK CFI 31918 .cfa: sp 32 +
STACK CFI 31920 .cfa: x29 32 + x19: .cfa -16 + ^ .ra: .cfa -24 + ^ x29: .cfa -32 + ^
STACK CFI 3193c .cfa: sp 32 +
STACK CFI 31944 .cfa: sp 0 +
STACK CFI 31948 .cfa: x29 32 +
STACK CFI 3196c .cfa: sp 32 +
STACK CFI 31974 .cfa: sp 0 +
STACK CFI INIT 31978 570 .cfa: sp 0 +
STACK CFI 3197c .cfa: sp 176 +
STACK CFI 31990 .cfa: x29 64 + x19: .cfa -8 + ^ x20: .cfa -16 + ^ x21: .cfa -24 + ^ x22: .cfa -32 + ^ x23: .cfa -40 + ^ x24: .cfa -48 + ^ .ra: .cfa -56 + ^ x29: .cfa -64 + ^
STACK CFI 31bc0 .cfa: sp 176 +
STACK CFI 31bd4 .cfa: sp 0 +
STACK CFI 31bd8 .cfa: x29 64 +
STACK CFI 31c24 .cfa: sp 176 +
STACK CFI 31c38 .cfa: sp 0 +
STACK CFI 31c3c .cfa: x29 64 +
STACK CFI 31c74 .cfa: sp 176 +
STACK CFI 31c88 .cfa: sp 0 +
STACK CFI 31c8c .cfa: x29 64 +
STACK CFI 31ca4 .cfa: sp 176 +
STACK CFI 31cb8 .cfa: sp 0 +
STACK CFI 31cbc .cfa: x29 64 +
STACK CFI 31cdc .cfa: sp 176 +
STACK CFI 31cf0 .cfa: sp 0 +
STACK CFI 31cf4 .cfa: x29 64 +
STACK CFI 31d0c .cfa: sp 176 +
STACK CFI 31d20 .cfa: sp 0 +
STACK CFI 31d24 .cfa: x29 64 +
STACK CFI 31d38 .cfa: sp 176 +
STACK CFI 31d4c .cfa: sp 0 +
STACK CFI 31d50 .cfa: x29 64 +
STACK CFI 31d64 .cfa: sp 176 +
STACK CFI 31d78 .cfa: sp 0 +
STACK CFI 31d7c .cfa: x29 64 +
STACK CFI 31d8c .cfa: sp 176 +
STACK CFI 31da0 .cfa: sp 0 +
STACK CFI 31da4 .cfa: x29 64 +
STACK CFI 31db4 .cfa: sp 176 +
STACK CFI 31dc8 .cfa: sp 0 +
STACK CFI 31dcc .cfa: x29 64 +
STACK CFI 31de4 .cfa: sp 176 +
STACK CFI 31df8 .cfa: sp 0 +
STACK CFI 31dfc .cfa: x29 64 +
STACK CFI 31e10 .cfa: sp 176 +
STACK CFI 31e24 .cfa: sp 0 +
STACK CFI 31e28 .cfa: x29 64 +
STACK CFI 31e40 .cfa: sp 176 +
STACK CFI 31e54 .cfa: sp 0 +
STACK CFI 31e58 .cfa: x29 64 +
STACK CFI 31e84 .cfa: sp 176 +
STACK CFI 31e98 .cfa: sp 0 +
STACK CFI 31e9c .cfa: x29 64 +
STACK CFI 31eb0 .cfa: sp 176 +
STACK CFI 31ec4 .cfa: sp 0 +
STACK CFI 31ec8 .cfa: x29 64 +
STACK CFI INIT 31ee8 228 .cfa: sp 0 +
STACK CFI INIT 32110 2dc .cfa: sp 0 +
STACK CFI INIT 323ec 53c .cfa: sp 0 +
STACK CFI INIT 32928 78 .cfa: sp 0 +
STACK CFI 3292c .cfa: sp 48 +
STACK CFI 32938 .cfa: x29 48 + x19: .cfa -8 + ^ x20: .cfa -16 + ^ x21: .cfa -24 + ^ x22: .cfa -32 + ^ .ra: .cfa -40 + ^ x29: .cfa -48 + ^
STACK CFI 32980 .cfa: sp 48 +
STACK CFI 3298c .cfa: sp 0 +
STACK CFI 32990 .cfa: sp 48 +
STACK CFI 3299c .cfa: sp 0 +
STACK CFI INIT 329a0 8c .cfa: sp 0 +
STACK CFI 329a4 .cfa: sp 32 +
STACK CFI 329ac .cfa: x29 32 + x19: .cfa -16 + ^ .ra: .cfa -24 + ^ x29: .cfa -32 + ^
STACK CFI 329e0 .cfa: sp 32 +
STACK CFI 329e8 .cfa: sp 0 +
STACK CFI 329ec .cfa: x29 32 +
STACK CFI 32a20 .cfa: sp 32 +
STACK CFI 32a28 .cfa: sp 0 +
STACK CFI INIT 32a2c 24 .cfa: sp 0 +
STACK CFI 32a30 .cfa: sp 32 +
STACK CFI 32a38 .cfa: x29 32 + x19: .cfa -16 + ^ .ra: .cfa -24 + ^ x29: .cfa -32 + ^
STACK CFI 32a44 .cfa: sp 32 +
STACK CFI 32a4c .cfa: sp 0 +
STACK CFI INIT 32a50 150 .cfa: sp 0 +
STACK CFI 32a54 .cfa: sp 48 +
STACK CFI 32a60 .cfa: x29 48 + x19: .cfa -8 + ^ x20: .cfa -16 + ^ x21: .cfa -24 + ^ x22: .cfa -32 + ^ .ra: .cfa -40 + ^ x29: .cfa -48 + ^
STACK CFI 32b90 .cfa: sp 48 +
STACK CFI 32b9c .cfa: sp 0 +
STACK CFI INIT 32ba0 68 .cfa: sp 0 +
STACK CFI 32ba4 .cfa: sp 64 +
STACK CFI 32bb0 .cfa: x29 32 + x19: .cfa -16 + ^ .ra: .cfa -24 + ^ x29: .cfa -32 + ^
STACK CFI 32bf4 .cfa: sp 64 +
STACK CFI 32c00 .cfa: sp 0 +
STACK CFI 32c04 .cfa: x29 32 +
STACK CFI INIT 32c08 90 .cfa: sp 0 +
STACK CFI 32c0c .cfa: sp 32 +
STACK CFI 32c14 .cfa: x29 32 + x19: .cfa -8 + ^ x20: .cfa -16 + ^ .ra: .cfa -24 + ^ x29: .cfa -32 + ^
STACK CFI 32c40 .cfa: sp 32 +
STACK CFI 32c48 .cfa: sp 0 +
STACK CFI 32c4c .cfa: x29 32 +
STACK CFI 32c8c .cfa: sp 32 +
STACK CFI 32c94 .cfa: sp 0 +
STACK CFI INIT 32c98 ec .cfa: sp 0 +
STACK CFI 32c9c .cfa: sp 112 +
STACK CFI 32cac .cfa: x29 48 + x19: .cfa -8 + ^ x20: .cfa -16 + ^ x21: .cfa -32 + ^ .ra: .cfa -40 + ^ x29: .cfa -48 + ^
STACK CFI 32d6c .cfa: sp 112 +
STACK CFI 32d7c .cfa: sp 0 +
STACK CFI 32d80 .cfa: x29 48 +
STACK CFI INIT 32d84 ec .cfa: sp 0 +
STACK CFI 32d88 .cfa: sp 112 +
STACK CFI 32d98 .cfa: x29 48 + x19: .cfa -8 + ^ x20: .cfa -16 + ^ x21: .cfa -32 + ^ .ra: .cfa -40 + ^ x29: .cfa -48 + ^
STACK CFI 32e58 .cfa: sp 112 +
STACK CFI 32e68 .cfa: sp 0 +
STACK CFI 32e6c .cfa: x29 48 +
STACK CFI INIT 32e70 48 .cfa: sp 0 +
STACK CFI 32e74 .cfa: sp 32 +
STACK CFI 32e7c .cfa: x29 32 + x19: .cfa -8 + ^ x20: .cfa -16 + ^ .ra: .cfa -24 + ^ x29: .cfa -32 + ^
STACK CFI 32ea0 .cfa: sp 32 +
STACK CFI 32ea8 .cfa: sp 0 +
STACK CFI 32eac .cfa: x29 32 +
STACK CFI INIT 32eb8 98 .cfa: sp 0 +
STACK CFI 32ebc .cfa: sp 80 +
STACK CFI 32ec8 .cfa: x29 32 + x19: .cfa -16 + ^ .ra: .cfa -24 + ^ x29: .cfa -32 + ^
STACK CFI 32f3c .cfa: sp 80 +
STACK CFI 32f48 .cfa: sp 0 +
STACK CFI 32f4c .cfa: x29 32 +
STACK CFI INIT 32f50 260 .cfa: sp 0 +
STACK CFI 32f54 .cfa: sp 112 +
STACK CFI 32f6c .cfa: x29 80 + x19: .cfa -8 + ^ x20: .cfa -16 + ^ x21: .cfa -24 + ^ x22: .cfa -32 + ^ x23: .cfa -40 + ^ x24: .cfa -48 + ^ x25: .cfa -64 + ^ .ra: .cfa -72 + ^ x29: .cfa -80 + ^
STACK CFI 33150 .cfa: sp 112 +
STACK CFI 33168 .cfa: sp 0 +
STACK CFI 3316c .cfa: x29 80 +
STACK CFI INIT 331b0 150 .cfa: sp 0 +
STACK CFI 331b4 .cfa: sp 48 +
STACK CFI 331c0 .cfa: x29 48 + x19: .cfa -8 + ^ x20: .cfa -16 + ^ x21: .cfa -24 + ^ x22: .cfa -32 + ^ .ra: .cfa -40 + ^ x29: .cfa -48 + ^
STACK CFI 332f0 .cfa: sp 48 +
STACK CFI 332fc .cfa: sp 0 +
STACK CFI INIT 33300 1e0 .cfa: sp 0 +
STACK CFI 33304 .cfa: sp 96 +
STACK CFI 33318 .cfa: x29 64 + x19: .cfa -8 + ^ x20: .cfa -16 + ^ x21: .cfa -24 + ^ x22: .cfa -32 + ^ x23: .cfa -40 + ^ x24: .cfa -48 + ^ .ra: .cfa -56 + ^ x29: .cfa -64 + ^
STACK CFI 33498 .cfa: sp 96 +
STACK CFI 334ac .cfa: sp 0 +
STACK CFI 334b0 .cfa: x29 64 +
STACK CFI INIT 334e0 284 .cfa: sp 0 +
STACK CFI 334e4 .cfa: sp 112 +
STACK CFI 334fc .cfa: x29 80 + x19: .cfa -8 + ^ x20: .cfa -16 + ^ x21: .cfa -24 + ^ x22: .cfa -32 + ^ x23: .cfa -40 + ^ x24: .cfa -48 + ^ x25: .cfa -64 + ^ .ra: .cfa -72 + ^ x29: .cfa -80 + ^
STACK CFI 33704 .cfa: sp 112 +
STACK CFI 3371c .cfa: sp 0 +
STACK CFI 33720 .cfa: x29 80 +
STACK CFI INIT 33764 208 .cfa: sp 0 +
STACK CFI 33768 .cfa: sp 96 +
STACK CFI 3377c .cfa: x29 64 + x19: .cfa -8 + ^ x20: .cfa -16 + ^ x21: .cfa -24 + ^ x22: .cfa -32 + ^ x23: .cfa -40 + ^ x24: .cfa -48 + ^ .ra: .cfa -56 + ^ x29: .cfa -64 + ^
STACK CFI 33924 .cfa: sp 96 +
STACK CFI 33938 .cfa: sp 0 +
STACK CFI 3393c .cfa: x29 64 +
STACK CFI INIT 3396c 360 .cfa: sp 0 +
STACK CFI 33970 .cfa: sp 160 +
STACK CFI 3398c .cfa: x29 96 + x19: .cfa -8 + ^ x20: .cfa -16 + ^ x21: .cfa -24 + ^ x22: .cfa -32 + ^ x23: .cfa -40 + ^ x24: .cfa -48 + ^ x25: .cfa -56 + ^ x26: .cfa -64 + ^ x27: .cfa -72 + ^ x28: .cfa -80 + ^ .ra: .cfa -88 + ^ x29: .cfa -96 + ^
STACK CFI 33c58 .cfa: sp 160 +
STACK CFI 33c74 .cfa: sp 0 +
STACK CFI 33c78 .cfa: x29 96 +
STACK CFI INIT 33ccc 314 .cfa: sp 0 +
STACK CFI 33cd0 .cfa: sp 144 +
STACK CFI 33cec .cfa: x29 96 + x19: .cfa -8 + ^ x20: .cfa -16 + ^ x21: .cfa -24 + ^ x22: .cfa -32 + ^ x23: .cfa -40 + ^ x24: .cfa -48 + ^ x25: .cfa -56 + ^ x26: .cfa -64 + ^ x27: .cfa -72 + ^ x28: .cfa -80 + ^ .ra: .cfa -88 + ^ x29: .cfa -96 + ^
STACK CFI 33f68 .cfa: sp 144 +
STACK CFI 33f84 .cfa: sp 0 +
STACK CFI 33f88 .cfa: x29 96 +
STACK CFI INIT 33fe0 290 .cfa: sp 0 +
STACK CFI 33fe4 .cfa: sp 128 +
STACK CFI 33ffc .cfa: x29 80 + x19: .cfa -8 + ^ x20: .cfa -16 + ^ x21: .cfa -24 + ^ x22: .cfa -32 + ^ x23: .cfa -40 + ^ x24: .cfa -48 + ^ x25: .cfa -56 + ^ x26: .cfa -64 + ^ .ra: .cfa -72 + ^ x29: .cfa -80 + ^
STACK CFI 34250 .cfa: sp 128 +
STACK CFI 34268 .cfa: sp 0 +
STACK CFI 3426c .cfa: x29 80 +
STACK CFI INIT 34270 ddc .cfa: sp 0 +
STACK CFI 34274 .cfa: sp 144 +
STACK CFI 34290 .cfa: x29 96 + x19: .cfa -8 + ^ x20: .cfa -16 + ^ x21: .cfa -24 + ^ x22: .cfa -32 + ^ x23: .cfa -40 + ^ x24: .cfa -48 + ^ x25: .cfa -56 + ^ x26: .cfa -64 + ^ x27: .cfa -72 + ^ x28: .cfa -80 + ^ .ra: .cfa -88 + ^ x29: .cfa -96 + ^
STACK CFI 34f24 .cfa: sp 144 +
STACK CFI 34f40 .cfa: sp 0 +
STACK CFI 34f44 .cfa: x29 96 +
STACK CFI INIT 3504c 1d0 .cfa: sp 0 +
STACK CFI 35050 .cfa: sp 80 +
STACK CFI 35064 .cfa: x29 80 + x19: .cfa -8 + ^ x20: .cfa -16 + ^ x21: .cfa -24 + ^ x22: .cfa -32 + ^ x23: .cfa -40 + ^ x24: .cfa -48 + ^ x25: .cfa -64 + ^ .ra: .cfa -72 + ^ x29: .cfa -80 + ^
STACK CFI 35204 .cfa: sp 80 +
STACK CFI 35218 .cfa: sp 0 +
STACK CFI INIT 3521c 23c .cfa: sp 0 +
STACK CFI 35220 .cfa: sp 112 +
STACK CFI 35234 .cfa: x29 64 + x19: .cfa -8 + ^ x20: .cfa -16 + ^ x21: .cfa -24 + ^ x22: .cfa -32 + ^ x23: .cfa -40 + ^ x24: .cfa -48 + ^ .ra: .cfa -56 + ^ x29: .cfa -64 + ^
STACK CFI 35410 .cfa: sp 112 +
STACK CFI 35424 .cfa: sp 0 +
STACK CFI 35428 .cfa: x29 64 +
STACK CFI INIT 35458 30c .cfa: sp 0 +
STACK CFI 3545c .cfa: sp 80 +
STACK CFI 35470 .cfa: x29 64 + x19: .cfa -8 + ^ x20: .cfa -16 + ^ x21: .cfa -24 + ^ x22: .cfa -32 + ^ x23: .cfa -40 + ^ x24: .cfa -48 + ^ .ra: .cfa -56 + ^ x29: .cfa -64 + ^
STACK CFI 355ec .cfa: sp 80 +
STACK CFI 35600 .cfa: sp 0 +
STACK CFI 35604 .cfa: x29 64 +
STACK CFI INIT 35764 178 .cfa: sp 0 +
STACK CFI 35768 .cfa: sp 80 +
STACK CFI 3577c .cfa: x29 64 + x19: .cfa -8 + ^ x20: .cfa -16 + ^ x21: .cfa -24 + ^ x22: .cfa -32 + ^ x23: .cfa -40 + ^ x24: .cfa -48 + ^ .ra: .cfa -56 + ^ x29: .cfa -64 + ^
STACK CFI 358c0 .cfa: sp 80 +
STACK CFI 358d4 .cfa: sp 0 +
STACK CFI 358d8 .cfa: x29 64 +
STACK CFI INIT 358dc 178 .cfa: sp 0 +
STACK CFI 358e0 .cfa: sp 80 +
STACK CFI 358f4 .cfa: x29 64 + x19: .cfa -8 + ^ x20: .cfa -16 + ^ x21: .cfa -24 + ^ x22: .cfa -32 + ^ x23: .cfa -40 + ^ x24: .cfa -48 + ^ .ra: .cfa -56 + ^ x29: .cfa -64 + ^
STACK CFI 35a38 .cfa: sp 80 +
STACK CFI 35a4c .cfa: sp 0 +
STACK CFI 35a50 .cfa: x29 64 +
STACK CFI INIT 35a54 240 .cfa: sp 0 +
STACK CFI 35a58 .cfa: sp 96 +
STACK CFI 35a70 .cfa: x29 96 + x19: .cfa -8 + ^ x20: .cfa -16 + ^ x21: .cfa -24 + ^ x22: .cfa -32 + ^ x23: .cfa -40 + ^ x24: .cfa -48 + ^ x25: .cfa -56 + ^ x26: .cfa -64 + ^ x27: .cfa -72 + ^ x28: .cfa -80 + ^ .ra: .cfa -88 + ^ x29: .cfa -96 + ^
STACK CFI 35c78 .cfa: sp 96 +
STACK CFI 35c90 .cfa: sp 0 +
STACK CFI INIT 36908 154 .cfa: sp 0 +
STACK CFI 3690c .cfa: sp 96 +
STACK CFI 36920 .cfa: x29 64 + x19: .cfa -8 + ^ x20: .cfa -16 + ^ x21: .cfa -24 + ^ x22: .cfa -32 + ^ x23: .cfa -48 + ^ .ra: .cfa -56 + ^ x29: .cfa -64 + ^
STACK CFI 36a00 .cfa: sp 96 +
STACK CFI 36a14 .cfa: sp 0 +
STACK CFI 36a18 .cfa: x29 64 +
STACK CFI INIT 36cc8 44 .cfa: sp 0 +
STACK CFI 36ccc .cfa: sp 32 +
STACK CFI 36cd4 .cfa: x29 32 + x19: .cfa -16 + ^ .ra: .cfa -24 + ^ x29: .cfa -32 + ^
STACK CFI 36cf0 .cfa: sp 32 +
STACK CFI 36cf8 .cfa: sp 0 +
STACK CFI 36cfc .cfa: x29 32 +
STACK CFI 36d00 .cfa: sp 32 +
STACK CFI 36d08 .cfa: sp 0 +
STACK CFI INIT 36d0c 1d0 .cfa: sp 0 +
STACK CFI 36d10 .cfa: sp 64 +
STACK CFI 36d20 .cfa: x29 64 + x19: .cfa -8 + ^ x20: .cfa -16 + ^ x21: .cfa -24 + ^ x22: .cfa -32 + ^ x23: .cfa -40 + ^ x24: .cfa -48 + ^ .ra: .cfa -56 + ^ x29: .cfa -64 + ^
STACK CFI 36de0 .cfa: sp 64 +
STACK CFI 36df0 .cfa: sp 0 +
STACK CFI 36df4 .cfa: x29 64 +
STACK CFI INIT 36edc 17c .cfa: sp 0 +
STACK CFI INIT 37410 a0 .cfa: sp 0 +
STACK CFI 37414 .cfa: sp 48 +
STACK CFI 37420 .cfa: x29 48 + x19: .cfa -8 + ^ x20: .cfa -16 + ^ x21: .cfa -24 + ^ x22: .cfa -32 + ^ .ra: .cfa -40 + ^ x29: .cfa -48 + ^
STACK CFI 3748c .cfa: sp 48 +
STACK CFI 37498 .cfa: sp 0 +
STACK CFI 3749c .cfa: sp 48 +
STACK CFI 374a8 .cfa: sp 0 +
STACK CFI 374ac .cfa: x29 48 +
STACK CFI INIT 38164 158 .cfa: sp 0 +
STACK CFI 38168 .cfa: sp 96 +
STACK CFI 3817c .cfa: x29 64 + x19: .cfa -8 + ^ x20: .cfa -16 + ^ x21: .cfa -24 + ^ x22: .cfa -32 + ^ x23: .cfa -48 + ^ .ra: .cfa -56 + ^ x29: .cfa -64 + ^
STACK CFI 38260 .cfa: sp 96 +
STACK CFI 38274 .cfa: sp 0 +
STACK CFI 38278 .cfa: x29 64 +
STACK CFI INIT 382bc 190 .cfa: sp 0 +
STACK CFI INIT 38f48 1dc .cfa: sp 0 +
STACK CFI 38f4c .cfa: sp 80 +
STACK CFI 38f60 .cfa: x29 80 + x19: .cfa -8 + ^ x20: .cfa -16 + ^ x21: .cfa -24 + ^ x22: .cfa -32 + ^ x23: .cfa -40 + ^ x24: .cfa -48 + ^ x25: .cfa -64 + ^ .ra: .cfa -72 + ^ x29: .cfa -80 + ^
STACK CFI 3910c .cfa: sp 80 +
STACK CFI 39120 .cfa: sp 0 +
STACK CFI INIT 3a554 124 .cfa: sp 0 +
STACK CFI 3a584 .cfa: sp 32 +
STACK CFI 3a58c .cfa: x29 32 + x19: .cfa -8 + ^ x20: .cfa -16 + ^ .ra: .cfa -24 + ^ x29: .cfa -32 + ^
STACK CFI 3a66c .cfa: sp 32 +
STACK CFI 3a674 .cfa: sp 0 +
STACK CFI INIT 3add4 320 .cfa: sp 0 +
STACK CFI 3add8 .cfa: sp 64 +
STACK CFI 3ade8 .cfa: x29 64 + x19: .cfa -8 + ^ x20: .cfa -16 + ^ x21: .cfa -24 + ^ x22: .cfa -32 + ^ x23: .cfa -40 + ^ x24: .cfa -48 + ^ .ra: .cfa -56 + ^ x29: .cfa -64 + ^
STACK CFI 3ae64 .cfa: sp 64 +
STACK CFI 3ae74 .cfa: sp 0 +
STACK CFI 3ae78 .cfa: x29 64 +
STACK CFI 3b04c .cfa: sp 64 +
STACK CFI 3b05c .cfa: sp 0 +
STACK CFI 3b060 .cfa: x29 64 +
STACK CFI 3b070 .cfa: sp 64 +
STACK CFI 3b080 .cfa: sp 0 +
STACK CFI 3b084 .cfa: x29 64 +
STACK CFI INIT 3b0f4 a0 .cfa: sp 0 +
STACK CFI 3b0f8 .cfa: sp 48 +
STACK CFI 3b104 .cfa: x29 48 + x19: .cfa -8 + ^ x20: .cfa -16 + ^ x21: .cfa -24 + ^ x22: .cfa -32 + ^ .ra: .cfa -40 + ^ x29: .cfa -48 + ^
STACK CFI 3b170 .cfa: sp 48 +
STACK CFI 3b17c .cfa: sp 0 +
STACK CFI 3b180 .cfa: sp 48 +
STACK CFI 3b18c .cfa: sp 0 +
STACK CFI 3b190 .cfa: x29 48 +
STACK CFI INIT 3c044 160 .cfa: sp 0 +
STACK CFI 3c048 .cfa: sp 64 +
STACK CFI 3c058 .cfa: x29 64 + x19: .cfa -8 + ^ x20: .cfa -16 + ^ x21: .cfa -24 + ^ x22: .cfa -32 + ^ x23: .cfa -48 + ^ .ra: .cfa -56 + ^ x29: .cfa -64 + ^
STACK CFI 3c150 .cfa: sp 64 +
STACK CFI 3c160 .cfa: sp 0 +
STACK CFI 3c164 .cfa: x29 64 +
STACK CFI INIT 3c1a4 214 .cfa: sp 0 +
STACK CFI 3c1a8 .cfa: sp 128 +
STACK CFI 3c1c4 .cfa: x29 96 + x19: .cfa -8 + ^ x20: .cfa -16 + ^ x21: .cfa -24 + ^ x22: .cfa -32 + ^ x23: .cfa -40 + ^ x24: .cfa -48 + ^ x25: .cfa -56 + ^ x26: .cfa -64 + ^ x27: .cfa -80 + ^ .ra: .cfa -88 + ^ x29: .cfa -96 + ^
STACK CFI 3c340 .cfa: sp 128 +
STACK CFI 3c35c .cfa: sp 0 +
STACK CFI 3c360 .cfa: x29 96 +
STACK CFI INIT 3e054 290 .cfa: sp 0 +
STACK CFI 3e058 .cfa: sp 16 +
STACK CFI 3e05c .cfa: x29 16 + .ra: .cfa -8 + ^ x29: .cfa -16 + ^
STACK CFI 3e0e8 .cfa: sp 16 +
STACK CFI 3e0ec .cfa: sp 0 +
STACK CFI 3e0f0 .cfa: x29 16 +
STACK CFI 3e140 .cfa: sp 16 +
STACK CFI 3e144 .cfa: sp 0 +
STACK CFI 3e148 .cfa: x29 16 +
STACK CFI 3e2ac .cfa: sp 16 +
STACK CFI 3e2b0 .cfa: sp 0 +
STACK CFI 3e2b4 .cfa: x29 16 +
STACK CFI INIT 3e2e4 158 .cfa: sp 0 +
STACK CFI 3e2e8 .cfa: sp 112 +
STACK CFI 3e304 .cfa: x29 96 + x19: .cfa -8 + ^ x20: .cfa -16 + ^ x21: .cfa -24 + ^ x22: .cfa -32 + ^ x23: .cfa -40 + ^ x24: .cfa -48 + ^ x25: .cfa -56 + ^ x26: .cfa -64 + ^ x27: .cfa -72 + ^ x28: .cfa -80 + ^ .ra: .cfa -88 + ^ x29: .cfa -96 + ^
STACK CFI 3e3ec .cfa: sp 112 +
STACK CFI 3e3f0 .cfa: x29 96 +
STACK CFI 3e3f8 .cfa: sp 112 +
STACK CFI 3e414 .cfa: sp 0 +
STACK CFI 3e418 .cfa: x29 96 +
STACK CFI 3e438 .cfa: sp 112 +
STACK CFI INIT 3e43c e54 .cfa: sp 0 +
STACK CFI 3e440 .cfa: sp 192 +
STACK CFI 3e45c .cfa: x29 96 + x19: .cfa -8 + ^ x20: .cfa -16 + ^ x21: .cfa -24 + ^ x22: .cfa -32 + ^ x23: .cfa -40 + ^ x24: .cfa -48 + ^ x25: .cfa -56 + ^ x26: .cfa -64 + ^ x27: .cfa -72 + ^ x28: .cfa -80 + ^ .ra: .cfa -88 + ^ x29: .cfa -96 + ^
STACK CFI 3f178 .cfa: sp 192 +
STACK CFI 3f194 .cfa: sp 0 +
STACK CFI 3f198 .cfa: x29 96 +
STACK CFI INIT 3f290 1068 .cfa: sp 0 +
STACK CFI 3f294 .cfa: sp 288 +
STACK CFI 3f2b0 .cfa: x29 96 + x19: .cfa -8 + ^ x20: .cfa -16 + ^ x21: .cfa -24 + ^ x22: .cfa -32 + ^ x23: .cfa -40 + ^ x24: .cfa -48 + ^ x25: .cfa -56 + ^ x26: .cfa -64 + ^ x27: .cfa -72 + ^ x28: .cfa -80 + ^ .ra: .cfa -88 + ^ x29: .cfa -96 + ^
STACK CFI 40040 .cfa: sp 288 +
STACK CFI 4005c .cfa: sp 0 +
STACK CFI 40060 .cfa: x29 96 +
STACK CFI INIT 402f8 520 .cfa: sp 0 +
STACK CFI 402fc .cfa: sp 144 +
STACK CFI 40318 .cfa: x29 96 + x19: .cfa -8 + ^ x20: .cfa -16 + ^ x21: .cfa -24 + ^ x22: .cfa -32 + ^ x23: .cfa -40 + ^ x24: .cfa -48 + ^ x25: .cfa -56 + ^ x26: .cfa -64 + ^ x27: .cfa -72 + ^ x28: .cfa -80 + ^ .ra: .cfa -88 + ^ x29: .cfa -96 + ^
STACK CFI 407f4 .cfa: sp 144 +
STACK CFI 40810 .cfa: sp 0 +
STACK CFI 40814 .cfa: x29 96 +
STACK CFI INIT 411b8 136c .cfa: sp 0 +
STACK CFI 411bc .cfa: sp 224 +
STACK CFI 411d8 .cfa: x29 96 + x19: .cfa -8 + ^ x20: .cfa -16 + ^ x21: .cfa -24 + ^ x22: .cfa -32 + ^ x23: .cfa -40 + ^ x24: .cfa -48 + ^ x25: .cfa -56 + ^ x26: .cfa -64 + ^ x27: .cfa -72 + ^ x28: .cfa -80 + ^ .ra: .cfa -88 + ^ x29: .cfa -96 + ^
STACK CFI 42500 .cfa: sp 224 +
STACK CFI 4251c .cfa: sp 0 +
STACK CFI 42520 .cfa: x29 96 +
STACK CFI INIT 42524 1b8 .cfa: sp 0 +
STACK CFI INIT 23454 574 .cfa: sp 0 +
STACK CFI 23458 .cfa: sp 336 +
STACK CFI 23468 .cfa: x29 48 + x19: .cfa -8 + ^ x20: .cfa -16 + ^ x21: .cfa -24 + ^ x28: .cfa -32 + ^ .ra: .cfa -40 + ^ x29: .cfa -48 + ^
STACK CFI 23864 .cfa: sp 336 +
STACK CFI 23874 .cfa: sp 0 +
STACK CFI 23878 .cfa: x29 48 +
STACK CFI INIT 239c8 484 .cfa: sp 0 +
STACK CFI 239cc .cfa: sp 224 +
STACK CFI 239e8 .cfa: x29 96 + x19: .cfa -8 + ^ x20: .cfa -16 + ^ x21: .cfa -24 + ^ x22: .cfa -32 + ^ x23: .cfa -40 + ^ x24: .cfa -48 + ^ x25: .cfa -56 + ^ x26: .cfa -64 + ^ x27: .cfa -72 + ^ x28: .cfa -80 + ^ .ra: .cfa -88 + ^ x29: .cfa -96 + ^
STACK CFI 23c58 .cfa: sp 224 +
STACK CFI 23c74 .cfa: sp 0 +
STACK CFI 23c78 .cfa: x29 96 +
STACK CFI 23d44 .cfa: sp 224 +
STACK CFI 23d60 .cfa: sp 0 +
STACK CFI 23d64 .cfa: x29 96 +
STACK CFI INIT 23ec8 484 .cfa: sp 0 +
STACK CFI 23ecc .cfa: sp 224 +
STACK CFI 23ee8 .cfa: x29 96 + x19: .cfa -8 + ^ x20: .cfa -16 + ^ x21: .cfa -24 + ^ x22: .cfa -32 + ^ x23: .cfa -40 + ^ x24: .cfa -48 + ^ x25: .cfa -56 + ^ x26: .cfa -64 + ^ x27: .cfa -72 + ^ x28: .cfa -80 + ^ .ra: .cfa -88 + ^ x29: .cfa -96 + ^
STACK CFI 24158 .cfa: sp 224 +
STACK CFI 24174 .cfa: sp 0 +
STACK CFI 24178 .cfa: x29 96 +
STACK CFI 24244 .cfa: sp 224 +
STACK CFI 24260 .cfa: sp 0 +
STACK CFI 24264 .cfa: x29 96 +
STACK CFI INIT 24388 50 .cfa: sp 0 +
STACK CFI 2438c .cfa: sp 32 +
STACK CFI 24394 .cfa: x29 32 + x19: .cfa -8 + ^ x20: .cfa -16 + ^ .ra: .cfa -24 + ^ x29: .cfa -32 + ^
STACK CFI INIT 2443c 74 .cfa: sp 0 +
STACK CFI 24440 .cfa: sp 48 +
STACK CFI 2444c .cfa: x29 32 + x19: .cfa -8 + ^ x20: .cfa -16 + ^ .ra: .cfa -24 + ^ x29: .cfa -32 + ^
STACK CFI 24498 .cfa: sp 48 +
STACK CFI 244a4 .cfa: sp 0 +
STACK CFI 244a8 .cfa: x29 32 +
STACK CFI INIT 244b0 194 .cfa: sp 0 +
STACK CFI 244b4 .cfa: sp 112 +
STACK CFI 244c4 .cfa: x29 48 + x19: .cfa -8 + ^ x20: .cfa -16 + ^ x21: .cfa -32 + ^ .ra: .cfa -40 + ^ x29: .cfa -48 + ^
STACK CFI 2459c .cfa: sp 112 +
STACK CFI 245ac .cfa: sp 0 +
STACK CFI 245b0 .cfa: x29 48 +
STACK CFI INIT 24644 444 .cfa: sp 0 +
STACK CFI 24648 .cfa: sp 176 +
STACK CFI 24664 .cfa: x29 96 + x19: .cfa -8 + ^ x20: .cfa -16 + ^ x21: .cfa -24 + ^ x22: .cfa -32 + ^ x23: .cfa -40 + ^ x24: .cfa -48 + ^ x25: .cfa -56 + ^ x26: .cfa -64 + ^ x27: .cfa -72 + ^ x28: .cfa -80 + ^ .ra: .cfa -88 + ^ x29: .cfa -96 + ^
STACK CFI 246a4 .cfa: sp 176 +
STACK CFI 246c0 .cfa: sp 0 +
STACK CFI 246c4 .cfa: x29 96 +
STACK CFI INIT 24a88 10c .cfa: sp 0 +
STACK CFI 24a8c .cfa: sp 64 +
STACK CFI 24a9c .cfa: x29 64 + x19: .cfa -8 + ^ x20: .cfa -16 + ^ x21: .cfa -24 + ^ x22: .cfa -32 + ^ x23: .cfa -48 + ^ .ra: .cfa -56 + ^ x29: .cfa -64 + ^
STACK CFI 24b74 .cfa: sp 64 +
STACK CFI 24b84 .cfa: sp 0 +
STACK CFI 24b88 .cfa: x29 64 +
STACK CFI INIT 24c0c 50 .cfa: sp 0 +
STACK CFI 24c10 .cfa: sp 32 +
STACK CFI 24c18 .cfa: x29 32 + x19: .cfa -8 + ^ x20: .cfa -16 + ^ .ra: .cfa -24 + ^ x29: .cfa -32 + ^
STACK CFI INIT 24e60 88 .cfa: sp 0 +
STACK CFI 24e64 .cfa: sp 32 +
STACK CFI 24e6c .cfa: x29 32 + x19: .cfa -8 + ^ x20: .cfa -16 + ^ .ra: .cfa -24 + ^ x29: .cfa -32 + ^
STACK CFI 24eac .cfa: sp 32 +
STACK CFI 24eb4 .cfa: sp 0 +
STACK CFI 24eb8 .cfa: x29 32 +
STACK CFI 24ec8 .cfa: sp 32 +
STACK CFI 24ed0 .cfa: sp 0 +
STACK CFI 24ed4 .cfa: x29 32 +
STACK CFI INIT 24f70 1dc .cfa: sp 0 +
STACK CFI 24f74 .cfa: sp 128 +
STACK CFI 24f84 .cfa: x29 48 + x19: .cfa -8 + ^ x20: .cfa -16 + ^ x21: .cfa -24 + ^ x22: .cfa -32 + ^ .ra: .cfa -40 + ^ x29: .cfa -48 + ^
STACK CFI 250f8 .cfa: sp 128 +
STACK CFI 25108 .cfa: sp 0 +
STACK CFI 2510c .cfa: x29 48 +
STACK CFI INIT 25174 158 .cfa: sp 0 +
STACK CFI 25178 .cfa: sp 96 +
STACK CFI 25188 .cfa: x29 48 + x19: .cfa -8 + ^ x20: .cfa -16 + ^ x21: .cfa -24 + ^ x22: .cfa -32 + ^ .ra: .cfa -40 + ^ x29: .cfa -48 + ^
STACK CFI 25240 .cfa: sp 96 +
STACK CFI 25250 .cfa: sp 0 +
STACK CFI 25254 .cfa: x29 48 +
STACK CFI INIT 252cc 3f8 .cfa: sp 0 +
STACK CFI 252d0 .cfa: sp 192 +
STACK CFI 252ec .cfa: x29 96 + x19: .cfa -8 + ^ x20: .cfa -16 + ^ x21: .cfa -24 + ^ x22: .cfa -32 + ^ x23: .cfa -40 + ^ x24: .cfa -48 + ^ x25: .cfa -56 + ^ x26: .cfa -64 + ^ x27: .cfa -72 + ^ x28: .cfa -80 + ^ .ra: .cfa -88 + ^ x29: .cfa -96 + ^
STACK CFI 25610 .cfa: sp 192 +
STACK CFI 2562c .cfa: sp 0 +
STACK CFI 25630 .cfa: x29 96 +
STACK CFI INIT 256c4 1e0 .cfa: sp 0 +
STACK CFI 256c8 .cfa: sp 144 +
STACK CFI 256d4 .cfa: x29 32 + x19: .cfa -8 + ^ x20: .cfa -16 + ^ .ra: .cfa -24 + ^ x29: .cfa -32 + ^
STACK CFI 25838 .cfa: sp 144 +
STACK CFI 25844 .cfa: sp 0 +
STACK CFI 25848 .cfa: x29 32 +
STACK CFI INIT 258a4 74 .cfa: sp 0 +
STACK CFI 258a8 .cfa: sp 48 +
STACK CFI 258b4 .cfa: x29 32 + x19: .cfa -8 + ^ x20: .cfa -16 + ^ .ra: .cfa -24 + ^ x29: .cfa -32 + ^
STACK CFI 25900 .cfa: sp 48 +
STACK CFI 2590c .cfa: sp 0 +
STACK CFI 25910 .cfa: x29 32 +
STACK CFI INIT 25918 74 .cfa: sp 0 +
STACK CFI 2591c .cfa: sp 48 +
STACK CFI 25928 .cfa: x29 32 + x19: .cfa -8 + ^ x20: .cfa -16 + ^ .ra: .cfa -24 + ^ x29: .cfa -32 + ^
STACK CFI 25974 .cfa: sp 48 +
STACK CFI 25980 .cfa: sp 0 +
STACK CFI 25984 .cfa: x29 32 +
STACK CFI INIT 2598c 12c .cfa: sp 0 +
STACK CFI 25990 .cfa: sp 80 +
STACK CFI 259a4 .cfa: x29 80 + x19: .cfa -8 + ^ x20: .cfa -16 + ^ x21: .cfa -24 + ^ x22: .cfa -32 + ^ x23: .cfa -40 + ^ x24: .cfa -48 + ^ x25: .cfa -56 + ^ x26: .cfa -64 + ^ .ra: .cfa -72 + ^ x29: .cfa -80 + ^
STACK CFI 25a6c .cfa: sp 80 +
STACK CFI 25a80 .cfa: sp 0 +
STACK CFI 25a84 .cfa: x29 80 +
STACK CFI INIT 25b5c 1a4 .cfa: sp 0 +
STACK CFI 25b60 .cfa: sp 112 +
STACK CFI 25b78 .cfa: x29 80 + x19: .cfa -8 + ^ x20: .cfa -16 + ^ x21: .cfa -24 + ^ x22: .cfa -32 + ^ x23: .cfa -40 + ^ x24: .cfa -48 + ^ x25: .cfa -56 + ^ x26: .cfa -64 + ^ .ra: .cfa -72 + ^ x29: .cfa -80 + ^
STACK CFI 25c68 .cfa: sp 112 +
STACK CFI 25c80 .cfa: sp 0 +
STACK CFI 25c84 .cfa: x29 80 +
STACK CFI INIT 25d00 1dc .cfa: sp 0 +
STACK CFI 25d04 .cfa: sp 128 +
STACK CFI 25d20 .cfa: x29 96 + x19: .cfa -8 + ^ x20: .cfa -16 + ^ x21: .cfa -24 + ^ x22: .cfa -32 + ^ x23: .cfa -40 + ^ x24: .cfa -48 + ^ x25: .cfa -56 + ^ x26: .cfa -64 + ^ x27: .cfa -80 + ^ .ra: .cfa -88 + ^ x29: .cfa -96 + ^
STACK CFI 25e8c .cfa: sp 128 +
STACK CFI 25ea8 .cfa: sp 0 +
STACK CFI 25eac .cfa: x29 96 +
STACK CFI INIT 25edc 178 .cfa: sp 0 +
STACK CFI 25ee0 .cfa: sp 80 +
STACK CFI 25ef4 .cfa: x29 80 + x19: .cfa -8 + ^ x20: .cfa -16 + ^ x21: .cfa -24 + ^ x22: .cfa -32 + ^ x23: .cfa -40 + ^ x24: .cfa -48 + ^ x25: .cfa -64 + ^ .ra: .cfa -72 + ^ x29: .cfa -80 + ^
STACK CFI 26020 .cfa: sp 80 +
STACK CFI 26034 .cfa: sp 0 +
STACK CFI 26038 .cfa: x29 80 +
STACK CFI INIT 261dc 194 .cfa: sp 0 +
STACK CFI 261e0 .cfa: sp 112 +
STACK CFI 261f0 .cfa: x29 48 + x19: .cfa -8 + ^ x20: .cfa -16 + ^ x21: .cfa -24 + ^ x22: .cfa -32 + ^ .ra: .cfa -40 + ^ x29: .cfa -48 + ^
STACK CFI 26318 .cfa: sp 112 +
STACK CFI 26328 .cfa: sp 0 +
STACK CFI 2632c .cfa: x29 48 +
STACK CFI INIT 26370 9bc .cfa: sp 0 +
STACK CFI 26374 .cfa: sp 96 +
STACK CFI 2638c .cfa: x29 96 + x19: .cfa -8 + ^ x20: .cfa -16 + ^ x21: .cfa -24 + ^ x22: .cfa -32 + ^ x23: .cfa -40 + ^ x24: .cfa -48 + ^ x25: .cfa -56 + ^ x26: .cfa -64 + ^ x27: .cfa -72 + ^ x28: .cfa -80 + ^ .ra: .cfa -88 + ^ x29: .cfa -96 + ^
STACK CFI 26b10 .cfa: sp 96 +
STACK CFI 26b28 .cfa: sp 0 +
STACK CFI 26b2c .cfa: x29 96 +
STACK CFI 26b40 .cfa: sp 96 +
STACK CFI 26b58 .cfa: sp 0 +
STACK CFI 26b5c .cfa: x29 96 +
STACK CFI INIT 26ee8 190 .cfa: sp 0 +
STACK CFI 26eec .cfa: sp 96 +
STACK CFI 26f00 .cfa: x29 64 + x19: .cfa -8 + ^ x20: .cfa -16 + ^ x21: .cfa -24 + ^ x22: .cfa -32 + ^ x23: .cfa -48 + ^ .ra: .cfa -56 + ^ x29: .cfa -64 + ^
STACK CFI 26ff8 .cfa: sp 96 +
STACK CFI 2700c .cfa: sp 0 +
STACK CFI 27010 .cfa: x29 64 +
STACK CFI INIT 27078 1264 .cfa: sp 0 +
STACK CFI 2707c .cfa: sp 128 +
STACK CFI 2709c .cfa: x29 96 + x19: .cfa -8 + ^ x20: .cfa -16 + ^ x21: .cfa -24 + ^ x22: .cfa -32 + ^ x23: .cfa -40 + ^ x24: .cfa -48 + ^ x25: .cfa -56 + ^ x26: .cfa -64 + ^ x27: .cfa -72 + ^ x28: .cfa -80 + ^ .ra: .cfa -88 + ^ x29: .cfa -96 + ^ v8: .cfa -104 + ^ v9: .cfa -112 + ^ v10: .cfa -120 + ^ v11: .cfa -128 + ^
STACK CFI 2800c .cfa: sp 128 +
STACK CFI 2802c .cfa: sp 0 +
STACK CFI 28030 .cfa: x29 96 +
STACK CFI INIT 2842c d8 .cfa: sp 0 +
STACK CFI 28430 .cfa: sp 32 +
STACK CFI 28438 .cfa: x29 32 + x19: .cfa -16 + ^ .ra: .cfa -24 + ^ x29: .cfa -32 + ^
STACK CFI 284f4 .cfa: sp 32 +
STACK CFI 284fc .cfa: sp 0 +
STACK CFI 28500 .cfa: x29 32 +
STACK CFI INIT 28504 e0 .cfa: sp 0 +
STACK CFI 28508 .cfa: sp 32 +
STACK CFI 28510 .cfa: x29 32 + x19: .cfa -16 + ^ .ra: .cfa -24 + ^ x29: .cfa -32 + ^
STACK CFI 285d4 .cfa: sp 32 +
STACK CFI 285dc .cfa: sp 0 +
STACK CFI 285e0 .cfa: x29 32 +
STACK CFI INIT 28644 370 .cfa: sp 0 +
STACK CFI 28648 .cfa: sp 128 +
STACK CFI 28660 .cfa: x29 64 + x19: .cfa -8 + ^ x20: .cfa -16 + ^ x21: .cfa -24 + ^ x22: .cfa -32 + ^ x23: .cfa -48 + ^ .ra: .cfa -56 + ^ x29: .cfa -64 + ^ v8: .cfa -72 + ^ v9: .cfa -80 + ^
STACK CFI 28964 .cfa: sp 128 +
STACK CFI 2897c .cfa: sp 0 +
STACK CFI 28980 .cfa: x29 64 +
STACK CFI INIT 28a7c dc .cfa: sp 0 +
STACK CFI 28a80 .cfa: sp 32 +
STACK CFI 28a88 .cfa: x29 32 + x19: .cfa -8 + ^ x20: .cfa -16 + ^ .ra: .cfa -24 + ^ x29: .cfa -32 + ^
STACK CFI 28b48 .cfa: sp 32 +
STACK CFI 28b50 .cfa: sp 0 +
STACK CFI 28b54 .cfa: x29 32 +
STACK CFI INIT 28b58 e4 .cfa: sp 0 +
STACK CFI 28b5c .cfa: sp 32 +
STACK CFI 28b64 .cfa: x29 32 + x19: .cfa -8 + ^ x20: .cfa -16 + ^ .ra: .cfa -24 + ^ x29: .cfa -32 + ^
STACK CFI 28c2c .cfa: sp 32 +
STACK CFI 28c34 .cfa: sp 0 +
STACK CFI 28c38 .cfa: x29 32 +
STACK CFI INIT 28c84 6c .cfa: sp 0 +
STACK CFI 28c88 .cfa: sp 32 +
STACK CFI 28c90 .cfa: x29 32 + x19: .cfa -16 + ^ .ra: .cfa -24 + ^ x29: .cfa -32 + ^
STACK CFI 28ce0 .cfa: sp 32 +
STACK CFI 28ce8 .cfa: sp 0 +
STACK CFI 28cec .cfa: x29 32 +
STACK CFI INIT 28cf4 148 .cfa: sp 0 +
STACK CFI 28cf8 .cfa: sp 96 +
STACK CFI 28d08 .cfa: x29 48 + x19: .cfa -8 + ^ x20: .cfa -16 + ^ x21: .cfa -32 + ^ .ra: .cfa -40 + ^ x29: .cfa -48 + ^
STACK CFI 28df0 .cfa: sp 96 +
STACK CFI 28e00 .cfa: sp 0 +
STACK CFI 28e04 .cfa: x29 48 +
STACK CFI INIT 28e3c 6c .cfa: sp 0 +
STACK CFI 28e40 .cfa: sp 32 +
STACK CFI 28e48 .cfa: x29 32 + x19: .cfa -16 + ^ .ra: .cfa -24 + ^ x29: .cfa -32 + ^
STACK CFI 28e98 .cfa: sp 32 +
STACK CFI 28ea0 .cfa: sp 0 +
STACK CFI 28ea4 .cfa: x29 32 +
STACK CFI INIT 2901c 2d4 .cfa: sp 0 +
STACK CFI 29020 .cfa: sp 176 +
STACK CFI 29038 .cfa: x29 80 + x19: .cfa -8 + ^ x20: .cfa -16 + ^ x21: .cfa -24 + ^ x22: .cfa -32 + ^ x23: .cfa -40 + ^ x24: .cfa -48 + ^ x25: .cfa -56 + ^ x26: .cfa -64 + ^ .ra: .cfa -72 + ^ x29: .cfa -80 + ^
STACK CFI 29268 .cfa: sp 176 +
STACK CFI 29280 .cfa: sp 0 +
STACK CFI 29284 .cfa: x29 80 +
STACK CFI INIT 292f0 1c .cfa: sp 0 +
STACK CFI 292f4 .cfa: sp 16 +
STACK CFI 292f8 .cfa: x29 16 + .ra: .cfa -8 + ^ x29: .cfa -16 + ^
STACK CFI 29300 .cfa: sp 16 +
STACK CFI 29304 .cfa: sp 0 +
STACK CFI 29308 .cfa: x29 16 +
STACK CFI INIT 2943c e4 .cfa: sp 0 +
STACK CFI 29440 .cfa: sp 64 +
STACK CFI 29450 .cfa: x29 48 + x19: .cfa -8 + ^ x20: .cfa -16 + ^ x21: .cfa -32 + ^ .ra: .cfa -40 + ^ x29: .cfa -48 + ^
STACK CFI 294e4 .cfa: sp 64 +
STACK CFI 294f4 .cfa: sp 0 +
STACK CFI 294f8 .cfa: x29 48 +
STACK CFI INIT 29520 188 .cfa: sp 0 +
STACK CFI 29524 .cfa: sp 112 +
STACK CFI 29534 .cfa: x29 48 + x19: .cfa -8 + ^ x20: .cfa -16 + ^ x21: .cfa -32 + ^ .ra: .cfa -40 + ^ x29: .cfa -48 + ^
STACK CFI 295fc .cfa: sp 112 +
STACK CFI 2960c .cfa: sp 0 +
STACK CFI 29610 .cfa: x29 48 +
STACK CFI INIT 296ac 188 .cfa: sp 0 +
STACK CFI 296b0 .cfa: sp 112 +
STACK CFI 296c0 .cfa: x29 48 + x19: .cfa -8 + ^ x20: .cfa -16 + ^ x21: .cfa -32 + ^ .ra: .cfa -40 + ^ x29: .cfa -48 + ^
STACK CFI 29788 .cfa: sp 112 +
STACK CFI 29798 .cfa: sp 0 +
STACK CFI 2979c .cfa: x29 48 +
STACK CFI INIT 29dd0 88 .cfa: sp 0 +
STACK CFI 29dd4 .cfa: sp 32 +
STACK CFI 29ddc .cfa: x29 32 + x19: .cfa -8 + ^ x20: .cfa -16 + ^ .ra: .cfa -24 + ^ x29: .cfa -32 + ^
STACK CFI 29e1c .cfa: sp 32 +
STACK CFI 29e24 .cfa: sp 0 +
STACK CFI 29e28 .cfa: x29 32 +
STACK CFI 29e38 .cfa: sp 32 +
STACK CFI 29e40 .cfa: sp 0 +
STACK CFI 29e44 .cfa: x29 32 +
STACK CFI INIT 29ee0 20c .cfa: sp 0 +
STACK CFI 29ee4 .cfa: sp 144 +
STACK CFI 29ef8 .cfa: x29 64 + x19: .cfa -8 + ^ x20: .cfa -16 + ^ x21: .cfa -24 + ^ x22: .cfa -32 + ^ x23: .cfa -40 + ^ x24: .cfa -48 + ^ .ra: .cfa -56 + ^ x29: .cfa -64 + ^
STACK CFI 2a084 .cfa: sp 144 +
STACK CFI 2a098 .cfa: sp 0 +
STACK CFI 2a09c .cfa: x29 64 +
STACK CFI INIT 2a114 65c .cfa: sp 0 +
STACK CFI 2a118 .cfa: sp 192 +
STACK CFI 2a130 .cfa: x29 80 + x19: .cfa -8 + ^ x20: .cfa -16 + ^ x21: .cfa -24 + ^ x22: .cfa -32 + ^ x23: .cfa -40 + ^ x24: .cfa -48 + ^ x25: .cfa -64 + ^ .ra: .cfa -72 + ^ x29: .cfa -80 + ^
STACK CFI 2a5a0 .cfa: sp 192 +
STACK CFI 2a5b8 .cfa: sp 0 +
STACK CFI 2a5bc .cfa: x29 80 +
STACK CFI INIT 2a7c0 74 .cfa: sp 0 +
STACK CFI 2a7c4 .cfa: sp 48 +
STACK CFI 2a7d0 .cfa: x29 32 + x19: .cfa -8 + ^ x20: .cfa -16 + ^ .ra: .cfa -24 + ^ x29: .cfa -32 + ^
STACK CFI 2a81c .cfa: sp 48 +
STACK CFI 2a828 .cfa: sp 0 +
STACK CFI 2a82c .cfa: x29 32 +
STACK CFI INIT 2a8b4 154 .cfa: sp 0 +
STACK CFI 2a8b8 .cfa: sp 384 +
STACK CFI 2a8cc .cfa: x29 64 + x19: .cfa -8 + ^ x20: .cfa -16 + ^ x21: .cfa -24 + ^ x22: .cfa -32 + ^ x23: .cfa -40 + ^ x28: .cfa -48 + ^ .ra: .cfa -56 + ^ x29: .cfa -64 + ^
STACK CFI 2a9b0 .cfa: sp 384 +
STACK CFI 2a9c4 .cfa: sp 0 +
STACK CFI 2a9c8 .cfa: x29 64 +
STACK CFI INIT 2aa08 224 .cfa: sp 0 +
STACK CFI 2aa0c .cfa: sp 128 +
STACK CFI 2aa24 .cfa: x29 80 + x19: .cfa -8 + ^ x20: .cfa -16 + ^ x21: .cfa -24 + ^ x22: .cfa -32 + ^ x23: .cfa -40 + ^ x24: .cfa -48 + ^ x25: .cfa -64 + ^ .ra: .cfa -72 + ^ x29: .cfa -80 + ^
STACK CFI 2abc0 .cfa: sp 128 +
STACK CFI 2abd8 .cfa: sp 0 +
STACK CFI 2abdc .cfa: x29 80 +
STACK CFI INIT 2b308 134 .cfa: sp 0 +
STACK CFI 2b30c .cfa: sp 128 +
STACK CFI 2b320 .cfa: x29 64 + x19: .cfa -8 + ^ x20: .cfa -16 + ^ x21: .cfa -24 + ^ x22: .cfa -32 + ^ x23: .cfa -40 + ^ x24: .cfa -48 + ^ .ra: .cfa -56 + ^ x29: .cfa -64 + ^
STACK CFI 2b3ec .cfa: sp 128 +
STACK CFI 2b400 .cfa: sp 0 +
STACK CFI 2b404 .cfa: x29 64 +
STACK CFI INIT 2b4d8 2ec .cfa: sp 0 +
STACK CFI 2b4dc .cfa: sp 80 +
STACK CFI 2b4ec .cfa: x29 48 + x19: .cfa -8 + ^ x20: .cfa -16 + ^ x21: .cfa -24 + ^ x22: .cfa -32 + ^ .ra: .cfa -40 + ^ x29: .cfa -48 + ^
STACK CFI 2b780 .cfa: sp 80 +
STACK CFI 2b790 .cfa: sp 0 +
STACK CFI 2b794 .cfa: x29 48 +
STACK CFI INIT 2b860 ec .cfa: sp 0 +
STACK CFI 2b864 .cfa: sp 48 +
STACK CFI 2b870 .cfa: x29 48 + x19: .cfa -8 + ^ x20: .cfa -16 + ^ x21: .cfa -24 + ^ x22: .cfa -32 + ^ .ra: .cfa -40 + ^ x29: .cfa -48 + ^
STACK CFI 2b8bc .cfa: sp 48 +
STACK CFI 2b8c8 .cfa: sp 0 +
STACK CFI 2b8cc .cfa: x29 48 +
STACK CFI 2b8d0 .cfa: sp 48 +
STACK CFI 2b8dc .cfa: sp 0 +
STACK CFI 2b8e0 .cfa: x29 48 +
STACK CFI INIT 2b94c e0 .cfa: sp 0 +
STACK CFI 2b950 .cfa: sp 32 +
STACK CFI 2b958 .cfa: x29 32 + x19: .cfa -8 + ^ x20: .cfa -16 + ^ .ra: .cfa -24 + ^ x29: .cfa -32 + ^
STACK CFI 2b9f0 .cfa: sp 32 +
STACK CFI 2b9f8 .cfa: sp 0 +
STACK CFI 2b9fc .cfa: x29 32 +
STACK CFI INIT 2c06c bec .cfa: sp 0 +
STACK CFI 2c070 .cfa: sp 304 +
STACK CFI 2c08c .cfa: x29 96 + x19: .cfa -8 + ^ x20: .cfa -16 + ^ x21: .cfa -24 + ^ x22: .cfa -32 + ^ x23: .cfa -40 + ^ x24: .cfa -48 + ^ x25: .cfa -56 + ^ x26: .cfa -64 + ^ x27: .cfa -72 + ^ x28: .cfa -80 + ^ .ra: .cfa -88 + ^ x29: .cfa -96 + ^
STACK CFI 2c90c .cfa: sp 304 +
STACK CFI 2c928 .cfa: sp 0 +
STACK CFI 2c92c .cfa: x29 96 +
STACK CFI INIT 2ccbc 22c .cfa: sp 0 +
STACK CFI 2ccc0 .cfa: sp 192 +
STACK CFI 2ccd0 .cfa: x29 48 + x19: .cfa -8 + ^ x20: .cfa -16 + ^ x21: .cfa -24 + ^ x22: .cfa -32 + ^ .ra: .cfa -40 + ^ x29: .cfa -48 + ^
STACK CFI 2ce30 .cfa: sp 192 +
STACK CFI 2ce40 .cfa: sp 0 +
STACK CFI 2ce44 .cfa: x29 48 +
STACK CFI INIT 2cee8 9c .cfa: sp 0 +
STACK CFI 2ceec .cfa: sp 64 +
STACK CFI 2cefc .cfa: x29 48 + x19: .cfa -8 + ^ x20: .cfa -16 + ^ x21: .cfa -32 + ^ .ra: .cfa -40 + ^ x29: .cfa -48 + ^
STACK CFI 2cf48 .cfa: sp 64 +
STACK CFI 2cf58 .cfa: sp 0 +
STACK CFI 2cf5c .cfa: x29 48 +
STACK CFI INIT 2d108 458 .cfa: sp 0 +
STACK CFI 2d10c .cfa: sp 208 +
STACK CFI 2d12c .cfa: x29 96 + x19: .cfa -8 + ^ x20: .cfa -16 + ^ x21: .cfa -24 + ^ x22: .cfa -32 + ^ x23: .cfa -40 + ^ x24: .cfa -48 + ^ x25: .cfa -56 + ^ x26: .cfa -64 + ^ x27: .cfa -72 + ^ x28: .cfa -80 + ^ .ra: .cfa -88 + ^ x29: .cfa -96 + ^ v8: .cfa -104 + ^ v9: .cfa -112 + ^
STACK CFI 2d4e0 .cfa: sp 208 +
STACK CFI 2d500 .cfa: sp 0 +
STACK CFI 2d504 .cfa: x29 96 +
STACK CFI INIT 2d6a0 134 .cfa: sp 0 +
STACK CFI 2d6a4 .cfa: sp 80 +
STACK CFI 2d6b0 .cfa: x29 32 + x19: .cfa -8 + ^ x20: .cfa -16 + ^ .ra: .cfa -24 + ^ x29: .cfa -32 + ^
STACK CFI 2d6e0 .cfa: sp 80 +
STACK CFI 2d6ec .cfa: sp 0 +
STACK CFI 2d6f0 .cfa: x29 32 +
STACK CFI INIT 2d7d4 78 .cfa: sp 0 +
STACK CFI 2d7d8 .cfa: sp 32 +
STACK CFI 2d7e0 .cfa: x29 32 + x19: .cfa -8 + ^ x20: .cfa -16 + ^ .ra: .cfa -24 + ^ x29: .cfa -32 + ^
STACK CFI 2d7ec .cfa: sp 32 +
STACK CFI 2d7f4 .cfa: sp 0 +
STACK CFI 2d7f8 .cfa: x29 32 +
STACK CFI INIT 2d84c 74 .cfa: sp 0 +
STACK CFI 2d850 .cfa: sp 48 +
STACK CFI 2d85c .cfa: x29 32 + x19: .cfa -8 + ^ x20: .cfa -16 + ^ .ra: .cfa -24 + ^ x29: .cfa -32 + ^
STACK CFI 2d8a8 .cfa: sp 48 +
STACK CFI 2d8b4 .cfa: sp 0 +
STACK CFI 2d8b8 .cfa: x29 32 +
STACK CFI INIT 2d9e4 2d8 .cfa: sp 0 +
STACK CFI 2d9e8 .cfa: sp 128 +
STACK CFI 2d9fc .cfa: x29 64 + x19: .cfa -8 + ^ x20: .cfa -16 + ^ x21: .cfa -24 + ^ x22: .cfa -32 + ^ x23: .cfa -48 + ^ .ra: .cfa -56 + ^ x29: .cfa -64 + ^
STACK CFI 2db68 .cfa: sp 128 +
STACK CFI 2db7c .cfa: sp 0 +
STACK CFI 2db80 .cfa: x29 64 +
STACK CFI INIT 2dd10 250 .cfa: sp 0 +
STACK CFI 2dd14 .cfa: sp 112 +
STACK CFI 2dd24 .cfa: x29 48 + x19: .cfa -8 + ^ x20: .cfa -16 + ^ x21: .cfa -32 + ^ .ra: .cfa -40 + ^ x29: .cfa -48 + ^
STACK CFI 2de08 .cfa: sp 112 +
STACK CFI 2de18 .cfa: sp 0 +
STACK CFI 2de1c .cfa: x29 48 +
STACK CFI INIT 2e02c 290 .cfa: sp 0 +
STACK CFI 2e030 .cfa: sp 128 +
STACK CFI 2e044 .cfa: x29 64 + x19: .cfa -8 + ^ x20: .cfa -16 + ^ x21: .cfa -24 + ^ x22: .cfa -32 + ^ x23: .cfa -48 + ^ .ra: .cfa -56 + ^ x29: .cfa -64 + ^
STACK CFI 2e168 .cfa: sp 128 +
STACK CFI 2e17c .cfa: sp 0 +
STACK CFI 2e180 .cfa: x29 64 +
STACK CFI INIT 2e2bc a4 .cfa: sp 0 +
STACK CFI 2e2c0 .cfa: sp 48 +
STACK CFI 2e2cc .cfa: x29 48 + x19: .cfa -8 + ^ x20: .cfa -16 + ^ x21: .cfa -32 + ^ .ra: .cfa -40 + ^ x29: .cfa -48 + ^
STACK CFI 2e338 .cfa: sp 48 +
STACK CFI 2e344 .cfa: sp 0 +
STACK CFI 2e348 .cfa: x29 48 +
STACK CFI INIT 2e360 178 .cfa: sp 0 +
STACK CFI 2e364 .cfa: sp 128 +
STACK CFI 2e374 .cfa: x29 48 + x19: .cfa -8 + ^ x20: .cfa -16 + ^ x21: .cfa -24 + ^ x22: .cfa -32 + ^ .ra: .cfa -40 + ^ x29: .cfa -48 + ^
STACK CFI 2e3d0 .cfa: sp 128 +
STACK CFI 2e3e0 .cfa: sp 0 +
STACK CFI 2e3e4 .cfa: x29 48 +
STACK CFI INIT 2e4d8 298 .cfa: sp 0 +
STACK CFI 2e4dc .cfa: sp 128 +
STACK CFI 2e4f0 .cfa: x29 64 + x19: .cfa -8 + ^ x20: .cfa -16 + ^ x21: .cfa -24 + ^ x22: .cfa -32 + ^ x23: .cfa -48 + ^ .ra: .cfa -56 + ^ x29: .cfa -64 + ^
STACK CFI 2e61c .cfa: sp 128 +
STACK CFI 2e630 .cfa: sp 0 +
STACK CFI 2e634 .cfa: x29 64 +
STACK CFI INIT 2e800 190 .cfa: sp 0 +
STACK CFI 2e804 .cfa: sp 144 +
STACK CFI 2e818 .cfa: x29 64 + x19: .cfa -8 + ^ x20: .cfa -16 + ^ x21: .cfa -24 + ^ x22: .cfa -32 + ^ x23: .cfa -48 + ^ .ra: .cfa -56 + ^ x29: .cfa -64 + ^
STACK CFI 2e884 .cfa: sp 144 +
STACK CFI 2e898 .cfa: sp 0 +
STACK CFI 2e89c .cfa: x29 64 +
STACK CFI INIT 2e990 10c .cfa: sp 0 +
STACK CFI 2e994 .cfa: sp 64 +
STACK CFI 2e9a4 .cfa: x29 48 + x19: .cfa -8 + ^ x20: .cfa -16 + ^ x21: .cfa -24 + ^ x22: .cfa -32 + ^ .ra: .cfa -40 + ^ x29: .cfa -48 + ^
STACK CFI 2ea54 .cfa: sp 64 +
STACK CFI 2ea64 .cfa: sp 0 +
STACK CFI 2ea68 .cfa: x29 48 +
STACK CFI INIT 2ea9c 15c .cfa: sp 0 +
STACK CFI 2eaa0 .cfa: sp 96 +
STACK CFI 2eab4 .cfa: x29 64 + x19: .cfa -8 + ^ x20: .cfa -16 + ^ x21: .cfa -24 + ^ x22: .cfa -32 + ^ x23: .cfa -48 + ^ .ra: .cfa -56 + ^ x29: .cfa -64 + ^
STACK CFI 2eba8 .cfa: sp 96 +
STACK CFI 2ebbc .cfa: sp 0 +
STACK CFI 2ebc0 .cfa: x29 64 +
STACK CFI INIT 2ebf8 188 .cfa: sp 0 +
STACK CFI 2ebfc .cfa: sp 144 +
STACK CFI 2ec10 .cfa: x29 64 + x19: .cfa -8 + ^ x20: .cfa -16 + ^ x21: .cfa -24 + ^ x22: .cfa -32 + ^ x23: .cfa -48 + ^ .ra: .cfa -56 + ^ x29: .cfa -64 + ^
STACK CFI 2ec74 .cfa: sp 144 +
STACK CFI 2ec88 .cfa: sp 0 +
STACK CFI 2ec8c .cfa: x29 64 +
STACK CFI INIT 2ed80 10c .cfa: sp 0 +
STACK CFI 2ed84 .cfa: sp 64 +
STACK CFI 2ed94 .cfa: x29 48 + x19: .cfa -8 + ^ x20: .cfa -16 + ^ x21: .cfa -24 + ^ x22: .cfa -32 + ^ .ra: .cfa -40 + ^ x29: .cfa -48 + ^
STACK CFI 2ee44 .cfa: sp 64 +
STACK CFI 2ee54 .cfa: sp 0 +
STACK CFI 2ee58 .cfa: x29 48 +
STACK CFI INIT 2eea8 2bc .cfa: sp 0 +
STACK CFI 2eeac .cfa: sp 128 +
STACK CFI 2eec0 .cfa: x29 64 + x19: .cfa -8 + ^ x20: .cfa -16 + ^ x21: .cfa -24 + ^ x22: .cfa -32 + ^ x23: .cfa -48 + ^ .ra: .cfa -56 + ^ x29: .cfa -64 + ^
STACK CFI 2f010 .cfa: sp 128 +
STACK CFI 2f024 .cfa: sp 0 +
STACK CFI 2f028 .cfa: x29 64 +
STACK CFI INIT 2f164 2bc .cfa: sp 0 +
STACK CFI 2f168 .cfa: sp 128 +
STACK CFI 2f17c .cfa: x29 64 + x19: .cfa -8 + ^ x20: .cfa -16 + ^ x21: .cfa -24 + ^ x22: .cfa -32 + ^ x23: .cfa -48 + ^ .ra: .cfa -56 + ^ x29: .cfa -64 + ^
STACK CFI 2f2cc .cfa: sp 128 +
STACK CFI 2f2e0 .cfa: sp 0 +
STACK CFI 2f2e4 .cfa: x29 64 +
STACK CFI INIT 2f420 278 .cfa: sp 0 +
STACK CFI 2f424 .cfa: sp 128 +
STACK CFI 2f438 .cfa: x29 64 + x19: .cfa -8 + ^ x20: .cfa -16 + ^ x21: .cfa -24 + ^ x22: .cfa -32 + ^ x23: .cfa -48 + ^ .ra: .cfa -56 + ^ x29: .cfa -64 + ^
STACK CFI 2f544 .cfa: sp 128 +
STACK CFI 2f558 .cfa: sp 0 +
STACK CFI 2f55c .cfa: x29 64 +
STACK CFI INIT 2f698 2c8 .cfa: sp 0 +
STACK CFI 2f69c .cfa: sp 128 +
STACK CFI 2f6b0 .cfa: x29 64 + x19: .cfa -8 + ^ x20: .cfa -16 + ^ x21: .cfa -24 + ^ x22: .cfa -32 + ^ x23: .cfa -48 + ^ .ra: .cfa -56 + ^ x29: .cfa -64 + ^
STACK CFI 2f80c .cfa: sp 128 +
STACK CFI 2f820 .cfa: sp 0 +
STACK CFI 2f824 .cfa: x29 64 +
STACK CFI INIT 2f960 4cc .cfa: sp 0 +
STACK CFI 2f964 .cfa: sp 128 +
STACK CFI 2f978 .cfa: x29 64 + x19: .cfa -8 + ^ x20: .cfa -16 + ^ x21: .cfa -24 + ^ x22: .cfa -32 + ^ x23: .cfa -48 + ^ .ra: .cfa -56 + ^ x29: .cfa -64 + ^
STACK CFI 2fc84 .cfa: sp 128 +
STACK CFI 2fc98 .cfa: sp 0 +
STACK CFI 2fc9c .cfa: x29 64 +
STACK CFI INIT 2fe2c 154 .cfa: sp 0 +
STACK CFI 2fe30 .cfa: sp 384 +
STACK CFI 2fe44 .cfa: x29 64 + x19: .cfa -8 + ^ x20: .cfa -16 + ^ x21: .cfa -24 + ^ x22: .cfa -32 + ^ x23: .cfa -40 + ^ x28: .cfa -48 + ^ .ra: .cfa -56 + ^ x29: .cfa -64 + ^
STACK CFI 2ff28 .cfa: sp 384 +
STACK CFI 2ff3c .cfa: sp 0 +
STACK CFI 2ff40 .cfa: x29 64 +
STACK CFI INIT 2ff80 168 .cfa: sp 0 +
STACK CFI 2ff84 .cfa: sp 384 +
STACK CFI 2ff98 .cfa: x29 64 + x19: .cfa -8 + ^ x20: .cfa -16 + ^ x21: .cfa -24 + ^ x22: .cfa -32 + ^ x23: .cfa -40 + ^ x28: .cfa -48 + ^ .ra: .cfa -56 + ^ x29: .cfa -64 + ^
STACK CFI 30090 .cfa: sp 384 +
STACK CFI 300a4 .cfa: sp 0 +
STACK CFI 300a8 .cfa: x29 64 +
STACK CFI INIT 303b8 4e0 .cfa: sp 0 +
STACK CFI 303bc .cfa: sp 64 +
STACK CFI 303cc .cfa: x29 64 + x19: .cfa -8 + ^ x20: .cfa -16 + ^ x21: .cfa -24 + ^ x22: .cfa -32 + ^ x23: .cfa -40 + ^ x24: .cfa -48 + ^ .ra: .cfa -56 + ^ x29: .cfa -64 + ^
STACK CFI 3086c .cfa: sp 64 +
STACK CFI 3087c .cfa: sp 0 +
STACK CFI 30880 .cfa: x29 64 +
STACK CFI INIT 30898 200 .cfa: sp 0 +
STACK CFI 3089c .cfa: sp 64 +
STACK CFI 308ac .cfa: x29 64 + x19: .cfa -8 + ^ x20: .cfa -16 + ^ x21: .cfa -24 + ^ x22: .cfa -32 + ^ x23: .cfa -40 + ^ x24: .cfa -48 + ^ .ra: .cfa -56 + ^ x29: .cfa -64 + ^
STACK CFI 30a44 .cfa: sp 64 +
STACK CFI 30a54 .cfa: sp 0 +
STACK CFI 30a58 .cfa: x29 64 +
STACK CFI INIT 30dc8 294 .cfa: sp 0 +
STACK CFI 30dcc .cfa: sp 240 +
STACK CFI 30de4 .cfa: x29 80 + x19: .cfa -8 + ^ x20: .cfa -16 + ^ x21: .cfa -24 + ^ x22: .cfa -32 + ^ x23: .cfa -40 + ^ x24: .cfa -48 + ^ x25: .cfa -64 + ^ .ra: .cfa -72 + ^ x29: .cfa -80 + ^
STACK CFI 30f84 .cfa: sp 240 +
STACK CFI 30f9c .cfa: sp 0 +
STACK CFI 30fa0 .cfa: x29 80 +
STACK CFI INIT 310d8 50 .cfa: sp 0 +
STACK CFI 310dc .cfa: sp 32 +
STACK CFI 310e4 .cfa: x29 32 + x19: .cfa -8 + ^ x20: .cfa -16 + ^ .ra: .cfa -24 + ^ x29: .cfa -32 + ^
STACK CFI INIT 31154 7c0 .cfa: sp 0 +
STACK CFI 31158 .cfa: sp 320 +
STACK CFI 31174 .cfa: x29 96 + x19: .cfa -8 + ^ x20: .cfa -16 + ^ x21: .cfa -24 + ^ x22: .cfa -32 + ^ x23: .cfa -40 + ^ x24: .cfa -48 + ^ x25: .cfa -56 + ^ x26: .cfa -64 + ^ x27: .cfa -72 + ^ x28: .cfa -80 + ^ .ra: .cfa -88 + ^ x29: .cfa -96 + ^
STACK CFI 317c4 .cfa: sp 320 +
STACK CFI 317e0 .cfa: sp 0 +
STACK CFI 317e4 .cfa: x29 96 +
STACK CFI INIT 35c94 c74 .cfa: sp 0 +
STACK CFI 35c98 .cfa: sp 96 +
STACK CFI 35cb0 .cfa: x29 96 + x19: .cfa -8 + ^ x20: .cfa -16 + ^ x21: .cfa -24 + ^ x22: .cfa -32 + ^ x23: .cfa -40 + ^ x24: .cfa -48 + ^ x25: .cfa -56 + ^ x26: .cfa -64 + ^ x27: .cfa -72 + ^ x28: .cfa -80 + ^ .ra: .cfa -88 + ^ x29: .cfa -96 + ^
STACK CFI 36728 .cfa: sp 96 +
STACK CFI 36740 .cfa: sp 0 +
STACK CFI 36744 .cfa: x29 96 +
STACK CFI INIT 36a5c 26c .cfa: sp 0 +
STACK CFI 36a60 .cfa: sp 128 +
STACK CFI 36a70 .cfa: x29 48 + x19: .cfa -8 + ^ x20: .cfa -16 + ^ x21: .cfa -24 + ^ x22: .cfa -32 + ^ .ra: .cfa -40 + ^ x29: .cfa -48 + ^
STACK CFI 36c14 .cfa: sp 128 +
STACK CFI 36c24 .cfa: sp 0 +
STACK CFI 36c28 .cfa: x29 48 +
STACK CFI INIT 37058 3b8 .cfa: sp 0 +
STACK CFI 3705c .cfa: sp 96 +
STACK CFI 37074 .cfa: x29 96 + x19: .cfa -8 + ^ x20: .cfa -16 + ^ x21: .cfa -24 + ^ x22: .cfa -32 + ^ x23: .cfa -40 + ^ x24: .cfa -48 + ^ x25: .cfa -56 + ^ x26: .cfa -64 + ^ x27: .cfa -72 + ^ x28: .cfa -80 + ^ .ra: .cfa -88 + ^ x29: .cfa -96 + ^
STACK CFI 373b0 .cfa: sp 96 +
STACK CFI 373c8 .cfa: sp 0 +
STACK CFI 373cc .cfa: x29 96 +
STACK CFI INIT 374b0 cb4 .cfa: sp 0 +
STACK CFI 374b4 .cfa: sp 96 +
STACK CFI 374cc .cfa: x29 96 + x19: .cfa -8 + ^ x20: .cfa -16 + ^ x21: .cfa -24 + ^ x22: .cfa -32 + ^ x23: .cfa -40 + ^ x24: .cfa -48 + ^ x25: .cfa -56 + ^ x26: .cfa -64 + ^ x27: .cfa -72 + ^ x28: .cfa -80 + ^ .ra: .cfa -88 + ^ x29: .cfa -96 + ^
STACK CFI 37f74 .cfa: sp 96 +
STACK CFI 37f8c .cfa: sp 0 +
STACK CFI 37f90 .cfa: x29 96 +
STACK CFI INIT 3844c afc .cfa: sp 0 +
STACK CFI 38450 .cfa: sp 96 +
STACK CFI 38468 .cfa: x29 96 + x19: .cfa -8 + ^ x20: .cfa -16 + ^ x21: .cfa -24 + ^ x22: .cfa -32 + ^ x23: .cfa -40 + ^ x24: .cfa -48 + ^ x25: .cfa -56 + ^ x26: .cfa -64 + ^ x27: .cfa -72 + ^ x28: .cfa -80 + ^ .ra: .cfa -88 + ^ x29: .cfa -96 + ^
STACK CFI 38ebc .cfa: sp 96 +
STACK CFI 38ed4 .cfa: sp 0 +
STACK CFI 38ed8 .cfa: x29 96 +
STACK CFI INIT 39124 1430 .cfa: sp 0 +
STACK CFI 39128 .cfa: sp 96 +
STACK CFI 39140 .cfa: x29 96 + x19: .cfa -8 + ^ x20: .cfa -16 + ^ x21: .cfa -24 + ^ x22: .cfa -32 + ^ x23: .cfa -40 + ^ x24: .cfa -48 + ^ x25: .cfa -56 + ^ x26: .cfa -64 + ^ x27: .cfa -72 + ^ x28: .cfa -80 + ^ .ra: .cfa -88 + ^ x29: .cfa -96 + ^
STACK CFI 3a3dc .cfa: sp 96 +
STACK CFI 3a3f4 .cfa: sp 0 +
STACK CFI 3a3f8 .cfa: x29 96 +
STACK CFI INIT 3a678 75c .cfa: sp 0 +
STACK CFI 3a67c .cfa: sp 368 +
STACK CFI 3a698 .cfa: x29 96 + x19: .cfa -8 + ^ x20: .cfa -16 + ^ x21: .cfa -24 + ^ x22: .cfa -32 + ^ x23: .cfa -40 + ^ x24: .cfa -48 + ^ x25: .cfa -56 + ^ x26: .cfa -64 + ^ x27: .cfa -72 + ^ x28: .cfa -80 + ^ .ra: .cfa -88 + ^ x29: .cfa -96 + ^
STACK CFI 3a74c .cfa: sp 368 +
STACK CFI 3a768 .cfa: sp 0 +
STACK CFI 3a76c .cfa: x29 96 +
STACK CFI 3a7c0 .cfa: sp 368 +
STACK CFI 3a7dc .cfa: sp 0 +
STACK CFI 3a7e0 .cfa: x29 96 +
STACK CFI INIT 3b194 eb0 .cfa: sp 0 +
STACK CFI 3b198 .cfa: sp 96 +
STACK CFI 3b1b0 .cfa: x29 96 + x19: .cfa -8 + ^ x20: .cfa -16 + ^ x21: .cfa -24 + ^ x22: .cfa -32 + ^ x23: .cfa -40 + ^ x24: .cfa -48 + ^ x25: .cfa -56 + ^ x26: .cfa -64 + ^ x27: .cfa -72 + ^ x28: .cfa -80 + ^ .ra: .cfa -88 + ^ x29: .cfa -96 + ^
STACK CFI 3be58 .cfa: sp 96 +
STACK CFI 3be70 .cfa: sp 0 +
STACK CFI 3be74 .cfa: x29 96 +
STACK CFI INIT 3c3b8 1c9c .cfa: sp 0 +
STACK CFI 3c3bc .cfa: sp 112 +
STACK CFI 3c3d8 .cfa: x29 96 + x19: .cfa -8 + ^ x20: .cfa -16 + ^ x21: .cfa -24 + ^ x22: .cfa -32 + ^ x23: .cfa -40 + ^ x24: .cfa -48 + ^ x25: .cfa -56 + ^ x26: .cfa -64 + ^ x27: .cfa -72 + ^ x28: .cfa -80 + ^ .ra: .cfa -88 + ^ x29: .cfa -96 + ^ v8: .cfa -112 + ^
STACK CFI 3c7c0 .cfa: sp 112 +
STACK CFI 3c7dc .cfa: sp 0 +
STACK CFI 3c7e0 .cfa: x29 96 +
STACK CFI INIT 40818 9a0 .cfa: sp 0 +
STACK CFI 4081c .cfa: sp 144 +
STACK CFI 40834 .cfa: x29 80 + x19: .cfa -8 + ^ x20: .cfa -16 + ^ x21: .cfa -24 + ^ x22: .cfa -32 + ^ x23: .cfa -40 + ^ x24: .cfa -48 + ^ x25: .cfa -64 + ^ .ra: .cfa -72 + ^ x29: .cfa -80 + ^
STACK CFI 41134 .cfa: sp 144 +
STACK CFI 4114c .cfa: sp 0 +
STACK CFI 41150 .cfa: x29 80 +
STACK CFI INIT 426dc 57c .cfa: sp 0 +
STACK CFI 426e0 .cfa: sp 96 +
STACK CFI 426f8 .cfa: x29 96 + x19: .cfa -8 + ^ x20: .cfa -16 + ^ x21: .cfa -24 + ^ x22: .cfa -32 + ^ x23: .cfa -40 + ^ x24: .cfa -48 + ^ x25: .cfa -56 + ^ x26: .cfa -64 + ^ x27: .cfa -72 + ^ x28: .cfa -80 + ^ .ra: .cfa -88 + ^ x29: .cfa -96 + ^
STACK CFI 42bbc .cfa: sp 96 +
STACK CFI 42bd4 .cfa: sp 0 +
STACK CFI 42bd8 .cfa: x29 96 +
STACK CFI INIT 42c58 67c .cfa: sp 0 +
STACK CFI 42c5c .cfa: sp 96 +
STACK CFI 42c74 .cfa: x29 96 + x19: .cfa -8 + ^ x20: .cfa -16 + ^ x21: .cfa -24 + ^ x22: .cfa -32 + ^ x23: .cfa -40 + ^ x24: .cfa -48 + ^ x25: .cfa -56 + ^ x26: .cfa -64 + ^ x27: .cfa -72 + ^ x28: .cfa -80 + ^ .ra: .cfa -88 + ^ x29: .cfa -96 + ^
STACK CFI 43238 .cfa: sp 96 +
STACK CFI 43250 .cfa: sp 0 +
STACK CFI 43254 .cfa: x29 96 +
