MODULE Linux arm64 89D522522A0C10D9689DD4F500DE579C0 km7dev.server_api.android64.so
INFO CODE_ID 5222D5890C2AD910689DD4F500DE579C5C4DC53E
INFO GENERATOR mozilla/dump_syms 2.3.4
PUBLIC 10460 0 __on_dlclose
PUBLIC 10470 0 __emutls_unregister_key
PUBLIC 10478 0 __on_dlclose_late
PUBLIC 10480 0 __atexit_handler_wrapper
PUBLIC 10494 0 atexit
PUBLIC 104b0 0 pthread_atfork
PUBLIC 104c0 0 __aarch64_ldadd8_relax
PUBLIC 104f0 0 init_have_lse_atomics
PUBLIC 10588 0 __init_cpu_features_constructor
PUBLIC 10b24 0 __init_cpu_features
PUBLIC 10bb0 0 __aarch64_ldadd8_acq_rel
PUBLIC 10be0 0 PopupSetting::createNode(float)
PUBLIC 10eec 0 std::__ndk1::shared_ptr<PopupSetting>::~shared_ptr[abi:ne180000]()
PUBLIC 10f3c 0 std::__ndk1::shared_ptr<geode::SettingV3>::~shared_ptr[abi:ne180000]()
PUBLIC 10f8c 0 PopupSetting::~PopupSetting()
PUBLIC 10fb0 0 PopupSetting::load(matjson::Value const&)
PUBLIC 10fb8 0 PopupSetting::save(matjson::Value&) const
PUBLIC 10fc0 0 PopupSetting::isDefaultValue() const
PUBLIC 10fc8 0 PopupSetting::reset()
PUBLIC 10fcc 0 cocos2d::CCCopying::copyWithZone(cocos2d::CCZone*)
PUBLIC 10fd4 0 geode::SettingNodeV3::~SettingNodeV3()
PUBLIC 11044 0 PopupSettingNode::~PopupSettingNode()
PUBLIC 110c4 0 PopupSettingNode::updateState(cocos2d::CCNode*)
PUBLIC 11250 0 PopupSettingNode::onCommit()
PUBLIC 11254 0 PopupSettingNode::onResetToDefault()
PUBLIC 11258 0 PopupSettingNode::hasUncommittedChanges() const
PUBLIC 11260 0 PopupSettingNode::hasNonDefaultValue() const
PUBLIC 11268 0 PopupSettingNode::onButton(cocos2d::CCObject*)
PUBLIC 11874 0 std::__ndk1::basic_string<char, std::__ndk1::char_traits<char>, std::__ndk1::allocator<char> >::__throw_length_error[abi:ne180000]() const
PUBLIC 11888 0 std::__ndk1::__throw_length_error[abi:ne180000](char const*)
PUBLIC 118d8 0 std::length_error::length_error[abi:ne180000](char const*)
PUBLIC 11908 0 __clang_call_terminate
PUBLIC 11918 0 std::__ndk1::__tree<std::__ndk1::__value_type<int, std::__ndk1::pair<std::__ndk1::basic_string<char, std::__ndk1::char_traits<char>, std::__ndk1::allocator<char> >, int> >, std::__ndk1::__map_value_compare<int, std::__ndk1::__value_type<int, std::__ndk1::pair<std::__ndk1::basic_string<char, std::__ndk1::char_traits<char>, std::__ndk1::allocator<char> >, int> >, std::__ndk1::less<int>, true>, std::__ndk1::allocator<std::__ndk1::__value_type<int, std::__ndk1::pair<std::__ndk1::basic_string<char, std::__ndk1::char_traits<char>, std::__ndk1::allocator<char> >, int> > > >::destroy(std::__ndk1::__tree_node<std::__ndk1::__value_type<int, std::__ndk1::pair<std::__ndk1::basic_string<char, std::__ndk1::char_traits<char>, std::__ndk1::allocator<char> >, int> >, void*>*)
PUBLIC 11968 0 std::__ndk1::__throw_bad_weak_ptr[abi:ne180000]()
PUBLIC 1199c 0 PopupSetting::parse(std::__ndk1::basic_string<char, std::__ndk1::char_traits<char>, std::__ndk1::allocator<char> > const&, std::__ndk1::basic_string<char, std::__ndk1::char_traits<char>, std::__ndk1::allocator<char> > const&, matjson::Value const&)
PUBLIC 11d3c 0 geode::impl::ResultData<void, std::__ndk1::basic_string<char, std::__ndk1::char_traits<char>, std::__ndk1::allocator<char> > >::~ResultData()
PUBLIC 11db0 0 std::__ndk1::__shared_ptr_emplace<PopupSetting, std::__ndk1::allocator<PopupSetting> >::~__shared_ptr_emplace()
PUBLIC 11dc0 0 std::__ndk1::__shared_ptr_emplace<PopupSetting, std::__ndk1::allocator<PopupSetting> >::~__shared_ptr_emplace()
PUBLIC 11df0 0 std::__ndk1::__shared_ptr_emplace<PopupSetting, std::__ndk1::allocator<PopupSetting> >::__on_zero_shared()
PUBLIC 11dfc 0 std::__ndk1::__shared_ptr_emplace<PopupSetting, std::__ndk1::allocator<PopupSetting> >::__on_zero_shared_weak()
PUBLIC 11e00 0 std::__ndk1::__throw_bad_variant_access[abi:ne180000]()
PUBLIC 11e34 0 geode::UnwrapException::~UnwrapException()
PUBLIC 11e58 0 std::__ndk1::basic_string<char, std::__ndk1::char_traits<char>, std::__ndk1::allocator<char> >::__init_copy_ctor_external(char const*, unsigned long)
PUBLIC 11ed8 0 std::__ndk1::__function::__base<geode::Result<std::__ndk1::shared_ptr<geode::SettingV3>, std::__ndk1::basic_string<char, std::__ndk1::char_traits<char>, std::__ndk1::allocator<char> > >(std::__ndk1::basic_string<char, std::__ndk1::char_traits<char>, std::__ndk1::allocator<char> > const&, std::__ndk1::basic_string<char, std::__ndk1::char_traits<char>, std::__ndk1::allocator<char> > const&, matjson::Value const&)>::~__base()
PUBLIC 11edc 0 std::__ndk1::__function::__func<changeToGenerator<geode::Result<std::__ndk1::shared_ptr<PopupSetting>, std::__ndk1::basic_string<char, std::__ndk1::char_traits<char>, std::__ndk1::allocator<char> > > (&)(std::__ndk1::basic_string<char, std::__ndk1::char_traits<char>, std::__ndk1::allocator<char> > const&, std::__ndk1::basic_string<char, std::__ndk1::char_traits<char>, std::__ndk1::allocator<char> > const&, matjson::Value const&)>(geode::Result<std::__ndk1::shared_ptr<PopupSetting>, std::__ndk1::basic_string<char, std::__ndk1::char_traits<char>, std::__ndk1::allocator<char> > > (&)(std::__ndk1::basic_string<char, std::__ndk1::char_traits<char>, std::__ndk1::allocator<char> > const&, std::__ndk1::basic_string<char, std::__ndk1::char_traits<char>, std::__ndk1::allocator<char> > const&, matjson::Value const&))::{lambda(std::__ndk1::basic_string<char, std::__ndk1::char_traits<char>, std::__ndk1::allocator<char> > const&, std::__ndk1::basic_string<char, std::__ndk1::char_traits<char>, std::__ndk1::allocator<char> > const&, matjson::Value const&)#1}, std::__ndk1::allocator<changeToGenerator<geode::Result<std::__ndk1::shared_ptr<PopupSetting>, std::__ndk1::basic_string<char, std::__ndk1::char_traits<char>, std::__ndk1::allocator<char> > > (&)(std::__ndk1::basic_string<char, std::__ndk1::char_traits<char>, std::__ndk1::allocator<char> > const&, std::__ndk1::basic_string<char, std::__ndk1::char_traits<char>, std::__ndk1::allocator<char> > const&, matjson::Value const&)>(geode::Result<std::__ndk1::shared_ptr<PopupSetting>, std::__ndk1::basic_string<char, std::__ndk1::char_traits<char>, std::__ndk1::allocator<char> > > (&)(std::__ndk1::basic_string<char, std::__ndk1::char_traits<char>, std::__ndk1::allocator<char> > const&, std::__ndk1::basic_string<char, std::__ndk1::char_traits<char>, std::__ndk1::allocator<char> > const&, matjson::Value const&))::{lambda(std::__ndk1::basic_string<char, std::__ndk1::char_traits<char>, std::__ndk1::allocator<char> > const&, std::__ndk1::basic_string<char, std::__ndk1::char_traits<char>, std::__ndk1::allocator<char> > const&, matjson::Value const&)#1}>, geode::Result<std::__ndk1::shared_ptr<geode::SettingV3>, std::__ndk1::basic_string<char, std::__ndk1::char_traits<char>, std::__ndk1::allocator<char> > >(std::__ndk1::basic_string<char, std::__ndk1::char_traits<char>, std::__ndk1::allocator<char> > const&, std::__ndk1::basic_string<char, std::__ndk1::char_traits<char>, std::__ndk1::allocator<char> > const&, matjson::Value const&)>::~__func()
PUBLIC 11ee0 0 std::__ndk1::__function::__func<changeToGenerator<geode::Result<std::__ndk1::shared_ptr<PopupSetting>, std::__ndk1::basic_string<char, std::__ndk1::char_traits<char>, std::__ndk1::allocator<char> > > (&)(std::__ndk1::basic_string<char, std::__ndk1::char_traits<char>, std::__ndk1::allocator<char> > const&, std::__ndk1::basic_string<char, std::__ndk1::char_traits<char>, std::__ndk1::allocator<char> > const&, matjson::Value const&)>(geode::Result<std::__ndk1::shared_ptr<PopupSetting>, std::__ndk1::basic_string<char, std::__ndk1::char_traits<char>, std::__ndk1::allocator<char> > > (&)(std::__ndk1::basic_string<char, std::__ndk1::char_traits<char>, std::__ndk1::allocator<char> > const&, std::__ndk1::basic_string<char, std::__ndk1::char_traits<char>, std::__ndk1::allocator<char> > const&, matjson::Value const&))::{lambda(std::__ndk1::basic_string<char, std::__ndk1::char_traits<char>, std::__ndk1::allocator<char> > const&, std::__ndk1::basic_string<char, std::__ndk1::char_traits<char>, std::__ndk1::allocator<char> > const&, matjson::Value const&)#1}, std::__ndk1::allocator<changeToGenerator<geode::Result<std::__ndk1::shared_ptr<PopupSetting>, std::__ndk1::basic_string<char, std::__ndk1::char_traits<char>, std::__ndk1::allocator<char> > > (&)(std::__ndk1::basic_string<char, std::__ndk1::char_traits<char>, std::__ndk1::allocator<char> > const&, std::__ndk1::basic_string<char, std::__ndk1::char_traits<char>, std::__ndk1::allocator<char> > const&, matjson::Value const&)>(geode::Result<std::__ndk1::shared_ptr<PopupSetting>, std::__ndk1::basic_string<char, std::__ndk1::char_traits<char>, std::__ndk1::allocator<char> > > (&)(std::__ndk1::basic_string<char, std::__ndk1::char_traits<char>, std::__ndk1::allocator<char> > const&, std::__ndk1::basic_string<char, std::__ndk1::char_traits<char>, std::__ndk1::allocator<char> > const&, matjson::Value const&))::{lambda(std::__ndk1::basic_string<char, std::__ndk1::char_traits<char>, std::__ndk1::allocator<char> > const&, std::__ndk1::basic_string<char, std::__ndk1::char_traits<char>, std::__ndk1::allocator<char> > const&, matjson::Value const&)#1}>, geode::Result<std::__ndk1::shared_ptr<geode::SettingV3>, std::__ndk1::basic_string<char, std::__ndk1::char_traits<char>, std::__ndk1::allocator<char> > >(std::__ndk1::basic_string<char, std::__ndk1::char_traits<char>, std::__ndk1::allocator<char> > const&, std::__ndk1::basic_string<char, std::__ndk1::char_traits<char>, std::__ndk1::allocator<char> > const&, matjson::Value const&)>::__clone() const
PUBLIC 11f14 0 std::__ndk1::__function::__func<changeToGenerator<geode::Result<std::__ndk1::shared_ptr<PopupSetting>, std::__ndk1::basic_string<char, std::__ndk1::char_traits<char>, std::__ndk1::allocator<char> > > (&)(std::__ndk1::basic_string<char, std::__ndk1::char_traits<char>, std::__ndk1::allocator<char> > const&, std::__ndk1::basic_string<char, std::__ndk1::char_traits<char>, std::__ndk1::allocator<char> > const&, matjson::Value const&)>(geode::Result<std::__ndk1::shared_ptr<PopupSetting>, std::__ndk1::basic_string<char, std::__ndk1::char_traits<char>, std::__ndk1::allocator<char> > > (&)(std::__ndk1::basic_string<char, std::__ndk1::char_traits<char>, std::__ndk1::allocator<char> > const&, std::__ndk1::basic_string<char, std::__ndk1::char_traits<char>, std::__ndk1::allocator<char> > const&, matjson::Value const&))::{lambda(std::__ndk1::basic_string<char, std::__ndk1::char_traits<char>, std::__ndk1::allocator<char> > const&, std::__ndk1::basic_string<char, std::__ndk1::char_traits<char>, std::__ndk1::allocator<char> > const&, matjson::Value const&)#1}, std::__ndk1::allocator<changeToGenerator<geode::Result<std::__ndk1::shared_ptr<PopupSetting>, std::__ndk1::basic_string<char, std::__ndk1::char_traits<char>, std::__ndk1::allocator<char> > > (&)(std::__ndk1::basic_string<char, std::__ndk1::char_traits<char>, std::__ndk1::allocator<char> > const&, std::__ndk1::basic_string<char, std::__ndk1::char_traits<char>, std::__ndk1::allocator<char> > const&, matjson::Value const&)>(geode::Result<std::__ndk1::shared_ptr<PopupSetting>, std::__ndk1::basic_string<char, std::__ndk1::char_traits<char>, std::__ndk1::allocator<char> > > (&)(std::__ndk1::basic_string<char, std::__ndk1::char_traits<char>, std::__ndk1::allocator<char> > const&, std::__ndk1::basic_string<char, std::__ndk1::char_traits<char>, std::__ndk1::allocator<char> > const&, matjson::Value const&))::{lambda(std::__ndk1::basic_string<char, std::__ndk1::char_traits<char>, std::__ndk1::allocator<char> > const&, std::__ndk1::basic_string<char, std::__ndk1::char_traits<char>, std::__ndk1::allocator<char> > const&, matjson::Value const&)#1}>, geode::Result<std::__ndk1::shared_ptr<geode::SettingV3>, std::__ndk1::basic_string<char, std::__ndk1::char_traits<char>, std::__ndk1::allocator<char> > >(std::__ndk1::basic_string<char, std::__ndk1::char_traits<char>, std::__ndk1::allocator<char> > const&, std::__ndk1::basic_string<char, std::__ndk1::char_traits<char>, std::__ndk1::allocator<char> > const&, matjson::Value const&)>::__clone(std::__ndk1::__function::__base<geode::Result<std::__ndk1::shared_ptr<geode::SettingV3>, std::__ndk1::basic_string<char, std::__ndk1::char_traits<char>, std::__ndk1::allocator<char> > >(std::__ndk1::basic_string<char, std::__ndk1::char_traits<char>, std::__ndk1::allocator<char> > const&, std::__ndk1::basic_string<char, std::__ndk1::char_traits<char>, std::__ndk1::allocator<char> > const&, matjson::Value const&)>*) const
PUBLIC 11f28 0 std::__ndk1::__function::__func<changeToGenerator<geode::Result<std::__ndk1::shared_ptr<PopupSetting>, std::__ndk1::basic_string<char, std::__ndk1::char_traits<char>, std::__ndk1::allocator<char> > > (&)(std::__ndk1::basic_string<char, std::__ndk1::char_traits<char>, std::__ndk1::allocator<char> > const&, std::__ndk1::basic_string<char, std::__ndk1::char_traits<char>, std::__ndk1::allocator<char> > const&, matjson::Value const&)>(geode::Result<std::__ndk1::shared_ptr<PopupSetting>, std::__ndk1::basic_string<char, std::__ndk1::char_traits<char>, std::__ndk1::allocator<char> > > (&)(std::__ndk1::basic_string<char, std::__ndk1::char_traits<char>, std::__ndk1::allocator<char> > const&, std::__ndk1::basic_string<char, std::__ndk1::char_traits<char>, std::__ndk1::allocator<char> > const&, matjson::Value const&))::{lambda(std::__ndk1::basic_string<char, std::__ndk1::char_traits<char>, std::__ndk1::allocator<char> > const&, std::__ndk1::basic_string<char, std::__ndk1::char_traits<char>, std::__ndk1::allocator<char> > const&, matjson::Value const&)#1}, std::__ndk1::allocator<changeToGenerator<geode::Result<std::__ndk1::shared_ptr<PopupSetting>, std::__ndk1::basic_string<char, std::__ndk1::char_traits<char>, std::__ndk1::allocator<char> > > (&)(std::__ndk1::basic_string<char, std::__ndk1::char_traits<char>, std::__ndk1::allocator<char> > const&, std::__ndk1::basic_string<char, std::__ndk1::char_traits<char>, std::__ndk1::allocator<char> > const&, matjson::Value const&)>(geode::Result<std::__ndk1::shared_ptr<PopupSetting>, std::__ndk1::basic_string<char, std::__ndk1::char_traits<char>, std::__ndk1::allocator<char> > > (&)(std::__ndk1::basic_string<char, std::__ndk1::char_traits<char>, std::__ndk1::allocator<char> > const&, std::__ndk1::basic_string<char, std::__ndk1::char_traits<char>, std::__ndk1::allocator<char> > const&, matjson::Value const&))::{lambda(std::__ndk1::basic_string<char, std::__ndk1::char_traits<char>, std::__ndk1::allocator<char> > const&, std::__ndk1::basic_string<char, std::__ndk1::char_traits<char>, std::__ndk1::allocator<char> > const&, matjson::Value const&)#1}>, geode::Result<std::__ndk1::shared_ptr<geode::SettingV3>, std::__ndk1::basic_string<char, std::__ndk1::char_traits<char>, std::__ndk1::allocator<char> > >(std::__ndk1::basic_string<char, std::__ndk1::char_traits<char>, std::__ndk1::allocator<char> > const&, std::__ndk1::basic_string<char, std::__ndk1::char_traits<char>, std::__ndk1::allocator<char> > const&, matjson::Value const&)>::destroy()
PUBLIC 11f2c 0 std::__ndk1::__function::__func<changeToGenerator<geode::Result<std::__ndk1::shared_ptr<PopupSetting>, std::__ndk1::basic_string<char, std::__ndk1::char_traits<char>, std::__ndk1::allocator<char> > > (&)(std::__ndk1::basic_string<char, std::__ndk1::char_traits<char>, std::__ndk1::allocator<char> > const&, std::__ndk1::basic_string<char, std::__ndk1::char_traits<char>, std::__ndk1::allocator<char> > const&, matjson::Value const&)>(geode::Result<std::__ndk1::shared_ptr<PopupSetting>, std::__ndk1::basic_string<char, std::__ndk1::char_traits<char>, std::__ndk1::allocator<char> > > (&)(std::__ndk1::basic_string<char, std::__ndk1::char_traits<char>, std::__ndk1::allocator<char> > const&, std::__ndk1::basic_string<char, std::__ndk1::char_traits<char>, std::__ndk1::allocator<char> > const&, matjson::Value const&))::{lambda(std::__ndk1::basic_string<char, std::__ndk1::char_traits<char>, std::__ndk1::allocator<char> > const&, std::__ndk1::basic_string<char, std::__ndk1::char_traits<char>, std::__ndk1::allocator<char> > const&, matjson::Value const&)#1}, std::__ndk1::allocator<changeToGenerator<geode::Result<std::__ndk1::shared_ptr<PopupSetting>, std::__ndk1::basic_string<char, std::__ndk1::char_traits<char>, std::__ndk1::allocator<char> > > (&)(std::__ndk1::basic_string<char, std::__ndk1::char_traits<char>, std::__ndk1::allocator<char> > const&, std::__ndk1::basic_string<char, std::__ndk1::char_traits<char>, std::__ndk1::allocator<char> > const&, matjson::Value const&)>(geode::Result<std::__ndk1::shared_ptr<PopupSetting>, std::__ndk1::basic_string<char, std::__ndk1::char_traits<char>, std::__ndk1::allocator<char> > > (&)(std::__ndk1::basic_string<char, std::__ndk1::char_traits<char>, std::__ndk1::allocator<char> > const&, std::__ndk1::basic_string<char, std::__ndk1::char_traits<char>, std::__ndk1::allocator<char> > const&, matjson::Value const&))::{lambda(std::__ndk1::basic_string<char, std::__ndk1::char_traits<char>, std::__ndk1::allocator<char> > const&, std::__ndk1::basic_string<char, std::__ndk1::char_traits<char>, std::__ndk1::allocator<char> > const&, matjson::Value const&)#1}>, geode::Result<std::__ndk1::shared_ptr<geode::SettingV3>, std::__ndk1::basic_string<char, std::__ndk1::char_traits<char>, std::__ndk1::allocator<char> > >(std::__ndk1::basic_string<char, std::__ndk1::char_traits<char>, std::__ndk1::allocator<char> > const&, std::__ndk1::basic_string<char, std::__ndk1::char_traits<char>, std::__ndk1::allocator<char> > const&, matjson::Value const&)>::destroy_deallocate()
PUBLIC 11f30 0 std::__ndk1::__function::__func<changeToGenerator<geode::Result<std::__ndk1::shared_ptr<PopupSetting>, std::__ndk1::basic_string<char, std::__ndk1::char_traits<char>, std::__ndk1::allocator<char> > > (&)(std::__ndk1::basic_string<char, std::__ndk1::char_traits<char>, std::__ndk1::allocator<char> > const&, std::__ndk1::basic_string<char, std::__ndk1::char_traits<char>, std::__ndk1::allocator<char> > const&, matjson::Value const&)>(geode::Result<std::__ndk1::shared_ptr<PopupSetting>, std::__ndk1::basic_string<char, std::__ndk1::char_traits<char>, std::__ndk1::allocator<char> > > (&)(std::__ndk1::basic_string<char, std::__ndk1::char_traits<char>, std::__ndk1::allocator<char> > const&, std::__ndk1::basic_string<char, std::__ndk1::char_traits<char>, std::__ndk1::allocator<char> > const&, matjson::Value const&))::{lambda(std::__ndk1::basic_string<char, std::__ndk1::char_traits<char>, std::__ndk1::allocator<char> > const&, std::__ndk1::basic_string<char, std::__ndk1::char_traits<char>, std::__ndk1::allocator<char> > const&, matjson::Value const&)#1}, std::__ndk1::allocator<changeToGenerator<geode::Result<std::__ndk1::shared_ptr<PopupSetting>, std::__ndk1::basic_string<char, std::__ndk1::char_traits<char>, std::__ndk1::allocator<char> > > (&)(std::__ndk1::basic_string<char, std::__ndk1::char_traits<char>, std::__ndk1::allocator<char> > const&, std::__ndk1::basic_string<char, std::__ndk1::char_traits<char>, std::__ndk1::allocator<char> > const&, matjson::Value const&)>(geode::Result<std::__ndk1::shared_ptr<PopupSetting>, std::__ndk1::basic_string<char, std::__ndk1::char_traits<char>, std::__ndk1::allocator<char> > > (&)(std::__ndk1::basic_string<char, std::__ndk1::char_traits<char>, std::__ndk1::allocator<char> > const&, std::__ndk1::basic_string<char, std::__ndk1::char_traits<char>, std::__ndk1::allocator<char> > const&, matjson::Value const&))::{lambda(std::__ndk1::basic_string<char, std::__ndk1::char_traits<char>, std::__ndk1::allocator<char> > const&, std::__ndk1::basic_string<char, std::__ndk1::char_traits<char>, std::__ndk1::allocator<char> > const&, matjson::Value const&)#1}>, geode::Result<std::__ndk1::shared_ptr<geode::SettingV3>, std::__ndk1::basic_string<char, std::__ndk1::char_traits<char>, std::__ndk1::allocator<char> > >(std::__ndk1::basic_string<char, std::__ndk1::char_traits<char>, std::__ndk1::allocator<char> > const&, std::__ndk1::basic_string<char, std::__ndk1::char_traits<char>, std::__ndk1::allocator<char> > const&, matjson::Value const&)>::operator()(std::__ndk1::basic_string<char, std::__ndk1::char_traits<char>, std::__ndk1::allocator<char> > const&, std::__ndk1::basic_string<char, std::__ndk1::char_traits<char>, std::__ndk1::allocator<char> > const&, matjson::Value const&)
PUBLIC 12064 0 std::__ndk1::__function::__func<changeToGenerator<geode::Result<std::__ndk1::shared_ptr<PopupSetting>, std::__ndk1::basic_string<char, std::__ndk1::char_traits<char>, std::__ndk1::allocator<char> > > (&)(std::__ndk1::basic_string<char, std::__ndk1::char_traits<char>, std::__ndk1::allocator<char> > const&, std::__ndk1::basic_string<char, std::__ndk1::char_traits<char>, std::__ndk1::allocator<char> > const&, matjson::Value const&)>(geode::Result<std::__ndk1::shared_ptr<PopupSetting>, std::__ndk1::basic_string<char, std::__ndk1::char_traits<char>, std::__ndk1::allocator<char> > > (&)(std::__ndk1::basic_string<char, std::__ndk1::char_traits<char>, std::__ndk1::allocator<char> > const&, std::__ndk1::basic_string<char, std::__ndk1::char_traits<char>, std::__ndk1::allocator<char> > const&, matjson::Value const&))::{lambda(std::__ndk1::basic_string<char, std::__ndk1::char_traits<char>, std::__ndk1::allocator<char> > const&, std::__ndk1::basic_string<char, std::__ndk1::char_traits<char>, std::__ndk1::allocator<char> > const&, matjson::Value const&)#1}, std::__ndk1::allocator<changeToGenerator<geode::Result<std::__ndk1::shared_ptr<PopupSetting>, std::__ndk1::basic_string<char, std::__ndk1::char_traits<char>, std::__ndk1::allocator<char> > > (&)(std::__ndk1::basic_string<char, std::__ndk1::char_traits<char>, std::__ndk1::allocator<char> > const&, std::__ndk1::basic_string<char, std::__ndk1::char_traits<char>, std::__ndk1::allocator<char> > const&, matjson::Value const&)>(geode::Result<std::__ndk1::shared_ptr<PopupSetting>, std::__ndk1::basic_string<char, std::__ndk1::char_traits<char>, std::__ndk1::allocator<char> > > (&)(std::__ndk1::basic_string<char, std::__ndk1::char_traits<char>, std::__ndk1::allocator<char> > const&, std::__ndk1::basic_string<char, std::__ndk1::char_traits<char>, std::__ndk1::allocator<char> > const&, matjson::Value const&))::{lambda(std::__ndk1::basic_string<char, std::__ndk1::char_traits<char>, std::__ndk1::allocator<char> > const&, std::__ndk1::basic_string<char, std::__ndk1::char_traits<char>, std::__ndk1::allocator<char> > const&, matjson::Value const&)#1}>, geode::Result<std::__ndk1::shared_ptr<geode::SettingV3>, std::__ndk1::basic_string<char, std::__ndk1::char_traits<char>, std::__ndk1::allocator<char> > >(std::__ndk1::basic_string<char, std::__ndk1::char_traits<char>, std::__ndk1::allocator<char> > const&, std::__ndk1::basic_string<char, std::__ndk1::char_traits<char>, std::__ndk1::allocator<char> > const&, matjson::Value const&)>::target(std::type_info const&) const
PUBLIC 12080 0 std::__ndk1::__function::__func<changeToGenerator<geode::Result<std::__ndk1::shared_ptr<PopupSetting>, std::__ndk1::basic_string<char, std::__ndk1::char_traits<char>, std::__ndk1::allocator<char> > > (&)(std::__ndk1::basic_string<char, std::__ndk1::char_traits<char>, std::__ndk1::allocator<char> > const&, std::__ndk1::basic_string<char, std::__ndk1::char_traits<char>, std::__ndk1::allocator<char> > const&, matjson::Value const&)>(geode::Result<std::__ndk1::shared_ptr<PopupSetting>, std::__ndk1::basic_string<char, std::__ndk1::char_traits<char>, std::__ndk1::allocator<char> > > (&)(std::__ndk1::basic_string<char, std::__ndk1::char_traits<char>, std::__ndk1::allocator<char> > const&, std::__ndk1::basic_string<char, std::__ndk1::char_traits<char>, std::__ndk1::allocator<char> > const&, matjson::Value const&))::{lambda(std::__ndk1::basic_string<char, std::__ndk1::char_traits<char>, std::__ndk1::allocator<char> > const&, std::__ndk1::basic_string<char, std::__ndk1::char_traits<char>, std::__ndk1::allocator<char> > const&, matjson::Value const&)#1}, std::__ndk1::allocator<changeToGenerator<geode::Result<std::__ndk1::shared_ptr<PopupSetting>, std::__ndk1::basic_string<char, std::__ndk1::char_traits<char>, std::__ndk1::allocator<char> > > (&)(std::__ndk1::basic_string<char, std::__ndk1::char_traits<char>, std::__ndk1::allocator<char> > const&, std::__ndk1::basic_string<char, std::__ndk1::char_traits<char>, std::__ndk1::allocator<char> > const&, matjson::Value const&)>(geode::Result<std::__ndk1::shared_ptr<PopupSetting>, std::__ndk1::basic_string<char, std::__ndk1::char_traits<char>, std::__ndk1::allocator<char> > > (&)(std::__ndk1::basic_string<char, std::__ndk1::char_traits<char>, std::__ndk1::allocator<char> > const&, std::__ndk1::basic_string<char, std::__ndk1::char_traits<char>, std::__ndk1::allocator<char> > const&, matjson::Value const&))::{lambda(std::__ndk1::basic_string<char, std::__ndk1::char_traits<char>, std::__ndk1::allocator<char> > const&, std::__ndk1::basic_string<char, std::__ndk1::char_traits<char>, std::__ndk1::allocator<char> > const&, matjson::Value const&)#1}>, geode::Result<std::__ndk1::shared_ptr<geode::SettingV3>, std::__ndk1::basic_string<char, std::__ndk1::char_traits<char>, std::__ndk1::allocator<char> > >(std::__ndk1::basic_string<char, std::__ndk1::char_traits<char>, std::__ndk1::allocator<char> > const&, std::__ndk1::basic_string<char, std::__ndk1::char_traits<char>, std::__ndk1::allocator<char> > const&, matjson::Value const&)>::target_type() const
PUBLIC 1208c 0 std::__ndk1::__variant_detail::__visitation::__base::__dispatcher<(unsigned long)0>::__dispatch[abi:ne180000]<std::__ndk1::__variant_detail::__dtor<std::__ndk1::__variant_detail::__traits<std::__ndk1::shared_ptr<PopupSetting>, std::__ndk1::basic_string<char, std::__ndk1::char_traits<char>, std::__ndk1::allocator<char> > >, (std::__ndk1::__variant_detail::_Trait)1>::__destroy[abi:ne180000]()::{lambda(auto:1&)#1}, std::__ndk1::__variant_detail::__base<(std::__ndk1::__variant_detail::__traits<std::__ndk1::shared_ptr<PopupSetting>, std::__ndk1::basic_string<char, std::__ndk1::char_traits<char>, std::__ndk1::allocator<char> > >)1, PopupSetting, std::__ndk1::allocator<char> >&>(std::__ndk1::__variant_detail::__dtor<std::__ndk1::__variant_detail::__traits<std::__ndk1::shared_ptr<PopupSetting>, std::__ndk1::basic_string<char, std::__ndk1::char_traits<char>, std::__ndk1::allocator<char> > >, (std::__ndk1::__variant_detail::_Trait)1>, std::__ndk1::__variant_detail::__base<(std::__ndk1::__variant_detail::__traits<std::__ndk1::shared_ptr<PopupSetting>, std::__ndk1::basic_string<char, std::__ndk1::char_traits<char>, std::__ndk1::allocator<char> > >)1, PopupSetting, std::__ndk1::allocator<char> >&)
PUBLIC 120dc 0 std::__ndk1::__variant_detail::__visitation::__base::__dispatcher<(unsigned long)1>::__dispatch[abi:ne180000]<std::__ndk1::__variant_detail::__dtor<std::__ndk1::__variant_detail::__traits<std::__ndk1::shared_ptr<PopupSetting>, std::__ndk1::basic_string<char, std::__ndk1::char_traits<char>, std::__ndk1::allocator<char> > >, (std::__ndk1::__variant_detail::_Trait)1>::__destroy[abi:ne180000]()::{lambda(auto:1&)#1}, std::__ndk1::__variant_detail::__base<(std::__ndk1::__variant_detail::__traits<std::__ndk1::shared_ptr<PopupSetting>, std::__ndk1::basic_string<char, std::__ndk1::char_traits<char>, std::__ndk1::allocator<char> > >)1, PopupSetting, std::__ndk1::allocator<char> >&>(std::__ndk1::__variant_detail::__dtor<std::__ndk1::__variant_detail::__traits<std::__ndk1::shared_ptr<PopupSetting>, std::__ndk1::basic_string<char, std::__ndk1::char_traits<char>, std::__ndk1::allocator<char> > >, (std::__ndk1::__variant_detail::_Trait)1>, std::__ndk1::__variant_detail::__base<(std::__ndk1::__variant_detail::__traits<std::__ndk1::shared_ptr<PopupSetting>, std::__ndk1::basic_string<char, std::__ndk1::char_traits<char>, std::__ndk1::allocator<char> > >)1, PopupSetting, std::__ndk1::allocator<char> >&)
PUBLIC 120f0 0 std::__ndk1::__variant_detail::__visitation::__base::__dispatcher<(unsigned long)0>::__dispatch[abi:ne180000]<std::__ndk1::__variant_detail::__dtor<std::__ndk1::__variant_detail::__traits<std::__ndk1::monostate, std::__ndk1::basic_string<char, std::__ndk1::char_traits<char>, std::__ndk1::allocator<char> > >, (std::__ndk1::__variant_detail::_Trait)1>::__destroy[abi:ne180000]()::{lambda(auto:1&)#1}, std::__ndk1::__variant_detail::__base<(std::__ndk1::__variant_detail::__traits<std::__ndk1::monostate, std::__ndk1::basic_string<char, std::__ndk1::char_traits<char>, std::__ndk1::allocator<char> > >)1, std::__ndk1::__variant_detail::__traits, std::__ndk1::allocator<char> >&>(std::__ndk1::__variant_detail::__dtor<std::__ndk1::__variant_detail::__traits<std::__ndk1::monostate, std::__ndk1::basic_string<char, std::__ndk1::char_traits<char>, std::__ndk1::allocator<char> > >, (std::__ndk1::__variant_detail::_Trait)1>, std::__ndk1::__variant_detail::__base<(std::__ndk1::__variant_detail::__traits<std::__ndk1::monostate, std::__ndk1::basic_string<char, std::__ndk1::char_traits<char>, std::__ndk1::allocator<char> > >)1, std::__ndk1::__variant_detail::__traits, std::__ndk1::allocator<char> >&)
PUBLIC 120f4 0 std::__ndk1::__variant_detail::__visitation::__base::__dispatcher<(unsigned long)1>::__dispatch[abi:ne180000]<std::__ndk1::__variant_detail::__dtor<std::__ndk1::__variant_detail::__traits<std::__ndk1::monostate, std::__ndk1::basic_string<char, std::__ndk1::char_traits<char>, std::__ndk1::allocator<char> > >, (std::__ndk1::__variant_detail::_Trait)1>::__destroy[abi:ne180000]()::{lambda(auto:1&)#1}, std::__ndk1::__variant_detail::__base<(std::__ndk1::__variant_detail::__traits<std::__ndk1::monostate, std::__ndk1::basic_string<char, std::__ndk1::char_traits<char>, std::__ndk1::allocator<char> > >)1, std::__ndk1::__variant_detail::__traits, std::__ndk1::allocator<char> >&>(std::__ndk1::__variant_detail::__dtor<std::__ndk1::__variant_detail::__traits<std::__ndk1::monostate, std::__ndk1::basic_string<char, std::__ndk1::char_traits<char>, std::__ndk1::allocator<char> > >, (std::__ndk1::__variant_detail::_Trait)1>, std::__ndk1::__variant_detail::__base<(std::__ndk1::__variant_detail::__traits<std::__ndk1::monostate, std::__ndk1::basic_string<char, std::__ndk1::char_traits<char>, std::__ndk1::allocator<char> > >)1, std::__ndk1::__variant_detail::__traits, std::__ndk1::allocator<char> >&)
PUBLIC 12108 0 _GLOBAL__sub_I_DebugPopup.cpp
PUBLIC m 12240 0 ServerAPI::registerURL(std::__ndk1::basic_string<char, std::__ndk1::char_traits<char>, std::__ndk1::allocator<char> >, int)
PUBLIC m 124f0 0 ServerAPI::updateURLAndPrio(int, std::__ndk1::basic_string<char, std::__ndk1::char_traits<char>, std::__ndk1::allocator<char> >, int)
PUBLIC m 12798 0 ServerAPI::updateURL(int, std::__ndk1::basic_string<char, std::__ndk1::char_traits<char>, std::__ndk1::allocator<char> >)
PUBLIC m 12ae8 0 ServerAPI::updatePrio(int, int)
PUBLIC m 12d98 0 ServerAPI::getURLById(int)
PUBLIC m 12e24 0 ServerAPI::getPrioById(int)
PUBLIC m 12e8c 0 ServerAPI::getCurrentURL()
PUBLIC m 1303c 0 ServerAPI::getCurrentPrio()
PUBLIC m 131c0 0 ServerAPI::getCurrentId()
PUBLIC m 1334c 0 ServerAPI::removeURL(int)
PUBLIC m 13354 0 ServerAPI::getAllServers()
PUBLIC m 13404 0 ServerAPI::getBaseUrl()
PUBLIC m 13430 0 ServerAPI::getSecondaryUrl()
PUBLIC m 1345c 0 ServerAPI::get()
PUBLIC 136f8 0 geodeExecFunction158<(anonymous namespace)::ExecFuncUnique158>(geode::ModStateEvent*)
PUBLIC 139ec 0 std::__ndk1::basic_string<char, std::__ndk1::char_traits<char>, std::__ndk1::allocator<char> >::__assign_no_alias<true>(char const*, unsigned long)
PUBLIC 13a98 0 std::__ndk1::basic_string<char, std::__ndk1::char_traits<char>, std::__ndk1::allocator<char> >::__assign_no_alias<false>(char const*, unsigned long)
PUBLIC 13ba8 0 geode::lite::IsLiteEvent::~IsLiteEvent()
PUBLIC 13bcc 0 std::__ndk1::basic_string<char, std::__ndk1::char_traits<char>, std::__ndk1::allocator<char> >::__assign_external(char const*, unsigned long)
PUBLIC 13cf4 0 std::__ndk1::basic_string<char, std::__ndk1::char_traits<char>, std::__ndk1::allocator<char> >::__assign_external(char const*)
PUBLIC 13d28 0 std::__ndk1::__tree<std::__ndk1::__value_type<int, std::__ndk1::pair<std::__ndk1::basic_string<char, std::__ndk1::char_traits<char>, std::__ndk1::allocator<char> >, int> >, std::__ndk1::__map_value_compare<int, std::__ndk1::__value_type<int, std::__ndk1::pair<std::__ndk1::basic_string<char, std::__ndk1::char_traits<char>, std::__ndk1::allocator<char> >, int> >, std::__ndk1::less<int>, true>, std::__ndk1::allocator<std::__ndk1::__value_type<int, std::__ndk1::pair<std::__ndk1::basic_string<char, std::__ndk1::char_traits<char>, std::__ndk1::allocator<char> >, int> > > >::__emplace_hint_unique_key_args<int, std::__ndk1::pair<int const, std::__ndk1::pair<std::__ndk1::basic_string<char, std::__ndk1::char_traits<char>, std::__ndk1::allocator<char> >, int> > const&>(std::__ndk1::__tree_const_iterator<std::__ndk1::__value_type<int, std::__ndk1::pair<std::__ndk1::basic_string<char, std::__ndk1::char_traits<char>, std::__ndk1::allocator<char> >, int> >, std::__ndk1::__tree_node<std::__ndk1::__value_type<int, std::__ndk1::pair<std::__ndk1::basic_string<char, std::__ndk1::char_traits<char>, std::__ndk1::allocator<char> >, int> >, void*>*, long>, int const&, std::__ndk1::pair<int const, std::__ndk1::pair<std::__ndk1::basic_string<char, std::__ndk1::char_traits<char>, std::__ndk1::allocator<char> >, int> > const&)
PUBLIC 13e70 0 std::__ndk1::__tree<std::__ndk1::__value_type<int, std::__ndk1::pair<std::__ndk1::basic_string<char, std::__ndk1::char_traits<char>, std::__ndk1::allocator<char> >, int> >, std::__ndk1::__map_value_compare<int, std::__ndk1::__value_type<int, std::__ndk1::pair<std::__ndk1::basic_string<char, std::__ndk1::char_traits<char>, std::__ndk1::allocator<char> >, int> >, std::__ndk1::less<int>, true>, std::__ndk1::allocator<std::__ndk1::__value_type<int, std::__ndk1::pair<std::__ndk1::basic_string<char, std::__ndk1::char_traits<char>, std::__ndk1::allocator<char> >, int> > > >::__find_equal<int>(std::__ndk1::__tree_const_iterator<std::__ndk1::__value_type<int, std::__ndk1::pair<std::__ndk1::basic_string<char, std::__ndk1::char_traits<char>, std::__ndk1::allocator<char> >, int> >, std::__ndk1::__tree_node<std::__ndk1::__value_type<int, std::__ndk1::pair<std::__ndk1::basic_string<char, std::__ndk1::char_traits<char>, std::__ndk1::allocator<char> >, int> >, void*>*, long>, std::__ndk1::__tree_end_node<std::__ndk1::__tree_node_base<void*>*>*&, std::__ndk1::__tree_node_base<void*>*&, int const&)
PUBLIC 14020 0 std::__ndk1::unique_ptr<std::__ndk1::__tree_node<std::__ndk1::__value_type<int, std::__ndk1::pair<std::__ndk1::basic_string<char, std::__ndk1::char_traits<char>, std::__ndk1::allocator<char> >, int> >, void*>, std::__ndk1::__tree_node_destructor<std::__ndk1::allocator<std::__ndk1::__tree_node<std::__ndk1::__value_type<int, std::__ndk1::pair<std::__ndk1::basic_string<char, std::__ndk1::char_traits<char>, std::__ndk1::allocator<char> >, int> >, void*> > > >::~unique_ptr[abi:ne180000]()
PUBLIC 14070 0 std::__ndk1::__tree_balance_after_insert[abi:ne180000]<std::__ndk1::__tree_node_base<void*>*>(std::__ndk1::__tree_node_base<void*>*, std::__ndk1::__tree_node_base<void*>*)
PUBLIC 14220 0 std::__ndk1::__tree<std::__ndk1::__value_type<int, std::__ndk1::pair<std::__ndk1::basic_string<char, std::__ndk1::char_traits<char>, std::__ndk1::allocator<char> >, int> >, std::__ndk1::__map_value_compare<int, std::__ndk1::__value_type<int, std::__ndk1::pair<std::__ndk1::basic_string<char, std::__ndk1::char_traits<char>, std::__ndk1::allocator<char> >, int> >, std::__ndk1::less<int>, true>, std::__ndk1::allocator<std::__ndk1::__value_type<int, std::__ndk1::pair<std::__ndk1::basic_string<char, std::__ndk1::char_traits<char>, std::__ndk1::allocator<char> >, int> > > >::__erase_unique<int>(int const&)
PUBLIC 142f4 0 std::__ndk1::__tree_remove[abi:ne180000]<std::__ndk1::__tree_node_base<void*>*>(std::__ndk1::__tree_node_base<void*>*, std::__ndk1::__tree_node_base<void*>*)
PUBLIC 146bc 0 geodeExecFunction158<(anonymous namespace)::ExecFuncUnique158>(geode::ModStateEvent*)::{lambda(GetCurrentServerEvent*)#1}::__invoke(GetCurrentServerEvent*)
PUBLIC 14754 0 geode::EventListener<geode::EventFilter<GetCurrentServerEvent> >::getPool() const
PUBLIC 14758 0 geode::EventListener<geode::EventFilter<GetCurrentServerEvent> >::handle(geode::Event*)
PUBLIC 148f8 0 geode::EventListener<geode::EventFilter<GetCurrentServerEvent> >::~EventListener()
PUBLIC 14954 0 geode::EventListener<geode::EventFilter<GetCurrentServerEvent> >::~EventListener()
PUBLIC 149b8 0 std::__ndk1::__function::__base<geode::ListenerResult(GetCurrentServerEvent*)>::~__base()
PUBLIC 149bc 0 std::__ndk1::__function::__func<geode::ListenerResult (*)(GetCurrentServerEvent*), std::__ndk1::allocator<geode::ListenerResult (*)(GetCurrentServerEvent*)>, geode::ListenerResult(GetCurrentServerEvent*)>::~__func()
PUBLIC 149c0 0 std::__ndk1::__function::__func<geode::ListenerResult (*)(GetCurrentServerEvent*), std::__ndk1::allocator<geode::ListenerResult (*)(GetCurrentServerEvent*)>, geode::ListenerResult(GetCurrentServerEvent*)>::__clone() const
PUBLIC 149f4 0 std::__ndk1::__function::__func<geode::ListenerResult (*)(GetCurrentServerEvent*), std::__ndk1::allocator<geode::ListenerResult (*)(GetCurrentServerEvent*)>, geode::ListenerResult(GetCurrentServerEvent*)>::__clone(std::__ndk1::__function::__base<geode::ListenerResult(GetCurrentServerEvent*)>*) const
PUBLIC 14a08 0 std::__ndk1::__function::__func<geode::ListenerResult (*)(GetCurrentServerEvent*), std::__ndk1::allocator<geode::ListenerResult (*)(GetCurrentServerEvent*)>, geode::ListenerResult(GetCurrentServerEvent*)>::destroy()
PUBLIC 14a0c 0 std::__ndk1::__function::__func<geode::ListenerResult (*)(GetCurrentServerEvent*), std::__ndk1::allocator<geode::ListenerResult (*)(GetCurrentServerEvent*)>, geode::ListenerResult(GetCurrentServerEvent*)>::destroy_deallocate()
PUBLIC 14a10 0 std::__ndk1::__function::__func<geode::ListenerResult (*)(GetCurrentServerEvent*), std::__ndk1::allocator<geode::ListenerResult (*)(GetCurrentServerEvent*)>, geode::ListenerResult(GetCurrentServerEvent*)>::operator()(GetCurrentServerEvent*&&)
PUBLIC 14a20 0 std::__ndk1::__function::__func<geode::ListenerResult (*)(GetCurrentServerEvent*), std::__ndk1::allocator<geode::ListenerResult (*)(GetCurrentServerEvent*)>, geode::ListenerResult(GetCurrentServerEvent*)>::target(std::type_info const&) const
PUBLIC 14a3c 0 std::__ndk1::__function::__func<geode::ListenerResult (*)(GetCurrentServerEvent*), std::__ndk1::allocator<geode::ListenerResult (*)(GetCurrentServerEvent*)>, geode::ListenerResult(GetCurrentServerEvent*)>::target_type() const
PUBLIC 14a48 0 geode::cast::traverseTypeinfoFor(void*, geode::cast::ClassTypeinfoType const*, char const*)
PUBLIC 14b4c 0 std::__ndk1::__throw_bad_function_call[abi:ne180000]()
PUBLIC 14b80 0 std::__ndk1::bad_function_call::~bad_function_call()
PUBLIC 14ba4 0 geodeExecFunction158<(anonymous namespace)::ExecFuncUnique158>(geode::ModStateEvent*)::{lambda(GetServerByIdEvent*)#1}::__invoke(GetServerByIdEvent*)
PUBLIC 14d34 0 geode::EventListener<geode::EventFilter<GetServerByIdEvent> >::getPool() const
PUBLIC 14d38 0 geode::EventListener<geode::EventFilter<GetServerByIdEvent> >::handle(geode::Event*)
PUBLIC 14ed8 0 geode::EventListener<geode::EventFilter<GetServerByIdEvent> >::~EventListener()
PUBLIC 14f34 0 geode::EventListener<geode::EventFilter<GetServerByIdEvent> >::~EventListener()
PUBLIC 14f98 0 std::__ndk1::__function::__base<geode::ListenerResult(GetServerByIdEvent*)>::~__base()
PUBLIC 14f9c 0 std::__ndk1::__function::__func<geode::ListenerResult (*)(GetServerByIdEvent*), std::__ndk1::allocator<geode::ListenerResult (*)(GetServerByIdEvent*)>, geode::ListenerResult(GetServerByIdEvent*)>::~__func()
PUBLIC 14fa0 0 std::__ndk1::__function::__func<geode::ListenerResult (*)(GetServerByIdEvent*), std::__ndk1::allocator<geode::ListenerResult (*)(GetServerByIdEvent*)>, geode::ListenerResult(GetServerByIdEvent*)>::__clone() const
PUBLIC 14fd4 0 std::__ndk1::__function::__func<geode::ListenerResult (*)(GetServerByIdEvent*), std::__ndk1::allocator<geode::ListenerResult (*)(GetServerByIdEvent*)>, geode::ListenerResult(GetServerByIdEvent*)>::__clone(std::__ndk1::__function::__base<geode::ListenerResult(GetServerByIdEvent*)>*) const
PUBLIC 14fe8 0 std::__ndk1::__function::__func<geode::ListenerResult (*)(GetServerByIdEvent*), std::__ndk1::allocator<geode::ListenerResult (*)(GetServerByIdEvent*)>, geode::ListenerResult(GetServerByIdEvent*)>::destroy()
PUBLIC 14fec 0 std::__ndk1::__function::__func<geode::ListenerResult (*)(GetServerByIdEvent*), std::__ndk1::allocator<geode::ListenerResult (*)(GetServerByIdEvent*)>, geode::ListenerResult(GetServerByIdEvent*)>::destroy_deallocate()
PUBLIC 14ff0 0 std::__ndk1::__function::__func<geode::ListenerResult (*)(GetServerByIdEvent*), std::__ndk1::allocator<geode::ListenerResult (*)(GetServerByIdEvent*)>, geode::ListenerResult(GetServerByIdEvent*)>::operator()(GetServerByIdEvent*&&)
PUBLIC 15000 0 std::__ndk1::__function::__func<geode::ListenerResult (*)(GetServerByIdEvent*), std::__ndk1::allocator<geode::ListenerResult (*)(GetServerByIdEvent*)>, geode::ListenerResult(GetServerByIdEvent*)>::target(std::type_info const&) const
PUBLIC 1501c 0 std::__ndk1::__function::__func<geode::ListenerResult (*)(GetServerByIdEvent*), std::__ndk1::allocator<geode::ListenerResult (*)(GetServerByIdEvent*)>, geode::ListenerResult(GetServerByIdEvent*)>::target_type() const
PUBLIC 15028 0 geodeExecFunction158<(anonymous namespace)::ExecFuncUnique158>(geode::ModStateEvent*)::{lambda(RegisterServerEvent*)#1}::__invoke(RegisterServerEvent*)
PUBLIC 150fc 0 geode::EventListener<geode::EventFilter<RegisterServerEvent> >::getPool() const
PUBLIC 15100 0 geode::EventListener<geode::EventFilter<RegisterServerEvent> >::handle(geode::Event*)
PUBLIC 152a0 0 geode::EventListener<geode::EventFilter<RegisterServerEvent> >::~EventListener()
PUBLIC 152fc 0 geode::EventListener<geode::EventFilter<RegisterServerEvent> >::~EventListener()
PUBLIC 15360 0 std::__ndk1::__function::__base<geode::ListenerResult(RegisterServerEvent*)>::~__base()
PUBLIC 15364 0 std::__ndk1::__function::__func<geode::ListenerResult (*)(RegisterServerEvent*), std::__ndk1::allocator<geode::ListenerResult (*)(RegisterServerEvent*)>, geode::ListenerResult(RegisterServerEvent*)>::~__func()
PUBLIC 15368 0 std::__ndk1::__function::__func<geode::ListenerResult (*)(RegisterServerEvent*), std::__ndk1::allocator<geode::ListenerResult (*)(RegisterServerEvent*)>, geode::ListenerResult(RegisterServerEvent*)>::__clone() const
PUBLIC 1539c 0 std::__ndk1::__function::__func<geode::ListenerResult (*)(RegisterServerEvent*), std::__ndk1::allocator<geode::ListenerResult (*)(RegisterServerEvent*)>, geode::ListenerResult(RegisterServerEvent*)>::__clone(std::__ndk1::__function::__base<geode::ListenerResult(RegisterServerEvent*)>*) const
PUBLIC 153b0 0 std::__ndk1::__function::__func<geode::ListenerResult (*)(RegisterServerEvent*), std::__ndk1::allocator<geode::ListenerResult (*)(RegisterServerEvent*)>, geode::ListenerResult(RegisterServerEvent*)>::destroy()
PUBLIC 153b4 0 std::__ndk1::__function::__func<geode::ListenerResult (*)(RegisterServerEvent*), std::__ndk1::allocator<geode::ListenerResult (*)(RegisterServerEvent*)>, geode::ListenerResult(RegisterServerEvent*)>::destroy_deallocate()
PUBLIC 153b8 0 std::__ndk1::__function::__func<geode::ListenerResult (*)(RegisterServerEvent*), std::__ndk1::allocator<geode::ListenerResult (*)(RegisterServerEvent*)>, geode::ListenerResult(RegisterServerEvent*)>::operator()(RegisterServerEvent*&&)
PUBLIC 153c8 0 std::__ndk1::__function::__func<geode::ListenerResult (*)(RegisterServerEvent*), std::__ndk1::allocator<geode::ListenerResult (*)(RegisterServerEvent*)>, geode::ListenerResult(RegisterServerEvent*)>::target(std::type_info const&) const
PUBLIC 153e4 0 std::__ndk1::__function::__func<geode::ListenerResult (*)(RegisterServerEvent*), std::__ndk1::allocator<geode::ListenerResult (*)(RegisterServerEvent*)>, geode::ListenerResult(RegisterServerEvent*)>::target_type() const
PUBLIC 153f0 0 geodeExecFunction158<(anonymous namespace)::ExecFuncUnique158>(geode::ModStateEvent*)::{lambda(UpdateServerEvent*)#1}::__invoke(UpdateServerEvent*)
PUBLIC 15564 0 geode::EventListener<geode::EventFilter<UpdateServerEvent> >::getPool() const
PUBLIC 15568 0 geode::EventListener<geode::EventFilter<UpdateServerEvent> >::handle(geode::Event*)
PUBLIC 15708 0 geode::EventListener<geode::EventFilter<UpdateServerEvent> >::~EventListener()
PUBLIC 15764 0 geode::EventListener<geode::EventFilter<UpdateServerEvent> >::~EventListener()
PUBLIC 157c8 0 std::__ndk1::__function::__base<geode::ListenerResult(UpdateServerEvent*)>::~__base()
PUBLIC 157cc 0 std::__ndk1::__function::__func<geode::ListenerResult (*)(UpdateServerEvent*), std::__ndk1::allocator<geode::ListenerResult (*)(UpdateServerEvent*)>, geode::ListenerResult(UpdateServerEvent*)>::~__func()
PUBLIC 157d0 0 std::__ndk1::__function::__func<geode::ListenerResult (*)(UpdateServerEvent*), std::__ndk1::allocator<geode::ListenerResult (*)(UpdateServerEvent*)>, geode::ListenerResult(UpdateServerEvent*)>::__clone() const
PUBLIC 15804 0 std::__ndk1::__function::__func<geode::ListenerResult (*)(UpdateServerEvent*), std::__ndk1::allocator<geode::ListenerResult (*)(UpdateServerEvent*)>, geode::ListenerResult(UpdateServerEvent*)>::__clone(std::__ndk1::__function::__base<geode::ListenerResult(UpdateServerEvent*)>*) const
PUBLIC 15818 0 std::__ndk1::__function::__func<geode::ListenerResult (*)(UpdateServerEvent*), std::__ndk1::allocator<geode::ListenerResult (*)(UpdateServerEvent*)>, geode::ListenerResult(UpdateServerEvent*)>::destroy()
PUBLIC 1581c 0 std::__ndk1::__function::__func<geode::ListenerResult (*)(UpdateServerEvent*), std::__ndk1::allocator<geode::ListenerResult (*)(UpdateServerEvent*)>, geode::ListenerResult(UpdateServerEvent*)>::destroy_deallocate()
PUBLIC 15820 0 std::__ndk1::__function::__func<geode::ListenerResult (*)(UpdateServerEvent*), std::__ndk1::allocator<geode::ListenerResult (*)(UpdateServerEvent*)>, geode::ListenerResult(UpdateServerEvent*)>::operator()(UpdateServerEvent*&&)
PUBLIC 15830 0 std::__ndk1::__function::__func<geode::ListenerResult (*)(UpdateServerEvent*), std::__ndk1::allocator<geode::ListenerResult (*)(UpdateServerEvent*)>, geode::ListenerResult(UpdateServerEvent*)>::target(std::type_info const&) const
PUBLIC 1584c 0 std::__ndk1::__function::__func<geode::ListenerResult (*)(UpdateServerEvent*), std::__ndk1::allocator<geode::ListenerResult (*)(UpdateServerEvent*)>, geode::ListenerResult(UpdateServerEvent*)>::target_type() const
PUBLIC 15858 0 geodeExecFunction158<(anonymous namespace)::ExecFuncUnique158>(geode::ModStateEvent*)::{lambda(RemoveServerEvent*)#1}::__invoke(RemoveServerEvent*)
PUBLIC 15888 0 geode::EventListener<geode::EventFilter<RemoveServerEvent> >::getPool() const
PUBLIC 1588c 0 geode::EventListener<geode::EventFilter<RemoveServerEvent> >::handle(geode::Event*)
PUBLIC 15a2c 0 geode::EventListener<geode::EventFilter<RemoveServerEvent> >::~EventListener()
PUBLIC 15a88 0 geode::EventListener<geode::EventFilter<RemoveServerEvent> >::~EventListener()
PUBLIC 15aec 0 std::__ndk1::__function::__base<geode::ListenerResult(RemoveServerEvent*)>::~__base()
PUBLIC 15af0 0 std::__ndk1::__function::__func<geode::ListenerResult (*)(RemoveServerEvent*), std::__ndk1::allocator<geode::ListenerResult (*)(RemoveServerEvent*)>, geode::ListenerResult(RemoveServerEvent*)>::~__func()
PUBLIC 15af4 0 std::__ndk1::__function::__func<geode::ListenerResult (*)(RemoveServerEvent*), std::__ndk1::allocator<geode::ListenerResult (*)(RemoveServerEvent*)>, geode::ListenerResult(RemoveServerEvent*)>::__clone() const
PUBLIC 15b28 0 std::__ndk1::__function::__func<geode::ListenerResult (*)(RemoveServerEvent*), std::__ndk1::allocator<geode::ListenerResult (*)(RemoveServerEvent*)>, geode::ListenerResult(RemoveServerEvent*)>::__clone(std::__ndk1::__function::__base<geode::ListenerResult(RemoveServerEvent*)>*) const
PUBLIC 15b3c 0 std::__ndk1::__function::__func<geode::ListenerResult (*)(RemoveServerEvent*), std::__ndk1::allocator<geode::ListenerResult (*)(RemoveServerEvent*)>, geode::ListenerResult(RemoveServerEvent*)>::destroy()
PUBLIC 15b40 0 std::__ndk1::__function::__func<geode::ListenerResult (*)(RemoveServerEvent*), std::__ndk1::allocator<geode::ListenerResult (*)(RemoveServerEvent*)>, geode::ListenerResult(RemoveServerEvent*)>::destroy_deallocate()
PUBLIC 15b44 0 std::__ndk1::__function::__func<geode::ListenerResult (*)(RemoveServerEvent*), std::__ndk1::allocator<geode::ListenerResult (*)(RemoveServerEvent*)>, geode::ListenerResult(RemoveServerEvent*)>::operator()(RemoveServerEvent*&&)
PUBLIC 15b54 0 std::__ndk1::__function::__func<geode::ListenerResult (*)(RemoveServerEvent*), std::__ndk1::allocator<geode::ListenerResult (*)(RemoveServerEvent*)>, geode::ListenerResult(RemoveServerEvent*)>::target(std::type_info const&) const
PUBLIC 15b70 0 std::__ndk1::__function::__func<geode::ListenerResult (*)(RemoveServerEvent*), std::__ndk1::allocator<geode::ListenerResult (*)(RemoveServerEvent*)>, geode::ListenerResult(RemoveServerEvent*)>::target_type() const
PUBLIC 15b7c 0 geodeExecFunction158<(anonymous namespace)::ExecFuncUnique158>(geode::ModStateEvent*)::{lambda(GetBaseUrlEvent*)#1}::__invoke(GetBaseUrlEvent*)
PUBLIC 15c2c 0 geode::EventListener<geode::EventFilter<GetBaseUrlEvent> >::getPool() const
PUBLIC 15c30 0 geode::EventListener<geode::EventFilter<GetBaseUrlEvent> >::handle(geode::Event*)
PUBLIC 15dd0 0 geode::EventListener<geode::EventFilter<GetBaseUrlEvent> >::~EventListener()
PUBLIC 15e2c 0 geode::EventListener<geode::EventFilter<GetBaseUrlEvent> >::~EventListener()
PUBLIC 15e90 0 std::__ndk1::__function::__base<geode::ListenerResult(GetBaseUrlEvent*)>::~__base()
PUBLIC 15e94 0 std::__ndk1::__function::__func<geode::ListenerResult (*)(GetBaseUrlEvent*), std::__ndk1::allocator<geode::ListenerResult (*)(GetBaseUrlEvent*)>, geode::ListenerResult(GetBaseUrlEvent*)>::~__func()
PUBLIC 15e98 0 std::__ndk1::__function::__func<geode::ListenerResult (*)(GetBaseUrlEvent*), std::__ndk1::allocator<geode::ListenerResult (*)(GetBaseUrlEvent*)>, geode::ListenerResult(GetBaseUrlEvent*)>::__clone() const
PUBLIC 15ecc 0 std::__ndk1::__function::__func<geode::ListenerResult (*)(GetBaseUrlEvent*), std::__ndk1::allocator<geode::ListenerResult (*)(GetBaseUrlEvent*)>, geode::ListenerResult(GetBaseUrlEvent*)>::__clone(std::__ndk1::__function::__base<geode::ListenerResult(GetBaseUrlEvent*)>*) const
PUBLIC 15ee0 0 std::__ndk1::__function::__func<geode::ListenerResult (*)(GetBaseUrlEvent*), std::__ndk1::allocator<geode::ListenerResult (*)(GetBaseUrlEvent*)>, geode::ListenerResult(GetBaseUrlEvent*)>::destroy()
PUBLIC 15ee4 0 std::__ndk1::__function::__func<geode::ListenerResult (*)(GetBaseUrlEvent*), std::__ndk1::allocator<geode::ListenerResult (*)(GetBaseUrlEvent*)>, geode::ListenerResult(GetBaseUrlEvent*)>::destroy_deallocate()
PUBLIC 15ee8 0 std::__ndk1::__function::__func<geode::ListenerResult (*)(GetBaseUrlEvent*), std::__ndk1::allocator<geode::ListenerResult (*)(GetBaseUrlEvent*)>, geode::ListenerResult(GetBaseUrlEvent*)>::operator()(GetBaseUrlEvent*&&)
PUBLIC 15ef8 0 std::__ndk1::__function::__func<geode::ListenerResult (*)(GetBaseUrlEvent*), std::__ndk1::allocator<geode::ListenerResult (*)(GetBaseUrlEvent*)>, geode::ListenerResult(GetBaseUrlEvent*)>::target(std::type_info const&) const
PUBLIC 15f14 0 std::__ndk1::__function::__func<geode::ListenerResult (*)(GetBaseUrlEvent*), std::__ndk1::allocator<geode::ListenerResult (*)(GetBaseUrlEvent*)>, geode::ListenerResult(GetBaseUrlEvent*)>::target_type() const
PUBLIC 15f20 0 geodeExecFunction158<(anonymous namespace)::ExecFuncUnique158>(geode::ModStateEvent*)::{lambda(GetSecondaryUrlEvent*)#1}::__invoke(GetSecondaryUrlEvent*)
PUBLIC 15fd0 0 geode::EventListener<geode::EventFilter<GetSecondaryUrlEvent> >::getPool() const
PUBLIC 15fd4 0 geode::EventListener<geode::EventFilter<GetSecondaryUrlEvent> >::handle(geode::Event*)
PUBLIC 16174 0 geode::EventListener<geode::EventFilter<GetSecondaryUrlEvent> >::~EventListener()
PUBLIC 161d0 0 geode::EventListener<geode::EventFilter<GetSecondaryUrlEvent> >::~EventListener()
PUBLIC 16234 0 std::__ndk1::__function::__base<geode::ListenerResult(GetSecondaryUrlEvent*)>::~__base()
PUBLIC 16238 0 std::__ndk1::__function::__func<geode::ListenerResult (*)(GetSecondaryUrlEvent*), std::__ndk1::allocator<geode::ListenerResult (*)(GetSecondaryUrlEvent*)>, geode::ListenerResult(GetSecondaryUrlEvent*)>::~__func()
PUBLIC 1623c 0 std::__ndk1::__function::__func<geode::ListenerResult (*)(GetSecondaryUrlEvent*), std::__ndk1::allocator<geode::ListenerResult (*)(GetSecondaryUrlEvent*)>, geode::ListenerResult(GetSecondaryUrlEvent*)>::__clone() const
PUBLIC 16270 0 std::__ndk1::__function::__func<geode::ListenerResult (*)(GetSecondaryUrlEvent*), std::__ndk1::allocator<geode::ListenerResult (*)(GetSecondaryUrlEvent*)>, geode::ListenerResult(GetSecondaryUrlEvent*)>::__clone(std::__ndk1::__function::__base<geode::ListenerResult(GetSecondaryUrlEvent*)>*) const
PUBLIC 16284 0 std::__ndk1::__function::__func<geode::ListenerResult (*)(GetSecondaryUrlEvent*), std::__ndk1::allocator<geode::ListenerResult (*)(GetSecondaryUrlEvent*)>, geode::ListenerResult(GetSecondaryUrlEvent*)>::destroy()
PUBLIC 16288 0 std::__ndk1::__function::__func<geode::ListenerResult (*)(GetSecondaryUrlEvent*), std::__ndk1::allocator<geode::ListenerResult (*)(GetSecondaryUrlEvent*)>, geode::ListenerResult(GetSecondaryUrlEvent*)>::destroy_deallocate()
PUBLIC 1628c 0 std::__ndk1::__function::__func<geode::ListenerResult (*)(GetSecondaryUrlEvent*), std::__ndk1::allocator<geode::ListenerResult (*)(GetSecondaryUrlEvent*)>, geode::ListenerResult(GetSecondaryUrlEvent*)>::operator()(GetSecondaryUrlEvent*&&)
PUBLIC 1629c 0 std::__ndk1::__function::__func<geode::ListenerResult (*)(GetSecondaryUrlEvent*), std::__ndk1::allocator<geode::ListenerResult (*)(GetSecondaryUrlEvent*)>, geode::ListenerResult(GetSecondaryUrlEvent*)>::target(std::type_info const&) const
PUBLIC 162b8 0 std::__ndk1::__function::__func<geode::ListenerResult (*)(GetSecondaryUrlEvent*), std::__ndk1::allocator<geode::ListenerResult (*)(GetSecondaryUrlEvent*)>, geode::ListenerResult(GetSecondaryUrlEvent*)>::target_type() const
PUBLIC 162c4 0 geodeExecFunction158<(anonymous namespace)::ExecFuncUnique158>(geode::ModStateEvent*)::{lambda(GetRegisteredServersEvent*)#1}::__invoke(GetRegisteredServersEvent*)
PUBLIC 16414 0 geode::EventListener<geode::EventFilter<GetRegisteredServersEvent> >::getPool() const
PUBLIC 16418 0 geode::EventListener<geode::EventFilter<GetRegisteredServersEvent> >::handle(geode::Event*)
PUBLIC 165b8 0 geode::EventListener<geode::EventFilter<GetRegisteredServersEvent> >::~EventListener()
PUBLIC 16614 0 geode::EventListener<geode::EventFilter<GetRegisteredServersEvent> >::~EventListener()
PUBLIC 16678 0 std::__ndk1::__function::__base<geode::ListenerResult(GetRegisteredServersEvent*)>::~__base()
PUBLIC 1667c 0 std::__ndk1::__function::__func<geode::ListenerResult (*)(GetRegisteredServersEvent*), std::__ndk1::allocator<geode::ListenerResult (*)(GetRegisteredServersEvent*)>, geode::ListenerResult(GetRegisteredServersEvent*)>::~__func()
PUBLIC 16680 0 std::__ndk1::__function::__func<geode::ListenerResult (*)(GetRegisteredServersEvent*), std::__ndk1::allocator<geode::ListenerResult (*)(GetRegisteredServersEvent*)>, geode::ListenerResult(GetRegisteredServersEvent*)>::__clone() const
PUBLIC 166b4 0 std::__ndk1::__function::__func<geode::ListenerResult (*)(GetRegisteredServersEvent*), std::__ndk1::allocator<geode::ListenerResult (*)(GetRegisteredServersEvent*)>, geode::ListenerResult(GetRegisteredServersEvent*)>::__clone(std::__ndk1::__function::__base<geode::ListenerResult(GetRegisteredServersEvent*)>*) const
PUBLIC 166c8 0 std::__ndk1::__function::__func<geode::ListenerResult (*)(GetRegisteredServersEvent*), std::__ndk1::allocator<geode::ListenerResult (*)(GetRegisteredServersEvent*)>, geode::ListenerResult(GetRegisteredServersEvent*)>::destroy()
PUBLIC 166cc 0 std::__ndk1::__function::__func<geode::ListenerResult (*)(GetRegisteredServersEvent*), std::__ndk1::allocator<geode::ListenerResult (*)(GetRegisteredServersEvent*)>, geode::ListenerResult(GetRegisteredServersEvent*)>::destroy_deallocate()
PUBLIC 166d0 0 std::__ndk1::__function::__func<geode::ListenerResult (*)(GetRegisteredServersEvent*), std::__ndk1::allocator<geode::ListenerResult (*)(GetRegisteredServersEvent*)>, geode::ListenerResult(GetRegisteredServersEvent*)>::operator()(GetRegisteredServersEvent*&&)
PUBLIC 166e0 0 std::__ndk1::__function::__func<geode::ListenerResult (*)(GetRegisteredServersEvent*), std::__ndk1::allocator<geode::ListenerResult (*)(GetRegisteredServersEvent*)>, geode::ListenerResult(GetRegisteredServersEvent*)>::target(std::type_info const&) const
PUBLIC 166fc 0 std::__ndk1::__function::__func<geode::ListenerResult (*)(GetRegisteredServersEvent*), std::__ndk1::allocator<geode::ListenerResult (*)(GetRegisteredServersEvent*)>, geode::ListenerResult(GetRegisteredServersEvent*)>::target_type() const
PUBLIC 16708 0 geode::EventListener<geode::ModStateFilter>::getPool() const
PUBLIC 1670c 0 geode::EventListener<geode::ModStateFilter>::handle(geode::Event*)
PUBLIC 16880 0 geode::EventListener<geode::ModStateFilter>::~EventListener()
PUBLIC 168dc 0 geode::EventListener<geode::ModStateFilter>::~EventListener()
PUBLIC 16940 0 std::__ndk1::__function::__base<void (geode::ModStateEvent*)>::~__base()
PUBLIC 16944 0 std::__ndk1::__function::__func<void (*)(geode::ModStateEvent*), std::__ndk1::allocator<void (*)(geode::ModStateEvent*)>, void (geode::ModStateEvent*)>::~__func()
PUBLIC 16948 0 std::__ndk1::__function::__func<void (*)(geode::ModStateEvent*), std::__ndk1::allocator<void (*)(geode::ModStateEvent*)>, void (geode::ModStateEvent*)>::__clone() const
PUBLIC 1697c 0 std::__ndk1::__function::__func<void (*)(geode::ModStateEvent*), std::__ndk1::allocator<void (*)(geode::ModStateEvent*)>, void (geode::ModStateEvent*)>::__clone(std::__ndk1::__function::__base<void (geode::ModStateEvent*)>*) const
PUBLIC 16990 0 std::__ndk1::__function::__func<void (*)(geode::ModStateEvent*), std::__ndk1::allocator<void (*)(geode::ModStateEvent*)>, void (geode::ModStateEvent*)>::destroy()
PUBLIC 16994 0 std::__ndk1::__function::__func<void (*)(geode::ModStateEvent*), std::__ndk1::allocator<void (*)(geode::ModStateEvent*)>, void (geode::ModStateEvent*)>::destroy_deallocate()
PUBLIC 16998 0 std::__ndk1::__function::__func<void (*)(geode::ModStateEvent*), std::__ndk1::allocator<void (*)(geode::ModStateEvent*)>, void (geode::ModStateEvent*)>::operator()(geode::ModStateEvent*&&)
PUBLIC 169a8 0 std::__ndk1::__function::__func<void (*)(geode::ModStateEvent*), std::__ndk1::allocator<void (*)(geode::ModStateEvent*)>, void (geode::ModStateEvent*)>::target(std::type_info const&) const
PUBLIC 169c4 0 std::__ndk1::__function::__func<void (*)(geode::ModStateEvent*), std::__ndk1::allocator<void (*)(geode::ModStateEvent*)>, void (geode::ModStateEvent*)>::target_type() const
PUBLIC 169d0 0 _GLOBAL__sub_I_ServerAPI.cpp
PUBLIC 16afc 0 __cxx_global_var_init
PUBLIC 172ac 0 geode::modifier::ModifyBase<geode::modifier::ModifyDerive<hook6<(anonymous namespace)::hook6Parent>, cocos2d::extension::CCHttpClient> >::~ModifyBase()
PUBLIC 172c4 0 geode::modifier::ModifyDerive<hook6<(anonymous namespace)::hook6Parent>, cocos2d::extension::CCHttpClient>::apply()
PUBLIC 1774c 0 std::__ndk1::shared_ptr<geode::Hook>::~shared_ptr[abi:ne180000]()
PUBLIC 1779c 0 geode::impl::ResultData<geode::Hook*, std::__ndk1::basic_string<char, std::__ndk1::char_traits<char>, std::__ndk1::allocator<char> > >::~ResultData()
PUBLIC 17810 0 std::__ndk1::vector<std::__ndk1::basic_string<char, std::__ndk1::char_traits<char>, std::__ndk1::allocator<char> >, std::__ndk1::allocator<std::__ndk1::basic_string<char, std::__ndk1::char_traits<char>, std::__ndk1::allocator<char> > > >::~vector[abi:ne180000]()
PUBLIC 1788c 0 geode::modifier::ModifyBase<geode::modifier::ModifyDerive<hook6<(anonymous namespace)::hook6Parent>, cocos2d::extension::CCHttpClient> >::apply()
PUBLIC 17890 0 _ZN5geode15UnwrapExceptionC2IRPNS_4HookEQsr4implE18IsStringStreamableIT_EEENS_4impl5OkTagEOS5_
PUBLIC 179e4 0 std::__ndk1::basic_stringstream<char, std::__ndk1::char_traits<char>, std::__ndk1::allocator<char> >::basic_stringstream[abi:ne180000]()
PUBLIC m 17b10 0 std::__ndk1::basic_stringstream<char, std::__ndk1::char_traits<char>, std::__ndk1::allocator<char> >::~basic_stringstream()
PUBLIC 17b90 0 std::__ndk1::__put_character_sequence[abi:ne180000]<char, std::__ndk1::char_traits<char> >(std::__ndk1::basic_ostream<char, std::__ndk1::char_traits<char> >, std::__ndk1::basic_ostream const*, unsigned long)
PUBLIC 17d34 0 std::__ndk1::__pad_and_output[abi:ne180000]<char, std::__ndk1::char_traits<char> >(std::__ndk1::char_traits<char>, std::__ndk1::ostreambuf_iterator const*, std::__ndk1::ostreambuf_iterator const, std::__ndk1::ostreambuf_iterator const, std::__ndk1::ios_base&, std::__ndk1::ostreambuf_iterator)
PUBLIC 17f10 0 std::__throw_bad_array_new_length([abi:ne180000], void)
PUBLIC 17f44 0 std::__ndk1::basic_stringbuf<char, std::__ndk1::char_traits<char>, std::__ndk1::allocator<char> >::str[abi:ne180000]() &&
PUBLIC 180bc 0 std::__ndk1::basic_stringbuf<char, std::__ndk1::char_traits<char>, std::__ndk1::allocator<char> >::__init_buf_ptrs[abi:ne180000]()
PUBLIC 18204 0 std::__ndk1::__split_buffer<std::__ndk1::basic_string<char, std::__ndk1::char_traits<char>, std::__ndk1::allocator<char> >, std::__ndk1::allocator<std::__ndk1::basic_string<char, std::__ndk1::char_traits<char>, std::__ndk1::allocator<char> > >&>::~__split_buffer()
PUBLIC 1826c 0 std::__ndk1::vector<std::__ndk1::basic_string<char, std::__ndk1::char_traits<char>, std::__ndk1::allocator<char> >, std::__ndk1::allocator<std::__ndk1::basic_string<char, std::__ndk1::char_traits<char>, std::__ndk1::allocator<char> > > >::__throw_length_error[abi:ne180000]() const
PUBLIC 18280 0 std::__ndk1::__variant_detail::__visitation::__base::__dispatcher<(unsigned long)0>::__dispatch[abi:ne180000]<std::__ndk1::__variant_detail::__dtor<std::__ndk1::__variant_detail::__traits<geode::Hook*, std::__ndk1::basic_string<char, std::__ndk1::char_traits<char>, std::__ndk1::allocator<char> > >, (std::__ndk1::__variant_detail::_Trait)1>::__destroy[abi:ne180000]()::{lambda(auto:1&)#1}, std::__ndk1::__variant_detail::__base<(std::__ndk1::__variant_detail::__traits<geode::Hook*, std::__ndk1::basic_string<char, std::__ndk1::char_traits<char>, std::__ndk1::allocator<char> > >)1, geode::Hook, std::__ndk1::allocator<char> >&>(std::__ndk1::__variant_detail::__dtor<std::__ndk1::__variant_detail::__traits<geode::Hook*, std::__ndk1::basic_string<char, std::__ndk1::char_traits<char>, std::__ndk1::allocator<char> > >, (std::__ndk1::__variant_detail::_Trait)1>, std::__ndk1::__variant_detail::__base<(std::__ndk1::__variant_detail::__traits<geode::Hook*, std::__ndk1::basic_string<char, std::__ndk1::char_traits<char>, std::__ndk1::allocator<char> > >)1, geode::Hook, std::__ndk1::allocator<char> >&)
PUBLIC 18284 0 std::__ndk1::__variant_detail::__visitation::__base::__dispatcher<(unsigned long)1>::__dispatch[abi:ne180000]<std::__ndk1::__variant_detail::__dtor<std::__ndk1::__variant_detail::__traits<geode::Hook*, std::__ndk1::basic_string<char, std::__ndk1::char_traits<char>, std::__ndk1::allocator<char> > >, (std::__ndk1::__variant_detail::_Trait)1>::__destroy[abi:ne180000]()::{lambda(auto:1&)#1}, std::__ndk1::__variant_detail::__base<(std::__ndk1::__variant_detail::__traits<geode::Hook*, std::__ndk1::basic_string<char, std::__ndk1::char_traits<char>, std::__ndk1::allocator<char> > >)1, geode::Hook, std::__ndk1::allocator<char> >&>(std::__ndk1::__variant_detail::__dtor<std::__ndk1::__variant_detail::__traits<geode::Hook*, std::__ndk1::basic_string<char, std::__ndk1::char_traits<char>, std::__ndk1::allocator<char> > >, (std::__ndk1::__variant_detail::_Trait)1>, std::__ndk1::__variant_detail::__base<(std::__ndk1::__variant_detail::__traits<geode::Hook*, std::__ndk1::basic_string<char, std::__ndk1::char_traits<char>, std::__ndk1::allocator<char> > >)1, geode::Hook, std::__ndk1::allocator<char> >&)
PUBLIC 18298 0 std::__ndk1::__tree<std::__ndk1::__value_type<std::__ndk1::basic_string<char, std::__ndk1::char_traits<char>, std::__ndk1::allocator<char> >, std::__ndk1::shared_ptr<geode::Hook> >, std::__ndk1::__map_value_compare<std::__ndk1::basic_string<char, std::__ndk1::char_traits<char>, std::__ndk1::allocator<char> >, std::__ndk1::__value_type<std::__ndk1::basic_string<char, std::__ndk1::char_traits<char>, std::__ndk1::allocator<char> >, std::__ndk1::shared_ptr<geode::Hook> >, std::__ndk1::less<std::__ndk1::basic_string<char, std::__ndk1::char_traits<char>, std::__ndk1::allocator<char> > >, true>, std::__ndk1::allocator<std::__ndk1::__value_type<std::__ndk1::basic_string<char, std::__ndk1::char_traits<char>, std::__ndk1::allocator<char> >, std::__ndk1::shared_ptr<geode::Hook> > > >::destroy(std::__ndk1::__tree_node<std::__ndk1::__value_type<std::__ndk1::basic_string<char, std::__ndk1::char_traits<char>, std::__ndk1::allocator<char> >, std::__ndk1::shared_ptr<geode::Hook> >, void*>*)
PUBLIC 1831c 0 geode::modifier::AsStaticFunction_send<hook6<(anonymous namespace)::hook6Parent>, void (hook6<(anonymous namespace)::hook6Parent>::*)(cocos2d::extension::CCHttpRequest*)>::Impl<void (hook6<(anonymous namespace)::hook6Parent>::*)(cocos2d::extension::CCHttpRequest*)>::function(hook6<(anonymous namespace)::hook6Parent>*, cocos2d::extension::CCHttpRequest*)
PUBLIC 18ad0 0 std::__ndk1::shared_ptr<tulip::hook::CallingConvention>::~shared_ptr[abi:ne180000]()
PUBLIC 18b20 0 tulip::hook::HandlerMetadata::~HandlerMetadata()
PUBLIC m 18b84 0 geodeImplicitEntry
PUBLIC 18bc0 0 std::__ndk1::unordered_map<void*, bool, std::__ndk1::hash<void*>, std::__ndk1::equal_to<void*>, std::__ndk1::allocator<std::__ndk1::pair<void* const, bool> > >::~unordered_map[abi:ne180000]()
PUBLIC 18c0c 0 wrapFunction(unsigned long, tulip::hook::WrapperMetadata const&)
PUBLIC 18d40 0 geode::impl::ResultData<void*, std::__ndk1::basic_string<char, std::__ndk1::char_traits<char>, std::__ndk1::allocator<char> > >::unwrapErr() &
PUBLIC 18db8 0 geode::impl::ResultData<void*, std::__ndk1::basic_string<char, std::__ndk1::char_traits<char>, std::__ndk1::allocator<char> > >::~ResultData()
PUBLIC 18e2c 0 tulip::hook::WrapperMetadata::~WrapperMetadata()
PUBLIC 18e90 0 cocos2d::CCObject::~CCObject()
PUBLIC 18eb4 0 cocos2d::CCNode::CCNode()
PUBLIC 19110 0 cocos2d::CCNode::~CCNode()
PUBLIC 19134 0 cocos2d::ZipUtils::base64URLDecode(gd::string const&)
PUBLIC 192a8 0 cocos2d::CCObject::update(float)
PUBLIC 192ac 0 cocos2d::CCNode::~CCNode()
PUBLIC 1954c 0 cocos2d::CCObject::~CCObject()
PUBLIC 19a30 0 _ZN5geode15UnwrapExceptionC2IRPvQsr4implE18IsStringStreamableIT_EEENS_4impl5OkTagEOS4_
PUBLIC 19b84 0 _ZN5geode15UnwrapExceptionC2IRNSt6__ndk112basic_stringIcNS2_11char_traitsIcEENS2_9allocatorIcEEEEQsr4implE18IsStringStreamableIT_EEENS_4impl6ErrTagEOSA_
PUBLIC 19cec 0 std::__ndk1::__variant_detail::__visitation::__base::__dispatcher<(unsigned long)0>::__dispatch[abi:ne180000]<std::__ndk1::__variant_detail::__dtor<std::__ndk1::__variant_detail::__traits<void*, std::__ndk1::basic_string<char, std::__ndk1::char_traits<char>, std::__ndk1::allocator<char> > >, (std::__ndk1::__variant_detail::_Trait)1>::__destroy[abi:ne180000]()::{lambda(auto:1&)#1}, std::__ndk1::__variant_detail::__base<(std::__ndk1::__variant_detail::__traits<void*, std::__ndk1::basic_string<char, std::__ndk1::char_traits<char>, std::__ndk1::allocator<char> > >)1, std::__ndk1::__variant_detail::__traits, std::__ndk1::allocator<char> >&>(std::__ndk1::__variant_detail::__dtor<std::__ndk1::__variant_detail::__traits<void*, std::__ndk1::basic_string<char, std::__ndk1::char_traits<char>, std::__ndk1::allocator<char> > >, (std::__ndk1::__variant_detail::_Trait)1>, std::__ndk1::__variant_detail::__base<(std::__ndk1::__variant_detail::__traits<void*, std::__ndk1::basic_string<char, std::__ndk1::char_traits<char>, std::__ndk1::allocator<char> > >)1, std::__ndk1::__variant_detail::__traits, std::__ndk1::allocator<char> >&)
PUBLIC 19cf0 0 std::__ndk1::__variant_detail::__visitation::__base::__dispatcher<(unsigned long)1>::__dispatch[abi:ne180000]<std::__ndk1::__variant_detail::__dtor<std::__ndk1::__variant_detail::__traits<void*, std::__ndk1::basic_string<char, std::__ndk1::char_traits<char>, std::__ndk1::allocator<char> > >, (std::__ndk1::__variant_detail::_Trait)1>::__destroy[abi:ne180000]()::{lambda(auto:1&)#1}, std::__ndk1::__variant_detail::__base<(std::__ndk1::__variant_detail::__traits<void*, std::__ndk1::basic_string<char, std::__ndk1::char_traits<char>, std::__ndk1::allocator<char> > >)1, std::__ndk1::__variant_detail::__traits, std::__ndk1::allocator<char> >&>(std::__ndk1::__variant_detail::__dtor<std::__ndk1::__variant_detail::__traits<void*, std::__ndk1::basic_string<char, std::__ndk1::char_traits<char>, std::__ndk1::allocator<char> > >, (std::__ndk1::__variant_detail::_Trait)1>, std::__ndk1::__variant_detail::__base<(std::__ndk1::__variant_detail::__traits<void*, std::__ndk1::basic_string<char, std::__ndk1::char_traits<char>, std::__ndk1::allocator<char> > >)1, std::__ndk1::__variant_detail::__traits, std::__ndk1::allocator<char> >&)
PUBLIC 19d04 0 std::__ndk1::__hash_table<std::__ndk1::__hash_value_type<void*, bool>, std::__ndk1::__unordered_map_hasher<void*, std::__ndk1::__hash_value_type<void*, bool>, std::__ndk1::hash<void*>, std::__ndk1::equal_to<void*>, true>, std::__ndk1::__unordered_map_equal<void*, std::__ndk1::__hash_value_type<void*, bool>, std::__ndk1::equal_to<void*>, std::__ndk1::hash<void*>, true>, std::__ndk1::allocator<std::__ndk1::__hash_value_type<void*, bool> > >::__emplace_unique_key_args<void*, std::__ndk1::piecewise_construct_t const&, std::__ndk1::tuple<void* const&>, std::__ndk1::tuple<> >(void* const&, std::__ndk1::piecewise_construct_t const&, std::__ndk1::tuple<void* const&>, std::__ndk1::tuple<>)
PUBLIC 1a210 0 __udivti3
PUBLIC 1a21c 0 __udivmodti4
PUBLIC m 1a468 0 __eqtf2
PUBLIC 1a508 0 __unordtf2
PUBLIC 1a540 0 fmt::v11::detail::write_loc(fmt::v11::basic_appender<char>, fmt::v11::loc_value, fmt::v11::format_specs const&, fmt::v11::detail::locale_ref)
PUBLIC 1a7d4 0 fmt::v11::format_facet<std::__ndk1::locale>::~format_facet()
PUBLIC 1a850 0 fmt::v11::report_error(char const*)
PUBLIC 1a8a0 0 fmt::v11::format_error::runtime_error(char const*)
PUBLIC 1a8cc 0 fmt::v11::format_facet<std::__ndk1::locale>::do_put(fmt::v11::basic_appender<char>, fmt::v11::loc_value, fmt::v11::format_specs const&) const
PUBLIC 1b08c 0 fmt::v11::detail::loc_writer<char>::~loc_writer()
PUBLIC 1b0f0 0 fmt::v11::detail::vformat_to<char>(fmt::v11::detail::buffer<char>&, fmt::v11::basic_string_view<char>, fmt::v11::detail::vformat_args<char>::type, fmt::v11::detail::locale_ref)
PUBLIC 1b660 0 fmt::v11::detail::is_printable(unsigned int)
PUBLIC 1b888 0 fmt::v11::detail::dragonbox::to_decimal<float>(float)
PUBLIC 1bb64 0 fmt::v11::detail::dragonbox::to_decimal<double>(double)
PUBLIC 1c0a0 0 fmt::v11::basic_memory_buffer<char, (unsigned long)500, std::__ndk1::allocator<char> >::grow(fmt::v11::detail::buffer<char>&, unsigned long)
PUBLIC 1c118 0 fmt::v11::format_facet<std::__ndk1::locale>::~format_facet()
PUBLIC 1c1a4 0 fmt::v11::format_error::~format_error()
PUBLIC 1c1c8 0 fmt::v11::detail::copy_noinline<char, char const*, fmt::v11::basic_appender<char> >(char const*, char const*, fmt::v11::basic_appender<char>)
PUBLIC 1c318 0 fmt::v11::detail::default_arg_formatter<char>::operator()<bool>(bool)
PUBLIC 1c380 0 fmt::v11::detail::default_arg_formatter<char>::operator()<char>(char)
PUBLIC 1c410 0 fmt::v11::detail::default_arg_formatter<char>::operator()<float>(float)
PUBLIC 1c4fc 0 fmt::v11::detail::default_arg_formatter<char>::operator()<double>(double)
PUBLIC 1c5e8 0 fmt::v11::detail::default_arg_formatter<char>::operator()<char const*>(char const*)
PUBLIC 1c630 0 fmt::v11::detail::default_arg_formatter<char>::operator()<void const*>(void const*)
PUBLIC 1c6c8 0 _ZN3fmt3v116detail5writeIcNS0_14basic_appenderIcEEiTnNSt6__ndk19enable_ifIXaaaasr11is_integralIT1_EE5valuentsr3std7is_sameIS7_bEE5valuentsr3std7is_sameIS7_T_EE5valueEiE4typeELi0EEET0_SB_S7_
PUBLIC 1c928 0 fmt::v11::detail::copy_noinline<char, char*, fmt::v11::basic_appender<char> >(char*, char*, fmt::v11::basic_appender<char>)
PUBLIC 1ca78 0 _ZN3fmt3v116detail5writeIcNS0_14basic_appenderIcEEjTnNSt6__ndk19enable_ifIXaaaasr11is_integralIT1_EE5valuentsr3std7is_sameIS7_bEE5valuentsr3std7is_sameIS7_T_EE5valueEiE4typeELi0EEET0_SB_S7_
PUBLIC 1cc58 0 _ZN3fmt3v116detail5writeIcNS0_14basic_appenderIcEExTnNSt6__ndk19enable_ifIXaaaasr11is_integralIT1_EE5valuentsr3std7is_sameIS7_bEE5valuentsr3std7is_sameIS7_T_EE5valueEiE4typeELi0EEET0_SB_S7_
PUBLIC 1cedc 0 _ZN3fmt3v116detail5writeIcNS0_14basic_appenderIcEEyTnNSt6__ndk19enable_ifIXaaaasr11is_integralIT1_EE5valuentsr3std7is_sameIS7_bEE5valuentsr3std7is_sameIS7_T_EE5valueEiE4typeELi0EEET0_SB_S7_
PUBLIC 1d0e4 0 _ZN3fmt3v116detail5writeIcNS0_14basic_appenderIcEEnTnNSt6__ndk19enable_ifIXaaaasr11is_integralIT1_EE5valuentsr3std7is_sameIS7_bEE5valuentsr3std7is_sameIS7_T_EE5valueEiE4typeELi0EEET0_SB_S7_
PUBLIC 1d444 0 _ZN3fmt3v116detail5writeIcNS0_14basic_appenderIcEEoTnNSt6__ndk19enable_ifIXaaaasr11is_integralIT1_EE5valuentsr3std7is_sameIS7_bEE5valuentsr3std7is_sameIS7_T_EE5valueEiE4typeELi0EEET0_SB_S7_
PUBLIC 1d758 0 _ZN3fmt3v116detail5writeIcNS0_14basic_appenderIcEEbTnNSt6__ndk19enable_ifIXsr3std7is_sameIT1_bEE5valueEiE4typeELi0EEET0_SA_S7_RKNS0_12format_specsENS1_10locale_refE
PUBLIC 1d9e8 0 fmt::v11::detail::write_int_noinline<char, fmt::v11::basic_appender<char>, unsigned int>(fmt::v11::basic_appender<char>, fmt::v11::detail::write_int_arg<unsigned int>, fmt::v11::format_specs const&, fmt::v11::detail::locale_ref)
PUBLIC 1e7c4 0 fmt::v11::detail::fill<char, fmt::v11::basic_appender<char> >(fmt::v11::basic_appender<char>, unsigned long, fmt::v11::detail::fill_t const&)
PUBLIC 1e994 0 fmt::v11::detail::write_padded<char, (fmt::v11::align::type)1, fmt::v11::basic_appender<char>, fmt::v11::detail::write_char<char, fmt::v11::basic_appender<char> >(fmt::v11::basic_appender<char>, char, fmt::v11::format_specs const&)::{lambda(fmt::v11::basic_appender<char>&)#1}>(fmt::v11::basic_appender<char>, fmt::v11::format_specs const&, unsigned long, unsigned long, fmt::v11::detail::write_char<char, fmt::v11::basic_appender<char> >(fmt::v11::basic_appender<char>, char, fmt::v11::format_specs const&)::{lambda(fmt::v11::basic_appender<char>&)#1})
PUBLIC 1ebd0 0 fmt::v11::detail::write_escaped_cp<fmt::v11::basic_appender<char>, char>(fmt::v11::basic_appender<char>, fmt::v11::detail::find_escape_result<char> const&)
PUBLIC 1eedc 0 fmt::v11::detail::write_codepoint<(unsigned long)2, char, fmt::v11::basic_appender<char> >(fmt::v11::basic_appender<char>, char, unsigned int)
PUBLIC 1f054 0 fmt::v11::detail::write_codepoint<(unsigned long)8, char, fmt::v11::basic_appender<char> >(fmt::v11::basic_appender<char>, char, unsigned int)
PUBLIC 1f1cc 0 fmt::v11::detail::write_padded<char, (fmt::v11::align::type)1, fmt::v11::basic_appender<char>, fmt::v11::detail::write_nonfinite<char, fmt::v11::basic_appender<char> >(fmt::v11::basic_appender<char>, bool, fmt::v11::format_specs, fmt::v11::sign::type)::{lambda(fmt::v11::basic_appender<char>&)#1}>(fmt::v11::basic_appender<char>, fmt::v11::format_specs const&, unsigned long, unsigned long, fmt::v11::detail::write_nonfinite<char, fmt::v11::basic_appender<char> >(fmt::v11::basic_appender<char>, bool, fmt::v11::format_specs, fmt::v11::sign::type)::{lambda(fmt::v11::basic_appender<char>&)#1})
PUBLIC 1f40c 0 fmt::v11::detail::do_write_float<char, fmt::v11::basic_appender<char>, fmt::v11::detail::dragonbox::decimal_fp<float>, fmt::v11::detail::digit_grouping<char> >(fmt::v11::basic_appender<char>, fmt::v11::detail::dragonbox::decimal_fp<float> const&, fmt::v11::format_specs const&, fmt::v11::detail::float_specs, fmt::v11::detail::locale_ref)
PUBLIC 20080 0 fmt::v11::detail::do_write_float<char, fmt::v11::basic_appender<char>, fmt::v11::detail::dragonbox::decimal_fp<float>, fmt::v11::detail::digit_grouping<char> >(fmt::v11::basic_appender<char>, fmt::v11::detail::dragonbox::decimal_fp<float> const&, fmt::v11::format_specs const&, fmt::v11::detail::float_specs, fmt::v11::detail::locale_ref)::{lambda(fmt::v11::basic_appender<char>(fmt::v11::basic_appender<char>))#1}::operator() const
PUBLIC 201d4 0 fmt::v11::detail::digit_grouping<char>::digit_grouping(fmt::v11::detail::locale_ref, bool)
PUBLIC 20440 0 fmt::v11::detail::digit_grouping<char>::~digit_grouping()
PUBLIC 20484 0 fmt::v11::detail::write_exponent<char, fmt::v11::basic_appender<char> >(int, fmt::v11::basic_appender<char>)
PUBLIC 20654 0 _ZN3fmt3v116detail17write_significandIcjTnNSt6__ndk19enable_ifIXsr3std11is_integralIT0_EE5valueEiE4typeELi0EEEPT_S9_S5_iiS8_
PUBLIC 207d0 0 fmt::v11::detail::digit_grouping<char>::apply<fmt::v11::basic_appender<char>, char>(fmt::v11::basic_appender<char>, fmt::v11::basic_string_view<char>) const
PUBLIC 20b88 0 fmt::v11::basic_memory_buffer<int, (unsigned long)500, std::__ndk1::allocator<int> >::grow(fmt::v11::detail::buffer<int>&, unsigned long)
PUBLIC 20c28 0 fmt::v11::detail::do_write_float<char, fmt::v11::basic_appender<char>, fmt::v11::detail::dragonbox::decimal_fp<double>, fmt::v11::detail::digit_grouping<char> >(fmt::v11::basic_appender<char>, fmt::v11::detail::dragonbox::decimal_fp<double> const&, fmt::v11::format_specs const&, fmt::v11::detail::float_specs, fmt::v11::detail::locale_ref)
PUBLIC 218dc 0 fmt::v11::detail::do_write_float<char, fmt::v11::basic_appender<char>, fmt::v11::detail::dragonbox::decimal_fp<double>, fmt::v11::detail::digit_grouping<char> >(fmt::v11::basic_appender<char>, fmt::v11::detail::dragonbox::decimal_fp<double> const&, fmt::v11::format_specs const&, fmt::v11::detail::float_specs, fmt::v11::detail::locale_ref)::{lambda(fmt::v11::basic_appender<char>(fmt::v11::basic_appender<char>))#1}::operator() const
PUBLIC 21a34 0 _ZN3fmt3v116detail17write_significandIcmTnNSt6__ndk19enable_ifIXsr3std11is_integralIT0_EE5valueEiE4typeELi0EEEPT_S9_S5_iiS8_
PUBLIC 21bc4 0 fmt::v11::detail::write_float<char, fmt::v11::basic_appender<char>, long double>(fmt::v11::basic_appender<char>, long double, fmt::v11::format_specs, fmt::v11::detail::locale_ref)
PUBLIC 226c0 0 fmt::v11::detail::write_padded<char, (fmt::v11::align::type)2, fmt::v11::basic_appender<char>, fmt::v11::detail::write_bytes<char, (fmt::v11::align::type)2, fmt::v11::basic_appender<char> >(fmt::v11::basic_appender<char>, fmt::v11::basic_string_view<char>, fmt::v11::format_specs const&)::{lambda(fmt::v11::basic_appender<char>&)#1}>(fmt::v11::basic_appender<char>, fmt::v11::format_specs const&, unsigned long, unsigned long, fmt::v11::detail::write_bytes<char, (fmt::v11::align::type)2, fmt::v11::basic_appender<char> >(fmt::v11::basic_appender<char>, fmt::v11::basic_string_view<char>, fmt::v11::format_specs const&)::{lambda(fmt::v11::basic_appender<char>&)#1})
PUBLIC 2289c 0 fmt::v11::detail::format_dragon(fmt::v11::detail::basic_fp<unsigned __int128>, unsigned int, int, fmt::v11::detail::buffer<char>&, int&)
PUBLIC 23ccc 0 fmt::v11::detail::bigint::operator<<=(int)
PUBLIC 23df0 0 fmt::v11::detail::bigint::assign_pow10(int)
PUBLIC 2454c 0 fmt::v11::detail::bigint::divmod_assign(fmt::v11::detail::bigint const&)
PUBLIC 2486c 0 fmt::v11::basic_memory_buffer<unsigned int, (unsigned long)32, std::__ndk1::allocator<unsigned int> >::grow(fmt::v11::detail::buffer<unsigned int>&, unsigned long)
PUBLIC 2490c 0 fmt::v11::detail::do_write_float<char, fmt::v11::basic_appender<char>, fmt::v11::detail::big_decimal_fp, fmt::v11::detail::digit_grouping<char> >(fmt::v11::basic_appender<char>, fmt::v11::detail::big_decimal_fp const&, fmt::v11::format_specs const&, fmt::v11::detail::float_specs, fmt::v11::detail::locale_ref)
PUBLIC 257bc 0 fmt::v11::detail::do_write_float<char, fmt::v11::basic_appender<char>, fmt::v11::detail::big_decimal_fp, fmt::v11::detail::digit_grouping<char> >(fmt::v11::basic_appender<char>, fmt::v11::detail::big_decimal_fp const&, fmt::v11::format_specs const&, fmt::v11::detail::float_specs, fmt::v11::detail::locale_ref)::{lambda(fmt::v11::basic_appender<char>(fmt::v11::basic_appender<char>))#1}::operator() const
PUBLIC 2591c 0 fmt::v11::detail::write_padded<char, (fmt::v11::align::type)2, fmt::v11::basic_appender<char>, fmt::v11::detail::write_ptr<char, fmt::v11::basic_appender<char>, unsigned long>(fmt::v11::basic_appender<char>, unsigned long, fmt::v11::format_specs const*)::{lambda(fmt::v11::basic_appender<char>&)#1}>(fmt::v11::basic_appender<char>, fmt::v11::format_specs const&, unsigned long, unsigned long, fmt::v11::detail::write_ptr<char, fmt::v11::basic_appender<char>, unsigned long>(fmt::v11::basic_appender<char>, unsigned long, fmt::v11::format_specs const*)::{lambda(fmt::v11::basic_appender<char>&)#1})
PUBLIC 25b30 0 fmt::v11::detail::parse_replacement_field<char, fmt::v11::detail::vformat_to<char>(fmt::v11::detail::buffer<char>&, fmt::v11::basic_string_view<char>, fmt::v11::detail::vformat_args<char>::type, fmt::v11::detail::locale_ref)::format_handler&>(char const*, char const*, fmt::v11::detail::vformat_to<char>(fmt::v11::detail::buffer<char>&, fmt::v11::basic_string_view<char>, fmt::v11::detail::vformat_args<char>::type, fmt::v11::detail::locale_ref)::format_handler&)
PUBLIC 277cc 0 fmt::v11::detail::parse_dynamic_spec<char>(char const*, char const*, int&, fmt::v11::detail::arg_ref<char>&, fmt::v11::basic_format_parse_context<char>&)
PUBLIC 27a5c 0 fmt::v11::basic_format_args<fmt::v11::context>::get<char>(fmt::v11::basic_string_view<char>) const
PUBLIC 27bb4 0 fmt::v11::detail::write_int_noinline<char, fmt::v11::basic_appender<char>, unsigned long>(fmt::v11::basic_appender<char>, fmt::v11::detail::write_int_arg<unsigned long>, fmt::v11::format_specs const&, fmt::v11::detail::locale_ref)
PUBLIC 28a08 0 fmt::v11::detail::write_int_noinline<char, fmt::v11::basic_appender<char>, unsigned __int128>(fmt::v11::basic_appender<char>, fmt::v11::detail::write_int_arg<unsigned __int128>, fmt::v11::format_specs const&, fmt::v11::detail::locale_ref)
PUBLIC 29a70 0 _ZN3fmt3v116detail15format_hexfloatIdTnNSt6__ndk19enable_ifIXntsr16is_double_doubleIT_EE5valueEiE4typeELi0EEEvS5_NS0_12format_specsERNS1_6bufferIcEE
PUBLIC 29f90 0 fmt::v11::detail::format_float<double>(double, int, fmt::v11::detail::float_specs, fmt::v11::detail::buffer<char>&)
PUBLIC 2a930 0 fmt::v11::detail::write<char, fmt::v11::basic_appender<char> >(fmt::v11::basic_appender<char>, fmt::v11::basic_string_view<char>, fmt::v11::format_specs const&)
PUBLIC 2bc9c 0 fmt::v11::detail::for_each_codepoint<fmt::v11::detail::compute_width(fmt::v11::basic_string_view<char>)::count_code_points>(fmt::v11::basic_string_view<char>, fmt::v11::detail::compute_width(fmt::v11::basic_string_view<char>)::count_code_points)::{lambda(char const*, char const*)#1}::operator()(char const*, char const*) const
PUBLIC 2be54 0 fmt::v11::detail::write_int<fmt::v11::basic_appender<char>, unsigned long, char>(fmt::v11::basic_appender<char>, unsigned long, unsigned int, fmt::v11::format_specs const&, fmt::v11::detail::digit_grouping<char> const&)
PUBLIC 2c3d0 0 fmt::v11::detail::write_int<fmt::v11::basic_appender<char>, unsigned __int128, char>(fmt::v11::basic_appender<char>, unsigned __int128, unsigned int, fmt::v11::format_specs const&, fmt::v11::detail::digit_grouping<char> const&)
PUBLIC 2ca50 0 <.plt ELF section in km7dev.server_api.android64.so>
STACK CFI INIT 10460 10 .cfa: sp 0 +
STACK CFI INIT 10470 8 .cfa: sp 0 +
STACK CFI INIT 10478 8 .cfa: sp 0 +
STACK CFI INIT 10480 14 .cfa: sp 0 +
STACK CFI INIT 10494 1c .cfa: sp 0 +
STACK CFI INIT 104b0 10 .cfa: sp 0 +
STACK CFI INIT 104c0 30 .cfa: sp 0 +
STACK CFI INIT 104f0 98 .cfa: sp 0 +
STACK CFI INIT 10588 59c .cfa: sp 0 +
STACK CFI INIT 10b24 8c .cfa: sp 0 +
STACK CFI INIT 10bb0 30 .cfa: sp 0 +
STACK CFI INIT 10eec 50 .cfa: sp 0 +
STACK CFI 10ef0 .cfa: sp 32 +
STACK CFI 10ef8 .cfa: x29 32 + x19: .cfa -16 + ^ .ra: .cfa -24 + ^ x29: .cfa -32 + ^
STACK CFI 10f10 .cfa: sp 32 +
STACK CFI 10f18 .cfa: sp 0 +
STACK CFI 10f1c .cfa: x29 32 +
STACK CFI 10f30 .cfa: sp 32 +
STACK CFI 10f38 .cfa: sp 0 +
STACK CFI INIT 10f3c 50 .cfa: sp 0 +
STACK CFI 10f40 .cfa: sp 32 +
STACK CFI 10f48 .cfa: x29 32 + x19: .cfa -16 + ^ .ra: .cfa -24 + ^ x29: .cfa -32 + ^
STACK CFI 10f60 .cfa: sp 32 +
STACK CFI 10f68 .cfa: sp 0 +
STACK CFI 10f6c .cfa: x29 32 +
STACK CFI 10f80 .cfa: sp 32 +
STACK CFI 10f88 .cfa: sp 0 +
STACK CFI INIT 10f8c 24 .cfa: sp 0 +
STACK CFI 10f90 .cfa: sp 32 +
STACK CFI 10f98 .cfa: x29 32 + x19: .cfa -16 + ^ .ra: .cfa -24 + ^ x29: .cfa -32 + ^
STACK CFI 10fa4 .cfa: sp 32 +
STACK CFI 10fac .cfa: sp 0 +
STACK CFI INIT 10fb0 8 .cfa: sp 0 +
STACK CFI INIT 10fb8 8 .cfa: sp 0 +
STACK CFI INIT 10fc0 8 .cfa: sp 0 +
STACK CFI INIT 10fc8 4 .cfa: sp 0 +
STACK CFI INIT 10fcc 8 .cfa: sp 0 +
STACK CFI INIT 10fd4 70 .cfa: sp 0 +
STACK CFI 10fd8 .cfa: sp 32 +
STACK CFI 10fe0 .cfa: x29 32 + x19: .cfa -8 + ^ x20: .cfa -16 + ^ .ra: .cfa -24 + ^ x29: .cfa -32 + ^
STACK CFI 11010 .cfa: sp 32 +
STACK CFI 11018 .cfa: sp 0 +
STACK CFI 1101c .cfa: x29 32 +
STACK CFI 11038 .cfa: sp 32 +
STACK CFI 11040 .cfa: sp 0 +
STACK CFI INIT 11044 80 .cfa: sp 0 +
STACK CFI 11048 .cfa: sp 32 +
STACK CFI 11050 .cfa: x29 32 + x19: .cfa -8 + ^ x20: .cfa -16 + ^ .ra: .cfa -24 + ^ x29: .cfa -32 + ^
STACK CFI 11088 .cfa: sp 32 +
STACK CFI 11090 .cfa: sp 0 +
STACK CFI 11094 .cfa: x29 32 +
STACK CFI 110b8 .cfa: sp 32 +
STACK CFI 110c0 .cfa: sp 0 +
STACK CFI INIT 11250 4 .cfa: sp 0 +
STACK CFI INIT 11254 4 .cfa: sp 0 +
STACK CFI INIT 11258 8 .cfa: sp 0 +
STACK CFI INIT 11260 8 .cfa: sp 0 +
STACK CFI INIT 11874 14 .cfa: sp 0 +
STACK CFI 11878 .cfa: sp 16 +
STACK CFI 1187c .cfa: x29 16 + .ra: .cfa -8 + ^ x29: .cfa -16 + ^
STACK CFI INIT 118d8 30 .cfa: sp 0 +
STACK CFI 118dc .cfa: sp 32 +
STACK CFI 118e4 .cfa: x29 32 + x19: .cfa -16 + ^ .ra: .cfa -24 + ^ x29: .cfa -32 + ^
STACK CFI 118fc .cfa: sp 32 +
STACK CFI 11904 .cfa: sp 0 +
STACK CFI INIT 11908 10 .cfa: sp 0 +
STACK CFI 1190c .cfa: sp 16 +
STACK CFI 11910 .cfa: x29 16 + .ra: .cfa -8 + ^ x29: .cfa -16 + ^
STACK CFI INIT 11918 50 .cfa: sp 0 +
STACK CFI 11920 .cfa: sp 32 +
STACK CFI 11928 .cfa: x29 32 + x19: .cfa -8 + ^ x20: .cfa -16 + ^ .ra: .cfa -24 + ^ x29: .cfa -32 + ^
STACK CFI 11958 .cfa: sp 32 +
STACK CFI 11960 .cfa: sp 0 +
STACK CFI INIT 11968 34 .cfa: sp 0 +
STACK CFI 1196c .cfa: sp 16 +
STACK CFI 11970 .cfa: x29 16 + .ra: .cfa -8 + ^ x29: .cfa -16 + ^
STACK CFI INIT 11db0 10 .cfa: sp 0 +
STACK CFI INIT 11dc0 30 .cfa: sp 0 +
STACK CFI 11dc4 .cfa: sp 32 +
STACK CFI 11dcc .cfa: x29 32 + x19: .cfa -16 + ^ .ra: .cfa -24 + ^ x29: .cfa -32 + ^
STACK CFI 11de4 .cfa: sp 32 +
STACK CFI 11dec .cfa: sp 0 +
STACK CFI INIT 11df0 c .cfa: sp 0 +
STACK CFI INIT 11dfc 4 .cfa: sp 0 +
STACK CFI INIT 11e00 34 .cfa: sp 0 +
STACK CFI 11e04 .cfa: sp 16 +
STACK CFI 11e08 .cfa: x29 16 + .ra: .cfa -8 + ^ x29: .cfa -16 + ^
STACK CFI INIT 11e34 24 .cfa: sp 0 +
STACK CFI 11e38 .cfa: sp 32 +
STACK CFI 11e40 .cfa: x29 32 + x19: .cfa -16 + ^ .ra: .cfa -24 + ^ x29: .cfa -32 + ^
STACK CFI 11e4c .cfa: sp 32 +
STACK CFI 11e54 .cfa: sp 0 +
STACK CFI INIT 11e58 80 .cfa: sp 0 +
STACK CFI 11e5c .cfa: sp 48 +
STACK CFI 11e68 .cfa: x29 48 + x19: .cfa -8 + ^ x20: .cfa -16 + ^ x21: .cfa -24 + ^ x22: .cfa -32 + ^ .ra: .cfa -40 + ^ x29: .cfa -48 + ^
STACK CFI 11e80 .cfa: sp 48 +
STACK CFI 11e8c .cfa: sp 0 +
STACK CFI 11e90 .cfa: x29 48 +
STACK CFI 11ec0 .cfa: sp 48 +
STACK CFI 11ecc .cfa: sp 0 +
STACK CFI 11ed0 .cfa: x29 48 +
STACK CFI INIT 11ed8 4 .cfa: sp 0 +
STACK CFI INIT 11edc 4 .cfa: sp 0 +
STACK CFI INIT 11ee0 34 .cfa: sp 0 +
STACK CFI 11ee4 .cfa: sp 32 +
STACK CFI 11eec .cfa: x29 32 + x19: .cfa -16 + ^ .ra: .cfa -24 + ^ x29: .cfa -32 + ^
STACK CFI 11f08 .cfa: sp 32 +
STACK CFI 11f10 .cfa: sp 0 +
STACK CFI INIT 11f14 14 .cfa: sp 0 +
STACK CFI INIT 11f28 4 .cfa: sp 0 +
STACK CFI INIT 11f2c 4 .cfa: sp 0 +
STACK CFI INIT 12064 1c .cfa: sp 0 +
STACK CFI INIT 12080 c .cfa: sp 0 +
STACK CFI INIT 1208c 50 .cfa: sp 0 +
STACK CFI 12090 .cfa: sp 32 +
STACK CFI 12098 .cfa: x29 32 + x19: .cfa -16 + ^ .ra: .cfa -24 + ^ x29: .cfa -32 + ^
STACK CFI 120b0 .cfa: sp 32 +
STACK CFI 120b8 .cfa: sp 0 +
STACK CFI 120bc .cfa: x29 32 +
STACK CFI 120d0 .cfa: sp 32 +
STACK CFI 120d8 .cfa: sp 0 +
STACK CFI INIT 120dc 14 .cfa: sp 0 +
STACK CFI INIT 120f0 4 .cfa: sp 0 +
STACK CFI INIT 120f4 14 .cfa: sp 0 +
STACK CFI INIT 12d98 8c .cfa: sp 0 +
STACK CFI INIT 12e24 68 .cfa: sp 0 +
STACK CFI INIT 1334c 8 .cfa: sp 0 +
STACK CFI INIT 13404 2c .cfa: sp 0 +
STACK CFI INIT 13430 2c .cfa: sp 0 +
STACK CFI INIT 139ec ac .cfa: sp 0 +
STACK CFI 139f0 .cfa: sp 64 +
STACK CFI 13a00 .cfa: x29 64 + x19: .cfa -8 + ^ x20: .cfa -16 + ^ x21: .cfa -24 + ^ x22: .cfa -32 + ^ x23: .cfa -48 + ^ .ra: .cfa -56 + ^ x29: .cfa -64 + ^
STACK CFI 13a7c .cfa: sp 64 +
STACK CFI 13a8c .cfa: sp 0 +
STACK CFI 13a90 .cfa: x29 64 +
STACK CFI INIT 13a98 110 .cfa: sp 0 +
STACK CFI 13a9c .cfa: sp 64 +
STACK CFI 13aac .cfa: x29 64 + x19: .cfa -8 + ^ x20: .cfa -16 + ^ x21: .cfa -24 + ^ x22: .cfa -32 + ^ x23: .cfa -40 + ^ x24: .cfa -48 + ^ .ra: .cfa -56 + ^ x29: .cfa -64 + ^
STACK CFI 13b8c .cfa: sp 64 +
STACK CFI 13b9c .cfa: sp 0 +
STACK CFI 13ba0 .cfa: x29 64 +
STACK CFI INIT 13ba8 24 .cfa: sp 0 +
STACK CFI 13bac .cfa: sp 32 +
STACK CFI 13bb4 .cfa: x29 32 + x19: .cfa -16 + ^ .ra: .cfa -24 + ^ x29: .cfa -32 + ^
STACK CFI 13bc0 .cfa: sp 32 +
STACK CFI 13bc8 .cfa: sp 0 +
STACK CFI INIT 13bcc 128 .cfa: sp 0 +
STACK CFI 13bd0 .cfa: sp 80 +
STACK CFI 13be4 .cfa: x29 80 + x19: .cfa -8 + ^ x20: .cfa -16 + ^ x21: .cfa -24 + ^ x22: .cfa -32 + ^ x23: .cfa -40 + ^ x24: .cfa -48 + ^ x25: .cfa -64 + ^ .ra: .cfa -72 + ^ x29: .cfa -80 + ^
STACK CFI 13cd4 .cfa: sp 80 +
STACK CFI 13ce8 .cfa: sp 0 +
STACK CFI 13cec .cfa: x29 80 +
STACK CFI INIT 13cf4 34 .cfa: sp 0 +
STACK CFI 13cf8 .cfa: sp 32 +
STACK CFI 13d00 .cfa: x29 32 + x19: .cfa -8 + ^ x20: .cfa -16 + ^ .ra: .cfa -24 + ^ x29: .cfa -32 + ^
STACK CFI 13d1c .cfa: sp 32 +
STACK CFI 13d24 .cfa: sp 0 +
STACK CFI INIT 13e70 1b0 .cfa: sp 0 +
STACK CFI INIT 14020 50 .cfa: sp 0 +
STACK CFI 14044 .cfa: sp 32 +
STACK CFI 1404c .cfa: x29 32 + x19: .cfa -16 + ^ .ra: .cfa -24 + ^ x29: .cfa -32 + ^
STACK CFI 14060 .cfa: sp 32 +
STACK CFI 14068 .cfa: sp 0 +
STACK CFI INIT 14070 1b0 .cfa: sp 0 +
STACK CFI INIT 14220 d4 .cfa: sp 0 +
STACK CFI 14224 .cfa: sp 32 +
STACK CFI 1422c .cfa: x29 32 + x19: .cfa -16 + ^ .ra: .cfa -24 + ^ x29: .cfa -32 + ^
STACK CFI 14278 .cfa: sp 32 +
STACK CFI 14280 .cfa: sp 0 +
STACK CFI 14284 .cfa: x29 32 +
STACK CFI 142e8 .cfa: sp 32 +
STACK CFI 142f0 .cfa: sp 0 +
STACK CFI INIT 142f4 3c8 .cfa: sp 0 +
STACK CFI INIT 146bc 98 .cfa: sp 0 +
STACK CFI 146c0 .cfa: sp 80 +
STACK CFI 146d0 .cfa: x29 48 + x19: .cfa -8 + ^ x20: .cfa -16 + ^ x21: .cfa -32 + ^ .ra: .cfa -40 + ^ x29: .cfa -48 + ^
STACK CFI 1473c .cfa: sp 80 +
STACK CFI 1474c .cfa: sp 0 +
STACK CFI 14750 .cfa: x29 48 +
STACK CFI INIT 14754 4 .cfa: sp 0 +
STACK CFI INIT 148f8 5c .cfa: sp 0 +
STACK CFI 148fc .cfa: sp 32 +
STACK CFI 14904 .cfa: x29 32 + x19: .cfa -16 + ^ .ra: .cfa -24 + ^ x29: .cfa -32 + ^
STACK CFI 14948 .cfa: sp 32 +
STACK CFI 14950 .cfa: sp 0 +
STACK CFI INIT 14954 64 .cfa: sp 0 +
STACK CFI 14958 .cfa: sp 32 +
STACK CFI 14960 .cfa: x29 32 + x19: .cfa -16 + ^ .ra: .cfa -24 + ^ x29: .cfa -32 + ^
STACK CFI 149ac .cfa: sp 32 +
STACK CFI 149b4 .cfa: sp 0 +
STACK CFI INIT 149b8 4 .cfa: sp 0 +
STACK CFI INIT 149bc 4 .cfa: sp 0 +
STACK CFI INIT 149c0 34 .cfa: sp 0 +
STACK CFI 149c4 .cfa: sp 32 +
STACK CFI 149cc .cfa: x29 32 + x19: .cfa -16 + ^ .ra: .cfa -24 + ^ x29: .cfa -32 + ^
STACK CFI 149e8 .cfa: sp 32 +
STACK CFI 149f0 .cfa: sp 0 +
STACK CFI INIT 149f4 14 .cfa: sp 0 +
STACK CFI INIT 14a08 4 .cfa: sp 0 +
STACK CFI INIT 14a0c 4 .cfa: sp 0 +
STACK CFI INIT 14a10 10 .cfa: sp 0 +
STACK CFI INIT 14a20 1c .cfa: sp 0 +
STACK CFI INIT 14a3c c .cfa: sp 0 +
STACK CFI INIT 14a48 104 .cfa: sp 0 +
STACK CFI 14a4c .cfa: sp 64 +
STACK CFI 14a5c .cfa: x29 64 + x19: .cfa -8 + ^ x20: .cfa -16 + ^ x21: .cfa -24 + ^ x22: .cfa -32 + ^ x23: .cfa -48 + ^ .ra: .cfa -56 + ^ x29: .cfa -64 + ^
STACK CFI 14ab8 .cfa: sp 64 +
STACK CFI 14ac8 .cfa: sp 0 +
STACK CFI 14acc .cfa: x29 64 +
STACK CFI 14ae8 .cfa: sp 64 +
STACK CFI 14af8 .cfa: sp 0 +
STACK CFI 14afc .cfa: x29 64 +
STACK CFI 14b38 .cfa: sp 64 +
STACK CFI 14b48 .cfa: sp 0 +
STACK CFI INIT 14b4c 34 .cfa: sp 0 +
STACK CFI 14b50 .cfa: sp 16 +
STACK CFI 14b54 .cfa: x29 16 + .ra: .cfa -8 + ^ x29: .cfa -16 + ^
STACK CFI INIT 14b80 24 .cfa: sp 0 +
STACK CFI 14b84 .cfa: sp 32 +
STACK CFI 14b8c .cfa: x29 32 + x19: .cfa -16 + ^ .ra: .cfa -24 + ^ x29: .cfa -32 + ^
STACK CFI 14b98 .cfa: sp 32 +
STACK CFI 14ba0 .cfa: sp 0 +
STACK CFI INIT 14ba4 190 .cfa: sp 0 +
STACK CFI 14ba8 .cfa: sp 80 +
STACK CFI 14bb8 .cfa: x29 48 + x19: .cfa -8 + ^ x20: .cfa -16 + ^ x21: .cfa -32 + ^ .ra: .cfa -40 + ^ x29: .cfa -48 + ^
STACK CFI 14cd4 .cfa: sp 80 +
STACK CFI 14ce4 .cfa: sp 0 +
STACK CFI 14ce8 .cfa: x29 48 +
STACK CFI INIT 14d34 4 .cfa: sp 0 +
STACK CFI INIT 14ed8 5c .cfa: sp 0 +
STACK CFI 14edc .cfa: sp 32 +
STACK CFI 14ee4 .cfa: x29 32 + x19: .cfa -16 + ^ .ra: .cfa -24 + ^ x29: .cfa -32 + ^
STACK CFI 14f28 .cfa: sp 32 +
STACK CFI 14f30 .cfa: sp 0 +
STACK CFI INIT 14f34 64 .cfa: sp 0 +
STACK CFI 14f38 .cfa: sp 32 +
STACK CFI 14f40 .cfa: x29 32 + x19: .cfa -16 + ^ .ra: .cfa -24 + ^ x29: .cfa -32 + ^
STACK CFI 14f8c .cfa: sp 32 +
STACK CFI 14f94 .cfa: sp 0 +
STACK CFI INIT 14f98 4 .cfa: sp 0 +
STACK CFI INIT 14f9c 4 .cfa: sp 0 +
STACK CFI INIT 14fa0 34 .cfa: sp 0 +
STACK CFI 14fa4 .cfa: sp 32 +
STACK CFI 14fac .cfa: x29 32 + x19: .cfa -16 + ^ .ra: .cfa -24 + ^ x29: .cfa -32 + ^
STACK CFI 14fc8 .cfa: sp 32 +
STACK CFI 14fd0 .cfa: sp 0 +
STACK CFI INIT 14fd4 14 .cfa: sp 0 +
STACK CFI INIT 14fe8 4 .cfa: sp 0 +
STACK CFI INIT 14fec 4 .cfa: sp 0 +
STACK CFI INIT 14ff0 10 .cfa: sp 0 +
STACK CFI INIT 15000 1c .cfa: sp 0 +
STACK CFI INIT 1501c c .cfa: sp 0 +
STACK CFI INIT 150fc 4 .cfa: sp 0 +
STACK CFI INIT 152a0 5c .cfa: sp 0 +
STACK CFI 152a4 .cfa: sp 32 +
STACK CFI 152ac .cfa: x29 32 + x19: .cfa -16 + ^ .ra: .cfa -24 + ^ x29: .cfa -32 + ^
STACK CFI 152f0 .cfa: sp 32 +
STACK CFI 152f8 .cfa: sp 0 +
STACK CFI INIT 152fc 64 .cfa: sp 0 +
STACK CFI 15300 .cfa: sp 32 +
STACK CFI 15308 .cfa: x29 32 + x19: .cfa -16 + ^ .ra: .cfa -24 + ^ x29: .cfa -32 + ^
STACK CFI 15354 .cfa: sp 32 +
STACK CFI 1535c .cfa: sp 0 +
STACK CFI INIT 15360 4 .cfa: sp 0 +
STACK CFI INIT 15364 4 .cfa: sp 0 +
STACK CFI INIT 15368 34 .cfa: sp 0 +
STACK CFI 1536c .cfa: sp 32 +
STACK CFI 15374 .cfa: x29 32 + x19: .cfa -16 + ^ .ra: .cfa -24 + ^ x29: .cfa -32 + ^
STACK CFI 15390 .cfa: sp 32 +
STACK CFI 15398 .cfa: sp 0 +
STACK CFI INIT 1539c 14 .cfa: sp 0 +
STACK CFI INIT 153b0 4 .cfa: sp 0 +
STACK CFI INIT 153b4 4 .cfa: sp 0 +
STACK CFI INIT 153b8 10 .cfa: sp 0 +
STACK CFI INIT 153c8 1c .cfa: sp 0 +
STACK CFI INIT 153e4 c .cfa: sp 0 +
STACK CFI INIT 15564 4 .cfa: sp 0 +
STACK CFI INIT 15708 5c .cfa: sp 0 +
STACK CFI 1570c .cfa: sp 32 +
STACK CFI 15714 .cfa: x29 32 + x19: .cfa -16 + ^ .ra: .cfa -24 + ^ x29: .cfa -32 + ^
STACK CFI 15758 .cfa: sp 32 +
STACK CFI 15760 .cfa: sp 0 +
STACK CFI INIT 15764 64 .cfa: sp 0 +
STACK CFI 15768 .cfa: sp 32 +
STACK CFI 15770 .cfa: x29 32 + x19: .cfa -16 + ^ .ra: .cfa -24 + ^ x29: .cfa -32 + ^
STACK CFI 157bc .cfa: sp 32 +
STACK CFI 157c4 .cfa: sp 0 +
STACK CFI INIT 157c8 4 .cfa: sp 0 +
STACK CFI INIT 157cc 4 .cfa: sp 0 +
STACK CFI INIT 157d0 34 .cfa: sp 0 +
STACK CFI 157d4 .cfa: sp 32 +
STACK CFI 157dc .cfa: x29 32 + x19: .cfa -16 + ^ .ra: .cfa -24 + ^ x29: .cfa -32 + ^
STACK CFI 157f8 .cfa: sp 32 +
STACK CFI 15800 .cfa: sp 0 +
STACK CFI INIT 15804 14 .cfa: sp 0 +
STACK CFI INIT 15818 4 .cfa: sp 0 +
STACK CFI INIT 1581c 4 .cfa: sp 0 +
STACK CFI INIT 15820 10 .cfa: sp 0 +
STACK CFI INIT 15830 1c .cfa: sp 0 +
STACK CFI INIT 1584c c .cfa: sp 0 +
STACK CFI INIT 15858 30 .cfa: sp 0 +
STACK CFI 1585c .cfa: sp 32 +
STACK CFI 15864 .cfa: x29 32 + x19: .cfa -16 + ^ .ra: .cfa -24 + ^ x29: .cfa -32 + ^
STACK CFI 1587c .cfa: sp 32 +
STACK CFI 15884 .cfa: sp 0 +
STACK CFI INIT 15888 4 .cfa: sp 0 +
STACK CFI INIT 15a2c 5c .cfa: sp 0 +
STACK CFI 15a30 .cfa: sp 32 +
STACK CFI 15a38 .cfa: x29 32 + x19: .cfa -16 + ^ .ra: .cfa -24 + ^ x29: .cfa -32 + ^
STACK CFI 15a7c .cfa: sp 32 +
STACK CFI 15a84 .cfa: sp 0 +
STACK CFI INIT 15a88 64 .cfa: sp 0 +
STACK CFI 15a8c .cfa: sp 32 +
STACK CFI 15a94 .cfa: x29 32 + x19: .cfa -16 + ^ .ra: .cfa -24 + ^ x29: .cfa -32 + ^
STACK CFI 15ae0 .cfa: sp 32 +
STACK CFI 15ae8 .cfa: sp 0 +
STACK CFI INIT 15aec 4 .cfa: sp 0 +
STACK CFI INIT 15af0 4 .cfa: sp 0 +
STACK CFI INIT 15af4 34 .cfa: sp 0 +
STACK CFI 15af8 .cfa: sp 32 +
STACK CFI 15b00 .cfa: x29 32 + x19: .cfa -16 + ^ .ra: .cfa -24 + ^ x29: .cfa -32 + ^
STACK CFI 15b1c .cfa: sp 32 +
STACK CFI 15b24 .cfa: sp 0 +
STACK CFI INIT 15b28 14 .cfa: sp 0 +
STACK CFI INIT 15b3c 4 .cfa: sp 0 +
STACK CFI INIT 15b40 4 .cfa: sp 0 +
STACK CFI INIT 15b44 10 .cfa: sp 0 +
STACK CFI INIT 15b54 1c .cfa: sp 0 +
STACK CFI INIT 15b70 c .cfa: sp 0 +
STACK CFI INIT 15b7c b0 .cfa: sp 0 +
STACK CFI 15b80 .cfa: sp 80 +
STACK CFI 15b90 .cfa: x29 48 + x19: .cfa -8 + ^ x20: .cfa -16 + ^ x21: .cfa -32 + ^ .ra: .cfa -40 + ^ x29: .cfa -48 + ^
STACK CFI 15c14 .cfa: sp 80 +
STACK CFI 15c24 .cfa: sp 0 +
STACK CFI 15c28 .cfa: x29 48 +
STACK CFI INIT 15c2c 4 .cfa: sp 0 +
STACK CFI INIT 15dd0 5c .cfa: sp 0 +
STACK CFI 15dd4 .cfa: sp 32 +
STACK CFI 15ddc .cfa: x29 32 + x19: .cfa -16 + ^ .ra: .cfa -24 + ^ x29: .cfa -32 + ^
STACK CFI 15e20 .cfa: sp 32 +
STACK CFI 15e28 .cfa: sp 0 +
STACK CFI INIT 15e2c 64 .cfa: sp 0 +
STACK CFI 15e30 .cfa: sp 32 +
STACK CFI 15e38 .cfa: x29 32 + x19: .cfa -16 + ^ .ra: .cfa -24 + ^ x29: .cfa -32 + ^
STACK CFI 15e84 .cfa: sp 32 +
STACK CFI 15e8c .cfa: sp 0 +
STACK CFI INIT 15e90 4 .cfa: sp 0 +
STACK CFI INIT 15e94 4 .cfa: sp 0 +
STACK CFI INIT 15e98 34 .cfa: sp 0 +
STACK CFI 15e9c .cfa: sp 32 +
STACK CFI 15ea4 .cfa: x29 32 + x19: .cfa -16 + ^ .ra: .cfa -24 + ^ x29: .cfa -32 + ^
STACK CFI 15ec0 .cfa: sp 32 +
STACK CFI 15ec8 .cfa: sp 0 +
STACK CFI INIT 15ecc 14 .cfa: sp 0 +
STACK CFI INIT 15ee0 4 .cfa: sp 0 +
STACK CFI INIT 15ee4 4 .cfa: sp 0 +
STACK CFI INIT 15ee8 10 .cfa: sp 0 +
STACK CFI INIT 15ef8 1c .cfa: sp 0 +
STACK CFI INIT 15f14 c .cfa: sp 0 +
STACK CFI INIT 15f20 b0 .cfa: sp 0 +
STACK CFI 15f24 .cfa: sp 80 +
STACK CFI 15f34 .cfa: x29 48 + x19: .cfa -8 + ^ x20: .cfa -16 + ^ x21: .cfa -32 + ^ .ra: .cfa -40 + ^ x29: .cfa -48 + ^
STACK CFI 15fb8 .cfa: sp 80 +
STACK CFI 15fc8 .cfa: sp 0 +
STACK CFI 15fcc .cfa: x29 48 +
STACK CFI INIT 15fd0 4 .cfa: sp 0 +
STACK CFI INIT 16174 5c .cfa: sp 0 +
STACK CFI 16178 .cfa: sp 32 +
STACK CFI 16180 .cfa: x29 32 + x19: .cfa -16 + ^ .ra: .cfa -24 + ^ x29: .cfa -32 + ^
STACK CFI 161c4 .cfa: sp 32 +
STACK CFI 161cc .cfa: sp 0 +
STACK CFI INIT 161d0 64 .cfa: sp 0 +
STACK CFI 161d4 .cfa: sp 32 +
STACK CFI 161dc .cfa: x29 32 + x19: .cfa -16 + ^ .ra: .cfa -24 + ^ x29: .cfa -32 + ^
STACK CFI 16228 .cfa: sp 32 +
STACK CFI 16230 .cfa: sp 0 +
STACK CFI INIT 16234 4 .cfa: sp 0 +
STACK CFI INIT 16238 4 .cfa: sp 0 +
STACK CFI INIT 1623c 34 .cfa: sp 0 +
STACK CFI 16240 .cfa: sp 32 +
STACK CFI 16248 .cfa: x29 32 + x19: .cfa -16 + ^ .ra: .cfa -24 + ^ x29: .cfa -32 + ^
STACK CFI 16264 .cfa: sp 32 +
STACK CFI 1626c .cfa: sp 0 +
STACK CFI INIT 16270 14 .cfa: sp 0 +
STACK CFI INIT 16284 4 .cfa: sp 0 +
STACK CFI INIT 16288 4 .cfa: sp 0 +
STACK CFI INIT 1628c 10 .cfa: sp 0 +
STACK CFI INIT 1629c 1c .cfa: sp 0 +
STACK CFI INIT 162b8 c .cfa: sp 0 +
STACK CFI INIT 16414 4 .cfa: sp 0 +
STACK CFI INIT 165b8 5c .cfa: sp 0 +
STACK CFI 165bc .cfa: sp 32 +
STACK CFI 165c4 .cfa: x29 32 + x19: .cfa -16 + ^ .ra: .cfa -24 + ^ x29: .cfa -32 + ^
STACK CFI 16608 .cfa: sp 32 +
STACK CFI 16610 .cfa: sp 0 +
STACK CFI INIT 16614 64 .cfa: sp 0 +
STACK CFI 16618 .cfa: sp 32 +
STACK CFI 16620 .cfa: x29 32 + x19: .cfa -16 + ^ .ra: .cfa -24 + ^ x29: .cfa -32 + ^
STACK CFI 1666c .cfa: sp 32 +
STACK CFI 16674 .cfa: sp 0 +
STACK CFI INIT 16678 4 .cfa: sp 0 +
STACK CFI INIT 1667c 4 .cfa: sp 0 +
STACK CFI INIT 16680 34 .cfa: sp 0 +
STACK CFI 16684 .cfa: sp 32 +
STACK CFI 1668c .cfa: x29 32 + x19: .cfa -16 + ^ .ra: .cfa -24 + ^ x29: .cfa -32 + ^
STACK CFI 166a8 .cfa: sp 32 +
STACK CFI 166b0 .cfa: sp 0 +
STACK CFI INIT 166b4 14 .cfa: sp 0 +
STACK CFI INIT 166c8 4 .cfa: sp 0 +
STACK CFI INIT 166cc 4 .cfa: sp 0 +
STACK CFI INIT 166d0 10 .cfa: sp 0 +
STACK CFI INIT 166e0 1c .cfa: sp 0 +
STACK CFI INIT 166fc c .cfa: sp 0 +
STACK CFI INIT 16708 4 .cfa: sp 0 +
STACK CFI INIT 16880 5c .cfa: sp 0 +
STACK CFI 16884 .cfa: sp 32 +
STACK CFI 1688c .cfa: x29 32 + x19: .cfa -16 + ^ .ra: .cfa -24 + ^ x29: .cfa -32 + ^
STACK CFI 168d0 .cfa: sp 32 +
STACK CFI 168d8 .cfa: sp 0 +
STACK CFI INIT 168dc 64 .cfa: sp 0 +
STACK CFI 168e0 .cfa: sp 32 +
STACK CFI 168e8 .cfa: x29 32 + x19: .cfa -16 + ^ .ra: .cfa -24 + ^ x29: .cfa -32 + ^
STACK CFI 16934 .cfa: sp 32 +
STACK CFI 1693c .cfa: sp 0 +
STACK CFI INIT 16940 4 .cfa: sp 0 +
STACK CFI INIT 16944 4 .cfa: sp 0 +
STACK CFI INIT 16948 34 .cfa: sp 0 +
STACK CFI 1694c .cfa: sp 32 +
STACK CFI 16954 .cfa: x29 32 + x19: .cfa -16 + ^ .ra: .cfa -24 + ^ x29: .cfa -32 + ^
STACK CFI 16970 .cfa: sp 32 +
STACK CFI 16978 .cfa: sp 0 +
STACK CFI INIT 1697c 14 .cfa: sp 0 +
STACK CFI INIT 16990 4 .cfa: sp 0 +
STACK CFI INIT 16994 4 .cfa: sp 0 +
STACK CFI INIT 16998 10 .cfa: sp 0 +
STACK CFI INIT 169a8 1c .cfa: sp 0 +
STACK CFI INIT 169c4 c .cfa: sp 0 +
STACK CFI INIT 172ac 18 .cfa: sp 0 +
STACK CFI INIT 1774c 50 .cfa: sp 0 +
STACK CFI 17750 .cfa: sp 32 +
STACK CFI 17758 .cfa: x29 32 + x19: .cfa -16 + ^ .ra: .cfa -24 + ^ x29: .cfa -32 + ^
STACK CFI 17770 .cfa: sp 32 +
STACK CFI 17778 .cfa: sp 0 +
STACK CFI 1777c .cfa: x29 32 +
STACK CFI 17790 .cfa: sp 32 +
STACK CFI 17798 .cfa: sp 0 +
STACK CFI INIT 17810 7c .cfa: sp 0 +
STACK CFI 17814 .cfa: sp 48 +
STACK CFI 17820 .cfa: x29 48 + x19: .cfa -8 + ^ x20: .cfa -16 + ^ x21: .cfa -32 + ^ .ra: .cfa -40 + ^ x29: .cfa -48 + ^
STACK CFI 1786c .cfa: sp 48 +
STACK CFI 17878 .cfa: sp 0 +
STACK CFI 1787c .cfa: sp 48 +
STACK CFI 17888 .cfa: sp 0 +
STACK CFI INIT 1788c 4 .cfa: sp 0 +
STACK CFI INIT 17b10 80 .cfa: sp 0 +
STACK CFI 17b14 .cfa: sp 48 +
STACK CFI 17b20 .cfa: x29 48 + x19: .cfa -8 + ^ x20: .cfa -16 + ^ x21: .cfa -32 + ^ .ra: .cfa -40 + ^ x29: .cfa -48 + ^
STACK CFI 17b80 .cfa: sp 48 +
STACK CFI 17b8c .cfa: sp 0 +
STACK CFI INIT 17f10 34 .cfa: sp 0 +
STACK CFI 17f14 .cfa: sp 32 +
STACK CFI 17f1c .cfa: x29 32 + x19: .cfa -16 + ^ .ra: .cfa -24 + ^ x29: .cfa -32 + ^
STACK CFI INIT 180bc 148 .cfa: sp 0 +
STACK CFI 180c0 .cfa: sp 48 +
STACK CFI 180cc .cfa: x29 48 + x19: .cfa -8 + ^ x20: .cfa -16 + ^ x21: .cfa -32 + ^ .ra: .cfa -40 + ^ x29: .cfa -48 + ^
STACK CFI 181f4 .cfa: sp 48 +
STACK CFI 18200 .cfa: sp 0 +
STACK CFI INIT 18204 68 .cfa: sp 0 +
STACK CFI 18208 .cfa: sp 32 +
STACK CFI 18210 .cfa: x29 32 + x19: .cfa -8 + ^ x20: .cfa -16 + ^ .ra: .cfa -24 + ^ x29: .cfa -32 + ^
STACK CFI 18228 .cfa: sp 32 +
STACK CFI 18230 .cfa: sp 0 +
STACK CFI 18234 .cfa: x29 32 +
STACK CFI 18260 .cfa: sp 32 +
STACK CFI 18268 .cfa: sp 0 +
STACK CFI INIT 1826c 14 .cfa: sp 0 +
STACK CFI 18270 .cfa: sp 16 +
STACK CFI 18274 .cfa: x29 16 + .ra: .cfa -8 + ^ x29: .cfa -16 + ^
STACK CFI INIT 18280 4 .cfa: sp 0 +
STACK CFI INIT 18284 14 .cfa: sp 0 +
STACK CFI INIT 18298 84 .cfa: sp 0 +
STACK CFI 182a0 .cfa: sp 32 +
STACK CFI 182a8 .cfa: x29 32 + x19: .cfa -8 + ^ x20: .cfa -16 + ^ .ra: .cfa -24 + ^ x29: .cfa -32 + ^
STACK CFI 182e8 .cfa: sp 32 +
STACK CFI 182f0 .cfa: sp 0 +
STACK CFI 182f8 .cfa: x29 32 +
STACK CFI INIT 18ad0 50 .cfa: sp 0 +
STACK CFI 18ad4 .cfa: sp 32 +
STACK CFI 18adc .cfa: x29 32 + x19: .cfa -16 + ^ .ra: .cfa -24 + ^ x29: .cfa -32 + ^
STACK CFI 18af4 .cfa: sp 32 +
STACK CFI 18afc .cfa: sp 0 +
STACK CFI 18b00 .cfa: x29 32 +
STACK CFI 18b14 .cfa: sp 32 +
STACK CFI 18b1c .cfa: sp 0 +
STACK CFI INIT 18b20 64 .cfa: sp 0 +
STACK CFI 18b24 .cfa: sp 32 +
STACK CFI 18b2c .cfa: x29 32 + x19: .cfa -16 + ^ .ra: .cfa -24 + ^ x29: .cfa -32 + ^
STACK CFI 18b58 .cfa: sp 32 +
STACK CFI 18b60 .cfa: sp 0 +
STACK CFI 18b64 .cfa: x29 32 +
STACK CFI 18b78 .cfa: sp 32 +
STACK CFI 18b80 .cfa: sp 0 +
STACK CFI INIT 18b84 3c .cfa: sp 0 +
STACK CFI 18b88 .cfa: sp 32 +
STACK CFI 18b90 .cfa: x29 32 + x19: .cfa -16 + ^ .ra: .cfa -24 + ^ x29: .cfa -32 + ^
STACK CFI 18b9c .cfa: sp 32 +
STACK CFI 18ba4 .cfa: sp 0 +
STACK CFI 18ba8 .cfa: x29 32 +
STACK CFI 18bb4 .cfa: sp 32 +
STACK CFI 18bbc .cfa: sp 0 +
STACK CFI INIT 18bc0 4c .cfa: sp 0 +
STACK CFI 18bc4 .cfa: sp 32 +
STACK CFI 18bcc .cfa: x29 32 + x19: .cfa -8 + ^ x20: .cfa -16 + ^ .ra: .cfa -24 + ^ x29: .cfa -32 + ^
STACK CFI 18bf4 .cfa: sp 32 +
STACK CFI 18bfc .cfa: sp 0 +
STACK CFI 18c00 .cfa: sp 32 +
STACK CFI 18c08 .cfa: sp 0 +
STACK CFI INIT 18e2c 64 .cfa: sp 0 +
STACK CFI 18e30 .cfa: sp 32 +
STACK CFI 18e38 .cfa: x29 32 + x19: .cfa -16 + ^ .ra: .cfa -24 + ^ x29: .cfa -32 + ^
STACK CFI 18e64 .cfa: sp 32 +
STACK CFI 18e6c .cfa: sp 0 +
STACK CFI 18e70 .cfa: x29 32 +
STACK CFI 18e84 .cfa: sp 32 +
STACK CFI 18e8c .cfa: sp 0 +
STACK CFI INIT 18e90 24 .cfa: sp 0 +
STACK CFI 18e94 .cfa: sp 32 +
STACK CFI 18e9c .cfa: x29 32 + x19: .cfa -16 + ^ .ra: .cfa -24 + ^ x29: .cfa -32 + ^
STACK CFI 18ea8 .cfa: sp 32 +
STACK CFI 18eb0 .cfa: sp 0 +
STACK CFI INIT 19110 24 .cfa: sp 0 +
STACK CFI 19114 .cfa: sp 32 +
STACK CFI 1911c .cfa: x29 32 + x19: .cfa -16 + ^ .ra: .cfa -24 + ^ x29: .cfa -32 + ^
STACK CFI 19128 .cfa: sp 32 +
STACK CFI 19130 .cfa: sp 0 +
STACK CFI INIT 192a8 4 .cfa: sp 0 +
STACK CFI INIT 19cec 4 .cfa: sp 0 +
STACK CFI INIT 19cf0 14 .cfa: sp 0 +
STACK CFI INIT 1a210 c .cfa: sp 0 +
STACK CFI INIT 1a21c 24c .cfa: sp 0 +
STACK CFI INIT 1a468 a0 .cfa: sp 0 +
STACK CFI 1a474 .cfa: sp 32 +
STACK CFI 1a4cc .cfa: sp 0 +
STACK CFI 1a4d0 .cfa: sp 32 +
STACK CFI 1a4d8 .cfa: sp 0 +
STACK CFI 1a4dc .cfa: sp 32 +
STACK CFI 1a4f0 .cfa: sp 0 +
STACK CFI 1a4f4 .cfa: sp 32 +
STACK CFI 1a504 .cfa: sp 0 +
STACK CFI INIT 1a508 38 .cfa: sp 0 +
STACK CFI 1a514 .cfa: sp 32 +
STACK CFI 1a53c .cfa: sp 0 +
STACK CFI INIT 1a7d4 7c .cfa: sp 0 +
STACK CFI 1a7d8 .cfa: sp 32 +
STACK CFI 1a7e0 .cfa: x29 32 + x19: .cfa -16 + ^ .ra: .cfa -24 + ^ x29: .cfa -32 + ^
STACK CFI 1a80c .cfa: sp 32 +
STACK CFI 1a814 .cfa: sp 0 +
STACK CFI 1a818 .cfa: x29 32 +
STACK CFI 1a844 .cfa: sp 32 +
STACK CFI 1a84c .cfa: sp 0 +
STACK CFI INIT 1a8a0 2c .cfa: sp 0 +
STACK CFI 1a8a4 .cfa: sp 32 +
STACK CFI 1a8ac .cfa: x29 32 + x19: .cfa -16 + ^ .ra: .cfa -24 + ^ x29: .cfa -32 + ^
STACK CFI 1a8c0 .cfa: sp 32 +
STACK CFI 1a8c8 .cfa: sp 0 +
STACK CFI INIT 1b08c 64 .cfa: sp 0 +
STACK CFI 1b090 .cfa: sp 32 +
STACK CFI 1b098 .cfa: x29 32 + x19: .cfa -16 + ^ .ra: .cfa -24 + ^ x29: .cfa -32 + ^
STACK CFI 1b0b4 .cfa: sp 32 +
STACK CFI 1b0bc .cfa: sp 0 +
STACK CFI 1b0c0 .cfa: x29 32 +
STACK CFI 1b0e4 .cfa: sp 32 +
STACK CFI 1b0ec .cfa: sp 0 +
STACK CFI INIT 1b0f0 570 .cfa: sp 0 +
STACK CFI 1b0f4 .cfa: sp 176 +
STACK CFI 1b108 .cfa: x29 64 + x19: .cfa -8 + ^ x20: .cfa -16 + ^ x21: .cfa -24 + ^ x22: .cfa -32 + ^ x23: .cfa -40 + ^ x24: .cfa -48 + ^ .ra: .cfa -56 + ^ x29: .cfa -64 + ^
STACK CFI 1b338 .cfa: sp 176 +
STACK CFI 1b34c .cfa: sp 0 +
STACK CFI 1b350 .cfa: x29 64 +
STACK CFI 1b39c .cfa: sp 176 +
STACK CFI 1b3b0 .cfa: sp 0 +
STACK CFI 1b3b4 .cfa: x29 64 +
STACK CFI 1b3ec .cfa: sp 176 +
STACK CFI 1b400 .cfa: sp 0 +
STACK CFI 1b404 .cfa: x29 64 +
STACK CFI 1b41c .cfa: sp 176 +
STACK CFI 1b430 .cfa: sp 0 +
STACK CFI 1b434 .cfa: x29 64 +
STACK CFI 1b454 .cfa: sp 176 +
STACK CFI 1b468 .cfa: sp 0 +
STACK CFI 1b46c .cfa: x29 64 +
STACK CFI 1b484 .cfa: sp 176 +
STACK CFI 1b498 .cfa: sp 0 +
STACK CFI 1b49c .cfa: x29 64 +
STACK CFI 1b4b0 .cfa: sp 176 +
STACK CFI 1b4c4 .cfa: sp 0 +
STACK CFI 1b4c8 .cfa: x29 64 +
STACK CFI 1b4dc .cfa: sp 176 +
STACK CFI 1b4f0 .cfa: sp 0 +
STACK CFI 1b4f4 .cfa: x29 64 +
STACK CFI 1b504 .cfa: sp 176 +
STACK CFI 1b518 .cfa: sp 0 +
STACK CFI 1b51c .cfa: x29 64 +
STACK CFI 1b52c .cfa: sp 176 +
STACK CFI 1b540 .cfa: sp 0 +
STACK CFI 1b544 .cfa: x29 64 +
STACK CFI 1b55c .cfa: sp 176 +
STACK CFI 1b570 .cfa: sp 0 +
STACK CFI 1b574 .cfa: x29 64 +
STACK CFI 1b588 .cfa: sp 176 +
STACK CFI 1b59c .cfa: sp 0 +
STACK CFI 1b5a0 .cfa: x29 64 +
STACK CFI 1b5b8 .cfa: sp 176 +
STACK CFI 1b5cc .cfa: sp 0 +
STACK CFI 1b5d0 .cfa: x29 64 +
STACK CFI 1b5fc .cfa: sp 176 +
STACK CFI 1b610 .cfa: sp 0 +
STACK CFI 1b614 .cfa: x29 64 +
STACK CFI 1b628 .cfa: sp 176 +
STACK CFI 1b63c .cfa: sp 0 +
STACK CFI 1b640 .cfa: x29 64 +
STACK CFI INIT 1b660 228 .cfa: sp 0 +
STACK CFI INIT 1b888 2dc .cfa: sp 0 +
STACK CFI INIT 1bb64 53c .cfa: sp 0 +
STACK CFI INIT 1c0a0 78 .cfa: sp 0 +
STACK CFI 1c0a4 .cfa: sp 48 +
STACK CFI 1c0b0 .cfa: x29 48 + x19: .cfa -8 + ^ x20: .cfa -16 + ^ x21: .cfa -24 + ^ x22: .cfa -32 + ^ .ra: .cfa -40 + ^ x29: .cfa -48 + ^
STACK CFI 1c0f8 .cfa: sp 48 +
STACK CFI 1c104 .cfa: sp 0 +
STACK CFI 1c108 .cfa: sp 48 +
STACK CFI 1c114 .cfa: sp 0 +
STACK CFI INIT 1c118 8c .cfa: sp 0 +
STACK CFI 1c11c .cfa: sp 32 +
STACK CFI 1c124 .cfa: x29 32 + x19: .cfa -16 + ^ .ra: .cfa -24 + ^ x29: .cfa -32 + ^
STACK CFI 1c158 .cfa: sp 32 +
STACK CFI 1c160 .cfa: sp 0 +
STACK CFI 1c164 .cfa: x29 32 +
STACK CFI 1c198 .cfa: sp 32 +
STACK CFI 1c1a0 .cfa: sp 0 +
STACK CFI INIT 1c1a4 24 .cfa: sp 0 +
STACK CFI 1c1a8 .cfa: sp 32 +
STACK CFI 1c1b0 .cfa: x29 32 + x19: .cfa -16 + ^ .ra: .cfa -24 + ^ x29: .cfa -32 + ^
STACK CFI 1c1bc .cfa: sp 32 +
STACK CFI 1c1c4 .cfa: sp 0 +
STACK CFI INIT 1c1c8 150 .cfa: sp 0 +
STACK CFI 1c1cc .cfa: sp 48 +
STACK CFI 1c1d8 .cfa: x29 48 + x19: .cfa -8 + ^ x20: .cfa -16 + ^ x21: .cfa -24 + ^ x22: .cfa -32 + ^ .ra: .cfa -40 + ^ x29: .cfa -48 + ^
STACK CFI 1c308 .cfa: sp 48 +
STACK CFI 1c314 .cfa: sp 0 +
STACK CFI INIT 1c318 68 .cfa: sp 0 +
STACK CFI 1c31c .cfa: sp 64 +
STACK CFI 1c328 .cfa: x29 32 + x19: .cfa -16 + ^ .ra: .cfa -24 + ^ x29: .cfa -32 + ^
STACK CFI 1c36c .cfa: sp 64 +
STACK CFI 1c378 .cfa: sp 0 +
STACK CFI 1c37c .cfa: x29 32 +
STACK CFI INIT 1c380 90 .cfa: sp 0 +
STACK CFI 1c384 .cfa: sp 32 +
STACK CFI 1c38c .cfa: x29 32 + x19: .cfa -8 + ^ x20: .cfa -16 + ^ .ra: .cfa -24 + ^ x29: .cfa -32 + ^
STACK CFI 1c3b8 .cfa: sp 32 +
STACK CFI 1c3c0 .cfa: sp 0 +
STACK CFI 1c3c4 .cfa: x29 32 +
STACK CFI 1c404 .cfa: sp 32 +
STACK CFI 1c40c .cfa: sp 0 +
STACK CFI INIT 1c410 ec .cfa: sp 0 +
STACK CFI 1c414 .cfa: sp 112 +
STACK CFI 1c424 .cfa: x29 48 + x19: .cfa -8 + ^ x20: .cfa -16 + ^ x21: .cfa -32 + ^ .ra: .cfa -40 + ^ x29: .cfa -48 + ^
STACK CFI 1c4e4 .cfa: sp 112 +
STACK CFI 1c4f4 .cfa: sp 0 +
STACK CFI 1c4f8 .cfa: x29 48 +
STACK CFI INIT 1c4fc ec .cfa: sp 0 +
STACK CFI 1c500 .cfa: sp 112 +
STACK CFI 1c510 .cfa: x29 48 + x19: .cfa -8 + ^ x20: .cfa -16 + ^ x21: .cfa -32 + ^ .ra: .cfa -40 + ^ x29: .cfa -48 + ^
STACK CFI 1c5d0 .cfa: sp 112 +
STACK CFI 1c5e0 .cfa: sp 0 +
STACK CFI 1c5e4 .cfa: x29 48 +
STACK CFI INIT 1c5e8 48 .cfa: sp 0 +
STACK CFI 1c5ec .cfa: sp 32 +
STACK CFI 1c5f4 .cfa: x29 32 + x19: .cfa -8 + ^ x20: .cfa -16 + ^ .ra: .cfa -24 + ^ x29: .cfa -32 + ^
STACK CFI 1c618 .cfa: sp 32 +
STACK CFI 1c620 .cfa: sp 0 +
STACK CFI 1c624 .cfa: x29 32 +
STACK CFI INIT 1c630 98 .cfa: sp 0 +
STACK CFI 1c634 .cfa: sp 80 +
STACK CFI 1c640 .cfa: x29 32 + x19: .cfa -16 + ^ .ra: .cfa -24 + ^ x29: .cfa -32 + ^
STACK CFI 1c6b4 .cfa: sp 80 +
STACK CFI 1c6c0 .cfa: sp 0 +
STACK CFI 1c6c4 .cfa: x29 32 +
STACK CFI INIT 1c6c8 260 .cfa: sp 0 +
STACK CFI 1c6cc .cfa: sp 112 +
STACK CFI 1c6e4 .cfa: x29 80 + x19: .cfa -8 + ^ x20: .cfa -16 + ^ x21: .cfa -24 + ^ x22: .cfa -32 + ^ x23: .cfa -40 + ^ x24: .cfa -48 + ^ x25: .cfa -64 + ^ .ra: .cfa -72 + ^ x29: .cfa -80 + ^
STACK CFI 1c8c8 .cfa: sp 112 +
STACK CFI 1c8e0 .cfa: sp 0 +
STACK CFI 1c8e4 .cfa: x29 80 +
STACK CFI INIT 1c928 150 .cfa: sp 0 +
STACK CFI 1c92c .cfa: sp 48 +
STACK CFI 1c938 .cfa: x29 48 + x19: .cfa -8 + ^ x20: .cfa -16 + ^ x21: .cfa -24 + ^ x22: .cfa -32 + ^ .ra: .cfa -40 + ^ x29: .cfa -48 + ^
STACK CFI 1ca68 .cfa: sp 48 +
STACK CFI 1ca74 .cfa: sp 0 +
STACK CFI INIT 1ca78 1e0 .cfa: sp 0 +
STACK CFI 1ca7c .cfa: sp 96 +
STACK CFI 1ca90 .cfa: x29 64 + x19: .cfa -8 + ^ x20: .cfa -16 + ^ x21: .cfa -24 + ^ x22: .cfa -32 + ^ x23: .cfa -40 + ^ x24: .cfa -48 + ^ .ra: .cfa -56 + ^ x29: .cfa -64 + ^
STACK CFI 1cc10 .cfa: sp 96 +
STACK CFI 1cc24 .cfa: sp 0 +
STACK CFI 1cc28 .cfa: x29 64 +
STACK CFI INIT 1cc58 284 .cfa: sp 0 +
STACK CFI 1cc5c .cfa: sp 112 +
STACK CFI 1cc74 .cfa: x29 80 + x19: .cfa -8 + ^ x20: .cfa -16 + ^ x21: .cfa -24 + ^ x22: .cfa -32 + ^ x23: .cfa -40 + ^ x24: .cfa -48 + ^ x25: .cfa -64 + ^ .ra: .cfa -72 + ^ x29: .cfa -80 + ^
STACK CFI 1ce7c .cfa: sp 112 +
STACK CFI 1ce94 .cfa: sp 0 +
STACK CFI 1ce98 .cfa: x29 80 +
STACK CFI INIT 1cedc 208 .cfa: sp 0 +
STACK CFI 1cee0 .cfa: sp 96 +
STACK CFI 1cef4 .cfa: x29 64 + x19: .cfa -8 + ^ x20: .cfa -16 + ^ x21: .cfa -24 + ^ x22: .cfa -32 + ^ x23: .cfa -40 + ^ x24: .cfa -48 + ^ .ra: .cfa -56 + ^ x29: .cfa -64 + ^
STACK CFI 1d09c .cfa: sp 96 +
STACK CFI 1d0b0 .cfa: sp 0 +
STACK CFI 1d0b4 .cfa: x29 64 +
STACK CFI INIT 1d0e4 360 .cfa: sp 0 +
STACK CFI 1d0e8 .cfa: sp 160 +
STACK CFI 1d104 .cfa: x29 96 + x19: .cfa -8 + ^ x20: .cfa -16 + ^ x21: .cfa -24 + ^ x22: .cfa -32 + ^ x23: .cfa -40 + ^ x24: .cfa -48 + ^ x25: .cfa -56 + ^ x26: .cfa -64 + ^ x27: .cfa -72 + ^ x28: .cfa -80 + ^ .ra: .cfa -88 + ^ x29: .cfa -96 + ^
STACK CFI 1d3d0 .cfa: sp 160 +
STACK CFI 1d3ec .cfa: sp 0 +
STACK CFI 1d3f0 .cfa: x29 96 +
STACK CFI INIT 1d444 314 .cfa: sp 0 +
STACK CFI 1d448 .cfa: sp 144 +
STACK CFI 1d464 .cfa: x29 96 + x19: .cfa -8 + ^ x20: .cfa -16 + ^ x21: .cfa -24 + ^ x22: .cfa -32 + ^ x23: .cfa -40 + ^ x24: .cfa -48 + ^ x25: .cfa -56 + ^ x26: .cfa -64 + ^ x27: .cfa -72 + ^ x28: .cfa -80 + ^ .ra: .cfa -88 + ^ x29: .cfa -96 + ^
STACK CFI 1d6e0 .cfa: sp 144 +
STACK CFI 1d6fc .cfa: sp 0 +
STACK CFI 1d700 .cfa: x29 96 +
STACK CFI INIT 1d758 290 .cfa: sp 0 +
STACK CFI 1d75c .cfa: sp 128 +
STACK CFI 1d774 .cfa: x29 80 + x19: .cfa -8 + ^ x20: .cfa -16 + ^ x21: .cfa -24 + ^ x22: .cfa -32 + ^ x23: .cfa -40 + ^ x24: .cfa -48 + ^ x25: .cfa -56 + ^ x26: .cfa -64 + ^ .ra: .cfa -72 + ^ x29: .cfa -80 + ^
STACK CFI 1d9c8 .cfa: sp 128 +
STACK CFI 1d9e0 .cfa: sp 0 +
STACK CFI 1d9e4 .cfa: x29 80 +
STACK CFI INIT 1d9e8 ddc .cfa: sp 0 +
STACK CFI 1d9ec .cfa: sp 144 +
STACK CFI 1da08 .cfa: x29 96 + x19: .cfa -8 + ^ x20: .cfa -16 + ^ x21: .cfa -24 + ^ x22: .cfa -32 + ^ x23: .cfa -40 + ^ x24: .cfa -48 + ^ x25: .cfa -56 + ^ x26: .cfa -64 + ^ x27: .cfa -72 + ^ x28: .cfa -80 + ^ .ra: .cfa -88 + ^ x29: .cfa -96 + ^
STACK CFI 1e69c .cfa: sp 144 +
STACK CFI 1e6b8 .cfa: sp 0 +
STACK CFI 1e6bc .cfa: x29 96 +
STACK CFI INIT 1e7c4 1d0 .cfa: sp 0 +
STACK CFI 1e7c8 .cfa: sp 80 +
STACK CFI 1e7dc .cfa: x29 80 + x19: .cfa -8 + ^ x20: .cfa -16 + ^ x21: .cfa -24 + ^ x22: .cfa -32 + ^ x23: .cfa -40 + ^ x24: .cfa -48 + ^ x25: .cfa -64 + ^ .ra: .cfa -72 + ^ x29: .cfa -80 + ^
STACK CFI 1e97c .cfa: sp 80 +
STACK CFI 1e990 .cfa: sp 0 +
STACK CFI INIT 1e994 23c .cfa: sp 0 +
STACK CFI 1e998 .cfa: sp 112 +
STACK CFI 1e9ac .cfa: x29 64 + x19: .cfa -8 + ^ x20: .cfa -16 + ^ x21: .cfa -24 + ^ x22: .cfa -32 + ^ x23: .cfa -40 + ^ x24: .cfa -48 + ^ .ra: .cfa -56 + ^ x29: .cfa -64 + ^
STACK CFI 1eb88 .cfa: sp 112 +
STACK CFI 1eb9c .cfa: sp 0 +
STACK CFI 1eba0 .cfa: x29 64 +
STACK CFI INIT 1ebd0 30c .cfa: sp 0 +
STACK CFI 1ebd4 .cfa: sp 80 +
STACK CFI 1ebe8 .cfa: x29 64 + x19: .cfa -8 + ^ x20: .cfa -16 + ^ x21: .cfa -24 + ^ x22: .cfa -32 + ^ x23: .cfa -40 + ^ x24: .cfa -48 + ^ .ra: .cfa -56 + ^ x29: .cfa -64 + ^
STACK CFI 1ed64 .cfa: sp 80 +
STACK CFI 1ed78 .cfa: sp 0 +
STACK CFI 1ed7c .cfa: x29 64 +
STACK CFI INIT 1eedc 178 .cfa: sp 0 +
STACK CFI 1eee0 .cfa: sp 80 +
STACK CFI 1eef4 .cfa: x29 64 + x19: .cfa -8 + ^ x20: .cfa -16 + ^ x21: .cfa -24 + ^ x22: .cfa -32 + ^ x23: .cfa -40 + ^ x24: .cfa -48 + ^ .ra: .cfa -56 + ^ x29: .cfa -64 + ^
STACK CFI 1f038 .cfa: sp 80 +
STACK CFI 1f04c .cfa: sp 0 +
STACK CFI 1f050 .cfa: x29 64 +
STACK CFI INIT 1f054 178 .cfa: sp 0 +
STACK CFI 1f058 .cfa: sp 80 +
STACK CFI 1f06c .cfa: x29 64 + x19: .cfa -8 + ^ x20: .cfa -16 + ^ x21: .cfa -24 + ^ x22: .cfa -32 + ^ x23: .cfa -40 + ^ x24: .cfa -48 + ^ .ra: .cfa -56 + ^ x29: .cfa -64 + ^
STACK CFI 1f1b0 .cfa: sp 80 +
STACK CFI 1f1c4 .cfa: sp 0 +
STACK CFI 1f1c8 .cfa: x29 64 +
STACK CFI INIT 1f1cc 240 .cfa: sp 0 +
STACK CFI 1f1d0 .cfa: sp 96 +
STACK CFI 1f1e8 .cfa: x29 96 + x19: .cfa -8 + ^ x20: .cfa -16 + ^ x21: .cfa -24 + ^ x22: .cfa -32 + ^ x23: .cfa -40 + ^ x24: .cfa -48 + ^ x25: .cfa -56 + ^ x26: .cfa -64 + ^ x27: .cfa -72 + ^ x28: .cfa -80 + ^ .ra: .cfa -88 + ^ x29: .cfa -96 + ^
STACK CFI 1f3f0 .cfa: sp 96 +
STACK CFI 1f408 .cfa: sp 0 +
STACK CFI INIT 20080 154 .cfa: sp 0 +
STACK CFI 20084 .cfa: sp 96 +
STACK CFI 20098 .cfa: x29 64 + x19: .cfa -8 + ^ x20: .cfa -16 + ^ x21: .cfa -24 + ^ x22: .cfa -32 + ^ x23: .cfa -48 + ^ .ra: .cfa -56 + ^ x29: .cfa -64 + ^
STACK CFI 20178 .cfa: sp 96 +
STACK CFI 2018c .cfa: sp 0 +
STACK CFI 20190 .cfa: x29 64 +
STACK CFI INIT 20440 44 .cfa: sp 0 +
STACK CFI 20444 .cfa: sp 32 +
STACK CFI 2044c .cfa: x29 32 + x19: .cfa -16 + ^ .ra: .cfa -24 + ^ x29: .cfa -32 + ^
STACK CFI 20468 .cfa: sp 32 +
STACK CFI 20470 .cfa: sp 0 +
STACK CFI 20474 .cfa: x29 32 +
STACK CFI 20478 .cfa: sp 32 +
STACK CFI 20480 .cfa: sp 0 +
STACK CFI INIT 20484 1d0 .cfa: sp 0 +
STACK CFI 20488 .cfa: sp 64 +
STACK CFI 20498 .cfa: x29 64 + x19: .cfa -8 + ^ x20: .cfa -16 + ^ x21: .cfa -24 + ^ x22: .cfa -32 + ^ x23: .cfa -40 + ^ x24: .cfa -48 + ^ .ra: .cfa -56 + ^ x29: .cfa -64 + ^
STACK CFI 20558 .cfa: sp 64 +
STACK CFI 20568 .cfa: sp 0 +
STACK CFI 2056c .cfa: x29 64 +
STACK CFI INIT 20654 17c .cfa: sp 0 +
STACK CFI INIT 20b88 a0 .cfa: sp 0 +
STACK CFI 20b8c .cfa: sp 48 +
STACK CFI 20b98 .cfa: x29 48 + x19: .cfa -8 + ^ x20: .cfa -16 + ^ x21: .cfa -24 + ^ x22: .cfa -32 + ^ .ra: .cfa -40 + ^ x29: .cfa -48 + ^
STACK CFI 20c04 .cfa: sp 48 +
STACK CFI 20c10 .cfa: sp 0 +
STACK CFI 20c14 .cfa: sp 48 +
STACK CFI 20c20 .cfa: sp 0 +
STACK CFI 20c24 .cfa: x29 48 +
STACK CFI INIT 218dc 158 .cfa: sp 0 +
STACK CFI 218e0 .cfa: sp 96 +
STACK CFI 218f4 .cfa: x29 64 + x19: .cfa -8 + ^ x20: .cfa -16 + ^ x21: .cfa -24 + ^ x22: .cfa -32 + ^ x23: .cfa -48 + ^ .ra: .cfa -56 + ^ x29: .cfa -64 + ^
STACK CFI 219d8 .cfa: sp 96 +
STACK CFI 219ec .cfa: sp 0 +
STACK CFI 219f0 .cfa: x29 64 +
STACK CFI INIT 21a34 190 .cfa: sp 0 +
STACK CFI INIT 226c0 1dc .cfa: sp 0 +
STACK CFI 226c4 .cfa: sp 80 +
STACK CFI 226d8 .cfa: x29 80 + x19: .cfa -8 + ^ x20: .cfa -16 + ^ x21: .cfa -24 + ^ x22: .cfa -32 + ^ x23: .cfa -40 + ^ x24: .cfa -48 + ^ x25: .cfa -64 + ^ .ra: .cfa -72 + ^ x29: .cfa -80 + ^
STACK CFI 22884 .cfa: sp 80 +
STACK CFI 22898 .cfa: sp 0 +
STACK CFI INIT 23ccc 124 .cfa: sp 0 +
STACK CFI 23cfc .cfa: sp 32 +
STACK CFI 23d04 .cfa: x29 32 + x19: .cfa -8 + ^ x20: .cfa -16 + ^ .ra: .cfa -24 + ^ x29: .cfa -32 + ^
STACK CFI 23de4 .cfa: sp 32 +
STACK CFI 23dec .cfa: sp 0 +
STACK CFI INIT 2454c 320 .cfa: sp 0 +
STACK CFI 24550 .cfa: sp 64 +
STACK CFI 24560 .cfa: x29 64 + x19: .cfa -8 + ^ x20: .cfa -16 + ^ x21: .cfa -24 + ^ x22: .cfa -32 + ^ x23: .cfa -40 + ^ x24: .cfa -48 + ^ .ra: .cfa -56 + ^ x29: .cfa -64 + ^
STACK CFI 245dc .cfa: sp 64 +
STACK CFI 245ec .cfa: sp 0 +
STACK CFI 245f0 .cfa: x29 64 +
STACK CFI 247c4 .cfa: sp 64 +
STACK CFI 247d4 .cfa: sp 0 +
STACK CFI 247d8 .cfa: x29 64 +
STACK CFI 247e8 .cfa: sp 64 +
STACK CFI 247f8 .cfa: sp 0 +
STACK CFI 247fc .cfa: x29 64 +
STACK CFI INIT 2486c a0 .cfa: sp 0 +
STACK CFI 24870 .cfa: sp 48 +
STACK CFI 2487c .cfa: x29 48 + x19: .cfa -8 + ^ x20: .cfa -16 + ^ x21: .cfa -24 + ^ x22: .cfa -32 + ^ .ra: .cfa -40 + ^ x29: .cfa -48 + ^
STACK CFI 248e8 .cfa: sp 48 +
STACK CFI 248f4 .cfa: sp 0 +
STACK CFI 248f8 .cfa: sp 48 +
STACK CFI 24904 .cfa: sp 0 +
STACK CFI 24908 .cfa: x29 48 +
STACK CFI INIT 257bc 160 .cfa: sp 0 +
STACK CFI 257c0 .cfa: sp 64 +
STACK CFI 257d0 .cfa: x29 64 + x19: .cfa -8 + ^ x20: .cfa -16 + ^ x21: .cfa -24 + ^ x22: .cfa -32 + ^ x23: .cfa -48 + ^ .ra: .cfa -56 + ^ x29: .cfa -64 + ^
STACK CFI 258c8 .cfa: sp 64 +
STACK CFI 258d8 .cfa: sp 0 +
STACK CFI 258dc .cfa: x29 64 +
STACK CFI INIT 2591c 214 .cfa: sp 0 +
STACK CFI 25920 .cfa: sp 128 +
STACK CFI 2593c .cfa: x29 96 + x19: .cfa -8 + ^ x20: .cfa -16 + ^ x21: .cfa -24 + ^ x22: .cfa -32 + ^ x23: .cfa -40 + ^ x24: .cfa -48 + ^ x25: .cfa -56 + ^ x26: .cfa -64 + ^ x27: .cfa -80 + ^ .ra: .cfa -88 + ^ x29: .cfa -96 + ^
STACK CFI 25ab8 .cfa: sp 128 +
STACK CFI 25ad4 .cfa: sp 0 +
STACK CFI 25ad8 .cfa: x29 96 +
STACK CFI INIT 277cc 290 .cfa: sp 0 +
STACK CFI 277d0 .cfa: sp 16 +
STACK CFI 277d4 .cfa: x29 16 + .ra: .cfa -8 + ^ x29: .cfa -16 + ^
STACK CFI 27860 .cfa: sp 16 +
STACK CFI 27864 .cfa: sp 0 +
STACK CFI 27868 .cfa: x29 16 +
STACK CFI 278b8 .cfa: sp 16 +
STACK CFI 278bc .cfa: sp 0 +
STACK CFI 278c0 .cfa: x29 16 +
STACK CFI 27a24 .cfa: sp 16 +
STACK CFI 27a28 .cfa: sp 0 +
STACK CFI 27a2c .cfa: x29 16 +
STACK CFI INIT 27a5c 158 .cfa: sp 0 +
STACK CFI 27a60 .cfa: sp 112 +
STACK CFI 27a7c .cfa: x29 96 + x19: .cfa -8 + ^ x20: .cfa -16 + ^ x21: .cfa -24 + ^ x22: .cfa -32 + ^ x23: .cfa -40 + ^ x24: .cfa -48 + ^ x25: .cfa -56 + ^ x26: .cfa -64 + ^ x27: .cfa -72 + ^ x28: .cfa -80 + ^ .ra: .cfa -88 + ^ x29: .cfa -96 + ^
STACK CFI 27b64 .cfa: sp 112 +
STACK CFI 27b68 .cfa: x29 96 +
STACK CFI 27b70 .cfa: sp 112 +
STACK CFI 27b8c .cfa: sp 0 +
STACK CFI 27b90 .cfa: x29 96 +
STACK CFI 27bb0 .cfa: sp 112 +
STACK CFI INIT 27bb4 e54 .cfa: sp 0 +
STACK CFI 27bb8 .cfa: sp 192 +
STACK CFI 27bd4 .cfa: x29 96 + x19: .cfa -8 + ^ x20: .cfa -16 + ^ x21: .cfa -24 + ^ x22: .cfa -32 + ^ x23: .cfa -40 + ^ x24: .cfa -48 + ^ x25: .cfa -56 + ^ x26: .cfa -64 + ^ x27: .cfa -72 + ^ x28: .cfa -80 + ^ .ra: .cfa -88 + ^ x29: .cfa -96 + ^
STACK CFI 288f0 .cfa: sp 192 +
STACK CFI 2890c .cfa: sp 0 +
STACK CFI 28910 .cfa: x29 96 +
STACK CFI INIT 28a08 1068 .cfa: sp 0 +
STACK CFI 28a0c .cfa: sp 288 +
STACK CFI 28a28 .cfa: x29 96 + x19: .cfa -8 + ^ x20: .cfa -16 + ^ x21: .cfa -24 + ^ x22: .cfa -32 + ^ x23: .cfa -40 + ^ x24: .cfa -48 + ^ x25: .cfa -56 + ^ x26: .cfa -64 + ^ x27: .cfa -72 + ^ x28: .cfa -80 + ^ .ra: .cfa -88 + ^ x29: .cfa -96 + ^
STACK CFI 297b8 .cfa: sp 288 +
STACK CFI 297d4 .cfa: sp 0 +
STACK CFI 297d8 .cfa: x29 96 +
STACK CFI INIT 29a70 520 .cfa: sp 0 +
STACK CFI 29a74 .cfa: sp 144 +
STACK CFI 29a90 .cfa: x29 96 + x19: .cfa -8 + ^ x20: .cfa -16 + ^ x21: .cfa -24 + ^ x22: .cfa -32 + ^ x23: .cfa -40 + ^ x24: .cfa -48 + ^ x25: .cfa -56 + ^ x26: .cfa -64 + ^ x27: .cfa -72 + ^ x28: .cfa -80 + ^ .ra: .cfa -88 + ^ x29: .cfa -96 + ^
STACK CFI 29f6c .cfa: sp 144 +
STACK CFI 29f88 .cfa: sp 0 +
STACK CFI 29f8c .cfa: x29 96 +
STACK CFI INIT 2a930 136c .cfa: sp 0 +
STACK CFI 2a934 .cfa: sp 224 +
STACK CFI 2a950 .cfa: x29 96 + x19: .cfa -8 + ^ x20: .cfa -16 + ^ x21: .cfa -24 + ^ x22: .cfa -32 + ^ x23: .cfa -40 + ^ x24: .cfa -48 + ^ x25: .cfa -56 + ^ x26: .cfa -64 + ^ x27: .cfa -72 + ^ x28: .cfa -80 + ^ .ra: .cfa -88 + ^ x29: .cfa -96 + ^
STACK CFI 2bc78 .cfa: sp 224 +
STACK CFI 2bc94 .cfa: sp 0 +
STACK CFI 2bc98 .cfa: x29 96 +
STACK CFI INIT 2bc9c 1b8 .cfa: sp 0 +
STACK CFI INIT 10be0 30c .cfa: sp 0 +
STACK CFI 10be4 .cfa: sp 96 +
STACK CFI 10bfc .cfa: x29 56 + x19: .cfa -8 + ^ x20: .cfa -16 + ^ x21: .cfa -24 + ^ x22: .cfa -32 + ^ x23: .cfa -40 + ^ .ra: .cfa -48 + ^ x29: .cfa -56 + ^ v8: .cfa -64 + ^
STACK CFI 10e38 .cfa: sp 96 +
STACK CFI 10e50 .cfa: sp 0 +
STACK CFI 10e54 .cfa: x29 56 +
STACK CFI INIT 110c4 18c .cfa: sp 0 +
STACK CFI 110c8 .cfa: sp 80 +
STACK CFI 110d8 .cfa: x29 48 + x19: .cfa -8 + ^ x20: .cfa -16 + ^ x21: .cfa -24 + ^ x22: .cfa -32 + ^ .ra: .cfa -40 + ^ x29: .cfa -48 + ^
STACK CFI 11214 .cfa: sp 80 +
STACK CFI 11224 .cfa: sp 0 +
STACK CFI 11228 .cfa: x29 48 +
STACK CFI INIT 11268 60c .cfa: sp 0 +
STACK CFI 1126c .cfa: sp 96 +
STACK CFI 11284 .cfa: x29 96 + x19: .cfa -8 + ^ x20: .cfa -16 + ^ x21: .cfa -24 + ^ x22: .cfa -32 + ^ x23: .cfa -40 + ^ x24: .cfa -48 + ^ x25: .cfa -56 + ^ x26: .cfa -64 + ^ x27: .cfa -72 + ^ x28: .cfa -80 + ^ .ra: .cfa -88 + ^ x29: .cfa -96 + ^
STACK CFI 11738 .cfa: sp 96 +
STACK CFI 11750 .cfa: sp 0 +
STACK CFI 11754 .cfa: x29 96 +
STACK CFI INIT 11888 50 .cfa: sp 0 +
STACK CFI 1188c .cfa: sp 32 +
STACK CFI 11894 .cfa: x29 32 + x19: .cfa -8 + ^ x20: .cfa -16 + ^ .ra: .cfa -24 + ^ x29: .cfa -32 + ^
STACK CFI INIT 1199c 3a0 .cfa: sp 0 +
STACK CFI 119a0 .cfa: sp 160 +
STACK CFI 119bc .cfa: x29 96 + x19: .cfa -8 + ^ x20: .cfa -16 + ^ x21: .cfa -24 + ^ x22: .cfa -32 + ^ x23: .cfa -40 + ^ x24: .cfa -48 + ^ x25: .cfa -56 + ^ x26: .cfa -64 + ^ x27: .cfa -80 + ^ .ra: .cfa -88 + ^ x29: .cfa -96 + ^
STACK CFI 11bc0 .cfa: sp 160 +
STACK CFI 11bdc .cfa: sp 0 +
STACK CFI 11be0 .cfa: x29 96 +
STACK CFI INIT 11d3c 74 .cfa: sp 0 +
STACK CFI 11d40 .cfa: sp 48 +
STACK CFI 11d4c .cfa: x29 32 + x19: .cfa -8 + ^ x20: .cfa -16 + ^ .ra: .cfa -24 + ^ x29: .cfa -32 + ^
STACK CFI 11d98 .cfa: sp 48 +
STACK CFI 11da4 .cfa: sp 0 +
STACK CFI 11da8 .cfa: x29 32 +
STACK CFI INIT 11f30 134 .cfa: sp 0 +
STACK CFI 11f34 .cfa: sp 128 +
STACK CFI 11f44 .cfa: x29 48 + x19: .cfa -8 + ^ x20: .cfa -16 + ^ x21: .cfa -24 + ^ x22: .cfa -32 + ^ .ra: .cfa -40 + ^ x29: .cfa -48 + ^
STACK CFI 12030 .cfa: sp 128 +
STACK CFI 12040 .cfa: sp 0 +
STACK CFI 12044 .cfa: x29 48 +
STACK CFI INIT 12108 138 .cfa: sp 0 +
STACK CFI 1210c .cfa: sp 144 +
STACK CFI 12118 .cfa: x29 32 + x19: .cfa -8 + ^ x20: .cfa -16 + ^ .ra: .cfa -24 + ^ x29: .cfa -32 + ^
STACK CFI 121dc .cfa: sp 144 +
STACK CFI 121e8 .cfa: sp 0 +
STACK CFI 121ec .cfa: x29 32 +
STACK CFI INIT 12240 2b0 .cfa: sp 0 +
STACK CFI 12244 .cfa: sp 144 +
STACK CFI 12260 .cfa: x29 96 + x19: .cfa -8 + ^ x20: .cfa -16 + ^ x21: .cfa -24 + ^ x22: .cfa -32 + ^ x23: .cfa -40 + ^ x24: .cfa -48 + ^ x25: .cfa -56 + ^ x26: .cfa -64 + ^ x27: .cfa -72 + ^ x28: .cfa -80 + ^ .ra: .cfa -88 + ^ x29: .cfa -96 + ^
STACK CFI 1243c .cfa: sp 144 +
STACK CFI 12458 .cfa: sp 0 +
STACK CFI 1245c .cfa: x29 96 +
STACK CFI INIT 124f0 2a8 .cfa: sp 0 +
STACK CFI 124f4 .cfa: sp 160 +
STACK CFI 12510 .cfa: x29 96 + x19: .cfa -8 + ^ x20: .cfa -16 + ^ x21: .cfa -24 + ^ x22: .cfa -32 + ^ x23: .cfa -40 + ^ x24: .cfa -48 + ^ x25: .cfa -56 + ^ x26: .cfa -64 + ^ x27: .cfa -72 + ^ x28: .cfa -80 + ^ .ra: .cfa -88 + ^ x29: .cfa -96 + ^
STACK CFI 126d8 .cfa: sp 160 +
STACK CFI 126f4 .cfa: sp 0 +
STACK CFI 126f8 .cfa: x29 96 +
STACK CFI INIT 12798 350 .cfa: sp 0 +
STACK CFI 1279c .cfa: sp 144 +
STACK CFI 127b8 .cfa: x29 96 + x19: .cfa -8 + ^ x20: .cfa -16 + ^ x21: .cfa -24 + ^ x22: .cfa -32 + ^ x23: .cfa -40 + ^ x24: .cfa -48 + ^ x25: .cfa -56 + ^ x26: .cfa -64 + ^ x27: .cfa -72 + ^ x28: .cfa -80 + ^ .ra: .cfa -88 + ^ x29: .cfa -96 + ^
STACK CFI 12a00 .cfa: sp 144 +
STACK CFI 12a1c .cfa: sp 0 +
STACK CFI 12a20 .cfa: x29 96 +
STACK CFI INIT 12ae8 2b0 .cfa: sp 0 +
STACK CFI 12aec .cfa: sp 160 +
STACK CFI 12b04 .cfa: x29 80 + x19: .cfa -8 + ^ x20: .cfa -16 + ^ x21: .cfa -24 + ^ x22: .cfa -32 + ^ x23: .cfa -40 + ^ x24: .cfa -48 + ^ x25: .cfa -56 + ^ x26: .cfa -64 + ^ .ra: .cfa -72 + ^ x29: .cfa -80 + ^
STACK CFI 12d00 .cfa: sp 160 +
STACK CFI 12d18 .cfa: sp 0 +
STACK CFI 12d1c .cfa: x29 80 +
STACK CFI INIT 12e8c 1b0 .cfa: sp 0 +
STACK CFI 12e90 .cfa: sp 112 +
STACK CFI 12ea4 .cfa: x29 64 + x19: .cfa -8 + ^ x20: .cfa -16 + ^ x21: .cfa -24 + ^ x22: .cfa -32 + ^ x23: .cfa -48 + ^ .ra: .cfa -56 + ^ x29: .cfa -64 + ^
STACK CFI 12fd0 .cfa: sp 112 +
STACK CFI 12fe4 .cfa: sp 0 +
STACK CFI 12fe8 .cfa: x29 64 +
STACK CFI INIT 1303c 184 .cfa: sp 0 +
STACK CFI 13040 .cfa: sp 96 +
STACK CFI 13050 .cfa: x29 48 + x19: .cfa -8 + ^ x20: .cfa -16 + ^ x21: .cfa -24 + ^ x22: .cfa -32 + ^ .ra: .cfa -40 + ^ x29: .cfa -48 + ^
STACK CFI 1317c .cfa: sp 96 +
STACK CFI 1318c .cfa: sp 0 +
STACK CFI 13190 .cfa: x29 48 +
STACK CFI INIT 131c0 18c .cfa: sp 0 +
STACK CFI 131c4 .cfa: sp 96 +
STACK CFI 131d4 .cfa: x29 48 + x19: .cfa -8 + ^ x20: .cfa -16 + ^ x21: .cfa -24 + ^ x22: .cfa -32 + ^ .ra: .cfa -40 + ^ x29: .cfa -48 + ^
STACK CFI 13308 .cfa: sp 96 +
STACK CFI 13318 .cfa: sp 0 +
STACK CFI 1331c .cfa: x29 48 +
STACK CFI INIT 13354 b0 .cfa: sp 0 +
STACK CFI 13358 .cfa: sp 48 +
STACK CFI 13364 .cfa: x29 48 + x19: .cfa -8 + ^ x20: .cfa -16 + ^ x21: .cfa -24 + ^ x22: .cfa -32 + ^ .ra: .cfa -40 + ^ x29: .cfa -48 + ^
STACK CFI 133dc .cfa: sp 48 +
STACK CFI 133e8 .cfa: sp 0 +
STACK CFI 133ec .cfa: x29 48 +
STACK CFI INIT 1345c 29c .cfa: sp 0 +
STACK CFI 13460 .cfa: sp 128 +
STACK CFI 13478 .cfa: x29 80 + x19: .cfa -8 + ^ x20: .cfa -16 + ^ x21: .cfa -24 + ^ x22: .cfa -32 + ^ x23: .cfa -40 + ^ x24: .cfa -48 + ^ x25: .cfa -64 + ^ .ra: .cfa -72 + ^ x29: .cfa -80 + ^
STACK CFI 13694 .cfa: sp 128 +
STACK CFI 136ac .cfa: sp 0 +
STACK CFI 136b0 .cfa: x29 80 +
STACK CFI INIT 136f8 2f4 .cfa: sp 0 +
STACK CFI 136fc .cfa: sp 48 +
STACK CFI 13708 .cfa: x29 48 + x19: .cfa -8 + ^ x20: .cfa -16 + ^ x21: .cfa -32 + ^ .ra: .cfa -40 + ^ x29: .cfa -48 + ^
STACK CFI 13908 .cfa: sp 48 +
STACK CFI 13914 .cfa: sp 0 +
STACK CFI 13918 .cfa: x29 48 +
STACK CFI INIT 13d28 148 .cfa: sp 0 +
STACK CFI 13d2c .cfa: sp 112 +
STACK CFI 13d40 .cfa: x29 64 + x19: .cfa -8 + ^ x20: .cfa -16 + ^ x21: .cfa -24 + ^ x22: .cfa -32 + ^ x23: .cfa -40 + ^ x24: .cfa -48 + ^ .ra: .cfa -56 + ^ x29: .cfa -64 + ^
STACK CFI 13e30 .cfa: sp 112 +
STACK CFI 13e44 .cfa: sp 0 +
STACK CFI 13e48 .cfa: x29 64 +
STACK CFI INIT 14758 1a0 .cfa: sp 0 +
STACK CFI 1475c .cfa: sp 128 +
STACK CFI 1476c .cfa: x29 48 + x19: .cfa -8 + ^ x20: .cfa -16 + ^ x21: .cfa -32 + ^ .ra: .cfa -40 + ^ x29: .cfa -48 + ^
STACK CFI 14874 .cfa: sp 128 +
STACK CFI 14884 .cfa: sp 0 +
STACK CFI 14888 .cfa: x29 48 +
STACK CFI INIT 14d38 1a0 .cfa: sp 0 +
STACK CFI 14d3c .cfa: sp 128 +
STACK CFI 14d4c .cfa: x29 48 + x19: .cfa -8 + ^ x20: .cfa -16 + ^ x21: .cfa -32 + ^ .ra: .cfa -40 + ^ x29: .cfa -48 + ^
STACK CFI 14e54 .cfa: sp 128 +
STACK CFI 14e64 .cfa: sp 0 +
STACK CFI 14e68 .cfa: x29 48 +
STACK CFI INIT 15028 d4 .cfa: sp 0 +
STACK CFI 1502c .cfa: sp 80 +
STACK CFI 1503c .cfa: x29 48 + x19: .cfa -8 + ^ x20: .cfa -16 + ^ x21: .cfa -32 + ^ .ra: .cfa -40 + ^ x29: .cfa -48 + ^
STACK CFI 150b8 .cfa: sp 80 +
STACK CFI 150c8 .cfa: sp 0 +
STACK CFI 150cc .cfa: x29 48 +
STACK CFI INIT 15100 1a0 .cfa: sp 0 +
STACK CFI 15104 .cfa: sp 128 +
STACK CFI 15114 .cfa: x29 48 + x19: .cfa -8 + ^ x20: .cfa -16 + ^ x21: .cfa -32 + ^ .ra: .cfa -40 + ^ x29: .cfa -48 + ^
STACK CFI 1521c .cfa: sp 128 +
STACK CFI 1522c .cfa: sp 0 +
STACK CFI 15230 .cfa: x29 48 +
STACK CFI INIT 153f0 174 .cfa: sp 0 +
STACK CFI 153f4 .cfa: sp 128 +
STACK CFI 15408 .cfa: x29 64 + x19: .cfa -8 + ^ x20: .cfa -16 + ^ x21: .cfa -24 + ^ x22: .cfa -32 + ^ x23: .cfa -48 + ^ .ra: .cfa -56 + ^ x29: .cfa -64 + ^
STACK CFI 15514 .cfa: sp 128 +
STACK CFI 15528 .cfa: sp 0 +
STACK CFI 1552c .cfa: x29 64 +
STACK CFI INIT 15568 1a0 .cfa: sp 0 +
STACK CFI 1556c .cfa: sp 128 +
STACK CFI 1557c .cfa: x29 48 + x19: .cfa -8 + ^ x20: .cfa -16 + ^ x21: .cfa -32 + ^ .ra: .cfa -40 + ^ x29: .cfa -48 + ^
STACK CFI 15684 .cfa: sp 128 +
STACK CFI 15694 .cfa: sp 0 +
STACK CFI 15698 .cfa: x29 48 +
STACK CFI INIT 1588c 1a0 .cfa: sp 0 +
STACK CFI 15890 .cfa: sp 128 +
STACK CFI 158a0 .cfa: x29 48 + x19: .cfa -8 + ^ x20: .cfa -16 + ^ x21: .cfa -32 + ^ .ra: .cfa -40 + ^ x29: .cfa -48 + ^
STACK CFI 159a8 .cfa: sp 128 +
STACK CFI 159b8 .cfa: sp 0 +
STACK CFI 159bc .cfa: x29 48 +
STACK CFI INIT 15c30 1a0 .cfa: sp 0 +
STACK CFI 15c34 .cfa: sp 128 +
STACK CFI 15c44 .cfa: x29 48 + x19: .cfa -8 + ^ x20: .cfa -16 + ^ x21: .cfa -32 + ^ .ra: .cfa -40 + ^ x29: .cfa -48 + ^
STACK CFI 15d4c .cfa: sp 128 +
STACK CFI 15d5c .cfa: sp 0 +
STACK CFI 15d60 .cfa: x29 48 +
STACK CFI INIT 15fd4 1a0 .cfa: sp 0 +
STACK CFI 15fd8 .cfa: sp 128 +
STACK CFI 15fe8 .cfa: x29 48 + x19: .cfa -8 + ^ x20: .cfa -16 + ^ x21: .cfa -32 + ^ .ra: .cfa -40 + ^ x29: .cfa -48 + ^
STACK CFI 160f0 .cfa: sp 128 +
STACK CFI 16100 .cfa: sp 0 +
STACK CFI 16104 .cfa: x29 48 +
STACK CFI INIT 162c4 150 .cfa: sp 0 +
STACK CFI 162c8 .cfa: sp 96 +
STACK CFI 162dc .cfa: x29 64 + x19: .cfa -8 + ^ x20: .cfa -16 + ^ x21: .cfa -24 + ^ x22: .cfa -32 + ^ x23: .cfa -48 + ^ .ra: .cfa -56 + ^ x29: .cfa -64 + ^
STACK CFI 163d0 .cfa: sp 96 +
STACK CFI 163e4 .cfa: sp 0 +
STACK CFI 163e8 .cfa: x29 64 +
STACK CFI INIT 16418 1a0 .cfa: sp 0 +
STACK CFI 1641c .cfa: sp 128 +
STACK CFI 1642c .cfa: x29 48 + x19: .cfa -8 + ^ x20: .cfa -16 + ^ x21: .cfa -32 + ^ .ra: .cfa -40 + ^ x29: .cfa -48 + ^
STACK CFI 16534 .cfa: sp 128 +
STACK CFI 16544 .cfa: sp 0 +
STACK CFI 16548 .cfa: x29 48 +
STACK CFI INIT 1670c 174 .cfa: sp 0 +
STACK CFI 16710 .cfa: sp 112 +
STACK CFI 16720 .cfa: x29 48 + x19: .cfa -8 + ^ x20: .cfa -16 + ^ x21: .cfa -32 + ^ .ra: .cfa -40 + ^ x29: .cfa -48 + ^
STACK CFI 1681c .cfa: sp 112 +
STACK CFI 1682c .cfa: sp 0 +
STACK CFI 16830 .cfa: x29 48 +
STACK CFI INIT 169d0 12c .cfa: sp 0 +
STACK CFI 169d4 .cfa: sp 80 +
STACK CFI 169e4 .cfa: x29 48 + x19: .cfa -8 + ^ x20: .cfa -16 + ^ x21: .cfa -32 + ^ .ra: .cfa -40 + ^ x29: .cfa -48 + ^
STACK CFI 16a7c .cfa: sp 80 +
STACK CFI 16a8c .cfa: sp 0 +
STACK CFI 16a90 .cfa: x29 48 +
STACK CFI INIT 16afc 7b0 .cfa: sp 0 +
STACK CFI 16b00 .cfa: sp 240 +
STACK CFI 16b1c .cfa: x29 96 + x19: .cfa -8 + ^ x20: .cfa -16 + ^ x21: .cfa -24 + ^ x22: .cfa -32 + ^ x23: .cfa -40 + ^ x24: .cfa -48 + ^ x25: .cfa -56 + ^ x26: .cfa -64 + ^ x27: .cfa -72 + ^ x28: .cfa -80 + ^ .ra: .cfa -88 + ^ x29: .cfa -96 + ^
STACK CFI 17154 .cfa: sp 240 +
STACK CFI 17170 .cfa: sp 0 +
STACK CFI 17174 .cfa: x29 96 +
STACK CFI INIT 172c4 488 .cfa: sp 0 +
STACK CFI 172c8 .cfa: sp 304 +
STACK CFI 172e4 .cfa: x29 96 + x19: .cfa -8 + ^ x20: .cfa -16 + ^ x21: .cfa -24 + ^ x22: .cfa -32 + ^ x23: .cfa -40 + ^ x24: .cfa -48 + ^ x25: .cfa -56 + ^ x26: .cfa -64 + ^ x27: .cfa -72 + ^ x28: .cfa -80 + ^ .ra: .cfa -88 + ^ x29: .cfa -96 + ^
STACK CFI 1760c .cfa: sp 304 +
STACK CFI 17628 .cfa: sp 0 +
STACK CFI 1762c .cfa: x29 96 +
STACK CFI INIT 1779c 74 .cfa: sp 0 +
STACK CFI 177a0 .cfa: sp 48 +
STACK CFI 177ac .cfa: x29 32 + x19: .cfa -8 + ^ x20: .cfa -16 + ^ .ra: .cfa -24 + ^ x29: .cfa -32 + ^
STACK CFI 177f8 .cfa: sp 48 +
STACK CFI 17804 .cfa: sp 0 +
STACK CFI 17808 .cfa: x29 32 +
STACK CFI INIT 17890 154 .cfa: sp 0 +
STACK CFI 17894 .cfa: sp 384 +
STACK CFI 178a8 .cfa: x29 64 + x19: .cfa -8 + ^ x20: .cfa -16 + ^ x21: .cfa -24 + ^ x22: .cfa -32 + ^ x23: .cfa -40 + ^ x28: .cfa -48 + ^ .ra: .cfa -56 + ^ x29: .cfa -64 + ^
STACK CFI 1798c .cfa: sp 384 +
STACK CFI 179a0 .cfa: sp 0 +
STACK CFI 179a4 .cfa: x29 64 +
STACK CFI INIT 179e4 12c .cfa: sp 0 +
STACK CFI 179e8 .cfa: sp 80 +
STACK CFI 179fc .cfa: x29 80 + x19: .cfa -8 + ^ x20: .cfa -16 + ^ x21: .cfa -24 + ^ x22: .cfa -32 + ^ x23: .cfa -40 + ^ x24: .cfa -48 + ^ x25: .cfa -56 + ^ x26: .cfa -64 + ^ .ra: .cfa -72 + ^ x29: .cfa -80 + ^
STACK CFI 17ac4 .cfa: sp 80 +
STACK CFI 17ad8 .cfa: sp 0 +
STACK CFI 17adc .cfa: x29 80 +
STACK CFI INIT 17b90 1a4 .cfa: sp 0 +
STACK CFI 17b94 .cfa: sp 112 +
STACK CFI 17bac .cfa: x29 80 + x19: .cfa -8 + ^ x20: .cfa -16 + ^ x21: .cfa -24 + ^ x22: .cfa -32 + ^ x23: .cfa -40 + ^ x24: .cfa -48 + ^ x25: .cfa -56 + ^ x26: .cfa -64 + ^ .ra: .cfa -72 + ^ x29: .cfa -80 + ^
STACK CFI 17c9c .cfa: sp 112 +
STACK CFI 17cb4 .cfa: sp 0 +
STACK CFI 17cb8 .cfa: x29 80 +
STACK CFI INIT 17d34 1dc .cfa: sp 0 +
STACK CFI 17d38 .cfa: sp 128 +
STACK CFI 17d54 .cfa: x29 96 + x19: .cfa -8 + ^ x20: .cfa -16 + ^ x21: .cfa -24 + ^ x22: .cfa -32 + ^ x23: .cfa -40 + ^ x24: .cfa -48 + ^ x25: .cfa -56 + ^ x26: .cfa -64 + ^ x27: .cfa -80 + ^ .ra: .cfa -88 + ^ x29: .cfa -96 + ^
STACK CFI 17ec0 .cfa: sp 128 +
STACK CFI 17edc .cfa: sp 0 +
STACK CFI 17ee0 .cfa: x29 96 +
STACK CFI INIT 17f44 178 .cfa: sp 0 +
STACK CFI 17f48 .cfa: sp 80 +
STACK CFI 17f5c .cfa: x29 80 + x19: .cfa -8 + ^ x20: .cfa -16 + ^ x21: .cfa -24 + ^ x22: .cfa -32 + ^ x23: .cfa -40 + ^ x24: .cfa -48 + ^ x25: .cfa -64 + ^ .ra: .cfa -72 + ^ x29: .cfa -80 + ^
STACK CFI 18088 .cfa: sp 80 +
STACK CFI 1809c .cfa: sp 0 +
STACK CFI 180a0 .cfa: x29 80 +
STACK CFI INIT 1831c 7b4 .cfa: sp 0 +
STACK CFI 18320 .cfa: sp 96 +
STACK CFI 18338 .cfa: x29 96 + x19: .cfa -8 + ^ x20: .cfa -16 + ^ x21: .cfa -24 + ^ x22: .cfa -32 + ^ x23: .cfa -40 + ^ x24: .cfa -48 + ^ x25: .cfa -56 + ^ x26: .cfa -64 + ^ x28: .cfa -80 + ^ .ra: .cfa -88 + ^ x29: .cfa -96 + ^
STACK CFI 185cc .cfa: sp 96 +
STACK CFI 185e4 .cfa: sp 0 +
STACK CFI 185e8 .cfa: x29 96 +
STACK CFI INIT 18c0c 134 .cfa: sp 0 +
STACK CFI 18c10 .cfa: sp 80 +
STACK CFI 18c1c .cfa: x29 32 + x19: .cfa -8 + ^ x20: .cfa -16 + ^ .ra: .cfa -24 + ^ x29: .cfa -32 + ^
STACK CFI 18c4c .cfa: sp 80 +
STACK CFI 18c58 .cfa: sp 0 +
STACK CFI 18c5c .cfa: x29 32 +
STACK CFI INIT 18d40 78 .cfa: sp 0 +
STACK CFI 18d44 .cfa: sp 32 +
STACK CFI 18d4c .cfa: x29 32 + x19: .cfa -8 + ^ x20: .cfa -16 + ^ .ra: .cfa -24 + ^ x29: .cfa -32 + ^
STACK CFI 18d58 .cfa: sp 32 +
STACK CFI 18d60 .cfa: sp 0 +
STACK CFI 18d64 .cfa: x29 32 +
STACK CFI INIT 18db8 74 .cfa: sp 0 +
STACK CFI 18dbc .cfa: sp 48 +
STACK CFI 18dc8 .cfa: x29 32 + x19: .cfa -8 + ^ x20: .cfa -16 + ^ .ra: .cfa -24 + ^ x29: .cfa -32 + ^
STACK CFI 18e14 .cfa: sp 48 +
STACK CFI 18e20 .cfa: sp 0 +
STACK CFI 18e24 .cfa: x29 32 +
STACK CFI INIT 18eb4 25c .cfa: sp 0 +
STACK CFI 18eb8 .cfa: sp 128 +
STACK CFI 18ec8 .cfa: x29 48 + x19: .cfa -8 + ^ x20: .cfa -16 + ^ x21: .cfa -32 + ^ .ra: .cfa -40 + ^ x29: .cfa -48 + ^
STACK CFI 18fb0 .cfa: sp 128 +
STACK CFI 18fc0 .cfa: sp 0 +
STACK CFI 18fc4 .cfa: x29 48 +
STACK CFI INIT 19134 174 .cfa: sp 0 +
STACK CFI 19138 .cfa: sp 128 +
STACK CFI 19148 .cfa: x29 48 + x19: .cfa -8 + ^ x20: .cfa -16 + ^ x21: .cfa -32 + ^ .ra: .cfa -40 + ^ x29: .cfa -48 + ^
STACK CFI 19190 .cfa: sp 128 +
STACK CFI 191a0 .cfa: sp 0 +
STACK CFI 191a4 .cfa: x29 48 +
STACK CFI INIT 192ac 2a0 .cfa: sp 0 +
STACK CFI 192b0 .cfa: sp 144 +
STACK CFI 192c4 .cfa: x29 64 + x19: .cfa -8 + ^ x20: .cfa -16 + ^ x21: .cfa -24 + ^ x22: .cfa -32 + ^ x23: .cfa -48 + ^ .ra: .cfa -56 + ^ x29: .cfa -64 + ^
STACK CFI 193f8 .cfa: sp 144 +
STACK CFI 1940c .cfa: sp 0 +
STACK CFI 19410 .cfa: x29 64 +
STACK CFI INIT 1954c 4e4 .cfa: sp 0 +
STACK CFI 19550 .cfa: sp 144 +
STACK CFI 19564 .cfa: x29 64 + x19: .cfa -8 + ^ x20: .cfa -16 + ^ x21: .cfa -24 + ^ x22: .cfa -32 + ^ x23: .cfa -48 + ^ .ra: .cfa -56 + ^ x29: .cfa -64 + ^
STACK CFI 19888 .cfa: sp 144 +
STACK CFI 1989c .cfa: sp 0 +
STACK CFI 198a0 .cfa: x29 64 +
STACK CFI INIT 19a30 154 .cfa: sp 0 +
STACK CFI 19a34 .cfa: sp 384 +
STACK CFI 19a48 .cfa: x29 64 + x19: .cfa -8 + ^ x20: .cfa -16 + ^ x21: .cfa -24 + ^ x22: .cfa -32 + ^ x23: .cfa -40 + ^ x28: .cfa -48 + ^ .ra: .cfa -56 + ^ x29: .cfa -64 + ^
STACK CFI 19b2c .cfa: sp 384 +
STACK CFI 19b40 .cfa: sp 0 +
STACK CFI 19b44 .cfa: x29 64 +
STACK CFI INIT 19b84 168 .cfa: sp 0 +
STACK CFI 19b88 .cfa: sp 384 +
STACK CFI 19b9c .cfa: x29 64 + x19: .cfa -8 + ^ x20: .cfa -16 + ^ x21: .cfa -24 + ^ x22: .cfa -32 + ^ x23: .cfa -40 + ^ x28: .cfa -48 + ^ .ra: .cfa -56 + ^ x29: .cfa -64 + ^
STACK CFI 19c94 .cfa: sp 384 +
STACK CFI 19ca8 .cfa: sp 0 +
STACK CFI 19cac .cfa: x29 64 +
STACK CFI INIT 19d04 50c .cfa: sp 0 +
STACK CFI 19d08 .cfa: sp 64 +
STACK CFI 19d18 .cfa: x29 64 + x19: .cfa -8 + ^ x20: .cfa -16 + ^ x21: .cfa -24 + ^ x22: .cfa -32 + ^ x23: .cfa -40 + ^ x24: .cfa -48 + ^ .ra: .cfa -56 + ^ x29: .cfa -64 + ^
STACK CFI 19e38 .cfa: sp 64 +
STACK CFI 19e48 .cfa: sp 0 +
STACK CFI 19e4c .cfa: x29 64 +
STACK CFI 1a1e4 .cfa: sp 64 +
STACK CFI 1a1f4 .cfa: sp 0 +
STACK CFI 1a1f8 .cfa: x29 64 +
STACK CFI INIT 1a540 294 .cfa: sp 0 +
STACK CFI 1a544 .cfa: sp 240 +
STACK CFI 1a55c .cfa: x29 80 + x19: .cfa -8 + ^ x20: .cfa -16 + ^ x21: .cfa -24 + ^ x22: .cfa -32 + ^ x23: .cfa -40 + ^ x24: .cfa -48 + ^ x25: .cfa -64 + ^ .ra: .cfa -72 + ^ x29: .cfa -80 + ^
STACK CFI 1a6fc .cfa: sp 240 +
STACK CFI 1a714 .cfa: sp 0 +
STACK CFI 1a718 .cfa: x29 80 +
STACK CFI INIT 1a850 50 .cfa: sp 0 +
STACK CFI 1a854 .cfa: sp 32 +
STACK CFI 1a85c .cfa: x29 32 + x19: .cfa -8 + ^ x20: .cfa -16 + ^ .ra: .cfa -24 + ^ x29: .cfa -32 + ^
STACK CFI INIT 1a8cc 7c0 .cfa: sp 0 +
STACK CFI 1a8d0 .cfa: sp 320 +
STACK CFI 1a8ec .cfa: x29 96 + x19: .cfa -8 + ^ x20: .cfa -16 + ^ x21: .cfa -24 + ^ x22: .cfa -32 + ^ x23: .cfa -40 + ^ x24: .cfa -48 + ^ x25: .cfa -56 + ^ x26: .cfa -64 + ^ x27: .cfa -72 + ^ x28: .cfa -80 + ^ .ra: .cfa -88 + ^ x29: .cfa -96 + ^
STACK CFI 1af3c .cfa: sp 320 +
STACK CFI 1af58 .cfa: sp 0 +
STACK CFI 1af5c .cfa: x29 96 +
STACK CFI INIT 1f40c c74 .cfa: sp 0 +
STACK CFI 1f410 .cfa: sp 96 +
STACK CFI 1f428 .cfa: x29 96 + x19: .cfa -8 + ^ x20: .cfa -16 + ^ x21: .cfa -24 + ^ x22: .cfa -32 + ^ x23: .cfa -40 + ^ x24: .cfa -48 + ^ x25: .cfa -56 + ^ x26: .cfa -64 + ^ x27: .cfa -72 + ^ x28: .cfa -80 + ^ .ra: .cfa -88 + ^ x29: .cfa -96 + ^
STACK CFI 1fea0 .cfa: sp 96 +
STACK CFI 1feb8 .cfa: sp 0 +
STACK CFI 1febc .cfa: x29 96 +
STACK CFI INIT 201d4 26c .cfa: sp 0 +
STACK CFI 201d8 .cfa: sp 128 +
STACK CFI 201e8 .cfa: x29 48 + x19: .cfa -8 + ^ x20: .cfa -16 + ^ x21: .cfa -24 + ^ x22: .cfa -32 + ^ .ra: .cfa -40 + ^ x29: .cfa -48 + ^
STACK CFI 2038c .cfa: sp 128 +
STACK CFI 2039c .cfa: sp 0 +
STACK CFI 203a0 .cfa: x29 48 +
STACK CFI INIT 207d0 3b8 .cfa: sp 0 +
STACK CFI 207d4 .cfa: sp 96 +
STACK CFI 207ec .cfa: x29 96 + x19: .cfa -8 + ^ x20: .cfa -16 + ^ x21: .cfa -24 + ^ x22: .cfa -32 + ^ x23: .cfa -40 + ^ x24: .cfa -48 + ^ x25: .cfa -56 + ^ x26: .cfa -64 + ^ x27: .cfa -72 + ^ x28: .cfa -80 + ^ .ra: .cfa -88 + ^ x29: .cfa -96 + ^
STACK CFI 20b28 .cfa: sp 96 +
STACK CFI 20b40 .cfa: sp 0 +
STACK CFI 20b44 .cfa: x29 96 +
STACK CFI INIT 20c28 cb4 .cfa: sp 0 +
STACK CFI 20c2c .cfa: sp 96 +
STACK CFI 20c44 .cfa: x29 96 + x19: .cfa -8 + ^ x20: .cfa -16 + ^ x21: .cfa -24 + ^ x22: .cfa -32 + ^ x23: .cfa -40 + ^ x24: .cfa -48 + ^ x25: .cfa -56 + ^ x26: .cfa -64 + ^ x27: .cfa -72 + ^ x28: .cfa -80 + ^ .ra: .cfa -88 + ^ x29: .cfa -96 + ^
STACK CFI 216ec .cfa: sp 96 +
STACK CFI 21704 .cfa: sp 0 +
STACK CFI 21708 .cfa: x29 96 +
STACK CFI INIT 21bc4 afc .cfa: sp 0 +
STACK CFI 21bc8 .cfa: sp 96 +
STACK CFI 21be0 .cfa: x29 96 + x19: .cfa -8 + ^ x20: .cfa -16 + ^ x21: .cfa -24 + ^ x22: .cfa -32 + ^ x23: .cfa -40 + ^ x24: .cfa -48 + ^ x25: .cfa -56 + ^ x26: .cfa -64 + ^ x27: .cfa -72 + ^ x28: .cfa -80 + ^ .ra: .cfa -88 + ^ x29: .cfa -96 + ^
STACK CFI 22634 .cfa: sp 96 +
STACK CFI 2264c .cfa: sp 0 +
STACK CFI 22650 .cfa: x29 96 +
STACK CFI INIT 2289c 1430 .cfa: sp 0 +
STACK CFI 228a0 .cfa: sp 96 +
STACK CFI 228b8 .cfa: x29 96 + x19: .cfa -8 + ^ x20: .cfa -16 + ^ x21: .cfa -24 + ^ x22: .cfa -32 + ^ x23: .cfa -40 + ^ x24: .cfa -48 + ^ x25: .cfa -56 + ^ x26: .cfa -64 + ^ x27: .cfa -72 + ^ x28: .cfa -80 + ^ .ra: .cfa -88 + ^ x29: .cfa -96 + ^
STACK CFI 23b54 .cfa: sp 96 +
STACK CFI 23b6c .cfa: sp 0 +
STACK CFI 23b70 .cfa: x29 96 +
STACK CFI INIT 23df0 75c .cfa: sp 0 +
STACK CFI 23df4 .cfa: sp 368 +
STACK CFI 23e10 .cfa: x29 96 + x19: .cfa -8 + ^ x20: .cfa -16 + ^ x21: .cfa -24 + ^ x22: .cfa -32 + ^ x23: .cfa -40 + ^ x24: .cfa -48 + ^ x25: .cfa -56 + ^ x26: .cfa -64 + ^ x27: .cfa -72 + ^ x28: .cfa -80 + ^ .ra: .cfa -88 + ^ x29: .cfa -96 + ^
STACK CFI 23ec4 .cfa: sp 368 +
STACK CFI 23ee0 .cfa: sp 0 +
STACK CFI 23ee4 .cfa: x29 96 +
STACK CFI 23f38 .cfa: sp 368 +
STACK CFI 23f54 .cfa: sp 0 +
STACK CFI 23f58 .cfa: x29 96 +
STACK CFI INIT 2490c eb0 .cfa: sp 0 +
STACK CFI 24910 .cfa: sp 96 +
STACK CFI 24928 .cfa: x29 96 + x19: .cfa -8 + ^ x20: .cfa -16 + ^ x21: .cfa -24 + ^ x22: .cfa -32 + ^ x23: .cfa -40 + ^ x24: .cfa -48 + ^ x25: .cfa -56 + ^ x26: .cfa -64 + ^ x27: .cfa -72 + ^ x28: .cfa -80 + ^ .ra: .cfa -88 + ^ x29: .cfa -96 + ^
STACK CFI 255d0 .cfa: sp 96 +
STACK CFI 255e8 .cfa: sp 0 +
STACK CFI 255ec .cfa: x29 96 +
STACK CFI INIT 25b30 1c9c .cfa: sp 0 +
STACK CFI 25b34 .cfa: sp 112 +
STACK CFI 25b50 .cfa: x29 96 + x19: .cfa -8 + ^ x20: .cfa -16 + ^ x21: .cfa -24 + ^ x22: .cfa -32 + ^ x23: .cfa -40 + ^ x24: .cfa -48 + ^ x25: .cfa -56 + ^ x26: .cfa -64 + ^ x27: .cfa -72 + ^ x28: .cfa -80 + ^ .ra: .cfa -88 + ^ x29: .cfa -96 + ^ v8: .cfa -112 + ^
STACK CFI 25f38 .cfa: sp 112 +
STACK CFI 25f54 .cfa: sp 0 +
STACK CFI 25f58 .cfa: x29 96 +
STACK CFI INIT 29f90 9a0 .cfa: sp 0 +
STACK CFI 29f94 .cfa: sp 144 +
STACK CFI 29fac .cfa: x29 80 + x19: .cfa -8 + ^ x20: .cfa -16 + ^ x21: .cfa -24 + ^ x22: .cfa -32 + ^ x23: .cfa -40 + ^ x24: .cfa -48 + ^ x25: .cfa -64 + ^ .ra: .cfa -72 + ^ x29: .cfa -80 + ^
STACK CFI 2a8ac .cfa: sp 144 +
STACK CFI 2a8c4 .cfa: sp 0 +
STACK CFI 2a8c8 .cfa: x29 80 +
STACK CFI INIT 2be54 57c .cfa: sp 0 +
STACK CFI 2be58 .cfa: sp 96 +
STACK CFI 2be70 .cfa: x29 96 + x19: .cfa -8 + ^ x20: .cfa -16 + ^ x21: .cfa -24 + ^ x22: .cfa -32 + ^ x23: .cfa -40 + ^ x24: .cfa -48 + ^ x25: .cfa -56 + ^ x26: .cfa -64 + ^ x27: .cfa -72 + ^ x28: .cfa -80 + ^ .ra: .cfa -88 + ^ x29: .cfa -96 + ^
STACK CFI 2c334 .cfa: sp 96 +
STACK CFI 2c34c .cfa: sp 0 +
STACK CFI 2c350 .cfa: x29 96 +
STACK CFI INIT 2c3d0 67c .cfa: sp 0 +
STACK CFI 2c3d4 .cfa: sp 96 +
STACK CFI 2c3ec .cfa: x29 96 + x19: .cfa -8 + ^ x20: .cfa -16 + ^ x21: .cfa -24 + ^ x22: .cfa -32 + ^ x23: .cfa -40 + ^ x24: .cfa -48 + ^ x25: .cfa -56 + ^ x26: .cfa -64 + ^ x27: .cfa -72 + ^ x28: .cfa -80 + ^ .ra: .cfa -88 + ^ x29: .cfa -96 + ^
STACK CFI 2c9b0 .cfa: sp 96 +
STACK CFI 2c9c8 .cfa: sp 0 +
STACK CFI 2c9cc .cfa: x29 96 +
