MODULE Linux arm64 271D08F5BFAF2F00DD013F6822AAE7EB0 rooot.custom-gamemode-colors.android64.so
INFO CODE_ID F5081D27AFBF002FDD013F6822AAE7EBE51C9ED5
INFO GENERATOR mozilla/dump_syms 2.3.4
PUBLIC ecf0 0 __on_dlclose
PUBLIC ed00 0 __emutls_unregister_key
PUBLIC ed08 0 __on_dlclose_late
PUBLIC ed10 0 __atexit_handler_wrapper
PUBLIC ed24 0 atexit
PUBLIC ed40 0 pthread_atfork
PUBLIC ed50 0 unwind_phase2
PUBLIC ee84 0 _Unwind_Resume
PUBLIC ef08 0 unwind_phase2_forced
PUBLIC m effc 0 __unw_init_local
PUBLIC m f0a4 0 __unw_get_reg
PUBLIC f120 0 __unw_step_stage2
PUBLIC m f134 0 __unw_get_proc_info
PUBLIC m f174 0 __unw_resume
PUBLIC f19c 0 libunwind::CFI_Parser<libunwind::LocalAddressSpace>::decodeFDE(libunwind::LocalAddressSpace&, unsigned long, libunwind::CFI_Parser<libunwind::LocalAddressSpace>::FDE_Info*, libunwind::CFI_Parser<libunwind::LocalAddressSpace>::CIE_Info*, bool)
PUBLIC f32c 0 libunwind::CFI_Parser<libunwind::LocalAddressSpace>::parseCIE(libunwind::LocalAddressSpace&, unsigned long, libunwind::CFI_Parser<libunwind::LocalAddressSpace>::CIE_Info*)
PUBLIC f5f4 0 libunwind::AbstractUnwindCursor::~AbstractUnwindCursor()
PUBLIC f5fc 0 libunwind::UnwindCursor<libunwind::LocalAddressSpace, libunwind::Registers_arm64>::~UnwindCursor()
PUBLIC f604 0 libunwind::UnwindCursor<libunwind::LocalAddressSpace, libunwind::Registers_arm64>::validReg(int)
PUBLIC f648 0 libunwind::UnwindCursor<libunwind::LocalAddressSpace, libunwind::Registers_arm64>::getReg(int)
PUBLIC f730 0 libunwind::UnwindCursor<libunwind::LocalAddressSpace, libunwind::Registers_arm64>::setReg(int, unsigned long)
PUBLIC f818 0 libunwind::UnwindCursor<libunwind::LocalAddressSpace, libunwind::Registers_arm64>::validFloatReg(int)
PUBLIC f82c 0 libunwind::UnwindCursor<libunwind::LocalAddressSpace, libunwind::Registers_arm64>::getFloatReg(int)
PUBLIC f83c 0 libunwind::UnwindCursor<libunwind::LocalAddressSpace, libunwind::Registers_arm64>::setFloatReg(int, double)
PUBLIC f84c 0 libunwind::UnwindCursor<libunwind::LocalAddressSpace, libunwind::Registers_arm64>::step(bool)
PUBLIC f93c 0 libunwind::UnwindCursor<libunwind::LocalAddressSpace, libunwind::Registers_arm64>::getInfo(unw_proc_info_t*)
PUBLIC f980 0 libunwind::UnwindCursor<libunwind::LocalAddressSpace, libunwind::Registers_arm64>::jumpto()
PUBLIC f98c 0 libunwind::UnwindCursor<libunwind::LocalAddressSpace, libunwind::Registers_arm64>::isSignalFrame()
PUBLIC f998 0 libunwind::UnwindCursor<libunwind::LocalAddressSpace, libunwind::Registers_arm64>::getFunctionName(char*, unsigned long, unsigned long*)
PUBLIC f9c4 0 libunwind::UnwindCursor<libunwind::LocalAddressSpace, libunwind::Registers_arm64>::setInfoBasedOnIPRegister(bool)
PUBLIC fc44 0 libunwind::UnwindCursor<libunwind::LocalAddressSpace, libunwind::Registers_arm64>::getRegisterName(int)
PUBLIC fc50 0 libunwind::UnwindCursor<libunwind::LocalAddressSpace, libunwind::Registers_arm64>::stepThroughSigReturn(libunwind::Registers_arm64&)
PUBLIC fd70 0 libunwind::DwarfInstructions<libunwind::LocalAddressSpace, libunwind::Registers_arm64>::stepWithDwarf(libunwind::LocalAddressSpace&, unsigned long, unsigned long, libunwind::Registers_arm64&, bool&, bool)
PUBLIC 101f8 0 libunwind::CFI_Parser<libunwind::LocalAddressSpace>::parseFDEInstructions(libunwind::LocalAddressSpace&, libunwind::CFI_Parser<libunwind::LocalAddressSpace>::FDE_Info const&, libunwind::CFI_Parser<libunwind::LocalAddressSpace>::CIE_Info const&, unsigned long, int, libunwind::CFI_Parser<libunwind::LocalAddressSpace>::PrologInfo*)
PUBLIC 10e40 0 libunwind::DwarfInstructions<libunwind::LocalAddressSpace, libunwind::Registers_arm64>::getCFA(libunwind::LocalAddressSpace&, libunwind::CFI_Parser<libunwind::LocalAddressSpace>::PrologInfo const&, libunwind::Registers_arm64 const&)
PUBLIC 10f74 0 libunwind::DwarfInstructions<libunwind::LocalAddressSpace, libunwind::Registers_arm64>::getSavedRegister(libunwind::LocalAddressSpace&, libunwind::Registers_arm64 const&, unsigned long, libunwind::CFI_Parser<libunwind::LocalAddressSpace>::RegisterLocation const&)
PUBLIC 11184 0 libunwind::LocalAddressSpace::getEncodedP(unsigned long&, unsigned long, unsigned char, unsigned long)
PUBLIC 11510 0 libunwind::LocalAddressSpace::getULEB128(unsigned long&, unsigned long)
PUBLIC 116d8 0 libunwind::DwarfInstructions<libunwind::LocalAddressSpace, libunwind::Registers_arm64>::evaluateExpression(unsigned long, libunwind::LocalAddressSpace&, libunwind::Registers_arm64 const&, unsigned long)
PUBLIC 12094 0 libunwind::UnwindCursor<libunwind::LocalAddressSpace, libunwind::Registers_arm64>::getInfoFromDwarfSection(unsigned long, libunwind::UnwindInfoSections const&, unsigned int)
PUBLIC 12368 0 libunwind::findUnwindSectionsByPhdr(dl_phdr_info*, unsigned long, void*)
PUBLIC 1249c 0 libunwind::EHHeaderParser<libunwind::LocalAddressSpace>::decodeEHHdr(libunwind::LocalAddressSpace&, unsigned long, unsigned long, libunwind::EHHeaderParser<libunwind::LocalAddressSpace>::EHHeaderInfo&)
PUBLIC 125bc 0 libunwind::CFI_Parser<libunwind::LocalAddressSpace>::findFDE(libunwind::LocalAddressSpace&, unsigned long, unsigned long, unsigned long, unsigned long, libunwind::CFI_Parser<libunwind::LocalAddressSpace>::FDE_Info*, libunwind::CFI_Parser<libunwind::LocalAddressSpace>::CIE_Info*)
PUBLIC 12784 0 libunwind::EHHeaderParser<libunwind::LocalAddressSpace>::findFDE(libunwind::LocalAddressSpace&, unsigned long, unsigned long, unsigned int, libunwind::CFI_Parser<libunwind::LocalAddressSpace>::FDE_Info*, libunwind::CFI_Parser<libunwind::LocalAddressSpace>::CIE_Info*)
PUBLIC 128ec 0 libunwind::EHHeaderParser<libunwind::LocalAddressSpace>::getTableEntrySize(unsigned char)
PUBLIC 129e8 0 libunwind::Registers_arm64::getRegisterName(int)
PUBLIC 12a18 0 __libunwind_Registers_arm64_jumpto
PUBLIC m 12aa8 0 __unw_getcontext
PUBLIC 12b50 0 __aarch64_ldadd8_relax
PUBLIC 12b80 0 init_have_lse_atomics
PUBLIC 12c18 0 __init_cpu_features_constructor
PUBLIC 131b4 0 __init_cpu_features
PUBLIC 13240 0 __aarch64_ldadd8_acq_rel
PUBLIC 13270 0 __cxx_global_var_init
PUBLIC 136f0 0 geode::modifier::ModifyBase<geode::modifier::ModifyDerive<GJGarageLayerModify, GJGarageLayer> >::~ModifyBase()
PUBLIC 1370c 0 __cxx_global_var_init.1
PUBLIC 13b48 0 geode::modifier::ModifyBase<geode::modifier::ModifyDerive<hook124<(anonymous namespace)::hook124Parent>, CharacterColorPage> >::~ModifyBase()
PUBLIC 13b64 0 geode::modifier::ModifyDerive<GJGarageLayerModify, GJGarageLayer>::apply()
PUBLIC 149c8 0 std::__ndk1::shared_ptr<geode::Hook>::~shared_ptr[abi:ne180000]()
PUBLIC 14a18 0 geode::impl::ResultData<geode::Hook*, std::__ndk1::basic_string<char, std::__ndk1::char_traits<char>, std::__ndk1::allocator<char> > >::~ResultData()
PUBLIC 14a8c 0 std::__ndk1::vector<std::__ndk1::basic_string<char, std::__ndk1::char_traits<char>, std::__ndk1::allocator<char> >, std::__ndk1::allocator<std::__ndk1::basic_string<char, std::__ndk1::char_traits<char>, std::__ndk1::allocator<char> > > >::~vector[abi:ne180000]()
PUBLIC 14b08 0 geode::modifier::ModifyBase<geode::modifier::ModifyDerive<GJGarageLayerModify, GJGarageLayer> >::apply()
PUBLIC 14b0c 0 __clang_call_terminate
PUBLIC 14b1c 0 _ZN5geode15UnwrapExceptionC2IRPNS_4HookEQsr4implE18IsStringStreamableIT_EEENS_4impl5OkTagEOS5_
PUBLIC 14c70 0 std::__ndk1::__throw_bad_variant_access[abi:ne180000]()
PUBLIC 14ca4 0 std::__ndk1::basic_stringstream<char, std::__ndk1::char_traits<char>, std::__ndk1::allocator<char> >::basic_stringstream[abi:ne180000]()
PUBLIC m 14dd0 0 std::__ndk1::basic_stringstream<char, std::__ndk1::char_traits<char>, std::__ndk1::allocator<char> >::~basic_stringstream()
PUBLIC 14e50 0 geode::UnwrapException::~UnwrapException()
PUBLIC 14e74 0 std::__ndk1::__put_character_sequence[abi:ne180000]<char, std::__ndk1::char_traits<char> >(std::__ndk1::basic_ostream<char, std::__ndk1::char_traits<char> >, std::__ndk1::basic_ostream const*, unsigned long)
PUBLIC 15018 0 std::__ndk1::__pad_and_output[abi:ne180000]<char, std::__ndk1::char_traits<char> >(std::__ndk1::char_traits<char>, std::__ndk1::ostreambuf_iterator const*, std::__ndk1::ostreambuf_iterator const, std::__ndk1::ostreambuf_iterator const, std::__ndk1::ios_base&, std::__ndk1::ostreambuf_iterator)
PUBLIC 151f4 0 std::__ndk1::basic_string<char, std::__ndk1::char_traits<char>, std::__ndk1::allocator<char> >::__throw_length_error[abi:ne180000]() const
PUBLIC 15208 0 std::__ndk1::__throw_length_error[abi:ne180000](char const*)
PUBLIC 15258 0 std::length_error::length_error[abi:ne180000](char const*)
PUBLIC 15288 0 std::__throw_bad_array_new_length([abi:ne180000], void)
PUBLIC 152bc 0 std::__ndk1::basic_stringbuf<char, std::__ndk1::char_traits<char>, std::__ndk1::allocator<char> >::str[abi:ne180000]() &&
PUBLIC 15434 0 std::__ndk1::basic_stringbuf<char, std::__ndk1::char_traits<char>, std::__ndk1::allocator<char> >::__init_buf_ptrs[abi:ne180000]()
PUBLIC 1557c 0 std::__ndk1::vector<std::__ndk1::basic_string<char, std::__ndk1::char_traits<char>, std::__ndk1::allocator<char> >, std::__ndk1::allocator<std::__ndk1::basic_string<char, std::__ndk1::char_traits<char>, std::__ndk1::allocator<char> > > >::__push_back_slow_path<std::__ndk1::basic_string<char, std::__ndk1::char_traits<char>, std::__ndk1::allocator<char> > const&>(std::__ndk1::basic_string<char, std::__ndk1::char_traits<char>, std::__ndk1::allocator<char> > const&)
PUBLIC 157a4 0 std::__ndk1::basic_string<char, std::__ndk1::char_traits<char>, std::__ndk1::allocator<char> >::__init_copy_ctor_external(char const*, unsigned long)
PUBLIC 15824 0 std::__ndk1::__split_buffer<std::__ndk1::basic_string<char, std::__ndk1::char_traits<char>, std::__ndk1::allocator<char> >, std::__ndk1::allocator<std::__ndk1::basic_string<char, std::__ndk1::char_traits<char>, std::__ndk1::allocator<char> > >&>::~__split_buffer()
PUBLIC 1588c 0 std::__ndk1::vector<std::__ndk1::basic_string<char, std::__ndk1::char_traits<char>, std::__ndk1::allocator<char> >, std::__ndk1::allocator<std::__ndk1::basic_string<char, std::__ndk1::char_traits<char>, std::__ndk1::allocator<char> > > >::__throw_length_error[abi:ne180000]() const
PUBLIC 158a0 0 std::__ndk1::__variant_detail::__visitation::__base::__dispatcher<(unsigned long)0>::__dispatch[abi:ne180000]<std::__ndk1::__variant_detail::__dtor<std::__ndk1::__variant_detail::__traits<geode::Hook*, std::__ndk1::basic_string<char, std::__ndk1::char_traits<char>, std::__ndk1::allocator<char> > >, (std::__ndk1::__variant_detail::_Trait)1>::__destroy[abi:ne180000]()::{lambda(auto:1&)#1}, std::__ndk1::__variant_detail::__base<(std::__ndk1::__variant_detail::__traits<geode::Hook*, std::__ndk1::basic_string<char, std::__ndk1::char_traits<char>, std::__ndk1::allocator<char> > >)1, geode::Hook, std::__ndk1::allocator<char> >&>(std::__ndk1::__variant_detail::__dtor<std::__ndk1::__variant_detail::__traits<geode::Hook*, std::__ndk1::basic_string<char, std::__ndk1::char_traits<char>, std::__ndk1::allocator<char> > >, (std::__ndk1::__variant_detail::_Trait)1>, std::__ndk1::__variant_detail::__base<(std::__ndk1::__variant_detail::__traits<geode::Hook*, std::__ndk1::basic_string<char, std::__ndk1::char_traits<char>, std::__ndk1::allocator<char> > >)1, geode::Hook, std::__ndk1::allocator<char> >&)
PUBLIC 158a4 0 std::__ndk1::__variant_detail::__visitation::__base::__dispatcher<(unsigned long)1>::__dispatch[abi:ne180000]<std::__ndk1::__variant_detail::__dtor<std::__ndk1::__variant_detail::__traits<geode::Hook*, std::__ndk1::basic_string<char, std::__ndk1::char_traits<char>, std::__ndk1::allocator<char> > >, (std::__ndk1::__variant_detail::_Trait)1>::__destroy[abi:ne180000]()::{lambda(auto:1&)#1}, std::__ndk1::__variant_detail::__base<(std::__ndk1::__variant_detail::__traits<geode::Hook*, std::__ndk1::basic_string<char, std::__ndk1::char_traits<char>, std::__ndk1::allocator<char> > >)1, geode::Hook, std::__ndk1::allocator<char> >&>(std::__ndk1::__variant_detail::__dtor<std::__ndk1::__variant_detail::__traits<geode::Hook*, std::__ndk1::basic_string<char, std::__ndk1::char_traits<char>, std::__ndk1::allocator<char> > >, (std::__ndk1::__variant_detail::_Trait)1>, std::__ndk1::__variant_detail::__base<(std::__ndk1::__variant_detail::__traits<geode::Hook*, std::__ndk1::basic_string<char, std::__ndk1::char_traits<char>, std::__ndk1::allocator<char> > >)1, geode::Hook, std::__ndk1::allocator<char> >&)
PUBLIC 158b8 0 std::__ndk1::__tree<std::__ndk1::__value_type<std::__ndk1::basic_string<char, std::__ndk1::char_traits<char>, std::__ndk1::allocator<char> >, std::__ndk1::shared_ptr<geode::Hook> >, std::__ndk1::__map_value_compare<std::__ndk1::basic_string<char, std::__ndk1::char_traits<char>, std::__ndk1::allocator<char> >, std::__ndk1::__value_type<std::__ndk1::basic_string<char, std::__ndk1::char_traits<char>, std::__ndk1::allocator<char> >, std::__ndk1::shared_ptr<geode::Hook> >, std::__ndk1::less<std::__ndk1::basic_string<char, std::__ndk1::char_traits<char>, std::__ndk1::allocator<char> > >, true>, std::__ndk1::allocator<std::__ndk1::__value_type<std::__ndk1::basic_string<char, std::__ndk1::char_traits<char>, std::__ndk1::allocator<char> >, std::__ndk1::shared_ptr<geode::Hook> > > >::find<std::__ndk1::basic_string<char, std::__ndk1::char_traits<char>, std::__ndk1::allocator<char> > >(std::__ndk1::basic_string<char, std::__ndk1::char_traits<char>, std::__ndk1::allocator<char> > const&)
PUBLIC 159d8 0 std::__ndk1::__tree<std::__ndk1::__value_type<std::__ndk1::basic_string<char, std::__ndk1::char_traits<char>, std::__ndk1::allocator<char> >, std::__ndk1::shared_ptr<geode::Hook> >, std::__ndk1::__map_value_compare<std::__ndk1::basic_string<char, std::__ndk1::char_traits<char>, std::__ndk1::allocator<char> >, std::__ndk1::__value_type<std::__ndk1::basic_string<char, std::__ndk1::char_traits<char>, std::__ndk1::allocator<char> >, std::__ndk1::shared_ptr<geode::Hook> >, std::__ndk1::less<std::__ndk1::basic_string<char, std::__ndk1::char_traits<char>, std::__ndk1::allocator<char> > >, true>, std::__ndk1::allocator<std::__ndk1::__value_type<std::__ndk1::basic_string<char, std::__ndk1::char_traits<char>, std::__ndk1::allocator<char> >, std::__ndk1::shared_ptr<geode::Hook> > > >::erase(std::__ndk1::__tree_const_iterator<std::__ndk1::__value_type<std::__ndk1::basic_string<char, std::__ndk1::char_traits<char>, std::__ndk1::allocator<char> >, std::__ndk1::shared_ptr<geode::Hook> >, std::__ndk1::__tree_node<std::__ndk1::__value_type<std::__ndk1::basic_string<char, std::__ndk1::char_traits<char>, std::__ndk1::allocator<char> >, std::__ndk1::shared_ptr<geode::Hook> >, void*>*, long>)
PUBLIC 15aac 0 std::__ndk1::__tree_remove[abi:ne180000]<std::__ndk1::__tree_node_base<void*>*>(std::__ndk1::__tree_node_base<void*>*, std::__ndk1::__tree_node_base<void*>*)
PUBLIC 15e74 0 std::__ndk1::__tree<std::__ndk1::__value_type<std::__ndk1::basic_string<char, std::__ndk1::char_traits<char>, std::__ndk1::allocator<char> >, std::__ndk1::shared_ptr<geode::Hook> >, std::__ndk1::__map_value_compare<std::__ndk1::basic_string<char, std::__ndk1::char_traits<char>, std::__ndk1::allocator<char> >, std::__ndk1::__value_type<std::__ndk1::basic_string<char, std::__ndk1::char_traits<char>, std::__ndk1::allocator<char> >, std::__ndk1::shared_ptr<geode::Hook> >, std::__ndk1::less<std::__ndk1::basic_string<char, std::__ndk1::char_traits<char>, std::__ndk1::allocator<char> > >, true>, std::__ndk1::allocator<std::__ndk1::__value_type<std::__ndk1::basic_string<char, std::__ndk1::char_traits<char>, std::__ndk1::allocator<char> >, std::__ndk1::shared_ptr<geode::Hook> > > >::destroy(std::__ndk1::__tree_node<std::__ndk1::__value_type<std::__ndk1::basic_string<char, std::__ndk1::char_traits<char>, std::__ndk1::allocator<char> >, std::__ndk1::shared_ptr<geode::Hook> >, void*>*)
PUBLIC 15f00 0 geode::modifier::AsStaticFunction_onSelect<GJGarageLayerModify, void (GJGarageLayerModify::*)(cocos2d::CCObject*)>::Impl<void (GJGarageLayerModify::*)(cocos2d::CCObject*)>::function(GJGarageLayerModify*, cocos2d::CCObject*)
PUBLIC 16144 0 geode::modifier::AsStaticFunction_selectTab<GJGarageLayerModify, void (GJGarageLayerModify::*)(IconType)>::Impl<void (GJGarageLayerModify::*)(IconType)>::function(GJGarageLayerModify*, IconType)
PUBLIC 16168 0 geode::modifier::AsStaticFunction_setupPage<GJGarageLayerModify, void (GJGarageLayerModify::*)(int, IconType)>::Impl<void (GJGarageLayerModify::*)(int, IconType)>::function(GJGarageLayerModify*, int, IconType)
PUBLIC 161c0 0 geode::modifier::AsStaticFunction_updatePlayerColors<GJGarageLayerModify, void (GJGarageLayerModify::*)()>::Impl<void (GJGarageLayerModify::*)()>::function(GJGarageLayerModify*)
PUBLIC 161e4 0 geode::modifier::AsStaticFunction_init<GJGarageLayerModify, bool (GJGarageLayerModify::*)()>::Impl<bool (GJGarageLayerModify::*)()>::function(GJGarageLayerModify*)
PUBLIC 16358 0 std::__ndk1::shared_ptr<tulip::hook::CallingConvention>::~shared_ptr[abi:ne180000]()
PUBLIC 163a8 0 tulip::hook::HandlerMetadata::~HandlerMetadata()
PUBLIC 1640c 0 GJGarageLayerModify::getIsP2()
PUBLIC 16594 0 GJGarageLayerModify::customUpdateColors()
PUBLIC 16ba8 0 geode::modifier::FieldIntermediate<GJGarageLayerModify, GJGarageLayer>::self()
PUBLIC 16d34 0 geode::modifier::FieldContainer::getField(unsigned long)
PUBLIC 16fec 0 geode::modifier::FieldContainer::setField(unsigned long, unsigned long, std::__ndk1::function<void (void*)>)
PUBLIC 17100 0 geode::modifier::FieldIntermediate<GJGarageLayerModify, GJGarageLayer>::fieldDestructor(void*)
PUBLIC 17104 0 std::__ndk1::vector<void*, std::__ndk1::allocator<void*> >::__throw_length_error[abi:ne180000]() const
PUBLIC 17118 0 std::__ndk1::vector<std::__ndk1::function<void (void*)>, std::__ndk1::allocator<std::__ndk1::function<void (void*)> > >::__push_back_slow_path<std::__ndk1::function<void (void*)> >(std::__ndk1::function<void (void*)>&&)
PUBLIC 17344 0 std::__ndk1::vector<std::__ndk1::function<void (void*)>, std::__ndk1::allocator<std::__ndk1::function<void (void*)> > >::__throw_length_error[abi:ne180000]() const
PUBLIC 17358 0 std::__ndk1::vector<void*, std::__ndk1::allocator<void*> >::__throw_out_of_range[abi:ne180000]() const
PUBLIC 1736c 0 std::__ndk1::__throw_out_of_range[abi:ne180000](char const*)
PUBLIC 173bc 0 std::out_of_range::out_of_range[abi:ne180000](char const*)
PUBLIC 173ec 0 std::__ndk1::vector<std::__ndk1::function<void (void*)>, std::__ndk1::allocator<std::__ndk1::function<void (void*)> > >::__throw_out_of_range[abi:ne180000]() const
PUBLIC 17400 0 std::__ndk1::__function::__base<void (void*)>::~__base()
PUBLIC 17404 0 std::__ndk1::__function::__func<void (*)(void*), std::__ndk1::allocator<void (*)(void*)>, void (void*)>::~__func()
PUBLIC 17408 0 std::__ndk1::__function::__func<void (*)(void*), std::__ndk1::allocator<void (*)(void*)>, void (void*)>::__clone() const
PUBLIC 17440 0 std::__ndk1::__function::__func<void (*)(void*), std::__ndk1::allocator<void (*)(void*)>, void (void*)>::__clone(std::__ndk1::__function::__base<void (void*)>*) const
PUBLIC 17458 0 std::__ndk1::__function::__func<void (*)(void*), std::__ndk1::allocator<void (*)(void*)>, void (void*)>::destroy()
PUBLIC 1745c 0 std::__ndk1::__function::__func<void (*)(void*), std::__ndk1::allocator<void (*)(void*)>, void (void*)>::destroy_deallocate()
PUBLIC 17460 0 std::__ndk1::__function::__func<void (*)(void*), std::__ndk1::allocator<void (*)(void*)>, void (void*)>::operator()(void*&&)
PUBLIC 17470 0 std::__ndk1::__function::__func<void (*)(void*), std::__ndk1::allocator<void (*)(void*)>, void (void*)>::target(std::type_info const&) const
PUBLIC 1748c 0 std::__ndk1::__function::__func<void (*)(void*), std::__ndk1::allocator<void (*)(void*)>, void (void*)>::target_type() const
PUBLIC 17498 0 geode::Mod::getSavedValue<int>(std::__ndk1::basic_string_view<char, std::__ndk1::char_traits<char> >)
PUBLIC 1761c 0 geode::impl::ResultData<matjson::Value&, std::__ndk1::basic_string<char, std::__ndk1::char_traits<char>, std::__ndk1::allocator<char> > >::~ResultData()
PUBLIC 17690 0 matjson::Value::as<int>() const
PUBLIC 17794 0 std::__ndk1::__variant_detail::__visitation::__base::__dispatcher<(unsigned long)0>::__dispatch[abi:ne180000]<std::__ndk1::__variant_detail::__dtor<std::__ndk1::__variant_detail::__traits<long, std::__ndk1::basic_string<char, std::__ndk1::char_traits<char>, std::__ndk1::allocator<char> > >, (std::__ndk1::__variant_detail::_Trait)1>::__destroy[abi:ne180000]()::{lambda(auto:1&)#1}, std::__ndk1::__variant_detail::__base<(std::__ndk1::__variant_detail::__traits<long, std::__ndk1::basic_string<char, std::__ndk1::char_traits<char>, std::__ndk1::allocator<char> > >)1, long, std::__ndk1::allocator<char> >&>(std::__ndk1::__variant_detail::__dtor<std::__ndk1::__variant_detail::__traits<long, std::__ndk1::basic_string<char, std::__ndk1::char_traits<char>, std::__ndk1::allocator<char> > >, (std::__ndk1::__variant_detail::_Trait)1>, std::__ndk1::__variant_detail::__base<(std::__ndk1::__variant_detail::__traits<long, std::__ndk1::basic_string<char, std::__ndk1::char_traits<char>, std::__ndk1::allocator<char> > >)1, long, std::__ndk1::allocator<char> >&)
PUBLIC 17798 0 std::__ndk1::__variant_detail::__visitation::__base::__dispatcher<(unsigned long)1>::__dispatch[abi:ne180000]<std::__ndk1::__variant_detail::__dtor<std::__ndk1::__variant_detail::__traits<long, std::__ndk1::basic_string<char, std::__ndk1::char_traits<char>, std::__ndk1::allocator<char> > >, (std::__ndk1::__variant_detail::_Trait)1>::__destroy[abi:ne180000]()::{lambda(auto:1&)#1}, std::__ndk1::__variant_detail::__base<(std::__ndk1::__variant_detail::__traits<long, std::__ndk1::basic_string<char, std::__ndk1::char_traits<char>, std::__ndk1::allocator<char> > >)1, long, std::__ndk1::allocator<char> >&>(std::__ndk1::__variant_detail::__dtor<std::__ndk1::__variant_detail::__traits<long, std::__ndk1::basic_string<char, std::__ndk1::char_traits<char>, std::__ndk1::allocator<char> > >, (std::__ndk1::__variant_detail::_Trait)1>, std::__ndk1::__variant_detail::__base<(std::__ndk1::__variant_detail::__traits<long, std::__ndk1::basic_string<char, std::__ndk1::char_traits<char>, std::__ndk1::allocator<char> > >)1, long, std::__ndk1::allocator<char> >&)
PUBLIC 177ac 0 std::__ndk1::__variant_detail::__visitation::__base::__dispatcher<(unsigned long)0>::__dispatch[abi:ne180000]<std::__ndk1::__variant_detail::__dtor<std::__ndk1::__variant_detail::__traits<std::__ndk1::reference_wrapper<matjson::Value>, std::__ndk1::basic_string<char, std::__ndk1::char_traits<char>, std::__ndk1::allocator<char> > >, (std::__ndk1::__variant_detail::_Trait)1>::__destroy[abi:ne180000]()::{lambda(auto:1&)#1}, std::__ndk1::__variant_detail::__base<(std::__ndk1::__variant_detail::__traits<std::__ndk1::reference_wrapper<matjson::Value>, std::__ndk1::basic_string<char, std::__ndk1::char_traits<char>, std::__ndk1::allocator<char> > >)1, matjson::Value, std::__ndk1::allocator<char> >&>(std::__ndk1::__variant_detail::__dtor<std::__ndk1::__variant_detail::__traits<std::__ndk1::reference_wrapper<matjson::Value>, std::__ndk1::basic_string<char, std::__ndk1::char_traits<char>, std::__ndk1::allocator<char> > >, (std::__ndk1::__variant_detail::_Trait)1>, std::__ndk1::__variant_detail::__base<(std::__ndk1::__variant_detail::__traits<std::__ndk1::reference_wrapper<matjson::Value>, std::__ndk1::basic_string<char, std::__ndk1::char_traits<char>, std::__ndk1::allocator<char> > >)1, matjson::Value, std::__ndk1::allocator<char> >&)
PUBLIC 177b0 0 std::__ndk1::__variant_detail::__visitation::__base::__dispatcher<(unsigned long)1>::__dispatch[abi:ne180000]<std::__ndk1::__variant_detail::__dtor<std::__ndk1::__variant_detail::__traits<std::__ndk1::reference_wrapper<matjson::Value>, std::__ndk1::basic_string<char, std::__ndk1::char_traits<char>, std::__ndk1::allocator<char> > >, (std::__ndk1::__variant_detail::_Trait)1>::__destroy[abi:ne180000]()::{lambda(auto:1&)#1}, std::__ndk1::__variant_detail::__base<(std::__ndk1::__variant_detail::__traits<std::__ndk1::reference_wrapper<matjson::Value>, std::__ndk1::basic_string<char, std::__ndk1::char_traits<char>, std::__ndk1::allocator<char> > >)1, matjson::Value, std::__ndk1::allocator<char> >&>(std::__ndk1::__variant_detail::__dtor<std::__ndk1::__variant_detail::__traits<std::__ndk1::reference_wrapper<matjson::Value>, std::__ndk1::basic_string<char, std::__ndk1::char_traits<char>, std::__ndk1::allocator<char> > >, (std::__ndk1::__variant_detail::_Trait)1>, std::__ndk1::__variant_detail::__base<(std::__ndk1::__variant_detail::__traits<std::__ndk1::reference_wrapper<matjson::Value>, std::__ndk1::basic_string<char, std::__ndk1::char_traits<char>, std::__ndk1::allocator<char> > >)1, matjson::Value, std::__ndk1::allocator<char> >&)
PUBLIC 177c4 0 std::__ndk1::__variant_detail::__visitation::__base::__dispatcher<(unsigned long)0>::__dispatch[abi:ne180000]<std::__ndk1::__variant_detail::__dtor<std::__ndk1::__variant_detail::__traits<int, std::__ndk1::basic_string<char, std::__ndk1::char_traits<char>, std::__ndk1::allocator<char> > >, (std::__ndk1::__variant_detail::_Trait)1>::__destroy[abi:ne180000]()::{lambda(auto:1&)#1}, std::__ndk1::__variant_detail::__base<(std::__ndk1::__variant_detail::__traits<int, std::__ndk1::basic_string<char, std::__ndk1::char_traits<char>, std::__ndk1::allocator<char> > >)1, int, std::__ndk1::allocator<char> >&>(std::__ndk1::__variant_detail::__dtor<std::__ndk1::__variant_detail::__traits<int, std::__ndk1::basic_string<char, std::__ndk1::char_traits<char>, std::__ndk1::allocator<char> > >, (std::__ndk1::__variant_detail::_Trait)1>, std::__ndk1::__variant_detail::__base<(std::__ndk1::__variant_detail::__traits<int, std::__ndk1::basic_string<char, std::__ndk1::char_traits<char>, std::__ndk1::allocator<char> > >)1, int, std::__ndk1::allocator<char> >&)
PUBLIC 177c8 0 std::__ndk1::__variant_detail::__visitation::__base::__dispatcher<(unsigned long)1>::__dispatch[abi:ne180000]<std::__ndk1::__variant_detail::__dtor<std::__ndk1::__variant_detail::__traits<int, std::__ndk1::basic_string<char, std::__ndk1::char_traits<char>, std::__ndk1::allocator<char> > >, (std::__ndk1::__variant_detail::_Trait)1>::__destroy[abi:ne180000]()::{lambda(auto:1&)#1}, std::__ndk1::__variant_detail::__base<(std::__ndk1::__variant_detail::__traits<int, std::__ndk1::basic_string<char, std::__ndk1::char_traits<char>, std::__ndk1::allocator<char> > >)1, int, std::__ndk1::allocator<char> >&>(std::__ndk1::__variant_detail::__dtor<std::__ndk1::__variant_detail::__traits<int, std::__ndk1::basic_string<char, std::__ndk1::char_traits<char>, std::__ndk1::allocator<char> > >, (std::__ndk1::__variant_detail::_Trait)1>, std::__ndk1::__variant_detail::__base<(std::__ndk1::__variant_detail::__traits<int, std::__ndk1::basic_string<char, std::__ndk1::char_traits<char>, std::__ndk1::allocator<char> > >)1, int, std::__ndk1::allocator<char> >&)
PUBLIC 177dc 0 geode::Mod::getSavedValue<int>(std::__ndk1::basic_string_view<char, std::__ndk1::char_traits<char> >, int const&)
PUBLIC 179b8 0 std::__ndk1::__tree<std::__ndk1::__value_type<std::__ndk1::basic_string<char, std::__ndk1::char_traits<char>, std::__ndk1::allocator<char> >, std::__ndk1::shared_ptr<geode::Hook> >, std::__ndk1::__map_value_compare<std::__ndk1::basic_string<char, std::__ndk1::char_traits<char>, std::__ndk1::allocator<char> >, std::__ndk1::__value_type<std::__ndk1::basic_string<char, std::__ndk1::char_traits<char>, std::__ndk1::allocator<char> >, std::__ndk1::shared_ptr<geode::Hook> >, std::__ndk1::less<std::__ndk1::basic_string<char, std::__ndk1::char_traits<char>, std::__ndk1::allocator<char> > >, true>, std::__ndk1::allocator<std::__ndk1::__value_type<std::__ndk1::basic_string<char, std::__ndk1::char_traits<char>, std::__ndk1::allocator<char> >, std::__ndk1::shared_ptr<geode::Hook> > > >::__emplace_unique_key_args<std::__ndk1::basic_string<char, std::__ndk1::char_traits<char>, std::__ndk1::allocator<char> >, std::__ndk1::piecewise_construct_t const&, std::__ndk1::tuple<std::__ndk1::basic_string<char, std::__ndk1::char_traits<char>, std::__ndk1::allocator<char> >&&>, std::__ndk1::tuple<> >(std::__ndk1::basic_string<char, std::__ndk1::char_traits<char>, std::__ndk1::allocator<char> > const&, std::__ndk1::piecewise_construct_t const&, std::__ndk1::tuple<std::__ndk1::basic_string<char, std::__ndk1::char_traits<char>, std::__ndk1::allocator<char> >&&>, std::__ndk1::tuple<>)
PUBLIC 17b30 0 std::__ndk1::__tree_balance_after_insert[abi:ne180000]<std::__ndk1::__tree_node_base<void*>*>(std::__ndk1::__tree_node_base<void*>*, std::__ndk1::__tree_node_base<void*>*)
PUBLIC 17ce0 0 geode::addresser::Addresser::addressOfVirtual<bool, GJGarageLayer, >(bool (GJGarageLayer::*)())
PUBLIC 17d88 0 GJGarageLayer::GJGarageLayer(geode::ZeroConstructorType)
PUBLIC 17e3c 0 GJGarageLayerModify::onColorOverrideButton(cocos2d::CCObject*)
PUBLIC 17e58 0 geode::modifier::ModifyDerive<hook124<(anonymous namespace)::hook124Parent>, CharacterColorPage>::apply()
PUBLIC 181dc 0 geode::modifier::ModifyBase<geode::modifier::ModifyDerive<hook124<(anonymous namespace)::hook124Parent>, CharacterColorPage> >::apply()
PUBLIC 181e0 0 geode::modifier::AsStaticFunction_onPlayerColor<hook124<(anonymous namespace)::hook124Parent>, void (hook124<(anonymous namespace)::hook124Parent>::*)(cocos2d::CCObject*)>::Impl<void (hook124<(anonymous namespace)::hook124Parent>::*)(cocos2d::CCObject*)>::function(hook124<(anonymous namespace)::hook124Parent>*, cocos2d::CCObject*)
PUBLIC 18310 0 geodeExecFunction183<(anonymous namespace)::ExecFuncUnique183>(geode::ModStateEvent*)
PUBLIC 18484 0 geode::Mod::setSavedValue<ColorOverride>(std::__ndk1::basic_string_view<char, std::__ndk1::char_traits<char> >, ColorOverride const&)
PUBLIC 18670 0 geode::impl::ResultData<void, std::__ndk1::basic_string<char, std::__ndk1::char_traits<char>, std::__ndk1::allocator<char> > >::~ResultData()
PUBLIC 186e4 0 geode::Mod::getSavedValue<ColorOverride>(std::__ndk1::basic_string_view<char, std::__ndk1::char_traits<char> >, ColorOverride const&)
PUBLIC 188e4 0 geode::Mod::getSavedValue<bool>(std::__ndk1::basic_string_view<char, std::__ndk1::char_traits<char> >, bool const&)
PUBLIC 18ad0 0 geode::Mod::setSavedValue<OverridePlayer>(std::__ndk1::basic_string_view<char, std::__ndk1::char_traits<char> >, OverridePlayer const&)
PUBLIC 18bc8 0 geode::Mod::getSavedValue<OverridePlayer>(std::__ndk1::basic_string_view<char, std::__ndk1::char_traits<char> >, OverridePlayer const&)
PUBLIC 18e1c 0 geode::impl::ResultData<int, std::__ndk1::basic_string<char, std::__ndk1::char_traits<char>, std::__ndk1::allocator<char> > >::~ResultData()
PUBLIC 18e90 0 _ZN5geode15UnwrapExceptionC2IRNSt6__ndk112basic_stringIcNS2_11char_traitsIcEENS2_9allocatorIcEEEEQsr4implE18IsStringStreamableIT_EEENS_4impl6ErrTagEOSA_
PUBLIC 18ff8 0 geode::impl::ResultData<ColorOverride, std::__ndk1::basic_string<char, std::__ndk1::char_traits<char>, std::__ndk1::allocator<char> > >::~ResultData()
PUBLIC 1906c 0 matjson::Serialize<ColorOverride>::fromJson(matjson::Value const&)
PUBLIC 19524 0 geode::impl::ResultData<bool, std::__ndk1::basic_string<char, std::__ndk1::char_traits<char>, std::__ndk1::allocator<char> > >::unwrapErr() &&
PUBLIC 1959c 0 geode::impl::ResultData<bool, std::__ndk1::basic_string<char, std::__ndk1::char_traits<char>, std::__ndk1::allocator<char> > >::unwrap() &&
PUBLIC 19614 0 geode::impl::ResultData<bool, std::__ndk1::basic_string<char, std::__ndk1::char_traits<char>, std::__ndk1::allocator<char> > >::~ResultData()
PUBLIC 19688 0 _ZN5geode15UnwrapExceptionC2IRbQsr4implE18IsStringStreamableIT_EEENS_4impl5OkTagEOS3_
PUBLIC 197dc 0 std::__ndk1::__variant_detail::__visitation::__base::__dispatcher<(unsigned long)0>::__dispatch[abi:ne180000]<std::__ndk1::__variant_detail::__dtor<std::__ndk1::__variant_detail::__traits<bool, std::__ndk1::basic_string<char, std::__ndk1::char_traits<char>, std::__ndk1::allocator<char> > >, (std::__ndk1::__variant_detail::_Trait)1>::__destroy[abi:ne180000]()::{lambda(auto:1&)#1}, std::__ndk1::__variant_detail::__base<(std::__ndk1::__variant_detail::__traits<bool, std::__ndk1::basic_string<char, std::__ndk1::char_traits<char>, std::__ndk1::allocator<char> > >)1, bool, std::__ndk1::allocator<char> >&>(std::__ndk1::__variant_detail::__dtor<std::__ndk1::__variant_detail::__traits<bool, std::__ndk1::basic_string<char, std::__ndk1::char_traits<char>, std::__ndk1::allocator<char> > >, (std::__ndk1::__variant_detail::_Trait)1>, std::__ndk1::__variant_detail::__base<(std::__ndk1::__variant_detail::__traits<bool, std::__ndk1::basic_string<char, std::__ndk1::char_traits<char>, std::__ndk1::allocator<char> > >)1, bool, std::__ndk1::allocator<char> >&)
PUBLIC 197e0 0 std::__ndk1::__variant_detail::__visitation::__base::__dispatcher<(unsigned long)1>::__dispatch[abi:ne180000]<std::__ndk1::__variant_detail::__dtor<std::__ndk1::__variant_detail::__traits<bool, std::__ndk1::basic_string<char, std::__ndk1::char_traits<char>, std::__ndk1::allocator<char> > >, (std::__ndk1::__variant_detail::_Trait)1>::__destroy[abi:ne180000]()::{lambda(auto:1&)#1}, std::__ndk1::__variant_detail::__base<(std::__ndk1::__variant_detail::__traits<bool, std::__ndk1::basic_string<char, std::__ndk1::char_traits<char>, std::__ndk1::allocator<char> > >)1, bool, std::__ndk1::allocator<char> >&>(std::__ndk1::__variant_detail::__dtor<std::__ndk1::__variant_detail::__traits<bool, std::__ndk1::basic_string<char, std::__ndk1::char_traits<char>, std::__ndk1::allocator<char> > >, (std::__ndk1::__variant_detail::_Trait)1>, std::__ndk1::__variant_detail::__base<(std::__ndk1::__variant_detail::__traits<bool, std::__ndk1::basic_string<char, std::__ndk1::char_traits<char>, std::__ndk1::allocator<char> > >)1, bool, std::__ndk1::allocator<char> >&)
PUBLIC 197f4 0 std::__ndk1::__variant_detail::__visitation::__base::__dispatcher<(unsigned long)0>::__dispatch[abi:ne180000]<std::__ndk1::__variant_detail::__dtor<std::__ndk1::__variant_detail::__traits<ColorOverride, std::__ndk1::basic_string<char, std::__ndk1::char_traits<char>, std::__ndk1::allocator<char> > >, (std::__ndk1::__variant_detail::_Trait)1>::__destroy[abi:ne180000]()::{lambda(auto:1&)#1}, std::__ndk1::__variant_detail::__base<(std::__ndk1::__variant_detail::__traits<ColorOverride, std::__ndk1::basic_string<char, std::__ndk1::char_traits<char>, std::__ndk1::allocator<char> > >)1, std::__ndk1::__variant_detail::__traits, std::__ndk1::allocator<char> >&>(std::__ndk1::__variant_detail::__dtor<std::__ndk1::__variant_detail::__traits<ColorOverride, std::__ndk1::basic_string<char, std::__ndk1::char_traits<char>, std::__ndk1::allocator<char> > >, (std::__ndk1::__variant_detail::_Trait)1>, std::__ndk1::__variant_detail::__base<(std::__ndk1::__variant_detail::__traits<ColorOverride, std::__ndk1::basic_string<char, std::__ndk1::char_traits<char>, std::__ndk1::allocator<char> > >)1, std::__ndk1::__variant_detail::__traits, std::__ndk1::allocator<char> >&)
PUBLIC 197f8 0 std::__ndk1::__variant_detail::__visitation::__base::__dispatcher<(unsigned long)1>::__dispatch[abi:ne180000]<std::__ndk1::__variant_detail::__dtor<std::__ndk1::__variant_detail::__traits<ColorOverride, std::__ndk1::basic_string<char, std::__ndk1::char_traits<char>, std::__ndk1::allocator<char> > >, (std::__ndk1::__variant_detail::_Trait)1>::__destroy[abi:ne180000]()::{lambda(auto:1&)#1}, std::__ndk1::__variant_detail::__base<(std::__ndk1::__variant_detail::__traits<ColorOverride, std::__ndk1::basic_string<char, std::__ndk1::char_traits<char>, std::__ndk1::allocator<char> > >)1, std::__ndk1::__variant_detail::__traits, std::__ndk1::allocator<char> >&>(std::__ndk1::__variant_detail::__dtor<std::__ndk1::__variant_detail::__traits<ColorOverride, std::__ndk1::basic_string<char, std::__ndk1::char_traits<char>, std::__ndk1::allocator<char> > >, (std::__ndk1::__variant_detail::_Trait)1>, std::__ndk1::__variant_detail::__base<(std::__ndk1::__variant_detail::__traits<ColorOverride, std::__ndk1::basic_string<char, std::__ndk1::char_traits<char>, std::__ndk1::allocator<char> > >)1, std::__ndk1::__variant_detail::__traits, std::__ndk1::allocator<char> >&)
PUBLIC 1980c 0 matjson::Serialize<ColorOverride>::toJson(ColorOverride const&)
PUBLIC 199f8 0 matjson::makeObject(std::initializer_list<std::__ndk1::pair<std::__ndk1::basic_string<char, std::__ndk1::char_traits<char>, std::__ndk1::allocator<char> >, matjson::Value> >)
PUBLIC 19bac 0 _ZNSt6__ndk14pairINS_12basic_stringIcNS_11char_traitsIcEENS_9allocatorIcEEEEN7matjson5ValueEEC2B8ne180000IRA8_KcRKbTnNS_9enable_ifIXclsr10_CheckArgsE17__enable_implicitIT_T0_EEEiE4typeELi0EEEOSH_OSI_
PUBLIC 19c70 0 _ZNSt6__ndk14pairINS_12basic_stringIcNS_11char_traitsIcEENS_9allocatorIcEEEEN7matjson5ValueEEC2B8ne180000IRA8_KcRKiTnNS_9enable_ifIXclsr10_CheckArgsE17__enable_implicitIT_T0_EEEiE4typeELi0EEEOSH_OSI_
PUBLIC 19d34 0 _ZNSt6__ndk14pairINS_12basic_stringIcNS_11char_traitsIcEENS_9allocatorIcEEEEN7matjson5ValueEEC2B8ne180000IRA10_KcRKiTnNS_9enable_ifIXclsr10_CheckArgsE17__enable_implicitIT_T0_EEEiE4typeELi0EEEOSH_OSI_
PUBLIC 19df8 0 _ZNSt6__ndk14pairINS_12basic_stringIcNS_11char_traitsIcEENS_9allocatorIcEEEEN7matjson5ValueEEC2B8ne180000IRA5_KcRKiTnNS_9enable_ifIXclsr10_CheckArgsE17__enable_implicitIT_T0_EEEiE4typeELi0EEEOSH_OSI_
PUBLIC 19ebc 0 std::__ndk1::pair<std::__ndk1::basic_string<char, std::__ndk1::char_traits<char>, std::__ndk1::allocator<char> >, matjson::Value>::~pair()
PUBLIC 19ef8 0 std::__ndk1::vector<matjson::Value, std::__ndk1::allocator<matjson::Value> >::~vector[abi:ne180000]()
PUBLIC 19f60 0 std::__ndk1::vector<matjson::Value, std::__ndk1::allocator<matjson::Value> >::__emplace_back_slow_path<matjson::Value const&>(matjson::Value const&)
PUBLIC 1a124 0 std::__ndk1::__split_buffer<matjson::Value, std::__ndk1::allocator<matjson::Value>&>::~__split_buffer()
PUBLIC 1a178 0 std::__ndk1::vector<matjson::Value, std::__ndk1::allocator<matjson::Value> >::__throw_length_error[abi:ne180000]() const
PUBLIC 1a18c 0 std::__ndk1::__variant_detail::__visitation::__base::__dispatcher<(unsigned long)0>::__dispatch[abi:ne180000]<std::__ndk1::__variant_detail::__dtor<std::__ndk1::__variant_detail::__traits<std::__ndk1::monostate, std::__ndk1::basic_string<char, std::__ndk1::char_traits<char>, std::__ndk1::allocator<char> > >, (std::__ndk1::__variant_detail::_Trait)1>::__destroy[abi:ne180000]()::{lambda(auto:1&)#1}, std::__ndk1::__variant_detail::__base<(std::__ndk1::__variant_detail::__traits<std::__ndk1::monostate, std::__ndk1::basic_string<char, std::__ndk1::char_traits<char>, std::__ndk1::allocator<char> > >)1, std::__ndk1::__variant_detail::__traits, std::__ndk1::allocator<char> >&>(std::__ndk1::__variant_detail::__dtor<std::__ndk1::__variant_detail::__traits<std::__ndk1::monostate, std::__ndk1::basic_string<char, std::__ndk1::char_traits<char>, std::__ndk1::allocator<char> > >, (std::__ndk1::__variant_detail::_Trait)1>, std::__ndk1::__variant_detail::__base<(std::__ndk1::__variant_detail::__traits<std::__ndk1::monostate, std::__ndk1::basic_string<char, std::__ndk1::char_traits<char>, std::__ndk1::allocator<char> > >)1, std::__ndk1::__variant_detail::__traits, std::__ndk1::allocator<char> >&)
PUBLIC 1a190 0 std::__ndk1::__variant_detail::__visitation::__base::__dispatcher<(unsigned long)1>::__dispatch[abi:ne180000]<std::__ndk1::__variant_detail::__dtor<std::__ndk1::__variant_detail::__traits<std::__ndk1::monostate, std::__ndk1::basic_string<char, std::__ndk1::char_traits<char>, std::__ndk1::allocator<char> > >, (std::__ndk1::__variant_detail::_Trait)1>::__destroy[abi:ne180000]()::{lambda(auto:1&)#1}, std::__ndk1::__variant_detail::__base<(std::__ndk1::__variant_detail::__traits<std::__ndk1::monostate, std::__ndk1::basic_string<char, std::__ndk1::char_traits<char>, std::__ndk1::allocator<char> > >)1, std::__ndk1::__variant_detail::__traits, std::__ndk1::allocator<char> >&>(std::__ndk1::__variant_detail::__dtor<std::__ndk1::__variant_detail::__traits<std::__ndk1::monostate, std::__ndk1::basic_string<char, std::__ndk1::char_traits<char>, std::__ndk1::allocator<char> > >, (std::__ndk1::__variant_detail::_Trait)1>, std::__ndk1::__variant_detail::__base<(std::__ndk1::__variant_detail::__traits<std::__ndk1::monostate, std::__ndk1::basic_string<char, std::__ndk1::char_traits<char>, std::__ndk1::allocator<char> > >)1, std::__ndk1::__variant_detail::__traits, std::__ndk1::allocator<char> >&)
PUBLIC 1a1a4 0 geode::Mod::getSavedValue<OverridePlayer>(std::__ndk1::basic_string_view<char, std::__ndk1::char_traits<char> >)
PUBLIC 1a37c 0 matjson::Serialize<OverridePlayer>::fromJson(matjson::Value const&)
PUBLIC 1ab24 0 geode::impl::ResultData<ColorOverride, std::__ndk1::basic_string<char, std::__ndk1::char_traits<char>, std::__ndk1::allocator<char> > >::unwrapErr() &&
PUBLIC 1ab9c 0 geode::impl::ResultData<ColorOverride, std::__ndk1::basic_string<char, std::__ndk1::char_traits<char>, std::__ndk1::allocator<char> > >::unwrap() &&
PUBLIC 1ac14 0 _ZN5geode15UnwrapExceptionC2IR13ColorOverrideQntsr4implE18IsStringStreamableIT_EEENS_4impl5OkTagEOS4_
PUBLIC 1ac48 0 std::__ndk1::__variant_detail::__visitation::__base::__dispatcher<(unsigned long)0>::__dispatch[abi:ne180000]<std::__ndk1::__variant_detail::__dtor<std::__ndk1::__variant_detail::__traits<OverridePlayer, std::__ndk1::basic_string<char, std::__ndk1::char_traits<char>, std::__ndk1::allocator<char> > >, (std::__ndk1::__variant_detail::_Trait)1>::__destroy[abi:ne180000]()::{lambda(auto:1&)#1}, std::__ndk1::__variant_detail::__base<(std::__ndk1::__variant_detail::__traits<OverridePlayer, std::__ndk1::basic_string<char, std::__ndk1::char_traits<char>, std::__ndk1::allocator<char> > >)1, std::__ndk1::__variant_detail::__traits, std::__ndk1::allocator<char> >&>(std::__ndk1::__variant_detail::__dtor<std::__ndk1::__variant_detail::__traits<OverridePlayer, std::__ndk1::basic_string<char, std::__ndk1::char_traits<char>, std::__ndk1::allocator<char> > >, (std::__ndk1::__variant_detail::_Trait)1>, std::__ndk1::__variant_detail::__base<(std::__ndk1::__variant_detail::__traits<OverridePlayer, std::__ndk1::basic_string<char, std::__ndk1::char_traits<char>, std::__ndk1::allocator<char> > >)1, std::__ndk1::__variant_detail::__traits, std::__ndk1::allocator<char> >&)
PUBLIC 1ac4c 0 std::__ndk1::__variant_detail::__visitation::__base::__dispatcher<(unsigned long)1>::__dispatch[abi:ne180000]<std::__ndk1::__variant_detail::__dtor<std::__ndk1::__variant_detail::__traits<OverridePlayer, std::__ndk1::basic_string<char, std::__ndk1::char_traits<char>, std::__ndk1::allocator<char> > >, (std::__ndk1::__variant_detail::_Trait)1>::__destroy[abi:ne180000]()::{lambda(auto:1&)#1}, std::__ndk1::__variant_detail::__base<(std::__ndk1::__variant_detail::__traits<OverridePlayer, std::__ndk1::basic_string<char, std::__ndk1::char_traits<char>, std::__ndk1::allocator<char> > >)1, std::__ndk1::__variant_detail::__traits, std::__ndk1::allocator<char> >&>(std::__ndk1::__variant_detail::__dtor<std::__ndk1::__variant_detail::__traits<OverridePlayer, std::__ndk1::basic_string<char, std::__ndk1::char_traits<char>, std::__ndk1::allocator<char> > >, (std::__ndk1::__variant_detail::_Trait)1>, std::__ndk1::__variant_detail::__base<(std::__ndk1::__variant_detail::__traits<OverridePlayer, std::__ndk1::basic_string<char, std::__ndk1::char_traits<char>, std::__ndk1::allocator<char> > >)1, std::__ndk1::__variant_detail::__traits, std::__ndk1::allocator<char> >&)
PUBLIC 1ac60 0 matjson::Serialize<OverridePlayer>::toJson(OverridePlayer const&)
PUBLIC 1afc4 0 geode::EventListener<geode::ModStateFilter>::getPool() const
PUBLIC 1afc8 0 geode::EventListener<geode::ModStateFilter>::handle(geode::Event*)
PUBLIC 1b13c 0 geode::EventListener<geode::ModStateFilter>::~EventListener()
PUBLIC 1b198 0 geode::EventListener<geode::ModStateFilter>::~EventListener()
PUBLIC 1b1fc 0 std::__ndk1::__function::__base<void (geode::ModStateEvent*)>::~__base()
PUBLIC 1b200 0 std::__ndk1::__function::__func<void (*)(geode::ModStateEvent*), std::__ndk1::allocator<void (*)(geode::ModStateEvent*)>, void (geode::ModStateEvent*)>::~__func()
PUBLIC 1b204 0 std::__ndk1::__function::__func<void (*)(geode::ModStateEvent*), std::__ndk1::allocator<void (*)(geode::ModStateEvent*)>, void (geode::ModStateEvent*)>::__clone() const
PUBLIC 1b238 0 std::__ndk1::__function::__func<void (*)(geode::ModStateEvent*), std::__ndk1::allocator<void (*)(geode::ModStateEvent*)>, void (geode::ModStateEvent*)>::__clone(std::__ndk1::__function::__base<void (geode::ModStateEvent*)>*) const
PUBLIC 1b24c 0 std::__ndk1::__function::__func<void (*)(geode::ModStateEvent*), std::__ndk1::allocator<void (*)(geode::ModStateEvent*)>, void (geode::ModStateEvent*)>::destroy()
PUBLIC 1b250 0 std::__ndk1::__function::__func<void (*)(geode::ModStateEvent*), std::__ndk1::allocator<void (*)(geode::ModStateEvent*)>, void (geode::ModStateEvent*)>::destroy_deallocate()
PUBLIC 1b254 0 std::__ndk1::__function::__func<void (*)(geode::ModStateEvent*), std::__ndk1::allocator<void (*)(geode::ModStateEvent*)>, void (geode::ModStateEvent*)>::operator()(geode::ModStateEvent*&&)
PUBLIC 1b264 0 std::__ndk1::__function::__func<void (*)(geode::ModStateEvent*), std::__ndk1::allocator<void (*)(geode::ModStateEvent*)>, void (geode::ModStateEvent*)>::target(std::type_info const&) const
PUBLIC 1b280 0 std::__ndk1::__function::__func<void (*)(geode::ModStateEvent*), std::__ndk1::allocator<void (*)(geode::ModStateEvent*)>, void (geode::ModStateEvent*)>::target_type() const
PUBLIC 1b28c 0 geode::cast::traverseTypeinfoFor(void*, geode::cast::ClassTypeinfoType const*, char const*)
PUBLIC 1b390 0 _GLOBAL__sub_I_main.cpp
PUBLIC 1c55c 0 __cxx_global_var_init
PUBLIC 1c998 0 geode::modifier::ModifyBase<geode::modifier::ModifyDerive<hook6<(anonymous namespace)::hook6Parent>, MenuLayer> >::~ModifyBase()
PUBLIC 1c9b4 0 geode::modifier::ModifyDerive<hook6<(anonymous namespace)::hook6Parent>, MenuLayer>::apply()
PUBLIC 1ccbc 0 geode::modifier::ModifyBase<geode::modifier::ModifyDerive<hook6<(anonymous namespace)::hook6Parent>, MenuLayer> >::apply()
PUBLIC 1ccc0 0 geode::modifier::AsStaticFunction_init<hook6<(anonymous namespace)::hook6Parent>, bool (hook6<(anonymous namespace)::hook6Parent>::*)()>::Impl<bool (hook6<(anonymous namespace)::hook6Parent>::*)()>::function(hook6<(anonymous namespace)::hook6Parent>*)
PUBLIC 1d0d0 0 geode::addresser::Addresser::addressOfVirtual<bool, MenuLayer, >(bool (MenuLayer::*)())
PUBLIC 1d178 0 MenuLayer::MenuLayer(geode::ZeroConstructorType)
PUBLIC 1d214 0 geode::modifier::FieldIntermediate<hook6<(anonymous namespace)::hook6Parent>, MenuLayer>::operator->()
PUBLIC 1d3a0 0 geode::modifier::FieldIntermediate<hook6<(anonymous namespace)::hook6Parent>, MenuLayer>::fieldDestructor(void*)
PUBLIC 1d3a4 0 __cxx_global_var_init
PUBLIC 1d7e0 0 __cxx_global_var_init.1
PUBLIC 1dc1c 0 geode::modifier::ModifyBase<geode::modifier::ModifyDerive<hook9<(anonymous namespace)::hook9Parent>, PlayerObject> >::~ModifyBase()
PUBLIC 1dc38 0 geode::modifier::ModifyBase<geode::modifier::ModifyDerive<hook137<(anonymous namespace)::hook137Parent>, PlayLayer> >::~ModifyBase()
PUBLIC 1dc54 0 geode::modifier::ModifyDerive<hook9<(anonymous namespace)::hook9Parent>, PlayerObject>::apply()
PUBLIC 1eed4 0 geode::modifier::ModifyBase<geode::modifier::ModifyDerive<hook9<(anonymous namespace)::hook9Parent>, PlayerObject> >::apply()
PUBLIC 1eed8 0 geode::modifier::AsStaticFunction_flashPlayer<hook9<(anonymous namespace)::hook9Parent>, void (hook9<(anonymous namespace)::hook9Parent>::*)(float, float, cocos2d::_ccColor3B, cocos2d::_ccColor3B)>::Impl<void (hook9<(anonymous namespace)::hook9Parent>::*)(float, float, cocos2d::_ccColor3B, cocos2d::_ccColor3B)>::function(hook9<(anonymous namespace)::hook9Parent>*, float, float, cocos2d::_ccColor3B, cocos2d::_ccColor3B)
PUBLIC 1eedc 0 geode::modifier::AsStaticFunction_flipGravity<hook9<(anonymous namespace)::hook9Parent>, void (hook9<(anonymous namespace)::hook9Parent>::*)(bool, bool)>::Impl<void (hook9<(anonymous namespace)::hook9Parent>::*)(bool, bool)>::function(hook9<(anonymous namespace)::hook9Parent>*, bool, bool)
PUBLIC 1ef18 0 geode::modifier::AsStaticFunction_init<hook9<(anonymous namespace)::hook9Parent>, bool (hook9<(anonymous namespace)::hook9Parent>::*)(int, int, GJBaseGameLayer*, cocos2d::CCLayer*, bool)>::Impl<bool (hook9<(anonymous namespace)::hook9Parent>::*)(int, int, GJBaseGameLayer*, cocos2d::CCLayer*, bool)>::function(hook9<(anonymous namespace)::hook9Parent>*, int, int, GJBaseGameLayer*, cocos2d::CCLayer*, bool)
PUBLIC 1ef4c 0 geode::modifier::AsStaticFunction_switchedToMode<hook9<(anonymous namespace)::hook9Parent>, void (hook9<(anonymous namespace)::hook9Parent>::*)(GameObjectType)>::Impl<void (hook9<(anonymous namespace)::hook9Parent>::*)(GameObjectType)>::function(hook9<(anonymous namespace)::hook9Parent>*, GameObjectType)
PUBLIC 1ef70 0 geode::modifier::AsStaticFunction_updatePlayerArt<hook9<(anonymous namespace)::hook9Parent>, void (hook9<(anonymous namespace)::hook9Parent>::*)()>::Impl<void (hook9<(anonymous namespace)::hook9Parent>::*)()>::function(hook9<(anonymous namespace)::hook9Parent>*)
PUBLIC 1ef94 0 geode::modifier::AsStaticFunction_updatePlayerFrame<hook9<(anonymous namespace)::hook9Parent>, void (hook9<(anonymous namespace)::hook9Parent>::*)(int)>::Impl<void (hook9<(anonymous namespace)::hook9Parent>::*)(int)>::function(hook9<(anonymous namespace)::hook9Parent>*, int)
PUBLIC 1efb8 0 hook9<(anonymous namespace)::hook9Parent>::meow()
PUBLIC 1f3f8 0 geode::modifier::ModifyDerive<hook137<(anonymous namespace)::hook137Parent>, PlayLayer>::apply()
PUBLIC 1f70c 0 geode::modifier::ModifyBase<geode::modifier::ModifyDerive<hook137<(anonymous namespace)::hook137Parent>, PlayLayer> >::apply()
PUBLIC 1f710 0 geode::modifier::AsStaticFunction_onQuit<hook137<(anonymous namespace)::hook137Parent>, void (hook137<(anonymous namespace)::hook137Parent>::*)()>::Impl<void (hook137<(anonymous namespace)::hook137Parent>::*)()>::function(hook137<(anonymous namespace)::hook137Parent>*)
PUBLIC 1f828 0 __cxx_global_var_init
PUBLIC 1fc64 0 geode::modifier::ModifyBase<geode::modifier::ModifyDerive<hook7<(anonymous namespace)::hook7Parent>, ProfilePage> >::~ModifyBase()
PUBLIC 1fc80 0 geode::modifier::ModifyDerive<hook7<(anonymous namespace)::hook7Parent>, ProfilePage>::apply()
PUBLIC 20004 0 geode::modifier::ModifyBase<geode::modifier::ModifyDerive<hook7<(anonymous namespace)::hook7Parent>, ProfilePage> >::apply()
PUBLIC 20008 0 geode::modifier::AsStaticFunction_loadPageFromUserInfo<hook7<(anonymous namespace)::hook7Parent>, void (hook7<(anonymous namespace)::hook7Parent>::*)(GJUserScore*)>::Impl<void (hook7<(anonymous namespace)::hook7Parent>::*)(GJUserScore*)>::function(hook7<(anonymous namespace)::hook7Parent>*, GJUserScore*)
PUBLIC 20690 0 Settings::Settings()
PUBLIC 2073c 0 Settings::setOverrideColor(GameMode, int, ColorType, bool)
PUBLIC 20ff8 0 Settings::toggleOverride(GameMode, bool)
PUBLIC 211c4 0 CustomCharacterColorPage::customCreate(bool)
PUBLIC 2245c 0 CustomCharacterColorPage::onColorClicked(cocos2d::CCObject*)
PUBLIC 2262c 0 CustomCharacterColorPage::onColorTypeButtonClicked(cocos2d::CCObject*)
PUBLIC 22958 0 geode::cocos::findFirstChildRecursive<SimplePlayer>(cocos2d::CCNode*, std::__ndk1::function<bool (SimplePlayer*)>)
PUBLIC 22b58 0 CustomCharacterColorPage::onPlayerClicked(cocos2d::CCObject*)
PUBLIC 22d64 0 CustomCharacterColorPage::createGameModeButton(GameMode, cocos2d::CCPoint)
PUBLIC 2353c 0 CustomCharacterColorPage::updateUI()
PUBLIC 23f1c 0 CustomCharacterColorPage::onCubeInShipUfoToggleButtonClicked(cocos2d::CCObject*)
PUBLIC 24354 0 CustomCharacterColorPage::onGameModeToggleButtonClicked(cocos2d::CCObject*)
PUBLIC 24504 0 CustomCharacterColorPage::updateColorSelectionSprite(cocos2d::CCSprite*, ColorType)
PUBLIC 248b4 0 geode::cocos::findFirstChildRecursive<CCMenuItemSpriteExtra>(cocos2d::CCNode*, std::__ndk1::function<bool (CCMenuItemSpriteExtra*)>)
PUBLIC 24ab0 0 std::__ndk1::__throw_bad_function_call[abi:ne180000]()
PUBLIC 24ae4 0 std::__ndk1::bad_function_call::~bad_function_call()
PUBLIC 24b08 0 std::__ndk1::__function::__base<bool (SimplePlayer*)>::~__base()
PUBLIC 24b0c 0 std::__ndk1::__function::__func<CustomCharacterColorPage::customCreate(bool)::$_0, std::__ndk1::allocator<CustomCharacterColorPage::customCreate(bool)::$_0>, bool (SimplePlayer*)>::~__func()
PUBLIC 24b10 0 std::__ndk1::__function::__func<CustomCharacterColorPage::customCreate(bool)::$_0, std::__ndk1::allocator<CustomCharacterColorPage::customCreate(bool)::$_0>, bool (SimplePlayer*)>::__clone() const
PUBLIC 24b34 0 std::__ndk1::__function::__func<CustomCharacterColorPage::customCreate(bool)::$_0, std::__ndk1::allocator<CustomCharacterColorPage::customCreate(bool)::$_0>, bool (SimplePlayer*)>::__clone(std::__ndk1::__function::__base<bool (SimplePlayer*)>*) const
PUBLIC 24b44 0 std::__ndk1::__function::__func<CustomCharacterColorPage::customCreate(bool)::$_0, std::__ndk1::allocator<CustomCharacterColorPage::customCreate(bool)::$_0>, bool (SimplePlayer*)>::destroy()
PUBLIC 24b48 0 std::__ndk1::__function::__func<CustomCharacterColorPage::customCreate(bool)::$_0, std::__ndk1::allocator<CustomCharacterColorPage::customCreate(bool)::$_0>, bool (SimplePlayer*)>::destroy_deallocate()
PUBLIC 24b4c 0 std::__ndk1::__function::__func<CustomCharacterColorPage::customCreate(bool)::$_0, std::__ndk1::allocator<CustomCharacterColorPage::customCreate(bool)::$_0>, bool (SimplePlayer*)>::operator()(SimplePlayer*&&)
PUBLIC 24b9c 0 std::__ndk1::__function::__func<CustomCharacterColorPage::customCreate(bool)::$_0, std::__ndk1::allocator<CustomCharacterColorPage::customCreate(bool)::$_0>, bool (SimplePlayer*)>::target(std::type_info const&) const
PUBLIC 24bb8 0 std::__ndk1::__function::__func<CustomCharacterColorPage::customCreate(bool)::$_0, std::__ndk1::allocator<CustomCharacterColorPage::customCreate(bool)::$_0>, bool (SimplePlayer*)>::target_type() const
PUBLIC 24bc4 0 std::__ndk1::__function::__base<bool (CCMenuItemSpriteExtra*)>::~__base()
PUBLIC 24bc8 0 std::__ndk1::__function::__func<CustomCharacterColorPage::getPositionOfColor(int)::$_0, std::__ndk1::allocator<CustomCharacterColorPage::getPositionOfColor(int)::$_0>, bool (CCMenuItemSpriteExtra*)>::~__func()
PUBLIC 24bcc 0 std::__ndk1::__function::__func<CustomCharacterColorPage::getPositionOfColor(int)::$_0, std::__ndk1::allocator<CustomCharacterColorPage::getPositionOfColor(int)::$_0>, bool (CCMenuItemSpriteExtra*)>::__clone() const
PUBLIC 24c04 0 std::__ndk1::__function::__func<CustomCharacterColorPage::getPositionOfColor(int)::$_0, std::__ndk1::allocator<CustomCharacterColorPage::getPositionOfColor(int)::$_0>, bool (CCMenuItemSpriteExtra*)>::__clone(std::__ndk1::__function::__base<bool (CCMenuItemSpriteExtra*)>*) const
PUBLIC 24c1c 0 std::__ndk1::__function::__func<CustomCharacterColorPage::getPositionOfColor(int)::$_0, std::__ndk1::allocator<CustomCharacterColorPage::getPositionOfColor(int)::$_0>, bool (CCMenuItemSpriteExtra*)>::destroy()
PUBLIC 24c20 0 std::__ndk1::__function::__func<CustomCharacterColorPage::getPositionOfColor(int)::$_0, std::__ndk1::allocator<CustomCharacterColorPage::getPositionOfColor(int)::$_0>, bool (CCMenuItemSpriteExtra*)>::destroy_deallocate()
PUBLIC 24c24 0 std::__ndk1::__function::__func<CustomCharacterColorPage::getPositionOfColor(int)::$_0, std::__ndk1::allocator<CustomCharacterColorPage::getPositionOfColor(int)::$_0>, bool (CCMenuItemSpriteExtra*)>::operator()(CCMenuItemSpriteExtra*&&)
PUBLIC 24ca8 0 std::__ndk1::__function::__func<CustomCharacterColorPage::getPositionOfColor(int)::$_0, std::__ndk1::allocator<CustomCharacterColorPage::getPositionOfColor(int)::$_0>, bool (CCMenuItemSpriteExtra*)>::target(std::type_info const&) const
PUBLIC 24cc4 0 std::__ndk1::__function::__func<CustomCharacterColorPage::getPositionOfColor(int)::$_0, std::__ndk1::allocator<CustomCharacterColorPage::getPositionOfColor(int)::$_0>, bool (CCMenuItemSpriteExtra*)>::target_type() const
PUBLIC m 24cd0 0 geodeImplicitEntry
PUBLIC 24d0c 0 __udivti3
PUBLIC 24d18 0 __udivmodti4
PUBLIC m 24f64 0 __eqtf2
PUBLIC 25004 0 __unordtf2
PUBLIC 2503c 0 fmt::v11::detail::write_loc(fmt::v11::basic_appender<char>, fmt::v11::loc_value, fmt::v11::format_specs const&, fmt::v11::detail::locale_ref)
PUBLIC 252d0 0 fmt::v11::format_facet<std::__ndk1::locale>::~format_facet()
PUBLIC 2534c 0 fmt::v11::report_error(char const*)
PUBLIC 2539c 0 fmt::v11::format_error::runtime_error(char const*)
PUBLIC 253c8 0 fmt::v11::format_facet<std::__ndk1::locale>::do_put(fmt::v11::basic_appender<char>, fmt::v11::loc_value, fmt::v11::format_specs const&) const
PUBLIC 25b88 0 fmt::v11::detail::loc_writer<char>::~loc_writer()
PUBLIC 25bec 0 fmt::v11::detail::vformat_to<char>(fmt::v11::detail::buffer<char>&, fmt::v11::basic_string_view<char>, fmt::v11::detail::vformat_args<char>::type, fmt::v11::detail::locale_ref)
PUBLIC 2615c 0 fmt::v11::detail::is_printable(unsigned int)
PUBLIC 26384 0 fmt::v11::detail::dragonbox::to_decimal<float>(float)
PUBLIC 26660 0 fmt::v11::detail::dragonbox::to_decimal<double>(double)
PUBLIC 26b9c 0 fmt::v11::basic_memory_buffer<char, (unsigned long)500, std::__ndk1::allocator<char> >::grow(fmt::v11::detail::buffer<char>&, unsigned long)
PUBLIC 26c14 0 fmt::v11::format_facet<std::__ndk1::locale>::~format_facet()
PUBLIC 26ca0 0 fmt::v11::format_error::~format_error()
PUBLIC 26cc4 0 fmt::v11::detail::copy_noinline<char, char const*, fmt::v11::basic_appender<char> >(char const*, char const*, fmt::v11::basic_appender<char>)
PUBLIC 26e14 0 fmt::v11::detail::default_arg_formatter<char>::operator()<bool>(bool)
PUBLIC 26e7c 0 fmt::v11::detail::default_arg_formatter<char>::operator()<char>(char)
PUBLIC 26f0c 0 fmt::v11::detail::default_arg_formatter<char>::operator()<float>(float)
PUBLIC 26ff8 0 fmt::v11::detail::default_arg_formatter<char>::operator()<double>(double)
PUBLIC 270e4 0 fmt::v11::detail::default_arg_formatter<char>::operator()<char const*>(char const*)
PUBLIC 2712c 0 fmt::v11::detail::default_arg_formatter<char>::operator()<void const*>(void const*)
PUBLIC 271c4 0 _ZN3fmt3v116detail5writeIcNS0_14basic_appenderIcEEiTnNSt6__ndk19enable_ifIXaaaasr11is_integralIT1_EE5valuentsr3std7is_sameIS7_bEE5valuentsr3std7is_sameIS7_T_EE5valueEiE4typeELi0EEET0_SB_S7_
PUBLIC 27424 0 fmt::v11::detail::copy_noinline<char, char*, fmt::v11::basic_appender<char> >(char*, char*, fmt::v11::basic_appender<char>)
PUBLIC 27574 0 _ZN3fmt3v116detail5writeIcNS0_14basic_appenderIcEEjTnNSt6__ndk19enable_ifIXaaaasr11is_integralIT1_EE5valuentsr3std7is_sameIS7_bEE5valuentsr3std7is_sameIS7_T_EE5valueEiE4typeELi0EEET0_SB_S7_
PUBLIC 27754 0 _ZN3fmt3v116detail5writeIcNS0_14basic_appenderIcEExTnNSt6__ndk19enable_ifIXaaaasr11is_integralIT1_EE5valuentsr3std7is_sameIS7_bEE5valuentsr3std7is_sameIS7_T_EE5valueEiE4typeELi0EEET0_SB_S7_
PUBLIC 279d8 0 _ZN3fmt3v116detail5writeIcNS0_14basic_appenderIcEEyTnNSt6__ndk19enable_ifIXaaaasr11is_integralIT1_EE5valuentsr3std7is_sameIS7_bEE5valuentsr3std7is_sameIS7_T_EE5valueEiE4typeELi0EEET0_SB_S7_
PUBLIC 27be0 0 _ZN3fmt3v116detail5writeIcNS0_14basic_appenderIcEEnTnNSt6__ndk19enable_ifIXaaaasr11is_integralIT1_EE5valuentsr3std7is_sameIS7_bEE5valuentsr3std7is_sameIS7_T_EE5valueEiE4typeELi0EEET0_SB_S7_
PUBLIC 27f40 0 _ZN3fmt3v116detail5writeIcNS0_14basic_appenderIcEEoTnNSt6__ndk19enable_ifIXaaaasr11is_integralIT1_EE5valuentsr3std7is_sameIS7_bEE5valuentsr3std7is_sameIS7_T_EE5valueEiE4typeELi0EEET0_SB_S7_
PUBLIC 28254 0 _ZN3fmt3v116detail5writeIcNS0_14basic_appenderIcEEbTnNSt6__ndk19enable_ifIXsr3std7is_sameIT1_bEE5valueEiE4typeELi0EEET0_SA_S7_RKNS0_12format_specsENS1_10locale_refE
PUBLIC 284e4 0 fmt::v11::detail::write_int_noinline<char, fmt::v11::basic_appender<char>, unsigned int>(fmt::v11::basic_appender<char>, fmt::v11::detail::write_int_arg<unsigned int>, fmt::v11::format_specs const&, fmt::v11::detail::locale_ref)
PUBLIC 292c0 0 fmt::v11::detail::fill<char, fmt::v11::basic_appender<char> >(fmt::v11::basic_appender<char>, unsigned long, fmt::v11::detail::fill_t const&)
PUBLIC 29490 0 fmt::v11::detail::write_padded<char, (fmt::v11::align::type)1, fmt::v11::basic_appender<char>, fmt::v11::detail::write_char<char, fmt::v11::basic_appender<char> >(fmt::v11::basic_appender<char>, char, fmt::v11::format_specs const&)::{lambda(fmt::v11::basic_appender<char>&)#1}>(fmt::v11::basic_appender<char>, fmt::v11::format_specs const&, unsigned long, unsigned long, fmt::v11::detail::write_char<char, fmt::v11::basic_appender<char> >(fmt::v11::basic_appender<char>, char, fmt::v11::format_specs const&)::{lambda(fmt::v11::basic_appender<char>&)#1})
PUBLIC 296cc 0 fmt::v11::detail::write_escaped_cp<fmt::v11::basic_appender<char>, char>(fmt::v11::basic_appender<char>, fmt::v11::detail::find_escape_result<char> const&)
PUBLIC 299d8 0 fmt::v11::detail::write_codepoint<(unsigned long)2, char, fmt::v11::basic_appender<char> >(fmt::v11::basic_appender<char>, char, unsigned int)
PUBLIC 29b50 0 fmt::v11::detail::write_codepoint<(unsigned long)8, char, fmt::v11::basic_appender<char> >(fmt::v11::basic_appender<char>, char, unsigned int)
PUBLIC 29cc8 0 fmt::v11::detail::write_padded<char, (fmt::v11::align::type)1, fmt::v11::basic_appender<char>, fmt::v11::detail::write_nonfinite<char, fmt::v11::basic_appender<char> >(fmt::v11::basic_appender<char>, bool, fmt::v11::format_specs, fmt::v11::sign::type)::{lambda(fmt::v11::basic_appender<char>&)#1}>(fmt::v11::basic_appender<char>, fmt::v11::format_specs const&, unsigned long, unsigned long, fmt::v11::detail::write_nonfinite<char, fmt::v11::basic_appender<char> >(fmt::v11::basic_appender<char>, bool, fmt::v11::format_specs, fmt::v11::sign::type)::{lambda(fmt::v11::basic_appender<char>&)#1})
PUBLIC 29f08 0 fmt::v11::detail::do_write_float<char, fmt::v11::basic_appender<char>, fmt::v11::detail::dragonbox::decimal_fp<float>, fmt::v11::detail::digit_grouping<char> >(fmt::v11::basic_appender<char>, fmt::v11::detail::dragonbox::decimal_fp<float> const&, fmt::v11::format_specs const&, fmt::v11::detail::float_specs, fmt::v11::detail::locale_ref)
PUBLIC 2ab7c 0 fmt::v11::detail::do_write_float<char, fmt::v11::basic_appender<char>, fmt::v11::detail::dragonbox::decimal_fp<float>, fmt::v11::detail::digit_grouping<char> >(fmt::v11::basic_appender<char>, fmt::v11::detail::dragonbox::decimal_fp<float> const&, fmt::v11::format_specs const&, fmt::v11::detail::float_specs, fmt::v11::detail::locale_ref)::{lambda(fmt::v11::basic_appender<char>(fmt::v11::basic_appender<char>))#1}::operator() const
PUBLIC 2acd0 0 fmt::v11::detail::digit_grouping<char>::digit_grouping(fmt::v11::detail::locale_ref, bool)
PUBLIC 2af3c 0 fmt::v11::detail::digit_grouping<char>::~digit_grouping()
PUBLIC 2af80 0 fmt::v11::detail::write_exponent<char, fmt::v11::basic_appender<char> >(int, fmt::v11::basic_appender<char>)
PUBLIC 2b150 0 _ZN3fmt3v116detail17write_significandIcjTnNSt6__ndk19enable_ifIXsr3std11is_integralIT0_EE5valueEiE4typeELi0EEEPT_S9_S5_iiS8_
PUBLIC 2b2cc 0 std::__ndk1::basic_string<char, std::__ndk1::char_traits<char>, std::__ndk1::allocator<char> >::__assign_no_alias<true>(char const*, unsigned long)
PUBLIC 2b378 0 std::__ndk1::basic_string<char, std::__ndk1::char_traits<char>, std::__ndk1::allocator<char> >::__assign_no_alias<false>(char const*, unsigned long)
PUBLIC 2b488 0 fmt::v11::detail::digit_grouping<char>::apply<fmt::v11::basic_appender<char>, char>(fmt::v11::basic_appender<char>, fmt::v11::basic_string_view<char>) const
PUBLIC 2b840 0 fmt::v11::basic_memory_buffer<int, (unsigned long)500, std::__ndk1::allocator<int> >::grow(fmt::v11::detail::buffer<int>&, unsigned long)
PUBLIC 2b8e0 0 fmt::v11::detail::do_write_float<char, fmt::v11::basic_appender<char>, fmt::v11::detail::dragonbox::decimal_fp<double>, fmt::v11::detail::digit_grouping<char> >(fmt::v11::basic_appender<char>, fmt::v11::detail::dragonbox::decimal_fp<double> const&, fmt::v11::format_specs const&, fmt::v11::detail::float_specs, fmt::v11::detail::locale_ref)
PUBLIC 2c594 0 fmt::v11::detail::do_write_float<char, fmt::v11::basic_appender<char>, fmt::v11::detail::dragonbox::decimal_fp<double>, fmt::v11::detail::digit_grouping<char> >(fmt::v11::basic_appender<char>, fmt::v11::detail::dragonbox::decimal_fp<double> const&, fmt::v11::format_specs const&, fmt::v11::detail::float_specs, fmt::v11::detail::locale_ref)::{lambda(fmt::v11::basic_appender<char>(fmt::v11::basic_appender<char>))#1}::operator() const
PUBLIC 2c6ec 0 _ZN3fmt3v116detail17write_significandIcmTnNSt6__ndk19enable_ifIXsr3std11is_integralIT0_EE5valueEiE4typeELi0EEEPT_S9_S5_iiS8_
PUBLIC 2c87c 0 fmt::v11::detail::write_float<char, fmt::v11::basic_appender<char>, long double>(fmt::v11::basic_appender<char>, long double, fmt::v11::format_specs, fmt::v11::detail::locale_ref)
PUBLIC 2d378 0 fmt::v11::detail::write_padded<char, (fmt::v11::align::type)2, fmt::v11::basic_appender<char>, fmt::v11::detail::write_bytes<char, (fmt::v11::align::type)2, fmt::v11::basic_appender<char> >(fmt::v11::basic_appender<char>, fmt::v11::basic_string_view<char>, fmt::v11::format_specs const&)::{lambda(fmt::v11::basic_appender<char>&)#1}>(fmt::v11::basic_appender<char>, fmt::v11::format_specs const&, unsigned long, unsigned long, fmt::v11::detail::write_bytes<char, (fmt::v11::align::type)2, fmt::v11::basic_appender<char> >(fmt::v11::basic_appender<char>, fmt::v11::basic_string_view<char>, fmt::v11::format_specs const&)::{lambda(fmt::v11::basic_appender<char>&)#1})
PUBLIC 2d554 0 fmt::v11::detail::format_dragon(fmt::v11::detail::basic_fp<unsigned __int128>, unsigned int, int, fmt::v11::detail::buffer<char>&, int&)
PUBLIC 2e984 0 fmt::v11::detail::bigint::operator<<=(int)
PUBLIC 2eaa8 0 fmt::v11::detail::bigint::assign_pow10(int)
PUBLIC 2f204 0 fmt::v11::detail::bigint::divmod_assign(fmt::v11::detail::bigint const&)
PUBLIC 2f524 0 fmt::v11::basic_memory_buffer<unsigned int, (unsigned long)32, std::__ndk1::allocator<unsigned int> >::grow(fmt::v11::detail::buffer<unsigned int>&, unsigned long)
PUBLIC 2f5c4 0 fmt::v11::detail::do_write_float<char, fmt::v11::basic_appender<char>, fmt::v11::detail::big_decimal_fp, fmt::v11::detail::digit_grouping<char> >(fmt::v11::basic_appender<char>, fmt::v11::detail::big_decimal_fp const&, fmt::v11::format_specs const&, fmt::v11::detail::float_specs, fmt::v11::detail::locale_ref)
PUBLIC 30474 0 fmt::v11::detail::do_write_float<char, fmt::v11::basic_appender<char>, fmt::v11::detail::big_decimal_fp, fmt::v11::detail::digit_grouping<char> >(fmt::v11::basic_appender<char>, fmt::v11::detail::big_decimal_fp const&, fmt::v11::format_specs const&, fmt::v11::detail::float_specs, fmt::v11::detail::locale_ref)::{lambda(fmt::v11::basic_appender<char>(fmt::v11::basic_appender<char>))#1}::operator() const
PUBLIC 305d4 0 fmt::v11::detail::write_padded<char, (fmt::v11::align::type)2, fmt::v11::basic_appender<char>, fmt::v11::detail::write_ptr<char, fmt::v11::basic_appender<char>, unsigned long>(fmt::v11::basic_appender<char>, unsigned long, fmt::v11::format_specs const*)::{lambda(fmt::v11::basic_appender<char>&)#1}>(fmt::v11::basic_appender<char>, fmt::v11::format_specs const&, unsigned long, unsigned long, fmt::v11::detail::write_ptr<char, fmt::v11::basic_appender<char>, unsigned long>(fmt::v11::basic_appender<char>, unsigned long, fmt::v11::format_specs const*)::{lambda(fmt::v11::basic_appender<char>&)#1})
PUBLIC 307e8 0 fmt::v11::detail::parse_replacement_field<char, fmt::v11::detail::vformat_to<char>(fmt::v11::detail::buffer<char>&, fmt::v11::basic_string_view<char>, fmt::v11::detail::vformat_args<char>::type, fmt::v11::detail::locale_ref)::format_handler&>(char const*, char const*, fmt::v11::detail::vformat_to<char>(fmt::v11::detail::buffer<char>&, fmt::v11::basic_string_view<char>, fmt::v11::detail::vformat_args<char>::type, fmt::v11::detail::locale_ref)::format_handler&)
PUBLIC 32484 0 fmt::v11::detail::parse_dynamic_spec<char>(char const*, char const*, int&, fmt::v11::detail::arg_ref<char>&, fmt::v11::basic_format_parse_context<char>&)
PUBLIC 32714 0 fmt::v11::basic_format_args<fmt::v11::context>::get<char>(fmt::v11::basic_string_view<char>) const
PUBLIC 3286c 0 fmt::v11::detail::write_int_noinline<char, fmt::v11::basic_appender<char>, unsigned long>(fmt::v11::basic_appender<char>, fmt::v11::detail::write_int_arg<unsigned long>, fmt::v11::format_specs const&, fmt::v11::detail::locale_ref)
PUBLIC 336c0 0 fmt::v11::detail::write_int_noinline<char, fmt::v11::basic_appender<char>, unsigned __int128>(fmt::v11::basic_appender<char>, fmt::v11::detail::write_int_arg<unsigned __int128>, fmt::v11::format_specs const&, fmt::v11::detail::locale_ref)
PUBLIC 34728 0 _ZN3fmt3v116detail15format_hexfloatIdTnNSt6__ndk19enable_ifIXntsr16is_double_doubleIT_EE5valueEiE4typeELi0EEEvS5_NS0_12format_specsERNS1_6bufferIcEE
PUBLIC 34c48 0 fmt::v11::detail::format_float<double>(double, int, fmt::v11::detail::float_specs, fmt::v11::detail::buffer<char>&)
PUBLIC 355e8 0 fmt::v11::detail::write<char, fmt::v11::basic_appender<char> >(fmt::v11::basic_appender<char>, fmt::v11::basic_string_view<char>, fmt::v11::format_specs const&)
PUBLIC 36954 0 fmt::v11::detail::for_each_codepoint<fmt::v11::detail::compute_width(fmt::v11::basic_string_view<char>)::count_code_points>(fmt::v11::basic_string_view<char>, fmt::v11::detail::compute_width(fmt::v11::basic_string_view<char>)::count_code_points)::{lambda(char const*, char const*)#1}::operator()(char const*, char const*) const
PUBLIC 36b0c 0 fmt::v11::detail::write_int<fmt::v11::basic_appender<char>, unsigned long, char>(fmt::v11::basic_appender<char>, unsigned long, unsigned int, fmt::v11::format_specs const&, fmt::v11::detail::digit_grouping<char> const&)
PUBLIC 37088 0 fmt::v11::detail::write_int<fmt::v11::basic_appender<char>, unsigned __int128, char>(fmt::v11::basic_appender<char>, unsigned __int128, unsigned int, fmt::v11::format_specs const&, fmt::v11::detail::digit_grouping<char> const&)
PUBLIC 37710 0 <.plt ELF section in rooot.custom-gamemode-colors.android64.so>
STACK CFI INIT ecf0 10 .cfa: sp 0 +
STACK CFI INIT ed00 8 .cfa: sp 0 +
STACK CFI INIT ed08 8 .cfa: sp 0 +
STACK CFI INIT ed10 14 .cfa: sp 0 +
STACK CFI INIT ed24 1c .cfa: sp 0 +
STACK CFI INIT ed40 10 .cfa: sp 0 +
STACK CFI INIT ed50 134 .cfa: sp 0 +
STACK CFI INIT ee84 84 .cfa: sp 0 +
STACK CFI INIT ef08 f4 .cfa: sp 0 +
STACK CFI INIT effc a8 .cfa: sp 0 +
STACK CFI INIT f0a4 7c .cfa: sp 0 +
STACK CFI INIT f120 14 .cfa: sp 0 +
STACK CFI INIT f134 40 .cfa: sp 0 +
STACK CFI INIT f174 28 .cfa: sp 0 +
STACK CFI INIT f19c 190 .cfa: sp 0 +
STACK CFI INIT f32c 2c8 .cfa: sp 0 +
STACK CFI INIT f5f4 8 .cfa: sp 0 +
STACK CFI INIT f5fc 8 .cfa: sp 0 +
STACK CFI INIT f604 44 .cfa: sp 0 +
STACK CFI INIT f648 e8 .cfa: sp 0 +
STACK CFI INIT f730 e8 .cfa: sp 0 +
STACK CFI INIT f818 14 .cfa: sp 0 +
STACK CFI INIT f82c 10 .cfa: sp 0 +
STACK CFI INIT f83c 10 .cfa: sp 0 +
STACK CFI INIT f84c f0 .cfa: sp 0 +
STACK CFI INIT f93c 44 .cfa: sp 0 +
STACK CFI INIT f980 c .cfa: sp 0 +
STACK CFI INIT f98c c .cfa: sp 0 +
STACK CFI INIT f998 2c .cfa: sp 0 +
STACK CFI INIT f9c4 280 .cfa: sp 0 +
STACK CFI INIT fc44 c .cfa: sp 0 +
STACK CFI INIT fc50 120 .cfa: sp 0 +
STACK CFI INIT fd70 488 .cfa: sp 0 +
STACK CFI INIT 101f8 c48 .cfa: sp 0 +
STACK CFI INIT 10e40 134 .cfa: sp 0 +
STACK CFI INIT 10f74 210 .cfa: sp 0 +
STACK CFI INIT 11184 38c .cfa: sp 0 +
STACK CFI INIT 11510 1c8 .cfa: sp 0 +
STACK CFI INIT 116d8 9bc .cfa: sp 0 +
STACK CFI INIT 12094 2d4 .cfa: sp 0 +
STACK CFI INIT 12368 134 .cfa: sp 0 +
STACK CFI INIT 1249c 120 .cfa: sp 0 +
STACK CFI INIT 125bc 1c8 .cfa: sp 0 +
STACK CFI INIT 12784 168 .cfa: sp 0 +
STACK CFI INIT 128ec fc .cfa: sp 0 +
STACK CFI INIT 129e8 30 .cfa: sp 0 +
STACK CFI INIT 12b50 30 .cfa: sp 0 +
STACK CFI INIT 12b80 98 .cfa: sp 0 +
STACK CFI INIT 12c18 59c .cfa: sp 0 +
STACK CFI INIT 131b4 8c .cfa: sp 0 +
STACK CFI INIT 13240 30 .cfa: sp 0 +
STACK CFI INIT 136f0 1c .cfa: sp 0 +
STACK CFI INIT 13b48 1c .cfa: sp 0 +
STACK CFI INIT 149c8 50 .cfa: sp 0 +
STACK CFI 149cc .cfa: sp 32 +
STACK CFI 149d4 .cfa: x29 32 + x19: .cfa -16 + ^ .ra: .cfa -24 + ^ x29: .cfa -32 + ^
STACK CFI 149ec .cfa: sp 32 +
STACK CFI 149f4 .cfa: sp 0 +
STACK CFI 149f8 .cfa: x29 32 +
STACK CFI 14a0c .cfa: sp 32 +
STACK CFI 14a14 .cfa: sp 0 +
STACK CFI INIT 14a8c 7c .cfa: sp 0 +
STACK CFI 14a90 .cfa: sp 48 +
STACK CFI 14a9c .cfa: x29 48 + x19: .cfa -8 + ^ x20: .cfa -16 + ^ x21: .cfa -32 + ^ .ra: .cfa -40 + ^ x29: .cfa -48 + ^
STACK CFI 14ae8 .cfa: sp 48 +
STACK CFI 14af4 .cfa: sp 0 +
STACK CFI 14af8 .cfa: sp 48 +
STACK CFI 14b04 .cfa: sp 0 +
STACK CFI INIT 14b08 4 .cfa: sp 0 +
STACK CFI INIT 14b0c 10 .cfa: sp 0 +
STACK CFI 14b10 .cfa: sp 16 +
STACK CFI 14b14 .cfa: x29 16 + .ra: .cfa -8 + ^ x29: .cfa -16 + ^
STACK CFI INIT 14c70 34 .cfa: sp 0 +
STACK CFI 14c74 .cfa: sp 16 +
STACK CFI 14c78 .cfa: x29 16 + .ra: .cfa -8 + ^ x29: .cfa -16 + ^
STACK CFI INIT 14dd0 80 .cfa: sp 0 +
STACK CFI 14dd4 .cfa: sp 48 +
STACK CFI 14de0 .cfa: x29 48 + x19: .cfa -8 + ^ x20: .cfa -16 + ^ x21: .cfa -32 + ^ .ra: .cfa -40 + ^ x29: .cfa -48 + ^
STACK CFI 14e40 .cfa: sp 48 +
STACK CFI 14e4c .cfa: sp 0 +
STACK CFI INIT 14e50 24 .cfa: sp 0 +
STACK CFI 14e54 .cfa: sp 32 +
STACK CFI 14e5c .cfa: x29 32 + x19: .cfa -16 + ^ .ra: .cfa -24 + ^ x29: .cfa -32 + ^
STACK CFI 14e68 .cfa: sp 32 +
STACK CFI 14e70 .cfa: sp 0 +
STACK CFI INIT 151f4 14 .cfa: sp 0 +
STACK CFI 151f8 .cfa: sp 16 +
STACK CFI 151fc .cfa: x29 16 + .ra: .cfa -8 + ^ x29: .cfa -16 + ^
STACK CFI INIT 15258 30 .cfa: sp 0 +
STACK CFI 1525c .cfa: sp 32 +
STACK CFI 15264 .cfa: x29 32 + x19: .cfa -16 + ^ .ra: .cfa -24 + ^ x29: .cfa -32 + ^
STACK CFI 1527c .cfa: sp 32 +
STACK CFI 15284 .cfa: sp 0 +
STACK CFI INIT 15288 34 .cfa: sp 0 +
STACK CFI 1528c .cfa: sp 32 +
STACK CFI 15294 .cfa: x29 32 + x19: .cfa -16 + ^ .ra: .cfa -24 + ^ x29: .cfa -32 + ^
STACK CFI INIT 15434 148 .cfa: sp 0 +
STACK CFI 15438 .cfa: sp 48 +
STACK CFI 15444 .cfa: x29 48 + x19: .cfa -8 + ^ x20: .cfa -16 + ^ x21: .cfa -32 + ^ .ra: .cfa -40 + ^ x29: .cfa -48 + ^
STACK CFI 1556c .cfa: sp 48 +
STACK CFI 15578 .cfa: sp 0 +
STACK CFI INIT 157a4 80 .cfa: sp 0 +
STACK CFI 157a8 .cfa: sp 48 +
STACK CFI 157b4 .cfa: x29 48 + x19: .cfa -8 + ^ x20: .cfa -16 + ^ x21: .cfa -24 + ^ x22: .cfa -32 + ^ .ra: .cfa -40 + ^ x29: .cfa -48 + ^
STACK CFI 157cc .cfa: sp 48 +
STACK CFI 157d8 .cfa: sp 0 +
STACK CFI 157dc .cfa: x29 48 +
STACK CFI 1580c .cfa: sp 48 +
STACK CFI 15818 .cfa: sp 0 +
STACK CFI 1581c .cfa: x29 48 +
STACK CFI INIT 15824 68 .cfa: sp 0 +
STACK CFI 15828 .cfa: sp 32 +
STACK CFI 15830 .cfa: x29 32 + x19: .cfa -8 + ^ x20: .cfa -16 + ^ .ra: .cfa -24 + ^ x29: .cfa -32 + ^
STACK CFI 15848 .cfa: sp 32 +
STACK CFI 15850 .cfa: sp 0 +
STACK CFI 15854 .cfa: x29 32 +
STACK CFI 15880 .cfa: sp 32 +
STACK CFI 15888 .cfa: sp 0 +
STACK CFI INIT 1588c 14 .cfa: sp 0 +
STACK CFI 15890 .cfa: sp 16 +
STACK CFI 15894 .cfa: x29 16 + .ra: .cfa -8 + ^ x29: .cfa -16 + ^
STACK CFI INIT 158a0 4 .cfa: sp 0 +
STACK CFI INIT 158a4 14 .cfa: sp 0 +
STACK CFI INIT 158b8 120 .cfa: sp 0 +
STACK CFI 158bc .cfa: sp 64 +
STACK CFI 158cc .cfa: x29 64 + x19: .cfa -8 + ^ x20: .cfa -16 + ^ x21: .cfa -24 + ^ x22: .cfa -32 + ^ x23: .cfa -40 + ^ x24: .cfa -48 + ^ .ra: .cfa -56 + ^ x29: .cfa -64 + ^
STACK CFI 159c4 .cfa: sp 64 +
STACK CFI 159d4 .cfa: sp 0 +
STACK CFI INIT 159d8 d4 .cfa: sp 0 +
STACK CFI 159dc .cfa: sp 48 +
STACK CFI 159e8 .cfa: x29 48 + x19: .cfa -8 + ^ x20: .cfa -16 + ^ x21: .cfa -32 + ^ .ra: .cfa -40 + ^ x29: .cfa -48 + ^
STACK CFI 15a78 .cfa: sp 48 +
STACK CFI 15a84 .cfa: sp 0 +
STACK CFI 15a88 .cfa: x29 48 +
STACK CFI INIT 15aac 3c8 .cfa: sp 0 +
STACK CFI INIT 15e74 8c .cfa: sp 0 +
STACK CFI 15e7c .cfa: sp 32 +
STACK CFI 15e84 .cfa: x29 32 + x19: .cfa -8 + ^ x20: .cfa -16 + ^ .ra: .cfa -24 + ^ x29: .cfa -32 + ^
STACK CFI 15ecc .cfa: sp 32 +
STACK CFI 15ed4 .cfa: sp 0 +
STACK CFI 15edc .cfa: x29 32 +
STACK CFI INIT 16144 24 .cfa: sp 0 +
STACK CFI 16148 .cfa: sp 32 +
STACK CFI 16150 .cfa: x29 32 + x19: .cfa -16 + ^ .ra: .cfa -24 + ^ x29: .cfa -32 + ^
STACK CFI 1615c .cfa: sp 32 +
STACK CFI 16164 .cfa: sp 0 +
STACK CFI INIT 16168 58 .cfa: sp 0 +
STACK CFI 1616c .cfa: sp 32 +
STACK CFI 16174 .cfa: x29 32 + x19: .cfa -8 + ^ x20: .cfa -16 + ^ .ra: .cfa -24 + ^ x29: .cfa -32 + ^
STACK CFI 161a0 .cfa: sp 32 +
STACK CFI 161a8 .cfa: sp 0 +
STACK CFI 161ac .cfa: x29 32 +
STACK CFI 161b4 .cfa: sp 32 +
STACK CFI 161bc .cfa: sp 0 +
STACK CFI INIT 161c0 24 .cfa: sp 0 +
STACK CFI 161c4 .cfa: sp 32 +
STACK CFI 161cc .cfa: x29 32 + x19: .cfa -16 + ^ .ra: .cfa -24 + ^ x29: .cfa -32 + ^
STACK CFI 161d8 .cfa: sp 32 +
STACK CFI 161e0 .cfa: sp 0 +
STACK CFI INIT 16358 50 .cfa: sp 0 +
STACK CFI 1635c .cfa: sp 32 +
STACK CFI 16364 .cfa: x29 32 + x19: .cfa -16 + ^ .ra: .cfa -24 + ^ x29: .cfa -32 + ^
STACK CFI 1637c .cfa: sp 32 +
STACK CFI 16384 .cfa: sp 0 +
STACK CFI 16388 .cfa: x29 32 +
STACK CFI 1639c .cfa: sp 32 +
STACK CFI 163a4 .cfa: sp 0 +
STACK CFI INIT 163a8 64 .cfa: sp 0 +
STACK CFI 163ac .cfa: sp 32 +
STACK CFI 163b4 .cfa: x29 32 + x19: .cfa -16 + ^ .ra: .cfa -24 + ^ x29: .cfa -32 + ^
STACK CFI 163e0 .cfa: sp 32 +
STACK CFI 163e8 .cfa: sp 0 +
STACK CFI 163ec .cfa: x29 32 +
STACK CFI 16400 .cfa: sp 32 +
STACK CFI 16408 .cfa: sp 0 +
STACK CFI INIT 17100 4 .cfa: sp 0 +
STACK CFI INIT 17104 14 .cfa: sp 0 +
STACK CFI 17108 .cfa: sp 16 +
STACK CFI 1710c .cfa: x29 16 + .ra: .cfa -8 + ^ x29: .cfa -16 + ^
STACK CFI INIT 17344 14 .cfa: sp 0 +
STACK CFI 17348 .cfa: sp 16 +
STACK CFI 1734c .cfa: x29 16 + .ra: .cfa -8 + ^ x29: .cfa -16 + ^
STACK CFI INIT 17358 14 .cfa: sp 0 +
STACK CFI 1735c .cfa: sp 16 +
STACK CFI 17360 .cfa: x29 16 + .ra: .cfa -8 + ^ x29: .cfa -16 + ^
STACK CFI INIT 173bc 30 .cfa: sp 0 +
STACK CFI 173c0 .cfa: sp 32 +
STACK CFI 173c8 .cfa: x29 32 + x19: .cfa -16 + ^ .ra: .cfa -24 + ^ x29: .cfa -32 + ^
STACK CFI 173e0 .cfa: sp 32 +
STACK CFI 173e8 .cfa: sp 0 +
STACK CFI INIT 173ec 14 .cfa: sp 0 +
STACK CFI 173f0 .cfa: sp 16 +
STACK CFI 173f4 .cfa: x29 16 + .ra: .cfa -8 + ^ x29: .cfa -16 + ^
STACK CFI INIT 17400 4 .cfa: sp 0 +
STACK CFI INIT 17404 4 .cfa: sp 0 +
STACK CFI INIT 17408 38 .cfa: sp 0 +
STACK CFI 1740c .cfa: sp 32 +
STACK CFI 17414 .cfa: x29 32 + x19: .cfa -16 + ^ .ra: .cfa -24 + ^ x29: .cfa -32 + ^
STACK CFI 17434 .cfa: sp 32 +
STACK CFI 1743c .cfa: sp 0 +
STACK CFI INIT 17440 18 .cfa: sp 0 +
STACK CFI INIT 17458 4 .cfa: sp 0 +
STACK CFI INIT 1745c 4 .cfa: sp 0 +
STACK CFI INIT 17460 10 .cfa: sp 0 +
STACK CFI INIT 17470 1c .cfa: sp 0 +
STACK CFI INIT 1748c c .cfa: sp 0 +
STACK CFI INIT 17794 4 .cfa: sp 0 +
STACK CFI INIT 17798 14 .cfa: sp 0 +
STACK CFI INIT 177ac 4 .cfa: sp 0 +
STACK CFI INIT 177b0 14 .cfa: sp 0 +
STACK CFI INIT 177c4 4 .cfa: sp 0 +
STACK CFI INIT 177c8 14 .cfa: sp 0 +
STACK CFI INIT 179b8 178 .cfa: sp 0 +
STACK CFI 179bc .cfa: sp 80 +
STACK CFI 179d0 .cfa: x29 80 + x19: .cfa -8 + ^ x20: .cfa -16 + ^ x21: .cfa -24 + ^ x22: .cfa -32 + ^ x23: .cfa -40 + ^ x24: .cfa -48 + ^ x25: .cfa -56 + ^ x26: .cfa -64 + ^ .ra: .cfa -72 + ^ x29: .cfa -80 + ^
STACK CFI 17b18 .cfa: sp 80 +
STACK CFI 17b2c .cfa: sp 0 +
STACK CFI INIT 17b30 1b0 .cfa: sp 0 +
STACK CFI INIT 17d88 b4 .cfa: sp 0 +
STACK CFI 17d8c .cfa: sp 32 +
STACK CFI 17d94 .cfa: x29 32 + x19: .cfa -16 + ^ .ra: .cfa -24 + ^ x29: .cfa -32 + ^
STACK CFI 17e30 .cfa: sp 32 +
STACK CFI 17e38 .cfa: sp 0 +
STACK CFI INIT 17e3c 1c .cfa: sp 0 +
STACK CFI 17e40 .cfa: sp 16 +
STACK CFI 17e44 .cfa: x29 16 + .ra: .cfa -8 + ^ x29: .cfa -16 + ^
STACK CFI 17e50 .cfa: sp 16 +
STACK CFI 17e54 .cfa: sp 0 +
STACK CFI INIT 181dc 4 .cfa: sp 0 +
STACK CFI INIT 197dc 4 .cfa: sp 0 +
STACK CFI INIT 197e0 14 .cfa: sp 0 +
STACK CFI INIT 197f4 4 .cfa: sp 0 +
STACK CFI INIT 197f8 14 .cfa: sp 0 +
STACK CFI INIT 19ebc 3c .cfa: sp 0 +
STACK CFI 19ec0 .cfa: sp 32 +
STACK CFI 19ec8 .cfa: x29 32 + x19: .cfa -16 + ^ .ra: .cfa -24 + ^ x29: .cfa -32 + ^
STACK CFI 19edc .cfa: sp 32 +
STACK CFI 19ee4 .cfa: sp 0 +
STACK CFI 19ee8 .cfa: x29 32 +
STACK CFI 19eec .cfa: sp 32 +
STACK CFI 19ef4 .cfa: sp 0 +
STACK CFI INIT 19ef8 68 .cfa: sp 0 +
STACK CFI 19efc .cfa: sp 48 +
STACK CFI 19f08 .cfa: x29 48 + x19: .cfa -8 + ^ x20: .cfa -16 + ^ x21: .cfa -32 + ^ .ra: .cfa -40 + ^ x29: .cfa -48 + ^
STACK CFI 19f40 .cfa: sp 48 +
STACK CFI 19f4c .cfa: sp 0 +
STACK CFI 19f50 .cfa: sp 48 +
STACK CFI 19f5c .cfa: sp 0 +
STACK CFI INIT 1a124 54 .cfa: sp 0 +
STACK CFI 1a128 .cfa: sp 32 +
STACK CFI 1a130 .cfa: x29 32 + x19: .cfa -8 + ^ x20: .cfa -16 + ^ .ra: .cfa -24 + ^ x29: .cfa -32 + ^
STACK CFI 1a160 .cfa: sp 32 +
STACK CFI 1a168 .cfa: sp 0 +
STACK CFI 1a16c .cfa: sp 32 +
STACK CFI 1a174 .cfa: sp 0 +
STACK CFI INIT 1a178 14 .cfa: sp 0 +
STACK CFI 1a17c .cfa: sp 16 +
STACK CFI 1a180 .cfa: x29 16 + .ra: .cfa -8 + ^ x29: .cfa -16 + ^
STACK CFI INIT 1a18c 4 .cfa: sp 0 +
STACK CFI INIT 1a190 14 .cfa: sp 0 +
STACK CFI INIT 1ac14 34 .cfa: sp 0 +
STACK CFI 1ac18 .cfa: sp 32 +
STACK CFI 1ac20 .cfa: x29 32 + x19: .cfa -16 + ^ .ra: .cfa -24 + ^ x29: .cfa -32 + ^
STACK CFI 1ac3c .cfa: sp 32 +
STACK CFI 1ac44 .cfa: sp 0 +
STACK CFI INIT 1ac48 4 .cfa: sp 0 +
STACK CFI INIT 1ac4c 14 .cfa: sp 0 +
STACK CFI INIT 1afc4 4 .cfa: sp 0 +
STACK CFI INIT 1b13c 5c .cfa: sp 0 +
STACK CFI 1b140 .cfa: sp 32 +
STACK CFI 1b148 .cfa: x29 32 + x19: .cfa -16 + ^ .ra: .cfa -24 + ^ x29: .cfa -32 + ^
STACK CFI 1b18c .cfa: sp 32 +
STACK CFI 1b194 .cfa: sp 0 +
STACK CFI INIT 1b198 64 .cfa: sp 0 +
STACK CFI 1b19c .cfa: sp 32 +
STACK CFI 1b1a4 .cfa: x29 32 + x19: .cfa -16 + ^ .ra: .cfa -24 + ^ x29: .cfa -32 + ^
STACK CFI 1b1f0 .cfa: sp 32 +
STACK CFI 1b1f8 .cfa: sp 0 +
STACK CFI INIT 1b1fc 4 .cfa: sp 0 +
STACK CFI INIT 1b200 4 .cfa: sp 0 +
STACK CFI INIT 1b204 34 .cfa: sp 0 +
STACK CFI 1b208 .cfa: sp 32 +
STACK CFI 1b210 .cfa: x29 32 + x19: .cfa -16 + ^ .ra: .cfa -24 + ^ x29: .cfa -32 + ^
STACK CFI 1b22c .cfa: sp 32 +
STACK CFI 1b234 .cfa: sp 0 +
STACK CFI INIT 1b238 14 .cfa: sp 0 +
STACK CFI INIT 1b24c 4 .cfa: sp 0 +
STACK CFI INIT 1b250 4 .cfa: sp 0 +
STACK CFI INIT 1b254 10 .cfa: sp 0 +
STACK CFI INIT 1b264 1c .cfa: sp 0 +
STACK CFI INIT 1b280 c .cfa: sp 0 +
STACK CFI INIT 1b28c 104 .cfa: sp 0 +
STACK CFI 1b290 .cfa: sp 64 +
STACK CFI 1b2a0 .cfa: x29 64 + x19: .cfa -8 + ^ x20: .cfa -16 + ^ x21: .cfa -24 + ^ x22: .cfa -32 + ^ x23: .cfa -48 + ^ .ra: .cfa -56 + ^ x29: .cfa -64 + ^
STACK CFI 1b2fc .cfa: sp 64 +
STACK CFI 1b30c .cfa: sp 0 +
STACK CFI 1b310 .cfa: x29 64 +
STACK CFI 1b32c .cfa: sp 64 +
STACK CFI 1b33c .cfa: sp 0 +
STACK CFI 1b340 .cfa: x29 64 +
STACK CFI 1b37c .cfa: sp 64 +
STACK CFI 1b38c .cfa: sp 0 +
STACK CFI INIT 1c998 1c .cfa: sp 0 +
STACK CFI INIT 1ccbc 4 .cfa: sp 0 +
STACK CFI INIT 1d178 9c .cfa: sp 0 +
STACK CFI INIT 1d3a0 4 .cfa: sp 0 +
STACK CFI INIT 1dc1c 1c .cfa: sp 0 +
STACK CFI INIT 1dc38 1c .cfa: sp 0 +
STACK CFI INIT 1eed4 4 .cfa: sp 0 +
STACK CFI INIT 1eed8 4 .cfa: sp 0 +
STACK CFI INIT 1eedc 3c .cfa: sp 0 +
STACK CFI 1eee0 .cfa: sp 48 +
STACK CFI 1eeec .cfa: x29 48 + x19: .cfa -8 + ^ x20: .cfa -16 + ^ x21: .cfa -32 + ^ .ra: .cfa -40 + ^ x29: .cfa -48 + ^
STACK CFI 1ef08 .cfa: sp 48 +
STACK CFI 1ef14 .cfa: sp 0 +
STACK CFI INIT 1ef18 34 .cfa: sp 0 +
STACK CFI 1ef1c .cfa: sp 32 +
STACK CFI 1ef24 .cfa: x29 32 + x19: .cfa -8 + ^ x20: .cfa -16 + ^ .ra: .cfa -24 + ^ x29: .cfa -32 + ^
STACK CFI 1ef40 .cfa: sp 32 +
STACK CFI 1ef48 .cfa: sp 0 +
STACK CFI INIT 1ef4c 24 .cfa: sp 0 +
STACK CFI 1ef50 .cfa: sp 32 +
STACK CFI 1ef58 .cfa: x29 32 + x19: .cfa -16 + ^ .ra: .cfa -24 + ^ x29: .cfa -32 + ^
STACK CFI 1ef64 .cfa: sp 32 +
STACK CFI 1ef6c .cfa: sp 0 +
STACK CFI INIT 1ef70 24 .cfa: sp 0 +
STACK CFI 1ef74 .cfa: sp 32 +
STACK CFI 1ef7c .cfa: x29 32 + x19: .cfa -16 + ^ .ra: .cfa -24 + ^ x29: .cfa -32 + ^
STACK CFI 1ef88 .cfa: sp 32 +
STACK CFI 1ef90 .cfa: sp 0 +
STACK CFI INIT 1ef94 24 .cfa: sp 0 +
STACK CFI 1ef98 .cfa: sp 32 +
STACK CFI 1efa0 .cfa: x29 32 + x19: .cfa -16 + ^ .ra: .cfa -24 + ^ x29: .cfa -32 + ^
STACK CFI 1efac .cfa: sp 32 +
STACK CFI 1efb4 .cfa: sp 0 +
STACK CFI INIT 1f70c 4 .cfa: sp 0 +
STACK CFI INIT 1fc64 1c .cfa: sp 0 +
STACK CFI INIT 20004 4 .cfa: sp 0 +
STACK CFI INIT 20690 ac .cfa: sp 0 +
STACK CFI INIT 20ff8 1cc .cfa: sp 0 +
STACK CFI 20ffc .cfa: sp 208 +
STACK CFI 21010 .cfa: x29 64 + x19: .cfa -8 + ^ x20: .cfa -16 + ^ x21: .cfa -24 + ^ x22: .cfa -32 + ^ x23: .cfa -40 + ^ x24: .cfa -48 + ^ .ra: .cfa -56 + ^ x29: .cfa -64 + ^
STACK CFI 211a8 .cfa: sp 208 +
STACK CFI 211bc .cfa: sp 0 +
STACK CFI 211c0 .cfa: x29 64 +
STACK CFI INIT 24ab0 34 .cfa: sp 0 +
STACK CFI 24ab4 .cfa: sp 16 +
STACK CFI 24ab8 .cfa: x29 16 + .ra: .cfa -8 + ^ x29: .cfa -16 + ^
STACK CFI INIT 24ae4 24 .cfa: sp 0 +
STACK CFI 24ae8 .cfa: sp 32 +
STACK CFI 24af0 .cfa: x29 32 + x19: .cfa -16 + ^ .ra: .cfa -24 + ^ x29: .cfa -32 + ^
STACK CFI 24afc .cfa: sp 32 +
STACK CFI 24b04 .cfa: sp 0 +
STACK CFI INIT 24b08 4 .cfa: sp 0 +
STACK CFI INIT 24b0c 4 .cfa: sp 0 +
STACK CFI INIT 24b10 24 .cfa: sp 0 +
STACK CFI 24b14 .cfa: sp 16 +
STACK CFI 24b18 .cfa: x29 16 + .ra: .cfa -8 + ^ x29: .cfa -16 + ^
STACK CFI 24b2c .cfa: sp 16 +
STACK CFI 24b30 .cfa: sp 0 +
STACK CFI INIT 24b34 10 .cfa: sp 0 +
STACK CFI INIT 24b44 4 .cfa: sp 0 +
STACK CFI INIT 24b48 4 .cfa: sp 0 +
STACK CFI INIT 24b4c 50 .cfa: sp 0 +
STACK CFI 24b58 .cfa: sp 16 +
STACK CFI 24b5c .cfa: x29 16 + .ra: .cfa -8 + ^ x29: .cfa -16 + ^
STACK CFI 24b8c .cfa: sp 16 +
STACK CFI 24b90 .cfa: sp 0 +
STACK CFI INIT 24b9c 1c .cfa: sp 0 +
STACK CFI INIT 24bb8 c .cfa: sp 0 +
STACK CFI INIT 24bc4 4 .cfa: sp 0 +
STACK CFI INIT 24bc8 4 .cfa: sp 0 +
STACK CFI INIT 24bcc 38 .cfa: sp 0 +
STACK CFI 24bd0 .cfa: sp 32 +
STACK CFI 24bd8 .cfa: x29 32 + x19: .cfa -16 + ^ .ra: .cfa -24 + ^ x29: .cfa -32 + ^
STACK CFI 24bf8 .cfa: sp 32 +
STACK CFI 24c00 .cfa: sp 0 +
STACK CFI INIT 24c04 18 .cfa: sp 0 +
STACK CFI INIT 24c1c 4 .cfa: sp 0 +
STACK CFI INIT 24c20 4 .cfa: sp 0 +
STACK CFI INIT 24c24 84 .cfa: sp 0 +
STACK CFI 24c28 .cfa: sp 32 +
STACK CFI 24c30 .cfa: x29 32 + x19: .cfa -8 + ^ x20: .cfa -16 + ^ .ra: .cfa -24 + ^ x29: .cfa -32 + ^
STACK CFI 24c9c .cfa: sp 32 +
STACK CFI 24ca4 .cfa: sp 0 +
STACK CFI INIT 24ca8 1c .cfa: sp 0 +
STACK CFI INIT 24cc4 c .cfa: sp 0 +
STACK CFI INIT 24cd0 3c .cfa: sp 0 +
STACK CFI 24cd4 .cfa: sp 32 +
STACK CFI 24cdc .cfa: x29 32 + x19: .cfa -16 + ^ .ra: .cfa -24 + ^ x29: .cfa -32 + ^
STACK CFI 24ce8 .cfa: sp 32 +
STACK CFI 24cf0 .cfa: sp 0 +
STACK CFI 24cf4 .cfa: x29 32 +
STACK CFI 24d00 .cfa: sp 32 +
STACK CFI 24d08 .cfa: sp 0 +
STACK CFI INIT 24d0c c .cfa: sp 0 +
STACK CFI INIT 24d18 24c .cfa: sp 0 +
STACK CFI INIT 24f64 a0 .cfa: sp 0 +
STACK CFI 24f70 .cfa: sp 32 +
STACK CFI 24fc8 .cfa: sp 0 +
STACK CFI 24fcc .cfa: sp 32 +
STACK CFI 24fd4 .cfa: sp 0 +
STACK CFI 24fd8 .cfa: sp 32 +
STACK CFI 24fec .cfa: sp 0 +
STACK CFI 24ff0 .cfa: sp 32 +
STACK CFI 25000 .cfa: sp 0 +
STACK CFI INIT 25004 38 .cfa: sp 0 +
STACK CFI 25010 .cfa: sp 32 +
STACK CFI 25038 .cfa: sp 0 +
STACK CFI INIT 252d0 7c .cfa: sp 0 +
STACK CFI 252d4 .cfa: sp 32 +
STACK CFI 252dc .cfa: x29 32 + x19: .cfa -16 + ^ .ra: .cfa -24 + ^ x29: .cfa -32 + ^
STACK CFI 25308 .cfa: sp 32 +
STACK CFI 25310 .cfa: sp 0 +
STACK CFI 25314 .cfa: x29 32 +
STACK CFI 25340 .cfa: sp 32 +
STACK CFI 25348 .cfa: sp 0 +
STACK CFI INIT 2539c 2c .cfa: sp 0 +
STACK CFI 253a0 .cfa: sp 32 +
STACK CFI 253a8 .cfa: x29 32 + x19: .cfa -16 + ^ .ra: .cfa -24 + ^ x29: .cfa -32 + ^
STACK CFI 253bc .cfa: sp 32 +
STACK CFI 253c4 .cfa: sp 0 +
STACK CFI INIT 25b88 64 .cfa: sp 0 +
STACK CFI 25b8c .cfa: sp 32 +
STACK CFI 25b94 .cfa: x29 32 + x19: .cfa -16 + ^ .ra: .cfa -24 + ^ x29: .cfa -32 + ^
STACK CFI 25bb0 .cfa: sp 32 +
STACK CFI 25bb8 .cfa: sp 0 +
STACK CFI 25bbc .cfa: x29 32 +
STACK CFI 25be0 .cfa: sp 32 +
STACK CFI 25be8 .cfa: sp 0 +
STACK CFI INIT 25bec 570 .cfa: sp 0 +
STACK CFI 25bf0 .cfa: sp 176 +
STACK CFI 25c04 .cfa: x29 64 + x19: .cfa -8 + ^ x20: .cfa -16 + ^ x21: .cfa -24 + ^ x22: .cfa -32 + ^ x23: .cfa -40 + ^ x24: .cfa -48 + ^ .ra: .cfa -56 + ^ x29: .cfa -64 + ^
STACK CFI 25e34 .cfa: sp 176 +
STACK CFI 25e48 .cfa: sp 0 +
STACK CFI 25e4c .cfa: x29 64 +
STACK CFI 25e98 .cfa: sp 176 +
STACK CFI 25eac .cfa: sp 0 +
STACK CFI 25eb0 .cfa: x29 64 +
STACK CFI 25ee8 .cfa: sp 176 +
STACK CFI 25efc .cfa: sp 0 +
STACK CFI 25f00 .cfa: x29 64 +
STACK CFI 25f18 .cfa: sp 176 +
STACK CFI 25f2c .cfa: sp 0 +
STACK CFI 25f30 .cfa: x29 64 +
STACK CFI 25f50 .cfa: sp 176 +
STACK CFI 25f64 .cfa: sp 0 +
STACK CFI 25f68 .cfa: x29 64 +
STACK CFI 25f80 .cfa: sp 176 +
STACK CFI 25f94 .cfa: sp 0 +
STACK CFI 25f98 .cfa: x29 64 +
STACK CFI 25fac .cfa: sp 176 +
STACK CFI 25fc0 .cfa: sp 0 +
STACK CFI 25fc4 .cfa: x29 64 +
STACK CFI 25fd8 .cfa: sp 176 +
STACK CFI 25fec .cfa: sp 0 +
STACK CFI 25ff0 .cfa: x29 64 +
STACK CFI 26000 .cfa: sp 176 +
STACK CFI 26014 .cfa: sp 0 +
STACK CFI 26018 .cfa: x29 64 +
STACK CFI 26028 .cfa: sp 176 +
STACK CFI 2603c .cfa: sp 0 +
STACK CFI 26040 .cfa: x29 64 +
STACK CFI 26058 .cfa: sp 176 +
STACK CFI 2606c .cfa: sp 0 +
STACK CFI 26070 .cfa: x29 64 +
STACK CFI 26084 .cfa: sp 176 +
STACK CFI 26098 .cfa: sp 0 +
STACK CFI 2609c .cfa: x29 64 +
STACK CFI 260b4 .cfa: sp 176 +
STACK CFI 260c8 .cfa: sp 0 +
STACK CFI 260cc .cfa: x29 64 +
STACK CFI 260f8 .cfa: sp 176 +
STACK CFI 2610c .cfa: sp 0 +
STACK CFI 26110 .cfa: x29 64 +
STACK CFI 26124 .cfa: sp 176 +
STACK CFI 26138 .cfa: sp 0 +
STACK CFI 2613c .cfa: x29 64 +
STACK CFI INIT 2615c 228 .cfa: sp 0 +
STACK CFI INIT 26384 2dc .cfa: sp 0 +
STACK CFI INIT 26660 53c .cfa: sp 0 +
STACK CFI INIT 26b9c 78 .cfa: sp 0 +
STACK CFI 26ba0 .cfa: sp 48 +
STACK CFI 26bac .cfa: x29 48 + x19: .cfa -8 + ^ x20: .cfa -16 + ^ x21: .cfa -24 + ^ x22: .cfa -32 + ^ .ra: .cfa -40 + ^ x29: .cfa -48 + ^
STACK CFI 26bf4 .cfa: sp 48 +
STACK CFI 26c00 .cfa: sp 0 +
STACK CFI 26c04 .cfa: sp 48 +
STACK CFI 26c10 .cfa: sp 0 +
STACK CFI INIT 26c14 8c .cfa: sp 0 +
STACK CFI 26c18 .cfa: sp 32 +
STACK CFI 26c20 .cfa: x29 32 + x19: .cfa -16 + ^ .ra: .cfa -24 + ^ x29: .cfa -32 + ^
STACK CFI 26c54 .cfa: sp 32 +
STACK CFI 26c5c .cfa: sp 0 +
STACK CFI 26c60 .cfa: x29 32 +
STACK CFI 26c94 .cfa: sp 32 +
STACK CFI 26c9c .cfa: sp 0 +
STACK CFI INIT 26ca0 24 .cfa: sp 0 +
STACK CFI 26ca4 .cfa: sp 32 +
STACK CFI 26cac .cfa: x29 32 + x19: .cfa -16 + ^ .ra: .cfa -24 + ^ x29: .cfa -32 + ^
STACK CFI 26cb8 .cfa: sp 32 +
STACK CFI 26cc0 .cfa: sp 0 +
STACK CFI INIT 26cc4 150 .cfa: sp 0 +
STACK CFI 26cc8 .cfa: sp 48 +
STACK CFI 26cd4 .cfa: x29 48 + x19: .cfa -8 + ^ x20: .cfa -16 + ^ x21: .cfa -24 + ^ x22: .cfa -32 + ^ .ra: .cfa -40 + ^ x29: .cfa -48 + ^
STACK CFI 26e04 .cfa: sp 48 +
STACK CFI 26e10 .cfa: sp 0 +
STACK CFI INIT 26e14 68 .cfa: sp 0 +
STACK CFI 26e18 .cfa: sp 64 +
STACK CFI 26e24 .cfa: x29 32 + x19: .cfa -16 + ^ .ra: .cfa -24 + ^ x29: .cfa -32 + ^
STACK CFI 26e68 .cfa: sp 64 +
STACK CFI 26e74 .cfa: sp 0 +
STACK CFI 26e78 .cfa: x29 32 +
STACK CFI INIT 26e7c 90 .cfa: sp 0 +
STACK CFI 26e80 .cfa: sp 32 +
STACK CFI 26e88 .cfa: x29 32 + x19: .cfa -8 + ^ x20: .cfa -16 + ^ .ra: .cfa -24 + ^ x29: .cfa -32 + ^
STACK CFI 26eb4 .cfa: sp 32 +
STACK CFI 26ebc .cfa: sp 0 +
STACK CFI 26ec0 .cfa: x29 32 +
STACK CFI 26f00 .cfa: sp 32 +
STACK CFI 26f08 .cfa: sp 0 +
STACK CFI INIT 26f0c ec .cfa: sp 0 +
STACK CFI 26f10 .cfa: sp 112 +
STACK CFI 26f20 .cfa: x29 48 + x19: .cfa -8 + ^ x20: .cfa -16 + ^ x21: .cfa -32 + ^ .ra: .cfa -40 + ^ x29: .cfa -48 + ^
STACK CFI 26fe0 .cfa: sp 112 +
STACK CFI 26ff0 .cfa: sp 0 +
STACK CFI 26ff4 .cfa: x29 48 +
STACK CFI INIT 26ff8 ec .cfa: sp 0 +
STACK CFI 26ffc .cfa: sp 112 +
STACK CFI 2700c .cfa: x29 48 + x19: .cfa -8 + ^ x20: .cfa -16 + ^ x21: .cfa -32 + ^ .ra: .cfa -40 + ^ x29: .cfa -48 + ^
STACK CFI 270cc .cfa: sp 112 +
STACK CFI 270dc .cfa: sp 0 +
STACK CFI 270e0 .cfa: x29 48 +
STACK CFI INIT 270e4 48 .cfa: sp 0 +
STACK CFI 270e8 .cfa: sp 32 +
STACK CFI 270f0 .cfa: x29 32 + x19: .cfa -8 + ^ x20: .cfa -16 + ^ .ra: .cfa -24 + ^ x29: .cfa -32 + ^
STACK CFI 27114 .cfa: sp 32 +
STACK CFI 2711c .cfa: sp 0 +
STACK CFI 27120 .cfa: x29 32 +
STACK CFI INIT 2712c 98 .cfa: sp 0 +
STACK CFI 27130 .cfa: sp 80 +
STACK CFI 2713c .cfa: x29 32 + x19: .cfa -16 + ^ .ra: .cfa -24 + ^ x29: .cfa -32 + ^
STACK CFI 271b0 .cfa: sp 80 +
STACK CFI 271bc .cfa: sp 0 +
STACK CFI 271c0 .cfa: x29 32 +
STACK CFI INIT 271c4 260 .cfa: sp 0 +
STACK CFI 271c8 .cfa: sp 112 +
STACK CFI 271e0 .cfa: x29 80 + x19: .cfa -8 + ^ x20: .cfa -16 + ^ x21: .cfa -24 + ^ x22: .cfa -32 + ^ x23: .cfa -40 + ^ x24: .cfa -48 + ^ x25: .cfa -64 + ^ .ra: .cfa -72 + ^ x29: .cfa -80 + ^
STACK CFI 273c4 .cfa: sp 112 +
STACK CFI 273dc .cfa: sp 0 +
STACK CFI 273e0 .cfa: x29 80 +
STACK CFI INIT 27424 150 .cfa: sp 0 +
STACK CFI 27428 .cfa: sp 48 +
STACK CFI 27434 .cfa: x29 48 + x19: .cfa -8 + ^ x20: .cfa -16 + ^ x21: .cfa -24 + ^ x22: .cfa -32 + ^ .ra: .cfa -40 + ^ x29: .cfa -48 + ^
STACK CFI 27564 .cfa: sp 48 +
STACK CFI 27570 .cfa: sp 0 +
STACK CFI INIT 27574 1e0 .cfa: sp 0 +
STACK CFI 27578 .cfa: sp 96 +
STACK CFI 2758c .cfa: x29 64 + x19: .cfa -8 + ^ x20: .cfa -16 + ^ x21: .cfa -24 + ^ x22: .cfa -32 + ^ x23: .cfa -40 + ^ x24: .cfa -48 + ^ .ra: .cfa -56 + ^ x29: .cfa -64 + ^
STACK CFI 2770c .cfa: sp 96 +
STACK CFI 27720 .cfa: sp 0 +
STACK CFI 27724 .cfa: x29 64 +
STACK CFI INIT 27754 284 .cfa: sp 0 +
STACK CFI 27758 .cfa: sp 112 +
STACK CFI 27770 .cfa: x29 80 + x19: .cfa -8 + ^ x20: .cfa -16 + ^ x21: .cfa -24 + ^ x22: .cfa -32 + ^ x23: .cfa -40 + ^ x24: .cfa -48 + ^ x25: .cfa -64 + ^ .ra: .cfa -72 + ^ x29: .cfa -80 + ^
STACK CFI 27978 .cfa: sp 112 +
STACK CFI 27990 .cfa: sp 0 +
STACK CFI 27994 .cfa: x29 80 +
STACK CFI INIT 279d8 208 .cfa: sp 0 +
STACK CFI 279dc .cfa: sp 96 +
STACK CFI 279f0 .cfa: x29 64 + x19: .cfa -8 + ^ x20: .cfa -16 + ^ x21: .cfa -24 + ^ x22: .cfa -32 + ^ x23: .cfa -40 + ^ x24: .cfa -48 + ^ .ra: .cfa -56 + ^ x29: .cfa -64 + ^
STACK CFI 27b98 .cfa: sp 96 +
STACK CFI 27bac .cfa: sp 0 +
STACK CFI 27bb0 .cfa: x29 64 +
STACK CFI INIT 27be0 360 .cfa: sp 0 +
STACK CFI 27be4 .cfa: sp 160 +
STACK CFI 27c00 .cfa: x29 96 + x19: .cfa -8 + ^ x20: .cfa -16 + ^ x21: .cfa -24 + ^ x22: .cfa -32 + ^ x23: .cfa -40 + ^ x24: .cfa -48 + ^ x25: .cfa -56 + ^ x26: .cfa -64 + ^ x27: .cfa -72 + ^ x28: .cfa -80 + ^ .ra: .cfa -88 + ^ x29: .cfa -96 + ^
STACK CFI 27ecc .cfa: sp 160 +
STACK CFI 27ee8 .cfa: sp 0 +
STACK CFI 27eec .cfa: x29 96 +
STACK CFI INIT 27f40 314 .cfa: sp 0 +
STACK CFI 27f44 .cfa: sp 144 +
STACK CFI 27f60 .cfa: x29 96 + x19: .cfa -8 + ^ x20: .cfa -16 + ^ x21: .cfa -24 + ^ x22: .cfa -32 + ^ x23: .cfa -40 + ^ x24: .cfa -48 + ^ x25: .cfa -56 + ^ x26: .cfa -64 + ^ x27: .cfa -72 + ^ x28: .cfa -80 + ^ .ra: .cfa -88 + ^ x29: .cfa -96 + ^
STACK CFI 281dc .cfa: sp 144 +
STACK CFI 281f8 .cfa: sp 0 +
STACK CFI 281fc .cfa: x29 96 +
STACK CFI INIT 28254 290 .cfa: sp 0 +
STACK CFI 28258 .cfa: sp 128 +
STACK CFI 28270 .cfa: x29 80 + x19: .cfa -8 + ^ x20: .cfa -16 + ^ x21: .cfa -24 + ^ x22: .cfa -32 + ^ x23: .cfa -40 + ^ x24: .cfa -48 + ^ x25: .cfa -56 + ^ x26: .cfa -64 + ^ .ra: .cfa -72 + ^ x29: .cfa -80 + ^
STACK CFI 284c4 .cfa: sp 128 +
STACK CFI 284dc .cfa: sp 0 +
STACK CFI 284e0 .cfa: x29 80 +
STACK CFI INIT 284e4 ddc .cfa: sp 0 +
STACK CFI 284e8 .cfa: sp 144 +
STACK CFI 28504 .cfa: x29 96 + x19: .cfa -8 + ^ x20: .cfa -16 + ^ x21: .cfa -24 + ^ x22: .cfa -32 + ^ x23: .cfa -40 + ^ x24: .cfa -48 + ^ x25: .cfa -56 + ^ x26: .cfa -64 + ^ x27: .cfa -72 + ^ x28: .cfa -80 + ^ .ra: .cfa -88 + ^ x29: .cfa -96 + ^
STACK CFI 29198 .cfa: sp 144 +
STACK CFI 291b4 .cfa: sp 0 +
STACK CFI 291b8 .cfa: x29 96 +
STACK CFI INIT 292c0 1d0 .cfa: sp 0 +
STACK CFI 292c4 .cfa: sp 80 +
STACK CFI 292d8 .cfa: x29 80 + x19: .cfa -8 + ^ x20: .cfa -16 + ^ x21: .cfa -24 + ^ x22: .cfa -32 + ^ x23: .cfa -40 + ^ x24: .cfa -48 + ^ x25: .cfa -64 + ^ .ra: .cfa -72 + ^ x29: .cfa -80 + ^
STACK CFI 29478 .cfa: sp 80 +
STACK CFI 2948c .cfa: sp 0 +
STACK CFI INIT 29490 23c .cfa: sp 0 +
STACK CFI 29494 .cfa: sp 112 +
STACK CFI 294a8 .cfa: x29 64 + x19: .cfa -8 + ^ x20: .cfa -16 + ^ x21: .cfa -24 + ^ x22: .cfa -32 + ^ x23: .cfa -40 + ^ x24: .cfa -48 + ^ .ra: .cfa -56 + ^ x29: .cfa -64 + ^
STACK CFI 29684 .cfa: sp 112 +
STACK CFI 29698 .cfa: sp 0 +
STACK CFI 2969c .cfa: x29 64 +
STACK CFI INIT 296cc 30c .cfa: sp 0 +
STACK CFI 296d0 .cfa: sp 80 +
STACK CFI 296e4 .cfa: x29 64 + x19: .cfa -8 + ^ x20: .cfa -16 + ^ x21: .cfa -24 + ^ x22: .cfa -32 + ^ x23: .cfa -40 + ^ x24: .cfa -48 + ^ .ra: .cfa -56 + ^ x29: .cfa -64 + ^
STACK CFI 29860 .cfa: sp 80 +
STACK CFI 29874 .cfa: sp 0 +
STACK CFI 29878 .cfa: x29 64 +
STACK CFI INIT 299d8 178 .cfa: sp 0 +
STACK CFI 299dc .cfa: sp 80 +
STACK CFI 299f0 .cfa: x29 64 + x19: .cfa -8 + ^ x20: .cfa -16 + ^ x21: .cfa -24 + ^ x22: .cfa -32 + ^ x23: .cfa -40 + ^ x24: .cfa -48 + ^ .ra: .cfa -56 + ^ x29: .cfa -64 + ^
STACK CFI 29b34 .cfa: sp 80 +
STACK CFI 29b48 .cfa: sp 0 +
STACK CFI 29b4c .cfa: x29 64 +
STACK CFI INIT 29b50 178 .cfa: sp 0 +
STACK CFI 29b54 .cfa: sp 80 +
STACK CFI 29b68 .cfa: x29 64 + x19: .cfa -8 + ^ x20: .cfa -16 + ^ x21: .cfa -24 + ^ x22: .cfa -32 + ^ x23: .cfa -40 + ^ x24: .cfa -48 + ^ .ra: .cfa -56 + ^ x29: .cfa -64 + ^
STACK CFI 29cac .cfa: sp 80 +
STACK CFI 29cc0 .cfa: sp 0 +
STACK CFI 29cc4 .cfa: x29 64 +
STACK CFI INIT 29cc8 240 .cfa: sp 0 +
STACK CFI 29ccc .cfa: sp 96 +
STACK CFI 29ce4 .cfa: x29 96 + x19: .cfa -8 + ^ x20: .cfa -16 + ^ x21: .cfa -24 + ^ x22: .cfa -32 + ^ x23: .cfa -40 + ^ x24: .cfa -48 + ^ x25: .cfa -56 + ^ x26: .cfa -64 + ^ x27: .cfa -72 + ^ x28: .cfa -80 + ^ .ra: .cfa -88 + ^ x29: .cfa -96 + ^
STACK CFI 29eec .cfa: sp 96 +
STACK CFI 29f04 .cfa: sp 0 +
STACK CFI INIT 2ab7c 154 .cfa: sp 0 +
STACK CFI 2ab80 .cfa: sp 96 +
STACK CFI 2ab94 .cfa: x29 64 + x19: .cfa -8 + ^ x20: .cfa -16 + ^ x21: .cfa -24 + ^ x22: .cfa -32 + ^ x23: .cfa -48 + ^ .ra: .cfa -56 + ^ x29: .cfa -64 + ^
STACK CFI 2ac74 .cfa: sp 96 +
STACK CFI 2ac88 .cfa: sp 0 +
STACK CFI 2ac8c .cfa: x29 64 +
STACK CFI INIT 2af3c 44 .cfa: sp 0 +
STACK CFI 2af40 .cfa: sp 32 +
STACK CFI 2af48 .cfa: x29 32 + x19: .cfa -16 + ^ .ra: .cfa -24 + ^ x29: .cfa -32 + ^
STACK CFI 2af64 .cfa: sp 32 +
STACK CFI 2af6c .cfa: sp 0 +
STACK CFI 2af70 .cfa: x29 32 +
STACK CFI 2af74 .cfa: sp 32 +
STACK CFI 2af7c .cfa: sp 0 +
STACK CFI INIT 2af80 1d0 .cfa: sp 0 +
STACK CFI 2af84 .cfa: sp 64 +
STACK CFI 2af94 .cfa: x29 64 + x19: .cfa -8 + ^ x20: .cfa -16 + ^ x21: .cfa -24 + ^ x22: .cfa -32 + ^ x23: .cfa -40 + ^ x24: .cfa -48 + ^ .ra: .cfa -56 + ^ x29: .cfa -64 + ^
STACK CFI 2b054 .cfa: sp 64 +
STACK CFI 2b064 .cfa: sp 0 +
STACK CFI 2b068 .cfa: x29 64 +
STACK CFI INIT 2b150 17c .cfa: sp 0 +
STACK CFI INIT 2b2cc ac .cfa: sp 0 +
STACK CFI 2b2d0 .cfa: sp 64 +
STACK CFI 2b2e0 .cfa: x29 64 + x19: .cfa -8 + ^ x20: .cfa -16 + ^ x21: .cfa -24 + ^ x22: .cfa -32 + ^ x23: .cfa -48 + ^ .ra: .cfa -56 + ^ x29: .cfa -64 + ^
STACK CFI 2b35c .cfa: sp 64 +
STACK CFI 2b36c .cfa: sp 0 +
STACK CFI 2b370 .cfa: x29 64 +
STACK CFI INIT 2b378 110 .cfa: sp 0 +
STACK CFI 2b37c .cfa: sp 64 +
STACK CFI 2b38c .cfa: x29 64 + x19: .cfa -8 + ^ x20: .cfa -16 + ^ x21: .cfa -24 + ^ x22: .cfa -32 + ^ x23: .cfa -40 + ^ x24: .cfa -48 + ^ .ra: .cfa -56 + ^ x29: .cfa -64 + ^
STACK CFI 2b46c .cfa: sp 64 +
STACK CFI 2b47c .cfa: sp 0 +
STACK CFI 2b480 .cfa: x29 64 +
STACK CFI INIT 2b840 a0 .cfa: sp 0 +
STACK CFI 2b844 .cfa: sp 48 +
STACK CFI 2b850 .cfa: x29 48 + x19: .cfa -8 + ^ x20: .cfa -16 + ^ x21: .cfa -24 + ^ x22: .cfa -32 + ^ .ra: .cfa -40 + ^ x29: .cfa -48 + ^
STACK CFI 2b8bc .cfa: sp 48 +
STACK CFI 2b8c8 .cfa: sp 0 +
STACK CFI 2b8cc .cfa: sp 48 +
STACK CFI 2b8d8 .cfa: sp 0 +
STACK CFI 2b8dc .cfa: x29 48 +
STACK CFI INIT 2c594 158 .cfa: sp 0 +
STACK CFI 2c598 .cfa: sp 96 +
STACK CFI 2c5ac .cfa: x29 64 + x19: .cfa -8 + ^ x20: .cfa -16 + ^ x21: .cfa -24 + ^ x22: .cfa -32 + ^ x23: .cfa -48 + ^ .ra: .cfa -56 + ^ x29: .cfa -64 + ^
STACK CFI 2c690 .cfa: sp 96 +
STACK CFI 2c6a4 .cfa: sp 0 +
STACK CFI 2c6a8 .cfa: x29 64 +
STACK CFI INIT 2c6ec 190 .cfa: sp 0 +
STACK CFI INIT 2d378 1dc .cfa: sp 0 +
STACK CFI 2d37c .cfa: sp 80 +
STACK CFI 2d390 .cfa: x29 80 + x19: .cfa -8 + ^ x20: .cfa -16 + ^ x21: .cfa -24 + ^ x22: .cfa -32 + ^ x23: .cfa -40 + ^ x24: .cfa -48 + ^ x25: .cfa -64 + ^ .ra: .cfa -72 + ^ x29: .cfa -80 + ^
STACK CFI 2d53c .cfa: sp 80 +
STACK CFI 2d550 .cfa: sp 0 +
STACK CFI INIT 2e984 124 .cfa: sp 0 +
STACK CFI 2e9b4 .cfa: sp 32 +
STACK CFI 2e9bc .cfa: x29 32 + x19: .cfa -8 + ^ x20: .cfa -16 + ^ .ra: .cfa -24 + ^ x29: .cfa -32 + ^
STACK CFI 2ea9c .cfa: sp 32 +
STACK CFI 2eaa4 .cfa: sp 0 +
STACK CFI INIT 2f204 320 .cfa: sp 0 +
STACK CFI 2f208 .cfa: sp 64 +
STACK CFI 2f218 .cfa: x29 64 + x19: .cfa -8 + ^ x20: .cfa -16 + ^ x21: .cfa -24 + ^ x22: .cfa -32 + ^ x23: .cfa -40 + ^ x24: .cfa -48 + ^ .ra: .cfa -56 + ^ x29: .cfa -64 + ^
STACK CFI 2f294 .cfa: sp 64 +
STACK CFI 2f2a4 .cfa: sp 0 +
STACK CFI 2f2a8 .cfa: x29 64 +
STACK CFI 2f47c .cfa: sp 64 +
STACK CFI 2f48c .cfa: sp 0 +
STACK CFI 2f490 .cfa: x29 64 +
STACK CFI 2f4a0 .cfa: sp 64 +
STACK CFI 2f4b0 .cfa: sp 0 +
STACK CFI 2f4b4 .cfa: x29 64 +
STACK CFI INIT 2f524 a0 .cfa: sp 0 +
STACK CFI 2f528 .cfa: sp 48 +
STACK CFI 2f534 .cfa: x29 48 + x19: .cfa -8 + ^ x20: .cfa -16 + ^ x21: .cfa -24 + ^ x22: .cfa -32 + ^ .ra: .cfa -40 + ^ x29: .cfa -48 + ^
STACK CFI 2f5a0 .cfa: sp 48 +
STACK CFI 2f5ac .cfa: sp 0 +
STACK CFI 2f5b0 .cfa: sp 48 +
STACK CFI 2f5bc .cfa: sp 0 +
STACK CFI 2f5c0 .cfa: x29 48 +
STACK CFI INIT 30474 160 .cfa: sp 0 +
STACK CFI 30478 .cfa: sp 64 +
STACK CFI 30488 .cfa: x29 64 + x19: .cfa -8 + ^ x20: .cfa -16 + ^ x21: .cfa -24 + ^ x22: .cfa -32 + ^ x23: .cfa -48 + ^ .ra: .cfa -56 + ^ x29: .cfa -64 + ^
STACK CFI 30580 .cfa: sp 64 +
STACK CFI 30590 .cfa: sp 0 +
STACK CFI 30594 .cfa: x29 64 +
STACK CFI INIT 305d4 214 .cfa: sp 0 +
STACK CFI 305d8 .cfa: sp 128 +
STACK CFI 305f4 .cfa: x29 96 + x19: .cfa -8 + ^ x20: .cfa -16 + ^ x21: .cfa -24 + ^ x22: .cfa -32 + ^ x23: .cfa -40 + ^ x24: .cfa -48 + ^ x25: .cfa -56 + ^ x26: .cfa -64 + ^ x27: .cfa -80 + ^ .ra: .cfa -88 + ^ x29: .cfa -96 + ^
STACK CFI 30770 .cfa: sp 128 +
STACK CFI 3078c .cfa: sp 0 +
STACK CFI 30790 .cfa: x29 96 +
STACK CFI INIT 32484 290 .cfa: sp 0 +
STACK CFI 32488 .cfa: sp 16 +
STACK CFI 3248c .cfa: x29 16 + .ra: .cfa -8 + ^ x29: .cfa -16 + ^
STACK CFI 32518 .cfa: sp 16 +
STACK CFI 3251c .cfa: sp 0 +
STACK CFI 32520 .cfa: x29 16 +
STACK CFI 32570 .cfa: sp 16 +
STACK CFI 32574 .cfa: sp 0 +
STACK CFI 32578 .cfa: x29 16 +
STACK CFI 326dc .cfa: sp 16 +
STACK CFI 326e0 .cfa: sp 0 +
STACK CFI 326e4 .cfa: x29 16 +
STACK CFI INIT 32714 158 .cfa: sp 0 +
STACK CFI 32718 .cfa: sp 112 +
STACK CFI 32734 .cfa: x29 96 + x19: .cfa -8 + ^ x20: .cfa -16 + ^ x21: .cfa -24 + ^ x22: .cfa -32 + ^ x23: .cfa -40 + ^ x24: .cfa -48 + ^ x25: .cfa -56 + ^ x26: .cfa -64 + ^ x27: .cfa -72 + ^ x28: .cfa -80 + ^ .ra: .cfa -88 + ^ x29: .cfa -96 + ^
STACK CFI 3281c .cfa: sp 112 +
STACK CFI 32820 .cfa: x29 96 +
STACK CFI 32828 .cfa: sp 112 +
STACK CFI 32844 .cfa: sp 0 +
STACK CFI 32848 .cfa: x29 96 +
STACK CFI 32868 .cfa: sp 112 +
STACK CFI INIT 3286c e54 .cfa: sp 0 +
STACK CFI 32870 .cfa: sp 192 +
STACK CFI 3288c .cfa: x29 96 + x19: .cfa -8 + ^ x20: .cfa -16 + ^ x21: .cfa -24 + ^ x22: .cfa -32 + ^ x23: .cfa -40 + ^ x24: .cfa -48 + ^ x25: .cfa -56 + ^ x26: .cfa -64 + ^ x27: .cfa -72 + ^ x28: .cfa -80 + ^ .ra: .cfa -88 + ^ x29: .cfa -96 + ^
STACK CFI 335a8 .cfa: sp 192 +
STACK CFI 335c4 .cfa: sp 0 +
STACK CFI 335c8 .cfa: x29 96 +
STACK CFI INIT 336c0 1068 .cfa: sp 0 +
STACK CFI 336c4 .cfa: sp 288 +
STACK CFI 336e0 .cfa: x29 96 + x19: .cfa -8 + ^ x20: .cfa -16 + ^ x21: .cfa -24 + ^ x22: .cfa -32 + ^ x23: .cfa -40 + ^ x24: .cfa -48 + ^ x25: .cfa -56 + ^ x26: .cfa -64 + ^ x27: .cfa -72 + ^ x28: .cfa -80 + ^ .ra: .cfa -88 + ^ x29: .cfa -96 + ^
STACK CFI 34470 .cfa: sp 288 +
STACK CFI 3448c .cfa: sp 0 +
STACK CFI 34490 .cfa: x29 96 +
STACK CFI INIT 34728 520 .cfa: sp 0 +
STACK CFI 3472c .cfa: sp 144 +
STACK CFI 34748 .cfa: x29 96 + x19: .cfa -8 + ^ x20: .cfa -16 + ^ x21: .cfa -24 + ^ x22: .cfa -32 + ^ x23: .cfa -40 + ^ x24: .cfa -48 + ^ x25: .cfa -56 + ^ x26: .cfa -64 + ^ x27: .cfa -72 + ^ x28: .cfa -80 + ^ .ra: .cfa -88 + ^ x29: .cfa -96 + ^
STACK CFI 34c24 .cfa: sp 144 +
STACK CFI 34c40 .cfa: sp 0 +
STACK CFI 34c44 .cfa: x29 96 +
STACK CFI INIT 355e8 136c .cfa: sp 0 +
STACK CFI 355ec .cfa: sp 224 +
STACK CFI 35608 .cfa: x29 96 + x19: .cfa -8 + ^ x20: .cfa -16 + ^ x21: .cfa -24 + ^ x22: .cfa -32 + ^ x23: .cfa -40 + ^ x24: .cfa -48 + ^ x25: .cfa -56 + ^ x26: .cfa -64 + ^ x27: .cfa -72 + ^ x28: .cfa -80 + ^ .ra: .cfa -88 + ^ x29: .cfa -96 + ^
STACK CFI 36930 .cfa: sp 224 +
STACK CFI 3694c .cfa: sp 0 +
STACK CFI 36950 .cfa: x29 96 +
STACK CFI INIT 36954 1b8 .cfa: sp 0 +
STACK CFI INIT 13270 480 .cfa: sp 0 +
STACK CFI 13274 .cfa: sp 224 +
STACK CFI 13290 .cfa: x29 96 + x19: .cfa -8 + ^ x20: .cfa -16 + ^ x21: .cfa -24 + ^ x22: .cfa -32 + ^ x23: .cfa -40 + ^ x24: .cfa -48 + ^ x25: .cfa -56 + ^ x26: .cfa -64 + ^ x27: .cfa -80 + ^ .ra: .cfa -88 + ^ x29: .cfa -96 + ^
STACK CFI 134fc .cfa: sp 224 +
STACK CFI 13518 .cfa: sp 0 +
STACK CFI 1351c .cfa: x29 96 +
STACK CFI 135e8 .cfa: sp 224 +
STACK CFI 13604 .cfa: sp 0 +
STACK CFI 13608 .cfa: x29 96 +
STACK CFI INIT 1370c 43c .cfa: sp 0 +
STACK CFI 13710 .cfa: sp 224 +
STACK CFI 1372c .cfa: x29 96 + x19: .cfa -8 + ^ x20: .cfa -16 + ^ x21: .cfa -24 + ^ x22: .cfa -32 + ^ x23: .cfa -40 + ^ x24: .cfa -48 + ^ x25: .cfa -56 + ^ x26: .cfa -64 + ^ x27: .cfa -72 + ^ x28: .cfa -80 + ^ .ra: .cfa -88 + ^ x29: .cfa -96 + ^
STACK CFI 13a40 .cfa: sp 224 +
STACK CFI 13a5c .cfa: sp 0 +
STACK CFI 13a60 .cfa: x29 96 +
STACK CFI INIT 13b64 e64 .cfa: sp 0 +
STACK CFI 13b68 .cfa: sp 288 +
STACK CFI 13b84 .cfa: x29 96 + x19: .cfa -8 + ^ x20: .cfa -16 + ^ x21: .cfa -24 + ^ x22: .cfa -32 + ^ x23: .cfa -40 + ^ x24: .cfa -48 + ^ x25: .cfa -56 + ^ x26: .cfa -64 + ^ x27: .cfa -72 + ^ x28: .cfa -80 + ^ .ra: .cfa -88 + ^ x29: .cfa -96 + ^
STACK CFI 145f0 .cfa: sp 288 +
STACK CFI 1460c .cfa: sp 0 +
STACK CFI 14610 .cfa: x29 96 +
STACK CFI INIT 14a18 74 .cfa: sp 0 +
STACK CFI 14a1c .cfa: sp 48 +
STACK CFI 14a28 .cfa: x29 32 + x19: .cfa -8 + ^ x20: .cfa -16 + ^ .ra: .cfa -24 + ^ x29: .cfa -32 + ^
STACK CFI 14a74 .cfa: sp 48 +
STACK CFI 14a80 .cfa: sp 0 +
STACK CFI 14a84 .cfa: x29 32 +
STACK CFI INIT 14b1c 154 .cfa: sp 0 +
STACK CFI 14b20 .cfa: sp 384 +
STACK CFI 14b34 .cfa: x29 64 + x19: .cfa -8 + ^ x20: .cfa -16 + ^ x21: .cfa -24 + ^ x22: .cfa -32 + ^ x23: .cfa -40 + ^ x28: .cfa -48 + ^ .ra: .cfa -56 + ^ x29: .cfa -64 + ^
STACK CFI 14c18 .cfa: sp 384 +
STACK CFI 14c2c .cfa: sp 0 +
STACK CFI 14c30 .cfa: x29 64 +
STACK CFI INIT 14ca4 12c .cfa: sp 0 +
STACK CFI 14ca8 .cfa: sp 80 +
STACK CFI 14cbc .cfa: x29 80 + x19: .cfa -8 + ^ x20: .cfa -16 + ^ x21: .cfa -24 + ^ x22: .cfa -32 + ^ x23: .cfa -40 + ^ x24: .cfa -48 + ^ x25: .cfa -56 + ^ x26: .cfa -64 + ^ .ra: .cfa -72 + ^ x29: .cfa -80 + ^
STACK CFI 14d84 .cfa: sp 80 +
STACK CFI 14d98 .cfa: sp 0 +
STACK CFI 14d9c .cfa: x29 80 +
STACK CFI INIT 14e74 1a4 .cfa: sp 0 +
STACK CFI 14e78 .cfa: sp 112 +
STACK CFI 14e90 .cfa: x29 80 + x19: .cfa -8 + ^ x20: .cfa -16 + ^ x21: .cfa -24 + ^ x22: .cfa -32 + ^ x23: .cfa -40 + ^ x24: .cfa -48 + ^ x25: .cfa -56 + ^ x26: .cfa -64 + ^ .ra: .cfa -72 + ^ x29: .cfa -80 + ^
STACK CFI 14f80 .cfa: sp 112 +
STACK CFI 14f98 .cfa: sp 0 +
STACK CFI 14f9c .cfa: x29 80 +
STACK CFI INIT 15018 1dc .cfa: sp 0 +
STACK CFI 1501c .cfa: sp 128 +
STACK CFI 15038 .cfa: x29 96 + x19: .cfa -8 + ^ x20: .cfa -16 + ^ x21: .cfa -24 + ^ x22: .cfa -32 + ^ x23: .cfa -40 + ^ x24: .cfa -48 + ^ x25: .cfa -56 + ^ x26: .cfa -64 + ^ x27: .cfa -80 + ^ .ra: .cfa -88 + ^ x29: .cfa -96 + ^
STACK CFI 151a4 .cfa: sp 128 +
STACK CFI 151c0 .cfa: sp 0 +
STACK CFI 151c4 .cfa: x29 96 +
STACK CFI INIT 15208 50 .cfa: sp 0 +
STACK CFI 1520c .cfa: sp 32 +
STACK CFI 15214 .cfa: x29 32 + x19: .cfa -8 + ^ x20: .cfa -16 + ^ .ra: .cfa -24 + ^ x29: .cfa -32 + ^
STACK CFI INIT 152bc 178 .cfa: sp 0 +
STACK CFI 152c0 .cfa: sp 80 +
STACK CFI 152d4 .cfa: x29 80 + x19: .cfa -8 + ^ x20: .cfa -16 + ^ x21: .cfa -24 + ^ x22: .cfa -32 + ^ x23: .cfa -40 + ^ x24: .cfa -48 + ^ x25: .cfa -64 + ^ .ra: .cfa -72 + ^ x29: .cfa -80 + ^
STACK CFI 15400 .cfa: sp 80 +
STACK CFI 15414 .cfa: sp 0 +
STACK CFI 15418 .cfa: x29 80 +
STACK CFI INIT 1557c 228 .cfa: sp 0 +
STACK CFI 15580 .cfa: sp 128 +
STACK CFI 15598 .cfa: x29 80 + x19: .cfa -8 + ^ x20: .cfa -16 + ^ x21: .cfa -24 + ^ x22: .cfa -32 + ^ x23: .cfa -40 + ^ x24: .cfa -48 + ^ x25: .cfa -64 + ^ .ra: .cfa -72 + ^ x29: .cfa -80 + ^
STACK CFI 15734 .cfa: sp 128 +
STACK CFI 1574c .cfa: sp 0 +
STACK CFI 15750 .cfa: x29 80 +
STACK CFI INIT 15f00 244 .cfa: sp 0 +
STACK CFI 15f04 .cfa: sp 80 +
STACK CFI 15f18 .cfa: x29 64 + x19: .cfa -8 + ^ x20: .cfa -16 + ^ x21: .cfa -24 + ^ x22: .cfa -32 + ^ x23: .cfa -40 + ^ x24: .cfa -48 + ^ .ra: .cfa -56 + ^ x29: .cfa -64 + ^
STACK CFI 16064 .cfa: sp 80 +
STACK CFI 16078 .cfa: sp 0 +
STACK CFI 1607c .cfa: x29 64 +
STACK CFI INIT 161e4 174 .cfa: sp 0 +
STACK CFI 161e8 .cfa: sp 48 +
STACK CFI 161f4 .cfa: x29 48 + x19: .cfa -8 + ^ x20: .cfa -16 + ^ x21: .cfa -24 + ^ x22: .cfa -32 + ^ .ra: .cfa -40 + ^ x29: .cfa -48 + ^
STACK CFI 1629c .cfa: sp 48 +
STACK CFI 162a8 .cfa: sp 0 +
STACK CFI 162ac .cfa: x29 48 +
STACK CFI INIT 1640c 188 .cfa: sp 0 +
STACK CFI 16410 .cfa: sp 80 +
STACK CFI 16420 .cfa: x29 48 + x19: .cfa -8 + ^ x20: .cfa -16 + ^ x21: .cfa -32 + ^ .ra: .cfa -40 + ^ x29: .cfa -48 + ^
STACK CFI 16550 .cfa: sp 80 +
STACK CFI 16560 .cfa: sp 0 +
STACK CFI 16564 .cfa: x29 48 +
STACK CFI INIT 16594 614 .cfa: sp 0 +
STACK CFI 16598 .cfa: sp 144 +
STACK CFI 165b0 .cfa: x29 80 + x19: .cfa -8 + ^ x20: .cfa -16 + ^ x21: .cfa -24 + ^ x22: .cfa -32 + ^ x23: .cfa -40 + ^ x24: .cfa -48 + ^ x25: .cfa -64 + ^ .ra: .cfa -72 + ^ x29: .cfa -80 + ^
STACK CFI 16ac4 .cfa: sp 144 +
STACK CFI 16adc .cfa: sp 0 +
STACK CFI 16ae0 .cfa: x29 80 +
STACK CFI INIT 16ba8 18c .cfa: sp 0 +
STACK CFI 16bac .cfa: sp 112 +
STACK CFI 16bbc .cfa: x29 48 + x19: .cfa -8 + ^ x20: .cfa -16 + ^ x21: .cfa -32 + ^ .ra: .cfa -40 + ^ x29: .cfa -48 + ^
STACK CFI 16c8c .cfa: sp 112 +
STACK CFI 16c9c .cfa: sp 0 +
STACK CFI 16ca0 .cfa: x29 48 +
STACK CFI INIT 16d34 2b8 .cfa: sp 0 +
STACK CFI 16d38 .cfa: sp 160 +
STACK CFI 16d54 .cfa: x29 96 + x19: .cfa -8 + ^ x20: .cfa -16 + ^ x21: .cfa -24 + ^ x22: .cfa -32 + ^ x23: .cfa -40 + ^ x24: .cfa -48 + ^ x25: .cfa -56 + ^ x26: .cfa -64 + ^ x27: .cfa -72 + ^ x28: .cfa -80 + ^ .ra: .cfa -88 + ^ x29: .cfa -96 + ^
STACK CFI 16d8c .cfa: sp 160 +
STACK CFI 16da8 .cfa: sp 0 +
STACK CFI 16dac .cfa: x29 96 +
STACK CFI INIT 16fec 114 .cfa: sp 0 +
STACK CFI 16ff0 .cfa: sp 64 +
STACK CFI 17000 .cfa: x29 64 + x19: .cfa -8 + ^ x20: .cfa -16 + ^ x21: .cfa -24 + ^ x22: .cfa -32 + ^ x23: .cfa -48 + ^ .ra: .cfa -56 + ^ x29: .cfa -64 + ^
STACK CFI 170dc .cfa: sp 64 +
STACK CFI 170ec .cfa: sp 0 +
STACK CFI 170f0 .cfa: x29 64 +
STACK CFI INIT 17118 22c .cfa: sp 0 +
STACK CFI 1711c .cfa: sp 96 +
STACK CFI 17134 .cfa: x29 96 + x19: .cfa -8 + ^ x20: .cfa -16 + ^ x21: .cfa -24 + ^ x22: .cfa -32 + ^ x23: .cfa -40 + ^ x24: .cfa -48 + ^ x25: .cfa -56 + ^ x26: .cfa -64 + ^ x27: .cfa -80 + ^ .ra: .cfa -88 + ^ x29: .cfa -96 + ^
STACK CFI 172d8 .cfa: sp 96 +
STACK CFI 172f0 .cfa: sp 0 +
STACK CFI 172f4 .cfa: x29 96 +
STACK CFI INIT 1736c 50 .cfa: sp 0 +
STACK CFI 17370 .cfa: sp 32 +
STACK CFI 17378 .cfa: x29 32 + x19: .cfa -8 + ^ x20: .cfa -16 + ^ .ra: .cfa -24 + ^ x29: .cfa -32 + ^
STACK CFI INIT 17498 184 .cfa: sp 0 +
STACK CFI 1749c .cfa: sp 160 +
STACK CFI 174ac .cfa: x29 48 + x19: .cfa -8 + ^ x20: .cfa -16 + ^ x21: .cfa -32 + ^ .ra: .cfa -40 + ^ x29: .cfa -48 + ^
STACK CFI 175c0 .cfa: sp 160 +
STACK CFI 175d0 .cfa: sp 0 +
STACK CFI 175d4 .cfa: x29 48 +
STACK CFI INIT 1761c 74 .cfa: sp 0 +
STACK CFI 17620 .cfa: sp 48 +
STACK CFI 1762c .cfa: x29 32 + x19: .cfa -8 + ^ x20: .cfa -16 + ^ .ra: .cfa -24 + ^ x29: .cfa -32 + ^
STACK CFI 17678 .cfa: sp 48 +
STACK CFI 17684 .cfa: sp 0 +
STACK CFI 17688 .cfa: x29 32 +
STACK CFI INIT 17690 104 .cfa: sp 0 +
STACK CFI 17694 .cfa: sp 112 +
STACK CFI 176a0 .cfa: x29 32 + x19: .cfa -8 + ^ x20: .cfa -16 + ^ .ra: .cfa -24 + ^ x29: .cfa -32 + ^
STACK CFI 17764 .cfa: sp 112 +
STACK CFI 17770 .cfa: sp 0 +
STACK CFI 17774 .cfa: x29 32 +
STACK CFI INIT 177dc 1dc .cfa: sp 0 +
STACK CFI 177e0 .cfa: sp 208 +
STACK CFI 177f8 .cfa: x29 80 + x19: .cfa -8 + ^ x20: .cfa -16 + ^ x21: .cfa -24 + ^ x22: .cfa -32 + ^ x23: .cfa -40 + ^ x24: .cfa -48 + ^ x25: .cfa -64 + ^ .ra: .cfa -72 + ^ x29: .cfa -80 + ^
STACK CFI 17944 .cfa: sp 208 +
STACK CFI 1795c .cfa: sp 0 +
STACK CFI 17960 .cfa: x29 80 +
STACK CFI INIT 17ce0 a8 .cfa: sp 0 +
STACK CFI 17ce4 .cfa: sp 32 +
STACK CFI 17cec .cfa: x29 32 + x19: .cfa -16 + ^ .ra: .cfa -24 + ^ x29: .cfa -32 + ^
STACK CFI 17d20 .cfa: sp 32 +
STACK CFI 17d28 .cfa: sp 0 +
STACK CFI 17d2c .cfa: x29 32 +
STACK CFI 17d30 .cfa: sp 32 +
STACK CFI 17d38 .cfa: sp 0 +
STACK CFI 17d3c .cfa: x29 32 +
STACK CFI INIT 17e58 384 .cfa: sp 0 +
STACK CFI 17e5c .cfa: sp 256 +
STACK CFI 17e70 .cfa: x29 64 + x19: .cfa -8 + ^ x20: .cfa -16 + ^ x21: .cfa -24 + ^ x22: .cfa -32 + ^ x23: .cfa -48 + ^ .ra: .cfa -56 + ^ x29: .cfa -64 + ^
STACK CFI 180b0 .cfa: sp 256 +
STACK CFI 180c4 .cfa: sp 0 +
STACK CFI 180c8 .cfa: x29 64 +
STACK CFI INIT 181e0 130 .cfa: sp 0 +
STACK CFI 181e4 .cfa: sp 64 +
STACK CFI 181f4 .cfa: x29 64 + x19: .cfa -8 + ^ x20: .cfa -16 + ^ x21: .cfa -24 + ^ x22: .cfa -32 + ^ x23: .cfa -48 + ^ .ra: .cfa -56 + ^ x29: .cfa -64 + ^
STACK CFI 18250 .cfa: sp 64 +
STACK CFI 18260 .cfa: sp 0 +
STACK CFI 18264 .cfa: x29 64 +
STACK CFI INIT 18310 174 .cfa: sp 0 +
STACK CFI 18314 .cfa: sp 80 +
STACK CFI 18324 .cfa: x29 48 + x19: .cfa -8 + ^ x20: .cfa -16 + ^ x21: .cfa -24 + ^ x22: .cfa -32 + ^ .ra: .cfa -40 + ^ x29: .cfa -48 + ^
STACK CFI 183c0 .cfa: sp 80 +
STACK CFI 183d0 .cfa: sp 0 +
STACK CFI 183d4 .cfa: x29 48 +
STACK CFI INIT 18484 1ec .cfa: sp 0 +
STACK CFI 18488 .cfa: sp 192 +
STACK CFI 1849c .cfa: x29 64 + x19: .cfa -8 + ^ x20: .cfa -16 + ^ x21: .cfa -24 + ^ x22: .cfa -32 + ^ x23: .cfa -40 + ^ x24: .cfa -48 + ^ .ra: .cfa -56 + ^ x29: .cfa -64 + ^
STACK CFI 185f4 .cfa: sp 192 +
STACK CFI 18608 .cfa: sp 0 +
STACK CFI 1860c .cfa: x29 64 +
STACK CFI INIT 18670 74 .cfa: sp 0 +
STACK CFI 18674 .cfa: sp 48 +
STACK CFI 18680 .cfa: x29 32 + x19: .cfa -8 + ^ x20: .cfa -16 + ^ .ra: .cfa -24 + ^ x29: .cfa -32 + ^
STACK CFI 186cc .cfa: sp 48 +
STACK CFI 186d8 .cfa: sp 0 +
STACK CFI 186dc .cfa: x29 32 +
STACK CFI INIT 186e4 200 .cfa: sp 0 +
STACK CFI 186e8 .cfa: sp 208 +
STACK CFI 18700 .cfa: x29 80 + x19: .cfa -8 + ^ x20: .cfa -16 + ^ x21: .cfa -24 + ^ x22: .cfa -32 + ^ x23: .cfa -40 + ^ x24: .cfa -48 + ^ x25: .cfa -56 + ^ x26: .cfa -64 + ^ .ra: .cfa -72 + ^ x29: .cfa -80 + ^
STACK CFI 18864 .cfa: sp 208 +
STACK CFI 1887c .cfa: sp 0 +
STACK CFI 18880 .cfa: x29 80 +
STACK CFI INIT 188e4 1ec .cfa: sp 0 +
STACK CFI 188e8 .cfa: sp 208 +
STACK CFI 18900 .cfa: x29 80 + x19: .cfa -8 + ^ x20: .cfa -16 + ^ x21: .cfa -24 + ^ x22: .cfa -32 + ^ x23: .cfa -40 + ^ x24: .cfa -48 + ^ x25: .cfa -64 + ^ .ra: .cfa -72 + ^ x29: .cfa -80 + ^
STACK CFI 18a5c .cfa: sp 208 +
STACK CFI 18a74 .cfa: sp 0 +
STACK CFI 18a78 .cfa: x29 80 +
STACK CFI INIT 18ad0 f8 .cfa: sp 0 +
STACK CFI 18ad4 .cfa: sp 112 +
STACK CFI 18aec .cfa: x29 80 + x19: .cfa -8 + ^ x20: .cfa -16 + ^ x21: .cfa -24 + ^ x22: .cfa -32 + ^ x23: .cfa -40 + ^ x24: .cfa -48 + ^ x25: .cfa -64 + ^ .ra: .cfa -72 + ^ x29: .cfa -80 + ^
STACK CFI 18b78 .cfa: sp 112 +
STACK CFI 18b90 .cfa: sp 0 +
STACK CFI 18b94 .cfa: x29 80 +
STACK CFI INIT 18bc8 254 .cfa: sp 0 +
STACK CFI 18bcc .cfa: sp 320 +
STACK CFI 18be4 .cfa: x29 80 + x19: .cfa -8 + ^ x20: .cfa -16 + ^ x21: .cfa -24 + ^ x22: .cfa -32 + ^ x23: .cfa -40 + ^ x24: .cfa -48 + ^ x28: .cfa -64 + ^ .ra: .cfa -72 + ^ x29: .cfa -80 + ^
STACK CFI 18d9c .cfa: sp 320 +
STACK CFI 18db4 .cfa: sp 0 +
STACK CFI 18db8 .cfa: x29 80 +
STACK CFI INIT 18e1c 74 .cfa: sp 0 +
STACK CFI 18e20 .cfa: sp 48 +
STACK CFI 18e2c .cfa: x29 32 + x19: .cfa -8 + ^ x20: .cfa -16 + ^ .ra: .cfa -24 + ^ x29: .cfa -32 + ^
STACK CFI 18e78 .cfa: sp 48 +
STACK CFI 18e84 .cfa: sp 0 +
STACK CFI 18e88 .cfa: x29 32 +
STACK CFI INIT 18e90 168 .cfa: sp 0 +
STACK CFI 18e94 .cfa: sp 384 +
STACK CFI 18ea8 .cfa: x29 64 + x19: .cfa -8 + ^ x20: .cfa -16 + ^ x21: .cfa -24 + ^ x22: .cfa -32 + ^ x23: .cfa -40 + ^ x28: .cfa -48 + ^ .ra: .cfa -56 + ^ x29: .cfa -64 + ^
STACK CFI 18fa0 .cfa: sp 384 +
STACK CFI 18fb4 .cfa: sp 0 +
STACK CFI 18fb8 .cfa: x29 64 +
STACK CFI INIT 18ff8 74 .cfa: sp 0 +
STACK CFI 18ffc .cfa: sp 48 +
STACK CFI 19008 .cfa: x29 32 + x19: .cfa -8 + ^ x20: .cfa -16 + ^ .ra: .cfa -24 + ^ x29: .cfa -32 + ^
STACK CFI 19054 .cfa: sp 48 +
STACK CFI 19060 .cfa: sp 0 +
STACK CFI 19064 .cfa: x29 32 +
STACK CFI INIT 1906c 4b8 .cfa: sp 0 +
STACK CFI 19070 .cfa: sp 144 +
STACK CFI 19088 .cfa: x29 80 + x19: .cfa -8 + ^ x20: .cfa -16 + ^ x21: .cfa -24 + ^ x22: .cfa -32 + ^ x23: .cfa -40 + ^ x24: .cfa -48 + ^ x25: .cfa -56 + ^ x26: .cfa -64 + ^ .ra: .cfa -72 + ^ x29: .cfa -80 + ^
STACK CFI 19310 .cfa: sp 144 +
STACK CFI 19328 .cfa: sp 0 +
STACK CFI 1932c .cfa: x29 80 +
STACK CFI INIT 19524 78 .cfa: sp 0 +
STACK CFI 19528 .cfa: sp 32 +
STACK CFI 19530 .cfa: x29 32 + x19: .cfa -8 + ^ x20: .cfa -16 + ^ .ra: .cfa -24 + ^ x29: .cfa -32 + ^
STACK CFI 1953c .cfa: sp 32 +
STACK CFI 19544 .cfa: sp 0 +
STACK CFI 19548 .cfa: x29 32 +
STACK CFI INIT 1959c 78 .cfa: sp 0 +
STACK CFI 195a0 .cfa: sp 32 +
STACK CFI 195a8 .cfa: x29 32 + x19: .cfa -8 + ^ x20: .cfa -16 + ^ .ra: .cfa -24 + ^ x29: .cfa -32 + ^
STACK CFI 195b0 .cfa: sp 32 +
STACK CFI 195b8 .cfa: sp 0 +
STACK CFI 195bc .cfa: x29 32 +
STACK CFI INIT 19614 74 .cfa: sp 0 +
STACK CFI 19618 .cfa: sp 48 +
STACK CFI 19624 .cfa: x29 32 + x19: .cfa -8 + ^ x20: .cfa -16 + ^ .ra: .cfa -24 + ^ x29: .cfa -32 + ^
STACK CFI 19670 .cfa: sp 48 +
STACK CFI 1967c .cfa: sp 0 +
STACK CFI 19680 .cfa: x29 32 +
STACK CFI INIT 19688 154 .cfa: sp 0 +
STACK CFI 1968c .cfa: sp 384 +
STACK CFI 196a0 .cfa: x29 64 + x19: .cfa -8 + ^ x20: .cfa -16 + ^ x21: .cfa -24 + ^ x22: .cfa -32 + ^ x23: .cfa -40 + ^ x28: .cfa -48 + ^ .ra: .cfa -56 + ^ x29: .cfa -64 + ^
STACK CFI 19784 .cfa: sp 384 +
STACK CFI 19798 .cfa: sp 0 +
STACK CFI 1979c .cfa: x29 64 +
STACK CFI INIT 1980c 1ec .cfa: sp 0 +
STACK CFI 19810 .cfa: sp 224 +
STACK CFI 19828 .cfa: x29 80 + x19: .cfa -8 + ^ x20: .cfa -16 + ^ x21: .cfa -24 + ^ x22: .cfa -32 + ^ x23: .cfa -40 + ^ x24: .cfa -48 + ^ x25: .cfa -64 + ^ .ra: .cfa -72 + ^ x29: .cfa -80 + ^
STACK CFI 19980 .cfa: sp 224 +
STACK CFI 19998 .cfa: sp 0 +
STACK CFI 1999c .cfa: x29 80 +
STACK CFI INIT 199f8 1b4 .cfa: sp 0 +
STACK CFI 199fc .cfa: sp 128 +
STACK CFI 19a10 .cfa: x29 64 + x19: .cfa -8 + ^ x20: .cfa -16 + ^ x21: .cfa -24 + ^ x22: .cfa -32 + ^ x23: .cfa -48 + ^ .ra: .cfa -56 + ^ x29: .cfa -64 + ^
STACK CFI 19b50 .cfa: sp 128 +
STACK CFI 19b64 .cfa: sp 0 +
STACK CFI 19b68 .cfa: x29 64 +
STACK CFI INIT 19bac c4 .cfa: sp 0 +
STACK CFI 19bb0 .cfa: sp 64 +
STACK CFI 19bc0 .cfa: x29 64 + x19: .cfa -8 + ^ x20: .cfa -16 + ^ x21: .cfa -24 + ^ x22: .cfa -32 + ^ x23: .cfa -40 + ^ x24: .cfa -48 + ^ .ra: .cfa -56 + ^ x29: .cfa -64 + ^
STACK CFI 19c38 .cfa: sp 64 +
STACK CFI 19c48 .cfa: sp 0 +
STACK CFI 19c4c .cfa: x29 64 +
STACK CFI INIT 19c70 c4 .cfa: sp 0 +
STACK CFI 19c74 .cfa: sp 64 +
STACK CFI 19c84 .cfa: x29 64 + x19: .cfa -8 + ^ x20: .cfa -16 + ^ x21: .cfa -24 + ^ x22: .cfa -32 + ^ x23: .cfa -40 + ^ x24: .cfa -48 + ^ .ra: .cfa -56 + ^ x29: .cfa -64 + ^
STACK CFI 19cfc .cfa: sp 64 +
STACK CFI 19d0c .cfa: sp 0 +
STACK CFI 19d10 .cfa: x29 64 +
STACK CFI INIT 19d34 c4 .cfa: sp 0 +
STACK CFI 19d38 .cfa: sp 64 +
STACK CFI 19d48 .cfa: x29 64 + x19: .cfa -8 + ^ x20: .cfa -16 + ^ x21: .cfa -24 + ^ x22: .cfa -32 + ^ x23: .cfa -40 + ^ x24: .cfa -48 + ^ .ra: .cfa -56 + ^ x29: .cfa -64 + ^
STACK CFI 19dc0 .cfa: sp 64 +
STACK CFI 19dd0 .cfa: sp 0 +
STACK CFI 19dd4 .cfa: x29 64 +
STACK CFI INIT 19df8 c4 .cfa: sp 0 +
STACK CFI 19dfc .cfa: sp 64 +
STACK CFI 19e0c .cfa: x29 64 + x19: .cfa -8 + ^ x20: .cfa -16 + ^ x21: .cfa -24 + ^ x22: .cfa -32 + ^ x23: .cfa -40 + ^ x24: .cfa -48 + ^ .ra: .cfa -56 + ^ x29: .cfa -64 + ^
STACK CFI 19e84 .cfa: sp 64 +
STACK CFI 19e94 .cfa: sp 0 +
STACK CFI 19e98 .cfa: x29 64 +
STACK CFI INIT 19f60 1c4 .cfa: sp 0 +
STACK CFI 19f64 .cfa: sp 128 +
STACK CFI 19f78 .cfa: x29 64 + x19: .cfa -8 + ^ x20: .cfa -16 + ^ x21: .cfa -24 + ^ x22: .cfa -32 + ^ x23: .cfa -40 + ^ x24: .cfa -48 + ^ .ra: .cfa -56 + ^ x29: .cfa -64 + ^
STACK CFI 1a094 .cfa: sp 128 +
STACK CFI 1a0a8 .cfa: sp 0 +
STACK CFI 1a0ac .cfa: x29 64 +
STACK CFI INIT 1a1a4 1d8 .cfa: sp 0 +
STACK CFI 1a1a8 .cfa: sp 288 +
STACK CFI 1a1bc .cfa: x29 64 + x19: .cfa -8 + ^ x20: .cfa -16 + ^ x21: .cfa -24 + ^ x22: .cfa -32 + ^ x23: .cfa -40 + ^ x28: .cfa -48 + ^ .ra: .cfa -56 + ^ x29: .cfa -64 + ^
STACK CFI 1a31c .cfa: sp 288 +
STACK CFI 1a330 .cfa: sp 0 +
STACK CFI 1a334 .cfa: x29 64 +
STACK CFI INIT 1a37c 7a8 .cfa: sp 0 +
STACK CFI 1a380 .cfa: sp 256 +
STACK CFI 1a394 .cfa: x29 64 + x19: .cfa -8 + ^ x20: .cfa -16 + ^ x21: .cfa -24 + ^ x22: .cfa -32 + ^ x23: .cfa -40 + ^ x24: .cfa -48 + ^ .ra: .cfa -56 + ^ x29: .cfa -64 + ^
STACK CFI 1a7c4 .cfa: sp 256 +
STACK CFI 1a7d8 .cfa: sp 0 +
STACK CFI 1a7dc .cfa: x29 64 +
STACK CFI INIT 1ab24 78 .cfa: sp 0 +
STACK CFI 1ab28 .cfa: sp 32 +
STACK CFI 1ab30 .cfa: x29 32 + x19: .cfa -8 + ^ x20: .cfa -16 + ^ .ra: .cfa -24 + ^ x29: .cfa -32 + ^
STACK CFI 1ab3c .cfa: sp 32 +
STACK CFI 1ab44 .cfa: sp 0 +
STACK CFI 1ab48 .cfa: x29 32 +
STACK CFI INIT 1ab9c 78 .cfa: sp 0 +
STACK CFI 1aba0 .cfa: sp 32 +
STACK CFI 1aba8 .cfa: x29 32 + x19: .cfa -8 + ^ x20: .cfa -16 + ^ .ra: .cfa -24 + ^ x29: .cfa -32 + ^
STACK CFI 1abb0 .cfa: sp 32 +
STACK CFI 1abb8 .cfa: sp 0 +
STACK CFI 1abbc .cfa: x29 32 +
STACK CFI INIT 1ac60 364 .cfa: sp 0 +
STACK CFI 1ac64 .cfa: sp 144 +
STACK CFI 1ac74 .cfa: x29 48 + x19: .cfa -8 + ^ x20: .cfa -16 + ^ x21: .cfa -32 + ^ .ra: .cfa -40 + ^ x29: .cfa -48 + ^
STACK CFI 1aef0 .cfa: sp 144 +
STACK CFI 1af00 .cfa: sp 0 +
STACK CFI 1af04 .cfa: x29 48 +
STACK CFI INIT 1afc8 174 .cfa: sp 0 +
STACK CFI 1afcc .cfa: sp 112 +
STACK CFI 1afdc .cfa: x29 48 + x19: .cfa -8 + ^ x20: .cfa -16 + ^ x21: .cfa -32 + ^ .ra: .cfa -40 + ^ x29: .cfa -48 + ^
STACK CFI 1b0d8 .cfa: sp 112 +
STACK CFI 1b0e8 .cfa: sp 0 +
STACK CFI 1b0ec .cfa: x29 48 +
STACK CFI INIT 1b390 11cc .cfa: sp 0 +
STACK CFI 1b394 .cfa: sp 96 +
STACK CFI 1b3ac .cfa: x29 96 + x19: .cfa -8 + ^ x20: .cfa -16 + ^ x21: .cfa -24 + ^ x22: .cfa -32 + ^ x23: .cfa -40 + ^ x24: .cfa -48 + ^ x25: .cfa -56 + ^ x26: .cfa -64 + ^ x27: .cfa -72 + ^ x28: .cfa -80 + ^ .ra: .cfa -88 + ^ x29: .cfa -96 + ^
STACK CFI 1c2e0 .cfa: sp 96 +
STACK CFI 1c2f8 .cfa: sp 0 +
STACK CFI 1c2fc .cfa: x29 96 +
STACK CFI INIT 1c55c 43c .cfa: sp 0 +
STACK CFI 1c560 .cfa: sp 224 +
STACK CFI 1c57c .cfa: x29 96 + x19: .cfa -8 + ^ x20: .cfa -16 + ^ x21: .cfa -24 + ^ x22: .cfa -32 + ^ x23: .cfa -40 + ^ x24: .cfa -48 + ^ x25: .cfa -56 + ^ x26: .cfa -64 + ^ x27: .cfa -72 + ^ x28: .cfa -80 + ^ .ra: .cfa -88 + ^ x29: .cfa -96 + ^
STACK CFI 1c890 .cfa: sp 224 +
STACK CFI 1c8ac .cfa: sp 0 +
STACK CFI 1c8b0 .cfa: x29 96 +
STACK CFI INIT 1c9b4 308 .cfa: sp 0 +
STACK CFI 1c9b8 .cfa: sp 176 +
STACK CFI 1c9cc .cfa: x29 64 + x19: .cfa -8 + ^ x20: .cfa -16 + ^ x21: .cfa -24 + ^ x22: .cfa -32 + ^ x23: .cfa -48 + ^ .ra: .cfa -56 + ^ x29: .cfa -64 + ^
STACK CFI 1cbb4 .cfa: sp 176 +
STACK CFI 1cbc8 .cfa: sp 0 +
STACK CFI 1cbcc .cfa: x29 64 +
STACK CFI INIT 1ccc0 410 .cfa: sp 0 +
STACK CFI 1ccc4 .cfa: sp 256 +
STACK CFI 1cce0 .cfa: x29 96 + x19: .cfa -8 + ^ x20: .cfa -16 + ^ x21: .cfa -24 + ^ x22: .cfa -32 + ^ x23: .cfa -40 + ^ x24: .cfa -48 + ^ x25: .cfa -56 + ^ x26: .cfa -64 + ^ x27: .cfa -72 + ^ x28: .cfa -80 + ^ .ra: .cfa -88 + ^ x29: .cfa -96 + ^
STACK CFI 1cf94 .cfa: sp 256 +
STACK CFI 1cfb0 .cfa: sp 0 +
STACK CFI 1cfb4 .cfa: x29 96 +
STACK CFI INIT 1d0d0 a8 .cfa: sp 0 +
STACK CFI 1d0d4 .cfa: sp 32 +
STACK CFI 1d0dc .cfa: x29 32 + x19: .cfa -16 + ^ .ra: .cfa -24 + ^ x29: .cfa -32 + ^
STACK CFI 1d110 .cfa: sp 32 +
STACK CFI 1d118 .cfa: sp 0 +
STACK CFI 1d11c .cfa: x29 32 +
STACK CFI 1d120 .cfa: sp 32 +
STACK CFI 1d128 .cfa: sp 0 +
STACK CFI 1d12c .cfa: x29 32 +
STACK CFI INIT 1d214 18c .cfa: sp 0 +
STACK CFI 1d218 .cfa: sp 112 +
STACK CFI 1d228 .cfa: x29 48 + x19: .cfa -8 + ^ x20: .cfa -16 + ^ x21: .cfa -32 + ^ .ra: .cfa -40 + ^ x29: .cfa -48 + ^
STACK CFI 1d2f8 .cfa: sp 112 +
STACK CFI 1d308 .cfa: sp 0 +
STACK CFI 1d30c .cfa: x29 48 +
STACK CFI INIT 1d3a4 43c .cfa: sp 0 +
STACK CFI 1d3a8 .cfa: sp 224 +
STACK CFI 1d3c4 .cfa: x29 96 + x19: .cfa -8 + ^ x20: .cfa -16 + ^ x21: .cfa -24 + ^ x22: .cfa -32 + ^ x23: .cfa -40 + ^ x24: .cfa -48 + ^ x25: .cfa -56 + ^ x26: .cfa -64 + ^ x27: .cfa -72 + ^ x28: .cfa -80 + ^ .ra: .cfa -88 + ^ x29: .cfa -96 + ^
STACK CFI 1d6d8 .cfa: sp 224 +
STACK CFI 1d6f4 .cfa: sp 0 +
STACK CFI 1d6f8 .cfa: x29 96 +
STACK CFI INIT 1d7e0 43c .cfa: sp 0 +
STACK CFI 1d7e4 .cfa: sp 224 +
STACK CFI 1d800 .cfa: x29 96 + x19: .cfa -8 + ^ x20: .cfa -16 + ^ x21: .cfa -24 + ^ x22: .cfa -32 + ^ x23: .cfa -40 + ^ x24: .cfa -48 + ^ x25: .cfa -56 + ^ x26: .cfa -64 + ^ x27: .cfa -72 + ^ x28: .cfa -80 + ^ .ra: .cfa -88 + ^ x29: .cfa -96 + ^
STACK CFI 1db14 .cfa: sp 224 +
STACK CFI 1db30 .cfa: sp 0 +
STACK CFI 1db34 .cfa: x29 96 +
STACK CFI INIT 1dc54 1280 .cfa: sp 0 +
STACK CFI 1dc58 .cfa: sp 288 +
STACK CFI 1dc74 .cfa: x29 96 + x19: .cfa -8 + ^ x20: .cfa -16 + ^ x21: .cfa -24 + ^ x22: .cfa -32 + ^ x23: .cfa -40 + ^ x24: .cfa -48 + ^ x25: .cfa -56 + ^ x26: .cfa -64 + ^ x27: .cfa -72 + ^ x28: .cfa -80 + ^ .ra: .cfa -88 + ^ x29: .cfa -96 + ^
STACK CFI 1ea40 .cfa: sp 288 +
STACK CFI 1ea5c .cfa: sp 0 +
STACK CFI 1ea60 .cfa: x29 96 +
STACK CFI INIT 1efb8 440 .cfa: sp 0 +
STACK CFI 1efbc .cfa: sp 96 +
STACK CFI 1efd4 .cfa: x29 80 + x19: .cfa -8 + ^ x20: .cfa -16 + ^ x21: .cfa -24 + ^ x22: .cfa -32 + ^ x23: .cfa -40 + ^ x24: .cfa -48 + ^ x25: .cfa -64 + ^ .ra: .cfa -72 + ^ x29: .cfa -80 + ^
STACK CFI 1f2f8 .cfa: sp 96 +
STACK CFI 1f310 .cfa: sp 0 +
STACK CFI 1f314 .cfa: x29 80 +
STACK CFI INIT 1f3f8 314 .cfa: sp 0 +
STACK CFI 1f3fc .cfa: sp 192 +
STACK CFI 1f410 .cfa: x29 64 + x19: .cfa -8 + ^ x20: .cfa -16 + ^ x21: .cfa -24 + ^ x22: .cfa -32 + ^ x23: .cfa -48 + ^ .ra: .cfa -56 + ^ x29: .cfa -64 + ^
STACK CFI 1f5fc .cfa: sp 192 +
STACK CFI 1f610 .cfa: sp 0 +
STACK CFI 1f614 .cfa: x29 64 +
STACK CFI INIT 1f710 118 .cfa: sp 0 +
STACK CFI 1f714 .cfa: sp 48 +
STACK CFI 1f720 .cfa: x29 48 + x19: .cfa -8 + ^ x20: .cfa -16 + ^ x21: .cfa -32 + ^ .ra: .cfa -40 + ^ x29: .cfa -48 + ^
STACK CFI 1f76c .cfa: sp 48 +
STACK CFI 1f778 .cfa: sp 0 +
STACK CFI 1f77c .cfa: x29 48 +
STACK CFI INIT 1f828 43c .cfa: sp 0 +
STACK CFI 1f82c .cfa: sp 224 +
STACK CFI 1f848 .cfa: x29 96 + x19: .cfa -8 + ^ x20: .cfa -16 + ^ x21: .cfa -24 + ^ x22: .cfa -32 + ^ x23: .cfa -40 + ^ x24: .cfa -48 + ^ x25: .cfa -56 + ^ x26: .cfa -64 + ^ x27: .cfa -72 + ^ x28: .cfa -80 + ^ .ra: .cfa -88 + ^ x29: .cfa -96 + ^
STACK CFI 1fb5c .cfa: sp 224 +
STACK CFI 1fb78 .cfa: sp 0 +
STACK CFI 1fb7c .cfa: x29 96 +
STACK CFI INIT 1fc80 384 .cfa: sp 0 +
STACK CFI 1fc84 .cfa: sp 256 +
STACK CFI 1fc98 .cfa: x29 64 + x19: .cfa -8 + ^ x20: .cfa -16 + ^ x21: .cfa -24 + ^ x22: .cfa -32 + ^ x23: .cfa -48 + ^ .ra: .cfa -56 + ^ x29: .cfa -64 + ^
STACK CFI 1fed8 .cfa: sp 256 +
STACK CFI 1feec .cfa: sp 0 +
STACK CFI 1fef0 .cfa: x29 64 +
STACK CFI INIT 20008 688 .cfa: sp 0 +
STACK CFI 2000c .cfa: sp 96 +
STACK CFI 20020 .cfa: x29 64 + x19: .cfa -8 + ^ x20: .cfa -16 + ^ x21: .cfa -24 + ^ x22: .cfa -32 + ^ x23: .cfa -40 + ^ x24: .cfa -48 + ^ .ra: .cfa -56 + ^ x29: .cfa -64 + ^
STACK CFI 205c8 .cfa: sp 96 +
STACK CFI 205dc .cfa: sp 0 +
STACK CFI 205e0 .cfa: x29 64 +
STACK CFI INIT 2073c 8bc .cfa: sp 0 +
STACK CFI 20740 .cfa: sp 96 +
STACK CFI 20758 .cfa: x29 96 + x19: .cfa -8 + ^ x20: .cfa -16 + ^ x21: .cfa -24 + ^ x22: .cfa -32 + ^ x23: .cfa -40 + ^ x24: .cfa -48 + ^ x25: .cfa -56 + ^ x26: .cfa -64 + ^ x28: .cfa -80 + ^ .ra: .cfa -88 + ^ x29: .cfa -96 + ^
STACK CFI 20f2c .cfa: sp 96 +
STACK CFI 20f44 .cfa: sp 0 +
STACK CFI 20f48 .cfa: x29 96 +
STACK CFI INIT 211c4 1298 .cfa: sp 0 +
STACK CFI 211c8 .cfa: sp 304 +
STACK CFI 211e8 .cfa: x29 96 + x19: .cfa -8 + ^ x20: .cfa -16 + ^ x21: .cfa -24 + ^ x22: .cfa -32 + ^ x23: .cfa -40 + ^ x24: .cfa -48 + ^ x25: .cfa -56 + ^ x26: .cfa -64 + ^ x27: .cfa -72 + ^ x28: .cfa -80 + ^ .ra: .cfa -88 + ^ x29: .cfa -96 + ^ v8: .cfa -104 + ^ v9: .cfa -112 + ^
STACK CFI 218cc .cfa: sp 304 +
STACK CFI 218ec .cfa: sp 0 +
STACK CFI 218f0 .cfa: x29 96 +
STACK CFI INIT 2245c 1d0 .cfa: sp 0 +
STACK CFI 22460 .cfa: sp 96 +
STACK CFI 22474 .cfa: x29 64 + x19: .cfa -8 + ^ x20: .cfa -16 + ^ x21: .cfa -24 + ^ x22: .cfa -32 + ^ x23: .cfa -48 + ^ .ra: .cfa -56 + ^ x29: .cfa -64 + ^
STACK CFI 22504 .cfa: sp 96 +
STACK CFI 22518 .cfa: sp 0 +
STACK CFI 2251c .cfa: x29 64 +
STACK CFI 22564 .cfa: sp 96 +
STACK CFI 22578 .cfa: sp 0 +
STACK CFI 2257c .cfa: x29 64 +
STACK CFI INIT 2262c 32c .cfa: sp 0 +
STACK CFI 22630 .cfa: sp 96 +
STACK CFI 22644 .cfa: x29 64 + x19: .cfa -8 + ^ x20: .cfa -16 + ^ x21: .cfa -24 + ^ x22: .cfa -32 + ^ x23: .cfa -40 + ^ x24: .cfa -48 + ^ .ra: .cfa -56 + ^ x29: .cfa -64 + ^
STACK CFI 22724 .cfa: sp 96 +
STACK CFI 22738 .cfa: sp 0 +
STACK CFI 2273c .cfa: x29 64 +
STACK CFI 22878 .cfa: sp 96 +
STACK CFI 2288c .cfa: sp 0 +
STACK CFI 22890 .cfa: x29 64 +
STACK CFI INIT 22958 200 .cfa: sp 0 +
STACK CFI 2295c .cfa: sp 144 +
STACK CFI 22970 .cfa: x29 64 + x19: .cfa -8 + ^ x20: .cfa -16 + ^ x21: .cfa -24 + ^ x22: .cfa -32 + ^ x23: .cfa -40 + ^ x24: .cfa -48 + ^ .ra: .cfa -56 + ^ x29: .cfa -64 + ^
STACK CFI 22ad8 .cfa: sp 144 +
STACK CFI 22aec .cfa: sp 0 +
STACK CFI 22af0 .cfa: x29 64 +
STACK CFI INIT 22b58 20c .cfa: sp 0 +
STACK CFI 22b5c .cfa: sp 96 +
STACK CFI 22b70 .cfa: x29 64 + x19: .cfa -8 + ^ x20: .cfa -16 + ^ x21: .cfa -24 + ^ x22: .cfa -32 + ^ x23: .cfa -48 + ^ .ra: .cfa -56 + ^ x29: .cfa -64 + ^
STACK CFI 22c54 .cfa: sp 96 +
STACK CFI 22c68 .cfa: sp 0 +
STACK CFI 22c6c .cfa: x29 64 +
STACK CFI 22c9c .cfa: sp 96 +
STACK CFI 22cb0 .cfa: sp 0 +
STACK CFI 22cb4 .cfa: x29 64 +
STACK CFI INIT 22d64 7d8 .cfa: sp 0 +
STACK CFI 22d68 .cfa: sp 112 +
STACK CFI 22d80 .cfa: x29 80 + x19: .cfa -8 + ^ x20: .cfa -16 + ^ x21: .cfa -24 + ^ x22: .cfa -32 + ^ x23: .cfa -40 + ^ x24: .cfa -48 + ^ x25: .cfa -56 + ^ x26: .cfa -64 + ^ .ra: .cfa -72 + ^ x29: .cfa -80 + ^
STACK CFI 23050 .cfa: sp 112 +
STACK CFI 23068 .cfa: sp 0 +
STACK CFI 2306c .cfa: x29 80 +
STACK CFI INIT 2353c 9e0 .cfa: sp 0 +
STACK CFI 23540 .cfa: sp 144 +
STACK CFI 2355c .cfa: x29 96 + x19: .cfa -8 + ^ x20: .cfa -16 + ^ x21: .cfa -24 + ^ x22: .cfa -32 + ^ x23: .cfa -40 + ^ x24: .cfa -48 + ^ x25: .cfa -56 + ^ x26: .cfa -64 + ^ x27: .cfa -80 + ^ .ra: .cfa -88 + ^ x29: .cfa -96 + ^
STACK CFI 23d80 .cfa: sp 144 +
STACK CFI 23d9c .cfa: sp 0 +
STACK CFI 23da0 .cfa: x29 96 +
STACK CFI INIT 23f1c 438 .cfa: sp 0 +
STACK CFI 23f20 .cfa: sp 192 +
STACK CFI 23f34 .cfa: x29 64 + x19: .cfa -8 + ^ x20: .cfa -16 + ^ x21: .cfa -24 + ^ x22: .cfa -32 + ^ x23: .cfa -48 + ^ .ra: .cfa -56 + ^ x29: .cfa -64 + ^
STACK CFI 24230 .cfa: sp 192 +
STACK CFI 24244 .cfa: sp 0 +
STACK CFI 24248 .cfa: x29 64 +
STACK CFI INIT 24354 1b0 .cfa: sp 0 +
STACK CFI 24358 .cfa: sp 96 +
STACK CFI 2436c .cfa: x29 64 + x19: .cfa -8 + ^ x20: .cfa -16 + ^ x21: .cfa -24 + ^ x22: .cfa -32 + ^ x23: .cfa -48 + ^ .ra: .cfa -56 + ^ x29: .cfa -64 + ^
STACK CFI 243ec .cfa: sp 96 +
STACK CFI 24400 .cfa: sp 0 +
STACK CFI 24404 .cfa: x29 64 +
STACK CFI 2443c .cfa: sp 96 +
STACK CFI 24450 .cfa: sp 0 +
STACK CFI 24454 .cfa: x29 64 +
STACK CFI INIT 24504 3b0 .cfa: sp 0 +
STACK CFI 24508 .cfa: sp 160 +
STACK CFI 24520 .cfa: x29 80 + x19: .cfa -8 + ^ x20: .cfa -16 + ^ x21: .cfa -24 + ^ x22: .cfa -32 + ^ x23: .cfa -40 + ^ x24: .cfa -48 + ^ x25: .cfa -64 + ^ .ra: .cfa -72 + ^ x29: .cfa -80 + ^
STACK CFI 247b0 .cfa: sp 160 +
STACK CFI 247c8 .cfa: sp 0 +
STACK CFI 247cc .cfa: x29 80 +
STACK CFI INIT 248b4 1fc .cfa: sp 0 +
STACK CFI 248b8 .cfa: sp 144 +
STACK CFI 248cc .cfa: x29 64 + x19: .cfa -8 + ^ x20: .cfa -16 + ^ x21: .cfa -24 + ^ x22: .cfa -32 + ^ x23: .cfa -40 + ^ x24: .cfa -48 + ^ .ra: .cfa -56 + ^ x29: .cfa -64 + ^
STACK CFI 24a30 .cfa: sp 144 +
STACK CFI 24a44 .cfa: sp 0 +
STACK CFI 24a48 .cfa: x29 64 +
STACK CFI INIT 2503c 294 .cfa: sp 0 +
STACK CFI 25040 .cfa: sp 240 +
STACK CFI 25058 .cfa: x29 80 + x19: .cfa -8 + ^ x20: .cfa -16 + ^ x21: .cfa -24 + ^ x22: .cfa -32 + ^ x23: .cfa -40 + ^ x24: .cfa -48 + ^ x25: .cfa -64 + ^ .ra: .cfa -72 + ^ x29: .cfa -80 + ^
STACK CFI 251f8 .cfa: sp 240 +
STACK CFI 25210 .cfa: sp 0 +
STACK CFI 25214 .cfa: x29 80 +
STACK CFI INIT 2534c 50 .cfa: sp 0 +
STACK CFI 25350 .cfa: sp 32 +
STACK CFI 25358 .cfa: x29 32 + x19: .cfa -8 + ^ x20: .cfa -16 + ^ .ra: .cfa -24 + ^ x29: .cfa -32 + ^
STACK CFI INIT 253c8 7c0 .cfa: sp 0 +
STACK CFI 253cc .cfa: sp 320 +
STACK CFI 253e8 .cfa: x29 96 + x19: .cfa -8 + ^ x20: .cfa -16 + ^ x21: .cfa -24 + ^ x22: .cfa -32 + ^ x23: .cfa -40 + ^ x24: .cfa -48 + ^ x25: .cfa -56 + ^ x26: .cfa -64 + ^ x27: .cfa -72 + ^ x28: .cfa -80 + ^ .ra: .cfa -88 + ^ x29: .cfa -96 + ^
STACK CFI 25a38 .cfa: sp 320 +
STACK CFI 25a54 .cfa: sp 0 +
STACK CFI 25a58 .cfa: x29 96 +
STACK CFI INIT 29f08 c74 .cfa: sp 0 +
STACK CFI 29f0c .cfa: sp 96 +
STACK CFI 29f24 .cfa: x29 96 + x19: .cfa -8 + ^ x20: .cfa -16 + ^ x21: .cfa -24 + ^ x22: .cfa -32 + ^ x23: .cfa -40 + ^ x24: .cfa -48 + ^ x25: .cfa -56 + ^ x26: .cfa -64 + ^ x27: .cfa -72 + ^ x28: .cfa -80 + ^ .ra: .cfa -88 + ^ x29: .cfa -96 + ^
STACK CFI 2a99c .cfa: sp 96 +
STACK CFI 2a9b4 .cfa: sp 0 +
STACK CFI 2a9b8 .cfa: x29 96 +
STACK CFI INIT 2acd0 26c .cfa: sp 0 +
STACK CFI 2acd4 .cfa: sp 128 +
STACK CFI 2ace4 .cfa: x29 48 + x19: .cfa -8 + ^ x20: .cfa -16 + ^ x21: .cfa -24 + ^ x22: .cfa -32 + ^ .ra: .cfa -40 + ^ x29: .cfa -48 + ^
STACK CFI 2ae88 .cfa: sp 128 +
STACK CFI 2ae98 .cfa: sp 0 +
STACK CFI 2ae9c .cfa: x29 48 +
STACK CFI INIT 2b488 3b8 .cfa: sp 0 +
STACK CFI 2b48c .cfa: sp 96 +
STACK CFI 2b4a4 .cfa: x29 96 + x19: .cfa -8 + ^ x20: .cfa -16 + ^ x21: .cfa -24 + ^ x22: .cfa -32 + ^ x23: .cfa -40 + ^ x24: .cfa -48 + ^ x25: .cfa -56 + ^ x26: .cfa -64 + ^ x27: .cfa -72 + ^ x28: .cfa -80 + ^ .ra: .cfa -88 + ^ x29: .cfa -96 + ^
STACK CFI 2b7e0 .cfa: sp 96 +
STACK CFI 2b7f8 .cfa: sp 0 +
STACK CFI 2b7fc .cfa: x29 96 +
STACK CFI INIT 2b8e0 cb4 .cfa: sp 0 +
STACK CFI 2b8e4 .cfa: sp 96 +
STACK CFI 2b8fc .cfa: x29 96 + x19: .cfa -8 + ^ x20: .cfa -16 + ^ x21: .cfa -24 + ^ x22: .cfa -32 + ^ x23: .cfa -40 + ^ x24: .cfa -48 + ^ x25: .cfa -56 + ^ x26: .cfa -64 + ^ x27: .cfa -72 + ^ x28: .cfa -80 + ^ .ra: .cfa -88 + ^ x29: .cfa -96 + ^
STACK CFI 2c3a4 .cfa: sp 96 +
STACK CFI 2c3bc .cfa: sp 0 +
STACK CFI 2c3c0 .cfa: x29 96 +
STACK CFI INIT 2c87c afc .cfa: sp 0 +
STACK CFI 2c880 .cfa: sp 96 +
STACK CFI 2c898 .cfa: x29 96 + x19: .cfa -8 + ^ x20: .cfa -16 + ^ x21: .cfa -24 + ^ x22: .cfa -32 + ^ x23: .cfa -40 + ^ x24: .cfa -48 + ^ x25: .cfa -56 + ^ x26: .cfa -64 + ^ x27: .cfa -72 + ^ x28: .cfa -80 + ^ .ra: .cfa -88 + ^ x29: .cfa -96 + ^
STACK CFI 2d2ec .cfa: sp 96 +
STACK CFI 2d304 .cfa: sp 0 +
STACK CFI 2d308 .cfa: x29 96 +
STACK CFI INIT 2d554 1430 .cfa: sp 0 +
STACK CFI 2d558 .cfa: sp 96 +
STACK CFI 2d570 .cfa: x29 96 + x19: .cfa -8 + ^ x20: .cfa -16 + ^ x21: .cfa -24 + ^ x22: .cfa -32 + ^ x23: .cfa -40 + ^ x24: .cfa -48 + ^ x25: .cfa -56 + ^ x26: .cfa -64 + ^ x27: .cfa -72 + ^ x28: .cfa -80 + ^ .ra: .cfa -88 + ^ x29: .cfa -96 + ^
STACK CFI 2e80c .cfa: sp 96 +
STACK CFI 2e824 .cfa: sp 0 +
STACK CFI 2e828 .cfa: x29 96 +
STACK CFI INIT 2eaa8 75c .cfa: sp 0 +
STACK CFI 2eaac .cfa: sp 368 +
STACK CFI 2eac8 .cfa: x29 96 + x19: .cfa -8 + ^ x20: .cfa -16 + ^ x21: .cfa -24 + ^ x22: .cfa -32 + ^ x23: .cfa -40 + ^ x24: .cfa -48 + ^ x25: .cfa -56 + ^ x26: .cfa -64 + ^ x27: .cfa -72 + ^ x28: .cfa -80 + ^ .ra: .cfa -88 + ^ x29: .cfa -96 + ^
STACK CFI 2eb7c .cfa: sp 368 +
STACK CFI 2eb98 .cfa: sp 0 +
STACK CFI 2eb9c .cfa: x29 96 +
STACK CFI 2ebf0 .cfa: sp 368 +
STACK CFI 2ec0c .cfa: sp 0 +
STACK CFI 2ec10 .cfa: x29 96 +
STACK CFI INIT 2f5c4 eb0 .cfa: sp 0 +
STACK CFI 2f5c8 .cfa: sp 96 +
STACK CFI 2f5e0 .cfa: x29 96 + x19: .cfa -8 + ^ x20: .cfa -16 + ^ x21: .cfa -24 + ^ x22: .cfa -32 + ^ x23: .cfa -40 + ^ x24: .cfa -48 + ^ x25: .cfa -56 + ^ x26: .cfa -64 + ^ x27: .cfa -72 + ^ x28: .cfa -80 + ^ .ra: .cfa -88 + ^ x29: .cfa -96 + ^
STACK CFI 30288 .cfa: sp 96 +
STACK CFI 302a0 .cfa: sp 0 +
STACK CFI 302a4 .cfa: x29 96 +
STACK CFI INIT 307e8 1c9c .cfa: sp 0 +
STACK CFI 307ec .cfa: sp 112 +
STACK CFI 30808 .cfa: x29 96 + x19: .cfa -8 + ^ x20: .cfa -16 + ^ x21: .cfa -24 + ^ x22: .cfa -32 + ^ x23: .cfa -40 + ^ x24: .cfa -48 + ^ x25: .cfa -56 + ^ x26: .cfa -64 + ^ x27: .cfa -72 + ^ x28: .cfa -80 + ^ .ra: .cfa -88 + ^ x29: .cfa -96 + ^ v8: .cfa -112 + ^
STACK CFI 30bf0 .cfa: sp 112 +
STACK CFI 30c0c .cfa: sp 0 +
STACK CFI 30c10 .cfa: x29 96 +
STACK CFI INIT 34c48 9a0 .cfa: sp 0 +
STACK CFI 34c4c .cfa: sp 144 +
STACK CFI 34c64 .cfa: x29 80 + x19: .cfa -8 + ^ x20: .cfa -16 + ^ x21: .cfa -24 + ^ x22: .cfa -32 + ^ x23: .cfa -40 + ^ x24: .cfa -48 + ^ x25: .cfa -64 + ^ .ra: .cfa -72 + ^ x29: .cfa -80 + ^
STACK CFI 35564 .cfa: sp 144 +
STACK CFI 3557c .cfa: sp 0 +
STACK CFI 35580 .cfa: x29 80 +
STACK CFI INIT 36b0c 57c .cfa: sp 0 +
STACK CFI 36b10 .cfa: sp 96 +
STACK CFI 36b28 .cfa: x29 96 + x19: .cfa -8 + ^ x20: .cfa -16 + ^ x21: .cfa -24 + ^ x22: .cfa -32 + ^ x23: .cfa -40 + ^ x24: .cfa -48 + ^ x25: .cfa -56 + ^ x26: .cfa -64 + ^ x27: .cfa -72 + ^ x28: .cfa -80 + ^ .ra: .cfa -88 + ^ x29: .cfa -96 + ^
STACK CFI 36fec .cfa: sp 96 +
STACK CFI 37004 .cfa: sp 0 +
STACK CFI 37008 .cfa: x29 96 +
STACK CFI INIT 37088 67c .cfa: sp 0 +
STACK CFI 3708c .cfa: sp 96 +
STACK CFI 370a4 .cfa: x29 96 + x19: .cfa -8 + ^ x20: .cfa -16 + ^ x21: .cfa -24 + ^ x22: .cfa -32 + ^ x23: .cfa -40 + ^ x24: .cfa -48 + ^ x25: .cfa -56 + ^ x26: .cfa -64 + ^ x27: .cfa -72 + ^ x28: .cfa -80 + ^ .ra: .cfa -88 + ^ x29: .cfa -96 + ^
STACK CFI 37668 .cfa: sp 96 +
STACK CFI 37680 .cfa: sp 0 +
STACK CFI 37684 .cfa: x29 96 +
