MODULE Linux arm64 A472AE6584D3583C4CBF00E6B5CE76530 alphalaneous.quick_extras.android64.so
INFO CODE_ID 65AE72A4D3843C584CBF00E6B5CE7653B44084EE
INFO GENERATOR mozilla/dump_syms 2.3.4
PUBLIC 5420 0 __on_dlclose
PUBLIC 5430 0 __emutls_unregister_key
PUBLIC 5438 0 __on_dlclose_late
PUBLIC 5440 0 __atexit_handler_wrapper
PUBLIC 5454 0 atexit
PUBLIC 5470 0 pthread_atfork
PUBLIC 5480 0 unwind_phase2
PUBLIC 55b4 0 _Unwind_Resume
PUBLIC 5638 0 unwind_phase2_forced
PUBLIC m 572c 0 __unw_init_local
PUBLIC m 57d4 0 __unw_get_reg
PUBLIC 5850 0 __unw_step_stage2
PUBLIC m 5864 0 __unw_get_proc_info
PUBLIC m 58a4 0 __unw_resume
PUBLIC 58cc 0 libunwind::CFI_Parser<libunwind::LocalAddressSpace>::decodeFDE(libunwind::LocalAddressSpace&, unsigned long, libunwind::CFI_Parser<libunwind::LocalAddressSpace>::FDE_Info*, libunwind::CFI_Parser<libunwind::LocalAddressSpace>::CIE_Info*, bool)
PUBLIC 5a5c 0 libunwind::CFI_Parser<libunwind::LocalAddressSpace>::parseCIE(libunwind::LocalAddressSpace&, unsigned long, libunwind::CFI_Parser<libunwind::LocalAddressSpace>::CIE_Info*)
PUBLIC 5d24 0 libunwind::AbstractUnwindCursor::~AbstractUnwindCursor()
PUBLIC 5d2c 0 libunwind::UnwindCursor<libunwind::LocalAddressSpace, libunwind::Registers_arm64>::~UnwindCursor()
PUBLIC 5d34 0 libunwind::UnwindCursor<libunwind::LocalAddressSpace, libunwind::Registers_arm64>::validReg(int)
PUBLIC 5d78 0 libunwind::UnwindCursor<libunwind::LocalAddressSpace, libunwind::Registers_arm64>::getReg(int)
PUBLIC 5e60 0 libunwind::UnwindCursor<libunwind::LocalAddressSpace, libunwind::Registers_arm64>::setReg(int, unsigned long)
PUBLIC 5f48 0 libunwind::UnwindCursor<libunwind::LocalAddressSpace, libunwind::Registers_arm64>::validFloatReg(int)
PUBLIC 5f5c 0 libunwind::UnwindCursor<libunwind::LocalAddressSpace, libunwind::Registers_arm64>::getFloatReg(int)
PUBLIC 5f6c 0 libunwind::UnwindCursor<libunwind::LocalAddressSpace, libunwind::Registers_arm64>::setFloatReg(int, double)
PUBLIC 5f7c 0 libunwind::UnwindCursor<libunwind::LocalAddressSpace, libunwind::Registers_arm64>::step(bool)
PUBLIC 606c 0 libunwind::UnwindCursor<libunwind::LocalAddressSpace, libunwind::Registers_arm64>::getInfo(unw_proc_info_t*)
PUBLIC 60b0 0 libunwind::UnwindCursor<libunwind::LocalAddressSpace, libunwind::Registers_arm64>::jumpto()
PUBLIC 60bc 0 libunwind::UnwindCursor<libunwind::LocalAddressSpace, libunwind::Registers_arm64>::isSignalFrame()
PUBLIC 60c8 0 libunwind::UnwindCursor<libunwind::LocalAddressSpace, libunwind::Registers_arm64>::getFunctionName(char*, unsigned long, unsigned long*)
PUBLIC 60f4 0 libunwind::UnwindCursor<libunwind::LocalAddressSpace, libunwind::Registers_arm64>::setInfoBasedOnIPRegister(bool)
PUBLIC 6374 0 libunwind::UnwindCursor<libunwind::LocalAddressSpace, libunwind::Registers_arm64>::getRegisterName(int)
PUBLIC 6380 0 libunwind::UnwindCursor<libunwind::LocalAddressSpace, libunwind::Registers_arm64>::stepThroughSigReturn(libunwind::Registers_arm64&)
PUBLIC 64a0 0 libunwind::DwarfInstructions<libunwind::LocalAddressSpace, libunwind::Registers_arm64>::stepWithDwarf(libunwind::LocalAddressSpace&, unsigned long, unsigned long, libunwind::Registers_arm64&, bool&, bool)
PUBLIC 6928 0 libunwind::CFI_Parser<libunwind::LocalAddressSpace>::parseFDEInstructions(libunwind::LocalAddressSpace&, libunwind::CFI_Parser<libunwind::LocalAddressSpace>::FDE_Info const&, libunwind::CFI_Parser<libunwind::LocalAddressSpace>::CIE_Info const&, unsigned long, int, libunwind::CFI_Parser<libunwind::LocalAddressSpace>::PrologInfo*)
PUBLIC 7570 0 libunwind::DwarfInstructions<libunwind::LocalAddressSpace, libunwind::Registers_arm64>::getCFA(libunwind::LocalAddressSpace&, libunwind::CFI_Parser<libunwind::LocalAddressSpace>::PrologInfo const&, libunwind::Registers_arm64 const&)
PUBLIC 76a4 0 libunwind::DwarfInstructions<libunwind::LocalAddressSpace, libunwind::Registers_arm64>::getSavedRegister(libunwind::LocalAddressSpace&, libunwind::Registers_arm64 const&, unsigned long, libunwind::CFI_Parser<libunwind::LocalAddressSpace>::RegisterLocation const&)
PUBLIC 78b4 0 libunwind::LocalAddressSpace::getEncodedP(unsigned long&, unsigned long, unsigned char, unsigned long)
PUBLIC 7c40 0 libunwind::LocalAddressSpace::getULEB128(unsigned long&, unsigned long)
PUBLIC 7e08 0 libunwind::DwarfInstructions<libunwind::LocalAddressSpace, libunwind::Registers_arm64>::evaluateExpression(unsigned long, libunwind::LocalAddressSpace&, libunwind::Registers_arm64 const&, unsigned long)
PUBLIC 87c4 0 libunwind::UnwindCursor<libunwind::LocalAddressSpace, libunwind::Registers_arm64>::getInfoFromDwarfSection(unsigned long, libunwind::UnwindInfoSections const&, unsigned int)
PUBLIC 8a98 0 libunwind::findUnwindSectionsByPhdr(dl_phdr_info*, unsigned long, void*)
PUBLIC 8bcc 0 libunwind::EHHeaderParser<libunwind::LocalAddressSpace>::decodeEHHdr(libunwind::LocalAddressSpace&, unsigned long, unsigned long, libunwind::EHHeaderParser<libunwind::LocalAddressSpace>::EHHeaderInfo&)
PUBLIC 8cec 0 libunwind::CFI_Parser<libunwind::LocalAddressSpace>::findFDE(libunwind::LocalAddressSpace&, unsigned long, unsigned long, unsigned long, unsigned long, libunwind::CFI_Parser<libunwind::LocalAddressSpace>::FDE_Info*, libunwind::CFI_Parser<libunwind::LocalAddressSpace>::CIE_Info*)
PUBLIC 8eb4 0 libunwind::EHHeaderParser<libunwind::LocalAddressSpace>::findFDE(libunwind::LocalAddressSpace&, unsigned long, unsigned long, unsigned int, libunwind::CFI_Parser<libunwind::LocalAddressSpace>::FDE_Info*, libunwind::CFI_Parser<libunwind::LocalAddressSpace>::CIE_Info*)
PUBLIC 901c 0 libunwind::EHHeaderParser<libunwind::LocalAddressSpace>::getTableEntrySize(unsigned char)
PUBLIC 9118 0 libunwind::Registers_arm64::getRegisterName(int)
PUBLIC 9148 0 __libunwind_Registers_arm64_jumpto
PUBLIC m 91d8 0 __unw_getcontext
PUBLIC 9280 0 __aarch64_ldadd8_relax
PUBLIC 92b0 0 init_have_lse_atomics
PUBLIC 9348 0 __init_cpu_features_constructor
PUBLIC 98e4 0 __init_cpu_features
PUBLIC 9970 0 __aarch64_ldadd8_acq_rel
PUBLIC 99a0 0 __cxx_global_var_init
PUBLIC a574 0 geode::modifier::ModifyBase<geode::modifier::ModifyDerive<MyEditorUI, EditorUI> >::~ModifyBase()
PUBLIC a58c 0 geode::modifier::ModifyDerive<MyEditorUI, EditorUI>::apply()
PUBLIC add4 0 std::__ndk1::shared_ptr<geode::Hook>::~shared_ptr[abi:ne180000]()
PUBLIC ae24 0 geode::impl::ResultData<geode::Hook*, std::__ndk1::basic_string<char, std::__ndk1::char_traits<char>, std::__ndk1::allocator<char> > >::~ResultData()
PUBLIC ae98 0 std::__ndk1::vector<std::__ndk1::basic_string<char, std::__ndk1::char_traits<char>, std::__ndk1::allocator<char> >, std::__ndk1::allocator<std::__ndk1::basic_string<char, std::__ndk1::char_traits<char>, std::__ndk1::allocator<char> > > >::~vector[abi:ne180000]()
PUBLIC af14 0 geode::modifier::ModifyBase<geode::modifier::ModifyDerive<MyEditorUI, EditorUI> >::apply()
PUBLIC af18 0 __clang_call_terminate
PUBLIC af28 0 _ZN5geode15UnwrapExceptionC2IRPNS_4HookEQsr4implE18IsStringStreamableIT_EEENS_4impl5OkTagEOS5_
PUBLIC b07c 0 std::__ndk1::__throw_bad_variant_access[abi:ne180000]()
PUBLIC b0b0 0 std::__ndk1::basic_stringstream<char, std::__ndk1::char_traits<char>, std::__ndk1::allocator<char> >::basic_stringstream[abi:ne180000]()
PUBLIC m b1dc 0 std::__ndk1::basic_stringstream<char, std::__ndk1::char_traits<char>, std::__ndk1::allocator<char> >::~basic_stringstream()
PUBLIC b25c 0 geode::UnwrapException::~UnwrapException()
PUBLIC b280 0 std::__ndk1::__put_character_sequence[abi:ne180000]<char, std::__ndk1::char_traits<char> >(std::__ndk1::basic_ostream<char, std::__ndk1::char_traits<char> >, std::__ndk1::basic_ostream const*, unsigned long)
PUBLIC b424 0 std::__ndk1::__pad_and_output[abi:ne180000]<char, std::__ndk1::char_traits<char> >(std::__ndk1::char_traits<char>, std::__ndk1::ostreambuf_iterator const*, std::__ndk1::ostreambuf_iterator const, std::__ndk1::ostreambuf_iterator const, std::__ndk1::ios_base&, std::__ndk1::ostreambuf_iterator)
PUBLIC b600 0 std::__ndk1::basic_string<char, std::__ndk1::char_traits<char>, std::__ndk1::allocator<char> >::__throw_length_error[abi:ne180000]() const
PUBLIC b614 0 std::__ndk1::__throw_length_error[abi:ne180000](char const*)
PUBLIC b664 0 std::length_error::length_error[abi:ne180000](char const*)
PUBLIC b694 0 std::__throw_bad_array_new_length([abi:ne180000], void)
PUBLIC b6c8 0 std::__ndk1::basic_stringbuf<char, std::__ndk1::char_traits<char>, std::__ndk1::allocator<char> >::str[abi:ne180000]() &&
PUBLIC b840 0 std::__ndk1::basic_stringbuf<char, std::__ndk1::char_traits<char>, std::__ndk1::allocator<char> >::__init_buf_ptrs[abi:ne180000]()
PUBLIC b988 0 std::__ndk1::basic_string<char, std::__ndk1::char_traits<char>, std::__ndk1::allocator<char> >::__init_copy_ctor_external(char const*, unsigned long)
PUBLIC ba08 0 std::__ndk1::__split_buffer<std::__ndk1::basic_string<char, std::__ndk1::char_traits<char>, std::__ndk1::allocator<char> >, std::__ndk1::allocator<std::__ndk1::basic_string<char, std::__ndk1::char_traits<char>, std::__ndk1::allocator<char> > >&>::~__split_buffer()
PUBLIC ba70 0 std::__ndk1::vector<std::__ndk1::basic_string<char, std::__ndk1::char_traits<char>, std::__ndk1::allocator<char> >, std::__ndk1::allocator<std::__ndk1::basic_string<char, std::__ndk1::char_traits<char>, std::__ndk1::allocator<char> > > >::__throw_length_error[abi:ne180000]() const
PUBLIC ba84 0 std::__ndk1::__variant_detail::__visitation::__base::__dispatcher<(unsigned long)0>::__dispatch[abi:ne180000]<std::__ndk1::__variant_detail::__dtor<std::__ndk1::__variant_detail::__traits<geode::Hook*, std::__ndk1::basic_string<char, std::__ndk1::char_traits<char>, std::__ndk1::allocator<char> > >, (std::__ndk1::__variant_detail::_Trait)1>::__destroy[abi:ne180000]()::{lambda(auto:1&)#1}, std::__ndk1::__variant_detail::__base<(std::__ndk1::__variant_detail::__traits<geode::Hook*, std::__ndk1::basic_string<char, std::__ndk1::char_traits<char>, std::__ndk1::allocator<char> > >)1, geode::Hook, std::__ndk1::allocator<char> >&>(std::__ndk1::__variant_detail::__dtor<std::__ndk1::__variant_detail::__traits<geode::Hook*, std::__ndk1::basic_string<char, std::__ndk1::char_traits<char>, std::__ndk1::allocator<char> > >, (std::__ndk1::__variant_detail::_Trait)1>, std::__ndk1::__variant_detail::__base<(std::__ndk1::__variant_detail::__traits<geode::Hook*, std::__ndk1::basic_string<char, std::__ndk1::char_traits<char>, std::__ndk1::allocator<char> > >)1, geode::Hook, std::__ndk1::allocator<char> >&)
PUBLIC ba88 0 std::__ndk1::__variant_detail::__visitation::__base::__dispatcher<(unsigned long)1>::__dispatch[abi:ne180000]<std::__ndk1::__variant_detail::__dtor<std::__ndk1::__variant_detail::__traits<geode::Hook*, std::__ndk1::basic_string<char, std::__ndk1::char_traits<char>, std::__ndk1::allocator<char> > >, (std::__ndk1::__variant_detail::_Trait)1>::__destroy[abi:ne180000]()::{lambda(auto:1&)#1}, std::__ndk1::__variant_detail::__base<(std::__ndk1::__variant_detail::__traits<geode::Hook*, std::__ndk1::basic_string<char, std::__ndk1::char_traits<char>, std::__ndk1::allocator<char> > >)1, geode::Hook, std::__ndk1::allocator<char> >&>(std::__ndk1::__variant_detail::__dtor<std::__ndk1::__variant_detail::__traits<geode::Hook*, std::__ndk1::basic_string<char, std::__ndk1::char_traits<char>, std::__ndk1::allocator<char> > >, (std::__ndk1::__variant_detail::_Trait)1>, std::__ndk1::__variant_detail::__base<(std::__ndk1::__variant_detail::__traits<geode::Hook*, std::__ndk1::basic_string<char, std::__ndk1::char_traits<char>, std::__ndk1::allocator<char> > >)1, geode::Hook, std::__ndk1::allocator<char> >&)
PUBLIC ba9c 0 std::__ndk1::__tree<std::__ndk1::__value_type<std::__ndk1::basic_string<char, std::__ndk1::char_traits<char>, std::__ndk1::allocator<char> >, std::__ndk1::shared_ptr<geode::Hook> >, std::__ndk1::__map_value_compare<std::__ndk1::basic_string<char, std::__ndk1::char_traits<char>, std::__ndk1::allocator<char> >, std::__ndk1::__value_type<std::__ndk1::basic_string<char, std::__ndk1::char_traits<char>, std::__ndk1::allocator<char> >, std::__ndk1::shared_ptr<geode::Hook> >, std::__ndk1::less<std::__ndk1::basic_string<char, std::__ndk1::char_traits<char>, std::__ndk1::allocator<char> > >, true>, std::__ndk1::allocator<std::__ndk1::__value_type<std::__ndk1::basic_string<char, std::__ndk1::char_traits<char>, std::__ndk1::allocator<char> >, std::__ndk1::shared_ptr<geode::Hook> > > >::destroy(std::__ndk1::__tree_node<std::__ndk1::__value_type<std::__ndk1::basic_string<char, std::__ndk1::char_traits<char>, std::__ndk1::allocator<char> >, std::__ndk1::shared_ptr<geode::Hook> >, void*>*)
PUBLIC bb20 0 geode::modifier::AsStaticFunction_init<MyEditorUI, bool (MyEditorUI::*)(LevelEditorLayer*)>::Impl<bool (MyEditorUI::*)(LevelEditorLayer*)>::function(MyEditorUI*, LevelEditorLayer*)
PUBLIC bc7c 0 geode::modifier::AsStaticFunction_showUI<MyEditorUI, void (MyEditorUI::*)(bool)>::Impl<void (MyEditorUI::*)(bool)>::function(MyEditorUI*, bool)
PUBLIC bcd4 0 geode::modifier::AsStaticFunction_updateButtons<MyEditorUI, void (MyEditorUI::*)()>::Impl<void (MyEditorUI::*)()>::function(MyEditorUI*)
PUBLIC bdf4 0 std::__ndk1::shared_ptr<tulip::hook::CallingConvention>::~shared_ptr[abi:ne180000]()
PUBLIC be44 0 tulip::hook::HandlerMetadata::~HandlerMetadata()
PUBLIC bea8 0 MyEditorUI::onExtras(cocos2d::CCObject*)
PUBLIC bf40 0 geode::modifier::FieldIntermediate<MyEditorUI, EditorUI>::self()
PUBLIC c580 0 geode::modifier::FieldIntermediate<MyEditorUI, EditorUI>::fieldDestructor(void*)
PUBLIC c584 0 std::__ndk1::vector<void*, std::__ndk1::allocator<void*> >::__throw_length_error[abi:ne180000]() const
PUBLIC c598 0 std::__ndk1::vector<std::__ndk1::function<void (void*)>, std::__ndk1::allocator<std::__ndk1::function<void (void*)> > >::__throw_length_error[abi:ne180000]() const
PUBLIC c5ac 0 std::__ndk1::vector<void*, std::__ndk1::allocator<void*> >::__throw_out_of_range[abi:ne180000]() const
PUBLIC c5b8 0 std::__ndk1::__throw_out_of_range[abi:ne180000](char const*)
PUBLIC c608 0 std::out_of_range::out_of_range[abi:ne180000](char const*)
PUBLIC c638 0 std::__ndk1::vector<std::__ndk1::function<void (void*)>, std::__ndk1::allocator<std::__ndk1::function<void (void*)> > >::__throw_out_of_range[abi:ne180000]() const
PUBLIC c644 0 std::__ndk1::__function::__base<void (void*)>::~__base()
PUBLIC c648 0 std::__ndk1::__function::__func<void (*)(void*), std::__ndk1::allocator<void (*)(void*)>, void (void*)>::~__func()
PUBLIC c64c 0 std::__ndk1::__function::__func<void (*)(void*), std::__ndk1::allocator<void (*)(void*)>, void (void*)>::__clone() const
PUBLIC c684 0 std::__ndk1::__function::__func<void (*)(void*), std::__ndk1::allocator<void (*)(void*)>, void (void*)>::__clone(std::__ndk1::__function::__base<void (void*)>*) const
PUBLIC c69c 0 std::__ndk1::__function::__func<void (*)(void*), std::__ndk1::allocator<void (*)(void*)>, void (void*)>::destroy()
PUBLIC c6a0 0 std::__ndk1::__function::__func<void (*)(void*), std::__ndk1::allocator<void (*)(void*)>, void (void*)>::destroy_deallocate()
PUBLIC c6a4 0 std::__ndk1::__function::__func<void (*)(void*), std::__ndk1::allocator<void (*)(void*)>, void (void*)>::operator()(void*&&)
PUBLIC c6b4 0 std::__ndk1::__function::__func<void (*)(void*), std::__ndk1::allocator<void (*)(void*)>, void (void*)>::target(std::type_info const&) const
PUBLIC c6d0 0 std::__ndk1::__function::__func<void (*)(void*), std::__ndk1::allocator<void (*)(void*)>, void (void*)>::target_type() const
PUBLIC c6dc 0 std::__ndk1::__tree<std::__ndk1::__value_type<std::__ndk1::basic_string<char, std::__ndk1::char_traits<char>, std::__ndk1::allocator<char> >, std::__ndk1::shared_ptr<geode::Hook> >, std::__ndk1::__map_value_compare<std::__ndk1::basic_string<char, std::__ndk1::char_traits<char>, std::__ndk1::allocator<char> >, std::__ndk1::__value_type<std::__ndk1::basic_string<char, std::__ndk1::char_traits<char>, std::__ndk1::allocator<char> >, std::__ndk1::shared_ptr<geode::Hook> >, std::__ndk1::less<std::__ndk1::basic_string<char, std::__ndk1::char_traits<char>, std::__ndk1::allocator<char> > >, true>, std::__ndk1::allocator<std::__ndk1::__value_type<std::__ndk1::basic_string<char, std::__ndk1::char_traits<char>, std::__ndk1::allocator<char> >, std::__ndk1::shared_ptr<geode::Hook> > > >::__emplace_unique_key_args<std::__ndk1::basic_string<char, std::__ndk1::char_traits<char>, std::__ndk1::allocator<char> >, std::__ndk1::piecewise_construct_t const&, std::__ndk1::tuple<std::__ndk1::basic_string<char, std::__ndk1::char_traits<char>, std::__ndk1::allocator<char> >&&>, std::__ndk1::tuple<> >(std::__ndk1::basic_string<char, std::__ndk1::char_traits<char>, std::__ndk1::allocator<char> > const&, std::__ndk1::piecewise_construct_t const&, std::__ndk1::tuple<std::__ndk1::basic_string<char, std::__ndk1::char_traits<char>, std::__ndk1::allocator<char> >&&>, std::__ndk1::tuple<>)
PUBLIC c844 0 std::__ndk1::__tree_balance_after_insert[abi:ne180000]<std::__ndk1::__tree_node_base<void*>*>(std::__ndk1::__tree_node_base<void*>*, std::__ndk1::__tree_node_base<void*>*)
PUBLIC m c9f4 0 geodeImplicitEntry
PUBLIC ca30 0 <.plt ELF section in alphalaneous.quick_extras.android64.so>
STACK CFI INIT 5420 10 .cfa: sp 0 +
STACK CFI INIT 5430 8 .cfa: sp 0 +
STACK CFI INIT 5438 8 .cfa: sp 0 +
STACK CFI INIT 5440 14 .cfa: sp 0 +
STACK CFI INIT 5454 1c .cfa: sp 0 +
STACK CFI INIT 5470 10 .cfa: sp 0 +
STACK CFI INIT 5480 134 .cfa: sp 0 +
STACK CFI INIT 55b4 84 .cfa: sp 0 +
STACK CFI INIT 5638 f4 .cfa: sp 0 +
STACK CFI INIT 572c a8 .cfa: sp 0 +
STACK CFI INIT 57d4 7c .cfa: sp 0 +
STACK CFI INIT 5850 14 .cfa: sp 0 +
STACK CFI INIT 5864 40 .cfa: sp 0 +
STACK CFI INIT 58a4 28 .cfa: sp 0 +
STACK CFI INIT 58cc 190 .cfa: sp 0 +
STACK CFI INIT 5a5c 2c8 .cfa: sp 0 +
STACK CFI INIT 5d24 8 .cfa: sp 0 +
STACK CFI INIT 5d2c 8 .cfa: sp 0 +
STACK CFI INIT 5d34 44 .cfa: sp 0 +
STACK CFI INIT 5d78 e8 .cfa: sp 0 +
STACK CFI INIT 5e60 e8 .cfa: sp 0 +
STACK CFI INIT 5f48 14 .cfa: sp 0 +
STACK CFI INIT 5f5c 10 .cfa: sp 0 +
STACK CFI INIT 5f6c 10 .cfa: sp 0 +
STACK CFI INIT 5f7c f0 .cfa: sp 0 +
STACK CFI INIT 606c 44 .cfa: sp 0 +
STACK CFI INIT 60b0 c .cfa: sp 0 +
STACK CFI INIT 60bc c .cfa: sp 0 +
STACK CFI INIT 60c8 2c .cfa: sp 0 +
STACK CFI INIT 60f4 280 .cfa: sp 0 +
STACK CFI INIT 6374 c .cfa: sp 0 +
STACK CFI INIT 6380 120 .cfa: sp 0 +
STACK CFI INIT 64a0 488 .cfa: sp 0 +
STACK CFI INIT 6928 c48 .cfa: sp 0 +
STACK CFI INIT 7570 134 .cfa: sp 0 +
STACK CFI INIT 76a4 210 .cfa: sp 0 +
STACK CFI INIT 78b4 38c .cfa: sp 0 +
STACK CFI INIT 7c40 1c8 .cfa: sp 0 +
STACK CFI INIT 7e08 9bc .cfa: sp 0 +
STACK CFI INIT 87c4 2d4 .cfa: sp 0 +
STACK CFI INIT 8a98 134 .cfa: sp 0 +
STACK CFI INIT 8bcc 120 .cfa: sp 0 +
STACK CFI INIT 8cec 1c8 .cfa: sp 0 +
STACK CFI INIT 8eb4 168 .cfa: sp 0 +
STACK CFI INIT 901c fc .cfa: sp 0 +
STACK CFI INIT 9118 30 .cfa: sp 0 +
STACK CFI INIT 9280 30 .cfa: sp 0 +
STACK CFI INIT 92b0 98 .cfa: sp 0 +
STACK CFI INIT 9348 59c .cfa: sp 0 +
STACK CFI INIT 98e4 8c .cfa: sp 0 +
STACK CFI INIT 9970 30 .cfa: sp 0 +
STACK CFI INIT a574 18 .cfa: sp 0 +
STACK CFI INIT add4 50 .cfa: sp 0 +
STACK CFI add8 .cfa: sp 32 +
STACK CFI ade0 .cfa: x29 32 + x19: .cfa -16 + ^ .ra: .cfa -24 + ^ x29: .cfa -32 + ^
STACK CFI adf8 .cfa: sp 32 +
STACK CFI ae00 .cfa: sp 0 +
STACK CFI ae04 .cfa: x29 32 +
STACK CFI ae18 .cfa: sp 32 +
STACK CFI ae20 .cfa: sp 0 +
STACK CFI INIT ae98 7c .cfa: sp 0 +
STACK CFI ae9c .cfa: sp 48 +
STACK CFI aea8 .cfa: x29 48 + x19: .cfa -8 + ^ x20: .cfa -16 + ^ x21: .cfa -32 + ^ .ra: .cfa -40 + ^ x29: .cfa -48 + ^
STACK CFI aef4 .cfa: sp 48 +
STACK CFI af00 .cfa: sp 0 +
STACK CFI af04 .cfa: sp 48 +
STACK CFI af10 .cfa: sp 0 +
STACK CFI INIT af14 4 .cfa: sp 0 +
STACK CFI INIT af18 10 .cfa: sp 0 +
STACK CFI af1c .cfa: sp 16 +
STACK CFI af20 .cfa: x29 16 + .ra: .cfa -8 + ^ x29: .cfa -16 + ^
STACK CFI INIT b07c 34 .cfa: sp 0 +
STACK CFI b080 .cfa: sp 16 +
STACK CFI b084 .cfa: x29 16 + .ra: .cfa -8 + ^ x29: .cfa -16 + ^
STACK CFI INIT b1dc 80 .cfa: sp 0 +
STACK CFI b1e0 .cfa: sp 48 +
STACK CFI b1ec .cfa: x29 48 + x19: .cfa -8 + ^ x20: .cfa -16 + ^ x21: .cfa -32 + ^ .ra: .cfa -40 + ^ x29: .cfa -48 + ^
STACK CFI b24c .cfa: sp 48 +
STACK CFI b258 .cfa: sp 0 +
STACK CFI INIT b25c 24 .cfa: sp 0 +
STACK CFI b260 .cfa: sp 32 +
STACK CFI b268 .cfa: x29 32 + x19: .cfa -16 + ^ .ra: .cfa -24 + ^ x29: .cfa -32 + ^
STACK CFI b274 .cfa: sp 32 +
STACK CFI b27c .cfa: sp 0 +
STACK CFI INIT b600 14 .cfa: sp 0 +
STACK CFI b604 .cfa: sp 16 +
STACK CFI b608 .cfa: x29 16 + .ra: .cfa -8 + ^ x29: .cfa -16 + ^
STACK CFI INIT b664 30 .cfa: sp 0 +
STACK CFI b668 .cfa: sp 32 +
STACK CFI b670 .cfa: x29 32 + x19: .cfa -16 + ^ .ra: .cfa -24 + ^ x29: .cfa -32 + ^
STACK CFI b688 .cfa: sp 32 +
STACK CFI b690 .cfa: sp 0 +
STACK CFI INIT b694 34 .cfa: sp 0 +
STACK CFI b698 .cfa: sp 32 +
STACK CFI b6a0 .cfa: x29 32 + x19: .cfa -16 + ^ .ra: .cfa -24 + ^ x29: .cfa -32 + ^
STACK CFI INIT b840 148 .cfa: sp 0 +
STACK CFI b844 .cfa: sp 48 +
STACK CFI b850 .cfa: x29 48 + x19: .cfa -8 + ^ x20: .cfa -16 + ^ x21: .cfa -32 + ^ .ra: .cfa -40 + ^ x29: .cfa -48 + ^
STACK CFI b978 .cfa: sp 48 +
STACK CFI b984 .cfa: sp 0 +
STACK CFI INIT b988 80 .cfa: sp 0 +
STACK CFI b98c .cfa: sp 48 +
STACK CFI b998 .cfa: x29 48 + x19: .cfa -8 + ^ x20: .cfa -16 + ^ x21: .cfa -24 + ^ x22: .cfa -32 + ^ .ra: .cfa -40 + ^ x29: .cfa -48 + ^
STACK CFI b9b0 .cfa: sp 48 +
STACK CFI b9bc .cfa: sp 0 +
STACK CFI b9c0 .cfa: x29 48 +
STACK CFI b9f0 .cfa: sp 48 +
STACK CFI b9fc .cfa: sp 0 +
STACK CFI ba00 .cfa: x29 48 +
STACK CFI INIT ba08 68 .cfa: sp 0 +
STACK CFI ba0c .cfa: sp 32 +
STACK CFI ba14 .cfa: x29 32 + x19: .cfa -8 + ^ x20: .cfa -16 + ^ .ra: .cfa -24 + ^ x29: .cfa -32 + ^
STACK CFI ba2c .cfa: sp 32 +
STACK CFI ba34 .cfa: sp 0 +
STACK CFI ba38 .cfa: x29 32 +
STACK CFI ba64 .cfa: sp 32 +
STACK CFI ba6c .cfa: sp 0 +
STACK CFI INIT ba70 14 .cfa: sp 0 +
STACK CFI ba74 .cfa: sp 16 +
STACK CFI ba78 .cfa: x29 16 + .ra: .cfa -8 + ^ x29: .cfa -16 + ^
STACK CFI INIT ba84 4 .cfa: sp 0 +
STACK CFI INIT ba88 14 .cfa: sp 0 +
STACK CFI INIT ba9c 84 .cfa: sp 0 +
STACK CFI baa4 .cfa: sp 32 +
STACK CFI baac .cfa: x29 32 + x19: .cfa -8 + ^ x20: .cfa -16 + ^ .ra: .cfa -24 + ^ x29: .cfa -32 + ^
STACK CFI baec .cfa: sp 32 +
STACK CFI baf4 .cfa: sp 0 +
STACK CFI bafc .cfa: x29 32 +
STACK CFI INIT bb20 15c .cfa: sp 0 +
STACK CFI bb24 .cfa: sp 80 +
STACK CFI bb38 .cfa: x29 64 + x19: .cfa -8 + ^ x20: .cfa -16 + ^ x21: .cfa -24 + ^ x22: .cfa -32 + ^ x23: .cfa -48 + ^ .ra: .cfa -56 + ^ x29: .cfa -64 + ^
STACK CFI bc60 .cfa: sp 80 +
STACK CFI bc74 .cfa: sp 0 +
STACK CFI bc78 .cfa: x29 64 +
STACK CFI INIT bc7c 58 .cfa: sp 0 +
STACK CFI bc80 .cfa: sp 32 +
STACK CFI bc88 .cfa: x29 32 + x19: .cfa -8 + ^ x20: .cfa -16 + ^ .ra: .cfa -24 + ^ x29: .cfa -32 + ^
STACK CFI bcbc .cfa: sp 32 +
STACK CFI bcc4 .cfa: sp 0 +
STACK CFI bcc8 .cfa: sp 32 +
STACK CFI bcd0 .cfa: sp 0 +
STACK CFI INIT bcd4 120 .cfa: sp 0 +
STACK CFI bcd8 .cfa: sp 64 +
STACK CFI bce8 .cfa: x29 48 + x19: .cfa -8 + ^ x20: .cfa -16 + ^ x21: .cfa -32 + ^ .ra: .cfa -40 + ^ x29: .cfa -48 + ^
STACK CFI bd8c .cfa: sp 64 +
STACK CFI bd9c .cfa: sp 0 +
STACK CFI bda0 .cfa: x29 48 +
STACK CFI INIT bdf4 50 .cfa: sp 0 +
STACK CFI bdf8 .cfa: sp 32 +
STACK CFI be00 .cfa: x29 32 + x19: .cfa -16 + ^ .ra: .cfa -24 + ^ x29: .cfa -32 + ^
STACK CFI be18 .cfa: sp 32 +
STACK CFI be20 .cfa: sp 0 +
STACK CFI be24 .cfa: x29 32 +
STACK CFI be38 .cfa: sp 32 +
STACK CFI be40 .cfa: sp 0 +
STACK CFI INIT be44 64 .cfa: sp 0 +
STACK CFI be48 .cfa: sp 32 +
STACK CFI be50 .cfa: x29 32 + x19: .cfa -16 + ^ .ra: .cfa -24 + ^ x29: .cfa -32 + ^
STACK CFI be7c .cfa: sp 32 +
STACK CFI be84 .cfa: sp 0 +
STACK CFI be88 .cfa: x29 32 +
STACK CFI be9c .cfa: sp 32 +
STACK CFI bea4 .cfa: sp 0 +
STACK CFI INIT bea8 98 .cfa: sp 0 +
STACK CFI beac .cfa: sp 64 +
STACK CFI bebc .cfa: x29 64 + x19: .cfa -8 + ^ x20: .cfa -16 + ^ x21: .cfa -24 + ^ x22: .cfa -32 + ^ x28: .cfa -48 + ^ .ra: .cfa -56 + ^ x29: .cfa -64 + ^
STACK CFI bf28 .cfa: sp 64 +
STACK CFI bf38 .cfa: sp 0 +
STACK CFI bf3c .cfa: x29 64 +
STACK CFI INIT c580 4 .cfa: sp 0 +
STACK CFI INIT c584 14 .cfa: sp 0 +
STACK CFI c588 .cfa: sp 16 +
STACK CFI c58c .cfa: x29 16 + .ra: .cfa -8 + ^ x29: .cfa -16 + ^
STACK CFI INIT c598 14 .cfa: sp 0 +
STACK CFI c59c .cfa: sp 16 +
STACK CFI c5a0 .cfa: x29 16 + .ra: .cfa -8 + ^ x29: .cfa -16 + ^
STACK CFI INIT c5ac c .cfa: sp 0 +
STACK CFI c5b0 .cfa: sp 16 +
STACK CFI c5b4 .cfa: x29 16 + .ra: .cfa -8 + ^ x29: .cfa -16 + ^
STACK CFI INIT c608 30 .cfa: sp 0 +
STACK CFI c60c .cfa: sp 32 +
STACK CFI c614 .cfa: x29 32 + x19: .cfa -16 + ^ .ra: .cfa -24 + ^ x29: .cfa -32 + ^
STACK CFI c62c .cfa: sp 32 +
STACK CFI c634 .cfa: sp 0 +
STACK CFI INIT c638 c .cfa: sp 0 +
STACK CFI c63c .cfa: sp 16 +
STACK CFI c640 .cfa: x29 16 + .ra: .cfa -8 + ^ x29: .cfa -16 + ^
STACK CFI INIT c644 4 .cfa: sp 0 +
STACK CFI INIT c648 4 .cfa: sp 0 +
STACK CFI INIT c64c 38 .cfa: sp 0 +
STACK CFI c650 .cfa: sp 32 +
STACK CFI c658 .cfa: x29 32 + x19: .cfa -16 + ^ .ra: .cfa -24 + ^ x29: .cfa -32 + ^
STACK CFI c678 .cfa: sp 32 +
STACK CFI c680 .cfa: sp 0 +
STACK CFI INIT c684 18 .cfa: sp 0 +
STACK CFI INIT c69c 4 .cfa: sp 0 +
STACK CFI INIT c6a0 4 .cfa: sp 0 +
STACK CFI INIT c6a4 10 .cfa: sp 0 +
STACK CFI INIT c6b4 1c .cfa: sp 0 +
STACK CFI INIT c6d0 c .cfa: sp 0 +
STACK CFI INIT c6dc 168 .cfa: sp 0 +
STACK CFI c6e0 .cfa: sp 80 +
STACK CFI c6f4 .cfa: x29 80 + x19: .cfa -8 + ^ x20: .cfa -16 + ^ x21: .cfa -24 + ^ x22: .cfa -32 + ^ x23: .cfa -40 + ^ x24: .cfa -48 + ^ x25: .cfa -56 + ^ x26: .cfa -64 + ^ .ra: .cfa -72 + ^ x29: .cfa -80 + ^
STACK CFI c82c .cfa: sp 80 +
STACK CFI c840 .cfa: sp 0 +
STACK CFI INIT c844 1b0 .cfa: sp 0 +
STACK CFI INIT c9f4 3c .cfa: sp 0 +
STACK CFI c9f8 .cfa: sp 32 +
STACK CFI ca00 .cfa: x29 32 + x19: .cfa -16 + ^ .ra: .cfa -24 + ^ x29: .cfa -32 + ^
STACK CFI ca0c .cfa: sp 32 +
STACK CFI ca14 .cfa: sp 0 +
STACK CFI ca18 .cfa: x29 32 +
STACK CFI ca24 .cfa: sp 32 +
STACK CFI ca2c .cfa: sp 0 +
STACK CFI INIT 99a0 bd4 .cfa: sp 0 +
STACK CFI 99a4 .cfa: sp 240 +
STACK CFI 99c0 .cfa: x29 96 + x19: .cfa -8 + ^ x20: .cfa -16 + ^ x21: .cfa -24 + ^ x22: .cfa -32 + ^ x23: .cfa -40 + ^ x24: .cfa -48 + ^ x25: .cfa -56 + ^ x26: .cfa -64 + ^ x27: .cfa -72 + ^ x28: .cfa -80 + ^ .ra: .cfa -88 + ^ x29: .cfa -96 + ^
STACK CFI 9d9c .cfa: sp 240 +
STACK CFI 9db8 .cfa: sp 0 +
STACK CFI 9dbc .cfa: x29 96 +
STACK CFI a41c .cfa: sp 240 +
STACK CFI a438 .cfa: sp 0 +
STACK CFI a43c .cfa: x29 96 +
STACK CFI INIT a58c 848 .cfa: sp 0 +
STACK CFI a590 .cfa: sp 256 +
STACK CFI a5ac .cfa: x29 96 + x19: .cfa -8 + ^ x20: .cfa -16 + ^ x21: .cfa -24 + ^ x22: .cfa -32 + ^ x23: .cfa -40 + ^ x24: .cfa -48 + ^ x25: .cfa -56 + ^ x26: .cfa -64 + ^ x27: .cfa -80 + ^ .ra: .cfa -88 + ^ x29: .cfa -96 + ^
STACK CFI ab64 .cfa: sp 256 +
STACK CFI ab80 .cfa: sp 0 +
STACK CFI ab84 .cfa: x29 96 +
STACK CFI INIT ae24 74 .cfa: sp 0 +
STACK CFI ae28 .cfa: sp 48 +
STACK CFI ae34 .cfa: x29 32 + x19: .cfa -8 + ^ x20: .cfa -16 + ^ .ra: .cfa -24 + ^ x29: .cfa -32 + ^
STACK CFI ae80 .cfa: sp 48 +
STACK CFI ae8c .cfa: sp 0 +
STACK CFI ae90 .cfa: x29 32 +
STACK CFI INIT af28 154 .cfa: sp 0 +
STACK CFI af2c .cfa: sp 384 +
STACK CFI af40 .cfa: x29 64 + x19: .cfa -8 + ^ x20: .cfa -16 + ^ x21: .cfa -24 + ^ x22: .cfa -32 + ^ x23: .cfa -40 + ^ x28: .cfa -48 + ^ .ra: .cfa -56 + ^ x29: .cfa -64 + ^
STACK CFI b024 .cfa: sp 384 +
STACK CFI b038 .cfa: sp 0 +
STACK CFI b03c .cfa: x29 64 +
STACK CFI INIT b0b0 12c .cfa: sp 0 +
STACK CFI b0b4 .cfa: sp 80 +
STACK CFI b0c8 .cfa: x29 80 + x19: .cfa -8 + ^ x20: .cfa -16 + ^ x21: .cfa -24 + ^ x22: .cfa -32 + ^ x23: .cfa -40 + ^ x24: .cfa -48 + ^ x25: .cfa -56 + ^ x26: .cfa -64 + ^ .ra: .cfa -72 + ^ x29: .cfa -80 + ^
STACK CFI b190 .cfa: sp 80 +
STACK CFI b1a4 .cfa: sp 0 +
STACK CFI b1a8 .cfa: x29 80 +
STACK CFI INIT b280 1a4 .cfa: sp 0 +
STACK CFI b284 .cfa: sp 112 +
STACK CFI b29c .cfa: x29 80 + x19: .cfa -8 + ^ x20: .cfa -16 + ^ x21: .cfa -24 + ^ x22: .cfa -32 + ^ x23: .cfa -40 + ^ x24: .cfa -48 + ^ x25: .cfa -56 + ^ x26: .cfa -64 + ^ .ra: .cfa -72 + ^ x29: .cfa -80 + ^
STACK CFI b38c .cfa: sp 112 +
STACK CFI b3a4 .cfa: sp 0 +
STACK CFI b3a8 .cfa: x29 80 +
STACK CFI INIT b424 1dc .cfa: sp 0 +
STACK CFI b428 .cfa: sp 128 +
STACK CFI b444 .cfa: x29 96 + x19: .cfa -8 + ^ x20: .cfa -16 + ^ x21: .cfa -24 + ^ x22: .cfa -32 + ^ x23: .cfa -40 + ^ x24: .cfa -48 + ^ x25: .cfa -56 + ^ x26: .cfa -64 + ^ x27: .cfa -80 + ^ .ra: .cfa -88 + ^ x29: .cfa -96 + ^
STACK CFI b5b0 .cfa: sp 128 +
STACK CFI b5cc .cfa: sp 0 +
STACK CFI b5d0 .cfa: x29 96 +
STACK CFI INIT b614 50 .cfa: sp 0 +
STACK CFI b618 .cfa: sp 32 +
STACK CFI b620 .cfa: x29 32 + x19: .cfa -8 + ^ x20: .cfa -16 + ^ .ra: .cfa -24 + ^ x29: .cfa -32 + ^
STACK CFI INIT b6c8 178 .cfa: sp 0 +
STACK CFI b6cc .cfa: sp 80 +
STACK CFI b6e0 .cfa: x29 80 + x19: .cfa -8 + ^ x20: .cfa -16 + ^ x21: .cfa -24 + ^ x22: .cfa -32 + ^ x23: .cfa -40 + ^ x24: .cfa -48 + ^ x25: .cfa -64 + ^ .ra: .cfa -72 + ^ x29: .cfa -80 + ^
STACK CFI b80c .cfa: sp 80 +
STACK CFI b820 .cfa: sp 0 +
STACK CFI b824 .cfa: x29 80 +
STACK CFI INIT bf40 640 .cfa: sp 0 +
STACK CFI bf44 .cfa: sp 224 +
STACK CFI bf60 .cfa: x29 96 + x19: .cfa -8 + ^ x20: .cfa -16 + ^ x21: .cfa -24 + ^ x22: .cfa -32 + ^ x23: .cfa -40 + ^ x24: .cfa -48 + ^ x25: .cfa -56 + ^ x26: .cfa -64 + ^ x27: .cfa -72 + ^ x28: .cfa -80 + ^ .ra: .cfa -88 + ^ x29: .cfa -96 + ^
STACK CFI c410 .cfa: sp 224 +
STACK CFI c42c .cfa: sp 0 +
STACK CFI c430 .cfa: x29 96 +
STACK CFI INIT c5b8 50 .cfa: sp 0 +
STACK CFI c5bc .cfa: sp 32 +
STACK CFI c5c4 .cfa: x29 32 + x19: .cfa -8 + ^ x20: .cfa -16 + ^ .ra: .cfa -24 + ^ x29: .cfa -32 + ^
