MODULE Linux arm64 00DE3764DE116203A974D0D25519498D0 spaghettdev.songpreview.android64.so
INFO CODE_ID 6437DE0011DE0362A974D0D25519498D2B9AF965
INFO GENERATOR mozilla/dump_syms 2.3.4
PUBLIC 128e0 0 __on_dlclose
PUBLIC 128f0 0 __emutls_unregister_key
PUBLIC 128f8 0 __on_dlclose_late
PUBLIC 12900 0 __atexit_handler_wrapper
PUBLIC 12914 0 atexit
PUBLIC 12930 0 pthread_atfork
PUBLIC 12940 0 __aarch64_ldadd8_relax
PUBLIC 12970 0 init_have_lse_atomics
PUBLIC 12a08 0 __init_cpu_features_constructor
PUBLIC 12fa4 0 __init_cpu_features
PUBLIC 13030 0 __aarch64_ldadd8_acq_rel
PUBLIC 13060 0 std::__ndk1::__fs::filesystem::path::~path[abi:ne180000]()
PUBLIC 13074 0 std::__ndk1::vector<int, std::__ndk1::allocator<int> >::~vector[abi:ne180000]()
PUBLIC 1308c 0 __cxx_global_var_init.3
PUBLIC 13510 0 geode::modifier::ModifyBase<geode::modifier::ModifyDerive<CustomSongWidgetPlus, CustomSongWidget> >::~ModifyBase()
PUBLIC 13528 0 __cxx_global_var_init.4
PUBLIC 139ac 0 geode::modifier::ModifyBase<geode::modifier::ModifyDerive<CustomSongCellPlus, CustomSongCell> >::~ModifyBase()
PUBLIC 139c4 0 __cxx_global_var_init.5
PUBLIC 13e48 0 geode::modifier::ModifyBase<geode::modifier::ModifyDerive<CustomMusicCellPlus, CustomMusicCell> >::~ModifyBase()
PUBLIC 13e60 0 std::__ndk1::__fs::filesystem::path::operator/=[abi:ne180000](std::__ndk1::__fs::filesystem::path const&)
PUBLIC 13f48 0 std::__ndk1::basic_string<char, std::__ndk1::char_traits<char>, std::__ndk1::allocator<char> >::__init_copy_ctor_external(char const*, unsigned long)
PUBLIC 13fc8 0 std::__ndk1::basic_string<char, std::__ndk1::char_traits<char>, std::__ndk1::allocator<char> >::__throw_length_error[abi:ne180000]() const
PUBLIC 13fdc 0 std::__ndk1::__throw_length_error[abi:ne180000](char const*)
PUBLIC 1402c 0 std::length_error::length_error[abi:ne180000](char const*)
PUBLIC 1405c 0 std::__throw_bad_array_new_length([abi:ne180000], void)
PUBLIC 14090 0 __clang_call_terminate
PUBLIC 140a0 0 std::__ndk1::basic_string<char, std::__ndk1::char_traits<char>, std::__ndk1::allocator<char> >::__assign_no_alias<true>(char const*, unsigned long)
PUBLIC 1414c 0 std::__ndk1::basic_string<char, std::__ndk1::char_traits<char>, std::__ndk1::allocator<char> >::__assign_no_alias<false>(char const*, unsigned long)
PUBLIC 1425c 0 _ZNSt6__ndk112basic_stringIcNS_11char_traitsIcEENS_9allocatorIcEEE6appendB8ne180000IPKcTnNS_9enable_ifIXsr31__has_forward_iterator_categoryIT_EE5valueEiE4typeELi0EEERS5_SA_SA_
PUBLIC 14560 0 geode::modifier::ModifyDerive<CustomSongWidgetPlus, CustomSongWidget>::apply()
PUBLIC 15c1c 0 std::__ndk1::shared_ptr<geode::Hook>::~shared_ptr[abi:ne180000]()
PUBLIC 15c6c 0 geode::impl::ResultData<geode::Hook*, std::__ndk1::basic_string<char, std::__ndk1::char_traits<char>, std::__ndk1::allocator<char> > >::~ResultData()
PUBLIC 15ce0 0 std::__ndk1::vector<std::__ndk1::basic_string<char, std::__ndk1::char_traits<char>, std::__ndk1::allocator<char> >, std::__ndk1::allocator<std::__ndk1::basic_string<char, std::__ndk1::char_traits<char>, std::__ndk1::allocator<char> > > >::~vector[abi:ne180000]()
PUBLIC 15d5c 0 geode::modifier::ModifyBase<geode::modifier::ModifyDerive<CustomSongWidgetPlus, CustomSongWidget> >::apply()
PUBLIC 15d60 0 _ZN5geode15UnwrapExceptionC2IRPNS_4HookEQsr4implE18IsStringStreamableIT_EEENS_4impl5OkTagEOS5_
PUBLIC 15eb4 0 std::__ndk1::__throw_bad_variant_access[abi:ne180000]()
PUBLIC 15ee8 0 std::__ndk1::basic_stringstream<char, std::__ndk1::char_traits<char>, std::__ndk1::allocator<char> >::basic_stringstream[abi:ne180000]()
PUBLIC m 16014 0 std::__ndk1::basic_stringstream<char, std::__ndk1::char_traits<char>, std::__ndk1::allocator<char> >::~basic_stringstream()
PUBLIC 16094 0 geode::UnwrapException::~UnwrapException()
PUBLIC 160b8 0 std::__ndk1::__put_character_sequence[abi:ne180000]<char, std::__ndk1::char_traits<char> >(std::__ndk1::basic_ostream<char, std::__ndk1::char_traits<char> >, std::__ndk1::basic_ostream const*, unsigned long)
PUBLIC 1625c 0 std::__ndk1::__pad_and_output[abi:ne180000]<char, std::__ndk1::char_traits<char> >(std::__ndk1::char_traits<char>, std::__ndk1::ostreambuf_iterator const*, std::__ndk1::ostreambuf_iterator const, std::__ndk1::ostreambuf_iterator const, std::__ndk1::ios_base&, std::__ndk1::ostreambuf_iterator)
PUBLIC 16438 0 std::__ndk1::basic_stringbuf<char, std::__ndk1::char_traits<char>, std::__ndk1::allocator<char> >::str[abi:ne180000]() &&
PUBLIC 165b0 0 std::__ndk1::basic_stringbuf<char, std::__ndk1::char_traits<char>, std::__ndk1::allocator<char> >::__init_buf_ptrs[abi:ne180000]()
PUBLIC 166f8 0 std::__ndk1::vector<std::__ndk1::basic_string<char, std::__ndk1::char_traits<char>, std::__ndk1::allocator<char> >, std::__ndk1::allocator<std::__ndk1::basic_string<char, std::__ndk1::char_traits<char>, std::__ndk1::allocator<char> > > >::__push_back_slow_path<std::__ndk1::basic_string<char, std::__ndk1::char_traits<char>, std::__ndk1::allocator<char> > const&>(std::__ndk1::basic_string<char, std::__ndk1::char_traits<char>, std::__ndk1::allocator<char> > const&)
PUBLIC 1691c 0 std::__ndk1::__split_buffer<std::__ndk1::basic_string<char, std::__ndk1::char_traits<char>, std::__ndk1::allocator<char> >, std::__ndk1::allocator<std::__ndk1::basic_string<char, std::__ndk1::char_traits<char>, std::__ndk1::allocator<char> > >&>::~__split_buffer()
PUBLIC 16984 0 std::__ndk1::vector<std::__ndk1::basic_string<char, std::__ndk1::char_traits<char>, std::__ndk1::allocator<char> >, std::__ndk1::allocator<std::__ndk1::basic_string<char, std::__ndk1::char_traits<char>, std::__ndk1::allocator<char> > > >::__throw_length_error[abi:ne180000]() const
PUBLIC 16998 0 std::__ndk1::__variant_detail::__visitation::__base::__dispatcher<(unsigned long)0>::__dispatch[abi:ne180000]<std::__ndk1::__variant_detail::__dtor<std::__ndk1::__variant_detail::__traits<geode::Hook*, std::__ndk1::basic_string<char, std::__ndk1::char_traits<char>, std::__ndk1::allocator<char> > >, (std::__ndk1::__variant_detail::_Trait)1>::__destroy[abi:ne180000]()::{lambda(auto:1&)#1}, std::__ndk1::__variant_detail::__base<(std::__ndk1::__variant_detail::__traits<geode::Hook*, std::__ndk1::basic_string<char, std::__ndk1::char_traits<char>, std::__ndk1::allocator<char> > >)1, geode::Hook, std::__ndk1::allocator<char> >&>(std::__ndk1::__variant_detail::__dtor<std::__ndk1::__variant_detail::__traits<geode::Hook*, std::__ndk1::basic_string<char, std::__ndk1::char_traits<char>, std::__ndk1::allocator<char> > >, (std::__ndk1::__variant_detail::_Trait)1>, std::__ndk1::__variant_detail::__base<(std::__ndk1::__variant_detail::__traits<geode::Hook*, std::__ndk1::basic_string<char, std::__ndk1::char_traits<char>, std::__ndk1::allocator<char> > >)1, geode::Hook, std::__ndk1::allocator<char> >&)
PUBLIC 1699c 0 std::__ndk1::__variant_detail::__visitation::__base::__dispatcher<(unsigned long)1>::__dispatch[abi:ne180000]<std::__ndk1::__variant_detail::__dtor<std::__ndk1::__variant_detail::__traits<geode::Hook*, std::__ndk1::basic_string<char, std::__ndk1::char_traits<char>, std::__ndk1::allocator<char> > >, (std::__ndk1::__variant_detail::_Trait)1>::__destroy[abi:ne180000]()::{lambda(auto:1&)#1}, std::__ndk1::__variant_detail::__base<(std::__ndk1::__variant_detail::__traits<geode::Hook*, std::__ndk1::basic_string<char, std::__ndk1::char_traits<char>, std::__ndk1::allocator<char> > >)1, geode::Hook, std::__ndk1::allocator<char> >&>(std::__ndk1::__variant_detail::__dtor<std::__ndk1::__variant_detail::__traits<geode::Hook*, std::__ndk1::basic_string<char, std::__ndk1::char_traits<char>, std::__ndk1::allocator<char> > >, (std::__ndk1::__variant_detail::_Trait)1>, std::__ndk1::__variant_detail::__base<(std::__ndk1::__variant_detail::__traits<geode::Hook*, std::__ndk1::basic_string<char, std::__ndk1::char_traits<char>, std::__ndk1::allocator<char> > >)1, geode::Hook, std::__ndk1::allocator<char> >&)
PUBLIC 169b0 0 std::__ndk1::__tree<std::__ndk1::__value_type<std::__ndk1::basic_string<char, std::__ndk1::char_traits<char>, std::__ndk1::allocator<char> >, std::__ndk1::shared_ptr<geode::Hook> >, std::__ndk1::__map_value_compare<std::__ndk1::basic_string<char, std::__ndk1::char_traits<char>, std::__ndk1::allocator<char> >, std::__ndk1::__value_type<std::__ndk1::basic_string<char, std::__ndk1::char_traits<char>, std::__ndk1::allocator<char> >, std::__ndk1::shared_ptr<geode::Hook> >, std::__ndk1::less<std::__ndk1::basic_string<char, std::__ndk1::char_traits<char>, std::__ndk1::allocator<char> > >, true>, std::__ndk1::allocator<std::__ndk1::__value_type<std::__ndk1::basic_string<char, std::__ndk1::char_traits<char>, std::__ndk1::allocator<char> >, std::__ndk1::shared_ptr<geode::Hook> > > >::find<std::__ndk1::basic_string<char, std::__ndk1::char_traits<char>, std::__ndk1::allocator<char> > >(std::__ndk1::basic_string<char, std::__ndk1::char_traits<char>, std::__ndk1::allocator<char> > const&)
PUBLIC 16ad0 0 std::__ndk1::__tree<std::__ndk1::__value_type<std::__ndk1::basic_string<char, std::__ndk1::char_traits<char>, std::__ndk1::allocator<char> >, std::__ndk1::shared_ptr<geode::Hook> >, std::__ndk1::__map_value_compare<std::__ndk1::basic_string<char, std::__ndk1::char_traits<char>, std::__ndk1::allocator<char> >, std::__ndk1::__value_type<std::__ndk1::basic_string<char, std::__ndk1::char_traits<char>, std::__ndk1::allocator<char> >, std::__ndk1::shared_ptr<geode::Hook> >, std::__ndk1::less<std::__ndk1::basic_string<char, std::__ndk1::char_traits<char>, std::__ndk1::allocator<char> > >, true>, std::__ndk1::allocator<std::__ndk1::__value_type<std::__ndk1::basic_string<char, std::__ndk1::char_traits<char>, std::__ndk1::allocator<char> >, std::__ndk1::shared_ptr<geode::Hook> > > >::erase(std::__ndk1::__tree_const_iterator<std::__ndk1::__value_type<std::__ndk1::basic_string<char, std::__ndk1::char_traits<char>, std::__ndk1::allocator<char> >, std::__ndk1::shared_ptr<geode::Hook> >, std::__ndk1::__tree_node<std::__ndk1::__value_type<std::__ndk1::basic_string<char, std::__ndk1::char_traits<char>, std::__ndk1::allocator<char> >, std::__ndk1::shared_ptr<geode::Hook> >, void*>*, long>)
PUBLIC 16f74 0 std::__ndk1::__tree<std::__ndk1::__value_type<std::__ndk1::basic_string<char, std::__ndk1::char_traits<char>, std::__ndk1::allocator<char> >, std::__ndk1::shared_ptr<geode::Hook> >, std::__ndk1::__map_value_compare<std::__ndk1::basic_string<char, std::__ndk1::char_traits<char>, std::__ndk1::allocator<char> >, std::__ndk1::__value_type<std::__ndk1::basic_string<char, std::__ndk1::char_traits<char>, std::__ndk1::allocator<char> >, std::__ndk1::shared_ptr<geode::Hook> >, std::__ndk1::less<std::__ndk1::basic_string<char, std::__ndk1::char_traits<char>, std::__ndk1::allocator<char> > >, true>, std::__ndk1::allocator<std::__ndk1::__value_type<std::__ndk1::basic_string<char, std::__ndk1::char_traits<char>, std::__ndk1::allocator<char> >, std::__ndk1::shared_ptr<geode::Hook> > > >::destroy(std::__ndk1::__tree_node<std::__ndk1::__value_type<std::__ndk1::basic_string<char, std::__ndk1::char_traits<char>, std::__ndk1::allocator<char> >, std::__ndk1::shared_ptr<geode::Hook> >, void*>*)
PUBLIC 16ff8 0 geode::modifier::AsStaticFunction_init<CustomSongWidgetPlus, bool (CustomSongWidgetPlus::*)(SongInfoObject*, CustomSongDelegate*, bool, bool, bool, bool, bool, bool, int)>::Impl<bool (CustomSongWidgetPlus::*)(SongInfoObject*, CustomSongDelegate*, bool, bool, bool, bool, bool, bool, int)>::function(CustomSongWidgetPlus*, SongInfoObject*, CustomSongDelegate*, bool, bool, bool, bool, bool, bool, int)
PUBLIC 173b0 0 geode::modifier::AsStaticFunction_onPlayback<CustomSongWidgetPlus, void (CustomSongWidgetPlus::*)(cocos2d::CCObject*)>::Impl<void (CustomSongWidgetPlus::*)(cocos2d::CCObject*)>::function(CustomSongWidgetPlus*, cocos2d::CCObject*)
PUBLIC 17a4c 0 geode::Hook::create<void (*)(CustomSongWidgetPlus*)>(void*, void (*)(CustomSongWidgetPlus*), std::__ndk1::basic_string<char, std::__ndk1::char_traits<char>, std::__ndk1::allocator<char> > const&, tulip::hook::TulipConvention, tulip::hook::HookMetadata const&)
PUBLIC 17b80 0 geode::modifier::AsStaticFunction_updatePlaybackBtn<CustomSongWidgetPlus, void (CustomSongWidgetPlus::*)()>::Impl<void (CustomSongWidgetPlus::*)()>::function(CustomSongWidgetPlus*)
PUBLIC 17b84 0 geode::modifier::AsStaticFunction_updateSongInfo<CustomSongWidgetPlus, void (CustomSongWidgetPlus::*)()>::Impl<void (CustomSongWidgetPlus::*)()>::function(CustomSongWidgetPlus*)
PUBLIC 17bb4 0 geode::modifier::AsStaticFunction_updateWithMultiAssets<CustomSongWidgetPlus, void (CustomSongWidgetPlus::*)(gd::string, gd::string, int)>::Impl<void (CustomSongWidgetPlus::*)(gd::string, gd::string, int)>::function(CustomSongWidgetPlus*, gd::string, gd::string, int)
PUBLIC 17d10 0 std::__ndk1::shared_ptr<tulip::hook::CallingConvention>::~shared_ptr[abi:ne180000]()
PUBLIC 17d60 0 tulip::hook::HandlerMetadata::~HandlerMetadata()
PUBLIC 17dc4 0 std::__ndk1::vector<tulip::hook::AbstractType, std::__ndk1::allocator<tulip::hook::AbstractType> >::__throw_length_error[abi:ne180000]() const
PUBLIC 17dd8 0 geode::modifier::FieldIntermediate<CustomSongWidgetPlus, CustomSongWidget>::self()
PUBLIC 184b8 0 geode::modifier::FieldIntermediate<CustomSongWidgetPlus, CustomSongWidget>::fieldDestructor(void*)
PUBLIC 18580 0 std::__ndk1::vector<void*, std::__ndk1::allocator<void*> >::__throw_length_error[abi:ne180000]() const
PUBLIC 18594 0 std::__ndk1::vector<std::__ndk1::function<void (void*)>, std::__ndk1::allocator<std::__ndk1::function<void (void*)> > >::__throw_length_error[abi:ne180000]() const
PUBLIC 185a8 0 std::__ndk1::vector<void*, std::__ndk1::allocator<void*> >::__throw_out_of_range[abi:ne180000]() const
PUBLIC 185b4 0 std::__ndk1::__throw_out_of_range[abi:ne180000](char const*)
PUBLIC 18604 0 std::out_of_range::out_of_range[abi:ne180000](char const*)
PUBLIC 18634 0 std::__ndk1::vector<std::__ndk1::function<void (void*)>, std::__ndk1::allocator<std::__ndk1::function<void (void*)> > >::__throw_out_of_range[abi:ne180000]() const
PUBLIC 18640 0 geode::EventListener<geode::Task<geode::utils::web::WebResponse, geode::utils::web::WebProgress> >::~EventListener()
PUBLIC 186dc 0 geode::Task<geode::utils::web::WebResponse, geode::utils::web::WebProgress>::~Task()
PUBLIC 1872c 0 geode::EventListener<geode::Task<geode::utils::web::WebResponse, geode::utils::web::WebProgress> >::getPool() const
PUBLIC 18730 0 geode::EventListener<geode::Task<geode::utils::web::WebResponse, geode::utils::web::WebProgress> >::handle(geode::Event*)
PUBLIC 188dc 0 geode::EventListener<geode::Task<geode::utils::web::WebResponse, geode::utils::web::WebProgress> >::~EventListener()
PUBLIC 18980 0 geode::cast::traverseTypeinfoFor(void*, geode::cast::ClassTypeinfoType const*, char const*)
PUBLIC 18a78 0 std::__ndk1::__throw_bad_function_call[abi:ne180000]()
PUBLIC 18aac 0 std::__ndk1::bad_function_call::~bad_function_call()
PUBLIC 18ad0 0 std::__ndk1::__function::__base<void (void*)>::~__base()
PUBLIC 18ad4 0 std::__ndk1::__function::__func<void (*)(void*), std::__ndk1::allocator<void (*)(void*)>, void (void*)>::~__func()
PUBLIC 18ad8 0 std::__ndk1::__function::__func<void (*)(void*), std::__ndk1::allocator<void (*)(void*)>, void (void*)>::__clone() const
PUBLIC 18b10 0 std::__ndk1::__function::__func<void (*)(void*), std::__ndk1::allocator<void (*)(void*)>, void (void*)>::__clone(std::__ndk1::__function::__base<void (void*)>*) const
PUBLIC 18b28 0 std::__ndk1::__function::__func<void (*)(void*), std::__ndk1::allocator<void (*)(void*)>, void (void*)>::destroy()
PUBLIC 18b2c 0 std::__ndk1::__function::__func<void (*)(void*), std::__ndk1::allocator<void (*)(void*)>, void (void*)>::destroy_deallocate()
PUBLIC 18b30 0 std::__ndk1::__function::__func<void (*)(void*), std::__ndk1::allocator<void (*)(void*)>, void (void*)>::operator()(void*&&)
PUBLIC 18b40 0 std::__ndk1::__function::__func<void (*)(void*), std::__ndk1::allocator<void (*)(void*)>, void (void*)>::target(std::type_info const&) const
PUBLIC 18b5c 0 std::__ndk1::__function::__func<void (*)(void*), std::__ndk1::allocator<void (*)(void*)>, void (void*)>::target_type() const
PUBLIC 18b68 0 geode::Task<geode::utils::web::WebResponse, geode::utils::web::WebProgress>::setListener(geode::EventListenerProtocol*)
PUBLIC 18d6c 0 geode::Task<geode::utils::web::WebResponse, geode::utils::web::WebProgress>::setListener(geode::EventListenerProtocol*)::{lambda()#1}::~{lambda()#1}()
PUBLIC 18dbc 0 geode::Task<geode::utils::web::WebResponse, geode::utils::web::WebProgress>::setListener(geode::EventListenerProtocol*)::{lambda()#2}::~{lambda()#2}()
PUBLIC 18e0c 0 std::__ndk1::__function::__func<geode::Task<geode::utils::web::WebResponse, geode::utils::web::WebProgress>::setListener(geode::EventListenerProtocol*)::{lambda()#1}, std::__ndk1::allocator<geode::Task<geode::utils::web::WebResponse, geode::utils::web::WebProgress>::setListener(geode::EventListenerProtocol*)::{lambda()#1}>, void ()>::~__func()
PUBLIC 18e68 0 std::__ndk1::__function::__func<geode::Task<geode::utils::web::WebResponse, geode::utils::web::WebProgress>::setListener(geode::EventListenerProtocol*)::{lambda()#1}, std::__ndk1::allocator<geode::Task<geode::utils::web::WebResponse, geode::utils::web::WebProgress>::setListener(geode::EventListenerProtocol*)::{lambda()#1}>, void ()>::~__func()
PUBLIC 18ed4 0 std::__ndk1::__function::__func<geode::Task<geode::utils::web::WebResponse, geode::utils::web::WebProgress>::setListener(geode::EventListenerProtocol*)::{lambda()#1}, std::__ndk1::allocator<geode::Task<geode::utils::web::WebResponse, geode::utils::web::WebProgress>::setListener(geode::EventListenerProtocol*)::{lambda()#1}>, void ()>::__clone() const
PUBLIC 18f2c 0 std::__ndk1::__function::__func<geode::Task<geode::utils::web::WebResponse, geode::utils::web::WebProgress>::setListener(geode::EventListenerProtocol*)::{lambda()#1}, std::__ndk1::allocator<geode::Task<geode::utils::web::WebResponse, geode::utils::web::WebProgress>::setListener(geode::EventListenerProtocol*)::{lambda()#1}>, void ()>::__clone(std::__ndk1::__function::__base<void ()>*) const
PUBLIC 18f78 0 std::__ndk1::__function::__func<geode::Task<geode::utils::web::WebResponse, geode::utils::web::WebProgress>::setListener(geode::EventListenerProtocol*)::{lambda()#1}, std::__ndk1::allocator<geode::Task<geode::utils::web::WebResponse, geode::utils::web::WebProgress>::setListener(geode::EventListenerProtocol*)::{lambda()#1}>, void ()>::destroy()
PUBLIC 18fc8 0 std::__ndk1::__function::__func<geode::Task<geode::utils::web::WebResponse, geode::utils::web::WebProgress>::setListener(geode::EventListenerProtocol*)::{lambda()#1}, std::__ndk1::allocator<geode::Task<geode::utils::web::WebResponse, geode::utils::web::WebProgress>::setListener(geode::EventListenerProtocol*)::{lambda()#1}>, void ()>::destroy_deallocate()
PUBLIC 19028 0 std::__ndk1::__function::__func<geode::Task<geode::utils::web::WebResponse, geode::utils::web::WebProgress>::setListener(geode::EventListenerProtocol*)::{lambda()#1}, std::__ndk1::allocator<geode::Task<geode::utils::web::WebResponse, geode::utils::web::WebProgress>::setListener(geode::EventListenerProtocol*)::{lambda()#1}>, void ()>::operator()()
PUBLIC 191f8 0 std::__ndk1::__function::__func<geode::Task<geode::utils::web::WebResponse, geode::utils::web::WebProgress>::setListener(geode::EventListenerProtocol*)::{lambda()#1}, std::__ndk1::allocator<geode::Task<geode::utils::web::WebResponse, geode::utils::web::WebProgress>::setListener(geode::EventListenerProtocol*)::{lambda()#1}>, void ()>::target(std::type_info const&) const
PUBLIC 19214 0 std::__ndk1::__function::__func<geode::Task<geode::utils::web::WebResponse, geode::utils::web::WebProgress>::setListener(geode::EventListenerProtocol*)::{lambda()#1}, std::__ndk1::allocator<geode::Task<geode::utils::web::WebResponse, geode::utils::web::WebProgress>::setListener(geode::EventListenerProtocol*)::{lambda()#1}>, void ()>::target_type() const
PUBLIC 19220 0 geode::Task<geode::utils::web::WebResponse, geode::utils::web::WebProgress>::Event::~Event()
PUBLIC 19280 0 geode::Task<geode::utils::web::WebResponse, geode::utils::web::WebProgress>::Event::~Event()
PUBLIC 192f0 0 std::__ndk1::__function::__func<geode::Task<geode::utils::web::WebResponse, geode::utils::web::WebProgress>::setListener(geode::EventListenerProtocol*)::{lambda()#2}, std::__ndk1::allocator<geode::Task<geode::utils::web::WebResponse, geode::utils::web::WebProgress>::setListener(geode::EventListenerProtocol*)::{lambda()#2}>, void ()>::~__func()
PUBLIC 1934c 0 std::__ndk1::__function::__func<geode::Task<geode::utils::web::WebResponse, geode::utils::web::WebProgress>::setListener(geode::EventListenerProtocol*)::{lambda()#2}, std::__ndk1::allocator<geode::Task<geode::utils::web::WebResponse, geode::utils::web::WebProgress>::setListener(geode::EventListenerProtocol*)::{lambda()#2}>, void ()>::~__func()
PUBLIC 193b8 0 std::__ndk1::__function::__func<geode::Task<geode::utils::web::WebResponse, geode::utils::web::WebProgress>::setListener(geode::EventListenerProtocol*)::{lambda()#2}, std::__ndk1::allocator<geode::Task<geode::utils::web::WebResponse, geode::utils::web::WebProgress>::setListener(geode::EventListenerProtocol*)::{lambda()#2}>, void ()>::__clone() const
PUBLIC 19410 0 std::__ndk1::__function::__func<geode::Task<geode::utils::web::WebResponse, geode::utils::web::WebProgress>::setListener(geode::EventListenerProtocol*)::{lambda()#2}, std::__ndk1::allocator<geode::Task<geode::utils::web::WebResponse, geode::utils::web::WebProgress>::setListener(geode::EventListenerProtocol*)::{lambda()#2}>, void ()>::__clone(std::__ndk1::__function::__base<void ()>*) const
PUBLIC 1945c 0 std::__ndk1::__function::__func<geode::Task<geode::utils::web::WebResponse, geode::utils::web::WebProgress>::setListener(geode::EventListenerProtocol*)::{lambda()#2}, std::__ndk1::allocator<geode::Task<geode::utils::web::WebResponse, geode::utils::web::WebProgress>::setListener(geode::EventListenerProtocol*)::{lambda()#2}>, void ()>::destroy()
PUBLIC 194ac 0 std::__ndk1::__function::__func<geode::Task<geode::utils::web::WebResponse, geode::utils::web::WebProgress>::setListener(geode::EventListenerProtocol*)::{lambda()#2}, std::__ndk1::allocator<geode::Task<geode::utils::web::WebResponse, geode::utils::web::WebProgress>::setListener(geode::EventListenerProtocol*)::{lambda()#2}>, void ()>::destroy_deallocate()
PUBLIC 1950c 0 std::__ndk1::__function::__func<geode::Task<geode::utils::web::WebResponse, geode::utils::web::WebProgress>::setListener(geode::EventListenerProtocol*)::{lambda()#2}, std::__ndk1::allocator<geode::Task<geode::utils::web::WebResponse, geode::utils::web::WebProgress>::setListener(geode::EventListenerProtocol*)::{lambda()#2}>, void ()>::operator()()
PUBLIC 196d0 0 std::__ndk1::__function::__func<geode::Task<geode::utils::web::WebResponse, geode::utils::web::WebProgress>::setListener(geode::EventListenerProtocol*)::{lambda()#2}, std::__ndk1::allocator<geode::Task<geode::utils::web::WebResponse, geode::utils::web::WebProgress>::setListener(geode::EventListenerProtocol*)::{lambda()#2}>, void ()>::target(std::type_info const&) const
PUBLIC 196ec 0 std::__ndk1::__function::__func<geode::Task<geode::utils::web::WebResponse, geode::utils::web::WebProgress>::setListener(geode::EventListenerProtocol*)::{lambda()#2}, std::__ndk1::allocator<geode::Task<geode::utils::web::WebResponse, geode::utils::web::WebProgress>::setListener(geode::EventListenerProtocol*)::{lambda()#2}>, void ()>::target_type() const
PUBLIC 196f8 0 std::__ndk1::__tree<std::__ndk1::__value_type<std::__ndk1::basic_string<char, std::__ndk1::char_traits<char>, std::__ndk1::allocator<char> >, std::__ndk1::shared_ptr<geode::Hook> >, std::__ndk1::__map_value_compare<std::__ndk1::basic_string<char, std::__ndk1::char_traits<char>, std::__ndk1::allocator<char> >, std::__ndk1::__value_type<std::__ndk1::basic_string<char, std::__ndk1::char_traits<char>, std::__ndk1::allocator<char> >, std::__ndk1::shared_ptr<geode::Hook> >, std::__ndk1::less<std::__ndk1::basic_string<char, std::__ndk1::char_traits<char>, std::__ndk1::allocator<char> > >, true>, std::__ndk1::allocator<std::__ndk1::__value_type<std::__ndk1::basic_string<char, std::__ndk1::char_traits<char>, std::__ndk1::allocator<char> >, std::__ndk1::shared_ptr<geode::Hook> > > >::__emplace_unique_key_args<std::__ndk1::basic_string<char, std::__ndk1::char_traits<char>, std::__ndk1::allocator<char> >, std::__ndk1::piecewise_construct_t const&, std::__ndk1::tuple<std::__ndk1::basic_string<char, std::__ndk1::char_traits<char>, std::__ndk1::allocator<char> >&&>, std::__ndk1::tuple<> >(std::__ndk1::basic_string<char, std::__ndk1::char_traits<char>, std::__ndk1::allocator<char> > const&, std::__ndk1::piecewise_construct_t const&, std::__ndk1::tuple<std::__ndk1::basic_string<char, std::__ndk1::char_traits<char>, std::__ndk1::allocator<char> >&&>, std::__ndk1::tuple<>)
PUBLIC 19860 0 std::__ndk1::__tree_balance_after_insert[abi:ne180000]<std::__ndk1::__tree_node_base<void*>*>(std::__ndk1::__tree_node_base<void*>*, std::__ndk1::__tree_node_base<void*>*)
PUBLIC 19a10 0 SP::isSongDownloaded(unsigned int)
PUBLIC 19b40 0 SP::playSong(std::__ndk1::__fs::filesystem::path const&)
PUBLIC 19c34 0 CustomSongWidgetPlus::getSongFilePath()
PUBLIC 19ef8 0 CustomSongWidgetPlus::updatePlaybackBtn()
PUBLIC 1a110 0 std::__ndk1::__function::__base<void (geode::Task<geode::utils::web::WebResponse, geode::utils::web::WebProgress>::Event*)>::~__base()
PUBLIC 1a114 0 std::__ndk1::__function::__func<CustomSongWidgetPlus::fetchAndPlaySnippet()::{lambda(geode::Task<geode::utils::web::WebResponse, geode::utils::web::WebProgress>::Event*)#1}, std::__ndk1::allocator<CustomSongWidgetPlus::fetchAndPlaySnippet()::{lambda(geode::Task<geode::utils::web::WebResponse, geode::utils::web::WebProgress>::Event*)#1}>, void (geode::Task<geode::utils::web::WebResponse, geode::utils::web::WebProgress>::Event*)>::~__func()
PUBLIC 1a118 0 std::__ndk1::__function::__func<CustomSongWidgetPlus::fetchAndPlaySnippet()::{lambda(geode::Task<geode::utils::web::WebResponse, geode::utils::web::WebProgress>::Event*)#1}, std::__ndk1::allocator<CustomSongWidgetPlus::fetchAndPlaySnippet()::{lambda(geode::Task<geode::utils::web::WebResponse, geode::utils::web::WebProgress>::Event*)#1}>, void (geode::Task<geode::utils::web::WebResponse, geode::utils::web::WebProgress>::Event*)>::__clone() const
PUBLIC 1a14c 0 std::__ndk1::__function::__func<CustomSongWidgetPlus::fetchAndPlaySnippet()::{lambda(geode::Task<geode::utils::web::WebResponse, geode::utils::web::WebProgress>::Event*)#1}, std::__ndk1::allocator<CustomSongWidgetPlus::fetchAndPlaySnippet()::{lambda(geode::Task<geode::utils::web::WebResponse, geode::utils::web::WebProgress>::Event*)#1}>, void (geode::Task<geode::utils::web::WebResponse, geode::utils::web::WebProgress>::Event*)>::__clone(std::__ndk1::__function::__base<void (geode::Task<geode::utils::web::WebResponse, geode::utils::web::WebProgress>::Event*)>*) const
PUBLIC 1a160 0 std::__ndk1::__function::__func<CustomSongWidgetPlus::fetchAndPlaySnippet()::{lambda(geode::Task<geode::utils::web::WebResponse, geode::utils::web::WebProgress>::Event*)#1}, std::__ndk1::allocator<CustomSongWidgetPlus::fetchAndPlaySnippet()::{lambda(geode::Task<geode::utils::web::WebResponse, geode::utils::web::WebProgress>::Event*)#1}>, void (geode::Task<geode::utils::web::WebResponse, geode::utils::web::WebProgress>::Event*)>::destroy()
PUBLIC 1a164 0 std::__ndk1::__function::__func<CustomSongWidgetPlus::fetchAndPlaySnippet()::{lambda(geode::Task<geode::utils::web::WebResponse, geode::utils::web::WebProgress>::Event*)#1}, std::__ndk1::allocator<CustomSongWidgetPlus::fetchAndPlaySnippet()::{lambda(geode::Task<geode::utils::web::WebResponse, geode::utils::web::WebProgress>::Event*)#1}>, void (geode::Task<geode::utils::web::WebResponse, geode::utils::web::WebProgress>::Event*)>::destroy_deallocate()
PUBLIC 1a168 0 std::__ndk1::__function::__func<CustomSongWidgetPlus::fetchAndPlaySnippet()::{lambda(geode::Task<geode::utils::web::WebResponse, geode::utils::web::WebProgress>::Event*)#1}, std::__ndk1::allocator<CustomSongWidgetPlus::fetchAndPlaySnippet()::{lambda(geode::Task<geode::utils::web::WebResponse, geode::utils::web::WebProgress>::Event*)#1}>, void (geode::Task<geode::utils::web::WebResponse, geode::utils::web::WebProgress>::Event*)>::operator()(geode::Task<geode::utils::web::WebResponse, geode::utils::web::WebProgress>::Event*&&)
PUBLIC 1a6ec 0 std::__ndk1::__function::__func<CustomSongWidgetPlus::fetchAndPlaySnippet()::{lambda(geode::Task<geode::utils::web::WebResponse, geode::utils::web::WebProgress>::Event*)#1}, std::__ndk1::allocator<CustomSongWidgetPlus::fetchAndPlaySnippet()::{lambda(geode::Task<geode::utils::web::WebResponse, geode::utils::web::WebProgress>::Event*)#1}>, void (geode::Task<geode::utils::web::WebResponse, geode::utils::web::WebProgress>::Event*)>::target(std::type_info const&) const
PUBLIC 1a708 0 std::__ndk1::__function::__func<CustomSongWidgetPlus::fetchAndPlaySnippet()::{lambda(geode::Task<geode::utils::web::WebResponse, geode::utils::web::WebProgress>::Event*)#1}, std::__ndk1::allocator<CustomSongWidgetPlus::fetchAndPlaySnippet()::{lambda(geode::Task<geode::utils::web::WebResponse, geode::utils::web::WebProgress>::Event*)#1}>, void (geode::Task<geode::utils::web::WebResponse, geode::utils::web::WebProgress>::Event*)>::target_type() const
PUBLIC 1a714 0 geode::impl::ResultData<void, std::__ndk1::basic_string<char, std::__ndk1::char_traits<char>, std::__ndk1::allocator<char> > >::~ResultData()
PUBLIC 1a788 0 std::__ndk1::vector<int, std::__ndk1::allocator<int> >::__throw_length_error[abi:ne180000]() const
PUBLIC 1a79c 0 std::__ndk1::__variant_detail::__visitation::__base::__dispatcher<(unsigned long)0>::__dispatch[abi:ne180000]<std::__ndk1::__variant_detail::__dtor<std::__ndk1::__variant_detail::__traits<std::__ndk1::monostate, std::__ndk1::basic_string<char, std::__ndk1::char_traits<char>, std::__ndk1::allocator<char> > >, (std::__ndk1::__variant_detail::_Trait)1>::__destroy[abi:ne180000]()::{lambda(auto:1&)#1}, std::__ndk1::__variant_detail::__base<(std::__ndk1::__variant_detail::__traits<std::__ndk1::monostate, std::__ndk1::basic_string<char, std::__ndk1::char_traits<char>, std::__ndk1::allocator<char> > >)1, std::__ndk1::__variant_detail::__traits, std::__ndk1::allocator<char> >&>(std::__ndk1::__variant_detail::__dtor<std::__ndk1::__variant_detail::__traits<std::__ndk1::monostate, std::__ndk1::basic_string<char, std::__ndk1::char_traits<char>, std::__ndk1::allocator<char> > >, (std::__ndk1::__variant_detail::_Trait)1>, std::__ndk1::__variant_detail::__base<(std::__ndk1::__variant_detail::__traits<std::__ndk1::monostate, std::__ndk1::basic_string<char, std::__ndk1::char_traits<char>, std::__ndk1::allocator<char> > >)1, std::__ndk1::__variant_detail::__traits, std::__ndk1::allocator<char> >&)
PUBLIC 1a7a0 0 std::__ndk1::__variant_detail::__visitation::__base::__dispatcher<(unsigned long)1>::__dispatch[abi:ne180000]<std::__ndk1::__variant_detail::__dtor<std::__ndk1::__variant_detail::__traits<std::__ndk1::monostate, std::__ndk1::basic_string<char, std::__ndk1::char_traits<char>, std::__ndk1::allocator<char> > >, (std::__ndk1::__variant_detail::_Trait)1>::__destroy[abi:ne180000]()::{lambda(auto:1&)#1}, std::__ndk1::__variant_detail::__base<(std::__ndk1::__variant_detail::__traits<std::__ndk1::monostate, std::__ndk1::basic_string<char, std::__ndk1::char_traits<char>, std::__ndk1::allocator<char> > >)1, std::__ndk1::__variant_detail::__traits, std::__ndk1::allocator<char> >&>(std::__ndk1::__variant_detail::__dtor<std::__ndk1::__variant_detail::__traits<std::__ndk1::monostate, std::__ndk1::basic_string<char, std::__ndk1::char_traits<char>, std::__ndk1::allocator<char> > >, (std::__ndk1::__variant_detail::_Trait)1>, std::__ndk1::__variant_detail::__base<(std::__ndk1::__variant_detail::__traits<std::__ndk1::monostate, std::__ndk1::basic_string<char, std::__ndk1::char_traits<char>, std::__ndk1::allocator<char> > >)1, std::__ndk1::__variant_detail::__traits, std::__ndk1::allocator<char> >&)
PUBLIC 1a7b4 0 geode::modifier::ModifyDerive<CustomSongCellPlus, CustomSongCell>::apply()
PUBLIC 1ab28 0 geode::modifier::ModifyBase<geode::modifier::ModifyDerive<CustomSongCellPlus, CustomSongCell> >::apply()
PUBLIC 1ab2c 0 geode::modifier::AsStaticFunction_loadFromObject<CustomSongCellPlus, void (CustomSongCellPlus::*)(SongInfoObject*)>::Impl<void (CustomSongCellPlus::*)(SongInfoObject*)>::function(CustomSongCellPlus*, SongInfoObject*)
PUBLIC 1ac5c 0 geode::modifier::ModifyDerive<CustomMusicCellPlus, CustomMusicCell>::apply()
PUBLIC 1afd0 0 geode::modifier::ModifyBase<geode::modifier::ModifyDerive<CustomMusicCellPlus, CustomMusicCell> >::apply()
PUBLIC 1afd4 0 geode::modifier::AsStaticFunction_loadFromObject<CustomMusicCellPlus, void (CustomMusicCellPlus::*)(SongInfoObject*)>::Impl<void (CustomMusicCellPlus::*)(SongInfoObject*)>::function(CustomMusicCellPlus*, SongInfoObject*)
PUBLIC 1b104 0 std::__ndk1::__fs::filesystem::directory_iterator::~directory_iterator[abi:ne180000]()
PUBLIC 1b154 0 _GLOBAL__sub_I_main.cpp
PUBLIC 1b404 0 SPLoadingCircle::create()
PUBLIC 1b4ec 0 SPLoadingCircle::init()
PUBLIC 1b568 0 cocos2d::CCCopying::copyWithZone(cocos2d::CCZone*)
PUBLIC 1b570 0 SPLoadingCircle::~SPLoadingCircle()
PUBLIC 1b594 0 cocos2d::CCSprite::setBlendFunc(cocos2d::_ccBlendFunc)
PUBLIC 1b5a0 0 cocos2d::CCSprite::getBlendFunc()
PUBLIC 1b5ac 0 cocos2d::CCSprite::isDirty()
PUBLIC 1b5b4 0 cocos2d::CCSprite::setDirty(bool)
PUBLIC 1b5bc 0 {virtual override thunk({offset(-344)}, cocos2d::CCSprite::setBlendFunc(cocos2d::_ccBlendFunc))}
PUBLIC 1b5c4 0 {virtual override thunk({offset(-344)}, cocos2d::CCSprite::getBlendFunc())}
PUBLIC m 1b5cc 0 geodeImplicitEntry
PUBLIC 1b608 0 cocos2d::CCDestructor::~CCDestructor()
PUBLIC 1b8c4 0 wrapFunction(unsigned long, tulip::hook::WrapperMetadata const&)
PUBLIC 1b9f8 0 geode::impl::ResultData<void*, std::__ndk1::basic_string<char, std::__ndk1::char_traits<char>, std::__ndk1::allocator<char> > >::unwrapErr() &
PUBLIC 1ba70 0 geode::impl::ResultData<void*, std::__ndk1::basic_string<char, std::__ndk1::char_traits<char>, std::__ndk1::allocator<char> > >::~ResultData()
PUBLIC 1bae4 0 tulip::hook::WrapperMetadata::~WrapperMetadata()
PUBLIC 1bb48 0 cocos2d::CCNodeRGBA::CCNodeRGBA()
PUBLIC 1bcc8 0 cocos2d::CCNode::CCNode()
PUBLIC 1bf5c 0 cocos2d::CCNode::~CCNode()
PUBLIC 1bf80 0 cocos2d::CCObject::~CCObject()
PUBLIC 1bfa4 0 cocos2d::CCNodeRGBA::~CCNodeRGBA()
PUBLIC 1bfc8 0 cocos2d::CCSprite::CCSprite()
PUBLIC 1c170 0 cocos2d::CCSprite::~CCSprite()
PUBLIC 1c194 0 cocos2d::CCNodeRGBA::~CCNodeRGBA()
PUBLIC 1c3c8 0 cocos2d::CCSprite::~CCSprite()
PUBLIC 1c604 0 CustomSongWidget::updateWithMultiAssets(gd::string, gd::string, int)
PUBLIC 1c7b0 0 tulip::hook::AbstractFunction::from<void, CustomSongWidget*, gd::string, gd::string, int>(void (*)(CustomSongWidget*, gd::string, gd::string, int))
PUBLIC 1ca88 0 FMODAudioEngine::isMusicPlaying(gd::string, int)
PUBLIC 1cc18 0 tulip::hook::AbstractFunction::from<bool, FMODAudioEngine*, gd::string, int>(bool (*)(FMODAudioEngine*, gd::string, int))
PUBLIC 1cd1c 0 FMODAudioEngine::playMusic(gd::string, bool, float, int)
PUBLIC 1cebc 0 tulip::hook::AbstractFunction::from<void, FMODAudioEngine*, gd::string, bool, float, int>(void (*)(FMODAudioEngine*, gd::string, bool, float, int))
PUBLIC 1d278 0 cocos2d::CCObject::update(float)
PUBLIC 1d27c 0 cocos2d::CCNodeRGBA::setOpacityModifyRGB(bool)
PUBLIC 1d280 0 cocos2d::CCNodeRGBA::isOpacityModifyRGB()
PUBLIC 1d288 0 {virtual override thunk({offset(-320)}, cocos2d::CCNodeRGBA::setOpacityModifyRGB(bool))}
PUBLIC 1d28c 0 {virtual override thunk({offset(-320)}, cocos2d::CCNodeRGBA::isOpacityModifyRGB())}
PUBLIC 1d294 0 cocos2d::CCNode::~CCNode()
PUBLIC 1d4c0 0 cocos2d::CCObject::~CCObject()
PUBLIC 1d6ec 0 _ZN5geode15UnwrapExceptionC2IRPvQsr4implE18IsStringStreamableIT_EEENS_4impl5OkTagEOS4_
PUBLIC 1d840 0 _ZN5geode15UnwrapExceptionC2IRNSt6__ndk112basic_stringIcNS2_11char_traitsIcEENS2_9allocatorIcEEEEQsr4implE18IsStringStreamableIT_EEENS_4impl6ErrTagEOSA_
PUBLIC 1d9a8 0 std::__ndk1::__variant_detail::__visitation::__base::__dispatcher<(unsigned long)0>::__dispatch[abi:ne180000]<std::__ndk1::__variant_detail::__dtor<std::__ndk1::__variant_detail::__traits<void*, std::__ndk1::basic_string<char, std::__ndk1::char_traits<char>, std::__ndk1::allocator<char> > >, (std::__ndk1::__variant_detail::_Trait)1>::__destroy[abi:ne180000]()::{lambda(auto:1&)#1}, std::__ndk1::__variant_detail::__base<(std::__ndk1::__variant_detail::__traits<void*, std::__ndk1::basic_string<char, std::__ndk1::char_traits<char>, std::__ndk1::allocator<char> > >)1, std::__ndk1::__variant_detail::__traits, std::__ndk1::allocator<char> >&>(std::__ndk1::__variant_detail::__dtor<std::__ndk1::__variant_detail::__traits<void*, std::__ndk1::basic_string<char, std::__ndk1::char_traits<char>, std::__ndk1::allocator<char> > >, (std::__ndk1::__variant_detail::_Trait)1>, std::__ndk1::__variant_detail::__base<(std::__ndk1::__variant_detail::__traits<void*, std::__ndk1::basic_string<char, std::__ndk1::char_traits<char>, std::__ndk1::allocator<char> > >)1, std::__ndk1::__variant_detail::__traits, std::__ndk1::allocator<char> >&)
PUBLIC 1d9ac 0 std::__ndk1::__variant_detail::__visitation::__base::__dispatcher<(unsigned long)1>::__dispatch[abi:ne180000]<std::__ndk1::__variant_detail::__dtor<std::__ndk1::__variant_detail::__traits<void*, std::__ndk1::basic_string<char, std::__ndk1::char_traits<char>, std::__ndk1::allocator<char> > >, (std::__ndk1::__variant_detail::_Trait)1>::__destroy[abi:ne180000]()::{lambda(auto:1&)#1}, std::__ndk1::__variant_detail::__base<(std::__ndk1::__variant_detail::__traits<void*, std::__ndk1::basic_string<char, std::__ndk1::char_traits<char>, std::__ndk1::allocator<char> > >)1, std::__ndk1::__variant_detail::__traits, std::__ndk1::allocator<char> >&>(std::__ndk1::__variant_detail::__dtor<std::__ndk1::__variant_detail::__traits<void*, std::__ndk1::basic_string<char, std::__ndk1::char_traits<char>, std::__ndk1::allocator<char> > >, (std::__ndk1::__variant_detail::_Trait)1>, std::__ndk1::__variant_detail::__base<(std::__ndk1::__variant_detail::__traits<void*, std::__ndk1::basic_string<char, std::__ndk1::char_traits<char>, std::__ndk1::allocator<char> > >)1, std::__ndk1::__variant_detail::__traits, std::__ndk1::allocator<char> >&)
PUBLIC 1d9c0 0 std::__ndk1::__hash_table<std::__ndk1::__hash_value_type<void*, bool>, std::__ndk1::__unordered_map_hasher<void*, std::__ndk1::__hash_value_type<void*, bool>, std::__ndk1::hash<void*>, std::__ndk1::equal_to<void*>, true>, std::__ndk1::__unordered_map_equal<void*, std::__ndk1::__hash_value_type<void*, bool>, std::__ndk1::equal_to<void*>, std::__ndk1::hash<void*>, true>, std::__ndk1::allocator<std::__ndk1::__hash_value_type<void*, bool> > >::__emplace_unique_key_args<void*, std::__ndk1::piecewise_construct_t const&, std::__ndk1::tuple<void* const&>, std::__ndk1::tuple<> >(void* const&, std::__ndk1::piecewise_construct_t const&, std::__ndk1::tuple<void* const&>, std::__ndk1::tuple<>)
PUBLIC 1dea0 0 __udivti3
PUBLIC 1deac 0 __udivmodti4
PUBLIC m 1e0f8 0 __eqtf2
PUBLIC 1e198 0 __unordtf2
PUBLIC 1e1d0 0 fmt::v11::detail::write_loc(fmt::v11::basic_appender<char>, fmt::v11::loc_value, fmt::v11::format_specs const&, fmt::v11::detail::locale_ref)
PUBLIC 1e464 0 fmt::v11::format_facet<std::__ndk1::locale>::~format_facet()
PUBLIC 1e4e0 0 fmt::v11::report_error(char const*)
PUBLIC 1e530 0 fmt::v11::format_error::runtime_error(char const*)
PUBLIC 1e55c 0 fmt::v11::format_facet<std::__ndk1::locale>::do_put(fmt::v11::basic_appender<char>, fmt::v11::loc_value, fmt::v11::format_specs const&) const
PUBLIC 1ed1c 0 fmt::v11::detail::loc_writer<char>::~loc_writer()
PUBLIC 1ed80 0 fmt::v11::detail::vformat_to<char>(fmt::v11::detail::buffer<char>&, fmt::v11::basic_string_view<char>, fmt::v11::detail::vformat_args<char>::type, fmt::v11::detail::locale_ref)
PUBLIC 1f2f0 0 fmt::v11::detail::is_printable(unsigned int)
PUBLIC 1f518 0 fmt::v11::detail::dragonbox::to_decimal<float>(float)
PUBLIC 1f7f4 0 fmt::v11::detail::dragonbox::to_decimal<double>(double)
PUBLIC 1fd30 0 fmt::v11::basic_memory_buffer<char, (unsigned long)500, std::__ndk1::allocator<char> >::grow(fmt::v11::detail::buffer<char>&, unsigned long)
PUBLIC 1fda8 0 fmt::v11::format_facet<std::__ndk1::locale>::~format_facet()
PUBLIC 1fe34 0 fmt::v11::format_error::~format_error()
PUBLIC 1fe58 0 fmt::v11::detail::copy_noinline<char, char const*, fmt::v11::basic_appender<char> >(char const*, char const*, fmt::v11::basic_appender<char>)
PUBLIC 1ffa8 0 fmt::v11::detail::default_arg_formatter<char>::operator()<bool>(bool)
PUBLIC 20010 0 fmt::v11::detail::default_arg_formatter<char>::operator()<char>(char)
PUBLIC 200a0 0 fmt::v11::detail::default_arg_formatter<char>::operator()<float>(float)
PUBLIC 2018c 0 fmt::v11::detail::default_arg_formatter<char>::operator()<double>(double)
PUBLIC 20278 0 fmt::v11::detail::default_arg_formatter<char>::operator()<char const*>(char const*)
PUBLIC 202c0 0 fmt::v11::detail::default_arg_formatter<char>::operator()<void const*>(void const*)
PUBLIC 20358 0 _ZN3fmt3v116detail5writeIcNS0_14basic_appenderIcEEiTnNSt6__ndk19enable_ifIXaaaasr11is_integralIT1_EE5valuentsr3std7is_sameIS7_bEE5valuentsr3std7is_sameIS7_T_EE5valueEiE4typeELi0EEET0_SB_S7_
PUBLIC 205b8 0 fmt::v11::detail::copy_noinline<char, char*, fmt::v11::basic_appender<char> >(char*, char*, fmt::v11::basic_appender<char>)
PUBLIC 20708 0 _ZN3fmt3v116detail5writeIcNS0_14basic_appenderIcEEjTnNSt6__ndk19enable_ifIXaaaasr11is_integralIT1_EE5valuentsr3std7is_sameIS7_bEE5valuentsr3std7is_sameIS7_T_EE5valueEiE4typeELi0EEET0_SB_S7_
PUBLIC 208e8 0 _ZN3fmt3v116detail5writeIcNS0_14basic_appenderIcEExTnNSt6__ndk19enable_ifIXaaaasr11is_integralIT1_EE5valuentsr3std7is_sameIS7_bEE5valuentsr3std7is_sameIS7_T_EE5valueEiE4typeELi0EEET0_SB_S7_
PUBLIC 20b6c 0 _ZN3fmt3v116detail5writeIcNS0_14basic_appenderIcEEyTnNSt6__ndk19enable_ifIXaaaasr11is_integralIT1_EE5valuentsr3std7is_sameIS7_bEE5valuentsr3std7is_sameIS7_T_EE5valueEiE4typeELi0EEET0_SB_S7_
PUBLIC 20d74 0 _ZN3fmt3v116detail5writeIcNS0_14basic_appenderIcEEnTnNSt6__ndk19enable_ifIXaaaasr11is_integralIT1_EE5valuentsr3std7is_sameIS7_bEE5valuentsr3std7is_sameIS7_T_EE5valueEiE4typeELi0EEET0_SB_S7_
PUBLIC 210d4 0 _ZN3fmt3v116detail5writeIcNS0_14basic_appenderIcEEoTnNSt6__ndk19enable_ifIXaaaasr11is_integralIT1_EE5valuentsr3std7is_sameIS7_bEE5valuentsr3std7is_sameIS7_T_EE5valueEiE4typeELi0EEET0_SB_S7_
PUBLIC 213e8 0 _ZN3fmt3v116detail5writeIcNS0_14basic_appenderIcEEbTnNSt6__ndk19enable_ifIXsr3std7is_sameIT1_bEE5valueEiE4typeELi0EEET0_SA_S7_RKNS0_12format_specsENS1_10locale_refE
PUBLIC 21678 0 fmt::v11::detail::write_int_noinline<char, fmt::v11::basic_appender<char>, unsigned int>(fmt::v11::basic_appender<char>, fmt::v11::detail::write_int_arg<unsigned int>, fmt::v11::format_specs const&, fmt::v11::detail::locale_ref)
PUBLIC 22454 0 fmt::v11::detail::fill<char, fmt::v11::basic_appender<char> >(fmt::v11::basic_appender<char>, unsigned long, fmt::v11::detail::fill_t const&)
PUBLIC 22624 0 fmt::v11::detail::write_padded<char, (fmt::v11::align::type)1, fmt::v11::basic_appender<char>, fmt::v11::detail::write_char<char, fmt::v11::basic_appender<char> >(fmt::v11::basic_appender<char>, char, fmt::v11::format_specs const&)::{lambda(fmt::v11::basic_appender<char>&)#1}>(fmt::v11::basic_appender<char>, fmt::v11::format_specs const&, unsigned long, unsigned long, fmt::v11::detail::write_char<char, fmt::v11::basic_appender<char> >(fmt::v11::basic_appender<char>, char, fmt::v11::format_specs const&)::{lambda(fmt::v11::basic_appender<char>&)#1})
PUBLIC 22860 0 fmt::v11::detail::write_escaped_cp<fmt::v11::basic_appender<char>, char>(fmt::v11::basic_appender<char>, fmt::v11::detail::find_escape_result<char> const&)
PUBLIC 22b6c 0 fmt::v11::detail::write_codepoint<(unsigned long)2, char, fmt::v11::basic_appender<char> >(fmt::v11::basic_appender<char>, char, unsigned int)
PUBLIC 22ce4 0 fmt::v11::detail::write_codepoint<(unsigned long)8, char, fmt::v11::basic_appender<char> >(fmt::v11::basic_appender<char>, char, unsigned int)
PUBLIC 22e5c 0 fmt::v11::detail::write_padded<char, (fmt::v11::align::type)1, fmt::v11::basic_appender<char>, fmt::v11::detail::write_nonfinite<char, fmt::v11::basic_appender<char> >(fmt::v11::basic_appender<char>, bool, fmt::v11::format_specs, fmt::v11::sign::type)::{lambda(fmt::v11::basic_appender<char>&)#1}>(fmt::v11::basic_appender<char>, fmt::v11::format_specs const&, unsigned long, unsigned long, fmt::v11::detail::write_nonfinite<char, fmt::v11::basic_appender<char> >(fmt::v11::basic_appender<char>, bool, fmt::v11::format_specs, fmt::v11::sign::type)::{lambda(fmt::v11::basic_appender<char>&)#1})
PUBLIC 2309c 0 fmt::v11::detail::do_write_float<char, fmt::v11::basic_appender<char>, fmt::v11::detail::dragonbox::decimal_fp<float>, fmt::v11::detail::digit_grouping<char> >(fmt::v11::basic_appender<char>, fmt::v11::detail::dragonbox::decimal_fp<float> const&, fmt::v11::format_specs const&, fmt::v11::detail::float_specs, fmt::v11::detail::locale_ref)
PUBLIC 23d10 0 fmt::v11::detail::do_write_float<char, fmt::v11::basic_appender<char>, fmt::v11::detail::dragonbox::decimal_fp<float>, fmt::v11::detail::digit_grouping<char> >(fmt::v11::basic_appender<char>, fmt::v11::detail::dragonbox::decimal_fp<float> const&, fmt::v11::format_specs const&, fmt::v11::detail::float_specs, fmt::v11::detail::locale_ref)::{lambda(fmt::v11::basic_appender<char>(fmt::v11::basic_appender<char>))#1}::operator() const
PUBLIC 23e64 0 fmt::v11::detail::digit_grouping<char>::digit_grouping(fmt::v11::detail::locale_ref, bool)
PUBLIC 240d0 0 fmt::v11::detail::digit_grouping<char>::~digit_grouping()
PUBLIC 24114 0 fmt::v11::detail::write_exponent<char, fmt::v11::basic_appender<char> >(int, fmt::v11::basic_appender<char>)
PUBLIC 242e4 0 _ZN3fmt3v116detail17write_significandIcjTnNSt6__ndk19enable_ifIXsr3std11is_integralIT0_EE5valueEiE4typeELi0EEEPT_S9_S5_iiS8_
PUBLIC 24460 0 fmt::v11::detail::digit_grouping<char>::apply<fmt::v11::basic_appender<char>, char>(fmt::v11::basic_appender<char>, fmt::v11::basic_string_view<char>) const
PUBLIC 24818 0 fmt::v11::basic_memory_buffer<int, (unsigned long)500, std::__ndk1::allocator<int> >::grow(fmt::v11::detail::buffer<int>&, unsigned long)
PUBLIC 248b8 0 fmt::v11::detail::do_write_float<char, fmt::v11::basic_appender<char>, fmt::v11::detail::dragonbox::decimal_fp<double>, fmt::v11::detail::digit_grouping<char> >(fmt::v11::basic_appender<char>, fmt::v11::detail::dragonbox::decimal_fp<double> const&, fmt::v11::format_specs const&, fmt::v11::detail::float_specs, fmt::v11::detail::locale_ref)
PUBLIC 2556c 0 fmt::v11::detail::do_write_float<char, fmt::v11::basic_appender<char>, fmt::v11::detail::dragonbox::decimal_fp<double>, fmt::v11::detail::digit_grouping<char> >(fmt::v11::basic_appender<char>, fmt::v11::detail::dragonbox::decimal_fp<double> const&, fmt::v11::format_specs const&, fmt::v11::detail::float_specs, fmt::v11::detail::locale_ref)::{lambda(fmt::v11::basic_appender<char>(fmt::v11::basic_appender<char>))#1}::operator() const
PUBLIC 256c4 0 _ZN3fmt3v116detail17write_significandIcmTnNSt6__ndk19enable_ifIXsr3std11is_integralIT0_EE5valueEiE4typeELi0EEEPT_S9_S5_iiS8_
PUBLIC 25854 0 fmt::v11::detail::write_float<char, fmt::v11::basic_appender<char>, long double>(fmt::v11::basic_appender<char>, long double, fmt::v11::format_specs, fmt::v11::detail::locale_ref)
PUBLIC 26350 0 fmt::v11::detail::write_padded<char, (fmt::v11::align::type)2, fmt::v11::basic_appender<char>, fmt::v11::detail::write_bytes<char, (fmt::v11::align::type)2, fmt::v11::basic_appender<char> >(fmt::v11::basic_appender<char>, fmt::v11::basic_string_view<char>, fmt::v11::format_specs const&)::{lambda(fmt::v11::basic_appender<char>&)#1}>(fmt::v11::basic_appender<char>, fmt::v11::format_specs const&, unsigned long, unsigned long, fmt::v11::detail::write_bytes<char, (fmt::v11::align::type)2, fmt::v11::basic_appender<char> >(fmt::v11::basic_appender<char>, fmt::v11::basic_string_view<char>, fmt::v11::format_specs const&)::{lambda(fmt::v11::basic_appender<char>&)#1})
PUBLIC 2652c 0 fmt::v11::detail::format_dragon(fmt::v11::detail::basic_fp<unsigned __int128>, unsigned int, int, fmt::v11::detail::buffer<char>&, int&)
PUBLIC 2795c 0 fmt::v11::detail::bigint::operator<<=(int)
PUBLIC 27a80 0 fmt::v11::detail::bigint::assign_pow10(int)
PUBLIC 281dc 0 fmt::v11::detail::bigint::divmod_assign(fmt::v11::detail::bigint const&)
PUBLIC 284fc 0 fmt::v11::basic_memory_buffer<unsigned int, (unsigned long)32, std::__ndk1::allocator<unsigned int> >::grow(fmt::v11::detail::buffer<unsigned int>&, unsigned long)
PUBLIC 2859c 0 fmt::v11::detail::do_write_float<char, fmt::v11::basic_appender<char>, fmt::v11::detail::big_decimal_fp, fmt::v11::detail::digit_grouping<char> >(fmt::v11::basic_appender<char>, fmt::v11::detail::big_decimal_fp const&, fmt::v11::format_specs const&, fmt::v11::detail::float_specs, fmt::v11::detail::locale_ref)
PUBLIC 2944c 0 fmt::v11::detail::do_write_float<char, fmt::v11::basic_appender<char>, fmt::v11::detail::big_decimal_fp, fmt::v11::detail::digit_grouping<char> >(fmt::v11::basic_appender<char>, fmt::v11::detail::big_decimal_fp const&, fmt::v11::format_specs const&, fmt::v11::detail::float_specs, fmt::v11::detail::locale_ref)::{lambda(fmt::v11::basic_appender<char>(fmt::v11::basic_appender<char>))#1}::operator() const
PUBLIC 295ac 0 fmt::v11::detail::write_padded<char, (fmt::v11::align::type)2, fmt::v11::basic_appender<char>, fmt::v11::detail::write_ptr<char, fmt::v11::basic_appender<char>, unsigned long>(fmt::v11::basic_appender<char>, unsigned long, fmt::v11::format_specs const*)::{lambda(fmt::v11::basic_appender<char>&)#1}>(fmt::v11::basic_appender<char>, fmt::v11::format_specs const&, unsigned long, unsigned long, fmt::v11::detail::write_ptr<char, fmt::v11::basic_appender<char>, unsigned long>(fmt::v11::basic_appender<char>, unsigned long, fmt::v11::format_specs const*)::{lambda(fmt::v11::basic_appender<char>&)#1})
PUBLIC 297c0 0 fmt::v11::detail::parse_replacement_field<char, fmt::v11::detail::vformat_to<char>(fmt::v11::detail::buffer<char>&, fmt::v11::basic_string_view<char>, fmt::v11::detail::vformat_args<char>::type, fmt::v11::detail::locale_ref)::format_handler&>(char const*, char const*, fmt::v11::detail::vformat_to<char>(fmt::v11::detail::buffer<char>&, fmt::v11::basic_string_view<char>, fmt::v11::detail::vformat_args<char>::type, fmt::v11::detail::locale_ref)::format_handler&)
PUBLIC 2b45c 0 fmt::v11::detail::parse_dynamic_spec<char>(char const*, char const*, int&, fmt::v11::detail::arg_ref<char>&, fmt::v11::basic_format_parse_context<char>&)
PUBLIC 2b6ec 0 fmt::v11::basic_format_args<fmt::v11::context>::get<char>(fmt::v11::basic_string_view<char>) const
PUBLIC 2b844 0 fmt::v11::detail::write_int_noinline<char, fmt::v11::basic_appender<char>, unsigned long>(fmt::v11::basic_appender<char>, fmt::v11::detail::write_int_arg<unsigned long>, fmt::v11::format_specs const&, fmt::v11::detail::locale_ref)
PUBLIC 2c698 0 fmt::v11::detail::write_int_noinline<char, fmt::v11::basic_appender<char>, unsigned __int128>(fmt::v11::basic_appender<char>, fmt::v11::detail::write_int_arg<unsigned __int128>, fmt::v11::format_specs const&, fmt::v11::detail::locale_ref)
PUBLIC 2d700 0 _ZN3fmt3v116detail15format_hexfloatIdTnNSt6__ndk19enable_ifIXntsr16is_double_doubleIT_EE5valueEiE4typeELi0EEEvS5_NS0_12format_specsERNS1_6bufferIcEE
PUBLIC 2dc20 0 fmt::v11::detail::format_float<double>(double, int, fmt::v11::detail::float_specs, fmt::v11::detail::buffer<char>&)
PUBLIC 2e5c0 0 fmt::v11::detail::write<char, fmt::v11::basic_appender<char> >(fmt::v11::basic_appender<char>, fmt::v11::basic_string_view<char>, fmt::v11::format_specs const&)
PUBLIC 2f92c 0 fmt::v11::detail::for_each_codepoint<fmt::v11::detail::compute_width(fmt::v11::basic_string_view<char>)::count_code_points>(fmt::v11::basic_string_view<char>, fmt::v11::detail::compute_width(fmt::v11::basic_string_view<char>)::count_code_points)::{lambda(char const*, char const*)#1}::operator()(char const*, char const*) const
PUBLIC 2fae4 0 fmt::v11::detail::write_int<fmt::v11::basic_appender<char>, unsigned long, char>(fmt::v11::basic_appender<char>, unsigned long, unsigned int, fmt::v11::format_specs const&, fmt::v11::detail::digit_grouping<char> const&)
PUBLIC 30060 0 fmt::v11::detail::write_int<fmt::v11::basic_appender<char>, unsigned __int128, char>(fmt::v11::basic_appender<char>, unsigned __int128, unsigned int, fmt::v11::format_specs const&, fmt::v11::detail::digit_grouping<char> const&)
PUBLIC 306e0 0 <.plt ELF section in spaghettdev.songpreview.android64.so>
STACK CFI INIT 128e0 10 .cfa: sp 0 +
STACK CFI INIT 128f0 8 .cfa: sp 0 +
STACK CFI INIT 128f8 8 .cfa: sp 0 +
STACK CFI INIT 12900 14 .cfa: sp 0 +
STACK CFI INIT 12914 1c .cfa: sp 0 +
STACK CFI INIT 12930 10 .cfa: sp 0 +
STACK CFI INIT 12940 30 .cfa: sp 0 +
STACK CFI INIT 12970 98 .cfa: sp 0 +
STACK CFI INIT 12a08 59c .cfa: sp 0 +
STACK CFI INIT 12fa4 8c .cfa: sp 0 +
STACK CFI INIT 13030 30 .cfa: sp 0 +
STACK CFI INIT 13060 14 .cfa: sp 0 +
STACK CFI INIT 13074 18 .cfa: sp 0 +
STACK CFI INIT 13510 18 .cfa: sp 0 +
STACK CFI INIT 139ac 18 .cfa: sp 0 +
STACK CFI INIT 13e48 18 .cfa: sp 0 +
STACK CFI INIT 13e60 e8 .cfa: sp 0 +
STACK CFI 13e64 .cfa: sp 32 +
STACK CFI 13e6c .cfa: x29 32 + x19: .cfa -8 + ^ x20: .cfa -16 + ^ .ra: .cfa -24 + ^ x29: .cfa -32 + ^
STACK CFI 13eac .cfa: sp 32 +
STACK CFI 13eb4 .cfa: sp 0 +
STACK CFI 13eb8 .cfa: x29 32 +
STACK CFI 13ef4 .cfa: sp 32 +
STACK CFI 13efc .cfa: sp 0 +
STACK CFI 13f00 .cfa: x29 32 +
STACK CFI 13f20 .cfa: sp 32 +
STACK CFI 13f28 .cfa: sp 0 +
STACK CFI 13f2c .cfa: x29 32 +
STACK CFI 13f3c .cfa: sp 32 +
STACK CFI 13f44 .cfa: sp 0 +
STACK CFI INIT 13f48 80 .cfa: sp 0 +
STACK CFI 13f4c .cfa: sp 48 +
STACK CFI 13f58 .cfa: x29 48 + x19: .cfa -8 + ^ x20: .cfa -16 + ^ x21: .cfa -24 + ^ x22: .cfa -32 + ^ .ra: .cfa -40 + ^ x29: .cfa -48 + ^
STACK CFI 13f70 .cfa: sp 48 +
STACK CFI 13f7c .cfa: sp 0 +
STACK CFI 13f80 .cfa: x29 48 +
STACK CFI 13fb0 .cfa: sp 48 +
STACK CFI 13fbc .cfa: sp 0 +
STACK CFI 13fc0 .cfa: x29 48 +
STACK CFI INIT 13fc8 14 .cfa: sp 0 +
STACK CFI 13fcc .cfa: sp 16 +
STACK CFI 13fd0 .cfa: x29 16 + .ra: .cfa -8 + ^ x29: .cfa -16 + ^
STACK CFI INIT 1402c 30 .cfa: sp 0 +
STACK CFI 14030 .cfa: sp 32 +
STACK CFI 14038 .cfa: x29 32 + x19: .cfa -16 + ^ .ra: .cfa -24 + ^ x29: .cfa -32 + ^
STACK CFI 14050 .cfa: sp 32 +
STACK CFI 14058 .cfa: sp 0 +
STACK CFI INIT 1405c 34 .cfa: sp 0 +
STACK CFI 14060 .cfa: sp 32 +
STACK CFI 14068 .cfa: x29 32 + x19: .cfa -16 + ^ .ra: .cfa -24 + ^ x29: .cfa -32 + ^
STACK CFI INIT 14090 10 .cfa: sp 0 +
STACK CFI 14094 .cfa: sp 16 +
STACK CFI 14098 .cfa: x29 16 + .ra: .cfa -8 + ^ x29: .cfa -16 + ^
STACK CFI INIT 140a0 ac .cfa: sp 0 +
STACK CFI 140a4 .cfa: sp 64 +
STACK CFI 140b4 .cfa: x29 64 + x19: .cfa -8 + ^ x20: .cfa -16 + ^ x21: .cfa -24 + ^ x22: .cfa -32 + ^ x23: .cfa -48 + ^ .ra: .cfa -56 + ^ x29: .cfa -64 + ^
STACK CFI 14130 .cfa: sp 64 +
STACK CFI 14140 .cfa: sp 0 +
STACK CFI 14144 .cfa: x29 64 +
STACK CFI INIT 1414c 110 .cfa: sp 0 +
STACK CFI 14150 .cfa: sp 64 +
STACK CFI 14160 .cfa: x29 64 + x19: .cfa -8 + ^ x20: .cfa -16 + ^ x21: .cfa -24 + ^ x22: .cfa -32 + ^ x23: .cfa -40 + ^ x24: .cfa -48 + ^ .ra: .cfa -56 + ^ x29: .cfa -64 + ^
STACK CFI 14240 .cfa: sp 64 +
STACK CFI 14250 .cfa: sp 0 +
STACK CFI 14254 .cfa: x29 64 +
STACK CFI INIT 15c1c 50 .cfa: sp 0 +
STACK CFI 15c20 .cfa: sp 32 +
STACK CFI 15c28 .cfa: x29 32 + x19: .cfa -16 + ^ .ra: .cfa -24 + ^ x29: .cfa -32 + ^
STACK CFI 15c40 .cfa: sp 32 +
STACK CFI 15c48 .cfa: sp 0 +
STACK CFI 15c4c .cfa: x29 32 +
STACK CFI 15c60 .cfa: sp 32 +
STACK CFI 15c68 .cfa: sp 0 +
STACK CFI INIT 15ce0 7c .cfa: sp 0 +
STACK CFI 15ce4 .cfa: sp 48 +
STACK CFI 15cf0 .cfa: x29 48 + x19: .cfa -8 + ^ x20: .cfa -16 + ^ x21: .cfa -32 + ^ .ra: .cfa -40 + ^ x29: .cfa -48 + ^
STACK CFI 15d3c .cfa: sp 48 +
STACK CFI 15d48 .cfa: sp 0 +
STACK CFI 15d4c .cfa: sp 48 +
STACK CFI 15d58 .cfa: sp 0 +
STACK CFI INIT 15d5c 4 .cfa: sp 0 +
STACK CFI INIT 15eb4 34 .cfa: sp 0 +
STACK CFI 15eb8 .cfa: sp 16 +
STACK CFI 15ebc .cfa: x29 16 + .ra: .cfa -8 + ^ x29: .cfa -16 + ^
STACK CFI INIT 16014 80 .cfa: sp 0 +
STACK CFI 16018 .cfa: sp 48 +
STACK CFI 16024 .cfa: x29 48 + x19: .cfa -8 + ^ x20: .cfa -16 + ^ x21: .cfa -32 + ^ .ra: .cfa -40 + ^ x29: .cfa -48 + ^
STACK CFI 16084 .cfa: sp 48 +
STACK CFI 16090 .cfa: sp 0 +
STACK CFI INIT 16094 24 .cfa: sp 0 +
STACK CFI 16098 .cfa: sp 32 +
STACK CFI 160a0 .cfa: x29 32 + x19: .cfa -16 + ^ .ra: .cfa -24 + ^ x29: .cfa -32 + ^
STACK CFI 160ac .cfa: sp 32 +
STACK CFI 160b4 .cfa: sp 0 +
STACK CFI INIT 165b0 148 .cfa: sp 0 +
STACK CFI 165b4 .cfa: sp 48 +
STACK CFI 165c0 .cfa: x29 48 + x19: .cfa -8 + ^ x20: .cfa -16 + ^ x21: .cfa -32 + ^ .ra: .cfa -40 + ^ x29: .cfa -48 + ^
STACK CFI 166e8 .cfa: sp 48 +
STACK CFI 166f4 .cfa: sp 0 +
STACK CFI INIT 1691c 68 .cfa: sp 0 +
STACK CFI 16920 .cfa: sp 32 +
STACK CFI 16928 .cfa: x29 32 + x19: .cfa -8 + ^ x20: .cfa -16 + ^ .ra: .cfa -24 + ^ x29: .cfa -32 + ^
STACK CFI 16940 .cfa: sp 32 +
STACK CFI 16948 .cfa: sp 0 +
STACK CFI 1694c .cfa: x29 32 +
STACK CFI 16978 .cfa: sp 32 +
STACK CFI 16980 .cfa: sp 0 +
STACK CFI INIT 16984 14 .cfa: sp 0 +
STACK CFI 16988 .cfa: sp 16 +
STACK CFI 1698c .cfa: x29 16 + .ra: .cfa -8 + ^ x29: .cfa -16 + ^
STACK CFI INIT 16998 4 .cfa: sp 0 +
STACK CFI INIT 1699c 14 .cfa: sp 0 +
STACK CFI INIT 169b0 120 .cfa: sp 0 +
STACK CFI 169b4 .cfa: sp 64 +
STACK CFI 169c4 .cfa: x29 64 + x19: .cfa -8 + ^ x20: .cfa -16 + ^ x21: .cfa -24 + ^ x22: .cfa -32 + ^ x23: .cfa -40 + ^ x24: .cfa -48 + ^ .ra: .cfa -56 + ^ x29: .cfa -64 + ^
STACK CFI 16abc .cfa: sp 64 +
STACK CFI 16acc .cfa: sp 0 +
STACK CFI INIT 16ad0 4a4 .cfa: sp 0 +
STACK CFI 16ad4 .cfa: sp 32 +
STACK CFI 16adc .cfa: x29 32 + x19: .cfa -8 + ^ x20: .cfa -16 + ^ .ra: .cfa -24 + ^ x29: .cfa -32 + ^
STACK CFI 16ebc .cfa: sp 32 +
STACK CFI 16ec4 .cfa: sp 0 +
STACK CFI 16ec8 .cfa: x29 32 +
STACK CFI INIT 16f74 84 .cfa: sp 0 +
STACK CFI 16f7c .cfa: sp 32 +
STACK CFI 16f84 .cfa: x29 32 + x19: .cfa -8 + ^ x20: .cfa -16 + ^ .ra: .cfa -24 + ^ x29: .cfa -32 + ^
STACK CFI 16fc4 .cfa: sp 32 +
STACK CFI 16fcc .cfa: sp 0 +
STACK CFI 16fd4 .cfa: x29 32 +
STACK CFI INIT 17b80 4 .cfa: sp 0 +
STACK CFI INIT 17b84 30 .cfa: sp 0 +
STACK CFI 17b88 .cfa: sp 32 +
STACK CFI 17b90 .cfa: x29 32 + x19: .cfa -16 + ^ .ra: .cfa -24 + ^ x29: .cfa -32 + ^
STACK CFI 17ba8 .cfa: sp 32 +
STACK CFI 17bb0 .cfa: sp 0 +
STACK CFI INIT 17d10 50 .cfa: sp 0 +
STACK CFI 17d14 .cfa: sp 32 +
STACK CFI 17d1c .cfa: x29 32 + x19: .cfa -16 + ^ .ra: .cfa -24 + ^ x29: .cfa -32 + ^
STACK CFI 17d34 .cfa: sp 32 +
STACK CFI 17d3c .cfa: sp 0 +
STACK CFI 17d40 .cfa: x29 32 +
STACK CFI 17d54 .cfa: sp 32 +
STACK CFI 17d5c .cfa: sp 0 +
STACK CFI INIT 17d60 64 .cfa: sp 0 +
STACK CFI 17d64 .cfa: sp 32 +
STACK CFI 17d6c .cfa: x29 32 + x19: .cfa -16 + ^ .ra: .cfa -24 + ^ x29: .cfa -32 + ^
STACK CFI 17d98 .cfa: sp 32 +
STACK CFI 17da0 .cfa: sp 0 +
STACK CFI 17da4 .cfa: x29 32 +
STACK CFI 17db8 .cfa: sp 32 +
STACK CFI 17dc0 .cfa: sp 0 +
STACK CFI INIT 17dc4 14 .cfa: sp 0 +
STACK CFI 17dc8 .cfa: sp 16 +
STACK CFI 17dcc .cfa: x29 16 + .ra: .cfa -8 + ^ x29: .cfa -16 + ^
STACK CFI INIT 184b8 c8 .cfa: sp 0 +
STACK CFI 184bc .cfa: sp 48 +
STACK CFI 184c8 .cfa: x29 48 + x19: .cfa -8 + ^ x20: .cfa -16 + ^ x21: .cfa -32 + ^ .ra: .cfa -40 + ^ x29: .cfa -48 + ^
STACK CFI 1855c .cfa: sp 48 +
STACK CFI 18568 .cfa: sp 0 +
STACK CFI 1856c .cfa: x29 48 +
STACK CFI 18570 .cfa: sp 48 +
STACK CFI 1857c .cfa: sp 0 +
STACK CFI INIT 18580 14 .cfa: sp 0 +
STACK CFI 18584 .cfa: sp 16 +
STACK CFI 18588 .cfa: x29 16 + .ra: .cfa -8 + ^ x29: .cfa -16 + ^
STACK CFI INIT 18594 14 .cfa: sp 0 +
STACK CFI 18598 .cfa: sp 16 +
STACK CFI 1859c .cfa: x29 16 + .ra: .cfa -8 + ^ x29: .cfa -16 + ^
STACK CFI INIT 185a8 c .cfa: sp 0 +
STACK CFI 185ac .cfa: sp 16 +
STACK CFI 185b0 .cfa: x29 16 + .ra: .cfa -8 + ^ x29: .cfa -16 + ^
STACK CFI INIT 18604 30 .cfa: sp 0 +
STACK CFI 18608 .cfa: sp 32 +
STACK CFI 18610 .cfa: x29 32 + x19: .cfa -16 + ^ .ra: .cfa -24 + ^ x29: .cfa -32 + ^
STACK CFI 18628 .cfa: sp 32 +
STACK CFI 18630 .cfa: sp 0 +
STACK CFI INIT 18634 c .cfa: sp 0 +
STACK CFI 18638 .cfa: sp 16 +
STACK CFI 1863c .cfa: x29 16 + .ra: .cfa -8 + ^ x29: .cfa -16 + ^
STACK CFI INIT 18640 9c .cfa: sp 0 +
STACK CFI 18644 .cfa: sp 32 +
STACK CFI 1864c .cfa: x29 32 + x19: .cfa -8 + ^ x20: .cfa -16 + ^ .ra: .cfa -24 + ^ x29: .cfa -32 + ^
STACK CFI 186d0 .cfa: sp 32 +
STACK CFI 186d8 .cfa: sp 0 +
STACK CFI INIT 186dc 50 .cfa: sp 0 +
STACK CFI 186e0 .cfa: sp 32 +
STACK CFI 186e8 .cfa: x29 32 + x19: .cfa -16 + ^ .ra: .cfa -24 + ^ x29: .cfa -32 + ^
STACK CFI 18700 .cfa: sp 32 +
STACK CFI 18708 .cfa: sp 0 +
STACK CFI 1870c .cfa: x29 32 +
STACK CFI 18720 .cfa: sp 32 +
STACK CFI 18728 .cfa: sp 0 +
STACK CFI INIT 1872c 4 .cfa: sp 0 +
STACK CFI INIT 188dc a4 .cfa: sp 0 +
STACK CFI 188e0 .cfa: sp 32 +
STACK CFI 188e8 .cfa: x29 32 + x19: .cfa -8 + ^ x20: .cfa -16 + ^ .ra: .cfa -24 + ^ x29: .cfa -32 + ^
STACK CFI 18974 .cfa: sp 32 +
STACK CFI 1897c .cfa: sp 0 +
STACK CFI INIT 18980 f8 .cfa: sp 0 +
STACK CFI 18984 .cfa: sp 64 +
STACK CFI 18994 .cfa: x29 64 + x19: .cfa -8 + ^ x20: .cfa -16 + ^ x21: .cfa -24 + ^ x22: .cfa -32 + ^ x23: .cfa -48 + ^ .ra: .cfa -56 + ^ x29: .cfa -64 + ^
STACK CFI 189f0 .cfa: sp 64 +
STACK CFI 18a00 .cfa: sp 0 +
STACK CFI 18a04 .cfa: x29 64 +
STACK CFI 18a20 .cfa: sp 64 +
STACK CFI 18a30 .cfa: sp 0 +
STACK CFI 18a34 .cfa: x29 64 +
STACK CFI 18a64 .cfa: sp 64 +
STACK CFI 18a74 .cfa: sp 0 +
STACK CFI INIT 18a78 34 .cfa: sp 0 +
STACK CFI 18a7c .cfa: sp 16 +
STACK CFI 18a80 .cfa: x29 16 + .ra: .cfa -8 + ^ x29: .cfa -16 + ^
STACK CFI INIT 18aac 24 .cfa: sp 0 +
STACK CFI 18ab0 .cfa: sp 32 +
STACK CFI 18ab8 .cfa: x29 32 + x19: .cfa -16 + ^ .ra: .cfa -24 + ^ x29: .cfa -32 + ^
STACK CFI 18ac4 .cfa: sp 32 +
STACK CFI 18acc .cfa: sp 0 +
STACK CFI INIT 18ad0 4 .cfa: sp 0 +
STACK CFI INIT 18ad4 4 .cfa: sp 0 +
STACK CFI INIT 18ad8 38 .cfa: sp 0 +
STACK CFI 18adc .cfa: sp 32 +
STACK CFI 18ae4 .cfa: x29 32 + x19: .cfa -16 + ^ .ra: .cfa -24 + ^ x29: .cfa -32 + ^
STACK CFI 18b04 .cfa: sp 32 +
STACK CFI 18b0c .cfa: sp 0 +
STACK CFI INIT 18b10 18 .cfa: sp 0 +
STACK CFI INIT 18b28 4 .cfa: sp 0 +
STACK CFI INIT 18b2c 4 .cfa: sp 0 +
STACK CFI INIT 18b30 10 .cfa: sp 0 +
STACK CFI INIT 18b40 1c .cfa: sp 0 +
STACK CFI INIT 18b5c c .cfa: sp 0 +
STACK CFI INIT 18d6c 50 .cfa: sp 0 +
STACK CFI 18d70 .cfa: sp 32 +
STACK CFI 18d78 .cfa: x29 32 + x19: .cfa -16 + ^ .ra: .cfa -24 + ^ x29: .cfa -32 + ^
STACK CFI 18d90 .cfa: sp 32 +
STACK CFI 18d98 .cfa: sp 0 +
STACK CFI 18d9c .cfa: x29 32 +
STACK CFI 18db0 .cfa: sp 32 +
STACK CFI 18db8 .cfa: sp 0 +
STACK CFI INIT 18dbc 50 .cfa: sp 0 +
STACK CFI 18dc0 .cfa: sp 32 +
STACK CFI 18dc8 .cfa: x29 32 + x19: .cfa -16 + ^ .ra: .cfa -24 + ^ x29: .cfa -32 + ^
STACK CFI 18de0 .cfa: sp 32 +
STACK CFI 18de8 .cfa: sp 0 +
STACK CFI 18dec .cfa: x29 32 +
STACK CFI 18e00 .cfa: sp 32 +
STACK CFI 18e08 .cfa: sp 0 +
STACK CFI INIT 18e0c 5c .cfa: sp 0 +
STACK CFI 18e10 .cfa: sp 32 +
STACK CFI 18e18 .cfa: x29 32 + x19: .cfa -16 + ^ .ra: .cfa -24 + ^ x29: .cfa -32 + ^
STACK CFI 18e3c .cfa: sp 32 +
STACK CFI 18e44 .cfa: sp 0 +
STACK CFI 18e48 .cfa: x29 32 +
STACK CFI 18e5c .cfa: sp 32 +
STACK CFI 18e64 .cfa: sp 0 +
STACK CFI INIT 18e68 6c .cfa: sp 0 +
STACK CFI 18e6c .cfa: sp 32 +
STACK CFI 18e74 .cfa: x29 32 + x19: .cfa -8 + ^ x20: .cfa -16 + ^ .ra: .cfa -24 + ^ x29: .cfa -32 + ^
STACK CFI 18ea0 .cfa: sp 32 +
STACK CFI 18ea8 .cfa: sp 0 +
STACK CFI 18eac .cfa: x29 32 +
STACK CFI 18ec8 .cfa: sp 32 +
STACK CFI 18ed0 .cfa: sp 0 +
STACK CFI INIT 18ed4 58 .cfa: sp 0 +
STACK CFI 18ed8 .cfa: sp 32 +
STACK CFI 18ee0 .cfa: x29 32 + x19: .cfa -8 + ^ x20: .cfa -16 + ^ .ra: .cfa -24 + ^ x29: .cfa -32 + ^
STACK CFI 18f20 .cfa: sp 32 +
STACK CFI 18f28 .cfa: sp 0 +
STACK CFI INIT 18f2c 4c .cfa: sp 0 +
STACK CFI 18f30 .cfa: sp 32 +
STACK CFI 18f38 .cfa: x29 32 + x19: .cfa -8 + ^ x20: .cfa -16 + ^ .ra: .cfa -24 + ^ x29: .cfa -32 + ^
STACK CFI 18f6c .cfa: sp 32 +
STACK CFI 18f74 .cfa: sp 0 +
STACK CFI INIT 18f78 50 .cfa: sp 0 +
STACK CFI 18f7c .cfa: sp 32 +
STACK CFI 18f84 .cfa: x29 32 + x19: .cfa -16 + ^ .ra: .cfa -24 + ^ x29: .cfa -32 + ^
STACK CFI 18f9c .cfa: sp 32 +
STACK CFI 18fa4 .cfa: sp 0 +
STACK CFI 18fa8 .cfa: x29 32 +
STACK CFI 18fbc .cfa: sp 32 +
STACK CFI 18fc4 .cfa: sp 0 +
STACK CFI INIT 18fc8 60 .cfa: sp 0 +
STACK CFI 18fcc .cfa: sp 32 +
STACK CFI 18fd4 .cfa: x29 32 + x19: .cfa -8 + ^ x20: .cfa -16 + ^ .ra: .cfa -24 + ^ x29: .cfa -32 + ^
STACK CFI 18ff4 .cfa: sp 32 +
STACK CFI 18ffc .cfa: sp 0 +
STACK CFI 19000 .cfa: x29 32 +
STACK CFI 1901c .cfa: sp 32 +
STACK CFI 19024 .cfa: sp 0 +
STACK CFI INIT 191f8 1c .cfa: sp 0 +
STACK CFI INIT 19214 c .cfa: sp 0 +
STACK CFI INIT 19220 60 .cfa: sp 0 +
STACK CFI 19224 .cfa: sp 32 +
STACK CFI 1922c .cfa: x29 32 + x19: .cfa -8 + ^ x20: .cfa -16 + ^ .ra: .cfa -24 + ^ x29: .cfa -32 + ^
STACK CFI 1924c .cfa: sp 32 +
STACK CFI 19254 .cfa: sp 0 +
STACK CFI 19258 .cfa: x29 32 +
STACK CFI 19274 .cfa: sp 32 +
STACK CFI 1927c .cfa: sp 0 +
STACK CFI INIT 19280 70 .cfa: sp 0 +
STACK CFI 19284 .cfa: sp 32 +
STACK CFI 1928c .cfa: x29 32 + x19: .cfa -8 + ^ x20: .cfa -16 + ^ .ra: .cfa -24 + ^ x29: .cfa -32 + ^
STACK CFI 192b4 .cfa: sp 32 +
STACK CFI 192bc .cfa: sp 0 +
STACK CFI 192c0 .cfa: x29 32 +
STACK CFI 192e4 .cfa: sp 32 +
STACK CFI 192ec .cfa: sp 0 +
STACK CFI INIT 192f0 5c .cfa: sp 0 +
STACK CFI 192f4 .cfa: sp 32 +
STACK CFI 192fc .cfa: x29 32 + x19: .cfa -16 + ^ .ra: .cfa -24 + ^ x29: .cfa -32 + ^
STACK CFI 19320 .cfa: sp 32 +
STACK CFI 19328 .cfa: sp 0 +
STACK CFI 1932c .cfa: x29 32 +
STACK CFI 19340 .cfa: sp 32 +
STACK CFI 19348 .cfa: sp 0 +
STACK CFI INIT 1934c 6c .cfa: sp 0 +
STACK CFI 19350 .cfa: sp 32 +
STACK CFI 19358 .cfa: x29 32 + x19: .cfa -8 + ^ x20: .cfa -16 + ^ .ra: .cfa -24 + ^ x29: .cfa -32 + ^
STACK CFI 19384 .cfa: sp 32 +
STACK CFI 1938c .cfa: sp 0 +
STACK CFI 19390 .cfa: x29 32 +
STACK CFI 193ac .cfa: sp 32 +
STACK CFI 193b4 .cfa: sp 0 +
STACK CFI INIT 193b8 58 .cfa: sp 0 +
STACK CFI 193bc .cfa: sp 32 +
STACK CFI 193c4 .cfa: x29 32 + x19: .cfa -8 + ^ x20: .cfa -16 + ^ .ra: .cfa -24 + ^ x29: .cfa -32 + ^
STACK CFI 19404 .cfa: sp 32 +
STACK CFI 1940c .cfa: sp 0 +
STACK CFI INIT 19410 4c .cfa: sp 0 +
STACK CFI 19414 .cfa: sp 32 +
STACK CFI 1941c .cfa: x29 32 + x19: .cfa -8 + ^ x20: .cfa -16 + ^ .ra: .cfa -24 + ^ x29: .cfa -32 + ^
STACK CFI 19450 .cfa: sp 32 +
STACK CFI 19458 .cfa: sp 0 +
STACK CFI INIT 1945c 50 .cfa: sp 0 +
STACK CFI 19460 .cfa: sp 32 +
STACK CFI 19468 .cfa: x29 32 + x19: .cfa -16 + ^ .ra: .cfa -24 + ^ x29: .cfa -32 + ^
STACK CFI 19480 .cfa: sp 32 +
STACK CFI 19488 .cfa: sp 0 +
STACK CFI 1948c .cfa: x29 32 +
STACK CFI 194a0 .cfa: sp 32 +
STACK CFI 194a8 .cfa: sp 0 +
STACK CFI INIT 194ac 60 .cfa: sp 0 +
STACK CFI 194b0 .cfa: sp 32 +
STACK CFI 194b8 .cfa: x29 32 + x19: .cfa -8 + ^ x20: .cfa -16 + ^ .ra: .cfa -24 + ^ x29: .cfa -32 + ^
STACK CFI 194d8 .cfa: sp 32 +
STACK CFI 194e0 .cfa: sp 0 +
STACK CFI 194e4 .cfa: x29 32 +
STACK CFI 19500 .cfa: sp 32 +
STACK CFI 19508 .cfa: sp 0 +
STACK CFI INIT 196d0 1c .cfa: sp 0 +
STACK CFI INIT 196ec c .cfa: sp 0 +
STACK CFI INIT 196f8 168 .cfa: sp 0 +
STACK CFI 196fc .cfa: sp 80 +
STACK CFI 19710 .cfa: x29 80 + x19: .cfa -8 + ^ x20: .cfa -16 + ^ x21: .cfa -24 + ^ x22: .cfa -32 + ^ x23: .cfa -40 + ^ x24: .cfa -48 + ^ x25: .cfa -56 + ^ x26: .cfa -64 + ^ .ra: .cfa -72 + ^ x29: .cfa -80 + ^
STACK CFI 19848 .cfa: sp 80 +
STACK CFI 1985c .cfa: sp 0 +
STACK CFI INIT 19860 1b0 .cfa: sp 0 +
STACK CFI INIT 1a110 4 .cfa: sp 0 +
STACK CFI INIT 1a114 4 .cfa: sp 0 +
STACK CFI INIT 1a118 34 .cfa: sp 0 +
STACK CFI 1a11c .cfa: sp 32 +
STACK CFI 1a124 .cfa: x29 32 + x19: .cfa -16 + ^ .ra: .cfa -24 + ^ x29: .cfa -32 + ^
STACK CFI 1a140 .cfa: sp 32 +
STACK CFI 1a148 .cfa: sp 0 +
STACK CFI INIT 1a14c 14 .cfa: sp 0 +
STACK CFI INIT 1a160 4 .cfa: sp 0 +
STACK CFI INIT 1a164 4 .cfa: sp 0 +
STACK CFI INIT 1a6ec 1c .cfa: sp 0 +
STACK CFI INIT 1a708 c .cfa: sp 0 +
STACK CFI INIT 1a788 14 .cfa: sp 0 +
STACK CFI 1a78c .cfa: sp 16 +
STACK CFI 1a790 .cfa: x29 16 + .ra: .cfa -8 + ^ x29: .cfa -16 + ^
STACK CFI INIT 1a79c 4 .cfa: sp 0 +
STACK CFI INIT 1a7a0 14 .cfa: sp 0 +
STACK CFI INIT 1ab28 4 .cfa: sp 0 +
STACK CFI INIT 1ab2c 130 .cfa: sp 0 +
STACK CFI 1ab30 .cfa: sp 48 +
STACK CFI 1ab3c .cfa: x29 48 + x19: .cfa -8 + ^ x20: .cfa -16 + ^ x21: .cfa -32 + ^ .ra: .cfa -40 + ^ x29: .cfa -48 + ^
STACK CFI 1ac28 .cfa: sp 48 +
STACK CFI 1ac34 .cfa: sp 0 +
STACK CFI 1ac38 .cfa: x29 48 +
STACK CFI 1ac4c .cfa: sp 48 +
STACK CFI 1ac58 .cfa: sp 0 +
STACK CFI INIT 1afd0 4 .cfa: sp 0 +
STACK CFI INIT 1afd4 130 .cfa: sp 0 +
STACK CFI 1afd8 .cfa: sp 48 +
STACK CFI 1afe4 .cfa: x29 48 + x19: .cfa -8 + ^ x20: .cfa -16 + ^ x21: .cfa -32 + ^ .ra: .cfa -40 + ^ x29: .cfa -48 + ^
STACK CFI 1b0d0 .cfa: sp 48 +
STACK CFI 1b0dc .cfa: sp 0 +
STACK CFI 1b0e0 .cfa: x29 48 +
STACK CFI 1b0f4 .cfa: sp 48 +
STACK CFI 1b100 .cfa: sp 0 +
STACK CFI INIT 1b104 50 .cfa: sp 0 +
STACK CFI 1b108 .cfa: sp 32 +
STACK CFI 1b110 .cfa: x29 32 + x19: .cfa -16 + ^ .ra: .cfa -24 + ^ x29: .cfa -32 + ^
STACK CFI 1b128 .cfa: sp 32 +
STACK CFI 1b130 .cfa: sp 0 +
STACK CFI 1b134 .cfa: x29 32 +
STACK CFI 1b148 .cfa: sp 32 +
STACK CFI 1b150 .cfa: sp 0 +
STACK CFI INIT 1b4ec 7c .cfa: sp 0 +
STACK CFI 1b4f0 .cfa: sp 32 +
STACK CFI 1b4f8 .cfa: x29 32 + x19: .cfa -8 + ^ x20: .cfa -16 + ^ .ra: .cfa -24 + ^ x29: .cfa -32 + ^
STACK CFI 1b55c .cfa: sp 32 +
STACK CFI 1b564 .cfa: sp 0 +
STACK CFI INIT 1b568 8 .cfa: sp 0 +
STACK CFI INIT 1b570 24 .cfa: sp 0 +
STACK CFI 1b574 .cfa: sp 32 +
STACK CFI 1b57c .cfa: x29 32 + x19: .cfa -16 + ^ .ra: .cfa -24 + ^ x29: .cfa -32 + ^
STACK CFI 1b588 .cfa: sp 32 +
STACK CFI 1b590 .cfa: sp 0 +
STACK CFI INIT 1b594 c .cfa: sp 0 +
STACK CFI INIT 1b5a0 c .cfa: sp 0 +
STACK CFI INIT 1b5ac 8 .cfa: sp 0 +
STACK CFI INIT 1b5b4 8 .cfa: sp 0 +
STACK CFI INIT 1b5bc 8 .cfa: sp 0 +
STACK CFI INIT 1b5c4 8 .cfa: sp 0 +
STACK CFI INIT 1b5cc 3c .cfa: sp 0 +
STACK CFI 1b5d0 .cfa: sp 32 +
STACK CFI 1b5d8 .cfa: x29 32 + x19: .cfa -16 + ^ .ra: .cfa -24 + ^ x29: .cfa -32 + ^
STACK CFI 1b5e4 .cfa: sp 32 +
STACK CFI 1b5ec .cfa: sp 0 +
STACK CFI 1b5f0 .cfa: x29 32 +
STACK CFI 1b5fc .cfa: sp 32 +
STACK CFI 1b604 .cfa: sp 0 +
STACK CFI INIT 1bae4 64 .cfa: sp 0 +
STACK CFI 1bae8 .cfa: sp 32 +
STACK CFI 1baf0 .cfa: x29 32 + x19: .cfa -16 + ^ .ra: .cfa -24 + ^ x29: .cfa -32 + ^
STACK CFI 1bb1c .cfa: sp 32 +
STACK CFI 1bb24 .cfa: sp 0 +
STACK CFI 1bb28 .cfa: x29 32 +
STACK CFI 1bb3c .cfa: sp 32 +
STACK CFI 1bb44 .cfa: sp 0 +
STACK CFI INIT 1bf5c 24 .cfa: sp 0 +
STACK CFI 1bf60 .cfa: sp 32 +
STACK CFI 1bf68 .cfa: x29 32 + x19: .cfa -16 + ^ .ra: .cfa -24 + ^ x29: .cfa -32 + ^
STACK CFI 1bf74 .cfa: sp 32 +
STACK CFI 1bf7c .cfa: sp 0 +
STACK CFI INIT 1bf80 24 .cfa: sp 0 +
STACK CFI 1bf84 .cfa: sp 32 +
STACK CFI 1bf8c .cfa: x29 32 + x19: .cfa -16 + ^ .ra: .cfa -24 + ^ x29: .cfa -32 + ^
STACK CFI 1bf98 .cfa: sp 32 +
STACK CFI 1bfa0 .cfa: sp 0 +
STACK CFI INIT 1bfa4 24 .cfa: sp 0 +
STACK CFI 1bfa8 .cfa: sp 32 +
STACK CFI 1bfb0 .cfa: x29 32 + x19: .cfa -16 + ^ .ra: .cfa -24 + ^ x29: .cfa -32 + ^
STACK CFI 1bfbc .cfa: sp 32 +
STACK CFI 1bfc4 .cfa: sp 0 +
STACK CFI INIT 1c170 24 .cfa: sp 0 +
STACK CFI 1c174 .cfa: sp 32 +
STACK CFI 1c17c .cfa: x29 32 + x19: .cfa -16 + ^ .ra: .cfa -24 + ^ x29: .cfa -32 + ^
STACK CFI 1c188 .cfa: sp 32 +
STACK CFI 1c190 .cfa: sp 0 +
STACK CFI INIT 1d278 4 .cfa: sp 0 +
STACK CFI INIT 1d27c 4 .cfa: sp 0 +
STACK CFI INIT 1d280 8 .cfa: sp 0 +
STACK CFI INIT 1d288 4 .cfa: sp 0 +
STACK CFI INIT 1d28c 8 .cfa: sp 0 +
STACK CFI INIT 1d9a8 4 .cfa: sp 0 +
STACK CFI INIT 1d9ac 14 .cfa: sp 0 +
STACK CFI INIT 1dea0 c .cfa: sp 0 +
STACK CFI INIT 1deac 24c .cfa: sp 0 +
STACK CFI INIT 1e0f8 a0 .cfa: sp 0 +
STACK CFI 1e104 .cfa: sp 32 +
STACK CFI 1e15c .cfa: sp 0 +
STACK CFI 1e160 .cfa: sp 32 +
STACK CFI 1e168 .cfa: sp 0 +
STACK CFI 1e16c .cfa: sp 32 +
STACK CFI 1e180 .cfa: sp 0 +
STACK CFI 1e184 .cfa: sp 32 +
STACK CFI 1e194 .cfa: sp 0 +
STACK CFI INIT 1e198 38 .cfa: sp 0 +
STACK CFI 1e1a4 .cfa: sp 32 +
STACK CFI 1e1cc .cfa: sp 0 +
STACK CFI INIT 1e464 7c .cfa: sp 0 +
STACK CFI 1e468 .cfa: sp 32 +
STACK CFI 1e470 .cfa: x29 32 + x19: .cfa -16 + ^ .ra: .cfa -24 + ^ x29: .cfa -32 + ^
STACK CFI 1e49c .cfa: sp 32 +
STACK CFI 1e4a4 .cfa: sp 0 +
STACK CFI 1e4a8 .cfa: x29 32 +
STACK CFI 1e4d4 .cfa: sp 32 +
STACK CFI 1e4dc .cfa: sp 0 +
STACK CFI INIT 1e530 2c .cfa: sp 0 +
STACK CFI 1e534 .cfa: sp 32 +
STACK CFI 1e53c .cfa: x29 32 + x19: .cfa -16 + ^ .ra: .cfa -24 + ^ x29: .cfa -32 + ^
STACK CFI 1e550 .cfa: sp 32 +
STACK CFI 1e558 .cfa: sp 0 +
STACK CFI INIT 1ed1c 64 .cfa: sp 0 +
STACK CFI 1ed20 .cfa: sp 32 +
STACK CFI 1ed28 .cfa: x29 32 + x19: .cfa -16 + ^ .ra: .cfa -24 + ^ x29: .cfa -32 + ^
STACK CFI 1ed44 .cfa: sp 32 +
STACK CFI 1ed4c .cfa: sp 0 +
STACK CFI 1ed50 .cfa: x29 32 +
STACK CFI 1ed74 .cfa: sp 32 +
STACK CFI 1ed7c .cfa: sp 0 +
STACK CFI INIT 1ed80 570 .cfa: sp 0 +
STACK CFI 1ed84 .cfa: sp 176 +
STACK CFI 1ed98 .cfa: x29 64 + x19: .cfa -8 + ^ x20: .cfa -16 + ^ x21: .cfa -24 + ^ x22: .cfa -32 + ^ x23: .cfa -40 + ^ x24: .cfa -48 + ^ .ra: .cfa -56 + ^ x29: .cfa -64 + ^
STACK CFI 1efc8 .cfa: sp 176 +
STACK CFI 1efdc .cfa: sp 0 +
STACK CFI 1efe0 .cfa: x29 64 +
STACK CFI 1f02c .cfa: sp 176 +
STACK CFI 1f040 .cfa: sp 0 +
STACK CFI 1f044 .cfa: x29 64 +
STACK CFI 1f07c .cfa: sp 176 +
STACK CFI 1f090 .cfa: sp 0 +
STACK CFI 1f094 .cfa: x29 64 +
STACK CFI 1f0ac .cfa: sp 176 +
STACK CFI 1f0c0 .cfa: sp 0 +
STACK CFI 1f0c4 .cfa: x29 64 +
STACK CFI 1f0e4 .cfa: sp 176 +
STACK CFI 1f0f8 .cfa: sp 0 +
STACK CFI 1f0fc .cfa: x29 64 +
STACK CFI 1f114 .cfa: sp 176 +
STACK CFI 1f128 .cfa: sp 0 +
STACK CFI 1f12c .cfa: x29 64 +
STACK CFI 1f140 .cfa: sp 176 +
STACK CFI 1f154 .cfa: sp 0 +
STACK CFI 1f158 .cfa: x29 64 +
STACK CFI 1f16c .cfa: sp 176 +
STACK CFI 1f180 .cfa: sp 0 +
STACK CFI 1f184 .cfa: x29 64 +
STACK CFI 1f194 .cfa: sp 176 +
STACK CFI 1f1a8 .cfa: sp 0 +
STACK CFI 1f1ac .cfa: x29 64 +
STACK CFI 1f1bc .cfa: sp 176 +
STACK CFI 1f1d0 .cfa: sp 0 +
STACK CFI 1f1d4 .cfa: x29 64 +
STACK CFI 1f1ec .cfa: sp 176 +
STACK CFI 1f200 .cfa: sp 0 +
STACK CFI 1f204 .cfa: x29 64 +
STACK CFI 1f218 .cfa: sp 176 +
STACK CFI 1f22c .cfa: sp 0 +
STACK CFI 1f230 .cfa: x29 64 +
STACK CFI 1f248 .cfa: sp 176 +
STACK CFI 1f25c .cfa: sp 0 +
STACK CFI 1f260 .cfa: x29 64 +
STACK CFI 1f28c .cfa: sp 176 +
STACK CFI 1f2a0 .cfa: sp 0 +
STACK CFI 1f2a4 .cfa: x29 64 +
STACK CFI 1f2b8 .cfa: sp 176 +
STACK CFI 1f2cc .cfa: sp 0 +
STACK CFI 1f2d0 .cfa: x29 64 +
STACK CFI INIT 1f2f0 228 .cfa: sp 0 +
STACK CFI INIT 1f518 2dc .cfa: sp 0 +
STACK CFI INIT 1f7f4 53c .cfa: sp 0 +
STACK CFI INIT 1fd30 78 .cfa: sp 0 +
STACK CFI 1fd34 .cfa: sp 48 +
STACK CFI 1fd40 .cfa: x29 48 + x19: .cfa -8 + ^ x20: .cfa -16 + ^ x21: .cfa -24 + ^ x22: .cfa -32 + ^ .ra: .cfa -40 + ^ x29: .cfa -48 + ^
STACK CFI 1fd88 .cfa: sp 48 +
STACK CFI 1fd94 .cfa: sp 0 +
STACK CFI 1fd98 .cfa: sp 48 +
STACK CFI 1fda4 .cfa: sp 0 +
STACK CFI INIT 1fda8 8c .cfa: sp 0 +
STACK CFI 1fdac .cfa: sp 32 +
STACK CFI 1fdb4 .cfa: x29 32 + x19: .cfa -16 + ^ .ra: .cfa -24 + ^ x29: .cfa -32 + ^
STACK CFI 1fde8 .cfa: sp 32 +
STACK CFI 1fdf0 .cfa: sp 0 +
STACK CFI 1fdf4 .cfa: x29 32 +
STACK CFI 1fe28 .cfa: sp 32 +
STACK CFI 1fe30 .cfa: sp 0 +
STACK CFI INIT 1fe34 24 .cfa: sp 0 +
STACK CFI 1fe38 .cfa: sp 32 +
STACK CFI 1fe40 .cfa: x29 32 + x19: .cfa -16 + ^ .ra: .cfa -24 + ^ x29: .cfa -32 + ^
STACK CFI 1fe4c .cfa: sp 32 +
STACK CFI 1fe54 .cfa: sp 0 +
STACK CFI INIT 1fe58 150 .cfa: sp 0 +
STACK CFI 1fe5c .cfa: sp 48 +
STACK CFI 1fe68 .cfa: x29 48 + x19: .cfa -8 + ^ x20: .cfa -16 + ^ x21: .cfa -24 + ^ x22: .cfa -32 + ^ .ra: .cfa -40 + ^ x29: .cfa -48 + ^
STACK CFI 1ff98 .cfa: sp 48 +
STACK CFI 1ffa4 .cfa: sp 0 +
STACK CFI INIT 1ffa8 68 .cfa: sp 0 +
STACK CFI 1ffac .cfa: sp 64 +
STACK CFI 1ffb8 .cfa: x29 32 + x19: .cfa -16 + ^ .ra: .cfa -24 + ^ x29: .cfa -32 + ^
STACK CFI 1fffc .cfa: sp 64 +
STACK CFI 20008 .cfa: sp 0 +
STACK CFI 2000c .cfa: x29 32 +
STACK CFI INIT 20010 90 .cfa: sp 0 +
STACK CFI 20014 .cfa: sp 32 +
STACK CFI 2001c .cfa: x29 32 + x19: .cfa -8 + ^ x20: .cfa -16 + ^ .ra: .cfa -24 + ^ x29: .cfa -32 + ^
STACK CFI 20048 .cfa: sp 32 +
STACK CFI 20050 .cfa: sp 0 +
STACK CFI 20054 .cfa: x29 32 +
STACK CFI 20094 .cfa: sp 32 +
STACK CFI 2009c .cfa: sp 0 +
STACK CFI INIT 200a0 ec .cfa: sp 0 +
STACK CFI 200a4 .cfa: sp 112 +
STACK CFI 200b4 .cfa: x29 48 + x19: .cfa -8 + ^ x20: .cfa -16 + ^ x21: .cfa -32 + ^ .ra: .cfa -40 + ^ x29: .cfa -48 + ^
STACK CFI 20174 .cfa: sp 112 +
STACK CFI 20184 .cfa: sp 0 +
STACK CFI 20188 .cfa: x29 48 +
STACK CFI INIT 2018c ec .cfa: sp 0 +
STACK CFI 20190 .cfa: sp 112 +
STACK CFI 201a0 .cfa: x29 48 + x19: .cfa -8 + ^ x20: .cfa -16 + ^ x21: .cfa -32 + ^ .ra: .cfa -40 + ^ x29: .cfa -48 + ^
STACK CFI 20260 .cfa: sp 112 +
STACK CFI 20270 .cfa: sp 0 +
STACK CFI 20274 .cfa: x29 48 +
STACK CFI INIT 20278 48 .cfa: sp 0 +
STACK CFI 2027c .cfa: sp 32 +
STACK CFI 20284 .cfa: x29 32 + x19: .cfa -8 + ^ x20: .cfa -16 + ^ .ra: .cfa -24 + ^ x29: .cfa -32 + ^
STACK CFI 202a8 .cfa: sp 32 +
STACK CFI 202b0 .cfa: sp 0 +
STACK CFI 202b4 .cfa: x29 32 +
STACK CFI INIT 202c0 98 .cfa: sp 0 +
STACK CFI 202c4 .cfa: sp 80 +
STACK CFI 202d0 .cfa: x29 32 + x19: .cfa -16 + ^ .ra: .cfa -24 + ^ x29: .cfa -32 + ^
STACK CFI 20344 .cfa: sp 80 +
STACK CFI 20350 .cfa: sp 0 +
STACK CFI 20354 .cfa: x29 32 +
STACK CFI INIT 20358 260 .cfa: sp 0 +
STACK CFI 2035c .cfa: sp 112 +
STACK CFI 20374 .cfa: x29 80 + x19: .cfa -8 + ^ x20: .cfa -16 + ^ x21: .cfa -24 + ^ x22: .cfa -32 + ^ x23: .cfa -40 + ^ x24: .cfa -48 + ^ x25: .cfa -64 + ^ .ra: .cfa -72 + ^ x29: .cfa -80 + ^
STACK CFI 20558 .cfa: sp 112 +
STACK CFI 20570 .cfa: sp 0 +
STACK CFI 20574 .cfa: x29 80 +
STACK CFI INIT 205b8 150 .cfa: sp 0 +
STACK CFI 205bc .cfa: sp 48 +
STACK CFI 205c8 .cfa: x29 48 + x19: .cfa -8 + ^ x20: .cfa -16 + ^ x21: .cfa -24 + ^ x22: .cfa -32 + ^ .ra: .cfa -40 + ^ x29: .cfa -48 + ^
STACK CFI 206f8 .cfa: sp 48 +
STACK CFI 20704 .cfa: sp 0 +
STACK CFI INIT 20708 1e0 .cfa: sp 0 +
STACK CFI 2070c .cfa: sp 96 +
STACK CFI 20720 .cfa: x29 64 + x19: .cfa -8 + ^ x20: .cfa -16 + ^ x21: .cfa -24 + ^ x22: .cfa -32 + ^ x23: .cfa -40 + ^ x24: .cfa -48 + ^ .ra: .cfa -56 + ^ x29: .cfa -64 + ^
STACK CFI 208a0 .cfa: sp 96 +
STACK CFI 208b4 .cfa: sp 0 +
STACK CFI 208b8 .cfa: x29 64 +
STACK CFI INIT 208e8 284 .cfa: sp 0 +
STACK CFI 208ec .cfa: sp 112 +
STACK CFI 20904 .cfa: x29 80 + x19: .cfa -8 + ^ x20: .cfa -16 + ^ x21: .cfa -24 + ^ x22: .cfa -32 + ^ x23: .cfa -40 + ^ x24: .cfa -48 + ^ x25: .cfa -64 + ^ .ra: .cfa -72 + ^ x29: .cfa -80 + ^
STACK CFI 20b0c .cfa: sp 112 +
STACK CFI 20b24 .cfa: sp 0 +
STACK CFI 20b28 .cfa: x29 80 +
STACK CFI INIT 20b6c 208 .cfa: sp 0 +
STACK CFI 20b70 .cfa: sp 96 +
STACK CFI 20b84 .cfa: x29 64 + x19: .cfa -8 + ^ x20: .cfa -16 + ^ x21: .cfa -24 + ^ x22: .cfa -32 + ^ x23: .cfa -40 + ^ x24: .cfa -48 + ^ .ra: .cfa -56 + ^ x29: .cfa -64 + ^
STACK CFI 20d2c .cfa: sp 96 +
STACK CFI 20d40 .cfa: sp 0 +
STACK CFI 20d44 .cfa: x29 64 +
STACK CFI INIT 20d74 360 .cfa: sp 0 +
STACK CFI 20d78 .cfa: sp 160 +
STACK CFI 20d94 .cfa: x29 96 + x19: .cfa -8 + ^ x20: .cfa -16 + ^ x21: .cfa -24 + ^ x22: .cfa -32 + ^ x23: .cfa -40 + ^ x24: .cfa -48 + ^ x25: .cfa -56 + ^ x26: .cfa -64 + ^ x27: .cfa -72 + ^ x28: .cfa -80 + ^ .ra: .cfa -88 + ^ x29: .cfa -96 + ^
STACK CFI 21060 .cfa: sp 160 +
STACK CFI 2107c .cfa: sp 0 +
STACK CFI 21080 .cfa: x29 96 +
STACK CFI INIT 210d4 314 .cfa: sp 0 +
STACK CFI 210d8 .cfa: sp 144 +
STACK CFI 210f4 .cfa: x29 96 + x19: .cfa -8 + ^ x20: .cfa -16 + ^ x21: .cfa -24 + ^ x22: .cfa -32 + ^ x23: .cfa -40 + ^ x24: .cfa -48 + ^ x25: .cfa -56 + ^ x26: .cfa -64 + ^ x27: .cfa -72 + ^ x28: .cfa -80 + ^ .ra: .cfa -88 + ^ x29: .cfa -96 + ^
STACK CFI 21370 .cfa: sp 144 +
STACK CFI 2138c .cfa: sp 0 +
STACK CFI 21390 .cfa: x29 96 +
STACK CFI INIT 213e8 290 .cfa: sp 0 +
STACK CFI 213ec .cfa: sp 128 +
STACK CFI 21404 .cfa: x29 80 + x19: .cfa -8 + ^ x20: .cfa -16 + ^ x21: .cfa -24 + ^ x22: .cfa -32 + ^ x23: .cfa -40 + ^ x24: .cfa -48 + ^ x25: .cfa -56 + ^ x26: .cfa -64 + ^ .ra: .cfa -72 + ^ x29: .cfa -80 + ^
STACK CFI 21658 .cfa: sp 128 +
STACK CFI 21670 .cfa: sp 0 +
STACK CFI 21674 .cfa: x29 80 +
STACK CFI INIT 21678 ddc .cfa: sp 0 +
STACK CFI 2167c .cfa: sp 144 +
STACK CFI 21698 .cfa: x29 96 + x19: .cfa -8 + ^ x20: .cfa -16 + ^ x21: .cfa -24 + ^ x22: .cfa -32 + ^ x23: .cfa -40 + ^ x24: .cfa -48 + ^ x25: .cfa -56 + ^ x26: .cfa -64 + ^ x27: .cfa -72 + ^ x28: .cfa -80 + ^ .ra: .cfa -88 + ^ x29: .cfa -96 + ^
STACK CFI 2232c .cfa: sp 144 +
STACK CFI 22348 .cfa: sp 0 +
STACK CFI 2234c .cfa: x29 96 +
STACK CFI INIT 22454 1d0 .cfa: sp 0 +
STACK CFI 22458 .cfa: sp 80 +
STACK CFI 2246c .cfa: x29 80 + x19: .cfa -8 + ^ x20: .cfa -16 + ^ x21: .cfa -24 + ^ x22: .cfa -32 + ^ x23: .cfa -40 + ^ x24: .cfa -48 + ^ x25: .cfa -64 + ^ .ra: .cfa -72 + ^ x29: .cfa -80 + ^
STACK CFI 2260c .cfa: sp 80 +
STACK CFI 22620 .cfa: sp 0 +
STACK CFI INIT 22624 23c .cfa: sp 0 +
STACK CFI 22628 .cfa: sp 112 +
STACK CFI 2263c .cfa: x29 64 + x19: .cfa -8 + ^ x20: .cfa -16 + ^ x21: .cfa -24 + ^ x22: .cfa -32 + ^ x23: .cfa -40 + ^ x24: .cfa -48 + ^ .ra: .cfa -56 + ^ x29: .cfa -64 + ^
STACK CFI 22818 .cfa: sp 112 +
STACK CFI 2282c .cfa: sp 0 +
STACK CFI 22830 .cfa: x29 64 +
STACK CFI INIT 22860 30c .cfa: sp 0 +
STACK CFI 22864 .cfa: sp 80 +
STACK CFI 22878 .cfa: x29 64 + x19: .cfa -8 + ^ x20: .cfa -16 + ^ x21: .cfa -24 + ^ x22: .cfa -32 + ^ x23: .cfa -40 + ^ x24: .cfa -48 + ^ .ra: .cfa -56 + ^ x29: .cfa -64 + ^
STACK CFI 229f4 .cfa: sp 80 +
STACK CFI 22a08 .cfa: sp 0 +
STACK CFI 22a0c .cfa: x29 64 +
STACK CFI INIT 22b6c 178 .cfa: sp 0 +
STACK CFI 22b70 .cfa: sp 80 +
STACK CFI 22b84 .cfa: x29 64 + x19: .cfa -8 + ^ x20: .cfa -16 + ^ x21: .cfa -24 + ^ x22: .cfa -32 + ^ x23: .cfa -40 + ^ x24: .cfa -48 + ^ .ra: .cfa -56 + ^ x29: .cfa -64 + ^
STACK CFI 22cc8 .cfa: sp 80 +
STACK CFI 22cdc .cfa: sp 0 +
STACK CFI 22ce0 .cfa: x29 64 +
STACK CFI INIT 22ce4 178 .cfa: sp 0 +
STACK CFI 22ce8 .cfa: sp 80 +
STACK CFI 22cfc .cfa: x29 64 + x19: .cfa -8 + ^ x20: .cfa -16 + ^ x21: .cfa -24 + ^ x22: .cfa -32 + ^ x23: .cfa -40 + ^ x24: .cfa -48 + ^ .ra: .cfa -56 + ^ x29: .cfa -64 + ^
STACK CFI 22e40 .cfa: sp 80 +
STACK CFI 22e54 .cfa: sp 0 +
STACK CFI 22e58 .cfa: x29 64 +
STACK CFI INIT 22e5c 240 .cfa: sp 0 +
STACK CFI 22e60 .cfa: sp 96 +
STACK CFI 22e78 .cfa: x29 96 + x19: .cfa -8 + ^ x20: .cfa -16 + ^ x21: .cfa -24 + ^ x22: .cfa -32 + ^ x23: .cfa -40 + ^ x24: .cfa -48 + ^ x25: .cfa -56 + ^ x26: .cfa -64 + ^ x27: .cfa -72 + ^ x28: .cfa -80 + ^ .ra: .cfa -88 + ^ x29: .cfa -96 + ^
STACK CFI 23080 .cfa: sp 96 +
STACK CFI 23098 .cfa: sp 0 +
STACK CFI INIT 23d10 154 .cfa: sp 0 +
STACK CFI 23d14 .cfa: sp 96 +
STACK CFI 23d28 .cfa: x29 64 + x19: .cfa -8 + ^ x20: .cfa -16 + ^ x21: .cfa -24 + ^ x22: .cfa -32 + ^ x23: .cfa -48 + ^ .ra: .cfa -56 + ^ x29: .cfa -64 + ^
STACK CFI 23e08 .cfa: sp 96 +
STACK CFI 23e1c .cfa: sp 0 +
STACK CFI 23e20 .cfa: x29 64 +
STACK CFI INIT 240d0 44 .cfa: sp 0 +
STACK CFI 240d4 .cfa: sp 32 +
STACK CFI 240dc .cfa: x29 32 + x19: .cfa -16 + ^ .ra: .cfa -24 + ^ x29: .cfa -32 + ^
STACK CFI 240f8 .cfa: sp 32 +
STACK CFI 24100 .cfa: sp 0 +
STACK CFI 24104 .cfa: x29 32 +
STACK CFI 24108 .cfa: sp 32 +
STACK CFI 24110 .cfa: sp 0 +
STACK CFI INIT 24114 1d0 .cfa: sp 0 +
STACK CFI 24118 .cfa: sp 64 +
STACK CFI 24128 .cfa: x29 64 + x19: .cfa -8 + ^ x20: .cfa -16 + ^ x21: .cfa -24 + ^ x22: .cfa -32 + ^ x23: .cfa -40 + ^ x24: .cfa -48 + ^ .ra: .cfa -56 + ^ x29: .cfa -64 + ^
STACK CFI 241e8 .cfa: sp 64 +
STACK CFI 241f8 .cfa: sp 0 +
STACK CFI 241fc .cfa: x29 64 +
STACK CFI INIT 242e4 17c .cfa: sp 0 +
STACK CFI INIT 24818 a0 .cfa: sp 0 +
STACK CFI 2481c .cfa: sp 48 +
STACK CFI 24828 .cfa: x29 48 + x19: .cfa -8 + ^ x20: .cfa -16 + ^ x21: .cfa -24 + ^ x22: .cfa -32 + ^ .ra: .cfa -40 + ^ x29: .cfa -48 + ^
STACK CFI 24894 .cfa: sp 48 +
STACK CFI 248a0 .cfa: sp 0 +
STACK CFI 248a4 .cfa: sp 48 +
STACK CFI 248b0 .cfa: sp 0 +
STACK CFI 248b4 .cfa: x29 48 +
STACK CFI INIT 2556c 158 .cfa: sp 0 +
STACK CFI 25570 .cfa: sp 96 +
STACK CFI 25584 .cfa: x29 64 + x19: .cfa -8 + ^ x20: .cfa -16 + ^ x21: .cfa -24 + ^ x22: .cfa -32 + ^ x23: .cfa -48 + ^ .ra: .cfa -56 + ^ x29: .cfa -64 + ^
STACK CFI 25668 .cfa: sp 96 +
STACK CFI 2567c .cfa: sp 0 +
STACK CFI 25680 .cfa: x29 64 +
STACK CFI INIT 256c4 190 .cfa: sp 0 +
STACK CFI INIT 26350 1dc .cfa: sp 0 +
STACK CFI 26354 .cfa: sp 80 +
STACK CFI 26368 .cfa: x29 80 + x19: .cfa -8 + ^ x20: .cfa -16 + ^ x21: .cfa -24 + ^ x22: .cfa -32 + ^ x23: .cfa -40 + ^ x24: .cfa -48 + ^ x25: .cfa -64 + ^ .ra: .cfa -72 + ^ x29: .cfa -80 + ^
STACK CFI 26514 .cfa: sp 80 +
STACK CFI 26528 .cfa: sp 0 +
STACK CFI INIT 2795c 124 .cfa: sp 0 +
STACK CFI 2798c .cfa: sp 32 +
STACK CFI 27994 .cfa: x29 32 + x19: .cfa -8 + ^ x20: .cfa -16 + ^ .ra: .cfa -24 + ^ x29: .cfa -32 + ^
STACK CFI 27a74 .cfa: sp 32 +
STACK CFI 27a7c .cfa: sp 0 +
STACK CFI INIT 281dc 320 .cfa: sp 0 +
STACK CFI 281e0 .cfa: sp 64 +
STACK CFI 281f0 .cfa: x29 64 + x19: .cfa -8 + ^ x20: .cfa -16 + ^ x21: .cfa -24 + ^ x22: .cfa -32 + ^ x23: .cfa -40 + ^ x24: .cfa -48 + ^ .ra: .cfa -56 + ^ x29: .cfa -64 + ^
STACK CFI 2826c .cfa: sp 64 +
STACK CFI 2827c .cfa: sp 0 +
STACK CFI 28280 .cfa: x29 64 +
STACK CFI 28454 .cfa: sp 64 +
STACK CFI 28464 .cfa: sp 0 +
STACK CFI 28468 .cfa: x29 64 +
STACK CFI 28478 .cfa: sp 64 +
STACK CFI 28488 .cfa: sp 0 +
STACK CFI 2848c .cfa: x29 64 +
STACK CFI INIT 284fc a0 .cfa: sp 0 +
STACK CFI 28500 .cfa: sp 48 +
STACK CFI 2850c .cfa: x29 48 + x19: .cfa -8 + ^ x20: .cfa -16 + ^ x21: .cfa -24 + ^ x22: .cfa -32 + ^ .ra: .cfa -40 + ^ x29: .cfa -48 + ^
STACK CFI 28578 .cfa: sp 48 +
STACK CFI 28584 .cfa: sp 0 +
STACK CFI 28588 .cfa: sp 48 +
STACK CFI 28594 .cfa: sp 0 +
STACK CFI 28598 .cfa: x29 48 +
STACK CFI INIT 2944c 160 .cfa: sp 0 +
STACK CFI 29450 .cfa: sp 64 +
STACK CFI 29460 .cfa: x29 64 + x19: .cfa -8 + ^ x20: .cfa -16 + ^ x21: .cfa -24 + ^ x22: .cfa -32 + ^ x23: .cfa -48 + ^ .ra: .cfa -56 + ^ x29: .cfa -64 + ^
STACK CFI 29558 .cfa: sp 64 +
STACK CFI 29568 .cfa: sp 0 +
STACK CFI 2956c .cfa: x29 64 +
STACK CFI INIT 295ac 214 .cfa: sp 0 +
STACK CFI 295b0 .cfa: sp 128 +
STACK CFI 295cc .cfa: x29 96 + x19: .cfa -8 + ^ x20: .cfa -16 + ^ x21: .cfa -24 + ^ x22: .cfa -32 + ^ x23: .cfa -40 + ^ x24: .cfa -48 + ^ x25: .cfa -56 + ^ x26: .cfa -64 + ^ x27: .cfa -80 + ^ .ra: .cfa -88 + ^ x29: .cfa -96 + ^
STACK CFI 29748 .cfa: sp 128 +
STACK CFI 29764 .cfa: sp 0 +
STACK CFI 29768 .cfa: x29 96 +
STACK CFI INIT 2b45c 290 .cfa: sp 0 +
STACK CFI 2b460 .cfa: sp 16 +
STACK CFI 2b464 .cfa: x29 16 + .ra: .cfa -8 + ^ x29: .cfa -16 + ^
STACK CFI 2b4f0 .cfa: sp 16 +
STACK CFI 2b4f4 .cfa: sp 0 +
STACK CFI 2b4f8 .cfa: x29 16 +
STACK CFI 2b548 .cfa: sp 16 +
STACK CFI 2b54c .cfa: sp 0 +
STACK CFI 2b550 .cfa: x29 16 +
STACK CFI 2b6b4 .cfa: sp 16 +
STACK CFI 2b6b8 .cfa: sp 0 +
STACK CFI 2b6bc .cfa: x29 16 +
STACK CFI INIT 2b6ec 158 .cfa: sp 0 +
STACK CFI 2b6f0 .cfa: sp 112 +
STACK CFI 2b70c .cfa: x29 96 + x19: .cfa -8 + ^ x20: .cfa -16 + ^ x21: .cfa -24 + ^ x22: .cfa -32 + ^ x23: .cfa -40 + ^ x24: .cfa -48 + ^ x25: .cfa -56 + ^ x26: .cfa -64 + ^ x27: .cfa -72 + ^ x28: .cfa -80 + ^ .ra: .cfa -88 + ^ x29: .cfa -96 + ^
STACK CFI 2b7f4 .cfa: sp 112 +
STACK CFI 2b7f8 .cfa: x29 96 +
STACK CFI 2b800 .cfa: sp 112 +
STACK CFI 2b81c .cfa: sp 0 +
STACK CFI 2b820 .cfa: x29 96 +
STACK CFI 2b840 .cfa: sp 112 +
STACK CFI INIT 2b844 e54 .cfa: sp 0 +
STACK CFI 2b848 .cfa: sp 192 +
STACK CFI 2b864 .cfa: x29 96 + x19: .cfa -8 + ^ x20: .cfa -16 + ^ x21: .cfa -24 + ^ x22: .cfa -32 + ^ x23: .cfa -40 + ^ x24: .cfa -48 + ^ x25: .cfa -56 + ^ x26: .cfa -64 + ^ x27: .cfa -72 + ^ x28: .cfa -80 + ^ .ra: .cfa -88 + ^ x29: .cfa -96 + ^
STACK CFI 2c580 .cfa: sp 192 +
STACK CFI 2c59c .cfa: sp 0 +
STACK CFI 2c5a0 .cfa: x29 96 +
STACK CFI INIT 2c698 1068 .cfa: sp 0 +
STACK CFI 2c69c .cfa: sp 288 +
STACK CFI 2c6b8 .cfa: x29 96 + x19: .cfa -8 + ^ x20: .cfa -16 + ^ x21: .cfa -24 + ^ x22: .cfa -32 + ^ x23: .cfa -40 + ^ x24: .cfa -48 + ^ x25: .cfa -56 + ^ x26: .cfa -64 + ^ x27: .cfa -72 + ^ x28: .cfa -80 + ^ .ra: .cfa -88 + ^ x29: .cfa -96 + ^
STACK CFI 2d448 .cfa: sp 288 +
STACK CFI 2d464 .cfa: sp 0 +
STACK CFI 2d468 .cfa: x29 96 +
STACK CFI INIT 2d700 520 .cfa: sp 0 +
STACK CFI 2d704 .cfa: sp 144 +
STACK CFI 2d720 .cfa: x29 96 + x19: .cfa -8 + ^ x20: .cfa -16 + ^ x21: .cfa -24 + ^ x22: .cfa -32 + ^ x23: .cfa -40 + ^ x24: .cfa -48 + ^ x25: .cfa -56 + ^ x26: .cfa -64 + ^ x27: .cfa -72 + ^ x28: .cfa -80 + ^ .ra: .cfa -88 + ^ x29: .cfa -96 + ^
STACK CFI 2dbfc .cfa: sp 144 +
STACK CFI 2dc18 .cfa: sp 0 +
STACK CFI 2dc1c .cfa: x29 96 +
STACK CFI INIT 2e5c0 136c .cfa: sp 0 +
STACK CFI 2e5c4 .cfa: sp 224 +
STACK CFI 2e5e0 .cfa: x29 96 + x19: .cfa -8 + ^ x20: .cfa -16 + ^ x21: .cfa -24 + ^ x22: .cfa -32 + ^ x23: .cfa -40 + ^ x24: .cfa -48 + ^ x25: .cfa -56 + ^ x26: .cfa -64 + ^ x27: .cfa -72 + ^ x28: .cfa -80 + ^ .ra: .cfa -88 + ^ x29: .cfa -96 + ^
STACK CFI 2f908 .cfa: sp 224 +
STACK CFI 2f924 .cfa: sp 0 +
STACK CFI 2f928 .cfa: x29 96 +
STACK CFI INIT 2f92c 1b8 .cfa: sp 0 +
STACK CFI INIT 1308c 484 .cfa: sp 0 +
STACK CFI 13090 .cfa: sp 224 +
STACK CFI 130ac .cfa: x29 96 + x19: .cfa -8 + ^ x20: .cfa -16 + ^ x21: .cfa -24 + ^ x22: .cfa -32 + ^ x23: .cfa -40 + ^ x24: .cfa -48 + ^ x25: .cfa -56 + ^ x26: .cfa -64 + ^ x27: .cfa -72 + ^ x28: .cfa -80 + ^ .ra: .cfa -88 + ^ x29: .cfa -96 + ^
STACK CFI 1331c .cfa: sp 224 +
STACK CFI 13338 .cfa: sp 0 +
STACK CFI 1333c .cfa: x29 96 +
STACK CFI 13408 .cfa: sp 224 +
STACK CFI 13424 .cfa: sp 0 +
STACK CFI 13428 .cfa: x29 96 +
STACK CFI INIT 13528 484 .cfa: sp 0 +
STACK CFI 1352c .cfa: sp 224 +
STACK CFI 13548 .cfa: x29 96 + x19: .cfa -8 + ^ x20: .cfa -16 + ^ x21: .cfa -24 + ^ x22: .cfa -32 + ^ x23: .cfa -40 + ^ x24: .cfa -48 + ^ x25: .cfa -56 + ^ x26: .cfa -64 + ^ x27: .cfa -72 + ^ x28: .cfa -80 + ^ .ra: .cfa -88 + ^ x29: .cfa -96 + ^
STACK CFI 137b8 .cfa: sp 224 +
STACK CFI 137d4 .cfa: sp 0 +
STACK CFI 137d8 .cfa: x29 96 +
STACK CFI 138a4 .cfa: sp 224 +
STACK CFI 138c0 .cfa: sp 0 +
STACK CFI 138c4 .cfa: x29 96 +
STACK CFI INIT 139c4 484 .cfa: sp 0 +
STACK CFI 139c8 .cfa: sp 224 +
STACK CFI 139e4 .cfa: x29 96 + x19: .cfa -8 + ^ x20: .cfa -16 + ^ x21: .cfa -24 + ^ x22: .cfa -32 + ^ x23: .cfa -40 + ^ x24: .cfa -48 + ^ x25: .cfa -56 + ^ x26: .cfa -64 + ^ x27: .cfa -72 + ^ x28: .cfa -80 + ^ .ra: .cfa -88 + ^ x29: .cfa -96 + ^
STACK CFI 13c54 .cfa: sp 224 +
STACK CFI 13c70 .cfa: sp 0 +
STACK CFI 13c74 .cfa: x29 96 +
STACK CFI 13d40 .cfa: sp 224 +
STACK CFI 13d5c .cfa: sp 0 +
STACK CFI 13d60 .cfa: x29 96 +
STACK CFI INIT 13fdc 50 .cfa: sp 0 +
STACK CFI 13fe0 .cfa: sp 32 +
STACK CFI 13fe8 .cfa: x29 32 + x19: .cfa -8 + ^ x20: .cfa -16 + ^ .ra: .cfa -24 + ^ x29: .cfa -32 + ^
STACK CFI INIT 1425c 304 .cfa: sp 0 +
STACK CFI 14260 .cfa: sp 128 +
STACK CFI 1427c .cfa: x29 96 + x19: .cfa -8 + ^ x20: .cfa -16 + ^ x21: .cfa -24 + ^ x22: .cfa -32 + ^ x23: .cfa -40 + ^ x24: .cfa -48 + ^ x25: .cfa -56 + ^ x26: .cfa -64 + ^ x27: .cfa -72 + ^ x28: .cfa -80 + ^ .ra: .cfa -88 + ^ x29: .cfa -96 + ^
STACK CFI 144e0 .cfa: sp 128 +
STACK CFI 144fc .cfa: sp 0 +
STACK CFI 14500 .cfa: x29 96 +
STACK CFI INIT 14560 16bc .cfa: sp 0 +
STACK CFI 14564 .cfa: sp 320 +
STACK CFI 14580 .cfa: x29 96 + x19: .cfa -8 + ^ x20: .cfa -16 + ^ x21: .cfa -24 + ^ x22: .cfa -32 + ^ x23: .cfa -40 + ^ x24: .cfa -48 + ^ x25: .cfa -56 + ^ x26: .cfa -64 + ^ x27: .cfa -72 + ^ x28: .cfa -80 + ^ .ra: .cfa -88 + ^ x29: .cfa -96 + ^
STACK CFI 15650 .cfa: sp 320 +
STACK CFI 1566c .cfa: sp 0 +
STACK CFI 15670 .cfa: x29 96 +
STACK CFI INIT 15c6c 74 .cfa: sp 0 +
STACK CFI 15c70 .cfa: sp 48 +
STACK CFI 15c7c .cfa: x29 32 + x19: .cfa -8 + ^ x20: .cfa -16 + ^ .ra: .cfa -24 + ^ x29: .cfa -32 + ^
STACK CFI 15cc8 .cfa: sp 48 +
STACK CFI 15cd4 .cfa: sp 0 +
STACK CFI 15cd8 .cfa: x29 32 +
STACK CFI INIT 15d60 154 .cfa: sp 0 +
STACK CFI 15d64 .cfa: sp 384 +
STACK CFI 15d78 .cfa: x29 64 + x19: .cfa -8 + ^ x20: .cfa -16 + ^ x21: .cfa -24 + ^ x22: .cfa -32 + ^ x23: .cfa -40 + ^ x28: .cfa -48 + ^ .ra: .cfa -56 + ^ x29: .cfa -64 + ^
STACK CFI 15e5c .cfa: sp 384 +
STACK CFI 15e70 .cfa: sp 0 +
STACK CFI 15e74 .cfa: x29 64 +
STACK CFI INIT 15ee8 12c .cfa: sp 0 +
STACK CFI 15eec .cfa: sp 80 +
STACK CFI 15f00 .cfa: x29 80 + x19: .cfa -8 + ^ x20: .cfa -16 + ^ x21: .cfa -24 + ^ x22: .cfa -32 + ^ x23: .cfa -40 + ^ x24: .cfa -48 + ^ x25: .cfa -56 + ^ x26: .cfa -64 + ^ .ra: .cfa -72 + ^ x29: .cfa -80 + ^
STACK CFI 15fc8 .cfa: sp 80 +
STACK CFI 15fdc .cfa: sp 0 +
STACK CFI 15fe0 .cfa: x29 80 +
STACK CFI INIT 160b8 1a4 .cfa: sp 0 +
STACK CFI 160bc .cfa: sp 112 +
STACK CFI 160d4 .cfa: x29 80 + x19: .cfa -8 + ^ x20: .cfa -16 + ^ x21: .cfa -24 + ^ x22: .cfa -32 + ^ x23: .cfa -40 + ^ x24: .cfa -48 + ^ x25: .cfa -56 + ^ x26: .cfa -64 + ^ .ra: .cfa -72 + ^ x29: .cfa -80 + ^
STACK CFI 161c4 .cfa: sp 112 +
STACK CFI 161dc .cfa: sp 0 +
STACK CFI 161e0 .cfa: x29 80 +
STACK CFI INIT 1625c 1dc .cfa: sp 0 +
STACK CFI 16260 .cfa: sp 128 +
STACK CFI 1627c .cfa: x29 96 + x19: .cfa -8 + ^ x20: .cfa -16 + ^ x21: .cfa -24 + ^ x22: .cfa -32 + ^ x23: .cfa -40 + ^ x24: .cfa -48 + ^ x25: .cfa -56 + ^ x26: .cfa -64 + ^ x27: .cfa -80 + ^ .ra: .cfa -88 + ^ x29: .cfa -96 + ^
STACK CFI 163e8 .cfa: sp 128 +
STACK CFI 16404 .cfa: sp 0 +
STACK CFI 16408 .cfa: x29 96 +
STACK CFI INIT 16438 178 .cfa: sp 0 +
STACK CFI 1643c .cfa: sp 80 +
STACK CFI 16450 .cfa: x29 80 + x19: .cfa -8 + ^ x20: .cfa -16 + ^ x21: .cfa -24 + ^ x22: .cfa -32 + ^ x23: .cfa -40 + ^ x24: .cfa -48 + ^ x25: .cfa -64 + ^ .ra: .cfa -72 + ^ x29: .cfa -80 + ^
STACK CFI 1657c .cfa: sp 80 +
STACK CFI 16590 .cfa: sp 0 +
STACK CFI 16594 .cfa: x29 80 +
STACK CFI INIT 166f8 224 .cfa: sp 0 +
STACK CFI 166fc .cfa: sp 128 +
STACK CFI 16714 .cfa: x29 80 + x19: .cfa -8 + ^ x20: .cfa -16 + ^ x21: .cfa -24 + ^ x22: .cfa -32 + ^ x23: .cfa -40 + ^ x24: .cfa -48 + ^ x25: .cfa -64 + ^ .ra: .cfa -72 + ^ x29: .cfa -80 + ^
STACK CFI 168b0 .cfa: sp 128 +
STACK CFI 168c8 .cfa: sp 0 +
STACK CFI 168cc .cfa: x29 80 +
STACK CFI INIT 16ff8 3b8 .cfa: sp 0 +
STACK CFI 16ffc .cfa: sp 96 +
STACK CFI 17014 .cfa: x29 96 + x19: .cfa -8 + ^ x20: .cfa -16 + ^ x21: .cfa -24 + ^ x22: .cfa -32 + ^ x23: .cfa -40 + ^ x24: .cfa -48 + ^ x25: .cfa -56 + ^ x26: .cfa -64 + ^ x28: .cfa -80 + ^ .ra: .cfa -88 + ^ x29: .cfa -96 + ^
STACK CFI 17330 .cfa: sp 96 +
STACK CFI 17348 .cfa: sp 0 +
STACK CFI 1734c .cfa: x29 96 +
STACK CFI INIT 173b0 69c .cfa: sp 0 +
STACK CFI 173b4 .cfa: sp 224 +
STACK CFI 173c8 .cfa: x29 64 + x19: .cfa -8 + ^ x20: .cfa -16 + ^ x21: .cfa -24 + ^ x22: .cfa -32 + ^ x23: .cfa -48 + ^ .ra: .cfa -56 + ^ x29: .cfa -64 + ^
STACK CFI 1744c .cfa: sp 224 +
STACK CFI 17460 .cfa: sp 0 +
STACK CFI 17464 .cfa: x29 64 +
STACK CFI 17484 .cfa: sp 224 +
STACK CFI 17498 .cfa: sp 0 +
STACK CFI 1749c .cfa: x29 64 +
STACK CFI 17588 .cfa: sp 224 +
STACK CFI 1759c .cfa: sp 0 +
STACK CFI 175a0 .cfa: x29 64 +
STACK CFI 175d4 .cfa: sp 224 +
STACK CFI 175e8 .cfa: sp 0 +
STACK CFI 175ec .cfa: x29 64 +
STACK CFI INIT 17a4c 134 .cfa: sp 0 +
STACK CFI 17a50 .cfa: sp 128 +
STACK CFI 17a64 .cfa: x29 64 + x19: .cfa -8 + ^ x20: .cfa -16 + ^ x21: .cfa -24 + ^ x22: .cfa -32 + ^ x23: .cfa -40 + ^ x24: .cfa -48 + ^ .ra: .cfa -56 + ^ x29: .cfa -64 + ^
STACK CFI 17b30 .cfa: sp 128 +
STACK CFI 17b44 .cfa: sp 0 +
STACK CFI 17b48 .cfa: x29 64 +
STACK CFI INIT 17bb4 15c .cfa: sp 0 +
STACK CFI 17bb8 .cfa: sp 96 +
STACK CFI 17bc8 .cfa: x29 48 + x19: .cfa -8 + ^ x20: .cfa -16 + ^ x21: .cfa -24 + ^ x22: .cfa -32 + ^ .ra: .cfa -40 + ^ x29: .cfa -48 + ^
STACK CFI 17ca4 .cfa: sp 96 +
STACK CFI 17cb4 .cfa: sp 0 +
STACK CFI 17cb8 .cfa: x29 48 +
STACK CFI INIT 17dd8 6e0 .cfa: sp 0 +
STACK CFI 17ddc .cfa: sp 224 +
STACK CFI 17df8 .cfa: x29 96 + x19: .cfa -8 + ^ x20: .cfa -16 + ^ x21: .cfa -24 + ^ x22: .cfa -32 + ^ x23: .cfa -40 + ^ x24: .cfa -48 + ^ x25: .cfa -56 + ^ x26: .cfa -64 + ^ x27: .cfa -72 + ^ x28: .cfa -80 + ^ .ra: .cfa -88 + ^ x29: .cfa -96 + ^
STACK CFI 182e8 .cfa: sp 224 +
STACK CFI 18304 .cfa: sp 0 +
STACK CFI 18308 .cfa: x29 96 +
STACK CFI INIT 185b4 50 .cfa: sp 0 +
STACK CFI 185b8 .cfa: sp 32 +
STACK CFI 185c0 .cfa: x29 32 + x19: .cfa -8 + ^ x20: .cfa -16 + ^ .ra: .cfa -24 + ^ x29: .cfa -32 + ^
STACK CFI INIT 18730 1ac .cfa: sp 0 +
STACK CFI 18734 .cfa: sp 128 +
STACK CFI 18744 .cfa: x29 48 + x19: .cfa -8 + ^ x20: .cfa -16 + ^ x21: .cfa -24 + ^ x22: .cfa -32 + ^ .ra: .cfa -40 + ^ x29: .cfa -48 + ^
STACK CFI 18860 .cfa: sp 128 +
STACK CFI 18870 .cfa: sp 0 +
STACK CFI 18874 .cfa: x29 48 +
STACK CFI INIT 18b68 204 .cfa: sp 0 +
STACK CFI 18b6c .cfa: sp 128 +
STACK CFI 18b80 .cfa: x29 64 + x19: .cfa -8 + ^ x20: .cfa -16 + ^ x21: .cfa -24 + ^ x22: .cfa -32 + ^ x23: .cfa -40 + ^ x24: .cfa -48 + ^ .ra: .cfa -56 + ^ x29: .cfa -64 + ^
STACK CFI 18ca4 .cfa: sp 128 +
STACK CFI 18cb8 .cfa: sp 0 +
STACK CFI 18cbc .cfa: x29 64 +
STACK CFI INIT 19028 1d0 .cfa: sp 0 +
STACK CFI 1902c .cfa: sp 128 +
STACK CFI 19040 .cfa: x29 64 + x19: .cfa -8 + ^ x20: .cfa -16 + ^ x21: .cfa -24 + ^ x22: .cfa -32 + ^ x23: .cfa -48 + ^ .ra: .cfa -56 + ^ x29: .cfa -64 + ^
STACK CFI 191b8 .cfa: sp 128 +
STACK CFI 191cc .cfa: sp 0 +
STACK CFI 191d0 .cfa: x29 64 +
STACK CFI INIT 1950c 1c4 .cfa: sp 0 +
STACK CFI 19510 .cfa: sp 112 +
STACK CFI 19520 .cfa: x29 48 + x19: .cfa -8 + ^ x20: .cfa -16 + ^ x21: .cfa -24 + ^ x22: .cfa -32 + ^ .ra: .cfa -40 + ^ x29: .cfa -48 + ^
STACK CFI 19694 .cfa: sp 112 +
STACK CFI 196a4 .cfa: sp 0 +
STACK CFI 196a8 .cfa: x29 48 +
STACK CFI INIT 19a10 130 .cfa: sp 0 +
STACK CFI 19a14 .cfa: sp 80 +
STACK CFI 19a20 .cfa: x29 32 + x19: .cfa -8 + ^ x20: .cfa -16 + ^ .ra: .cfa -24 + ^ x29: .cfa -32 + ^
STACK CFI 19a58 .cfa: sp 80 +
STACK CFI 19a64 .cfa: sp 0 +
STACK CFI 19a68 .cfa: x29 32 +
STACK CFI 19aec .cfa: sp 80 +
STACK CFI 19af8 .cfa: sp 0 +
STACK CFI 19afc .cfa: x29 32 +
STACK CFI INIT 19b40 f4 .cfa: sp 0 +
STACK CFI 19b44 .cfa: sp 96 +
STACK CFI 19b54 .cfa: x29 48 + x19: .cfa -8 + ^ x20: .cfa -16 + ^ x21: .cfa -32 + ^ .ra: .cfa -40 + ^ x29: .cfa -48 + ^
STACK CFI 19be0 .cfa: sp 96 +
STACK CFI 19bf0 .cfa: sp 0 +
STACK CFI 19bf4 .cfa: x29 48 +
STACK CFI INIT 19c34 2c4 .cfa: sp 0 +
STACK CFI 19c38 .cfa: sp 80 +
STACK CFI 19c4c .cfa: x29 80 + x19: .cfa -8 + ^ x20: .cfa -16 + ^ x21: .cfa -24 + ^ x22: .cfa -32 + ^ x23: .cfa -40 + ^ x24: .cfa -48 + ^ x25: .cfa -56 + ^ x28: .cfa -64 + ^ .ra: .cfa -72 + ^ x29: .cfa -80 + ^
STACK CFI 19e58 .cfa: sp 80 +
STACK CFI 19e6c .cfa: sp 0 +
STACK CFI 19e70 .cfa: x29 80 +
STACK CFI INIT 19ef8 218 .cfa: sp 0 +
STACK CFI 19efc .cfa: sp 112 +
STACK CFI 19f10 .cfa: x29 64 + x19: .cfa -8 + ^ x20: .cfa -16 + ^ x21: .cfa -24 + ^ x22: .cfa -32 + ^ x23: .cfa -48 + ^ .ra: .cfa -56 + ^ x29: .cfa -64 + ^
STACK CFI 1a0b4 .cfa: sp 112 +
STACK CFI 1a0c8 .cfa: sp 0 +
STACK CFI 1a0cc .cfa: x29 64 +
STACK CFI INIT 1a168 584 .cfa: sp 0 +
STACK CFI 1a16c .cfa: sp 96 +
STACK CFI 1a184 .cfa: x29 96 + x19: .cfa -8 + ^ x20: .cfa -16 + ^ x21: .cfa -24 + ^ x22: .cfa -32 + ^ x23: .cfa -40 + ^ x24: .cfa -48 + ^ x25: .cfa -56 + ^ x26: .cfa -64 + ^ x28: .cfa -80 + ^ .ra: .cfa -88 + ^ x29: .cfa -96 + ^
STACK CFI 1a444 .cfa: sp 96 +
STACK CFI 1a45c .cfa: sp 0 +
STACK CFI 1a460 .cfa: x29 96 +
STACK CFI 1a5bc .cfa: sp 96 +
STACK CFI 1a5d4 .cfa: sp 0 +
STACK CFI 1a5d8 .cfa: x29 96 +
STACK CFI INIT 1a714 74 .cfa: sp 0 +
STACK CFI 1a718 .cfa: sp 48 +
STACK CFI 1a724 .cfa: x29 32 + x19: .cfa -8 + ^ x20: .cfa -16 + ^ .ra: .cfa -24 + ^ x29: .cfa -32 + ^
STACK CFI 1a770 .cfa: sp 48 +
STACK CFI 1a77c .cfa: sp 0 +
STACK CFI 1a780 .cfa: x29 32 +
STACK CFI INIT 1a7b4 374 .cfa: sp 0 +
STACK CFI 1a7b8 .cfa: sp 256 +
STACK CFI 1a7cc .cfa: x29 64 + x19: .cfa -8 + ^ x20: .cfa -16 + ^ x21: .cfa -24 + ^ x22: .cfa -32 + ^ x23: .cfa -48 + ^ .ra: .cfa -56 + ^ x29: .cfa -64 + ^
STACK CFI 1a9fc .cfa: sp 256 +
STACK CFI 1aa10 .cfa: sp 0 +
STACK CFI 1aa14 .cfa: x29 64 +
STACK CFI INIT 1ac5c 374 .cfa: sp 0 +
STACK CFI 1ac60 .cfa: sp 256 +
STACK CFI 1ac74 .cfa: x29 64 + x19: .cfa -8 + ^ x20: .cfa -16 + ^ x21: .cfa -24 + ^ x22: .cfa -32 + ^ x23: .cfa -48 + ^ .ra: .cfa -56 + ^ x29: .cfa -64 + ^
STACK CFI 1aea4 .cfa: sp 256 +
STACK CFI 1aeb8 .cfa: sp 0 +
STACK CFI 1aebc .cfa: x29 64 +
STACK CFI INIT 1b154 2b0 .cfa: sp 0 +
STACK CFI 1b158 .cfa: sp 112 +
STACK CFI 1b168 .cfa: x29 48 + x19: .cfa -8 + ^ x20: .cfa -16 + ^ x21: .cfa -24 + ^ x22: .cfa -32 + ^ .ra: .cfa -40 + ^ x29: .cfa -48 + ^
STACK CFI 1b35c .cfa: sp 112 +
STACK CFI 1b36c .cfa: sp 0 +
STACK CFI 1b370 .cfa: x29 48 +
STACK CFI INIT 1b404 e8 .cfa: sp 0 +
STACK CFI 1b408 .cfa: sp 32 +
STACK CFI 1b410 .cfa: x29 32 + x19: .cfa -8 + ^ x20: .cfa -16 + ^ .ra: .cfa -24 + ^ x29: .cfa -32 + ^
STACK CFI 1b4ac .cfa: sp 32 +
STACK CFI 1b4b4 .cfa: sp 0 +
STACK CFI 1b4b8 .cfa: x29 32 +
STACK CFI 1b4cc .cfa: sp 32 +
STACK CFI 1b4d4 .cfa: sp 0 +
STACK CFI 1b4d8 .cfa: x29 32 +
STACK CFI INIT 1b608 2bc .cfa: sp 0 +
STACK CFI 1b60c .cfa: sp 32 +
STACK CFI 1b614 .cfa: x29 32 + x19: .cfa -16 + ^ .ra: .cfa -24 + ^ x29: .cfa -32 + ^
STACK CFI 1b748 .cfa: sp 32 +
STACK CFI 1b750 .cfa: sp 0 +
STACK CFI 1b754 .cfa: x29 32 +
STACK CFI 1b860 .cfa: sp 32 +
STACK CFI 1b868 .cfa: sp 0 +
STACK CFI 1b86c .cfa: x29 32 +
STACK CFI INIT 1b8c4 134 .cfa: sp 0 +
STACK CFI 1b8c8 .cfa: sp 80 +
STACK CFI 1b8d4 .cfa: x29 32 + x19: .cfa -8 + ^ x20: .cfa -16 + ^ .ra: .cfa -24 + ^ x29: .cfa -32 + ^
STACK CFI 1b904 .cfa: sp 80 +
STACK CFI 1b910 .cfa: sp 0 +
STACK CFI 1b914 .cfa: x29 32 +
STACK CFI INIT 1b9f8 78 .cfa: sp 0 +
STACK CFI 1b9fc .cfa: sp 32 +
STACK CFI 1ba04 .cfa: x29 32 + x19: .cfa -8 + ^ x20: .cfa -16 + ^ .ra: .cfa -24 + ^ x29: .cfa -32 + ^
STACK CFI 1ba10 .cfa: sp 32 +
STACK CFI 1ba18 .cfa: sp 0 +
STACK CFI 1ba1c .cfa: x29 32 +
STACK CFI INIT 1ba70 74 .cfa: sp 0 +
STACK CFI 1ba74 .cfa: sp 48 +
STACK CFI 1ba80 .cfa: x29 32 + x19: .cfa -8 + ^ x20: .cfa -16 + ^ .ra: .cfa -24 + ^ x29: .cfa -32 + ^
STACK CFI 1bacc .cfa: sp 48 +
STACK CFI 1bad8 .cfa: sp 0 +
STACK CFI 1badc .cfa: x29 32 +
STACK CFI INIT 1bb48 180 .cfa: sp 0 +
STACK CFI 1bb4c .cfa: sp 112 +
STACK CFI 1bb5c .cfa: x29 48 + x19: .cfa -8 + ^ x20: .cfa -16 + ^ x21: .cfa -32 + ^ .ra: .cfa -40 + ^ x29: .cfa -48 + ^
STACK CFI 1bbb4 .cfa: sp 112 +
STACK CFI 1bbc4 .cfa: sp 0 +
STACK CFI 1bbc8 .cfa: x29 48 +
STACK CFI INIT 1bcc8 294 .cfa: sp 0 +
STACK CFI 1bccc .cfa: sp 112 +
STACK CFI 1bcdc .cfa: x29 48 + x19: .cfa -8 + ^ x20: .cfa -16 + ^ x21: .cfa -32 + ^ .ra: .cfa -40 + ^ x29: .cfa -48 + ^
STACK CFI 1bd70 .cfa: sp 112 +
STACK CFI 1bd80 .cfa: sp 0 +
STACK CFI 1bd84 .cfa: x29 48 +
STACK CFI INIT 1bfc8 1a8 .cfa: sp 0 +
STACK CFI 1bfcc .cfa: sp 112 +
STACK CFI 1bfdc .cfa: x29 48 + x19: .cfa -8 + ^ x20: .cfa -16 + ^ x21: .cfa -32 + ^ .ra: .cfa -40 + ^ x29: .cfa -48 + ^
STACK CFI 1c05c .cfa: sp 112 +
STACK CFI 1c06c .cfa: sp 0 +
STACK CFI 1c070 .cfa: x29 48 +
STACK CFI INIT 1c194 234 .cfa: sp 0 +
STACK CFI 1c198 .cfa: sp 128 +
STACK CFI 1c1ac .cfa: x29 64 + x19: .cfa -8 + ^ x20: .cfa -16 + ^ x21: .cfa -24 + ^ x22: .cfa -32 + ^ x23: .cfa -48 + ^ .ra: .cfa -56 + ^ x29: .cfa -64 + ^
STACK CFI 1c25c .cfa: sp 128 +
STACK CFI 1c270 .cfa: sp 0 +
STACK CFI 1c274 .cfa: x29 64 +
STACK CFI INIT 1c3c8 23c .cfa: sp 0 +
STACK CFI 1c3cc .cfa: sp 128 +
STACK CFI 1c3e0 .cfa: x29 64 + x19: .cfa -8 + ^ x20: .cfa -16 + ^ x21: .cfa -24 + ^ x22: .cfa -32 + ^ x23: .cfa -48 + ^ .ra: .cfa -56 + ^ x29: .cfa -64 + ^
STACK CFI 1c498 .cfa: sp 128 +
STACK CFI 1c4ac .cfa: sp 0 +
STACK CFI 1c4b0 .cfa: x29 64 +
STACK CFI INIT 1c604 1ac .cfa: sp 0 +
STACK CFI 1c608 .cfa: sp 160 +
STACK CFI 1c61c .cfa: x29 64 + x19: .cfa -8 + ^ x20: .cfa -16 + ^ x21: .cfa -24 + ^ x22: .cfa -32 + ^ x23: .cfa -40 + ^ x24: .cfa -48 + ^ .ra: .cfa -56 + ^ x29: .cfa -64 + ^
STACK CFI 1c69c .cfa: sp 160 +
STACK CFI 1c6b0 .cfa: sp 0 +
STACK CFI 1c6b4 .cfa: x29 64 +
STACK CFI INIT 1c7b0 2d8 .cfa: sp 0 +
STACK CFI 1c7b4 .cfa: sp 96 +
STACK CFI 1c7cc .cfa: x29 80 + x19: .cfa -8 + ^ x20: .cfa -16 + ^ x21: .cfa -24 + ^ x22: .cfa -32 + ^ x23: .cfa -40 + ^ x24: .cfa -48 + ^ x25: .cfa -64 + ^ .ra: .cfa -72 + ^ x29: .cfa -80 + ^
STACK CFI 1ca24 .cfa: sp 96 +
STACK CFI 1ca3c .cfa: sp 0 +
STACK CFI 1ca40 .cfa: x29 80 +
STACK CFI INIT 1ca88 190 .cfa: sp 0 +
STACK CFI 1ca8c .cfa: sp 144 +
STACK CFI 1caa0 .cfa: x29 64 + x19: .cfa -8 + ^ x20: .cfa -16 + ^ x21: .cfa -24 + ^ x22: .cfa -32 + ^ x23: .cfa -48 + ^ .ra: .cfa -56 + ^ x29: .cfa -64 + ^
STACK CFI 1cb0c .cfa: sp 144 +
STACK CFI 1cb20 .cfa: sp 0 +
STACK CFI 1cb24 .cfa: x29 64 +
STACK CFI INIT 1cc18 104 .cfa: sp 0 +
STACK CFI 1cc1c .cfa: sp 48 +
STACK CFI 1cc28 .cfa: x29 48 + x19: .cfa -8 + ^ x20: .cfa -16 + ^ x21: .cfa -24 + ^ x22: .cfa -32 + ^ .ra: .cfa -40 + ^ x29: .cfa -48 + ^
STACK CFI 1ccd8 .cfa: sp 48 +
STACK CFI 1cce4 .cfa: sp 0 +
STACK CFI 1cce8 .cfa: x29 48 +
STACK CFI INIT 1cd1c 1a0 .cfa: sp 0 +
STACK CFI 1cd20 .cfa: sp 160 +
STACK CFI 1cd38 .cfa: x29 64 + x19: .cfa -8 + ^ x20: .cfa -16 + ^ x21: .cfa -24 + ^ x22: .cfa -32 + ^ x23: .cfa -40 + ^ x24: .cfa -48 + ^ .ra: .cfa -56 + ^ x29: .cfa -64 + ^ v8: .cfa -80 + ^
STACK CFI 1cdac .cfa: sp 160 +
STACK CFI 1cdc4 .cfa: sp 0 +
STACK CFI 1cdc8 .cfa: x29 64 +
STACK CFI INIT 1cebc 3bc .cfa: sp 0 +
STACK CFI 1cec0 .cfa: sp 96 +
STACK CFI 1ced8 .cfa: x29 80 + x19: .cfa -8 + ^ x20: .cfa -16 + ^ x21: .cfa -24 + ^ x22: .cfa -32 + ^ x23: .cfa -40 + ^ x24: .cfa -48 + ^ x25: .cfa -64 + ^ .ra: .cfa -72 + ^ x29: .cfa -80 + ^
STACK CFI 1d204 .cfa: sp 96 +
STACK CFI 1d21c .cfa: sp 0 +
STACK CFI 1d220 .cfa: x29 80 +
STACK CFI INIT 1d294 22c .cfa: sp 0 +
STACK CFI 1d298 .cfa: sp 128 +
STACK CFI 1d2ac .cfa: x29 64 + x19: .cfa -8 + ^ x20: .cfa -16 + ^ x21: .cfa -24 + ^ x22: .cfa -32 + ^ x23: .cfa -48 + ^ .ra: .cfa -56 + ^ x29: .cfa -64 + ^
STACK CFI 1d354 .cfa: sp 128 +
STACK CFI 1d368 .cfa: sp 0 +
STACK CFI 1d36c .cfa: x29 64 +
STACK CFI INIT 1d4c0 22c .cfa: sp 0 +
STACK CFI 1d4c4 .cfa: sp 128 +
STACK CFI 1d4d8 .cfa: x29 64 + x19: .cfa -8 + ^ x20: .cfa -16 + ^ x21: .cfa -24 + ^ x22: .cfa -32 + ^ x23: .cfa -48 + ^ .ra: .cfa -56 + ^ x29: .cfa -64 + ^
STACK CFI 1d580 .cfa: sp 128 +
STACK CFI 1d594 .cfa: sp 0 +
STACK CFI 1d598 .cfa: x29 64 +
STACK CFI INIT 1d6ec 154 .cfa: sp 0 +
STACK CFI 1d6f0 .cfa: sp 384 +
STACK CFI 1d704 .cfa: x29 64 + x19: .cfa -8 + ^ x20: .cfa -16 + ^ x21: .cfa -24 + ^ x22: .cfa -32 + ^ x23: .cfa -40 + ^ x28: .cfa -48 + ^ .ra: .cfa -56 + ^ x29: .cfa -64 + ^
STACK CFI 1d7e8 .cfa: sp 384 +
STACK CFI 1d7fc .cfa: sp 0 +
STACK CFI 1d800 .cfa: x29 64 +
STACK CFI INIT 1d840 168 .cfa: sp 0 +
STACK CFI 1d844 .cfa: sp 384 +
STACK CFI 1d858 .cfa: x29 64 + x19: .cfa -8 + ^ x20: .cfa -16 + ^ x21: .cfa -24 + ^ x22: .cfa -32 + ^ x23: .cfa -40 + ^ x28: .cfa -48 + ^ .ra: .cfa -56 + ^ x29: .cfa -64 + ^
STACK CFI 1d950 .cfa: sp 384 +
STACK CFI 1d964 .cfa: sp 0 +
STACK CFI 1d968 .cfa: x29 64 +
STACK CFI INIT 1d9c0 4e0 .cfa: sp 0 +
STACK CFI 1d9c4 .cfa: sp 64 +
STACK CFI 1d9d4 .cfa: x29 64 + x19: .cfa -8 + ^ x20: .cfa -16 + ^ x21: .cfa -24 + ^ x22: .cfa -32 + ^ x23: .cfa -40 + ^ x24: .cfa -48 + ^ .ra: .cfa -56 + ^ x29: .cfa -64 + ^
STACK CFI 1de74 .cfa: sp 64 +
STACK CFI 1de84 .cfa: sp 0 +
STACK CFI 1de88 .cfa: x29 64 +
STACK CFI INIT 1e1d0 294 .cfa: sp 0 +
STACK CFI 1e1d4 .cfa: sp 240 +
STACK CFI 1e1ec .cfa: x29 80 + x19: .cfa -8 + ^ x20: .cfa -16 + ^ x21: .cfa -24 + ^ x22: .cfa -32 + ^ x23: .cfa -40 + ^ x24: .cfa -48 + ^ x25: .cfa -64 + ^ .ra: .cfa -72 + ^ x29: .cfa -80 + ^
STACK CFI 1e38c .cfa: sp 240 +
STACK CFI 1e3a4 .cfa: sp 0 +
STACK CFI 1e3a8 .cfa: x29 80 +
STACK CFI INIT 1e4e0 50 .cfa: sp 0 +
STACK CFI 1e4e4 .cfa: sp 32 +
STACK CFI 1e4ec .cfa: x29 32 + x19: .cfa -8 + ^ x20: .cfa -16 + ^ .ra: .cfa -24 + ^ x29: .cfa -32 + ^
STACK CFI INIT 1e55c 7c0 .cfa: sp 0 +
STACK CFI 1e560 .cfa: sp 320 +
STACK CFI 1e57c .cfa: x29 96 + x19: .cfa -8 + ^ x20: .cfa -16 + ^ x21: .cfa -24 + ^ x22: .cfa -32 + ^ x23: .cfa -40 + ^ x24: .cfa -48 + ^ x25: .cfa -56 + ^ x26: .cfa -64 + ^ x27: .cfa -72 + ^ x28: .cfa -80 + ^ .ra: .cfa -88 + ^ x29: .cfa -96 + ^
STACK CFI 1ebcc .cfa: sp 320 +
STACK CFI 1ebe8 .cfa: sp 0 +
STACK CFI 1ebec .cfa: x29 96 +
STACK CFI INIT 2309c c74 .cfa: sp 0 +
STACK CFI 230a0 .cfa: sp 96 +
STACK CFI 230b8 .cfa: x29 96 + x19: .cfa -8 + ^ x20: .cfa -16 + ^ x21: .cfa -24 + ^ x22: .cfa -32 + ^ x23: .cfa -40 + ^ x24: .cfa -48 + ^ x25: .cfa -56 + ^ x26: .cfa -64 + ^ x27: .cfa -72 + ^ x28: .cfa -80 + ^ .ra: .cfa -88 + ^ x29: .cfa -96 + ^
STACK CFI 23b30 .cfa: sp 96 +
STACK CFI 23b48 .cfa: sp 0 +
STACK CFI 23b4c .cfa: x29 96 +
STACK CFI INIT 23e64 26c .cfa: sp 0 +
STACK CFI 23e68 .cfa: sp 128 +
STACK CFI 23e78 .cfa: x29 48 + x19: .cfa -8 + ^ x20: .cfa -16 + ^ x21: .cfa -24 + ^ x22: .cfa -32 + ^ .ra: .cfa -40 + ^ x29: .cfa -48 + ^
STACK CFI 2401c .cfa: sp 128 +
STACK CFI 2402c .cfa: sp 0 +
STACK CFI 24030 .cfa: x29 48 +
STACK CFI INIT 24460 3b8 .cfa: sp 0 +
STACK CFI 24464 .cfa: sp 96 +
STACK CFI 2447c .cfa: x29 96 + x19: .cfa -8 + ^ x20: .cfa -16 + ^ x21: .cfa -24 + ^ x22: .cfa -32 + ^ x23: .cfa -40 + ^ x24: .cfa -48 + ^ x25: .cfa -56 + ^ x26: .cfa -64 + ^ x27: .cfa -72 + ^ x28: .cfa -80 + ^ .ra: .cfa -88 + ^ x29: .cfa -96 + ^
STACK CFI 247b8 .cfa: sp 96 +
STACK CFI 247d0 .cfa: sp 0 +
STACK CFI 247d4 .cfa: x29 96 +
STACK CFI INIT 248b8 cb4 .cfa: sp 0 +
STACK CFI 248bc .cfa: sp 96 +
STACK CFI 248d4 .cfa: x29 96 + x19: .cfa -8 + ^ x20: .cfa -16 + ^ x21: .cfa -24 + ^ x22: .cfa -32 + ^ x23: .cfa -40 + ^ x24: .cfa -48 + ^ x25: .cfa -56 + ^ x26: .cfa -64 + ^ x27: .cfa -72 + ^ x28: .cfa -80 + ^ .ra: .cfa -88 + ^ x29: .cfa -96 + ^
STACK CFI 2537c .cfa: sp 96 +
STACK CFI 25394 .cfa: sp 0 +
STACK CFI 25398 .cfa: x29 96 +
STACK CFI INIT 25854 afc .cfa: sp 0 +
STACK CFI 25858 .cfa: sp 96 +
STACK CFI 25870 .cfa: x29 96 + x19: .cfa -8 + ^ x20: .cfa -16 + ^ x21: .cfa -24 + ^ x22: .cfa -32 + ^ x23: .cfa -40 + ^ x24: .cfa -48 + ^ x25: .cfa -56 + ^ x26: .cfa -64 + ^ x27: .cfa -72 + ^ x28: .cfa -80 + ^ .ra: .cfa -88 + ^ x29: .cfa -96 + ^
STACK CFI 262c4 .cfa: sp 96 +
STACK CFI 262dc .cfa: sp 0 +
STACK CFI 262e0 .cfa: x29 96 +
STACK CFI INIT 2652c 1430 .cfa: sp 0 +
STACK CFI 26530 .cfa: sp 96 +
STACK CFI 26548 .cfa: x29 96 + x19: .cfa -8 + ^ x20: .cfa -16 + ^ x21: .cfa -24 + ^ x22: .cfa -32 + ^ x23: .cfa -40 + ^ x24: .cfa -48 + ^ x25: .cfa -56 + ^ x26: .cfa -64 + ^ x27: .cfa -72 + ^ x28: .cfa -80 + ^ .ra: .cfa -88 + ^ x29: .cfa -96 + ^
STACK CFI 277e4 .cfa: sp 96 +
STACK CFI 277fc .cfa: sp 0 +
STACK CFI 27800 .cfa: x29 96 +
STACK CFI INIT 27a80 75c .cfa: sp 0 +
STACK CFI 27a84 .cfa: sp 368 +
STACK CFI 27aa0 .cfa: x29 96 + x19: .cfa -8 + ^ x20: .cfa -16 + ^ x21: .cfa -24 + ^ x22: .cfa -32 + ^ x23: .cfa -40 + ^ x24: .cfa -48 + ^ x25: .cfa -56 + ^ x26: .cfa -64 + ^ x27: .cfa -72 + ^ x28: .cfa -80 + ^ .ra: .cfa -88 + ^ x29: .cfa -96 + ^
STACK CFI 27b54 .cfa: sp 368 +
STACK CFI 27b70 .cfa: sp 0 +
STACK CFI 27b74 .cfa: x29 96 +
STACK CFI 27bc8 .cfa: sp 368 +
STACK CFI 27be4 .cfa: sp 0 +
STACK CFI 27be8 .cfa: x29 96 +
STACK CFI INIT 2859c eb0 .cfa: sp 0 +
STACK CFI 285a0 .cfa: sp 96 +
STACK CFI 285b8 .cfa: x29 96 + x19: .cfa -8 + ^ x20: .cfa -16 + ^ x21: .cfa -24 + ^ x22: .cfa -32 + ^ x23: .cfa -40 + ^ x24: .cfa -48 + ^ x25: .cfa -56 + ^ x26: .cfa -64 + ^ x27: .cfa -72 + ^ x28: .cfa -80 + ^ .ra: .cfa -88 + ^ x29: .cfa -96 + ^
STACK CFI 29260 .cfa: sp 96 +
STACK CFI 29278 .cfa: sp 0 +
STACK CFI 2927c .cfa: x29 96 +
STACK CFI INIT 297c0 1c9c .cfa: sp 0 +
STACK CFI 297c4 .cfa: sp 112 +
STACK CFI 297e0 .cfa: x29 96 + x19: .cfa -8 + ^ x20: .cfa -16 + ^ x21: .cfa -24 + ^ x22: .cfa -32 + ^ x23: .cfa -40 + ^ x24: .cfa -48 + ^ x25: .cfa -56 + ^ x26: .cfa -64 + ^ x27: .cfa -72 + ^ x28: .cfa -80 + ^ .ra: .cfa -88 + ^ x29: .cfa -96 + ^ v8: .cfa -112 + ^
STACK CFI 29bc8 .cfa: sp 112 +
STACK CFI 29be4 .cfa: sp 0 +
STACK CFI 29be8 .cfa: x29 96 +
STACK CFI INIT 2dc20 9a0 .cfa: sp 0 +
STACK CFI 2dc24 .cfa: sp 144 +
STACK CFI 2dc3c .cfa: x29 80 + x19: .cfa -8 + ^ x20: .cfa -16 + ^ x21: .cfa -24 + ^ x22: .cfa -32 + ^ x23: .cfa -40 + ^ x24: .cfa -48 + ^ x25: .cfa -64 + ^ .ra: .cfa -72 + ^ x29: .cfa -80 + ^
STACK CFI 2e53c .cfa: sp 144 +
STACK CFI 2e554 .cfa: sp 0 +
STACK CFI 2e558 .cfa: x29 80 +
STACK CFI INIT 2fae4 57c .cfa: sp 0 +
STACK CFI 2fae8 .cfa: sp 96 +
STACK CFI 2fb00 .cfa: x29 96 + x19: .cfa -8 + ^ x20: .cfa -16 + ^ x21: .cfa -24 + ^ x22: .cfa -32 + ^ x23: .cfa -40 + ^ x24: .cfa -48 + ^ x25: .cfa -56 + ^ x26: .cfa -64 + ^ x27: .cfa -72 + ^ x28: .cfa -80 + ^ .ra: .cfa -88 + ^ x29: .cfa -96 + ^
STACK CFI 2ffc4 .cfa: sp 96 +
STACK CFI 2ffdc .cfa: sp 0 +
STACK CFI 2ffe0 .cfa: x29 96 +
STACK CFI INIT 30060 67c .cfa: sp 0 +
STACK CFI 30064 .cfa: sp 96 +
STACK CFI 3007c .cfa: x29 96 + x19: .cfa -8 + ^ x20: .cfa -16 + ^ x21: .cfa -24 + ^ x22: .cfa -32 + ^ x23: .cfa -40 + ^ x24: .cfa -48 + ^ x25: .cfa -56 + ^ x26: .cfa -64 + ^ x27: .cfa -72 + ^ x28: .cfa -80 + ^ .ra: .cfa -88 + ^ x29: .cfa -96 + ^
STACK CFI 30640 .cfa: sp 96 +
STACK CFI 30658 .cfa: sp 0 +
STACK CFI 3065c .cfa: x29 96 +
