MODULE Linux arm64 65201B3A2E3BAF4394CA540255C867F10 capeling.gamemode-switcher.android64.so
INFO CODE_ID 3A1B20653B2E43AF94CA540255C867F113716224
INFO GENERATOR mozilla/dump_syms 2.3.4
PUBLIC 19cd0 0 __on_dlclose
PUBLIC 19ce0 0 __emutls_unregister_key
PUBLIC 19ce8 0 __on_dlclose_late
PUBLIC 19cf0 0 __atexit_handler_wrapper
PUBLIC 19d04 0 atexit
PUBLIC 19d20 0 pthread_atfork
PUBLIC 19d30 0 unwind_phase2
PUBLIC 19e64 0 _Unwind_Resume
PUBLIC 19ee8 0 unwind_phase2_forced
PUBLIC m 19fdc 0 __unw_init_local
PUBLIC m 1a084 0 __unw_get_reg
PUBLIC 1a100 0 __unw_step_stage2
PUBLIC m 1a114 0 __unw_get_proc_info
PUBLIC m 1a154 0 __unw_resume
PUBLIC 1a17c 0 libunwind::CFI_Parser<libunwind::LocalAddressSpace>::decodeFDE(libunwind::LocalAddressSpace&, unsigned long, libunwind::CFI_Parser<libunwind::LocalAddressSpace>::FDE_Info*, libunwind::CFI_Parser<libunwind::LocalAddressSpace>::CIE_Info*, bool)
PUBLIC 1a30c 0 libunwind::CFI_Parser<libunwind::LocalAddressSpace>::parseCIE(libunwind::LocalAddressSpace&, unsigned long, libunwind::CFI_Parser<libunwind::LocalAddressSpace>::CIE_Info*)
PUBLIC 1a5d4 0 libunwind::AbstractUnwindCursor::~AbstractUnwindCursor()
PUBLIC 1a5dc 0 libunwind::UnwindCursor<libunwind::LocalAddressSpace, libunwind::Registers_arm64>::~UnwindCursor()
PUBLIC 1a5e4 0 libunwind::UnwindCursor<libunwind::LocalAddressSpace, libunwind::Registers_arm64>::validReg(int)
PUBLIC 1a628 0 libunwind::UnwindCursor<libunwind::LocalAddressSpace, libunwind::Registers_arm64>::getReg(int)
PUBLIC 1a710 0 libunwind::UnwindCursor<libunwind::LocalAddressSpace, libunwind::Registers_arm64>::setReg(int, unsigned long)
PUBLIC 1a7f8 0 libunwind::UnwindCursor<libunwind::LocalAddressSpace, libunwind::Registers_arm64>::validFloatReg(int)
PUBLIC 1a80c 0 libunwind::UnwindCursor<libunwind::LocalAddressSpace, libunwind::Registers_arm64>::getFloatReg(int)
PUBLIC 1a81c 0 libunwind::UnwindCursor<libunwind::LocalAddressSpace, libunwind::Registers_arm64>::setFloatReg(int, double)
PUBLIC 1a82c 0 libunwind::UnwindCursor<libunwind::LocalAddressSpace, libunwind::Registers_arm64>::step(bool)
PUBLIC 1a91c 0 libunwind::UnwindCursor<libunwind::LocalAddressSpace, libunwind::Registers_arm64>::getInfo(unw_proc_info_t*)
PUBLIC 1a960 0 libunwind::UnwindCursor<libunwind::LocalAddressSpace, libunwind::Registers_arm64>::jumpto()
PUBLIC 1a96c 0 libunwind::UnwindCursor<libunwind::LocalAddressSpace, libunwind::Registers_arm64>::isSignalFrame()
PUBLIC 1a978 0 libunwind::UnwindCursor<libunwind::LocalAddressSpace, libunwind::Registers_arm64>::getFunctionName(char*, unsigned long, unsigned long*)
PUBLIC 1a9a4 0 libunwind::UnwindCursor<libunwind::LocalAddressSpace, libunwind::Registers_arm64>::setInfoBasedOnIPRegister(bool)
PUBLIC 1ac24 0 libunwind::UnwindCursor<libunwind::LocalAddressSpace, libunwind::Registers_arm64>::getRegisterName(int)
PUBLIC 1ac30 0 libunwind::UnwindCursor<libunwind::LocalAddressSpace, libunwind::Registers_arm64>::stepThroughSigReturn(libunwind::Registers_arm64&)
PUBLIC 1ad50 0 libunwind::DwarfInstructions<libunwind::LocalAddressSpace, libunwind::Registers_arm64>::stepWithDwarf(libunwind::LocalAddressSpace&, unsigned long, unsigned long, libunwind::Registers_arm64&, bool&, bool)
PUBLIC 1b1d8 0 libunwind::CFI_Parser<libunwind::LocalAddressSpace>::parseFDEInstructions(libunwind::LocalAddressSpace&, libunwind::CFI_Parser<libunwind::LocalAddressSpace>::FDE_Info const&, libunwind::CFI_Parser<libunwind::LocalAddressSpace>::CIE_Info const&, unsigned long, int, libunwind::CFI_Parser<libunwind::LocalAddressSpace>::PrologInfo*)
PUBLIC 1be20 0 libunwind::DwarfInstructions<libunwind::LocalAddressSpace, libunwind::Registers_arm64>::getCFA(libunwind::LocalAddressSpace&, libunwind::CFI_Parser<libunwind::LocalAddressSpace>::PrologInfo const&, libunwind::Registers_arm64 const&)
PUBLIC 1bf54 0 libunwind::DwarfInstructions<libunwind::LocalAddressSpace, libunwind::Registers_arm64>::getSavedRegister(libunwind::LocalAddressSpace&, libunwind::Registers_arm64 const&, unsigned long, libunwind::CFI_Parser<libunwind::LocalAddressSpace>::RegisterLocation const&)
PUBLIC 1c164 0 libunwind::LocalAddressSpace::getEncodedP(unsigned long&, unsigned long, unsigned char, unsigned long)
PUBLIC 1c4f0 0 libunwind::LocalAddressSpace::getULEB128(unsigned long&, unsigned long)
PUBLIC 1c6b8 0 libunwind::DwarfInstructions<libunwind::LocalAddressSpace, libunwind::Registers_arm64>::evaluateExpression(unsigned long, libunwind::LocalAddressSpace&, libunwind::Registers_arm64 const&, unsigned long)
PUBLIC 1d074 0 libunwind::UnwindCursor<libunwind::LocalAddressSpace, libunwind::Registers_arm64>::getInfoFromDwarfSection(unsigned long, libunwind::UnwindInfoSections const&, unsigned int)
PUBLIC 1d348 0 libunwind::findUnwindSectionsByPhdr(dl_phdr_info*, unsigned long, void*)
PUBLIC 1d47c 0 libunwind::EHHeaderParser<libunwind::LocalAddressSpace>::decodeEHHdr(libunwind::LocalAddressSpace&, unsigned long, unsigned long, libunwind::EHHeaderParser<libunwind::LocalAddressSpace>::EHHeaderInfo&)
PUBLIC 1d59c 0 libunwind::CFI_Parser<libunwind::LocalAddressSpace>::findFDE(libunwind::LocalAddressSpace&, unsigned long, unsigned long, unsigned long, unsigned long, libunwind::CFI_Parser<libunwind::LocalAddressSpace>::FDE_Info*, libunwind::CFI_Parser<libunwind::LocalAddressSpace>::CIE_Info*)
PUBLIC 1d764 0 libunwind::EHHeaderParser<libunwind::LocalAddressSpace>::findFDE(libunwind::LocalAddressSpace&, unsigned long, unsigned long, unsigned int, libunwind::CFI_Parser<libunwind::LocalAddressSpace>::FDE_Info*, libunwind::CFI_Parser<libunwind::LocalAddressSpace>::CIE_Info*)
PUBLIC 1d8cc 0 libunwind::EHHeaderParser<libunwind::LocalAddressSpace>::getTableEntrySize(unsigned char)
PUBLIC 1d9c8 0 libunwind::Registers_arm64::getRegisterName(int)
PUBLIC 1d9f8 0 __libunwind_Registers_arm64_jumpto
PUBLIC m 1da88 0 __unw_getcontext
PUBLIC 1db30 0 __aarch64_ldadd8_relax
PUBLIC 1db60 0 init_have_lse_atomics
PUBLIC 1dbf8 0 __init_cpu_features_constructor
PUBLIC 1e194 0 __init_cpu_features
PUBLIC 1e220 0 __aarch64_ldadd8_acq_rel
PUBLIC 1e250 0 cocos2d::CCCopying::copyWithZone(cocos2d::CCZone*)
PUBLIC 1e258 0 cocos2d::CCKeyboardDelegate::keyUp(cocos2d::enumKeyCodes)
PUBLIC 1e25c 0 cocos2d::CCMouseDelegate::rightKeyDown()
PUBLIC 1e260 0 cocos2d::CCMouseDelegate::rightKeyUp()
PUBLIC 1e264 0 cocos2d::CCMouseDelegate::scrollWheel(float, float)
PUBLIC 1e268 0 __cxx_global_var_init
PUBLIC 1e6e8 0 geode::modifier::ModifyBase<geode::modifier::ModifyDerive<switcher::HookGJBaseGameLayer, GJBaseGameLayer> >::~ModifyBase()
PUBLIC 1e704 0 __cxx_global_var_init.1
PUBLIC 1e750 0 geode::modifier::ModifyBase<geode::modifier::ModifyDerive<switcher::HookPlayLayer, PlayLayer> >::~ModifyBase()
PUBLIC 1e76c 0 geode::modifier::FieldIntermediate<switcher::HookGJBaseGameLayer, GJBaseGameLayer>::self()
PUBLIC 1e8f8 0 geode::modifier::FieldContainer::getField(unsigned long)
PUBLIC 1ebb0 0 geode::modifier::FieldContainer::setField(unsigned long, unsigned long, std::__ndk1::function<void (void*)>)
PUBLIC 1ecc4 0 geode::modifier::FieldIntermediate<switcher::HookGJBaseGameLayer, GJBaseGameLayer>::fieldDestructor(void*)
PUBLIC 1ecc8 0 std::__ndk1::vector<void*, std::__ndk1::allocator<void*> >::__throw_length_error[abi:ne180000]() const
PUBLIC 1ecdc 0 __clang_call_terminate
PUBLIC 1ecec 0 std::__ndk1::__throw_length_error[abi:ne180000](char const*)
PUBLIC 1ed3c 0 std::length_error::length_error[abi:ne180000](char const*)
PUBLIC 1ed6c 0 std::__throw_bad_array_new_length([abi:ne180000], void)
PUBLIC 1eda0 0 std::__ndk1::vector<std::__ndk1::function<void (void*)>, std::__ndk1::allocator<std::__ndk1::function<void (void*)> > >::__push_back_slow_path<std::__ndk1::function<void (void*)> >(std::__ndk1::function<void (void*)>&&)
PUBLIC 1efcc 0 std::__ndk1::vector<std::__ndk1::function<void (void*)>, std::__ndk1::allocator<std::__ndk1::function<void (void*)> > >::__throw_length_error[abi:ne180000]() const
PUBLIC 1efe0 0 std::__ndk1::vector<void*, std::__ndk1::allocator<void*> >::__throw_out_of_range[abi:ne180000]() const
PUBLIC 1eff4 0 std::__ndk1::__throw_out_of_range[abi:ne180000](char const*)
PUBLIC 1f044 0 std::out_of_range::out_of_range[abi:ne180000](char const*)
PUBLIC 1f074 0 std::__ndk1::vector<std::__ndk1::function<void (void*)>, std::__ndk1::allocator<std::__ndk1::function<void (void*)> > >::__throw_out_of_range[abi:ne180000]() const
PUBLIC 1f088 0 std::__ndk1::__function::__base<void (void*)>::~__base()
PUBLIC 1f08c 0 std::__ndk1::__function::__func<void (*)(void*), std::__ndk1::allocator<void (*)(void*)>, void (void*)>::~__func()
PUBLIC 1f090 0 std::__ndk1::__function::__func<void (*)(void*), std::__ndk1::allocator<void (*)(void*)>, void (void*)>::__clone() const
PUBLIC 1f0c8 0 std::__ndk1::__function::__func<void (*)(void*), std::__ndk1::allocator<void (*)(void*)>, void (void*)>::__clone(std::__ndk1::__function::__base<void (void*)>*) const
PUBLIC 1f0e0 0 std::__ndk1::__function::__func<void (*)(void*), std::__ndk1::allocator<void (*)(void*)>, void (void*)>::destroy()
PUBLIC 1f0e4 0 std::__ndk1::__function::__func<void (*)(void*), std::__ndk1::allocator<void (*)(void*)>, void (void*)>::destroy_deallocate()
PUBLIC 1f0e8 0 std::__ndk1::__function::__func<void (*)(void*), std::__ndk1::allocator<void (*)(void*)>, void (void*)>::operator()(void*&&)
PUBLIC 1f0f8 0 std::__ndk1::__function::__func<void (*)(void*), std::__ndk1::allocator<void (*)(void*)>, void (void*)>::target(std::type_info const&) const
PUBLIC 1f114 0 std::__ndk1::__function::__func<void (*)(void*), std::__ndk1::allocator<void (*)(void*)>, void (void*)>::target_type() const
PUBLIC 1f120 0 geode::modifier::FieldIntermediate<switcher::HookPlayLayer, PlayLayer>::self()
PUBLIC 1f2ac 0 geode::modifier::FieldIntermediate<switcher::HookPlayLayer, PlayLayer>::fieldDestructor(void*)
PUBLIC 1f2b0 0 geode::modifier::ModifyDerive<switcher::HookGJBaseGameLayer, GJBaseGameLayer>::apply()
PUBLIC 1f8e4 0 std::__ndk1::shared_ptr<geode::Hook>::~shared_ptr[abi:ne180000]()
PUBLIC 1f934 0 geode::impl::ResultData<geode::Hook*, std::__ndk1::basic_string<char, std::__ndk1::char_traits<char>, std::__ndk1::allocator<char> > >::~ResultData()
PUBLIC 1f9a8 0 std::__ndk1::vector<std::__ndk1::basic_string<char, std::__ndk1::char_traits<char>, std::__ndk1::allocator<char> >, std::__ndk1::allocator<std::__ndk1::basic_string<char, std::__ndk1::char_traits<char>, std::__ndk1::allocator<char> > > >::~vector[abi:ne180000]()
PUBLIC 1fa24 0 geode::modifier::ModifyBase<geode::modifier::ModifyDerive<switcher::HookGJBaseGameLayer, GJBaseGameLayer> >::apply()
PUBLIC 1fa28 0 _ZN5geode15UnwrapExceptionC2IRPNS_4HookEQsr4implE18IsStringStreamableIT_EEENS_4impl5OkTagEOS5_
PUBLIC 1fb7c 0 std::__ndk1::__throw_bad_variant_access[abi:ne180000]()
PUBLIC 1fbb0 0 std::__ndk1::basic_stringstream<char, std::__ndk1::char_traits<char>, std::__ndk1::allocator<char> >::basic_stringstream[abi:ne180000]()
PUBLIC m 1fcdc 0 std::__ndk1::basic_stringstream<char, std::__ndk1::char_traits<char>, std::__ndk1::allocator<char> >::~basic_stringstream()
PUBLIC 1fd5c 0 geode::UnwrapException::~UnwrapException()
PUBLIC 1fd80 0 std::__ndk1::__put_character_sequence[abi:ne180000]<char, std::__ndk1::char_traits<char> >(std::__ndk1::basic_ostream<char, std::__ndk1::char_traits<char> >, std::__ndk1::basic_ostream const*, unsigned long)
PUBLIC 1ff24 0 std::__ndk1::__pad_and_output[abi:ne180000]<char, std::__ndk1::char_traits<char> >(std::__ndk1::char_traits<char>, std::__ndk1::ostreambuf_iterator const*, std::__ndk1::ostreambuf_iterator const, std::__ndk1::ostreambuf_iterator const, std::__ndk1::ios_base&, std::__ndk1::ostreambuf_iterator)
PUBLIC 20100 0 std::__ndk1::basic_string<char, std::__ndk1::char_traits<char>, std::__ndk1::allocator<char> >::__throw_length_error[abi:ne180000]() const
PUBLIC 20114 0 std::__ndk1::basic_stringbuf<char, std::__ndk1::char_traits<char>, std::__ndk1::allocator<char> >::str[abi:ne180000]() &&
PUBLIC 2028c 0 std::__ndk1::basic_stringbuf<char, std::__ndk1::char_traits<char>, std::__ndk1::allocator<char> >::__init_buf_ptrs[abi:ne180000]()
PUBLIC 203d4 0 std::__ndk1::vector<std::__ndk1::basic_string<char, std::__ndk1::char_traits<char>, std::__ndk1::allocator<char> >, std::__ndk1::allocator<std::__ndk1::basic_string<char, std::__ndk1::char_traits<char>, std::__ndk1::allocator<char> > > >::__push_back_slow_path<std::__ndk1::basic_string<char, std::__ndk1::char_traits<char>, std::__ndk1::allocator<char> > const&>(std::__ndk1::basic_string<char, std::__ndk1::char_traits<char>, std::__ndk1::allocator<char> > const&)
PUBLIC 205fc 0 std::__ndk1::basic_string<char, std::__ndk1::char_traits<char>, std::__ndk1::allocator<char> >::__init_copy_ctor_external(char const*, unsigned long)
PUBLIC 2067c 0 std::__ndk1::__split_buffer<std::__ndk1::basic_string<char, std::__ndk1::char_traits<char>, std::__ndk1::allocator<char> >, std::__ndk1::allocator<std::__ndk1::basic_string<char, std::__ndk1::char_traits<char>, std::__ndk1::allocator<char> > >&>::~__split_buffer()
PUBLIC 206e4 0 std::__ndk1::vector<std::__ndk1::basic_string<char, std::__ndk1::char_traits<char>, std::__ndk1::allocator<char> >, std::__ndk1::allocator<std::__ndk1::basic_string<char, std::__ndk1::char_traits<char>, std::__ndk1::allocator<char> > > >::__throw_length_error[abi:ne180000]() const
PUBLIC 206f8 0 std::__ndk1::__variant_detail::__visitation::__base::__dispatcher<(unsigned long)0>::__dispatch[abi:ne180000]<std::__ndk1::__variant_detail::__dtor<std::__ndk1::__variant_detail::__traits<geode::Hook*, std::__ndk1::basic_string<char, std::__ndk1::char_traits<char>, std::__ndk1::allocator<char> > >, (std::__ndk1::__variant_detail::_Trait)1>::__destroy[abi:ne180000]()::{lambda(auto:1&)#1}, std::__ndk1::__variant_detail::__base<(std::__ndk1::__variant_detail::__traits<geode::Hook*, std::__ndk1::basic_string<char, std::__ndk1::char_traits<char>, std::__ndk1::allocator<char> > >)1, geode::Hook, std::__ndk1::allocator<char> >&>(std::__ndk1::__variant_detail::__dtor<std::__ndk1::__variant_detail::__traits<geode::Hook*, std::__ndk1::basic_string<char, std::__ndk1::char_traits<char>, std::__ndk1::allocator<char> > >, (std::__ndk1::__variant_detail::_Trait)1>, std::__ndk1::__variant_detail::__base<(std::__ndk1::__variant_detail::__traits<geode::Hook*, std::__ndk1::basic_string<char, std::__ndk1::char_traits<char>, std::__ndk1::allocator<char> > >)1, geode::Hook, std::__ndk1::allocator<char> >&)
PUBLIC 206fc 0 std::__ndk1::__variant_detail::__visitation::__base::__dispatcher<(unsigned long)1>::__dispatch[abi:ne180000]<std::__ndk1::__variant_detail::__dtor<std::__ndk1::__variant_detail::__traits<geode::Hook*, std::__ndk1::basic_string<char, std::__ndk1::char_traits<char>, std::__ndk1::allocator<char> > >, (std::__ndk1::__variant_detail::_Trait)1>::__destroy[abi:ne180000]()::{lambda(auto:1&)#1}, std::__ndk1::__variant_detail::__base<(std::__ndk1::__variant_detail::__traits<geode::Hook*, std::__ndk1::basic_string<char, std::__ndk1::char_traits<char>, std::__ndk1::allocator<char> > >)1, geode::Hook, std::__ndk1::allocator<char> >&>(std::__ndk1::__variant_detail::__dtor<std::__ndk1::__variant_detail::__traits<geode::Hook*, std::__ndk1::basic_string<char, std::__ndk1::char_traits<char>, std::__ndk1::allocator<char> > >, (std::__ndk1::__variant_detail::_Trait)1>, std::__ndk1::__variant_detail::__base<(std::__ndk1::__variant_detail::__traits<geode::Hook*, std::__ndk1::basic_string<char, std::__ndk1::char_traits<char>, std::__ndk1::allocator<char> > >)1, geode::Hook, std::__ndk1::allocator<char> >&)
PUBLIC 20710 0 std::__ndk1::__tree<std::__ndk1::__value_type<std::__ndk1::basic_string<char, std::__ndk1::char_traits<char>, std::__ndk1::allocator<char> >, std::__ndk1::shared_ptr<geode::Hook> >, std::__ndk1::__map_value_compare<std::__ndk1::basic_string<char, std::__ndk1::char_traits<char>, std::__ndk1::allocator<char> >, std::__ndk1::__value_type<std::__ndk1::basic_string<char, std::__ndk1::char_traits<char>, std::__ndk1::allocator<char> >, std::__ndk1::shared_ptr<geode::Hook> >, std::__ndk1::less<std::__ndk1::basic_string<char, std::__ndk1::char_traits<char>, std::__ndk1::allocator<char> > >, true>, std::__ndk1::allocator<std::__ndk1::__value_type<std::__ndk1::basic_string<char, std::__ndk1::char_traits<char>, std::__ndk1::allocator<char> >, std::__ndk1::shared_ptr<geode::Hook> > > >::find<std::__ndk1::basic_string<char, std::__ndk1::char_traits<char>, std::__ndk1::allocator<char> > >(std::__ndk1::basic_string<char, std::__ndk1::char_traits<char>, std::__ndk1::allocator<char> > const&)
PUBLIC 20830 0 std::__ndk1::__tree<std::__ndk1::__value_type<std::__ndk1::basic_string<char, std::__ndk1::char_traits<char>, std::__ndk1::allocator<char> >, std::__ndk1::shared_ptr<geode::Hook> >, std::__ndk1::__map_value_compare<std::__ndk1::basic_string<char, std::__ndk1::char_traits<char>, std::__ndk1::allocator<char> >, std::__ndk1::__value_type<std::__ndk1::basic_string<char, std::__ndk1::char_traits<char>, std::__ndk1::allocator<char> >, std::__ndk1::shared_ptr<geode::Hook> >, std::__ndk1::less<std::__ndk1::basic_string<char, std::__ndk1::char_traits<char>, std::__ndk1::allocator<char> > >, true>, std::__ndk1::allocator<std::__ndk1::__value_type<std::__ndk1::basic_string<char, std::__ndk1::char_traits<char>, std::__ndk1::allocator<char> >, std::__ndk1::shared_ptr<geode::Hook> > > >::erase(std::__ndk1::__tree_const_iterator<std::__ndk1::__value_type<std::__ndk1::basic_string<char, std::__ndk1::char_traits<char>, std::__ndk1::allocator<char> >, std::__ndk1::shared_ptr<geode::Hook> >, std::__ndk1::__tree_node<std::__ndk1::__value_type<std::__ndk1::basic_string<char, std::__ndk1::char_traits<char>, std::__ndk1::allocator<char> >, std::__ndk1::shared_ptr<geode::Hook> >, void*>*, long>)
PUBLIC 20904 0 std::__ndk1::__tree_remove[abi:ne180000]<std::__ndk1::__tree_node_base<void*>*>(std::__ndk1::__tree_node_base<void*>*, std::__ndk1::__tree_node_base<void*>*)
PUBLIC 20ccc 0 std::__ndk1::__tree<std::__ndk1::__value_type<std::__ndk1::basic_string<char, std::__ndk1::char_traits<char>, std::__ndk1::allocator<char> >, std::__ndk1::shared_ptr<geode::Hook> >, std::__ndk1::__map_value_compare<std::__ndk1::basic_string<char, std::__ndk1::char_traits<char>, std::__ndk1::allocator<char> >, std::__ndk1::__value_type<std::__ndk1::basic_string<char, std::__ndk1::char_traits<char>, std::__ndk1::allocator<char> >, std::__ndk1::shared_ptr<geode::Hook> >, std::__ndk1::less<std::__ndk1::basic_string<char, std::__ndk1::char_traits<char>, std::__ndk1::allocator<char> > >, true>, std::__ndk1::allocator<std::__ndk1::__value_type<std::__ndk1::basic_string<char, std::__ndk1::char_traits<char>, std::__ndk1::allocator<char> >, std::__ndk1::shared_ptr<geode::Hook> > > >::destroy(std::__ndk1::__tree_node<std::__ndk1::__value_type<std::__ndk1::basic_string<char, std::__ndk1::char_traits<char>, std::__ndk1::allocator<char> >, std::__ndk1::shared_ptr<geode::Hook> >, void*>*)
PUBLIC 20d58 0 geode::modifier::AsStaticFunction_init<switcher::HookGJBaseGameLayer, bool (switcher::HookGJBaseGameLayer::*)()>::Impl<bool (switcher::HookGJBaseGameLayer::*)()>::function(switcher::HookGJBaseGameLayer*)
PUBLIC 20dc0 0 geode::modifier::AsStaticFunction_canBeActivatedByPlayer<switcher::HookGJBaseGameLayer, bool (switcher::HookGJBaseGameLayer::*)(PlayerObject*, EffectGameObject*)>::Impl<bool (switcher::HookGJBaseGameLayer::*)(PlayerObject*, EffectGameObject*)>::function(switcher::HookGJBaseGameLayer*, PlayerObject*, EffectGameObject*)
PUBLIC 20e64 0 geode::addresser::Addresser::addressOfVirtual<bool, GJBaseGameLayer, >(bool (GJBaseGameLayer::*)())
PUBLIC 20f2c 0 GJBaseGameLayer::GJBaseGameLayer(geode::ZeroConstructorType)
PUBLIC 216dc 0 GJGameState::GJGameState()
PUBLIC 21c54 0 geode::stl::unordered_map<int, int, geode::stl::hash<int>, geode::stl::equal_to<int>, std::__ndk1::allocator<std::__ndk1::pair<int const, int> > >::~unordered_map()
PUBLIC 21ccc 0 geode::stl::unordered_set<int, geode::stl::hash<int>, geode::stl::equal_to<int>, std::__ndk1::allocator<int> >::~unordered_set()
PUBLIC 21d44 0 geode::stl::unordered_map<int, gd::string, geode::stl::hash<int>, geode::stl::equal_to<int>, std::__ndk1::allocator<std::__ndk1::pair<int const, gd::string> > >::~unordered_map()
PUBLIC 21dc8 0 gd::map<std::__ndk1::pair<int, int>, int>::~map()
PUBLIC 21de4 0 geode::stl::unordered_map<int, gd::vector<LabelGameObject*>, geode::stl::hash<int>, geode::stl::equal_to<int>, std::__ndk1::allocator<std::__ndk1::pair<int const, gd::vector<LabelGameObject*> > > >::~unordered_map()
PUBLIC 21e70 0 geode::stl::unordered_map<int, std::__ndk1::pair<int, int>, geode::stl::hash<int>, geode::stl::equal_to<int>, std::__ndk1::allocator<std::__ndk1::pair<int const, std::__ndk1::pair<int, int> > > >::~unordered_map()
PUBLIC 21ee8 0 geode::stl::unordered_map<int, gd::vector<GameObject*>, geode::stl::hash<int>, geode::stl::equal_to<int>, std::__ndk1::allocator<std::__ndk1::pair<int const, gd::vector<GameObject*> > > >::~unordered_map()
PUBLIC 21f74 0 geode::stl::unordered_map<int, cocos2d::CCPoint, geode::stl::hash<int>, geode::stl::equal_to<int>, std::__ndk1::allocator<std::__ndk1::pair<int const, cocos2d::CCPoint> > >::~unordered_map()
PUBLIC 21fec 0 gd::vector<geode::stl::unordered_map<int, int, geode::stl::hash<int>, geode::stl::equal_to<int>, std::__ndk1::allocator<std::__ndk1::pair<int const, int> > > >::~vector()
PUBLIC 220f0 0 GJGameState::~GJGameState()
PUBLIC 224e8 0 geode::stl::unordered_map<int, SongChannelState, geode::stl::hash<int>, geode::stl::equal_to<int>, std::__ndk1::allocator<std::__ndk1::pair<int const, SongChannelState> > >::~unordered_map()
PUBLIC 22560 0 gd::map<std::__ndk1::pair<int, int>, SFXTriggerInstance>::~map()
PUBLIC 2257c 0 geode::stl::unordered_map<int, std::__ndk1::vector<int, std::__ndk1::allocator<int> >, geode::stl::hash<int>, geode::stl::equal_to<int>, std::__ndk1::allocator<std::__ndk1::pair<int const, std::__ndk1::vector<int, std::__ndk1::allocator<int> > > > >::~unordered_map()
PUBLIC 2260c 0 gd::vector<EnterEffectInstance>::~vector()
PUBLIC 226a4 0 geode::stl::unordered_map<int, std::__ndk1::vector<EnterEffectInstance, std::__ndk1::allocator<EnterEffectInstance> >, geode::stl::hash<int>, geode::stl::equal_to<int>, std::__ndk1::allocator<std::__ndk1::pair<int const, std::__ndk1::vector<EnterEffectInstance, std::__ndk1::allocator<EnterEffectInstance> > > > >::~unordered_map()
PUBLIC 226e0 0 gd::map<std::__ndk1::pair<GJGameEvent, int>, int>::~map()
PUBLIC 226fc 0 gd::map<std::__ndk1::pair<GJGameEvent, int>, gd::vector<EventTriggerInstance> >::~map()
PUBLIC 22718 0 geode::stl::unordered_map<int, EnhancedGameObject*, geode::stl::hash<int>, geode::stl::equal_to<int>, std::__ndk1::allocator<std::__ndk1::pair<int const, EnhancedGameObject*> > >::~unordered_map()
PUBLIC 22790 0 geode::stl::unordered_map<int, GameObjectPhysics, geode::stl::hash<int>, geode::stl::equal_to<int>, std::__ndk1::allocator<std::__ndk1::pair<int const, GameObjectPhysics> > >::~unordered_map()
PUBLIC 22808 0 geode::stl::unordered_map<int, GJValueTween, geode::stl::hash<int>, geode::stl::equal_to<int>, std::__ndk1::allocator<std::__ndk1::pair<int const, GJValueTween> > >::~unordered_map()
PUBLIC 22880 0 geode::stl::unordered_map<int, bool, geode::stl::hash<int>, geode::stl::equal_to<int>, std::__ndk1::allocator<std::__ndk1::pair<int const, bool> > >::~unordered_map()
PUBLIC 228f8 0 gd::map<std::__ndk1::pair<GJGameEvent, int>, gd::vector<EventTriggerInstance> >::map(std::__ndk1::map<std::__ndk1::pair<GJGameEvent, int>, gd::vector<EventTriggerInstance>, std::__ndk1::less<std::__ndk1::pair<GJGameEvent, int> >, std::__ndk1::allocator<std::__ndk1::pair<std::__ndk1::pair<GJGameEvent, int> const, gd::vector<EventTriggerInstance> > > >)
PUBLIC 22ac4 0 gd::map<std::__ndk1::pair<GJGameEvent, int>, gd::vector<EventTriggerInstance> >::insert_pair(std::__ndk1::pair<std::__ndk1::pair<GJGameEvent, int>, gd::vector<EventTriggerInstance> > const&)
PUBLIC 22d7c 0 std::__ndk1::pair<std::__ndk1::pair<GJGameEvent, int>, gd::vector<EventTriggerInstance> >::~pair()
PUBLIC 22dfc 0 std::__ndk1::pair<std::__ndk1::pair<GJGameEvent, int> const, gd::vector<EventTriggerInstance> >::~pair()
PUBLIC 22e7c 0 gd::vector<EventTriggerInstance>::vector(gd::vector<EventTriggerInstance> const&)
PUBLIC 2301c 0 geode::stl::_rb_insert_rebalance(bool, geode::stl::_rb_tree_base*, geode::stl::_rb_tree_base*, geode::stl::_rb_tree_base&)
PUBLIC 232d4 0 gd::vector<EventTriggerInstance>::operator=(gd::vector<EventTriggerInstance> const&)
PUBLIC 23490 0 gd::vector<EventTriggerInstance>::~vector()
PUBLIC 23510 0 std::__ndk1::__tree<std::__ndk1::__value_type<std::__ndk1::pair<GJGameEvent, int>, gd::vector<EventTriggerInstance> >, std::__ndk1::__map_value_compare<std::__ndk1::pair<GJGameEvent, int>, std::__ndk1::__value_type<std::__ndk1::pair<GJGameEvent, int>, gd::vector<EventTriggerInstance> >, std::__ndk1::less<std::__ndk1::pair<GJGameEvent, int> >, true>, std::__ndk1::allocator<std::__ndk1::__value_type<std::__ndk1::pair<GJGameEvent, int>, gd::vector<EventTriggerInstance> > > >::destroy(std::__ndk1::__tree_node<std::__ndk1::__value_type<std::__ndk1::pair<GJGameEvent, int>, gd::vector<EventTriggerInstance> >, void*>*)
PUBLIC 235a8 0 gd::map<std::__ndk1::pair<int, int>, SFXTriggerInstance>::erase(geode::stl::_rb_tree_node<std::__ndk1::pair<std::__ndk1::pair<int, int>, SFXTriggerInstance> >*)
PUBLIC 235fc 0 gd::map<int, EnterEffectAnimValue>::erase(geode::stl::_rb_tree_node<std::__ndk1::pair<int, EnterEffectAnimValue> >*)
PUBLIC 23650 0 geode::stl::_Hashtable<int, std::__ndk1::pair<int const, std::__ndk1::vector<EnterEffectInstance, std::__ndk1::allocator<EnterEffectInstance> > >, std::__ndk1::allocator<std::__ndk1::pair<int const, std::__ndk1::vector<EnterEffectInstance, std::__ndk1::allocator<EnterEffectInstance> > > >, geode::stl::__detail::_Select1st, geode::stl::equal_to<int>, geode::stl::hash<int>, geode::stl::__detail::_Mod_range_hashing, geode::stl::__detail::_Default_ranged_hash, geode::stl::__detail::_Prime_rehash_policy, geode::stl::__detail::_Hashtable_traits<false, false, true> >::clear()
PUBLIC 236f8 0 gd::map<std::__ndk1::pair<GJGameEvent, int>, int>::erase(geode::stl::_rb_tree_node<std::__ndk1::pair<std::__ndk1::pair<GJGameEvent, int>, int> >*)
PUBLIC 2374c 0 gd::map<std::__ndk1::pair<GJGameEvent, int>, gd::vector<EventTriggerInstance> >::erase(geode::stl::_rb_tree_node<std::__ndk1::pair<std::__ndk1::pair<GJGameEvent, int>, gd::vector<EventTriggerInstance> > >*)
PUBLIC 237f4 0 gd::map<std::__ndk1::pair<int, int>, int>::erase(geode::stl::_rb_tree_node<std::__ndk1::pair<std::__ndk1::pair<int, int>, int> >*)
PUBLIC 23848 0 std::__ndk1::shared_ptr<tulip::hook::CallingConvention>::~shared_ptr[abi:ne180000]()
PUBLIC 23898 0 tulip::hook::HandlerMetadata::~HandlerMetadata()
PUBLIC 238fc 0 std::__ndk1::vector<tulip::hook::AbstractType, std::__ndk1::allocator<tulip::hook::AbstractType> >::__throw_length_error[abi:ne180000]() const
PUBLIC 23910 0 std::__ndk1::__tree<std::__ndk1::__value_type<std::__ndk1::basic_string<char, std::__ndk1::char_traits<char>, std::__ndk1::allocator<char> >, std::__ndk1::shared_ptr<geode::Hook> >, std::__ndk1::__map_value_compare<std::__ndk1::basic_string<char, std::__ndk1::char_traits<char>, std::__ndk1::allocator<char> >, std::__ndk1::__value_type<std::__ndk1::basic_string<char, std::__ndk1::char_traits<char>, std::__ndk1::allocator<char> >, std::__ndk1::shared_ptr<geode::Hook> >, std::__ndk1::less<std::__ndk1::basic_string<char, std::__ndk1::char_traits<char>, std::__ndk1::allocator<char> > >, true>, std::__ndk1::allocator<std::__ndk1::__value_type<std::__ndk1::basic_string<char, std::__ndk1::char_traits<char>, std::__ndk1::allocator<char> >, std::__ndk1::shared_ptr<geode::Hook> > > >::__emplace_unique_key_args<std::__ndk1::basic_string<char, std::__ndk1::char_traits<char>, std::__ndk1::allocator<char> >, std::__ndk1::piecewise_construct_t const&, std::__ndk1::tuple<std::__ndk1::basic_string<char, std::__ndk1::char_traits<char>, std::__ndk1::allocator<char> >&&>, std::__ndk1::tuple<> >(std::__ndk1::basic_string<char, std::__ndk1::char_traits<char>, std::__ndk1::allocator<char> > const&, std::__ndk1::piecewise_construct_t const&, std::__ndk1::tuple<std::__ndk1::basic_string<char, std::__ndk1::char_traits<char>, std::__ndk1::allocator<char> >&&>, std::__ndk1::tuple<>)
PUBLIC 23a88 0 std::__ndk1::__tree_balance_after_insert[abi:ne180000]<std::__ndk1::__tree_node_base<void*>*>(std::__ndk1::__tree_node_base<void*>*, std::__ndk1::__tree_node_base<void*>*)
PUBLIC 23c38 0 geode::modifier::ModifyDerive<switcher::HookPlayLayer, PlayLayer>::apply()
PUBLIC 23c3c 0 geode::modifier::ModifyBase<geode::modifier::ModifyDerive<switcher::HookPlayLayer, PlayLayer> >::apply()
PUBLIC 23c40 0 geode::cast::traverseTypeinfoFor(void*, geode::cast::ClassTypeinfoType const*, char const*)
PUBLIC 23d3c 0 switcher::HookPlayLayer::performActionsOnPlayer(std::__ndk1::array<int, (unsigned long)7>&)
PUBLIC 23df0 0 switcher::HookPlayLayer::performActionOnPlayer(int)
PUBLIC 240f8 0 __cxx_global_var_init
PUBLIC 24578 0 geode::modifier::ModifyBase<geode::modifier::ModifyDerive<switcher::HookPauseLayer, PauseLayer> >::~ModifyBase()
PUBLIC 24594 0 geode::modifier::ModifyDerive<switcher::HookPauseLayer, PauseLayer>::apply()
PUBLIC 248c4 0 geode::modifier::ModifyBase<geode::modifier::ModifyDerive<switcher::HookPauseLayer, PauseLayer> >::apply()
PUBLIC 248c8 0 geode::modifier::AsStaticFunction_customSetup<switcher::HookPauseLayer, void (switcher::HookPauseLayer::*)()>::Impl<void (switcher::HookPauseLayer::*)()>::function(switcher::HookPauseLayer*)
PUBLIC 24aac 0 geode::addresser::Addresser::addressOfVirtual<void, PauseLayer, >(void (PauseLayer::*)())
PUBLIC 24b54 0 PauseLayer::PauseLayer(geode::ZeroConstructorType)
PUBLIC 24be0 0 geode::cocos::CCMenuItemExt::createSpriteExtraWithFrameName(std::__ndk1::basic_string_view<char, std::__ndk1::char_traits<char> >, float, std::__ndk1::function<void (CCMenuItemSpriteExtra*)>)
PUBLIC 24d2c 0 geode::cocos::CCMenuItemExt::createSpriteExtra(cocos2d::CCNode*, std::__ndk1::function<void (CCMenuItemSpriteExtra*)>)
PUBLIC 24e68 0 geode::cocos::CCMenuItemExt::assignCallback<CCMenuItemSpriteExtra>(cocos2d::CCMenuItem*, std::__ndk1::function<void (CCMenuItemSpriteExtra*)>)
PUBLIC 24ffc 0 geode::cocos::CCMenuItemExt::LambdaCallback<CCMenuItemSpriteExtra>::create(std::__ndk1::function<void (CCMenuItemSpriteExtra*)>)
PUBLIC 251c4 0 geode::cocos::CCMenuItemExt::LambdaCallback<CCMenuItemSpriteExtra>::execute(cocos2d::CCNode*)
PUBLIC 25234 0 geode::cocos::CCMenuItemExt::LambdaCallback<CCMenuItemSpriteExtra>::~LambdaCallback()
PUBLIC 25290 0 geode::cocos::CCMenuItemExt::LambdaCallback<CCMenuItemSpriteExtra>::~LambdaCallback()
PUBLIC 252f4 0 cocos2d::CCObject::update(float)
PUBLIC 252f8 0 std::__ndk1::__throw_bad_function_call[abi:ne180000]()
PUBLIC 2532c 0 std::__ndk1::bad_function_call::~bad_function_call()
PUBLIC 25350 0 std::__ndk1::__function::__base<void (CCMenuItemSpriteExtra*)>::~__base()
PUBLIC 25354 0 std::__ndk1::__function::__func<switcher::HookPauseLayer::customSetup()::{lambda(cocos2d::CCObject*)#1}, std::__ndk1::allocator<switcher::HookPauseLayer::customSetup()::{lambda(cocos2d::CCObject*)#1}>, void (CCMenuItemSpriteExtra*)>::~__func()
PUBLIC 25358 0 std::__ndk1::__function::__func<switcher::HookPauseLayer::customSetup()::{lambda(cocos2d::CCObject*)#1}, std::__ndk1::allocator<switcher::HookPauseLayer::customSetup()::{lambda(cocos2d::CCObject*)#1}>, void (CCMenuItemSpriteExtra*)>::__clone() const
PUBLIC 2537c 0 std::__ndk1::__function::__func<switcher::HookPauseLayer::customSetup()::{lambda(cocos2d::CCObject*)#1}, std::__ndk1::allocator<switcher::HookPauseLayer::customSetup()::{lambda(cocos2d::CCObject*)#1}>, void (CCMenuItemSpriteExtra*)>::__clone(std::__ndk1::__function::__base<void (CCMenuItemSpriteExtra*)>*) const
PUBLIC 2538c 0 std::__ndk1::__function::__func<switcher::HookPauseLayer::customSetup()::{lambda(cocos2d::CCObject*)#1}, std::__ndk1::allocator<switcher::HookPauseLayer::customSetup()::{lambda(cocos2d::CCObject*)#1}>, void (CCMenuItemSpriteExtra*)>::destroy()
PUBLIC 25390 0 std::__ndk1::__function::__func<switcher::HookPauseLayer::customSetup()::{lambda(cocos2d::CCObject*)#1}, std::__ndk1::allocator<switcher::HookPauseLayer::customSetup()::{lambda(cocos2d::CCObject*)#1}>, void (CCMenuItemSpriteExtra*)>::destroy_deallocate()
PUBLIC 25394 0 std::__ndk1::__function::__func<switcher::HookPauseLayer::customSetup()::{lambda(cocos2d::CCObject*)#1}, std::__ndk1::allocator<switcher::HookPauseLayer::customSetup()::{lambda(cocos2d::CCObject*)#1}>, void (CCMenuItemSpriteExtra*)>::operator()(CCMenuItemSpriteExtra*&&)
PUBLIC 253b0 0 std::__ndk1::__function::__func<switcher::HookPauseLayer::customSetup()::{lambda(cocos2d::CCObject*)#1}, std::__ndk1::allocator<switcher::HookPauseLayer::customSetup()::{lambda(cocos2d::CCObject*)#1}>, void (CCMenuItemSpriteExtra*)>::target(std::type_info const&) const
PUBLIC 253cc 0 std::__ndk1::__function::__func<switcher::HookPauseLayer::customSetup()::{lambda(cocos2d::CCObject*)#1}, std::__ndk1::allocator<switcher::HookPauseLayer::customSetup()::{lambda(cocos2d::CCObject*)#1}>, void (CCMenuItemSpriteExtra*)>::target_type() const
PUBLIC 253d8 0 switcher::SwitcherPopup::create()
PUBLIC 25570 0 switcher::SwitcherPopup::setup()
PUBLIC 25f84 0 switcher::SwitcherPopup::createGamemode(char const*, char const*, int)
PUBLIC 26104 0 switcher::SwitcherPopup::createSpeed(char const*, int)
PUBLIC 262a4 0 switcher::SwitcherPopup::createMisc(char const*, char const*, int)
PUBLIC 268e8 0 switcher::SwitcherPopup::onClose(cocos2d::CCObject*)
PUBLIC 26918 0 geode::Popup<>::onClose(cocos2d::CCObject*)
PUBLIC 26a60 0 geode::Popup<>::~Popup()
PUBLIC 26acc 0 switcher::SwitcherPopup::~SwitcherPopup()
PUBLIC 26b40 0 geode::Popup<>::registerWithTouchDispatcher()
PUBLIC 26b6c 0 geode::Popup<>::keyDown(cocos2d::enumKeyCodes)
PUBLIC 26b94 0 cocos2d::CCLayerRGBA::setOpacityModifyRGB(bool)
PUBLIC 26b98 0 cocos2d::CCLayerRGBA::isOpacityModifyRGB()
PUBLIC 26ba0 0 {virtual override thunk({offset(-320)}, switcher::SwitcherPopup::~SwitcherPopup())}
PUBLIC 26c0c 0 {virtual override thunk({offset(-320)}, switcher::SwitcherPopup::~SwitcherPopup())}
PUBLIC 26c80 0 {virtual override thunk({offset(-344)}, geode::Popup<>::keyDown(cocos2d::enumKeyCodes))}
PUBLIC 26cac 0 {virtual override thunk({offset(-408)}, cocos2d::CCLayerRGBA::setOpacityModifyRGB(bool))}
PUBLIC 26cb0 0 {virtual override thunk({offset(-408)}, cocos2d::CCLayerRGBA::isOpacityModifyRGB())}
PUBLIC 26cb8 0 geode::Popup<>::~Popup()
PUBLIC 26cbc 0 {virtual override thunk({offset(-320)}, geode::Popup<>::~Popup())}
PUBLIC 26d28 0 {virtual override thunk({offset(-320)}, geode::Popup<>::~Popup())}
PUBLIC 26d2c 0 geode::cocos::CCMenuItemExt::LambdaCallback<CCMenuItemToggler>::execute(cocos2d::CCNode*)
PUBLIC 26d9c 0 geode::cocos::CCMenuItemExt::LambdaCallback<CCMenuItemToggler>::~LambdaCallback()
PUBLIC 26df8 0 geode::cocos::CCMenuItemExt::LambdaCallback<CCMenuItemToggler>::~LambdaCallback()
PUBLIC 26e5c 0 geode::Popup<>::initBase(float, float, char const*, cocos2d::CCRect, bool)
PUBLIC 27164 0 geode::Ref<cocos2d::CCNode>::~Ref()
PUBLIC 27180 0 geode::Popup<>::CloseEvent::~CloseEvent()
PUBLIC 271e0 0 geode::Popup<>::CloseEvent::~CloseEvent()
PUBLIC 27250 0 std::__ndk1::__shared_ptr_emplace<geode::Popup<>::CloseEvent::Impl, std::__ndk1::allocator<geode::Popup<>::CloseEvent::Impl> >::~__shared_ptr_emplace()
PUBLIC 27260 0 std::__ndk1::__shared_ptr_emplace<geode::Popup<>::CloseEvent::Impl, std::__ndk1::allocator<geode::Popup<>::CloseEvent::Impl> >::~__shared_ptr_emplace()
PUBLIC 27290 0 std::__ndk1::__shared_ptr_emplace<geode::Popup<>::CloseEvent::Impl, std::__ndk1::allocator<geode::Popup<>::CloseEvent::Impl> >::__on_zero_shared()
PUBLIC 27294 0 std::__ndk1::__shared_ptr_emplace<geode::Popup<>::CloseEvent::Impl, std::__ndk1::allocator<geode::Popup<>::CloseEvent::Impl> >::__on_zero_shared_weak()
PUBLIC 27298 0 std::__ndk1::__function::__func<switcher::SwitcherPopup::createGamemode(char const*, char const*, int)::$_0, std::__ndk1::allocator<switcher::SwitcherPopup::createGamemode(char const*, char const*, int)::$_0>, void (CCMenuItemSpriteExtra*)>::~__func()
PUBLIC 2729c 0 std::__ndk1::__function::__func<switcher::SwitcherPopup::createGamemode(char const*, char const*, int)::$_0, std::__ndk1::allocator<switcher::SwitcherPopup::createGamemode(char const*, char const*, int)::$_0>, void (CCMenuItemSpriteExtra*)>::__clone() const
PUBLIC 272d0 0 std::__ndk1::__function::__func<switcher::SwitcherPopup::createGamemode(char const*, char const*, int)::$_0, std::__ndk1::allocator<switcher::SwitcherPopup::createGamemode(char const*, char const*, int)::$_0>, void (CCMenuItemSpriteExtra*)>::__clone(std::__ndk1::__function::__base<void (CCMenuItemSpriteExtra*)>*) const
PUBLIC 272e4 0 std::__ndk1::__function::__func<switcher::SwitcherPopup::createGamemode(char const*, char const*, int)::$_0, std::__ndk1::allocator<switcher::SwitcherPopup::createGamemode(char const*, char const*, int)::$_0>, void (CCMenuItemSpriteExtra*)>::destroy()
PUBLIC 272e8 0 std::__ndk1::__function::__func<switcher::SwitcherPopup::createGamemode(char const*, char const*, int)::$_0, std::__ndk1::allocator<switcher::SwitcherPopup::createGamemode(char const*, char const*, int)::$_0>, void (CCMenuItemSpriteExtra*)>::destroy_deallocate()
PUBLIC 272ec 0 std::__ndk1::__function::__func<switcher::SwitcherPopup::createGamemode(char const*, char const*, int)::$_0, std::__ndk1::allocator<switcher::SwitcherPopup::createGamemode(char const*, char const*, int)::$_0>, void (CCMenuItemSpriteExtra*)>::operator()(CCMenuItemSpriteExtra*&&)
PUBLIC 274a0 0 std::__ndk1::__function::__func<switcher::SwitcherPopup::createGamemode(char const*, char const*, int)::$_0, std::__ndk1::allocator<switcher::SwitcherPopup::createGamemode(char const*, char const*, int)::$_0>, void (CCMenuItemSpriteExtra*)>::target(std::type_info const&) const
PUBLIC 274bc 0 std::__ndk1::__function::__func<switcher::SwitcherPopup::createGamemode(char const*, char const*, int)::$_0, std::__ndk1::allocator<switcher::SwitcherPopup::createGamemode(char const*, char const*, int)::$_0>, void (CCMenuItemSpriteExtra*)>::target_type() const
PUBLIC 274c8 0 std::__ndk1::__function::__func<switcher::SwitcherPopup::createSpeed(char const*, int)::$_0, std::__ndk1::allocator<switcher::SwitcherPopup::createSpeed(char const*, int)::$_0>, void (CCMenuItemSpriteExtra*)>::~__func()
PUBLIC 274cc 0 std::__ndk1::__function::__func<switcher::SwitcherPopup::createSpeed(char const*, int)::$_0, std::__ndk1::allocator<switcher::SwitcherPopup::createSpeed(char const*, int)::$_0>, void (CCMenuItemSpriteExtra*)>::__clone() const
PUBLIC 27500 0 std::__ndk1::__function::__func<switcher::SwitcherPopup::createSpeed(char const*, int)::$_0, std::__ndk1::allocator<switcher::SwitcherPopup::createSpeed(char const*, int)::$_0>, void (CCMenuItemSpriteExtra*)>::__clone(std::__ndk1::__function::__base<void (CCMenuItemSpriteExtra*)>*) const
PUBLIC 27514 0 std::__ndk1::__function::__func<switcher::SwitcherPopup::createSpeed(char const*, int)::$_0, std::__ndk1::allocator<switcher::SwitcherPopup::createSpeed(char const*, int)::$_0>, void (CCMenuItemSpriteExtra*)>::destroy()
PUBLIC 27518 0 std::__ndk1::__function::__func<switcher::SwitcherPopup::createSpeed(char const*, int)::$_0, std::__ndk1::allocator<switcher::SwitcherPopup::createSpeed(char const*, int)::$_0>, void (CCMenuItemSpriteExtra*)>::destroy_deallocate()
PUBLIC 2751c 0 std::__ndk1::__function::__func<switcher::SwitcherPopup::createSpeed(char const*, int)::$_0, std::__ndk1::allocator<switcher::SwitcherPopup::createSpeed(char const*, int)::$_0>, void (CCMenuItemSpriteExtra*)>::operator()(CCMenuItemSpriteExtra*&&)
PUBLIC 27640 0 std::__ndk1::__function::__func<switcher::SwitcherPopup::createSpeed(char const*, int)::$_0, std::__ndk1::allocator<switcher::SwitcherPopup::createSpeed(char const*, int)::$_0>, void (CCMenuItemSpriteExtra*)>::target(std::type_info const&) const
PUBLIC 2765c 0 std::__ndk1::__function::__func<switcher::SwitcherPopup::createSpeed(char const*, int)::$_0, std::__ndk1::allocator<switcher::SwitcherPopup::createSpeed(char const*, int)::$_0>, void (CCMenuItemSpriteExtra*)>::target_type() const
PUBLIC 27668 0 std::__ndk1::__function::__base<void (CCMenuItemToggler*)>::~__base()
PUBLIC 2766c 0 std::__ndk1::__function::__func<switcher::SwitcherPopup::createMisc(char const*, char const*, int)::$_0, std::__ndk1::allocator<switcher::SwitcherPopup::createMisc(char const*, char const*, int)::$_0>, void (CCMenuItemToggler*)>::~__func()
PUBLIC 27670 0 std::__ndk1::__function::__func<switcher::SwitcherPopup::createMisc(char const*, char const*, int)::$_0, std::__ndk1::allocator<switcher::SwitcherPopup::createMisc(char const*, char const*, int)::$_0>, void (CCMenuItemToggler*)>::__clone() const
PUBLIC 276a4 0 std::__ndk1::__function::__func<switcher::SwitcherPopup::createMisc(char const*, char const*, int)::$_0, std::__ndk1::allocator<switcher::SwitcherPopup::createMisc(char const*, char const*, int)::$_0>, void (CCMenuItemToggler*)>::__clone(std::__ndk1::__function::__base<void (CCMenuItemToggler*)>*) const
PUBLIC 276b8 0 std::__ndk1::__function::__func<switcher::SwitcherPopup::createMisc(char const*, char const*, int)::$_0, std::__ndk1::allocator<switcher::SwitcherPopup::createMisc(char const*, char const*, int)::$_0>, void (CCMenuItemToggler*)>::destroy()
PUBLIC 276bc 0 std::__ndk1::__function::__func<switcher::SwitcherPopup::createMisc(char const*, char const*, int)::$_0, std::__ndk1::allocator<switcher::SwitcherPopup::createMisc(char const*, char const*, int)::$_0>, void (CCMenuItemToggler*)>::destroy_deallocate()
PUBLIC 276c0 0 std::__ndk1::__function::__func<switcher::SwitcherPopup::createMisc(char const*, char const*, int)::$_0, std::__ndk1::allocator<switcher::SwitcherPopup::createMisc(char const*, char const*, int)::$_0>, void (CCMenuItemToggler*)>::operator()(CCMenuItemToggler*&&)
PUBLIC 2776c 0 std::__ndk1::__function::__func<switcher::SwitcherPopup::createMisc(char const*, char const*, int)::$_0, std::__ndk1::allocator<switcher::SwitcherPopup::createMisc(char const*, char const*, int)::$_0>, void (CCMenuItemToggler*)>::target(std::type_info const&) const
PUBLIC 27788 0 std::__ndk1::__function::__func<switcher::SwitcherPopup::createMisc(char const*, char const*, int)::$_0, std::__ndk1::allocator<switcher::SwitcherPopup::createMisc(char const*, char const*, int)::$_0>, void (CCMenuItemToggler*)>::target_type() const
PUBLIC m 27794 0 geodeImplicitEntry
PUBLIC 277d0 0 std::__ndk1::unordered_map<void*, bool, std::__ndk1::hash<void*>, std::__ndk1::equal_to<void*>, std::__ndk1::allocator<std::__ndk1::pair<void* const, bool> > >::~unordered_map[abi:ne180000]()
PUBLIC 2781c 0 wrapFunction(unsigned long, tulip::hook::WrapperMetadata const&)
PUBLIC 27950 0 geode::impl::ResultData<void*, std::__ndk1::basic_string<char, std::__ndk1::char_traits<char>, std::__ndk1::allocator<char> > >::unwrapErr() &
PUBLIC 279c8 0 geode::impl::ResultData<void*, std::__ndk1::basic_string<char, std::__ndk1::char_traits<char>, std::__ndk1::allocator<char> > >::~ResultData()
PUBLIC 27a3c 0 tulip::hook::WrapperMetadata::~WrapperMetadata()
PUBLIC 27aa0 0 cocos2d::CCObject::CCObject()
PUBLIC 27cc4 0 cocos2d::CCObject::~CCObject()
PUBLIC 27ce8 0 cocos2d::CCNode::~CCNode()
PUBLIC 27d0c 0 {virtual override thunk({offset(-320)}, cocos2d::CCLayer::~CCLayer())}
PUBLIC 27d14 0 cocos2d::CCLayer::~CCLayer()
PUBLIC 27d38 0 {virtual override thunk({offset(-320)}, cocos2d::CCLayer::~CCLayer())}
PUBLIC 27d60 0 cocos2d::CCLayerRGBA::~CCLayerRGBA()
PUBLIC 28060 0 {virtual override thunk({offset(-320)}, cocos2d::CCLayerRGBA::~CCLayerRGBA())}
PUBLIC 28068 0 cocos2d::CCLayerRGBA::~CCLayerRGBA()
PUBLIC 2808c 0 {virtual override thunk({offset(-320)}, cocos2d::CCLayerRGBA::~CCLayerRGBA())}
PUBLIC 280b4 0 cocos2d::CCLayerColor::CCLayerColor()
PUBLIC 28318 0 {virtual override thunk({offset(-320)}, cocos2d::CCLayerColor::~CCLayerColor())}
PUBLIC 28320 0 cocos2d::CCLayerColor::~CCLayerColor()
PUBLIC 28344 0 {virtual override thunk({offset(-320)}, cocos2d::CCLayerColor::~CCLayerColor())}
PUBLIC 2836c 0 {virtual override thunk({offset(-320)}, FLAlertLayer::~FLAlertLayer())}
PUBLIC 28374 0 FLAlertLayer::~FLAlertLayer()
PUBLIC 28398 0 {virtual override thunk({offset(-320)}, FLAlertLayer::~FLAlertLayer())}
PUBLIC 283c0 0 GJBaseGameLayer::~GJBaseGameLayer()
PUBLIC 2937c 0 {virtual override thunk({offset(-320)}, GJBaseGameLayer::~GJBaseGameLayer())}
PUBLIC 29384 0 GJBaseGameLayer::~GJBaseGameLayer()
PUBLIC 293a8 0 {virtual override thunk({offset(-320)}, GJBaseGameLayer::~GJBaseGameLayer())}
PUBLIC 293d0 0 GJBaseGameLayer::toggleGroupTriggered(int, bool, gd::vector<int> const&, int, int)
PUBLIC 29550 0 tulip::hook::AbstractFunction::from<void, GJBaseGameLayer*, int, bool, gd::vector<int> const&, int, int>(void (*)(GJBaseGameLayer*, int, bool, gd::vector<int> const&, int, int))
PUBLIC 299fc 0 {virtual override thunk({offset(-408)}, GJBaseGameLayer::toggleGroupTriggered(int, bool, gd::vector<int> const&, int, int))}
PUBLIC 29a04 0 GJBaseGameLayer::spawnGroup(int, bool, double, gd::vector<int> const&, int, int)
PUBLIC 29b94 0 tulip::hook::AbstractFunction::from<void, GJBaseGameLayer*, int, bool, double, gd::vector<int> const&, int, int>(void (*)(GJBaseGameLayer*, int, bool, double, gd::vector<int> const&, int, int))
PUBLIC 2a140 0 {virtual override thunk({offset(-408)}, GJBaseGameLayer::spawnGroup(int, bool, double, gd::vector<int> const&, int, int))}
PUBLIC 2a148 0 GJBaseGameLayer::spawnObject(GameObject*, double, gd::vector<int> const&)
PUBLIC 2a2b8 0 tulip::hook::AbstractFunction::from<void, GJBaseGameLayer*, GameObject*, double, gd::vector<int> const&>(void (*)(GJBaseGameLayer*, GameObject*, double, gd::vector<int> const&))
PUBLIC 2a58c 0 {virtual override thunk({offset(-408)}, GJBaseGameLayer::spawnObject(GameObject*, double, gd::vector<int> const&))}
PUBLIC 2a594 0 GJBaseGameLayer::activatePlatformerEndTrigger(EndTriggerGameObject*, gd::vector<int> const&)
PUBLIC 2a6e0 0 tulip::hook::AbstractFunction::from<void, GJBaseGameLayer*, EndTriggerGameObject*, gd::vector<int> const&>(void (*)(GJBaseGameLayer*, EndTriggerGameObject*, gd::vector<int> const&))
PUBLIC 2a7e8 0 GJBaseGameLayer::toggleGlitter(bool)
PUBLIC 2a7ec 0 GJBaseGameLayer::timeForPos(cocos2d::CCPoint, int, int, bool, int)
PUBLIC 2a7f4 0 GJBaseGameLayer::posForTime(float)
PUBLIC 2a7fc 0 GJBaseGameLayer::resetSPTriggered()
PUBLIC 2a800 0 GJBaseGameLayer::createCustomParticle(gd::string const&, cocos2d::ParticleStruct const&, int, bool)
PUBLIC 2a964 0 tulip::hook::AbstractFunction::from<TodoReturnPlaceholder, GJBaseGameLayer*, gd::string const&, cocos2d::ParticleStruct const&, int, bool>(TodoReturnPlaceholder (*)(GJBaseGameLayer*, gd::string const&, cocos2d::ParticleStruct const&, int, bool))
PUBLIC 2ad38 0 GJBaseGameLayer::claimCustomParticle(gd::string const&, cocos2d::ParticleStruct const&, int, int, int, bool)
PUBLIC 2aeb4 0 tulip::hook::AbstractFunction::from<TodoReturnPlaceholder, GJBaseGameLayer*, gd::string const&, cocos2d::ParticleStruct const&, int, int, int, bool>(TodoReturnPlaceholder (*)(GJBaseGameLayer*, gd::string const&, cocos2d::ParticleStruct const&, int, int, int, bool))
PUBLIC 2b488 0 GJBaseGameLayer::unclaimCustomParticle(gd::string const&, cocos2d::CCParticleSystemQuad*)
PUBLIC 2b5d4 0 tulip::hook::AbstractFunction::from<TodoReturnPlaceholder, GJBaseGameLayer*, gd::string const&, cocos2d::CCParticleSystemQuad*>(TodoReturnPlaceholder (*)(GJBaseGameLayer*, gd::string const&, cocos2d::CCParticleSystemQuad*))
PUBLIC 2b6dc 0 cocos2d::CCLayerColor::~CCLayerColor()
PUBLIC 2b9c0 0 FLAlertLayer::~FLAlertLayer()
PUBLIC 2bca4 0 cocos2d::CCNode::~CCNode()
PUBLIC 2bf44 0 cocos2d::CCLayer::~CCLayer()
PUBLIC 2c234 0 cocos2d::CCObject::~CCObject()
PUBLIC 2c728 0 _ZN5geode15UnwrapExceptionC2IRPvQsr4implE18IsStringStreamableIT_EEENS_4impl5OkTagEOS4_
PUBLIC 2c87c 0 _ZN5geode15UnwrapExceptionC2IRNSt6__ndk112basic_stringIcNS2_11char_traitsIcEENS2_9allocatorIcEEEEQsr4implE18IsStringStreamableIT_EEENS_4impl6ErrTagEOSA_
PUBLIC 2c9e4 0 std::__ndk1::__variant_detail::__visitation::__base::__dispatcher<(unsigned long)0>::__dispatch[abi:ne180000]<std::__ndk1::__variant_detail::__dtor<std::__ndk1::__variant_detail::__traits<void*, std::__ndk1::basic_string<char, std::__ndk1::char_traits<char>, std::__ndk1::allocator<char> > >, (std::__ndk1::__variant_detail::_Trait)1>::__destroy[abi:ne180000]()::{lambda(auto:1&)#1}, std::__ndk1::__variant_detail::__base<(std::__ndk1::__variant_detail::__traits<void*, std::__ndk1::basic_string<char, std::__ndk1::char_traits<char>, std::__ndk1::allocator<char> > >)1, std::__ndk1::__variant_detail::__traits, std::__ndk1::allocator<char> >&>(std::__ndk1::__variant_detail::__dtor<std::__ndk1::__variant_detail::__traits<void*, std::__ndk1::basic_string<char, std::__ndk1::char_traits<char>, std::__ndk1::allocator<char> > >, (std::__ndk1::__variant_detail::_Trait)1>, std::__ndk1::__variant_detail::__base<(std::__ndk1::__variant_detail::__traits<void*, std::__ndk1::basic_string<char, std::__ndk1::char_traits<char>, std::__ndk1::allocator<char> > >)1, std::__ndk1::__variant_detail::__traits, std::__ndk1::allocator<char> >&)
PUBLIC 2c9e8 0 std::__ndk1::__variant_detail::__visitation::__base::__dispatcher<(unsigned long)1>::__dispatch[abi:ne180000]<std::__ndk1::__variant_detail::__dtor<std::__ndk1::__variant_detail::__traits<void*, std::__ndk1::basic_string<char, std::__ndk1::char_traits<char>, std::__ndk1::allocator<char> > >, (std::__ndk1::__variant_detail::_Trait)1>::__destroy[abi:ne180000]()::{lambda(auto:1&)#1}, std::__ndk1::__variant_detail::__base<(std::__ndk1::__variant_detail::__traits<void*, std::__ndk1::basic_string<char, std::__ndk1::char_traits<char>, std::__ndk1::allocator<char> > >)1, std::__ndk1::__variant_detail::__traits, std::__ndk1::allocator<char> >&>(std::__ndk1::__variant_detail::__dtor<std::__ndk1::__variant_detail::__traits<void*, std::__ndk1::basic_string<char, std::__ndk1::char_traits<char>, std::__ndk1::allocator<char> > >, (std::__ndk1::__variant_detail::_Trait)1>, std::__ndk1::__variant_detail::__base<(std::__ndk1::__variant_detail::__traits<void*, std::__ndk1::basic_string<char, std::__ndk1::char_traits<char>, std::__ndk1::allocator<char> > >)1, std::__ndk1::__variant_detail::__traits, std::__ndk1::allocator<char> >&)
PUBLIC 2c9fc 0 std::__ndk1::__hash_table<std::__ndk1::__hash_value_type<void*, bool>, std::__ndk1::__unordered_map_hasher<void*, std::__ndk1::__hash_value_type<void*, bool>, std::__ndk1::hash<void*>, std::__ndk1::equal_to<void*>, true>, std::__ndk1::__unordered_map_equal<void*, std::__ndk1::__hash_value_type<void*, bool>, std::__ndk1::equal_to<void*>, std::__ndk1::hash<void*>, true>, std::__ndk1::allocator<std::__ndk1::__hash_value_type<void*, bool> > >::__emplace_unique_key_args<void*, std::__ndk1::piecewise_construct_t const&, std::__ndk1::tuple<void* const&>, std::__ndk1::tuple<> >(void* const&, std::__ndk1::piecewise_construct_t const&, std::__ndk1::tuple<void* const&>, std::__ndk1::tuple<>)
PUBLIC 2cf08 0 __CortexA53843419_28004
PUBLIC 2cf10 0 <.plt ELF section in capeling.gamemode-switcher.android64.so>
STACK CFI INIT 19cd0 10 .cfa: sp 0 +
STACK CFI INIT 19ce0 8 .cfa: sp 0 +
STACK CFI INIT 19ce8 8 .cfa: sp 0 +
STACK CFI INIT 19cf0 14 .cfa: sp 0 +
STACK CFI INIT 19d04 1c .cfa: sp 0 +
STACK CFI INIT 19d20 10 .cfa: sp 0 +
STACK CFI INIT 19d30 134 .cfa: sp 0 +
STACK CFI INIT 19e64 84 .cfa: sp 0 +
STACK CFI INIT 19ee8 f4 .cfa: sp 0 +
STACK CFI INIT 19fdc a8 .cfa: sp 0 +
STACK CFI INIT 1a084 7c .cfa: sp 0 +
STACK CFI INIT 1a100 14 .cfa: sp 0 +
STACK CFI INIT 1a114 40 .cfa: sp 0 +
STACK CFI INIT 1a154 28 .cfa: sp 0 +
STACK CFI INIT 1a17c 190 .cfa: sp 0 +
STACK CFI INIT 1a30c 2c8 .cfa: sp 0 +
STACK CFI INIT 1a5d4 8 .cfa: sp 0 +
STACK CFI INIT 1a5dc 8 .cfa: sp 0 +
STACK CFI INIT 1a5e4 44 .cfa: sp 0 +
STACK CFI INIT 1a628 e8 .cfa: sp 0 +
STACK CFI INIT 1a710 e8 .cfa: sp 0 +
STACK CFI INIT 1a7f8 14 .cfa: sp 0 +
STACK CFI INIT 1a80c 10 .cfa: sp 0 +
STACK CFI INIT 1a81c 10 .cfa: sp 0 +
STACK CFI INIT 1a82c f0 .cfa: sp 0 +
STACK CFI INIT 1a91c 44 .cfa: sp 0 +
STACK CFI INIT 1a960 c .cfa: sp 0 +
STACK CFI INIT 1a96c c .cfa: sp 0 +
STACK CFI INIT 1a978 2c .cfa: sp 0 +
STACK CFI INIT 1a9a4 280 .cfa: sp 0 +
STACK CFI INIT 1ac24 c .cfa: sp 0 +
STACK CFI INIT 1ac30 120 .cfa: sp 0 +
STACK CFI INIT 1ad50 488 .cfa: sp 0 +
STACK CFI INIT 1b1d8 c48 .cfa: sp 0 +
STACK CFI INIT 1be20 134 .cfa: sp 0 +
STACK CFI INIT 1bf54 210 .cfa: sp 0 +
STACK CFI INIT 1c164 38c .cfa: sp 0 +
STACK CFI INIT 1c4f0 1c8 .cfa: sp 0 +
STACK CFI INIT 1c6b8 9bc .cfa: sp 0 +
STACK CFI INIT 1d074 2d4 .cfa: sp 0 +
STACK CFI INIT 1d348 134 .cfa: sp 0 +
STACK CFI INIT 1d47c 120 .cfa: sp 0 +
STACK CFI INIT 1d59c 1c8 .cfa: sp 0 +
STACK CFI INIT 1d764 168 .cfa: sp 0 +
STACK CFI INIT 1d8cc fc .cfa: sp 0 +
STACK CFI INIT 1d9c8 30 .cfa: sp 0 +
STACK CFI INIT 1db30 30 .cfa: sp 0 +
STACK CFI INIT 1db60 98 .cfa: sp 0 +
STACK CFI INIT 1dbf8 59c .cfa: sp 0 +
STACK CFI INIT 1e194 8c .cfa: sp 0 +
STACK CFI INIT 1e220 30 .cfa: sp 0 +
STACK CFI INIT 1e250 8 .cfa: sp 0 +
STACK CFI INIT 1e258 4 .cfa: sp 0 +
STACK CFI INIT 1e25c 4 .cfa: sp 0 +
STACK CFI INIT 1e260 4 .cfa: sp 0 +
STACK CFI INIT 1e264 4 .cfa: sp 0 +
STACK CFI INIT 1e6e8 1c .cfa: sp 0 +
STACK CFI INIT 1e704 4c .cfa: sp 0 +
STACK CFI INIT 1e750 1c .cfa: sp 0 +
STACK CFI INIT 1ecc4 4 .cfa: sp 0 +
STACK CFI INIT 1ecc8 14 .cfa: sp 0 +
STACK CFI 1eccc .cfa: sp 16 +
STACK CFI 1ecd0 .cfa: x29 16 + .ra: .cfa -8 + ^ x29: .cfa -16 + ^
STACK CFI INIT 1ecdc 10 .cfa: sp 0 +
STACK CFI 1ece0 .cfa: sp 16 +
STACK CFI 1ece4 .cfa: x29 16 + .ra: .cfa -8 + ^ x29: .cfa -16 + ^
STACK CFI INIT 1ed3c 30 .cfa: sp 0 +
STACK CFI 1ed40 .cfa: sp 32 +
STACK CFI 1ed48 .cfa: x29 32 + x19: .cfa -16 + ^ .ra: .cfa -24 + ^ x29: .cfa -32 + ^
STACK CFI 1ed60 .cfa: sp 32 +
STACK CFI 1ed68 .cfa: sp 0 +
STACK CFI INIT 1ed6c 34 .cfa: sp 0 +
STACK CFI 1ed70 .cfa: sp 32 +
STACK CFI 1ed78 .cfa: x29 32 + x19: .cfa -16 + ^ .ra: .cfa -24 + ^ x29: .cfa -32 + ^
STACK CFI INIT 1efcc 14 .cfa: sp 0 +
STACK CFI 1efd0 .cfa: sp 16 +
STACK CFI 1efd4 .cfa: x29 16 + .ra: .cfa -8 + ^ x29: .cfa -16 + ^
STACK CFI INIT 1efe0 14 .cfa: sp 0 +
STACK CFI 1efe4 .cfa: sp 16 +
STACK CFI 1efe8 .cfa: x29 16 + .ra: .cfa -8 + ^ x29: .cfa -16 + ^
STACK CFI INIT 1f044 30 .cfa: sp 0 +
STACK CFI 1f048 .cfa: sp 32 +
STACK CFI 1f050 .cfa: x29 32 + x19: .cfa -16 + ^ .ra: .cfa -24 + ^ x29: .cfa -32 + ^
STACK CFI 1f068 .cfa: sp 32 +
STACK CFI 1f070 .cfa: sp 0 +
STACK CFI INIT 1f074 14 .cfa: sp 0 +
STACK CFI 1f078 .cfa: sp 16 +
STACK CFI 1f07c .cfa: x29 16 + .ra: .cfa -8 + ^ x29: .cfa -16 + ^
STACK CFI INIT 1f088 4 .cfa: sp 0 +
STACK CFI INIT 1f08c 4 .cfa: sp 0 +
STACK CFI INIT 1f090 38 .cfa: sp 0 +
STACK CFI 1f094 .cfa: sp 32 +
STACK CFI 1f09c .cfa: x29 32 + x19: .cfa -16 + ^ .ra: .cfa -24 + ^ x29: .cfa -32 + ^
STACK CFI 1f0bc .cfa: sp 32 +
STACK CFI 1f0c4 .cfa: sp 0 +
STACK CFI INIT 1f0c8 18 .cfa: sp 0 +
STACK CFI INIT 1f0e0 4 .cfa: sp 0 +
STACK CFI INIT 1f0e4 4 .cfa: sp 0 +
STACK CFI INIT 1f0e8 10 .cfa: sp 0 +
STACK CFI INIT 1f0f8 1c .cfa: sp 0 +
STACK CFI INIT 1f114 c .cfa: sp 0 +
STACK CFI INIT 1f2ac 4 .cfa: sp 0 +
STACK CFI INIT 1f8e4 50 .cfa: sp 0 +
STACK CFI 1f8e8 .cfa: sp 32 +
STACK CFI 1f8f0 .cfa: x29 32 + x19: .cfa -16 + ^ .ra: .cfa -24 + ^ x29: .cfa -32 + ^
STACK CFI 1f908 .cfa: sp 32 +
STACK CFI 1f910 .cfa: sp 0 +
STACK CFI 1f914 .cfa: x29 32 +
STACK CFI 1f928 .cfa: sp 32 +
STACK CFI 1f930 .cfa: sp 0 +
STACK CFI INIT 1f9a8 7c .cfa: sp 0 +
STACK CFI 1f9ac .cfa: sp 48 +
STACK CFI 1f9b8 .cfa: x29 48 + x19: .cfa -8 + ^ x20: .cfa -16 + ^ x21: .cfa -32 + ^ .ra: .cfa -40 + ^ x29: .cfa -48 + ^
STACK CFI 1fa04 .cfa: sp 48 +
STACK CFI 1fa10 .cfa: sp 0 +
STACK CFI 1fa14 .cfa: sp 48 +
STACK CFI 1fa20 .cfa: sp 0 +
STACK CFI INIT 1fa24 4 .cfa: sp 0 +
STACK CFI INIT 1fb7c 34 .cfa: sp 0 +
STACK CFI 1fb80 .cfa: sp 16 +
STACK CFI 1fb84 .cfa: x29 16 + .ra: .cfa -8 + ^ x29: .cfa -16 + ^
STACK CFI INIT 1fcdc 80 .cfa: sp 0 +
STACK CFI 1fce0 .cfa: sp 48 +
STACK CFI 1fcec .cfa: x29 48 + x19: .cfa -8 + ^ x20: .cfa -16 + ^ x21: .cfa -32 + ^ .ra: .cfa -40 + ^ x29: .cfa -48 + ^
STACK CFI 1fd4c .cfa: sp 48 +
STACK CFI 1fd58 .cfa: sp 0 +
STACK CFI INIT 1fd5c 24 .cfa: sp 0 +
STACK CFI 1fd60 .cfa: sp 32 +
STACK CFI 1fd68 .cfa: x29 32 + x19: .cfa -16 + ^ .ra: .cfa -24 + ^ x29: .cfa -32 + ^
STACK CFI 1fd74 .cfa: sp 32 +
STACK CFI 1fd7c .cfa: sp 0 +
STACK CFI INIT 20100 14 .cfa: sp 0 +
STACK CFI 20104 .cfa: sp 16 +
STACK CFI 20108 .cfa: x29 16 + .ra: .cfa -8 + ^ x29: .cfa -16 + ^
STACK CFI INIT 2028c 148 .cfa: sp 0 +
STACK CFI 20290 .cfa: sp 48 +
STACK CFI 2029c .cfa: x29 48 + x19: .cfa -8 + ^ x20: .cfa -16 + ^ x21: .cfa -32 + ^ .ra: .cfa -40 + ^ x29: .cfa -48 + ^
STACK CFI 203c4 .cfa: sp 48 +
STACK CFI 203d0 .cfa: sp 0 +
STACK CFI INIT 205fc 80 .cfa: sp 0 +
STACK CFI 20600 .cfa: sp 48 +
STACK CFI 2060c .cfa: x29 48 + x19: .cfa -8 + ^ x20: .cfa -16 + ^ x21: .cfa -24 + ^ x22: .cfa -32 + ^ .ra: .cfa -40 + ^ x29: .cfa -48 + ^
STACK CFI 20624 .cfa: sp 48 +
STACK CFI 20630 .cfa: sp 0 +
STACK CFI 20634 .cfa: x29 48 +
STACK CFI 20664 .cfa: sp 48 +
STACK CFI 20670 .cfa: sp 0 +
STACK CFI 20674 .cfa: x29 48 +
STACK CFI INIT 2067c 68 .cfa: sp 0 +
STACK CFI 20680 .cfa: sp 32 +
STACK CFI 20688 .cfa: x29 32 + x19: .cfa -8 + ^ x20: .cfa -16 + ^ .ra: .cfa -24 + ^ x29: .cfa -32 + ^
STACK CFI 206a0 .cfa: sp 32 +
STACK CFI 206a8 .cfa: sp 0 +
STACK CFI 206ac .cfa: x29 32 +
STACK CFI 206d8 .cfa: sp 32 +
STACK CFI 206e0 .cfa: sp 0 +
STACK CFI INIT 206e4 14 .cfa: sp 0 +
STACK CFI 206e8 .cfa: sp 16 +
STACK CFI 206ec .cfa: x29 16 + .ra: .cfa -8 + ^ x29: .cfa -16 + ^
STACK CFI INIT 206f8 4 .cfa: sp 0 +
STACK CFI INIT 206fc 14 .cfa: sp 0 +
STACK CFI INIT 20710 120 .cfa: sp 0 +
STACK CFI 20714 .cfa: sp 64 +
STACK CFI 20724 .cfa: x29 64 + x19: .cfa -8 + ^ x20: .cfa -16 + ^ x21: .cfa -24 + ^ x22: .cfa -32 + ^ x23: .cfa -40 + ^ x24: .cfa -48 + ^ .ra: .cfa -56 + ^ x29: .cfa -64 + ^
STACK CFI 2081c .cfa: sp 64 +
STACK CFI 2082c .cfa: sp 0 +
STACK CFI INIT 20830 d4 .cfa: sp 0 +
STACK CFI 20834 .cfa: sp 48 +
STACK CFI 20840 .cfa: x29 48 + x19: .cfa -8 + ^ x20: .cfa -16 + ^ x21: .cfa -32 + ^ .ra: .cfa -40 + ^ x29: .cfa -48 + ^
STACK CFI 208d0 .cfa: sp 48 +
STACK CFI 208dc .cfa: sp 0 +
STACK CFI 208e0 .cfa: x29 48 +
STACK CFI INIT 20904 3c8 .cfa: sp 0 +
STACK CFI INIT 20ccc 8c .cfa: sp 0 +
STACK CFI 20cd4 .cfa: sp 32 +
STACK CFI 20cdc .cfa: x29 32 + x19: .cfa -8 + ^ x20: .cfa -16 + ^ .ra: .cfa -24 + ^ x29: .cfa -32 + ^
STACK CFI 20d24 .cfa: sp 32 +
STACK CFI 20d2c .cfa: sp 0 +
STACK CFI 20d34 .cfa: x29 32 +
STACK CFI INIT 20d58 68 .cfa: sp 0 +
STACK CFI 20d5c .cfa: sp 48 +
STACK CFI 20d68 .cfa: x29 48 + x19: .cfa -8 + ^ x20: .cfa -16 + ^ x21: .cfa -32 + ^ .ra: .cfa -40 + ^ x29: .cfa -48 + ^
STACK CFI 20db0 .cfa: sp 48 +
STACK CFI 20dbc .cfa: sp 0 +
STACK CFI INIT 20dc0 a4 .cfa: sp 0 +
STACK CFI 20dc4 .cfa: sp 48 +
STACK CFI 20dd0 .cfa: x29 48 + x19: .cfa -8 + ^ x20: .cfa -16 + ^ x21: .cfa -32 + ^ .ra: .cfa -40 + ^ x29: .cfa -48 + ^
STACK CFI 20e40 .cfa: sp 48 +
STACK CFI 20e4c .cfa: sp 0 +
STACK CFI 20e50 .cfa: x29 48 +
STACK CFI 20e54 .cfa: sp 48 +
STACK CFI 20e60 .cfa: sp 0 +
STACK CFI INIT 21c54 78 .cfa: sp 0 +
STACK CFI 21c58 .cfa: sp 48 +
STACK CFI 21c64 .cfa: x29 48 + x19: .cfa -8 + ^ x20: .cfa -16 + ^ x21: .cfa -32 + ^ .ra: .cfa -40 + ^ x29: .cfa -48 + ^
STACK CFI 21cac .cfa: sp 48 +
STACK CFI 21cb8 .cfa: sp 0 +
STACK CFI 21cbc .cfa: sp 48 +
STACK CFI 21cc8 .cfa: sp 0 +
STACK CFI INIT 21ccc 78 .cfa: sp 0 +
STACK CFI 21cd0 .cfa: sp 48 +
STACK CFI 21cdc .cfa: x29 48 + x19: .cfa -8 + ^ x20: .cfa -16 + ^ x21: .cfa -32 + ^ .ra: .cfa -40 + ^ x29: .cfa -48 + ^
STACK CFI 21d24 .cfa: sp 48 +
STACK CFI 21d30 .cfa: sp 0 +
STACK CFI 21d34 .cfa: sp 48 +
STACK CFI 21d40 .cfa: sp 0 +
STACK CFI INIT 21d44 84 .cfa: sp 0 +
STACK CFI 21d48 .cfa: sp 48 +
STACK CFI 21d54 .cfa: x29 48 + x19: .cfa -8 + ^ x20: .cfa -16 + ^ x21: .cfa -24 + ^ x22: .cfa -32 + ^ .ra: .cfa -40 + ^ x29: .cfa -48 + ^
STACK CFI 21da8 .cfa: sp 48 +
STACK CFI 21db4 .cfa: sp 0 +
STACK CFI 21db8 .cfa: sp 48 +
STACK CFI 21dc4 .cfa: sp 0 +
STACK CFI INIT 21de4 8c .cfa: sp 0 +
STACK CFI 21de8 .cfa: sp 48 +
STACK CFI 21df4 .cfa: x29 48 + x19: .cfa -8 + ^ x20: .cfa -16 + ^ x21: .cfa -24 + ^ x22: .cfa -32 + ^ .ra: .cfa -40 + ^ x29: .cfa -48 + ^
STACK CFI 21e2c .cfa: sp 48 +
STACK CFI 21e38 .cfa: sp 0 +
STACK CFI 21e3c .cfa: x29 48 +
STACK CFI 21e60 .cfa: sp 48 +
STACK CFI 21e6c .cfa: sp 0 +
STACK CFI INIT 21e70 78 .cfa: sp 0 +
STACK CFI 21e74 .cfa: sp 48 +
STACK CFI 21e80 .cfa: x29 48 + x19: .cfa -8 + ^ x20: .cfa -16 + ^ x21: .cfa -32 + ^ .ra: .cfa -40 + ^ x29: .cfa -48 + ^
STACK CFI 21ec8 .cfa: sp 48 +
STACK CFI 21ed4 .cfa: sp 0 +
STACK CFI 21ed8 .cfa: sp 48 +
STACK CFI 21ee4 .cfa: sp 0 +
STACK CFI INIT 21ee8 8c .cfa: sp 0 +
STACK CFI 21eec .cfa: sp 48 +
STACK CFI 21ef8 .cfa: x29 48 + x19: .cfa -8 + ^ x20: .cfa -16 + ^ x21: .cfa -24 + ^ x22: .cfa -32 + ^ .ra: .cfa -40 + ^ x29: .cfa -48 + ^
STACK CFI 21f30 .cfa: sp 48 +
STACK CFI 21f3c .cfa: sp 0 +
STACK CFI 21f40 .cfa: x29 48 +
STACK CFI 21f64 .cfa: sp 48 +
STACK CFI 21f70 .cfa: sp 0 +
STACK CFI INIT 21f74 78 .cfa: sp 0 +
STACK CFI 21f78 .cfa: sp 48 +
STACK CFI 21f84 .cfa: x29 48 + x19: .cfa -8 + ^ x20: .cfa -16 + ^ x21: .cfa -32 + ^ .ra: .cfa -40 + ^ x29: .cfa -48 + ^
STACK CFI 21fcc .cfa: sp 48 +
STACK CFI 21fd8 .cfa: sp 0 +
STACK CFI 21fdc .cfa: sp 48 +
STACK CFI 21fe8 .cfa: sp 0 +
STACK CFI INIT 21fec 104 .cfa: sp 0 +
STACK CFI 21ff0 .cfa: sp 64 +
STACK CFI 22000 .cfa: x29 64 + x19: .cfa -8 + ^ x20: .cfa -16 + ^ x21: .cfa -24 + ^ x22: .cfa -32 + ^ x23: .cfa -48 + ^ .ra: .cfa -56 + ^ x29: .cfa -64 + ^
STACK CFI 220c8 .cfa: sp 64 +
STACK CFI 220d8 .cfa: sp 0 +
STACK CFI 220dc .cfa: sp 64 +
STACK CFI 220ec .cfa: sp 0 +
STACK CFI INIT 224e8 78 .cfa: sp 0 +
STACK CFI 224ec .cfa: sp 48 +
STACK CFI 224f8 .cfa: x29 48 + x19: .cfa -8 + ^ x20: .cfa -16 + ^ x21: .cfa -32 + ^ .ra: .cfa -40 + ^ x29: .cfa -48 + ^
STACK CFI 22540 .cfa: sp 48 +
STACK CFI 2254c .cfa: sp 0 +
STACK CFI 22550 .cfa: sp 48 +
STACK CFI 2255c .cfa: sp 0 +
STACK CFI INIT 2257c 90 .cfa: sp 0 +
STACK CFI 22580 .cfa: sp 48 +
STACK CFI 2258c .cfa: x29 48 + x19: .cfa -8 + ^ x20: .cfa -16 + ^ x21: .cfa -24 + ^ x22: .cfa -32 + ^ .ra: .cfa -40 + ^ x29: .cfa -48 + ^
STACK CFI 225c4 .cfa: sp 48 +
STACK CFI 225d0 .cfa: sp 0 +
STACK CFI 225d4 .cfa: x29 48 +
STACK CFI 225fc .cfa: sp 48 +
STACK CFI 22608 .cfa: sp 0 +
STACK CFI INIT 226a4 3c .cfa: sp 0 +
STACK CFI 226a8 .cfa: sp 32 +
STACK CFI 226b0 .cfa: x29 32 + x19: .cfa -16 + ^ .ra: .cfa -24 + ^ x29: .cfa -32 + ^
STACK CFI 226c8 .cfa: sp 32 +
STACK CFI 226d0 .cfa: sp 0 +
STACK CFI 226d4 .cfa: sp 32 +
STACK CFI 226dc .cfa: sp 0 +
STACK CFI INIT 22718 78 .cfa: sp 0 +
STACK CFI 2271c .cfa: sp 48 +
STACK CFI 22728 .cfa: x29 48 + x19: .cfa -8 + ^ x20: .cfa -16 + ^ x21: .cfa -32 + ^ .ra: .cfa -40 + ^ x29: .cfa -48 + ^
STACK CFI 22770 .cfa: sp 48 +
STACK CFI 2277c .cfa: sp 0 +
STACK CFI 22780 .cfa: sp 48 +
STACK CFI 2278c .cfa: sp 0 +
STACK CFI INIT 22790 78 .cfa: sp 0 +
STACK CFI 22794 .cfa: sp 48 +
STACK CFI 227a0 .cfa: x29 48 + x19: .cfa -8 + ^ x20: .cfa -16 + ^ x21: .cfa -32 + ^ .ra: .cfa -40 + ^ x29: .cfa -48 + ^
STACK CFI 227e8 .cfa: sp 48 +
STACK CFI 227f4 .cfa: sp 0 +
STACK CFI 227f8 .cfa: sp 48 +
STACK CFI 22804 .cfa: sp 0 +
STACK CFI INIT 22808 78 .cfa: sp 0 +
STACK CFI 2280c .cfa: sp 48 +
STACK CFI 22818 .cfa: x29 48 + x19: .cfa -8 + ^ x20: .cfa -16 + ^ x21: .cfa -32 + ^ .ra: .cfa -40 + ^ x29: .cfa -48 + ^
STACK CFI 22860 .cfa: sp 48 +
STACK CFI 2286c .cfa: sp 0 +
STACK CFI 22870 .cfa: sp 48 +
STACK CFI 2287c .cfa: sp 0 +
STACK CFI INIT 22880 78 .cfa: sp 0 +
STACK CFI 22884 .cfa: sp 48 +
STACK CFI 22890 .cfa: x29 48 + x19: .cfa -8 + ^ x20: .cfa -16 + ^ x21: .cfa -32 + ^ .ra: .cfa -40 + ^ x29: .cfa -48 + ^
STACK CFI 228d8 .cfa: sp 48 +
STACK CFI 228e4 .cfa: sp 0 +
STACK CFI 228e8 .cfa: sp 48 +
STACK CFI 228f4 .cfa: sp 0 +
STACK CFI INIT 22ac4 2b8 .cfa: sp 0 +
STACK CFI 22ac8 .cfa: sp 80 +
STACK CFI 22adc .cfa: x29 80 + x19: .cfa -8 + ^ x20: .cfa -16 + ^ x21: .cfa -24 + ^ x22: .cfa -32 + ^ x23: .cfa -40 + ^ x24: .cfa -48 + ^ x25: .cfa -64 + ^ .ra: .cfa -72 + ^ x29: .cfa -80 + ^
STACK CFI 22c88 .cfa: sp 80 +
STACK CFI 22c9c .cfa: sp 0 +
STACK CFI 22ca0 .cfa: x29 80 +
STACK CFI 22d64 .cfa: sp 80 +
STACK CFI 22d78 .cfa: sp 0 +
STACK CFI INIT 22d7c 80 .cfa: sp 0 +
STACK CFI 22d80 .cfa: sp 48 +
STACK CFI 22d8c .cfa: x29 48 + x19: .cfa -8 + ^ x20: .cfa -16 + ^ x21: .cfa -32 + ^ .ra: .cfa -40 + ^ x29: .cfa -48 + ^
STACK CFI 22ddc .cfa: sp 48 +
STACK CFI 22de8 .cfa: sp 0 +
STACK CFI 22dec .cfa: sp 48 +
STACK CFI 22df8 .cfa: sp 0 +
STACK CFI INIT 22dfc 80 .cfa: sp 0 +
STACK CFI 22e00 .cfa: sp 48 +
STACK CFI 22e0c .cfa: x29 48 + x19: .cfa -8 + ^ x20: .cfa -16 + ^ x21: .cfa -32 + ^ .ra: .cfa -40 + ^ x29: .cfa -48 + ^
STACK CFI 22e5c .cfa: sp 48 +
STACK CFI 22e68 .cfa: sp 0 +
STACK CFI 22e6c .cfa: sp 48 +
STACK CFI 22e78 .cfa: sp 0 +
STACK CFI INIT 2301c 2b8 .cfa: sp 0 +
STACK CFI INIT 232d4 1bc .cfa: sp 0 +
STACK CFI 232d8 .cfa: sp 64 +
STACK CFI 232e8 .cfa: x29 64 + x19: .cfa -8 + ^ x20: .cfa -16 + ^ x21: .cfa -24 + ^ x22: .cfa -32 + ^ x23: .cfa -48 + ^ .ra: .cfa -56 + ^ x29: .cfa -64 + ^
STACK CFI 233ec .cfa: sp 64 +
STACK CFI 233fc .cfa: sp 0 +
STACK CFI 23400 .cfa: x29 64 +
STACK CFI INIT 23490 80 .cfa: sp 0 +
STACK CFI 23494 .cfa: sp 48 +
STACK CFI 234a0 .cfa: x29 48 + x19: .cfa -8 + ^ x20: .cfa -16 + ^ x21: .cfa -32 + ^ .ra: .cfa -40 + ^ x29: .cfa -48 + ^
STACK CFI 234f0 .cfa: sp 48 +
STACK CFI 234fc .cfa: sp 0 +
STACK CFI 23500 .cfa: sp 48 +
STACK CFI 2350c .cfa: sp 0 +
STACK CFI INIT 23510 98 .cfa: sp 0 +
STACK CFI 23518 .cfa: sp 48 +
STACK CFI 23524 .cfa: x29 48 + x19: .cfa -8 + ^ x20: .cfa -16 + ^ x21: .cfa -32 + ^ .ra: .cfa -40 + ^ x29: .cfa -48 + ^
STACK CFI 23574 .cfa: sp 0 + x19: x19 x20: x20 x21: x21 .ra: x30 x29: x29
STACK CFI 23578 .cfa: x29 48 + x19: .cfa -8 + ^ x20: .cfa -16 + ^ x21: .cfa -32 + ^ .ra: .cfa -40 + ^ x29: .cfa -48 + ^
STACK CFI 23598 .cfa: sp 48 +
STACK CFI 235a4 .cfa: sp 0 +
STACK CFI INIT 235a8 54 .cfa: sp 0 +
STACK CFI 235b0 .cfa: sp 32 +
STACK CFI 235b8 .cfa: x29 32 + x19: .cfa -8 + ^ x20: .cfa -16 + ^ .ra: .cfa -24 + ^ x29: .cfa -32 + ^
STACK CFI 235f0 .cfa: sp 32 +
STACK CFI 235f8 .cfa: sp 0 +
STACK CFI INIT 235fc 54 .cfa: sp 0 +
STACK CFI 23604 .cfa: sp 32 +
STACK CFI 2360c .cfa: x29 32 + x19: .cfa -8 + ^ x20: .cfa -16 + ^ .ra: .cfa -24 + ^ x29: .cfa -32 + ^
STACK CFI 23644 .cfa: sp 32 +
STACK CFI 2364c .cfa: sp 0 +
STACK CFI INIT 236f8 54 .cfa: sp 0 +
STACK CFI 23700 .cfa: sp 32 +
STACK CFI 23708 .cfa: x29 32 + x19: .cfa -8 + ^ x20: .cfa -16 + ^ .ra: .cfa -24 + ^ x29: .cfa -32 + ^
STACK CFI 23740 .cfa: sp 32 +
STACK CFI 23748 .cfa: sp 0 +
STACK CFI INIT 2374c a8 .cfa: sp 0 +
STACK CFI 23754 .cfa: sp 48 +
STACK CFI 23760 .cfa: x29 48 + x19: .cfa -8 + ^ x20: .cfa -16 + ^ x21: .cfa -24 + ^ x22: .cfa -32 + ^ .ra: .cfa -40 + ^ x29: .cfa -48 + ^
STACK CFI 237e4 .cfa: sp 48 +
STACK CFI 237f0 .cfa: sp 0 +
STACK CFI INIT 237f4 54 .cfa: sp 0 +
STACK CFI 237fc .cfa: sp 32 +
STACK CFI 23804 .cfa: x29 32 + x19: .cfa -8 + ^ x20: .cfa -16 + ^ .ra: .cfa -24 + ^ x29: .cfa -32 + ^
STACK CFI 2383c .cfa: sp 32 +
STACK CFI 23844 .cfa: sp 0 +
STACK CFI INIT 23848 50 .cfa: sp 0 +
STACK CFI 2384c .cfa: sp 32 +
STACK CFI 23854 .cfa: x29 32 + x19: .cfa -16 + ^ .ra: .cfa -24 + ^ x29: .cfa -32 + ^
STACK CFI 2386c .cfa: sp 32 +
STACK CFI 23874 .cfa: sp 0 +
STACK CFI 23878 .cfa: x29 32 +
STACK CFI 2388c .cfa: sp 32 +
STACK CFI 23894 .cfa: sp 0 +
STACK CFI INIT 23898 64 .cfa: sp 0 +
STACK CFI 2389c .cfa: sp 32 +
STACK CFI 238a4 .cfa: x29 32 + x19: .cfa -16 + ^ .ra: .cfa -24 + ^ x29: .cfa -32 + ^
STACK CFI 238d0 .cfa: sp 32 +
STACK CFI 238d8 .cfa: sp 0 +
STACK CFI 238dc .cfa: x29 32 +
STACK CFI 238f0 .cfa: sp 32 +
STACK CFI 238f8 .cfa: sp 0 +
STACK CFI INIT 238fc 14 .cfa: sp 0 +
STACK CFI 23900 .cfa: sp 16 +
STACK CFI 23904 .cfa: x29 16 + .ra: .cfa -8 + ^ x29: .cfa -16 + ^
STACK CFI INIT 23910 178 .cfa: sp 0 +
STACK CFI 23914 .cfa: sp 80 +
STACK CFI 23928 .cfa: x29 80 + x19: .cfa -8 + ^ x20: .cfa -16 + ^ x21: .cfa -24 + ^ x22: .cfa -32 + ^ x23: .cfa -40 + ^ x24: .cfa -48 + ^ x25: .cfa -56 + ^ x26: .cfa -64 + ^ .ra: .cfa -72 + ^ x29: .cfa -80 + ^
STACK CFI 23a70 .cfa: sp 80 +
STACK CFI 23a84 .cfa: sp 0 +
STACK CFI INIT 23a88 1b0 .cfa: sp 0 +
STACK CFI INIT 23c38 4 .cfa: sp 0 +
STACK CFI INIT 23c3c 4 .cfa: sp 0 +
STACK CFI INIT 23c40 fc .cfa: sp 0 +
STACK CFI 23c44 .cfa: sp 64 +
STACK CFI 23c54 .cfa: x29 64 + x19: .cfa -8 + ^ x20: .cfa -16 + ^ x21: .cfa -24 + ^ x22: .cfa -32 + ^ x23: .cfa -48 + ^ .ra: .cfa -56 + ^ x29: .cfa -64 + ^
STACK CFI 23cb8 .cfa: sp 64 +
STACK CFI 23cc8 .cfa: sp 0 +
STACK CFI 23ccc .cfa: x29 64 +
STACK CFI 23ce8 .cfa: sp 64 +
STACK CFI 23cf8 .cfa: sp 0 +
STACK CFI 23cfc .cfa: x29 64 +
STACK CFI 23d28 .cfa: sp 64 +
STACK CFI 23d38 .cfa: sp 0 +
STACK CFI INIT 23d3c b4 .cfa: sp 0 +
STACK CFI 23d40 .cfa: sp 32 +
STACK CFI 23d48 .cfa: x29 32 + x19: .cfa -8 + ^ x20: .cfa -16 + ^ .ra: .cfa -24 + ^ x29: .cfa -32 + ^
STACK CFI 23dd8 .cfa: sp 32 +
STACK CFI 23de0 .cfa: sp 0 +
STACK CFI 23de4 .cfa: sp 32 +
STACK CFI 23dec .cfa: sp 0 +
STACK CFI INIT 23df0 308 .cfa: sp 0 +
STACK CFI 23df4 .cfa: sp 48 +
STACK CFI 23e00 .cfa: x29 48 + x19: .cfa -8 + ^ x20: .cfa -16 + ^ x21: .cfa -32 + ^ .ra: .cfa -40 + ^ x29: .cfa -48 + ^
STACK CFI 23eb4 .cfa: sp 48 +
STACK CFI 23ec0 .cfa: sp 0 +
STACK CFI 23ec4 .cfa: x29 48 +
STACK CFI 23ee4 .cfa: sp 48 +
STACK CFI 23ef0 .cfa: sp 0 +
STACK CFI 23ef4 .cfa: x29 48 +
STACK CFI 23f04 .cfa: sp 48 +
STACK CFI 23f10 .cfa: sp 0 +
STACK CFI 23f14 .cfa: x29 48 +
STACK CFI 23f3c .cfa: sp 48 +
STACK CFI 23f48 .cfa: sp 0 +
STACK CFI 23f4c .cfa: x29 48 +
STACK CFI 23f5c .cfa: sp 48 +
STACK CFI 23f68 .cfa: sp 0 +
STACK CFI 23f6c .cfa: x29 48 +
STACK CFI 23f98 .cfa: sp 48 +
STACK CFI 23fa4 .cfa: sp 0 +
STACK CFI 23fa8 .cfa: x29 48 +
STACK CFI 24014 .cfa: sp 48 +
STACK CFI 24020 .cfa: sp 0 +
STACK CFI 24024 .cfa: x29 48 +
STACK CFI 24050 .cfa: sp 48 +
STACK CFI 2405c .cfa: sp 0 +
STACK CFI 24060 .cfa: x29 48 +
STACK CFI 240a8 .cfa: sp 48 +
STACK CFI 240b4 .cfa: sp 0 +
STACK CFI 240b8 .cfa: x29 48 +
STACK CFI 240c8 .cfa: sp 48 +
STACK CFI 240d4 .cfa: sp 0 +
STACK CFI 240d8 .cfa: x29 48 +
STACK CFI 240e8 .cfa: sp 48 +
STACK CFI 240f4 .cfa: sp 0 +
STACK CFI INIT 24578 1c .cfa: sp 0 +
STACK CFI INIT 248c4 4 .cfa: sp 0 +
STACK CFI INIT 24b54 8c .cfa: sp 0 +
STACK CFI 24b58 .cfa: sp 32 +
STACK CFI 24b60 .cfa: x29 32 + x19: .cfa -16 + ^ .ra: .cfa -24 + ^ x29: .cfa -32 + ^
STACK CFI 24bd4 .cfa: sp 32 +
STACK CFI 24bdc .cfa: sp 0 +
STACK CFI INIT 251c4 70 .cfa: sp 0 +
STACK CFI 251c8 .cfa: sp 48 +
STACK CFI 251d4 .cfa: x29 32 + x19: .cfa -16 + ^ .ra: .cfa -24 + ^ x29: .cfa -32 + ^
STACK CFI 2520c .cfa: sp 48 +
STACK CFI 25218 .cfa: sp 0 +
STACK CFI 2521c .cfa: x29 32 +
STACK CFI INIT 25234 5c .cfa: sp 0 +
STACK CFI 25238 .cfa: sp 32 +
STACK CFI 25240 .cfa: x29 32 + x19: .cfa -16 + ^ .ra: .cfa -24 + ^ x29: .cfa -32 + ^
STACK CFI 25284 .cfa: sp 32 +
STACK CFI 2528c .cfa: sp 0 +
STACK CFI INIT 25290 64 .cfa: sp 0 +
STACK CFI 25294 .cfa: sp 32 +
STACK CFI 2529c .cfa: x29 32 + x19: .cfa -16 + ^ .ra: .cfa -24 + ^ x29: .cfa -32 + ^
STACK CFI 252e8 .cfa: sp 32 +
STACK CFI 252f0 .cfa: sp 0 +
STACK CFI INIT 252f4 4 .cfa: sp 0 +
STACK CFI INIT 252f8 34 .cfa: sp 0 +
STACK CFI 252fc .cfa: sp 16 +
STACK CFI 25300 .cfa: x29 16 + .ra: .cfa -8 + ^ x29: .cfa -16 + ^
STACK CFI INIT 2532c 24 .cfa: sp 0 +
STACK CFI 25330 .cfa: sp 32 +
STACK CFI 25338 .cfa: x29 32 + x19: .cfa -16 + ^ .ra: .cfa -24 + ^ x29: .cfa -32 + ^
STACK CFI 25344 .cfa: sp 32 +
STACK CFI 2534c .cfa: sp 0 +
STACK CFI INIT 25350 4 .cfa: sp 0 +
STACK CFI INIT 25354 4 .cfa: sp 0 +
STACK CFI INIT 25358 24 .cfa: sp 0 +
STACK CFI 2535c .cfa: sp 16 +
STACK CFI 25360 .cfa: x29 16 + .ra: .cfa -8 + ^ x29: .cfa -16 + ^
STACK CFI 25374 .cfa: sp 16 +
STACK CFI 25378 .cfa: sp 0 +
STACK CFI INIT 2537c 10 .cfa: sp 0 +
STACK CFI INIT 2538c 4 .cfa: sp 0 +
STACK CFI INIT 25390 4 .cfa: sp 0 +
STACK CFI INIT 25394 1c .cfa: sp 0 +
STACK CFI 25398 .cfa: sp 16 +
STACK CFI 2539c .cfa: x29 16 + .ra: .cfa -8 + ^ x29: .cfa -16 + ^
STACK CFI 253a8 .cfa: sp 16 +
STACK CFI 253ac .cfa: sp 0 +
STACK CFI INIT 253b0 1c .cfa: sp 0 +
STACK CFI INIT 253cc c .cfa: sp 0 +
STACK CFI INIT 268e8 30 .cfa: sp 0 +
STACK CFI 268ec .cfa: sp 32 +
STACK CFI 268f4 .cfa: x29 32 + x19: .cfa -16 + ^ .ra: .cfa -24 + ^ x29: .cfa -32 + ^
STACK CFI 2690c .cfa: sp 32 +
STACK CFI 26914 .cfa: sp 0 +
STACK CFI INIT 26b40 2c .cfa: sp 0 +
STACK CFI 26b44 .cfa: sp 32 +
STACK CFI 26b4c .cfa: x29 32 + x19: .cfa -16 + ^ .ra: .cfa -24 + ^ x29: .cfa -32 + ^
STACK CFI 26b60 .cfa: sp 32 +
STACK CFI 26b68 .cfa: sp 0 +
STACK CFI INIT 26b6c 28 .cfa: sp 0 +
STACK CFI INIT 26b94 4 .cfa: sp 0 +
STACK CFI INIT 26b98 8 .cfa: sp 0 +
STACK CFI INIT 26c80 2c .cfa: sp 0 +
STACK CFI INIT 26cac 4 .cfa: sp 0 +
STACK CFI INIT 26cb0 8 .cfa: sp 0 +
STACK CFI INIT 26cb8 4 .cfa: sp 0 +
STACK CFI INIT 26d28 4 .cfa: sp 0 +
STACK CFI INIT 26d2c 70 .cfa: sp 0 +
STACK CFI 26d30 .cfa: sp 48 +
STACK CFI 26d3c .cfa: x29 32 + x19: .cfa -16 + ^ .ra: .cfa -24 + ^ x29: .cfa -32 + ^
STACK CFI 26d74 .cfa: sp 48 +
STACK CFI 26d80 .cfa: sp 0 +
STACK CFI 26d84 .cfa: x29 32 +
STACK CFI INIT 26d9c 5c .cfa: sp 0 +
STACK CFI 26da0 .cfa: sp 32 +
STACK CFI 26da8 .cfa: x29 32 + x19: .cfa -16 + ^ .ra: .cfa -24 + ^ x29: .cfa -32 + ^
STACK CFI 26dec .cfa: sp 32 +
STACK CFI 26df4 .cfa: sp 0 +
STACK CFI INIT 26df8 64 .cfa: sp 0 +
STACK CFI 26dfc .cfa: sp 32 +
STACK CFI 26e04 .cfa: x29 32 + x19: .cfa -16 + ^ .ra: .cfa -24 + ^ x29: .cfa -32 + ^
STACK CFI 26e50 .cfa: sp 32 +
STACK CFI 26e58 .cfa: sp 0 +
STACK CFI INIT 26e5c 308 .cfa: sp 0 +
STACK CFI 26e60 .cfa: sp 128 +
STACK CFI 26e78 .cfa: x29 64 + x19: .cfa -8 + ^ x20: .cfa -16 + ^ x21: .cfa -24 + ^ x22: .cfa -32 + ^ x23: .cfa -48 + ^ .ra: .cfa -56 + ^ x29: .cfa -64 + ^ v8: .cfa -72 + ^ v9: .cfa -80 + ^
STACK CFI 270ac .cfa: sp 128 +
STACK CFI 270c4 .cfa: sp 0 +
STACK CFI 270c8 .cfa: x29 64 +
STACK CFI INIT 27180 60 .cfa: sp 0 +
STACK CFI 27184 .cfa: sp 32 +
STACK CFI 2718c .cfa: x29 32 + x19: .cfa -8 + ^ x20: .cfa -16 + ^ .ra: .cfa -24 + ^ x29: .cfa -32 + ^
STACK CFI 271ac .cfa: sp 32 +
STACK CFI 271b4 .cfa: sp 0 +
STACK CFI 271b8 .cfa: x29 32 +
STACK CFI 271d4 .cfa: sp 32 +
STACK CFI 271dc .cfa: sp 0 +
STACK CFI INIT 271e0 70 .cfa: sp 0 +
STACK CFI 271e4 .cfa: sp 32 +
STACK CFI 271ec .cfa: x29 32 + x19: .cfa -8 + ^ x20: .cfa -16 + ^ .ra: .cfa -24 + ^ x29: .cfa -32 + ^
STACK CFI 27214 .cfa: sp 32 +
STACK CFI 2721c .cfa: sp 0 +
STACK CFI 27220 .cfa: x29 32 +
STACK CFI 27244 .cfa: sp 32 +
STACK CFI 2724c .cfa: sp 0 +
STACK CFI INIT 27250 10 .cfa: sp 0 +
STACK CFI INIT 27260 30 .cfa: sp 0 +
STACK CFI 27264 .cfa: sp 32 +
STACK CFI 2726c .cfa: x29 32 + x19: .cfa -16 + ^ .ra: .cfa -24 + ^ x29: .cfa -32 + ^
STACK CFI 27284 .cfa: sp 32 +
STACK CFI 2728c .cfa: sp 0 +
STACK CFI INIT 27290 4 .cfa: sp 0 +
STACK CFI INIT 27294 4 .cfa: sp 0 +
STACK CFI INIT 27298 4 .cfa: sp 0 +
STACK CFI INIT 2729c 34 .cfa: sp 0 +
STACK CFI 272a0 .cfa: sp 32 +
STACK CFI 272a8 .cfa: x29 32 + x19: .cfa -16 + ^ .ra: .cfa -24 + ^ x29: .cfa -32 + ^
STACK CFI 272c4 .cfa: sp 32 +
STACK CFI 272cc .cfa: sp 0 +
STACK CFI INIT 272d0 14 .cfa: sp 0 +
STACK CFI INIT 272e4 4 .cfa: sp 0 +
STACK CFI INIT 272e8 4 .cfa: sp 0 +
STACK CFI INIT 272ec 1b4 .cfa: sp 0 +
STACK CFI 272f0 .cfa: sp 32 +
STACK CFI 272f8 .cfa: x29 32 + x19: .cfa -8 + ^ x20: .cfa -16 + ^ .ra: .cfa -24 + ^ x29: .cfa -32 + ^
STACK CFI 27494 .cfa: sp 32 +
STACK CFI 2749c .cfa: sp 0 +
STACK CFI INIT 274a0 1c .cfa: sp 0 +
STACK CFI INIT 274bc c .cfa: sp 0 +
STACK CFI INIT 274c8 4 .cfa: sp 0 +
STACK CFI INIT 274cc 34 .cfa: sp 0 +
STACK CFI 274d0 .cfa: sp 32 +
STACK CFI 274d8 .cfa: x29 32 + x19: .cfa -16 + ^ .ra: .cfa -24 + ^ x29: .cfa -32 + ^
STACK CFI 274f4 .cfa: sp 32 +
STACK CFI 274fc .cfa: sp 0 +
STACK CFI INIT 27500 14 .cfa: sp 0 +
STACK CFI INIT 27514 4 .cfa: sp 0 +
STACK CFI INIT 27518 4 .cfa: sp 0 +
STACK CFI INIT 2751c 124 .cfa: sp 0 +
STACK CFI 27520 .cfa: sp 32 +
STACK CFI 27528 .cfa: x29 32 + x19: .cfa -8 + ^ x20: .cfa -16 + ^ .ra: .cfa -24 + ^ x29: .cfa -32 + ^
STACK CFI 27634 .cfa: sp 32 +
STACK CFI 2763c .cfa: sp 0 +
STACK CFI INIT 27640 1c .cfa: sp 0 +
STACK CFI INIT 2765c c .cfa: sp 0 +
STACK CFI INIT 27668 4 .cfa: sp 0 +
STACK CFI INIT 2766c 4 .cfa: sp 0 +
STACK CFI INIT 27670 34 .cfa: sp 0 +
STACK CFI 27674 .cfa: sp 32 +
STACK CFI 2767c .cfa: x29 32 + x19: .cfa -16 + ^ .ra: .cfa -24 + ^ x29: .cfa -32 + ^
STACK CFI 27698 .cfa: sp 32 +
STACK CFI 276a0 .cfa: sp 0 +
STACK CFI INIT 276a4 14 .cfa: sp 0 +
STACK CFI INIT 276b8 4 .cfa: sp 0 +
STACK CFI INIT 276bc 4 .cfa: sp 0 +
STACK CFI INIT 276c0 ac .cfa: sp 0 +
STACK CFI 276c4 .cfa: sp 48 +
STACK CFI 276d0 .cfa: x29 48 + x19: .cfa -8 + ^ x20: .cfa -16 + ^ x21: .cfa -24 + ^ x22: .cfa -32 + ^ .ra: .cfa -40 + ^ x29: .cfa -48 + ^
STACK CFI 27734 .cfa: sp 48 +
STACK CFI 27740 .cfa: sp 0 +
STACK CFI 27744 .cfa: x29 48 +
STACK CFI 2775c .cfa: sp 48 +
STACK CFI 27768 .cfa: sp 0 +
STACK CFI INIT 2776c 1c .cfa: sp 0 +
STACK CFI INIT 27788 c .cfa: sp 0 +
STACK CFI INIT 27794 3c .cfa: sp 0 +
STACK CFI 27798 .cfa: sp 32 +
STACK CFI 277a0 .cfa: x29 32 + x19: .cfa -16 + ^ .ra: .cfa -24 + ^ x29: .cfa -32 + ^
STACK CFI 277ac .cfa: sp 32 +
STACK CFI 277b4 .cfa: sp 0 +
STACK CFI 277b8 .cfa: x29 32 +
STACK CFI 277c4 .cfa: sp 32 +
STACK CFI 277cc .cfa: sp 0 +
STACK CFI INIT 277d0 4c .cfa: sp 0 +
STACK CFI 277d4 .cfa: sp 32 +
STACK CFI 277dc .cfa: x29 32 + x19: .cfa -8 + ^ x20: .cfa -16 + ^ .ra: .cfa -24 + ^ x29: .cfa -32 + ^
STACK CFI 27804 .cfa: sp 32 +
STACK CFI 2780c .cfa: sp 0 +
STACK CFI 27810 .cfa: sp 32 +
STACK CFI 27818 .cfa: sp 0 +
STACK CFI INIT 27a3c 64 .cfa: sp 0 +
STACK CFI 27a40 .cfa: sp 32 +
STACK CFI 27a48 .cfa: x29 32 + x19: .cfa -16 + ^ .ra: .cfa -24 + ^ x29: .cfa -32 + ^
STACK CFI 27a74 .cfa: sp 32 +
STACK CFI 27a7c .cfa: sp 0 +
STACK CFI 27a80 .cfa: x29 32 +
STACK CFI 27a94 .cfa: sp 32 +
STACK CFI 27a9c .cfa: sp 0 +
STACK CFI INIT 27cc4 24 .cfa: sp 0 +
STACK CFI 27cc8 .cfa: sp 32 +
STACK CFI 27cd0 .cfa: x29 32 + x19: .cfa -16 + ^ .ra: .cfa -24 + ^ x29: .cfa -32 + ^
STACK CFI 27cdc .cfa: sp 32 +
STACK CFI 27ce4 .cfa: sp 0 +
STACK CFI INIT 27ce8 24 .cfa: sp 0 +
STACK CFI 27cec .cfa: sp 32 +
STACK CFI 27cf4 .cfa: x29 32 + x19: .cfa -16 + ^ .ra: .cfa -24 + ^ x29: .cfa -32 + ^
STACK CFI 27d00 .cfa: sp 32 +
STACK CFI 27d08 .cfa: sp 0 +
STACK CFI INIT 27d0c 8 .cfa: sp 0 +
STACK CFI INIT 27d14 24 .cfa: sp 0 +
STACK CFI 27d18 .cfa: sp 32 +
STACK CFI 27d20 .cfa: x29 32 + x19: .cfa -16 + ^ .ra: .cfa -24 + ^ x29: .cfa -32 + ^
STACK CFI 27d2c .cfa: sp 32 +
STACK CFI 27d34 .cfa: sp 0 +
STACK CFI INIT 27d38 28 .cfa: sp 0 +
STACK CFI 27d3c .cfa: sp 32 +
STACK CFI 27d44 .cfa: x29 32 + x19: .cfa -16 + ^ .ra: .cfa -24 + ^ x29: .cfa -32 + ^
STACK CFI 27d54 .cfa: sp 32 +
STACK CFI 27d5c .cfa: sp 0 +
STACK CFI INIT 28060 8 .cfa: sp 0 +
STACK CFI INIT 28068 24 .cfa: sp 0 +
STACK CFI 2806c .cfa: sp 32 +
STACK CFI 28074 .cfa: x29 32 + x19: .cfa -16 + ^ .ra: .cfa -24 + ^ x29: .cfa -32 + ^
STACK CFI 28080 .cfa: sp 32 +
STACK CFI 28088 .cfa: sp 0 +
STACK CFI INIT 2808c 28 .cfa: sp 0 +
STACK CFI 28090 .cfa: sp 32 +
STACK CFI 28098 .cfa: x29 32 + x19: .cfa -16 + ^ .ra: .cfa -24 + ^ x29: .cfa -32 + ^
STACK CFI 280a8 .cfa: sp 32 +
STACK CFI 280b0 .cfa: sp 0 +
STACK CFI INIT 28318 8 .cfa: sp 0 +
STACK CFI INIT 28320 24 .cfa: sp 0 +
STACK CFI 28324 .cfa: sp 32 +
STACK CFI 2832c .cfa: x29 32 + x19: .cfa -16 + ^ .ra: .cfa -24 + ^ x29: .cfa -32 + ^
STACK CFI 28338 .cfa: sp 32 +
STACK CFI 28340 .cfa: sp 0 +
STACK CFI INIT 28344 28 .cfa: sp 0 +
STACK CFI 28348 .cfa: sp 32 +
STACK CFI 28350 .cfa: x29 32 + x19: .cfa -16 + ^ .ra: .cfa -24 + ^ x29: .cfa -32 + ^
STACK CFI 28360 .cfa: sp 32 +
STACK CFI 28368 .cfa: sp 0 +
STACK CFI INIT 2836c 8 .cfa: sp 0 +
STACK CFI INIT 28374 24 .cfa: sp 0 +
STACK CFI 28378 .cfa: sp 32 +
STACK CFI 28380 .cfa: x29 32 + x19: .cfa -16 + ^ .ra: .cfa -24 + ^ x29: .cfa -32 + ^
STACK CFI 2838c .cfa: sp 32 +
STACK CFI 28394 .cfa: sp 0 +
STACK CFI INIT 28398 28 .cfa: sp 0 +
STACK CFI 2839c .cfa: sp 32 +
STACK CFI 283a4 .cfa: x29 32 + x19: .cfa -16 + ^ .ra: .cfa -24 + ^ x29: .cfa -32 + ^
STACK CFI 283b4 .cfa: sp 32 +
STACK CFI 283bc .cfa: sp 0 +
STACK CFI INIT 2937c 8 .cfa: sp 0 +
STACK CFI INIT 29384 24 .cfa: sp 0 +
STACK CFI 29388 .cfa: sp 32 +
STACK CFI 29390 .cfa: x29 32 + x19: .cfa -16 + ^ .ra: .cfa -24 + ^ x29: .cfa -32 + ^
STACK CFI 2939c .cfa: sp 32 +
STACK CFI 293a4 .cfa: sp 0 +
STACK CFI INIT 293a8 28 .cfa: sp 0 +
STACK CFI 293ac .cfa: sp 32 +
STACK CFI 293b4 .cfa: x29 32 + x19: .cfa -16 + ^ .ra: .cfa -24 + ^ x29: .cfa -32 + ^
STACK CFI 293c4 .cfa: sp 32 +
STACK CFI 293cc .cfa: sp 0 +
STACK CFI INIT 299fc 8 .cfa: sp 0 +
STACK CFI INIT 2a140 8 .cfa: sp 0 +
STACK CFI INIT 2a58c 8 .cfa: sp 0 +
STACK CFI INIT 2a7e8 4 .cfa: sp 0 +
STACK CFI INIT 2a7ec 8 .cfa: sp 0 +
STACK CFI INIT 2a7f4 8 .cfa: sp 0 +
STACK CFI INIT 2a7fc 4 .cfa: sp 0 +
STACK CFI INIT 2c9e4 4 .cfa: sp 0 +
STACK CFI INIT 2c9e8 14 .cfa: sp 0 +
STACK CFI INIT 1e268 480 .cfa: sp 0 +
STACK CFI 1e26c .cfa: sp 224 +
STACK CFI 1e288 .cfa: x29 96 + x19: .cfa -8 + ^ x20: .cfa -16 + ^ x21: .cfa -24 + ^ x22: .cfa -32 + ^ x23: .cfa -40 + ^ x24: .cfa -48 + ^ x25: .cfa -56 + ^ x26: .cfa -64 + ^ x27: .cfa -80 + ^ .ra: .cfa -88 + ^ x29: .cfa -96 + ^
STACK CFI 1e4f4 .cfa: sp 224 +
STACK CFI 1e510 .cfa: sp 0 +
STACK CFI 1e514 .cfa: x29 96 +
STACK CFI 1e5e0 .cfa: sp 224 +
STACK CFI 1e5fc .cfa: sp 0 +
STACK CFI 1e600 .cfa: x29 96 +
STACK CFI INIT 1e76c 18c .cfa: sp 0 +
STACK CFI 1e770 .cfa: sp 112 +
STACK CFI 1e780 .cfa: x29 48 + x19: .cfa -8 + ^ x20: .cfa -16 + ^ x21: .cfa -32 + ^ .ra: .cfa -40 + ^ x29: .cfa -48 + ^
STACK CFI 1e84c .cfa: sp 112 +
STACK CFI 1e85c .cfa: sp 0 +
STACK CFI 1e860 .cfa: x29 48 +
STACK CFI INIT 1e8f8 2b8 .cfa: sp 0 +
STACK CFI 1e8fc .cfa: sp 160 +
STACK CFI 1e918 .cfa: x29 96 + x19: .cfa -8 + ^ x20: .cfa -16 + ^ x21: .cfa -24 + ^ x22: .cfa -32 + ^ x23: .cfa -40 + ^ x24: .cfa -48 + ^ x25: .cfa -56 + ^ x26: .cfa -64 + ^ x27: .cfa -72 + ^ x28: .cfa -80 + ^ .ra: .cfa -88 + ^ x29: .cfa -96 + ^
STACK CFI 1e950 .cfa: sp 160 +
STACK CFI 1e96c .cfa: sp 0 +
STACK CFI 1e970 .cfa: x29 96 +
STACK CFI INIT 1ebb0 114 .cfa: sp 0 +
STACK CFI 1ebb4 .cfa: sp 64 +
STACK CFI 1ebc4 .cfa: x29 64 + x19: .cfa -8 + ^ x20: .cfa -16 + ^ x21: .cfa -24 + ^ x22: .cfa -32 + ^ x23: .cfa -48 + ^ .ra: .cfa -56 + ^ x29: .cfa -64 + ^
STACK CFI 1eca0 .cfa: sp 64 +
STACK CFI 1ecb0 .cfa: sp 0 +
STACK CFI 1ecb4 .cfa: x29 64 +
STACK CFI INIT 1ecec 50 .cfa: sp 0 +
STACK CFI 1ecf0 .cfa: sp 32 +
STACK CFI 1ecf8 .cfa: x29 32 + x19: .cfa -8 + ^ x20: .cfa -16 + ^ .ra: .cfa -24 + ^ x29: .cfa -32 + ^
STACK CFI INIT 1eda0 22c .cfa: sp 0 +
STACK CFI 1eda4 .cfa: sp 96 +
STACK CFI 1edbc .cfa: x29 96 + x19: .cfa -8 + ^ x20: .cfa -16 + ^ x21: .cfa -24 + ^ x22: .cfa -32 + ^ x23: .cfa -40 + ^ x24: .cfa -48 + ^ x25: .cfa -56 + ^ x26: .cfa -64 + ^ x27: .cfa -80 + ^ .ra: .cfa -88 + ^ x29: .cfa -96 + ^
STACK CFI 1ef60 .cfa: sp 96 +
STACK CFI 1ef78 .cfa: sp 0 +
STACK CFI 1ef7c .cfa: x29 96 +
STACK CFI INIT 1eff4 50 .cfa: sp 0 +
STACK CFI 1eff8 .cfa: sp 32 +
STACK CFI 1f000 .cfa: x29 32 + x19: .cfa -8 + ^ x20: .cfa -16 + ^ .ra: .cfa -24 + ^ x29: .cfa -32 + ^
STACK CFI INIT 1f120 18c .cfa: sp 0 +
STACK CFI 1f124 .cfa: sp 112 +
STACK CFI 1f134 .cfa: x29 48 + x19: .cfa -8 + ^ x20: .cfa -16 + ^ x21: .cfa -32 + ^ .ra: .cfa -40 + ^ x29: .cfa -48 + ^
STACK CFI 1f204 .cfa: sp 112 +
STACK CFI 1f214 .cfa: sp 0 +
STACK CFI 1f218 .cfa: x29 48 +
STACK CFI INIT 1f2b0 634 .cfa: sp 0 +
STACK CFI 1f2b4 .cfa: sp 288 +
STACK CFI 1f2d0 .cfa: x29 96 + x19: .cfa -8 + ^ x20: .cfa -16 + ^ x21: .cfa -24 + ^ x22: .cfa -32 + ^ x23: .cfa -40 + ^ x24: .cfa -48 + ^ x25: .cfa -56 + ^ x26: .cfa -64 + ^ x28: .cfa -80 + ^ .ra: .cfa -88 + ^ x29: .cfa -96 + ^
STACK CFI 1f710 .cfa: sp 288 +
STACK CFI 1f72c .cfa: sp 0 +
STACK CFI 1f730 .cfa: x29 96 +
STACK CFI INIT 1f934 74 .cfa: sp 0 +
STACK CFI 1f938 .cfa: sp 48 +
STACK CFI 1f944 .cfa: x29 32 + x19: .cfa -8 + ^ x20: .cfa -16 + ^ .ra: .cfa -24 + ^ x29: .cfa -32 + ^
STACK CFI 1f990 .cfa: sp 48 +
STACK CFI 1f99c .cfa: sp 0 +
STACK CFI 1f9a0 .cfa: x29 32 +
STACK CFI INIT 1fa28 154 .cfa: sp 0 +
STACK CFI 1fa2c .cfa: sp 384 +
STACK CFI 1fa40 .cfa: x29 64 + x19: .cfa -8 + ^ x20: .cfa -16 + ^ x21: .cfa -24 + ^ x22: .cfa -32 + ^ x23: .cfa -40 + ^ x28: .cfa -48 + ^ .ra: .cfa -56 + ^ x29: .cfa -64 + ^
STACK CFI 1fb24 .cfa: sp 384 +
STACK CFI 1fb38 .cfa: sp 0 +
STACK CFI 1fb3c .cfa: x29 64 +
STACK CFI INIT 1fbb0 12c .cfa: sp 0 +
STACK CFI 1fbb4 .cfa: sp 80 +
STACK CFI 1fbc8 .cfa: x29 80 + x19: .cfa -8 + ^ x20: .cfa -16 + ^ x21: .cfa -24 + ^ x22: .cfa -32 + ^ x23: .cfa -40 + ^ x24: .cfa -48 + ^ x25: .cfa -56 + ^ x26: .cfa -64 + ^ .ra: .cfa -72 + ^ x29: .cfa -80 + ^
STACK CFI 1fc90 .cfa: sp 80 +
STACK CFI 1fca4 .cfa: sp 0 +
STACK CFI 1fca8 .cfa: x29 80 +
STACK CFI INIT 1fd80 1a4 .cfa: sp 0 +
STACK CFI 1fd84 .cfa: sp 112 +
STACK CFI 1fd9c .cfa: x29 80 + x19: .cfa -8 + ^ x20: .cfa -16 + ^ x21: .cfa -24 + ^ x22: .cfa -32 + ^ x23: .cfa -40 + ^ x24: .cfa -48 + ^ x25: .cfa -56 + ^ x26: .cfa -64 + ^ .ra: .cfa -72 + ^ x29: .cfa -80 + ^
STACK CFI 1fe8c .cfa: sp 112 +
STACK CFI 1fea4 .cfa: sp 0 +
STACK CFI 1fea8 .cfa: x29 80 +
STACK CFI INIT 1ff24 1dc .cfa: sp 0 +
STACK CFI 1ff28 .cfa: sp 128 +
STACK CFI 1ff44 .cfa: x29 96 + x19: .cfa -8 + ^ x20: .cfa -16 + ^ x21: .cfa -24 + ^ x22: .cfa -32 + ^ x23: .cfa -40 + ^ x24: .cfa -48 + ^ x25: .cfa -56 + ^ x26: .cfa -64 + ^ x27: .cfa -80 + ^ .ra: .cfa -88 + ^ x29: .cfa -96 + ^
STACK CFI 200b0 .cfa: sp 128 +
STACK CFI 200cc .cfa: sp 0 +
STACK CFI 200d0 .cfa: x29 96 +
STACK CFI INIT 20114 178 .cfa: sp 0 +
STACK CFI 20118 .cfa: sp 80 +
STACK CFI 2012c .cfa: x29 80 + x19: .cfa -8 + ^ x20: .cfa -16 + ^ x21: .cfa -24 + ^ x22: .cfa -32 + ^ x23: .cfa -40 + ^ x24: .cfa -48 + ^ x25: .cfa -64 + ^ .ra: .cfa -72 + ^ x29: .cfa -80 + ^
STACK CFI 20258 .cfa: sp 80 +
STACK CFI 2026c .cfa: sp 0 +
STACK CFI 20270 .cfa: x29 80 +
STACK CFI INIT 203d4 228 .cfa: sp 0 +
STACK CFI 203d8 .cfa: sp 128 +
STACK CFI 203f0 .cfa: x29 80 + x19: .cfa -8 + ^ x20: .cfa -16 + ^ x21: .cfa -24 + ^ x22: .cfa -32 + ^ x23: .cfa -40 + ^ x24: .cfa -48 + ^ x25: .cfa -64 + ^ .ra: .cfa -72 + ^ x29: .cfa -80 + ^
STACK CFI 2058c .cfa: sp 128 +
STACK CFI 205a4 .cfa: sp 0 +
STACK CFI 205a8 .cfa: x29 80 +
STACK CFI INIT 20e64 c8 .cfa: sp 0 +
STACK CFI 20e68 .cfa: sp 32 +
STACK CFI 20e70 .cfa: x29 32 + x19: .cfa -8 + ^ x20: .cfa -16 + ^ .ra: .cfa -24 + ^ x29: .cfa -32 + ^
STACK CFI 20ea4 .cfa: sp 32 +
STACK CFI 20eac .cfa: sp 0 +
STACK CFI 20eb0 .cfa: x29 32 +
STACK CFI 20eb4 .cfa: sp 32 +
STACK CFI 20ebc .cfa: sp 0 +
STACK CFI 20ec0 .cfa: x29 32 +
STACK CFI INIT 20f2c 7b0 .cfa: sp 0 +
STACK CFI 20f30 .cfa: sp 80 +
STACK CFI 20f44 .cfa: x29 80 + x19: .cfa -8 + ^ x20: .cfa -16 + ^ x21: .cfa -24 + ^ x22: .cfa -32 + ^ x23: .cfa -40 + ^ x24: .cfa -48 + ^ x25: .cfa -56 + ^ x26: .cfa -64 + ^ .ra: .cfa -72 + ^ x29: .cfa -80 + ^
STACK CFI 21360 .cfa: sp 80 +
STACK CFI 21374 .cfa: sp 0 +
STACK CFI 21378 .cfa: x29 80 +
STACK CFI INIT 216dc 578 .cfa: sp 0 +
STACK CFI 216e0 .cfa: sp 96 +
STACK CFI 216f4 .cfa: x29 64 + x19: .cfa -8 + ^ x20: .cfa -16 + ^ x21: .cfa -24 + ^ x22: .cfa -32 + ^ x23: .cfa -48 + ^ .ra: .cfa -56 + ^ x29: .cfa -64 + ^
STACK CFI 21a94 .cfa: sp 96 +
STACK CFI 21aa8 .cfa: sp 0 +
STACK CFI 21aac .cfa: x29 64 +
STACK CFI INIT 21dc8 1c .cfa: sp 0 +
STACK CFI 21dcc .cfa: sp 16 +
STACK CFI 21dd0 .cfa: x29 16 + .ra: .cfa -8 + ^ x29: .cfa -16 + ^
STACK CFI 21dd8 .cfa: sp 16 +
STACK CFI 21ddc .cfa: sp 0 +
STACK CFI 21de0 .cfa: x29 16 +
STACK CFI INIT 220f0 3f8 .cfa: sp 0 +
STACK CFI 220f4 .cfa: sp 48 +
STACK CFI 22100 .cfa: x29 48 + x19: .cfa -8 + ^ x20: .cfa -16 + ^ x21: .cfa -24 + ^ x22: .cfa -32 + ^ .ra: .cfa -40 + ^ x29: .cfa -48 + ^
STACK CFI 22468 .cfa: sp 48 +
STACK CFI 22474 .cfa: sp 0 +
STACK CFI 22478 .cfa: x29 48 +
STACK CFI 224c8 .cfa: sp 48 +
STACK CFI 224d4 .cfa: sp 0 +
STACK CFI 224d8 .cfa: x29 48 +
STACK CFI INIT 22560 1c .cfa: sp 0 +
STACK CFI 22564 .cfa: sp 16 +
STACK CFI 22568 .cfa: x29 16 + .ra: .cfa -8 + ^ x29: .cfa -16 + ^
STACK CFI 22570 .cfa: sp 16 +
STACK CFI 22574 .cfa: sp 0 +
STACK CFI 22578 .cfa: x29 16 +
STACK CFI INIT 2260c 98 .cfa: sp 0 +
STACK CFI 22610 .cfa: sp 48 +
STACK CFI 2261c .cfa: x29 48 + x19: .cfa -8 + ^ x20: .cfa -16 + ^ x21: .cfa -32 + ^ .ra: .cfa -40 + ^ x29: .cfa -48 + ^
STACK CFI 2267c .cfa: sp 48 +
STACK CFI 22688 .cfa: sp 0 +
STACK CFI 2268c .cfa: sp 48 +
STACK CFI 22698 .cfa: sp 0 +
STACK CFI 2269c .cfa: x29 48 +
STACK CFI INIT 226e0 1c .cfa: sp 0 +
STACK CFI 226e4 .cfa: sp 16 +
STACK CFI 226e8 .cfa: x29 16 + .ra: .cfa -8 + ^ x29: .cfa -16 + ^
STACK CFI 226f0 .cfa: sp 16 +
STACK CFI 226f4 .cfa: sp 0 +
STACK CFI 226f8 .cfa: x29 16 +
STACK CFI INIT 226fc 1c .cfa: sp 0 +
STACK CFI 22700 .cfa: sp 16 +
STACK CFI 22704 .cfa: x29 16 + .ra: .cfa -8 + ^ x29: .cfa -16 + ^
STACK CFI 2270c .cfa: sp 16 +
STACK CFI 22710 .cfa: sp 0 +
STACK CFI 22714 .cfa: x29 16 +
STACK CFI INIT 228f8 1cc .cfa: sp 0 +
STACK CFI 228fc .cfa: sp 160 +
STACK CFI 22914 .cfa: x29 80 + x19: .cfa -8 + ^ x20: .cfa -16 + ^ x21: .cfa -24 + ^ x22: .cfa -32 + ^ x23: .cfa -40 + ^ x24: .cfa -48 + ^ x25: .cfa -56 + ^ x26: .cfa -64 + ^ .ra: .cfa -72 + ^ x29: .cfa -80 + ^
STACK CFI 22a70 .cfa: sp 160 +
STACK CFI 22a88 .cfa: sp 0 +
STACK CFI 22a8c .cfa: x29 80 +
STACK CFI INIT 22e7c 1a0 .cfa: sp 0 +
STACK CFI 22e80 .cfa: sp 64 +
STACK CFI 22e90 .cfa: x29 64 + x19: .cfa -8 + ^ x20: .cfa -16 + ^ x21: .cfa -24 + ^ x22: .cfa -32 + ^ x23: .cfa -48 + ^ .ra: .cfa -56 + ^ x29: .cfa -64 + ^
STACK CFI 22f54 .cfa: sp 64 +
STACK CFI 22f64 .cfa: sp 0 +
STACK CFI 22f68 .cfa: x29 64 +
STACK CFI INIT 23650 a8 .cfa: sp 0 +
STACK CFI 23654 .cfa: sp 64 +
STACK CFI 23664 .cfa: x29 64 + x19: .cfa -8 + ^ x20: .cfa -16 + ^ x21: .cfa -24 + ^ x22: .cfa -32 + ^ x23: .cfa -40 + ^ x24: .cfa -48 + ^ .ra: .cfa -56 + ^ x29: .cfa -64 + ^
STACK CFI 23688 .cfa: sp 64 +
STACK CFI 23698 .cfa: sp 0 +
STACK CFI 2369c .cfa: x29 64 +
STACK CFI INIT 240f8 480 .cfa: sp 0 +
STACK CFI 240fc .cfa: sp 224 +
STACK CFI 24118 .cfa: x29 96 + x19: .cfa -8 + ^ x20: .cfa -16 + ^ x21: .cfa -24 + ^ x22: .cfa -32 + ^ x23: .cfa -40 + ^ x24: .cfa -48 + ^ x25: .cfa -56 + ^ x26: .cfa -64 + ^ x27: .cfa -80 + ^ .ra: .cfa -88 + ^ x29: .cfa -96 + ^
STACK CFI 24384 .cfa: sp 224 +
STACK CFI 243a0 .cfa: sp 0 +
STACK CFI 243a4 .cfa: x29 96 +
STACK CFI 24470 .cfa: sp 224 +
STACK CFI 2448c .cfa: sp 0 +
STACK CFI 24490 .cfa: x29 96 +
STACK CFI INIT 24594 330 .cfa: sp 0 +
STACK CFI 24598 .cfa: sp 224 +
STACK CFI 245ac .cfa: x29 64 + x19: .cfa -8 + ^ x20: .cfa -16 + ^ x21: .cfa -24 + ^ x22: .cfa -32 + ^ x23: .cfa -48 + ^ .ra: .cfa -56 + ^ x29: .cfa -64 + ^
STACK CFI 247b4 .cfa: sp 224 +
STACK CFI 247c8 .cfa: sp 0 +
STACK CFI 247cc .cfa: x29 64 +
STACK CFI INIT 248c8 1e4 .cfa: sp 0 +
STACK CFI 248cc .cfa: sp 144 +
STACK CFI 248dc .cfa: x29 48 + x19: .cfa -8 + ^ x20: .cfa -16 + ^ x21: .cfa -24 + ^ x22: .cfa -32 + ^ .ra: .cfa -40 + ^ x29: .cfa -48 + ^
STACK CFI 24a30 .cfa: sp 144 +
STACK CFI 24a40 .cfa: sp 0 +
STACK CFI 24a44 .cfa: x29 48 +
STACK CFI INIT 24aac a8 .cfa: sp 0 +
STACK CFI 24ab0 .cfa: sp 32 +
STACK CFI 24ab8 .cfa: x29 32 + x19: .cfa -16 + ^ .ra: .cfa -24 + ^ x29: .cfa -32 + ^
STACK CFI 24aec .cfa: sp 32 +
STACK CFI 24af4 .cfa: sp 0 +
STACK CFI 24af8 .cfa: x29 32 +
STACK CFI 24afc .cfa: sp 32 +
STACK CFI 24b04 .cfa: sp 0 +
STACK CFI 24b08 .cfa: x29 32 +
STACK CFI INIT 24be0 14c .cfa: sp 0 +
STACK CFI 24be4 .cfa: sp 112 +
STACK CFI 24bf8 .cfa: x29 40 + x19: .cfa -8 + ^ x20: .cfa -16 + ^ x21: .cfa -24 + ^ .ra: .cfa -32 + ^ x29: .cfa -40 + ^ v8: .cfa -48 + ^
STACK CFI 24cc0 .cfa: sp 112 +
STACK CFI 24cd4 .cfa: sp 0 +
STACK CFI 24cd8 .cfa: x29 40 +
STACK CFI INIT 24d2c 13c .cfa: sp 0 +
STACK CFI 24d30 .cfa: sp 112 +
STACK CFI 24d40 .cfa: x29 48 + x19: .cfa -8 + ^ x20: .cfa -16 + ^ x21: .cfa -32 + ^ .ra: .cfa -40 + ^ x29: .cfa -48 + ^
STACK CFI 24e00 .cfa: sp 112 +
STACK CFI 24e10 .cfa: sp 0 +
STACK CFI 24e14 .cfa: x29 48 +
STACK CFI INIT 24e68 194 .cfa: sp 0 +
STACK CFI 24e6c .cfa: sp 144 +
STACK CFI 24e7c .cfa: x29 48 + x19: .cfa -8 + ^ x20: .cfa -16 + ^ x21: .cfa -24 + ^ x22: .cfa -32 + ^ .ra: .cfa -40 + ^ x29: .cfa -48 + ^
STACK CFI 24f7c .cfa: sp 144 +
STACK CFI 24f8c .cfa: sp 0 +
STACK CFI 24f90 .cfa: x29 48 +
STACK CFI INIT 24ffc 1c8 .cfa: sp 0 +
STACK CFI 25000 .cfa: sp 112 +
STACK CFI 25010 .cfa: x29 48 + x19: .cfa -8 + ^ x20: .cfa -16 + ^ x21: .cfa -24 + ^ x22: .cfa -32 + ^ .ra: .cfa -40 + ^ x29: .cfa -48 + ^
STACK CFI 25164 .cfa: sp 112 +
STACK CFI 25174 .cfa: sp 0 +
STACK CFI 25178 .cfa: x29 48 +
STACK CFI INIT 253d8 198 .cfa: sp 0 +
STACK CFI 253dc .cfa: sp 64 +
STACK CFI 253e8 .cfa: x29 32 + x19: .cfa -8 + ^ x20: .cfa -16 + ^ .ra: .cfa -24 + ^ x29: .cfa -32 + ^
STACK CFI 25538 .cfa: sp 64 +
STACK CFI 25544 .cfa: sp 0 +
STACK CFI 25548 .cfa: x29 32 +
STACK CFI INIT 25570 a14 .cfa: sp 0 +
STACK CFI 25574 .cfa: sp 96 +
STACK CFI 25584 .cfa: x29 48 + x19: .cfa -8 + ^ x20: .cfa -16 + ^ x21: .cfa -24 + ^ x22: .cfa -32 + ^ .ra: .cfa -40 + ^ x29: .cfa -48 + ^
STACK CFI 25f2c .cfa: sp 96 +
STACK CFI 25f3c .cfa: sp 0 +
STACK CFI 25f40 .cfa: x29 48 +
STACK CFI INIT 25f84 180 .cfa: sp 0 +
STACK CFI 25f88 .cfa: sp 128 +
STACK CFI 25f9c .cfa: x29 64 + x19: .cfa -8 + ^ x20: .cfa -16 + ^ x21: .cfa -24 + ^ x22: .cfa -32 + ^ x23: .cfa -40 + ^ x24: .cfa -48 + ^ .ra: .cfa -56 + ^ x29: .cfa -64 + ^
STACK CFI 2609c .cfa: sp 128 +
STACK CFI 260b0 .cfa: sp 0 +
STACK CFI 260b4 .cfa: x29 64 +
STACK CFI INIT 26104 1a0 .cfa: sp 0 +
STACK CFI 26108 .cfa: sp 128 +
STACK CFI 2611c .cfa: x29 64 + x19: .cfa -8 + ^ x20: .cfa -16 + ^ x21: .cfa -24 + ^ x22: .cfa -32 + ^ x23: .cfa -40 + ^ x24: .cfa -48 + ^ .ra: .cfa -56 + ^ x29: .cfa -64 + ^
STACK CFI 2623c .cfa: sp 128 +
STACK CFI 26250 .cfa: sp 0 +
STACK CFI 26254 .cfa: x29 64 +
STACK CFI INIT 262a4 644 .cfa: sp 0 +
STACK CFI 262a8 .cfa: sp 336 +
STACK CFI 262c0 .cfa: x29 80 + x19: .cfa -8 + ^ x20: .cfa -16 + ^ x21: .cfa -24 + ^ x22: .cfa -32 + ^ x23: .cfa -40 + ^ x24: .cfa -48 + ^ x25: .cfa -56 + ^ x28: .cfa -64 + ^ .ra: .cfa -72 + ^ x29: .cfa -80 + ^
STACK CFI 26748 .cfa: sp 336 +
STACK CFI 26760 .cfa: sp 0 +
STACK CFI 26764 .cfa: x29 80 +
STACK CFI INIT 26918 148 .cfa: sp 0 +
STACK CFI 2691c .cfa: sp 96 +
STACK CFI 2692c .cfa: x29 48 + x19: .cfa -8 + ^ x20: .cfa -16 + ^ x21: .cfa -32 + ^ .ra: .cfa -40 + ^ x29: .cfa -48 + ^
STACK CFI 26a14 .cfa: sp 96 +
STACK CFI 26a24 .cfa: sp 0 +
STACK CFI 26a28 .cfa: x29 48 +
STACK CFI INIT 26a60 6c .cfa: sp 0 +
STACK CFI 26a64 .cfa: sp 32 +
STACK CFI 26a6c .cfa: x29 32 + x19: .cfa -16 + ^ .ra: .cfa -24 + ^ x29: .cfa -32 + ^
STACK CFI 26abc .cfa: sp 32 +
STACK CFI 26ac4 .cfa: sp 0 +
STACK CFI 26ac8 .cfa: x29 32 +
STACK CFI INIT 26acc 74 .cfa: sp 0 +
STACK CFI 26ad0 .cfa: sp 32 +
STACK CFI 26ad8 .cfa: x29 32 + x19: .cfa -16 + ^ .ra: .cfa -24 + ^ x29: .cfa -32 + ^
STACK CFI 26b30 .cfa: sp 32 +
STACK CFI 26b38 .cfa: sp 0 +
STACK CFI 26b3c .cfa: x29 32 +
STACK CFI INIT 26ba0 6c .cfa: sp 0 +
STACK CFI 26ba4 .cfa: sp 32 +
STACK CFI 26bac .cfa: x29 32 + x19: .cfa -16 + ^ .ra: .cfa -24 + ^ x29: .cfa -32 + ^
STACK CFI 26bfc .cfa: sp 32 +
STACK CFI 26c04 .cfa: sp 0 +
STACK CFI 26c08 .cfa: x29 32 +
STACK CFI INIT 26c0c 74 .cfa: sp 0 +
STACK CFI 26c10 .cfa: sp 32 +
STACK CFI 26c18 .cfa: x29 32 + x19: .cfa -16 + ^ .ra: .cfa -24 + ^ x29: .cfa -32 + ^
STACK CFI 26c70 .cfa: sp 32 +
STACK CFI 26c78 .cfa: sp 0 +
STACK CFI 26c7c .cfa: x29 32 +
STACK CFI INIT 26cbc 6c .cfa: sp 0 +
STACK CFI 26cc0 .cfa: sp 32 +
STACK CFI 26cc8 .cfa: x29 32 + x19: .cfa -16 + ^ .ra: .cfa -24 + ^ x29: .cfa -32 + ^
STACK CFI 26d18 .cfa: sp 32 +
STACK CFI 26d20 .cfa: sp 0 +
STACK CFI 26d24 .cfa: x29 32 +
STACK CFI INIT 27164 1c .cfa: sp 0 +
STACK CFI 27168 .cfa: sp 16 +
STACK CFI 2716c .cfa: x29 16 + .ra: .cfa -8 + ^ x29: .cfa -16 + ^
STACK CFI 27174 .cfa: sp 16 +
STACK CFI 27178 .cfa: sp 0 +
STACK CFI 2717c .cfa: x29 16 +
STACK CFI INIT 2781c 134 .cfa: sp 0 +
STACK CFI 27820 .cfa: sp 80 +
STACK CFI 2782c .cfa: x29 32 + x19: .cfa -8 + ^ x20: .cfa -16 + ^ .ra: .cfa -24 + ^ x29: .cfa -32 + ^
STACK CFI 2785c .cfa: sp 80 +
STACK CFI 27868 .cfa: sp 0 +
STACK CFI 2786c .cfa: x29 32 +
STACK CFI INIT 27950 78 .cfa: sp 0 +
STACK CFI 27954 .cfa: sp 32 +
STACK CFI 2795c .cfa: x29 32 + x19: .cfa -8 + ^ x20: .cfa -16 + ^ .ra: .cfa -24 + ^ x29: .cfa -32 + ^
STACK CFI 27968 .cfa: sp 32 +
STACK CFI 27970 .cfa: sp 0 +
STACK CFI 27974 .cfa: x29 32 +
STACK CFI INIT 279c8 74 .cfa: sp 0 +
STACK CFI 279cc .cfa: sp 48 +
STACK CFI 279d8 .cfa: x29 32 + x19: .cfa -8 + ^ x20: .cfa -16 + ^ .ra: .cfa -24 + ^ x29: .cfa -32 + ^
STACK CFI 27a24 .cfa: sp 48 +
STACK CFI 27a30 .cfa: sp 0 +
STACK CFI 27a34 .cfa: x29 32 +
STACK CFI INIT 27aa0 224 .cfa: sp 0 +
STACK CFI 27aa4 .cfa: sp 128 +
STACK CFI 27ab4 .cfa: x29 48 + x19: .cfa -8 + ^ x20: .cfa -16 + ^ x21: .cfa -32 + ^ .ra: .cfa -40 + ^ x29: .cfa -48 + ^
STACK CFI 27b64 .cfa: sp 128 +
STACK CFI 27b74 .cfa: sp 0 +
STACK CFI 27b78 .cfa: x29 48 +
STACK CFI INIT 27d60 300 .cfa: sp 0 +
STACK CFI 27d64 .cfa: sp 144 +
STACK CFI 27d78 .cfa: x29 64 + x19: .cfa -8 + ^ x20: .cfa -16 + ^ x21: .cfa -24 + ^ x22: .cfa -32 + ^ x23: .cfa -48 + ^ .ra: .cfa -56 + ^ x29: .cfa -64 + ^
STACK CFI 27f0c .cfa: sp 144 +
STACK CFI 27f20 .cfa: sp 0 +
STACK CFI 27f24 .cfa: x29 64 +
STACK CFI INIT 280b4 264 .cfa: sp 0 +
STACK CFI 280b8 .cfa: sp 128 +
STACK CFI 280c8 .cfa: x29 48 + x19: .cfa -8 + ^ x20: .cfa -16 + ^ x21: .cfa -32 + ^ .ra: .cfa -40 + ^ x29: .cfa -48 + ^
STACK CFI 281c0 .cfa: sp 128 +
STACK CFI 281d0 .cfa: sp 0 +
STACK CFI 281d4 .cfa: x29 48 +
STACK CFI INIT 283c0 fbc .cfa: sp 0 +
STACK CFI 283c4 .cfa: sp 176 +
STACK CFI 283e0 .cfa: x29 96 + x19: .cfa -8 + ^ x20: .cfa -16 + ^ x21: .cfa -24 + ^ x22: .cfa -32 + ^ x23: .cfa -40 + ^ x24: .cfa -48 + ^ x25: .cfa -56 + ^ x26: .cfa -64 + ^ x27: .cfa -72 + ^ x28: .cfa -80 + ^ .ra: .cfa -88 + ^ x29: .cfa -96 + ^
STACK CFI 28e4c .cfa: sp 176 +
STACK CFI 28e68 .cfa: sp 0 +
STACK CFI 28e6c .cfa: x29 96 +
STACK CFI INIT 293d0 180 .cfa: sp 0 +
STACK CFI 293d4 .cfa: sp 160 +
STACK CFI 293ec .cfa: x29 80 + x19: .cfa -8 + ^ x20: .cfa -16 + ^ x21: .cfa -24 + ^ x22: .cfa -32 + ^ x23: .cfa -40 + ^ x24: .cfa -48 + ^ x25: .cfa -56 + ^ x26: .cfa -64 + ^ .ra: .cfa -72 + ^ x29: .cfa -80 + ^
STACK CFI 29454 .cfa: sp 160 +
STACK CFI 2946c .cfa: sp 0 +
STACK CFI 29470 .cfa: x29 80 +
STACK CFI INIT 29550 4ac .cfa: sp 0 +
STACK CFI 29554 .cfa: sp 128 +
STACK CFI 2956c .cfa: x29 80 + x19: .cfa -8 + ^ x20: .cfa -16 + ^ x21: .cfa -24 + ^ x22: .cfa -32 + ^ x23: .cfa -40 + ^ x24: .cfa -48 + ^ x25: .cfa -64 + ^ .ra: .cfa -72 + ^ x29: .cfa -80 + ^
STACK CFI 29978 .cfa: sp 128 +
STACK CFI 29990 .cfa: sp 0 +
STACK CFI 29994 .cfa: x29 80 +
STACK CFI INIT 29a04 190 .cfa: sp 0 +
STACK CFI 29a08 .cfa: sp 176 +
STACK CFI 29a24 .cfa: x29 80 + x19: .cfa -8 + ^ x20: .cfa -16 + ^ x21: .cfa -24 + ^ x22: .cfa -32 + ^ x23: .cfa -40 + ^ x24: .cfa -48 + ^ x25: .cfa -56 + ^ x26: .cfa -64 + ^ .ra: .cfa -72 + ^ x29: .cfa -80 + ^ v8: .cfa -96 + ^
STACK CFI 29a94 .cfa: sp 176 +
STACK CFI 29ab0 .cfa: sp 0 +
STACK CFI 29ab4 .cfa: x29 80 +
STACK CFI INIT 29b94 5ac .cfa: sp 0 +
STACK CFI 29b98 .cfa: sp 128 +
STACK CFI 29bb0 .cfa: x29 80 + x19: .cfa -8 + ^ x20: .cfa -16 + ^ x21: .cfa -24 + ^ x22: .cfa -32 + ^ x23: .cfa -40 + ^ x24: .cfa -48 + ^ x25: .cfa -64 + ^ .ra: .cfa -72 + ^ x29: .cfa -80 + ^
STACK CFI 2a0ac .cfa: sp 128 +
STACK CFI 2a0c4 .cfa: sp 0 +
STACK CFI 2a0c8 .cfa: x29 80 +
STACK CFI INIT 2a148 170 .cfa: sp 0 +
STACK CFI 2a14c .cfa: sp 144 +
STACK CFI 2a164 .cfa: x29 56 + x19: .cfa -8 + ^ x20: .cfa -16 + ^ x21: .cfa -24 + ^ x22: .cfa -32 + ^ x23: .cfa -40 + ^ .ra: .cfa -48 + ^ x29: .cfa -56 + ^ v8: .cfa -64 + ^
STACK CFI 2a1bc .cfa: sp 144 +
STACK CFI 2a1d4 .cfa: sp 0 +
STACK CFI 2a1d8 .cfa: x29 56 +
STACK CFI INIT 2a2b8 2d4 .cfa: sp 0 +
STACK CFI 2a2bc .cfa: sp 96 +
STACK CFI 2a2d4 .cfa: x29 80 + x19: .cfa -8 + ^ x20: .cfa -16 + ^ x21: .cfa -24 + ^ x22: .cfa -32 + ^ x23: .cfa -40 + ^ x24: .cfa -48 + ^ x25: .cfa -64 + ^ .ra: .cfa -72 + ^ x29: .cfa -80 + ^
STACK CFI 2a528 .cfa: sp 96 +
STACK CFI 2a540 .cfa: sp 0 +
STACK CFI 2a544 .cfa: x29 80 +
STACK CFI INIT 2a594 14c .cfa: sp 0 +
STACK CFI 2a598 .cfa: sp 144 +
STACK CFI 2a5ac .cfa: x29 64 + x19: .cfa -8 + ^ x20: .cfa -16 + ^ x21: .cfa -24 + ^ x22: .cfa -32 + ^ x23: .cfa -48 + ^ .ra: .cfa -56 + ^ x29: .cfa -64 + ^
STACK CFI 2a5fc .cfa: sp 144 +
STACK CFI 2a610 .cfa: sp 0 +
STACK CFI 2a614 .cfa: x29 64 +
STACK CFI INIT 2a6e0 108 .cfa: sp 0 +
STACK CFI 2a6e4 .cfa: sp 64 +
STACK CFI 2a6f4 .cfa: x29 48 + x19: .cfa -8 + ^ x20: .cfa -16 + ^ x21: .cfa -24 + ^ x22: .cfa -32 + ^ .ra: .cfa -40 + ^ x29: .cfa -48 + ^
STACK CFI 2a7a0 .cfa: sp 64 +
STACK CFI 2a7b0 .cfa: sp 0 +
STACK CFI 2a7b4 .cfa: x29 48 +
STACK CFI INIT 2a800 164 .cfa: sp 0 +
STACK CFI 2a804 .cfa: sp 160 +
STACK CFI 2a81c .cfa: x29 80 + x19: .cfa -8 + ^ x20: .cfa -16 + ^ x21: .cfa -24 + ^ x22: .cfa -32 + ^ x23: .cfa -40 + ^ x24: .cfa -48 + ^ x25: .cfa -64 + ^ .ra: .cfa -72 + ^ x29: .cfa -80 + ^
STACK CFI 2a87c .cfa: sp 160 +
STACK CFI 2a894 .cfa: sp 0 +
STACK CFI 2a898 .cfa: x29 80 +
STACK CFI INIT 2a964 3d4 .cfa: sp 0 +
STACK CFI 2a968 .cfa: sp 96 +
STACK CFI 2a980 .cfa: x29 80 + x19: .cfa -8 + ^ x20: .cfa -16 + ^ x21: .cfa -24 + ^ x22: .cfa -32 + ^ x23: .cfa -40 + ^ x24: .cfa -48 + ^ x25: .cfa -64 + ^ .ra: .cfa -72 + ^ x29: .cfa -80 + ^
STACK CFI 2acc4 .cfa: sp 96 +
STACK CFI 2acdc .cfa: sp 0 +
STACK CFI 2ace0 .cfa: x29 80 +
STACK CFI INIT 2ad38 17c .cfa: sp 0 +
STACK CFI 2ad3c .cfa: sp 176 +
STACK CFI 2ad58 .cfa: x29 96 + x19: .cfa -8 + ^ x20: .cfa -16 + ^ x21: .cfa -24 + ^ x22: .cfa -32 + ^ x23: .cfa -40 + ^ x24: .cfa -48 + ^ x25: .cfa -56 + ^ x26: .cfa -64 + ^ x27: .cfa -80 + ^ .ra: .cfa -88 + ^ x29: .cfa -96 + ^
STACK CFI 2adc8 .cfa: sp 176 +
STACK CFI 2ade4 .cfa: sp 0 +
STACK CFI 2ade8 .cfa: x29 96 +
STACK CFI INIT 2aeb4 5d4 .cfa: sp 0 +
STACK CFI 2aeb8 .cfa: sp 96 +
STACK CFI 2aed0 .cfa: x29 80 + x19: .cfa -8 + ^ x20: .cfa -16 + ^ x21: .cfa -24 + ^ x22: .cfa -32 + ^ x23: .cfa -40 + ^ x24: .cfa -48 + ^ x25: .cfa -64 + ^ .ra: .cfa -72 + ^ x29: .cfa -80 + ^
STACK CFI 2b3f4 .cfa: sp 96 +
STACK CFI 2b40c .cfa: sp 0 +
STACK CFI 2b410 .cfa: x29 80 +
STACK CFI INIT 2b488 14c .cfa: sp 0 +
STACK CFI 2b48c .cfa: sp 144 +
STACK CFI 2b4a0 .cfa: x29 64 + x19: .cfa -8 + ^ x20: .cfa -16 + ^ x21: .cfa -24 + ^ x22: .cfa -32 + ^ x23: .cfa -48 + ^ .ra: .cfa -56 + ^ x29: .cfa -64 + ^
STACK CFI 2b4f0 .cfa: sp 144 +
STACK CFI 2b504 .cfa: sp 0 +
STACK CFI 2b508 .cfa: x29 64 +
STACK CFI INIT 2b5d4 108 .cfa: sp 0 +
STACK CFI 2b5d8 .cfa: sp 64 +
STACK CFI 2b5e8 .cfa: x29 48 + x19: .cfa -8 + ^ x20: .cfa -16 + ^ x21: .cfa -24 + ^ x22: .cfa -32 + ^ .ra: .cfa -40 + ^ x29: .cfa -48 + ^
STACK CFI 2b694 .cfa: sp 64 +
STACK CFI 2b6a4 .cfa: sp 0 +
STACK CFI 2b6a8 .cfa: x29 48 +
STACK CFI INIT 2b6dc 2e4 .cfa: sp 0 +
STACK CFI 2b6e0 .cfa: sp 144 +
STACK CFI 2b6f4 .cfa: x29 64 + x19: .cfa -8 + ^ x20: .cfa -16 + ^ x21: .cfa -24 + ^ x22: .cfa -32 + ^ x23: .cfa -48 + ^ .ra: .cfa -56 + ^ x29: .cfa -64 + ^
STACK CFI 2b86c .cfa: sp 144 +
STACK CFI 2b880 .cfa: sp 0 +
STACK CFI 2b884 .cfa: x29 64 +
STACK CFI INIT 2b9c0 2e4 .cfa: sp 0 +
STACK CFI 2b9c4 .cfa: sp 144 +
STACK CFI 2b9d8 .cfa: x29 64 + x19: .cfa -8 + ^ x20: .cfa -16 + ^ x21: .cfa -24 + ^ x22: .cfa -32 + ^ x23: .cfa -48 + ^ .ra: .cfa -56 + ^ x29: .cfa -64 + ^
STACK CFI 2bb50 .cfa: sp 144 +
STACK CFI 2bb64 .cfa: sp 0 +
STACK CFI 2bb68 .cfa: x29 64 +
STACK CFI INIT 2bca4 2a0 .cfa: sp 0 +
STACK CFI 2bca8 .cfa: sp 144 +
STACK CFI 2bcbc .cfa: x29 64 + x19: .cfa -8 + ^ x20: .cfa -16 + ^ x21: .cfa -24 + ^ x22: .cfa -32 + ^ x23: .cfa -48 + ^ .ra: .cfa -56 + ^ x29: .cfa -64 + ^
STACK CFI 2bdf0 .cfa: sp 144 +
STACK CFI 2be04 .cfa: sp 0 +
STACK CFI 2be08 .cfa: x29 64 +
STACK CFI INIT 2bf44 2f0 .cfa: sp 0 +
STACK CFI 2bf48 .cfa: sp 144 +
STACK CFI 2bf5c .cfa: x29 64 + x19: .cfa -8 + ^ x20: .cfa -16 + ^ x21: .cfa -24 + ^ x22: .cfa -32 + ^ x23: .cfa -48 + ^ .ra: .cfa -56 + ^ x29: .cfa -64 + ^
STACK CFI 2c0e0 .cfa: sp 144 +
STACK CFI 2c0f4 .cfa: sp 0 +
STACK CFI 2c0f8 .cfa: x29 64 +
STACK CFI INIT 2c234 4f4 .cfa: sp 0 +
STACK CFI 2c238 .cfa: sp 144 +
STACK CFI 2c24c .cfa: x29 64 + x19: .cfa -8 + ^ x20: .cfa -16 + ^ x21: .cfa -24 + ^ x22: .cfa -32 + ^ x23: .cfa -48 + ^ .ra: .cfa -56 + ^ x29: .cfa -64 + ^
STACK CFI 2c580 .cfa: sp 144 +
STACK CFI 2c594 .cfa: sp 0 +
STACK CFI 2c598 .cfa: x29 64 +
STACK CFI INIT 2c728 154 .cfa: sp 0 +
STACK CFI 2c72c .cfa: sp 384 +
STACK CFI 2c740 .cfa: x29 64 + x19: .cfa -8 + ^ x20: .cfa -16 + ^ x21: .cfa -24 + ^ x22: .cfa -32 + ^ x23: .cfa -40 + ^ x28: .cfa -48 + ^ .ra: .cfa -56 + ^ x29: .cfa -64 + ^
STACK CFI 2c824 .cfa: sp 384 +
STACK CFI 2c838 .cfa: sp 0 +
STACK CFI 2c83c .cfa: x29 64 +
STACK CFI INIT 2c87c 168 .cfa: sp 0 +
STACK CFI 2c880 .cfa: sp 384 +
STACK CFI 2c894 .cfa: x29 64 + x19: .cfa -8 + ^ x20: .cfa -16 + ^ x21: .cfa -24 + ^ x22: .cfa -32 + ^ x23: .cfa -40 + ^ x28: .cfa -48 + ^ .ra: .cfa -56 + ^ x29: .cfa -64 + ^
STACK CFI 2c98c .cfa: sp 384 +
STACK CFI 2c9a0 .cfa: sp 0 +
STACK CFI 2c9a4 .cfa: x29 64 +
STACK CFI INIT 2c9fc 50c .cfa: sp 0 +
STACK CFI 2ca00 .cfa: sp 64 +
STACK CFI 2ca10 .cfa: x29 64 + x19: .cfa -8 + ^ x20: .cfa -16 + ^ x21: .cfa -24 + ^ x22: .cfa -32 + ^ x23: .cfa -40 + ^ x24: .cfa -48 + ^ .ra: .cfa -56 + ^ x29: .cfa -64 + ^
STACK CFI 2cb30 .cfa: sp 64 +
STACK CFI 2cb40 .cfa: sp 0 +
STACK CFI 2cb44 .cfa: x29 64 +
STACK CFI 2cedc .cfa: sp 64 +
STACK CFI 2ceec .cfa: sp 0 +
STACK CFI 2cef0 .cfa: x29 64 +
