MODULE Linux arm64 4F1E40954A1D7AC00D41F715FC2E3A5F0 hiimjustin000.icon_randomizer_api.android64.so
INFO CODE_ID 95401E4F1D4AC07A0D41F715FC2E3A5F6D18D529
INFO GENERATOR mozilla/dump_syms 2.3.4
PUBLIC 37e8 0 __on_dlclose
PUBLIC 37f8 0 __emutls_unregister_key
PUBLIC 3800 0 __on_dlclose_late
PUBLIC 3808 0 __atexit_handler_wrapper
PUBLIC 381c 0 atexit
PUBLIC 3838 0 pthread_atfork
PUBLIC 3848 0 std::__ndk1::map<UnlockType, std::__ndk1::vector<int, std::__ndk1::allocator<int> >, std::__ndk1::less<UnlockType>, std::__ndk1::allocator<std::__ndk1::pair<UnlockType const, std::__ndk1::vector<int, std::__ndk1::allocator<int> > > > >::~map[abi:ne190000]()
PUBLIC 3850 0 setupUnlockedIcons(IconType)
PUBLIC 3a48 0 setupUnlockedColors(UnlockType)
PUBLIC m 3c04 0 IconRandomizer::init()
PUBLIC m 3ca0 0 IconRandomizer::random(int, int)
PUBLIC 3eb4 0 std::__ndk1::random_device::random_device[abi:ne190000]()
PUBLIC m 3f60 0 IconRandomizer::fromIconType(IconType)
PUBLIC m 4040 0 IconRandomizer::fromUnlockType(UnlockType)
PUBLIC m 4064 0 IconRandomizer::toIconType(RandomizeType)
PUBLIC m 4084 0 IconRandomizer::toUnlockType(RandomizeType)
PUBLIC m 40a4 0 IconRandomizer::randomize(RandomizeType, bool)
PUBLIC 4d94 0 std::__ndk1::basic_string<char, std::__ndk1::char_traits<char>, std::__ndk1::allocator<char> >::basic_string[abi:ne190000]<0>()
PUBLIC 4e44 0 geode::Mod::setSavedValue<unsigned long>(std::__ndk1::basic_string_view<char, std::__ndk1::char_traits<char> >, unsigned long const&)
PUBLIC 50b0 0 geode::Mod::setSavedValue<bool>(std::__ndk1::basic_string_view<char, std::__ndk1::char_traits<char> >, bool const&)
PUBLIC 5270 0 MoreIcons::setIcon(std::__ndk1::basic_string<char, std::__ndk1::char_traits<char>, std::__ndk1::allocator<char> > const&, IconType, bool)
PUBLIC 57b4 0 std::__ndk1::vector<std::__ndk1::basic_string<char, std::__ndk1::char_traits<char>, std::__ndk1::allocator<char> >, std::__ndk1::allocator<std::__ndk1::basic_string<char, std::__ndk1::char_traits<char>, std::__ndk1::allocator<char> > > >::~vector[abi:ne190000]()
PUBLIC m 5830 0 IconRandomizer::randomizeAll(RandomizeAllType, bool)
PUBLIC m 5954 0 IconRandomizer::active(RandomizeType, bool)
PUBLIC 5e50 0 geode::Mod::getSavedValue<int>(std::__ndk1::basic_string_view<char, std::__ndk1::char_traits<char> >, int const&)
PUBLIC 60c8 0 __clang_call_terminate
PUBLIC 60d8 0 std::__ndk1::vector<int, std::__ndk1::allocator<int> >::__throw_length_error[abi:ne190000]() const
PUBLIC 60ec 0 std::__ndk1::__throw_length_error[abi:ne190000](char const*)
PUBLIC 613c 0 std::length_error::length_error[abi:ne190000](char const*)
PUBLIC 616c 0 std::__throw_bad_array_new_length([abi:ne190000], void)
PUBLIC 61a0 0 std::__ndk1::basic_string<char, std::__ndk1::char_traits<char>, std::__ndk1::allocator<char> >::__throw_length_error[abi:ne190000]() const
PUBLIC 61b4 0 MoreIcons::loaded()
PUBLIC 62b0 0 geode::DispatchEvent<std::__ndk1::vector<std::__ndk1::basic_string<char, std::__ndk1::char_traits<char>, std::__ndk1::allocator<char> >, std::__ndk1::allocator<std::__ndk1::basic_string<char, std::__ndk1::char_traits<char>, std::__ndk1::allocator<char> > > >*, IconType>::~DispatchEvent()
PUBLIC 62f0 0 geode::DispatchEvent<std::__ndk1::vector<std::__ndk1::basic_string<char, std::__ndk1::char_traits<char>, std::__ndk1::allocator<char> >, std::__ndk1::allocator<std::__ndk1::basic_string<char, std::__ndk1::char_traits<char>, std::__ndk1::allocator<char> > > >*, IconType>::getPool() const
PUBLIC 6514 0 geode::DispatchEvent<std::__ndk1::vector<std::__ndk1::basic_string<char, std::__ndk1::char_traits<char>, std::__ndk1::allocator<char> >, std::__ndk1::allocator<std::__ndk1::basic_string<char, std::__ndk1::char_traits<char>, std::__ndk1::allocator<char> > > >*, IconType>::~DispatchEvent()
PUBLIC 6558 0 std::__ndk1::basic_string<char, std::__ndk1::char_traits<char>, std::__ndk1::allocator<char> >::__init_copy_ctor_external(char const*, unsigned long)
PUBLIC 65ec 0 std::__ndk1::__murmur2_or_cityhash<unsigned long, (unsigned long)64>::operator()[abi:ne190000](void const*, unsigned long) const
PUBLIC 6a44 0 std::__ndk1::__hash_table<std::__ndk1::__hash_value_type<std::__ndk1::basic_string<char, std::__ndk1::char_traits<char>, std::__ndk1::allocator<char> >, geode::EventListenerPool*>, std::__ndk1::__unordered_map_hasher<std::__ndk1::basic_string<char, std::__ndk1::char_traits<char>, std::__ndk1::allocator<char> >, std::__ndk1::__hash_value_type<std::__ndk1::basic_string<char, std::__ndk1::char_traits<char>, std::__ndk1::allocator<char> >, geode::EventListenerPool*>, std::__ndk1::hash<std::__ndk1::basic_string<char, std::__ndk1::char_traits<char>, std::__ndk1::allocator<char> > >, std::__ndk1::equal_to<std::__ndk1::basic_string<char, std::__ndk1::char_traits<char>, std::__ndk1::allocator<char> > >, true>, std::__ndk1::__unordered_map_equal<std::__ndk1::basic_string<char, std::__ndk1::char_traits<char>, std::__ndk1::allocator<char> >, std::__ndk1::__hash_value_type<std::__ndk1::basic_string<char, std::__ndk1::char_traits<char>, std::__ndk1::allocator<char> >, geode::EventListenerPool*>, std::__ndk1::equal_to<std::__ndk1::basic_string<char, std::__ndk1::char_traits<char>, std::__ndk1::allocator<char> > >, std::__ndk1::hash<std::__ndk1::basic_string<char, std::__ndk1::char_traits<char>, std::__ndk1::allocator<char> > >, true>, std::__ndk1::allocator<std::__ndk1::__hash_value_type<std::__ndk1::basic_string<char, std::__ndk1::char_traits<char>, std::__ndk1::allocator<char> >, geode::EventListenerPool*> > >::__emplace_unique_key_args<std::__ndk1::basic_string<char, std::__ndk1::char_traits<char>, std::__ndk1::allocator<char> >, std::__ndk1::piecewise_construct_t const&, std::__ndk1::tuple<std::__ndk1::basic_string<char, std::__ndk1::char_traits<char>, std::__ndk1::allocator<char> > const&>, std::__ndk1::tuple<> >(std::__ndk1::basic_string<char, std::__ndk1::char_traits<char>, std::__ndk1::allocator<char> > const&, std::__ndk1::piecewise_construct_t const&, std::__ndk1::tuple<std::__ndk1::basic_string<char, std::__ndk1::char_traits<char>, std::__ndk1::allocator<char> > const&>, std::__ndk1::tuple<>)
PUBLIC 7078 0 std::__ndk1::unique_ptr<std::__ndk1::__hash_node<std::__ndk1::__hash_value_type<std::__ndk1::basic_string<char, std::__ndk1::char_traits<char>, std::__ndk1::allocator<char> >, geode::EventListenerPool*>, void*>, std::__ndk1::__hash_node_destructor<std::__ndk1::allocator<std::__ndk1::__hash_node<std::__ndk1::__hash_value_type<std::__ndk1::basic_string<char, std::__ndk1::char_traits<char>, std::__ndk1::allocator<char> >, geode::EventListenerPool*>, void*> > > >::~unique_ptr[abi:ne190000]()
PUBLIC 70c8 0 geode::impl::ResultData<matjson::Value&, std::__ndk1::basic_string<char, std::__ndk1::char_traits<char>, std::__ndk1::allocator<char> > >::~ResultData()
PUBLIC 713c 0 geode::impl::ResultData<std::__ndk1::basic_string<char, std::__ndk1::char_traits<char>, std::__ndk1::allocator<char> >, std::__ndk1::basic_string<char, std::__ndk1::char_traits<char>, std::__ndk1::allocator<char> > >::~ResultData()
PUBLIC 71b0 0 std::__ndk1::__throw_bad_variant_access[abi:ne190000]()
PUBLIC 71e4 0 std::__ndk1::__variant_detail::__visitation::__base::__dispatcher<(unsigned long)0>::__dispatch[abi:ne190000]<std::__ndk1::__variant_detail::__dtor<std::__ndk1::__variant_detail::__traits<std::__ndk1::reference_wrapper<matjson::Value>, std::__ndk1::basic_string<char, std::__ndk1::char_traits<char>, std::__ndk1::allocator<char> > >, (std::__ndk1::__variant_detail::_Trait)1>::__destroy[abi:ne190000]()::{lambda(auto:1&)#1}, std::__ndk1::__variant_detail::__base<(std::__ndk1::__variant_detail::__traits<std::__ndk1::reference_wrapper<matjson::Value>, std::__ndk1::basic_string<char, std::__ndk1::char_traits<char>, std::__ndk1::allocator<char> > >)1, matjson::Value, std::__ndk1::allocator<char> >&>(std::__ndk1::__variant_detail::__dtor<std::__ndk1::__variant_detail::__traits<std::__ndk1::reference_wrapper<matjson::Value>, std::__ndk1::basic_string<char, std::__ndk1::char_traits<char>, std::__ndk1::allocator<char> > >, (std::__ndk1::__variant_detail::_Trait)1>, std::__ndk1::__variant_detail::__base<(std::__ndk1::__variant_detail::__traits<std::__ndk1::reference_wrapper<matjson::Value>, std::__ndk1::basic_string<char, std::__ndk1::char_traits<char>, std::__ndk1::allocator<char> > >)1, matjson::Value, std::__ndk1::allocator<char> >&)
PUBLIC 71e8 0 std::__ndk1::__variant_detail::__visitation::__base::__dispatcher<(unsigned long)1>::__dispatch[abi:ne190000]<std::__ndk1::__variant_detail::__dtor<std::__ndk1::__variant_detail::__traits<std::__ndk1::reference_wrapper<matjson::Value>, std::__ndk1::basic_string<char, std::__ndk1::char_traits<char>, std::__ndk1::allocator<char> > >, (std::__ndk1::__variant_detail::_Trait)1>::__destroy[abi:ne190000]()::{lambda(auto:1&)#1}, std::__ndk1::__variant_detail::__base<(std::__ndk1::__variant_detail::__traits<std::__ndk1::reference_wrapper<matjson::Value>, std::__ndk1::basic_string<char, std::__ndk1::char_traits<char>, std::__ndk1::allocator<char> > >)1, matjson::Value, std::__ndk1::allocator<char> >&>(std::__ndk1::__variant_detail::__dtor<std::__ndk1::__variant_detail::__traits<std::__ndk1::reference_wrapper<matjson::Value>, std::__ndk1::basic_string<char, std::__ndk1::char_traits<char>, std::__ndk1::allocator<char> > >, (std::__ndk1::__variant_detail::_Trait)1>, std::__ndk1::__variant_detail::__base<(std::__ndk1::__variant_detail::__traits<std::__ndk1::reference_wrapper<matjson::Value>, std::__ndk1::basic_string<char, std::__ndk1::char_traits<char>, std::__ndk1::allocator<char> > >)1, matjson::Value, std::__ndk1::allocator<char> >&)
PUBLIC 71fc 0 std::__ndk1::__variant_detail::__visitation::__base::__dispatcher<(unsigned long)0>::__dispatch[abi:ne190000]<std::__ndk1::__variant_detail::__dtor<std::__ndk1::__variant_detail::__traits<std::__ndk1::basic_string<char, std::__ndk1::char_traits<char>, std::__ndk1::allocator<char> >, std::__ndk1::allocator<char> >, (std::__ndk1::__variant_detail::_Trait)1>::__destroy[abi:ne190000]()::{lambda(auto:1&)#1}, std::__ndk1::__variant_detail::__base<(std::__ndk1::__variant_detail::__traits<std::__ndk1::basic_string<char, std::__ndk1::char_traits<char>, std::__ndk1::allocator<char> >, std::__ndk1::allocator<char> >)1, std::__ndk1::allocator<char>, std::__ndk1::allocator<char> >&>(std::__ndk1::__variant_detail::__dtor<std::__ndk1::__variant_detail::__traits<std::__ndk1::basic_string<char, std::__ndk1::char_traits<char>, std::__ndk1::allocator<char> >, std::__ndk1::allocator<char> >, (std::__ndk1::__variant_detail::_Trait)1>, std::__ndk1::__variant_detail::__base<(std::__ndk1::__variant_detail::__traits<std::__ndk1::basic_string<char, std::__ndk1::char_traits<char>, std::__ndk1::allocator<char> >, std::__ndk1::allocator<char> >)1, std::__ndk1::allocator<char>, std::__ndk1::allocator<char> >&)
PUBLIC 7210 0 std::__ndk1::__variant_detail::__visitation::__base::__dispatcher<(unsigned long)1>::__dispatch[abi:ne190000]<std::__ndk1::__variant_detail::__dtor<std::__ndk1::__variant_detail::__traits<std::__ndk1::basic_string<char, std::__ndk1::char_traits<char>, std::__ndk1::allocator<char> >, std::__ndk1::allocator<char> >, (std::__ndk1::__variant_detail::_Trait)1>::__destroy[abi:ne190000]()::{lambda(auto:1&)#1}, std::__ndk1::__variant_detail::__base<(std::__ndk1::__variant_detail::__traits<std::__ndk1::basic_string<char, std::__ndk1::char_traits<char>, std::__ndk1::allocator<char> >, std::__ndk1::allocator<char> >)1, std::__ndk1::allocator<char>, std::__ndk1::allocator<char> >&>(std::__ndk1::__variant_detail::__dtor<std::__ndk1::__variant_detail::__traits<std::__ndk1::basic_string<char, std::__ndk1::char_traits<char>, std::__ndk1::allocator<char> >, std::__ndk1::allocator<char> >, (std::__ndk1::__variant_detail::_Trait)1>, std::__ndk1::__variant_detail::__base<(std::__ndk1::__variant_detail::__traits<std::__ndk1::basic_string<char, std::__ndk1::char_traits<char>, std::__ndk1::allocator<char> >, std::__ndk1::allocator<char> >)1, std::__ndk1::allocator<char>, std::__ndk1::allocator<char> >&)
PUBLIC 7224 0 std::__ndk1::unique_ptr<std::__ndk1::__tree_node<std::__ndk1::__value_type<UnlockType, std::__ndk1::vector<int, std::__ndk1::allocator<int> > >, void*>, std::__ndk1::__tree_node_destructor<std::__ndk1::allocator<std::__ndk1::__tree_node<std::__ndk1::__value_type<UnlockType, std::__ndk1::vector<int, std::__ndk1::allocator<int> > >, void*> > > >::~unique_ptr[abi:ne190000]()
PUBLIC 7270 0 std::__ndk1::__tree_balance_after_insert[abi:ne190000]<std::__ndk1::__tree_node_base<void*>*>(std::__ndk1::__tree_node_base<void*>*, std::__ndk1::__tree_node_base<void*>*)
PUBLIC 7418 0 std::__ndk1::__tree<std::__ndk1::__value_type<UnlockType, std::__ndk1::vector<int, std::__ndk1::allocator<int> > >, std::__ndk1::__map_value_compare<UnlockType, std::__ndk1::__value_type<UnlockType, std::__ndk1::vector<int, std::__ndk1::allocator<int> > >, std::__ndk1::less<UnlockType>, true>, std::__ndk1::allocator<std::__ndk1::__value_type<UnlockType, std::__ndk1::vector<int, std::__ndk1::allocator<int> > > > >::destroy(std::__ndk1::__tree_node<std::__ndk1::__value_type<UnlockType, std::__ndk1::vector<int, std::__ndk1::allocator<int> > >, void*>*)
PUBLIC 7460 0 std::__ndk1::__independent_bits_engine<std::__ndk1::mersenne_twister_engine<unsigned long, (unsigned long)32, (unsigned long)624, (unsigned long)397, (unsigned long)31, (unsigned long)2567483615, (unsigned long)11, (unsigned long)4294967295, (unsigned long)7, (unsigned long)2636928640, (unsigned long)15, (unsigned long)4022730752, (unsigned long)18, (unsigned long)1812433253>, unsigned int>::__eval(std::__ndk1::integral_constant<bool, true>)
PUBLIC 7660 0 std::__ndk1::__variant_detail::__visitation::__base::__dispatcher<(unsigned long)0>::__dispatch[abi:ne190000]<std::__ndk1::__variant_detail::__dtor<std::__ndk1::__variant_detail::__traits<unsigned long, std::__ndk1::basic_string<char, std::__ndk1::char_traits<char>, std::__ndk1::allocator<char> > >, (std::__ndk1::__variant_detail::_Trait)1>::__destroy[abi:ne190000]()::{lambda(auto:1&)#1}, std::__ndk1::__variant_detail::__base<(std::__ndk1::__variant_detail::__traits<unsigned long, std::__ndk1::basic_string<char, std::__ndk1::char_traits<char>, std::__ndk1::allocator<char> > >)1, unsigned long, std::__ndk1::allocator<char> >&>(std::__ndk1::__variant_detail::__dtor<std::__ndk1::__variant_detail::__traits<unsigned long, std::__ndk1::basic_string<char, std::__ndk1::char_traits<char>, std::__ndk1::allocator<char> > >, (std::__ndk1::__variant_detail::_Trait)1>, std::__ndk1::__variant_detail::__base<(std::__ndk1::__variant_detail::__traits<unsigned long, std::__ndk1::basic_string<char, std::__ndk1::char_traits<char>, std::__ndk1::allocator<char> > >)1, unsigned long, std::__ndk1::allocator<char> >&)
PUBLIC 7664 0 std::__ndk1::__variant_detail::__visitation::__base::__dispatcher<(unsigned long)1>::__dispatch[abi:ne190000]<std::__ndk1::__variant_detail::__dtor<std::__ndk1::__variant_detail::__traits<unsigned long, std::__ndk1::basic_string<char, std::__ndk1::char_traits<char>, std::__ndk1::allocator<char> > >, (std::__ndk1::__variant_detail::_Trait)1>::__destroy[abi:ne190000]()::{lambda(auto:1&)#1}, std::__ndk1::__variant_detail::__base<(std::__ndk1::__variant_detail::__traits<unsigned long, std::__ndk1::basic_string<char, std::__ndk1::char_traits<char>, std::__ndk1::allocator<char> > >)1, unsigned long, std::__ndk1::allocator<char> >&>(std::__ndk1::__variant_detail::__dtor<std::__ndk1::__variant_detail::__traits<unsigned long, std::__ndk1::basic_string<char, std::__ndk1::char_traits<char>, std::__ndk1::allocator<char> > >, (std::__ndk1::__variant_detail::_Trait)1>, std::__ndk1::__variant_detail::__base<(std::__ndk1::__variant_detail::__traits<unsigned long, std::__ndk1::basic_string<char, std::__ndk1::char_traits<char>, std::__ndk1::allocator<char> > >)1, unsigned long, std::__ndk1::allocator<char> >&)
PUBLIC 7678 0 std::__ndk1::__variant_detail::__visitation::__base::__dispatcher<(unsigned long)0>::__dispatch[abi:ne190000]<std::__ndk1::__variant_detail::__dtor<std::__ndk1::__variant_detail::__traits<bool, std::__ndk1::basic_string<char, std::__ndk1::char_traits<char>, std::__ndk1::allocator<char> > >, (std::__ndk1::__variant_detail::_Trait)1>::__destroy[abi:ne190000]()::{lambda(auto:1&)#1}, std::__ndk1::__variant_detail::__base<(std::__ndk1::__variant_detail::__traits<bool, std::__ndk1::basic_string<char, std::__ndk1::char_traits<char>, std::__ndk1::allocator<char> > >)1, bool, std::__ndk1::allocator<char> >&>(std::__ndk1::__variant_detail::__dtor<std::__ndk1::__variant_detail::__traits<bool, std::__ndk1::basic_string<char, std::__ndk1::char_traits<char>, std::__ndk1::allocator<char> > >, (std::__ndk1::__variant_detail::_Trait)1>, std::__ndk1::__variant_detail::__base<(std::__ndk1::__variant_detail::__traits<bool, std::__ndk1::basic_string<char, std::__ndk1::char_traits<char>, std::__ndk1::allocator<char> > >)1, bool, std::__ndk1::allocator<char> >&)
PUBLIC 767c 0 std::__ndk1::__variant_detail::__visitation::__base::__dispatcher<(unsigned long)1>::__dispatch[abi:ne190000]<std::__ndk1::__variant_detail::__dtor<std::__ndk1::__variant_detail::__traits<bool, std::__ndk1::basic_string<char, std::__ndk1::char_traits<char>, std::__ndk1::allocator<char> > >, (std::__ndk1::__variant_detail::_Trait)1>::__destroy[abi:ne190000]()::{lambda(auto:1&)#1}, std::__ndk1::__variant_detail::__base<(std::__ndk1::__variant_detail::__traits<bool, std::__ndk1::basic_string<char, std::__ndk1::char_traits<char>, std::__ndk1::allocator<char> > >)1, bool, std::__ndk1::allocator<char> >&>(std::__ndk1::__variant_detail::__dtor<std::__ndk1::__variant_detail::__traits<bool, std::__ndk1::basic_string<char, std::__ndk1::char_traits<char>, std::__ndk1::allocator<char> > >, (std::__ndk1::__variant_detail::_Trait)1>, std::__ndk1::__variant_detail::__base<(std::__ndk1::__variant_detail::__traits<bool, std::__ndk1::basic_string<char, std::__ndk1::char_traits<char>, std::__ndk1::allocator<char> > >)1, bool, std::__ndk1::allocator<char> >&)
PUBLIC 7690 0 std::__ndk1::__variant_detail::__visitation::__base::__dispatcher<(unsigned long)0>::__dispatch[abi:ne190000]<std::__ndk1::__variant_detail::__dtor<std::__ndk1::__variant_detail::__traits<long, std::__ndk1::basic_string<char, std::__ndk1::char_traits<char>, std::__ndk1::allocator<char> > >, (std::__ndk1::__variant_detail::_Trait)1>::__destroy[abi:ne190000]()::{lambda(auto:1&)#1}, std::__ndk1::__variant_detail::__base<(std::__ndk1::__variant_detail::__traits<long, std::__ndk1::basic_string<char, std::__ndk1::char_traits<char>, std::__ndk1::allocator<char> > >)1, long, std::__ndk1::allocator<char> >&>(std::__ndk1::__variant_detail::__dtor<std::__ndk1::__variant_detail::__traits<long, std::__ndk1::basic_string<char, std::__ndk1::char_traits<char>, std::__ndk1::allocator<char> > >, (std::__ndk1::__variant_detail::_Trait)1>, std::__ndk1::__variant_detail::__base<(std::__ndk1::__variant_detail::__traits<long, std::__ndk1::basic_string<char, std::__ndk1::char_traits<char>, std::__ndk1::allocator<char> > >)1, long, std::__ndk1::allocator<char> >&)
PUBLIC 7694 0 std::__ndk1::__variant_detail::__visitation::__base::__dispatcher<(unsigned long)1>::__dispatch[abi:ne190000]<std::__ndk1::__variant_detail::__dtor<std::__ndk1::__variant_detail::__traits<long, std::__ndk1::basic_string<char, std::__ndk1::char_traits<char>, std::__ndk1::allocator<char> > >, (std::__ndk1::__variant_detail::_Trait)1>::__destroy[abi:ne190000]()::{lambda(auto:1&)#1}, std::__ndk1::__variant_detail::__base<(std::__ndk1::__variant_detail::__traits<long, std::__ndk1::basic_string<char, std::__ndk1::char_traits<char>, std::__ndk1::allocator<char> > >)1, long, std::__ndk1::allocator<char> >&>(std::__ndk1::__variant_detail::__dtor<std::__ndk1::__variant_detail::__traits<long, std::__ndk1::basic_string<char, std::__ndk1::char_traits<char>, std::__ndk1::allocator<char> > >, (std::__ndk1::__variant_detail::_Trait)1>, std::__ndk1::__variant_detail::__base<(std::__ndk1::__variant_detail::__traits<long, std::__ndk1::basic_string<char, std::__ndk1::char_traits<char>, std::__ndk1::allocator<char> > >)1, long, std::__ndk1::allocator<char> >&)
PUBLIC 76a8 0 std::__ndk1::__variant_detail::__visitation::__base::__dispatcher<(unsigned long)0>::__dispatch[abi:ne190000]<std::__ndk1::__variant_detail::__dtor<std::__ndk1::__variant_detail::__traits<int, std::__ndk1::basic_string<char, std::__ndk1::char_traits<char>, std::__ndk1::allocator<char> > >, (std::__ndk1::__variant_detail::_Trait)1>::__destroy[abi:ne190000]()::{lambda(auto:1&)#1}, std::__ndk1::__variant_detail::__base<(std::__ndk1::__variant_detail::__traits<int, std::__ndk1::basic_string<char, std::__ndk1::char_traits<char>, std::__ndk1::allocator<char> > >)1, int, std::__ndk1::allocator<char> >&>(std::__ndk1::__variant_detail::__dtor<std::__ndk1::__variant_detail::__traits<int, std::__ndk1::basic_string<char, std::__ndk1::char_traits<char>, std::__ndk1::allocator<char> > >, (std::__ndk1::__variant_detail::_Trait)1>, std::__ndk1::__variant_detail::__base<(std::__ndk1::__variant_detail::__traits<int, std::__ndk1::basic_string<char, std::__ndk1::char_traits<char>, std::__ndk1::allocator<char> > >)1, int, std::__ndk1::allocator<char> >&)
PUBLIC 76ac 0 std::__ndk1::__variant_detail::__visitation::__base::__dispatcher<(unsigned long)1>::__dispatch[abi:ne190000]<std::__ndk1::__variant_detail::__dtor<std::__ndk1::__variant_detail::__traits<int, std::__ndk1::basic_string<char, std::__ndk1::char_traits<char>, std::__ndk1::allocator<char> > >, (std::__ndk1::__variant_detail::_Trait)1>::__destroy[abi:ne190000]()::{lambda(auto:1&)#1}, std::__ndk1::__variant_detail::__base<(std::__ndk1::__variant_detail::__traits<int, std::__ndk1::basic_string<char, std::__ndk1::char_traits<char>, std::__ndk1::allocator<char> > >)1, int, std::__ndk1::allocator<char> >&>(std::__ndk1::__variant_detail::__dtor<std::__ndk1::__variant_detail::__traits<int, std::__ndk1::basic_string<char, std::__ndk1::char_traits<char>, std::__ndk1::allocator<char> > >, (std::__ndk1::__variant_detail::_Trait)1>, std::__ndk1::__variant_detail::__base<(std::__ndk1::__variant_detail::__traits<int, std::__ndk1::basic_string<char, std::__ndk1::char_traits<char>, std::__ndk1::allocator<char> > >)1, int, std::__ndk1::allocator<char> >&)
PUBLIC 76c0 0 _GLOBAL__sub_I_IconRandomizer.cpp
PUBLIC 7c20 0 geode::getMod()
PUBLIC m 7c5c 0 geodeImplicitEntry
PUBLIC 7c98 0 GameManager::get()
PUBLIC 7c9c 0 GameManager::getPlayerBall()
PUBLIC 7cb4 0 GameManager::getPlayerBird()
PUBLIC 7ccc 0 GameManager::getPlayerColor()
PUBLIC 7ce4 0 GameManager::getPlayerColor2()
PUBLIC 7cfc 0 GameManager::getPlayerDart()
PUBLIC 7d14 0 GameManager::getPlayerDeathEffect()
PUBLIC 7d2c 0 GameManager::getPlayerFrame()
PUBLIC 7d44 0 GameManager::getPlayerGlow()
PUBLIC 7d4c 0 GameManager::getPlayerGlowColor()
PUBLIC 7d64 0 GameManager::getPlayerJetpack()
PUBLIC 7d7c 0 GameManager::getPlayerRobot()
PUBLIC 7d94 0 GameManager::getPlayerShip()
PUBLIC 7dac 0 GameManager::getPlayerShipFire()
PUBLIC 7dc4 0 GameManager::getPlayerSpider()
PUBLIC 7ddc 0 GameManager::getPlayerStreak()
PUBLIC 7df4 0 GameManager::getPlayerSwing()
PUBLIC 7e0c 0 GameManager::setPlayerBall(int)
PUBLIC 7e20 0 GameManager::setPlayerBird(int)
PUBLIC 7e34 0 GameManager::setPlayerColor(int)
PUBLIC 7e48 0 GameManager::setPlayerColor2(int)
PUBLIC 7e5c 0 GameManager::setPlayerColor3(int)
PUBLIC 7e70 0 GameManager::setPlayerDart(int)
PUBLIC 7e84 0 GameManager::setPlayerDeathEffect(int)
PUBLIC 7e98 0 GameManager::setPlayerFrame(int)
PUBLIC 7eac 0 GameManager::setPlayerGlow(bool)
PUBLIC 7eb4 0 GameManager::setPlayerJetpack(int)
PUBLIC 7ec8 0 GameManager::setPlayerRobot(int)
PUBLIC 7edc 0 GameManager::setPlayerShip(int)
PUBLIC 7ef0 0 GameManager::setPlayerShipStreak(int)
PUBLIC 7f04 0 GameManager::setPlayerSpider(int)
PUBLIC 7f18 0 GameManager::setPlayerStreak(int)
PUBLIC 7f2c 0 GameManager::setPlayerSwing(int)
PUBLIC 7f40 0 GameStatsManager::get()
PUBLIC m 7f44 0 std::__ndk1::basic_stringstream<char, std::__ndk1::char_traits<char>, std::__ndk1::allocator<char> >::~basic_stringstream()
PUBLIC 7fd0 0 <.plt ELF section in hiimjustin000.icon_randomizer_api.android64.so>
STACK CFI INIT 37e8 10 .cfa: sp 0 +
STACK CFI INIT 37f8 8 .cfa: sp 0 +
STACK CFI INIT 3800 8 .cfa: sp 0 +
STACK CFI INIT 3808 14 .cfa: sp 0 +
STACK CFI INIT 381c 1c .cfa: sp 0 +
STACK CFI INIT 3838 10 .cfa: sp 0 +
STACK CFI INIT 3848 8 .cfa: sp 0 +
STACK CFI INIT 3850 1f8 .cfa: sp 0 +
STACK CFI 3854 .cfa: sp 96 +
STACK CFI 386c .cfa: x29 96 + x19: .cfa -8 + ^ x20: .cfa -16 + ^ x21: .cfa -24 + ^ x22: .cfa -32 + ^ x23: .cfa -40 + ^ x24: .cfa -48 + ^ x25: .cfa -56 + ^ x26: .cfa -64 + ^ x27: .cfa -72 + ^ x28: .cfa -80 + ^ .ra: .cfa -88 + ^ x29: .cfa -96 + ^
STACK CFI 3a24 .cfa: sp 96 +
STACK CFI 3a3c .cfa: sp 0 +
STACK CFI 3a40 .cfa: x29 96 +
STACK CFI INIT 3a48 1bc .cfa: sp 0 +
STACK CFI 3a4c .cfa: sp 96 +
STACK CFI 3a64 .cfa: x29 96 + x19: .cfa -8 + ^ x20: .cfa -16 + ^ x21: .cfa -24 + ^ x22: .cfa -32 + ^ x23: .cfa -40 + ^ x24: .cfa -48 + ^ x25: .cfa -56 + ^ x26: .cfa -64 + ^ x27: .cfa -72 + ^ x28: .cfa -80 + ^ .ra: .cfa -88 + ^ x29: .cfa -96 + ^
STACK CFI 3be0 .cfa: sp 96 +
STACK CFI 3bf8 .cfa: sp 0 +
STACK CFI 3bfc .cfa: x29 96 +
STACK CFI INIT 3c04 9c .cfa: sp 0 +
STACK CFI 3c08 .cfa: sp 32 +
STACK CFI 3c10 .cfa: x29 32 + x19: .cfa -16 + ^ .ra: .cfa -24 + ^ x29: .cfa -32 + ^
STACK CFI 3c94 .cfa: sp 32 +
STACK CFI 3c9c .cfa: sp 0 +
STACK CFI INIT 3f60 e0 .cfa: sp 0 +
STACK CFI INIT 4040 24 .cfa: sp 0 +
STACK CFI INIT 4064 20 .cfa: sp 0 +
STACK CFI INIT 4084 20 .cfa: sp 0 +
STACK CFI INIT 4d94 b0 .cfa: sp 0 +
STACK CFI 4d98 .cfa: sp 48 +
STACK CFI 4da4 .cfa: x29 48 + x19: .cfa -8 + ^ x20: .cfa -16 + ^ x21: .cfa -24 + ^ x22: .cfa -32 + ^ .ra: .cfa -40 + ^ x29: .cfa -48 + ^
STACK CFI 4dd8 .cfa: sp 48 +
STACK CFI 4de4 .cfa: sp 0 +
STACK CFI 4de8 .cfa: x29 48 +
STACK CFI 4e2c .cfa: sp 48 +
STACK CFI 4e38 .cfa: sp 0 +
STACK CFI 4e3c .cfa: x29 48 +
STACK CFI INIT 57b4 7c .cfa: sp 0 +
STACK CFI 57b8 .cfa: sp 48 +
STACK CFI 57c4 .cfa: x29 48 + x19: .cfa -8 + ^ x20: .cfa -16 + ^ x21: .cfa -32 + ^ .ra: .cfa -40 + ^ x29: .cfa -48 + ^
STACK CFI 5810 .cfa: sp 48 +
STACK CFI 581c .cfa: sp 0 +
STACK CFI 5820 .cfa: sp 48 +
STACK CFI 582c .cfa: sp 0 +
STACK CFI INIT 5830 124 .cfa: sp 0 +
STACK CFI 5834 .cfa: sp 32 +
STACK CFI 583c .cfa: x29 32 + x19: .cfa -16 + ^ .ra: .cfa -24 + ^ x29: .cfa -32 + ^
STACK CFI 58bc .cfa: sp 32 +
STACK CFI 58c4 .cfa: sp 0 +
STACK CFI 58c8 .cfa: x29 32 +
STACK CFI 5910 .cfa: sp 32 +
STACK CFI 5918 .cfa: sp 0 +
STACK CFI 591c .cfa: x29 32 +
STACK CFI 5948 .cfa: sp 32 +
STACK CFI 5950 .cfa: sp 0 +
STACK CFI INIT 60c8 10 .cfa: sp 0 +
STACK CFI 60cc .cfa: sp 16 +
STACK CFI 60d0 .cfa: x29 16 + .ra: .cfa -8 + ^ x29: .cfa -16 + ^
STACK CFI INIT 60d8 14 .cfa: sp 0 +
STACK CFI 60dc .cfa: sp 16 +
STACK CFI 60e0 .cfa: x29 16 + .ra: .cfa -8 + ^ x29: .cfa -16 + ^
STACK CFI INIT 613c 30 .cfa: sp 0 +
STACK CFI 6140 .cfa: sp 32 +
STACK CFI 6148 .cfa: x29 32 + x19: .cfa -16 + ^ .ra: .cfa -24 + ^ x29: .cfa -32 + ^
STACK CFI 6160 .cfa: sp 32 +
STACK CFI 6168 .cfa: sp 0 +
STACK CFI INIT 616c 34 .cfa: sp 0 +
STACK CFI 6170 .cfa: sp 32 +
STACK CFI 6178 .cfa: x29 32 + x19: .cfa -16 + ^ .ra: .cfa -24 + ^ x29: .cfa -32 + ^
STACK CFI INIT 61a0 14 .cfa: sp 0 +
STACK CFI 61a4 .cfa: sp 16 +
STACK CFI 61a8 .cfa: x29 16 + .ra: .cfa -8 + ^ x29: .cfa -16 + ^
STACK CFI INIT 62b0 40 .cfa: sp 0 +
STACK CFI 62c8 .cfa: sp 32 +
STACK CFI 62d0 .cfa: x29 32 + x19: .cfa -16 + ^ .ra: .cfa -24 + ^ x29: .cfa -32 + ^
STACK CFI 62e4 .cfa: sp 32 +
STACK CFI 62ec .cfa: sp 0 +
STACK CFI INIT 62f0 224 .cfa: sp 0 +
STACK CFI 62f4 .cfa: sp 80 +
STACK CFI 6308 .cfa: x29 80 + x19: .cfa -8 + ^ x20: .cfa -16 + ^ x21: .cfa -24 + ^ x22: .cfa -32 + ^ x23: .cfa -40 + ^ x24: .cfa -48 + ^ x25: .cfa -64 + ^ .ra: .cfa -72 + ^ x29: .cfa -80 + ^
STACK CFI 64fc .cfa: sp 80 +
STACK CFI 6510 .cfa: sp 0 +
STACK CFI INIT 6514 44 .cfa: sp 0 +
STACK CFI 6518 .cfa: sp 32 +
STACK CFI 6520 .cfa: x29 32 + x19: .cfa -16 + ^ .ra: .cfa -24 + ^ x29: .cfa -32 + ^
STACK CFI 654c .cfa: sp 32 +
STACK CFI 6554 .cfa: sp 0 +
STACK CFI INIT 6558 94 .cfa: sp 0 +
STACK CFI 655c .cfa: sp 48 +
STACK CFI 6568 .cfa: x29 48 + x19: .cfa -8 + ^ x20: .cfa -16 + ^ x21: .cfa -24 + ^ x22: .cfa -32 + ^ .ra: .cfa -40 + ^ x29: .cfa -48 + ^
STACK CFI 6580 .cfa: sp 48 +
STACK CFI 658c .cfa: sp 0 +
STACK CFI 6590 .cfa: x29 48 +
STACK CFI 65d4 .cfa: sp 48 +
STACK CFI 65e0 .cfa: sp 0 +
STACK CFI 65e4 .cfa: x29 48 +
STACK CFI INIT 65ec 458 .cfa: sp 0 +
STACK CFI INIT 7078 50 .cfa: sp 0 +
STACK CFI 709c .cfa: sp 32 +
STACK CFI 70a4 .cfa: x29 32 + x19: .cfa -16 + ^ .ra: .cfa -24 + ^ x29: .cfa -32 + ^
STACK CFI 70b8 .cfa: sp 32 +
STACK CFI 70c0 .cfa: sp 0 +
STACK CFI INIT 71b0 34 .cfa: sp 0 +
STACK CFI 71b4 .cfa: sp 16 +
STACK CFI 71b8 .cfa: x29 16 + .ra: .cfa -8 + ^ x29: .cfa -16 + ^
STACK CFI INIT 71e4 4 .cfa: sp 0 +
STACK CFI INIT 71e8 14 .cfa: sp 0 +
STACK CFI INIT 71fc 14 .cfa: sp 0 +
STACK CFI INIT 7210 14 .cfa: sp 0 +
STACK CFI INIT 7224 4c .cfa: sp 0 +
STACK CFI 7228 .cfa: sp 32 +
STACK CFI 7230 .cfa: x29 32 + x19: .cfa -16 + ^ .ra: .cfa -24 + ^ x29: .cfa -32 + ^
STACK CFI 7258 .cfa: sp 32 +
STACK CFI 7260 .cfa: sp 0 +
STACK CFI 7264 .cfa: sp 32 +
STACK CFI 726c .cfa: sp 0 +
STACK CFI INIT 7270 1a8 .cfa: sp 0 +
STACK CFI INIT 7418 48 .cfa: sp 0 +
STACK CFI 7420 .cfa: sp 32 +
STACK CFI 7428 .cfa: x29 32 + x19: .cfa -16 + ^ .ra: .cfa -24 + ^ x29: .cfa -32 + ^
STACK CFI 7450 .cfa: sp 32 +
STACK CFI 7458 .cfa: sp 0 +
STACK CFI INIT 7460 200 .cfa: sp 0 +
STACK CFI INIT 7660 4 .cfa: sp 0 +
STACK CFI INIT 7664 14 .cfa: sp 0 +
STACK CFI INIT 7678 4 .cfa: sp 0 +
STACK CFI INIT 767c 14 .cfa: sp 0 +
STACK CFI INIT 7690 4 .cfa: sp 0 +
STACK CFI INIT 7694 14 .cfa: sp 0 +
STACK CFI INIT 76a8 4 .cfa: sp 0 +
STACK CFI INIT 76ac 14 .cfa: sp 0 +
STACK CFI INIT 7c20 3c .cfa: sp 0 +
STACK CFI 7c24 .cfa: sp 32 +
STACK CFI 7c2c .cfa: x29 32 + x19: .cfa -16 + ^ .ra: .cfa -24 + ^ x29: .cfa -32 + ^
STACK CFI 7c38 .cfa: sp 32 +
STACK CFI 7c40 .cfa: sp 0 +
STACK CFI 7c44 .cfa: x29 32 +
STACK CFI 7c50 .cfa: sp 32 +
STACK CFI 7c58 .cfa: sp 0 +
STACK CFI INIT 7c5c 3c .cfa: sp 0 +
STACK CFI 7c60 .cfa: sp 32 +
STACK CFI 7c68 .cfa: x29 32 + x19: .cfa -16 + ^ .ra: .cfa -24 + ^ x29: .cfa -32 + ^
STACK CFI 7c74 .cfa: sp 32 +
STACK CFI 7c7c .cfa: sp 0 +
STACK CFI 7c80 .cfa: x29 32 +
STACK CFI 7c8c .cfa: sp 32 +
STACK CFI 7c94 .cfa: sp 0 +
STACK CFI INIT 7c98 4 .cfa: sp 0 +
STACK CFI INIT 7c9c 18 .cfa: sp 0 +
STACK CFI INIT 7cb4 18 .cfa: sp 0 +
STACK CFI INIT 7ccc 18 .cfa: sp 0 +
STACK CFI INIT 7ce4 18 .cfa: sp 0 +
STACK CFI INIT 7cfc 18 .cfa: sp 0 +
STACK CFI INIT 7d14 18 .cfa: sp 0 +
STACK CFI INIT 7d2c 18 .cfa: sp 0 +
STACK CFI INIT 7d44 8 .cfa: sp 0 +
STACK CFI INIT 7d4c 18 .cfa: sp 0 +
STACK CFI INIT 7d64 18 .cfa: sp 0 +
STACK CFI INIT 7d7c 18 .cfa: sp 0 +
STACK CFI INIT 7d94 18 .cfa: sp 0 +
STACK CFI INIT 7dac 18 .cfa: sp 0 +
STACK CFI INIT 7dc4 18 .cfa: sp 0 +
STACK CFI INIT 7ddc 18 .cfa: sp 0 +
STACK CFI INIT 7df4 18 .cfa: sp 0 +
STACK CFI INIT 7e0c 14 .cfa: sp 0 +
STACK CFI INIT 7e20 14 .cfa: sp 0 +
STACK CFI INIT 7e34 14 .cfa: sp 0 +
STACK CFI INIT 7e48 14 .cfa: sp 0 +
STACK CFI INIT 7e5c 14 .cfa: sp 0 +
STACK CFI INIT 7e70 14 .cfa: sp 0 +
STACK CFI INIT 7e84 14 .cfa: sp 0 +
STACK CFI INIT 7e98 14 .cfa: sp 0 +
STACK CFI INIT 7eac 8 .cfa: sp 0 +
STACK CFI INIT 7eb4 14 .cfa: sp 0 +
STACK CFI INIT 7ec8 14 .cfa: sp 0 +
STACK CFI INIT 7edc 14 .cfa: sp 0 +
STACK CFI INIT 7ef0 14 .cfa: sp 0 +
STACK CFI INIT 7f04 14 .cfa: sp 0 +
STACK CFI INIT 7f18 14 .cfa: sp 0 +
STACK CFI INIT 7f2c 14 .cfa: sp 0 +
STACK CFI INIT 7f40 4 .cfa: sp 0 +
STACK CFI INIT 7f44 80 .cfa: sp 0 +
STACK CFI 7f48 .cfa: sp 48 +
STACK CFI 7f54 .cfa: x29 48 + x19: .cfa -8 + ^ x20: .cfa -16 + ^ x21: .cfa -32 + ^ .ra: .cfa -40 + ^ x29: .cfa -48 + ^
STACK CFI 7fb4 .cfa: sp 48 +
STACK CFI 7fc0 .cfa: sp 0 +
STACK CFI INIT 3ca0 214 .cfa: sp 0 +
STACK CFI 3ca4 .cfa: sp 128 +
STACK CFI 3cb4 .cfa: x29 48 + x19: .cfa -8 + ^ x20: .cfa -16 + ^ x21: .cfa -32 + ^ .ra: .cfa -40 + ^ x29: .cfa -48 + ^
STACK CFI 3d90 .cfa: sp 128 +
STACK CFI 3da0 .cfa: sp 0 +
STACK CFI 3da4 .cfa: x29 48 +
STACK CFI INIT 3eb4 ac .cfa: sp 0 +
STACK CFI 3eb8 .cfa: sp 64 +
STACK CFI 3ec4 .cfa: x29 32 + x19: .cfa -8 + ^ x20: .cfa -16 + ^ .ra: .cfa -24 + ^ x29: .cfa -32 + ^
STACK CFI 3f20 .cfa: sp 64 +
STACK CFI 3f2c .cfa: sp 0 +
STACK CFI 3f30 .cfa: x29 32 +
STACK CFI INIT 40a4 cf0 .cfa: sp 0 +
STACK CFI 40a8 .cfa: sp 96 +
STACK CFI 40c0 .cfa: x29 96 + x19: .cfa -8 + ^ x20: .cfa -16 + ^ x21: .cfa -24 + ^ x22: .cfa -32 + ^ x23: .cfa -40 + ^ x24: .cfa -48 + ^ x25: .cfa -56 + ^ x26: .cfa -64 + ^ x27: .cfa -72 + ^ x28: .cfa -80 + ^ .ra: .cfa -88 + ^ x29: .cfa -96 + ^
STACK CFI 4c6c .cfa: sp 96 +
STACK CFI 4c84 .cfa: sp 0 +
STACK CFI 4c88 .cfa: x29 96 +
STACK CFI INIT 4e44 26c .cfa: sp 0 +
STACK CFI 4e48 .cfa: sp 240 +
STACK CFI 4e60 .cfa: x29 80 + x19: .cfa -8 + ^ x20: .cfa -16 + ^ x21: .cfa -24 + ^ x22: .cfa -32 + ^ x23: .cfa -40 + ^ x24: .cfa -48 + ^ x25: .cfa -64 + ^ .ra: .cfa -72 + ^ x29: .cfa -80 + ^
STACK CFI 5020 .cfa: sp 240 +
STACK CFI 5038 .cfa: sp 0 +
STACK CFI 503c .cfa: x29 80 +
STACK CFI INIT 50b0 1c0 .cfa: sp 0 +
STACK CFI 50b4 .cfa: sp 176 +
STACK CFI 50c4 .cfa: x29 48 + x19: .cfa -8 + ^ x20: .cfa -16 + ^ x21: .cfa -24 + ^ x22: .cfa -32 + ^ .ra: .cfa -40 + ^ x29: .cfa -48 + ^
STACK CFI 5204 .cfa: sp 176 +
STACK CFI 5214 .cfa: sp 0 +
STACK CFI 5218 .cfa: x29 48 +
STACK CFI INIT 5270 544 .cfa: sp 0 +
STACK CFI 5274 .cfa: sp 208 +
STACK CFI 528c .cfa: x29 80 + x19: .cfa -8 + ^ x20: .cfa -16 + ^ x21: .cfa -24 + ^ x22: .cfa -32 + ^ x23: .cfa -40 + ^ x24: .cfa -48 + ^ x25: .cfa -64 + ^ .ra: .cfa -72 + ^ x29: .cfa -80 + ^
STACK CFI 565c .cfa: sp 208 +
STACK CFI 5674 .cfa: sp 0 +
STACK CFI 5678 .cfa: x29 80 +
STACK CFI INIT 5954 4fc .cfa: sp 0 +
STACK CFI 5958 .cfa: sp 192 +
STACK CFI 596c .cfa: x29 64 + x19: .cfa -8 + ^ x20: .cfa -16 + ^ x21: .cfa -24 + ^ x22: .cfa -32 + ^ x23: .cfa -48 + ^ .ra: .cfa -56 + ^ x29: .cfa -64 + ^
STACK CFI 5bec .cfa: sp 192 +
STACK CFI 5c00 .cfa: sp 0 +
STACK CFI 5c04 .cfa: x29 64 +
STACK CFI INIT 5e50 278 .cfa: sp 0 +
STACK CFI 5e54 .cfa: sp 240 +
STACK CFI 5e6c .cfa: x29 80 + x19: .cfa -8 + ^ x20: .cfa -16 + ^ x21: .cfa -24 + ^ x22: .cfa -32 + ^ x23: .cfa -40 + ^ x24: .cfa -48 + ^ x25: .cfa -64 + ^ .ra: .cfa -72 + ^ x29: .cfa -80 + ^
STACK CFI 6038 .cfa: sp 240 +
STACK CFI 6050 .cfa: sp 0 +
STACK CFI 6054 .cfa: x29 80 +
STACK CFI INIT 60ec 50 .cfa: sp 0 +
STACK CFI 60f0 .cfa: sp 32 +
STACK CFI 60f8 .cfa: x29 32 + x19: .cfa -8 + ^ x20: .cfa -16 + ^ .ra: .cfa -24 + ^ x29: .cfa -32 + ^
STACK CFI INIT 61b4 fc .cfa: sp 0 +
STACK CFI 61b8 .cfa: sp 64 +
STACK CFI 61c4 .cfa: x29 32 + x19: .cfa -8 + ^ x20: .cfa -16 + ^ .ra: .cfa -24 + ^ x29: .cfa -32 + ^
STACK CFI 61f8 .cfa: sp 64 +
STACK CFI 6204 .cfa: sp 0 +
STACK CFI 6208 .cfa: x29 32 +
STACK CFI INIT 6a44 634 .cfa: sp 0 +
STACK CFI 6a48 .cfa: sp 128 +
STACK CFI 6a64 .cfa: x29 96 + x19: .cfa -8 + ^ x20: .cfa -16 + ^ x21: .cfa -24 + ^ x22: .cfa -32 + ^ x23: .cfa -40 + ^ x24: .cfa -48 + ^ x25: .cfa -56 + ^ x26: .cfa -64 + ^ x27: .cfa -72 + ^ x28: .cfa -80 + ^ .ra: .cfa -88 + ^ x29: .cfa -96 + ^
STACK CFI 7018 .cfa: sp 128 +
STACK CFI 7034 .cfa: sp 0 +
STACK CFI 7038 .cfa: x29 96 +
STACK CFI INIT 70c8 74 .cfa: sp 0 +
STACK CFI 70cc .cfa: sp 48 +
STACK CFI 70d8 .cfa: x29 32 + x19: .cfa -8 + ^ x20: .cfa -16 + ^ .ra: .cfa -24 + ^ x29: .cfa -32 + ^
STACK CFI 7124 .cfa: sp 48 +
STACK CFI 7130 .cfa: sp 0 +
STACK CFI 7134 .cfa: x29 32 +
STACK CFI INIT 713c 74 .cfa: sp 0 +
STACK CFI 7140 .cfa: sp 48 +
STACK CFI 714c .cfa: x29 32 + x19: .cfa -8 + ^ x20: .cfa -16 + ^ .ra: .cfa -24 + ^ x29: .cfa -32 + ^
STACK CFI 7198 .cfa: sp 48 +
STACK CFI 71a4 .cfa: sp 0 +
STACK CFI 71a8 .cfa: x29 32 +
STACK CFI INIT 76c0 560 .cfa: sp 0 +
STACK CFI 76c4 .cfa: sp 96 +
STACK CFI 76dc .cfa: x29 96 + x19: .cfa -8 + ^ x20: .cfa -16 + ^ x21: .cfa -24 + ^ x22: .cfa -32 + ^ x23: .cfa -40 + ^ x24: .cfa -48 + ^ x25: .cfa -56 + ^ x26: .cfa -64 + ^ x27: .cfa -72 + ^ x28: .cfa -80 + ^ .ra: .cfa -88 + ^ x29: .cfa -96 + ^
STACK CFI 7a50 .cfa: sp 96 +
STACK CFI 7a68 .cfa: sp 0 +
STACK CFI 7a6c .cfa: x29 96 +
