MODULE Linux arm 889340FAF97AD18B735E62EA0CFDEE840 dogotrigger.triggersearch.android32.so
INFO CODE_ID FA4093887AF98BD1735E62EA0CFDEE84D43110BA
INFO GENERATOR mozilla/dump_syms 2.3.4
PUBLIC a680 0 __on_dlclose
PUBLIC a690 0 __emutls_unregister_key
PUBLIC a694 0 __on_dlclose_late
PUBLIC a698 0 __atexit_handler_wrapper
PUBLIC a6a4 0 atexit
PUBLIC a6c4 0 pthread_atfork
FUNC a6d4 10ea2 0 __cxx_global_var_init
FUNC 1b576 4 0 _GLOBAL__sub_I_main.cpp
FUNC 1b57c d8 0 std::__ndk1::vector<std::__ndk1::basic_string<char, std::__ndk1::char_traits<char>, std::__ndk1::allocator<char> >, std::__ndk1::allocator<std::__ndk1::basic_string<char, std::__ndk1::char_traits<char>, std::__ndk1::allocator<char> > > >::vector[abi:ne180000](std::initializer_list<std::__ndk1::basic_string<char, std::__ndk1::char_traits<char>, std::__ndk1::allocator<char> > >)
FUNC 1b654 56 0 std::__ndk1::pair<int const, SObject>::~pair()
FUNC 1b6aa 56 0 SObject::~SObject()
FUNC 1b700 3e 0 std::__ndk1::vector<std::__ndk1::basic_string<char, std::__ndk1::char_traits<char>, std::__ndk1::allocator<char> >, std::__ndk1::allocator<std::__ndk1::basic_string<char, std::__ndk1::char_traits<char>, std::__ndk1::allocator<char> > > >::~vector[abi:ne180000]()
FUNC 1b73e 10 0 std::__ndk1::map<int, SObject, std::__ndk1::less<int>, std::__ndk1::allocator<std::__ndk1::pair<int const, SObject> > >::~map[abi:ne180000]()
FUNC 1b750 7d8 0 __cxx_global_var_init.261
FUNC 1bf28 1c 0 geode::modifier::ModifyBase<geode::modifier::ModifyDerive<MyEditorUI, EditorUI> >::~ModifyBase()
FUNC 1bf44 10 0 std::__ndk1::basic_string<char, std::__ndk1::char_traits<char>, std::__ndk1::allocator<char> >::__throw_length_error[abi:ne180000]() const
FUNC 1bf54 38 0 std::__ndk1::__throw_length_error[abi:ne180000](char const*)
FUNC 1bf8c 18 0 std::length_error::length_error[abi:ne180000](char const*)
FUNC 1bfa4 28 0 std::__throw_bad_array_new_length([abi:ne180000], void)
PUBLIC 1bfcd 0 __clang_call_terminate
FUNC 1bfd8 4e 0 std::__ndk1::__exception_guard_exceptions<std::__ndk1::vector<std::__ndk1::basic_string<char, std::__ndk1::char_traits<char>, std::__ndk1::allocator<char> >, std::__ndk1::allocator<std::__ndk1::basic_string<char, std::__ndk1::char_traits<char>, std::__ndk1::allocator<char> > > >::__destroy_vector>::~__exception_guard_exceptions[abi:ne180000]()
FUNC 1c028 10 0 std::__ndk1::vector<std::__ndk1::basic_string<char, std::__ndk1::char_traits<char>, std::__ndk1::allocator<char> >, std::__ndk1::allocator<std::__ndk1::basic_string<char, std::__ndk1::char_traits<char>, std::__ndk1::allocator<char> > > >::__throw_length_error[abi:ne180000]() const
FUNC 1c038 3a 0 std::__ndk1::__exception_guard_exceptions<std::__ndk1::_AllocatorDestroyRangeReverse<std::__ndk1::allocator<std::__ndk1::basic_string<char, std::__ndk1::char_traits<char>, std::__ndk1::allocator<char> > >, std::__ndk1::basic_string<char, std::__ndk1::char_traits<char>, std::__ndk1::allocator<char> >*> >::~__exception_guard_exceptions[abi:ne180000]()
FUNC 1c072 46 0 std::__ndk1::basic_string<char, std::__ndk1::char_traits<char>, std::__ndk1::allocator<char> >::__init_copy_ctor_external(char const*, unsigned int)
FUNC 1c0b8 1a8 0 TriggerCategory::setCategory(std::__ndk1::basic_string<char, std::__ndk1::char_traits<char>, std::__ndk1::allocator<char> > const&)
FUNC 1c260 48 0 std::__ndk1::operator==[abi:ne180000]<char, std::__ndk1::char_traits<char>, std::__ndk1::allocator<char> >(std::__ndk1::basic_string<char, std::__ndk1::char_traits<char>, std::__ndk1::allocator<char> > const&, std::__ndk1::basic_string const*)
FUNC 1c2a8 10 0 std::__ndk1::vector<TriggerCategory, std::__ndk1::allocator<TriggerCategory> >::__throw_length_error[abi:ne180000]() const
FUNC 1c2b8 184 0 SObject::SObject(SObject const&)
FUNC 1c43c 26 0 std::__ndk1::unique_ptr<std::__ndk1::__tree_node<std::__ndk1::__value_type<int, SObject>, void*>, std::__ndk1::__tree_node_destructor<std::__ndk1::allocator<std::__ndk1::__tree_node<std::__ndk1::__value_type<int, SObject>, void*> > > >::~unique_ptr[abi:ne180000]()
FUNC 1c462 14a 0 std::__ndk1::__tree_balance_after_insert[abi:ne180000]<std::__ndk1::__tree_node_base<void*>*>(std::__ndk1::__tree_node_base<void*>*, std::__ndk1::__tree_node_base<void*>*)
FUNC 1c5ac 5c 0 _ZNSt6__ndk112__destroy_atB8ne180000INS_4pairIKi7SObjectEETnNS_9enable_ifIXntsr8is_arrayIT_EE5valueEiE4typeELi0EEEvPS6_
FUNC 1c608 2c 0 std::__ndk1::__tree<std::__ndk1::__value_type<int, SObject>, std::__ndk1::__map_value_compare<int, std::__ndk1::__value_type<int, SObject>, std::__ndk1::less<int>, true>, std::__ndk1::allocator<std::__ndk1::__value_type<int, SObject> > >::destroy(std::__ndk1::__tree_node<std::__ndk1::__value_type<int, SObject>, void*>*)
FUNC 1c640 390 0 geode::modifier::ModifyDerive<MyEditorUI, EditorUI>::apply()
FUNC 1c9d0 3a 0 std::__ndk1::shared_ptr<geode::Hook>::~shared_ptr[abi:ne180000]()
FUNC 1ca0c 60 0 geode::impl::ResultData<geode::Hook*, std::__ndk1::basic_string<char, std::__ndk1::char_traits<char>, std::__ndk1::allocator<char> > >::~ResultData()
FUNC 1ca6c 2 0 geode::modifier::ModifyBase<geode::modifier::ModifyDerive<MyEditorUI, EditorUI> >::apply()
FUNC 1ca70 f8 0 _ZN5geode15UnwrapExceptionC2IRPNS_4HookEQsr4implE18IsStringStreamableIT_EEENS_4impl5OkTagEOS5_
FUNC 1cb68 34 0 std::__ndk1::__throw_bad_variant_access[abi:ne180000]()
FUNC 1cb9c d8 0 std::__ndk1::basic_stringstream<char, std::__ndk1::char_traits<char>, std::__ndk1::allocator<char> >::basic_stringstream[abi:ne180000]()
FUNC 1cc74 68 0 std::__ndk1::basic_stringstream<char, std::__ndk1::char_traits<char>, std::__ndk1::allocator<char> >::~basic_stringstream()
FUNC 1ccdc 10 0 geode::UnwrapException::~UnwrapException()
FUNC 1ccec 108 0 std::__ndk1::__put_character_sequence[abi:ne180000]<char, std::__ndk1::char_traits<char> >(std::__ndk1::basic_ostream<char, std::__ndk1::char_traits<char> >, std::__ndk1::basic_ostream const*, unsigned int)
FUNC 1cdf4 110 0 std::__ndk1::__pad_and_output[abi:ne180000]<char, std::__ndk1::char_traits<char> >(std::__ndk1::char_traits<char>, std::__ndk1::ostreambuf_iterator const*, std::__ndk1::ostreambuf_iterator const, std::__ndk1::ostreambuf_iterator const, std::__ndk1::ios_base&, std::__ndk1::ostreambuf_iterator)
FUNC 1cf04 ce 0 std::__ndk1::basic_stringbuf<char, std::__ndk1::char_traits<char>, std::__ndk1::allocator<char> >::str[abi:ne180000]() &&
FUNC 1cfd2 e0 0 std::__ndk1::basic_stringbuf<char, std::__ndk1::char_traits<char>, std::__ndk1::allocator<char> >::__init_buf_ptrs[abi:ne180000]()
FUNC 1d0b2 3c 0 std::__ndk1::__split_buffer<std::__ndk1::basic_string<char, std::__ndk1::char_traits<char>, std::__ndk1::allocator<char> >, std::__ndk1::allocator<std::__ndk1::basic_string<char, std::__ndk1::char_traits<char>, std::__ndk1::allocator<char> > >&>::~__split_buffer()
FUNC 1d0ee 2 0 std::__ndk1::__variant_detail::__visitation::__base::__dispatcher<(unsigned int)0>::__dispatch[abi:ne180000]<std::__ndk1::__variant_detail::__dtor<std::__ndk1::__variant_detail::__traits<geode::Hook*, std::__ndk1::basic_string<char, std::__ndk1::char_traits<char>, std::__ndk1::allocator<char> > >, (std::__ndk1::__variant_detail::_Trait)1>::__destroy[abi:ne180000]()::{lambda(auto:1&)#1}, std::__ndk1::__variant_detail::__base<(std::__ndk1::__variant_detail::__traits<geode::Hook*, std::__ndk1::basic_string<char, std::__ndk1::char_traits<char>, std::__ndk1::allocator<char> > >)1, geode::Hook, std::__ndk1::allocator<char> >&>(std::__ndk1::__variant_detail::__dtor<std::__ndk1::__variant_detail::__traits<geode::Hook*, std::__ndk1::basic_string<char, std::__ndk1::char_traits<char>, std::__ndk1::allocator<char> > >, (std::__ndk1::__variant_detail::_Trait)1>, std::__ndk1::__variant_detail::__base<(std::__ndk1::__variant_detail::__traits<geode::Hook*, std::__ndk1::basic_string<char, std::__ndk1::char_traits<char>, std::__ndk1::allocator<char> > >)1, geode::Hook, std::__ndk1::allocator<char> >&)
FUNC 1d0f0 e 0 std::__ndk1::__variant_detail::__visitation::__base::__dispatcher<(unsigned int)1>::__dispatch[abi:ne180000]<std::__ndk1::__variant_detail::__dtor<std::__ndk1::__variant_detail::__traits<geode::Hook*, std::__ndk1::basic_string<char, std::__ndk1::char_traits<char>, std::__ndk1::allocator<char> > >, (std::__ndk1::__variant_detail::_Trait)1>::__destroy[abi:ne180000]()::{lambda(auto:1&)#1}, std::__ndk1::__variant_detail::__base<(std::__ndk1::__variant_detail::__traits<geode::Hook*, std::__ndk1::basic_string<char, std::__ndk1::char_traits<char>, std::__ndk1::allocator<char> > >)1, geode::Hook, std::__ndk1::allocator<char> >&>(std::__ndk1::__variant_detail::__dtor<std::__ndk1::__variant_detail::__traits<geode::Hook*, std::__ndk1::basic_string<char, std::__ndk1::char_traits<char>, std::__ndk1::allocator<char> > >, (std::__ndk1::__variant_detail::_Trait)1>, std::__ndk1::__variant_detail::__base<(std::__ndk1::__variant_detail::__traits<geode::Hook*, std::__ndk1::basic_string<char, std::__ndk1::char_traits<char>, std::__ndk1::allocator<char> > >)1, geode::Hook, std::__ndk1::allocator<char> >&)
FUNC 1d0fe 5a 0 std::__ndk1::__tree<std::__ndk1::__value_type<std::__ndk1::basic_string<char, std::__ndk1::char_traits<char>, std::__ndk1::allocator<char> >, std::__ndk1::shared_ptr<geode::Hook> >, std::__ndk1::__map_value_compare<std::__ndk1::basic_string<char, std::__ndk1::char_traits<char>, std::__ndk1::allocator<char> >, std::__ndk1::__value_type<std::__ndk1::basic_string<char, std::__ndk1::char_traits<char>, std::__ndk1::allocator<char> >, std::__ndk1::shared_ptr<geode::Hook> >, std::__ndk1::less<std::__ndk1::basic_string<char, std::__ndk1::char_traits<char>, std::__ndk1::allocator<char> > >, true>, std::__ndk1::allocator<std::__ndk1::__value_type<std::__ndk1::basic_string<char, std::__ndk1::char_traits<char>, std::__ndk1::allocator<char> >, std::__ndk1::shared_ptr<geode::Hook> > > >::destroy(std::__ndk1::__tree_node<std::__ndk1::__value_type<std::__ndk1::basic_string<char, std::__ndk1::char_traits<char>, std::__ndk1::allocator<char> >, std::__ndk1::shared_ptr<geode::Hook> >, void*>*)
FUNC 1d158 548 0 geode::modifier::AsStaticFunction_init<MyEditorUI, bool (MyEditorUI::*)(LevelEditorLayer*)>::Impl<bool (MyEditorUI::*)(LevelEditorLayer*)>::function(MyEditorUI*, LevelEditorLayer*)
FUNC 1d6a0 3a 0 std::__ndk1::shared_ptr<tulip::hook::CallingConvention>::~shared_ptr[abi:ne180000]()
FUNC 1d6da 46 0 tulip::hook::HandlerMetadata::~HandlerMetadata()
FUNC 1d720 118 0 MyEditorUI::loadSearchTab(EditorUI*, CCMenuItemToggler*)
FUNC 1d838 4dc 0 geode::modifier::FieldIntermediate<MyEditorUI, EditorUI>::self()
FUNC 1dd14 e 0 geode::modifier::FieldIntermediate<MyEditorUI, EditorUI>::fieldDestructor(void*)
FUNC 1dd24 10 0 std::__ndk1::vector<void*, std::__ndk1::allocator<void*> >::__throw_length_error[abi:ne180000]() const
FUNC 1dd34 10 0 std::__ndk1::vector<std::__ndk1::function<void (void*)>, std::__ndk1::allocator<std::__ndk1::function<void (void*)> > >::__throw_length_error[abi:ne180000]() const
FUNC 1dd44 8 0 std::__ndk1::vector<void*, std::__ndk1::allocator<void*> >::__throw_out_of_range[abi:ne180000]() const
FUNC 1dd4c 3c 0 std::__ndk1::__throw_out_of_range[abi:ne180000](char const*)
FUNC 1dd88 18 0 std::out_of_range::out_of_range[abi:ne180000](char const*)
FUNC 1dda0 8 0 std::__ndk1::vector<std::__ndk1::function<void (void*)>, std::__ndk1::allocator<std::__ndk1::function<void (void*)> > >::__throw_out_of_range[abi:ne180000]() const
FUNC 1dda8 2 0 std::__ndk1::__function::__base<void (void*)>::~__base()
FUNC 1ddaa 4 0 std::__ndk1::__function::__func<void (*)(void*), std::__ndk1::allocator<void (*)(void*)>, void (void*)>::~__func()
FUNC 1ddb0 20 0 std::__ndk1::__function::__func<void (*)(void*), std::__ndk1::allocator<void (*)(void*)>, void (void*)>::__clone() const
FUNC 1ddd0 14 0 std::__ndk1::__function::__func<void (*)(void*), std::__ndk1::allocator<void (*)(void*)>, void (void*)>::__clone(std::__ndk1::__function::__base<void (void*)>*) const
FUNC 1dde4 2 0 std::__ndk1::__function::__func<void (*)(void*), std::__ndk1::allocator<void (*)(void*)>, void (void*)>::destroy()
FUNC 1dde6 4 0 std::__ndk1::__function::__func<void (*)(void*), std::__ndk1::allocator<void (*)(void*)>, void (void*)>::destroy_deallocate()
FUNC 1ddea 8 0 std::__ndk1::__function::__func<void (*)(void*), std::__ndk1::allocator<void (*)(void*)>, void (void*)>::operator()(void*&&)
FUNC 1ddf4 18 0 std::__ndk1::__function::__func<void (*)(void*), std::__ndk1::allocator<void (*)(void*)>, void (void*)>::target(std::type_info const&) const
FUNC 1de0c c 0 std::__ndk1::__function::__func<void (*)(void*), std::__ndk1::allocator<void (*)(void*)>, void (void*)>::target_type() const
FUNC 1de18 4 0 cocos2d::CCCopying::copyWithZone(cocos2d::CCZone*)
FUNC 1de1c 10 0 SObjectList::~SObjectList()
FUNC 1de2c 1b4 0 SObjectList::init()
FUNC 1dfe0 2 0 std::__ndk1::__function::__base<void (std::__ndk1::basic_string<char, std::__ndk1::char_traits<char>, std::__ndk1::allocator<char> > const&)>::~__base()
FUNC 1dfe2 4 0 std::__ndk1::__function::__func<MyEditorUI::init(LevelEditorLayer*)::{lambda(auto:1)#1}, std::__ndk1::allocator<MyEditorUI::init(LevelEditorLayer*)::{lambda(auto:1)#1}>, void (std::__ndk1::basic_string<char, std::__ndk1::char_traits<char>, std::__ndk1::allocator<char> > const&)>::~__func()
FUNC 1dfe8 28 0 std::__ndk1::__function::__func<MyEditorUI::init(LevelEditorLayer*)::{lambda(auto:1)#1}, std::__ndk1::allocator<MyEditorUI::init(LevelEditorLayer*)::{lambda(auto:1)#1}>, void (std::__ndk1::basic_string<char, std::__ndk1::char_traits<char>, std::__ndk1::allocator<char> > const&)>::__clone() const
FUNC 1e010 1c 0 std::__ndk1::__function::__func<MyEditorUI::init(LevelEditorLayer*)::{lambda(auto:1)#1}, std::__ndk1::allocator<MyEditorUI::init(LevelEditorLayer*)::{lambda(auto:1)#1}>, void (std::__ndk1::basic_string<char, std::__ndk1::char_traits<char>, std::__ndk1::allocator<char> > const&)>::__clone(std::__ndk1::__function::__base<void (std::__ndk1::basic_string<char, std::__ndk1::char_traits<char>, std::__ndk1::allocator<char> > const&)>*) const
FUNC 1e02c 2 0 std::__ndk1::__function::__func<MyEditorUI::init(LevelEditorLayer*)::{lambda(auto:1)#1}, std::__ndk1::allocator<MyEditorUI::init(LevelEditorLayer*)::{lambda(auto:1)#1}>, void (std::__ndk1::basic_string<char, std::__ndk1::char_traits<char>, std::__ndk1::allocator<char> > const&)>::destroy()
FUNC 1e02e 4 0 std::__ndk1::__function::__func<MyEditorUI::init(LevelEditorLayer*)::{lambda(auto:1)#1}, std::__ndk1::allocator<MyEditorUI::init(LevelEditorLayer*)::{lambda(auto:1)#1}>, void (std::__ndk1::basic_string<char, std::__ndk1::char_traits<char>, std::__ndk1::allocator<char> > const&)>::destroy_deallocate()
FUNC 1e038 16e4 0 std::__ndk1::__function::__func<MyEditorUI::init(LevelEditorLayer*)::{lambda(auto:1)#1}, std::__ndk1::allocator<MyEditorUI::init(LevelEditorLayer*)::{lambda(auto:1)#1}>, void (std::__ndk1::basic_string<char, std::__ndk1::char_traits<char>, std::__ndk1::allocator<char> > const&)>::operator()(std::__ndk1::basic_string<char, std::__ndk1::char_traits<char>, std::__ndk1::allocator<char> > const&)
FUNC 1f71c 18 0 std::__ndk1::__function::__func<MyEditorUI::init(LevelEditorLayer*)::{lambda(auto:1)#1}, std::__ndk1::allocator<MyEditorUI::init(LevelEditorLayer*)::{lambda(auto:1)#1}>, void (std::__ndk1::basic_string<char, std::__ndk1::char_traits<char>, std::__ndk1::allocator<char> > const&)>::target(std::type_info const&) const
FUNC 1f734 c 0 std::__ndk1::__function::__func<MyEditorUI::init(LevelEditorLayer*)::{lambda(auto:1)#1}, std::__ndk1::allocator<MyEditorUI::init(LevelEditorLayer*)::{lambda(auto:1)#1}>, void (std::__ndk1::basic_string<char, std::__ndk1::char_traits<char>, std::__ndk1::allocator<char> > const&)>::target_type() const
FUNC 1f740 66 0 std::__ndk1::basic_string<char, std::__ndk1::char_traits<char>, std::__ndk1::allocator<char> >::__assign_no_alias<true>(char const*, unsigned int)
FUNC 1f7a6 a6 0 std::__ndk1::basic_string<char, std::__ndk1::char_traits<char>, std::__ndk1::allocator<char> >::__assign_no_alias<false>(char const*, unsigned int)
FUNC 1f84c ac 0 SObjectCell::~SObjectCell()
FUNC 1f8f8 10 0 SObjectCell::~SObjectCell()
FUNC 1f908 90 0 SObjectCell::update(float)
FUNC 1f998 d0 0 SObjectCell::onCopy(cocos2d::CCObject*)
FUNC 1fa68 88 0 geode::cast::traverseTypeinfoFor(void*, geode::cast::ClassTypeinfoType const*, char const*)
FUNC 1faf0 10 0 std::__ndk1::vector<cocos2d::CCSprite*, std::__ndk1::allocator<cocos2d::CCSprite*> >::__throw_length_error[abi:ne180000]() const
FUNC 1fb00 10 0 std::__ndk1::vector<cocos2d::_ccColor3B, std::__ndk1::allocator<cocos2d::_ccColor3B> >::__throw_length_error[abi:ne180000]() const
FUNC 1fb10 10 0 std::__ndk1::vector<TextGradient::GradStep, std::__ndk1::allocator<TextGradient::GradStep> >::__throw_length_error[abi:ne180000]() const
FUNC 1fb20 270 0 SObjectCell::setupTriggerSprite(float)
FUNC 1fd90 16 0 geode::cocos::CCArrayExt<cocos2d::CCNode*>::~CCArrayExt()
FUNC 1fda6 2 0 std::__ndk1::__function::__base<cocos2d::CCNode* (EditorUI*, CCMenuItemToggler*)>::~__base()
FUNC 1fda8 4 0 std::__ndk1::__function::__func<std::__ndk1::__bind<cocos2d::CCNode* (MyEditorUI::*)(EditorUI*, CCMenuItemToggler*), MyEditorUI*, std::__ndk1::placeholders::__ph<1> const&, std::__ndk1::placeholders::__ph<2> const&>, std::__ndk1::allocator<std::__ndk1::__bind<cocos2d::CCNode* (MyEditorUI::*)(EditorUI*, CCMenuItemToggler*), MyEditorUI*, std::__ndk1::placeholders::__ph<1> const&, std::__ndk1::placeholders::__ph<2> const&> >, cocos2d::CCNode* (EditorUI*, CCMenuItemToggler*)>::~__func()
FUNC 1fdac 28 0 std::__ndk1::__function::__func<std::__ndk1::__bind<cocos2d::CCNode* (MyEditorUI::*)(EditorUI*, CCMenuItemToggler*), MyEditorUI*, std::__ndk1::placeholders::__ph<1> const&, std::__ndk1::placeholders::__ph<2> const&>, std::__ndk1::allocator<std::__ndk1::__bind<cocos2d::CCNode* (MyEditorUI::*)(EditorUI*, CCMenuItemToggler*), MyEditorUI*, std::__ndk1::placeholders::__ph<1> const&, std::__ndk1::placeholders::__ph<2> const&> >, cocos2d::CCNode* (EditorUI*, CCMenuItemToggler*)>::__clone() const
FUNC 1fdd4 1c 0 std::__ndk1::__function::__func<std::__ndk1::__bind<cocos2d::CCNode* (MyEditorUI::*)(EditorUI*, CCMenuItemToggler*), MyEditorUI*, std::__ndk1::placeholders::__ph<1> const&, std::__ndk1::placeholders::__ph<2> const&>, std::__ndk1::allocator<std::__ndk1::__bind<cocos2d::CCNode* (MyEditorUI::*)(EditorUI*, CCMenuItemToggler*), MyEditorUI*, std::__ndk1::placeholders::__ph<1> const&, std::__ndk1::placeholders::__ph<2> const&> >, cocos2d::CCNode* (EditorUI*, CCMenuItemToggler*)>::__clone(std::__ndk1::__function::__base<cocos2d::CCNode* (EditorUI*, CCMenuItemToggler*)>*) const
FUNC 1fdf0 2 0 std::__ndk1::__function::__func<std::__ndk1::__bind<cocos2d::CCNode* (MyEditorUI::*)(EditorUI*, CCMenuItemToggler*), MyEditorUI*, std::__ndk1::placeholders::__ph<1> const&, std::__ndk1::placeholders::__ph<2> const&>, std::__ndk1::allocator<std::__ndk1::__bind<cocos2d::CCNode* (MyEditorUI::*)(EditorUI*, CCMenuItemToggler*), MyEditorUI*, std::__ndk1::placeholders::__ph<1> const&, std::__ndk1::placeholders::__ph<2> const&> >, cocos2d::CCNode* (EditorUI*, CCMenuItemToggler*)>::destroy()
FUNC 1fdf2 4 0 std::__ndk1::__function::__func<std::__ndk1::__bind<cocos2d::CCNode* (MyEditorUI::*)(EditorUI*, CCMenuItemToggler*), MyEditorUI*, std::__ndk1::placeholders::__ph<1> const&, std::__ndk1::placeholders::__ph<2> const&>, std::__ndk1::allocator<std::__ndk1::__bind<cocos2d::CCNode* (MyEditorUI::*)(EditorUI*, CCMenuItemToggler*), MyEditorUI*, std::__ndk1::placeholders::__ph<1> const&, std::__ndk1::placeholders::__ph<2> const&> >, cocos2d::CCNode* (EditorUI*, CCMenuItemToggler*)>::destroy_deallocate()
FUNC 1fdf6 1a 0 std::__ndk1::__function::__func<std::__ndk1::__bind<cocos2d::CCNode* (MyEditorUI::*)(EditorUI*, CCMenuItemToggler*), MyEditorUI*, std::__ndk1::placeholders::__ph<1> const&, std::__ndk1::placeholders::__ph<2> const&>, std::__ndk1::allocator<std::__ndk1::__bind<cocos2d::CCNode* (MyEditorUI::*)(EditorUI*, CCMenuItemToggler*), MyEditorUI*, std::__ndk1::placeholders::__ph<1> const&, std::__ndk1::placeholders::__ph<2> const&> >, cocos2d::CCNode* (EditorUI*, CCMenuItemToggler*)>::operator()(EditorUI*&&, CCMenuItemToggler*&&)
FUNC 1fe10 18 0 std::__ndk1::__function::__func<std::__ndk1::__bind<cocos2d::CCNode* (MyEditorUI::*)(EditorUI*, CCMenuItemToggler*), MyEditorUI*, std::__ndk1::placeholders::__ph<1> const&, std::__ndk1::placeholders::__ph<2> const&>, std::__ndk1::allocator<std::__ndk1::__bind<cocos2d::CCNode* (MyEditorUI::*)(EditorUI*, CCMenuItemToggler*), MyEditorUI*, std::__ndk1::placeholders::__ph<1> const&, std::__ndk1::placeholders::__ph<2> const&> >, cocos2d::CCNode* (EditorUI*, CCMenuItemToggler*)>::target(std::type_info const&) const
FUNC 1fe28 c 0 std::__ndk1::__function::__func<std::__ndk1::__bind<cocos2d::CCNode* (MyEditorUI::*)(EditorUI*, CCMenuItemToggler*), MyEditorUI*, std::__ndk1::placeholders::__ph<1> const&, std::__ndk1::placeholders::__ph<2> const&>, std::__ndk1::allocator<std::__ndk1::__bind<cocos2d::CCNode* (MyEditorUI::*)(EditorUI*, CCMenuItemToggler*), MyEditorUI*, std::__ndk1::placeholders::__ph<1> const&, std::__ndk1::placeholders::__ph<2> const&> >, cocos2d::CCNode* (EditorUI*, CCMenuItemToggler*)>::target_type() const
FUNC 1fe34 20 0 geodeImplicitEntry
FUNC 1fe54 28 0 std::__ndk1::unordered_map<void*, bool, std::__ndk1::hash<void*>, std::__ndk1::equal_to<void*>, std::__ndk1::allocator<std::__ndk1::pair<void* const, bool> > >::~unordered_map[abi:ne180000]()
FUNC 1fe7c cc 0 wrapFunction(unsigned int, tulip::hook::WrapperMetadata const&)
FUNC 1ff48 48 0 geode::impl::ResultData<void*, std::__ndk1::basic_string<char, std::__ndk1::char_traits<char>, std::__ndk1::allocator<char> > >::unwrapErr() &
FUNC 1ff90 60 0 geode::impl::ResultData<void*, std::__ndk1::basic_string<char, std::__ndk1::char_traits<char>, std::__ndk1::allocator<char> > >::~ResultData()
FUNC 1fff0 46 0 tulip::hook::WrapperMetadata::~WrapperMetadata()
FUNC 20036 10 0 cocos2d::CCObject::~CCObject()
FUNC 20048 1c0 0 cocos2d::CCNode::CCNode()
FUNC 20208 10 0 cocos2d::CCNode::~CCNode()
FUNC 20218 2 0 cocos2d::CCObject::update(float)
FUNC 2021c 22c 0 cocos2d::CCNode::~CCNode()
FUNC 20448 42c 0 cocos2d::CCObject::~CCObject()
FUNC 20874 f8 0 _ZN5geode15UnwrapExceptionC2IRPvQsr4implE18IsStringStreamableIT_EEENS_4impl5OkTagEOS4_
FUNC 2096c 104 0 _ZN5geode15UnwrapExceptionC2IRNSt6__ndk112basic_stringIcNS2_11char_traitsIcEENS2_9allocatorIcEEEEQsr4implE18IsStringStreamableIT_EEENS_4impl6ErrTagEOSA_
FUNC 20a70 2 0 std::__ndk1::__variant_detail::__visitation::__base::__dispatcher<(unsigned int)0>::__dispatch[abi:ne180000]<std::__ndk1::__variant_detail::__dtor<std::__ndk1::__variant_detail::__traits<void*, std::__ndk1::basic_string<char, std::__ndk1::char_traits<char>, std::__ndk1::allocator<char> > >, (std::__ndk1::__variant_detail::_Trait)1>::__destroy[abi:ne180000]()::{lambda(auto:1&)#1}, std::__ndk1::__variant_detail::__base<(std::__ndk1::__variant_detail::__traits<void*, std::__ndk1::basic_string<char, std::__ndk1::char_traits<char>, std::__ndk1::allocator<char> > >)1, std::__ndk1::__variant_detail::__traits, std::__ndk1::allocator<char> >&>(std::__ndk1::__variant_detail::__dtor<std::__ndk1::__variant_detail::__traits<void*, std::__ndk1::basic_string<char, std::__ndk1::char_traits<char>, std::__ndk1::allocator<char> > >, (std::__ndk1::__variant_detail::_Trait)1>, std::__ndk1::__variant_detail::__base<(std::__ndk1::__variant_detail::__traits<void*, std::__ndk1::basic_string<char, std::__ndk1::char_traits<char>, std::__ndk1::allocator<char> > >)1, std::__ndk1::__variant_detail::__traits, std::__ndk1::allocator<char> >&)
FUNC 20a72 e 0 std::__ndk1::__variant_detail::__visitation::__base::__dispatcher<(unsigned int)1>::__dispatch[abi:ne180000]<std::__ndk1::__variant_detail::__dtor<std::__ndk1::__variant_detail::__traits<void*, std::__ndk1::basic_string<char, std::__ndk1::char_traits<char>, std::__ndk1::allocator<char> > >, (std::__ndk1::__variant_detail::_Trait)1>::__destroy[abi:ne180000]()::{lambda(auto:1&)#1}, std::__ndk1::__variant_detail::__base<(std::__ndk1::__variant_detail::__traits<void*, std::__ndk1::basic_string<char, std::__ndk1::char_traits<char>, std::__ndk1::allocator<char> > >)1, std::__ndk1::__variant_detail::__traits, std::__ndk1::allocator<char> >&>(std::__ndk1::__variant_detail::__dtor<std::__ndk1::__variant_detail::__traits<void*, std::__ndk1::basic_string<char, std::__ndk1::char_traits<char>, std::__ndk1::allocator<char> > >, (std::__ndk1::__variant_detail::_Trait)1>, std::__ndk1::__variant_detail::__base<(std::__ndk1::__variant_detail::__traits<void*, std::__ndk1::basic_string<char, std::__ndk1::char_traits<char>, std::__ndk1::allocator<char> > >)1, std::__ndk1::__variant_detail::__traits, std::__ndk1::allocator<char> >&)
FUNC 20a80 3ea 0 std::__ndk1::__hash_table<std::__ndk1::__hash_value_type<void*, bool>, std::__ndk1::__unordered_map_hasher<void*, std::__ndk1::__hash_value_type<void*, bool>, std::__ndk1::hash<void*>, std::__ndk1::equal_to<void*>, true>, std::__ndk1::__unordered_map_equal<void*, std::__ndk1::__hash_value_type<void*, bool>, std::__ndk1::equal_to<void*>, std::__ndk1::hash<void*>, true>, std::__ndk1::allocator<std::__ndk1::__hash_value_type<void*, bool> > >::__emplace_unique_key_args<void*, std::__ndk1::piecewise_construct_t const&, std::__ndk1::tuple<void* const&>, std::__ndk1::tuple<> >(void* const&, std::__ndk1::piecewise_construct_t const&, std::__ndk1::tuple<void* const&>, std::__ndk1::tuple<>)
FUNC 20e6c 1cc 0 fmt::v11::detail::write_loc(fmt::v11::basic_appender<char>, fmt::v11::loc_value, fmt::v11::format_specs const&, fmt::v11::detail::locale_ref)
FUNC 21038 44 0 fmt::v11::format_facet<std::__ndk1::locale>::~format_facet()
FUNC 2107c 38 0 fmt::v11::report_error(char const*)
FUNC 210b4 18 0 fmt::v11::format_error::runtime_error(char const*)
FUNC 210cc 420 0 fmt::v11::format_facet<std::__ndk1::locale>::do_put(fmt::v11::basic_appender<char>, fmt::v11::loc_value, fmt::v11::format_specs const&) const
FUNC 214ec 30 0 fmt::v11::detail::loc_writer<char>::~loc_writer()
FUNC 2151c c0 0 fmt::v11::vformat(fmt::v11::basic_string_view<char>, fmt::v11::basic_format_args<fmt::v11::context>)
FUNC 215dc 1ac 0 fmt::v11::detail::dragonbox::cache_accessor<double>::get_cached_power(int)
FUNC 21788 278 0 fmt::v11::detail::vformat_to<char>(fmt::v11::detail::buffer<char>&, fmt::v11::basic_string_view<char>, fmt::v11::detail::vformat_args<char>::type, fmt::v11::detail::locale_ref)
FUNC 21a00 228 0 fmt::v11::detail::is_printable(unsigned int)
FUNC 21c28 384 0 fmt::v11::detail::dragonbox::to_decimal<float>(float)
FUNC 21fac 880 0 fmt::v11::detail::dragonbox::to_decimal<double>(double)
FUNC 2282c 4c 0 fmt::v11::basic_memory_buffer<char, (unsigned int)500, std::__ndk1::allocator<char> >::grow(fmt::v11::detail::buffer<char>&, unsigned int)
FUNC 22878 48 0 fmt::v11::format_facet<std::__ndk1::locale>::~format_facet()
FUNC 228c0 10 0 fmt::v11::format_error::~format_error()
FUNC 228d0 9a 0 fmt::v11::detail::copy_noinline<char, char const*, fmt::v11::basic_appender<char> >(char const*, char const*, fmt::v11::basic_appender<char>)
FUNC 2296c 54 0 fmt::v11::detail::default_arg_formatter<char>::operator()<bool>(bool)
FUNC 229c0 34 0 fmt::v11::detail::default_arg_formatter<char>::operator()<char>(char)
FUNC 229f4 2c 0 fmt::v11::detail::default_arg_formatter<char>::operator()<char const*>(char const*)
FUNC 22a20 74 0 fmt::v11::detail::default_arg_formatter<char>::operator()<void const*>(void const*)
FUNC 22a94 1b0 0 _ZN3fmt3v116detail5writeIcNS0_14basic_appenderIcEEiTnNSt6__ndk19enable_ifIXaaaasr11is_integralIT1_EE5valuentsr3std7is_sameIS7_bEE5valuentsr3std7is_sameIS7_T_EE5valueEiE4typeELi0EEET0_SB_S7_
FUNC 22c44 9a 0 fmt::v11::detail::copy_noinline<char, char*, fmt::v11::basic_appender<char> >(char*, char*, fmt::v11::basic_appender<char>)
FUNC 22ce0 174 0 _ZN3fmt3v116detail5writeIcNS0_14basic_appenderIcEEjTnNSt6__ndk19enable_ifIXaaaasr11is_integralIT1_EE5valuentsr3std7is_sameIS7_bEE5valuentsr3std7is_sameIS7_T_EE5valueEiE4typeELi0EEET0_SB_S7_
FUNC 22e54 218 0 _ZN3fmt3v116detail5writeIcNS0_14basic_appenderIcEExTnNSt6__ndk19enable_ifIXaaaasr11is_integralIT1_EE5valuentsr3std7is_sameIS7_bEE5valuentsr3std7is_sameIS7_T_EE5valueEiE4typeELi0EEET0_SB_S7_
FUNC 2306c 1dc 0 _ZN3fmt3v116detail5writeIcNS0_14basic_appenderIcEEyTnNSt6__ndk19enable_ifIXaaaasr11is_integralIT1_EE5valuentsr3std7is_sameIS7_bEE5valuentsr3std7is_sameIS7_T_EE5valueEiE4typeELi0EEET0_SB_S7_
FUNC 23248 188 0 _ZN3fmt3v116detail5writeIcNS0_14basic_appenderIcEEbTnNSt6__ndk19enable_ifIXsr3std7is_sameIT1_bEE5valueEiE4typeELi0EEET0_SA_S7_RKNS0_12format_specsENS1_10locale_refE
FUNC 233d0 9f8 0 fmt::v11::detail::write_int_noinline<char, fmt::v11::basic_appender<char>, unsigned int>(fmt::v11::basic_appender<char>, fmt::v11::detail::write_int_arg<unsigned int>, fmt::v11::format_specs const&, fmt::v11::detail::locale_ref)
FUNC 23dc8 fa 0 fmt::v11::detail::fill<char, fmt::v11::basic_appender<char> >(fmt::v11::basic_appender<char>, unsigned int, fmt::v11::detail::fill_t const&)
FUNC 23ec4 184 0 fmt::v11::detail::write_padded<char, (fmt::v11::align::type)1, fmt::v11::basic_appender<char>, fmt::v11::detail::write_char<char, fmt::v11::basic_appender<char> >(fmt::v11::basic_appender<char>, char, fmt::v11::format_specs const&)::{lambda(fmt::v11::basic_appender<char>&)#1}>(fmt::v11::basic_appender<char>, fmt::v11::format_specs const&, unsigned int, unsigned int, fmt::v11::detail::write_char<char, fmt::v11::basic_appender<char> >(fmt::v11::basic_appender<char>, char, fmt::v11::format_specs const&)::{lambda(fmt::v11::basic_appender<char>&)#1})
FUNC 24048 214 0 fmt::v11::detail::write_escaped_cp<fmt::v11::basic_appender<char>, char>(fmt::v11::basic_appender<char>, fmt::v11::detail::find_escape_result<char> const&)
FUNC 2425c e0 0 fmt::v11::detail::write_codepoint<(unsigned int)2, char, fmt::v11::basic_appender<char> >(fmt::v11::basic_appender<char>, char, unsigned int)
FUNC 2433c e0 0 fmt::v11::detail::write_codepoint<(unsigned int)8, char, fmt::v11::basic_appender<char> >(fmt::v11::basic_appender<char>, char, unsigned int)
FUNC 24420 73c 0 _ZN3fmt3v116detail5writeIcNS0_14basic_appenderIcEEfTnNSt6__ndk19enable_ifIXsr13is_fast_floatIT1_EE5valueEiE4typeELi0EEET0_SA_S7_
FUNC 24b5c 140 0 fmt::v11::detail::write_padded<char, (fmt::v11::align::type)1, fmt::v11::basic_appender<char>, fmt::v11::detail::write_nonfinite<char, fmt::v11::basic_appender<char> >(fmt::v11::basic_appender<char>, bool, fmt::v11::format_specs, fmt::v11::sign::type)::{lambda(fmt::v11::basic_appender<char>&)#1}>(fmt::v11::basic_appender<char>, fmt::v11::format_specs const&, unsigned int, unsigned int, fmt::v11::detail::write_nonfinite<char, fmt::v11::basic_appender<char> >(fmt::v11::basic_appender<char>, bool, fmt::v11::format_specs, fmt::v11::sign::type)::{lambda(fmt::v11::basic_appender<char>&)#1})
FUNC 24c9c e0 0 fmt::v11::detail::do_write_float<char, fmt::v11::basic_appender<char>, fmt::v11::detail::dragonbox::decimal_fp<float>, fmt::v11::detail::digit_grouping<char> >(fmt::v11::basic_appender<char>, fmt::v11::detail::dragonbox::decimal_fp<float> const&, fmt::v11::format_specs const&, fmt::v11::detail::float_specs, fmt::v11::detail::locale_ref)::{lambda(fmt::v11::basic_appender<char>(fmt::v11::basic_appender<char>))#1}::operator() const
FUNC 24d7c 194 0 fmt::v11::detail::digit_grouping<char>::digit_grouping(fmt::v11::detail::locale_ref, bool)
FUNC 24f10 22 0 fmt::v11::detail::digit_grouping<char>::~digit_grouping()
FUNC 24f34 104 0 fmt::v11::detail::write_exponent<char, fmt::v11::basic_appender<char> >(int, fmt::v11::basic_appender<char>)
FUNC 25038 144 0 _ZN3fmt3v116detail17write_significandIcjTnNSt6__ndk19enable_ifIXsr3std11is_integralIT0_EE5valueEiE4typeELi0EEEPT_S9_S5_iiS8_
FUNC 2517c 21c 0 fmt::v11::detail::digit_grouping<char>::apply<fmt::v11::basic_appender<char>, char>(fmt::v11::basic_appender<char>, fmt::v11::basic_string_view<char>) const
FUNC 25398 6e 0 fmt::v11::basic_memory_buffer<int, (unsigned int)500, std::__ndk1::allocator<int> >::grow(fmt::v11::detail::buffer<int>&, unsigned int)
FUNC 25410 e4 0 _ZN3fmt3v116detail5writeIcNS0_14basic_appenderIcEEdTnNSt6__ndk19enable_ifIXsr13is_fast_floatIT1_EE5valueEiE4typeELi0EEET0_SA_S7_
FUNC 254f4 9ac 0 fmt::v11::detail::do_write_float<char, fmt::v11::basic_appender<char>, fmt::v11::detail::dragonbox::decimal_fp<double>, fmt::v11::detail::digit_grouping<char> >(fmt::v11::basic_appender<char>, fmt::v11::detail::dragonbox::decimal_fp<double> const&, fmt::v11::format_specs const&, fmt::v11::detail::float_specs, fmt::v11::detail::locale_ref)
FUNC 25ea0 e8 0 fmt::v11::detail::do_write_float<char, fmt::v11::basic_appender<char>, fmt::v11::detail::dragonbox::decimal_fp<double>, fmt::v11::detail::digit_grouping<char> >(fmt::v11::basic_appender<char>, fmt::v11::detail::dragonbox::decimal_fp<double> const&, fmt::v11::format_specs const&, fmt::v11::detail::float_specs, fmt::v11::detail::locale_ref)::{lambda(fmt::v11::basic_appender<char>(fmt::v11::basic_appender<char>))#1}::operator() const
FUNC 25f88 19c 0 _ZN3fmt3v116detail17write_significandIcyTnNSt6__ndk19enable_ifIXsr3std11is_integralIT0_EE5valueEiE4typeELi0EEEPT_S9_S5_iiS8_
FUNC 26130 e4 0 _ZN3fmt3v116detail5writeIcNS0_14basic_appenderIcEEeTnNSt6__ndk19enable_ifIXsr13is_fast_floatIT1_EE5valueEiE4typeELi0EEET0_SA_S7_
FUNC 26214 150 0 fmt::v11::detail::write_padded<char, (fmt::v11::align::type)2, fmt::v11::basic_appender<char>, fmt::v11::detail::write_ptr<char, fmt::v11::basic_appender<char>, unsigned int>(fmt::v11::basic_appender<char>, unsigned int, fmt::v11::format_specs const*)::{lambda(fmt::v11::basic_appender<char>&)#1}>(fmt::v11::basic_appender<char>, fmt::v11::format_specs const&, unsigned int, unsigned int, fmt::v11::detail::write_ptr<char, fmt::v11::basic_appender<char>, unsigned int>(fmt::v11::basic_appender<char>, unsigned int, fmt::v11::format_specs const*)::{lambda(fmt::v11::basic_appender<char>&)#1})
FUNC 26368 1660 0 fmt::v11::detail::parse_replacement_field<char, fmt::v11::detail::vformat_to<char>(fmt::v11::detail::buffer<char>&, fmt::v11::basic_string_view<char>, fmt::v11::detail::vformat_args<char>::type, fmt::v11::detail::locale_ref)::format_handler&>(char const*, char const*, fmt::v11::detail::vformat_to<char>(fmt::v11::detail::buffer<char>&, fmt::v11::basic_string_view<char>, fmt::v11::detail::vformat_args<char>::type, fmt::v11::detail::locale_ref)::format_handler&)
FUNC 279c8 1cc 0 fmt::v11::detail::parse_dynamic_spec<char>(char const*, char const*, int&, fmt::v11::detail::arg_ref<char>&, fmt::v11::basic_format_parse_context<char>&)
FUNC 27b94 106 0 fmt::v11::basic_format_args<fmt::v11::context>::get<char>(fmt::v11::basic_string_view<char>) const
FUNC 27c9c b78 0 fmt::v11::detail::write_int_noinline<char, fmt::v11::basic_appender<char>, unsigned long long>(fmt::v11::basic_appender<char>, fmt::v11::detail::write_int_arg<unsigned long long>, fmt::v11::format_specs const&, fmt::v11::detail::locale_ref)
FUNC 28814 3a4 0 _ZN3fmt3v116detail15format_hexfloatIdTnNSt6__ndk19enable_ifIXntsr16is_double_doubleIT_EE5valueEiE4typeELi0EEEvS5_NS0_12format_specsERNS1_6bufferIcEE
FUNC 28bb8 ebc 0 fmt::v11::detail::format_float<double>(double, int, fmt::v11::detail::float_specs, fmt::v11::detail::buffer<char>&)
FUNC 29a74 10c 0 fmt::v11::detail::write_padded<char, (fmt::v11::align::type)2, fmt::v11::basic_appender<char>, fmt::v11::detail::write_bytes<char, (fmt::v11::align::type)2, fmt::v11::basic_appender<char> >(fmt::v11::basic_appender<char>, fmt::v11::basic_string_view<char>, fmt::v11::format_specs const&)::{lambda(fmt::v11::basic_appender<char>&)#1}>(fmt::v11::basic_appender<char>, fmt::v11::format_specs const&, unsigned int, unsigned int, fmt::v11::detail::write_bytes<char, (fmt::v11::align::type)2, fmt::v11::basic_appender<char> >(fmt::v11::basic_appender<char>, fmt::v11::basic_string_view<char>, fmt::v11::format_specs const&)::{lambda(fmt::v11::basic_appender<char>&)#1})
FUNC 29b80 c4 0 fmt::v11::detail::bigint::operator<<=(int)
FUNC 29c44 414 0 fmt::v11::detail::bigint::assign_pow10(int)
FUNC 2a058 276 0 fmt::v11::detail::bigint::divmod_assign(fmt::v11::detail::bigint const&)
FUNC 2a2ce 6e 0 fmt::v11::basic_memory_buffer<unsigned int, (unsigned int)32, std::__ndk1::allocator<unsigned int> >::grow(fmt::v11::detail::buffer<unsigned int>&, unsigned int)
FUNC 2a33c 994 0 fmt::v11::detail::do_write_float<char, fmt::v11::basic_appender<char>, fmt::v11::detail::big_decimal_fp, fmt::v11::detail::digit_grouping<char> >(fmt::v11::basic_appender<char>, fmt::v11::detail::big_decimal_fp const&, fmt::v11::format_specs const&, fmt::v11::detail::float_specs, fmt::v11::detail::locale_ref)
FUNC 2acd0 e0 0 fmt::v11::detail::do_write_float<char, fmt::v11::basic_appender<char>, fmt::v11::detail::big_decimal_fp, fmt::v11::detail::digit_grouping<char> >(fmt::v11::basic_appender<char>, fmt::v11::detail::big_decimal_fp const&, fmt::v11::format_specs const&, fmt::v11::detail::float_specs, fmt::v11::detail::locale_ref)::{lambda(fmt::v11::basic_appender<char>(fmt::v11::basic_appender<char>))#1}::operator() const
FUNC 2adb0 820 0 fmt::v11::detail::write<char, fmt::v11::basic_appender<char> >(fmt::v11::basic_appender<char>, fmt::v11::basic_string_view<char>, fmt::v11::format_specs const&)
FUNC 2b5d0 124 0 fmt::v11::detail::for_each_codepoint<fmt::v11::detail::find_escape(char const*, char const*)::{lambda(unsigned int, fmt::v11::basic_string_view<char>)#1}>(fmt::v11::basic_string_view<char>, fmt::v11::detail::find_escape(char const*, char const*)::{lambda(unsigned int, fmt::v11::basic_string_view<char>)#1})::{lambda(char const*, char const*)#1}::operator()(char const*, char const*) const
FUNC 2b700 1e4 0 fmt::v11::detail::for_each_codepoint<fmt::v11::detail::compute_width(fmt::v11::basic_string_view<char>)::count_code_points>(fmt::v11::basic_string_view<char>, fmt::v11::detail::compute_width(fmt::v11::basic_string_view<char>)::count_code_points)::{lambda(char const*, char const*)#1}::operator()(char const*, char const*) const
FUNC 2b8e4 544 0 fmt::v11::detail::write_int<fmt::v11::basic_appender<char>, unsigned long long, char>(fmt::v11::basic_appender<char>, unsigned long long, unsigned int, fmt::v11::format_specs const&, fmt::v11::detail::digit_grouping<char> const&)
PUBLIC 2be29 0 __ThumbV7PILongThunk___cxa_atexit
PUBLIC 2be35 0 __ThumbV7PILongThunk__ZdlPv
PUBLIC 2be41 0 __ThumbV7PILongThunk__ZNSt6__ndk16locale5facetD2Ev
PUBLIC 2be50 0 <.plt ELF section in dogotrigger.triggersearch.android32.so>
STACK CFI INIT a6d4 10ea2 .cfa: sp 0 +
STACK CFI a6d6 .cfa: sp 20 + .ra: .cfa -4 + ^ r7: .cfa -8 + ^ r6: .cfa -12 + ^ r5: .cfa -16 + ^ r4: .cfa -20 + ^
STACK CFI a6d8 .cfa: r7 8 +
STACK CFI a6dc r11: .cfa -24 + ^ r10: .cfa -28 + ^ r9: .cfa -32 + ^ r8: .cfa -36 + ^
STACK CFI INIT 1b57c d8 .cfa: sp 0 +
STACK CFI 1b57e .cfa: sp 20 + .ra: .cfa -4 + ^ r7: .cfa -8 + ^ r6: .cfa -12 + ^ r5: .cfa -16 + ^ r4: .cfa -20 + ^
STACK CFI 1b580 .cfa: r7 8 +
STACK CFI 1b584 r10: .cfa -24 + ^ r9: .cfa -28 + ^ r8: .cfa -32 + ^
STACK CFI INIT 1b654 56 .cfa: sp 0 +
STACK CFI 1b656 .cfa: sp 20 + .ra: .cfa -4 + ^ r7: .cfa -8 + ^ r6: .cfa -12 + ^ r5: .cfa -16 + ^ r4: .cfa -20 + ^
STACK CFI 1b658 .cfa: r7 8 +
STACK CFI 1b65c r11: .cfa -24 + ^
STACK CFI INIT 1b6aa 56 .cfa: sp 0 +
STACK CFI 1b6ac .cfa: sp 20 + .ra: .cfa -4 + ^ r7: .cfa -8 + ^ r6: .cfa -12 + ^ r5: .cfa -16 + ^ r4: .cfa -20 + ^
STACK CFI 1b6ae .cfa: r7 8 +
STACK CFI 1b6b2 r11: .cfa -24 + ^
STACK CFI INIT 1b700 3e .cfa: sp 0 +
STACK CFI 1b702 .cfa: sp 20 + .ra: .cfa -4 + ^ r7: .cfa -8 + ^ r6: .cfa -12 + ^ r5: .cfa -16 + ^ r4: .cfa -20 + ^
STACK CFI 1b704 .cfa: r7 8 +
STACK CFI 1b708 r11: .cfa -24 + ^
STACK CFI INIT 1b73e 10 .cfa: sp 0 +
STACK CFI 1b740 .cfa: sp 16 + .ra: .cfa -4 + ^ r7: .cfa -8 + ^ r6: .cfa -12 + ^ r4: .cfa -16 + ^
STACK CFI 1b742 .cfa: r7 8 +
STACK CFI INIT 1b750 7d8 .cfa: sp 0 +
STACK CFI 1b752 .cfa: sp 20 + .ra: .cfa -4 + ^ r7: .cfa -8 + ^ r6: .cfa -12 + ^ r5: .cfa -16 + ^ r4: .cfa -20 + ^
STACK CFI 1b754 .cfa: r7 8 +
STACK CFI 1b758 r11: .cfa -24 + ^ r10: .cfa -28 + ^ r9: .cfa -32 + ^ r8: .cfa -36 + ^
STACK CFI INIT 1bf28 1c .cfa: sp 0 +
STACK CFI 1bf2a .cfa: sp 16 + .ra: .cfa -4 + ^ r7: .cfa -8 + ^ r6: .cfa -12 + ^ r4: .cfa -16 + ^
STACK CFI 1bf2c .cfa: r7 8 +
STACK CFI INIT 1bf44 10 .cfa: sp 0 +
STACK CFI 1bf46 .cfa: sp 8 + .ra: .cfa -4 + ^ r7: .cfa -8 + ^
STACK CFI 1bf48 .cfa: r7 8 +
STACK CFI INIT 1bf54 38 .cfa: sp 0 +
STACK CFI 1bf56 .cfa: sp 16 + .ra: .cfa -4 + ^ r7: .cfa -8 + ^ r5: .cfa -12 + ^ r4: .cfa -16 + ^
STACK CFI 1bf58 .cfa: r7 8 +
STACK CFI INIT 1bf8c 18 .cfa: sp 0 +
STACK CFI 1bf8e .cfa: sp 8 + .ra: .cfa -4 + ^ r7: .cfa -8 + ^
STACK CFI 1bf90 .cfa: r7 8 +
STACK CFI INIT 1bfa4 28 .cfa: sp 0 +
STACK CFI 1bfa6 .cfa: sp 8 + .ra: .cfa -4 + ^ r7: .cfa -8 + ^
STACK CFI 1bfa8 .cfa: r7 8 +
STACK CFI INIT 1bfcc c .cfa: sp 0 +
STACK CFI 1bfce .cfa: sp 8 + .ra: .cfa -4 + ^ r7: .cfa -8 + ^
STACK CFI 1bfd0 .cfa: r7 8 +
STACK CFI INIT 1bfd8 4e .cfa: sp 0 +
STACK CFI 1bfda .cfa: sp 20 + .ra: .cfa -4 + ^ r7: .cfa -8 + ^ r6: .cfa -12 + ^ r5: .cfa -16 + ^ r4: .cfa -20 + ^
STACK CFI 1bfdc .cfa: r7 8 +
STACK CFI 1bfe0 r8: .cfa -24 + ^
STACK CFI INIT 1c028 10 .cfa: sp 0 +
STACK CFI 1c02a .cfa: sp 8 + .ra: .cfa -4 + ^ r7: .cfa -8 + ^
STACK CFI 1c02c .cfa: r7 8 +
STACK CFI INIT 1c038 3a .cfa: sp 0 +
STACK CFI 1c03a .cfa: sp 20 + .ra: .cfa -4 + ^ r7: .cfa -8 + ^ r6: .cfa -12 + ^ r5: .cfa -16 + ^ r4: .cfa -20 + ^
STACK CFI 1c03c .cfa: r7 8 +
STACK CFI 1c040 r11: .cfa -24 + ^
STACK CFI INIT 1c072 46 .cfa: sp 0 +
STACK CFI 1c074 .cfa: sp 20 + .ra: .cfa -4 + ^ r7: .cfa -8 + ^ r6: .cfa -12 + ^ r5: .cfa -16 + ^ r4: .cfa -20 + ^
STACK CFI 1c076 .cfa: r7 8 +
STACK CFI 1c07a r8: .cfa -24 + ^
STACK CFI INIT 1c0b8 1a8 .cfa: sp 0 +
STACK CFI 1c0ba .cfa: sp 20 + .ra: .cfa -4 + ^ r7: .cfa -8 + ^ r6: .cfa -12 + ^ r5: .cfa -16 + ^ r4: .cfa -20 + ^
STACK CFI 1c0bc .cfa: r7 8 +
STACK CFI 1c0c0 r10: .cfa -24 + ^ r9: .cfa -28 + ^ r8: .cfa -32 + ^
STACK CFI INIT 1c260 48 .cfa: sp 0 +
STACK CFI 1c262 .cfa: sp 20 + .ra: .cfa -4 + ^ r7: .cfa -8 + ^ r6: .cfa -12 + ^ r5: .cfa -16 + ^ r4: .cfa -20 + ^
STACK CFI 1c264 .cfa: r7 8 +
STACK CFI 1c268 r8: .cfa -24 + ^
STACK CFI INIT 1c2a8 10 .cfa: sp 0 +
STACK CFI 1c2aa .cfa: sp 8 + .ra: .cfa -4 + ^ r7: .cfa -8 + ^
STACK CFI 1c2ac .cfa: r7 8 +
STACK CFI INIT 1c2b8 184 .cfa: sp 0 +
STACK CFI 1c2ba .cfa: sp 20 + .ra: .cfa -4 + ^ r7: .cfa -8 + ^ r6: .cfa -12 + ^ r5: .cfa -16 + ^ r4: .cfa -20 + ^
STACK CFI 1c2bc .cfa: r7 8 +
STACK CFI 1c2c0 r11: .cfa -24 + ^ r10: .cfa -28 + ^ r9: .cfa -32 + ^ r8: .cfa -36 + ^
STACK CFI INIT 1c43c 26 .cfa: sp 0 +
STACK CFI 1c43e .cfa: sp 16 + .ra: .cfa -4 + ^ r7: .cfa -8 + ^ r5: .cfa -12 + ^ r4: .cfa -16 + ^
STACK CFI 1c440 .cfa: r7 8 +
STACK CFI INIT 1c462 14a .cfa: sp 0 +
STACK CFI 1c474 .cfa: sp 16 + .ra: .cfa -4 + ^ r7: .cfa -8 + ^ r6: .cfa -12 + ^ r4: .cfa -16 + ^
STACK CFI 1c476 .cfa: r7 8 +
STACK CFI INIT 1c5ac 5c .cfa: sp 0 +
STACK CFI 1c5ae .cfa: sp 20 + .ra: .cfa -4 + ^ r7: .cfa -8 + ^ r6: .cfa -12 + ^ r5: .cfa -16 + ^ r4: .cfa -20 + ^
STACK CFI 1c5b0 .cfa: r7 8 +
STACK CFI 1c5b4 r11: .cfa -24 + ^
STACK CFI INIT 1c608 2c .cfa: sp 0 +
STACK CFI 1c610 .cfa: sp 16 + .ra: .cfa -4 + ^ r7: .cfa -8 + ^ r6: .cfa -12 + ^ r4: .cfa -16 + ^
STACK CFI 1c612 .cfa: r7 8 +
STACK CFI INIT 1c640 390 .cfa: sp 0 +
STACK CFI 1c642 .cfa: sp 20 + .ra: .cfa -4 + ^ r7: .cfa -8 + ^ r6: .cfa -12 + ^ r5: .cfa -16 + ^ r4: .cfa -20 + ^
STACK CFI 1c644 .cfa: r7 8 +
STACK CFI 1c648 r10: .cfa -24 + ^ r9: .cfa -28 + ^ r8: .cfa -32 + ^
STACK CFI INIT 1c9d0 3a .cfa: sp 0 +
STACK CFI 1c9d2 .cfa: sp 16 + .ra: .cfa -4 + ^ r7: .cfa -8 + ^ r5: .cfa -12 + ^ r4: .cfa -16 + ^
STACK CFI 1c9d4 .cfa: r7 8 +
STACK CFI INIT 1ca0c 60 .cfa: sp 0 +
STACK CFI 1ca0e .cfa: sp 16 + .ra: .cfa -4 + ^ r7: .cfa -8 + ^ r6: .cfa -12 + ^ r4: .cfa -16 + ^
STACK CFI 1ca10 .cfa: r7 8 +
STACK CFI INIT 1ca6c 2 .cfa: sp 0 +
STACK CFI INIT 1ca70 f8 .cfa: sp 0 +
STACK CFI 1ca72 .cfa: sp 20 + .ra: .cfa -4 + ^ r7: .cfa -8 + ^ r6: .cfa -12 + ^ r5: .cfa -16 + ^ r4: .cfa -20 + ^
STACK CFI 1ca74 .cfa: r7 8 +
STACK CFI 1ca78 r8: .cfa -24 + ^
STACK CFI INIT 1cb68 34 .cfa: sp 0 +
STACK CFI 1cb6a .cfa: sp 8 + .ra: .cfa -4 + ^ r7: .cfa -8 + ^
STACK CFI 1cb6c .cfa: r7 8 +
STACK CFI INIT 1cb9c d8 .cfa: sp 0 +
STACK CFI 1cb9e .cfa: sp 20 + .ra: .cfa -4 + ^ r7: .cfa -8 + ^ r6: .cfa -12 + ^ r5: .cfa -16 + ^ r4: .cfa -20 + ^
STACK CFI 1cba0 .cfa: r7 8 +
STACK CFI 1cba4 r11: .cfa -24 + ^ r10: .cfa -28 + ^ r9: .cfa -32 + ^ r8: .cfa -36 + ^
STACK CFI INIT 1cc74 68 .cfa: sp 0 +
STACK CFI 1cc76 .cfa: sp 20 + .ra: .cfa -4 + ^ r7: .cfa -8 + ^ r6: .cfa -12 + ^ r5: .cfa -16 + ^ r4: .cfa -20 + ^
STACK CFI 1cc78 .cfa: r7 8 +
STACK CFI 1cc7c r11: .cfa -24 + ^
STACK CFI INIT 1ccdc 10 .cfa: sp 0 +
STACK CFI 1ccde .cfa: sp 8 + .ra: .cfa -4 + ^ r7: .cfa -8 + ^
STACK CFI 1cce0 .cfa: r7 8 +
STACK CFI INIT 1ccec 108 .cfa: sp 0 +
STACK CFI 1ccee .cfa: sp 20 + .ra: .cfa -4 + ^ r7: .cfa -8 + ^ r6: .cfa -12 + ^ r5: .cfa -16 + ^ r4: .cfa -20 + ^
STACK CFI 1ccf0 .cfa: r7 8 +
STACK CFI 1ccf4 r11: .cfa -24 + ^ r10: .cfa -28 + ^ r9: .cfa -32 + ^ r8: .cfa -36 + ^
STACK CFI INIT 1cdf4 110 .cfa: sp 0 +
STACK CFI 1cdf6 .cfa: sp 20 + .ra: .cfa -4 + ^ r7: .cfa -8 + ^ r6: .cfa -12 + ^ r5: .cfa -16 + ^ r4: .cfa -20 + ^
STACK CFI 1cdf8 .cfa: r7 8 +
STACK CFI 1cdfc r11: .cfa -24 + ^ r10: .cfa -28 + ^ r9: .cfa -32 + ^ r8: .cfa -36 + ^
STACK CFI INIT 1cf04 ce .cfa: sp 0 +
STACK CFI 1cf06 .cfa: sp 20 + .ra: .cfa -4 + ^ r7: .cfa -8 + ^ r6: .cfa -12 + ^ r5: .cfa -16 + ^ r4: .cfa -20 + ^
STACK CFI 1cf08 .cfa: r7 8 +
STACK CFI 1cf0c r10: .cfa -24 + ^ r9: .cfa -28 + ^ r8: .cfa -32 + ^
STACK CFI INIT 1cfd2 e0 .cfa: sp 0 +
STACK CFI 1cfd4 .cfa: sp 20 + .ra: .cfa -4 + ^ r7: .cfa -8 + ^ r6: .cfa -12 + ^ r5: .cfa -16 + ^ r4: .cfa -20 + ^
STACK CFI 1cfd6 .cfa: r7 8 +
STACK CFI 1cfda r11: .cfa -24 + ^ r9: .cfa -28 + ^ r8: .cfa -32 + ^
STACK CFI INIT 1d0b2 3c .cfa: sp 0 +
STACK CFI 1d0b4 .cfa: sp 16 + .ra: .cfa -4 + ^ r7: .cfa -8 + ^ r5: .cfa -12 + ^ r4: .cfa -16 + ^
STACK CFI 1d0b6 .cfa: r7 8 +
STACK CFI INIT 1d0ee 2 .cfa: sp 0 +
STACK CFI INIT 1d0f0 e .cfa: sp 0 +
STACK CFI INIT 1d0fe 5a .cfa: sp 0 +
STACK CFI 1d106 .cfa: sp 16 + .ra: .cfa -4 + ^ r7: .cfa -8 + ^ r5: .cfa -12 + ^ r4: .cfa -16 + ^
STACK CFI 1d108 .cfa: r7 8 +
STACK CFI INIT 1d158 548 .cfa: sp 0 +
STACK CFI 1d15a .cfa: sp 20 + .ra: .cfa -4 + ^ r7: .cfa -8 + ^ r6: .cfa -12 + ^ r5: .cfa -16 + ^ r4: .cfa -20 + ^
STACK CFI 1d15c .cfa: r7 8 +
STACK CFI 1d160 r11: .cfa -24 + ^ r10: .cfa -28 + ^ r9: .cfa -32 + ^ r8: .cfa -36 + ^
STACK CFI INIT 1d6a0 3a .cfa: sp 0 +
STACK CFI 1d6a2 .cfa: sp 16 + .ra: .cfa -4 + ^ r7: .cfa -8 + ^ r5: .cfa -12 + ^ r4: .cfa -16 + ^
STACK CFI 1d6a4 .cfa: r7 8 +
STACK CFI INIT 1d6da 46 .cfa: sp 0 +
STACK CFI 1d6dc .cfa: sp 16 + .ra: .cfa -4 + ^ r7: .cfa -8 + ^ r5: .cfa -12 + ^ r4: .cfa -16 + ^
STACK CFI 1d6de .cfa: r7 8 +
STACK CFI INIT 1d720 118 .cfa: sp 0 +
STACK CFI 1d722 .cfa: sp 20 + .ra: .cfa -4 + ^ r7: .cfa -8 + ^ r6: .cfa -12 + ^ r5: .cfa -16 + ^ r4: .cfa -20 + ^
STACK CFI 1d724 .cfa: r7 8 +
STACK CFI 1d728 r11: .cfa -24 + ^ r10: .cfa -28 + ^ r9: .cfa -32 + ^ r8: .cfa -36 + ^
STACK CFI INIT 1d838 4dc .cfa: sp 0 +
STACK CFI 1d83a .cfa: sp 20 + .ra: .cfa -4 + ^ r7: .cfa -8 + ^ r6: .cfa -12 + ^ r5: .cfa -16 + ^ r4: .cfa -20 + ^
STACK CFI 1d83c .cfa: r7 8 +
STACK CFI 1d840 r11: .cfa -24 + ^ r10: .cfa -28 + ^ r9: .cfa -32 + ^ r8: .cfa -36 + ^
STACK CFI INIT 1dd14 e .cfa: sp 0 +
STACK CFI INIT 1dd24 10 .cfa: sp 0 +
STACK CFI 1dd26 .cfa: sp 8 + .ra: .cfa -4 + ^ r7: .cfa -8 + ^
STACK CFI 1dd28 .cfa: r7 8 +
STACK CFI INIT 1dd34 10 .cfa: sp 0 +
STACK CFI 1dd36 .cfa: sp 8 + .ra: .cfa -4 + ^ r7: .cfa -8 + ^
STACK CFI 1dd38 .cfa: r7 8 +
STACK CFI INIT 1dd44 8 .cfa: sp 0 +
STACK CFI 1dd46 .cfa: sp 8 + .ra: .cfa -4 + ^ r7: .cfa -8 + ^
STACK CFI 1dd48 .cfa: r7 8 +
STACK CFI INIT 1dd4c 3c .cfa: sp 0 +
STACK CFI 1dd4e .cfa: sp 16 + .ra: .cfa -4 + ^ r7: .cfa -8 + ^ r6: .cfa -12 + ^ r4: .cfa -16 + ^
STACK CFI 1dd50 .cfa: r7 8 +
STACK CFI INIT 1dd88 18 .cfa: sp 0 +
STACK CFI 1dd8a .cfa: sp 8 + .ra: .cfa -4 + ^ r7: .cfa -8 + ^
STACK CFI 1dd8c .cfa: r7 8 +
STACK CFI INIT 1dda0 8 .cfa: sp 0 +
STACK CFI 1dda2 .cfa: sp 8 + .ra: .cfa -4 + ^ r7: .cfa -8 + ^
STACK CFI 1dda4 .cfa: r7 8 +
STACK CFI INIT 1dda8 2 .cfa: sp 0 +
STACK CFI INIT 1ddaa 4 .cfa: sp 0 +
STACK CFI INIT 1ddb0 20 .cfa: sp 0 +
STACK CFI 1ddb2 .cfa: sp 16 + .ra: .cfa -4 + ^ r7: .cfa -8 + ^ r6: .cfa -12 + ^ r4: .cfa -16 + ^
STACK CFI 1ddb4 .cfa: r7 8 +
STACK CFI INIT 1ddd0 14 .cfa: sp 0 +
STACK CFI INIT 1dde4 2 .cfa: sp 0 +
STACK CFI INIT 1dde6 4 .cfa: sp 0 +
STACK CFI INIT 1ddea 8 .cfa: sp 0 +
STACK CFI INIT 1ddf4 18 .cfa: sp 0 +
STACK CFI INIT 1de0c c .cfa: sp 0 +
STACK CFI INIT 1de18 4 .cfa: sp 0 +
STACK CFI INIT 1de1c 10 .cfa: sp 0 +
STACK CFI 1de1e .cfa: sp 8 + .ra: .cfa -4 + ^ r7: .cfa -8 + ^
STACK CFI 1de20 .cfa: r7 8 +
STACK CFI INIT 1de2c 1b4 .cfa: sp 0 +
STACK CFI 1de2e .cfa: sp 20 + .ra: .cfa -4 + ^ r7: .cfa -8 + ^ r6: .cfa -12 + ^ r5: .cfa -16 + ^ r4: .cfa -20 + ^
STACK CFI 1de30 .cfa: r7 8 +
STACK CFI 1de34 r10: .cfa -24 + ^ r9: .cfa -28 + ^ r8: .cfa -32 + ^
STACK CFI INIT 1dfe0 2 .cfa: sp 0 +
STACK CFI INIT 1dfe2 4 .cfa: sp 0 +
STACK CFI INIT 1dfe8 28 .cfa: sp 0 +
STACK CFI 1dfea .cfa: sp 16 + .ra: .cfa -4 + ^ r7: .cfa -8 + ^ r6: .cfa -12 + ^ r4: .cfa -16 + ^
STACK CFI 1dfec .cfa: r7 8 +
STACK CFI INIT 1e010 1c .cfa: sp 0 +
STACK CFI INIT 1e02c 2 .cfa: sp 0 +
STACK CFI INIT 1e02e 4 .cfa: sp 0 +
STACK CFI INIT 1e038 16e4 .cfa: sp 0 +
STACK CFI 1e03a .cfa: sp 20 + .ra: .cfa -4 + ^ r7: .cfa -8 + ^ r6: .cfa -12 + ^ r5: .cfa -16 + ^ r4: .cfa -20 + ^
STACK CFI 1e03c .cfa: r7 8 +
STACK CFI 1e040 r11: .cfa -24 + ^ r10: .cfa -28 + ^ r9: .cfa -32 + ^ r8: .cfa -36 + ^
STACK CFI INIT 1f71c 18 .cfa: sp 0 +
STACK CFI INIT 1f734 c .cfa: sp 0 +
STACK CFI INIT 1f740 66 .cfa: sp 0 +
STACK CFI 1f742 .cfa: sp 20 + .ra: .cfa -4 + ^ r7: .cfa -8 + ^ r6: .cfa -12 + ^ r5: .cfa -16 + ^ r4: .cfa -20 + ^
STACK CFI 1f744 .cfa: r7 8 +
STACK CFI 1f748 r11: .cfa -24 + ^ r9: .cfa -28 + ^ r8: .cfa -32 + ^
STACK CFI INIT 1f7a6 a6 .cfa: sp 0 +
STACK CFI 1f7a8 .cfa: sp 20 + .ra: .cfa -4 + ^ r7: .cfa -8 + ^ r6: .cfa -12 + ^ r5: .cfa -16 + ^ r4: .cfa -20 + ^
STACK CFI 1f7aa .cfa: r7 8 +
STACK CFI 1f7ae r10: .cfa -24 + ^ r9: .cfa -28 + ^ r8: .cfa -32 + ^
STACK CFI INIT 1f84c ac .cfa: sp 0 +
STACK CFI 1f84e .cfa: sp 20 + .ra: .cfa -4 + ^ r7: .cfa -8 + ^ r6: .cfa -12 + ^ r5: .cfa -16 + ^ r4: .cfa -20 + ^
STACK CFI 1f850 .cfa: r7 8 +
STACK CFI 1f854 r11: .cfa -24 + ^
STACK CFI INIT 1f8f8 10 .cfa: sp 0 +
STACK CFI 1f8fa .cfa: sp 8 + .ra: .cfa -4 + ^ r7: .cfa -8 + ^
STACK CFI 1f8fc .cfa: r7 8 +
STACK CFI INIT 1f908 90 .cfa: sp 0 +
STACK CFI 1f90a .cfa: sp 16 + .ra: .cfa -4 + ^ r7: .cfa -8 + ^ r5: .cfa -12 + ^ r4: .cfa -16 + ^
STACK CFI 1f90c .cfa: r7 8 +
STACK CFI INIT 1f998 d0 .cfa: sp 0 +
STACK CFI 1f99a .cfa: sp 16 + .ra: .cfa -4 + ^ r7: .cfa -8 + ^ r5: .cfa -12 + ^ r4: .cfa -16 + ^
STACK CFI 1f99c .cfa: r7 8 +
STACK CFI INIT 1fa68 88 .cfa: sp 0 +
STACK CFI 1fa6a .cfa: sp 20 + .ra: .cfa -4 + ^ r7: .cfa -8 + ^ r6: .cfa -12 + ^ r5: .cfa -16 + ^ r4: .cfa -20 + ^
STACK CFI 1fa6c .cfa: r7 8 +
STACK CFI 1fa70 r11: .cfa -24 + ^ r9: .cfa -28 + ^ r8: .cfa -32 + ^
STACK CFI INIT 1faf0 10 .cfa: sp 0 +
STACK CFI 1faf2 .cfa: sp 8 + .ra: .cfa -4 + ^ r7: .cfa -8 + ^
STACK CFI 1faf4 .cfa: r7 8 +
STACK CFI INIT 1fb00 10 .cfa: sp 0 +
STACK CFI 1fb02 .cfa: sp 8 + .ra: .cfa -4 + ^ r7: .cfa -8 + ^
STACK CFI 1fb04 .cfa: r7 8 +
STACK CFI INIT 1fb10 10 .cfa: sp 0 +
STACK CFI 1fb12 .cfa: sp 8 + .ra: .cfa -4 + ^ r7: .cfa -8 + ^
STACK CFI 1fb14 .cfa: r7 8 +
STACK CFI INIT 1fb20 270 .cfa: sp 0 +
STACK CFI 1fb22 .cfa: sp 20 + .ra: .cfa -4 + ^ r7: .cfa -8 + ^ r6: .cfa -12 + ^ r5: .cfa -16 + ^ r4: .cfa -20 + ^
STACK CFI 1fb24 .cfa: r7 8 +
STACK CFI 1fb28 r11: .cfa -24 + ^ r10: .cfa -28 + ^ r9: .cfa -32 + ^ r8: .cfa -36 + ^
STACK CFI INIT 1fd90 16 .cfa: sp 0 +
STACK CFI 1fd92 .cfa: sp 16 + .ra: .cfa -4 + ^ r7: .cfa -8 + ^ r6: .cfa -12 + ^ r4: .cfa -16 + ^
STACK CFI 1fd94 .cfa: r7 8 +
STACK CFI INIT 1fda6 2 .cfa: sp 0 +
STACK CFI INIT 1fda8 4 .cfa: sp 0 +
STACK CFI INIT 1fdac 28 .cfa: sp 0 +
STACK CFI 1fdae .cfa: sp 16 + .ra: .cfa -4 + ^ r7: .cfa -8 + ^ r6: .cfa -12 + ^ r4: .cfa -16 + ^
STACK CFI 1fdb0 .cfa: r7 8 +
STACK CFI INIT 1fdd4 1c .cfa: sp 0 +
STACK CFI INIT 1fdf0 2 .cfa: sp 0 +
STACK CFI INIT 1fdf2 4 .cfa: sp 0 +
STACK CFI INIT 1fdf6 1a .cfa: sp 0 +
STACK CFI INIT 1fe10 18 .cfa: sp 0 +
STACK CFI INIT 1fe28 c .cfa: sp 0 +
STACK CFI INIT 1b576 4 .cfa: sp 0 +
STACK CFI INIT 0 20 .cfa: sp 0 +
STACK CFI 2 .cfa: sp 16 + .ra: .cfa -4 + ^ r7: .cfa -8 + ^ r6: .cfa -12 + ^ r4: .cfa -16 + ^
STACK CFI 4 .cfa: r7 8 +
STACK CFI INIT 1fe34 20 .cfa: sp 0 +
STACK CFI 1fe36 .cfa: sp 16 + .ra: .cfa -4 + ^ r7: .cfa -8 + ^ r6: .cfa -12 + ^ r4: .cfa -16 + ^
STACK CFI 1fe38 .cfa: r7 8 +
STACK CFI INIT 1fe54 28 .cfa: sp 0 +
STACK CFI 1fe56 .cfa: sp 16 + .ra: .cfa -4 + ^ r7: .cfa -8 + ^ r5: .cfa -12 + ^ r4: .cfa -16 + ^
STACK CFI 1fe58 .cfa: r7 8 +
STACK CFI INIT 1fe7c cc .cfa: sp 0 +
STACK CFI 1fe7e .cfa: sp 16 + .ra: .cfa -4 + ^ r7: .cfa -8 + ^ r6: .cfa -12 + ^ r4: .cfa -16 + ^
STACK CFI 1fe80 .cfa: r7 8 +
STACK CFI INIT 1ff48 48 .cfa: sp 0 +
STACK CFI 1ff4a .cfa: sp 16 + .ra: .cfa -4 + ^ r7: .cfa -8 + ^ r5: .cfa -12 + ^ r4: .cfa -16 + ^
STACK CFI 1ff4c .cfa: r7 8 +
STACK CFI INIT 1ff90 60 .cfa: sp 0 +
STACK CFI 1ff92 .cfa: sp 16 + .ra: .cfa -4 + ^ r7: .cfa -8 + ^ r6: .cfa -12 + ^ r4: .cfa -16 + ^
STACK CFI 1ff94 .cfa: r7 8 +
STACK CFI INIT 1fff0 46 .cfa: sp 0 +
STACK CFI 1fff2 .cfa: sp 16 + .ra: .cfa -4 + ^ r7: .cfa -8 + ^ r5: .cfa -12 + ^ r4: .cfa -16 + ^
STACK CFI 1fff4 .cfa: r7 8 +
STACK CFI INIT 20036 10 .cfa: sp 0 +
STACK CFI 20038 .cfa: sp 8 + .ra: .cfa -4 + ^ r7: .cfa -8 + ^
STACK CFI 2003a .cfa: r7 8 +
STACK CFI INIT 20048 1c0 .cfa: sp 0 +
STACK CFI 2004a .cfa: sp 20 + .ra: .cfa -4 + ^ r7: .cfa -8 + ^ r6: .cfa -12 + ^ r5: .cfa -16 + ^ r4: .cfa -20 + ^
STACK CFI 2004c .cfa: r7 8 +
STACK CFI 20050 r8: .cfa -24 + ^
STACK CFI INIT 20208 10 .cfa: sp 0 +
STACK CFI 2020a .cfa: sp 8 + .ra: .cfa -4 + ^ r7: .cfa -8 + ^
STACK CFI 2020c .cfa: r7 8 +
STACK CFI INIT 0 30 .cfa: sp 0 +
STACK CFI 2 .cfa: sp 8 + .ra: .cfa -4 + ^ r7: .cfa -8 + ^
STACK CFI 4 .cfa: r7 8 +
STACK CFI INIT 0 18 .cfa: sp 0 +
STACK CFI 2 .cfa: sp 8 + .ra: .cfa -4 + ^ r7: .cfa -8 + ^
STACK CFI 4 .cfa: r7 8 +
STACK CFI INIT 0 1a .cfa: sp 0 +
STACK CFI 2 .cfa: sp 8 + .ra: .cfa -4 + ^ r7: .cfa -8 + ^
STACK CFI 4 .cfa: r7 8 +
STACK CFI INIT 20218 2 .cfa: sp 0 +
STACK CFI INIT 2021c 22c .cfa: sp 0 +
STACK CFI 2021e .cfa: sp 20 + .ra: .cfa -4 + ^ r7: .cfa -8 + ^ r6: .cfa -12 + ^ r5: .cfa -16 + ^ r4: .cfa -20 + ^
STACK CFI 20220 .cfa: r7 8 +
STACK CFI 20224 r11: .cfa -24 + ^ r10: .cfa -28 + ^ r9: .cfa -32 + ^ r8: .cfa -36 + ^
STACK CFI INIT 20448 42c .cfa: sp 0 +
STACK CFI 2044a .cfa: sp 20 + .ra: .cfa -4 + ^ r7: .cfa -8 + ^ r6: .cfa -12 + ^ r5: .cfa -16 + ^ r4: .cfa -20 + ^
STACK CFI 2044c .cfa: r7 8 +
STACK CFI 20450 r11: .cfa -24 + ^ r10: .cfa -28 + ^ r9: .cfa -32 + ^ r8: .cfa -36 + ^
STACK CFI INIT 20874 f8 .cfa: sp 0 +
STACK CFI 20876 .cfa: sp 20 + .ra: .cfa -4 + ^ r7: .cfa -8 + ^ r6: .cfa -12 + ^ r5: .cfa -16 + ^ r4: .cfa -20 + ^
STACK CFI 20878 .cfa: r7 8 +
STACK CFI 2087c r8: .cfa -24 + ^
STACK CFI INIT 2096c 104 .cfa: sp 0 +
STACK CFI 2096e .cfa: sp 20 + .ra: .cfa -4 + ^ r7: .cfa -8 + ^ r6: .cfa -12 + ^ r5: .cfa -16 + ^ r4: .cfa -20 + ^
STACK CFI 20970 .cfa: r7 8 +
STACK CFI 20974 r8: .cfa -24 + ^
STACK CFI INIT 20a70 2 .cfa: sp 0 +
STACK CFI INIT 20a72 e .cfa: sp 0 +
STACK CFI INIT 20a80 3ea .cfa: sp 0 +
STACK CFI 20a82 .cfa: sp 20 + .ra: .cfa -4 + ^ r7: .cfa -8 + ^ r6: .cfa -12 + ^ r5: .cfa -16 + ^ r4: .cfa -20 + ^
STACK CFI 20a84 .cfa: r7 8 +
STACK CFI 20a88 r11: .cfa -24 + ^ r10: .cfa -28 + ^ r9: .cfa -32 + ^ r8: .cfa -36 + ^
STACK CFI INIT 20e6c 1cc .cfa: sp 0 +
STACK CFI 20e6e .cfa: sp 20 + .ra: .cfa -4 + ^ r7: .cfa -8 + ^ r6: .cfa -12 + ^ r5: .cfa -16 + ^ r4: .cfa -20 + ^
STACK CFI 20e70 .cfa: r7 8 +
STACK CFI 20e74 r11: .cfa -24 + ^ r10: .cfa -28 + ^ r9: .cfa -32 + ^ r8: .cfa -36 + ^
STACK CFI INIT 21038 44 .cfa: sp 0 +
STACK CFI 2103a .cfa: sp 16 + .ra: .cfa -4 + ^ r7: .cfa -8 + ^ r6: .cfa -12 + ^ r4: .cfa -16 + ^
STACK CFI 2103c .cfa: r7 8 +
STACK CFI INIT 2107c 38 .cfa: sp 0 +
STACK CFI 2107e .cfa: sp 16 + .ra: .cfa -4 + ^ r7: .cfa -8 + ^ r5: .cfa -12 + ^ r4: .cfa -16 + ^
STACK CFI 21080 .cfa: r7 8 +
STACK CFI INIT 210b4 18 .cfa: sp 0 +
STACK CFI 210b6 .cfa: sp 8 + .ra: .cfa -4 + ^ r7: .cfa -8 + ^
STACK CFI 210b8 .cfa: r7 8 +
STACK CFI INIT 210cc 420 .cfa: sp 0 +
STACK CFI 210ce .cfa: sp 20 + .ra: .cfa -4 + ^ r7: .cfa -8 + ^ r6: .cfa -12 + ^ r5: .cfa -16 + ^ r4: .cfa -20 + ^
STACK CFI 210d0 .cfa: r7 8 +
STACK CFI 210d4 r11: .cfa -24 + ^ r10: .cfa -28 + ^ r9: .cfa -32 + ^ r8: .cfa -36 + ^
STACK CFI INIT 214ec 30 .cfa: sp 0 +
STACK CFI 214ee .cfa: sp 16 + .ra: .cfa -4 + ^ r7: .cfa -8 + ^ r6: .cfa -12 + ^ r4: .cfa -16 + ^
STACK CFI 214f0 .cfa: r7 8 +
STACK CFI INIT 2151c c0 .cfa: sp 0 +
STACK CFI 2151e .cfa: sp 20 + .ra: .cfa -4 + ^ r7: .cfa -8 + ^ r6: .cfa -12 + ^ r5: .cfa -16 + ^ r4: .cfa -20 + ^
STACK CFI 21520 .cfa: r7 8 +
STACK CFI 21524 r11: .cfa -24 + ^ r9: .cfa -28 + ^ r8: .cfa -32 + ^
STACK CFI INIT 215dc 1ac .cfa: sp 0 +
STACK CFI 215de .cfa: sp 20 + .ra: .cfa -4 + ^ r7: .cfa -8 + ^ r6: .cfa -12 + ^ r5: .cfa -16 + ^ r4: .cfa -20 + ^
STACK CFI 215e0 .cfa: r7 8 +
STACK CFI 215e4 r11: .cfa -24 + ^ r10: .cfa -28 + ^ r9: .cfa -32 + ^ r8: .cfa -36 + ^
STACK CFI INIT 21788 278 .cfa: sp 0 +
STACK CFI 2178a .cfa: sp 20 + .ra: .cfa -4 + ^ r7: .cfa -8 + ^ r6: .cfa -12 + ^ r5: .cfa -16 + ^ r4: .cfa -20 + ^
STACK CFI 2178c .cfa: r7 8 +
STACK CFI 21790 r10: .cfa -24 + ^ r9: .cfa -28 + ^ r8: .cfa -32 + ^
STACK CFI INIT 21a00 228 .cfa: sp 0 +
STACK CFI 21a02 .cfa: sp 20 + .ra: .cfa -4 + ^ r7: .cfa -8 + ^ r6: .cfa -12 + ^ r5: .cfa -16 + ^ r4: .cfa -20 + ^
STACK CFI 21a04 .cfa: r7 8 +
STACK CFI 21a08 r11: .cfa -24 + ^
STACK CFI INIT 21c28 384 .cfa: sp 0 +
STACK CFI 21c2a .cfa: sp 20 + .ra: .cfa -4 + ^ r7: .cfa -8 + ^ r6: .cfa -12 + ^ r5: .cfa -16 + ^ r4: .cfa -20 + ^
STACK CFI 21c2c .cfa: r7 8 +
STACK CFI 21c30 r11: .cfa -24 + ^ r10: .cfa -28 + ^ r9: .cfa -32 + ^ r8: .cfa -36 + ^
STACK CFI INIT 21fac 880 .cfa: sp 0 +
STACK CFI 21fae .cfa: sp 20 + .ra: .cfa -4 + ^ r7: .cfa -8 + ^ r6: .cfa -12 + ^ r5: .cfa -16 + ^ r4: .cfa -20 + ^
STACK CFI 21fb0 .cfa: r7 8 +
STACK CFI 21fb4 r11: .cfa -24 + ^ r10: .cfa -28 + ^ r9: .cfa -32 + ^ r8: .cfa -36 + ^
STACK CFI INIT 2282c 4c .cfa: sp 0 +
STACK CFI 2282e .cfa: sp 20 + .ra: .cfa -4 + ^ r7: .cfa -8 + ^ r6: .cfa -12 + ^ r5: .cfa -16 + ^ r4: .cfa -20 + ^
STACK CFI 22830 .cfa: r7 8 +
STACK CFI 22834 r8: .cfa -24 + ^
STACK CFI INIT 22878 48 .cfa: sp 0 +
STACK CFI 2287a .cfa: sp 16 + .ra: .cfa -4 + ^ r7: .cfa -8 + ^ r6: .cfa -12 + ^ r4: .cfa -16 + ^
STACK CFI 2287c .cfa: r7 8 +
STACK CFI INIT 228c0 10 .cfa: sp 0 +
STACK CFI 228c2 .cfa: sp 8 + .ra: .cfa -4 + ^ r7: .cfa -8 + ^
STACK CFI 228c4 .cfa: r7 8 +
STACK CFI INIT 228d0 9a .cfa: sp 0 +
STACK CFI 228d2 .cfa: sp 20 + .ra: .cfa -4 + ^ r7: .cfa -8 + ^ r6: .cfa -12 + ^ r5: .cfa -16 + ^ r4: .cfa -20 + ^
STACK CFI 228d4 .cfa: r7 8 +
STACK CFI 228d8 r11: .cfa -24 + ^ r9: .cfa -28 + ^ r8: .cfa -32 + ^
STACK CFI INIT 2296c 54 .cfa: sp 0 +
STACK CFI 2296e .cfa: sp 8 + .ra: .cfa -4 + ^ r7: .cfa -8 + ^
STACK CFI 22970 .cfa: r7 8 +
STACK CFI INIT 229c0 34 .cfa: sp 0 +
STACK CFI 229c2 .cfa: sp 16 + .ra: .cfa -4 + ^ r7: .cfa -8 + ^ r5: .cfa -12 + ^ r4: .cfa -16 + ^
STACK CFI 229c4 .cfa: r7 8 +
STACK CFI INIT 229f4 2c .cfa: sp 0 +
STACK CFI 229f6 .cfa: sp 16 + .ra: .cfa -4 + ^ r7: .cfa -8 + ^ r5: .cfa -12 + ^ r4: .cfa -16 + ^
STACK CFI 229f8 .cfa: r7 8 +
STACK CFI INIT 22a20 74 .cfa: sp 0 +
STACK CFI 22a22 .cfa: sp 8 + .ra: .cfa -4 + ^ r7: .cfa -8 + ^
STACK CFI 22a24 .cfa: r7 8 +
STACK CFI INIT 22a94 1b0 .cfa: sp 0 +
STACK CFI 22a96 .cfa: sp 20 + .ra: .cfa -4 + ^ r7: .cfa -8 + ^ r6: .cfa -12 + ^ r5: .cfa -16 + ^ r4: .cfa -20 + ^
STACK CFI 22a98 .cfa: r7 8 +
STACK CFI 22a9c r10: .cfa -24 + ^ r9: .cfa -28 + ^ r8: .cfa -32 + ^
STACK CFI INIT 22c44 9a .cfa: sp 0 +
STACK CFI 22c46 .cfa: sp 20 + .ra: .cfa -4 + ^ r7: .cfa -8 + ^ r6: .cfa -12 + ^ r5: .cfa -16 + ^ r4: .cfa -20 + ^
STACK CFI 22c48 .cfa: r7 8 +
STACK CFI 22c4c r11: .cfa -24 + ^ r9: .cfa -28 + ^ r8: .cfa -32 + ^
STACK CFI INIT 22ce0 174 .cfa: sp 0 +
STACK CFI 22ce2 .cfa: sp 20 + .ra: .cfa -4 + ^ r7: .cfa -8 + ^ r6: .cfa -12 + ^ r5: .cfa -16 + ^ r4: .cfa -20 + ^
STACK CFI 22ce4 .cfa: r7 8 +
STACK CFI 22ce8 r10: .cfa -24 + ^ r9: .cfa -28 + ^ r8: .cfa -32 + ^
STACK CFI INIT 22e54 218 .cfa: sp 0 +
STACK CFI 22e56 .cfa: sp 20 + .ra: .cfa -4 + ^ r7: .cfa -8 + ^ r6: .cfa -12 + ^ r5: .cfa -16 + ^ r4: .cfa -20 + ^
STACK CFI 22e58 .cfa: r7 8 +
STACK CFI 22e5c r11: .cfa -24 + ^ r10: .cfa -28 + ^ r9: .cfa -32 + ^ r8: .cfa -36 + ^
STACK CFI INIT 2306c 1dc .cfa: sp 0 +
STACK CFI 2306e .cfa: sp 20 + .ra: .cfa -4 + ^ r7: .cfa -8 + ^ r6: .cfa -12 + ^ r5: .cfa -16 + ^ r4: .cfa -20 + ^
STACK CFI 23070 .cfa: r7 8 +
STACK CFI 23074 r11: .cfa -24 + ^ r10: .cfa -28 + ^ r9: .cfa -32 + ^ r8: .cfa -36 + ^
STACK CFI INIT 23248 188 .cfa: sp 0 +
STACK CFI 2324a .cfa: sp 20 + .ra: .cfa -4 + ^ r7: .cfa -8 + ^ r6: .cfa -12 + ^ r5: .cfa -16 + ^ r4: .cfa -20 + ^
STACK CFI 2324c .cfa: r7 8 +
STACK CFI 23250 r11: .cfa -24 + ^ r10: .cfa -28 + ^ r9: .cfa -32 + ^ r8: .cfa -36 + ^
STACK CFI INIT 233d0 9f8 .cfa: sp 0 +
STACK CFI 233d2 .cfa: sp 20 + .ra: .cfa -4 + ^ r7: .cfa -8 + ^ r6: .cfa -12 + ^ r5: .cfa -16 + ^ r4: .cfa -20 + ^
STACK CFI 233d4 .cfa: r7 8 +
STACK CFI 233d8 r11: .cfa -24 + ^ r10: .cfa -28 + ^ r9: .cfa -32 + ^ r8: .cfa -36 + ^
STACK CFI INIT 23dc8 fa .cfa: sp 0 +
STACK CFI 23dca .cfa: sp 20 + .ra: .cfa -4 + ^ r7: .cfa -8 + ^ r6: .cfa -12 + ^ r5: .cfa -16 + ^ r4: .cfa -20 + ^
STACK CFI 23dcc .cfa: r7 8 +
STACK CFI 23dd0 r11: .cfa -24 + ^ r10: .cfa -28 + ^ r9: .cfa -32 + ^ r8: .cfa -36 + ^
STACK CFI INIT 23ec4 184 .cfa: sp 0 +
STACK CFI 23ec6 .cfa: sp 20 + .ra: .cfa -4 + ^ r7: .cfa -8 + ^ r6: .cfa -12 + ^ r5: .cfa -16 + ^ r4: .cfa -20 + ^
STACK CFI 23ec8 .cfa: r7 8 +
STACK CFI 23ecc r11: .cfa -24 + ^ r10: .cfa -28 + ^ r9: .cfa -32 + ^ r8: .cfa -36 + ^
STACK CFI INIT 24048 214 .cfa: sp 0 +
STACK CFI 2404a .cfa: sp 20 + .ra: .cfa -4 + ^ r7: .cfa -8 + ^ r6: .cfa -12 + ^ r5: .cfa -16 + ^ r4: .cfa -20 + ^
STACK CFI 2404c .cfa: r7 8 +
STACK CFI 24050 r8: .cfa -24 + ^
STACK CFI INIT 2425c e0 .cfa: sp 0 +
STACK CFI 2425e .cfa: sp 20 + .ra: .cfa -4 + ^ r7: .cfa -8 + ^ r6: .cfa -12 + ^ r5: .cfa -16 + ^ r4: .cfa -20 + ^
STACK CFI 24260 .cfa: r7 8 +
STACK CFI 24264 r8: .cfa -24 + ^
STACK CFI INIT 2433c e0 .cfa: sp 0 +
STACK CFI 2433e .cfa: sp 20 + .ra: .cfa -4 + ^ r7: .cfa -8 + ^ r6: .cfa -12 + ^ r5: .cfa -16 + ^ r4: .cfa -20 + ^
STACK CFI 24340 .cfa: r7 8 +
STACK CFI 24344 r8: .cfa -24 + ^
STACK CFI INIT 24420 73c .cfa: sp 0 +
STACK CFI 24422 .cfa: sp 20 + .ra: .cfa -4 + ^ r7: .cfa -8 + ^ r6: .cfa -12 + ^ r5: .cfa -16 + ^ r4: .cfa -20 + ^
STACK CFI 24424 .cfa: r7 8 +
STACK CFI 24428 r11: .cfa -24 + ^ r10: .cfa -28 + ^ r9: .cfa -32 + ^ r8: .cfa -36 + ^
STACK CFI INIT 24b5c 140 .cfa: sp 0 +
STACK CFI 24b5e .cfa: sp 20 + .ra: .cfa -4 + ^ r7: .cfa -8 + ^ r6: .cfa -12 + ^ r5: .cfa -16 + ^ r4: .cfa -20 + ^
STACK CFI 24b60 .cfa: r7 8 +
STACK CFI 24b64 r11: .cfa -24 + ^ r10: .cfa -28 + ^ r9: .cfa -32 + ^ r8: .cfa -36 + ^
STACK CFI INIT 24c9c e0 .cfa: sp 0 +
STACK CFI 24c9e .cfa: sp 20 + .ra: .cfa -4 + ^ r7: .cfa -8 + ^ r6: .cfa -12 + ^ r5: .cfa -16 + ^ r4: .cfa -20 + ^
STACK CFI 24ca0 .cfa: r7 8 +
STACK CFI 24ca4 r8: .cfa -24 + ^
STACK CFI INIT 24d7c 194 .cfa: sp 0 +
STACK CFI 24d7e .cfa: sp 20 + .ra: .cfa -4 + ^ r7: .cfa -8 + ^ r6: .cfa -12 + ^ r5: .cfa -16 + ^ r4: .cfa -20 + ^
STACK CFI 24d80 .cfa: r7 8 +
STACK CFI 24d84 r8: .cfa -24 + ^
STACK CFI INIT 24f10 22 .cfa: sp 0 +
STACK CFI 24f12 .cfa: sp 16 + .ra: .cfa -4 + ^ r7: .cfa -8 + ^ r6: .cfa -12 + ^ r4: .cfa -16 + ^
STACK CFI 24f14 .cfa: r7 8 +
STACK CFI INIT 24f34 104 .cfa: sp 0 +
STACK CFI 24f36 .cfa: sp 20 + .ra: .cfa -4 + ^ r7: .cfa -8 + ^ r6: .cfa -12 + ^ r5: .cfa -16 + ^ r4: .cfa -20 + ^
STACK CFI 24f38 .cfa: r7 8 +
STACK CFI 24f3c r10: .cfa -24 + ^ r9: .cfa -28 + ^ r8: .cfa -32 + ^
STACK CFI INIT 25038 144 .cfa: sp 0 +
STACK CFI 2503a .cfa: sp 20 + .ra: .cfa -4 + ^ r7: .cfa -8 + ^ r6: .cfa -12 + ^ r5: .cfa -16 + ^ r4: .cfa -20 + ^
STACK CFI 2503c .cfa: r7 8 +
STACK CFI 25040 r11: .cfa -24 + ^ r9: .cfa -28 + ^ r8: .cfa -32 + ^
STACK CFI INIT 2517c 21c .cfa: sp 0 +
STACK CFI 2517e .cfa: sp 20 + .ra: .cfa -4 + ^ r7: .cfa -8 + ^ r6: .cfa -12 + ^ r5: .cfa -16 + ^ r4: .cfa -20 + ^
STACK CFI 25180 .cfa: r7 8 +
STACK CFI 25184 r11: .cfa -24 + ^ r10: .cfa -28 + ^ r9: .cfa -32 + ^ r8: .cfa -36 + ^
STACK CFI INIT 25398 6e .cfa: sp 0 +
STACK CFI 2539a .cfa: sp 20 + .ra: .cfa -4 + ^ r7: .cfa -8 + ^ r6: .cfa -12 + ^ r5: .cfa -16 + ^ r4: .cfa -20 + ^
STACK CFI 2539c .cfa: r7 8 +
STACK CFI 253a0 r8: .cfa -24 + ^
STACK CFI INIT 25410 e4 .cfa: sp 0 +
STACK CFI 25412 .cfa: sp 20 + .ra: .cfa -4 + ^ r7: .cfa -8 + ^ r6: .cfa -12 + ^ r5: .cfa -16 + ^ r4: .cfa -20 + ^
STACK CFI 25414 .cfa: r7 8 +
STACK CFI 25418 r11: .cfa -24 + ^
STACK CFI INIT 254f4 9ac .cfa: sp 0 +
STACK CFI 254f6 .cfa: sp 20 + .ra: .cfa -4 + ^ r7: .cfa -8 + ^ r6: .cfa -12 + ^ r5: .cfa -16 + ^ r4: .cfa -20 + ^
STACK CFI 254f8 .cfa: r7 8 +
STACK CFI 254fc r11: .cfa -24 + ^ r10: .cfa -28 + ^ r9: .cfa -32 + ^ r8: .cfa -36 + ^
STACK CFI INIT 25ea0 e8 .cfa: sp 0 +
STACK CFI 25ea2 .cfa: sp 20 + .ra: .cfa -4 + ^ r7: .cfa -8 + ^ r6: .cfa -12 + ^ r5: .cfa -16 + ^ r4: .cfa -20 + ^
STACK CFI 25ea4 .cfa: r7 8 +
STACK CFI 25ea8 r8: .cfa -24 + ^
STACK CFI INIT 25f88 19c .cfa: sp 0 +
STACK CFI 25f8a .cfa: sp 20 + .ra: .cfa -4 + ^ r7: .cfa -8 + ^ r6: .cfa -12 + ^ r5: .cfa -16 + ^ r4: .cfa -20 + ^
STACK CFI 25f8c .cfa: r7 8 +
STACK CFI 25f90 r11: .cfa -24 + ^ r10: .cfa -28 + ^ r9: .cfa -32 + ^ r8: .cfa -36 + ^
STACK CFI INIT 26130 e4 .cfa: sp 0 +
STACK CFI 26132 .cfa: sp 20 + .ra: .cfa -4 + ^ r7: .cfa -8 + ^ r6: .cfa -12 + ^ r5: .cfa -16 + ^ r4: .cfa -20 + ^
STACK CFI 26134 .cfa: r7 8 +
STACK CFI 26138 r11: .cfa -24 + ^
STACK CFI INIT 26214 150 .cfa: sp 0 +
STACK CFI 26216 .cfa: sp 20 + .ra: .cfa -4 + ^ r7: .cfa -8 + ^ r6: .cfa -12 + ^ r5: .cfa -16 + ^ r4: .cfa -20 + ^
STACK CFI 26218 .cfa: r7 8 +
STACK CFI 2621c r11: .cfa -24 + ^ r10: .cfa -28 + ^ r9: .cfa -32 + ^ r8: .cfa -36 + ^
STACK CFI INIT 26368 1660 .cfa: sp 0 +
STACK CFI 2636a .cfa: sp 20 + .ra: .cfa -4 + ^ r7: .cfa -8 + ^ r6: .cfa -12 + ^ r5: .cfa -16 + ^ r4: .cfa -20 + ^
STACK CFI 2636c .cfa: r7 8 +
STACK CFI 26370 r11: .cfa -24 + ^ r10: .cfa -28 + ^ r9: .cfa -32 + ^ r8: .cfa -36 + ^
STACK CFI INIT 279c8 1cc .cfa: sp 0 +
STACK CFI 279ca .cfa: sp 20 + .ra: .cfa -4 + ^ r7: .cfa -8 + ^ r6: .cfa -12 + ^ r5: .cfa -16 + ^ r4: .cfa -20 + ^
STACK CFI 279cc .cfa: r7 8 +
STACK CFI 279d0 r8: .cfa -24 + ^
STACK CFI INIT 27b94 106 .cfa: sp 0 +
STACK CFI 27b96 .cfa: sp 20 + .ra: .cfa -4 + ^ r7: .cfa -8 + ^ r6: .cfa -12 + ^ r5: .cfa -16 + ^ r4: .cfa -20 + ^
STACK CFI 27b98 .cfa: r7 8 +
STACK CFI 27b9c r11: .cfa -24 + ^ r10: .cfa -28 + ^ r9: .cfa -32 + ^ r8: .cfa -36 + ^
STACK CFI INIT 27c9c b78 .cfa: sp 0 +
STACK CFI 27c9e .cfa: sp 20 + .ra: .cfa -4 + ^ r7: .cfa -8 + ^ r6: .cfa -12 + ^ r5: .cfa -16 + ^ r4: .cfa -20 + ^
STACK CFI 27ca0 .cfa: r7 8 +
STACK CFI 27ca4 r11: .cfa -24 + ^ r10: .cfa -28 + ^ r9: .cfa -32 + ^ r8: .cfa -36 + ^
STACK CFI INIT 28814 3a4 .cfa: sp 0 +
STACK CFI 28816 .cfa: sp 20 + .ra: .cfa -4 + ^ r7: .cfa -8 + ^ r6: .cfa -12 + ^ r5: .cfa -16 + ^ r4: .cfa -20 + ^
STACK CFI 28818 .cfa: r7 8 +
STACK CFI 2881c r11: .cfa -24 + ^ r10: .cfa -28 + ^ r9: .cfa -32 + ^ r8: .cfa -36 + ^
STACK CFI INIT 28bb8 ebc .cfa: sp 0 +
STACK CFI 28bba .cfa: sp 20 + .ra: .cfa -4 + ^ r7: .cfa -8 + ^ r6: .cfa -12 + ^ r5: .cfa -16 + ^ r4: .cfa -20 + ^
STACK CFI 28bbc .cfa: r7 8 +
STACK CFI 28bc0 r11: .cfa -24 + ^ r10: .cfa -28 + ^ r9: .cfa -32 + ^ r8: .cfa -36 + ^
STACK CFI INIT 29a74 10c .cfa: sp 0 +
STACK CFI 29a76 .cfa: sp 20 + .ra: .cfa -4 + ^ r7: .cfa -8 + ^ r6: .cfa -12 + ^ r5: .cfa -16 + ^ r4: .cfa -20 + ^
STACK CFI 29a78 .cfa: r7 8 +
STACK CFI 29a7c r11: .cfa -24 + ^ r10: .cfa -28 + ^ r9: .cfa -32 + ^ r8: .cfa -36 + ^
STACK CFI INIT 29b80 c4 .cfa: sp 0 +
STACK CFI 29b9e .cfa: sp 20 + .ra: .cfa -4 + ^ r7: .cfa -8 + ^ r6: .cfa -12 + ^ r5: .cfa -16 + ^ r4: .cfa -20 + ^
STACK CFI 29ba0 .cfa: r7 8 +
STACK CFI 29ba4 r8: .cfa -24 + ^
STACK CFI INIT 29c44 414 .cfa: sp 0 +
STACK CFI 29c46 .cfa: sp 20 + .ra: .cfa -4 + ^ r7: .cfa -8 + ^ r6: .cfa -12 + ^ r5: .cfa -16 + ^ r4: .cfa -20 + ^
STACK CFI 29c48 .cfa: r7 8 +
STACK CFI 29c4c r11: .cfa -24 + ^ r10: .cfa -28 + ^ r9: .cfa -32 + ^ r8: .cfa -36 + ^
STACK CFI INIT 2a058 276 .cfa: sp 0 +
STACK CFI 2a05a .cfa: sp 20 + .ra: .cfa -4 + ^ r7: .cfa -8 + ^ r6: .cfa -12 + ^ r5: .cfa -16 + ^ r4: .cfa -20 + ^
STACK CFI 2a05c .cfa: r7 8 +
STACK CFI 2a060 r11: .cfa -24 + ^ r10: .cfa -28 + ^ r9: .cfa -32 + ^ r8: .cfa -36 + ^
STACK CFI INIT 2a2ce 6e .cfa: sp 0 +
STACK CFI 2a2d0 .cfa: sp 20 + .ra: .cfa -4 + ^ r7: .cfa -8 + ^ r6: .cfa -12 + ^ r5: .cfa -16 + ^ r4: .cfa -20 + ^
STACK CFI 2a2d2 .cfa: r7 8 +
STACK CFI 2a2d6 r8: .cfa -24 + ^
STACK CFI INIT 2a33c 994 .cfa: sp 0 +
STACK CFI 2a33e .cfa: sp 20 + .ra: .cfa -4 + ^ r7: .cfa -8 + ^ r6: .cfa -12 + ^ r5: .cfa -16 + ^ r4: .cfa -20 + ^
STACK CFI 2a340 .cfa: r7 8 +
STACK CFI 2a344 r11: .cfa -24 + ^ r10: .cfa -28 + ^ r9: .cfa -32 + ^ r8: .cfa -36 + ^
STACK CFI INIT 2acd0 e0 .cfa: sp 0 +
STACK CFI 2acd2 .cfa: sp 20 + .ra: .cfa -4 + ^ r7: .cfa -8 + ^ r6: .cfa -12 + ^ r5: .cfa -16 + ^ r4: .cfa -20 + ^
STACK CFI 2acd4 .cfa: r7 8 +
STACK CFI 2acd8 r11: .cfa -24 + ^ r10: .cfa -28 + ^ r9: .cfa -32 + ^ r8: .cfa -36 + ^
STACK CFI INIT 2adb0 820 .cfa: sp 0 +
STACK CFI 2adb2 .cfa: sp 20 + .ra: .cfa -4 + ^ r7: .cfa -8 + ^ r6: .cfa -12 + ^ r5: .cfa -16 + ^ r4: .cfa -20 + ^
STACK CFI 2adb4 .cfa: r7 8 +
STACK CFI 2adb8 r11: .cfa -24 + ^ r10: .cfa -28 + ^ r9: .cfa -32 + ^ r8: .cfa -36 + ^
STACK CFI INIT 2b5d0 124 .cfa: sp 0 +
STACK CFI 2b5d2 .cfa: sp 20 + .ra: .cfa -4 + ^ r7: .cfa -8 + ^ r6: .cfa -12 + ^ r5: .cfa -16 + ^ r4: .cfa -20 + ^
STACK CFI 2b5d4 .cfa: r7 8 +
STACK CFI 2b5d8 r11: .cfa -24 + ^ r10: .cfa -28 + ^ r9: .cfa -32 + ^ r8: .cfa -36 + ^
STACK CFI INIT 2b700 1e4 .cfa: sp 0 +
STACK CFI 2b702 .cfa: sp 20 + .ra: .cfa -4 + ^ r7: .cfa -8 + ^ r6: .cfa -12 + ^ r5: .cfa -16 + ^ r4: .cfa -20 + ^
STACK CFI 2b704 .cfa: r7 8 +
STACK CFI 2b708 r11: .cfa -24 + ^ r10: .cfa -28 + ^ r9: .cfa -32 + ^ r8: .cfa -36 + ^
STACK CFI INIT 2b8e4 544 .cfa: sp 0 +
STACK CFI 2b8e6 .cfa: sp 20 + .ra: .cfa -4 + ^ r7: .cfa -8 + ^ r6: .cfa -12 + ^ r5: .cfa -16 + ^ r4: .cfa -20 + ^
STACK CFI 2b8e8 .cfa: r7 8 +
STACK CFI 2b8ec r11: .cfa -24 + ^ r10: .cfa -28 + ^ r9: .cfa -32 + ^ r8: .cfa -36 + ^
