MODULE Linux arm64 E1950731C8A8896401D2071C5E2251180 alphalaneous.editortab_api.android64.so
INFO CODE_ID 310795E1A8C8648901D2071C5E2251188A1C331B
INFO GENERATOR mozilla/dump_syms 2.3.4
PUBLIC c5e0 0 __on_dlclose
PUBLIC c5f0 0 __emutls_unregister_key
PUBLIC c5f8 0 __on_dlclose_late
PUBLIC c600 0 __atexit_handler_wrapper
PUBLIC c614 0 atexit
PUBLIC c630 0 pthread_atfork
PUBLIC c640 0 __aarch64_ldadd8_relax
PUBLIC c670 0 init_have_lse_atomics
PUBLIC c708 0 __init_cpu_features_constructor
PUBLIC c9b4 0 __init_cpu_features
PUBLIC ca40 0 __aarch64_ldadd8_acq_rel
PUBLIC m ca70 0 EditorTabs::registerTab(TabType, std::__ndk1::basic_string<char, std::__ndk1::char_traits<char>, std::__ndk1::allocator<char> >, std::__ndk1::function<cocos2d::CCNode* (EditorUI*, CCMenuItemToggler*)>, std::__ndk1::function<void (EditorUI*, bool, cocos2d::CCNode*)>)
PUBLIC ce0c 0 TabData::~TabData()
PUBLIC m cea0 0 EditorTabs::addTab(EditorUI*, TabData)
PUBLIC da9c 0 TabData::TabData(TabData const&)
PUBLIC dc14 0 EditorTabs::addTab(EditorUI*, TabData)::$_0::~$_0()
PUBLIC m dca8 0 EditorTabs::addTab(EditorUI*, TabType, std::__ndk1::basic_string<char, std::__ndk1::char_traits<char>, std::__ndk1::allocator<char> >, std::__ndk1::function<cocos2d::CCNode* (EditorUI*, CCMenuItemToggler*)>, std::__ndk1::function<void (EditorUI*, bool, cocos2d::CCNode*)>)
PUBLIC m e094 0 EditorTabs::getRegisteredTabs()
PUBLIC e0c4 0 __cxx_global_var_init
PUBLIC e538 0 geode::modifier::ModifyBase<geode::modifier::ModifyDerive<MyEditButtonBar, EditButtonBar> >::~ModifyBase()
PUBLIC e550 0 __cxx_global_var_init.3
PUBLIC ea78 0 geode::modifier::ModifyBase<geode::modifier::ModifyDerive<MyEditorUI, EditorUI> >::~ModifyBase()
PUBLIC ea90 0 __cxx_global_var_init.4
PUBLIC efb8 0 geode::modifier::ModifyBase<geode::modifier::ModifyDerive<LateEditorUI, EditorUI> >::~ModifyBase()
PUBLIC efd0 0 __cxx_global_var_init.5
PUBLIC f41c 0 geode::modifier::ModifyBase<geode::modifier::ModifyDerive<hook667<(anonymous namespace)::hook667Parent>, EditorPauseLayer> >::~ModifyBase()
PUBLIC f434 0 std::__ndk1::basic_string<char, std::__ndk1::char_traits<char>, std::__ndk1::allocator<char> >::__init_copy_ctor_external(char const*, unsigned long)
PUBLIC f4c8 0 std::__ndk1::basic_string<char, std::__ndk1::char_traits<char>, std::__ndk1::allocator<char> >::__throw_length_error[abi:ne190000]() const
PUBLIC f4dc 0 std::__ndk1::__throw_length_error[abi:ne190000](char const*)
PUBLIC f52c 0 std::length_error::length_error[abi:ne190000](char const*)
PUBLIC f55c 0 std::__throw_bad_array_new_length([abi:ne190000], void)
PUBLIC f590 0 __clang_call_terminate
PUBLIC f5a0 0 std::__ndk1::vector<TabData, std::__ndk1::allocator<TabData> >::__push_back_slow_path<TabData const&>(TabData const&)
PUBLIC f8b4 0 std::__ndk1::__split_buffer<TabData, std::__ndk1::allocator<TabData>&>::~__split_buffer()
PUBLIC f980 0 std::__ndk1::vector<TabData, std::__ndk1::allocator<TabData> >::__throw_length_error[abi:ne190000]() const
PUBLIC f994 0 std::__ndk1::__exception_guard_exceptions<std::__ndk1::_AllocatorDestroyRangeReverse<std::__ndk1::allocator<TabData>, TabData*> >::~__exception_guard_exceptions[abi:ne190000]()
PUBLIC fa58 0 geode::modifier::FieldIntermediate<MyEditorUI, EditorUI>::self()
PUBLIC fbf4 0 geode::modifier::FieldContainer::getField(unsigned long)
PUBLIC ffc4 0 geode::modifier::FieldContainer::setField(unsigned long, unsigned long, std::__ndk1::function<void (void*)>)
PUBLIC 100d0 0 geode::modifier::FieldIntermediate<MyEditorUI, EditorUI>::fieldDestructor(void*)
PUBLIC 101e4 0 std::__ndk1::vector<void*, std::__ndk1::allocator<void*> >::__throw_length_error[abi:ne190000]() const
PUBLIC 101f8 0 std::__ndk1::vector<std::__ndk1::function<void (void*)>, std::__ndk1::allocator<std::__ndk1::function<void (void*)> > >::__throw_length_error[abi:ne190000]() const
PUBLIC 1020c 0 std::__ndk1::vector<void*, std::__ndk1::allocator<void*> >::__throw_out_of_range[abi:ne190000]() const
PUBLIC 10218 0 std::__ndk1::__throw_out_of_range[abi:ne190000](char const*)
PUBLIC 10268 0 std::out_of_range::out_of_range[abi:ne190000](char const*)
PUBLIC 10298 0 std::__ndk1::vector<std::__ndk1::function<void (void*)>, std::__ndk1::allocator<std::__ndk1::function<void (void*)> > >::__throw_out_of_range[abi:ne190000]() const
PUBLIC 102a4 0 std::__ndk1::vector<TabData, std::__ndk1::allocator<TabData> >::~vector[abi:ne190000]()
PUBLIC 10384 0 std::__ndk1::__function::__base<void (void*)>::~__base()
PUBLIC 10388 0 std::__ndk1::__function::__func<void (*)(void*), std::__ndk1::allocator<void (*)(void*)>, void (void*)>::~__func()
PUBLIC 1038c 0 std::__ndk1::__function::__func<void (*)(void*), std::__ndk1::allocator<void (*)(void*)>, void (void*)>::__clone() const
PUBLIC 103c4 0 std::__ndk1::__function::__func<void (*)(void*), std::__ndk1::allocator<void (*)(void*)>, void (void*)>::__clone(std::__ndk1::__function::__base<void (void*)>*) const
PUBLIC 103dc 0 std::__ndk1::__function::__func<void (*)(void*), std::__ndk1::allocator<void (*)(void*)>, void (void*)>::destroy()
PUBLIC 103e0 0 std::__ndk1::__function::__func<void (*)(void*), std::__ndk1::allocator<void (*)(void*)>, void (void*)>::destroy_deallocate()
PUBLIC 103e4 0 std::__ndk1::__function::__func<void (*)(void*), std::__ndk1::allocator<void (*)(void*)>, void (void*)>::operator()(void*&&)
PUBLIC 103f4 0 std::__ndk1::__function::__func<void (*)(void*), std::__ndk1::allocator<void (*)(void*)>, void (void*)>::target(std::type_info const&) const
PUBLIC 10410 0 std::__ndk1::__function::__func<void (*)(void*), std::__ndk1::allocator<void (*)(void*)>, void (void*)>::target_type() const
PUBLIC 1041c 0 geode::cocos::CCMenuItemExt::LambdaCallback<CCMenuItemToggler>::execute(cocos2d::CCNode*)
PUBLIC 1048c 0 cocos2d::CCCopying::copyWithZone(cocos2d::CCZone*)
PUBLIC 10494 0 geode::cocos::CCMenuItemExt::LambdaCallback<CCMenuItemToggler>::~LambdaCallback()
PUBLIC 104f0 0 geode::cocos::CCMenuItemExt::LambdaCallback<CCMenuItemToggler>::~LambdaCallback()
PUBLIC 10554 0 cocos2d::CCObject::update(float)
PUBLIC 10558 0 std::__ndk1::__throw_bad_function_call[abi:ne190000]()
PUBLIC 1058c 0 std::__ndk1::bad_function_call::~bad_function_call()
PUBLIC 105b0 0 std::__ndk1::vector<TabData, std::__ndk1::allocator<TabData> >::__init_with_size[abi:ne190000]<TabData*, std::__ndk1::vector<TabData, std::__ndk1::allocator<TabData> >::__init_with_size[abi:ne190000]>(TabData*, std::__ndk1::vector<TabData, std::__ndk1::allocator<TabData> >::__init_with_size[abi:ne190000], unsigned long)
PUBLIC 106f4 0 std::__ndk1::__exception_guard_exceptions<std::__ndk1::vector<TabData, std::__ndk1::allocator<TabData> >::__destroy_vector>::~__exception_guard_exceptions[abi:ne190000]()
PUBLIC 107e4 0 geode::modifier::ModifyDerive<MyEditButtonBar, EditButtonBar>::apply()
PUBLIC 10bd4 0 std::__ndk1::shared_ptr<geode::Hook>::~shared_ptr[abi:ne190000]()
PUBLIC 10c24 0 geode::impl::ResultData<geode::Hook*, std::__ndk1::basic_string<char, std::__ndk1::char_traits<char>, std::__ndk1::allocator<char> > >::~ResultData()
PUBLIC 10c98 0 std::__ndk1::vector<std::__ndk1::basic_string<char, std::__ndk1::char_traits<char>, std::__ndk1::allocator<char> >, std::__ndk1::allocator<std::__ndk1::basic_string<char, std::__ndk1::char_traits<char>, std::__ndk1::allocator<char> > > >::~vector[abi:ne190000]()
PUBLIC 10d14 0 geode::modifier::ModifyBase<geode::modifier::ModifyDerive<MyEditButtonBar, EditButtonBar> >::apply()
PUBLIC 10d18 0 _ZN5geode15UnwrapExceptionC2IRPNS_4HookEQsr4implE18IsStringStreamableIT_EEENS_4impl5OkTagEOS5_
PUBLIC 10e6c 0 std::__ndk1::__throw_bad_variant_access[abi:ne190000]()
PUBLIC 10ea0 0 std::__ndk1::basic_stringstream<char, std::__ndk1::char_traits<char>, std::__ndk1::allocator<char> >::basic_stringstream[abi:ne190000]()
PUBLIC m 10fd4 0 std::__ndk1::basic_stringstream<char, std::__ndk1::char_traits<char>, std::__ndk1::allocator<char> >::~basic_stringstream()
PUBLIC 11054 0 geode::UnwrapException::~UnwrapException()
PUBLIC 11078 0 std::__ndk1::__put_character_sequence[abi:ne190000]<char, std::__ndk1::char_traits<char> >(std::__ndk1::basic_ostream<char, std::__ndk1::char_traits<char> >, std::__ndk1::basic_ostream const*, unsigned long)
PUBLIC 1121c 0 std::__ndk1::__pad_and_output[abi:ne190000]<char, std::__ndk1::char_traits<char> >(std::__ndk1::char_traits<char>, std::__ndk1::ostreambuf_iterator const*, std::__ndk1::ostreambuf_iterator const, std::__ndk1::ostreambuf_iterator const, std::__ndk1::ios_base&, std::__ndk1::ostreambuf_iterator)
PUBLIC 11408 0 std::__ndk1::basic_stringbuf<char, std::__ndk1::char_traits<char>, std::__ndk1::allocator<char> >::str[abi:ne190000]() &&
PUBLIC 11578 0 std::__ndk1::basic_stringbuf<char, std::__ndk1::char_traits<char>, std::__ndk1::allocator<char> >::__init_buf_ptrs[abi:ne190000]()
PUBLIC 116c0 0 std::__ndk1::basic_string<char, std::__ndk1::char_traits<char>, std::__ndk1::allocator<char> >::__erase_external_with_move(unsigned long, unsigned long)
PUBLIC 11748 0 std::__ndk1::vector<std::__ndk1::basic_string<char, std::__ndk1::char_traits<char>, std::__ndk1::allocator<char> >, std::__ndk1::allocator<std::__ndk1::basic_string<char, std::__ndk1::char_traits<char>, std::__ndk1::allocator<char> > > >::__push_back_slow_path<std::__ndk1::basic_string<char, std::__ndk1::char_traits<char>, std::__ndk1::allocator<char> > const&>(std::__ndk1::basic_string<char, std::__ndk1::char_traits<char>, std::__ndk1::allocator<char> > const&)
PUBLIC 118f4 0 std::__ndk1::__split_buffer<std::__ndk1::basic_string<char, std::__ndk1::char_traits<char>, std::__ndk1::allocator<char> >, std::__ndk1::allocator<std::__ndk1::basic_string<char, std::__ndk1::char_traits<char>, std::__ndk1::allocator<char> > >&>::~__split_buffer()
PUBLIC 1195c 0 std::__ndk1::vector<std::__ndk1::basic_string<char, std::__ndk1::char_traits<char>, std::__ndk1::allocator<char> >, std::__ndk1::allocator<std::__ndk1::basic_string<char, std::__ndk1::char_traits<char>, std::__ndk1::allocator<char> > > >::__throw_length_error[abi:ne190000]() const
PUBLIC 11970 0 std::__ndk1::__variant_detail::__visitation::__base::__dispatcher<(unsigned long)0>::__dispatch[abi:ne190000]<std::__ndk1::__variant_detail::__dtor<std::__ndk1::__variant_detail::__traits<geode::Hook*, std::__ndk1::basic_string<char, std::__ndk1::char_traits<char>, std::__ndk1::allocator<char> > >, (std::__ndk1::__variant_detail::_Trait)1>::__destroy[abi:ne190000]()::{lambda(auto:1&)#1}, std::__ndk1::__variant_detail::__base<(std::__ndk1::__variant_detail::__traits<geode::Hook*, std::__ndk1::basic_string<char, std::__ndk1::char_traits<char>, std::__ndk1::allocator<char> > >)1, geode::Hook, std::__ndk1::allocator<char> >&>(std::__ndk1::__variant_detail::__dtor<std::__ndk1::__variant_detail::__traits<geode::Hook*, std::__ndk1::basic_string<char, std::__ndk1::char_traits<char>, std::__ndk1::allocator<char> > >, (std::__ndk1::__variant_detail::_Trait)1>, std::__ndk1::__variant_detail::__base<(std::__ndk1::__variant_detail::__traits<geode::Hook*, std::__ndk1::basic_string<char, std::__ndk1::char_traits<char>, std::__ndk1::allocator<char> > >)1, geode::Hook, std::__ndk1::allocator<char> >&)
PUBLIC 11974 0 std::__ndk1::__variant_detail::__visitation::__base::__dispatcher<(unsigned long)1>::__dispatch[abi:ne190000]<std::__ndk1::__variant_detail::__dtor<std::__ndk1::__variant_detail::__traits<geode::Hook*, std::__ndk1::basic_string<char, std::__ndk1::char_traits<char>, std::__ndk1::allocator<char> > >, (std::__ndk1::__variant_detail::_Trait)1>::__destroy[abi:ne190000]()::{lambda(auto:1&)#1}, std::__ndk1::__variant_detail::__base<(std::__ndk1::__variant_detail::__traits<geode::Hook*, std::__ndk1::basic_string<char, std::__ndk1::char_traits<char>, std::__ndk1::allocator<char> > >)1, geode::Hook, std::__ndk1::allocator<char> >&>(std::__ndk1::__variant_detail::__dtor<std::__ndk1::__variant_detail::__traits<geode::Hook*, std::__ndk1::basic_string<char, std::__ndk1::char_traits<char>, std::__ndk1::allocator<char> > >, (std::__ndk1::__variant_detail::_Trait)1>, std::__ndk1::__variant_detail::__base<(std::__ndk1::__variant_detail::__traits<geode::Hook*, std::__ndk1::basic_string<char, std::__ndk1::char_traits<char>, std::__ndk1::allocator<char> > >)1, geode::Hook, std::__ndk1::allocator<char> >&)
PUBLIC 11988 0 std::__ndk1::__tree<std::__ndk1::__value_type<std::__ndk1::basic_string<char, std::__ndk1::char_traits<char>, std::__ndk1::allocator<char> >, std::__ndk1::shared_ptr<geode::Hook> >, std::__ndk1::__map_value_compare<std::__ndk1::basic_string<char, std::__ndk1::char_traits<char>, std::__ndk1::allocator<char> >, std::__ndk1::__value_type<std::__ndk1::basic_string<char, std::__ndk1::char_traits<char>, std::__ndk1::allocator<char> >, std::__ndk1::shared_ptr<geode::Hook> >, std::__ndk1::less<std::__ndk1::basic_string<char, std::__ndk1::char_traits<char>, std::__ndk1::allocator<char> > >, true>, std::__ndk1::allocator<std::__ndk1::__value_type<std::__ndk1::basic_string<char, std::__ndk1::char_traits<char>, std::__ndk1::allocator<char> >, std::__ndk1::shared_ptr<geode::Hook> > > >::find<std::__ndk1::basic_string<char, std::__ndk1::char_traits<char>, std::__ndk1::allocator<char> > >(std::__ndk1::basic_string<char, std::__ndk1::char_traits<char>, std::__ndk1::allocator<char> > const&)
PUBLIC 11ab0 0 std::__ndk1::__tree<std::__ndk1::__value_type<std::__ndk1::basic_string<char, std::__ndk1::char_traits<char>, std::__ndk1::allocator<char> >, std::__ndk1::shared_ptr<geode::Hook> >, std::__ndk1::__map_value_compare<std::__ndk1::basic_string<char, std::__ndk1::char_traits<char>, std::__ndk1::allocator<char> >, std::__ndk1::__value_type<std::__ndk1::basic_string<char, std::__ndk1::char_traits<char>, std::__ndk1::allocator<char> >, std::__ndk1::shared_ptr<geode::Hook> >, std::__ndk1::less<std::__ndk1::basic_string<char, std::__ndk1::char_traits<char>, std::__ndk1::allocator<char> > >, true>, std::__ndk1::allocator<std::__ndk1::__value_type<std::__ndk1::basic_string<char, std::__ndk1::char_traits<char>, std::__ndk1::allocator<char> >, std::__ndk1::shared_ptr<geode::Hook> > > >::erase(std::__ndk1::__tree_const_iterator<std::__ndk1::__value_type<std::__ndk1::basic_string<char, std::__ndk1::char_traits<char>, std::__ndk1::allocator<char> >, std::__ndk1::shared_ptr<geode::Hook> >, std::__ndk1::__tree_node<std::__ndk1::__value_type<std::__ndk1::basic_string<char, std::__ndk1::char_traits<char>, std::__ndk1::allocator<char> >, std::__ndk1::shared_ptr<geode::Hook> >, void*>*, long>)
PUBLIC 11f54 0 std::__ndk1::__tree<std::__ndk1::__value_type<std::__ndk1::basic_string<char, std::__ndk1::char_traits<char>, std::__ndk1::allocator<char> >, std::__ndk1::shared_ptr<geode::Hook> >, std::__ndk1::__map_value_compare<std::__ndk1::basic_string<char, std::__ndk1::char_traits<char>, std::__ndk1::allocator<char> >, std::__ndk1::__value_type<std::__ndk1::basic_string<char, std::__ndk1::char_traits<char>, std::__ndk1::allocator<char> >, std::__ndk1::shared_ptr<geode::Hook> >, std::__ndk1::less<std::__ndk1::basic_string<char, std::__ndk1::char_traits<char>, std::__ndk1::allocator<char> > >, true>, std::__ndk1::allocator<std::__ndk1::__value_type<std::__ndk1::basic_string<char, std::__ndk1::char_traits<char>, std::__ndk1::allocator<char> >, std::__ndk1::shared_ptr<geode::Hook> > > >::destroy(std::__ndk1::__tree_node<std::__ndk1::__value_type<std::__ndk1::basic_string<char, std::__ndk1::char_traits<char>, std::__ndk1::allocator<char> >, std::__ndk1::shared_ptr<geode::Hook> >, void*>*)
PUBLIC 11fd8 0 geode::modifier::AsStaticFunction_loadFromItems<MyEditButtonBar, void (MyEditButtonBar::*)(cocos2d::CCArray*, int, int, bool)>::Impl<void (MyEditButtonBar::*)(cocos2d::CCArray*, int, int, bool)>::function(MyEditButtonBar*, cocos2d::CCArray*, int, int, bool)
PUBLIC 12314 0 std::__ndk1::shared_ptr<tulip::hook::CallingConvention>::~shared_ptr[abi:ne190000]()
PUBLIC 12364 0 tulip::hook::HandlerMetadata::~HandlerMetadata()
PUBLIC 123c8 0 geode::modifier::FieldIntermediate<MyEditButtonBar, EditButtonBar>::self()
PUBLIC 12550 0 MyEditButtonBar::updateUI(bool)
PUBLIC 12eb4 0 geode::modifier::FieldIntermediate<MyEditButtonBar, EditButtonBar>::fieldDestructor(void*)
PUBLIC 12eb8 0 geode::cast::traverseTypeinfoFor(void*, geode::cast::ClassTypeinfoType const*, char const*)
PUBLIC 12fb0 0 geode::cocos::CCArrayExt<cocos2d::CCNode*, cocos2d::CCNode>::~CCArrayExt()
PUBLIC 12fcc 0 geode::cocos::CCArrayExt<ButtonPage*, ButtonPage>::~CCArrayExt()
PUBLIC 12fe8 0 std::__ndk1::__tree<std::__ndk1::__value_type<std::__ndk1::basic_string<char, std::__ndk1::char_traits<char>, std::__ndk1::allocator<char> >, std::__ndk1::shared_ptr<geode::Hook> >, std::__ndk1::__map_value_compare<std::__ndk1::basic_string<char, std::__ndk1::char_traits<char>, std::__ndk1::allocator<char> >, std::__ndk1::__value_type<std::__ndk1::basic_string<char, std::__ndk1::char_traits<char>, std::__ndk1::allocator<char> >, std::__ndk1::shared_ptr<geode::Hook> >, std::__ndk1::less<std::__ndk1::basic_string<char, std::__ndk1::char_traits<char>, std::__ndk1::allocator<char> > >, true>, std::__ndk1::allocator<std::__ndk1::__value_type<std::__ndk1::basic_string<char, std::__ndk1::char_traits<char>, std::__ndk1::allocator<char> >, std::__ndk1::shared_ptr<geode::Hook> > > >::__emplace_unique_key_args<std::__ndk1::basic_string<char, std::__ndk1::char_traits<char>, std::__ndk1::allocator<char> >, std::__ndk1::piecewise_construct_t const&, std::__ndk1::tuple<std::__ndk1::basic_string<char, std::__ndk1::char_traits<char>, std::__ndk1::allocator<char> >&&>, std::__ndk1::tuple<> >(std::__ndk1::basic_string<char, std::__ndk1::char_traits<char>, std::__ndk1::allocator<char> > const&, std::__ndk1::piecewise_construct_t const&, std::__ndk1::tuple<std::__ndk1::basic_string<char, std::__ndk1::char_traits<char>, std::__ndk1::allocator<char> >&&>, std::__ndk1::tuple<>)
PUBLIC 13150 0 std::__ndk1::unique_ptr<std::__ndk1::__tree_node<std::__ndk1::__value_type<std::__ndk1::basic_string<char, std::__ndk1::char_traits<char>, std::__ndk1::allocator<char> >, std::__ndk1::shared_ptr<geode::Hook> >, void*>, std::__ndk1::__tree_node_destructor<std::__ndk1::allocator<std::__ndk1::__tree_node<std::__ndk1::__value_type<std::__ndk1::basic_string<char, std::__ndk1::char_traits<char>, std::__ndk1::allocator<char> >, std::__ndk1::shared_ptr<geode::Hook> >, void*> > > >::~unique_ptr[abi:ne190000]()
PUBLIC 131cc 0 std::__ndk1::__tree_balance_after_insert[abi:ne190000]<std::__ndk1::__tree_node_base<void*>*>(std::__ndk1::__tree_node_base<void*>*, std::__ndk1::__tree_node_base<void*>*)
PUBLIC 13374 0 geode::modifier::ModifyDerive<MyEditorUI, EditorUI>::apply()
PUBLIC 141e8 0 geode::modifier::ModifyBase<geode::modifier::ModifyDerive<MyEditorUI, EditorUI> >::apply()
PUBLIC 141ec 0 geode::modifier::ModifyBase<geode::modifier::ModifyDerive<MyEditorUI, EditorUI> >::setHookPriority(std::__ndk1::basic_string_view<char, std::__ndk1::char_traits<char> >, int)
PUBLIC 14438 0 std::__ndk1::__tree<std::__ndk1::__value_type<std::__ndk1::basic_string<char, std::__ndk1::char_traits<char>, std::__ndk1::allocator<char> >, std::__ndk1::shared_ptr<geode::Hook> >, std::__ndk1::__map_value_compare<std::__ndk1::basic_string<char, std::__ndk1::char_traits<char>, std::__ndk1::allocator<char> >, std::__ndk1::__value_type<std::__ndk1::basic_string<char, std::__ndk1::char_traits<char>, std::__ndk1::allocator<char> >, std::__ndk1::shared_ptr<geode::Hook> >, std::__ndk1::less<std::__ndk1::basic_string<char, std::__ndk1::char_traits<char>, std::__ndk1::allocator<char> > >, true>, std::__ndk1::allocator<std::__ndk1::__value_type<std::__ndk1::basic_string<char, std::__ndk1::char_traits<char>, std::__ndk1::allocator<char> >, std::__ndk1::shared_ptr<geode::Hook> > > >::__emplace_unique_key_args<std::__ndk1::basic_string<char, std::__ndk1::char_traits<char>, std::__ndk1::allocator<char> >, std::__ndk1::piecewise_construct_t const&, std::__ndk1::tuple<std::__ndk1::basic_string<char, std::__ndk1::char_traits<char>, std::__ndk1::allocator<char> > const&>, std::__ndk1::tuple<> >(std::__ndk1::basic_string<char, std::__ndk1::char_traits<char>, std::__ndk1::allocator<char> > const&, std::__ndk1::piecewise_construct_t const&, std::__ndk1::tuple<std::__ndk1::basic_string<char, std::__ndk1::char_traits<char>, std::__ndk1::allocator<char> > const&>, std::__ndk1::tuple<>)
PUBLIC 1460c 0 _ZN5geode15UnwrapExceptionC2IRNSt6__ndk112basic_stringIcNS2_11char_traitsIcEENS2_9allocatorIcEEEEQsr4implE18IsStringStreamableIT_EEENS_4impl6ErrTagEOSA_
PUBLIC 14774 0 std::__ndk1::__variant_detail::__visitation::__base::__dispatcher<(unsigned long)0>::__dispatch[abi:ne190000]<std::__ndk1::__variant_detail::__dtor<std::__ndk1::__variant_detail::__traits<std::__ndk1::monostate, std::__ndk1::basic_string<char, std::__ndk1::char_traits<char>, std::__ndk1::allocator<char> > >, (std::__ndk1::__variant_detail::_Trait)1>::__destroy[abi:ne190000]()::{lambda(auto:1&)#1}, std::__ndk1::__variant_detail::__base<(std::__ndk1::__variant_detail::__traits<std::__ndk1::monostate, std::__ndk1::basic_string<char, std::__ndk1::char_traits<char>, std::__ndk1::allocator<char> > >)1, std::__ndk1::__variant_detail::__traits, std::__ndk1::allocator<char> >&>(std::__ndk1::__variant_detail::__dtor<std::__ndk1::__variant_detail::__traits<std::__ndk1::monostate, std::__ndk1::basic_string<char, std::__ndk1::char_traits<char>, std::__ndk1::allocator<char> > >, (std::__ndk1::__variant_detail::_Trait)1>, std::__ndk1::__variant_detail::__base<(std::__ndk1::__variant_detail::__traits<std::__ndk1::monostate, std::__ndk1::basic_string<char, std::__ndk1::char_traits<char>, std::__ndk1::allocator<char> > >)1, std::__ndk1::__variant_detail::__traits, std::__ndk1::allocator<char> >&)
PUBLIC 14778 0 std::__ndk1::__variant_detail::__visitation::__base::__dispatcher<(unsigned long)1>::__dispatch[abi:ne190000]<std::__ndk1::__variant_detail::__dtor<std::__ndk1::__variant_detail::__traits<std::__ndk1::monostate, std::__ndk1::basic_string<char, std::__ndk1::char_traits<char>, std::__ndk1::allocator<char> > >, (std::__ndk1::__variant_detail::_Trait)1>::__destroy[abi:ne190000]()::{lambda(auto:1&)#1}, std::__ndk1::__variant_detail::__base<(std::__ndk1::__variant_detail::__traits<std::__ndk1::monostate, std::__ndk1::basic_string<char, std::__ndk1::char_traits<char>, std::__ndk1::allocator<char> > >)1, std::__ndk1::__variant_detail::__traits, std::__ndk1::allocator<char> >&>(std::__ndk1::__variant_detail::__dtor<std::__ndk1::__variant_detail::__traits<std::__ndk1::monostate, std::__ndk1::basic_string<char, std::__ndk1::char_traits<char>, std::__ndk1::allocator<char> > >, (std::__ndk1::__variant_detail::_Trait)1>, std::__ndk1::__variant_detail::__base<(std::__ndk1::__variant_detail::__traits<std::__ndk1::monostate, std::__ndk1::basic_string<char, std::__ndk1::char_traits<char>, std::__ndk1::allocator<char> > >)1, std::__ndk1::__variant_detail::__traits, std::__ndk1::allocator<char> >&)
PUBLIC 1478c 0 geode::modifier::AsStaticFunction_init<MyEditorUI, bool (MyEditorUI::*)(LevelEditorLayer*)>::Impl<bool (MyEditorUI::*)(LevelEditorLayer*)>::function(MyEditorUI*, LevelEditorLayer*)
PUBLIC 15108 0 geode::Hook::create<void (*)(MyEditorUI*, cocos2d::CCObject*)>(void*, void (*)(MyEditorUI*, cocos2d::CCObject*), std::__ndk1::basic_string<char, std::__ndk1::char_traits<char>, std::__ndk1::allocator<char> > const&, tulip::hook::TulipConvention, tulip::hook::HookMetadata const&)
PUBLIC 1528c 0 geode::modifier::AsStaticFunction_onSelectBuildTab<MyEditorUI, void (MyEditorUI::*)(cocos2d::CCObject*)>::Impl<void (MyEditorUI::*)(cocos2d::CCObject*)>::function(MyEditorUI*, cocos2d::CCObject*)
PUBLIC 152c0 0 geode::modifier::AsStaticFunction_selectBuildTab<MyEditorUI, void (MyEditorUI::*)(int)>::Impl<void (MyEditorUI::*)(int)>::function(MyEditorUI*, int)
PUBLIC 15650 0 geode::modifier::AsStaticFunction_showUI<MyEditorUI, void (MyEditorUI::*)(bool)>::Impl<void (MyEditorUI::*)(bool)>::function(MyEditorUI*, bool)
PUBLIC 158bc 0 geode::modifier::AsStaticFunction_toggleMode<MyEditorUI, void (MyEditorUI::*)(cocos2d::CCObject*)>::Impl<void (MyEditorUI::*)(cocos2d::CCObject*)>::function(MyEditorUI*, cocos2d::CCObject*)
PUBLIC 161a4 0 geode::modifier::AsStaticFunction_updateDeleteButtons<MyEditorUI, void (MyEditorUI::*)()>::Impl<void (MyEditorUI::*)()>::function(MyEditorUI*)
PUBLIC 16200 0 std::__ndk1::__function::__func<MyEditorUI::init(LevelEditorLayer*)::{lambda(EditorUI*, CCMenuItemToggler*)#1}, std::__ndk1::allocator<MyEditorUI::init(LevelEditorLayer*)::{lambda(EditorUI*, CCMenuItemToggler*)#1}>, cocos2d::CCNode* (EditorUI*, CCMenuItemToggler*)>::~__func()
PUBLIC 16204 0 std::__ndk1::__function::__func<MyEditorUI::init(LevelEditorLayer*)::{lambda(EditorUI*, CCMenuItemToggler*)#1}, std::__ndk1::allocator<MyEditorUI::init(LevelEditorLayer*)::{lambda(EditorUI*, CCMenuItemToggler*)#1}>, cocos2d::CCNode* (EditorUI*, CCMenuItemToggler*)>::__clone() const
PUBLIC 16228 0 std::__ndk1::__function::__func<MyEditorUI::init(LevelEditorLayer*)::{lambda(EditorUI*, CCMenuItemToggler*)#1}, std::__ndk1::allocator<MyEditorUI::init(LevelEditorLayer*)::{lambda(EditorUI*, CCMenuItemToggler*)#1}>, cocos2d::CCNode* (EditorUI*, CCMenuItemToggler*)>::__clone(std::__ndk1::__function::__base<cocos2d::CCNode* (EditorUI*, CCMenuItemToggler*)>*) const
PUBLIC 16238 0 std::__ndk1::__function::__func<MyEditorUI::init(LevelEditorLayer*)::{lambda(EditorUI*, CCMenuItemToggler*)#1}, std::__ndk1::allocator<MyEditorUI::init(LevelEditorLayer*)::{lambda(EditorUI*, CCMenuItemToggler*)#1}>, cocos2d::CCNode* (EditorUI*, CCMenuItemToggler*)>::destroy()
PUBLIC 1623c 0 std::__ndk1::__function::__func<MyEditorUI::init(LevelEditorLayer*)::{lambda(EditorUI*, CCMenuItemToggler*)#1}, std::__ndk1::allocator<MyEditorUI::init(LevelEditorLayer*)::{lambda(EditorUI*, CCMenuItemToggler*)#1}>, cocos2d::CCNode* (EditorUI*, CCMenuItemToggler*)>::destroy_deallocate()
PUBLIC 16240 0 std::__ndk1::__function::__func<MyEditorUI::init(LevelEditorLayer*)::{lambda(EditorUI*, CCMenuItemToggler*)#1}, std::__ndk1::allocator<MyEditorUI::init(LevelEditorLayer*)::{lambda(EditorUI*, CCMenuItemToggler*)#1}>, cocos2d::CCNode* (EditorUI*, CCMenuItemToggler*)>::operator()(EditorUI*&&, CCMenuItemToggler*&&)
PUBLIC 162e8 0 std::__ndk1::__function::__func<MyEditorUI::init(LevelEditorLayer*)::{lambda(EditorUI*, CCMenuItemToggler*)#1}, std::__ndk1::allocator<MyEditorUI::init(LevelEditorLayer*)::{lambda(EditorUI*, CCMenuItemToggler*)#1}>, cocos2d::CCNode* (EditorUI*, CCMenuItemToggler*)>::target(std::type_info const&) const
PUBLIC 16304 0 std::__ndk1::__function::__func<MyEditorUI::init(LevelEditorLayer*)::{lambda(EditorUI*, CCMenuItemToggler*)#1}, std::__ndk1::allocator<MyEditorUI::init(LevelEditorLayer*)::{lambda(EditorUI*, CCMenuItemToggler*)#1}>, cocos2d::CCNode* (EditorUI*, CCMenuItemToggler*)>::target_type() const
PUBLIC 16310 0 EditorTabUtils::setTabIcons(CCMenuItemToggler*, cocos2d::CCNode*, cocos2d::CCNode*)
PUBLIC 1643c 0 std::__ndk1::__function::__func<MyEditorUI::init(LevelEditorLayer*)::{lambda(EditorUI*, bool, cocos2d::CCNode*)#1}, std::__ndk1::allocator<MyEditorUI::init(LevelEditorLayer*)::{lambda(EditorUI*, bool, cocos2d::CCNode*)#1}>, void (EditorUI*, bool, cocos2d::CCNode*)>::~__func()
PUBLIC 16440 0 std::__ndk1::__function::__func<MyEditorUI::init(LevelEditorLayer*)::{lambda(EditorUI*, bool, cocos2d::CCNode*)#1}, std::__ndk1::allocator<MyEditorUI::init(LevelEditorLayer*)::{lambda(EditorUI*, bool, cocos2d::CCNode*)#1}>, void (EditorUI*, bool, cocos2d::CCNode*)>::__clone() const
PUBLIC 16464 0 std::__ndk1::__function::__func<MyEditorUI::init(LevelEditorLayer*)::{lambda(EditorUI*, bool, cocos2d::CCNode*)#1}, std::__ndk1::allocator<MyEditorUI::init(LevelEditorLayer*)::{lambda(EditorUI*, bool, cocos2d::CCNode*)#1}>, void (EditorUI*, bool, cocos2d::CCNode*)>::__clone(std::__ndk1::__function::__base<void (EditorUI*, bool, cocos2d::CCNode*)>*) const
PUBLIC 16474 0 std::__ndk1::__function::__func<MyEditorUI::init(LevelEditorLayer*)::{lambda(EditorUI*, bool, cocos2d::CCNode*)#1}, std::__ndk1::allocator<MyEditorUI::init(LevelEditorLayer*)::{lambda(EditorUI*, bool, cocos2d::CCNode*)#1}>, void (EditorUI*, bool, cocos2d::CCNode*)>::destroy()
PUBLIC 16478 0 std::__ndk1::__function::__func<MyEditorUI::init(LevelEditorLayer*)::{lambda(EditorUI*, bool, cocos2d::CCNode*)#1}, std::__ndk1::allocator<MyEditorUI::init(LevelEditorLayer*)::{lambda(EditorUI*, bool, cocos2d::CCNode*)#1}>, void (EditorUI*, bool, cocos2d::CCNode*)>::destroy_deallocate()
PUBLIC 1647c 0 std::__ndk1::__function::__func<MyEditorUI::init(LevelEditorLayer*)::{lambda(EditorUI*, bool, cocos2d::CCNode*)#1}, std::__ndk1::allocator<MyEditorUI::init(LevelEditorLayer*)::{lambda(EditorUI*, bool, cocos2d::CCNode*)#1}>, void (EditorUI*, bool, cocos2d::CCNode*)>::operator()(EditorUI*&&, bool&&, cocos2d::CCNode*&&)
PUBLIC 164d8 0 std::__ndk1::__function::__func<MyEditorUI::init(LevelEditorLayer*)::{lambda(EditorUI*, bool, cocos2d::CCNode*)#1}, std::__ndk1::allocator<MyEditorUI::init(LevelEditorLayer*)::{lambda(EditorUI*, bool, cocos2d::CCNode*)#1}>, void (EditorUI*, bool, cocos2d::CCNode*)>::target(std::type_info const&) const
PUBLIC 164f4 0 std::__ndk1::__function::__func<MyEditorUI::init(LevelEditorLayer*)::{lambda(EditorUI*, bool, cocos2d::CCNode*)#1}, std::__ndk1::allocator<MyEditorUI::init(LevelEditorLayer*)::{lambda(EditorUI*, bool, cocos2d::CCNode*)#1}>, void (EditorUI*, bool, cocos2d::CCNode*)>::target_type() const
PUBLIC 16500 0 std::__ndk1::__function::__base<cocos2d::CCNode* (EditorUI*, CCMenuItemToggler*)>::~__base()
PUBLIC 16504 0 std::__ndk1::__function::__func<MyEditorUI::init(LevelEditorLayer*)::{lambda(EditorUI*, CCMenuItemToggler*)#2}, std::__ndk1::allocator<MyEditorUI::init(LevelEditorLayer*)::{lambda(EditorUI*, CCMenuItemToggler*)#2}>, cocos2d::CCNode* (EditorUI*, CCMenuItemToggler*)>::~__func()
PUBLIC 16508 0 std::__ndk1::__function::__func<MyEditorUI::init(LevelEditorLayer*)::{lambda(EditorUI*, CCMenuItemToggler*)#2}, std::__ndk1::allocator<MyEditorUI::init(LevelEditorLayer*)::{lambda(EditorUI*, CCMenuItemToggler*)#2}>, cocos2d::CCNode* (EditorUI*, CCMenuItemToggler*)>::__clone() const
PUBLIC 1652c 0 std::__ndk1::__function::__func<MyEditorUI::init(LevelEditorLayer*)::{lambda(EditorUI*, CCMenuItemToggler*)#2}, std::__ndk1::allocator<MyEditorUI::init(LevelEditorLayer*)::{lambda(EditorUI*, CCMenuItemToggler*)#2}>, cocos2d::CCNode* (EditorUI*, CCMenuItemToggler*)>::__clone(std::__ndk1::__function::__base<cocos2d::CCNode* (EditorUI*, CCMenuItemToggler*)>*) const
PUBLIC 1653c 0 std::__ndk1::__function::__func<MyEditorUI::init(LevelEditorLayer*)::{lambda(EditorUI*, CCMenuItemToggler*)#2}, std::__ndk1::allocator<MyEditorUI::init(LevelEditorLayer*)::{lambda(EditorUI*, CCMenuItemToggler*)#2}>, cocos2d::CCNode* (EditorUI*, CCMenuItemToggler*)>::destroy()
PUBLIC 16540 0 std::__ndk1::__function::__func<MyEditorUI::init(LevelEditorLayer*)::{lambda(EditorUI*, CCMenuItemToggler*)#2}, std::__ndk1::allocator<MyEditorUI::init(LevelEditorLayer*)::{lambda(EditorUI*, CCMenuItemToggler*)#2}>, cocos2d::CCNode* (EditorUI*, CCMenuItemToggler*)>::destroy_deallocate()
PUBLIC 16544 0 std::__ndk1::__function::__func<MyEditorUI::init(LevelEditorLayer*)::{lambda(EditorUI*, CCMenuItemToggler*)#2}, std::__ndk1::allocator<MyEditorUI::init(LevelEditorLayer*)::{lambda(EditorUI*, CCMenuItemToggler*)#2}>, cocos2d::CCNode* (EditorUI*, CCMenuItemToggler*)>::operator()(EditorUI*&&, CCMenuItemToggler*&&)
PUBLIC 1662c 0 std::__ndk1::__function::__func<MyEditorUI::init(LevelEditorLayer*)::{lambda(EditorUI*, CCMenuItemToggler*)#2}, std::__ndk1::allocator<MyEditorUI::init(LevelEditorLayer*)::{lambda(EditorUI*, CCMenuItemToggler*)#2}>, cocos2d::CCNode* (EditorUI*, CCMenuItemToggler*)>::target(std::type_info const&) const
PUBLIC 16648 0 std::__ndk1::__function::__func<MyEditorUI::init(LevelEditorLayer*)::{lambda(EditorUI*, CCMenuItemToggler*)#2}, std::__ndk1::allocator<MyEditorUI::init(LevelEditorLayer*)::{lambda(EditorUI*, CCMenuItemToggler*)#2}>, cocos2d::CCNode* (EditorUI*, CCMenuItemToggler*)>::target_type() const
PUBLIC 16654 0 std::__ndk1::__function::__base<void (EditorUI*, bool, cocos2d::CCNode*)>::~__base()
PUBLIC 16658 0 std::__ndk1::__function::__func<MyEditorUI::init(LevelEditorLayer*)::{lambda(EditorUI*, bool, cocos2d::CCNode*)#2}, std::__ndk1::allocator<MyEditorUI::init(LevelEditorLayer*)::{lambda(EditorUI*, bool, cocos2d::CCNode*)#2}>, void (EditorUI*, bool, cocos2d::CCNode*)>::~__func()
PUBLIC 1665c 0 std::__ndk1::__function::__func<MyEditorUI::init(LevelEditorLayer*)::{lambda(EditorUI*, bool, cocos2d::CCNode*)#2}, std::__ndk1::allocator<MyEditorUI::init(LevelEditorLayer*)::{lambda(EditorUI*, bool, cocos2d::CCNode*)#2}>, void (EditorUI*, bool, cocos2d::CCNode*)>::__clone() const
PUBLIC 16680 0 std::__ndk1::__function::__func<MyEditorUI::init(LevelEditorLayer*)::{lambda(EditorUI*, bool, cocos2d::CCNode*)#2}, std::__ndk1::allocator<MyEditorUI::init(LevelEditorLayer*)::{lambda(EditorUI*, bool, cocos2d::CCNode*)#2}>, void (EditorUI*, bool, cocos2d::CCNode*)>::__clone(std::__ndk1::__function::__base<void (EditorUI*, bool, cocos2d::CCNode*)>*) const
PUBLIC 16690 0 std::__ndk1::__function::__func<MyEditorUI::init(LevelEditorLayer*)::{lambda(EditorUI*, bool, cocos2d::CCNode*)#2}, std::__ndk1::allocator<MyEditorUI::init(LevelEditorLayer*)::{lambda(EditorUI*, bool, cocos2d::CCNode*)#2}>, void (EditorUI*, bool, cocos2d::CCNode*)>::destroy()
PUBLIC 16694 0 std::__ndk1::__function::__func<MyEditorUI::init(LevelEditorLayer*)::{lambda(EditorUI*, bool, cocos2d::CCNode*)#2}, std::__ndk1::allocator<MyEditorUI::init(LevelEditorLayer*)::{lambda(EditorUI*, bool, cocos2d::CCNode*)#2}>, void (EditorUI*, bool, cocos2d::CCNode*)>::destroy_deallocate()
PUBLIC 16698 0 std::__ndk1::__function::__func<MyEditorUI::init(LevelEditorLayer*)::{lambda(EditorUI*, bool, cocos2d::CCNode*)#2}, std::__ndk1::allocator<MyEditorUI::init(LevelEditorLayer*)::{lambda(EditorUI*, bool, cocos2d::CCNode*)#2}>, void (EditorUI*, bool, cocos2d::CCNode*)>::operator()(EditorUI*&&, bool&&, cocos2d::CCNode*&&)
PUBLIC 166b0 0 std::__ndk1::__function::__func<MyEditorUI::init(LevelEditorLayer*)::{lambda(EditorUI*, bool, cocos2d::CCNode*)#2}, std::__ndk1::allocator<MyEditorUI::init(LevelEditorLayer*)::{lambda(EditorUI*, bool, cocos2d::CCNode*)#2}>, void (EditorUI*, bool, cocos2d::CCNode*)>::target(std::type_info const&) const
PUBLIC 166cc 0 std::__ndk1::__function::__func<MyEditorUI::init(LevelEditorLayer*)::{lambda(EditorUI*, bool, cocos2d::CCNode*)#2}, std::__ndk1::allocator<MyEditorUI::init(LevelEditorLayer*)::{lambda(EditorUI*, bool, cocos2d::CCNode*)#2}>, void (EditorUI*, bool, cocos2d::CCNode*)>::target_type() const
PUBLIC 166d8 0 MyEditorUI::setTabIcons(cocos2d::CCArray*)
PUBLIC 16898 0 geode::cocos::CCArrayExt<CCMenuItemToggler*, CCMenuItemToggler>::~CCArrayExt()
PUBLIC 168b4 0 MyEditorUI::toggleAll(TabType, int)
PUBLIC 16cb0 0 MyEditorUI::selectEditTab(int)
PUBLIC 16e04 0 MyEditorUI::selectDeleteTab(int)
PUBLIC 16f58 0 geode::modifier::ModifyDerive<LateEditorUI, EditorUI>::apply()
PUBLIC 17620 0 geode::modifier::ModifyBase<geode::modifier::ModifyDerive<LateEditorUI, EditorUI> >::apply()
PUBLIC 17624 0 geode::modifier::ModifyBase<geode::modifier::ModifyDerive<LateEditorUI, EditorUI> >::setHookPriority(std::__ndk1::basic_string_view<char, std::__ndk1::char_traits<char> >, int)
PUBLIC 17870 0 geode::modifier::AsStaticFunction_init<LateEditorUI, bool (LateEditorUI::*)(LevelEditorLayer*)>::Impl<bool (LateEditorUI::*)(LevelEditorLayer*)>::function(LateEditorUI*, LevelEditorLayer*)
PUBLIC 17f08 0 geode::Hook::create<void (*)(LateEditorUI*, cocos2d::CCObject*)>(void*, void (*)(LateEditorUI*, cocos2d::CCObject*), std::__ndk1::basic_string<char, std::__ndk1::char_traits<char>, std::__ndk1::allocator<char> > const&, tulip::hook::TulipConvention, tulip::hook::HookMetadata const&)
PUBLIC 1808c 0 geode::modifier::AsStaticFunction_onPause<LateEditorUI, void (LateEditorUI::*)(cocos2d::CCObject*)>::Impl<void (LateEditorUI::*)(cocos2d::CCObject*)>::function(LateEditorUI*, cocos2d::CCObject*)
PUBLIC 1810c 0 geode::modifier::AsStaticFunction_toggleMode<LateEditorUI, void (LateEditorUI::*)(cocos2d::CCObject*)>::Impl<void (LateEditorUI::*)(cocos2d::CCObject*)>::function(LateEditorUI*, cocos2d::CCObject*)
PUBLIC 1818c 0 geode::modifier::ModifyDerive<hook667<(anonymous namespace)::hook667Parent>, EditorPauseLayer>::apply()
PUBLIC 184ec 0 geode::modifier::ModifyBase<geode::modifier::ModifyDerive<hook667<(anonymous namespace)::hook667Parent>, EditorPauseLayer> >::apply()
PUBLIC 184f0 0 geode::modifier::AsStaticFunction_onResume<hook667<(anonymous namespace)::hook667Parent>, void (hook667<(anonymous namespace)::hook667Parent>::*)(cocos2d::CCObject*)>::Impl<void (hook667<(anonymous namespace)::hook667Parent>::*)(cocos2d::CCObject*)>::function(hook667<(anonymous namespace)::hook667Parent>*, cocos2d::CCObject*)
PUBLIC 18560 0 std::__ndk1::__function::__func<EditorTabs::addTab(EditorUI*, TabData)::$_0, std::__ndk1::allocator<EditorTabs::addTab(EditorUI*, TabData)::$_0>, void (CCMenuItemToggler*)>::~__func()
PUBLIC 18600 0 std::__ndk1::__function::__func<EditorTabs::addTab(EditorUI*, TabData)::$_0, std::__ndk1::allocator<EditorTabs::addTab(EditorUI*, TabData)::$_0>, void (CCMenuItemToggler*)>::~__func()
PUBLIC 1869c 0 std::__ndk1::__function::__func<EditorTabs::addTab(EditorUI*, TabData)::$_0, std::__ndk1::allocator<EditorTabs::addTab(EditorUI*, TabData)::$_0>, void (CCMenuItemToggler*)>::__clone() const
PUBLIC 186fc 0 std::__ndk1::__function::__func<EditorTabs::addTab(EditorUI*, TabData)::$_0, std::__ndk1::allocator<EditorTabs::addTab(EditorUI*, TabData)::$_0>, void (CCMenuItemToggler*)>::__clone(std::__ndk1::__function::__base<void (CCMenuItemToggler*)>*) const
PUBLIC 18724 0 std::__ndk1::__function::__func<EditorTabs::addTab(EditorUI*, TabData)::$_0, std::__ndk1::allocator<EditorTabs::addTab(EditorUI*, TabData)::$_0>, void (CCMenuItemToggler*)>::destroy()
PUBLIC 187b8 0 std::__ndk1::__function::__func<EditorTabs::addTab(EditorUI*, TabData)::$_0, std::__ndk1::allocator<EditorTabs::addTab(EditorUI*, TabData)::$_0>, void (CCMenuItemToggler*)>::destroy_deallocate()
PUBLIC 18848 0 std::__ndk1::__function::__func<EditorTabs::addTab(EditorUI*, TabData)::$_0, std::__ndk1::allocator<EditorTabs::addTab(EditorUI*, TabData)::$_0>, void (CCMenuItemToggler*)>::operator()(CCMenuItemToggler*&&)
PUBLIC 18930 0 std::__ndk1::__function::__func<EditorTabs::addTab(EditorUI*, TabData)::$_0, std::__ndk1::allocator<EditorTabs::addTab(EditorUI*, TabData)::$_0>, void (CCMenuItemToggler*)>::target(std::type_info const&) const
PUBLIC 1894c 0 std::__ndk1::__function::__func<EditorTabs::addTab(EditorUI*, TabData)::$_0, std::__ndk1::allocator<EditorTabs::addTab(EditorUI*, TabData)::$_0>, void (CCMenuItemToggler*)>::target_type() const
PUBLIC 18958 0 geode::getMod()
PUBLIC m 18994 0 geodeImplicitEntry
PUBLIC 189d0 0 std::__ndk1::unordered_map<void*, bool, std::__ndk1::hash<void*>, std::__ndk1::equal_to<void*>, std::__ndk1::allocator<std::__ndk1::pair<void* const, bool> > >::~unordered_map[abi:ne190000]()
PUBLIC 18a1c 0 wrapFunction(unsigned long, tulip::hook::WrapperMetadata const&)
PUBLIC 18b50 0 geode::impl::ResultData<void*, std::__ndk1::basic_string<char, std::__ndk1::char_traits<char>, std::__ndk1::allocator<char> > >::unwrapErr() &
PUBLIC 18bc8 0 geode::impl::ResultData<void*, std::__ndk1::basic_string<char, std::__ndk1::char_traits<char>, std::__ndk1::allocator<char> > >::~ResultData()
PUBLIC 18c3c 0 tulip::hook::WrapperMetadata::~WrapperMetadata()
PUBLIC 18ca0 0 cocos2d::CCObject::CCObject()
PUBLIC 18ec4 0 cocos2d::CCObject::~CCObject()
PUBLIC 18ee8 0 CCMenuItemSpriteExtra::create(cocos2d::CCNode*, cocos2d::CCObject*, void (cocos2d::CCObject::*)(cocos2d::CCObject*))
PUBLIC 18efc 0 CCMenuItemToggler::isOn()
PUBLIC 18f04 0 CCMenuItemToggler::setClickable(bool)
PUBLIC 18f10 0 EditorUI::get()
PUBLIC 18f3c 0 cocos2d::CCObject::~CCObject()
PUBLIC 19430 0 _ZN5geode15UnwrapExceptionC2IRPvQsr4implE18IsStringStreamableIT_EEENS_4impl5OkTagEOS4_
PUBLIC 19584 0 std::__ndk1::__variant_detail::__visitation::__base::__dispatcher<(unsigned long)0>::__dispatch[abi:ne190000]<std::__ndk1::__variant_detail::__dtor<std::__ndk1::__variant_detail::__traits<void*, std::__ndk1::basic_string<char, std::__ndk1::char_traits<char>, std::__ndk1::allocator<char> > >, (std::__ndk1::__variant_detail::_Trait)1>::__destroy[abi:ne190000]()::{lambda(auto:1&)#1}, std::__ndk1::__variant_detail::__base<(std::__ndk1::__variant_detail::__traits<void*, std::__ndk1::basic_string<char, std::__ndk1::char_traits<char>, std::__ndk1::allocator<char> > >)1, std::__ndk1::__variant_detail::__traits, std::__ndk1::allocator<char> >&>(std::__ndk1::__variant_detail::__dtor<std::__ndk1::__variant_detail::__traits<void*, std::__ndk1::basic_string<char, std::__ndk1::char_traits<char>, std::__ndk1::allocator<char> > >, (std::__ndk1::__variant_detail::_Trait)1>, std::__ndk1::__variant_detail::__base<(std::__ndk1::__variant_detail::__traits<void*, std::__ndk1::basic_string<char, std::__ndk1::char_traits<char>, std::__ndk1::allocator<char> > >)1, std::__ndk1::__variant_detail::__traits, std::__ndk1::allocator<char> >&)
PUBLIC 19588 0 std::__ndk1::__variant_detail::__visitation::__base::__dispatcher<(unsigned long)1>::__dispatch[abi:ne190000]<std::__ndk1::__variant_detail::__dtor<std::__ndk1::__variant_detail::__traits<void*, std::__ndk1::basic_string<char, std::__ndk1::char_traits<char>, std::__ndk1::allocator<char> > >, (std::__ndk1::__variant_detail::_Trait)1>::__destroy[abi:ne190000]()::{lambda(auto:1&)#1}, std::__ndk1::__variant_detail::__base<(std::__ndk1::__variant_detail::__traits<void*, std::__ndk1::basic_string<char, std::__ndk1::char_traits<char>, std::__ndk1::allocator<char> > >)1, std::__ndk1::__variant_detail::__traits, std::__ndk1::allocator<char> >&>(std::__ndk1::__variant_detail::__dtor<std::__ndk1::__variant_detail::__traits<void*, std::__ndk1::basic_string<char, std::__ndk1::char_traits<char>, std::__ndk1::allocator<char> > >, (std::__ndk1::__variant_detail::_Trait)1>, std::__ndk1::__variant_detail::__base<(std::__ndk1::__variant_detail::__traits<void*, std::__ndk1::basic_string<char, std::__ndk1::char_traits<char>, std::__ndk1::allocator<char> > >)1, std::__ndk1::__variant_detail::__traits, std::__ndk1::allocator<char> >&)
PUBLIC 1959c 0 std::__ndk1::__hash_table<std::__ndk1::__hash_value_type<void*, bool>, std::__ndk1::__unordered_map_hasher<void*, std::__ndk1::__hash_value_type<void*, bool>, std::__ndk1::hash<void*>, std::__ndk1::equal_to<void*>, true>, std::__ndk1::__unordered_map_equal<void*, std::__ndk1::__hash_value_type<void*, bool>, std::__ndk1::equal_to<void*>, std::__ndk1::hash<void*>, true>, std::__ndk1::allocator<std::__ndk1::__hash_value_type<void*, bool> > >::__emplace_unique_key_args<void*, std::__ndk1::piecewise_construct_t const&, std::__ndk1::tuple<void* const&>, std::__ndk1::tuple<> >(void* const&, std::__ndk1::piecewise_construct_t const&, std::__ndk1::tuple<void* const&>, std::__ndk1::tuple<>)
PUBLIC 19aa8 0 __udivti3
PUBLIC 19ab4 0 __udivmodti4
PUBLIC m 19d00 0 __eqtf2
PUBLIC 19da0 0 __unordtf2
PUBLIC 19dd8 0 fmt::v11::detail::write_loc(fmt::v11::basic_appender<char>, fmt::v11::loc_value, fmt::v11::format_specs const&, fmt::v11::detail::locale_ref)
PUBLIC 1a06c 0 fmt::v11::format_facet<std::__ndk1::locale>::~format_facet()
PUBLIC 1a0e8 0 fmt::v11::report_error(char const*)
PUBLIC 1a138 0 fmt::v11::format_error::runtime_error(char const*)
PUBLIC 1a164 0 fmt::v11::format_facet<std::__ndk1::locale>::do_put(fmt::v11::basic_appender<char>, fmt::v11::loc_value, fmt::v11::format_specs const&) const
PUBLIC 1a924 0 fmt::v11::detail::loc_writer<char>::~loc_writer()
PUBLIC 1a988 0 fmt::v11::vformat(fmt::v11::basic_string_view<char>, fmt::v11::basic_format_args<fmt::v11::context>)
PUBLIC 1aad4 0 fmt::v11::detail::vformat_to<char>(fmt::v11::detail::buffer<char>&, fmt::v11::basic_string_view<char>, fmt::v11::detail::vformat_args<char>::type, fmt::v11::detail::locale_ref)
PUBLIC 1b044 0 fmt::v11::detail::is_printable(unsigned int)
PUBLIC 1b26c 0 fmt::v11::detail::dragonbox::to_decimal<float>(float)
PUBLIC 1b548 0 fmt::v11::detail::dragonbox::to_decimal<double>(double)
PUBLIC 1ba84 0 fmt::v11::basic_memory_buffer<char, (unsigned long)500, std::__ndk1::allocator<char> >::grow(fmt::v11::detail::buffer<char>&, unsigned long)
PUBLIC 1bafc 0 fmt::v11::format_facet<std::__ndk1::locale>::~format_facet()
PUBLIC 1bb88 0 fmt::v11::format_error::~format_error()
PUBLIC 1bbac 0 fmt::v11::detail::copy_noinline<char, char const*, fmt::v11::basic_appender<char> >(char const*, char const*, fmt::v11::basic_appender<char>)
PUBLIC 1bcfc 0 fmt::v11::detail::default_arg_formatter<char>::operator()<bool>(bool)
PUBLIC 1bd64 0 fmt::v11::detail::default_arg_formatter<char>::operator()<char>(char)
PUBLIC 1bdf4 0 fmt::v11::detail::default_arg_formatter<char>::operator()<float>(float)
PUBLIC 1bee0 0 fmt::v11::detail::default_arg_formatter<char>::operator()<double>(double)
PUBLIC 1bfcc 0 fmt::v11::detail::default_arg_formatter<char>::operator()<char const*>(char const*)
PUBLIC 1c014 0 fmt::v11::detail::default_arg_formatter<char>::operator()<void const*>(void const*)
PUBLIC 1c0ac 0 _ZN3fmt3v116detail5writeIcNS0_14basic_appenderIcEEiTnNSt6__ndk19enable_ifIXaaaasr11is_integralIT1_EE5valuentsr3std7is_sameIS7_bEE5valuentsr3std7is_sameIS7_T_EE5valueEiE4typeELi0EEET0_SB_S7_
PUBLIC 1c30c 0 fmt::v11::detail::copy_noinline<char, char*, fmt::v11::basic_appender<char> >(char*, char*, fmt::v11::basic_appender<char>)
PUBLIC 1c45c 0 _ZN3fmt3v116detail5writeIcNS0_14basic_appenderIcEEjTnNSt6__ndk19enable_ifIXaaaasr11is_integralIT1_EE5valuentsr3std7is_sameIS7_bEE5valuentsr3std7is_sameIS7_T_EE5valueEiE4typeELi0EEET0_SB_S7_
PUBLIC 1c63c 0 _ZN3fmt3v116detail5writeIcNS0_14basic_appenderIcEExTnNSt6__ndk19enable_ifIXaaaasr11is_integralIT1_EE5valuentsr3std7is_sameIS7_bEE5valuentsr3std7is_sameIS7_T_EE5valueEiE4typeELi0EEET0_SB_S7_
PUBLIC 1c8c0 0 _ZN3fmt3v116detail5writeIcNS0_14basic_appenderIcEEyTnNSt6__ndk19enable_ifIXaaaasr11is_integralIT1_EE5valuentsr3std7is_sameIS7_bEE5valuentsr3std7is_sameIS7_T_EE5valueEiE4typeELi0EEET0_SB_S7_
PUBLIC 1cac8 0 _ZN3fmt3v116detail5writeIcNS0_14basic_appenderIcEEnTnNSt6__ndk19enable_ifIXaaaasr11is_integralIT1_EE5valuentsr3std7is_sameIS7_bEE5valuentsr3std7is_sameIS7_T_EE5valueEiE4typeELi0EEET0_SB_S7_
PUBLIC 1ce28 0 _ZN3fmt3v116detail5writeIcNS0_14basic_appenderIcEEoTnNSt6__ndk19enable_ifIXaaaasr11is_integralIT1_EE5valuentsr3std7is_sameIS7_bEE5valuentsr3std7is_sameIS7_T_EE5valueEiE4typeELi0EEET0_SB_S7_
PUBLIC 1d13c 0 _ZN3fmt3v116detail5writeIcNS0_14basic_appenderIcEEbTnNSt6__ndk19enable_ifIXsr3std7is_sameIT1_bEE5valueEiE4typeELi0EEET0_SA_S7_RKNS0_12format_specsENS1_10locale_refE
PUBLIC 1d3cc 0 fmt::v11::detail::write_int_noinline<char, fmt::v11::basic_appender<char>, unsigned int>(fmt::v11::basic_appender<char>, fmt::v11::detail::write_int_arg<unsigned int>, fmt::v11::format_specs const&, fmt::v11::detail::locale_ref)
PUBLIC 1e194 0 fmt::v11::detail::fill<char, fmt::v11::basic_appender<char> >(fmt::v11::basic_appender<char>, unsigned long, fmt::v11::detail::fill_t const&)
PUBLIC 1e364 0 fmt::v11::detail::write_padded<char, (fmt::v11::align::type)1, fmt::v11::basic_appender<char>, fmt::v11::detail::write_char<char, fmt::v11::basic_appender<char> >(fmt::v11::basic_appender<char>, char, fmt::v11::format_specs const&)::{lambda(fmt::v11::basic_appender<char>&)#1}>(fmt::v11::basic_appender<char>, fmt::v11::format_specs const&, unsigned long, unsigned long, fmt::v11::detail::write_char<char, fmt::v11::basic_appender<char> >(fmt::v11::basic_appender<char>, char, fmt::v11::format_specs const&)::{lambda(fmt::v11::basic_appender<char>&)#1})
PUBLIC 1e5a0 0 fmt::v11::detail::write_escaped_cp<fmt::v11::basic_appender<char>, char>(fmt::v11::basic_appender<char>, fmt::v11::detail::find_escape_result<char> const&)
PUBLIC 1e8ac 0 fmt::v11::detail::write_codepoint<(unsigned long)2, char, fmt::v11::basic_appender<char> >(fmt::v11::basic_appender<char>, char, unsigned int)
PUBLIC 1ea24 0 fmt::v11::detail::write_codepoint<(unsigned long)8, char, fmt::v11::basic_appender<char> >(fmt::v11::basic_appender<char>, char, unsigned int)
PUBLIC 1eb9c 0 fmt::v11::detail::write_padded<char, (fmt::v11::align::type)1, fmt::v11::basic_appender<char>, fmt::v11::detail::write_nonfinite<char, fmt::v11::basic_appender<char> >(fmt::v11::basic_appender<char>, bool, fmt::v11::format_specs, fmt::v11::sign::type)::{lambda(fmt::v11::basic_appender<char>&)#1}>(fmt::v11::basic_appender<char>, fmt::v11::format_specs const&, unsigned long, unsigned long, fmt::v11::detail::write_nonfinite<char, fmt::v11::basic_appender<char> >(fmt::v11::basic_appender<char>, bool, fmt::v11::format_specs, fmt::v11::sign::type)::{lambda(fmt::v11::basic_appender<char>&)#1})
PUBLIC 1eddc 0 fmt::v11::detail::do_write_float<char, fmt::v11::basic_appender<char>, fmt::v11::detail::dragonbox::decimal_fp<float>, fmt::v11::detail::digit_grouping<char> >(fmt::v11::basic_appender<char>, fmt::v11::detail::dragonbox::decimal_fp<float> const&, fmt::v11::format_specs const&, fmt::v11::detail::float_specs, fmt::v11::detail::locale_ref)
PUBLIC 1fa50 0 fmt::v11::detail::do_write_float<char, fmt::v11::basic_appender<char>, fmt::v11::detail::dragonbox::decimal_fp<float>, fmt::v11::detail::digit_grouping<char> >(fmt::v11::basic_appender<char>, fmt::v11::detail::dragonbox::decimal_fp<float> const&, fmt::v11::format_specs const&, fmt::v11::detail::float_specs, fmt::v11::detail::locale_ref)::{lambda(fmt::v11::basic_appender<char>(fmt::v11::basic_appender<char>))#1}::operator() const
PUBLIC 1fba4 0 fmt::v11::detail::digit_grouping<char>::digit_grouping(fmt::v11::detail::locale_ref, bool)
PUBLIC 1fe0c 0 fmt::v11::detail::digit_grouping<char>::~digit_grouping()
PUBLIC 1fe50 0 fmt::v11::detail::write_exponent<char, fmt::v11::basic_appender<char> >(int, fmt::v11::basic_appender<char>)
PUBLIC 20020 0 _ZN3fmt3v116detail17write_significandIcjTnNSt6__ndk19enable_ifIXsr3std11is_integralIT0_EE5valueEiE4typeELi0EEEPT_S9_S5_iiS8_
PUBLIC 2019c 0 std::__ndk1::basic_string<char, std::__ndk1::char_traits<char>, std::__ndk1::allocator<char> >::__assign_no_alias<true>(char const*, unsigned long)
PUBLIC 20248 0 std::__ndk1::basic_string<char, std::__ndk1::char_traits<char>, std::__ndk1::allocator<char> >::__assign_no_alias<false>(char const*, unsigned long)
PUBLIC 20384 0 fmt::v11::detail::digit_grouping<char>::apply<fmt::v11::basic_appender<char>, char>(fmt::v11::basic_appender<char>, fmt::v11::basic_string_view<char>) const
PUBLIC 2073c 0 fmt::v11::basic_memory_buffer<int, (unsigned long)500, std::__ndk1::allocator<int> >::grow(fmt::v11::detail::buffer<int>&, unsigned long)
PUBLIC 207dc 0 fmt::v11::detail::do_write_float<char, fmt::v11::basic_appender<char>, fmt::v11::detail::dragonbox::decimal_fp<double>, fmt::v11::detail::digit_grouping<char> >(fmt::v11::basic_appender<char>, fmt::v11::detail::dragonbox::decimal_fp<double> const&, fmt::v11::format_specs const&, fmt::v11::detail::float_specs, fmt::v11::detail::locale_ref)
PUBLIC 2148c 0 fmt::v11::detail::do_write_float<char, fmt::v11::basic_appender<char>, fmt::v11::detail::dragonbox::decimal_fp<double>, fmt::v11::detail::digit_grouping<char> >(fmt::v11::basic_appender<char>, fmt::v11::detail::dragonbox::decimal_fp<double> const&, fmt::v11::format_specs const&, fmt::v11::detail::float_specs, fmt::v11::detail::locale_ref)::{lambda(fmt::v11::basic_appender<char>(fmt::v11::basic_appender<char>))#1}::operator() const
PUBLIC 215e4 0 _ZN3fmt3v116detail17write_significandIcmTnNSt6__ndk19enable_ifIXsr3std11is_integralIT0_EE5valueEiE4typeELi0EEEPT_S9_S5_iiS8_
PUBLIC 21774 0 fmt::v11::detail::write_float<char, fmt::v11::basic_appender<char>, long double>(fmt::v11::basic_appender<char>, long double, fmt::v11::format_specs, fmt::v11::detail::locale_ref)
PUBLIC 22258 0 fmt::v11::detail::write_padded<char, (fmt::v11::align::type)2, fmt::v11::basic_appender<char>, fmt::v11::detail::write_bytes<char, (fmt::v11::align::type)2, fmt::v11::basic_appender<char> >(fmt::v11::basic_appender<char>, fmt::v11::basic_string_view<char>, fmt::v11::format_specs const&)::{lambda(fmt::v11::basic_appender<char>&)#1}>(fmt::v11::basic_appender<char>, fmt::v11::format_specs const&, unsigned long, unsigned long, fmt::v11::detail::write_bytes<char, (fmt::v11::align::type)2, fmt::v11::basic_appender<char> >(fmt::v11::basic_appender<char>, fmt::v11::basic_string_view<char>, fmt::v11::format_specs const&)::{lambda(fmt::v11::basic_appender<char>&)#1})
PUBLIC 22434 0 fmt::v11::detail::format_dragon(fmt::v11::detail::basic_fp<unsigned __int128>, unsigned int, int, fmt::v11::detail::buffer<char>&, int&)
PUBLIC 23858 0 fmt::v11::detail::bigint::operator<<=(int)
PUBLIC 2397c 0 fmt::v11::detail::bigint::assign_pow10(int)
PUBLIC 240d8 0 fmt::v11::detail::bigint::divmod_assign(fmt::v11::detail::bigint const&)
PUBLIC 243fc 0 fmt::v11::basic_memory_buffer<unsigned int, (unsigned long)32, std::__ndk1::allocator<unsigned int> >::grow(fmt::v11::detail::buffer<unsigned int>&, unsigned long)
PUBLIC 2449c 0 fmt::v11::detail::do_write_float<char, fmt::v11::basic_appender<char>, fmt::v11::detail::big_decimal_fp, fmt::v11::detail::digit_grouping<char> >(fmt::v11::basic_appender<char>, fmt::v11::detail::big_decimal_fp const&, fmt::v11::format_specs const&, fmt::v11::detail::float_specs, fmt::v11::detail::locale_ref)
PUBLIC 25348 0 fmt::v11::detail::do_write_float<char, fmt::v11::basic_appender<char>, fmt::v11::detail::big_decimal_fp, fmt::v11::detail::digit_grouping<char> >(fmt::v11::basic_appender<char>, fmt::v11::detail::big_decimal_fp const&, fmt::v11::format_specs const&, fmt::v11::detail::float_specs, fmt::v11::detail::locale_ref)::{lambda(fmt::v11::basic_appender<char>(fmt::v11::basic_appender<char>))#1}::operator() const
PUBLIC 254a8 0 fmt::v11::detail::write_padded<char, (fmt::v11::align::type)2, fmt::v11::basic_appender<char>, fmt::v11::detail::write_ptr<char, fmt::v11::basic_appender<char>, unsigned long>(fmt::v11::basic_appender<char>, unsigned long, fmt::v11::format_specs const*)::{lambda(fmt::v11::basic_appender<char>&)#1}>(fmt::v11::basic_appender<char>, fmt::v11::format_specs const&, unsigned long, unsigned long, fmt::v11::detail::write_ptr<char, fmt::v11::basic_appender<char>, unsigned long>(fmt::v11::basic_appender<char>, unsigned long, fmt::v11::format_specs const*)::{lambda(fmt::v11::basic_appender<char>&)#1})
PUBLIC 256bc 0 fmt::v11::detail::parse_replacement_field<char, fmt::v11::detail::vformat_to<char>(fmt::v11::detail::buffer<char>&, fmt::v11::basic_string_view<char>, fmt::v11::detail::vformat_args<char>::type, fmt::v11::detail::locale_ref)::format_handler&>(char const*, char const*, fmt::v11::detail::vformat_to<char>(fmt::v11::detail::buffer<char>&, fmt::v11::basic_string_view<char>, fmt::v11::detail::vformat_args<char>::type, fmt::v11::detail::locale_ref)::format_handler&)
PUBLIC 27320 0 fmt::v11::detail::parse_dynamic_spec<char>(char const*, char const*, int&, fmt::v11::detail::arg_ref<char>&, fmt::v11::basic_format_parse_context<char>&)
PUBLIC 275b0 0 fmt::v11::basic_format_args<fmt::v11::context>::get<char>(fmt::v11::basic_string_view<char>) const
PUBLIC 276e4 0 fmt::v11::detail::write_int_noinline<char, fmt::v11::basic_appender<char>, unsigned long>(fmt::v11::basic_appender<char>, fmt::v11::detail::write_int_arg<unsigned long>, fmt::v11::format_specs const&, fmt::v11::detail::locale_ref)
PUBLIC 28530 0 fmt::v11::detail::write_int_noinline<char, fmt::v11::basic_appender<char>, unsigned __int128>(fmt::v11::basic_appender<char>, fmt::v11::detail::write_int_arg<unsigned __int128>, fmt::v11::format_specs const&, fmt::v11::detail::locale_ref)
PUBLIC 29598 0 _ZN3fmt3v116detail15format_hexfloatIdTnNSt6__ndk19enable_ifIXntsr16is_double_doubleIT_EE5valueEiE4typeELi0EEEvS5_NS0_12format_specsERNS1_6bufferIcEE
PUBLIC 29ab8 0 fmt::v11::detail::format_float<double>(double, int, fmt::v11::detail::float_specs, fmt::v11::detail::buffer<char>&)
PUBLIC 2a504 0 fmt::v11::detail::write<char, fmt::v11::basic_appender<char> >(fmt::v11::basic_appender<char>, fmt::v11::basic_string_view<char>, fmt::v11::format_specs const&)
PUBLIC 2b7e0 0 fmt::v11::detail::for_each_codepoint<fmt::v11::detail::compute_width(fmt::v11::basic_string_view<char>)::count_code_points>(fmt::v11::basic_string_view<char>, fmt::v11::detail::compute_width(fmt::v11::basic_string_view<char>)::count_code_points)::{lambda(char const*, char const*)#1}::operator()(char const*, char const*) const
PUBLIC 2b998 0 fmt::v11::detail::write_int<fmt::v11::basic_appender<char>, unsigned long, char>(fmt::v11::basic_appender<char>, unsigned long, unsigned int, fmt::v11::format_specs const&, fmt::v11::detail::digit_grouping<char> const&)
PUBLIC 2bf14 0 fmt::v11::detail::write_int<fmt::v11::basic_appender<char>, unsigned __int128, char>(fmt::v11::basic_appender<char>, unsigned __int128, unsigned int, fmt::v11::format_specs const&, fmt::v11::detail::digit_grouping<char> const&)
PUBLIC 2c590 0 <.plt ELF section in alphalaneous.editortab_api.android64.so>
STACK CFI INIT c5e0 10 .cfa: sp 0 +
STACK CFI INIT c5f0 8 .cfa: sp 0 +
STACK CFI INIT c5f8 8 .cfa: sp 0 +
STACK CFI INIT c600 14 .cfa: sp 0 +
STACK CFI INIT c614 1c .cfa: sp 0 +
STACK CFI INIT c630 10 .cfa: sp 0 +
STACK CFI INIT c640 30 .cfa: sp 0 +
STACK CFI INIT c670 98 .cfa: sp 0 +
STACK CFI INIT c708 2ac .cfa: sp 0 +
STACK CFI INIT c9b4 8c .cfa: sp 0 +
STACK CFI INIT ca40 30 .cfa: sp 0 +
STACK CFI INIT ce0c 94 .cfa: sp 0 +
STACK CFI ce10 .cfa: sp 32 +
STACK CFI ce18 .cfa: x29 32 + x19: .cfa -16 + ^ .ra: .cfa -24 + ^ x29: .cfa -32 + ^
STACK CFI ce84 .cfa: sp 32 +
STACK CFI ce8c .cfa: sp 0 +
STACK CFI ce90 .cfa: x29 32 +
STACK CFI ce94 .cfa: sp 32 +
STACK CFI ce9c .cfa: sp 0 +
STACK CFI INIT dc14 94 .cfa: sp 0 +
STACK CFI dc18 .cfa: sp 32 +
STACK CFI dc20 .cfa: x29 32 + x19: .cfa -16 + ^ .ra: .cfa -24 + ^ x29: .cfa -32 + ^
STACK CFI dc8c .cfa: sp 32 +
STACK CFI dc94 .cfa: sp 0 +
STACK CFI dc98 .cfa: x29 32 +
STACK CFI dc9c .cfa: sp 32 +
STACK CFI dca4 .cfa: sp 0 +
STACK CFI INIT e094 30 .cfa: sp 0 +
STACK CFI INIT e538 18 .cfa: sp 0 +
STACK CFI INIT ea78 18 .cfa: sp 0 +
STACK CFI INIT efb8 18 .cfa: sp 0 +
STACK CFI INIT f41c 18 .cfa: sp 0 +
STACK CFI INIT f434 94 .cfa: sp 0 +
STACK CFI f438 .cfa: sp 48 +
STACK CFI f444 .cfa: x29 48 + x19: .cfa -8 + ^ x20: .cfa -16 + ^ x21: .cfa -24 + ^ x22: .cfa -32 + ^ .ra: .cfa -40 + ^ x29: .cfa -48 + ^
STACK CFI f45c .cfa: sp 48 +
STACK CFI f468 .cfa: sp 0 +
STACK CFI f46c .cfa: x29 48 +
STACK CFI f4b0 .cfa: sp 48 +
STACK CFI f4bc .cfa: sp 0 +
STACK CFI f4c0 .cfa: x29 48 +
STACK CFI INIT f4c8 14 .cfa: sp 0 +
STACK CFI f4cc .cfa: sp 16 +
STACK CFI f4d0 .cfa: x29 16 + .ra: .cfa -8 + ^ x29: .cfa -16 + ^
STACK CFI INIT f52c 30 .cfa: sp 0 +
STACK CFI f530 .cfa: sp 32 +
STACK CFI f538 .cfa: x29 32 + x19: .cfa -16 + ^ .ra: .cfa -24 + ^ x29: .cfa -32 + ^
STACK CFI f550 .cfa: sp 32 +
STACK CFI f558 .cfa: sp 0 +
STACK CFI INIT f55c 34 .cfa: sp 0 +
STACK CFI f560 .cfa: sp 32 +
STACK CFI f568 .cfa: x29 32 + x19: .cfa -16 + ^ .ra: .cfa -24 + ^ x29: .cfa -32 + ^
STACK CFI INIT f590 10 .cfa: sp 0 +
STACK CFI f594 .cfa: sp 16 +
STACK CFI f598 .cfa: x29 16 + .ra: .cfa -8 + ^ x29: .cfa -16 + ^
STACK CFI INIT f8b4 cc .cfa: sp 0 +
STACK CFI f8b8 .cfa: sp 48 +
STACK CFI f8c4 .cfa: x29 48 + x19: .cfa -8 + ^ x20: .cfa -16 + ^ x21: .cfa -32 + ^ .ra: .cfa -40 + ^ x29: .cfa -48 + ^
STACK CFI f960 .cfa: sp 48 +
STACK CFI f96c .cfa: sp 0 +
STACK CFI f970 .cfa: sp 48 +
STACK CFI f97c .cfa: sp 0 +
STACK CFI INIT f980 14 .cfa: sp 0 +
STACK CFI f984 .cfa: sp 16 +
STACK CFI f988 .cfa: x29 16 + .ra: .cfa -8 + ^ x29: .cfa -16 + ^
STACK CFI INIT f994 c4 .cfa: sp 0 +
STACK CFI f9a4 .cfa: sp 32 +
STACK CFI f9ac .cfa: x29 32 + x19: .cfa -8 + ^ x20: .cfa -16 + ^ .ra: .cfa -24 + ^ x29: .cfa -32 + ^
STACK CFI fa4c .cfa: sp 32 +
STACK CFI fa54 .cfa: sp 0 +
STACK CFI INIT 101e4 14 .cfa: sp 0 +
STACK CFI 101e8 .cfa: sp 16 +
STACK CFI 101ec .cfa: x29 16 + .ra: .cfa -8 + ^ x29: .cfa -16 + ^
STACK CFI INIT 101f8 14 .cfa: sp 0 +
STACK CFI 101fc .cfa: sp 16 +
STACK CFI 10200 .cfa: x29 16 + .ra: .cfa -8 + ^ x29: .cfa -16 + ^
STACK CFI INIT 1020c c .cfa: sp 0 +
STACK CFI 10210 .cfa: sp 16 +
STACK CFI 10214 .cfa: x29 16 + .ra: .cfa -8 + ^ x29: .cfa -16 + ^
STACK CFI INIT 10268 30 .cfa: sp 0 +
STACK CFI 1026c .cfa: sp 32 +
STACK CFI 10274 .cfa: x29 32 + x19: .cfa -16 + ^ .ra: .cfa -24 + ^ x29: .cfa -32 + ^
STACK CFI 1028c .cfa: sp 32 +
STACK CFI 10294 .cfa: sp 0 +
STACK CFI INIT 10298 c .cfa: sp 0 +
STACK CFI 1029c .cfa: sp 16 +
STACK CFI 102a0 .cfa: x29 16 + .ra: .cfa -8 + ^ x29: .cfa -16 + ^
STACK CFI INIT 102a4 e0 .cfa: sp 0 +
STACK CFI 102a8 .cfa: sp 48 +
STACK CFI 102b4 .cfa: x29 48 + x19: .cfa -8 + ^ x20: .cfa -16 + ^ x21: .cfa -32 + ^ .ra: .cfa -40 + ^ x29: .cfa -48 + ^
STACK CFI 10364 .cfa: sp 48 +
STACK CFI 10370 .cfa: sp 0 +
STACK CFI 10374 .cfa: sp 48 +
STACK CFI 10380 .cfa: sp 0 +
STACK CFI INIT 10384 4 .cfa: sp 0 +
STACK CFI INIT 10388 4 .cfa: sp 0 +
STACK CFI INIT 1038c 38 .cfa: sp 0 +
STACK CFI 10390 .cfa: sp 32 +
STACK CFI 10398 .cfa: x29 32 + x19: .cfa -16 + ^ .ra: .cfa -24 + ^ x29: .cfa -32 + ^
STACK CFI 103b8 .cfa: sp 32 +
STACK CFI 103c0 .cfa: sp 0 +
STACK CFI INIT 103c4 18 .cfa: sp 0 +
STACK CFI INIT 103dc 4 .cfa: sp 0 +
STACK CFI INIT 103e0 4 .cfa: sp 0 +
STACK CFI INIT 103e4 10 .cfa: sp 0 +
STACK CFI INIT 103f4 1c .cfa: sp 0 +
STACK CFI INIT 10410 c .cfa: sp 0 +
STACK CFI INIT 1041c 70 .cfa: sp 0 +
STACK CFI 10420 .cfa: sp 48 +
STACK CFI 1042c .cfa: x29 32 + x19: .cfa -16 + ^ .ra: .cfa -24 + ^ x29: .cfa -32 + ^
STACK CFI 10464 .cfa: sp 48 +
STACK CFI 10470 .cfa: sp 0 +
STACK CFI 10474 .cfa: x29 32 +
STACK CFI INIT 1048c 8 .cfa: sp 0 +
STACK CFI INIT 10494 5c .cfa: sp 0 +
STACK CFI 10498 .cfa: sp 32 +
STACK CFI 104a0 .cfa: x29 32 + x19: .cfa -16 + ^ .ra: .cfa -24 + ^ x29: .cfa -32 + ^
STACK CFI 104e4 .cfa: sp 32 +
STACK CFI 104ec .cfa: sp 0 +
STACK CFI INIT 104f0 64 .cfa: sp 0 +
STACK CFI 104f4 .cfa: sp 32 +
STACK CFI 104fc .cfa: x29 32 + x19: .cfa -16 + ^ .ra: .cfa -24 + ^ x29: .cfa -32 + ^
STACK CFI 10548 .cfa: sp 32 +
STACK CFI 10550 .cfa: sp 0 +
STACK CFI INIT 10554 4 .cfa: sp 0 +
STACK CFI INIT 10558 34 .cfa: sp 0 +
STACK CFI 1055c .cfa: sp 16 +
STACK CFI 10560 .cfa: x29 16 + .ra: .cfa -8 + ^ x29: .cfa -16 + ^
STACK CFI INIT 1058c 24 .cfa: sp 0 +
STACK CFI 10590 .cfa: sp 32 +
STACK CFI 10598 .cfa: x29 32 + x19: .cfa -16 + ^ .ra: .cfa -24 + ^ x29: .cfa -32 + ^
STACK CFI 105a4 .cfa: sp 32 +
STACK CFI 105ac .cfa: sp 0 +
STACK CFI INIT 106f4 f0 .cfa: sp 0 +
STACK CFI 106f8 .cfa: sp 48 +
STACK CFI 10704 .cfa: x29 48 + x19: .cfa -8 + ^ x20: .cfa -16 + ^ x21: .cfa -24 + ^ x22: .cfa -32 + ^ .ra: .cfa -40 + ^ x29: .cfa -48 + ^
STACK CFI 1070c .cfa: sp 48 +
STACK CFI 10718 .cfa: sp 0 +
STACK CFI 1071c .cfa: x29 48 +
STACK CFI 107d4 .cfa: sp 48 +
STACK CFI 107e0 .cfa: sp 0 +
STACK CFI INIT 10bd4 50 .cfa: sp 0 +
STACK CFI 10bd8 .cfa: sp 32 +
STACK CFI 10be0 .cfa: x29 32 + x19: .cfa -16 + ^ .ra: .cfa -24 + ^ x29: .cfa -32 + ^
STACK CFI 10bf8 .cfa: sp 32 +
STACK CFI 10c00 .cfa: sp 0 +
STACK CFI 10c04 .cfa: x29 32 +
STACK CFI 10c18 .cfa: sp 32 +
STACK CFI 10c20 .cfa: sp 0 +
STACK CFI INIT 10c98 7c .cfa: sp 0 +
STACK CFI 10c9c .cfa: sp 48 +
STACK CFI 10ca8 .cfa: x29 48 + x19: .cfa -8 + ^ x20: .cfa -16 + ^ x21: .cfa -32 + ^ .ra: .cfa -40 + ^ x29: .cfa -48 + ^
STACK CFI 10cf4 .cfa: sp 48 +
STACK CFI 10d00 .cfa: sp 0 +
STACK CFI 10d04 .cfa: sp 48 +
STACK CFI 10d10 .cfa: sp 0 +
STACK CFI INIT 10d14 4 .cfa: sp 0 +
STACK CFI INIT 10e6c 34 .cfa: sp 0 +
STACK CFI 10e70 .cfa: sp 16 +
STACK CFI 10e74 .cfa: x29 16 + .ra: .cfa -8 + ^ x29: .cfa -16 + ^
STACK CFI INIT 10fd4 80 .cfa: sp 0 +
STACK CFI 10fd8 .cfa: sp 48 +
STACK CFI 10fe4 .cfa: x29 48 + x19: .cfa -8 + ^ x20: .cfa -16 + ^ x21: .cfa -32 + ^ .ra: .cfa -40 + ^ x29: .cfa -48 + ^
STACK CFI 11044 .cfa: sp 48 +
STACK CFI 11050 .cfa: sp 0 +
STACK CFI INIT 11054 24 .cfa: sp 0 +
STACK CFI 11058 .cfa: sp 32 +
STACK CFI 11060 .cfa: x29 32 + x19: .cfa -16 + ^ .ra: .cfa -24 + ^ x29: .cfa -32 + ^
STACK CFI 1106c .cfa: sp 32 +
STACK CFI 11074 .cfa: sp 0 +
STACK CFI INIT 11578 148 .cfa: sp 0 +
STACK CFI 1157c .cfa: sp 48 +
STACK CFI 11588 .cfa: x29 48 + x19: .cfa -8 + ^ x20: .cfa -16 + ^ x21: .cfa -32 + ^ .ra: .cfa -40 + ^ x29: .cfa -48 + ^
STACK CFI 116b0 .cfa: sp 48 +
STACK CFI 116bc .cfa: sp 0 +
STACK CFI INIT 116c0 88 .cfa: sp 0 +
STACK CFI 116c8 .cfa: sp 48 +
STACK CFI 116d4 .cfa: x29 48 + x19: .cfa -8 + ^ x20: .cfa -16 + ^ x21: .cfa -24 + ^ x22: .cfa -32 + ^ .ra: .cfa -40 + ^ x29: .cfa -48 + ^
STACK CFI 11738 .cfa: sp 48 +
STACK CFI 11744 .cfa: sp 0 +
STACK CFI INIT 118f4 68 .cfa: sp 0 +
STACK CFI 118f8 .cfa: sp 32 +
STACK CFI 11900 .cfa: x29 32 + x19: .cfa -8 + ^ x20: .cfa -16 + ^ .ra: .cfa -24 + ^ x29: .cfa -32 + ^
STACK CFI 11918 .cfa: sp 32 +
STACK CFI 11920 .cfa: sp 0 +
STACK CFI 11924 .cfa: x29 32 +
STACK CFI 11950 .cfa: sp 32 +
STACK CFI 11958 .cfa: sp 0 +
STACK CFI INIT 1195c 14 .cfa: sp 0 +
STACK CFI 11960 .cfa: sp 16 +
STACK CFI 11964 .cfa: x29 16 + .ra: .cfa -8 + ^ x29: .cfa -16 + ^
STACK CFI INIT 11970 4 .cfa: sp 0 +
STACK CFI INIT 11974 14 .cfa: sp 0 +
STACK CFI INIT 11988 128 .cfa: sp 0 +
STACK CFI 1198c .cfa: sp 64 +
STACK CFI 1199c .cfa: x29 64 + x19: .cfa -8 + ^ x20: .cfa -16 + ^ x21: .cfa -24 + ^ x22: .cfa -32 + ^ x23: .cfa -40 + ^ x24: .cfa -48 + ^ .ra: .cfa -56 + ^ x29: .cfa -64 + ^
STACK CFI 11a9c .cfa: sp 64 +
STACK CFI 11aac .cfa: sp 0 +
STACK CFI INIT 11ab0 4a4 .cfa: sp 0 +
STACK CFI 11ab4 .cfa: sp 32 +
STACK CFI 11abc .cfa: x29 32 + x19: .cfa -8 + ^ x20: .cfa -16 + ^ .ra: .cfa -24 + ^ x29: .cfa -32 + ^
STACK CFI 11e9c .cfa: sp 32 +
STACK CFI 11ea4 .cfa: sp 0 +
STACK CFI 11ea8 .cfa: x29 32 +
STACK CFI INIT 11f54 84 .cfa: sp 0 +
STACK CFI 11f5c .cfa: sp 32 +
STACK CFI 11f64 .cfa: x29 32 + x19: .cfa -8 + ^ x20: .cfa -16 + ^ .ra: .cfa -24 + ^ x29: .cfa -32 + ^
STACK CFI 11fa4 .cfa: sp 32 +
STACK CFI 11fac .cfa: sp 0 +
STACK CFI 11fb4 .cfa: x29 32 +
STACK CFI INIT 12314 50 .cfa: sp 0 +
STACK CFI 12318 .cfa: sp 32 +
STACK CFI 12320 .cfa: x29 32 + x19: .cfa -16 + ^ .ra: .cfa -24 + ^ x29: .cfa -32 + ^
STACK CFI 12338 .cfa: sp 32 +
STACK CFI 12340 .cfa: sp 0 +
STACK CFI 12344 .cfa: x29 32 +
STACK CFI 12358 .cfa: sp 32 +
STACK CFI 12360 .cfa: sp 0 +
STACK CFI INIT 12364 64 .cfa: sp 0 +
STACK CFI 12368 .cfa: sp 32 +
STACK CFI 12370 .cfa: x29 32 + x19: .cfa -16 + ^ .ra: .cfa -24 + ^ x29: .cfa -32 + ^
STACK CFI 1239c .cfa: sp 32 +
STACK CFI 123a4 .cfa: sp 0 +
STACK CFI 123a8 .cfa: x29 32 +
STACK CFI 123bc .cfa: sp 32 +
STACK CFI 123c4 .cfa: sp 0 +
STACK CFI INIT 12eb4 4 .cfa: sp 0 +
STACK CFI INIT 12eb8 f8 .cfa: sp 0 +
STACK CFI 12ebc .cfa: sp 64 +
STACK CFI 12ecc .cfa: x29 64 + x19: .cfa -8 + ^ x20: .cfa -16 + ^ x21: .cfa -24 + ^ x22: .cfa -32 + ^ x23: .cfa -48 + ^ .ra: .cfa -56 + ^ x29: .cfa -64 + ^
STACK CFI 12f28 .cfa: sp 64 +
STACK CFI 12f38 .cfa: sp 0 +
STACK CFI 12f3c .cfa: x29 64 +
STACK CFI 12f58 .cfa: sp 64 +
STACK CFI 12f68 .cfa: sp 0 +
STACK CFI 12f6c .cfa: x29 64 +
STACK CFI 12f9c .cfa: sp 64 +
STACK CFI 12fac .cfa: sp 0 +
STACK CFI INIT 12fe8 168 .cfa: sp 0 +
STACK CFI 12fec .cfa: sp 80 +
STACK CFI 13000 .cfa: x29 80 + x19: .cfa -8 + ^ x20: .cfa -16 + ^ x21: .cfa -24 + ^ x22: .cfa -32 + ^ x23: .cfa -40 + ^ x24: .cfa -48 + ^ x25: .cfa -56 + ^ x26: .cfa -64 + ^ .ra: .cfa -72 + ^ x29: .cfa -80 + ^
STACK CFI 13138 .cfa: sp 80 +
STACK CFI 1314c .cfa: sp 0 +
STACK CFI INIT 13150 7c .cfa: sp 0 +
STACK CFI 13154 .cfa: sp 32 +
STACK CFI 1315c .cfa: x29 32 + x19: .cfa -8 + ^ x20: .cfa -16 + ^ .ra: .cfa -24 + ^ x29: .cfa -32 + ^
STACK CFI 131b4 .cfa: sp 32 +
STACK CFI 131bc .cfa: sp 0 +
STACK CFI 131c0 .cfa: sp 32 +
STACK CFI 131c8 .cfa: sp 0 +
STACK CFI INIT 131cc 1a8 .cfa: sp 0 +
STACK CFI INIT 141e8 4 .cfa: sp 0 +
STACK CFI INIT 14774 4 .cfa: sp 0 +
STACK CFI INIT 14778 14 .cfa: sp 0 +
STACK CFI INIT 1528c 34 .cfa: sp 0 +
STACK CFI 1529c .cfa: sp 32 +
STACK CFI 152a4 .cfa: x29 32 + x19: .cfa -16 + ^ .ra: .cfa -24 + ^ x29: .cfa -32 + ^
STACK CFI 152b0 .cfa: sp 32 +
STACK CFI 152b8 .cfa: sp 0 +
STACK CFI INIT 161a4 5c .cfa: sp 0 +
STACK CFI 161a8 .cfa: sp 32 +
STACK CFI 161b0 .cfa: x29 32 + x19: .cfa -16 + ^ .ra: .cfa -24 + ^ x29: .cfa -32 + ^
STACK CFI 161e8 .cfa: sp 32 +
STACK CFI 161f0 .cfa: sp 0 +
STACK CFI 161f4 .cfa: sp 32 +
STACK CFI 161fc .cfa: sp 0 +
STACK CFI INIT 16200 4 .cfa: sp 0 +
STACK CFI INIT 16204 24 .cfa: sp 0 +
STACK CFI 16208 .cfa: sp 16 +
STACK CFI 1620c .cfa: x29 16 + .ra: .cfa -8 + ^ x29: .cfa -16 + ^
STACK CFI 16220 .cfa: sp 16 +
STACK CFI 16224 .cfa: sp 0 +
STACK CFI INIT 16228 10 .cfa: sp 0 +
STACK CFI INIT 16238 4 .cfa: sp 0 +
STACK CFI INIT 1623c 4 .cfa: sp 0 +
STACK CFI INIT 16240 a8 .cfa: sp 0 +
STACK CFI 16244 .cfa: sp 64 +
STACK CFI 16254 .cfa: x29 48 + x19: .cfa -8 + ^ x20: .cfa -16 + ^ x21: .cfa -24 + ^ x22: .cfa -32 + ^ .ra: .cfa -40 + ^ x29: .cfa -48 + ^ v8: .cfa -64 + ^
STACK CFI 162d4 .cfa: sp 64 +
STACK CFI 162e4 .cfa: sp 0 +
STACK CFI INIT 162e8 1c .cfa: sp 0 +
STACK CFI INIT 16304 c .cfa: sp 0 +
STACK CFI INIT 16310 12c .cfa: sp 0 +
STACK CFI 16314 .cfa: sp 80 +
STACK CFI 1632c .cfa: x29 56 + x19: .cfa -8 + ^ x20: .cfa -16 + ^ x21: .cfa -24 + ^ x22: .cfa -32 + ^ x23: .cfa -40 + ^ .ra: .cfa -48 + ^ x29: .cfa -56 + ^ v8: .cfa -64 + ^
STACK CFI 1641c .cfa: sp 80 +
STACK CFI 16434 .cfa: sp 0 +
STACK CFI 16438 .cfa: x29 56 +
STACK CFI INIT 1643c 4 .cfa: sp 0 +
STACK CFI INIT 16440 24 .cfa: sp 0 +
STACK CFI 16444 .cfa: sp 16 +
STACK CFI 16448 .cfa: x29 16 + .ra: .cfa -8 + ^ x29: .cfa -16 + ^
STACK CFI 1645c .cfa: sp 16 +
STACK CFI 16460 .cfa: sp 0 +
STACK CFI INIT 16464 10 .cfa: sp 0 +
STACK CFI INIT 16474 4 .cfa: sp 0 +
STACK CFI INIT 16478 4 .cfa: sp 0 +
STACK CFI INIT 1647c 5c .cfa: sp 0 +
STACK CFI 16480 .cfa: sp 32 +
STACK CFI 16488 .cfa: x29 32 + x19: .cfa -8 + ^ x20: .cfa -16 + ^ .ra: .cfa -24 + ^ x29: .cfa -32 + ^
STACK CFI 164cc .cfa: sp 32 +
STACK CFI 164d4 .cfa: sp 0 +
STACK CFI INIT 164d8 1c .cfa: sp 0 +
STACK CFI INIT 164f4 c .cfa: sp 0 +
STACK CFI INIT 16500 4 .cfa: sp 0 +
STACK CFI INIT 16504 4 .cfa: sp 0 +
STACK CFI INIT 16508 24 .cfa: sp 0 +
STACK CFI 1650c .cfa: sp 16 +
STACK CFI 16510 .cfa: x29 16 + .ra: .cfa -8 + ^ x29: .cfa -16 + ^
STACK CFI 16524 .cfa: sp 16 +
STACK CFI 16528 .cfa: sp 0 +
STACK CFI INIT 1652c 10 .cfa: sp 0 +
STACK CFI INIT 1653c 4 .cfa: sp 0 +
STACK CFI INIT 16540 4 .cfa: sp 0 +
STACK CFI INIT 16544 e8 .cfa: sp 0 +
STACK CFI 16548 .cfa: sp 64 +
STACK CFI 16558 .cfa: x29 48 + x19: .cfa -8 + ^ x20: .cfa -16 + ^ x21: .cfa -24 + ^ x22: .cfa -32 + ^ .ra: .cfa -40 + ^ x29: .cfa -48 + ^
STACK CFI 16614 .cfa: sp 64 +
STACK CFI 16624 .cfa: sp 0 +
STACK CFI 16628 .cfa: x29 48 +
STACK CFI INIT 1662c 1c .cfa: sp 0 +
STACK CFI INIT 16648 c .cfa: sp 0 +
STACK CFI INIT 16654 4 .cfa: sp 0 +
STACK CFI INIT 16658 4 .cfa: sp 0 +
STACK CFI INIT 1665c 24 .cfa: sp 0 +
STACK CFI 16660 .cfa: sp 16 +
STACK CFI 16664 .cfa: x29 16 + .ra: .cfa -8 + ^ x29: .cfa -16 + ^
STACK CFI 16678 .cfa: sp 16 +
STACK CFI 1667c .cfa: sp 0 +
STACK CFI INIT 16680 10 .cfa: sp 0 +
STACK CFI INIT 16690 4 .cfa: sp 0 +
STACK CFI INIT 16694 4 .cfa: sp 0 +
STACK CFI INIT 16698 18 .cfa: sp 0 +
STACK CFI INIT 166b0 1c .cfa: sp 0 +
STACK CFI INIT 166cc c .cfa: sp 0 +
STACK CFI INIT 17620 4 .cfa: sp 0 +
STACK CFI INIT 1808c 80 .cfa: sp 0 +
STACK CFI 18090 .cfa: sp 32 +
STACK CFI 18098 .cfa: x29 32 + x19: .cfa -16 + ^ .ra: .cfa -24 + ^ x29: .cfa -32 + ^
STACK CFI 180f4 .cfa: sp 32 +
STACK CFI 180fc .cfa: sp 0 +
STACK CFI 18100 .cfa: sp 32 +
STACK CFI 18108 .cfa: sp 0 +
STACK CFI INIT 1810c 80 .cfa: sp 0 +
STACK CFI 18110 .cfa: sp 32 +
STACK CFI 18118 .cfa: x29 32 + x19: .cfa -16 + ^ .ra: .cfa -24 + ^ x29: .cfa -32 + ^
STACK CFI 18174 .cfa: sp 32 +
STACK CFI 1817c .cfa: sp 0 +
STACK CFI 18180 .cfa: sp 32 +
STACK CFI 18188 .cfa: sp 0 +
STACK CFI INIT 184ec 4 .cfa: sp 0 +
STACK CFI INIT 184f0 70 .cfa: sp 0 +
STACK CFI 184f4 .cfa: sp 32 +
STACK CFI 184fc .cfa: x29 32 + x19: .cfa -16 + ^ .ra: .cfa -24 + ^ x29: .cfa -32 + ^
STACK CFI 18548 .cfa: sp 32 +
STACK CFI 18550 .cfa: sp 0 +
STACK CFI 18554 .cfa: sp 32 +
STACK CFI 1855c .cfa: sp 0 +
STACK CFI INIT 18560 a0 .cfa: sp 0 +
STACK CFI 18564 .cfa: sp 32 +
STACK CFI 1856c .cfa: x29 32 + x19: .cfa -16 + ^ .ra: .cfa -24 + ^ x29: .cfa -32 + ^
STACK CFI 185e4 .cfa: sp 32 +
STACK CFI 185ec .cfa: sp 0 +
STACK CFI 185f0 .cfa: x29 32 +
STACK CFI 185f4 .cfa: sp 32 +
STACK CFI 185fc .cfa: sp 0 +
STACK CFI INIT 18600 9c .cfa: sp 0 +
STACK CFI 18604 .cfa: sp 32 +
STACK CFI 1860c .cfa: x29 32 + x19: .cfa -16 + ^ .ra: .cfa -24 + ^ x29: .cfa -32 + ^
STACK CFI 18690 .cfa: sp 32 +
STACK CFI 18698 .cfa: sp 0 +
STACK CFI INIT 186fc 28 .cfa: sp 0 +
STACK CFI INIT 18724 94 .cfa: sp 0 +
STACK CFI 18728 .cfa: sp 32 +
STACK CFI 18730 .cfa: x29 32 + x19: .cfa -16 + ^ .ra: .cfa -24 + ^ x29: .cfa -32 + ^
STACK CFI 1879c .cfa: sp 32 +
STACK CFI 187a4 .cfa: sp 0 +
STACK CFI 187a8 .cfa: x29 32 +
STACK CFI 187ac .cfa: sp 32 +
STACK CFI 187b4 .cfa: sp 0 +
STACK CFI INIT 187b8 90 .cfa: sp 0 +
STACK CFI 187bc .cfa: sp 32 +
STACK CFI 187c4 .cfa: x29 32 + x19: .cfa -16 + ^ .ra: .cfa -24 + ^ x29: .cfa -32 + ^
STACK CFI 1883c .cfa: sp 32 +
STACK CFI 18844 .cfa: sp 0 +
STACK CFI INIT 18848 e8 .cfa: sp 0 +
STACK CFI 1884c .cfa: sp 32 +
STACK CFI 18854 .cfa: x29 32 + x19: .cfa -8 + ^ x20: .cfa -16 + ^ .ra: .cfa -24 + ^ x29: .cfa -32 + ^
STACK CFI 18924 .cfa: sp 32 +
STACK CFI 1892c .cfa: sp 0 +
STACK CFI INIT 18930 1c .cfa: sp 0 +
STACK CFI INIT 1894c c .cfa: sp 0 +
STACK CFI INIT 18958 3c .cfa: sp 0 +
STACK CFI 1895c .cfa: sp 32 +
STACK CFI 18964 .cfa: x29 32 + x19: .cfa -16 + ^ .ra: .cfa -24 + ^ x29: .cfa -32 + ^
STACK CFI 18970 .cfa: sp 32 +
STACK CFI 18978 .cfa: sp 0 +
STACK CFI 1897c .cfa: x29 32 +
STACK CFI 18988 .cfa: sp 32 +
STACK CFI 18990 .cfa: sp 0 +
STACK CFI INIT 18994 3c .cfa: sp 0 +
STACK CFI 18998 .cfa: sp 32 +
STACK CFI 189a0 .cfa: x29 32 + x19: .cfa -16 + ^ .ra: .cfa -24 + ^ x29: .cfa -32 + ^
STACK CFI 189ac .cfa: sp 32 +
STACK CFI 189b4 .cfa: sp 0 +
STACK CFI 189b8 .cfa: x29 32 +
STACK CFI 189c4 .cfa: sp 32 +
STACK CFI 189cc .cfa: sp 0 +
STACK CFI INIT 189d0 4c .cfa: sp 0 +
STACK CFI 189d4 .cfa: sp 32 +
STACK CFI 189dc .cfa: x29 32 + x19: .cfa -8 + ^ x20: .cfa -16 + ^ .ra: .cfa -24 + ^ x29: .cfa -32 + ^
STACK CFI 18a04 .cfa: sp 32 +
STACK CFI 18a0c .cfa: sp 0 +
STACK CFI 18a10 .cfa: sp 32 +
STACK CFI 18a18 .cfa: sp 0 +
STACK CFI INIT 18c3c 64 .cfa: sp 0 +
STACK CFI 18c40 .cfa: sp 32 +
STACK CFI 18c48 .cfa: x29 32 + x19: .cfa -16 + ^ .ra: .cfa -24 + ^ x29: .cfa -32 + ^
STACK CFI 18c74 .cfa: sp 32 +
STACK CFI 18c7c .cfa: sp 0 +
STACK CFI 18c80 .cfa: x29 32 +
STACK CFI 18c94 .cfa: sp 32 +
STACK CFI 18c9c .cfa: sp 0 +
STACK CFI INIT 18ec4 24 .cfa: sp 0 +
STACK CFI 18ec8 .cfa: sp 32 +
STACK CFI 18ed0 .cfa: x29 32 + x19: .cfa -16 + ^ .ra: .cfa -24 + ^ x29: .cfa -32 + ^
STACK CFI 18edc .cfa: sp 32 +
STACK CFI 18ee4 .cfa: sp 0 +
STACK CFI INIT 18ee8 14 .cfa: sp 0 +
STACK CFI INIT 18efc 8 .cfa: sp 0 +
STACK CFI INIT 18f04 c .cfa: sp 0 +
STACK CFI INIT 18f10 2c .cfa: sp 0 +
STACK CFI 18f14 .cfa: sp 16 +
STACK CFI 18f18 .cfa: x29 16 + .ra: .cfa -8 + ^ x29: .cfa -16 + ^
STACK CFI 18f28 .cfa: sp 16 +
STACK CFI 18f2c .cfa: sp 0 +
STACK CFI 18f30 .cfa: x29 16 +
STACK CFI 18f34 .cfa: sp 16 +
STACK CFI 18f38 .cfa: sp 0 +
STACK CFI INIT 19584 4 .cfa: sp 0 +
STACK CFI INIT 19588 14 .cfa: sp 0 +
STACK CFI INIT 19aa8 c .cfa: sp 0 +
STACK CFI INIT 19ab4 24c .cfa: sp 0 +
STACK CFI INIT 19d00 a0 .cfa: sp 0 +
STACK CFI 19d0c .cfa: sp 32 +
STACK CFI 19d64 .cfa: sp 0 +
STACK CFI 19d68 .cfa: sp 32 +
STACK CFI 19d70 .cfa: sp 0 +
STACK CFI 19d74 .cfa: sp 32 +
STACK CFI 19d88 .cfa: sp 0 +
STACK CFI 19d8c .cfa: sp 32 +
STACK CFI 19d9c .cfa: sp 0 +
STACK CFI INIT 19da0 38 .cfa: sp 0 +
STACK CFI 19dac .cfa: sp 32 +
STACK CFI 19dd4 .cfa: sp 0 +
STACK CFI INIT 1a06c 7c .cfa: sp 0 +
STACK CFI 1a070 .cfa: sp 32 +
STACK CFI 1a078 .cfa: x29 32 + x19: .cfa -16 + ^ .ra: .cfa -24 + ^ x29: .cfa -32 + ^
STACK CFI 1a0a4 .cfa: sp 32 +
STACK CFI 1a0ac .cfa: sp 0 +
STACK CFI 1a0b0 .cfa: x29 32 +
STACK CFI 1a0dc .cfa: sp 32 +
STACK CFI 1a0e4 .cfa: sp 0 +
STACK CFI INIT 1a138 2c .cfa: sp 0 +
STACK CFI 1a13c .cfa: sp 32 +
STACK CFI 1a144 .cfa: x29 32 + x19: .cfa -16 + ^ .ra: .cfa -24 + ^ x29: .cfa -32 + ^
STACK CFI 1a158 .cfa: sp 32 +
STACK CFI 1a160 .cfa: sp 0 +
STACK CFI INIT 1a924 64 .cfa: sp 0 +
STACK CFI 1a928 .cfa: sp 32 +
STACK CFI 1a930 .cfa: x29 32 + x19: .cfa -16 + ^ .ra: .cfa -24 + ^ x29: .cfa -32 + ^
STACK CFI 1a94c .cfa: sp 32 +
STACK CFI 1a954 .cfa: sp 0 +
STACK CFI 1a958 .cfa: x29 32 +
STACK CFI 1a97c .cfa: sp 32 +
STACK CFI 1a984 .cfa: sp 0 +
STACK CFI INIT 1aad4 570 .cfa: sp 0 +
STACK CFI 1aad8 .cfa: sp 176 +
STACK CFI 1aaec .cfa: x29 64 + x19: .cfa -8 + ^ x20: .cfa -16 + ^ x21: .cfa -24 + ^ x22: .cfa -32 + ^ x23: .cfa -40 + ^ x24: .cfa -48 + ^ .ra: .cfa -56 + ^ x29: .cfa -64 + ^
STACK CFI 1ad1c .cfa: sp 176 +
STACK CFI 1ad30 .cfa: sp 0 +
STACK CFI 1ad34 .cfa: x29 64 +
STACK CFI 1ad80 .cfa: sp 176 +
STACK CFI 1ad94 .cfa: sp 0 +
STACK CFI 1ad98 .cfa: x29 64 +
STACK CFI 1add0 .cfa: sp 176 +
STACK CFI 1ade4 .cfa: sp 0 +
STACK CFI 1ade8 .cfa: x29 64 +
STACK CFI 1ae00 .cfa: sp 176 +
STACK CFI 1ae14 .cfa: sp 0 +
STACK CFI 1ae18 .cfa: x29 64 +
STACK CFI 1ae38 .cfa: sp 176 +
STACK CFI 1ae4c .cfa: sp 0 +
STACK CFI 1ae50 .cfa: x29 64 +
STACK CFI 1ae68 .cfa: sp 176 +
STACK CFI 1ae7c .cfa: sp 0 +
STACK CFI 1ae80 .cfa: x29 64 +
STACK CFI 1ae94 .cfa: sp 176 +
STACK CFI 1aea8 .cfa: sp 0 +
STACK CFI 1aeac .cfa: x29 64 +
STACK CFI 1aec0 .cfa: sp 176 +
STACK CFI 1aed4 .cfa: sp 0 +
STACK CFI 1aed8 .cfa: x29 64 +
STACK CFI 1aee8 .cfa: sp 176 +
STACK CFI 1aefc .cfa: sp 0 +
STACK CFI 1af00 .cfa: x29 64 +
STACK CFI 1af10 .cfa: sp 176 +
STACK CFI 1af24 .cfa: sp 0 +
STACK CFI 1af28 .cfa: x29 64 +
STACK CFI 1af40 .cfa: sp 176 +
STACK CFI 1af54 .cfa: sp 0 +
STACK CFI 1af58 .cfa: x29 64 +
STACK CFI 1af6c .cfa: sp 176 +
STACK CFI 1af80 .cfa: sp 0 +
STACK CFI 1af84 .cfa: x29 64 +
STACK CFI 1af9c .cfa: sp 176 +
STACK CFI 1afb0 .cfa: sp 0 +
STACK CFI 1afb4 .cfa: x29 64 +
STACK CFI 1afe0 .cfa: sp 176 +
STACK CFI 1aff4 .cfa: sp 0 +
STACK CFI 1aff8 .cfa: x29 64 +
STACK CFI 1b00c .cfa: sp 176 +
STACK CFI 1b020 .cfa: sp 0 +
STACK CFI 1b024 .cfa: x29 64 +
STACK CFI INIT 1b044 228 .cfa: sp 0 +
STACK CFI INIT 1b26c 2dc .cfa: sp 0 +
STACK CFI INIT 1b548 53c .cfa: sp 0 +
STACK CFI INIT 1ba84 78 .cfa: sp 0 +
STACK CFI 1ba88 .cfa: sp 48 +
STACK CFI 1ba94 .cfa: x29 48 + x19: .cfa -8 + ^ x20: .cfa -16 + ^ x21: .cfa -24 + ^ x22: .cfa -32 + ^ .ra: .cfa -40 + ^ x29: .cfa -48 + ^
STACK CFI 1badc .cfa: sp 48 +
STACK CFI 1bae8 .cfa: sp 0 +
STACK CFI 1baec .cfa: sp 48 +
STACK CFI 1baf8 .cfa: sp 0 +
STACK CFI INIT 1bafc 8c .cfa: sp 0 +
STACK CFI 1bb00 .cfa: sp 32 +
STACK CFI 1bb08 .cfa: x29 32 + x19: .cfa -16 + ^ .ra: .cfa -24 + ^ x29: .cfa -32 + ^
STACK CFI 1bb3c .cfa: sp 32 +
STACK CFI 1bb44 .cfa: sp 0 +
STACK CFI 1bb48 .cfa: x29 32 +
STACK CFI 1bb7c .cfa: sp 32 +
STACK CFI 1bb84 .cfa: sp 0 +
STACK CFI INIT 1bb88 24 .cfa: sp 0 +
STACK CFI 1bb8c .cfa: sp 32 +
STACK CFI 1bb94 .cfa: x29 32 + x19: .cfa -16 + ^ .ra: .cfa -24 + ^ x29: .cfa -32 + ^
STACK CFI 1bba0 .cfa: sp 32 +
STACK CFI 1bba8 .cfa: sp 0 +
STACK CFI INIT 1bbac 150 .cfa: sp 0 +
STACK CFI 1bbb0 .cfa: sp 48 +
STACK CFI 1bbbc .cfa: x29 48 + x19: .cfa -8 + ^ x20: .cfa -16 + ^ x21: .cfa -24 + ^ x22: .cfa -32 + ^ .ra: .cfa -40 + ^ x29: .cfa -48 + ^
STACK CFI 1bcec .cfa: sp 48 +
STACK CFI 1bcf8 .cfa: sp 0 +
STACK CFI INIT 1bcfc 68 .cfa: sp 0 +
STACK CFI 1bd00 .cfa: sp 64 +
STACK CFI 1bd0c .cfa: x29 32 + x19: .cfa -16 + ^ .ra: .cfa -24 + ^ x29: .cfa -32 + ^
STACK CFI 1bd50 .cfa: sp 64 +
STACK CFI 1bd5c .cfa: sp 0 +
STACK CFI 1bd60 .cfa: x29 32 +
STACK CFI INIT 1bd64 90 .cfa: sp 0 +
STACK CFI 1bd68 .cfa: sp 32 +
STACK CFI 1bd70 .cfa: x29 32 + x19: .cfa -8 + ^ x20: .cfa -16 + ^ .ra: .cfa -24 + ^ x29: .cfa -32 + ^
STACK CFI 1bd9c .cfa: sp 32 +
STACK CFI 1bda4 .cfa: sp 0 +
STACK CFI 1bda8 .cfa: x29 32 +
STACK CFI 1bde8 .cfa: sp 32 +
STACK CFI 1bdf0 .cfa: sp 0 +
STACK CFI INIT 1bdf4 ec .cfa: sp 0 +
STACK CFI 1bdf8 .cfa: sp 112 +
STACK CFI 1be08 .cfa: x29 48 + x19: .cfa -8 + ^ x20: .cfa -16 + ^ x21: .cfa -32 + ^ .ra: .cfa -40 + ^ x29: .cfa -48 + ^
STACK CFI 1bec8 .cfa: sp 112 +
STACK CFI 1bed8 .cfa: sp 0 +
STACK CFI 1bedc .cfa: x29 48 +
STACK CFI INIT 1bee0 ec .cfa: sp 0 +
STACK CFI 1bee4 .cfa: sp 112 +
STACK CFI 1bef4 .cfa: x29 48 + x19: .cfa -8 + ^ x20: .cfa -16 + ^ x21: .cfa -32 + ^ .ra: .cfa -40 + ^ x29: .cfa -48 + ^
STACK CFI 1bfb4 .cfa: sp 112 +
STACK CFI 1bfc4 .cfa: sp 0 +
STACK CFI 1bfc8 .cfa: x29 48 +
STACK CFI INIT 1bfcc 48 .cfa: sp 0 +
STACK CFI 1bfd0 .cfa: sp 32 +
STACK CFI 1bfd8 .cfa: x29 32 + x19: .cfa -8 + ^ x20: .cfa -16 + ^ .ra: .cfa -24 + ^ x29: .cfa -32 + ^
STACK CFI 1bffc .cfa: sp 32 +
STACK CFI 1c004 .cfa: sp 0 +
STACK CFI 1c008 .cfa: x29 32 +
STACK CFI INIT 1c014 98 .cfa: sp 0 +
STACK CFI 1c018 .cfa: sp 80 +
STACK CFI 1c024 .cfa: x29 32 + x19: .cfa -16 + ^ .ra: .cfa -24 + ^ x29: .cfa -32 + ^
STACK CFI 1c098 .cfa: sp 80 +
STACK CFI 1c0a4 .cfa: sp 0 +
STACK CFI 1c0a8 .cfa: x29 32 +
STACK CFI INIT 1c0ac 260 .cfa: sp 0 +
STACK CFI 1c0b0 .cfa: sp 112 +
STACK CFI 1c0c8 .cfa: x29 80 + x19: .cfa -8 + ^ x20: .cfa -16 + ^ x21: .cfa -24 + ^ x22: .cfa -32 + ^ x23: .cfa -40 + ^ x24: .cfa -48 + ^ x25: .cfa -64 + ^ .ra: .cfa -72 + ^ x29: .cfa -80 + ^
STACK CFI 1c2ac .cfa: sp 112 +
STACK CFI 1c2c4 .cfa: sp 0 +
STACK CFI 1c2c8 .cfa: x29 80 +
STACK CFI INIT 1c30c 150 .cfa: sp 0 +
STACK CFI 1c310 .cfa: sp 48 +
STACK CFI 1c31c .cfa: x29 48 + x19: .cfa -8 + ^ x20: .cfa -16 + ^ x21: .cfa -24 + ^ x22: .cfa -32 + ^ .ra: .cfa -40 + ^ x29: .cfa -48 + ^
STACK CFI 1c44c .cfa: sp 48 +
STACK CFI 1c458 .cfa: sp 0 +
STACK CFI INIT 1c45c 1e0 .cfa: sp 0 +
STACK CFI 1c460 .cfa: sp 96 +
STACK CFI 1c474 .cfa: x29 64 + x19: .cfa -8 + ^ x20: .cfa -16 + ^ x21: .cfa -24 + ^ x22: .cfa -32 + ^ x23: .cfa -40 + ^ x24: .cfa -48 + ^ .ra: .cfa -56 + ^ x29: .cfa -64 + ^
STACK CFI 1c5f4 .cfa: sp 96 +
STACK CFI 1c608 .cfa: sp 0 +
STACK CFI 1c60c .cfa: x29 64 +
STACK CFI INIT 1c63c 284 .cfa: sp 0 +
STACK CFI 1c640 .cfa: sp 112 +
STACK CFI 1c658 .cfa: x29 80 + x19: .cfa -8 + ^ x20: .cfa -16 + ^ x21: .cfa -24 + ^ x22: .cfa -32 + ^ x23: .cfa -40 + ^ x24: .cfa -48 + ^ x25: .cfa -64 + ^ .ra: .cfa -72 + ^ x29: .cfa -80 + ^
STACK CFI 1c860 .cfa: sp 112 +
STACK CFI 1c878 .cfa: sp 0 +
STACK CFI 1c87c .cfa: x29 80 +
STACK CFI INIT 1c8c0 208 .cfa: sp 0 +
STACK CFI 1c8c4 .cfa: sp 96 +
STACK CFI 1c8d8 .cfa: x29 64 + x19: .cfa -8 + ^ x20: .cfa -16 + ^ x21: .cfa -24 + ^ x22: .cfa -32 + ^ x23: .cfa -40 + ^ x24: .cfa -48 + ^ .ra: .cfa -56 + ^ x29: .cfa -64 + ^
STACK CFI 1ca80 .cfa: sp 96 +
STACK CFI 1ca94 .cfa: sp 0 +
STACK CFI 1ca98 .cfa: x29 64 +
STACK CFI INIT 1cac8 360 .cfa: sp 0 +
STACK CFI 1cacc .cfa: sp 160 +
STACK CFI 1cae8 .cfa: x29 96 + x19: .cfa -8 + ^ x20: .cfa -16 + ^ x21: .cfa -24 + ^ x22: .cfa -32 + ^ x23: .cfa -40 + ^ x24: .cfa -48 + ^ x25: .cfa -56 + ^ x26: .cfa -64 + ^ x27: .cfa -72 + ^ x28: .cfa -80 + ^ .ra: .cfa -88 + ^ x29: .cfa -96 + ^
STACK CFI 1cdb4 .cfa: sp 160 +
STACK CFI 1cdd0 .cfa: sp 0 +
STACK CFI 1cdd4 .cfa: x29 96 +
STACK CFI INIT 1ce28 314 .cfa: sp 0 +
STACK CFI 1ce2c .cfa: sp 144 +
STACK CFI 1ce48 .cfa: x29 96 + x19: .cfa -8 + ^ x20: .cfa -16 + ^ x21: .cfa -24 + ^ x22: .cfa -32 + ^ x23: .cfa -40 + ^ x24: .cfa -48 + ^ x25: .cfa -56 + ^ x26: .cfa -64 + ^ x27: .cfa -72 + ^ x28: .cfa -80 + ^ .ra: .cfa -88 + ^ x29: .cfa -96 + ^
STACK CFI 1d0c4 .cfa: sp 144 +
STACK CFI 1d0e0 .cfa: sp 0 +
STACK CFI 1d0e4 .cfa: x29 96 +
STACK CFI INIT 1d13c 290 .cfa: sp 0 +
STACK CFI 1d140 .cfa: sp 128 +
STACK CFI 1d158 .cfa: x29 80 + x19: .cfa -8 + ^ x20: .cfa -16 + ^ x21: .cfa -24 + ^ x22: .cfa -32 + ^ x23: .cfa -40 + ^ x24: .cfa -48 + ^ x25: .cfa -56 + ^ x26: .cfa -64 + ^ .ra: .cfa -72 + ^ x29: .cfa -80 + ^
STACK CFI 1d3ac .cfa: sp 128 +
STACK CFI 1d3c4 .cfa: sp 0 +
STACK CFI 1d3c8 .cfa: x29 80 +
STACK CFI INIT 1d3cc dc8 .cfa: sp 0 +
STACK CFI 1d3d0 .cfa: sp 144 +
STACK CFI 1d3ec .cfa: x29 96 + x19: .cfa -8 + ^ x20: .cfa -16 + ^ x21: .cfa -24 + ^ x22: .cfa -32 + ^ x23: .cfa -40 + ^ x24: .cfa -48 + ^ x25: .cfa -56 + ^ x26: .cfa -64 + ^ x27: .cfa -72 + ^ x28: .cfa -80 + ^ .ra: .cfa -88 + ^ x29: .cfa -96 + ^
STACK CFI 1e06c .cfa: sp 144 +
STACK CFI 1e088 .cfa: sp 0 +
STACK CFI 1e08c .cfa: x29 96 +
STACK CFI INIT 1e194 1d0 .cfa: sp 0 +
STACK CFI 1e198 .cfa: sp 80 +
STACK CFI 1e1ac .cfa: x29 80 + x19: .cfa -8 + ^ x20: .cfa -16 + ^ x21: .cfa -24 + ^ x22: .cfa -32 + ^ x23: .cfa -40 + ^ x24: .cfa -48 + ^ x25: .cfa -64 + ^ .ra: .cfa -72 + ^ x29: .cfa -80 + ^
STACK CFI 1e34c .cfa: sp 80 +
STACK CFI 1e360 .cfa: sp 0 +
STACK CFI INIT 1e364 23c .cfa: sp 0 +
STACK CFI 1e368 .cfa: sp 112 +
STACK CFI 1e37c .cfa: x29 64 + x19: .cfa -8 + ^ x20: .cfa -16 + ^ x21: .cfa -24 + ^ x22: .cfa -32 + ^ x23: .cfa -40 + ^ x24: .cfa -48 + ^ .ra: .cfa -56 + ^ x29: .cfa -64 + ^
STACK CFI 1e558 .cfa: sp 112 +
STACK CFI 1e56c .cfa: sp 0 +
STACK CFI 1e570 .cfa: x29 64 +
STACK CFI INIT 1e5a0 30c .cfa: sp 0 +
STACK CFI 1e5a4 .cfa: sp 80 +
STACK CFI 1e5b8 .cfa: x29 64 + x19: .cfa -8 + ^ x20: .cfa -16 + ^ x21: .cfa -24 + ^ x22: .cfa -32 + ^ x23: .cfa -40 + ^ x24: .cfa -48 + ^ .ra: .cfa -56 + ^ x29: .cfa -64 + ^
STACK CFI 1e734 .cfa: sp 80 +
STACK CFI 1e748 .cfa: sp 0 +
STACK CFI 1e74c .cfa: x29 64 +
STACK CFI INIT 1e8ac 178 .cfa: sp 0 +
STACK CFI 1e8b0 .cfa: sp 80 +
STACK CFI 1e8c4 .cfa: x29 64 + x19: .cfa -8 + ^ x20: .cfa -16 + ^ x21: .cfa -24 + ^ x22: .cfa -32 + ^ x23: .cfa -40 + ^ x24: .cfa -48 + ^ .ra: .cfa -56 + ^ x29: .cfa -64 + ^
STACK CFI 1ea08 .cfa: sp 80 +
STACK CFI 1ea1c .cfa: sp 0 +
STACK CFI 1ea20 .cfa: x29 64 +
STACK CFI INIT 1ea24 178 .cfa: sp 0 +
STACK CFI 1ea28 .cfa: sp 80 +
STACK CFI 1ea3c .cfa: x29 64 + x19: .cfa -8 + ^ x20: .cfa -16 + ^ x21: .cfa -24 + ^ x22: .cfa -32 + ^ x23: .cfa -40 + ^ x24: .cfa -48 + ^ .ra: .cfa -56 + ^ x29: .cfa -64 + ^
STACK CFI 1eb80 .cfa: sp 80 +
STACK CFI 1eb94 .cfa: sp 0 +
STACK CFI 1eb98 .cfa: x29 64 +
STACK CFI INIT 1eb9c 240 .cfa: sp 0 +
STACK CFI 1eba0 .cfa: sp 96 +
STACK CFI 1ebb8 .cfa: x29 96 + x19: .cfa -8 + ^ x20: .cfa -16 + ^ x21: .cfa -24 + ^ x22: .cfa -32 + ^ x23: .cfa -40 + ^ x24: .cfa -48 + ^ x25: .cfa -56 + ^ x26: .cfa -64 + ^ x27: .cfa -72 + ^ x28: .cfa -80 + ^ .ra: .cfa -88 + ^ x29: .cfa -96 + ^
STACK CFI 1edc0 .cfa: sp 96 +
STACK CFI 1edd8 .cfa: sp 0 +
STACK CFI INIT 1fa50 154 .cfa: sp 0 +
STACK CFI 1fa54 .cfa: sp 96 +
STACK CFI 1fa68 .cfa: x29 64 + x19: .cfa -8 + ^ x20: .cfa -16 + ^ x21: .cfa -24 + ^ x22: .cfa -32 + ^ x23: .cfa -48 + ^ .ra: .cfa -56 + ^ x29: .cfa -64 + ^
STACK CFI 1fb48 .cfa: sp 96 +
STACK CFI 1fb5c .cfa: sp 0 +
STACK CFI 1fb60 .cfa: x29 64 +
STACK CFI INIT 1fe0c 44 .cfa: sp 0 +
STACK CFI 1fe10 .cfa: sp 32 +
STACK CFI 1fe18 .cfa: x29 32 + x19: .cfa -16 + ^ .ra: .cfa -24 + ^ x29: .cfa -32 + ^
STACK CFI 1fe34 .cfa: sp 32 +
STACK CFI 1fe3c .cfa: sp 0 +
STACK CFI 1fe40 .cfa: x29 32 +
STACK CFI 1fe44 .cfa: sp 32 +
STACK CFI 1fe4c .cfa: sp 0 +
STACK CFI INIT 1fe50 1d0 .cfa: sp 0 +
STACK CFI 1fe54 .cfa: sp 64 +
STACK CFI 1fe64 .cfa: x29 64 + x19: .cfa -8 + ^ x20: .cfa -16 + ^ x21: .cfa -24 + ^ x22: .cfa -32 + ^ x23: .cfa -40 + ^ x24: .cfa -48 + ^ .ra: .cfa -56 + ^ x29: .cfa -64 + ^
STACK CFI 1ff24 .cfa: sp 64 +
STACK CFI 1ff34 .cfa: sp 0 +
STACK CFI 1ff38 .cfa: x29 64 +
STACK CFI INIT 20020 17c .cfa: sp 0 +
STACK CFI INIT 2019c ac .cfa: sp 0 +
STACK CFI 201a0 .cfa: sp 64 +
STACK CFI 201b0 .cfa: x29 64 + x19: .cfa -8 + ^ x20: .cfa -16 + ^ x21: .cfa -24 + ^ x22: .cfa -32 + ^ x23: .cfa -48 + ^ .ra: .cfa -56 + ^ x29: .cfa -64 + ^
STACK CFI 2022c .cfa: sp 64 +
STACK CFI 2023c .cfa: sp 0 +
STACK CFI 20240 .cfa: x29 64 +
STACK CFI INIT 20248 13c .cfa: sp 0 +
STACK CFI 2024c .cfa: sp 64 +
STACK CFI 2025c .cfa: x29 64 + x19: .cfa -8 + ^ x20: .cfa -16 + ^ x21: .cfa -24 + ^ x22: .cfa -32 + ^ x23: .cfa -40 + ^ x24: .cfa -48 + ^ .ra: .cfa -56 + ^ x29: .cfa -64 + ^
STACK CFI 2033c .cfa: sp 64 +
STACK CFI 2034c .cfa: sp 0 +
STACK CFI 20350 .cfa: x29 64 +
STACK CFI INIT 2073c a0 .cfa: sp 0 +
STACK CFI 20740 .cfa: sp 48 +
STACK CFI 2074c .cfa: x29 48 + x19: .cfa -8 + ^ x20: .cfa -16 + ^ x21: .cfa -24 + ^ x22: .cfa -32 + ^ .ra: .cfa -40 + ^ x29: .cfa -48 + ^
STACK CFI 207b8 .cfa: sp 48 +
STACK CFI 207c4 .cfa: sp 0 +
STACK CFI 207c8 .cfa: sp 48 +
STACK CFI 207d4 .cfa: sp 0 +
STACK CFI 207d8 .cfa: x29 48 +
STACK CFI INIT 2148c 158 .cfa: sp 0 +
STACK CFI 21490 .cfa: sp 96 +
STACK CFI 214a4 .cfa: x29 64 + x19: .cfa -8 + ^ x20: .cfa -16 + ^ x21: .cfa -24 + ^ x22: .cfa -32 + ^ x23: .cfa -48 + ^ .ra: .cfa -56 + ^ x29: .cfa -64 + ^
STACK CFI 21588 .cfa: sp 96 +
STACK CFI 2159c .cfa: sp 0 +
STACK CFI 215a0 .cfa: x29 64 +
STACK CFI INIT 215e4 190 .cfa: sp 0 +
STACK CFI INIT 22258 1dc .cfa: sp 0 +
STACK CFI 2225c .cfa: sp 80 +
STACK CFI 22270 .cfa: x29 80 + x19: .cfa -8 + ^ x20: .cfa -16 + ^ x21: .cfa -24 + ^ x22: .cfa -32 + ^ x23: .cfa -40 + ^ x24: .cfa -48 + ^ x25: .cfa -64 + ^ .ra: .cfa -72 + ^ x29: .cfa -80 + ^
STACK CFI 2241c .cfa: sp 80 +
STACK CFI 22430 .cfa: sp 0 +
STACK CFI INIT 23858 124 .cfa: sp 0 +
STACK CFI 23888 .cfa: sp 32 +
STACK CFI 23890 .cfa: x29 32 + x19: .cfa -8 + ^ x20: .cfa -16 + ^ .ra: .cfa -24 + ^ x29: .cfa -32 + ^
STACK CFI 23970 .cfa: sp 32 +
STACK CFI 23978 .cfa: sp 0 +
STACK CFI INIT 240d8 324 .cfa: sp 0 +
STACK CFI 240dc .cfa: sp 64 +
STACK CFI 240ec .cfa: x29 64 + x19: .cfa -8 + ^ x20: .cfa -16 + ^ x21: .cfa -24 + ^ x22: .cfa -32 + ^ x23: .cfa -40 + ^ x24: .cfa -48 + ^ .ra: .cfa -56 + ^ x29: .cfa -64 + ^
STACK CFI 24168 .cfa: sp 64 +
STACK CFI 24178 .cfa: sp 0 +
STACK CFI 2417c .cfa: x29 64 +
STACK CFI 24354 .cfa: sp 64 +
STACK CFI 24364 .cfa: sp 0 +
STACK CFI 24368 .cfa: x29 64 +
STACK CFI 24378 .cfa: sp 64 +
STACK CFI 24388 .cfa: sp 0 +
STACK CFI 2438c .cfa: x29 64 +
STACK CFI INIT 243fc a0 .cfa: sp 0 +
STACK CFI 24400 .cfa: sp 48 +
STACK CFI 2440c .cfa: x29 48 + x19: .cfa -8 + ^ x20: .cfa -16 + ^ x21: .cfa -24 + ^ x22: .cfa -32 + ^ .ra: .cfa -40 + ^ x29: .cfa -48 + ^
STACK CFI 24478 .cfa: sp 48 +
STACK CFI 24484 .cfa: sp 0 +
STACK CFI 24488 .cfa: sp 48 +
STACK CFI 24494 .cfa: sp 0 +
STACK CFI 24498 .cfa: x29 48 +
STACK CFI INIT 25348 160 .cfa: sp 0 +
STACK CFI 2534c .cfa: sp 64 +
STACK CFI 2535c .cfa: x29 64 + x19: .cfa -8 + ^ x20: .cfa -16 + ^ x21: .cfa -24 + ^ x22: .cfa -32 + ^ x23: .cfa -48 + ^ .ra: .cfa -56 + ^ x29: .cfa -64 + ^
STACK CFI 25454 .cfa: sp 64 +
STACK CFI 25464 .cfa: sp 0 +
STACK CFI 25468 .cfa: x29 64 +
STACK CFI INIT 254a8 214 .cfa: sp 0 +
STACK CFI 254ac .cfa: sp 128 +
STACK CFI 254c8 .cfa: x29 96 + x19: .cfa -8 + ^ x20: .cfa -16 + ^ x21: .cfa -24 + ^ x22: .cfa -32 + ^ x23: .cfa -40 + ^ x24: .cfa -48 + ^ x25: .cfa -56 + ^ x26: .cfa -64 + ^ x27: .cfa -80 + ^ .ra: .cfa -88 + ^ x29: .cfa -96 + ^
STACK CFI 25644 .cfa: sp 128 +
STACK CFI 25660 .cfa: sp 0 +
STACK CFI 25664 .cfa: x29 96 +
STACK CFI INIT 27320 290 .cfa: sp 0 +
STACK CFI 27324 .cfa: sp 16 +
STACK CFI 27328 .cfa: x29 16 + .ra: .cfa -8 + ^ x29: .cfa -16 + ^
STACK CFI 273b4 .cfa: sp 16 +
STACK CFI 273b8 .cfa: sp 0 +
STACK CFI 273bc .cfa: x29 16 +
STACK CFI 2740c .cfa: sp 16 +
STACK CFI 27410 .cfa: sp 0 +
STACK CFI 27414 .cfa: x29 16 +
STACK CFI 27578 .cfa: sp 16 +
STACK CFI 2757c .cfa: sp 0 +
STACK CFI 27580 .cfa: x29 16 +
STACK CFI INIT 275b0 134 .cfa: sp 0 +
STACK CFI 275b4 .cfa: sp 96 +
STACK CFI 275cc .cfa: x29 96 + x19: .cfa -8 + ^ x20: .cfa -16 + ^ x21: .cfa -24 + ^ x22: .cfa -32 + ^ x23: .cfa -40 + ^ x24: .cfa -48 + ^ x25: .cfa -56 + ^ x26: .cfa -64 + ^ x27: .cfa -72 + ^ x28: .cfa -80 + ^ .ra: .cfa -88 + ^ x29: .cfa -96 + ^
STACK CFI 2769c .cfa: sp 96 +
STACK CFI 276a0 .cfa: x29 96 +
STACK CFI 276a4 .cfa: sp 96 +
STACK CFI 276bc .cfa: sp 0 +
STACK CFI 276c0 .cfa: x29 96 +
STACK CFI 276e0 .cfa: sp 96 +
STACK CFI INIT 276e4 e4c .cfa: sp 0 +
STACK CFI 276e8 .cfa: sp 192 +
STACK CFI 27704 .cfa: x29 96 + x19: .cfa -8 + ^ x20: .cfa -16 + ^ x21: .cfa -24 + ^ x22: .cfa -32 + ^ x23: .cfa -40 + ^ x24: .cfa -48 + ^ x25: .cfa -56 + ^ x26: .cfa -64 + ^ x27: .cfa -72 + ^ x28: .cfa -80 + ^ .ra: .cfa -88 + ^ x29: .cfa -96 + ^
STACK CFI 28418 .cfa: sp 192 +
STACK CFI 28434 .cfa: sp 0 +
STACK CFI 28438 .cfa: x29 96 +
STACK CFI INIT 28530 1068 .cfa: sp 0 +
STACK CFI 28534 .cfa: sp 288 +
STACK CFI 28550 .cfa: x29 96 + x19: .cfa -8 + ^ x20: .cfa -16 + ^ x21: .cfa -24 + ^ x22: .cfa -32 + ^ x23: .cfa -40 + ^ x24: .cfa -48 + ^ x25: .cfa -56 + ^ x26: .cfa -64 + ^ x27: .cfa -72 + ^ x28: .cfa -80 + ^ .ra: .cfa -88 + ^ x29: .cfa -96 + ^
STACK CFI 292e0 .cfa: sp 288 +
STACK CFI 292fc .cfa: sp 0 +
STACK CFI 29300 .cfa: x29 96 +
STACK CFI INIT 29598 520 .cfa: sp 0 +
STACK CFI 2959c .cfa: sp 144 +
STACK CFI 295b8 .cfa: x29 96 + x19: .cfa -8 + ^ x20: .cfa -16 + ^ x21: .cfa -24 + ^ x22: .cfa -32 + ^ x23: .cfa -40 + ^ x24: .cfa -48 + ^ x25: .cfa -56 + ^ x26: .cfa -64 + ^ x27: .cfa -72 + ^ x28: .cfa -80 + ^ .ra: .cfa -88 + ^ x29: .cfa -96 + ^
STACK CFI 29a94 .cfa: sp 144 +
STACK CFI 29ab0 .cfa: sp 0 +
STACK CFI 29ab4 .cfa: x29 96 +
STACK CFI INIT 2a504 12dc .cfa: sp 0 +
STACK CFI 2a508 .cfa: sp 208 +
STACK CFI 2a524 .cfa: x29 96 + x19: .cfa -8 + ^ x20: .cfa -16 + ^ x21: .cfa -24 + ^ x22: .cfa -32 + ^ x23: .cfa -40 + ^ x24: .cfa -48 + ^ x25: .cfa -56 + ^ x26: .cfa -64 + ^ x27: .cfa -72 + ^ x28: .cfa -80 + ^ .ra: .cfa -88 + ^ x29: .cfa -96 + ^
STACK CFI 2b7bc .cfa: sp 208 +
STACK CFI 2b7d8 .cfa: sp 0 +
STACK CFI 2b7dc .cfa: x29 96 +
STACK CFI INIT 2b7e0 1b8 .cfa: sp 0 +
STACK CFI INIT ca70 39c .cfa: sp 0 +
STACK CFI ca74 .cfa: sp 240 +
STACK CFI ca8c .cfa: x29 80 + x19: .cfa -8 + ^ x20: .cfa -16 + ^ x21: .cfa -24 + ^ x22: .cfa -32 + ^ x23: .cfa -40 + ^ x24: .cfa -48 + ^ x25: .cfa -64 + ^ .ra: .cfa -72 + ^ x29: .cfa -80 + ^
STACK CFI cce4 .cfa: sp 240 +
STACK CFI ccfc .cfa: sp 0 +
STACK CFI cd00 .cfa: x29 80 +
STACK CFI INIT cea0 bfc .cfa: sp 0 +
STACK CFI cea4 .cfa: sp 96 +
STACK CFI cec0 .cfa: x29 88 + x19: .cfa -8 + ^ x20: .cfa -16 + ^ x21: .cfa -24 + ^ x22: .cfa -32 + ^ x23: .cfa -40 + ^ x24: .cfa -48 + ^ x25: .cfa -56 + ^ x26: .cfa -64 + ^ x28: .cfa -72 + ^ .ra: .cfa -80 + ^ x29: .cfa -88 + ^ v8: .cfa -96 + ^
STACK CFI d8a8 .cfa: sp 96 +
STACK CFI d8c4 .cfa: sp 0 +
STACK CFI d8c8 .cfa: x29 88 +
STACK CFI INIT da9c 178 .cfa: sp 0 +
STACK CFI daa0 .cfa: sp 48 +
STACK CFI daac .cfa: x29 48 + x19: .cfa -8 + ^ x20: .cfa -16 + ^ x21: .cfa -24 + ^ x22: .cfa -32 + ^ .ra: .cfa -40 + ^ x29: .cfa -48 + ^
STACK CFI db68 .cfa: sp 48 +
STACK CFI db74 .cfa: sp 0 +
STACK CFI db78 .cfa: x29 48 +
STACK CFI db98 .cfa: sp 48 +
STACK CFI dba4 .cfa: sp 0 +
STACK CFI dba8 .cfa: x29 48 +
STACK CFI INIT dca8 3ec .cfa: sp 0 +
STACK CFI dcac .cfa: sp 384 +
STACK CFI dcc4 .cfa: x29 80 + x19: .cfa -8 + ^ x20: .cfa -16 + ^ x21: .cfa -24 + ^ x22: .cfa -32 + ^ x23: .cfa -40 + ^ x24: .cfa -48 + ^ x28: .cfa -64 + ^ .ra: .cfa -72 + ^ x29: .cfa -80 + ^
STACK CFI df70 .cfa: sp 384 +
STACK CFI df88 .cfa: sp 0 +
STACK CFI df8c .cfa: x29 80 +
STACK CFI INIT e0c4 474 .cfa: sp 0 +
STACK CFI e0c8 .cfa: sp 224 +
STACK CFI e0e4 .cfa: x29 96 + x19: .cfa -8 + ^ x20: .cfa -16 + ^ x21: .cfa -24 + ^ x22: .cfa -32 + ^ x23: .cfa -40 + ^ x24: .cfa -48 + ^ x25: .cfa -56 + ^ x26: .cfa -64 + ^ x27: .cfa -72 + ^ x28: .cfa -80 + ^ .ra: .cfa -88 + ^ x29: .cfa -96 + ^
STACK CFI e344 .cfa: sp 224 +
STACK CFI e360 .cfa: sp 0 +
STACK CFI e364 .cfa: x29 96 +
STACK CFI e430 .cfa: sp 224 +
STACK CFI e44c .cfa: sp 0 +
STACK CFI e450 .cfa: x29 96 +
STACK CFI INIT e550 528 .cfa: sp 0 +
STACK CFI e554 .cfa: sp 224 +
STACK CFI e570 .cfa: x29 96 + x19: .cfa -8 + ^ x20: .cfa -16 + ^ x21: .cfa -24 + ^ x22: .cfa -32 + ^ x23: .cfa -40 + ^ x24: .cfa -48 + ^ x25: .cfa -56 + ^ x26: .cfa -64 + ^ x27: .cfa -72 + ^ x28: .cfa -80 + ^ .ra: .cfa -88 + ^ x29: .cfa -96 + ^
STACK CFI e878 .cfa: sp 224 +
STACK CFI e894 .cfa: sp 0 +
STACK CFI e898 .cfa: x29 96 +
STACK CFI e964 .cfa: sp 224 +
STACK CFI e980 .cfa: sp 0 +
STACK CFI e984 .cfa: x29 96 +
STACK CFI INIT ea90 528 .cfa: sp 0 +
STACK CFI ea94 .cfa: sp 224 +
STACK CFI eab0 .cfa: x29 96 + x19: .cfa -8 + ^ x20: .cfa -16 + ^ x21: .cfa -24 + ^ x22: .cfa -32 + ^ x23: .cfa -40 + ^ x24: .cfa -48 + ^ x25: .cfa -56 + ^ x26: .cfa -64 + ^ x27: .cfa -72 + ^ x28: .cfa -80 + ^ .ra: .cfa -88 + ^ x29: .cfa -96 + ^
STACK CFI edb8 .cfa: sp 224 +
STACK CFI edd4 .cfa: sp 0 +
STACK CFI edd8 .cfa: x29 96 +
STACK CFI eea4 .cfa: sp 224 +
STACK CFI eec0 .cfa: sp 0 +
STACK CFI eec4 .cfa: x29 96 +
STACK CFI INIT efd0 44c .cfa: sp 0 +
STACK CFI efd4 .cfa: sp 224 +
STACK CFI eff0 .cfa: x29 96 + x19: .cfa -8 + ^ x20: .cfa -16 + ^ x21: .cfa -24 + ^ x22: .cfa -32 + ^ x23: .cfa -40 + ^ x24: .cfa -48 + ^ x25: .cfa -56 + ^ x26: .cfa -64 + ^ x27: .cfa -72 + ^ x28: .cfa -80 + ^ .ra: .cfa -88 + ^ x29: .cfa -96 + ^
STACK CFI f304 .cfa: sp 224 +
STACK CFI f320 .cfa: sp 0 +
STACK CFI f324 .cfa: x29 96 +
STACK CFI INIT f4dc 50 .cfa: sp 0 +
STACK CFI f4e0 .cfa: sp 32 +
STACK CFI f4e8 .cfa: x29 32 + x19: .cfa -8 + ^ x20: .cfa -16 + ^ .ra: .cfa -24 + ^ x29: .cfa -32 + ^
STACK CFI INIT f5a0 314 .cfa: sp 0 +
STACK CFI f5a4 .cfa: sp 144 +
STACK CFI f5c0 .cfa: x29 96 + x19: .cfa -8 + ^ x20: .cfa -16 + ^ x21: .cfa -24 + ^ x22: .cfa -32 + ^ x23: .cfa -40 + ^ x24: .cfa -48 + ^ x25: .cfa -56 + ^ x26: .cfa -64 + ^ x27: .cfa -80 + ^ .ra: .cfa -88 + ^ x29: .cfa -96 + ^
STACK CFI f83c .cfa: sp 144 +
STACK CFI f858 .cfa: sp 0 +
STACK CFI f85c .cfa: x29 96 +
STACK CFI INIT fa58 19c .cfa: sp 0 +
STACK CFI fa5c .cfa: sp 112 +
STACK CFI fa6c .cfa: x29 48 + x19: .cfa -8 + ^ x20: .cfa -16 + ^ x21: .cfa -32 + ^ .ra: .cfa -40 + ^ x29: .cfa -48 + ^
STACK CFI fb4c .cfa: sp 112 +
STACK CFI fb5c .cfa: sp 0 +
STACK CFI fb60 .cfa: x29 48 +
STACK CFI INIT fbf4 3d0 .cfa: sp 0 +
STACK CFI fbf8 .cfa: sp 176 +
STACK CFI fc14 .cfa: x29 96 + x19: .cfa -8 + ^ x20: .cfa -16 + ^ x21: .cfa -24 + ^ x22: .cfa -32 + ^ x23: .cfa -40 + ^ x24: .cfa -48 + ^ x25: .cfa -56 + ^ x26: .cfa -64 + ^ x27: .cfa -72 + ^ x28: .cfa -80 + ^ .ra: .cfa -88 + ^ x29: .cfa -96 + ^
STACK CFI fc54 .cfa: sp 176 +
STACK CFI fc70 .cfa: sp 0 +
STACK CFI fc74 .cfa: x29 96 +
STACK CFI INIT ffc4 10c .cfa: sp 0 +
STACK CFI ffc8 .cfa: sp 64 +
STACK CFI ffd8 .cfa: x29 64 + x19: .cfa -8 + ^ x20: .cfa -16 + ^ x21: .cfa -24 + ^ x22: .cfa -32 + ^ x23: .cfa -48 + ^ .ra: .cfa -56 + ^ x29: .cfa -64 + ^
STACK CFI 100b0 .cfa: sp 64 +
STACK CFI 100c0 .cfa: sp 0 +
STACK CFI 100c4 .cfa: x29 64 +
STACK CFI INIT 100d0 114 .cfa: sp 0 +
STACK CFI 100d4 .cfa: sp 48 +
STACK CFI 100e0 .cfa: x29 48 + x19: .cfa -8 + ^ x20: .cfa -16 + ^ x21: .cfa -32 + ^ .ra: .cfa -40 + ^ x29: .cfa -48 + ^
STACK CFI 101c4 .cfa: sp 48 +
STACK CFI 101d0 .cfa: sp 0 +
STACK CFI 101d4 .cfa: x29 48 +
STACK CFI INIT 10218 50 .cfa: sp 0 +
STACK CFI 1021c .cfa: sp 32 +
STACK CFI 10224 .cfa: x29 32 + x19: .cfa -8 + ^ x20: .cfa -16 + ^ .ra: .cfa -24 + ^ x29: .cfa -32 + ^
STACK CFI INIT 105b0 144 .cfa: sp 0 +
STACK CFI 105b4 .cfa: sp 144 +
STACK CFI 105c8 .cfa: x29 64 + x19: .cfa -8 + ^ x20: .cfa -16 + ^ x21: .cfa -24 + ^ x22: .cfa -32 + ^ x23: .cfa -40 + ^ x24: .cfa -48 + ^ .ra: .cfa -56 + ^ x29: .cfa -64 + ^
STACK CFI 1068c .cfa: sp 144 +
STACK CFI 106a0 .cfa: sp 0 +
STACK CFI 106a4 .cfa: x29 64 +
STACK CFI INIT 107e4 3f0 .cfa: sp 0 +
STACK CFI 107e8 .cfa: sp 272 +
STACK CFI 107fc .cfa: x29 64 + x19: .cfa -8 + ^ x20: .cfa -16 + ^ x21: .cfa -24 + ^ x22: .cfa -32 + ^ x23: .cfa -40 + ^ x28: .cfa -48 + ^ .ra: .cfa -56 + ^ x29: .cfa -64 + ^
STACK CFI 10a98 .cfa: sp 272 +
STACK CFI 10aac .cfa: sp 0 +
STACK CFI 10ab0 .cfa: x29 64 +
STACK CFI INIT 10c24 74 .cfa: sp 0 +
STACK CFI 10c28 .cfa: sp 48 +
STACK CFI 10c34 .cfa: x29 32 + x19: .cfa -8 + ^ x20: .cfa -16 + ^ .ra: .cfa -24 + ^ x29: .cfa -32 + ^
STACK CFI 10c80 .cfa: sp 48 +
STACK CFI 10c8c .cfa: sp 0 +
STACK CFI 10c90 .cfa: x29 32 +
STACK CFI INIT 10d18 154 .cfa: sp 0 +
STACK CFI 10d1c .cfa: sp 384 +
STACK CFI 10d30 .cfa: x29 64 + x19: .cfa -8 + ^ x20: .cfa -16 + ^ x21: .cfa -24 + ^ x22: .cfa -32 + ^ x23: .cfa -40 + ^ x28: .cfa -48 + ^ .ra: .cfa -56 + ^ x29: .cfa -64 + ^
STACK CFI 10e14 .cfa: sp 384 +
STACK CFI 10e28 .cfa: sp 0 +
STACK CFI 10e2c .cfa: x29 64 +
STACK CFI INIT 10ea0 134 .cfa: sp 0 +
STACK CFI 10ea4 .cfa: sp 80 +
STACK CFI 10eb8 .cfa: x29 80 + x19: .cfa -8 + ^ x20: .cfa -16 + ^ x21: .cfa -24 + ^ x22: .cfa -32 + ^ x23: .cfa -40 + ^ x24: .cfa -48 + ^ x25: .cfa -56 + ^ x26: .cfa -64 + ^ .ra: .cfa -72 + ^ x29: .cfa -80 + ^
STACK CFI 10f88 .cfa: sp 80 +
STACK CFI 10f9c .cfa: sp 0 +
STACK CFI 10fa0 .cfa: x29 80 +
STACK CFI INIT 11078 1a4 .cfa: sp 0 +
STACK CFI 1107c .cfa: sp 112 +
STACK CFI 11094 .cfa: x29 80 + x19: .cfa -8 + ^ x20: .cfa -16 + ^ x21: .cfa -24 + ^ x22: .cfa -32 + ^ x23: .cfa -40 + ^ x24: .cfa -48 + ^ x25: .cfa -56 + ^ x26: .cfa -64 + ^ .ra: .cfa -72 + ^ x29: .cfa -80 + ^
STACK CFI 11184 .cfa: sp 112 +
STACK CFI 1119c .cfa: sp 0 +
STACK CFI 111a0 .cfa: x29 80 +
STACK CFI INIT 1121c 1ec .cfa: sp 0 +
STACK CFI 11220 .cfa: sp 128 +
STACK CFI 1123c .cfa: x29 96 + x19: .cfa -8 + ^ x20: .cfa -16 + ^ x21: .cfa -24 + ^ x22: .cfa -32 + ^ x23: .cfa -40 + ^ x24: .cfa -48 + ^ x25: .cfa -56 + ^ x26: .cfa -64 + ^ x27: .cfa -80 + ^ .ra: .cfa -88 + ^ x29: .cfa -96 + ^
STACK CFI 113b8 .cfa: sp 128 +
STACK CFI 113d4 .cfa: sp 0 +
STACK CFI 113d8 .cfa: x29 96 +
STACK CFI INIT 11408 170 .cfa: sp 0 +
STACK CFI 1140c .cfa: sp 48 +
STACK CFI 11418 .cfa: x29 48 + x19: .cfa -8 + ^ x20: .cfa -16 + ^ x21: .cfa -32 + ^ .ra: .cfa -40 + ^ x29: .cfa -48 + ^
STACK CFI 1154c .cfa: sp 48 +
STACK CFI 11558 .cfa: sp 0 +
STACK CFI 1155c .cfa: x29 48 +
STACK CFI INIT 11748 1ac .cfa: sp 0 +
STACK CFI 1174c .cfa: sp 128 +
STACK CFI 11764 .cfa: x29 80 + x19: .cfa -8 + ^ x20: .cfa -16 + ^ x21: .cfa -24 + ^ x22: .cfa -32 + ^ x23: .cfa -40 + ^ x24: .cfa -48 + ^ x25: .cfa -64 + ^ .ra: .cfa -72 + ^ x29: .cfa -80 + ^
STACK CFI 11888 .cfa: sp 128 +
STACK CFI 118a0 .cfa: sp 0 +
STACK CFI 118a4 .cfa: x29 80 +
STACK CFI INIT 11fd8 33c .cfa: sp 0 +
STACK CFI 11fdc .cfa: sp 144 +
STACK CFI 11ff4 .cfa: x29 80 + x19: .cfa -8 + ^ x20: .cfa -16 + ^ x21: .cfa -24 + ^ x22: .cfa -32 + ^ x23: .cfa -40 + ^ x24: .cfa -48 + ^ x25: .cfa -56 + ^ x26: .cfa -64 + ^ .ra: .cfa -72 + ^ x29: .cfa -80 + ^
STACK CFI 122c0 .cfa: sp 144 +
STACK CFI 122d8 .cfa: sp 0 +
STACK CFI 122dc .cfa: x29 80 +
STACK CFI INIT 123c8 188 .cfa: sp 0 +
STACK CFI 123cc .cfa: sp 112 +
STACK CFI 123dc .cfa: x29 48 + x19: .cfa -8 + ^ x20: .cfa -16 + ^ x21: .cfa -32 + ^ .ra: .cfa -40 + ^ x29: .cfa -48 + ^
STACK CFI 124a4 .cfa: sp 112 +
STACK CFI 124b4 .cfa: sp 0 +
STACK CFI 124b8 .cfa: x29 48 +
STACK CFI INIT 12550 964 .cfa: sp 0 +
STACK CFI 12554 .cfa: sp 208 +
STACK CFI 12580 .cfa: x29 96 + x19: .cfa -8 + ^ x20: .cfa -16 + ^ x21: .cfa -24 + ^ x22: .cfa -32 + ^ x23: .cfa -40 + ^ x24: .cfa -48 + ^ x25: .cfa -56 + ^ x26: .cfa -64 + ^ x27: .cfa -72 + ^ x28: .cfa -80 + ^ .ra: .cfa -88 + ^ x29: .cfa -96 + ^ v8: .cfa -104 + ^ v9: .cfa -112 + ^ v10: .cfa -120 + ^ v11: .cfa -128 + ^ v12: .cfa -136 + ^ v13: .cfa -144 + ^ v14: .cfa -152 + ^ v15: .cfa -160 + ^
STACK CFI 12dfc .cfa: sp 208 +
STACK CFI 12e28 .cfa: sp 0 +
STACK CFI 12e2c .cfa: x29 96 +
STACK CFI INIT 12fb0 1c .cfa: sp 0 +
STACK CFI 12fb4 .cfa: sp 16 +
STACK CFI 12fb8 .cfa: x29 16 + .ra: .cfa -8 + ^ x29: .cfa -16 + ^
STACK CFI 12fc0 .cfa: sp 16 +
STACK CFI 12fc4 .cfa: sp 0 +
STACK CFI 12fc8 .cfa: x29 16 +
STACK CFI INIT 12fcc 1c .cfa: sp 0 +
STACK CFI 12fd0 .cfa: sp 16 +
STACK CFI 12fd4 .cfa: x29 16 + .ra: .cfa -8 + ^ x29: .cfa -16 + ^
STACK CFI 12fdc .cfa: sp 16 +
STACK CFI 12fe0 .cfa: sp 0 +
STACK CFI 12fe4 .cfa: x29 16 +
STACK CFI INIT 13374 e74 .cfa: sp 0 +
STACK CFI 13378 .cfa: sp 272 +
STACK CFI 13394 .cfa: x29 96 + x19: .cfa -8 + ^ x20: .cfa -16 + ^ x21: .cfa -24 + ^ x22: .cfa -32 + ^ x23: .cfa -40 + ^ x24: .cfa -48 + ^ x25: .cfa -56 + ^ x26: .cfa -64 + ^ x27: .cfa -72 + ^ x28: .cfa -80 + ^ .ra: .cfa -88 + ^ x29: .cfa -96 + ^
STACK CFI 13db4 .cfa: sp 272 +
STACK CFI 13dd0 .cfa: sp 0 +
STACK CFI 13dd4 .cfa: x29 96 +
STACK CFI INIT 141ec 24c .cfa: sp 0 +
STACK CFI 141f0 .cfa: sp 128 +
STACK CFI 14204 .cfa: x29 64 + x19: .cfa -8 + ^ x20: .cfa -16 + ^ x21: .cfa -24 + ^ x22: .cfa -32 + ^ x23: .cfa -48 + ^ .ra: .cfa -56 + ^ x29: .cfa -64 + ^
STACK CFI 143c0 .cfa: sp 128 +
STACK CFI 143d4 .cfa: sp 0 +
STACK CFI 143d8 .cfa: x29 64 +
STACK CFI INIT 14438 1d4 .cfa: sp 0 +
STACK CFI 1443c .cfa: sp 128 +
STACK CFI 14458 .cfa: x29 96 + x19: .cfa -8 + ^ x20: .cfa -16 + ^ x21: .cfa -24 + ^ x22: .cfa -32 + ^ x23: .cfa -40 + ^ x24: .cfa -48 + ^ x25: .cfa -56 + ^ x26: .cfa -64 + ^ x27: .cfa -72 + ^ x28: .cfa -80 + ^ .ra: .cfa -88 + ^ x29: .cfa -96 + ^
STACK CFI 145c4 .cfa: sp 128 +
STACK CFI 145e0 .cfa: sp 0 +
STACK CFI 145e4 .cfa: x29 96 +
STACK CFI INIT 1460c 168 .cfa: sp 0 +
STACK CFI 14610 .cfa: sp 384 +
STACK CFI 14624 .cfa: x29 64 + x19: .cfa -8 + ^ x20: .cfa -16 + ^ x21: .cfa -24 + ^ x22: .cfa -32 + ^ x23: .cfa -40 + ^ x28: .cfa -48 + ^ .ra: .cfa -56 + ^ x29: .cfa -64 + ^
STACK CFI 1471c .cfa: sp 384 +
STACK CFI 14730 .cfa: sp 0 +
STACK CFI 14734 .cfa: x29 64 +
STACK CFI INIT 1478c 97c .cfa: sp 0 +
STACK CFI 14790 .cfa: sp 96 +
STACK CFI 147a8 .cfa: x29 96 + x19: .cfa -8 + ^ x20: .cfa -16 + ^ x21: .cfa -24 + ^ x22: .cfa -32 + ^ x23: .cfa -40 + ^ x24: .cfa -48 + ^ x25: .cfa -56 + ^ x26: .cfa -64 + ^ x27: .cfa -72 + ^ x28: .cfa -80 + ^ .ra: .cfa -88 + ^ x29: .cfa -96 + ^
STACK CFI 14f78 .cfa: sp 96 +
STACK CFI 14f90 .cfa: sp 0 +
STACK CFI 14f94 .cfa: x29 96 +
STACK CFI INIT 15108 184 .cfa: sp 0 +
STACK CFI 1510c .cfa: sp 160 +
STACK CFI 15124 .cfa: x29 80 + x19: .cfa -8 + ^ x20: .cfa -16 + ^ x21: .cfa -24 + ^ x22: .cfa -32 + ^ x23: .cfa -40 + ^ x24: .cfa -48 + ^ x25: .cfa -56 + ^ x26: .cfa -64 + ^ .ra: .cfa -72 + ^ x29: .cfa -80 + ^
STACK CFI 15224 .cfa: sp 160 +
STACK CFI 1523c .cfa: sp 0 +
STACK CFI 15240 .cfa: x29 80 +
STACK CFI INIT 152c0 390 .cfa: sp 0 +
STACK CFI 152c4 .cfa: sp 144 +
STACK CFI 152e0 .cfa: x29 96 + x19: .cfa -8 + ^ x20: .cfa -16 + ^ x21: .cfa -24 + ^ x22: .cfa -32 + ^ x23: .cfa -40 + ^ x24: .cfa -48 + ^ x25: .cfa -56 + ^ x26: .cfa -64 + ^ x27: .cfa -72 + ^ x28: .cfa -80 + ^ .ra: .cfa -88 + ^ x29: .cfa -96 + ^
STACK CFI 15460 .cfa: sp 144 +
STACK CFI 1547c .cfa: sp 0 +
STACK CFI 15480 .cfa: x29 96 +
STACK CFI 155e0 .cfa: sp 144 +
STACK CFI 155fc .cfa: sp 0 +
STACK CFI 15600 .cfa: x29 96 +
STACK CFI INIT 15650 26c .cfa: sp 0 +
STACK CFI 15654 .cfa: sp 48 +
STACK CFI 15660 .cfa: x29 48 + x19: .cfa -8 + ^ x20: .cfa -16 + ^ x21: .cfa -24 + ^ x22: .cfa -32 + ^ .ra: .cfa -40 + ^ x29: .cfa -48 + ^
STACK CFI 157cc .cfa: sp 48 +
STACK CFI 157d8 .cfa: sp 0 +
STACK CFI 157dc .cfa: x29 48 +
STACK CFI 15880 .cfa: sp 48 +
STACK CFI 1588c .cfa: sp 0 +
STACK CFI 15890 .cfa: x29 48 +
STACK CFI INIT 158bc 8e8 .cfa: sp 0 +
STACK CFI 158c0 .cfa: sp 384 +
STACK CFI 158dc .cfa: x29 96 + x19: .cfa -8 + ^ x20: .cfa -16 + ^ x21: .cfa -24 + ^ x22: .cfa -32 + ^ x23: .cfa -40 + ^ x24: .cfa -48 + ^ x25: .cfa -56 + ^ x26: .cfa -64 + ^ x27: .cfa -72 + ^ x28: .cfa -80 + ^ .ra: .cfa -88 + ^ x29: .cfa -96 + ^
STACK CFI 16078 .cfa: sp 384 +
STACK CFI 16094 .cfa: sp 0 +
STACK CFI 16098 .cfa: x29 96 +
STACK CFI INIT 166d8 1c0 .cfa: sp 0 +
STACK CFI 166dc .cfa: sp 80 +
STACK CFI 166f0 .cfa: x29 80 + x19: .cfa -8 + ^ x20: .cfa -16 + ^ x21: .cfa -24 + ^ x22: .cfa -32 + ^ x23: .cfa -40 + ^ x24: .cfa -48 + ^ x25: .cfa -56 + ^ x26: .cfa -64 + ^ .ra: .cfa -72 + ^ x29: .cfa -80 + ^
STACK CFI 16804 .cfa: sp 80 +
STACK CFI 16818 .cfa: sp 0 +
STACK CFI 1681c .cfa: x29 80 +
STACK CFI INIT 16898 1c .cfa: sp 0 +
STACK CFI 1689c .cfa: sp 16 +
STACK CFI 168a0 .cfa: x29 16 + .ra: .cfa -8 + ^ x29: .cfa -16 + ^
STACK CFI 168a8 .cfa: sp 16 +
STACK CFI 168ac .cfa: sp 0 +
STACK CFI 168b0 .cfa: x29 16 +
STACK CFI INIT 168b4 3fc .cfa: sp 0 +
STACK CFI 168b8 .cfa: sp 352 +
STACK CFI 168d4 .cfa: x29 96 + x19: .cfa -8 + ^ x20: .cfa -16 + ^ x21: .cfa -24 + ^ x22: .cfa -32 + ^ x23: .cfa -40 + ^ x24: .cfa -48 + ^ x25: .cfa -56 + ^ x26: .cfa -64 + ^ x27: .cfa -72 + ^ x28: .cfa -80 + ^ .ra: .cfa -88 + ^ x29: .cfa -96 + ^
STACK CFI 16c3c .cfa: sp 352 +
STACK CFI 16c58 .cfa: sp 0 +
STACK CFI 16c5c .cfa: x29 96 +
STACK CFI INIT 16cb0 154 .cfa: sp 0 +
STACK CFI 16cb4 .cfa: sp 64 +
STACK CFI 16cc4 .cfa: x29 64 + x19: .cfa -8 + ^ x20: .cfa -16 + ^ x21: .cfa -24 + ^ x22: .cfa -32 + ^ x23: .cfa -40 + ^ x24: .cfa -48 + ^ .ra: .cfa -56 + ^ x29: .cfa -64 + ^
STACK CFI 16d98 .cfa: sp 64 +
STACK CFI 16da8 .cfa: sp 0 +
STACK CFI 16dac .cfa: x29 64 +
STACK CFI INIT 16e04 154 .cfa: sp 0 +
STACK CFI 16e08 .cfa: sp 64 +
STACK CFI 16e18 .cfa: x29 64 + x19: .cfa -8 + ^ x20: .cfa -16 + ^ x21: .cfa -24 + ^ x22: .cfa -32 + ^ x23: .cfa -40 + ^ x24: .cfa -48 + ^ .ra: .cfa -56 + ^ x29: .cfa -64 + ^
STACK CFI 16eec .cfa: sp 64 +
STACK CFI 16efc .cfa: sp 0 +
STACK CFI 16f00 .cfa: x29 64 +
STACK CFI INIT 16f58 6c8 .cfa: sp 0 +
STACK CFI 16f5c .cfa: sp 208 +
STACK CFI 16f74 .cfa: x29 80 + x19: .cfa -8 + ^ x20: .cfa -16 + ^ x21: .cfa -24 + ^ x22: .cfa -32 + ^ x23: .cfa -40 + ^ x24: .cfa -48 + ^ x25: .cfa -64 + ^ .ra: .cfa -72 + ^ x29: .cfa -80 + ^
STACK CFI 173e8 .cfa: sp 208 +
STACK CFI 17400 .cfa: sp 0 +
STACK CFI 17404 .cfa: x29 80 +
STACK CFI INIT 17624 24c .cfa: sp 0 +
STACK CFI 17628 .cfa: sp 128 +
STACK CFI 1763c .cfa: x29 64 + x19: .cfa -8 + ^ x20: .cfa -16 + ^ x21: .cfa -24 + ^ x22: .cfa -32 + ^ x23: .cfa -48 + ^ .ra: .cfa -56 + ^ x29: .cfa -64 + ^
STACK CFI 177f8 .cfa: sp 128 +
STACK CFI 1780c .cfa: sp 0 +
STACK CFI 17810 .cfa: x29 64 +
STACK CFI INIT 17870 698 .cfa: sp 0 +
STACK CFI 17874 .cfa: sp 176 +
STACK CFI 17894 .cfa: x29 96 + x19: .cfa -8 + ^ x20: .cfa -16 + ^ x21: .cfa -24 + ^ x22: .cfa -32 + ^ x23: .cfa -40 + ^ x24: .cfa -48 + ^ x25: .cfa -56 + ^ x26: .cfa -64 + ^ x27: .cfa -72 + ^ x28: .cfa -80 + ^ .ra: .cfa -88 + ^ x29: .cfa -96 + ^ v8: .cfa -104 + ^ v9: .cfa -112 + ^
STACK CFI 17e28 .cfa: sp 176 +
STACK CFI 17e48 .cfa: sp 0 +
STACK CFI 17e4c .cfa: x29 96 +
STACK CFI INIT 17f08 184 .cfa: sp 0 +
STACK CFI 17f0c .cfa: sp 160 +
STACK CFI 17f24 .cfa: x29 80 + x19: .cfa -8 + ^ x20: .cfa -16 + ^ x21: .cfa -24 + ^ x22: .cfa -32 + ^ x23: .cfa -40 + ^ x24: .cfa -48 + ^ x25: .cfa -56 + ^ x26: .cfa -64 + ^ .ra: .cfa -72 + ^ x29: .cfa -80 + ^
STACK CFI 18024 .cfa: sp 160 +
STACK CFI 1803c .cfa: sp 0 +
STACK CFI 18040 .cfa: x29 80 +
STACK CFI INIT 1818c 360 .cfa: sp 0 +
STACK CFI 18190 .cfa: sp 256 +
STACK CFI 181a4 .cfa: x29 64 + x19: .cfa -8 + ^ x20: .cfa -16 + ^ x21: .cfa -24 + ^ x22: .cfa -32 + ^ x23: .cfa -48 + ^ .ra: .cfa -56 + ^ x29: .cfa -64 + ^
STACK CFI 183c0 .cfa: sp 256 +
STACK CFI 183d4 .cfa: sp 0 +
STACK CFI 183d8 .cfa: x29 64 +
STACK CFI INIT 1869c 60 .cfa: sp 0 +
STACK CFI 186a0 .cfa: sp 32 +
STACK CFI 186a8 .cfa: x29 32 + x19: .cfa -8 + ^ x20: .cfa -16 + ^ .ra: .cfa -24 + ^ x29: .cfa -32 + ^
STACK CFI 186dc .cfa: sp 32 +
STACK CFI 186e4 .cfa: sp 0 +
STACK CFI 186e8 .cfa: x29 32 +
STACK CFI INIT 18a1c 134 .cfa: sp 0 +
STACK CFI 18a20 .cfa: sp 80 +
STACK CFI 18a2c .cfa: x29 32 + x19: .cfa -8 + ^ x20: .cfa -16 + ^ .ra: .cfa -24 + ^ x29: .cfa -32 + ^
STACK CFI 18a5c .cfa: sp 80 +
STACK CFI 18a68 .cfa: sp 0 +
STACK CFI 18a6c .cfa: x29 32 +
STACK CFI INIT 18b50 78 .cfa: sp 0 +
STACK CFI 18b54 .cfa: sp 32 +
STACK CFI 18b5c .cfa: x29 32 + x19: .cfa -8 + ^ x20: .cfa -16 + ^ .ra: .cfa -24 + ^ x29: .cfa -32 + ^
STACK CFI 18b68 .cfa: sp 32 +
STACK CFI 18b70 .cfa: sp 0 +
STACK CFI 18b74 .cfa: x29 32 +
STACK CFI INIT 18bc8 74 .cfa: sp 0 +
STACK CFI 18bcc .cfa: sp 48 +
STACK CFI 18bd8 .cfa: x29 32 + x19: .cfa -8 + ^ x20: .cfa -16 + ^ .ra: .cfa -24 + ^ x29: .cfa -32 + ^
STACK CFI 18c24 .cfa: sp 48 +
STACK CFI 18c30 .cfa: sp 0 +
STACK CFI 18c34 .cfa: x29 32 +
STACK CFI INIT 18ca0 224 .cfa: sp 0 +
STACK CFI 18ca4 .cfa: sp 128 +
STACK CFI 18cb4 .cfa: x29 48 + x19: .cfa -8 + ^ x20: .cfa -16 + ^ x21: .cfa -32 + ^ .ra: .cfa -40 + ^ x29: .cfa -48 + ^
STACK CFI 18d64 .cfa: sp 128 +
STACK CFI 18d74 .cfa: sp 0 +
STACK CFI 18d78 .cfa: x29 48 +
STACK CFI INIT 18f3c 4f4 .cfa: sp 0 +
STACK CFI 18f40 .cfa: sp 144 +
STACK CFI 18f54 .cfa: x29 64 + x19: .cfa -8 + ^ x20: .cfa -16 + ^ x21: .cfa -24 + ^ x22: .cfa -32 + ^ x23: .cfa -48 + ^ .ra: .cfa -56 + ^ x29: .cfa -64 + ^
STACK CFI 19288 .cfa: sp 144 +
STACK CFI 1929c .cfa: sp 0 +
STACK CFI 192a0 .cfa: x29 64 +
STACK CFI INIT 19430 154 .cfa: sp 0 +
STACK CFI 19434 .cfa: sp 384 +
STACK CFI 19448 .cfa: x29 64 + x19: .cfa -8 + ^ x20: .cfa -16 + ^ x21: .cfa -24 + ^ x22: .cfa -32 + ^ x23: .cfa -40 + ^ x28: .cfa -48 + ^ .ra: .cfa -56 + ^ x29: .cfa -64 + ^
STACK CFI 1952c .cfa: sp 384 +
STACK CFI 19540 .cfa: sp 0 +
STACK CFI 19544 .cfa: x29 64 +
STACK CFI INIT 1959c 50c .cfa: sp 0 +
STACK CFI 195a0 .cfa: sp 64 +
STACK CFI 195b0 .cfa: x29 64 + x19: .cfa -8 + ^ x20: .cfa -16 + ^ x21: .cfa -24 + ^ x22: .cfa -32 + ^ x23: .cfa -40 + ^ x24: .cfa -48 + ^ .ra: .cfa -56 + ^ x29: .cfa -64 + ^
STACK CFI 196d0 .cfa: sp 64 +
STACK CFI 196e0 .cfa: sp 0 +
STACK CFI 196e4 .cfa: x29 64 +
STACK CFI 19a7c .cfa: sp 64 +
STACK CFI 19a8c .cfa: sp 0 +
STACK CFI 19a90 .cfa: x29 64 +
STACK CFI INIT 19dd8 294 .cfa: sp 0 +
STACK CFI 19ddc .cfa: sp 240 +
STACK CFI 19df4 .cfa: x29 80 + x19: .cfa -8 + ^ x20: .cfa -16 + ^ x21: .cfa -24 + ^ x22: .cfa -32 + ^ x23: .cfa -40 + ^ x24: .cfa -48 + ^ x25: .cfa -64 + ^ .ra: .cfa -72 + ^ x29: .cfa -80 + ^
STACK CFI 19f94 .cfa: sp 240 +
STACK CFI 19fac .cfa: sp 0 +
STACK CFI 19fb0 .cfa: x29 80 +
STACK CFI INIT 1a0e8 50 .cfa: sp 0 +
STACK CFI 1a0ec .cfa: sp 32 +
STACK CFI 1a0f4 .cfa: x29 32 + x19: .cfa -8 + ^ x20: .cfa -16 + ^ .ra: .cfa -24 + ^ x29: .cfa -32 + ^
STACK CFI INIT 1a164 7c0 .cfa: sp 0 +
STACK CFI 1a168 .cfa: sp 320 +
STACK CFI 1a184 .cfa: x29 96 + x19: .cfa -8 + ^ x20: .cfa -16 + ^ x21: .cfa -24 + ^ x22: .cfa -32 + ^ x23: .cfa -40 + ^ x24: .cfa -48 + ^ x25: .cfa -56 + ^ x26: .cfa -64 + ^ x27: .cfa -72 + ^ x28: .cfa -80 + ^ .ra: .cfa -88 + ^ x29: .cfa -96 + ^
STACK CFI 1a7d4 .cfa: sp 320 +
STACK CFI 1a7f0 .cfa: sp 0 +
STACK CFI 1a7f4 .cfa: x29 96 +
STACK CFI INIT 1a988 14c .cfa: sp 0 +
STACK CFI 1a98c .cfa: sp 80 +
STACK CFI 1a9a0 .cfa: x29 80 + x19: .cfa -8 + ^ x20: .cfa -16 + ^ x21: .cfa -24 + ^ x22: .cfa -32 + ^ x23: .cfa -40 + ^ x24: .cfa -48 + ^ x28: .cfa -64 + ^ .ra: .cfa -72 + ^ x29: .cfa -80 + ^
STACK CFI 1aa34 .cfa: sp 80 +
STACK CFI 1aa48 .cfa: sp 0 +
STACK CFI 1aa4c .cfa: x29 80 +
STACK CFI INIT 1eddc c74 .cfa: sp 0 +
STACK CFI 1ede0 .cfa: sp 96 +
STACK CFI 1edf8 .cfa: x29 96 + x19: .cfa -8 + ^ x20: .cfa -16 + ^ x21: .cfa -24 + ^ x22: .cfa -32 + ^ x23: .cfa -40 + ^ x24: .cfa -48 + ^ x25: .cfa -56 + ^ x26: .cfa -64 + ^ x27: .cfa -72 + ^ x28: .cfa -80 + ^ .ra: .cfa -88 + ^ x29: .cfa -96 + ^
STACK CFI 1f86c .cfa: sp 96 +
STACK CFI 1f884 .cfa: sp 0 +
STACK CFI 1f888 .cfa: x29 96 +
STACK CFI INIT 1fba4 268 .cfa: sp 0 +
STACK CFI 1fba8 .cfa: sp 128 +
STACK CFI 1fbb8 .cfa: x29 48 + x19: .cfa -8 + ^ x20: .cfa -16 + ^ x21: .cfa -24 + ^ x22: .cfa -32 + ^ .ra: .cfa -40 + ^ x29: .cfa -48 + ^
STACK CFI 1fd58 .cfa: sp 128 +
STACK CFI 1fd68 .cfa: sp 0 +
STACK CFI 1fd6c .cfa: x29 48 +
STACK CFI INIT 20384 3b8 .cfa: sp 0 +
STACK CFI 20388 .cfa: sp 96 +
STACK CFI 203a0 .cfa: x29 96 + x19: .cfa -8 + ^ x20: .cfa -16 + ^ x21: .cfa -24 + ^ x22: .cfa -32 + ^ x23: .cfa -40 + ^ x24: .cfa -48 + ^ x25: .cfa -56 + ^ x26: .cfa -64 + ^ x27: .cfa -72 + ^ x28: .cfa -80 + ^ .ra: .cfa -88 + ^ x29: .cfa -96 + ^
STACK CFI 206dc .cfa: sp 96 +
STACK CFI 206f4 .cfa: sp 0 +
STACK CFI 206f8 .cfa: x29 96 +
STACK CFI INIT 207dc cb0 .cfa: sp 0 +
STACK CFI 207e0 .cfa: sp 96 +
STACK CFI 207f8 .cfa: x29 96 + x19: .cfa -8 + ^ x20: .cfa -16 + ^ x21: .cfa -24 + ^ x22: .cfa -32 + ^ x23: .cfa -40 + ^ x24: .cfa -48 + ^ x25: .cfa -56 + ^ x26: .cfa -64 + ^ x27: .cfa -72 + ^ x28: .cfa -80 + ^ .ra: .cfa -88 + ^ x29: .cfa -96 + ^
STACK CFI 2129c .cfa: sp 96 +
STACK CFI 212b4 .cfa: sp 0 +
STACK CFI 212b8 .cfa: x29 96 +
STACK CFI INIT 21774 ae4 .cfa: sp 0 +
STACK CFI 21778 .cfa: sp 96 +
STACK CFI 21790 .cfa: x29 96 + x19: .cfa -8 + ^ x20: .cfa -16 + ^ x21: .cfa -24 + ^ x22: .cfa -32 + ^ x23: .cfa -40 + ^ x24: .cfa -48 + ^ x25: .cfa -56 + ^ x26: .cfa -64 + ^ x27: .cfa -72 + ^ x28: .cfa -80 + ^ .ra: .cfa -88 + ^ x29: .cfa -96 + ^
STACK CFI 221cc .cfa: sp 96 +
STACK CFI 221e4 .cfa: sp 0 +
STACK CFI 221e8 .cfa: x29 96 +
STACK CFI INIT 22434 1424 .cfa: sp 0 +
STACK CFI 22438 .cfa: sp 96 +
STACK CFI 22450 .cfa: x29 96 + x19: .cfa -8 + ^ x20: .cfa -16 + ^ x21: .cfa -24 + ^ x22: .cfa -32 + ^ x23: .cfa -40 + ^ x24: .cfa -48 + ^ x25: .cfa -56 + ^ x26: .cfa -64 + ^ x27: .cfa -72 + ^ x28: .cfa -80 + ^ .ra: .cfa -88 + ^ x29: .cfa -96 + ^
STACK CFI 236e8 .cfa: sp 96 +
STACK CFI 23700 .cfa: sp 0 +
STACK CFI 23704 .cfa: x29 96 +
STACK CFI INIT 2397c 75c .cfa: sp 0 +
STACK CFI 23980 .cfa: sp 368 +
STACK CFI 2399c .cfa: x29 96 + x19: .cfa -8 + ^ x20: .cfa -16 + ^ x21: .cfa -24 + ^ x22: .cfa -32 + ^ x23: .cfa -40 + ^ x24: .cfa -48 + ^ x25: .cfa -56 + ^ x26: .cfa -64 + ^ x27: .cfa -72 + ^ x28: .cfa -80 + ^ .ra: .cfa -88 + ^ x29: .cfa -96 + ^
STACK CFI 23a50 .cfa: sp 368 +
STACK CFI 23a6c .cfa: sp 0 +
STACK CFI 23a70 .cfa: x29 96 +
STACK CFI 23ac4 .cfa: sp 368 +
STACK CFI 23ae0 .cfa: sp 0 +
STACK CFI 23ae4 .cfa: x29 96 +
STACK CFI INIT 2449c eac .cfa: sp 0 +
STACK CFI 244a0 .cfa: sp 96 +
STACK CFI 244b8 .cfa: x29 96 + x19: .cfa -8 + ^ x20: .cfa -16 + ^ x21: .cfa -24 + ^ x22: .cfa -32 + ^ x23: .cfa -40 + ^ x24: .cfa -48 + ^ x25: .cfa -56 + ^ x26: .cfa -64 + ^ x27: .cfa -72 + ^ x28: .cfa -80 + ^ .ra: .cfa -88 + ^ x29: .cfa -96 + ^
STACK CFI 2515c .cfa: sp 96 +
STACK CFI 25174 .cfa: sp 0 +
STACK CFI 25178 .cfa: x29 96 +
STACK CFI INIT 256bc 1c64 .cfa: sp 0 +
STACK CFI 256c0 .cfa: sp 112 +
STACK CFI 256dc .cfa: x29 96 + x19: .cfa -8 + ^ x20: .cfa -16 + ^ x21: .cfa -24 + ^ x22: .cfa -32 + ^ x23: .cfa -40 + ^ x24: .cfa -48 + ^ x25: .cfa -56 + ^ x26: .cfa -64 + ^ x27: .cfa -72 + ^ x28: .cfa -80 + ^ .ra: .cfa -88 + ^ x29: .cfa -96 + ^ v8: .cfa -112 + ^
STACK CFI 25ab0 .cfa: sp 112 +
STACK CFI 25acc .cfa: sp 0 +
STACK CFI 25ad0 .cfa: x29 96 +
STACK CFI INIT 29ab8 a4c .cfa: sp 0 +
STACK CFI 29abc .cfa: sp 144 +
STACK CFI 29ad4 .cfa: x29 80 + x19: .cfa -8 + ^ x20: .cfa -16 + ^ x21: .cfa -24 + ^ x22: .cfa -32 + ^ x23: .cfa -40 + ^ x24: .cfa -48 + ^ x25: .cfa -64 + ^ .ra: .cfa -72 + ^ x29: .cfa -80 + ^
STACK CFI 2a45c .cfa: sp 144 +
STACK CFI 2a474 .cfa: sp 0 +
STACK CFI 2a478 .cfa: x29 80 +
STACK CFI INIT 2b998 57c .cfa: sp 0 +
STACK CFI 2b99c .cfa: sp 96 +
STACK CFI 2b9b4 .cfa: x29 96 + x19: .cfa -8 + ^ x20: .cfa -16 + ^ x21: .cfa -24 + ^ x22: .cfa -32 + ^ x23: .cfa -40 + ^ x24: .cfa -48 + ^ x25: .cfa -56 + ^ x26: .cfa -64 + ^ x27: .cfa -72 + ^ x28: .cfa -80 + ^ .ra: .cfa -88 + ^ x29: .cfa -96 + ^
STACK CFI 2be78 .cfa: sp 96 +
STACK CFI 2be90 .cfa: sp 0 +
STACK CFI 2be94 .cfa: x29 96 +
STACK CFI INIT 2bf14 67c .cfa: sp 0 +
STACK CFI 2bf18 .cfa: sp 96 +
STACK CFI 2bf30 .cfa: x29 96 + x19: .cfa -8 + ^ x20: .cfa -16 + ^ x21: .cfa -24 + ^ x22: .cfa -32 + ^ x23: .cfa -40 + ^ x24: .cfa -48 + ^ x25: .cfa -56 + ^ x26: .cfa -64 + ^ x27: .cfa -72 + ^ x28: .cfa -80 + ^ .ra: .cfa -88 + ^ x29: .cfa -96 + ^
STACK CFI 2c4f4 .cfa: sp 96 +
STACK CFI 2c50c .cfa: sp 0 +
STACK CFI 2c510 .cfa: x29 96 +
