MODULE Linux arm64 77F49C3C6CC8D900ED8CC369EEB53D040 km7dev.audio-offset.android64.so
INFO CODE_ID 3C9CF477C86C00D9ED8CC369EEB53D04A4422D23
INFO GENERATOR mozilla/dump_syms 2.3.4
PUBLIC 16700 0 __on_dlclose
PUBLIC 16710 0 __emutls_unregister_key
PUBLIC 16718 0 __on_dlclose_late
PUBLIC 16720 0 __atexit_handler_wrapper
PUBLIC 16734 0 atexit
PUBLIC 16750 0 pthread_atfork
PUBLIC 16760 0 unwind_phase2
PUBLIC 16894 0 _Unwind_Resume
PUBLIC 16918 0 unwind_phase2_forced
PUBLIC m 16a0c 0 __unw_init_local
PUBLIC m 16ab4 0 __unw_get_reg
PUBLIC 16b30 0 __unw_step_stage2
PUBLIC m 16b44 0 __unw_get_proc_info
PUBLIC m 16b84 0 __unw_resume
PUBLIC 16bac 0 libunwind::CFI_Parser<libunwind::LocalAddressSpace>::decodeFDE(libunwind::LocalAddressSpace&, unsigned long, libunwind::CFI_Parser<libunwind::LocalAddressSpace>::FDE_Info*, libunwind::CFI_Parser<libunwind::LocalAddressSpace>::CIE_Info*, bool)
PUBLIC 16d3c 0 libunwind::CFI_Parser<libunwind::LocalAddressSpace>::parseCIE(libunwind::LocalAddressSpace&, unsigned long, libunwind::CFI_Parser<libunwind::LocalAddressSpace>::CIE_Info*)
PUBLIC 17004 0 libunwind::AbstractUnwindCursor::~AbstractUnwindCursor()
PUBLIC 1700c 0 libunwind::UnwindCursor<libunwind::LocalAddressSpace, libunwind::Registers_arm64>::~UnwindCursor()
PUBLIC 17014 0 libunwind::UnwindCursor<libunwind::LocalAddressSpace, libunwind::Registers_arm64>::validReg(int)
PUBLIC 17058 0 libunwind::UnwindCursor<libunwind::LocalAddressSpace, libunwind::Registers_arm64>::getReg(int)
PUBLIC 17140 0 libunwind::UnwindCursor<libunwind::LocalAddressSpace, libunwind::Registers_arm64>::setReg(int, unsigned long)
PUBLIC 17228 0 libunwind::UnwindCursor<libunwind::LocalAddressSpace, libunwind::Registers_arm64>::validFloatReg(int)
PUBLIC 1723c 0 libunwind::UnwindCursor<libunwind::LocalAddressSpace, libunwind::Registers_arm64>::getFloatReg(int)
PUBLIC 1724c 0 libunwind::UnwindCursor<libunwind::LocalAddressSpace, libunwind::Registers_arm64>::setFloatReg(int, double)
PUBLIC 1725c 0 libunwind::UnwindCursor<libunwind::LocalAddressSpace, libunwind::Registers_arm64>::step(bool)
PUBLIC 1734c 0 libunwind::UnwindCursor<libunwind::LocalAddressSpace, libunwind::Registers_arm64>::getInfo(unw_proc_info_t*)
PUBLIC 17390 0 libunwind::UnwindCursor<libunwind::LocalAddressSpace, libunwind::Registers_arm64>::jumpto()
PUBLIC 1739c 0 libunwind::UnwindCursor<libunwind::LocalAddressSpace, libunwind::Registers_arm64>::isSignalFrame()
PUBLIC 173a8 0 libunwind::UnwindCursor<libunwind::LocalAddressSpace, libunwind::Registers_arm64>::getFunctionName(char*, unsigned long, unsigned long*)
PUBLIC 173d4 0 libunwind::UnwindCursor<libunwind::LocalAddressSpace, libunwind::Registers_arm64>::setInfoBasedOnIPRegister(bool)
PUBLIC 17654 0 libunwind::UnwindCursor<libunwind::LocalAddressSpace, libunwind::Registers_arm64>::getRegisterName(int)
PUBLIC 17660 0 libunwind::UnwindCursor<libunwind::LocalAddressSpace, libunwind::Registers_arm64>::stepThroughSigReturn(libunwind::Registers_arm64&)
PUBLIC 17780 0 libunwind::DwarfInstructions<libunwind::LocalAddressSpace, libunwind::Registers_arm64>::stepWithDwarf(libunwind::LocalAddressSpace&, unsigned long, unsigned long, libunwind::Registers_arm64&, bool&, bool)
PUBLIC 17c08 0 libunwind::CFI_Parser<libunwind::LocalAddressSpace>::parseFDEInstructions(libunwind::LocalAddressSpace&, libunwind::CFI_Parser<libunwind::LocalAddressSpace>::FDE_Info const&, libunwind::CFI_Parser<libunwind::LocalAddressSpace>::CIE_Info const&, unsigned long, int, libunwind::CFI_Parser<libunwind::LocalAddressSpace>::PrologInfo*)
PUBLIC 18850 0 libunwind::DwarfInstructions<libunwind::LocalAddressSpace, libunwind::Registers_arm64>::getCFA(libunwind::LocalAddressSpace&, libunwind::CFI_Parser<libunwind::LocalAddressSpace>::PrologInfo const&, libunwind::Registers_arm64 const&)
PUBLIC 18984 0 libunwind::DwarfInstructions<libunwind::LocalAddressSpace, libunwind::Registers_arm64>::getSavedRegister(libunwind::LocalAddressSpace&, libunwind::Registers_arm64 const&, unsigned long, libunwind::CFI_Parser<libunwind::LocalAddressSpace>::RegisterLocation const&)
PUBLIC 18b94 0 libunwind::LocalAddressSpace::getEncodedP(unsigned long&, unsigned long, unsigned char, unsigned long)
PUBLIC 18f20 0 libunwind::LocalAddressSpace::getULEB128(unsigned long&, unsigned long)
PUBLIC 190e8 0 libunwind::DwarfInstructions<libunwind::LocalAddressSpace, libunwind::Registers_arm64>::evaluateExpression(unsigned long, libunwind::LocalAddressSpace&, libunwind::Registers_arm64 const&, unsigned long)
PUBLIC 19aa4 0 libunwind::UnwindCursor<libunwind::LocalAddressSpace, libunwind::Registers_arm64>::getInfoFromDwarfSection(unsigned long, libunwind::UnwindInfoSections const&, unsigned int)
PUBLIC 19d78 0 libunwind::findUnwindSectionsByPhdr(dl_phdr_info*, unsigned long, void*)
PUBLIC 19eac 0 libunwind::EHHeaderParser<libunwind::LocalAddressSpace>::decodeEHHdr(libunwind::LocalAddressSpace&, unsigned long, unsigned long, libunwind::EHHeaderParser<libunwind::LocalAddressSpace>::EHHeaderInfo&)
PUBLIC 19fcc 0 libunwind::CFI_Parser<libunwind::LocalAddressSpace>::findFDE(libunwind::LocalAddressSpace&, unsigned long, unsigned long, unsigned long, unsigned long, libunwind::CFI_Parser<libunwind::LocalAddressSpace>::FDE_Info*, libunwind::CFI_Parser<libunwind::LocalAddressSpace>::CIE_Info*)
PUBLIC 1a194 0 libunwind::EHHeaderParser<libunwind::LocalAddressSpace>::findFDE(libunwind::LocalAddressSpace&, unsigned long, unsigned long, unsigned int, libunwind::CFI_Parser<libunwind::LocalAddressSpace>::FDE_Info*, libunwind::CFI_Parser<libunwind::LocalAddressSpace>::CIE_Info*)
PUBLIC 1a2fc 0 libunwind::EHHeaderParser<libunwind::LocalAddressSpace>::getTableEntrySize(unsigned char)
PUBLIC 1a3f8 0 libunwind::Registers_arm64::getRegisterName(int)
PUBLIC 1a428 0 __libunwind_Registers_arm64_jumpto
PUBLIC m 1a4b8 0 __unw_getcontext
PUBLIC 1a560 0 __aarch64_ldadd8_relax
PUBLIC 1a590 0 init_have_lse_atomics
PUBLIC 1a628 0 __init_cpu_features_constructor
PUBLIC 1abc4 0 __init_cpu_features
PUBLIC 1ac50 0 __aarch64_ldadd8_acq_rel
PUBLIC 1ac80 0 __cxx_global_var_init
PUBLIC 1b854 0 geode::modifier::ModifyBase<geode::modifier::ModifyDerive<CalcOptionsLayer, MoreOptionsLayer> >::~ModifyBase()
PUBLIC 1b86c 0 geode::modifier::ModifyDerive<CalcOptionsLayer, MoreOptionsLayer>::apply()
PUBLIC 1be44 0 std::__ndk1::shared_ptr<geode::Hook>::~shared_ptr[abi:ne180000]()
PUBLIC 1be94 0 geode::impl::ResultData<geode::Hook*, std::__ndk1::basic_string<char, std::__ndk1::char_traits<char>, std::__ndk1::allocator<char> > >::~ResultData()
PUBLIC 1bf08 0 std::__ndk1::vector<std::__ndk1::basic_string<char, std::__ndk1::char_traits<char>, std::__ndk1::allocator<char> >, std::__ndk1::allocator<std::__ndk1::basic_string<char, std::__ndk1::char_traits<char>, std::__ndk1::allocator<char> > > >::~vector[abi:ne180000]()
PUBLIC 1bf84 0 geode::modifier::ModifyBase<geode::modifier::ModifyDerive<CalcOptionsLayer, MoreOptionsLayer> >::apply()
PUBLIC 1bf88 0 __clang_call_terminate
PUBLIC 1bf98 0 _ZN5geode15UnwrapExceptionC2IRPNS_4HookEQsr4implE18IsStringStreamableIT_EEENS_4impl5OkTagEOS5_
PUBLIC 1c0ec 0 std::__ndk1::__throw_bad_variant_access[abi:ne180000]()
PUBLIC 1c120 0 std::__ndk1::basic_stringstream<char, std::__ndk1::char_traits<char>, std::__ndk1::allocator<char> >::basic_stringstream[abi:ne180000]()
PUBLIC m 1c24c 0 std::__ndk1::basic_stringstream<char, std::__ndk1::char_traits<char>, std::__ndk1::allocator<char> >::~basic_stringstream()
PUBLIC 1c2cc 0 geode::UnwrapException::~UnwrapException()
PUBLIC 1c2f0 0 std::__ndk1::__put_character_sequence[abi:ne180000]<char, std::__ndk1::char_traits<char> >(std::__ndk1::basic_ostream<char, std::__ndk1::char_traits<char> >, std::__ndk1::basic_ostream const*, unsigned long)
PUBLIC 1c494 0 std::__ndk1::__pad_and_output[abi:ne180000]<char, std::__ndk1::char_traits<char> >(std::__ndk1::char_traits<char>, std::__ndk1::ostreambuf_iterator const*, std::__ndk1::ostreambuf_iterator const, std::__ndk1::ostreambuf_iterator const, std::__ndk1::ios_base&, std::__ndk1::ostreambuf_iterator)
PUBLIC 1c670 0 std::__ndk1::basic_string<char, std::__ndk1::char_traits<char>, std::__ndk1::allocator<char> >::__throw_length_error[abi:ne180000]() const
PUBLIC 1c684 0 std::__ndk1::__throw_length_error[abi:ne180000](char const*)
PUBLIC 1c6d4 0 std::length_error::length_error[abi:ne180000](char const*)
PUBLIC 1c704 0 std::__throw_bad_array_new_length([abi:ne180000], void)
PUBLIC 1c738 0 std::__ndk1::basic_stringbuf<char, std::__ndk1::char_traits<char>, std::__ndk1::allocator<char> >::str[abi:ne180000]() &&
PUBLIC 1c8b0 0 std::__ndk1::basic_stringbuf<char, std::__ndk1::char_traits<char>, std::__ndk1::allocator<char> >::__init_buf_ptrs[abi:ne180000]()
PUBLIC 1c9f8 0 std::__ndk1::basic_string<char, std::__ndk1::char_traits<char>, std::__ndk1::allocator<char> >::__init_copy_ctor_external(char const*, unsigned long)
PUBLIC 1ca78 0 std::__ndk1::__split_buffer<std::__ndk1::basic_string<char, std::__ndk1::char_traits<char>, std::__ndk1::allocator<char> >, std::__ndk1::allocator<std::__ndk1::basic_string<char, std::__ndk1::char_traits<char>, std::__ndk1::allocator<char> > >&>::~__split_buffer()
PUBLIC 1cae0 0 std::__ndk1::vector<std::__ndk1::basic_string<char, std::__ndk1::char_traits<char>, std::__ndk1::allocator<char> >, std::__ndk1::allocator<std::__ndk1::basic_string<char, std::__ndk1::char_traits<char>, std::__ndk1::allocator<char> > > >::__throw_length_error[abi:ne180000]() const
PUBLIC 1caf4 0 std::__ndk1::__variant_detail::__visitation::__base::__dispatcher<(unsigned long)0>::__dispatch[abi:ne180000]<std::__ndk1::__variant_detail::__dtor<std::__ndk1::__variant_detail::__traits<geode::Hook*, std::__ndk1::basic_string<char, std::__ndk1::char_traits<char>, std::__ndk1::allocator<char> > >, (std::__ndk1::__variant_detail::_Trait)1>::__destroy[abi:ne180000]()::{lambda(auto:1&)#1}, std::__ndk1::__variant_detail::__base<(std::__ndk1::__variant_detail::__traits<geode::Hook*, std::__ndk1::basic_string<char, std::__ndk1::char_traits<char>, std::__ndk1::allocator<char> > >)1, geode::Hook, std::__ndk1::allocator<char> >&>(std::__ndk1::__variant_detail::__dtor<std::__ndk1::__variant_detail::__traits<geode::Hook*, std::__ndk1::basic_string<char, std::__ndk1::char_traits<char>, std::__ndk1::allocator<char> > >, (std::__ndk1::__variant_detail::_Trait)1>, std::__ndk1::__variant_detail::__base<(std::__ndk1::__variant_detail::__traits<geode::Hook*, std::__ndk1::basic_string<char, std::__ndk1::char_traits<char>, std::__ndk1::allocator<char> > >)1, geode::Hook, std::__ndk1::allocator<char> >&)
PUBLIC 1caf8 0 std::__ndk1::__variant_detail::__visitation::__base::__dispatcher<(unsigned long)1>::__dispatch[abi:ne180000]<std::__ndk1::__variant_detail::__dtor<std::__ndk1::__variant_detail::__traits<geode::Hook*, std::__ndk1::basic_string<char, std::__ndk1::char_traits<char>, std::__ndk1::allocator<char> > >, (std::__ndk1::__variant_detail::_Trait)1>::__destroy[abi:ne180000]()::{lambda(auto:1&)#1}, std::__ndk1::__variant_detail::__base<(std::__ndk1::__variant_detail::__traits<geode::Hook*, std::__ndk1::basic_string<char, std::__ndk1::char_traits<char>, std::__ndk1::allocator<char> > >)1, geode::Hook, std::__ndk1::allocator<char> >&>(std::__ndk1::__variant_detail::__dtor<std::__ndk1::__variant_detail::__traits<geode::Hook*, std::__ndk1::basic_string<char, std::__ndk1::char_traits<char>, std::__ndk1::allocator<char> > >, (std::__ndk1::__variant_detail::_Trait)1>, std::__ndk1::__variant_detail::__base<(std::__ndk1::__variant_detail::__traits<geode::Hook*, std::__ndk1::basic_string<char, std::__ndk1::char_traits<char>, std::__ndk1::allocator<char> > >)1, geode::Hook, std::__ndk1::allocator<char> >&)
PUBLIC 1cb0c 0 std::__ndk1::__tree<std::__ndk1::__value_type<std::__ndk1::basic_string<char, std::__ndk1::char_traits<char>, std::__ndk1::allocator<char> >, std::__ndk1::shared_ptr<geode::Hook> >, std::__ndk1::__map_value_compare<std::__ndk1::basic_string<char, std::__ndk1::char_traits<char>, std::__ndk1::allocator<char> >, std::__ndk1::__value_type<std::__ndk1::basic_string<char, std::__ndk1::char_traits<char>, std::__ndk1::allocator<char> >, std::__ndk1::shared_ptr<geode::Hook> >, std::__ndk1::less<std::__ndk1::basic_string<char, std::__ndk1::char_traits<char>, std::__ndk1::allocator<char> > >, true>, std::__ndk1::allocator<std::__ndk1::__value_type<std::__ndk1::basic_string<char, std::__ndk1::char_traits<char>, std::__ndk1::allocator<char> >, std::__ndk1::shared_ptr<geode::Hook> > > >::destroy(std::__ndk1::__tree_node<std::__ndk1::__value_type<std::__ndk1::basic_string<char, std::__ndk1::char_traits<char>, std::__ndk1::allocator<char> >, std::__ndk1::shared_ptr<geode::Hook> >, void*>*)
PUBLIC 1cb90 0 geode::modifier::AsStaticFunction_goToPage<CalcOptionsLayer, void (CalcOptionsLayer::*)(int)>::Impl<void (CalcOptionsLayer::*)(int)>::function(CalcOptionsLayer*, int)
PUBLIC 1cbf0 0 geode::modifier::AsStaticFunction_init<CalcOptionsLayer, bool (CalcOptionsLayer::*)()>::Impl<bool (CalcOptionsLayer::*)()>::function(CalcOptionsLayer*)
PUBLIC 1cdb0 0 std::__ndk1::shared_ptr<tulip::hook::CallingConvention>::~shared_ptr[abi:ne180000]()
PUBLIC 1ce00 0 tulip::hook::HandlerMetadata::~HandlerMetadata()
PUBLIC 1ce64 0 geode::modifier::FieldIntermediate<CalcOptionsLayer, MoreOptionsLayer>::self()
PUBLIC 1d4a4 0 geode::modifier::FieldIntermediate<CalcOptionsLayer, MoreOptionsLayer>::fieldDestructor(void*)
PUBLIC 1d4a8 0 std::__ndk1::vector<void*, std::__ndk1::allocator<void*> >::__throw_length_error[abi:ne180000]() const
PUBLIC 1d4bc 0 std::__ndk1::vector<std::__ndk1::function<void (void*)>, std::__ndk1::allocator<std::__ndk1::function<void (void*)> > >::__throw_length_error[abi:ne180000]() const
PUBLIC 1d4d0 0 std::__ndk1::vector<void*, std::__ndk1::allocator<void*> >::__throw_out_of_range[abi:ne180000]() const
PUBLIC 1d4dc 0 std::__ndk1::__throw_out_of_range[abi:ne180000](char const*)
PUBLIC 1d52c 0 std::out_of_range::out_of_range[abi:ne180000](char const*)
PUBLIC 1d55c 0 std::__ndk1::vector<std::__ndk1::function<void (void*)>, std::__ndk1::allocator<std::__ndk1::function<void (void*)> > >::__throw_out_of_range[abi:ne180000]() const
PUBLIC 1d568 0 std::__ndk1::__function::__base<void (void*)>::~__base()
PUBLIC 1d56c 0 std::__ndk1::__function::__func<void (*)(void*), std::__ndk1::allocator<void (*)(void*)>, void (void*)>::~__func()
PUBLIC 1d570 0 std::__ndk1::__function::__func<void (*)(void*), std::__ndk1::allocator<void (*)(void*)>, void (void*)>::__clone() const
PUBLIC 1d5a8 0 std::__ndk1::__function::__func<void (*)(void*), std::__ndk1::allocator<void (*)(void*)>, void (void*)>::__clone(std::__ndk1::__function::__base<void (void*)>*) const
PUBLIC 1d5c0 0 std::__ndk1::__function::__func<void (*)(void*), std::__ndk1::allocator<void (*)(void*)>, void (void*)>::destroy()
PUBLIC 1d5c4 0 std::__ndk1::__function::__func<void (*)(void*), std::__ndk1::allocator<void (*)(void*)>, void (void*)>::destroy_deallocate()
PUBLIC 1d5c8 0 std::__ndk1::__function::__func<void (*)(void*), std::__ndk1::allocator<void (*)(void*)>, void (void*)>::operator()(void*&&)
PUBLIC 1d5d8 0 std::__ndk1::__function::__func<void (*)(void*), std::__ndk1::allocator<void (*)(void*)>, void (void*)>::target(std::type_info const&) const
PUBLIC 1d5f4 0 std::__ndk1::__function::__func<void (*)(void*), std::__ndk1::allocator<void (*)(void*)>, void (void*)>::target_type() const
PUBLIC 1d600 0 std::__ndk1::__tree<std::__ndk1::__value_type<std::__ndk1::basic_string<char, std::__ndk1::char_traits<char>, std::__ndk1::allocator<char> >, std::__ndk1::shared_ptr<geode::Hook> >, std::__ndk1::__map_value_compare<std::__ndk1::basic_string<char, std::__ndk1::char_traits<char>, std::__ndk1::allocator<char> >, std::__ndk1::__value_type<std::__ndk1::basic_string<char, std::__ndk1::char_traits<char>, std::__ndk1::allocator<char> >, std::__ndk1::shared_ptr<geode::Hook> >, std::__ndk1::less<std::__ndk1::basic_string<char, std::__ndk1::char_traits<char>, std::__ndk1::allocator<char> > >, true>, std::__ndk1::allocator<std::__ndk1::__value_type<std::__ndk1::basic_string<char, std::__ndk1::char_traits<char>, std::__ndk1::allocator<char> >, std::__ndk1::shared_ptr<geode::Hook> > > >::__emplace_unique_key_args<std::__ndk1::basic_string<char, std::__ndk1::char_traits<char>, std::__ndk1::allocator<char> >, std::__ndk1::piecewise_construct_t const&, std::__ndk1::tuple<std::__ndk1::basic_string<char, std::__ndk1::char_traits<char>, std::__ndk1::allocator<char> >&&>, std::__ndk1::tuple<> >(std::__ndk1::basic_string<char, std::__ndk1::char_traits<char>, std::__ndk1::allocator<char> > const&, std::__ndk1::piecewise_construct_t const&, std::__ndk1::tuple<std::__ndk1::basic_string<char, std::__ndk1::char_traits<char>, std::__ndk1::allocator<char> >&&>, std::__ndk1::tuple<>)
PUBLIC 1d768 0 std::__ndk1::__tree_balance_after_insert[abi:ne180000]<std::__ndk1::__tree_node_base<void*>*>(std::__ndk1::__tree_node_base<void*>*, std::__ndk1::__tree_node_base<void*>*)
PUBLIC 1d918 0 geode::addresser::Addresser::addressOfVirtual<bool, MoreOptionsLayer, >(bool (MoreOptionsLayer::*)())
PUBLIC 1d9c0 0 MoreOptionsLayer::MoreOptionsLayer(geode::ZeroConstructorType)
PUBLIC 1da5c 0 cocos2d::CCCopying::copyWithZone(cocos2d::CCZone*)
PUBLIC 1da64 0 cocos2d::CCKeyboardDelegate::keyUp(cocos2d::enumKeyCodes)
PUBLIC 1da68 0 cocos2d::CCMouseDelegate::rightKeyDown()
PUBLIC 1da6c 0 cocos2d::CCMouseDelegate::rightKeyUp()
PUBLIC 1da70 0 cocos2d::CCMouseDelegate::scrollWheel(float, float)
PUBLIC 1da74 0 CalcOptionsLayer::onCalculateOffset(cocos2d::CCObject*)
PUBLIC 1ddec 0 geode::Popup<CCTextInputNode*>::~Popup()
PUBLIC 1de58 0 OffsetCalcPopup::~OffsetCalcPopup()
PUBLIC 1decc 0 geode::Popup<CCTextInputNode*>::registerWithTouchDispatcher()
PUBLIC 1def8 0 geode::Popup<CCTextInputNode*>::keyDown(cocos2d::enumKeyCodes)
PUBLIC 1df20 0 cocos2d::CCLayerRGBA::setOpacityModifyRGB(bool)
PUBLIC 1df24 0 cocos2d::CCLayerRGBA::isOpacityModifyRGB()
PUBLIC 1df2c 0 OffsetCalcPopup::setup(CCTextInputNode*)
PUBLIC 1e2f4 0 OffsetCalcPopup::onClose(cocos2d::CCObject*)
PUBLIC 1e314 0 {virtual override thunk({offset(-320)}, OffsetCalcPopup::~OffsetCalcPopup())}
PUBLIC 1e380 0 {virtual override thunk({offset(-320)}, OffsetCalcPopup::~OffsetCalcPopup())}
PUBLIC 1e3f4 0 {virtual override thunk({offset(-344)}, geode::Popup<CCTextInputNode*>::keyDown(cocos2d::enumKeyCodes))}
PUBLIC 1e420 0 {virtual override thunk({offset(-408)}, cocos2d::CCLayerRGBA::setOpacityModifyRGB(bool))}
PUBLIC 1e424 0 {virtual override thunk({offset(-408)}, cocos2d::CCLayerRGBA::isOpacityModifyRGB())}
PUBLIC 1e42c 0 geode::Popup<CCTextInputNode*>::~Popup()
PUBLIC 1e430 0 geode::Popup<CCTextInputNode*>::onClose(cocos2d::CCObject*)
PUBLIC 1e578 0 {virtual override thunk({offset(-320)}, geode::Popup<CCTextInputNode*>::~Popup())}
PUBLIC 1e5e4 0 {virtual override thunk({offset(-320)}, geode::Popup<CCTextInputNode*>::~Popup())}
PUBLIC 1e5e8 0 geode::Popup<CCTextInputNode*>::CloseEvent::~CloseEvent()
PUBLIC 1e648 0 geode::Popup<CCTextInputNode*>::CloseEvent::~CloseEvent()
PUBLIC 1e6b8 0 std::__ndk1::__shared_ptr_emplace<geode::Popup<CCTextInputNode*>::CloseEvent::Impl, std::__ndk1::allocator<geode::Popup<CCTextInputNode*>::CloseEvent::Impl> >::~__shared_ptr_emplace()
PUBLIC 1e6c8 0 std::__ndk1::__shared_ptr_emplace<geode::Popup<CCTextInputNode*>::CloseEvent::Impl, std::__ndk1::allocator<geode::Popup<CCTextInputNode*>::CloseEvent::Impl> >::~__shared_ptr_emplace()
PUBLIC 1e6f8 0 std::__ndk1::__shared_ptr_emplace<geode::Popup<CCTextInputNode*>::CloseEvent::Impl, std::__ndk1::allocator<geode::Popup<CCTextInputNode*>::CloseEvent::Impl> >::__on_zero_shared()
PUBLIC 1e6fc 0 std::__ndk1::__shared_ptr_emplace<geode::Popup<CCTextInputNode*>::CloseEvent::Impl, std::__ndk1::allocator<geode::Popup<CCTextInputNode*>::CloseEvent::Impl> >::__on_zero_shared_weak()
PUBLIC 1e700 0 OffsetCalcPopup::onStart(cocos2d::CCObject*)
PUBLIC 1e794 0 OffsetCalcPopup::onPress(cocos2d::CCObject*)
PUBLIC 1ebb0 0 OffsetCalcPopup::onKick(float)
PUBLIC 1ec7c 0 OffsetCalcPopup::onSnare(float)
PUBLIC m 1ed3c 0 geodeImplicitEntry
PUBLIC 1ed78 0 cocos2d::CCDestructor::~CCDestructor()
PUBLIC 1f034 0 wrapFunction(unsigned long, tulip::hook::WrapperMetadata const&)
PUBLIC 1f168 0 geode::impl::ResultData<void*, std::__ndk1::basic_string<char, std::__ndk1::char_traits<char>, std::__ndk1::allocator<char> > >::unwrapErr() &
PUBLIC 1f1e0 0 geode::impl::ResultData<void*, std::__ndk1::basic_string<char, std::__ndk1::char_traits<char>, std::__ndk1::allocator<char> > >::~ResultData()
PUBLIC 1f254 0 tulip::hook::WrapperMetadata::~WrapperMetadata()
PUBLIC 1f2b8 0 cocos2d::CCNode::~CCNode()
PUBLIC 1f2dc 0 {virtual override thunk({offset(-320)}, cocos2d::CCLayer::~CCLayer())}
PUBLIC 1f2e4 0 cocos2d::CCLayer::~CCLayer()
PUBLIC 1f308 0 {virtual override thunk({offset(-320)}, cocos2d::CCLayer::~CCLayer())}
PUBLIC 1f330 0 cocos2d::CCObject::~CCObject()
PUBLIC 1f354 0 cocos2d::CCLayerColor::CCLayerColor()
PUBLIC 1f984 0 cocos2d::CCLayerRGBA::~CCLayerRGBA()
PUBLIC 1fbd8 0 {virtual override thunk({offset(-320)}, cocos2d::CCLayerColor::~CCLayerColor())}
PUBLIC 1fbe0 0 cocos2d::CCLayerColor::~CCLayerColor()
PUBLIC 1fc04 0 {virtual override thunk({offset(-320)}, cocos2d::CCLayerColor::~CCLayerColor())}
PUBLIC 1fc2c 0 {virtual override thunk({offset(-320)}, cocos2d::CCLayerRGBA::~CCLayerRGBA())}
PUBLIC 1fc34 0 cocos2d::CCLayerRGBA::~CCLayerRGBA()
PUBLIC 1fc58 0 {virtual override thunk({offset(-320)}, cocos2d::CCLayerRGBA::~CCLayerRGBA())}
PUBLIC 1fc80 0 {virtual override thunk({offset(-320)}, FLAlertLayer::~FLAlertLayer())}
PUBLIC 1fc88 0 FLAlertLayer::~FLAlertLayer()
PUBLIC 1fcac 0 {virtual override thunk({offset(-320)}, FLAlertLayer::~FLAlertLayer())}
PUBLIC 1fcd4 0 tulip::hook::AbstractFunction::from<void, CCTextInputNode*, gd::string>(void (*)(CCTextInputNode*, gd::string))
PUBLIC 1fd78 0 CCTextInputNode::setString(gd::string)
PUBLIC 1fef0 0 FMODAudioEngine::playEffect(gd::string)
PUBLIC 20068 0 tulip::hook::AbstractFunction::from<void, FMODAudioEngine*, gd::string>(void (*)(FMODAudioEngine*, gd::string))
PUBLIC 2010c 0 TextArea::create(gd::string, char const*, float, float, cocos2d::CCPoint, float, bool)
PUBLIC 202d4 0 tulip::hook::AbstractFunction::from<TextArea*, gd::string, char const*, float, float, cocos2d::CCPoint, float, bool>(TextArea* (*)(gd::string, char const*, float, float, cocos2d::CCPoint, float, bool))
PUBLIC 20450 0 cocos2d::CCObject::update(float)
PUBLIC 20454 0 cocos2d::CCLayer::~CCLayer()
PUBLIC 206a0 0 cocos2d::CCLayerColor::~CCLayerColor()
PUBLIC 208fc 0 FLAlertLayer::~FLAlertLayer()
PUBLIC 20bb8 0 cocos2d::CCNode::~CCNode()
PUBLIC 20de4 0 cocos2d::CCObject::~CCObject()
PUBLIC 21010 0 _ZN5geode15UnwrapExceptionC2IRPvQsr4implE18IsStringStreamableIT_EEENS_4impl5OkTagEOS4_
PUBLIC 21164 0 _ZN5geode15UnwrapExceptionC2IRNSt6__ndk112basic_stringIcNS2_11char_traitsIcEENS2_9allocatorIcEEEEQsr4implE18IsStringStreamableIT_EEENS_4impl6ErrTagEOSA_
PUBLIC 212cc 0 std::__ndk1::__variant_detail::__visitation::__base::__dispatcher<(unsigned long)0>::__dispatch[abi:ne180000]<std::__ndk1::__variant_detail::__dtor<std::__ndk1::__variant_detail::__traits<void*, std::__ndk1::basic_string<char, std::__ndk1::char_traits<char>, std::__ndk1::allocator<char> > >, (std::__ndk1::__variant_detail::_Trait)1>::__destroy[abi:ne180000]()::{lambda(auto:1&)#1}, std::__ndk1::__variant_detail::__base<(std::__ndk1::__variant_detail::__traits<void*, std::__ndk1::basic_string<char, std::__ndk1::char_traits<char>, std::__ndk1::allocator<char> > >)1, std::__ndk1::__variant_detail::__traits, std::__ndk1::allocator<char> >&>(std::__ndk1::__variant_detail::__dtor<std::__ndk1::__variant_detail::__traits<void*, std::__ndk1::basic_string<char, std::__ndk1::char_traits<char>, std::__ndk1::allocator<char> > >, (std::__ndk1::__variant_detail::_Trait)1>, std::__ndk1::__variant_detail::__base<(std::__ndk1::__variant_detail::__traits<void*, std::__ndk1::basic_string<char, std::__ndk1::char_traits<char>, std::__ndk1::allocator<char> > >)1, std::__ndk1::__variant_detail::__traits, std::__ndk1::allocator<char> >&)
PUBLIC 212d0 0 std::__ndk1::__variant_detail::__visitation::__base::__dispatcher<(unsigned long)1>::__dispatch[abi:ne180000]<std::__ndk1::__variant_detail::__dtor<std::__ndk1::__variant_detail::__traits<void*, std::__ndk1::basic_string<char, std::__ndk1::char_traits<char>, std::__ndk1::allocator<char> > >, (std::__ndk1::__variant_detail::_Trait)1>::__destroy[abi:ne180000]()::{lambda(auto:1&)#1}, std::__ndk1::__variant_detail::__base<(std::__ndk1::__variant_detail::__traits<void*, std::__ndk1::basic_string<char, std::__ndk1::char_traits<char>, std::__ndk1::allocator<char> > >)1, std::__ndk1::__variant_detail::__traits, std::__ndk1::allocator<char> >&>(std::__ndk1::__variant_detail::__dtor<std::__ndk1::__variant_detail::__traits<void*, std::__ndk1::basic_string<char, std::__ndk1::char_traits<char>, std::__ndk1::allocator<char> > >, (std::__ndk1::__variant_detail::_Trait)1>, std::__ndk1::__variant_detail::__base<(std::__ndk1::__variant_detail::__traits<void*, std::__ndk1::basic_string<char, std::__ndk1::char_traits<char>, std::__ndk1::allocator<char> > >)1, std::__ndk1::__variant_detail::__traits, std::__ndk1::allocator<char> >&)
PUBLIC 212e4 0 std::__ndk1::__hash_table<std::__ndk1::__hash_value_type<void*, bool>, std::__ndk1::__unordered_map_hasher<void*, std::__ndk1::__hash_value_type<void*, bool>, std::__ndk1::hash<void*>, std::__ndk1::equal_to<void*>, true>, std::__ndk1::__unordered_map_equal<void*, std::__ndk1::__hash_value_type<void*, bool>, std::__ndk1::equal_to<void*>, std::__ndk1::hash<void*>, true>, std::__ndk1::allocator<std::__ndk1::__hash_value_type<void*, bool> > >::__emplace_unique_key_args<void*, std::__ndk1::piecewise_construct_t const&, std::__ndk1::tuple<void* const&>, std::__ndk1::tuple<> >(void* const&, std::__ndk1::piecewise_construct_t const&, std::__ndk1::tuple<void* const&>, std::__ndk1::tuple<>)
PUBLIC 217c4 0 __udivti3
PUBLIC 217d0 0 __udivmodti4
PUBLIC m 21a1c 0 __eqtf2
PUBLIC 21abc 0 __unordtf2
PUBLIC 21af4 0 fmt::v11::detail::write_loc(fmt::v11::basic_appender<char>, fmt::v11::loc_value, fmt::v11::format_specs const&, fmt::v11::detail::locale_ref)
PUBLIC 21d88 0 fmt::v11::format_facet<std::__ndk1::locale>::~format_facet()
PUBLIC 21e04 0 fmt::v11::report_error(char const*)
PUBLIC 21e54 0 fmt::v11::format_error::runtime_error(char const*)
PUBLIC 21e80 0 fmt::v11::format_facet<std::__ndk1::locale>::do_put(fmt::v11::basic_appender<char>, fmt::v11::loc_value, fmt::v11::format_specs const&) const
PUBLIC 22640 0 fmt::v11::detail::loc_writer<char>::~loc_writer()
PUBLIC 226a4 0 fmt::v11::detail::vformat_to<char>(fmt::v11::detail::buffer<char>&, fmt::v11::basic_string_view<char>, fmt::v11::detail::vformat_args<char>::type, fmt::v11::detail::locale_ref)
PUBLIC 22c14 0 fmt::v11::detail::is_printable(unsigned int)
PUBLIC 22e3c 0 fmt::v11::detail::dragonbox::to_decimal<float>(float)
PUBLIC 23118 0 fmt::v11::detail::dragonbox::to_decimal<double>(double)
PUBLIC 23654 0 fmt::v11::basic_memory_buffer<char, (unsigned long)500, std::__ndk1::allocator<char> >::grow(fmt::v11::detail::buffer<char>&, unsigned long)
PUBLIC 236cc 0 fmt::v11::format_facet<std::__ndk1::locale>::~format_facet()
PUBLIC 23758 0 fmt::v11::format_error::~format_error()
PUBLIC 2377c 0 fmt::v11::detail::copy_noinline<char, char const*, fmt::v11::basic_appender<char> >(char const*, char const*, fmt::v11::basic_appender<char>)
PUBLIC 238cc 0 fmt::v11::detail::default_arg_formatter<char>::operator()<bool>(bool)
PUBLIC 23934 0 fmt::v11::detail::default_arg_formatter<char>::operator()<char>(char)
PUBLIC 239c4 0 fmt::v11::detail::default_arg_formatter<char>::operator()<float>(float)
PUBLIC 23ab0 0 fmt::v11::detail::default_arg_formatter<char>::operator()<double>(double)
PUBLIC 23b9c 0 fmt::v11::detail::default_arg_formatter<char>::operator()<char const*>(char const*)
PUBLIC 23be4 0 fmt::v11::detail::default_arg_formatter<char>::operator()<void const*>(void const*)
PUBLIC 23c7c 0 _ZN3fmt3v116detail5writeIcNS0_14basic_appenderIcEEiTnNSt6__ndk19enable_ifIXaaaasr11is_integralIT1_EE5valuentsr3std7is_sameIS7_bEE5valuentsr3std7is_sameIS7_T_EE5valueEiE4typeELi0EEET0_SB_S7_
PUBLIC 23edc 0 fmt::v11::detail::copy_noinline<char, char*, fmt::v11::basic_appender<char> >(char*, char*, fmt::v11::basic_appender<char>)
PUBLIC 2402c 0 _ZN3fmt3v116detail5writeIcNS0_14basic_appenderIcEEjTnNSt6__ndk19enable_ifIXaaaasr11is_integralIT1_EE5valuentsr3std7is_sameIS7_bEE5valuentsr3std7is_sameIS7_T_EE5valueEiE4typeELi0EEET0_SB_S7_
PUBLIC 2420c 0 _ZN3fmt3v116detail5writeIcNS0_14basic_appenderIcEExTnNSt6__ndk19enable_ifIXaaaasr11is_integralIT1_EE5valuentsr3std7is_sameIS7_bEE5valuentsr3std7is_sameIS7_T_EE5valueEiE4typeELi0EEET0_SB_S7_
PUBLIC 24490 0 _ZN3fmt3v116detail5writeIcNS0_14basic_appenderIcEEyTnNSt6__ndk19enable_ifIXaaaasr11is_integralIT1_EE5valuentsr3std7is_sameIS7_bEE5valuentsr3std7is_sameIS7_T_EE5valueEiE4typeELi0EEET0_SB_S7_
PUBLIC 24698 0 _ZN3fmt3v116detail5writeIcNS0_14basic_appenderIcEEnTnNSt6__ndk19enable_ifIXaaaasr11is_integralIT1_EE5valuentsr3std7is_sameIS7_bEE5valuentsr3std7is_sameIS7_T_EE5valueEiE4typeELi0EEET0_SB_S7_
PUBLIC 249f8 0 _ZN3fmt3v116detail5writeIcNS0_14basic_appenderIcEEoTnNSt6__ndk19enable_ifIXaaaasr11is_integralIT1_EE5valuentsr3std7is_sameIS7_bEE5valuentsr3std7is_sameIS7_T_EE5valueEiE4typeELi0EEET0_SB_S7_
PUBLIC 24d0c 0 _ZN3fmt3v116detail5writeIcNS0_14basic_appenderIcEEbTnNSt6__ndk19enable_ifIXsr3std7is_sameIT1_bEE5valueEiE4typeELi0EEET0_SA_S7_RKNS0_12format_specsENS1_10locale_refE
PUBLIC 24f9c 0 fmt::v11::detail::write_int_noinline<char, fmt::v11::basic_appender<char>, unsigned int>(fmt::v11::basic_appender<char>, fmt::v11::detail::write_int_arg<unsigned int>, fmt::v11::format_specs const&, fmt::v11::detail::locale_ref)
PUBLIC 25d78 0 fmt::v11::detail::fill<char, fmt::v11::basic_appender<char> >(fmt::v11::basic_appender<char>, unsigned long, fmt::v11::detail::fill_t const&)
PUBLIC 25f48 0 fmt::v11::detail::write_padded<char, (fmt::v11::align::type)1, fmt::v11::basic_appender<char>, fmt::v11::detail::write_char<char, fmt::v11::basic_appender<char> >(fmt::v11::basic_appender<char>, char, fmt::v11::format_specs const&)::{lambda(fmt::v11::basic_appender<char>&)#1}>(fmt::v11::basic_appender<char>, fmt::v11::format_specs const&, unsigned long, unsigned long, fmt::v11::detail::write_char<char, fmt::v11::basic_appender<char> >(fmt::v11::basic_appender<char>, char, fmt::v11::format_specs const&)::{lambda(fmt::v11::basic_appender<char>&)#1})
PUBLIC 26184 0 fmt::v11::detail::write_escaped_cp<fmt::v11::basic_appender<char>, char>(fmt::v11::basic_appender<char>, fmt::v11::detail::find_escape_result<char> const&)
PUBLIC 26490 0 fmt::v11::detail::write_codepoint<(unsigned long)2, char, fmt::v11::basic_appender<char> >(fmt::v11::basic_appender<char>, char, unsigned int)
PUBLIC 26608 0 fmt::v11::detail::write_codepoint<(unsigned long)8, char, fmt::v11::basic_appender<char> >(fmt::v11::basic_appender<char>, char, unsigned int)
PUBLIC 26780 0 fmt::v11::detail::write_padded<char, (fmt::v11::align::type)1, fmt::v11::basic_appender<char>, fmt::v11::detail::write_nonfinite<char, fmt::v11::basic_appender<char> >(fmt::v11::basic_appender<char>, bool, fmt::v11::format_specs, fmt::v11::sign::type)::{lambda(fmt::v11::basic_appender<char>&)#1}>(fmt::v11::basic_appender<char>, fmt::v11::format_specs const&, unsigned long, unsigned long, fmt::v11::detail::write_nonfinite<char, fmt::v11::basic_appender<char> >(fmt::v11::basic_appender<char>, bool, fmt::v11::format_specs, fmt::v11::sign::type)::{lambda(fmt::v11::basic_appender<char>&)#1})
PUBLIC 269c0 0 fmt::v11::detail::do_write_float<char, fmt::v11::basic_appender<char>, fmt::v11::detail::dragonbox::decimal_fp<float>, fmt::v11::detail::digit_grouping<char> >(fmt::v11::basic_appender<char>, fmt::v11::detail::dragonbox::decimal_fp<float> const&, fmt::v11::format_specs const&, fmt::v11::detail::float_specs, fmt::v11::detail::locale_ref)
PUBLIC 27634 0 fmt::v11::detail::do_write_float<char, fmt::v11::basic_appender<char>, fmt::v11::detail::dragonbox::decimal_fp<float>, fmt::v11::detail::digit_grouping<char> >(fmt::v11::basic_appender<char>, fmt::v11::detail::dragonbox::decimal_fp<float> const&, fmt::v11::format_specs const&, fmt::v11::detail::float_specs, fmt::v11::detail::locale_ref)::{lambda(fmt::v11::basic_appender<char>(fmt::v11::basic_appender<char>))#1}::operator() const
PUBLIC 27788 0 fmt::v11::detail::digit_grouping<char>::digit_grouping(fmt::v11::detail::locale_ref, bool)
PUBLIC 279f4 0 fmt::v11::detail::digit_grouping<char>::~digit_grouping()
PUBLIC 27a38 0 fmt::v11::detail::write_exponent<char, fmt::v11::basic_appender<char> >(int, fmt::v11::basic_appender<char>)
PUBLIC 27c08 0 _ZN3fmt3v116detail17write_significandIcjTnNSt6__ndk19enable_ifIXsr3std11is_integralIT0_EE5valueEiE4typeELi0EEEPT_S9_S5_iiS8_
PUBLIC 27d84 0 std::__ndk1::basic_string<char, std::__ndk1::char_traits<char>, std::__ndk1::allocator<char> >::__assign_no_alias<true>(char const*, unsigned long)
PUBLIC 27e30 0 std::__ndk1::basic_string<char, std::__ndk1::char_traits<char>, std::__ndk1::allocator<char> >::__assign_no_alias<false>(char const*, unsigned long)
PUBLIC 27f40 0 fmt::v11::detail::digit_grouping<char>::apply<fmt::v11::basic_appender<char>, char>(fmt::v11::basic_appender<char>, fmt::v11::basic_string_view<char>) const
PUBLIC 282f8 0 fmt::v11::basic_memory_buffer<int, (unsigned long)500, std::__ndk1::allocator<int> >::grow(fmt::v11::detail::buffer<int>&, unsigned long)
PUBLIC 28398 0 fmt::v11::detail::do_write_float<char, fmt::v11::basic_appender<char>, fmt::v11::detail::dragonbox::decimal_fp<double>, fmt::v11::detail::digit_grouping<char> >(fmt::v11::basic_appender<char>, fmt::v11::detail::dragonbox::decimal_fp<double> const&, fmt::v11::format_specs const&, fmt::v11::detail::float_specs, fmt::v11::detail::locale_ref)
PUBLIC 2904c 0 fmt::v11::detail::do_write_float<char, fmt::v11::basic_appender<char>, fmt::v11::detail::dragonbox::decimal_fp<double>, fmt::v11::detail::digit_grouping<char> >(fmt::v11::basic_appender<char>, fmt::v11::detail::dragonbox::decimal_fp<double> const&, fmt::v11::format_specs const&, fmt::v11::detail::float_specs, fmt::v11::detail::locale_ref)::{lambda(fmt::v11::basic_appender<char>(fmt::v11::basic_appender<char>))#1}::operator() const
PUBLIC 291a4 0 _ZN3fmt3v116detail17write_significandIcmTnNSt6__ndk19enable_ifIXsr3std11is_integralIT0_EE5valueEiE4typeELi0EEEPT_S9_S5_iiS8_
PUBLIC 29334 0 fmt::v11::detail::write_float<char, fmt::v11::basic_appender<char>, long double>(fmt::v11::basic_appender<char>, long double, fmt::v11::format_specs, fmt::v11::detail::locale_ref)
PUBLIC 29e30 0 fmt::v11::detail::write_padded<char, (fmt::v11::align::type)2, fmt::v11::basic_appender<char>, fmt::v11::detail::write_bytes<char, (fmt::v11::align::type)2, fmt::v11::basic_appender<char> >(fmt::v11::basic_appender<char>, fmt::v11::basic_string_view<char>, fmt::v11::format_specs const&)::{lambda(fmt::v11::basic_appender<char>&)#1}>(fmt::v11::basic_appender<char>, fmt::v11::format_specs const&, unsigned long, unsigned long, fmt::v11::detail::write_bytes<char, (fmt::v11::align::type)2, fmt::v11::basic_appender<char> >(fmt::v11::basic_appender<char>, fmt::v11::basic_string_view<char>, fmt::v11::format_specs const&)::{lambda(fmt::v11::basic_appender<char>&)#1})
PUBLIC 2a00c 0 fmt::v11::detail::format_dragon(fmt::v11::detail::basic_fp<unsigned __int128>, unsigned int, int, fmt::v11::detail::buffer<char>&, int&)
PUBLIC 2b43c 0 fmt::v11::detail::bigint::operator<<=(int)
PUBLIC 2b560 0 fmt::v11::detail::bigint::assign_pow10(int)
PUBLIC 2bcbc 0 fmt::v11::detail::bigint::divmod_assign(fmt::v11::detail::bigint const&)
PUBLIC 2bfdc 0 fmt::v11::basic_memory_buffer<unsigned int, (unsigned long)32, std::__ndk1::allocator<unsigned int> >::grow(fmt::v11::detail::buffer<unsigned int>&, unsigned long)
PUBLIC 2c07c 0 fmt::v11::detail::do_write_float<char, fmt::v11::basic_appender<char>, fmt::v11::detail::big_decimal_fp, fmt::v11::detail::digit_grouping<char> >(fmt::v11::basic_appender<char>, fmt::v11::detail::big_decimal_fp const&, fmt::v11::format_specs const&, fmt::v11::detail::float_specs, fmt::v11::detail::locale_ref)
PUBLIC 2cf2c 0 fmt::v11::detail::do_write_float<char, fmt::v11::basic_appender<char>, fmt::v11::detail::big_decimal_fp, fmt::v11::detail::digit_grouping<char> >(fmt::v11::basic_appender<char>, fmt::v11::detail::big_decimal_fp const&, fmt::v11::format_specs const&, fmt::v11::detail::float_specs, fmt::v11::detail::locale_ref)::{lambda(fmt::v11::basic_appender<char>(fmt::v11::basic_appender<char>))#1}::operator() const
PUBLIC 2d08c 0 fmt::v11::detail::write_padded<char, (fmt::v11::align::type)2, fmt::v11::basic_appender<char>, fmt::v11::detail::write_ptr<char, fmt::v11::basic_appender<char>, unsigned long>(fmt::v11::basic_appender<char>, unsigned long, fmt::v11::format_specs const*)::{lambda(fmt::v11::basic_appender<char>&)#1}>(fmt::v11::basic_appender<char>, fmt::v11::format_specs const&, unsigned long, unsigned long, fmt::v11::detail::write_ptr<char, fmt::v11::basic_appender<char>, unsigned long>(fmt::v11::basic_appender<char>, unsigned long, fmt::v11::format_specs const*)::{lambda(fmt::v11::basic_appender<char>&)#1})
PUBLIC 2d2a0 0 fmt::v11::detail::parse_replacement_field<char, fmt::v11::detail::vformat_to<char>(fmt::v11::detail::buffer<char>&, fmt::v11::basic_string_view<char>, fmt::v11::detail::vformat_args<char>::type, fmt::v11::detail::locale_ref)::format_handler&>(char const*, char const*, fmt::v11::detail::vformat_to<char>(fmt::v11::detail::buffer<char>&, fmt::v11::basic_string_view<char>, fmt::v11::detail::vformat_args<char>::type, fmt::v11::detail::locale_ref)::format_handler&)
PUBLIC 2ef3c 0 fmt::v11::detail::parse_dynamic_spec<char>(char const*, char const*, int&, fmt::v11::detail::arg_ref<char>&, fmt::v11::basic_format_parse_context<char>&)
PUBLIC 2f1cc 0 fmt::v11::basic_format_args<fmt::v11::context>::get<char>(fmt::v11::basic_string_view<char>) const
PUBLIC 2f324 0 fmt::v11::detail::write_int_noinline<char, fmt::v11::basic_appender<char>, unsigned long>(fmt::v11::basic_appender<char>, fmt::v11::detail::write_int_arg<unsigned long>, fmt::v11::format_specs const&, fmt::v11::detail::locale_ref)
PUBLIC 30178 0 fmt::v11::detail::write_int_noinline<char, fmt::v11::basic_appender<char>, unsigned __int128>(fmt::v11::basic_appender<char>, fmt::v11::detail::write_int_arg<unsigned __int128>, fmt::v11::format_specs const&, fmt::v11::detail::locale_ref)
PUBLIC 311e0 0 _ZN3fmt3v116detail15format_hexfloatIdTnNSt6__ndk19enable_ifIXntsr16is_double_doubleIT_EE5valueEiE4typeELi0EEEvS5_NS0_12format_specsERNS1_6bufferIcEE
PUBLIC 31700 0 fmt::v11::detail::format_float<double>(double, int, fmt::v11::detail::float_specs, fmt::v11::detail::buffer<char>&)
PUBLIC 320a0 0 fmt::v11::detail::write<char, fmt::v11::basic_appender<char> >(fmt::v11::basic_appender<char>, fmt::v11::basic_string_view<char>, fmt::v11::format_specs const&)
PUBLIC 33414 0 fmt::v11::detail::for_each_codepoint<fmt::v11::detail::compute_width(fmt::v11::basic_string_view<char>)::count_code_points>(fmt::v11::basic_string_view<char>, fmt::v11::detail::compute_width(fmt::v11::basic_string_view<char>)::count_code_points)::{lambda(char const*, char const*)#1}::operator()(char const*, char const*) const
PUBLIC 335cc 0 fmt::v11::detail::write_int<fmt::v11::basic_appender<char>, unsigned long, char>(fmt::v11::basic_appender<char>, unsigned long, unsigned int, fmt::v11::format_specs const&, fmt::v11::detail::digit_grouping<char> const&)
PUBLIC 33b48 0 fmt::v11::detail::write_int<fmt::v11::basic_appender<char>, unsigned __int128, char>(fmt::v11::basic_appender<char>, unsigned __int128, unsigned int, fmt::v11::format_specs const&, fmt::v11::detail::digit_grouping<char> const&)
PUBLIC 341d0 0 <.plt ELF section in km7dev.audio-offset.android64.so>
STACK CFI INIT 16700 10 .cfa: sp 0 +
STACK CFI INIT 16710 8 .cfa: sp 0 +
STACK CFI INIT 16718 8 .cfa: sp 0 +
STACK CFI INIT 16720 14 .cfa: sp 0 +
STACK CFI INIT 16734 1c .cfa: sp 0 +
STACK CFI INIT 16750 10 .cfa: sp 0 +
STACK CFI INIT 16760 134 .cfa: sp 0 +
STACK CFI INIT 16894 84 .cfa: sp 0 +
STACK CFI INIT 16918 f4 .cfa: sp 0 +
STACK CFI INIT 16a0c a8 .cfa: sp 0 +
STACK CFI INIT 16ab4 7c .cfa: sp 0 +
STACK CFI INIT 16b30 14 .cfa: sp 0 +
STACK CFI INIT 16b44 40 .cfa: sp 0 +
STACK CFI INIT 16b84 28 .cfa: sp 0 +
STACK CFI INIT 16bac 190 .cfa: sp 0 +
STACK CFI INIT 16d3c 2c8 .cfa: sp 0 +
STACK CFI INIT 17004 8 .cfa: sp 0 +
STACK CFI INIT 1700c 8 .cfa: sp 0 +
STACK CFI INIT 17014 44 .cfa: sp 0 +
STACK CFI INIT 17058 e8 .cfa: sp 0 +
STACK CFI INIT 17140 e8 .cfa: sp 0 +
STACK CFI INIT 17228 14 .cfa: sp 0 +
STACK CFI INIT 1723c 10 .cfa: sp 0 +
STACK CFI INIT 1724c 10 .cfa: sp 0 +
STACK CFI INIT 1725c f0 .cfa: sp 0 +
STACK CFI INIT 1734c 44 .cfa: sp 0 +
STACK CFI INIT 17390 c .cfa: sp 0 +
STACK CFI INIT 1739c c .cfa: sp 0 +
STACK CFI INIT 173a8 2c .cfa: sp 0 +
STACK CFI INIT 173d4 280 .cfa: sp 0 +
STACK CFI INIT 17654 c .cfa: sp 0 +
STACK CFI INIT 17660 120 .cfa: sp 0 +
STACK CFI INIT 17780 488 .cfa: sp 0 +
STACK CFI INIT 17c08 c48 .cfa: sp 0 +
STACK CFI INIT 18850 134 .cfa: sp 0 +
STACK CFI INIT 18984 210 .cfa: sp 0 +
STACK CFI INIT 18b94 38c .cfa: sp 0 +
STACK CFI INIT 18f20 1c8 .cfa: sp 0 +
STACK CFI INIT 190e8 9bc .cfa: sp 0 +
STACK CFI INIT 19aa4 2d4 .cfa: sp 0 +
STACK CFI INIT 19d78 134 .cfa: sp 0 +
STACK CFI INIT 19eac 120 .cfa: sp 0 +
STACK CFI INIT 19fcc 1c8 .cfa: sp 0 +
STACK CFI INIT 1a194 168 .cfa: sp 0 +
STACK CFI INIT 1a2fc fc .cfa: sp 0 +
STACK CFI INIT 1a3f8 30 .cfa: sp 0 +
STACK CFI INIT 1a560 30 .cfa: sp 0 +
STACK CFI INIT 1a590 98 .cfa: sp 0 +
STACK CFI INIT 1a628 59c .cfa: sp 0 +
STACK CFI INIT 1abc4 8c .cfa: sp 0 +
STACK CFI INIT 1ac50 30 .cfa: sp 0 +
STACK CFI INIT 1b854 18 .cfa: sp 0 +
STACK CFI INIT 1be44 50 .cfa: sp 0 +
STACK CFI 1be48 .cfa: sp 32 +
STACK CFI 1be50 .cfa: x29 32 + x19: .cfa -16 + ^ .ra: .cfa -24 + ^ x29: .cfa -32 + ^
STACK CFI 1be68 .cfa: sp 32 +
STACK CFI 1be70 .cfa: sp 0 +
STACK CFI 1be74 .cfa: x29 32 +
STACK CFI 1be88 .cfa: sp 32 +
STACK CFI 1be90 .cfa: sp 0 +
STACK CFI INIT 1bf08 7c .cfa: sp 0 +
STACK CFI 1bf0c .cfa: sp 48 +
STACK CFI 1bf18 .cfa: x29 48 + x19: .cfa -8 + ^ x20: .cfa -16 + ^ x21: .cfa -32 + ^ .ra: .cfa -40 + ^ x29: .cfa -48 + ^
STACK CFI 1bf64 .cfa: sp 48 +
STACK CFI 1bf70 .cfa: sp 0 +
STACK CFI 1bf74 .cfa: sp 48 +
STACK CFI 1bf80 .cfa: sp 0 +
STACK CFI INIT 1bf84 4 .cfa: sp 0 +
STACK CFI INIT 1bf88 10 .cfa: sp 0 +
STACK CFI 1bf8c .cfa: sp 16 +
STACK CFI 1bf90 .cfa: x29 16 + .ra: .cfa -8 + ^ x29: .cfa -16 + ^
STACK CFI INIT 1c0ec 34 .cfa: sp 0 +
STACK CFI 1c0f0 .cfa: sp 16 +
STACK CFI 1c0f4 .cfa: x29 16 + .ra: .cfa -8 + ^ x29: .cfa -16 + ^
STACK CFI INIT 1c24c 80 .cfa: sp 0 +
STACK CFI 1c250 .cfa: sp 48 +
STACK CFI 1c25c .cfa: x29 48 + x19: .cfa -8 + ^ x20: .cfa -16 + ^ x21: .cfa -32 + ^ .ra: .cfa -40 + ^ x29: .cfa -48 + ^
STACK CFI 1c2bc .cfa: sp 48 +
STACK CFI 1c2c8 .cfa: sp 0 +
STACK CFI INIT 1c2cc 24 .cfa: sp 0 +
STACK CFI 1c2d0 .cfa: sp 32 +
STACK CFI 1c2d8 .cfa: x29 32 + x19: .cfa -16 + ^ .ra: .cfa -24 + ^ x29: .cfa -32 + ^
STACK CFI 1c2e4 .cfa: sp 32 +
STACK CFI 1c2ec .cfa: sp 0 +
STACK CFI INIT 1c670 14 .cfa: sp 0 +
STACK CFI 1c674 .cfa: sp 16 +
STACK CFI 1c678 .cfa: x29 16 + .ra: .cfa -8 + ^ x29: .cfa -16 + ^
STACK CFI INIT 1c6d4 30 .cfa: sp 0 +
STACK CFI 1c6d8 .cfa: sp 32 +
STACK CFI 1c6e0 .cfa: x29 32 + x19: .cfa -16 + ^ .ra: .cfa -24 + ^ x29: .cfa -32 + ^
STACK CFI 1c6f8 .cfa: sp 32 +
STACK CFI 1c700 .cfa: sp 0 +
STACK CFI INIT 1c704 34 .cfa: sp 0 +
STACK CFI 1c708 .cfa: sp 32 +
STACK CFI 1c710 .cfa: x29 32 + x19: .cfa -16 + ^ .ra: .cfa -24 + ^ x29: .cfa -32 + ^
STACK CFI INIT 1c8b0 148 .cfa: sp 0 +
STACK CFI 1c8b4 .cfa: sp 48 +
STACK CFI 1c8c0 .cfa: x29 48 + x19: .cfa -8 + ^ x20: .cfa -16 + ^ x21: .cfa -32 + ^ .ra: .cfa -40 + ^ x29: .cfa -48 + ^
STACK CFI 1c9e8 .cfa: sp 48 +
STACK CFI 1c9f4 .cfa: sp 0 +
STACK CFI INIT 1c9f8 80 .cfa: sp 0 +
STACK CFI 1c9fc .cfa: sp 48 +
STACK CFI 1ca08 .cfa: x29 48 + x19: .cfa -8 + ^ x20: .cfa -16 + ^ x21: .cfa -24 + ^ x22: .cfa -32 + ^ .ra: .cfa -40 + ^ x29: .cfa -48 + ^
STACK CFI 1ca20 .cfa: sp 48 +
STACK CFI 1ca2c .cfa: sp 0 +
STACK CFI 1ca30 .cfa: x29 48 +
STACK CFI 1ca60 .cfa: sp 48 +
STACK CFI 1ca6c .cfa: sp 0 +
STACK CFI 1ca70 .cfa: x29 48 +
STACK CFI INIT 1ca78 68 .cfa: sp 0 +
STACK CFI 1ca7c .cfa: sp 32 +
STACK CFI 1ca84 .cfa: x29 32 + x19: .cfa -8 + ^ x20: .cfa -16 + ^ .ra: .cfa -24 + ^ x29: .cfa -32 + ^
STACK CFI 1ca9c .cfa: sp 32 +
STACK CFI 1caa4 .cfa: sp 0 +
STACK CFI 1caa8 .cfa: x29 32 +
STACK CFI 1cad4 .cfa: sp 32 +
STACK CFI 1cadc .cfa: sp 0 +
STACK CFI INIT 1cae0 14 .cfa: sp 0 +
STACK CFI 1cae4 .cfa: sp 16 +
STACK CFI 1cae8 .cfa: x29 16 + .ra: .cfa -8 + ^ x29: .cfa -16 + ^
STACK CFI INIT 1caf4 4 .cfa: sp 0 +
STACK CFI INIT 1caf8 14 .cfa: sp 0 +
STACK CFI INIT 1cb0c 84 .cfa: sp 0 +
STACK CFI 1cb14 .cfa: sp 32 +
STACK CFI 1cb1c .cfa: x29 32 + x19: .cfa -8 + ^ x20: .cfa -16 + ^ .ra: .cfa -24 + ^ x29: .cfa -32 + ^
STACK CFI 1cb5c .cfa: sp 32 +
STACK CFI 1cb64 .cfa: sp 0 +
STACK CFI 1cb6c .cfa: x29 32 +
STACK CFI INIT 1cb90 60 .cfa: sp 0 +
STACK CFI 1cb94 .cfa: sp 32 +
STACK CFI 1cb9c .cfa: x29 32 + x19: .cfa -8 + ^ x20: .cfa -16 + ^ .ra: .cfa -24 + ^ x29: .cfa -32 + ^
STACK CFI 1cbd8 .cfa: sp 32 +
STACK CFI 1cbe0 .cfa: sp 0 +
STACK CFI 1cbe4 .cfa: sp 32 +
STACK CFI 1cbec .cfa: sp 0 +
STACK CFI INIT 1cdb0 50 .cfa: sp 0 +
STACK CFI 1cdb4 .cfa: sp 32 +
STACK CFI 1cdbc .cfa: x29 32 + x19: .cfa -16 + ^ .ra: .cfa -24 + ^ x29: .cfa -32 + ^
STACK CFI 1cdd4 .cfa: sp 32 +
STACK CFI 1cddc .cfa: sp 0 +
STACK CFI 1cde0 .cfa: x29 32 +
STACK CFI 1cdf4 .cfa: sp 32 +
STACK CFI 1cdfc .cfa: sp 0 +
STACK CFI INIT 1ce00 64 .cfa: sp 0 +
STACK CFI 1ce04 .cfa: sp 32 +
STACK CFI 1ce0c .cfa: x29 32 + x19: .cfa -16 + ^ .ra: .cfa -24 + ^ x29: .cfa -32 + ^
STACK CFI 1ce38 .cfa: sp 32 +
STACK CFI 1ce40 .cfa: sp 0 +
STACK CFI 1ce44 .cfa: x29 32 +
STACK CFI 1ce58 .cfa: sp 32 +
STACK CFI 1ce60 .cfa: sp 0 +
STACK CFI INIT 1d4a4 4 .cfa: sp 0 +
STACK CFI INIT 1d4a8 14 .cfa: sp 0 +
STACK CFI 1d4ac .cfa: sp 16 +
STACK CFI 1d4b0 .cfa: x29 16 + .ra: .cfa -8 + ^ x29: .cfa -16 + ^
STACK CFI INIT 1d4bc 14 .cfa: sp 0 +
STACK CFI 1d4c0 .cfa: sp 16 +
STACK CFI 1d4c4 .cfa: x29 16 + .ra: .cfa -8 + ^ x29: .cfa -16 + ^
STACK CFI INIT 1d4d0 c .cfa: sp 0 +
STACK CFI 1d4d4 .cfa: sp 16 +
STACK CFI 1d4d8 .cfa: x29 16 + .ra: .cfa -8 + ^ x29: .cfa -16 + ^
STACK CFI INIT 1d52c 30 .cfa: sp 0 +
STACK CFI 1d530 .cfa: sp 32 +
STACK CFI 1d538 .cfa: x29 32 + x19: .cfa -16 + ^ .ra: .cfa -24 + ^ x29: .cfa -32 + ^
STACK CFI 1d550 .cfa: sp 32 +
STACK CFI 1d558 .cfa: sp 0 +
STACK CFI INIT 1d55c c .cfa: sp 0 +
STACK CFI 1d560 .cfa: sp 16 +
STACK CFI 1d564 .cfa: x29 16 + .ra: .cfa -8 + ^ x29: .cfa -16 + ^
STACK CFI INIT 1d568 4 .cfa: sp 0 +
STACK CFI INIT 1d56c 4 .cfa: sp 0 +
STACK CFI INIT 1d570 38 .cfa: sp 0 +
STACK CFI 1d574 .cfa: sp 32 +
STACK CFI 1d57c .cfa: x29 32 + x19: .cfa -16 + ^ .ra: .cfa -24 + ^ x29: .cfa -32 + ^
STACK CFI 1d59c .cfa: sp 32 +
STACK CFI 1d5a4 .cfa: sp 0 +
STACK CFI INIT 1d5a8 18 .cfa: sp 0 +
STACK CFI INIT 1d5c0 4 .cfa: sp 0 +
STACK CFI INIT 1d5c4 4 .cfa: sp 0 +
STACK CFI INIT 1d5c8 10 .cfa: sp 0 +
STACK CFI INIT 1d5d8 1c .cfa: sp 0 +
STACK CFI INIT 1d5f4 c .cfa: sp 0 +
STACK CFI INIT 1d600 168 .cfa: sp 0 +
STACK CFI 1d604 .cfa: sp 80 +
STACK CFI 1d618 .cfa: x29 80 + x19: .cfa -8 + ^ x20: .cfa -16 + ^ x21: .cfa -24 + ^ x22: .cfa -32 + ^ x23: .cfa -40 + ^ x24: .cfa -48 + ^ x25: .cfa -56 + ^ x26: .cfa -64 + ^ .ra: .cfa -72 + ^ x29: .cfa -80 + ^
STACK CFI 1d750 .cfa: sp 80 +
STACK CFI 1d764 .cfa: sp 0 +
STACK CFI INIT 1d768 1b0 .cfa: sp 0 +
STACK CFI INIT 1d9c0 9c .cfa: sp 0 +
STACK CFI 1d9c4 .cfa: sp 32 +
STACK CFI 1d9cc .cfa: x29 32 + x19: .cfa -16 + ^ .ra: .cfa -24 + ^ x29: .cfa -32 + ^
STACK CFI 1da50 .cfa: sp 32 +
STACK CFI 1da58 .cfa: sp 0 +
STACK CFI INIT 1da5c 8 .cfa: sp 0 +
STACK CFI INIT 1da64 4 .cfa: sp 0 +
STACK CFI INIT 1da68 4 .cfa: sp 0 +
STACK CFI INIT 1da6c 4 .cfa: sp 0 +
STACK CFI INIT 1da70 4 .cfa: sp 0 +
STACK CFI INIT 1decc 2c .cfa: sp 0 +
STACK CFI 1ded0 .cfa: sp 32 +
STACK CFI 1ded8 .cfa: x29 32 + x19: .cfa -16 + ^ .ra: .cfa -24 + ^ x29: .cfa -32 + ^
STACK CFI 1deec .cfa: sp 32 +
STACK CFI 1def4 .cfa: sp 0 +
STACK CFI INIT 1def8 28 .cfa: sp 0 +
STACK CFI INIT 1df20 4 .cfa: sp 0 +
STACK CFI INIT 1df24 8 .cfa: sp 0 +
STACK CFI INIT 1e2f4 20 .cfa: sp 0 +
STACK CFI 1e2f8 .cfa: sp 16 +
STACK CFI 1e2fc .cfa: x29 16 + .ra: .cfa -8 + ^ x29: .cfa -16 + ^
STACK CFI 1e30c .cfa: sp 16 +
STACK CFI 1e310 .cfa: sp 0 +
STACK CFI INIT 1e3f4 2c .cfa: sp 0 +
STACK CFI INIT 1e420 4 .cfa: sp 0 +
STACK CFI INIT 1e424 8 .cfa: sp 0 +
STACK CFI INIT 1e42c 4 .cfa: sp 0 +
STACK CFI INIT 1e5e4 4 .cfa: sp 0 +
STACK CFI INIT 1e5e8 60 .cfa: sp 0 +
STACK CFI 1e5ec .cfa: sp 32 +
STACK CFI 1e5f4 .cfa: x29 32 + x19: .cfa -8 + ^ x20: .cfa -16 + ^ .ra: .cfa -24 + ^ x29: .cfa -32 + ^
STACK CFI 1e614 .cfa: sp 32 +
STACK CFI 1e61c .cfa: sp 0 +
STACK CFI 1e620 .cfa: x29 32 +
STACK CFI 1e63c .cfa: sp 32 +
STACK CFI 1e644 .cfa: sp 0 +
STACK CFI INIT 1e648 70 .cfa: sp 0 +
STACK CFI 1e64c .cfa: sp 32 +
STACK CFI 1e654 .cfa: x29 32 + x19: .cfa -8 + ^ x20: .cfa -16 + ^ .ra: .cfa -24 + ^ x29: .cfa -32 + ^
STACK CFI 1e67c .cfa: sp 32 +
STACK CFI 1e684 .cfa: sp 0 +
STACK CFI 1e688 .cfa: x29 32 +
STACK CFI 1e6ac .cfa: sp 32 +
STACK CFI 1e6b4 .cfa: sp 0 +
STACK CFI INIT 1e6b8 10 .cfa: sp 0 +
STACK CFI INIT 1e6c8 30 .cfa: sp 0 +
STACK CFI 1e6cc .cfa: sp 32 +
STACK CFI 1e6d4 .cfa: x29 32 + x19: .cfa -16 + ^ .ra: .cfa -24 + ^ x29: .cfa -32 + ^
STACK CFI 1e6ec .cfa: sp 32 +
STACK CFI 1e6f4 .cfa: sp 0 +
STACK CFI INIT 1e6f8 4 .cfa: sp 0 +
STACK CFI INIT 1e6fc 4 .cfa: sp 0 +
STACK CFI INIT 1e700 94 .cfa: sp 0 +
STACK CFI 1e704 .cfa: sp 32 +
STACK CFI 1e70c .cfa: x29 32 + x19: .cfa -16 + ^ .ra: .cfa -24 + ^ x29: .cfa -32 + ^
STACK CFI 1e788 .cfa: sp 32 +
STACK CFI 1e790 .cfa: sp 0 +
STACK CFI INIT 1ed3c 3c .cfa: sp 0 +
STACK CFI 1ed40 .cfa: sp 32 +
STACK CFI 1ed48 .cfa: x29 32 + x19: .cfa -16 + ^ .ra: .cfa -24 + ^ x29: .cfa -32 + ^
STACK CFI 1ed54 .cfa: sp 32 +
STACK CFI 1ed5c .cfa: sp 0 +
STACK CFI 1ed60 .cfa: x29 32 +
STACK CFI 1ed6c .cfa: sp 32 +
STACK CFI 1ed74 .cfa: sp 0 +
STACK CFI INIT 1f254 64 .cfa: sp 0 +
STACK CFI 1f258 .cfa: sp 32 +
STACK CFI 1f260 .cfa: x29 32 + x19: .cfa -16 + ^ .ra: .cfa -24 + ^ x29: .cfa -32 + ^
STACK CFI 1f28c .cfa: sp 32 +
STACK CFI 1f294 .cfa: sp 0 +
STACK CFI 1f298 .cfa: x29 32 +
STACK CFI 1f2ac .cfa: sp 32 +
STACK CFI 1f2b4 .cfa: sp 0 +
STACK CFI INIT 1f2b8 24 .cfa: sp 0 +
STACK CFI 1f2bc .cfa: sp 32 +
STACK CFI 1f2c4 .cfa: x29 32 + x19: .cfa -16 + ^ .ra: .cfa -24 + ^ x29: .cfa -32 + ^
STACK CFI 1f2d0 .cfa: sp 32 +
STACK CFI 1f2d8 .cfa: sp 0 +
STACK CFI INIT 1f2dc 8 .cfa: sp 0 +
STACK CFI INIT 1f2e4 24 .cfa: sp 0 +
STACK CFI 1f2e8 .cfa: sp 32 +
STACK CFI 1f2f0 .cfa: x29 32 + x19: .cfa -16 + ^ .ra: .cfa -24 + ^ x29: .cfa -32 + ^
STACK CFI 1f2fc .cfa: sp 32 +
STACK CFI 1f304 .cfa: sp 0 +
STACK CFI INIT 1f308 28 .cfa: sp 0 +
STACK CFI 1f30c .cfa: sp 32 +
STACK CFI 1f314 .cfa: x29 32 + x19: .cfa -16 + ^ .ra: .cfa -24 + ^ x29: .cfa -32 + ^
STACK CFI 1f324 .cfa: sp 32 +
STACK CFI 1f32c .cfa: sp 0 +
STACK CFI INIT 1f330 24 .cfa: sp 0 +
STACK CFI 1f334 .cfa: sp 32 +
STACK CFI 1f33c .cfa: x29 32 + x19: .cfa -16 + ^ .ra: .cfa -24 + ^ x29: .cfa -32 + ^
STACK CFI 1f348 .cfa: sp 32 +
STACK CFI 1f350 .cfa: sp 0 +
STACK CFI INIT 1fbd8 8 .cfa: sp 0 +
STACK CFI INIT 1fbe0 24 .cfa: sp 0 +
STACK CFI 1fbe4 .cfa: sp 32 +
STACK CFI 1fbec .cfa: x29 32 + x19: .cfa -16 + ^ .ra: .cfa -24 + ^ x29: .cfa -32 + ^
STACK CFI 1fbf8 .cfa: sp 32 +
STACK CFI 1fc00 .cfa: sp 0 +
STACK CFI INIT 1fc04 28 .cfa: sp 0 +
STACK CFI 1fc08 .cfa: sp 32 +
STACK CFI 1fc10 .cfa: x29 32 + x19: .cfa -16 + ^ .ra: .cfa -24 + ^ x29: .cfa -32 + ^
STACK CFI 1fc20 .cfa: sp 32 +
STACK CFI 1fc28 .cfa: sp 0 +
STACK CFI INIT 1fc2c 8 .cfa: sp 0 +
STACK CFI INIT 1fc34 24 .cfa: sp 0 +
STACK CFI 1fc38 .cfa: sp 32 +
STACK CFI 1fc40 .cfa: x29 32 + x19: .cfa -16 + ^ .ra: .cfa -24 + ^ x29: .cfa -32 + ^
STACK CFI 1fc4c .cfa: sp 32 +
STACK CFI 1fc54 .cfa: sp 0 +
STACK CFI INIT 1fc58 28 .cfa: sp 0 +
STACK CFI 1fc5c .cfa: sp 32 +
STACK CFI 1fc64 .cfa: x29 32 + x19: .cfa -16 + ^ .ra: .cfa -24 + ^ x29: .cfa -32 + ^
STACK CFI 1fc74 .cfa: sp 32 +
STACK CFI 1fc7c .cfa: sp 0 +
STACK CFI INIT 1fc80 8 .cfa: sp 0 +
STACK CFI INIT 1fc88 24 .cfa: sp 0 +
STACK CFI 1fc8c .cfa: sp 32 +
STACK CFI 1fc94 .cfa: x29 32 + x19: .cfa -16 + ^ .ra: .cfa -24 + ^ x29: .cfa -32 + ^
STACK CFI 1fca0 .cfa: sp 32 +
STACK CFI 1fca8 .cfa: sp 0 +
STACK CFI INIT 1fcac 28 .cfa: sp 0 +
STACK CFI 1fcb0 .cfa: sp 32 +
STACK CFI 1fcb8 .cfa: x29 32 + x19: .cfa -16 + ^ .ra: .cfa -24 + ^ x29: .cfa -32 + ^
STACK CFI 1fcc8 .cfa: sp 32 +
STACK CFI 1fcd0 .cfa: sp 0 +
STACK CFI INIT 20450 4 .cfa: sp 0 +
STACK CFI INIT 212cc 4 .cfa: sp 0 +
STACK CFI INIT 212d0 14 .cfa: sp 0 +
STACK CFI INIT 217c4 c .cfa: sp 0 +
STACK CFI INIT 217d0 24c .cfa: sp 0 +
STACK CFI INIT 21a1c a0 .cfa: sp 0 +
STACK CFI 21a28 .cfa: sp 32 +
STACK CFI 21a80 .cfa: sp 0 +
STACK CFI 21a84 .cfa: sp 32 +
STACK CFI 21a8c .cfa: sp 0 +
STACK CFI 21a90 .cfa: sp 32 +
STACK CFI 21aa4 .cfa: sp 0 +
STACK CFI 21aa8 .cfa: sp 32 +
STACK CFI 21ab8 .cfa: sp 0 +
STACK CFI INIT 21abc 38 .cfa: sp 0 +
STACK CFI 21ac8 .cfa: sp 32 +
STACK CFI 21af0 .cfa: sp 0 +
STACK CFI INIT 21d88 7c .cfa: sp 0 +
STACK CFI 21d8c .cfa: sp 32 +
STACK CFI 21d94 .cfa: x29 32 + x19: .cfa -16 + ^ .ra: .cfa -24 + ^ x29: .cfa -32 + ^
STACK CFI 21dc0 .cfa: sp 32 +
STACK CFI 21dc8 .cfa: sp 0 +
STACK CFI 21dcc .cfa: x29 32 +
STACK CFI 21df8 .cfa: sp 32 +
STACK CFI 21e00 .cfa: sp 0 +
STACK CFI INIT 21e54 2c .cfa: sp 0 +
STACK CFI 21e58 .cfa: sp 32 +
STACK CFI 21e60 .cfa: x29 32 + x19: .cfa -16 + ^ .ra: .cfa -24 + ^ x29: .cfa -32 + ^
STACK CFI 21e74 .cfa: sp 32 +
STACK CFI 21e7c .cfa: sp 0 +
STACK CFI INIT 22640 64 .cfa: sp 0 +
STACK CFI 22644 .cfa: sp 32 +
STACK CFI 2264c .cfa: x29 32 + x19: .cfa -16 + ^ .ra: .cfa -24 + ^ x29: .cfa -32 + ^
STACK CFI 22668 .cfa: sp 32 +
STACK CFI 22670 .cfa: sp 0 +
STACK CFI 22674 .cfa: x29 32 +
STACK CFI 22698 .cfa: sp 32 +
STACK CFI 226a0 .cfa: sp 0 +
STACK CFI INIT 226a4 570 .cfa: sp 0 +
STACK CFI 226a8 .cfa: sp 176 +
STACK CFI 226bc .cfa: x29 64 + x19: .cfa -8 + ^ x20: .cfa -16 + ^ x21: .cfa -24 + ^ x22: .cfa -32 + ^ x23: .cfa -40 + ^ x24: .cfa -48 + ^ .ra: .cfa -56 + ^ x29: .cfa -64 + ^
STACK CFI 228ec .cfa: sp 176 +
STACK CFI 22900 .cfa: sp 0 +
STACK CFI 22904 .cfa: x29 64 +
STACK CFI 22950 .cfa: sp 176 +
STACK CFI 22964 .cfa: sp 0 +
STACK CFI 22968 .cfa: x29 64 +
STACK CFI 229a0 .cfa: sp 176 +
STACK CFI 229b4 .cfa: sp 0 +
STACK CFI 229b8 .cfa: x29 64 +
STACK CFI 229d0 .cfa: sp 176 +
STACK CFI 229e4 .cfa: sp 0 +
STACK CFI 229e8 .cfa: x29 64 +
STACK CFI 22a08 .cfa: sp 176 +
STACK CFI 22a1c .cfa: sp 0 +
STACK CFI 22a20 .cfa: x29 64 +
STACK CFI 22a38 .cfa: sp 176 +
STACK CFI 22a4c .cfa: sp 0 +
STACK CFI 22a50 .cfa: x29 64 +
STACK CFI 22a64 .cfa: sp 176 +
STACK CFI 22a78 .cfa: sp 0 +
STACK CFI 22a7c .cfa: x29 64 +
STACK CFI 22a90 .cfa: sp 176 +
STACK CFI 22aa4 .cfa: sp 0 +
STACK CFI 22aa8 .cfa: x29 64 +
STACK CFI 22ab8 .cfa: sp 176 +
STACK CFI 22acc .cfa: sp 0 +
STACK CFI 22ad0 .cfa: x29 64 +
STACK CFI 22ae0 .cfa: sp 176 +
STACK CFI 22af4 .cfa: sp 0 +
STACK CFI 22af8 .cfa: x29 64 +
STACK CFI 22b10 .cfa: sp 176 +
STACK CFI 22b24 .cfa: sp 0 +
STACK CFI 22b28 .cfa: x29 64 +
STACK CFI 22b3c .cfa: sp 176 +
STACK CFI 22b50 .cfa: sp 0 +
STACK CFI 22b54 .cfa: x29 64 +
STACK CFI 22b6c .cfa: sp 176 +
STACK CFI 22b80 .cfa: sp 0 +
STACK CFI 22b84 .cfa: x29 64 +
STACK CFI 22bb0 .cfa: sp 176 +
STACK CFI 22bc4 .cfa: sp 0 +
STACK CFI 22bc8 .cfa: x29 64 +
STACK CFI 22bdc .cfa: sp 176 +
STACK CFI 22bf0 .cfa: sp 0 +
STACK CFI 22bf4 .cfa: x29 64 +
STACK CFI INIT 22c14 228 .cfa: sp 0 +
STACK CFI INIT 22e3c 2dc .cfa: sp 0 +
STACK CFI INIT 23118 53c .cfa: sp 0 +
STACK CFI INIT 23654 78 .cfa: sp 0 +
STACK CFI 23658 .cfa: sp 48 +
STACK CFI 23664 .cfa: x29 48 + x19: .cfa -8 + ^ x20: .cfa -16 + ^ x21: .cfa -24 + ^ x22: .cfa -32 + ^ .ra: .cfa -40 + ^ x29: .cfa -48 + ^
STACK CFI 236ac .cfa: sp 48 +
STACK CFI 236b8 .cfa: sp 0 +
STACK CFI 236bc .cfa: sp 48 +
STACK CFI 236c8 .cfa: sp 0 +
STACK CFI INIT 236cc 8c .cfa: sp 0 +
STACK CFI 236d0 .cfa: sp 32 +
STACK CFI 236d8 .cfa: x29 32 + x19: .cfa -16 + ^ .ra: .cfa -24 + ^ x29: .cfa -32 + ^
STACK CFI 2370c .cfa: sp 32 +
STACK CFI 23714 .cfa: sp 0 +
STACK CFI 23718 .cfa: x29 32 +
STACK CFI 2374c .cfa: sp 32 +
STACK CFI 23754 .cfa: sp 0 +
STACK CFI INIT 23758 24 .cfa: sp 0 +
STACK CFI 2375c .cfa: sp 32 +
STACK CFI 23764 .cfa: x29 32 + x19: .cfa -16 + ^ .ra: .cfa -24 + ^ x29: .cfa -32 + ^
STACK CFI 23770 .cfa: sp 32 +
STACK CFI 23778 .cfa: sp 0 +
STACK CFI INIT 2377c 150 .cfa: sp 0 +
STACK CFI 23780 .cfa: sp 48 +
STACK CFI 2378c .cfa: x29 48 + x19: .cfa -8 + ^ x20: .cfa -16 + ^ x21: .cfa -24 + ^ x22: .cfa -32 + ^ .ra: .cfa -40 + ^ x29: .cfa -48 + ^
STACK CFI 238bc .cfa: sp 48 +
STACK CFI 238c8 .cfa: sp 0 +
STACK CFI INIT 238cc 68 .cfa: sp 0 +
STACK CFI 238d0 .cfa: sp 64 +
STACK CFI 238dc .cfa: x29 32 + x19: .cfa -16 + ^ .ra: .cfa -24 + ^ x29: .cfa -32 + ^
STACK CFI 23920 .cfa: sp 64 +
STACK CFI 2392c .cfa: sp 0 +
STACK CFI 23930 .cfa: x29 32 +
STACK CFI INIT 23934 90 .cfa: sp 0 +
STACK CFI 23938 .cfa: sp 32 +
STACK CFI 23940 .cfa: x29 32 + x19: .cfa -8 + ^ x20: .cfa -16 + ^ .ra: .cfa -24 + ^ x29: .cfa -32 + ^
STACK CFI 2396c .cfa: sp 32 +
STACK CFI 23974 .cfa: sp 0 +
STACK CFI 23978 .cfa: x29 32 +
STACK CFI 239b8 .cfa: sp 32 +
STACK CFI 239c0 .cfa: sp 0 +
STACK CFI INIT 239c4 ec .cfa: sp 0 +
STACK CFI 239c8 .cfa: sp 112 +
STACK CFI 239d8 .cfa: x29 48 + x19: .cfa -8 + ^ x20: .cfa -16 + ^ x21: .cfa -32 + ^ .ra: .cfa -40 + ^ x29: .cfa -48 + ^
STACK CFI 23a98 .cfa: sp 112 +
STACK CFI 23aa8 .cfa: sp 0 +
STACK CFI 23aac .cfa: x29 48 +
STACK CFI INIT 23ab0 ec .cfa: sp 0 +
STACK CFI 23ab4 .cfa: sp 112 +
STACK CFI 23ac4 .cfa: x29 48 + x19: .cfa -8 + ^ x20: .cfa -16 + ^ x21: .cfa -32 + ^ .ra: .cfa -40 + ^ x29: .cfa -48 + ^
STACK CFI 23b84 .cfa: sp 112 +
STACK CFI 23b94 .cfa: sp 0 +
STACK CFI 23b98 .cfa: x29 48 +
STACK CFI INIT 23b9c 48 .cfa: sp 0 +
STACK CFI 23ba0 .cfa: sp 32 +
STACK CFI 23ba8 .cfa: x29 32 + x19: .cfa -8 + ^ x20: .cfa -16 + ^ .ra: .cfa -24 + ^ x29: .cfa -32 + ^
STACK CFI 23bcc .cfa: sp 32 +
STACK CFI 23bd4 .cfa: sp 0 +
STACK CFI 23bd8 .cfa: x29 32 +
STACK CFI INIT 23be4 98 .cfa: sp 0 +
STACK CFI 23be8 .cfa: sp 80 +
STACK CFI 23bf4 .cfa: x29 32 + x19: .cfa -16 + ^ .ra: .cfa -24 + ^ x29: .cfa -32 + ^
STACK CFI 23c68 .cfa: sp 80 +
STACK CFI 23c74 .cfa: sp 0 +
STACK CFI 23c78 .cfa: x29 32 +
STACK CFI INIT 23c7c 260 .cfa: sp 0 +
STACK CFI 23c80 .cfa: sp 112 +
STACK CFI 23c98 .cfa: x29 80 + x19: .cfa -8 + ^ x20: .cfa -16 + ^ x21: .cfa -24 + ^ x22: .cfa -32 + ^ x23: .cfa -40 + ^ x24: .cfa -48 + ^ x25: .cfa -64 + ^ .ra: .cfa -72 + ^ x29: .cfa -80 + ^
STACK CFI 23e7c .cfa: sp 112 +
STACK CFI 23e94 .cfa: sp 0 +
STACK CFI 23e98 .cfa: x29 80 +
STACK CFI INIT 23edc 150 .cfa: sp 0 +
STACK CFI 23ee0 .cfa: sp 48 +
STACK CFI 23eec .cfa: x29 48 + x19: .cfa -8 + ^ x20: .cfa -16 + ^ x21: .cfa -24 + ^ x22: .cfa -32 + ^ .ra: .cfa -40 + ^ x29: .cfa -48 + ^
STACK CFI 2401c .cfa: sp 48 +
STACK CFI 24028 .cfa: sp 0 +
STACK CFI INIT 2402c 1e0 .cfa: sp 0 +
STACK CFI 24030 .cfa: sp 96 +
STACK CFI 24044 .cfa: x29 64 + x19: .cfa -8 + ^ x20: .cfa -16 + ^ x21: .cfa -24 + ^ x22: .cfa -32 + ^ x23: .cfa -40 + ^ x24: .cfa -48 + ^ .ra: .cfa -56 + ^ x29: .cfa -64 + ^
STACK CFI 241c4 .cfa: sp 96 +
STACK CFI 241d8 .cfa: sp 0 +
STACK CFI 241dc .cfa: x29 64 +
STACK CFI INIT 2420c 284 .cfa: sp 0 +
STACK CFI 24210 .cfa: sp 112 +
STACK CFI 24228 .cfa: x29 80 + x19: .cfa -8 + ^ x20: .cfa -16 + ^ x21: .cfa -24 + ^ x22: .cfa -32 + ^ x23: .cfa -40 + ^ x24: .cfa -48 + ^ x25: .cfa -64 + ^ .ra: .cfa -72 + ^ x29: .cfa -80 + ^
STACK CFI 24430 .cfa: sp 112 +
STACK CFI 24448 .cfa: sp 0 +
STACK CFI 2444c .cfa: x29 80 +
STACK CFI INIT 24490 208 .cfa: sp 0 +
STACK CFI 24494 .cfa: sp 96 +
STACK CFI 244a8 .cfa: x29 64 + x19: .cfa -8 + ^ x20: .cfa -16 + ^ x21: .cfa -24 + ^ x22: .cfa -32 + ^ x23: .cfa -40 + ^ x24: .cfa -48 + ^ .ra: .cfa -56 + ^ x29: .cfa -64 + ^
STACK CFI 24650 .cfa: sp 96 +
STACK CFI 24664 .cfa: sp 0 +
STACK CFI 24668 .cfa: x29 64 +
STACK CFI INIT 24698 360 .cfa: sp 0 +
STACK CFI 2469c .cfa: sp 160 +
STACK CFI 246b8 .cfa: x29 96 + x19: .cfa -8 + ^ x20: .cfa -16 + ^ x21: .cfa -24 + ^ x22: .cfa -32 + ^ x23: .cfa -40 + ^ x24: .cfa -48 + ^ x25: .cfa -56 + ^ x26: .cfa -64 + ^ x27: .cfa -72 + ^ x28: .cfa -80 + ^ .ra: .cfa -88 + ^ x29: .cfa -96 + ^
STACK CFI 24984 .cfa: sp 160 +
STACK CFI 249a0 .cfa: sp 0 +
STACK CFI 249a4 .cfa: x29 96 +
STACK CFI INIT 249f8 314 .cfa: sp 0 +
STACK CFI 249fc .cfa: sp 144 +
STACK CFI 24a18 .cfa: x29 96 + x19: .cfa -8 + ^ x20: .cfa -16 + ^ x21: .cfa -24 + ^ x22: .cfa -32 + ^ x23: .cfa -40 + ^ x24: .cfa -48 + ^ x25: .cfa -56 + ^ x26: .cfa -64 + ^ x27: .cfa -72 + ^ x28: .cfa -80 + ^ .ra: .cfa -88 + ^ x29: .cfa -96 + ^
STACK CFI 24c94 .cfa: sp 144 +
STACK CFI 24cb0 .cfa: sp 0 +
STACK CFI 24cb4 .cfa: x29 96 +
STACK CFI INIT 24d0c 290 .cfa: sp 0 +
STACK CFI 24d10 .cfa: sp 128 +
STACK CFI 24d28 .cfa: x29 80 + x19: .cfa -8 + ^ x20: .cfa -16 + ^ x21: .cfa -24 + ^ x22: .cfa -32 + ^ x23: .cfa -40 + ^ x24: .cfa -48 + ^ x25: .cfa -56 + ^ x26: .cfa -64 + ^ .ra: .cfa -72 + ^ x29: .cfa -80 + ^
STACK CFI 24f7c .cfa: sp 128 +
STACK CFI 24f94 .cfa: sp 0 +
STACK CFI 24f98 .cfa: x29 80 +
STACK CFI INIT 24f9c ddc .cfa: sp 0 +
STACK CFI 24fa0 .cfa: sp 144 +
STACK CFI 24fbc .cfa: x29 96 + x19: .cfa -8 + ^ x20: .cfa -16 + ^ x21: .cfa -24 + ^ x22: .cfa -32 + ^ x23: .cfa -40 + ^ x24: .cfa -48 + ^ x25: .cfa -56 + ^ x26: .cfa -64 + ^ x27: .cfa -72 + ^ x28: .cfa -80 + ^ .ra: .cfa -88 + ^ x29: .cfa -96 + ^
STACK CFI 25c50 .cfa: sp 144 +
STACK CFI 25c6c .cfa: sp 0 +
STACK CFI 25c70 .cfa: x29 96 +
STACK CFI INIT 25d78 1d0 .cfa: sp 0 +
STACK CFI 25d7c .cfa: sp 80 +
STACK CFI 25d90 .cfa: x29 80 + x19: .cfa -8 + ^ x20: .cfa -16 + ^ x21: .cfa -24 + ^ x22: .cfa -32 + ^ x23: .cfa -40 + ^ x24: .cfa -48 + ^ x25: .cfa -64 + ^ .ra: .cfa -72 + ^ x29: .cfa -80 + ^
STACK CFI 25f30 .cfa: sp 80 +
STACK CFI 25f44 .cfa: sp 0 +
STACK CFI INIT 25f48 23c .cfa: sp 0 +
STACK CFI 25f4c .cfa: sp 112 +
STACK CFI 25f60 .cfa: x29 64 + x19: .cfa -8 + ^ x20: .cfa -16 + ^ x21: .cfa -24 + ^ x22: .cfa -32 + ^ x23: .cfa -40 + ^ x24: .cfa -48 + ^ .ra: .cfa -56 + ^ x29: .cfa -64 + ^
STACK CFI 2613c .cfa: sp 112 +
STACK CFI 26150 .cfa: sp 0 +
STACK CFI 26154 .cfa: x29 64 +
STACK CFI INIT 26184 30c .cfa: sp 0 +
STACK CFI 26188 .cfa: sp 80 +
STACK CFI 2619c .cfa: x29 64 + x19: .cfa -8 + ^ x20: .cfa -16 + ^ x21: .cfa -24 + ^ x22: .cfa -32 + ^ x23: .cfa -40 + ^ x24: .cfa -48 + ^ .ra: .cfa -56 + ^ x29: .cfa -64 + ^
STACK CFI 26318 .cfa: sp 80 +
STACK CFI 2632c .cfa: sp 0 +
STACK CFI 26330 .cfa: x29 64 +
STACK CFI INIT 26490 178 .cfa: sp 0 +
STACK CFI 26494 .cfa: sp 80 +
STACK CFI 264a8 .cfa: x29 64 + x19: .cfa -8 + ^ x20: .cfa -16 + ^ x21: .cfa -24 + ^ x22: .cfa -32 + ^ x23: .cfa -40 + ^ x24: .cfa -48 + ^ .ra: .cfa -56 + ^ x29: .cfa -64 + ^
STACK CFI 265ec .cfa: sp 80 +
STACK CFI 26600 .cfa: sp 0 +
STACK CFI 26604 .cfa: x29 64 +
STACK CFI INIT 26608 178 .cfa: sp 0 +
STACK CFI 2660c .cfa: sp 80 +
STACK CFI 26620 .cfa: x29 64 + x19: .cfa -8 + ^ x20: .cfa -16 + ^ x21: .cfa -24 + ^ x22: .cfa -32 + ^ x23: .cfa -40 + ^ x24: .cfa -48 + ^ .ra: .cfa -56 + ^ x29: .cfa -64 + ^
STACK CFI 26764 .cfa: sp 80 +
STACK CFI 26778 .cfa: sp 0 +
STACK CFI 2677c .cfa: x29 64 +
STACK CFI INIT 26780 240 .cfa: sp 0 +
STACK CFI 26784 .cfa: sp 96 +
STACK CFI 2679c .cfa: x29 96 + x19: .cfa -8 + ^ x20: .cfa -16 + ^ x21: .cfa -24 + ^ x22: .cfa -32 + ^ x23: .cfa -40 + ^ x24: .cfa -48 + ^ x25: .cfa -56 + ^ x26: .cfa -64 + ^ x27: .cfa -72 + ^ x28: .cfa -80 + ^ .ra: .cfa -88 + ^ x29: .cfa -96 + ^
STACK CFI 269a4 .cfa: sp 96 +
STACK CFI 269bc .cfa: sp 0 +
STACK CFI INIT 27634 154 .cfa: sp 0 +
STACK CFI 27638 .cfa: sp 96 +
STACK CFI 2764c .cfa: x29 64 + x19: .cfa -8 + ^ x20: .cfa -16 + ^ x21: .cfa -24 + ^ x22: .cfa -32 + ^ x23: .cfa -48 + ^ .ra: .cfa -56 + ^ x29: .cfa -64 + ^
STACK CFI 2772c .cfa: sp 96 +
STACK CFI 27740 .cfa: sp 0 +
STACK CFI 27744 .cfa: x29 64 +
STACK CFI INIT 279f4 44 .cfa: sp 0 +
STACK CFI 279f8 .cfa: sp 32 +
STACK CFI 27a00 .cfa: x29 32 + x19: .cfa -16 + ^ .ra: .cfa -24 + ^ x29: .cfa -32 + ^
STACK CFI 27a1c .cfa: sp 32 +
STACK CFI 27a24 .cfa: sp 0 +
STACK CFI 27a28 .cfa: x29 32 +
STACK CFI 27a2c .cfa: sp 32 +
STACK CFI 27a34 .cfa: sp 0 +
STACK CFI INIT 27a38 1d0 .cfa: sp 0 +
STACK CFI 27a3c .cfa: sp 64 +
STACK CFI 27a4c .cfa: x29 64 + x19: .cfa -8 + ^ x20: .cfa -16 + ^ x21: .cfa -24 + ^ x22: .cfa -32 + ^ x23: .cfa -40 + ^ x24: .cfa -48 + ^ .ra: .cfa -56 + ^ x29: .cfa -64 + ^
STACK CFI 27b0c .cfa: sp 64 +
STACK CFI 27b1c .cfa: sp 0 +
STACK CFI 27b20 .cfa: x29 64 +
STACK CFI INIT 27c08 17c .cfa: sp 0 +
STACK CFI INIT 27d84 ac .cfa: sp 0 +
STACK CFI 27d88 .cfa: sp 64 +
STACK CFI 27d98 .cfa: x29 64 + x19: .cfa -8 + ^ x20: .cfa -16 + ^ x21: .cfa -24 + ^ x22: .cfa -32 + ^ x23: .cfa -48 + ^ .ra: .cfa -56 + ^ x29: .cfa -64 + ^
STACK CFI 27e14 .cfa: sp 64 +
STACK CFI 27e24 .cfa: sp 0 +
STACK CFI 27e28 .cfa: x29 64 +
STACK CFI INIT 27e30 110 .cfa: sp 0 +
STACK CFI 27e34 .cfa: sp 64 +
STACK CFI 27e44 .cfa: x29 64 + x19: .cfa -8 + ^ x20: .cfa -16 + ^ x21: .cfa -24 + ^ x22: .cfa -32 + ^ x23: .cfa -40 + ^ x24: .cfa -48 + ^ .ra: .cfa -56 + ^ x29: .cfa -64 + ^
STACK CFI 27f24 .cfa: sp 64 +
STACK CFI 27f34 .cfa: sp 0 +
STACK CFI 27f38 .cfa: x29 64 +
STACK CFI INIT 282f8 a0 .cfa: sp 0 +
STACK CFI 282fc .cfa: sp 48 +
STACK CFI 28308 .cfa: x29 48 + x19: .cfa -8 + ^ x20: .cfa -16 + ^ x21: .cfa -24 + ^ x22: .cfa -32 + ^ .ra: .cfa -40 + ^ x29: .cfa -48 + ^
STACK CFI 28374 .cfa: sp 48 +
STACK CFI 28380 .cfa: sp 0 +
STACK CFI 28384 .cfa: sp 48 +
STACK CFI 28390 .cfa: sp 0 +
STACK CFI 28394 .cfa: x29 48 +
STACK CFI INIT 2904c 158 .cfa: sp 0 +
STACK CFI 29050 .cfa: sp 96 +
STACK CFI 29064 .cfa: x29 64 + x19: .cfa -8 + ^ x20: .cfa -16 + ^ x21: .cfa -24 + ^ x22: .cfa -32 + ^ x23: .cfa -48 + ^ .ra: .cfa -56 + ^ x29: .cfa -64 + ^
STACK CFI 29148 .cfa: sp 96 +
STACK CFI 2915c .cfa: sp 0 +
STACK CFI 29160 .cfa: x29 64 +
STACK CFI INIT 291a4 190 .cfa: sp 0 +
STACK CFI INIT 29e30 1dc .cfa: sp 0 +
STACK CFI 29e34 .cfa: sp 80 +
STACK CFI 29e48 .cfa: x29 80 + x19: .cfa -8 + ^ x20: .cfa -16 + ^ x21: .cfa -24 + ^ x22: .cfa -32 + ^ x23: .cfa -40 + ^ x24: .cfa -48 + ^ x25: .cfa -64 + ^ .ra: .cfa -72 + ^ x29: .cfa -80 + ^
STACK CFI 29ff4 .cfa: sp 80 +
STACK CFI 2a008 .cfa: sp 0 +
STACK CFI INIT 2b43c 124 .cfa: sp 0 +
STACK CFI 2b46c .cfa: sp 32 +
STACK CFI 2b474 .cfa: x29 32 + x19: .cfa -8 + ^ x20: .cfa -16 + ^ .ra: .cfa -24 + ^ x29: .cfa -32 + ^
STACK CFI 2b554 .cfa: sp 32 +
STACK CFI 2b55c .cfa: sp 0 +
STACK CFI INIT 2bcbc 320 .cfa: sp 0 +
STACK CFI 2bcc0 .cfa: sp 64 +
STACK CFI 2bcd0 .cfa: x29 64 + x19: .cfa -8 + ^ x20: .cfa -16 + ^ x21: .cfa -24 + ^ x22: .cfa -32 + ^ x23: .cfa -40 + ^ x24: .cfa -48 + ^ .ra: .cfa -56 + ^ x29: .cfa -64 + ^
STACK CFI 2bd4c .cfa: sp 64 +
STACK CFI 2bd5c .cfa: sp 0 +
STACK CFI 2bd60 .cfa: x29 64 +
STACK CFI 2bf34 .cfa: sp 64 +
STACK CFI 2bf44 .cfa: sp 0 +
STACK CFI 2bf48 .cfa: x29 64 +
STACK CFI 2bf58 .cfa: sp 64 +
STACK CFI 2bf68 .cfa: sp 0 +
STACK CFI 2bf6c .cfa: x29 64 +
STACK CFI INIT 2bfdc a0 .cfa: sp 0 +
STACK CFI 2bfe0 .cfa: sp 48 +
STACK CFI 2bfec .cfa: x29 48 + x19: .cfa -8 + ^ x20: .cfa -16 + ^ x21: .cfa -24 + ^ x22: .cfa -32 + ^ .ra: .cfa -40 + ^ x29: .cfa -48 + ^
STACK CFI 2c058 .cfa: sp 48 +
STACK CFI 2c064 .cfa: sp 0 +
STACK CFI 2c068 .cfa: sp 48 +
STACK CFI 2c074 .cfa: sp 0 +
STACK CFI 2c078 .cfa: x29 48 +
STACK CFI INIT 2cf2c 160 .cfa: sp 0 +
STACK CFI 2cf30 .cfa: sp 64 +
STACK CFI 2cf40 .cfa: x29 64 + x19: .cfa -8 + ^ x20: .cfa -16 + ^ x21: .cfa -24 + ^ x22: .cfa -32 + ^ x23: .cfa -48 + ^ .ra: .cfa -56 + ^ x29: .cfa -64 + ^
STACK CFI 2d038 .cfa: sp 64 +
STACK CFI 2d048 .cfa: sp 0 +
STACK CFI 2d04c .cfa: x29 64 +
STACK CFI INIT 2d08c 214 .cfa: sp 0 +
STACK CFI 2d090 .cfa: sp 128 +
STACK CFI 2d0ac .cfa: x29 96 + x19: .cfa -8 + ^ x20: .cfa -16 + ^ x21: .cfa -24 + ^ x22: .cfa -32 + ^ x23: .cfa -40 + ^ x24: .cfa -48 + ^ x25: .cfa -56 + ^ x26: .cfa -64 + ^ x27: .cfa -80 + ^ .ra: .cfa -88 + ^ x29: .cfa -96 + ^
STACK CFI 2d228 .cfa: sp 128 +
STACK CFI 2d244 .cfa: sp 0 +
STACK CFI 2d248 .cfa: x29 96 +
STACK CFI INIT 2ef3c 290 .cfa: sp 0 +
STACK CFI 2ef40 .cfa: sp 16 +
STACK CFI 2ef44 .cfa: x29 16 + .ra: .cfa -8 + ^ x29: .cfa -16 + ^
STACK CFI 2efd0 .cfa: sp 16 +
STACK CFI 2efd4 .cfa: sp 0 +
STACK CFI 2efd8 .cfa: x29 16 +
STACK CFI 2f028 .cfa: sp 16 +
STACK CFI 2f02c .cfa: sp 0 +
STACK CFI 2f030 .cfa: x29 16 +
STACK CFI 2f194 .cfa: sp 16 +
STACK CFI 2f198 .cfa: sp 0 +
STACK CFI 2f19c .cfa: x29 16 +
STACK CFI INIT 2f1cc 158 .cfa: sp 0 +
STACK CFI 2f1d0 .cfa: sp 112 +
STACK CFI 2f1ec .cfa: x29 96 + x19: .cfa -8 + ^ x20: .cfa -16 + ^ x21: .cfa -24 + ^ x22: .cfa -32 + ^ x23: .cfa -40 + ^ x24: .cfa -48 + ^ x25: .cfa -56 + ^ x26: .cfa -64 + ^ x27: .cfa -72 + ^ x28: .cfa -80 + ^ .ra: .cfa -88 + ^ x29: .cfa -96 + ^
STACK CFI 2f2d4 .cfa: sp 112 +
STACK CFI 2f2d8 .cfa: x29 96 +
STACK CFI 2f2e0 .cfa: sp 112 +
STACK CFI 2f2fc .cfa: sp 0 +
STACK CFI 2f300 .cfa: x29 96 +
STACK CFI 2f320 .cfa: sp 112 +
STACK CFI INIT 2f324 e54 .cfa: sp 0 +
STACK CFI 2f328 .cfa: sp 192 +
STACK CFI 2f344 .cfa: x29 96 + x19: .cfa -8 + ^ x20: .cfa -16 + ^ x21: .cfa -24 + ^ x22: .cfa -32 + ^ x23: .cfa -40 + ^ x24: .cfa -48 + ^ x25: .cfa -56 + ^ x26: .cfa -64 + ^ x27: .cfa -72 + ^ x28: .cfa -80 + ^ .ra: .cfa -88 + ^ x29: .cfa -96 + ^
STACK CFI 30060 .cfa: sp 192 +
STACK CFI 3007c .cfa: sp 0 +
STACK CFI 30080 .cfa: x29 96 +
STACK CFI INIT 30178 1068 .cfa: sp 0 +
STACK CFI 3017c .cfa: sp 288 +
STACK CFI 30198 .cfa: x29 96 + x19: .cfa -8 + ^ x20: .cfa -16 + ^ x21: .cfa -24 + ^ x22: .cfa -32 + ^ x23: .cfa -40 + ^ x24: .cfa -48 + ^ x25: .cfa -56 + ^ x26: .cfa -64 + ^ x27: .cfa -72 + ^ x28: .cfa -80 + ^ .ra: .cfa -88 + ^ x29: .cfa -96 + ^
STACK CFI 30f28 .cfa: sp 288 +
STACK CFI 30f44 .cfa: sp 0 +
STACK CFI 30f48 .cfa: x29 96 +
STACK CFI INIT 311e0 520 .cfa: sp 0 +
STACK CFI 311e4 .cfa: sp 144 +
STACK CFI 31200 .cfa: x29 96 + x19: .cfa -8 + ^ x20: .cfa -16 + ^ x21: .cfa -24 + ^ x22: .cfa -32 + ^ x23: .cfa -40 + ^ x24: .cfa -48 + ^ x25: .cfa -56 + ^ x26: .cfa -64 + ^ x27: .cfa -72 + ^ x28: .cfa -80 + ^ .ra: .cfa -88 + ^ x29: .cfa -96 + ^
STACK CFI 316dc .cfa: sp 144 +
STACK CFI 316f8 .cfa: sp 0 +
STACK CFI 316fc .cfa: x29 96 +
STACK CFI INIT 320a0 1374 .cfa: sp 0 +
STACK CFI 320a4 .cfa: sp 224 +
STACK CFI 320c0 .cfa: x29 96 + x19: .cfa -8 + ^ x20: .cfa -16 + ^ x21: .cfa -24 + ^ x22: .cfa -32 + ^ x23: .cfa -40 + ^ x24: .cfa -48 + ^ x25: .cfa -56 + ^ x26: .cfa -64 + ^ x27: .cfa -72 + ^ x28: .cfa -80 + ^ .ra: .cfa -88 + ^ x29: .cfa -96 + ^
STACK CFI 333f0 .cfa: sp 224 +
STACK CFI 3340c .cfa: sp 0 +
STACK CFI 33410 .cfa: x29 96 +
STACK CFI INIT 33414 1b8 .cfa: sp 0 +
STACK CFI INIT 1ac80 bd4 .cfa: sp 0 +
STACK CFI 1ac84 .cfa: sp 240 +
STACK CFI 1aca0 .cfa: x29 96 + x19: .cfa -8 + ^ x20: .cfa -16 + ^ x21: .cfa -24 + ^ x22: .cfa -32 + ^ x23: .cfa -40 + ^ x24: .cfa -48 + ^ x25: .cfa -56 + ^ x26: .cfa -64 + ^ x27: .cfa -72 + ^ x28: .cfa -80 + ^ .ra: .cfa -88 + ^ x29: .cfa -96 + ^
STACK CFI 1b07c .cfa: sp 240 +
STACK CFI 1b098 .cfa: sp 0 +
STACK CFI 1b09c .cfa: x29 96 +
STACK CFI 1b6fc .cfa: sp 240 +
STACK CFI 1b718 .cfa: sp 0 +
STACK CFI 1b71c .cfa: x29 96 +
STACK CFI INIT 1b86c 5d8 .cfa: sp 0 +
STACK CFI 1b870 .cfa: sp 256 +
STACK CFI 1b888 .cfa: x29 80 + x19: .cfa -8 + ^ x20: .cfa -16 + ^ x21: .cfa -24 + ^ x22: .cfa -32 + ^ x23: .cfa -40 + ^ x24: .cfa -48 + ^ x25: .cfa -56 + ^ x26: .cfa -64 + ^ .ra: .cfa -72 + ^ x29: .cfa -80 + ^
STACK CFI 1bc74 .cfa: sp 256 +
STACK CFI 1bc8c .cfa: sp 0 +
STACK CFI 1bc90 .cfa: x29 80 +
STACK CFI INIT 1be94 74 .cfa: sp 0 +
STACK CFI 1be98 .cfa: sp 48 +
STACK CFI 1bea4 .cfa: x29 32 + x19: .cfa -8 + ^ x20: .cfa -16 + ^ .ra: .cfa -24 + ^ x29: .cfa -32 + ^
STACK CFI 1bef0 .cfa: sp 48 +
STACK CFI 1befc .cfa: sp 0 +
STACK CFI 1bf00 .cfa: x29 32 +
STACK CFI INIT 1bf98 154 .cfa: sp 0 +
STACK CFI 1bf9c .cfa: sp 384 +
STACK CFI 1bfb0 .cfa: x29 64 + x19: .cfa -8 + ^ x20: .cfa -16 + ^ x21: .cfa -24 + ^ x22: .cfa -32 + ^ x23: .cfa -40 + ^ x28: .cfa -48 + ^ .ra: .cfa -56 + ^ x29: .cfa -64 + ^
STACK CFI 1c094 .cfa: sp 384 +
STACK CFI 1c0a8 .cfa: sp 0 +
STACK CFI 1c0ac .cfa: x29 64 +
STACK CFI INIT 1c120 12c .cfa: sp 0 +
STACK CFI 1c124 .cfa: sp 80 +
STACK CFI 1c138 .cfa: x29 80 + x19: .cfa -8 + ^ x20: .cfa -16 + ^ x21: .cfa -24 + ^ x22: .cfa -32 + ^ x23: .cfa -40 + ^ x24: .cfa -48 + ^ x25: .cfa -56 + ^ x26: .cfa -64 + ^ .ra: .cfa -72 + ^ x29: .cfa -80 + ^
STACK CFI 1c200 .cfa: sp 80 +
STACK CFI 1c214 .cfa: sp 0 +
STACK CFI 1c218 .cfa: x29 80 +
STACK CFI INIT 1c2f0 1a4 .cfa: sp 0 +
STACK CFI 1c2f4 .cfa: sp 112 +
STACK CFI 1c30c .cfa: x29 80 + x19: .cfa -8 + ^ x20: .cfa -16 + ^ x21: .cfa -24 + ^ x22: .cfa -32 + ^ x23: .cfa -40 + ^ x24: .cfa -48 + ^ x25: .cfa -56 + ^ x26: .cfa -64 + ^ .ra: .cfa -72 + ^ x29: .cfa -80 + ^
STACK CFI 1c3fc .cfa: sp 112 +
STACK CFI 1c414 .cfa: sp 0 +
STACK CFI 1c418 .cfa: x29 80 +
STACK CFI INIT 1c494 1dc .cfa: sp 0 +
STACK CFI 1c498 .cfa: sp 128 +
STACK CFI 1c4b4 .cfa: x29 96 + x19: .cfa -8 + ^ x20: .cfa -16 + ^ x21: .cfa -24 + ^ x22: .cfa -32 + ^ x23: .cfa -40 + ^ x24: .cfa -48 + ^ x25: .cfa -56 + ^ x26: .cfa -64 + ^ x27: .cfa -80 + ^ .ra: .cfa -88 + ^ x29: .cfa -96 + ^
STACK CFI 1c620 .cfa: sp 128 +
STACK CFI 1c63c .cfa: sp 0 +
STACK CFI 1c640 .cfa: x29 96 +
STACK CFI INIT 1c684 50 .cfa: sp 0 +
STACK CFI 1c688 .cfa: sp 32 +
STACK CFI 1c690 .cfa: x29 32 + x19: .cfa -8 + ^ x20: .cfa -16 + ^ .ra: .cfa -24 + ^ x29: .cfa -32 + ^
STACK CFI INIT 1c738 178 .cfa: sp 0 +
STACK CFI 1c73c .cfa: sp 80 +
STACK CFI 1c750 .cfa: x29 80 + x19: .cfa -8 + ^ x20: .cfa -16 + ^ x21: .cfa -24 + ^ x22: .cfa -32 + ^ x23: .cfa -40 + ^ x24: .cfa -48 + ^ x25: .cfa -64 + ^ .ra: .cfa -72 + ^ x29: .cfa -80 + ^
STACK CFI 1c87c .cfa: sp 80 +
STACK CFI 1c890 .cfa: sp 0 +
STACK CFI 1c894 .cfa: x29 80 +
STACK CFI INIT 1cbf0 1c0 .cfa: sp 0 +
STACK CFI 1cbf4 .cfa: sp 80 +
STACK CFI 1cc04 .cfa: x29 48 + x19: .cfa -8 + ^ x20: .cfa -16 + ^ x21: .cfa -24 + ^ x22: .cfa -32 + ^ .ra: .cfa -40 + ^ x29: .cfa -48 + ^
STACK CFI 1cd6c .cfa: sp 80 +
STACK CFI 1cd7c .cfa: sp 0 +
STACK CFI 1cd80 .cfa: x29 48 +
STACK CFI INIT 1ce64 640 .cfa: sp 0 +
STACK CFI 1ce68 .cfa: sp 224 +
STACK CFI 1ce84 .cfa: x29 96 + x19: .cfa -8 + ^ x20: .cfa -16 + ^ x21: .cfa -24 + ^ x22: .cfa -32 + ^ x23: .cfa -40 + ^ x24: .cfa -48 + ^ x25: .cfa -56 + ^ x26: .cfa -64 + ^ x27: .cfa -72 + ^ x28: .cfa -80 + ^ .ra: .cfa -88 + ^ x29: .cfa -96 + ^
STACK CFI 1d334 .cfa: sp 224 +
STACK CFI 1d350 .cfa: sp 0 +
STACK CFI 1d354 .cfa: x29 96 +
STACK CFI INIT 1d4dc 50 .cfa: sp 0 +
STACK CFI 1d4e0 .cfa: sp 32 +
STACK CFI 1d4e8 .cfa: x29 32 + x19: .cfa -8 + ^ x20: .cfa -16 + ^ .ra: .cfa -24 + ^ x29: .cfa -32 + ^
STACK CFI INIT 1d918 a8 .cfa: sp 0 +
STACK CFI 1d91c .cfa: sp 32 +
STACK CFI 1d924 .cfa: x29 32 + x19: .cfa -16 + ^ .ra: .cfa -24 + ^ x29: .cfa -32 + ^
STACK CFI 1d958 .cfa: sp 32 +
STACK CFI 1d960 .cfa: sp 0 +
STACK CFI 1d964 .cfa: x29 32 +
STACK CFI 1d968 .cfa: sp 32 +
STACK CFI 1d970 .cfa: sp 0 +
STACK CFI 1d974 .cfa: x29 32 +
STACK CFI INIT 1da74 378 .cfa: sp 0 +
STACK CFI 1da78 .cfa: sp 96 +
STACK CFI 1da88 .cfa: x29 48 + x19: .cfa -8 + ^ x20: .cfa -16 + ^ x21: .cfa -24 + ^ x22: .cfa -32 + ^ .ra: .cfa -40 + ^ x29: .cfa -48 + ^
STACK CFI 1dda0 .cfa: sp 96 +
STACK CFI 1ddb0 .cfa: sp 0 +
STACK CFI 1ddb4 .cfa: x29 48 +
STACK CFI INIT 1ddec 6c .cfa: sp 0 +
STACK CFI 1ddf0 .cfa: sp 32 +
STACK CFI 1ddf8 .cfa: x29 32 + x19: .cfa -16 + ^ .ra: .cfa -24 + ^ x29: .cfa -32 + ^
STACK CFI 1de48 .cfa: sp 32 +
STACK CFI 1de50 .cfa: sp 0 +
STACK CFI 1de54 .cfa: x29 32 +
STACK CFI INIT 1de58 74 .cfa: sp 0 +
STACK CFI 1de5c .cfa: sp 32 +
STACK CFI 1de64 .cfa: x29 32 + x19: .cfa -16 + ^ .ra: .cfa -24 + ^ x29: .cfa -32 + ^
STACK CFI 1debc .cfa: sp 32 +
STACK CFI 1dec4 .cfa: sp 0 +
STACK CFI 1dec8 .cfa: x29 32 +
STACK CFI INIT 1df2c 3c8 .cfa: sp 0 +
STACK CFI 1df30 .cfa: sp 112 +
STACK CFI 1df44 .cfa: x29 40 + x19: .cfa -8 + ^ x20: .cfa -16 + ^ x21: .cfa -24 + ^ .ra: .cfa -32 + ^ x29: .cfa -40 + ^ v8: .cfa -48 + ^
STACK CFI 1e294 .cfa: sp 112 +
STACK CFI 1e2a8 .cfa: sp 0 +
STACK CFI 1e2ac .cfa: x29 40 +
STACK CFI INIT 1e314 6c .cfa: sp 0 +
STACK CFI 1e318 .cfa: sp 32 +
STACK CFI 1e320 .cfa: x29 32 + x19: .cfa -16 + ^ .ra: .cfa -24 + ^ x29: .cfa -32 + ^
STACK CFI 1e370 .cfa: sp 32 +
STACK CFI 1e378 .cfa: sp 0 +
STACK CFI 1e37c .cfa: x29 32 +
STACK CFI INIT 1e380 74 .cfa: sp 0 +
STACK CFI 1e384 .cfa: sp 32 +
STACK CFI 1e38c .cfa: x29 32 + x19: .cfa -16 + ^ .ra: .cfa -24 + ^ x29: .cfa -32 + ^
STACK CFI 1e3e4 .cfa: sp 32 +
STACK CFI 1e3ec .cfa: sp 0 +
STACK CFI 1e3f0 .cfa: x29 32 +
STACK CFI INIT 1e430 148 .cfa: sp 0 +
STACK CFI 1e434 .cfa: sp 96 +
STACK CFI 1e444 .cfa: x29 48 + x19: .cfa -8 + ^ x20: .cfa -16 + ^ x21: .cfa -32 + ^ .ra: .cfa -40 + ^ x29: .cfa -48 + ^
STACK CFI 1e52c .cfa: sp 96 +
STACK CFI 1e53c .cfa: sp 0 +
STACK CFI 1e540 .cfa: x29 48 +
STACK CFI INIT 1e578 6c .cfa: sp 0 +
STACK CFI 1e57c .cfa: sp 32 +
STACK CFI 1e584 .cfa: x29 32 + x19: .cfa -16 + ^ .ra: .cfa -24 + ^ x29: .cfa -32 + ^
STACK CFI 1e5d4 .cfa: sp 32 +
STACK CFI 1e5dc .cfa: sp 0 +
STACK CFI 1e5e0 .cfa: x29 32 +
STACK CFI INIT 1e794 41c .cfa: sp 0 +
STACK CFI 1e798 .cfa: sp 96 +
STACK CFI 1e7b0 .cfa: x29 96 + x19: .cfa -8 + ^ x20: .cfa -16 + ^ x21: .cfa -24 + ^ x22: .cfa -32 + ^ x23: .cfa -40 + ^ x24: .cfa -48 + ^ x25: .cfa -56 + ^ x26: .cfa -64 + ^ x27: .cfa -72 + ^ x28: .cfa -80 + ^ .ra: .cfa -88 + ^ x29: .cfa -96 + ^
STACK CFI 1eb20 .cfa: sp 96 +
STACK CFI 1eb38 .cfa: sp 0 +
STACK CFI 1eb3c .cfa: x29 96 +
STACK CFI INIT 1ebb0 cc .cfa: sp 0 +
STACK CFI 1ebb4 .cfa: sp 64 +
STACK CFI 1ebc4 .cfa: x29 48 + x19: .cfa -8 + ^ x20: .cfa -16 + ^ x21: .cfa -32 + ^ .ra: .cfa -40 + ^ x29: .cfa -48 + ^
STACK CFI 1ec40 .cfa: sp 64 +
STACK CFI 1ec50 .cfa: sp 0 +
STACK CFI 1ec54 .cfa: x29 48 +
STACK CFI INIT 1ec7c c0 .cfa: sp 0 +
STACK CFI 1ec80 .cfa: sp 64 +
STACK CFI 1ec90 .cfa: x29 48 + x19: .cfa -8 + ^ x20: .cfa -16 + ^ x21: .cfa -32 + ^ .ra: .cfa -40 + ^ x29: .cfa -48 + ^
STACK CFI 1ed00 .cfa: sp 64 +
STACK CFI 1ed10 .cfa: sp 0 +
STACK CFI 1ed14 .cfa: x29 48 +
STACK CFI INIT 1ed78 2bc .cfa: sp 0 +
STACK CFI 1ed7c .cfa: sp 32 +
STACK CFI 1ed84 .cfa: x29 32 + x19: .cfa -16 + ^ .ra: .cfa -24 + ^ x29: .cfa -32 + ^
STACK CFI 1eeb8 .cfa: sp 32 +
STACK CFI 1eec0 .cfa: sp 0 +
STACK CFI 1eec4 .cfa: x29 32 +
STACK CFI 1efd0 .cfa: sp 32 +
STACK CFI 1efd8 .cfa: sp 0 +
STACK CFI 1efdc .cfa: x29 32 +
STACK CFI INIT 1f034 134 .cfa: sp 0 +
STACK CFI 1f038 .cfa: sp 80 +
STACK CFI 1f044 .cfa: x29 32 + x19: .cfa -8 + ^ x20: .cfa -16 + ^ .ra: .cfa -24 + ^ x29: .cfa -32 + ^
STACK CFI 1f074 .cfa: sp 80 +
STACK CFI 1f080 .cfa: sp 0 +
STACK CFI 1f084 .cfa: x29 32 +
STACK CFI INIT 1f168 78 .cfa: sp 0 +
STACK CFI 1f16c .cfa: sp 32 +
STACK CFI 1f174 .cfa: x29 32 + x19: .cfa -8 + ^ x20: .cfa -16 + ^ .ra: .cfa -24 + ^ x29: .cfa -32 + ^
STACK CFI 1f180 .cfa: sp 32 +
STACK CFI 1f188 .cfa: sp 0 +
STACK CFI 1f18c .cfa: x29 32 +
STACK CFI INIT 1f1e0 74 .cfa: sp 0 +
STACK CFI 1f1e4 .cfa: sp 48 +
STACK CFI 1f1f0 .cfa: x29 32 + x19: .cfa -8 + ^ x20: .cfa -16 + ^ .ra: .cfa -24 + ^ x29: .cfa -32 + ^
STACK CFI 1f23c .cfa: sp 48 +
STACK CFI 1f248 .cfa: sp 0 +
STACK CFI 1f24c .cfa: x29 32 +
STACK CFI INIT 1f354 630 .cfa: sp 0 +
STACK CFI 1f358 .cfa: sp 112 +
STACK CFI 1f368 .cfa: x29 48 + x19: .cfa -8 + ^ x20: .cfa -16 + ^ x21: .cfa -32 + ^ .ra: .cfa -40 + ^ x29: .cfa -48 + ^
STACK CFI 1f4f8 .cfa: sp 112 +
STACK CFI 1f508 .cfa: sp 0 +
STACK CFI 1f50c .cfa: x29 48 +
STACK CFI INIT 1f984 254 .cfa: sp 0 +
STACK CFI 1f988 .cfa: sp 128 +
STACK CFI 1f99c .cfa: x29 64 + x19: .cfa -8 + ^ x20: .cfa -16 + ^ x21: .cfa -24 + ^ x22: .cfa -32 + ^ x23: .cfa -48 + ^ .ra: .cfa -56 + ^ x29: .cfa -64 + ^
STACK CFI 1fa6c .cfa: sp 128 +
STACK CFI 1fa80 .cfa: sp 0 +
STACK CFI 1fa84 .cfa: x29 64 +
STACK CFI INIT 1fcd4 a4 .cfa: sp 0 +
STACK CFI 1fcd8 .cfa: sp 48 +
STACK CFI 1fce4 .cfa: x29 48 + x19: .cfa -8 + ^ x20: .cfa -16 + ^ x21: .cfa -32 + ^ .ra: .cfa -40 + ^ x29: .cfa -48 + ^
STACK CFI 1fd50 .cfa: sp 48 +
STACK CFI 1fd5c .cfa: sp 0 +
STACK CFI 1fd60 .cfa: x29 48 +
STACK CFI INIT 1fd78 178 .cfa: sp 0 +
STACK CFI 1fd7c .cfa: sp 128 +
STACK CFI 1fd8c .cfa: x29 48 + x19: .cfa -8 + ^ x20: .cfa -16 + ^ x21: .cfa -24 + ^ x22: .cfa -32 + ^ .ra: .cfa -40 + ^ x29: .cfa -48 + ^
STACK CFI 1fde8 .cfa: sp 128 +
STACK CFI 1fdf8 .cfa: sp 0 +
STACK CFI 1fdfc .cfa: x29 48 +
STACK CFI INIT 1fef0 178 .cfa: sp 0 +
STACK CFI 1fef4 .cfa: sp 128 +
STACK CFI 1ff04 .cfa: x29 48 + x19: .cfa -8 + ^ x20: .cfa -16 + ^ x21: .cfa -24 + ^ x22: .cfa -32 + ^ .ra: .cfa -40 + ^ x29: .cfa -48 + ^
STACK CFI 1ff60 .cfa: sp 128 +
STACK CFI 1ff70 .cfa: sp 0 +
STACK CFI 1ff74 .cfa: x29 48 +
STACK CFI INIT 20068 a4 .cfa: sp 0 +
STACK CFI 2006c .cfa: sp 48 +
STACK CFI 20078 .cfa: x29 48 + x19: .cfa -8 + ^ x20: .cfa -16 + ^ x21: .cfa -32 + ^ .ra: .cfa -40 + ^ x29: .cfa -48 + ^
STACK CFI 200e4 .cfa: sp 48 +
STACK CFI 200f0 .cfa: sp 0 +
STACK CFI 200f4 .cfa: x29 48 +
STACK CFI INIT 2010c 1c8 .cfa: sp 0 +
STACK CFI 20110 .cfa: sp 192 +
STACK CFI 2012c .cfa: x29 64 + x19: .cfa -8 + ^ x20: .cfa -16 + ^ x21: .cfa -24 + ^ x22: .cfa -32 + ^ x23: .cfa -40 + ^ x24: .cfa -48 + ^ .ra: .cfa -56 + ^ x29: .cfa -64 + ^ v8: .cfa -72 + ^ v9: .cfa -80 + ^ v10: .cfa -96 + ^
STACK CFI 201c0 .cfa: sp 192 +
STACK CFI 201dc .cfa: sp 0 +
STACK CFI 201e0 .cfa: x29 64 +
STACK CFI INIT 202d4 17c .cfa: sp 0 +
STACK CFI 202d8 .cfa: sp 80 +
STACK CFI 202e8 .cfa: x29 48 + x19: .cfa -8 + ^ x20: .cfa -16 + ^ x21: .cfa -24 + ^ x22: .cfa -32 + ^ .ra: .cfa -40 + ^ x29: .cfa -48 + ^
STACK CFI 203f0 .cfa: sp 80 +
STACK CFI 20400 .cfa: sp 0 +
STACK CFI 20404 .cfa: x29 48 +
STACK CFI INIT 20454 24c .cfa: sp 0 +
STACK CFI 20458 .cfa: sp 128 +
STACK CFI 2046c .cfa: x29 64 + x19: .cfa -8 + ^ x20: .cfa -16 + ^ x21: .cfa -24 + ^ x22: .cfa -32 + ^ x23: .cfa -48 + ^ .ra: .cfa -56 + ^ x29: .cfa -64 + ^
STACK CFI 20534 .cfa: sp 128 +
STACK CFI 20548 .cfa: sp 0 +
STACK CFI 2054c .cfa: x29 64 +
STACK CFI INIT 206a0 25c .cfa: sp 0 +
STACK CFI 206a4 .cfa: sp 128 +
STACK CFI 206b8 .cfa: x29 64 + x19: .cfa -8 + ^ x20: .cfa -16 + ^ x21: .cfa -24 + ^ x22: .cfa -32 + ^ x23: .cfa -48 + ^ .ra: .cfa -56 + ^ x29: .cfa -64 + ^
STACK CFI 20790 .cfa: sp 128 +
STACK CFI 207a4 .cfa: sp 0 +
STACK CFI 207a8 .cfa: x29 64 +
STACK CFI INIT 208fc 2bc .cfa: sp 0 +
STACK CFI 20900 .cfa: sp 128 +
STACK CFI 20914 .cfa: x29 64 + x19: .cfa -8 + ^ x20: .cfa -16 + ^ x21: .cfa -24 + ^ x22: .cfa -32 + ^ x23: .cfa -40 + ^ x24: .cfa -48 + ^ .ra: .cfa -56 + ^ x29: .cfa -64 + ^
STACK CFI 20a4c .cfa: sp 128 +
STACK CFI 20a60 .cfa: sp 0 +
STACK CFI 20a64 .cfa: x29 64 +
STACK CFI INIT 20bb8 22c .cfa: sp 0 +
STACK CFI 20bbc .cfa: sp 128 +
STACK CFI 20bd0 .cfa: x29 64 + x19: .cfa -8 + ^ x20: .cfa -16 + ^ x21: .cfa -24 + ^ x22: .cfa -32 + ^ x23: .cfa -48 + ^ .ra: .cfa -56 + ^ x29: .cfa -64 + ^
STACK CFI 20c78 .cfa: sp 128 +
STACK CFI 20c8c .cfa: sp 0 +
STACK CFI 20c90 .cfa: x29 64 +
STACK CFI INIT 20de4 22c .cfa: sp 0 +
STACK CFI 20de8 .cfa: sp 128 +
STACK CFI 20dfc .cfa: x29 64 + x19: .cfa -8 + ^ x20: .cfa -16 + ^ x21: .cfa -24 + ^ x22: .cfa -32 + ^ x23: .cfa -48 + ^ .ra: .cfa -56 + ^ x29: .cfa -64 + ^
STACK CFI 20ea4 .cfa: sp 128 +
STACK CFI 20eb8 .cfa: sp 0 +
STACK CFI 20ebc .cfa: x29 64 +
STACK CFI INIT 21010 154 .cfa: sp 0 +
STACK CFI 21014 .cfa: sp 384 +
STACK CFI 21028 .cfa: x29 64 + x19: .cfa -8 + ^ x20: .cfa -16 + ^ x21: .cfa -24 + ^ x22: .cfa -32 + ^ x23: .cfa -40 + ^ x28: .cfa -48 + ^ .ra: .cfa -56 + ^ x29: .cfa -64 + ^
STACK CFI 2110c .cfa: sp 384 +
STACK CFI 21120 .cfa: sp 0 +
STACK CFI 21124 .cfa: x29 64 +
STACK CFI INIT 21164 168 .cfa: sp 0 +
STACK CFI 21168 .cfa: sp 384 +
STACK CFI 2117c .cfa: x29 64 + x19: .cfa -8 + ^ x20: .cfa -16 + ^ x21: .cfa -24 + ^ x22: .cfa -32 + ^ x23: .cfa -40 + ^ x28: .cfa -48 + ^ .ra: .cfa -56 + ^ x29: .cfa -64 + ^
STACK CFI 21274 .cfa: sp 384 +
STACK CFI 21288 .cfa: sp 0 +
STACK CFI 2128c .cfa: x29 64 +
STACK CFI INIT 212e4 4e0 .cfa: sp 0 +
STACK CFI 212e8 .cfa: sp 64 +
STACK CFI 212f8 .cfa: x29 64 + x19: .cfa -8 + ^ x20: .cfa -16 + ^ x21: .cfa -24 + ^ x22: .cfa -32 + ^ x23: .cfa -40 + ^ x24: .cfa -48 + ^ .ra: .cfa -56 + ^ x29: .cfa -64 + ^
STACK CFI 21798 .cfa: sp 64 +
STACK CFI 217a8 .cfa: sp 0 +
STACK CFI 217ac .cfa: x29 64 +
STACK CFI INIT 21af4 294 .cfa: sp 0 +
STACK CFI 21af8 .cfa: sp 240 +
STACK CFI 21b10 .cfa: x29 80 + x19: .cfa -8 + ^ x20: .cfa -16 + ^ x21: .cfa -24 + ^ x22: .cfa -32 + ^ x23: .cfa -40 + ^ x24: .cfa -48 + ^ x25: .cfa -64 + ^ .ra: .cfa -72 + ^ x29: .cfa -80 + ^
STACK CFI 21cb0 .cfa: sp 240 +
STACK CFI 21cc8 .cfa: sp 0 +
STACK CFI 21ccc .cfa: x29 80 +
STACK CFI INIT 21e04 50 .cfa: sp 0 +
STACK CFI 21e08 .cfa: sp 32 +
STACK CFI 21e10 .cfa: x29 32 + x19: .cfa -8 + ^ x20: .cfa -16 + ^ .ra: .cfa -24 + ^ x29: .cfa -32 + ^
STACK CFI INIT 21e80 7c0 .cfa: sp 0 +
STACK CFI 21e84 .cfa: sp 320 +
STACK CFI 21ea0 .cfa: x29 96 + x19: .cfa -8 + ^ x20: .cfa -16 + ^ x21: .cfa -24 + ^ x22: .cfa -32 + ^ x23: .cfa -40 + ^ x24: .cfa -48 + ^ x25: .cfa -56 + ^ x26: .cfa -64 + ^ x27: .cfa -72 + ^ x28: .cfa -80 + ^ .ra: .cfa -88 + ^ x29: .cfa -96 + ^
STACK CFI 224f0 .cfa: sp 320 +
STACK CFI 2250c .cfa: sp 0 +
STACK CFI 22510 .cfa: x29 96 +
STACK CFI INIT 269c0 c74 .cfa: sp 0 +
STACK CFI 269c4 .cfa: sp 96 +
STACK CFI 269dc .cfa: x29 96 + x19: .cfa -8 + ^ x20: .cfa -16 + ^ x21: .cfa -24 + ^ x22: .cfa -32 + ^ x23: .cfa -40 + ^ x24: .cfa -48 + ^ x25: .cfa -56 + ^ x26: .cfa -64 + ^ x27: .cfa -72 + ^ x28: .cfa -80 + ^ .ra: .cfa -88 + ^ x29: .cfa -96 + ^
STACK CFI 27454 .cfa: sp 96 +
STACK CFI 2746c .cfa: sp 0 +
STACK CFI 27470 .cfa: x29 96 +
STACK CFI INIT 27788 26c .cfa: sp 0 +
STACK CFI 2778c .cfa: sp 128 +
STACK CFI 2779c .cfa: x29 48 + x19: .cfa -8 + ^ x20: .cfa -16 + ^ x21: .cfa -24 + ^ x22: .cfa -32 + ^ .ra: .cfa -40 + ^ x29: .cfa -48 + ^
STACK CFI 27940 .cfa: sp 128 +
STACK CFI 27950 .cfa: sp 0 +
STACK CFI 27954 .cfa: x29 48 +
STACK CFI INIT 27f40 3b8 .cfa: sp 0 +
STACK CFI 27f44 .cfa: sp 96 +
STACK CFI 27f5c .cfa: x29 96 + x19: .cfa -8 + ^ x20: .cfa -16 + ^ x21: .cfa -24 + ^ x22: .cfa -32 + ^ x23: .cfa -40 + ^ x24: .cfa -48 + ^ x25: .cfa -56 + ^ x26: .cfa -64 + ^ x27: .cfa -72 + ^ x28: .cfa -80 + ^ .ra: .cfa -88 + ^ x29: .cfa -96 + ^
STACK CFI 28298 .cfa: sp 96 +
STACK CFI 282b0 .cfa: sp 0 +
STACK CFI 282b4 .cfa: x29 96 +
STACK CFI INIT 28398 cb4 .cfa: sp 0 +
STACK CFI 2839c .cfa: sp 96 +
STACK CFI 283b4 .cfa: x29 96 + x19: .cfa -8 + ^ x20: .cfa -16 + ^ x21: .cfa -24 + ^ x22: .cfa -32 + ^ x23: .cfa -40 + ^ x24: .cfa -48 + ^ x25: .cfa -56 + ^ x26: .cfa -64 + ^ x27: .cfa -72 + ^ x28: .cfa -80 + ^ .ra: .cfa -88 + ^ x29: .cfa -96 + ^
STACK CFI 28e5c .cfa: sp 96 +
STACK CFI 28e74 .cfa: sp 0 +
STACK CFI 28e78 .cfa: x29 96 +
STACK CFI INIT 29334 afc .cfa: sp 0 +
STACK CFI 29338 .cfa: sp 96 +
STACK CFI 29350 .cfa: x29 96 + x19: .cfa -8 + ^ x20: .cfa -16 + ^ x21: .cfa -24 + ^ x22: .cfa -32 + ^ x23: .cfa -40 + ^ x24: .cfa -48 + ^ x25: .cfa -56 + ^ x26: .cfa -64 + ^ x27: .cfa -72 + ^ x28: .cfa -80 + ^ .ra: .cfa -88 + ^ x29: .cfa -96 + ^
STACK CFI 29da4 .cfa: sp 96 +
STACK CFI 29dbc .cfa: sp 0 +
STACK CFI 29dc0 .cfa: x29 96 +
STACK CFI INIT 2a00c 1430 .cfa: sp 0 +
STACK CFI 2a010 .cfa: sp 96 +
STACK CFI 2a028 .cfa: x29 96 + x19: .cfa -8 + ^ x20: .cfa -16 + ^ x21: .cfa -24 + ^ x22: .cfa -32 + ^ x23: .cfa -40 + ^ x24: .cfa -48 + ^ x25: .cfa -56 + ^ x26: .cfa -64 + ^ x27: .cfa -72 + ^ x28: .cfa -80 + ^ .ra: .cfa -88 + ^ x29: .cfa -96 + ^
STACK CFI 2b2c4 .cfa: sp 96 +
STACK CFI 2b2dc .cfa: sp 0 +
STACK CFI 2b2e0 .cfa: x29 96 +
STACK CFI INIT 2b560 75c .cfa: sp 0 +
STACK CFI 2b564 .cfa: sp 368 +
STACK CFI 2b580 .cfa: x29 96 + x19: .cfa -8 + ^ x20: .cfa -16 + ^ x21: .cfa -24 + ^ x22: .cfa -32 + ^ x23: .cfa -40 + ^ x24: .cfa -48 + ^ x25: .cfa -56 + ^ x26: .cfa -64 + ^ x27: .cfa -72 + ^ x28: .cfa -80 + ^ .ra: .cfa -88 + ^ x29: .cfa -96 + ^
STACK CFI 2b634 .cfa: sp 368 +
STACK CFI 2b650 .cfa: sp 0 +
STACK CFI 2b654 .cfa: x29 96 +
STACK CFI 2b6a8 .cfa: sp 368 +
STACK CFI 2b6c4 .cfa: sp 0 +
STACK CFI 2b6c8 .cfa: x29 96 +
STACK CFI INIT 2c07c eb0 .cfa: sp 0 +
STACK CFI 2c080 .cfa: sp 96 +
STACK CFI 2c098 .cfa: x29 96 + x19: .cfa -8 + ^ x20: .cfa -16 + ^ x21: .cfa -24 + ^ x22: .cfa -32 + ^ x23: .cfa -40 + ^ x24: .cfa -48 + ^ x25: .cfa -56 + ^ x26: .cfa -64 + ^ x27: .cfa -72 + ^ x28: .cfa -80 + ^ .ra: .cfa -88 + ^ x29: .cfa -96 + ^
STACK CFI 2cd40 .cfa: sp 96 +
STACK CFI 2cd58 .cfa: sp 0 +
STACK CFI 2cd5c .cfa: x29 96 +
STACK CFI INIT 2d2a0 1c9c .cfa: sp 0 +
STACK CFI 2d2a4 .cfa: sp 112 +
STACK CFI 2d2c0 .cfa: x29 96 + x19: .cfa -8 + ^ x20: .cfa -16 + ^ x21: .cfa -24 + ^ x22: .cfa -32 + ^ x23: .cfa -40 + ^ x24: .cfa -48 + ^ x25: .cfa -56 + ^ x26: .cfa -64 + ^ x27: .cfa -72 + ^ x28: .cfa -80 + ^ .ra: .cfa -88 + ^ x29: .cfa -96 + ^ v8: .cfa -112 + ^
STACK CFI 2d6a8 .cfa: sp 112 +
STACK CFI 2d6c4 .cfa: sp 0 +
STACK CFI 2d6c8 .cfa: x29 96 +
STACK CFI INIT 31700 9a0 .cfa: sp 0 +
STACK CFI 31704 .cfa: sp 144 +
STACK CFI 3171c .cfa: x29 80 + x19: .cfa -8 + ^ x20: .cfa -16 + ^ x21: .cfa -24 + ^ x22: .cfa -32 + ^ x23: .cfa -40 + ^ x24: .cfa -48 + ^ x25: .cfa -64 + ^ .ra: .cfa -72 + ^ x29: .cfa -80 + ^
STACK CFI 3201c .cfa: sp 144 +
STACK CFI 32034 .cfa: sp 0 +
STACK CFI 32038 .cfa: x29 80 +
STACK CFI INIT 335cc 57c .cfa: sp 0 +
STACK CFI 335d0 .cfa: sp 96 +
STACK CFI 335e8 .cfa: x29 96 + x19: .cfa -8 + ^ x20: .cfa -16 + ^ x21: .cfa -24 + ^ x22: .cfa -32 + ^ x23: .cfa -40 + ^ x24: .cfa -48 + ^ x25: .cfa -56 + ^ x26: .cfa -64 + ^ x27: .cfa -72 + ^ x28: .cfa -80 + ^ .ra: .cfa -88 + ^ x29: .cfa -96 + ^
STACK CFI 33aac .cfa: sp 96 +
STACK CFI 33ac4 .cfa: sp 0 +
STACK CFI 33ac8 .cfa: x29 96 +
STACK CFI INIT 33b48 67c .cfa: sp 0 +
STACK CFI 33b4c .cfa: sp 96 +
STACK CFI 33b64 .cfa: x29 96 + x19: .cfa -8 + ^ x20: .cfa -16 + ^ x21: .cfa -24 + ^ x22: .cfa -32 + ^ x23: .cfa -40 + ^ x24: .cfa -48 + ^ x25: .cfa -56 + ^ x26: .cfa -64 + ^ x27: .cfa -72 + ^ x28: .cfa -80 + ^ .ra: .cfa -88 + ^ x29: .cfa -96 + ^
STACK CFI 34128 .cfa: sp 96 +
STACK CFI 34140 .cfa: sp 0 +
STACK CFI 34144 .cfa: x29 96 +
