MODULE Linux arm64 0871C7AC98A6E00D879B3659BD1DD6080 zilko.platformer_ghosts.android64.so
INFO CODE_ID ACC77108A6980DE0879B3659BD1DD6085AE37B1D
INFO GENERATOR mozilla/dump_syms 2.3.4
PUBLIC 35bc0 0 __on_dlclose
PUBLIC 35bd0 0 __emutls_unregister_key
PUBLIC 35bd8 0 __on_dlclose_late
PUBLIC 35be0 0 __atexit_handler_wrapper
PUBLIC 35bf4 0 atexit
PUBLIC 35c10 0 pthread_atfork
PUBLIC 35c20 0 unwind_phase2
PUBLIC 35d54 0 _Unwind_Resume
PUBLIC 35dd8 0 unwind_phase2_forced
PUBLIC m 35ecc 0 __unw_init_local
PUBLIC m 35f74 0 __unw_get_reg
PUBLIC 35ff0 0 __unw_step_stage2
PUBLIC m 36004 0 __unw_get_proc_info
PUBLIC m 36044 0 __unw_resume
PUBLIC 3606c 0 libunwind::CFI_Parser<libunwind::LocalAddressSpace>::decodeFDE(libunwind::LocalAddressSpace&, unsigned long, libunwind::CFI_Parser<libunwind::LocalAddressSpace>::FDE_Info*, libunwind::CFI_Parser<libunwind::LocalAddressSpace>::CIE_Info*, bool)
PUBLIC 361fc 0 libunwind::CFI_Parser<libunwind::LocalAddressSpace>::parseCIE(libunwind::LocalAddressSpace&, unsigned long, libunwind::CFI_Parser<libunwind::LocalAddressSpace>::CIE_Info*)
PUBLIC 364c4 0 libunwind::AbstractUnwindCursor::~AbstractUnwindCursor()
PUBLIC 364cc 0 libunwind::UnwindCursor<libunwind::LocalAddressSpace, libunwind::Registers_arm64>::~UnwindCursor()
PUBLIC 364d4 0 libunwind::UnwindCursor<libunwind::LocalAddressSpace, libunwind::Registers_arm64>::validReg(int)
PUBLIC 36518 0 libunwind::UnwindCursor<libunwind::LocalAddressSpace, libunwind::Registers_arm64>::getReg(int)
PUBLIC 36600 0 libunwind::UnwindCursor<libunwind::LocalAddressSpace, libunwind::Registers_arm64>::setReg(int, unsigned long)
PUBLIC 366e8 0 libunwind::UnwindCursor<libunwind::LocalAddressSpace, libunwind::Registers_arm64>::validFloatReg(int)
PUBLIC 366fc 0 libunwind::UnwindCursor<libunwind::LocalAddressSpace, libunwind::Registers_arm64>::getFloatReg(int)
PUBLIC 3670c 0 libunwind::UnwindCursor<libunwind::LocalAddressSpace, libunwind::Registers_arm64>::setFloatReg(int, double)
PUBLIC 3671c 0 libunwind::UnwindCursor<libunwind::LocalAddressSpace, libunwind::Registers_arm64>::step(bool)
PUBLIC 3680c 0 libunwind::UnwindCursor<libunwind::LocalAddressSpace, libunwind::Registers_arm64>::getInfo(unw_proc_info_t*)
PUBLIC 36850 0 libunwind::UnwindCursor<libunwind::LocalAddressSpace, libunwind::Registers_arm64>::jumpto()
PUBLIC 3685c 0 libunwind::UnwindCursor<libunwind::LocalAddressSpace, libunwind::Registers_arm64>::isSignalFrame()
PUBLIC 36868 0 libunwind::UnwindCursor<libunwind::LocalAddressSpace, libunwind::Registers_arm64>::getFunctionName(char*, unsigned long, unsigned long*)
PUBLIC 36894 0 libunwind::UnwindCursor<libunwind::LocalAddressSpace, libunwind::Registers_arm64>::setInfoBasedOnIPRegister(bool)
PUBLIC 36b14 0 libunwind::UnwindCursor<libunwind::LocalAddressSpace, libunwind::Registers_arm64>::getRegisterName(int)
PUBLIC 36b20 0 libunwind::UnwindCursor<libunwind::LocalAddressSpace, libunwind::Registers_arm64>::stepThroughSigReturn(libunwind::Registers_arm64&)
PUBLIC 36c40 0 libunwind::DwarfInstructions<libunwind::LocalAddressSpace, libunwind::Registers_arm64>::stepWithDwarf(libunwind::LocalAddressSpace&, unsigned long, unsigned long, libunwind::Registers_arm64&, bool&, bool)
PUBLIC 370c8 0 libunwind::CFI_Parser<libunwind::LocalAddressSpace>::parseFDEInstructions(libunwind::LocalAddressSpace&, libunwind::CFI_Parser<libunwind::LocalAddressSpace>::FDE_Info const&, libunwind::CFI_Parser<libunwind::LocalAddressSpace>::CIE_Info const&, unsigned long, int, libunwind::CFI_Parser<libunwind::LocalAddressSpace>::PrologInfo*)
PUBLIC 37d10 0 libunwind::DwarfInstructions<libunwind::LocalAddressSpace, libunwind::Registers_arm64>::getCFA(libunwind::LocalAddressSpace&, libunwind::CFI_Parser<libunwind::LocalAddressSpace>::PrologInfo const&, libunwind::Registers_arm64 const&)
PUBLIC 37e44 0 libunwind::DwarfInstructions<libunwind::LocalAddressSpace, libunwind::Registers_arm64>::getSavedRegister(libunwind::LocalAddressSpace&, libunwind::Registers_arm64 const&, unsigned long, libunwind::CFI_Parser<libunwind::LocalAddressSpace>::RegisterLocation const&)
PUBLIC 38054 0 libunwind::LocalAddressSpace::getEncodedP(unsigned long&, unsigned long, unsigned char, unsigned long)
PUBLIC 383e0 0 libunwind::LocalAddressSpace::getULEB128(unsigned long&, unsigned long)
PUBLIC 385a8 0 libunwind::DwarfInstructions<libunwind::LocalAddressSpace, libunwind::Registers_arm64>::evaluateExpression(unsigned long, libunwind::LocalAddressSpace&, libunwind::Registers_arm64 const&, unsigned long)
PUBLIC 38f64 0 libunwind::UnwindCursor<libunwind::LocalAddressSpace, libunwind::Registers_arm64>::getInfoFromDwarfSection(unsigned long, libunwind::UnwindInfoSections const&, unsigned int)
PUBLIC 39238 0 libunwind::findUnwindSectionsByPhdr(dl_phdr_info*, unsigned long, void*)
PUBLIC 3936c 0 libunwind::EHHeaderParser<libunwind::LocalAddressSpace>::decodeEHHdr(libunwind::LocalAddressSpace&, unsigned long, unsigned long, libunwind::EHHeaderParser<libunwind::LocalAddressSpace>::EHHeaderInfo&)
PUBLIC 3948c 0 libunwind::CFI_Parser<libunwind::LocalAddressSpace>::findFDE(libunwind::LocalAddressSpace&, unsigned long, unsigned long, unsigned long, unsigned long, libunwind::CFI_Parser<libunwind::LocalAddressSpace>::FDE_Info*, libunwind::CFI_Parser<libunwind::LocalAddressSpace>::CIE_Info*)
PUBLIC 39654 0 libunwind::EHHeaderParser<libunwind::LocalAddressSpace>::findFDE(libunwind::LocalAddressSpace&, unsigned long, unsigned long, unsigned int, libunwind::CFI_Parser<libunwind::LocalAddressSpace>::FDE_Info*, libunwind::CFI_Parser<libunwind::LocalAddressSpace>::CIE_Info*)
PUBLIC 397bc 0 libunwind::EHHeaderParser<libunwind::LocalAddressSpace>::getTableEntrySize(unsigned char)
PUBLIC 398b8 0 libunwind::Registers_arm64::getRegisterName(int)
PUBLIC 398e8 0 __libunwind_Registers_arm64_jumpto
PUBLIC m 39978 0 __unw_getcontext
PUBLIC 39a20 0 __aarch64_ldadd8_relax
PUBLIC 39a50 0 init_have_lse_atomics
PUBLIC 39ae8 0 __init_cpu_features_constructor
PUBLIC 3a084 0 __init_cpu_features
PUBLIC 3a110 0 __aarch64_ldadd8_acq_rel
PUBLIC 3a140 0 std::__ndk1::unordered_set<int, std::__ndk1::hash<int>, std::__ndk1::equal_to<int>, std::__ndk1::allocator<int> >::~unordered_set[abi:ne180000]()
PUBLIC 3a18c 0 std::__ndk1::unordered_map<AnimationType, std::__ndk1::basic_string<char, std::__ndk1::char_traits<char>, std::__ndk1::allocator<char> >, std::__ndk1::hash<AnimationType>, std::__ndk1::equal_to<AnimationType>, std::__ndk1::allocator<std::__ndk1::pair<AnimationType const, std::__ndk1::basic_string<char, std::__ndk1::char_traits<char>, std::__ndk1::allocator<char> > > > >::~unordered_map[abi:ne180000]()
PUBLIC 3a1fc 0 __cxx_global_var_init.7
PUBLIC 3a680 0 geode::modifier::ModifyBase<geode::modifier::ModifyDerive<GameLayer, GJBaseGameLayer> >::~ModifyBase()
PUBLIC 3a698 0 __cxx_global_var_init.8
PUBLIC 3aaf4 0 __cxx_global_var_init.9
PUBLIC 3af50 0 __cxx_global_var_init.10
PUBLIC 3b3ac 0 __cxx_global_var_init.11
PUBLIC 3b808 0 _GLOBAL__sub_I_Main.cpp
PUBLIC 3c114 0 geode::modifier::ModifyBase<geode::modifier::ModifyDerive<hook133<(anonymous namespace)::hook133Parent>, PlayerObject> >::~ModifyBase()
PUBLIC 3c12c 0 geode::modifier::ModifyBase<geode::modifier::ModifyDerive<hook213<(anonymous namespace)::hook213Parent>, PlayLayer> >::~ModifyBase()
PUBLIC 3c144 0 geode::modifier::ModifyBase<geode::modifier::ModifyDerive<hook279<(anonymous namespace)::hook279Parent>, PauseLayer> >::~ModifyBase()
PUBLIC 3c15c 0 geode::modifier::ModifyBase<geode::modifier::ModifyDerive<hook328<(anonymous namespace)::hook328Parent>, EndLevelLayer> >::~ModifyBase()
PUBLIC 3c174 0 std::__ndk1::basic_string<char, std::__ndk1::char_traits<char>, std::__ndk1::allocator<char> >::__throw_length_error[abi:ne180000]() const
PUBLIC 3c188 0 std::__ndk1::__throw_length_error[abi:ne180000](char const*)
PUBLIC 3c1d8 0 std::length_error::length_error[abi:ne180000](char const*)
PUBLIC 3c208 0 std::__throw_bad_array_new_length([abi:ne180000], void)
PUBLIC 3c23c 0 __clang_call_terminate
PUBLIC 3c24c 0 std::__ndk1::__hash_table<int, std::__ndk1::hash<int>, std::__ndk1::equal_to<int>, std::__ndk1::allocator<int> >::~__hash_table()
PUBLIC 3c298 0 std::__ndk1::__hash_table<int, std::__ndk1::hash<int>, std::__ndk1::equal_to<int>, std::__ndk1::allocator<int> >::__emplace_unique_key_args<int, int const&>(int const&, int const&)
PUBLIC 3c5bc 0 std::__ndk1::__hash_table<int, std::__ndk1::hash<int>, std::__ndk1::equal_to<int>, std::__ndk1::allocator<int> >::__do_rehash<true>(unsigned long)
PUBLIC 3c768 0 std::__ndk1::__hash_table<std::__ndk1::__hash_value_type<AnimationType, std::__ndk1::basic_string<char, std::__ndk1::char_traits<char>, std::__ndk1::allocator<char> > >, std::__ndk1::__unordered_map_hasher<AnimationType, std::__ndk1::__hash_value_type<AnimationType, std::__ndk1::basic_string<char, std::__ndk1::char_traits<char>, std::__ndk1::allocator<char> > >, std::__ndk1::hash<AnimationType>, std::__ndk1::equal_to<AnimationType>, true>, std::__ndk1::__unordered_map_equal<AnimationType, std::__ndk1::__hash_value_type<AnimationType, std::__ndk1::basic_string<char, std::__ndk1::char_traits<char>, std::__ndk1::allocator<char> > >, std::__ndk1::equal_to<AnimationType>, std::__ndk1::hash<AnimationType>, true>, std::__ndk1::allocator<std::__ndk1::__hash_value_type<AnimationType, std::__ndk1::basic_string<char, std::__ndk1::char_traits<char>, std::__ndk1::allocator<char> > > > >::~__hash_table()
PUBLIC 3c7d8 0 std::__ndk1::__hash_table<std::__ndk1::__hash_value_type<AnimationType, std::__ndk1::basic_string<char, std::__ndk1::char_traits<char>, std::__ndk1::allocator<char> > >, std::__ndk1::__unordered_map_hasher<AnimationType, std::__ndk1::__hash_value_type<AnimationType, std::__ndk1::basic_string<char, std::__ndk1::char_traits<char>, std::__ndk1::allocator<char> > >, std::__ndk1::hash<AnimationType>, std::__ndk1::equal_to<AnimationType>, true>, std::__ndk1::__unordered_map_equal<AnimationType, std::__ndk1::__hash_value_type<AnimationType, std::__ndk1::basic_string<char, std::__ndk1::char_traits<char>, std::__ndk1::allocator<char> > >, std::__ndk1::equal_to<AnimationType>, std::__ndk1::hash<AnimationType>, true>, std::__ndk1::allocator<std::__ndk1::__hash_value_type<AnimationType, std::__ndk1::basic_string<char, std::__ndk1::char_traits<char>, std::__ndk1::allocator<char> > > > >::__emplace_unique_key_args<AnimationType, std::__ndk1::pair<AnimationType const, std::__ndk1::basic_string<char, std::__ndk1::char_traits<char>, std::__ndk1::allocator<char> > > const&>(AnimationType const&, std::__ndk1::pair<AnimationType const, std::__ndk1::basic_string<char, std::__ndk1::char_traits<char>, std::__ndk1::allocator<char> > > const&)
PUBLIC 3cb98 0 std::__ndk1::unique_ptr<std::__ndk1::__hash_node<std::__ndk1::__hash_value_type<AnimationType, std::__ndk1::basic_string<char, std::__ndk1::char_traits<char>, std::__ndk1::allocator<char> > >, void*>, std::__ndk1::__hash_node_destructor<std::__ndk1::allocator<std::__ndk1::__hash_node<std::__ndk1::__hash_value_type<AnimationType, std::__ndk1::basic_string<char, std::__ndk1::char_traits<char>, std::__ndk1::allocator<char> > >, void*> > > >::~unique_ptr[abi:ne180000]()
PUBLIC 3cbe8 0 std::__ndk1::basic_string<char, std::__ndk1::char_traits<char>, std::__ndk1::allocator<char> >::__init_copy_ctor_external(char const*, unsigned long)
PUBLIC 3cc68 0 std::__ndk1::__hash_table<std::__ndk1::__hash_value_type<AnimationType, std::__ndk1::basic_string<char, std::__ndk1::char_traits<char>, std::__ndk1::allocator<char> > >, std::__ndk1::__unordered_map_hasher<AnimationType, std::__ndk1::__hash_value_type<AnimationType, std::__ndk1::basic_string<char, std::__ndk1::char_traits<char>, std::__ndk1::allocator<char> > >, std::__ndk1::hash<AnimationType>, std::__ndk1::equal_to<AnimationType>, true>, std::__ndk1::__unordered_map_equal<AnimationType, std::__ndk1::__hash_value_type<AnimationType, std::__ndk1::basic_string<char, std::__ndk1::char_traits<char>, std::__ndk1::allocator<char> > >, std::__ndk1::equal_to<AnimationType>, std::__ndk1::hash<AnimationType>, true>, std::__ndk1::allocator<std::__ndk1::__hash_value_type<AnimationType, std::__ndk1::basic_string<char, std::__ndk1::char_traits<char>, std::__ndk1::allocator<char> > > > >::__do_rehash<true>(unsigned long)
PUBLIC 3ce14 0 geode::Mod::getSettingValue<bool>(std::__ndk1::basic_string_view<char, std::__ndk1::char_traits<char> >) const
PUBLIC 3cf48 0 geode::Mod::getSettingValue<long>(std::__ndk1::basic_string_view<char, std::__ndk1::char_traits<char> >) const
PUBLIC 3d060 0 geode::listenForSettingChangesV3<long, void (*)(long)>(std::__ndk1::basic_string_view<char, std::__ndk1::char_traits<char> >, void (*&&)(long), geode::Mod*)
PUBLIC 3d2ac 0 geode::EventListener<geode::SettingChangedFilterV3>::EventListener(std::__ndk1::function<void (std::__ndk1::shared_ptr<geode::SettingV3>)>, geode::SettingChangedFilterV3)
PUBLIC 3d3a4 0 geode::SettingChangedFilterV3::~SettingChangedFilterV3()
PUBLIC 3d3f4 0 std::__ndk1::__function::__func<geode::listenForSettingChangesV3<long, void (*)(long)>(std::__ndk1::basic_string_view<char, std::__ndk1::char_traits<char> >, void (*&&)(long), geode::Mod*)::{lambda(std::__ndk1::shared_ptr<geode::SettingV3>)#1}, std::__ndk1::allocator<geode::listenForSettingChangesV3<long, void (*)(long)>(std::__ndk1::basic_string_view<char, std::__ndk1::char_traits<char> >, void (*&&)(long), geode::Mod*)::{lambda(std::__ndk1::shared_ptr<geode::SettingV3>)#1}>, void (std::__ndk1::shared_ptr<geode::SettingV3>)>::~__func()
PUBLIC 3d3f8 0 std::__ndk1::__function::__func<geode::listenForSettingChangesV3<long, void (*)(long)>(std::__ndk1::basic_string_view<char, std::__ndk1::char_traits<char> >, void (*&&)(long), geode::Mod*)::{lambda(std::__ndk1::shared_ptr<geode::SettingV3>)#1}, std::__ndk1::allocator<geode::listenForSettingChangesV3<long, void (*)(long)>(std::__ndk1::basic_string_view<char, std::__ndk1::char_traits<char> >, void (*&&)(long), geode::Mod*)::{lambda(std::__ndk1::shared_ptr<geode::SettingV3>)#1}>, void (std::__ndk1::shared_ptr<geode::SettingV3>)>::__clone() const
PUBLIC 3d42c 0 std::__ndk1::__function::__func<geode::listenForSettingChangesV3<long, void (*)(long)>(std::__ndk1::basic_string_view<char, std::__ndk1::char_traits<char> >, void (*&&)(long), geode::Mod*)::{lambda(std::__ndk1::shared_ptr<geode::SettingV3>)#1}, std::__ndk1::allocator<geode::listenForSettingChangesV3<long, void (*)(long)>(std::__ndk1::basic_string_view<char, std::__ndk1::char_traits<char> >, void (*&&)(long), geode::Mod*)::{lambda(std::__ndk1::shared_ptr<geode::SettingV3>)#1}>, void (std::__ndk1::shared_ptr<geode::SettingV3>)>::__clone(std::__ndk1::__function::__base<void (std::__ndk1::shared_ptr<geode::SettingV3>)>*) const
PUBLIC 3d440 0 std::__ndk1::__function::__func<geode::listenForSettingChangesV3<long, void (*)(long)>(std::__ndk1::basic_string_view<char, std::__ndk1::char_traits<char> >, void (*&&)(long), geode::Mod*)::{lambda(std::__ndk1::shared_ptr<geode::SettingV3>)#1}, std::__ndk1::allocator<geode::listenForSettingChangesV3<long, void (*)(long)>(std::__ndk1::basic_string_view<char, std::__ndk1::char_traits<char> >, void (*&&)(long), geode::Mod*)::{lambda(std::__ndk1::shared_ptr<geode::SettingV3>)#1}>, void (std::__ndk1::shared_ptr<geode::SettingV3>)>::destroy()
PUBLIC 3d444 0 std::__ndk1::__function::__func<geode::listenForSettingChangesV3<long, void (*)(long)>(std::__ndk1::basic_string_view<char, std::__ndk1::char_traits<char> >, void (*&&)(long), geode::Mod*)::{lambda(std::__ndk1::shared_ptr<geode::SettingV3>)#1}, std::__ndk1::allocator<geode::listenForSettingChangesV3<long, void (*)(long)>(std::__ndk1::basic_string_view<char, std::__ndk1::char_traits<char> >, void (*&&)(long), geode::Mod*)::{lambda(std::__ndk1::shared_ptr<geode::SettingV3>)#1}>, void (std::__ndk1::shared_ptr<geode::SettingV3>)>::destroy_deallocate()
PUBLIC 3d448 0 std::__ndk1::__function::__func<geode::listenForSettingChangesV3<long, void (*)(long)>(std::__ndk1::basic_string_view<char, std::__ndk1::char_traits<char> >, void (*&&)(long), geode::Mod*)::{lambda(std::__ndk1::shared_ptr<geode::SettingV3>)#1}, std::__ndk1::allocator<geode::listenForSettingChangesV3<long, void (*)(long)>(std::__ndk1::basic_string_view<char, std::__ndk1::char_traits<char> >, void (*&&)(long), geode::Mod*)::{lambda(std::__ndk1::shared_ptr<geode::SettingV3>)#1}>, void (std::__ndk1::shared_ptr<geode::SettingV3>)>::operator()(std::__ndk1::shared_ptr<geode::SettingV3>&&)
PUBLIC 3d564 0 std::__ndk1::__function::__func<geode::listenForSettingChangesV3<long, void (*)(long)>(std::__ndk1::basic_string_view<char, std::__ndk1::char_traits<char> >, void (*&&)(long), geode::Mod*)::{lambda(std::__ndk1::shared_ptr<geode::SettingV3>)#1}, std::__ndk1::allocator<geode::listenForSettingChangesV3<long, void (*)(long)>(std::__ndk1::basic_string_view<char, std::__ndk1::char_traits<char> >, void (*&&)(long), geode::Mod*)::{lambda(std::__ndk1::shared_ptr<geode::SettingV3>)#1}>, void (std::__ndk1::shared_ptr<geode::SettingV3>)>::target(std::type_info const&) const
PUBLIC 3d580 0 std::__ndk1::__function::__func<geode::listenForSettingChangesV3<long, void (*)(long)>(std::__ndk1::basic_string_view<char, std::__ndk1::char_traits<char> >, void (*&&)(long), geode::Mod*)::{lambda(std::__ndk1::shared_ptr<geode::SettingV3>)#1}, std::__ndk1::allocator<geode::listenForSettingChangesV3<long, void (*)(long)>(std::__ndk1::basic_string_view<char, std::__ndk1::char_traits<char> >, void (*&&)(long), geode::Mod*)::{lambda(std::__ndk1::shared_ptr<geode::SettingV3>)#1}>, void (std::__ndk1::shared_ptr<geode::SettingV3>)>::target_type() const
PUBLIC 3d58c 0 std::__ndk1::shared_ptr<geode::SettingV3>::~shared_ptr[abi:ne180000]()
PUBLIC 3d5dc 0 std::__ndk1::shared_ptr<geode::IntSettingV3>::~shared_ptr[abi:ne180000]()
PUBLIC 3d62c 0 geode::cast::traverseTypeinfoFor(void*, geode::cast::ClassTypeinfoType const*, char const*)
PUBLIC 3d730 0 geode::EventListener<geode::SettingChangedFilterV3>::getPool() const
PUBLIC 3d734 0 geode::EventListener<geode::SettingChangedFilterV3>::handle(geode::Event*)
PUBLIC 3d8a8 0 geode::EventListener<geode::SettingChangedFilterV3>::~EventListener()
PUBLIC 3d944 0 geode::EventListener<geode::SettingChangedFilterV3>::~EventListener()
PUBLIC 3d9e8 0 geodeExecFunction13<(anonymous namespace)::ExecFuncUnique13>()::{lambda(long)#1}::__invoke(long)
PUBLIC 3da78 0 geodeExecFunction13<(anonymous namespace)::ExecFuncUnique13>()::{lambda(long)#2}::__invoke(long)
PUBLIC 3da80 0 geodeExecFunction13<(anonymous namespace)::ExecFuncUnique13>()::{lambda(long)#3}::__invoke(long)
PUBLIC 3da88 0 geode::listenForSettingChangesV3<bool, void (*)(bool)>(std::__ndk1::basic_string_view<char, std::__ndk1::char_traits<char> >, void (*&&)(bool), geode::Mod*)
PUBLIC 3dcd4 0 std::__ndk1::__function::__func<geode::listenForSettingChangesV3<bool, void (*)(bool)>(std::__ndk1::basic_string_view<char, std::__ndk1::char_traits<char> >, void (*&&)(bool), geode::Mod*)::{lambda(std::__ndk1::shared_ptr<geode::SettingV3>)#1}, std::__ndk1::allocator<geode::listenForSettingChangesV3<bool, void (*)(bool)>(std::__ndk1::basic_string_view<char, std::__ndk1::char_traits<char> >, void (*&&)(bool), geode::Mod*)::{lambda(std::__ndk1::shared_ptr<geode::SettingV3>)#1}>, void (std::__ndk1::shared_ptr<geode::SettingV3>)>::~__func()
PUBLIC 3dcd8 0 std::__ndk1::__function::__func<geode::listenForSettingChangesV3<bool, void (*)(bool)>(std::__ndk1::basic_string_view<char, std::__ndk1::char_traits<char> >, void (*&&)(bool), geode::Mod*)::{lambda(std::__ndk1::shared_ptr<geode::SettingV3>)#1}, std::__ndk1::allocator<geode::listenForSettingChangesV3<bool, void (*)(bool)>(std::__ndk1::basic_string_view<char, std::__ndk1::char_traits<char> >, void (*&&)(bool), geode::Mod*)::{lambda(std::__ndk1::shared_ptr<geode::SettingV3>)#1}>, void (std::__ndk1::shared_ptr<geode::SettingV3>)>::__clone() const
PUBLIC 3dd0c 0 std::__ndk1::__function::__func<geode::listenForSettingChangesV3<bool, void (*)(bool)>(std::__ndk1::basic_string_view<char, std::__ndk1::char_traits<char> >, void (*&&)(bool), geode::Mod*)::{lambda(std::__ndk1::shared_ptr<geode::SettingV3>)#1}, std::__ndk1::allocator<geode::listenForSettingChangesV3<bool, void (*)(bool)>(std::__ndk1::basic_string_view<char, std::__ndk1::char_traits<char> >, void (*&&)(bool), geode::Mod*)::{lambda(std::__ndk1::shared_ptr<geode::SettingV3>)#1}>, void (std::__ndk1::shared_ptr<geode::SettingV3>)>::__clone(std::__ndk1::__function::__base<void (std::__ndk1::shared_ptr<geode::SettingV3>)>*) const
PUBLIC 3dd20 0 std::__ndk1::__function::__func<geode::listenForSettingChangesV3<bool, void (*)(bool)>(std::__ndk1::basic_string_view<char, std::__ndk1::char_traits<char> >, void (*&&)(bool), geode::Mod*)::{lambda(std::__ndk1::shared_ptr<geode::SettingV3>)#1}, std::__ndk1::allocator<geode::listenForSettingChangesV3<bool, void (*)(bool)>(std::__ndk1::basic_string_view<char, std::__ndk1::char_traits<char> >, void (*&&)(bool), geode::Mod*)::{lambda(std::__ndk1::shared_ptr<geode::SettingV3>)#1}>, void (std::__ndk1::shared_ptr<geode::SettingV3>)>::destroy()
PUBLIC 3dd24 0 std::__ndk1::__function::__func<geode::listenForSettingChangesV3<bool, void (*)(bool)>(std::__ndk1::basic_string_view<char, std::__ndk1::char_traits<char> >, void (*&&)(bool), geode::Mod*)::{lambda(std::__ndk1::shared_ptr<geode::SettingV3>)#1}, std::__ndk1::allocator<geode::listenForSettingChangesV3<bool, void (*)(bool)>(std::__ndk1::basic_string_view<char, std::__ndk1::char_traits<char> >, void (*&&)(bool), geode::Mod*)::{lambda(std::__ndk1::shared_ptr<geode::SettingV3>)#1}>, void (std::__ndk1::shared_ptr<geode::SettingV3>)>::destroy_deallocate()
PUBLIC 3dd28 0 std::__ndk1::__function::__func<geode::listenForSettingChangesV3<bool, void (*)(bool)>(std::__ndk1::basic_string_view<char, std::__ndk1::char_traits<char> >, void (*&&)(bool), geode::Mod*)::{lambda(std::__ndk1::shared_ptr<geode::SettingV3>)#1}, std::__ndk1::allocator<geode::listenForSettingChangesV3<bool, void (*)(bool)>(std::__ndk1::basic_string_view<char, std::__ndk1::char_traits<char> >, void (*&&)(bool), geode::Mod*)::{lambda(std::__ndk1::shared_ptr<geode::SettingV3>)#1}>, void (std::__ndk1::shared_ptr<geode::SettingV3>)>::operator()(std::__ndk1::shared_ptr<geode::SettingV3>&&)
PUBLIC 3de44 0 std::__ndk1::__function::__func<geode::listenForSettingChangesV3<bool, void (*)(bool)>(std::__ndk1::basic_string_view<char, std::__ndk1::char_traits<char> >, void (*&&)(bool), geode::Mod*)::{lambda(std::__ndk1::shared_ptr<geode::SettingV3>)#1}, std::__ndk1::allocator<geode::listenForSettingChangesV3<bool, void (*)(bool)>(std::__ndk1::basic_string_view<char, std::__ndk1::char_traits<char> >, void (*&&)(bool), geode::Mod*)::{lambda(std::__ndk1::shared_ptr<geode::SettingV3>)#1}>, void (std::__ndk1::shared_ptr<geode::SettingV3>)>::target(std::type_info const&) const
PUBLIC 3de60 0 std::__ndk1::__function::__func<geode::listenForSettingChangesV3<bool, void (*)(bool)>(std::__ndk1::basic_string_view<char, std::__ndk1::char_traits<char> >, void (*&&)(bool), geode::Mod*)::{lambda(std::__ndk1::shared_ptr<geode::SettingV3>)#1}, std::__ndk1::allocator<geode::listenForSettingChangesV3<bool, void (*)(bool)>(std::__ndk1::basic_string_view<char, std::__ndk1::char_traits<char> >, void (*&&)(bool), geode::Mod*)::{lambda(std::__ndk1::shared_ptr<geode::SettingV3>)#1}>, void (std::__ndk1::shared_ptr<geode::SettingV3>)>::target_type() const
PUBLIC 3de6c 0 std::__ndk1::shared_ptr<geode::BoolSettingV3>::~shared_ptr[abi:ne180000]()
PUBLIC 3debc 0 geodeExecFunction13<(anonymous namespace)::ExecFuncUnique13>()::{lambda(bool)#1}::__invoke(bool)
PUBLIC 3dec0 0 geodeExecFunction13<(anonymous namespace)::ExecFuncUnique13>()::{lambda(bool)#2}::__invoke(bool)
PUBLIC 3dec4 0 geodeExecFunction13<(anonymous namespace)::ExecFuncUnique13>()::{lambda(bool)#3}::__invoke(bool)
PUBLIC 3df5c 0 geodeExecFunction13<(anonymous namespace)::ExecFuncUnique13>()::{lambda(bool)#4}::__invoke(bool)
PUBLIC 3e020 0 geodeExecFunction13<(anonymous namespace)::ExecFuncUnique13>()::{lambda(bool)#5}::__invoke(bool)
PUBLIC 3e024 0 geodeExecFunction13<(anonymous namespace)::ExecFuncUnique13>()::{lambda(long)#4}::__invoke(long)
PUBLIC 3e0e8 0 std::__ndk1::__function::__base<void (std::__ndk1::shared_ptr<geode::SettingV3>)>::~__base()
PUBLIC 3e0ec 0 std::__ndk1::__function::__func<geode::listenForSettingChangesV3<double, void (*)(double)>(std::__ndk1::basic_string_view<char, std::__ndk1::char_traits<char> >, void (*&&)(double), geode::Mod*)::{lambda(std::__ndk1::shared_ptr<geode::SettingV3>)#1}, std::__ndk1::allocator<geode::listenForSettingChangesV3<double, void (*)(double)>(std::__ndk1::basic_string_view<char, std::__ndk1::char_traits<char> >, void (*&&)(double), geode::Mod*)::{lambda(std::__ndk1::shared_ptr<geode::SettingV3>)#1}>, void (std::__ndk1::shared_ptr<geode::SettingV3>)>::~__func()
PUBLIC 3e0f0 0 std::__ndk1::__function::__func<geode::listenForSettingChangesV3<double, void (*)(double)>(std::__ndk1::basic_string_view<char, std::__ndk1::char_traits<char> >, void (*&&)(double), geode::Mod*)::{lambda(std::__ndk1::shared_ptr<geode::SettingV3>)#1}, std::__ndk1::allocator<geode::listenForSettingChangesV3<double, void (*)(double)>(std::__ndk1::basic_string_view<char, std::__ndk1::char_traits<char> >, void (*&&)(double), geode::Mod*)::{lambda(std::__ndk1::shared_ptr<geode::SettingV3>)#1}>, void (std::__ndk1::shared_ptr<geode::SettingV3>)>::__clone() const
PUBLIC 3e124 0 std::__ndk1::__function::__func<geode::listenForSettingChangesV3<double, void (*)(double)>(std::__ndk1::basic_string_view<char, std::__ndk1::char_traits<char> >, void (*&&)(double), geode::Mod*)::{lambda(std::__ndk1::shared_ptr<geode::SettingV3>)#1}, std::__ndk1::allocator<geode::listenForSettingChangesV3<double, void (*)(double)>(std::__ndk1::basic_string_view<char, std::__ndk1::char_traits<char> >, void (*&&)(double), geode::Mod*)::{lambda(std::__ndk1::shared_ptr<geode::SettingV3>)#1}>, void (std::__ndk1::shared_ptr<geode::SettingV3>)>::__clone(std::__ndk1::__function::__base<void (std::__ndk1::shared_ptr<geode::SettingV3>)>*) const
PUBLIC 3e138 0 std::__ndk1::__function::__func<geode::listenForSettingChangesV3<double, void (*)(double)>(std::__ndk1::basic_string_view<char, std::__ndk1::char_traits<char> >, void (*&&)(double), geode::Mod*)::{lambda(std::__ndk1::shared_ptr<geode::SettingV3>)#1}, std::__ndk1::allocator<geode::listenForSettingChangesV3<double, void (*)(double)>(std::__ndk1::basic_string_view<char, std::__ndk1::char_traits<char> >, void (*&&)(double), geode::Mod*)::{lambda(std::__ndk1::shared_ptr<geode::SettingV3>)#1}>, void (std::__ndk1::shared_ptr<geode::SettingV3>)>::destroy()
PUBLIC 3e13c 0 std::__ndk1::__function::__func<geode::listenForSettingChangesV3<double, void (*)(double)>(std::__ndk1::basic_string_view<char, std::__ndk1::char_traits<char> >, void (*&&)(double), geode::Mod*)::{lambda(std::__ndk1::shared_ptr<geode::SettingV3>)#1}, std::__ndk1::allocator<geode::listenForSettingChangesV3<double, void (*)(double)>(std::__ndk1::basic_string_view<char, std::__ndk1::char_traits<char> >, void (*&&)(double), geode::Mod*)::{lambda(std::__ndk1::shared_ptr<geode::SettingV3>)#1}>, void (std::__ndk1::shared_ptr<geode::SettingV3>)>::destroy_deallocate()
PUBLIC 3e140 0 std::__ndk1::__function::__func<geode::listenForSettingChangesV3<double, void (*)(double)>(std::__ndk1::basic_string_view<char, std::__ndk1::char_traits<char> >, void (*&&)(double), geode::Mod*)::{lambda(std::__ndk1::shared_ptr<geode::SettingV3>)#1}, std::__ndk1::allocator<geode::listenForSettingChangesV3<double, void (*)(double)>(std::__ndk1::basic_string_view<char, std::__ndk1::char_traits<char> >, void (*&&)(double), geode::Mod*)::{lambda(std::__ndk1::shared_ptr<geode::SettingV3>)#1}>, void (std::__ndk1::shared_ptr<geode::SettingV3>)>::operator()(std::__ndk1::shared_ptr<geode::SettingV3>&&)
PUBLIC 3e25c 0 std::__ndk1::__function::__func<geode::listenForSettingChangesV3<double, void (*)(double)>(std::__ndk1::basic_string_view<char, std::__ndk1::char_traits<char> >, void (*&&)(double), geode::Mod*)::{lambda(std::__ndk1::shared_ptr<geode::SettingV3>)#1}, std::__ndk1::allocator<geode::listenForSettingChangesV3<double, void (*)(double)>(std::__ndk1::basic_string_view<char, std::__ndk1::char_traits<char> >, void (*&&)(double), geode::Mod*)::{lambda(std::__ndk1::shared_ptr<geode::SettingV3>)#1}>, void (std::__ndk1::shared_ptr<geode::SettingV3>)>::target(std::type_info const&) const
PUBLIC 3e278 0 std::__ndk1::__function::__func<geode::listenForSettingChangesV3<double, void (*)(double)>(std::__ndk1::basic_string_view<char, std::__ndk1::char_traits<char> >, void (*&&)(double), geode::Mod*)::{lambda(std::__ndk1::shared_ptr<geode::SettingV3>)#1}, std::__ndk1::allocator<geode::listenForSettingChangesV3<double, void (*)(double)>(std::__ndk1::basic_string_view<char, std::__ndk1::char_traits<char> >, void (*&&)(double), geode::Mod*)::{lambda(std::__ndk1::shared_ptr<geode::SettingV3>)#1}>, void (std::__ndk1::shared_ptr<geode::SettingV3>)>::target_type() const
PUBLIC 3e284 0 std::__ndk1::shared_ptr<geode::FloatSettingV3>::~shared_ptr[abi:ne180000]()
PUBLIC 3e2d4 0 geodeExecFunction13<(anonymous namespace)::ExecFuncUnique13>()::{lambda(double)#1}::__invoke(double)
PUBLIC 3e398 0 geode::modifier::ModifyDerive<GameLayer, GJBaseGameLayer>::apply()
PUBLIC 3ea14 0 std::__ndk1::shared_ptr<geode::Hook>::~shared_ptr[abi:ne180000]()
PUBLIC 3ea64 0 geode::impl::ResultData<geode::Hook*, std::__ndk1::basic_string<char, std::__ndk1::char_traits<char>, std::__ndk1::allocator<char> > >::~ResultData()
PUBLIC 3ead8 0 std::__ndk1::vector<std::__ndk1::basic_string<char, std::__ndk1::char_traits<char>, std::__ndk1::allocator<char> >, std::__ndk1::allocator<std::__ndk1::basic_string<char, std::__ndk1::char_traits<char>, std::__ndk1::allocator<char> > > >::~vector[abi:ne180000]()
PUBLIC 3eb54 0 geode::modifier::ModifyBase<geode::modifier::ModifyDerive<GameLayer, GJBaseGameLayer> >::apply()
PUBLIC 3eb58 0 _ZN5geode15UnwrapExceptionC2IRPNS_4HookEQsr4implE18IsStringStreamableIT_EEENS_4impl5OkTagEOS5_
PUBLIC 3ecac 0 std::__ndk1::__throw_bad_variant_access[abi:ne180000]()
PUBLIC 3ece0 0 std::__ndk1::basic_stringstream<char, std::__ndk1::char_traits<char>, std::__ndk1::allocator<char> >::basic_stringstream[abi:ne180000]()
PUBLIC m 3ee0c 0 std::__ndk1::basic_stringstream<char, std::__ndk1::char_traits<char>, std::__ndk1::allocator<char> >::~basic_stringstream()
PUBLIC 3ee8c 0 geode::UnwrapException::~UnwrapException()
PUBLIC 3eeb0 0 std::__ndk1::__put_character_sequence[abi:ne180000]<char, std::__ndk1::char_traits<char> >(std::__ndk1::basic_ostream<char, std::__ndk1::char_traits<char> >, std::__ndk1::basic_ostream const*, unsigned long)
PUBLIC 3f054 0 std::__ndk1::__pad_and_output[abi:ne180000]<char, std::__ndk1::char_traits<char> >(std::__ndk1::char_traits<char>, std::__ndk1::ostreambuf_iterator const*, std::__ndk1::ostreambuf_iterator const, std::__ndk1::ostreambuf_iterator const, std::__ndk1::ios_base&, std::__ndk1::ostreambuf_iterator)
PUBLIC 3f230 0 std::__ndk1::basic_stringbuf<char, std::__ndk1::char_traits<char>, std::__ndk1::allocator<char> >::str[abi:ne180000]() &&
PUBLIC 3f3a8 0 std::__ndk1::basic_stringbuf<char, std::__ndk1::char_traits<char>, std::__ndk1::allocator<char> >::__init_buf_ptrs[abi:ne180000]()
PUBLIC 3f4f0 0 std::__ndk1::vector<std::__ndk1::basic_string<char, std::__ndk1::char_traits<char>, std::__ndk1::allocator<char> >, std::__ndk1::allocator<std::__ndk1::basic_string<char, std::__ndk1::char_traits<char>, std::__ndk1::allocator<char> > > >::__push_back_slow_path<std::__ndk1::basic_string<char, std::__ndk1::char_traits<char>, std::__ndk1::allocator<char> > const&>(std::__ndk1::basic_string<char, std::__ndk1::char_traits<char>, std::__ndk1::allocator<char> > const&)
PUBLIC 3f714 0 std::__ndk1::__split_buffer<std::__ndk1::basic_string<char, std::__ndk1::char_traits<char>, std::__ndk1::allocator<char> >, std::__ndk1::allocator<std::__ndk1::basic_string<char, std::__ndk1::char_traits<char>, std::__ndk1::allocator<char> > >&>::~__split_buffer()
PUBLIC 3f77c 0 std::__ndk1::vector<std::__ndk1::basic_string<char, std::__ndk1::char_traits<char>, std::__ndk1::allocator<char> >, std::__ndk1::allocator<std::__ndk1::basic_string<char, std::__ndk1::char_traits<char>, std::__ndk1::allocator<char> > > >::__throw_length_error[abi:ne180000]() const
PUBLIC 3f790 0 std::__ndk1::__variant_detail::__visitation::__base::__dispatcher<(unsigned long)0>::__dispatch[abi:ne180000]<std::__ndk1::__variant_detail::__dtor<std::__ndk1::__variant_detail::__traits<geode::Hook*, std::__ndk1::basic_string<char, std::__ndk1::char_traits<char>, std::__ndk1::allocator<char> > >, (std::__ndk1::__variant_detail::_Trait)1>::__destroy[abi:ne180000]()::{lambda(auto:1&)#1}, std::__ndk1::__variant_detail::__base<(std::__ndk1::__variant_detail::__traits<geode::Hook*, std::__ndk1::basic_string<char, std::__ndk1::char_traits<char>, std::__ndk1::allocator<char> > >)1, geode::Hook, std::__ndk1::allocator<char> >&>(std::__ndk1::__variant_detail::__dtor<std::__ndk1::__variant_detail::__traits<geode::Hook*, std::__ndk1::basic_string<char, std::__ndk1::char_traits<char>, std::__ndk1::allocator<char> > >, (std::__ndk1::__variant_detail::_Trait)1>, std::__ndk1::__variant_detail::__base<(std::__ndk1::__variant_detail::__traits<geode::Hook*, std::__ndk1::basic_string<char, std::__ndk1::char_traits<char>, std::__ndk1::allocator<char> > >)1, geode::Hook, std::__ndk1::allocator<char> >&)
PUBLIC 3f794 0 std::__ndk1::__variant_detail::__visitation::__base::__dispatcher<(unsigned long)1>::__dispatch[abi:ne180000]<std::__ndk1::__variant_detail::__dtor<std::__ndk1::__variant_detail::__traits<geode::Hook*, std::__ndk1::basic_string<char, std::__ndk1::char_traits<char>, std::__ndk1::allocator<char> > >, (std::__ndk1::__variant_detail::_Trait)1>::__destroy[abi:ne180000]()::{lambda(auto:1&)#1}, std::__ndk1::__variant_detail::__base<(std::__ndk1::__variant_detail::__traits<geode::Hook*, std::__ndk1::basic_string<char, std::__ndk1::char_traits<char>, std::__ndk1::allocator<char> > >)1, geode::Hook, std::__ndk1::allocator<char> >&>(std::__ndk1::__variant_detail::__dtor<std::__ndk1::__variant_detail::__traits<geode::Hook*, std::__ndk1::basic_string<char, std::__ndk1::char_traits<char>, std::__ndk1::allocator<char> > >, (std::__ndk1::__variant_detail::_Trait)1>, std::__ndk1::__variant_detail::__base<(std::__ndk1::__variant_detail::__traits<geode::Hook*, std::__ndk1::basic_string<char, std::__ndk1::char_traits<char>, std::__ndk1::allocator<char> > >)1, geode::Hook, std::__ndk1::allocator<char> >&)
PUBLIC 3f7a8 0 std::__ndk1::__tree<std::__ndk1::__value_type<std::__ndk1::basic_string<char, std::__ndk1::char_traits<char>, std::__ndk1::allocator<char> >, std::__ndk1::shared_ptr<geode::Hook> >, std::__ndk1::__map_value_compare<std::__ndk1::basic_string<char, std::__ndk1::char_traits<char>, std::__ndk1::allocator<char> >, std::__ndk1::__value_type<std::__ndk1::basic_string<char, std::__ndk1::char_traits<char>, std::__ndk1::allocator<char> >, std::__ndk1::shared_ptr<geode::Hook> >, std::__ndk1::less<std::__ndk1::basic_string<char, std::__ndk1::char_traits<char>, std::__ndk1::allocator<char> > >, true>, std::__ndk1::allocator<std::__ndk1::__value_type<std::__ndk1::basic_string<char, std::__ndk1::char_traits<char>, std::__ndk1::allocator<char> >, std::__ndk1::shared_ptr<geode::Hook> > > >::find<std::__ndk1::basic_string<char, std::__ndk1::char_traits<char>, std::__ndk1::allocator<char> > >(std::__ndk1::basic_string<char, std::__ndk1::char_traits<char>, std::__ndk1::allocator<char> > const&)
PUBLIC 3f8c8 0 std::__ndk1::__tree<std::__ndk1::__value_type<std::__ndk1::basic_string<char, std::__ndk1::char_traits<char>, std::__ndk1::allocator<char> >, std::__ndk1::shared_ptr<geode::Hook> >, std::__ndk1::__map_value_compare<std::__ndk1::basic_string<char, std::__ndk1::char_traits<char>, std::__ndk1::allocator<char> >, std::__ndk1::__value_type<std::__ndk1::basic_string<char, std::__ndk1::char_traits<char>, std::__ndk1::allocator<char> >, std::__ndk1::shared_ptr<geode::Hook> >, std::__ndk1::less<std::__ndk1::basic_string<char, std::__ndk1::char_traits<char>, std::__ndk1::allocator<char> > >, true>, std::__ndk1::allocator<std::__ndk1::__value_type<std::__ndk1::basic_string<char, std::__ndk1::char_traits<char>, std::__ndk1::allocator<char> >, std::__ndk1::shared_ptr<geode::Hook> > > >::erase(std::__ndk1::__tree_const_iterator<std::__ndk1::__value_type<std::__ndk1::basic_string<char, std::__ndk1::char_traits<char>, std::__ndk1::allocator<char> >, std::__ndk1::shared_ptr<geode::Hook> >, std::__ndk1::__tree_node<std::__ndk1::__value_type<std::__ndk1::basic_string<char, std::__ndk1::char_traits<char>, std::__ndk1::allocator<char> >, std::__ndk1::shared_ptr<geode::Hook> >, void*>*, long>)
PUBLIC 3f98c 0 std::__ndk1::__tree_remove[abi:ne180000]<std::__ndk1::__tree_node_base<void*>*>(std::__ndk1::__tree_node_base<void*>*, std::__ndk1::__tree_node_base<void*>*)
PUBLIC 3fd54 0 std::__ndk1::__tree<std::__ndk1::__value_type<std::__ndk1::basic_string<char, std::__ndk1::char_traits<char>, std::__ndk1::allocator<char> >, std::__ndk1::shared_ptr<geode::Hook> >, std::__ndk1::__map_value_compare<std::__ndk1::basic_string<char, std::__ndk1::char_traits<char>, std::__ndk1::allocator<char> >, std::__ndk1::__value_type<std::__ndk1::basic_string<char, std::__ndk1::char_traits<char>, std::__ndk1::allocator<char> >, std::__ndk1::shared_ptr<geode::Hook> >, std::__ndk1::less<std::__ndk1::basic_string<char, std::__ndk1::char_traits<char>, std::__ndk1::allocator<char> > >, true>, std::__ndk1::allocator<std::__ndk1::__value_type<std::__ndk1::basic_string<char, std::__ndk1::char_traits<char>, std::__ndk1::allocator<char> >, std::__ndk1::shared_ptr<geode::Hook> > > >::destroy(std::__ndk1::__tree_node<std::__ndk1::__value_type<std::__ndk1::basic_string<char, std::__ndk1::char_traits<char>, std::__ndk1::allocator<char> >, std::__ndk1::shared_ptr<geode::Hook> >, void*>*)
PUBLIC 3fdd8 0 geode::modifier::AsStaticFunction_canBeActivatedByPlayer<GameLayer, bool (GameLayer::*)(PlayerObject*, EffectGameObject*)>::Impl<bool (GameLayer::*)(PlayerObject*, EffectGameObject*)>::function(GameLayer*, PlayerObject*, EffectGameObject*)
PUBLIC 3fe98 0 geode::modifier::AsStaticFunction_processCommands<GameLayer, void (GameLayer::*)(float)>::Impl<void (GameLayer::*)(float)>::function(GameLayer*, float)
PUBLIC 405c8 0 std::__ndk1::shared_ptr<tulip::hook::CallingConvention>::~shared_ptr[abi:ne180000]()
PUBLIC 40618 0 tulip::hook::HandlerMetadata::~HandlerMetadata()
PUBLIC 4067c 0 std::__ndk1::vector<tulip::hook::AbstractType, std::__ndk1::allocator<tulip::hook::AbstractType> >::__throw_length_error[abi:ne180000]() const
PUBLIC 40690 0 std::__ndk1::__tree<std::__ndk1::__value_type<std::__ndk1::basic_string<char, std::__ndk1::char_traits<char>, std::__ndk1::allocator<char> >, std::__ndk1::shared_ptr<geode::Hook> >, std::__ndk1::__map_value_compare<std::__ndk1::basic_string<char, std::__ndk1::char_traits<char>, std::__ndk1::allocator<char> >, std::__ndk1::__value_type<std::__ndk1::basic_string<char, std::__ndk1::char_traits<char>, std::__ndk1::allocator<char> >, std::__ndk1::shared_ptr<geode::Hook> >, std::__ndk1::less<std::__ndk1::basic_string<char, std::__ndk1::char_traits<char>, std::__ndk1::allocator<char> > >, true>, std::__ndk1::allocator<std::__ndk1::__value_type<std::__ndk1::basic_string<char, std::__ndk1::char_traits<char>, std::__ndk1::allocator<char> >, std::__ndk1::shared_ptr<geode::Hook> > > >::__emplace_unique_key_args<std::__ndk1::basic_string<char, std::__ndk1::char_traits<char>, std::__ndk1::allocator<char> >, std::__ndk1::piecewise_construct_t const&, std::__ndk1::tuple<std::__ndk1::basic_string<char, std::__ndk1::char_traits<char>, std::__ndk1::allocator<char> >&&>, std::__ndk1::tuple<> >(std::__ndk1::basic_string<char, std::__ndk1::char_traits<char>, std::__ndk1::allocator<char> > const&, std::__ndk1::piecewise_construct_t const&, std::__ndk1::tuple<std::__ndk1::basic_string<char, std::__ndk1::char_traits<char>, std::__ndk1::allocator<char> >&&>, std::__ndk1::tuple<>)
PUBLIC 407f8 0 std::__ndk1::__tree_balance_after_insert[abi:ne180000]<std::__ndk1::__tree_node_base<void*>*>(std::__ndk1::__tree_node_base<void*>*, std::__ndk1::__tree_node_base<void*>*)
PUBLIC 409a8 0 std::__ndk1::__function::__func<GameLayer::processCommands(float)::{lambda()#1}, std::__ndk1::allocator<GameLayer::processCommands(float)::{lambda()#1}>, void ()>::~__func()
PUBLIC 409ac 0 std::__ndk1::__function::__func<GameLayer::processCommands(float)::{lambda()#1}, std::__ndk1::allocator<GameLayer::processCommands(float)::{lambda()#1}>, void ()>::__clone() const
PUBLIC 409e0 0 std::__ndk1::__function::__func<GameLayer::processCommands(float)::{lambda()#1}, std::__ndk1::allocator<GameLayer::processCommands(float)::{lambda()#1}>, void ()>::__clone(std::__ndk1::__function::__base<void ()>*) const
PUBLIC 409f4 0 std::__ndk1::__function::__func<GameLayer::processCommands(float)::{lambda()#1}, std::__ndk1::allocator<GameLayer::processCommands(float)::{lambda()#1}>, void ()>::destroy()
PUBLIC 409f8 0 std::__ndk1::__function::__func<GameLayer::processCommands(float)::{lambda()#1}, std::__ndk1::allocator<GameLayer::processCommands(float)::{lambda()#1}>, void ()>::destroy_deallocate()
PUBLIC 409fc 0 std::__ndk1::__function::__func<GameLayer::processCommands(float)::{lambda()#1}, std::__ndk1::allocator<GameLayer::processCommands(float)::{lambda()#1}>, void ()>::operator()()
PUBLIC 40a28 0 std::__ndk1::__function::__func<GameLayer::processCommands(float)::{lambda()#1}, std::__ndk1::allocator<GameLayer::processCommands(float)::{lambda()#1}>, void ()>::target(std::type_info const&) const
PUBLIC 40a44 0 std::__ndk1::__function::__func<GameLayer::processCommands(float)::{lambda()#1}, std::__ndk1::allocator<GameLayer::processCommands(float)::{lambda()#1}>, void ()>::target_type() const
PUBLIC 40a50 0 std::__ndk1::__function::__func<GameLayer::processCommands(float)::{lambda()#2}, std::__ndk1::allocator<GameLayer::processCommands(float)::{lambda()#2}>, void ()>::~__func()
PUBLIC 40a54 0 std::__ndk1::__function::__func<GameLayer::processCommands(float)::{lambda()#2}, std::__ndk1::allocator<GameLayer::processCommands(float)::{lambda()#2}>, void ()>::__clone() const
PUBLIC 40a88 0 std::__ndk1::__function::__func<GameLayer::processCommands(float)::{lambda()#2}, std::__ndk1::allocator<GameLayer::processCommands(float)::{lambda()#2}>, void ()>::__clone(std::__ndk1::__function::__base<void ()>*) const
PUBLIC 40a9c 0 std::__ndk1::__function::__func<GameLayer::processCommands(float)::{lambda()#2}, std::__ndk1::allocator<GameLayer::processCommands(float)::{lambda()#2}>, void ()>::destroy()
PUBLIC 40aa0 0 std::__ndk1::__function::__func<GameLayer::processCommands(float)::{lambda()#2}, std::__ndk1::allocator<GameLayer::processCommands(float)::{lambda()#2}>, void ()>::destroy_deallocate()
PUBLIC 40aa4 0 std::__ndk1::__function::__func<GameLayer::processCommands(float)::{lambda()#2}, std::__ndk1::allocator<GameLayer::processCommands(float)::{lambda()#2}>, void ()>::operator()()
PUBLIC 40c7c 0 std::__ndk1::__function::__func<GameLayer::processCommands(float)::{lambda()#2}, std::__ndk1::allocator<GameLayer::processCommands(float)::{lambda()#2}>, void ()>::target(std::type_info const&) const
PUBLIC 40c98 0 std::__ndk1::__function::__func<GameLayer::processCommands(float)::{lambda()#2}, std::__ndk1::allocator<GameLayer::processCommands(float)::{lambda()#2}>, void ()>::target_type() const
PUBLIC 40ca4 0 std::__ndk1::vector<Action, std::__ndk1::allocator<Action> >::__push_back_slow_path<Action const&>(Action const&)
PUBLIC 40f04 0 std::__ndk1::__variant_detail::__visitation::__base::__dispatcher<(unsigned long)0, (unsigned long)0>::__dispatch[abi:ne180000]<std::__ndk1::__variant_detail::__ctor<std::__ndk1::__variant_detail::__traits<PositionData, MiniData, FlipData, VehicleData, SidewaysData, AnimationData, EffectData, InputData, bool> >::__generic_construct[abi:ne180000]<std::__ndk1::__variant_detail::__copy_constructor<InputData, (std::__ndk1::__variant_detail::_Trait)1> const&>(std::__ndk1::__variant_detail::__traits<PositionData, MiniData, FlipData, VehicleData, SidewaysData, AnimationData, EffectData, InputData, bool>&, std::__ndk1::__variant_detail::__copy_constructor<InputData, (std::__ndk1::__variant_detail::_Trait)1> const&)::{lambda(std::__ndk1::__variant_detail::__copy_constructor<InputData, (std::__ndk1::__variant_detail::_Trait)1> const&, auto:2&&)#1}, std::__ndk1::__variant_detail::__base<(std::__ndk1::__variant_detail::__ctor<std::__ndk1::__variant_detail::__traits<PositionData, MiniData, FlipData, VehicleData, SidewaysData, AnimationData, EffectData, InputData, bool> >::__generic_construct[abi:ne180000])0, std::__ndk1::__variant_detail::__traits, PositionData, MiniData, FlipData, VehicleData, SidewaysData, AnimationData, EffectData, bool>&, std::__ndk1::__variant_detail::__ctor<std::__ndk1::__variant_detail::__traits<PositionData, MiniData, FlipData, VehicleData, SidewaysData, AnimationData, EffectData, InputData, bool> >::__generic_construct[abi:ne180000]<std::__ndk1::__variant_detail::__copy_constructor<InputData, (std::__ndk1::__variant_detail::_Trait)1> const&>(std::__ndk1::__variant_detail::__traits<PositionData, MiniData, FlipData, VehicleData, SidewaysData, AnimationData, EffectData, InputData, bool>&, std::__ndk1::__variant_detail::__copy_constructor<InputData, (std::__ndk1::__variant_detail::_Trait)1> const&)::{lambda(std::__ndk1::__variant_detail::__copy_constructor<InputData, (std::__ndk1::__variant_detail::_Trait)1> const&, auto:2&&)#1} const&>(std::__ndk1::__variant_detail::__copy_constructor<InputData, (std::__ndk1::__variant_detail::_Trait)1> const&, std::__ndk1::__variant_detail::__base<(std::__ndk1::__variant_detail::__ctor<std::__ndk1::__variant_detail::__traits<PositionData, MiniData, FlipData, VehicleData, SidewaysData, AnimationData, EffectData, InputData, bool> >::__generic_construct[abi:ne180000])0, std::__ndk1::__variant_detail::__traits, PositionData, MiniData, FlipData, VehicleData, SidewaysData, AnimationData, EffectData, bool>&, std::__ndk1::__variant_detail::__ctor<std::__ndk1::__variant_detail::__traits<PositionData, MiniData, FlipData, VehicleData, SidewaysData, AnimationData, EffectData, InputData, bool> >::__generic_construct[abi:ne180000]<std::__ndk1::__variant_detail::__copy_constructor<InputData, (std::__ndk1::__variant_detail::_Trait)1> const&>(std::__ndk1::__variant_detail::__traits<PositionData, MiniData, FlipData, VehicleData, SidewaysData, AnimationData, EffectData, InputData, bool>&, std::__ndk1::__variant_detail::__copy_constructor<InputData, (std::__ndk1::__variant_detail::_Trait)1> const&)::{lambda(std::__ndk1::__variant_detail::__copy_constructor<InputData, (std::__ndk1::__variant_detail::_Trait)1> const&, auto:2&&)#1} const&)
PUBLIC 40f38 0 std::__ndk1::__variant_detail::__visitation::__base::__dispatcher<(unsigned long)1, (unsigned long)1>::__dispatch[abi:ne180000]<std::__ndk1::__variant_detail::__ctor<std::__ndk1::__variant_detail::__traits<PositionData, MiniData, FlipData, VehicleData, SidewaysData, AnimationData, EffectData, InputData, bool> >::__generic_construct[abi:ne180000]<std::__ndk1::__variant_detail::__copy_constructor<InputData, (std::__ndk1::__variant_detail::_Trait)1> const&>(std::__ndk1::__variant_detail::__traits<PositionData, MiniData, FlipData, VehicleData, SidewaysData, AnimationData, EffectData, InputData, bool>&, std::__ndk1::__variant_detail::__copy_constructor<InputData, (std::__ndk1::__variant_detail::_Trait)1> const&)::{lambda(std::__ndk1::__variant_detail::__copy_constructor<InputData, (std::__ndk1::__variant_detail::_Trait)1> const&, auto:2&&)#1}, std::__ndk1::__variant_detail::__base<(std::__ndk1::__variant_detail::__ctor<std::__ndk1::__variant_detail::__traits<PositionData, MiniData, FlipData, VehicleData, SidewaysData, AnimationData, EffectData, InputData, bool> >::__generic_construct[abi:ne180000])0, std::__ndk1::__variant_detail::__traits, PositionData, MiniData, FlipData, VehicleData, SidewaysData, AnimationData, EffectData, bool>&, std::__ndk1::__variant_detail::__ctor<std::__ndk1::__variant_detail::__traits<PositionData, MiniData, FlipData, VehicleData, SidewaysData, AnimationData, EffectData, InputData, bool> >::__generic_construct[abi:ne180000]<std::__ndk1::__variant_detail::__copy_constructor<InputData, (std::__ndk1::__variant_detail::_Trait)1> const&>(std::__ndk1::__variant_detail::__traits<PositionData, MiniData, FlipData, VehicleData, SidewaysData, AnimationData, EffectData, InputData, bool>&, std::__ndk1::__variant_detail::__copy_constructor<InputData, (std::__ndk1::__variant_detail::_Trait)1> const&)::{lambda(std::__ndk1::__variant_detail::__copy_constructor<InputData, (std::__ndk1::__variant_detail::_Trait)1> const&, auto:2&&)#1} const&>(std::__ndk1::__variant_detail::__copy_constructor<InputData, (std::__ndk1::__variant_detail::_Trait)1> const&, std::__ndk1::__variant_detail::__base<(std::__ndk1::__variant_detail::__ctor<std::__ndk1::__variant_detail::__traits<PositionData, MiniData, FlipData, VehicleData, SidewaysData, AnimationData, EffectData, InputData, bool> >::__generic_construct[abi:ne180000])0, std::__ndk1::__variant_detail::__traits, PositionData, MiniData, FlipData, VehicleData, SidewaysData, AnimationData, EffectData, bool>&, std::__ndk1::__variant_detail::__ctor<std::__ndk1::__variant_detail::__traits<PositionData, MiniData, FlipData, VehicleData, SidewaysData, AnimationData, EffectData, InputData, bool> >::__generic_construct[abi:ne180000]<std::__ndk1::__variant_detail::__copy_constructor<InputData, (std::__ndk1::__variant_detail::_Trait)1> const&>(std::__ndk1::__variant_detail::__traits<PositionData, MiniData, FlipData, VehicleData, SidewaysData, AnimationData, EffectData, InputData, bool>&, std::__ndk1::__variant_detail::__copy_constructor<InputData, (std::__ndk1::__variant_detail::_Trait)1> const&)::{lambda(std::__ndk1::__variant_detail::__copy_constructor<InputData, (std::__ndk1::__variant_detail::_Trait)1> const&, auto:2&&)#1} const&)
PUBLIC 40f44 0 std::__ndk1::__variant_detail::__visitation::__base::__dispatcher<(unsigned long)2, (unsigned long)2>::__dispatch[abi:ne180000]<std::__ndk1::__variant_detail::__ctor<std::__ndk1::__variant_detail::__traits<PositionData, MiniData, FlipData, VehicleData, SidewaysData, AnimationData, EffectData, InputData, bool> >::__generic_construct[abi:ne180000]<std::__ndk1::__variant_detail::__copy_constructor<InputData, (std::__ndk1::__variant_detail::_Trait)1> const&>(std::__ndk1::__variant_detail::__traits<PositionData, MiniData, FlipData, VehicleData, SidewaysData, AnimationData, EffectData, InputData, bool>&, std::__ndk1::__variant_detail::__copy_constructor<InputData, (std::__ndk1::__variant_detail::_Trait)1> const&)::{lambda(std::__ndk1::__variant_detail::__copy_constructor<InputData, (std::__ndk1::__variant_detail::_Trait)1> const&, auto:2&&)#1}, std::__ndk1::__variant_detail::__base<(std::__ndk1::__variant_detail::__ctor<std::__ndk1::__variant_detail::__traits<PositionData, MiniData, FlipData, VehicleData, SidewaysData, AnimationData, EffectData, InputData, bool> >::__generic_construct[abi:ne180000])0, std::__ndk1::__variant_detail::__traits, PositionData, MiniData, FlipData, VehicleData, SidewaysData, AnimationData, EffectData, bool>&, std::__ndk1::__variant_detail::__ctor<std::__ndk1::__variant_detail::__traits<PositionData, MiniData, FlipData, VehicleData, SidewaysData, AnimationData, EffectData, InputData, bool> >::__generic_construct[abi:ne180000]<std::__ndk1::__variant_detail::__copy_constructor<InputData, (std::__ndk1::__variant_detail::_Trait)1> const&>(std::__ndk1::__variant_detail::__traits<PositionData, MiniData, FlipData, VehicleData, SidewaysData, AnimationData, EffectData, InputData, bool>&, std::__ndk1::__variant_detail::__copy_constructor<InputData, (std::__ndk1::__variant_detail::_Trait)1> const&)::{lambda(std::__ndk1::__variant_detail::__copy_constructor<InputData, (std::__ndk1::__variant_detail::_Trait)1> const&, auto:2&&)#1} const&>(std::__ndk1::__variant_detail::__copy_constructor<InputData, (std::__ndk1::__variant_detail::_Trait)1> const&, std::__ndk1::__variant_detail::__base<(std::__ndk1::__variant_detail::__ctor<std::__ndk1::__variant_detail::__traits<PositionData, MiniData, FlipData, VehicleData, SidewaysData, AnimationData, EffectData, InputData, bool> >::__generic_construct[abi:ne180000])0, std::__ndk1::__variant_detail::__traits, PositionData, MiniData, FlipData, VehicleData, SidewaysData, AnimationData, EffectData, bool>&, std::__ndk1::__variant_detail::__ctor<std::__ndk1::__variant_detail::__traits<PositionData, MiniData, FlipData, VehicleData, SidewaysData, AnimationData, EffectData, InputData, bool> >::__generic_construct[abi:ne180000]<std::__ndk1::__variant_detail::__copy_constructor<InputData, (std::__ndk1::__variant_detail::_Trait)1> const&>(std::__ndk1::__variant_detail::__traits<PositionData, MiniData, FlipData, VehicleData, SidewaysData, AnimationData, EffectData, InputData, bool>&, std::__ndk1::__variant_detail::__copy_constructor<InputData, (std::__ndk1::__variant_detail::_Trait)1> const&)::{lambda(std::__ndk1::__variant_detail::__copy_constructor<InputData, (std::__ndk1::__variant_detail::_Trait)1> const&, auto:2&&)#1} const&)
PUBLIC 40f58 0 std::__ndk1::__variant_detail::__visitation::__base::__dispatcher<(unsigned long)3, (unsigned long)3>::__dispatch[abi:ne180000]<std::__ndk1::__variant_detail::__ctor<std::__ndk1::__variant_detail::__traits<PositionData, MiniData, FlipData, VehicleData, SidewaysData, AnimationData, EffectData, InputData, bool> >::__generic_construct[abi:ne180000]<std::__ndk1::__variant_detail::__copy_constructor<InputData, (std::__ndk1::__variant_detail::_Trait)1> const&>(std::__ndk1::__variant_detail::__traits<PositionData, MiniData, FlipData, VehicleData, SidewaysData, AnimationData, EffectData, InputData, bool>&, std::__ndk1::__variant_detail::__copy_constructor<InputData, (std::__ndk1::__variant_detail::_Trait)1> const&)::{lambda(std::__ndk1::__variant_detail::__copy_constructor<InputData, (std::__ndk1::__variant_detail::_Trait)1> const&, auto:2&&)#1}, std::__ndk1::__variant_detail::__base<(std::__ndk1::__variant_detail::__ctor<std::__ndk1::__variant_detail::__traits<PositionData, MiniData, FlipData, VehicleData, SidewaysData, AnimationData, EffectData, InputData, bool> >::__generic_construct[abi:ne180000])0, std::__ndk1::__variant_detail::__traits, PositionData, MiniData, FlipData, VehicleData, SidewaysData, AnimationData, EffectData, bool>&, std::__ndk1::__variant_detail::__ctor<std::__ndk1::__variant_detail::__traits<PositionData, MiniData, FlipData, VehicleData, SidewaysData, AnimationData, EffectData, InputData, bool> >::__generic_construct[abi:ne180000]<std::__ndk1::__variant_detail::__copy_constructor<InputData, (std::__ndk1::__variant_detail::_Trait)1> const&>(std::__ndk1::__variant_detail::__traits<PositionData, MiniData, FlipData, VehicleData, SidewaysData, AnimationData, EffectData, InputData, bool>&, std::__ndk1::__variant_detail::__copy_constructor<InputData, (std::__ndk1::__variant_detail::_Trait)1> const&)::{lambda(std::__ndk1::__variant_detail::__copy_constructor<InputData, (std::__ndk1::__variant_detail::_Trait)1> const&, auto:2&&)#1} const&>(std::__ndk1::__variant_detail::__copy_constructor<InputData, (std::__ndk1::__variant_detail::_Trait)1> const&, std::__ndk1::__variant_detail::__base<(std::__ndk1::__variant_detail::__ctor<std::__ndk1::__variant_detail::__traits<PositionData, MiniData, FlipData, VehicleData, SidewaysData, AnimationData, EffectData, InputData, bool> >::__generic_construct[abi:ne180000])0, std::__ndk1::__variant_detail::__traits, PositionData, MiniData, FlipData, VehicleData, SidewaysData, AnimationData, EffectData, bool>&, std::__ndk1::__variant_detail::__ctor<std::__ndk1::__variant_detail::__traits<PositionData, MiniData, FlipData, VehicleData, SidewaysData, AnimationData, EffectData, InputData, bool> >::__generic_construct[abi:ne180000]<std::__ndk1::__variant_detail::__copy_constructor<InputData, (std::__ndk1::__variant_detail::_Trait)1> const&>(std::__ndk1::__variant_detail::__traits<PositionData, MiniData, FlipData, VehicleData, SidewaysData, AnimationData, EffectData, InputData, bool>&, std::__ndk1::__variant_detail::__copy_constructor<InputData, (std::__ndk1::__variant_detail::_Trait)1> const&)::{lambda(std::__ndk1::__variant_detail::__copy_constructor<InputData, (std::__ndk1::__variant_detail::_Trait)1> const&, auto:2&&)#1} const&)
PUBLIC 40f64 0 std::__ndk1::__variant_detail::__visitation::__base::__dispatcher<(unsigned long)4, (unsigned long)4>::__dispatch[abi:ne180000]<std::__ndk1::__variant_detail::__ctor<std::__ndk1::__variant_detail::__traits<PositionData, MiniData, FlipData, VehicleData, SidewaysData, AnimationData, EffectData, InputData, bool> >::__generic_construct[abi:ne180000]<std::__ndk1::__variant_detail::__copy_constructor<InputData, (std::__ndk1::__variant_detail::_Trait)1> const&>(std::__ndk1::__variant_detail::__traits<PositionData, MiniData, FlipData, VehicleData, SidewaysData, AnimationData, EffectData, InputData, bool>&, std::__ndk1::__variant_detail::__copy_constructor<InputData, (std::__ndk1::__variant_detail::_Trait)1> const&)::{lambda(std::__ndk1::__variant_detail::__copy_constructor<InputData, (std::__ndk1::__variant_detail::_Trait)1> const&, auto:2&&)#1}, std::__ndk1::__variant_detail::__base<(std::__ndk1::__variant_detail::__ctor<std::__ndk1::__variant_detail::__traits<PositionData, MiniData, FlipData, VehicleData, SidewaysData, AnimationData, EffectData, InputData, bool> >::__generic_construct[abi:ne180000])0, std::__ndk1::__variant_detail::__traits, PositionData, MiniData, FlipData, VehicleData, SidewaysData, AnimationData, EffectData, bool>&, std::__ndk1::__variant_detail::__ctor<std::__ndk1::__variant_detail::__traits<PositionData, MiniData, FlipData, VehicleData, SidewaysData, AnimationData, EffectData, InputData, bool> >::__generic_construct[abi:ne180000]<std::__ndk1::__variant_detail::__copy_constructor<InputData, (std::__ndk1::__variant_detail::_Trait)1> const&>(std::__ndk1::__variant_detail::__traits<PositionData, MiniData, FlipData, VehicleData, SidewaysData, AnimationData, EffectData, InputData, bool>&, std::__ndk1::__variant_detail::__copy_constructor<InputData, (std::__ndk1::__variant_detail::_Trait)1> const&)::{lambda(std::__ndk1::__variant_detail::__copy_constructor<InputData, (std::__ndk1::__variant_detail::_Trait)1> const&, auto:2&&)#1} const&>(std::__ndk1::__variant_detail::__copy_constructor<InputData, (std::__ndk1::__variant_detail::_Trait)1> const&, std::__ndk1::__variant_detail::__base<(std::__ndk1::__variant_detail::__ctor<std::__ndk1::__variant_detail::__traits<PositionData, MiniData, FlipData, VehicleData, SidewaysData, AnimationData, EffectData, InputData, bool> >::__generic_construct[abi:ne180000])0, std::__ndk1::__variant_detail::__traits, PositionData, MiniData, FlipData, VehicleData, SidewaysData, AnimationData, EffectData, bool>&, std::__ndk1::__variant_detail::__ctor<std::__ndk1::__variant_detail::__traits<PositionData, MiniData, FlipData, VehicleData, SidewaysData, AnimationData, EffectData, InputData, bool> >::__generic_construct[abi:ne180000]<std::__ndk1::__variant_detail::__copy_constructor<InputData, (std::__ndk1::__variant_detail::_Trait)1> const&>(std::__ndk1::__variant_detail::__traits<PositionData, MiniData, FlipData, VehicleData, SidewaysData, AnimationData, EffectData, InputData, bool>&, std::__ndk1::__variant_detail::__copy_constructor<InputData, (std::__ndk1::__variant_detail::_Trait)1> const&)::{lambda(std::__ndk1::__variant_detail::__copy_constructor<InputData, (std::__ndk1::__variant_detail::_Trait)1> const&, auto:2&&)#1} const&)
PUBLIC 40f70 0 std::__ndk1::__variant_detail::__visitation::__base::__dispatcher<(unsigned long)5, (unsigned long)5>::__dispatch[abi:ne180000]<std::__ndk1::__variant_detail::__ctor<std::__ndk1::__variant_detail::__traits<PositionData, MiniData, FlipData, VehicleData, SidewaysData, AnimationData, EffectData, InputData, bool> >::__generic_construct[abi:ne180000]<std::__ndk1::__variant_detail::__copy_constructor<InputData, (std::__ndk1::__variant_detail::_Trait)1> const&>(std::__ndk1::__variant_detail::__traits<PositionData, MiniData, FlipData, VehicleData, SidewaysData, AnimationData, EffectData, InputData, bool>&, std::__ndk1::__variant_detail::__copy_constructor<InputData, (std::__ndk1::__variant_detail::_Trait)1> const&)::{lambda(std::__ndk1::__variant_detail::__copy_constructor<InputData, (std::__ndk1::__variant_detail::_Trait)1> const&, auto:2&&)#1}, std::__ndk1::__variant_detail::__base<(std::__ndk1::__variant_detail::__ctor<std::__ndk1::__variant_detail::__traits<PositionData, MiniData, FlipData, VehicleData, SidewaysData, AnimationData, EffectData, InputData, bool> >::__generic_construct[abi:ne180000])0, std::__ndk1::__variant_detail::__traits, PositionData, MiniData, FlipData, VehicleData, SidewaysData, AnimationData, EffectData, bool>&, std::__ndk1::__variant_detail::__ctor<std::__ndk1::__variant_detail::__traits<PositionData, MiniData, FlipData, VehicleData, SidewaysData, AnimationData, EffectData, InputData, bool> >::__generic_construct[abi:ne180000]<std::__ndk1::__variant_detail::__copy_constructor<InputData, (std::__ndk1::__variant_detail::_Trait)1> const&>(std::__ndk1::__variant_detail::__traits<PositionData, MiniData, FlipData, VehicleData, SidewaysData, AnimationData, EffectData, InputData, bool>&, std::__ndk1::__variant_detail::__copy_constructor<InputData, (std::__ndk1::__variant_detail::_Trait)1> const&)::{lambda(std::__ndk1::__variant_detail::__copy_constructor<InputData, (std::__ndk1::__variant_detail::_Trait)1> const&, auto:2&&)#1} const&>(std::__ndk1::__variant_detail::__copy_constructor<InputData, (std::__ndk1::__variant_detail::_Trait)1> const&, std::__ndk1::__variant_detail::__base<(std::__ndk1::__variant_detail::__ctor<std::__ndk1::__variant_detail::__traits<PositionData, MiniData, FlipData, VehicleData, SidewaysData, AnimationData, EffectData, InputData, bool> >::__generic_construct[abi:ne180000])0, std::__ndk1::__variant_detail::__traits, PositionData, MiniData, FlipData, VehicleData, SidewaysData, AnimationData, EffectData, bool>&, std::__ndk1::__variant_detail::__ctor<std::__ndk1::__variant_detail::__traits<PositionData, MiniData, FlipData, VehicleData, SidewaysData, AnimationData, EffectData, InputData, bool> >::__generic_construct[abi:ne180000]<std::__ndk1::__variant_detail::__copy_constructor<InputData, (std::__ndk1::__variant_detail::_Trait)1> const&>(std::__ndk1::__variant_detail::__traits<PositionData, MiniData, FlipData, VehicleData, SidewaysData, AnimationData, EffectData, InputData, bool>&, std::__ndk1::__variant_detail::__copy_constructor<InputData, (std::__ndk1::__variant_detail::_Trait)1> const&)::{lambda(std::__ndk1::__variant_detail::__copy_constructor<InputData, (std::__ndk1::__variant_detail::_Trait)1> const&, auto:2&&)#1} const&)
PUBLIC 40f84 0 std::__ndk1::__variant_detail::__visitation::__base::__dispatcher<(unsigned long)6, (unsigned long)6>::__dispatch[abi:ne180000]<std::__ndk1::__variant_detail::__ctor<std::__ndk1::__variant_detail::__traits<PositionData, MiniData, FlipData, VehicleData, SidewaysData, AnimationData, EffectData, InputData, bool> >::__generic_construct[abi:ne180000]<std::__ndk1::__variant_detail::__copy_constructor<InputData, (std::__ndk1::__variant_detail::_Trait)1> const&>(std::__ndk1::__variant_detail::__traits<PositionData, MiniData, FlipData, VehicleData, SidewaysData, AnimationData, EffectData, InputData, bool>&, std::__ndk1::__variant_detail::__copy_constructor<InputData, (std::__ndk1::__variant_detail::_Trait)1> const&)::{lambda(std::__ndk1::__variant_detail::__copy_constructor<InputData, (std::__ndk1::__variant_detail::_Trait)1> const&, auto:2&&)#1}, std::__ndk1::__variant_detail::__base<(std::__ndk1::__variant_detail::__ctor<std::__ndk1::__variant_detail::__traits<PositionData, MiniData, FlipData, VehicleData, SidewaysData, AnimationData, EffectData, InputData, bool> >::__generic_construct[abi:ne180000])0, std::__ndk1::__variant_detail::__traits, PositionData, MiniData, FlipData, VehicleData, SidewaysData, AnimationData, EffectData, bool>&, std::__ndk1::__variant_detail::__ctor<std::__ndk1::__variant_detail::__traits<PositionData, MiniData, FlipData, VehicleData, SidewaysData, AnimationData, EffectData, InputData, bool> >::__generic_construct[abi:ne180000]<std::__ndk1::__variant_detail::__copy_constructor<InputData, (std::__ndk1::__variant_detail::_Trait)1> const&>(std::__ndk1::__variant_detail::__traits<PositionData, MiniData, FlipData, VehicleData, SidewaysData, AnimationData, EffectData, InputData, bool>&, std::__ndk1::__variant_detail::__copy_constructor<InputData, (std::__ndk1::__variant_detail::_Trait)1> const&)::{lambda(std::__ndk1::__variant_detail::__copy_constructor<InputData, (std::__ndk1::__variant_detail::_Trait)1> const&, auto:2&&)#1} const&>(std::__ndk1::__variant_detail::__copy_constructor<InputData, (std::__ndk1::__variant_detail::_Trait)1> const&, std::__ndk1::__variant_detail::__base<(std::__ndk1::__variant_detail::__ctor<std::__ndk1::__variant_detail::__traits<PositionData, MiniData, FlipData, VehicleData, SidewaysData, AnimationData, EffectData, InputData, bool> >::__generic_construct[abi:ne180000])0, std::__ndk1::__variant_detail::__traits, PositionData, MiniData, FlipData, VehicleData, SidewaysData, AnimationData, EffectData, bool>&, std::__ndk1::__variant_detail::__ctor<std::__ndk1::__variant_detail::__traits<PositionData, MiniData, FlipData, VehicleData, SidewaysData, AnimationData, EffectData, InputData, bool> >::__generic_construct[abi:ne180000]<std::__ndk1::__variant_detail::__copy_constructor<InputData, (std::__ndk1::__variant_detail::_Trait)1> const&>(std::__ndk1::__variant_detail::__traits<PositionData, MiniData, FlipData, VehicleData, SidewaysData, AnimationData, EffectData, InputData, bool>&, std::__ndk1::__variant_detail::__copy_constructor<InputData, (std::__ndk1::__variant_detail::_Trait)1> const&)::{lambda(std::__ndk1::__variant_detail::__copy_constructor<InputData, (std::__ndk1::__variant_detail::_Trait)1> const&, auto:2&&)#1} const&)
PUBLIC 40f90 0 std::__ndk1::__variant_detail::__visitation::__base::__dispatcher<(unsigned long)7, (unsigned long)7>::__dispatch[abi:ne180000]<std::__ndk1::__variant_detail::__ctor<std::__ndk1::__variant_detail::__traits<PositionData, MiniData, FlipData, VehicleData, SidewaysData, AnimationData, EffectData, InputData, bool> >::__generic_construct[abi:ne180000]<std::__ndk1::__variant_detail::__copy_constructor<InputData, (std::__ndk1::__variant_detail::_Trait)1> const&>(std::__ndk1::__variant_detail::__traits<PositionData, MiniData, FlipData, VehicleData, SidewaysData, AnimationData, EffectData, InputData, bool>&, std::__ndk1::__variant_detail::__copy_constructor<InputData, (std::__ndk1::__variant_detail::_Trait)1> const&)::{lambda(std::__ndk1::__variant_detail::__copy_constructor<InputData, (std::__ndk1::__variant_detail::_Trait)1> const&, auto:2&&)#1}, std::__ndk1::__variant_detail::__base<(std::__ndk1::__variant_detail::__ctor<std::__ndk1::__variant_detail::__traits<PositionData, MiniData, FlipData, VehicleData, SidewaysData, AnimationData, EffectData, InputData, bool> >::__generic_construct[abi:ne180000])0, std::__ndk1::__variant_detail::__traits, PositionData, MiniData, FlipData, VehicleData, SidewaysData, AnimationData, EffectData, bool>&, std::__ndk1::__variant_detail::__ctor<std::__ndk1::__variant_detail::__traits<PositionData, MiniData, FlipData, VehicleData, SidewaysData, AnimationData, EffectData, InputData, bool> >::__generic_construct[abi:ne180000]<std::__ndk1::__variant_detail::__copy_constructor<InputData, (std::__ndk1::__variant_detail::_Trait)1> const&>(std::__ndk1::__variant_detail::__traits<PositionData, MiniData, FlipData, VehicleData, SidewaysData, AnimationData, EffectData, InputData, bool>&, std::__ndk1::__variant_detail::__copy_constructor<InputData, (std::__ndk1::__variant_detail::_Trait)1> const&)::{lambda(std::__ndk1::__variant_detail::__copy_constructor<InputData, (std::__ndk1::__variant_detail::_Trait)1> const&, auto:2&&)#1} const&>(std::__ndk1::__variant_detail::__copy_constructor<InputData, (std::__ndk1::__variant_detail::_Trait)1> const&, std::__ndk1::__variant_detail::__base<(std::__ndk1::__variant_detail::__ctor<std::__ndk1::__variant_detail::__traits<PositionData, MiniData, FlipData, VehicleData, SidewaysData, AnimationData, EffectData, InputData, bool> >::__generic_construct[abi:ne180000])0, std::__ndk1::__variant_detail::__traits, PositionData, MiniData, FlipData, VehicleData, SidewaysData, AnimationData, EffectData, bool>&, std::__ndk1::__variant_detail::__ctor<std::__ndk1::__variant_detail::__traits<PositionData, MiniData, FlipData, VehicleData, SidewaysData, AnimationData, EffectData, InputData, bool> >::__generic_construct[abi:ne180000]<std::__ndk1::__variant_detail::__copy_constructor<InputData, (std::__ndk1::__variant_detail::_Trait)1> const&>(std::__ndk1::__variant_detail::__traits<PositionData, MiniData, FlipData, VehicleData, SidewaysData, AnimationData, EffectData, InputData, bool>&, std::__ndk1::__variant_detail::__copy_constructor<InputData, (std::__ndk1::__variant_detail::_Trait)1> const&)::{lambda(std::__ndk1::__variant_detail::__copy_constructor<InputData, (std::__ndk1::__variant_detail::_Trait)1> const&, auto:2&&)#1} const&)
PUBLIC 40f9c 0 std::__ndk1::__variant_detail::__visitation::__base::__dispatcher<(unsigned long)8, (unsigned long)8>::__dispatch[abi:ne180000]<std::__ndk1::__variant_detail::__ctor<std::__ndk1::__variant_detail::__traits<PositionData, MiniData, FlipData, VehicleData, SidewaysData, AnimationData, EffectData, InputData, bool> >::__generic_construct[abi:ne180000]<std::__ndk1::__variant_detail::__copy_constructor<InputData, (std::__ndk1::__variant_detail::_Trait)1> const&>(std::__ndk1::__variant_detail::__traits<PositionData, MiniData, FlipData, VehicleData, SidewaysData, AnimationData, EffectData, InputData, bool>&, std::__ndk1::__variant_detail::__copy_constructor<InputData, (std::__ndk1::__variant_detail::_Trait)1> const&)::{lambda(std::__ndk1::__variant_detail::__copy_constructor<InputData, (std::__ndk1::__variant_detail::_Trait)1> const&, auto:2&&)#1}, std::__ndk1::__variant_detail::__base<(std::__ndk1::__variant_detail::__ctor<std::__ndk1::__variant_detail::__traits<PositionData, MiniData, FlipData, VehicleData, SidewaysData, AnimationData, EffectData, InputData, bool> >::__generic_construct[abi:ne180000])0, std::__ndk1::__variant_detail::__traits, PositionData, MiniData, FlipData, VehicleData, SidewaysData, AnimationData, EffectData, bool>&, std::__ndk1::__variant_detail::__ctor<std::__ndk1::__variant_detail::__traits<PositionData, MiniData, FlipData, VehicleData, SidewaysData, AnimationData, EffectData, InputData, bool> >::__generic_construct[abi:ne180000]<std::__ndk1::__variant_detail::__copy_constructor<InputData, (std::__ndk1::__variant_detail::_Trait)1> const&>(std::__ndk1::__variant_detail::__traits<PositionData, MiniData, FlipData, VehicleData, SidewaysData, AnimationData, EffectData, InputData, bool>&, std::__ndk1::__variant_detail::__copy_constructor<InputData, (std::__ndk1::__variant_detail::_Trait)1> const&)::{lambda(std::__ndk1::__variant_detail::__copy_constructor<InputData, (std::__ndk1::__variant_detail::_Trait)1> const&, auto:2&&)#1} const&>(std::__ndk1::__variant_detail::__copy_constructor<InputData, (std::__ndk1::__variant_detail::_Trait)1> const&, std::__ndk1::__variant_detail::__base<(std::__ndk1::__variant_detail::__ctor<std::__ndk1::__variant_detail::__traits<PositionData, MiniData, FlipData, VehicleData, SidewaysData, AnimationData, EffectData, InputData, bool> >::__generic_construct[abi:ne180000])0, std::__ndk1::__variant_detail::__traits, PositionData, MiniData, FlipData, VehicleData, SidewaysData, AnimationData, EffectData, bool>&, std::__ndk1::__variant_detail::__ctor<std::__ndk1::__variant_detail::__traits<PositionData, MiniData, FlipData, VehicleData, SidewaysData, AnimationData, EffectData, InputData, bool> >::__generic_construct[abi:ne180000]<std::__ndk1::__variant_detail::__copy_constructor<InputData, (std::__ndk1::__variant_detail::_Trait)1> const&>(std::__ndk1::__variant_detail::__traits<PositionData, MiniData, FlipData, VehicleData, SidewaysData, AnimationData, EffectData, InputData, bool>&, std::__ndk1::__variant_detail::__copy_constructor<InputData, (std::__ndk1::__variant_detail::_Trait)1> const&)::{lambda(std::__ndk1::__variant_detail::__copy_constructor<InputData, (std::__ndk1::__variant_detail::_Trait)1> const&, auto:2&&)#1} const&)
PUBLIC 40fa8 0 std::__ndk1::vector<Action, std::__ndk1::allocator<Action> >::__throw_length_error[abi:ne180000]() const
PUBLIC 40fbc 0 geode::modifier::ModifyDerive<hook133<(anonymous namespace)::hook133Parent>, PlayerObject>::apply()
PUBLIC 41ee8 0 geode::modifier::ModifyBase<geode::modifier::ModifyDerive<hook133<(anonymous namespace)::hook133Parent>, PlayerObject> >::apply()
PUBLIC 41eec 0 geode::Hook::create<void (*)(hook133<(anonymous namespace)::hook133Parent>*)>(void*, void (*)(hook133<(anonymous namespace)::hook133Parent>*), std::__ndk1::basic_string<char, std::__ndk1::char_traits<char>, std::__ndk1::allocator<char> > const&, tulip::hook::TulipConvention, tulip::hook::HookMetadata const&)
PUBLIC 42020 0 geode::modifier::AsStaticFunction_activateStreak<hook133<(anonymous namespace)::hook133Parent>, void (hook133<(anonymous namespace)::hook133Parent>::*)()>::Impl<void (hook133<(anonymous namespace)::hook133Parent>::*)()>::function(hook133<(anonymous namespace)::hook133Parent>*)
PUBLIC 420f8 0 geode::modifier::AsStaticFunction_incrementJumps<hook133<(anonymous namespace)::hook133Parent>, void (hook133<(anonymous namespace)::hook133Parent>::*)()>::Impl<void (hook133<(anonymous namespace)::hook133Parent>::*)()>::function(hook133<(anonymous namespace)::hook133Parent>*)
PUBLIC 421a0 0 geode::modifier::AsStaticFunction_playDeathEffect<hook133<(anonymous namespace)::hook133Parent>, void (hook133<(anonymous namespace)::hook133Parent>::*)()>::Impl<void (hook133<(anonymous namespace)::hook133Parent>::*)()>::function(hook133<(anonymous namespace)::hook133Parent>*)
PUBLIC 4223c 0 geode::modifier::AsStaticFunction_playerDestroyed<hook133<(anonymous namespace)::hook133Parent>, void (hook133<(anonymous namespace)::hook133Parent>::*)(bool)>::Impl<void (hook133<(anonymous namespace)::hook133Parent>::*)(bool)>::function(hook133<(anonymous namespace)::hook133Parent>*, bool)
PUBLIC 42250 0 geode::modifier::AsStaticFunction_playSpawnEffect<hook133<(anonymous namespace)::hook133Parent>, void (hook133<(anonymous namespace)::hook133Parent>::*)()>::Impl<void (hook133<(anonymous namespace)::hook133Parent>::*)()>::function(hook133<(anonymous namespace)::hook133Parent>*)
PUBLIC 422ec 0 geode::Hook::create<bool (*)(hook133<(anonymous namespace)::hook133Parent>*, PlayerButton)>(void*, bool (*)(hook133<(anonymous namespace)::hook133Parent>*, PlayerButton), std::__ndk1::basic_string<char, std::__ndk1::char_traits<char>, std::__ndk1::allocator<char> > const&, tulip::hook::TulipConvention, tulip::hook::HookMetadata const&)
PUBLIC 42470 0 geode::modifier::AsStaticFunction_pushButton<hook133<(anonymous namespace)::hook133Parent>, bool (hook133<(anonymous namespace)::hook133Parent>::*)(PlayerButton)>::Impl<bool (hook133<(anonymous namespace)::hook133Parent>::*)(PlayerButton)>::function(hook133<(anonymous namespace)::hook133Parent>*, PlayerButton)
PUBLIC 4256c 0 geode::modifier::AsStaticFunction_releaseButton<hook133<(anonymous namespace)::hook133Parent>, bool (hook133<(anonymous namespace)::hook133Parent>::*)(PlayerButton)>::Impl<bool (hook133<(anonymous namespace)::hook133Parent>::*)(PlayerButton)>::function(hook133<(anonymous namespace)::hook133Parent>*, PlayerButton)
PUBLIC 42668 0 geode::modifier::ModifyDerive<hook213<(anonymous namespace)::hook213Parent>, PlayLayer>::apply()
PUBLIC 42e50 0 geode::modifier::ModifyBase<geode::modifier::ModifyDerive<hook213<(anonymous namespace)::hook213Parent>, PlayLayer> >::apply()
PUBLIC 42e54 0 geode::Hook::create<void (*)(hook213<(anonymous namespace)::hook213Parent>*)>(void*, void (*)(hook213<(anonymous namespace)::hook213Parent>*), std::__ndk1::basic_string<char, std::__ndk1::char_traits<char>, std::__ndk1::allocator<char> > const&, tulip::hook::TulipConvention, tulip::hook::HookMetadata const&)
PUBLIC 42f88 0 geode::modifier::AsStaticFunction_levelComplete<hook213<(anonymous namespace)::hook213Parent>, void (hook213<(anonymous namespace)::hook213Parent>::*)()>::Impl<void (hook213<(anonymous namespace)::hook213Parent>::*)()>::function(hook213<(anonymous namespace)::hook213Parent>*)
PUBLIC 43620 0 geode::modifier::AsStaticFunction_onQuit<hook213<(anonymous namespace)::hook213Parent>, void (hook213<(anonymous namespace)::hook213Parent>::*)()>::Impl<void (hook213<(anonymous namespace)::hook213Parent>::*)()>::function(hook213<(anonymous namespace)::hook213Parent>*)
PUBLIC 437c4 0 geode::modifier::AsStaticFunction_resetLevel<hook213<(anonymous namespace)::hook213Parent>, void (hook213<(anonymous namespace)::hook213Parent>::*)()>::Impl<void (hook213<(anonymous namespace)::hook213Parent>::*)()>::function(hook213<(anonymous namespace)::hook213Parent>*)
PUBLIC 43b88 0 geode::modifier::AsStaticFunction_setupHasCompleted<hook213<(anonymous namespace)::hook213Parent>, void (hook213<(anonymous namespace)::hook213Parent>::*)()>::Impl<void (hook213<(anonymous namespace)::hook213Parent>::*)()>::function(hook213<(anonymous namespace)::hook213Parent>*)
PUBLIC 43d34 0 Player::~Player()
PUBLIC 43df8 0 std::__ndk1::__function::__func<hook213<(anonymous namespace)::hook213Parent>::setupHasCompleted()::{lambda()#1}, std::__ndk1::allocator<hook213<(anonymous namespace)::hook213Parent>::setupHasCompleted()::{lambda()#1}>, void ()>::~__func()
PUBLIC 43dfc 0 std::__ndk1::__function::__func<hook213<(anonymous namespace)::hook213Parent>::setupHasCompleted()::{lambda()#1}, std::__ndk1::allocator<hook213<(anonymous namespace)::hook213Parent>::setupHasCompleted()::{lambda()#1}>, void ()>::__clone() const
PUBLIC 43e30 0 std::__ndk1::__function::__func<hook213<(anonymous namespace)::hook213Parent>::setupHasCompleted()::{lambda()#1}, std::__ndk1::allocator<hook213<(anonymous namespace)::hook213Parent>::setupHasCompleted()::{lambda()#1}>, void ()>::__clone(std::__ndk1::__function::__base<void ()>*) const
PUBLIC 43e44 0 std::__ndk1::__function::__func<hook213<(anonymous namespace)::hook213Parent>::setupHasCompleted()::{lambda()#1}, std::__ndk1::allocator<hook213<(anonymous namespace)::hook213Parent>::setupHasCompleted()::{lambda()#1}>, void ()>::destroy()
PUBLIC 43e48 0 std::__ndk1::__function::__func<hook213<(anonymous namespace)::hook213Parent>::setupHasCompleted()::{lambda()#1}, std::__ndk1::allocator<hook213<(anonymous namespace)::hook213Parent>::setupHasCompleted()::{lambda()#1}>, void ()>::destroy_deallocate()
PUBLIC 43e4c 0 std::__ndk1::__function::__func<hook213<(anonymous namespace)::hook213Parent>::setupHasCompleted()::{lambda()#1}, std::__ndk1::allocator<hook213<(anonymous namespace)::hook213Parent>::setupHasCompleted()::{lambda()#1}>, void ()>::operator()()
PUBLIC 43f20 0 std::__ndk1::__function::__func<hook213<(anonymous namespace)::hook213Parent>::setupHasCompleted()::{lambda()#1}, std::__ndk1::allocator<hook213<(anonymous namespace)::hook213Parent>::setupHasCompleted()::{lambda()#1}>, void ()>::target(std::type_info const&) const
PUBLIC 43f3c 0 std::__ndk1::__function::__func<hook213<(anonymous namespace)::hook213Parent>::setupHasCompleted()::{lambda()#1}, std::__ndk1::allocator<hook213<(anonymous namespace)::hook213Parent>::setupHasCompleted()::{lambda()#1}>, void ()>::target_type() const
PUBLIC 43f48 0 geode::modifier::ModifyDerive<hook279<(anonymous namespace)::hook279Parent>, PauseLayer>::apply()
PUBLIC 44514 0 geode::modifier::ModifyBase<geode::modifier::ModifyDerive<hook279<(anonymous namespace)::hook279Parent>, PauseLayer> >::apply()
PUBLIC 44518 0 geode::modifier::AsStaticFunction_customSetup<hook279<(anonymous namespace)::hook279Parent>, void (hook279<(anonymous namespace)::hook279Parent>::*)()>::Impl<void (hook279<(anonymous namespace)::hook279Parent>::*)()>::function(hook279<(anonymous namespace)::hook279Parent>*)
PUBLIC 447b8 0 geode::modifier::AsStaticFunction_onEdit<hook279<(anonymous namespace)::hook279Parent>, void (hook279<(anonymous namespace)::hook279Parent>::*)(cocos2d::CCObject*)>::Impl<void (hook279<(anonymous namespace)::hook279Parent>::*)(cocos2d::CCObject*)>::function(hook279<(anonymous namespace)::hook279Parent>*, cocos2d::CCObject*)
PUBLIC 44880 0 geode::addresser::Addresser::addressOfVirtual<void, PauseLayer, >(void (PauseLayer::*)())
PUBLIC 44928 0 PauseLayer::PauseLayer(geode::ZeroConstructorType)
PUBLIC 449b4 0 geode::modifier::ModifyDerive<hook328<(anonymous namespace)::hook328Parent>, EndLevelLayer>::apply()
PUBLIC 44cd8 0 geode::modifier::ModifyBase<geode::modifier::ModifyDerive<hook328<(anonymous namespace)::hook328Parent>, EndLevelLayer> >::apply()
PUBLIC 44cdc 0 geode::modifier::AsStaticFunction_customSetup<hook328<(anonymous namespace)::hook328Parent>, void (hook328<(anonymous namespace)::hook328Parent>::*)()>::Impl<void (hook328<(anonymous namespace)::hook328Parent>::*)()>::function(hook328<(anonymous namespace)::hook328Parent>*)
PUBLIC 44e1c 0 geode::addresser::Addresser::addressOfVirtual<void, EndLevelLayer, >(void (EndLevelLayer::*)())
PUBLIC 44ec4 0 EndLevelLayer::EndLevelLayer(geode::ZeroConstructorType)
PUBLIC 44f54 0 std::__ndk1::__function::__base<void ()>::~__base()
PUBLIC 44f58 0 std::__ndk1::__function::__func<hook328<(anonymous namespace)::hook328Parent>::customSetup()::{lambda()#1}, std::__ndk1::allocator<hook328<(anonymous namespace)::hook328Parent>::customSetup()::{lambda()#1}>, void ()>::~__func()
PUBLIC 44f5c 0 std::__ndk1::__function::__func<hook328<(anonymous namespace)::hook328Parent>::customSetup()::{lambda()#1}, std::__ndk1::allocator<hook328<(anonymous namespace)::hook328Parent>::customSetup()::{lambda()#1}>, void ()>::__clone() const
PUBLIC 44f90 0 std::__ndk1::__function::__func<hook328<(anonymous namespace)::hook328Parent>::customSetup()::{lambda()#1}, std::__ndk1::allocator<hook328<(anonymous namespace)::hook328Parent>::customSetup()::{lambda()#1}>, void ()>::__clone(std::__ndk1::__function::__base<void ()>*) const
PUBLIC 44fa4 0 std::__ndk1::__function::__func<hook328<(anonymous namespace)::hook328Parent>::customSetup()::{lambda()#1}, std::__ndk1::allocator<hook328<(anonymous namespace)::hook328Parent>::customSetup()::{lambda()#1}>, void ()>::destroy()
PUBLIC 44fa8 0 std::__ndk1::__function::__func<hook328<(anonymous namespace)::hook328Parent>::customSetup()::{lambda()#1}, std::__ndk1::allocator<hook328<(anonymous namespace)::hook328Parent>::customSetup()::{lambda()#1}>, void ()>::destroy_deallocate()
PUBLIC 44fac 0 std::__ndk1::__function::__func<hook328<(anonymous namespace)::hook328Parent>::customSetup()::{lambda()#1}, std::__ndk1::allocator<hook328<(anonymous namespace)::hook328Parent>::customSetup()::{lambda()#1}>, void ()>::operator()()
PUBLIC 459a8 0 std::__ndk1::__function::__func<hook328<(anonymous namespace)::hook328Parent>::customSetup()::{lambda()#1}, std::__ndk1::allocator<hook328<(anonymous namespace)::hook328Parent>::customSetup()::{lambda()#1}>, void ()>::target(std::type_info const&) const
PUBLIC 459c4 0 std::__ndk1::__function::__func<hook328<(anonymous namespace)::hook328Parent>::customSetup()::{lambda()#1}, std::__ndk1::allocator<hook328<(anonymous namespace)::hook328Parent>::customSetup()::{lambda()#1}>, void ()>::target_type() const
PUBLIC 459d0 0 geode::cocos::CCArrayExt<cocos2d::CCNode*>::~CCArrayExt()
PUBLIC m 459ec 0 std::__ndk1::basic_ostringstream<char, std::__ndk1::char_traits<char>, std::__ndk1::allocator<char> >::~basic_ostringstream()
PUBLIC 45a68 0 PlayerManager::get()
PUBLIC 45b2c 0 PlayerManager::~PlayerManager()
PUBLIC 45c30 0 PlayerManager::containsTime(float)
PUBLIC 45de0 0 PlayerManager::hideIcons()
PUBLIC 45edc 0 PlayerManager::resetButtons()
PUBLIC 45f80 0 PlayerManager::handleButton(PlayLayer*, PlayerButton, PlayerObject*, bool)
PUBLIC 46138 0 cocos2d::CCNode::getChildByType<GJUINode>(int)
PUBLIC 4628c 0 cocos2d::CCNode::getChildByType<cocos2d::CCSprite>(int)
PUBLIC 463e0 0 PlayerManager::addPlayer(Replay, PlayLayer*)
PUBLIC 478e0 0 Player::loadReplay(Replay)
PUBLIC 47a24 0 Replay::~Replay()
PUBLIC 47ac0 0 PlayerManager::updateUI()
PUBLIC 47c34 0 PlayerManager::removePlayer(Player)
PUBLIC 488a4 0 Player::stopSpectating()
PUBLIC 48cd8 0 PlayerManager::resetState()
PUBLIC 48dc0 0 Player::resetState()
PUBLIC 49258 0 PlayerManager::handleCompletion()
PUBLIC 49340 0 Player::handleCompletion()
PUBLIC 494cc 0 PlayerManager::playCompleteEffect()
PUBLIC 49614 0 PlayerManager::updateOpacity(bool)
PUBLIC 4970c 0 Player::updateOpacity(bool)
PUBLIC 4982c 0 PlayerManager::updateDisabled()
PUBLIC 49a88 0 Player::updateDisabled()
PUBLIC 49d18 0 PlayerManager::updateCamera()
PUBLIC 49e00 0 Player::updateCamera()
PUBLIC 4a1a0 0 PlayerManager::updateColors()
PUBLIC 4a288 0 Player::updateColors()
PUBLIC 4a40c 0 PlayerManager::handlePlaying(GJBaseGameLayer*, int)
PUBLIC 4a5a8 0 Player::handlePlaying(GJBaseGameLayer*, int)
PUBLIC 4a884 0 PlayerManager::canClick()
PUBLIC 4a9f0 0 PlayerManager::setup(PlayLayer*)
PUBLIC 4af88 0 std::__ndk1::vector<std::__ndk1::pair<ReplayInfo, std::__ndk1::__fs::filesystem::path>, std::__ndk1::allocator<std::__ndk1::pair<ReplayInfo, std::__ndk1::__fs::filesystem::path> > >::~vector[abi:ne180000]()
PUBLIC 4aff0 0 ReplayInfo::ReplayInfo(ReplayInfo const&)
PUBLIC 4b148 0 ReplayInfo::~ReplayInfo()
PUBLIC 4b1d4 0 std::__ndk1::pair<ReplayInfo, std::__ndk1::__fs::filesystem::path>::~pair()
PUBLIC 4b270 0 PlayerManager::clear()
PUBLIC 4b350 0 PlayerManager::stopSpectating()
PUBLIC 4bc2c 0 Player::setPlayerColors(PlayerObject*, bool, int, int, int, bool)
PUBLIC 4bd64 0 Player::setPlayerIconColors(SimplePlayer*, bool, int, int, int, bool)
PUBLIC 4bea4 0 Player::getBorderPosition(cocos2d::CCPoint, bool)
PUBLIC 4c00c 0 Player::setPlayerSprite(PlayerObject*, VehicleType)
PUBLIC 4c690 0 Player::updateUpsideDownState()
PUBLIC 4c924 0 ReplayInfo::operator=(ReplayInfo const&)
PUBLIC 4cac0 0 Player::handleActions()
PUBLIC 4dd88 0 Player::startSpectating(Replay)
PUBLIC 4e204 0 ReplayInfo::ReplayInfo()
PUBLIC 4e3c8 0 std::__ndk1::__hash_table<std::__ndk1::__hash_value_type<VehicleType, int>, std::__ndk1::__unordered_map_hasher<VehicleType, std::__ndk1::__hash_value_type<VehicleType, int>, std::__ndk1::hash<VehicleType>, std::__ndk1::equal_to<VehicleType>, true>, std::__ndk1::__unordered_map_equal<VehicleType, std::__ndk1::__hash_value_type<VehicleType, int>, std::__ndk1::equal_to<VehicleType>, std::__ndk1::hash<VehicleType>, true>, std::__ndk1::allocator<std::__ndk1::__hash_value_type<VehicleType, int> > >::~__hash_table()
PUBLIC 4e414 0 std::__ndk1::__hash_table<std::__ndk1::__hash_value_type<VehicleType, int>, std::__ndk1::__unordered_map_hasher<VehicleType, std::__ndk1::__hash_value_type<VehicleType, int>, std::__ndk1::hash<VehicleType>, std::__ndk1::equal_to<VehicleType>, true>, std::__ndk1::__unordered_map_equal<VehicleType, std::__ndk1::__hash_value_type<VehicleType, int>, std::__ndk1::equal_to<VehicleType>, std::__ndk1::hash<VehicleType>, true>, std::__ndk1::allocator<std::__ndk1::__hash_value_type<VehicleType, int> > >::__emplace_unique_key_args<VehicleType, std::__ndk1::pair<VehicleType const, int> const&>(VehicleType const&, std::__ndk1::pair<VehicleType const, int> const&)
PUBLIC 4e718 0 std::__ndk1::__hash_table<std::__ndk1::__hash_value_type<VehicleType, int>, std::__ndk1::__unordered_map_hasher<VehicleType, std::__ndk1::__hash_value_type<VehicleType, int>, std::__ndk1::hash<VehicleType>, std::__ndk1::equal_to<VehicleType>, true>, std::__ndk1::__unordered_map_equal<VehicleType, std::__ndk1::__hash_value_type<VehicleType, int>, std::__ndk1::equal_to<VehicleType>, std::__ndk1::hash<VehicleType>, true>, std::__ndk1::allocator<std::__ndk1::__hash_value_type<VehicleType, int> > >::__do_rehash<true>(unsigned long)
PUBLIC 4e8c4 0 std::__ndk1::__split_buffer<Player, std::__ndk1::allocator<Player>&>::~__split_buffer()
PUBLIC 4e918 0 std::__ndk1::vector<Player, std::__ndk1::allocator<Player> >::__throw_length_error[abi:ne180000]() const
PUBLIC 4e92c 0 std::__ndk1::__hash_table<std::__ndk1::__hash_value_type<VehicleType, int>, std::__ndk1::__unordered_map_hasher<VehicleType, std::__ndk1::__hash_value_type<VehicleType, int>, std::__ndk1::hash<VehicleType>, std::__ndk1::equal_to<VehicleType>, true>, std::__ndk1::__unordered_map_equal<VehicleType, std::__ndk1::__hash_value_type<VehicleType, int>, std::__ndk1::equal_to<VehicleType>, std::__ndk1::hash<VehicleType>, true>, std::__ndk1::allocator<std::__ndk1::__hash_value_type<VehicleType, int> > >::__move_assign(std::__ndk1::__hash_table<std::__ndk1::__hash_value_type<VehicleType, int>, std::__ndk1::__unordered_map_hasher<VehicleType, std::__ndk1::__hash_value_type<VehicleType, int>, std::__ndk1::hash<VehicleType>, std::__ndk1::equal_to<VehicleType>, true>, std::__ndk1::__unordered_map_equal<VehicleType, std::__ndk1::__hash_value_type<VehicleType, int>, std::__ndk1::equal_to<VehicleType>, std::__ndk1::hash<VehicleType>, true>, std::__ndk1::allocator<std::__ndk1::__hash_value_type<VehicleType, int> > >&, std::__ndk1::integral_constant<bool, true>)
PUBLIC 4ea28 0 std::__ndk1::unordered_map<VehicleType, int, std::__ndk1::hash<VehicleType>, std::__ndk1::equal_to<VehicleType>, std::__ndk1::allocator<std::__ndk1::pair<VehicleType const, int> > >::unordered_map(std::__ndk1::unordered_map<VehicleType, int, std::__ndk1::hash<VehicleType>, std::__ndk1::equal_to<VehicleType>, std::__ndk1::allocator<std::__ndk1::pair<VehicleType const, int> > > const&)
PUBLIC 4eb64 0 std::__ndk1::vector<Action, std::__ndk1::allocator<Action> >::__init_with_size[abi:ne180000]<Action*, std::__ndk1::vector<Action, std::__ndk1::allocator<Action> >::__init_with_size[abi:ne180000]>(Action*, std::__ndk1::vector<Action, std::__ndk1::allocator<Action> >::__init_with_size[abi:ne180000], unsigned long)
PUBLIC 4ecd8 0 std::__ndk1::basic_string<char, std::__ndk1::char_traits<char>, std::__ndk1::allocator<char> >::__throw_out_of_range[abi:ne180000]() const
PUBLIC 4ecec 0 std::__ndk1::__throw_out_of_range[abi:ne180000](char const*)
PUBLIC 4ed3c 0 std::out_of_range::out_of_range[abi:ne180000](char const*)
PUBLIC 4ed6c 0 std::__ndk1::vector<Action, std::__ndk1::allocator<Action> >::__assign_with_size[abi:ne180000]<Action*, std::__ndk1::vector<Action, std::__ndk1::allocator<Action> >::__assign_with_size[abi:ne180000]>(Action*, std::__ndk1::vector<Action, std::__ndk1::allocator<Action> >::__assign_with_size[abi:ne180000], long)
PUBLIC 4f114 0 std::__ndk1::__variant_detail::__visitation::__base::__dispatcher<(unsigned long)0, (unsigned long)0>::__dispatch[abi:ne180000]<std::__ndk1::__variant_detail::__assignment<std::__ndk1::__variant_detail::__traits<PositionData, MiniData, FlipData, VehicleData, SidewaysData, AnimationData, EffectData, InputData, bool> >::__generic_assign[abi:ne180000]<std::__ndk1::__variant_detail::__copy_assignment<InputData, (std::__ndk1::__variant_detail::_Trait)1> const&>(std::__ndk1::__variant_detail::__copy_assignment<InputData, (std::__ndk1::__variant_detail::_Trait)1> const&)::{lambda(std::__ndk1::__variant_detail::__copy_assignment<InputData, (std::__ndk1::__variant_detail::_Trait)1> const&, auto:2&&)#1}, std::__ndk1::__variant_detail::__base<(std::__ndk1::__variant_detail::__assignment<std::__ndk1::__variant_detail::__traits<PositionData, MiniData, FlipData, VehicleData, SidewaysData, AnimationData, EffectData, InputData, bool> >::__generic_assign[abi:ne180000])0, std::__ndk1::__variant_detail::__traits, PositionData, MiniData, FlipData, VehicleData, SidewaysData, AnimationData, EffectData, bool>&, std::__ndk1::__variant_detail::__assignment<std::__ndk1::__variant_detail::__traits<PositionData, MiniData, FlipData, VehicleData, SidewaysData, AnimationData, EffectData, InputData, bool> >::__generic_assign[abi:ne180000]<std::__ndk1::__variant_detail::__copy_assignment<InputData, (std::__ndk1::__variant_detail::_Trait)1> const&>(std::__ndk1::__variant_detail::__copy_assignment<InputData, (std::__ndk1::__variant_detail::_Trait)1> const&)::{lambda(std::__ndk1::__variant_detail::__copy_assignment<InputData, (std::__ndk1::__variant_detail::_Trait)1> const&, auto:2&&)#1} const&>(std::__ndk1::__variant_detail::__copy_assignment<InputData, (std::__ndk1::__variant_detail::_Trait)1> const, std::__ndk1::__variant_detail::__base<(std::__ndk1::__variant_detail::__assignment<std::__ndk1::__variant_detail::__traits<PositionData, MiniData, FlipData, VehicleData, SidewaysData, AnimationData, EffectData, InputData, bool> >::__generic_assign[abi:ne180000])0, std::__ndk1::__variant_detail::__traits, PositionData, MiniData, FlipData, VehicleData, SidewaysData, AnimationData, EffectData, bool>&, std::__ndk1::__variant_detail::__assignment<std::__ndk1::__variant_detail::__traits<PositionData, MiniData, FlipData, VehicleData, SidewaysData, AnimationData, EffectData, InputData, bool> >::__generic_assign[abi:ne180000]<std::__ndk1::__variant_detail::__copy_assignment<InputData, (std::__ndk1::__variant_detail::_Trait)1> const&>(std::__ndk1::__variant_detail::__copy_assignment<InputData, (std::__ndk1::__variant_detail::_Trait)1> const&)::{lambda(std::__ndk1::__variant_detail::__copy_assignment<InputData, (std::__ndk1::__variant_detail::_Trait)1> const&, auto:2&&)#1} const&)
PUBLIC 4f194 0 std::__ndk1::__variant_detail::__visitation::__base::__dispatcher<(unsigned long)1, (unsigned long)1>::__dispatch[abi:ne180000]<std::__ndk1::__variant_detail::__assignment<std::__ndk1::__variant_detail::__traits<PositionData, MiniData, FlipData, VehicleData, SidewaysData, AnimationData, EffectData, InputData, bool> >::__generic_assign[abi:ne180000]<std::__ndk1::__variant_detail::__copy_assignment<InputData, (std::__ndk1::__variant_detail::_Trait)1> const&>(std::__ndk1::__variant_detail::__copy_assignment<InputData, (std::__ndk1::__variant_detail::_Trait)1> const&)::{lambda(std::__ndk1::__variant_detail::__copy_assignment<InputData, (std::__ndk1::__variant_detail::_Trait)1> const&, auto:2&&)#1}, std::__ndk1::__variant_detail::__base<(std::__ndk1::__variant_detail::__assignment<std::__ndk1::__variant_detail::__traits<PositionData, MiniData, FlipData, VehicleData, SidewaysData, AnimationData, EffectData, InputData, bool> >::__generic_assign[abi:ne180000])0, std::__ndk1::__variant_detail::__traits, PositionData, MiniData, FlipData, VehicleData, SidewaysData, AnimationData, EffectData, bool>&, std::__ndk1::__variant_detail::__assignment<std::__ndk1::__variant_detail::__traits<PositionData, MiniData, FlipData, VehicleData, SidewaysData, AnimationData, EffectData, InputData, bool> >::__generic_assign[abi:ne180000]<std::__ndk1::__variant_detail::__copy_assignment<InputData, (std::__ndk1::__variant_detail::_Trait)1> const&>(std::__ndk1::__variant_detail::__copy_assignment<InputData, (std::__ndk1::__variant_detail::_Trait)1> const&)::{lambda(std::__ndk1::__variant_detail::__copy_assignment<InputData, (std::__ndk1::__variant_detail::_Trait)1> const&, auto:2&&)#1} const&>(std::__ndk1::__variant_detail::__copy_assignment<InputData, (std::__ndk1::__variant_detail::_Trait)1> const, std::__ndk1::__variant_detail::__base<(std::__ndk1::__variant_detail::__assignment<std::__ndk1::__variant_detail::__traits<PositionData, MiniData, FlipData, VehicleData, SidewaysData, AnimationData, EffectData, InputData, bool> >::__generic_assign[abi:ne180000])0, std::__ndk1::__variant_detail::__traits, PositionData, MiniData, FlipData, VehicleData, SidewaysData, AnimationData, EffectData, bool>&, std::__ndk1::__variant_detail::__assignment<std::__ndk1::__variant_detail::__traits<PositionData, MiniData, FlipData, VehicleData, SidewaysData, AnimationData, EffectData, InputData, bool> >::__generic_assign[abi:ne180000]<std::__ndk1::__variant_detail::__copy_assignment<InputData, (std::__ndk1::__variant_detail::_Trait)1> const&>(std::__ndk1::__variant_detail::__copy_assignment<InputData, (std::__ndk1::__variant_detail::_Trait)1> const&)::{lambda(std::__ndk1::__variant_detail::__copy_assignment<InputData, (std::__ndk1::__variant_detail::_Trait)1> const&, auto:2&&)#1} const&)
PUBLIC 4f1cc 0 std::__ndk1::__variant_detail::__visitation::__base::__dispatcher<(unsigned long)2, (unsigned long)2>::__dispatch[abi:ne180000]<std::__ndk1::__variant_detail::__assignment<std::__ndk1::__variant_detail::__traits<PositionData, MiniData, FlipData, VehicleData, SidewaysData, AnimationData, EffectData, InputData, bool> >::__generic_assign[abi:ne180000]<std::__ndk1::__variant_detail::__copy_assignment<InputData, (std::__ndk1::__variant_detail::_Trait)1> const&>(std::__ndk1::__variant_detail::__copy_assignment<InputData, (std::__ndk1::__variant_detail::_Trait)1> const&)::{lambda(std::__ndk1::__variant_detail::__copy_assignment<InputData, (std::__ndk1::__variant_detail::_Trait)1> const&, auto:2&&)#1}, std::__ndk1::__variant_detail::__base<(std::__ndk1::__variant_detail::__assignment<std::__ndk1::__variant_detail::__traits<PositionData, MiniData, FlipData, VehicleData, SidewaysData, AnimationData, EffectData, InputData, bool> >::__generic_assign[abi:ne180000])0, std::__ndk1::__variant_detail::__traits, PositionData, MiniData, FlipData, VehicleData, SidewaysData, AnimationData, EffectData, bool>&, std::__ndk1::__variant_detail::__assignment<std::__ndk1::__variant_detail::__traits<PositionData, MiniData, FlipData, VehicleData, SidewaysData, AnimationData, EffectData, InputData, bool> >::__generic_assign[abi:ne180000]<std::__ndk1::__variant_detail::__copy_assignment<InputData, (std::__ndk1::__variant_detail::_Trait)1> const&>(std::__ndk1::__variant_detail::__copy_assignment<InputData, (std::__ndk1::__variant_detail::_Trait)1> const&)::{lambda(std::__ndk1::__variant_detail::__copy_assignment<InputData, (std::__ndk1::__variant_detail::_Trait)1> const&, auto:2&&)#1} const&>(std::__ndk1::__variant_detail::__copy_assignment<InputData, (std::__ndk1::__variant_detail::_Trait)1> const, std::__ndk1::__variant_detail::__base<(std::__ndk1::__variant_detail::__assignment<std::__ndk1::__variant_detail::__traits<PositionData, MiniData, FlipData, VehicleData, SidewaysData, AnimationData, EffectData, InputData, bool> >::__generic_assign[abi:ne180000])0, std::__ndk1::__variant_detail::__traits, PositionData, MiniData, FlipData, VehicleData, SidewaysData, AnimationData, EffectData, bool>&, std::__ndk1::__variant_detail::__assignment<std::__ndk1::__variant_detail::__traits<PositionData, MiniData, FlipData, VehicleData, SidewaysData, AnimationData, EffectData, InputData, bool> >::__generic_assign[abi:ne180000]<std::__ndk1::__variant_detail::__copy_assignment<InputData, (std::__ndk1::__variant_detail::_Trait)1> const&>(std::__ndk1::__variant_detail::__copy_assignment<InputData, (std::__ndk1::__variant_detail::_Trait)1> const&)::{lambda(std::__ndk1::__variant_detail::__copy_assignment<InputData, (std::__ndk1::__variant_detail::_Trait)1> const&, auto:2&&)#1} const&)
PUBLIC 4f214 0 std::__ndk1::__variant_detail::__visitation::__base::__dispatcher<(unsigned long)3, (unsigned long)3>::__dispatch[abi:ne180000]<std::__ndk1::__variant_detail::__assignment<std::__ndk1::__variant_detail::__traits<PositionData, MiniData, FlipData, VehicleData, SidewaysData, AnimationData, EffectData, InputData, bool> >::__generic_assign[abi:ne180000]<std::__ndk1::__variant_detail::__copy_assignment<InputData, (std::__ndk1::__variant_detail::_Trait)1> const&>(std::__ndk1::__variant_detail::__copy_assignment<InputData, (std::__ndk1::__variant_detail::_Trait)1> const&)::{lambda(std::__ndk1::__variant_detail::__copy_assignment<InputData, (std::__ndk1::__variant_detail::_Trait)1> const&, auto:2&&)#1}, std::__ndk1::__variant_detail::__base<(std::__ndk1::__variant_detail::__assignment<std::__ndk1::__variant_detail::__traits<PositionData, MiniData, FlipData, VehicleData, SidewaysData, AnimationData, EffectData, InputData, bool> >::__generic_assign[abi:ne180000])0, std::__ndk1::__variant_detail::__traits, PositionData, MiniData, FlipData, VehicleData, SidewaysData, AnimationData, EffectData, bool>&, std::__ndk1::__variant_detail::__assignment<std::__ndk1::__variant_detail::__traits<PositionData, MiniData, FlipData, VehicleData, SidewaysData, AnimationData, EffectData, InputData, bool> >::__generic_assign[abi:ne180000]<std::__ndk1::__variant_detail::__copy_assignment<InputData, (std::__ndk1::__variant_detail::_Trait)1> const&>(std::__ndk1::__variant_detail::__copy_assignment<InputData, (std::__ndk1::__variant_detail::_Trait)1> const&)::{lambda(std::__ndk1::__variant_detail::__copy_assignment<InputData, (std::__ndk1::__variant_detail::_Trait)1> const&, auto:2&&)#1} const&>(std::__ndk1::__variant_detail::__copy_assignment<InputData, (std::__ndk1::__variant_detail::_Trait)1> const, std::__ndk1::__variant_detail::__base<(std::__ndk1::__variant_detail::__assignment<std::__ndk1::__variant_detail::__traits<PositionData, MiniData, FlipData, VehicleData, SidewaysData, AnimationData, EffectData, InputData, bool> >::__generic_assign[abi:ne180000])0, std::__ndk1::__variant_detail::__traits, PositionData, MiniData, FlipData, VehicleData, SidewaysData, AnimationData, EffectData, bool>&, std::__ndk1::__variant_detail::__assignment<std::__ndk1::__variant_detail::__traits<PositionData, MiniData, FlipData, VehicleData, SidewaysData, AnimationData, EffectData, InputData, bool> >::__generic_assign[abi:ne180000]<std::__ndk1::__variant_detail::__copy_assignment<InputData, (std::__ndk1::__variant_detail::_Trait)1> const&>(std::__ndk1::__variant_detail::__copy_assignment<InputData, (std::__ndk1::__variant_detail::_Trait)1> const&)::{lambda(std::__ndk1::__variant_detail::__copy_assignment<InputData, (std::__ndk1::__variant_detail::_Trait)1> const&, auto:2&&)#1} const&)
PUBLIC 4f24c 0 std::__ndk1::__variant_detail::__visitation::__base::__dispatcher<(unsigned long)4, (unsigned long)4>::__dispatch[abi:ne180000]<std::__ndk1::__variant_detail::__assignment<std::__ndk1::__variant_detail::__traits<PositionData, MiniData, FlipData, VehicleData, SidewaysData, AnimationData, EffectData, InputData, bool> >::__generic_assign[abi:ne180000]<std::__ndk1::__variant_detail::__copy_assignment<InputData, (std::__ndk1::__variant_detail::_Trait)1> const&>(std::__ndk1::__variant_detail::__copy_assignment<InputData, (std::__ndk1::__variant_detail::_Trait)1> const&)::{lambda(std::__ndk1::__variant_detail::__copy_assignment<InputData, (std::__ndk1::__variant_detail::_Trait)1> const&, auto:2&&)#1}, std::__ndk1::__variant_detail::__base<(std::__ndk1::__variant_detail::__assignment<std::__ndk1::__variant_detail::__traits<PositionData, MiniData, FlipData, VehicleData, SidewaysData, AnimationData, EffectData, InputData, bool> >::__generic_assign[abi:ne180000])0, std::__ndk1::__variant_detail::__traits, PositionData, MiniData, FlipData, VehicleData, SidewaysData, AnimationData, EffectData, bool>&, std::__ndk1::__variant_detail::__assignment<std::__ndk1::__variant_detail::__traits<PositionData, MiniData, FlipData, VehicleData, SidewaysData, AnimationData, EffectData, InputData, bool> >::__generic_assign[abi:ne180000]<std::__ndk1::__variant_detail::__copy_assignment<InputData, (std::__ndk1::__variant_detail::_Trait)1> const&>(std::__ndk1::__variant_detail::__copy_assignment<InputData, (std::__ndk1::__variant_detail::_Trait)1> const&)::{lambda(std::__ndk1::__variant_detail::__copy_assignment<InputData, (std::__ndk1::__variant_detail::_Trait)1> const&, auto:2&&)#1} const&>(std::__ndk1::__variant_detail::__copy_assignment<InputData, (std::__ndk1::__variant_detail::_Trait)1> const, std::__ndk1::__variant_detail::__base<(std::__ndk1::__variant_detail::__assignment<std::__ndk1::__variant_detail::__traits<PositionData, MiniData, FlipData, VehicleData, SidewaysData, AnimationData, EffectData, InputData, bool> >::__generic_assign[abi:ne180000])0, std::__ndk1::__variant_detail::__traits, PositionData, MiniData, FlipData, VehicleData, SidewaysData, AnimationData, EffectData, bool>&, std::__ndk1::__variant_detail::__assignment<std::__ndk1::__variant_detail::__traits<PositionData, MiniData, FlipData, VehicleData, SidewaysData, AnimationData, EffectData, InputData, bool> >::__generic_assign[abi:ne180000]<std::__ndk1::__variant_detail::__copy_assignment<InputData, (std::__ndk1::__variant_detail::_Trait)1> const&>(std::__ndk1::__variant_detail::__copy_assignment<InputData, (std::__ndk1::__variant_detail::_Trait)1> const&)::{lambda(std::__ndk1::__variant_detail::__copy_assignment<InputData, (std::__ndk1::__variant_detail::_Trait)1> const&, auto:2&&)#1} const&)
PUBLIC 4f284 0 std::__ndk1::__variant_detail::__visitation::__base::__dispatcher<(unsigned long)5, (unsigned long)5>::__dispatch[abi:ne180000]<std::__ndk1::__variant_detail::__assignment<std::__ndk1::__variant_detail::__traits<PositionData, MiniData, FlipData, VehicleData, SidewaysData, AnimationData, EffectData, InputData, bool> >::__generic_assign[abi:ne180000]<std::__ndk1::__variant_detail::__copy_assignment<InputData, (std::__ndk1::__variant_detail::_Trait)1> const&>(std::__ndk1::__variant_detail::__copy_assignment<InputData, (std::__ndk1::__variant_detail::_Trait)1> const&)::{lambda(std::__ndk1::__variant_detail::__copy_assignment<InputData, (std::__ndk1::__variant_detail::_Trait)1> const&, auto:2&&)#1}, std::__ndk1::__variant_detail::__base<(std::__ndk1::__variant_detail::__assignment<std::__ndk1::__variant_detail::__traits<PositionData, MiniData, FlipData, VehicleData, SidewaysData, AnimationData, EffectData, InputData, bool> >::__generic_assign[abi:ne180000])0, std::__ndk1::__variant_detail::__traits, PositionData, MiniData, FlipData, VehicleData, SidewaysData, AnimationData, EffectData, bool>&, std::__ndk1::__variant_detail::__assignment<std::__ndk1::__variant_detail::__traits<PositionData, MiniData, FlipData, VehicleData, SidewaysData, AnimationData, EffectData, InputData, bool> >::__generic_assign[abi:ne180000]<std::__ndk1::__variant_detail::__copy_assignment<InputData, (std::__ndk1::__variant_detail::_Trait)1> const&>(std::__ndk1::__variant_detail::__copy_assignment<InputData, (std::__ndk1::__variant_detail::_Trait)1> const&)::{lambda(std::__ndk1::__variant_detail::__copy_assignment<InputData, (std::__ndk1::__variant_detail::_Trait)1> const&, auto:2&&)#1} const&>(std::__ndk1::__variant_detail::__copy_assignment<InputData, (std::__ndk1::__variant_detail::_Trait)1> const, std::__ndk1::__variant_detail::__base<(std::__ndk1::__variant_detail::__assignment<std::__ndk1::__variant_detail::__traits<PositionData, MiniData, FlipData, VehicleData, SidewaysData, AnimationData, EffectData, InputData, bool> >::__generic_assign[abi:ne180000])0, std::__ndk1::__variant_detail::__traits, PositionData, MiniData, FlipData, VehicleData, SidewaysData, AnimationData, EffectData, bool>&, std::__ndk1::__variant_detail::__assignment<std::__ndk1::__variant_detail::__traits<PositionData, MiniData, FlipData, VehicleData, SidewaysData, AnimationData, EffectData, InputData, bool> >::__generic_assign[abi:ne180000]<std::__ndk1::__variant_detail::__copy_assignment<InputData, (std::__ndk1::__variant_detail::_Trait)1> const&>(std::__ndk1::__variant_detail::__copy_assignment<InputData, (std::__ndk1::__variant_detail::_Trait)1> const&)::{lambda(std::__ndk1::__variant_detail::__copy_assignment<InputData, (std::__ndk1::__variant_detail::_Trait)1> const&, auto:2&&)#1} const&)
PUBLIC 4f2cc 0 std::__ndk1::__variant_detail::__visitation::__base::__dispatcher<(unsigned long)6, (unsigned long)6>::__dispatch[abi:ne180000]<std::__ndk1::__variant_detail::__assignment<std::__ndk1::__variant_detail::__traits<PositionData, MiniData, FlipData, VehicleData, SidewaysData, AnimationData, EffectData, InputData, bool> >::__generic_assign[abi:ne180000]<std::__ndk1::__variant_detail::__copy_assignment<InputData, (std::__ndk1::__variant_detail::_Trait)1> const&>(std::__ndk1::__variant_detail::__copy_assignment<InputData, (std::__ndk1::__variant_detail::_Trait)1> const&)::{lambda(std::__ndk1::__variant_detail::__copy_assignment<InputData, (std::__ndk1::__variant_detail::_Trait)1> const&, auto:2&&)#1}, std::__ndk1::__variant_detail::__base<(std::__ndk1::__variant_detail::__assignment<std::__ndk1::__variant_detail::__traits<PositionData, MiniData, FlipData, VehicleData, SidewaysData, AnimationData, EffectData, InputData, bool> >::__generic_assign[abi:ne180000])0, std::__ndk1::__variant_detail::__traits, PositionData, MiniData, FlipData, VehicleData, SidewaysData, AnimationData, EffectData, bool>&, std::__ndk1::__variant_detail::__assignment<std::__ndk1::__variant_detail::__traits<PositionData, MiniData, FlipData, VehicleData, SidewaysData, AnimationData, EffectData, InputData, bool> >::__generic_assign[abi:ne180000]<std::__ndk1::__variant_detail::__copy_assignment<InputData, (std::__ndk1::__variant_detail::_Trait)1> const&>(std::__ndk1::__variant_detail::__copy_assignment<InputData, (std::__ndk1::__variant_detail::_Trait)1> const&)::{lambda(std::__ndk1::__variant_detail::__copy_assignment<InputData, (std::__ndk1::__variant_detail::_Trait)1> const&, auto:2&&)#1} const&>(std::__ndk1::__variant_detail::__copy_assignment<InputData, (std::__ndk1::__variant_detail::_Trait)1> const, std::__ndk1::__variant_detail::__base<(std::__ndk1::__variant_detail::__assignment<std::__ndk1::__variant_detail::__traits<PositionData, MiniData, FlipData, VehicleData, SidewaysData, AnimationData, EffectData, InputData, bool> >::__generic_assign[abi:ne180000])0, std::__ndk1::__variant_detail::__traits, PositionData, MiniData, FlipData, VehicleData, SidewaysData, AnimationData, EffectData, bool>&, std::__ndk1::__variant_detail::__assignment<std::__ndk1::__variant_detail::__traits<PositionData, MiniData, FlipData, VehicleData, SidewaysData, AnimationData, EffectData, InputData, bool> >::__generic_assign[abi:ne180000]<std::__ndk1::__variant_detail::__copy_assignment<InputData, (std::__ndk1::__variant_detail::_Trait)1> const&>(std::__ndk1::__variant_detail::__copy_assignment<InputData, (std::__ndk1::__variant_detail::_Trait)1> const&)::{lambda(std::__ndk1::__variant_detail::__copy_assignment<InputData, (std::__ndk1::__variant_detail::_Trait)1> const&, auto:2&&)#1} const&)
PUBLIC 4f304 0 std::__ndk1::__variant_detail::__visitation::__base::__dispatcher<(unsigned long)7, (unsigned long)7>::__dispatch[abi:ne180000]<std::__ndk1::__variant_detail::__assignment<std::__ndk1::__variant_detail::__traits<PositionData, MiniData, FlipData, VehicleData, SidewaysData, AnimationData, EffectData, InputData, bool> >::__generic_assign[abi:ne180000]<std::__ndk1::__variant_detail::__copy_assignment<InputData, (std::__ndk1::__variant_detail::_Trait)1> const&>(std::__ndk1::__variant_detail::__copy_assignment<InputData, (std::__ndk1::__variant_detail::_Trait)1> const&)::{lambda(std::__ndk1::__variant_detail::__copy_assignment<InputData, (std::__ndk1::__variant_detail::_Trait)1> const&, auto:2&&)#1}, std::__ndk1::__variant_detail::__base<(std::__ndk1::__variant_detail::__assignment<std::__ndk1::__variant_detail::__traits<PositionData, MiniData, FlipData, VehicleData, SidewaysData, AnimationData, EffectData, InputData, bool> >::__generic_assign[abi:ne180000])0, std::__ndk1::__variant_detail::__traits, PositionData, MiniData, FlipData, VehicleData, SidewaysData, AnimationData, EffectData, bool>&, std::__ndk1::__variant_detail::__assignment<std::__ndk1::__variant_detail::__traits<PositionData, MiniData, FlipData, VehicleData, SidewaysData, AnimationData, EffectData, InputData, bool> >::__generic_assign[abi:ne180000]<std::__ndk1::__variant_detail::__copy_assignment<InputData, (std::__ndk1::__variant_detail::_Trait)1> const&>(std::__ndk1::__variant_detail::__copy_assignment<InputData, (std::__ndk1::__variant_detail::_Trait)1> const&)::{lambda(std::__ndk1::__variant_detail::__copy_assignment<InputData, (std::__ndk1::__variant_detail::_Trait)1> const&, auto:2&&)#1} const&>(std::__ndk1::__variant_detail::__copy_assignment<InputData, (std::__ndk1::__variant_detail::_Trait)1> const, std::__ndk1::__variant_detail::__base<(std::__ndk1::__variant_detail::__assignment<std::__ndk1::__variant_detail::__traits<PositionData, MiniData, FlipData, VehicleData, SidewaysData, AnimationData, EffectData, InputData, bool> >::__generic_assign[abi:ne180000])0, std::__ndk1::__variant_detail::__traits, PositionData, MiniData, FlipData, VehicleData, SidewaysData, AnimationData, EffectData, bool>&, std::__ndk1::__variant_detail::__assignment<std::__ndk1::__variant_detail::__traits<PositionData, MiniData, FlipData, VehicleData, SidewaysData, AnimationData, EffectData, InputData, bool> >::__generic_assign[abi:ne180000]<std::__ndk1::__variant_detail::__copy_assignment<InputData, (std::__ndk1::__variant_detail::_Trait)1> const&>(std::__ndk1::__variant_detail::__copy_assignment<InputData, (std::__ndk1::__variant_detail::_Trait)1> const&)::{lambda(std::__ndk1::__variant_detail::__copy_assignment<InputData, (std::__ndk1::__variant_detail::_Trait)1> const&, auto:2&&)#1} const&)
PUBLIC 4f33c 0 std::__ndk1::__variant_detail::__visitation::__base::__dispatcher<(unsigned long)8, (unsigned long)8>::__dispatch[abi:ne180000]<std::__ndk1::__variant_detail::__assignment<std::__ndk1::__variant_detail::__traits<PositionData, MiniData, FlipData, VehicleData, SidewaysData, AnimationData, EffectData, InputData, bool> >::__generic_assign[abi:ne180000]<std::__ndk1::__variant_detail::__copy_assignment<InputData, (std::__ndk1::__variant_detail::_Trait)1> const&>(std::__ndk1::__variant_detail::__copy_assignment<InputData, (std::__ndk1::__variant_detail::_Trait)1> const&)::{lambda(std::__ndk1::__variant_detail::__copy_assignment<InputData, (std::__ndk1::__variant_detail::_Trait)1> const&, auto:2&&)#1}, std::__ndk1::__variant_detail::__base<(std::__ndk1::__variant_detail::__assignment<std::__ndk1::__variant_detail::__traits<PositionData, MiniData, FlipData, VehicleData, SidewaysData, AnimationData, EffectData, InputData, bool> >::__generic_assign[abi:ne180000])0, std::__ndk1::__variant_detail::__traits, PositionData, MiniData, FlipData, VehicleData, SidewaysData, AnimationData, EffectData, bool>&, std::__ndk1::__variant_detail::__assignment<std::__ndk1::__variant_detail::__traits<PositionData, MiniData, FlipData, VehicleData, SidewaysData, AnimationData, EffectData, InputData, bool> >::__generic_assign[abi:ne180000]<std::__ndk1::__variant_detail::__copy_assignment<InputData, (std::__ndk1::__variant_detail::_Trait)1> const&>(std::__ndk1::__variant_detail::__copy_assignment<InputData, (std::__ndk1::__variant_detail::_Trait)1> const&)::{lambda(std::__ndk1::__variant_detail::__copy_assignment<InputData, (std::__ndk1::__variant_detail::_Trait)1> const&, auto:2&&)#1} const&>(std::__ndk1::__variant_detail::__copy_assignment<InputData, (std::__ndk1::__variant_detail::_Trait)1> const, std::__ndk1::__variant_detail::__base<(std::__ndk1::__variant_detail::__assignment<std::__ndk1::__variant_detail::__traits<PositionData, MiniData, FlipData, VehicleData, SidewaysData, AnimationData, EffectData, InputData, bool> >::__generic_assign[abi:ne180000])0, std::__ndk1::__variant_detail::__traits, PositionData, MiniData, FlipData, VehicleData, SidewaysData, AnimationData, EffectData, bool>&, std::__ndk1::__variant_detail::__assignment<std::__ndk1::__variant_detail::__traits<PositionData, MiniData, FlipData, VehicleData, SidewaysData, AnimationData, EffectData, InputData, bool> >::__generic_assign[abi:ne180000]<std::__ndk1::__variant_detail::__copy_assignment<InputData, (std::__ndk1::__variant_detail::_Trait)1> const&>(std::__ndk1::__variant_detail::__copy_assignment<InputData, (std::__ndk1::__variant_detail::_Trait)1> const&)::{lambda(std::__ndk1::__variant_detail::__copy_assignment<InputData, (std::__ndk1::__variant_detail::_Trait)1> const&, auto:2&&)#1} const&)
PUBLIC 4f368 0 std::__ndk1::basic_string<char, std::__ndk1::char_traits<char>, std::__ndk1::allocator<char> >::__assign_no_alias<true>(char const*, unsigned long)
PUBLIC 4f414 0 std::__ndk1::basic_string<char, std::__ndk1::char_traits<char>, std::__ndk1::allocator<char> >::__assign_no_alias<false>(char const*, unsigned long)
PUBLIC 4f524 0 std::__ndk1::unique_ptr<std::__ndk1::__hash_node<std::__ndk1::__hash_value_type<float, Player>, void*>, std::__ndk1::__hash_node_destructor<std::__ndk1::allocator<std::__ndk1::__hash_node<std::__ndk1::__hash_value_type<float, Player>, void*> > > >::~unique_ptr[abi:ne180000]()
PUBLIC 4f568 0 std::__ndk1::__hash_table<std::__ndk1::__hash_value_type<VehicleType, int>, std::__ndk1::__unordered_map_hasher<VehicleType, std::__ndk1::__hash_value_type<VehicleType, int>, std::__ndk1::hash<VehicleType>, std::__ndk1::equal_to<VehicleType>, true>, std::__ndk1::__unordered_map_equal<VehicleType, std::__ndk1::__hash_value_type<VehicleType, int>, std::__ndk1::equal_to<VehicleType>, std::__ndk1::hash<VehicleType>, true>, std::__ndk1::allocator<std::__ndk1::__hash_value_type<VehicleType, int> > >::__assign_multi<std::__ndk1::__hash_const_iterator<std::__ndk1::__hash_node<std::__ndk1::__hash_value_type<VehicleType, int>, void*>*> >(std::__ndk1::__hash_const_iterator<std::__ndk1::__hash_node<std::__ndk1::__hash_value_type<VehicleType, int>, void*>*>, std::__ndk1::__hash_const_iterator<std::__ndk1::__hash_node<std::__ndk1::__hash_value_type<VehicleType, int>, void*>*>)
PUBLIC 4f688 0 std::__ndk1::__hash_table<std::__ndk1::__hash_value_type<VehicleType, int>, std::__ndk1::__unordered_map_hasher<VehicleType, std::__ndk1::__hash_value_type<VehicleType, int>, std::__ndk1::hash<VehicleType>, std::__ndk1::equal_to<VehicleType>, true>, std::__ndk1::__unordered_map_equal<VehicleType, std::__ndk1::__hash_value_type<VehicleType, int>, std::__ndk1::equal_to<VehicleType>, std::__ndk1::hash<VehicleType>, true>, std::__ndk1::allocator<std::__ndk1::__hash_value_type<VehicleType, int> > >::__node_insert_multi(std::__ndk1::__hash_node<std::__ndk1::__hash_value_type<VehicleType, int>, void*>*)
PUBLIC 4f7ac 0 std::__ndk1::__hash_table<std::__ndk1::__hash_value_type<VehicleType, int>, std::__ndk1::__unordered_map_hasher<VehicleType, std::__ndk1::__hash_value_type<VehicleType, int>, std::__ndk1::hash<VehicleType>, std::__ndk1::equal_to<VehicleType>, true>, std::__ndk1::__unordered_map_equal<VehicleType, std::__ndk1::__hash_value_type<VehicleType, int>, std::__ndk1::equal_to<VehicleType>, std::__ndk1::hash<VehicleType>, true>, std::__ndk1::allocator<std::__ndk1::__hash_value_type<VehicleType, int> > >::__node_insert_multi_prepare(unsigned long, std::__ndk1::__hash_value_type<VehicleType, int>&)
PUBLIC 4fa38 0 std::__ndk1::__hash_table<std::__ndk1::__hash_value_type<VehicleType, int>, std::__ndk1::__unordered_map_hasher<VehicleType, std::__ndk1::__hash_value_type<VehicleType, int>, std::__ndk1::hash<VehicleType>, std::__ndk1::equal_to<VehicleType>, true>, std::__ndk1::__unordered_map_equal<VehicleType, std::__ndk1::__hash_value_type<VehicleType, int>, std::__ndk1::equal_to<VehicleType>, std::__ndk1::hash<VehicleType>, true>, std::__ndk1::allocator<std::__ndk1::__hash_value_type<VehicleType, int> > >::__do_rehash<false>(unsigned long)
PUBLIC 4fc08 0 std::__ndk1::__function::__func<Player::handleInputAction(Action)::$_0, std::__ndk1::allocator<Player::handleInputAction(Action)::$_0>, void ()>::~__func()
PUBLIC 4fc0c 0 std::__ndk1::__function::__func<Player::handleInputAction(Action)::$_0, std::__ndk1::allocator<Player::handleInputAction(Action)::$_0>, void ()>::__clone() const
PUBLIC 4fc30 0 std::__ndk1::__function::__func<Player::handleInputAction(Action)::$_0, std::__ndk1::allocator<Player::handleInputAction(Action)::$_0>, void ()>::__clone(std::__ndk1::__function::__base<void ()>*) const
PUBLIC 4fc40 0 std::__ndk1::__function::__func<Player::handleInputAction(Action)::$_0, std::__ndk1::allocator<Player::handleInputAction(Action)::$_0>, void ()>::destroy()
PUBLIC 4fc44 0 std::__ndk1::__function::__func<Player::handleInputAction(Action)::$_0, std::__ndk1::allocator<Player::handleInputAction(Action)::$_0>, void ()>::destroy_deallocate()
PUBLIC 4fc48 0 std::__ndk1::__function::__func<Player::handleInputAction(Action)::$_0, std::__ndk1::allocator<Player::handleInputAction(Action)::$_0>, void ()>::operator()()
PUBLIC 4fd0c 0 std::__ndk1::__function::__func<Player::handleInputAction(Action)::$_0, std::__ndk1::allocator<Player::handleInputAction(Action)::$_0>, void ()>::target(std::type_info const&) const
PUBLIC 4fd28 0 std::__ndk1::__function::__func<Player::handleInputAction(Action)::$_0, std::__ndk1::allocator<Player::handleInputAction(Action)::$_0>, void ()>::target_type() const
PUBLIC 4fd34 0 _GLOBAL__sub_I_Player.cpp
PUBLIC 50118 0 Recorder::get()
PUBLIC 50188 0 Recorder::~Recorder()
PUBLIC 501a0 0 Recorder::resetState(bool)
PUBLIC 50880 0 Recorder::handleInput(int, int, bool, bool)
PUBLIC 50a64 0 Recorder::recordDualAction(bool, int)
PUBLIC 50bac 0 Recorder::getCurrentVehicle(PlayerObject*)
PUBLIC 50c24 0 Recorder::recordVehicleAction(VehicleType, int, bool)
PUBLIC 50e08 0 Recorder::recordMiniAction(int, bool, bool)
PUBLIC 50f60 0 Recorder::handleRecording(PlayLayer*, int)
PUBLIC 51acc 0 Recorder::recordPositionAction(int, bool)
PUBLIC 51d54 0 Recorder::recordFlipAction(int, bool, bool, bool)
PUBLIC 51ea4 0 Recorder::recordSidewaysAction(int, float, bool)
PUBLIC 52040 0 Recorder::recordAnimationAction(int, VehicleType, bool, AnimationType)
PUBLIC 52248 0 Recorder::handlePortal(int, int, bool, PlayerObject*)
PUBLIC 52564 0 Recorder::handleEffect(int, EffectType, bool)
PUBLIC 527fc 0 Recorder::recordResetAction(int)
PUBLIC 529d8 0 gd::map<int, bool>::insert_pair(std::__ndk1::pair<int, bool> const&)
PUBLIC 52b88 0 geode::stl::_rb_insert_rebalance(bool, geode::stl::_rb_tree_base*, geode::stl::_rb_tree_base*, geode::stl::_rb_tree_base&)
PUBLIC 52e40 0 std::__ndk1::__function::__func<Recorder::handleEffect(int, EffectType, bool)::$_0, std::__ndk1::allocator<Recorder::handleEffect(int, EffectType, bool)::$_0>, void ()>::~__func()
PUBLIC 52e44 0 std::__ndk1::__function::__func<Recorder::handleEffect(int, EffectType, bool)::$_0, std::__ndk1::allocator<Recorder::handleEffect(int, EffectType, bool)::$_0>, void ()>::__clone() const
PUBLIC 52e68 0 std::__ndk1::__function::__func<Recorder::handleEffect(int, EffectType, bool)::$_0, std::__ndk1::allocator<Recorder::handleEffect(int, EffectType, bool)::$_0>, void ()>::__clone(std::__ndk1::__function::__base<void ()>*) const
PUBLIC 52e78 0 std::__ndk1::__function::__func<Recorder::handleEffect(int, EffectType, bool)::$_0, std::__ndk1::allocator<Recorder::handleEffect(int, EffectType, bool)::$_0>, void ()>::destroy()
PUBLIC 52e7c 0 std::__ndk1::__function::__func<Recorder::handleEffect(int, EffectType, bool)::$_0, std::__ndk1::allocator<Recorder::handleEffect(int, EffectType, bool)::$_0>, void ()>::destroy_deallocate()
PUBLIC 52e80 0 std::__ndk1::__function::__func<Recorder::handleEffect(int, EffectType, bool)::$_0, std::__ndk1::allocator<Recorder::handleEffect(int, EffectType, bool)::$_0>, void ()>::operator()()
PUBLIC 52f3c 0 std::__ndk1::__function::__func<Recorder::handleEffect(int, EffectType, bool)::$_0, std::__ndk1::allocator<Recorder::handleEffect(int, EffectType, bool)::$_0>, void ()>::target(std::type_info const&) const
PUBLIC 52f58 0 std::__ndk1::__function::__func<Recorder::handleEffect(int, EffectType, bool)::$_0, std::__ndk1::allocator<Recorder::handleEffect(int, EffectType, bool)::$_0>, void ()>::target_type() const
PUBLIC 52f64 0 std::__ndk1::__function::__func<Recorder::recordVehicleAction(VehicleType, int, bool)::$_0, std::__ndk1::allocator<Recorder::recordVehicleAction(VehicleType, int, bool)::$_0>, void ()>::~__func()
PUBLIC 52f68 0 std::__ndk1::__function::__func<Recorder::recordVehicleAction(VehicleType, int, bool)::$_0, std::__ndk1::allocator<Recorder::recordVehicleAction(VehicleType, int, bool)::$_0>, void ()>::__clone() const
PUBLIC 52f8c 0 std::__ndk1::__function::__func<Recorder::recordVehicleAction(VehicleType, int, bool)::$_0, std::__ndk1::allocator<Recorder::recordVehicleAction(VehicleType, int, bool)::$_0>, void ()>::__clone(std::__ndk1::__function::__base<void ()>*) const
PUBLIC 52f9c 0 std::__ndk1::__function::__func<Recorder::recordVehicleAction(VehicleType, int, bool)::$_0, std::__ndk1::allocator<Recorder::recordVehicleAction(VehicleType, int, bool)::$_0>, void ()>::destroy()
PUBLIC 52fa0 0 std::__ndk1::__function::__func<Recorder::recordVehicleAction(VehicleType, int, bool)::$_0, std::__ndk1::allocator<Recorder::recordVehicleAction(VehicleType, int, bool)::$_0>, void ()>::destroy_deallocate()
PUBLIC 52fa4 0 std::__ndk1::__function::__func<Recorder::recordVehicleAction(VehicleType, int, bool)::$_0, std::__ndk1::allocator<Recorder::recordVehicleAction(VehicleType, int, bool)::$_0>, void ()>::operator()()
PUBLIC 53060 0 std::__ndk1::__function::__func<Recorder::recordVehicleAction(VehicleType, int, bool)::$_0, std::__ndk1::allocator<Recorder::recordVehicleAction(VehicleType, int, bool)::$_0>, void ()>::target(std::type_info const&) const
PUBLIC 5307c 0 std::__ndk1::__function::__func<Recorder::recordVehicleAction(VehicleType, int, bool)::$_0, std::__ndk1::allocator<Recorder::recordVehicleAction(VehicleType, int, bool)::$_0>, void ()>::target_type() const
PUBLIC 53088 0 std::__ndk1::__function::__func<Recorder::recordResetAction(int)::$_0, std::__ndk1::allocator<Recorder::recordResetAction(int)::$_0>, void ()>::~__func()
PUBLIC 5308c 0 std::__ndk1::__function::__func<Recorder::recordResetAction(int)::$_0, std::__ndk1::allocator<Recorder::recordResetAction(int)::$_0>, void ()>::__clone() const
PUBLIC 530b0 0 std::__ndk1::__function::__func<Recorder::recordResetAction(int)::$_0, std::__ndk1::allocator<Recorder::recordResetAction(int)::$_0>, void ()>::__clone(std::__ndk1::__function::__base<void ()>*) const
PUBLIC 530c0 0 std::__ndk1::__function::__func<Recorder::recordResetAction(int)::$_0, std::__ndk1::allocator<Recorder::recordResetAction(int)::$_0>, void ()>::destroy()
PUBLIC 530c4 0 std::__ndk1::__function::__func<Recorder::recordResetAction(int)::$_0, std::__ndk1::allocator<Recorder::recordResetAction(int)::$_0>, void ()>::destroy_deallocate()
PUBLIC 530c8 0 std::__ndk1::__function::__func<Recorder::recordResetAction(int)::$_0, std::__ndk1::allocator<Recorder::recordResetAction(int)::$_0>, void ()>::operator()()
PUBLIC 531a0 0 std::__ndk1::__function::__func<Recorder::recordResetAction(int)::$_0, std::__ndk1::allocator<Recorder::recordResetAction(int)::$_0>, void ()>::target(std::type_info const&) const
PUBLIC 531bc 0 std::__ndk1::__function::__func<Recorder::recordResetAction(int)::$_0, std::__ndk1::allocator<Recorder::recordResetAction(int)::$_0>, void ()>::target_type() const
PUBLIC 531c8 0 std::__ndk1::__function::__func<Recorder::recordResetAction(int)::$_0::operator()() const::{lambda()#1}, std::__ndk1::allocator<Recorder::recordResetAction(int)::$_0::operator()() const::{lambda()#1}>, void ()>::~__func()
PUBLIC 531cc 0 std::__ndk1::__function::__func<Recorder::recordResetAction(int)::$_0::operator()() const::{lambda()#1}, std::__ndk1::allocator<Recorder::recordResetAction(int)::$_0::operator()() const::{lambda()#1}>, void ()>::__clone() const
PUBLIC 531f0 0 std::__ndk1::__function::__func<Recorder::recordResetAction(int)::$_0::operator()() const::{lambda()#1}, std::__ndk1::allocator<Recorder::recordResetAction(int)::$_0::operator()() const::{lambda()#1}>, void ()>::__clone(std::__ndk1::__function::__base<void ()>*) const
PUBLIC 53200 0 std::__ndk1::__function::__func<Recorder::recordResetAction(int)::$_0::operator()() const::{lambda()#1}, std::__ndk1::allocator<Recorder::recordResetAction(int)::$_0::operator()() const::{lambda()#1}>, void ()>::destroy()
PUBLIC 53204 0 std::__ndk1::__function::__func<Recorder::recordResetAction(int)::$_0::operator()() const::{lambda()#1}, std::__ndk1::allocator<Recorder::recordResetAction(int)::$_0::operator()() const::{lambda()#1}>, void ()>::destroy_deallocate()
PUBLIC 53208 0 std::__ndk1::__function::__func<Recorder::recordResetAction(int)::$_0::operator()() const::{lambda()#1}, std::__ndk1::allocator<Recorder::recordResetAction(int)::$_0::operator()() const::{lambda()#1}>, void ()>::operator()()
PUBLIC 532c4 0 std::__ndk1::__function::__func<Recorder::recordResetAction(int)::$_0::operator()() const::{lambda()#1}, std::__ndk1::allocator<Recorder::recordResetAction(int)::$_0::operator()() const::{lambda()#1}>, void ()>::target(std::type_info const&) const
PUBLIC 532e0 0 std::__ndk1::__function::__func<Recorder::recordResetAction(int)::$_0::operator()() const::{lambda()#1}, std::__ndk1::allocator<Recorder::recordResetAction(int)::$_0::operator()() const::{lambda()#1}>, void ()>::target_type() const
PUBLIC 532ec 0 _GLOBAL__sub_I_Recorder.cpp
PUBLIC 536d0 0 RecordsManager::loadJSON(std::__ndk1::__fs::filesystem::path)
PUBLIC 537c0 0 nlohmann::json_abi_v3_11_2::operator>>(std::__ndk1::basic_istream<char, std::__ndk1::char_traits<char> >&, nlohmann::json_abi_v3_11_2::basic_json<std::__ndk1::map, std::__ndk1::vector, std::__ndk1::basic_string<char, std::__ndk1::char_traits<char>, std::__ndk1::allocator<char> >, bool, long, unsigned long, double, std::__ndk1::allocator, nlohmann::json_abi_v3_11_2::adl_serializer, std::__ndk1::vector<unsigned char, std::__ndk1::allocator<unsigned char> > >&)
PUBLIC 53a2c 0 nlohmann::json_abi_v3_11_2::basic_json<std::__ndk1::map, std::__ndk1::vector, std::__ndk1::basic_string<char, std::__ndk1::char_traits<char>, std::__ndk1::allocator<char> >, bool, long, unsigned long, double, std::__ndk1::allocator, nlohmann::json_abi_v3_11_2::adl_serializer, std::__ndk1::vector<unsigned char, std::__ndk1::allocator<unsigned char> > >::~basic_json()
PUBLIC m 53a48 0 std::__ndk1::basic_ifstream<char, std::__ndk1::char_traits<char> >::~basic_ifstream()
PUBLIC 53a98 0 RecordsManager::saveJSON(nlohmann::json_abi_v3_11_2::basic_json<std::__ndk1::map, std::__ndk1::vector, std::__ndk1::basic_string<char, std::__ndk1::char_traits<char>, std::__ndk1::allocator<char> >, bool, long, unsigned long, double, std::__ndk1::allocator, nlohmann::json_abi_v3_11_2::adl_serializer, std::__ndk1::vector<unsigned char, std::__ndk1::allocator<unsigned char> > >, std::__ndk1::__fs::filesystem::path)
PUBLIC 53c04 0 nlohmann::json_abi_v3_11_2::basic_json<std::__ndk1::map, std::__ndk1::vector, std::__ndk1::basic_string<char, std::__ndk1::char_traits<char>, std::__ndk1::allocator<char> >, bool, long, unsigned long, double, std::__ndk1::allocator, nlohmann::json_abi_v3_11_2::adl_serializer, std::__ndk1::vector<unsigned char, std::__ndk1::allocator<unsigned char> > >::dump(int, char, bool, nlohmann::json_abi_v3_11_2::detail::error_handler_t) const
PUBLIC m 53ed0 0 std::__ndk1::basic_ofstream<char, std::__ndk1::char_traits<char> >::~basic_ofstream()
PUBLIC 53f20 0 RecordsManager::getUsername()
PUBLIC 5401c 0 std::__ndk1::basic_string<char, std::__ndk1::char_traits<char>, std::__ndk1::allocator<char> >::basic_string[abi:ne180000]<0>()
PUBLIC 540b8 0 RecordsManager::getFormattedTime(float)
PUBLIC 54370 0 RecordsManager::getLevelCompletions(int)
PUBLIC 54fa8 0 std::__ndk1::__fs::filesystem::directory_iterator::~directory_iterator[abi:ne180000]()
PUBLIC 54ff8 0 RecordsManager::getCompletionInfo(std::__ndk1::__fs::filesystem::path)
PUBLIC 55ac8 0 RecordsManager::getSavedLevels()
PUBLIC 56934 0 std::__ndk1::vector<GhostLevel, std::__ndk1::allocator<GhostLevel> >::~vector[abi:ne180000]()
PUBLIC 569b0 0 RecordsManager::handleCompletion(int, float, std::__ndk1::vector<Action, std::__ndk1::allocator<Action> >)
PUBLIC 57520 0 RecordsManager::saveCompletion(std::__ndk1::__fs::filesystem::path, float, std::__ndk1::vector<Action, std::__ndk1::allocator<Action> >)
PUBLIC 599c8 0 RecordsManager::getCompletionActions(std::__ndk1::__fs::filesystem::path)
PUBLIC 5b124 0 nlohmann::json_abi_v3_11_2::basic_json<std::__ndk1::map, std::__ndk1::vector, std::__ndk1::basic_string<char, std::__ndk1::char_traits<char>, std::__ndk1::allocator<char> >, bool, long, unsigned long, double, std::__ndk1::allocator, nlohmann::json_abi_v3_11_2::adl_serializer, std::__ndk1::vector<unsigned char, std::__ndk1::allocator<unsigned char> > >::operator[]<char const>(char const*)
PUBLIC 5b24c 0 RecordsManager::getBestCompletion(int)
PUBLIC 5b620 0 std::__ndk1::unordered_map<VehicleType, int, std::__ndk1::hash<VehicleType>, std::__ndk1::equal_to<VehicleType>, std::__ndk1::allocator<std::__ndk1::pair<VehicleType const, int> > >::~unordered_map[abi:ne180000]()
PUBLIC 5b66c 0 nlohmann::json_abi_v3_11_2::basic_json<std::__ndk1::map, std::__ndk1::vector, std::__ndk1::basic_string<char, std::__ndk1::char_traits<char>, std::__ndk1::allocator<char> >, bool, long, unsigned long, double, std::__ndk1::allocator, nlohmann::json_abi_v3_11_2::adl_serializer, std::__ndk1::vector<unsigned char, std::__ndk1::allocator<unsigned char> > >::basic_json(nlohmann::json_abi_v3_11_2::basic_json<std::__ndk1::map, std::__ndk1::vector, std::__ndk1::basic_string<char, std::__ndk1::char_traits<char>, std::__ndk1::allocator<char> >, bool, long, unsigned long, double, std::__ndk1::allocator, nlohmann::json_abi_v3_11_2::adl_serializer, std::__ndk1::vector<unsigned char, std::__ndk1::allocator<unsigned char> > > const&)
PUBLIC 5b934 0 nlohmann::json_abi_v3_11_2::basic_json<std::__ndk1::map, std::__ndk1::vector, std::__ndk1::basic_string<char, std::__ndk1::char_traits<char>, std::__ndk1::allocator<char> >, bool, long, unsigned long, double, std::__ndk1::allocator, nlohmann::json_abi_v3_11_2::adl_serializer, std::__ndk1::vector<unsigned char, std::__ndk1::allocator<unsigned char> > >::operator[]<char const>(char const*) const
PUBLIC 5bbf0 0 std::__ndk1::__fs::filesystem::path::operator/=[abi:ne180000](std::__ndk1::__fs::filesystem::path const&)
PUBLIC 5bcd8 0 std::__ndk1::vector<std::__ndk1::pair<ReplayInfo, std::__ndk1::__fs::filesystem::path>, std::__ndk1::allocator<std::__ndk1::pair<ReplayInfo, std::__ndk1::__fs::filesystem::path> > >::__throw_length_error[abi:ne180000]() const
PUBLIC 5bcec 0 std::__ndk1::__introsort<std::__ndk1::_ClassicAlgPolicy, RecordsManager::getLevelCompletions(int)::$_0&, std::__ndk1::pair<ReplayInfo, std::__ndk1::__fs::filesystem::path>*, false>(std::__ndk1::pair<ReplayInfo, std::__ndk1::__fs::filesystem::path>*, std::__ndk1::pair<ReplayInfo, std::__ndk1::__fs::filesystem::path>*, RecordsManager::getLevelCompletions(int)::$_0&, std::__ndk1::iterator_traits<std::__ndk1::pair<ReplayInfo, std::__ndk1::__fs::filesystem::path>*>::difference_type, bool)
PUBLIC 5de58 0 _ZNSt6__ndk124__sort5_maybe_branchlessB8ne180000INS_17_ClassicAlgPolicyERZN14RecordsManager19getLevelCompletionsEiE3$_0PNS_4pairI10ReplayInfoNS_4__fs10filesystem4pathEEETnNS_9enable_ifIXntsr21__use_branchless_sortIT0_T1_EE5valueEiE4typeELi0EEEvSE_SE_SE_SE_SE_SD_
PUBLIC 5e698 0 std::__ndk1::__partial_sort[abi:ne180000]<std::__ndk1::_ClassicAlgPolicy, RecordsManager::getLevelCompletions(int)::$_0&, std::__ndk1::pair<ReplayInfo, std::__ndk1::__fs::filesystem::path>*, std::__ndk1::pair<ReplayInfo, std::__ndk1::__fs::filesystem::path> >(std::__ndk1::pair<ReplayInfo, std::__ndk1::__fs::filesystem::path>*, std::__ndk1::pair<ReplayInfo, std::__ndk1::__fs::filesystem::path>*, std::__ndk1::pair<ReplayInfo, std::__ndk1::__fs::filesystem::path>, RecordsManager::getLevelCompletions(int)::$_0&)
PUBLIC 604c8 0 std::__ndk1::__sort3[abi:ne180000]<std::__ndk1::_ClassicAlgPolicy, RecordsManager::getLevelCompletions(int)::$_0&, std::__ndk1::pair<ReplayInfo, std::__ndk1::__fs::filesystem::path>*>(std::__ndk1::pair<ReplayInfo, std::__ndk1::__fs::filesystem::path>*, std::__ndk1::pair<ReplayInfo, std::__ndk1::__fs::filesystem::path>*, std::__ndk1::pair<ReplayInfo, std::__ndk1::__fs::filesystem::path>*, RecordsManager::getLevelCompletions(int)::$_0&)
PUBLIC 60ec0 0 std::__ndk1::__partition_with_equals_on_left[abi:ne180000]<std::__ndk1::_ClassicAlgPolicy, std::__ndk1::pair<ReplayInfo, std::__ndk1::__fs::filesystem::path>*, RecordsManager::getLevelCompletions(int)::$_0&>(RecordsManager::getLevelCompletions(int)::$_0&, RecordsManager::getLevelCompletions(int)::$_0&, RecordsManager::getLevelCompletions(int)::$_0&)
PUBLIC 62b10 0 std::__ndk1::__partition_with_equals_on_right[abi:ne180000]<std::__ndk1::_ClassicAlgPolicy, std::__ndk1::pair<ReplayInfo, std::__ndk1::__fs::filesystem::path>*, RecordsManager::getLevelCompletions(int)::$_0&>(RecordsManager::getLevelCompletions(int)::$_0&, RecordsManager::getLevelCompletions(int)::$_0&, RecordsManager::getLevelCompletions(int)::$_0&)
PUBLIC 645b0 0 std::__ndk1::__insertion_sort_incomplete[abi:ne180000]<std::__ndk1::_ClassicAlgPolicy, RecordsManager::getLevelCompletions(int)::$_0&, std::__ndk1::pair<ReplayInfo, std::__ndk1::__fs::filesystem::path>*>(std::__ndk1::pair<ReplayInfo, std::__ndk1::__fs::filesystem::path>*, std::__ndk1::pair<ReplayInfo, std::__ndk1::__fs::filesystem::path>*, RecordsManager::getLevelCompletions(int)::$_0&)
PUBLIC 64e74 0 std::__ndk1::swap[abi:ne180000]<ReplayInfo>(std::__ndk1::enable_if&, std::__ndk1::enable_if<(is_move_constructible<ReplayInfo>::value)&&(is_move_assignable<std::__ndk1::enable_if>::value), void>::type)
PUBLIC 65220 0 std::__ndk1::__sort4[abi:ne180000]<std::__ndk1::_ClassicAlgPolicy, RecordsManager::getLevelCompletions(int)::$_0&, std::__ndk1::pair<ReplayInfo, std::__ndk1::__fs::filesystem::path>*>(std::__ndk1::pair<ReplayInfo, std::__ndk1::__fs::filesystem::path>*, std::__ndk1::pair<ReplayInfo, std::__ndk1::__fs::filesystem::path>*, std::__ndk1::pair<ReplayInfo, std::__ndk1::__fs::filesystem::path>*, std::__ndk1::pair<ReplayInfo, std::__ndk1::__fs::filesystem::path>*, RecordsManager::getLevelCompletions(int)::$_0&)
PUBLIC 65874 0 std::__ndk1::pair<ReplayInfo, std::__ndk1::__fs::filesystem::path>::operator=[abi:ne180000](std::__ndk1::pair<ReplayInfo, std::__ndk1::__fs::filesystem::path>&&)
PUBLIC 65968 0 std::__ndk1::__sift_down[abi:ne180000]<std::__ndk1::_ClassicAlgPolicy, RecordsManager::getLevelCompletions(int)::$_0&, std::__ndk1::pair<ReplayInfo, std::__ndk1::__fs::filesystem::path>*>(std::__ndk1::pair<ReplayInfo, std::__ndk1::__fs::filesystem::path>*, RecordsManager::getLevelCompletions(int)::$_0&, std::__ndk1::iterator_traits<std::__ndk1::pair<ReplayInfo, std::__ndk1::__fs::filesystem::path>*>::difference_type, std::__ndk1::pair<ReplayInfo, std::__ndk1::__fs::filesystem::path>*)
PUBLIC 66398 0 std::__ndk1::__split_buffer<GhostLevel, std::__ndk1::allocator<GhostLevel>&>::~__split_buffer()
PUBLIC 66400 0 std::__ndk1::vector<GhostLevel, std::__ndk1::allocator<GhostLevel> >::__throw_length_error[abi:ne180000]() const
PUBLIC 66414 0 nlohmann::json_abi_v3_11_2::detail::from_json<nlohmann::json_abi_v3_11_2::basic_json<std::__ndk1::map, std::__ndk1::vector, std::__ndk1::basic_string<char, std::__ndk1::char_traits<char>, std::__ndk1::allocator<char> >, bool, long, unsigned long, double, std::__ndk1::allocator, nlohmann::json_abi_v3_11_2::adl_serializer, std::__ndk1::vector<unsigned char, std::__ndk1::allocator<unsigned char> > > >(nlohmann::json_abi_v3_11_2::basic_json<std::__ndk1::map, std::__ndk1::vector, std::__ndk1::basic_string<char, std::__ndk1::char_traits<char>, std::__ndk1::allocator<char> >, bool, long, unsigned long, double, std::__ndk1::allocator, nlohmann::json_abi_v3_11_2::adl_serializer, std::__ndk1::vector<unsigned char, std::__ndk1::allocator<unsigned char> > > const&, nlohmann::json_abi_v3_11_2::basic_json<std::__ndk1::map, std::__ndk1::vector, std::__ndk1::basic_string<char, std::__ndk1::char_traits<char>, std::__ndk1::allocator<char> >, bool, long, unsigned long, double, std::__ndk1::allocator, nlohmann::json_abi_v3_11_2::adl_serializer, std::__ndk1::vector<unsigned char, std::__ndk1::allocator<unsigned char> > >&::string_t)
PUBLIC 665e8 0 _ZN8nlohmann16json_abi_v3_11_26detail10type_error6createIPKNS0_10basic_jsonINSt6__ndk13mapENS5_6vectorENS5_12basic_stringIcNS5_11char_traitsIcEENS5_9allocatorIcEEEEblmdSB_NS0_14adl_serializerENS7_IhNSB_IhEEEEEETnNS5_9enable_ifIXsr21is_basic_json_contextIT_EE5valueEiE4typeELi0EEES2_iRKSD_SL_
PUBLIC 667d0 0 nlohmann::json_abi_v3_11_2::detail::concat<std::__ndk1::basic_string<char, std::__ndk1::char_traits<char>, std::__ndk1::allocator<char> >, char const (&) [29], char const*>(char const (&) [29], char const*)
PUBLIC 66878 0 nlohmann::json_abi_v3_11_2::basic_json<std::__ndk1::map, std::__ndk1::vector, std::__ndk1::basic_string<char, std::__ndk1::char_traits<char>, std::__ndk1::allocator<char> >, bool, long, unsigned long, double, std::__ndk1::allocator, nlohmann::json_abi_v3_11_2::adl_serializer, std::__ndk1::vector<unsigned char, std::__ndk1::allocator<unsigned char> > >::type_name() const
PUBLIC 668a4 0 nlohmann::json_abi_v3_11_2::detail::concat<std::__ndk1::basic_string<char, std::__ndk1::char_traits<char>, std::__ndk1::allocator<char> >, std::__ndk1::basic_string<char, std::__ndk1::char_traits<char>, std::__ndk1::allocator<char> >, std::__ndk1::basic_string<char, std::__ndk1::char_traits<char>, std::__ndk1::allocator<char> >, std::__ndk1::basic_string<char, std::__ndk1::char_traits<char>, std::__ndk1::allocator<char> > const&>(std::__ndk1::basic_string<char, std::__ndk1::char_traits<char>, std::__ndk1::allocator<char> >&&, std::__ndk1::basic_string<char, std::__ndk1::char_traits<char>, std::__ndk1::allocator<char> >, std::__ndk1::basic_string<char, std::__ndk1::char_traits<char>, std::__ndk1::allocator<char> > const&)
PUBLIC 669a4 0 nlohmann::json_abi_v3_11_2::detail::concat<std::__ndk1::basic_string<char, std::__ndk1::char_traits<char>, std::__ndk1::allocator<char> >, char const (&) [17], std::__ndk1::basic_string<char, std::__ndk1::char_traits<char>, std::__ndk1::allocator<char> > const&, char, std::__ndk1::basic_string<char, std::__ndk1::char_traits<char>, std::__ndk1::allocator<char> >, char const (&) [3]>(char const (&) [17], std::__ndk1::basic_string<char, std::__ndk1::char_traits<char>, std::__ndk1::allocator<char> > const&, char, std::__ndk1::basic_string<char, std::__ndk1::char_traits<char>, std::__ndk1::allocator<char> >, char const (&) [3])
PUBLIC 66af8 0 nlohmann::json_abi_v3_11_2::detail::type_error::~type_error()
PUBLIC 66b30 0 nlohmann::json_abi_v3_11_2::detail::exception::what() const
PUBLIC 66b38 0 nlohmann::json_abi_v3_11_2::detail::exception::~exception()
PUBLIC 66b70 0 _ZN8nlohmann16json_abi_v3_11_26detail9from_jsonINS0_10basic_jsonINSt6__ndk13mapENS4_6vectorENS4_12basic_stringIcNS4_11char_traitsIcEENS4_9allocatorIcEEEEblmdSA_NS0_14adl_serializerENS6_IhNSA_IhEEEEEEiTnNS4_9enable_ifIXaaaaaaaasr3std13is_arithmeticIT0_EE5valuentsr3std7is_sameISI_NT_17number_unsigned_tEEE5valuentsr3std7is_sameISI_NSJ_16number_integer_tEEE5valuentsr3std7is_sameISI_NSJ_14number_float_tEEE5valuentsr3std7is_sameISI_NSJ_9boolean_tEEE5valueEiE4typeELi0EEEvRKSJ_RSI_
PUBLIC 66ccc 0 _ZN8nlohmann16json_abi_v3_11_26detail9from_jsonINS0_10basic_jsonINSt6__ndk13mapENS4_6vectorENS4_12basic_stringIcNS4_11char_traitsIcEENS4_9allocatorIcEEEEblmdSA_NS0_14adl_serializerENS6_IhNSA_IhEEEEEEfTnNS4_9enable_ifIXaaaaaaaasr3std13is_arithmeticIT0_EE5valuentsr3std7is_sameISI_NT_17number_unsigned_tEEE5valuentsr3std7is_sameISI_NSJ_16number_integer_tEEE5valuentsr3std7is_sameISI_NSJ_14number_float_tEEE5valuentsr3std7is_sameISI_NSJ_9boolean_tEEE5valueEiE4typeELi0EEEvRKSJ_RSI_
PUBLIC 66e48 0 nlohmann::json_abi_v3_11_2::detail::concat<std::__ndk1::basic_string<char, std::__ndk1::char_traits<char>, std::__ndk1::allocator<char> >, char const (&) [30], char const*>(char const (&) [30], char const*)
PUBLIC 66ef0 0 std::__ndk1::basic_string<char, std::__ndk1::char_traits<char>, std::__ndk1::allocator<char> >::__assign_external(char const*, unsigned long)
PUBLIC 67018 0 nlohmann::json_abi_v3_11_2::basic_json<std::__ndk1::map, std::__ndk1::vector, std::__ndk1::basic_string<char, std::__ndk1::char_traits<char>, std::__ndk1::allocator<char> >, bool, long, unsigned long, double, std::__ndk1::allocator, nlohmann::json_abi_v3_11_2::adl_serializer, std::__ndk1::vector<unsigned char, std::__ndk1::allocator<unsigned char> > >::json_value::destroy(nlohmann::json_abi_v3_11_2::detail::value_t)
PUBLIC 675b8 0 std::__ndk1::vector<nlohmann::json_abi_v3_11_2::basic_json<std::__ndk1::map, std::__ndk1::vector, std::__ndk1::basic_string<char, std::__ndk1::char_traits<char>, std::__ndk1::allocator<char> >, bool, long, unsigned long, double, std::__ndk1::allocator, nlohmann::json_abi_v3_11_2::adl_serializer, std::__ndk1::vector<unsigned char, std::__ndk1::allocator<unsigned char> > >, std::__ndk1::allocator<nlohmann::json_abi_v3_11_2::basic_json<std::__ndk1::map, std::__ndk1::vector, std::__ndk1::basic_string<char, std::__ndk1::char_traits<char>, std::__ndk1::allocator<char> >, bool, long, unsigned long, double, std::__ndk1::allocator, nlohmann::json_abi_v3_11_2::adl_serializer, std::__ndk1::vector<unsigned char, std::__ndk1::allocator<unsigned char> > > > >::reserve(unsigned long)
PUBLIC 676a4 0 std::__ndk1::vector<nlohmann::json_abi_v3_11_2::basic_json<std::__ndk1::map, std::__ndk1::vector, std::__ndk1::basic_string<char, std::__ndk1::char_traits<char>, std::__ndk1::allocator<char> >, bool, long, unsigned long, double, std::__ndk1::allocator, nlohmann::json_abi_v3_11_2::adl_serializer, std::__ndk1::vector<unsigned char, std::__ndk1::allocator<unsigned char> > >, std::__ndk1::allocator<nlohmann::json_abi_v3_11_2::basic_json<std::__ndk1::map, std::__ndk1::vector, std::__ndk1::basic_string<char, std::__ndk1::char_traits<char>, std::__ndk1::allocator<char> >, bool, long, unsigned long, double, std::__ndk1::allocator, nlohmann::json_abi_v3_11_2::adl_serializer, std::__ndk1::vector<unsigned char, std::__ndk1::allocator<unsigned char> > > > >::~vector[abi:ne180000]()
PUBLIC 67708 0 std::__ndk1::vector<nlohmann::json_abi_v3_11_2::basic_json<std::__ndk1::map, std::__ndk1::vector, std::__ndk1::basic_string<char, std::__ndk1::char_traits<char>, std::__ndk1::allocator<char> >, bool, long, unsigned long, double, std::__ndk1::allocator, nlohmann::json_abi_v3_11_2::adl_serializer, std::__ndk1::vector<unsigned char, std::__ndk1::allocator<unsigned char> > >, std::__ndk1::allocator<nlohmann::json_abi_v3_11_2::basic_json<std::__ndk1::map, std::__ndk1::vector, std::__ndk1::basic_string<char, std::__ndk1::char_traits<char>, std::__ndk1::allocator<char> >, bool, long, unsigned long, double, std::__ndk1::allocator, nlohmann::json_abi_v3_11_2::adl_serializer, std::__ndk1::vector<unsigned char, std::__ndk1::allocator<unsigned char> > > > >::__throw_length_error[abi:ne180000]() const
PUBLIC 6771c 0 std::__ndk1::__split_buffer<nlohmann::json_abi_v3_11_2::basic_json<std::__ndk1::map, std::__ndk1::vector, std::__ndk1::basic_string<char, std::__ndk1::char_traits<char>, std::__ndk1::allocator<char> >, bool, long, unsigned long, double, std::__ndk1::allocator, nlohmann::json_abi_v3_11_2::adl_serializer, std::__ndk1::vector<unsigned char, std::__ndk1::allocator<unsigned char> > >, std::__ndk1::allocator<nlohmann::json_abi_v3_11_2::basic_json<std::__ndk1::map, std::__ndk1::vector, std::__ndk1::basic_string<char, std::__ndk1::char_traits<char>, std::__ndk1::allocator<char> >, bool, long, unsigned long, double, std::__ndk1::allocator, nlohmann::json_abi_v3_11_2::adl_serializer, std::__ndk1::vector<unsigned char, std::__ndk1::allocator<unsigned char> > > >&>::~__split_buffer()
PUBLIC 67774 0 std::__ndk1::vector<nlohmann::json_abi_v3_11_2::basic_json<std::__ndk1::map, std::__ndk1::vector, std::__ndk1::basic_string<char, std::__ndk1::char_traits<char>, std::__ndk1::allocator<char> >, bool, long, unsigned long, double, std::__ndk1::allocator, nlohmann::json_abi_v3_11_2::adl_serializer, std::__ndk1::vector<unsigned char, std::__ndk1::allocator<unsigned char> > >, std::__ndk1::allocator<nlohmann::json_abi_v3_11_2::basic_json<std::__ndk1::map, std::__ndk1::vector, std::__ndk1::basic_string<char, std::__ndk1::char_traits<char>, std::__ndk1::allocator<char> >, bool, long, unsigned long, double, std::__ndk1::allocator, nlohmann::json_abi_v3_11_2::adl_serializer, std::__ndk1::vector<unsigned char, std::__ndk1::allocator<unsigned char> > > > >::__push_back_slow_path<nlohmann::json_abi_v3_11_2::basic_json<std::__ndk1::map, std::__ndk1::vector, std::__ndk1::basic_string<char, std::__ndk1::char_traits<char>, std::__ndk1::allocator<char> >, bool, long, unsigned long, double, std::__ndk1::allocator, nlohmann::json_abi_v3_11_2::adl_serializer, std::__ndk1::vector<unsigned char, std::__ndk1::allocator<unsigned char> > > >(nlohmann::json_abi_v3_11_2::basic_json<std::__ndk1::map, std::__ndk1::vector, std::__ndk1::basic_string<char, std::__ndk1::char_traits<char>, std::__ndk1::allocator<char> >, bool, long, unsigned long, double, std::__ndk1::allocator, nlohmann::json_abi_v3_11_2::adl_serializer, std::__ndk1::vector<unsigned char, std::__ndk1::allocator<unsigned char> > >&&)
PUBLIC 678ac 0 std::__ndk1::__tree<std::__ndk1::__value_type<std::__ndk1::basic_string<char, std::__ndk1::char_traits<char>, std::__ndk1::allocator<char> >, nlohmann::json_abi_v3_11_2::basic_json<std::__ndk1::map, std::__ndk1::vector, std::__ndk1::basic_string<char, std::__ndk1::char_traits<char>, std::__ndk1::allocator<char> >, bool, long, unsigned long, double, std::__ndk1::allocator, nlohmann::json_abi_v3_11_2::adl_serializer, std::__ndk1::vector<unsigned char, std::__ndk1::allocator<unsigned char> > > >, std::__ndk1::__map_value_compare<std::__ndk1::basic_string<char, std::__ndk1::char_traits<char>, std::__ndk1::allocator<char> >, std::__ndk1::__value_type<std::__ndk1::basic_string<char, std::__ndk1::char_traits<char>, std::__ndk1::allocator<char> >, nlohmann::json_abi_v3_11_2::basic_json<std::__ndk1::map, std::__ndk1::vector, std::__ndk1::basic_string<char, std::__ndk1::char_traits<char>, std::__ndk1::allocator<char> >, bool, long, unsigned long, double, std::__ndk1::allocator, nlohmann::json_abi_v3_11_2::adl_serializer, std::__ndk1::vector<unsigned char, std::__ndk1::allocator<unsigned char> > > >, std::__ndk1::less<void>, true>, std::__ndk1::allocator<std::__ndk1::__value_type<std::__ndk1::basic_string<char, std::__ndk1::char_traits<char>, std::__ndk1::allocator<char> >, nlohmann::json_abi_v3_11_2::basic_json<std::__ndk1::map, std::__ndk1::vector, std::__ndk1::basic_string<char, std::__ndk1::char_traits<char>, std::__ndk1::allocator<char> >, bool, long, unsigned long, double, std::__ndk1::allocator, nlohmann::json_abi_v3_11_2::adl_serializer, std::__ndk1::vector<unsigned char, std::__ndk1::allocator<unsigned char> > > > > >::destroy(std::__ndk1::__tree_node<std::__ndk1::__value_type<std::__ndk1::basic_string<char, std::__ndk1::char_traits<char>, std::__ndk1::allocator<char> >, nlohmann::json_abi_v3_11_2::basic_json<std::__ndk1::map, std::__ndk1::vector, std::__ndk1::basic_string<char, std::__ndk1::char_traits<char>, std::__ndk1::allocator<char> >, bool, long, unsigned long, double, std::__ndk1::allocator, nlohmann::json_abi_v3_11_2::adl_serializer, std::__ndk1::vector<unsigned char, std::__ndk1::allocator<unsigned char> > > >, void*>*)
PUBLIC 67914 0 std::__ndk1::basic_ifstream<char, std::__ndk1::char_traits<char> >::basic_ifstream(char const*, unsigned int)
PUBLIC 67a28 0 nlohmann::json_abi_v3_11_2::basic_json<std::__ndk1::map, std::__ndk1::vector, std::__ndk1::basic_string<char, std::__ndk1::char_traits<char>, std::__ndk1::allocator<char> >, bool, long, unsigned long, double, std::__ndk1::allocator, nlohmann::json_abi_v3_11_2::adl_serializer, std::__ndk1::vector<unsigned char, std::__ndk1::allocator<unsigned char> > >::json_value::json_value(nlohmann::json_abi_v3_11_2::detail::value_t)
PUBLIC 67b3c 0 nlohmann::json_abi_v3_11_2::detail::parser<nlohmann::json_abi_v3_11_2::basic_json<std::__ndk1::map, std::__ndk1::vector, std::__ndk1::basic_string<char, std::__ndk1::char_traits<char>, std::__ndk1::allocator<char> >, bool, long, unsigned long, double, std::__ndk1::allocator, nlohmann::json_abi_v3_11_2::adl_serializer, std::__ndk1::vector<unsigned char, std::__ndk1::allocator<unsigned char> > >, nlohmann::json_abi_v3_11_2::detail::input_stream_adapter>::parse(bool, nlohmann::json_abi_v3_11_2::basic_json<std::__ndk1::map, std::__ndk1::vector, std::__ndk1::basic_string<char, std::__ndk1::char_traits<char>, std::__ndk1::allocator<char> >, bool, long, unsigned long, double, std::__ndk1::allocator, nlohmann::json_abi_v3_11_2::adl_serializer, std::__ndk1::vector<unsigned char, std::__ndk1::allocator<unsigned char> > >&)
PUBLIC 6adc0 0 nlohmann::json_abi_v3_11_2::detail::parser<nlohmann::json_abi_v3_11_2::basic_json<std::__ndk1::map, std::__ndk1::vector, std::__ndk1::basic_string<char, std::__ndk1::char_traits<char>, std::__ndk1::allocator<char> >, bool, long, unsigned long, double, std::__ndk1::allocator, nlohmann::json_abi_v3_11_2::adl_serializer, std::__ndk1::vector<unsigned char, std::__ndk1::allocator<unsigned char> > >, nlohmann::json_abi_v3_11_2::detail::input_stream_adapter>::~parser()
PUBLIC 6ae6c 0 nlohmann::json_abi_v3_11_2::detail::input_stream_adapter::~input_stream_adapter()
PUBLIC 6ae9c 0 nlohmann::json_abi_v3_11_2::detail::lexer<nlohmann::json_abi_v3_11_2::basic_json<std::__ndk1::map, std::__ndk1::vector, std::__ndk1::basic_string<char, std::__ndk1::char_traits<char>, std::__ndk1::allocator<char> >, bool, long, unsigned long, double, std::__ndk1::allocator, nlohmann::json_abi_v3_11_2::adl_serializer, std::__ndk1::vector<unsigned char, std::__ndk1::allocator<unsigned char> > >, nlohmann::json_abi_v3_11_2::detail::input_stream_adapter>::~lexer()
PUBLIC 6aefc 0 nlohmann::json_abi_v3_11_2::detail::lexer<nlohmann::json_abi_v3_11_2::basic_json<std::__ndk1::map, std::__ndk1::vector, std::__ndk1::basic_string<char, std::__ndk1::char_traits<char>, std::__ndk1::allocator<char> >, bool, long, unsigned long, double, std::__ndk1::allocator, nlohmann::json_abi_v3_11_2::adl_serializer, std::__ndk1::vector<unsigned char, std::__ndk1::allocator<unsigned char> > >, nlohmann::json_abi_v3_11_2::detail::input_stream_adapter>::scan()
PUBLIC 6c9ec 0 nlohmann::json_abi_v3_11_2::detail::lexer<nlohmann::json_abi_v3_11_2::basic_json<std::__ndk1::map, std::__ndk1::vector, std::__ndk1::basic_string<char, std::__ndk1::char_traits<char>, std::__ndk1::allocator<char> >, bool, long, unsigned long, double, std::__ndk1::allocator, nlohmann::json_abi_v3_11_2::adl_serializer, std::__ndk1::vector<unsigned char, std::__ndk1::allocator<unsigned char> > >, nlohmann::json_abi_v3_11_2::detail::input_stream_adapter>::skip_whitespace()
PUBLIC 6cc88 0 nlohmann::json_abi_v3_11_2::detail::lexer<nlohmann::json_abi_v3_11_2::basic_json<std::__ndk1::map, std::__ndk1::vector, std::__ndk1::basic_string<char, std::__ndk1::char_traits<char>, std::__ndk1::allocator<char> >, bool, long, unsigned long, double, std::__ndk1::allocator, nlohmann::json_abi_v3_11_2::adl_serializer, std::__ndk1::vector<unsigned char, std::__ndk1::allocator<unsigned char> > >, nlohmann::json_abi_v3_11_2::detail::input_stream_adapter>::get()
PUBLIC 6cf0c 0 std::__ndk1::vector<char, std::__ndk1::allocator<char> >::__throw_length_error[abi:ne180000]() const
PUBLIC 6cf20 0 nlohmann::json_abi_v3_11_2::detail::lexer<nlohmann::json_abi_v3_11_2::basic_json<std::__ndk1::map, std::__ndk1::vector, std::__ndk1::basic_string<char, std::__ndk1::char_traits<char>, std::__ndk1::allocator<char> >, bool, long, unsigned long, double, std::__ndk1::allocator, nlohmann::json_abi_v3_11_2::adl_serializer, std::__ndk1::vector<unsigned char, std::__ndk1::allocator<unsigned char> > >, nlohmann::json_abi_v3_11_2::detail::input_stream_adapter>::get_codepoint()
PUBLIC 6d0cc 0 nlohmann::json_abi_v3_11_2::detail::json_sax_dom_callback_parser<nlohmann::json_abi_v3_11_2::basic_json<std::__ndk1::map, std::__ndk1::vector, std::__ndk1::basic_string<char, std::__ndk1::char_traits<char>, std::__ndk1::allocator<char> >, bool, long, unsigned long, double, std::__ndk1::allocator, nlohmann::json_abi_v3_11_2::adl_serializer, std::__ndk1::vector<unsigned char, std::__ndk1::allocator<unsigned char> > > >::parse_error<nlohmann::json_abi_v3_11_2::detail::parse_error>(unsigned long, std::__ndk1::basic_string<char, std::__ndk1::char_traits<char>, std::__ndk1::allocator<char> > const&, nlohmann::json_abi_v3_11_2::detail::parse_error const&)
PUBLIC 6d11c 0 nlohmann::json_abi_v3_11_2::detail::lexer<nlohmann::json_abi_v3_11_2::basic_json<std::__ndk1::map, std::__ndk1::vector, std::__ndk1::basic_string<char, std::__ndk1::char_traits<char>, std::__ndk1::allocator<char> >, bool, long, unsigned long, double, std::__ndk1::allocator, nlohmann::json_abi_v3_11_2::adl_serializer, std::__ndk1::vector<unsigned char, std::__ndk1::allocator<unsigned char> > >, nlohmann::json_abi_v3_11_2::detail::input_stream_adapter>::get_token_string() const
PUBLIC 6d220 0 _ZN8nlohmann16json_abi_v3_11_26detail11parse_error6createIDnTnNSt6__ndk19enable_ifIXsr21is_basic_json_contextIT_EE5valueEiE4typeELi0EEES2_iRKNS1_10position_tERKNS4_12basic_stringIcNS4_11char_traitsIcEENS4_9allocatorIcEEEES6_
PUBLIC 6d70c 0 nlohmann::json_abi_v3_11_2::detail::parser<nlohmann::json_abi_v3_11_2::basic_json<std::__ndk1::map, std::__ndk1::vector, std::__ndk1::basic_string<char, std::__ndk1::char_traits<char>, std::__ndk1::allocator<char> >, bool, long, unsigned long, double, std::__ndk1::allocator, nlohmann::json_abi_v3_11_2::adl_serializer, std::__ndk1::vector<unsigned char, std::__ndk1::allocator<unsigned char> > >, nlohmann::json_abi_v3_11_2::detail::input_stream_adapter>::exception_message(nlohmann::json_abi_v3_11_2::detail::lexer_base<nlohmann::json_abi_v3_11_2::basic_json<std::__ndk1::map, std::__ndk1::vector, std::__ndk1::basic_string<char, std::__ndk1::char_traits<char>, std::__ndk1::allocator<char> >, bool, long, unsigned long, double, std::__ndk1::allocator, nlohmann::json_abi_v3_11_2::adl_serializer, std::__ndk1::vector<unsigned char, std::__ndk1::allocator<unsigned char> > > >::token_type, std::__ndk1::basic_string<char, std::__ndk1::char_traits<char>, std::__ndk1::allocator<char> > const&)
PUBLIC 6db78 0 nlohmann::json_abi_v3_11_2::detail::exception::~exception()
PUBLIC 6dba8 0 nlohmann::json_abi_v3_11_2::detail::json_sax_dom_callback_parser<nlohmann::json_abi_v3_11_2::basic_json<std::__ndk1::map, std::__ndk1::vector, std::__ndk1::basic_string<char, std::__ndk1::char_traits<char>, std::__ndk1::allocator<char> >, bool, long, unsigned long, double, std::__ndk1::allocator, nlohmann::json_abi_v3_11_2::adl_serializer, std::__ndk1::vector<unsigned char, std::__ndk1::allocator<unsigned char> > > >::~json_sax_dom_callback_parser()
PUBLIC 6dc34 0 nlohmann::json_abi_v3_11_2::detail::json_sax_dom_parser<nlohmann::json_abi_v3_11_2::basic_json<std::__ndk1::map, std::__ndk1::vector, std::__ndk1::basic_string<char, std::__ndk1::char_traits<char>, std::__ndk1::allocator<char> >, bool, long, unsigned long, double, std::__ndk1::allocator, nlohmann::json_abi_v3_11_2::adl_serializer, std::__ndk1::vector<unsigned char, std::__ndk1::allocator<unsigned char> > > >::parse_error<nlohmann::json_abi_v3_11_2::detail::parse_error>(unsigned long, std::__ndk1::basic_string<char, std::__ndk1::char_traits<char>, std::__ndk1::allocator<char> > const&, nlohmann::json_abi_v3_11_2::detail::parse_error const&)
PUBLIC 6dc84 0 std::__ndk1::vector<bool, std::__ndk1::allocator<bool> >::reserve(unsigned long)
PUBLIC 6dd84 0 std::__ndk1::vector<bool, std::__ndk1::allocator<bool> >::__throw_length_error[abi:ne180000]() const
PUBLIC 6dd98 0 nlohmann::json_abi_v3_11_2::detail::json_sax_dom_callback_parser<nlohmann::json_abi_v3_11_2::basic_json<std::__ndk1::map, std::__ndk1::vector, std::__ndk1::basic_string<char, std::__ndk1::char_traits<char>, std::__ndk1::allocator<char> >, bool, long, unsigned long, double, std::__ndk1::allocator, nlohmann::json_abi_v3_11_2::adl_serializer, std::__ndk1::vector<unsigned char, std::__ndk1::allocator<unsigned char> > > >::end_object()
PUBLIC 6e3f4 0 nlohmann::json_abi_v3_11_2::detail::json_sax_dom_callback_parser<nlohmann::json_abi_v3_11_2::basic_json<std::__ndk1::map, std::__ndk1::vector, std::__ndk1::basic_string<char, std::__ndk1::char_traits<char>, std::__ndk1::allocator<char> >, bool, long, unsigned long, double, std::__ndk1::allocator, nlohmann::json_abi_v3_11_2::adl_serializer, std::__ndk1::vector<unsigned char, std::__ndk1::allocator<unsigned char> > > >::key(std::__ndk1::basic_string<char, std::__ndk1::char_traits<char>, std::__ndk1::allocator<char> >&)
PUBLIC 6e628 0 nlohmann::json_abi_v3_11_2::detail::json_sax_dom_callback_parser<nlohmann::json_abi_v3_11_2::basic_json<std::__ndk1::map, std::__ndk1::vector, std::__ndk1::basic_string<char, std::__ndk1::char_traits<char>, std::__ndk1::allocator<char> >, bool, long, unsigned long, double, std::__ndk1::allocator, nlohmann::json_abi_v3_11_2::adl_serializer, std::__ndk1::vector<unsigned char, std::__ndk1::allocator<unsigned char> > > >::end_array()
PUBLIC 6e7b4 0 nlohmann::json_abi_v3_11_2::detail::json_sax_dom_callback_parser<nlohmann::json_abi_v3_11_2::basic_json<std::__ndk1::map, std::__ndk1::vector, std::__ndk1::basic_string<char, std::__ndk1::char_traits<char>, std::__ndk1::allocator<char> >, bool, long, unsigned long, double, std::__ndk1::allocator, nlohmann::json_abi_v3_11_2::adl_serializer, std::__ndk1::vector<unsigned char, std::__ndk1::allocator<unsigned char> > > >::parse_error<nlohmann::json_abi_v3_11_2::detail::out_of_range>(unsigned long, std::__ndk1::basic_string<char, std::__ndk1::char_traits<char>, std::__ndk1::allocator<char> > const&, nlohmann::json_abi_v3_11_2::detail::out_of_range const&)
PUBLIC 6e804 0 _ZN8nlohmann16json_abi_v3_11_26detail12out_of_range6createIDnTnNSt6__ndk19enable_ifIXsr21is_basic_json_contextIT_EE5valueEiE4typeELi0EEES2_iRKNS4_12basic_stringIcNS4_11char_traitsIcEENS4_9allocatorIcEEEES6_
PUBLIC 6e9f4 0 nlohmann::json_abi_v3_11_2::detail::concat<std::__ndk1::basic_string<char, std::__ndk1::char_traits<char>, std::__ndk1::allocator<char> >, char const (&) [26], std::__ndk1::basic_string<char, std::__ndk1::char_traits<char>, std::__ndk1::allocator<char> >, char>(char const (&) [26], std::__ndk1::basic_string<char, std::__ndk1::char_traits<char>, std::__ndk1::allocator<char> >, char)
PUBLIC 6eab8 0 nlohmann::json_abi_v3_11_2::detail::json_sax_dom_callback_parser<nlohmann::json_abi_v3_11_2::basic_json<std::__ndk1::map, std::__ndk1::vector, std::__ndk1::basic_string<char, std::__ndk1::char_traits<char>, std::__ndk1::allocator<char> >, bool, long, unsigned long, double, std::__ndk1::allocator, nlohmann::json_abi_v3_11_2::adl_serializer, std::__ndk1::vector<unsigned char, std::__ndk1::allocator<unsigned char> > > >::handle_value<nlohmann::json_abi_v3_11_2::detail::value_t>(nlohmann::json_abi_v3_11_2::detail::value_t&&, bool)
PUBLIC 6ec94 0 std::__ndk1::__throw_bad_function_call[abi:ne180000]()
PUBLIC 6ecc8 0 std::__ndk1::bad_function_call::~bad_function_call()
PUBLIC 6ecec 0 std::__ndk1::vector<nlohmann::json_abi_v3_11_2::basic_json<std::__ndk1::map, std::__ndk1::vector, std::__ndk1::basic_string<char, std::__ndk1::char_traits<char>, std::__ndk1::allocator<char> >, bool, long, unsigned long, double, std::__ndk1::allocator, nlohmann::json_abi_v3_11_2::adl_serializer, std::__ndk1::vector<unsigned char, std::__ndk1::allocator<unsigned char> > >, std::__ndk1::allocator<nlohmann::json_abi_v3_11_2::basic_json<std::__ndk1::map, std::__ndk1::vector, std::__ndk1::basic_string<char, std::__ndk1::char_traits<char>, std::__ndk1::allocator<char> >, bool, long, unsigned long, double, std::__ndk1::allocator, nlohmann::json_abi_v3_11_2::adl_serializer, std::__ndk1::vector<unsigned char, std::__ndk1::allocator<unsigned char> > > > >::__emplace_back_slow_path<nlohmann::json_abi_v3_11_2::basic_json<std::__ndk1::map, std::__ndk1::vector, std::__ndk1::basic_string<char, std::__ndk1::char_traits<char>, std::__ndk1::allocator<char> >, bool, long, unsigned long, double, std::__ndk1::allocator, nlohmann::json_abi_v3_11_2::adl_serializer, std::__ndk1::vector<unsigned char, std::__ndk1::allocator<unsigned char> > > >(nlohmann::json_abi_v3_11_2::basic_json<std::__ndk1::map, std::__ndk1::vector, std::__ndk1::basic_string<char, std::__ndk1::char_traits<char>, std::__ndk1::allocator<char> >, bool, long, unsigned long, double, std::__ndk1::allocator, nlohmann::json_abi_v3_11_2::adl_serializer, std::__ndk1::vector<unsigned char, std::__ndk1::allocator<unsigned char> > >&&)
PUBLIC 6ee24 0 std::__ndk1::vector<nlohmann::json_abi_v3_11_2::basic_json<std::__ndk1::map, std::__ndk1::vector, std::__ndk1::basic_string<char, std::__ndk1::char_traits<char>, std::__ndk1::allocator<char> >, bool, long, unsigned long, double, std::__ndk1::allocator, nlohmann::json_abi_v3_11_2::adl_serializer, std::__ndk1::vector<unsigned char, std::__ndk1::allocator<unsigned char> > >*, std::__ndk1::allocator<nlohmann::json_abi_v3_11_2::basic_json<std::__ndk1::map, std::__ndk1::vector, std::__ndk1::basic_string<char, std::__ndk1::char_traits<char>, std::__ndk1::allocator<char> >, bool, long, unsigned long, double, std::__ndk1::allocator, nlohmann::json_abi_v3_11_2::adl_serializer, std::__ndk1::vector<unsigned char, std::__ndk1::allocator<unsigned char> > >*> >::__throw_length_error[abi:ne180000]() const
PUBLIC 6ee38 0 nlohmann::json_abi_v3_11_2::detail::out_of_range::~out_of_range()
PUBLIC 6ee70 0 _ZN8nlohmann16json_abi_v3_11_26detail16invalid_iterator6createIPNS0_10basic_jsonINSt6__ndk13mapENS5_6vectorENS5_12basic_stringIcNS5_11char_traitsIcEENS5_9allocatorIcEEEEblmdSB_NS0_14adl_serializerENS7_IhNSB_IhEEEEEETnNS5_9enable_ifIXsr21is_basic_json_contextIT_EE5valueEiE4typeELi0EEES2_iRKSD_SK_
PUBLIC 6f054 0 nlohmann::json_abi_v3_11_2::detail::invalid_iterator::~invalid_iterator()
PUBLIC 6f08c 0 _ZN8nlohmann16json_abi_v3_11_26detail10type_error6createIPNS0_10basic_jsonINSt6__ndk13mapENS5_6vectorENS5_12basic_stringIcNS5_11char_traitsIcEENS5_9allocatorIcEEEEblmdSB_NS0_14adl_serializerENS7_IhNSB_IhEEEEEETnNS5_9enable_ifIXsr21is_basic_json_contextIT_EE5valueEiE4typeELi0EEES2_iRKSD_SK_
PUBLIC 6f274 0 nlohmann::json_abi_v3_11_2::detail::concat<std::__ndk1::basic_string<char, std::__ndk1::char_traits<char>, std::__ndk1::allocator<char> >, char const (&) [25], char const*>(char const (&) [25], char const*)
PUBLIC 6f31c 0 std::__ndk1::__tree<std::__ndk1::__value_type<std::__ndk1::basic_string<char, std::__ndk1::char_traits<char>, std::__ndk1::allocator<char> >, nlohmann::json_abi_v3_11_2::basic_json<std::__ndk1::map, std::__ndk1::vector, std::__ndk1::basic_string<char, std::__ndk1::char_traits<char>, std::__ndk1::allocator<char> >, bool, long, unsigned long, double, std::__ndk1::allocator, nlohmann::json_abi_v3_11_2::adl_serializer, std::__ndk1::vector<unsigned char, std::__ndk1::allocator<unsigned char> > > >, std::__ndk1::__map_value_compare<std::__ndk1::basic_string<char, std::__ndk1::char_traits<char>, std::__ndk1::allocator<char> >, std::__ndk1::__value_type<std::__ndk1::basic_string<char, std::__ndk1::char_traits<char>, std::__ndk1::allocator<char> >, nlohmann::json_abi_v3_11_2::basic_json<std::__ndk1::map, std::__ndk1::vector, std::__ndk1::basic_string<char, std::__ndk1::char_traits<char>, std::__ndk1::allocator<char> >, bool, long, unsigned long, double, std::__ndk1::allocator, nlohmann::json_abi_v3_11_2::adl_serializer, std::__ndk1::vector<unsigned char, std::__ndk1::allocator<unsigned char> > > >, std::__ndk1::less<void>, true>, std::__ndk1::allocator<std::__ndk1::__value_type<std::__ndk1::basic_string<char, std::__ndk1::char_traits<char>, std::__ndk1::allocator<char> >, nlohmann::json_abi_v3_11_2::basic_json<std::__ndk1::map, std::__ndk1::vector, std::__ndk1::basic_string<char, std::__ndk1::char_traits<char>, std::__ndk1::allocator<char> >, bool, long, unsigned long, double, std::__ndk1::allocator, nlohmann::json_abi_v3_11_2::adl_serializer, std::__ndk1::vector<unsigned char, std::__ndk1::allocator<unsigned char> > > > > >::__emplace_unique_key_args<std::__ndk1::basic_string<char, std::__ndk1::char_traits<char>, std::__ndk1::allocator<char> >, std::__ndk1::piecewise_construct_t const&, std::__ndk1::tuple<std::__ndk1::basic_string<char, std::__ndk1::char_traits<char>, std::__ndk1::allocator<char> > const&>, std::__ndk1::tuple<> >(std::__ndk1::basic_string<char, std::__ndk1::char_traits<char>, std::__ndk1::allocator<char> > const&, std::__ndk1::piecewise_construct_t const&, std::__ndk1::tuple<std::__ndk1::basic_string<char, std::__ndk1::char_traits<char>, std::__ndk1::allocator<char> > const&>, std::__ndk1::tuple<>)
PUBLIC 6f4f4 0 std::__ndk1::unique_ptr<std::__ndk1::__tree_node<std::__ndk1::__value_type<std::__ndk1::basic_string<char, std::__ndk1::char_traits<char>, std::__ndk1::allocator<char> >, nlohmann::json_abi_v3_11_2::basic_json<std::__ndk1::map, std::__ndk1::vector, std::__ndk1::basic_string<char, std::__ndk1::char_traits<char>, std::__ndk1::allocator<char> >, bool, long, unsigned long, double, std::__ndk1::allocator, nlohmann::json_abi_v3_11_2::adl_serializer, std::__ndk1::vector<unsigned char, std::__ndk1::allocator<unsigned char> > > >, void*>, std::__ndk1::__tree_node_destructor<std::__ndk1::allocator<std::__ndk1::__tree_node<std::__ndk1::__value_type<std::__ndk1::basic_string<char, std::__ndk1::char_traits<char>, std::__ndk1::allocator<char> >, nlohmann::json_abi_v3_11_2::basic_json<std::__ndk1::map, std::__ndk1::vector, std::__ndk1::basic_string<char, std::__ndk1::char_traits<char>, std::__ndk1::allocator<char> >, bool, long, unsigned long, double, std::__ndk1::allocator, nlohmann::json_abi_v3_11_2::adl_serializer, std::__ndk1::vector<unsigned char, std::__ndk1::allocator<unsigned char> > > >, void*> > > >::~unique_ptr[abi:ne180000]()
PUBLIC 6f550 0 nlohmann::json_abi_v3_11_2::detail::out_of_range::out_of_range(nlohmann::json_abi_v3_11_2::detail::out_of_range const&)
PUBLIC 6f598 0 nlohmann::json_abi_v3_11_2::detail::parse_error::parse_error(nlohmann::json_abi_v3_11_2::detail::parse_error const&)
PUBLIC 6f5ec 0 nlohmann::json_abi_v3_11_2::detail::parse_error::~parse_error()
PUBLIC 6f624 0 snprintf(char*, unsigned long pass_object_size1, char const*, ...)
PUBLIC 6f6c8 0 nlohmann::json_abi_v3_11_2::detail::json_sax_dom_parser<nlohmann::json_abi_v3_11_2::basic_json<std::__ndk1::map, std::__ndk1::vector, std::__ndk1::basic_string<char, std::__ndk1::char_traits<char>, std::__ndk1::allocator<char> >, bool, long, unsigned long, double, std::__ndk1::allocator, nlohmann::json_abi_v3_11_2::adl_serializer, std::__ndk1::vector<unsigned char, std::__ndk1::allocator<unsigned char> > > >::parse_error<nlohmann::json_abi_v3_11_2::detail::out_of_range>(unsigned long, std::__ndk1::basic_string<char, std::__ndk1::char_traits<char>, std::__ndk1::allocator<char> > const&, nlohmann::json_abi_v3_11_2::detail::out_of_range const&)
PUBLIC 6f718 0 nlohmann::json_abi_v3_11_2::detail::json_sax_dom_parser<nlohmann::json_abi_v3_11_2::basic_json<std::__ndk1::map, std::__ndk1::vector, std::__ndk1::basic_string<char, std::__ndk1::char_traits<char>, std::__ndk1::allocator<char> >, bool, long, unsigned long, double, std::__ndk1::allocator, nlohmann::json_abi_v3_11_2::adl_serializer, std::__ndk1::vector<unsigned char, std::__ndk1::allocator<unsigned char> > > >::handle_value<nlohmann::json_abi_v3_11_2::detail::value_t>(nlohmann::json_abi_v3_11_2::detail::value_t&&)
PUBLIC 6f9bc 0 nlohmann::json_abi_v3_11_2::detail::json_sax_dom_parser<nlohmann::json_abi_v3_11_2::basic_json<std::__ndk1::map, std::__ndk1::vector, std::__ndk1::basic_string<char, std::__ndk1::char_traits<char>, std::__ndk1::allocator<char> >, bool, long, unsigned long, double, std::__ndk1::allocator, nlohmann::json_abi_v3_11_2::adl_serializer, std::__ndk1::vector<unsigned char, std::__ndk1::allocator<unsigned char> > > >::handle_value<bool&>(bool&)
PUBLIC 6fc04 0 std::__ndk1::basic_ofstream<char, std::__ndk1::char_traits<char> >::basic_ofstream(char const*, unsigned int)
PUBLIC 6fd14 0 std::__ndk1::shared_ptr<nlohmann::json_abi_v3_11_2::detail::output_adapter_protocol<char> >::~shared_ptr[abi:ne180000]()
PUBLIC 6fd64 0 nlohmann::json_abi_v3_11_2::detail::output_adapter<char, std::__ndk1::basic_string<char, std::__ndk1::char_traits<char>, std::__ndk1::allocator<char> > >::~output_adapter()
PUBLIC 6fdb4 0 nlohmann::json_abi_v3_11_2::detail::serializer<nlohmann::json_abi_v3_11_2::basic_json<std::__ndk1::map, std::__ndk1::vector, std::__ndk1::basic_string<char, std::__ndk1::char_traits<char>, std::__ndk1::allocator<char> >, bool, long, unsigned long, double, std::__ndk1::allocator, nlohmann::json_abi_v3_11_2::adl_serializer, std::__ndk1::vector<unsigned char, std::__ndk1::allocator<unsigned char> > > >::dump(nlohmann::json_abi_v3_11_2::basic_json<std::__ndk1::map, std::__ndk1::vector, std::__ndk1::basic_string<char, std::__ndk1::char_traits<char>, std::__ndk1::allocator<char> >, bool, long, unsigned long, double, std::__ndk1::allocator, nlohmann::json_abi_v3_11_2::adl_serializer, std::__ndk1::vector<unsigned char, std::__ndk1::allocator<unsigned char> > > const&, bool, bool, unsigned int, unsigned int)
PUBLIC 71618 0 nlohmann::json_abi_v3_11_2::detail::serializer<nlohmann::json_abi_v3_11_2::basic_json<std::__ndk1::map, std::__ndk1::vector, std::__ndk1::basic_string<char, std::__ndk1::char_traits<char>, std::__ndk1::allocator<char> >, bool, long, unsigned long, double, std::__ndk1::allocator, nlohmann::json_abi_v3_11_2::adl_serializer, std::__ndk1::vector<unsigned char, std::__ndk1::allocator<unsigned char> > > >::~serializer()
PUBLIC 7167c 0 std::__ndk1::__shared_ptr_emplace<nlohmann::json_abi_v3_11_2::detail::output_string_adapter<char, std::__ndk1::basic_string<char, std::__ndk1::char_traits<char>, std::__ndk1::allocator<char> > >, std::__ndk1::allocator<nlohmann::json_abi_v3_11_2::detail::output_string_adapter<char, std::__ndk1::basic_string<char, std::__ndk1::char_traits<char>, std::__ndk1::allocator<char> > > > >::~__shared_ptr_emplace()
PUBLIC 7168c 0 std::__ndk1::__shared_ptr_emplace<nlohmann::json_abi_v3_11_2::detail::output_string_adapter<char, std::__ndk1::basic_string<char, std::__ndk1::char_traits<char>, std::__ndk1::allocator<char> > >, std::__ndk1::allocator<nlohmann::json_abi_v3_11_2::detail::output_string_adapter<char, std::__ndk1::basic_string<char, std::__ndk1::char_traits<char>, std::__ndk1::allocator<char> > > > >::~__shared_ptr_emplace()
PUBLIC 716bc 0 std::__ndk1::__shared_ptr_emplace<nlohmann::json_abi_v3_11_2::detail::output_string_adapter<char, std::__ndk1::basic_string<char, std::__ndk1::char_traits<char>, std::__ndk1::allocator<char> > >, std::__ndk1::allocator<nlohmann::json_abi_v3_11_2::detail::output_string_adapter<char, std::__ndk1::basic_string<char, std::__ndk1::char_traits<char>, std::__ndk1::allocator<char> > > > >::__on_zero_shared()
PUBLIC 716c8 0 std::__ndk1::__shared_ptr_emplace<nlohmann::json_abi_v3_11_2::detail::output_string_adapter<char, std::__ndk1::basic_string<char, std::__ndk1::char_traits<char>, std::__ndk1::allocator<char> > >, std::__ndk1::allocator<nlohmann::json_abi_v3_11_2::detail::output_string_adapter<char, std::__ndk1::basic_string<char, std::__ndk1::char_traits<char>, std::__ndk1::allocator<char> > > > >::__on_zero_shared_weak()
PUBLIC 716cc 0 nlohmann::json_abi_v3_11_2::detail::output_string_adapter<char, std::__ndk1::basic_string<char, std::__ndk1::char_traits<char>, std::__ndk1::allocator<char> > >::write_character(char)
PUBLIC 716d4 0 nlohmann::json_abi_v3_11_2::detail::output_string_adapter<char, std::__ndk1::basic_string<char, std::__ndk1::char_traits<char>, std::__ndk1::allocator<char> > >::write_characters(char const*, unsigned long)
PUBLIC 716dc 0 nlohmann::json_abi_v3_11_2::detail::output_adapter_protocol<char>::~output_adapter_protocol()
PUBLIC 716e0 0 nlohmann::json_abi_v3_11_2::detail::output_string_adapter<char, std::__ndk1::basic_string<char, std::__ndk1::char_traits<char>, std::__ndk1::allocator<char> > >::~output_string_adapter()
PUBLIC 716e4 0 nlohmann::json_abi_v3_11_2::detail::serializer<nlohmann::json_abi_v3_11_2::basic_json<std::__ndk1::map, std::__ndk1::vector, std::__ndk1::basic_string<char, std::__ndk1::char_traits<char>, std::__ndk1::allocator<char> >, bool, long, unsigned long, double, std::__ndk1::allocator, nlohmann::json_abi_v3_11_2::adl_serializer, std::__ndk1::vector<unsigned char, std::__ndk1::allocator<unsigned char> > > >::dump_escaped(std::__ndk1::basic_string<char, std::__ndk1::char_traits<char>, std::__ndk1::allocator<char> > const&, bool)
PUBLIC 71d28 0 _ZN8nlohmann16json_abi_v3_11_26detail10type_error6createIDnTnNSt6__ndk19enable_ifIXsr21is_basic_json_contextIT_EE5valueEiE4typeELi0EEES2_iRKNS4_12basic_stringIcNS4_11char_traitsIcEENS4_9allocatorIcEEEES6_
PUBLIC 71f14 0 nlohmann::json_abi_v3_11_2::detail::concat<std::__ndk1::basic_string<char, std::__ndk1::char_traits<char>, std::__ndk1::allocator<char> >, char const (&) [29], std::__ndk1::basic_string<char, std::__ndk1::char_traits<char>, std::__ndk1::allocator<char> >, char const (&) [5], std::__ndk1::basic_string<char, std::__ndk1::char_traits<char>, std::__ndk1::allocator<char> > >(char const (&) [29], std::__ndk1::basic_string<char, std::__ndk1::char_traits<char>, std::__ndk1::allocator<char> >, char const (&) [5], std::__ndk1::basic_string<char, std::__ndk1::char_traits<char>, std::__ndk1::allocator<char> >)
PUBLIC 72034 0 nlohmann::json_abi_v3_11_2::detail::concat<std::__ndk1::basic_string<char, std::__ndk1::char_traits<char>, std::__ndk1::allocator<char> >, char const (&) [39], std::__ndk1::basic_string<char, std::__ndk1::char_traits<char>, std::__ndk1::allocator<char> > >(char const (&) [39], std::__ndk1::basic_string<char, std::__ndk1::char_traits<char>, std::__ndk1::allocator<char> >)
PUBLIC 720dc 0 _ZNSt6__ndk112basic_stringIcNS_11char_traitsIcEENS_9allocatorIcEEE6appendB8ne180000IPKcTnNS_9enable_ifIXsr31__has_forward_iterator_categoryIT_EE5valueEiE4typeELi0EEERS5_SA_SA_
PUBLIC 723e0 0 nlohmann::json_abi_v3_11_2::basic_json<std::__ndk1::map, std::__ndk1::vector, std::__ndk1::basic_string<char, std::__ndk1::char_traits<char>, std::__ndk1::allocator<char> >, bool, long, unsigned long, double, std::__ndk1::allocator, nlohmann::json_abi_v3_11_2::adl_serializer, std::__ndk1::vector<unsigned char, std::__ndk1::allocator<unsigned char> > >::operator[](std::__ndk1::basic_string<char, std::__ndk1::char_traits<char>, std::__ndk1::allocator<char> >)
PUBLIC 72544 0 nlohmann::json_abi_v3_11_2::detail::concat<std::__ndk1::basic_string<char, std::__ndk1::char_traits<char>, std::__ndk1::allocator<char> >, char const (&) [51], char const*>(char const (&) [51], char const*)
PUBLIC 725ec 0 std::__ndk1::__tree<std::__ndk1::__value_type<std::__ndk1::basic_string<char, std::__ndk1::char_traits<char>, std::__ndk1::allocator<char> >, nlohmann::json_abi_v3_11_2::basic_json<std::__ndk1::map, std::__ndk1::vector, std::__ndk1::basic_string<char, std::__ndk1::char_traits<char>, std::__ndk1::allocator<char> >, bool, long, unsigned long, double, std::__ndk1::allocator, nlohmann::json_abi_v3_11_2::adl_serializer, std::__ndk1::vector<unsigned char, std::__ndk1::allocator<unsigned char> > > >, std::__ndk1::__map_value_compare<std::__ndk1::basic_string<char, std::__ndk1::char_traits<char>, std::__ndk1::allocator<char> >, std::__ndk1::__value_type<std::__ndk1::basic_string<char, std::__ndk1::char_traits<char>, std::__ndk1::allocator<char> >, nlohmann::json_abi_v3_11_2::basic_json<std::__ndk1::map, std::__ndk1::vector, std::__ndk1::basic_string<char, std::__ndk1::char_traits<char>, std::__ndk1::allocator<char> >, bool, long, unsigned long, double, std::__ndk1::allocator, nlohmann::json_abi_v3_11_2::adl_serializer, std::__ndk1::vector<unsigned char, std::__ndk1::allocator<unsigned char> > > >, std::__ndk1::less<void>, true>, std::__ndk1::allocator<std::__ndk1::__value_type<std::__ndk1::basic_string<char, std::__ndk1::char_traits<char>, std::__ndk1::allocator<char> >, nlohmann::json_abi_v3_11_2::basic_json<std::__ndk1::map, std::__ndk1::vector, std::__ndk1::basic_string<char, std::__ndk1::char_traits<char>, std::__ndk1::allocator<char> >, bool, long, unsigned long, double, std::__ndk1::allocator, nlohmann::json_abi_v3_11_2::adl_serializer, std::__ndk1::vector<unsigned char, std::__ndk1::allocator<unsigned char> > > > > >::__emplace_unique_key_args<std::__ndk1::basic_string<char, std::__ndk1::char_traits<char>, std::__ndk1::allocator<char> >, std::__ndk1::basic_string<char, std::__ndk1::char_traits<char>, std::__ndk1::allocator<char> >, std::nullptr_t>(std::__ndk1::basic_string<char, std::__ndk1::char_traits<char>, std::__ndk1::allocator<char> > const&, std::__ndk1::basic_string<char, std::__ndk1::char_traits<char>, std::__ndk1::allocator<char> >&&, std::nullptr_t)
PUBLIC 72764 0 _ZNK8nlohmann16json_abi_v3_11_26detail9iter_implINS0_10basic_jsonINSt6__ndk13mapENS4_6vectorENS4_12basic_stringIcNS4_11char_traitsIcEENS4_9allocatorIcEEEEblmdSA_NS0_14adl_serializerENS6_IhNSA_IhEEEEEEEeqISH_TnNS4_9enable_ifIXoosr3std7is_sameIT_SH_EE5valuesr3std7is_sameISK_NS2_IKSG_EEEE5valueEDnE4typeELDn0EEEbRKSK_
PUBLIC 7289c 0 std::__ndk1::__tree<std::__ndk1::__value_type<std::__ndk1::basic_string<char, std::__ndk1::char_traits<char>, std::__ndk1::allocator<char> >, nlohmann::json_abi_v3_11_2::basic_json<std::__ndk1::map, std::__ndk1::vector, std::__ndk1::basic_string<char, std::__ndk1::char_traits<char>, std::__ndk1::allocator<char> >, bool, long, unsigned long, double, std::__ndk1::allocator, nlohmann::json_abi_v3_11_2::adl_serializer, std::__ndk1::vector<unsigned char, std::__ndk1::allocator<unsigned char> > > >, std::__ndk1::__map_value_compare<std::__ndk1::basic_string<char, std::__ndk1::char_traits<char>, std::__ndk1::allocator<char> >, std::__ndk1::__value_type<std::__ndk1::basic_string<char, std::__ndk1::char_traits<char>, std::__ndk1::allocator<char> >, nlohmann::json_abi_v3_11_2::basic_json<std::__ndk1::map, std::__ndk1::vector, std::__ndk1::basic_string<char, std::__ndk1::char_traits<char>, std::__ndk1::allocator<char> >, bool, long, unsigned long, double, std::__ndk1::allocator, nlohmann::json_abi_v3_11_2::adl_serializer, std::__ndk1::vector<unsigned char, std::__ndk1::allocator<unsigned char> > > >, std::__ndk1::less<void>, true>, std::__ndk1::allocator<std::__ndk1::__value_type<std::__ndk1::basic_string<char, std::__ndk1::char_traits<char>, std::__ndk1::allocator<char> >, nlohmann::json_abi_v3_11_2::basic_json<std::__ndk1::map, std::__ndk1::vector, std::__ndk1::basic_string<char, std::__ndk1::char_traits<char>, std::__ndk1::allocator<char> >, bool, long, unsigned long, double, std::__ndk1::allocator, nlohmann::json_abi_v3_11_2::adl_serializer, std::__ndk1::vector<unsigned char, std::__ndk1::allocator<unsigned char> > > > > >::__emplace_hint_unique_key_args<std::__ndk1::basic_string<char, std::__ndk1::char_traits<char>, std::__ndk1::allocator<char> >, std::__ndk1::pair<std::__ndk1::basic_string<char, std::__ndk1::char_traits<char>, std::__ndk1::allocator<char> > const, nlohmann::json_abi_v3_11_2::basic_json<std::__ndk1::map, std::__ndk1::vector, std::__ndk1::basic_string<char, std::__ndk1::char_traits<char>, std::__ndk1::allocator<char> >, bool, long, unsigned long, double, std::__ndk1::allocator, nlohmann::json_abi_v3_11_2::adl_serializer, std::__ndk1::vector<unsigned char, std::__ndk1::allocator<unsigned char> > > > const&>(std::__ndk1::__tree_const_iterator<std::__ndk1::__value_type<std::__ndk1::basic_string<char, std::__ndk1::char_traits<char>, std::__ndk1::allocator<char> >, nlohmann::json_abi_v3_11_2::basic_json<std::__ndk1::map, std::__ndk1::vector, std::__ndk1::basic_string<char, std::__ndk1::char_traits<char>, std::__ndk1::allocator<char> >, bool, long, unsigned long, double, std::__ndk1::allocator, nlohmann::json_abi_v3_11_2::adl_serializer, std::__ndk1::vector<unsigned char, std::__ndk1::allocator<unsigned char> > > >, std::__ndk1::__tree_node<std::__ndk1::__value_type<std::__ndk1::basic_string<char, std::__ndk1::char_traits<char>, std::__ndk1::allocator<char> >, nlohmann::json_abi_v3_11_2::basic_json<std::__ndk1::map, std::__ndk1::vector, std::__ndk1::basic_string<char, std::__ndk1::char_traits<char>, std::__ndk1::allocator<char> >, bool, long, unsigned long, double, std::__ndk1::allocator, nlohmann::json_abi_v3_11_2::adl_serializer, std::__ndk1::vector<unsigned char, std::__ndk1::allocator<unsigned char> > > >, void*>*, long>, std::__ndk1::basic_string<char, std::__ndk1::char_traits<char>, std::__ndk1::allocator<char> > const&, std::__ndk1::pair<std::__ndk1::basic_string<char, std::__ndk1::char_traits<char>, std::__ndk1::allocator<char> > const, nlohmann::json_abi_v3_11_2::basic_json<std::__ndk1::map, std::__ndk1::vector, std::__ndk1::basic_string<char, std::__ndk1::char_traits<char>, std::__ndk1::allocator<char> >, bool, long, unsigned long, double, std::__ndk1::allocator, nlohmann::json_abi_v3_11_2::adl_serializer, std::__ndk1::vector<unsigned char, std::__ndk1::allocator<unsigned char> > > > const&)
PUBLIC 729f4 0 std::__ndk1::__tree<std::__ndk1::__value_type<std::__ndk1::basic_string<char, std::__ndk1::char_traits<char>, std::__ndk1::allocator<char> >, nlohmann::json_abi_v3_11_2::basic_json<std::__ndk1::map, std::__ndk1::vector, std::__ndk1::basic_string<char, std::__ndk1::char_traits<char>, std::__ndk1::allocator<char> >, bool, long, unsigned long, double, std::__ndk1::allocator, nlohmann::json_abi_v3_11_2::adl_serializer, std::__ndk1::vector<unsigned char, std::__ndk1::allocator<unsigned char> > > >, std::__ndk1::__map_value_compare<std::__ndk1::basic_string<char, std::__ndk1::char_traits<char>, std::__ndk1::allocator<char> >, std::__ndk1::__value_type<std::__ndk1::basic_string<char, std::__ndk1::char_traits<char>, std::__ndk1::allocator<char> >, nlohmann::json_abi_v3_11_2::basic_json<std::__ndk1::map, std::__ndk1::vector, std::__ndk1::basic_string<char, std::__ndk1::char_traits<char>, std::__ndk1::allocator<char> >, bool, long, unsigned long, double, std::__ndk1::allocator, nlohmann::json_abi_v3_11_2::adl_serializer, std::__ndk1::vector<unsigned char, std::__ndk1::allocator<unsigned char> > > >, std::__ndk1::less<void>, true>, std::__ndk1::allocator<std::__ndk1::__value_type<std::__ndk1::basic_string<char, std::__ndk1::char_traits<char>, std::__ndk1::allocator<char> >, nlohmann::json_abi_v3_11_2::basic_json<std::__ndk1::map, std::__ndk1::vector, std::__ndk1::basic_string<char, std::__ndk1::char_traits<char>, std::__ndk1::allocator<char> >, bool, long, unsigned long, double, std::__ndk1::allocator, nlohmann::json_abi_v3_11_2::adl_serializer, std::__ndk1::vector<unsigned char, std::__ndk1::allocator<unsigned char> > > > > >::__find_equal<std::__ndk1::basic_string<char, std::__ndk1::char_traits<char>, std::__ndk1::allocator<char> > >(std::__ndk1::__tree_const_iterator<std::__ndk1::__value_type<std::__ndk1::basic_string<char, std::__ndk1::char_traits<char>, std::__ndk1::allocator<char> >, nlohmann::json_abi_v3_11_2::basic_json<std::__ndk1::map, std::__ndk1::vector, std::__ndk1::basic_string<char, std::__ndk1::char_traits<char>, std::__ndk1::allocator<char> >, bool, long, unsigned long, double, std::__ndk1::allocator, nlohmann::json_abi_v3_11_2::adl_serializer, std::__ndk1::vector<unsigned char, std::__ndk1::allocator<unsigned char> > > >, std::__ndk1::__tree_node<std::__ndk1::__value_type<std::__ndk1::basic_string<char, std::__ndk1::char_traits<char>, std::__ndk1::allocator<char> >, nlohmann::json_abi_v3_11_2::basic_json<std::__ndk1::map, std::__ndk1::vector, std::__ndk1::basic_string<char, std::__ndk1::char_traits<char>, std::__ndk1::allocator<char> >, bool, long, unsigned long, double, std::__ndk1::allocator, nlohmann::json_abi_v3_11_2::adl_serializer, std::__ndk1::vector<unsigned char, std::__ndk1::allocator<unsigned char> > > >, void*>*, long>, std::__ndk1::__tree_end_node<std::__ndk1::__tree_node_base<void*>*>*&, std::__ndk1::__tree_node_base<void*>*&, std::__ndk1::basic_string<char, std::__ndk1::char_traits<char>, std::__ndk1::allocator<char> > const&)
PUBLIC 72de4 0 std::__ndk1::vector<nlohmann::json_abi_v3_11_2::basic_json<std::__ndk1::map, std::__ndk1::vector, std::__ndk1::basic_string<char, std::__ndk1::char_traits<char>, std::__ndk1::allocator<char> >, bool, long, unsigned long, double, std::__ndk1::allocator, nlohmann::json_abi_v3_11_2::adl_serializer, std::__ndk1::vector<unsigned char, std::__ndk1::allocator<unsigned char> > >, std::__ndk1::allocator<nlohmann::json_abi_v3_11_2::basic_json<std::__ndk1::map, std::__ndk1::vector, std::__ndk1::basic_string<char, std::__ndk1::char_traits<char>, std::__ndk1::allocator<char> >, bool, long, unsigned long, double, std::__ndk1::allocator, nlohmann::json_abi_v3_11_2::adl_serializer, std::__ndk1::vector<unsigned char, std::__ndk1::allocator<unsigned char> > > > >::__init_with_size[abi:ne180000]<nlohmann::json_abi_v3_11_2::basic_json<std::__ndk1::map, std::__ndk1::vector, std::__ndk1::basic_string<char, std::__ndk1::char_traits<char>, std::__ndk1::allocator<char> >, bool, long, unsigned long, double, std::__ndk1::allocator, nlohmann::json_abi_v3_11_2::adl_serializer, std::__ndk1::vector<unsigned char, std::__ndk1::allocator<unsigned char> > >*, std::__ndk1::vector<nlohmann::json_abi_v3_11_2::basic_json<std::__ndk1::map, std::__ndk1::vector, std::__ndk1::basic_string<char, std::__ndk1::char_traits<char>, std::__ndk1::allocator<char> >, bool, long, unsigned long, double, std::__ndk1::allocator, nlohmann::json_abi_v3_11_2::adl_serializer, std::__ndk1::vector<unsigned char, std::__ndk1::allocator<unsigned char> > >, std::__ndk1::allocator<nlohmann::json_abi_v3_11_2::basic_json<std::__ndk1::map, std::__ndk1::vector, std::__ndk1::basic_string<char, std::__ndk1::char_traits<char>, std::__ndk1::allocator<char> >, bool, long, unsigned long, double, std::__ndk1::allocator, nlohmann::json_abi_v3_11_2::adl_serializer, std::__ndk1::vector<unsigned char, std::__ndk1::allocator<unsigned char> > > > >::__init_with_size[abi:ne180000]>(nlohmann::json_abi_v3_11_2::basic_json<std::__ndk1::map, std::__ndk1::vector, std::__ndk1::basic_string<char, std::__ndk1::char_traits<char>, std::__ndk1::allocator<char> >, bool, long, unsigned long, double, std::__ndk1::allocator, nlohmann::json_abi_v3_11_2::adl_serializer, std::__ndk1::vector<unsigned char, std::__ndk1::allocator<unsigned char> > >*, std::__ndk1::vector<nlohmann::json_abi_v3_11_2::basic_json<std::__ndk1::map, std::__ndk1::vector, std::__ndk1::basic_string<char, std::__ndk1::char_traits<char>, std::__ndk1::allocator<char> >, bool, long, unsigned long, double, std::__ndk1::allocator, nlohmann::json_abi_v3_11_2::adl_serializer, std::__ndk1::vector<unsigned char, std::__ndk1::allocator<unsigned char> > >, std::__ndk1::allocator<nlohmann::json_abi_v3_11_2::basic_json<std::__ndk1::map, std::__ndk1::vector, std::__ndk1::basic_string<char, std::__ndk1::char_traits<char>, std::__ndk1::allocator<char> >, bool, long, unsigned long, double, std::__ndk1::allocator, nlohmann::json_abi_v3_11_2::adl_serializer, std::__ndk1::vector<unsigned char, std::__ndk1::allocator<unsigned char> > > > >::__init_with_size[abi:ne180000], unsigned long)
PUBLIC 72f14 0 std::__ndk1::__exception_guard_exceptions<std::__ndk1::vector<nlohmann::json_abi_v3_11_2::basic_json<std::__ndk1::map, std::__ndk1::vector, std::__ndk1::basic_string<char, std::__ndk1::char_traits<char>, std::__ndk1::allocator<char> >, bool, long, unsigned long, double, std::__ndk1::allocator, nlohmann::json_abi_v3_11_2::adl_serializer, std::__ndk1::vector<unsigned char, std::__ndk1::allocator<unsigned char> > >, std::__ndk1::allocator<nlohmann::json_abi_v3_11_2::basic_json<std::__ndk1::map, std::__ndk1::vector, std::__ndk1::basic_string<char, std::__ndk1::char_traits<char>, std::__ndk1::allocator<char> >, bool, long, unsigned long, double, std::__ndk1::allocator, nlohmann::json_abi_v3_11_2::adl_serializer, std::__ndk1::vector<unsigned char, std::__ndk1::allocator<unsigned char> > > > >::__destroy_vector>::~__exception_guard_exceptions[abi:ne180000]()
PUBLIC 72f88 0 std::__ndk1::__exception_guard_exceptions<std::__ndk1::_AllocatorDestroyRangeReverse<std::__ndk1::allocator<nlohmann::json_abi_v3_11_2::basic_json<std::__ndk1::map, std::__ndk1::vector, std::__ndk1::basic_string<char, std::__ndk1::char_traits<char>, std::__ndk1::allocator<char> >, bool, long, unsigned long, double, std::__ndk1::allocator, nlohmann::json_abi_v3_11_2::adl_serializer, std::__ndk1::vector<unsigned char, std::__ndk1::allocator<unsigned char> > > >, nlohmann::json_abi_v3_11_2::basic_json<std::__ndk1::map, std::__ndk1::vector, std::__ndk1::basic_string<char, std::__ndk1::char_traits<char>, std::__ndk1::allocator<char> >, bool, long, unsigned long, double, std::__ndk1::allocator, nlohmann::json_abi_v3_11_2::adl_serializer, std::__ndk1::vector<unsigned char, std::__ndk1::allocator<unsigned char> > >*> >::~__exception_guard_exceptions[abi:ne180000]()
PUBLIC 72fd0 0 std::__ndk1::vector<unsigned char, std::__ndk1::allocator<unsigned char> >::__throw_length_error[abi:ne180000]() const
PUBLIC 72fe4 0 std::__ndk1::__hash_table<std::__ndk1::__hash_value_type<VehicleType, int>, std::__ndk1::__unordered_map_hasher<VehicleType, std::__ndk1::__hash_value_type<VehicleType, int>, std::__ndk1::hash<VehicleType>, std::__ndk1::equal_to<VehicleType>, true>, std::__ndk1::__unordered_map_equal<VehicleType, std::__ndk1::__hash_value_type<VehicleType, int>, std::__ndk1::equal_to<VehicleType>, std::__ndk1::hash<VehicleType>, true>, std::__ndk1::allocator<std::__ndk1::__hash_value_type<VehicleType, int> > >::__emplace_unique_key_args<VehicleType, std::__ndk1::piecewise_construct_t const&, std::__ndk1::tuple<VehicleType&&>, std::__ndk1::tuple<> >(VehicleType const&, std::__ndk1::piecewise_construct_t const&, std::__ndk1::tuple<VehicleType&&>, std::__ndk1::tuple<>)
PUBLIC 732c4 0 std::__ndk1::__tree<std::__ndk1::__value_type<std::__ndk1::basic_string<char, std::__ndk1::char_traits<char>, std::__ndk1::allocator<char> >, nlohmann::json_abi_v3_11_2::basic_json<std::__ndk1::map, std::__ndk1::vector, std::__ndk1::basic_string<char, std::__ndk1::char_traits<char>, std::__ndk1::allocator<char> >, bool, long, unsigned long, double, std::__ndk1::allocator, nlohmann::json_abi_v3_11_2::adl_serializer, std::__ndk1::vector<unsigned char, std::__ndk1::allocator<unsigned char> > > >, std::__ndk1::__map_value_compare<std::__ndk1::basic_string<char, std::__ndk1::char_traits<char>, std::__ndk1::allocator<char> >, std::__ndk1::__value_type<std::__ndk1::basic_string<char, std::__ndk1::char_traits<char>, std::__ndk1::allocator<char> >, nlohmann::json_abi_v3_11_2::basic_json<std::__ndk1::map, std::__ndk1::vector, std::__ndk1::basic_string<char, std::__ndk1::char_traits<char>, std::__ndk1::allocator<char> >, bool, long, unsigned long, double, std::__ndk1::allocator, nlohmann::json_abi_v3_11_2::adl_serializer, std::__ndk1::vector<unsigned char, std::__ndk1::allocator<unsigned char> > > >, std::__ndk1::less<void>, true>, std::__ndk1::allocator<std::__ndk1::__value_type<std::__ndk1::basic_string<char, std::__ndk1::char_traits<char>, std::__ndk1::allocator<char> >, nlohmann::json_abi_v3_11_2::basic_json<std::__ndk1::map, std::__ndk1::vector, std::__ndk1::basic_string<char, std::__ndk1::char_traits<char>, std::__ndk1::allocator<char> >, bool, long, unsigned long, double, std::__ndk1::allocator, nlohmann::json_abi_v3_11_2::adl_serializer, std::__ndk1::vector<unsigned char, std::__ndk1::allocator<unsigned char> > > > > >::find<char [3]>(char const (&) [3])
PUBLIC 73424 0 std::__ndk1::__tree<std::__ndk1::__value_type<std::__ndk1::basic_string<char, std::__ndk1::char_traits<char>, std::__ndk1::allocator<char> >, nlohmann::json_abi_v3_11_2::basic_json<std::__ndk1::map, std::__ndk1::vector, std::__ndk1::basic_string<char, std::__ndk1::char_traits<char>, std::__ndk1::allocator<char> >, bool, long, unsigned long, double, std::__ndk1::allocator, nlohmann::json_abi_v3_11_2::adl_serializer, std::__ndk1::vector<unsigned char, std::__ndk1::allocator<unsigned char> > > >, std::__ndk1::__map_value_compare<std::__ndk1::basic_string<char, std::__ndk1::char_traits<char>, std::__ndk1::allocator<char> >, std::__ndk1::__value_type<std::__ndk1::basic_string<char, std::__ndk1::char_traits<char>, std::__ndk1::allocator<char> >, nlohmann::json_abi_v3_11_2::basic_json<std::__ndk1::map, std::__ndk1::vector, std::__ndk1::basic_string<char, std::__ndk1::char_traits<char>, std::__ndk1::allocator<char> >, bool, long, unsigned long, double, std::__ndk1::allocator, nlohmann::json_abi_v3_11_2::adl_serializer, std::__ndk1::vector<unsigned char, std::__ndk1::allocator<unsigned char> > > >, std::__ndk1::less<void>, true>, std::__ndk1::allocator<std::__ndk1::__value_type<std::__ndk1::basic_string<char, std::__ndk1::char_traits<char>, std::__ndk1::allocator<char> >, nlohmann::json_abi_v3_11_2::basic_json<std::__ndk1::map, std::__ndk1::vector, std::__ndk1::basic_string<char, std::__ndk1::char_traits<char>, std::__ndk1::allocator<char> >, bool, long, unsigned long, double, std::__ndk1::allocator, nlohmann::json_abi_v3_11_2::adl_serializer, std::__ndk1::vector<unsigned char, std::__ndk1::allocator<unsigned char> > > > > >::find<char [2]>(char const (&) [2])
PUBLIC 73584 0 _GLOBAL__sub_I_RecordsManager.cpp
PUBLIC 73968 0 RecordsLayer::open(cocos2d::CCObject*)
PUBLIC 73b0c 0 RecordsLayer::onSettings(cocos2d::CCObject*)
PUBLIC 73b50 0 RecordsLayer::setup()
PUBLIC 742d0 0 geode::Popup<>::setTitle(std::__ndk1::basic_string<char, std::__ndk1::char_traits<char>, std::__ndk1::allocator<char> > const&, char const*, float, float)
PUBLIC 7441c 0 RecordsLayer::addList()
PUBLIC 762ec 0 RecordsLayer::onManager(cocos2d::CCObject*)
PUBLIC 7630c 0 geode::cocos::CCArrayExt<geode::GenericListCell*>::~CCArrayExt()
PUBLIC 76328 0 RecordsLayer::refresh()
PUBLIC 764b0 0 RecordCell::onSpectate(cocos2d::CCObject*)
PUBLIC 76bd4 0 RecordCell::onRace(cocos2d::CCObject*)
PUBLIC 7700c 0 cocos2d::CCCopying::copyWithZone(cocos2d::CCZone*)
PUBLIC 77014 0 RecordsLayer::~RecordsLayer()
PUBLIC 770dc 0 RecordsLayer::~RecordsLayer()
PUBLIC 771ac 0 geode::Popup<>::registerWithTouchDispatcher()
PUBLIC 771d8 0 geode::Popup<>::keyDown(cocos2d::enumKeyCodes)
PUBLIC 77200 0 cocos2d::CCLayerRGBA::setOpacityModifyRGB(bool)
PUBLIC 77204 0 cocos2d::CCLayerRGBA::isOpacityModifyRGB()
PUBLIC 7720c 0 geode::Popup<>::onClose(cocos2d::CCObject*)
PUBLIC 77354 0 {virtual override thunk({offset(-320)}, RecordsLayer::~RecordsLayer())}
PUBLIC 77420 0 {virtual override thunk({offset(-320)}, RecordsLayer::~RecordsLayer())}
PUBLIC 77428 0 {virtual override thunk({offset(-344)}, geode::Popup<>::keyDown(cocos2d::enumKeyCodes))}
PUBLIC 77454 0 cocos2d::CCKeyboardDelegate::keyUp(cocos2d::enumKeyCodes)
PUBLIC 77458 0 cocos2d::CCMouseDelegate::rightKeyDown()
PUBLIC 7745c 0 cocos2d::CCMouseDelegate::rightKeyUp()
PUBLIC 77460 0 cocos2d::CCMouseDelegate::scrollWheel(float, float)
PUBLIC 77464 0 {virtual override thunk({offset(-408)}, cocos2d::CCLayerRGBA::setOpacityModifyRGB(bool))}
PUBLIC 77468 0 {virtual override thunk({offset(-408)}, cocos2d::CCLayerRGBA::isOpacityModifyRGB())}
PUBLIC 77470 0 geode::Popup<>::~Popup()
PUBLIC 774dc 0 geode::Popup<>::~Popup()
PUBLIC 774e0 0 {virtual override thunk({offset(-320)}, geode::Popup<>::~Popup())}
PUBLIC 7754c 0 {virtual override thunk({offset(-320)}, geode::Popup<>::~Popup())}
PUBLIC 77550 0 geode::Popup<>::initBase(float, float, char const*, cocos2d::CCRect, bool)
PUBLIC 77858 0 RecordCell::~RecordCell()
PUBLIC 7790c 0 RecordCell::~RecordCell()
PUBLIC 77930 0 std::__ndk1::vector<RecordCell*, std::__ndk1::allocator<RecordCell*> >::__throw_length_error[abi:ne180000]() const
PUBLIC 77944 0 cocos2d::CCBool::~CCBool()
PUBLIC 77968 0 cocos2d::CCBool::acceptVisitor(cocos2d::CCDataVisitor&)
PUBLIC 77980 0 cocos2d::CCObject::update(float)
PUBLIC 77984 0 std::__ndk1::__independent_bits_engine<std::__ndk1::mersenne_twister_engine<unsigned long, (unsigned long)32, (unsigned long)624, (unsigned long)397, (unsigned long)31, (unsigned long)2567483615, (unsigned long)11, (unsigned long)4294967295, (unsigned long)7, (unsigned long)2636928640, (unsigned long)15, (unsigned long)4022730752, (unsigned long)18, (unsigned long)1812433253>, unsigned int>::__eval(std::__ndk1::integral_constant<bool, true>)
PUBLIC 77b84 0 std::__ndk1::__function::__func<RecordCell::onRace(cocos2d::CCObject*)::$_0, std::__ndk1::allocator<RecordCell::onRace(cocos2d::CCObject*)::$_0>, void ()>::~__func()
PUBLIC 77b88 0 std::__ndk1::__function::__func<RecordCell::onRace(cocos2d::CCObject*)::$_0, std::__ndk1::allocator<RecordCell::onRace(cocos2d::CCObject*)::$_0>, void ()>::__clone() const
PUBLIC 77bbc 0 std::__ndk1::__function::__func<RecordCell::onRace(cocos2d::CCObject*)::$_0, std::__ndk1::allocator<RecordCell::onRace(cocos2d::CCObject*)::$_0>, void ()>::__clone(std::__ndk1::__function::__base<void ()>*) const
PUBLIC 77bd0 0 std::__ndk1::__function::__func<RecordCell::onRace(cocos2d::CCObject*)::$_0, std::__ndk1::allocator<RecordCell::onRace(cocos2d::CCObject*)::$_0>, void ()>::destroy()
PUBLIC 77bd4 0 std::__ndk1::__function::__func<RecordCell::onRace(cocos2d::CCObject*)::$_0, std::__ndk1::allocator<RecordCell::onRace(cocos2d::CCObject*)::$_0>, void ()>::destroy_deallocate()
PUBLIC 77bd8 0 std::__ndk1::__function::__func<RecordCell::onRace(cocos2d::CCObject*)::$_0, std::__ndk1::allocator<RecordCell::onRace(cocos2d::CCObject*)::$_0>, void ()>::operator()()
PUBLIC 77e44 0 std::__ndk1::__function::__func<RecordCell::onRace(cocos2d::CCObject*)::$_0, std::__ndk1::allocator<RecordCell::onRace(cocos2d::CCObject*)::$_0>, void ()>::target(std::type_info const&) const
PUBLIC 77e60 0 std::__ndk1::__function::__func<RecordCell::onRace(cocos2d::CCObject*)::$_0, std::__ndk1::allocator<RecordCell::onRace(cocos2d::CCObject*)::$_0>, void ()>::target_type() const
PUBLIC 77e6c 0 geode::Popup<>::CloseEvent::~CloseEvent()
PUBLIC 77ecc 0 geode::Popup<>::CloseEvent::~CloseEvent()
PUBLIC 77f3c 0 std::__ndk1::__shared_ptr_emplace<geode::Popup<>::CloseEvent::Impl, std::__ndk1::allocator<geode::Popup<>::CloseEvent::Impl> >::~__shared_ptr_emplace()
PUBLIC 77f4c 0 std::__ndk1::__shared_ptr_emplace<geode::Popup<>::CloseEvent::Impl, std::__ndk1::allocator<geode::Popup<>::CloseEvent::Impl> >::~__shared_ptr_emplace()
PUBLIC 77f7c 0 std::__ndk1::__shared_ptr_emplace<geode::Popup<>::CloseEvent::Impl, std::__ndk1::allocator<geode::Popup<>::CloseEvent::Impl> >::__on_zero_shared()
PUBLIC 77f80 0 std::__ndk1::__shared_ptr_emplace<geode::Popup<>::CloseEvent::Impl, std::__ndk1::allocator<geode::Popup<>::CloseEvent::Impl> >::__on_zero_shared_weak()
PUBLIC 77f84 0 _GLOBAL__sub_I_RecordsLayer.cpp
PUBLIC 78368 0 ManagerLayer::open(int)
PUBLIC 78468 0 ManagerLayer::openFolder(cocos2d::CCObject*)
PUBLIC 78658 0 ManagerLayer::reloadList(int)
PUBLIC 78914 0 ManagerLayer::addList(bool, float)
PUBLIC 7ad1c 0 ManagerLayer::deleteSelected(cocos2d::CCObject*)
PUBLIC 7afc8 0 ManagerLayer::onImportGhost(cocos2d::CCObject*)
PUBLIC 7b450 0 geode::utils::file::FilePickOptions::Filter::~Filter()
PUBLIC 7b4d0 0 ManagerLayer::fileChosen(geode::Task<geode::Result<std::__ndk1::__fs::filesystem::path, std::__ndk1::basic_string<char, std::__ndk1::char_traits<char>, std::__ndk1::allocator<char> > >, std::__ndk1::monostate>::Event*)
PUBLIC 7c2b8 0 geode::Task<geode::Result<std::__ndk1::__fs::filesystem::path, std::__ndk1::basic_string<char, std::__ndk1::char_traits<char>, std::__ndk1::allocator<char> > >, std::__ndk1::monostate>::~Task()
PUBLIC 7c308 0 geode::utils::file::FilePickOptions::~FilePickOptions()
PUBLIC 7c390 0 ManagerLayer::onSelectAll(cocos2d::CCObject*)
PUBLIC 7c430 0 GhostCell::selectCell(bool)
PUBLIC 7c68c 0 ManagerLayer::ManagerLayer()
PUBLIC 7c838 0 ManagerLayer::switchLevel(cocos2d::CCObject*)
PUBLIC 7ca44 0 ManagerLayer::onLevelsList(cocos2d::CCObject*)
PUBLIC 7ca68 0 ManagerLayer::setup(int)
PUBLIC 7d734 0 ManagerLayer::updateSort(cocos2d::CCObject*)
PUBLIC 7d750 0 ExportLayer::setup(std::__ndk1::__fs::filesystem::path)
PUBLIC 7db38 0 ExportLayer::onExport(cocos2d::CCObject*)
PUBLIC 7e764 0 GhostCell::setColors(SimplePlayer*)
PUBLIC 7e854 0 GhostCell::onDelete(cocos2d::CCObject*)
PUBLIC 7eaec 0 GhostCell::onExport(cocos2d::CCObject*)
PUBLIC 7f038 0 GhostCell::onSelect(cocos2d::CCObject*)
PUBLIC 7f040 0 ManagerLayer::~ManagerLayer()
PUBLIC 7f214 0 ManagerLayer::~ManagerLayer()
PUBLIC 7f238 0 geode::Popup<int>::registerWithTouchDispatcher()
PUBLIC 7f264 0 geode::Popup<int>::keyDown(cocos2d::enumKeyCodes)
PUBLIC 7f28c 0 geode::Popup<int>::onClose(cocos2d::CCObject*)
PUBLIC 7f3d4 0 {virtual override thunk({offset(-320)}, ManagerLayer::~ManagerLayer())}
PUBLIC 7f3dc 0 {virtual override thunk({offset(-320)}, ManagerLayer::~ManagerLayer())}
PUBLIC 7f404 0 {virtual override thunk({offset(-344)}, geode::Popup<int>::keyDown(cocos2d::enumKeyCodes))}
PUBLIC 7f430 0 ExportLayer::~ExportLayer()
PUBLIC 7f4e8 0 ExportLayer::~ExportLayer()
PUBLIC 7f5a8 0 geode::Popup<std::__ndk1::__fs::filesystem::path>::registerWithTouchDispatcher()
PUBLIC 7f5d4 0 geode::Popup<std::__ndk1::__fs::filesystem::path>::keyDown(cocos2d::enumKeyCodes)
PUBLIC 7f5fc 0 geode::Popup<std::__ndk1::__fs::filesystem::path>::onClose(cocos2d::CCObject*)
PUBLIC 7f744 0 {virtual override thunk({offset(-320)}, ExportLayer::~ExportLayer())}
PUBLIC 7f800 0 {virtual override thunk({offset(-320)}, ExportLayer::~ExportLayer())}
PUBLIC 7f8c4 0 {virtual override thunk({offset(-344)}, geode::Popup<std::__ndk1::__fs::filesystem::path>::keyDown(cocos2d::enumKeyCodes))}
PUBLIC 7f8f0 0 std::__ndk1::unordered_set<std::__ndk1::basic_string<char, std::__ndk1::char_traits<char>, std::__ndk1::allocator<char> >, std::__ndk1::hash<std::__ndk1::basic_string<char, std::__ndk1::char_traits<char>, std::__ndk1::allocator<char> > >, std::__ndk1::equal_to<std::__ndk1::basic_string<char, std::__ndk1::char_traits<char>, std::__ndk1::allocator<char> > >, std::__ndk1::allocator<std::__ndk1::basic_string<char, std::__ndk1::char_traits<char>, std::__ndk1::allocator<char> > > >::unordered_set(std::__ndk1::unordered_set<std::__ndk1::basic_string<char, std::__ndk1::char_traits<char>, std::__ndk1::allocator<char> >, std::__ndk1::hash<std::__ndk1::basic_string<char, std::__ndk1::char_traits<char>, std::__ndk1::allocator<char> > >, std::__ndk1::equal_to<std::__ndk1::basic_string<char, std::__ndk1::char_traits<char>, std::__ndk1::allocator<char> > >, std::__ndk1::allocator<std::__ndk1::basic_string<char, std::__ndk1::char_traits<char>, std::__ndk1::allocator<char> > > > const&)
PUBLIC 80294 0 std::__ndk1::__hash_table<std::__ndk1::basic_string<char, std::__ndk1::char_traits<char>, std::__ndk1::allocator<char> >, std::__ndk1::hash<std::__ndk1::basic_string<char, std::__ndk1::char_traits<char>, std::__ndk1::allocator<char> > >, std::__ndk1::equal_to<std::__ndk1::basic_string<char, std::__ndk1::char_traits<char>, std::__ndk1::allocator<char> > >, std::__ndk1::allocator<std::__ndk1::basic_string<char, std::__ndk1::char_traits<char>, std::__ndk1::allocator<char> > > >::~__hash_table()
PUBLIC 80304 0 std::__ndk1::__hash_table<std::__ndk1::basic_string<char, std::__ndk1::char_traits<char>, std::__ndk1::allocator<char> >, std::__ndk1::hash<std::__ndk1::basic_string<char, std::__ndk1::char_traits<char>, std::__ndk1::allocator<char> > >, std::__ndk1::equal_to<std::__ndk1::basic_string<char, std::__ndk1::char_traits<char>, std::__ndk1::allocator<char> > >, std::__ndk1::allocator<std::__ndk1::basic_string<char, std::__ndk1::char_traits<char>, std::__ndk1::allocator<char> > > >::__do_rehash<true>(unsigned long)
PUBLIC 804b0 0 std::__ndk1::unique_ptr<std::__ndk1::__hash_node<std::__ndk1::basic_string<char, std::__ndk1::char_traits<char>, std::__ndk1::allocator<char> >, void*>, std::__ndk1::__hash_node_destructor<std::__ndk1::allocator<std::__ndk1::__hash_node<std::__ndk1::basic_string<char, std::__ndk1::char_traits<char>, std::__ndk1::allocator<char> >, void*> > > >::~unique_ptr[abi:ne180000]()
PUBLIC 80500 0 std::__ndk1::__exception_guard_exceptions<std::__ndk1::_AllocatorDestroyRangeReverse<std::__ndk1::allocator<geode::utils::file::FilePickOptions::Filter>, geode::utils::file::FilePickOptions::Filter*> >::~__exception_guard_exceptions[abi:ne180000]()
PUBLIC 805a4 0 std::__ndk1::vector<geode::utils::file::FilePickOptions::Filter, std::__ndk1::allocator<geode::utils::file::FilePickOptions::Filter> >::__destroy_vector::operator()[abi:ne180000]()
PUBLIC 80688 0 _ZN5geode15UnwrapExceptionC2IRNSt6__ndk112basic_stringIcNS2_11char_traitsIcEENS2_9allocatorIcEEEEQsr4implE18IsStringStreamableIT_EEENS_4impl6ErrTagEOSA_
PUBLIC 807f0 0 geode::EventListener<geode::Task<geode::Result<std::__ndk1::__fs::filesystem::path, std::__ndk1::basic_string<char, std::__ndk1::char_traits<char>, std::__ndk1::allocator<char> > >, std::__ndk1::monostate> >::~EventListener()
PUBLIC 8088c 0 geode::Popup<int>::~Popup()
PUBLIC 808f8 0 geode::Popup<int>::~Popup()
PUBLIC 808fc 0 {virtual override thunk({offset(-320)}, geode::Popup<int>::~Popup())}
PUBLIC 80968 0 {virtual override thunk({offset(-320)}, geode::Popup<int>::~Popup())}
PUBLIC 8096c 0 geode::Task<geode::Result<std::__ndk1::__fs::filesystem::path, std::__ndk1::basic_string<char, std::__ndk1::char_traits<char>, std::__ndk1::allocator<char> > >, std::__ndk1::monostate>::setListener(geode::EventListenerProtocol*)
PUBLIC 80b70 0 geode::EventListener<geode::Task<geode::Result<std::__ndk1::__fs::filesystem::path, std::__ndk1::basic_string<char, std::__ndk1::char_traits<char>, std::__ndk1::allocator<char> > >, std::__ndk1::monostate> >::getPool() const
PUBLIC 80b74 0 geode::EventListener<geode::Task<geode::Result<std::__ndk1::__fs::filesystem::path, std::__ndk1::basic_string<char, std::__ndk1::char_traits<char>, std::__ndk1::allocator<char> > >, std::__ndk1::monostate> >::handle(geode::Event*)
PUBLIC 80d40 0 geode::EventListener<geode::Task<geode::Result<std::__ndk1::__fs::filesystem::path, std::__ndk1::basic_string<char, std::__ndk1::char_traits<char>, std::__ndk1::allocator<char> > >, std::__ndk1::monostate> >::~EventListener()
PUBLIC 80de4 0 geode::Task<geode::Result<std::__ndk1::__fs::filesystem::path, std::__ndk1::basic_string<char, std::__ndk1::char_traits<char>, std::__ndk1::allocator<char> > >, std::__ndk1::monostate>::setListener(geode::EventListenerProtocol*)::{lambda()#1}::~{lambda()#1}()
PUBLIC 80e34 0 geode::Task<geode::Result<std::__ndk1::__fs::filesystem::path, std::__ndk1::basic_string<char, std::__ndk1::char_traits<char>, std::__ndk1::allocator<char> > >, std::__ndk1::monostate>::setListener(geode::EventListenerProtocol*)::{lambda()#2}::~{lambda()#2}()
PUBLIC 80e84 0 std::__ndk1::__function::__func<geode::Task<geode::Result<std::__ndk1::__fs::filesystem::path, std::__ndk1::basic_string<char, std::__ndk1::char_traits<char>, std::__ndk1::allocator<char> > >, std::__ndk1::monostate>::setListener(geode::EventListenerProtocol*)::{lambda()#1}, std::__ndk1::allocator<geode::Task<geode::Result<std::__ndk1::__fs::filesystem::path, std::__ndk1::basic_string<char, std::__ndk1::char_traits<char>, std::__ndk1::allocator<char> > >, std::__ndk1::monostate>::setListener(geode::EventListenerProtocol*)::{lambda()#1}>, void ()>::~__func()
PUBLIC 80ee0 0 std::__ndk1::__function::__func<geode::Task<geode::Result<std::__ndk1::__fs::filesystem::path, std::__ndk1::basic_string<char, std::__ndk1::char_traits<char>, std::__ndk1::allocator<char> > >, std::__ndk1::monostate>::setListener(geode::EventListenerProtocol*)::{lambda()#1}, std::__ndk1::allocator<geode::Task<geode::Result<std::__ndk1::__fs::filesystem::path, std::__ndk1::basic_string<char, std::__ndk1::char_traits<char>, std::__ndk1::allocator<char> > >, std::__ndk1::monostate>::setListener(geode::EventListenerProtocol*)::{lambda()#1}>, void ()>::~__func()
PUBLIC 80f4c 0 std::__ndk1::__function::__func<geode::Task<geode::Result<std::__ndk1::__fs::filesystem::path, std::__ndk1::basic_string<char, std::__ndk1::char_traits<char>, std::__ndk1::allocator<char> > >, std::__ndk1::monostate>::setListener(geode::EventListenerProtocol*)::{lambda()#1}, std::__ndk1::allocator<geode::Task<geode::Result<std::__ndk1::__fs::filesystem::path, std::__ndk1::basic_string<char, std::__ndk1::char_traits<char>, std::__ndk1::allocator<char> > >, std::__ndk1::monostate>::setListener(geode::EventListenerProtocol*)::{lambda()#1}>, void ()>::__clone() const
PUBLIC 80fa4 0 std::__ndk1::__function::__func<geode::Task<geode::Result<std::__ndk1::__fs::filesystem::path, std::__ndk1::basic_string<char, std::__ndk1::char_traits<char>, std::__ndk1::allocator<char> > >, std::__ndk1::monostate>::setListener(geode::EventListenerProtocol*)::{lambda()#1}, std::__ndk1::allocator<geode::Task<geode::Result<std::__ndk1::__fs::filesystem::path, std::__ndk1::basic_string<char, std::__ndk1::char_traits<char>, std::__ndk1::allocator<char> > >, std::__ndk1::monostate>::setListener(geode::EventListenerProtocol*)::{lambda()#1}>, void ()>::__clone(std::__ndk1::__function::__base<void ()>*) const
PUBLIC 80ff0 0 std::__ndk1::__function::__func<geode::Task<geode::Result<std::__ndk1::__fs::filesystem::path, std::__ndk1::basic_string<char, std::__ndk1::char_traits<char>, std::__ndk1::allocator<char> > >, std::__ndk1::monostate>::setListener(geode::EventListenerProtocol*)::{lambda()#1}, std::__ndk1::allocator<geode::Task<geode::Result<std::__ndk1::__fs::filesystem::path, std::__ndk1::basic_string<char, std::__ndk1::char_traits<char>, std::__ndk1::allocator<char> > >, std::__ndk1::monostate>::setListener(geode::EventListenerProtocol*)::{lambda()#1}>, void ()>::destroy()
PUBLIC 81040 0 std::__ndk1::__function::__func<geode::Task<geode::Result<std::__ndk1::__fs::filesystem::path, std::__ndk1::basic_string<char, std::__ndk1::char_traits<char>, std::__ndk1::allocator<char> > >, std::__ndk1::monostate>::setListener(geode::EventListenerProtocol*)::{lambda()#1}, std::__ndk1::allocator<geode::Task<geode::Result<std::__ndk1::__fs::filesystem::path, std::__ndk1::basic_string<char, std::__ndk1::char_traits<char>, std::__ndk1::allocator<char> > >, std::__ndk1::monostate>::setListener(geode::EventListenerProtocol*)::{lambda()#1}>, void ()>::destroy_deallocate()
PUBLIC 810a0 0 std::__ndk1::__function::__func<geode::Task<geode::Result<std::__ndk1::__fs::filesystem::path, std::__ndk1::basic_string<char, std::__ndk1::char_traits<char>, std::__ndk1::allocator<char> > >, std::__ndk1::monostate>::setListener(geode::EventListenerProtocol*)::{lambda()#1}, std::__ndk1::allocator<geode::Task<geode::Result<std::__ndk1::__fs::filesystem::path, std::__ndk1::basic_string<char, std::__ndk1::char_traits<char>, std::__ndk1::allocator<char> > >, std::__ndk1::monostate>::setListener(geode::EventListenerProtocol*)::{lambda()#1}>, void ()>::operator()()
PUBLIC 81270 0 std::__ndk1::__function::__func<geode::Task<geode::Result<std::__ndk1::__fs::filesystem::path, std::__ndk1::basic_string<char, std::__ndk1::char_traits<char>, std::__ndk1::allocator<char> > >, std::__ndk1::monostate>::setListener(geode::EventListenerProtocol*)::{lambda()#1}, std::__ndk1::allocator<geode::Task<geode::Result<std::__ndk1::__fs::filesystem::path, std::__ndk1::basic_string<char, std::__ndk1::char_traits<char>, std::__ndk1::allocator<char> > >, std::__ndk1::monostate>::setListener(geode::EventListenerProtocol*)::{lambda()#1}>, void ()>::target(std::type_info const&) const
PUBLIC 8128c 0 std::__ndk1::__function::__func<geode::Task<geode::Result<std::__ndk1::__fs::filesystem::path, std::__ndk1::basic_string<char, std::__ndk1::char_traits<char>, std::__ndk1::allocator<char> > >, std::__ndk1::monostate>::setListener(geode::EventListenerProtocol*)::{lambda()#1}, std::__ndk1::allocator<geode::Task<geode::Result<std::__ndk1::__fs::filesystem::path, std::__ndk1::basic_string<char, std::__ndk1::char_traits<char>, std::__ndk1::allocator<char> > >, std::__ndk1::monostate>::setListener(geode::EventListenerProtocol*)::{lambda()#1}>, void ()>::target_type() const
PUBLIC 81298 0 geode::Task<geode::Result<std::__ndk1::__fs::filesystem::path, std::__ndk1::basic_string<char, std::__ndk1::char_traits<char>, std::__ndk1::allocator<char> > >, std::__ndk1::monostate>::Event::~Event()
PUBLIC 812f8 0 geode::Task<geode::Result<std::__ndk1::__fs::filesystem::path, std::__ndk1::basic_string<char, std::__ndk1::char_traits<char>, std::__ndk1::allocator<char> > >, std::__ndk1::monostate>::Event::~Event()
PUBLIC 81368 0 std::__ndk1::__function::__func<geode::Task<geode::Result<std::__ndk1::__fs::filesystem::path, std::__ndk1::basic_string<char, std::__ndk1::char_traits<char>, std::__ndk1::allocator<char> > >, std::__ndk1::monostate>::setListener(geode::EventListenerProtocol*)::{lambda()#2}, std::__ndk1::allocator<geode::Task<geode::Result<std::__ndk1::__fs::filesystem::path, std::__ndk1::basic_string<char, std::__ndk1::char_traits<char>, std::__ndk1::allocator<char> > >, std::__ndk1::monostate>::setListener(geode::EventListenerProtocol*)::{lambda()#2}>, void ()>::~__func()
PUBLIC 813c4 0 std::__ndk1::__function::__func<geode::Task<geode::Result<std::__ndk1::__fs::filesystem::path, std::__ndk1::basic_string<char, std::__ndk1::char_traits<char>, std::__ndk1::allocator<char> > >, std::__ndk1::monostate>::setListener(geode::EventListenerProtocol*)::{lambda()#2}, std::__ndk1::allocator<geode::Task<geode::Result<std::__ndk1::__fs::filesystem::path, std::__ndk1::basic_string<char, std::__ndk1::char_traits<char>, std::__ndk1::allocator<char> > >, std::__ndk1::monostate>::setListener(geode::EventListenerProtocol*)::{lambda()#2}>, void ()>::~__func()
PUBLIC 81430 0 std::__ndk1::__function::__func<geode::Task<geode::Result<std::__ndk1::__fs::filesystem::path, std::__ndk1::basic_string<char, std::__ndk1::char_traits<char>, std::__ndk1::allocator<char> > >, std::__ndk1::monostate>::setListener(geode::EventListenerProtocol*)::{lambda()#2}, std::__ndk1::allocator<geode::Task<geode::Result<std::__ndk1::__fs::filesystem::path, std::__ndk1::basic_string<char, std::__ndk1::char_traits<char>, std::__ndk1::allocator<char> > >, std::__ndk1::monostate>::setListener(geode::EventListenerProtocol*)::{lambda()#2}>, void ()>::__clone() const
PUBLIC 81488 0 std::__ndk1::__function::__func<geode::Task<geode::Result<std::__ndk1::__fs::filesystem::path, std::__ndk1::basic_string<char, std::__ndk1::char_traits<char>, std::__ndk1::allocator<char> > >, std::__ndk1::monostate>::setListener(geode::EventListenerProtocol*)::{lambda()#2}, std::__ndk1::allocator<geode::Task<geode::Result<std::__ndk1::__fs::filesystem::path, std::__ndk1::basic_string<char, std::__ndk1::char_traits<char>, std::__ndk1::allocator<char> > >, std::__ndk1::monostate>::setListener(geode::EventListenerProtocol*)::{lambda()#2}>, void ()>::__clone(std::__ndk1::__function::__base<void ()>*) const
PUBLIC 814d4 0 std::__ndk1::__function::__func<geode::Task<geode::Result<std::__ndk1::__fs::filesystem::path, std::__ndk1::basic_string<char, std::__ndk1::char_traits<char>, std::__ndk1::allocator<char> > >, std::__ndk1::monostate>::setListener(geode::EventListenerProtocol*)::{lambda()#2}, std::__ndk1::allocator<geode::Task<geode::Result<std::__ndk1::__fs::filesystem::path, std::__ndk1::basic_string<char, std::__ndk1::char_traits<char>, std::__ndk1::allocator<char> > >, std::__ndk1::monostate>::setListener(geode::EventListenerProtocol*)::{lambda()#2}>, void ()>::destroy()
PUBLIC 81524 0 std::__ndk1::__function::__func<geode::Task<geode::Result<std::__ndk1::__fs::filesystem::path, std::__ndk1::basic_string<char, std::__ndk1::char_traits<char>, std::__ndk1::allocator<char> > >, std::__ndk1::monostate>::setListener(geode::EventListenerProtocol*)::{lambda()#2}, std::__ndk1::allocator<geode::Task<geode::Result<std::__ndk1::__fs::filesystem::path, std::__ndk1::basic_string<char, std::__ndk1::char_traits<char>, std::__ndk1::allocator<char> > >, std::__ndk1::monostate>::setListener(geode::EventListenerProtocol*)::{lambda()#2}>, void ()>::destroy_deallocate()
PUBLIC 81584 0 std::__ndk1::__function::__func<geode::Task<geode::Result<std::__ndk1::__fs::filesystem::path, std::__ndk1::basic_string<char, std::__ndk1::char_traits<char>, std::__ndk1::allocator<char> > >, std::__ndk1::monostate>::setListener(geode::EventListenerProtocol*)::{lambda()#2}, std::__ndk1::allocator<geode::Task<geode::Result<std::__ndk1::__fs::filesystem::path, std::__ndk1::basic_string<char, std::__ndk1::char_traits<char>, std::__ndk1::allocator<char> > >, std::__ndk1::monostate>::setListener(geode::EventListenerProtocol*)::{lambda()#2}>, void ()>::operator()()
PUBLIC 81748 0 std::__ndk1::__function::__func<geode::Task<geode::Result<std::__ndk1::__fs::filesystem::path, std::__ndk1::basic_string<char, std::__ndk1::char_traits<char>, std::__ndk1::allocator<char> > >, std::__ndk1::monostate>::setListener(geode::EventListenerProtocol*)::{lambda()#2}, std::__ndk1::allocator<geode::Task<geode::Result<std::__ndk1::__fs::filesystem::path, std::__ndk1::basic_string<char, std::__ndk1::char_traits<char>, std::__ndk1::allocator<char> > >, std::__ndk1::monostate>::setListener(geode::EventListenerProtocol*)::{lambda()#2}>, void ()>::target(std::type_info const&) const
PUBLIC 81764 0 std::__ndk1::__function::__func<geode::Task<geode::Result<std::__ndk1::__fs::filesystem::path, std::__ndk1::basic_string<char, std::__ndk1::char_traits<char>, std::__ndk1::allocator<char> > >, std::__ndk1::monostate>::setListener(geode::EventListenerProtocol*)::{lambda()#2}, std::__ndk1::allocator<geode::Task<geode::Result<std::__ndk1::__fs::filesystem::path, std::__ndk1::basic_string<char, std::__ndk1::char_traits<char>, std::__ndk1::allocator<char> > >, std::__ndk1::monostate>::setListener(geode::EventListenerProtocol*)::{lambda()#2}>, void ()>::target_type() const
PUBLIC 81770 0 std::__ndk1::vector<GhostCell*, std::__ndk1::allocator<GhostCell*> >::__throw_length_error[abi:ne180000]() const
PUBLIC 81784 0 geode::Popup<std::__ndk1::__fs::filesystem::path>::~Popup()
PUBLIC 817f0 0 geode::Popup<std::__ndk1::__fs::filesystem::path>::~Popup()
PUBLIC 817f4 0 {virtual override thunk({offset(-320)}, geode::Popup<std::__ndk1::__fs::filesystem::path>::~Popup())}
PUBLIC 81860 0 {virtual override thunk({offset(-320)}, geode::Popup<std::__ndk1::__fs::filesystem::path>::~Popup())}
PUBLIC 81864 0 std::__ndk1::basic_string<char, std::__ndk1::char_traits<char>, std::__ndk1::allocator<char> >::__erase_external_with_move(unsigned long, unsigned long)
PUBLIC 818ec 0 GhostCell::~GhostCell()
PUBLIC 81a54 0 GhostCell::~GhostCell()
PUBLIC 81a78 0 std::__ndk1::__function::__func<ManagerLayer::deleteSelected(cocos2d::CCObject*)::$_0, std::__ndk1::allocator<ManagerLayer::deleteSelected(cocos2d::CCObject*)::$_0>, void (FLAlertLayer*, bool)>::~__func()
PUBLIC 81a7c 0 std::__ndk1::__function::__func<ManagerLayer::deleteSelected(cocos2d::CCObject*)::$_0, std::__ndk1::allocator<ManagerLayer::deleteSelected(cocos2d::CCObject*)::$_0>, void (FLAlertLayer*, bool)>::__clone() const
PUBLIC 81ab4 0 std::__ndk1::__function::__func<ManagerLayer::deleteSelected(cocos2d::CCObject*)::$_0, std::__ndk1::allocator<ManagerLayer::deleteSelected(cocos2d::CCObject*)::$_0>, void (FLAlertLayer*, bool)>::__clone(std::__ndk1::__function::__base<void (FLAlertLayer*, bool)>*) const
PUBLIC 81acc 0 std::__ndk1::__function::__func<ManagerLayer::deleteSelected(cocos2d::CCObject*)::$_0, std::__ndk1::allocator<ManagerLayer::deleteSelected(cocos2d::CCObject*)::$_0>, void (FLAlertLayer*, bool)>::destroy()
PUBLIC 81ad0 0 std::__ndk1::__function::__func<ManagerLayer::deleteSelected(cocos2d::CCObject*)::$_0, std::__ndk1::allocator<ManagerLayer::deleteSelected(cocos2d::CCObject*)::$_0>, void (FLAlertLayer*, bool)>::destroy_deallocate()
PUBLIC 81ad4 0 std::__ndk1::__function::__func<ManagerLayer::deleteSelected(cocos2d::CCObject*)::$_0, std::__ndk1::allocator<ManagerLayer::deleteSelected(cocos2d::CCObject*)::$_0>, void (FLAlertLayer*, bool)>::operator()(FLAlertLayer*&&, bool&&)
PUBLIC 82084 0 std::__ndk1::__function::__func<ManagerLayer::deleteSelected(cocos2d::CCObject*)::$_0, std::__ndk1::allocator<ManagerLayer::deleteSelected(cocos2d::CCObject*)::$_0>, void (FLAlertLayer*, bool)>::target(std::type_info const&) const
PUBLIC 820a0 0 std::__ndk1::__function::__func<ManagerLayer::deleteSelected(cocos2d::CCObject*)::$_0, std::__ndk1::allocator<ManagerLayer::deleteSelected(cocos2d::CCObject*)::$_0>, void (FLAlertLayer*, bool)>::target_type() const
PUBLIC 820ac 0 std::__ndk1::vector<float, std::__ndk1::allocator<float> >::__throw_length_error[abi:ne180000]() const
PUBLIC 820c0 0 std::__ndk1::__function::__base<void (geode::Task<geode::Result<std::__ndk1::__fs::filesystem::path, std::__ndk1::basic_string<char, std::__ndk1::char_traits<char>, std::__ndk1::allocator<char> > >, std::__ndk1::monostate>::Event*)>::~__base()
PUBLIC 820c4 0 std::__ndk1::__function::__func<std::__ndk1::__bind<void (ManagerLayer::*&)(geode::Task<geode::Result<std::__ndk1::__fs::filesystem::path, std::__ndk1::basic_string<char, std::__ndk1::char_traits<char>, std::__ndk1::allocator<char> > >, std::__ndk1::monostate>::Event*), ManagerLayer*&, std::__ndk1::placeholders::__ph<1> const&>, std::__ndk1::allocator<std::__ndk1::__bind<void (ManagerLayer::*&)(geode::Task<geode::Result<std::__ndk1::__fs::filesystem::path, std::__ndk1::basic_string<char, std::__ndk1::char_traits<char>, std::__ndk1::allocator<char> > >, std::__ndk1::monostate>::Event*), ManagerLayer*&, std::__ndk1::placeholders::__ph<1> const&> >, void (geode::Task<geode::Result<std::__ndk1::__fs::filesystem::path, std::__ndk1::basic_string<char, std::__ndk1::char_traits<char>, std::__ndk1::allocator<char> > >, std::__ndk1::monostate>::Event*)>::~__func()
PUBLIC 820c8 0 std::__ndk1::__function::__func<std::__ndk1::__bind<void (ManagerLayer::*&)(geode::Task<geode::Result<std::__ndk1::__fs::filesystem::path, std::__ndk1::basic_string<char, std::__ndk1::char_traits<char>, std::__ndk1::allocator<char> > >, std::__ndk1::monostate>::Event*), ManagerLayer*&, std::__ndk1::placeholders::__ph<1> const&>, std::__ndk1::allocator<std::__ndk1::__bind<void (ManagerLayer::*&)(geode::Task<geode::Result<std::__ndk1::__fs::filesystem::path, std::__ndk1::basic_string<char, std::__ndk1::char_traits<char>, std::__ndk1::allocator<char> > >, std::__ndk1::monostate>::Event*), ManagerLayer*&, std::__ndk1::placeholders::__ph<1> const&> >, void (geode::Task<geode::Result<std::__ndk1::__fs::filesystem::path, std::__ndk1::basic_string<char, std::__ndk1::char_traits<char>, std::__ndk1::allocator<char> > >, std::__ndk1::monostate>::Event*)>::__clone() const
PUBLIC 82108 0 std::__ndk1::__function::__func<std::__ndk1::__bind<void (ManagerLayer::*&)(geode::Task<geode::Result<std::__ndk1::__fs::filesystem::path, std::__ndk1::basic_string<char, std::__ndk1::char_traits<char>, std::__ndk1::allocator<char> > >, std::__ndk1::monostate>::Event*), ManagerLayer*&, std::__ndk1::placeholders::__ph<1> const&>, std::__ndk1::allocator<std::__ndk1::__bind<void (ManagerLayer::*&)(geode::Task<geode::Result<std::__ndk1::__fs::filesystem::path, std::__ndk1::basic_string<char, std::__ndk1::char_traits<char>, std::__ndk1::allocator<char> > >, std::__ndk1::monostate>::Event*), ManagerLayer*&, std::__ndk1::placeholders::__ph<1> const&> >, void (geode::Task<geode::Result<std::__ndk1::__fs::filesystem::path, std::__ndk1::basic_string<char, std::__ndk1::char_traits<char>, std::__ndk1::allocator<char> > >, std::__ndk1::monostate>::Event*)>::__clone(std::__ndk1::__function::__base<void (geode::Task<geode::Result<std::__ndk1::__fs::filesystem::path, std::__ndk1::basic_string<char, std::__ndk1::char_traits<char>, std::__ndk1::allocator<char> > >, std::__ndk1::monostate>::Event*)>*) const
PUBLIC 82128 0 std::__ndk1::__function::__func<std::__ndk1::__bind<void (ManagerLayer::*&)(geode::Task<geode::Result<std::__ndk1::__fs::filesystem::path, std::__ndk1::basic_string<char, std::__ndk1::char_traits<char>, std::__ndk1::allocator<char> > >, std::__ndk1::monostate>::Event*), ManagerLayer*&, std::__ndk1::placeholders::__ph<1> const&>, std::__ndk1::allocator<std::__ndk1::__bind<void (ManagerLayer::*&)(geode::Task<geode::Result<std::__ndk1::__fs::filesystem::path, std::__ndk1::basic_string<char, std::__ndk1::char_traits<char>, std::__ndk1::allocator<char> > >, std::__ndk1::monostate>::Event*), ManagerLayer*&, std::__ndk1::placeholders::__ph<1> const&> >, void (geode::Task<geode::Result<std::__ndk1::__fs::filesystem::path, std::__ndk1::basic_string<char, std::__ndk1::char_traits<char>, std::__ndk1::allocator<char> > >, std::__ndk1::monostate>::Event*)>::destroy()
PUBLIC 8212c 0 std::__ndk1::__function::__func<std::__ndk1::__bind<void (ManagerLayer::*&)(geode::Task<geode::Result<std::__ndk1::__fs::filesystem::path, std::__ndk1::basic_string<char, std::__ndk1::char_traits<char>, std::__ndk1::allocator<char> > >, std::__ndk1::monostate>::Event*), ManagerLayer*&, std::__ndk1::placeholders::__ph<1> const&>, std::__ndk1::allocator<std::__ndk1::__bind<void (ManagerLayer::*&)(geode::Task<geode::Result<std::__ndk1::__fs::filesystem::path, std::__ndk1::basic_string<char, std::__ndk1::char_traits<char>, std::__ndk1::allocator<char> > >, std::__ndk1::monostate>::Event*), ManagerLayer*&, std::__ndk1::placeholders::__ph<1> const&> >, void (geode::Task<geode::Result<std::__ndk1::__fs::filesystem::path, std::__ndk1::basic_string<char, std::__ndk1::char_traits<char>, std::__ndk1::allocator<char> > >, std::__ndk1::monostate>::Event*)>::destroy_deallocate()
PUBLIC 82130 0 std::__ndk1::__function::__func<std::__ndk1::__bind<void (ManagerLayer::*&)(geode::Task<geode::Result<std::__ndk1::__fs::filesystem::path, std::__ndk1::basic_string<char, std::__ndk1::char_traits<char>, std::__ndk1::allocator<char> > >, std::__ndk1::monostate>::Event*), ManagerLayer*&, std::__ndk1::placeholders::__ph<1> const&>, std::__ndk1::allocator<std::__ndk1::__bind<void (ManagerLayer::*&)(geode::Task<geode::Result<std::__ndk1::__fs::filesystem::path, std::__ndk1::basic_string<char, std::__ndk1::char_traits<char>, std::__ndk1::allocator<char> > >, std::__ndk1::monostate>::Event*), ManagerLayer*&, std::__ndk1::placeholders::__ph<1> const&> >, void (geode::Task<geode::Result<std::__ndk1::__fs::filesystem::path, std::__ndk1::basic_string<char, std::__ndk1::char_traits<char>, std::__ndk1::allocator<char> > >, std::__ndk1::monostate>::Event*)>::operator()(geode::Task<geode::Result<std::__ndk1::__fs::filesystem::path, std::__ndk1::basic_string<char, std::__ndk1::char_traits<char>, std::__ndk1::allocator<char> > >, std::__ndk1::monostate>::Event*&&)
PUBLIC 82150 0 std::__ndk1::__function::__func<std::__ndk1::__bind<void (ManagerLayer::*&)(geode::Task<geode::Result<std::__ndk1::__fs::filesystem::path, std::__ndk1::basic_string<char, std::__ndk1::char_traits<char>, std::__ndk1::allocator<char> > >, std::__ndk1::monostate>::Event*), ManagerLayer*&, std::__ndk1::placeholders::__ph<1> const&>, std::__ndk1::allocator<std::__ndk1::__bind<void (ManagerLayer::*&)(geode::Task<geode::Result<std::__ndk1::__fs::filesystem::path, std::__ndk1::basic_string<char, std::__ndk1::char_traits<char>, std::__ndk1::allocator<char> > >, std::__ndk1::monostate>::Event*), ManagerLayer*&, std::__ndk1::placeholders::__ph<1> const&> >, void (geode::Task<geode::Result<std::__ndk1::__fs::filesystem::path, std::__ndk1::basic_string<char, std::__ndk1::char_traits<char>, std::__ndk1::allocator<char> > >, std::__ndk1::monostate>::Event*)>::target(std::type_info const&) const
PUBLIC 8216c 0 std::__ndk1::__function::__func<std::__ndk1::__bind<void (ManagerLayer::*&)(geode::Task<geode::Result<std::__ndk1::__fs::filesystem::path, std::__ndk1::basic_string<char, std::__ndk1::char_traits<char>, std::__ndk1::allocator<char> > >, std::__ndk1::monostate>::Event*), ManagerLayer*&, std::__ndk1::placeholders::__ph<1> const&>, std::__ndk1::allocator<std::__ndk1::__bind<void (ManagerLayer::*&)(geode::Task<geode::Result<std::__ndk1::__fs::filesystem::path, std::__ndk1::basic_string<char, std::__ndk1::char_traits<char>, std::__ndk1::allocator<char> > >, std::__ndk1::monostate>::Event*), ManagerLayer*&, std::__ndk1::placeholders::__ph<1> const&> >, void (geode::Task<geode::Result<std::__ndk1::__fs::filesystem::path, std::__ndk1::basic_string<char, std::__ndk1::char_traits<char>, std::__ndk1::allocator<char> > >, std::__ndk1::monostate>::Event*)>::target_type() const
PUBLIC 82178 0 geode::Popup<int>::initBase(float, float, int, char const*, cocos2d::CCRect, bool)
PUBLIC 8248c 0 geode::Popup<std::__ndk1::__fs::filesystem::path>::CloseEvent::~CloseEvent()
PUBLIC 824ec 0 geode::Popup<std::__ndk1::__fs::filesystem::path>::CloseEvent::~CloseEvent()
PUBLIC 8255c 0 std::__ndk1::__shared_ptr_emplace<geode::Popup<std::__ndk1::__fs::filesystem::path>::CloseEvent::Impl, std::__ndk1::allocator<geode::Popup<std::__ndk1::__fs::filesystem::path>::CloseEvent::Impl> >::~__shared_ptr_emplace()
PUBLIC 8256c 0 std::__ndk1::__shared_ptr_emplace<geode::Popup<std::__ndk1::__fs::filesystem::path>::CloseEvent::Impl, std::__ndk1::allocator<geode::Popup<std::__ndk1::__fs::filesystem::path>::CloseEvent::Impl> >::~__shared_ptr_emplace()
PUBLIC 8259c 0 std::__ndk1::__shared_ptr_emplace<geode::Popup<std::__ndk1::__fs::filesystem::path>::CloseEvent::Impl, std::__ndk1::allocator<geode::Popup<std::__ndk1::__fs::filesystem::path>::CloseEvent::Impl> >::__on_zero_shared()
PUBLIC 825a0 0 std::__ndk1::__shared_ptr_emplace<geode::Popup<std::__ndk1::__fs::filesystem::path>::CloseEvent::Impl, std::__ndk1::allocator<geode::Popup<std::__ndk1::__fs::filesystem::path>::CloseEvent::Impl> >::__on_zero_shared_weak()
PUBLIC 825a4 0 std::__ndk1::__function::__base<void (FLAlertLayer*, bool)>::~__base()
PUBLIC 825a8 0 std::__ndk1::__function::__func<GhostCell::onDelete(cocos2d::CCObject*)::$_0, std::__ndk1::allocator<GhostCell::onDelete(cocos2d::CCObject*)::$_0>, void (FLAlertLayer*, bool)>::~__func()
PUBLIC 825ac 0 std::__ndk1::__function::__func<GhostCell::onDelete(cocos2d::CCObject*)::$_0, std::__ndk1::allocator<GhostCell::onDelete(cocos2d::CCObject*)::$_0>, void (FLAlertLayer*, bool)>::__clone() const
PUBLIC 825e0 0 std::__ndk1::__function::__func<GhostCell::onDelete(cocos2d::CCObject*)::$_0, std::__ndk1::allocator<GhostCell::onDelete(cocos2d::CCObject*)::$_0>, void (FLAlertLayer*, bool)>::__clone(std::__ndk1::__function::__base<void (FLAlertLayer*, bool)>*) const
PUBLIC 825f4 0 std::__ndk1::__function::__func<GhostCell::onDelete(cocos2d::CCObject*)::$_0, std::__ndk1::allocator<GhostCell::onDelete(cocos2d::CCObject*)::$_0>, void (FLAlertLayer*, bool)>::destroy()
PUBLIC 825f8 0 std::__ndk1::__function::__func<GhostCell::onDelete(cocos2d::CCObject*)::$_0, std::__ndk1::allocator<GhostCell::onDelete(cocos2d::CCObject*)::$_0>, void (FLAlertLayer*, bool)>::destroy_deallocate()
PUBLIC 825fc 0 std::__ndk1::__function::__func<GhostCell::onDelete(cocos2d::CCObject*)::$_0, std::__ndk1::allocator<GhostCell::onDelete(cocos2d::CCObject*)::$_0>, void (FLAlertLayer*, bool)>::operator()(FLAlertLayer*&&, bool&&)
PUBLIC 82a18 0 std::__ndk1::__function::__func<GhostCell::onDelete(cocos2d::CCObject*)::$_0, std::__ndk1::allocator<GhostCell::onDelete(cocos2d::CCObject*)::$_0>, void (FLAlertLayer*, bool)>::target(std::type_info const&) const
PUBLIC 82a34 0 std::__ndk1::__function::__func<GhostCell::onDelete(cocos2d::CCObject*)::$_0, std::__ndk1::allocator<GhostCell::onDelete(cocos2d::CCObject*)::$_0>, void (FLAlertLayer*, bool)>::target_type() const
PUBLIC 82a40 0 geode::Popup<int>::CloseEvent::~CloseEvent()
PUBLIC 82aa0 0 geode::Popup<int>::CloseEvent::~CloseEvent()
PUBLIC 82b10 0 std::__ndk1::__shared_ptr_emplace<geode::Popup<int>::CloseEvent::Impl, std::__ndk1::allocator<geode::Popup<int>::CloseEvent::Impl> >::~__shared_ptr_emplace()
PUBLIC 82b20 0 std::__ndk1::__shared_ptr_emplace<geode::Popup<int>::CloseEvent::Impl, std::__ndk1::allocator<geode::Popup<int>::CloseEvent::Impl> >::~__shared_ptr_emplace()
PUBLIC 82b50 0 std::__ndk1::__shared_ptr_emplace<geode::Popup<int>::CloseEvent::Impl, std::__ndk1::allocator<geode::Popup<int>::CloseEvent::Impl> >::__on_zero_shared()
PUBLIC 82b54 0 std::__ndk1::__shared_ptr_emplace<geode::Popup<int>::CloseEvent::Impl, std::__ndk1::allocator<geode::Popup<int>::CloseEvent::Impl> >::__on_zero_shared_weak()
PUBLIC 82b58 0 _GLOBAL__sub_I_ManagerLayer.cpp
PUBLIC 82f3c 0 ListLayer::create()
PUBLIC 830a0 0 ListLayer::setup()
PUBLIC 83c38 0 LevelSelectCell::onSelect(cocos2d::CCObject*)
PUBLIC 83dac 0 ListLayer::~ListLayer()
PUBLIC 83e20 0 {virtual override thunk({offset(-320)}, ListLayer::~ListLayer())}
PUBLIC 83e8c 0 {virtual override thunk({offset(-320)}, ListLayer::~ListLayer())}
PUBLIC 83f00 0 LevelSelectCell::~LevelSelectCell()
PUBLIC 83f24 0 _GLOBAL__sub_I_ListLayer.cpp
PUBLIC 84308 0 GhostUI::init()
PUBLIC 846d0 0 GhostUI::update()
PUBLIC 85148 0 GhostUI::~GhostUI()
PUBLIC 8516c 0 _GLOBAL__sub_I_GhostUI.cpp
PUBLIC m 85550 0 geodeImplicitEntry
PUBLIC 8558c 0 std::__ndk1::unordered_map<void*, bool, std::__ndk1::hash<void*>, std::__ndk1::equal_to<void*>, std::__ndk1::allocator<std::__ndk1::pair<void* const, bool> > >::~unordered_map[abi:ne180000]()
PUBLIC 855d8 0 wrapFunction(unsigned long, tulip::hook::WrapperMetadata const&)
PUBLIC 8570c 0 geode::impl::ResultData<void*, std::__ndk1::basic_string<char, std::__ndk1::char_traits<char>, std::__ndk1::allocator<char> > >::unwrapErr() &
PUBLIC 85784 0 geode::impl::ResultData<void*, std::__ndk1::basic_string<char, std::__ndk1::char_traits<char>, std::__ndk1::allocator<char> > >::~ResultData()
PUBLIC 857f8 0 tulip::hook::WrapperMetadata::~WrapperMetadata()
PUBLIC 8585c 0 cocos2d::CCObject::CCObject()
PUBLIC 85a80 0 cocos2d::CCObject::~CCObject()
PUBLIC 85aa4 0 cocos2d::CCNode::CCNode()
PUBLIC 85d00 0 cocos2d::CCNode::~CCNode()
PUBLIC 85d24 0 {virtual override thunk({offset(-320)}, cocos2d::CCLayer::~CCLayer())}
PUBLIC 85d2c 0 cocos2d::CCLayer::~CCLayer()
PUBLIC 85d50 0 {virtual override thunk({offset(-320)}, cocos2d::CCLayer::~CCLayer())}
PUBLIC 85d78 0 cocos2d::CCLayerRGBA::~CCLayerRGBA()
PUBLIC 86078 0 {virtual override thunk({offset(-320)}, cocos2d::CCLayerRGBA::~CCLayerRGBA())}
PUBLIC 86080 0 cocos2d::CCLayerRGBA::~CCLayerRGBA()
PUBLIC 860a4 0 {virtual override thunk({offset(-320)}, cocos2d::CCLayerRGBA::~CCLayerRGBA())}
PUBLIC 860cc 0 cocos2d::CCLayerColor::CCLayerColor()
PUBLIC 86330 0 {virtual override thunk({offset(-320)}, cocos2d::CCLayerColor::~CCLayerColor())}
PUBLIC 86338 0 cocos2d::CCLayerColor::~CCLayerColor()
PUBLIC 8635c 0 {virtual override thunk({offset(-320)}, cocos2d::CCLayerColor::~CCLayerColor())}
PUBLIC 86384 0 {virtual override thunk({offset(-320)}, FLAlertLayer::~FLAlertLayer())}
PUBLIC 8638c 0 FLAlertLayer::~FLAlertLayer()
PUBLIC 863b0 0 {virtual override thunk({offset(-320)}, FLAlertLayer::~FLAlertLayer())}
PUBLIC 863d8 0 FLAlertLayer::create(FLAlertLayerProtocol*, char const*, gd::string, char const*, char const*, float)
PUBLIC 86590 0 tulip::hook::AbstractFunction::from<FLAlertLayer*, FLAlertLayerProtocol*, char const*, gd::string, char const*, char const*, float>(FLAlertLayer* (*)(FLAlertLayerProtocol*, char const*, gd::string, char const*, char const*, float))
PUBLIC 86a74 0 CCAnimatedSprite::tweenToAnimation(gd::string, float)
PUBLIC 86bfc 0 tulip::hook::AbstractFunction::from<void, CCAnimatedSprite*, gd::string, float>(void (*)(CCAnimatedSprite*, gd::string, float))
PUBLIC 86d00 0 CCTextInputNode::setAllowedChars(gd::string)
PUBLIC 86e78 0 tulip::hook::AbstractFunction::from<void, CCTextInputNode*, gd::string>(void (*)(CCTextInputNode*, gd::string))
PUBLIC 86f1c 0 cocos2d::CCLayerColor::~CCLayerColor()
PUBLIC 87200 0 FLAlertLayer::~FLAlertLayer()
PUBLIC 874e4 0 cocos2d::CCNode::~CCNode()
PUBLIC 87784 0 cocos2d::CCLayer::~CCLayer()
PUBLIC 87a74 0 cocos2d::CCObject::~CCObject()
PUBLIC 87f68 0 _ZN5geode15UnwrapExceptionC2IRPvQsr4implE18IsStringStreamableIT_EEENS_4impl5OkTagEOS4_
PUBLIC 880bc 0 std::__ndk1::__variant_detail::__visitation::__base::__dispatcher<(unsigned long)0>::__dispatch[abi:ne180000]<std::__ndk1::__variant_detail::__dtor<std::__ndk1::__variant_detail::__traits<void*, std::__ndk1::basic_string<char, std::__ndk1::char_traits<char>, std::__ndk1::allocator<char> > >, (std::__ndk1::__variant_detail::_Trait)1>::__destroy[abi:ne180000]()::{lambda(auto:1&)#1}, std::__ndk1::__variant_detail::__base<(std::__ndk1::__variant_detail::__traits<void*, std::__ndk1::basic_string<char, std::__ndk1::char_traits<char>, std::__ndk1::allocator<char> > >)1, std::__ndk1::__variant_detail::__traits, std::__ndk1::allocator<char> >&>(std::__ndk1::__variant_detail::__dtor<std::__ndk1::__variant_detail::__traits<void*, std::__ndk1::basic_string<char, std::__ndk1::char_traits<char>, std::__ndk1::allocator<char> > >, (std::__ndk1::__variant_detail::_Trait)1>, std::__ndk1::__variant_detail::__base<(std::__ndk1::__variant_detail::__traits<void*, std::__ndk1::basic_string<char, std::__ndk1::char_traits<char>, std::__ndk1::allocator<char> > >)1, std::__ndk1::__variant_detail::__traits, std::__ndk1::allocator<char> >&)
PUBLIC 880c0 0 std::__ndk1::__variant_detail::__visitation::__base::__dispatcher<(unsigned long)1>::__dispatch[abi:ne180000]<std::__ndk1::__variant_detail::__dtor<std::__ndk1::__variant_detail::__traits<void*, std::__ndk1::basic_string<char, std::__ndk1::char_traits<char>, std::__ndk1::allocator<char> > >, (std::__ndk1::__variant_detail::_Trait)1>::__destroy[abi:ne180000]()::{lambda(auto:1&)#1}, std::__ndk1::__variant_detail::__base<(std::__ndk1::__variant_detail::__traits<void*, std::__ndk1::basic_string<char, std::__ndk1::char_traits<char>, std::__ndk1::allocator<char> > >)1, std::__ndk1::__variant_detail::__traits, std::__ndk1::allocator<char> >&>(std::__ndk1::__variant_detail::__dtor<std::__ndk1::__variant_detail::__traits<void*, std::__ndk1::basic_string<char, std::__ndk1::char_traits<char>, std::__ndk1::allocator<char> > >, (std::__ndk1::__variant_detail::_Trait)1>, std::__ndk1::__variant_detail::__base<(std::__ndk1::__variant_detail::__traits<void*, std::__ndk1::basic_string<char, std::__ndk1::char_traits<char>, std::__ndk1::allocator<char> > >)1, std::__ndk1::__variant_detail::__traits, std::__ndk1::allocator<char> >&)
PUBLIC 880d4 0 std::__ndk1::__hash_table<std::__ndk1::__hash_value_type<void*, bool>, std::__ndk1::__unordered_map_hasher<void*, std::__ndk1::__hash_value_type<void*, bool>, std::__ndk1::hash<void*>, std::__ndk1::equal_to<void*>, true>, std::__ndk1::__unordered_map_equal<void*, std::__ndk1::__hash_value_type<void*, bool>, std::__ndk1::equal_to<void*>, std::__ndk1::hash<void*>, true>, std::__ndk1::allocator<std::__ndk1::__hash_value_type<void*, bool> > >::__emplace_unique_key_args<void*, std::__ndk1::piecewise_construct_t const&, std::__ndk1::tuple<void* const&>, std::__ndk1::tuple<> >(void* const&, std::__ndk1::piecewise_construct_t const&, std::__ndk1::tuple<void* const&>, std::__ndk1::tuple<>)
PUBLIC 885e0 0 __udivti3
PUBLIC 885ec 0 __udivmodti4
PUBLIC m 88838 0 __eqtf2
PUBLIC 888d8 0 __unordtf2
PUBLIC 88910 0 fmt::v11::detail::write_loc(fmt::v11::basic_appender<char>, fmt::v11::loc_value, fmt::v11::format_specs const&, fmt::v11::detail::locale_ref)
PUBLIC 88ba4 0 fmt::v11::format_facet<std::__ndk1::locale>::~format_facet()
PUBLIC 88c20 0 fmt::v11::report_error(char const*)
PUBLIC 88c70 0 fmt::v11::format_error::runtime_error(char const*)
PUBLIC 88c9c 0 fmt::v11::format_facet<std::__ndk1::locale>::do_put(fmt::v11::basic_appender<char>, fmt::v11::loc_value, fmt::v11::format_specs const&) const
PUBLIC 8945c 0 fmt::v11::detail::loc_writer<char>::~loc_writer()
PUBLIC 894c0 0 fmt::v11::detail::vformat_to<char>(fmt::v11::detail::buffer<char>&, fmt::v11::basic_string_view<char>, fmt::v11::detail::vformat_args<char>::type, fmt::v11::detail::locale_ref)
PUBLIC 89a30 0 fmt::v11::detail::is_printable(unsigned int)
PUBLIC 89c58 0 fmt::v11::detail::dragonbox::to_decimal<float>(float)
PUBLIC 89f34 0 fmt::v11::detail::dragonbox::to_decimal<double>(double)
PUBLIC 8a470 0 fmt::v11::basic_memory_buffer<char, (unsigned long)500, std::__ndk1::allocator<char> >::grow(fmt::v11::detail::buffer<char>&, unsigned long)
PUBLIC 8a4e8 0 fmt::v11::format_facet<std::__ndk1::locale>::~format_facet()
PUBLIC 8a574 0 fmt::v11::format_error::~format_error()
PUBLIC 8a598 0 fmt::v11::detail::copy_noinline<char, char const*, fmt::v11::basic_appender<char> >(char const*, char const*, fmt::v11::basic_appender<char>)
PUBLIC 8a6e8 0 fmt::v11::detail::default_arg_formatter<char>::operator()<bool>(bool)
PUBLIC 8a750 0 fmt::v11::detail::default_arg_formatter<char>::operator()<char>(char)
PUBLIC 8a7e0 0 fmt::v11::detail::default_arg_formatter<char>::operator()<float>(float)
PUBLIC 8a8cc 0 fmt::v11::detail::default_arg_formatter<char>::operator()<double>(double)
PUBLIC 8a9b8 0 fmt::v11::detail::default_arg_formatter<char>::operator()<char const*>(char const*)
PUBLIC 8aa00 0 fmt::v11::detail::default_arg_formatter<char>::operator()<void const*>(void const*)
PUBLIC 8aa98 0 _ZN3fmt3v116detail5writeIcNS0_14basic_appenderIcEEiTnNSt6__ndk19enable_ifIXaaaasr11is_integralIT1_EE5valuentsr3std7is_sameIS7_bEE5valuentsr3std7is_sameIS7_T_EE5valueEiE4typeELi0EEET0_SB_S7_
PUBLIC 8acf8 0 fmt::v11::detail::copy_noinline<char, char*, fmt::v11::basic_appender<char> >(char*, char*, fmt::v11::basic_appender<char>)
PUBLIC 8ae48 0 _ZN3fmt3v116detail5writeIcNS0_14basic_appenderIcEEjTnNSt6__ndk19enable_ifIXaaaasr11is_integralIT1_EE5valuentsr3std7is_sameIS7_bEE5valuentsr3std7is_sameIS7_T_EE5valueEiE4typeELi0EEET0_SB_S7_
PUBLIC 8b028 0 _ZN3fmt3v116detail5writeIcNS0_14basic_appenderIcEExTnNSt6__ndk19enable_ifIXaaaasr11is_integralIT1_EE5valuentsr3std7is_sameIS7_bEE5valuentsr3std7is_sameIS7_T_EE5valueEiE4typeELi0EEET0_SB_S7_
PUBLIC 8b2ac 0 _ZN3fmt3v116detail5writeIcNS0_14basic_appenderIcEEyTnNSt6__ndk19enable_ifIXaaaasr11is_integralIT1_EE5valuentsr3std7is_sameIS7_bEE5valuentsr3std7is_sameIS7_T_EE5valueEiE4typeELi0EEET0_SB_S7_
PUBLIC 8b4b4 0 _ZN3fmt3v116detail5writeIcNS0_14basic_appenderIcEEnTnNSt6__ndk19enable_ifIXaaaasr11is_integralIT1_EE5valuentsr3std7is_sameIS7_bEE5valuentsr3std7is_sameIS7_T_EE5valueEiE4typeELi0EEET0_SB_S7_
PUBLIC 8b814 0 _ZN3fmt3v116detail5writeIcNS0_14basic_appenderIcEEoTnNSt6__ndk19enable_ifIXaaaasr11is_integralIT1_EE5valuentsr3std7is_sameIS7_bEE5valuentsr3std7is_sameIS7_T_EE5valueEiE4typeELi0EEET0_SB_S7_
PUBLIC 8bb28 0 _ZN3fmt3v116detail5writeIcNS0_14basic_appenderIcEEbTnNSt6__ndk19enable_ifIXsr3std7is_sameIT1_bEE5valueEiE4typeELi0EEET0_SA_S7_RKNS0_12format_specsENS1_10locale_refE
PUBLIC 8bdb8 0 fmt::v11::detail::write_int_noinline<char, fmt::v11::basic_appender<char>, unsigned int>(fmt::v11::basic_appender<char>, fmt::v11::detail::write_int_arg<unsigned int>, fmt::v11::format_specs const&, fmt::v11::detail::locale_ref)
PUBLIC 8cb94 0 fmt::v11::detail::fill<char, fmt::v11::basic_appender<char> >(fmt::v11::basic_appender<char>, unsigned long, fmt::v11::detail::fill_t const&)
PUBLIC 8cd64 0 fmt::v11::detail::write_padded<char, (fmt::v11::align::type)1, fmt::v11::basic_appender<char>, fmt::v11::detail::write_char<char, fmt::v11::basic_appender<char> >(fmt::v11::basic_appender<char>, char, fmt::v11::format_specs const&)::{lambda(fmt::v11::basic_appender<char>&)#1}>(fmt::v11::basic_appender<char>, fmt::v11::format_specs const&, unsigned long, unsigned long, fmt::v11::detail::write_char<char, fmt::v11::basic_appender<char> >(fmt::v11::basic_appender<char>, char, fmt::v11::format_specs const&)::{lambda(fmt::v11::basic_appender<char>&)#1})
PUBLIC 8cfa0 0 fmt::v11::detail::write_escaped_cp<fmt::v11::basic_appender<char>, char>(fmt::v11::basic_appender<char>, fmt::v11::detail::find_escape_result<char> const&)
PUBLIC 8d2ac 0 fmt::v11::detail::write_codepoint<(unsigned long)2, char, fmt::v11::basic_appender<char> >(fmt::v11::basic_appender<char>, char, unsigned int)
PUBLIC 8d424 0 fmt::v11::detail::write_codepoint<(unsigned long)8, char, fmt::v11::basic_appender<char> >(fmt::v11::basic_appender<char>, char, unsigned int)
PUBLIC 8d59c 0 fmt::v11::detail::write_padded<char, (fmt::v11::align::type)1, fmt::v11::basic_appender<char>, fmt::v11::detail::write_nonfinite<char, fmt::v11::basic_appender<char> >(fmt::v11::basic_appender<char>, bool, fmt::v11::format_specs, fmt::v11::sign::type)::{lambda(fmt::v11::basic_appender<char>&)#1}>(fmt::v11::basic_appender<char>, fmt::v11::format_specs const&, unsigned long, unsigned long, fmt::v11::detail::write_nonfinite<char, fmt::v11::basic_appender<char> >(fmt::v11::basic_appender<char>, bool, fmt::v11::format_specs, fmt::v11::sign::type)::{lambda(fmt::v11::basic_appender<char>&)#1})
PUBLIC 8d7dc 0 fmt::v11::detail::do_write_float<char, fmt::v11::basic_appender<char>, fmt::v11::detail::dragonbox::decimal_fp<float>, fmt::v11::detail::digit_grouping<char> >(fmt::v11::basic_appender<char>, fmt::v11::detail::dragonbox::decimal_fp<float> const&, fmt::v11::format_specs const&, fmt::v11::detail::float_specs, fmt::v11::detail::locale_ref)
PUBLIC 8e450 0 fmt::v11::detail::do_write_float<char, fmt::v11::basic_appender<char>, fmt::v11::detail::dragonbox::decimal_fp<float>, fmt::v11::detail::digit_grouping<char> >(fmt::v11::basic_appender<char>, fmt::v11::detail::dragonbox::decimal_fp<float> const&, fmt::v11::format_specs const&, fmt::v11::detail::float_specs, fmt::v11::detail::locale_ref)::{lambda(fmt::v11::basic_appender<char>(fmt::v11::basic_appender<char>))#1}::operator() const
PUBLIC 8e5a4 0 fmt::v11::detail::digit_grouping<char>::digit_grouping(fmt::v11::detail::locale_ref, bool)
PUBLIC 8e810 0 fmt::v11::detail::digit_grouping<char>::~digit_grouping()
PUBLIC 8e854 0 fmt::v11::detail::write_exponent<char, fmt::v11::basic_appender<char> >(int, fmt::v11::basic_appender<char>)
PUBLIC 8ea24 0 _ZN3fmt3v116detail17write_significandIcjTnNSt6__ndk19enable_ifIXsr3std11is_integralIT0_EE5valueEiE4typeELi0EEEPT_S9_S5_iiS8_
PUBLIC 8eba0 0 fmt::v11::detail::digit_grouping<char>::apply<fmt::v11::basic_appender<char>, char>(fmt::v11::basic_appender<char>, fmt::v11::basic_string_view<char>) const
PUBLIC 8ef58 0 fmt::v11::basic_memory_buffer<int, (unsigned long)500, std::__ndk1::allocator<int> >::grow(fmt::v11::detail::buffer<int>&, unsigned long)
PUBLIC 8eff8 0 fmt::v11::detail::do_write_float<char, fmt::v11::basic_appender<char>, fmt::v11::detail::dragonbox::decimal_fp<double>, fmt::v11::detail::digit_grouping<char> >(fmt::v11::basic_appender<char>, fmt::v11::detail::dragonbox::decimal_fp<double> const&, fmt::v11::format_specs const&, fmt::v11::detail::float_specs, fmt::v11::detail::locale_ref)
PUBLIC 8fcac 0 fmt::v11::detail::do_write_float<char, fmt::v11::basic_appender<char>, fmt::v11::detail::dragonbox::decimal_fp<double>, fmt::v11::detail::digit_grouping<char> >(fmt::v11::basic_appender<char>, fmt::v11::detail::dragonbox::decimal_fp<double> const&, fmt::v11::format_specs const&, fmt::v11::detail::float_specs, fmt::v11::detail::locale_ref)::{lambda(fmt::v11::basic_appender<char>(fmt::v11::basic_appender<char>))#1}::operator() const
PUBLIC 8fe04 0 _ZN3fmt3v116detail17write_significandIcmTnNSt6__ndk19enable_ifIXsr3std11is_integralIT0_EE5valueEiE4typeELi0EEEPT_S9_S5_iiS8_
PUBLIC 8ff94 0 fmt::v11::detail::write_float<char, fmt::v11::basic_appender<char>, long double>(fmt::v11::basic_appender<char>, long double, fmt::v11::format_specs, fmt::v11::detail::locale_ref)
PUBLIC 90a90 0 fmt::v11::detail::write_padded<char, (fmt::v11::align::type)2, fmt::v11::basic_appender<char>, fmt::v11::detail::write_bytes<char, (fmt::v11::align::type)2, fmt::v11::basic_appender<char> >(fmt::v11::basic_appender<char>, fmt::v11::basic_string_view<char>, fmt::v11::format_specs const&)::{lambda(fmt::v11::basic_appender<char>&)#1}>(fmt::v11::basic_appender<char>, fmt::v11::format_specs const&, unsigned long, unsigned long, fmt::v11::detail::write_bytes<char, (fmt::v11::align::type)2, fmt::v11::basic_appender<char> >(fmt::v11::basic_appender<char>, fmt::v11::basic_string_view<char>, fmt::v11::format_specs const&)::{lambda(fmt::v11::basic_appender<char>&)#1})
PUBLIC 90c6c 0 fmt::v11::detail::format_dragon(fmt::v11::detail::basic_fp<unsigned __int128>, unsigned int, int, fmt::v11::detail::buffer<char>&, int&)
PUBLIC 9209c 0 fmt::v11::detail::bigint::operator<<=(int)
PUBLIC 921c0 0 fmt::v11::detail::bigint::assign_pow10(int)
PUBLIC 9291c 0 fmt::v11::detail::bigint::divmod_assign(fmt::v11::detail::bigint const&)
PUBLIC 92c3c 0 fmt::v11::basic_memory_buffer<unsigned int, (unsigned long)32, std::__ndk1::allocator<unsigned int> >::grow(fmt::v11::detail::buffer<unsigned int>&, unsigned long)
PUBLIC 92cdc 0 fmt::v11::detail::do_write_float<char, fmt::v11::basic_appender<char>, fmt::v11::detail::big_decimal_fp, fmt::v11::detail::digit_grouping<char> >(fmt::v11::basic_appender<char>, fmt::v11::detail::big_decimal_fp const&, fmt::v11::format_specs const&, fmt::v11::detail::float_specs, fmt::v11::detail::locale_ref)
PUBLIC 93b8c 0 fmt::v11::detail::do_write_float<char, fmt::v11::basic_appender<char>, fmt::v11::detail::big_decimal_fp, fmt::v11::detail::digit_grouping<char> >(fmt::v11::basic_appender<char>, fmt::v11::detail::big_decimal_fp const&, fmt::v11::format_specs const&, fmt::v11::detail::float_specs, fmt::v11::detail::locale_ref)::{lambda(fmt::v11::basic_appender<char>(fmt::v11::basic_appender<char>))#1}::operator() const
PUBLIC 93cec 0 fmt::v11::detail::write_padded<char, (fmt::v11::align::type)2, fmt::v11::basic_appender<char>, fmt::v11::detail::write_ptr<char, fmt::v11::basic_appender<char>, unsigned long>(fmt::v11::basic_appender<char>, unsigned long, fmt::v11::format_specs const*)::{lambda(fmt::v11::basic_appender<char>&)#1}>(fmt::v11::basic_appender<char>, fmt::v11::format_specs const&, unsigned long, unsigned long, fmt::v11::detail::write_ptr<char, fmt::v11::basic_appender<char>, unsigned long>(fmt::v11::basic_appender<char>, unsigned long, fmt::v11::format_specs const*)::{lambda(fmt::v11::basic_appender<char>&)#1})
PUBLIC 93f00 0 fmt::v11::detail::parse_replacement_field<char, fmt::v11::detail::vformat_to<char>(fmt::v11::detail::buffer<char>&, fmt::v11::basic_string_view<char>, fmt::v11::detail::vformat_args<char>::type, fmt::v11::detail::locale_ref)::format_handler&>(char const*, char const*, fmt::v11::detail::vformat_to<char>(fmt::v11::detail::buffer<char>&, fmt::v11::basic_string_view<char>, fmt::v11::detail::vformat_args<char>::type, fmt::v11::detail::locale_ref)::format_handler&)
PUBLIC 95b9c 0 fmt::v11::detail::parse_dynamic_spec<char>(char const*, char const*, int&, fmt::v11::detail::arg_ref<char>&, fmt::v11::basic_format_parse_context<char>&)
PUBLIC 95e2c 0 fmt::v11::basic_format_args<fmt::v11::context>::get<char>(fmt::v11::basic_string_view<char>) const
PUBLIC 95f84 0 fmt::v11::detail::write_int_noinline<char, fmt::v11::basic_appender<char>, unsigned long>(fmt::v11::basic_appender<char>, fmt::v11::detail::write_int_arg<unsigned long>, fmt::v11::format_specs const&, fmt::v11::detail::locale_ref)
PUBLIC 96dd8 0 fmt::v11::detail::write_int_noinline<char, fmt::v11::basic_appender<char>, unsigned __int128>(fmt::v11::basic_appender<char>, fmt::v11::detail::write_int_arg<unsigned __int128>, fmt::v11::format_specs const&, fmt::v11::detail::locale_ref)
PUBLIC 97e40 0 _ZN3fmt3v116detail15format_hexfloatIdTnNSt6__ndk19enable_ifIXntsr16is_double_doubleIT_EE5valueEiE4typeELi0EEEvS5_NS0_12format_specsERNS1_6bufferIcEE
PUBLIC 98360 0 fmt::v11::detail::format_float<double>(double, int, fmt::v11::detail::float_specs, fmt::v11::detail::buffer<char>&)
PUBLIC 98d00 0 fmt::v11::detail::write<char, fmt::v11::basic_appender<char> >(fmt::v11::basic_appender<char>, fmt::v11::basic_string_view<char>, fmt::v11::format_specs const&)
PUBLIC 9a06c 0 fmt::v11::detail::for_each_codepoint<fmt::v11::detail::compute_width(fmt::v11::basic_string_view<char>)::count_code_points>(fmt::v11::basic_string_view<char>, fmt::v11::detail::compute_width(fmt::v11::basic_string_view<char>)::count_code_points)::{lambda(char const*, char const*)#1}::operator()(char const*, char const*) const
PUBLIC 9a224 0 fmt::v11::detail::write_int<fmt::v11::basic_appender<char>, unsigned long, char>(fmt::v11::basic_appender<char>, unsigned long, unsigned int, fmt::v11::format_specs const&, fmt::v11::detail::digit_grouping<char> const&)
PUBLIC 9a7a0 0 fmt::v11::detail::write_int<fmt::v11::basic_appender<char>, unsigned __int128, char>(fmt::v11::basic_appender<char>, unsigned __int128, unsigned int, fmt::v11::format_specs const&, fmt::v11::detail::digit_grouping<char> const&)
PUBLIC 9ae20 0 <.plt ELF section in zilko.platformer_ghosts.android64.so>
STACK CFI INIT 35bc0 10 .cfa: sp 0 +
STACK CFI INIT 35bd0 8 .cfa: sp 0 +
STACK CFI INIT 35bd8 8 .cfa: sp 0 +
STACK CFI INIT 35be0 14 .cfa: sp 0 +
STACK CFI INIT 35bf4 1c .cfa: sp 0 +
STACK CFI INIT 35c10 10 .cfa: sp 0 +
STACK CFI INIT 35c20 134 .cfa: sp 0 +
STACK CFI INIT 35d54 84 .cfa: sp 0 +
STACK CFI INIT 35dd8 f4 .cfa: sp 0 +
STACK CFI INIT 35ecc a8 .cfa: sp 0 +
STACK CFI INIT 35f74 7c .cfa: sp 0 +
STACK CFI INIT 35ff0 14 .cfa: sp 0 +
STACK CFI INIT 36004 40 .cfa: sp 0 +
STACK CFI INIT 36044 28 .cfa: sp 0 +
STACK CFI INIT 3606c 190 .cfa: sp 0 +
STACK CFI INIT 361fc 2c8 .cfa: sp 0 +
STACK CFI INIT 364c4 8 .cfa: sp 0 +
STACK CFI INIT 364cc 8 .cfa: sp 0 +
STACK CFI INIT 364d4 44 .cfa: sp 0 +
STACK CFI INIT 36518 e8 .cfa: sp 0 +
STACK CFI INIT 36600 e8 .cfa: sp 0 +
STACK CFI INIT 366e8 14 .cfa: sp 0 +
STACK CFI INIT 366fc 10 .cfa: sp 0 +
STACK CFI INIT 3670c 10 .cfa: sp 0 +
STACK CFI INIT 3671c f0 .cfa: sp 0 +
STACK CFI INIT 3680c 44 .cfa: sp 0 +
STACK CFI INIT 36850 c .cfa: sp 0 +
STACK CFI INIT 3685c c .cfa: sp 0 +
STACK CFI INIT 36868 2c .cfa: sp 0 +
STACK CFI INIT 36894 280 .cfa: sp 0 +
STACK CFI INIT 36b14 c .cfa: sp 0 +
STACK CFI INIT 36b20 120 .cfa: sp 0 +
STACK CFI INIT 36c40 488 .cfa: sp 0 +
STACK CFI INIT 370c8 c48 .cfa: sp 0 +
STACK CFI INIT 37d10 134 .cfa: sp 0 +
STACK CFI INIT 37e44 210 .cfa: sp 0 +
STACK CFI INIT 38054 38c .cfa: sp 0 +
STACK CFI INIT 383e0 1c8 .cfa: sp 0 +
STACK CFI INIT 385a8 9bc .cfa: sp 0 +
STACK CFI INIT 38f64 2d4 .cfa: sp 0 +
STACK CFI INIT 39238 134 .cfa: sp 0 +
STACK CFI INIT 3936c 120 .cfa: sp 0 +
STACK CFI INIT 3948c 1c8 .cfa: sp 0 +
STACK CFI INIT 39654 168 .cfa: sp 0 +
STACK CFI INIT 397bc fc .cfa: sp 0 +
STACK CFI INIT 398b8 30 .cfa: sp 0 +
STACK CFI INIT 39a20 30 .cfa: sp 0 +
STACK CFI INIT 39a50 98 .cfa: sp 0 +
STACK CFI INIT 39ae8 59c .cfa: sp 0 +
STACK CFI INIT 3a084 8c .cfa: sp 0 +
STACK CFI INIT 3a110 30 .cfa: sp 0 +
STACK CFI INIT 3a140 4c .cfa: sp 0 +
STACK CFI 3a144 .cfa: sp 32 +
STACK CFI 3a14c .cfa: x29 32 + x19: .cfa -8 + ^ x20: .cfa -16 + ^ .ra: .cfa -24 + ^ x29: .cfa -32 + ^
STACK CFI 3a174 .cfa: sp 32 +
STACK CFI 3a17c .cfa: sp 0 +
STACK CFI 3a180 .cfa: sp 32 +
STACK CFI 3a188 .cfa: sp 0 +
STACK CFI INIT 3a18c 70 .cfa: sp 0 +
STACK CFI 3a190 .cfa: sp 48 +
STACK CFI 3a19c .cfa: x29 48 + x19: .cfa -8 + ^ x20: .cfa -16 + ^ x21: .cfa -32 + ^ .ra: .cfa -40 + ^ x29: .cfa -48 + ^
STACK CFI 3a1b4 .cfa: sp 48 +
STACK CFI 3a1c0 .cfa: sp 0 +
STACK CFI 3a1c4 .cfa: x29 48 +
STACK CFI 3a1ec .cfa: sp 48 +
STACK CFI 3a1f8 .cfa: sp 0 +
STACK CFI INIT 3a680 18 .cfa: sp 0 +
STACK CFI INIT 3c114 18 .cfa: sp 0 +
STACK CFI INIT 3c12c 18 .cfa: sp 0 +
STACK CFI INIT 3c144 18 .cfa: sp 0 +
STACK CFI INIT 3c15c 18 .cfa: sp 0 +
STACK CFI INIT 3c174 14 .cfa: sp 0 +
STACK CFI 3c178 .cfa: sp 16 +
STACK CFI 3c17c .cfa: x29 16 + .ra: .cfa -8 + ^ x29: .cfa -16 + ^
STACK CFI INIT 3c1d8 30 .cfa: sp 0 +
STACK CFI 3c1dc .cfa: sp 32 +
STACK CFI 3c1e4 .cfa: x29 32 + x19: .cfa -16 + ^ .ra: .cfa -24 + ^ x29: .cfa -32 + ^
STACK CFI 3c1fc .cfa: sp 32 +
STACK CFI 3c204 .cfa: sp 0 +
STACK CFI INIT 3c208 34 .cfa: sp 0 +
STACK CFI 3c20c .cfa: sp 32 +
STACK CFI 3c214 .cfa: x29 32 + x19: .cfa -16 + ^ .ra: .cfa -24 + ^ x29: .cfa -32 + ^
STACK CFI INIT 3c23c 10 .cfa: sp 0 +
STACK CFI 3c240 .cfa: sp 16 +
STACK CFI 3c244 .cfa: x29 16 + .ra: .cfa -8 + ^ x29: .cfa -16 + ^
STACK CFI INIT 3c24c 4c .cfa: sp 0 +
STACK CFI 3c250 .cfa: sp 32 +
STACK CFI 3c258 .cfa: x29 32 + x19: .cfa -8 + ^ x20: .cfa -16 + ^ .ra: .cfa -24 + ^ x29: .cfa -32 + ^
STACK CFI 3c280 .cfa: sp 32 +
STACK CFI 3c288 .cfa: sp 0 +
STACK CFI 3c28c .cfa: sp 32 +
STACK CFI 3c294 .cfa: sp 0 +
STACK CFI INIT 3c5bc 1ac .cfa: sp 0 +
STACK CFI 3c5c0 .cfa: sp 32 +
STACK CFI 3c5c8 .cfa: x29 32 + x19: .cfa -8 + ^ x20: .cfa -16 + ^ .ra: .cfa -24 + ^ x29: .cfa -32 + ^
STACK CFI 3c6b8 .cfa: sp 32 +
STACK CFI 3c6c0 .cfa: sp 0 +
STACK CFI 3c6c4 .cfa: x29 32 +
STACK CFI INIT 3c768 70 .cfa: sp 0 +
STACK CFI 3c76c .cfa: sp 48 +
STACK CFI 3c778 .cfa: x29 48 + x19: .cfa -8 + ^ x20: .cfa -16 + ^ x21: .cfa -32 + ^ .ra: .cfa -40 + ^ x29: .cfa -48 + ^
STACK CFI 3c790 .cfa: sp 48 +
STACK CFI 3c79c .cfa: sp 0 +
STACK CFI 3c7a0 .cfa: x29 48 +
STACK CFI 3c7c8 .cfa: sp 48 +
STACK CFI 3c7d4 .cfa: sp 0 +
STACK CFI INIT 3cb98 50 .cfa: sp 0 +
STACK CFI 3cbbc .cfa: sp 32 +
STACK CFI 3cbc4 .cfa: x29 32 + x19: .cfa -16 + ^ .ra: .cfa -24 + ^ x29: .cfa -32 + ^
STACK CFI 3cbd8 .cfa: sp 32 +
STACK CFI 3cbe0 .cfa: sp 0 +
STACK CFI INIT 3cbe8 80 .cfa: sp 0 +
STACK CFI 3cbec .cfa: sp 48 +
STACK CFI 3cbf8 .cfa: x29 48 + x19: .cfa -8 + ^ x20: .cfa -16 + ^ x21: .cfa -24 + ^ x22: .cfa -32 + ^ .ra: .cfa -40 + ^ x29: .cfa -48 + ^
STACK CFI 3cc10 .cfa: sp 48 +
STACK CFI 3cc1c .cfa: sp 0 +
STACK CFI 3cc20 .cfa: x29 48 +
STACK CFI 3cc50 .cfa: sp 48 +
STACK CFI 3cc5c .cfa: sp 0 +
STACK CFI 3cc60 .cfa: x29 48 +
STACK CFI INIT 3cc68 1ac .cfa: sp 0 +
STACK CFI 3cc6c .cfa: sp 32 +
STACK CFI 3cc74 .cfa: x29 32 + x19: .cfa -8 + ^ x20: .cfa -16 + ^ .ra: .cfa -24 + ^ x29: .cfa -32 + ^
STACK CFI 3cd64 .cfa: sp 32 +
STACK CFI 3cd6c .cfa: sp 0 +
STACK CFI 3cd70 .cfa: x29 32 +
STACK CFI INIT 3d3a4 50 .cfa: sp 0 +
STACK CFI 3d3a8 .cfa: sp 32 +
STACK CFI 3d3b0 .cfa: x29 32 + x19: .cfa -16 + ^ .ra: .cfa -24 + ^ x29: .cfa -32 + ^
STACK CFI 3d3c8 .cfa: sp 32 +
STACK CFI 3d3d0 .cfa: sp 0 +
STACK CFI 3d3d4 .cfa: x29 32 +
STACK CFI 3d3e8 .cfa: sp 32 +
STACK CFI 3d3f0 .cfa: sp 0 +
STACK CFI INIT 3d3f4 4 .cfa: sp 0 +
STACK CFI INIT 3d3f8 34 .cfa: sp 0 +
STACK CFI 3d3fc .cfa: sp 32 +
STACK CFI 3d404 .cfa: x29 32 + x19: .cfa -16 + ^ .ra: .cfa -24 + ^ x29: .cfa -32 + ^
STACK CFI 3d420 .cfa: sp 32 +
STACK CFI 3d428 .cfa: sp 0 +
STACK CFI INIT 3d42c 14 .cfa: sp 0 +
STACK CFI INIT 3d440 4 .cfa: sp 0 +
STACK CFI INIT 3d444 4 .cfa: sp 0 +
STACK CFI INIT 3d564 1c .cfa: sp 0 +
STACK CFI INIT 3d580 c .cfa: sp 0 +
STACK CFI INIT 3d58c 50 .cfa: sp 0 +
STACK CFI 3d590 .cfa: sp 32 +
STACK CFI 3d598 .cfa: x29 32 + x19: .cfa -16 + ^ .ra: .cfa -24 + ^ x29: .cfa -32 + ^
STACK CFI 3d5b0 .cfa: sp 32 +
STACK CFI 3d5b8 .cfa: sp 0 +
STACK CFI 3d5bc .cfa: x29 32 +
STACK CFI 3d5d0 .cfa: sp 32 +
STACK CFI 3d5d8 .cfa: sp 0 +
STACK CFI INIT 3d5dc 50 .cfa: sp 0 +
STACK CFI 3d5e0 .cfa: sp 32 +
STACK CFI 3d5e8 .cfa: x29 32 + x19: .cfa -16 + ^ .ra: .cfa -24 + ^ x29: .cfa -32 + ^
STACK CFI 3d600 .cfa: sp 32 +
STACK CFI 3d608 .cfa: sp 0 +
STACK CFI 3d60c .cfa: x29 32 +
STACK CFI 3d620 .cfa: sp 32 +
STACK CFI 3d628 .cfa: sp 0 +
STACK CFI INIT 3d62c 104 .cfa: sp 0 +
STACK CFI 3d630 .cfa: sp 64 +
STACK CFI 3d640 .cfa: x29 64 + x19: .cfa -8 + ^ x20: .cfa -16 + ^ x21: .cfa -24 + ^ x22: .cfa -32 + ^ x23: .cfa -48 + ^ .ra: .cfa -56 + ^ x29: .cfa -64 + ^
STACK CFI 3d69c .cfa: sp 64 +
STACK CFI 3d6ac .cfa: sp 0 +
STACK CFI 3d6b0 .cfa: x29 64 +
STACK CFI 3d6cc .cfa: sp 64 +
STACK CFI 3d6dc .cfa: sp 0 +
STACK CFI 3d6e0 .cfa: x29 64 +
STACK CFI 3d71c .cfa: sp 64 +
STACK CFI 3d72c .cfa: sp 0 +
STACK CFI INIT 3d730 4 .cfa: sp 0 +
STACK CFI INIT 3d8a8 9c .cfa: sp 0 +
STACK CFI 3d8ac .cfa: sp 32 +
STACK CFI 3d8b4 .cfa: x29 32 + x19: .cfa -8 + ^ x20: .cfa -16 + ^ .ra: .cfa -24 + ^ x29: .cfa -32 + ^
STACK CFI 3d938 .cfa: sp 32 +
STACK CFI 3d940 .cfa: sp 0 +
STACK CFI INIT 3d944 a4 .cfa: sp 0 +
STACK CFI 3d948 .cfa: sp 32 +
STACK CFI 3d950 .cfa: x29 32 + x19: .cfa -8 + ^ x20: .cfa -16 + ^ .ra: .cfa -24 + ^ x29: .cfa -32 + ^
STACK CFI 3d9dc .cfa: sp 32 +
STACK CFI 3d9e4 .cfa: sp 0 +
STACK CFI INIT 3d9e8 90 .cfa: sp 0 +
STACK CFI 3d9ec .cfa: sp 32 +
STACK CFI 3d9f4 .cfa: x29 16 + .ra: .cfa -8 + ^ x29: .cfa -16 + ^
STACK CFI 3da0c .cfa: sp 32 +
STACK CFI 3da14 .cfa: sp 0 +
STACK CFI 3da18 .cfa: x29 16 +
STACK CFI 3da6c .cfa: sp 32 +
STACK CFI 3da74 .cfa: sp 0 +
STACK CFI INIT 3da78 8 .cfa: sp 0 +
STACK CFI INIT 3da80 8 .cfa: sp 0 +
STACK CFI INIT 3dcd4 4 .cfa: sp 0 +
STACK CFI INIT 3dcd8 34 .cfa: sp 0 +
STACK CFI 3dcdc .cfa: sp 32 +
STACK CFI 3dce4 .cfa: x29 32 + x19: .cfa -16 + ^ .ra: .cfa -24 + ^ x29: .cfa -32 + ^
STACK CFI 3dd00 .cfa: sp 32 +
STACK CFI 3dd08 .cfa: sp 0 +
STACK CFI INIT 3dd0c 14 .cfa: sp 0 +
STACK CFI INIT 3dd20 4 .cfa: sp 0 +
STACK CFI INIT 3dd24 4 .cfa: sp 0 +
STACK CFI INIT 3de44 1c .cfa: sp 0 +
STACK CFI INIT 3de60 c .cfa: sp 0 +
STACK CFI INIT 3de6c 50 .cfa: sp 0 +
STACK CFI 3de70 .cfa: sp 32 +
STACK CFI 3de78 .cfa: x29 32 + x19: .cfa -16 + ^ .ra: .cfa -24 + ^ x29: .cfa -32 + ^
STACK CFI 3de90 .cfa: sp 32 +
STACK CFI 3de98 .cfa: sp 0 +
STACK CFI 3de9c .cfa: x29 32 +
STACK CFI 3deb0 .cfa: sp 32 +
STACK CFI 3deb8 .cfa: sp 0 +
STACK CFI INIT 3debc 4 .cfa: sp 0 +
STACK CFI INIT 3dec0 4 .cfa: sp 0 +
STACK CFI INIT 3dec4 98 .cfa: sp 0 +
STACK CFI 3dec8 .cfa: sp 32 +
STACK CFI 3ded0 .cfa: x29 16 + .ra: .cfa -8 + ^ x29: .cfa -16 + ^
STACK CFI 3deec .cfa: sp 32 +
STACK CFI 3def4 .cfa: sp 0 +
STACK CFI 3def8 .cfa: x29 16 +
STACK CFI 3df50 .cfa: sp 32 +
STACK CFI 3df58 .cfa: sp 0 +
STACK CFI INIT 3e020 4 .cfa: sp 0 +
STACK CFI INIT 3e0e8 4 .cfa: sp 0 +
STACK CFI INIT 3e0ec 4 .cfa: sp 0 +
STACK CFI INIT 3e0f0 34 .cfa: sp 0 +
STACK CFI 3e0f4 .cfa: sp 32 +
STACK CFI 3e0fc .cfa: x29 32 + x19: .cfa -16 + ^ .ra: .cfa -24 + ^ x29: .cfa -32 + ^
STACK CFI 3e118 .cfa: sp 32 +
STACK CFI 3e120 .cfa: sp 0 +
STACK CFI INIT 3e124 14 .cfa: sp 0 +
STACK CFI INIT 3e138 4 .cfa: sp 0 +
STACK CFI INIT 3e13c 4 .cfa: sp 0 +
STACK CFI INIT 3e25c 1c .cfa: sp 0 +
STACK CFI INIT 3e278 c .cfa: sp 0 +
STACK CFI INIT 3e284 50 .cfa: sp 0 +
STACK CFI 3e288 .cfa: sp 32 +
STACK CFI 3e290 .cfa: x29 32 + x19: .cfa -16 + ^ .ra: .cfa -24 + ^ x29: .cfa -32 + ^
STACK CFI 3e2a8 .cfa: sp 32 +
STACK CFI 3e2b0 .cfa: sp 0 +
STACK CFI 3e2b4 .cfa: x29 32 +
STACK CFI 3e2c8 .cfa: sp 32 +
STACK CFI 3e2d0 .cfa: sp 0 +
STACK CFI INIT 3ea14 50 .cfa: sp 0 +
STACK CFI 3ea18 .cfa: sp 32 +
STACK CFI 3ea20 .cfa: x29 32 + x19: .cfa -16 + ^ .ra: .cfa -24 + ^ x29: .cfa -32 + ^
STACK CFI 3ea38 .cfa: sp 32 +
STACK CFI 3ea40 .cfa: sp 0 +
STACK CFI 3ea44 .cfa: x29 32 +
STACK CFI 3ea58 .cfa: sp 32 +
STACK CFI 3ea60 .cfa: sp 0 +
STACK CFI INIT 3ead8 7c .cfa: sp 0 +
STACK CFI 3eadc .cfa: sp 48 +
STACK CFI 3eae8 .cfa: x29 48 + x19: .cfa -8 + ^ x20: .cfa -16 + ^ x21: .cfa -32 + ^ .ra: .cfa -40 + ^ x29: .cfa -48 + ^
STACK CFI 3eb34 .cfa: sp 48 +
STACK CFI 3eb40 .cfa: sp 0 +
STACK CFI 3eb44 .cfa: sp 48 +
STACK CFI 3eb50 .cfa: sp 0 +
STACK CFI INIT 3eb54 4 .cfa: sp 0 +
STACK CFI INIT 3ecac 34 .cfa: sp 0 +
STACK CFI 3ecb0 .cfa: sp 16 +
STACK CFI 3ecb4 .cfa: x29 16 + .ra: .cfa -8 + ^ x29: .cfa -16 + ^
STACK CFI INIT 3ee0c 80 .cfa: sp 0 +
STACK CFI 3ee10 .cfa: sp 48 +
STACK CFI 3ee1c .cfa: x29 48 + x19: .cfa -8 + ^ x20: .cfa -16 + ^ x21: .cfa -32 + ^ .ra: .cfa -40 + ^ x29: .cfa -48 + ^
STACK CFI 3ee7c .cfa: sp 48 +
STACK CFI 3ee88 .cfa: sp 0 +
STACK CFI INIT 3ee8c 24 .cfa: sp 0 +
STACK CFI 3ee90 .cfa: sp 32 +
STACK CFI 3ee98 .cfa: x29 32 + x19: .cfa -16 + ^ .ra: .cfa -24 + ^ x29: .cfa -32 + ^
STACK CFI 3eea4 .cfa: sp 32 +
STACK CFI 3eeac .cfa: sp 0 +
STACK CFI INIT 3f3a8 148 .cfa: sp 0 +
STACK CFI 3f3ac .cfa: sp 48 +
STACK CFI 3f3b8 .cfa: x29 48 + x19: .cfa -8 + ^ x20: .cfa -16 + ^ x21: .cfa -32 + ^ .ra: .cfa -40 + ^ x29: .cfa -48 + ^
STACK CFI 3f4e0 .cfa: sp 48 +
STACK CFI 3f4ec .cfa: sp 0 +
STACK CFI INIT 3f714 68 .cfa: sp 0 +
STACK CFI 3f718 .cfa: sp 32 +
STACK CFI 3f720 .cfa: x29 32 + x19: .cfa -8 + ^ x20: .cfa -16 + ^ .ra: .cfa -24 + ^ x29: .cfa -32 + ^
STACK CFI 3f738 .cfa: sp 32 +
STACK CFI 3f740 .cfa: sp 0 +
STACK CFI 3f744 .cfa: x29 32 +
STACK CFI 3f770 .cfa: sp 32 +
STACK CFI 3f778 .cfa: sp 0 +
STACK CFI INIT 3f77c 14 .cfa: sp 0 +
STACK CFI 3f780 .cfa: sp 16 +
STACK CFI 3f784 .cfa: x29 16 + .ra: .cfa -8 + ^ x29: .cfa -16 + ^
STACK CFI INIT 3f790 4 .cfa: sp 0 +
STACK CFI INIT 3f794 14 .cfa: sp 0 +
STACK CFI INIT 3f7a8 120 .cfa: sp 0 +
STACK CFI 3f7ac .cfa: sp 64 +
STACK CFI 3f7bc .cfa: x29 64 + x19: .cfa -8 + ^ x20: .cfa -16 + ^ x21: .cfa -24 + ^ x22: .cfa -32 + ^ x23: .cfa -40 + ^ x24: .cfa -48 + ^ .ra: .cfa -56 + ^ x29: .cfa -64 + ^
STACK CFI 3f8b4 .cfa: sp 64 +
STACK CFI 3f8c4 .cfa: sp 0 +
STACK CFI INIT 3f8c8 c4 .cfa: sp 0 +
STACK CFI 3f8cc .cfa: sp 32 +
STACK CFI 3f8d4 .cfa: x29 32 + x19: .cfa -8 + ^ x20: .cfa -16 + ^ .ra: .cfa -24 + ^ x29: .cfa -32 + ^
STACK CFI 3f95c .cfa: sp 32 +
STACK CFI 3f964 .cfa: sp 0 +
STACK CFI 3f968 .cfa: x29 32 +
STACK CFI INIT 3f98c 3c8 .cfa: sp 0 +
STACK CFI INIT 3fd54 84 .cfa: sp 0 +
STACK CFI 3fd5c .cfa: sp 32 +
STACK CFI 3fd64 .cfa: x29 32 + x19: .cfa -8 + ^ x20: .cfa -16 + ^ .ra: .cfa -24 + ^ x29: .cfa -32 + ^
STACK CFI 3fda4 .cfa: sp 32 +
STACK CFI 3fdac .cfa: sp 0 +
STACK CFI 3fdb4 .cfa: x29 32 +
STACK CFI INIT 3fdd8 c0 .cfa: sp 0 +
STACK CFI 3fddc .cfa: sp 48 +
STACK CFI 3fde8 .cfa: x29 48 + x19: .cfa -8 + ^ x20: .cfa -16 + ^ x21: .cfa -24 + ^ x22: .cfa -32 + ^ .ra: .cfa -40 + ^ x29: .cfa -48 + ^
STACK CFI 3fe28 .cfa: sp 48 +
STACK CFI 3fe34 .cfa: sp 0 +
STACK CFI 3fe38 .cfa: x29 48 +
STACK CFI 3fe88 .cfa: sp 48 +
STACK CFI 3fe94 .cfa: sp 0 +
STACK CFI INIT 405c8 50 .cfa: sp 0 +
STACK CFI 405cc .cfa: sp 32 +
STACK CFI 405d4 .cfa: x29 32 + x19: .cfa -16 + ^ .ra: .cfa -24 + ^ x29: .cfa -32 + ^
STACK CFI 405ec .cfa: sp 32 +
STACK CFI 405f4 .cfa: sp 0 +
STACK CFI 405f8 .cfa: x29 32 +
STACK CFI 4060c .cfa: sp 32 +
STACK CFI 40614 .cfa: sp 0 +
STACK CFI INIT 40618 64 .cfa: sp 0 +
STACK CFI 4061c .cfa: sp 32 +
STACK CFI 40624 .cfa: x29 32 + x19: .cfa -16 + ^ .ra: .cfa -24 + ^ x29: .cfa -32 + ^
STACK CFI 40650 .cfa: sp 32 +
STACK CFI 40658 .cfa: sp 0 +
STACK CFI 4065c .cfa: x29 32 +
STACK CFI 40670 .cfa: sp 32 +
STACK CFI 40678 .cfa: sp 0 +
STACK CFI INIT 4067c 14 .cfa: sp 0 +
STACK CFI 40680 .cfa: sp 16 +
STACK CFI 40684 .cfa: x29 16 + .ra: .cfa -8 + ^ x29: .cfa -16 + ^
STACK CFI INIT 40690 168 .cfa: sp 0 +
STACK CFI 40694 .cfa: sp 80 +
STACK CFI 406a8 .cfa: x29 80 + x19: .cfa -8 + ^ x20: .cfa -16 + ^ x21: .cfa -24 + ^ x22: .cfa -32 + ^ x23: .cfa -40 + ^ x24: .cfa -48 + ^ x25: .cfa -56 + ^ x26: .cfa -64 + ^ .ra: .cfa -72 + ^ x29: .cfa -80 + ^
STACK CFI 407e0 .cfa: sp 80 +
STACK CFI 407f4 .cfa: sp 0 +
STACK CFI INIT 407f8 1b0 .cfa: sp 0 +
STACK CFI INIT 409a8 4 .cfa: sp 0 +
STACK CFI INIT 409ac 34 .cfa: sp 0 +
STACK CFI 409b0 .cfa: sp 32 +
STACK CFI 409b8 .cfa: x29 32 + x19: .cfa -16 + ^ .ra: .cfa -24 + ^ x29: .cfa -32 + ^
STACK CFI 409d4 .cfa: sp 32 +
STACK CFI 409dc .cfa: sp 0 +
STACK CFI INIT 409e0 14 .cfa: sp 0 +
STACK CFI INIT 409f4 4 .cfa: sp 0 +
STACK CFI INIT 409f8 4 .cfa: sp 0 +
STACK CFI INIT 409fc 2c .cfa: sp 0 +
STACK CFI 40a14 .cfa: sp 16 +
STACK CFI 40a18 .cfa: x29 16 + .ra: .cfa -8 + ^ x29: .cfa -16 + ^
STACK CFI 40a20 .cfa: sp 16 +
STACK CFI 40a24 .cfa: sp 0 +
STACK CFI INIT 40a28 1c .cfa: sp 0 +
STACK CFI INIT 40a44 c .cfa: sp 0 +
STACK CFI INIT 40a50 4 .cfa: sp 0 +
STACK CFI INIT 40a54 34 .cfa: sp 0 +
STACK CFI 40a58 .cfa: sp 32 +
STACK CFI 40a60 .cfa: x29 32 + x19: .cfa -16 + ^ .ra: .cfa -24 + ^ x29: .cfa -32 + ^
STACK CFI 40a7c .cfa: sp 32 +
STACK CFI 40a84 .cfa: sp 0 +
STACK CFI INIT 40a88 14 .cfa: sp 0 +
STACK CFI INIT 40a9c 4 .cfa: sp 0 +
STACK CFI INIT 40aa0 4 .cfa: sp 0 +
STACK CFI INIT 40aa4 1d8 .cfa: sp 0 +
STACK CFI 40aa8 .cfa: sp 112 +
STACK CFI 40ab8 .cfa: x29 32 + x19: .cfa -8 + ^ x20: .cfa -16 + ^ .ra: .cfa -24 + ^ x29: .cfa -32 + ^ v8: .cfa -40 + ^ v9: .cfa -48 + ^
STACK CFI 40bc4 .cfa: sp 112 +
STACK CFI 40bd4 .cfa: sp 0 +
STACK CFI 40bd8 .cfa: x29 32 +
STACK CFI INIT 40c7c 1c .cfa: sp 0 +
STACK CFI INIT 40c98 c .cfa: sp 0 +
STACK CFI INIT 40f04 34 .cfa: sp 0 +
STACK CFI INIT 40f38 c .cfa: sp 0 +
STACK CFI INIT 40f44 14 .cfa: sp 0 +
STACK CFI INIT 40f58 c .cfa: sp 0 +
STACK CFI INIT 40f64 c .cfa: sp 0 +
STACK CFI INIT 40f70 14 .cfa: sp 0 +
STACK CFI INIT 40f84 c .cfa: sp 0 +
STACK CFI INIT 40f90 c .cfa: sp 0 +
STACK CFI INIT 40f9c c .cfa: sp 0 +
STACK CFI INIT 40fa8 14 .cfa: sp 0 +
STACK CFI 40fac .cfa: sp 16 +
STACK CFI 40fb0 .cfa: x29 16 + .ra: .cfa -8 + ^ x29: .cfa -16 + ^
STACK CFI INIT 41ee8 4 .cfa: sp 0 +
STACK CFI INIT 420f8 a8 .cfa: sp 0 +
STACK CFI 420fc .cfa: sp 32 +
STACK CFI 42104 .cfa: x29 32 + x19: .cfa -8 + ^ x20: .cfa -16 + ^ .ra: .cfa -24 + ^ x29: .cfa -32 + ^
STACK CFI 42130 .cfa: sp 32 +
STACK CFI 42138 .cfa: sp 0 +
STACK CFI 4213c .cfa: x29 32 +
STACK CFI 42184 .cfa: sp 32 +
STACK CFI 4218c .cfa: sp 0 +
STACK CFI 42190 .cfa: x29 32 +
STACK CFI 42194 .cfa: sp 32 +
STACK CFI 4219c .cfa: sp 0 +
STACK CFI INIT 421a0 9c .cfa: sp 0 +
STACK CFI 421a4 .cfa: sp 32 +
STACK CFI 421ac .cfa: x29 32 + x19: .cfa -8 + ^ x20: .cfa -16 + ^ .ra: .cfa -24 + ^ x29: .cfa -32 + ^
STACK CFI 421e8 .cfa: sp 32 +
STACK CFI 421f0 .cfa: sp 0 +
STACK CFI 421f4 .cfa: x29 32 +
STACK CFI 42230 .cfa: sp 32 +
STACK CFI 42238 .cfa: sp 0 +
STACK CFI INIT 4223c 14 .cfa: sp 0 +
STACK CFI 42240 .cfa: sp 16 +
STACK CFI 42244 .cfa: x29 16 + .ra: .cfa -8 + ^ x29: .cfa -16 + ^
STACK CFI 42248 .cfa: sp 16 +
STACK CFI 4224c .cfa: sp 0 +
STACK CFI INIT 42250 9c .cfa: sp 0 +
STACK CFI 42254 .cfa: sp 32 +
STACK CFI 4225c .cfa: x29 32 + x19: .cfa -8 + ^ x20: .cfa -16 + ^ .ra: .cfa -24 + ^ x29: .cfa -32 + ^
STACK CFI 42298 .cfa: sp 32 +
STACK CFI 422a0 .cfa: sp 0 +
STACK CFI 422a4 .cfa: x29 32 +
STACK CFI 422e0 .cfa: sp 32 +
STACK CFI 422e8 .cfa: sp 0 +
STACK CFI INIT 42470 fc .cfa: sp 0 +
STACK CFI 42474 .cfa: sp 48 +
STACK CFI 42480 .cfa: x29 48 + x19: .cfa -8 + ^ x20: .cfa -16 + ^ x21: .cfa -32 + ^ .ra: .cfa -40 + ^ x29: .cfa -48 + ^
STACK CFI 424e0 .cfa: sp 48 +
STACK CFI 424ec .cfa: sp 0 +
STACK CFI 424f0 .cfa: x29 48 +
STACK CFI 424f4 .cfa: sp 48 +
STACK CFI 42500 .cfa: sp 0 +
STACK CFI 42504 .cfa: x29 48 +
STACK CFI 4255c .cfa: sp 48 +
STACK CFI 42568 .cfa: sp 0 +
STACK CFI INIT 4256c fc .cfa: sp 0 +
STACK CFI 42570 .cfa: sp 48 +
STACK CFI 4257c .cfa: x29 48 + x19: .cfa -8 + ^ x20: .cfa -16 + ^ x21: .cfa -32 + ^ .ra: .cfa -40 + ^ x29: .cfa -48 + ^
STACK CFI 425dc .cfa: sp 48 +
STACK CFI 425e8 .cfa: sp 0 +
STACK CFI 425ec .cfa: x29 48 +
STACK CFI 425f0 .cfa: sp 48 +
STACK CFI 425fc .cfa: sp 0 +
STACK CFI 42600 .cfa: x29 48 +
STACK CFI 42658 .cfa: sp 48 +
STACK CFI 42664 .cfa: sp 0 +
STACK CFI INIT 42e50 4 .cfa: sp 0 +
STACK CFI INIT 43d34 c4 .cfa: sp 0 +
STACK CFI 43d38 .cfa: sp 32 +
STACK CFI 43d40 .cfa: x29 32 + x19: .cfa -8 + ^ x20: .cfa -16 + ^ .ra: .cfa -24 + ^ x29: .cfa -32 + ^
STACK CFI 43dbc .cfa: sp 32 +
STACK CFI 43dc4 .cfa: sp 0 +
STACK CFI 43dc8 .cfa: x29 32 +
STACK CFI 43dec .cfa: sp 32 +
STACK CFI 43df4 .cfa: sp 0 +
STACK CFI INIT 43df8 4 .cfa: sp 0 +
STACK CFI INIT 43dfc 34 .cfa: sp 0 +
STACK CFI 43e00 .cfa: sp 32 +
STACK CFI 43e08 .cfa: x29 32 + x19: .cfa -16 + ^ .ra: .cfa -24 + ^ x29: .cfa -32 + ^
STACK CFI 43e24 .cfa: sp 32 +
STACK CFI 43e2c .cfa: sp 0 +
STACK CFI INIT 43e30 14 .cfa: sp 0 +
STACK CFI INIT 43e44 4 .cfa: sp 0 +
STACK CFI INIT 43e48 4 .cfa: sp 0 +
STACK CFI INIT 43f20 1c .cfa: sp 0 +
STACK CFI INIT 43f3c c .cfa: sp 0 +
STACK CFI INIT 44514 4 .cfa: sp 0 +
STACK CFI INIT 44928 8c .cfa: sp 0 +
STACK CFI 4492c .cfa: sp 32 +
STACK CFI 44934 .cfa: x29 32 + x19: .cfa -16 + ^ .ra: .cfa -24 + ^ x29: .cfa -32 + ^
STACK CFI 449a8 .cfa: sp 32 +
STACK CFI 449b0 .cfa: sp 0 +
STACK CFI INIT 44cd8 4 .cfa: sp 0 +
STACK CFI INIT 44ec4 90 .cfa: sp 0 +
STACK CFI 44ec8 .cfa: sp 32 +
STACK CFI 44ed0 .cfa: x29 32 + x19: .cfa -16 + ^ .ra: .cfa -24 + ^ x29: .cfa -32 + ^
STACK CFI 44f48 .cfa: sp 32 +
STACK CFI 44f50 .cfa: sp 0 +
STACK CFI INIT 44f54 4 .cfa: sp 0 +
STACK CFI INIT 44f58 4 .cfa: sp 0 +
STACK CFI INIT 44f5c 34 .cfa: sp 0 +
STACK CFI 44f60 .cfa: sp 32 +
STACK CFI 44f68 .cfa: x29 32 + x19: .cfa -16 + ^ .ra: .cfa -24 + ^ x29: .cfa -32 + ^
STACK CFI 44f84 .cfa: sp 32 +
STACK CFI 44f8c .cfa: sp 0 +
STACK CFI INIT 44f90 14 .cfa: sp 0 +
STACK CFI INIT 44fa4 4 .cfa: sp 0 +
STACK CFI INIT 44fa8 4 .cfa: sp 0 +
STACK CFI INIT 459a8 1c .cfa: sp 0 +
STACK CFI INIT 459c4 c .cfa: sp 0 +
STACK CFI INIT 459ec 7c .cfa: sp 0 +
STACK CFI 459f0 .cfa: sp 48 +
STACK CFI 459fc .cfa: x29 48 + x19: .cfa -8 + ^ x20: .cfa -16 + ^ x21: .cfa -32 + ^ .ra: .cfa -40 + ^ x29: .cfa -48 + ^
STACK CFI 45a58 .cfa: sp 48 +
STACK CFI 45a64 .cfa: sp 0 +
STACK CFI INIT 45b2c 104 .cfa: sp 0 +
STACK CFI 45b30 .cfa: sp 48 +
STACK CFI 45b3c .cfa: x29 48 + x19: .cfa -8 + ^ x20: .cfa -16 + ^ x21: .cfa -32 + ^ .ra: .cfa -40 + ^ x29: .cfa -48 + ^
STACK CFI 45bec .cfa: sp 48 +
STACK CFI 45bf8 .cfa: sp 0 +
STACK CFI 45bfc .cfa: x29 48 +
STACK CFI 45c20 .cfa: sp 48 +
STACK CFI 45c2c .cfa: sp 0 +
STACK CFI INIT 45edc a4 .cfa: sp 0 +
STACK CFI 45ee0 .cfa: sp 32 +
STACK CFI 45ee8 .cfa: x29 32 + x19: .cfa -16 + ^ .ra: .cfa -24 + ^ x29: .cfa -32 + ^
STACK CFI 45f68 .cfa: sp 32 +
STACK CFI 45f70 .cfa: sp 0 +
STACK CFI 45f74 .cfa: sp 32 +
STACK CFI 45f7c .cfa: sp 0 +
STACK CFI INIT 46138 154 .cfa: sp 0 +
STACK CFI 4613c .cfa: sp 64 +
STACK CFI 4614c .cfa: x29 64 + x19: .cfa -8 + ^ x20: .cfa -16 + ^ x21: .cfa -24 + ^ x22: .cfa -32 + ^ x23: .cfa -48 + ^ .ra: .cfa -56 + ^ x29: .cfa -64 + ^
STACK CFI 46278 .cfa: sp 64 +
STACK CFI 46288 .cfa: sp 0 +
STACK CFI INIT 4628c 154 .cfa: sp 0 +
STACK CFI 46290 .cfa: sp 64 +
STACK CFI 462a0 .cfa: x29 64 + x19: .cfa -8 + ^ x20: .cfa -16 + ^ x21: .cfa -24 + ^ x22: .cfa -32 + ^ x23: .cfa -48 + ^ .ra: .cfa -56 + ^ x29: .cfa -64 + ^
STACK CFI 463cc .cfa: sp 64 +
STACK CFI 463dc .cfa: sp 0 +
STACK CFI INIT 47a24 9c .cfa: sp 0 +
STACK CFI 47a28 .cfa: sp 32 +
STACK CFI 47a30 .cfa: x29 32 + x19: .cfa -8 + ^ x20: .cfa -16 + ^ .ra: .cfa -24 + ^ x29: .cfa -32 + ^
STACK CFI 47a84 .cfa: sp 32 +
STACK CFI 47a8c .cfa: sp 0 +
STACK CFI 47a90 .cfa: x29 32 +
STACK CFI 47ab4 .cfa: sp 32 +
STACK CFI 47abc .cfa: sp 0 +
STACK CFI INIT 4970c 120 .cfa: sp 0 +
STACK CFI 49710 .cfa: sp 48 +
STACK CFI 4971c .cfa: x29 48 + x19: .cfa -8 + ^ x20: .cfa -16 + ^ x21: .cfa -24 + ^ x22: .cfa -32 + ^ .ra: .cfa -40 + ^ x29: .cfa -48 + ^
STACK CFI 49760 .cfa: sp 48 +
STACK CFI 4976c .cfa: sp 0 +
STACK CFI 49770 .cfa: x29 48 +
STACK CFI 4981c .cfa: sp 48 +
STACK CFI 49828 .cfa: sp 0 +
STACK CFI INIT 49e00 3a0 .cfa: sp 0 +
STACK CFI 49e04 .cfa: sp 144 +
STACK CFI 49e24 .cfa: x29 64 + x19: .cfa -8 + ^ x20: .cfa -16 + ^ x21: .cfa -24 + ^ x22: .cfa -32 + ^ x23: .cfa -40 + ^ x24: .cfa -48 + ^ .ra: .cfa -56 + ^ x29: .cfa -64 + ^ v8: .cfa -72 + ^ v9: .cfa -80 + ^ v10: .cfa -88 + ^ v11: .cfa -96 + ^ v12: .cfa -104 + ^ v13: .cfa -112 + ^
STACK CFI 49efc .cfa: sp 144 +
STACK CFI 49f1c .cfa: sp 0 +
STACK CFI 49f20 .cfa: x29 64 +
STACK CFI 4a178 .cfa: sp 144 +
STACK CFI 4a198 .cfa: sp 0 +
STACK CFI 4a19c .cfa: x29 64 +
STACK CFI INIT 4a288 184 .cfa: sp 0 +
STACK CFI 4a28c .cfa: sp 64 +
STACK CFI 4a29c .cfa: x29 64 + x19: .cfa -8 + ^ x20: .cfa -16 + ^ x21: .cfa -24 + ^ x22: .cfa -32 + ^ x23: .cfa -48 + ^ .ra: .cfa -56 + ^ x29: .cfa -64 + ^
STACK CFI 4a3e4 .cfa: sp 64 +
STACK CFI 4a3f4 .cfa: sp 0 +
STACK CFI 4a3f8 .cfa: sp 64 +
STACK CFI 4a408 .cfa: sp 0 +
STACK CFI INIT 4af88 68 .cfa: sp 0 +
STACK CFI 4af8c .cfa: sp 48 +
STACK CFI 4af98 .cfa: x29 48 + x19: .cfa -8 + ^ x20: .cfa -16 + ^ x21: .cfa -32 + ^ .ra: .cfa -40 + ^ x29: .cfa -48 + ^
STACK CFI 4afd0 .cfa: sp 48 +
STACK CFI 4afdc .cfa: sp 0 +
STACK CFI 4afe0 .cfa: sp 48 +
STACK CFI 4afec .cfa: sp 0 +
STACK CFI INIT 4b148 8c .cfa: sp 0 +
STACK CFI 4b14c .cfa: sp 32 +
STACK CFI 4b154 .cfa: x29 32 + x19: .cfa -8 + ^ x20: .cfa -16 + ^ .ra: .cfa -24 + ^ x29: .cfa -32 + ^
STACK CFI 4b198 .cfa: sp 32 +
STACK CFI 4b1a0 .cfa: sp 0 +
STACK CFI 4b1a4 .cfa: x29 32 +
STACK CFI 4b1c8 .cfa: sp 32 +
STACK CFI 4b1d0 .cfa: sp 0 +
STACK CFI INIT 4b1d4 9c .cfa: sp 0 +
STACK CFI 4b1d8 .cfa: sp 32 +
STACK CFI 4b1e0 .cfa: x29 32 + x19: .cfa -8 + ^ x20: .cfa -16 + ^ .ra: .cfa -24 + ^ x29: .cfa -32 + ^
STACK CFI 4b234 .cfa: sp 32 +
STACK CFI 4b23c .cfa: sp 0 +
STACK CFI 4b240 .cfa: x29 32 +
STACK CFI 4b264 .cfa: sp 32 +
STACK CFI 4b26c .cfa: sp 0 +
STACK CFI INIT 4bc2c 138 .cfa: sp 0 +
STACK CFI 4bc30 .cfa: sp 128 +
STACK CFI 4bc4c .cfa: x29 96 + x19: .cfa -8 + ^ x20: .cfa -16 + ^ x21: .cfa -24 + ^ x22: .cfa -32 + ^ x23: .cfa -40 + ^ x24: .cfa -48 + ^ x25: .cfa -56 + ^ x26: .cfa -64 + ^ x27: .cfa -80 + ^ .ra: .cfa -88 + ^ x29: .cfa -96 + ^
STACK CFI 4bd40 .cfa: sp 128 +
STACK CFI 4bd5c .cfa: sp 0 +
STACK CFI 4bd60 .cfa: x29 96 +
STACK CFI INIT 4bd64 140 .cfa: sp 0 +
STACK CFI 4bd68 .cfa: sp 128 +
STACK CFI 4bd84 .cfa: x29 96 + x19: .cfa -8 + ^ x20: .cfa -16 + ^ x21: .cfa -24 + ^ x22: .cfa -32 + ^ x23: .cfa -40 + ^ x24: .cfa -48 + ^ x25: .cfa -56 + ^ x26: .cfa -64 + ^ x27: .cfa -80 + ^ .ra: .cfa -88 + ^ x29: .cfa -96 + ^
STACK CFI 4be80 .cfa: sp 128 +
STACK CFI 4be9c .cfa: sp 0 +
STACK CFI 4bea0 .cfa: x29 96 +
STACK CFI INIT 4bea4 168 .cfa: sp 0 +
STACK CFI 4bea8 .cfa: sp 80 +
STACK CFI 4bebc .cfa: x29 48 + x19: .cfa -8 + ^ x20: .cfa -16 + ^ x21: .cfa -24 + ^ x22: .cfa -32 + ^ .ra: .cfa -40 + ^ x29: .cfa -48 + ^ v8: .cfa -56 + ^ v9: .cfa -64 + ^ v10: .cfa -80 + ^
STACK CFI 4bff4 .cfa: sp 80 +
STACK CFI 4c008 .cfa: sp 0 +
STACK CFI INIT 4c00c 684 .cfa: sp 0 +
STACK CFI 4c010 .cfa: sp 128 +
STACK CFI 4c02c .cfa: x29 96 + x19: .cfa -8 + ^ x20: .cfa -16 + ^ x21: .cfa -24 + ^ x22: .cfa -32 + ^ x23: .cfa -40 + ^ x24: .cfa -48 + ^ x25: .cfa -56 + ^ x26: .cfa -64 + ^ x27: .cfa -72 + ^ x28: .cfa -80 + ^ .ra: .cfa -88 + ^ x29: .cfa -96 + ^
STACK CFI 4c624 .cfa: sp 128 +
STACK CFI 4c640 .cfa: sp 0 +
STACK CFI 4c644 .cfa: x29 96 +
STACK CFI INIT 4c690 294 .cfa: sp 0 +
STACK CFI 4c694 .cfa: sp 48 +
STACK CFI 4c6a0 .cfa: x29 48 + x19: .cfa -8 + ^ x20: .cfa -16 + ^ x21: .cfa -32 + ^ .ra: .cfa -40 + ^ x29: .cfa -48 + ^
STACK CFI 4c6f0 .cfa: sp 48 +
STACK CFI 4c6fc .cfa: sp 0 +
STACK CFI 4c700 .cfa: x29 48 +
STACK CFI 4c8e8 .cfa: sp 48 +
STACK CFI 4c8f4 .cfa: sp 0 +
STACK CFI 4c8f8 .cfa: x29 48 +
STACK CFI 4c914 .cfa: sp 48 +
STACK CFI 4c920 .cfa: sp 0 +
STACK CFI INIT 4c924 19c .cfa: sp 0 +
STACK CFI 4c928 .cfa: sp 32 +
STACK CFI 4c930 .cfa: x29 32 + x19: .cfa -8 + ^ x20: .cfa -16 + ^ .ra: .cfa -24 + ^ x29: .cfa -32 + ^
STACK CFI 4cab4 .cfa: sp 32 +
STACK CFI 4cabc .cfa: sp 0 +
STACK CFI INIT 4e3c8 4c .cfa: sp 0 +
STACK CFI 4e3cc .cfa: sp 32 +
STACK CFI 4e3d4 .cfa: x29 32 + x19: .cfa -8 + ^ x20: .cfa -16 + ^ .ra: .cfa -24 + ^ x29: .cfa -32 + ^
STACK CFI 4e3fc .cfa: sp 32 +
STACK CFI 4e404 .cfa: sp 0 +
STACK CFI 4e408 .cfa: sp 32 +
STACK CFI 4e410 .cfa: sp 0 +
STACK CFI INIT 4e718 1ac .cfa: sp 0 +
STACK CFI 4e71c .cfa: sp 32 +
STACK CFI 4e724 .cfa: x29 32 + x19: .cfa -8 + ^ x20: .cfa -16 + ^ .ra: .cfa -24 + ^ x29: .cfa -32 + ^
STACK CFI 4e814 .cfa: sp 32 +
STACK CFI 4e81c .cfa: sp 0 +
STACK CFI 4e820 .cfa: x29 32 +
STACK CFI INIT 4e8c4 54 .cfa: sp 0 +
STACK CFI 4e8c8 .cfa: sp 32 +
STACK CFI 4e8d0 .cfa: x29 32 + x19: .cfa -8 + ^ x20: .cfa -16 + ^ .ra: .cfa -24 + ^ x29: .cfa -32 + ^
STACK CFI 4e900 .cfa: sp 32 +
STACK CFI 4e908 .cfa: sp 0 +
STACK CFI 4e90c .cfa: sp 32 +
STACK CFI 4e914 .cfa: sp 0 +
STACK CFI INIT 4e918 14 .cfa: sp 0 +
STACK CFI 4e91c .cfa: sp 16 +
STACK CFI 4e920 .cfa: x29 16 + .ra: .cfa -8 + ^ x29: .cfa -16 + ^
STACK CFI INIT 4e92c fc .cfa: sp 0 +
STACK CFI 4e930 .cfa: sp 48 +
STACK CFI 4e93c .cfa: x29 48 + x19: .cfa -8 + ^ x20: .cfa -16 + ^ x21: .cfa -32 + ^ .ra: .cfa -40 + ^ x29: .cfa -48 + ^
STACK CFI 4e9ec .cfa: sp 48 +
STACK CFI 4e9f8 .cfa: sp 0 +
STACK CFI 4e9fc .cfa: x29 48 +
STACK CFI 4ea18 .cfa: sp 48 +
STACK CFI 4ea24 .cfa: sp 0 +
STACK CFI INIT 4ecd8 14 .cfa: sp 0 +
STACK CFI 4ecdc .cfa: sp 16 +
STACK CFI 4ece0 .cfa: x29 16 + .ra: .cfa -8 + ^ x29: .cfa -16 + ^
STACK CFI INIT 4ed3c 30 .cfa: sp 0 +
STACK CFI 4ed40 .cfa: sp 32 +
STACK CFI 4ed48 .cfa: x29 32 + x19: .cfa -16 + ^ .ra: .cfa -24 + ^ x29: .cfa -32 + ^
STACK CFI 4ed60 .cfa: sp 32 +
STACK CFI 4ed68 .cfa: sp 0 +
STACK CFI INIT 4f114 80 .cfa: sp 0 +
STACK CFI INIT 4f194 38 .cfa: sp 0 +
STACK CFI INIT 4f1cc 48 .cfa: sp 0 +
STACK CFI INIT 4f214 38 .cfa: sp 0 +
STACK CFI INIT 4f24c 38 .cfa: sp 0 +
STACK CFI INIT 4f284 48 .cfa: sp 0 +
STACK CFI INIT 4f2cc 38 .cfa: sp 0 +
STACK CFI INIT 4f304 38 .cfa: sp 0 +
STACK CFI INIT 4f33c 2c .cfa: sp 0 +
STACK CFI INIT 4f368 ac .cfa: sp 0 +
STACK CFI 4f36c .cfa: sp 64 +
STACK CFI 4f37c .cfa: x29 64 + x19: .cfa -8 + ^ x20: .cfa -16 + ^ x21: .cfa -24 + ^ x22: .cfa -32 + ^ x23: .cfa -48 + ^ .ra: .cfa -56 + ^ x29: .cfa -64 + ^
STACK CFI 4f3f8 .cfa: sp 64 +
STACK CFI 4f408 .cfa: sp 0 +
STACK CFI 4f40c .cfa: x29 64 +
STACK CFI INIT 4f414 110 .cfa: sp 0 +
STACK CFI 4f418 .cfa: sp 64 +
STACK CFI 4f428 .cfa: x29 64 + x19: .cfa -8 + ^ x20: .cfa -16 + ^ x21: .cfa -24 + ^ x22: .cfa -32 + ^ x23: .cfa -40 + ^ x24: .cfa -48 + ^ .ra: .cfa -56 + ^ x29: .cfa -64 + ^
STACK CFI 4f508 .cfa: sp 64 +
STACK CFI 4f518 .cfa: sp 0 +
STACK CFI 4f51c .cfa: x29 64 +
STACK CFI INIT 4f524 44 .cfa: sp 0 +
STACK CFI 4f528 .cfa: sp 32 +
STACK CFI 4f530 .cfa: x29 32 + x19: .cfa -16 + ^ .ra: .cfa -24 + ^ x29: .cfa -32 + ^
STACK CFI 4f550 .cfa: sp 32 +
STACK CFI 4f558 .cfa: sp 0 +
STACK CFI 4f55c .cfa: sp 32 +
STACK CFI 4f564 .cfa: sp 0 +
STACK CFI INIT 4f688 124 .cfa: sp 0 +
STACK CFI 4f68c .cfa: sp 48 +
STACK CFI 4f698 .cfa: x29 48 + x19: .cfa -8 + ^ x20: .cfa -16 + ^ x21: .cfa -32 + ^ .ra: .cfa -40 + ^ x29: .cfa -48 + ^
STACK CFI 4f79c .cfa: sp 48 +
STACK CFI 4f7a8 .cfa: sp 0 +
STACK CFI INIT 4f7ac 28c .cfa: sp 0 +
STACK CFI 4f7b0 .cfa: sp 64 +
STACK CFI 4f7c0 .cfa: x29 64 + x19: .cfa -8 + ^ x20: .cfa -16 + ^ x21: .cfa -24 + ^ x22: .cfa -32 + ^ x23: .cfa -48 + ^ .ra: .cfa -56 + ^ x29: .cfa -64 + ^
STACK CFI 4fa0c .cfa: sp 64 +
STACK CFI 4fa1c .cfa: sp 0 +
STACK CFI 4fa20 .cfa: x29 64 +
STACK CFI 4fa24 .cfa: sp 64 +
STACK CFI 4fa34 .cfa: sp 0 +
STACK CFI INIT 4fa38 1d0 .cfa: sp 0 +
STACK CFI 4fa3c .cfa: sp 32 +
STACK CFI 4fa44 .cfa: x29 32 + x19: .cfa -8 + ^ x20: .cfa -16 + ^ .ra: .cfa -24 + ^ x29: .cfa -32 + ^
STACK CFI 4fb50 .cfa: sp 32 +
STACK CFI 4fb58 .cfa: sp 0 +
STACK CFI 4fb5c .cfa: x29 32 +
STACK CFI INIT 4fc08 4 .cfa: sp 0 +
STACK CFI INIT 4fc0c 24 .cfa: sp 0 +
STACK CFI 4fc10 .cfa: sp 16 +
STACK CFI 4fc14 .cfa: x29 16 + .ra: .cfa -8 + ^ x29: .cfa -16 + ^
STACK CFI 4fc28 .cfa: sp 16 +
STACK CFI 4fc2c .cfa: sp 0 +
STACK CFI INIT 4fc30 10 .cfa: sp 0 +
STACK CFI INIT 4fc40 4 .cfa: sp 0 +
STACK CFI INIT 4fc44 4 .cfa: sp 0 +
STACK CFI INIT 4fd0c 1c .cfa: sp 0 +
STACK CFI INIT 4fd28 c .cfa: sp 0 +
STACK CFI INIT 50118 70 .cfa: sp 0 +
STACK CFI 5011c .cfa: sp 16 +
STACK CFI 50120 .cfa: x29 16 + .ra: .cfa -8 + ^ x29: .cfa -16 + ^
STACK CFI 50138 .cfa: sp 16 +
STACK CFI 5013c .cfa: sp 0 +
STACK CFI 50140 .cfa: x29 16 +
STACK CFI 50180 .cfa: sp 16 +
STACK CFI 50184 .cfa: sp 0 +
STACK CFI INIT 50188 18 .cfa: sp 0 +
STACK CFI INIT 501a0 6e0 .cfa: sp 0 +
STACK CFI 501a4 .cfa: sp 64 +
STACK CFI 501b4 .cfa: x29 48 + x19: .cfa -8 + ^ x20: .cfa -16 + ^ x21: .cfa -24 + ^ x22: .cfa -32 + ^ .ra: .cfa -40 + ^ x29: .cfa -48 + ^
STACK CFI 5065c .cfa: sp 64 +
STACK CFI 5066c .cfa: sp 0 +
STACK CFI 50670 .cfa: x29 48 +
STACK CFI 50818 .cfa: sp 64 +
STACK CFI 50828 .cfa: sp 0 +
STACK CFI 5082c .cfa: x29 48 +
STACK CFI INIT 50bac 78 .cfa: sp 0 +
STACK CFI INIT 52248 31c .cfa: sp 0 +
STACK CFI 5224c .cfa: sp 64 +
STACK CFI 5225c .cfa: x29 48 + x19: .cfa -8 + ^ x20: .cfa -16 + ^ x21: .cfa -24 + ^ x22: .cfa -32 + ^ .ra: .cfa -40 + ^ x29: .cfa -48 + ^
STACK CFI 5227c .cfa: sp 64 +
STACK CFI 5228c .cfa: sp 0 +
STACK CFI 52290 .cfa: x29 48 +
STACK CFI 523a4 .cfa: sp 64 +
STACK CFI 523b4 .cfa: sp 0 +
STACK CFI 523b8 .cfa: x29 48 +
STACK CFI 523dc .cfa: sp 64 +
STACK CFI 523ec .cfa: sp 0 +
STACK CFI 523f0 .cfa: x29 48 +
STACK CFI 52420 .cfa: sp 64 +
STACK CFI 52430 .cfa: sp 0 +
STACK CFI 52434 .cfa: x29 48 +
STACK CFI 524b4 .cfa: sp 64 +
STACK CFI 524c4 .cfa: sp 0 +
STACK CFI 524c8 .cfa: x29 48 +
STACK CFI INIT 529d8 1b0 .cfa: sp 0 +
STACK CFI 529dc .cfa: sp 64 +
STACK CFI 529ec .cfa: x29 64 + x19: .cfa -8 + ^ x20: .cfa -16 + ^ x21: .cfa -24 + ^ x22: .cfa -32 + ^ x23: .cfa -40 + ^ x24: .cfa -48 + ^ .ra: .cfa -56 + ^ x29: .cfa -64 + ^
STACK CFI 52b5c .cfa: sp 64 +
STACK CFI 52b6c .cfa: sp 0 +
STACK CFI 52b70 .cfa: x29 64 +
STACK CFI INIT 52b88 2b8 .cfa: sp 0 +
STACK CFI INIT 52e40 4 .cfa: sp 0 +
STACK CFI INIT 52e44 24 .cfa: sp 0 +
STACK CFI 52e48 .cfa: sp 16 +
STACK CFI 52e4c .cfa: x29 16 + .ra: .cfa -8 + ^ x29: .cfa -16 + ^
STACK CFI 52e60 .cfa: sp 16 +
STACK CFI 52e64 .cfa: sp 0 +
STACK CFI INIT 52e68 10 .cfa: sp 0 +
STACK CFI INIT 52e78 4 .cfa: sp 0 +
STACK CFI INIT 52e7c 4 .cfa: sp 0 +
STACK CFI INIT 52f3c 1c .cfa: sp 0 +
STACK CFI INIT 52f58 c .cfa: sp 0 +
STACK CFI INIT 52f64 4 .cfa: sp 0 +
STACK CFI INIT 52f68 24 .cfa: sp 0 +
STACK CFI 52f6c .cfa: sp 16 +
STACK CFI 52f70 .cfa: x29 16 + .ra: .cfa -8 + ^ x29: .cfa -16 + ^
STACK CFI 52f84 .cfa: sp 16 +
STACK CFI 52f88 .cfa: sp 0 +
STACK CFI INIT 52f8c 10 .cfa: sp 0 +
STACK CFI INIT 52f9c 4 .cfa: sp 0 +
STACK CFI INIT 52fa0 4 .cfa: sp 0 +
STACK CFI INIT 53060 1c .cfa: sp 0 +
STACK CFI INIT 5307c c .cfa: sp 0 +
STACK CFI INIT 53088 4 .cfa: sp 0 +
STACK CFI INIT 5308c 24 .cfa: sp 0 +
STACK CFI 53090 .cfa: sp 16 +
STACK CFI 53094 .cfa: x29 16 + .ra: .cfa -8 + ^ x29: .cfa -16 + ^
STACK CFI 530a8 .cfa: sp 16 +
STACK CFI 530ac .cfa: sp 0 +
STACK CFI INIT 530b0 10 .cfa: sp 0 +
STACK CFI INIT 530c0 4 .cfa: sp 0 +
STACK CFI INIT 530c4 4 .cfa: sp 0 +
STACK CFI INIT 531a0 1c .cfa: sp 0 +
STACK CFI INIT 531bc c .cfa: sp 0 +
STACK CFI INIT 531c8 4 .cfa: sp 0 +
STACK CFI INIT 531cc 24 .cfa: sp 0 +
STACK CFI 531d0 .cfa: sp 16 +
STACK CFI 531d4 .cfa: x29 16 + .ra: .cfa -8 + ^ x29: .cfa -16 + ^
STACK CFI 531e8 .cfa: sp 16 +
STACK CFI 531ec .cfa: sp 0 +
STACK CFI INIT 531f0 10 .cfa: sp 0 +
STACK CFI INIT 53200 4 .cfa: sp 0 +
STACK CFI INIT 53204 4 .cfa: sp 0 +
STACK CFI INIT 532c4 1c .cfa: sp 0 +
STACK CFI INIT 532e0 c .cfa: sp 0 +
STACK CFI INIT 53a48 50 .cfa: sp 0 +
STACK CFI 53a4c .cfa: sp 32 +
STACK CFI 53a54 .cfa: x29 32 + x19: .cfa -8 + ^ x20: .cfa -16 + ^ .ra: .cfa -24 + ^ x29: .cfa -32 + ^
STACK CFI 53a8c .cfa: sp 32 +
STACK CFI 53a94 .cfa: sp 0 +
STACK CFI INIT 53ed0 50 .cfa: sp 0 +
STACK CFI 53ed4 .cfa: sp 32 +
STACK CFI 53edc .cfa: x29 32 + x19: .cfa -8 + ^ x20: .cfa -16 + ^ .ra: .cfa -24 + ^ x29: .cfa -32 + ^
STACK CFI 53f14 .cfa: sp 32 +
STACK CFI 53f1c .cfa: sp 0 +
STACK CFI INIT 5401c 9c .cfa: sp 0 +
STACK CFI 54020 .cfa: sp 48 +
STACK CFI 5402c .cfa: x29 48 + x19: .cfa -8 + ^ x20: .cfa -16 + ^ x21: .cfa -24 + ^ x22: .cfa -32 + ^ .ra: .cfa -40 + ^ x29: .cfa -48 + ^
STACK CFI 54060 .cfa: sp 48 +
STACK CFI 5406c .cfa: sp 0 +
STACK CFI 54070 .cfa: x29 48 +
STACK CFI 540a0 .cfa: sp 48 +
STACK CFI 540ac .cfa: sp 0 +
STACK CFI 540b0 .cfa: x29 48 +
STACK CFI INIT 54fa8 50 .cfa: sp 0 +
STACK CFI 54fac .cfa: sp 32 +
STACK CFI 54fb4 .cfa: x29 32 + x19: .cfa -16 + ^ .ra: .cfa -24 + ^ x29: .cfa -32 + ^
STACK CFI 54fcc .cfa: sp 32 +
STACK CFI 54fd4 .cfa: sp 0 +
STACK CFI 54fd8 .cfa: x29 32 +
STACK CFI 54fec .cfa: sp 32 +
STACK CFI 54ff4 .cfa: sp 0 +
STACK CFI INIT 56934 7c .cfa: sp 0 +
STACK CFI 56938 .cfa: sp 48 +
STACK CFI 56944 .cfa: x29 48 + x19: .cfa -8 + ^ x20: .cfa -16 + ^ x21: .cfa -32 + ^ .ra: .cfa -40 + ^ x29: .cfa -48 + ^
STACK CFI 56990 .cfa: sp 48 +
STACK CFI 5699c .cfa: sp 0 +
STACK CFI 569a0 .cfa: sp 48 +
STACK CFI 569ac .cfa: sp 0 +
STACK CFI INIT 5b620 4c .cfa: sp 0 +
STACK CFI 5b624 .cfa: sp 32 +
STACK CFI 5b62c .cfa: x29 32 + x19: .cfa -8 + ^ x20: .cfa -16 + ^ .ra: .cfa -24 + ^ x29: .cfa -32 + ^
STACK CFI 5b654 .cfa: sp 32 +
STACK CFI 5b65c .cfa: sp 0 +
STACK CFI 5b660 .cfa: sp 32 +
STACK CFI 5b668 .cfa: sp 0 +
STACK CFI INIT 5bbf0 e8 .cfa: sp 0 +
STACK CFI 5bbf4 .cfa: sp 32 +
STACK CFI 5bbfc .cfa: x29 32 + x19: .cfa -8 + ^ x20: .cfa -16 + ^ .ra: .cfa -24 + ^ x29: .cfa -32 + ^
STACK CFI 5bc3c .cfa: sp 32 +
STACK CFI 5bc44 .cfa: sp 0 +
STACK CFI 5bc48 .cfa: x29 32 +
STACK CFI 5bc84 .cfa: sp 32 +
STACK CFI 5bc8c .cfa: sp 0 +
STACK CFI 5bc90 .cfa: x29 32 +
STACK CFI 5bcb0 .cfa: sp 32 +
STACK CFI 5bcb8 .cfa: sp 0 +
STACK CFI 5bcbc .cfa: x29 32 +
STACK CFI 5bccc .cfa: sp 32 +
STACK CFI 5bcd4 .cfa: sp 0 +
STACK CFI INIT 5bcd8 14 .cfa: sp 0 +
STACK CFI 5bcdc .cfa: sp 16 +
STACK CFI 5bce0 .cfa: x29 16 + .ra: .cfa -8 + ^ x29: .cfa -16 + ^
STACK CFI INIT 64e74 3ac .cfa: sp 0 +
STACK CFI 64e78 .cfa: sp 240 +
STACK CFI 64e90 .cfa: x29 80 + x19: .cfa -8 + ^ x20: .cfa -16 + ^ x21: .cfa -24 + ^ x22: .cfa -32 + ^ x23: .cfa -40 + ^ x24: .cfa -48 + ^ x25: .cfa -56 + ^ x26: .cfa -64 + ^ .ra: .cfa -72 + ^ x29: .cfa -80 + ^
STACK CFI 651c8 .cfa: sp 240 +
STACK CFI 651e0 .cfa: sp 0 +
STACK CFI 651e4 .cfa: x29 80 +
STACK CFI INIT 65874 f4 .cfa: sp 0 +
STACK CFI 65878 .cfa: sp 48 +
STACK CFI 65884 .cfa: x29 48 + x19: .cfa -8 + ^ x20: .cfa -16 + ^ x21: .cfa -24 + ^ x22: .cfa -32 + ^ .ra: .cfa -40 + ^ x29: .cfa -48 + ^
STACK CFI 65958 .cfa: sp 48 +
STACK CFI 65964 .cfa: sp 0 +
STACK CFI INIT 66398 68 .cfa: sp 0 +
STACK CFI 6639c .cfa: sp 32 +
STACK CFI 663a4 .cfa: x29 32 + x19: .cfa -8 + ^ x20: .cfa -16 + ^ .ra: .cfa -24 + ^ x29: .cfa -32 + ^
STACK CFI 663bc .cfa: sp 32 +
STACK CFI 663c4 .cfa: sp 0 +
STACK CFI 663c8 .cfa: x29 32 +
STACK CFI 663f4 .cfa: sp 32 +
STACK CFI 663fc .cfa: sp 0 +
STACK CFI INIT 66400 14 .cfa: sp 0 +
STACK CFI 66404 .cfa: sp 16 +
STACK CFI 66408 .cfa: x29 16 + .ra: .cfa -8 + ^ x29: .cfa -16 + ^
STACK CFI INIT 66878 2c .cfa: sp 0 +
STACK CFI INIT 66af8 38 .cfa: sp 0 +
STACK CFI 66afc .cfa: sp 32 +
STACK CFI 66b04 .cfa: x29 32 + x19: .cfa -16 + ^ .ra: .cfa -24 + ^ x29: .cfa -32 + ^
STACK CFI 66b24 .cfa: sp 32 +
STACK CFI 66b2c .cfa: sp 0 +
STACK CFI INIT 66b30 8 .cfa: sp 0 +
STACK CFI INIT 66b38 38 .cfa: sp 0 +
STACK CFI 66b3c .cfa: sp 32 +
STACK CFI 66b44 .cfa: x29 32 + x19: .cfa -16 + ^ .ra: .cfa -24 + ^ x29: .cfa -32 + ^
STACK CFI 66b64 .cfa: sp 32 +
STACK CFI 66b6c .cfa: sp 0 +
STACK CFI INIT 66ef0 128 .cfa: sp 0 +
STACK CFI 66ef4 .cfa: sp 80 +
STACK CFI 66f08 .cfa: x29 80 + x19: .cfa -8 + ^ x20: .cfa -16 + ^ x21: .cfa -24 + ^ x22: .cfa -32 + ^ x23: .cfa -40 + ^ x24: .cfa -48 + ^ x25: .cfa -64 + ^ .ra: .cfa -72 + ^ x29: .cfa -80 + ^
STACK CFI 66ff8 .cfa: sp 80 +
STACK CFI 6700c .cfa: sp 0 +
STACK CFI 67010 .cfa: x29 80 +
STACK CFI INIT 67708 14 .cfa: sp 0 +
STACK CFI 6770c .cfa: sp 16 +
STACK CFI 67710 .cfa: x29 16 + .ra: .cfa -8 + ^ x29: .cfa -16 + ^
STACK CFI INIT 67a28 114 .cfa: sp 0 +
STACK CFI 67a2c .cfa: sp 32 +
STACK CFI 67a34 .cfa: x29 32 + x19: .cfa -16 + ^ .ra: .cfa -24 + ^ x29: .cfa -32 + ^
STACK CFI 67a7c .cfa: sp 32 +
STACK CFI 67a84 .cfa: sp 0 +
STACK CFI 67a88 .cfa: x29 32 +
STACK CFI 67ab8 .cfa: sp 32 +
STACK CFI 67ac0 .cfa: sp 0 +
STACK CFI 67ac4 .cfa: x29 32 +
STACK CFI 67ae4 .cfa: sp 32 +
STACK CFI 67aec .cfa: sp 0 +
STACK CFI 67af0 .cfa: x29 32 +
STACK CFI 67b00 .cfa: sp 32 +
STACK CFI 67b08 .cfa: sp 0 +
STACK CFI 67b0c .cfa: x29 32 +
STACK CFI 67b20 .cfa: sp 32 +
STACK CFI 67b28 .cfa: sp 0 +
STACK CFI 67b2c .cfa: x29 32 +
STACK CFI 67b30 .cfa: sp 32 +
STACK CFI 67b38 .cfa: sp 0 +
STACK CFI INIT 6c9ec 29c .cfa: sp 0 +
STACK CFI 6c9f0 .cfa: sp 112 +
STACK CFI 6ca0c .cfa: x29 96 + x19: .cfa -8 + ^ x20: .cfa -16 + ^ x21: .cfa -24 + ^ x22: .cfa -32 + ^ x23: .cfa -40 + ^ x24: .cfa -48 + ^ x25: .cfa -56 + ^ x26: .cfa -64 + ^ x27: .cfa -80 + ^ .ra: .cfa -88 + ^ x29: .cfa -96 + ^
STACK CFI 6cc64 .cfa: sp 112 +
STACK CFI 6cc80 .cfa: sp 0 +
STACK CFI 6cc84 .cfa: x29 96 +
STACK CFI INIT 6cc88 284 .cfa: sp 0 +
STACK CFI 6cc8c .cfa: sp 80 +
STACK CFI 6cca0 .cfa: x29 80 + x19: .cfa -8 + ^ x20: .cfa -16 + ^ x21: .cfa -24 + ^ x22: .cfa -32 + ^ x23: .cfa -40 + ^ x24: .cfa -48 + ^ x25: .cfa -64 + ^ .ra: .cfa -72 + ^ x29: .cfa -80 + ^
STACK CFI 6cde4 .cfa: sp 80 +
STACK CFI 6cdf8 .cfa: sp 0 +
STACK CFI 6cdfc .cfa: x29 80 +
STACK CFI 6cec4 .cfa: sp 80 +
STACK CFI 6ced8 .cfa: sp 0 +
STACK CFI 6cedc .cfa: x29 80 +
STACK CFI INIT 6cf0c 14 .cfa: sp 0 +
STACK CFI 6cf10 .cfa: sp 16 +
STACK CFI 6cf14 .cfa: x29 16 + .ra: .cfa -8 + ^ x29: .cfa -16 + ^
STACK CFI INIT 6cf20 1ac .cfa: sp 0 +
STACK CFI 6cf24 .cfa: sp 48 +
STACK CFI 6cf30 .cfa: x29 48 + x19: .cfa -8 + ^ x20: .cfa -16 + ^ x21: .cfa -24 + ^ x22: .cfa -32 + ^ .ra: .cfa -40 + ^ x29: .cfa -48 + ^
STACK CFI 6d0a8 .cfa: sp 48 +
STACK CFI 6d0b4 .cfa: sp 0 +
STACK CFI 6d0b8 .cfa: x29 48 +
STACK CFI 6d0bc .cfa: sp 48 +
STACK CFI 6d0c8 .cfa: sp 0 +
STACK CFI INIT 6d0cc 50 .cfa: sp 0 +
STACK CFI 6d0e4 .cfa: sp 32 +
STACK CFI 6d0ec .cfa: x29 32 + x19: .cfa -8 + ^ x20: .cfa -16 + ^ .ra: .cfa -24 + ^ x29: .cfa -32 + ^
STACK CFI INIT 6db78 30 .cfa: sp 0 +
STACK CFI 6db7c .cfa: sp 32 +
STACK CFI 6db84 .cfa: x29 32 + x19: .cfa -16 + ^ .ra: .cfa -24 + ^ x29: .cfa -32 + ^
STACK CFI 6db9c .cfa: sp 32 +
STACK CFI 6dba4 .cfa: sp 0 +
STACK CFI INIT 6dc34 50 .cfa: sp 0 +
STACK CFI 6dc4c .cfa: sp 32 +
STACK CFI 6dc54 .cfa: x29 32 + x19: .cfa -8 + ^ x20: .cfa -16 + ^ .ra: .cfa -24 + ^ x29: .cfa -32 + ^
STACK CFI INIT 6dc84 100 .cfa: sp 0 +
STACK CFI 6dc88 .cfa: sp 32 +
STACK CFI 6dc90 .cfa: x29 32 + x19: .cfa -8 + ^ x20: .cfa -16 + ^ .ra: .cfa -24 + ^ x29: .cfa -32 + ^
STACK CFI 6dd68 .cfa: sp 32 +
STACK CFI 6dd70 .cfa: sp 0 +
STACK CFI 6dd74 .cfa: sp 32 +
STACK CFI 6dd7c .cfa: sp 0 +
STACK CFI 6dd80 .cfa: x29 32 +
STACK CFI INIT 6dd84 14 .cfa: sp 0 +
STACK CFI 6dd88 .cfa: sp 16 +
STACK CFI 6dd8c .cfa: x29 16 + .ra: .cfa -8 + ^ x29: .cfa -16 + ^
STACK CFI INIT 6e7b4 50 .cfa: sp 0 +
STACK CFI 6e7cc .cfa: sp 32 +
STACK CFI 6e7d4 .cfa: x29 32 + x19: .cfa -8 + ^ x20: .cfa -16 + ^ .ra: .cfa -24 + ^ x29: .cfa -32 + ^
STACK CFI INIT 6ec94 34 .cfa: sp 0 +
STACK CFI 6ec98 .cfa: sp 16 +
STACK CFI 6ec9c .cfa: x29 16 + .ra: .cfa -8 + ^ x29: .cfa -16 + ^
STACK CFI INIT 6ecc8 24 .cfa: sp 0 +
STACK CFI 6eccc .cfa: sp 32 +
STACK CFI 6ecd4 .cfa: x29 32 + x19: .cfa -16 + ^ .ra: .cfa -24 + ^ x29: .cfa -32 + ^
STACK CFI 6ece0 .cfa: sp 32 +
STACK CFI 6ece8 .cfa: sp 0 +
STACK CFI INIT 6ee24 14 .cfa: sp 0 +
STACK CFI 6ee28 .cfa: sp 16 +
STACK CFI 6ee2c .cfa: x29 16 + .ra: .cfa -8 + ^ x29: .cfa -16 + ^
STACK CFI INIT 6ee38 38 .cfa: sp 0 +
STACK CFI 6ee3c .cfa: sp 32 +
STACK CFI 6ee44 .cfa: x29 32 + x19: .cfa -16 + ^ .ra: .cfa -24 + ^ x29: .cfa -32 + ^
STACK CFI 6ee64 .cfa: sp 32 +
STACK CFI 6ee6c .cfa: sp 0 +
STACK CFI INIT 6f054 38 .cfa: sp 0 +
STACK CFI 6f058 .cfa: sp 32 +
STACK CFI 6f060 .cfa: x29 32 + x19: .cfa -16 + ^ .ra: .cfa -24 + ^ x29: .cfa -32 + ^
STACK CFI 6f080 .cfa: sp 32 +
STACK CFI 6f088 .cfa: sp 0 +
STACK CFI INIT 6f550 48 .cfa: sp 0 +
STACK CFI 6f554 .cfa: sp 32 +
STACK CFI 6f55c .cfa: x29 32 + x19: .cfa -16 + ^ .ra: .cfa -24 + ^ x29: .cfa -32 + ^
STACK CFI 6f58c .cfa: sp 32 +
STACK CFI 6f594 .cfa: sp 0 +
STACK CFI INIT 6f598 54 .cfa: sp 0 +
STACK CFI 6f59c .cfa: sp 32 +
STACK CFI 6f5a4 .cfa: x29 32 + x19: .cfa -8 + ^ x20: .cfa -16 + ^ .ra: .cfa -24 + ^ x29: .cfa -32 + ^
STACK CFI 6f5e0 .cfa: sp 32 +
STACK CFI 6f5e8 .cfa: sp 0 +
STACK CFI INIT 6f5ec 38 .cfa: sp 0 +
STACK CFI 6f5f0 .cfa: sp 32 +
STACK CFI 6f5f8 .cfa: x29 32 + x19: .cfa -16 + ^ .ra: .cfa -24 + ^ x29: .cfa -32 + ^
STACK CFI 6f618 .cfa: sp 32 +
STACK CFI 6f620 .cfa: sp 0 +
STACK CFI INIT 6f624 a4 .cfa: sp 0 +
STACK CFI 6f628 .cfa: sp 272 +
STACK CFI 6f634 .cfa: x29 32 + x19: .cfa -8 + ^ x28: .cfa -16 + ^ .ra: .cfa -24 + ^ x29: .cfa -32 + ^
STACK CFI 6f6b4 .cfa: sp 272 +
STACK CFI 6f6c0 .cfa: sp 0 +
STACK CFI 6f6c4 .cfa: x29 32 +
STACK CFI INIT 6f6c8 50 .cfa: sp 0 +
STACK CFI 6f6e0 .cfa: sp 32 +
STACK CFI 6f6e8 .cfa: x29 32 + x19: .cfa -8 + ^ x20: .cfa -16 + ^ .ra: .cfa -24 + ^ x29: .cfa -32 + ^
STACK CFI INIT 6fd14 50 .cfa: sp 0 +
STACK CFI 6fd18 .cfa: sp 32 +
STACK CFI 6fd20 .cfa: x29 32 + x19: .cfa -16 + ^ .ra: .cfa -24 + ^ x29: .cfa -32 + ^
STACK CFI 6fd38 .cfa: sp 32 +
STACK CFI 6fd40 .cfa: sp 0 +
STACK CFI 6fd44 .cfa: x29 32 +
STACK CFI 6fd58 .cfa: sp 32 +
STACK CFI 6fd60 .cfa: sp 0 +
STACK CFI INIT 6fd64 50 .cfa: sp 0 +
STACK CFI 6fd68 .cfa: sp 32 +
STACK CFI 6fd70 .cfa: x29 32 + x19: .cfa -16 + ^ .ra: .cfa -24 + ^ x29: .cfa -32 + ^
STACK CFI 6fd88 .cfa: sp 32 +
STACK CFI 6fd90 .cfa: sp 0 +
STACK CFI 6fd94 .cfa: x29 32 +
STACK CFI 6fda8 .cfa: sp 32 +
STACK CFI 6fdb0 .cfa: sp 0 +
STACK CFI INIT 6fdb4 1864 .cfa: sp 0 +
STACK CFI 6fdb8 .cfa: sp 144 +
STACK CFI 6fdd4 .cfa: x29 96 + x19: .cfa -8 + ^ x20: .cfa -16 + ^ x21: .cfa -24 + ^ x22: .cfa -32 + ^ x23: .cfa -40 + ^ x24: .cfa -48 + ^ x25: .cfa -56 + ^ x26: .cfa -64 + ^ x27: .cfa -72 + ^ x28: .cfa -80 + ^ .ra: .cfa -88 + ^ x29: .cfa -96 + ^
STACK CFI 6fe34 .cfa: sp 144 +
STACK CFI 6fe38 .cfa: x29 96 +
STACK CFI 6fe70 .cfa: sp 144 +
STACK CFI 6fe74 .cfa: x29 96 +
STACK CFI 701e0 .cfa: sp 144 +
STACK CFI 701e4 .cfa: x29 96 +
STACK CFI 70218 .cfa: sp 144 +
STACK CFI 7021c .cfa: x29 96 +
STACK CFI 70394 .cfa: sp 144 +
STACK CFI 703b0 .cfa: sp 0 +
STACK CFI 703b4 .cfa: x29 96 +
STACK CFI 703c4 .cfa: sp 144 +
STACK CFI 703c8 .cfa: x29 96 +
STACK CFI 70518 .cfa: sp 144 +
STACK CFI 7051c .cfa: x29 96 +
STACK CFI 70528 .cfa: sp 144 +
STACK CFI 7052c .cfa: x29 96 +
STACK CFI 70644 .cfa: sp 144 +
STACK CFI 70648 .cfa: x29 96 +
STACK CFI 70d94 .cfa: sp 144 +
STACK CFI 70d98 .cfa: x29 96 +
STACK CFI 70e9c .cfa: sp 144 +
STACK CFI 70ea0 .cfa: x29 96 +
STACK CFI 71044 .cfa: sp 144 +
STACK CFI 71060 .cfa: sp 0 +
STACK CFI 71064 .cfa: x29 96 +
STACK CFI 7149c .cfa: sp 144 +
STACK CFI 714b8 .cfa: sp 0 +
STACK CFI 714bc .cfa: x29 96 +
STACK CFI INIT 71618 64 .cfa: sp 0 +
STACK CFI 7161c .cfa: sp 32 +
STACK CFI 71624 .cfa: x29 32 + x19: .cfa -16 + ^ .ra: .cfa -24 + ^ x29: .cfa -32 + ^
STACK CFI 71650 .cfa: sp 32 +
STACK CFI 71658 .cfa: sp 0 +
STACK CFI 7165c .cfa: x29 32 +
STACK CFI 71670 .cfa: sp 32 +
STACK CFI 71678 .cfa: sp 0 +
STACK CFI INIT 7167c 10 .cfa: sp 0 +
STACK CFI INIT 7168c 30 .cfa: sp 0 +
STACK CFI 71690 .cfa: sp 32 +
STACK CFI 71698 .cfa: x29 32 + x19: .cfa -16 + ^ .ra: .cfa -24 + ^ x29: .cfa -32 + ^
STACK CFI 716b0 .cfa: sp 32 +
STACK CFI 716b8 .cfa: sp 0 +
STACK CFI INIT 716bc c .cfa: sp 0 +
STACK CFI INIT 716c8 4 .cfa: sp 0 +
STACK CFI INIT 716cc 8 .cfa: sp 0 +
STACK CFI INIT 716d4 8 .cfa: sp 0 +
STACK CFI INIT 716dc 4 .cfa: sp 0 +
STACK CFI INIT 716e0 4 .cfa: sp 0 +
STACK CFI INIT 725ec 178 .cfa: sp 0 +
STACK CFI 725f0 .cfa: sp 80 +
STACK CFI 72604 .cfa: x29 80 + x19: .cfa -8 + ^ x20: .cfa -16 + ^ x21: .cfa -24 + ^ x22: .cfa -32 + ^ x23: .cfa -40 + ^ x24: .cfa -48 + ^ x25: .cfa -56 + ^ x26: .cfa -64 + ^ .ra: .cfa -72 + ^ x29: .cfa -80 + ^
STACK CFI 7274c .cfa: sp 80 +
STACK CFI 72760 .cfa: sp 0 +
STACK CFI INIT 729f4 3f0 .cfa: sp 0 +
STACK CFI 729f8 .cfa: sp 112 +
STACK CFI 72a14 .cfa: x29 96 + x19: .cfa -8 + ^ x20: .cfa -16 + ^ x21: .cfa -24 + ^ x22: .cfa -32 + ^ x23: .cfa -40 + ^ x24: .cfa -48 + ^ x25: .cfa -56 + ^ x26: .cfa -64 + ^ x27: .cfa -72 + ^ x28: .cfa -80 + ^ .ra: .cfa -88 + ^ x29: .cfa -96 + ^
STACK CFI 72dc4 .cfa: sp 112 +
STACK CFI 72de0 .cfa: sp 0 +
STACK CFI INIT 72fd0 14 .cfa: sp 0 +
STACK CFI 72fd4 .cfa: sp 16 +
STACK CFI 72fd8 .cfa: x29 16 + .ra: .cfa -8 + ^ x29: .cfa -16 + ^
STACK CFI INIT 732c4 160 .cfa: sp 0 +
STACK CFI 732c8 .cfa: sp 64 +
STACK CFI 732d8 .cfa: x29 64 + x19: .cfa -8 + ^ x20: .cfa -16 + ^ x21: .cfa -24 + ^ x22: .cfa -32 + ^ x23: .cfa -40 + ^ x24: .cfa -48 + ^ .ra: .cfa -56 + ^ x29: .cfa -64 + ^
STACK CFI 733b8 .cfa: sp 64 +
STACK CFI 733c8 .cfa: sp 0 +
STACK CFI 733cc .cfa: x29 64 +
STACK CFI 733d4 .cfa: sp 64 +
STACK CFI 733e4 .cfa: sp 0 +
STACK CFI 733e8 .cfa: x29 64 +
STACK CFI 733f4 .cfa: sp 64 +
STACK CFI 73404 .cfa: sp 0 +
STACK CFI 73408 .cfa: x29 64 +
STACK CFI 73410 .cfa: sp 64 +
STACK CFI 73420 .cfa: sp 0 +
STACK CFI INIT 73424 160 .cfa: sp 0 +
STACK CFI 73428 .cfa: sp 64 +
STACK CFI 73438 .cfa: x29 64 + x19: .cfa -8 + ^ x20: .cfa -16 + ^ x21: .cfa -24 + ^ x22: .cfa -32 + ^ x23: .cfa -40 + ^ x24: .cfa -48 + ^ .ra: .cfa -56 + ^ x29: .cfa -64 + ^
STACK CFI 73518 .cfa: sp 64 +
STACK CFI 73528 .cfa: sp 0 +
STACK CFI 7352c .cfa: x29 64 +
STACK CFI 73534 .cfa: sp 64 +
STACK CFI 73544 .cfa: sp 0 +
STACK CFI 73548 .cfa: x29 64 +
STACK CFI 73554 .cfa: sp 64 +
STACK CFI 73564 .cfa: sp 0 +
STACK CFI 73568 .cfa: x29 64 +
STACK CFI 73570 .cfa: sp 64 +
STACK CFI 73580 .cfa: sp 0 +
STACK CFI INIT 73b0c 44 .cfa: sp 0 +
STACK CFI 73b10 .cfa: sp 32 +
STACK CFI 73b18 .cfa: x29 32 + x19: .cfa -16 + ^ .ra: .cfa -24 + ^ x29: .cfa -32 + ^
STACK CFI 73b28 .cfa: sp 32 +
STACK CFI 73b30 .cfa: sp 0 +
STACK CFI 73b34 .cfa: x29 32 +
STACK CFI 73b44 .cfa: sp 32 +
STACK CFI 73b4c .cfa: sp 0 +
STACK CFI INIT 742d0 14c .cfa: sp 0 +
STACK CFI 742d4 .cfa: sp 80 +
STACK CFI 742e4 .cfa: x29 32 + x19: .cfa -8 + ^ x20: .cfa -16 + ^ .ra: .cfa -24 + ^ x29: .cfa -32 + ^ v8: .cfa -40 + ^ v9: .cfa -48 + ^
STACK CFI 743a4 .cfa: sp 80 +
STACK CFI 743b4 .cfa: sp 0 +
STACK CFI 743b8 .cfa: x29 32 +
STACK CFI INIT 762ec 20 .cfa: sp 0 +
STACK CFI 762f0 .cfa: sp 16 +
STACK CFI 762f4 .cfa: x29 16 + .ra: .cfa -8 + ^ x29: .cfa -16 + ^
STACK CFI 76304 .cfa: sp 16 +
STACK CFI 76308 .cfa: sp 0 +
STACK CFI INIT 76328 188 .cfa: sp 0 +
STACK CFI 7632c .cfa: sp 48 +
STACK CFI 76338 .cfa: x29 48 + x19: .cfa -8 + ^ x20: .cfa -16 + ^ x21: .cfa -24 + ^ x22: .cfa -32 + ^ .ra: .cfa -40 + ^ x29: .cfa -48 + ^
STACK CFI 764a0 .cfa: sp 48 +
STACK CFI 764ac .cfa: sp 0 +
STACK CFI INIT 7700c 8 .cfa: sp 0 +
STACK CFI INIT 771ac 2c .cfa: sp 0 +
STACK CFI 771b0 .cfa: sp 32 +
STACK CFI 771b8 .cfa: x29 32 + x19: .cfa -16 + ^ .ra: .cfa -24 + ^ x29: .cfa -32 + ^
STACK CFI 771cc .cfa: sp 32 +
STACK CFI 771d4 .cfa: sp 0 +
STACK CFI INIT 771d8 28 .cfa: sp 0 +
STACK CFI INIT 77200 4 .cfa: sp 0 +
STACK CFI INIT 77204 8 .cfa: sp 0 +
STACK CFI INIT 77420 8 .cfa: sp 0 +
STACK CFI INIT 77428 2c .cfa: sp 0 +
STACK CFI INIT 77454 4 .cfa: sp 0 +
STACK CFI INIT 77458 4 .cfa: sp 0 +
STACK CFI INIT 7745c 4 .cfa: sp 0 +
STACK CFI INIT 77460 4 .cfa: sp 0 +
STACK CFI INIT 77464 4 .cfa: sp 0 +
STACK CFI INIT 77468 8 .cfa: sp 0 +
STACK CFI INIT 774dc 4 .cfa: sp 0 +
STACK CFI INIT 7754c 4 .cfa: sp 0 +
STACK CFI INIT 77550 308 .cfa: sp 0 +
STACK CFI 77554 .cfa: sp 128 +
STACK CFI 7756c .cfa: x29 64 + x19: .cfa -8 + ^ x20: .cfa -16 + ^ x21: .cfa -24 + ^ x22: .cfa -32 + ^ x23: .cfa -48 + ^ .ra: .cfa -56 + ^ x29: .cfa -64 + ^ v8: .cfa -72 + ^ v9: .cfa -80 + ^
STACK CFI 777a0 .cfa: sp 128 +
STACK CFI 777b8 .cfa: sp 0 +
STACK CFI 777bc .cfa: x29 64 +
STACK CFI INIT 77858 b4 .cfa: sp 0 +
STACK CFI 7785c .cfa: sp 32 +
STACK CFI 77864 .cfa: x29 32 + x19: .cfa -8 + ^ x20: .cfa -16 + ^ .ra: .cfa -24 + ^ x29: .cfa -32 + ^
STACK CFI 778c8 .cfa: sp 32 +
STACK CFI 778d0 .cfa: sp 0 +
STACK CFI 778d4 .cfa: x29 32 +
STACK CFI 77900 .cfa: sp 32 +
STACK CFI 77908 .cfa: sp 0 +
STACK CFI INIT 7790c 24 .cfa: sp 0 +
STACK CFI 77910 .cfa: sp 32 +
STACK CFI 77918 .cfa: x29 32 + x19: .cfa -16 + ^ .ra: .cfa -24 + ^ x29: .cfa -32 + ^
STACK CFI 77924 .cfa: sp 32 +
STACK CFI 7792c .cfa: sp 0 +
STACK CFI INIT 77930 14 .cfa: sp 0 +
STACK CFI 77934 .cfa: sp 16 +
STACK CFI 77938 .cfa: x29 16 + .ra: .cfa -8 + ^ x29: .cfa -16 + ^
STACK CFI INIT 77944 24 .cfa: sp 0 +
STACK CFI 77948 .cfa: sp 32 +
STACK CFI 77950 .cfa: x29 32 + x19: .cfa -16 + ^ .ra: .cfa -24 + ^ x29: .cfa -32 + ^
STACK CFI 7795c .cfa: sp 32 +
STACK CFI 77964 .cfa: sp 0 +
STACK CFI INIT 77968 18 .cfa: sp 0 +
STACK CFI INIT 77980 4 .cfa: sp 0 +
STACK CFI INIT 77984 200 .cfa: sp 0 +
STACK CFI INIT 77b84 4 .cfa: sp 0 +
STACK CFI INIT 77b88 34 .cfa: sp 0 +
STACK CFI 77b8c .cfa: sp 32 +
STACK CFI 77b94 .cfa: x29 32 + x19: .cfa -16 + ^ .ra: .cfa -24 + ^ x29: .cfa -32 + ^
STACK CFI 77bb0 .cfa: sp 32 +
STACK CFI 77bb8 .cfa: sp 0 +
STACK CFI INIT 77bbc 14 .cfa: sp 0 +
STACK CFI INIT 77bd0 4 .cfa: sp 0 +
STACK CFI INIT 77bd4 4 .cfa: sp 0 +
STACK CFI INIT 77e44 1c .cfa: sp 0 +
STACK CFI INIT 77e60 c .cfa: sp 0 +
STACK CFI INIT 77e6c 60 .cfa: sp 0 +
STACK CFI 77e70 .cfa: sp 32 +
STACK CFI 77e78 .cfa: x29 32 + x19: .cfa -8 + ^ x20: .cfa -16 + ^ .ra: .cfa -24 + ^ x29: .cfa -32 + ^
STACK CFI 77e98 .cfa: sp 32 +
STACK CFI 77ea0 .cfa: sp 0 +
STACK CFI 77ea4 .cfa: x29 32 +
STACK CFI 77ec0 .cfa: sp 32 +
STACK CFI 77ec8 .cfa: sp 0 +
STACK CFI INIT 77ecc 70 .cfa: sp 0 +
STACK CFI 77ed0 .cfa: sp 32 +
STACK CFI 77ed8 .cfa: x29 32 + x19: .cfa -8 + ^ x20: .cfa -16 + ^ .ra: .cfa -24 + ^ x29: .cfa -32 + ^
STACK CFI 77f00 .cfa: sp 32 +
STACK CFI 77f08 .cfa: sp 0 +
STACK CFI 77f0c .cfa: x29 32 +
STACK CFI 77f30 .cfa: sp 32 +
STACK CFI 77f38 .cfa: sp 0 +
STACK CFI INIT 77f3c 10 .cfa: sp 0 +
STACK CFI INIT 77f4c 30 .cfa: sp 0 +
STACK CFI 77f50 .cfa: sp 32 +
STACK CFI 77f58 .cfa: x29 32 + x19: .cfa -16 + ^ .ra: .cfa -24 + ^ x29: .cfa -32 + ^
STACK CFI 77f70 .cfa: sp 32 +
STACK CFI 77f78 .cfa: sp 0 +
STACK CFI INIT 77f7c 4 .cfa: sp 0 +
STACK CFI INIT 77f80 4 .cfa: sp 0 +
STACK CFI INIT 78658 2bc .cfa: sp 0 +
STACK CFI 7865c .cfa: sp 80 +
STACK CFI 78670 .cfa: x29 64 + x19: .cfa -8 + ^ x20: .cfa -16 + ^ x21: .cfa -24 + ^ x22: .cfa -32 + ^ x23: .cfa -40 + ^ x24: .cfa -48 + ^ .ra: .cfa -56 + ^ x29: .cfa -64 + ^ v8: .cfa -80 + ^
STACK CFI 788fc .cfa: sp 80 +
STACK CFI 78910 .cfa: sp 0 +
STACK CFI INIT 7b450 80 .cfa: sp 0 +
STACK CFI 7b454 .cfa: sp 48 +
STACK CFI 7b460 .cfa: x29 48 + x19: .cfa -8 + ^ x20: .cfa -16 + ^ x21: .cfa -32 + ^ .ra: .cfa -40 + ^ x29: .cfa -48 + ^
STACK CFI 7b484 .cfa: sp 48 +
STACK CFI 7b490 .cfa: sp 0 +
STACK CFI 7b494 .cfa: x29 48 +
STACK CFI 7b4c0 .cfa: sp 48 +
STACK CFI 7b4cc .cfa: sp 0 +
STACK CFI INIT 7c2b8 50 .cfa: sp 0 +
STACK CFI 7c2bc .cfa: sp 32 +
STACK CFI 7c2c4 .cfa: x29 32 + x19: .cfa -16 + ^ .ra: .cfa -24 + ^ x29: .cfa -32 + ^
STACK CFI 7c2dc .cfa: sp 32 +
STACK CFI 7c2e4 .cfa: sp 0 +
STACK CFI 7c2e8 .cfa: x29 32 +
STACK CFI 7c2fc .cfa: sp 32 +
STACK CFI 7c304 .cfa: sp 0 +
STACK CFI INIT 7c308 88 .cfa: sp 0 +
STACK CFI 7c30c .cfa: sp 48 +
STACK CFI 7c318 .cfa: x29 32 + x19: .cfa -8 + ^ x20: .cfa -16 + ^ .ra: .cfa -24 + ^ x29: .cfa -32 + ^
STACK CFI 7c358 .cfa: sp 48 +
STACK CFI 7c364 .cfa: sp 0 +
STACK CFI 7c368 .cfa: x29 32 +
STACK CFI 7c37c .cfa: sp 48 +
STACK CFI 7c388 .cfa: sp 0 +
STACK CFI 7c38c .cfa: x29 32 +
STACK CFI INIT 7c390 a0 .cfa: sp 0 +
STACK CFI 7c394 .cfa: sp 48 +
STACK CFI 7c3a0 .cfa: x29 48 + x19: .cfa -8 + ^ x20: .cfa -16 + ^ x21: .cfa -24 + ^ x22: .cfa -32 + ^ .ra: .cfa -40 + ^ x29: .cfa -48 + ^
STACK CFI 7c420 .cfa: sp 48 +
STACK CFI 7c42c .cfa: sp 0 +
STACK CFI INIT 7c430 25c .cfa: sp 0 +
STACK CFI 7c434 .cfa: sp 80 +
STACK CFI 7c448 .cfa: x29 80 + x19: .cfa -8 + ^ x20: .cfa -16 + ^ x21: .cfa -24 + ^ x22: .cfa -32 + ^ x23: .cfa -40 + ^ x24: .cfa -48 + ^ x25: .cfa -56 + ^ x26: .cfa -64 + ^ .ra: .cfa -72 + ^ x29: .cfa -80 + ^
STACK CFI 7c60c .cfa: sp 80 +
STACK CFI 7c620 .cfa: sp 0 +
STACK CFI 7c624 .cfa: sp 80 +
STACK CFI 7c638 .cfa: sp 0 +
STACK CFI 7c63c .cfa: x29 80 +
STACK CFI INIT 7ca44 24 .cfa: sp 0 +
STACK CFI 7ca48 .cfa: sp 16 +
STACK CFI 7ca4c .cfa: x29 16 + .ra: .cfa -8 + ^ x29: .cfa -16 + ^
STACK CFI 7ca60 .cfa: sp 16 +
STACK CFI 7ca64 .cfa: sp 0 +
STACK CFI INIT 7d734 1c .cfa: sp 0 +
STACK CFI INIT 7e764 f0 .cfa: sp 0 +
STACK CFI 7e768 .cfa: sp 64 +
STACK CFI 7e778 .cfa: x29 48 + x19: .cfa -8 + ^ x20: .cfa -16 + ^ x21: .cfa -24 + ^ x22: .cfa -32 + ^ .ra: .cfa -40 + ^ x29: .cfa -48 + ^
STACK CFI 7e83c .cfa: sp 64 +
STACK CFI 7e84c .cfa: sp 0 +
STACK CFI 7e850 .cfa: x29 48 +
STACK CFI INIT 7f038 8 .cfa: sp 0 +
STACK CFI INIT 7f214 24 .cfa: sp 0 +
STACK CFI 7f218 .cfa: sp 32 +
STACK CFI 7f220 .cfa: x29 32 + x19: .cfa -16 + ^ .ra: .cfa -24 + ^ x29: .cfa -32 + ^
STACK CFI 7f22c .cfa: sp 32 +
STACK CFI 7f234 .cfa: sp 0 +
STACK CFI INIT 7f238 2c .cfa: sp 0 +
STACK CFI 7f23c .cfa: sp 32 +
STACK CFI 7f244 .cfa: x29 32 + x19: .cfa -16 + ^ .ra: .cfa -24 + ^ x29: .cfa -32 + ^
STACK CFI 7f258 .cfa: sp 32 +
STACK CFI 7f260 .cfa: sp 0 +
STACK CFI INIT 7f264 28 .cfa: sp 0 +
STACK CFI INIT 7f3d4 8 .cfa: sp 0 +
STACK CFI INIT 7f3dc 28 .cfa: sp 0 +
STACK CFI 7f3e0 .cfa: sp 32 +
STACK CFI 7f3e8 .cfa: x29 32 + x19: .cfa -16 + ^ .ra: .cfa -24 + ^ x29: .cfa -32 + ^
STACK CFI 7f3f8 .cfa: sp 32 +
STACK CFI 7f400 .cfa: sp 0 +
STACK CFI INIT 7f404 2c .cfa: sp 0 +
STACK CFI INIT 7f5a8 2c .cfa: sp 0 +
STACK CFI 7f5ac .cfa: sp 32 +
STACK CFI 7f5b4 .cfa: x29 32 + x19: .cfa -16 + ^ .ra: .cfa -24 + ^ x29: .cfa -32 + ^
STACK CFI 7f5c8 .cfa: sp 32 +
STACK CFI 7f5d0 .cfa: sp 0 +
STACK CFI INIT 7f5d4 28 .cfa: sp 0 +
STACK CFI INIT 7f8c4 2c .cfa: sp 0 +
STACK CFI INIT 80294 70 .cfa: sp 0 +
STACK CFI 80298 .cfa: sp 48 +
STACK CFI 802a4 .cfa: x29 48 + x19: .cfa -8 + ^ x20: .cfa -16 + ^ x21: .cfa -32 + ^ .ra: .cfa -40 + ^ x29: .cfa -48 + ^
STACK CFI 802bc .cfa: sp 48 +
STACK CFI 802c8 .cfa: sp 0 +
STACK CFI 802cc .cfa: x29 48 +
STACK CFI 802f4 .cfa: sp 48 +
STACK CFI 80300 .cfa: sp 0 +
STACK CFI INIT 80304 1ac .cfa: sp 0 +
STACK CFI 80308 .cfa: sp 32 +
STACK CFI 80310 .cfa: x29 32 + x19: .cfa -8 + ^ x20: .cfa -16 + ^ .ra: .cfa -24 + ^ x29: .cfa -32 + ^
STACK CFI 80400 .cfa: sp 32 +
STACK CFI 80408 .cfa: sp 0 +
STACK CFI 8040c .cfa: x29 32 +
STACK CFI INIT 804b0 50 .cfa: sp 0 +
STACK CFI 804d4 .cfa: sp 32 +
STACK CFI 804dc .cfa: x29 32 + x19: .cfa -16 + ^ .ra: .cfa -24 + ^ x29: .cfa -32 + ^
STACK CFI 804f0 .cfa: sp 32 +
STACK CFI 804f8 .cfa: sp 0 +
STACK CFI INIT 80500 a4 .cfa: sp 0 +
STACK CFI 80510 .cfa: sp 48 +
STACK CFI 8051c .cfa: x29 48 + x19: .cfa -8 + ^ x20: .cfa -16 + ^ x21: .cfa -24 + ^ x22: .cfa -32 + ^ .ra: .cfa -40 + ^ x29: .cfa -48 + ^
STACK CFI 80530 .cfa: sp 48 +
STACK CFI 8053c .cfa: sp 0 +
STACK CFI 80540 .cfa: x29 48 +
STACK CFI INIT 805a4 e4 .cfa: sp 0 +
STACK CFI 805a8 .cfa: sp 64 +
STACK CFI 805b8 .cfa: x29 64 + x19: .cfa -8 + ^ x20: .cfa -16 + ^ x21: .cfa -24 + ^ x22: .cfa -32 + ^ x23: .cfa -40 + ^ x24: .cfa -48 + ^ .ra: .cfa -56 + ^ x29: .cfa -64 + ^
STACK CFI 805dc .cfa: sp 64 +
STACK CFI 805ec .cfa: sp 0 +
STACK CFI 805f0 .cfa: x29 64 +
STACK CFI 80660 .cfa: sp 64 +
STACK CFI 80670 .cfa: sp 0 +
STACK CFI 80674 .cfa: sp 64 +
STACK CFI 80684 .cfa: sp 0 +
STACK CFI INIT 807f0 9c .cfa: sp 0 +
STACK CFI 807f4 .cfa: sp 32 +
STACK CFI 807fc .cfa: x29 32 + x19: .cfa -8 + ^ x20: .cfa -16 + ^ .ra: .cfa -24 + ^ x29: .cfa -32 + ^
STACK CFI 80880 .cfa: sp 32 +
STACK CFI 80888 .cfa: sp 0 +
STACK CFI INIT 808f8 4 .cfa: sp 0 +
STACK CFI INIT 80968 4 .cfa: sp 0 +
STACK CFI INIT 80b70 4 .cfa: sp 0 +
STACK CFI INIT 80d40 a4 .cfa: sp 0 +
STACK CFI 80d44 .cfa: sp 32 +
STACK CFI 80d4c .cfa: x29 32 + x19: .cfa -8 + ^ x20: .cfa -16 + ^ .ra: .cfa -24 + ^ x29: .cfa -32 + ^
STACK CFI 80dd8 .cfa: sp 32 +
STACK CFI 80de0 .cfa: sp 0 +
STACK CFI INIT 80de4 50 .cfa: sp 0 +
STACK CFI 80de8 .cfa: sp 32 +
STACK CFI 80df0 .cfa: x29 32 + x19: .cfa -16 + ^ .ra: .cfa -24 + ^ x29: .cfa -32 + ^
STACK CFI 80e08 .cfa: sp 32 +
STACK CFI 80e10 .cfa: sp 0 +
STACK CFI 80e14 .cfa: x29 32 +
STACK CFI 80e28 .cfa: sp 32 +
STACK CFI 80e30 .cfa: sp 0 +
STACK CFI INIT 80e34 50 .cfa: sp 0 +
STACK CFI 80e38 .cfa: sp 32 +
STACK CFI 80e40 .cfa: x29 32 + x19: .cfa -16 + ^ .ra: .cfa -24 + ^ x29: .cfa -32 + ^
STACK CFI 80e58 .cfa: sp 32 +
STACK CFI 80e60 .cfa: sp 0 +
STACK CFI 80e64 .cfa: x29 32 +
STACK CFI 80e78 .cfa: sp 32 +
STACK CFI 80e80 .cfa: sp 0 +
STACK CFI INIT 80e84 5c .cfa: sp 0 +
STACK CFI 80e88 .cfa: sp 32 +
STACK CFI 80e90 .cfa: x29 32 + x19: .cfa -16 + ^ .ra: .cfa -24 + ^ x29: .cfa -32 + ^
STACK CFI 80eb4 .cfa: sp 32 +
STACK CFI 80ebc .cfa: sp 0 +
STACK CFI 80ec0 .cfa: x29 32 +
STACK CFI 80ed4 .cfa: sp 32 +
STACK CFI 80edc .cfa: sp 0 +
STACK CFI INIT 80ee0 6c .cfa: sp 0 +
STACK CFI 80ee4 .cfa: sp 32 +
STACK CFI 80eec .cfa: x29 32 + x19: .cfa -8 + ^ x20: .cfa -16 + ^ .ra: .cfa -24 + ^ x29: .cfa -32 + ^
STACK CFI 80f18 .cfa: sp 32 +
STACK CFI 80f20 .cfa: sp 0 +
STACK CFI 80f24 .cfa: x29 32 +
STACK CFI 80f40 .cfa: sp 32 +
STACK CFI 80f48 .cfa: sp 0 +
STACK CFI INIT 80f4c 58 .cfa: sp 0 +
STACK CFI 80f50 .cfa: sp 32 +
STACK CFI 80f58 .cfa: x29 32 + x19: .cfa -8 + ^ x20: .cfa -16 + ^ .ra: .cfa -24 + ^ x29: .cfa -32 + ^
STACK CFI 80f98 .cfa: sp 32 +
STACK CFI 80fa0 .cfa: sp 0 +
STACK CFI INIT 80fa4 4c .cfa: sp 0 +
STACK CFI 80fa8 .cfa: sp 32 +
STACK CFI 80fb0 .cfa: x29 32 + x19: .cfa -8 + ^ x20: .cfa -16 + ^ .ra: .cfa -24 + ^ x29: .cfa -32 + ^
STACK CFI 80fe4 .cfa: sp 32 +
STACK CFI 80fec .cfa: sp 0 +
STACK CFI INIT 80ff0 50 .cfa: sp 0 +
STACK CFI 80ff4 .cfa: sp 32 +
STACK CFI 80ffc .cfa: x29 32 + x19: .cfa -16 + ^ .ra: .cfa -24 + ^ x29: .cfa -32 + ^
STACK CFI 81014 .cfa: sp 32 +
STACK CFI 8101c .cfa: sp 0 +
STACK CFI 81020 .cfa: x29 32 +
STACK CFI 81034 .cfa: sp 32 +
STACK CFI 8103c .cfa: sp 0 +
STACK CFI INIT 81040 60 .cfa: sp 0 +
STACK CFI 81044 .cfa: sp 32 +
STACK CFI 8104c .cfa: x29 32 + x19: .cfa -8 + ^ x20: .cfa -16 + ^ .ra: .cfa -24 + ^ x29: .cfa -32 + ^
STACK CFI 8106c .cfa: sp 32 +
STACK CFI 81074 .cfa: sp 0 +
STACK CFI 81078 .cfa: x29 32 +
STACK CFI 81094 .cfa: sp 32 +
STACK CFI 8109c .cfa: sp 0 +
STACK CFI INIT 81270 1c .cfa: sp 0 +
STACK CFI INIT 8128c c .cfa: sp 0 +
STACK CFI INIT 81298 60 .cfa: sp 0 +
STACK CFI 8129c .cfa: sp 32 +
STACK CFI 812a4 .cfa: x29 32 + x19: .cfa -8 + ^ x20: .cfa -16 + ^ .ra: .cfa -24 + ^ x29: .cfa -32 + ^
STACK CFI 812c4 .cfa: sp 32 +
STACK CFI 812cc .cfa: sp 0 +
STACK CFI 812d0 .cfa: x29 32 +
STACK CFI 812ec .cfa: sp 32 +
STACK CFI 812f4 .cfa: sp 0 +
STACK CFI INIT 812f8 70 .cfa: sp 0 +
STACK CFI 812fc .cfa: sp 32 +
STACK CFI 81304 .cfa: x29 32 + x19: .cfa -8 + ^ x20: .cfa -16 + ^ .ra: .cfa -24 + ^ x29: .cfa -32 + ^
STACK CFI 8132c .cfa: sp 32 +
STACK CFI 81334 .cfa: sp 0 +
STACK CFI 81338 .cfa: x29 32 +
STACK CFI 8135c .cfa: sp 32 +
STACK CFI 81364 .cfa: sp 0 +
STACK CFI INIT 81368 5c .cfa: sp 0 +
STACK CFI 8136c .cfa: sp 32 +
STACK CFI 81374 .cfa: x29 32 + x19: .cfa -16 + ^ .ra: .cfa -24 + ^ x29: .cfa -32 + ^
STACK CFI 81398 .cfa: sp 32 +
STACK CFI 813a0 .cfa: sp 0 +
STACK CFI 813a4 .cfa: x29 32 +
STACK CFI 813b8 .cfa: sp 32 +
STACK CFI 813c0 .cfa: sp 0 +
STACK CFI INIT 813c4 6c .cfa: sp 0 +
STACK CFI 813c8 .cfa: sp 32 +
STACK CFI 813d0 .cfa: x29 32 + x19: .cfa -8 + ^ x20: .cfa -16 + ^ .ra: .cfa -24 + ^ x29: .cfa -32 + ^
STACK CFI 813fc .cfa: sp 32 +
STACK CFI 81404 .cfa: sp 0 +
STACK CFI 81408 .cfa: x29 32 +
STACK CFI 81424 .cfa: sp 32 +
STACK CFI 8142c .cfa: sp 0 +
STACK CFI INIT 81430 58 .cfa: sp 0 +
STACK CFI 81434 .cfa: sp 32 +
STACK CFI 8143c .cfa: x29 32 + x19: .cfa -8 + ^ x20: .cfa -16 + ^ .ra: .cfa -24 + ^ x29: .cfa -32 + ^
STACK CFI 8147c .cfa: sp 32 +
STACK CFI 81484 .cfa: sp 0 +
STACK CFI INIT 81488 4c .cfa: sp 0 +
STACK CFI 8148c .cfa: sp 32 +
STACK CFI 81494 .cfa: x29 32 + x19: .cfa -8 + ^ x20: .cfa -16 + ^ .ra: .cfa -24 + ^ x29: .cfa -32 + ^
STACK CFI 814c8 .cfa: sp 32 +
STACK CFI 814d0 .cfa: sp 0 +
STACK CFI INIT 814d4 50 .cfa: sp 0 +
STACK CFI 814d8 .cfa: sp 32 +
STACK CFI 814e0 .cfa: x29 32 + x19: .cfa -16 + ^ .ra: .cfa -24 + ^ x29: .cfa -32 + ^
STACK CFI 814f8 .cfa: sp 32 +
STACK CFI 81500 .cfa: sp 0 +
STACK CFI 81504 .cfa: x29 32 +
STACK CFI 81518 .cfa: sp 32 +
STACK CFI 81520 .cfa: sp 0 +
STACK CFI INIT 81524 60 .cfa: sp 0 +
STACK CFI 81528 .cfa: sp 32 +
STACK CFI 81530 .cfa: x29 32 + x19: .cfa -8 + ^ x20: .cfa -16 + ^ .ra: .cfa -24 + ^ x29: .cfa -32 + ^
STACK CFI 81550 .cfa: sp 32 +
STACK CFI 81558 .cfa: sp 0 +
STACK CFI 8155c .cfa: x29 32 +
STACK CFI 81578 .cfa: sp 32 +
STACK CFI 81580 .cfa: sp 0 +
STACK CFI INIT 81748 1c .cfa: sp 0 +
STACK CFI INIT 81764 c .cfa: sp 0 +
STACK CFI INIT 81770 14 .cfa: sp 0 +
STACK CFI 81774 .cfa: sp 16 +
STACK CFI 81778 .cfa: x29 16 + .ra: .cfa -8 + ^ x29: .cfa -16 + ^
STACK CFI INIT 817f0 4 .cfa: sp 0 +
STACK CFI INIT 81860 4 .cfa: sp 0 +
STACK CFI INIT 81864 88 .cfa: sp 0 +
STACK CFI 8186c .cfa: sp 48 +
STACK CFI 81878 .cfa: x29 48 + x19: .cfa -8 + ^ x20: .cfa -16 + ^ x21: .cfa -24 + ^ x22: .cfa -32 + ^ .ra: .cfa -40 + ^ x29: .cfa -48 + ^
STACK CFI 818dc .cfa: sp 48 +
STACK CFI 818e8 .cfa: sp 0 +
STACK CFI INIT 818ec 168 .cfa: sp 0 +
STACK CFI 818f0 .cfa: sp 32 +
STACK CFI 818f8 .cfa: x29 32 + x19: .cfa -8 + ^ x20: .cfa -16 + ^ .ra: .cfa -24 + ^ x29: .cfa -32 + ^
STACK CFI 81a20 .cfa: sp 32 +
STACK CFI 81a28 .cfa: sp 0 +
STACK CFI 81a2c .cfa: x29 32 +
STACK CFI 81a48 .cfa: sp 32 +
STACK CFI 81a50 .cfa: sp 0 +
STACK CFI INIT 81a54 24 .cfa: sp 0 +
STACK CFI 81a58 .cfa: sp 32 +
STACK CFI 81a60 .cfa: x29 32 + x19: .cfa -16 + ^ .ra: .cfa -24 + ^ x29: .cfa -32 + ^
STACK CFI 81a6c .cfa: sp 32 +
STACK CFI 81a74 .cfa: sp 0 +
STACK CFI INIT 81a78 4 .cfa: sp 0 +
STACK CFI INIT 81a7c 38 .cfa: sp 0 +
STACK CFI 81a80 .cfa: sp 32 +
STACK CFI 81a88 .cfa: x29 32 + x19: .cfa -16 + ^ .ra: .cfa -24 + ^ x29: .cfa -32 + ^
STACK CFI 81aa8 .cfa: sp 32 +
STACK CFI 81ab0 .cfa: sp 0 +
STACK CFI INIT 81ab4 18 .cfa: sp 0 +
STACK CFI INIT 81acc 4 .cfa: sp 0 +
STACK CFI INIT 81ad0 4 .cfa: sp 0 +
STACK CFI INIT 82084 1c .cfa: sp 0 +
STACK CFI INIT 820a0 c .cfa: sp 0 +
STACK CFI INIT 820ac 14 .cfa: sp 0 +
STACK CFI 820b0 .cfa: sp 16 +
STACK CFI 820b4 .cfa: x29 16 + .ra: .cfa -8 + ^ x29: .cfa -16 + ^
STACK CFI INIT 820c0 4 .cfa: sp 0 +
STACK CFI INIT 820c4 4 .cfa: sp 0 +
STACK CFI INIT 820c8 40 .cfa: sp 0 +
STACK CFI 820cc .cfa: sp 32 +
STACK CFI 820d4 .cfa: x29 32 + x19: .cfa -16 + ^ .ra: .cfa -24 + ^ x29: .cfa -32 + ^
STACK CFI 820fc .cfa: sp 32 +
STACK CFI 82104 .cfa: sp 0 +
STACK CFI INIT 82108 20 .cfa: sp 0 +
STACK CFI INIT 82128 4 .cfa: sp 0 +
STACK CFI INIT 8212c 4 .cfa: sp 0 +
STACK CFI INIT 82130 20 .cfa: sp 0 +
STACK CFI INIT 82150 1c .cfa: sp 0 +
STACK CFI INIT 8216c c .cfa: sp 0 +
STACK CFI INIT 82178 314 .cfa: sp 0 +
STACK CFI 8217c .cfa: sp 128 +
STACK CFI 82194 .cfa: x29 64 + x19: .cfa -8 + ^ x20: .cfa -16 + ^ x21: .cfa -24 + ^ x22: .cfa -32 + ^ x23: .cfa -40 + ^ x24: .cfa -48 + ^ .ra: .cfa -56 + ^ x29: .cfa -64 + ^ v8: .cfa -72 + ^ v9: .cfa -80 + ^
STACK CFI 823d0 .cfa: sp 128 +
STACK CFI 823e8 .cfa: sp 0 +
STACK CFI 823ec .cfa: x29 64 +
STACK CFI INIT 8248c 60 .cfa: sp 0 +
STACK CFI 82490 .cfa: sp 32 +
STACK CFI 82498 .cfa: x29 32 + x19: .cfa -8 + ^ x20: .cfa -16 + ^ .ra: .cfa -24 + ^ x29: .cfa -32 + ^
STACK CFI 824b8 .cfa: sp 32 +
STACK CFI 824c0 .cfa: sp 0 +
STACK CFI 824c4 .cfa: x29 32 +
STACK CFI 824e0 .cfa: sp 32 +
STACK CFI 824e8 .cfa: sp 0 +
STACK CFI INIT 824ec 70 .cfa: sp 0 +
STACK CFI 824f0 .cfa: sp 32 +
STACK CFI 824f8 .cfa: x29 32 + x19: .cfa -8 + ^ x20: .cfa -16 + ^ .ra: .cfa -24 + ^ x29: .cfa -32 + ^
STACK CFI 82520 .cfa: sp 32 +
STACK CFI 82528 .cfa: sp 0 +
STACK CFI 8252c .cfa: x29 32 +
STACK CFI 82550 .cfa: sp 32 +
STACK CFI 82558 .cfa: sp 0 +
STACK CFI INIT 8255c 10 .cfa: sp 0 +
STACK CFI INIT 8256c 30 .cfa: sp 0 +
STACK CFI 82570 .cfa: sp 32 +
STACK CFI 82578 .cfa: x29 32 + x19: .cfa -16 + ^ .ra: .cfa -24 + ^ x29: .cfa -32 + ^
STACK CFI 82590 .cfa: sp 32 +
STACK CFI 82598 .cfa: sp 0 +
STACK CFI INIT 8259c 4 .cfa: sp 0 +
STACK CFI INIT 825a0 4 .cfa: sp 0 +
STACK CFI INIT 825a4 4 .cfa: sp 0 +
STACK CFI INIT 825a8 4 .cfa: sp 0 +
STACK CFI INIT 825ac 34 .cfa: sp 0 +
STACK CFI 825b0 .cfa: sp 32 +
STACK CFI 825b8 .cfa: x29 32 + x19: .cfa -16 + ^ .ra: .cfa -24 + ^ x29: .cfa -32 + ^
STACK CFI 825d4 .cfa: sp 32 +
STACK CFI 825dc .cfa: sp 0 +
STACK CFI INIT 825e0 14 .cfa: sp 0 +
STACK CFI INIT 825f4 4 .cfa: sp 0 +
STACK CFI INIT 825f8 4 .cfa: sp 0 +
STACK CFI INIT 82a18 1c .cfa: sp 0 +
STACK CFI INIT 82a34 c .cfa: sp 0 +
STACK CFI INIT 82a40 60 .cfa: sp 0 +
STACK CFI 82a44 .cfa: sp 32 +
STACK CFI 82a4c .cfa: x29 32 + x19: .cfa -8 + ^ x20: .cfa -16 + ^ .ra: .cfa -24 + ^ x29: .cfa -32 + ^
STACK CFI 82a6c .cfa: sp 32 +
STACK CFI 82a74 .cfa: sp 0 +
STACK CFI 82a78 .cfa: x29 32 +
STACK CFI 82a94 .cfa: sp 32 +
STACK CFI 82a9c .cfa: sp 0 +
STACK CFI INIT 82aa0 70 .cfa: sp 0 +
STACK CFI 82aa4 .cfa: sp 32 +
STACK CFI 82aac .cfa: x29 32 + x19: .cfa -8 + ^ x20: .cfa -16 + ^ .ra: .cfa -24 + ^ x29: .cfa -32 + ^
STACK CFI 82ad4 .cfa: sp 32 +
STACK CFI 82adc .cfa: sp 0 +
STACK CFI 82ae0 .cfa: x29 32 +
STACK CFI 82b04 .cfa: sp 32 +
STACK CFI 82b0c .cfa: sp 0 +
STACK CFI INIT 82b10 10 .cfa: sp 0 +
STACK CFI INIT 82b20 30 .cfa: sp 0 +
STACK CFI 82b24 .cfa: sp 32 +
STACK CFI 82b2c .cfa: x29 32 + x19: .cfa -16 + ^ .ra: .cfa -24 + ^ x29: .cfa -32 + ^
STACK CFI 82b44 .cfa: sp 32 +
STACK CFI 82b4c .cfa: sp 0 +
STACK CFI INIT 82b50 4 .cfa: sp 0 +
STACK CFI INIT 82b54 4 .cfa: sp 0 +
STACK CFI INIT 83c38 174 .cfa: sp 0 +
STACK CFI 83c3c .cfa: sp 48 +
STACK CFI 83c48 .cfa: x29 48 + x19: .cfa -8 + ^ x20: .cfa -16 + ^ x21: .cfa -24 + ^ x22: .cfa -32 + ^ .ra: .cfa -40 + ^ x29: .cfa -48 + ^
STACK CFI 83d9c .cfa: sp 48 +
STACK CFI 83da8 .cfa: sp 0 +
STACK CFI INIT 83f00 24 .cfa: sp 0 +
STACK CFI 83f04 .cfa: sp 32 +
STACK CFI 83f0c .cfa: x29 32 + x19: .cfa -16 + ^ .ra: .cfa -24 + ^ x29: .cfa -32 + ^
STACK CFI 83f18 .cfa: sp 32 +
STACK CFI 83f20 .cfa: sp 0 +
STACK CFI INIT 85148 24 .cfa: sp 0 +
STACK CFI 8514c .cfa: sp 32 +
STACK CFI 85154 .cfa: x29 32 + x19: .cfa -16 + ^ .ra: .cfa -24 + ^ x29: .cfa -32 + ^
STACK CFI 85160 .cfa: sp 32 +
STACK CFI 85168 .cfa: sp 0 +
STACK CFI INIT 85550 3c .cfa: sp 0 +
STACK CFI 85554 .cfa: sp 32 +
STACK CFI 8555c .cfa: x29 32 + x19: .cfa -16 + ^ .ra: .cfa -24 + ^ x29: .cfa -32 + ^
STACK CFI 85568 .cfa: sp 32 +
STACK CFI 85570 .cfa: sp 0 +
STACK CFI 85574 .cfa: x29 32 +
STACK CFI 85580 .cfa: sp 32 +
STACK CFI 85588 .cfa: sp 0 +
STACK CFI INIT 8558c 4c .cfa: sp 0 +
STACK CFI 85590 .cfa: sp 32 +
STACK CFI 85598 .cfa: x29 32 + x19: .cfa -8 + ^ x20: .cfa -16 + ^ .ra: .cfa -24 + ^ x29: .cfa -32 + ^
STACK CFI 855c0 .cfa: sp 32 +
STACK CFI 855c8 .cfa: sp 0 +
STACK CFI 855cc .cfa: sp 32 +
STACK CFI 855d4 .cfa: sp 0 +
STACK CFI INIT 857f8 64 .cfa: sp 0 +
STACK CFI 857fc .cfa: sp 32 +
STACK CFI 85804 .cfa: x29 32 + x19: .cfa -16 + ^ .ra: .cfa -24 + ^ x29: .cfa -32 + ^
STACK CFI 85830 .cfa: sp 32 +
STACK CFI 85838 .cfa: sp 0 +
STACK CFI 8583c .cfa: x29 32 +
STACK CFI 85850 .cfa: sp 32 +
STACK CFI 85858 .cfa: sp 0 +
STACK CFI INIT 85a80 24 .cfa: sp 0 +
STACK CFI 85a84 .cfa: sp 32 +
STACK CFI 85a8c .cfa: x29 32 + x19: .cfa -16 + ^ .ra: .cfa -24 + ^ x29: .cfa -32 + ^
STACK CFI 85a98 .cfa: sp 32 +
STACK CFI 85aa0 .cfa: sp 0 +
STACK CFI INIT 85d00 24 .cfa: sp 0 +
STACK CFI 85d04 .cfa: sp 32 +
STACK CFI 85d0c .cfa: x29 32 + x19: .cfa -16 + ^ .ra: .cfa -24 + ^ x29: .cfa -32 + ^
STACK CFI 85d18 .cfa: sp 32 +
STACK CFI 85d20 .cfa: sp 0 +
STACK CFI INIT 85d24 8 .cfa: sp 0 +
STACK CFI INIT 85d2c 24 .cfa: sp 0 +
STACK CFI 85d30 .cfa: sp 32 +
STACK CFI 85d38 .cfa: x29 32 + x19: .cfa -16 + ^ .ra: .cfa -24 + ^ x29: .cfa -32 + ^
STACK CFI 85d44 .cfa: sp 32 +
STACK CFI 85d4c .cfa: sp 0 +
STACK CFI INIT 85d50 28 .cfa: sp 0 +
STACK CFI 85d54 .cfa: sp 32 +
STACK CFI 85d5c .cfa: x29 32 + x19: .cfa -16 + ^ .ra: .cfa -24 + ^ x29: .cfa -32 + ^
STACK CFI 85d6c .cfa: sp 32 +
STACK CFI 85d74 .cfa: sp 0 +
STACK CFI INIT 86078 8 .cfa: sp 0 +
STACK CFI INIT 86080 24 .cfa: sp 0 +
STACK CFI 86084 .cfa: sp 32 +
STACK CFI 8608c .cfa: x29 32 + x19: .cfa -16 + ^ .ra: .cfa -24 + ^ x29: .cfa -32 + ^
STACK CFI 86098 .cfa: sp 32 +
STACK CFI 860a0 .cfa: sp 0 +
STACK CFI INIT 860a4 28 .cfa: sp 0 +
STACK CFI 860a8 .cfa: sp 32 +
STACK CFI 860b0 .cfa: x29 32 + x19: .cfa -16 + ^ .ra: .cfa -24 + ^ x29: .cfa -32 + ^
STACK CFI 860c0 .cfa: sp 32 +
STACK CFI 860c8 .cfa: sp 0 +
STACK CFI INIT 86330 8 .cfa: sp 0 +
STACK CFI INIT 86338 24 .cfa: sp 0 +
STACK CFI 8633c .cfa: sp 32 +
STACK CFI 86344 .cfa: x29 32 + x19: .cfa -16 + ^ .ra: .cfa -24 + ^ x29: .cfa -32 + ^
STACK CFI 86350 .cfa: sp 32 +
STACK CFI 86358 .cfa: sp 0 +
STACK CFI INIT 8635c 28 .cfa: sp 0 +
STACK CFI 86360 .cfa: sp 32 +
STACK CFI 86368 .cfa: x29 32 + x19: .cfa -16 + ^ .ra: .cfa -24 + ^ x29: .cfa -32 + ^
STACK CFI 86378 .cfa: sp 32 +
STACK CFI 86380 .cfa: sp 0 +
STACK CFI INIT 86384 8 .cfa: sp 0 +
STACK CFI INIT 8638c 24 .cfa: sp 0 +
STACK CFI 86390 .cfa: sp 32 +
STACK CFI 86398 .cfa: x29 32 + x19: .cfa -16 + ^ .ra: .cfa -24 + ^ x29: .cfa -32 + ^
STACK CFI 863a4 .cfa: sp 32 +
STACK CFI 863ac .cfa: sp 0 +
STACK CFI INIT 863b0 28 .cfa: sp 0 +
STACK CFI 863b4 .cfa: sp 32 +
STACK CFI 863bc .cfa: x29 32 + x19: .cfa -16 + ^ .ra: .cfa -24 + ^ x29: .cfa -32 + ^
STACK CFI 863cc .cfa: sp 32 +
STACK CFI 863d4 .cfa: sp 0 +
STACK CFI INIT 880bc 4 .cfa: sp 0 +
STACK CFI INIT 880c0 14 .cfa: sp 0 +
STACK CFI INIT 885e0 c .cfa: sp 0 +
STACK CFI INIT 885ec 24c .cfa: sp 0 +
STACK CFI INIT 88838 a0 .cfa: sp 0 +
STACK CFI 88844 .cfa: sp 32 +
STACK CFI 8889c .cfa: sp 0 +
STACK CFI 888a0 .cfa: sp 32 +
STACK CFI 888a8 .cfa: sp 0 +
STACK CFI 888ac .cfa: sp 32 +
STACK CFI 888c0 .cfa: sp 0 +
STACK CFI 888c4 .cfa: sp 32 +
STACK CFI 888d4 .cfa: sp 0 +
STACK CFI INIT 888d8 38 .cfa: sp 0 +
STACK CFI 888e4 .cfa: sp 32 +
STACK CFI 8890c .cfa: sp 0 +
STACK CFI INIT 88ba4 7c .cfa: sp 0 +
STACK CFI 88ba8 .cfa: sp 32 +
STACK CFI 88bb0 .cfa: x29 32 + x19: .cfa -16 + ^ .ra: .cfa -24 + ^ x29: .cfa -32 + ^
STACK CFI 88bdc .cfa: sp 32 +
STACK CFI 88be4 .cfa: sp 0 +
STACK CFI 88be8 .cfa: x29 32 +
STACK CFI 88c14 .cfa: sp 32 +
STACK CFI 88c1c .cfa: sp 0 +
STACK CFI INIT 88c70 2c .cfa: sp 0 +
STACK CFI 88c74 .cfa: sp 32 +
STACK CFI 88c7c .cfa: x29 32 + x19: .cfa -16 + ^ .ra: .cfa -24 + ^ x29: .cfa -32 + ^
STACK CFI 88c90 .cfa: sp 32 +
STACK CFI 88c98 .cfa: sp 0 +
STACK CFI INIT 8945c 64 .cfa: sp 0 +
STACK CFI 89460 .cfa: sp 32 +
STACK CFI 89468 .cfa: x29 32 + x19: .cfa -16 + ^ .ra: .cfa -24 + ^ x29: .cfa -32 + ^
STACK CFI 89484 .cfa: sp 32 +
STACK CFI 8948c .cfa: sp 0 +
STACK CFI 89490 .cfa: x29 32 +
STACK CFI 894b4 .cfa: sp 32 +
STACK CFI 894bc .cfa: sp 0 +
STACK CFI INIT 894c0 570 .cfa: sp 0 +
STACK CFI 894c4 .cfa: sp 176 +
STACK CFI 894d8 .cfa: x29 64 + x19: .cfa -8 + ^ x20: .cfa -16 + ^ x21: .cfa -24 + ^ x22: .cfa -32 + ^ x23: .cfa -40 + ^ x24: .cfa -48 + ^ .ra: .cfa -56 + ^ x29: .cfa -64 + ^
STACK CFI 89708 .cfa: sp 176 +
STACK CFI 8971c .cfa: sp 0 +
STACK CFI 89720 .cfa: x29 64 +
STACK CFI 8976c .cfa: sp 176 +
STACK CFI 89780 .cfa: sp 0 +
STACK CFI 89784 .cfa: x29 64 +
STACK CFI 897bc .cfa: sp 176 +
STACK CFI 897d0 .cfa: sp 0 +
STACK CFI 897d4 .cfa: x29 64 +
STACK CFI 897ec .cfa: sp 176 +
STACK CFI 89800 .cfa: sp 0 +
STACK CFI 89804 .cfa: x29 64 +
STACK CFI 89824 .cfa: sp 176 +
STACK CFI 89838 .cfa: sp 0 +
STACK CFI 8983c .cfa: x29 64 +
STACK CFI 89854 .cfa: sp 176 +
STACK CFI 89868 .cfa: sp 0 +
STACK CFI 8986c .cfa: x29 64 +
STACK CFI 89880 .cfa: sp 176 +
STACK CFI 89894 .cfa: sp 0 +
STACK CFI 89898 .cfa: x29 64 +
STACK CFI 898ac .cfa: sp 176 +
STACK CFI 898c0 .cfa: sp 0 +
STACK CFI 898c4 .cfa: x29 64 +
STACK CFI 898d4 .cfa: sp 176 +
STACK CFI 898e8 .cfa: sp 0 +
STACK CFI 898ec .cfa: x29 64 +
STACK CFI 898fc .cfa: sp 176 +
STACK CFI 89910 .cfa: sp 0 +
STACK CFI 89914 .cfa: x29 64 +
STACK CFI 8992c .cfa: sp 176 +
STACK CFI 89940 .cfa: sp 0 +
STACK CFI 89944 .cfa: x29 64 +
STACK CFI 89958 .cfa: sp 176 +
STACK CFI 8996c .cfa: sp 0 +
STACK CFI 89970 .cfa: x29 64 +
STACK CFI 89988 .cfa: sp 176 +
STACK CFI 8999c .cfa: sp 0 +
STACK CFI 899a0 .cfa: x29 64 +
STACK CFI 899cc .cfa: sp 176 +
STACK CFI 899e0 .cfa: sp 0 +
STACK CFI 899e4 .cfa: x29 64 +
STACK CFI 899f8 .cfa: sp 176 +
STACK CFI 89a0c .cfa: sp 0 +
STACK CFI 89a10 .cfa: x29 64 +
STACK CFI INIT 89a30 228 .cfa: sp 0 +
STACK CFI INIT 89c58 2dc .cfa: sp 0 +
STACK CFI INIT 89f34 53c .cfa: sp 0 +
STACK CFI INIT 8a470 78 .cfa: sp 0 +
STACK CFI 8a474 .cfa: sp 48 +
STACK CFI 8a480 .cfa: x29 48 + x19: .cfa -8 + ^ x20: .cfa -16 + ^ x21: .cfa -24 + ^ x22: .cfa -32 + ^ .ra: .cfa -40 + ^ x29: .cfa -48 + ^
STACK CFI 8a4c8 .cfa: sp 48 +
STACK CFI 8a4d4 .cfa: sp 0 +
STACK CFI 8a4d8 .cfa: sp 48 +
STACK CFI 8a4e4 .cfa: sp 0 +
STACK CFI INIT 8a4e8 8c .cfa: sp 0 +
STACK CFI 8a4ec .cfa: sp 32 +
STACK CFI 8a4f4 .cfa: x29 32 + x19: .cfa -16 + ^ .ra: .cfa -24 + ^ x29: .cfa -32 + ^
STACK CFI 8a528 .cfa: sp 32 +
STACK CFI 8a530 .cfa: sp 0 +
STACK CFI 8a534 .cfa: x29 32 +
STACK CFI 8a568 .cfa: sp 32 +
STACK CFI 8a570 .cfa: sp 0 +
STACK CFI INIT 8a574 24 .cfa: sp 0 +
STACK CFI 8a578 .cfa: sp 32 +
STACK CFI 8a580 .cfa: x29 32 + x19: .cfa -16 + ^ .ra: .cfa -24 + ^ x29: .cfa -32 + ^
STACK CFI 8a58c .cfa: sp 32 +
STACK CFI 8a594 .cfa: sp 0 +
STACK CFI INIT 8a598 150 .cfa: sp 0 +
STACK CFI 8a59c .cfa: sp 48 +
STACK CFI 8a5a8 .cfa: x29 48 + x19: .cfa -8 + ^ x20: .cfa -16 + ^ x21: .cfa -24 + ^ x22: .cfa -32 + ^ .ra: .cfa -40 + ^ x29: .cfa -48 + ^
STACK CFI 8a6d8 .cfa: sp 48 +
STACK CFI 8a6e4 .cfa: sp 0 +
STACK CFI INIT 8a6e8 68 .cfa: sp 0 +
STACK CFI 8a6ec .cfa: sp 64 +
STACK CFI 8a6f8 .cfa: x29 32 + x19: .cfa -16 + ^ .ra: .cfa -24 + ^ x29: .cfa -32 + ^
STACK CFI 8a73c .cfa: sp 64 +
STACK CFI 8a748 .cfa: sp 0 +
STACK CFI 8a74c .cfa: x29 32 +
STACK CFI INIT 8a750 90 .cfa: sp 0 +
STACK CFI 8a754 .cfa: sp 32 +
STACK CFI 8a75c .cfa: x29 32 + x19: .cfa -8 + ^ x20: .cfa -16 + ^ .ra: .cfa -24 + ^ x29: .cfa -32 + ^
STACK CFI 8a788 .cfa: sp 32 +
STACK CFI 8a790 .cfa: sp 0 +
STACK CFI 8a794 .cfa: x29 32 +
STACK CFI 8a7d4 .cfa: sp 32 +
STACK CFI 8a7dc .cfa: sp 0 +
STACK CFI INIT 8a7e0 ec .cfa: sp 0 +
STACK CFI 8a7e4 .cfa: sp 112 +
STACK CFI 8a7f4 .cfa: x29 48 + x19: .cfa -8 + ^ x20: .cfa -16 + ^ x21: .cfa -32 + ^ .ra: .cfa -40 + ^ x29: .cfa -48 + ^
STACK CFI 8a8b4 .cfa: sp 112 +
STACK CFI 8a8c4 .cfa: sp 0 +
STACK CFI 8a8c8 .cfa: x29 48 +
STACK CFI INIT 8a8cc ec .cfa: sp 0 +
STACK CFI 8a8d0 .cfa: sp 112 +
STACK CFI 8a8e0 .cfa: x29 48 + x19: .cfa -8 + ^ x20: .cfa -16 + ^ x21: .cfa -32 + ^ .ra: .cfa -40 + ^ x29: .cfa -48 + ^
STACK CFI 8a9a0 .cfa: sp 112 +
STACK CFI 8a9b0 .cfa: sp 0 +
STACK CFI 8a9b4 .cfa: x29 48 +
STACK CFI INIT 8a9b8 48 .cfa: sp 0 +
STACK CFI 8a9bc .cfa: sp 32 +
STACK CFI 8a9c4 .cfa: x29 32 + x19: .cfa -8 + ^ x20: .cfa -16 + ^ .ra: .cfa -24 + ^ x29: .cfa -32 + ^
STACK CFI 8a9e8 .cfa: sp 32 +
STACK CFI 8a9f0 .cfa: sp 0 +
STACK CFI 8a9f4 .cfa: x29 32 +
STACK CFI INIT 8aa00 98 .cfa: sp 0 +
STACK CFI 8aa04 .cfa: sp 80 +
STACK CFI 8aa10 .cfa: x29 32 + x19: .cfa -16 + ^ .ra: .cfa -24 + ^ x29: .cfa -32 + ^
STACK CFI 8aa84 .cfa: sp 80 +
STACK CFI 8aa90 .cfa: sp 0 +
STACK CFI 8aa94 .cfa: x29 32 +
STACK CFI INIT 8aa98 260 .cfa: sp 0 +
STACK CFI 8aa9c .cfa: sp 112 +
STACK CFI 8aab4 .cfa: x29 80 + x19: .cfa -8 + ^ x20: .cfa -16 + ^ x21: .cfa -24 + ^ x22: .cfa -32 + ^ x23: .cfa -40 + ^ x24: .cfa -48 + ^ x25: .cfa -64 + ^ .ra: .cfa -72 + ^ x29: .cfa -80 + ^
STACK CFI 8ac98 .cfa: sp 112 +
STACK CFI 8acb0 .cfa: sp 0 +
STACK CFI 8acb4 .cfa: x29 80 +
STACK CFI INIT 8acf8 150 .cfa: sp 0 +
STACK CFI 8acfc .cfa: sp 48 +
STACK CFI 8ad08 .cfa: x29 48 + x19: .cfa -8 + ^ x20: .cfa -16 + ^ x21: .cfa -24 + ^ x22: .cfa -32 + ^ .ra: .cfa -40 + ^ x29: .cfa -48 + ^
STACK CFI 8ae38 .cfa: sp 48 +
STACK CFI 8ae44 .cfa: sp 0 +
STACK CFI INIT 8ae48 1e0 .cfa: sp 0 +
STACK CFI 8ae4c .cfa: sp 96 +
STACK CFI 8ae60 .cfa: x29 64 + x19: .cfa -8 + ^ x20: .cfa -16 + ^ x21: .cfa -24 + ^ x22: .cfa -32 + ^ x23: .cfa -40 + ^ x24: .cfa -48 + ^ .ra: .cfa -56 + ^ x29: .cfa -64 + ^
STACK CFI 8afe0 .cfa: sp 96 +
STACK CFI 8aff4 .cfa: sp 0 +
STACK CFI 8aff8 .cfa: x29 64 +
STACK CFI INIT 8b028 284 .cfa: sp 0 +
STACK CFI 8b02c .cfa: sp 112 +
STACK CFI 8b044 .cfa: x29 80 + x19: .cfa -8 + ^ x20: .cfa -16 + ^ x21: .cfa -24 + ^ x22: .cfa -32 + ^ x23: .cfa -40 + ^ x24: .cfa -48 + ^ x25: .cfa -64 + ^ .ra: .cfa -72 + ^ x29: .cfa -80 + ^
STACK CFI 8b24c .cfa: sp 112 +
STACK CFI 8b264 .cfa: sp 0 +
STACK CFI 8b268 .cfa: x29 80 +
STACK CFI INIT 8b2ac 208 .cfa: sp 0 +
STACK CFI 8b2b0 .cfa: sp 96 +
STACK CFI 8b2c4 .cfa: x29 64 + x19: .cfa -8 + ^ x20: .cfa -16 + ^ x21: .cfa -24 + ^ x22: .cfa -32 + ^ x23: .cfa -40 + ^ x24: .cfa -48 + ^ .ra: .cfa -56 + ^ x29: .cfa -64 + ^
STACK CFI 8b46c .cfa: sp 96 +
STACK CFI 8b480 .cfa: sp 0 +
STACK CFI 8b484 .cfa: x29 64 +
STACK CFI INIT 8b4b4 360 .cfa: sp 0 +
STACK CFI 8b4b8 .cfa: sp 160 +
STACK CFI 8b4d4 .cfa: x29 96 + x19: .cfa -8 + ^ x20: .cfa -16 + ^ x21: .cfa -24 + ^ x22: .cfa -32 + ^ x23: .cfa -40 + ^ x24: .cfa -48 + ^ x25: .cfa -56 + ^ x26: .cfa -64 + ^ x27: .cfa -72 + ^ x28: .cfa -80 + ^ .ra: .cfa -88 + ^ x29: .cfa -96 + ^
STACK CFI 8b7a0 .cfa: sp 160 +
STACK CFI 8b7bc .cfa: sp 0 +
STACK CFI 8b7c0 .cfa: x29 96 +
STACK CFI INIT 8b814 314 .cfa: sp 0 +
STACK CFI 8b818 .cfa: sp 144 +
STACK CFI 8b834 .cfa: x29 96 + x19: .cfa -8 + ^ x20: .cfa -16 + ^ x21: .cfa -24 + ^ x22: .cfa -32 + ^ x23: .cfa -40 + ^ x24: .cfa -48 + ^ x25: .cfa -56 + ^ x26: .cfa -64 + ^ x27: .cfa -72 + ^ x28: .cfa -80 + ^ .ra: .cfa -88 + ^ x29: .cfa -96 + ^
STACK CFI 8bab0 .cfa: sp 144 +
STACK CFI 8bacc .cfa: sp 0 +
STACK CFI 8bad0 .cfa: x29 96 +
STACK CFI INIT 8bb28 290 .cfa: sp 0 +
STACK CFI 8bb2c .cfa: sp 128 +
STACK CFI 8bb44 .cfa: x29 80 + x19: .cfa -8 + ^ x20: .cfa -16 + ^ x21: .cfa -24 + ^ x22: .cfa -32 + ^ x23: .cfa -40 + ^ x24: .cfa -48 + ^ x25: .cfa -56 + ^ x26: .cfa -64 + ^ .ra: .cfa -72 + ^ x29: .cfa -80 + ^
STACK CFI 8bd98 .cfa: sp 128 +
STACK CFI 8bdb0 .cfa: sp 0 +
STACK CFI 8bdb4 .cfa: x29 80 +
STACK CFI INIT 8bdb8 ddc .cfa: sp 0 +
STACK CFI 8bdbc .cfa: sp 144 +
STACK CFI 8bdd8 .cfa: x29 96 + x19: .cfa -8 + ^ x20: .cfa -16 + ^ x21: .cfa -24 + ^ x22: .cfa -32 + ^ x23: .cfa -40 + ^ x24: .cfa -48 + ^ x25: .cfa -56 + ^ x26: .cfa -64 + ^ x27: .cfa -72 + ^ x28: .cfa -80 + ^ .ra: .cfa -88 + ^ x29: .cfa -96 + ^
STACK CFI 8ca6c .cfa: sp 144 +
STACK CFI 8ca88 .cfa: sp 0 +
STACK CFI 8ca8c .cfa: x29 96 +
STACK CFI INIT 8cb94 1d0 .cfa: sp 0 +
STACK CFI 8cb98 .cfa: sp 80 +
STACK CFI 8cbac .cfa: x29 80 + x19: .cfa -8 + ^ x20: .cfa -16 + ^ x21: .cfa -24 + ^ x22: .cfa -32 + ^ x23: .cfa -40 + ^ x24: .cfa -48 + ^ x25: .cfa -64 + ^ .ra: .cfa -72 + ^ x29: .cfa -80 + ^
STACK CFI 8cd4c .cfa: sp 80 +
STACK CFI 8cd60 .cfa: sp 0 +
STACK CFI INIT 8cd64 23c .cfa: sp 0 +
STACK CFI 8cd68 .cfa: sp 112 +
STACK CFI 8cd7c .cfa: x29 64 + x19: .cfa -8 + ^ x20: .cfa -16 + ^ x21: .cfa -24 + ^ x22: .cfa -32 + ^ x23: .cfa -40 + ^ x24: .cfa -48 + ^ .ra: .cfa -56 + ^ x29: .cfa -64 + ^
STACK CFI 8cf58 .cfa: sp 112 +
STACK CFI 8cf6c .cfa: sp 0 +
STACK CFI 8cf70 .cfa: x29 64 +
STACK CFI INIT 8cfa0 30c .cfa: sp 0 +
STACK CFI 8cfa4 .cfa: sp 80 +
STACK CFI 8cfb8 .cfa: x29 64 + x19: .cfa -8 + ^ x20: .cfa -16 + ^ x21: .cfa -24 + ^ x22: .cfa -32 + ^ x23: .cfa -40 + ^ x24: .cfa -48 + ^ .ra: .cfa -56 + ^ x29: .cfa -64 + ^
STACK CFI 8d134 .cfa: sp 80 +
STACK CFI 8d148 .cfa: sp 0 +
STACK CFI 8d14c .cfa: x29 64 +
STACK CFI INIT 8d2ac 178 .cfa: sp 0 +
STACK CFI 8d2b0 .cfa: sp 80 +
STACK CFI 8d2c4 .cfa: x29 64 + x19: .cfa -8 + ^ x20: .cfa -16 + ^ x21: .cfa -24 + ^ x22: .cfa -32 + ^ x23: .cfa -40 + ^ x24: .cfa -48 + ^ .ra: .cfa -56 + ^ x29: .cfa -64 + ^
STACK CFI 8d408 .cfa: sp 80 +
STACK CFI 8d41c .cfa: sp 0 +
STACK CFI 8d420 .cfa: x29 64 +
STACK CFI INIT 8d424 178 .cfa: sp 0 +
STACK CFI 8d428 .cfa: sp 80 +
STACK CFI 8d43c .cfa: x29 64 + x19: .cfa -8 + ^ x20: .cfa -16 + ^ x21: .cfa -24 + ^ x22: .cfa -32 + ^ x23: .cfa -40 + ^ x24: .cfa -48 + ^ .ra: .cfa -56 + ^ x29: .cfa -64 + ^
STACK CFI 8d580 .cfa: sp 80 +
STACK CFI 8d594 .cfa: sp 0 +
STACK CFI 8d598 .cfa: x29 64 +
STACK CFI INIT 8d59c 240 .cfa: sp 0 +
STACK CFI 8d5a0 .cfa: sp 96 +
STACK CFI 8d5b8 .cfa: x29 96 + x19: .cfa -8 + ^ x20: .cfa -16 + ^ x21: .cfa -24 + ^ x22: .cfa -32 + ^ x23: .cfa -40 + ^ x24: .cfa -48 + ^ x25: .cfa -56 + ^ x26: .cfa -64 + ^ x27: .cfa -72 + ^ x28: .cfa -80 + ^ .ra: .cfa -88 + ^ x29: .cfa -96 + ^
STACK CFI 8d7c0 .cfa: sp 96 +
STACK CFI 8d7d8 .cfa: sp 0 +
STACK CFI INIT 8e450 154 .cfa: sp 0 +
STACK CFI 8e454 .cfa: sp 96 +
STACK CFI 8e468 .cfa: x29 64 + x19: .cfa -8 + ^ x20: .cfa -16 + ^ x21: .cfa -24 + ^ x22: .cfa -32 + ^ x23: .cfa -48 + ^ .ra: .cfa -56 + ^ x29: .cfa -64 + ^
STACK CFI 8e548 .cfa: sp 96 +
STACK CFI 8e55c .cfa: sp 0 +
STACK CFI 8e560 .cfa: x29 64 +
STACK CFI INIT 8e810 44 .cfa: sp 0 +
STACK CFI 8e814 .cfa: sp 32 +
STACK CFI 8e81c .cfa: x29 32 + x19: .cfa -16 + ^ .ra: .cfa -24 + ^ x29: .cfa -32 + ^
STACK CFI 8e838 .cfa: sp 32 +
STACK CFI 8e840 .cfa: sp 0 +
STACK CFI 8e844 .cfa: x29 32 +
STACK CFI 8e848 .cfa: sp 32 +
STACK CFI 8e850 .cfa: sp 0 +
STACK CFI INIT 8e854 1d0 .cfa: sp 0 +
STACK CFI 8e858 .cfa: sp 64 +
STACK CFI 8e868 .cfa: x29 64 + x19: .cfa -8 + ^ x20: .cfa -16 + ^ x21: .cfa -24 + ^ x22: .cfa -32 + ^ x23: .cfa -40 + ^ x24: .cfa -48 + ^ .ra: .cfa -56 + ^ x29: .cfa -64 + ^
STACK CFI 8e928 .cfa: sp 64 +
STACK CFI 8e938 .cfa: sp 0 +
STACK CFI 8e93c .cfa: x29 64 +
STACK CFI INIT 8ea24 17c .cfa: sp 0 +
STACK CFI INIT 8ef58 a0 .cfa: sp 0 +
STACK CFI 8ef5c .cfa: sp 48 +
STACK CFI 8ef68 .cfa: x29 48 + x19: .cfa -8 + ^ x20: .cfa -16 + ^ x21: .cfa -24 + ^ x22: .cfa -32 + ^ .ra: .cfa -40 + ^ x29: .cfa -48 + ^
STACK CFI 8efd4 .cfa: sp 48 +
STACK CFI 8efe0 .cfa: sp 0 +
STACK CFI 8efe4 .cfa: sp 48 +
STACK CFI 8eff0 .cfa: sp 0 +
STACK CFI 8eff4 .cfa: x29 48 +
STACK CFI INIT 8fcac 158 .cfa: sp 0 +
STACK CFI 8fcb0 .cfa: sp 96 +
STACK CFI 8fcc4 .cfa: x29 64 + x19: .cfa -8 + ^ x20: .cfa -16 + ^ x21: .cfa -24 + ^ x22: .cfa -32 + ^ x23: .cfa -48 + ^ .ra: .cfa -56 + ^ x29: .cfa -64 + ^
STACK CFI 8fda8 .cfa: sp 96 +
STACK CFI 8fdbc .cfa: sp 0 +
STACK CFI 8fdc0 .cfa: x29 64 +
STACK CFI INIT 8fe04 190 .cfa: sp 0 +
STACK CFI INIT 90a90 1dc .cfa: sp 0 +
STACK CFI 90a94 .cfa: sp 80 +
STACK CFI 90aa8 .cfa: x29 80 + x19: .cfa -8 + ^ x20: .cfa -16 + ^ x21: .cfa -24 + ^ x22: .cfa -32 + ^ x23: .cfa -40 + ^ x24: .cfa -48 + ^ x25: .cfa -64 + ^ .ra: .cfa -72 + ^ x29: .cfa -80 + ^
STACK CFI 90c54 .cfa: sp 80 +
STACK CFI 90c68 .cfa: sp 0 +
STACK CFI INIT 9209c 124 .cfa: sp 0 +
STACK CFI 920cc .cfa: sp 32 +
STACK CFI 920d4 .cfa: x29 32 + x19: .cfa -8 + ^ x20: .cfa -16 + ^ .ra: .cfa -24 + ^ x29: .cfa -32 + ^
STACK CFI 921b4 .cfa: sp 32 +
STACK CFI 921bc .cfa: sp 0 +
STACK CFI INIT 9291c 320 .cfa: sp 0 +
STACK CFI 92920 .cfa: sp 64 +
STACK CFI 92930 .cfa: x29 64 + x19: .cfa -8 + ^ x20: .cfa -16 + ^ x21: .cfa -24 + ^ x22: .cfa -32 + ^ x23: .cfa -40 + ^ x24: .cfa -48 + ^ .ra: .cfa -56 + ^ x29: .cfa -64 + ^
STACK CFI 929ac .cfa: sp 64 +
STACK CFI 929bc .cfa: sp 0 +
STACK CFI 929c0 .cfa: x29 64 +
STACK CFI 92b94 .cfa: sp 64 +
STACK CFI 92ba4 .cfa: sp 0 +
STACK CFI 92ba8 .cfa: x29 64 +
STACK CFI 92bb8 .cfa: sp 64 +
STACK CFI 92bc8 .cfa: sp 0 +
STACK CFI 92bcc .cfa: x29 64 +
STACK CFI INIT 92c3c a0 .cfa: sp 0 +
STACK CFI 92c40 .cfa: sp 48 +
STACK CFI 92c4c .cfa: x29 48 + x19: .cfa -8 + ^ x20: .cfa -16 + ^ x21: .cfa -24 + ^ x22: .cfa -32 + ^ .ra: .cfa -40 + ^ x29: .cfa -48 + ^
STACK CFI 92cb8 .cfa: sp 48 +
STACK CFI 92cc4 .cfa: sp 0 +
STACK CFI 92cc8 .cfa: sp 48 +
STACK CFI 92cd4 .cfa: sp 0 +
STACK CFI 92cd8 .cfa: x29 48 +
STACK CFI INIT 93b8c 160 .cfa: sp 0 +
STACK CFI 93b90 .cfa: sp 64 +
STACK CFI 93ba0 .cfa: x29 64 + x19: .cfa -8 + ^ x20: .cfa -16 + ^ x21: .cfa -24 + ^ x22: .cfa -32 + ^ x23: .cfa -48 + ^ .ra: .cfa -56 + ^ x29: .cfa -64 + ^
STACK CFI 93c98 .cfa: sp 64 +
STACK CFI 93ca8 .cfa: sp 0 +
STACK CFI 93cac .cfa: x29 64 +
STACK CFI INIT 93cec 214 .cfa: sp 0 +
STACK CFI 93cf0 .cfa: sp 128 +
STACK CFI 93d0c .cfa: x29 96 + x19: .cfa -8 + ^ x20: .cfa -16 + ^ x21: .cfa -24 + ^ x22: .cfa -32 + ^ x23: .cfa -40 + ^ x24: .cfa -48 + ^ x25: .cfa -56 + ^ x26: .cfa -64 + ^ x27: .cfa -80 + ^ .ra: .cfa -88 + ^ x29: .cfa -96 + ^
STACK CFI 93e88 .cfa: sp 128 +
STACK CFI 93ea4 .cfa: sp 0 +
STACK CFI 93ea8 .cfa: x29 96 +
STACK CFI INIT 95b9c 290 .cfa: sp 0 +
STACK CFI 95ba0 .cfa: sp 16 +
STACK CFI 95ba4 .cfa: x29 16 + .ra: .cfa -8 + ^ x29: .cfa -16 + ^
STACK CFI 95c30 .cfa: sp 16 +
STACK CFI 95c34 .cfa: sp 0 +
STACK CFI 95c38 .cfa: x29 16 +
STACK CFI 95c88 .cfa: sp 16 +
STACK CFI 95c8c .cfa: sp 0 +
STACK CFI 95c90 .cfa: x29 16 +
STACK CFI 95df4 .cfa: sp 16 +
STACK CFI 95df8 .cfa: sp 0 +
STACK CFI 95dfc .cfa: x29 16 +
STACK CFI INIT 95e2c 158 .cfa: sp 0 +
STACK CFI 95e30 .cfa: sp 112 +
STACK CFI 95e4c .cfa: x29 96 + x19: .cfa -8 + ^ x20: .cfa -16 + ^ x21: .cfa -24 + ^ x22: .cfa -32 + ^ x23: .cfa -40 + ^ x24: .cfa -48 + ^ x25: .cfa -56 + ^ x26: .cfa -64 + ^ x27: .cfa -72 + ^ x28: .cfa -80 + ^ .ra: .cfa -88 + ^ x29: .cfa -96 + ^
STACK CFI 95f34 .cfa: sp 112 +
STACK CFI 95f38 .cfa: x29 96 +
STACK CFI 95f40 .cfa: sp 112 +
STACK CFI 95f5c .cfa: sp 0 +
STACK CFI 95f60 .cfa: x29 96 +
STACK CFI 95f80 .cfa: sp 112 +
STACK CFI INIT 95f84 e54 .cfa: sp 0 +
STACK CFI 95f88 .cfa: sp 192 +
STACK CFI 95fa4 .cfa: x29 96 + x19: .cfa -8 + ^ x20: .cfa -16 + ^ x21: .cfa -24 + ^ x22: .cfa -32 + ^ x23: .cfa -40 + ^ x24: .cfa -48 + ^ x25: .cfa -56 + ^ x26: .cfa -64 + ^ x27: .cfa -72 + ^ x28: .cfa -80 + ^ .ra: .cfa -88 + ^ x29: .cfa -96 + ^
STACK CFI 96cc0 .cfa: sp 192 +
STACK CFI 96cdc .cfa: sp 0 +
STACK CFI 96ce0 .cfa: x29 96 +
STACK CFI INIT 96dd8 1068 .cfa: sp 0 +
STACK CFI 96ddc .cfa: sp 288 +
STACK CFI 96df8 .cfa: x29 96 + x19: .cfa -8 + ^ x20: .cfa -16 + ^ x21: .cfa -24 + ^ x22: .cfa -32 + ^ x23: .cfa -40 + ^ x24: .cfa -48 + ^ x25: .cfa -56 + ^ x26: .cfa -64 + ^ x27: .cfa -72 + ^ x28: .cfa -80 + ^ .ra: .cfa -88 + ^ x29: .cfa -96 + ^
STACK CFI 97b88 .cfa: sp 288 +
STACK CFI 97ba4 .cfa: sp 0 +
STACK CFI 97ba8 .cfa: x29 96 +
STACK CFI INIT 97e40 520 .cfa: sp 0 +
STACK CFI 97e44 .cfa: sp 144 +
STACK CFI 97e60 .cfa: x29 96 + x19: .cfa -8 + ^ x20: .cfa -16 + ^ x21: .cfa -24 + ^ x22: .cfa -32 + ^ x23: .cfa -40 + ^ x24: .cfa -48 + ^ x25: .cfa -56 + ^ x26: .cfa -64 + ^ x27: .cfa -72 + ^ x28: .cfa -80 + ^ .ra: .cfa -88 + ^ x29: .cfa -96 + ^
STACK CFI 9833c .cfa: sp 144 +
STACK CFI 98358 .cfa: sp 0 +
STACK CFI 9835c .cfa: x29 96 +
STACK CFI INIT 98d00 136c .cfa: sp 0 +
STACK CFI 98d04 .cfa: sp 224 +
STACK CFI 98d20 .cfa: x29 96 + x19: .cfa -8 + ^ x20: .cfa -16 + ^ x21: .cfa -24 + ^ x22: .cfa -32 + ^ x23: .cfa -40 + ^ x24: .cfa -48 + ^ x25: .cfa -56 + ^ x26: .cfa -64 + ^ x27: .cfa -72 + ^ x28: .cfa -80 + ^ .ra: .cfa -88 + ^ x29: .cfa -96 + ^
STACK CFI 9a048 .cfa: sp 224 +
STACK CFI 9a064 .cfa: sp 0 +
STACK CFI 9a068 .cfa: x29 96 +
STACK CFI INIT 9a06c 1b8 .cfa: sp 0 +
STACK CFI INIT 3a1fc 484 .cfa: sp 0 +
STACK CFI 3a200 .cfa: sp 224 +
STACK CFI 3a21c .cfa: x29 96 + x19: .cfa -8 + ^ x20: .cfa -16 + ^ x21: .cfa -24 + ^ x22: .cfa -32 + ^ x23: .cfa -40 + ^ x24: .cfa -48 + ^ x25: .cfa -56 + ^ x26: .cfa -64 + ^ x27: .cfa -72 + ^ x28: .cfa -80 + ^ .ra: .cfa -88 + ^ x29: .cfa -96 + ^
STACK CFI 3a48c .cfa: sp 224 +
STACK CFI 3a4a8 .cfa: sp 0 +
STACK CFI 3a4ac .cfa: x29 96 +
STACK CFI 3a578 .cfa: sp 224 +
STACK CFI 3a594 .cfa: sp 0 +
STACK CFI 3a598 .cfa: x29 96 +
STACK CFI INIT 3a698 45c .cfa: sp 0 +
STACK CFI 3a69c .cfa: sp 224 +
STACK CFI 3a6b8 .cfa: x29 96 + x19: .cfa -8 + ^ x20: .cfa -16 + ^ x21: .cfa -24 + ^ x22: .cfa -32 + ^ x23: .cfa -40 + ^ x24: .cfa -48 + ^ x25: .cfa -56 + ^ x26: .cfa -64 + ^ x27: .cfa -72 + ^ x28: .cfa -80 + ^ .ra: .cfa -88 + ^ x29: .cfa -96 + ^
STACK CFI 3a9dc .cfa: sp 224 +
STACK CFI 3a9f8 .cfa: sp 0 +
STACK CFI 3a9fc .cfa: x29 96 +
STACK CFI INIT 3aaf4 45c .cfa: sp 0 +
STACK CFI 3aaf8 .cfa: sp 224 +
STACK CFI 3ab14 .cfa: x29 96 + x19: .cfa -8 + ^ x20: .cfa -16 + ^ x21: .cfa -24 + ^ x22: .cfa -32 + ^ x23: .cfa -40 + ^ x24: .cfa -48 + ^ x25: .cfa -56 + ^ x26: .cfa -64 + ^ x27: .cfa -72 + ^ x28: .cfa -80 + ^ .ra: .cfa -88 + ^ x29: .cfa -96 + ^
STACK CFI 3ae38 .cfa: sp 224 +
STACK CFI 3ae54 .cfa: sp 0 +
STACK CFI 3ae58 .cfa: x29 96 +
STACK CFI INIT 3af50 45c .cfa: sp 0 +
STACK CFI 3af54 .cfa: sp 224 +
STACK CFI 3af70 .cfa: x29 96 + x19: .cfa -8 + ^ x20: .cfa -16 + ^ x21: .cfa -24 + ^ x22: .cfa -32 + ^ x23: .cfa -40 + ^ x24: .cfa -48 + ^ x25: .cfa -56 + ^ x26: .cfa -64 + ^ x27: .cfa -72 + ^ x28: .cfa -80 + ^ .ra: .cfa -88 + ^ x29: .cfa -96 + ^
STACK CFI 3b294 .cfa: sp 224 +
STACK CFI 3b2b0 .cfa: sp 0 +
STACK CFI 3b2b4 .cfa: x29 96 +
STACK CFI INIT 3b3ac 45c .cfa: sp 0 +
STACK CFI 3b3b0 .cfa: sp 224 +
STACK CFI 3b3cc .cfa: x29 96 + x19: .cfa -8 + ^ x20: .cfa -16 + ^ x21: .cfa -24 + ^ x22: .cfa -32 + ^ x23: .cfa -40 + ^ x24: .cfa -48 + ^ x25: .cfa -56 + ^ x26: .cfa -64 + ^ x27: .cfa -72 + ^ x28: .cfa -80 + ^ .ra: .cfa -88 + ^ x29: .cfa -96 + ^
STACK CFI 3b6f0 .cfa: sp 224 +
STACK CFI 3b70c .cfa: sp 0 +
STACK CFI 3b710 .cfa: x29 96 +
STACK CFI INIT 3c188 50 .cfa: sp 0 +
STACK CFI 3c18c .cfa: sp 32 +
STACK CFI 3c194 .cfa: x29 32 + x19: .cfa -8 + ^ x20: .cfa -16 + ^ .ra: .cfa -24 + ^ x29: .cfa -32 + ^
STACK CFI INIT 3c298 324 .cfa: sp 0 +
STACK CFI 3c29c .cfa: sp 64 +
STACK CFI 3c2ac .cfa: x29 64 + x19: .cfa -8 + ^ x20: .cfa -16 + ^ x21: .cfa -24 + ^ x22: .cfa -32 + ^ x23: .cfa -40 + ^ x24: .cfa -48 + ^ .ra: .cfa -56 + ^ x29: .cfa -64 + ^
STACK CFI 3c394 .cfa: sp 64 +
STACK CFI 3c3a4 .cfa: sp 0 +
STACK CFI 3c3a8 .cfa: x29 64 +
STACK CFI 3c594 .cfa: sp 64 +
STACK CFI 3c5a4 .cfa: sp 0 +
STACK CFI 3c5a8 .cfa: x29 64 +
STACK CFI INIT 3c7d8 3c0 .cfa: sp 0 +
STACK CFI 3c7dc .cfa: sp 112 +
STACK CFI 3c7f4 .cfa: x29 80 + x19: .cfa -8 + ^ x20: .cfa -16 + ^ x21: .cfa -24 + ^ x22: .cfa -32 + ^ x23: .cfa -40 + ^ x24: .cfa -48 + ^ x25: .cfa -64 + ^ .ra: .cfa -72 + ^ x29: .cfa -80 + ^
STACK CFI 3cb50 .cfa: sp 112 +
STACK CFI 3cb68 .cfa: sp 0 +
STACK CFI 3cb6c .cfa: x29 80 +
STACK CFI INIT 3ce14 134 .cfa: sp 0 +
STACK CFI 3ce18 .cfa: sp 80 +
STACK CFI 3ce28 .cfa: x29 48 + x19: .cfa -8 + ^ x20: .cfa -16 + ^ x21: .cfa -24 + ^ x22: .cfa -32 + ^ .ra: .cfa -40 + ^ x29: .cfa -48 + ^
STACK CFI 3cf2c .cfa: sp 80 +
STACK CFI 3cf3c .cfa: sp 0 +
STACK CFI 3cf40 .cfa: x29 48 +
STACK CFI INIT 3cf48 118 .cfa: sp 0 +
STACK CFI 3cf4c .cfa: sp 80 +
STACK CFI 3cf5c .cfa: x29 48 + x19: .cfa -8 + ^ x20: .cfa -16 + ^ x21: .cfa -24 + ^ x22: .cfa -32 + ^ .ra: .cfa -40 + ^ x29: .cfa -48 + ^
STACK CFI 3d044 .cfa: sp 80 +
STACK CFI 3d054 .cfa: sp 0 +
STACK CFI 3d058 .cfa: x29 48 +
STACK CFI INIT 3d060 24c .cfa: sp 0 +
STACK CFI 3d064 .cfa: sp 224 +
STACK CFI 3d07c .cfa: x29 80 + x19: .cfa -8 + ^ x20: .cfa -16 + ^ x21: .cfa -24 + ^ x22: .cfa -32 + ^ x23: .cfa -40 + ^ x24: .cfa -48 + ^ x25: .cfa -64 + ^ .ra: .cfa -72 + ^ x29: .cfa -80 + ^
STACK CFI 3d1ec .cfa: sp 224 +
STACK CFI 3d204 .cfa: sp 0 +
STACK CFI 3d208 .cfa: x29 80 +
STACK CFI INIT 3d2ac f8 .cfa: sp 0 +
STACK CFI 3d2b0 .cfa: sp 48 +
STACK CFI 3d2bc .cfa: x29 48 + x19: .cfa -8 + ^ x20: .cfa -16 + ^ x21: .cfa -32 + ^ .ra: .cfa -40 + ^ x29: .cfa -48 + ^
STACK CFI 3d328 .cfa: sp 48 +
STACK CFI 3d334 .cfa: sp 0 +
STACK CFI 3d338 .cfa: x29 48 +
STACK CFI INIT 3d448 11c .cfa: sp 0 +
STACK CFI 3d44c .cfa: sp 48 +
STACK CFI 3d458 .cfa: x29 48 + x19: .cfa -8 + ^ x20: .cfa -16 + ^ x21: .cfa -32 + ^ .ra: .cfa -40 + ^ x29: .cfa -48 + ^
STACK CFI 3d4dc .cfa: sp 48 +
STACK CFI 3d4e8 .cfa: sp 0 +
STACK CFI 3d4ec .cfa: x29 48 +
STACK CFI 3d534 .cfa: sp 48 +
STACK CFI 3d540 .cfa: sp 0 +
STACK CFI 3d544 .cfa: x29 48 +
STACK CFI INIT 3d734 174 .cfa: sp 0 +
STACK CFI 3d738 .cfa: sp 112 +
STACK CFI 3d748 .cfa: x29 48 + x19: .cfa -8 + ^ x20: .cfa -16 + ^ x21: .cfa -32 + ^ .ra: .cfa -40 + ^ x29: .cfa -48 + ^
STACK CFI 3d844 .cfa: sp 112 +
STACK CFI 3d854 .cfa: sp 0 +
STACK CFI 3d858 .cfa: x29 48 +
STACK CFI INIT 3da88 24c .cfa: sp 0 +
STACK CFI 3da8c .cfa: sp 224 +
STACK CFI 3daa4 .cfa: x29 80 + x19: .cfa -8 + ^ x20: .cfa -16 + ^ x21: .cfa -24 + ^ x22: .cfa -32 + ^ x23: .cfa -40 + ^ x24: .cfa -48 + ^ x25: .cfa -64 + ^ .ra: .cfa -72 + ^ x29: .cfa -80 + ^
STACK CFI 3dc14 .cfa: sp 224 +
STACK CFI 3dc2c .cfa: sp 0 +
STACK CFI 3dc30 .cfa: x29 80 +
STACK CFI INIT 3dd28 11c .cfa: sp 0 +
STACK CFI 3dd2c .cfa: sp 48 +
STACK CFI 3dd38 .cfa: x29 48 + x19: .cfa -8 + ^ x20: .cfa -16 + ^ x21: .cfa -32 + ^ .ra: .cfa -40 + ^ x29: .cfa -48 + ^
STACK CFI 3ddbc .cfa: sp 48 +
STACK CFI 3ddc8 .cfa: sp 0 +
STACK CFI 3ddcc .cfa: x29 48 +
STACK CFI 3de14 .cfa: sp 48 +
STACK CFI 3de20 .cfa: sp 0 +
STACK CFI 3de24 .cfa: x29 48 +
STACK CFI INIT 3df5c c4 .cfa: sp 0 +
STACK CFI 3df60 .cfa: sp 32 +
STACK CFI 3df68 .cfa: x29 32 + x19: .cfa -16 + ^ .ra: .cfa -24 + ^ x29: .cfa -32 + ^
STACK CFI 3df80 .cfa: sp 32 +
STACK CFI 3df88 .cfa: sp 0 +
STACK CFI 3df8c .cfa: x29 32 +
STACK CFI 3dffc .cfa: sp 32 +
STACK CFI 3e004 .cfa: sp 0 +
STACK CFI 3e008 .cfa: x29 32 +
STACK CFI INIT 3e024 c4 .cfa: sp 0 +
STACK CFI 3e028 .cfa: sp 32 +
STACK CFI 3e030 .cfa: x29 32 + x19: .cfa -16 + ^ .ra: .cfa -24 + ^ x29: .cfa -32 + ^
STACK CFI 3e048 .cfa: sp 32 +
STACK CFI 3e050 .cfa: sp 0 +
STACK CFI 3e054 .cfa: x29 32 +
STACK CFI 3e0c4 .cfa: sp 32 +
STACK CFI 3e0cc .cfa: sp 0 +
STACK CFI 3e0d0 .cfa: x29 32 +
STACK CFI INIT 3e140 11c .cfa: sp 0 +
STACK CFI 3e144 .cfa: sp 48 +
STACK CFI 3e150 .cfa: x29 48 + x19: .cfa -8 + ^ x20: .cfa -16 + ^ x21: .cfa -32 + ^ .ra: .cfa -40 + ^ x29: .cfa -48 + ^
STACK CFI 3e1d4 .cfa: sp 48 +
STACK CFI 3e1e0 .cfa: sp 0 +
STACK CFI 3e1e4 .cfa: x29 48 +
STACK CFI 3e22c .cfa: sp 48 +
STACK CFI 3e238 .cfa: sp 0 +
STACK CFI 3e23c .cfa: x29 48 +
STACK CFI INIT 3e2d4 c4 .cfa: sp 0 +
STACK CFI 3e2d8 .cfa: sp 32 +
STACK CFI 3e2e0 .cfa: x29 32 + x19: .cfa -16 + ^ .ra: .cfa -24 + ^ x29: .cfa -32 + ^
STACK CFI 3e2f8 .cfa: sp 32 +
STACK CFI 3e300 .cfa: sp 0 +
STACK CFI 3e304 .cfa: x29 32 +
STACK CFI 3e374 .cfa: sp 32 +
STACK CFI 3e37c .cfa: sp 0 +
STACK CFI 3e380 .cfa: x29 32 +
STACK CFI INIT 3e398 67c .cfa: sp 0 +
STACK CFI 3e39c .cfa: sp 288 +
STACK CFI 3e3b8 .cfa: x29 96 + x19: .cfa -8 + ^ x20: .cfa -16 + ^ x21: .cfa -24 + ^ x22: .cfa -32 + ^ x23: .cfa -40 + ^ x24: .cfa -48 + ^ x25: .cfa -56 + ^ x26: .cfa -64 + ^ x28: .cfa -80 + ^ .ra: .cfa -88 + ^ x29: .cfa -96 + ^
STACK CFI 3e820 .cfa: sp 288 +
STACK CFI 3e83c .cfa: sp 0 +
STACK CFI 3e840 .cfa: x29 96 +
STACK CFI INIT 3ea64 74 .cfa: sp 0 +
STACK CFI 3ea68 .cfa: sp 48 +
STACK CFI 3ea74 .cfa: x29 32 + x19: .cfa -8 + ^ x20: .cfa -16 + ^ .ra: .cfa -24 + ^ x29: .cfa -32 + ^
STACK CFI 3eac0 .cfa: sp 48 +
STACK CFI 3eacc .cfa: sp 0 +
STACK CFI 3ead0 .cfa: x29 32 +
STACK CFI INIT 3eb58 154 .cfa: sp 0 +
STACK CFI 3eb5c .cfa: sp 384 +
STACK CFI 3eb70 .cfa: x29 64 + x19: .cfa -8 + ^ x20: .cfa -16 + ^ x21: .cfa -24 + ^ x22: .cfa -32 + ^ x23: .cfa -40 + ^ x28: .cfa -48 + ^ .ra: .cfa -56 + ^ x29: .cfa -64 + ^
STACK CFI 3ec54 .cfa: sp 384 +
STACK CFI 3ec68 .cfa: sp 0 +
STACK CFI 3ec6c .cfa: x29 64 +
STACK CFI INIT 3ece0 12c .cfa: sp 0 +
STACK CFI 3ece4 .cfa: sp 80 +
STACK CFI 3ecf8 .cfa: x29 80 + x19: .cfa -8 + ^ x20: .cfa -16 + ^ x21: .cfa -24 + ^ x22: .cfa -32 + ^ x23: .cfa -40 + ^ x24: .cfa -48 + ^ x25: .cfa -56 + ^ x26: .cfa -64 + ^ .ra: .cfa -72 + ^ x29: .cfa -80 + ^
STACK CFI 3edc0 .cfa: sp 80 +
STACK CFI 3edd4 .cfa: sp 0 +
STACK CFI 3edd8 .cfa: x29 80 +
STACK CFI INIT 3eeb0 1a4 .cfa: sp 0 +
STACK CFI 3eeb4 .cfa: sp 112 +
STACK CFI 3eecc .cfa: x29 80 + x19: .cfa -8 + ^ x20: .cfa -16 + ^ x21: .cfa -24 + ^ x22: .cfa -32 + ^ x23: .cfa -40 + ^ x24: .cfa -48 + ^ x25: .cfa -56 + ^ x26: .cfa -64 + ^ .ra: .cfa -72 + ^ x29: .cfa -80 + ^
STACK CFI 3efbc .cfa: sp 112 +
STACK CFI 3efd4 .cfa: sp 0 +
STACK CFI 3efd8 .cfa: x29 80 +
STACK CFI INIT 3f054 1dc .cfa: sp 0 +
STACK CFI 3f058 .cfa: sp 128 +
STACK CFI 3f074 .cfa: x29 96 + x19: .cfa -8 + ^ x20: .cfa -16 + ^ x21: .cfa -24 + ^ x22: .cfa -32 + ^ x23: .cfa -40 + ^ x24: .cfa -48 + ^ x25: .cfa -56 + ^ x26: .cfa -64 + ^ x27: .cfa -80 + ^ .ra: .cfa -88 + ^ x29: .cfa -96 + ^
STACK CFI 3f1e0 .cfa: sp 128 +
STACK CFI 3f1fc .cfa: sp 0 +
STACK CFI 3f200 .cfa: x29 96 +
STACK CFI INIT 3f230 178 .cfa: sp 0 +
STACK CFI 3f234 .cfa: sp 80 +
STACK CFI 3f248 .cfa: x29 80 + x19: .cfa -8 + ^ x20: .cfa -16 + ^ x21: .cfa -24 + ^ x22: .cfa -32 + ^ x23: .cfa -40 + ^ x24: .cfa -48 + ^ x25: .cfa -64 + ^ .ra: .cfa -72 + ^ x29: .cfa -80 + ^
STACK CFI 3f374 .cfa: sp 80 +
STACK CFI 3f388 .cfa: sp 0 +
STACK CFI 3f38c .cfa: x29 80 +
STACK CFI INIT 3f4f0 224 .cfa: sp 0 +
STACK CFI 3f4f4 .cfa: sp 128 +
STACK CFI 3f50c .cfa: x29 80 + x19: .cfa -8 + ^ x20: .cfa -16 + ^ x21: .cfa -24 + ^ x22: .cfa -32 + ^ x23: .cfa -40 + ^ x24: .cfa -48 + ^ x25: .cfa -64 + ^ .ra: .cfa -72 + ^ x29: .cfa -80 + ^
STACK CFI 3f6a8 .cfa: sp 128 +
STACK CFI 3f6c0 .cfa: sp 0 +
STACK CFI 3f6c4 .cfa: x29 80 +
STACK CFI INIT 3fe98 730 .cfa: sp 0 +
STACK CFI 3fe9c .cfa: sp 160 +
STACK CFI 3feb4 .cfa: x29 80 + x19: .cfa -8 + ^ x20: .cfa -16 + ^ x21: .cfa -24 + ^ x22: .cfa -32 + ^ x23: .cfa -40 + ^ x24: .cfa -48 + ^ x25: .cfa -56 + ^ x26: .cfa -64 + ^ .ra: .cfa -72 + ^ x29: .cfa -80 + ^
STACK CFI 40130 .cfa: sp 160 +
STACK CFI 40148 .cfa: sp 0 +
STACK CFI 4014c .cfa: x29 80 +
STACK CFI INIT 40ca4 260 .cfa: sp 0 +
STACK CFI 40ca8 .cfa: sp 128 +
STACK CFI 40cc4 .cfa: x29 96 + x19: .cfa -8 + ^ x20: .cfa -16 + ^ x21: .cfa -24 + ^ x22: .cfa -32 + ^ x23: .cfa -40 + ^ x24: .cfa -48 + ^ x25: .cfa -56 + ^ x26: .cfa -64 + ^ x27: .cfa -72 + ^ x28: .cfa -80 + ^ .ra: .cfa -88 + ^ x29: .cfa -96 + ^
STACK CFI 40e78 .cfa: sp 128 +
STACK CFI 40e94 .cfa: sp 0 +
STACK CFI 40e98 .cfa: x29 96 +
STACK CFI INIT 40fbc f2c .cfa: sp 0 +
STACK CFI 40fc0 .cfa: sp 272 +
STACK CFI 40fd8 .cfa: x29 80 + x19: .cfa -8 + ^ x20: .cfa -16 + ^ x21: .cfa -24 + ^ x22: .cfa -32 + ^ x23: .cfa -40 + ^ x24: .cfa -48 + ^ x25: .cfa -56 + ^ x28: .cfa -64 + ^ .ra: .cfa -72 + ^ x29: .cfa -80 + ^
STACK CFI 41ab4 .cfa: sp 272 +
STACK CFI 41acc .cfa: sp 0 +
STACK CFI 41ad0 .cfa: x29 80 +
STACK CFI INIT 41eec 134 .cfa: sp 0 +
STACK CFI 41ef0 .cfa: sp 128 +
STACK CFI 41f04 .cfa: x29 64 + x19: .cfa -8 + ^ x20: .cfa -16 + ^ x21: .cfa -24 + ^ x22: .cfa -32 + ^ x23: .cfa -40 + ^ x24: .cfa -48 + ^ .ra: .cfa -56 + ^ x29: .cfa -64 + ^
STACK CFI 41fd0 .cfa: sp 128 +
STACK CFI 41fe4 .cfa: sp 0 +
STACK CFI 41fe8 .cfa: x29 64 +
STACK CFI INIT 42020 d8 .cfa: sp 0 +
STACK CFI 42024 .cfa: sp 32 +
STACK CFI 4202c .cfa: x29 32 + x19: .cfa -16 + ^ .ra: .cfa -24 + ^ x29: .cfa -32 + ^
STACK CFI 42048 .cfa: sp 32 +
STACK CFI 42050 .cfa: sp 0 +
STACK CFI 42054 .cfa: sp 32 +
STACK CFI 4205c .cfa: sp 0 +
STACK CFI 42060 .cfa: x29 32 +
STACK CFI INIT 422ec 184 .cfa: sp 0 +
STACK CFI 422f0 .cfa: sp 144 +
STACK CFI 42308 .cfa: x29 80 + x19: .cfa -8 + ^ x20: .cfa -16 + ^ x21: .cfa -24 + ^ x22: .cfa -32 + ^ x23: .cfa -40 + ^ x24: .cfa -48 + ^ x25: .cfa -56 + ^ x26: .cfa -64 + ^ .ra: .cfa -72 + ^ x29: .cfa -80 + ^
STACK CFI 42408 .cfa: sp 144 +
STACK CFI 42420 .cfa: sp 0 +
STACK CFI 42424 .cfa: x29 80 +
STACK CFI INIT 42668 7e8 .cfa: sp 0 +
STACK CFI 4266c .cfa: sp 176 +
STACK CFI 42680 .cfa: x29 64 + x19: .cfa -8 + ^ x20: .cfa -16 + ^ x21: .cfa -24 + ^ x22: .cfa -32 + ^ x23: .cfa -40 + ^ x24: .cfa -48 + ^ .ra: .cfa -56 + ^ x29: .cfa -64 + ^
STACK CFI 42c14 .cfa: sp 176 +
STACK CFI 42c28 .cfa: sp 0 +
STACK CFI 42c2c .cfa: x29 64 +
STACK CFI INIT 42e54 134 .cfa: sp 0 +
STACK CFI 42e58 .cfa: sp 128 +
STACK CFI 42e6c .cfa: x29 64 + x19: .cfa -8 + ^ x20: .cfa -16 + ^ x21: .cfa -24 + ^ x22: .cfa -32 + ^ x23: .cfa -40 + ^ x24: .cfa -48 + ^ .ra: .cfa -56 + ^ x29: .cfa -64 + ^
STACK CFI 42f38 .cfa: sp 128 +
STACK CFI 42f4c .cfa: sp 0 +
STACK CFI 42f50 .cfa: x29 64 +
STACK CFI INIT 42f88 698 .cfa: sp 0 +
STACK CFI 42f8c .cfa: sp 256 +
STACK CFI 42fa4 .cfa: x29 64 + x19: .cfa -8 + ^ x20: .cfa -16 + ^ x21: .cfa -24 + ^ x22: .cfa -32 + ^ x23: .cfa -40 + ^ x24: .cfa -48 + ^ .ra: .cfa -56 + ^ x29: .cfa -64 + ^ v8: .cfa -80 + ^
STACK CFI 43260 .cfa: sp 256 +
STACK CFI 43278 .cfa: sp 0 +
STACK CFI 4327c .cfa: x29 64 +
STACK CFI INIT 43620 1a4 .cfa: sp 0 +
STACK CFI 43624 .cfa: sp 48 +
STACK CFI 43630 .cfa: x29 48 + x19: .cfa -8 + ^ x20: .cfa -16 + ^ x21: .cfa -32 + ^ .ra: .cfa -40 + ^ x29: .cfa -48 + ^
STACK CFI 43690 .cfa: sp 48 +
STACK CFI 4369c .cfa: sp 0 +
STACK CFI 436a0 .cfa: x29 48 +
STACK CFI INIT 437c4 3c4 .cfa: sp 0 +
STACK CFI 437c8 .cfa: sp 32 +
STACK CFI 437d0 .cfa: x29 32 + x19: .cfa -16 + ^ .ra: .cfa -24 + ^ x29: .cfa -32 + ^
STACK CFI 4380c .cfa: sp 32 +
STACK CFI 43814 .cfa: sp 0 +
STACK CFI 43818 .cfa: x29 32 +
STACK CFI 43870 .cfa: sp 32 +
STACK CFI 43878 .cfa: sp 0 +
STACK CFI 4387c .cfa: x29 32 +
STACK CFI 43a94 .cfa: sp 32 +
STACK CFI 43a9c .cfa: sp 0 +
STACK CFI 43aa0 .cfa: x29 32 +
STACK CFI INIT 43b88 1ac .cfa: sp 0 +
STACK CFI 43b8c .cfa: sp 112 +
STACK CFI 43b98 .cfa: x29 32 + x19: .cfa -8 + ^ x20: .cfa -16 + ^ .ra: .cfa -24 + ^ x29: .cfa -32 + ^
STACK CFI 43c44 .cfa: sp 112 +
STACK CFI 43c50 .cfa: sp 0 +
STACK CFI 43c54 .cfa: x29 32 +
STACK CFI INIT 43e4c d4 .cfa: sp 0 +
STACK CFI 43e50 .cfa: sp 32 +
STACK CFI 43e58 .cfa: x29 32 + x19: .cfa -16 + ^ .ra: .cfa -24 + ^ x29: .cfa -32 + ^
STACK CFI 43e74 .cfa: sp 32 +
STACK CFI 43e7c .cfa: sp 0 +
STACK CFI 43e80 .cfa: x29 32 +
STACK CFI 43efc .cfa: sp 32 +
STACK CFI 43f04 .cfa: sp 0 +
STACK CFI 43f08 .cfa: x29 32 +
STACK CFI INIT 43f48 5cc .cfa: sp 0 +
STACK CFI 43f4c .cfa: sp 240 +
STACK CFI 43f64 .cfa: x29 80 + x19: .cfa -8 + ^ x20: .cfa -16 + ^ x21: .cfa -24 + ^ x22: .cfa -32 + ^ x23: .cfa -40 + ^ x24: .cfa -48 + ^ x25: .cfa -56 + ^ x26: .cfa -64 + ^ .ra: .cfa -72 + ^ x29: .cfa -80 + ^
STACK CFI 44344 .cfa: sp 240 +
STACK CFI 4435c .cfa: sp 0 +
STACK CFI 44360 .cfa: x29 80 +
STACK CFI INIT 44518 2a0 .cfa: sp 0 +
STACK CFI 4451c .cfa: sp 80 +
STACK CFI 4452c .cfa: x29 48 + x19: .cfa -8 + ^ x20: .cfa -16 + ^ x21: .cfa -24 + ^ x22: .cfa -32 + ^ .ra: .cfa -40 + ^ x29: .cfa -48 + ^
STACK CFI 44770 .cfa: sp 80 +
STACK CFI 44780 .cfa: sp 0 +
STACK CFI 44784 .cfa: x29 48 +
STACK CFI INIT 447b8 c8 .cfa: sp 0 +
STACK CFI 447bc .cfa: sp 32 +
STACK CFI 447c4 .cfa: x29 32 + x19: .cfa -16 + ^ .ra: .cfa -24 + ^ x29: .cfa -32 + ^
STACK CFI 447e0 .cfa: sp 32 +
STACK CFI 447e8 .cfa: sp 0 +
STACK CFI 447ec .cfa: x29 32 +
STACK CFI 4485c .cfa: sp 32 +
STACK CFI 44864 .cfa: sp 0 +
STACK CFI 44868 .cfa: x29 32 +
STACK CFI INIT 44880 a8 .cfa: sp 0 +
STACK CFI 44884 .cfa: sp 32 +
STACK CFI 4488c .cfa: x29 32 + x19: .cfa -16 + ^ .ra: .cfa -24 + ^ x29: .cfa -32 + ^
STACK CFI 448c0 .cfa: sp 32 +
STACK CFI 448c8 .cfa: sp 0 +
STACK CFI 448cc .cfa: x29 32 +
STACK CFI 448d0 .cfa: sp 32 +
STACK CFI 448d8 .cfa: sp 0 +
STACK CFI 448dc .cfa: x29 32 +
STACK CFI INIT 449b4 324 .cfa: sp 0 +
STACK CFI 449b8 .cfa: sp 240 +
STACK CFI 449cc .cfa: x29 64 + x19: .cfa -8 + ^ x20: .cfa -16 + ^ x21: .cfa -24 + ^ x22: .cfa -32 + ^ x23: .cfa -48 + ^ .ra: .cfa -56 + ^ x29: .cfa -64 + ^
STACK CFI 44bc8 .cfa: sp 240 +
STACK CFI 44bdc .cfa: sp 0 +
STACK CFI 44be0 .cfa: x29 64 +
STACK CFI INIT 44cdc 140 .cfa: sp 0 +
STACK CFI 44ce0 .cfa: sp 112 +
STACK CFI 44cf0 .cfa: x29 48 + x19: .cfa -8 + ^ x20: .cfa -16 + ^ x21: .cfa -32 + ^ .ra: .cfa -40 + ^ x29: .cfa -48 + ^
STACK CFI 44db8 .cfa: sp 112 +
STACK CFI 44dc8 .cfa: sp 0 +
STACK CFI 44dcc .cfa: x29 48 +
STACK CFI INIT 44e1c a8 .cfa: sp 0 +
STACK CFI 44e20 .cfa: sp 32 +
STACK CFI 44e28 .cfa: x29 32 + x19: .cfa -16 + ^ .ra: .cfa -24 + ^ x29: .cfa -32 + ^
STACK CFI 44e5c .cfa: sp 32 +
STACK CFI 44e64 .cfa: sp 0 +
STACK CFI 44e68 .cfa: x29 32 +
STACK CFI 44e6c .cfa: sp 32 +
STACK CFI 44e74 .cfa: sp 0 +
STACK CFI 44e78 .cfa: x29 32 +
STACK CFI INIT 44fac 9fc .cfa: sp 0 +
STACK CFI 44fb0 .cfa: sp 128 +
STACK CFI 44fd0 .cfa: x29 96 + x19: .cfa -8 + ^ x20: .cfa -16 + ^ x21: .cfa -24 + ^ x22: .cfa -32 + ^ x23: .cfa -40 + ^ x24: .cfa -48 + ^ x25: .cfa -56 + ^ x26: .cfa -64 + ^ x27: .cfa -72 + ^ x28: .cfa -80 + ^ .ra: .cfa -88 + ^ x29: .cfa -96 + ^ v8: .cfa -104 + ^ v9: .cfa -112 + ^ v10: .cfa -128 + ^
STACK CFI 45718 .cfa: sp 128 +
STACK CFI 45738 .cfa: sp 0 +
STACK CFI 4573c .cfa: x29 96 +
STACK CFI INIT 459d0 1c .cfa: sp 0 +
STACK CFI 459d4 .cfa: sp 16 +
STACK CFI 459d8 .cfa: x29 16 + .ra: .cfa -8 + ^ x29: .cfa -16 + ^
STACK CFI 459e0 .cfa: sp 16 +
STACK CFI 459e4 .cfa: sp 0 +
STACK CFI 459e8 .cfa: x29 16 +
STACK CFI INIT 3b808 90c .cfa: sp 0 +
STACK CFI 3b80c .cfa: sp 256 +
STACK CFI 3b81c .cfa: x29 48 + x19: .cfa -8 + ^ x20: .cfa -16 + ^ x21: .cfa -24 + ^ x22: .cfa -32 + ^ .ra: .cfa -40 + ^ x29: .cfa -48 + ^
STACK CFI 3be88 .cfa: sp 256 +
STACK CFI 3be98 .cfa: sp 0 +
STACK CFI 3be9c .cfa: x29 48 +
STACK CFI INIT 45a68 c4 .cfa: sp 0 +
STACK CFI 45a6c .cfa: sp 32 +
STACK CFI 45a74 .cfa: x29 32 + x19: .cfa -16 + ^ .ra: .cfa -24 + ^ x29: .cfa -32 + ^
STACK CFI 45a8c .cfa: sp 32 +
STACK CFI 45a94 .cfa: sp 0 +
STACK CFI 45a98 .cfa: x29 32 +
STACK CFI 45b08 .cfa: sp 32 +
STACK CFI 45b10 .cfa: sp 0 +
STACK CFI 45b14 .cfa: x29 32 +
STACK CFI INIT 45c30 1b0 .cfa: sp 0 +
STACK CFI 45c34 .cfa: sp 32 +
STACK CFI 45c3c .cfa: x29 32 + x19: .cfa -16 + ^ .ra: .cfa -24 + ^ x29: .cfa -32 + ^
STACK CFI 45d34 .cfa: sp 32 +
STACK CFI 45d3c .cfa: sp 0 +
STACK CFI 45d40 .cfa: x29 32 +
STACK CFI 45d44 .cfa: sp 32 +
STACK CFI 45d4c .cfa: sp 0 +
STACK CFI 45d50 .cfa: x29 32 +
STACK CFI INIT 45de0 fc .cfa: sp 0 +
STACK CFI 45de4 .cfa: sp 32 +
STACK CFI 45dec .cfa: x29 32 + x19: .cfa -8 + ^ x20: .cfa -16 + ^ .ra: .cfa -24 + ^ x29: .cfa -32 + ^
STACK CFI 45e4c .cfa: sp 32 +
STACK CFI 45e54 .cfa: sp 0 +
STACK CFI 45e58 .cfa: x29 32 +
STACK CFI INIT 45f80 1b8 .cfa: sp 0 +
STACK CFI 45f84 .cfa: sp 96 +
STACK CFI 45f94 .cfa: x29 48 + x19: .cfa -8 + ^ x20: .cfa -16 + ^ x21: .cfa -32 + ^ .ra: .cfa -40 + ^ x29: .cfa -48 + ^
STACK CFI 46060 .cfa: sp 96 +
STACK CFI 46070 .cfa: sp 0 +
STACK CFI 46074 .cfa: x29 48 +
STACK CFI INIT 463e0 1500 .cfa: sp 0 +
STACK CFI 463e4 .cfa: sp 112 +
STACK CFI 46400 .cfa: x29 96 + x19: .cfa -8 + ^ x20: .cfa -16 + ^ x21: .cfa -24 + ^ x22: .cfa -32 + ^ x23: .cfa -40 + ^ x24: .cfa -48 + ^ x25: .cfa -56 + ^ x26: .cfa -64 + ^ x27: .cfa -72 + ^ x28: .cfa -80 + ^ .ra: .cfa -88 + ^ x29: .cfa -96 + ^ v8: .cfa -112 + ^
STACK CFI 4756c .cfa: sp 112 +
STACK CFI 47588 .cfa: sp 0 +
STACK CFI 4758c .cfa: x29 96 +
STACK CFI INIT 478e0 144 .cfa: sp 0 +
STACK CFI 478e4 .cfa: sp 32 +
STACK CFI 478ec .cfa: x29 32 + x19: .cfa -8 + ^ x20: .cfa -16 + ^ .ra: .cfa -24 + ^ x29: .cfa -32 + ^
STACK CFI 47994 .cfa: sp 32 +
STACK CFI 4799c .cfa: sp 0 +
STACK CFI 479a0 .cfa: x29 32 +
STACK CFI INIT 47ac0 174 .cfa: sp 0 +
STACK CFI 47ac4 .cfa: sp 64 +
STACK CFI 47ad4 .cfa: x29 48 + x19: .cfa -8 + ^ x20: .cfa -16 + ^ x21: .cfa -24 + ^ x22: .cfa -32 + ^ .ra: .cfa -40 + ^ x29: .cfa -48 + ^
STACK CFI 47bf8 .cfa: sp 64 +
STACK CFI 47c08 .cfa: sp 0 +
STACK CFI 47c0c .cfa: x29 48 +
STACK CFI INIT 47c34 c70 .cfa: sp 0 +
STACK CFI 47c38 .cfa: sp 96 +
STACK CFI 47c50 .cfa: x29 96 + x19: .cfa -8 + ^ x20: .cfa -16 + ^ x21: .cfa -24 + ^ x22: .cfa -32 + ^ x23: .cfa -40 + ^ x24: .cfa -48 + ^ x25: .cfa -56 + ^ x26: .cfa -64 + ^ x27: .cfa -72 + ^ x28: .cfa -80 + ^ .ra: .cfa -88 + ^ x29: .cfa -96 + ^
STACK CFI 48510 .cfa: sp 96 +
STACK CFI 48528 .cfa: sp 0 +
STACK CFI 4852c .cfa: x29 96 +
STACK CFI INIT 488a4 434 .cfa: sp 0 +
STACK CFI 488a8 .cfa: sp 48 +
STACK CFI 488b4 .cfa: x29 48 + x19: .cfa -8 + ^ x20: .cfa -16 + ^ x21: .cfa -32 + ^ .ra: .cfa -40 + ^ x29: .cfa -48 + ^
STACK CFI 489d0 .cfa: sp 48 +
STACK CFI 489dc .cfa: sp 0 +
STACK CFI 489e0 .cfa: sp 48 +
STACK CFI 489ec .cfa: sp 0 +
STACK CFI 489f0 .cfa: x29 48 +
STACK CFI INIT 48cd8 e8 .cfa: sp 0 +
STACK CFI 48cdc .cfa: sp 32 +
STACK CFI 48ce4 .cfa: x29 32 + x19: .cfa -8 + ^ x20: .cfa -16 + ^ .ra: .cfa -24 + ^ x29: .cfa -32 + ^
STACK CFI 48d1c .cfa: sp 32 +
STACK CFI 48d24 .cfa: sp 0 +
STACK CFI 48d28 .cfa: x29 32 +
STACK CFI INIT 48dc0 498 .cfa: sp 0 +
STACK CFI 48dc4 .cfa: sp 80 +
STACK CFI 48dd4 .cfa: x29 32 + x19: .cfa -8 + ^ x20: .cfa -16 + ^ .ra: .cfa -24 + ^ x29: .cfa -32 + ^ v8: .cfa -48 + ^
STACK CFI 48f68 .cfa: sp 80 +
STACK CFI 48f78 .cfa: sp 0 +
STACK CFI 48f7c .cfa: x29 32 +
STACK CFI INIT 49258 e8 .cfa: sp 0 +
STACK CFI 4925c .cfa: sp 32 +
STACK CFI 49264 .cfa: x29 32 + x19: .cfa -8 + ^ x20: .cfa -16 + ^ .ra: .cfa -24 + ^ x29: .cfa -32 + ^
STACK CFI 4929c .cfa: sp 32 +
STACK CFI 492a4 .cfa: sp 0 +
STACK CFI 492a8 .cfa: x29 32 +
STACK CFI INIT 49340 18c .cfa: sp 0 +
STACK CFI 49344 .cfa: sp 32 +
STACK CFI 4934c .cfa: x29 32 + x19: .cfa -16 + ^ .ra: .cfa -24 + ^ x29: .cfa -32 + ^
STACK CFI 49354 .cfa: sp 32 +
STACK CFI 4935c .cfa: sp 0 +
STACK CFI 49360 .cfa: x29 32 +
STACK CFI 4943c .cfa: sp 32 +
STACK CFI 49444 .cfa: sp 0 +
STACK CFI 49448 .cfa: x29 32 +
STACK CFI INIT 494cc 148 .cfa: sp 0 +
STACK CFI 494d0 .cfa: sp 32 +
STACK CFI 494d8 .cfa: x29 32 + x19: .cfa -8 + ^ x20: .cfa -16 + ^ .ra: .cfa -24 + ^ x29: .cfa -32 + ^
STACK CFI 49584 .cfa: sp 32 +
STACK CFI 4958c .cfa: sp 0 +
STACK CFI 49590 .cfa: x29 32 +
STACK CFI INIT 49614 f8 .cfa: sp 0 +
STACK CFI 49618 .cfa: sp 48 +
STACK CFI 49624 .cfa: x29 48 + x19: .cfa -8 + ^ x20: .cfa -16 + ^ x21: .cfa -32 + ^ .ra: .cfa -40 + ^ x29: .cfa -48 + ^
STACK CFI 49664 .cfa: sp 48 +
STACK CFI 49670 .cfa: sp 0 +
STACK CFI 49674 .cfa: x29 48 +
STACK CFI INIT 4982c 25c .cfa: sp 0 +
STACK CFI 49830 .cfa: sp 48 +
STACK CFI 4983c .cfa: x29 48 + x19: .cfa -8 + ^ x20: .cfa -16 + ^ x21: .cfa -24 + ^ x22: .cfa -32 + ^ .ra: .cfa -40 + ^ x29: .cfa -48 + ^
STACK CFI 498c8 .cfa: sp 48 +
STACK CFI 498d4 .cfa: sp 0 +
STACK CFI 498d8 .cfa: x29 48 +
STACK CFI 49a30 .cfa: sp 48 +
STACK CFI 49a3c .cfa: sp 0 +
STACK CFI 49a40 .cfa: x29 48 +
STACK CFI INIT 49a88 290 .cfa: sp 0 +
STACK CFI 49a8c .cfa: sp 240 +
STACK CFI 49a9c .cfa: x29 48 + x19: .cfa -8 + ^ x20: .cfa -16 + ^ x21: .cfa -32 + ^ .ra: .cfa -40 + ^ x29: .cfa -48 + ^
STACK CFI 49b40 .cfa: sp 240 +
STACK CFI 49b50 .cfa: sp 0 +
STACK CFI 49b54 .cfa: x29 48 +
STACK CFI 49c14 .cfa: sp 240 +
STACK CFI 49c24 .cfa: sp 0 +
STACK CFI 49c28 .cfa: x29 48 +
STACK CFI INIT 49d18 e8 .cfa: sp 0 +
STACK CFI 49d1c .cfa: sp 32 +
STACK CFI 49d24 .cfa: x29 32 + x19: .cfa -8 + ^ x20: .cfa -16 + ^ .ra: .cfa -24 + ^ x29: .cfa -32 + ^
STACK CFI 49d5c .cfa: sp 32 +
STACK CFI 49d64 .cfa: sp 0 +
STACK CFI 49d68 .cfa: x29 32 +
STACK CFI INIT 4a1a0 e8 .cfa: sp 0 +
STACK CFI 4a1a4 .cfa: sp 32 +
STACK CFI 4a1ac .cfa: x29 32 + x19: .cfa -8 + ^ x20: .cfa -16 + ^ .ra: .cfa -24 + ^ x29: .cfa -32 + ^
STACK CFI 4a1e4 .cfa: sp 32 +
STACK CFI 4a1ec .cfa: sp 0 +
STACK CFI 4a1f0 .cfa: x29 32 +
STACK CFI INIT 4a40c 19c .cfa: sp 0 +
STACK CFI 4a410 .cfa: sp 48 +
STACK CFI 4a41c .cfa: x29 48 + x19: .cfa -8 + ^ x20: .cfa -16 + ^ x21: .cfa -24 + ^ x22: .cfa -32 + ^ .ra: .cfa -40 + ^ x29: .cfa -48 + ^
STACK CFI 4a474 .cfa: sp 48 +
STACK CFI 4a480 .cfa: sp 0 +
STACK CFI 4a484 .cfa: x29 48 +
STACK CFI INIT 4a5a8 2dc .cfa: sp 0 +
STACK CFI 4a5ac .cfa: sp 64 +
STACK CFI 4a5b8 .cfa: x29 32 + x19: .cfa -8 + ^ x20: .cfa -16 + ^ .ra: .cfa -24 + ^ x29: .cfa -32 + ^
STACK CFI 4a5f0 .cfa: sp 64 +
STACK CFI 4a5fc .cfa: sp 0 +
STACK CFI 4a600 .cfa: x29 32 +
STACK CFI 4a61c .cfa: sp 64 +
STACK CFI 4a628 .cfa: sp 0 +
STACK CFI 4a62c .cfa: x29 32 +
STACK CFI 4a70c .cfa: sp 64 +
STACK CFI 4a718 .cfa: sp 0 +
STACK CFI 4a71c .cfa: x29 32 +
STACK CFI INIT 4a884 16c .cfa: sp 0 +
STACK CFI 4a888 .cfa: sp 32 +
STACK CFI 4a890 .cfa: x29 32 + x19: .cfa -16 + ^ .ra: .cfa -24 + ^ x29: .cfa -32 + ^
STACK CFI 4a8c4 .cfa: sp 32 +
STACK CFI 4a8cc .cfa: sp 0 +
STACK CFI 4a8d0 .cfa: x29 32 +
STACK CFI 4a8d4 .cfa: sp 32 +
STACK CFI 4a8dc .cfa: sp 0 +
STACK CFI 4a8e0 .cfa: x29 32 +
STACK CFI INIT 4a9f0 598 .cfa: sp 0 +
STACK CFI 4a9f4 .cfa: sp 96 +
STACK CFI 4aa0c .cfa: x29 96 + x19: .cfa -8 + ^ x20: .cfa -16 + ^ x21: .cfa -24 + ^ x22: .cfa -32 + ^ x23: .cfa -40 + ^ x24: .cfa -48 + ^ x25: .cfa -56 + ^ x26: .cfa -64 + ^ x27: .cfa -72 + ^ x28: .cfa -80 + ^ .ra: .cfa -88 + ^ x29: .cfa -96 + ^
STACK CFI 4ae34 .cfa: sp 96 +
STACK CFI 4ae4c .cfa: sp 0 +
STACK CFI 4ae50 .cfa: x29 96 +
STACK CFI INIT 4aff0 158 .cfa: sp 0 +
STACK CFI 4aff4 .cfa: sp 48 +
STACK CFI 4b000 .cfa: x29 48 + x19: .cfa -8 + ^ x20: .cfa -16 + ^ x21: .cfa -32 + ^ .ra: .cfa -40 + ^ x29: .cfa -48 + ^
STACK CFI 4b0c4 .cfa: sp 48 +
STACK CFI 4b0d0 .cfa: sp 0 +
STACK CFI 4b0d4 .cfa: x29 48 +
STACK CFI INIT 4b270 e0 .cfa: sp 0 +
STACK CFI 4b274 .cfa: sp 32 +
STACK CFI 4b27c .cfa: x29 32 + x19: .cfa -16 + ^ .ra: .cfa -24 + ^ x29: .cfa -32 + ^
STACK CFI 4b2c0 .cfa: sp 32 +
STACK CFI 4b2c8 .cfa: sp 0 +
STACK CFI 4b2cc .cfa: x29 32 +
STACK CFI INIT 4b350 8dc .cfa: sp 0 +
STACK CFI 4b354 .cfa: sp 96 +
STACK CFI 4b36c .cfa: x29 96 + x19: .cfa -8 + ^ x20: .cfa -16 + ^ x21: .cfa -24 + ^ x22: .cfa -32 + ^ x23: .cfa -40 + ^ x24: .cfa -48 + ^ x25: .cfa -56 + ^ x26: .cfa -64 + ^ x27: .cfa -72 + ^ x28: .cfa -80 + ^ .ra: .cfa -88 + ^ x29: .cfa -96 + ^
STACK CFI 4b8f4 .cfa: sp 96 +
STACK CFI 4b90c .cfa: sp 0 +
STACK CFI 4b910 .cfa: x29 96 +
STACK CFI INIT 4cac0 12c8 .cfa: sp 0 +
STACK CFI 4cac4 .cfa: sp 144 +
STACK CFI 4cae8 .cfa: x29 96 + x19: .cfa -8 + ^ x20: .cfa -16 + ^ x21: .cfa -24 + ^ x22: .cfa -32 + ^ x23: .cfa -40 + ^ x24: .cfa -48 + ^ x25: .cfa -56 + ^ x26: .cfa -64 + ^ x27: .cfa -72 + ^ x28: .cfa -80 + ^ .ra: .cfa -88 + ^ x29: .cfa -96 + ^ v8: .cfa -104 + ^ v9: .cfa -112 + ^ v10: .cfa -120 + ^ v11: .cfa -128 + ^ v12: .cfa -136 + ^ v13: .cfa -144 + ^
STACK CFI 4dc90 .cfa: sp 144 +
STACK CFI 4dcb4 .cfa: sp 0 +
STACK CFI 4dcb8 .cfa: x29 96 +
STACK CFI INIT 4dd88 47c .cfa: sp 0 +
STACK CFI 4dd8c .cfa: sp 240 +
STACK CFI 4dd9c .cfa: x29 48 + x19: .cfa -8 + ^ x20: .cfa -16 + ^ x21: .cfa -24 + ^ x22: .cfa -32 + ^ .ra: .cfa -40 + ^ x29: .cfa -48 + ^
STACK CFI 4df04 .cfa: sp 240 +
STACK CFI 4df14 .cfa: sp 0 +
STACK CFI 4df18 .cfa: x29 48 +
STACK CFI INIT 4e204 1c4 .cfa: sp 0 +
STACK CFI 4e208 .cfa: sp 128 +
STACK CFI 4e218 .cfa: x29 48 + x19: .cfa -8 + ^ x20: .cfa -16 + ^ x21: .cfa -24 + ^ x22: .cfa -32 + ^ .ra: .cfa -40 + ^ x29: .cfa -48 + ^
STACK CFI 4e33c .cfa: sp 128 +
STACK CFI 4e34c .cfa: sp 0 +
STACK CFI 4e350 .cfa: x29 48 +
STACK CFI INIT 4e414 304 .cfa: sp 0 +
STACK CFI 4e418 .cfa: sp 64 +
STACK CFI 4e428 .cfa: x29 64 + x19: .cfa -8 + ^ x20: .cfa -16 + ^ x21: .cfa -24 + ^ x22: .cfa -32 + ^ x23: .cfa -40 + ^ x24: .cfa -48 + ^ .ra: .cfa -56 + ^ x29: .cfa -64 + ^
STACK CFI 4e510 .cfa: sp 64 +
STACK CFI 4e520 .cfa: sp 0 +
STACK CFI 4e524 .cfa: x29 64 +
STACK CFI 4e6f0 .cfa: sp 64 +
STACK CFI 4e700 .cfa: sp 0 +
STACK CFI 4e704 .cfa: x29 64 +
STACK CFI INIT 4ea28 13c .cfa: sp 0 +
STACK CFI 4ea2c .cfa: sp 48 +
STACK CFI 4ea38 .cfa: x29 48 + x19: .cfa -8 + ^ x20: .cfa -16 + ^ x21: .cfa -24 + ^ x22: .cfa -32 + ^ .ra: .cfa -40 + ^ x29: .cfa -48 + ^
STACK CFI 4eb2c .cfa: sp 48 +
STACK CFI 4eb38 .cfa: sp 0 +
STACK CFI 4eb3c .cfa: x29 48 +
STACK CFI INIT 4eb64 174 .cfa: sp 0 +
STACK CFI 4eb68 .cfa: sp 112 +
STACK CFI 4eb84 .cfa: x29 96 + x19: .cfa -8 + ^ x20: .cfa -16 + ^ x21: .cfa -24 + ^ x22: .cfa -32 + ^ x23: .cfa -40 + ^ x24: .cfa -48 + ^ x25: .cfa -56 + ^ x26: .cfa -64 + ^ x27: .cfa -72 + ^ x28: .cfa -80 + ^ .ra: .cfa -88 + ^ x29: .cfa -96 + ^
STACK CFI 4ec64 .cfa: sp 112 +
STACK CFI 4ec80 .cfa: sp 0 +
STACK CFI 4ec84 .cfa: x29 96 +
STACK CFI INIT 4ecec 50 .cfa: sp 0 +
STACK CFI 4ecf0 .cfa: sp 32 +
STACK CFI 4ecf8 .cfa: x29 32 + x19: .cfa -8 + ^ x20: .cfa -16 + ^ .ra: .cfa -24 + ^ x29: .cfa -32 + ^
STACK CFI INIT 4ed6c 3a8 .cfa: sp 0 +
STACK CFI 4ed70 .cfa: sp 112 +
STACK CFI 4ed8c .cfa: x29 96 + x19: .cfa -8 + ^ x20: .cfa -16 + ^ x21: .cfa -24 + ^ x22: .cfa -32 + ^ x23: .cfa -40 + ^ x24: .cfa -48 + ^ x25: .cfa -56 + ^ x26: .cfa -64 + ^ x27: .cfa -72 + ^ x28: .cfa -80 + ^ .ra: .cfa -88 + ^ x29: .cfa -96 + ^
STACK CFI 4f0bc .cfa: sp 112 +
STACK CFI 4f0d8 .cfa: sp 0 +
STACK CFI 4f0dc .cfa: x29 96 +
STACK CFI INIT 4f568 120 .cfa: sp 0 +
STACK CFI 4f56c .cfa: sp 64 +
STACK CFI 4f57c .cfa: x29 64 + x19: .cfa -8 + ^ x20: .cfa -16 + ^ x21: .cfa -24 + ^ x22: .cfa -32 + ^ x23: .cfa -48 + ^ .ra: .cfa -56 + ^ x29: .cfa -64 + ^
STACK CFI 4f630 .cfa: sp 64 +
STACK CFI 4f640 .cfa: sp 0 +
STACK CFI 4f644 .cfa: x29 64 +
STACK CFI INIT 4fc48 c4 .cfa: sp 0 +
STACK CFI 4fc4c .cfa: sp 32 +
STACK CFI 4fc54 .cfa: x29 32 + x19: .cfa -16 + ^ .ra: .cfa -24 + ^ x29: .cfa -32 + ^
STACK CFI 4fc6c .cfa: sp 32 +
STACK CFI 4fc74 .cfa: sp 0 +
STACK CFI 4fc78 .cfa: x29 32 +
STACK CFI 4fce8 .cfa: sp 32 +
STACK CFI 4fcf0 .cfa: sp 0 +
STACK CFI 4fcf4 .cfa: x29 32 +
STACK CFI INIT 4fd34 3e4 .cfa: sp 0 +
STACK CFI 4fd38 .cfa: sp 192 +
STACK CFI 4fd48 .cfa: x29 48 + x19: .cfa -8 + ^ x20: .cfa -16 + ^ x21: .cfa -32 + ^ .ra: .cfa -40 + ^ x29: .cfa -48 + ^
STACK CFI 50008 .cfa: sp 192 +
STACK CFI 50018 .cfa: sp 0 +
STACK CFI 5001c .cfa: x29 48 +
STACK CFI INIT 50880 1e4 .cfa: sp 0 +
STACK CFI 50884 .cfa: sp 128 +
STACK CFI 50894 .cfa: x29 48 + x19: .cfa -8 + ^ x20: .cfa -16 + ^ x21: .cfa -32 + ^ .ra: .cfa -40 + ^ x29: .cfa -48 + ^
STACK CFI 50990 .cfa: sp 128 +
STACK CFI 509a0 .cfa: sp 0 +
STACK CFI 509a4 .cfa: x29 48 +
STACK CFI INIT 50a64 148 .cfa: sp 0 +
STACK CFI 50a68 .cfa: sp 112 +
STACK CFI 50a78 .cfa: x29 48 + x19: .cfa -8 + ^ x20: .cfa -16 + ^ x21: .cfa -32 + ^ .ra: .cfa -40 + ^ x29: .cfa -48 + ^
STACK CFI 50b40 .cfa: sp 112 +
STACK CFI 50b50 .cfa: sp 0 +
STACK CFI 50b54 .cfa: x29 48 +
STACK CFI INIT 50c24 1e4 .cfa: sp 0 +
STACK CFI 50c28 .cfa: sp 160 +
STACK CFI 50c38 .cfa: x29 48 + x19: .cfa -8 + ^ x20: .cfa -16 + ^ x21: .cfa -32 + ^ .ra: .cfa -40 + ^ x29: .cfa -48 + ^
STACK CFI 50d58 .cfa: sp 160 +
STACK CFI 50d68 .cfa: sp 0 +
STACK CFI 50d6c .cfa: x29 48 +
STACK CFI INIT 50e08 158 .cfa: sp 0 +
STACK CFI 50e0c .cfa: sp 112 +
STACK CFI 50e1c .cfa: x29 48 + x19: .cfa -8 + ^ x20: .cfa -16 + ^ x21: .cfa -32 + ^ .ra: .cfa -40 + ^ x29: .cfa -48 + ^
STACK CFI 50ef4 .cfa: sp 112 +
STACK CFI 50f04 .cfa: sp 0 +
STACK CFI 50f08 .cfa: x29 48 +
STACK CFI INIT 50f60 b6c .cfa: sp 0 +
STACK CFI 50f64 .cfa: sp 176 +
STACK CFI 50f84 .cfa: x29 96 + x19: .cfa -8 + ^ x20: .cfa -16 + ^ x21: .cfa -24 + ^ x22: .cfa -32 + ^ x23: .cfa -40 + ^ x24: .cfa -48 + ^ x25: .cfa -56 + ^ x26: .cfa -64 + ^ x27: .cfa -80 + ^ .ra: .cfa -88 + ^ x29: .cfa -96 + ^ v8: .cfa -104 + ^ v9: .cfa -112 + ^
STACK CFI 51964 .cfa: sp 176 +
STACK CFI 51984 .cfa: sp 0 +
STACK CFI 51988 .cfa: x29 96 +
STACK CFI INIT 51acc 288 .cfa: sp 0 +
STACK CFI 51ad0 .cfa: sp 144 +
STACK CFI 51ae8 .cfa: x29 40 + x19: .cfa -8 + ^ x20: .cfa -16 + ^ x21: .cfa -24 + ^ .ra: .cfa -32 + ^ x29: .cfa -40 + ^ v8: .cfa -48 + ^ v9: .cfa -56 + ^ v10: .cfa -64 + ^
STACK CFI 51c44 .cfa: sp 144 +
STACK CFI 51c5c .cfa: sp 0 +
STACK CFI 51c60 .cfa: x29 40 +
STACK CFI INIT 51d54 150 .cfa: sp 0 +
STACK CFI 51d58 .cfa: sp 112 +
STACK CFI 51d68 .cfa: x29 48 + x19: .cfa -8 + ^ x20: .cfa -16 + ^ x21: .cfa -32 + ^ .ra: .cfa -40 + ^ x29: .cfa -48 + ^
STACK CFI 51e38 .cfa: sp 112 +
STACK CFI 51e48 .cfa: sp 0 +
STACK CFI 51e4c .cfa: x29 48 +
STACK CFI INIT 51ea4 19c .cfa: sp 0 +
STACK CFI 51ea8 .cfa: sp 128 +
STACK CFI 51ebc .cfa: x29 64 + x19: .cfa -8 + ^ x20: .cfa -16 + ^ x21: .cfa -24 + ^ x22: .cfa -32 + ^ x23: .cfa -48 + ^ .ra: .cfa -56 + ^ x29: .cfa -64 + ^
STACK CFI 51fd0 .cfa: sp 128 +
STACK CFI 51fe4 .cfa: sp 0 +
STACK CFI 51fe8 .cfa: x29 64 +
STACK CFI INIT 52040 208 .cfa: sp 0 +
STACK CFI 52044 .cfa: sp 128 +
STACK CFI 52058 .cfa: x29 64 + x19: .cfa -8 + ^ x20: .cfa -16 + ^ x21: .cfa -24 + ^ x22: .cfa -32 + ^ x23: .cfa -40 + ^ x24: .cfa -48 + ^ .ra: .cfa -56 + ^ x29: .cfa -64 + ^
STACK CFI 521d8 .cfa: sp 128 +
STACK CFI 521ec .cfa: sp 0 +
STACK CFI 521f0 .cfa: x29 64 +
STACK CFI INIT 52564 298 .cfa: sp 0 +
STACK CFI 52568 .cfa: sp 176 +
STACK CFI 52578 .cfa: x29 48 + x19: .cfa -8 + ^ x20: .cfa -16 + ^ x21: .cfa -24 + ^ x22: .cfa -32 + ^ .ra: .cfa -40 + ^ x29: .cfa -48 + ^
STACK CFI 526d8 .cfa: sp 176 +
STACK CFI 526e8 .cfa: sp 0 +
STACK CFI 526ec .cfa: x29 48 +
STACK CFI INIT 527fc 1dc .cfa: sp 0 +
STACK CFI 52800 .cfa: sp 160 +
STACK CFI 52810 .cfa: x29 48 + x19: .cfa -8 + ^ x20: .cfa -16 + ^ x21: .cfa -32 + ^ .ra: .cfa -40 + ^ x29: .cfa -48 + ^
STACK CFI 52928 .cfa: sp 160 +
STACK CFI 52938 .cfa: sp 0 +
STACK CFI 5293c .cfa: x29 48 +
STACK CFI INIT 52e80 bc .cfa: sp 0 +
STACK CFI 52e84 .cfa: sp 32 +
STACK CFI 52e8c .cfa: x29 32 + x19: .cfa -16 + ^ .ra: .cfa -24 + ^ x29: .cfa -32 + ^
STACK CFI 52ea0 .cfa: sp 32 +
STACK CFI 52ea8 .cfa: sp 0 +
STACK CFI 52eac .cfa: x29 32 +
STACK CFI 52f18 .cfa: sp 32 +
STACK CFI 52f20 .cfa: sp 0 +
STACK CFI 52f24 .cfa: x29 32 +
STACK CFI INIT 52fa4 bc .cfa: sp 0 +
STACK CFI 52fa8 .cfa: sp 32 +
STACK CFI 52fb0 .cfa: x29 32 + x19: .cfa -16 + ^ .ra: .cfa -24 + ^ x29: .cfa -32 + ^
STACK CFI 52fc4 .cfa: sp 32 +
STACK CFI 52fcc .cfa: sp 0 +
STACK CFI 52fd0 .cfa: x29 32 +
STACK CFI 5303c .cfa: sp 32 +
STACK CFI 53044 .cfa: sp 0 +
STACK CFI 53048 .cfa: x29 32 +
STACK CFI INIT 530c8 d8 .cfa: sp 0 +
STACK CFI 530cc .cfa: sp 96 +
STACK CFI 530d8 .cfa: x29 32 + x19: .cfa -8 + ^ x20: .cfa -16 + ^ .ra: .cfa -24 + ^ x29: .cfa -32 + ^
STACK CFI 53140 .cfa: sp 96 +
STACK CFI 5314c .cfa: sp 0 +
STACK CFI 53150 .cfa: x29 32 +
STACK CFI INIT 53208 bc .cfa: sp 0 +
STACK CFI 5320c .cfa: sp 32 +
STACK CFI 53214 .cfa: x29 32 + x19: .cfa -16 + ^ .ra: .cfa -24 + ^ x29: .cfa -32 + ^
STACK CFI 53228 .cfa: sp 32 +
STACK CFI 53230 .cfa: sp 0 +
STACK CFI 53234 .cfa: x29 32 +
STACK CFI 532a0 .cfa: sp 32 +
STACK CFI 532a8 .cfa: sp 0 +
STACK CFI 532ac .cfa: x29 32 +
STACK CFI INIT 532ec 3e4 .cfa: sp 0 +
STACK CFI 532f0 .cfa: sp 192 +
STACK CFI 53300 .cfa: x29 48 + x19: .cfa -8 + ^ x20: .cfa -16 + ^ x21: .cfa -32 + ^ .ra: .cfa -40 + ^ x29: .cfa -48 + ^
STACK CFI 535c0 .cfa: sp 192 +
STACK CFI 535d0 .cfa: sp 0 +
STACK CFI 535d4 .cfa: x29 48 +
STACK CFI INIT 536d0 f0 .cfa: sp 0 +
STACK CFI 536d4 .cfa: sp 400 +
STACK CFI 536e4 .cfa: x29 48 + x19: .cfa -8 + ^ x20: .cfa -16 + ^ x21: .cfa -24 + ^ x28: .cfa -32 + ^ .ra: .cfa -40 + ^ x29: .cfa -48 + ^
STACK CFI 53778 .cfa: sp 400 +
STACK CFI 53788 .cfa: sp 0 +
STACK CFI 5378c .cfa: x29 48 +
STACK CFI INIT 537c0 26c .cfa: sp 0 +
STACK CFI 537c4 .cfa: sp 384 +
STACK CFI 537d8 .cfa: x29 64 + x19: .cfa -8 + ^ x20: .cfa -16 + ^ x21: .cfa -24 + ^ x22: .cfa -32 + ^ x28: .cfa -48 + ^ .ra: .cfa -56 + ^ x29: .cfa -64 + ^
STACK CFI 5393c .cfa: sp 384 +
STACK CFI 53950 .cfa: sp 0 +
STACK CFI 53954 .cfa: x29 64 +
STACK CFI INIT 53a2c 1c .cfa: sp 0 +
STACK CFI 53a30 .cfa: sp 16 +
STACK CFI 53a34 .cfa: x29 16 + .ra: .cfa -8 + ^ x29: .cfa -16 + ^
STACK CFI 53a3c .cfa: sp 16 +
STACK CFI 53a40 .cfa: sp 0 +
STACK CFI 53a44 .cfa: x29 16 +
STACK CFI INIT 53a98 16c .cfa: sp 0 +
STACK CFI 53a9c .cfa: sp 416 +
STACK CFI 53aac .cfa: x29 48 + x19: .cfa -8 + ^ x20: .cfa -16 + ^ x21: .cfa -24 + ^ x28: .cfa -32 + ^ .ra: .cfa -40 + ^ x29: .cfa -48 + ^
STACK CFI 53bac .cfa: sp 416 +
STACK CFI 53bbc .cfa: sp 0 +
STACK CFI 53bc0 .cfa: x29 48 +
STACK CFI INIT 53c04 2cc .cfa: sp 0 +
STACK CFI 53c08 .cfa: sp 96 +
STACK CFI 53c20 .cfa: x29 96 + x19: .cfa -8 + ^ x20: .cfa -16 + ^ x21: .cfa -24 + ^ x22: .cfa -32 + ^ x23: .cfa -40 + ^ x24: .cfa -48 + ^ x25: .cfa -56 + ^ x26: .cfa -64 + ^ x27: .cfa -72 + ^ x28: .cfa -80 + ^ .ra: .cfa -88 + ^ x29: .cfa -96 + ^
STACK CFI 53e54 .cfa: sp 96 +
STACK CFI 53e6c .cfa: sp 0 +
STACK CFI 53e70 .cfa: x29 96 +
STACK CFI INIT 53f20 fc .cfa: sp 0 +
STACK CFI 53f24 .cfa: sp 64 +
STACK CFI 53f30 .cfa: x29 32 + x19: .cfa -8 + ^ x20: .cfa -16 + ^ .ra: .cfa -24 + ^ x29: .cfa -32 + ^
STACK CFI 53fc0 .cfa: sp 64 +
STACK CFI 53fcc .cfa: sp 0 +
STACK CFI 53fd0 .cfa: x29 32 +
STACK CFI INIT 540b8 2b8 .cfa: sp 0 +
STACK CFI 540bc .cfa: sp 80 +
STACK CFI 540d0 .cfa: x29 80 + x19: .cfa -8 + ^ x20: .cfa -16 + ^ x21: .cfa -24 + ^ x22: .cfa -32 + ^ x23: .cfa -40 + ^ x24: .cfa -48 + ^ x25: .cfa -56 + ^ x28: .cfa -64 + ^ .ra: .cfa -72 + ^ x29: .cfa -80 + ^
STACK CFI 542d8 .cfa: sp 80 +
STACK CFI 542ec .cfa: sp 0 +
STACK CFI 542f0 .cfa: x29 80 +
STACK CFI INIT 54370 c38 .cfa: sp 0 +
STACK CFI 54374 .cfa: sp 96 +
STACK CFI 5438c .cfa: x29 96 + x19: .cfa -8 + ^ x20: .cfa -16 + ^ x21: .cfa -24 + ^ x22: .cfa -32 + ^ x23: .cfa -40 + ^ x24: .cfa -48 + ^ x25: .cfa -56 + ^ x26: .cfa -64 + ^ x27: .cfa -72 + ^ x28: .cfa -80 + ^ .ra: .cfa -88 + ^ x29: .cfa -96 + ^
STACK CFI 54d44 .cfa: sp 96 +
STACK CFI 54d5c .cfa: sp 0 +
STACK CFI 54d60 .cfa: x29 96 +
STACK CFI INIT 54ff8 ad0 .cfa: sp 0 +
STACK CFI 54ffc .cfa: sp 304 +
STACK CFI 55018 .cfa: x29 96 + x19: .cfa -8 + ^ x20: .cfa -16 + ^ x21: .cfa -24 + ^ x22: .cfa -32 + ^ x23: .cfa -40 + ^ x24: .cfa -48 + ^ x25: .cfa -56 + ^ x26: .cfa -64 + ^ x27: .cfa -72 + ^ x28: .cfa -80 + ^ .ra: .cfa -88 + ^ x29: .cfa -96 + ^
STACK CFI 558bc .cfa: sp 304 +
STACK CFI 558d8 .cfa: sp 0 +
STACK CFI 558dc .cfa: x29 96 +
STACK CFI INIT 55ac8 e6c .cfa: sp 0 +
STACK CFI 55acc .cfa: sp 96 +
STACK CFI 55ae4 .cfa: x29 96 + x19: .cfa -8 + ^ x20: .cfa -16 + ^ x21: .cfa -24 + ^ x22: .cfa -32 + ^ x23: .cfa -40 + ^ x24: .cfa -48 + ^ x25: .cfa -56 + ^ x26: .cfa -64 + ^ x27: .cfa -72 + ^ x28: .cfa -80 + ^ .ra: .cfa -88 + ^ x29: .cfa -96 + ^
STACK CFI 56700 .cfa: sp 96 +
STACK CFI 56718 .cfa: sp 0 +
STACK CFI 5671c .cfa: x29 96 +
STACK CFI INIT 569b0 b70 .cfa: sp 0 +
STACK CFI 569b4 .cfa: sp 96 +
STACK CFI 569cc .cfa: x29 80 + x19: .cfa -8 + ^ x20: .cfa -16 + ^ x21: .cfa -24 + ^ x22: .cfa -32 + ^ x23: .cfa -40 + ^ x24: .cfa -48 + ^ x25: .cfa -56 + ^ x28: .cfa -64 + ^ .ra: .cfa -72 + ^ x29: .cfa -80 + ^ v8: .cfa -96 + ^
STACK CFI 571b4 .cfa: sp 96 +
STACK CFI 571cc .cfa: sp 0 +
STACK CFI 571d0 .cfa: x29 80 +
STACK CFI INIT 57520 24a8 .cfa: sp 0 +
STACK CFI 57524 .cfa: sp 160 +
STACK CFI 5754c .cfa: x29 96 + x19: .cfa -8 + ^ x20: .cfa -16 + ^ x21: .cfa -24 + ^ x22: .cfa -32 + ^ x23: .cfa -40 + ^ x24: .cfa -48 + ^ x25: .cfa -56 + ^ x26: .cfa -64 + ^ x27: .cfa -72 + ^ x28: .cfa -80 + ^ .ra: .cfa -88 + ^ x29: .cfa -96 + ^ v8: .cfa -104 + ^ v9: .cfa -112 + ^ v10: .cfa -120 + ^ v11: .cfa -128 + ^ v12: .cfa -136 + ^ v13: .cfa -144 + ^ v14: .cfa -152 + ^ v15: .cfa -160 + ^
STACK CFI 59230 .cfa: sp 160 +
STACK CFI 59258 .cfa: sp 0 +
STACK CFI 5925c .cfa: x29 96 +
STACK CFI INIT 599c8 175c .cfa: sp 0 +
STACK CFI 599cc .cfa: sp 160 +
STACK CFI 599f4 .cfa: x29 96 + x19: .cfa -8 + ^ x20: .cfa -16 + ^ x21: .cfa -24 + ^ x22: .cfa -32 + ^ x23: .cfa -40 + ^ x24: .cfa -48 + ^ x25: .cfa -56 + ^ x26: .cfa -64 + ^ x27: .cfa -72 + ^ x28: .cfa -80 + ^ .ra: .cfa -88 + ^ x29: .cfa -96 + ^ v8: .cfa -104 + ^ v9: .cfa -112 + ^ v10: .cfa -120 + ^ v11: .cfa -128 + ^ v12: .cfa -136 + ^ v13: .cfa -144 + ^ v14: .cfa -152 + ^ v15: .cfa -160 + ^
STACK CFI 5a600 .cfa: sp 160 +
STACK CFI 5a628 .cfa: sp 0 +
STACK CFI 5a62c .cfa: x29 96 +
STACK CFI INIT 5b124 128 .cfa: sp 0 +
STACK CFI 5b128 .cfa: sp 96 +
STACK CFI 5b13c .cfa: x29 64 + x19: .cfa -8 + ^ x20: .cfa -16 + ^ x21: .cfa -24 + ^ x22: .cfa -32 + ^ x23: .cfa -40 + ^ x24: .cfa -48 + ^ .ra: .cfa -56 + ^ x29: .cfa -64 + ^
STACK CFI 5b1ec .cfa: sp 96 +
STACK CFI 5b200 .cfa: sp 0 +
STACK CFI 5b204 .cfa: x29 64 +
STACK CFI INIT 5b24c 3d4 .cfa: sp 0 +
STACK CFI 5b250 .cfa: sp 384 +
STACK CFI 5b26c .cfa: x29 96 + x19: .cfa -8 + ^ x20: .cfa -16 + ^ x21: .cfa -24 + ^ x22: .cfa -32 + ^ x23: .cfa -40 + ^ x24: .cfa -48 + ^ x25: .cfa -56 + ^ x26: .cfa -64 + ^ x27: .cfa -72 + ^ x28: .cfa -80 + ^ .ra: .cfa -88 + ^ x29: .cfa -96 + ^
STACK CFI 5b52c .cfa: sp 384 +
STACK CFI 5b548 .cfa: sp 0 +
STACK CFI 5b54c .cfa: x29 96 +
STACK CFI INIT 5b66c 2c8 .cfa: sp 0 +
STACK CFI 5b670 .cfa: sp 64 +
STACK CFI 5b680 .cfa: x29 64 + x19: .cfa -8 + ^ x20: .cfa -16 + ^ x21: .cfa -24 + ^ x22: .cfa -32 + ^ x23: .cfa -40 + ^ x24: .cfa -48 + ^ .ra: .cfa -56 + ^ x29: .cfa -64 + ^
STACK CFI 5b6dc .cfa: sp 64 +
STACK CFI 5b6ec .cfa: sp 0 +
STACK CFI 5b6f0 .cfa: x29 64 +
STACK CFI 5b724 .cfa: sp 64 +
STACK CFI 5b734 .cfa: sp 0 +
STACK CFI 5b738 .cfa: x29 64 +
STACK CFI 5b7a8 .cfa: sp 64 +
STACK CFI 5b7b8 .cfa: sp 0 +
STACK CFI 5b7bc .cfa: sp 64 +
STACK CFI 5b7cc .cfa: sp 0 +
STACK CFI 5b7d0 .cfa: x29 64 +
STACK CFI 5b7d8 .cfa: sp 64 +
STACK CFI 5b7e8 .cfa: sp 0 +
STACK CFI 5b7ec .cfa: x29 64 +
STACK CFI 5b898 .cfa: sp 64 +
STACK CFI 5b8a8 .cfa: sp 0 +
STACK CFI 5b8ac .cfa: x29 64 +
STACK CFI INIT 5b934 2bc .cfa: sp 0 +
STACK CFI 5b938 .cfa: sp 144 +
STACK CFI 5b950 .cfa: x29 80 + x19: .cfa -8 + ^ x20: .cfa -16 + ^ x21: .cfa -24 + ^ x22: .cfa -32 + ^ x23: .cfa -40 + ^ x24: .cfa -48 + ^ x25: .cfa -56 + ^ x26: .cfa -64 + ^ .ra: .cfa -72 + ^ x29: .cfa -80 + ^
STACK CFI 5baf0 .cfa: sp 144 +
STACK CFI 5bb08 .cfa: sp 0 +
STACK CFI 5bb0c .cfa: x29 80 +
STACK CFI INIT 5bcec 216c .cfa: sp 0 +
STACK CFI 5bcf0 .cfa: sp 112 +
STACK CFI 5bd0c .cfa: x29 96 + x19: .cfa -8 + ^ x20: .cfa -16 + ^ x21: .cfa -24 + ^ x22: .cfa -32 + ^ x23: .cfa -40 + ^ x24: .cfa -48 + ^ x25: .cfa -56 + ^ x26: .cfa -64 + ^ x27: .cfa -72 + ^ x28: .cfa -80 + ^ .ra: .cfa -88 + ^ x29: .cfa -96 + ^ v8: .cfa -104 + ^ v9: .cfa -112 + ^
STACK CFI 5db98 .cfa: sp 112 +
STACK CFI 5dbb4 .cfa: sp 0 +
STACK CFI 5dbb8 .cfa: x29 96 +
STACK CFI INIT 5de58 840 .cfa: sp 0 +
STACK CFI 5de5c .cfa: sp 112 +
STACK CFI 5de78 .cfa: x29 96 + x19: .cfa -8 + ^ x20: .cfa -16 + ^ x21: .cfa -24 + ^ x22: .cfa -32 + ^ x23: .cfa -40 + ^ x24: .cfa -48 + ^ x25: .cfa -56 + ^ x26: .cfa -64 + ^ x27: .cfa -72 + ^ x28: .cfa -80 + ^ .ra: .cfa -88 + ^ x29: .cfa -96 + ^ v8: .cfa -104 + ^ v9: .cfa -112 + ^
STACK CFI 5e540 .cfa: sp 112 +
STACK CFI 5e55c .cfa: sp 0 +
STACK CFI 5e560 .cfa: x29 96 +
STACK CFI INIT 5e698 1e30 .cfa: sp 0 +
STACK CFI 5e69c .cfa: sp 112 +
STACK CFI 5e6b8 .cfa: x29 96 + x19: .cfa -8 + ^ x20: .cfa -16 + ^ x21: .cfa -24 + ^ x22: .cfa -32 + ^ x23: .cfa -40 + ^ x24: .cfa -48 + ^ x25: .cfa -56 + ^ x26: .cfa -64 + ^ x27: .cfa -72 + ^ x28: .cfa -80 + ^ .ra: .cfa -88 + ^ x29: .cfa -96 + ^ v8: .cfa -104 + ^ v9: .cfa -112 + ^
STACK CFI 60170 .cfa: sp 112 +
STACK CFI 6018c .cfa: sp 0 +
STACK CFI 60190 .cfa: x29 96 +
STACK CFI INIT 604c8 9f8 .cfa: sp 0 +
STACK CFI 604cc .cfa: sp 96 +
STACK CFI 604e4 .cfa: x29 80 + x19: .cfa -8 + ^ x20: .cfa -16 + ^ x21: .cfa -24 + ^ x22: .cfa -32 + ^ x23: .cfa -40 + ^ x24: .cfa -48 + ^ x25: .cfa -56 + ^ x28: .cfa -64 + ^ .ra: .cfa -72 + ^ x29: .cfa -80 + ^ v8: .cfa -88 + ^ v9: .cfa -96 + ^
STACK CFI 60dbc .cfa: sp 96 +
STACK CFI 60dd4 .cfa: sp 0 +
STACK CFI 60dd8 .cfa: x29 80 +
STACK CFI INIT 60ec0 1c50 .cfa: sp 0 +
STACK CFI 60ec4 .cfa: sp 112 +
STACK CFI 60ee0 .cfa: x29 96 + x19: .cfa -8 + ^ x20: .cfa -16 + ^ x21: .cfa -24 + ^ x22: .cfa -32 + ^ x23: .cfa -40 + ^ x24: .cfa -48 + ^ x25: .cfa -56 + ^ x26: .cfa -64 + ^ x27: .cfa -72 + ^ x28: .cfa -80 + ^ .ra: .cfa -88 + ^ x29: .cfa -96 + ^ v8: .cfa -104 + ^ v9: .cfa -112 + ^
STACK CFI 626b8 .cfa: sp 112 +
STACK CFI 626d4 .cfa: sp 0 +
STACK CFI 626d8 .cfa: x29 96 +
STACK CFI INIT 62b10 1aa0 .cfa: sp 0 +
STACK CFI 62b14 .cfa: sp 112 +
STACK CFI 62b30 .cfa: x29 96 + x19: .cfa -8 + ^ x20: .cfa -16 + ^ x21: .cfa -24 + ^ x22: .cfa -32 + ^ x23: .cfa -40 + ^ x24: .cfa -48 + ^ x25: .cfa -56 + ^ x26: .cfa -64 + ^ x27: .cfa -72 + ^ x28: .cfa -80 + ^ .ra: .cfa -88 + ^ x29: .cfa -96 + ^ v8: .cfa -104 + ^ v9: .cfa -112 + ^
STACK CFI 64168 .cfa: sp 112 +
STACK CFI 64184 .cfa: sp 0 +
STACK CFI 64188 .cfa: x29 96 +
STACK CFI INIT 645b0 8c4 .cfa: sp 0 +
STACK CFI 645b4 .cfa: sp 112 +
STACK CFI 645d0 .cfa: x29 96 + x19: .cfa -8 + ^ x20: .cfa -16 + ^ x21: .cfa -24 + ^ x22: .cfa -32 + ^ x23: .cfa -40 + ^ x24: .cfa -48 + ^ x25: .cfa -56 + ^ x26: .cfa -64 + ^ x27: .cfa -72 + ^ x28: .cfa -80 + ^ .ra: .cfa -88 + ^ x29: .cfa -96 + ^ v8: .cfa -104 + ^ v9: .cfa -112 + ^
STACK CFI 64d98 .cfa: sp 112 +
STACK CFI 64db4 .cfa: sp 0 +
STACK CFI 64db8 .cfa: x29 96 +
STACK CFI INIT 65220 654 .cfa: sp 0 +
STACK CFI 65224 .cfa: sp 112 +
STACK CFI 65240 .cfa: x29 96 + x19: .cfa -8 + ^ x20: .cfa -16 + ^ x21: .cfa -24 + ^ x22: .cfa -32 + ^ x23: .cfa -40 + ^ x24: .cfa -48 + ^ x25: .cfa -56 + ^ x26: .cfa -64 + ^ x28: .cfa -80 + ^ .ra: .cfa -88 + ^ x29: .cfa -96 + ^ v8: .cfa -104 + ^ v9: .cfa -112 + ^
STACK CFI 65744 .cfa: sp 112 +
STACK CFI 65760 .cfa: sp 0 +
STACK CFI 65764 .cfa: x29 96 +
STACK CFI INIT 65968 a30 .cfa: sp 0 +
STACK CFI 6596c .cfa: sp 112 +
STACK CFI 65988 .cfa: x29 96 + x19: .cfa -8 + ^ x20: .cfa -16 + ^ x21: .cfa -24 + ^ x22: .cfa -32 + ^ x23: .cfa -40 + ^ x24: .cfa -48 + ^ x25: .cfa -56 + ^ x26: .cfa -64 + ^ x27: .cfa -72 + ^ x28: .cfa -80 + ^ .ra: .cfa -88 + ^ x29: .cfa -96 + ^ v8: .cfa -104 + ^ v9: .cfa -112 + ^
STACK CFI 6625c .cfa: sp 112 +
STACK CFI 66278 .cfa: sp 0 +
STACK CFI 6627c .cfa: x29 96 +
STACK CFI INIT 66414 1d4 .cfa: sp 0 +
STACK CFI 66418 .cfa: sp 96 +
STACK CFI 66428 .cfa: x29 48 + x19: .cfa -8 + ^ x20: .cfa -16 + ^ x21: .cfa -24 + ^ x22: .cfa -32 + ^ .ra: .cfa -40 + ^ x29: .cfa -48 + ^
STACK CFI 6647c .cfa: sp 96 +
STACK CFI 6648c .cfa: sp 0 +
STACK CFI 66490 .cfa: x29 48 +
STACK CFI 664a0 .cfa: sp 96 +
STACK CFI 664b0 .cfa: sp 0 +
STACK CFI 664b4 .cfa: x29 48 +
STACK CFI 664e0 .cfa: sp 96 +
STACK CFI 664f0 .cfa: sp 0 +
STACK CFI 664f4 .cfa: x29 48 +
STACK CFI 66510 .cfa: sp 96 +
STACK CFI 66520 .cfa: sp 0 +
STACK CFI 66524 .cfa: x29 48 +
STACK CFI INIT 665e8 1e8 .cfa: sp 0 +
STACK CFI 665ec .cfa: sp 160 +
STACK CFI 665fc .cfa: x29 48 + x19: .cfa -8 + ^ x20: .cfa -16 + ^ x21: .cfa -24 + ^ x22: .cfa -32 + ^ .ra: .cfa -40 + ^ x29: .cfa -48 + ^
STACK CFI 66710 .cfa: sp 160 +
STACK CFI 66720 .cfa: sp 0 +
STACK CFI 66724 .cfa: x29 48 +
STACK CFI INIT 667d0 a8 .cfa: sp 0 +
STACK CFI 667d4 .cfa: sp 48 +
STACK CFI 667e0 .cfa: x29 48 + x19: .cfa -8 + ^ x20: .cfa -16 + ^ x21: .cfa -24 + ^ x22: .cfa -32 + ^ .ra: .cfa -40 + ^ x29: .cfa -48 + ^
STACK CFI 6684c .cfa: sp 48 +
STACK CFI 66858 .cfa: sp 0 +
STACK CFI 6685c .cfa: x29 48 +
STACK CFI INIT 668a4 100 .cfa: sp 0 +
STACK CFI 668a8 .cfa: sp 48 +
STACK CFI 668b4 .cfa: x29 48 + x19: .cfa -8 + ^ x20: .cfa -16 + ^ x21: .cfa -24 + ^ x22: .cfa -32 + ^ .ra: .cfa -40 + ^ x29: .cfa -48 + ^
STACK CFI 66978 .cfa: sp 48 +
STACK CFI 66984 .cfa: sp 0 +
STACK CFI 66988 .cfa: x29 48 +
STACK CFI INIT 669a4 154 .cfa: sp 0 +
STACK CFI 669a8 .cfa: sp 112 +
STACK CFI 669c4 .cfa: x29 96 + x19: .cfa -8 + ^ x20: .cfa -16 + ^ x21: .cfa -24 + ^ x22: .cfa -32 + ^ x23: .cfa -40 + ^ x24: .cfa -48 + ^ x25: .cfa -56 + ^ x26: .cfa -64 + ^ x27: .cfa -72 + ^ x28: .cfa -80 + ^ .ra: .cfa -88 + ^ x29: .cfa -96 + ^
STACK CFI 66abc .cfa: sp 112 +
STACK CFI 66ad8 .cfa: sp 0 +
STACK CFI 66adc .cfa: x29 96 +
STACK CFI INIT 66b70 15c .cfa: sp 0 +
STACK CFI 66b74 .cfa: sp 96 +
STACK CFI 66b84 .cfa: x29 48 + x19: .cfa -8 + ^ x20: .cfa -16 + ^ x21: .cfa -32 + ^ .ra: .cfa -40 + ^ x29: .cfa -48 + ^
STACK CFI 66c68 .cfa: sp 96 +
STACK CFI 66c78 .cfa: sp 0 +
STACK CFI 66c7c .cfa: x29 48 +
STACK CFI INIT 66ccc 17c .cfa: sp 0 +
STACK CFI 66cd0 .cfa: sp 96 +
STACK CFI 66ce0 .cfa: x29 48 + x19: .cfa -8 + ^ x20: .cfa -16 + ^ x21: .cfa -32 + ^ .ra: .cfa -40 + ^ x29: .cfa -48 + ^
STACK CFI 66d64 .cfa: sp 96 +
STACK CFI 66d74 .cfa: sp 0 +
STACK CFI 66d78 .cfa: x29 48 +
STACK CFI INIT 66e48 a8 .cfa: sp 0 +
STACK CFI 66e4c .cfa: sp 48 +
STACK CFI 66e58 .cfa: x29 48 + x19: .cfa -8 + ^ x20: .cfa -16 + ^ x21: .cfa -32 + ^ .ra: .cfa -40 + ^ x29: .cfa -48 + ^
STACK CFI 66ec4 .cfa: sp 48 +
STACK CFI 66ed0 .cfa: sp 0 +
STACK CFI 66ed4 .cfa: x29 48 +
STACK CFI INIT 67018 5a0 .cfa: sp 0 +
STACK CFI 6701c .cfa: sp 176 +
STACK CFI 67038 .cfa: x29 96 + x19: .cfa -8 + ^ x20: .cfa -16 + ^ x21: .cfa -24 + ^ x22: .cfa -32 + ^ x23: .cfa -40 + ^ x24: .cfa -48 + ^ x25: .cfa -56 + ^ x26: .cfa -64 + ^ x27: .cfa -72 + ^ x28: .cfa -80 + ^ .ra: .cfa -88 + ^ x29: .cfa -96 + ^
STACK CFI 67504 .cfa: sp 176 +
STACK CFI 67520 .cfa: sp 0 +
STACK CFI 67524 .cfa: x29 96 +
STACK CFI INIT 675b8 ec .cfa: sp 0 +
STACK CFI 675bc .cfa: sp 48 +
STACK CFI 675c8 .cfa: x29 48 + x19: .cfa -8 + ^ x20: .cfa -16 + ^ x21: .cfa -24 + ^ x22: .cfa -32 + ^ .ra: .cfa -40 + ^ x29: .cfa -48 + ^
STACK CFI 67678 .cfa: sp 48 +
STACK CFI 67684 .cfa: sp 0 +
STACK CFI 67688 .cfa: sp 48 +
STACK CFI 67694 .cfa: sp 0 +
STACK CFI 67698 .cfa: x29 48 +
STACK CFI INIT 676a4 64 .cfa: sp 0 +
STACK CFI 676a8 .cfa: sp 48 +
STACK CFI 676b4 .cfa: x29 48 + x19: .cfa -8 + ^ x20: .cfa -16 + ^ x21: .cfa -32 + ^ .ra: .cfa -40 + ^ x29: .cfa -48 + ^
STACK CFI 676e4 .cfa: sp 48 +
STACK CFI 676f0 .cfa: sp 0 +
STACK CFI 676f4 .cfa: sp 48 +
STACK CFI 67700 .cfa: sp 0 +
STACK CFI 67704 .cfa: x29 48 +
STACK CFI INIT 6771c 58 .cfa: sp 0 +
STACK CFI 67720 .cfa: sp 32 +
STACK CFI 67728 .cfa: x29 32 + x19: .cfa -8 + ^ x20: .cfa -16 + ^ .ra: .cfa -24 + ^ x29: .cfa -32 + ^
STACK CFI 67758 .cfa: sp 32 +
STACK CFI 67760 .cfa: sp 0 +
STACK CFI 67764 .cfa: sp 32 +
STACK CFI 6776c .cfa: sp 0 +
STACK CFI 67770 .cfa: x29 32 +
STACK CFI INIT 67774 138 .cfa: sp 0 +
STACK CFI 67778 .cfa: sp 64 +
STACK CFI 67788 .cfa: x29 64 + x19: .cfa -8 + ^ x20: .cfa -16 + ^ x21: .cfa -24 + ^ x22: .cfa -32 + ^ x23: .cfa -48 + ^ .ra: .cfa -56 + ^ x29: .cfa -64 + ^
STACK CFI 67888 .cfa: sp 64 +
STACK CFI 67898 .cfa: sp 0 +
STACK CFI 6789c .cfa: x29 64 +
STACK CFI INIT 678ac 68 .cfa: sp 0 +
STACK CFI 678b0 .cfa: sp 32 +
STACK CFI 678b8 .cfa: x29 32 + x19: .cfa -8 + ^ x20: .cfa -16 + ^ .ra: .cfa -24 + ^ x29: .cfa -32 + ^
STACK CFI 678f8 .cfa: sp 32 +
STACK CFI 67900 .cfa: sp 0 +
STACK CFI 67904 .cfa: sp 32 +
STACK CFI 6790c .cfa: sp 0 +
STACK CFI 67910 .cfa: x29 32 +
STACK CFI INIT 67914 114 .cfa: sp 0 +
STACK CFI 67918 .cfa: sp 80 +
STACK CFI 6792c .cfa: x29 80 + x19: .cfa -8 + ^ x20: .cfa -16 + ^ x21: .cfa -24 + ^ x22: .cfa -32 + ^ x23: .cfa -40 + ^ x24: .cfa -48 + ^ x25: .cfa -56 + ^ x26: .cfa -64 + ^ .ra: .cfa -72 + ^ x29: .cfa -80 + ^
STACK CFI 679cc .cfa: sp 80 +
STACK CFI 679e0 .cfa: sp 0 +
STACK CFI 679e4 .cfa: x29 80 +
STACK CFI INIT 67b3c 3284 .cfa: sp 0 +
STACK CFI 67b40 .cfa: sp 112 +
STACK CFI 67b5c .cfa: x29 96 + x19: .cfa -8 + ^ x20: .cfa -16 + ^ x21: .cfa -24 + ^ x22: .cfa -32 + ^ x23: .cfa -40 + ^ x24: .cfa -48 + ^ x25: .cfa -56 + ^ x26: .cfa -64 + ^ x27: .cfa -72 + ^ x28: .cfa -80 + ^ .ra: .cfa -88 + ^ x29: .cfa -96 + ^ v8: .cfa -112 + ^
STACK CFI 69d78 .cfa: sp 112 +
STACK CFI 69d94 .cfa: sp 0 +
STACK CFI 69d98 .cfa: x29 96 +
STACK CFI INIT 6adc0 ac .cfa: sp 0 +
STACK CFI 6adc4 .cfa: sp 32 +
STACK CFI 6adcc .cfa: x29 32 + x19: .cfa -16 + ^ .ra: .cfa -24 + ^ x29: .cfa -32 + ^
STACK CFI 6ae34 .cfa: sp 32 +
STACK CFI 6ae3c .cfa: sp 0 +
STACK CFI 6ae40 .cfa: x29 32 +
STACK CFI 6ae50 .cfa: sp 32 +
STACK CFI 6ae58 .cfa: sp 0 +
STACK CFI 6ae5c .cfa: sp 32 +
STACK CFI 6ae64 .cfa: sp 0 +
STACK CFI 6ae68 .cfa: x29 32 +
STACK CFI INIT 6ae6c 30 .cfa: sp 0 +
STACK CFI 6ae70 .cfa: sp 16 +
STACK CFI 6ae74 .cfa: x29 16 + .ra: .cfa -8 + ^ x29: .cfa -16 + ^
STACK CFI 6ae90 .cfa: sp 16 +
STACK CFI 6ae94 .cfa: sp 0 +
STACK CFI 6ae98 .cfa: x29 16 +
STACK CFI INIT 6ae9c 60 .cfa: sp 0 +
STACK CFI 6aea0 .cfa: sp 32 +
STACK CFI 6aea8 .cfa: x29 32 + x19: .cfa -16 + ^ .ra: .cfa -24 + ^ x29: .cfa -32 + ^
STACK CFI 6aeec .cfa: sp 32 +
STACK CFI 6aef4 .cfa: sp 0 +
STACK CFI 6aef8 .cfa: x29 32 +
STACK CFI INIT 6aefc 1af0 .cfa: sp 0 +
STACK CFI 6af00 .cfa: sp 144 +
STACK CFI 6af1c .cfa: x29 96 + x19: .cfa -8 + ^ x20: .cfa -16 + ^ x21: .cfa -24 + ^ x22: .cfa -32 + ^ x23: .cfa -40 + ^ x24: .cfa -48 + ^ x25: .cfa -56 + ^ x26: .cfa -64 + ^ x27: .cfa -72 + ^ x28: .cfa -80 + ^ .ra: .cfa -88 + ^ x29: .cfa -96 + ^
STACK CFI 6b16c .cfa: sp 144 +
STACK CFI 6b188 .cfa: sp 0 +
STACK CFI 6b18c .cfa: x29 96 +
STACK CFI INIT 6d11c 104 .cfa: sp 0 +
STACK CFI 6d120 .cfa: sp 96 +
STACK CFI 6d134 .cfa: x29 64 + x19: .cfa -8 + ^ x20: .cfa -16 + ^ x21: .cfa -24 + ^ x22: .cfa -32 + ^ x23: .cfa -48 + ^ .ra: .cfa -56 + ^ x29: .cfa -64 + ^
STACK CFI 6d1d4 .cfa: sp 96 +
STACK CFI 6d1e8 .cfa: sp 0 +
STACK CFI 6d1ec .cfa: x29 64 +
STACK CFI INIT 6d220 4ec .cfa: sp 0 +
STACK CFI 6d224 .cfa: sp 240 +
STACK CFI 6d23c .cfa: x29 80 + x19: .cfa -8 + ^ x20: .cfa -16 + ^ x21: .cfa -24 + ^ x22: .cfa -32 + ^ x23: .cfa -40 + ^ x24: .cfa -48 + ^ x25: .cfa -56 + ^ x26: .cfa -64 + ^ .ra: .cfa -72 + ^ x29: .cfa -80 + ^
STACK CFI 6d5a0 .cfa: sp 240 +
STACK CFI 6d5b8 .cfa: sp 0 +
STACK CFI 6d5bc .cfa: x29 80 +
STACK CFI INIT 6d70c 46c .cfa: sp 0 +
STACK CFI 6d710 .cfa: sp 128 +
STACK CFI 6d724 .cfa: x29 64 + x19: .cfa -8 + ^ x20: .cfa -16 + ^ x21: .cfa -24 + ^ x22: .cfa -32 + ^ x23: .cfa -48 + ^ .ra: .cfa -56 + ^ x29: .cfa -64 + ^
STACK CFI 6dad8 .cfa: sp 128 +
STACK CFI 6daec .cfa: sp 0 +
STACK CFI 6daf0 .cfa: x29 64 +
STACK CFI INIT 6dba8 8c .cfa: sp 0 +
STACK CFI 6dbac .cfa: sp 32 +
STACK CFI 6dbb4 .cfa: x29 32 + x19: .cfa -16 + ^ .ra: .cfa -24 + ^ x29: .cfa -32 + ^
STACK CFI 6dc18 .cfa: sp 32 +
STACK CFI 6dc20 .cfa: sp 0 +
STACK CFI 6dc24 .cfa: sp 32 +
STACK CFI 6dc2c .cfa: sp 0 +
STACK CFI 6dc30 .cfa: x29 32 +
STACK CFI INIT 6dd98 65c .cfa: sp 0 +
STACK CFI 6dd9c .cfa: sp 192 +
STACK CFI 6ddb8 .cfa: x29 96 + x19: .cfa -8 + ^ x20: .cfa -16 + ^ x21: .cfa -24 + ^ x22: .cfa -32 + ^ x23: .cfa -40 + ^ x24: .cfa -48 + ^ x25: .cfa -56 + ^ x26: .cfa -64 + ^ x27: .cfa -80 + ^ .ra: .cfa -88 + ^ x29: .cfa -96 + ^
STACK CFI 6e1a0 .cfa: sp 192 +
STACK CFI 6e1bc .cfa: sp 0 +
STACK CFI 6e1c0 .cfa: x29 96 +
STACK CFI INIT 6e3f4 234 .cfa: sp 0 +
STACK CFI 6e3f8 .cfa: sp 96 +
STACK CFI 6e408 .cfa: x29 48 + x19: .cfa -8 + ^ x20: .cfa -16 + ^ x21: .cfa -24 + ^ x22: .cfa -32 + ^ .ra: .cfa -40 + ^ x29: .cfa -48 + ^
STACK CFI 6e59c .cfa: sp 96 +
STACK CFI 6e5ac .cfa: sp 0 +
STACK CFI 6e5b0 .cfa: x29 48 +
STACK CFI INIT 6e628 18c .cfa: sp 0 +
STACK CFI 6e62c .cfa: sp 80 +
STACK CFI 6e63c .cfa: x29 48 + x19: .cfa -8 + ^ x20: .cfa -16 + ^ x21: .cfa -24 + ^ x22: .cfa -32 + ^ .ra: .cfa -40 + ^ x29: .cfa -48 + ^
STACK CFI 6e780 .cfa: sp 80 +
STACK CFI 6e790 .cfa: sp 0 +
STACK CFI 6e794 .cfa: x29 48 +
STACK CFI INIT 6e804 1f0 .cfa: sp 0 +
STACK CFI 6e808 .cfa: sp 160 +
STACK CFI 6e818 .cfa: x29 48 + x19: .cfa -8 + ^ x20: .cfa -16 + ^ x21: .cfa -32 + ^ .ra: .cfa -40 + ^ x29: .cfa -48 + ^
STACK CFI 6e934 .cfa: sp 160 +
STACK CFI 6e944 .cfa: sp 0 +
STACK CFI 6e948 .cfa: x29 48 +
STACK CFI INIT 6e9f4 c4 .cfa: sp 0 +
STACK CFI 6e9f8 .cfa: sp 48 +
STACK CFI 6ea04 .cfa: x29 48 + x19: .cfa -8 + ^ x20: .cfa -16 + ^ x21: .cfa -32 + ^ .ra: .cfa -40 + ^ x29: .cfa -48 + ^
STACK CFI 6ea8c .cfa: sp 48 +
STACK CFI 6ea98 .cfa: sp 0 +
STACK CFI 6ea9c .cfa: x29 48 +
STACK CFI INIT 6eab8 1dc .cfa: sp 0 +
STACK CFI 6eabc .cfa: sp 112 +
STACK CFI 6eacc .cfa: x29 48 + x19: .cfa -8 + ^ x20: .cfa -16 + ^ x21: .cfa -24 + ^ x22: .cfa -32 + ^ .ra: .cfa -40 + ^ x29: .cfa -48 + ^
STACK CFI 6ec4c .cfa: sp 112 +
STACK CFI 6ec5c .cfa: sp 0 +
STACK CFI 6ec60 .cfa: x29 48 +
STACK CFI INIT 6ecec 138 .cfa: sp 0 +
STACK CFI 6ecf0 .cfa: sp 64 +
STACK CFI 6ed00 .cfa: x29 64 + x19: .cfa -8 + ^ x20: .cfa -16 + ^ x21: .cfa -24 + ^ x22: .cfa -32 + ^ x23: .cfa -48 + ^ .ra: .cfa -56 + ^ x29: .cfa -64 + ^
STACK CFI 6ee00 .cfa: sp 64 +
STACK CFI 6ee10 .cfa: sp 0 +
STACK CFI 6ee14 .cfa: x29 64 +
STACK CFI INIT 6ee70 1e4 .cfa: sp 0 +
STACK CFI 6ee74 .cfa: sp 160 +
STACK CFI 6ee84 .cfa: x29 48 + x19: .cfa -8 + ^ x20: .cfa -16 + ^ x21: .cfa -24 + ^ x22: .cfa -32 + ^ .ra: .cfa -40 + ^ x29: .cfa -48 + ^
STACK CFI 6ef94 .cfa: sp 160 +
STACK CFI 6efa4 .cfa: sp 0 +
STACK CFI 6efa8 .cfa: x29 48 +
STACK CFI INIT 6f08c 1e8 .cfa: sp 0 +
STACK CFI 6f090 .cfa: sp 160 +
STACK CFI 6f0a0 .cfa: x29 48 + x19: .cfa -8 + ^ x20: .cfa -16 + ^ x21: .cfa -24 + ^ x22: .cfa -32 + ^ .ra: .cfa -40 + ^ x29: .cfa -48 + ^
STACK CFI 6f1b4 .cfa: sp 160 +
STACK CFI 6f1c4 .cfa: sp 0 +
STACK CFI 6f1c8 .cfa: x29 48 +
STACK CFI INIT 6f274 a8 .cfa: sp 0 +
STACK CFI 6f278 .cfa: sp 48 +
STACK CFI 6f284 .cfa: x29 48 + x19: .cfa -8 + ^ x20: .cfa -16 + ^ x21: .cfa -32 + ^ .ra: .cfa -40 + ^ x29: .cfa -48 + ^
STACK CFI 6f2f0 .cfa: sp 48 +
STACK CFI 6f2fc .cfa: sp 0 +
STACK CFI 6f300 .cfa: x29 48 +
STACK CFI INIT 6f31c 1d8 .cfa: sp 0 +
STACK CFI 6f320 .cfa: sp 128 +
STACK CFI 6f33c .cfa: x29 96 + x19: .cfa -8 + ^ x20: .cfa -16 + ^ x21: .cfa -24 + ^ x22: .cfa -32 + ^ x23: .cfa -40 + ^ x24: .cfa -48 + ^ x25: .cfa -56 + ^ x26: .cfa -64 + ^ x27: .cfa -72 + ^ x28: .cfa -80 + ^ .ra: .cfa -88 + ^ x29: .cfa -96 + ^
STACK CFI 6f4ac .cfa: sp 128 +
STACK CFI 6f4c8 .cfa: sp 0 +
STACK CFI 6f4cc .cfa: x29 96 +
STACK CFI INIT 6f4f4 5c .cfa: sp 0 +
STACK CFI 6f4f8 .cfa: sp 32 +
STACK CFI 6f500 .cfa: x29 32 + x19: .cfa -16 + ^ .ra: .cfa -24 + ^ x29: .cfa -32 + ^
STACK CFI 6f534 .cfa: sp 32 +
STACK CFI 6f53c .cfa: sp 0 +
STACK CFI 6f540 .cfa: sp 32 +
STACK CFI 6f548 .cfa: sp 0 +
STACK CFI 6f54c .cfa: x29 32 +
STACK CFI INIT 6f718 2a4 .cfa: sp 0 +
STACK CFI 6f71c .cfa: sp 144 +
STACK CFI 6f730 .cfa: x29 64 + x19: .cfa -8 + ^ x20: .cfa -16 + ^ x21: .cfa -24 + ^ x22: .cfa -32 + ^ x23: .cfa -40 + ^ x24: .cfa -48 + ^ .ra: .cfa -56 + ^ x29: .cfa -64 + ^
STACK CFI 6f938 .cfa: sp 144 +
STACK CFI 6f94c .cfa: sp 0 +
STACK CFI 6f950 .cfa: x29 64 +
STACK CFI INIT 6f9bc 248 .cfa: sp 0 +
STACK CFI 6f9c0 .cfa: sp 128 +
STACK CFI 6f9d8 .cfa: x29 80 + x19: .cfa -8 + ^ x20: .cfa -16 + ^ x21: .cfa -24 + ^ x22: .cfa -32 + ^ x23: .cfa -40 + ^ x24: .cfa -48 + ^ x25: .cfa -56 + ^ x26: .cfa -64 + ^ .ra: .cfa -72 + ^ x29: .cfa -80 + ^
STACK CFI 6fab4 .cfa: sp 128 +
STACK CFI 6facc .cfa: sp 0 +
STACK CFI 6fad0 .cfa: x29 80 +
STACK CFI INIT 6fc04 110 .cfa: sp 0 +
STACK CFI 6fc08 .cfa: sp 80 +
STACK CFI 6fc1c .cfa: x29 80 + x19: .cfa -8 + ^ x20: .cfa -16 + ^ x21: .cfa -24 + ^ x22: .cfa -32 + ^ x23: .cfa -40 + ^ x24: .cfa -48 + ^ x25: .cfa -56 + ^ x26: .cfa -64 + ^ .ra: .cfa -72 + ^ x29: .cfa -80 + ^
STACK CFI 6fcb8 .cfa: sp 80 +
STACK CFI 6fccc .cfa: sp 0 +
STACK CFI 6fcd0 .cfa: x29 80 +
STACK CFI INIT 716e4 644 .cfa: sp 0 +
STACK CFI 716e8 .cfa: sp 192 +
STACK CFI 71704 .cfa: x29 96 + x19: .cfa -8 + ^ x20: .cfa -16 + ^ x21: .cfa -24 + ^ x22: .cfa -32 + ^ x23: .cfa -40 + ^ x24: .cfa -48 + ^ x25: .cfa -56 + ^ x26: .cfa -64 + ^ x27: .cfa -72 + ^ x28: .cfa -80 + ^ .ra: .cfa -88 + ^ x29: .cfa -96 + ^
STACK CFI 71a28 .cfa: sp 192 +
STACK CFI 71a44 .cfa: sp 0 +
STACK CFI 71a48 .cfa: x29 96 +
STACK CFI 71a74 .cfa: sp 192 +
STACK CFI 71a90 .cfa: sp 0 +
STACK CFI 71a94 .cfa: x29 96 +
STACK CFI 71ab8 .cfa: sp 192 +
STACK CFI 71abc .cfa: x29 96 +
STACK CFI 71b00 .cfa: sp 192 +
STACK CFI 71b04 .cfa: x29 96 +
STACK CFI 71b20 .cfa: sp 192 +
STACK CFI 71b24 .cfa: x29 96 +
STACK CFI INIT 71d28 1ec .cfa: sp 0 +
STACK CFI 71d2c .cfa: sp 160 +
STACK CFI 71d3c .cfa: x29 48 + x19: .cfa -8 + ^ x20: .cfa -16 + ^ x21: .cfa -32 + ^ .ra: .cfa -40 + ^ x29: .cfa -48 + ^
STACK CFI 71e54 .cfa: sp 160 +
STACK CFI 71e64 .cfa: sp 0 +
STACK CFI 71e68 .cfa: x29 48 +
STACK CFI INIT 71f14 120 .cfa: sp 0 +
STACK CFI 71f18 .cfa: sp 64 +
STACK CFI 71f28 .cfa: x29 64 + x19: .cfa -8 + ^ x20: .cfa -16 + ^ x21: .cfa -24 + ^ x22: .cfa -32 + ^ x23: .cfa -40 + ^ x24: .cfa -48 + ^ .ra: .cfa -56 + ^ x29: .cfa -64 + ^
STACK CFI 72004 .cfa: sp 64 +
STACK CFI 72014 .cfa: sp 0 +
STACK CFI 72018 .cfa: x29 64 +
STACK CFI INIT 72034 a8 .cfa: sp 0 +
STACK CFI 72038 .cfa: sp 32 +
STACK CFI 72040 .cfa: x29 32 + x19: .cfa -8 + ^ x20: .cfa -16 + ^ .ra: .cfa -24 + ^ x29: .cfa -32 + ^
STACK CFI 720b4 .cfa: sp 32 +
STACK CFI 720bc .cfa: sp 0 +
STACK CFI 720c0 .cfa: x29 32 +
STACK CFI INIT 720dc 304 .cfa: sp 0 +
STACK CFI 720e0 .cfa: sp 128 +
STACK CFI 720fc .cfa: x29 96 + x19: .cfa -8 + ^ x20: .cfa -16 + ^ x21: .cfa -24 + ^ x22: .cfa -32 + ^ x23: .cfa -40 + ^ x24: .cfa -48 + ^ x25: .cfa -56 + ^ x26: .cfa -64 + ^ x27: .cfa -72 + ^ x28: .cfa -80 + ^ .ra: .cfa -88 + ^ x29: .cfa -96 + ^
STACK CFI 72360 .cfa: sp 128 +
STACK CFI 7237c .cfa: sp 0 +
STACK CFI 72380 .cfa: x29 96 +
STACK CFI INIT 723e0 164 .cfa: sp 0 +
STACK CFI 723e4 .cfa: sp 96 +
STACK CFI 723f4 .cfa: x29 48 + x19: .cfa -8 + ^ x20: .cfa -16 + ^ x21: .cfa -24 + ^ x22: .cfa -32 + ^ .ra: .cfa -40 + ^ x29: .cfa -48 + ^
STACK CFI 7246c .cfa: sp 96 +
STACK CFI 7247c .cfa: sp 0 +
STACK CFI 72480 .cfa: x29 48 +
STACK CFI INIT 72544 a8 .cfa: sp 0 +
STACK CFI 72548 .cfa: sp 48 +
STACK CFI 72554 .cfa: x29 48 + x19: .cfa -8 + ^ x20: .cfa -16 + ^ x21: .cfa -24 + ^ x22: .cfa -32 + ^ .ra: .cfa -40 + ^ x29: .cfa -48 + ^
STACK CFI 725c0 .cfa: sp 48 +
STACK CFI 725cc .cfa: sp 0 +
STACK CFI 725d0 .cfa: x29 48 +
STACK CFI INIT 72764 138 .cfa: sp 0 +
STACK CFI 72768 .cfa: sp 80 +
STACK CFI 72778 .cfa: x29 48 + x19: .cfa -8 + ^ x20: .cfa -16 + ^ x21: .cfa -24 + ^ x22: .cfa -32 + ^ .ra: .cfa -40 + ^ x29: .cfa -48 + ^
STACK CFI 727e0 .cfa: sp 80 +
STACK CFI 727f0 .cfa: sp 0 +
STACK CFI 727f4 .cfa: x29 48 +
STACK CFI INIT 7289c 158 .cfa: sp 0 +
STACK CFI 728a0 .cfa: sp 112 +
STACK CFI 728b4 .cfa: x29 64 + x19: .cfa -8 + ^ x20: .cfa -16 + ^ x21: .cfa -24 + ^ x22: .cfa -32 + ^ x23: .cfa -40 + ^ x24: .cfa -48 + ^ .ra: .cfa -56 + ^ x29: .cfa -64 + ^
STACK CFI 7299c .cfa: sp 112 +
STACK CFI 729b0 .cfa: sp 0 +
STACK CFI 729b4 .cfa: x29 64 +
STACK CFI INIT 72de4 130 .cfa: sp 0 +
STACK CFI 72de8 .cfa: sp 144 +
STACK CFI 72dfc .cfa: x29 64 + x19: .cfa -8 + ^ x20: .cfa -16 + ^ x21: .cfa -24 + ^ x22: .cfa -32 + ^ x23: .cfa -40 + ^ x24: .cfa -48 + ^ .ra: .cfa -56 + ^ x29: .cfa -64 + ^
STACK CFI 72ea8 .cfa: sp 144 +
STACK CFI 72ebc .cfa: sp 0 +
STACK CFI 72ec0 .cfa: x29 64 +
STACK CFI INIT 72f14 74 .cfa: sp 0 +
STACK CFI 72f18 .cfa: sp 48 +
STACK CFI 72f24 .cfa: x29 48 + x19: .cfa -8 + ^ x20: .cfa -16 + ^ x21: .cfa -24 + ^ x22: .cfa -32 + ^ .ra: .cfa -40 + ^ x29: .cfa -48 + ^
STACK CFI 72f2c .cfa: sp 48 +
STACK CFI 72f38 .cfa: sp 0 +
STACK CFI 72f3c .cfa: x29 48 +
STACK CFI 72f74 .cfa: sp 48 +
STACK CFI 72f80 .cfa: sp 0 +
STACK CFI 72f84 .cfa: x29 48 +
STACK CFI INIT 72f88 48 .cfa: sp 0 +
STACK CFI 72f8c .cfa: sp 32 +
STACK CFI 72f94 .cfa: x29 32 + x19: .cfa -8 + ^ x20: .cfa -16 + ^ .ra: .cfa -24 + ^ x29: .cfa -32 + ^
STACK CFI 72f9c .cfa: sp 32 +
STACK CFI 72fa4 .cfa: sp 0 +
STACK CFI 72fa8 .cfa: x29 32 +
STACK CFI INIT 72fe4 2e0 .cfa: sp 0 +
STACK CFI 72fe8 .cfa: sp 64 +
STACK CFI 72ff8 .cfa: x29 64 + x19: .cfa -8 + ^ x20: .cfa -16 + ^ x21: .cfa -24 + ^ x22: .cfa -32 + ^ x23: .cfa -40 + ^ x24: .cfa -48 + ^ .ra: .cfa -56 + ^ x29: .cfa -64 + ^
STACK CFI 7329c .cfa: sp 64 +
STACK CFI 732ac .cfa: sp 0 +
STACK CFI 732b0 .cfa: x29 64 +
STACK CFI INIT 73584 3e4 .cfa: sp 0 +
STACK CFI 73588 .cfa: sp 192 +
STACK CFI 73598 .cfa: x29 48 + x19: .cfa -8 + ^ x20: .cfa -16 + ^ x21: .cfa -32 + ^ .ra: .cfa -40 + ^ x29: .cfa -48 + ^
STACK CFI 73858 .cfa: sp 192 +
STACK CFI 73868 .cfa: sp 0 +
STACK CFI 7386c .cfa: x29 48 +
STACK CFI INIT 73968 1a4 .cfa: sp 0 +
STACK CFI 7396c .cfa: sp 80 +
STACK CFI 7397c .cfa: x29 48 + x19: .cfa -8 + ^ x20: .cfa -16 + ^ x21: .cfa -32 + ^ .ra: .cfa -40 + ^ x29: .cfa -48 + ^
STACK CFI 73a9c .cfa: sp 80 +
STACK CFI 73aac .cfa: sp 0 +
STACK CFI 73ab0 .cfa: x29 48 +
STACK CFI 73ad0 .cfa: sp 80 +
STACK CFI 73ae0 .cfa: sp 0 +
STACK CFI 73ae4 .cfa: x29 48 +
STACK CFI INIT 73b50 780 .cfa: sp 0 +
STACK CFI 73b54 .cfa: sp 192 +
STACK CFI 73b70 .cfa: x29 80 + x19: .cfa -8 + ^ x20: .cfa -16 + ^ x21: .cfa -24 + ^ x22: .cfa -32 + ^ x23: .cfa -40 + ^ x24: .cfa -48 + ^ x25: .cfa -56 + ^ x26: .cfa -64 + ^ .ra: .cfa -72 + ^ x29: .cfa -80 + ^ v8: .cfa -88 + ^ v9: .cfa -96 + ^
STACK CFI 7411c .cfa: sp 192 +
STACK CFI 74138 .cfa: sp 0 +
STACK CFI 7413c .cfa: x29 80 +
STACK CFI INIT 7441c 1ed0 .cfa: sp 0 +
STACK CFI 74420 .cfa: sp 160 +
STACK CFI 74448 .cfa: x29 96 + x19: .cfa -8 + ^ x20: .cfa -16 + ^ x21: .cfa -24 + ^ x22: .cfa -32 + ^ x23: .cfa -40 + ^ x24: .cfa -48 + ^ x25: .cfa -56 + ^ x26: .cfa -64 + ^ x27: .cfa -72 + ^ x28: .cfa -80 + ^ .ra: .cfa -88 + ^ x29: .cfa -96 + ^ v8: .cfa -104 + ^ v9: .cfa -112 + ^ v10: .cfa -120 + ^ v11: .cfa -128 + ^ v12: .cfa -136 + ^ v13: .cfa -144 + ^ v14: .cfa -152 + ^ v15: .cfa -160 + ^
STACK CFI 75f9c .cfa: sp 160 +
STACK CFI 75fc4 .cfa: sp 0 +
STACK CFI 75fc8 .cfa: x29 96 +
STACK CFI INIT 7630c 1c .cfa: sp 0 +
STACK CFI 76310 .cfa: sp 16 +
STACK CFI 76314 .cfa: x29 16 + .ra: .cfa -8 + ^ x29: .cfa -16 + ^
STACK CFI 7631c .cfa: sp 16 +
STACK CFI 76320 .cfa: sp 0 +
STACK CFI 76324 .cfa: x29 16 +
STACK CFI INIT 764b0 724 .cfa: sp 0 +
STACK CFI 764b4 .cfa: sp 96 +
STACK CFI 764cc .cfa: x29 96 + x19: .cfa -8 + ^ x20: .cfa -16 + ^ x21: .cfa -24 + ^ x22: .cfa -32 + ^ x23: .cfa -40 + ^ x24: .cfa -48 + ^ x25: .cfa -56 + ^ x26: .cfa -64 + ^ x27: .cfa -72 + ^ x28: .cfa -80 + ^ .ra: .cfa -88 + ^ x29: .cfa -96 + ^
STACK CFI 7650c .cfa: sp 96 +
STACK CFI 76524 .cfa: sp 0 +
STACK CFI 76528 .cfa: x29 96 +
STACK CFI 769a4 .cfa: sp 96 +
STACK CFI 769bc .cfa: sp 0 +
STACK CFI 769c0 .cfa: x29 96 +
STACK CFI INIT 76bd4 438 .cfa: sp 0 +
STACK CFI 76bd8 .cfa: sp 416 +
STACK CFI 76be8 .cfa: x29 48 + x19: .cfa -8 + ^ x20: .cfa -16 + ^ x21: .cfa -24 + ^ x28: .cfa -32 + ^ .ra: .cfa -40 + ^ x29: .cfa -48 + ^
STACK CFI 76e3c .cfa: sp 416 +
STACK CFI 76e4c .cfa: sp 0 +
STACK CFI 76e50 .cfa: x29 48 +
STACK CFI INIT 77014 c8 .cfa: sp 0 +
STACK CFI 77018 .cfa: sp 32 +
STACK CFI 77020 .cfa: x29 32 + x19: .cfa -16 + ^ .ra: .cfa -24 + ^ x29: .cfa -32 + ^
STACK CFI 770cc .cfa: sp 32 +
STACK CFI 770d4 .cfa: sp 0 +
STACK CFI 770d8 .cfa: x29 32 +
STACK CFI INIT 770dc d0 .cfa: sp 0 +
STACK CFI 770e0 .cfa: sp 32 +
STACK CFI 770e8 .cfa: x29 32 + x19: .cfa -16 + ^ .ra: .cfa -24 + ^ x29: .cfa -32 + ^
STACK CFI 7719c .cfa: sp 32 +
STACK CFI 771a4 .cfa: sp 0 +
STACK CFI 771a8 .cfa: x29 32 +
STACK CFI INIT 7720c 148 .cfa: sp 0 +
STACK CFI 77210 .cfa: sp 96 +
STACK CFI 77220 .cfa: x29 48 + x19: .cfa -8 + ^ x20: .cfa -16 + ^ x21: .cfa -32 + ^ .ra: .cfa -40 + ^ x29: .cfa -48 + ^
STACK CFI 77308 .cfa: sp 96 +
STACK CFI 77318 .cfa: sp 0 +
STACK CFI 7731c .cfa: x29 48 +
STACK CFI INIT 77354 cc .cfa: sp 0 +
STACK CFI 77358 .cfa: sp 32 +
STACK CFI 77360 .cfa: x29 32 + x19: .cfa -8 + ^ x20: .cfa -16 + ^ .ra: .cfa -24 + ^ x29: .cfa -32 + ^
STACK CFI 77410 .cfa: sp 32 +
STACK CFI 77418 .cfa: sp 0 +
STACK CFI 7741c .cfa: x29 32 +
STACK CFI INIT 77470 6c .cfa: sp 0 +
STACK CFI 77474 .cfa: sp 32 +
STACK CFI 7747c .cfa: x29 32 + x19: .cfa -16 + ^ .ra: .cfa -24 + ^ x29: .cfa -32 + ^
STACK CFI 774cc .cfa: sp 32 +
STACK CFI 774d4 .cfa: sp 0 +
STACK CFI 774d8 .cfa: x29 32 +
STACK CFI INIT 774e0 6c .cfa: sp 0 +
STACK CFI 774e4 .cfa: sp 32 +
STACK CFI 774ec .cfa: x29 32 + x19: .cfa -16 + ^ .ra: .cfa -24 + ^ x29: .cfa -32 + ^
STACK CFI 7753c .cfa: sp 32 +
STACK CFI 77544 .cfa: sp 0 +
STACK CFI 77548 .cfa: x29 32 +
STACK CFI INIT 77bd8 26c .cfa: sp 0 +
STACK CFI 77bdc .cfa: sp 416 +
STACK CFI 77bec .cfa: x29 48 + x19: .cfa -8 + ^ x20: .cfa -16 + ^ x28: .cfa -32 + ^ .ra: .cfa -40 + ^ x29: .cfa -48 + ^
STACK CFI 77dc0 .cfa: sp 416 +
STACK CFI 77dd0 .cfa: sp 0 +
STACK CFI 77dd4 .cfa: x29 48 +
STACK CFI INIT 77f84 3e4 .cfa: sp 0 +
STACK CFI 77f88 .cfa: sp 192 +
STACK CFI 77f98 .cfa: x29 48 + x19: .cfa -8 + ^ x20: .cfa -16 + ^ x21: .cfa -32 + ^ .ra: .cfa -40 + ^ x29: .cfa -48 + ^
STACK CFI 78258 .cfa: sp 192 +
STACK CFI 78268 .cfa: sp 0 +
STACK CFI 7826c .cfa: x29 48 +
STACK CFI INIT 78368 100 .cfa: sp 0 +
STACK CFI 7836c .cfa: sp 80 +
STACK CFI 7837c .cfa: x29 48 + x19: .cfa -8 + ^ x20: .cfa -16 + ^ x21: .cfa -32 + ^ .ra: .cfa -40 + ^ x29: .cfa -48 + ^
STACK CFI 7842c .cfa: sp 80 +
STACK CFI 7843c .cfa: sp 0 +
STACK CFI 78440 .cfa: x29 48 +
STACK CFI INIT 78468 1f0 .cfa: sp 0 +
STACK CFI 7846c .cfa: sp 160 +
STACK CFI 7847c .cfa: x29 48 + x19: .cfa -8 + ^ x20: .cfa -16 + ^ x21: .cfa -32 + ^ .ra: .cfa -40 + ^ x29: .cfa -48 + ^
STACK CFI 78570 .cfa: sp 160 +
STACK CFI 78580 .cfa: sp 0 +
STACK CFI 78584 .cfa: x29 48 +
STACK CFI INIT 78914 2408 .cfa: sp 0 +
STACK CFI 78918 .cfa: sp 160 +
STACK CFI 78940 .cfa: x29 96 + x19: .cfa -8 + ^ x20: .cfa -16 + ^ x21: .cfa -24 + ^ x22: .cfa -32 + ^ x23: .cfa -40 + ^ x24: .cfa -48 + ^ x25: .cfa -56 + ^ x26: .cfa -64 + ^ x27: .cfa -72 + ^ x28: .cfa -80 + ^ .ra: .cfa -88 + ^ x29: .cfa -96 + ^ v8: .cfa -104 + ^ v9: .cfa -112 + ^ v10: .cfa -120 + ^ v11: .cfa -128 + ^ v12: .cfa -136 + ^ v13: .cfa -144 + ^ v14: .cfa -152 + ^ v15: .cfa -160 + ^
STACK CFI 7a7e4 .cfa: sp 160 +
STACK CFI 7a80c .cfa: sp 0 +
STACK CFI 7a810 .cfa: x29 96 +
STACK CFI INIT 7ad1c 2ac .cfa: sp 0 +
STACK CFI 7ad20 .cfa: sp 240 +
STACK CFI 7ad30 .cfa: x29 48 + x19: .cfa -8 + ^ x20: .cfa -16 + ^ x21: .cfa -32 + ^ .ra: .cfa -40 + ^ x29: .cfa -48 + ^
STACK CFI 7ae90 .cfa: sp 240 +
STACK CFI 7aea0 .cfa: sp 0 +
STACK CFI 7aea4 .cfa: x29 48 +
STACK CFI INIT 7afc8 488 .cfa: sp 0 +
STACK CFI 7afcc .cfa: sp 400 +
STACK CFI 7afe4 .cfa: x29 80 + x19: .cfa -8 + ^ x20: .cfa -16 + ^ x21: .cfa -24 + ^ x22: .cfa -32 + ^ x23: .cfa -40 + ^ x24: .cfa -48 + ^ x28: .cfa -64 + ^ .ra: .cfa -72 + ^ x29: .cfa -80 + ^
STACK CFI 7b33c .cfa: sp 400 +
STACK CFI 7b354 .cfa: sp 0 +
STACK CFI 7b358 .cfa: x29 80 +
STACK CFI INIT 7b4d0 de8 .cfa: sp 0 +
STACK CFI 7b4d4 .cfa: sp 96 +
STACK CFI 7b4ec .cfa: x29 96 + x19: .cfa -8 + ^ x20: .cfa -16 + ^ x21: .cfa -24 + ^ x22: .cfa -32 + ^ x23: .cfa -40 + ^ x24: .cfa -48 + ^ x25: .cfa -56 + ^ x26: .cfa -64 + ^ x27: .cfa -72 + ^ x28: .cfa -80 + ^ .ra: .cfa -88 + ^ x29: .cfa -96 + ^
STACK CFI 7b51c .cfa: sp 96 +
STACK CFI 7b534 .cfa: sp 0 +
STACK CFI 7b538 .cfa: x29 96 +
STACK CFI INIT 7c68c 1ac .cfa: sp 0 +
STACK CFI 7c690 .cfa: sp 80 +
STACK CFI 7c6a0 .cfa: x29 48 + x19: .cfa -8 + ^ x20: .cfa -16 + ^ x21: .cfa -24 + ^ x22: .cfa -32 + ^ .ra: .cfa -40 + ^ x29: .cfa -48 + ^
STACK CFI 7c7b0 .cfa: sp 80 +
STACK CFI 7c7c0 .cfa: sp 0 +
STACK CFI 7c7c4 .cfa: x29 48 +
STACK CFI INIT 7c838 20c .cfa: sp 0 +
STACK CFI 7c83c .cfa: sp 80 +
STACK CFI 7c84c .cfa: x29 48 + x19: .cfa -8 + ^ x20: .cfa -16 + ^ x21: .cfa -32 + ^ .ra: .cfa -40 + ^ x29: .cfa -48 + ^
STACK CFI 7ca00 .cfa: sp 80 +
STACK CFI 7ca10 .cfa: sp 0 +
STACK CFI 7ca14 .cfa: x29 48 +
STACK CFI INIT 7ca68 ccc .cfa: sp 0 +
STACK CFI 7ca6c .cfa: sp 160 +
STACK CFI 7ca8c .cfa: x29 96 + x19: .cfa -8 + ^ x20: .cfa -16 + ^ x21: .cfa -24 + ^ x22: .cfa -32 + ^ x23: .cfa -40 + ^ x24: .cfa -48 + ^ x25: .cfa -56 + ^ x26: .cfa -64 + ^ x27: .cfa -80 + ^ .ra: .cfa -88 + ^ x29: .cfa -96 + ^ v8: .cfa -104 + ^ v9: .cfa -112 + ^
STACK CFI 7d6dc .cfa: sp 160 +
STACK CFI 7d6fc .cfa: sp 0 +
STACK CFI 7d700 .cfa: x29 96 +
STACK CFI INIT 7d750 3e8 .cfa: sp 0 +
STACK CFI 7d754 .cfa: sp 128 +
STACK CFI 7d764 .cfa: x29 48 + x19: .cfa -8 + ^ x20: .cfa -16 + ^ x21: .cfa -24 + ^ x22: .cfa -32 + ^ .ra: .cfa -40 + ^ x29: .cfa -48 + ^
STACK CFI 7dac4 .cfa: sp 128 +
STACK CFI 7dad4 .cfa: sp 0 +
STACK CFI 7dad8 .cfa: x29 48 +
STACK CFI INIT 7db38 c2c .cfa: sp 0 +
STACK CFI 7db3c .cfa: sp 96 +
STACK CFI 7db54 .cfa: x29 96 + x19: .cfa -8 + ^ x20: .cfa -16 + ^ x21: .cfa -24 + ^ x22: .cfa -32 + ^ x23: .cfa -40 + ^ x24: .cfa -48 + ^ x25: .cfa -56 + ^ x26: .cfa -64 + ^ x27: .cfa -72 + ^ x28: .cfa -80 + ^ .ra: .cfa -88 + ^ x29: .cfa -96 + ^
STACK CFI 7e410 .cfa: sp 96 +
STACK CFI 7e428 .cfa: sp 0 +
STACK CFI 7e42c .cfa: x29 96 +
STACK CFI INIT 7e854 298 .cfa: sp 0 +
STACK CFI 7e858 .cfa: sp 192 +
STACK CFI 7e86c .cfa: x29 64 + x19: .cfa -8 + ^ x20: .cfa -16 + ^ x21: .cfa -24 + ^ x22: .cfa -32 + ^ x23: .cfa -40 + ^ x24: .cfa -48 + ^ .ra: .cfa -56 + ^ x29: .cfa -64 + ^
STACK CFI 7ea1c .cfa: sp 192 +
STACK CFI 7ea30 .cfa: sp 0 +
STACK CFI 7ea34 .cfa: x29 64 +
STACK CFI INIT 7eaec 54c .cfa: sp 0 +
STACK CFI 7eaf0 .cfa: sp 240 +
STACK CFI 7eb04 .cfa: x29 64 + x19: .cfa -8 + ^ x20: .cfa -16 + ^ x21: .cfa -24 + ^ x22: .cfa -32 + ^ x23: .cfa -40 + ^ x24: .cfa -48 + ^ .ra: .cfa -56 + ^ x29: .cfa -64 + ^
STACK CFI 7ef40 .cfa: sp 240 +
STACK CFI 7ef54 .cfa: sp 0 +
STACK CFI 7ef58 .cfa: x29 64 +
STACK CFI INIT 7f040 1d4 .cfa: sp 0 +
STACK CFI 7f044 .cfa: sp 48 +
STACK CFI 7f050 .cfa: x29 48 + x19: .cfa -8 + ^ x20: .cfa -16 + ^ x21: .cfa -32 + ^ .ra: .cfa -40 + ^ x29: .cfa -48 + ^
STACK CFI 7f200 .cfa: sp 48 +
STACK CFI 7f20c .cfa: sp 0 +
STACK CFI 7f210 .cfa: x29 48 +
STACK CFI INIT 7f28c 148 .cfa: sp 0 +
STACK CFI 7f290 .cfa: sp 96 +
STACK CFI 7f2a0 .cfa: x29 48 + x19: .cfa -8 + ^ x20: .cfa -16 + ^ x21: .cfa -32 + ^ .ra: .cfa -40 + ^ x29: .cfa -48 + ^
STACK CFI 7f388 .cfa: sp 96 +
STACK CFI 7f398 .cfa: sp 0 +
STACK CFI 7f39c .cfa: x29 48 +
STACK CFI INIT 7f430 b8 .cfa: sp 0 +
STACK CFI 7f434 .cfa: sp 32 +
STACK CFI 7f43c .cfa: x29 32 + x19: .cfa -16 + ^ .ra: .cfa -24 + ^ x29: .cfa -32 + ^
STACK CFI 7f4d8 .cfa: sp 32 +
STACK CFI 7f4e0 .cfa: sp 0 +
STACK CFI 7f4e4 .cfa: x29 32 +
STACK CFI INIT 7f4e8 c0 .cfa: sp 0 +
STACK CFI 7f4ec .cfa: sp 32 +
STACK CFI 7f4f4 .cfa: x29 32 + x19: .cfa -16 + ^ .ra: .cfa -24 + ^ x29: .cfa -32 + ^
STACK CFI 7f598 .cfa: sp 32 +
STACK CFI 7f5a0 .cfa: sp 0 +
STACK CFI 7f5a4 .cfa: x29 32 +
STACK CFI INIT 7f5fc 148 .cfa: sp 0 +
STACK CFI 7f600 .cfa: sp 96 +
STACK CFI 7f610 .cfa: x29 48 + x19: .cfa -8 + ^ x20: .cfa -16 + ^ x21: .cfa -32 + ^ .ra: .cfa -40 + ^ x29: .cfa -48 + ^
STACK CFI 7f6f8 .cfa: sp 96 +
STACK CFI 7f708 .cfa: sp 0 +
STACK CFI 7f70c .cfa: x29 48 +
STACK CFI INIT 7f744 bc .cfa: sp 0 +
STACK CFI 7f748 .cfa: sp 32 +
STACK CFI 7f750 .cfa: x29 32 + x19: .cfa -8 + ^ x20: .cfa -16 + ^ .ra: .cfa -24 + ^ x29: .cfa -32 + ^
STACK CFI 7f7f0 .cfa: sp 32 +
STACK CFI 7f7f8 .cfa: sp 0 +
STACK CFI 7f7fc .cfa: x29 32 +
STACK CFI INIT 7f800 c4 .cfa: sp 0 +
STACK CFI 7f804 .cfa: sp 32 +
STACK CFI 7f80c .cfa: x29 32 + x19: .cfa -8 + ^ x20: .cfa -16 + ^ .ra: .cfa -24 + ^ x29: .cfa -32 + ^
STACK CFI 7f8b4 .cfa: sp 32 +
STACK CFI 7f8bc .cfa: sp 0 +
STACK CFI 7f8c0 .cfa: x29 32 +
STACK CFI INIT 7f8f0 9a4 .cfa: sp 0 +
STACK CFI 7f8f4 .cfa: sp 160 +
STACK CFI 7f910 .cfa: x29 96 + x19: .cfa -8 + ^ x20: .cfa -16 + ^ x21: .cfa -24 + ^ x22: .cfa -32 + ^ x23: .cfa -40 + ^ x24: .cfa -48 + ^ x25: .cfa -56 + ^ x26: .cfa -64 + ^ x27: .cfa -72 + ^ x28: .cfa -80 + ^ .ra: .cfa -88 + ^ x29: .cfa -96 + ^
STACK CFI 80230 .cfa: sp 160 +
STACK CFI 8024c .cfa: sp 0 +
STACK CFI 80250 .cfa: x29 96 +
STACK CFI INIT 80688 168 .cfa: sp 0 +
STACK CFI 8068c .cfa: sp 384 +
STACK CFI 806a0 .cfa: x29 64 + x19: .cfa -8 + ^ x20: .cfa -16 + ^ x21: .cfa -24 + ^ x22: .cfa -32 + ^ x23: .cfa -40 + ^ x28: .cfa -48 + ^ .ra: .cfa -56 + ^ x29: .cfa -64 + ^
STACK CFI 80798 .cfa: sp 384 +
STACK CFI 807ac .cfa: sp 0 +
STACK CFI 807b0 .cfa: x29 64 +
STACK CFI INIT 8088c 6c .cfa: sp 0 +
STACK CFI 80890 .cfa: sp 32 +
STACK CFI 80898 .cfa: x29 32 + x19: .cfa -16 + ^ .ra: .cfa -24 + ^ x29: .cfa -32 + ^
STACK CFI 808e8 .cfa: sp 32 +
STACK CFI 808f0 .cfa: sp 0 +
STACK CFI 808f4 .cfa: x29 32 +
STACK CFI INIT 808fc 6c .cfa: sp 0 +
STACK CFI 80900 .cfa: sp 32 +
STACK CFI 80908 .cfa: x29 32 + x19: .cfa -16 + ^ .ra: .cfa -24 + ^ x29: .cfa -32 + ^
STACK CFI 80958 .cfa: sp 32 +
STACK CFI 80960 .cfa: sp 0 +
STACK CFI 80964 .cfa: x29 32 +
STACK CFI INIT 8096c 204 .cfa: sp 0 +
STACK CFI 80970 .cfa: sp 128 +
STACK CFI 80984 .cfa: x29 64 + x19: .cfa -8 + ^ x20: .cfa -16 + ^ x21: .cfa -24 + ^ x22: .cfa -32 + ^ x23: .cfa -40 + ^ x24: .cfa -48 + ^ .ra: .cfa -56 + ^ x29: .cfa -64 + ^
STACK CFI 80aa8 .cfa: sp 128 +
STACK CFI 80abc .cfa: sp 0 +
STACK CFI 80ac0 .cfa: x29 64 +
STACK CFI INIT 80b74 1cc .cfa: sp 0 +
STACK CFI 80b78 .cfa: sp 128 +
STACK CFI 80b88 .cfa: x29 48 + x19: .cfa -8 + ^ x20: .cfa -16 + ^ x21: .cfa -32 + ^ .ra: .cfa -40 + ^ x29: .cfa -48 + ^
STACK CFI 80cc4 .cfa: sp 128 +
STACK CFI 80cd4 .cfa: sp 0 +
STACK CFI 80cd8 .cfa: x29 48 +
STACK CFI INIT 810a0 1d0 .cfa: sp 0 +
STACK CFI 810a4 .cfa: sp 128 +
STACK CFI 810b8 .cfa: x29 64 + x19: .cfa -8 + ^ x20: .cfa -16 + ^ x21: .cfa -24 + ^ x22: .cfa -32 + ^ x23: .cfa -48 + ^ .ra: .cfa -56 + ^ x29: .cfa -64 + ^
STACK CFI 81230 .cfa: sp 128 +
STACK CFI 81244 .cfa: sp 0 +
STACK CFI 81248 .cfa: x29 64 +
STACK CFI INIT 81584 1c4 .cfa: sp 0 +
STACK CFI 81588 .cfa: sp 112 +
STACK CFI 81598 .cfa: x29 48 + x19: .cfa -8 + ^ x20: .cfa -16 + ^ x21: .cfa -24 + ^ x22: .cfa -32 + ^ .ra: .cfa -40 + ^ x29: .cfa -48 + ^
STACK CFI 8170c .cfa: sp 112 +
STACK CFI 8171c .cfa: sp 0 +
STACK CFI 81720 .cfa: x29 48 +
STACK CFI INIT 81784 6c .cfa: sp 0 +
STACK CFI 81788 .cfa: sp 32 +
STACK CFI 81790 .cfa: x29 32 + x19: .cfa -16 + ^ .ra: .cfa -24 + ^ x29: .cfa -32 + ^
STACK CFI 817e0 .cfa: sp 32 +
STACK CFI 817e8 .cfa: sp 0 +
STACK CFI 817ec .cfa: x29 32 +
STACK CFI INIT 817f4 6c .cfa: sp 0 +
STACK CFI 817f8 .cfa: sp 32 +
STACK CFI 81800 .cfa: x29 32 + x19: .cfa -16 + ^ .ra: .cfa -24 + ^ x29: .cfa -32 + ^
STACK CFI 81850 .cfa: sp 32 +
STACK CFI 81858 .cfa: sp 0 +
STACK CFI 8185c .cfa: x29 32 +
STACK CFI INIT 81ad4 5b0 .cfa: sp 0 +
STACK CFI 81ad8 .cfa: sp 464 +
STACK CFI 81af8 .cfa: x29 96 + x19: .cfa -8 + ^ x20: .cfa -16 + ^ x21: .cfa -24 + ^ x22: .cfa -32 + ^ x23: .cfa -40 + ^ x24: .cfa -48 + ^ x25: .cfa -56 + ^ x26: .cfa -64 + ^ x27: .cfa -72 + ^ x28: .cfa -80 + ^ .ra: .cfa -88 + ^ x29: .cfa -96 + ^ v8: .cfa -112 + ^
STACK CFI 81f54 .cfa: sp 464 +
STACK CFI 81f74 .cfa: sp 0 +
STACK CFI 81f78 .cfa: x29 96 +
STACK CFI INIT 825fc 41c .cfa: sp 0 +
STACK CFI 82600 .cfa: sp 416 +
STACK CFI 82614 .cfa: x29 64 + x19: .cfa -8 + ^ x20: .cfa -16 + ^ x21: .cfa -24 + ^ x22: .cfa -32 + ^ x23: .cfa -40 + ^ x28: .cfa -48 + ^ .ra: .cfa -56 + ^ x29: .cfa -64 + ^
STACK CFI 82858 .cfa: sp 416 +
STACK CFI 8286c .cfa: sp 0 +
STACK CFI 82870 .cfa: x29 64 +
STACK CFI INIT 82b58 3e4 .cfa: sp 0 +
STACK CFI 82b5c .cfa: sp 192 +
STACK CFI 82b6c .cfa: x29 48 + x19: .cfa -8 + ^ x20: .cfa -16 + ^ x21: .cfa -32 + ^ .ra: .cfa -40 + ^ x29: .cfa -48 + ^
STACK CFI 82e2c .cfa: sp 192 +
STACK CFI 82e3c .cfa: sp 0 +
STACK CFI 82e40 .cfa: x29 48 +
STACK CFI INIT 82f3c 164 .cfa: sp 0 +
STACK CFI 82f40 .cfa: sp 64 +
STACK CFI 82f4c .cfa: x29 32 + x19: .cfa -8 + ^ x20: .cfa -16 + ^ .ra: .cfa -24 + ^ x29: .cfa -32 + ^
STACK CFI 83068 .cfa: sp 64 +
STACK CFI 83074 .cfa: sp 0 +
STACK CFI 83078 .cfa: x29 32 +
STACK CFI INIT 830a0 b98 .cfa: sp 0 +
STACK CFI 830a4 .cfa: sp 400 +
STACK CFI 830cc .cfa: x29 96 + x19: .cfa -8 + ^ x20: .cfa -16 + ^ x21: .cfa -24 + ^ x22: .cfa -32 + ^ x23: .cfa -40 + ^ x24: .cfa -48 + ^ x25: .cfa -56 + ^ x26: .cfa -64 + ^ x27: .cfa -72 + ^ x28: .cfa -80 + ^ .ra: .cfa -88 + ^ x29: .cfa -96 + ^ v8: .cfa -104 + ^ v9: .cfa -112 + ^ v10: .cfa -120 + ^ v11: .cfa -128 + ^ v12: .cfa -144 + ^
STACK CFI 83ac8 .cfa: sp 400 +
STACK CFI 83af0 .cfa: sp 0 +
STACK CFI 83af4 .cfa: x29 96 +
STACK CFI INIT 83dac 74 .cfa: sp 0 +
STACK CFI 83db0 .cfa: sp 32 +
STACK CFI 83db8 .cfa: x29 32 + x19: .cfa -16 + ^ .ra: .cfa -24 + ^ x29: .cfa -32 + ^
STACK CFI 83e10 .cfa: sp 32 +
STACK CFI 83e18 .cfa: sp 0 +
STACK CFI 83e1c .cfa: x29 32 +
STACK CFI INIT 83e20 6c .cfa: sp 0 +
STACK CFI 83e24 .cfa: sp 32 +
STACK CFI 83e2c .cfa: x29 32 + x19: .cfa -16 + ^ .ra: .cfa -24 + ^ x29: .cfa -32 + ^
STACK CFI 83e7c .cfa: sp 32 +
STACK CFI 83e84 .cfa: sp 0 +
STACK CFI 83e88 .cfa: x29 32 +
STACK CFI INIT 83e8c 74 .cfa: sp 0 +
STACK CFI 83e90 .cfa: sp 32 +
STACK CFI 83e98 .cfa: x29 32 + x19: .cfa -16 + ^ .ra: .cfa -24 + ^ x29: .cfa -32 + ^
STACK CFI 83ef0 .cfa: sp 32 +
STACK CFI 83ef8 .cfa: sp 0 +
STACK CFI 83efc .cfa: x29 32 +
STACK CFI INIT 83f24 3e4 .cfa: sp 0 +
STACK CFI 83f28 .cfa: sp 192 +
STACK CFI 83f38 .cfa: x29 48 + x19: .cfa -8 + ^ x20: .cfa -16 + ^ x21: .cfa -32 + ^ .ra: .cfa -40 + ^ x29: .cfa -48 + ^
STACK CFI 841f8 .cfa: sp 192 +
STACK CFI 84208 .cfa: sp 0 +
STACK CFI 8420c .cfa: x29 48 +
STACK CFI INIT 84308 3c8 .cfa: sp 0 +
STACK CFI 8430c .cfa: sp 80 +
STACK CFI 8431c .cfa: x29 32 + x19: .cfa -8 + ^ x20: .cfa -16 + ^ .ra: .cfa -24 + ^ x29: .cfa -32 + ^ v8: .cfa -48 + ^
STACK CFI 8467c .cfa: sp 80 +
STACK CFI 8468c .cfa: sp 0 +
STACK CFI 84690 .cfa: x29 32 +
STACK CFI INIT 846d0 a78 .cfa: sp 0 +
STACK CFI 846d4 .cfa: sp 96 +
STACK CFI 846ec .cfa: x29 80 + x19: .cfa -8 + ^ x20: .cfa -16 + ^ x21: .cfa -24 + ^ x22: .cfa -32 + ^ x23: .cfa -40 + ^ x24: .cfa -48 + ^ x25: .cfa -56 + ^ x28: .cfa -64 + ^ .ra: .cfa -72 + ^ x29: .cfa -80 + ^ v8: .cfa -96 + ^
STACK CFI 847a4 .cfa: sp 96 +
STACK CFI 847bc .cfa: sp 0 +
STACK CFI 847c0 .cfa: x29 80 +
STACK CFI 84e1c .cfa: sp 96 +
STACK CFI 84e34 .cfa: sp 0 +
STACK CFI 84e38 .cfa: x29 80 +
STACK CFI INIT 8516c 3e4 .cfa: sp 0 +
STACK CFI 85170 .cfa: sp 192 +
STACK CFI 85180 .cfa: x29 48 + x19: .cfa -8 + ^ x20: .cfa -16 + ^ x21: .cfa -32 + ^ .ra: .cfa -40 + ^ x29: .cfa -48 + ^
STACK CFI 85440 .cfa: sp 192 +
STACK CFI 85450 .cfa: sp 0 +
STACK CFI 85454 .cfa: x29 48 +
STACK CFI INIT 855d8 134 .cfa: sp 0 +
STACK CFI 855dc .cfa: sp 80 +
STACK CFI 855e8 .cfa: x29 32 + x19: .cfa -8 + ^ x20: .cfa -16 + ^ .ra: .cfa -24 + ^ x29: .cfa -32 + ^
STACK CFI 85618 .cfa: sp 80 +
STACK CFI 85624 .cfa: sp 0 +
STACK CFI 85628 .cfa: x29 32 +
STACK CFI INIT 8570c 78 .cfa: sp 0 +
STACK CFI 85710 .cfa: sp 32 +
STACK CFI 85718 .cfa: x29 32 + x19: .cfa -8 + ^ x20: .cfa -16 + ^ .ra: .cfa -24 + ^ x29: .cfa -32 + ^
STACK CFI 85724 .cfa: sp 32 +
STACK CFI 8572c .cfa: sp 0 +
STACK CFI 85730 .cfa: x29 32 +
STACK CFI INIT 85784 74 .cfa: sp 0 +
STACK CFI 85788 .cfa: sp 48 +
STACK CFI 85794 .cfa: x29 32 + x19: .cfa -8 + ^ x20: .cfa -16 + ^ .ra: .cfa -24 + ^ x29: .cfa -32 + ^
STACK CFI 857e0 .cfa: sp 48 +
STACK CFI 857ec .cfa: sp 0 +
STACK CFI 857f0 .cfa: x29 32 +
STACK CFI INIT 8585c 224 .cfa: sp 0 +
STACK CFI 85860 .cfa: sp 128 +
STACK CFI 85870 .cfa: x29 48 + x19: .cfa -8 + ^ x20: .cfa -16 + ^ x21: .cfa -32 + ^ .ra: .cfa -40 + ^ x29: .cfa -48 + ^
STACK CFI 85920 .cfa: sp 128 +
STACK CFI 85930 .cfa: sp 0 +
STACK CFI 85934 .cfa: x29 48 +
STACK CFI INIT 85aa4 25c .cfa: sp 0 +
STACK CFI 85aa8 .cfa: sp 128 +
STACK CFI 85ab8 .cfa: x29 48 + x19: .cfa -8 + ^ x20: .cfa -16 + ^ x21: .cfa -32 + ^ .ra: .cfa -40 + ^ x29: .cfa -48 + ^
STACK CFI 85ba0 .cfa: sp 128 +
STACK CFI 85bb0 .cfa: sp 0 +
STACK CFI 85bb4 .cfa: x29 48 +
STACK CFI INIT 85d78 300 .cfa: sp 0 +
STACK CFI 85d7c .cfa: sp 144 +
STACK CFI 85d90 .cfa: x29 64 + x19: .cfa -8 + ^ x20: .cfa -16 + ^ x21: .cfa -24 + ^ x22: .cfa -32 + ^ x23: .cfa -48 + ^ .ra: .cfa -56 + ^ x29: .cfa -64 + ^
STACK CFI 85f24 .cfa: sp 144 +
STACK CFI 85f38 .cfa: sp 0 +
STACK CFI 85f3c .cfa: x29 64 +
STACK CFI INIT 860cc 264 .cfa: sp 0 +
STACK CFI 860d0 .cfa: sp 128 +
STACK CFI 860e0 .cfa: x29 48 + x19: .cfa -8 + ^ x20: .cfa -16 + ^ x21: .cfa -32 + ^ .ra: .cfa -40 + ^ x29: .cfa -48 + ^
STACK CFI 861d8 .cfa: sp 128 +
STACK CFI 861e8 .cfa: sp 0 +
STACK CFI 861ec .cfa: x29 48 +
STACK CFI INIT 863d8 1b8 .cfa: sp 0 +
STACK CFI 863dc .cfa: sp 160 +
STACK CFI 863f8 .cfa: x29 72 + x19: .cfa -8 + ^ x20: .cfa -16 + ^ x21: .cfa -24 + ^ x22: .cfa -32 + ^ x23: .cfa -40 + ^ x24: .cfa -48 + ^ x25: .cfa -56 + ^ .ra: .cfa -64 + ^ x29: .cfa -72 + ^ v8: .cfa -80 + ^
STACK CFI 8647c .cfa: sp 160 +
STACK CFI 86498 .cfa: sp 0 +
STACK CFI 8649c .cfa: x29 72 +
STACK CFI INIT 86590 4e4 .cfa: sp 0 +
STACK CFI 86594 .cfa: sp 96 +
STACK CFI 865ac .cfa: x29 80 + x19: .cfa -8 + ^ x20: .cfa -16 + ^ x21: .cfa -24 + ^ x22: .cfa -32 + ^ x23: .cfa -40 + ^ x24: .cfa -48 + ^ x25: .cfa -64 + ^ .ra: .cfa -72 + ^ x29: .cfa -80 + ^
STACK CFI 869f0 .cfa: sp 96 +
STACK CFI 86a08 .cfa: sp 0 +
STACK CFI 86a0c .cfa: x29 80 +
STACK CFI INIT 86a74 188 .cfa: sp 0 +
STACK CFI 86a78 .cfa: sp 144 +
STACK CFI 86a8c .cfa: x29 48 + x19: .cfa -8 + ^ x20: .cfa -16 + ^ x21: .cfa -24 + ^ x22: .cfa -32 + ^ .ra: .cfa -40 + ^ x29: .cfa -48 + ^ v8: .cfa -64 + ^
STACK CFI 86af0 .cfa: sp 144 +
STACK CFI 86b04 .cfa: sp 0 +
STACK CFI 86b08 .cfa: x29 48 +
STACK CFI INIT 86bfc 104 .cfa: sp 0 +
STACK CFI 86c00 .cfa: sp 48 +
STACK CFI 86c0c .cfa: x29 48 + x19: .cfa -8 + ^ x20: .cfa -16 + ^ x21: .cfa -24 + ^ x22: .cfa -32 + ^ .ra: .cfa -40 + ^ x29: .cfa -48 + ^
STACK CFI 86cbc .cfa: sp 48 +
STACK CFI 86cc8 .cfa: sp 0 +
STACK CFI 86ccc .cfa: x29 48 +
STACK CFI INIT 86d00 178 .cfa: sp 0 +
STACK CFI 86d04 .cfa: sp 128 +
STACK CFI 86d14 .cfa: x29 48 + x19: .cfa -8 + ^ x20: .cfa -16 + ^ x21: .cfa -24 + ^ x22: .cfa -32 + ^ .ra: .cfa -40 + ^ x29: .cfa -48 + ^
STACK CFI 86d70 .cfa: sp 128 +
STACK CFI 86d80 .cfa: sp 0 +
STACK CFI 86d84 .cfa: x29 48 +
STACK CFI INIT 86e78 a4 .cfa: sp 0 +
STACK CFI 86e7c .cfa: sp 48 +
STACK CFI 86e88 .cfa: x29 48 + x19: .cfa -8 + ^ x20: .cfa -16 + ^ x21: .cfa -32 + ^ .ra: .cfa -40 + ^ x29: .cfa -48 + ^
STACK CFI 86ef4 .cfa: sp 48 +
STACK CFI 86f00 .cfa: sp 0 +
STACK CFI 86f04 .cfa: x29 48 +
STACK CFI INIT 86f1c 2e4 .cfa: sp 0 +
STACK CFI 86f20 .cfa: sp 144 +
STACK CFI 86f34 .cfa: x29 64 + x19: .cfa -8 + ^ x20: .cfa -16 + ^ x21: .cfa -24 + ^ x22: .cfa -32 + ^ x23: .cfa -48 + ^ .ra: .cfa -56 + ^ x29: .cfa -64 + ^
STACK CFI 870ac .cfa: sp 144 +
STACK CFI 870c0 .cfa: sp 0 +
STACK CFI 870c4 .cfa: x29 64 +
STACK CFI INIT 87200 2e4 .cfa: sp 0 +
STACK CFI 87204 .cfa: sp 144 +
STACK CFI 87218 .cfa: x29 64 + x19: .cfa -8 + ^ x20: .cfa -16 + ^ x21: .cfa -24 + ^ x22: .cfa -32 + ^ x23: .cfa -48 + ^ .ra: .cfa -56 + ^ x29: .cfa -64 + ^
STACK CFI 87390 .cfa: sp 144 +
STACK CFI 873a4 .cfa: sp 0 +
STACK CFI 873a8 .cfa: x29 64 +
STACK CFI INIT 874e4 2a0 .cfa: sp 0 +
STACK CFI 874e8 .cfa: sp 144 +
STACK CFI 874fc .cfa: x29 64 + x19: .cfa -8 + ^ x20: .cfa -16 + ^ x21: .cfa -24 + ^ x22: .cfa -32 + ^ x23: .cfa -48 + ^ .ra: .cfa -56 + ^ x29: .cfa -64 + ^
STACK CFI 87630 .cfa: sp 144 +
STACK CFI 87644 .cfa: sp 0 +
STACK CFI 87648 .cfa: x29 64 +
STACK CFI INIT 87784 2f0 .cfa: sp 0 +
STACK CFI 87788 .cfa: sp 144 +
STACK CFI 8779c .cfa: x29 64 + x19: .cfa -8 + ^ x20: .cfa -16 + ^ x21: .cfa -24 + ^ x22: .cfa -32 + ^ x23: .cfa -48 + ^ .ra: .cfa -56 + ^ x29: .cfa -64 + ^
STACK CFI 87920 .cfa: sp 144 +
STACK CFI 87934 .cfa: sp 0 +
STACK CFI 87938 .cfa: x29 64 +
STACK CFI INIT 87a74 4f4 .cfa: sp 0 +
STACK CFI 87a78 .cfa: sp 144 +
STACK CFI 87a8c .cfa: x29 64 + x19: .cfa -8 + ^ x20: .cfa -16 + ^ x21: .cfa -24 + ^ x22: .cfa -32 + ^ x23: .cfa -48 + ^ .ra: .cfa -56 + ^ x29: .cfa -64 + ^
STACK CFI 87dc0 .cfa: sp 144 +
STACK CFI 87dd4 .cfa: sp 0 +
STACK CFI 87dd8 .cfa: x29 64 +
STACK CFI INIT 87f68 154 .cfa: sp 0 +
STACK CFI 87f6c .cfa: sp 384 +
STACK CFI 87f80 .cfa: x29 64 + x19: .cfa -8 + ^ x20: .cfa -16 + ^ x21: .cfa -24 + ^ x22: .cfa -32 + ^ x23: .cfa -40 + ^ x28: .cfa -48 + ^ .ra: .cfa -56 + ^ x29: .cfa -64 + ^
STACK CFI 88064 .cfa: sp 384 +
STACK CFI 88078 .cfa: sp 0 +
STACK CFI 8807c .cfa: x29 64 +
STACK CFI INIT 880d4 50c .cfa: sp 0 +
STACK CFI 880d8 .cfa: sp 64 +
STACK CFI 880e8 .cfa: x29 64 + x19: .cfa -8 + ^ x20: .cfa -16 + ^ x21: .cfa -24 + ^ x22: .cfa -32 + ^ x23: .cfa -40 + ^ x24: .cfa -48 + ^ .ra: .cfa -56 + ^ x29: .cfa -64 + ^
STACK CFI 88208 .cfa: sp 64 +
STACK CFI 88218 .cfa: sp 0 +
STACK CFI 8821c .cfa: x29 64 +
STACK CFI 885b4 .cfa: sp 64 +
STACK CFI 885c4 .cfa: sp 0 +
STACK CFI 885c8 .cfa: x29 64 +
STACK CFI INIT 88910 294 .cfa: sp 0 +
STACK CFI 88914 .cfa: sp 240 +
STACK CFI 8892c .cfa: x29 80 + x19: .cfa -8 + ^ x20: .cfa -16 + ^ x21: .cfa -24 + ^ x22: .cfa -32 + ^ x23: .cfa -40 + ^ x24: .cfa -48 + ^ x25: .cfa -64 + ^ .ra: .cfa -72 + ^ x29: .cfa -80 + ^
STACK CFI 88acc .cfa: sp 240 +
STACK CFI 88ae4 .cfa: sp 0 +
STACK CFI 88ae8 .cfa: x29 80 +
STACK CFI INIT 88c20 50 .cfa: sp 0 +
STACK CFI 88c24 .cfa: sp 32 +
STACK CFI 88c2c .cfa: x29 32 + x19: .cfa -8 + ^ x20: .cfa -16 + ^ .ra: .cfa -24 + ^ x29: .cfa -32 + ^
STACK CFI INIT 88c9c 7c0 .cfa: sp 0 +
STACK CFI 88ca0 .cfa: sp 320 +
STACK CFI 88cbc .cfa: x29 96 + x19: .cfa -8 + ^ x20: .cfa -16 + ^ x21: .cfa -24 + ^ x22: .cfa -32 + ^ x23: .cfa -40 + ^ x24: .cfa -48 + ^ x25: .cfa -56 + ^ x26: .cfa -64 + ^ x27: .cfa -72 + ^ x28: .cfa -80 + ^ .ra: .cfa -88 + ^ x29: .cfa -96 + ^
STACK CFI 8930c .cfa: sp 320 +
STACK CFI 89328 .cfa: sp 0 +
STACK CFI 8932c .cfa: x29 96 +
STACK CFI INIT 8d7dc c74 .cfa: sp 0 +
STACK CFI 8d7e0 .cfa: sp 96 +
STACK CFI 8d7f8 .cfa: x29 96 + x19: .cfa -8 + ^ x20: .cfa -16 + ^ x21: .cfa -24 + ^ x22: .cfa -32 + ^ x23: .cfa -40 + ^ x24: .cfa -48 + ^ x25: .cfa -56 + ^ x26: .cfa -64 + ^ x27: .cfa -72 + ^ x28: .cfa -80 + ^ .ra: .cfa -88 + ^ x29: .cfa -96 + ^
STACK CFI 8e270 .cfa: sp 96 +
STACK CFI 8e288 .cfa: sp 0 +
STACK CFI 8e28c .cfa: x29 96 +
STACK CFI INIT 8e5a4 26c .cfa: sp 0 +
STACK CFI 8e5a8 .cfa: sp 128 +
STACK CFI 8e5b8 .cfa: x29 48 + x19: .cfa -8 + ^ x20: .cfa -16 + ^ x21: .cfa -24 + ^ x22: .cfa -32 + ^ .ra: .cfa -40 + ^ x29: .cfa -48 + ^
STACK CFI 8e75c .cfa: sp 128 +
STACK CFI 8e76c .cfa: sp 0 +
STACK CFI 8e770 .cfa: x29 48 +
STACK CFI INIT 8eba0 3b8 .cfa: sp 0 +
STACK CFI 8eba4 .cfa: sp 96 +
STACK CFI 8ebbc .cfa: x29 96 + x19: .cfa -8 + ^ x20: .cfa -16 + ^ x21: .cfa -24 + ^ x22: .cfa -32 + ^ x23: .cfa -40 + ^ x24: .cfa -48 + ^ x25: .cfa -56 + ^ x26: .cfa -64 + ^ x27: .cfa -72 + ^ x28: .cfa -80 + ^ .ra: .cfa -88 + ^ x29: .cfa -96 + ^
STACK CFI 8eef8 .cfa: sp 96 +
STACK CFI 8ef10 .cfa: sp 0 +
STACK CFI 8ef14 .cfa: x29 96 +
STACK CFI INIT 8eff8 cb4 .cfa: sp 0 +
STACK CFI 8effc .cfa: sp 96 +
STACK CFI 8f014 .cfa: x29 96 + x19: .cfa -8 + ^ x20: .cfa -16 + ^ x21: .cfa -24 + ^ x22: .cfa -32 + ^ x23: .cfa -40 + ^ x24: .cfa -48 + ^ x25: .cfa -56 + ^ x26: .cfa -64 + ^ x27: .cfa -72 + ^ x28: .cfa -80 + ^ .ra: .cfa -88 + ^ x29: .cfa -96 + ^
STACK CFI 8fabc .cfa: sp 96 +
STACK CFI 8fad4 .cfa: sp 0 +
STACK CFI 8fad8 .cfa: x29 96 +
STACK CFI INIT 8ff94 afc .cfa: sp 0 +
STACK CFI 8ff98 .cfa: sp 96 +
STACK CFI 8ffb0 .cfa: x29 96 + x19: .cfa -8 + ^ x20: .cfa -16 + ^ x21: .cfa -24 + ^ x22: .cfa -32 + ^ x23: .cfa -40 + ^ x24: .cfa -48 + ^ x25: .cfa -56 + ^ x26: .cfa -64 + ^ x27: .cfa -72 + ^ x28: .cfa -80 + ^ .ra: .cfa -88 + ^ x29: .cfa -96 + ^
STACK CFI 90a04 .cfa: sp 96 +
STACK CFI 90a1c .cfa: sp 0 +
STACK CFI 90a20 .cfa: x29 96 +
STACK CFI INIT 90c6c 1430 .cfa: sp 0 +
STACK CFI 90c70 .cfa: sp 96 +
STACK CFI 90c88 .cfa: x29 96 + x19: .cfa -8 + ^ x20: .cfa -16 + ^ x21: .cfa -24 + ^ x22: .cfa -32 + ^ x23: .cfa -40 + ^ x24: .cfa -48 + ^ x25: .cfa -56 + ^ x26: .cfa -64 + ^ x27: .cfa -72 + ^ x28: .cfa -80 + ^ .ra: .cfa -88 + ^ x29: .cfa -96 + ^
STACK CFI 91f24 .cfa: sp 96 +
STACK CFI 91f3c .cfa: sp 0 +
STACK CFI 91f40 .cfa: x29 96 +
STACK CFI INIT 921c0 75c .cfa: sp 0 +
STACK CFI 921c4 .cfa: sp 368 +
STACK CFI 921e0 .cfa: x29 96 + x19: .cfa -8 + ^ x20: .cfa -16 + ^ x21: .cfa -24 + ^ x22: .cfa -32 + ^ x23: .cfa -40 + ^ x24: .cfa -48 + ^ x25: .cfa -56 + ^ x26: .cfa -64 + ^ x27: .cfa -72 + ^ x28: .cfa -80 + ^ .ra: .cfa -88 + ^ x29: .cfa -96 + ^
STACK CFI 92294 .cfa: sp 368 +
STACK CFI 922b0 .cfa: sp 0 +
STACK CFI 922b4 .cfa: x29 96 +
STACK CFI 92308 .cfa: sp 368 +
STACK CFI 92324 .cfa: sp 0 +
STACK CFI 92328 .cfa: x29 96 +
STACK CFI INIT 92cdc eb0 .cfa: sp 0 +
STACK CFI 92ce0 .cfa: sp 96 +
STACK CFI 92cf8 .cfa: x29 96 + x19: .cfa -8 + ^ x20: .cfa -16 + ^ x21: .cfa -24 + ^ x22: .cfa -32 + ^ x23: .cfa -40 + ^ x24: .cfa -48 + ^ x25: .cfa -56 + ^ x26: .cfa -64 + ^ x27: .cfa -72 + ^ x28: .cfa -80 + ^ .ra: .cfa -88 + ^ x29: .cfa -96 + ^
STACK CFI 939a0 .cfa: sp 96 +
STACK CFI 939b8 .cfa: sp 0 +
STACK CFI 939bc .cfa: x29 96 +
STACK CFI INIT 93f00 1c9c .cfa: sp 0 +
STACK CFI 93f04 .cfa: sp 112 +
STACK CFI 93f20 .cfa: x29 96 + x19: .cfa -8 + ^ x20: .cfa -16 + ^ x21: .cfa -24 + ^ x22: .cfa -32 + ^ x23: .cfa -40 + ^ x24: .cfa -48 + ^ x25: .cfa -56 + ^ x26: .cfa -64 + ^ x27: .cfa -72 + ^ x28: .cfa -80 + ^ .ra: .cfa -88 + ^ x29: .cfa -96 + ^ v8: .cfa -112 + ^
STACK CFI 94308 .cfa: sp 112 +
STACK CFI 94324 .cfa: sp 0 +
STACK CFI 94328 .cfa: x29 96 +
STACK CFI INIT 98360 9a0 .cfa: sp 0 +
STACK CFI 98364 .cfa: sp 144 +
STACK CFI 9837c .cfa: x29 80 + x19: .cfa -8 + ^ x20: .cfa -16 + ^ x21: .cfa -24 + ^ x22: .cfa -32 + ^ x23: .cfa -40 + ^ x24: .cfa -48 + ^ x25: .cfa -64 + ^ .ra: .cfa -72 + ^ x29: .cfa -80 + ^
STACK CFI 98c7c .cfa: sp 144 +
STACK CFI 98c94 .cfa: sp 0 +
STACK CFI 98c98 .cfa: x29 80 +
STACK CFI INIT 9a224 57c .cfa: sp 0 +
STACK CFI 9a228 .cfa: sp 96 +
STACK CFI 9a240 .cfa: x29 96 + x19: .cfa -8 + ^ x20: .cfa -16 + ^ x21: .cfa -24 + ^ x22: .cfa -32 + ^ x23: .cfa -40 + ^ x24: .cfa -48 + ^ x25: .cfa -56 + ^ x26: .cfa -64 + ^ x27: .cfa -72 + ^ x28: .cfa -80 + ^ .ra: .cfa -88 + ^ x29: .cfa -96 + ^
STACK CFI 9a704 .cfa: sp 96 +
STACK CFI 9a71c .cfa: sp 0 +
STACK CFI 9a720 .cfa: x29 96 +
STACK CFI INIT 9a7a0 67c .cfa: sp 0 +
STACK CFI 9a7a4 .cfa: sp 96 +
STACK CFI 9a7bc .cfa: x29 96 + x19: .cfa -8 + ^ x20: .cfa -16 + ^ x21: .cfa -24 + ^ x22: .cfa -32 + ^ x23: .cfa -40 + ^ x24: .cfa -48 + ^ x25: .cfa -56 + ^ x26: .cfa -64 + ^ x27: .cfa -72 + ^ x28: .cfa -80 + ^ .ra: .cfa -88 + ^ x29: .cfa -96 + ^
STACK CFI 9ad80 .cfa: sp 96 +
STACK CFI 9ad98 .cfa: sp 0 +
STACK CFI 9ad9c .cfa: x29 96 +
