MODULE Linux arm64 A34A93ADA9E7346ED77723AF5A7C633B0 cgytrus.smooth-particles.android64.so
INFO CODE_ID AD934AA3E7A96E34D77723AF5A7C633BDFDAB5CC
INFO GENERATOR mozilla/dump_syms 2.3.4
PUBLIC 3740 0 __on_dlclose
PUBLIC 3750 0 __emutls_unregister_key
PUBLIC 3758 0 __on_dlclose_late
PUBLIC 3760 0 __atexit_handler_wrapper
PUBLIC 3774 0 atexit
PUBLIC 3790 0 pthread_atfork
PUBLIC 37a0 0 __aarch64_ldadd8_relax
PUBLIC 37d0 0 init_have_lse_atomics
PUBLIC 3868 0 __init_cpu_features_constructor
PUBLIC 3e04 0 __init_cpu_features
PUBLIC 3e90 0 __aarch64_ldadd8_acq_rel
PUBLIC 3ec0 0 __cxx_global_var_init
PUBLIC 4a60 0 geode::modifier::ModifyBase<geode::modifier::ModifyDerive<hook12<(anonymous namespace)::hook12Parent>, cocos2d::CCParticleSystem> >::~ModifyBase()
PUBLIC 4a78 0 geode::modifier::ModifyDerive<hook12<(anonymous namespace)::hook12Parent>, cocos2d::CCParticleSystem>::apply()
PUBLIC 532c 0 std::__ndk1::shared_ptr<geode::Hook>::~shared_ptr[abi:ne180000]()
PUBLIC 537c 0 geode::impl::ResultData<geode::Hook*, std::__ndk1::basic_string<char, std::__ndk1::char_traits<char>, std::__ndk1::allocator<char> > >::~ResultData()
PUBLIC 53f0 0 std::__ndk1::vector<std::__ndk1::basic_string<char, std::__ndk1::char_traits<char>, std::__ndk1::allocator<char> >, std::__ndk1::allocator<std::__ndk1::basic_string<char, std::__ndk1::char_traits<char>, std::__ndk1::allocator<char> > > >::~vector[abi:ne180000]()
PUBLIC 546c 0 geode::modifier::ModifyBase<geode::modifier::ModifyDerive<hook12<(anonymous namespace)::hook12Parent>, cocos2d::CCParticleSystem> >::apply()
PUBLIC 5470 0 __clang_call_terminate
PUBLIC 5480 0 _ZN5geode15UnwrapExceptionC2IRPNS_4HookEQsr4implE18IsStringStreamableIT_EEENS_4impl5OkTagEOS5_
PUBLIC 5b7c 0 std::__ndk1::__throw_bad_variant_access[abi:ne180000]()
PUBLIC m 5bb0 0 std::__ndk1::basic_stringstream<char, std::__ndk1::char_traits<char>, std::__ndk1::allocator<char> >::~basic_stringstream()
PUBLIC 5c30 0 geode::UnwrapException::~UnwrapException()
PUBLIC 5c54 0 std::__ndk1::basic_string<char, std::__ndk1::char_traits<char>, std::__ndk1::allocator<char> >::__throw_length_error[abi:ne180000]() const
PUBLIC 5c68 0 std::__ndk1::__throw_length_error[abi:ne180000](char const*)
PUBLIC 5cb8 0 std::length_error::length_error[abi:ne180000](char const*)
PUBLIC 5ce8 0 std::__throw_bad_array_new_length([abi:ne180000], void)
PUBLIC 5d1c 0 std::__ndk1::basic_string<char, std::__ndk1::char_traits<char>, std::__ndk1::allocator<char> >::__init_copy_ctor_external(char const*, unsigned long)
PUBLIC 5d98 0 std::__ndk1::__split_buffer<std::__ndk1::basic_string<char, std::__ndk1::char_traits<char>, std::__ndk1::allocator<char> >, std::__ndk1::allocator<std::__ndk1::basic_string<char, std::__ndk1::char_traits<char>, std::__ndk1::allocator<char> > >&>::~__split_buffer()
PUBLIC 5e00 0 std::__ndk1::vector<std::__ndk1::basic_string<char, std::__ndk1::char_traits<char>, std::__ndk1::allocator<char> >, std::__ndk1::allocator<std::__ndk1::basic_string<char, std::__ndk1::char_traits<char>, std::__ndk1::allocator<char> > > >::__throw_length_error[abi:ne180000]() const
PUBLIC 5e14 0 std::__ndk1::__variant_detail::__visitation::__base::__dispatcher<(unsigned long)0>::__dispatch[abi:ne180000]<std::__ndk1::__variant_detail::__dtor<std::__ndk1::__variant_detail::__traits<geode::Hook*, std::__ndk1::basic_string<char, std::__ndk1::char_traits<char>, std::__ndk1::allocator<char> > >, (std::__ndk1::__variant_detail::_Trait)1>::__destroy[abi:ne180000]()::{lambda(auto:1&)#1}, std::__ndk1::__variant_detail::__base<(std::__ndk1::__variant_detail::__traits<geode::Hook*, std::__ndk1::basic_string<char, std::__ndk1::char_traits<char>, std::__ndk1::allocator<char> > >)1, geode::Hook, std::__ndk1::allocator<char> >&>(std::__ndk1::__variant_detail::__dtor<std::__ndk1::__variant_detail::__traits<geode::Hook*, std::__ndk1::basic_string<char, std::__ndk1::char_traits<char>, std::__ndk1::allocator<char> > >, (std::__ndk1::__variant_detail::_Trait)1>, std::__ndk1::__variant_detail::__base<(std::__ndk1::__variant_detail::__traits<geode::Hook*, std::__ndk1::basic_string<char, std::__ndk1::char_traits<char>, std::__ndk1::allocator<char> > >)1, geode::Hook, std::__ndk1::allocator<char> >&)
PUBLIC 5e18 0 std::__ndk1::__variant_detail::__visitation::__base::__dispatcher<(unsigned long)1>::__dispatch[abi:ne180000]<std::__ndk1::__variant_detail::__dtor<std::__ndk1::__variant_detail::__traits<geode::Hook*, std::__ndk1::basic_string<char, std::__ndk1::char_traits<char>, std::__ndk1::allocator<char> > >, (std::__ndk1::__variant_detail::_Trait)1>::__destroy[abi:ne180000]()::{lambda(auto:1&)#1}, std::__ndk1::__variant_detail::__base<(std::__ndk1::__variant_detail::__traits<geode::Hook*, std::__ndk1::basic_string<char, std::__ndk1::char_traits<char>, std::__ndk1::allocator<char> > >)1, geode::Hook, std::__ndk1::allocator<char> >&>(std::__ndk1::__variant_detail::__dtor<std::__ndk1::__variant_detail::__traits<geode::Hook*, std::__ndk1::basic_string<char, std::__ndk1::char_traits<char>, std::__ndk1::allocator<char> > >, (std::__ndk1::__variant_detail::_Trait)1>, std::__ndk1::__variant_detail::__base<(std::__ndk1::__variant_detail::__traits<geode::Hook*, std::__ndk1::basic_string<char, std::__ndk1::char_traits<char>, std::__ndk1::allocator<char> > >)1, geode::Hook, std::__ndk1::allocator<char> >&)
PUBLIC 5e2c 0 std::__ndk1::__tree<std::__ndk1::__value_type<std::__ndk1::basic_string<char, std::__ndk1::char_traits<char>, std::__ndk1::allocator<char> >, std::__ndk1::shared_ptr<geode::Hook> >, std::__ndk1::__map_value_compare<std::__ndk1::basic_string<char, std::__ndk1::char_traits<char>, std::__ndk1::allocator<char> >, std::__ndk1::__value_type<std::__ndk1::basic_string<char, std::__ndk1::char_traits<char>, std::__ndk1::allocator<char> >, std::__ndk1::shared_ptr<geode::Hook> >, std::__ndk1::less<std::__ndk1::basic_string<char, std::__ndk1::char_traits<char>, std::__ndk1::allocator<char> > >, true>, std::__ndk1::allocator<std::__ndk1::__value_type<std::__ndk1::basic_string<char, std::__ndk1::char_traits<char>, std::__ndk1::allocator<char> >, std::__ndk1::shared_ptr<geode::Hook> > > >::destroy(std::__ndk1::__tree_node<std::__ndk1::__value_type<std::__ndk1::basic_string<char, std::__ndk1::char_traits<char>, std::__ndk1::allocator<char> >, std::__ndk1::shared_ptr<geode::Hook> >, void*>*)
PUBLIC 5eb0 0 geode::modifier::AsStaticFunction_initParticle<hook12<(anonymous namespace)::hook12Parent>, void (hook12<(anonymous namespace)::hook12Parent>::*)(cocos2d::sCCParticle*)>::Impl<void (hook12<(anonymous namespace)::hook12Parent>::*)(cocos2d::sCCParticle*)>::function(hook12<(anonymous namespace)::hook12Parent>*, cocos2d::sCCParticle*)
PUBLIC 5fac 0 geode::modifier::AsStaticFunction_resetSystem<hook12<(anonymous namespace)::hook12Parent>, void (hook12<(anonymous namespace)::hook12Parent>::*)()>::Impl<void (hook12<(anonymous namespace)::hook12Parent>::*)()>::function(hook12<(anonymous namespace)::hook12Parent>*)
PUBLIC 5fe0 0 geode::modifier::AsStaticFunction_update<hook12<(anonymous namespace)::hook12Parent>, void (hook12<(anonymous namespace)::hook12Parent>::*)(float)>::Impl<void (hook12<(anonymous namespace)::hook12Parent>::*)(float)>::function(hook12<(anonymous namespace)::hook12Parent>*, float)
PUBLIC 6218 0 std::__ndk1::shared_ptr<tulip::hook::CallingConvention>::~shared_ptr[abi:ne180000]()
PUBLIC 6268 0 tulip::hook::HandlerMetadata::~HandlerMetadata()
PUBLIC 62cc 0 geode::modifier::FieldIntermediate<hook12<(anonymous namespace)::hook12Parent>, cocos2d::CCParticleSystem>::operator->()
PUBLIC 691c 0 geode::modifier::FieldIntermediate<hook12<(anonymous namespace)::hook12Parent>, cocos2d::CCParticleSystem>::fieldDestructor(void*)
PUBLIC 6920 0 std::__ndk1::vector<void*, std::__ndk1::allocator<void*> >::__throw_length_error[abi:ne180000]() const
PUBLIC 6934 0 std::__ndk1::vector<std::__ndk1::function<void (void*)>, std::__ndk1::allocator<std::__ndk1::function<void (void*)> > >::__throw_length_error[abi:ne180000]() const
PUBLIC 6948 0 std::__ndk1::vector<void*, std::__ndk1::allocator<void*> >::__throw_out_of_range[abi:ne180000]() const
PUBLIC 6954 0 std::__ndk1::__throw_out_of_range[abi:ne180000](char const*)
PUBLIC 699c 0 std::out_of_range::out_of_range[abi:ne180000](char const*)
PUBLIC 69d4 0 std::__ndk1::vector<std::__ndk1::function<void (void*)>, std::__ndk1::allocator<std::__ndk1::function<void (void*)> > >::__throw_out_of_range[abi:ne180000]() const
PUBLIC 69e0 0 std::__ndk1::__function::__base<void (void*)>::~__base()
PUBLIC 69e4 0 std::__ndk1::__function::__func<void (*)(void*), std::__ndk1::allocator<void (*)(void*)>, void (void*)>::~__func()
PUBLIC 69e8 0 std::__ndk1::__function::__func<void (*)(void*), std::__ndk1::allocator<void (*)(void*)>, void (void*)>::__clone() const
PUBLIC 6a20 0 std::__ndk1::__function::__func<void (*)(void*), std::__ndk1::allocator<void (*)(void*)>, void (void*)>::__clone(std::__ndk1::__function::__base<void (void*)>*) const
PUBLIC 6a38 0 std::__ndk1::__function::__func<void (*)(void*), std::__ndk1::allocator<void (*)(void*)>, void (void*)>::destroy()
PUBLIC 6a3c 0 std::__ndk1::__function::__func<void (*)(void*), std::__ndk1::allocator<void (*)(void*)>, void (void*)>::destroy_deallocate()
PUBLIC 6a40 0 std::__ndk1::__function::__func<void (*)(void*), std::__ndk1::allocator<void (*)(void*)>, void (void*)>::operator()(void*&&)
PUBLIC 6a50 0 std::__ndk1::__function::__func<void (*)(void*), std::__ndk1::allocator<void (*)(void*)>, void (void*)>::target(std::type_info const&) const
PUBLIC 6a6c 0 std::__ndk1::__function::__func<void (*)(void*), std::__ndk1::allocator<void (*)(void*)>, void (void*)>::target_type() const
PUBLIC 6a78 0 std::__ndk1::__tree<std::__ndk1::__value_type<std::__ndk1::basic_string<char, std::__ndk1::char_traits<char>, std::__ndk1::allocator<char> >, std::__ndk1::shared_ptr<geode::Hook> >, std::__ndk1::__map_value_compare<std::__ndk1::basic_string<char, std::__ndk1::char_traits<char>, std::__ndk1::allocator<char> >, std::__ndk1::__value_type<std::__ndk1::basic_string<char, std::__ndk1::char_traits<char>, std::__ndk1::allocator<char> >, std::__ndk1::shared_ptr<geode::Hook> >, std::__ndk1::less<std::__ndk1::basic_string<char, std::__ndk1::char_traits<char>, std::__ndk1::allocator<char> > >, true>, std::__ndk1::allocator<std::__ndk1::__value_type<std::__ndk1::basic_string<char, std::__ndk1::char_traits<char>, std::__ndk1::allocator<char> >, std::__ndk1::shared_ptr<geode::Hook> > > >::__emplace_unique_key_args<std::__ndk1::basic_string<char, std::__ndk1::char_traits<char>, std::__ndk1::allocator<char> >, std::__ndk1::piecewise_construct_t const&, std::__ndk1::tuple<std::__ndk1::basic_string<char, std::__ndk1::char_traits<char>, std::__ndk1::allocator<char> >&&>, std::__ndk1::tuple<> >(std::__ndk1::basic_string<char, std::__ndk1::char_traits<char>, std::__ndk1::allocator<char> > const&, std::__ndk1::piecewise_construct_t const&, std::__ndk1::tuple<std::__ndk1::basic_string<char, std::__ndk1::char_traits<char>, std::__ndk1::allocator<char> >&&>, std::__ndk1::tuple<>)
PUBLIC 6d8c 0 geode::addresser::Addresser::addressOfVirtual<void, cocos2d::CCParticleSystem, float>(void (cocos2d::CCParticleSystem::*)(float))
PUBLIC 6e54 0 cocos2d::CCParticleSystem::CCParticleSystem(geode::ZeroConstructorType)
PUBLIC m 6ee0 0 geodeImplicitEntry
PUBLIC 6f20 0 <.plt ELF section in cgytrus.smooth-particles.android64.so>
STACK CFI INIT 3740 10 .cfa: sp 0 +
STACK CFI INIT 3750 8 .cfa: sp 0 +
STACK CFI INIT 3758 8 .cfa: sp 0 +
STACK CFI INIT 3760 14 .cfa: sp 0 +
STACK CFI INIT 3774 1c .cfa: sp 0 +
STACK CFI INIT 3790 10 .cfa: sp 0 +
STACK CFI INIT 37a0 30 .cfa: sp 0 +
STACK CFI INIT 37d0 98 .cfa: sp 0 +
STACK CFI INIT 3868 59c .cfa: sp 0 +
STACK CFI INIT 3e04 8c .cfa: sp 0 +
STACK CFI INIT 3e90 30 .cfa: sp 0 +
STACK CFI INIT 4a60 18 .cfa: sp 0 +
STACK CFI INIT 532c 50 .cfa: sp 0 +
STACK CFI 5330 .cfa: sp 32 +
STACK CFI 5338 .cfa: x29 32 + x19: .cfa -16 + ^ .ra: .cfa -24 + ^ x29: .cfa -32 + ^
STACK CFI 5350 .cfa: sp 32 +
STACK CFI 5358 .cfa: sp 0 +
STACK CFI 535c .cfa: x29 32 +
STACK CFI 5370 .cfa: sp 32 +
STACK CFI 5378 .cfa: sp 0 +
STACK CFI INIT 53f0 7c .cfa: sp 0 +
STACK CFI 53f4 .cfa: sp 48 +
STACK CFI 5400 .cfa: x29 48 + x19: .cfa -8 + ^ x20: .cfa -16 + ^ x21: .cfa -32 + ^ .ra: .cfa -40 + ^ x29: .cfa -48 + ^
STACK CFI 544c .cfa: sp 48 +
STACK CFI 5458 .cfa: sp 0 +
STACK CFI 545c .cfa: sp 48 +
STACK CFI 5468 .cfa: sp 0 +
STACK CFI INIT 546c 4 .cfa: sp 0 +
STACK CFI INIT 5470 10 .cfa: sp 0 +
STACK CFI 5474 .cfa: sp 16 +
STACK CFI 5478 .cfa: x29 16 + .ra: .cfa -8 + ^ x29: .cfa -16 + ^
STACK CFI INIT 5b7c 34 .cfa: sp 0 +
STACK CFI 5b80 .cfa: sp 16 +
STACK CFI 5b84 .cfa: x29 16 + .ra: .cfa -8 + ^ x29: .cfa -16 + ^
STACK CFI INIT 5bb0 80 .cfa: sp 0 +
STACK CFI 5bb4 .cfa: sp 48 +
STACK CFI 5bc0 .cfa: x29 48 + x19: .cfa -8 + ^ x20: .cfa -16 + ^ x21: .cfa -32 + ^ .ra: .cfa -40 + ^ x29: .cfa -48 + ^
STACK CFI 5c20 .cfa: sp 48 +
STACK CFI 5c2c .cfa: sp 0 +
STACK CFI INIT 5c30 24 .cfa: sp 0 +
STACK CFI 5c34 .cfa: sp 32 +
STACK CFI 5c3c .cfa: x29 32 + x19: .cfa -16 + ^ .ra: .cfa -24 + ^ x29: .cfa -32 + ^
STACK CFI 5c48 .cfa: sp 32 +
STACK CFI 5c50 .cfa: sp 0 +
STACK CFI INIT 5c54 14 .cfa: sp 0 +
STACK CFI 5c58 .cfa: sp 16 +
STACK CFI 5c5c .cfa: x29 16 + .ra: .cfa -8 + ^ x29: .cfa -16 + ^
STACK CFI INIT 5cb8 30 .cfa: sp 0 +
STACK CFI 5cbc .cfa: sp 32 +
STACK CFI 5cc4 .cfa: x29 32 + x19: .cfa -16 + ^ .ra: .cfa -24 + ^ x29: .cfa -32 + ^
STACK CFI 5cdc .cfa: sp 32 +
STACK CFI 5ce4 .cfa: sp 0 +
STACK CFI INIT 5ce8 34 .cfa: sp 0 +
STACK CFI 5cec .cfa: sp 32 +
STACK CFI 5cf4 .cfa: x29 32 + x19: .cfa -16 + ^ .ra: .cfa -24 + ^ x29: .cfa -32 + ^
STACK CFI INIT 5d1c 7c .cfa: sp 0 +
STACK CFI 5d20 .cfa: sp 48 +
STACK CFI 5d2c .cfa: x29 48 + x19: .cfa -8 + ^ x20: .cfa -16 + ^ x21: .cfa -24 + ^ x22: .cfa -32 + ^ .ra: .cfa -40 + ^ x29: .cfa -48 + ^
STACK CFI 5d44 .cfa: sp 48 +
STACK CFI 5d50 .cfa: sp 0 +
STACK CFI 5d54 .cfa: x29 48 +
STACK CFI 5d84 .cfa: sp 48 +
STACK CFI 5d90 .cfa: sp 0 +
STACK CFI 5d94 .cfa: x29 48 +
STACK CFI INIT 5d98 68 .cfa: sp 0 +
STACK CFI 5d9c .cfa: sp 32 +
STACK CFI 5da4 .cfa: x29 32 + x19: .cfa -8 + ^ x20: .cfa -16 + ^ .ra: .cfa -24 + ^ x29: .cfa -32 + ^
STACK CFI 5dbc .cfa: sp 32 +
STACK CFI 5dc4 .cfa: sp 0 +
STACK CFI 5dc8 .cfa: x29 32 +
STACK CFI 5df4 .cfa: sp 32 +
STACK CFI 5dfc .cfa: sp 0 +
STACK CFI INIT 5e00 14 .cfa: sp 0 +
STACK CFI 5e04 .cfa: sp 16 +
STACK CFI 5e08 .cfa: x29 16 + .ra: .cfa -8 + ^ x29: .cfa -16 + ^
STACK CFI INIT 5e14 4 .cfa: sp 0 +
STACK CFI INIT 5e18 14 .cfa: sp 0 +
STACK CFI INIT 5e2c 84 .cfa: sp 0 +
STACK CFI 5e34 .cfa: sp 32 +
STACK CFI 5e3c .cfa: x29 32 + x19: .cfa -8 + ^ x20: .cfa -16 + ^ .ra: .cfa -24 + ^ x29: .cfa -32 + ^
STACK CFI 5e7c .cfa: sp 32 +
STACK CFI 5e84 .cfa: sp 0 +
STACK CFI 5e8c .cfa: x29 32 +
STACK CFI INIT 5eb0 fc .cfa: sp 0 +
STACK CFI 5eb4 .cfa: sp 48 +
STACK CFI 5ec0 .cfa: x29 32 + x19: .cfa -8 + ^ x20: .cfa -16 + ^ .ra: .cfa -24 + ^ x29: .cfa -32 + ^ v8: .cfa -48 + ^
STACK CFI 5f9c .cfa: sp 48 +
STACK CFI 5fa8 .cfa: sp 0 +
STACK CFI INIT 5fac 34 .cfa: sp 0 +
STACK CFI 5fb0 .cfa: sp 32 +
STACK CFI 5fb8 .cfa: x29 32 + x19: .cfa -16 + ^ .ra: .cfa -24 + ^ x29: .cfa -32 + ^
STACK CFI 5fd4 .cfa: sp 32 +
STACK CFI 5fdc .cfa: sp 0 +
STACK CFI INIT 5fe0 238 .cfa: sp 0 +
STACK CFI 5fe4 .cfa: sp 80 +
STACK CFI 5ff8 .cfa: x29 32 + x19: .cfa -8 + ^ x20: .cfa -16 + ^ .ra: .cfa -24 + ^ x29: .cfa -32 + ^ v8: .cfa -40 + ^ v9: .cfa -48 + ^ v10: .cfa -56 + ^ v11: .cfa -64 + ^ v12: .cfa -80 + ^
STACK CFI 608c .cfa: sp 80 +
STACK CFI 60a0 .cfa: sp 0 +
STACK CFI 60a4 .cfa: x29 32 +
STACK CFI 61c0 .cfa: sp 80 +
STACK CFI 61d4 .cfa: sp 0 +
STACK CFI 61d8 .cfa: x29 32 +
STACK CFI 6200 .cfa: sp 80 +
STACK CFI 6214 .cfa: sp 0 +
STACK CFI INIT 6218 50 .cfa: sp 0 +
STACK CFI 621c .cfa: sp 32 +
STACK CFI 6224 .cfa: x29 32 + x19: .cfa -16 + ^ .ra: .cfa -24 + ^ x29: .cfa -32 + ^
STACK CFI 623c .cfa: sp 32 +
STACK CFI 6244 .cfa: sp 0 +
STACK CFI 6248 .cfa: x29 32 +
STACK CFI 625c .cfa: sp 32 +
STACK CFI 6264 .cfa: sp 0 +
STACK CFI INIT 6268 64 .cfa: sp 0 +
STACK CFI 626c .cfa: sp 32 +
STACK CFI 6274 .cfa: x29 32 + x19: .cfa -16 + ^ .ra: .cfa -24 + ^ x29: .cfa -32 + ^
STACK CFI 62a0 .cfa: sp 32 +
STACK CFI 62a8 .cfa: sp 0 +
STACK CFI 62ac .cfa: x29 32 +
STACK CFI 62c0 .cfa: sp 32 +
STACK CFI 62c8 .cfa: sp 0 +
STACK CFI INIT 691c 4 .cfa: sp 0 +
STACK CFI INIT 6920 14 .cfa: sp 0 +
STACK CFI 6924 .cfa: sp 16 +
STACK CFI 6928 .cfa: x29 16 + .ra: .cfa -8 + ^ x29: .cfa -16 + ^
STACK CFI INIT 6934 14 .cfa: sp 0 +
STACK CFI 6938 .cfa: sp 16 +
STACK CFI 693c .cfa: x29 16 + .ra: .cfa -8 + ^ x29: .cfa -16 + ^
STACK CFI INIT 6948 c .cfa: sp 0 +
STACK CFI 694c .cfa: sp 16 +
STACK CFI 6950 .cfa: x29 16 + .ra: .cfa -8 + ^ x29: .cfa -16 + ^
STACK CFI INIT 699c 38 .cfa: sp 0 +
STACK CFI 69a0 .cfa: sp 32 +
STACK CFI 69a8 .cfa: x29 32 + x19: .cfa -16 + ^ .ra: .cfa -24 + ^ x29: .cfa -32 + ^
STACK CFI 69c8 .cfa: sp 32 +
STACK CFI 69d0 .cfa: sp 0 +
STACK CFI INIT 69d4 c .cfa: sp 0 +
STACK CFI 69d8 .cfa: sp 16 +
STACK CFI 69dc .cfa: x29 16 + .ra: .cfa -8 + ^ x29: .cfa -16 + ^
STACK CFI INIT 69e0 4 .cfa: sp 0 +
STACK CFI INIT 69e4 4 .cfa: sp 0 +
STACK CFI INIT 69e8 38 .cfa: sp 0 +
STACK CFI 69ec .cfa: sp 32 +
STACK CFI 69f4 .cfa: x29 32 + x19: .cfa -16 + ^ .ra: .cfa -24 + ^ x29: .cfa -32 + ^
STACK CFI 6a14 .cfa: sp 32 +
STACK CFI 6a1c .cfa: sp 0 +
STACK CFI INIT 6a20 18 .cfa: sp 0 +
STACK CFI INIT 6a38 4 .cfa: sp 0 +
STACK CFI INIT 6a3c 4 .cfa: sp 0 +
STACK CFI INIT 6a40 10 .cfa: sp 0 +
STACK CFI INIT 6a50 1c .cfa: sp 0 +
STACK CFI INIT 6a6c c .cfa: sp 0 +
STACK CFI INIT 6a78 314 .cfa: sp 0 +
STACK CFI 6a7c .cfa: sp 96 +
STACK CFI 6a94 .cfa: x29 96 + x19: .cfa -8 + ^ x20: .cfa -16 + ^ x21: .cfa -24 + ^ x22: .cfa -32 + ^ x23: .cfa -40 + ^ x24: .cfa -48 + ^ x25: .cfa -56 + ^ x26: .cfa -64 + ^ x27: .cfa -80 + ^ .ra: .cfa -88 + ^ x29: .cfa -96 + ^
STACK CFI 6d50 .cfa: sp 96 +
STACK CFI 6d68 .cfa: sp 0 +
STACK CFI 6d6c .cfa: x29 96 +
STACK CFI INIT 6ee0 3c .cfa: sp 0 +
STACK CFI 6ee4 .cfa: sp 32 +
STACK CFI 6eec .cfa: x29 32 + x19: .cfa -16 + ^ .ra: .cfa -24 + ^ x29: .cfa -32 + ^
STACK CFI 6ef8 .cfa: sp 32 +
STACK CFI 6f00 .cfa: sp 0 +
STACK CFI 6f04 .cfa: x29 32 +
STACK CFI 6f10 .cfa: sp 32 +
STACK CFI 6f18 .cfa: sp 0 +
STACK CFI INIT 3ec0 ba0 .cfa: sp 0 +
STACK CFI 3ec4 .cfa: sp 240 +
STACK CFI 3ee0 .cfa: x29 96 + x19: .cfa -8 + ^ x20: .cfa -16 + ^ x21: .cfa -24 + ^ x22: .cfa -32 + ^ x23: .cfa -40 + ^ x24: .cfa -48 + ^ x25: .cfa -56 + ^ x26: .cfa -64 + ^ x27: .cfa -72 + ^ x28: .cfa -80 + ^ .ra: .cfa -88 + ^ x29: .cfa -96 + ^
STACK CFI 4908 .cfa: sp 240 +
STACK CFI 4924 .cfa: sp 0 +
STACK CFI 4928 .cfa: x29 96 +
STACK CFI INIT 4a78 8b4 .cfa: sp 0 +
STACK CFI 4a7c .cfa: sp 288 +
STACK CFI 4a98 .cfa: x29 96 + x19: .cfa -8 + ^ x20: .cfa -16 + ^ x21: .cfa -24 + ^ x22: .cfa -32 + ^ x23: .cfa -40 + ^ x24: .cfa -48 + ^ x25: .cfa -56 + ^ x26: .cfa -64 + ^ x28: .cfa -80 + ^ .ra: .cfa -88 + ^ x29: .cfa -96 + ^
STACK CFI 50b0 .cfa: sp 288 +
STACK CFI 50cc .cfa: sp 0 +
STACK CFI 50d0 .cfa: x29 96 +
STACK CFI INIT 537c 74 .cfa: sp 0 +
STACK CFI 5380 .cfa: sp 48 +
STACK CFI 538c .cfa: x29 32 + x19: .cfa -8 + ^ x20: .cfa -16 + ^ .ra: .cfa -24 + ^ x29: .cfa -32 + ^
STACK CFI 53d8 .cfa: sp 48 +
STACK CFI 53e4 .cfa: sp 0 +
STACK CFI 53e8 .cfa: x29 32 +
STACK CFI INIT 5480 6fc .cfa: sp 0 +
STACK CFI 5484 .cfa: sp 496 +
STACK CFI 54a0 .cfa: x29 96 + x19: .cfa -8 + ^ x20: .cfa -16 + ^ x21: .cfa -24 + ^ x22: .cfa -32 + ^ x23: .cfa -40 + ^ x24: .cfa -48 + ^ x25: .cfa -56 + ^ x26: .cfa -64 + ^ x27: .cfa -72 + ^ x28: .cfa -80 + ^ .ra: .cfa -88 + ^ x29: .cfa -96 + ^
STACK CFI 5a50 .cfa: sp 496 +
STACK CFI 5a6c .cfa: sp 0 +
STACK CFI 5a70 .cfa: x29 96 +
STACK CFI INIT 5c68 50 .cfa: sp 0 +
STACK CFI 5c6c .cfa: sp 32 +
STACK CFI 5c74 .cfa: x29 32 + x19: .cfa -8 + ^ x20: .cfa -16 + ^ .ra: .cfa -24 + ^ x29: .cfa -32 + ^
STACK CFI INIT 62cc 650 .cfa: sp 0 +
STACK CFI 62d0 .cfa: sp 176 +
STACK CFI 62ec .cfa: x29 96 + x19: .cfa -8 + ^ x20: .cfa -16 + ^ x21: .cfa -24 + ^ x22: .cfa -32 + ^ x23: .cfa -40 + ^ x24: .cfa -48 + ^ x25: .cfa -56 + ^ x26: .cfa -64 + ^ x27: .cfa -72 + ^ x28: .cfa -80 + ^ .ra: .cfa -88 + ^ x29: .cfa -96 + ^
STACK CFI 67b8 .cfa: sp 176 +
STACK CFI 67d4 .cfa: sp 0 +
STACK CFI 67d8 .cfa: x29 96 +
STACK CFI INIT 6954 48 .cfa: sp 0 +
STACK CFI 6958 .cfa: sp 32 +
STACK CFI 6960 .cfa: x29 32 + x19: .cfa -8 + ^ x20: .cfa -16 + ^ .ra: .cfa -24 + ^ x29: .cfa -32 + ^
STACK CFI INIT 6d8c c8 .cfa: sp 0 +
STACK CFI 6d90 .cfa: sp 32 +
STACK CFI 6d98 .cfa: x29 32 + x19: .cfa -8 + ^ x20: .cfa -16 + ^ .ra: .cfa -24 + ^ x29: .cfa -32 + ^
STACK CFI 6dcc .cfa: sp 32 +
STACK CFI 6dd4 .cfa: sp 0 +
STACK CFI 6dd8 .cfa: x29 32 +
STACK CFI 6ddc .cfa: sp 32 +
STACK CFI 6de4 .cfa: sp 0 +
STACK CFI 6de8 .cfa: x29 32 +
STACK CFI INIT 6e54 8c .cfa: sp 0 +
STACK CFI 6e58 .cfa: sp 32 +
STACK CFI 6e60 .cfa: x29 32 + x19: .cfa -8 + ^ x20: .cfa -16 + ^ .ra: .cfa -24 + ^ x29: .cfa -32 + ^
STACK CFI 6ec0 .cfa: sp 32 +
STACK CFI 6ec8 .cfa: sp 0 +
STACK CFI 6ecc .cfa: x29 32 +
