MODULE Linux arm64 A6DFFB5983807C93C7DEC500D6D9E65E0 raydeeux.109780665.android64.so
INFO CODE_ID 59FBDFA68083937CC7DEC500D6D9E65E1175F662
INFO GENERATOR mozilla/dump_syms 2.3.4
PUBLIC 10480 0 __on_dlclose
PUBLIC 10490 0 __emutls_unregister_key
PUBLIC 10498 0 __on_dlclose_late
PUBLIC 104a0 0 __atexit_handler_wrapper
PUBLIC 104b4 0 atexit
PUBLIC 104d0 0 pthread_atfork
PUBLIC 104e0 0 CBFDetectedLoser::init()
PUBLIC 10f78 0 cocos2d::CCCopying::copyWithZone(cocos2d::CCZone*)
PUBLIC 10f80 0 CBFDetectedLoser::~CBFDetectedLoser()
PUBLIC 10fb0 0 __aarch64_ldadd8_relax
PUBLIC 10fe0 0 init_have_lse_atomics
PUBLIC 11078 0 __init_cpu_features_constructor
PUBLIC 11614 0 __init_cpu_features
PUBLIC 116a0 0 __aarch64_ldadd8_acq_rel
PUBLIC 116d0 0 __cxx_global_var_init
PUBLIC 11b50 0 geode::modifier::ModifyBase<geode::modifier::ModifyDerive<MyCCScheduler, cocos2d::CCScheduler> >::~ModifyBase()
PUBLIC 11b6c 0 geode::modifier::ModifyDerive<MyCCScheduler, cocos2d::CCScheduler>::apply()
PUBLIC 11eec 0 std::__ndk1::shared_ptr<geode::Hook>::~shared_ptr[abi:ne180000]()
PUBLIC 11f3c 0 geode::impl::ResultData<geode::Hook*, std::__ndk1::basic_string<char, std::__ndk1::char_traits<char>, std::__ndk1::allocator<char> > >::~ResultData()
PUBLIC 11fb0 0 std::__ndk1::vector<std::__ndk1::basic_string<char, std::__ndk1::char_traits<char>, std::__ndk1::allocator<char> >, std::__ndk1::allocator<std::__ndk1::basic_string<char, std::__ndk1::char_traits<char>, std::__ndk1::allocator<char> > > >::~vector[abi:ne180000]()
PUBLIC 1202c 0 geode::modifier::ModifyBase<geode::modifier::ModifyDerive<MyCCScheduler, cocos2d::CCScheduler> >::apply()
PUBLIC 12030 0 __clang_call_terminate
PUBLIC 12040 0 _ZN5geode15UnwrapExceptionC2IRPNS_4HookEQsr4implE18IsStringStreamableIT_EEENS_4impl5OkTagEOS5_
PUBLIC 12194 0 std::__ndk1::__throw_bad_variant_access[abi:ne180000]()
PUBLIC 121c8 0 std::__ndk1::basic_stringstream<char, std::__ndk1::char_traits<char>, std::__ndk1::allocator<char> >::basic_stringstream[abi:ne180000]()
PUBLIC m 122f4 0 std::__ndk1::basic_stringstream<char, std::__ndk1::char_traits<char>, std::__ndk1::allocator<char> >::~basic_stringstream()
PUBLIC 12374 0 geode::UnwrapException::~UnwrapException()
PUBLIC 12398 0 std::__ndk1::__put_character_sequence[abi:ne180000]<char, std::__ndk1::char_traits<char> >(std::__ndk1::basic_ostream<char, std::__ndk1::char_traits<char> >, std::__ndk1::basic_ostream const*, unsigned long)
PUBLIC 1253c 0 std::__ndk1::__pad_and_output[abi:ne180000]<char, std::__ndk1::char_traits<char> >(std::__ndk1::char_traits<char>, std::__ndk1::ostreambuf_iterator const*, std::__ndk1::ostreambuf_iterator const, std::__ndk1::ostreambuf_iterator const, std::__ndk1::ios_base&, std::__ndk1::ostreambuf_iterator)
PUBLIC 12718 0 std::__ndk1::basic_string<char, std::__ndk1::char_traits<char>, std::__ndk1::allocator<char> >::__throw_length_error[abi:ne180000]() const
PUBLIC 1272c 0 std::__ndk1::__throw_length_error[abi:ne180000](char const*)
PUBLIC 1277c 0 std::length_error::length_error[abi:ne180000](char const*)
PUBLIC 127ac 0 std::__throw_bad_array_new_length([abi:ne180000], void)
PUBLIC 127e0 0 std::__ndk1::basic_stringbuf<char, std::__ndk1::char_traits<char>, std::__ndk1::allocator<char> >::str[abi:ne180000]() &&
PUBLIC 12958 0 std::__ndk1::basic_stringbuf<char, std::__ndk1::char_traits<char>, std::__ndk1::allocator<char> >::__init_buf_ptrs[abi:ne180000]()
PUBLIC 12aa0 0 std::__ndk1::vector<std::__ndk1::basic_string<char, std::__ndk1::char_traits<char>, std::__ndk1::allocator<char> >, std::__ndk1::allocator<std::__ndk1::basic_string<char, std::__ndk1::char_traits<char>, std::__ndk1::allocator<char> > > >::__push_back_slow_path<std::__ndk1::basic_string<char, std::__ndk1::char_traits<char>, std::__ndk1::allocator<char> > const&>(std::__ndk1::basic_string<char, std::__ndk1::char_traits<char>, std::__ndk1::allocator<char> > const&)
PUBLIC 12cc8 0 std::__ndk1::basic_string<char, std::__ndk1::char_traits<char>, std::__ndk1::allocator<char> >::__init_copy_ctor_external(char const*, unsigned long)
PUBLIC 12d48 0 std::__ndk1::__split_buffer<std::__ndk1::basic_string<char, std::__ndk1::char_traits<char>, std::__ndk1::allocator<char> >, std::__ndk1::allocator<std::__ndk1::basic_string<char, std::__ndk1::char_traits<char>, std::__ndk1::allocator<char> > >&>::~__split_buffer()
PUBLIC 12db0 0 std::__ndk1::vector<std::__ndk1::basic_string<char, std::__ndk1::char_traits<char>, std::__ndk1::allocator<char> >, std::__ndk1::allocator<std::__ndk1::basic_string<char, std::__ndk1::char_traits<char>, std::__ndk1::allocator<char> > > >::__throw_length_error[abi:ne180000]() const
PUBLIC 12dc4 0 std::__ndk1::__variant_detail::__visitation::__base::__dispatcher<(unsigned long)0>::__dispatch[abi:ne180000]<std::__ndk1::__variant_detail::__dtor<std::__ndk1::__variant_detail::__traits<geode::Hook*, std::__ndk1::basic_string<char, std::__ndk1::char_traits<char>, std::__ndk1::allocator<char> > >, (std::__ndk1::__variant_detail::_Trait)1>::__destroy[abi:ne180000]()::{lambda(auto:1&)#1}, std::__ndk1::__variant_detail::__base<(std::__ndk1::__variant_detail::__traits<geode::Hook*, std::__ndk1::basic_string<char, std::__ndk1::char_traits<char>, std::__ndk1::allocator<char> > >)1, geode::Hook, std::__ndk1::allocator<char> >&>(std::__ndk1::__variant_detail::__dtor<std::__ndk1::__variant_detail::__traits<geode::Hook*, std::__ndk1::basic_string<char, std::__ndk1::char_traits<char>, std::__ndk1::allocator<char> > >, (std::__ndk1::__variant_detail::_Trait)1>, std::__ndk1::__variant_detail::__base<(std::__ndk1::__variant_detail::__traits<geode::Hook*, std::__ndk1::basic_string<char, std::__ndk1::char_traits<char>, std::__ndk1::allocator<char> > >)1, geode::Hook, std::__ndk1::allocator<char> >&)
PUBLIC 12dc8 0 std::__ndk1::__variant_detail::__visitation::__base::__dispatcher<(unsigned long)1>::__dispatch[abi:ne180000]<std::__ndk1::__variant_detail::__dtor<std::__ndk1::__variant_detail::__traits<geode::Hook*, std::__ndk1::basic_string<char, std::__ndk1::char_traits<char>, std::__ndk1::allocator<char> > >, (std::__ndk1::__variant_detail::_Trait)1>::__destroy[abi:ne180000]()::{lambda(auto:1&)#1}, std::__ndk1::__variant_detail::__base<(std::__ndk1::__variant_detail::__traits<geode::Hook*, std::__ndk1::basic_string<char, std::__ndk1::char_traits<char>, std::__ndk1::allocator<char> > >)1, geode::Hook, std::__ndk1::allocator<char> >&>(std::__ndk1::__variant_detail::__dtor<std::__ndk1::__variant_detail::__traits<geode::Hook*, std::__ndk1::basic_string<char, std::__ndk1::char_traits<char>, std::__ndk1::allocator<char> > >, (std::__ndk1::__variant_detail::_Trait)1>, std::__ndk1::__variant_detail::__base<(std::__ndk1::__variant_detail::__traits<geode::Hook*, std::__ndk1::basic_string<char, std::__ndk1::char_traits<char>, std::__ndk1::allocator<char> > >)1, geode::Hook, std::__ndk1::allocator<char> >&)
PUBLIC 12ddc 0 std::__ndk1::__tree<std::__ndk1::__value_type<std::__ndk1::basic_string<char, std::__ndk1::char_traits<char>, std::__ndk1::allocator<char> >, std::__ndk1::shared_ptr<geode::Hook> >, std::__ndk1::__map_value_compare<std::__ndk1::basic_string<char, std::__ndk1::char_traits<char>, std::__ndk1::allocator<char> >, std::__ndk1::__value_type<std::__ndk1::basic_string<char, std::__ndk1::char_traits<char>, std::__ndk1::allocator<char> >, std::__ndk1::shared_ptr<geode::Hook> >, std::__ndk1::less<std::__ndk1::basic_string<char, std::__ndk1::char_traits<char>, std::__ndk1::allocator<char> > >, true>, std::__ndk1::allocator<std::__ndk1::__value_type<std::__ndk1::basic_string<char, std::__ndk1::char_traits<char>, std::__ndk1::allocator<char> >, std::__ndk1::shared_ptr<geode::Hook> > > >::find<std::__ndk1::basic_string<char, std::__ndk1::char_traits<char>, std::__ndk1::allocator<char> > >(std::__ndk1::basic_string<char, std::__ndk1::char_traits<char>, std::__ndk1::allocator<char> > const&)
PUBLIC 12efc 0 std::__ndk1::__tree<std::__ndk1::__value_type<std::__ndk1::basic_string<char, std::__ndk1::char_traits<char>, std::__ndk1::allocator<char> >, std::__ndk1::shared_ptr<geode::Hook> >, std::__ndk1::__map_value_compare<std::__ndk1::basic_string<char, std::__ndk1::char_traits<char>, std::__ndk1::allocator<char> >, std::__ndk1::__value_type<std::__ndk1::basic_string<char, std::__ndk1::char_traits<char>, std::__ndk1::allocator<char> >, std::__ndk1::shared_ptr<geode::Hook> >, std::__ndk1::less<std::__ndk1::basic_string<char, std::__ndk1::char_traits<char>, std::__ndk1::allocator<char> > >, true>, std::__ndk1::allocator<std::__ndk1::__value_type<std::__ndk1::basic_string<char, std::__ndk1::char_traits<char>, std::__ndk1::allocator<char> >, std::__ndk1::shared_ptr<geode::Hook> > > >::erase(std::__ndk1::__tree_const_iterator<std::__ndk1::__value_type<std::__ndk1::basic_string<char, std::__ndk1::char_traits<char>, std::__ndk1::allocator<char> >, std::__ndk1::shared_ptr<geode::Hook> >, std::__ndk1::__tree_node<std::__ndk1::__value_type<std::__ndk1::basic_string<char, std::__ndk1::char_traits<char>, std::__ndk1::allocator<char> >, std::__ndk1::shared_ptr<geode::Hook> >, void*>*, long>)
PUBLIC 12fd0 0 std::__ndk1::__tree_remove[abi:ne180000]<std::__ndk1::__tree_node_base<void*>*>(std::__ndk1::__tree_node_base<void*>*, std::__ndk1::__tree_node_base<void*>*)
PUBLIC 13398 0 std::__ndk1::__tree<std::__ndk1::__value_type<std::__ndk1::basic_string<char, std::__ndk1::char_traits<char>, std::__ndk1::allocator<char> >, std::__ndk1::shared_ptr<geode::Hook> >, std::__ndk1::__map_value_compare<std::__ndk1::basic_string<char, std::__ndk1::char_traits<char>, std::__ndk1::allocator<char> >, std::__ndk1::__value_type<std::__ndk1::basic_string<char, std::__ndk1::char_traits<char>, std::__ndk1::allocator<char> >, std::__ndk1::shared_ptr<geode::Hook> >, std::__ndk1::less<std::__ndk1::basic_string<char, std::__ndk1::char_traits<char>, std::__ndk1::allocator<char> > >, true>, std::__ndk1::allocator<std::__ndk1::__value_type<std::__ndk1::basic_string<char, std::__ndk1::char_traits<char>, std::__ndk1::allocator<char> >, std::__ndk1::shared_ptr<geode::Hook> > > >::destroy(std::__ndk1::__tree_node<std::__ndk1::__value_type<std::__ndk1::basic_string<char, std::__ndk1::char_traits<char>, std::__ndk1::allocator<char> >, std::__ndk1::shared_ptr<geode::Hook> >, void*>*)
PUBLIC 13424 0 geode::modifier::AsStaticFunction_update<MyCCScheduler, void (MyCCScheduler::*)(float)>::Impl<void (MyCCScheduler::*)(float)>::function(MyCCScheduler*, float)
PUBLIC 13510 0 geode::addresser::Addresser::addressOfVirtual<void, cocos2d::CCScheduler, float>(void (cocos2d::CCScheduler::*)(float))
PUBLIC 135e8 0 std::__ndk1::shared_ptr<tulip::hook::CallingConvention>::~shared_ptr[abi:ne180000]()
PUBLIC 13638 0 tulip::hook::HandlerMetadata::~HandlerMetadata()
PUBLIC 1369c 0 std::__ndk1::__tree<std::__ndk1::__value_type<std::__ndk1::basic_string<char, std::__ndk1::char_traits<char>, std::__ndk1::allocator<char> >, std::__ndk1::shared_ptr<geode::Hook> >, std::__ndk1::__map_value_compare<std::__ndk1::basic_string<char, std::__ndk1::char_traits<char>, std::__ndk1::allocator<char> >, std::__ndk1::__value_type<std::__ndk1::basic_string<char, std::__ndk1::char_traits<char>, std::__ndk1::allocator<char> >, std::__ndk1::shared_ptr<geode::Hook> >, std::__ndk1::less<std::__ndk1::basic_string<char, std::__ndk1::char_traits<char>, std::__ndk1::allocator<char> > >, true>, std::__ndk1::allocator<std::__ndk1::__value_type<std::__ndk1::basic_string<char, std::__ndk1::char_traits<char>, std::__ndk1::allocator<char> >, std::__ndk1::shared_ptr<geode::Hook> > > >::__emplace_unique_key_args<std::__ndk1::basic_string<char, std::__ndk1::char_traits<char>, std::__ndk1::allocator<char> >, std::__ndk1::piecewise_construct_t const&, std::__ndk1::tuple<std::__ndk1::basic_string<char, std::__ndk1::char_traits<char>, std::__ndk1::allocator<char> >&&>, std::__ndk1::tuple<> >(std::__ndk1::basic_string<char, std::__ndk1::char_traits<char>, std::__ndk1::allocator<char> > const&, std::__ndk1::piecewise_construct_t const&, std::__ndk1::tuple<std::__ndk1::basic_string<char, std::__ndk1::char_traits<char>, std::__ndk1::allocator<char> >&&>, std::__ndk1::tuple<>)
PUBLIC 13814 0 std::__ndk1::__tree_balance_after_insert[abi:ne180000]<std::__ndk1::__tree_node_base<void*>*>(std::__ndk1::__tree_node_base<void*>*, std::__ndk1::__tree_node_base<void*>*)
PUBLIC 139c4 0 __cxx_global_var_init
PUBLIC 13e44 0 geode::modifier::ModifyBase<geode::modifier::ModifyDerive<MyMenuLayer, MenuLayer> >::~ModifyBase()
PUBLIC 13e60 0 geode::modifier::ModifyDerive<MyMenuLayer, MenuLayer>::apply()
PUBLIC 14168 0 geode::modifier::ModifyBase<geode::modifier::ModifyDerive<MyMenuLayer, MenuLayer> >::apply()
PUBLIC 1416c 0 geode::modifier::AsStaticFunction_init<MyMenuLayer, bool (MyMenuLayer::*)()>::Impl<bool (MyMenuLayer::*)()>::function(MyMenuLayer*)
PUBLIC 14240 0 geode::addresser::Addresser::addressOfVirtual<bool, MenuLayer, >(bool (MenuLayer::*)())
PUBLIC 142e8 0 MenuLayer::MenuLayer(geode::ZeroConstructorType)
PUBLIC 14384 0 geode::modifier::FieldIntermediate<MyMenuLayer, MenuLayer>::self()
PUBLIC 149d8 0 geode::modifier::FieldIntermediate<MyMenuLayer, MenuLayer>::fieldDestructor(void*)
PUBLIC 149dc 0 std::__ndk1::vector<void*, std::__ndk1::allocator<void*> >::__throw_length_error[abi:ne180000]() const
PUBLIC 149f0 0 std::__ndk1::vector<std::__ndk1::function<void (void*)>, std::__ndk1::allocator<std::__ndk1::function<void (void*)> > >::__throw_length_error[abi:ne180000]() const
PUBLIC 14a04 0 std::__ndk1::vector<void*, std::__ndk1::allocator<void*> >::__throw_out_of_range[abi:ne180000]() const
PUBLIC 14a10 0 std::__ndk1::__throw_out_of_range[abi:ne180000](char const*)
PUBLIC 14a60 0 std::out_of_range::out_of_range[abi:ne180000](char const*)
PUBLIC 14a90 0 std::__ndk1::vector<std::__ndk1::function<void (void*)>, std::__ndk1::allocator<std::__ndk1::function<void (void*)> > >::__throw_out_of_range[abi:ne180000]() const
PUBLIC 14a9c 0 std::__ndk1::__function::__base<void (void*)>::~__base()
PUBLIC 14aa0 0 std::__ndk1::__function::__func<void (*)(void*), std::__ndk1::allocator<void (*)(void*)>, void (void*)>::~__func()
PUBLIC 14aa4 0 std::__ndk1::__function::__func<void (*)(void*), std::__ndk1::allocator<void (*)(void*)>, void (void*)>::__clone() const
PUBLIC 14adc 0 std::__ndk1::__function::__func<void (*)(void*), std::__ndk1::allocator<void (*)(void*)>, void (void*)>::__clone(std::__ndk1::__function::__base<void (void*)>*) const
PUBLIC 14af4 0 std::__ndk1::__function::__func<void (*)(void*), std::__ndk1::allocator<void (*)(void*)>, void (void*)>::destroy()
PUBLIC 14af8 0 std::__ndk1::__function::__func<void (*)(void*), std::__ndk1::allocator<void (*)(void*)>, void (void*)>::destroy_deallocate()
PUBLIC 14afc 0 std::__ndk1::__function::__func<void (*)(void*), std::__ndk1::allocator<void (*)(void*)>, void (void*)>::operator()(void*&&)
PUBLIC 14b0c 0 std::__ndk1::__function::__func<void (*)(void*), std::__ndk1::allocator<void (*)(void*)>, void (void*)>::target(std::type_info const&) const
PUBLIC 14b28 0 std::__ndk1::__function::__func<void (*)(void*), std::__ndk1::allocator<void (*)(void*)>, void (void*)>::target_type() const
PUBLIC 14b34 0 Utils::getBool(std::__ndk1::basic_string<char, std::__ndk1::char_traits<char>, std::__ndk1::allocator<char> >)
PUBLIC 14c28 0 Utils::getInt(std::__ndk1::basic_string<char, std::__ndk1::char_traits<char>, std::__ndk1::allocator<char> >)
PUBLIC 14d20 0 Utils::getDouble(std::__ndk1::basic_string<char, std::__ndk1::char_traits<char>, std::__ndk1::allocator<char> >)
PUBLIC 14e1c 0 Utils::handleCBFDL(cocos2d::CCScene*)
PUBLIC 158a4 0 Utils::removeCBFDL()
PUBLIC 1597c 0 Utils::addCBFDL()
PUBLIC 15b4c 0 std::__ndk1::operator==[abi:ne180000]<char, std::__ndk1::char_traits<char>, std::__ndk1::allocator<char> >(std::__ndk1::basic_string<char, std::__ndk1::char_traits<char>, std::__ndk1::allocator<char> > const&, std::__ndk1::basic_string const*)
PUBLIC 15bcc 0 std::__ndk1::basic_string<char, std::__ndk1::char_traits<char>, std::__ndk1::allocator<char> >::ends_with[abi:ne180000](char const*) const
PUBLIC 15c2c 0 std::__ndk1::basic_string<char, std::__ndk1::char_traits<char>, std::__ndk1::allocator<char> >::__assign_no_alias<true>(char const*, unsigned long)
PUBLIC 15cd8 0 std::__ndk1::basic_string<char, std::__ndk1::char_traits<char>, std::__ndk1::allocator<char> >::__assign_no_alias<false>(char const*, unsigned long)
PUBLIC 15de8 0 geode::Mod::getSettingValue<bool>(std::__ndk1::basic_string_view<char, std::__ndk1::char_traits<char> >) const
PUBLIC 15f1c 0 geode::cast::traverseTypeinfoFor(void*, geode::cast::ClassTypeinfoType const*, char const*)
PUBLIC 16020 0 geode::Mod::getSettingValue<long>(std::__ndk1::basic_string_view<char, std::__ndk1::char_traits<char> >) const
PUBLIC 16138 0 geode::Mod::getSettingValue<double>(std::__ndk1::basic_string_view<char, std::__ndk1::char_traits<char> >) const
PUBLIC 16268 0 std::__ndk1::shared_ptr<geode::StringSettingV3>::~shared_ptr[abi:ne180000]()
PUBLIC 162b8 0 fmt::v11::detail::value<fmt::v11::context>::format_custom_arg<gd::string, fmt::v11::formatter<gd::string, char, void> >(void*, fmt::v11::basic_format_parse_context<char>&, fmt::v11::context&)
PUBLIC 1648c 0 fmt::v11::detail::parse_format_specs<char>(char const*, char const*, fmt::v11::detail::dynamic_format_specs<char>&, fmt::v11::basic_format_parse_context<char>&, fmt::v11::detail::type)
PUBLIC 16940 0 fmt::v11::detail::parse_dynamic_spec<char>(char const*, char const*, int&, fmt::v11::detail::arg_ref<char>&, fmt::v11::basic_format_parse_context<char>&)
PUBLIC 16ae4 0 fmt::v11::detail::do_parse_arg_id<char, fmt::v11::detail::dynamic_spec_id_handler<char>&>(char const*, char const*, fmt::v11::detail::dynamic_spec_id_handler<char>&)
PUBLIC 16c78 0 fmt::v11::detail::handle_dynamic_spec<fmt::v11::detail::width_checker, fmt::v11::context>(int&, fmt::v11::detail::arg_ref<fmt::v11::context::char_type>, fmt::v11::context&)
PUBLIC 16d8c 0 fmt::v11::detail::handle_dynamic_spec<fmt::v11::detail::precision_checker, fmt::v11::context>(int&, fmt::v11::detail::arg_ref<fmt::v11::context::char_type>, fmt::v11::context&)
PUBLIC 16ea0 0 fmt::v11::detail::write<char, fmt::v11::basic_appender<char> >(fmt::v11::basic_appender<char>, fmt::v11::basic_string_view<char>, fmt::v11::format_specs const&)
PUBLIC 1711c 0 fmt::v11::detail::write_escaped_string<char, fmt::v11::detail::counting_iterator>(fmt::v11::detail::counting_iterator, fmt::v11::basic_string_view<char>)
PUBLIC 1763c 0 fmt::v11::detail::write_padded<char, (fmt::v11::align::type)1, fmt::v11::basic_appender<char>, fmt::v11::detail::write<char, fmt::v11::basic_appender<char> >(fmt::v11::basic_appender<char>, fmt::v11::basic_string_view<char>, fmt::v11::format_specs const&)::{lambda(fmt::v11::basic_appender<char>)#1}>(fmt::v11::basic_appender<char>, fmt::v11::format_specs const&, unsigned long, unsigned long, fmt::v11::detail::write<char, fmt::v11::basic_appender<char> >(fmt::v11::basic_appender<char>, fmt::v11::basic_string_view<char>, fmt::v11::format_specs const&)::{lambda(fmt::v11::basic_appender<char>&&)#1})
PUBLIC 17848 0 fmt::v11::detail::for_each_codepoint<fmt::v11::detail::code_point_index(fmt::v11::basic_string_view<char>, unsigned long)::{lambda(unsigned int, fmt::v11::basic_string_view<char>)#1}>(fmt::v11::basic_string_view<char>, fmt::v11::detail::code_point_index(fmt::v11::basic_string_view<char>, unsigned long)::{lambda(unsigned int, fmt::v11::basic_string_view<char>)#1})
PUBLIC 17c70 0 fmt::v11::detail::write_escaped_cp<fmt::v11::detail::counting_iterator, char>(fmt::v11::detail::counting_iterator, fmt::v11::detail::find_escape_result<char> const&)
PUBLIC 17e04 0 fmt::v11::detail::for_each_codepoint<fmt::v11::detail::compute_width(fmt::v11::basic_string_view<char>)::count_code_points>(fmt::v11::basic_string_view<char>, fmt::v11::detail::compute_width(fmt::v11::basic_string_view<char>)::count_code_points)::{lambda(char const*, char const*)#1}::operator()(char const*, char const*) const
PUBLIC 17fbc 0 fmt::v11::detail::fill<char, fmt::v11::basic_appender<char> >(fmt::v11::basic_appender<char>, unsigned long, fmt::v11::detail::fill_t const&)
PUBLIC 1818c 0 fmt::v11::detail::write_escaped_string<char, fmt::v11::basic_appender<char> >(fmt::v11::basic_appender<char>, fmt::v11::basic_string_view<char>)
PUBLIC 18808 0 fmt::v11::detail::write_escaped_cp<fmt::v11::basic_appender<char>, char>(fmt::v11::basic_appender<char>, fmt::v11::detail::find_escape_result<char> const&)
PUBLIC 189ec 0 fmt::v11::detail::write_codepoint<(unsigned long)2, char, fmt::v11::basic_appender<char> >(fmt::v11::basic_appender<char>, char, unsigned int)
PUBLIC 18b64 0 fmt::v11::detail::write_codepoint<(unsigned long)4, char, fmt::v11::basic_appender<char> >(fmt::v11::basic_appender<char>, char, unsigned int)
PUBLIC 18cdc 0 fmt::v11::detail::write_codepoint<(unsigned long)8, char, fmt::v11::basic_appender<char> >(fmt::v11::basic_appender<char>, char, unsigned int)
PUBLIC 18e54 0 fmt::v11::detail::get_dynamic_spec<fmt::v11::detail::width_checker, fmt::v11::basic_format_arg<fmt::v11::context> >(fmt::v11::basic_format_arg<fmt::v11::context>)
PUBLIC 18ee8 0 fmt::v11::basic_format_args<fmt::v11::context>::get<char>(fmt::v11::basic_string_view<char>) const
PUBLIC 19040 0 fmt::v11::detail::get_dynamic_spec<fmt::v11::detail::precision_checker, fmt::v11::basic_format_arg<fmt::v11::context> >(fmt::v11::basic_format_arg<fmt::v11::context>)
PUBLIC 190d4 0 geodeExecFunction7<(anonymous namespace)::ExecFuncUnique7>(geode::ModStateEvent*)
PUBLIC 19da8 0 geode::EventListener<geode::SettingChangedFilterV3>::EventListener(std::__ndk1::function<void (std::__ndk1::shared_ptr<geode::SettingV3>)>, geode::SettingChangedFilterV3)
PUBLIC 19ea0 0 geode::SettingChangedFilterV3::~SettingChangedFilterV3()
PUBLIC 19ef0 0 std::__ndk1::__function::__func<geode::listenForSettingChangesV3<bool, geodeExecFunction7<(anonymous namespace)::ExecFuncUnique7>(geode::ModStateEvent*)::{lambda(bool)#1}>(std::__ndk1::basic_string_view<char, std::__ndk1::char_traits<char> >, geodeExecFunction7<(anonymous namespace)::ExecFuncUnique7>(geode::ModStateEvent*)::{lambda(bool)#1}&&, geode::Mod*)::{lambda(std::__ndk1::shared_ptr<geode::SettingV3>)#1}, std::__ndk1::allocator<geode::listenForSettingChangesV3<bool, geodeExecFunction7<(anonymous namespace)::ExecFuncUnique7>(geode::ModStateEvent*)::{lambda(bool)#1}>(std::__ndk1::basic_string_view<char, std::__ndk1::char_traits<char> >, geodeExecFunction7<(anonymous namespace)::ExecFuncUnique7>(geode::ModStateEvent*)::{lambda(bool)#1}&&, geode::Mod*)::{lambda(std::__ndk1::shared_ptr<geode::SettingV3>)#1}>, void (std::__ndk1::shared_ptr<geode::SettingV3>)>::~__func()
PUBLIC 19ef4 0 std::__ndk1::__function::__func<geode::listenForSettingChangesV3<bool, geodeExecFunction7<(anonymous namespace)::ExecFuncUnique7>(geode::ModStateEvent*)::{lambda(bool)#1}>(std::__ndk1::basic_string_view<char, std::__ndk1::char_traits<char> >, geodeExecFunction7<(anonymous namespace)::ExecFuncUnique7>(geode::ModStateEvent*)::{lambda(bool)#1}&&, geode::Mod*)::{lambda(std::__ndk1::shared_ptr<geode::SettingV3>)#1}, std::__ndk1::allocator<geode::listenForSettingChangesV3<bool, geodeExecFunction7<(anonymous namespace)::ExecFuncUnique7>(geode::ModStateEvent*)::{lambda(bool)#1}>(std::__ndk1::basic_string_view<char, std::__ndk1::char_traits<char> >, geodeExecFunction7<(anonymous namespace)::ExecFuncUnique7>(geode::ModStateEvent*)::{lambda(bool)#1}&&, geode::Mod*)::{lambda(std::__ndk1::shared_ptr<geode::SettingV3>)#1}>, void (std::__ndk1::shared_ptr<geode::SettingV3>)>::__clone() const
PUBLIC 19f2c 0 std::__ndk1::__function::__func<geode::listenForSettingChangesV3<bool, geodeExecFunction7<(anonymous namespace)::ExecFuncUnique7>(geode::ModStateEvent*)::{lambda(bool)#1}>(std::__ndk1::basic_string_view<char, std::__ndk1::char_traits<char> >, geodeExecFunction7<(anonymous namespace)::ExecFuncUnique7>(geode::ModStateEvent*)::{lambda(bool)#1}&&, geode::Mod*)::{lambda(std::__ndk1::shared_ptr<geode::SettingV3>)#1}, std::__ndk1::allocator<geode::listenForSettingChangesV3<bool, geodeExecFunction7<(anonymous namespace)::ExecFuncUnique7>(geode::ModStateEvent*)::{lambda(bool)#1}>(std::__ndk1::basic_string_view<char, std::__ndk1::char_traits<char> >, geodeExecFunction7<(anonymous namespace)::ExecFuncUnique7>(geode::ModStateEvent*)::{lambda(bool)#1}&&, geode::Mod*)::{lambda(std::__ndk1::shared_ptr<geode::SettingV3>)#1}>, void (std::__ndk1::shared_ptr<geode::SettingV3>)>::__clone(std::__ndk1::__function::__base<void (std::__ndk1::shared_ptr<geode::SettingV3>)>*) const
PUBLIC 19f44 0 std::__ndk1::__function::__func<geode::listenForSettingChangesV3<bool, geodeExecFunction7<(anonymous namespace)::ExecFuncUnique7>(geode::ModStateEvent*)::{lambda(bool)#1}>(std::__ndk1::basic_string_view<char, std::__ndk1::char_traits<char> >, geodeExecFunction7<(anonymous namespace)::ExecFuncUnique7>(geode::ModStateEvent*)::{lambda(bool)#1}&&, geode::Mod*)::{lambda(std::__ndk1::shared_ptr<geode::SettingV3>)#1}, std::__ndk1::allocator<geode::listenForSettingChangesV3<bool, geodeExecFunction7<(anonymous namespace)::ExecFuncUnique7>(geode::ModStateEvent*)::{lambda(bool)#1}>(std::__ndk1::basic_string_view<char, std::__ndk1::char_traits<char> >, geodeExecFunction7<(anonymous namespace)::ExecFuncUnique7>(geode::ModStateEvent*)::{lambda(bool)#1}&&, geode::Mod*)::{lambda(std::__ndk1::shared_ptr<geode::SettingV3>)#1}>, void (std::__ndk1::shared_ptr<geode::SettingV3>)>::destroy()
PUBLIC 19f48 0 std::__ndk1::__function::__func<geode::listenForSettingChangesV3<bool, geodeExecFunction7<(anonymous namespace)::ExecFuncUnique7>(geode::ModStateEvent*)::{lambda(bool)#1}>(std::__ndk1::basic_string_view<char, std::__ndk1::char_traits<char> >, geodeExecFunction7<(anonymous namespace)::ExecFuncUnique7>(geode::ModStateEvent*)::{lambda(bool)#1}&&, geode::Mod*)::{lambda(std::__ndk1::shared_ptr<geode::SettingV3>)#1}, std::__ndk1::allocator<geode::listenForSettingChangesV3<bool, geodeExecFunction7<(anonymous namespace)::ExecFuncUnique7>(geode::ModStateEvent*)::{lambda(bool)#1}>(std::__ndk1::basic_string_view<char, std::__ndk1::char_traits<char> >, geodeExecFunction7<(anonymous namespace)::ExecFuncUnique7>(geode::ModStateEvent*)::{lambda(bool)#1}&&, geode::Mod*)::{lambda(std::__ndk1::shared_ptr<geode::SettingV3>)#1}>, void (std::__ndk1::shared_ptr<geode::SettingV3>)>::destroy_deallocate()
PUBLIC 19f4c 0 std::__ndk1::__function::__func<geode::listenForSettingChangesV3<bool, geodeExecFunction7<(anonymous namespace)::ExecFuncUnique7>(geode::ModStateEvent*)::{lambda(bool)#1}>(std::__ndk1::basic_string_view<char, std::__ndk1::char_traits<char> >, geodeExecFunction7<(anonymous namespace)::ExecFuncUnique7>(geode::ModStateEvent*)::{lambda(bool)#1}&&, geode::Mod*)::{lambda(std::__ndk1::shared_ptr<geode::SettingV3>)#1}, std::__ndk1::allocator<geode::listenForSettingChangesV3<bool, geodeExecFunction7<(anonymous namespace)::ExecFuncUnique7>(geode::ModStateEvent*)::{lambda(bool)#1}>(std::__ndk1::basic_string_view<char, std::__ndk1::char_traits<char> >, geodeExecFunction7<(anonymous namespace)::ExecFuncUnique7>(geode::ModStateEvent*)::{lambda(bool)#1}&&, geode::Mod*)::{lambda(std::__ndk1::shared_ptr<geode::SettingV3>)#1}>, void (std::__ndk1::shared_ptr<geode::SettingV3>)>::operator()(std::__ndk1::shared_ptr<geode::SettingV3>&&)
PUBLIC 1a084 0 std::__ndk1::__function::__func<geode::listenForSettingChangesV3<bool, geodeExecFunction7<(anonymous namespace)::ExecFuncUnique7>(geode::ModStateEvent*)::{lambda(bool)#1}>(std::__ndk1::basic_string_view<char, std::__ndk1::char_traits<char> >, geodeExecFunction7<(anonymous namespace)::ExecFuncUnique7>(geode::ModStateEvent*)::{lambda(bool)#1}&&, geode::Mod*)::{lambda(std::__ndk1::shared_ptr<geode::SettingV3>)#1}, std::__ndk1::allocator<geode::listenForSettingChangesV3<bool, geodeExecFunction7<(anonymous namespace)::ExecFuncUnique7>(geode::ModStateEvent*)::{lambda(bool)#1}>(std::__ndk1::basic_string_view<char, std::__ndk1::char_traits<char> >, geodeExecFunction7<(anonymous namespace)::ExecFuncUnique7>(geode::ModStateEvent*)::{lambda(bool)#1}&&, geode::Mod*)::{lambda(std::__ndk1::shared_ptr<geode::SettingV3>)#1}>, void (std::__ndk1::shared_ptr<geode::SettingV3>)>::target(std::type_info const&) const
PUBLIC 1a0a0 0 std::__ndk1::__function::__func<geode::listenForSettingChangesV3<bool, geodeExecFunction7<(anonymous namespace)::ExecFuncUnique7>(geode::ModStateEvent*)::{lambda(bool)#1}>(std::__ndk1::basic_string_view<char, std::__ndk1::char_traits<char> >, geodeExecFunction7<(anonymous namespace)::ExecFuncUnique7>(geode::ModStateEvent*)::{lambda(bool)#1}&&, geode::Mod*)::{lambda(std::__ndk1::shared_ptr<geode::SettingV3>)#1}, std::__ndk1::allocator<geode::listenForSettingChangesV3<bool, geodeExecFunction7<(anonymous namespace)::ExecFuncUnique7>(geode::ModStateEvent*)::{lambda(bool)#1}>(std::__ndk1::basic_string_view<char, std::__ndk1::char_traits<char> >, geodeExecFunction7<(anonymous namespace)::ExecFuncUnique7>(geode::ModStateEvent*)::{lambda(bool)#1}&&, geode::Mod*)::{lambda(std::__ndk1::shared_ptr<geode::SettingV3>)#1}>, void (std::__ndk1::shared_ptr<geode::SettingV3>)>::target_type() const
PUBLIC 1a0ac 0 std::__ndk1::shared_ptr<geode::SettingV3>::~shared_ptr[abi:ne180000]()
PUBLIC 1a0fc 0 std::__ndk1::shared_ptr<geode::BoolSettingV3>::~shared_ptr[abi:ne180000]()
PUBLIC 1a14c 0 geode::EventListener<geode::SettingChangedFilterV3>::getPool() const
PUBLIC 1a150 0 geode::EventListener<geode::SettingChangedFilterV3>::handle(geode::Event*)
PUBLIC 1a2c4 0 geode::EventListener<geode::SettingChangedFilterV3>::~EventListener()
PUBLIC 1a360 0 geode::EventListener<geode::SettingChangedFilterV3>::~EventListener()
PUBLIC 1a404 0 std::__ndk1::__function::__func<geode::listenForSettingChangesV3<double, geodeExecFunction7<(anonymous namespace)::ExecFuncUnique7>(geode::ModStateEvent*)::{lambda(double)#1}>(std::__ndk1::basic_string_view<char, std::__ndk1::char_traits<char> >, geodeExecFunction7<(anonymous namespace)::ExecFuncUnique7>(geode::ModStateEvent*)::{lambda(double)#1}&&, geode::Mod*)::{lambda(std::__ndk1::shared_ptr<geode::SettingV3>)#1}, std::__ndk1::allocator<geode::listenForSettingChangesV3<double, geodeExecFunction7<(anonymous namespace)::ExecFuncUnique7>(geode::ModStateEvent*)::{lambda(double)#1}>(std::__ndk1::basic_string_view<char, std::__ndk1::char_traits<char> >, geodeExecFunction7<(anonymous namespace)::ExecFuncUnique7>(geode::ModStateEvent*)::{lambda(double)#1}&&, geode::Mod*)::{lambda(std::__ndk1::shared_ptr<geode::SettingV3>)#1}>, void (std::__ndk1::shared_ptr<geode::SettingV3>)>::~__func()
PUBLIC 1a408 0 std::__ndk1::__function::__func<geode::listenForSettingChangesV3<double, geodeExecFunction7<(anonymous namespace)::ExecFuncUnique7>(geode::ModStateEvent*)::{lambda(double)#1}>(std::__ndk1::basic_string_view<char, std::__ndk1::char_traits<char> >, geodeExecFunction7<(anonymous namespace)::ExecFuncUnique7>(geode::ModStateEvent*)::{lambda(double)#1}&&, geode::Mod*)::{lambda(std::__ndk1::shared_ptr<geode::SettingV3>)#1}, std::__ndk1::allocator<geode::listenForSettingChangesV3<double, geodeExecFunction7<(anonymous namespace)::ExecFuncUnique7>(geode::ModStateEvent*)::{lambda(double)#1}>(std::__ndk1::basic_string_view<char, std::__ndk1::char_traits<char> >, geodeExecFunction7<(anonymous namespace)::ExecFuncUnique7>(geode::ModStateEvent*)::{lambda(double)#1}&&, geode::Mod*)::{lambda(std::__ndk1::shared_ptr<geode::SettingV3>)#1}>, void (std::__ndk1::shared_ptr<geode::SettingV3>)>::__clone() const
PUBLIC 1a440 0 std::__ndk1::__function::__func<geode::listenForSettingChangesV3<double, geodeExecFunction7<(anonymous namespace)::ExecFuncUnique7>(geode::ModStateEvent*)::{lambda(double)#1}>(std::__ndk1::basic_string_view<char, std::__ndk1::char_traits<char> >, geodeExecFunction7<(anonymous namespace)::ExecFuncUnique7>(geode::ModStateEvent*)::{lambda(double)#1}&&, geode::Mod*)::{lambda(std::__ndk1::shared_ptr<geode::SettingV3>)#1}, std::__ndk1::allocator<geode::listenForSettingChangesV3<double, geodeExecFunction7<(anonymous namespace)::ExecFuncUnique7>(geode::ModStateEvent*)::{lambda(double)#1}>(std::__ndk1::basic_string_view<char, std::__ndk1::char_traits<char> >, geodeExecFunction7<(anonymous namespace)::ExecFuncUnique7>(geode::ModStateEvent*)::{lambda(double)#1}&&, geode::Mod*)::{lambda(std::__ndk1::shared_ptr<geode::SettingV3>)#1}>, void (std::__ndk1::shared_ptr<geode::SettingV3>)>::__clone(std::__ndk1::__function::__base<void (std::__ndk1::shared_ptr<geode::SettingV3>)>*) const
PUBLIC 1a458 0 std::__ndk1::__function::__func<geode::listenForSettingChangesV3<double, geodeExecFunction7<(anonymous namespace)::ExecFuncUnique7>(geode::ModStateEvent*)::{lambda(double)#1}>(std::__ndk1::basic_string_view<char, std::__ndk1::char_traits<char> >, geodeExecFunction7<(anonymous namespace)::ExecFuncUnique7>(geode::ModStateEvent*)::{lambda(double)#1}&&, geode::Mod*)::{lambda(std::__ndk1::shared_ptr<geode::SettingV3>)#1}, std::__ndk1::allocator<geode::listenForSettingChangesV3<double, geodeExecFunction7<(anonymous namespace)::ExecFuncUnique7>(geode::ModStateEvent*)::{lambda(double)#1}>(std::__ndk1::basic_string_view<char, std::__ndk1::char_traits<char> >, geodeExecFunction7<(anonymous namespace)::ExecFuncUnique7>(geode::ModStateEvent*)::{lambda(double)#1}&&, geode::Mod*)::{lambda(std::__ndk1::shared_ptr<geode::SettingV3>)#1}>, void (std::__ndk1::shared_ptr<geode::SettingV3>)>::destroy()
PUBLIC 1a45c 0 std::__ndk1::__function::__func<geode::listenForSettingChangesV3<double, geodeExecFunction7<(anonymous namespace)::ExecFuncUnique7>(geode::ModStateEvent*)::{lambda(double)#1}>(std::__ndk1::basic_string_view<char, std::__ndk1::char_traits<char> >, geodeExecFunction7<(anonymous namespace)::ExecFuncUnique7>(geode::ModStateEvent*)::{lambda(double)#1}&&, geode::Mod*)::{lambda(std::__ndk1::shared_ptr<geode::SettingV3>)#1}, std::__ndk1::allocator<geode::listenForSettingChangesV3<double, geodeExecFunction7<(anonymous namespace)::ExecFuncUnique7>(geode::ModStateEvent*)::{lambda(double)#1}>(std::__ndk1::basic_string_view<char, std::__ndk1::char_traits<char> >, geodeExecFunction7<(anonymous namespace)::ExecFuncUnique7>(geode::ModStateEvent*)::{lambda(double)#1}&&, geode::Mod*)::{lambda(std::__ndk1::shared_ptr<geode::SettingV3>)#1}>, void (std::__ndk1::shared_ptr<geode::SettingV3>)>::destroy_deallocate()
PUBLIC 1a460 0 std::__ndk1::__function::__func<geode::listenForSettingChangesV3<double, geodeExecFunction7<(anonymous namespace)::ExecFuncUnique7>(geode::ModStateEvent*)::{lambda(double)#1}>(std::__ndk1::basic_string_view<char, std::__ndk1::char_traits<char> >, geodeExecFunction7<(anonymous namespace)::ExecFuncUnique7>(geode::ModStateEvent*)::{lambda(double)#1}&&, geode::Mod*)::{lambda(std::__ndk1::shared_ptr<geode::SettingV3>)#1}, std::__ndk1::allocator<geode::listenForSettingChangesV3<double, geodeExecFunction7<(anonymous namespace)::ExecFuncUnique7>(geode::ModStateEvent*)::{lambda(double)#1}>(std::__ndk1::basic_string_view<char, std::__ndk1::char_traits<char> >, geodeExecFunction7<(anonymous namespace)::ExecFuncUnique7>(geode::ModStateEvent*)::{lambda(double)#1}&&, geode::Mod*)::{lambda(std::__ndk1::shared_ptr<geode::SettingV3>)#1}>, void (std::__ndk1::shared_ptr<geode::SettingV3>)>::operator()(std::__ndk1::shared_ptr<geode::SettingV3>&&)
PUBLIC 1a59c 0 std::__ndk1::__function::__func<geode::listenForSettingChangesV3<double, geodeExecFunction7<(anonymous namespace)::ExecFuncUnique7>(geode::ModStateEvent*)::{lambda(double)#1}>(std::__ndk1::basic_string_view<char, std::__ndk1::char_traits<char> >, geodeExecFunction7<(anonymous namespace)::ExecFuncUnique7>(geode::ModStateEvent*)::{lambda(double)#1}&&, geode::Mod*)::{lambda(std::__ndk1::shared_ptr<geode::SettingV3>)#1}, std::__ndk1::allocator<geode::listenForSettingChangesV3<double, geodeExecFunction7<(anonymous namespace)::ExecFuncUnique7>(geode::ModStateEvent*)::{lambda(double)#1}>(std::__ndk1::basic_string_view<char, std::__ndk1::char_traits<char> >, geodeExecFunction7<(anonymous namespace)::ExecFuncUnique7>(geode::ModStateEvent*)::{lambda(double)#1}&&, geode::Mod*)::{lambda(std::__ndk1::shared_ptr<geode::SettingV3>)#1}>, void (std::__ndk1::shared_ptr<geode::SettingV3>)>::target(std::type_info const&) const
PUBLIC 1a5b8 0 std::__ndk1::__function::__func<geode::listenForSettingChangesV3<double, geodeExecFunction7<(anonymous namespace)::ExecFuncUnique7>(geode::ModStateEvent*)::{lambda(double)#1}>(std::__ndk1::basic_string_view<char, std::__ndk1::char_traits<char> >, geodeExecFunction7<(anonymous namespace)::ExecFuncUnique7>(geode::ModStateEvent*)::{lambda(double)#1}&&, geode::Mod*)::{lambda(std::__ndk1::shared_ptr<geode::SettingV3>)#1}, std::__ndk1::allocator<geode::listenForSettingChangesV3<double, geodeExecFunction7<(anonymous namespace)::ExecFuncUnique7>(geode::ModStateEvent*)::{lambda(double)#1}>(std::__ndk1::basic_string_view<char, std::__ndk1::char_traits<char> >, geodeExecFunction7<(anonymous namespace)::ExecFuncUnique7>(geode::ModStateEvent*)::{lambda(double)#1}&&, geode::Mod*)::{lambda(std::__ndk1::shared_ptr<geode::SettingV3>)#1}>, void (std::__ndk1::shared_ptr<geode::SettingV3>)>::target_type() const
PUBLIC 1a5c4 0 std::__ndk1::shared_ptr<geode::FloatSettingV3>::~shared_ptr[abi:ne180000]()
PUBLIC 1a614 0 std::__ndk1::__function::__func<geode::listenForSettingChangesV3<long, geodeExecFunction7<(anonymous namespace)::ExecFuncUnique7>(geode::ModStateEvent*)::{lambda(long)#1}>(std::__ndk1::basic_string_view<char, std::__ndk1::char_traits<char> >, geodeExecFunction7<(anonymous namespace)::ExecFuncUnique7>(geode::ModStateEvent*)::{lambda(long)#1}&&, geode::Mod*)::{lambda(std::__ndk1::shared_ptr<geode::SettingV3>)#1}, std::__ndk1::allocator<geode::listenForSettingChangesV3<long, geodeExecFunction7<(anonymous namespace)::ExecFuncUnique7>(geode::ModStateEvent*)::{lambda(long)#1}>(std::__ndk1::basic_string_view<char, std::__ndk1::char_traits<char> >, geodeExecFunction7<(anonymous namespace)::ExecFuncUnique7>(geode::ModStateEvent*)::{lambda(long)#1}&&, geode::Mod*)::{lambda(std::__ndk1::shared_ptr<geode::SettingV3>)#1}>, void (std::__ndk1::shared_ptr<geode::SettingV3>)>::~__func()
PUBLIC 1a618 0 std::__ndk1::__function::__func<geode::listenForSettingChangesV3<long, geodeExecFunction7<(anonymous namespace)::ExecFuncUnique7>(geode::ModStateEvent*)::{lambda(long)#1}>(std::__ndk1::basic_string_view<char, std::__ndk1::char_traits<char> >, geodeExecFunction7<(anonymous namespace)::ExecFuncUnique7>(geode::ModStateEvent*)::{lambda(long)#1}&&, geode::Mod*)::{lambda(std::__ndk1::shared_ptr<geode::SettingV3>)#1}, std::__ndk1::allocator<geode::listenForSettingChangesV3<long, geodeExecFunction7<(anonymous namespace)::ExecFuncUnique7>(geode::ModStateEvent*)::{lambda(long)#1}>(std::__ndk1::basic_string_view<char, std::__ndk1::char_traits<char> >, geodeExecFunction7<(anonymous namespace)::ExecFuncUnique7>(geode::ModStateEvent*)::{lambda(long)#1}&&, geode::Mod*)::{lambda(std::__ndk1::shared_ptr<geode::SettingV3>)#1}>, void (std::__ndk1::shared_ptr<geode::SettingV3>)>::__clone() const
PUBLIC 1a650 0 std::__ndk1::__function::__func<geode::listenForSettingChangesV3<long, geodeExecFunction7<(anonymous namespace)::ExecFuncUnique7>(geode::ModStateEvent*)::{lambda(long)#1}>(std::__ndk1::basic_string_view<char, std::__ndk1::char_traits<char> >, geodeExecFunction7<(anonymous namespace)::ExecFuncUnique7>(geode::ModStateEvent*)::{lambda(long)#1}&&, geode::Mod*)::{lambda(std::__ndk1::shared_ptr<geode::SettingV3>)#1}, std::__ndk1::allocator<geode::listenForSettingChangesV3<long, geodeExecFunction7<(anonymous namespace)::ExecFuncUnique7>(geode::ModStateEvent*)::{lambda(long)#1}>(std::__ndk1::basic_string_view<char, std::__ndk1::char_traits<char> >, geodeExecFunction7<(anonymous namespace)::ExecFuncUnique7>(geode::ModStateEvent*)::{lambda(long)#1}&&, geode::Mod*)::{lambda(std::__ndk1::shared_ptr<geode::SettingV3>)#1}>, void (std::__ndk1::shared_ptr<geode::SettingV3>)>::__clone(std::__ndk1::__function::__base<void (std::__ndk1::shared_ptr<geode::SettingV3>)>*) const
PUBLIC 1a668 0 std::__ndk1::__function::__func<geode::listenForSettingChangesV3<long, geodeExecFunction7<(anonymous namespace)::ExecFuncUnique7>(geode::ModStateEvent*)::{lambda(long)#1}>(std::__ndk1::basic_string_view<char, std::__ndk1::char_traits<char> >, geodeExecFunction7<(anonymous namespace)::ExecFuncUnique7>(geode::ModStateEvent*)::{lambda(long)#1}&&, geode::Mod*)::{lambda(std::__ndk1::shared_ptr<geode::SettingV3>)#1}, std::__ndk1::allocator<geode::listenForSettingChangesV3<long, geodeExecFunction7<(anonymous namespace)::ExecFuncUnique7>(geode::ModStateEvent*)::{lambda(long)#1}>(std::__ndk1::basic_string_view<char, std::__ndk1::char_traits<char> >, geodeExecFunction7<(anonymous namespace)::ExecFuncUnique7>(geode::ModStateEvent*)::{lambda(long)#1}&&, geode::Mod*)::{lambda(std::__ndk1::shared_ptr<geode::SettingV3>)#1}>, void (std::__ndk1::shared_ptr<geode::SettingV3>)>::destroy()
PUBLIC 1a66c 0 std::__ndk1::__function::__func<geode::listenForSettingChangesV3<long, geodeExecFunction7<(anonymous namespace)::ExecFuncUnique7>(geode::ModStateEvent*)::{lambda(long)#1}>(std::__ndk1::basic_string_view<char, std::__ndk1::char_traits<char> >, geodeExecFunction7<(anonymous namespace)::ExecFuncUnique7>(geode::ModStateEvent*)::{lambda(long)#1}&&, geode::Mod*)::{lambda(std::__ndk1::shared_ptr<geode::SettingV3>)#1}, std::__ndk1::allocator<geode::listenForSettingChangesV3<long, geodeExecFunction7<(anonymous namespace)::ExecFuncUnique7>(geode::ModStateEvent*)::{lambda(long)#1}>(std::__ndk1::basic_string_view<char, std::__ndk1::char_traits<char> >, geodeExecFunction7<(anonymous namespace)::ExecFuncUnique7>(geode::ModStateEvent*)::{lambda(long)#1}&&, geode::Mod*)::{lambda(std::__ndk1::shared_ptr<geode::SettingV3>)#1}>, void (std::__ndk1::shared_ptr<geode::SettingV3>)>::destroy_deallocate()
PUBLIC 1a670 0 std::__ndk1::__function::__func<geode::listenForSettingChangesV3<long, geodeExecFunction7<(anonymous namespace)::ExecFuncUnique7>(geode::ModStateEvent*)::{lambda(long)#1}>(std::__ndk1::basic_string_view<char, std::__ndk1::char_traits<char> >, geodeExecFunction7<(anonymous namespace)::ExecFuncUnique7>(geode::ModStateEvent*)::{lambda(long)#1}&&, geode::Mod*)::{lambda(std::__ndk1::shared_ptr<geode::SettingV3>)#1}, std::__ndk1::allocator<geode::listenForSettingChangesV3<long, geodeExecFunction7<(anonymous namespace)::ExecFuncUnique7>(geode::ModStateEvent*)::{lambda(long)#1}>(std::__ndk1::basic_string_view<char, std::__ndk1::char_traits<char> >, geodeExecFunction7<(anonymous namespace)::ExecFuncUnique7>(geode::ModStateEvent*)::{lambda(long)#1}&&, geode::Mod*)::{lambda(std::__ndk1::shared_ptr<geode::SettingV3>)#1}>, void (std::__ndk1::shared_ptr<geode::SettingV3>)>::operator()(std::__ndk1::shared_ptr<geode::SettingV3>&&)
PUBLIC 1a7a0 0 std::__ndk1::__function::__func<geode::listenForSettingChangesV3<long, geodeExecFunction7<(anonymous namespace)::ExecFuncUnique7>(geode::ModStateEvent*)::{lambda(long)#1}>(std::__ndk1::basic_string_view<char, std::__ndk1::char_traits<char> >, geodeExecFunction7<(anonymous namespace)::ExecFuncUnique7>(geode::ModStateEvent*)::{lambda(long)#1}&&, geode::Mod*)::{lambda(std::__ndk1::shared_ptr<geode::SettingV3>)#1}, std::__ndk1::allocator<geode::listenForSettingChangesV3<long, geodeExecFunction7<(anonymous namespace)::ExecFuncUnique7>(geode::ModStateEvent*)::{lambda(long)#1}>(std::__ndk1::basic_string_view<char, std::__ndk1::char_traits<char> >, geodeExecFunction7<(anonymous namespace)::ExecFuncUnique7>(geode::ModStateEvent*)::{lambda(long)#1}&&, geode::Mod*)::{lambda(std::__ndk1::shared_ptr<geode::SettingV3>)#1}>, void (std::__ndk1::shared_ptr<geode::SettingV3>)>::target(std::type_info const&) const
PUBLIC 1a7bc 0 std::__ndk1::__function::__func<geode::listenForSettingChangesV3<long, geodeExecFunction7<(anonymous namespace)::ExecFuncUnique7>(geode::ModStateEvent*)::{lambda(long)#1}>(std::__ndk1::basic_string_view<char, std::__ndk1::char_traits<char> >, geodeExecFunction7<(anonymous namespace)::ExecFuncUnique7>(geode::ModStateEvent*)::{lambda(long)#1}&&, geode::Mod*)::{lambda(std::__ndk1::shared_ptr<geode::SettingV3>)#1}, std::__ndk1::allocator<geode::listenForSettingChangesV3<long, geodeExecFunction7<(anonymous namespace)::ExecFuncUnique7>(geode::ModStateEvent*)::{lambda(long)#1}>(std::__ndk1::basic_string_view<char, std::__ndk1::char_traits<char> >, geodeExecFunction7<(anonymous namespace)::ExecFuncUnique7>(geode::ModStateEvent*)::{lambda(long)#1}&&, geode::Mod*)::{lambda(std::__ndk1::shared_ptr<geode::SettingV3>)#1}>, void (std::__ndk1::shared_ptr<geode::SettingV3>)>::target_type() const
PUBLIC 1a7c8 0 std::__ndk1::shared_ptr<geode::IntSettingV3>::~shared_ptr[abi:ne180000]()
PUBLIC 1a818 0 std::__ndk1::__function::__func<geode::listenForSettingChangesV3<long, geodeExecFunction7<(anonymous namespace)::ExecFuncUnique7>(geode::ModStateEvent*)::{lambda(long)#2}>(std::__ndk1::basic_string_view<char, std::__ndk1::char_traits<char> >, geodeExecFunction7<(anonymous namespace)::ExecFuncUnique7>(geode::ModStateEvent*)::{lambda(long)#2}&&, geode::Mod*)::{lambda(std::__ndk1::shared_ptr<geode::SettingV3>)#1}, std::__ndk1::allocator<geode::listenForSettingChangesV3<long, geodeExecFunction7<(anonymous namespace)::ExecFuncUnique7>(geode::ModStateEvent*)::{lambda(long)#2}>(std::__ndk1::basic_string_view<char, std::__ndk1::char_traits<char> >, geodeExecFunction7<(anonymous namespace)::ExecFuncUnique7>(geode::ModStateEvent*)::{lambda(long)#2}&&, geode::Mod*)::{lambda(std::__ndk1::shared_ptr<geode::SettingV3>)#1}>, void (std::__ndk1::shared_ptr<geode::SettingV3>)>::~__func()
PUBLIC 1a81c 0 std::__ndk1::__function::__func<geode::listenForSettingChangesV3<long, geodeExecFunction7<(anonymous namespace)::ExecFuncUnique7>(geode::ModStateEvent*)::{lambda(long)#2}>(std::__ndk1::basic_string_view<char, std::__ndk1::char_traits<char> >, geodeExecFunction7<(anonymous namespace)::ExecFuncUnique7>(geode::ModStateEvent*)::{lambda(long)#2}&&, geode::Mod*)::{lambda(std::__ndk1::shared_ptr<geode::SettingV3>)#1}, std::__ndk1::allocator<geode::listenForSettingChangesV3<long, geodeExecFunction7<(anonymous namespace)::ExecFuncUnique7>(geode::ModStateEvent*)::{lambda(long)#2}>(std::__ndk1::basic_string_view<char, std::__ndk1::char_traits<char> >, geodeExecFunction7<(anonymous namespace)::ExecFuncUnique7>(geode::ModStateEvent*)::{lambda(long)#2}&&, geode::Mod*)::{lambda(std::__ndk1::shared_ptr<geode::SettingV3>)#1}>, void (std::__ndk1::shared_ptr<geode::SettingV3>)>::__clone() const
PUBLIC 1a854 0 std::__ndk1::__function::__func<geode::listenForSettingChangesV3<long, geodeExecFunction7<(anonymous namespace)::ExecFuncUnique7>(geode::ModStateEvent*)::{lambda(long)#2}>(std::__ndk1::basic_string_view<char, std::__ndk1::char_traits<char> >, geodeExecFunction7<(anonymous namespace)::ExecFuncUnique7>(geode::ModStateEvent*)::{lambda(long)#2}&&, geode::Mod*)::{lambda(std::__ndk1::shared_ptr<geode::SettingV3>)#1}, std::__ndk1::allocator<geode::listenForSettingChangesV3<long, geodeExecFunction7<(anonymous namespace)::ExecFuncUnique7>(geode::ModStateEvent*)::{lambda(long)#2}>(std::__ndk1::basic_string_view<char, std::__ndk1::char_traits<char> >, geodeExecFunction7<(anonymous namespace)::ExecFuncUnique7>(geode::ModStateEvent*)::{lambda(long)#2}&&, geode::Mod*)::{lambda(std::__ndk1::shared_ptr<geode::SettingV3>)#1}>, void (std::__ndk1::shared_ptr<geode::SettingV3>)>::__clone(std::__ndk1::__function::__base<void (std::__ndk1::shared_ptr<geode::SettingV3>)>*) const
PUBLIC 1a86c 0 std::__ndk1::__function::__func<geode::listenForSettingChangesV3<long, geodeExecFunction7<(anonymous namespace)::ExecFuncUnique7>(geode::ModStateEvent*)::{lambda(long)#2}>(std::__ndk1::basic_string_view<char, std::__ndk1::char_traits<char> >, geodeExecFunction7<(anonymous namespace)::ExecFuncUnique7>(geode::ModStateEvent*)::{lambda(long)#2}&&, geode::Mod*)::{lambda(std::__ndk1::shared_ptr<geode::SettingV3>)#1}, std::__ndk1::allocator<geode::listenForSettingChangesV3<long, geodeExecFunction7<(anonymous namespace)::ExecFuncUnique7>(geode::ModStateEvent*)::{lambda(long)#2}>(std::__ndk1::basic_string_view<char, std::__ndk1::char_traits<char> >, geodeExecFunction7<(anonymous namespace)::ExecFuncUnique7>(geode::ModStateEvent*)::{lambda(long)#2}&&, geode::Mod*)::{lambda(std::__ndk1::shared_ptr<geode::SettingV3>)#1}>, void (std::__ndk1::shared_ptr<geode::SettingV3>)>::destroy()
PUBLIC 1a870 0 std::__ndk1::__function::__func<geode::listenForSettingChangesV3<long, geodeExecFunction7<(anonymous namespace)::ExecFuncUnique7>(geode::ModStateEvent*)::{lambda(long)#2}>(std::__ndk1::basic_string_view<char, std::__ndk1::char_traits<char> >, geodeExecFunction7<(anonymous namespace)::ExecFuncUnique7>(geode::ModStateEvent*)::{lambda(long)#2}&&, geode::Mod*)::{lambda(std::__ndk1::shared_ptr<geode::SettingV3>)#1}, std::__ndk1::allocator<geode::listenForSettingChangesV3<long, geodeExecFunction7<(anonymous namespace)::ExecFuncUnique7>(geode::ModStateEvent*)::{lambda(long)#2}>(std::__ndk1::basic_string_view<char, std::__ndk1::char_traits<char> >, geodeExecFunction7<(anonymous namespace)::ExecFuncUnique7>(geode::ModStateEvent*)::{lambda(long)#2}&&, geode::Mod*)::{lambda(std::__ndk1::shared_ptr<geode::SettingV3>)#1}>, void (std::__ndk1::shared_ptr<geode::SettingV3>)>::destroy_deallocate()
PUBLIC 1a874 0 std::__ndk1::__function::__func<geode::listenForSettingChangesV3<long, geodeExecFunction7<(anonymous namespace)::ExecFuncUnique7>(geode::ModStateEvent*)::{lambda(long)#2}>(std::__ndk1::basic_string_view<char, std::__ndk1::char_traits<char> >, geodeExecFunction7<(anonymous namespace)::ExecFuncUnique7>(geode::ModStateEvent*)::{lambda(long)#2}&&, geode::Mod*)::{lambda(std::__ndk1::shared_ptr<geode::SettingV3>)#1}, std::__ndk1::allocator<geode::listenForSettingChangesV3<long, geodeExecFunction7<(anonymous namespace)::ExecFuncUnique7>(geode::ModStateEvent*)::{lambda(long)#2}>(std::__ndk1::basic_string_view<char, std::__ndk1::char_traits<char> >, geodeExecFunction7<(anonymous namespace)::ExecFuncUnique7>(geode::ModStateEvent*)::{lambda(long)#2}&&, geode::Mod*)::{lambda(std::__ndk1::shared_ptr<geode::SettingV3>)#1}>, void (std::__ndk1::shared_ptr<geode::SettingV3>)>::operator()(std::__ndk1::shared_ptr<geode::SettingV3>&&)
PUBLIC 1a9d0 0 std::__ndk1::__function::__func<geode::listenForSettingChangesV3<long, geodeExecFunction7<(anonymous namespace)::ExecFuncUnique7>(geode::ModStateEvent*)::{lambda(long)#2}>(std::__ndk1::basic_string_view<char, std::__ndk1::char_traits<char> >, geodeExecFunction7<(anonymous namespace)::ExecFuncUnique7>(geode::ModStateEvent*)::{lambda(long)#2}&&, geode::Mod*)::{lambda(std::__ndk1::shared_ptr<geode::SettingV3>)#1}, std::__ndk1::allocator<geode::listenForSettingChangesV3<long, geodeExecFunction7<(anonymous namespace)::ExecFuncUnique7>(geode::ModStateEvent*)::{lambda(long)#2}>(std::__ndk1::basic_string_view<char, std::__ndk1::char_traits<char> >, geodeExecFunction7<(anonymous namespace)::ExecFuncUnique7>(geode::ModStateEvent*)::{lambda(long)#2}&&, geode::Mod*)::{lambda(std::__ndk1::shared_ptr<geode::SettingV3>)#1}>, void (std::__ndk1::shared_ptr<geode::SettingV3>)>::target(std::type_info const&) const
PUBLIC 1a9ec 0 std::__ndk1::__function::__func<geode::listenForSettingChangesV3<long, geodeExecFunction7<(anonymous namespace)::ExecFuncUnique7>(geode::ModStateEvent*)::{lambda(long)#2}>(std::__ndk1::basic_string_view<char, std::__ndk1::char_traits<char> >, geodeExecFunction7<(anonymous namespace)::ExecFuncUnique7>(geode::ModStateEvent*)::{lambda(long)#2}&&, geode::Mod*)::{lambda(std::__ndk1::shared_ptr<geode::SettingV3>)#1}, std::__ndk1::allocator<geode::listenForSettingChangesV3<long, geodeExecFunction7<(anonymous namespace)::ExecFuncUnique7>(geode::ModStateEvent*)::{lambda(long)#2}>(std::__ndk1::basic_string_view<char, std::__ndk1::char_traits<char> >, geodeExecFunction7<(anonymous namespace)::ExecFuncUnique7>(geode::ModStateEvent*)::{lambda(long)#2}&&, geode::Mod*)::{lambda(std::__ndk1::shared_ptr<geode::SettingV3>)#1}>, void (std::__ndk1::shared_ptr<geode::SettingV3>)>::target_type() const
PUBLIC 1a9f8 0 std::__ndk1::__function::__func<geode::listenForSettingChangesV3<long, geodeExecFunction7<(anonymous namespace)::ExecFuncUnique7>(geode::ModStateEvent*)::{lambda(long)#3}>(std::__ndk1::basic_string_view<char, std::__ndk1::char_traits<char> >, geodeExecFunction7<(anonymous namespace)::ExecFuncUnique7>(geode::ModStateEvent*)::{lambda(long)#3}&&, geode::Mod*)::{lambda(std::__ndk1::shared_ptr<geode::SettingV3>)#1}, std::__ndk1::allocator<geode::listenForSettingChangesV3<long, geodeExecFunction7<(anonymous namespace)::ExecFuncUnique7>(geode::ModStateEvent*)::{lambda(long)#3}>(std::__ndk1::basic_string_view<char, std::__ndk1::char_traits<char> >, geodeExecFunction7<(anonymous namespace)::ExecFuncUnique7>(geode::ModStateEvent*)::{lambda(long)#3}&&, geode::Mod*)::{lambda(std::__ndk1::shared_ptr<geode::SettingV3>)#1}>, void (std::__ndk1::shared_ptr<geode::SettingV3>)>::~__func()
PUBLIC 1a9fc 0 std::__ndk1::__function::__func<geode::listenForSettingChangesV3<long, geodeExecFunction7<(anonymous namespace)::ExecFuncUnique7>(geode::ModStateEvent*)::{lambda(long)#3}>(std::__ndk1::basic_string_view<char, std::__ndk1::char_traits<char> >, geodeExecFunction7<(anonymous namespace)::ExecFuncUnique7>(geode::ModStateEvent*)::{lambda(long)#3}&&, geode::Mod*)::{lambda(std::__ndk1::shared_ptr<geode::SettingV3>)#1}, std::__ndk1::allocator<geode::listenForSettingChangesV3<long, geodeExecFunction7<(anonymous namespace)::ExecFuncUnique7>(geode::ModStateEvent*)::{lambda(long)#3}>(std::__ndk1::basic_string_view<char, std::__ndk1::char_traits<char> >, geodeExecFunction7<(anonymous namespace)::ExecFuncUnique7>(geode::ModStateEvent*)::{lambda(long)#3}&&, geode::Mod*)::{lambda(std::__ndk1::shared_ptr<geode::SettingV3>)#1}>, void (std::__ndk1::shared_ptr<geode::SettingV3>)>::__clone() const
PUBLIC 1aa34 0 std::__ndk1::__function::__func<geode::listenForSettingChangesV3<long, geodeExecFunction7<(anonymous namespace)::ExecFuncUnique7>(geode::ModStateEvent*)::{lambda(long)#3}>(std::__ndk1::basic_string_view<char, std::__ndk1::char_traits<char> >, geodeExecFunction7<(anonymous namespace)::ExecFuncUnique7>(geode::ModStateEvent*)::{lambda(long)#3}&&, geode::Mod*)::{lambda(std::__ndk1::shared_ptr<geode::SettingV3>)#1}, std::__ndk1::allocator<geode::listenForSettingChangesV3<long, geodeExecFunction7<(anonymous namespace)::ExecFuncUnique7>(geode::ModStateEvent*)::{lambda(long)#3}>(std::__ndk1::basic_string_view<char, std::__ndk1::char_traits<char> >, geodeExecFunction7<(anonymous namespace)::ExecFuncUnique7>(geode::ModStateEvent*)::{lambda(long)#3}&&, geode::Mod*)::{lambda(std::__ndk1::shared_ptr<geode::SettingV3>)#1}>, void (std::__ndk1::shared_ptr<geode::SettingV3>)>::__clone(std::__ndk1::__function::__base<void (std::__ndk1::shared_ptr<geode::SettingV3>)>*) const
PUBLIC 1aa4c 0 std::__ndk1::__function::__func<geode::listenForSettingChangesV3<long, geodeExecFunction7<(anonymous namespace)::ExecFuncUnique7>(geode::ModStateEvent*)::{lambda(long)#3}>(std::__ndk1::basic_string_view<char, std::__ndk1::char_traits<char> >, geodeExecFunction7<(anonymous namespace)::ExecFuncUnique7>(geode::ModStateEvent*)::{lambda(long)#3}&&, geode::Mod*)::{lambda(std::__ndk1::shared_ptr<geode::SettingV3>)#1}, std::__ndk1::allocator<geode::listenForSettingChangesV3<long, geodeExecFunction7<(anonymous namespace)::ExecFuncUnique7>(geode::ModStateEvent*)::{lambda(long)#3}>(std::__ndk1::basic_string_view<char, std::__ndk1::char_traits<char> >, geodeExecFunction7<(anonymous namespace)::ExecFuncUnique7>(geode::ModStateEvent*)::{lambda(long)#3}&&, geode::Mod*)::{lambda(std::__ndk1::shared_ptr<geode::SettingV3>)#1}>, void (std::__ndk1::shared_ptr<geode::SettingV3>)>::destroy()
PUBLIC 1aa50 0 std::__ndk1::__function::__func<geode::listenForSettingChangesV3<long, geodeExecFunction7<(anonymous namespace)::ExecFuncUnique7>(geode::ModStateEvent*)::{lambda(long)#3}>(std::__ndk1::basic_string_view<char, std::__ndk1::char_traits<char> >, geodeExecFunction7<(anonymous namespace)::ExecFuncUnique7>(geode::ModStateEvent*)::{lambda(long)#3}&&, geode::Mod*)::{lambda(std::__ndk1::shared_ptr<geode::SettingV3>)#1}, std::__ndk1::allocator<geode::listenForSettingChangesV3<long, geodeExecFunction7<(anonymous namespace)::ExecFuncUnique7>(geode::ModStateEvent*)::{lambda(long)#3}>(std::__ndk1::basic_string_view<char, std::__ndk1::char_traits<char> >, geodeExecFunction7<(anonymous namespace)::ExecFuncUnique7>(geode::ModStateEvent*)::{lambda(long)#3}&&, geode::Mod*)::{lambda(std::__ndk1::shared_ptr<geode::SettingV3>)#1}>, void (std::__ndk1::shared_ptr<geode::SettingV3>)>::destroy_deallocate()
PUBLIC 1aa54 0 std::__ndk1::__function::__func<geode::listenForSettingChangesV3<long, geodeExecFunction7<(anonymous namespace)::ExecFuncUnique7>(geode::ModStateEvent*)::{lambda(long)#3}>(std::__ndk1::basic_string_view<char, std::__ndk1::char_traits<char> >, geodeExecFunction7<(anonymous namespace)::ExecFuncUnique7>(geode::ModStateEvent*)::{lambda(long)#3}&&, geode::Mod*)::{lambda(std::__ndk1::shared_ptr<geode::SettingV3>)#1}, std::__ndk1::allocator<geode::listenForSettingChangesV3<long, geodeExecFunction7<(anonymous namespace)::ExecFuncUnique7>(geode::ModStateEvent*)::{lambda(long)#3}>(std::__ndk1::basic_string_view<char, std::__ndk1::char_traits<char> >, geodeExecFunction7<(anonymous namespace)::ExecFuncUnique7>(geode::ModStateEvent*)::{lambda(long)#3}&&, geode::Mod*)::{lambda(std::__ndk1::shared_ptr<geode::SettingV3>)#1}>, void (std::__ndk1::shared_ptr<geode::SettingV3>)>::operator()(std::__ndk1::shared_ptr<geode::SettingV3>&&)
PUBLIC 1ada0 0 std::__ndk1::__function::__func<geode::listenForSettingChangesV3<long, geodeExecFunction7<(anonymous namespace)::ExecFuncUnique7>(geode::ModStateEvent*)::{lambda(long)#3}>(std::__ndk1::basic_string_view<char, std::__ndk1::char_traits<char> >, geodeExecFunction7<(anonymous namespace)::ExecFuncUnique7>(geode::ModStateEvent*)::{lambda(long)#3}&&, geode::Mod*)::{lambda(std::__ndk1::shared_ptr<geode::SettingV3>)#1}, std::__ndk1::allocator<geode::listenForSettingChangesV3<long, geodeExecFunction7<(anonymous namespace)::ExecFuncUnique7>(geode::ModStateEvent*)::{lambda(long)#3}>(std::__ndk1::basic_string_view<char, std::__ndk1::char_traits<char> >, geodeExecFunction7<(anonymous namespace)::ExecFuncUnique7>(geode::ModStateEvent*)::{lambda(long)#3}&&, geode::Mod*)::{lambda(std::__ndk1::shared_ptr<geode::SettingV3>)#1}>, void (std::__ndk1::shared_ptr<geode::SettingV3>)>::target(std::type_info const&) const
PUBLIC 1adbc 0 std::__ndk1::__function::__func<geode::listenForSettingChangesV3<long, geodeExecFunction7<(anonymous namespace)::ExecFuncUnique7>(geode::ModStateEvent*)::{lambda(long)#3}>(std::__ndk1::basic_string_view<char, std::__ndk1::char_traits<char> >, geodeExecFunction7<(anonymous namespace)::ExecFuncUnique7>(geode::ModStateEvent*)::{lambda(long)#3}&&, geode::Mod*)::{lambda(std::__ndk1::shared_ptr<geode::SettingV3>)#1}, std::__ndk1::allocator<geode::listenForSettingChangesV3<long, geodeExecFunction7<(anonymous namespace)::ExecFuncUnique7>(geode::ModStateEvent*)::{lambda(long)#3}>(std::__ndk1::basic_string_view<char, std::__ndk1::char_traits<char> >, geodeExecFunction7<(anonymous namespace)::ExecFuncUnique7>(geode::ModStateEvent*)::{lambda(long)#3}&&, geode::Mod*)::{lambda(std::__ndk1::shared_ptr<geode::SettingV3>)#1}>, void (std::__ndk1::shared_ptr<geode::SettingV3>)>::target_type() const
PUBLIC 1adc8 0 std::__ndk1::__function::__func<geode::listenForSettingChangesV3<long, geodeExecFunction7<(anonymous namespace)::ExecFuncUnique7>(geode::ModStateEvent*)::{lambda(long)#4}>(std::__ndk1::basic_string_view<char, std::__ndk1::char_traits<char> >, geodeExecFunction7<(anonymous namespace)::ExecFuncUnique7>(geode::ModStateEvent*)::{lambda(long)#4}&&, geode::Mod*)::{lambda(std::__ndk1::shared_ptr<geode::SettingV3>)#1}, std::__ndk1::allocator<geode::listenForSettingChangesV3<long, geodeExecFunction7<(anonymous namespace)::ExecFuncUnique7>(geode::ModStateEvent*)::{lambda(long)#4}>(std::__ndk1::basic_string_view<char, std::__ndk1::char_traits<char> >, geodeExecFunction7<(anonymous namespace)::ExecFuncUnique7>(geode::ModStateEvent*)::{lambda(long)#4}&&, geode::Mod*)::{lambda(std::__ndk1::shared_ptr<geode::SettingV3>)#1}>, void (std::__ndk1::shared_ptr<geode::SettingV3>)>::~__func()
PUBLIC 1adcc 0 std::__ndk1::__function::__func<geode::listenForSettingChangesV3<long, geodeExecFunction7<(anonymous namespace)::ExecFuncUnique7>(geode::ModStateEvent*)::{lambda(long)#4}>(std::__ndk1::basic_string_view<char, std::__ndk1::char_traits<char> >, geodeExecFunction7<(anonymous namespace)::ExecFuncUnique7>(geode::ModStateEvent*)::{lambda(long)#4}&&, geode::Mod*)::{lambda(std::__ndk1::shared_ptr<geode::SettingV3>)#1}, std::__ndk1::allocator<geode::listenForSettingChangesV3<long, geodeExecFunction7<(anonymous namespace)::ExecFuncUnique7>(geode::ModStateEvent*)::{lambda(long)#4}>(std::__ndk1::basic_string_view<char, std::__ndk1::char_traits<char> >, geodeExecFunction7<(anonymous namespace)::ExecFuncUnique7>(geode::ModStateEvent*)::{lambda(long)#4}&&, geode::Mod*)::{lambda(std::__ndk1::shared_ptr<geode::SettingV3>)#1}>, void (std::__ndk1::shared_ptr<geode::SettingV3>)>::__clone() const
PUBLIC 1ae04 0 std::__ndk1::__function::__func<geode::listenForSettingChangesV3<long, geodeExecFunction7<(anonymous namespace)::ExecFuncUnique7>(geode::ModStateEvent*)::{lambda(long)#4}>(std::__ndk1::basic_string_view<char, std::__ndk1::char_traits<char> >, geodeExecFunction7<(anonymous namespace)::ExecFuncUnique7>(geode::ModStateEvent*)::{lambda(long)#4}&&, geode::Mod*)::{lambda(std::__ndk1::shared_ptr<geode::SettingV3>)#1}, std::__ndk1::allocator<geode::listenForSettingChangesV3<long, geodeExecFunction7<(anonymous namespace)::ExecFuncUnique7>(geode::ModStateEvent*)::{lambda(long)#4}>(std::__ndk1::basic_string_view<char, std::__ndk1::char_traits<char> >, geodeExecFunction7<(anonymous namespace)::ExecFuncUnique7>(geode::ModStateEvent*)::{lambda(long)#4}&&, geode::Mod*)::{lambda(std::__ndk1::shared_ptr<geode::SettingV3>)#1}>, void (std::__ndk1::shared_ptr<geode::SettingV3>)>::__clone(std::__ndk1::__function::__base<void (std::__ndk1::shared_ptr<geode::SettingV3>)>*) const
PUBLIC 1ae1c 0 std::__ndk1::__function::__func<geode::listenForSettingChangesV3<long, geodeExecFunction7<(anonymous namespace)::ExecFuncUnique7>(geode::ModStateEvent*)::{lambda(long)#4}>(std::__ndk1::basic_string_view<char, std::__ndk1::char_traits<char> >, geodeExecFunction7<(anonymous namespace)::ExecFuncUnique7>(geode::ModStateEvent*)::{lambda(long)#4}&&, geode::Mod*)::{lambda(std::__ndk1::shared_ptr<geode::SettingV3>)#1}, std::__ndk1::allocator<geode::listenForSettingChangesV3<long, geodeExecFunction7<(anonymous namespace)::ExecFuncUnique7>(geode::ModStateEvent*)::{lambda(long)#4}>(std::__ndk1::basic_string_view<char, std::__ndk1::char_traits<char> >, geodeExecFunction7<(anonymous namespace)::ExecFuncUnique7>(geode::ModStateEvent*)::{lambda(long)#4}&&, geode::Mod*)::{lambda(std::__ndk1::shared_ptr<geode::SettingV3>)#1}>, void (std::__ndk1::shared_ptr<geode::SettingV3>)>::destroy()
PUBLIC 1ae20 0 std::__ndk1::__function::__func<geode::listenForSettingChangesV3<long, geodeExecFunction7<(anonymous namespace)::ExecFuncUnique7>(geode::ModStateEvent*)::{lambda(long)#4}>(std::__ndk1::basic_string_view<char, std::__ndk1::char_traits<char> >, geodeExecFunction7<(anonymous namespace)::ExecFuncUnique7>(geode::ModStateEvent*)::{lambda(long)#4}&&, geode::Mod*)::{lambda(std::__ndk1::shared_ptr<geode::SettingV3>)#1}, std::__ndk1::allocator<geode::listenForSettingChangesV3<long, geodeExecFunction7<(anonymous namespace)::ExecFuncUnique7>(geode::ModStateEvent*)::{lambda(long)#4}>(std::__ndk1::basic_string_view<char, std::__ndk1::char_traits<char> >, geodeExecFunction7<(anonymous namespace)::ExecFuncUnique7>(geode::ModStateEvent*)::{lambda(long)#4}&&, geode::Mod*)::{lambda(std::__ndk1::shared_ptr<geode::SettingV3>)#1}>, void (std::__ndk1::shared_ptr<geode::SettingV3>)>::destroy_deallocate()
PUBLIC 1ae24 0 std::__ndk1::__function::__func<geode::listenForSettingChangesV3<long, geodeExecFunction7<(anonymous namespace)::ExecFuncUnique7>(geode::ModStateEvent*)::{lambda(long)#4}>(std::__ndk1::basic_string_view<char, std::__ndk1::char_traits<char> >, geodeExecFunction7<(anonymous namespace)::ExecFuncUnique7>(geode::ModStateEvent*)::{lambda(long)#4}&&, geode::Mod*)::{lambda(std::__ndk1::shared_ptr<geode::SettingV3>)#1}, std::__ndk1::allocator<geode::listenForSettingChangesV3<long, geodeExecFunction7<(anonymous namespace)::ExecFuncUnique7>(geode::ModStateEvent*)::{lambda(long)#4}>(std::__ndk1::basic_string_view<char, std::__ndk1::char_traits<char> >, geodeExecFunction7<(anonymous namespace)::ExecFuncUnique7>(geode::ModStateEvent*)::{lambda(long)#4}&&, geode::Mod*)::{lambda(std::__ndk1::shared_ptr<geode::SettingV3>)#1}>, void (std::__ndk1::shared_ptr<geode::SettingV3>)>::operator()(std::__ndk1::shared_ptr<geode::SettingV3>&&)
PUBLIC 1b304 0 std::__ndk1::__function::__func<geode::listenForSettingChangesV3<long, geodeExecFunction7<(anonymous namespace)::ExecFuncUnique7>(geode::ModStateEvent*)::{lambda(long)#4}>(std::__ndk1::basic_string_view<char, std::__ndk1::char_traits<char> >, geodeExecFunction7<(anonymous namespace)::ExecFuncUnique7>(geode::ModStateEvent*)::{lambda(long)#4}&&, geode::Mod*)::{lambda(std::__ndk1::shared_ptr<geode::SettingV3>)#1}, std::__ndk1::allocator<geode::listenForSettingChangesV3<long, geodeExecFunction7<(anonymous namespace)::ExecFuncUnique7>(geode::ModStateEvent*)::{lambda(long)#4}>(std::__ndk1::basic_string_view<char, std::__ndk1::char_traits<char> >, geodeExecFunction7<(anonymous namespace)::ExecFuncUnique7>(geode::ModStateEvent*)::{lambda(long)#4}&&, geode::Mod*)::{lambda(std::__ndk1::shared_ptr<geode::SettingV3>)#1}>, void (std::__ndk1::shared_ptr<geode::SettingV3>)>::target(std::type_info const&) const
PUBLIC 1b320 0 std::__ndk1::__function::__func<geode::listenForSettingChangesV3<long, geodeExecFunction7<(anonymous namespace)::ExecFuncUnique7>(geode::ModStateEvent*)::{lambda(long)#4}>(std::__ndk1::basic_string_view<char, std::__ndk1::char_traits<char> >, geodeExecFunction7<(anonymous namespace)::ExecFuncUnique7>(geode::ModStateEvent*)::{lambda(long)#4}&&, geode::Mod*)::{lambda(std::__ndk1::shared_ptr<geode::SettingV3>)#1}, std::__ndk1::allocator<geode::listenForSettingChangesV3<long, geodeExecFunction7<(anonymous namespace)::ExecFuncUnique7>(geode::ModStateEvent*)::{lambda(long)#4}>(std::__ndk1::basic_string_view<char, std::__ndk1::char_traits<char> >, geodeExecFunction7<(anonymous namespace)::ExecFuncUnique7>(geode::ModStateEvent*)::{lambda(long)#4}&&, geode::Mod*)::{lambda(std::__ndk1::shared_ptr<geode::SettingV3>)#1}>, void (std::__ndk1::shared_ptr<geode::SettingV3>)>::target_type() const
PUBLIC 1b32c 0 std::__ndk1::__function::__func<geode::listenForSettingChangesV3<bool, geodeExecFunction7<(anonymous namespace)::ExecFuncUnique7>(geode::ModStateEvent*)::{lambda(bool)#2}>(std::__ndk1::basic_string_view<char, std::__ndk1::char_traits<char> >, geodeExecFunction7<(anonymous namespace)::ExecFuncUnique7>(geode::ModStateEvent*)::{lambda(bool)#2}&&, geode::Mod*)::{lambda(std::__ndk1::shared_ptr<geode::SettingV3>)#1}, std::__ndk1::allocator<geode::listenForSettingChangesV3<bool, geodeExecFunction7<(anonymous namespace)::ExecFuncUnique7>(geode::ModStateEvent*)::{lambda(bool)#2}>(std::__ndk1::basic_string_view<char, std::__ndk1::char_traits<char> >, geodeExecFunction7<(anonymous namespace)::ExecFuncUnique7>(geode::ModStateEvent*)::{lambda(bool)#2}&&, geode::Mod*)::{lambda(std::__ndk1::shared_ptr<geode::SettingV3>)#1}>, void (std::__ndk1::shared_ptr<geode::SettingV3>)>::~__func()
PUBLIC 1b330 0 std::__ndk1::__function::__func<geode::listenForSettingChangesV3<bool, geodeExecFunction7<(anonymous namespace)::ExecFuncUnique7>(geode::ModStateEvent*)::{lambda(bool)#2}>(std::__ndk1::basic_string_view<char, std::__ndk1::char_traits<char> >, geodeExecFunction7<(anonymous namespace)::ExecFuncUnique7>(geode::ModStateEvent*)::{lambda(bool)#2}&&, geode::Mod*)::{lambda(std::__ndk1::shared_ptr<geode::SettingV3>)#1}, std::__ndk1::allocator<geode::listenForSettingChangesV3<bool, geodeExecFunction7<(anonymous namespace)::ExecFuncUnique7>(geode::ModStateEvent*)::{lambda(bool)#2}>(std::__ndk1::basic_string_view<char, std::__ndk1::char_traits<char> >, geodeExecFunction7<(anonymous namespace)::ExecFuncUnique7>(geode::ModStateEvent*)::{lambda(bool)#2}&&, geode::Mod*)::{lambda(std::__ndk1::shared_ptr<geode::SettingV3>)#1}>, void (std::__ndk1::shared_ptr<geode::SettingV3>)>::__clone() const
PUBLIC 1b368 0 std::__ndk1::__function::__func<geode::listenForSettingChangesV3<bool, geodeExecFunction7<(anonymous namespace)::ExecFuncUnique7>(geode::ModStateEvent*)::{lambda(bool)#2}>(std::__ndk1::basic_string_view<char, std::__ndk1::char_traits<char> >, geodeExecFunction7<(anonymous namespace)::ExecFuncUnique7>(geode::ModStateEvent*)::{lambda(bool)#2}&&, geode::Mod*)::{lambda(std::__ndk1::shared_ptr<geode::SettingV3>)#1}, std::__ndk1::allocator<geode::listenForSettingChangesV3<bool, geodeExecFunction7<(anonymous namespace)::ExecFuncUnique7>(geode::ModStateEvent*)::{lambda(bool)#2}>(std::__ndk1::basic_string_view<char, std::__ndk1::char_traits<char> >, geodeExecFunction7<(anonymous namespace)::ExecFuncUnique7>(geode::ModStateEvent*)::{lambda(bool)#2}&&, geode::Mod*)::{lambda(std::__ndk1::shared_ptr<geode::SettingV3>)#1}>, void (std::__ndk1::shared_ptr<geode::SettingV3>)>::__clone(std::__ndk1::__function::__base<void (std::__ndk1::shared_ptr<geode::SettingV3>)>*) const
PUBLIC 1b380 0 std::__ndk1::__function::__func<geode::listenForSettingChangesV3<bool, geodeExecFunction7<(anonymous namespace)::ExecFuncUnique7>(geode::ModStateEvent*)::{lambda(bool)#2}>(std::__ndk1::basic_string_view<char, std::__ndk1::char_traits<char> >, geodeExecFunction7<(anonymous namespace)::ExecFuncUnique7>(geode::ModStateEvent*)::{lambda(bool)#2}&&, geode::Mod*)::{lambda(std::__ndk1::shared_ptr<geode::SettingV3>)#1}, std::__ndk1::allocator<geode::listenForSettingChangesV3<bool, geodeExecFunction7<(anonymous namespace)::ExecFuncUnique7>(geode::ModStateEvent*)::{lambda(bool)#2}>(std::__ndk1::basic_string_view<char, std::__ndk1::char_traits<char> >, geodeExecFunction7<(anonymous namespace)::ExecFuncUnique7>(geode::ModStateEvent*)::{lambda(bool)#2}&&, geode::Mod*)::{lambda(std::__ndk1::shared_ptr<geode::SettingV3>)#1}>, void (std::__ndk1::shared_ptr<geode::SettingV3>)>::destroy()
PUBLIC 1b384 0 std::__ndk1::__function::__func<geode::listenForSettingChangesV3<bool, geodeExecFunction7<(anonymous namespace)::ExecFuncUnique7>(geode::ModStateEvent*)::{lambda(bool)#2}>(std::__ndk1::basic_string_view<char, std::__ndk1::char_traits<char> >, geodeExecFunction7<(anonymous namespace)::ExecFuncUnique7>(geode::ModStateEvent*)::{lambda(bool)#2}&&, geode::Mod*)::{lambda(std::__ndk1::shared_ptr<geode::SettingV3>)#1}, std::__ndk1::allocator<geode::listenForSettingChangesV3<bool, geodeExecFunction7<(anonymous namespace)::ExecFuncUnique7>(geode::ModStateEvent*)::{lambda(bool)#2}>(std::__ndk1::basic_string_view<char, std::__ndk1::char_traits<char> >, geodeExecFunction7<(anonymous namespace)::ExecFuncUnique7>(geode::ModStateEvent*)::{lambda(bool)#2}&&, geode::Mod*)::{lambda(std::__ndk1::shared_ptr<geode::SettingV3>)#1}>, void (std::__ndk1::shared_ptr<geode::SettingV3>)>::destroy_deallocate()
PUBLIC 1b388 0 std::__ndk1::__function::__func<geode::listenForSettingChangesV3<bool, geodeExecFunction7<(anonymous namespace)::ExecFuncUnique7>(geode::ModStateEvent*)::{lambda(bool)#2}>(std::__ndk1::basic_string_view<char, std::__ndk1::char_traits<char> >, geodeExecFunction7<(anonymous namespace)::ExecFuncUnique7>(geode::ModStateEvent*)::{lambda(bool)#2}&&, geode::Mod*)::{lambda(std::__ndk1::shared_ptr<geode::SettingV3>)#1}, std::__ndk1::allocator<geode::listenForSettingChangesV3<bool, geodeExecFunction7<(anonymous namespace)::ExecFuncUnique7>(geode::ModStateEvent*)::{lambda(bool)#2}>(std::__ndk1::basic_string_view<char, std::__ndk1::char_traits<char> >, geodeExecFunction7<(anonymous namespace)::ExecFuncUnique7>(geode::ModStateEvent*)::{lambda(bool)#2}&&, geode::Mod*)::{lambda(std::__ndk1::shared_ptr<geode::SettingV3>)#1}>, void (std::__ndk1::shared_ptr<geode::SettingV3>)>::operator()(std::__ndk1::shared_ptr<geode::SettingV3>&&)
PUBLIC 1b5ac 0 std::__ndk1::__function::__func<geode::listenForSettingChangesV3<bool, geodeExecFunction7<(anonymous namespace)::ExecFuncUnique7>(geode::ModStateEvent*)::{lambda(bool)#2}>(std::__ndk1::basic_string_view<char, std::__ndk1::char_traits<char> >, geodeExecFunction7<(anonymous namespace)::ExecFuncUnique7>(geode::ModStateEvent*)::{lambda(bool)#2}&&, geode::Mod*)::{lambda(std::__ndk1::shared_ptr<geode::SettingV3>)#1}, std::__ndk1::allocator<geode::listenForSettingChangesV3<bool, geodeExecFunction7<(anonymous namespace)::ExecFuncUnique7>(geode::ModStateEvent*)::{lambda(bool)#2}>(std::__ndk1::basic_string_view<char, std::__ndk1::char_traits<char> >, geodeExecFunction7<(anonymous namespace)::ExecFuncUnique7>(geode::ModStateEvent*)::{lambda(bool)#2}&&, geode::Mod*)::{lambda(std::__ndk1::shared_ptr<geode::SettingV3>)#1}>, void (std::__ndk1::shared_ptr<geode::SettingV3>)>::target(std::type_info const&) const
PUBLIC 1b5c8 0 std::__ndk1::__function::__func<geode::listenForSettingChangesV3<bool, geodeExecFunction7<(anonymous namespace)::ExecFuncUnique7>(geode::ModStateEvent*)::{lambda(bool)#2}>(std::__ndk1::basic_string_view<char, std::__ndk1::char_traits<char> >, geodeExecFunction7<(anonymous namespace)::ExecFuncUnique7>(geode::ModStateEvent*)::{lambda(bool)#2}&&, geode::Mod*)::{lambda(std::__ndk1::shared_ptr<geode::SettingV3>)#1}, std::__ndk1::allocator<geode::listenForSettingChangesV3<bool, geodeExecFunction7<(anonymous namespace)::ExecFuncUnique7>(geode::ModStateEvent*)::{lambda(bool)#2}>(std::__ndk1::basic_string_view<char, std::__ndk1::char_traits<char> >, geodeExecFunction7<(anonymous namespace)::ExecFuncUnique7>(geode::ModStateEvent*)::{lambda(bool)#2}&&, geode::Mod*)::{lambda(std::__ndk1::shared_ptr<geode::SettingV3>)#1}>, void (std::__ndk1::shared_ptr<geode::SettingV3>)>::target_type() const
PUBLIC 1b5d4 0 std::__ndk1::__function::__func<geode::listenForSettingChangesV3<bool, geodeExecFunction7<(anonymous namespace)::ExecFuncUnique7>(geode::ModStateEvent*)::{lambda(bool)#3}>(std::__ndk1::basic_string_view<char, std::__ndk1::char_traits<char> >, geodeExecFunction7<(anonymous namespace)::ExecFuncUnique7>(geode::ModStateEvent*)::{lambda(bool)#3}&&, geode::Mod*)::{lambda(std::__ndk1::shared_ptr<geode::SettingV3>)#1}, std::__ndk1::allocator<geode::listenForSettingChangesV3<bool, geodeExecFunction7<(anonymous namespace)::ExecFuncUnique7>(geode::ModStateEvent*)::{lambda(bool)#3}>(std::__ndk1::basic_string_view<char, std::__ndk1::char_traits<char> >, geodeExecFunction7<(anonymous namespace)::ExecFuncUnique7>(geode::ModStateEvent*)::{lambda(bool)#3}&&, geode::Mod*)::{lambda(std::__ndk1::shared_ptr<geode::SettingV3>)#1}>, void (std::__ndk1::shared_ptr<geode::SettingV3>)>::~__func()
PUBLIC 1b5d8 0 std::__ndk1::__function::__func<geode::listenForSettingChangesV3<bool, geodeExecFunction7<(anonymous namespace)::ExecFuncUnique7>(geode::ModStateEvent*)::{lambda(bool)#3}>(std::__ndk1::basic_string_view<char, std::__ndk1::char_traits<char> >, geodeExecFunction7<(anonymous namespace)::ExecFuncUnique7>(geode::ModStateEvent*)::{lambda(bool)#3}&&, geode::Mod*)::{lambda(std::__ndk1::shared_ptr<geode::SettingV3>)#1}, std::__ndk1::allocator<geode::listenForSettingChangesV3<bool, geodeExecFunction7<(anonymous namespace)::ExecFuncUnique7>(geode::ModStateEvent*)::{lambda(bool)#3}>(std::__ndk1::basic_string_view<char, std::__ndk1::char_traits<char> >, geodeExecFunction7<(anonymous namespace)::ExecFuncUnique7>(geode::ModStateEvent*)::{lambda(bool)#3}&&, geode::Mod*)::{lambda(std::__ndk1::shared_ptr<geode::SettingV3>)#1}>, void (std::__ndk1::shared_ptr<geode::SettingV3>)>::__clone() const
PUBLIC 1b610 0 std::__ndk1::__function::__func<geode::listenForSettingChangesV3<bool, geodeExecFunction7<(anonymous namespace)::ExecFuncUnique7>(geode::ModStateEvent*)::{lambda(bool)#3}>(std::__ndk1::basic_string_view<char, std::__ndk1::char_traits<char> >, geodeExecFunction7<(anonymous namespace)::ExecFuncUnique7>(geode::ModStateEvent*)::{lambda(bool)#3}&&, geode::Mod*)::{lambda(std::__ndk1::shared_ptr<geode::SettingV3>)#1}, std::__ndk1::allocator<geode::listenForSettingChangesV3<bool, geodeExecFunction7<(anonymous namespace)::ExecFuncUnique7>(geode::ModStateEvent*)::{lambda(bool)#3}>(std::__ndk1::basic_string_view<char, std::__ndk1::char_traits<char> >, geodeExecFunction7<(anonymous namespace)::ExecFuncUnique7>(geode::ModStateEvent*)::{lambda(bool)#3}&&, geode::Mod*)::{lambda(std::__ndk1::shared_ptr<geode::SettingV3>)#1}>, void (std::__ndk1::shared_ptr<geode::SettingV3>)>::__clone(std::__ndk1::__function::__base<void (std::__ndk1::shared_ptr<geode::SettingV3>)>*) const
PUBLIC 1b628 0 std::__ndk1::__function::__func<geode::listenForSettingChangesV3<bool, geodeExecFunction7<(anonymous namespace)::ExecFuncUnique7>(geode::ModStateEvent*)::{lambda(bool)#3}>(std::__ndk1::basic_string_view<char, std::__ndk1::char_traits<char> >, geodeExecFunction7<(anonymous namespace)::ExecFuncUnique7>(geode::ModStateEvent*)::{lambda(bool)#3}&&, geode::Mod*)::{lambda(std::__ndk1::shared_ptr<geode::SettingV3>)#1}, std::__ndk1::allocator<geode::listenForSettingChangesV3<bool, geodeExecFunction7<(anonymous namespace)::ExecFuncUnique7>(geode::ModStateEvent*)::{lambda(bool)#3}>(std::__ndk1::basic_string_view<char, std::__ndk1::char_traits<char> >, geodeExecFunction7<(anonymous namespace)::ExecFuncUnique7>(geode::ModStateEvent*)::{lambda(bool)#3}&&, geode::Mod*)::{lambda(std::__ndk1::shared_ptr<geode::SettingV3>)#1}>, void (std::__ndk1::shared_ptr<geode::SettingV3>)>::destroy()
PUBLIC 1b62c 0 std::__ndk1::__function::__func<geode::listenForSettingChangesV3<bool, geodeExecFunction7<(anonymous namespace)::ExecFuncUnique7>(geode::ModStateEvent*)::{lambda(bool)#3}>(std::__ndk1::basic_string_view<char, std::__ndk1::char_traits<char> >, geodeExecFunction7<(anonymous namespace)::ExecFuncUnique7>(geode::ModStateEvent*)::{lambda(bool)#3}&&, geode::Mod*)::{lambda(std::__ndk1::shared_ptr<geode::SettingV3>)#1}, std::__ndk1::allocator<geode::listenForSettingChangesV3<bool, geodeExecFunction7<(anonymous namespace)::ExecFuncUnique7>(geode::ModStateEvent*)::{lambda(bool)#3}>(std::__ndk1::basic_string_view<char, std::__ndk1::char_traits<char> >, geodeExecFunction7<(anonymous namespace)::ExecFuncUnique7>(geode::ModStateEvent*)::{lambda(bool)#3}&&, geode::Mod*)::{lambda(std::__ndk1::shared_ptr<geode::SettingV3>)#1}>, void (std::__ndk1::shared_ptr<geode::SettingV3>)>::destroy_deallocate()
PUBLIC 1b630 0 std::__ndk1::__function::__func<geode::listenForSettingChangesV3<bool, geodeExecFunction7<(anonymous namespace)::ExecFuncUnique7>(geode::ModStateEvent*)::{lambda(bool)#3}>(std::__ndk1::basic_string_view<char, std::__ndk1::char_traits<char> >, geodeExecFunction7<(anonymous namespace)::ExecFuncUnique7>(geode::ModStateEvent*)::{lambda(bool)#3}&&, geode::Mod*)::{lambda(std::__ndk1::shared_ptr<geode::SettingV3>)#1}, std::__ndk1::allocator<geode::listenForSettingChangesV3<bool, geodeExecFunction7<(anonymous namespace)::ExecFuncUnique7>(geode::ModStateEvent*)::{lambda(bool)#3}>(std::__ndk1::basic_string_view<char, std::__ndk1::char_traits<char> >, geodeExecFunction7<(anonymous namespace)::ExecFuncUnique7>(geode::ModStateEvent*)::{lambda(bool)#3}&&, geode::Mod*)::{lambda(std::__ndk1::shared_ptr<geode::SettingV3>)#1}>, void (std::__ndk1::shared_ptr<geode::SettingV3>)>::operator()(std::__ndk1::shared_ptr<geode::SettingV3>&&)
PUBLIC 1b7f8 0 std::__ndk1::__function::__func<geode::listenForSettingChangesV3<bool, geodeExecFunction7<(anonymous namespace)::ExecFuncUnique7>(geode::ModStateEvent*)::{lambda(bool)#3}>(std::__ndk1::basic_string_view<char, std::__ndk1::char_traits<char> >, geodeExecFunction7<(anonymous namespace)::ExecFuncUnique7>(geode::ModStateEvent*)::{lambda(bool)#3}&&, geode::Mod*)::{lambda(std::__ndk1::shared_ptr<geode::SettingV3>)#1}, std::__ndk1::allocator<geode::listenForSettingChangesV3<bool, geodeExecFunction7<(anonymous namespace)::ExecFuncUnique7>(geode::ModStateEvent*)::{lambda(bool)#3}>(std::__ndk1::basic_string_view<char, std::__ndk1::char_traits<char> >, geodeExecFunction7<(anonymous namespace)::ExecFuncUnique7>(geode::ModStateEvent*)::{lambda(bool)#3}&&, geode::Mod*)::{lambda(std::__ndk1::shared_ptr<geode::SettingV3>)#1}>, void (std::__ndk1::shared_ptr<geode::SettingV3>)>::target(std::type_info const&) const
PUBLIC 1b814 0 std::__ndk1::__function::__func<geode::listenForSettingChangesV3<bool, geodeExecFunction7<(anonymous namespace)::ExecFuncUnique7>(geode::ModStateEvent*)::{lambda(bool)#3}>(std::__ndk1::basic_string_view<char, std::__ndk1::char_traits<char> >, geodeExecFunction7<(anonymous namespace)::ExecFuncUnique7>(geode::ModStateEvent*)::{lambda(bool)#3}&&, geode::Mod*)::{lambda(std::__ndk1::shared_ptr<geode::SettingV3>)#1}, std::__ndk1::allocator<geode::listenForSettingChangesV3<bool, geodeExecFunction7<(anonymous namespace)::ExecFuncUnique7>(geode::ModStateEvent*)::{lambda(bool)#3}>(std::__ndk1::basic_string_view<char, std::__ndk1::char_traits<char> >, geodeExecFunction7<(anonymous namespace)::ExecFuncUnique7>(geode::ModStateEvent*)::{lambda(bool)#3}&&, geode::Mod*)::{lambda(std::__ndk1::shared_ptr<geode::SettingV3>)#1}>, void (std::__ndk1::shared_ptr<geode::SettingV3>)>::target_type() const
PUBLIC 1b820 0 std::__ndk1::__function::__func<geode::listenForSettingChangesV3<bool, geodeExecFunction7<(anonymous namespace)::ExecFuncUnique7>(geode::ModStateEvent*)::{lambda(bool)#4}>(std::__ndk1::basic_string_view<char, std::__ndk1::char_traits<char> >, geodeExecFunction7<(anonymous namespace)::ExecFuncUnique7>(geode::ModStateEvent*)::{lambda(bool)#4}&&, geode::Mod*)::{lambda(std::__ndk1::shared_ptr<geode::SettingV3>)#1}, std::__ndk1::allocator<geode::listenForSettingChangesV3<bool, geodeExecFunction7<(anonymous namespace)::ExecFuncUnique7>(geode::ModStateEvent*)::{lambda(bool)#4}>(std::__ndk1::basic_string_view<char, std::__ndk1::char_traits<char> >, geodeExecFunction7<(anonymous namespace)::ExecFuncUnique7>(geode::ModStateEvent*)::{lambda(bool)#4}&&, geode::Mod*)::{lambda(std::__ndk1::shared_ptr<geode::SettingV3>)#1}>, void (std::__ndk1::shared_ptr<geode::SettingV3>)>::~__func()
PUBLIC 1b824 0 std::__ndk1::__function::__func<geode::listenForSettingChangesV3<bool, geodeExecFunction7<(anonymous namespace)::ExecFuncUnique7>(geode::ModStateEvent*)::{lambda(bool)#4}>(std::__ndk1::basic_string_view<char, std::__ndk1::char_traits<char> >, geodeExecFunction7<(anonymous namespace)::ExecFuncUnique7>(geode::ModStateEvent*)::{lambda(bool)#4}&&, geode::Mod*)::{lambda(std::__ndk1::shared_ptr<geode::SettingV3>)#1}, std::__ndk1::allocator<geode::listenForSettingChangesV3<bool, geodeExecFunction7<(anonymous namespace)::ExecFuncUnique7>(geode::ModStateEvent*)::{lambda(bool)#4}>(std::__ndk1::basic_string_view<char, std::__ndk1::char_traits<char> >, geodeExecFunction7<(anonymous namespace)::ExecFuncUnique7>(geode::ModStateEvent*)::{lambda(bool)#4}&&, geode::Mod*)::{lambda(std::__ndk1::shared_ptr<geode::SettingV3>)#1}>, void (std::__ndk1::shared_ptr<geode::SettingV3>)>::__clone() const
PUBLIC 1b85c 0 std::__ndk1::__function::__func<geode::listenForSettingChangesV3<bool, geodeExecFunction7<(anonymous namespace)::ExecFuncUnique7>(geode::ModStateEvent*)::{lambda(bool)#4}>(std::__ndk1::basic_string_view<char, std::__ndk1::char_traits<char> >, geodeExecFunction7<(anonymous namespace)::ExecFuncUnique7>(geode::ModStateEvent*)::{lambda(bool)#4}&&, geode::Mod*)::{lambda(std::__ndk1::shared_ptr<geode::SettingV3>)#1}, std::__ndk1::allocator<geode::listenForSettingChangesV3<bool, geodeExecFunction7<(anonymous namespace)::ExecFuncUnique7>(geode::ModStateEvent*)::{lambda(bool)#4}>(std::__ndk1::basic_string_view<char, std::__ndk1::char_traits<char> >, geodeExecFunction7<(anonymous namespace)::ExecFuncUnique7>(geode::ModStateEvent*)::{lambda(bool)#4}&&, geode::Mod*)::{lambda(std::__ndk1::shared_ptr<geode::SettingV3>)#1}>, void (std::__ndk1::shared_ptr<geode::SettingV3>)>::__clone(std::__ndk1::__function::__base<void (std::__ndk1::shared_ptr<geode::SettingV3>)>*) const
PUBLIC 1b874 0 std::__ndk1::__function::__func<geode::listenForSettingChangesV3<bool, geodeExecFunction7<(anonymous namespace)::ExecFuncUnique7>(geode::ModStateEvent*)::{lambda(bool)#4}>(std::__ndk1::basic_string_view<char, std::__ndk1::char_traits<char> >, geodeExecFunction7<(anonymous namespace)::ExecFuncUnique7>(geode::ModStateEvent*)::{lambda(bool)#4}&&, geode::Mod*)::{lambda(std::__ndk1::shared_ptr<geode::SettingV3>)#1}, std::__ndk1::allocator<geode::listenForSettingChangesV3<bool, geodeExecFunction7<(anonymous namespace)::ExecFuncUnique7>(geode::ModStateEvent*)::{lambda(bool)#4}>(std::__ndk1::basic_string_view<char, std::__ndk1::char_traits<char> >, geodeExecFunction7<(anonymous namespace)::ExecFuncUnique7>(geode::ModStateEvent*)::{lambda(bool)#4}&&, geode::Mod*)::{lambda(std::__ndk1::shared_ptr<geode::SettingV3>)#1}>, void (std::__ndk1::shared_ptr<geode::SettingV3>)>::destroy()
PUBLIC 1b878 0 std::__ndk1::__function::__func<geode::listenForSettingChangesV3<bool, geodeExecFunction7<(anonymous namespace)::ExecFuncUnique7>(geode::ModStateEvent*)::{lambda(bool)#4}>(std::__ndk1::basic_string_view<char, std::__ndk1::char_traits<char> >, geodeExecFunction7<(anonymous namespace)::ExecFuncUnique7>(geode::ModStateEvent*)::{lambda(bool)#4}&&, geode::Mod*)::{lambda(std::__ndk1::shared_ptr<geode::SettingV3>)#1}, std::__ndk1::allocator<geode::listenForSettingChangesV3<bool, geodeExecFunction7<(anonymous namespace)::ExecFuncUnique7>(geode::ModStateEvent*)::{lambda(bool)#4}>(std::__ndk1::basic_string_view<char, std::__ndk1::char_traits<char> >, geodeExecFunction7<(anonymous namespace)::ExecFuncUnique7>(geode::ModStateEvent*)::{lambda(bool)#4}&&, geode::Mod*)::{lambda(std::__ndk1::shared_ptr<geode::SettingV3>)#1}>, void (std::__ndk1::shared_ptr<geode::SettingV3>)>::destroy_deallocate()
PUBLIC 1b87c 0 std::__ndk1::__function::__func<geode::listenForSettingChangesV3<bool, geodeExecFunction7<(anonymous namespace)::ExecFuncUnique7>(geode::ModStateEvent*)::{lambda(bool)#4}>(std::__ndk1::basic_string_view<char, std::__ndk1::char_traits<char> >, geodeExecFunction7<(anonymous namespace)::ExecFuncUnique7>(geode::ModStateEvent*)::{lambda(bool)#4}&&, geode::Mod*)::{lambda(std::__ndk1::shared_ptr<geode::SettingV3>)#1}, std::__ndk1::allocator<geode::listenForSettingChangesV3<bool, geodeExecFunction7<(anonymous namespace)::ExecFuncUnique7>(geode::ModStateEvent*)::{lambda(bool)#4}>(std::__ndk1::basic_string_view<char, std::__ndk1::char_traits<char> >, geodeExecFunction7<(anonymous namespace)::ExecFuncUnique7>(geode::ModStateEvent*)::{lambda(bool)#4}&&, geode::Mod*)::{lambda(std::__ndk1::shared_ptr<geode::SettingV3>)#1}>, void (std::__ndk1::shared_ptr<geode::SettingV3>)>::operator()(std::__ndk1::shared_ptr<geode::SettingV3>&&)
PUBLIC 1b9dc 0 std::__ndk1::__function::__func<geode::listenForSettingChangesV3<bool, geodeExecFunction7<(anonymous namespace)::ExecFuncUnique7>(geode::ModStateEvent*)::{lambda(bool)#4}>(std::__ndk1::basic_string_view<char, std::__ndk1::char_traits<char> >, geodeExecFunction7<(anonymous namespace)::ExecFuncUnique7>(geode::ModStateEvent*)::{lambda(bool)#4}&&, geode::Mod*)::{lambda(std::__ndk1::shared_ptr<geode::SettingV3>)#1}, std::__ndk1::allocator<geode::listenForSettingChangesV3<bool, geodeExecFunction7<(anonymous namespace)::ExecFuncUnique7>(geode::ModStateEvent*)::{lambda(bool)#4}>(std::__ndk1::basic_string_view<char, std::__ndk1::char_traits<char> >, geodeExecFunction7<(anonymous namespace)::ExecFuncUnique7>(geode::ModStateEvent*)::{lambda(bool)#4}&&, geode::Mod*)::{lambda(std::__ndk1::shared_ptr<geode::SettingV3>)#1}>, void (std::__ndk1::shared_ptr<geode::SettingV3>)>::target(std::type_info const&) const
PUBLIC 1b9f8 0 std::__ndk1::__function::__func<geode::listenForSettingChangesV3<bool, geodeExecFunction7<(anonymous namespace)::ExecFuncUnique7>(geode::ModStateEvent*)::{lambda(bool)#4}>(std::__ndk1::basic_string_view<char, std::__ndk1::char_traits<char> >, geodeExecFunction7<(anonymous namespace)::ExecFuncUnique7>(geode::ModStateEvent*)::{lambda(bool)#4}&&, geode::Mod*)::{lambda(std::__ndk1::shared_ptr<geode::SettingV3>)#1}, std::__ndk1::allocator<geode::listenForSettingChangesV3<bool, geodeExecFunction7<(anonymous namespace)::ExecFuncUnique7>(geode::ModStateEvent*)::{lambda(bool)#4}>(std::__ndk1::basic_string_view<char, std::__ndk1::char_traits<char> >, geodeExecFunction7<(anonymous namespace)::ExecFuncUnique7>(geode::ModStateEvent*)::{lambda(bool)#4}&&, geode::Mod*)::{lambda(std::__ndk1::shared_ptr<geode::SettingV3>)#1}>, void (std::__ndk1::shared_ptr<geode::SettingV3>)>::target_type() const
PUBLIC 1ba04 0 std::__ndk1::__function::__func<geode::listenForSettingChangesV3<double, geodeExecFunction7<(anonymous namespace)::ExecFuncUnique7>(geode::ModStateEvent*)::{lambda(double)#2}>(std::__ndk1::basic_string_view<char, std::__ndk1::char_traits<char> >, geodeExecFunction7<(anonymous namespace)::ExecFuncUnique7>(geode::ModStateEvent*)::{lambda(double)#2}&&, geode::Mod*)::{lambda(std::__ndk1::shared_ptr<geode::SettingV3>)#1}, std::__ndk1::allocator<geode::listenForSettingChangesV3<double, geodeExecFunction7<(anonymous namespace)::ExecFuncUnique7>(geode::ModStateEvent*)::{lambda(double)#2}>(std::__ndk1::basic_string_view<char, std::__ndk1::char_traits<char> >, geodeExecFunction7<(anonymous namespace)::ExecFuncUnique7>(geode::ModStateEvent*)::{lambda(double)#2}&&, geode::Mod*)::{lambda(std::__ndk1::shared_ptr<geode::SettingV3>)#1}>, void (std::__ndk1::shared_ptr<geode::SettingV3>)>::~__func()
PUBLIC 1ba08 0 std::__ndk1::__function::__func<geode::listenForSettingChangesV3<double, geodeExecFunction7<(anonymous namespace)::ExecFuncUnique7>(geode::ModStateEvent*)::{lambda(double)#2}>(std::__ndk1::basic_string_view<char, std::__ndk1::char_traits<char> >, geodeExecFunction7<(anonymous namespace)::ExecFuncUnique7>(geode::ModStateEvent*)::{lambda(double)#2}&&, geode::Mod*)::{lambda(std::__ndk1::shared_ptr<geode::SettingV3>)#1}, std::__ndk1::allocator<geode::listenForSettingChangesV3<double, geodeExecFunction7<(anonymous namespace)::ExecFuncUnique7>(geode::ModStateEvent*)::{lambda(double)#2}>(std::__ndk1::basic_string_view<char, std::__ndk1::char_traits<char> >, geodeExecFunction7<(anonymous namespace)::ExecFuncUnique7>(geode::ModStateEvent*)::{lambda(double)#2}&&, geode::Mod*)::{lambda(std::__ndk1::shared_ptr<geode::SettingV3>)#1}>, void (std::__ndk1::shared_ptr<geode::SettingV3>)>::__clone() const
PUBLIC 1ba40 0 std::__ndk1::__function::__func<geode::listenForSettingChangesV3<double, geodeExecFunction7<(anonymous namespace)::ExecFuncUnique7>(geode::ModStateEvent*)::{lambda(double)#2}>(std::__ndk1::basic_string_view<char, std::__ndk1::char_traits<char> >, geodeExecFunction7<(anonymous namespace)::ExecFuncUnique7>(geode::ModStateEvent*)::{lambda(double)#2}&&, geode::Mod*)::{lambda(std::__ndk1::shared_ptr<geode::SettingV3>)#1}, std::__ndk1::allocator<geode::listenForSettingChangesV3<double, geodeExecFunction7<(anonymous namespace)::ExecFuncUnique7>(geode::ModStateEvent*)::{lambda(double)#2}>(std::__ndk1::basic_string_view<char, std::__ndk1::char_traits<char> >, geodeExecFunction7<(anonymous namespace)::ExecFuncUnique7>(geode::ModStateEvent*)::{lambda(double)#2}&&, geode::Mod*)::{lambda(std::__ndk1::shared_ptr<geode::SettingV3>)#1}>, void (std::__ndk1::shared_ptr<geode::SettingV3>)>::__clone(std::__ndk1::__function::__base<void (std::__ndk1::shared_ptr<geode::SettingV3>)>*) const
PUBLIC 1ba58 0 std::__ndk1::__function::__func<geode::listenForSettingChangesV3<double, geodeExecFunction7<(anonymous namespace)::ExecFuncUnique7>(geode::ModStateEvent*)::{lambda(double)#2}>(std::__ndk1::basic_string_view<char, std::__ndk1::char_traits<char> >, geodeExecFunction7<(anonymous namespace)::ExecFuncUnique7>(geode::ModStateEvent*)::{lambda(double)#2}&&, geode::Mod*)::{lambda(std::__ndk1::shared_ptr<geode::SettingV3>)#1}, std::__ndk1::allocator<geode::listenForSettingChangesV3<double, geodeExecFunction7<(anonymous namespace)::ExecFuncUnique7>(geode::ModStateEvent*)::{lambda(double)#2}>(std::__ndk1::basic_string_view<char, std::__ndk1::char_traits<char> >, geodeExecFunction7<(anonymous namespace)::ExecFuncUnique7>(geode::ModStateEvent*)::{lambda(double)#2}&&, geode::Mod*)::{lambda(std::__ndk1::shared_ptr<geode::SettingV3>)#1}>, void (std::__ndk1::shared_ptr<geode::SettingV3>)>::destroy()
PUBLIC 1ba5c 0 std::__ndk1::__function::__func<geode::listenForSettingChangesV3<double, geodeExecFunction7<(anonymous namespace)::ExecFuncUnique7>(geode::ModStateEvent*)::{lambda(double)#2}>(std::__ndk1::basic_string_view<char, std::__ndk1::char_traits<char> >, geodeExecFunction7<(anonymous namespace)::ExecFuncUnique7>(geode::ModStateEvent*)::{lambda(double)#2}&&, geode::Mod*)::{lambda(std::__ndk1::shared_ptr<geode::SettingV3>)#1}, std::__ndk1::allocator<geode::listenForSettingChangesV3<double, geodeExecFunction7<(anonymous namespace)::ExecFuncUnique7>(geode::ModStateEvent*)::{lambda(double)#2}>(std::__ndk1::basic_string_view<char, std::__ndk1::char_traits<char> >, geodeExecFunction7<(anonymous namespace)::ExecFuncUnique7>(geode::ModStateEvent*)::{lambda(double)#2}&&, geode::Mod*)::{lambda(std::__ndk1::shared_ptr<geode::SettingV3>)#1}>, void (std::__ndk1::shared_ptr<geode::SettingV3>)>::destroy_deallocate()
PUBLIC 1ba60 0 std::__ndk1::__function::__func<geode::listenForSettingChangesV3<double, geodeExecFunction7<(anonymous namespace)::ExecFuncUnique7>(geode::ModStateEvent*)::{lambda(double)#2}>(std::__ndk1::basic_string_view<char, std::__ndk1::char_traits<char> >, geodeExecFunction7<(anonymous namespace)::ExecFuncUnique7>(geode::ModStateEvent*)::{lambda(double)#2}&&, geode::Mod*)::{lambda(std::__ndk1::shared_ptr<geode::SettingV3>)#1}, std::__ndk1::allocator<geode::listenForSettingChangesV3<double, geodeExecFunction7<(anonymous namespace)::ExecFuncUnique7>(geode::ModStateEvent*)::{lambda(double)#2}>(std::__ndk1::basic_string_view<char, std::__ndk1::char_traits<char> >, geodeExecFunction7<(anonymous namespace)::ExecFuncUnique7>(geode::ModStateEvent*)::{lambda(double)#2}&&, geode::Mod*)::{lambda(std::__ndk1::shared_ptr<geode::SettingV3>)#1}>, void (std::__ndk1::shared_ptr<geode::SettingV3>)>::operator()(std::__ndk1::shared_ptr<geode::SettingV3>&&)
PUBLIC 1bb9c 0 std::__ndk1::__function::__func<geode::listenForSettingChangesV3<double, geodeExecFunction7<(anonymous namespace)::ExecFuncUnique7>(geode::ModStateEvent*)::{lambda(double)#2}>(std::__ndk1::basic_string_view<char, std::__ndk1::char_traits<char> >, geodeExecFunction7<(anonymous namespace)::ExecFuncUnique7>(geode::ModStateEvent*)::{lambda(double)#2}&&, geode::Mod*)::{lambda(std::__ndk1::shared_ptr<geode::SettingV3>)#1}, std::__ndk1::allocator<geode::listenForSettingChangesV3<double, geodeExecFunction7<(anonymous namespace)::ExecFuncUnique7>(geode::ModStateEvent*)::{lambda(double)#2}>(std::__ndk1::basic_string_view<char, std::__ndk1::char_traits<char> >, geodeExecFunction7<(anonymous namespace)::ExecFuncUnique7>(geode::ModStateEvent*)::{lambda(double)#2}&&, geode::Mod*)::{lambda(std::__ndk1::shared_ptr<geode::SettingV3>)#1}>, void (std::__ndk1::shared_ptr<geode::SettingV3>)>::target(std::type_info const&) const
PUBLIC 1bbb8 0 std::__ndk1::__function::__func<geode::listenForSettingChangesV3<double, geodeExecFunction7<(anonymous namespace)::ExecFuncUnique7>(geode::ModStateEvent*)::{lambda(double)#2}>(std::__ndk1::basic_string_view<char, std::__ndk1::char_traits<char> >, geodeExecFunction7<(anonymous namespace)::ExecFuncUnique7>(geode::ModStateEvent*)::{lambda(double)#2}&&, geode::Mod*)::{lambda(std::__ndk1::shared_ptr<geode::SettingV3>)#1}, std::__ndk1::allocator<geode::listenForSettingChangesV3<double, geodeExecFunction7<(anonymous namespace)::ExecFuncUnique7>(geode::ModStateEvent*)::{lambda(double)#2}>(std::__ndk1::basic_string_view<char, std::__ndk1::char_traits<char> >, geodeExecFunction7<(anonymous namespace)::ExecFuncUnique7>(geode::ModStateEvent*)::{lambda(double)#2}&&, geode::Mod*)::{lambda(std::__ndk1::shared_ptr<geode::SettingV3>)#1}>, void (std::__ndk1::shared_ptr<geode::SettingV3>)>::target_type() const
PUBLIC 1bbc4 0 std::__ndk1::__function::__base<void (std::__ndk1::shared_ptr<geode::SettingV3>)>::~__base()
PUBLIC 1bbc8 0 std::__ndk1::__function::__func<geode::listenForSettingChangesV3<double, geodeExecFunction7<(anonymous namespace)::ExecFuncUnique7>(geode::ModStateEvent*)::{lambda(double)#3}>(std::__ndk1::basic_string_view<char, std::__ndk1::char_traits<char> >, geodeExecFunction7<(anonymous namespace)::ExecFuncUnique7>(geode::ModStateEvent*)::{lambda(double)#3}&&, geode::Mod*)::{lambda(std::__ndk1::shared_ptr<geode::SettingV3>)#1}, std::__ndk1::allocator<geode::listenForSettingChangesV3<double, geodeExecFunction7<(anonymous namespace)::ExecFuncUnique7>(geode::ModStateEvent*)::{lambda(double)#3}>(std::__ndk1::basic_string_view<char, std::__ndk1::char_traits<char> >, geodeExecFunction7<(anonymous namespace)::ExecFuncUnique7>(geode::ModStateEvent*)::{lambda(double)#3}&&, geode::Mod*)::{lambda(std::__ndk1::shared_ptr<geode::SettingV3>)#1}>, void (std::__ndk1::shared_ptr<geode::SettingV3>)>::~__func()
PUBLIC 1bbcc 0 std::__ndk1::__function::__func<geode::listenForSettingChangesV3<double, geodeExecFunction7<(anonymous namespace)::ExecFuncUnique7>(geode::ModStateEvent*)::{lambda(double)#3}>(std::__ndk1::basic_string_view<char, std::__ndk1::char_traits<char> >, geodeExecFunction7<(anonymous namespace)::ExecFuncUnique7>(geode::ModStateEvent*)::{lambda(double)#3}&&, geode::Mod*)::{lambda(std::__ndk1::shared_ptr<geode::SettingV3>)#1}, std::__ndk1::allocator<geode::listenForSettingChangesV3<double, geodeExecFunction7<(anonymous namespace)::ExecFuncUnique7>(geode::ModStateEvent*)::{lambda(double)#3}>(std::__ndk1::basic_string_view<char, std::__ndk1::char_traits<char> >, geodeExecFunction7<(anonymous namespace)::ExecFuncUnique7>(geode::ModStateEvent*)::{lambda(double)#3}&&, geode::Mod*)::{lambda(std::__ndk1::shared_ptr<geode::SettingV3>)#1}>, void (std::__ndk1::shared_ptr<geode::SettingV3>)>::__clone() const
PUBLIC 1bc04 0 std::__ndk1::__function::__func<geode::listenForSettingChangesV3<double, geodeExecFunction7<(anonymous namespace)::ExecFuncUnique7>(geode::ModStateEvent*)::{lambda(double)#3}>(std::__ndk1::basic_string_view<char, std::__ndk1::char_traits<char> >, geodeExecFunction7<(anonymous namespace)::ExecFuncUnique7>(geode::ModStateEvent*)::{lambda(double)#3}&&, geode::Mod*)::{lambda(std::__ndk1::shared_ptr<geode::SettingV3>)#1}, std::__ndk1::allocator<geode::listenForSettingChangesV3<double, geodeExecFunction7<(anonymous namespace)::ExecFuncUnique7>(geode::ModStateEvent*)::{lambda(double)#3}>(std::__ndk1::basic_string_view<char, std::__ndk1::char_traits<char> >, geodeExecFunction7<(anonymous namespace)::ExecFuncUnique7>(geode::ModStateEvent*)::{lambda(double)#3}&&, geode::Mod*)::{lambda(std::__ndk1::shared_ptr<geode::SettingV3>)#1}>, void (std::__ndk1::shared_ptr<geode::SettingV3>)>::__clone(std::__ndk1::__function::__base<void (std::__ndk1::shared_ptr<geode::SettingV3>)>*) const
PUBLIC 1bc1c 0 std::__ndk1::__function::__func<geode::listenForSettingChangesV3<double, geodeExecFunction7<(anonymous namespace)::ExecFuncUnique7>(geode::ModStateEvent*)::{lambda(double)#3}>(std::__ndk1::basic_string_view<char, std::__ndk1::char_traits<char> >, geodeExecFunction7<(anonymous namespace)::ExecFuncUnique7>(geode::ModStateEvent*)::{lambda(double)#3}&&, geode::Mod*)::{lambda(std::__ndk1::shared_ptr<geode::SettingV3>)#1}, std::__ndk1::allocator<geode::listenForSettingChangesV3<double, geodeExecFunction7<(anonymous namespace)::ExecFuncUnique7>(geode::ModStateEvent*)::{lambda(double)#3}>(std::__ndk1::basic_string_view<char, std::__ndk1::char_traits<char> >, geodeExecFunction7<(anonymous namespace)::ExecFuncUnique7>(geode::ModStateEvent*)::{lambda(double)#3}&&, geode::Mod*)::{lambda(std::__ndk1::shared_ptr<geode::SettingV3>)#1}>, void (std::__ndk1::shared_ptr<geode::SettingV3>)>::destroy()
PUBLIC 1bc20 0 std::__ndk1::__function::__func<geode::listenForSettingChangesV3<double, geodeExecFunction7<(anonymous namespace)::ExecFuncUnique7>(geode::ModStateEvent*)::{lambda(double)#3}>(std::__ndk1::basic_string_view<char, std::__ndk1::char_traits<char> >, geodeExecFunction7<(anonymous namespace)::ExecFuncUnique7>(geode::ModStateEvent*)::{lambda(double)#3}&&, geode::Mod*)::{lambda(std::__ndk1::shared_ptr<geode::SettingV3>)#1}, std::__ndk1::allocator<geode::listenForSettingChangesV3<double, geodeExecFunction7<(anonymous namespace)::ExecFuncUnique7>(geode::ModStateEvent*)::{lambda(double)#3}>(std::__ndk1::basic_string_view<char, std::__ndk1::char_traits<char> >, geodeExecFunction7<(anonymous namespace)::ExecFuncUnique7>(geode::ModStateEvent*)::{lambda(double)#3}&&, geode::Mod*)::{lambda(std::__ndk1::shared_ptr<geode::SettingV3>)#1}>, void (std::__ndk1::shared_ptr<geode::SettingV3>)>::destroy_deallocate()
PUBLIC 1bc24 0 std::__ndk1::__function::__func<geode::listenForSettingChangesV3<double, geodeExecFunction7<(anonymous namespace)::ExecFuncUnique7>(geode::ModStateEvent*)::{lambda(double)#3}>(std::__ndk1::basic_string_view<char, std::__ndk1::char_traits<char> >, geodeExecFunction7<(anonymous namespace)::ExecFuncUnique7>(geode::ModStateEvent*)::{lambda(double)#3}&&, geode::Mod*)::{lambda(std::__ndk1::shared_ptr<geode::SettingV3>)#1}, std::__ndk1::allocator<geode::listenForSettingChangesV3<double, geodeExecFunction7<(anonymous namespace)::ExecFuncUnique7>(geode::ModStateEvent*)::{lambda(double)#3}>(std::__ndk1::basic_string_view<char, std::__ndk1::char_traits<char> >, geodeExecFunction7<(anonymous namespace)::ExecFuncUnique7>(geode::ModStateEvent*)::{lambda(double)#3}&&, geode::Mod*)::{lambda(std::__ndk1::shared_ptr<geode::SettingV3>)#1}>, void (std::__ndk1::shared_ptr<geode::SettingV3>)>::operator()(std::__ndk1::shared_ptr<geode::SettingV3>&&)
PUBLIC 1bd84 0 std::__ndk1::__function::__func<geode::listenForSettingChangesV3<double, geodeExecFunction7<(anonymous namespace)::ExecFuncUnique7>(geode::ModStateEvent*)::{lambda(double)#3}>(std::__ndk1::basic_string_view<char, std::__ndk1::char_traits<char> >, geodeExecFunction7<(anonymous namespace)::ExecFuncUnique7>(geode::ModStateEvent*)::{lambda(double)#3}&&, geode::Mod*)::{lambda(std::__ndk1::shared_ptr<geode::SettingV3>)#1}, std::__ndk1::allocator<geode::listenForSettingChangesV3<double, geodeExecFunction7<(anonymous namespace)::ExecFuncUnique7>(geode::ModStateEvent*)::{lambda(double)#3}>(std::__ndk1::basic_string_view<char, std::__ndk1::char_traits<char> >, geodeExecFunction7<(anonymous namespace)::ExecFuncUnique7>(geode::ModStateEvent*)::{lambda(double)#3}&&, geode::Mod*)::{lambda(std::__ndk1::shared_ptr<geode::SettingV3>)#1}>, void (std::__ndk1::shared_ptr<geode::SettingV3>)>::target(std::type_info const&) const
PUBLIC 1bda0 0 std::__ndk1::__function::__func<geode::listenForSettingChangesV3<double, geodeExecFunction7<(anonymous namespace)::ExecFuncUnique7>(geode::ModStateEvent*)::{lambda(double)#3}>(std::__ndk1::basic_string_view<char, std::__ndk1::char_traits<char> >, geodeExecFunction7<(anonymous namespace)::ExecFuncUnique7>(geode::ModStateEvent*)::{lambda(double)#3}&&, geode::Mod*)::{lambda(std::__ndk1::shared_ptr<geode::SettingV3>)#1}, std::__ndk1::allocator<geode::listenForSettingChangesV3<double, geodeExecFunction7<(anonymous namespace)::ExecFuncUnique7>(geode::ModStateEvent*)::{lambda(double)#3}>(std::__ndk1::basic_string_view<char, std::__ndk1::char_traits<char> >, geodeExecFunction7<(anonymous namespace)::ExecFuncUnique7>(geode::ModStateEvent*)::{lambda(double)#3}&&, geode::Mod*)::{lambda(std::__ndk1::shared_ptr<geode::SettingV3>)#1}>, void (std::__ndk1::shared_ptr<geode::SettingV3>)>::target_type() const
PUBLIC 1bdac 0 geode::EventListener<geode::ModStateFilter>::getPool() const
PUBLIC 1bdb0 0 geode::EventListener<geode::ModStateFilter>::handle(geode::Event*)
PUBLIC 1bf24 0 geode::EventListener<geode::ModStateFilter>::~EventListener()
PUBLIC 1bf80 0 geode::EventListener<geode::ModStateFilter>::~EventListener()
PUBLIC 1bfe4 0 std::__ndk1::__function::__base<void (geode::ModStateEvent*)>::~__base()
PUBLIC 1bfe8 0 std::__ndk1::__function::__func<void (*)(geode::ModStateEvent*), std::__ndk1::allocator<void (*)(geode::ModStateEvent*)>, void (geode::ModStateEvent*)>::~__func()
PUBLIC 1bfec 0 std::__ndk1::__function::__func<void (*)(geode::ModStateEvent*), std::__ndk1::allocator<void (*)(geode::ModStateEvent*)>, void (geode::ModStateEvent*)>::__clone() const
PUBLIC 1c020 0 std::__ndk1::__function::__func<void (*)(geode::ModStateEvent*), std::__ndk1::allocator<void (*)(geode::ModStateEvent*)>, void (geode::ModStateEvent*)>::__clone(std::__ndk1::__function::__base<void (geode::ModStateEvent*)>*) const
PUBLIC 1c034 0 std::__ndk1::__function::__func<void (*)(geode::ModStateEvent*), std::__ndk1::allocator<void (*)(geode::ModStateEvent*)>, void (geode::ModStateEvent*)>::destroy()
PUBLIC 1c038 0 std::__ndk1::__function::__func<void (*)(geode::ModStateEvent*), std::__ndk1::allocator<void (*)(geode::ModStateEvent*)>, void (geode::ModStateEvent*)>::destroy_deallocate()
PUBLIC 1c03c 0 std::__ndk1::__function::__func<void (*)(geode::ModStateEvent*), std::__ndk1::allocator<void (*)(geode::ModStateEvent*)>, void (geode::ModStateEvent*)>::operator()(geode::ModStateEvent*&&)
PUBLIC 1c04c 0 std::__ndk1::__function::__func<void (*)(geode::ModStateEvent*), std::__ndk1::allocator<void (*)(geode::ModStateEvent*)>, void (geode::ModStateEvent*)>::target(std::type_info const&) const
PUBLIC 1c068 0 std::__ndk1::__function::__func<void (*)(geode::ModStateEvent*), std::__ndk1::allocator<void (*)(geode::ModStateEvent*)>, void (geode::ModStateEvent*)>::target_type() const
PUBLIC 1c074 0 _GLOBAL__sub_I_main.cpp
PUBLIC m 1c1a0 0 geodeImplicitEntry
PUBLIC 1c1dc 0 std::__ndk1::unordered_map<void*, bool, std::__ndk1::hash<void*>, std::__ndk1::equal_to<void*>, std::__ndk1::allocator<std::__ndk1::pair<void* const, bool> > >::~unordered_map[abi:ne180000]()
PUBLIC 1c228 0 wrapFunction(unsigned long, tulip::hook::WrapperMetadata const&)
PUBLIC 1c35c 0 geode::impl::ResultData<void*, std::__ndk1::basic_string<char, std::__ndk1::char_traits<char>, std::__ndk1::allocator<char> > >::unwrapErr() &
PUBLIC 1c3d4 0 geode::impl::ResultData<void*, std::__ndk1::basic_string<char, std::__ndk1::char_traits<char>, std::__ndk1::allocator<char> > >::~ResultData()
PUBLIC 1c448 0 tulip::hook::WrapperMetadata::~WrapperMetadata()
PUBLIC 1c4ac 0 cocos2d::CCObject::~CCObject()
PUBLIC 1c4d0 0 cocos2d::CCNode::CCNode()
PUBLIC 1c72c 0 cocos2d::CCNode::~CCNode()
PUBLIC 1c750 0 cocos2d::CCObject::update(float)
PUBLIC 1c754 0 cocos2d::CCNode::~CCNode()
PUBLIC 1c9f4 0 cocos2d::CCObject::~CCObject()
PUBLIC 1cee8 0 _ZN5geode15UnwrapExceptionC2IRPvQsr4implE18IsStringStreamableIT_EEENS_4impl5OkTagEOS4_
PUBLIC 1d03c 0 _ZN5geode15UnwrapExceptionC2IRNSt6__ndk112basic_stringIcNS2_11char_traitsIcEENS2_9allocatorIcEEEEQsr4implE18IsStringStreamableIT_EEENS_4impl6ErrTagEOSA_
PUBLIC 1d1a4 0 std::__ndk1::__variant_detail::__visitation::__base::__dispatcher<(unsigned long)0>::__dispatch[abi:ne180000]<std::__ndk1::__variant_detail::__dtor<std::__ndk1::__variant_detail::__traits<void*, std::__ndk1::basic_string<char, std::__ndk1::char_traits<char>, std::__ndk1::allocator<char> > >, (std::__ndk1::__variant_detail::_Trait)1>::__destroy[abi:ne180000]()::{lambda(auto:1&)#1}, std::__ndk1::__variant_detail::__base<(std::__ndk1::__variant_detail::__traits<void*, std::__ndk1::basic_string<char, std::__ndk1::char_traits<char>, std::__ndk1::allocator<char> > >)1, std::__ndk1::__variant_detail::__traits, std::__ndk1::allocator<char> >&>(std::__ndk1::__variant_detail::__dtor<std::__ndk1::__variant_detail::__traits<void*, std::__ndk1::basic_string<char, std::__ndk1::char_traits<char>, std::__ndk1::allocator<char> > >, (std::__ndk1::__variant_detail::_Trait)1>, std::__ndk1::__variant_detail::__base<(std::__ndk1::__variant_detail::__traits<void*, std::__ndk1::basic_string<char, std::__ndk1::char_traits<char>, std::__ndk1::allocator<char> > >)1, std::__ndk1::__variant_detail::__traits, std::__ndk1::allocator<char> >&)
PUBLIC 1d1a8 0 std::__ndk1::__variant_detail::__visitation::__base::__dispatcher<(unsigned long)1>::__dispatch[abi:ne180000]<std::__ndk1::__variant_detail::__dtor<std::__ndk1::__variant_detail::__traits<void*, std::__ndk1::basic_string<char, std::__ndk1::char_traits<char>, std::__ndk1::allocator<char> > >, (std::__ndk1::__variant_detail::_Trait)1>::__destroy[abi:ne180000]()::{lambda(auto:1&)#1}, std::__ndk1::__variant_detail::__base<(std::__ndk1::__variant_detail::__traits<void*, std::__ndk1::basic_string<char, std::__ndk1::char_traits<char>, std::__ndk1::allocator<char> > >)1, std::__ndk1::__variant_detail::__traits, std::__ndk1::allocator<char> >&>(std::__ndk1::__variant_detail::__dtor<std::__ndk1::__variant_detail::__traits<void*, std::__ndk1::basic_string<char, std::__ndk1::char_traits<char>, std::__ndk1::allocator<char> > >, (std::__ndk1::__variant_detail::_Trait)1>, std::__ndk1::__variant_detail::__base<(std::__ndk1::__variant_detail::__traits<void*, std::__ndk1::basic_string<char, std::__ndk1::char_traits<char>, std::__ndk1::allocator<char> > >)1, std::__ndk1::__variant_detail::__traits, std::__ndk1::allocator<char> >&)
PUBLIC 1d1bc 0 std::__ndk1::__hash_table<std::__ndk1::__hash_value_type<void*, bool>, std::__ndk1::__unordered_map_hasher<void*, std::__ndk1::__hash_value_type<void*, bool>, std::__ndk1::hash<void*>, std::__ndk1::equal_to<void*>, true>, std::__ndk1::__unordered_map_equal<void*, std::__ndk1::__hash_value_type<void*, bool>, std::__ndk1::equal_to<void*>, std::__ndk1::hash<void*>, true>, std::__ndk1::allocator<std::__ndk1::__hash_value_type<void*, bool> > >::__emplace_unique_key_args<void*, std::__ndk1::piecewise_construct_t const&, std::__ndk1::tuple<void* const&>, std::__ndk1::tuple<> >(void* const&, std::__ndk1::piecewise_construct_t const&, std::__ndk1::tuple<void* const&>, std::__ndk1::tuple<>)
PUBLIC 1d6c8 0 __udivti3
PUBLIC 1d6d4 0 __udivmodti4
PUBLIC m 1d920 0 __eqtf2
PUBLIC 1d9c0 0 __unordtf2
PUBLIC 1d9f8 0 fmt::v11::detail::write_loc(fmt::v11::basic_appender<char>, fmt::v11::loc_value, fmt::v11::format_specs const&, fmt::v11::detail::locale_ref)
PUBLIC 1dc8c 0 fmt::v11::format_facet<std::__ndk1::locale>::~format_facet()
PUBLIC 1dd08 0 fmt::v11::report_error(char const*)
PUBLIC 1dd58 0 fmt::v11::format_error::runtime_error(char const*)
PUBLIC 1dd84 0 fmt::v11::format_facet<std::__ndk1::locale>::do_put(fmt::v11::basic_appender<char>, fmt::v11::loc_value, fmt::v11::format_specs const&) const
PUBLIC 1e544 0 fmt::v11::detail::loc_writer<char>::~loc_writer()
PUBLIC 1e5a8 0 fmt::v11::detail::vformat_to<char>(fmt::v11::detail::buffer<char>&, fmt::v11::basic_string_view<char>, fmt::v11::detail::vformat_args<char>::type, fmt::v11::detail::locale_ref)
PUBLIC 1eb18 0 fmt::v11::detail::is_printable(unsigned int)
PUBLIC 1ed40 0 fmt::v11::detail::dragonbox::to_decimal<float>(float)
PUBLIC 1f01c 0 fmt::v11::detail::dragonbox::to_decimal<double>(double)
PUBLIC 1f558 0 fmt::v11::basic_memory_buffer<char, (unsigned long)500, std::__ndk1::allocator<char> >::grow(fmt::v11::detail::buffer<char>&, unsigned long)
PUBLIC 1f5d0 0 fmt::v11::format_facet<std::__ndk1::locale>::~format_facet()
PUBLIC 1f65c 0 fmt::v11::format_error::~format_error()
PUBLIC 1f680 0 fmt::v11::detail::copy_noinline<char, char const*, fmt::v11::basic_appender<char> >(char const*, char const*, fmt::v11::basic_appender<char>)
PUBLIC 1f7d0 0 fmt::v11::detail::default_arg_formatter<char>::operator()<bool>(bool)
PUBLIC 1f838 0 fmt::v11::detail::default_arg_formatter<char>::operator()<char>(char)
PUBLIC 1f8c8 0 fmt::v11::detail::default_arg_formatter<char>::operator()<float>(float)
PUBLIC 1f9b4 0 fmt::v11::detail::default_arg_formatter<char>::operator()<double>(double)
PUBLIC 1faa0 0 fmt::v11::detail::default_arg_formatter<char>::operator()<char const*>(char const*)
PUBLIC 1fae8 0 fmt::v11::detail::default_arg_formatter<char>::operator()<void const*>(void const*)
PUBLIC 1fb80 0 _ZN3fmt3v116detail5writeIcNS0_14basic_appenderIcEEiTnNSt6__ndk19enable_ifIXaaaasr11is_integralIT1_EE5valuentsr3std7is_sameIS7_bEE5valuentsr3std7is_sameIS7_T_EE5valueEiE4typeELi0EEET0_SB_S7_
PUBLIC 1fde0 0 fmt::v11::detail::copy_noinline<char, char*, fmt::v11::basic_appender<char> >(char*, char*, fmt::v11::basic_appender<char>)
PUBLIC 1ff30 0 _ZN3fmt3v116detail5writeIcNS0_14basic_appenderIcEEjTnNSt6__ndk19enable_ifIXaaaasr11is_integralIT1_EE5valuentsr3std7is_sameIS7_bEE5valuentsr3std7is_sameIS7_T_EE5valueEiE4typeELi0EEET0_SB_S7_
PUBLIC 20110 0 _ZN3fmt3v116detail5writeIcNS0_14basic_appenderIcEExTnNSt6__ndk19enable_ifIXaaaasr11is_integralIT1_EE5valuentsr3std7is_sameIS7_bEE5valuentsr3std7is_sameIS7_T_EE5valueEiE4typeELi0EEET0_SB_S7_
PUBLIC 20394 0 _ZN3fmt3v116detail5writeIcNS0_14basic_appenderIcEEyTnNSt6__ndk19enable_ifIXaaaasr11is_integralIT1_EE5valuentsr3std7is_sameIS7_bEE5valuentsr3std7is_sameIS7_T_EE5valueEiE4typeELi0EEET0_SB_S7_
PUBLIC 2059c 0 _ZN3fmt3v116detail5writeIcNS0_14basic_appenderIcEEnTnNSt6__ndk19enable_ifIXaaaasr11is_integralIT1_EE5valuentsr3std7is_sameIS7_bEE5valuentsr3std7is_sameIS7_T_EE5valueEiE4typeELi0EEET0_SB_S7_
PUBLIC 208fc 0 _ZN3fmt3v116detail5writeIcNS0_14basic_appenderIcEEoTnNSt6__ndk19enable_ifIXaaaasr11is_integralIT1_EE5valuentsr3std7is_sameIS7_bEE5valuentsr3std7is_sameIS7_T_EE5valueEiE4typeELi0EEET0_SB_S7_
PUBLIC 20c10 0 _ZN3fmt3v116detail5writeIcNS0_14basic_appenderIcEEbTnNSt6__ndk19enable_ifIXsr3std7is_sameIT1_bEE5valueEiE4typeELi0EEET0_SA_S7_RKNS0_12format_specsENS1_10locale_refE
PUBLIC 20ec4 0 fmt::v11::detail::write_int_noinline<char, fmt::v11::basic_appender<char>, unsigned int>(fmt::v11::basic_appender<char>, fmt::v11::detail::write_int_arg<unsigned int>, fmt::v11::format_specs const&, fmt::v11::detail::locale_ref)
PUBLIC 21ca4 0 fmt::v11::detail::write_padded<char, (fmt::v11::align::type)1, fmt::v11::basic_appender<char>, fmt::v11::detail::write_char<char, fmt::v11::basic_appender<char> >(fmt::v11::basic_appender<char>, char, fmt::v11::format_specs const&)::{lambda(fmt::v11::basic_appender<char>&)#1}>(fmt::v11::basic_appender<char>, fmt::v11::format_specs const&, unsigned long, unsigned long, fmt::v11::detail::write_char<char, fmt::v11::basic_appender<char> >(fmt::v11::basic_appender<char>, char, fmt::v11::format_specs const&)::{lambda(fmt::v11::basic_appender<char>&)#1})
PUBLIC 21f08 0 fmt::v11::detail::write_padded<char, (fmt::v11::align::type)1, fmt::v11::basic_appender<char>, fmt::v11::detail::write_nonfinite<char, fmt::v11::basic_appender<char> >(fmt::v11::basic_appender<char>, bool, fmt::v11::format_specs, fmt::v11::sign::type)::{lambda(fmt::v11::basic_appender<char>&)#1}>(fmt::v11::basic_appender<char>, fmt::v11::format_specs const&, unsigned long, unsigned long, fmt::v11::detail::write_nonfinite<char, fmt::v11::basic_appender<char> >(fmt::v11::basic_appender<char>, bool, fmt::v11::format_specs, fmt::v11::sign::type)::{lambda(fmt::v11::basic_appender<char>&)#1})
PUBLIC 22160 0 fmt::v11::detail::do_write_float<char, fmt::v11::basic_appender<char>, fmt::v11::detail::dragonbox::decimal_fp<float>, fmt::v11::detail::digit_grouping<char> >(fmt::v11::basic_appender<char>, fmt::v11::detail::dragonbox::decimal_fp<float> const&, fmt::v11::format_specs const&, fmt::v11::detail::float_specs, fmt::v11::detail::locale_ref)
PUBLIC 22de4 0 fmt::v11::detail::do_write_float<char, fmt::v11::basic_appender<char>, fmt::v11::detail::dragonbox::decimal_fp<float>, fmt::v11::detail::digit_grouping<char> >(fmt::v11::basic_appender<char>, fmt::v11::detail::dragonbox::decimal_fp<float> const&, fmt::v11::format_specs const&, fmt::v11::detail::float_specs, fmt::v11::detail::locale_ref)::{lambda(fmt::v11::basic_appender<char>(fmt::v11::basic_appender<char>))#1}::operator() const
PUBLIC 22f38 0 fmt::v11::detail::digit_grouping<char>::digit_grouping(fmt::v11::detail::locale_ref, bool)
PUBLIC 231a4 0 fmt::v11::detail::digit_grouping<char>::~digit_grouping()
PUBLIC 231e8 0 fmt::v11::detail::write_exponent<char, fmt::v11::basic_appender<char> >(int, fmt::v11::basic_appender<char>)
PUBLIC 233b8 0 _ZN3fmt3v116detail17write_significandIcjTnNSt6__ndk19enable_ifIXsr3std11is_integralIT0_EE5valueEiE4typeELi0EEEPT_S9_S5_iiS8_
PUBLIC 23534 0 fmt::v11::detail::digit_grouping<char>::apply<fmt::v11::basic_appender<char>, char>(fmt::v11::basic_appender<char>, fmt::v11::basic_string_view<char>) const
PUBLIC 238ec 0 fmt::v11::basic_memory_buffer<int, (unsigned long)500, std::__ndk1::allocator<int> >::grow(fmt::v11::detail::buffer<int>&, unsigned long)
PUBLIC 2398c 0 fmt::v11::detail::do_write_float<char, fmt::v11::basic_appender<char>, fmt::v11::detail::dragonbox::decimal_fp<double>, fmt::v11::detail::digit_grouping<char> >(fmt::v11::basic_appender<char>, fmt::v11::detail::dragonbox::decimal_fp<double> const&, fmt::v11::format_specs const&, fmt::v11::detail::float_specs, fmt::v11::detail::locale_ref)
PUBLIC 2464c 0 fmt::v11::detail::do_write_float<char, fmt::v11::basic_appender<char>, fmt::v11::detail::dragonbox::decimal_fp<double>, fmt::v11::detail::digit_grouping<char> >(fmt::v11::basic_appender<char>, fmt::v11::detail::dragonbox::decimal_fp<double> const&, fmt::v11::format_specs const&, fmt::v11::detail::float_specs, fmt::v11::detail::locale_ref)::{lambda(fmt::v11::basic_appender<char>(fmt::v11::basic_appender<char>))#1}::operator() const
PUBLIC 247a4 0 _ZN3fmt3v116detail17write_significandIcmTnNSt6__ndk19enable_ifIXsr3std11is_integralIT0_EE5valueEiE4typeELi0EEEPT_S9_S5_iiS8_
PUBLIC 24934 0 fmt::v11::detail::write_float<char, fmt::v11::basic_appender<char>, long double>(fmt::v11::basic_appender<char>, long double, fmt::v11::format_specs, fmt::v11::detail::locale_ref)
PUBLIC 2542c 0 fmt::v11::detail::write_padded<char, (fmt::v11::align::type)2, fmt::v11::basic_appender<char>, fmt::v11::detail::write_bytes<char, (fmt::v11::align::type)2, fmt::v11::basic_appender<char> >(fmt::v11::basic_appender<char>, fmt::v11::basic_string_view<char>, fmt::v11::format_specs const&)::{lambda(fmt::v11::basic_appender<char>&)#1}>(fmt::v11::basic_appender<char>, fmt::v11::format_specs const&, unsigned long, unsigned long, fmt::v11::detail::write_bytes<char, (fmt::v11::align::type)2, fmt::v11::basic_appender<char> >(fmt::v11::basic_appender<char>, fmt::v11::basic_string_view<char>, fmt::v11::format_specs const&)::{lambda(fmt::v11::basic_appender<char>&)#1})
PUBLIC 25620 0 fmt::v11::detail::format_dragon(fmt::v11::detail::basic_fp<unsigned __int128>, unsigned int, int, fmt::v11::detail::buffer<char>&, int&)
PUBLIC 26a50 0 fmt::v11::detail::bigint::operator<<=(int)
PUBLIC 26b74 0 fmt::v11::detail::bigint::assign_pow10(int)
PUBLIC 272d0 0 fmt::v11::detail::bigint::divmod_assign(fmt::v11::detail::bigint const&)
PUBLIC 275f0 0 fmt::v11::basic_memory_buffer<unsigned int, (unsigned long)32, std::__ndk1::allocator<unsigned int> >::grow(fmt::v11::detail::buffer<unsigned int>&, unsigned long)
PUBLIC 27690 0 fmt::v11::detail::do_write_float<char, fmt::v11::basic_appender<char>, fmt::v11::detail::big_decimal_fp, fmt::v11::detail::digit_grouping<char> >(fmt::v11::basic_appender<char>, fmt::v11::detail::big_decimal_fp const&, fmt::v11::format_specs const&, fmt::v11::detail::float_specs, fmt::v11::detail::locale_ref)
PUBLIC 28570 0 fmt::v11::detail::do_write_float<char, fmt::v11::basic_appender<char>, fmt::v11::detail::big_decimal_fp, fmt::v11::detail::digit_grouping<char> >(fmt::v11::basic_appender<char>, fmt::v11::detail::big_decimal_fp const&, fmt::v11::format_specs const&, fmt::v11::detail::float_specs, fmt::v11::detail::locale_ref)::{lambda(fmt::v11::basic_appender<char>(fmt::v11::basic_appender<char>))#1}::operator() const
PUBLIC 286d0 0 fmt::v11::detail::write_padded<char, (fmt::v11::align::type)2, fmt::v11::basic_appender<char>, fmt::v11::detail::write_ptr<char, fmt::v11::basic_appender<char>, unsigned long>(fmt::v11::basic_appender<char>, unsigned long, fmt::v11::format_specs const*)::{lambda(fmt::v11::basic_appender<char>&)#1}>(fmt::v11::basic_appender<char>, fmt::v11::format_specs const&, unsigned long, unsigned long, fmt::v11::detail::write_ptr<char, fmt::v11::basic_appender<char>, unsigned long>(fmt::v11::basic_appender<char>, unsigned long, fmt::v11::format_specs const*)::{lambda(fmt::v11::basic_appender<char>&)#1})
PUBLIC 288e4 0 fmt::v11::detail::parse_replacement_field<char, fmt::v11::detail::vformat_to<char>(fmt::v11::detail::buffer<char>&, fmt::v11::basic_string_view<char>, fmt::v11::detail::vformat_args<char>::type, fmt::v11::detail::locale_ref)::format_handler&>(char const*, char const*, fmt::v11::detail::vformat_to<char>(fmt::v11::detail::buffer<char>&, fmt::v11::basic_string_view<char>, fmt::v11::detail::vformat_args<char>::type, fmt::v11::detail::locale_ref)::format_handler&)
PUBLIC 29d98 0 fmt::v11::detail::write_int_noinline<char, fmt::v11::basic_appender<char>, unsigned long>(fmt::v11::basic_appender<char>, fmt::v11::detail::write_int_arg<unsigned long>, fmt::v11::format_specs const&, fmt::v11::detail::locale_ref)
PUBLIC 2abf8 0 fmt::v11::detail::write_int_noinline<char, fmt::v11::basic_appender<char>, unsigned __int128>(fmt::v11::basic_appender<char>, fmt::v11::detail::write_int_arg<unsigned __int128>, fmt::v11::format_specs const&, fmt::v11::detail::locale_ref)
PUBLIC 2bc88 0 _ZN3fmt3v116detail15format_hexfloatIdTnNSt6__ndk19enable_ifIXntsr16is_double_doubleIT_EE5valueEiE4typeELi0EEEvS5_NS0_12format_specsERNS1_6bufferIcEE
PUBLIC 2c1a8 0 fmt::v11::detail::format_float<double>(double, int, fmt::v11::detail::float_specs, fmt::v11::detail::buffer<char>&)
PUBLIC 2cb48 0 fmt::v11::detail::write_int<fmt::v11::basic_appender<char>, unsigned long, char>(fmt::v11::basic_appender<char>, unsigned long, unsigned int, fmt::v11::format_specs const&, fmt::v11::detail::digit_grouping<char> const&)
PUBLIC 2d0c4 0 fmt::v11::detail::write_int<fmt::v11::basic_appender<char>, unsigned __int128, char>(fmt::v11::basic_appender<char>, unsigned __int128, unsigned int, fmt::v11::format_specs const&, fmt::v11::detail::digit_grouping<char> const&)
PUBLIC 2d740 0 __CortexA53843419_11000
PUBLIC 2d750 0 <.plt ELF section in raydeeux.109780665.android64.so>
STACK CFI INIT 10480 10 .cfa: sp 0 +
STACK CFI INIT 10490 8 .cfa: sp 0 +
STACK CFI INIT 10498 8 .cfa: sp 0 +
STACK CFI INIT 104a0 14 .cfa: sp 0 +
STACK CFI INIT 104b4 1c .cfa: sp 0 +
STACK CFI INIT 104d0 10 .cfa: sp 0 +
STACK CFI INIT 10f78 8 .cfa: sp 0 +
STACK CFI INIT 10f80 24 .cfa: sp 0 +
STACK CFI 10f84 .cfa: sp 32 +
STACK CFI 10f8c .cfa: x29 32 + x19: .cfa -16 + ^ .ra: .cfa -24 + ^ x29: .cfa -32 + ^
STACK CFI 10f98 .cfa: sp 32 +
STACK CFI 10fa0 .cfa: sp 0 +
STACK CFI INIT 10fb0 30 .cfa: sp 0 +
STACK CFI INIT 10fe0 98 .cfa: sp 0 +
STACK CFI INIT 11078 59c .cfa: sp 0 +
STACK CFI INIT 11614 8c .cfa: sp 0 +
STACK CFI INIT 116a0 30 .cfa: sp 0 +
STACK CFI INIT 11b50 1c .cfa: sp 0 +
STACK CFI INIT 11eec 50 .cfa: sp 0 +
STACK CFI 11ef0 .cfa: sp 32 +
STACK CFI 11ef8 .cfa: x29 32 + x19: .cfa -16 + ^ .ra: .cfa -24 + ^ x29: .cfa -32 + ^
STACK CFI 11f10 .cfa: sp 32 +
STACK CFI 11f18 .cfa: sp 0 +
STACK CFI 11f1c .cfa: x29 32 +
STACK CFI 11f30 .cfa: sp 32 +
STACK CFI 11f38 .cfa: sp 0 +
STACK CFI INIT 11fb0 7c .cfa: sp 0 +
STACK CFI 11fb4 .cfa: sp 48 +
STACK CFI 11fc0 .cfa: x29 48 + x19: .cfa -8 + ^ x20: .cfa -16 + ^ x21: .cfa -32 + ^ .ra: .cfa -40 + ^ x29: .cfa -48 + ^
STACK CFI 1200c .cfa: sp 48 +
STACK CFI 12018 .cfa: sp 0 +
STACK CFI 1201c .cfa: sp 48 +
STACK CFI 12028 .cfa: sp 0 +
STACK CFI INIT 1202c 4 .cfa: sp 0 +
STACK CFI INIT 12030 10 .cfa: sp 0 +
STACK CFI 12034 .cfa: sp 16 +
STACK CFI 12038 .cfa: x29 16 + .ra: .cfa -8 + ^ x29: .cfa -16 + ^
STACK CFI INIT 12194 34 .cfa: sp 0 +
STACK CFI 12198 .cfa: sp 16 +
STACK CFI 1219c .cfa: x29 16 + .ra: .cfa -8 + ^ x29: .cfa -16 + ^
STACK CFI INIT 122f4 80 .cfa: sp 0 +
STACK CFI 122f8 .cfa: sp 48 +
STACK CFI 12304 .cfa: x29 48 + x19: .cfa -8 + ^ x20: .cfa -16 + ^ x21: .cfa -32 + ^ .ra: .cfa -40 + ^ x29: .cfa -48 + ^
STACK CFI 12364 .cfa: sp 48 +
STACK CFI 12370 .cfa: sp 0 +
STACK CFI INIT 12374 24 .cfa: sp 0 +
STACK CFI 12378 .cfa: sp 32 +
STACK CFI 12380 .cfa: x29 32 + x19: .cfa -16 + ^ .ra: .cfa -24 + ^ x29: .cfa -32 + ^
STACK CFI 1238c .cfa: sp 32 +
STACK CFI 12394 .cfa: sp 0 +
STACK CFI INIT 12718 14 .cfa: sp 0 +
STACK CFI 1271c .cfa: sp 16 +
STACK CFI 12720 .cfa: x29 16 + .ra: .cfa -8 + ^ x29: .cfa -16 + ^
STACK CFI INIT 1277c 30 .cfa: sp 0 +
STACK CFI 12780 .cfa: sp 32 +
STACK CFI 12788 .cfa: x29 32 + x19: .cfa -16 + ^ .ra: .cfa -24 + ^ x29: .cfa -32 + ^
STACK CFI 127a0 .cfa: sp 32 +
STACK CFI 127a8 .cfa: sp 0 +
STACK CFI INIT 127ac 34 .cfa: sp 0 +
STACK CFI 127b0 .cfa: sp 32 +
STACK CFI 127b8 .cfa: x29 32 + x19: .cfa -16 + ^ .ra: .cfa -24 + ^ x29: .cfa -32 + ^
STACK CFI INIT 12958 148 .cfa: sp 0 +
STACK CFI 1295c .cfa: sp 48 +
STACK CFI 12968 .cfa: x29 48 + x19: .cfa -8 + ^ x20: .cfa -16 + ^ x21: .cfa -32 + ^ .ra: .cfa -40 + ^ x29: .cfa -48 + ^
STACK CFI 12a90 .cfa: sp 48 +
STACK CFI 12a9c .cfa: sp 0 +
STACK CFI INIT 12cc8 80 .cfa: sp 0 +
STACK CFI 12ccc .cfa: sp 48 +
STACK CFI 12cd8 .cfa: x29 48 + x19: .cfa -8 + ^ x20: .cfa -16 + ^ x21: .cfa -24 + ^ x22: .cfa -32 + ^ .ra: .cfa -40 + ^ x29: .cfa -48 + ^
STACK CFI 12cf0 .cfa: sp 48 +
STACK CFI 12cfc .cfa: sp 0 +
STACK CFI 12d00 .cfa: x29 48 +
STACK CFI 12d30 .cfa: sp 48 +
STACK CFI 12d3c .cfa: sp 0 +
STACK CFI 12d40 .cfa: x29 48 +
STACK CFI INIT 12d48 68 .cfa: sp 0 +
STACK CFI 12d4c .cfa: sp 32 +
STACK CFI 12d54 .cfa: x29 32 + x19: .cfa -8 + ^ x20: .cfa -16 + ^ .ra: .cfa -24 + ^ x29: .cfa -32 + ^
STACK CFI 12d6c .cfa: sp 32 +
STACK CFI 12d74 .cfa: sp 0 +
STACK CFI 12d78 .cfa: x29 32 +
STACK CFI 12da4 .cfa: sp 32 +
STACK CFI 12dac .cfa: sp 0 +
STACK CFI INIT 12db0 14 .cfa: sp 0 +
STACK CFI 12db4 .cfa: sp 16 +
STACK CFI 12db8 .cfa: x29 16 + .ra: .cfa -8 + ^ x29: .cfa -16 + ^
STACK CFI INIT 12dc4 4 .cfa: sp 0 +
STACK CFI INIT 12dc8 14 .cfa: sp 0 +
STACK CFI INIT 12ddc 120 .cfa: sp 0 +
STACK CFI 12de0 .cfa: sp 64 +
STACK CFI 12df0 .cfa: x29 64 + x19: .cfa -8 + ^ x20: .cfa -16 + ^ x21: .cfa -24 + ^ x22: .cfa -32 + ^ x23: .cfa -40 + ^ x24: .cfa -48 + ^ .ra: .cfa -56 + ^ x29: .cfa -64 + ^
STACK CFI 12ee8 .cfa: sp 64 +
STACK CFI 12ef8 .cfa: sp 0 +
STACK CFI INIT 12efc d4 .cfa: sp 0 +
STACK CFI 12f00 .cfa: sp 48 +
STACK CFI 12f0c .cfa: x29 48 + x19: .cfa -8 + ^ x20: .cfa -16 + ^ x21: .cfa -32 + ^ .ra: .cfa -40 + ^ x29: .cfa -48 + ^
STACK CFI 12f9c .cfa: sp 48 +
STACK CFI 12fa8 .cfa: sp 0 +
STACK CFI 12fac .cfa: x29 48 +
STACK CFI INIT 12fd0 3c8 .cfa: sp 0 +
STACK CFI INIT 13398 8c .cfa: sp 0 +
STACK CFI 133a0 .cfa: sp 32 +
STACK CFI 133a8 .cfa: x29 32 + x19: .cfa -8 + ^ x20: .cfa -16 + ^ .ra: .cfa -24 + ^ x29: .cfa -32 + ^
STACK CFI 133f0 .cfa: sp 32 +
STACK CFI 133f8 .cfa: sp 0 +
STACK CFI 13400 .cfa: x29 32 +
STACK CFI INIT 13424 ec .cfa: sp 0 +
STACK CFI 13428 .cfa: sp 64 +
STACK CFI 13434 .cfa: x29 32 + x19: .cfa -8 + ^ x20: .cfa -16 + ^ .ra: .cfa -24 + ^ x29: .cfa -32 + ^
STACK CFI 134ac .cfa: sp 64 +
STACK CFI 134b8 .cfa: sp 0 +
STACK CFI 134bc .cfa: x29 32 +
STACK CFI 134cc .cfa: sp 64 +
STACK CFI 134d8 .cfa: sp 0 +
STACK CFI 134dc .cfa: x29 32 +
STACK CFI 134fc .cfa: sp 64 +
STACK CFI 13508 .cfa: sp 0 +
STACK CFI 1350c .cfa: x29 32 +
STACK CFI INIT 135e8 50 .cfa: sp 0 +
STACK CFI 135ec .cfa: sp 32 +
STACK CFI 135f4 .cfa: x29 32 + x19: .cfa -16 + ^ .ra: .cfa -24 + ^ x29: .cfa -32 + ^
STACK CFI 1360c .cfa: sp 32 +
STACK CFI 13614 .cfa: sp 0 +
STACK CFI 13618 .cfa: x29 32 +
STACK CFI 1362c .cfa: sp 32 +
STACK CFI 13634 .cfa: sp 0 +
STACK CFI INIT 13638 64 .cfa: sp 0 +
STACK CFI 1363c .cfa: sp 32 +
STACK CFI 13644 .cfa: x29 32 + x19: .cfa -16 + ^ .ra: .cfa -24 + ^ x29: .cfa -32 + ^
STACK CFI 13670 .cfa: sp 32 +
STACK CFI 13678 .cfa: sp 0 +
STACK CFI 1367c .cfa: x29 32 +
STACK CFI 13690 .cfa: sp 32 +
STACK CFI 13698 .cfa: sp 0 +
STACK CFI INIT 1369c 178 .cfa: sp 0 +
STACK CFI 136a0 .cfa: sp 80 +
STACK CFI 136b4 .cfa: x29 80 + x19: .cfa -8 + ^ x20: .cfa -16 + ^ x21: .cfa -24 + ^ x22: .cfa -32 + ^ x23: .cfa -40 + ^ x24: .cfa -48 + ^ x25: .cfa -56 + ^ x26: .cfa -64 + ^ .ra: .cfa -72 + ^ x29: .cfa -80 + ^
STACK CFI 137fc .cfa: sp 80 +
STACK CFI 13810 .cfa: sp 0 +
STACK CFI INIT 13814 1b0 .cfa: sp 0 +
STACK CFI INIT 13e44 1c .cfa: sp 0 +
STACK CFI INIT 14168 4 .cfa: sp 0 +
STACK CFI INIT 1416c d4 .cfa: sp 0 +
STACK CFI 14170 .cfa: sp 80 +
STACK CFI 14180 .cfa: x29 48 + x19: .cfa -8 + ^ x20: .cfa -16 + ^ x21: .cfa -32 + ^ .ra: .cfa -40 + ^ x29: .cfa -48 + ^
STACK CFI 14228 .cfa: sp 80 +
STACK CFI 14238 .cfa: sp 0 +
STACK CFI 1423c .cfa: x29 48 +
STACK CFI INIT 142e8 9c .cfa: sp 0 +
STACK CFI INIT 149d8 4 .cfa: sp 0 +
STACK CFI INIT 149dc 14 .cfa: sp 0 +
STACK CFI 149e0 .cfa: sp 16 +
STACK CFI 149e4 .cfa: x29 16 + .ra: .cfa -8 + ^ x29: .cfa -16 + ^
STACK CFI INIT 149f0 14 .cfa: sp 0 +
STACK CFI 149f4 .cfa: sp 16 +
STACK CFI 149f8 .cfa: x29 16 + .ra: .cfa -8 + ^ x29: .cfa -16 + ^
STACK CFI INIT 14a04 c .cfa: sp 0 +
STACK CFI 14a08 .cfa: sp 16 +
STACK CFI 14a0c .cfa: x29 16 + .ra: .cfa -8 + ^ x29: .cfa -16 + ^
STACK CFI INIT 14a60 30 .cfa: sp 0 +
STACK CFI 14a64 .cfa: sp 32 +
STACK CFI 14a6c .cfa: x29 32 + x19: .cfa -16 + ^ .ra: .cfa -24 + ^ x29: .cfa -32 + ^
STACK CFI 14a84 .cfa: sp 32 +
STACK CFI 14a8c .cfa: sp 0 +
STACK CFI INIT 14a90 c .cfa: sp 0 +
STACK CFI 14a94 .cfa: sp 16 +
STACK CFI 14a98 .cfa: x29 16 + .ra: .cfa -8 + ^ x29: .cfa -16 + ^
STACK CFI INIT 14a9c 4 .cfa: sp 0 +
STACK CFI INIT 14aa0 4 .cfa: sp 0 +
STACK CFI INIT 14aa4 38 .cfa: sp 0 +
STACK CFI 14aa8 .cfa: sp 32 +
STACK CFI 14ab0 .cfa: x29 32 + x19: .cfa -16 + ^ .ra: .cfa -24 + ^ x29: .cfa -32 + ^
STACK CFI 14ad0 .cfa: sp 32 +
STACK CFI 14ad8 .cfa: sp 0 +
STACK CFI INIT 14adc 18 .cfa: sp 0 +
STACK CFI INIT 14af4 4 .cfa: sp 0 +
STACK CFI INIT 14af8 4 .cfa: sp 0 +
STACK CFI INIT 14afc 10 .cfa: sp 0 +
STACK CFI INIT 14b0c 1c .cfa: sp 0 +
STACK CFI INIT 14b28 c .cfa: sp 0 +
STACK CFI INIT 158a4 d8 .cfa: sp 0 +
STACK CFI 158a8 .cfa: sp 96 +
STACK CFI 158b4 .cfa: x29 32 + x19: .cfa -8 + ^ x20: .cfa -16 + ^ .ra: .cfa -24 + ^ x29: .cfa -32 + ^
STACK CFI 15968 .cfa: sp 96 +
STACK CFI 15974 .cfa: sp 0 +
STACK CFI 15978 .cfa: x29 32 +
STACK CFI INIT 15b4c 80 .cfa: sp 0 +
STACK CFI 15b50 .cfa: sp 48 +
STACK CFI 15b5c .cfa: x29 48 + x19: .cfa -8 + ^ x20: .cfa -16 + ^ x21: .cfa -24 + ^ x22: .cfa -32 + ^ .ra: .cfa -40 + ^ x29: .cfa -48 + ^
STACK CFI 15ba8 .cfa: sp 48 +
STACK CFI 15bb4 .cfa: sp 0 +
STACK CFI 15bb8 .cfa: x29 48 +
STACK CFI 15bbc .cfa: sp 48 +
STACK CFI 15bc8 .cfa: sp 0 +
STACK CFI INIT 15bcc 60 .cfa: sp 0 +
STACK CFI INIT 15c2c ac .cfa: sp 0 +
STACK CFI 15c30 .cfa: sp 64 +
STACK CFI 15c40 .cfa: x29 64 + x19: .cfa -8 + ^ x20: .cfa -16 + ^ x21: .cfa -24 + ^ x22: .cfa -32 + ^ x23: .cfa -48 + ^ .ra: .cfa -56 + ^ x29: .cfa -64 + ^
STACK CFI 15cbc .cfa: sp 64 +
STACK CFI 15ccc .cfa: sp 0 +
STACK CFI 15cd0 .cfa: x29 64 +
STACK CFI INIT 15cd8 110 .cfa: sp 0 +
STACK CFI 15cdc .cfa: sp 64 +
STACK CFI 15cec .cfa: x29 64 + x19: .cfa -8 + ^ x20: .cfa -16 + ^ x21: .cfa -24 + ^ x22: .cfa -32 + ^ x23: .cfa -40 + ^ x24: .cfa -48 + ^ .ra: .cfa -56 + ^ x29: .cfa -64 + ^
STACK CFI 15dcc .cfa: sp 64 +
STACK CFI 15ddc .cfa: sp 0 +
STACK CFI 15de0 .cfa: x29 64 +
STACK CFI INIT 15f1c 104 .cfa: sp 0 +
STACK CFI 15f20 .cfa: sp 64 +
STACK CFI 15f30 .cfa: x29 64 + x19: .cfa -8 + ^ x20: .cfa -16 + ^ x21: .cfa -24 + ^ x22: .cfa -32 + ^ x23: .cfa -48 + ^ .ra: .cfa -56 + ^ x29: .cfa -64 + ^
STACK CFI 15f8c .cfa: sp 64 +
STACK CFI 15f9c .cfa: sp 0 +
STACK CFI 15fa0 .cfa: x29 64 +
STACK CFI 15fbc .cfa: sp 64 +
STACK CFI 15fcc .cfa: sp 0 +
STACK CFI 15fd0 .cfa: x29 64 +
STACK CFI 1600c .cfa: sp 64 +
STACK CFI 1601c .cfa: sp 0 +
STACK CFI INIT 16268 50 .cfa: sp 0 +
STACK CFI 1626c .cfa: sp 32 +
STACK CFI 16274 .cfa: x29 32 + x19: .cfa -16 + ^ .ra: .cfa -24 + ^ x29: .cfa -32 + ^
STACK CFI 1628c .cfa: sp 32 +
STACK CFI 16294 .cfa: sp 0 +
STACK CFI 16298 .cfa: x29 32 +
STACK CFI 162ac .cfa: sp 32 +
STACK CFI 162b4 .cfa: sp 0 +
STACK CFI INIT 1648c 4b4 .cfa: sp 0 +
STACK CFI 16490 .cfa: sp 96 +
STACK CFI 164a8 .cfa: x29 96 + x19: .cfa -8 + ^ x20: .cfa -16 + ^ x21: .cfa -24 + ^ x22: .cfa -32 + ^ x23: .cfa -40 + ^ x24: .cfa -48 + ^ x25: .cfa -56 + ^ x26: .cfa -64 + ^ x27: .cfa -72 + ^ x28: .cfa -80 + ^ .ra: .cfa -88 + ^ x29: .cfa -96 + ^
STACK CFI 168f0 .cfa: sp 96 +
STACK CFI 16908 .cfa: sp 0 +
STACK CFI 1690c .cfa: x29 96 +
STACK CFI INIT 16940 1a4 .cfa: sp 0 +
STACK CFI 16944 .cfa: sp 64 +
STACK CFI 16950 .cfa: x29 32 + x19: .cfa -8 + ^ x20: .cfa -16 + ^ .ra: .cfa -24 + ^ x29: .cfa -32 + ^
STACK CFI 16a7c .cfa: sp 64 +
STACK CFI 16a88 .cfa: sp 0 +
STACK CFI 16a8c .cfa: x29 32 +
STACK CFI INIT 16ae4 194 .cfa: sp 0 +
STACK CFI 16ae8 .cfa: sp 16 +
STACK CFI 16aec .cfa: x29 16 + .ra: .cfa -8 + ^ x29: .cfa -16 + ^
STACK CFI 16b84 .cfa: sp 16 +
STACK CFI 16b88 .cfa: sp 0 +
STACK CFI 16b8c .cfa: x29 16 +
STACK CFI 16c58 .cfa: sp 16 +
STACK CFI 16c5c .cfa: sp 0 +
STACK CFI 16c60 .cfa: x29 16 +
STACK CFI INIT 16c78 114 .cfa: sp 0 +
STACK CFI 16c7c .cfa: sp 128 +
STACK CFI 16c8c .cfa: x29 48 + x19: .cfa -8 + ^ x20: .cfa -16 + ^ x21: .cfa -32 + ^ .ra: .cfa -40 + ^ x29: .cfa -48 + ^
STACK CFI 16d58 .cfa: sp 128 +
STACK CFI 16d68 .cfa: sp 0 +
STACK CFI 16d6c .cfa: x29 48 +
STACK CFI INIT 16d8c 114 .cfa: sp 0 +
STACK CFI 16d90 .cfa: sp 128 +
STACK CFI 16da0 .cfa: x29 48 + x19: .cfa -8 + ^ x20: .cfa -16 + ^ x21: .cfa -32 + ^ .ra: .cfa -40 + ^ x29: .cfa -48 + ^
STACK CFI 16e6c .cfa: sp 128 +
STACK CFI 16e7c .cfa: sp 0 +
STACK CFI 16e80 .cfa: x29 48 +
STACK CFI INIT 16ea0 27c .cfa: sp 0 +
STACK CFI 16ea4 .cfa: sp 176 +
STACK CFI 16ec0 .cfa: x29 96 + x19: .cfa -8 + ^ x20: .cfa -16 + ^ x21: .cfa -24 + ^ x22: .cfa -32 + ^ x23: .cfa -40 + ^ x24: .cfa -48 + ^ x25: .cfa -56 + ^ x26: .cfa -64 + ^ x27: .cfa -72 + ^ x28: .cfa -80 + ^ .ra: .cfa -88 + ^ x29: .cfa -96 + ^
STACK CFI 170f8 .cfa: sp 176 +
STACK CFI 17114 .cfa: sp 0 +
STACK CFI 17118 .cfa: x29 96 +
STACK CFI INIT 1711c 520 .cfa: sp 0 +
STACK CFI 17120 .cfa: sp 176 +
STACK CFI 1713c .cfa: x29 96 + x19: .cfa -8 + ^ x20: .cfa -16 + ^ x21: .cfa -24 + ^ x22: .cfa -32 + ^ x23: .cfa -40 + ^ x24: .cfa -48 + ^ x25: .cfa -56 + ^ x26: .cfa -64 + ^ x27: .cfa -72 + ^ x28: .cfa -80 + ^ .ra: .cfa -88 + ^ x29: .cfa -96 + ^
STACK CFI 17618 .cfa: sp 176 +
STACK CFI 17634 .cfa: sp 0 +
STACK CFI 17638 .cfa: x29 96 +
STACK CFI INIT 1763c 20c .cfa: sp 0 +
STACK CFI 17640 .cfa: sp 80 +
STACK CFI 17654 .cfa: x29 80 + x19: .cfa -8 + ^ x20: .cfa -16 + ^ x21: .cfa -24 + ^ x22: .cfa -32 + ^ x23: .cfa -40 + ^ x24: .cfa -48 + ^ x25: .cfa -64 + ^ .ra: .cfa -72 + ^ x29: .cfa -80 + ^
STACK CFI 176e4 .cfa: sp 80 +
STACK CFI 176f8 .cfa: sp 0 +
STACK CFI 176fc .cfa: x29 80 +
STACK CFI 17708 .cfa: sp 80 +
STACK CFI 1771c .cfa: sp 0 +
STACK CFI 17720 .cfa: x29 80 +
STACK CFI INIT 17848 428 .cfa: sp 0 +
STACK CFI 1784c .cfa: sp 128 +
STACK CFI 17868 .cfa: x29 96 + x19: .cfa -8 + ^ x20: .cfa -16 + ^ x21: .cfa -24 + ^ x22: .cfa -32 + ^ x23: .cfa -40 + ^ x24: .cfa -48 + ^ x25: .cfa -56 + ^ x26: .cfa -64 + ^ x27: .cfa -72 + ^ x28: .cfa -80 + ^ .ra: .cfa -88 + ^ x29: .cfa -96 + ^
STACK CFI 17c4c .cfa: sp 128 +
STACK CFI 17c68 .cfa: sp 0 +
STACK CFI 17c6c .cfa: x29 96 +
STACK CFI INIT 17c70 194 .cfa: sp 0 +
STACK CFI 17c74 .cfa: sp 32 +
STACK CFI 17c7c .cfa: x29 16 + .ra: .cfa -8 + ^ x29: .cfa -16 + ^
STACK CFI 17cc0 .cfa: sp 32 +
STACK CFI 17cc8 .cfa: sp 0 +
STACK CFI 17ccc .cfa: x29 16 +
STACK CFI INIT 17e04 1b8 .cfa: sp 0 +
STACK CFI INIT 17fbc 1d0 .cfa: sp 0 +
STACK CFI 17fc0 .cfa: sp 80 +
STACK CFI 17fd4 .cfa: x29 80 + x19: .cfa -8 + ^ x20: .cfa -16 + ^ x21: .cfa -24 + ^ x22: .cfa -32 + ^ x23: .cfa -40 + ^ x24: .cfa -48 + ^ x25: .cfa -64 + ^ .ra: .cfa -72 + ^ x29: .cfa -80 + ^
STACK CFI 18174 .cfa: sp 80 +
STACK CFI 18188 .cfa: sp 0 +
STACK CFI INIT 1818c 67c .cfa: sp 0 +
STACK CFI 18190 .cfa: sp 176 +
STACK CFI 181ac .cfa: x29 96 + x19: .cfa -8 + ^ x20: .cfa -16 + ^ x21: .cfa -24 + ^ x22: .cfa -32 + ^ x23: .cfa -40 + ^ x24: .cfa -48 + ^ x25: .cfa -56 + ^ x26: .cfa -64 + ^ x27: .cfa -72 + ^ x28: .cfa -80 + ^ .ra: .cfa -88 + ^ x29: .cfa -96 + ^
STACK CFI 187e4 .cfa: sp 176 +
STACK CFI 18800 .cfa: sp 0 +
STACK CFI 18804 .cfa: x29 96 +
STACK CFI INIT 18808 1e4 .cfa: sp 0 +
STACK CFI 1880c .cfa: sp 32 +
STACK CFI 18814 .cfa: x29 32 + x19: .cfa -8 + ^ x20: .cfa -16 + ^ .ra: .cfa -24 + ^ x29: .cfa -32 + ^
STACK CFI 18904 .cfa: sp 32 +
STACK CFI 1890c .cfa: sp 0 +
STACK CFI 18910 .cfa: x29 32 +
STACK CFI 18984 .cfa: sp 32 +
STACK CFI 1898c .cfa: sp 0 +
STACK CFI 18990 .cfa: x29 32 +
STACK CFI 189a0 .cfa: sp 32 +
STACK CFI 189a8 .cfa: sp 0 +
STACK CFI 189ac .cfa: x29 32 +
STACK CFI 189bc .cfa: sp 32 +
STACK CFI 189c4 .cfa: sp 0 +
STACK CFI 189c8 .cfa: x29 32 +
STACK CFI INIT 189ec 178 .cfa: sp 0 +
STACK CFI 189f0 .cfa: sp 80 +
STACK CFI 18a04 .cfa: x29 64 + x19: .cfa -8 + ^ x20: .cfa -16 + ^ x21: .cfa -24 + ^ x22: .cfa -32 + ^ x23: .cfa -40 + ^ x24: .cfa -48 + ^ .ra: .cfa -56 + ^ x29: .cfa -64 + ^
STACK CFI 18b48 .cfa: sp 80 +
STACK CFI 18b5c .cfa: sp 0 +
STACK CFI 18b60 .cfa: x29 64 +
STACK CFI INIT 18b64 178 .cfa: sp 0 +
STACK CFI 18b68 .cfa: sp 80 +
STACK CFI 18b7c .cfa: x29 64 + x19: .cfa -8 + ^ x20: .cfa -16 + ^ x21: .cfa -24 + ^ x22: .cfa -32 + ^ x23: .cfa -40 + ^ x24: .cfa -48 + ^ .ra: .cfa -56 + ^ x29: .cfa -64 + ^
STACK CFI 18cc0 .cfa: sp 80 +
STACK CFI 18cd4 .cfa: sp 0 +
STACK CFI 18cd8 .cfa: x29 64 +
STACK CFI INIT 18cdc 178 .cfa: sp 0 +
STACK CFI 18ce0 .cfa: sp 80 +
STACK CFI 18cf4 .cfa: x29 64 + x19: .cfa -8 + ^ x20: .cfa -16 + ^ x21: .cfa -24 + ^ x22: .cfa -32 + ^ x23: .cfa -40 + ^ x24: .cfa -48 + ^ .ra: .cfa -56 + ^ x29: .cfa -64 + ^
STACK CFI 18e38 .cfa: sp 80 +
STACK CFI 18e4c .cfa: sp 0 +
STACK CFI 18e50 .cfa: x29 64 +
STACK CFI INIT 18e54 94 .cfa: sp 0 +
STACK CFI 18e58 .cfa: sp 16 +
STACK CFI 18e5c .cfa: x29 16 + .ra: .cfa -8 + ^ x29: .cfa -16 + ^
STACK CFI 18eb0 .cfa: sp 16 +
STACK CFI 18eb4 .cfa: sp 0 +
STACK CFI 18eb8 .cfa: x29 16 +
STACK CFI INIT 18ee8 158 .cfa: sp 0 +
STACK CFI 18eec .cfa: sp 112 +
STACK CFI 18f08 .cfa: x29 96 + x19: .cfa -8 + ^ x20: .cfa -16 + ^ x21: .cfa -24 + ^ x22: .cfa -32 + ^ x23: .cfa -40 + ^ x24: .cfa -48 + ^ x25: .cfa -56 + ^ x26: .cfa -64 + ^ x27: .cfa -72 + ^ x28: .cfa -80 + ^ .ra: .cfa -88 + ^ x29: .cfa -96 + ^
STACK CFI 18ff0 .cfa: sp 112 +
STACK CFI 18ff4 .cfa: x29 96 +
STACK CFI 18ffc .cfa: sp 112 +
STACK CFI 19018 .cfa: sp 0 +
STACK CFI 1901c .cfa: x29 96 +
STACK CFI 1903c .cfa: sp 112 +
STACK CFI INIT 19040 94 .cfa: sp 0 +
STACK CFI 19044 .cfa: sp 16 +
STACK CFI 19048 .cfa: x29 16 + .ra: .cfa -8 + ^ x29: .cfa -16 + ^
STACK CFI 1909c .cfa: sp 16 +
STACK CFI 190a0 .cfa: sp 0 +
STACK CFI 190a4 .cfa: x29 16 +
STACK CFI INIT 19ea0 50 .cfa: sp 0 +
STACK CFI 19ea4 .cfa: sp 32 +
STACK CFI 19eac .cfa: x29 32 + x19: .cfa -16 + ^ .ra: .cfa -24 + ^ x29: .cfa -32 + ^
STACK CFI 19ec4 .cfa: sp 32 +
STACK CFI 19ecc .cfa: sp 0 +
STACK CFI 19ed0 .cfa: x29 32 +
STACK CFI 19ee4 .cfa: sp 32 +
STACK CFI 19eec .cfa: sp 0 +
STACK CFI INIT 19ef0 4 .cfa: sp 0 +
STACK CFI INIT 19ef4 38 .cfa: sp 0 +
STACK CFI 19ef8 .cfa: sp 32 +
STACK CFI 19f00 .cfa: x29 32 + x19: .cfa -16 + ^ .ra: .cfa -24 + ^ x29: .cfa -32 + ^
STACK CFI 19f20 .cfa: sp 32 +
STACK CFI 19f28 .cfa: sp 0 +
STACK CFI INIT 19f2c 18 .cfa: sp 0 +
STACK CFI INIT 19f44 4 .cfa: sp 0 +
STACK CFI INIT 19f48 4 .cfa: sp 0 +
STACK CFI INIT 1a084 1c .cfa: sp 0 +
STACK CFI INIT 1a0a0 c .cfa: sp 0 +
STACK CFI INIT 1a0ac 50 .cfa: sp 0 +
STACK CFI 1a0b0 .cfa: sp 32 +
STACK CFI 1a0b8 .cfa: x29 32 + x19: .cfa -16 + ^ .ra: .cfa -24 + ^ x29: .cfa -32 + ^
STACK CFI 1a0d0 .cfa: sp 32 +
STACK CFI 1a0d8 .cfa: sp 0 +
STACK CFI 1a0dc .cfa: x29 32 +
STACK CFI 1a0f0 .cfa: sp 32 +
STACK CFI 1a0f8 .cfa: sp 0 +
STACK CFI INIT 1a0fc 50 .cfa: sp 0 +
STACK CFI 1a100 .cfa: sp 32 +
STACK CFI 1a108 .cfa: x29 32 + x19: .cfa -16 + ^ .ra: .cfa -24 + ^ x29: .cfa -32 + ^
STACK CFI 1a120 .cfa: sp 32 +
STACK CFI 1a128 .cfa: sp 0 +
STACK CFI 1a12c .cfa: x29 32 +
STACK CFI 1a140 .cfa: sp 32 +
STACK CFI 1a148 .cfa: sp 0 +
STACK CFI INIT 1a14c 4 .cfa: sp 0 +
STACK CFI INIT 1a2c4 9c .cfa: sp 0 +
STACK CFI 1a2c8 .cfa: sp 32 +
STACK CFI 1a2d0 .cfa: x29 32 + x19: .cfa -8 + ^ x20: .cfa -16 + ^ .ra: .cfa -24 + ^ x29: .cfa -32 + ^
STACK CFI 1a354 .cfa: sp 32 +
STACK CFI 1a35c .cfa: sp 0 +
STACK CFI INIT 1a360 a4 .cfa: sp 0 +
STACK CFI 1a364 .cfa: sp 32 +
STACK CFI 1a36c .cfa: x29 32 + x19: .cfa -8 + ^ x20: .cfa -16 + ^ .ra: .cfa -24 + ^ x29: .cfa -32 + ^
STACK CFI 1a3f8 .cfa: sp 32 +
STACK CFI 1a400 .cfa: sp 0 +
STACK CFI INIT 1a404 4 .cfa: sp 0 +
STACK CFI INIT 1a408 38 .cfa: sp 0 +
STACK CFI 1a40c .cfa: sp 32 +
STACK CFI 1a414 .cfa: x29 32 + x19: .cfa -16 + ^ .ra: .cfa -24 + ^ x29: .cfa -32 + ^
STACK CFI 1a434 .cfa: sp 32 +
STACK CFI 1a43c .cfa: sp 0 +
STACK CFI INIT 1a440 18 .cfa: sp 0 +
STACK CFI INIT 1a458 4 .cfa: sp 0 +
STACK CFI INIT 1a45c 4 .cfa: sp 0 +
STACK CFI INIT 1a59c 1c .cfa: sp 0 +
STACK CFI INIT 1a5b8 c .cfa: sp 0 +
STACK CFI INIT 1a5c4 50 .cfa: sp 0 +
STACK CFI 1a5c8 .cfa: sp 32 +
STACK CFI 1a5d0 .cfa: x29 32 + x19: .cfa -16 + ^ .ra: .cfa -24 + ^ x29: .cfa -32 + ^
STACK CFI 1a5e8 .cfa: sp 32 +
STACK CFI 1a5f0 .cfa: sp 0 +
STACK CFI 1a5f4 .cfa: x29 32 +
STACK CFI 1a608 .cfa: sp 32 +
STACK CFI 1a610 .cfa: sp 0 +
STACK CFI INIT 1a614 4 .cfa: sp 0 +
STACK CFI INIT 1a618 38 .cfa: sp 0 +
STACK CFI 1a61c .cfa: sp 32 +
STACK CFI 1a624 .cfa: x29 32 + x19: .cfa -16 + ^ .ra: .cfa -24 + ^ x29: .cfa -32 + ^
STACK CFI 1a644 .cfa: sp 32 +
STACK CFI 1a64c .cfa: sp 0 +
STACK CFI INIT 1a650 18 .cfa: sp 0 +
STACK CFI INIT 1a668 4 .cfa: sp 0 +
STACK CFI INIT 1a66c 4 .cfa: sp 0 +
STACK CFI INIT 1a7a0 1c .cfa: sp 0 +
STACK CFI INIT 1a7bc c .cfa: sp 0 +
STACK CFI INIT 1a7c8 50 .cfa: sp 0 +
STACK CFI 1a7cc .cfa: sp 32 +
STACK CFI 1a7d4 .cfa: x29 32 + x19: .cfa -16 + ^ .ra: .cfa -24 + ^ x29: .cfa -32 + ^
STACK CFI 1a7ec .cfa: sp 32 +
STACK CFI 1a7f4 .cfa: sp 0 +
STACK CFI 1a7f8 .cfa: x29 32 +
STACK CFI 1a80c .cfa: sp 32 +
STACK CFI 1a814 .cfa: sp 0 +
STACK CFI INIT 1a818 4 .cfa: sp 0 +
STACK CFI INIT 1a81c 38 .cfa: sp 0 +
STACK CFI 1a820 .cfa: sp 32 +
STACK CFI 1a828 .cfa: x29 32 + x19: .cfa -16 + ^ .ra: .cfa -24 + ^ x29: .cfa -32 + ^
STACK CFI 1a848 .cfa: sp 32 +
STACK CFI 1a850 .cfa: sp 0 +
STACK CFI INIT 1a854 18 .cfa: sp 0 +
STACK CFI INIT 1a86c 4 .cfa: sp 0 +
STACK CFI INIT 1a870 4 .cfa: sp 0 +
STACK CFI INIT 1a9d0 1c .cfa: sp 0 +
STACK CFI INIT 1a9ec c .cfa: sp 0 +
STACK CFI INIT 1a9f8 4 .cfa: sp 0 +
STACK CFI INIT 1a9fc 38 .cfa: sp 0 +
STACK CFI 1aa00 .cfa: sp 32 +
STACK CFI 1aa08 .cfa: x29 32 + x19: .cfa -16 + ^ .ra: .cfa -24 + ^ x29: .cfa -32 + ^
STACK CFI 1aa28 .cfa: sp 32 +
STACK CFI 1aa30 .cfa: sp 0 +
STACK CFI INIT 1aa34 18 .cfa: sp 0 +
STACK CFI INIT 1aa4c 4 .cfa: sp 0 +
STACK CFI INIT 1aa50 4 .cfa: sp 0 +
STACK CFI INIT 1ada0 1c .cfa: sp 0 +
STACK CFI INIT 1adbc c .cfa: sp 0 +
STACK CFI INIT 1adc8 4 .cfa: sp 0 +
STACK CFI INIT 1adcc 38 .cfa: sp 0 +
STACK CFI 1add0 .cfa: sp 32 +
STACK CFI 1add8 .cfa: x29 32 + x19: .cfa -16 + ^ .ra: .cfa -24 + ^ x29: .cfa -32 + ^
STACK CFI 1adf8 .cfa: sp 32 +
STACK CFI 1ae00 .cfa: sp 0 +
STACK CFI INIT 1ae04 18 .cfa: sp 0 +
STACK CFI INIT 1ae1c 4 .cfa: sp 0 +
STACK CFI INIT 1ae20 4 .cfa: sp 0 +
STACK CFI INIT 1b304 1c .cfa: sp 0 +
STACK CFI INIT 1b320 c .cfa: sp 0 +
STACK CFI INIT 1b32c 4 .cfa: sp 0 +
STACK CFI INIT 1b330 38 .cfa: sp 0 +
STACK CFI 1b334 .cfa: sp 32 +
STACK CFI 1b33c .cfa: x29 32 + x19: .cfa -16 + ^ .ra: .cfa -24 + ^ x29: .cfa -32 + ^
STACK CFI 1b35c .cfa: sp 32 +
STACK CFI 1b364 .cfa: sp 0 +
STACK CFI INIT 1b368 18 .cfa: sp 0 +
STACK CFI INIT 1b380 4 .cfa: sp 0 +
STACK CFI INIT 1b384 4 .cfa: sp 0 +
STACK CFI INIT 1b5ac 1c .cfa: sp 0 +
STACK CFI INIT 1b5c8 c .cfa: sp 0 +
STACK CFI INIT 1b5d4 4 .cfa: sp 0 +
STACK CFI INIT 1b5d8 38 .cfa: sp 0 +
STACK CFI 1b5dc .cfa: sp 32 +
STACK CFI 1b5e4 .cfa: x29 32 + x19: .cfa -16 + ^ .ra: .cfa -24 + ^ x29: .cfa -32 + ^
STACK CFI 1b604 .cfa: sp 32 +
STACK CFI 1b60c .cfa: sp 0 +
STACK CFI INIT 1b610 18 .cfa: sp 0 +
STACK CFI INIT 1b628 4 .cfa: sp 0 +
STACK CFI INIT 1b62c 4 .cfa: sp 0 +
STACK CFI INIT 1b7f8 1c .cfa: sp 0 +
STACK CFI INIT 1b814 c .cfa: sp 0 +
STACK CFI INIT 1b820 4 .cfa: sp 0 +
STACK CFI INIT 1b824 38 .cfa: sp 0 +
STACK CFI 1b828 .cfa: sp 32 +
STACK CFI 1b830 .cfa: x29 32 + x19: .cfa -16 + ^ .ra: .cfa -24 + ^ x29: .cfa -32 + ^
STACK CFI 1b850 .cfa: sp 32 +
STACK CFI 1b858 .cfa: sp 0 +
STACK CFI INIT 1b85c 18 .cfa: sp 0 +
STACK CFI INIT 1b874 4 .cfa: sp 0 +
STACK CFI INIT 1b878 4 .cfa: sp 0 +
STACK CFI INIT 1b9dc 1c .cfa: sp 0 +
STACK CFI INIT 1b9f8 c .cfa: sp 0 +
STACK CFI INIT 1ba04 4 .cfa: sp 0 +
STACK CFI INIT 1ba08 38 .cfa: sp 0 +
STACK CFI 1ba0c .cfa: sp 32 +
STACK CFI 1ba14 .cfa: x29 32 + x19: .cfa -16 + ^ .ra: .cfa -24 + ^ x29: .cfa -32 + ^
STACK CFI 1ba34 .cfa: sp 32 +
STACK CFI 1ba3c .cfa: sp 0 +
STACK CFI INIT 1ba40 18 .cfa: sp 0 +
STACK CFI INIT 1ba58 4 .cfa: sp 0 +
STACK CFI INIT 1ba5c 4 .cfa: sp 0 +
STACK CFI INIT 1bb9c 1c .cfa: sp 0 +
STACK CFI INIT 1bbb8 c .cfa: sp 0 +
STACK CFI INIT 1bbc4 4 .cfa: sp 0 +
STACK CFI INIT 1bbc8 4 .cfa: sp 0 +
STACK CFI INIT 1bbcc 38 .cfa: sp 0 +
STACK CFI 1bbd0 .cfa: sp 32 +
STACK CFI 1bbd8 .cfa: x29 32 + x19: .cfa -16 + ^ .ra: .cfa -24 + ^ x29: .cfa -32 + ^
STACK CFI 1bbf8 .cfa: sp 32 +
STACK CFI 1bc00 .cfa: sp 0 +
STACK CFI INIT 1bc04 18 .cfa: sp 0 +
STACK CFI INIT 1bc1c 4 .cfa: sp 0 +
STACK CFI INIT 1bc20 4 .cfa: sp 0 +
STACK CFI INIT 1bd84 1c .cfa: sp 0 +
STACK CFI INIT 1bda0 c .cfa: sp 0 +
STACK CFI INIT 1bdac 4 .cfa: sp 0 +
STACK CFI INIT 1bf24 5c .cfa: sp 0 +
STACK CFI 1bf28 .cfa: sp 32 +
STACK CFI 1bf30 .cfa: x29 32 + x19: .cfa -16 + ^ .ra: .cfa -24 + ^ x29: .cfa -32 + ^
STACK CFI 1bf74 .cfa: sp 32 +
STACK CFI 1bf7c .cfa: sp 0 +
STACK CFI INIT 1bf80 64 .cfa: sp 0 +
STACK CFI 1bf84 .cfa: sp 32 +
STACK CFI 1bf8c .cfa: x29 32 + x19: .cfa -16 + ^ .ra: .cfa -24 + ^ x29: .cfa -32 + ^
STACK CFI 1bfd8 .cfa: sp 32 +
STACK CFI 1bfe0 .cfa: sp 0 +
STACK CFI INIT 1bfe4 4 .cfa: sp 0 +
STACK CFI INIT 1bfe8 4 .cfa: sp 0 +
STACK CFI INIT 1bfec 34 .cfa: sp 0 +
STACK CFI 1bff0 .cfa: sp 32 +
STACK CFI 1bff8 .cfa: x29 32 + x19: .cfa -16 + ^ .ra: .cfa -24 + ^ x29: .cfa -32 + ^
STACK CFI 1c014 .cfa: sp 32 +
STACK CFI 1c01c .cfa: sp 0 +
STACK CFI INIT 1c020 14 .cfa: sp 0 +
STACK CFI INIT 1c034 4 .cfa: sp 0 +
STACK CFI INIT 1c038 4 .cfa: sp 0 +
STACK CFI INIT 1c03c 10 .cfa: sp 0 +
STACK CFI INIT 1c04c 1c .cfa: sp 0 +
STACK CFI INIT 1c068 c .cfa: sp 0 +
STACK CFI INIT 1c1a0 3c .cfa: sp 0 +
STACK CFI 1c1a4 .cfa: sp 32 +
STACK CFI 1c1ac .cfa: x29 32 + x19: .cfa -16 + ^ .ra: .cfa -24 + ^ x29: .cfa -32 + ^
STACK CFI 1c1b8 .cfa: sp 32 +
STACK CFI 1c1c0 .cfa: sp 0 +
STACK CFI 1c1c4 .cfa: x29 32 +
STACK CFI 1c1d0 .cfa: sp 32 +
STACK CFI 1c1d8 .cfa: sp 0 +
STACK CFI INIT 1c1dc 4c .cfa: sp 0 +
STACK CFI 1c1e0 .cfa: sp 32 +
STACK CFI 1c1e8 .cfa: x29 32 + x19: .cfa -8 + ^ x20: .cfa -16 + ^ .ra: .cfa -24 + ^ x29: .cfa -32 + ^
STACK CFI 1c210 .cfa: sp 32 +
STACK CFI 1c218 .cfa: sp 0 +
STACK CFI 1c21c .cfa: sp 32 +
STACK CFI 1c224 .cfa: sp 0 +
STACK CFI INIT 1c448 64 .cfa: sp 0 +
STACK CFI 1c44c .cfa: sp 32 +
STACK CFI 1c454 .cfa: x29 32 + x19: .cfa -16 + ^ .ra: .cfa -24 + ^ x29: .cfa -32 + ^
STACK CFI 1c480 .cfa: sp 32 +
STACK CFI 1c488 .cfa: sp 0 +
STACK CFI 1c48c .cfa: x29 32 +
STACK CFI 1c4a0 .cfa: sp 32 +
STACK CFI 1c4a8 .cfa: sp 0 +
STACK CFI INIT 1c4ac 24 .cfa: sp 0 +
STACK CFI 1c4b0 .cfa: sp 32 +
STACK CFI 1c4b8 .cfa: x29 32 + x19: .cfa -16 + ^ .ra: .cfa -24 + ^ x29: .cfa -32 + ^
STACK CFI 1c4c4 .cfa: sp 32 +
STACK CFI 1c4cc .cfa: sp 0 +
STACK CFI INIT 1c72c 24 .cfa: sp 0 +
STACK CFI 1c730 .cfa: sp 32 +
STACK CFI 1c738 .cfa: x29 32 + x19: .cfa -16 + ^ .ra: .cfa -24 + ^ x29: .cfa -32 + ^
STACK CFI 1c744 .cfa: sp 32 +
STACK CFI 1c74c .cfa: sp 0 +
STACK CFI INIT 1c750 4 .cfa: sp 0 +
STACK CFI INIT 1d1a4 4 .cfa: sp 0 +
STACK CFI INIT 1d1a8 14 .cfa: sp 0 +
STACK CFI INIT 1d6c8 c .cfa: sp 0 +
STACK CFI INIT 1d6d4 24c .cfa: sp 0 +
STACK CFI INIT 1d920 a0 .cfa: sp 0 +
STACK CFI 1d92c .cfa: sp 32 +
STACK CFI 1d984 .cfa: sp 0 +
STACK CFI 1d988 .cfa: sp 32 +
STACK CFI 1d990 .cfa: sp 0 +
STACK CFI 1d994 .cfa: sp 32 +
STACK CFI 1d9a8 .cfa: sp 0 +
STACK CFI 1d9ac .cfa: sp 32 +
STACK CFI 1d9bc .cfa: sp 0 +
STACK CFI INIT 1d9c0 38 .cfa: sp 0 +
STACK CFI 1d9cc .cfa: sp 32 +
STACK CFI 1d9f4 .cfa: sp 0 +
STACK CFI INIT 1dc8c 7c .cfa: sp 0 +
STACK CFI 1dc90 .cfa: sp 32 +
STACK CFI 1dc98 .cfa: x29 32 + x19: .cfa -16 + ^ .ra: .cfa -24 + ^ x29: .cfa -32 + ^
STACK CFI 1dcc4 .cfa: sp 32 +
STACK CFI 1dccc .cfa: sp 0 +
STACK CFI 1dcd0 .cfa: x29 32 +
STACK CFI 1dcfc .cfa: sp 32 +
STACK CFI 1dd04 .cfa: sp 0 +
STACK CFI INIT 1dd58 2c .cfa: sp 0 +
STACK CFI 1dd5c .cfa: sp 32 +
STACK CFI 1dd64 .cfa: x29 32 + x19: .cfa -16 + ^ .ra: .cfa -24 + ^ x29: .cfa -32 + ^
STACK CFI 1dd78 .cfa: sp 32 +
STACK CFI 1dd80 .cfa: sp 0 +
STACK CFI INIT 1e544 64 .cfa: sp 0 +
STACK CFI 1e548 .cfa: sp 32 +
STACK CFI 1e550 .cfa: x29 32 + x19: .cfa -16 + ^ .ra: .cfa -24 + ^ x29: .cfa -32 + ^
STACK CFI 1e56c .cfa: sp 32 +
STACK CFI 1e574 .cfa: sp 0 +
STACK CFI 1e578 .cfa: x29 32 +
STACK CFI 1e59c .cfa: sp 32 +
STACK CFI 1e5a4 .cfa: sp 0 +
STACK CFI INIT 1e5a8 570 .cfa: sp 0 +
STACK CFI 1e5ac .cfa: sp 176 +
STACK CFI 1e5c0 .cfa: x29 64 + x19: .cfa -8 + ^ x20: .cfa -16 + ^ x21: .cfa -24 + ^ x22: .cfa -32 + ^ x23: .cfa -40 + ^ x24: .cfa -48 + ^ .ra: .cfa -56 + ^ x29: .cfa -64 + ^
STACK CFI 1e7f0 .cfa: sp 176 +
STACK CFI 1e804 .cfa: sp 0 +
STACK CFI 1e808 .cfa: x29 64 +
STACK CFI 1e854 .cfa: sp 176 +
STACK CFI 1e868 .cfa: sp 0 +
STACK CFI 1e86c .cfa: x29 64 +
STACK CFI 1e8a4 .cfa: sp 176 +
STACK CFI 1e8b8 .cfa: sp 0 +
STACK CFI 1e8bc .cfa: x29 64 +
STACK CFI 1e8d4 .cfa: sp 176 +
STACK CFI 1e8e8 .cfa: sp 0 +
STACK CFI 1e8ec .cfa: x29 64 +
STACK CFI 1e90c .cfa: sp 176 +
STACK CFI 1e920 .cfa: sp 0 +
STACK CFI 1e924 .cfa: x29 64 +
STACK CFI 1e93c .cfa: sp 176 +
STACK CFI 1e950 .cfa: sp 0 +
STACK CFI 1e954 .cfa: x29 64 +
STACK CFI 1e968 .cfa: sp 176 +
STACK CFI 1e97c .cfa: sp 0 +
STACK CFI 1e980 .cfa: x29 64 +
STACK CFI 1e994 .cfa: sp 176 +
STACK CFI 1e9a8 .cfa: sp 0 +
STACK CFI 1e9ac .cfa: x29 64 +
STACK CFI 1e9bc .cfa: sp 176 +
STACK CFI 1e9d0 .cfa: sp 0 +
STACK CFI 1e9d4 .cfa: x29 64 +
STACK CFI 1e9e4 .cfa: sp 176 +
STACK CFI 1e9f8 .cfa: sp 0 +
STACK CFI 1e9fc .cfa: x29 64 +
STACK CFI 1ea14 .cfa: sp 176 +
STACK CFI 1ea28 .cfa: sp 0 +
STACK CFI 1ea2c .cfa: x29 64 +
STACK CFI 1ea40 .cfa: sp 176 +
STACK CFI 1ea54 .cfa: sp 0 +
STACK CFI 1ea58 .cfa: x29 64 +
STACK CFI 1ea70 .cfa: sp 176 +
STACK CFI 1ea84 .cfa: sp 0 +
STACK CFI 1ea88 .cfa: x29 64 +
STACK CFI 1eab4 .cfa: sp 176 +
STACK CFI 1eac8 .cfa: sp 0 +
STACK CFI 1eacc .cfa: x29 64 +
STACK CFI 1eae0 .cfa: sp 176 +
STACK CFI 1eaf4 .cfa: sp 0 +
STACK CFI 1eaf8 .cfa: x29 64 +
STACK CFI INIT 1eb18 228 .cfa: sp 0 +
STACK CFI INIT 1ed40 2dc .cfa: sp 0 +
STACK CFI INIT 1f01c 53c .cfa: sp 0 +
STACK CFI INIT 1f558 78 .cfa: sp 0 +
STACK CFI 1f55c .cfa: sp 48 +
STACK CFI 1f568 .cfa: x29 48 + x19: .cfa -8 + ^ x20: .cfa -16 + ^ x21: .cfa -24 + ^ x22: .cfa -32 + ^ .ra: .cfa -40 + ^ x29: .cfa -48 + ^
STACK CFI 1f5b0 .cfa: sp 48 +
STACK CFI 1f5bc .cfa: sp 0 +
STACK CFI 1f5c0 .cfa: sp 48 +
STACK CFI 1f5cc .cfa: sp 0 +
STACK CFI INIT 1f5d0 8c .cfa: sp 0 +
STACK CFI 1f5d4 .cfa: sp 32 +
STACK CFI 1f5dc .cfa: x29 32 + x19: .cfa -16 + ^ .ra: .cfa -24 + ^ x29: .cfa -32 + ^
STACK CFI 1f610 .cfa: sp 32 +
STACK CFI 1f618 .cfa: sp 0 +
STACK CFI 1f61c .cfa: x29 32 +
STACK CFI 1f650 .cfa: sp 32 +
STACK CFI 1f658 .cfa: sp 0 +
STACK CFI INIT 1f65c 24 .cfa: sp 0 +
STACK CFI 1f660 .cfa: sp 32 +
STACK CFI 1f668 .cfa: x29 32 + x19: .cfa -16 + ^ .ra: .cfa -24 + ^ x29: .cfa -32 + ^
STACK CFI 1f674 .cfa: sp 32 +
STACK CFI 1f67c .cfa: sp 0 +
STACK CFI INIT 1f680 150 .cfa: sp 0 +
STACK CFI 1f684 .cfa: sp 48 +
STACK CFI 1f690 .cfa: x29 48 + x19: .cfa -8 + ^ x20: .cfa -16 + ^ x21: .cfa -24 + ^ x22: .cfa -32 + ^ .ra: .cfa -40 + ^ x29: .cfa -48 + ^
STACK CFI 1f7c0 .cfa: sp 48 +
STACK CFI 1f7cc .cfa: sp 0 +
STACK CFI INIT 1f7d0 68 .cfa: sp 0 +
STACK CFI 1f7d4 .cfa: sp 64 +
STACK CFI 1f7e0 .cfa: x29 32 + x19: .cfa -16 + ^ .ra: .cfa -24 + ^ x29: .cfa -32 + ^
STACK CFI 1f824 .cfa: sp 64 +
STACK CFI 1f830 .cfa: sp 0 +
STACK CFI 1f834 .cfa: x29 32 +
STACK CFI INIT 1f838 90 .cfa: sp 0 +
STACK CFI 1f83c .cfa: sp 32 +
STACK CFI 1f844 .cfa: x29 32 + x19: .cfa -8 + ^ x20: .cfa -16 + ^ .ra: .cfa -24 + ^ x29: .cfa -32 + ^
STACK CFI 1f870 .cfa: sp 32 +
STACK CFI 1f878 .cfa: sp 0 +
STACK CFI 1f87c .cfa: x29 32 +
STACK CFI 1f8bc .cfa: sp 32 +
STACK CFI 1f8c4 .cfa: sp 0 +
STACK CFI INIT 1f8c8 ec .cfa: sp 0 +
STACK CFI 1f8cc .cfa: sp 112 +
STACK CFI 1f8dc .cfa: x29 48 + x19: .cfa -8 + ^ x20: .cfa -16 + ^ x21: .cfa -32 + ^ .ra: .cfa -40 + ^ x29: .cfa -48 + ^
STACK CFI 1f99c .cfa: sp 112 +
STACK CFI 1f9ac .cfa: sp 0 +
STACK CFI 1f9b0 .cfa: x29 48 +
STACK CFI INIT 1f9b4 ec .cfa: sp 0 +
STACK CFI 1f9b8 .cfa: sp 112 +
STACK CFI 1f9c8 .cfa: x29 48 + x19: .cfa -8 + ^ x20: .cfa -16 + ^ x21: .cfa -32 + ^ .ra: .cfa -40 + ^ x29: .cfa -48 + ^
STACK CFI 1fa88 .cfa: sp 112 +
STACK CFI 1fa98 .cfa: sp 0 +
STACK CFI 1fa9c .cfa: x29 48 +
STACK CFI INIT 1faa0 48 .cfa: sp 0 +
STACK CFI 1faa4 .cfa: sp 32 +
STACK CFI 1faac .cfa: x29 32 + x19: .cfa -8 + ^ x20: .cfa -16 + ^ .ra: .cfa -24 + ^ x29: .cfa -32 + ^
STACK CFI 1fad0 .cfa: sp 32 +
STACK CFI 1fad8 .cfa: sp 0 +
STACK CFI 1fadc .cfa: x29 32 +
STACK CFI INIT 1fae8 98 .cfa: sp 0 +
STACK CFI 1faec .cfa: sp 80 +
STACK CFI 1faf8 .cfa: x29 32 + x19: .cfa -16 + ^ .ra: .cfa -24 + ^ x29: .cfa -32 + ^
STACK CFI 1fb6c .cfa: sp 80 +
STACK CFI 1fb78 .cfa: sp 0 +
STACK CFI 1fb7c .cfa: x29 32 +
STACK CFI INIT 1fb80 260 .cfa: sp 0 +
STACK CFI 1fb84 .cfa: sp 112 +
STACK CFI 1fb9c .cfa: x29 80 + x19: .cfa -8 + ^ x20: .cfa -16 + ^ x21: .cfa -24 + ^ x22: .cfa -32 + ^ x23: .cfa -40 + ^ x24: .cfa -48 + ^ x25: .cfa -64 + ^ .ra: .cfa -72 + ^ x29: .cfa -80 + ^
STACK CFI 1fd80 .cfa: sp 112 +
STACK CFI 1fd98 .cfa: sp 0 +
STACK CFI 1fd9c .cfa: x29 80 +
STACK CFI INIT 1fde0 150 .cfa: sp 0 +
STACK CFI 1fde4 .cfa: sp 48 +
STACK CFI 1fdf0 .cfa: x29 48 + x19: .cfa -8 + ^ x20: .cfa -16 + ^ x21: .cfa -24 + ^ x22: .cfa -32 + ^ .ra: .cfa -40 + ^ x29: .cfa -48 + ^
STACK CFI 1ff20 .cfa: sp 48 +
STACK CFI 1ff2c .cfa: sp 0 +
STACK CFI INIT 1ff30 1e0 .cfa: sp 0 +
STACK CFI 1ff34 .cfa: sp 96 +
STACK CFI 1ff48 .cfa: x29 64 + x19: .cfa -8 + ^ x20: .cfa -16 + ^ x21: .cfa -24 + ^ x22: .cfa -32 + ^ x23: .cfa -40 + ^ x24: .cfa -48 + ^ .ra: .cfa -56 + ^ x29: .cfa -64 + ^
STACK CFI 200c8 .cfa: sp 96 +
STACK CFI 200dc .cfa: sp 0 +
STACK CFI 200e0 .cfa: x29 64 +
STACK CFI INIT 20110 284 .cfa: sp 0 +
STACK CFI 20114 .cfa: sp 112 +
STACK CFI 2012c .cfa: x29 80 + x19: .cfa -8 + ^ x20: .cfa -16 + ^ x21: .cfa -24 + ^ x22: .cfa -32 + ^ x23: .cfa -40 + ^ x24: .cfa -48 + ^ x25: .cfa -64 + ^ .ra: .cfa -72 + ^ x29: .cfa -80 + ^
STACK CFI 20334 .cfa: sp 112 +
STACK CFI 2034c .cfa: sp 0 +
STACK CFI 20350 .cfa: x29 80 +
STACK CFI INIT 20394 208 .cfa: sp 0 +
STACK CFI 20398 .cfa: sp 96 +
STACK CFI 203ac .cfa: x29 64 + x19: .cfa -8 + ^ x20: .cfa -16 + ^ x21: .cfa -24 + ^ x22: .cfa -32 + ^ x23: .cfa -40 + ^ x24: .cfa -48 + ^ .ra: .cfa -56 + ^ x29: .cfa -64 + ^
STACK CFI 20554 .cfa: sp 96 +
STACK CFI 20568 .cfa: sp 0 +
STACK CFI 2056c .cfa: x29 64 +
STACK CFI INIT 2059c 360 .cfa: sp 0 +
STACK CFI 205a0 .cfa: sp 160 +
STACK CFI 205bc .cfa: x29 96 + x19: .cfa -8 + ^ x20: .cfa -16 + ^ x21: .cfa -24 + ^ x22: .cfa -32 + ^ x23: .cfa -40 + ^ x24: .cfa -48 + ^ x25: .cfa -56 + ^ x26: .cfa -64 + ^ x27: .cfa -72 + ^ x28: .cfa -80 + ^ .ra: .cfa -88 + ^ x29: .cfa -96 + ^
STACK CFI 20888 .cfa: sp 160 +
STACK CFI 208a4 .cfa: sp 0 +
STACK CFI 208a8 .cfa: x29 96 +
STACK CFI INIT 208fc 314 .cfa: sp 0 +
STACK CFI 20900 .cfa: sp 144 +
STACK CFI 2091c .cfa: x29 96 + x19: .cfa -8 + ^ x20: .cfa -16 + ^ x21: .cfa -24 + ^ x22: .cfa -32 + ^ x23: .cfa -40 + ^ x24: .cfa -48 + ^ x25: .cfa -56 + ^ x26: .cfa -64 + ^ x27: .cfa -72 + ^ x28: .cfa -80 + ^ .ra: .cfa -88 + ^ x29: .cfa -96 + ^
STACK CFI 20b98 .cfa: sp 144 +
STACK CFI 20bb4 .cfa: sp 0 +
STACK CFI 20bb8 .cfa: x29 96 +
STACK CFI INIT 20c10 2b4 .cfa: sp 0 +
STACK CFI 20c14 .cfa: sp 128 +
STACK CFI 20c2c .cfa: x29 80 + x19: .cfa -8 + ^ x20: .cfa -16 + ^ x21: .cfa -24 + ^ x22: .cfa -32 + ^ x23: .cfa -40 + ^ x24: .cfa -48 + ^ x25: .cfa -56 + ^ x26: .cfa -64 + ^ .ra: .cfa -72 + ^ x29: .cfa -80 + ^
STACK CFI 20e20 .cfa: sp 128 +
STACK CFI 20e38 .cfa: sp 0 +
STACK CFI 20e3c .cfa: x29 80 +
STACK CFI 20ea4 .cfa: sp 128 +
STACK CFI 20ebc .cfa: sp 0 +
STACK CFI 20ec0 .cfa: x29 80 +
STACK CFI INIT 20ec4 de0 .cfa: sp 0 +
STACK CFI 20ec8 .cfa: sp 144 +
STACK CFI 20ee4 .cfa: x29 96 + x19: .cfa -8 + ^ x20: .cfa -16 + ^ x21: .cfa -24 + ^ x22: .cfa -32 + ^ x23: .cfa -40 + ^ x24: .cfa -48 + ^ x25: .cfa -56 + ^ x26: .cfa -64 + ^ x27: .cfa -72 + ^ x28: .cfa -80 + ^ .ra: .cfa -88 + ^ x29: .cfa -96 + ^
STACK CFI 21b7c .cfa: sp 144 +
STACK CFI 21b98 .cfa: sp 0 +
STACK CFI 21b9c .cfa: x29 96 +
STACK CFI INIT 21ca4 264 .cfa: sp 0 +
STACK CFI 21ca8 .cfa: sp 112 +
STACK CFI 21cbc .cfa: x29 64 + x19: .cfa -8 + ^ x20: .cfa -16 + ^ x21: .cfa -24 + ^ x22: .cfa -32 + ^ x23: .cfa -40 + ^ x24: .cfa -48 + ^ .ra: .cfa -56 + ^ x29: .cfa -64 + ^
STACK CFI 21e38 .cfa: sp 112 +
STACK CFI 21e4c .cfa: sp 0 +
STACK CFI 21e50 .cfa: x29 64 +
STACK CFI 21ec0 .cfa: sp 112 +
STACK CFI 21ed4 .cfa: sp 0 +
STACK CFI 21ed8 .cfa: x29 64 +
STACK CFI INIT 21f08 258 .cfa: sp 0 +
STACK CFI 21f0c .cfa: sp 96 +
STACK CFI 21f24 .cfa: x29 96 + x19: .cfa -8 + ^ x20: .cfa -16 + ^ x21: .cfa -24 + ^ x22: .cfa -32 + ^ x23: .cfa -40 + ^ x24: .cfa -48 + ^ x25: .cfa -56 + ^ x26: .cfa -64 + ^ x27: .cfa -72 + ^ x28: .cfa -80 + ^ .ra: .cfa -88 + ^ x29: .cfa -96 + ^
STACK CFI 2211c .cfa: sp 96 +
STACK CFI 22134 .cfa: sp 0 +
STACK CFI 22138 .cfa: x29 96 +
STACK CFI 22144 .cfa: sp 96 +
STACK CFI 2215c .cfa: sp 0 +
STACK CFI INIT 22de4 154 .cfa: sp 0 +
STACK CFI 22de8 .cfa: sp 96 +
STACK CFI 22dfc .cfa: x29 64 + x19: .cfa -8 + ^ x20: .cfa -16 + ^ x21: .cfa -24 + ^ x22: .cfa -32 + ^ x23: .cfa -48 + ^ .ra: .cfa -56 + ^ x29: .cfa -64 + ^
STACK CFI 22edc .cfa: sp 96 +
STACK CFI 22ef0 .cfa: sp 0 +
STACK CFI 22ef4 .cfa: x29 64 +
STACK CFI INIT 231a4 44 .cfa: sp 0 +
STACK CFI 231a8 .cfa: sp 32 +
STACK CFI 231b0 .cfa: x29 32 + x19: .cfa -16 + ^ .ra: .cfa -24 + ^ x29: .cfa -32 + ^
STACK CFI 231cc .cfa: sp 32 +
STACK CFI 231d4 .cfa: sp 0 +
STACK CFI 231d8 .cfa: x29 32 +
STACK CFI 231dc .cfa: sp 32 +
STACK CFI 231e4 .cfa: sp 0 +
STACK CFI INIT 231e8 1d0 .cfa: sp 0 +
STACK CFI 231ec .cfa: sp 64 +
STACK CFI 231fc .cfa: x29 64 + x19: .cfa -8 + ^ x20: .cfa -16 + ^ x21: .cfa -24 + ^ x22: .cfa -32 + ^ x23: .cfa -40 + ^ x24: .cfa -48 + ^ .ra: .cfa -56 + ^ x29: .cfa -64 + ^
STACK CFI 232bc .cfa: sp 64 +
STACK CFI 232cc .cfa: sp 0 +
STACK CFI 232d0 .cfa: x29 64 +
STACK CFI INIT 233b8 17c .cfa: sp 0 +
STACK CFI INIT 238ec a0 .cfa: sp 0 +
STACK CFI 238f0 .cfa: sp 48 +
STACK CFI 238fc .cfa: x29 48 + x19: .cfa -8 + ^ x20: .cfa -16 + ^ x21: .cfa -24 + ^ x22: .cfa -32 + ^ .ra: .cfa -40 + ^ x29: .cfa -48 + ^
STACK CFI 23968 .cfa: sp 48 +
STACK CFI 23974 .cfa: sp 0 +
STACK CFI 23978 .cfa: sp 48 +
STACK CFI 23984 .cfa: sp 0 +
STACK CFI 23988 .cfa: x29 48 +
STACK CFI INIT 2464c 158 .cfa: sp 0 +
STACK CFI 24650 .cfa: sp 96 +
STACK CFI 24664 .cfa: x29 64 + x19: .cfa -8 + ^ x20: .cfa -16 + ^ x21: .cfa -24 + ^ x22: .cfa -32 + ^ x23: .cfa -48 + ^ .ra: .cfa -56 + ^ x29: .cfa -64 + ^
STACK CFI 24748 .cfa: sp 96 +
STACK CFI 2475c .cfa: sp 0 +
STACK CFI 24760 .cfa: x29 64 +
STACK CFI INIT 247a4 190 .cfa: sp 0 +
STACK CFI INIT 2542c 1f4 .cfa: sp 0 +
STACK CFI 25430 .cfa: sp 80 +
STACK CFI 25444 .cfa: x29 80 + x19: .cfa -8 + ^ x20: .cfa -16 + ^ x21: .cfa -24 + ^ x22: .cfa -32 + ^ x23: .cfa -40 + ^ x24: .cfa -48 + ^ x25: .cfa -64 + ^ .ra: .cfa -72 + ^ x29: .cfa -80 + ^
STACK CFI 255e4 .cfa: sp 80 +
STACK CFI 255f8 .cfa: sp 0 +
STACK CFI 255fc .cfa: x29 80 +
STACK CFI 25608 .cfa: sp 80 +
STACK CFI 2561c .cfa: sp 0 +
STACK CFI INIT 26a50 124 .cfa: sp 0 +
STACK CFI 26a80 .cfa: sp 32 +
STACK CFI 26a88 .cfa: x29 32 + x19: .cfa -8 + ^ x20: .cfa -16 + ^ .ra: .cfa -24 + ^ x29: .cfa -32 + ^
STACK CFI 26b68 .cfa: sp 32 +
STACK CFI 26b70 .cfa: sp 0 +
STACK CFI INIT 272d0 320 .cfa: sp 0 +
STACK CFI 272d4 .cfa: sp 64 +
STACK CFI 272e4 .cfa: x29 64 + x19: .cfa -8 + ^ x20: .cfa -16 + ^ x21: .cfa -24 + ^ x22: .cfa -32 + ^ x23: .cfa -40 + ^ x24: .cfa -48 + ^ .ra: .cfa -56 + ^ x29: .cfa -64 + ^
STACK CFI 27360 .cfa: sp 64 +
STACK CFI 27370 .cfa: sp 0 +
STACK CFI 27374 .cfa: x29 64 +
STACK CFI 27548 .cfa: sp 64 +
STACK CFI 27558 .cfa: sp 0 +
STACK CFI 2755c .cfa: x29 64 +
STACK CFI 2756c .cfa: sp 64 +
STACK CFI 2757c .cfa: sp 0 +
STACK CFI 27580 .cfa: x29 64 +
STACK CFI INIT 275f0 a0 .cfa: sp 0 +
STACK CFI 275f4 .cfa: sp 48 +
STACK CFI 27600 .cfa: x29 48 + x19: .cfa -8 + ^ x20: .cfa -16 + ^ x21: .cfa -24 + ^ x22: .cfa -32 + ^ .ra: .cfa -40 + ^ x29: .cfa -48 + ^
STACK CFI 2766c .cfa: sp 48 +
STACK CFI 27678 .cfa: sp 0 +
STACK CFI 2767c .cfa: sp 48 +
STACK CFI 27688 .cfa: sp 0 +
STACK CFI 2768c .cfa: x29 48 +
STACK CFI INIT 28570 160 .cfa: sp 0 +
STACK CFI 28574 .cfa: sp 64 +
STACK CFI 28584 .cfa: x29 64 + x19: .cfa -8 + ^ x20: .cfa -16 + ^ x21: .cfa -24 + ^ x22: .cfa -32 + ^ x23: .cfa -48 + ^ .ra: .cfa -56 + ^ x29: .cfa -64 + ^
STACK CFI 2867c .cfa: sp 64 +
STACK CFI 2868c .cfa: sp 0 +
STACK CFI 28690 .cfa: x29 64 +
STACK CFI INIT 286d0 214 .cfa: sp 0 +
STACK CFI 286d4 .cfa: sp 128 +
STACK CFI 286f0 .cfa: x29 96 + x19: .cfa -8 + ^ x20: .cfa -16 + ^ x21: .cfa -24 + ^ x22: .cfa -32 + ^ x23: .cfa -40 + ^ x24: .cfa -48 + ^ x25: .cfa -56 + ^ x26: .cfa -64 + ^ x27: .cfa -80 + ^ .ra: .cfa -88 + ^ x29: .cfa -96 + ^
STACK CFI 2886c .cfa: sp 128 +
STACK CFI 28888 .cfa: sp 0 +
STACK CFI 2888c .cfa: x29 96 +
STACK CFI INIT 29d98 e60 .cfa: sp 0 +
STACK CFI 29d9c .cfa: sp 192 +
STACK CFI 29db8 .cfa: x29 96 + x19: .cfa -8 + ^ x20: .cfa -16 + ^ x21: .cfa -24 + ^ x22: .cfa -32 + ^ x23: .cfa -40 + ^ x24: .cfa -48 + ^ x25: .cfa -56 + ^ x26: .cfa -64 + ^ x27: .cfa -72 + ^ x28: .cfa -80 + ^ .ra: .cfa -88 + ^ x29: .cfa -96 + ^
STACK CFI 2aae0 .cfa: sp 192 +
STACK CFI 2aafc .cfa: sp 0 +
STACK CFI 2ab00 .cfa: x29 96 +
STACK CFI INIT 2abf8 1090 .cfa: sp 0 +
STACK CFI 2abfc .cfa: sp 288 +
STACK CFI 2ac18 .cfa: x29 96 + x19: .cfa -8 + ^ x20: .cfa -16 + ^ x21: .cfa -24 + ^ x22: .cfa -32 + ^ x23: .cfa -40 + ^ x24: .cfa -48 + ^ x25: .cfa -56 + ^ x26: .cfa -64 + ^ x27: .cfa -72 + ^ x28: .cfa -80 + ^ .ra: .cfa -88 + ^ x29: .cfa -96 + ^
STACK CFI 2b9d0 .cfa: sp 288 +
STACK CFI 2b9ec .cfa: sp 0 +
STACK CFI 2b9f0 .cfa: x29 96 +
STACK CFI INIT 2bc88 520 .cfa: sp 0 +
STACK CFI 2bc8c .cfa: sp 144 +
STACK CFI 2bca8 .cfa: x29 96 + x19: .cfa -8 + ^ x20: .cfa -16 + ^ x21: .cfa -24 + ^ x22: .cfa -32 + ^ x23: .cfa -40 + ^ x24: .cfa -48 + ^ x25: .cfa -56 + ^ x26: .cfa -64 + ^ x27: .cfa -72 + ^ x28: .cfa -80 + ^ .ra: .cfa -88 + ^ x29: .cfa -96 + ^
STACK CFI 2c184 .cfa: sp 144 +
STACK CFI 2c1a0 .cfa: sp 0 +
STACK CFI 2c1a4 .cfa: x29 96 +
STACK CFI INIT 104e0 a98 .cfa: sp 0 +
STACK CFI 104e4 .cfa: sp 112 +
STACK CFI 10500 .cfa: x29 96 + x19: .cfa -8 + ^ x20: .cfa -16 + ^ x21: .cfa -24 + ^ x22: .cfa -32 + ^ x23: .cfa -40 + ^ x24: .cfa -48 + ^ x25: .cfa -56 + ^ x26: .cfa -64 + ^ x27: .cfa -72 + ^ x28: .cfa -80 + ^ .ra: .cfa -88 + ^ x29: .cfa -96 + ^ v8: .cfa -112 + ^
STACK CFI 10d60 .cfa: sp 112 +
STACK CFI 10d7c .cfa: sp 0 +
STACK CFI 10d80 .cfa: x29 96 +
STACK CFI INIT 116d0 480 .cfa: sp 0 +
STACK CFI 116d4 .cfa: sp 224 +
STACK CFI 116f0 .cfa: x29 96 + x19: .cfa -8 + ^ x20: .cfa -16 + ^ x21: .cfa -24 + ^ x22: .cfa -32 + ^ x23: .cfa -40 + ^ x24: .cfa -48 + ^ x25: .cfa -56 + ^ x26: .cfa -64 + ^ x27: .cfa -80 + ^ .ra: .cfa -88 + ^ x29: .cfa -96 + ^
STACK CFI 1195c .cfa: sp 224 +
STACK CFI 11978 .cfa: sp 0 +
STACK CFI 1197c .cfa: x29 96 +
STACK CFI 11a48 .cfa: sp 224 +
STACK CFI 11a64 .cfa: sp 0 +
STACK CFI 11a68 .cfa: x29 96 +
STACK CFI INIT 11b6c 380 .cfa: sp 0 +
STACK CFI 11b70 .cfa: sp 240 +
STACK CFI 11b84 .cfa: x29 64 + x19: .cfa -8 + ^ x20: .cfa -16 + ^ x21: .cfa -24 + ^ x22: .cfa -32 + ^ x23: .cfa -48 + ^ .ra: .cfa -56 + ^ x29: .cfa -64 + ^
STACK CFI 11dc8 .cfa: sp 240 +
STACK CFI 11ddc .cfa: sp 0 +
STACK CFI 11de0 .cfa: x29 64 +
STACK CFI INIT 11f3c 74 .cfa: sp 0 +
STACK CFI 11f40 .cfa: sp 48 +
STACK CFI 11f4c .cfa: x29 32 + x19: .cfa -8 + ^ x20: .cfa -16 + ^ .ra: .cfa -24 + ^ x29: .cfa -32 + ^
STACK CFI 11f98 .cfa: sp 48 +
STACK CFI 11fa4 .cfa: sp 0 +
STACK CFI 11fa8 .cfa: x29 32 +
STACK CFI INIT 12040 154 .cfa: sp 0 +
STACK CFI 12044 .cfa: sp 384 +
STACK CFI 12058 .cfa: x29 64 + x19: .cfa -8 + ^ x20: .cfa -16 + ^ x21: .cfa -24 + ^ x22: .cfa -32 + ^ x23: .cfa -40 + ^ x28: .cfa -48 + ^ .ra: .cfa -56 + ^ x29: .cfa -64 + ^
STACK CFI 1213c .cfa: sp 384 +
STACK CFI 12150 .cfa: sp 0 +
STACK CFI 12154 .cfa: x29 64 +
STACK CFI INIT 121c8 12c .cfa: sp 0 +
STACK CFI 121cc .cfa: sp 80 +
STACK CFI 121e0 .cfa: x29 80 + x19: .cfa -8 + ^ x20: .cfa -16 + ^ x21: .cfa -24 + ^ x22: .cfa -32 + ^ x23: .cfa -40 + ^ x24: .cfa -48 + ^ x25: .cfa -56 + ^ x26: .cfa -64 + ^ .ra: .cfa -72 + ^ x29: .cfa -80 + ^
STACK CFI 122a8 .cfa: sp 80 +
STACK CFI 122bc .cfa: sp 0 +
STACK CFI 122c0 .cfa: x29 80 +
STACK CFI INIT 12398 1a4 .cfa: sp 0 +
STACK CFI 1239c .cfa: sp 112 +
STACK CFI 123b4 .cfa: x29 80 + x19: .cfa -8 + ^ x20: .cfa -16 + ^ x21: .cfa -24 + ^ x22: .cfa -32 + ^ x23: .cfa -40 + ^ x24: .cfa -48 + ^ x25: .cfa -56 + ^ x26: .cfa -64 + ^ .ra: .cfa -72 + ^ x29: .cfa -80 + ^
STACK CFI 124a4 .cfa: sp 112 +
STACK CFI 124bc .cfa: sp 0 +
STACK CFI 124c0 .cfa: x29 80 +
STACK CFI INIT 1253c 1dc .cfa: sp 0 +
STACK CFI 12540 .cfa: sp 128 +
STACK CFI 1255c .cfa: x29 96 + x19: .cfa -8 + ^ x20: .cfa -16 + ^ x21: .cfa -24 + ^ x22: .cfa -32 + ^ x23: .cfa -40 + ^ x24: .cfa -48 + ^ x25: .cfa -56 + ^ x26: .cfa -64 + ^ x27: .cfa -80 + ^ .ra: .cfa -88 + ^ x29: .cfa -96 + ^
STACK CFI 126c8 .cfa: sp 128 +
STACK CFI 126e4 .cfa: sp 0 +
STACK CFI 126e8 .cfa: x29 96 +
STACK CFI INIT 1272c 50 .cfa: sp 0 +
STACK CFI 12730 .cfa: sp 32 +
STACK CFI 12738 .cfa: x29 32 + x19: .cfa -8 + ^ x20: .cfa -16 + ^ .ra: .cfa -24 + ^ x29: .cfa -32 + ^
STACK CFI INIT 127e0 178 .cfa: sp 0 +
STACK CFI 127e4 .cfa: sp 80 +
STACK CFI 127f8 .cfa: x29 80 + x19: .cfa -8 + ^ x20: .cfa -16 + ^ x21: .cfa -24 + ^ x22: .cfa -32 + ^ x23: .cfa -40 + ^ x24: .cfa -48 + ^ x25: .cfa -64 + ^ .ra: .cfa -72 + ^ x29: .cfa -80 + ^
STACK CFI 12924 .cfa: sp 80 +
STACK CFI 12938 .cfa: sp 0 +
STACK CFI 1293c .cfa: x29 80 +
STACK CFI INIT 12aa0 228 .cfa: sp 0 +
STACK CFI 12aa4 .cfa: sp 128 +
STACK CFI 12abc .cfa: x29 80 + x19: .cfa -8 + ^ x20: .cfa -16 + ^ x21: .cfa -24 + ^ x22: .cfa -32 + ^ x23: .cfa -40 + ^ x24: .cfa -48 + ^ x25: .cfa -64 + ^ .ra: .cfa -72 + ^ x29: .cfa -80 + ^
STACK CFI 12c58 .cfa: sp 128 +
STACK CFI 12c70 .cfa: sp 0 +
STACK CFI 12c74 .cfa: x29 80 +
STACK CFI INIT 13510 d8 .cfa: sp 0 +
STACK CFI 13514 .cfa: sp 32 +
STACK CFI 1351c .cfa: x29 32 + x19: .cfa -16 + ^ .ra: .cfa -24 + ^ x29: .cfa -32 + ^
STACK CFI 13550 .cfa: sp 32 +
STACK CFI 13558 .cfa: sp 0 +
STACK CFI 1355c .cfa: x29 32 +
STACK CFI 13560 .cfa: sp 32 +
STACK CFI 13568 .cfa: sp 0 +
STACK CFI 1356c .cfa: x29 32 +
STACK CFI INIT 139c4 480 .cfa: sp 0 +
STACK CFI 139c8 .cfa: sp 224 +
STACK CFI 139e4 .cfa: x29 96 + x19: .cfa -8 + ^ x20: .cfa -16 + ^ x21: .cfa -24 + ^ x22: .cfa -32 + ^ x23: .cfa -40 + ^ x24: .cfa -48 + ^ x25: .cfa -56 + ^ x26: .cfa -64 + ^ x27: .cfa -80 + ^ .ra: .cfa -88 + ^ x29: .cfa -96 + ^
STACK CFI 13c50 .cfa: sp 224 +
STACK CFI 13c6c .cfa: sp 0 +
STACK CFI 13c70 .cfa: x29 96 +
STACK CFI 13d3c .cfa: sp 224 +
STACK CFI 13d58 .cfa: sp 0 +
STACK CFI 13d5c .cfa: x29 96 +
STACK CFI INIT 13e60 308 .cfa: sp 0 +
STACK CFI 13e64 .cfa: sp 176 +
STACK CFI 13e78 .cfa: x29 64 + x19: .cfa -8 + ^ x20: .cfa -16 + ^ x21: .cfa -24 + ^ x22: .cfa -32 + ^ x23: .cfa -48 + ^ .ra: .cfa -56 + ^ x29: .cfa -64 + ^
STACK CFI 14060 .cfa: sp 176 +
STACK CFI 14074 .cfa: sp 0 +
STACK CFI 14078 .cfa: x29 64 +
STACK CFI INIT 14240 a8 .cfa: sp 0 +
STACK CFI 14244 .cfa: sp 32 +
STACK CFI 1424c .cfa: x29 32 + x19: .cfa -16 + ^ .ra: .cfa -24 + ^ x29: .cfa -32 + ^
STACK CFI 14280 .cfa: sp 32 +
STACK CFI 14288 .cfa: sp 0 +
STACK CFI 1428c .cfa: x29 32 +
STACK CFI 14290 .cfa: sp 32 +
STACK CFI 14298 .cfa: sp 0 +
STACK CFI 1429c .cfa: x29 32 +
STACK CFI INIT 14384 654 .cfa: sp 0 +
STACK CFI 14388 .cfa: sp 224 +
STACK CFI 143a4 .cfa: x29 96 + x19: .cfa -8 + ^ x20: .cfa -16 + ^ x21: .cfa -24 + ^ x22: .cfa -32 + ^ x23: .cfa -40 + ^ x24: .cfa -48 + ^ x25: .cfa -56 + ^ x26: .cfa -64 + ^ x27: .cfa -72 + ^ x28: .cfa -80 + ^ .ra: .cfa -88 + ^ x29: .cfa -96 + ^
STACK CFI 14868 .cfa: sp 224 +
STACK CFI 14884 .cfa: sp 0 +
STACK CFI 14888 .cfa: x29 96 +
STACK CFI INIT 14a10 50 .cfa: sp 0 +
STACK CFI 14a14 .cfa: sp 32 +
STACK CFI 14a1c .cfa: x29 32 + x19: .cfa -8 + ^ x20: .cfa -16 + ^ .ra: .cfa -24 + ^ x29: .cfa -32 + ^
STACK CFI INIT 14b34 f4 .cfa: sp 0 +
STACK CFI 14b38 .cfa: sp 64 +
STACK CFI 14b44 .cfa: x29 32 + x19: .cfa -8 + ^ x20: .cfa -16 + ^ .ra: .cfa -24 + ^ x29: .cfa -32 + ^
STACK CFI 14be8 .cfa: sp 64 +
STACK CFI 14bf4 .cfa: sp 0 +
STACK CFI 14bf8 .cfa: x29 32 +
STACK CFI INIT 14c28 f8 .cfa: sp 0 +
STACK CFI 14c2c .cfa: sp 64 +
STACK CFI 14c38 .cfa: x29 32 + x19: .cfa -8 + ^ x20: .cfa -16 + ^ .ra: .cfa -24 + ^ x29: .cfa -32 + ^
STACK CFI 14ce0 .cfa: sp 64 +
STACK CFI 14cec .cfa: sp 0 +
STACK CFI 14cf0 .cfa: x29 32 +
STACK CFI INIT 14d20 fc .cfa: sp 0 +
STACK CFI 14d24 .cfa: sp 80 +
STACK CFI 14d34 .cfa: x29 32 + x19: .cfa -8 + ^ x20: .cfa -16 + ^ .ra: .cfa -24 + ^ x29: .cfa -32 + ^ v8: .cfa -48 + ^
STACK CFI 14dd8 .cfa: sp 80 +
STACK CFI 14de8 .cfa: sp 0 +
STACK CFI 14dec .cfa: x29 32 +
STACK CFI INIT 14e1c a88 .cfa: sp 0 +
STACK CFI 14e20 .cfa: sp 96 +
STACK CFI 14e38 .cfa: x29 96 + x19: .cfa -8 + ^ x20: .cfa -16 + ^ x21: .cfa -24 + ^ x22: .cfa -32 + ^ x23: .cfa -40 + ^ x24: .cfa -48 + ^ x25: .cfa -56 + ^ x26: .cfa -64 + ^ x27: .cfa -72 + ^ x28: .cfa -80 + ^ .ra: .cfa -88 + ^ x29: .cfa -96 + ^
STACK CFI 14f48 .cfa: sp 96 +
STACK CFI 14f60 .cfa: sp 0 +
STACK CFI 14f64 .cfa: x29 96 +
STACK CFI 15794 .cfa: sp 96 +
STACK CFI 157ac .cfa: sp 0 +
STACK CFI 157b0 .cfa: x29 96 +
STACK CFI INIT 1597c 1d0 .cfa: sp 0 +
STACK CFI 15980 .cfa: sp 96 +
STACK CFI 1598c .cfa: x29 32 + x19: .cfa -8 + ^ x20: .cfa -16 + ^ .ra: .cfa -24 + ^ x29: .cfa -32 + ^
STACK CFI 159d0 .cfa: sp 96 +
STACK CFI 159dc .cfa: sp 0 +
STACK CFI 159e0 .cfa: x29 32 +
STACK CFI 15ae8 .cfa: sp 96 +
STACK CFI 15af4 .cfa: sp 0 +
STACK CFI 15af8 .cfa: x29 32 +
STACK CFI 15b14 .cfa: sp 96 +
STACK CFI 15b20 .cfa: sp 0 +
STACK CFI 15b24 .cfa: x29 32 +
STACK CFI INIT 15de8 134 .cfa: sp 0 +
STACK CFI 15dec .cfa: sp 80 +
STACK CFI 15dfc .cfa: x29 48 + x19: .cfa -8 + ^ x20: .cfa -16 + ^ x21: .cfa -24 + ^ x22: .cfa -32 + ^ .ra: .cfa -40 + ^ x29: .cfa -48 + ^
STACK CFI 15f00 .cfa: sp 80 +
STACK CFI 15f10 .cfa: sp 0 +
STACK CFI 15f14 .cfa: x29 48 +
STACK CFI INIT 16020 118 .cfa: sp 0 +
STACK CFI 16024 .cfa: sp 80 +
STACK CFI 16034 .cfa: x29 48 + x19: .cfa -8 + ^ x20: .cfa -16 + ^ x21: .cfa -24 + ^ x22: .cfa -32 + ^ .ra: .cfa -40 + ^ x29: .cfa -48 + ^
STACK CFI 1611c .cfa: sp 80 +
STACK CFI 1612c .cfa: sp 0 +
STACK CFI 16130 .cfa: x29 48 +
STACK CFI INIT 16138 130 .cfa: sp 0 +
STACK CFI 1613c .cfa: sp 96 +
STACK CFI 16150 .cfa: x29 48 + x19: .cfa -8 + ^ x20: .cfa -16 + ^ x21: .cfa -24 + ^ x22: .cfa -32 + ^ .ra: .cfa -40 + ^ x29: .cfa -48 + ^ v8: .cfa -64 + ^
STACK CFI 16248 .cfa: sp 96 +
STACK CFI 1625c .cfa: sp 0 +
STACK CFI 16260 .cfa: x29 48 +
STACK CFI INIT 162b8 1d4 .cfa: sp 0 +
STACK CFI 162bc .cfa: sp 320 +
STACK CFI 162d4 .cfa: x29 80 + x19: .cfa -8 + ^ x20: .cfa -16 + ^ x21: .cfa -24 + ^ x22: .cfa -32 + ^ x23: .cfa -40 + ^ x24: .cfa -48 + ^ x28: .cfa -64 + ^ .ra: .cfa -72 + ^ x29: .cfa -80 + ^
STACK CFI 16440 .cfa: sp 320 +
STACK CFI 16458 .cfa: sp 0 +
STACK CFI 1645c .cfa: x29 80 +
STACK CFI INIT 190d4 cd4 .cfa: sp 0 +
STACK CFI 190d8 .cfa: sp 176 +
STACK CFI 190e8 .cfa: x29 48 + x19: .cfa -8 + ^ x20: .cfa -16 + ^ x21: .cfa -24 + ^ x22: .cfa -32 + ^ .ra: .cfa -40 + ^ x29: .cfa -48 + ^
STACK CFI 19c20 .cfa: sp 176 +
STACK CFI 19c30 .cfa: sp 0 +
STACK CFI 19c34 .cfa: x29 48 +
STACK CFI INIT 19da8 f8 .cfa: sp 0 +
STACK CFI 19dac .cfa: sp 48 +
STACK CFI 19db8 .cfa: x29 48 + x19: .cfa -8 + ^ x20: .cfa -16 + ^ x21: .cfa -32 + ^ .ra: .cfa -40 + ^ x29: .cfa -48 + ^
STACK CFI 19e24 .cfa: sp 48 +
STACK CFI 19e30 .cfa: sp 0 +
STACK CFI 19e34 .cfa: x29 48 +
STACK CFI INIT 19f4c 138 .cfa: sp 0 +
STACK CFI 19f50 .cfa: sp 32 +
STACK CFI 19f58 .cfa: x29 32 + x19: .cfa -8 + ^ x20: .cfa -16 + ^ .ra: .cfa -24 + ^ x29: .cfa -32 + ^
STACK CFI 1a010 .cfa: sp 32 +
STACK CFI 1a018 .cfa: sp 0 +
STACK CFI 1a01c .cfa: x29 32 +
STACK CFI 1a058 .cfa: sp 32 +
STACK CFI 1a060 .cfa: sp 0 +
STACK CFI 1a064 .cfa: x29 32 +
STACK CFI INIT 1a150 174 .cfa: sp 0 +
STACK CFI 1a154 .cfa: sp 112 +
STACK CFI 1a164 .cfa: x29 48 + x19: .cfa -8 + ^ x20: .cfa -16 + ^ x21: .cfa -32 + ^ .ra: .cfa -40 + ^ x29: .cfa -48 + ^
STACK CFI 1a260 .cfa: sp 112 +
STACK CFI 1a270 .cfa: sp 0 +
STACK CFI 1a274 .cfa: x29 48 +
STACK CFI INIT 1a460 13c .cfa: sp 0 +
STACK CFI 1a464 .cfa: sp 48 +
STACK CFI 1a470 .cfa: x29 32 + x19: .cfa -8 + ^ x20: .cfa -16 + ^ .ra: .cfa -24 + ^ x29: .cfa -32 + ^ v8: .cfa -48 + ^
STACK CFI 1a514 .cfa: sp 48 +
STACK CFI 1a520 .cfa: sp 0 +
STACK CFI 1a524 .cfa: x29 32 +
STACK CFI 1a56c .cfa: sp 48 +
STACK CFI 1a578 .cfa: sp 0 +
STACK CFI 1a57c .cfa: x29 32 +
STACK CFI INIT 1a670 130 .cfa: sp 0 +
STACK CFI 1a674 .cfa: sp 32 +
STACK CFI 1a67c .cfa: x29 32 + x19: .cfa -8 + ^ x20: .cfa -16 + ^ .ra: .cfa -24 + ^ x29: .cfa -32 + ^
STACK CFI 1a720 .cfa: sp 32 +
STACK CFI 1a728 .cfa: sp 0 +
STACK CFI 1a72c .cfa: x29 32 +
STACK CFI 1a774 .cfa: sp 32 +
STACK CFI 1a77c .cfa: sp 0 +
STACK CFI 1a780 .cfa: x29 32 +
STACK CFI INIT 1a874 15c .cfa: sp 0 +
STACK CFI 1a878 .cfa: sp 32 +
STACK CFI 1a880 .cfa: x29 32 + x19: .cfa -8 + ^ x20: .cfa -16 + ^ .ra: .cfa -24 + ^ x29: .cfa -32 + ^
STACK CFI 1a950 .cfa: sp 32 +
STACK CFI 1a958 .cfa: sp 0 +
STACK CFI 1a95c .cfa: x29 32 +
STACK CFI 1a9a4 .cfa: sp 32 +
STACK CFI 1a9ac .cfa: sp 0 +
STACK CFI 1a9b0 .cfa: x29 32 +
STACK CFI INIT 1aa54 34c .cfa: sp 0 +
STACK CFI 1aa58 .cfa: sp 96 +
STACK CFI 1aa70 .cfa: x29 96 + x19: .cfa -8 + ^ x20: .cfa -16 + ^ x21: .cfa -24 + ^ x22: .cfa -32 + ^ x23: .cfa -40 + ^ x24: .cfa -48 + ^ x25: .cfa -56 + ^ x26: .cfa -64 + ^ x28: .cfa -80 + ^ .ra: .cfa -88 + ^ x29: .cfa -96 + ^
STACK CFI 1accc .cfa: sp 96 +
STACK CFI 1ace4 .cfa: sp 0 +
STACK CFI 1ace8 .cfa: x29 96 +
STACK CFI INIT 1ae24 4e0 .cfa: sp 0 +
STACK CFI 1ae28 .cfa: sp 96 +
STACK CFI 1ae40 .cfa: x29 96 + x19: .cfa -8 + ^ x20: .cfa -16 + ^ x21: .cfa -24 + ^ x22: .cfa -32 + ^ x23: .cfa -40 + ^ x24: .cfa -48 + ^ x25: .cfa -56 + ^ x26: .cfa -64 + ^ x27: .cfa -72 + ^ x28: .cfa -80 + ^ .ra: .cfa -88 + ^ x29: .cfa -96 + ^
STACK CFI 1b220 .cfa: sp 96 +
STACK CFI 1b238 .cfa: sp 0 +
STACK CFI 1b23c .cfa: x29 96 +
STACK CFI INIT 1b388 224 .cfa: sp 0 +
STACK CFI 1b38c .cfa: sp 80 +
STACK CFI 1b39c .cfa: x29 48 + x19: .cfa -8 + ^ x20: .cfa -16 + ^ x21: .cfa -32 + ^ .ra: .cfa -40 + ^ x29: .cfa -48 + ^
STACK CFI 1b4f0 .cfa: sp 80 +
STACK CFI 1b500 .cfa: sp 0 +
STACK CFI 1b504 .cfa: x29 48 +
STACK CFI INIT 1b630 1c8 .cfa: sp 0 +
STACK CFI 1b634 .cfa: sp 64 +
STACK CFI 1b644 .cfa: x29 48 + x19: .cfa -8 + ^ x20: .cfa -16 + ^ x21: .cfa -32 + ^ .ra: .cfa -40 + ^ x29: .cfa -48 + ^
STACK CFI 1b754 .cfa: sp 64 +
STACK CFI 1b764 .cfa: sp 0 +
STACK CFI 1b768 .cfa: x29 48 +
STACK CFI INIT 1b87c 160 .cfa: sp 0 +
STACK CFI 1b880 .cfa: sp 32 +
STACK CFI 1b888 .cfa: x29 32 + x19: .cfa -8 + ^ x20: .cfa -16 + ^ .ra: .cfa -24 + ^ x29: .cfa -32 + ^
STACK CFI 1b95c .cfa: sp 32 +
STACK CFI 1b964 .cfa: sp 0 +
STACK CFI 1b968 .cfa: x29 32 +
STACK CFI 1b9b0 .cfa: sp 32 +
STACK CFI 1b9b8 .cfa: sp 0 +
STACK CFI 1b9bc .cfa: x29 32 +
STACK CFI INIT 1ba60 13c .cfa: sp 0 +
STACK CFI 1ba64 .cfa: sp 48 +
STACK CFI 1ba70 .cfa: x29 32 + x19: .cfa -8 + ^ x20: .cfa -16 + ^ .ra: .cfa -24 + ^ x29: .cfa -32 + ^ v8: .cfa -48 + ^
STACK CFI 1bb14 .cfa: sp 48 +
STACK CFI 1bb20 .cfa: sp 0 +
STACK CFI 1bb24 .cfa: x29 32 +
STACK CFI 1bb6c .cfa: sp 48 +
STACK CFI 1bb78 .cfa: sp 0 +
STACK CFI 1bb7c .cfa: x29 32 +
STACK CFI INIT 1bc24 160 .cfa: sp 0 +
STACK CFI 1bc28 .cfa: sp 48 +
STACK CFI 1bc34 .cfa: x29 32 + x19: .cfa -8 + ^ x20: .cfa -16 + ^ .ra: .cfa -24 + ^ x29: .cfa -32 + ^ v8: .cfa -48 + ^
STACK CFI 1bcfc .cfa: sp 48 +
STACK CFI 1bd08 .cfa: sp 0 +
STACK CFI 1bd0c .cfa: x29 32 +
STACK CFI 1bd54 .cfa: sp 48 +
STACK CFI 1bd60 .cfa: sp 0 +
STACK CFI 1bd64 .cfa: x29 32 +
STACK CFI INIT 1bdb0 174 .cfa: sp 0 +
STACK CFI 1bdb4 .cfa: sp 112 +
STACK CFI 1bdc4 .cfa: x29 48 + x19: .cfa -8 + ^ x20: .cfa -16 + ^ x21: .cfa -32 + ^ .ra: .cfa -40 + ^ x29: .cfa -48 + ^
STACK CFI 1bec0 .cfa: sp 112 +
STACK CFI 1bed0 .cfa: sp 0 +
STACK CFI 1bed4 .cfa: x29 48 +
STACK CFI INIT 1c074 12c .cfa: sp 0 +
STACK CFI 1c078 .cfa: sp 80 +
STACK CFI 1c088 .cfa: x29 48 + x19: .cfa -8 + ^ x20: .cfa -16 + ^ x21: .cfa -32 + ^ .ra: .cfa -40 + ^ x29: .cfa -48 + ^
STACK CFI 1c120 .cfa: sp 80 +
STACK CFI 1c130 .cfa: sp 0 +
STACK CFI 1c134 .cfa: x29 48 +
STACK CFI INIT 1c228 134 .cfa: sp 0 +
STACK CFI 1c22c .cfa: sp 80 +
STACK CFI 1c238 .cfa: x29 32 + x19: .cfa -8 + ^ x20: .cfa -16 + ^ .ra: .cfa -24 + ^ x29: .cfa -32 + ^
STACK CFI 1c268 .cfa: sp 80 +
STACK CFI 1c274 .cfa: sp 0 +
STACK CFI 1c278 .cfa: x29 32 +
STACK CFI INIT 1c35c 78 .cfa: sp 0 +
STACK CFI 1c360 .cfa: sp 32 +
STACK CFI 1c368 .cfa: x29 32 + x19: .cfa -8 + ^ x20: .cfa -16 + ^ .ra: .cfa -24 + ^ x29: .cfa -32 + ^
STACK CFI 1c374 .cfa: sp 32 +
STACK CFI 1c37c .cfa: sp 0 +
STACK CFI 1c380 .cfa: x29 32 +
STACK CFI INIT 1c3d4 74 .cfa: sp 0 +
STACK CFI 1c3d8 .cfa: sp 48 +
STACK CFI 1c3e4 .cfa: x29 32 + x19: .cfa -8 + ^ x20: .cfa -16 + ^ .ra: .cfa -24 + ^ x29: .cfa -32 + ^
STACK CFI 1c430 .cfa: sp 48 +
STACK CFI 1c43c .cfa: sp 0 +
STACK CFI 1c440 .cfa: x29 32 +
STACK CFI INIT 1c4d0 25c .cfa: sp 0 +
STACK CFI 1c4d4 .cfa: sp 128 +
STACK CFI 1c4e4 .cfa: x29 48 + x19: .cfa -8 + ^ x20: .cfa -16 + ^ x21: .cfa -32 + ^ .ra: .cfa -40 + ^ x29: .cfa -48 + ^
STACK CFI 1c5cc .cfa: sp 128 +
STACK CFI 1c5dc .cfa: sp 0 +
STACK CFI 1c5e0 .cfa: x29 48 +
STACK CFI INIT 1c754 2a0 .cfa: sp 0 +
STACK CFI 1c758 .cfa: sp 144 +
STACK CFI 1c76c .cfa: x29 64 + x19: .cfa -8 + ^ x20: .cfa -16 + ^ x21: .cfa -24 + ^ x22: .cfa -32 + ^ x23: .cfa -48 + ^ .ra: .cfa -56 + ^ x29: .cfa -64 + ^
STACK CFI 1c8a0 .cfa: sp 144 +
STACK CFI 1c8b4 .cfa: sp 0 +
STACK CFI 1c8b8 .cfa: x29 64 +
STACK CFI INIT 1c9f4 4f4 .cfa: sp 0 +
STACK CFI 1c9f8 .cfa: sp 144 +
STACK CFI 1ca0c .cfa: x29 64 + x19: .cfa -8 + ^ x20: .cfa -16 + ^ x21: .cfa -24 + ^ x22: .cfa -32 + ^ x23: .cfa -48 + ^ .ra: .cfa -56 + ^ x29: .cfa -64 + ^
STACK CFI 1cd40 .cfa: sp 144 +
STACK CFI 1cd54 .cfa: sp 0 +
STACK CFI 1cd58 .cfa: x29 64 +
STACK CFI INIT 1cee8 154 .cfa: sp 0 +
STACK CFI 1ceec .cfa: sp 384 +
STACK CFI 1cf00 .cfa: x29 64 + x19: .cfa -8 + ^ x20: .cfa -16 + ^ x21: .cfa -24 + ^ x22: .cfa -32 + ^ x23: .cfa -40 + ^ x28: .cfa -48 + ^ .ra: .cfa -56 + ^ x29: .cfa -64 + ^
STACK CFI 1cfe4 .cfa: sp 384 +
STACK CFI 1cff8 .cfa: sp 0 +
STACK CFI 1cffc .cfa: x29 64 +
STACK CFI INIT 1d03c 168 .cfa: sp 0 +
STACK CFI 1d040 .cfa: sp 384 +
STACK CFI 1d054 .cfa: x29 64 + x19: .cfa -8 + ^ x20: .cfa -16 + ^ x21: .cfa -24 + ^ x22: .cfa -32 + ^ x23: .cfa -40 + ^ x28: .cfa -48 + ^ .ra: .cfa -56 + ^ x29: .cfa -64 + ^
STACK CFI 1d14c .cfa: sp 384 +
STACK CFI 1d160 .cfa: sp 0 +
STACK CFI 1d164 .cfa: x29 64 +
STACK CFI INIT 1d1bc 50c .cfa: sp 0 +
STACK CFI 1d1c0 .cfa: sp 64 +
STACK CFI 1d1d0 .cfa: x29 64 + x19: .cfa -8 + ^ x20: .cfa -16 + ^ x21: .cfa -24 + ^ x22: .cfa -32 + ^ x23: .cfa -40 + ^ x24: .cfa -48 + ^ .ra: .cfa -56 + ^ x29: .cfa -64 + ^
STACK CFI 1d2f0 .cfa: sp 64 +
STACK CFI 1d300 .cfa: sp 0 +
STACK CFI 1d304 .cfa: x29 64 +
STACK CFI 1d69c .cfa: sp 64 +
STACK CFI 1d6ac .cfa: sp 0 +
STACK CFI 1d6b0 .cfa: x29 64 +
STACK CFI INIT 1d9f8 294 .cfa: sp 0 +
STACK CFI 1d9fc .cfa: sp 240 +
STACK CFI 1da14 .cfa: x29 80 + x19: .cfa -8 + ^ x20: .cfa -16 + ^ x21: .cfa -24 + ^ x22: .cfa -32 + ^ x23: .cfa -40 + ^ x24: .cfa -48 + ^ x25: .cfa -64 + ^ .ra: .cfa -72 + ^ x29: .cfa -80 + ^
STACK CFI 1dbb4 .cfa: sp 240 +
STACK CFI 1dbcc .cfa: sp 0 +
STACK CFI 1dbd0 .cfa: x29 80 +
STACK CFI INIT 1dd08 50 .cfa: sp 0 +
STACK CFI 1dd0c .cfa: sp 32 +
STACK CFI 1dd14 .cfa: x29 32 + x19: .cfa -8 + ^ x20: .cfa -16 + ^ .ra: .cfa -24 + ^ x29: .cfa -32 + ^
STACK CFI INIT 1dd84 7c0 .cfa: sp 0 +
STACK CFI 1dd88 .cfa: sp 320 +
STACK CFI 1dda4 .cfa: x29 96 + x19: .cfa -8 + ^ x20: .cfa -16 + ^ x21: .cfa -24 + ^ x22: .cfa -32 + ^ x23: .cfa -40 + ^ x24: .cfa -48 + ^ x25: .cfa -56 + ^ x26: .cfa -64 + ^ x27: .cfa -72 + ^ x28: .cfa -80 + ^ .ra: .cfa -88 + ^ x29: .cfa -96 + ^
STACK CFI 1e3f4 .cfa: sp 320 +
STACK CFI 1e410 .cfa: sp 0 +
STACK CFI 1e414 .cfa: x29 96 +
STACK CFI INIT 22160 c84 .cfa: sp 0 +
STACK CFI 22164 .cfa: sp 96 +
STACK CFI 2217c .cfa: x29 96 + x19: .cfa -8 + ^ x20: .cfa -16 + ^ x21: .cfa -24 + ^ x22: .cfa -32 + ^ x23: .cfa -40 + ^ x24: .cfa -48 + ^ x25: .cfa -56 + ^ x26: .cfa -64 + ^ x27: .cfa -72 + ^ x28: .cfa -80 + ^ .ra: .cfa -88 + ^ x29: .cfa -96 + ^
STACK CFI 22c04 .cfa: sp 96 +
STACK CFI 22c1c .cfa: sp 0 +
STACK CFI 22c20 .cfa: x29 96 +
STACK CFI INIT 22f38 26c .cfa: sp 0 +
STACK CFI 22f3c .cfa: sp 128 +
STACK CFI 22f4c .cfa: x29 48 + x19: .cfa -8 + ^ x20: .cfa -16 + ^ x21: .cfa -24 + ^ x22: .cfa -32 + ^ .ra: .cfa -40 + ^ x29: .cfa -48 + ^
STACK CFI 230f0 .cfa: sp 128 +
STACK CFI 23100 .cfa: sp 0 +
STACK CFI 23104 .cfa: x29 48 +
STACK CFI INIT 23534 3b8 .cfa: sp 0 +
STACK CFI 23538 .cfa: sp 96 +
STACK CFI 23550 .cfa: x29 96 + x19: .cfa -8 + ^ x20: .cfa -16 + ^ x21: .cfa -24 + ^ x22: .cfa -32 + ^ x23: .cfa -40 + ^ x24: .cfa -48 + ^ x25: .cfa -56 + ^ x26: .cfa -64 + ^ x27: .cfa -72 + ^ x28: .cfa -80 + ^ .ra: .cfa -88 + ^ x29: .cfa -96 + ^
STACK CFI 2388c .cfa: sp 96 +
STACK CFI 238a4 .cfa: sp 0 +
STACK CFI 238a8 .cfa: x29 96 +
STACK CFI INIT 2398c cc0 .cfa: sp 0 +
STACK CFI 23990 .cfa: sp 96 +
STACK CFI 239a8 .cfa: x29 96 + x19: .cfa -8 + ^ x20: .cfa -16 + ^ x21: .cfa -24 + ^ x22: .cfa -32 + ^ x23: .cfa -40 + ^ x24: .cfa -48 + ^ x25: .cfa -56 + ^ x26: .cfa -64 + ^ x27: .cfa -72 + ^ x28: .cfa -80 + ^ .ra: .cfa -88 + ^ x29: .cfa -96 + ^
STACK CFI 2445c .cfa: sp 96 +
STACK CFI 24474 .cfa: sp 0 +
STACK CFI 24478 .cfa: x29 96 +
STACK CFI INIT 24934 af8 .cfa: sp 0 +
STACK CFI 24938 .cfa: sp 96 +
STACK CFI 24950 .cfa: x29 96 + x19: .cfa -8 + ^ x20: .cfa -16 + ^ x21: .cfa -24 + ^ x22: .cfa -32 + ^ x23: .cfa -40 + ^ x24: .cfa -48 + ^ x25: .cfa -56 + ^ x26: .cfa -64 + ^ x27: .cfa -72 + ^ x28: .cfa -80 + ^ .ra: .cfa -88 + ^ x29: .cfa -96 + ^
STACK CFI 253a0 .cfa: sp 96 +
STACK CFI 253b8 .cfa: sp 0 +
STACK CFI 253bc .cfa: x29 96 +
STACK CFI INIT 25620 1430 .cfa: sp 0 +
STACK CFI 25624 .cfa: sp 96 +
STACK CFI 2563c .cfa: x29 96 + x19: .cfa -8 + ^ x20: .cfa -16 + ^ x21: .cfa -24 + ^ x22: .cfa -32 + ^ x23: .cfa -40 + ^ x24: .cfa -48 + ^ x25: .cfa -56 + ^ x26: .cfa -64 + ^ x27: .cfa -72 + ^ x28: .cfa -80 + ^ .ra: .cfa -88 + ^ x29: .cfa -96 + ^
STACK CFI 268d8 .cfa: sp 96 +
STACK CFI 268f0 .cfa: sp 0 +
STACK CFI 268f4 .cfa: x29 96 +
STACK CFI INIT 26b74 75c .cfa: sp 0 +
STACK CFI 26b78 .cfa: sp 368 +
STACK CFI 26b94 .cfa: x29 96 + x19: .cfa -8 + ^ x20: .cfa -16 + ^ x21: .cfa -24 + ^ x22: .cfa -32 + ^ x23: .cfa -40 + ^ x24: .cfa -48 + ^ x25: .cfa -56 + ^ x26: .cfa -64 + ^ x27: .cfa -72 + ^ x28: .cfa -80 + ^ .ra: .cfa -88 + ^ x29: .cfa -96 + ^
STACK CFI 26c48 .cfa: sp 368 +
STACK CFI 26c64 .cfa: sp 0 +
STACK CFI 26c68 .cfa: x29 96 +
STACK CFI 26cbc .cfa: sp 368 +
STACK CFI 26cd8 .cfa: sp 0 +
STACK CFI 26cdc .cfa: x29 96 +
STACK CFI INIT 27690 ee0 .cfa: sp 0 +
STACK CFI 27694 .cfa: sp 96 +
STACK CFI 276ac .cfa: x29 96 + x19: .cfa -8 + ^ x20: .cfa -16 + ^ x21: .cfa -24 + ^ x22: .cfa -32 + ^ x23: .cfa -40 + ^ x24: .cfa -48 + ^ x25: .cfa -56 + ^ x26: .cfa -64 + ^ x27: .cfa -72 + ^ x28: .cfa -80 + ^ .ra: .cfa -88 + ^ x29: .cfa -96 + ^
STACK CFI 28368 .cfa: sp 96 +
STACK CFI 28380 .cfa: sp 0 +
STACK CFI 28384 .cfa: x29 96 +
STACK CFI INIT 288e4 14b4 .cfa: sp 0 +
STACK CFI 288e8 .cfa: sp 112 +
STACK CFI 28904 .cfa: x29 96 + x19: .cfa -8 + ^ x20: .cfa -16 + ^ x21: .cfa -24 + ^ x22: .cfa -32 + ^ x23: .cfa -40 + ^ x24: .cfa -48 + ^ x25: .cfa -56 + ^ x26: .cfa -64 + ^ x27: .cfa -72 + ^ x28: .cfa -80 + ^ .ra: .cfa -88 + ^ x29: .cfa -96 + ^ v8: .cfa -112 + ^
STACK CFI 28ce4 .cfa: sp 112 +
STACK CFI 28d00 .cfa: sp 0 +
STACK CFI 28d04 .cfa: x29 96 +
STACK CFI INIT 2c1a8 9a0 .cfa: sp 0 +
STACK CFI 2c1ac .cfa: sp 144 +
STACK CFI 2c1c4 .cfa: x29 80 + x19: .cfa -8 + ^ x20: .cfa -16 + ^ x21: .cfa -24 + ^ x22: .cfa -32 + ^ x23: .cfa -40 + ^ x24: .cfa -48 + ^ x25: .cfa -64 + ^ .ra: .cfa -72 + ^ x29: .cfa -80 + ^
STACK CFI 2cac4 .cfa: sp 144 +
STACK CFI 2cadc .cfa: sp 0 +
STACK CFI 2cae0 .cfa: x29 80 +
STACK CFI INIT 2cb48 57c .cfa: sp 0 +
STACK CFI 2cb4c .cfa: sp 96 +
STACK CFI 2cb64 .cfa: x29 96 + x19: .cfa -8 + ^ x20: .cfa -16 + ^ x21: .cfa -24 + ^ x22: .cfa -32 + ^ x23: .cfa -40 + ^ x24: .cfa -48 + ^ x25: .cfa -56 + ^ x26: .cfa -64 + ^ x27: .cfa -72 + ^ x28: .cfa -80 + ^ .ra: .cfa -88 + ^ x29: .cfa -96 + ^
STACK CFI 2d028 .cfa: sp 96 +
STACK CFI 2d040 .cfa: sp 0 +
STACK CFI 2d044 .cfa: x29 96 +
STACK CFI INIT 2d0c4 67c .cfa: sp 0 +
STACK CFI 2d0c8 .cfa: sp 96 +
STACK CFI 2d0e0 .cfa: x29 96 + x19: .cfa -8 + ^ x20: .cfa -16 + ^ x21: .cfa -24 + ^ x22: .cfa -32 + ^ x23: .cfa -40 + ^ x24: .cfa -48 + ^ x25: .cfa -56 + ^ x26: .cfa -64 + ^ x27: .cfa -72 + ^ x28: .cfa -80 + ^ .ra: .cfa -88 + ^ x29: .cfa -96 + ^
STACK CFI 2d6a4 .cfa: sp 96 +
STACK CFI 2d6bc .cfa: sp 0 +
STACK CFI 2d6c0 .cfa: x29 96 +
