MODULE Linux arm64 3E8FAB1EA29D91B3F2DBB94EE32C51070 cgytrus.menu-shaders.android64.so
INFO CODE_ID 1EAB8F3E9DA2B391F2DBB94EE32C51072EC65074
INFO GENERATOR mozilla/dump_syms 2.3.4
PUBLIC fe40 0 __on_dlclose
PUBLIC fe50 0 __emutls_unregister_key
PUBLIC fe58 0 __on_dlclose_late
PUBLIC fe60 0 __atexit_handler_wrapper
PUBLIC fe74 0 atexit
PUBLIC fe90 0 pthread_atfork
PUBLIC fea0 0 unwind_phase2
PUBLIC ffd4 0 _Unwind_Resume
PUBLIC 10058 0 unwind_phase2_forced
PUBLIC m 1014c 0 __unw_init_local
PUBLIC m 101f4 0 __unw_get_reg
PUBLIC 10270 0 __unw_step_stage2
PUBLIC m 10284 0 __unw_get_proc_info
PUBLIC m 102c4 0 __unw_resume
PUBLIC 102ec 0 libunwind::CFI_Parser<libunwind::LocalAddressSpace>::decodeFDE(libunwind::LocalAddressSpace&, unsigned long, libunwind::CFI_Parser<libunwind::LocalAddressSpace>::FDE_Info*, libunwind::CFI_Parser<libunwind::LocalAddressSpace>::CIE_Info*, bool)
PUBLIC 1047c 0 libunwind::CFI_Parser<libunwind::LocalAddressSpace>::parseCIE(libunwind::LocalAddressSpace&, unsigned long, libunwind::CFI_Parser<libunwind::LocalAddressSpace>::CIE_Info*)
PUBLIC 10744 0 libunwind::AbstractUnwindCursor::~AbstractUnwindCursor()
PUBLIC 1074c 0 libunwind::UnwindCursor<libunwind::LocalAddressSpace, libunwind::Registers_arm64>::~UnwindCursor()
PUBLIC 10754 0 libunwind::UnwindCursor<libunwind::LocalAddressSpace, libunwind::Registers_arm64>::validReg(int)
PUBLIC 10798 0 libunwind::UnwindCursor<libunwind::LocalAddressSpace, libunwind::Registers_arm64>::getReg(int)
PUBLIC 10880 0 libunwind::UnwindCursor<libunwind::LocalAddressSpace, libunwind::Registers_arm64>::setReg(int, unsigned long)
PUBLIC 10968 0 libunwind::UnwindCursor<libunwind::LocalAddressSpace, libunwind::Registers_arm64>::validFloatReg(int)
PUBLIC 1097c 0 libunwind::UnwindCursor<libunwind::LocalAddressSpace, libunwind::Registers_arm64>::getFloatReg(int)
PUBLIC 1098c 0 libunwind::UnwindCursor<libunwind::LocalAddressSpace, libunwind::Registers_arm64>::setFloatReg(int, double)
PUBLIC 1099c 0 libunwind::UnwindCursor<libunwind::LocalAddressSpace, libunwind::Registers_arm64>::step(bool)
PUBLIC 10a8c 0 libunwind::UnwindCursor<libunwind::LocalAddressSpace, libunwind::Registers_arm64>::getInfo(unw_proc_info_t*)
PUBLIC 10ad0 0 libunwind::UnwindCursor<libunwind::LocalAddressSpace, libunwind::Registers_arm64>::jumpto()
PUBLIC 10adc 0 libunwind::UnwindCursor<libunwind::LocalAddressSpace, libunwind::Registers_arm64>::isSignalFrame()
PUBLIC 10ae8 0 libunwind::UnwindCursor<libunwind::LocalAddressSpace, libunwind::Registers_arm64>::getFunctionName(char*, unsigned long, unsigned long*)
PUBLIC 10b14 0 libunwind::UnwindCursor<libunwind::LocalAddressSpace, libunwind::Registers_arm64>::setInfoBasedOnIPRegister(bool)
PUBLIC 10d94 0 libunwind::UnwindCursor<libunwind::LocalAddressSpace, libunwind::Registers_arm64>::getRegisterName(int)
PUBLIC 10da0 0 libunwind::UnwindCursor<libunwind::LocalAddressSpace, libunwind::Registers_arm64>::stepThroughSigReturn(libunwind::Registers_arm64&)
PUBLIC 10ec0 0 libunwind::DwarfInstructions<libunwind::LocalAddressSpace, libunwind::Registers_arm64>::stepWithDwarf(libunwind::LocalAddressSpace&, unsigned long, unsigned long, libunwind::Registers_arm64&, bool&, bool)
PUBLIC 11348 0 libunwind::CFI_Parser<libunwind::LocalAddressSpace>::parseFDEInstructions(libunwind::LocalAddressSpace&, libunwind::CFI_Parser<libunwind::LocalAddressSpace>::FDE_Info const&, libunwind::CFI_Parser<libunwind::LocalAddressSpace>::CIE_Info const&, unsigned long, int, libunwind::CFI_Parser<libunwind::LocalAddressSpace>::PrologInfo*)
PUBLIC 11f90 0 libunwind::DwarfInstructions<libunwind::LocalAddressSpace, libunwind::Registers_arm64>::getCFA(libunwind::LocalAddressSpace&, libunwind::CFI_Parser<libunwind::LocalAddressSpace>::PrologInfo const&, libunwind::Registers_arm64 const&)
PUBLIC 120c4 0 libunwind::DwarfInstructions<libunwind::LocalAddressSpace, libunwind::Registers_arm64>::getSavedRegister(libunwind::LocalAddressSpace&, libunwind::Registers_arm64 const&, unsigned long, libunwind::CFI_Parser<libunwind::LocalAddressSpace>::RegisterLocation const&)
PUBLIC 122d4 0 libunwind::LocalAddressSpace::getEncodedP(unsigned long&, unsigned long, unsigned char, unsigned long)
PUBLIC 12660 0 libunwind::LocalAddressSpace::getULEB128(unsigned long&, unsigned long)
PUBLIC 12828 0 libunwind::DwarfInstructions<libunwind::LocalAddressSpace, libunwind::Registers_arm64>::evaluateExpression(unsigned long, libunwind::LocalAddressSpace&, libunwind::Registers_arm64 const&, unsigned long)
PUBLIC 131e4 0 libunwind::UnwindCursor<libunwind::LocalAddressSpace, libunwind::Registers_arm64>::getInfoFromDwarfSection(unsigned long, libunwind::UnwindInfoSections const&, unsigned int)
PUBLIC 134b8 0 libunwind::findUnwindSectionsByPhdr(dl_phdr_info*, unsigned long, void*)
PUBLIC 135ec 0 libunwind::EHHeaderParser<libunwind::LocalAddressSpace>::decodeEHHdr(libunwind::LocalAddressSpace&, unsigned long, unsigned long, libunwind::EHHeaderParser<libunwind::LocalAddressSpace>::EHHeaderInfo&)
PUBLIC 1370c 0 libunwind::CFI_Parser<libunwind::LocalAddressSpace>::findFDE(libunwind::LocalAddressSpace&, unsigned long, unsigned long, unsigned long, unsigned long, libunwind::CFI_Parser<libunwind::LocalAddressSpace>::FDE_Info*, libunwind::CFI_Parser<libunwind::LocalAddressSpace>::CIE_Info*)
PUBLIC 138d4 0 libunwind::EHHeaderParser<libunwind::LocalAddressSpace>::findFDE(libunwind::LocalAddressSpace&, unsigned long, unsigned long, unsigned int, libunwind::CFI_Parser<libunwind::LocalAddressSpace>::FDE_Info*, libunwind::CFI_Parser<libunwind::LocalAddressSpace>::CIE_Info*)
PUBLIC 13a3c 0 libunwind::EHHeaderParser<libunwind::LocalAddressSpace>::getTableEntrySize(unsigned char)
PUBLIC 13b38 0 libunwind::Registers_arm64::getRegisterName(int)
PUBLIC 13b68 0 __libunwind_Registers_arm64_jumpto
PUBLIC m 13bf8 0 __unw_getcontext
PUBLIC 13ca0 0 __aarch64_ldadd8_relax
PUBLIC 13cd0 0 init_have_lse_atomics
PUBLIC 13d68 0 __init_cpu_features_constructor
PUBLIC 14304 0 __init_cpu_features
PUBLIC 14390 0 __aarch64_ldadd8_acq_rel
PUBLIC 143c0 0 __cxx_global_var_init
PUBLIC 1481c 0 __cxx_global_var_init.1
PUBLIC 14c78 0 __cxx_global_var_init.2
PUBLIC 150d4 0 __cxx_global_var_init.3
PUBLIC 15530 0 __cxx_global_var_init.4
PUBLIC 1598c 0 __cxx_global_var_init.5
PUBLIC 15de8 0 __cxx_global_var_init.6
PUBLIC 16244 0 __cxx_global_var_init.7
PUBLIC 166a0 0 __cxx_global_var_init.8
PUBLIC 16afc 0 __cxx_global_var_init.9
PUBLIC 16f58 0 __cxx_global_var_init.10
PUBLIC 173b4 0 __cxx_global_var_init.11
PUBLIC 17810 0 geode::modifier::ModifyBase<geode::modifier::ModifyDerive<hook580<(anonymous namespace)::hook580Parent>, MenuLayer> >::~ModifyBase()
PUBLIC 17828 0 geode::modifier::ModifyBase<geode::modifier::ModifyDerive<hook590<(anonymous namespace)::hook590Parent>, LevelSelectLayer> >::~ModifyBase()
PUBLIC 17840 0 geode::modifier::ModifyBase<geode::modifier::ModifyDerive<hook609<(anonymous namespace)::hook609Parent>, CreatorLayer> >::~ModifyBase()
PUBLIC 17858 0 geode::modifier::ModifyBase<geode::modifier::ModifyDerive<hook624<(anonymous namespace)::hook624Parent>, LevelBrowserLayer> >::~ModifyBase()
PUBLIC 17870 0 geode::modifier::ModifyBase<geode::modifier::ModifyDerive<hook639<(anonymous namespace)::hook639Parent>, EditLevelLayer> >::~ModifyBase()
PUBLIC 17888 0 geode::modifier::ModifyBase<geode::modifier::ModifyDerive<hook658<(anonymous namespace)::hook658Parent>, LevelInfoLayer> >::~ModifyBase()
PUBLIC 178a0 0 geode::modifier::ModifyBase<geode::modifier::ModifyDerive<hook673<(anonymous namespace)::hook673Parent>, LevelSearchLayer> >::~ModifyBase()
PUBLIC 178b8 0 geode::modifier::ModifyBase<geode::modifier::ModifyDerive<hook695<(anonymous namespace)::hook695Parent>, GJGarageLayer> >::~ModifyBase()
PUBLIC 178d0 0 geode::modifier::ModifyBase<geode::modifier::ModifyDerive<hook714<(anonymous namespace)::hook714Parent>, LeaderboardsLayer> >::~ModifyBase()
PUBLIC 178e8 0 geode::modifier::ModifyBase<geode::modifier::ModifyDerive<hook729<(anonymous namespace)::hook729Parent>, GauntletSelectLayer> >::~ModifyBase()
PUBLIC 17900 0 geode::modifier::ModifyBase<geode::modifier::ModifyDerive<hook746<(anonymous namespace)::hook746Parent>, GauntletLayer> >::~ModifyBase()
PUBLIC 17918 0 geode::modifier::ModifyBase<geode::modifier::ModifyDerive<hook756<(anonymous namespace)::hook756Parent>, SecretRewardsLayer> >::~ModifyBase()
PUBLIC 17930 0 geode::modifier::ModifyDerive<hook580<(anonymous namespace)::hook580Parent>, MenuLayer>::apply()
PUBLIC 17c28 0 std::__ndk1::shared_ptr<geode::Hook>::~shared_ptr[abi:ne180000]()
PUBLIC 17c78 0 geode::impl::ResultData<geode::Hook*, std::__ndk1::basic_string<char, std::__ndk1::char_traits<char>, std::__ndk1::allocator<char> > >::~ResultData()
PUBLIC 17cec 0 std::__ndk1::vector<std::__ndk1::basic_string<char, std::__ndk1::char_traits<char>, std::__ndk1::allocator<char> >, std::__ndk1::allocator<std::__ndk1::basic_string<char, std::__ndk1::char_traits<char>, std::__ndk1::allocator<char> > > >::~vector[abi:ne180000]()
PUBLIC 17d68 0 geode::modifier::ModifyBase<geode::modifier::ModifyDerive<hook580<(anonymous namespace)::hook580Parent>, MenuLayer> >::apply()
PUBLIC 17d6c 0 __clang_call_terminate
PUBLIC 17d7c 0 _ZN5geode15UnwrapExceptionC2IRPNS_4HookEQsr4implE18IsStringStreamableIT_EEENS_4impl5OkTagEOS5_
PUBLIC 17ed0 0 std::__ndk1::__throw_bad_variant_access[abi:ne180000]()
PUBLIC 17f04 0 std::__ndk1::basic_stringstream<char, std::__ndk1::char_traits<char>, std::__ndk1::allocator<char> >::basic_stringstream[abi:ne180000]()
PUBLIC m 18030 0 std::__ndk1::basic_stringstream<char, std::__ndk1::char_traits<char>, std::__ndk1::allocator<char> >::~basic_stringstream()
PUBLIC 180b0 0 geode::UnwrapException::~UnwrapException()
PUBLIC 180d4 0 std::__ndk1::__put_character_sequence[abi:ne180000]<char, std::__ndk1::char_traits<char> >(std::__ndk1::basic_ostream<char, std::__ndk1::char_traits<char> >, std::__ndk1::basic_ostream const*, unsigned long)
PUBLIC 183ac 0 std::__ndk1::basic_string<char, std::__ndk1::char_traits<char>, std::__ndk1::allocator<char> >::__throw_length_error[abi:ne180000]() const
PUBLIC 183c0 0 std::__ndk1::__throw_length_error[abi:ne180000](char const*)
PUBLIC 18410 0 std::length_error::length_error[abi:ne180000](char const*)
PUBLIC 18440 0 std::__throw_bad_array_new_length([abi:ne180000], void)
PUBLIC 18474 0 std::__ndk1::basic_stringbuf<char, std::__ndk1::char_traits<char>, std::__ndk1::allocator<char> >::str[abi:ne180000]() &&
PUBLIC 185e8 0 std::__ndk1::basic_stringbuf<char, std::__ndk1::char_traits<char>, std::__ndk1::allocator<char> >::__init_buf_ptrs[abi:ne180000]()
PUBLIC 18730 0 std::__ndk1::vector<std::__ndk1::basic_string<char, std::__ndk1::char_traits<char>, std::__ndk1::allocator<char> >, std::__ndk1::allocator<std::__ndk1::basic_string<char, std::__ndk1::char_traits<char>, std::__ndk1::allocator<char> > > >::__push_back_slow_path<std::__ndk1::basic_string<char, std::__ndk1::char_traits<char>, std::__ndk1::allocator<char> > const&>(std::__ndk1::basic_string<char, std::__ndk1::char_traits<char>, std::__ndk1::allocator<char> > const&)
PUBLIC 18954 0 std::__ndk1::basic_string<char, std::__ndk1::char_traits<char>, std::__ndk1::allocator<char> >::__init_copy_ctor_external(char const*, unsigned long)
PUBLIC 189d4 0 std::__ndk1::__split_buffer<std::__ndk1::basic_string<char, std::__ndk1::char_traits<char>, std::__ndk1::allocator<char> >, std::__ndk1::allocator<std::__ndk1::basic_string<char, std::__ndk1::char_traits<char>, std::__ndk1::allocator<char> > >&>::~__split_buffer()
PUBLIC 18a3c 0 std::__ndk1::vector<std::__ndk1::basic_string<char, std::__ndk1::char_traits<char>, std::__ndk1::allocator<char> >, std::__ndk1::allocator<std::__ndk1::basic_string<char, std::__ndk1::char_traits<char>, std::__ndk1::allocator<char> > > >::__throw_length_error[abi:ne180000]() const
PUBLIC 18a50 0 std::__ndk1::__variant_detail::__visitation::__base::__dispatcher<(unsigned long)0>::__dispatch[abi:ne180000]<std::__ndk1::__variant_detail::__dtor<std::__ndk1::__variant_detail::__traits<geode::Hook*, std::__ndk1::basic_string<char, std::__ndk1::char_traits<char>, std::__ndk1::allocator<char> > >, (std::__ndk1::__variant_detail::_Trait)1>::__destroy[abi:ne180000]()::{lambda(auto:1&)#1}, std::__ndk1::__variant_detail::__base<(std::__ndk1::__variant_detail::__traits<geode::Hook*, std::__ndk1::basic_string<char, std::__ndk1::char_traits<char>, std::__ndk1::allocator<char> > >)1, geode::Hook, std::__ndk1::allocator<char> >&>(std::__ndk1::__variant_detail::__dtor<std::__ndk1::__variant_detail::__traits<geode::Hook*, std::__ndk1::basic_string<char, std::__ndk1::char_traits<char>, std::__ndk1::allocator<char> > >, (std::__ndk1::__variant_detail::_Trait)1>, std::__ndk1::__variant_detail::__base<(std::__ndk1::__variant_detail::__traits<geode::Hook*, std::__ndk1::basic_string<char, std::__ndk1::char_traits<char>, std::__ndk1::allocator<char> > >)1, geode::Hook, std::__ndk1::allocator<char> >&)
PUBLIC 18a54 0 std::__ndk1::__variant_detail::__visitation::__base::__dispatcher<(unsigned long)1>::__dispatch[abi:ne180000]<std::__ndk1::__variant_detail::__dtor<std::__ndk1::__variant_detail::__traits<geode::Hook*, std::__ndk1::basic_string<char, std::__ndk1::char_traits<char>, std::__ndk1::allocator<char> > >, (std::__ndk1::__variant_detail::_Trait)1>::__destroy[abi:ne180000]()::{lambda(auto:1&)#1}, std::__ndk1::__variant_detail::__base<(std::__ndk1::__variant_detail::__traits<geode::Hook*, std::__ndk1::basic_string<char, std::__ndk1::char_traits<char>, std::__ndk1::allocator<char> > >)1, geode::Hook, std::__ndk1::allocator<char> >&>(std::__ndk1::__variant_detail::__dtor<std::__ndk1::__variant_detail::__traits<geode::Hook*, std::__ndk1::basic_string<char, std::__ndk1::char_traits<char>, std::__ndk1::allocator<char> > >, (std::__ndk1::__variant_detail::_Trait)1>, std::__ndk1::__variant_detail::__base<(std::__ndk1::__variant_detail::__traits<geode::Hook*, std::__ndk1::basic_string<char, std::__ndk1::char_traits<char>, std::__ndk1::allocator<char> > >)1, geode::Hook, std::__ndk1::allocator<char> >&)
PUBLIC 18a68 0 std::__ndk1::__tree<std::__ndk1::__value_type<std::__ndk1::basic_string<char, std::__ndk1::char_traits<char>, std::__ndk1::allocator<char> >, std::__ndk1::shared_ptr<geode::Hook> >, std::__ndk1::__map_value_compare<std::__ndk1::basic_string<char, std::__ndk1::char_traits<char>, std::__ndk1::allocator<char> >, std::__ndk1::__value_type<std::__ndk1::basic_string<char, std::__ndk1::char_traits<char>, std::__ndk1::allocator<char> >, std::__ndk1::shared_ptr<geode::Hook> >, std::__ndk1::less<std::__ndk1::basic_string<char, std::__ndk1::char_traits<char>, std::__ndk1::allocator<char> > >, true>, std::__ndk1::allocator<std::__ndk1::__value_type<std::__ndk1::basic_string<char, std::__ndk1::char_traits<char>, std::__ndk1::allocator<char> >, std::__ndk1::shared_ptr<geode::Hook> > > >::find<std::__ndk1::basic_string<char, std::__ndk1::char_traits<char>, std::__ndk1::allocator<char> > >(std::__ndk1::basic_string<char, std::__ndk1::char_traits<char>, std::__ndk1::allocator<char> > const&)
PUBLIC 18b88 0 std::__ndk1::__tree<std::__ndk1::__value_type<std::__ndk1::basic_string<char, std::__ndk1::char_traits<char>, std::__ndk1::allocator<char> >, std::__ndk1::shared_ptr<geode::Hook> >, std::__ndk1::__map_value_compare<std::__ndk1::basic_string<char, std::__ndk1::char_traits<char>, std::__ndk1::allocator<char> >, std::__ndk1::__value_type<std::__ndk1::basic_string<char, std::__ndk1::char_traits<char>, std::__ndk1::allocator<char> >, std::__ndk1::shared_ptr<geode::Hook> >, std::__ndk1::less<std::__ndk1::basic_string<char, std::__ndk1::char_traits<char>, std::__ndk1::allocator<char> > >, true>, std::__ndk1::allocator<std::__ndk1::__value_type<std::__ndk1::basic_string<char, std::__ndk1::char_traits<char>, std::__ndk1::allocator<char> >, std::__ndk1::shared_ptr<geode::Hook> > > >::erase(std::__ndk1::__tree_const_iterator<std::__ndk1::__value_type<std::__ndk1::basic_string<char, std::__ndk1::char_traits<char>, std::__ndk1::allocator<char> >, std::__ndk1::shared_ptr<geode::Hook> >, std::__ndk1::__tree_node<std::__ndk1::__value_type<std::__ndk1::basic_string<char, std::__ndk1::char_traits<char>, std::__ndk1::allocator<char> >, std::__ndk1::shared_ptr<geode::Hook> >, void*>*, long>)
PUBLIC 1902c 0 std::__ndk1::__tree<std::__ndk1::__value_type<std::__ndk1::basic_string<char, std::__ndk1::char_traits<char>, std::__ndk1::allocator<char> >, std::__ndk1::shared_ptr<geode::Hook> >, std::__ndk1::__map_value_compare<std::__ndk1::basic_string<char, std::__ndk1::char_traits<char>, std::__ndk1::allocator<char> >, std::__ndk1::__value_type<std::__ndk1::basic_string<char, std::__ndk1::char_traits<char>, std::__ndk1::allocator<char> >, std::__ndk1::shared_ptr<geode::Hook> >, std::__ndk1::less<std::__ndk1::basic_string<char, std::__ndk1::char_traits<char>, std::__ndk1::allocator<char> > >, true>, std::__ndk1::allocator<std::__ndk1::__value_type<std::__ndk1::basic_string<char, std::__ndk1::char_traits<char>, std::__ndk1::allocator<char> >, std::__ndk1::shared_ptr<geode::Hook> > > >::destroy(std::__ndk1::__tree_node<std::__ndk1::__value_type<std::__ndk1::basic_string<char, std::__ndk1::char_traits<char>, std::__ndk1::allocator<char> >, std::__ndk1::shared_ptr<geode::Hook> >, void*>*)
PUBLIC 190b0 0 geode::modifier::AsStaticFunction_init<hook580<(anonymous namespace)::hook580Parent>, bool (hook580<(anonymous namespace)::hook580Parent>::*)()>::Impl<bool (hook580<(anonymous namespace)::hook580Parent>::*)()>::function(hook580<(anonymous namespace)::hook580Parent>*)
PUBLIC 191a8 0 geode::addresser::Addresser::addressOfVirtual<bool, MenuLayer, >(bool (MenuLayer::*)())
PUBLIC 19250 0 MenuLayer::MenuLayer(geode::ZeroConstructorType)
PUBLIC 192ec 0 cocos2d::CCCopying::copyWithZone(cocos2d::CCZone*)
PUBLIC 192f4 0 std::__ndk1::shared_ptr<tulip::hook::CallingConvention>::~shared_ptr[abi:ne180000]()
PUBLIC 19344 0 tulip::hook::HandlerMetadata::~HandlerMetadata()
PUBLIC 193a8 0 ShaderNode::tryAddToNode(cocos2d::CCNode*, std::__ndk1::basic_string<char, std::__ndk1::char_traits<char>, std::__ndk1::allocator<char> > const&, int)
PUBLIC 1b654 0 geode::Mod::getSettingValue<bool>(std::__ndk1::basic_string_view<char, std::__ndk1::char_traits<char> >) const
PUBLIC 1b784 0 geode::impl::ResultData<ShaderNode*, std::__ndk1::basic_string<char, std::__ndk1::char_traits<char>, std::__ndk1::allocator<char> > >::~ResultData()
PUBLIC 1b7f8 0 geode::cast::traverseTypeinfoFor(void*, geode::cast::ClassTypeinfoType const*, char const*)
PUBLIC 1b8f0 0 geode::impl::ResultData<std::__ndk1::basic_string<char, std::__ndk1::char_traits<char>, std::__ndk1::allocator<char> >, std::__ndk1::basic_string<char, std::__ndk1::char_traits<char>, std::__ndk1::allocator<char> > >::~ResultData()
PUBLIC 1b964 0 _ZN5geode15UnwrapExceptionC2IRNSt6__ndk112basic_stringIcNS2_11char_traitsIcEENS2_9allocatorIcEEEEQsr4implE18IsStringStreamableIT_EEENS_4impl5OkTagEOSA_
PUBLIC 1bacc 0 _ZN5geode15UnwrapExceptionC2IRNSt6__ndk112basic_stringIcNS2_11char_traitsIcEENS2_9allocatorIcEEEEQsr4implE18IsStringStreamableIT_EEENS_4impl6ErrTagEOSA_
PUBLIC 1bc34 0 std::__ndk1::basic_string<char, std::__ndk1::char_traits<char>, std::__ndk1::allocator<char> >::__throw_out_of_range[abi:ne180000]() const
PUBLIC 1bc40 0 std::__ndk1::__throw_out_of_range[abi:ne180000](char const*)
PUBLIC 1bc88 0 std::out_of_range::out_of_range[abi:ne180000](char const*)
PUBLIC 1bcc0 0 ShaderNode::init(std::__ndk1::basic_string<char, std::__ndk1::char_traits<char>, std::__ndk1::allocator<char> > const&, std::__ndk1::basic_string<char, std::__ndk1::char_traits<char>, std::__ndk1::allocator<char> > const&)
PUBLIC 1ecf0 0 std::__ndk1::vector<std::__ndk1::tuple<std::__ndk1::basic_string<char, std::__ndk1::char_traits<char>, std::__ndk1::allocator<char> >, cocos2d::CCNode*, int, int, int, int, int>, std::__ndk1::allocator<std::__ndk1::tuple<std::__ndk1::basic_string<char, std::__ndk1::char_traits<char>, std::__ndk1::allocator<char> >, cocos2d::CCNode*, int, int, int, int, int> > >::~vector[abi:ne180000]()
PUBLIC 1ed6c 0 ShaderNode::~ShaderNode()
PUBLIC 1ee18 0 ShaderNode::~ShaderNode()
PUBLIC 1ee3c 0 ShaderNode::update(float)
PUBLIC 1f03c 0 ShaderNode::draw()
PUBLIC 1f400 0 ShaderNode::getStuffRecursive(cocos2d::CCNode*)
PUBLIC 1f53c 0 geode::impl::ResultData<void, std::__ndk1::basic_string<char, std::__ndk1::char_traits<char>, std::__ndk1::allocator<char> > >::~ResultData()
PUBLIC 1f5b0 0 ShaderNode::init(std::__ndk1::basic_string<char, std::__ndk1::char_traits<char>, std::__ndk1::allocator<char> > const&, std::__ndk1::basic_string<char, std::__ndk1::char_traits<char>, std::__ndk1::allocator<char> > const&)::{lambda(std::__ndk1::basic_string<char, std::__ndk1::char_traits<char>, std::__ndk1::allocator<char> > const&)#2}::operator()(std::__ndk1::basic_string<char, std::__ndk1::char_traits<char>, std::__ndk1::allocator<char> > const&) const
PUBLIC 1fe3c 0 std::__ndk1::basic_istringstream<char, std::__ndk1::char_traits<char>, std::__ndk1::allocator<char> >::~basic_istringstream()
PUBLIC 1feb8 0 Shader::compile(std::__ndk1::basic_string<char, std::__ndk1::char_traits<char>, std::__ndk1::allocator<char> >, std::__ndk1::basic_string<char, std::__ndk1::char_traits<char>, std::__ndk1::allocator<char> >)::{lambda(unsigned int)#1}::operator()(unsigned int) const
PUBLIC 1ffd0 0 std::__ndk1::basic_string<char, std::__ndk1::char_traits<char>, std::__ndk1::allocator<char> >::__erase_external_with_move(unsigned long, unsigned long)
PUBLIC 20058 0 std::__ndk1::__variant_detail::__visitation::__base::__dispatcher<(unsigned long)0>::__dispatch[abi:ne180000]<std::__ndk1::__variant_detail::__dtor<std::__ndk1::__variant_detail::__traits<std::__ndk1::monostate, std::__ndk1::basic_string<char, std::__ndk1::char_traits<char>, std::__ndk1::allocator<char> > >, (std::__ndk1::__variant_detail::_Trait)1>::__destroy[abi:ne180000]()::{lambda(auto:1&)#1}, std::__ndk1::__variant_detail::__base<(std::__ndk1::__variant_detail::__traits<std::__ndk1::monostate, std::__ndk1::basic_string<char, std::__ndk1::char_traits<char>, std::__ndk1::allocator<char> > >)1, std::__ndk1::__variant_detail::__traits, std::__ndk1::allocator<char> >&>(std::__ndk1::__variant_detail::__dtor<std::__ndk1::__variant_detail::__traits<std::__ndk1::monostate, std::__ndk1::basic_string<char, std::__ndk1::char_traits<char>, std::__ndk1::allocator<char> > >, (std::__ndk1::__variant_detail::_Trait)1>, std::__ndk1::__variant_detail::__base<(std::__ndk1::__variant_detail::__traits<std::__ndk1::monostate, std::__ndk1::basic_string<char, std::__ndk1::char_traits<char>, std::__ndk1::allocator<char> > >)1, std::__ndk1::__variant_detail::__traits, std::__ndk1::allocator<char> >&)
PUBLIC 2005c 0 std::__ndk1::__variant_detail::__visitation::__base::__dispatcher<(unsigned long)1>::__dispatch[abi:ne180000]<std::__ndk1::__variant_detail::__dtor<std::__ndk1::__variant_detail::__traits<std::__ndk1::monostate, std::__ndk1::basic_string<char, std::__ndk1::char_traits<char>, std::__ndk1::allocator<char> > >, (std::__ndk1::__variant_detail::_Trait)1>::__destroy[abi:ne180000]()::{lambda(auto:1&)#1}, std::__ndk1::__variant_detail::__base<(std::__ndk1::__variant_detail::__traits<std::__ndk1::monostate, std::__ndk1::basic_string<char, std::__ndk1::char_traits<char>, std::__ndk1::allocator<char> > >)1, std::__ndk1::__variant_detail::__traits, std::__ndk1::allocator<char> >&>(std::__ndk1::__variant_detail::__dtor<std::__ndk1::__variant_detail::__traits<std::__ndk1::monostate, std::__ndk1::basic_string<char, std::__ndk1::char_traits<char>, std::__ndk1::allocator<char> > >, (std::__ndk1::__variant_detail::_Trait)1>, std::__ndk1::__variant_detail::__base<(std::__ndk1::__variant_detail::__traits<std::__ndk1::monostate, std::__ndk1::basic_string<char, std::__ndk1::char_traits<char>, std::__ndk1::allocator<char> > >)1, std::__ndk1::__variant_detail::__traits, std::__ndk1::allocator<char> >&)
PUBLIC 20070 0 std::__ndk1::__variant_detail::__visitation::__base::__dispatcher<(unsigned long)0, (unsigned long)0>::__dispatch[abi:ne180000]<std::__ndk1::__variant_detail::__assignment<std::__ndk1::__variant_detail::__traits<std::__ndk1::monostate, std::__ndk1::basic_string<char, std::__ndk1::char_traits<char>, std::__ndk1::allocator<char> > > >::__generic_assign[abi:ne180000]<std::__ndk1::__variant_detail::__move_assignment<std::__ndk1::basic_string<char, std::__ndk1::char_traits<char>, std::__ndk1::allocator<char> >, (std::__ndk1::__variant_detail::_Trait)1> >(std::__ndk1::__variant_detail::__move_assignment<std::__ndk1::basic_string<char, std::__ndk1::char_traits<char>, std::__ndk1::allocator<char> >, (std::__ndk1::__variant_detail::_Trait)1>&&)::{lambda(std::__ndk1::__variant_detail::_Trait&, auto:2&&)#1}, std::__ndk1::__variant_detail::__base<(std::__ndk1::__variant_detail::__assignment<std::__ndk1::__variant_detail::__traits<std::__ndk1::monostate, std::__ndk1::basic_string<char, std::__ndk1::char_traits<char>, std::__ndk1::allocator<char> > > >::__generic_assign[abi:ne180000])1, std::__ndk1::__variant_detail::__traits, std::__ndk1::allocator<char> >&, std::__ndk1::__variant_detail::__assignment<std::__ndk1::__variant_detail::__traits<std::__ndk1::monostate, std::__ndk1::basic_string<char, std::__ndk1::char_traits<char>, std::__ndk1::allocator<char> > > >::__generic_assign[abi:ne180000]<std::__ndk1::__variant_detail::__move_assignment<std::__ndk1::basic_string<char, std::__ndk1::char_traits<char>, std::__ndk1::allocator<char> >, (std::__ndk1::__variant_detail::_Trait)1> >(std::__ndk1::__variant_detail::__move_assignment<std::__ndk1::basic_string<char, std::__ndk1::char_traits<char>, std::__ndk1::allocator<char> >, (std::__ndk1::__variant_detail::_Trait)1>&&)::{lambda(std::__ndk1::__variant_detail::_Trait&, auto:2&&)#1}>(std::__ndk1::__variant_detail::_Trait, std::__ndk1::__variant_detail::__base<(std::__ndk1::__variant_detail::__assignment<std::__ndk1::__variant_detail::__traits<std::__ndk1::monostate, std::__ndk1::basic_string<char, std::__ndk1::char_traits<char>, std::__ndk1::allocator<char> > > >::__generic_assign[abi:ne180000])1, std::__ndk1::__variant_detail::__traits, std::__ndk1::allocator<char> >&, std::__ndk1::__variant_detail::__assignment<std::__ndk1::__variant_detail::__traits<std::__ndk1::monostate, std::__ndk1::basic_string<char, std::__ndk1::char_traits<char>, std::__ndk1::allocator<char> > > >::__generic_assign[abi:ne180000]<std::__ndk1::__variant_detail::__move_assignment<std::__ndk1::basic_string<char, std::__ndk1::char_traits<char>, std::__ndk1::allocator<char> >, (std::__ndk1::__variant_detail::_Trait)1> >(std::__ndk1::__variant_detail::__move_assignment<std::__ndk1::basic_string<char, std::__ndk1::char_traits<char>, std::__ndk1::allocator<char> >, (std::__ndk1::__variant_detail::_Trait)1>&&)::{lambda(std::__ndk1::__variant_detail::_Trait&, auto:2&&)#1})
PUBLIC 200e4 0 std::__ndk1::__variant_detail::__visitation::__base::__dispatcher<(unsigned long)1, (unsigned long)1>::__dispatch[abi:ne180000]<std::__ndk1::__variant_detail::__assignment<std::__ndk1::__variant_detail::__traits<std::__ndk1::monostate, std::__ndk1::basic_string<char, std::__ndk1::char_traits<char>, std::__ndk1::allocator<char> > > >::__generic_assign[abi:ne180000]<std::__ndk1::__variant_detail::__move_assignment<std::__ndk1::basic_string<char, std::__ndk1::char_traits<char>, std::__ndk1::allocator<char> >, (std::__ndk1::__variant_detail::_Trait)1> >(std::__ndk1::__variant_detail::__move_assignment<std::__ndk1::basic_string<char, std::__ndk1::char_traits<char>, std::__ndk1::allocator<char> >, (std::__ndk1::__variant_detail::_Trait)1>&&)::{lambda(std::__ndk1::__variant_detail::_Trait&, auto:2&&)#1}, std::__ndk1::__variant_detail::__base<(std::__ndk1::__variant_detail::__assignment<std::__ndk1::__variant_detail::__traits<std::__ndk1::monostate, std::__ndk1::basic_string<char, std::__ndk1::char_traits<char>, std::__ndk1::allocator<char> > > >::__generic_assign[abi:ne180000])1, std::__ndk1::__variant_detail::__traits, std::__ndk1::allocator<char> >&, std::__ndk1::__variant_detail::__assignment<std::__ndk1::__variant_detail::__traits<std::__ndk1::monostate, std::__ndk1::basic_string<char, std::__ndk1::char_traits<char>, std::__ndk1::allocator<char> > > >::__generic_assign[abi:ne180000]<std::__ndk1::__variant_detail::__move_assignment<std::__ndk1::basic_string<char, std::__ndk1::char_traits<char>, std::__ndk1::allocator<char> >, (std::__ndk1::__variant_detail::_Trait)1> >(std::__ndk1::__variant_detail::__move_assignment<std::__ndk1::basic_string<char, std::__ndk1::char_traits<char>, std::__ndk1::allocator<char> >, (std::__ndk1::__variant_detail::_Trait)1>&&)::{lambda(std::__ndk1::__variant_detail::_Trait&, auto:2&&)#1}>(std::__ndk1::__variant_detail::_Trait, std::__ndk1::__variant_detail::__base<(std::__ndk1::__variant_detail::__assignment<std::__ndk1::__variant_detail::__traits<std::__ndk1::monostate, std::__ndk1::basic_string<char, std::__ndk1::char_traits<char>, std::__ndk1::allocator<char> > > >::__generic_assign[abi:ne180000])1, std::__ndk1::__variant_detail::__traits, std::__ndk1::allocator<char> >&, std::__ndk1::__variant_detail::__assignment<std::__ndk1::__variant_detail::__traits<std::__ndk1::monostate, std::__ndk1::basic_string<char, std::__ndk1::char_traits<char>, std::__ndk1::allocator<char> > > >::__generic_assign[abi:ne180000]<std::__ndk1::__variant_detail::__move_assignment<std::__ndk1::basic_string<char, std::__ndk1::char_traits<char>, std::__ndk1::allocator<char> >, (std::__ndk1::__variant_detail::_Trait)1> >(std::__ndk1::__variant_detail::__move_assignment<std::__ndk1::basic_string<char, std::__ndk1::char_traits<char>, std::__ndk1::allocator<char> >, (std::__ndk1::__variant_detail::_Trait)1>&&)::{lambda(std::__ndk1::__variant_detail::_Trait&, auto:2&&)#1})
PUBLIC 201bc 0 std::__ndk1::basic_string<char, std::__ndk1::char_traits<char>, std::__ndk1::allocator<char> >::__assign_no_alias<true>(char const*, unsigned long)
PUBLIC 20268 0 std::__ndk1::__split_buffer<std::__ndk1::tuple<std::__ndk1::basic_string<char, std::__ndk1::char_traits<char>, std::__ndk1::allocator<char> >, cocos2d::CCNode*, int, int, int, int, int>, std::__ndk1::allocator<std::__ndk1::tuple<std::__ndk1::basic_string<char, std::__ndk1::char_traits<char>, std::__ndk1::allocator<char> >, cocos2d::CCNode*, int, int, int, int, int> >&>::~__split_buffer()
PUBLIC 202d0 0 std::__ndk1::vector<std::__ndk1::tuple<std::__ndk1::basic_string<char, std::__ndk1::char_traits<char>, std::__ndk1::allocator<char> >, cocos2d::CCNode*, int, int, int, int, int>, std::__ndk1::allocator<std::__ndk1::tuple<std::__ndk1::basic_string<char, std::__ndk1::char_traits<char>, std::__ndk1::allocator<char> >, cocos2d::CCNode*, int, int, int, int, int> > >::__throw_length_error[abi:ne180000]() const
PUBLIC 202e4 0 std::__ndk1::__variant_detail::__visitation::__base::__dispatcher<(unsigned long)0>::__dispatch[abi:ne180000]<std::__ndk1::__variant_detail::__dtor<std::__ndk1::__variant_detail::__traits<std::__ndk1::basic_string<char, std::__ndk1::char_traits<char>, std::__ndk1::allocator<char> >, std::__ndk1::allocator<char> >, (std::__ndk1::__variant_detail::_Trait)1>::__destroy[abi:ne180000]()::{lambda(auto:1&)#1}, std::__ndk1::__variant_detail::__base<(std::__ndk1::__variant_detail::__traits<std::__ndk1::basic_string<char, std::__ndk1::char_traits<char>, std::__ndk1::allocator<char> >, std::__ndk1::allocator<char> >)1, std::__ndk1::allocator<char>, std::__ndk1::allocator<char> >&>(std::__ndk1::__variant_detail::__dtor<std::__ndk1::__variant_detail::__traits<std::__ndk1::basic_string<char, std::__ndk1::char_traits<char>, std::__ndk1::allocator<char> >, std::__ndk1::allocator<char> >, (std::__ndk1::__variant_detail::_Trait)1>, std::__ndk1::__variant_detail::__base<(std::__ndk1::__variant_detail::__traits<std::__ndk1::basic_string<char, std::__ndk1::char_traits<char>, std::__ndk1::allocator<char> >, std::__ndk1::allocator<char> >)1, std::__ndk1::allocator<char>, std::__ndk1::allocator<char> >&)
PUBLIC 202f8 0 std::__ndk1::__variant_detail::__visitation::__base::__dispatcher<(unsigned long)1>::__dispatch[abi:ne180000]<std::__ndk1::__variant_detail::__dtor<std::__ndk1::__variant_detail::__traits<std::__ndk1::basic_string<char, std::__ndk1::char_traits<char>, std::__ndk1::allocator<char> >, std::__ndk1::allocator<char> >, (std::__ndk1::__variant_detail::_Trait)1>::__destroy[abi:ne180000]()::{lambda(auto:1&)#1}, std::__ndk1::__variant_detail::__base<(std::__ndk1::__variant_detail::__traits<std::__ndk1::basic_string<char, std::__ndk1::char_traits<char>, std::__ndk1::allocator<char> >, std::__ndk1::allocator<char> >)1, std::__ndk1::allocator<char>, std::__ndk1::allocator<char> >&>(std::__ndk1::__variant_detail::__dtor<std::__ndk1::__variant_detail::__traits<std::__ndk1::basic_string<char, std::__ndk1::char_traits<char>, std::__ndk1::allocator<char> >, std::__ndk1::allocator<char> >, (std::__ndk1::__variant_detail::_Trait)1>, std::__ndk1::__variant_detail::__base<(std::__ndk1::__variant_detail::__traits<std::__ndk1::basic_string<char, std::__ndk1::char_traits<char>, std::__ndk1::allocator<char> >, std::__ndk1::allocator<char> >)1, std::__ndk1::allocator<char>, std::__ndk1::allocator<char> >&)
PUBLIC 2030c 0 std::__ndk1::__variant_detail::__visitation::__base::__dispatcher<(unsigned long)0>::__dispatch[abi:ne180000]<std::__ndk1::__variant_detail::__dtor<std::__ndk1::__variant_detail::__traits<ShaderNode*, std::__ndk1::basic_string<char, std::__ndk1::char_traits<char>, std::__ndk1::allocator<char> > >, (std::__ndk1::__variant_detail::_Trait)1>::__destroy[abi:ne180000]()::{lambda(auto:1&)#1}, std::__ndk1::__variant_detail::__base<(std::__ndk1::__variant_detail::__traits<ShaderNode*, std::__ndk1::basic_string<char, std::__ndk1::char_traits<char>, std::__ndk1::allocator<char> > >)1, ShaderNode, std::__ndk1::allocator<char> >&>(std::__ndk1::__variant_detail::__dtor<std::__ndk1::__variant_detail::__traits<ShaderNode*, std::__ndk1::basic_string<char, std::__ndk1::char_traits<char>, std::__ndk1::allocator<char> > >, (std::__ndk1::__variant_detail::_Trait)1>, std::__ndk1::__variant_detail::__base<(std::__ndk1::__variant_detail::__traits<ShaderNode*, std::__ndk1::basic_string<char, std::__ndk1::char_traits<char>, std::__ndk1::allocator<char> > >)1, ShaderNode, std::__ndk1::allocator<char> >&)
PUBLIC 20310 0 std::__ndk1::__variant_detail::__visitation::__base::__dispatcher<(unsigned long)1>::__dispatch[abi:ne180000]<std::__ndk1::__variant_detail::__dtor<std::__ndk1::__variant_detail::__traits<ShaderNode*, std::__ndk1::basic_string<char, std::__ndk1::char_traits<char>, std::__ndk1::allocator<char> > >, (std::__ndk1::__variant_detail::_Trait)1>::__destroy[abi:ne180000]()::{lambda(auto:1&)#1}, std::__ndk1::__variant_detail::__base<(std::__ndk1::__variant_detail::__traits<ShaderNode*, std::__ndk1::basic_string<char, std::__ndk1::char_traits<char>, std::__ndk1::allocator<char> > >)1, ShaderNode, std::__ndk1::allocator<char> >&>(std::__ndk1::__variant_detail::__dtor<std::__ndk1::__variant_detail::__traits<ShaderNode*, std::__ndk1::basic_string<char, std::__ndk1::char_traits<char>, std::__ndk1::allocator<char> > >, (std::__ndk1::__variant_detail::_Trait)1>, std::__ndk1::__variant_detail::__base<(std::__ndk1::__variant_detail::__traits<ShaderNode*, std::__ndk1::basic_string<char, std::__ndk1::char_traits<char>, std::__ndk1::allocator<char> > >)1, ShaderNode, std::__ndk1::allocator<char> >&)
PUBLIC 20324 0 std::__ndk1::__tree<std::__ndk1::__value_type<std::__ndk1::basic_string<char, std::__ndk1::char_traits<char>, std::__ndk1::allocator<char> >, std::__ndk1::shared_ptr<geode::Hook> >, std::__ndk1::__map_value_compare<std::__ndk1::basic_string<char, std::__ndk1::char_traits<char>, std::__ndk1::allocator<char> >, std::__ndk1::__value_type<std::__ndk1::basic_string<char, std::__ndk1::char_traits<char>, std::__ndk1::allocator<char> >, std::__ndk1::shared_ptr<geode::Hook> >, std::__ndk1::less<std::__ndk1::basic_string<char, std::__ndk1::char_traits<char>, std::__ndk1::allocator<char> > >, true>, std::__ndk1::allocator<std::__ndk1::__value_type<std::__ndk1::basic_string<char, std::__ndk1::char_traits<char>, std::__ndk1::allocator<char> >, std::__ndk1::shared_ptr<geode::Hook> > > >::__emplace_unique_key_args<std::__ndk1::basic_string<char, std::__ndk1::char_traits<char>, std::__ndk1::allocator<char> >, std::__ndk1::piecewise_construct_t const&, std::__ndk1::tuple<std::__ndk1::basic_string<char, std::__ndk1::char_traits<char>, std::__ndk1::allocator<char> >&&>, std::__ndk1::tuple<> >(std::__ndk1::basic_string<char, std::__ndk1::char_traits<char>, std::__ndk1::allocator<char> > const&, std::__ndk1::piecewise_construct_t const&, std::__ndk1::tuple<std::__ndk1::basic_string<char, std::__ndk1::char_traits<char>, std::__ndk1::allocator<char> >&&>, std::__ndk1::tuple<>)
PUBLIC 20638 0 geode::modifier::ModifyDerive<hook590<(anonymous namespace)::hook590Parent>, LevelSelectLayer>::apply()
PUBLIC 20984 0 geode::modifier::ModifyBase<geode::modifier::ModifyDerive<hook590<(anonymous namespace)::hook590Parent>, LevelSelectLayer> >::apply()
PUBLIC 20988 0 geode::modifier::AsStaticFunction_init<hook590<(anonymous namespace)::hook590Parent>, bool (hook590<(anonymous namespace)::hook590Parent>::*)(int)>::Impl<bool (hook590<(anonymous namespace)::hook590Parent>::*)(int)>::function(hook590<(anonymous namespace)::hook590Parent>*, int)
PUBLIC 20cc8 0 geode::modifier::ModifyDerive<hook609<(anonymous namespace)::hook609Parent>, CreatorLayer>::apply()
PUBLIC 20fcc 0 geode::modifier::ModifyBase<geode::modifier::ModifyDerive<hook609<(anonymous namespace)::hook609Parent>, CreatorLayer> >::apply()
PUBLIC 20fd0 0 geode::modifier::AsStaticFunction_init<hook609<(anonymous namespace)::hook609Parent>, bool (hook609<(anonymous namespace)::hook609Parent>::*)()>::Impl<bool (hook609<(anonymous namespace)::hook609Parent>::*)()>::function(hook609<(anonymous namespace)::hook609Parent>*)
PUBLIC 21200 0 geode::addresser::Addresser::addressOfVirtual<bool, CreatorLayer, >(bool (CreatorLayer::*)())
PUBLIC 212a8 0 CreatorLayer::CreatorLayer(geode::ZeroConstructorType)
PUBLIC 21340 0 geode::modifier::ModifyDerive<hook624<(anonymous namespace)::hook624Parent>, LevelBrowserLayer>::apply()
PUBLIC 216ac 0 geode::modifier::ModifyBase<geode::modifier::ModifyDerive<hook624<(anonymous namespace)::hook624Parent>, LevelBrowserLayer> >::apply()
PUBLIC 216b0 0 geode::modifier::AsStaticFunction_init<hook624<(anonymous namespace)::hook624Parent>, bool (hook624<(anonymous namespace)::hook624Parent>::*)(GJSearchObject*)>::Impl<bool (hook624<(anonymous namespace)::hook624Parent>::*)(GJSearchObject*)>::function(hook624<(anonymous namespace)::hook624Parent>*, GJSearchObject*)
PUBLIC 218e8 0 geode::modifier::ModifyDerive<hook639<(anonymous namespace)::hook639Parent>, EditLevelLayer>::apply()
PUBLIC 21c40 0 geode::modifier::ModifyBase<geode::modifier::ModifyDerive<hook639<(anonymous namespace)::hook639Parent>, EditLevelLayer> >::apply()
PUBLIC 21c44 0 geode::modifier::AsStaticFunction_init<hook639<(anonymous namespace)::hook639Parent>, bool (hook639<(anonymous namespace)::hook639Parent>::*)(GJGameLevel*)>::Impl<bool (hook639<(anonymous namespace)::hook639Parent>::*)(GJGameLevel*)>::function(hook639<(anonymous namespace)::hook639Parent>*, GJGameLevel*)
PUBLIC 21f6c 0 geode::modifier::ModifyDerive<hook658<(anonymous namespace)::hook658Parent>, LevelInfoLayer>::apply()
PUBLIC 22308 0 geode::modifier::ModifyBase<geode::modifier::ModifyDerive<hook658<(anonymous namespace)::hook658Parent>, LevelInfoLayer> >::apply()
PUBLIC 2230c 0 geode::modifier::AsStaticFunction_init<hook658<(anonymous namespace)::hook658Parent>, bool (hook658<(anonymous namespace)::hook658Parent>::*)(GJGameLevel*, bool)>::Impl<bool (hook658<(anonymous namespace)::hook658Parent>::*)(GJGameLevel*, bool)>::function(hook658<(anonymous namespace)::hook658Parent>*, GJGameLevel*, bool)
PUBLIC 22534 0 geode::modifier::ModifyDerive<hook673<(anonymous namespace)::hook673Parent>, LevelSearchLayer>::apply()
PUBLIC 22880 0 geode::modifier::ModifyBase<geode::modifier::ModifyDerive<hook673<(anonymous namespace)::hook673Parent>, LevelSearchLayer> >::apply()
PUBLIC 22884 0 geode::modifier::AsStaticFunction_init<hook673<(anonymous namespace)::hook673Parent>, bool (hook673<(anonymous namespace)::hook673Parent>::*)(int)>::Impl<bool (hook673<(anonymous namespace)::hook673Parent>::*)(int)>::function(hook673<(anonymous namespace)::hook673Parent>*, int)
PUBLIC 22cd8 0 geode::modifier::ModifyDerive<hook695<(anonymous namespace)::hook695Parent>, GJGarageLayer>::apply()
PUBLIC 22fe4 0 geode::modifier::ModifyBase<geode::modifier::ModifyDerive<hook695<(anonymous namespace)::hook695Parent>, GJGarageLayer> >::apply()
PUBLIC 22fe8 0 geode::modifier::AsStaticFunction_init<hook695<(anonymous namespace)::hook695Parent>, bool (hook695<(anonymous namespace)::hook695Parent>::*)()>::Impl<bool (hook695<(anonymous namespace)::hook695Parent>::*)()>::function(hook695<(anonymous namespace)::hook695Parent>*)
PUBLIC 23314 0 geode::addresser::Addresser::addressOfVirtual<bool, GJGarageLayer, >(bool (GJGarageLayer::*)())
PUBLIC 233bc 0 GJGarageLayer::GJGarageLayer(geode::ZeroConstructorType)
PUBLIC 23470 0 geode::modifier::ModifyDerive<hook714<(anonymous namespace)::hook714Parent>, LeaderboardsLayer>::apply()
PUBLIC 237dc 0 geode::modifier::ModifyBase<geode::modifier::ModifyDerive<hook714<(anonymous namespace)::hook714Parent>, LeaderboardsLayer> >::apply()
PUBLIC 237e0 0 geode::modifier::AsStaticFunction_init<hook714<(anonymous namespace)::hook714Parent>, bool (hook714<(anonymous namespace)::hook714Parent>::*)(LeaderboardState)>::Impl<bool (hook714<(anonymous namespace)::hook714Parent>::*)(LeaderboardState)>::function(hook714<(anonymous namespace)::hook714Parent>*, LeaderboardState)
PUBLIC 23a0c 0 geode::modifier::ModifyDerive<hook729<(anonymous namespace)::hook729Parent>, GauntletSelectLayer>::apply()
PUBLIC 23d80 0 geode::modifier::ModifyBase<geode::modifier::ModifyDerive<hook729<(anonymous namespace)::hook729Parent>, GauntletSelectLayer> >::apply()
PUBLIC 23d84 0 geode::modifier::AsStaticFunction_init<hook729<(anonymous namespace)::hook729Parent>, bool (hook729<(anonymous namespace)::hook729Parent>::*)(int)>::Impl<bool (hook729<(anonymous namespace)::hook729Parent>::*)(int)>::function(hook729<(anonymous namespace)::hook729Parent>*, int)
PUBLIC 2406c 0 geode::modifier::ModifyDerive<hook746<(anonymous namespace)::hook746Parent>, GauntletLayer>::apply()
PUBLIC 243c4 0 geode::modifier::ModifyBase<geode::modifier::ModifyDerive<hook746<(anonymous namespace)::hook746Parent>, GauntletLayer> >::apply()
PUBLIC 243c8 0 geode::modifier::AsStaticFunction_init<hook746<(anonymous namespace)::hook746Parent>, bool (hook746<(anonymous namespace)::hook746Parent>::*)(GauntletType)>::Impl<bool (hook746<(anonymous namespace)::hook746Parent>::*)(GauntletType)>::function(hook746<(anonymous namespace)::hook746Parent>*, GauntletType)
PUBLIC 244c8 0 geode::modifier::ModifyDerive<hook756<(anonymous namespace)::hook756Parent>, SecretRewardsLayer>::apply()
PUBLIC 24834 0 geode::modifier::ModifyBase<geode::modifier::ModifyDerive<hook756<(anonymous namespace)::hook756Parent>, SecretRewardsLayer> >::apply()
PUBLIC 24838 0 geode::modifier::AsStaticFunction_init<hook756<(anonymous namespace)::hook756Parent>, bool (hook756<(anonymous namespace)::hook756Parent>::*)(bool)>::Impl<bool (hook756<(anonymous namespace)::hook756Parent>::*)(bool)>::function(hook756<(anonymous namespace)::hook756Parent>*, bool)
PUBLIC 24b04 0 geode::getMod()
PUBLIC m 24b40 0 geodeImplicitEntry
PUBLIC 24b7c 0 __udivti3
PUBLIC 24b88 0 __udivmodti4
PUBLIC m 24dd4 0 __eqtf2
PUBLIC 24e74 0 __unordtf2
PUBLIC 24eac 0 fmt::v11::detail::write_loc(fmt::v11::basic_appender<char>, fmt::v11::loc_value, fmt::v11::format_specs const&, fmt::v11::detail::locale_ref)
PUBLIC 25140 0 fmt::v11::format_facet<std::__ndk1::locale>::~format_facet()
PUBLIC 251bc 0 fmt::v11::report_error(char const*)
PUBLIC 2520c 0 fmt::v11::format_error::runtime_error(char const*)
PUBLIC 25238 0 fmt::v11::format_facet<std::__ndk1::locale>::do_put(fmt::v11::basic_appender<char>, fmt::v11::loc_value, fmt::v11::format_specs const&) const
PUBLIC 259f8 0 fmt::v11::detail::loc_writer<char>::~loc_writer()
PUBLIC 25a5c 0 fmt::v11::vformat(fmt::v11::basic_string_view<char>, fmt::v11::basic_format_args<fmt::v11::context>)
PUBLIC 25b98 0 fmt::v11::detail::vformat_to<char>(fmt::v11::detail::buffer<char>&, fmt::v11::basic_string_view<char>, fmt::v11::detail::vformat_args<char>::type, fmt::v11::detail::locale_ref)
PUBLIC 26108 0 fmt::v11::detail::is_printable(unsigned int)
PUBLIC 26330 0 fmt::v11::detail::dragonbox::to_decimal<float>(float)
PUBLIC 2660c 0 fmt::v11::detail::dragonbox::to_decimal<double>(double)
PUBLIC 26b48 0 fmt::v11::basic_memory_buffer<char, (unsigned long)500, std::__ndk1::allocator<char> >::grow(fmt::v11::detail::buffer<char>&, unsigned long)
PUBLIC 26bc0 0 fmt::v11::format_facet<std::__ndk1::locale>::~format_facet()
PUBLIC 26c4c 0 fmt::v11::format_error::~format_error()
PUBLIC 26c70 0 fmt::v11::detail::copy_noinline<char, char const*, fmt::v11::basic_appender<char> >(char const*, char const*, fmt::v11::basic_appender<char>)
PUBLIC 26dc0 0 fmt::v11::detail::default_arg_formatter<char>::operator()<bool>(bool)
PUBLIC 26e28 0 fmt::v11::detail::default_arg_formatter<char>::operator()<char>(char)
PUBLIC 26eb8 0 fmt::v11::detail::default_arg_formatter<char>::operator()<float>(float)
PUBLIC 26fa4 0 fmt::v11::detail::default_arg_formatter<char>::operator()<double>(double)
PUBLIC 27090 0 fmt::v11::detail::default_arg_formatter<char>::operator()<char const*>(char const*)
PUBLIC 270d8 0 fmt::v11::detail::default_arg_formatter<char>::operator()<void const*>(void const*)
PUBLIC 27170 0 _ZN3fmt3v116detail5writeIcNS0_14basic_appenderIcEEiTnNSt6__ndk19enable_ifIXaaaasr11is_integralIT1_EE5valuentsr3std7is_sameIS7_bEE5valuentsr3std7is_sameIS7_T_EE5valueEiE4typeELi0EEET0_SB_S7_
PUBLIC 273d0 0 fmt::v11::detail::copy_noinline<char, char*, fmt::v11::basic_appender<char> >(char*, char*, fmt::v11::basic_appender<char>)
PUBLIC 27520 0 _ZN3fmt3v116detail5writeIcNS0_14basic_appenderIcEEjTnNSt6__ndk19enable_ifIXaaaasr11is_integralIT1_EE5valuentsr3std7is_sameIS7_bEE5valuentsr3std7is_sameIS7_T_EE5valueEiE4typeELi0EEET0_SB_S7_
PUBLIC 27700 0 _ZN3fmt3v116detail5writeIcNS0_14basic_appenderIcEExTnNSt6__ndk19enable_ifIXaaaasr11is_integralIT1_EE5valuentsr3std7is_sameIS7_bEE5valuentsr3std7is_sameIS7_T_EE5valueEiE4typeELi0EEET0_SB_S7_
PUBLIC 27984 0 _ZN3fmt3v116detail5writeIcNS0_14basic_appenderIcEEyTnNSt6__ndk19enable_ifIXaaaasr11is_integralIT1_EE5valuentsr3std7is_sameIS7_bEE5valuentsr3std7is_sameIS7_T_EE5valueEiE4typeELi0EEET0_SB_S7_
PUBLIC 27b8c 0 _ZN3fmt3v116detail5writeIcNS0_14basic_appenderIcEEnTnNSt6__ndk19enable_ifIXaaaasr11is_integralIT1_EE5valuentsr3std7is_sameIS7_bEE5valuentsr3std7is_sameIS7_T_EE5valueEiE4typeELi0EEET0_SB_S7_
PUBLIC 27eec 0 _ZN3fmt3v116detail5writeIcNS0_14basic_appenderIcEEoTnNSt6__ndk19enable_ifIXaaaasr11is_integralIT1_EE5valuentsr3std7is_sameIS7_bEE5valuentsr3std7is_sameIS7_T_EE5valueEiE4typeELi0EEET0_SB_S7_
PUBLIC 28200 0 _ZN3fmt3v116detail5writeIcNS0_14basic_appenderIcEEbTnNSt6__ndk19enable_ifIXsr3std7is_sameIT1_bEE5valueEiE4typeELi0EEET0_SA_S7_RKNS0_12format_specsENS1_10locale_refE
PUBLIC 28490 0 fmt::v11::detail::write_int_noinline<char, fmt::v11::basic_appender<char>, unsigned int>(fmt::v11::basic_appender<char>, fmt::v11::detail::write_int_arg<unsigned int>, fmt::v11::format_specs const&, fmt::v11::detail::locale_ref)
PUBLIC 2926c 0 fmt::v11::detail::fill<char, fmt::v11::basic_appender<char> >(fmt::v11::basic_appender<char>, unsigned long, fmt::v11::detail::fill_t const&)
PUBLIC 2943c 0 fmt::v11::detail::write_padded<char, (fmt::v11::align::type)1, fmt::v11::basic_appender<char>, fmt::v11::detail::write_char<char, fmt::v11::basic_appender<char> >(fmt::v11::basic_appender<char>, char, fmt::v11::format_specs const&)::{lambda(fmt::v11::basic_appender<char>&)#1}>(fmt::v11::basic_appender<char>, fmt::v11::format_specs const&, unsigned long, unsigned long, fmt::v11::detail::write_char<char, fmt::v11::basic_appender<char> >(fmt::v11::basic_appender<char>, char, fmt::v11::format_specs const&)::{lambda(fmt::v11::basic_appender<char>&)#1})
PUBLIC 29678 0 fmt::v11::detail::write_escaped_cp<fmt::v11::basic_appender<char>, char>(fmt::v11::basic_appender<char>, fmt::v11::detail::find_escape_result<char> const&)
PUBLIC 29984 0 fmt::v11::detail::write_codepoint<(unsigned long)2, char, fmt::v11::basic_appender<char> >(fmt::v11::basic_appender<char>, char, unsigned int)
PUBLIC 29afc 0 fmt::v11::detail::write_codepoint<(unsigned long)8, char, fmt::v11::basic_appender<char> >(fmt::v11::basic_appender<char>, char, unsigned int)
PUBLIC 29c74 0 fmt::v11::detail::write_padded<char, (fmt::v11::align::type)1, fmt::v11::basic_appender<char>, fmt::v11::detail::write_nonfinite<char, fmt::v11::basic_appender<char> >(fmt::v11::basic_appender<char>, bool, fmt::v11::format_specs, fmt::v11::sign::type)::{lambda(fmt::v11::basic_appender<char>&)#1}>(fmt::v11::basic_appender<char>, fmt::v11::format_specs const&, unsigned long, unsigned long, fmt::v11::detail::write_nonfinite<char, fmt::v11::basic_appender<char> >(fmt::v11::basic_appender<char>, bool, fmt::v11::format_specs, fmt::v11::sign::type)::{lambda(fmt::v11::basic_appender<char>&)#1})
PUBLIC 29eb4 0 fmt::v11::detail::do_write_float<char, fmt::v11::basic_appender<char>, fmt::v11::detail::dragonbox::decimal_fp<float>, fmt::v11::detail::digit_grouping<char> >(fmt::v11::basic_appender<char>, fmt::v11::detail::dragonbox::decimal_fp<float> const&, fmt::v11::format_specs const&, fmt::v11::detail::float_specs, fmt::v11::detail::locale_ref)
PUBLIC 2ab28 0 fmt::v11::detail::do_write_float<char, fmt::v11::basic_appender<char>, fmt::v11::detail::dragonbox::decimal_fp<float>, fmt::v11::detail::digit_grouping<char> >(fmt::v11::basic_appender<char>, fmt::v11::detail::dragonbox::decimal_fp<float> const&, fmt::v11::format_specs const&, fmt::v11::detail::float_specs, fmt::v11::detail::locale_ref)::{lambda(fmt::v11::basic_appender<char>(fmt::v11::basic_appender<char>))#1}::operator() const
PUBLIC 2ac7c 0 fmt::v11::detail::digit_grouping<char>::digit_grouping(fmt::v11::detail::locale_ref, bool)
PUBLIC 2aee8 0 fmt::v11::detail::digit_grouping<char>::~digit_grouping()
PUBLIC 2af2c 0 fmt::v11::detail::write_exponent<char, fmt::v11::basic_appender<char> >(int, fmt::v11::basic_appender<char>)
PUBLIC 2b0fc 0 _ZN3fmt3v116detail17write_significandIcjTnNSt6__ndk19enable_ifIXsr3std11is_integralIT0_EE5valueEiE4typeELi0EEEPT_S9_S5_iiS8_
PUBLIC 2b278 0 std::__ndk1::basic_string<char, std::__ndk1::char_traits<char>, std::__ndk1::allocator<char> >::__assign_no_alias<false>(char const*, unsigned long)
PUBLIC 2b388 0 fmt::v11::detail::digit_grouping<char>::apply<fmt::v11::basic_appender<char>, char>(fmt::v11::basic_appender<char>, fmt::v11::basic_string_view<char>) const
PUBLIC 2b740 0 fmt::v11::basic_memory_buffer<int, (unsigned long)500, std::__ndk1::allocator<int> >::grow(fmt::v11::detail::buffer<int>&, unsigned long)
PUBLIC 2b7e0 0 fmt::v11::detail::do_write_float<char, fmt::v11::basic_appender<char>, fmt::v11::detail::dragonbox::decimal_fp<double>, fmt::v11::detail::digit_grouping<char> >(fmt::v11::basic_appender<char>, fmt::v11::detail::dragonbox::decimal_fp<double> const&, fmt::v11::format_specs const&, fmt::v11::detail::float_specs, fmt::v11::detail::locale_ref)
PUBLIC 2c494 0 fmt::v11::detail::do_write_float<char, fmt::v11::basic_appender<char>, fmt::v11::detail::dragonbox::decimal_fp<double>, fmt::v11::detail::digit_grouping<char> >(fmt::v11::basic_appender<char>, fmt::v11::detail::dragonbox::decimal_fp<double> const&, fmt::v11::format_specs const&, fmt::v11::detail::float_specs, fmt::v11::detail::locale_ref)::{lambda(fmt::v11::basic_appender<char>(fmt::v11::basic_appender<char>))#1}::operator() const
PUBLIC 2c5ec 0 _ZN3fmt3v116detail17write_significandIcmTnNSt6__ndk19enable_ifIXsr3std11is_integralIT0_EE5valueEiE4typeELi0EEEPT_S9_S5_iiS8_
PUBLIC 2c77c 0 fmt::v11::detail::write_float<char, fmt::v11::basic_appender<char>, long double>(fmt::v11::basic_appender<char>, long double, fmt::v11::format_specs, fmt::v11::detail::locale_ref)
PUBLIC 2d278 0 fmt::v11::detail::write_padded<char, (fmt::v11::align::type)2, fmt::v11::basic_appender<char>, fmt::v11::detail::write_bytes<char, (fmt::v11::align::type)2, fmt::v11::basic_appender<char> >(fmt::v11::basic_appender<char>, fmt::v11::basic_string_view<char>, fmt::v11::format_specs const&)::{lambda(fmt::v11::basic_appender<char>&)#1}>(fmt::v11::basic_appender<char>, fmt::v11::format_specs const&, unsigned long, unsigned long, fmt::v11::detail::write_bytes<char, (fmt::v11::align::type)2, fmt::v11::basic_appender<char> >(fmt::v11::basic_appender<char>, fmt::v11::basic_string_view<char>, fmt::v11::format_specs const&)::{lambda(fmt::v11::basic_appender<char>&)#1})
PUBLIC 2d454 0 fmt::v11::detail::format_dragon(fmt::v11::detail::basic_fp<unsigned __int128>, unsigned int, int, fmt::v11::detail::buffer<char>&, int&)
PUBLIC 2e884 0 fmt::v11::detail::bigint::operator<<=(int)
PUBLIC 2e9a8 0 fmt::v11::detail::bigint::assign_pow10(int)
PUBLIC 2f104 0 fmt::v11::detail::bigint::divmod_assign(fmt::v11::detail::bigint const&)
PUBLIC 2f424 0 fmt::v11::basic_memory_buffer<unsigned int, (unsigned long)32, std::__ndk1::allocator<unsigned int> >::grow(fmt::v11::detail::buffer<unsigned int>&, unsigned long)
PUBLIC 2f4c4 0 fmt::v11::detail::do_write_float<char, fmt::v11::basic_appender<char>, fmt::v11::detail::big_decimal_fp, fmt::v11::detail::digit_grouping<char> >(fmt::v11::basic_appender<char>, fmt::v11::detail::big_decimal_fp const&, fmt::v11::format_specs const&, fmt::v11::detail::float_specs, fmt::v11::detail::locale_ref)
PUBLIC 30374 0 fmt::v11::detail::do_write_float<char, fmt::v11::basic_appender<char>, fmt::v11::detail::big_decimal_fp, fmt::v11::detail::digit_grouping<char> >(fmt::v11::basic_appender<char>, fmt::v11::detail::big_decimal_fp const&, fmt::v11::format_specs const&, fmt::v11::detail::float_specs, fmt::v11::detail::locale_ref)::{lambda(fmt::v11::basic_appender<char>(fmt::v11::basic_appender<char>))#1}::operator() const
PUBLIC 304d4 0 fmt::v11::detail::write_padded<char, (fmt::v11::align::type)2, fmt::v11::basic_appender<char>, fmt::v11::detail::write_ptr<char, fmt::v11::basic_appender<char>, unsigned long>(fmt::v11::basic_appender<char>, unsigned long, fmt::v11::format_specs const*)::{lambda(fmt::v11::basic_appender<char>&)#1}>(fmt::v11::basic_appender<char>, fmt::v11::format_specs const&, unsigned long, unsigned long, fmt::v11::detail::write_ptr<char, fmt::v11::basic_appender<char>, unsigned long>(fmt::v11::basic_appender<char>, unsigned long, fmt::v11::format_specs const*)::{lambda(fmt::v11::basic_appender<char>&)#1})
PUBLIC 306e8 0 fmt::v11::detail::parse_replacement_field<char, fmt::v11::detail::vformat_to<char>(fmt::v11::detail::buffer<char>&, fmt::v11::basic_string_view<char>, fmt::v11::detail::vformat_args<char>::type, fmt::v11::detail::locale_ref)::format_handler&>(char const*, char const*, fmt::v11::detail::vformat_to<char>(fmt::v11::detail::buffer<char>&, fmt::v11::basic_string_view<char>, fmt::v11::detail::vformat_args<char>::type, fmt::v11::detail::locale_ref)::format_handler&)
PUBLIC 32384 0 fmt::v11::detail::parse_dynamic_spec<char>(char const*, char const*, int&, fmt::v11::detail::arg_ref<char>&, fmt::v11::basic_format_parse_context<char>&)
PUBLIC 32614 0 fmt::v11::basic_format_args<fmt::v11::context>::get<char>(fmt::v11::basic_string_view<char>) const
PUBLIC 3276c 0 fmt::v11::detail::write_int_noinline<char, fmt::v11::basic_appender<char>, unsigned long>(fmt::v11::basic_appender<char>, fmt::v11::detail::write_int_arg<unsigned long>, fmt::v11::format_specs const&, fmt::v11::detail::locale_ref)
PUBLIC 335c0 0 fmt::v11::detail::write_int_noinline<char, fmt::v11::basic_appender<char>, unsigned __int128>(fmt::v11::basic_appender<char>, fmt::v11::detail::write_int_arg<unsigned __int128>, fmt::v11::format_specs const&, fmt::v11::detail::locale_ref)
PUBLIC 34628 0 _ZN3fmt3v116detail15format_hexfloatIdTnNSt6__ndk19enable_ifIXntsr16is_double_doubleIT_EE5valueEiE4typeELi0EEEvS5_NS0_12format_specsERNS1_6bufferIcEE
PUBLIC 34b48 0 fmt::v11::detail::format_float<double>(double, int, fmt::v11::detail::float_specs, fmt::v11::detail::buffer<char>&)
PUBLIC 354e8 0 fmt::v11::detail::write<char, fmt::v11::basic_appender<char> >(fmt::v11::basic_appender<char>, fmt::v11::basic_string_view<char>, fmt::v11::format_specs const&)
PUBLIC 36854 0 fmt::v11::detail::for_each_codepoint<fmt::v11::detail::compute_width(fmt::v11::basic_string_view<char>)::count_code_points>(fmt::v11::basic_string_view<char>, fmt::v11::detail::compute_width(fmt::v11::basic_string_view<char>)::count_code_points)::{lambda(char const*, char const*)#1}::operator()(char const*, char const*) const
PUBLIC 36a0c 0 fmt::v11::detail::write_int<fmt::v11::basic_appender<char>, unsigned long, char>(fmt::v11::basic_appender<char>, unsigned long, unsigned int, fmt::v11::format_specs const&, fmt::v11::detail::digit_grouping<char> const&)
PUBLIC 36f88 0 fmt::v11::detail::write_int<fmt::v11::basic_appender<char>, unsigned __int128, char>(fmt::v11::basic_appender<char>, unsigned __int128, unsigned int, fmt::v11::format_specs const&, fmt::v11::detail::digit_grouping<char> const&)
PUBLIC 37610 0 <.plt ELF section in cgytrus.menu-shaders.android64.so>
STACK CFI INIT fe40 10 .cfa: sp 0 +
STACK CFI INIT fe50 8 .cfa: sp 0 +
STACK CFI INIT fe58 8 .cfa: sp 0 +
STACK CFI INIT fe60 14 .cfa: sp 0 +
STACK CFI INIT fe74 1c .cfa: sp 0 +
STACK CFI INIT fe90 10 .cfa: sp 0 +
STACK CFI INIT fea0 134 .cfa: sp 0 +
STACK CFI INIT ffd4 84 .cfa: sp 0 +
STACK CFI INIT 10058 f4 .cfa: sp 0 +
STACK CFI INIT 1014c a8 .cfa: sp 0 +
STACK CFI INIT 101f4 7c .cfa: sp 0 +
STACK CFI INIT 10270 14 .cfa: sp 0 +
STACK CFI INIT 10284 40 .cfa: sp 0 +
STACK CFI INIT 102c4 28 .cfa: sp 0 +
STACK CFI INIT 102ec 190 .cfa: sp 0 +
STACK CFI INIT 1047c 2c8 .cfa: sp 0 +
STACK CFI INIT 10744 8 .cfa: sp 0 +
STACK CFI INIT 1074c 8 .cfa: sp 0 +
STACK CFI INIT 10754 44 .cfa: sp 0 +
STACK CFI INIT 10798 e8 .cfa: sp 0 +
STACK CFI INIT 10880 e8 .cfa: sp 0 +
STACK CFI INIT 10968 14 .cfa: sp 0 +
STACK CFI INIT 1097c 10 .cfa: sp 0 +
STACK CFI INIT 1098c 10 .cfa: sp 0 +
STACK CFI INIT 1099c f0 .cfa: sp 0 +
STACK CFI INIT 10a8c 44 .cfa: sp 0 +
STACK CFI INIT 10ad0 c .cfa: sp 0 +
STACK CFI INIT 10adc c .cfa: sp 0 +
STACK CFI INIT 10ae8 2c .cfa: sp 0 +
STACK CFI INIT 10b14 280 .cfa: sp 0 +
STACK CFI INIT 10d94 c .cfa: sp 0 +
STACK CFI INIT 10da0 120 .cfa: sp 0 +
STACK CFI INIT 10ec0 488 .cfa: sp 0 +
STACK CFI INIT 11348 c48 .cfa: sp 0 +
STACK CFI INIT 11f90 134 .cfa: sp 0 +
STACK CFI INIT 120c4 210 .cfa: sp 0 +
STACK CFI INIT 122d4 38c .cfa: sp 0 +
STACK CFI INIT 12660 1c8 .cfa: sp 0 +
STACK CFI INIT 12828 9bc .cfa: sp 0 +
STACK CFI INIT 131e4 2d4 .cfa: sp 0 +
STACK CFI INIT 134b8 134 .cfa: sp 0 +
STACK CFI INIT 135ec 120 .cfa: sp 0 +
STACK CFI INIT 1370c 1c8 .cfa: sp 0 +
STACK CFI INIT 138d4 168 .cfa: sp 0 +
STACK CFI INIT 13a3c fc .cfa: sp 0 +
STACK CFI INIT 13b38 30 .cfa: sp 0 +
STACK CFI INIT 13ca0 30 .cfa: sp 0 +
STACK CFI INIT 13cd0 98 .cfa: sp 0 +
STACK CFI INIT 13d68 59c .cfa: sp 0 +
STACK CFI INIT 14304 8c .cfa: sp 0 +
STACK CFI INIT 14390 30 .cfa: sp 0 +
STACK CFI INIT 17810 18 .cfa: sp 0 +
STACK CFI INIT 17828 18 .cfa: sp 0 +
STACK CFI INIT 17840 18 .cfa: sp 0 +
STACK CFI INIT 17858 18 .cfa: sp 0 +
STACK CFI INIT 17870 18 .cfa: sp 0 +
STACK CFI INIT 17888 18 .cfa: sp 0 +
STACK CFI INIT 178a0 18 .cfa: sp 0 +
STACK CFI INIT 178b8 18 .cfa: sp 0 +
STACK CFI INIT 178d0 18 .cfa: sp 0 +
STACK CFI INIT 178e8 18 .cfa: sp 0 +
STACK CFI INIT 17900 18 .cfa: sp 0 +
STACK CFI INIT 17918 18 .cfa: sp 0 +
STACK CFI INIT 17c28 50 .cfa: sp 0 +
STACK CFI 17c2c .cfa: sp 32 +
STACK CFI 17c34 .cfa: x29 32 + x19: .cfa -16 + ^ .ra: .cfa -24 + ^ x29: .cfa -32 + ^
STACK CFI 17c4c .cfa: sp 32 +
STACK CFI 17c54 .cfa: sp 0 +
STACK CFI 17c58 .cfa: x29 32 +
STACK CFI 17c6c .cfa: sp 32 +
STACK CFI 17c74 .cfa: sp 0 +
STACK CFI INIT 17cec 7c .cfa: sp 0 +
STACK CFI 17cf0 .cfa: sp 48 +
STACK CFI 17cfc .cfa: x29 48 + x19: .cfa -8 + ^ x20: .cfa -16 + ^ x21: .cfa -32 + ^ .ra: .cfa -40 + ^ x29: .cfa -48 + ^
STACK CFI 17d48 .cfa: sp 48 +
STACK CFI 17d54 .cfa: sp 0 +
STACK CFI 17d58 .cfa: sp 48 +
STACK CFI 17d64 .cfa: sp 0 +
STACK CFI INIT 17d68 4 .cfa: sp 0 +
STACK CFI INIT 17d6c 10 .cfa: sp 0 +
STACK CFI 17d70 .cfa: sp 16 +
STACK CFI 17d74 .cfa: x29 16 + .ra: .cfa -8 + ^ x29: .cfa -16 + ^
STACK CFI INIT 17ed0 34 .cfa: sp 0 +
STACK CFI 17ed4 .cfa: sp 16 +
STACK CFI 17ed8 .cfa: x29 16 + .ra: .cfa -8 + ^ x29: .cfa -16 + ^
STACK CFI INIT 18030 80 .cfa: sp 0 +
STACK CFI 18034 .cfa: sp 48 +
STACK CFI 18040 .cfa: x29 48 + x19: .cfa -8 + ^ x20: .cfa -16 + ^ x21: .cfa -32 + ^ .ra: .cfa -40 + ^ x29: .cfa -48 + ^
STACK CFI 180a0 .cfa: sp 48 +
STACK CFI 180ac .cfa: sp 0 +
STACK CFI INIT 180b0 24 .cfa: sp 0 +
STACK CFI 180b4 .cfa: sp 32 +
STACK CFI 180bc .cfa: x29 32 + x19: .cfa -16 + ^ .ra: .cfa -24 + ^ x29: .cfa -32 + ^
STACK CFI 180c8 .cfa: sp 32 +
STACK CFI 180d0 .cfa: sp 0 +
STACK CFI INIT 183ac 14 .cfa: sp 0 +
STACK CFI 183b0 .cfa: sp 16 +
STACK CFI 183b4 .cfa: x29 16 + .ra: .cfa -8 + ^ x29: .cfa -16 + ^
STACK CFI INIT 18410 30 .cfa: sp 0 +
STACK CFI 18414 .cfa: sp 32 +
STACK CFI 1841c .cfa: x29 32 + x19: .cfa -16 + ^ .ra: .cfa -24 + ^ x29: .cfa -32 + ^
STACK CFI 18434 .cfa: sp 32 +
STACK CFI 1843c .cfa: sp 0 +
STACK CFI INIT 18440 34 .cfa: sp 0 +
STACK CFI 18444 .cfa: sp 32 +
STACK CFI 1844c .cfa: x29 32 + x19: .cfa -16 + ^ .ra: .cfa -24 + ^ x29: .cfa -32 + ^
STACK CFI INIT 185e8 148 .cfa: sp 0 +
STACK CFI 185ec .cfa: sp 48 +
STACK CFI 185f8 .cfa: x29 48 + x19: .cfa -8 + ^ x20: .cfa -16 + ^ x21: .cfa -32 + ^ .ra: .cfa -40 + ^ x29: .cfa -48 + ^
STACK CFI 18720 .cfa: sp 48 +
STACK CFI 1872c .cfa: sp 0 +
STACK CFI INIT 18954 80 .cfa: sp 0 +
STACK CFI 18958 .cfa: sp 48 +
STACK CFI 18964 .cfa: x29 48 + x19: .cfa -8 + ^ x20: .cfa -16 + ^ x21: .cfa -24 + ^ x22: .cfa -32 + ^ .ra: .cfa -40 + ^ x29: .cfa -48 + ^
STACK CFI 1897c .cfa: sp 48 +
STACK CFI 18988 .cfa: sp 0 +
STACK CFI 1898c .cfa: x29 48 +
STACK CFI 189bc .cfa: sp 48 +
STACK CFI 189c8 .cfa: sp 0 +
STACK CFI 189cc .cfa: x29 48 +
STACK CFI INIT 189d4 68 .cfa: sp 0 +
STACK CFI 189d8 .cfa: sp 32 +
STACK CFI 189e0 .cfa: x29 32 + x19: .cfa -8 + ^ x20: .cfa -16 + ^ .ra: .cfa -24 + ^ x29: .cfa -32 + ^
STACK CFI 189f8 .cfa: sp 32 +
STACK CFI 18a00 .cfa: sp 0 +
STACK CFI 18a04 .cfa: x29 32 +
STACK CFI 18a30 .cfa: sp 32 +
STACK CFI 18a38 .cfa: sp 0 +
STACK CFI INIT 18a3c 14 .cfa: sp 0 +
STACK CFI 18a40 .cfa: sp 16 +
STACK CFI 18a44 .cfa: x29 16 + .ra: .cfa -8 + ^ x29: .cfa -16 + ^
STACK CFI INIT 18a50 4 .cfa: sp 0 +
STACK CFI INIT 18a54 14 .cfa: sp 0 +
STACK CFI INIT 18a68 120 .cfa: sp 0 +
STACK CFI 18a6c .cfa: sp 64 +
STACK CFI 18a7c .cfa: x29 64 + x19: .cfa -8 + ^ x20: .cfa -16 + ^ x21: .cfa -24 + ^ x22: .cfa -32 + ^ x23: .cfa -40 + ^ x24: .cfa -48 + ^ .ra: .cfa -56 + ^ x29: .cfa -64 + ^
STACK CFI 18b74 .cfa: sp 64 +
STACK CFI 18b84 .cfa: sp 0 +
STACK CFI INIT 18b88 4a4 .cfa: sp 0 +
STACK CFI 18b8c .cfa: sp 32 +
STACK CFI 18b94 .cfa: x29 32 + x19: .cfa -8 + ^ x20: .cfa -16 + ^ .ra: .cfa -24 + ^ x29: .cfa -32 + ^
STACK CFI 18f74 .cfa: sp 32 +
STACK CFI 18f7c .cfa: sp 0 +
STACK CFI 18f80 .cfa: x29 32 +
STACK CFI INIT 1902c 84 .cfa: sp 0 +
STACK CFI 19034 .cfa: sp 32 +
STACK CFI 1903c .cfa: x29 32 + x19: .cfa -8 + ^ x20: .cfa -16 + ^ .ra: .cfa -24 + ^ x29: .cfa -32 + ^
STACK CFI 1907c .cfa: sp 32 +
STACK CFI 19084 .cfa: sp 0 +
STACK CFI 1908c .cfa: x29 32 +
STACK CFI INIT 190b0 f8 .cfa: sp 0 +
STACK CFI 190b4 .cfa: sp 80 +
STACK CFI 190c4 .cfa: x29 48 + x19: .cfa -8 + ^ x20: .cfa -16 + ^ x21: .cfa -24 + ^ x22: .cfa -32 + ^ .ra: .cfa -40 + ^ x29: .cfa -48 + ^
STACK CFI 19190 .cfa: sp 80 +
STACK CFI 191a0 .cfa: sp 0 +
STACK CFI 191a4 .cfa: x29 48 +
STACK CFI INIT 19250 9c .cfa: sp 0 +
STACK CFI INIT 192ec 8 .cfa: sp 0 +
STACK CFI INIT 192f4 50 .cfa: sp 0 +
STACK CFI 192f8 .cfa: sp 32 +
STACK CFI 19300 .cfa: x29 32 + x19: .cfa -16 + ^ .ra: .cfa -24 + ^ x29: .cfa -32 + ^
STACK CFI 19318 .cfa: sp 32 +
STACK CFI 19320 .cfa: sp 0 +
STACK CFI 19324 .cfa: x29 32 +
STACK CFI 19338 .cfa: sp 32 +
STACK CFI 19340 .cfa: sp 0 +
STACK CFI INIT 19344 64 .cfa: sp 0 +
STACK CFI 19348 .cfa: sp 32 +
STACK CFI 19350 .cfa: x29 32 + x19: .cfa -16 + ^ .ra: .cfa -24 + ^ x29: .cfa -32 + ^
STACK CFI 1937c .cfa: sp 32 +
STACK CFI 19384 .cfa: sp 0 +
STACK CFI 19388 .cfa: x29 32 +
STACK CFI 1939c .cfa: sp 32 +
STACK CFI 193a4 .cfa: sp 0 +
STACK CFI INIT 1b654 130 .cfa: sp 0 +
STACK CFI 1b658 .cfa: sp 80 +
STACK CFI 1b668 .cfa: x29 48 + x19: .cfa -8 + ^ x20: .cfa -16 + ^ x21: .cfa -24 + ^ x22: .cfa -32 + ^ .ra: .cfa -40 + ^ x29: .cfa -48 + ^
STACK CFI 1b76c .cfa: sp 80 +
STACK CFI 1b77c .cfa: sp 0 +
STACK CFI 1b780 .cfa: x29 48 +
STACK CFI INIT 1b7f8 f8 .cfa: sp 0 +
STACK CFI 1b7fc .cfa: sp 64 +
STACK CFI 1b80c .cfa: x29 64 + x19: .cfa -8 + ^ x20: .cfa -16 + ^ x21: .cfa -24 + ^ x22: .cfa -32 + ^ x23: .cfa -48 + ^ .ra: .cfa -56 + ^ x29: .cfa -64 + ^
STACK CFI 1b868 .cfa: sp 64 +
STACK CFI 1b878 .cfa: sp 0 +
STACK CFI 1b87c .cfa: x29 64 +
STACK CFI 1b898 .cfa: sp 64 +
STACK CFI 1b8a8 .cfa: sp 0 +
STACK CFI 1b8ac .cfa: x29 64 +
STACK CFI 1b8dc .cfa: sp 64 +
STACK CFI 1b8ec .cfa: sp 0 +
STACK CFI INIT 1bc34 c .cfa: sp 0 +
STACK CFI 1bc38 .cfa: sp 16 +
STACK CFI 1bc3c .cfa: x29 16 + .ra: .cfa -8 + ^ x29: .cfa -16 + ^
STACK CFI INIT 1bc88 38 .cfa: sp 0 +
STACK CFI 1bc8c .cfa: sp 32 +
STACK CFI 1bc94 .cfa: x29 32 + x19: .cfa -16 + ^ .ra: .cfa -24 + ^ x29: .cfa -32 + ^
STACK CFI 1bcb4 .cfa: sp 32 +
STACK CFI 1bcbc .cfa: sp 0 +
STACK CFI INIT 1ecf0 7c .cfa: sp 0 +
STACK CFI 1ecf4 .cfa: sp 48 +
STACK CFI 1ed00 .cfa: x29 48 + x19: .cfa -8 + ^ x20: .cfa -16 + ^ x21: .cfa -32 + ^ .ra: .cfa -40 + ^ x29: .cfa -48 + ^
STACK CFI 1ed4c .cfa: sp 48 +
STACK CFI 1ed58 .cfa: sp 0 +
STACK CFI 1ed5c .cfa: sp 48 +
STACK CFI 1ed68 .cfa: sp 0 +
STACK CFI INIT 1ee18 24 .cfa: sp 0 +
STACK CFI 1ee1c .cfa: sp 32 +
STACK CFI 1ee24 .cfa: x29 32 + x19: .cfa -16 + ^ .ra: .cfa -24 + ^ x29: .cfa -32 + ^
STACK CFI 1ee30 .cfa: sp 32 +
STACK CFI 1ee38 .cfa: sp 0 +
STACK CFI INIT 1ee3c 200 .cfa: sp 0 +
STACK CFI 1ee40 .cfa: sp 64 +
STACK CFI 1ee4c .cfa: x29 32 + x19: .cfa -8 + ^ x20: .cfa -16 + ^ .ra: .cfa -24 + ^ x29: .cfa -32 + ^
STACK CFI 1f028 .cfa: sp 64 +
STACK CFI 1f034 .cfa: sp 0 +
STACK CFI 1f038 .cfa: x29 32 +
STACK CFI INIT 1f03c 3c4 .cfa: sp 0 +
STACK CFI 1f040 .cfa: sp 144 +
STACK CFI 1f05c .cfa: x29 80 + x19: .cfa -8 + ^ x20: .cfa -16 + ^ x21: .cfa -24 + ^ x22: .cfa -32 + ^ x23: .cfa -40 + ^ x24: .cfa -48 + ^ x25: .cfa -56 + ^ x26: .cfa -64 + ^ .ra: .cfa -72 + ^ x29: .cfa -80 + ^ v8: .cfa -88 + ^ v9: .cfa -96 + ^
STACK CFI 1f3dc .cfa: sp 144 +
STACK CFI 1f3f8 .cfa: sp 0 +
STACK CFI 1f3fc .cfa: x29 80 +
STACK CFI INIT 1f400 13c .cfa: sp 0 +
STACK CFI 1f404 .cfa: sp 64 +
STACK CFI 1f414 .cfa: x29 32 + x19: .cfa -8 + ^ x20: .cfa -16 + ^ .ra: .cfa -24 + ^ x29: .cfa -32 + ^ v8: .cfa -40 + ^ v9: .cfa -48 + ^ v10: .cfa -56 + ^ v11: .cfa -64 + ^
STACK CFI 1f528 .cfa: sp 64 +
STACK CFI 1f538 .cfa: sp 0 +
STACK CFI INIT 1fe3c 7c .cfa: sp 0 +
STACK CFI 1fe40 .cfa: sp 48 +
STACK CFI 1fe4c .cfa: x29 48 + x19: .cfa -8 + ^ x20: .cfa -16 + ^ x21: .cfa -32 + ^ .ra: .cfa -40 + ^ x29: .cfa -48 + ^
STACK CFI 1fea8 .cfa: sp 48 +
STACK CFI 1feb4 .cfa: sp 0 +
STACK CFI INIT 1feb8 118 .cfa: sp 0 +
STACK CFI 1febc .cfa: sp 80 +
STACK CFI 1fed0 .cfa: x29 64 + x19: .cfa -8 + ^ x20: .cfa -16 + ^ x21: .cfa -24 + ^ x22: .cfa -32 + ^ x23: .cfa -48 + ^ .ra: .cfa -56 + ^ x29: .cfa -64 + ^
STACK CFI 1ff9c .cfa: sp 80 +
STACK CFI 1ffb0 .cfa: sp 0 +
STACK CFI 1ffb4 .cfa: x29 64 +
STACK CFI INIT 1ffd0 88 .cfa: sp 0 +
STACK CFI 1ffd8 .cfa: sp 48 +
STACK CFI 1ffe4 .cfa: x29 48 + x19: .cfa -8 + ^ x20: .cfa -16 + ^ x21: .cfa -24 + ^ x22: .cfa -32 + ^ .ra: .cfa -40 + ^ x29: .cfa -48 + ^
STACK CFI 20048 .cfa: sp 48 +
STACK CFI 20054 .cfa: sp 0 +
STACK CFI INIT 20058 4 .cfa: sp 0 +
STACK CFI INIT 2005c 14 .cfa: sp 0 +
STACK CFI INIT 201bc ac .cfa: sp 0 +
STACK CFI 201c0 .cfa: sp 64 +
STACK CFI 201d0 .cfa: x29 64 + x19: .cfa -8 + ^ x20: .cfa -16 + ^ x21: .cfa -24 + ^ x22: .cfa -32 + ^ x23: .cfa -48 + ^ .ra: .cfa -56 + ^ x29: .cfa -64 + ^
STACK CFI 2024c .cfa: sp 64 +
STACK CFI 2025c .cfa: sp 0 +
STACK CFI 20260 .cfa: x29 64 +
STACK CFI INIT 20268 68 .cfa: sp 0 +
STACK CFI 2026c .cfa: sp 32 +
STACK CFI 20274 .cfa: x29 32 + x19: .cfa -8 + ^ x20: .cfa -16 + ^ .ra: .cfa -24 + ^ x29: .cfa -32 + ^
STACK CFI 2028c .cfa: sp 32 +
STACK CFI 20294 .cfa: sp 0 +
STACK CFI 20298 .cfa: x29 32 +
STACK CFI 202c4 .cfa: sp 32 +
STACK CFI 202cc .cfa: sp 0 +
STACK CFI INIT 202d0 14 .cfa: sp 0 +
STACK CFI 202d4 .cfa: sp 16 +
STACK CFI 202d8 .cfa: x29 16 + .ra: .cfa -8 + ^ x29: .cfa -16 + ^
STACK CFI INIT 202e4 14 .cfa: sp 0 +
STACK CFI INIT 202f8 14 .cfa: sp 0 +
STACK CFI INIT 2030c 4 .cfa: sp 0 +
STACK CFI INIT 20310 14 .cfa: sp 0 +
STACK CFI INIT 20324 314 .cfa: sp 0 +
STACK CFI 20328 .cfa: sp 96 +
STACK CFI 20340 .cfa: x29 96 + x19: .cfa -8 + ^ x20: .cfa -16 + ^ x21: .cfa -24 + ^ x22: .cfa -32 + ^ x23: .cfa -40 + ^ x24: .cfa -48 + ^ x25: .cfa -56 + ^ x26: .cfa -64 + ^ x27: .cfa -80 + ^ .ra: .cfa -88 + ^ x29: .cfa -96 + ^
STACK CFI 205fc .cfa: sp 96 +
STACK CFI 20614 .cfa: sp 0 +
STACK CFI 20618 .cfa: x29 96 +
STACK CFI INIT 20984 4 .cfa: sp 0 +
STACK CFI INIT 20fcc 4 .cfa: sp 0 +
STACK CFI INIT 212a8 98 .cfa: sp 0 +
STACK CFI INIT 216ac 4 .cfa: sp 0 +
STACK CFI INIT 21c40 4 .cfa: sp 0 +
STACK CFI INIT 22308 4 .cfa: sp 0 +
STACK CFI INIT 22880 4 .cfa: sp 0 +
STACK CFI INIT 22fe4 4 .cfa: sp 0 +
STACK CFI INIT 233bc b4 .cfa: sp 0 +
STACK CFI 233c0 .cfa: sp 32 +
STACK CFI 233c8 .cfa: x29 32 + x19: .cfa -16 + ^ .ra: .cfa -24 + ^ x29: .cfa -32 + ^
STACK CFI 23464 .cfa: sp 32 +
STACK CFI 2346c .cfa: sp 0 +
STACK CFI INIT 237dc 4 .cfa: sp 0 +
STACK CFI INIT 23d80 4 .cfa: sp 0 +
STACK CFI INIT 243c4 4 .cfa: sp 0 +
STACK CFI INIT 243c8 100 .cfa: sp 0 +
STACK CFI 243cc .cfa: sp 80 +
STACK CFI 243dc .cfa: x29 48 + x19: .cfa -8 + ^ x20: .cfa -16 + ^ x21: .cfa -24 + ^ x22: .cfa -32 + ^ .ra: .cfa -40 + ^ x29: .cfa -48 + ^
STACK CFI 244b0 .cfa: sp 80 +
STACK CFI 244c0 .cfa: sp 0 +
STACK CFI 244c4 .cfa: x29 48 +
STACK CFI INIT 24834 4 .cfa: sp 0 +
STACK CFI INIT 24b04 3c .cfa: sp 0 +
STACK CFI 24b08 .cfa: sp 32 +
STACK CFI 24b10 .cfa: x29 32 + x19: .cfa -16 + ^ .ra: .cfa -24 + ^ x29: .cfa -32 + ^
STACK CFI 24b1c .cfa: sp 32 +
STACK CFI 24b24 .cfa: sp 0 +
STACK CFI 24b28 .cfa: x29 32 +
STACK CFI 24b34 .cfa: sp 32 +
STACK CFI 24b3c .cfa: sp 0 +
STACK CFI INIT 24b40 3c .cfa: sp 0 +
STACK CFI 24b44 .cfa: sp 32 +
STACK CFI 24b4c .cfa: x29 32 + x19: .cfa -16 + ^ .ra: .cfa -24 + ^ x29: .cfa -32 + ^
STACK CFI 24b58 .cfa: sp 32 +
STACK CFI 24b60 .cfa: sp 0 +
STACK CFI 24b64 .cfa: x29 32 +
STACK CFI 24b70 .cfa: sp 32 +
STACK CFI 24b78 .cfa: sp 0 +
STACK CFI INIT 24b7c c .cfa: sp 0 +
STACK CFI INIT 24b88 24c .cfa: sp 0 +
STACK CFI INIT 24dd4 a0 .cfa: sp 0 +
STACK CFI 24de0 .cfa: sp 32 +
STACK CFI 24e38 .cfa: sp 0 +
STACK CFI 24e3c .cfa: sp 32 +
STACK CFI 24e44 .cfa: sp 0 +
STACK CFI 24e48 .cfa: sp 32 +
STACK CFI 24e5c .cfa: sp 0 +
STACK CFI 24e60 .cfa: sp 32 +
STACK CFI 24e70 .cfa: sp 0 +
STACK CFI INIT 24e74 38 .cfa: sp 0 +
STACK CFI 24e80 .cfa: sp 32 +
STACK CFI 24ea8 .cfa: sp 0 +
STACK CFI INIT 25140 7c .cfa: sp 0 +
STACK CFI 25144 .cfa: sp 32 +
STACK CFI 2514c .cfa: x29 32 + x19: .cfa -16 + ^ .ra: .cfa -24 + ^ x29: .cfa -32 + ^
STACK CFI 25178 .cfa: sp 32 +
STACK CFI 25180 .cfa: sp 0 +
STACK CFI 25184 .cfa: x29 32 +
STACK CFI 251b0 .cfa: sp 32 +
STACK CFI 251b8 .cfa: sp 0 +
STACK CFI INIT 2520c 2c .cfa: sp 0 +
STACK CFI 25210 .cfa: sp 32 +
STACK CFI 25218 .cfa: x29 32 + x19: .cfa -16 + ^ .ra: .cfa -24 + ^ x29: .cfa -32 + ^
STACK CFI 2522c .cfa: sp 32 +
STACK CFI 25234 .cfa: sp 0 +
STACK CFI INIT 259f8 64 .cfa: sp 0 +
STACK CFI 259fc .cfa: sp 32 +
STACK CFI 25a04 .cfa: x29 32 + x19: .cfa -16 + ^ .ra: .cfa -24 + ^ x29: .cfa -32 + ^
STACK CFI 25a20 .cfa: sp 32 +
STACK CFI 25a28 .cfa: sp 0 +
STACK CFI 25a2c .cfa: x29 32 +
STACK CFI 25a50 .cfa: sp 32 +
STACK CFI 25a58 .cfa: sp 0 +
STACK CFI INIT 25b98 570 .cfa: sp 0 +
STACK CFI 25b9c .cfa: sp 176 +
STACK CFI 25bb0 .cfa: x29 64 + x19: .cfa -8 + ^ x20: .cfa -16 + ^ x21: .cfa -24 + ^ x22: .cfa -32 + ^ x23: .cfa -40 + ^ x24: .cfa -48 + ^ .ra: .cfa -56 + ^ x29: .cfa -64 + ^
STACK CFI 25de0 .cfa: sp 176 +
STACK CFI 25df4 .cfa: sp 0 +
STACK CFI 25df8 .cfa: x29 64 +
STACK CFI 25e44 .cfa: sp 176 +
STACK CFI 25e58 .cfa: sp 0 +
STACK CFI 25e5c .cfa: x29 64 +
STACK CFI 25e94 .cfa: sp 176 +
STACK CFI 25ea8 .cfa: sp 0 +
STACK CFI 25eac .cfa: x29 64 +
STACK CFI 25ec4 .cfa: sp 176 +
STACK CFI 25ed8 .cfa: sp 0 +
STACK CFI 25edc .cfa: x29 64 +
STACK CFI 25efc .cfa: sp 176 +
STACK CFI 25f10 .cfa: sp 0 +
STACK CFI 25f14 .cfa: x29 64 +
STACK CFI 25f2c .cfa: sp 176 +
STACK CFI 25f40 .cfa: sp 0 +
STACK CFI 25f44 .cfa: x29 64 +
STACK CFI 25f58 .cfa: sp 176 +
STACK CFI 25f6c .cfa: sp 0 +
STACK CFI 25f70 .cfa: x29 64 +
STACK CFI 25f84 .cfa: sp 176 +
STACK CFI 25f98 .cfa: sp 0 +
STACK CFI 25f9c .cfa: x29 64 +
STACK CFI 25fac .cfa: sp 176 +
STACK CFI 25fc0 .cfa: sp 0 +
STACK CFI 25fc4 .cfa: x29 64 +
STACK CFI 25fd4 .cfa: sp 176 +
STACK CFI 25fe8 .cfa: sp 0 +
STACK CFI 25fec .cfa: x29 64 +
STACK CFI 26004 .cfa: sp 176 +
STACK CFI 26018 .cfa: sp 0 +
STACK CFI 2601c .cfa: x29 64 +
STACK CFI 26030 .cfa: sp 176 +
STACK CFI 26044 .cfa: sp 0 +
STACK CFI 26048 .cfa: x29 64 +
STACK CFI 26060 .cfa: sp 176 +
STACK CFI 26074 .cfa: sp 0 +
STACK CFI 26078 .cfa: x29 64 +
STACK CFI 260a4 .cfa: sp 176 +
STACK CFI 260b8 .cfa: sp 0 +
STACK CFI 260bc .cfa: x29 64 +
STACK CFI 260d0 .cfa: sp 176 +
STACK CFI 260e4 .cfa: sp 0 +
STACK CFI 260e8 .cfa: x29 64 +
STACK CFI INIT 26108 228 .cfa: sp 0 +
STACK CFI INIT 26330 2dc .cfa: sp 0 +
STACK CFI INIT 2660c 53c .cfa: sp 0 +
STACK CFI INIT 26b48 78 .cfa: sp 0 +
STACK CFI 26b4c .cfa: sp 48 +
STACK CFI 26b58 .cfa: x29 48 + x19: .cfa -8 + ^ x20: .cfa -16 + ^ x21: .cfa -24 + ^ x22: .cfa -32 + ^ .ra: .cfa -40 + ^ x29: .cfa -48 + ^
STACK CFI 26ba0 .cfa: sp 48 +
STACK CFI 26bac .cfa: sp 0 +
STACK CFI 26bb0 .cfa: sp 48 +
STACK CFI 26bbc .cfa: sp 0 +
STACK CFI INIT 26bc0 8c .cfa: sp 0 +
STACK CFI 26bc4 .cfa: sp 32 +
STACK CFI 26bcc .cfa: x29 32 + x19: .cfa -16 + ^ .ra: .cfa -24 + ^ x29: .cfa -32 + ^
STACK CFI 26c00 .cfa: sp 32 +
STACK CFI 26c08 .cfa: sp 0 +
STACK CFI 26c0c .cfa: x29 32 +
STACK CFI 26c40 .cfa: sp 32 +
STACK CFI 26c48 .cfa: sp 0 +
STACK CFI INIT 26c4c 24 .cfa: sp 0 +
STACK CFI 26c50 .cfa: sp 32 +
STACK CFI 26c58 .cfa: x29 32 + x19: .cfa -16 + ^ .ra: .cfa -24 + ^ x29: .cfa -32 + ^
STACK CFI 26c64 .cfa: sp 32 +
STACK CFI 26c6c .cfa: sp 0 +
STACK CFI INIT 26c70 150 .cfa: sp 0 +
STACK CFI 26c74 .cfa: sp 48 +
STACK CFI 26c80 .cfa: x29 48 + x19: .cfa -8 + ^ x20: .cfa -16 + ^ x21: .cfa -24 + ^ x22: .cfa -32 + ^ .ra: .cfa -40 + ^ x29: .cfa -48 + ^
STACK CFI 26db0 .cfa: sp 48 +
STACK CFI 26dbc .cfa: sp 0 +
STACK CFI INIT 26dc0 68 .cfa: sp 0 +
STACK CFI 26dc4 .cfa: sp 64 +
STACK CFI 26dd0 .cfa: x29 32 + x19: .cfa -16 + ^ .ra: .cfa -24 + ^ x29: .cfa -32 + ^
STACK CFI 26e14 .cfa: sp 64 +
STACK CFI 26e20 .cfa: sp 0 +
STACK CFI 26e24 .cfa: x29 32 +
STACK CFI INIT 26e28 90 .cfa: sp 0 +
STACK CFI 26e2c .cfa: sp 32 +
STACK CFI 26e34 .cfa: x29 32 + x19: .cfa -8 + ^ x20: .cfa -16 + ^ .ra: .cfa -24 + ^ x29: .cfa -32 + ^
STACK CFI 26e60 .cfa: sp 32 +
STACK CFI 26e68 .cfa: sp 0 +
STACK CFI 26e6c .cfa: x29 32 +
STACK CFI 26eac .cfa: sp 32 +
STACK CFI 26eb4 .cfa: sp 0 +
STACK CFI INIT 26eb8 ec .cfa: sp 0 +
STACK CFI 26ebc .cfa: sp 112 +
STACK CFI 26ecc .cfa: x29 48 + x19: .cfa -8 + ^ x20: .cfa -16 + ^ x21: .cfa -32 + ^ .ra: .cfa -40 + ^ x29: .cfa -48 + ^
STACK CFI 26f8c .cfa: sp 112 +
STACK CFI 26f9c .cfa: sp 0 +
STACK CFI 26fa0 .cfa: x29 48 +
STACK CFI INIT 26fa4 ec .cfa: sp 0 +
STACK CFI 26fa8 .cfa: sp 112 +
STACK CFI 26fb8 .cfa: x29 48 + x19: .cfa -8 + ^ x20: .cfa -16 + ^ x21: .cfa -32 + ^ .ra: .cfa -40 + ^ x29: .cfa -48 + ^
STACK CFI 27078 .cfa: sp 112 +
STACK CFI 27088 .cfa: sp 0 +
STACK CFI 2708c .cfa: x29 48 +
STACK CFI INIT 27090 48 .cfa: sp 0 +
STACK CFI 27094 .cfa: sp 32 +
STACK CFI 2709c .cfa: x29 32 + x19: .cfa -8 + ^ x20: .cfa -16 + ^ .ra: .cfa -24 + ^ x29: .cfa -32 + ^
STACK CFI 270c0 .cfa: sp 32 +
STACK CFI 270c8 .cfa: sp 0 +
STACK CFI 270cc .cfa: x29 32 +
STACK CFI INIT 270d8 98 .cfa: sp 0 +
STACK CFI 270dc .cfa: sp 80 +
STACK CFI 270e8 .cfa: x29 32 + x19: .cfa -16 + ^ .ra: .cfa -24 + ^ x29: .cfa -32 + ^
STACK CFI 2715c .cfa: sp 80 +
STACK CFI 27168 .cfa: sp 0 +
STACK CFI 2716c .cfa: x29 32 +
STACK CFI INIT 27170 260 .cfa: sp 0 +
STACK CFI 27174 .cfa: sp 112 +
STACK CFI 2718c .cfa: x29 80 + x19: .cfa -8 + ^ x20: .cfa -16 + ^ x21: .cfa -24 + ^ x22: .cfa -32 + ^ x23: .cfa -40 + ^ x24: .cfa -48 + ^ x25: .cfa -64 + ^ .ra: .cfa -72 + ^ x29: .cfa -80 + ^
STACK CFI 27370 .cfa: sp 112 +
STACK CFI 27388 .cfa: sp 0 +
STACK CFI 2738c .cfa: x29 80 +
STACK CFI INIT 273d0 150 .cfa: sp 0 +
STACK CFI 273d4 .cfa: sp 48 +
STACK CFI 273e0 .cfa: x29 48 + x19: .cfa -8 + ^ x20: .cfa -16 + ^ x21: .cfa -24 + ^ x22: .cfa -32 + ^ .ra: .cfa -40 + ^ x29: .cfa -48 + ^
STACK CFI 27510 .cfa: sp 48 +
STACK CFI 2751c .cfa: sp 0 +
STACK CFI INIT 27520 1e0 .cfa: sp 0 +
STACK CFI 27524 .cfa: sp 96 +
STACK CFI 27538 .cfa: x29 64 + x19: .cfa -8 + ^ x20: .cfa -16 + ^ x21: .cfa -24 + ^ x22: .cfa -32 + ^ x23: .cfa -40 + ^ x24: .cfa -48 + ^ .ra: .cfa -56 + ^ x29: .cfa -64 + ^
STACK CFI 276b8 .cfa: sp 96 +
STACK CFI 276cc .cfa: sp 0 +
STACK CFI 276d0 .cfa: x29 64 +
STACK CFI INIT 27700 284 .cfa: sp 0 +
STACK CFI 27704 .cfa: sp 112 +
STACK CFI 2771c .cfa: x29 80 + x19: .cfa -8 + ^ x20: .cfa -16 + ^ x21: .cfa -24 + ^ x22: .cfa -32 + ^ x23: .cfa -40 + ^ x24: .cfa -48 + ^ x25: .cfa -64 + ^ .ra: .cfa -72 + ^ x29: .cfa -80 + ^
STACK CFI 27924 .cfa: sp 112 +
STACK CFI 2793c .cfa: sp 0 +
STACK CFI 27940 .cfa: x29 80 +
STACK CFI INIT 27984 208 .cfa: sp 0 +
STACK CFI 27988 .cfa: sp 96 +
STACK CFI 2799c .cfa: x29 64 + x19: .cfa -8 + ^ x20: .cfa -16 + ^ x21: .cfa -24 + ^ x22: .cfa -32 + ^ x23: .cfa -40 + ^ x24: .cfa -48 + ^ .ra: .cfa -56 + ^ x29: .cfa -64 + ^
STACK CFI 27b44 .cfa: sp 96 +
STACK CFI 27b58 .cfa: sp 0 +
STACK CFI 27b5c .cfa: x29 64 +
STACK CFI INIT 27b8c 360 .cfa: sp 0 +
STACK CFI 27b90 .cfa: sp 160 +
STACK CFI 27bac .cfa: x29 96 + x19: .cfa -8 + ^ x20: .cfa -16 + ^ x21: .cfa -24 + ^ x22: .cfa -32 + ^ x23: .cfa -40 + ^ x24: .cfa -48 + ^ x25: .cfa -56 + ^ x26: .cfa -64 + ^ x27: .cfa -72 + ^ x28: .cfa -80 + ^ .ra: .cfa -88 + ^ x29: .cfa -96 + ^
STACK CFI 27e78 .cfa: sp 160 +
STACK CFI 27e94 .cfa: sp 0 +
STACK CFI 27e98 .cfa: x29 96 +
STACK CFI INIT 27eec 314 .cfa: sp 0 +
STACK CFI 27ef0 .cfa: sp 144 +
STACK CFI 27f0c .cfa: x29 96 + x19: .cfa -8 + ^ x20: .cfa -16 + ^ x21: .cfa -24 + ^ x22: .cfa -32 + ^ x23: .cfa -40 + ^ x24: .cfa -48 + ^ x25: .cfa -56 + ^ x26: .cfa -64 + ^ x27: .cfa -72 + ^ x28: .cfa -80 + ^ .ra: .cfa -88 + ^ x29: .cfa -96 + ^
STACK CFI 28188 .cfa: sp 144 +
STACK CFI 281a4 .cfa: sp 0 +
STACK CFI 281a8 .cfa: x29 96 +
STACK CFI INIT 28200 290 .cfa: sp 0 +
STACK CFI 28204 .cfa: sp 128 +
STACK CFI 2821c .cfa: x29 80 + x19: .cfa -8 + ^ x20: .cfa -16 + ^ x21: .cfa -24 + ^ x22: .cfa -32 + ^ x23: .cfa -40 + ^ x24: .cfa -48 + ^ x25: .cfa -56 + ^ x26: .cfa -64 + ^ .ra: .cfa -72 + ^ x29: .cfa -80 + ^
STACK CFI 28470 .cfa: sp 128 +
STACK CFI 28488 .cfa: sp 0 +
STACK CFI 2848c .cfa: x29 80 +
STACK CFI INIT 28490 ddc .cfa: sp 0 +
STACK CFI 28494 .cfa: sp 144 +
STACK CFI 284b0 .cfa: x29 96 + x19: .cfa -8 + ^ x20: .cfa -16 + ^ x21: .cfa -24 + ^ x22: .cfa -32 + ^ x23: .cfa -40 + ^ x24: .cfa -48 + ^ x25: .cfa -56 + ^ x26: .cfa -64 + ^ x27: .cfa -72 + ^ x28: .cfa -80 + ^ .ra: .cfa -88 + ^ x29: .cfa -96 + ^
STACK CFI 29144 .cfa: sp 144 +
STACK CFI 29160 .cfa: sp 0 +
STACK CFI 29164 .cfa: x29 96 +
STACK CFI INIT 2926c 1d0 .cfa: sp 0 +
STACK CFI 29270 .cfa: sp 80 +
STACK CFI 29284 .cfa: x29 80 + x19: .cfa -8 + ^ x20: .cfa -16 + ^ x21: .cfa -24 + ^ x22: .cfa -32 + ^ x23: .cfa -40 + ^ x24: .cfa -48 + ^ x25: .cfa -64 + ^ .ra: .cfa -72 + ^ x29: .cfa -80 + ^
STACK CFI 29424 .cfa: sp 80 +
STACK CFI 29438 .cfa: sp 0 +
STACK CFI INIT 2943c 23c .cfa: sp 0 +
STACK CFI 29440 .cfa: sp 112 +
STACK CFI 29454 .cfa: x29 64 + x19: .cfa -8 + ^ x20: .cfa -16 + ^ x21: .cfa -24 + ^ x22: .cfa -32 + ^ x23: .cfa -40 + ^ x24: .cfa -48 + ^ .ra: .cfa -56 + ^ x29: .cfa -64 + ^
STACK CFI 29630 .cfa: sp 112 +
STACK CFI 29644 .cfa: sp 0 +
STACK CFI 29648 .cfa: x29 64 +
STACK CFI INIT 29678 30c .cfa: sp 0 +
STACK CFI 2967c .cfa: sp 80 +
STACK CFI 29690 .cfa: x29 64 + x19: .cfa -8 + ^ x20: .cfa -16 + ^ x21: .cfa -24 + ^ x22: .cfa -32 + ^ x23: .cfa -40 + ^ x24: .cfa -48 + ^ .ra: .cfa -56 + ^ x29: .cfa -64 + ^
STACK CFI 2980c .cfa: sp 80 +
STACK CFI 29820 .cfa: sp 0 +
STACK CFI 29824 .cfa: x29 64 +
STACK CFI INIT 29984 178 .cfa: sp 0 +
STACK CFI 29988 .cfa: sp 80 +
STACK CFI 2999c .cfa: x29 64 + x19: .cfa -8 + ^ x20: .cfa -16 + ^ x21: .cfa -24 + ^ x22: .cfa -32 + ^ x23: .cfa -40 + ^ x24: .cfa -48 + ^ .ra: .cfa -56 + ^ x29: .cfa -64 + ^
STACK CFI 29ae0 .cfa: sp 80 +
STACK CFI 29af4 .cfa: sp 0 +
STACK CFI 29af8 .cfa: x29 64 +
STACK CFI INIT 29afc 178 .cfa: sp 0 +
STACK CFI 29b00 .cfa: sp 80 +
STACK CFI 29b14 .cfa: x29 64 + x19: .cfa -8 + ^ x20: .cfa -16 + ^ x21: .cfa -24 + ^ x22: .cfa -32 + ^ x23: .cfa -40 + ^ x24: .cfa -48 + ^ .ra: .cfa -56 + ^ x29: .cfa -64 + ^
STACK CFI 29c58 .cfa: sp 80 +
STACK CFI 29c6c .cfa: sp 0 +
STACK CFI 29c70 .cfa: x29 64 +
STACK CFI INIT 29c74 240 .cfa: sp 0 +
STACK CFI 29c78 .cfa: sp 96 +
STACK CFI 29c90 .cfa: x29 96 + x19: .cfa -8 + ^ x20: .cfa -16 + ^ x21: .cfa -24 + ^ x22: .cfa -32 + ^ x23: .cfa -40 + ^ x24: .cfa -48 + ^ x25: .cfa -56 + ^ x26: .cfa -64 + ^ x27: .cfa -72 + ^ x28: .cfa -80 + ^ .ra: .cfa -88 + ^ x29: .cfa -96 + ^
STACK CFI 29e98 .cfa: sp 96 +
STACK CFI 29eb0 .cfa: sp 0 +
STACK CFI INIT 2ab28 154 .cfa: sp 0 +
STACK CFI 2ab2c .cfa: sp 96 +
STACK CFI 2ab40 .cfa: x29 64 + x19: .cfa -8 + ^ x20: .cfa -16 + ^ x21: .cfa -24 + ^ x22: .cfa -32 + ^ x23: .cfa -48 + ^ .ra: .cfa -56 + ^ x29: .cfa -64 + ^
STACK CFI 2ac20 .cfa: sp 96 +
STACK CFI 2ac34 .cfa: sp 0 +
STACK CFI 2ac38 .cfa: x29 64 +
STACK CFI INIT 2aee8 44 .cfa: sp 0 +
STACK CFI 2aeec .cfa: sp 32 +
STACK CFI 2aef4 .cfa: x29 32 + x19: .cfa -16 + ^ .ra: .cfa -24 + ^ x29: .cfa -32 + ^
STACK CFI 2af10 .cfa: sp 32 +
STACK CFI 2af18 .cfa: sp 0 +
STACK CFI 2af1c .cfa: x29 32 +
STACK CFI 2af20 .cfa: sp 32 +
STACK CFI 2af28 .cfa: sp 0 +
STACK CFI INIT 2af2c 1d0 .cfa: sp 0 +
STACK CFI 2af30 .cfa: sp 64 +
STACK CFI 2af40 .cfa: x29 64 + x19: .cfa -8 + ^ x20: .cfa -16 + ^ x21: .cfa -24 + ^ x22: .cfa -32 + ^ x23: .cfa -40 + ^ x24: .cfa -48 + ^ .ra: .cfa -56 + ^ x29: .cfa -64 + ^
STACK CFI 2b000 .cfa: sp 64 +
STACK CFI 2b010 .cfa: sp 0 +
STACK CFI 2b014 .cfa: x29 64 +
STACK CFI INIT 2b0fc 17c .cfa: sp 0 +
STACK CFI INIT 2b278 110 .cfa: sp 0 +
STACK CFI 2b27c .cfa: sp 64 +
STACK CFI 2b28c .cfa: x29 64 + x19: .cfa -8 + ^ x20: .cfa -16 + ^ x21: .cfa -24 + ^ x22: .cfa -32 + ^ x23: .cfa -40 + ^ x24: .cfa -48 + ^ .ra: .cfa -56 + ^ x29: .cfa -64 + ^
STACK CFI 2b36c .cfa: sp 64 +
STACK CFI 2b37c .cfa: sp 0 +
STACK CFI 2b380 .cfa: x29 64 +
STACK CFI INIT 2b740 a0 .cfa: sp 0 +
STACK CFI 2b744 .cfa: sp 48 +
STACK CFI 2b750 .cfa: x29 48 + x19: .cfa -8 + ^ x20: .cfa -16 + ^ x21: .cfa -24 + ^ x22: .cfa -32 + ^ .ra: .cfa -40 + ^ x29: .cfa -48 + ^
STACK CFI 2b7bc .cfa: sp 48 +
STACK CFI 2b7c8 .cfa: sp 0 +
STACK CFI 2b7cc .cfa: sp 48 +
STACK CFI 2b7d8 .cfa: sp 0 +
STACK CFI 2b7dc .cfa: x29 48 +
STACK CFI INIT 2c494 158 .cfa: sp 0 +
STACK CFI 2c498 .cfa: sp 96 +
STACK CFI 2c4ac .cfa: x29 64 + x19: .cfa -8 + ^ x20: .cfa -16 + ^ x21: .cfa -24 + ^ x22: .cfa -32 + ^ x23: .cfa -48 + ^ .ra: .cfa -56 + ^ x29: .cfa -64 + ^
STACK CFI 2c590 .cfa: sp 96 +
STACK CFI 2c5a4 .cfa: sp 0 +
STACK CFI 2c5a8 .cfa: x29 64 +
STACK CFI INIT 2c5ec 190 .cfa: sp 0 +
STACK CFI INIT 2d278 1dc .cfa: sp 0 +
STACK CFI 2d27c .cfa: sp 80 +
STACK CFI 2d290 .cfa: x29 80 + x19: .cfa -8 + ^ x20: .cfa -16 + ^ x21: .cfa -24 + ^ x22: .cfa -32 + ^ x23: .cfa -40 + ^ x24: .cfa -48 + ^ x25: .cfa -64 + ^ .ra: .cfa -72 + ^ x29: .cfa -80 + ^
STACK CFI 2d43c .cfa: sp 80 +
STACK CFI 2d450 .cfa: sp 0 +
STACK CFI INIT 2e884 124 .cfa: sp 0 +
STACK CFI 2e8b4 .cfa: sp 32 +
STACK CFI 2e8bc .cfa: x29 32 + x19: .cfa -8 + ^ x20: .cfa -16 + ^ .ra: .cfa -24 + ^ x29: .cfa -32 + ^
STACK CFI 2e99c .cfa: sp 32 +
STACK CFI 2e9a4 .cfa: sp 0 +
STACK CFI INIT 2f104 320 .cfa: sp 0 +
STACK CFI 2f108 .cfa: sp 64 +
STACK CFI 2f118 .cfa: x29 64 + x19: .cfa -8 + ^ x20: .cfa -16 + ^ x21: .cfa -24 + ^ x22: .cfa -32 + ^ x23: .cfa -40 + ^ x24: .cfa -48 + ^ .ra: .cfa -56 + ^ x29: .cfa -64 + ^
STACK CFI 2f194 .cfa: sp 64 +
STACK CFI 2f1a4 .cfa: sp 0 +
STACK CFI 2f1a8 .cfa: x29 64 +
STACK CFI 2f37c .cfa: sp 64 +
STACK CFI 2f38c .cfa: sp 0 +
STACK CFI 2f390 .cfa: x29 64 +
STACK CFI 2f3a0 .cfa: sp 64 +
STACK CFI 2f3b0 .cfa: sp 0 +
STACK CFI 2f3b4 .cfa: x29 64 +
STACK CFI INIT 2f424 a0 .cfa: sp 0 +
STACK CFI 2f428 .cfa: sp 48 +
STACK CFI 2f434 .cfa: x29 48 + x19: .cfa -8 + ^ x20: .cfa -16 + ^ x21: .cfa -24 + ^ x22: .cfa -32 + ^ .ra: .cfa -40 + ^ x29: .cfa -48 + ^
STACK CFI 2f4a0 .cfa: sp 48 +
STACK CFI 2f4ac .cfa: sp 0 +
STACK CFI 2f4b0 .cfa: sp 48 +
STACK CFI 2f4bc .cfa: sp 0 +
STACK CFI 2f4c0 .cfa: x29 48 +
STACK CFI INIT 30374 160 .cfa: sp 0 +
STACK CFI 30378 .cfa: sp 64 +
STACK CFI 30388 .cfa: x29 64 + x19: .cfa -8 + ^ x20: .cfa -16 + ^ x21: .cfa -24 + ^ x22: .cfa -32 + ^ x23: .cfa -48 + ^ .ra: .cfa -56 + ^ x29: .cfa -64 + ^
STACK CFI 30480 .cfa: sp 64 +
STACK CFI 30490 .cfa: sp 0 +
STACK CFI 30494 .cfa: x29 64 +
STACK CFI INIT 304d4 214 .cfa: sp 0 +
STACK CFI 304d8 .cfa: sp 128 +
STACK CFI 304f4 .cfa: x29 96 + x19: .cfa -8 + ^ x20: .cfa -16 + ^ x21: .cfa -24 + ^ x22: .cfa -32 + ^ x23: .cfa -40 + ^ x24: .cfa -48 + ^ x25: .cfa -56 + ^ x26: .cfa -64 + ^ x27: .cfa -80 + ^ .ra: .cfa -88 + ^ x29: .cfa -96 + ^
STACK CFI 30670 .cfa: sp 128 +
STACK CFI 3068c .cfa: sp 0 +
STACK CFI 30690 .cfa: x29 96 +
STACK CFI INIT 32384 290 .cfa: sp 0 +
STACK CFI 32388 .cfa: sp 16 +
STACK CFI 3238c .cfa: x29 16 + .ra: .cfa -8 + ^ x29: .cfa -16 + ^
STACK CFI 32418 .cfa: sp 16 +
STACK CFI 3241c .cfa: sp 0 +
STACK CFI 32420 .cfa: x29 16 +
STACK CFI 32470 .cfa: sp 16 +
STACK CFI 32474 .cfa: sp 0 +
STACK CFI 32478 .cfa: x29 16 +
STACK CFI 325dc .cfa: sp 16 +
STACK CFI 325e0 .cfa: sp 0 +
STACK CFI 325e4 .cfa: x29 16 +
STACK CFI INIT 32614 158 .cfa: sp 0 +
STACK CFI 32618 .cfa: sp 112 +
STACK CFI 32634 .cfa: x29 96 + x19: .cfa -8 + ^ x20: .cfa -16 + ^ x21: .cfa -24 + ^ x22: .cfa -32 + ^ x23: .cfa -40 + ^ x24: .cfa -48 + ^ x25: .cfa -56 + ^ x26: .cfa -64 + ^ x27: .cfa -72 + ^ x28: .cfa -80 + ^ .ra: .cfa -88 + ^ x29: .cfa -96 + ^
STACK CFI 3271c .cfa: sp 112 +
STACK CFI 32720 .cfa: x29 96 +
STACK CFI 32728 .cfa: sp 112 +
STACK CFI 32744 .cfa: sp 0 +
STACK CFI 32748 .cfa: x29 96 +
STACK CFI 32768 .cfa: sp 112 +
STACK CFI INIT 3276c e54 .cfa: sp 0 +
STACK CFI 32770 .cfa: sp 192 +
STACK CFI 3278c .cfa: x29 96 + x19: .cfa -8 + ^ x20: .cfa -16 + ^ x21: .cfa -24 + ^ x22: .cfa -32 + ^ x23: .cfa -40 + ^ x24: .cfa -48 + ^ x25: .cfa -56 + ^ x26: .cfa -64 + ^ x27: .cfa -72 + ^ x28: .cfa -80 + ^ .ra: .cfa -88 + ^ x29: .cfa -96 + ^
STACK CFI 334a8 .cfa: sp 192 +
STACK CFI 334c4 .cfa: sp 0 +
STACK CFI 334c8 .cfa: x29 96 +
STACK CFI INIT 335c0 1068 .cfa: sp 0 +
STACK CFI 335c4 .cfa: sp 288 +
STACK CFI 335e0 .cfa: x29 96 + x19: .cfa -8 + ^ x20: .cfa -16 + ^ x21: .cfa -24 + ^ x22: .cfa -32 + ^ x23: .cfa -40 + ^ x24: .cfa -48 + ^ x25: .cfa -56 + ^ x26: .cfa -64 + ^ x27: .cfa -72 + ^ x28: .cfa -80 + ^ .ra: .cfa -88 + ^ x29: .cfa -96 + ^
STACK CFI 34370 .cfa: sp 288 +
STACK CFI 3438c .cfa: sp 0 +
STACK CFI 34390 .cfa: x29 96 +
STACK CFI INIT 34628 520 .cfa: sp 0 +
STACK CFI 3462c .cfa: sp 144 +
STACK CFI 34648 .cfa: x29 96 + x19: .cfa -8 + ^ x20: .cfa -16 + ^ x21: .cfa -24 + ^ x22: .cfa -32 + ^ x23: .cfa -40 + ^ x24: .cfa -48 + ^ x25: .cfa -56 + ^ x26: .cfa -64 + ^ x27: .cfa -72 + ^ x28: .cfa -80 + ^ .ra: .cfa -88 + ^ x29: .cfa -96 + ^
STACK CFI 34b24 .cfa: sp 144 +
STACK CFI 34b40 .cfa: sp 0 +
STACK CFI 34b44 .cfa: x29 96 +
STACK CFI INIT 354e8 136c .cfa: sp 0 +
STACK CFI 354ec .cfa: sp 224 +
STACK CFI 35508 .cfa: x29 96 + x19: .cfa -8 + ^ x20: .cfa -16 + ^ x21: .cfa -24 + ^ x22: .cfa -32 + ^ x23: .cfa -40 + ^ x24: .cfa -48 + ^ x25: .cfa -56 + ^ x26: .cfa -64 + ^ x27: .cfa -72 + ^ x28: .cfa -80 + ^ .ra: .cfa -88 + ^ x29: .cfa -96 + ^
STACK CFI 36830 .cfa: sp 224 +
STACK CFI 3684c .cfa: sp 0 +
STACK CFI 36850 .cfa: x29 96 +
STACK CFI INIT 36854 1b8 .cfa: sp 0 +
STACK CFI INIT 143c0 45c .cfa: sp 0 +
STACK CFI 143c4 .cfa: sp 224 +
STACK CFI 143e0 .cfa: x29 96 + x19: .cfa -8 + ^ x20: .cfa -16 + ^ x21: .cfa -24 + ^ x22: .cfa -32 + ^ x23: .cfa -40 + ^ x24: .cfa -48 + ^ x25: .cfa -56 + ^ x26: .cfa -64 + ^ x27: .cfa -72 + ^ x28: .cfa -80 + ^ .ra: .cfa -88 + ^ x29: .cfa -96 + ^
STACK CFI 14704 .cfa: sp 224 +
STACK CFI 14720 .cfa: sp 0 +
STACK CFI 14724 .cfa: x29 96 +
STACK CFI INIT 1481c 45c .cfa: sp 0 +
STACK CFI 14820 .cfa: sp 224 +
STACK CFI 1483c .cfa: x29 96 + x19: .cfa -8 + ^ x20: .cfa -16 + ^ x21: .cfa -24 + ^ x22: .cfa -32 + ^ x23: .cfa -40 + ^ x24: .cfa -48 + ^ x25: .cfa -56 + ^ x26: .cfa -64 + ^ x27: .cfa -72 + ^ x28: .cfa -80 + ^ .ra: .cfa -88 + ^ x29: .cfa -96 + ^
STACK CFI 14b60 .cfa: sp 224 +
STACK CFI 14b7c .cfa: sp 0 +
STACK CFI 14b80 .cfa: x29 96 +
STACK CFI INIT 14c78 45c .cfa: sp 0 +
STACK CFI 14c7c .cfa: sp 224 +
STACK CFI 14c98 .cfa: x29 96 + x19: .cfa -8 + ^ x20: .cfa -16 + ^ x21: .cfa -24 + ^ x22: .cfa -32 + ^ x23: .cfa -40 + ^ x24: .cfa -48 + ^ x25: .cfa -56 + ^ x26: .cfa -64 + ^ x27: .cfa -72 + ^ x28: .cfa -80 + ^ .ra: .cfa -88 + ^ x29: .cfa -96 + ^
STACK CFI 14fbc .cfa: sp 224 +
STACK CFI 14fd8 .cfa: sp 0 +
STACK CFI 14fdc .cfa: x29 96 +
STACK CFI INIT 150d4 45c .cfa: sp 0 +
STACK CFI 150d8 .cfa: sp 224 +
STACK CFI 150f4 .cfa: x29 96 + x19: .cfa -8 + ^ x20: .cfa -16 + ^ x21: .cfa -24 + ^ x22: .cfa -32 + ^ x23: .cfa -40 + ^ x24: .cfa -48 + ^ x25: .cfa -56 + ^ x26: .cfa -64 + ^ x27: .cfa -72 + ^ x28: .cfa -80 + ^ .ra: .cfa -88 + ^ x29: .cfa -96 + ^
STACK CFI 15418 .cfa: sp 224 +
STACK CFI 15434 .cfa: sp 0 +
STACK CFI 15438 .cfa: x29 96 +
STACK CFI INIT 15530 45c .cfa: sp 0 +
STACK CFI 15534 .cfa: sp 224 +
STACK CFI 15550 .cfa: x29 96 + x19: .cfa -8 + ^ x20: .cfa -16 + ^ x21: .cfa -24 + ^ x22: .cfa -32 + ^ x23: .cfa -40 + ^ x24: .cfa -48 + ^ x25: .cfa -56 + ^ x26: .cfa -64 + ^ x27: .cfa -72 + ^ x28: .cfa -80 + ^ .ra: .cfa -88 + ^ x29: .cfa -96 + ^
STACK CFI 15874 .cfa: sp 224 +
STACK CFI 15890 .cfa: sp 0 +
STACK CFI 15894 .cfa: x29 96 +
STACK CFI INIT 1598c 45c .cfa: sp 0 +
STACK CFI 15990 .cfa: sp 224 +
STACK CFI 159ac .cfa: x29 96 + x19: .cfa -8 + ^ x20: .cfa -16 + ^ x21: .cfa -24 + ^ x22: .cfa -32 + ^ x23: .cfa -40 + ^ x24: .cfa -48 + ^ x25: .cfa -56 + ^ x26: .cfa -64 + ^ x27: .cfa -72 + ^ x28: .cfa -80 + ^ .ra: .cfa -88 + ^ x29: .cfa -96 + ^
STACK CFI 15cd0 .cfa: sp 224 +
STACK CFI 15cec .cfa: sp 0 +
STACK CFI 15cf0 .cfa: x29 96 +
STACK CFI INIT 15de8 45c .cfa: sp 0 +
STACK CFI 15dec .cfa: sp 224 +
STACK CFI 15e08 .cfa: x29 96 + x19: .cfa -8 + ^ x20: .cfa -16 + ^ x21: .cfa -24 + ^ x22: .cfa -32 + ^ x23: .cfa -40 + ^ x24: .cfa -48 + ^ x25: .cfa -56 + ^ x26: .cfa -64 + ^ x27: .cfa -72 + ^ x28: .cfa -80 + ^ .ra: .cfa -88 + ^ x29: .cfa -96 + ^
STACK CFI 1612c .cfa: sp 224 +
STACK CFI 16148 .cfa: sp 0 +
STACK CFI 1614c .cfa: x29 96 +
STACK CFI INIT 16244 45c .cfa: sp 0 +
STACK CFI 16248 .cfa: sp 224 +
STACK CFI 16264 .cfa: x29 96 + x19: .cfa -8 + ^ x20: .cfa -16 + ^ x21: .cfa -24 + ^ x22: .cfa -32 + ^ x23: .cfa -40 + ^ x24: .cfa -48 + ^ x25: .cfa -56 + ^ x26: .cfa -64 + ^ x27: .cfa -72 + ^ x28: .cfa -80 + ^ .ra: .cfa -88 + ^ x29: .cfa -96 + ^
STACK CFI 16588 .cfa: sp 224 +
STACK CFI 165a4 .cfa: sp 0 +
STACK CFI 165a8 .cfa: x29 96 +
STACK CFI INIT 166a0 45c .cfa: sp 0 +
STACK CFI 166a4 .cfa: sp 224 +
STACK CFI 166c0 .cfa: x29 96 + x19: .cfa -8 + ^ x20: .cfa -16 + ^ x21: .cfa -24 + ^ x22: .cfa -32 + ^ x23: .cfa -40 + ^ x24: .cfa -48 + ^ x25: .cfa -56 + ^ x26: .cfa -64 + ^ x27: .cfa -72 + ^ x28: .cfa -80 + ^ .ra: .cfa -88 + ^ x29: .cfa -96 + ^
STACK CFI 169e4 .cfa: sp 224 +
STACK CFI 16a00 .cfa: sp 0 +
STACK CFI 16a04 .cfa: x29 96 +
STACK CFI INIT 16afc 45c .cfa: sp 0 +
STACK CFI 16b00 .cfa: sp 224 +
STACK CFI 16b1c .cfa: x29 96 + x19: .cfa -8 + ^ x20: .cfa -16 + ^ x21: .cfa -24 + ^ x22: .cfa -32 + ^ x23: .cfa -40 + ^ x24: .cfa -48 + ^ x25: .cfa -56 + ^ x26: .cfa -64 + ^ x27: .cfa -72 + ^ x28: .cfa -80 + ^ .ra: .cfa -88 + ^ x29: .cfa -96 + ^
STACK CFI 16e40 .cfa: sp 224 +
STACK CFI 16e5c .cfa: sp 0 +
STACK CFI 16e60 .cfa: x29 96 +
STACK CFI INIT 16f58 45c .cfa: sp 0 +
STACK CFI 16f5c .cfa: sp 224 +
STACK CFI 16f78 .cfa: x29 96 + x19: .cfa -8 + ^ x20: .cfa -16 + ^ x21: .cfa -24 + ^ x22: .cfa -32 + ^ x23: .cfa -40 + ^ x24: .cfa -48 + ^ x25: .cfa -56 + ^ x26: .cfa -64 + ^ x27: .cfa -72 + ^ x28: .cfa -80 + ^ .ra: .cfa -88 + ^ x29: .cfa -96 + ^
STACK CFI 1729c .cfa: sp 224 +
STACK CFI 172b8 .cfa: sp 0 +
STACK CFI 172bc .cfa: x29 96 +
STACK CFI INIT 173b4 45c .cfa: sp 0 +
STACK CFI 173b8 .cfa: sp 224 +
STACK CFI 173d4 .cfa: x29 96 + x19: .cfa -8 + ^ x20: .cfa -16 + ^ x21: .cfa -24 + ^ x22: .cfa -32 + ^ x23: .cfa -40 + ^ x24: .cfa -48 + ^ x25: .cfa -56 + ^ x26: .cfa -64 + ^ x27: .cfa -72 + ^ x28: .cfa -80 + ^ .ra: .cfa -88 + ^ x29: .cfa -96 + ^
STACK CFI 176f8 .cfa: sp 224 +
STACK CFI 17714 .cfa: sp 0 +
STACK CFI 17718 .cfa: x29 96 +
STACK CFI INIT 17930 2f8 .cfa: sp 0 +
STACK CFI 17934 .cfa: sp 176 +
STACK CFI 17948 .cfa: x29 64 + x19: .cfa -8 + ^ x20: .cfa -16 + ^ x21: .cfa -24 + ^ x22: .cfa -32 + ^ x23: .cfa -48 + ^ .ra: .cfa -56 + ^ x29: .cfa -64 + ^
STACK CFI 17b1c .cfa: sp 176 +
STACK CFI 17b30 .cfa: sp 0 +
STACK CFI 17b34 .cfa: x29 64 +
STACK CFI INIT 17c78 74 .cfa: sp 0 +
STACK CFI 17c7c .cfa: sp 48 +
STACK CFI 17c88 .cfa: x29 32 + x19: .cfa -8 + ^ x20: .cfa -16 + ^ .ra: .cfa -24 + ^ x29: .cfa -32 + ^
STACK CFI 17cd4 .cfa: sp 48 +
STACK CFI 17ce0 .cfa: sp 0 +
STACK CFI 17ce4 .cfa: x29 32 +
STACK CFI INIT 17d7c 154 .cfa: sp 0 +
STACK CFI 17d80 .cfa: sp 384 +
STACK CFI 17d94 .cfa: x29 64 + x19: .cfa -8 + ^ x20: .cfa -16 + ^ x21: .cfa -24 + ^ x22: .cfa -32 + ^ x23: .cfa -40 + ^ x28: .cfa -48 + ^ .ra: .cfa -56 + ^ x29: .cfa -64 + ^
STACK CFI 17e78 .cfa: sp 384 +
STACK CFI 17e8c .cfa: sp 0 +
STACK CFI 17e90 .cfa: x29 64 +
STACK CFI INIT 17f04 12c .cfa: sp 0 +
STACK CFI 17f08 .cfa: sp 80 +
STACK CFI 17f1c .cfa: x29 80 + x19: .cfa -8 + ^ x20: .cfa -16 + ^ x21: .cfa -24 + ^ x22: .cfa -32 + ^ x23: .cfa -40 + ^ x24: .cfa -48 + ^ x25: .cfa -56 + ^ x26: .cfa -64 + ^ .ra: .cfa -72 + ^ x29: .cfa -80 + ^
STACK CFI 17fe4 .cfa: sp 80 +
STACK CFI 17ff8 .cfa: sp 0 +
STACK CFI 17ffc .cfa: x29 80 +
STACK CFI INIT 180d4 2d8 .cfa: sp 0 +
STACK CFI 180d8 .cfa: sp 144 +
STACK CFI 180f4 .cfa: x29 96 + x19: .cfa -8 + ^ x20: .cfa -16 + ^ x21: .cfa -24 + ^ x22: .cfa -32 + ^ x23: .cfa -40 + ^ x24: .cfa -48 + ^ x25: .cfa -56 + ^ x26: .cfa -64 + ^ x27: .cfa -72 + ^ x28: .cfa -80 + ^ .ra: .cfa -88 + ^ x29: .cfa -96 + ^
STACK CFI 182f8 .cfa: sp 144 +
STACK CFI 18314 .cfa: sp 0 +
STACK CFI 18318 .cfa: x29 96 +
STACK CFI INIT 183c0 50 .cfa: sp 0 +
STACK CFI 183c4 .cfa: sp 32 +
STACK CFI 183cc .cfa: x29 32 + x19: .cfa -8 + ^ x20: .cfa -16 + ^ .ra: .cfa -24 + ^ x29: .cfa -32 + ^
STACK CFI INIT 18474 174 .cfa: sp 0 +
STACK CFI 18478 .cfa: sp 80 +
STACK CFI 1848c .cfa: x29 80 + x19: .cfa -8 + ^ x20: .cfa -16 + ^ x21: .cfa -24 + ^ x22: .cfa -32 + ^ x23: .cfa -40 + ^ x24: .cfa -48 + ^ x25: .cfa -64 + ^ .ra: .cfa -72 + ^ x29: .cfa -80 + ^
STACK CFI 185b4 .cfa: sp 80 +
STACK CFI 185c8 .cfa: sp 0 +
STACK CFI 185cc .cfa: x29 80 +
STACK CFI INIT 18730 224 .cfa: sp 0 +
STACK CFI 18734 .cfa: sp 128 +
STACK CFI 1874c .cfa: x29 80 + x19: .cfa -8 + ^ x20: .cfa -16 + ^ x21: .cfa -24 + ^ x22: .cfa -32 + ^ x23: .cfa -40 + ^ x24: .cfa -48 + ^ x25: .cfa -64 + ^ .ra: .cfa -72 + ^ x29: .cfa -80 + ^
STACK CFI 188e8 .cfa: sp 128 +
STACK CFI 18900 .cfa: sp 0 +
STACK CFI 18904 .cfa: x29 80 +
STACK CFI INIT 191a8 a8 .cfa: sp 0 +
STACK CFI 191ac .cfa: sp 32 +
STACK CFI 191b4 .cfa: x29 32 + x19: .cfa -16 + ^ .ra: .cfa -24 + ^ x29: .cfa -32 + ^
STACK CFI 191e8 .cfa: sp 32 +
STACK CFI 191f0 .cfa: sp 0 +
STACK CFI 191f4 .cfa: x29 32 +
STACK CFI 191f8 .cfa: sp 32 +
STACK CFI 19200 .cfa: sp 0 +
STACK CFI 19204 .cfa: x29 32 +
STACK CFI INIT 193a8 22ac .cfa: sp 0 +
STACK CFI 193ac .cfa: sp 96 +
STACK CFI 193c4 .cfa: x29 96 + x19: .cfa -8 + ^ x20: .cfa -16 + ^ x21: .cfa -24 + ^ x22: .cfa -32 + ^ x23: .cfa -40 + ^ x24: .cfa -48 + ^ x25: .cfa -56 + ^ x26: .cfa -64 + ^ x27: .cfa -72 + ^ x28: .cfa -80 + ^ .ra: .cfa -88 + ^ x29: .cfa -96 + ^
STACK CFI 1aa1c .cfa: sp 96 +
STACK CFI 1aa34 .cfa: sp 0 +
STACK CFI 1aa38 .cfa: x29 96 +
STACK CFI INIT 1b784 74 .cfa: sp 0 +
STACK CFI 1b788 .cfa: sp 48 +
STACK CFI 1b794 .cfa: x29 32 + x19: .cfa -8 + ^ x20: .cfa -16 + ^ .ra: .cfa -24 + ^ x29: .cfa -32 + ^
STACK CFI 1b7e0 .cfa: sp 48 +
STACK CFI 1b7ec .cfa: sp 0 +
STACK CFI 1b7f0 .cfa: x29 32 +
STACK CFI INIT 1b8f0 74 .cfa: sp 0 +
STACK CFI 1b8f4 .cfa: sp 48 +
STACK CFI 1b900 .cfa: x29 32 + x19: .cfa -8 + ^ x20: .cfa -16 + ^ .ra: .cfa -24 + ^ x29: .cfa -32 + ^
STACK CFI 1b94c .cfa: sp 48 +
STACK CFI 1b958 .cfa: sp 0 +
STACK CFI 1b95c .cfa: x29 32 +
STACK CFI INIT 1b964 168 .cfa: sp 0 +
STACK CFI 1b968 .cfa: sp 384 +
STACK CFI 1b97c .cfa: x29 64 + x19: .cfa -8 + ^ x20: .cfa -16 + ^ x21: .cfa -24 + ^ x22: .cfa -32 + ^ x23: .cfa -40 + ^ x28: .cfa -48 + ^ .ra: .cfa -56 + ^ x29: .cfa -64 + ^
STACK CFI 1ba74 .cfa: sp 384 +
STACK CFI 1ba88 .cfa: sp 0 +
STACK CFI 1ba8c .cfa: x29 64 +
STACK CFI INIT 1bacc 168 .cfa: sp 0 +
STACK CFI 1bad0 .cfa: sp 384 +
STACK CFI 1bae4 .cfa: x29 64 + x19: .cfa -8 + ^ x20: .cfa -16 + ^ x21: .cfa -24 + ^ x22: .cfa -32 + ^ x23: .cfa -40 + ^ x28: .cfa -48 + ^ .ra: .cfa -56 + ^ x29: .cfa -64 + ^
STACK CFI 1bbdc .cfa: sp 384 +
STACK CFI 1bbf0 .cfa: sp 0 +
STACK CFI 1bbf4 .cfa: x29 64 +
STACK CFI INIT 1bc40 48 .cfa: sp 0 +
STACK CFI 1bc44 .cfa: sp 32 +
STACK CFI 1bc4c .cfa: x29 32 + x19: .cfa -8 + ^ x20: .cfa -16 + ^ .ra: .cfa -24 + ^ x29: .cfa -32 + ^
STACK CFI INIT 1bcc0 3030 .cfa: sp 0 +
STACK CFI 1bcc4 .cfa: sp 96 +
STACK CFI 1bcdc .cfa: x29 96 + x19: .cfa -8 + ^ x20: .cfa -16 + ^ x21: .cfa -24 + ^ x22: .cfa -32 + ^ x23: .cfa -40 + ^ x24: .cfa -48 + ^ x25: .cfa -56 + ^ x26: .cfa -64 + ^ x27: .cfa -72 + ^ x28: .cfa -80 + ^ .ra: .cfa -88 + ^ x29: .cfa -96 + ^
STACK CFI 1e750 .cfa: sp 96 +
STACK CFI 1e768 .cfa: sp 0 +
STACK CFI 1e76c .cfa: x29 96 +
STACK CFI INIT 1ed6c ac .cfa: sp 0 +
STACK CFI 1ed70 .cfa: sp 48 +
STACK CFI 1ed7c .cfa: x29 48 + x19: .cfa -8 + ^ x20: .cfa -16 + ^ x21: .cfa -32 + ^ .ra: .cfa -40 + ^ x29: .cfa -48 + ^
STACK CFI 1ee00 .cfa: sp 48 +
STACK CFI 1ee0c .cfa: sp 0 +
STACK CFI 1ee10 .cfa: x29 48 +
STACK CFI INIT 1f53c 74 .cfa: sp 0 +
STACK CFI 1f540 .cfa: sp 48 +
STACK CFI 1f54c .cfa: x29 32 + x19: .cfa -8 + ^ x20: .cfa -16 + ^ .ra: .cfa -24 + ^ x29: .cfa -32 + ^
STACK CFI 1f598 .cfa: sp 48 +
STACK CFI 1f5a4 .cfa: sp 0 +
STACK CFI 1f5a8 .cfa: x29 32 +
STACK CFI INIT 1f5b0 88c .cfa: sp 0 +
STACK CFI 1f5b4 .cfa: sp 208 +
STACK CFI 1f5d0 .cfa: x29 96 + x19: .cfa -8 + ^ x20: .cfa -16 + ^ x21: .cfa -24 + ^ x22: .cfa -32 + ^ x23: .cfa -40 + ^ x24: .cfa -48 + ^ x25: .cfa -56 + ^ x26: .cfa -64 + ^ x27: .cfa -72 + ^ x28: .cfa -80 + ^ .ra: .cfa -88 + ^ x29: .cfa -96 + ^
STACK CFI 1fcf8 .cfa: sp 208 +
STACK CFI 1fd14 .cfa: sp 0 +
STACK CFI 1fd18 .cfa: x29 96 +
STACK CFI INIT 20070 74 .cfa: sp 0 +
STACK CFI 20074 .cfa: sp 48 +
STACK CFI 20080 .cfa: x29 32 + x19: .cfa -8 + ^ x20: .cfa -16 + ^ .ra: .cfa -24 + ^ x29: .cfa -32 + ^
STACK CFI 200cc .cfa: sp 48 +
STACK CFI 200d8 .cfa: sp 0 +
STACK CFI 200dc .cfa: x29 32 +
STACK CFI INIT 200e4 d8 .cfa: sp 0 +
STACK CFI 200e8 .cfa: sp 64 +
STACK CFI 200f8 .cfa: x29 48 + x19: .cfa -8 + ^ x20: .cfa -16 + ^ x21: .cfa -32 + ^ .ra: .cfa -40 + ^ x29: .cfa -48 + ^
STACK CFI 201a0 .cfa: sp 64 +
STACK CFI 201b0 .cfa: sp 0 +
STACK CFI 201b4 .cfa: x29 48 +
STACK CFI INIT 20638 34c .cfa: sp 0 +
STACK CFI 2063c .cfa: sp 192 +
STACK CFI 20650 .cfa: x29 64 + x19: .cfa -8 + ^ x20: .cfa -16 + ^ x21: .cfa -24 + ^ x22: .cfa -32 + ^ x23: .cfa -40 + ^ x24: .cfa -48 + ^ .ra: .cfa -56 + ^ x29: .cfa -64 + ^
STACK CFI 20860 .cfa: sp 192 +
STACK CFI 20874 .cfa: sp 0 +
STACK CFI 20878 .cfa: x29 64 +
STACK CFI INIT 20988 340 .cfa: sp 0 +
STACK CFI 2098c .cfa: sp 80 +
STACK CFI 2099c .cfa: x29 48 + x19: .cfa -8 + ^ x20: .cfa -16 + ^ x21: .cfa -24 + ^ x22: .cfa -32 + ^ .ra: .cfa -40 + ^ x29: .cfa -48 + ^
STACK CFI 20c78 .cfa: sp 80 +
STACK CFI 20c88 .cfa: sp 0 +
STACK CFI 20c8c .cfa: x29 48 +
STACK CFI INIT 20cc8 304 .cfa: sp 0 +
STACK CFI 20ccc .cfa: sp 192 +
STACK CFI 20ce0 .cfa: x29 64 + x19: .cfa -8 + ^ x20: .cfa -16 + ^ x21: .cfa -24 + ^ x22: .cfa -32 + ^ x23: .cfa -48 + ^ .ra: .cfa -56 + ^ x29: .cfa -64 + ^
STACK CFI 20ec0 .cfa: sp 192 +
STACK CFI 20ed4 .cfa: sp 0 +
STACK CFI 20ed8 .cfa: x29 64 +
STACK CFI INIT 20fd0 230 .cfa: sp 0 +
STACK CFI 20fd4 .cfa: sp 80 +
STACK CFI 20fe4 .cfa: x29 48 + x19: .cfa -8 + ^ x20: .cfa -16 + ^ x21: .cfa -24 + ^ x22: .cfa -32 + ^ .ra: .cfa -40 + ^ x29: .cfa -48 + ^
STACK CFI 211b8 .cfa: sp 80 +
STACK CFI 211c8 .cfa: sp 0 +
STACK CFI 211cc .cfa: x29 48 +
STACK CFI INIT 21200 a8 .cfa: sp 0 +
STACK CFI 21204 .cfa: sp 32 +
STACK CFI 2120c .cfa: x29 32 + x19: .cfa -16 + ^ .ra: .cfa -24 + ^ x29: .cfa -32 + ^
STACK CFI 21240 .cfa: sp 32 +
STACK CFI 21248 .cfa: sp 0 +
STACK CFI 2124c .cfa: x29 32 +
STACK CFI 21250 .cfa: sp 32 +
STACK CFI 21258 .cfa: sp 0 +
STACK CFI 2125c .cfa: x29 32 +
STACK CFI INIT 21340 36c .cfa: sp 0 +
STACK CFI 21344 .cfa: sp 240 +
STACK CFI 21358 .cfa: x29 64 + x19: .cfa -8 + ^ x20: .cfa -16 + ^ x21: .cfa -24 + ^ x22: .cfa -32 + ^ x23: .cfa -40 + ^ x24: .cfa -48 + ^ .ra: .cfa -56 + ^ x29: .cfa -64 + ^
STACK CFI 21580 .cfa: sp 240 +
STACK CFI 21594 .cfa: sp 0 +
STACK CFI 21598 .cfa: x29 64 +
STACK CFI INIT 216b0 238 .cfa: sp 0 +
STACK CFI 216b4 .cfa: sp 80 +
STACK CFI 216c4 .cfa: x29 48 + x19: .cfa -8 + ^ x20: .cfa -16 + ^ x21: .cfa -24 + ^ x22: .cfa -32 + ^ .ra: .cfa -40 + ^ x29: .cfa -48 + ^
STACK CFI 218a0 .cfa: sp 80 +
STACK CFI 218b0 .cfa: sp 0 +
STACK CFI 218b4 .cfa: x29 48 +
STACK CFI INIT 218e8 358 .cfa: sp 0 +
STACK CFI 218ec .cfa: sp 208 +
STACK CFI 21900 .cfa: x29 64 + x19: .cfa -8 + ^ x20: .cfa -16 + ^ x21: .cfa -24 + ^ x22: .cfa -32 + ^ x23: .cfa -48 + ^ .ra: .cfa -56 + ^ x29: .cfa -64 + ^
STACK CFI 21b1c .cfa: sp 208 +
STACK CFI 21b30 .cfa: sp 0 +
STACK CFI 21b34 .cfa: x29 64 +
STACK CFI INIT 21c44 328 .cfa: sp 0 +
STACK CFI 21c48 .cfa: sp 80 +
STACK CFI 21c58 .cfa: x29 48 + x19: .cfa -8 + ^ x20: .cfa -16 + ^ x21: .cfa -24 + ^ x22: .cfa -32 + ^ .ra: .cfa -40 + ^ x29: .cfa -48 + ^
STACK CFI 21f1c .cfa: sp 80 +
STACK CFI 21f2c .cfa: sp 0 +
STACK CFI 21f30 .cfa: x29 48 +
STACK CFI INIT 21f6c 39c .cfa: sp 0 +
STACK CFI 21f70 .cfa: sp 224 +
STACK CFI 21f84 .cfa: x29 64 + x19: .cfa -8 + ^ x20: .cfa -16 + ^ x21: .cfa -24 + ^ x22: .cfa -32 + ^ x23: .cfa -48 + ^ .ra: .cfa -56 + ^ x29: .cfa -64 + ^
STACK CFI 221d8 .cfa: sp 224 +
STACK CFI 221ec .cfa: sp 0 +
STACK CFI 221f0 .cfa: x29 64 +
STACK CFI INIT 2230c 228 .cfa: sp 0 +
STACK CFI 22310 .cfa: sp 80 +
STACK CFI 22320 .cfa: x29 48 + x19: .cfa -8 + ^ x20: .cfa -16 + ^ x21: .cfa -24 + ^ x22: .cfa -32 + ^ .ra: .cfa -40 + ^ x29: .cfa -48 + ^
STACK CFI 224ec .cfa: sp 80 +
STACK CFI 224fc .cfa: sp 0 +
STACK CFI 22500 .cfa: x29 48 +
STACK CFI INIT 22534 34c .cfa: sp 0 +
STACK CFI 22538 .cfa: sp 192 +
STACK CFI 2254c .cfa: x29 64 + x19: .cfa -8 + ^ x20: .cfa -16 + ^ x21: .cfa -24 + ^ x22: .cfa -32 + ^ x23: .cfa -40 + ^ x24: .cfa -48 + ^ .ra: .cfa -56 + ^ x29: .cfa -64 + ^
STACK CFI 2275c .cfa: sp 192 +
STACK CFI 22770 .cfa: sp 0 +
STACK CFI 22774 .cfa: x29 64 +
STACK CFI INIT 22884 454 .cfa: sp 0 +
STACK CFI 22888 .cfa: sp 80 +
STACK CFI 22898 .cfa: x29 48 + x19: .cfa -8 + ^ x20: .cfa -16 + ^ x21: .cfa -24 + ^ x22: .cfa -32 + ^ .ra: .cfa -40 + ^ x29: .cfa -48 + ^
STACK CFI 22c7c .cfa: sp 80 +
STACK CFI 22c8c .cfa: sp 0 +
STACK CFI 22c90 .cfa: x29 48 +
STACK CFI INIT 22cd8 30c .cfa: sp 0 +
STACK CFI 22cdc .cfa: sp 192 +
STACK CFI 22cf0 .cfa: x29 64 + x19: .cfa -8 + ^ x20: .cfa -16 + ^ x21: .cfa -24 + ^ x22: .cfa -32 + ^ x23: .cfa -48 + ^ .ra: .cfa -56 + ^ x29: .cfa -64 + ^
STACK CFI 22ed8 .cfa: sp 192 +
STACK CFI 22eec .cfa: sp 0 +
STACK CFI 22ef0 .cfa: x29 64 +
STACK CFI INIT 22fe8 32c .cfa: sp 0 +
STACK CFI 22fec .cfa: sp 80 +
STACK CFI 22ffc .cfa: x29 48 + x19: .cfa -8 + ^ x20: .cfa -16 + ^ x21: .cfa -24 + ^ x22: .cfa -32 + ^ .ra: .cfa -40 + ^ x29: .cfa -48 + ^
STACK CFI 232c4 .cfa: sp 80 +
STACK CFI 232d4 .cfa: sp 0 +
STACK CFI 232d8 .cfa: x29 48 +
STACK CFI INIT 23314 a8 .cfa: sp 0 +
STACK CFI 23318 .cfa: sp 32 +
STACK CFI 23320 .cfa: x29 32 + x19: .cfa -16 + ^ .ra: .cfa -24 + ^ x29: .cfa -32 + ^
STACK CFI 23354 .cfa: sp 32 +
STACK CFI 2335c .cfa: sp 0 +
STACK CFI 23360 .cfa: x29 32 +
STACK CFI 23364 .cfa: sp 32 +
STACK CFI 2336c .cfa: sp 0 +
STACK CFI 23370 .cfa: x29 32 +
STACK CFI INIT 23470 36c .cfa: sp 0 +
STACK CFI 23474 .cfa: sp 224 +
STACK CFI 23488 .cfa: x29 64 + x19: .cfa -8 + ^ x20: .cfa -16 + ^ x21: .cfa -24 + ^ x22: .cfa -32 + ^ x23: .cfa -40 + ^ x24: .cfa -48 + ^ .ra: .cfa -56 + ^ x29: .cfa -64 + ^
STACK CFI 236b0 .cfa: sp 224 +
STACK CFI 236c4 .cfa: sp 0 +
STACK CFI 236c8 .cfa: x29 64 +
STACK CFI INIT 237e0 22c .cfa: sp 0 +
STACK CFI 237e4 .cfa: sp 80 +
STACK CFI 237f4 .cfa: x29 48 + x19: .cfa -8 + ^ x20: .cfa -16 + ^ x21: .cfa -24 + ^ x22: .cfa -32 + ^ .ra: .cfa -40 + ^ x29: .cfa -48 + ^
STACK CFI 239c4 .cfa: sp 80 +
STACK CFI 239d4 .cfa: sp 0 +
STACK CFI 239d8 .cfa: x29 48 +
STACK CFI INIT 23a0c 374 .cfa: sp 0 +
STACK CFI 23a10 .cfa: sp 240 +
STACK CFI 23a24 .cfa: x29 64 + x19: .cfa -8 + ^ x20: .cfa -16 + ^ x21: .cfa -24 + ^ x22: .cfa -32 + ^ x23: .cfa -48 + ^ .ra: .cfa -56 + ^ x29: .cfa -64 + ^
STACK CFI 23c54 .cfa: sp 240 +
STACK CFI 23c68 .cfa: sp 0 +
STACK CFI 23c6c .cfa: x29 64 +
STACK CFI INIT 23d84 2e8 .cfa: sp 0 +
STACK CFI 23d88 .cfa: sp 80 +
STACK CFI 23d98 .cfa: x29 48 + x19: .cfa -8 + ^ x20: .cfa -16 + ^ x21: .cfa -24 + ^ x22: .cfa -32 + ^ .ra: .cfa -40 + ^ x29: .cfa -48 + ^
STACK CFI 2401c .cfa: sp 80 +
STACK CFI 2402c .cfa: sp 0 +
STACK CFI 24030 .cfa: x29 48 +
STACK CFI INIT 2406c 358 .cfa: sp 0 +
STACK CFI 24070 .cfa: sp 192 +
STACK CFI 24084 .cfa: x29 64 + x19: .cfa -8 + ^ x20: .cfa -16 + ^ x21: .cfa -24 + ^ x22: .cfa -32 + ^ x23: .cfa -48 + ^ .ra: .cfa -56 + ^ x29: .cfa -64 + ^
STACK CFI 242a0 .cfa: sp 192 +
STACK CFI 242b4 .cfa: sp 0 +
STACK CFI 242b8 .cfa: x29 64 +
STACK CFI INIT 244c8 36c .cfa: sp 0 +
STACK CFI 244cc .cfa: sp 240 +
STACK CFI 244e0 .cfa: x29 64 + x19: .cfa -8 + ^ x20: .cfa -16 + ^ x21: .cfa -24 + ^ x22: .cfa -32 + ^ x23: .cfa -40 + ^ x24: .cfa -48 + ^ .ra: .cfa -56 + ^ x29: .cfa -64 + ^
STACK CFI 24708 .cfa: sp 240 +
STACK CFI 2471c .cfa: sp 0 +
STACK CFI 24720 .cfa: x29 64 +
STACK CFI INIT 24838 2cc .cfa: sp 0 +
STACK CFI 2483c .cfa: sp 80 +
STACK CFI 2484c .cfa: x29 48 + x19: .cfa -8 + ^ x20: .cfa -16 + ^ x21: .cfa -24 + ^ x22: .cfa -32 + ^ .ra: .cfa -40 + ^ x29: .cfa -48 + ^
STACK CFI 24ab8 .cfa: sp 80 +
STACK CFI 24ac8 .cfa: sp 0 +
STACK CFI 24acc .cfa: x29 48 +
STACK CFI INIT 24eac 294 .cfa: sp 0 +
STACK CFI 24eb0 .cfa: sp 240 +
STACK CFI 24ec8 .cfa: x29 80 + x19: .cfa -8 + ^ x20: .cfa -16 + ^ x21: .cfa -24 + ^ x22: .cfa -32 + ^ x23: .cfa -40 + ^ x24: .cfa -48 + ^ x25: .cfa -64 + ^ .ra: .cfa -72 + ^ x29: .cfa -80 + ^
STACK CFI 25068 .cfa: sp 240 +
STACK CFI 25080 .cfa: sp 0 +
STACK CFI 25084 .cfa: x29 80 +
STACK CFI INIT 251bc 50 .cfa: sp 0 +
STACK CFI 251c0 .cfa: sp 32 +
STACK CFI 251c8 .cfa: x29 32 + x19: .cfa -8 + ^ x20: .cfa -16 + ^ .ra: .cfa -24 + ^ x29: .cfa -32 + ^
STACK CFI INIT 25238 7c0 .cfa: sp 0 +
STACK CFI 2523c .cfa: sp 320 +
STACK CFI 25258 .cfa: x29 96 + x19: .cfa -8 + ^ x20: .cfa -16 + ^ x21: .cfa -24 + ^ x22: .cfa -32 + ^ x23: .cfa -40 + ^ x24: .cfa -48 + ^ x25: .cfa -56 + ^ x26: .cfa -64 + ^ x27: .cfa -72 + ^ x28: .cfa -80 + ^ .ra: .cfa -88 + ^ x29: .cfa -96 + ^
STACK CFI 258a8 .cfa: sp 320 +
STACK CFI 258c4 .cfa: sp 0 +
STACK CFI 258c8 .cfa: x29 96 +
STACK CFI INIT 25a5c 13c .cfa: sp 0 +
STACK CFI 25a60 .cfa: sp 80 +
STACK CFI 25a74 .cfa: x29 80 + x19: .cfa -8 + ^ x20: .cfa -16 + ^ x21: .cfa -24 + ^ x22: .cfa -32 + ^ x23: .cfa -40 + ^ x24: .cfa -48 + ^ x28: .cfa -64 + ^ .ra: .cfa -72 + ^ x29: .cfa -80 + ^
STACK CFI 25b08 .cfa: sp 80 +
STACK CFI 25b1c .cfa: sp 0 +
STACK CFI 25b20 .cfa: x29 80 +
STACK CFI INIT 29eb4 c74 .cfa: sp 0 +
STACK CFI 29eb8 .cfa: sp 96 +
STACK CFI 29ed0 .cfa: x29 96 + x19: .cfa -8 + ^ x20: .cfa -16 + ^ x21: .cfa -24 + ^ x22: .cfa -32 + ^ x23: .cfa -40 + ^ x24: .cfa -48 + ^ x25: .cfa -56 + ^ x26: .cfa -64 + ^ x27: .cfa -72 + ^ x28: .cfa -80 + ^ .ra: .cfa -88 + ^ x29: .cfa -96 + ^
STACK CFI 2a948 .cfa: sp 96 +
STACK CFI 2a960 .cfa: sp 0 +
STACK CFI 2a964 .cfa: x29 96 +
STACK CFI INIT 2ac7c 26c .cfa: sp 0 +
STACK CFI 2ac80 .cfa: sp 128 +
STACK CFI 2ac90 .cfa: x29 48 + x19: .cfa -8 + ^ x20: .cfa -16 + ^ x21: .cfa -24 + ^ x22: .cfa -32 + ^ .ra: .cfa -40 + ^ x29: .cfa -48 + ^
STACK CFI 2ae34 .cfa: sp 128 +
STACK CFI 2ae44 .cfa: sp 0 +
STACK CFI 2ae48 .cfa: x29 48 +
STACK CFI INIT 2b388 3b8 .cfa: sp 0 +
STACK CFI 2b38c .cfa: sp 96 +
STACK CFI 2b3a4 .cfa: x29 96 + x19: .cfa -8 + ^ x20: .cfa -16 + ^ x21: .cfa -24 + ^ x22: .cfa -32 + ^ x23: .cfa -40 + ^ x24: .cfa -48 + ^ x25: .cfa -56 + ^ x26: .cfa -64 + ^ x27: .cfa -72 + ^ x28: .cfa -80 + ^ .ra: .cfa -88 + ^ x29: .cfa -96 + ^
STACK CFI 2b6e0 .cfa: sp 96 +
STACK CFI 2b6f8 .cfa: sp 0 +
STACK CFI 2b6fc .cfa: x29 96 +
STACK CFI INIT 2b7e0 cb4 .cfa: sp 0 +
STACK CFI 2b7e4 .cfa: sp 96 +
STACK CFI 2b7fc .cfa: x29 96 + x19: .cfa -8 + ^ x20: .cfa -16 + ^ x21: .cfa -24 + ^ x22: .cfa -32 + ^ x23: .cfa -40 + ^ x24: .cfa -48 + ^ x25: .cfa -56 + ^ x26: .cfa -64 + ^ x27: .cfa -72 + ^ x28: .cfa -80 + ^ .ra: .cfa -88 + ^ x29: .cfa -96 + ^
STACK CFI 2c2a4 .cfa: sp 96 +
STACK CFI 2c2bc .cfa: sp 0 +
STACK CFI 2c2c0 .cfa: x29 96 +
STACK CFI INIT 2c77c afc .cfa: sp 0 +
STACK CFI 2c780 .cfa: sp 96 +
STACK CFI 2c798 .cfa: x29 96 + x19: .cfa -8 + ^ x20: .cfa -16 + ^ x21: .cfa -24 + ^ x22: .cfa -32 + ^ x23: .cfa -40 + ^ x24: .cfa -48 + ^ x25: .cfa -56 + ^ x26: .cfa -64 + ^ x27: .cfa -72 + ^ x28: .cfa -80 + ^ .ra: .cfa -88 + ^ x29: .cfa -96 + ^
STACK CFI 2d1ec .cfa: sp 96 +
STACK CFI 2d204 .cfa: sp 0 +
STACK CFI 2d208 .cfa: x29 96 +
STACK CFI INIT 2d454 1430 .cfa: sp 0 +
STACK CFI 2d458 .cfa: sp 96 +
STACK CFI 2d470 .cfa: x29 96 + x19: .cfa -8 + ^ x20: .cfa -16 + ^ x21: .cfa -24 + ^ x22: .cfa -32 + ^ x23: .cfa -40 + ^ x24: .cfa -48 + ^ x25: .cfa -56 + ^ x26: .cfa -64 + ^ x27: .cfa -72 + ^ x28: .cfa -80 + ^ .ra: .cfa -88 + ^ x29: .cfa -96 + ^
STACK CFI 2e70c .cfa: sp 96 +
STACK CFI 2e724 .cfa: sp 0 +
STACK CFI 2e728 .cfa: x29 96 +
STACK CFI INIT 2e9a8 75c .cfa: sp 0 +
STACK CFI 2e9ac .cfa: sp 368 +
STACK CFI 2e9c8 .cfa: x29 96 + x19: .cfa -8 + ^ x20: .cfa -16 + ^ x21: .cfa -24 + ^ x22: .cfa -32 + ^ x23: .cfa -40 + ^ x24: .cfa -48 + ^ x25: .cfa -56 + ^ x26: .cfa -64 + ^ x27: .cfa -72 + ^ x28: .cfa -80 + ^ .ra: .cfa -88 + ^ x29: .cfa -96 + ^
STACK CFI 2ea7c .cfa: sp 368 +
STACK CFI 2ea98 .cfa: sp 0 +
STACK CFI 2ea9c .cfa: x29 96 +
STACK CFI 2eaf0 .cfa: sp 368 +
STACK CFI 2eb0c .cfa: sp 0 +
STACK CFI 2eb10 .cfa: x29 96 +
STACK CFI INIT 2f4c4 eb0 .cfa: sp 0 +
STACK CFI 2f4c8 .cfa: sp 96 +
STACK CFI 2f4e0 .cfa: x29 96 + x19: .cfa -8 + ^ x20: .cfa -16 + ^ x21: .cfa -24 + ^ x22: .cfa -32 + ^ x23: .cfa -40 + ^ x24: .cfa -48 + ^ x25: .cfa -56 + ^ x26: .cfa -64 + ^ x27: .cfa -72 + ^ x28: .cfa -80 + ^ .ra: .cfa -88 + ^ x29: .cfa -96 + ^
STACK CFI 30188 .cfa: sp 96 +
STACK CFI 301a0 .cfa: sp 0 +
STACK CFI 301a4 .cfa: x29 96 +
STACK CFI INIT 306e8 1c9c .cfa: sp 0 +
STACK CFI 306ec .cfa: sp 112 +
STACK CFI 30708 .cfa: x29 96 + x19: .cfa -8 + ^ x20: .cfa -16 + ^ x21: .cfa -24 + ^ x22: .cfa -32 + ^ x23: .cfa -40 + ^ x24: .cfa -48 + ^ x25: .cfa -56 + ^ x26: .cfa -64 + ^ x27: .cfa -72 + ^ x28: .cfa -80 + ^ .ra: .cfa -88 + ^ x29: .cfa -96 + ^ v8: .cfa -112 + ^
STACK CFI 30af0 .cfa: sp 112 +
STACK CFI 30b0c .cfa: sp 0 +
STACK CFI 30b10 .cfa: x29 96 +
STACK CFI INIT 34b48 9a0 .cfa: sp 0 +
STACK CFI 34b4c .cfa: sp 144 +
STACK CFI 34b64 .cfa: x29 80 + x19: .cfa -8 + ^ x20: .cfa -16 + ^ x21: .cfa -24 + ^ x22: .cfa -32 + ^ x23: .cfa -40 + ^ x24: .cfa -48 + ^ x25: .cfa -64 + ^ .ra: .cfa -72 + ^ x29: .cfa -80 + ^
STACK CFI 35464 .cfa: sp 144 +
STACK CFI 3547c .cfa: sp 0 +
STACK CFI 35480 .cfa: x29 80 +
STACK CFI INIT 36a0c 57c .cfa: sp 0 +
STACK CFI 36a10 .cfa: sp 96 +
STACK CFI 36a28 .cfa: x29 96 + x19: .cfa -8 + ^ x20: .cfa -16 + ^ x21: .cfa -24 + ^ x22: .cfa -32 + ^ x23: .cfa -40 + ^ x24: .cfa -48 + ^ x25: .cfa -56 + ^ x26: .cfa -64 + ^ x27: .cfa -72 + ^ x28: .cfa -80 + ^ .ra: .cfa -88 + ^ x29: .cfa -96 + ^
STACK CFI 36eec .cfa: sp 96 +
STACK CFI 36f04 .cfa: sp 0 +
STACK CFI 36f08 .cfa: x29 96 +
STACK CFI INIT 36f88 67c .cfa: sp 0 +
STACK CFI 36f8c .cfa: sp 96 +
STACK CFI 36fa4 .cfa: x29 96 + x19: .cfa -8 + ^ x20: .cfa -16 + ^ x21: .cfa -24 + ^ x22: .cfa -32 + ^ x23: .cfa -40 + ^ x24: .cfa -48 + ^ x25: .cfa -56 + ^ x26: .cfa -64 + ^ x27: .cfa -72 + ^ x28: .cfa -80 + ^ .ra: .cfa -88 + ^ x29: .cfa -96 + ^
STACK CFI 37568 .cfa: sp 96 +
STACK CFI 37580 .cfa: sp 0 +
STACK CFI 37584 .cfa: x29 96 +
